


Disassembly of section .text:

000000000000d0a0 <_start>:
    d0a0:	f3 0f 1e fa          	endbr64 
    d0a4:	31 ed                	xor    %ebp,%ebp
    d0a6:	49 89 d1             	mov    %rdx,%r9
    d0a9:	5e                   	pop    %rsi
    d0aa:	48 89 e2             	mov    %rsp,%rdx
    d0ad:	48 83 e4 f0          	and    $0xfffffffffffffff0,%rsp
    d0b1:	50                   	push   %rax
    d0b2:	54                   	push   %rsp
    d0b3:	4c 8d 05 e6 39 01 00 	lea    0x139e6(%rip),%r8        # 20aa0 <__libc_csu_fini>
    d0ba:	48 8d 0d 6f 39 01 00 	lea    0x1396f(%rip),%rcx        # 20a30 <__libc_csu_init>
    d0c1:	48 8d 3d 2b 2e 01 00 	lea    0x12e2b(%rip),%rdi        # 1fef3 <main>
    d0c8:	ff 15 fa 9e 01 00    	callq  *0x19efa(%rip)        # 26fc8 <__libc_start_main@GLIBC_2.2.5>
    d0ce:	f4                   	hlt    
    d0cf:	90                   	nop

000000000000d0d0 <deregister_tm_clones>:
    d0d0:	48 8d 3d 99 f0 01 00 	lea    0x1f099(%rip),%rdi        # 2c170 <__TMC_END__>
    d0d7:	48 8d 05 92 f0 01 00 	lea    0x1f092(%rip),%rax        # 2c170 <__TMC_END__>
    d0de:	48 39 f8             	cmp    %rdi,%rax
    d0e1:	74 15                	je     d0f8 <deregister_tm_clones+0x28>
    d0e3:	48 8b 05 d6 9e 01 00 	mov    0x19ed6(%rip),%rax        # 26fc0 <_ITM_deregisterTMCloneTable>
    d0ea:	48 85 c0             	test   %rax,%rax
    d0ed:	74 09                	je     d0f8 <deregister_tm_clones+0x28>
    d0ef:	ff e0                	jmpq   *%rax
    d0f1:	0f 1f 80 00 00 00 00 	nopl   0x0(%rax)
    d0f8:	c3                   	retq   
    d0f9:	0f 1f 80 00 00 00 00 	nopl   0x0(%rax)

000000000000d100 <register_tm_clones>:
    d100:	48 8d 3d 69 f0 01 00 	lea    0x1f069(%rip),%rdi        # 2c170 <__TMC_END__>
    d107:	48 8d 35 62 f0 01 00 	lea    0x1f062(%rip),%rsi        # 2c170 <__TMC_END__>
    d10e:	48 29 fe             	sub    %rdi,%rsi
    d111:	48 89 f0             	mov    %rsi,%rax
    d114:	48 c1 ee 3f          	shr    $0x3f,%rsi
    d118:	48 c1 f8 03          	sar    $0x3,%rax
    d11c:	48 01 c6             	add    %rax,%rsi
    d11f:	48 d1 fe             	sar    %rsi
    d122:	74 14                	je     d138 <register_tm_clones+0x38>
    d124:	48 8b 05 ad 9e 01 00 	mov    0x19ead(%rip),%rax        # 26fd8 <_ITM_registerTMCloneTable>
    d12b:	48 85 c0             	test   %rax,%rax
    d12e:	74 08                	je     d138 <register_tm_clones+0x38>
    d130:	ff e0                	jmpq   *%rax
    d132:	66 0f 1f 44 00 00    	nopw   0x0(%rax,%rax,1)
    d138:	c3                   	retq   
    d139:	0f 1f 80 00 00 00 00 	nopl   0x0(%rax)

000000000000d140 <__do_global_dtors_aux>:
    d140:	f3 0f 1e fa          	endbr64 
    d144:	80 3d 35 f0 01 00 00 	cmpb   $0x0,0x1f035(%rip)        # 2c180 <completed.8061>
    d14b:	75 2b                	jne    d178 <__do_global_dtors_aux+0x38>
    d14d:	55                   	push   %rbp
    d14e:	48 83 3d 8a 9e 01 00 	cmpq   $0x0,0x19e8a(%rip)        # 26fe0 <__cxa_finalize@GLIBC_2.2.5>
    d155:	00 
    d156:	48 89 e5             	mov    %rsp,%rbp
    d159:	74 0c                	je     d167 <__do_global_dtors_aux+0x27>
    d15b:	48 8b 3d a6 9e 01 00 	mov    0x19ea6(%rip),%rdi        # 27008 <__dso_handle>
    d162:	e8 f9 fe ff ff       	callq  d060 <__cxa_finalize@plt>
    d167:	e8 64 ff ff ff       	callq  d0d0 <deregister_tm_clones>
    d16c:	c6 05 0d f0 01 00 01 	movb   $0x1,0x1f00d(%rip)        # 2c180 <completed.8061>
    d173:	5d                   	pop    %rbp
    d174:	c3                   	retq   
    d175:	0f 1f 00             	nopl   (%rax)
    d178:	c3                   	retq   
    d179:	0f 1f 80 00 00 00 00 	nopl   0x0(%rax)

000000000000d180 <frame_dummy>:
    d180:	f3 0f 1e fa          	endbr64 
    d184:	e9 77 ff ff ff       	jmpq   d100 <register_tm_clones>

000000000000d189 <platform_main_begin>:
    d189:	f3 0f 1e fa          	endbr64 
    d18d:	55                   	push   %rbp
    d18e:	48 89 e5             	mov    %rsp,%rbp
    d191:	90                   	nop
    d192:	5d                   	pop    %rbp
    d193:	c3                   	retq   

000000000000d194 <platform_main_end>:
    d194:	f3 0f 1e fa          	endbr64 
    d198:	55                   	push   %rbp
    d199:	48 89 e5             	mov    %rsp,%rbp
    d19c:	48 83 ec 10          	sub    $0x10,%rsp
    d1a0:	89 7d fc             	mov    %edi,-0x4(%rbp)
    d1a3:	89 75 f8             	mov    %esi,-0x8(%rbp)
    d1a6:	8b 45 fc             	mov    -0x4(%rbp),%eax
    d1a9:	89 c6                	mov    %eax,%esi
    d1ab:	48 8d 3d 6e 3e 01 00 	lea    0x13e6e(%rip),%rdi        # 21020 <_IO_stdin_used+0x20>
    d1b2:	b8 00 00 00 00       	mov    $0x0,%eax
    d1b7:	e8 c4 fe ff ff       	callq  d080 <printf@plt>
    d1bc:	90                   	nop
    d1bd:	c9                   	leaveq 
    d1be:	c3                   	retq   

000000000000d1bf <safe_unary_minus_func_int8_t_s>:
    d1bf:	f3 0f 1e fa          	endbr64 
    d1c3:	55                   	push   %rbp
    d1c4:	48 89 e5             	mov    %rsp,%rbp
    d1c7:	89 f8                	mov    %edi,%eax
    d1c9:	88 45 fc             	mov    %al,-0x4(%rbp)
    d1cc:	0f b6 45 fc          	movzbl -0x4(%rbp),%eax
    d1d0:	f7 d8                	neg    %eax
    d1d2:	5d                   	pop    %rbp
    d1d3:	c3                   	retq   

000000000000d1d4 <safe_add_func_int8_t_s_s>:
    d1d4:	f3 0f 1e fa          	endbr64 
    d1d8:	55                   	push   %rbp
    d1d9:	48 89 e5             	mov    %rsp,%rbp
    d1dc:	89 fa                	mov    %edi,%edx
    d1de:	89 f0                	mov    %esi,%eax
    d1e0:	88 55 fc             	mov    %dl,-0x4(%rbp)
    d1e3:	88 45 f8             	mov    %al,-0x8(%rbp)
    d1e6:	0f b6 55 fc          	movzbl -0x4(%rbp),%edx
    d1ea:	0f b6 45 f8          	movzbl -0x8(%rbp),%eax
    d1ee:	01 d0                	add    %edx,%eax
    d1f0:	5d                   	pop    %rbp
    d1f1:	c3                   	retq   

000000000000d1f2 <safe_sub_func_int8_t_s_s>:
    d1f2:	f3 0f 1e fa          	endbr64 
    d1f6:	55                   	push   %rbp
    d1f7:	48 89 e5             	mov    %rsp,%rbp
    d1fa:	89 fa                	mov    %edi,%edx
    d1fc:	89 f0                	mov    %esi,%eax
    d1fe:	88 55 fc             	mov    %dl,-0x4(%rbp)
    d201:	88 45 f8             	mov    %al,-0x8(%rbp)
    d204:	0f b6 55 fc          	movzbl -0x4(%rbp),%edx
    d208:	0f b6 45 f8          	movzbl -0x8(%rbp),%eax
    d20c:	29 c2                	sub    %eax,%edx
    d20e:	89 d0                	mov    %edx,%eax
    d210:	5d                   	pop    %rbp
    d211:	c3                   	retq   

000000000000d212 <safe_mul_func_int8_t_s_s>:
    d212:	f3 0f 1e fa          	endbr64 
    d216:	55                   	push   %rbp
    d217:	48 89 e5             	mov    %rsp,%rbp
    d21a:	89 fa                	mov    %edi,%edx
    d21c:	89 f0                	mov    %esi,%eax
    d21e:	88 55 fc             	mov    %dl,-0x4(%rbp)
    d221:	88 45 f8             	mov    %al,-0x8(%rbp)
    d224:	0f b6 45 fc          	movzbl -0x4(%rbp),%eax
    d228:	0f b6 55 f8          	movzbl -0x8(%rbp),%edx
    d22c:	0f af c2             	imul   %edx,%eax
    d22f:	5d                   	pop    %rbp
    d230:	c3                   	retq   

000000000000d231 <safe_mod_func_int8_t_s_s>:
    d231:	f3 0f 1e fa          	endbr64 
    d235:	55                   	push   %rbp
    d236:	48 89 e5             	mov    %rsp,%rbp
    d239:	89 fa                	mov    %edi,%edx
    d23b:	89 f0                	mov    %esi,%eax
    d23d:	88 55 fc             	mov    %dl,-0x4(%rbp)
    d240:	88 45 f8             	mov    %al,-0x8(%rbp)
    d243:	80 7d f8 00          	cmpb   $0x0,-0x8(%rbp)
    d247:	74 1b                	je     d264 <safe_mod_func_int8_t_s_s+0x33>
    d249:	80 7d fc 80          	cmpb   $0x80,-0x4(%rbp)
    d24d:	75 06                	jne    d255 <safe_mod_func_int8_t_s_s+0x24>
    d24f:	80 7d f8 ff          	cmpb   $0xff,-0x8(%rbp)
    d253:	74 0f                	je     d264 <safe_mod_func_int8_t_s_s+0x33>
    d255:	0f be 45 fc          	movsbl -0x4(%rbp),%eax
    d259:	0f be 4d f8          	movsbl -0x8(%rbp),%ecx
    d25d:	99                   	cltd   
    d25e:	f7 f9                	idiv   %ecx
    d260:	89 d0                	mov    %edx,%eax
    d262:	eb 04                	jmp    d268 <safe_mod_func_int8_t_s_s+0x37>
    d264:	0f b6 45 fc          	movzbl -0x4(%rbp),%eax
    d268:	5d                   	pop    %rbp
    d269:	c3                   	retq   

000000000000d26a <safe_div_func_int8_t_s_s>:
    d26a:	f3 0f 1e fa          	endbr64 
    d26e:	55                   	push   %rbp
    d26f:	48 89 e5             	mov    %rsp,%rbp
    d272:	89 fa                	mov    %edi,%edx
    d274:	89 f0                	mov    %esi,%eax
    d276:	88 55 fc             	mov    %dl,-0x4(%rbp)
    d279:	88 45 f8             	mov    %al,-0x8(%rbp)
    d27c:	80 7d f8 00          	cmpb   $0x0,-0x8(%rbp)
    d280:	74 19                	je     d29b <safe_div_func_int8_t_s_s+0x31>
    d282:	80 7d fc 80          	cmpb   $0x80,-0x4(%rbp)
    d286:	75 06                	jne    d28e <safe_div_func_int8_t_s_s+0x24>
    d288:	80 7d f8 ff          	cmpb   $0xff,-0x8(%rbp)
    d28c:	74 0d                	je     d29b <safe_div_func_int8_t_s_s+0x31>
    d28e:	0f be 45 fc          	movsbl -0x4(%rbp),%eax
    d292:	0f be 4d f8          	movsbl -0x8(%rbp),%ecx
    d296:	99                   	cltd   
    d297:	f7 f9                	idiv   %ecx
    d299:	eb 04                	jmp    d29f <safe_div_func_int8_t_s_s+0x35>
    d29b:	0f b6 45 fc          	movzbl -0x4(%rbp),%eax
    d29f:	5d                   	pop    %rbp
    d2a0:	c3                   	retq   

000000000000d2a1 <safe_lshift_func_int8_t_s_s>:
    d2a1:	f3 0f 1e fa          	endbr64 
    d2a5:	55                   	push   %rbp
    d2a6:	48 89 e5             	mov    %rsp,%rbp
    d2a9:	89 f8                	mov    %edi,%eax
    d2ab:	89 75 f8             	mov    %esi,-0x8(%rbp)
    d2ae:	88 45 fc             	mov    %al,-0x4(%rbp)
    d2b1:	80 7d fc 00          	cmpb   $0x0,-0x4(%rbp)
    d2b5:	78 31                	js     d2e8 <safe_lshift_func_int8_t_s_s+0x47>
    d2b7:	83 7d f8 00          	cmpl   $0x0,-0x8(%rbp)
    d2bb:	78 2b                	js     d2e8 <safe_lshift_func_int8_t_s_s+0x47>
    d2bd:	83 7d f8 1f          	cmpl   $0x1f,-0x8(%rbp)
    d2c1:	7f 25                	jg     d2e8 <safe_lshift_func_int8_t_s_s+0x47>
    d2c3:	0f be 55 fc          	movsbl -0x4(%rbp),%edx
    d2c7:	8b 45 f8             	mov    -0x8(%rbp),%eax
    d2ca:	be 7f 00 00 00       	mov    $0x7f,%esi
    d2cf:	89 c1                	mov    %eax,%ecx
    d2d1:	d3 fe                	sar    %cl,%esi
    d2d3:	89 f0                	mov    %esi,%eax
    d2d5:	39 c2                	cmp    %eax,%edx
    d2d7:	7f 0f                	jg     d2e8 <safe_lshift_func_int8_t_s_s+0x47>
    d2d9:	0f be 55 fc          	movsbl -0x4(%rbp),%edx
    d2dd:	8b 45 f8             	mov    -0x8(%rbp),%eax
    d2e0:	89 c1                	mov    %eax,%ecx
    d2e2:	d3 e2                	shl    %cl,%edx
    d2e4:	89 d0                	mov    %edx,%eax
    d2e6:	eb 04                	jmp    d2ec <safe_lshift_func_int8_t_s_s+0x4b>
    d2e8:	0f b6 45 fc          	movzbl -0x4(%rbp),%eax
    d2ec:	5d                   	pop    %rbp
    d2ed:	c3                   	retq   

000000000000d2ee <safe_lshift_func_int8_t_s_u>:
    d2ee:	f3 0f 1e fa          	endbr64 
    d2f2:	55                   	push   %rbp
    d2f3:	48 89 e5             	mov    %rsp,%rbp
    d2f6:	89 f8                	mov    %edi,%eax
    d2f8:	89 75 f8             	mov    %esi,-0x8(%rbp)
    d2fb:	88 45 fc             	mov    %al,-0x4(%rbp)
    d2fe:	80 7d fc 00          	cmpb   $0x0,-0x4(%rbp)
    d302:	78 2b                	js     d32f <safe_lshift_func_int8_t_s_u+0x41>
    d304:	83 7d f8 1f          	cmpl   $0x1f,-0x8(%rbp)
    d308:	77 25                	ja     d32f <safe_lshift_func_int8_t_s_u+0x41>
    d30a:	0f be 55 fc          	movsbl -0x4(%rbp),%edx
    d30e:	8b 45 f8             	mov    -0x8(%rbp),%eax
    d311:	be 7f 00 00 00       	mov    $0x7f,%esi
    d316:	89 c1                	mov    %eax,%ecx
    d318:	d3 fe                	sar    %cl,%esi
    d31a:	89 f0                	mov    %esi,%eax
    d31c:	39 c2                	cmp    %eax,%edx
    d31e:	7f 0f                	jg     d32f <safe_lshift_func_int8_t_s_u+0x41>
    d320:	0f be 55 fc          	movsbl -0x4(%rbp),%edx
    d324:	8b 45 f8             	mov    -0x8(%rbp),%eax
    d327:	89 c1                	mov    %eax,%ecx
    d329:	d3 e2                	shl    %cl,%edx
    d32b:	89 d0                	mov    %edx,%eax
    d32d:	eb 04                	jmp    d333 <safe_lshift_func_int8_t_s_u+0x45>
    d32f:	0f b6 45 fc          	movzbl -0x4(%rbp),%eax
    d333:	5d                   	pop    %rbp
    d334:	c3                   	retq   

000000000000d335 <safe_rshift_func_int8_t_s_s>:
    d335:	f3 0f 1e fa          	endbr64 
    d339:	55                   	push   %rbp
    d33a:	48 89 e5             	mov    %rsp,%rbp
    d33d:	89 f8                	mov    %edi,%eax
    d33f:	89 75 f8             	mov    %esi,-0x8(%rbp)
    d342:	88 45 fc             	mov    %al,-0x4(%rbp)
    d345:	80 7d fc 00          	cmpb   $0x0,-0x4(%rbp)
    d349:	78 1b                	js     d366 <safe_rshift_func_int8_t_s_s+0x31>
    d34b:	83 7d f8 00          	cmpl   $0x0,-0x8(%rbp)
    d34f:	78 15                	js     d366 <safe_rshift_func_int8_t_s_s+0x31>
    d351:	83 7d f8 1f          	cmpl   $0x1f,-0x8(%rbp)
    d355:	7f 0f                	jg     d366 <safe_rshift_func_int8_t_s_s+0x31>
    d357:	0f be 55 fc          	movsbl -0x4(%rbp),%edx
    d35b:	8b 45 f8             	mov    -0x8(%rbp),%eax
    d35e:	89 c1                	mov    %eax,%ecx
    d360:	d3 fa                	sar    %cl,%edx
    d362:	89 d0                	mov    %edx,%eax
    d364:	eb 04                	jmp    d36a <safe_rshift_func_int8_t_s_s+0x35>
    d366:	0f b6 45 fc          	movzbl -0x4(%rbp),%eax
    d36a:	5d                   	pop    %rbp
    d36b:	c3                   	retq   

000000000000d36c <safe_rshift_func_int8_t_s_u>:
    d36c:	f3 0f 1e fa          	endbr64 
    d370:	55                   	push   %rbp
    d371:	48 89 e5             	mov    %rsp,%rbp
    d374:	89 f8                	mov    %edi,%eax
    d376:	89 75 f8             	mov    %esi,-0x8(%rbp)
    d379:	88 45 fc             	mov    %al,-0x4(%rbp)
    d37c:	80 7d fc 00          	cmpb   $0x0,-0x4(%rbp)
    d380:	78 15                	js     d397 <safe_rshift_func_int8_t_s_u+0x2b>
    d382:	83 7d f8 1f          	cmpl   $0x1f,-0x8(%rbp)
    d386:	77 0f                	ja     d397 <safe_rshift_func_int8_t_s_u+0x2b>
    d388:	0f be 55 fc          	movsbl -0x4(%rbp),%edx
    d38c:	8b 45 f8             	mov    -0x8(%rbp),%eax
    d38f:	89 c1                	mov    %eax,%ecx
    d391:	d3 fa                	sar    %cl,%edx
    d393:	89 d0                	mov    %edx,%eax
    d395:	eb 04                	jmp    d39b <safe_rshift_func_int8_t_s_u+0x2f>
    d397:	0f b6 45 fc          	movzbl -0x4(%rbp),%eax
    d39b:	5d                   	pop    %rbp
    d39c:	c3                   	retq   

000000000000d39d <safe_unary_minus_func_int16_t_s>:
    d39d:	f3 0f 1e fa          	endbr64 
    d3a1:	55                   	push   %rbp
    d3a2:	48 89 e5             	mov    %rsp,%rbp
    d3a5:	89 f8                	mov    %edi,%eax
    d3a7:	66 89 45 fc          	mov    %ax,-0x4(%rbp)
    d3ab:	0f b7 45 fc          	movzwl -0x4(%rbp),%eax
    d3af:	f7 d8                	neg    %eax
    d3b1:	5d                   	pop    %rbp
    d3b2:	c3                   	retq   

000000000000d3b3 <safe_add_func_int16_t_s_s>:
    d3b3:	f3 0f 1e fa          	endbr64 
    d3b7:	55                   	push   %rbp
    d3b8:	48 89 e5             	mov    %rsp,%rbp
    d3bb:	89 fa                	mov    %edi,%edx
    d3bd:	89 f0                	mov    %esi,%eax
    d3bf:	66 89 55 fc          	mov    %dx,-0x4(%rbp)
    d3c3:	66 89 45 f8          	mov    %ax,-0x8(%rbp)
    d3c7:	0f b7 55 fc          	movzwl -0x4(%rbp),%edx
    d3cb:	0f b7 45 f8          	movzwl -0x8(%rbp),%eax
    d3cf:	01 d0                	add    %edx,%eax
    d3d1:	5d                   	pop    %rbp
    d3d2:	c3                   	retq   

000000000000d3d3 <safe_sub_func_int16_t_s_s>:
    d3d3:	f3 0f 1e fa          	endbr64 
    d3d7:	55                   	push   %rbp
    d3d8:	48 89 e5             	mov    %rsp,%rbp
    d3db:	89 fa                	mov    %edi,%edx
    d3dd:	89 f0                	mov    %esi,%eax
    d3df:	66 89 55 fc          	mov    %dx,-0x4(%rbp)
    d3e3:	66 89 45 f8          	mov    %ax,-0x8(%rbp)
    d3e7:	0f b7 55 fc          	movzwl -0x4(%rbp),%edx
    d3eb:	0f b7 45 f8          	movzwl -0x8(%rbp),%eax
    d3ef:	29 c2                	sub    %eax,%edx
    d3f1:	89 d0                	mov    %edx,%eax
    d3f3:	5d                   	pop    %rbp
    d3f4:	c3                   	retq   

000000000000d3f5 <safe_mul_func_int16_t_s_s>:
    d3f5:	f3 0f 1e fa          	endbr64 
    d3f9:	55                   	push   %rbp
    d3fa:	48 89 e5             	mov    %rsp,%rbp
    d3fd:	89 fa                	mov    %edi,%edx
    d3ff:	89 f0                	mov    %esi,%eax
    d401:	66 89 55 fc          	mov    %dx,-0x4(%rbp)
    d405:	66 89 45 f8          	mov    %ax,-0x8(%rbp)
    d409:	0f b7 55 fc          	movzwl -0x4(%rbp),%edx
    d40d:	0f b7 45 f8          	movzwl -0x8(%rbp),%eax
    d411:	0f af c2             	imul   %edx,%eax
    d414:	5d                   	pop    %rbp
    d415:	c3                   	retq   

000000000000d416 <safe_mod_func_int16_t_s_s>:
    d416:	f3 0f 1e fa          	endbr64 
    d41a:	55                   	push   %rbp
    d41b:	48 89 e5             	mov    %rsp,%rbp
    d41e:	89 fa                	mov    %edi,%edx
    d420:	89 f0                	mov    %esi,%eax
    d422:	66 89 55 fc          	mov    %dx,-0x4(%rbp)
    d426:	66 89 45 f8          	mov    %ax,-0x8(%rbp)
    d42a:	66 83 7d f8 00       	cmpw   $0x0,-0x8(%rbp)
    d42f:	74 1e                	je     d44f <safe_mod_func_int16_t_s_s+0x39>
    d431:	66 81 7d fc 00 80    	cmpw   $0x8000,-0x4(%rbp)
    d437:	75 07                	jne    d440 <safe_mod_func_int16_t_s_s+0x2a>
    d439:	66 83 7d f8 ff       	cmpw   $0xffff,-0x8(%rbp)
    d43e:	74 0f                	je     d44f <safe_mod_func_int16_t_s_s+0x39>
    d440:	0f bf 45 fc          	movswl -0x4(%rbp),%eax
    d444:	0f bf 4d f8          	movswl -0x8(%rbp),%ecx
    d448:	99                   	cltd   
    d449:	f7 f9                	idiv   %ecx
    d44b:	89 d0                	mov    %edx,%eax
    d44d:	eb 04                	jmp    d453 <safe_mod_func_int16_t_s_s+0x3d>
    d44f:	0f b7 45 fc          	movzwl -0x4(%rbp),%eax
    d453:	5d                   	pop    %rbp
    d454:	c3                   	retq   

000000000000d455 <safe_div_func_int16_t_s_s>:
    d455:	f3 0f 1e fa          	endbr64 
    d459:	55                   	push   %rbp
    d45a:	48 89 e5             	mov    %rsp,%rbp
    d45d:	89 fa                	mov    %edi,%edx
    d45f:	89 f0                	mov    %esi,%eax
    d461:	66 89 55 fc          	mov    %dx,-0x4(%rbp)
    d465:	66 89 45 f8          	mov    %ax,-0x8(%rbp)
    d469:	66 83 7d f8 00       	cmpw   $0x0,-0x8(%rbp)
    d46e:	74 1c                	je     d48c <safe_div_func_int16_t_s_s+0x37>
    d470:	66 81 7d fc 00 80    	cmpw   $0x8000,-0x4(%rbp)
    d476:	75 07                	jne    d47f <safe_div_func_int16_t_s_s+0x2a>
    d478:	66 83 7d f8 ff       	cmpw   $0xffff,-0x8(%rbp)
    d47d:	74 0d                	je     d48c <safe_div_func_int16_t_s_s+0x37>
    d47f:	0f bf 45 fc          	movswl -0x4(%rbp),%eax
    d483:	0f bf 4d f8          	movswl -0x8(%rbp),%ecx
    d487:	99                   	cltd   
    d488:	f7 f9                	idiv   %ecx
    d48a:	eb 04                	jmp    d490 <safe_div_func_int16_t_s_s+0x3b>
    d48c:	0f b7 45 fc          	movzwl -0x4(%rbp),%eax
    d490:	5d                   	pop    %rbp
    d491:	c3                   	retq   

000000000000d492 <safe_lshift_func_int16_t_s_s>:
    d492:	f3 0f 1e fa          	endbr64 
    d496:	55                   	push   %rbp
    d497:	48 89 e5             	mov    %rsp,%rbp
    d49a:	89 f8                	mov    %edi,%eax
    d49c:	89 75 f8             	mov    %esi,-0x8(%rbp)
    d49f:	66 89 45 fc          	mov    %ax,-0x4(%rbp)
    d4a3:	66 83 7d fc 00       	cmpw   $0x0,-0x4(%rbp)
    d4a8:	78 31                	js     d4db <safe_lshift_func_int16_t_s_s+0x49>
    d4aa:	83 7d f8 00          	cmpl   $0x0,-0x8(%rbp)
    d4ae:	78 2b                	js     d4db <safe_lshift_func_int16_t_s_s+0x49>
    d4b0:	83 7d f8 1f          	cmpl   $0x1f,-0x8(%rbp)
    d4b4:	7f 25                	jg     d4db <safe_lshift_func_int16_t_s_s+0x49>
    d4b6:	0f bf 55 fc          	movswl -0x4(%rbp),%edx
    d4ba:	8b 45 f8             	mov    -0x8(%rbp),%eax
    d4bd:	be ff 7f 00 00       	mov    $0x7fff,%esi
    d4c2:	89 c1                	mov    %eax,%ecx
    d4c4:	d3 fe                	sar    %cl,%esi
    d4c6:	89 f0                	mov    %esi,%eax
    d4c8:	39 c2                	cmp    %eax,%edx
    d4ca:	7f 0f                	jg     d4db <safe_lshift_func_int16_t_s_s+0x49>
    d4cc:	0f bf 55 fc          	movswl -0x4(%rbp),%edx
    d4d0:	8b 45 f8             	mov    -0x8(%rbp),%eax
    d4d3:	89 c1                	mov    %eax,%ecx
    d4d5:	d3 e2                	shl    %cl,%edx
    d4d7:	89 d0                	mov    %edx,%eax
    d4d9:	eb 04                	jmp    d4df <safe_lshift_func_int16_t_s_s+0x4d>
    d4db:	0f b7 45 fc          	movzwl -0x4(%rbp),%eax
    d4df:	5d                   	pop    %rbp
    d4e0:	c3                   	retq   

000000000000d4e1 <safe_lshift_func_int16_t_s_u>:
    d4e1:	f3 0f 1e fa          	endbr64 
    d4e5:	55                   	push   %rbp
    d4e6:	48 89 e5             	mov    %rsp,%rbp
    d4e9:	89 f8                	mov    %edi,%eax
    d4eb:	89 75 f8             	mov    %esi,-0x8(%rbp)
    d4ee:	66 89 45 fc          	mov    %ax,-0x4(%rbp)
    d4f2:	66 83 7d fc 00       	cmpw   $0x0,-0x4(%rbp)
    d4f7:	78 2b                	js     d524 <safe_lshift_func_int16_t_s_u+0x43>
    d4f9:	83 7d f8 1f          	cmpl   $0x1f,-0x8(%rbp)
    d4fd:	77 25                	ja     d524 <safe_lshift_func_int16_t_s_u+0x43>
    d4ff:	0f bf 55 fc          	movswl -0x4(%rbp),%edx
    d503:	8b 45 f8             	mov    -0x8(%rbp),%eax
    d506:	be ff 7f 00 00       	mov    $0x7fff,%esi
    d50b:	89 c1                	mov    %eax,%ecx
    d50d:	d3 fe                	sar    %cl,%esi
    d50f:	89 f0                	mov    %esi,%eax
    d511:	39 c2                	cmp    %eax,%edx
    d513:	7f 0f                	jg     d524 <safe_lshift_func_int16_t_s_u+0x43>
    d515:	0f bf 55 fc          	movswl -0x4(%rbp),%edx
    d519:	8b 45 f8             	mov    -0x8(%rbp),%eax
    d51c:	89 c1                	mov    %eax,%ecx
    d51e:	d3 e2                	shl    %cl,%edx
    d520:	89 d0                	mov    %edx,%eax
    d522:	eb 04                	jmp    d528 <safe_lshift_func_int16_t_s_u+0x47>
    d524:	0f b7 45 fc          	movzwl -0x4(%rbp),%eax
    d528:	5d                   	pop    %rbp
    d529:	c3                   	retq   

000000000000d52a <safe_rshift_func_int16_t_s_s>:
    d52a:	f3 0f 1e fa          	endbr64 
    d52e:	55                   	push   %rbp
    d52f:	48 89 e5             	mov    %rsp,%rbp
    d532:	89 f8                	mov    %edi,%eax
    d534:	89 75 f8             	mov    %esi,-0x8(%rbp)
    d537:	66 89 45 fc          	mov    %ax,-0x4(%rbp)
    d53b:	66 83 7d fc 00       	cmpw   $0x0,-0x4(%rbp)
    d540:	78 1b                	js     d55d <safe_rshift_func_int16_t_s_s+0x33>
    d542:	83 7d f8 00          	cmpl   $0x0,-0x8(%rbp)
    d546:	78 15                	js     d55d <safe_rshift_func_int16_t_s_s+0x33>
    d548:	83 7d f8 1f          	cmpl   $0x1f,-0x8(%rbp)
    d54c:	7f 0f                	jg     d55d <safe_rshift_func_int16_t_s_s+0x33>
    d54e:	0f bf 55 fc          	movswl -0x4(%rbp),%edx
    d552:	8b 45 f8             	mov    -0x8(%rbp),%eax
    d555:	89 c1                	mov    %eax,%ecx
    d557:	d3 fa                	sar    %cl,%edx
    d559:	89 d0                	mov    %edx,%eax
    d55b:	eb 04                	jmp    d561 <safe_rshift_func_int16_t_s_s+0x37>
    d55d:	0f b7 45 fc          	movzwl -0x4(%rbp),%eax
    d561:	5d                   	pop    %rbp
    d562:	c3                   	retq   

000000000000d563 <safe_rshift_func_int16_t_s_u>:
    d563:	f3 0f 1e fa          	endbr64 
    d567:	55                   	push   %rbp
    d568:	48 89 e5             	mov    %rsp,%rbp
    d56b:	89 f8                	mov    %edi,%eax
    d56d:	89 75 f8             	mov    %esi,-0x8(%rbp)
    d570:	66 89 45 fc          	mov    %ax,-0x4(%rbp)
    d574:	66 83 7d fc 00       	cmpw   $0x0,-0x4(%rbp)
    d579:	78 15                	js     d590 <safe_rshift_func_int16_t_s_u+0x2d>
    d57b:	83 7d f8 1f          	cmpl   $0x1f,-0x8(%rbp)
    d57f:	77 0f                	ja     d590 <safe_rshift_func_int16_t_s_u+0x2d>
    d581:	0f bf 55 fc          	movswl -0x4(%rbp),%edx
    d585:	8b 45 f8             	mov    -0x8(%rbp),%eax
    d588:	89 c1                	mov    %eax,%ecx
    d58a:	d3 fa                	sar    %cl,%edx
    d58c:	89 d0                	mov    %edx,%eax
    d58e:	eb 04                	jmp    d594 <safe_rshift_func_int16_t_s_u+0x31>
    d590:	0f b7 45 fc          	movzwl -0x4(%rbp),%eax
    d594:	5d                   	pop    %rbp
    d595:	c3                   	retq   

000000000000d596 <safe_unary_minus_func_int32_t_s>:
    d596:	f3 0f 1e fa          	endbr64 
    d59a:	55                   	push   %rbp
    d59b:	48 89 e5             	mov    %rsp,%rbp
    d59e:	89 7d fc             	mov    %edi,-0x4(%rbp)
    d5a1:	81 7d fc 00 00 00 80 	cmpl   $0x80000000,-0x4(%rbp)
    d5a8:	74 07                	je     d5b1 <safe_unary_minus_func_int32_t_s+0x1b>
    d5aa:	8b 45 fc             	mov    -0x4(%rbp),%eax
    d5ad:	f7 d8                	neg    %eax
    d5af:	eb 03                	jmp    d5b4 <safe_unary_minus_func_int32_t_s+0x1e>
    d5b1:	8b 45 fc             	mov    -0x4(%rbp),%eax
    d5b4:	5d                   	pop    %rbp
    d5b5:	c3                   	retq   

000000000000d5b6 <safe_add_func_int32_t_s_s>:
    d5b6:	f3 0f 1e fa          	endbr64 
    d5ba:	55                   	push   %rbp
    d5bb:	48 89 e5             	mov    %rsp,%rbp
    d5be:	89 7d fc             	mov    %edi,-0x4(%rbp)
    d5c1:	89 75 f8             	mov    %esi,-0x8(%rbp)
    d5c4:	83 7d fc 00          	cmpl   $0x0,-0x4(%rbp)
    d5c8:	7e 13                	jle    d5dd <safe_add_func_int32_t_s_s+0x27>
    d5ca:	83 7d f8 00          	cmpl   $0x0,-0x8(%rbp)
    d5ce:	7e 0d                	jle    d5dd <safe_add_func_int32_t_s_s+0x27>
    d5d0:	b8 ff ff ff 7f       	mov    $0x7fffffff,%eax
    d5d5:	2b 45 f8             	sub    -0x8(%rbp),%eax
    d5d8:	39 45 fc             	cmp    %eax,-0x4(%rbp)
    d5db:	7f 23                	jg     d600 <safe_add_func_int32_t_s_s+0x4a>
    d5dd:	83 7d fc 00          	cmpl   $0x0,-0x4(%rbp)
    d5e1:	79 13                	jns    d5f6 <safe_add_func_int32_t_s_s+0x40>
    d5e3:	83 7d f8 00          	cmpl   $0x0,-0x8(%rbp)
    d5e7:	79 0d                	jns    d5f6 <safe_add_func_int32_t_s_s+0x40>
    d5e9:	b8 00 00 00 80       	mov    $0x80000000,%eax
    d5ee:	2b 45 f8             	sub    -0x8(%rbp),%eax
    d5f1:	39 45 fc             	cmp    %eax,-0x4(%rbp)
    d5f4:	7c 0a                	jl     d600 <safe_add_func_int32_t_s_s+0x4a>
    d5f6:	8b 55 fc             	mov    -0x4(%rbp),%edx
    d5f9:	8b 45 f8             	mov    -0x8(%rbp),%eax
    d5fc:	01 d0                	add    %edx,%eax
    d5fe:	eb 03                	jmp    d603 <safe_add_func_int32_t_s_s+0x4d>
    d600:	8b 45 fc             	mov    -0x4(%rbp),%eax
    d603:	5d                   	pop    %rbp
    d604:	c3                   	retq   

000000000000d605 <safe_sub_func_int32_t_s_s>:
    d605:	f3 0f 1e fa          	endbr64 
    d609:	55                   	push   %rbp
    d60a:	48 89 e5             	mov    %rsp,%rbp
    d60d:	89 7d fc             	mov    %edi,-0x4(%rbp)
    d610:	89 75 f8             	mov    %esi,-0x8(%rbp)
    d613:	8b 45 fc             	mov    -0x4(%rbp),%eax
    d616:	33 45 f8             	xor    -0x8(%rbp),%eax
    d619:	89 c2                	mov    %eax,%edx
    d61b:	8b 45 fc             	mov    -0x4(%rbp),%eax
    d61e:	33 45 f8             	xor    -0x8(%rbp),%eax
    d621:	25 00 00 00 80       	and    $0x80000000,%eax
    d626:	33 45 fc             	xor    -0x4(%rbp),%eax
    d629:	2b 45 f8             	sub    -0x8(%rbp),%eax
    d62c:	33 45 f8             	xor    -0x8(%rbp),%eax
    d62f:	21 d0                	and    %edx,%eax
    d631:	85 c0                	test   %eax,%eax
    d633:	78 08                	js     d63d <safe_sub_func_int32_t_s_s+0x38>
    d635:	8b 45 fc             	mov    -0x4(%rbp),%eax
    d638:	2b 45 f8             	sub    -0x8(%rbp),%eax
    d63b:	eb 03                	jmp    d640 <safe_sub_func_int32_t_s_s+0x3b>
    d63d:	8b 45 fc             	mov    -0x4(%rbp),%eax
    d640:	5d                   	pop    %rbp
    d641:	c3                   	retq   

000000000000d642 <safe_mul_func_int32_t_s_s>:
    d642:	f3 0f 1e fa          	endbr64 
    d646:	55                   	push   %rbp
    d647:	48 89 e5             	mov    %rsp,%rbp
    d64a:	89 7d fc             	mov    %edi,-0x4(%rbp)
    d64d:	89 75 f8             	mov    %esi,-0x8(%rbp)
    d650:	83 7d fc 00          	cmpl   $0x0,-0x4(%rbp)
    d654:	7e 14                	jle    d66a <safe_mul_func_int32_t_s_s+0x28>
    d656:	83 7d f8 00          	cmpl   $0x0,-0x8(%rbp)
    d65a:	7e 0e                	jle    d66a <safe_mul_func_int32_t_s_s+0x28>
    d65c:	b8 ff ff ff 7f       	mov    $0x7fffffff,%eax
    d661:	99                   	cltd   
    d662:	f7 7d f8             	idivl  -0x8(%rbp)
    d665:	39 45 fc             	cmp    %eax,-0x4(%rbp)
    d668:	7f 5d                	jg     d6c7 <safe_mul_func_int32_t_s_s+0x85>
    d66a:	83 7d fc 00          	cmpl   $0x0,-0x4(%rbp)
    d66e:	7e 14                	jle    d684 <safe_mul_func_int32_t_s_s+0x42>
    d670:	83 7d f8 00          	cmpl   $0x0,-0x8(%rbp)
    d674:	7f 0e                	jg     d684 <safe_mul_func_int32_t_s_s+0x42>
    d676:	b8 00 00 00 80       	mov    $0x80000000,%eax
    d67b:	99                   	cltd   
    d67c:	f7 7d fc             	idivl  -0x4(%rbp)
    d67f:	39 45 f8             	cmp    %eax,-0x8(%rbp)
    d682:	7c 43                	jl     d6c7 <safe_mul_func_int32_t_s_s+0x85>
    d684:	83 7d fc 00          	cmpl   $0x0,-0x4(%rbp)
    d688:	7f 14                	jg     d69e <safe_mul_func_int32_t_s_s+0x5c>
    d68a:	83 7d f8 00          	cmpl   $0x0,-0x8(%rbp)
    d68e:	7e 0e                	jle    d69e <safe_mul_func_int32_t_s_s+0x5c>
    d690:	b8 00 00 00 80       	mov    $0x80000000,%eax
    d695:	99                   	cltd   
    d696:	f7 7d f8             	idivl  -0x8(%rbp)
    d699:	39 45 fc             	cmp    %eax,-0x4(%rbp)
    d69c:	7c 29                	jl     d6c7 <safe_mul_func_int32_t_s_s+0x85>
    d69e:	83 7d fc 00          	cmpl   $0x0,-0x4(%rbp)
    d6a2:	7f 1a                	jg     d6be <safe_mul_func_int32_t_s_s+0x7c>
    d6a4:	83 7d f8 00          	cmpl   $0x0,-0x8(%rbp)
    d6a8:	7f 14                	jg     d6be <safe_mul_func_int32_t_s_s+0x7c>
    d6aa:	83 7d fc 00          	cmpl   $0x0,-0x4(%rbp)
    d6ae:	74 0e                	je     d6be <safe_mul_func_int32_t_s_s+0x7c>
    d6b0:	b8 ff ff ff 7f       	mov    $0x7fffffff,%eax
    d6b5:	99                   	cltd   
    d6b6:	f7 7d fc             	idivl  -0x4(%rbp)
    d6b9:	39 45 f8             	cmp    %eax,-0x8(%rbp)
    d6bc:	7c 09                	jl     d6c7 <safe_mul_func_int32_t_s_s+0x85>
    d6be:	8b 45 fc             	mov    -0x4(%rbp),%eax
    d6c1:	0f af 45 f8          	imul   -0x8(%rbp),%eax
    d6c5:	eb 03                	jmp    d6ca <safe_mul_func_int32_t_s_s+0x88>
    d6c7:	8b 45 fc             	mov    -0x4(%rbp),%eax
    d6ca:	5d                   	pop    %rbp
    d6cb:	c3                   	retq   

000000000000d6cc <safe_mod_func_int32_t_s_s>:
    d6cc:	f3 0f 1e fa          	endbr64 
    d6d0:	55                   	push   %rbp
    d6d1:	48 89 e5             	mov    %rsp,%rbp
    d6d4:	89 7d fc             	mov    %edi,-0x4(%rbp)
    d6d7:	89 75 f8             	mov    %esi,-0x8(%rbp)
    d6da:	83 7d f8 00          	cmpl   $0x0,-0x8(%rbp)
    d6de:	74 1a                	je     d6fa <safe_mod_func_int32_t_s_s+0x2e>
    d6e0:	81 7d fc 00 00 00 80 	cmpl   $0x80000000,-0x4(%rbp)
    d6e7:	75 06                	jne    d6ef <safe_mod_func_int32_t_s_s+0x23>
    d6e9:	83 7d f8 ff          	cmpl   $0xffffffff,-0x8(%rbp)
    d6ed:	74 0b                	je     d6fa <safe_mod_func_int32_t_s_s+0x2e>
    d6ef:	8b 45 fc             	mov    -0x4(%rbp),%eax
    d6f2:	99                   	cltd   
    d6f3:	f7 7d f8             	idivl  -0x8(%rbp)
    d6f6:	89 d0                	mov    %edx,%eax
    d6f8:	eb 03                	jmp    d6fd <safe_mod_func_int32_t_s_s+0x31>
    d6fa:	8b 45 fc             	mov    -0x4(%rbp),%eax
    d6fd:	5d                   	pop    %rbp
    d6fe:	c3                   	retq   

000000000000d6ff <safe_div_func_int32_t_s_s>:
    d6ff:	f3 0f 1e fa          	endbr64 
    d703:	55                   	push   %rbp
    d704:	48 89 e5             	mov    %rsp,%rbp
    d707:	89 7d fc             	mov    %edi,-0x4(%rbp)
    d70a:	89 75 f8             	mov    %esi,-0x8(%rbp)
    d70d:	83 7d f8 00          	cmpl   $0x0,-0x8(%rbp)
    d711:	74 18                	je     d72b <safe_div_func_int32_t_s_s+0x2c>
    d713:	81 7d fc 00 00 00 80 	cmpl   $0x80000000,-0x4(%rbp)
    d71a:	75 06                	jne    d722 <safe_div_func_int32_t_s_s+0x23>
    d71c:	83 7d f8 ff          	cmpl   $0xffffffff,-0x8(%rbp)
    d720:	74 09                	je     d72b <safe_div_func_int32_t_s_s+0x2c>
    d722:	8b 45 fc             	mov    -0x4(%rbp),%eax
    d725:	99                   	cltd   
    d726:	f7 7d f8             	idivl  -0x8(%rbp)
    d729:	eb 03                	jmp    d72e <safe_div_func_int32_t_s_s+0x2f>
    d72b:	8b 45 fc             	mov    -0x4(%rbp),%eax
    d72e:	5d                   	pop    %rbp
    d72f:	c3                   	retq   

000000000000d730 <safe_lshift_func_int32_t_s_s>:
    d730:	f3 0f 1e fa          	endbr64 
    d734:	55                   	push   %rbp
    d735:	48 89 e5             	mov    %rsp,%rbp
    d738:	89 7d fc             	mov    %edi,-0x4(%rbp)
    d73b:	89 75 f8             	mov    %esi,-0x8(%rbp)
    d73e:	83 7d fc 00          	cmpl   $0x0,-0x4(%rbp)
    d742:	78 2d                	js     d771 <safe_lshift_func_int32_t_s_s+0x41>
    d744:	83 7d f8 00          	cmpl   $0x0,-0x8(%rbp)
    d748:	78 27                	js     d771 <safe_lshift_func_int32_t_s_s+0x41>
    d74a:	83 7d f8 1f          	cmpl   $0x1f,-0x8(%rbp)
    d74e:	7f 21                	jg     d771 <safe_lshift_func_int32_t_s_s+0x41>
    d750:	8b 45 f8             	mov    -0x8(%rbp),%eax
    d753:	ba ff ff ff 7f       	mov    $0x7fffffff,%edx
    d758:	89 c1                	mov    %eax,%ecx
    d75a:	d3 fa                	sar    %cl,%edx
    d75c:	89 d0                	mov    %edx,%eax
    d75e:	39 45 fc             	cmp    %eax,-0x4(%rbp)
    d761:	7f 0e                	jg     d771 <safe_lshift_func_int32_t_s_s+0x41>
    d763:	8b 45 f8             	mov    -0x8(%rbp),%eax
    d766:	8b 55 fc             	mov    -0x4(%rbp),%edx
    d769:	89 c1                	mov    %eax,%ecx
    d76b:	d3 e2                	shl    %cl,%edx
    d76d:	89 d0                	mov    %edx,%eax
    d76f:	eb 03                	jmp    d774 <safe_lshift_func_int32_t_s_s+0x44>
    d771:	8b 45 fc             	mov    -0x4(%rbp),%eax
    d774:	5d                   	pop    %rbp
    d775:	c3                   	retq   

000000000000d776 <safe_lshift_func_int32_t_s_u>:
    d776:	f3 0f 1e fa          	endbr64 
    d77a:	55                   	push   %rbp
    d77b:	48 89 e5             	mov    %rsp,%rbp
    d77e:	89 7d fc             	mov    %edi,-0x4(%rbp)
    d781:	89 75 f8             	mov    %esi,-0x8(%rbp)
    d784:	83 7d fc 00          	cmpl   $0x0,-0x4(%rbp)
    d788:	78 27                	js     d7b1 <safe_lshift_func_int32_t_s_u+0x3b>
    d78a:	83 7d f8 1f          	cmpl   $0x1f,-0x8(%rbp)
    d78e:	77 21                	ja     d7b1 <safe_lshift_func_int32_t_s_u+0x3b>
    d790:	8b 45 f8             	mov    -0x8(%rbp),%eax
    d793:	ba ff ff ff 7f       	mov    $0x7fffffff,%edx
    d798:	89 c1                	mov    %eax,%ecx
    d79a:	d3 fa                	sar    %cl,%edx
    d79c:	89 d0                	mov    %edx,%eax
    d79e:	39 45 fc             	cmp    %eax,-0x4(%rbp)
    d7a1:	7f 0e                	jg     d7b1 <safe_lshift_func_int32_t_s_u+0x3b>
    d7a3:	8b 45 f8             	mov    -0x8(%rbp),%eax
    d7a6:	8b 55 fc             	mov    -0x4(%rbp),%edx
    d7a9:	89 c1                	mov    %eax,%ecx
    d7ab:	d3 e2                	shl    %cl,%edx
    d7ad:	89 d0                	mov    %edx,%eax
    d7af:	eb 03                	jmp    d7b4 <safe_lshift_func_int32_t_s_u+0x3e>
    d7b1:	8b 45 fc             	mov    -0x4(%rbp),%eax
    d7b4:	5d                   	pop    %rbp
    d7b5:	c3                   	retq   

000000000000d7b6 <safe_rshift_func_int32_t_s_s>:
    d7b6:	f3 0f 1e fa          	endbr64 
    d7ba:	55                   	push   %rbp
    d7bb:	48 89 e5             	mov    %rsp,%rbp
    d7be:	89 7d fc             	mov    %edi,-0x4(%rbp)
    d7c1:	89 75 f8             	mov    %esi,-0x8(%rbp)
    d7c4:	83 7d fc 00          	cmpl   $0x0,-0x4(%rbp)
    d7c8:	78 1a                	js     d7e4 <safe_rshift_func_int32_t_s_s+0x2e>
    d7ca:	83 7d f8 00          	cmpl   $0x0,-0x8(%rbp)
    d7ce:	78 14                	js     d7e4 <safe_rshift_func_int32_t_s_s+0x2e>
    d7d0:	83 7d f8 1f          	cmpl   $0x1f,-0x8(%rbp)
    d7d4:	7f 0e                	jg     d7e4 <safe_rshift_func_int32_t_s_s+0x2e>
    d7d6:	8b 45 f8             	mov    -0x8(%rbp),%eax
    d7d9:	8b 55 fc             	mov    -0x4(%rbp),%edx
    d7dc:	89 c1                	mov    %eax,%ecx
    d7de:	d3 fa                	sar    %cl,%edx
    d7e0:	89 d0                	mov    %edx,%eax
    d7e2:	eb 03                	jmp    d7e7 <safe_rshift_func_int32_t_s_s+0x31>
    d7e4:	8b 45 fc             	mov    -0x4(%rbp),%eax
    d7e7:	5d                   	pop    %rbp
    d7e8:	c3                   	retq   

000000000000d7e9 <safe_rshift_func_int32_t_s_u>:
    d7e9:	f3 0f 1e fa          	endbr64 
    d7ed:	55                   	push   %rbp
    d7ee:	48 89 e5             	mov    %rsp,%rbp
    d7f1:	89 7d fc             	mov    %edi,-0x4(%rbp)
    d7f4:	89 75 f8             	mov    %esi,-0x8(%rbp)
    d7f7:	83 7d fc 00          	cmpl   $0x0,-0x4(%rbp)
    d7fb:	78 14                	js     d811 <safe_rshift_func_int32_t_s_u+0x28>
    d7fd:	83 7d f8 1f          	cmpl   $0x1f,-0x8(%rbp)
    d801:	77 0e                	ja     d811 <safe_rshift_func_int32_t_s_u+0x28>
    d803:	8b 45 f8             	mov    -0x8(%rbp),%eax
    d806:	8b 55 fc             	mov    -0x4(%rbp),%edx
    d809:	89 c1                	mov    %eax,%ecx
    d80b:	d3 fa                	sar    %cl,%edx
    d80d:	89 d0                	mov    %edx,%eax
    d80f:	eb 03                	jmp    d814 <safe_rshift_func_int32_t_s_u+0x2b>
    d811:	8b 45 fc             	mov    -0x4(%rbp),%eax
    d814:	5d                   	pop    %rbp
    d815:	c3                   	retq   

000000000000d816 <safe_unary_minus_func_int64_t_s>:
    d816:	f3 0f 1e fa          	endbr64 
    d81a:	55                   	push   %rbp
    d81b:	48 89 e5             	mov    %rsp,%rbp
    d81e:	48 89 7d f8          	mov    %rdi,-0x8(%rbp)
    d822:	48 b8 00 00 00 00 00 	movabs $0x8000000000000000,%rax
    d829:	00 00 80 
    d82c:	48 39 45 f8          	cmp    %rax,-0x8(%rbp)
    d830:	74 09                	je     d83b <safe_unary_minus_func_int64_t_s+0x25>
    d832:	48 8b 45 f8          	mov    -0x8(%rbp),%rax
    d836:	48 f7 d8             	neg    %rax
    d839:	eb 04                	jmp    d83f <safe_unary_minus_func_int64_t_s+0x29>
    d83b:	48 8b 45 f8          	mov    -0x8(%rbp),%rax
    d83f:	5d                   	pop    %rbp
    d840:	c3                   	retq   

000000000000d841 <safe_add_func_int64_t_s_s>:
    d841:	f3 0f 1e fa          	endbr64 
    d845:	55                   	push   %rbp
    d846:	48 89 e5             	mov    %rsp,%rbp
    d849:	48 89 7d f8          	mov    %rdi,-0x8(%rbp)
    d84d:	48 89 75 f0          	mov    %rsi,-0x10(%rbp)
    d851:	48 83 7d f8 00       	cmpq   $0x0,-0x8(%rbp)
    d856:	7e 1b                	jle    d873 <safe_add_func_int64_t_s_s+0x32>
    d858:	48 83 7d f0 00       	cmpq   $0x0,-0x10(%rbp)
    d85d:	7e 14                	jle    d873 <safe_add_func_int64_t_s_s+0x32>
    d85f:	48 b8 ff ff ff ff ff 	movabs $0x7fffffffffffffff,%rax
    d866:	ff ff 7f 
    d869:	48 2b 45 f0          	sub    -0x10(%rbp),%rax
    d86d:	48 39 45 f8          	cmp    %rax,-0x8(%rbp)
    d871:	7f 2f                	jg     d8a2 <safe_add_func_int64_t_s_s+0x61>
    d873:	48 83 7d f8 00       	cmpq   $0x0,-0x8(%rbp)
    d878:	79 1b                	jns    d895 <safe_add_func_int64_t_s_s+0x54>
    d87a:	48 83 7d f0 00       	cmpq   $0x0,-0x10(%rbp)
    d87f:	79 14                	jns    d895 <safe_add_func_int64_t_s_s+0x54>
    d881:	48 b8 00 00 00 00 00 	movabs $0x8000000000000000,%rax
    d888:	00 00 80 
    d88b:	48 2b 45 f0          	sub    -0x10(%rbp),%rax
    d88f:	48 39 45 f8          	cmp    %rax,-0x8(%rbp)
    d893:	7c 0d                	jl     d8a2 <safe_add_func_int64_t_s_s+0x61>
    d895:	48 8b 55 f8          	mov    -0x8(%rbp),%rdx
    d899:	48 8b 45 f0          	mov    -0x10(%rbp),%rax
    d89d:	48 01 d0             	add    %rdx,%rax
    d8a0:	eb 04                	jmp    d8a6 <safe_add_func_int64_t_s_s+0x65>
    d8a2:	48 8b 45 f8          	mov    -0x8(%rbp),%rax
    d8a6:	5d                   	pop    %rbp
    d8a7:	c3                   	retq   

000000000000d8a8 <safe_sub_func_int64_t_s_s>:
    d8a8:	f3 0f 1e fa          	endbr64 
    d8ac:	55                   	push   %rbp
    d8ad:	48 89 e5             	mov    %rsp,%rbp
    d8b0:	48 89 7d f8          	mov    %rdi,-0x8(%rbp)
    d8b4:	48 89 75 f0          	mov    %rsi,-0x10(%rbp)
    d8b8:	48 8b 45 f8          	mov    -0x8(%rbp),%rax
    d8bc:	48 33 45 f0          	xor    -0x10(%rbp),%rax
    d8c0:	48 89 c2             	mov    %rax,%rdx
    d8c3:	48 8b 45 f8          	mov    -0x8(%rbp),%rax
    d8c7:	48 33 45 f0          	xor    -0x10(%rbp),%rax
    d8cb:	48 b9 00 00 00 00 00 	movabs $0x8000000000000000,%rcx
    d8d2:	00 00 80 
    d8d5:	48 21 c8             	and    %rcx,%rax
    d8d8:	48 33 45 f8          	xor    -0x8(%rbp),%rax
    d8dc:	48 2b 45 f0          	sub    -0x10(%rbp),%rax
    d8e0:	48 33 45 f0          	xor    -0x10(%rbp),%rax
    d8e4:	48 21 d0             	and    %rdx,%rax
    d8e7:	48 85 c0             	test   %rax,%rax
    d8ea:	78 0a                	js     d8f6 <safe_sub_func_int64_t_s_s+0x4e>
    d8ec:	48 8b 45 f8          	mov    -0x8(%rbp),%rax
    d8f0:	48 2b 45 f0          	sub    -0x10(%rbp),%rax
    d8f4:	eb 04                	jmp    d8fa <safe_sub_func_int64_t_s_s+0x52>
    d8f6:	48 8b 45 f8          	mov    -0x8(%rbp),%rax
    d8fa:	5d                   	pop    %rbp
    d8fb:	c3                   	retq   

000000000000d8fc <safe_mul_func_int64_t_s_s>:
    d8fc:	f3 0f 1e fa          	endbr64 
    d900:	55                   	push   %rbp
    d901:	48 89 e5             	mov    %rsp,%rbp
    d904:	48 89 7d f8          	mov    %rdi,-0x8(%rbp)
    d908:	48 89 75 f0          	mov    %rsi,-0x10(%rbp)
    d90c:	48 83 7d f8 00       	cmpq   $0x0,-0x8(%rbp)
    d911:	7e 1d                	jle    d930 <safe_mul_func_int64_t_s_s+0x34>
    d913:	48 83 7d f0 00       	cmpq   $0x0,-0x10(%rbp)
    d918:	7e 16                	jle    d930 <safe_mul_func_int64_t_s_s+0x34>
    d91a:	48 b8 ff ff ff ff ff 	movabs $0x7fffffffffffffff,%rax
    d921:	ff ff 7f 
    d924:	48 99                	cqto   
    d926:	48 f7 7d f0          	idivq  -0x10(%rbp)
    d92a:	48 39 45 f8          	cmp    %rax,-0x8(%rbp)
    d92e:	7f 7e                	jg     d9ae <safe_mul_func_int64_t_s_s+0xb2>
    d930:	48 83 7d f8 00       	cmpq   $0x0,-0x8(%rbp)
    d935:	7e 1d                	jle    d954 <safe_mul_func_int64_t_s_s+0x58>
    d937:	48 83 7d f0 00       	cmpq   $0x0,-0x10(%rbp)
    d93c:	7f 16                	jg     d954 <safe_mul_func_int64_t_s_s+0x58>
    d93e:	48 b8 00 00 00 00 00 	movabs $0x8000000000000000,%rax
    d945:	00 00 80 
    d948:	48 99                	cqto   
    d94a:	48 f7 7d f8          	idivq  -0x8(%rbp)
    d94e:	48 39 45 f0          	cmp    %rax,-0x10(%rbp)
    d952:	7c 5a                	jl     d9ae <safe_mul_func_int64_t_s_s+0xb2>
    d954:	48 83 7d f8 00       	cmpq   $0x0,-0x8(%rbp)
    d959:	7f 1d                	jg     d978 <safe_mul_func_int64_t_s_s+0x7c>
    d95b:	48 83 7d f0 00       	cmpq   $0x0,-0x10(%rbp)
    d960:	7e 16                	jle    d978 <safe_mul_func_int64_t_s_s+0x7c>
    d962:	48 b8 00 00 00 00 00 	movabs $0x8000000000000000,%rax
    d969:	00 00 80 
    d96c:	48 99                	cqto   
    d96e:	48 f7 7d f0          	idivq  -0x10(%rbp)
    d972:	48 39 45 f8          	cmp    %rax,-0x8(%rbp)
    d976:	7c 36                	jl     d9ae <safe_mul_func_int64_t_s_s+0xb2>
    d978:	48 83 7d f8 00       	cmpq   $0x0,-0x8(%rbp)
    d97d:	7f 24                	jg     d9a3 <safe_mul_func_int64_t_s_s+0xa7>
    d97f:	48 83 7d f0 00       	cmpq   $0x0,-0x10(%rbp)
    d984:	7f 1d                	jg     d9a3 <safe_mul_func_int64_t_s_s+0xa7>
    d986:	48 83 7d f8 00       	cmpq   $0x0,-0x8(%rbp)
    d98b:	74 16                	je     d9a3 <safe_mul_func_int64_t_s_s+0xa7>
    d98d:	48 b8 ff ff ff ff ff 	movabs $0x7fffffffffffffff,%rax
    d994:	ff ff 7f 
    d997:	48 99                	cqto   
    d999:	48 f7 7d f8          	idivq  -0x8(%rbp)
    d99d:	48 39 45 f0          	cmp    %rax,-0x10(%rbp)
    d9a1:	7c 0b                	jl     d9ae <safe_mul_func_int64_t_s_s+0xb2>
    d9a3:	48 8b 45 f8          	mov    -0x8(%rbp),%rax
    d9a7:	48 0f af 45 f0       	imul   -0x10(%rbp),%rax
    d9ac:	eb 04                	jmp    d9b2 <safe_mul_func_int64_t_s_s+0xb6>
    d9ae:	48 8b 45 f8          	mov    -0x8(%rbp),%rax
    d9b2:	5d                   	pop    %rbp
    d9b3:	c3                   	retq   

000000000000d9b4 <safe_mod_func_int64_t_s_s>:
    d9b4:	f3 0f 1e fa          	endbr64 
    d9b8:	55                   	push   %rbp
    d9b9:	48 89 e5             	mov    %rsp,%rbp
    d9bc:	48 89 7d f8          	mov    %rdi,-0x8(%rbp)
    d9c0:	48 89 75 f0          	mov    %rsi,-0x10(%rbp)
    d9c4:	48 83 7d f0 00       	cmpq   $0x0,-0x10(%rbp)
    d9c9:	74 26                	je     d9f1 <safe_mod_func_int64_t_s_s+0x3d>
    d9cb:	48 b8 00 00 00 00 00 	movabs $0x8000000000000000,%rax
    d9d2:	00 00 80 
    d9d5:	48 39 45 f8          	cmp    %rax,-0x8(%rbp)
    d9d9:	75 07                	jne    d9e2 <safe_mod_func_int64_t_s_s+0x2e>
    d9db:	48 83 7d f0 ff       	cmpq   $0xffffffffffffffff,-0x10(%rbp)
    d9e0:	74 0f                	je     d9f1 <safe_mod_func_int64_t_s_s+0x3d>
    d9e2:	48 8b 45 f8          	mov    -0x8(%rbp),%rax
    d9e6:	48 99                	cqto   
    d9e8:	48 f7 7d f0          	idivq  -0x10(%rbp)
    d9ec:	48 89 d0             	mov    %rdx,%rax
    d9ef:	eb 04                	jmp    d9f5 <safe_mod_func_int64_t_s_s+0x41>
    d9f1:	48 8b 45 f8          	mov    -0x8(%rbp),%rax
    d9f5:	5d                   	pop    %rbp
    d9f6:	c3                   	retq   

000000000000d9f7 <safe_div_func_int64_t_s_s>:
    d9f7:	f3 0f 1e fa          	endbr64 
    d9fb:	55                   	push   %rbp
    d9fc:	48 89 e5             	mov    %rsp,%rbp
    d9ff:	48 89 7d f8          	mov    %rdi,-0x8(%rbp)
    da03:	48 89 75 f0          	mov    %rsi,-0x10(%rbp)
    da07:	48 83 7d f0 00       	cmpq   $0x0,-0x10(%rbp)
    da0c:	74 23                	je     da31 <safe_div_func_int64_t_s_s+0x3a>
    da0e:	48 b8 00 00 00 00 00 	movabs $0x8000000000000000,%rax
    da15:	00 00 80 
    da18:	48 39 45 f8          	cmp    %rax,-0x8(%rbp)
    da1c:	75 07                	jne    da25 <safe_div_func_int64_t_s_s+0x2e>
    da1e:	48 83 7d f0 ff       	cmpq   $0xffffffffffffffff,-0x10(%rbp)
    da23:	74 0c                	je     da31 <safe_div_func_int64_t_s_s+0x3a>
    da25:	48 8b 45 f8          	mov    -0x8(%rbp),%rax
    da29:	48 99                	cqto   
    da2b:	48 f7 7d f0          	idivq  -0x10(%rbp)
    da2f:	eb 04                	jmp    da35 <safe_div_func_int64_t_s_s+0x3e>
    da31:	48 8b 45 f8          	mov    -0x8(%rbp),%rax
    da35:	5d                   	pop    %rbp
    da36:	c3                   	retq   

000000000000da37 <safe_lshift_func_int64_t_s_s>:
    da37:	f3 0f 1e fa          	endbr64 
    da3b:	55                   	push   %rbp
    da3c:	48 89 e5             	mov    %rsp,%rbp
    da3f:	48 89 7d f8          	mov    %rdi,-0x8(%rbp)
    da43:	89 75 f4             	mov    %esi,-0xc(%rbp)
    da46:	48 83 7d f8 00       	cmpq   $0x0,-0x8(%rbp)
    da4b:	78 38                	js     da85 <safe_lshift_func_int64_t_s_s+0x4e>
    da4d:	83 7d f4 00          	cmpl   $0x0,-0xc(%rbp)
    da51:	78 32                	js     da85 <safe_lshift_func_int64_t_s_s+0x4e>
    da53:	83 7d f4 1f          	cmpl   $0x1f,-0xc(%rbp)
    da57:	7f 2c                	jg     da85 <safe_lshift_func_int64_t_s_s+0x4e>
    da59:	8b 45 f4             	mov    -0xc(%rbp),%eax
    da5c:	48 ba ff ff ff ff ff 	movabs $0x7fffffffffffffff,%rdx
    da63:	ff ff 7f 
    da66:	89 c1                	mov    %eax,%ecx
    da68:	48 d3 fa             	sar    %cl,%rdx
    da6b:	48 89 d0             	mov    %rdx,%rax
    da6e:	48 39 45 f8          	cmp    %rax,-0x8(%rbp)
    da72:	7f 11                	jg     da85 <safe_lshift_func_int64_t_s_s+0x4e>
    da74:	8b 45 f4             	mov    -0xc(%rbp),%eax
    da77:	48 8b 55 f8          	mov    -0x8(%rbp),%rdx
    da7b:	89 c1                	mov    %eax,%ecx
    da7d:	48 d3 e2             	shl    %cl,%rdx
    da80:	48 89 d0             	mov    %rdx,%rax
    da83:	eb 04                	jmp    da89 <safe_lshift_func_int64_t_s_s+0x52>
    da85:	48 8b 45 f8          	mov    -0x8(%rbp),%rax
    da89:	5d                   	pop    %rbp
    da8a:	c3                   	retq   

000000000000da8b <safe_lshift_func_int64_t_s_u>:
    da8b:	f3 0f 1e fa          	endbr64 
    da8f:	55                   	push   %rbp
    da90:	48 89 e5             	mov    %rsp,%rbp
    da93:	48 89 7d f8          	mov    %rdi,-0x8(%rbp)
    da97:	89 75 f4             	mov    %esi,-0xc(%rbp)
    da9a:	48 83 7d f8 00       	cmpq   $0x0,-0x8(%rbp)
    da9f:	78 32                	js     dad3 <safe_lshift_func_int64_t_s_u+0x48>
    daa1:	83 7d f4 1f          	cmpl   $0x1f,-0xc(%rbp)
    daa5:	77 2c                	ja     dad3 <safe_lshift_func_int64_t_s_u+0x48>
    daa7:	8b 45 f4             	mov    -0xc(%rbp),%eax
    daaa:	48 ba ff ff ff ff ff 	movabs $0x7fffffffffffffff,%rdx
    dab1:	ff ff 7f 
    dab4:	89 c1                	mov    %eax,%ecx
    dab6:	48 d3 fa             	sar    %cl,%rdx
    dab9:	48 89 d0             	mov    %rdx,%rax
    dabc:	48 39 45 f8          	cmp    %rax,-0x8(%rbp)
    dac0:	7f 11                	jg     dad3 <safe_lshift_func_int64_t_s_u+0x48>
    dac2:	8b 45 f4             	mov    -0xc(%rbp),%eax
    dac5:	48 8b 55 f8          	mov    -0x8(%rbp),%rdx
    dac9:	89 c1                	mov    %eax,%ecx
    dacb:	48 d3 e2             	shl    %cl,%rdx
    dace:	48 89 d0             	mov    %rdx,%rax
    dad1:	eb 04                	jmp    dad7 <safe_lshift_func_int64_t_s_u+0x4c>
    dad3:	48 8b 45 f8          	mov    -0x8(%rbp),%rax
    dad7:	5d                   	pop    %rbp
    dad8:	c3                   	retq   

000000000000dad9 <safe_rshift_func_int64_t_s_s>:
    dad9:	f3 0f 1e fa          	endbr64 
    dadd:	55                   	push   %rbp
    dade:	48 89 e5             	mov    %rsp,%rbp
    dae1:	48 89 7d f8          	mov    %rdi,-0x8(%rbp)
    dae5:	89 75 f4             	mov    %esi,-0xc(%rbp)
    dae8:	48 83 7d f8 00       	cmpq   $0x0,-0x8(%rbp)
    daed:	78 1d                	js     db0c <safe_rshift_func_int64_t_s_s+0x33>
    daef:	83 7d f4 00          	cmpl   $0x0,-0xc(%rbp)
    daf3:	78 17                	js     db0c <safe_rshift_func_int64_t_s_s+0x33>
    daf5:	83 7d f4 1f          	cmpl   $0x1f,-0xc(%rbp)
    daf9:	7f 11                	jg     db0c <safe_rshift_func_int64_t_s_s+0x33>
    dafb:	8b 45 f4             	mov    -0xc(%rbp),%eax
    dafe:	48 8b 55 f8          	mov    -0x8(%rbp),%rdx
    db02:	89 c1                	mov    %eax,%ecx
    db04:	48 d3 fa             	sar    %cl,%rdx
    db07:	48 89 d0             	mov    %rdx,%rax
    db0a:	eb 04                	jmp    db10 <safe_rshift_func_int64_t_s_s+0x37>
    db0c:	48 8b 45 f8          	mov    -0x8(%rbp),%rax
    db10:	5d                   	pop    %rbp
    db11:	c3                   	retq   

000000000000db12 <safe_rshift_func_int64_t_s_u>:
    db12:	f3 0f 1e fa          	endbr64 
    db16:	55                   	push   %rbp
    db17:	48 89 e5             	mov    %rsp,%rbp
    db1a:	48 89 7d f8          	mov    %rdi,-0x8(%rbp)
    db1e:	89 75 f4             	mov    %esi,-0xc(%rbp)
    db21:	48 83 7d f8 00       	cmpq   $0x0,-0x8(%rbp)
    db26:	78 17                	js     db3f <safe_rshift_func_int64_t_s_u+0x2d>
    db28:	83 7d f4 1f          	cmpl   $0x1f,-0xc(%rbp)
    db2c:	77 11                	ja     db3f <safe_rshift_func_int64_t_s_u+0x2d>
    db2e:	8b 45 f4             	mov    -0xc(%rbp),%eax
    db31:	48 8b 55 f8          	mov    -0x8(%rbp),%rdx
    db35:	89 c1                	mov    %eax,%ecx
    db37:	48 d3 fa             	sar    %cl,%rdx
    db3a:	48 89 d0             	mov    %rdx,%rax
    db3d:	eb 04                	jmp    db43 <safe_rshift_func_int64_t_s_u+0x31>
    db3f:	48 8b 45 f8          	mov    -0x8(%rbp),%rax
    db43:	5d                   	pop    %rbp
    db44:	c3                   	retq   

000000000000db45 <safe_unary_minus_func_uint8_t_u>:
    db45:	f3 0f 1e fa          	endbr64 
    db49:	55                   	push   %rbp
    db4a:	48 89 e5             	mov    %rsp,%rbp
    db4d:	89 f8                	mov    %edi,%eax
    db4f:	88 45 fc             	mov    %al,-0x4(%rbp)
    db52:	0f b6 45 fc          	movzbl -0x4(%rbp),%eax
    db56:	f7 d8                	neg    %eax
    db58:	5d                   	pop    %rbp
    db59:	c3                   	retq   

000000000000db5a <safe_add_func_uint8_t_u_u>:
    db5a:	f3 0f 1e fa          	endbr64 
    db5e:	55                   	push   %rbp
    db5f:	48 89 e5             	mov    %rsp,%rbp
    db62:	89 fa                	mov    %edi,%edx
    db64:	89 f0                	mov    %esi,%eax
    db66:	88 55 fc             	mov    %dl,-0x4(%rbp)
    db69:	88 45 f8             	mov    %al,-0x8(%rbp)
    db6c:	0f b6 55 fc          	movzbl -0x4(%rbp),%edx
    db70:	0f b6 45 f8          	movzbl -0x8(%rbp),%eax
    db74:	01 d0                	add    %edx,%eax
    db76:	5d                   	pop    %rbp
    db77:	c3                   	retq   

000000000000db78 <safe_sub_func_uint8_t_u_u>:
    db78:	f3 0f 1e fa          	endbr64 
    db7c:	55                   	push   %rbp
    db7d:	48 89 e5             	mov    %rsp,%rbp
    db80:	89 fa                	mov    %edi,%edx
    db82:	89 f0                	mov    %esi,%eax
    db84:	88 55 fc             	mov    %dl,-0x4(%rbp)
    db87:	88 45 f8             	mov    %al,-0x8(%rbp)
    db8a:	0f b6 45 fc          	movzbl -0x4(%rbp),%eax
    db8e:	2a 45 f8             	sub    -0x8(%rbp),%al
    db91:	5d                   	pop    %rbp
    db92:	c3                   	retq   

000000000000db93 <safe_mul_func_uint8_t_u_u>:
    db93:	f3 0f 1e fa          	endbr64 
    db97:	55                   	push   %rbp
    db98:	48 89 e5             	mov    %rsp,%rbp
    db9b:	89 fa                	mov    %edi,%edx
    db9d:	89 f0                	mov    %esi,%eax
    db9f:	88 55 fc             	mov    %dl,-0x4(%rbp)
    dba2:	88 45 f8             	mov    %al,-0x8(%rbp)
    dba5:	0f b6 45 fc          	movzbl -0x4(%rbp),%eax
    dba9:	f6 65 f8             	mulb   -0x8(%rbp)
    dbac:	5d                   	pop    %rbp
    dbad:	c3                   	retq   

000000000000dbae <safe_mod_func_uint8_t_u_u>:
    dbae:	f3 0f 1e fa          	endbr64 
    dbb2:	55                   	push   %rbp
    dbb3:	48 89 e5             	mov    %rsp,%rbp
    dbb6:	89 fa                	mov    %edi,%edx
    dbb8:	89 f0                	mov    %esi,%eax
    dbba:	88 55 fc             	mov    %dl,-0x4(%rbp)
    dbbd:	88 45 f8             	mov    %al,-0x8(%rbp)
    dbc0:	80 7d f8 00          	cmpb   $0x0,-0x8(%rbp)
    dbc4:	74 0f                	je     dbd5 <safe_mod_func_uint8_t_u_u+0x27>
    dbc6:	0f b6 45 fc          	movzbl -0x4(%rbp),%eax
    dbca:	0f b6 c0             	movzbl %al,%eax
    dbcd:	f6 75 f8             	divb   -0x8(%rbp)
    dbd0:	0f b6 c4             	movzbl %ah,%eax
    dbd3:	eb 04                	jmp    dbd9 <safe_mod_func_uint8_t_u_u+0x2b>
    dbd5:	0f b6 45 fc          	movzbl -0x4(%rbp),%eax
    dbd9:	5d                   	pop    %rbp
    dbda:	c3                   	retq   

000000000000dbdb <safe_div_func_uint8_t_u_u>:
    dbdb:	f3 0f 1e fa          	endbr64 
    dbdf:	55                   	push   %rbp
    dbe0:	48 89 e5             	mov    %rsp,%rbp
    dbe3:	89 fa                	mov    %edi,%edx
    dbe5:	89 f0                	mov    %esi,%eax
    dbe7:	88 55 fc             	mov    %dl,-0x4(%rbp)
    dbea:	88 45 f8             	mov    %al,-0x8(%rbp)
    dbed:	80 7d f8 00          	cmpb   $0x0,-0x8(%rbp)
    dbf1:	74 0c                	je     dbff <safe_div_func_uint8_t_u_u+0x24>
    dbf3:	0f b6 45 fc          	movzbl -0x4(%rbp),%eax
    dbf7:	0f b6 c0             	movzbl %al,%eax
    dbfa:	f6 75 f8             	divb   -0x8(%rbp)
    dbfd:	eb 04                	jmp    dc03 <safe_div_func_uint8_t_u_u+0x28>
    dbff:	0f b6 45 fc          	movzbl -0x4(%rbp),%eax
    dc03:	5d                   	pop    %rbp
    dc04:	c3                   	retq   

000000000000dc05 <safe_lshift_func_uint8_t_u_s>:
    dc05:	f3 0f 1e fa          	endbr64 
    dc09:	55                   	push   %rbp
    dc0a:	48 89 e5             	mov    %rsp,%rbp
    dc0d:	89 f8                	mov    %edi,%eax
    dc0f:	89 75 f8             	mov    %esi,-0x8(%rbp)
    dc12:	88 45 fc             	mov    %al,-0x4(%rbp)
    dc15:	83 7d f8 00          	cmpl   $0x0,-0x8(%rbp)
    dc19:	78 2b                	js     dc46 <safe_lshift_func_uint8_t_u_s+0x41>
    dc1b:	83 7d f8 1f          	cmpl   $0x1f,-0x8(%rbp)
    dc1f:	7f 25                	jg     dc46 <safe_lshift_func_uint8_t_u_s+0x41>
    dc21:	0f b6 55 fc          	movzbl -0x4(%rbp),%edx
    dc25:	8b 45 f8             	mov    -0x8(%rbp),%eax
    dc28:	be ff 00 00 00       	mov    $0xff,%esi
    dc2d:	89 c1                	mov    %eax,%ecx
    dc2f:	d3 fe                	sar    %cl,%esi
    dc31:	89 f0                	mov    %esi,%eax
    dc33:	39 c2                	cmp    %eax,%edx
    dc35:	7f 0f                	jg     dc46 <safe_lshift_func_uint8_t_u_s+0x41>
    dc37:	0f b6 55 fc          	movzbl -0x4(%rbp),%edx
    dc3b:	8b 45 f8             	mov    -0x8(%rbp),%eax
    dc3e:	89 c1                	mov    %eax,%ecx
    dc40:	d3 e2                	shl    %cl,%edx
    dc42:	89 d0                	mov    %edx,%eax
    dc44:	eb 04                	jmp    dc4a <safe_lshift_func_uint8_t_u_s+0x45>
    dc46:	0f b6 45 fc          	movzbl -0x4(%rbp),%eax
    dc4a:	5d                   	pop    %rbp
    dc4b:	c3                   	retq   

000000000000dc4c <safe_lshift_func_uint8_t_u_u>:
    dc4c:	f3 0f 1e fa          	endbr64 
    dc50:	55                   	push   %rbp
    dc51:	48 89 e5             	mov    %rsp,%rbp
    dc54:	89 f8                	mov    %edi,%eax
    dc56:	89 75 f8             	mov    %esi,-0x8(%rbp)
    dc59:	88 45 fc             	mov    %al,-0x4(%rbp)
    dc5c:	83 7d f8 1f          	cmpl   $0x1f,-0x8(%rbp)
    dc60:	77 25                	ja     dc87 <safe_lshift_func_uint8_t_u_u+0x3b>
    dc62:	0f b6 55 fc          	movzbl -0x4(%rbp),%edx
    dc66:	8b 45 f8             	mov    -0x8(%rbp),%eax
    dc69:	be ff 00 00 00       	mov    $0xff,%esi
    dc6e:	89 c1                	mov    %eax,%ecx
    dc70:	d3 fe                	sar    %cl,%esi
    dc72:	89 f0                	mov    %esi,%eax
    dc74:	39 c2                	cmp    %eax,%edx
    dc76:	7f 0f                	jg     dc87 <safe_lshift_func_uint8_t_u_u+0x3b>
    dc78:	0f b6 55 fc          	movzbl -0x4(%rbp),%edx
    dc7c:	8b 45 f8             	mov    -0x8(%rbp),%eax
    dc7f:	89 c1                	mov    %eax,%ecx
    dc81:	d3 e2                	shl    %cl,%edx
    dc83:	89 d0                	mov    %edx,%eax
    dc85:	eb 04                	jmp    dc8b <safe_lshift_func_uint8_t_u_u+0x3f>
    dc87:	0f b6 45 fc          	movzbl -0x4(%rbp),%eax
    dc8b:	5d                   	pop    %rbp
    dc8c:	c3                   	retq   

000000000000dc8d <safe_rshift_func_uint8_t_u_s>:
    dc8d:	f3 0f 1e fa          	endbr64 
    dc91:	55                   	push   %rbp
    dc92:	48 89 e5             	mov    %rsp,%rbp
    dc95:	89 f8                	mov    %edi,%eax
    dc97:	89 75 f8             	mov    %esi,-0x8(%rbp)
    dc9a:	88 45 fc             	mov    %al,-0x4(%rbp)
    dc9d:	83 7d f8 00          	cmpl   $0x0,-0x8(%rbp)
    dca1:	78 15                	js     dcb8 <safe_rshift_func_uint8_t_u_s+0x2b>
    dca3:	83 7d f8 1f          	cmpl   $0x1f,-0x8(%rbp)
    dca7:	7f 0f                	jg     dcb8 <safe_rshift_func_uint8_t_u_s+0x2b>
    dca9:	0f b6 55 fc          	movzbl -0x4(%rbp),%edx
    dcad:	8b 45 f8             	mov    -0x8(%rbp),%eax
    dcb0:	89 c1                	mov    %eax,%ecx
    dcb2:	d3 fa                	sar    %cl,%edx
    dcb4:	89 d0                	mov    %edx,%eax
    dcb6:	eb 04                	jmp    dcbc <safe_rshift_func_uint8_t_u_s+0x2f>
    dcb8:	0f b6 45 fc          	movzbl -0x4(%rbp),%eax
    dcbc:	5d                   	pop    %rbp
    dcbd:	c3                   	retq   

000000000000dcbe <safe_rshift_func_uint8_t_u_u>:
    dcbe:	f3 0f 1e fa          	endbr64 
    dcc2:	55                   	push   %rbp
    dcc3:	48 89 e5             	mov    %rsp,%rbp
    dcc6:	89 f8                	mov    %edi,%eax
    dcc8:	89 75 f8             	mov    %esi,-0x8(%rbp)
    dccb:	88 45 fc             	mov    %al,-0x4(%rbp)
    dcce:	83 7d f8 1f          	cmpl   $0x1f,-0x8(%rbp)
    dcd2:	77 0f                	ja     dce3 <safe_rshift_func_uint8_t_u_u+0x25>
    dcd4:	0f b6 55 fc          	movzbl -0x4(%rbp),%edx
    dcd8:	8b 45 f8             	mov    -0x8(%rbp),%eax
    dcdb:	89 c1                	mov    %eax,%ecx
    dcdd:	d3 fa                	sar    %cl,%edx
    dcdf:	89 d0                	mov    %edx,%eax
    dce1:	eb 04                	jmp    dce7 <safe_rshift_func_uint8_t_u_u+0x29>
    dce3:	0f b6 45 fc          	movzbl -0x4(%rbp),%eax
    dce7:	5d                   	pop    %rbp
    dce8:	c3                   	retq   

000000000000dce9 <safe_unary_minus_func_uint16_t_u>:
    dce9:	f3 0f 1e fa          	endbr64 
    dced:	55                   	push   %rbp
    dcee:	48 89 e5             	mov    %rsp,%rbp
    dcf1:	89 f8                	mov    %edi,%eax
    dcf3:	66 89 45 fc          	mov    %ax,-0x4(%rbp)
    dcf7:	0f b7 45 fc          	movzwl -0x4(%rbp),%eax
    dcfb:	f7 d8                	neg    %eax
    dcfd:	5d                   	pop    %rbp
    dcfe:	c3                   	retq   

000000000000dcff <safe_add_func_uint16_t_u_u>:
    dcff:	f3 0f 1e fa          	endbr64 
    dd03:	55                   	push   %rbp
    dd04:	48 89 e5             	mov    %rsp,%rbp
    dd07:	89 fa                	mov    %edi,%edx
    dd09:	89 f0                	mov    %esi,%eax
    dd0b:	66 89 55 fc          	mov    %dx,-0x4(%rbp)
    dd0f:	66 89 45 f8          	mov    %ax,-0x8(%rbp)
    dd13:	0f b7 55 fc          	movzwl -0x4(%rbp),%edx
    dd17:	0f b7 45 f8          	movzwl -0x8(%rbp),%eax
    dd1b:	01 d0                	add    %edx,%eax
    dd1d:	5d                   	pop    %rbp
    dd1e:	c3                   	retq   

000000000000dd1f <safe_sub_func_uint16_t_u_u>:
    dd1f:	f3 0f 1e fa          	endbr64 
    dd23:	55                   	push   %rbp
    dd24:	48 89 e5             	mov    %rsp,%rbp
    dd27:	89 fa                	mov    %edi,%edx
    dd29:	89 f0                	mov    %esi,%eax
    dd2b:	66 89 55 fc          	mov    %dx,-0x4(%rbp)
    dd2f:	66 89 45 f8          	mov    %ax,-0x8(%rbp)
    dd33:	0f b7 45 fc          	movzwl -0x4(%rbp),%eax
    dd37:	66 2b 45 f8          	sub    -0x8(%rbp),%ax
    dd3b:	5d                   	pop    %rbp
    dd3c:	c3                   	retq   

000000000000dd3d <safe_mul_func_uint16_t_u_u>:
    dd3d:	f3 0f 1e fa          	endbr64 
    dd41:	55                   	push   %rbp
    dd42:	48 89 e5             	mov    %rsp,%rbp
    dd45:	89 fa                	mov    %edi,%edx
    dd47:	89 f0                	mov    %esi,%eax
    dd49:	66 89 55 fc          	mov    %dx,-0x4(%rbp)
    dd4d:	66 89 45 f8          	mov    %ax,-0x8(%rbp)
    dd51:	0f b7 45 fc          	movzwl -0x4(%rbp),%eax
    dd55:	66 0f af 45 f8       	imul   -0x8(%rbp),%ax
    dd5a:	5d                   	pop    %rbp
    dd5b:	c3                   	retq   

000000000000dd5c <safe_mod_func_uint16_t_u_u>:
    dd5c:	f3 0f 1e fa          	endbr64 
    dd60:	55                   	push   %rbp
    dd61:	48 89 e5             	mov    %rsp,%rbp
    dd64:	89 fa                	mov    %edi,%edx
    dd66:	89 f0                	mov    %esi,%eax
    dd68:	66 89 55 fc          	mov    %dx,-0x4(%rbp)
    dd6c:	66 89 45 f8          	mov    %ax,-0x8(%rbp)
    dd70:	66 83 7d f8 00       	cmpw   $0x0,-0x8(%rbp)
    dd75:	74 11                	je     dd88 <safe_mod_func_uint16_t_u_u+0x2c>
    dd77:	0f b7 45 fc          	movzwl -0x4(%rbp),%eax
    dd7b:	ba 00 00 00 00       	mov    $0x0,%edx
    dd80:	66 f7 75 f8          	divw   -0x8(%rbp)
    dd84:	89 d0                	mov    %edx,%eax
    dd86:	eb 04                	jmp    dd8c <safe_mod_func_uint16_t_u_u+0x30>
    dd88:	0f b7 45 fc          	movzwl -0x4(%rbp),%eax
    dd8c:	5d                   	pop    %rbp
    dd8d:	c3                   	retq   

000000000000dd8e <safe_div_func_uint16_t_u_u>:
    dd8e:	f3 0f 1e fa          	endbr64 
    dd92:	55                   	push   %rbp
    dd93:	48 89 e5             	mov    %rsp,%rbp
    dd96:	89 fa                	mov    %edi,%edx
    dd98:	89 f0                	mov    %esi,%eax
    dd9a:	66 89 55 fc          	mov    %dx,-0x4(%rbp)
    dd9e:	66 89 45 f8          	mov    %ax,-0x8(%rbp)
    dda2:	66 83 7d f8 00       	cmpw   $0x0,-0x8(%rbp)
    dda7:	74 0f                	je     ddb8 <safe_div_func_uint16_t_u_u+0x2a>
    dda9:	0f b7 45 fc          	movzwl -0x4(%rbp),%eax
    ddad:	ba 00 00 00 00       	mov    $0x0,%edx
    ddb2:	66 f7 75 f8          	divw   -0x8(%rbp)
    ddb6:	eb 04                	jmp    ddbc <safe_div_func_uint16_t_u_u+0x2e>
    ddb8:	0f b7 45 fc          	movzwl -0x4(%rbp),%eax
    ddbc:	5d                   	pop    %rbp
    ddbd:	c3                   	retq   

000000000000ddbe <safe_lshift_func_uint16_t_u_s>:
    ddbe:	f3 0f 1e fa          	endbr64 
    ddc2:	55                   	push   %rbp
    ddc3:	48 89 e5             	mov    %rsp,%rbp
    ddc6:	89 f8                	mov    %edi,%eax
    ddc8:	89 75 f8             	mov    %esi,-0x8(%rbp)
    ddcb:	66 89 45 fc          	mov    %ax,-0x4(%rbp)
    ddcf:	83 7d f8 00          	cmpl   $0x0,-0x8(%rbp)
    ddd3:	78 2b                	js     de00 <safe_lshift_func_uint16_t_u_s+0x42>
    ddd5:	83 7d f8 1f          	cmpl   $0x1f,-0x8(%rbp)
    ddd9:	7f 25                	jg     de00 <safe_lshift_func_uint16_t_u_s+0x42>
    dddb:	0f b7 55 fc          	movzwl -0x4(%rbp),%edx
    dddf:	8b 45 f8             	mov    -0x8(%rbp),%eax
    dde2:	be ff ff 00 00       	mov    $0xffff,%esi
    dde7:	89 c1                	mov    %eax,%ecx
    dde9:	d3 fe                	sar    %cl,%esi
    ddeb:	89 f0                	mov    %esi,%eax
    dded:	39 c2                	cmp    %eax,%edx
    ddef:	7f 0f                	jg     de00 <safe_lshift_func_uint16_t_u_s+0x42>
    ddf1:	0f b7 55 fc          	movzwl -0x4(%rbp),%edx
    ddf5:	8b 45 f8             	mov    -0x8(%rbp),%eax
    ddf8:	89 c1                	mov    %eax,%ecx
    ddfa:	d3 e2                	shl    %cl,%edx
    ddfc:	89 d0                	mov    %edx,%eax
    ddfe:	eb 04                	jmp    de04 <safe_lshift_func_uint16_t_u_s+0x46>
    de00:	0f b7 45 fc          	movzwl -0x4(%rbp),%eax
    de04:	5d                   	pop    %rbp
    de05:	c3                   	retq   

000000000000de06 <safe_lshift_func_uint16_t_u_u>:
    de06:	f3 0f 1e fa          	endbr64 
    de0a:	55                   	push   %rbp
    de0b:	48 89 e5             	mov    %rsp,%rbp
    de0e:	89 f8                	mov    %edi,%eax
    de10:	89 75 f8             	mov    %esi,-0x8(%rbp)
    de13:	66 89 45 fc          	mov    %ax,-0x4(%rbp)
    de17:	83 7d f8 1f          	cmpl   $0x1f,-0x8(%rbp)
    de1b:	77 25                	ja     de42 <safe_lshift_func_uint16_t_u_u+0x3c>
    de1d:	0f b7 55 fc          	movzwl -0x4(%rbp),%edx
    de21:	8b 45 f8             	mov    -0x8(%rbp),%eax
    de24:	be ff ff 00 00       	mov    $0xffff,%esi
    de29:	89 c1                	mov    %eax,%ecx
    de2b:	d3 fe                	sar    %cl,%esi
    de2d:	89 f0                	mov    %esi,%eax
    de2f:	39 c2                	cmp    %eax,%edx
    de31:	7f 0f                	jg     de42 <safe_lshift_func_uint16_t_u_u+0x3c>
    de33:	0f b7 55 fc          	movzwl -0x4(%rbp),%edx
    de37:	8b 45 f8             	mov    -0x8(%rbp),%eax
    de3a:	89 c1                	mov    %eax,%ecx
    de3c:	d3 e2                	shl    %cl,%edx
    de3e:	89 d0                	mov    %edx,%eax
    de40:	eb 04                	jmp    de46 <safe_lshift_func_uint16_t_u_u+0x40>
    de42:	0f b7 45 fc          	movzwl -0x4(%rbp),%eax
    de46:	5d                   	pop    %rbp
    de47:	c3                   	retq   

000000000000de48 <safe_rshift_func_uint16_t_u_s>:
    de48:	f3 0f 1e fa          	endbr64 
    de4c:	55                   	push   %rbp
    de4d:	48 89 e5             	mov    %rsp,%rbp
    de50:	89 f8                	mov    %edi,%eax
    de52:	89 75 f8             	mov    %esi,-0x8(%rbp)
    de55:	66 89 45 fc          	mov    %ax,-0x4(%rbp)
    de59:	83 7d f8 00          	cmpl   $0x0,-0x8(%rbp)
    de5d:	78 15                	js     de74 <safe_rshift_func_uint16_t_u_s+0x2c>
    de5f:	83 7d f8 1f          	cmpl   $0x1f,-0x8(%rbp)
    de63:	7f 0f                	jg     de74 <safe_rshift_func_uint16_t_u_s+0x2c>
    de65:	0f b7 55 fc          	movzwl -0x4(%rbp),%edx
    de69:	8b 45 f8             	mov    -0x8(%rbp),%eax
    de6c:	89 c1                	mov    %eax,%ecx
    de6e:	d3 fa                	sar    %cl,%edx
    de70:	89 d0                	mov    %edx,%eax
    de72:	eb 04                	jmp    de78 <safe_rshift_func_uint16_t_u_s+0x30>
    de74:	0f b7 45 fc          	movzwl -0x4(%rbp),%eax
    de78:	5d                   	pop    %rbp
    de79:	c3                   	retq   

000000000000de7a <safe_rshift_func_uint16_t_u_u>:
    de7a:	f3 0f 1e fa          	endbr64 
    de7e:	55                   	push   %rbp
    de7f:	48 89 e5             	mov    %rsp,%rbp
    de82:	89 f8                	mov    %edi,%eax
    de84:	89 75 f8             	mov    %esi,-0x8(%rbp)
    de87:	66 89 45 fc          	mov    %ax,-0x4(%rbp)
    de8b:	83 7d f8 1f          	cmpl   $0x1f,-0x8(%rbp)
    de8f:	77 0f                	ja     dea0 <safe_rshift_func_uint16_t_u_u+0x26>
    de91:	0f b7 55 fc          	movzwl -0x4(%rbp),%edx
    de95:	8b 45 f8             	mov    -0x8(%rbp),%eax
    de98:	89 c1                	mov    %eax,%ecx
    de9a:	d3 fa                	sar    %cl,%edx
    de9c:	89 d0                	mov    %edx,%eax
    de9e:	eb 04                	jmp    dea4 <safe_rshift_func_uint16_t_u_u+0x2a>
    dea0:	0f b7 45 fc          	movzwl -0x4(%rbp),%eax
    dea4:	5d                   	pop    %rbp
    dea5:	c3                   	retq   

000000000000dea6 <safe_unary_minus_func_uint32_t_u>:
    dea6:	f3 0f 1e fa          	endbr64 
    deaa:	55                   	push   %rbp
    deab:	48 89 e5             	mov    %rsp,%rbp
    deae:	89 7d fc             	mov    %edi,-0x4(%rbp)
    deb1:	8b 45 fc             	mov    -0x4(%rbp),%eax
    deb4:	f7 d8                	neg    %eax
    deb6:	5d                   	pop    %rbp
    deb7:	c3                   	retq   

000000000000deb8 <safe_add_func_uint32_t_u_u>:
    deb8:	f3 0f 1e fa          	endbr64 
    debc:	55                   	push   %rbp
    debd:	48 89 e5             	mov    %rsp,%rbp
    dec0:	89 7d fc             	mov    %edi,-0x4(%rbp)
    dec3:	89 75 f8             	mov    %esi,-0x8(%rbp)
    dec6:	8b 55 fc             	mov    -0x4(%rbp),%edx
    dec9:	8b 45 f8             	mov    -0x8(%rbp),%eax
    decc:	01 d0                	add    %edx,%eax
    dece:	5d                   	pop    %rbp
    decf:	c3                   	retq   

000000000000ded0 <safe_sub_func_uint32_t_u_u>:
    ded0:	f3 0f 1e fa          	endbr64 
    ded4:	55                   	push   %rbp
    ded5:	48 89 e5             	mov    %rsp,%rbp
    ded8:	89 7d fc             	mov    %edi,-0x4(%rbp)
    dedb:	89 75 f8             	mov    %esi,-0x8(%rbp)
    dede:	8b 45 fc             	mov    -0x4(%rbp),%eax
    dee1:	2b 45 f8             	sub    -0x8(%rbp),%eax
    dee4:	5d                   	pop    %rbp
    dee5:	c3                   	retq   

000000000000dee6 <safe_mul_func_uint32_t_u_u>:
    dee6:	f3 0f 1e fa          	endbr64 
    deea:	55                   	push   %rbp
    deeb:	48 89 e5             	mov    %rsp,%rbp
    deee:	89 7d fc             	mov    %edi,-0x4(%rbp)
    def1:	89 75 f8             	mov    %esi,-0x8(%rbp)
    def4:	8b 45 fc             	mov    -0x4(%rbp),%eax
    def7:	0f af 45 f8          	imul   -0x8(%rbp),%eax
    defb:	5d                   	pop    %rbp
    defc:	c3                   	retq   

000000000000defd <safe_mod_func_uint32_t_u_u>:
    defd:	f3 0f 1e fa          	endbr64 
    df01:	55                   	push   %rbp
    df02:	48 89 e5             	mov    %rsp,%rbp
    df05:	89 7d fc             	mov    %edi,-0x4(%rbp)
    df08:	89 75 f8             	mov    %esi,-0x8(%rbp)
    df0b:	83 7d f8 00          	cmpl   $0x0,-0x8(%rbp)
    df0f:	74 0f                	je     df20 <safe_mod_func_uint32_t_u_u+0x23>
    df11:	8b 45 fc             	mov    -0x4(%rbp),%eax
    df14:	ba 00 00 00 00       	mov    $0x0,%edx
    df19:	f7 75 f8             	divl   -0x8(%rbp)
    df1c:	89 d0                	mov    %edx,%eax
    df1e:	eb 03                	jmp    df23 <safe_mod_func_uint32_t_u_u+0x26>
    df20:	8b 45 fc             	mov    -0x4(%rbp),%eax
    df23:	5d                   	pop    %rbp
    df24:	c3                   	retq   

000000000000df25 <safe_div_func_uint32_t_u_u>:
    df25:	f3 0f 1e fa          	endbr64 
    df29:	55                   	push   %rbp
    df2a:	48 89 e5             	mov    %rsp,%rbp
    df2d:	89 7d fc             	mov    %edi,-0x4(%rbp)
    df30:	89 75 f8             	mov    %esi,-0x8(%rbp)
    df33:	83 7d f8 00          	cmpl   $0x0,-0x8(%rbp)
    df37:	74 0d                	je     df46 <safe_div_func_uint32_t_u_u+0x21>
    df39:	8b 45 fc             	mov    -0x4(%rbp),%eax
    df3c:	ba 00 00 00 00       	mov    $0x0,%edx
    df41:	f7 75 f8             	divl   -0x8(%rbp)
    df44:	eb 03                	jmp    df49 <safe_div_func_uint32_t_u_u+0x24>
    df46:	8b 45 fc             	mov    -0x4(%rbp),%eax
    df49:	5d                   	pop    %rbp
    df4a:	c3                   	retq   

000000000000df4b <safe_lshift_func_uint32_t_u_s>:
    df4b:	f3 0f 1e fa          	endbr64 
    df4f:	55                   	push   %rbp
    df50:	48 89 e5             	mov    %rsp,%rbp
    df53:	89 7d fc             	mov    %edi,-0x4(%rbp)
    df56:	89 75 f8             	mov    %esi,-0x8(%rbp)
    df59:	83 7d f8 00          	cmpl   $0x0,-0x8(%rbp)
    df5d:	78 27                	js     df86 <safe_lshift_func_uint32_t_u_s+0x3b>
    df5f:	83 7d f8 1f          	cmpl   $0x1f,-0x8(%rbp)
    df63:	7f 21                	jg     df86 <safe_lshift_func_uint32_t_u_s+0x3b>
    df65:	8b 45 f8             	mov    -0x8(%rbp),%eax
    df68:	ba ff ff ff ff       	mov    $0xffffffff,%edx
    df6d:	89 c1                	mov    %eax,%ecx
    df6f:	d3 ea                	shr    %cl,%edx
    df71:	89 d0                	mov    %edx,%eax
    df73:	39 45 fc             	cmp    %eax,-0x4(%rbp)
    df76:	77 0e                	ja     df86 <safe_lshift_func_uint32_t_u_s+0x3b>
    df78:	8b 45 f8             	mov    -0x8(%rbp),%eax
    df7b:	8b 55 fc             	mov    -0x4(%rbp),%edx
    df7e:	89 c1                	mov    %eax,%ecx
    df80:	d3 e2                	shl    %cl,%edx
    df82:	89 d0                	mov    %edx,%eax
    df84:	eb 03                	jmp    df89 <safe_lshift_func_uint32_t_u_s+0x3e>
    df86:	8b 45 fc             	mov    -0x4(%rbp),%eax
    df89:	5d                   	pop    %rbp
    df8a:	c3                   	retq   

000000000000df8b <safe_lshift_func_uint32_t_u_u>:
    df8b:	f3 0f 1e fa          	endbr64 
    df8f:	55                   	push   %rbp
    df90:	48 89 e5             	mov    %rsp,%rbp
    df93:	89 7d fc             	mov    %edi,-0x4(%rbp)
    df96:	89 75 f8             	mov    %esi,-0x8(%rbp)
    df99:	83 7d f8 1f          	cmpl   $0x1f,-0x8(%rbp)
    df9d:	77 21                	ja     dfc0 <safe_lshift_func_uint32_t_u_u+0x35>
    df9f:	8b 45 f8             	mov    -0x8(%rbp),%eax
    dfa2:	ba ff ff ff ff       	mov    $0xffffffff,%edx
    dfa7:	89 c1                	mov    %eax,%ecx
    dfa9:	d3 ea                	shr    %cl,%edx
    dfab:	89 d0                	mov    %edx,%eax
    dfad:	39 45 fc             	cmp    %eax,-0x4(%rbp)
    dfb0:	77 0e                	ja     dfc0 <safe_lshift_func_uint32_t_u_u+0x35>
    dfb2:	8b 45 f8             	mov    -0x8(%rbp),%eax
    dfb5:	8b 55 fc             	mov    -0x4(%rbp),%edx
    dfb8:	89 c1                	mov    %eax,%ecx
    dfba:	d3 e2                	shl    %cl,%edx
    dfbc:	89 d0                	mov    %edx,%eax
    dfbe:	eb 03                	jmp    dfc3 <safe_lshift_func_uint32_t_u_u+0x38>
    dfc0:	8b 45 fc             	mov    -0x4(%rbp),%eax
    dfc3:	5d                   	pop    %rbp
    dfc4:	c3                   	retq   

000000000000dfc5 <safe_rshift_func_uint32_t_u_s>:
    dfc5:	f3 0f 1e fa          	endbr64 
    dfc9:	55                   	push   %rbp
    dfca:	48 89 e5             	mov    %rsp,%rbp
    dfcd:	89 7d fc             	mov    %edi,-0x4(%rbp)
    dfd0:	89 75 f8             	mov    %esi,-0x8(%rbp)
    dfd3:	83 7d f8 00          	cmpl   $0x0,-0x8(%rbp)
    dfd7:	78 14                	js     dfed <safe_rshift_func_uint32_t_u_s+0x28>
    dfd9:	83 7d f8 1f          	cmpl   $0x1f,-0x8(%rbp)
    dfdd:	7f 0e                	jg     dfed <safe_rshift_func_uint32_t_u_s+0x28>
    dfdf:	8b 45 f8             	mov    -0x8(%rbp),%eax
    dfe2:	8b 55 fc             	mov    -0x4(%rbp),%edx
    dfe5:	89 c1                	mov    %eax,%ecx
    dfe7:	d3 ea                	shr    %cl,%edx
    dfe9:	89 d0                	mov    %edx,%eax
    dfeb:	eb 03                	jmp    dff0 <safe_rshift_func_uint32_t_u_s+0x2b>
    dfed:	8b 45 fc             	mov    -0x4(%rbp),%eax
    dff0:	5d                   	pop    %rbp
    dff1:	c3                   	retq   

000000000000dff2 <safe_rshift_func_uint32_t_u_u>:
    dff2:	f3 0f 1e fa          	endbr64 
    dff6:	55                   	push   %rbp
    dff7:	48 89 e5             	mov    %rsp,%rbp
    dffa:	89 7d fc             	mov    %edi,-0x4(%rbp)
    dffd:	89 75 f8             	mov    %esi,-0x8(%rbp)
    e000:	83 7d f8 1f          	cmpl   $0x1f,-0x8(%rbp)
    e004:	77 0e                	ja     e014 <safe_rshift_func_uint32_t_u_u+0x22>
    e006:	8b 45 f8             	mov    -0x8(%rbp),%eax
    e009:	8b 55 fc             	mov    -0x4(%rbp),%edx
    e00c:	89 c1                	mov    %eax,%ecx
    e00e:	d3 ea                	shr    %cl,%edx
    e010:	89 d0                	mov    %edx,%eax
    e012:	eb 03                	jmp    e017 <safe_rshift_func_uint32_t_u_u+0x25>
    e014:	8b 45 fc             	mov    -0x4(%rbp),%eax
    e017:	5d                   	pop    %rbp
    e018:	c3                   	retq   

000000000000e019 <safe_unary_minus_func_uint64_t_u>:
    e019:	f3 0f 1e fa          	endbr64 
    e01d:	55                   	push   %rbp
    e01e:	48 89 e5             	mov    %rsp,%rbp
    e021:	48 89 7d f8          	mov    %rdi,-0x8(%rbp)
    e025:	48 8b 45 f8          	mov    -0x8(%rbp),%rax
    e029:	48 f7 d8             	neg    %rax
    e02c:	5d                   	pop    %rbp
    e02d:	c3                   	retq   

000000000000e02e <safe_add_func_uint64_t_u_u>:
    e02e:	f3 0f 1e fa          	endbr64 
    e032:	55                   	push   %rbp
    e033:	48 89 e5             	mov    %rsp,%rbp
    e036:	48 89 7d f8          	mov    %rdi,-0x8(%rbp)
    e03a:	48 89 75 f0          	mov    %rsi,-0x10(%rbp)
    e03e:	48 8b 55 f8          	mov    -0x8(%rbp),%rdx
    e042:	48 8b 45 f0          	mov    -0x10(%rbp),%rax
    e046:	48 01 d0             	add    %rdx,%rax
    e049:	5d                   	pop    %rbp
    e04a:	c3                   	retq   

000000000000e04b <safe_sub_func_uint64_t_u_u>:
    e04b:	f3 0f 1e fa          	endbr64 
    e04f:	55                   	push   %rbp
    e050:	48 89 e5             	mov    %rsp,%rbp
    e053:	48 89 7d f8          	mov    %rdi,-0x8(%rbp)
    e057:	48 89 75 f0          	mov    %rsi,-0x10(%rbp)
    e05b:	48 8b 45 f8          	mov    -0x8(%rbp),%rax
    e05f:	48 2b 45 f0          	sub    -0x10(%rbp),%rax
    e063:	5d                   	pop    %rbp
    e064:	c3                   	retq   

000000000000e065 <safe_mul_func_uint64_t_u_u>:
    e065:	f3 0f 1e fa          	endbr64 
    e069:	55                   	push   %rbp
    e06a:	48 89 e5             	mov    %rsp,%rbp
    e06d:	48 89 7d f8          	mov    %rdi,-0x8(%rbp)
    e071:	48 89 75 f0          	mov    %rsi,-0x10(%rbp)
    e075:	48 8b 45 f8          	mov    -0x8(%rbp),%rax
    e079:	48 0f af 45 f0       	imul   -0x10(%rbp),%rax
    e07e:	5d                   	pop    %rbp
    e07f:	c3                   	retq   

000000000000e080 <safe_mod_func_uint64_t_u_u>:
    e080:	f3 0f 1e fa          	endbr64 
    e084:	55                   	push   %rbp
    e085:	48 89 e5             	mov    %rsp,%rbp
    e088:	48 89 7d f8          	mov    %rdi,-0x8(%rbp)
    e08c:	48 89 75 f0          	mov    %rsi,-0x10(%rbp)
    e090:	48 83 7d f0 00       	cmpq   $0x0,-0x10(%rbp)
    e095:	74 12                	je     e0a9 <safe_mod_func_uint64_t_u_u+0x29>
    e097:	48 8b 45 f8          	mov    -0x8(%rbp),%rax
    e09b:	ba 00 00 00 00       	mov    $0x0,%edx
    e0a0:	48 f7 75 f0          	divq   -0x10(%rbp)
    e0a4:	48 89 d0             	mov    %rdx,%rax
    e0a7:	eb 04                	jmp    e0ad <safe_mod_func_uint64_t_u_u+0x2d>
    e0a9:	48 8b 45 f8          	mov    -0x8(%rbp),%rax
    e0ad:	5d                   	pop    %rbp
    e0ae:	c3                   	retq   

000000000000e0af <safe_div_func_uint64_t_u_u>:
    e0af:	f3 0f 1e fa          	endbr64 
    e0b3:	55                   	push   %rbp
    e0b4:	48 89 e5             	mov    %rsp,%rbp
    e0b7:	48 89 7d f8          	mov    %rdi,-0x8(%rbp)
    e0bb:	48 89 75 f0          	mov    %rsi,-0x10(%rbp)
    e0bf:	48 83 7d f0 00       	cmpq   $0x0,-0x10(%rbp)
    e0c4:	74 0f                	je     e0d5 <safe_div_func_uint64_t_u_u+0x26>
    e0c6:	48 8b 45 f8          	mov    -0x8(%rbp),%rax
    e0ca:	ba 00 00 00 00       	mov    $0x0,%edx
    e0cf:	48 f7 75 f0          	divq   -0x10(%rbp)
    e0d3:	eb 04                	jmp    e0d9 <safe_div_func_uint64_t_u_u+0x2a>
    e0d5:	48 8b 45 f8          	mov    -0x8(%rbp),%rax
    e0d9:	5d                   	pop    %rbp
    e0da:	c3                   	retq   

000000000000e0db <safe_lshift_func_uint64_t_u_s>:
    e0db:	f3 0f 1e fa          	endbr64 
    e0df:	55                   	push   %rbp
    e0e0:	48 89 e5             	mov    %rsp,%rbp
    e0e3:	48 89 7d f8          	mov    %rdi,-0x8(%rbp)
    e0e7:	89 75 f4             	mov    %esi,-0xc(%rbp)
    e0ea:	83 7d f4 00          	cmpl   $0x0,-0xc(%rbp)
    e0ee:	78 2f                	js     e11f <safe_lshift_func_uint64_t_u_s+0x44>
    e0f0:	83 7d f4 1f          	cmpl   $0x1f,-0xc(%rbp)
    e0f4:	7f 29                	jg     e11f <safe_lshift_func_uint64_t_u_s+0x44>
    e0f6:	8b 45 f4             	mov    -0xc(%rbp),%eax
    e0f9:	48 c7 c2 ff ff ff ff 	mov    $0xffffffffffffffff,%rdx
    e100:	89 c1                	mov    %eax,%ecx
    e102:	48 d3 ea             	shr    %cl,%rdx
    e105:	48 89 d0             	mov    %rdx,%rax
    e108:	48 39 45 f8          	cmp    %rax,-0x8(%rbp)
    e10c:	77 11                	ja     e11f <safe_lshift_func_uint64_t_u_s+0x44>
    e10e:	8b 45 f4             	mov    -0xc(%rbp),%eax
    e111:	48 8b 55 f8          	mov    -0x8(%rbp),%rdx
    e115:	89 c1                	mov    %eax,%ecx
    e117:	48 d3 e2             	shl    %cl,%rdx
    e11a:	48 89 d0             	mov    %rdx,%rax
    e11d:	eb 04                	jmp    e123 <safe_lshift_func_uint64_t_u_s+0x48>
    e11f:	48 8b 45 f8          	mov    -0x8(%rbp),%rax
    e123:	5d                   	pop    %rbp
    e124:	c3                   	retq   

000000000000e125 <safe_lshift_func_uint64_t_u_u>:
    e125:	f3 0f 1e fa          	endbr64 
    e129:	55                   	push   %rbp
    e12a:	48 89 e5             	mov    %rsp,%rbp
    e12d:	48 89 7d f8          	mov    %rdi,-0x8(%rbp)
    e131:	89 75 f4             	mov    %esi,-0xc(%rbp)
    e134:	83 7d f4 1f          	cmpl   $0x1f,-0xc(%rbp)
    e138:	77 29                	ja     e163 <safe_lshift_func_uint64_t_u_u+0x3e>
    e13a:	8b 45 f4             	mov    -0xc(%rbp),%eax
    e13d:	48 c7 c2 ff ff ff ff 	mov    $0xffffffffffffffff,%rdx
    e144:	89 c1                	mov    %eax,%ecx
    e146:	48 d3 ea             	shr    %cl,%rdx
    e149:	48 89 d0             	mov    %rdx,%rax
    e14c:	48 39 45 f8          	cmp    %rax,-0x8(%rbp)
    e150:	77 11                	ja     e163 <safe_lshift_func_uint64_t_u_u+0x3e>
    e152:	8b 45 f4             	mov    -0xc(%rbp),%eax
    e155:	48 8b 55 f8          	mov    -0x8(%rbp),%rdx
    e159:	89 c1                	mov    %eax,%ecx
    e15b:	48 d3 e2             	shl    %cl,%rdx
    e15e:	48 89 d0             	mov    %rdx,%rax
    e161:	eb 04                	jmp    e167 <safe_lshift_func_uint64_t_u_u+0x42>
    e163:	48 8b 45 f8          	mov    -0x8(%rbp),%rax
    e167:	5d                   	pop    %rbp
    e168:	c3                   	retq   

000000000000e169 <safe_rshift_func_uint64_t_u_s>:
    e169:	f3 0f 1e fa          	endbr64 
    e16d:	55                   	push   %rbp
    e16e:	48 89 e5             	mov    %rsp,%rbp
    e171:	48 89 7d f8          	mov    %rdi,-0x8(%rbp)
    e175:	89 75 f4             	mov    %esi,-0xc(%rbp)
    e178:	83 7d f4 00          	cmpl   $0x0,-0xc(%rbp)
    e17c:	78 17                	js     e195 <safe_rshift_func_uint64_t_u_s+0x2c>
    e17e:	83 7d f4 1f          	cmpl   $0x1f,-0xc(%rbp)
    e182:	7f 11                	jg     e195 <safe_rshift_func_uint64_t_u_s+0x2c>
    e184:	8b 45 f4             	mov    -0xc(%rbp),%eax
    e187:	48 8b 55 f8          	mov    -0x8(%rbp),%rdx
    e18b:	89 c1                	mov    %eax,%ecx
    e18d:	48 d3 ea             	shr    %cl,%rdx
    e190:	48 89 d0             	mov    %rdx,%rax
    e193:	eb 04                	jmp    e199 <safe_rshift_func_uint64_t_u_s+0x30>
    e195:	48 8b 45 f8          	mov    -0x8(%rbp),%rax
    e199:	5d                   	pop    %rbp
    e19a:	c3                   	retq   

000000000000e19b <safe_rshift_func_uint64_t_u_u>:
    e19b:	f3 0f 1e fa          	endbr64 
    e19f:	55                   	push   %rbp
    e1a0:	48 89 e5             	mov    %rsp,%rbp
    e1a3:	48 89 7d f8          	mov    %rdi,-0x8(%rbp)
    e1a7:	89 75 f4             	mov    %esi,-0xc(%rbp)
    e1aa:	83 7d f4 1f          	cmpl   $0x1f,-0xc(%rbp)
    e1ae:	77 11                	ja     e1c1 <safe_rshift_func_uint64_t_u_u+0x26>
    e1b0:	8b 45 f4             	mov    -0xc(%rbp),%eax
    e1b3:	48 8b 55 f8          	mov    -0x8(%rbp),%rdx
    e1b7:	89 c1                	mov    %eax,%ecx
    e1b9:	48 d3 ea             	shr    %cl,%rdx
    e1bc:	48 89 d0             	mov    %rdx,%rax
    e1bf:	eb 04                	jmp    e1c5 <safe_rshift_func_uint64_t_u_u+0x2a>
    e1c1:	48 8b 45 f8          	mov    -0x8(%rbp),%rax
    e1c5:	5d                   	pop    %rbp
    e1c6:	c3                   	retq   

000000000000e1c7 <safe_add_func_float_f_f>:
    e1c7:	f3 0f 1e fa          	endbr64 
    e1cb:	55                   	push   %rbp
    e1cc:	48 89 e5             	mov    %rsp,%rbp
    e1cf:	f3 0f 11 45 fc       	movss  %xmm0,-0x4(%rbp)
    e1d4:	f3 0f 11 4d f8       	movss  %xmm1,-0x8(%rbp)
    e1d9:	f3 0f 10 4d fc       	movss  -0x4(%rbp),%xmm1
    e1de:	f3 0f 10 05 52 5c 01 	movss  0x15c52(%rip),%xmm0        # 23e38 <l_760.5449+0x18>
    e1e5:	00 
    e1e6:	f3 0f 59 c8          	mulss  %xmm0,%xmm1
    e1ea:	f3 0f 10 55 f8       	movss  -0x8(%rbp),%xmm2
    e1ef:	f3 0f 10 05 41 5c 01 	movss  0x15c41(%rip),%xmm0        # 23e38 <l_760.5449+0x18>
    e1f6:	00 
    e1f7:	f3 0f 59 c2          	mulss  %xmm2,%xmm0
    e1fb:	f3 0f 58 c1          	addss  %xmm1,%xmm0
    e1ff:	f3 0f 10 0d 39 5c 01 	movss  0x15c39(%rip),%xmm1        # 23e40 <l_760.5449+0x20>
    e206:	00 
    e207:	0f 54 c1             	andps  %xmm1,%xmm0
    e20a:	0f 2f 05 3f 5c 01 00 	comiss 0x15c3f(%rip),%xmm0        # 23e50 <l_760.5449+0x30>
    e211:	76 07                	jbe    e21a <safe_add_func_float_f_f+0x53>
    e213:	f3 0f 10 45 fc       	movss  -0x4(%rbp),%xmm0
    e218:	eb 0a                	jmp    e224 <safe_add_func_float_f_f+0x5d>
    e21a:	f3 0f 10 45 fc       	movss  -0x4(%rbp),%xmm0
    e21f:	f3 0f 58 45 f8       	addss  -0x8(%rbp),%xmm0
    e224:	5d                   	pop    %rbp
    e225:	c3                   	retq   

000000000000e226 <safe_sub_func_float_f_f>:
    e226:	f3 0f 1e fa          	endbr64 
    e22a:	55                   	push   %rbp
    e22b:	48 89 e5             	mov    %rsp,%rbp
    e22e:	f3 0f 11 45 fc       	movss  %xmm0,-0x4(%rbp)
    e233:	f3 0f 11 4d f8       	movss  %xmm1,-0x8(%rbp)
    e238:	f3 0f 10 4d fc       	movss  -0x4(%rbp),%xmm1
    e23d:	f3 0f 10 05 f3 5b 01 	movss  0x15bf3(%rip),%xmm0        # 23e38 <l_760.5449+0x18>
    e244:	00 
    e245:	f3 0f 59 c1          	mulss  %xmm1,%xmm0
    e249:	f3 0f 10 55 f8       	movss  -0x8(%rbp),%xmm2
    e24e:	f3 0f 10 0d e2 5b 01 	movss  0x15be2(%rip),%xmm1        # 23e38 <l_760.5449+0x18>
    e255:	00 
    e256:	f3 0f 59 ca          	mulss  %xmm2,%xmm1
    e25a:	f3 0f 5c c1          	subss  %xmm1,%xmm0
    e25e:	f3 0f 10 0d da 5b 01 	movss  0x15bda(%rip),%xmm1        # 23e40 <l_760.5449+0x20>
    e265:	00 
    e266:	0f 54 c1             	andps  %xmm1,%xmm0
    e269:	0f 2f 05 e0 5b 01 00 	comiss 0x15be0(%rip),%xmm0        # 23e50 <l_760.5449+0x30>
    e270:	76 07                	jbe    e279 <safe_sub_func_float_f_f+0x53>
    e272:	f3 0f 10 45 fc       	movss  -0x4(%rbp),%xmm0
    e277:	eb 0a                	jmp    e283 <safe_sub_func_float_f_f+0x5d>
    e279:	f3 0f 10 45 fc       	movss  -0x4(%rbp),%xmm0
    e27e:	f3 0f 5c 45 f8       	subss  -0x8(%rbp),%xmm0
    e283:	5d                   	pop    %rbp
    e284:	c3                   	retq   

000000000000e285 <safe_mul_func_float_f_f>:
    e285:	f3 0f 1e fa          	endbr64 
    e289:	55                   	push   %rbp
    e28a:	48 89 e5             	mov    %rsp,%rbp
    e28d:	f3 0f 11 45 fc       	movss  %xmm0,-0x4(%rbp)
    e292:	f3 0f 11 4d f8       	movss  %xmm1,-0x8(%rbp)
    e297:	f3 0f 10 4d fc       	movss  -0x4(%rbp),%xmm1
    e29c:	f3 0f 10 05 b0 5b 01 	movss  0x15bb0(%rip),%xmm0        # 23e54 <l_760.5449+0x34>
    e2a3:	00 
    e2a4:	f3 0f 59 c8          	mulss  %xmm0,%xmm1
    e2a8:	f3 0f 10 55 f8       	movss  -0x8(%rbp),%xmm2
    e2ad:	f3 0f 10 05 a3 5b 01 	movss  0x15ba3(%rip),%xmm0        # 23e58 <l_760.5449+0x38>
    e2b4:	00 
    e2b5:	f3 0f 59 c2          	mulss  %xmm2,%xmm0
    e2b9:	f3 0f 59 c1          	mulss  %xmm1,%xmm0
    e2bd:	f3 0f 10 0d 7b 5b 01 	movss  0x15b7b(%rip),%xmm1        # 23e40 <l_760.5449+0x20>
    e2c4:	00 
    e2c5:	0f 54 c1             	andps  %xmm1,%xmm0
    e2c8:	0f 2f 05 8d 5b 01 00 	comiss 0x15b8d(%rip),%xmm0        # 23e5c <l_760.5449+0x3c>
    e2cf:	76 07                	jbe    e2d8 <safe_mul_func_float_f_f+0x53>
    e2d1:	f3 0f 10 45 fc       	movss  -0x4(%rbp),%xmm0
    e2d6:	eb 0a                	jmp    e2e2 <safe_mul_func_float_f_f+0x5d>
    e2d8:	f3 0f 10 45 fc       	movss  -0x4(%rbp),%xmm0
    e2dd:	f3 0f 59 45 f8       	mulss  -0x8(%rbp),%xmm0
    e2e2:	5d                   	pop    %rbp
    e2e3:	c3                   	retq   

000000000000e2e4 <safe_div_func_float_f_f>:
    e2e4:	f3 0f 1e fa          	endbr64 
    e2e8:	55                   	push   %rbp
    e2e9:	48 89 e5             	mov    %rsp,%rbp
    e2ec:	f3 0f 11 45 fc       	movss  %xmm0,-0x4(%rbp)
    e2f1:	f3 0f 11 4d f8       	movss  %xmm1,-0x8(%rbp)
    e2f6:	f3 0f 10 45 f8       	movss  -0x8(%rbp),%xmm0
    e2fb:	f3 0f 10 0d 3d 5b 01 	movss  0x15b3d(%rip),%xmm1        # 23e40 <l_760.5449+0x20>
    e302:	00 
    e303:	0f 54 c8             	andps  %xmm0,%xmm1
    e306:	f3 0f 10 05 52 5b 01 	movss  0x15b52(%rip),%xmm0        # 23e60 <l_760.5449+0x40>
    e30d:	00 
    e30e:	0f 2f c1             	comiss %xmm1,%xmm0
    e311:	0f 97 c0             	seta   %al
    e314:	83 f0 01             	xor    $0x1,%eax
    e317:	84 c0                	test   %al,%al
    e319:	75 56                	jne    e371 <safe_div_func_float_f_f+0x8d>
    e31b:	66 0f ef c0          	pxor   %xmm0,%xmm0
    e31f:	0f 2e 45 f8          	ucomiss -0x8(%rbp),%xmm0
    e323:	7a 0a                	jp     e32f <safe_div_func_float_f_f+0x4b>
    e325:	66 0f ef c0          	pxor   %xmm0,%xmm0
    e329:	0f 2e 45 f8          	ucomiss -0x8(%rbp),%xmm0
    e32d:	74 4e                	je     e37d <safe_div_func_float_f_f+0x99>
    e32f:	f3 0f 10 4d fc       	movss  -0x4(%rbp),%xmm1
    e334:	f3 0f 10 05 28 5b 01 	movss  0x15b28(%rip),%xmm0        # 23e64 <l_760.5449+0x44>
    e33b:	00 
    e33c:	f3 0f 59 c1          	mulss  %xmm1,%xmm0
    e340:	f3 0f 10 55 f8       	movss  -0x8(%rbp),%xmm2
    e345:	f3 0f 10 0d 1b 5b 01 	movss  0x15b1b(%rip),%xmm1        # 23e68 <l_760.5449+0x48>
    e34c:	00 
    e34d:	f3 0f 59 ca          	mulss  %xmm2,%xmm1
    e351:	f3 0f 5e c1          	divss  %xmm1,%xmm0
    e355:	f3 0f 10 0d e3 5a 01 	movss  0x15ae3(%rip),%xmm1        # 23e40 <l_760.5449+0x20>
    e35c:	00 
    e35d:	0f 54 c1             	andps  %xmm1,%xmm0
    e360:	0f 2f 05 05 5b 01 00 	comiss 0x15b05(%rip),%xmm0        # 23e6c <l_760.5449+0x4c>
    e367:	0f 97 c0             	seta   %al
    e36a:	83 f0 01             	xor    $0x1,%eax
    e36d:	84 c0                	test   %al,%al
    e36f:	74 0c                	je     e37d <safe_div_func_float_f_f+0x99>
    e371:	f3 0f 10 45 fc       	movss  -0x4(%rbp),%xmm0
    e376:	f3 0f 5e 45 f8       	divss  -0x8(%rbp),%xmm0
    e37b:	eb 05                	jmp    e382 <safe_div_func_float_f_f+0x9e>
    e37d:	f3 0f 10 45 fc       	movss  -0x4(%rbp),%xmm0
    e382:	5d                   	pop    %rbp
    e383:	c3                   	retq   

000000000000e384 <safe_add_func_double_f_f>:
    e384:	f3 0f 1e fa          	endbr64 
    e388:	55                   	push   %rbp
    e389:	48 89 e5             	mov    %rsp,%rbp
    e38c:	f2 0f 11 45 f8       	movsd  %xmm0,-0x8(%rbp)
    e391:	f2 0f 11 4d f0       	movsd  %xmm1,-0x10(%rbp)
    e396:	f2 0f 10 4d f8       	movsd  -0x8(%rbp),%xmm1
    e39b:	f2 0f 10 05 cd 5a 01 	movsd  0x15acd(%rip),%xmm0        # 23e70 <l_760.5449+0x50>
    e3a2:	00 
    e3a3:	f2 0f 59 c8          	mulsd  %xmm0,%xmm1
    e3a7:	f2 0f 10 55 f0       	movsd  -0x10(%rbp),%xmm2
    e3ac:	f2 0f 10 05 bc 5a 01 	movsd  0x15abc(%rip),%xmm0        # 23e70 <l_760.5449+0x50>
    e3b3:	00 
    e3b4:	f2 0f 59 c2          	mulsd  %xmm2,%xmm0
    e3b8:	f2 0f 58 c1          	addsd  %xmm1,%xmm0
    e3bc:	f3 0f 7e 0d bc 5a 01 	movq   0x15abc(%rip),%xmm1        # 23e80 <l_760.5449+0x60>
    e3c3:	00 
    e3c4:	66 0f 54 c1          	andpd  %xmm1,%xmm0
    e3c8:	66 0f 2f 05 c0 5a 01 	comisd 0x15ac0(%rip),%xmm0        # 23e90 <l_760.5449+0x70>
    e3cf:	00 
    e3d0:	76 07                	jbe    e3d9 <safe_add_func_double_f_f+0x55>
    e3d2:	f2 0f 10 45 f8       	movsd  -0x8(%rbp),%xmm0
    e3d7:	eb 0a                	jmp    e3e3 <safe_add_func_double_f_f+0x5f>
    e3d9:	f2 0f 10 45 f8       	movsd  -0x8(%rbp),%xmm0
    e3de:	f2 0f 58 45 f0       	addsd  -0x10(%rbp),%xmm0
    e3e3:	5d                   	pop    %rbp
    e3e4:	c3                   	retq   

000000000000e3e5 <safe_sub_func_double_f_f>:
    e3e5:	f3 0f 1e fa          	endbr64 
    e3e9:	55                   	push   %rbp
    e3ea:	48 89 e5             	mov    %rsp,%rbp
    e3ed:	f2 0f 11 45 f8       	movsd  %xmm0,-0x8(%rbp)
    e3f2:	f2 0f 11 4d f0       	movsd  %xmm1,-0x10(%rbp)
    e3f7:	f2 0f 10 4d f8       	movsd  -0x8(%rbp),%xmm1
    e3fc:	f2 0f 10 05 6c 5a 01 	movsd  0x15a6c(%rip),%xmm0        # 23e70 <l_760.5449+0x50>
    e403:	00 
    e404:	f2 0f 59 c1          	mulsd  %xmm1,%xmm0
    e408:	f2 0f 10 55 f0       	movsd  -0x10(%rbp),%xmm2
    e40d:	f2 0f 10 0d 5b 5a 01 	movsd  0x15a5b(%rip),%xmm1        # 23e70 <l_760.5449+0x50>
    e414:	00 
    e415:	f2 0f 59 ca          	mulsd  %xmm2,%xmm1
    e419:	f2 0f 5c c1          	subsd  %xmm1,%xmm0
    e41d:	f3 0f 7e 0d 5b 5a 01 	movq   0x15a5b(%rip),%xmm1        # 23e80 <l_760.5449+0x60>
    e424:	00 
    e425:	66 0f 54 c1          	andpd  %xmm1,%xmm0
    e429:	66 0f 2f 05 5f 5a 01 	comisd 0x15a5f(%rip),%xmm0        # 23e90 <l_760.5449+0x70>
    e430:	00 
    e431:	76 07                	jbe    e43a <safe_sub_func_double_f_f+0x55>
    e433:	f2 0f 10 45 f8       	movsd  -0x8(%rbp),%xmm0
    e438:	eb 0a                	jmp    e444 <safe_sub_func_double_f_f+0x5f>
    e43a:	f2 0f 10 45 f8       	movsd  -0x8(%rbp),%xmm0
    e43f:	f2 0f 5c 45 f0       	subsd  -0x10(%rbp),%xmm0
    e444:	5d                   	pop    %rbp
    e445:	c3                   	retq   

000000000000e446 <safe_mul_func_double_f_f>:
    e446:	f3 0f 1e fa          	endbr64 
    e44a:	55                   	push   %rbp
    e44b:	48 89 e5             	mov    %rsp,%rbp
    e44e:	f2 0f 11 45 f8       	movsd  %xmm0,-0x8(%rbp)
    e453:	f2 0f 11 4d f0       	movsd  %xmm1,-0x10(%rbp)
    e458:	f2 0f 10 4d f8       	movsd  -0x8(%rbp),%xmm1
    e45d:	f2 0f 10 05 33 5a 01 	movsd  0x15a33(%rip),%xmm0        # 23e98 <l_760.5449+0x78>
    e464:	00 
    e465:	f2 0f 59 c8          	mulsd  %xmm0,%xmm1
    e469:	f2 0f 10 55 f0       	movsd  -0x10(%rbp),%xmm2
    e46e:	f2 0f 10 05 2a 5a 01 	movsd  0x15a2a(%rip),%xmm0        # 23ea0 <l_760.5449+0x80>
    e475:	00 
    e476:	f2 0f 59 c2          	mulsd  %xmm2,%xmm0
    e47a:	f2 0f 59 c1          	mulsd  %xmm1,%xmm0
    e47e:	f3 0f 7e 0d fa 59 01 	movq   0x159fa(%rip),%xmm1        # 23e80 <l_760.5449+0x60>
    e485:	00 
    e486:	66 0f 54 c1          	andpd  %xmm1,%xmm0
    e48a:	66 0f 2f 05 16 5a 01 	comisd 0x15a16(%rip),%xmm0        # 23ea8 <l_760.5449+0x88>
    e491:	00 
    e492:	76 07                	jbe    e49b <safe_mul_func_double_f_f+0x55>
    e494:	f2 0f 10 45 f8       	movsd  -0x8(%rbp),%xmm0
    e499:	eb 0a                	jmp    e4a5 <safe_mul_func_double_f_f+0x5f>
    e49b:	f2 0f 10 45 f8       	movsd  -0x8(%rbp),%xmm0
    e4a0:	f2 0f 59 45 f0       	mulsd  -0x10(%rbp),%xmm0
    e4a5:	5d                   	pop    %rbp
    e4a6:	c3                   	retq   

000000000000e4a7 <safe_div_func_double_f_f>:
    e4a7:	f3 0f 1e fa          	endbr64 
    e4ab:	55                   	push   %rbp
    e4ac:	48 89 e5             	mov    %rsp,%rbp
    e4af:	f2 0f 11 45 f8       	movsd  %xmm0,-0x8(%rbp)
    e4b4:	f2 0f 11 4d f0       	movsd  %xmm1,-0x10(%rbp)
    e4b9:	f2 0f 10 45 f0       	movsd  -0x10(%rbp),%xmm0
    e4be:	f3 0f 7e 0d ba 59 01 	movq   0x159ba(%rip),%xmm1        # 23e80 <l_760.5449+0x60>
    e4c5:	00 
    e4c6:	66 0f 54 c8          	andpd  %xmm0,%xmm1
    e4ca:	f2 0f 10 05 de 59 01 	movsd  0x159de(%rip),%xmm0        # 23eb0 <l_760.5449+0x90>
    e4d1:	00 
    e4d2:	66 0f 2f c1          	comisd %xmm1,%xmm0
    e4d6:	0f 97 c0             	seta   %al
    e4d9:	83 f0 01             	xor    $0x1,%eax
    e4dc:	84 c0                	test   %al,%al
    e4de:	75 5a                	jne    e53a <safe_div_func_double_f_f+0x93>
    e4e0:	66 0f ef c0          	pxor   %xmm0,%xmm0
    e4e4:	66 0f 2e 45 f0       	ucomisd -0x10(%rbp),%xmm0
    e4e9:	7a 0b                	jp     e4f6 <safe_div_func_double_f_f+0x4f>
    e4eb:	66 0f ef c0          	pxor   %xmm0,%xmm0
    e4ef:	66 0f 2e 45 f0       	ucomisd -0x10(%rbp),%xmm0
    e4f4:	74 50                	je     e546 <safe_div_func_double_f_f+0x9f>
    e4f6:	f2 0f 10 4d f8       	movsd  -0x8(%rbp),%xmm1
    e4fb:	f2 0f 10 05 b5 59 01 	movsd  0x159b5(%rip),%xmm0        # 23eb8 <l_760.5449+0x98>
    e502:	00 
    e503:	f2 0f 59 c1          	mulsd  %xmm1,%xmm0
    e507:	f2 0f 10 55 f0       	movsd  -0x10(%rbp),%xmm2
    e50c:	f2 0f 10 0d ac 59 01 	movsd  0x159ac(%rip),%xmm1        # 23ec0 <l_760.5449+0xa0>
    e513:	00 
    e514:	f2 0f 59 ca          	mulsd  %xmm2,%xmm1
    e518:	f2 0f 5e c1          	divsd  %xmm1,%xmm0
    e51c:	f3 0f 7e 0d 5c 59 01 	movq   0x1595c(%rip),%xmm1        # 23e80 <l_760.5449+0x60>
    e523:	00 
    e524:	66 0f 54 c1          	andpd  %xmm1,%xmm0
    e528:	66 0f 2f 05 98 59 01 	comisd 0x15998(%rip),%xmm0        # 23ec8 <l_760.5449+0xa8>
    e52f:	00 
    e530:	0f 97 c0             	seta   %al
    e533:	83 f0 01             	xor    $0x1,%eax
    e536:	84 c0                	test   %al,%al
    e538:	74 0c                	je     e546 <safe_div_func_double_f_f+0x9f>
    e53a:	f2 0f 10 45 f8       	movsd  -0x8(%rbp),%xmm0
    e53f:	f2 0f 5e 45 f0       	divsd  -0x10(%rbp),%xmm0
    e544:	eb 05                	jmp    e54b <safe_div_func_double_f_f+0xa4>
    e546:	f2 0f 10 45 f8       	movsd  -0x8(%rbp),%xmm0
    e54b:	5d                   	pop    %rbp
    e54c:	c3                   	retq   

000000000000e54d <safe_convert_func_float_to_int32_t>:
    e54d:	f3 0f 1e fa          	endbr64 
    e551:	55                   	push   %rbp
    e552:	48 89 e5             	mov    %rsp,%rbp
    e555:	f3 0f 11 45 fc       	movss  %xmm0,-0x4(%rbp)
    e55a:	f3 0f 10 05 6e 59 01 	movss  0x1596e(%rip),%xmm0        # 23ed0 <l_760.5449+0xb0>
    e561:	00 
    e562:	0f 2f 45 fc          	comiss -0x4(%rbp),%xmm0
    e566:	0f 93 c0             	setae  %al
    e569:	83 f0 01             	xor    $0x1,%eax
    e56c:	84 c0                	test   %al,%al
    e56e:	74 21                	je     e591 <safe_convert_func_float_to_int32_t+0x44>
    e570:	f3 0f 10 45 fc       	movss  -0x4(%rbp),%xmm0
    e575:	0f 2f 05 58 59 01 00 	comiss 0x15958(%rip),%xmm0        # 23ed4 <l_760.5449+0xb4>
    e57c:	0f 93 c0             	setae  %al
    e57f:	83 f0 01             	xor    $0x1,%eax
    e582:	84 c0                	test   %al,%al
    e584:	74 0b                	je     e591 <safe_convert_func_float_to_int32_t+0x44>
    e586:	f3 0f 10 45 fc       	movss  -0x4(%rbp),%xmm0
    e58b:	f3 0f 2c c0          	cvttss2si %xmm0,%eax
    e58f:	eb 05                	jmp    e596 <safe_convert_func_float_to_int32_t+0x49>
    e591:	b8 ff ff ff 7f       	mov    $0x7fffffff,%eax
    e596:	5d                   	pop    %rbp
    e597:	c3                   	retq   

000000000000e598 <crc32_gentab>:
    e598:	f3 0f 1e fa          	endbr64 
    e59c:	55                   	push   %rbp
    e59d:	48 89 e5             	mov    %rsp,%rbp
    e5a0:	c7 45 fc 20 83 b8 ed 	movl   $0xedb88320,-0x4(%rbp)
    e5a7:	c7 45 f4 00 00 00 00 	movl   $0x0,-0xc(%rbp)
    e5ae:	eb 51                	jmp    e601 <crc32_gentab+0x69>
    e5b0:	8b 45 f4             	mov    -0xc(%rbp),%eax
    e5b3:	89 45 f0             	mov    %eax,-0x10(%rbp)
    e5b6:	c7 45 f8 08 00 00 00 	movl   $0x8,-0x8(%rbp)
    e5bd:	eb 1e                	jmp    e5dd <crc32_gentab+0x45>
    e5bf:	8b 45 f0             	mov    -0x10(%rbp),%eax
    e5c2:	83 e0 01             	and    $0x1,%eax
    e5c5:	85 c0                	test   %eax,%eax
    e5c7:	74 0d                	je     e5d6 <crc32_gentab+0x3e>
    e5c9:	8b 45 f0             	mov    -0x10(%rbp),%eax
    e5cc:	d1 e8                	shr    %eax
    e5ce:	33 45 fc             	xor    -0x4(%rbp),%eax
    e5d1:	89 45 f0             	mov    %eax,-0x10(%rbp)
    e5d4:	eb 03                	jmp    e5d9 <crc32_gentab+0x41>
    e5d6:	d1 6d f0             	shrl   -0x10(%rbp)
    e5d9:	83 6d f8 01          	subl   $0x1,-0x8(%rbp)
    e5dd:	83 7d f8 00          	cmpl   $0x0,-0x8(%rbp)
    e5e1:	7f dc                	jg     e5bf <crc32_gentab+0x27>
    e5e3:	8b 45 f4             	mov    -0xc(%rbp),%eax
    e5e6:	48 98                	cltq   
    e5e8:	48 8d 0c 85 00 00 00 	lea    0x0(,%rax,4),%rcx
    e5ef:	00 
    e5f0:	48 8d 15 a9 db 01 00 	lea    0x1dba9(%rip),%rdx        # 2c1a0 <crc32_tab>
    e5f7:	8b 45 f0             	mov    -0x10(%rbp),%eax
    e5fa:	89 04 11             	mov    %eax,(%rcx,%rdx,1)
    e5fd:	83 45 f4 01          	addl   $0x1,-0xc(%rbp)
    e601:	81 7d f4 ff 00 00 00 	cmpl   $0xff,-0xc(%rbp)
    e608:	7e a6                	jle    e5b0 <crc32_gentab+0x18>
    e60a:	90                   	nop
    e60b:	90                   	nop
    e60c:	5d                   	pop    %rbp
    e60d:	c3                   	retq   

000000000000e60e <crc32_byte>:
    e60e:	f3 0f 1e fa          	endbr64 
    e612:	55                   	push   %rbp
    e613:	48 89 e5             	mov    %rsp,%rbp
    e616:	89 f8                	mov    %edi,%eax
    e618:	88 45 fc             	mov    %al,-0x4(%rbp)
    e61b:	8b 05 ff 89 01 00    	mov    0x189ff(%rip),%eax        # 27020 <crc32_context>
    e621:	c1 e8 08             	shr    $0x8,%eax
    e624:	89 c1                	mov    %eax,%ecx
    e626:	0f b6 55 fc          	movzbl -0x4(%rbp),%edx
    e62a:	8b 05 f0 89 01 00    	mov    0x189f0(%rip),%eax        # 27020 <crc32_context>
    e630:	31 d0                	xor    %edx,%eax
    e632:	0f b6 c0             	movzbl %al,%eax
    e635:	89 c0                	mov    %eax,%eax
    e637:	48 8d 14 85 00 00 00 	lea    0x0(,%rax,4),%rdx
    e63e:	00 
    e63f:	48 8d 05 5a db 01 00 	lea    0x1db5a(%rip),%rax        # 2c1a0 <crc32_tab>
    e646:	8b 04 02             	mov    (%rdx,%rax,1),%eax
    e649:	31 c8                	xor    %ecx,%eax
    e64b:	89 05 cf 89 01 00    	mov    %eax,0x189cf(%rip)        # 27020 <crc32_context>
    e651:	90                   	nop
    e652:	5d                   	pop    %rbp
    e653:	c3                   	retq   

000000000000e654 <crc32_8bytes>:
    e654:	f3 0f 1e fa          	endbr64 
    e658:	55                   	push   %rbp
    e659:	48 89 e5             	mov    %rsp,%rbp
    e65c:	48 83 ec 08          	sub    $0x8,%rsp
    e660:	48 89 7d f8          	mov    %rdi,-0x8(%rbp)
    e664:	48 8b 45 f8          	mov    -0x8(%rbp),%rax
    e668:	0f b6 c0             	movzbl %al,%eax
    e66b:	89 c7                	mov    %eax,%edi
    e66d:	e8 9c ff ff ff       	callq  e60e <crc32_byte>
    e672:	48 8b 45 f8          	mov    -0x8(%rbp),%rax
    e676:	48 c1 e8 08          	shr    $0x8,%rax
    e67a:	0f b6 c0             	movzbl %al,%eax
    e67d:	89 c7                	mov    %eax,%edi
    e67f:	e8 8a ff ff ff       	callq  e60e <crc32_byte>
    e684:	48 8b 45 f8          	mov    -0x8(%rbp),%rax
    e688:	48 c1 e8 10          	shr    $0x10,%rax
    e68c:	0f b6 c0             	movzbl %al,%eax
    e68f:	89 c7                	mov    %eax,%edi
    e691:	e8 78 ff ff ff       	callq  e60e <crc32_byte>
    e696:	48 8b 45 f8          	mov    -0x8(%rbp),%rax
    e69a:	48 c1 e8 18          	shr    $0x18,%rax
    e69e:	0f b6 c0             	movzbl %al,%eax
    e6a1:	89 c7                	mov    %eax,%edi
    e6a3:	e8 66 ff ff ff       	callq  e60e <crc32_byte>
    e6a8:	48 8b 45 f8          	mov    -0x8(%rbp),%rax
    e6ac:	48 c1 e8 20          	shr    $0x20,%rax
    e6b0:	0f b6 c0             	movzbl %al,%eax
    e6b3:	89 c7                	mov    %eax,%edi
    e6b5:	e8 54 ff ff ff       	callq  e60e <crc32_byte>
    e6ba:	48 8b 45 f8          	mov    -0x8(%rbp),%rax
    e6be:	48 c1 e8 28          	shr    $0x28,%rax
    e6c2:	0f b6 c0             	movzbl %al,%eax
    e6c5:	89 c7                	mov    %eax,%edi
    e6c7:	e8 42 ff ff ff       	callq  e60e <crc32_byte>
    e6cc:	48 8b 45 f8          	mov    -0x8(%rbp),%rax
    e6d0:	48 c1 e8 30          	shr    $0x30,%rax
    e6d4:	0f b6 c0             	movzbl %al,%eax
    e6d7:	89 c7                	mov    %eax,%edi
    e6d9:	e8 30 ff ff ff       	callq  e60e <crc32_byte>
    e6de:	48 8b 45 f8          	mov    -0x8(%rbp),%rax
    e6e2:	48 c1 e8 38          	shr    $0x38,%rax
    e6e6:	0f b6 c0             	movzbl %al,%eax
    e6e9:	89 c7                	mov    %eax,%edi
    e6eb:	e8 1e ff ff ff       	callq  e60e <crc32_byte>
    e6f0:	90                   	nop
    e6f1:	c9                   	leaveq 
    e6f2:	c3                   	retq   

000000000000e6f3 <transparent_crc>:
    e6f3:	f3 0f 1e fa          	endbr64 
    e6f7:	55                   	push   %rbp
    e6f8:	48 89 e5             	mov    %rsp,%rbp
    e6fb:	48 83 ec 20          	sub    $0x20,%rsp
    e6ff:	48 89 7d f8          	mov    %rdi,-0x8(%rbp)
    e703:	48 89 75 f0          	mov    %rsi,-0x10(%rbp)
    e707:	89 55 ec             	mov    %edx,-0x14(%rbp)
    e70a:	48 8b 45 f8          	mov    -0x8(%rbp),%rax
    e70e:	48 89 c7             	mov    %rax,%rdi
    e711:	e8 3e ff ff ff       	callq  e654 <crc32_8bytes>
    e716:	83 7d ec 00          	cmpl   $0x0,-0x14(%rbp)
    e71a:	74 22                	je     e73e <transparent_crc+0x4b>
    e71c:	8b 05 fe 88 01 00    	mov    0x188fe(%rip),%eax        # 27020 <crc32_context>
    e722:	f7 d0                	not    %eax
    e724:	89 c2                	mov    %eax,%edx
    e726:	48 8b 45 f0          	mov    -0x10(%rbp),%rax
    e72a:	48 89 c6             	mov    %rax,%rsi
    e72d:	48 8d 3d fc 28 01 00 	lea    0x128fc(%rip),%rdi        # 21030 <_IO_stdin_used+0x30>
    e734:	b8 00 00 00 00       	mov    $0x0,%eax
    e739:	e8 42 e9 ff ff       	callq  d080 <printf@plt>
    e73e:	90                   	nop
    e73f:	c9                   	leaveq 
    e740:	c3                   	retq   

000000000000e741 <transparent_crc_bytes>:
    e741:	f3 0f 1e fa          	endbr64 
    e745:	55                   	push   %rbp
    e746:	48 89 e5             	mov    %rsp,%rbp
    e749:	48 83 ec 30          	sub    $0x30,%rsp
    e74d:	48 89 7d e8          	mov    %rdi,-0x18(%rbp)
    e751:	89 75 e4             	mov    %esi,-0x1c(%rbp)
    e754:	48 89 55 d8          	mov    %rdx,-0x28(%rbp)
    e758:	89 4d e0             	mov    %ecx,-0x20(%rbp)
    e75b:	c7 45 fc 00 00 00 00 	movl   $0x0,-0x4(%rbp)
    e762:	eb 1e                	jmp    e782 <transparent_crc_bytes+0x41>
    e764:	8b 45 fc             	mov    -0x4(%rbp),%eax
    e767:	48 63 d0             	movslq %eax,%rdx
    e76a:	48 8b 45 e8          	mov    -0x18(%rbp),%rax
    e76e:	48 01 d0             	add    %rdx,%rax
    e771:	0f b6 00             	movzbl (%rax),%eax
    e774:	0f b6 c0             	movzbl %al,%eax
    e777:	89 c7                	mov    %eax,%edi
    e779:	e8 90 fe ff ff       	callq  e60e <crc32_byte>
    e77e:	83 45 fc 01          	addl   $0x1,-0x4(%rbp)
    e782:	8b 45 fc             	mov    -0x4(%rbp),%eax
    e785:	3b 45 e4             	cmp    -0x1c(%rbp),%eax
    e788:	7c da                	jl     e764 <transparent_crc_bytes+0x23>
    e78a:	83 7d e0 00          	cmpl   $0x0,-0x20(%rbp)
    e78e:	74 22                	je     e7b2 <transparent_crc_bytes+0x71>
    e790:	8b 05 8a 88 01 00    	mov    0x1888a(%rip),%eax        # 27020 <crc32_context>
    e796:	f7 d0                	not    %eax
    e798:	89 c2                	mov    %eax,%edx
    e79a:	48 8b 45 d8          	mov    -0x28(%rbp),%rax
    e79e:	48 89 c6             	mov    %rax,%rsi
    e7a1:	48 8d 3d 88 28 01 00 	lea    0x12888(%rip),%rdi        # 21030 <_IO_stdin_used+0x30>
    e7a8:	b8 00 00 00 00       	mov    $0x0,%eax
    e7ad:	e8 ce e8 ff ff       	callq  d080 <printf@plt>
    e7b2:	90                   	nop
    e7b3:	c9                   	leaveq 
    e7b4:	c3                   	retq   

000000000000e7b5 <func_1>:
    e7b5:	f3 0f 1e fa          	endbr64 
    e7b9:	55                   	push   %rbp
    e7ba:	48 89 e5             	mov    %rsp,%rbp
    e7bd:	41 55                	push   %r13
    e7bf:	41 54                	push   %r12
    e7c1:	53                   	push   %rbx
    e7c2:	48 81 ec b8 01 00 00 	sub    $0x1b8,%rsp
    e7c9:	64 48 8b 04 25 28 00 	mov    %fs:0x28,%rax
    e7d0:	00 00 
    e7d2:	48 89 45 d8          	mov    %rax,-0x28(%rbp)
    e7d6:	31 c0                	xor    %eax,%eax
    e7d8:	c7 85 4c fe ff ff 04 	movl   $0x4,-0x1b4(%rbp)
    e7df:	00 00 00 
    e7e2:	48 c7 85 58 fe ff ff 	movq   $0x0,-0x1a8(%rbp)
    e7e9:	00 00 00 00 
    e7ed:	66 c7 85 44 fe ff ff 	movw   $0xffff,-0x1bc(%rbp)
    e7f4:	ff ff 
    e7f6:	48 8d 05 ab 88 01 00 	lea    0x188ab(%rip),%rax        # 270a8 <g_174>
    e7fd:	48 89 85 60 fe ff ff 	mov    %rax,-0x1a0(%rbp)
    e804:	48 c7 85 68 fe ff ff 	movq   $0x0,-0x198(%rbp)
    e80b:	00 00 00 00 
    e80f:	48 8d 85 c0 fe ff ff 	lea    -0x140(%rbp),%rax
    e816:	48 8d 15 03 8b 01 00 	lea    0x18b03(%rip),%rdx        # 27320 <g_4462+0x60>
    e81d:	b9 23 00 00 00       	mov    $0x23,%ecx
    e822:	48 89 c7             	mov    %rax,%rdi
    e825:	48 89 d6             	mov    %rdx,%rsi
    e828:	f3 48 a5             	rep movsq %ds:(%rsi),%es:(%rdi)
    e82b:	c7 85 50 fe ff ff 31 	movl   $0x24316731,-0x1b0(%rbp)
    e832:	67 31 24 
    e835:	c6 85 3f fe ff ff eb 	movb   $0xeb,-0x1c1(%rbp)
    e83c:	48 b8 b9 67 02 8e ca 	movabs $0x159a60ca8e0267b9,%rax
    e843:	60 9a 15 
    e846:	48 89 85 70 fe ff ff 	mov    %rax,-0x190(%rbp)
    e84d:	c6 85 40 fe ff ff f5 	movb   $0xf5,-0x1c0(%rbp)
    e854:	c6 85 41 fe ff ff 0a 	movb   $0xa,-0x1bf(%rbp)
    e85b:	66 c7 85 92 fe ff ff 	movw   $0x9211,-0x16e(%rbp)
    e862:	11 92 
    e864:	66 c7 85 94 fe ff ff 	movw   $0x5e73,-0x16c(%rbp)
    e86b:	73 5e 
    e86d:	66 c7 85 96 fe ff ff 	movw   $0x9211,-0x16a(%rbp)
    e874:	11 92 
    e876:	66 c7 85 98 fe ff ff 	movw   $0x9211,-0x168(%rbp)
    e87d:	11 92 
    e87f:	66 c7 85 9a fe ff ff 	movw   $0x5e73,-0x166(%rbp)
    e886:	73 5e 
    e888:	66 c7 85 9c fe ff ff 	movw   $0x9211,-0x164(%rbp)
    e88f:	11 92 
    e891:	66 c7 85 9e fe ff ff 	movw   $0x9211,-0x162(%rbp)
    e898:	11 92 
    e89a:	66 c7 85 46 fe ff ff 	movw   $0xffff,-0x1ba(%rbp)
    e8a1:	ff ff 
    e8a3:	48 8d 05 6e 88 01 00 	lea    0x1886e(%rip),%rax        # 27118 <g_899+0x8>
    e8aa:	48 89 85 78 fe ff ff 	mov    %rax,-0x188(%rbp)
    e8b1:	c7 85 54 fe ff ff 5e 	movl   $0x2be9fb5e,-0x1ac(%rbp)
    e8b8:	fb e9 2b 
    e8bb:	c6 85 42 fe ff ff 7e 	movb   $0x7e,-0x1be(%rbp)
    e8c2:	c7 85 48 fe ff ff 00 	movl   $0x0,-0x1b8(%rbp)
    e8c9:	00 00 00 
    e8cc:	eb 1e                	jmp    e8ec <func_1+0x137>
    e8ce:	8b 85 48 fe ff ff    	mov    -0x1b8(%rbp),%eax
    e8d4:	48 98                	cltq   
    e8d6:	48 8d 15 47 87 01 00 	lea    0x18747(%rip),%rdx        # 27024 <g_8>
    e8dd:	48 89 94 c5 a0 fe ff 	mov    %rdx,-0x160(%rbp,%rax,8)
    e8e4:	ff 
    e8e5:	83 85 48 fe ff ff 01 	addl   $0x1,-0x1b8(%rbp)
    e8ec:	83 bd 48 fe ff ff 03 	cmpl   $0x3,-0x1b8(%rbp)
    e8f3:	7e d9                	jle    e8ce <func_1+0x119>
    e8f5:	c7 85 48 fe ff ff 00 	movl   $0x0,-0x1b8(%rbp)
    e8fc:	00 00 00 
    e8ff:	eb 1a                	jmp    e91b <func_1+0x166>
    e901:	8b 85 48 fe ff ff    	mov    -0x1b8(%rbp),%eax
    e907:	48 98                	cltq   
    e909:	c7 84 85 84 fe ff ff 	movl   $0xffffffff,-0x17c(%rbp,%rax,4)
    e910:	ff ff ff ff 
    e914:	83 85 48 fe ff ff 01 	addl   $0x1,-0x1b8(%rbp)
    e91b:	83 bd 48 fe ff ff 02 	cmpl   $0x2,-0x1b8(%rbp)
    e922:	7e dd                	jle    e901 <func_1+0x14c>
    e924:	44 8b ad 4c fe ff ff 	mov    -0x1b4(%rbp),%r13d
    e92b:	4c 8b a5 a8 fe ff ff 	mov    -0x158(%rbp),%r12
    e932:	48 8b 9d a0 fe ff ff 	mov    -0x160(%rbp),%rbx
    e939:	8b 05 e5 86 01 00    	mov    0x186e5(%rip),%eax        # 27024 <g_8>
    e93f:	0f b7 c0             	movzwl %ax,%eax
    e942:	89 c7                	mov    %eax,%edi
    e944:	e8 b3 c9 00 00       	callq  1b2fc <func_22>
    e949:	89 c2                	mov    %eax,%edx
    e94b:	48 8b 85 b8 fe ff ff 	mov    -0x148(%rbp),%rax
    e952:	4c 8d 05 0b 87 01 00 	lea    0x1870b(%rip),%r8        # 27064 <g_50>
    e959:	89 d1                	mov    %edx,%ecx
    e95b:	48 8d 15 c2 86 01 00 	lea    0x186c2(%rip),%rdx        # 27024 <g_8>
    e962:	48 89 c6             	mov    %rax,%rsi
    e965:	48 8d 3d b8 86 01 00 	lea    0x186b8(%rip),%rdi        # 27024 <g_8>
    e96c:	e8 c6 8c 00 00       	callq  17637 <func_15>
    e971:	48 89 c7             	mov    %rax,%rdi
    e974:	48 8b 85 58 fe ff ff 	mov    -0x1a8(%rbp),%rax
    e97b:	4c 89 e1             	mov    %r12,%rcx
    e97e:	48 89 da             	mov    %rbx,%rdx
    e981:	48 89 c6             	mov    %rax,%rsi
    e984:	e8 4f 3b 00 00       	callq  124d8 <func_10>
    e989:	48 89 85 a8 fe ff ff 	mov    %rax,-0x158(%rbp)
    e990:	48 8b 95 a8 fe ff ff 	mov    -0x158(%rbp),%rdx
    e997:	8b 05 87 86 01 00    	mov    0x18687(%rip),%eax        # 27024 <g_8>
    e99d:	98                   	cwtl   
    e99e:	48 8b 1d bb c0 01 00 	mov    0x1c0bb(%rip),%rbx        # 2aa60 <g_462>
    e9a5:	48 8b 8d 58 fe ff ff 	mov    -0x1a8(%rbp),%rcx
    e9ac:	8b b5 4c fe ff ff    	mov    -0x1b4(%rbp),%esi
    e9b2:	45 89 e8             	mov    %r13d,%r8d
    e9b5:	89 c7                	mov    %eax,%edi
    e9b7:	e8 d3 01 00 00       	callq  eb8f <func_2>
    e9bc:	48 89 03             	mov    %rax,(%rbx)
    e9bf:	c7 05 e3 88 01 00 03 	movl   $0x3,0x188e3(%rip)        # 272ac <g_4408>
    e9c6:	00 00 00 
    e9c9:	90                   	nop
    e9ca:	8b 05 dc 88 01 00    	mov    0x188dc(%rip),%eax        # 272ac <g_4408>
    e9d0:	85 c0                	test   %eax,%eax
    e9d2:	78 13                	js     e9e7 <func_1+0x232>
    e9d4:	c6 85 43 fe ff ff 59 	movb   $0x59,-0x1bd(%rbp)
    e9db:	0f b6 85 43 fe ff ff 	movzbl -0x1bd(%rbp),%eax
    e9e2:	e9 86 01 00 00       	jmpq   eb6d <func_1+0x3b8>
    e9e7:	0f b6 05 0e 87 01 00 	movzbl 0x1870e(%rip),%eax        # 270fc <g_695>
    e9ee:	0f be d8             	movsbl %al,%ebx
    e9f1:	0f b6 05 08 88 01 00 	movzbl 0x18808(%rip),%eax        # 27200 <g_2842+0x60>
    e9f8:	44 0f b6 e0          	movzbl %al,%r12d
    e9fc:	44 0f b7 ad 46 fe ff 	movzwl -0x1ba(%rbp),%r13d
    ea03:	ff 
    ea04:	48 8b 05 35 c1 01 00 	mov    0x1c135(%rip),%rax        # 2ab40 <g_2467>
    ea0b:	0f b6 00             	movzbl (%rax),%eax
    ea0e:	84 c0                	test   %al,%al
    ea10:	75 5a                	jne    ea6c <func_1+0x2b7>
    ea12:	0f b6 95 40 fe ff ff 	movzbl -0x1c0(%rbp),%edx
    ea19:	48 8b 05 80 86 01 00 	mov    0x18680(%rip),%rax        # 270a0 <g_150>
    ea20:	48 39 c2             	cmp    %rax,%rdx
    ea23:	0f 93 c0             	setae  %al
    ea26:	0f b6 d0             	movzbl %al,%edx
    ea29:	48 8b 85 70 fe ff ff 	mov    -0x190(%rbp),%rax
    ea30:	48 8d 48 01          	lea    0x1(%rax),%rcx
    ea34:	48 89 8d 70 fe ff ff 	mov    %rcx,-0x190(%rbp)
    ea3b:	0f b6 c0             	movzbl %al,%eax
    ea3e:	89 d6                	mov    %edx,%esi
    ea40:	89 c7                	mov    %eax,%edi
    ea42:	e8 05 f2 ff ff       	callq  dc4c <safe_lshift_func_uint8_t_u_u>
    ea47:	48 8b 05 f2 c0 01 00 	mov    0x1c0f2(%rip),%rax        # 2ab40 <g_2467>
    ea4e:	0f b6 00             	movzbl (%rax),%eax
    ea51:	38 85 41 fe ff ff    	cmp    %al,-0x1bf(%rbp)
    ea57:	0f 94 c0             	sete   %al
    ea5a:	f7 d0                	not    %eax
    ea5c:	89 c2                	mov    %eax,%edx
    ea5e:	48 8b 05 db c0 01 00 	mov    0x1c0db(%rip),%rax        # 2ab40 <g_2467>
    ea65:	88 10                	mov    %dl,(%rax)
    ea67:	0f b6 00             	movzbl (%rax),%eax
    ea6a:	84 c0                	test   %al,%al
    ea6c:	48 8b 05 f5 d6 01 00 	mov    0x1d6f5(%rip),%rax        # 2c168 <g_4469>
    ea73:	48 8d 15 6e de 01 00 	lea    0x1de6e(%rip),%rdx        # 2c8e8 <g_4076>
    ea7a:	48 39 d0             	cmp    %rdx,%rax
    ea7d:	0f 94 c0             	sete   %al
    ea80:	0f b6 d0             	movzbl %al,%edx
    ea83:	b8 a5 ca ff ff       	mov    $0xffffcaa5,%eax
    ea88:	98                   	cwtl   
    ea89:	39 c2                	cmp    %eax,%edx
    ea8b:	8b 85 8c fe ff ff    	mov    -0x174(%rbp),%eax
    ea91:	0f be c0             	movsbl %al,%eax
    ea94:	be 04 00 00 00       	mov    $0x4,%esi
    ea99:	89 c7                	mov    %eax,%edi
    ea9b:	e8 01 e8 ff ff       	callq  d2a1 <safe_lshift_func_int8_t_s_s>
    eaa0:	0f b7 85 44 fe ff ff 	movzwl -0x1bc(%rbp),%eax
    eaa7:	0f b7 c0             	movzwl %ax,%eax
    eaaa:	be 08 00 00 00       	mov    $0x8,%esi
    eaaf:	89 c7                	mov    %eax,%edi
    eab1:	e8 08 f3 ff ff       	callq  ddbe <safe_lshift_func_uint16_t_u_s>
    eab6:	98                   	cwtl   
    eab7:	be b1 d0 ff ff       	mov    $0xffffd0b1,%esi
    eabc:	89 c7                	mov    %eax,%edi
    eabe:	e8 10 e9 ff ff       	callq  d3d3 <safe_sub_func_int16_t_s_s>
    eac3:	48 8b 95 60 fe ff ff 	mov    -0x1a0(%rbp),%rdx
    eaca:	0f b7 12             	movzwl (%rdx),%edx
    eacd:	21 c2                	and    %eax,%edx
    eacf:	48 8b 85 60 fe ff ff 	mov    -0x1a0(%rbp),%rax
    ead6:	66 89 10             	mov    %dx,(%rax)
    ead9:	48 8b 85 60 fe ff ff 	mov    -0x1a0(%rbp),%rax
    eae0:	0f b7 00             	movzwl (%rax),%eax
    eae3:	98                   	cwtl   
    eae4:	be 08 00 00 00       	mov    $0x8,%esi
    eae9:	89 c7                	mov    %eax,%edi
    eaeb:	e8 a2 e9 ff ff       	callq  d492 <safe_lshift_func_int16_t_s_s>
    eaf0:	98                   	cwtl   
    eaf1:	89 85 50 fe ff ff    	mov    %eax,-0x1b0(%rbp)
    eaf7:	83 bd 50 fe ff ff 01 	cmpl   $0x1,-0x1b0(%rbp)
    eafe:	0f b7 85 9e fe ff ff 	movzwl -0x162(%rbp),%eax
    eb05:	48 0f bf c0          	movswq %ax,%rax
    eb09:	4c 89 ee             	mov    %r13,%rsi
    eb0c:	48 89 c7             	mov    %rax,%rdi
    eb0f:	e8 94 ed ff ff       	callq  d8a8 <safe_sub_func_int64_t_s_s>
    eb14:	ba 00 00 00 00       	mov    $0x0,%edx
    eb19:	48 8b 85 78 fe ff ff 	mov    -0x188(%rbp),%rax
    eb20:	0f b6 00             	movzbl (%rax),%eax
    eb23:	09 c2                	or     %eax,%edx
    eb25:	48 8b 85 78 fe ff ff 	mov    -0x188(%rbp),%rax
    eb2c:	88 10                	mov    %dl,(%rax)
    eb2e:	48 8b 85 78 fe ff ff 	mov    -0x188(%rbp),%rax
    eb35:	0f b6 00             	movzbl (%rax),%eax
    eb38:	0f be c0             	movsbl %al,%eax
    eb3b:	44 89 e6             	mov    %r12d,%esi
    eb3e:	89 c7                	mov    %eax,%edi
    eb40:	e8 f0 e7 ff ff       	callq  d335 <safe_rshift_func_int8_t_s_s>
    eb45:	0f be c0             	movsbl %al,%eax
    eb48:	39 85 54 fe ff ff    	cmp    %eax,-0x1ac(%rbp)
    eb4e:	0f 95 c0             	setne  %al
    eb51:	0f b6 c0             	movzbl %al,%eax
    eb54:	89 de                	mov    %ebx,%esi
    eb56:	89 c7                	mov    %eax,%edi
    eb58:	e8 0d e7 ff ff       	callq  d26a <safe_div_func_int8_t_s_s>
    eb5d:	88 85 42 fe ff ff    	mov    %al,-0x1be(%rbp)
    eb63:	48 8b 05 ee be 01 00 	mov    0x1beee(%rip),%rax        # 2aa58 <g_396>
    eb6a:	48 8b 00             	mov    (%rax),%rax
    eb6d:	48 8b 5d d8          	mov    -0x28(%rbp),%rbx
    eb71:	64 48 33 1c 25 28 00 	xor    %fs:0x28,%rbx
    eb78:	00 00 
    eb7a:	74 05                	je     eb81 <func_1+0x3cc>
    eb7c:	e8 ef e4 ff ff       	callq  d070 <__stack_chk_fail@plt>
    eb81:	48 81 c4 b8 01 00 00 	add    $0x1b8,%rsp
    eb88:	5b                   	pop    %rbx
    eb89:	41 5c                	pop    %r12
    eb8b:	41 5d                	pop    %r13
    eb8d:	5d                   	pop    %rbp
    eb8e:	c3                   	retq   

000000000000eb8f <func_2>:
    eb8f:	f3 0f 1e fa          	endbr64 
    eb93:	55                   	push   %rbp
    eb94:	48 89 e5             	mov    %rsp,%rbp
    eb97:	41 57                	push   %r15
    eb99:	41 56                	push   %r14
    eb9b:	41 55                	push   %r13
    eb9d:	41 54                	push   %r12
    eb9f:	53                   	push   %rbx
    eba0:	48 81 ec 00 10 00 00 	sub    $0x1000,%rsp
    eba7:	48 83 0c 24 00       	orq    $0x0,(%rsp)
    ebac:	48 81 ec 00 10 00 00 	sub    $0x1000,%rsp
    ebb3:	48 83 0c 24 00       	orq    $0x0,(%rsp)
    ebb8:	48 83 ec 78          	sub    $0x78,%rsp
    ebbc:	89 f8                	mov    %edi,%eax
    ebbe:	89 b5 78 df ff ff    	mov    %esi,-0x2088(%rbp)
    ebc4:	48 89 95 70 df ff ff 	mov    %rdx,-0x2090(%rbp)
    ebcb:	48 89 8d 68 df ff ff 	mov    %rcx,-0x2098(%rbp)
    ebd2:	44 89 85 64 df ff ff 	mov    %r8d,-0x209c(%rbp)
    ebd9:	66 89 85 7c df ff ff 	mov    %ax,-0x2084(%rbp)
    ebe0:	64 48 8b 04 25 28 00 	mov    %fs:0x28,%rax
    ebe7:	00 00 
    ebe9:	48 89 45 c8          	mov    %rax,-0x38(%rbp)
    ebed:	31 c0                	xor    %eax,%eax
    ebef:	48 8d 05 62 be 01 00 	lea    0x1be62(%rip),%rax        # 2aa58 <g_396>
    ebf6:	48 89 85 88 e0 ff ff 	mov    %rax,-0x1f78(%rbp)
    ebfd:	c7 85 9c df ff ff 73 	movl   $0x7a48673,-0x2064(%rbp)
    ec04:	86 a4 07 
    ec07:	c6 85 8d df ff ff 00 	movb   $0x0,-0x2073(%rbp)
    ec0e:	48 8d 05 43 be 01 00 	lea    0x1be43(%rip),%rax        # 2aa58 <g_396>
    ec15:	48 89 85 40 e0 ff ff 	mov    %rax,-0x1fc0(%rbp)
    ec1c:	48 8d 85 40 e0 ff ff 	lea    -0x1fc0(%rbp),%rax
    ec23:	48 89 85 b0 e3 ff ff 	mov    %rax,-0x1c50(%rbp)
    ec2a:	48 c7 85 b8 e3 ff ff 	movq   $0x0,-0x1c48(%rbp)
    ec31:	00 00 00 00 
    ec35:	48 8d 85 40 e0 ff ff 	lea    -0x1fc0(%rbp),%rax
    ec3c:	48 89 85 c0 e3 ff ff 	mov    %rax,-0x1c40(%rbp)
    ec43:	48 8d 85 40 e0 ff ff 	lea    -0x1fc0(%rbp),%rax
    ec4a:	48 89 85 c8 e3 ff ff 	mov    %rax,-0x1c38(%rbp)
    ec51:	48 8d 85 40 e0 ff ff 	lea    -0x1fc0(%rbp),%rax
    ec58:	48 89 85 d0 e3 ff ff 	mov    %rax,-0x1c30(%rbp)
    ec5f:	48 8d 85 40 e0 ff ff 	lea    -0x1fc0(%rbp),%rax
    ec66:	48 89 85 d8 e3 ff ff 	mov    %rax,-0x1c28(%rbp)
    ec6d:	48 c7 85 e0 e3 ff ff 	movq   $0x0,-0x1c20(%rbp)
    ec74:	00 00 00 00 
    ec78:	48 8d 85 40 e0 ff ff 	lea    -0x1fc0(%rbp),%rax
    ec7f:	48 89 85 e8 e3 ff ff 	mov    %rax,-0x1c18(%rbp)
    ec86:	48 8d 85 40 e0 ff ff 	lea    -0x1fc0(%rbp),%rax
    ec8d:	48 89 85 f0 e3 ff ff 	mov    %rax,-0x1c10(%rbp)
    ec94:	48 8d 85 40 e0 ff ff 	lea    -0x1fc0(%rbp),%rax
    ec9b:	48 89 85 f8 e3 ff ff 	mov    %rax,-0x1c08(%rbp)
    eca2:	48 8d 05 27 be 01 00 	lea    0x1be27(%rip),%rax        # 2aad0 <g_1315>
    eca9:	48 89 85 98 e0 ff ff 	mov    %rax,-0x1f68(%rbp)
    ecb0:	c7 85 a0 df ff ff e7 	movl   $0x7ccbcde7,-0x2060(%rbp)
    ecb7:	cd cb 7c 
    ecba:	c7 85 a4 df ff ff 00 	movl   $0x0,-0x205c(%rbp)
    ecc1:	00 00 00 
    ecc4:	c7 85 a0 e2 ff ff 07 	movl   $0x7,-0x1d60(%rbp)
    eccb:	00 00 00 
    ecce:	c7 85 a4 e2 ff ff 01 	movl   $0x1,-0x1d5c(%rbp)
    ecd5:	00 00 00 
    ecd8:	c7 85 a8 e2 ff ff 01 	movl   $0x1,-0x1d58(%rbp)
    ecdf:	00 00 00 
    ece2:	c7 85 ac e2 ff ff 07 	movl   $0x7,-0x1d54(%rbp)
    ece9:	00 00 00 
    ecec:	c7 85 b0 e2 ff ff 01 	movl   $0x1,-0x1d50(%rbp)
    ecf3:	00 00 00 
    ecf6:	c7 85 b4 e2 ff ff 01 	movl   $0x1,-0x1d4c(%rbp)
    ecfd:	00 00 00 
    ed00:	c7 85 b8 e2 ff ff 07 	movl   $0x7,-0x1d48(%rbp)
    ed07:	00 00 00 
    ed0a:	c7 85 bc e2 ff ff 01 	movl   $0x1,-0x1d44(%rbp)
    ed11:	00 00 00 
    ed14:	c7 85 c0 e2 ff ff 01 	movl   $0x1,-0x1d40(%rbp)
    ed1b:	00 00 00 
    ed1e:	c7 85 c4 e2 ff ff 07 	movl   $0x7,-0x1d3c(%rbp)
    ed25:	00 00 00 
    ed28:	66 c7 85 94 df ff ff 	movw   $0x30a,-0x206c(%rbp)
    ed2f:	0a 03 
    ed31:	48 8d 05 48 83 01 00 	lea    0x18348(%rip),%rax        # 27080 <g_107>
    ed38:	48 89 85 a0 e0 ff ff 	mov    %rax,-0x1f60(%rbp)
    ed3f:	48 c7 85 a8 e0 ff ff 	movq   $0x0,-0x1f58(%rbp)
    ed46:	00 00 00 00 
    ed4a:	48 8d 05 5f bd 01 00 	lea    0x1bd5f(%rip),%rax        # 2aab0 <g_1206>
    ed51:	48 89 85 b0 e0 ff ff 	mov    %rax,-0x1f50(%rbp)
    ed58:	48 8d 05 39 d9 01 00 	lea    0x1d939(%rip),%rax        # 2c698 <g_2958>
    ed5f:	48 89 85 10 e3 ff ff 	mov    %rax,-0x1cf0(%rbp)
    ed66:	48 8d 05 2b d9 01 00 	lea    0x1d92b(%rip),%rax        # 2c698 <g_2958>
    ed6d:	48 89 85 18 e3 ff ff 	mov    %rax,-0x1ce8(%rbp)
    ed74:	48 8d 05 1d d9 01 00 	lea    0x1d91d(%rip),%rax        # 2c698 <g_2958>
    ed7b:	48 89 85 20 e3 ff ff 	mov    %rax,-0x1ce0(%rbp)
    ed82:	48 8d 05 0f d9 01 00 	lea    0x1d90f(%rip),%rax        # 2c698 <g_2958>
    ed89:	48 89 85 28 e3 ff ff 	mov    %rax,-0x1cd8(%rbp)
    ed90:	48 8d 05 01 d9 01 00 	lea    0x1d901(%rip),%rax        # 2c698 <g_2958>
    ed97:	48 89 85 30 e3 ff ff 	mov    %rax,-0x1cd0(%rbp)
    ed9e:	48 8d 05 f3 d8 01 00 	lea    0x1d8f3(%rip),%rax        # 2c698 <g_2958>
    eda5:	48 89 85 38 e3 ff ff 	mov    %rax,-0x1cc8(%rbp)
    edac:	48 8d 05 e5 d8 01 00 	lea    0x1d8e5(%rip),%rax        # 2c698 <g_2958>
    edb3:	48 89 85 40 e3 ff ff 	mov    %rax,-0x1cc0(%rbp)
    edba:	48 8d 05 d7 d8 01 00 	lea    0x1d8d7(%rip),%rax        # 2c698 <g_2958>
    edc1:	48 89 85 48 e3 ff ff 	mov    %rax,-0x1cb8(%rbp)
    edc8:	48 8d 05 c9 d8 01 00 	lea    0x1d8c9(%rip),%rax        # 2c698 <g_2958>
    edcf:	48 89 85 50 e3 ff ff 	mov    %rax,-0x1cb0(%rbp)
    edd6:	48 8d 85 a0 e2 ff ff 	lea    -0x1d60(%rbp),%rax
    eddd:	48 83 c0 24          	add    $0x24,%rax
    ede1:	48 89 85 b8 e0 ff ff 	mov    %rax,-0x1f48(%rbp)
    ede8:	c7 85 f0 df ff ff 01 	movl   $0x1,-0x2010(%rbp)
    edef:	00 00 00 
    edf2:	48 8d 05 67 84 01 00 	lea    0x18467(%rip),%rax        # 27260 <g_3270>
    edf9:	48 89 85 c0 e0 ff ff 	mov    %rax,-0x1f40(%rbp)
    ee00:	c7 85 cc df ff ff 00 	movl   $0x0,-0x2034(%rbp)
    ee07:	00 00 00 
    ee0a:	eb 22                	jmp    ee2e <func_2+0x29f>
    ee0c:	8b 85 cc df ff ff    	mov    -0x2034(%rbp),%eax
    ee12:	48 98                	cltq   
    ee14:	48 8d 95 a0 e2 ff ff 	lea    -0x1d60(%rbp),%rdx
    ee1b:	48 83 c2 18          	add    $0x18,%rdx
    ee1f:	48 89 94 c5 50 e2 ff 	mov    %rdx,-0x1db0(%rbp,%rax,8)
    ee26:	ff 
    ee27:	83 85 cc df ff ff 01 	addl   $0x1,-0x2034(%rbp)
    ee2e:	83 bd cc df ff ff 02 	cmpl   $0x2,-0x2034(%rbp)
    ee35:	7e d5                	jle    ee0c <func_2+0x27d>
    ee37:	c7 05 23 83 01 00 00 	movl   $0x0,0x18323(%rip)        # 27164 <g_2001>
    ee3e:	00 00 00 
    ee41:	e9 50 36 00 00       	jmpq   12496 <func_2+0x3907>
    ee46:	48 8d 05 0b bc 01 00 	lea    0x1bc0b(%rip),%rax        # 2aa58 <g_396>
    ee4d:	48 89 85 48 e0 ff ff 	mov    %rax,-0x1fb8(%rbp)
    ee54:	c7 85 a8 df ff ff 14 	movl   $0xd2917014,-0x2058(%rbp)
    ee5b:	70 91 d2 
    ee5e:	c6 85 8e df ff ff ff 	movb   $0xff,-0x2072(%rbp)
    ee65:	48 8d 85 10 e6 ff ff 	lea    -0x19f0(%rbp),%rax
    ee6c:	48 8d 15 cd 85 01 00 	lea    0x185cd(%rip),%rdx        # 27440 <g_4462+0x180>
    ee73:	b9 78 00 00 00       	mov    $0x78,%ecx
    ee78:	48 89 c7             	mov    %rax,%rdi
    ee7b:	48 89 d6             	mov    %rdx,%rsi
    ee7e:	f3 48 a5             	rep movsq %ds:(%rsi),%es:(%rdi)
    ee81:	c7 85 ac df ff ff 00 	movl   $0x0,-0x2054(%rbp)
    ee88:	00 00 00 
    ee8b:	48 c7 85 c8 e0 ff ff 	movq   $0x0,-0x1f38(%rbp)
    ee92:	00 00 00 00 
    ee96:	48 8d 05 f3 82 01 00 	lea    0x182f3(%rip),%rax        # 27190 <g_2686>
    ee9d:	48 89 85 d0 e0 ff ff 	mov    %rax,-0x1f30(%rbp)
    eea4:	48 8d 05 fd 81 01 00 	lea    0x181fd(%rip),%rax        # 270a8 <g_174>
    eeab:	48 89 85 d8 e0 ff ff 	mov    %rax,-0x1f28(%rbp)
    eeb2:	c7 85 b0 df ff ff fd 	movl   $0xfffffffd,-0x2050(%rbp)
    eeb9:	ff ff ff 
    eebc:	c7 85 20 e2 ff ff 2a 	movl   $0xea0eaf2a,-0x1de0(%rbp)
    eec3:	af 0e ea 
    eec6:	c7 85 24 e2 ff ff 2a 	movl   $0xea0eaf2a,-0x1ddc(%rbp)
    eecd:	af 0e ea 
    eed0:	c7 85 28 e2 ff ff 2a 	movl   $0xea0eaf2a,-0x1dd8(%rbp)
    eed7:	af 0e ea 
    eeda:	c7 85 2c e2 ff ff 2a 	movl   $0xea0eaf2a,-0x1dd4(%rbp)
    eee1:	af 0e ea 
    eee4:	48 8d 05 45 d7 01 00 	lea    0x1d745(%rip),%rax        # 2c630 <g_936>
    eeeb:	48 89 85 e0 e0 ff ff 	mov    %rax,-0x1f20(%rbp)
    eef2:	48 8d 05 bb 81 01 00 	lea    0x181bb(%rip),%rax        # 270b4 <g_235>
    eef9:	48 89 85 50 e0 ff ff 	mov    %rax,-0x1fb0(%rbp)
    ef00:	c6 85 8f df ff ff 56 	movb   $0x56,-0x2071(%rbp)
    ef07:	48 8d 05 62 83 01 00 	lea    0x18362(%rip),%rax        # 27270 <g_3436>
    ef0e:	48 89 85 e8 e0 ff ff 	mov    %rax,-0x1f18(%rbp)
    ef15:	48 c7 85 f0 e0 ff ff 	movq   $0x0,-0x1f10(%rbp)
    ef1c:	00 00 00 00 
    ef20:	66 c7 85 96 df ff ff 	movw   $0xfff8,-0x206a(%rbp)
    ef27:	f8 ff 
    ef29:	48 c7 85 f8 e0 ff ff 	movq   $0xfffffffffffffffb,-0x1f08(%rbp)
    ef30:	fb ff ff ff 
    ef34:	c6 85 90 df ff ff ff 	movb   $0xff,-0x2070(%rbp)
    ef3b:	c7 85 f4 df ff ff ff 	movl   $0xffffffff,-0x200c(%rbp)
    ef42:	ff ff ff 
    ef45:	48 8d 05 4c d7 01 00 	lea    0x1d74c(%rip),%rax        # 2c698 <g_2958>
    ef4c:	48 89 85 00 e1 ff ff 	mov    %rax,-0x1f00(%rbp)
    ef53:	48 c7 85 08 e1 ff ff 	movq   $0x2,-0x1ef8(%rbp)
    ef5a:	02 00 00 00 
    ef5e:	48 c7 85 10 e1 ff ff 	movq   $0x0,-0x1ef0(%rbp)
    ef65:	00 00 00 00 
    ef69:	48 c7 85 70 df ff ff 	movq   $0x0,-0x2090(%rbp)
    ef70:	00 00 00 00 
    ef74:	8b 85 9c df ff ff    	mov    -0x2064(%rbp),%eax
    ef7a:	0f b7 d8             	movzwl %ax,%ebx
    ef7d:	44 8b a5 9c df ff ff 	mov    -0x2064(%rbp),%r12d
    ef84:	44 0f b6 ad 8e df ff 	movzbl -0x2072(%rbp),%r13d
    ef8b:	ff 
    ef8c:	48 8b 85 48 e0 ff ff 	mov    -0x1fb8(%rbp),%rax
    ef93:	48 8b 00             	mov    (%rax),%rax
    ef96:	48 8b 08             	mov    (%rax),%rcx
    ef99:	8b 85 9c df ff ff    	mov    -0x2064(%rbp),%eax
    ef9f:	48 63 d0             	movslq %eax,%rdx
    efa2:	48 8b 85 48 e0 ff ff 	mov    -0x1fb8(%rbp),%rax
    efa9:	48 8b 00             	mov    (%rax),%rax
    efac:	48 31 ca             	xor    %rcx,%rdx
    efaf:	48 89 10             	mov    %rdx,(%rax)
    efb2:	48 8b 00             	mov    (%rax),%rax
    efb5:	89 c2                	mov    %eax,%edx
    efb7:	8b 85 ac df ff ff    	mov    -0x2054(%rbp),%eax
    efbd:	31 d0                	xor    %edx,%eax
    efbf:	89 85 ac df ff ff    	mov    %eax,-0x2054(%rbp)
    efc5:	8b 85 ac df ff ff    	mov    -0x2054(%rbp),%eax
    efcb:	89 85 60 df ff ff    	mov    %eax,-0x20a0(%rbp)
    efd1:	8b 85 9c df ff ff    	mov    -0x2064(%rbp),%eax
    efd7:	44 0f b7 f0          	movzwl %ax,%r14d
    efdb:	4c 0f bf bd 7c df ff 	movswq -0x2084(%rbp),%r15
    efe2:	ff 
    efe3:	0f b6 95 8e df ff ff 	movzbl -0x2072(%rbp),%edx
    efea:	83 bd 64 df ff ff 01 	cmpl   $0x1,-0x209c(%rbp)
    eff1:	0f 94 c0             	sete   %al
    eff4:	0f b6 c8             	movzbl %al,%ecx
    eff7:	0f b6 85 8e df ff ff 	movzbl -0x2072(%rbp),%eax
    effe:	31 c1                	xor    %eax,%ecx
    f000:	8b 85 9c df ff ff    	mov    -0x2064(%rbp),%eax
    f006:	31 c1                	xor    %eax,%ecx
    f008:	48 8b 85 d0 e0 ff ff 	mov    -0x1f30(%rbp),%rax
    f00f:	66 89 08             	mov    %cx,(%rax)
    f012:	48 8b 85 d0 e0 ff ff 	mov    -0x1f30(%rbp),%rax
    f019:	0f b7 00             	movzwl (%rax),%eax
    f01c:	98                   	cwtl   
    f01d:	89 d6                	mov    %edx,%esi
    f01f:	89 c7                	mov    %eax,%edi
    f021:	e8 ad e3 ff ff       	callq  d3d3 <safe_sub_func_int16_t_s_s>
    f026:	66 83 f8 07          	cmp    $0x7,%ax
    f02a:	7f 10                	jg     f03c <func_2+0x4ad>
    f02c:	83 bd 78 df ff ff 00 	cmpl   $0x0,-0x2088(%rbp)
    f033:	74 07                	je     f03c <func_2+0x4ad>
    f035:	b8 01 00 00 00       	mov    $0x1,%eax
    f03a:	eb 05                	jmp    f041 <func_2+0x4b2>
    f03c:	b8 00 00 00 00       	mov    $0x0,%eax
    f041:	3d d7 45 00 00       	cmp    $0x45d7,%eax
    f046:	0f 94 c0             	sete   %al
    f049:	0f b6 c0             	movzbl %al,%eax
    f04c:	4c 89 fe             	mov    %r15,%rsi
    f04f:	48 89 c7             	mov    %rax,%rdi
    f052:	e8 58 f0 ff ff       	callq  e0af <safe_div_func_uint64_t_u_u>
    f057:	66 0f be 85 8d df ff 	movsbw -0x2073(%rbp),%ax
    f05e:	ff 
    f05f:	0f b7 c0             	movzwl %ax,%eax
    f062:	44 89 f6             	mov    %r14d,%esi
    f065:	89 c7                	mov    %eax,%edi
    f067:	e8 22 ed ff ff       	callq  dd8e <safe_div_func_uint16_t_u_u>
    f06c:	0f b7 c0             	movzwl %ax,%eax
    f06f:	39 85 60 df ff ff    	cmp    %eax,-0x20a0(%rbp)
    f075:	0f 94 c0             	sete   %al
    f078:	0f b6 c0             	movzbl %al,%eax
    f07b:	89 c6                	mov    %eax,%esi
    f07d:	bf 01 00 00 00       	mov    $0x1,%edi
    f082:	e8 37 ed ff ff       	callq  ddbe <safe_lshift_func_uint16_t_u_s>
    f087:	98                   	cwtl   
    f088:	44 89 ee             	mov    %r13d,%esi
    f08b:	89 c7                	mov    %eax,%edi
    f08d:	e8 4f e4 ff ff       	callq  d4e1 <safe_lshift_func_int16_t_s_u>
    f092:	98                   	cwtl   
    f093:	23 85 78 df ff ff    	and    -0x2088(%rbp),%eax
    f099:	89 c2                	mov    %eax,%edx
    f09b:	0f bf 85 7c df ff ff 	movswl -0x2084(%rbp),%eax
    f0a2:	39 c2                	cmp    %eax,%edx
    f0a4:	0f 96 c0             	setbe  %al
    f0a7:	0f b6 d0             	movzbl %al,%edx
    f0aa:	0f bf 85 7c df ff ff 	movswl -0x2084(%rbp),%eax
    f0b1:	39 c2                	cmp    %eax,%edx
    f0b3:	0f 9e c0             	setle  %al
    f0b6:	0f b6 d0             	movzbl %al,%edx
    f0b9:	48 8b 85 d8 e0 ff ff 	mov    -0x1f28(%rbp),%rax
    f0c0:	66 89 10             	mov    %dx,(%rax)
    f0c3:	48 8b 85 d8 e0 ff ff 	mov    -0x1f28(%rbp),%rax
    f0ca:	0f b7 00             	movzwl (%rax),%eax
    f0cd:	98                   	cwtl   
    f0ce:	be 01 00 00 00       	mov    $0x1,%esi
    f0d3:	89 c7                	mov    %eax,%edi
    f0d5:	e8 7b e3 ff ff       	callq  d455 <safe_div_func_int16_t_s_s>
    f0da:	8b 85 9c df ff ff    	mov    -0x2064(%rbp),%eax
    f0e0:	44 89 e6             	mov    %r12d,%esi
    f0e3:	89 c7                	mov    %eax,%edi
    f0e5:	e8 e2 e5 ff ff       	callq  d6cc <safe_mod_func_int32_t_s_s>
    f0ea:	0f b6 95 8e df ff ff 	movzbl -0x2072(%rbp),%edx
    f0f1:	0f be 8d 8d df ff ff 	movsbl -0x2073(%rbp),%ecx
    f0f8:	8b 85 ac df ff ff    	mov    -0x2054(%rbp),%eax
    f0fe:	39 c1                	cmp    %eax,%ecx
    f100:	0f 9c c0             	setl   %al
    f103:	0f b6 c0             	movzbl %al,%eax
    f106:	39 c2                	cmp    %eax,%edx
    f108:	0f 9d c0             	setge  %al
    f10b:	0f b6 c0             	movzbl %al,%eax
    f10e:	89 de                	mov    %ebx,%esi
    f110:	89 c7                	mov    %eax,%edi
    f112:	e8 26 ec ff ff       	callq  dd3d <safe_mul_func_uint16_t_u_u>
    f117:	48 8b 95 e8 e3 ff ff 	mov    -0x1c18(%rbp),%rdx
    f11e:	48 8d 85 48 e0 ff ff 	lea    -0x1fb8(%rbp),%rax
    f125:	48 39 c2             	cmp    %rax,%rdx
    f128:	0f 94 c0             	sete   %al
    f12b:	0f b6 d0             	movzbl %al,%edx
    f12e:	8b 85 b0 df ff ff    	mov    -0x2050(%rbp),%eax
    f134:	21 d0                	and    %edx,%eax
    f136:	89 85 b0 df ff ff    	mov    %eax,-0x2050(%rbp)
    f13c:	48 8b 85 48 e0 ff ff 	mov    -0x1fb8(%rbp),%rax
    f143:	48 39 85 88 e0 ff ff 	cmp    %rax,-0x1f78(%rbp)
    f14a:	0f 95 c0             	setne  %al
    f14d:	0f b6 c0             	movzbl %al,%eax
    f150:	89 85 a8 df ff ff    	mov    %eax,-0x2058(%rbp)
    f156:	8b 85 a8 df ff ff    	mov    -0x2058(%rbp),%eax
    f15c:	83 e0 01             	and    $0x1,%eax
    f15f:	89 c2                	mov    %eax,%edx
    f161:	0f bf 85 7c df ff ff 	movswl -0x2084(%rbp),%eax
    f168:	39 c2                	cmp    %eax,%edx
    f16a:	0f 8f 6e 08 00 00    	jg     f9de <func_2+0xe4f>
    f170:	c7 45 c1 6f 6f 6f 6f 	movl   $0x6f6f6f6f,-0x3f(%rbp)
    f177:	66 c7 45 c5 6f 6f    	movw   $0x6f6f,-0x3b(%rbp)
    f17d:	c6 45 c7 6f          	movb   $0x6f,-0x39(%rbp)
    f181:	48 c7 85 e8 e1 ff ff 	movq   $0xfffffffffffffffb,-0x1e18(%rbp)
    f188:	fb ff ff ff 
    f18c:	48 8d 85 90 f0 ff ff 	lea    -0xf70(%rbp),%rax
    f193:	48 8d 15 e6 1e 01 00 	lea    0x11ee6(%rip),%rdx        # 21080 <g_4473+0x10>
    f19a:	b9 4b 00 00 00       	mov    $0x4b,%ecx
    f19f:	48 89 c7             	mov    %rax,%rdi
    f1a2:	48 89 d6             	mov    %rdx,%rsi
    f1a5:	f3 48 a5             	rep movsq %ds:(%rsi),%es:(%rdi)
    f1a8:	c7 85 24 e0 ff ff ff 	movl   $0xffffffff,-0x1fdc(%rbp)
    f1af:	ff ff ff 
    f1b2:	c7 85 50 e4 ff ff ff 	movl   $0xffffffff,-0x1bb0(%rbp)
    f1b9:	ff ff ff 
    f1bc:	c7 85 54 e4 ff ff ff 	movl   $0xffffffff,-0x1bac(%rbp)
    f1c3:	ff ff ff 
    f1c6:	c7 85 58 e4 ff ff ff 	movl   $0xffffffff,-0x1ba8(%rbp)
    f1cd:	ff ff ff 
    f1d0:	c7 85 5c e4 ff ff ff 	movl   $0xffffffff,-0x1ba4(%rbp)
    f1d7:	ff ff ff 
    f1da:	c7 85 60 e4 ff ff ff 	movl   $0xffffffff,-0x1ba0(%rbp)
    f1e1:	ff ff ff 
    f1e4:	48 8d 05 0b 7f 01 00 	lea    0x17f0b(%rip),%rax        # 270f6 <g_620>
    f1eb:	48 89 85 f0 e1 ff ff 	mov    %rax,-0x1e10(%rbp)
    f1f2:	48 8d 05 ef 7e 01 00 	lea    0x17eef(%rip),%rax        # 270e8 <g_423>
    f1f9:	48 89 85 f8 e1 ff ff 	mov    %rax,-0x1e08(%rbp)
    f200:	48 b8 69 85 ed 5d eb 	movabs $0x5efc1eb5ded8569,%rax
    f207:	c1 ef 05 
    f20a:	48 89 85 90 e0 ff ff 	mov    %rax,-0x1f70(%rbp)
    f211:	48 8d 05 f8 bd 01 00 	lea    0x1bdf8(%rip),%rax        # 2b010 <g_3090>
    f218:	48 89 85 00 e2 ff ff 	mov    %rax,-0x1e00(%rbp)
    f21f:	48 8d 05 32 b8 01 00 	lea    0x1b832(%rip),%rax        # 2aa58 <g_396>
    f226:	48 89 85 08 e2 ff ff 	mov    %rax,-0x1df8(%rbp)
    f22d:	c7 05 2d 80 01 00 00 	movl   $0x0,0x1802d(%rip)        # 27264 <g_3271>
    f234:	00 00 00 
    f237:	e9 86 06 00 00       	jmpq   f8c2 <func_2+0xd33>
    f23c:	48 8d 85 10 f8 ff ff 	lea    -0x7f0(%rbp),%rax
    f243:	48 8d 15 b6 85 01 00 	lea    0x185b6(%rip),%rdx        # 27800 <g_4462+0x540>
    f24a:	b9 f5 00 00 00       	mov    $0xf5,%ecx
    f24f:	48 89 c7             	mov    %rax,%rdi
    f252:	48 89 d6             	mov    %rdx,%rsi
    f255:	f3 48 a5             	rep movsq %ds:(%rsi),%es:(%rdi)
    f258:	c7 85 d0 df ff ff 00 	movl   $0x0,-0x2030(%rbp)
    f25f:	00 00 00 
    f262:	eb 1e                	jmp    f282 <func_2+0x6f3>
    f264:	8b 85 d0 df ff ff    	mov    -0x2030(%rbp),%eax
    f26a:	48 98                	cltq   
    f26c:	48 8d 15 ed 7d 01 00 	lea    0x17ded(%rip),%rdx        # 27060 <g_25+0x20>
    f273:	48 89 94 c5 10 e5 ff 	mov    %rdx,-0x1af0(%rbp,%rax,8)
    f27a:	ff 
    f27b:	83 85 d0 df ff ff 01 	addl   $0x1,-0x2030(%rbp)
    f282:	83 bd d0 df ff ff 02 	cmpl   $0x2,-0x2030(%rbp)
    f289:	7e d9                	jle    f264 <func_2+0x6d5>
    f28b:	66 c7 85 7c df ff ff 	movw   $0x8,-0x2084(%rbp)
    f292:	08 00 
    f294:	e9 c7 04 00 00       	jmpq   f760 <func_2+0xbd1>
    f299:	c7 85 34 e0 ff ff f8 	movl   $0xfffffff8,-0x1fcc(%rbp)
    f2a0:	ff ff ff 
    f2a3:	c7 85 38 e0 ff ff 09 	movl   $0x9,-0x1fc8(%rbp)
    f2aa:	00 00 00 
    f2ad:	c7 85 d4 df ff ff 3e 	movl   $0x31c90b3e,-0x202c(%rbp)
    f2b4:	0b c9 31 
    f2b7:	c7 05 4b 7e 01 00 00 	movl   $0x0,0x17e4b(%rip)        # 2710c <g_818>
    f2be:	00 00 00 
    f2c1:	eb 39                	jmp    f2fc <func_2+0x76d>
    f2c3:	c6 85 93 df ff ff 65 	movb   $0x65,-0x206d(%rbp)
    f2ca:	0f bf 95 7c df ff ff 	movswl -0x2084(%rbp),%edx
    f2d1:	0f b6 85 93 df ff ff 	movzbl -0x206d(%rbp),%eax
    f2d8:	48 63 d2             	movslq %edx,%rdx
    f2db:	48 8d 0c 95 00 00 00 	lea    0x0(,%rdx,4),%rcx
    f2e2:	00 
    f2e3:	48 8d 15 56 7d 01 00 	lea    0x17d56(%rip),%rdx        # 27040 <g_25>
    f2ea:	89 04 11             	mov    %eax,(%rcx,%rdx,1)
    f2ed:	8b 05 19 7e 01 00    	mov    0x17e19(%rip),%eax        # 2710c <g_818>
    f2f3:	83 c0 01             	add    $0x1,%eax
    f2f6:	89 05 10 7e 01 00    	mov    %eax,0x17e10(%rip)        # 2710c <g_818>
    f2fc:	8b 05 0a 7e 01 00    	mov    0x17e0a(%rip),%eax        # 2710c <g_818>
    f302:	83 f8 08             	cmp    $0x8,%eax
    f305:	76 bc                	jbe    f2c3 <func_2+0x734>
    f307:	c7 05 8b 7f 01 00 00 	movl   $0x0,0x17f8b(%rip)        # 2729c <g_3777>
    f30e:	00 00 00 
    f311:	eb 19                	jmp    f32c <func_2+0x79d>
    f313:	66 83 bd 7c df ff ff 	cmpw   $0x0,-0x2084(%rbp)
    f31a:	00 
    f31b:	75 1b                	jne    f338 <func_2+0x7a9>
    f31d:	8b 05 79 7f 01 00    	mov    0x17f79(%rip),%eax        # 2729c <g_3777>
    f323:	83 e8 01             	sub    $0x1,%eax
    f326:	89 05 70 7f 01 00    	mov    %eax,0x17f70(%rip)        # 2729c <g_3777>
    f32c:	8b 05 6a 7f 01 00    	mov    0x17f6a(%rip),%eax        # 2729c <g_3777>
    f332:	85 c0                	test   %eax,%eax
    f334:	79 dd                	jns    f313 <func_2+0x784>
    f336:	eb 01                	jmp    f339 <func_2+0x7aa>
    f338:	90                   	nop
    f339:	c7 05 ad 7d 01 00 00 	movl   $0x0,0x17dad(%rip)        # 270f0 <g_515>
    f340:	00 00 00 
    f343:	e9 7d 03 00 00       	jmpq   f6c5 <func_2+0xb36>
    f348:	48 b8 35 e7 1e ff 00 	movabs $0x35019300ff1ee735,%rax
    f34f:	93 01 35 
    f352:	48 89 85 d0 e9 ff ff 	mov    %rax,-0x1630(%rbp)
    f359:	66 c7 85 d8 e9 ff ff 	movw   $0x400,-0x1628(%rbp)
    f360:	00 04 
    f362:	48 bb ff 00 01 00 ff 	movabs $0xff01ffff000100ff,%rbx
    f369:	ff 01 ff 
    f36c:	48 89 9d da e9 ff ff 	mov    %rbx,-0x1626(%rbp)
    f373:	66 c7 85 e2 e9 ff ff 	movw   $0xff,-0x161e(%rbp)
    f37a:	ff 00 
    f37c:	48 b9 6d e7 6d 00 04 	movabs $0x6d001e04006de76d,%rcx
    f383:	1e 00 6d 
    f386:	48 89 8d e4 e9 ff ff 	mov    %rcx,-0x161c(%rbp)
    f38d:	66 c7 85 ec e9 ff ff 	movw   $0x0,-0x1614(%rbp)
    f394:	00 00 
    f396:	48 b9 6d 74 35 ff 00 	movabs $0x6df5ff00ff35746d,%rcx
    f39d:	ff f5 6d 
    f3a0:	48 89 8d ee e9 ff ff 	mov    %rcx,-0x1612(%rbp)
    f3a7:	66 c7 85 f6 e9 ff ff 	movw   $0xe7,-0x160a(%rbp)
    f3ae:	e7 00 
    f3b0:	48 b9 ff f5 6d e7 00 	movabs $0xffe79300e76df5ff,%rcx
    f3b7:	93 e7 ff 
    f3ba:	48 89 8d f8 e9 ff ff 	mov    %rcx,-0x1608(%rbp)
    f3c1:	66 c7 85 00 ea ff ff 	movw   $0x0,-0x1600(%rbp)
    f3c8:	00 00 
    f3ca:	48 b9 35 f5 01 04 04 	movabs $0x35f501040401f535,%rcx
    f3d1:	01 f5 35 
    f3d4:	48 89 8d 02 ea ff ff 	mov    %rcx,-0x15fe(%rbp)
    f3db:	66 c7 85 0a ea ff ff 	movw   $0x0,-0x15f6(%rbp)
    f3e2:	00 00 
    f3e4:	48 b9 93 74 1e e7 ff 	movabs $0x930001ffe71e7493,%rcx
    f3eb:	01 00 93 
    f3ee:	48 89 8d 0c ea ff ff 	mov    %rcx,-0x15f4(%rbp)
    f3f5:	66 c7 85 14 ea ff ff 	movw   $0x4e7,-0x15ec(%rbp)
    f3fc:	e7 04 
    f3fe:	48 89 85 16 ea ff ff 	mov    %rax,-0x15ea(%rbp)
    f405:	66 c7 85 1e ea ff ff 	movw   $0x400,-0x15e2(%rbp)
    f40c:	00 04 
    f40e:	48 89 9d 20 ea ff ff 	mov    %rbx,-0x15e0(%rbp)
    f415:	66 c7 85 28 ea ff ff 	movw   $0xff,-0x15d8(%rbp)
    f41c:	ff 00 
    f41e:	48 b8 6d e7 6d 00 35 	movabs $0x9cfff635006de76d,%rax
    f425:	f6 ff 9c 
    f428:	48 89 85 2a ea ff ff 	mov    %rax,-0x15d6(%rbp)
    f42f:	66 c7 85 32 ea ff ff 	movw   $0x9313,-0x15ce(%rbp)
    f436:	13 93 
    f438:	48 b8 9c ac 65 01 13 	movabs $0x9c01ab130165ac9c,%rax
    f43f:	ab 01 9c 
    f442:	48 89 85 34 ea ff ff 	mov    %rax,-0x15cc(%rbp)
    f449:	66 c7 85 3c ea ff ff 	movw   $0x136d,-0x15c4(%rbp)
    f450:	6d 13 
    f452:	48 bb ab 01 9c 6d 13 	movabs $0xab1c08136d9c01ab,%rbx
    f459:	08 1c ab 
    f45c:	48 89 9d 3e ea ff ff 	mov    %rbx,-0x15c2(%rbp)
    f463:	66 c7 85 46 ea ff ff 	movw   $0x9393,-0x15ba(%rbp)
    f46a:	93 93 
    f46c:	48 b9 65 01 9d 35 35 	movabs $0x65019d35359d0165,%rcx
    f473:	9d 01 65 
    f476:	48 89 8d 48 ea ff ff 	mov    %rcx,-0x15b8(%rbp)
    f47d:	66 c7 85 50 ea ff ff 	movw   $0x1e93,-0x15b0(%rbp)
    f484:	93 1e 
    f486:	48 bf 08 ac f6 6d 01 	movabs $0x8ff9d016df6ac08,%rdi
    f48d:	9d ff 08 
    f490:	48 89 bd 52 ea ff ff 	mov    %rdi,-0x15ae(%rbp)
    f497:	66 c7 85 5a ea ff ff 	movw   $0x356d,-0x15a6(%rbp)
    f49e:	6d 35 
    f4a0:	48 bf 65 1c f6 01 ff 	movabs $0x655308ff01f61c65,%rdi
    f4a7:	08 53 65 
    f4aa:	48 89 bd 5c ea ff ff 	mov    %rdi,-0x15a4(%rbp)
    f4b1:	66 c7 85 64 ea ff ff 	movw   $0x3513,-0x159c(%rbp)
    f4b8:	13 35 
    f4ba:	48 be ab 73 9d 1e 01 	movabs $0xab53ab011e9d73ab,%rsi
    f4c1:	ab 53 ab 
    f4c4:	48 89 b5 66 ea ff ff 	mov    %rsi,-0x159a(%rbp)
    f4cb:	66 c7 85 6e ea ff ff 	movw   $0x1e01,-0x1592(%rbp)
    f4d2:	01 1e 
    f4d4:	48 bf 9c 1c 9c 1e 35 	movabs $0x9cfff6351e9c1c9c,%rdi
    f4db:	f6 ff 9c 
    f4de:	48 89 bd 70 ea ff ff 	mov    %rdi,-0x1590(%rbp)
    f4e5:	66 c7 85 78 ea ff ff 	movw   $0x9313,-0x1588(%rbp)
    f4ec:	13 93 
    f4ee:	48 89 85 7a ea ff ff 	mov    %rax,-0x1586(%rbp)
    f4f5:	66 c7 85 82 ea ff ff 	movw   $0x136d,-0x157e(%rbp)
    f4fc:	6d 13 
    f4fe:	48 89 9d 84 ea ff ff 	mov    %rbx,-0x157c(%rbp)
    f505:	66 c7 85 8c ea ff ff 	movw   $0x9393,-0x1574(%rbp)
    f50c:	93 93 
    f50e:	48 89 8d 8e ea ff ff 	mov    %rcx,-0x1572(%rbp)
    f515:	66 c7 85 96 ea ff ff 	movw   $0x1e93,-0x156a(%rbp)
    f51c:	93 1e 
    f51e:	c7 85 3c e0 ff ff c8 	movl   $0xd4701fc8,-0x1fc4(%rbp)
    f525:	1f 70 d4 
    f528:	48 8d 85 ac df ff ff 	lea    -0x2054(%rbp),%rax
    f52f:	48 89 85 20 e5 ff ff 	mov    %rax,-0x1ae0(%rbp)
    f536:	8b 85 34 e0 ff ff    	mov    -0x1fcc(%rbp),%eax
    f53c:	be 4f 69 3d b4       	mov    $0xb43d694f,%esi
    f541:	89 c7                	mov    %eax,%edi
    f543:	e8 88 e9 ff ff       	callq  ded0 <safe_sub_func_uint32_t_u_u>
    f548:	0f bf 85 7c df ff ff 	movswl -0x2084(%rbp),%eax
    f54f:	89 85 ac df ff ff    	mov    %eax,-0x2054(%rbp)
    f555:	8b 95 ac df ff ff    	mov    -0x2054(%rbp),%edx
    f55b:	0f b7 05 46 7d 01 00 	movzwl 0x17d46(%rip),%eax        # 272a8 <g_4171>
    f562:	0f b7 c0             	movzwl %ax,%eax
    f565:	39 c2                	cmp    %eax,%edx
    f567:	41 0f 9d c4          	setge  %r12b
    f56b:	0f b6 45 c1          	movzbl -0x3f(%rbp),%eax
    f56f:	0f be d8             	movsbl %al,%ebx
    f572:	0f bf 85 7c df ff ff 	movswl -0x2084(%rbp),%eax
    f579:	48 8b 95 d0 e0 ff ff 	mov    -0x1f30(%rbp),%rdx
    f580:	0f b7 0a             	movzwl (%rdx),%ecx
    f583:	66 83 bd 7c df ff ff 	cmpw   $0x6,-0x2084(%rbp)
    f58a:	06 
    f58b:	0f 94 c2             	sete   %dl
    f58e:	0f b6 d2             	movzbl %dl,%edx
    f591:	39 95 64 df ff ff    	cmp    %edx,-0x209c(%rbp)
    f597:	0f 9f c2             	setg   %dl
    f59a:	0f b6 d2             	movzbl %dl,%edx
    f59d:	21 d1                	and    %edx,%ecx
    f59f:	48 8b 95 d0 e0 ff ff 	mov    -0x1f30(%rbp),%rdx
    f5a6:	66 89 0a             	mov    %cx,(%rdx)
    f5a9:	48 8b 95 d0 e0 ff ff 	mov    -0x1f30(%rbp),%rdx
    f5b0:	0f b7 12             	movzwl (%rdx),%edx
    f5b3:	66 85 d2             	test   %dx,%dx
    f5b6:	74 10                	je     f5c8 <func_2+0xa39>
    f5b8:	83 bd 78 df ff ff 00 	cmpl   $0x0,-0x2088(%rbp)
    f5bf:	74 07                	je     f5c8 <func_2+0xa39>
    f5c1:	ba 01 00 00 00       	mov    $0x1,%edx
    f5c6:	eb 05                	jmp    f5cd <func_2+0xa3e>
    f5c8:	ba 00 00 00 00       	mov    $0x0,%edx
    f5cd:	89 c6                	mov    %eax,%esi
    f5cf:	89 d7                	mov    %edx,%edi
    f5d1:	e8 f6 e0 ff ff       	callq  d6cc <safe_mod_func_int32_t_s_s>
    f5d6:	39 85 34 e0 ff ff    	cmp    %eax,-0x1fcc(%rbp)
    f5dc:	0f 92 c0             	setb   %al
    f5df:	0f b6 c0             	movzbl %al,%eax
    f5e2:	89 de                	mov    %ebx,%esi
    f5e4:	89 c7                	mov    %eax,%edi
    f5e6:	e8 e5 e8 ff ff       	callq  ded0 <safe_sub_func_uint32_t_u_u>
    f5eb:	0f b6 95 44 ea ff ff 	movzbl -0x15bc(%rbp),%edx
    f5f2:	0f be d2             	movsbl %dl,%edx
    f5f5:	39 d0                	cmp    %edx,%eax
    f5f7:	0f 94 c0             	sete   %al
    f5fa:	44 21 e0             	and    %r12d,%eax
    f5fd:	0f b6 c0             	movzbl %al,%eax
    f600:	ba 31 72 1f e4       	mov    $0xe41f7231,%edx
    f605:	48 31 c2             	xor    %rax,%rdx
    f608:	8b 85 b0 df ff ff    	mov    -0x2050(%rbp),%eax
    f60e:	48 98                	cltq   
    f610:	48 39 c2             	cmp    %rax,%rdx
    f613:	75 12                	jne    f627 <func_2+0xa98>
    f615:	0f b6 85 3e ea ff ff 	movzbl -0x15c2(%rbp),%eax
    f61c:	84 c0                	test   %al,%al
    f61e:	74 07                	je     f627 <func_2+0xa98>
    f620:	b8 01 00 00 00       	mov    $0x1,%eax
    f625:	eb 05                	jmp    f62c <func_2+0xa9d>
    f627:	b8 00 00 00 00       	mov    $0x0,%eax
    f62c:	89 c2                	mov    %eax,%edx
    f62e:	8b 85 64 df ff ff    	mov    -0x209c(%rbp),%eax
    f634:	21 d0                	and    %edx,%eax
    f636:	0f bf d0             	movswl %ax,%edx
    f639:	48 8d 05 90 b4 01 00 	lea    0x1b490(%rip),%rax        # 2aad0 <g_1315>
    f640:	48 89 05 01 c2 01 00 	mov    %rax,0x1c201(%rip)        # 2b848 <g_3586+0x28>
    f647:	48 8b 05 fa c1 01 00 	mov    0x1c1fa(%rip),%rax        # 2b848 <g_3586+0x28>
    f64e:	48 39 85 98 e0 ff ff 	cmp    %rax,-0x1f68(%rbp)
    f655:	0f 94 c0             	sete   %al
    f658:	0f b6 c0             	movzbl %al,%eax
    f65b:	89 d6                	mov    %edx,%esi
    f65d:	89 c7                	mov    %eax,%edi
    f65f:	e8 6f dd ff ff       	callq  d3d3 <safe_sub_func_int16_t_s_s>
    f664:	c7 85 38 e0 ff ff fa 	movl   $0xfffffffa,-0x1fc8(%rbp)
    f66b:	ff ff ff 
    f66e:	83 bd 38 e0 ff ff 01 	cmpl   $0x1,-0x1fc8(%rbp)
    f675:	0f 94 c0             	sete   %al
    f678:	0f b6 c0             	movzbl %al,%eax
    f67b:	8b 95 3c e0 ff ff    	mov    -0x1fc4(%rbp),%edx
    f681:	89 d6                	mov    %edx,%esi
    f683:	89 c7                	mov    %eax,%edi
    f685:	e8 c2 e5 ff ff       	callq  dc4c <safe_lshift_func_uint8_t_u_u>
    f68a:	0f b6 c0             	movzbl %al,%eax
    f68d:	8b 95 34 e0 ff ff    	mov    -0x1fcc(%rbp),%edx
    f693:	89 d6                	mov    %edx,%esi
    f695:	89 c7                	mov    %eax,%edi
    f697:	e8 45 de ff ff       	callq  d4e1 <safe_lshift_func_int16_t_s_u>
    f69c:	98                   	cwtl   
    f69d:	21 85 d4 df ff ff    	and    %eax,-0x202c(%rbp)
    f6a3:	66 83 bd 7c df ff ff 	cmpw   $0x0,-0x2084(%rbp)
    f6aa:	00 
    f6ab:	75 28                	jne    f6d5 <func_2+0xb46>
    f6ad:	0f b6 85 21 ea ff ff 	movzbl -0x15df(%rbp),%eax
    f6b4:	84 c0                	test   %al,%al
    f6b6:	8b 05 34 7a 01 00    	mov    0x17a34(%rip),%eax        # 270f0 <g_515>
    f6bc:	83 c0 01             	add    $0x1,%eax
    f6bf:	89 05 2b 7a 01 00    	mov    %eax,0x17a2b(%rip)        # 270f0 <g_515>
    f6c5:	8b 05 25 7a 01 00    	mov    0x17a25(%rip),%eax        # 270f0 <g_515>
    f6cb:	85 c0                	test   %eax,%eax
    f6cd:	0f 84 75 fc ff ff    	je     f348 <func_2+0x7b9>
    f6d3:	eb 01                	jmp    f6d6 <func_2+0xb47>
    f6d5:	90                   	nop
    f6d6:	c7 05 44 79 01 00 00 	movl   $0x0,0x17944(%rip)        # 27024 <g_8>
    f6dd:	00 00 00 
    f6e0:	eb 63                	jmp    f745 <func_2+0xbb6>
    f6e2:	48 c7 85 10 e2 ff ff 	movq   $0xfffffffffffffffd,-0x1df0(%rbp)
    f6e9:	fd ff ff ff 
    f6ed:	8b 95 7c f1 ff ff    	mov    -0xe84(%rbp),%edx
    f6f3:	48 8b 05 46 b4 01 00 	mov    0x1b446(%rip),%rax        # 2ab40 <g_2467>
    f6fa:	88 10                	mov    %dl,(%rax)
    f6fc:	be 00 00 00 00       	mov    $0x0,%esi
    f701:	bf 01 00 00 00       	mov    $0x1,%edi
    f706:	e8 23 e9 ff ff       	callq  e02e <safe_add_func_uint64_t_u_u>
    f70b:	0f be d0             	movsbl %al,%edx
    f70e:	48 8b 85 10 e2 ff ff 	mov    -0x1df0(%rbp),%rax
    f715:	0f be c0             	movsbl %al,%eax
    f718:	89 d6                	mov    %edx,%esi
    f71a:	89 c7                	mov    %eax,%edi
    f71c:	e8 49 db ff ff       	callq  d26a <safe_div_func_int8_t_s_s>
    f721:	0f be c0             	movsbl %al,%eax
    f724:	39 85 78 df ff ff    	cmp    %eax,-0x2088(%rbp)
    f72a:	0f 93 c0             	setae  %al
    f72d:	0f b6 c0             	movzbl %al,%eax
    f730:	31 85 64 df ff ff    	xor    %eax,-0x209c(%rbp)
    f736:	8b 05 e8 78 01 00    	mov    0x178e8(%rip),%eax        # 27024 <g_8>
    f73c:	83 c0 01             	add    $0x1,%eax
    f73f:	89 05 df 78 01 00    	mov    %eax,0x178df(%rip)        # 27024 <g_8>
    f745:	8b 05 d9 78 01 00    	mov    0x178d9(%rip),%eax        # 27024 <g_8>
    f74b:	85 c0                	test   %eax,%eax
    f74d:	7e 93                	jle    f6e2 <func_2+0xb53>
    f74f:	0f b7 85 7c df ff ff 	movzwl -0x2084(%rbp),%eax
    f756:	83 e8 01             	sub    $0x1,%eax
    f759:	66 89 85 7c df ff ff 	mov    %ax,-0x2084(%rbp)
    f760:	66 83 bd 7c df ff ff 	cmpw   $0x0,-0x2084(%rbp)
    f767:	00 
    f768:	0f 89 2b fb ff ff    	jns    f299 <func_2+0x70a>
    f76e:	66 c7 05 7f 79 01 00 	movw   $0x0,0x1797f(%rip)        # 270f6 <g_620>
    f775:	00 00 
    f777:	e9 26 01 00 00       	jmpq   f8a2 <func_2+0xd13>
    f77c:	c7 85 28 e0 ff ff 70 	movl   $0xc8761370,-0x1fd8(%rbp)
    f783:	13 76 c8 
    f786:	c7 85 2c e0 ff ff 59 	movl   $0xa0821159,-0x1fd4(%rbp)
    f78d:	11 82 a0 
    f790:	c7 85 30 e0 ff ff 85 	movl   $0xc060ae85,-0x1fd0(%rbp)
    f797:	ae 60 c0 
    f79a:	48 8d 85 d0 e9 ff ff 	lea    -0x1630(%rbp),%rax
    f7a1:	48 8d 15 38 1b 01 00 	lea    0x11b38(%rip),%rdx        # 212e0 <g_4473+0x270>
    f7a8:	b9 23 00 00 00       	mov    $0x23,%ecx
    f7ad:	48 89 c7             	mov    %rax,%rdi
    f7b0:	48 89 d6             	mov    %rdx,%rsi
    f7b3:	f3 48 a5             	rep movsq %ds:(%rsi),%es:(%rdi)
    f7b6:	8b 85 60 e4 ff ff    	mov    -0x1ba0(%rbp),%eax
    f7bc:	83 c0 01             	add    $0x1,%eax
    f7bf:	89 85 60 e4 ff ff    	mov    %eax,-0x1ba0(%rbp)
    f7c5:	8b 05 99 79 01 00    	mov    0x17999(%rip),%eax        # 27164 <g_2001>
    f7cb:	83 c0 06             	add    $0x6,%eax
    f7ce:	48 98                	cltq   
    f7d0:	0f b6 44 05 c1       	movzbl -0x3f(%rbp,%rax,1),%eax
    f7d5:	84 c0                	test   %al,%al
    f7d7:	0f 84 9c 00 00 00    	je     f879 <func_2+0xcea>
    f7dd:	8b 85 78 df ff ff    	mov    -0x2088(%rbp),%eax
    f7e3:	0f be c0             	movsbl %al,%eax
    f7e6:	be 01 00 00 00       	mov    $0x1,%esi
    f7eb:	89 c7                	mov    %eax,%edi
    f7ed:	e8 43 db ff ff       	callq  d335 <safe_rshift_func_int8_t_s_s>
    f7f2:	0f be d8             	movsbl %al,%ebx
    f7f5:	48 8b 8d 28 fc ff ff 	mov    -0x3d8(%rbp),%rcx
    f7fc:	48 8b 85 98 e0 ff ff 	mov    -0x1f68(%rbp),%rax
    f803:	48 8b 00             	mov    (%rax),%rax
    f806:	48 8b 95 e0 e0 ff ff 	mov    -0x1f20(%rbp),%rdx
    f80d:	48 89 10             	mov    %rdx,(%rax)
    f810:	48 8b 00             	mov    (%rax),%rax
    f813:	48 39 c1             	cmp    %rax,%rcx
    f816:	0f 94 c0             	sete   %al
    f819:	0f b6 c0             	movzbl %al,%eax
    f81c:	be 04 00 00 00       	mov    $0x4,%esi
    f821:	89 c7                	mov    %eax,%edi
    f823:	e8 3b dd ff ff       	callq  d563 <safe_rshift_func_int16_t_s_u>
    f828:	98                   	cwtl   
    f829:	09 d8                	or     %ebx,%eax
    f82b:	0b 85 78 df ff ff    	or     -0x2088(%rbp),%eax
    f831:	89 c2                	mov    %eax,%edx
    f833:	48 8b 85 48 e0 ff ff 	mov    -0x1fb8(%rbp),%rax
    f83a:	48 8b 00             	mov    (%rax),%rax
    f83d:	89 d2                	mov    %edx,%edx
    f83f:	48 89 10             	mov    %rdx,(%rax)
    f842:	48 8b 00             	mov    (%rax),%rax
    f845:	48 89 c2             	mov    %rax,%rdx
    f848:	48 b8 4a cb d6 91 83 	movabs $0xf8fe128391d6cb4a,%rax
    f84f:	12 fe f8 
    f852:	48 39 c2             	cmp    %rax,%rdx
    f855:	0f 97 c0             	seta   %al
    f858:	0f b6 d0             	movzbl %al,%edx
    f85b:	8b 85 64 df ff ff    	mov    -0x209c(%rbp),%eax
    f861:	0f b7 c0             	movzwl %ax,%eax
    f864:	89 d6                	mov    %edx,%esi
    f866:	89 c7                	mov    %eax,%edi
    f868:	e8 db e5 ff ff       	callq  de48 <safe_rshift_func_uint16_t_u_s>
    f86d:	66 85 c0             	test   %ax,%ax
    f870:	74 07                	je     f879 <func_2+0xcea>
    f872:	b8 01 00 00 00       	mov    $0x1,%eax
    f877:	eb 05                	jmp    f87e <func_2+0xcef>
    f879:	b8 00 00 00 00       	mov    $0x0,%eax
    f87e:	3b 85 64 df ff ff    	cmp    -0x209c(%rbp),%eax
    f884:	0f 9e c0             	setle  %al
    f887:	0f b6 c0             	movzbl %al,%eax
    f88a:	48 89 85 90 e0 ff ff 	mov    %rax,-0x1f70(%rbp)
    f891:	0f b7 05 5e 78 01 00 	movzwl 0x1785e(%rip),%eax        # 270f6 <g_620>
    f898:	83 c0 01             	add    $0x1,%eax
    f89b:	66 89 05 54 78 01 00 	mov    %ax,0x17854(%rip)        # 270f6 <g_620>
    f8a2:	0f b7 05 4d 78 01 00 	movzwl 0x1784d(%rip),%eax        # 270f6 <g_620>
    f8a9:	66 83 f8 08          	cmp    $0x8,%ax
    f8ad:	0f 86 c9 fe ff ff    	jbe    f77c <func_2+0xbed>
    f8b3:	8b 05 ab 79 01 00    	mov    0x179ab(%rip),%eax        # 27264 <g_3271>
    f8b9:	83 c0 01             	add    $0x1,%eax
    f8bc:	89 05 a2 79 01 00    	mov    %eax,0x179a2(%rip)        # 27264 <g_3271>
    f8c2:	8b 05 9c 79 01 00    	mov    0x1799c(%rip),%eax        # 27264 <g_3271>
    f8c8:	85 c0                	test   %eax,%eax
    f8ca:	0f 84 6c f9 ff ff    	je     f23c <func_2+0x6ad>
    f8d0:	66 83 bd 7c df ff ff 	cmpw   $0x0,-0x2084(%rbp)
    f8d7:	00 
    f8d8:	0f 85 c6 2b 00 00    	jne    124a4 <func_2+0x3915>
    f8de:	8b 05 80 78 01 00    	mov    0x17880(%rip),%eax        # 27164 <g_2001>
    f8e4:	83 c0 07             	add    $0x7,%eax
    f8e7:	48 8b 95 90 e0 ff ff 	mov    -0x1f70(%rbp),%rdx
    f8ee:	89 d6                	mov    %edx,%esi
    f8f0:	48 63 d0             	movslq %eax,%rdx
    f8f3:	48 8d 0c 95 00 00 00 	lea    0x0(,%rdx,4),%rcx
    f8fa:	00 
    f8fb:	48 8d 15 3e 77 01 00 	lea    0x1773e(%rip),%rdx        # 27040 <g_25>
    f902:	89 34 11             	mov    %esi,(%rcx,%rdx,1)
    f905:	48 98                	cltq   
    f907:	48 8d 14 85 00 00 00 	lea    0x0(,%rax,4),%rdx
    f90e:	00 
    f90f:	48 8d 05 2a 77 01 00 	lea    0x1772a(%rip),%rax        # 27040 <g_25>
    f916:	8b 04 02             	mov    (%rdx,%rax,1),%eax
    f919:	89 85 b0 df ff ff    	mov    %eax,-0x2050(%rbp)
    f91f:	48 8b 05 6a b1 01 00 	mov    0x1b16a(%rip),%rax        # 2aa90 <g_809>
    f926:	48 8b 00             	mov    (%rax),%rax
    f929:	48 8b 10             	mov    (%rax),%rdx
    f92c:	48 8d 85 48 e0 ff ff 	lea    -0x1fb8(%rbp),%rax
    f933:	48 39 c2             	cmp    %rax,%rdx
    f936:	0f 94 c0             	sete   %al
    f939:	0f b6 d8             	movzbl %al,%ebx
    f93c:	8b 85 58 f1 ff ff    	mov    -0xea8(%rbp),%eax
    f942:	41 89 c4             	mov    %eax,%r12d
    f945:	48 8b 05 04 b1 01 00 	mov    0x1b104(%rip),%rax        # 2aa50 <g_258>
    f94c:	8b 00                	mov    (%rax),%eax
    f94e:	89 c7                	mov    %eax,%edi
    f950:	e8 51 e5 ff ff       	callq  dea6 <safe_unary_minus_func_uint32_t_u>
    f955:	83 f8 01             	cmp    $0x1,%eax
    f958:	48 8b 05 b9 b6 01 00 	mov    0x1b6b9(%rip),%rax        # 2b018 <g_3089>
    f95f:	48 8b 10             	mov    (%rax),%rdx
    f962:	48 8b 85 00 e2 ff ff 	mov    -0x1e00(%rbp),%rax
    f969:	48 89 10             	mov    %rdx,(%rax)
    f96c:	48 8b 85 00 e2 ff ff 	mov    -0x1e00(%rbp),%rax
    f973:	48 8b 00             	mov    (%rax),%rax
    f976:	48 85 c0             	test   %rax,%rax
    f979:	0f 94 c0             	sete   %al
    f97c:	0f b6 d0             	movzbl %al,%edx
    f97f:	8b 85 2c e2 ff ff    	mov    -0x1dd4(%rbp),%eax
    f985:	31 d0                	xor    %edx,%eax
    f987:	39 85 78 df ff ff    	cmp    %eax,-0x2088(%rbp)
    f98d:	48 8b 05 7c c4 01 00 	mov    0x1c47c(%rip),%rax        # 2be10 <g_4215>
    f994:	4c 89 e6             	mov    %r12,%rsi
    f997:	bf 01 00 00 00       	mov    $0x1,%edi
    f99c:	e8 07 df ff ff       	callq  d8a8 <safe_sub_func_int64_t_s_s>
    f9a1:	8b 95 64 df ff ff    	mov    -0x209c(%rbp),%edx
    f9a7:	48 63 d2             	movslq %edx,%rdx
    f9aa:	48 39 d0             	cmp    %rdx,%rax
    f9ad:	0f 9f c0             	setg   %al
    f9b0:	0f b6 c0             	movzbl %al,%eax
    f9b3:	39 c3                	cmp    %eax,%ebx
    f9b5:	0f 9e c0             	setle  %al
    f9b8:	0f b6 d0             	movzbl %al,%edx
    f9bb:	8b 85 cc f0 ff ff    	mov    -0xf34(%rbp),%eax
    f9c1:	39 c2                	cmp    %eax,%edx
    f9c3:	8b 85 ac df ff ff    	mov    -0x2054(%rbp),%eax
    f9c9:	83 f8 02             	cmp    $0x2,%eax
    f9cc:	0f 95 c0             	setne  %al
    f9cf:	0f b6 c0             	movzbl %al,%eax
    f9d2:	66 89 85 94 df ff ff 	mov    %ax,-0x206c(%rbp)
    f9d9:	e9 af 2a 00 00       	jmpq   1248d <func_2+0x38fe>
    f9de:	48 8d 05 5b 77 01 00 	lea    0x1775b(%rip),%rax        # 27140 <g_1126>
    f9e5:	48 89 85 18 e1 ff ff 	mov    %rax,-0x1ee8(%rbp)
    f9ec:	c7 85 b4 df ff ff d5 	movl   $0x7aca2bd5,-0x204c(%rbp)
    f9f3:	2b ca 7a 
    f9f6:	c7 85 b8 df ff ff 33 	movl   $0x55682c33,-0x2048(%rbp)
    f9fd:	2c 68 55 
    fa00:	48 8d 85 d0 e9 ff ff 	lea    -0x1630(%rbp),%rax
    fa07:	48 8d 15 b2 85 01 00 	lea    0x185b2(%rip),%rdx        # 27fc0 <g_4462+0xd00>
    fa0e:	b9 d8 00 00 00       	mov    $0xd8,%ecx
    fa13:	48 89 c7             	mov    %rax,%rdi
    fa16:	48 89 d6             	mov    %rdx,%rsi
    fa19:	f3 48 a5             	rep movsq %ds:(%rsi),%es:(%rdi)
    fa1c:	48 c7 85 20 e1 ff ff 	movq   $0x0,-0x1ee0(%rbp)
    fa23:	00 00 00 00 
    fa27:	48 c7 85 28 e1 ff ff 	movq   $0x1,-0x1ed8(%rbp)
    fa2e:	01 00 00 00 
    fa32:	48 8d 85 50 e0 ff ff 	lea    -0x1fb0(%rbp),%rax
    fa39:	48 89 85 30 e1 ff ff 	mov    %rax,-0x1ed0(%rbp)
    fa40:	48 c7 85 38 e1 ff ff 	movq   $0x0,-0x1ec8(%rbp)
    fa47:	00 00 00 00 
    fa4b:	c7 85 bc df ff ff 01 	movl   $0x1,-0x2044(%rbp)
    fa52:	00 00 00 
    fa55:	c7 85 f8 df ff ff ff 	movl   $0xffffffff,-0x2008(%rbp)
    fa5c:	ff ff ff 
    fa5f:	c7 85 fc df ff ff 00 	movl   $0x0,-0x2004(%rbp)
    fa66:	00 00 00 
    fa69:	c7 85 00 e0 ff ff f6 	movl   $0xfffffff6,-0x2000(%rbp)
    fa70:	ff ff ff 
    fa73:	c7 85 04 e0 ff ff 43 	movl   $0x2a5d943,-0x1ffc(%rbp)
    fa7a:	d9 a5 02 
    fa7d:	48 c7 85 58 e0 ff ff 	movq   $0x0,-0x1fa8(%rbp)
    fa84:	00 00 00 00 
    fa88:	48 8d 85 a0 e2 ff ff 	lea    -0x1d60(%rbp),%rax
    fa8f:	48 83 c0 24          	add    $0x24,%rax
    fa93:	48 89 85 00 e4 ff ff 	mov    %rax,-0x1c00(%rbp)
    fa9a:	48 8d 85 a0 e2 ff ff 	lea    -0x1d60(%rbp),%rax
    faa1:	48 83 c0 24          	add    $0x24,%rax
    faa5:	48 89 85 08 e4 ff ff 	mov    %rax,-0x1bf8(%rbp)
    faac:	48 8d 85 a0 e2 ff ff 	lea    -0x1d60(%rbp),%rax
    fab3:	48 83 c0 24          	add    $0x24,%rax
    fab7:	48 89 85 10 e4 ff ff 	mov    %rax,-0x1bf0(%rbp)
    fabe:	48 8d 85 a0 e2 ff ff 	lea    -0x1d60(%rbp),%rax
    fac5:	48 83 c0 24          	add    $0x24,%rax
    fac9:	48 89 85 18 e4 ff ff 	mov    %rax,-0x1be8(%rbp)
    fad0:	48 8d 85 a0 e2 ff ff 	lea    -0x1d60(%rbp),%rax
    fad7:	48 83 c0 24          	add    $0x24,%rax
    fadb:	48 89 85 20 e4 ff ff 	mov    %rax,-0x1be0(%rbp)
    fae2:	48 8d 85 a0 e2 ff ff 	lea    -0x1d60(%rbp),%rax
    fae9:	48 83 c0 24          	add    $0x24,%rax
    faed:	48 89 85 28 e4 ff ff 	mov    %rax,-0x1bd8(%rbp)
    faf4:	48 8d 85 a0 e2 ff ff 	lea    -0x1d60(%rbp),%rax
    fafb:	48 83 c0 24          	add    $0x24,%rax
    faff:	48 89 85 30 e4 ff ff 	mov    %rax,-0x1bd0(%rbp)
    fb06:	48 8d 85 a0 e2 ff ff 	lea    -0x1d60(%rbp),%rax
    fb0d:	48 83 c0 24          	add    $0x24,%rax
    fb11:	48 89 85 38 e4 ff ff 	mov    %rax,-0x1bc8(%rbp)
    fb18:	48 8d 85 a0 e2 ff ff 	lea    -0x1d60(%rbp),%rax
    fb1f:	48 83 c0 24          	add    $0x24,%rax
    fb23:	48 89 85 40 e4 ff ff 	mov    %rax,-0x1bc0(%rbp)
    fb2a:	48 8d 85 a0 e2 ff ff 	lea    -0x1d60(%rbp),%rax
    fb31:	48 83 c0 24          	add    $0x24,%rax
    fb35:	48 89 85 48 e4 ff ff 	mov    %rax,-0x1bb8(%rbp)
    fb3c:	66 c7 85 98 df ff ff 	movw   $0x1,-0x2068(%rbp)
    fb43:	01 00 
    fb45:	c7 85 d8 df ff ff 00 	movl   $0x0,-0x2028(%rbp)
    fb4c:	00 00 00 
    fb4f:	eb 1e                	jmp    fb6f <func_2+0xfe0>
    fb51:	8b 85 d8 df ff ff    	mov    -0x2028(%rbp),%eax
    fb57:	48 98                	cltq   
    fb59:	48 8d 95 58 e0 ff ff 	lea    -0x1fa8(%rbp),%rdx
    fb60:	48 89 94 c5 60 e3 ff 	mov    %rdx,-0x1ca0(%rbp,%rax,8)
    fb67:	ff 
    fb68:	83 85 d8 df ff ff 01 	addl   $0x1,-0x2028(%rbp)
    fb6f:	83 bd d8 df ff ff 08 	cmpl   $0x8,-0x2028(%rbp)
    fb76:	7e d9                	jle    fb51 <func_2+0xfc2>
    fb78:	48 8b 85 18 e1 ff ff 	mov    -0x1ee8(%rbp),%rax
    fb7f:	48 8b 00             	mov    (%rax),%rax
    fb82:	48 8d 50 ff          	lea    -0x1(%rax),%rdx
    fb86:	48 8b 85 18 e1 ff ff 	mov    -0x1ee8(%rbp),%rax
    fb8d:	48 89 10             	mov    %rdx,(%rax)
    fb90:	48 8b 85 18 e1 ff ff 	mov    -0x1ee8(%rbp),%rax
    fb97:	48 8b 00             	mov    (%rax),%rax
    fb9a:	48 85 c0             	test   %rax,%rax
    fb9d:	75 7f                	jne    fc1e <func_2+0x108f>
    fb9f:	be 00 00 00 00       	mov    $0x0,%esi
    fba4:	bf 00 00 00 00       	mov    $0x0,%edi
    fba9:	e8 be d7 ff ff       	callq  d36c <safe_rshift_func_int8_t_s_u>
    fbae:	8b 95 b4 df ff ff    	mov    -0x204c(%rbp),%edx
    fbb4:	8b 85 b4 df ff ff    	mov    -0x204c(%rbp),%eax
    fbba:	98                   	cwtl   
    fbbb:	89 d6                	mov    %edx,%esi
    fbbd:	89 c7                	mov    %eax,%edi
    fbbf:	e8 66 d9 ff ff       	callq  d52a <safe_rshift_func_int16_t_s_s>
    fbc4:	48 8b 05 85 ae 01 00 	mov    0x1ae85(%rip),%rax        # 2aa50 <g_258>
    fbcb:	8b 08                	mov    (%rax),%ecx
    fbcd:	0f bf 95 7c df ff ff 	movswl -0x2084(%rbp),%edx
    fbd4:	48 8b 05 75 ae 01 00 	mov    0x1ae75(%rip),%rax        # 2aa50 <g_258>
    fbdb:	31 ca                	xor    %ecx,%edx
    fbdd:	89 10                	mov    %edx,(%rax)
    fbdf:	8b 00                	mov    (%rax),%eax
    fbe1:	85 c0                	test   %eax,%eax
    fbe3:	74 2d                	je     fc12 <func_2+0x1083>
    fbe5:	8b 85 78 df ff ff    	mov    -0x2088(%rbp),%eax
    fbeb:	f7 d0                	not    %eax
    fbed:	89 c0                	mov    %eax,%eax
    fbef:	48 89 c6             	mov    %rax,%rsi
    fbf2:	48 bf 4d b7 a6 43 2d 	movabs $0xc9d55d2d43a6b74d,%rdi
    fbf9:	5d d5 c9 
    fbfc:	e8 40 dc ff ff       	callq  d841 <safe_add_func_int64_t_s_s>
    fc01:	66 83 bd 7c df ff ff 	cmpw   $0x1,-0x2084(%rbp)
    fc08:	01 
    fc09:	7e 07                	jle    fc12 <func_2+0x1083>
    fc0b:	b8 01 00 00 00       	mov    $0x1,%eax
    fc10:	eb 05                	jmp    fc17 <func_2+0x1088>
    fc12:	b8 00 00 00 00       	mov    $0x0,%eax
    fc17:	3d 37 cd 00 00       	cmp    $0xcd37,%eax
    fc1c:	74 07                	je     fc25 <func_2+0x1096>
    fc1e:	b8 01 00 00 00       	mov    $0x1,%eax
    fc23:	eb 05                	jmp    fc2a <func_2+0x109b>
    fc25:	b8 00 00 00 00       	mov    $0x0,%eax
    fc2a:	98                   	cwtl   
    fc2b:	be 86 99 ff ff       	mov    $0xffff9986,%esi
    fc30:	89 c7                	mov    %eax,%edi
    fc32:	e8 7c d7 ff ff       	callq  d3b3 <safe_add_func_int16_t_s_s>
    fc37:	8b 85 b4 df ff ff    	mov    -0x204c(%rbp),%eax
    fc3d:	23 85 78 df ff ff    	and    -0x2088(%rbp),%eax
    fc43:	89 85 b4 df ff ff    	mov    %eax,-0x204c(%rbp)
    fc49:	8b 85 a0 df ff ff    	mov    -0x2060(%rbp),%eax
    fc4f:	85 c0                	test   %eax,%eax
    fc51:	74 14                	je     fc67 <func_2+0x10d8>
    fc53:	8b 05 0b 75 01 00    	mov    0x1750b(%rip),%eax        # 27164 <g_2001>
    fc59:	83 c0 01             	add    $0x1,%eax
    fc5c:	89 05 02 75 01 00    	mov    %eax,0x17502(%rip)        # 27164 <g_2001>
    fc62:	e9 2f 28 00 00       	jmpq   12496 <func_2+0x3907>
    fc67:	c7 05 f7 74 01 00 01 	movl   $0x1,0x174f7(%rip)        # 27168 <g_2257>
    fc6e:	00 00 00 
    fc71:	e9 09 28 00 00       	jmpq   1247f <func_2+0x38f0>
    fc76:	48 8d 05 d3 ad 01 00 	lea    0x1add3(%rip),%rax        # 2aa50 <g_258>
    fc7d:	48 89 85 40 e1 ff ff 	mov    %rax,-0x1ec0(%rbp)
    fc84:	c7 85 c0 df ff ff 39 	movl   $0x34b2b539,-0x2040(%rbp)
    fc8b:	b5 b2 34 
    fc8e:	c6 85 91 df ff ff a8 	movb   $0xa8,-0x206f(%rbp)
    fc95:	48 8d 05 4c b0 01 00 	lea    0x1b04c(%rip),%rax        # 2ace8 <g_2808>
    fc9c:	48 89 85 48 e1 ff ff 	mov    %rax,-0x1eb8(%rbp)
    fca3:	c7 85 08 e0 ff ff 32 	movl   $0x9a4a6232,-0x1ff8(%rbp)
    fcaa:	62 4a 9a 
    fcad:	c7 85 0c e0 ff ff 07 	movl   $0x7,-0x1ff4(%rbp)
    fcb4:	00 00 00 
    fcb7:	66 c7 85 9a df ff ff 	movw   $0x4d9d,-0x2066(%rbp)
    fcbe:	9d 4d 
    fcc0:	c7 85 c4 df ff ff 42 	movl   $0x9a511d42,-0x203c(%rbp)
    fcc7:	1d 51 9a 
    fcca:	c7 85 70 e2 ff ff ff 	movl   $0xffffffff,-0x1d90(%rbp)
    fcd1:	ff ff ff 
    fcd4:	c7 85 74 e2 ff ff ff 	movl   $0xffffffff,-0x1d8c(%rbp)
    fcdb:	ff ff ff 
    fcde:	c7 85 78 e2 ff ff ff 	movl   $0xffffffff,-0x1d88(%rbp)
    fce5:	ff ff ff 
    fce8:	c7 85 7c e2 ff ff ff 	movl   $0xffffffff,-0x1d84(%rbp)
    fcef:	ff ff ff 
    fcf2:	c7 85 80 e2 ff ff ff 	movl   $0xffffffff,-0x1d80(%rbp)
    fcf9:	ff ff ff 
    fcfc:	c7 85 84 e2 ff ff ff 	movl   $0xffffffff,-0x1d7c(%rbp)
    fd03:	ff ff ff 
    fd06:	c7 85 88 e2 ff ff ff 	movl   $0xffffffff,-0x1d78(%rbp)
    fd0d:	ff ff ff 
    fd10:	c7 85 8c e2 ff ff ff 	movl   $0xffffffff,-0x1d74(%rbp)
    fd17:	ff ff ff 
    fd1a:	c7 85 90 e2 ff ff ff 	movl   $0xffffffff,-0x1d70(%rbp)
    fd21:	ff ff ff 
    fd24:	c7 85 10 e0 ff ff a5 	movl   $0x98ca68a5,-0x1ff0(%rbp)
    fd2b:	68 ca 98 
    fd2e:	48 8d 05 7b ad 01 00 	lea    0x1ad7b(%rip),%rax        # 2aab0 <g_1206>
    fd35:	48 89 85 60 e0 ff ff 	mov    %rax,-0x1fa0(%rbp)
    fd3c:	48 8d 85 60 e0 ff ff 	lea    -0x1fa0(%rbp),%rax
    fd43:	48 89 85 68 e0 ff ff 	mov    %rax,-0x1f98(%rbp)
    fd4a:	48 8d 85 68 e0 ff ff 	lea    -0x1f98(%rbp),%rax
    fd51:	48 89 85 90 f0 ff ff 	mov    %rax,-0xf70(%rbp)
    fd58:	48 8d 85 68 e0 ff ff 	lea    -0x1f98(%rbp),%rax
    fd5f:	48 89 85 98 f0 ff ff 	mov    %rax,-0xf68(%rbp)
    fd66:	48 8d 85 68 e0 ff ff 	lea    -0x1f98(%rbp),%rax
    fd6d:	48 89 85 a0 f0 ff ff 	mov    %rax,-0xf60(%rbp)
    fd74:	48 8d 85 68 e0 ff ff 	lea    -0x1f98(%rbp),%rax
    fd7b:	48 89 85 a8 f0 ff ff 	mov    %rax,-0xf58(%rbp)
    fd82:	48 8d 85 68 e0 ff ff 	lea    -0x1f98(%rbp),%rax
    fd89:	48 89 85 b0 f0 ff ff 	mov    %rax,-0xf50(%rbp)
    fd90:	48 8d 85 68 e0 ff ff 	lea    -0x1f98(%rbp),%rax
    fd97:	48 89 85 b8 f0 ff ff 	mov    %rax,-0xf48(%rbp)
    fd9e:	48 8d 85 68 e0 ff ff 	lea    -0x1f98(%rbp),%rax
    fda5:	48 89 85 c0 f0 ff ff 	mov    %rax,-0xf40(%rbp)
    fdac:	48 8d 85 68 e0 ff ff 	lea    -0x1f98(%rbp),%rax
    fdb3:	48 89 85 c8 f0 ff ff 	mov    %rax,-0xf38(%rbp)
    fdba:	48 8d 85 68 e0 ff ff 	lea    -0x1f98(%rbp),%rax
    fdc1:	48 89 85 d0 f0 ff ff 	mov    %rax,-0xf30(%rbp)
    fdc8:	48 8d 85 68 e0 ff ff 	lea    -0x1f98(%rbp),%rax
    fdcf:	48 89 85 d8 f0 ff ff 	mov    %rax,-0xf28(%rbp)
    fdd6:	48 8d 85 68 e0 ff ff 	lea    -0x1f98(%rbp),%rax
    fddd:	48 89 85 e0 f0 ff ff 	mov    %rax,-0xf20(%rbp)
    fde4:	48 8d 85 68 e0 ff ff 	lea    -0x1f98(%rbp),%rax
    fdeb:	48 89 85 e8 f0 ff ff 	mov    %rax,-0xf18(%rbp)
    fdf2:	48 8d 85 68 e0 ff ff 	lea    -0x1f98(%rbp),%rax
    fdf9:	48 89 85 f0 f0 ff ff 	mov    %rax,-0xf10(%rbp)
    fe00:	48 8d 85 68 e0 ff ff 	lea    -0x1f98(%rbp),%rax
    fe07:	48 89 85 f8 f0 ff ff 	mov    %rax,-0xf08(%rbp)
    fe0e:	48 8d 85 68 e0 ff ff 	lea    -0x1f98(%rbp),%rax
    fe15:	48 89 85 00 f1 ff ff 	mov    %rax,-0xf00(%rbp)
    fe1c:	48 8d 85 68 e0 ff ff 	lea    -0x1f98(%rbp),%rax
    fe23:	48 89 85 08 f1 ff ff 	mov    %rax,-0xef8(%rbp)
    fe2a:	48 8d 85 68 e0 ff ff 	lea    -0x1f98(%rbp),%rax
    fe31:	48 89 85 10 f1 ff ff 	mov    %rax,-0xef0(%rbp)
    fe38:	48 c7 85 18 f1 ff ff 	movq   $0x0,-0xee8(%rbp)
    fe3f:	00 00 00 00 
    fe43:	48 8d 85 68 e0 ff ff 	lea    -0x1f98(%rbp),%rax
    fe4a:	48 89 85 20 f1 ff ff 	mov    %rax,-0xee0(%rbp)
    fe51:	48 8d 85 68 e0 ff ff 	lea    -0x1f98(%rbp),%rax
    fe58:	48 89 85 28 f1 ff ff 	mov    %rax,-0xed8(%rbp)
    fe5f:	48 8d 85 68 e0 ff ff 	lea    -0x1f98(%rbp),%rax
    fe66:	48 89 85 30 f1 ff ff 	mov    %rax,-0xed0(%rbp)
    fe6d:	48 8d 85 68 e0 ff ff 	lea    -0x1f98(%rbp),%rax
    fe74:	48 89 85 38 f1 ff ff 	mov    %rax,-0xec8(%rbp)
    fe7b:	48 8d 85 68 e0 ff ff 	lea    -0x1f98(%rbp),%rax
    fe82:	48 89 85 40 f1 ff ff 	mov    %rax,-0xec0(%rbp)
    fe89:	48 8d 85 68 e0 ff ff 	lea    -0x1f98(%rbp),%rax
    fe90:	48 89 85 48 f1 ff ff 	mov    %rax,-0xeb8(%rbp)
    fe97:	48 8d 85 68 e0 ff ff 	lea    -0x1f98(%rbp),%rax
    fe9e:	48 89 85 50 f1 ff ff 	mov    %rax,-0xeb0(%rbp)
    fea5:	48 8d 85 68 e0 ff ff 	lea    -0x1f98(%rbp),%rax
    feac:	48 89 85 58 f1 ff ff 	mov    %rax,-0xea8(%rbp)
    feb3:	48 8d 85 68 e0 ff ff 	lea    -0x1f98(%rbp),%rax
    feba:	48 89 85 60 f1 ff ff 	mov    %rax,-0xea0(%rbp)
    fec1:	48 8d 85 68 e0 ff ff 	lea    -0x1f98(%rbp),%rax
    fec8:	48 89 85 68 f1 ff ff 	mov    %rax,-0xe98(%rbp)
    fecf:	48 c7 85 70 f1 ff ff 	movq   $0x0,-0xe90(%rbp)
    fed6:	00 00 00 00 
    feda:	48 8d 85 68 e0 ff ff 	lea    -0x1f98(%rbp),%rax
    fee1:	48 89 85 78 f1 ff ff 	mov    %rax,-0xe88(%rbp)
    fee8:	48 8d 85 68 e0 ff ff 	lea    -0x1f98(%rbp),%rax
    feef:	48 89 85 80 f1 ff ff 	mov    %rax,-0xe80(%rbp)
    fef6:	48 8d 85 68 e0 ff ff 	lea    -0x1f98(%rbp),%rax
    fefd:	48 89 85 88 f1 ff ff 	mov    %rax,-0xe78(%rbp)
    ff04:	48 c7 85 90 f1 ff ff 	movq   $0x0,-0xe70(%rbp)
    ff0b:	00 00 00 00 
    ff0f:	48 8d 85 68 e0 ff ff 	lea    -0x1f98(%rbp),%rax
    ff16:	48 89 85 98 f1 ff ff 	mov    %rax,-0xe68(%rbp)
    ff1d:	48 8d 85 68 e0 ff ff 	lea    -0x1f98(%rbp),%rax
    ff24:	48 89 85 a0 f1 ff ff 	mov    %rax,-0xe60(%rbp)
    ff2b:	48 8d 85 68 e0 ff ff 	lea    -0x1f98(%rbp),%rax
    ff32:	48 89 85 a8 f1 ff ff 	mov    %rax,-0xe58(%rbp)
    ff39:	48 8d 85 68 e0 ff ff 	lea    -0x1f98(%rbp),%rax
    ff40:	48 89 85 b0 f1 ff ff 	mov    %rax,-0xe50(%rbp)
    ff47:	48 8d 85 68 e0 ff ff 	lea    -0x1f98(%rbp),%rax
    ff4e:	48 89 85 b8 f1 ff ff 	mov    %rax,-0xe48(%rbp)
    ff55:	48 8d 85 68 e0 ff ff 	lea    -0x1f98(%rbp),%rax
    ff5c:	48 89 85 c0 f1 ff ff 	mov    %rax,-0xe40(%rbp)
    ff63:	48 8d 85 68 e0 ff ff 	lea    -0x1f98(%rbp),%rax
    ff6a:	48 89 85 c8 f1 ff ff 	mov    %rax,-0xe38(%rbp)
    ff71:	48 c7 85 d0 f1 ff ff 	movq   $0x0,-0xe30(%rbp)
    ff78:	00 00 00 00 
    ff7c:	48 8d 85 68 e0 ff ff 	lea    -0x1f98(%rbp),%rax
    ff83:	48 89 85 d8 f1 ff ff 	mov    %rax,-0xe28(%rbp)
    ff8a:	48 8d 85 68 e0 ff ff 	lea    -0x1f98(%rbp),%rax
    ff91:	48 89 85 e0 f1 ff ff 	mov    %rax,-0xe20(%rbp)
    ff98:	48 8d 85 68 e0 ff ff 	lea    -0x1f98(%rbp),%rax
    ff9f:	48 89 85 e8 f1 ff ff 	mov    %rax,-0xe18(%rbp)
    ffa6:	48 8d 85 68 e0 ff ff 	lea    -0x1f98(%rbp),%rax
    ffad:	48 89 85 f0 f1 ff ff 	mov    %rax,-0xe10(%rbp)
    ffb4:	48 8d 85 68 e0 ff ff 	lea    -0x1f98(%rbp),%rax
    ffbb:	48 89 85 f8 f1 ff ff 	mov    %rax,-0xe08(%rbp)
    ffc2:	48 8d 85 68 e0 ff ff 	lea    -0x1f98(%rbp),%rax
    ffc9:	48 89 85 00 f2 ff ff 	mov    %rax,-0xe00(%rbp)
    ffd0:	48 c7 85 08 f2 ff ff 	movq   $0x0,-0xdf8(%rbp)
    ffd7:	00 00 00 00 
    ffdb:	48 8d 85 68 e0 ff ff 	lea    -0x1f98(%rbp),%rax
    ffe2:	48 89 85 10 f2 ff ff 	mov    %rax,-0xdf0(%rbp)
    ffe9:	48 8d 85 68 e0 ff ff 	lea    -0x1f98(%rbp),%rax
    fff0:	48 89 85 18 f2 ff ff 	mov    %rax,-0xde8(%rbp)
    fff7:	48 8d 85 68 e0 ff ff 	lea    -0x1f98(%rbp),%rax
    fffe:	48 89 85 20 f2 ff ff 	mov    %rax,-0xde0(%rbp)
   10005:	48 8d 85 68 e0 ff ff 	lea    -0x1f98(%rbp),%rax
   1000c:	48 89 85 28 f2 ff ff 	mov    %rax,-0xdd8(%rbp)
   10013:	48 8d 85 68 e0 ff ff 	lea    -0x1f98(%rbp),%rax
   1001a:	48 89 85 30 f2 ff ff 	mov    %rax,-0xdd0(%rbp)
   10021:	48 8d 85 68 e0 ff ff 	lea    -0x1f98(%rbp),%rax
   10028:	48 89 85 38 f2 ff ff 	mov    %rax,-0xdc8(%rbp)
   1002f:	48 c7 85 40 f2 ff ff 	movq   $0x0,-0xdc0(%rbp)
   10036:	00 00 00 00 
   1003a:	48 8d 85 68 e0 ff ff 	lea    -0x1f98(%rbp),%rax
   10041:	48 89 85 48 f2 ff ff 	mov    %rax,-0xdb8(%rbp)
   10048:	48 8d 85 68 e0 ff ff 	lea    -0x1f98(%rbp),%rax
   1004f:	48 89 85 50 f2 ff ff 	mov    %rax,-0xdb0(%rbp)
   10056:	48 8d 85 68 e0 ff ff 	lea    -0x1f98(%rbp),%rax
   1005d:	48 89 85 58 f2 ff ff 	mov    %rax,-0xda8(%rbp)
   10064:	48 8d 85 68 e0 ff ff 	lea    -0x1f98(%rbp),%rax
   1006b:	48 89 85 60 f2 ff ff 	mov    %rax,-0xda0(%rbp)
   10072:	48 8d 85 68 e0 ff ff 	lea    -0x1f98(%rbp),%rax
   10079:	48 89 85 68 f2 ff ff 	mov    %rax,-0xd98(%rbp)
   10080:	48 8d 85 68 e0 ff ff 	lea    -0x1f98(%rbp),%rax
   10087:	48 89 85 70 f2 ff ff 	mov    %rax,-0xd90(%rbp)
   1008e:	48 8d 85 68 e0 ff ff 	lea    -0x1f98(%rbp),%rax
   10095:	48 89 85 78 f2 ff ff 	mov    %rax,-0xd88(%rbp)
   1009c:	48 8d 85 68 e0 ff ff 	lea    -0x1f98(%rbp),%rax
   100a3:	48 89 85 80 f2 ff ff 	mov    %rax,-0xd80(%rbp)
   100aa:	48 8d 85 68 e0 ff ff 	lea    -0x1f98(%rbp),%rax
   100b1:	48 89 85 88 f2 ff ff 	mov    %rax,-0xd78(%rbp)
   100b8:	48 8d 85 68 e0 ff ff 	lea    -0x1f98(%rbp),%rax
   100bf:	48 89 85 90 f2 ff ff 	mov    %rax,-0xd70(%rbp)
   100c6:	48 8d 85 68 e0 ff ff 	lea    -0x1f98(%rbp),%rax
   100cd:	48 89 85 98 f2 ff ff 	mov    %rax,-0xd68(%rbp)
   100d4:	48 8d 85 68 e0 ff ff 	lea    -0x1f98(%rbp),%rax
   100db:	48 89 85 a0 f2 ff ff 	mov    %rax,-0xd60(%rbp)
   100e2:	48 8d 85 68 e0 ff ff 	lea    -0x1f98(%rbp),%rax
   100e9:	48 89 85 a8 f2 ff ff 	mov    %rax,-0xd58(%rbp)
   100f0:	48 8d 85 68 e0 ff ff 	lea    -0x1f98(%rbp),%rax
   100f7:	48 89 85 b0 f2 ff ff 	mov    %rax,-0xd50(%rbp)
   100fe:	48 8d 85 68 e0 ff ff 	lea    -0x1f98(%rbp),%rax
   10105:	48 89 85 b8 f2 ff ff 	mov    %rax,-0xd48(%rbp)
   1010c:	48 c7 85 c0 f2 ff ff 	movq   $0x0,-0xd40(%rbp)
   10113:	00 00 00 00 
   10117:	48 8d 85 68 e0 ff ff 	lea    -0x1f98(%rbp),%rax
   1011e:	48 89 85 c8 f2 ff ff 	mov    %rax,-0xd38(%rbp)
   10125:	48 8d 85 68 e0 ff ff 	lea    -0x1f98(%rbp),%rax
   1012c:	48 89 85 d0 f2 ff ff 	mov    %rax,-0xd30(%rbp)
   10133:	48 8d 85 68 e0 ff ff 	lea    -0x1f98(%rbp),%rax
   1013a:	48 89 85 d8 f2 ff ff 	mov    %rax,-0xd28(%rbp)
   10141:	48 8d 85 68 e0 ff ff 	lea    -0x1f98(%rbp),%rax
   10148:	48 89 85 e0 f2 ff ff 	mov    %rax,-0xd20(%rbp)
   1014f:	48 8d 85 68 e0 ff ff 	lea    -0x1f98(%rbp),%rax
   10156:	48 89 85 e8 f2 ff ff 	mov    %rax,-0xd18(%rbp)
   1015d:	48 8d 85 68 e0 ff ff 	lea    -0x1f98(%rbp),%rax
   10164:	48 89 85 f0 f2 ff ff 	mov    %rax,-0xd10(%rbp)
   1016b:	48 8d 85 68 e0 ff ff 	lea    -0x1f98(%rbp),%rax
   10172:	48 89 85 f8 f2 ff ff 	mov    %rax,-0xd08(%rbp)
   10179:	48 8d 85 68 e0 ff ff 	lea    -0x1f98(%rbp),%rax
   10180:	48 89 85 00 f3 ff ff 	mov    %rax,-0xd00(%rbp)
   10187:	48 8d 85 68 e0 ff ff 	lea    -0x1f98(%rbp),%rax
   1018e:	48 89 85 08 f3 ff ff 	mov    %rax,-0xcf8(%rbp)
   10195:	48 8d 85 68 e0 ff ff 	lea    -0x1f98(%rbp),%rax
   1019c:	48 89 85 10 f3 ff ff 	mov    %rax,-0xcf0(%rbp)
   101a3:	48 8d 85 68 e0 ff ff 	lea    -0x1f98(%rbp),%rax
   101aa:	48 89 85 18 f3 ff ff 	mov    %rax,-0xce8(%rbp)
   101b1:	48 c7 85 20 f3 ff ff 	movq   $0x0,-0xce0(%rbp)
   101b8:	00 00 00 00 
   101bc:	48 c7 85 28 f3 ff ff 	movq   $0x0,-0xcd8(%rbp)
   101c3:	00 00 00 00 
   101c7:	48 8d 85 68 e0 ff ff 	lea    -0x1f98(%rbp),%rax
   101ce:	48 89 85 30 f3 ff ff 	mov    %rax,-0xcd0(%rbp)
   101d5:	48 8d 85 68 e0 ff ff 	lea    -0x1f98(%rbp),%rax
   101dc:	48 89 85 38 f3 ff ff 	mov    %rax,-0xcc8(%rbp)
   101e3:	48 8d 85 68 e0 ff ff 	lea    -0x1f98(%rbp),%rax
   101ea:	48 89 85 40 f3 ff ff 	mov    %rax,-0xcc0(%rbp)
   101f1:	48 8d 85 68 e0 ff ff 	lea    -0x1f98(%rbp),%rax
   101f8:	48 89 85 48 f3 ff ff 	mov    %rax,-0xcb8(%rbp)
   101ff:	48 8d 85 68 e0 ff ff 	lea    -0x1f98(%rbp),%rax
   10206:	48 89 85 50 f3 ff ff 	mov    %rax,-0xcb0(%rbp)
   1020d:	48 8d 85 68 e0 ff ff 	lea    -0x1f98(%rbp),%rax
   10214:	48 89 85 58 f3 ff ff 	mov    %rax,-0xca8(%rbp)
   1021b:	48 8d 85 68 e0 ff ff 	lea    -0x1f98(%rbp),%rax
   10222:	48 89 85 60 f3 ff ff 	mov    %rax,-0xca0(%rbp)
   10229:	48 8d 85 68 e0 ff ff 	lea    -0x1f98(%rbp),%rax
   10230:	48 89 85 68 f3 ff ff 	mov    %rax,-0xc98(%rbp)
   10237:	48 c7 85 70 f3 ff ff 	movq   $0x0,-0xc90(%rbp)
   1023e:	00 00 00 00 
   10242:	48 8d 85 68 e0 ff ff 	lea    -0x1f98(%rbp),%rax
   10249:	48 89 85 78 f3 ff ff 	mov    %rax,-0xc88(%rbp)
   10250:	48 8d 85 68 e0 ff ff 	lea    -0x1f98(%rbp),%rax
   10257:	48 89 85 80 f3 ff ff 	mov    %rax,-0xc80(%rbp)
   1025e:	48 8d 85 68 e0 ff ff 	lea    -0x1f98(%rbp),%rax
   10265:	48 89 85 88 f3 ff ff 	mov    %rax,-0xc78(%rbp)
   1026c:	48 8d 85 68 e0 ff ff 	lea    -0x1f98(%rbp),%rax
   10273:	48 89 85 90 f3 ff ff 	mov    %rax,-0xc70(%rbp)
   1027a:	48 8d 85 68 e0 ff ff 	lea    -0x1f98(%rbp),%rax
   10281:	48 89 85 98 f3 ff ff 	mov    %rax,-0xc68(%rbp)
   10288:	48 8d 85 68 e0 ff ff 	lea    -0x1f98(%rbp),%rax
   1028f:	48 89 85 a0 f3 ff ff 	mov    %rax,-0xc60(%rbp)
   10296:	48 8d 85 68 e0 ff ff 	lea    -0x1f98(%rbp),%rax
   1029d:	48 89 85 a8 f3 ff ff 	mov    %rax,-0xc58(%rbp)
   102a4:	48 8d 85 68 e0 ff ff 	lea    -0x1f98(%rbp),%rax
   102ab:	48 89 85 b0 f3 ff ff 	mov    %rax,-0xc50(%rbp)
   102b2:	48 8d 85 68 e0 ff ff 	lea    -0x1f98(%rbp),%rax
   102b9:	48 89 85 b8 f3 ff ff 	mov    %rax,-0xc48(%rbp)
   102c0:	48 8d 85 68 e0 ff ff 	lea    -0x1f98(%rbp),%rax
   102c7:	48 89 85 c0 f3 ff ff 	mov    %rax,-0xc40(%rbp)
   102ce:	48 8d 85 68 e0 ff ff 	lea    -0x1f98(%rbp),%rax
   102d5:	48 89 85 c8 f3 ff ff 	mov    %rax,-0xc38(%rbp)
   102dc:	48 c7 85 d0 f3 ff ff 	movq   $0x0,-0xc30(%rbp)
   102e3:	00 00 00 00 
   102e7:	48 8d 85 68 e0 ff ff 	lea    -0x1f98(%rbp),%rax
   102ee:	48 89 85 d8 f3 ff ff 	mov    %rax,-0xc28(%rbp)
   102f5:	48 8d 85 68 e0 ff ff 	lea    -0x1f98(%rbp),%rax
   102fc:	48 89 85 e0 f3 ff ff 	mov    %rax,-0xc20(%rbp)
   10303:	48 8d 85 68 e0 ff ff 	lea    -0x1f98(%rbp),%rax
   1030a:	48 89 85 e8 f3 ff ff 	mov    %rax,-0xc18(%rbp)
   10311:	48 8d 85 68 e0 ff ff 	lea    -0x1f98(%rbp),%rax
   10318:	48 89 85 f0 f3 ff ff 	mov    %rax,-0xc10(%rbp)
   1031f:	48 8d 85 68 e0 ff ff 	lea    -0x1f98(%rbp),%rax
   10326:	48 89 85 f8 f3 ff ff 	mov    %rax,-0xc08(%rbp)
   1032d:	48 8d 85 68 e0 ff ff 	lea    -0x1f98(%rbp),%rax
   10334:	48 89 85 00 f4 ff ff 	mov    %rax,-0xc00(%rbp)
   1033b:	48 8d 85 68 e0 ff ff 	lea    -0x1f98(%rbp),%rax
   10342:	48 89 85 08 f4 ff ff 	mov    %rax,-0xbf8(%rbp)
   10349:	48 c7 85 10 f4 ff ff 	movq   $0x0,-0xbf0(%rbp)
   10350:	00 00 00 00 
   10354:	48 c7 85 18 f4 ff ff 	movq   $0x0,-0xbe8(%rbp)
   1035b:	00 00 00 00 
   1035f:	48 c7 85 20 f4 ff ff 	movq   $0x0,-0xbe0(%rbp)
   10366:	00 00 00 00 
   1036a:	48 8d 85 68 e0 ff ff 	lea    -0x1f98(%rbp),%rax
   10371:	48 89 85 28 f4 ff ff 	mov    %rax,-0xbd8(%rbp)
   10378:	48 8d 85 68 e0 ff ff 	lea    -0x1f98(%rbp),%rax
   1037f:	48 89 85 30 f4 ff ff 	mov    %rax,-0xbd0(%rbp)
   10386:	48 8d 85 68 e0 ff ff 	lea    -0x1f98(%rbp),%rax
   1038d:	48 89 85 38 f4 ff ff 	mov    %rax,-0xbc8(%rbp)
   10394:	48 8d 85 68 e0 ff ff 	lea    -0x1f98(%rbp),%rax
   1039b:	48 89 85 40 f4 ff ff 	mov    %rax,-0xbc0(%rbp)
   103a2:	48 8d 85 68 e0 ff ff 	lea    -0x1f98(%rbp),%rax
   103a9:	48 89 85 48 f4 ff ff 	mov    %rax,-0xbb8(%rbp)
   103b0:	48 8d 85 68 e0 ff ff 	lea    -0x1f98(%rbp),%rax
   103b7:	48 89 85 50 f4 ff ff 	mov    %rax,-0xbb0(%rbp)
   103be:	48 8d 85 68 e0 ff ff 	lea    -0x1f98(%rbp),%rax
   103c5:	48 89 85 58 f4 ff ff 	mov    %rax,-0xba8(%rbp)
   103cc:	48 8d 85 68 e0 ff ff 	lea    -0x1f98(%rbp),%rax
   103d3:	48 89 85 60 f4 ff ff 	mov    %rax,-0xba0(%rbp)
   103da:	48 8d 85 68 e0 ff ff 	lea    -0x1f98(%rbp),%rax
   103e1:	48 89 85 68 f4 ff ff 	mov    %rax,-0xb98(%rbp)
   103e8:	48 c7 85 70 f4 ff ff 	movq   $0x0,-0xb90(%rbp)
   103ef:	00 00 00 00 
   103f3:	48 8d 85 68 e0 ff ff 	lea    -0x1f98(%rbp),%rax
   103fa:	48 89 85 78 f4 ff ff 	mov    %rax,-0xb88(%rbp)
   10401:	48 c7 85 80 f4 ff ff 	movq   $0x0,-0xb80(%rbp)
   10408:	00 00 00 00 
   1040c:	48 8d 85 68 e0 ff ff 	lea    -0x1f98(%rbp),%rax
   10413:	48 89 85 88 f4 ff ff 	mov    %rax,-0xb78(%rbp)
   1041a:	48 8d 85 68 e0 ff ff 	lea    -0x1f98(%rbp),%rax
   10421:	48 89 85 90 f4 ff ff 	mov    %rax,-0xb70(%rbp)
   10428:	48 8d 85 68 e0 ff ff 	lea    -0x1f98(%rbp),%rax
   1042f:	48 89 85 98 f4 ff ff 	mov    %rax,-0xb68(%rbp)
   10436:	48 8d 85 68 e0 ff ff 	lea    -0x1f98(%rbp),%rax
   1043d:	48 89 85 a0 f4 ff ff 	mov    %rax,-0xb60(%rbp)
   10444:	48 8d 85 68 e0 ff ff 	lea    -0x1f98(%rbp),%rax
   1044b:	48 89 85 a8 f4 ff ff 	mov    %rax,-0xb58(%rbp)
   10452:	48 8d 85 68 e0 ff ff 	lea    -0x1f98(%rbp),%rax
   10459:	48 89 85 b0 f4 ff ff 	mov    %rax,-0xb50(%rbp)
   10460:	48 8d 85 68 e0 ff ff 	lea    -0x1f98(%rbp),%rax
   10467:	48 89 85 b8 f4 ff ff 	mov    %rax,-0xb48(%rbp)
   1046e:	48 8d 85 68 e0 ff ff 	lea    -0x1f98(%rbp),%rax
   10475:	48 89 85 c0 f4 ff ff 	mov    %rax,-0xb40(%rbp)
   1047c:	48 8d 85 68 e0 ff ff 	lea    -0x1f98(%rbp),%rax
   10483:	48 89 85 c8 f4 ff ff 	mov    %rax,-0xb38(%rbp)
   1048a:	48 8d 85 68 e0 ff ff 	lea    -0x1f98(%rbp),%rax
   10491:	48 89 85 d0 f4 ff ff 	mov    %rax,-0xb30(%rbp)
   10498:	48 8d 85 68 e0 ff ff 	lea    -0x1f98(%rbp),%rax
   1049f:	48 89 85 d8 f4 ff ff 	mov    %rax,-0xb28(%rbp)
   104a6:	48 8d 85 68 e0 ff ff 	lea    -0x1f98(%rbp),%rax
   104ad:	48 89 85 e0 f4 ff ff 	mov    %rax,-0xb20(%rbp)
   104b4:	48 8d 85 68 e0 ff ff 	lea    -0x1f98(%rbp),%rax
   104bb:	48 89 85 e8 f4 ff ff 	mov    %rax,-0xb18(%rbp)
   104c2:	48 8d 85 68 e0 ff ff 	lea    -0x1f98(%rbp),%rax
   104c9:	48 89 85 f0 f4 ff ff 	mov    %rax,-0xb10(%rbp)
   104d0:	48 8d 85 68 e0 ff ff 	lea    -0x1f98(%rbp),%rax
   104d7:	48 89 85 f8 f4 ff ff 	mov    %rax,-0xb08(%rbp)
   104de:	48 8d 85 68 e0 ff ff 	lea    -0x1f98(%rbp),%rax
   104e5:	48 89 85 00 f5 ff ff 	mov    %rax,-0xb00(%rbp)
   104ec:	48 8d 85 68 e0 ff ff 	lea    -0x1f98(%rbp),%rax
   104f3:	48 89 85 08 f5 ff ff 	mov    %rax,-0xaf8(%rbp)
   104fa:	48 8d 85 68 e0 ff ff 	lea    -0x1f98(%rbp),%rax
   10501:	48 89 85 10 f5 ff ff 	mov    %rax,-0xaf0(%rbp)
   10508:	48 8d 85 68 e0 ff ff 	lea    -0x1f98(%rbp),%rax
   1050f:	48 89 85 18 f5 ff ff 	mov    %rax,-0xae8(%rbp)
   10516:	48 8d 85 68 e0 ff ff 	lea    -0x1f98(%rbp),%rax
   1051d:	48 89 85 20 f5 ff ff 	mov    %rax,-0xae0(%rbp)
   10524:	48 8d 85 68 e0 ff ff 	lea    -0x1f98(%rbp),%rax
   1052b:	48 89 85 28 f5 ff ff 	mov    %rax,-0xad8(%rbp)
   10532:	48 8d 85 68 e0 ff ff 	lea    -0x1f98(%rbp),%rax
   10539:	48 89 85 30 f5 ff ff 	mov    %rax,-0xad0(%rbp)
   10540:	48 c7 85 38 f5 ff ff 	movq   $0x0,-0xac8(%rbp)
   10547:	00 00 00 00 
   1054b:	48 8d 85 68 e0 ff ff 	lea    -0x1f98(%rbp),%rax
   10552:	48 89 85 40 f5 ff ff 	mov    %rax,-0xac0(%rbp)
   10559:	48 8d 85 68 e0 ff ff 	lea    -0x1f98(%rbp),%rax
   10560:	48 89 85 48 f5 ff ff 	mov    %rax,-0xab8(%rbp)
   10567:	48 8d 85 68 e0 ff ff 	lea    -0x1f98(%rbp),%rax
   1056e:	48 89 85 50 f5 ff ff 	mov    %rax,-0xab0(%rbp)
   10575:	48 8d 85 68 e0 ff ff 	lea    -0x1f98(%rbp),%rax
   1057c:	48 89 85 58 f5 ff ff 	mov    %rax,-0xaa8(%rbp)
   10583:	48 8d 85 68 e0 ff ff 	lea    -0x1f98(%rbp),%rax
   1058a:	48 89 85 60 f5 ff ff 	mov    %rax,-0xaa0(%rbp)
   10591:	48 8d 85 68 e0 ff ff 	lea    -0x1f98(%rbp),%rax
   10598:	48 89 85 68 f5 ff ff 	mov    %rax,-0xa98(%rbp)
   1059f:	48 8d 85 68 e0 ff ff 	lea    -0x1f98(%rbp),%rax
   105a6:	48 89 85 70 f5 ff ff 	mov    %rax,-0xa90(%rbp)
   105ad:	48 8d 85 68 e0 ff ff 	lea    -0x1f98(%rbp),%rax
   105b4:	48 89 85 78 f5 ff ff 	mov    %rax,-0xa88(%rbp)
   105bb:	48 8d 85 68 e0 ff ff 	lea    -0x1f98(%rbp),%rax
   105c2:	48 89 85 80 f5 ff ff 	mov    %rax,-0xa80(%rbp)
   105c9:	48 8d 85 68 e0 ff ff 	lea    -0x1f98(%rbp),%rax
   105d0:	48 89 85 88 f5 ff ff 	mov    %rax,-0xa78(%rbp)
   105d7:	48 c7 85 90 f5 ff ff 	movq   $0x0,-0xa70(%rbp)
   105de:	00 00 00 00 
   105e2:	48 c7 85 98 f5 ff ff 	movq   $0x0,-0xa68(%rbp)
   105e9:	00 00 00 00 
   105ed:	48 c7 85 a0 f5 ff ff 	movq   $0x0,-0xa60(%rbp)
   105f4:	00 00 00 00 
   105f8:	48 8d 85 68 e0 ff ff 	lea    -0x1f98(%rbp),%rax
   105ff:	48 89 85 a8 f5 ff ff 	mov    %rax,-0xa58(%rbp)
   10606:	48 8d 85 68 e0 ff ff 	lea    -0x1f98(%rbp),%rax
   1060d:	48 89 85 b0 f5 ff ff 	mov    %rax,-0xa50(%rbp)
   10614:	48 8d 85 68 e0 ff ff 	lea    -0x1f98(%rbp),%rax
   1061b:	48 89 85 b8 f5 ff ff 	mov    %rax,-0xa48(%rbp)
   10622:	48 8d 85 68 e0 ff ff 	lea    -0x1f98(%rbp),%rax
   10629:	48 89 85 c0 f5 ff ff 	mov    %rax,-0xa40(%rbp)
   10630:	48 c7 85 c8 f5 ff ff 	movq   $0x0,-0xa38(%rbp)
   10637:	00 00 00 00 
   1063b:	48 8d 85 68 e0 ff ff 	lea    -0x1f98(%rbp),%rax
   10642:	48 89 85 d0 f5 ff ff 	mov    %rax,-0xa30(%rbp)
   10649:	48 c7 85 d8 f5 ff ff 	movq   $0x0,-0xa28(%rbp)
   10650:	00 00 00 00 
   10654:	48 8d 85 68 e0 ff ff 	lea    -0x1f98(%rbp),%rax
   1065b:	48 89 85 e0 f5 ff ff 	mov    %rax,-0xa20(%rbp)
   10662:	48 8d 85 68 e0 ff ff 	lea    -0x1f98(%rbp),%rax
   10669:	48 89 85 e8 f5 ff ff 	mov    %rax,-0xa18(%rbp)
   10670:	48 c7 85 f0 f5 ff ff 	movq   $0x0,-0xa10(%rbp)
   10677:	00 00 00 00 
   1067b:	48 8d 85 68 e0 ff ff 	lea    -0x1f98(%rbp),%rax
   10682:	48 89 85 f8 f5 ff ff 	mov    %rax,-0xa08(%rbp)
   10689:	48 8d 85 68 e0 ff ff 	lea    -0x1f98(%rbp),%rax
   10690:	48 89 85 00 f6 ff ff 	mov    %rax,-0xa00(%rbp)
   10697:	48 8d 85 68 e0 ff ff 	lea    -0x1f98(%rbp),%rax
   1069e:	48 89 85 08 f6 ff ff 	mov    %rax,-0x9f8(%rbp)
   106a5:	48 8d 85 68 e0 ff ff 	lea    -0x1f98(%rbp),%rax
   106ac:	48 89 85 10 f6 ff ff 	mov    %rax,-0x9f0(%rbp)
   106b3:	48 8d 85 68 e0 ff ff 	lea    -0x1f98(%rbp),%rax
   106ba:	48 89 85 18 f6 ff ff 	mov    %rax,-0x9e8(%rbp)
   106c1:	48 8d 85 68 e0 ff ff 	lea    -0x1f98(%rbp),%rax
   106c8:	48 89 85 20 f6 ff ff 	mov    %rax,-0x9e0(%rbp)
   106cf:	48 8d 85 68 e0 ff ff 	lea    -0x1f98(%rbp),%rax
   106d6:	48 89 85 28 f6 ff ff 	mov    %rax,-0x9d8(%rbp)
   106dd:	48 8d 85 68 e0 ff ff 	lea    -0x1f98(%rbp),%rax
   106e4:	48 89 85 30 f6 ff ff 	mov    %rax,-0x9d0(%rbp)
   106eb:	48 c7 85 38 f6 ff ff 	movq   $0x0,-0x9c8(%rbp)
   106f2:	00 00 00 00 
   106f6:	48 8d 85 68 e0 ff ff 	lea    -0x1f98(%rbp),%rax
   106fd:	48 89 85 40 f6 ff ff 	mov    %rax,-0x9c0(%rbp)
   10704:	48 8d 85 68 e0 ff ff 	lea    -0x1f98(%rbp),%rax
   1070b:	48 89 85 48 f6 ff ff 	mov    %rax,-0x9b8(%rbp)
   10712:	48 8d 85 68 e0 ff ff 	lea    -0x1f98(%rbp),%rax
   10719:	48 89 85 50 f6 ff ff 	mov    %rax,-0x9b0(%rbp)
   10720:	48 8d 85 68 e0 ff ff 	lea    -0x1f98(%rbp),%rax
   10727:	48 89 85 58 f6 ff ff 	mov    %rax,-0x9a8(%rbp)
   1072e:	48 8d 85 68 e0 ff ff 	lea    -0x1f98(%rbp),%rax
   10735:	48 89 85 60 f6 ff ff 	mov    %rax,-0x9a0(%rbp)
   1073c:	48 8d 85 68 e0 ff ff 	lea    -0x1f98(%rbp),%rax
   10743:	48 89 85 68 f6 ff ff 	mov    %rax,-0x998(%rbp)
   1074a:	48 c7 85 70 f6 ff ff 	movq   $0x0,-0x990(%rbp)
   10751:	00 00 00 00 
   10755:	48 8d 85 68 e0 ff ff 	lea    -0x1f98(%rbp),%rax
   1075c:	48 89 85 78 f6 ff ff 	mov    %rax,-0x988(%rbp)
   10763:	48 8d 85 68 e0 ff ff 	lea    -0x1f98(%rbp),%rax
   1076a:	48 89 85 80 f6 ff ff 	mov    %rax,-0x980(%rbp)
   10771:	48 8d 85 68 e0 ff ff 	lea    -0x1f98(%rbp),%rax
   10778:	48 89 85 88 f6 ff ff 	mov    %rax,-0x978(%rbp)
   1077f:	48 8d 85 68 e0 ff ff 	lea    -0x1f98(%rbp),%rax
   10786:	48 89 85 90 f6 ff ff 	mov    %rax,-0x970(%rbp)
   1078d:	48 8d 85 68 e0 ff ff 	lea    -0x1f98(%rbp),%rax
   10794:	48 89 85 98 f6 ff ff 	mov    %rax,-0x968(%rbp)
   1079b:	48 8d 85 68 e0 ff ff 	lea    -0x1f98(%rbp),%rax
   107a2:	48 89 85 a0 f6 ff ff 	mov    %rax,-0x960(%rbp)
   107a9:	48 8d 85 68 e0 ff ff 	lea    -0x1f98(%rbp),%rax
   107b0:	48 89 85 a8 f6 ff ff 	mov    %rax,-0x958(%rbp)
   107b7:	48 8d 85 68 e0 ff ff 	lea    -0x1f98(%rbp),%rax
   107be:	48 89 85 b0 f6 ff ff 	mov    %rax,-0x950(%rbp)
   107c5:	48 8d 85 68 e0 ff ff 	lea    -0x1f98(%rbp),%rax
   107cc:	48 89 85 b8 f6 ff ff 	mov    %rax,-0x948(%rbp)
   107d3:	48 8d 85 68 e0 ff ff 	lea    -0x1f98(%rbp),%rax
   107da:	48 89 85 c0 f6 ff ff 	mov    %rax,-0x940(%rbp)
   107e1:	48 8d 85 68 e0 ff ff 	lea    -0x1f98(%rbp),%rax
   107e8:	48 89 85 c8 f6 ff ff 	mov    %rax,-0x938(%rbp)
   107ef:	48 8d 85 68 e0 ff ff 	lea    -0x1f98(%rbp),%rax
   107f6:	48 89 85 d0 f6 ff ff 	mov    %rax,-0x930(%rbp)
   107fd:	48 8d 85 68 e0 ff ff 	lea    -0x1f98(%rbp),%rax
   10804:	48 89 85 d8 f6 ff ff 	mov    %rax,-0x928(%rbp)
   1080b:	48 8d 85 68 e0 ff ff 	lea    -0x1f98(%rbp),%rax
   10812:	48 89 85 e0 f6 ff ff 	mov    %rax,-0x920(%rbp)
   10819:	48 8d 85 68 e0 ff ff 	lea    -0x1f98(%rbp),%rax
   10820:	48 89 85 e8 f6 ff ff 	mov    %rax,-0x918(%rbp)
   10827:	48 8d 85 68 e0 ff ff 	lea    -0x1f98(%rbp),%rax
   1082e:	48 89 85 f0 f6 ff ff 	mov    %rax,-0x910(%rbp)
   10835:	48 8d 85 68 e0 ff ff 	lea    -0x1f98(%rbp),%rax
   1083c:	48 89 85 f8 f6 ff ff 	mov    %rax,-0x908(%rbp)
   10843:	48 8d 85 68 e0 ff ff 	lea    -0x1f98(%rbp),%rax
   1084a:	48 89 85 00 f7 ff ff 	mov    %rax,-0x900(%rbp)
   10851:	48 8d 85 68 e0 ff ff 	lea    -0x1f98(%rbp),%rax
   10858:	48 89 85 08 f7 ff ff 	mov    %rax,-0x8f8(%rbp)
   1085f:	48 8d 85 68 e0 ff ff 	lea    -0x1f98(%rbp),%rax
   10866:	48 89 85 10 f7 ff ff 	mov    %rax,-0x8f0(%rbp)
   1086d:	48 8d 85 68 e0 ff ff 	lea    -0x1f98(%rbp),%rax
   10874:	48 89 85 18 f7 ff ff 	mov    %rax,-0x8e8(%rbp)
   1087b:	48 c7 85 20 f7 ff ff 	movq   $0x0,-0x8e0(%rbp)
   10882:	00 00 00 00 
   10886:	48 8d 85 68 e0 ff ff 	lea    -0x1f98(%rbp),%rax
   1088d:	48 89 85 28 f7 ff ff 	mov    %rax,-0x8d8(%rbp)
   10894:	48 8d 85 68 e0 ff ff 	lea    -0x1f98(%rbp),%rax
   1089b:	48 89 85 30 f7 ff ff 	mov    %rax,-0x8d0(%rbp)
   108a2:	48 8d 85 68 e0 ff ff 	lea    -0x1f98(%rbp),%rax
   108a9:	48 89 85 38 f7 ff ff 	mov    %rax,-0x8c8(%rbp)
   108b0:	48 8d 85 68 e0 ff ff 	lea    -0x1f98(%rbp),%rax
   108b7:	48 89 85 40 f7 ff ff 	mov    %rax,-0x8c0(%rbp)
   108be:	48 8d 85 68 e0 ff ff 	lea    -0x1f98(%rbp),%rax
   108c5:	48 89 85 48 f7 ff ff 	mov    %rax,-0x8b8(%rbp)
   108cc:	48 8d 85 68 e0 ff ff 	lea    -0x1f98(%rbp),%rax
   108d3:	48 89 85 50 f7 ff ff 	mov    %rax,-0x8b0(%rbp)
   108da:	48 8d 85 68 e0 ff ff 	lea    -0x1f98(%rbp),%rax
   108e1:	48 89 85 58 f7 ff ff 	mov    %rax,-0x8a8(%rbp)
   108e8:	48 8d 85 68 e0 ff ff 	lea    -0x1f98(%rbp),%rax
   108ef:	48 89 85 60 f7 ff ff 	mov    %rax,-0x8a0(%rbp)
   108f6:	48 8d 85 68 e0 ff ff 	lea    -0x1f98(%rbp),%rax
   108fd:	48 89 85 68 f7 ff ff 	mov    %rax,-0x898(%rbp)
   10904:	48 8d 85 68 e0 ff ff 	lea    -0x1f98(%rbp),%rax
   1090b:	48 89 85 70 f7 ff ff 	mov    %rax,-0x890(%rbp)
   10912:	48 8d 85 68 e0 ff ff 	lea    -0x1f98(%rbp),%rax
   10919:	48 89 85 78 f7 ff ff 	mov    %rax,-0x888(%rbp)
   10920:	48 8d 85 68 e0 ff ff 	lea    -0x1f98(%rbp),%rax
   10927:	48 89 85 80 f7 ff ff 	mov    %rax,-0x880(%rbp)
   1092e:	48 8d 85 68 e0 ff ff 	lea    -0x1f98(%rbp),%rax
   10935:	48 89 85 88 f7 ff ff 	mov    %rax,-0x878(%rbp)
   1093c:	48 8d 85 68 e0 ff ff 	lea    -0x1f98(%rbp),%rax
   10943:	48 89 85 90 f7 ff ff 	mov    %rax,-0x870(%rbp)
   1094a:	48 8d 85 68 e0 ff ff 	lea    -0x1f98(%rbp),%rax
   10951:	48 89 85 98 f7 ff ff 	mov    %rax,-0x868(%rbp)
   10958:	48 8d 85 68 e0 ff ff 	lea    -0x1f98(%rbp),%rax
   1095f:	48 89 85 a0 f7 ff ff 	mov    %rax,-0x860(%rbp)
   10966:	48 c7 85 a8 f7 ff ff 	movq   $0x0,-0x858(%rbp)
   1096d:	00 00 00 00 
   10971:	48 8d 85 68 e0 ff ff 	lea    -0x1f98(%rbp),%rax
   10978:	48 89 85 b0 f7 ff ff 	mov    %rax,-0x850(%rbp)
   1097f:	48 8d 85 68 e0 ff ff 	lea    -0x1f98(%rbp),%rax
   10986:	48 89 85 b8 f7 ff ff 	mov    %rax,-0x848(%rbp)
   1098d:	48 c7 85 c0 f7 ff ff 	movq   $0x0,-0x840(%rbp)
   10994:	00 00 00 00 
   10998:	48 8d 85 68 e0 ff ff 	lea    -0x1f98(%rbp),%rax
   1099f:	48 89 85 c8 f7 ff ff 	mov    %rax,-0x838(%rbp)
   109a6:	48 8d 85 68 e0 ff ff 	lea    -0x1f98(%rbp),%rax
   109ad:	48 89 85 d0 f7 ff ff 	mov    %rax,-0x830(%rbp)
   109b4:	48 c7 85 d8 f7 ff ff 	movq   $0x0,-0x828(%rbp)
   109bb:	00 00 00 00 
   109bf:	48 8d 85 68 e0 ff ff 	lea    -0x1f98(%rbp),%rax
   109c6:	48 89 85 e0 f7 ff ff 	mov    %rax,-0x820(%rbp)
   109cd:	48 c7 85 e8 f7 ff ff 	movq   $0x0,-0x818(%rbp)
   109d4:	00 00 00 00 
   109d8:	48 8d 85 68 e0 ff ff 	lea    -0x1f98(%rbp),%rax
   109df:	48 89 85 f0 f7 ff ff 	mov    %rax,-0x810(%rbp)
   109e6:	48 8d 85 68 e0 ff ff 	lea    -0x1f98(%rbp),%rax
   109ed:	48 89 85 f8 f7 ff ff 	mov    %rax,-0x808(%rbp)
   109f4:	48 8d 85 68 e0 ff ff 	lea    -0x1f98(%rbp),%rax
   109fb:	48 89 85 00 f8 ff ff 	mov    %rax,-0x800(%rbp)
   10a02:	48 8d 85 68 e0 ff ff 	lea    -0x1f98(%rbp),%rax
   10a09:	48 89 85 08 f8 ff ff 	mov    %rax,-0x7f8(%rbp)
   10a10:	8b 85 b4 df ff ff    	mov    -0x204c(%rbp),%eax
   10a16:	0f b7 d8             	movzwl %ax,%ebx
   10a19:	44 8b a5 c0 df ff ff 	mov    -0x2040(%rbp),%r12d
   10a20:	66 83 bd 7c df ff ff 	cmpw   $0x0,-0x2084(%rbp)
   10a27:	00 
   10a28:	75 68                	jne    10a92 <func_2+0x1f03>
   10a2a:	8b 85 78 df ff ff    	mov    -0x2088(%rbp),%eax
   10a30:	98                   	cwtl   
   10a31:	be 0b 00 00 00       	mov    $0xb,%esi
   10a36:	89 c7                	mov    %eax,%edi
   10a38:	e8 a4 ca ff ff       	callq  d4e1 <safe_lshift_func_int16_t_s_u>
   10a3d:	66 83 bd 7c df ff ff 	cmpw   $0x0,-0x2084(%rbp)
   10a44:	00 
   10a45:	74 10                	je     10a57 <func_2+0x1ec8>
   10a47:	83 bd 64 df ff ff 00 	cmpl   $0x0,-0x209c(%rbp)
   10a4e:	74 07                	je     10a57 <func_2+0x1ec8>
   10a50:	b8 01 00 00 00       	mov    $0x1,%eax
   10a55:	eb 05                	jmp    10a5c <func_2+0x1ecd>
   10a57:	b8 00 00 00 00       	mov    $0x0,%eax
   10a5c:	0f b7 c0             	movzwl %ax,%eax
   10a5f:	be 03 00 00 00       	mov    $0x3,%esi
   10a64:	89 c7                	mov    %eax,%edi
   10a66:	e8 d2 d2 ff ff       	callq  dd3d <safe_mul_func_uint16_t_u_u>
   10a6b:	48 8b 85 40 e1 ff ff 	mov    -0x1ec0(%rbp),%rax
   10a72:	48 8b 95 70 df ff ff 	mov    -0x2090(%rbp),%rdx
   10a79:	48 89 10             	mov    %rdx,(%rax)
   10a7c:	be 00 00 00 00       	mov    $0x0,%esi
   10a81:	bf 01 00 00 00       	mov    $0x1,%edi
   10a86:	e8 08 d1 ff ff       	callq  db93 <safe_mul_func_uint8_t_u_u>
   10a8b:	b8 00 00 00 00       	mov    $0x0,%eax
   10a90:	eb 05                	jmp    10a97 <func_2+0x1f08>
   10a92:	b8 01 00 00 00       	mov    $0x1,%eax
   10a97:	0f be c0             	movsbl %al,%eax
   10a9a:	be 07 00 00 00       	mov    $0x7,%esi
   10a9f:	89 c7                	mov    %eax,%edi
   10aa1:	e8 fb c7 ff ff       	callq  d2a1 <safe_lshift_func_int8_t_s_s>
   10aa6:	0f be c0             	movsbl %al,%eax
   10aa9:	be 59 00 00 00       	mov    $0x59,%esi
   10aae:	89 c7                	mov    %eax,%edi
   10ab0:	e8 7c c7 ff ff       	callq  d231 <safe_mod_func_int8_t_s_s>
   10ab5:	0f be c0             	movsbl %al,%eax
   10ab8:	44 89 e6             	mov    %r12d,%esi
   10abb:	89 c7                	mov    %eax,%edi
   10abd:	e8 0a cc ff ff       	callq  d6cc <safe_mod_func_int32_t_s_s>
   10ac2:	8b 85 64 df ff ff    	mov    -0x209c(%rbp),%eax
   10ac8:	0f b7 c0             	movzwl %ax,%eax
   10acb:	89 de                	mov    %ebx,%esi
   10acd:	89 c7                	mov    %eax,%edi
   10acf:	e8 69 d2 ff ff       	callq  dd3d <safe_mul_func_uint16_t_u_u>
   10ad4:	66 83 bd 7c df ff ff 	cmpw   $0x0,-0x2084(%rbp)
   10adb:	00 
   10adc:	48 8b 85 e8 e0 ff ff 	mov    -0x1f18(%rbp),%rax
   10ae3:	48 3b 85 a0 e0 ff ff 	cmp    -0x1f60(%rbp),%rax
   10aea:	0f 94 c0             	sete   %al
   10aed:	0f b6 d0             	movzbl %al,%edx
   10af0:	48 8b 05 61 9f 01 00 	mov    0x19f61(%rip),%rax        # 2aa58 <g_396>
   10af7:	48 8b 00             	mov    (%rax),%rax
   10afa:	48 39 c2             	cmp    %rax,%rdx
   10afd:	0f 94 c0             	sete   %al
   10b00:	0f b6 c0             	movzbl %al,%eax
   10b03:	39 85 78 df ff ff    	cmp    %eax,-0x2088(%rbp)
   10b09:	0f 84 4f 10 00 00    	je     11b5e <func_2+0x2fcf>
   10b0f:	48 c7 85 c8 e1 ff ff 	movq   $0x0,-0x1e38(%rbp)
   10b16:	00 00 00 00 
   10b1a:	48 8d 05 c7 a1 01 00 	lea    0x1a1c7(%rip),%rax        # 2ace8 <g_2808>
   10b21:	48 89 85 d0 e1 ff ff 	mov    %rax,-0x1e30(%rbp)
   10b28:	c7 85 dc df ff ff 00 	movl   $0x0,-0x2024(%rbp)
   10b2f:	00 00 00 
   10b32:	eb 42                	jmp    10b76 <func_2+0x1fe7>
   10b34:	c7 85 e0 df ff ff 00 	movl   $0x0,-0x2020(%rbp)
   10b3b:	00 00 00 
   10b3e:	eb 26                	jmp    10b66 <func_2+0x1fd7>
   10b40:	8b 85 e0 df ff ff    	mov    -0x2020(%rbp),%eax
   10b46:	48 63 d0             	movslq %eax,%rdx
   10b49:	8b 85 dc df ff ff    	mov    -0x2024(%rbp),%eax
   10b4f:	48 98                	cltq   
   10b51:	48 01 d0             	add    %rdx,%rax
   10b54:	c7 84 85 50 e4 ff ff 	movl   $0xc1c42039,-0x1bb0(%rbp,%rax,4)
   10b5b:	39 20 c4 c1 
   10b5f:	83 85 e0 df ff ff 01 	addl   $0x1,-0x2020(%rbp)
   10b66:	83 bd e0 df ff ff 00 	cmpl   $0x0,-0x2020(%rbp)
   10b6d:	7e d1                	jle    10b40 <func_2+0x1fb1>
   10b6f:	83 85 dc df ff ff 01 	addl   $0x1,-0x2024(%rbp)
   10b76:	83 bd dc df ff ff 01 	cmpl   $0x1,-0x2024(%rbp)
   10b7d:	7e b5                	jle    10b34 <func_2+0x1fa5>
   10b7f:	c7 85 dc df ff ff 00 	movl   $0x0,-0x2024(%rbp)
   10b86:	00 00 00 
   10b89:	eb 1b                	jmp    10ba6 <func_2+0x2017>
   10b8b:	8b 85 dc df ff ff    	mov    -0x2024(%rbp),%eax
   10b91:	48 98                	cltq   
   10b93:	48 c7 84 c5 10 e5 ff 	movq   $0x0,-0x1af0(%rbp,%rax,8)
   10b9a:	ff 00 00 00 00 
   10b9f:	83 85 dc df ff ff 01 	addl   $0x1,-0x2024(%rbp)
   10ba6:	83 bd dc df ff ff 01 	cmpl   $0x1,-0x2024(%rbp)
   10bad:	7e dc                	jle    10b8b <func_2+0x1ffc>
   10baf:	8b 85 78 df ff ff    	mov    -0x2088(%rbp),%eax
   10bb5:	0f b7 d8             	movzwl %ax,%ebx
   10bb8:	0f bf 85 7c df ff ff 	movswl -0x2084(%rbp),%eax
   10bbf:	33 85 64 df ff ff    	xor    -0x209c(%rbp),%eax
   10bc5:	89 c2                	mov    %eax,%edx
   10bc7:	8b 85 50 e4 ff ff    	mov    -0x1bb0(%rbp),%eax
   10bcd:	89 d6                	mov    %edx,%esi
   10bcf:	89 c7                	mov    %eax,%edi
   10bd1:	e8 f6 ca ff ff       	callq  d6cc <safe_mod_func_int32_t_s_s>
   10bd6:	89 c6                	mov    %eax,%esi
   10bd8:	bf 24 67 86 be       	mov    $0xbe866724,%edi
   10bdd:	e8 d4 c9 ff ff       	callq  d5b6 <safe_add_func_int32_t_s_s>
   10be2:	0f b7 85 7c df ff ff 	movzwl -0x2084(%rbp),%eax
   10be9:	89 c2                	mov    %eax,%edx
   10beb:	8b 85 78 df ff ff    	mov    -0x2088(%rbp),%eax
   10bf1:	21 c2                	and    %eax,%edx
   10bf3:	48 8b 05 46 9f 01 00 	mov    0x19f46(%rip),%rax        # 2ab40 <g_2467>
   10bfa:	88 10                	mov    %dl,(%rax)
   10bfc:	8b 95 c0 df ff ff    	mov    -0x2040(%rbp),%edx
   10c02:	8b 85 b8 df ff ff    	mov    -0x2048(%rbp),%eax
   10c08:	31 d0                	xor    %edx,%eax
   10c0a:	89 85 b8 df ff ff    	mov    %eax,-0x2048(%rbp)
   10c10:	8b 85 b8 df ff ff    	mov    -0x2048(%rbp),%eax
   10c16:	f7 d0                	not    %eax
   10c18:	39 85 64 df ff ff    	cmp    %eax,-0x209c(%rbp)
   10c1e:	0f 9e c0             	setle  %al
   10c21:	0f b6 c0             	movzbl %al,%eax
   10c24:	be 58 00 00 00       	mov    $0x58,%esi
   10c29:	89 c7                	mov    %eax,%edi
   10c2b:	e8 e2 c5 ff ff       	callq  d212 <safe_mul_func_int8_t_s_s>
   10c30:	0f be c0             	movsbl %al,%eax
   10c33:	48 8d 8d 50 e4 ff ff 	lea    -0x1bb0(%rbp),%rcx
   10c3a:	48 8d 95 50 e4 ff ff 	lea    -0x1bb0(%rbp),%rdx
   10c41:	89 de                	mov    %ebx,%esi
   10c43:	89 c7                	mov    %eax,%edi
   10c45:	e8 28 b5 00 00       	callq  1c172 <func_30>
   10c4a:	49 89 c5             	mov    %rax,%r13
   10c4d:	8b 85 78 df ff ff    	mov    -0x2088(%rbp),%eax
   10c53:	0f b7 d8             	movzwl %ax,%ebx
   10c56:	48 83 bd b0 e0 ff ff 	cmpq   $0x0,-0x1f50(%rbp)
   10c5d:	00 
   10c5e:	0f 95 c0             	setne  %al
   10c61:	0f b6 d0             	movzbl %al,%edx
   10c64:	8b 85 b4 df ff ff    	mov    -0x204c(%rbp),%eax
   10c6a:	31 d0                	xor    %edx,%eax
   10c6c:	89 c6                	mov    %eax,%esi
   10c6e:	bf 00 00 00 00       	mov    $0x0,%edi
   10c73:	e8 46 d0 ff ff       	callq  dcbe <safe_rshift_func_uint8_t_u_u>
   10c78:	0f b6 c0             	movzbl %al,%eax
   10c7b:	4c 8b 25 ce b1 01 00 	mov    0x1b1ce(%rip),%r12        # 2be50 <g_4269>
   10c82:	48 8d 95 c0 df ff ff 	lea    -0x2040(%rbp),%rdx
   10c89:	48 89 d1             	mov    %rdx,%rcx
   10c8c:	4c 89 ea             	mov    %r13,%rdx
   10c8f:	89 de                	mov    %ebx,%esi
   10c91:	89 c7                	mov    %eax,%edi
   10c93:	e8 da b4 00 00       	callq  1c172 <func_30>
   10c98:	49 89 04 24          	mov    %rax,(%r12)
   10c9c:	48 c7 05 59 64 01 00 	movq   $0x1,0x16459(%rip)        # 27100 <g_699>
   10ca3:	01 00 00 00 
   10ca7:	e9 86 0e 00 00       	jmpq   11b32 <func_2+0x2fa3>
   10cac:	48 b8 74 60 3a 3a 19 	movabs $0x9f1fb3193a3a6074,%rax
   10cb3:	b3 1f 9f 
   10cb6:	48 89 85 d8 e1 ff ff 	mov    %rax,-0x1e28(%rbp)
   10cbd:	48 8d 85 ac df ff ff 	lea    -0x2054(%rbp),%rax
   10cc4:	48 89 85 e0 e1 ff ff 	mov    %rax,-0x1e20(%rbp)
   10ccb:	48 8d 05 8e 65 01 00 	lea    0x1658e(%rip),%rax        # 27260 <g_3270>
   10cd2:	48 89 85 10 f8 ff ff 	mov    %rax,-0x7f0(%rbp)
   10cd9:	48 8d 85 b8 df ff ff 	lea    -0x2048(%rbp),%rax
   10ce0:	48 89 85 18 f8 ff ff 	mov    %rax,-0x7e8(%rbp)
   10ce7:	48 8d 85 b4 df ff ff 	lea    -0x204c(%rbp),%rax
   10cee:	48 89 85 20 f8 ff ff 	mov    %rax,-0x7e0(%rbp)
   10cf5:	48 8d 85 b4 df ff ff 	lea    -0x204c(%rbp),%rax
   10cfc:	48 89 85 28 f8 ff ff 	mov    %rax,-0x7d8(%rbp)
   10d03:	48 8d 85 b8 df ff ff 	lea    -0x2048(%rbp),%rax
   10d0a:	48 89 85 30 f8 ff ff 	mov    %rax,-0x7d0(%rbp)
   10d11:	48 8d 05 48 65 01 00 	lea    0x16548(%rip),%rax        # 27260 <g_3270>
   10d18:	48 89 85 38 f8 ff ff 	mov    %rax,-0x7c8(%rbp)
   10d1f:	48 8d 05 3e 63 01 00 	lea    0x1633e(%rip),%rax        # 27064 <g_50>
   10d26:	48 89 85 40 f8 ff ff 	mov    %rax,-0x7c0(%rbp)
   10d2d:	48 8d 05 78 63 01 00 	lea    0x16378(%rip),%rax        # 270ac <g_178>
   10d34:	48 89 85 48 f8 ff ff 	mov    %rax,-0x7b8(%rbp)
   10d3b:	48 c7 85 50 f8 ff ff 	movq   $0x0,-0x7b0(%rbp)
   10d42:	00 00 00 00 
   10d46:	48 8d 85 50 e4 ff ff 	lea    -0x1bb0(%rbp),%rax
   10d4d:	48 89 85 58 f8 ff ff 	mov    %rax,-0x7a8(%rbp)
   10d54:	48 8d 85 b4 df ff ff 	lea    -0x204c(%rbp),%rax
   10d5b:	48 89 85 60 f8 ff ff 	mov    %rax,-0x7a0(%rbp)
   10d62:	48 8d 05 f7 64 01 00 	lea    0x164f7(%rip),%rax        # 27260 <g_3270>
   10d69:	48 89 85 68 f8 ff ff 	mov    %rax,-0x798(%rbp)
   10d70:	48 8d 05 c9 62 01 00 	lea    0x162c9(%rip),%rax        # 27040 <g_25>
   10d77:	48 89 85 70 f8 ff ff 	mov    %rax,-0x790(%rbp)
   10d7e:	48 8d 85 b0 df ff ff 	lea    -0x2050(%rbp),%rax
   10d85:	48 89 85 78 f8 ff ff 	mov    %rax,-0x788(%rbp)
   10d8c:	48 8d 85 50 e4 ff ff 	lea    -0x1bb0(%rbp),%rax
   10d93:	48 83 c0 04          	add    $0x4,%rax
   10d97:	48 89 85 80 f8 ff ff 	mov    %rax,-0x780(%rbp)
   10d9e:	48 c7 85 88 f8 ff ff 	movq   $0x0,-0x778(%rbp)
   10da5:	00 00 00 00 
   10da9:	48 8d 85 20 e2 ff ff 	lea    -0x1de0(%rbp),%rax
   10db0:	48 83 c0 0c          	add    $0xc,%rax
   10db4:	48 89 85 90 f8 ff ff 	mov    %rax,-0x770(%rbp)
   10dbb:	48 8d 05 86 62 01 00 	lea    0x16286(%rip),%rax        # 27048 <g_25+0x8>
   10dc2:	48 89 85 98 f8 ff ff 	mov    %rax,-0x768(%rbp)
   10dc9:	48 c7 85 a0 f8 ff ff 	movq   $0x0,-0x760(%rbp)
   10dd0:	00 00 00 00 
   10dd4:	48 8d 05 85 64 01 00 	lea    0x16485(%rip),%rax        # 27260 <g_3270>
   10ddb:	48 89 85 a8 f8 ff ff 	mov    %rax,-0x758(%rbp)
   10de2:	48 8d 85 50 e4 ff ff 	lea    -0x1bb0(%rbp),%rax
   10de9:	48 83 c0 04          	add    $0x4,%rax
   10ded:	48 89 85 b0 f8 ff ff 	mov    %rax,-0x750(%rbp)
   10df4:	48 8d 85 50 e4 ff ff 	lea    -0x1bb0(%rbp),%rax
   10dfb:	48 83 c0 04          	add    $0x4,%rax
   10dff:	48 89 85 b8 f8 ff ff 	mov    %rax,-0x748(%rbp)
   10e06:	48 8d 85 ac df ff ff 	lea    -0x2054(%rbp),%rax
   10e0d:	48 89 85 c0 f8 ff ff 	mov    %rax,-0x740(%rbp)
   10e14:	48 8d 05 91 62 01 00 	lea    0x16291(%rip),%rax        # 270ac <g_178>
   10e1b:	48 89 85 c8 f8 ff ff 	mov    %rax,-0x738(%rbp)
   10e22:	48 8d 85 a0 e2 ff ff 	lea    -0x1d60(%rbp),%rax
   10e29:	48 83 c0 14          	add    $0x14,%rax
   10e2d:	48 89 85 d0 f8 ff ff 	mov    %rax,-0x730(%rbp)
   10e34:	48 8d 85 50 e4 ff ff 	lea    -0x1bb0(%rbp),%rax
   10e3b:	48 83 c0 04          	add    $0x4,%rax
   10e3f:	48 89 85 d8 f8 ff ff 	mov    %rax,-0x728(%rbp)
   10e46:	48 8d 85 b4 df ff ff 	lea    -0x204c(%rbp),%rax
   10e4d:	48 89 85 e0 f8 ff ff 	mov    %rax,-0x720(%rbp)
   10e54:	48 8d 85 b4 df ff ff 	lea    -0x204c(%rbp),%rax
   10e5b:	48 89 85 e8 f8 ff ff 	mov    %rax,-0x718(%rbp)
   10e62:	48 c7 85 f0 f8 ff ff 	movq   $0x0,-0x710(%rbp)
   10e69:	00 00 00 00 
   10e6d:	48 c7 85 f8 f8 ff ff 	movq   $0x0,-0x708(%rbp)
   10e74:	00 00 00 00 
   10e78:	48 8d 05 e1 63 01 00 	lea    0x163e1(%rip),%rax        # 27260 <g_3270>
   10e7f:	48 89 85 00 f9 ff ff 	mov    %rax,-0x700(%rbp)
   10e86:	48 8d 85 50 e4 ff ff 	lea    -0x1bb0(%rbp),%rax
   10e8d:	48 89 85 08 f9 ff ff 	mov    %rax,-0x6f8(%rbp)
   10e94:	48 8d 85 ac df ff ff 	lea    -0x2054(%rbp),%rax
   10e9b:	48 89 85 10 f9 ff ff 	mov    %rax,-0x6f0(%rbp)
   10ea2:	48 c7 85 18 f9 ff ff 	movq   $0x0,-0x6e8(%rbp)
   10ea9:	00 00 00 00 
   10ead:	48 8d 85 20 e2 ff ff 	lea    -0x1de0(%rbp),%rax
   10eb4:	48 83 c0 0c          	add    $0xc,%rax
   10eb8:	48 89 85 20 f9 ff ff 	mov    %rax,-0x6e0(%rbp)
   10ebf:	48 8d 05 e6 61 01 00 	lea    0x161e6(%rip),%rax        # 270ac <g_178>
   10ec6:	48 89 85 28 f9 ff ff 	mov    %rax,-0x6d8(%rbp)
   10ecd:	48 c7 85 30 f9 ff ff 	movq   $0x0,-0x6d0(%rbp)
   10ed4:	00 00 00 00 
   10ed8:	48 8d 85 ac df ff ff 	lea    -0x2054(%rbp),%rax
   10edf:	48 89 85 38 f9 ff ff 	mov    %rax,-0x6c8(%rbp)
   10ee6:	48 8d 85 20 e2 ff ff 	lea    -0x1de0(%rbp),%rax
   10eed:	48 83 c0 0c          	add    $0xc,%rax
   10ef1:	48 89 85 40 f9 ff ff 	mov    %rax,-0x6c0(%rbp)
   10ef8:	48 8d 85 ac df ff ff 	lea    -0x2054(%rbp),%rax
   10eff:	48 89 85 48 f9 ff ff 	mov    %rax,-0x6b8(%rbp)
   10f06:	48 c7 85 50 f9 ff ff 	movq   $0x0,-0x6b0(%rbp)
   10f0d:	00 00 00 00 
   10f11:	48 8d 05 4c 61 01 00 	lea    0x1614c(%rip),%rax        # 27064 <g_50>
   10f18:	48 89 85 58 f9 ff ff 	mov    %rax,-0x6a8(%rbp)
   10f1f:	48 8d 85 b0 df ff ff 	lea    -0x2050(%rbp),%rax
   10f26:	48 89 85 60 f9 ff ff 	mov    %rax,-0x6a0(%rbp)
   10f2d:	48 c7 85 68 f9 ff ff 	movq   $0x0,-0x698(%rbp)
   10f34:	00 00 00 00 
   10f38:	48 8d 85 b0 df ff ff 	lea    -0x2050(%rbp),%rax
   10f3f:	48 89 85 70 f9 ff ff 	mov    %rax,-0x690(%rbp)
   10f46:	48 8d 85 b8 df ff ff 	lea    -0x2048(%rbp),%rax
   10f4d:	48 89 85 78 f9 ff ff 	mov    %rax,-0x688(%rbp)
   10f54:	48 8d 05 09 61 01 00 	lea    0x16109(%rip),%rax        # 27064 <g_50>
   10f5b:	48 89 85 80 f9 ff ff 	mov    %rax,-0x680(%rbp)
   10f62:	48 8d 85 20 e2 ff ff 	lea    -0x1de0(%rbp),%rax
   10f69:	48 83 c0 0c          	add    $0xc,%rax
   10f6d:	48 89 85 88 f9 ff ff 	mov    %rax,-0x678(%rbp)
   10f74:	48 8d 85 20 e2 ff ff 	lea    -0x1de0(%rbp),%rax
   10f7b:	48 83 c0 0c          	add    $0xc,%rax
   10f7f:	48 89 85 90 f9 ff ff 	mov    %rax,-0x670(%rbp)
   10f86:	48 8d 85 b0 df ff ff 	lea    -0x2050(%rbp),%rax
   10f8d:	48 89 85 98 f9 ff ff 	mov    %rax,-0x668(%rbp)
   10f94:	48 8d 85 50 e4 ff ff 	lea    -0x1bb0(%rbp),%rax
   10f9b:	48 89 85 a0 f9 ff ff 	mov    %rax,-0x660(%rbp)
   10fa2:	48 8d 85 50 e4 ff ff 	lea    -0x1bb0(%rbp),%rax
   10fa9:	48 89 85 a8 f9 ff ff 	mov    %rax,-0x658(%rbp)
   10fb0:	48 8d 05 f5 60 01 00 	lea    0x160f5(%rip),%rax        # 270ac <g_178>
   10fb7:	48 89 85 b0 f9 ff ff 	mov    %rax,-0x650(%rbp)
   10fbe:	48 c7 85 b8 f9 ff ff 	movq   $0x0,-0x648(%rbp)
   10fc5:	00 00 00 00 
   10fc9:	48 8d 05 54 60 01 00 	lea    0x16054(%rip),%rax        # 27024 <g_8>
   10fd0:	48 89 85 c0 f9 ff ff 	mov    %rax,-0x640(%rbp)
   10fd7:	48 8d 85 b4 df ff ff 	lea    -0x204c(%rbp),%rax
   10fde:	48 89 85 c8 f9 ff ff 	mov    %rax,-0x638(%rbp)
   10fe5:	48 8d 05 c0 60 01 00 	lea    0x160c0(%rip),%rax        # 270ac <g_178>
   10fec:	48 89 85 d0 f9 ff ff 	mov    %rax,-0x630(%rbp)
   10ff3:	48 c7 85 d8 f9 ff ff 	movq   $0x0,-0x628(%rbp)
   10ffa:	00 00 00 00 
   10ffe:	48 8d 05 47 60 01 00 	lea    0x16047(%rip),%rax        # 2704c <g_25+0xc>
   11005:	48 89 85 e0 f9 ff ff 	mov    %rax,-0x620(%rbp)
   1100c:	48 c7 85 e8 f9 ff ff 	movq   $0x0,-0x618(%rbp)
   11013:	00 00 00 00 
   11017:	48 8d 85 a0 e2 ff ff 	lea    -0x1d60(%rbp),%rax
   1101e:	48 83 c0 20          	add    $0x20,%rax
   11022:	48 89 85 f0 f9 ff ff 	mov    %rax,-0x610(%rbp)
   11029:	48 c7 85 f8 f9 ff ff 	movq   $0x0,-0x608(%rbp)
   11030:	00 00 00 00 
   11034:	48 c7 85 00 fa ff ff 	movq   $0x0,-0x600(%rbp)
   1103b:	00 00 00 00 
   1103f:	48 8d 85 b4 df ff ff 	lea    -0x204c(%rbp),%rax
   11046:	48 89 85 08 fa ff ff 	mov    %rax,-0x5f8(%rbp)
   1104d:	48 8d 05 0c 62 01 00 	lea    0x1620c(%rip),%rax        # 27260 <g_3270>
   11054:	48 89 85 10 fa ff ff 	mov    %rax,-0x5f0(%rbp)
   1105b:	48 8d 05 3a 62 01 00 	lea    0x1623a(%rip),%rax        # 2729c <g_3777>
   11062:	48 89 85 18 fa ff ff 	mov    %rax,-0x5e8(%rbp)
   11069:	48 c7 85 20 fa ff ff 	movq   $0x0,-0x5e0(%rbp)
   11070:	00 00 00 00 
   11074:	48 8d 85 a0 e2 ff ff 	lea    -0x1d60(%rbp),%rax
   1107b:	48 83 c0 24          	add    $0x24,%rax
   1107f:	48 89 85 28 fa ff ff 	mov    %rax,-0x5d8(%rbp)
   11086:	48 8d 85 a0 df ff ff 	lea    -0x2060(%rbp),%rax
   1108d:	48 89 85 30 fa ff ff 	mov    %rax,-0x5d0(%rbp)
   11094:	48 8d 85 b4 df ff ff 	lea    -0x204c(%rbp),%rax
   1109b:	48 89 85 38 fa ff ff 	mov    %rax,-0x5c8(%rbp)
   110a2:	48 8d 85 a0 e2 ff ff 	lea    -0x1d60(%rbp),%rax
   110a9:	48 83 c0 04          	add    $0x4,%rax
   110ad:	48 89 85 40 fa ff ff 	mov    %rax,-0x5c0(%rbp)
   110b4:	48 8d 85 c0 df ff ff 	lea    -0x2040(%rbp),%rax
   110bb:	48 89 85 48 fa ff ff 	mov    %rax,-0x5b8(%rbp)
   110c2:	48 8d 05 af 5f 01 00 	lea    0x15faf(%rip),%rax        # 27078 <g_105>
   110c9:	48 89 85 50 fa ff ff 	mov    %rax,-0x5b0(%rbp)
   110d0:	48 8d 85 50 e4 ff ff 	lea    -0x1bb0(%rbp),%rax
   110d7:	48 89 85 58 fa ff ff 	mov    %rax,-0x5a8(%rbp)
   110de:	48 8d 05 7f 5f 01 00 	lea    0x15f7f(%rip),%rax        # 27064 <g_50>
   110e5:	48 89 85 60 fa ff ff 	mov    %rax,-0x5a0(%rbp)
   110ec:	48 8d 85 20 e2 ff ff 	lea    -0x1de0(%rbp),%rax
   110f3:	48 83 c0 0c          	add    $0xc,%rax
   110f7:	48 89 85 68 fa ff ff 	mov    %rax,-0x598(%rbp)
   110fe:	48 8d 05 5b 61 01 00 	lea    0x1615b(%rip),%rax        # 27260 <g_3270>
   11105:	48 89 85 70 fa ff ff 	mov    %rax,-0x590(%rbp)
   1110c:	48 8d 85 9c df ff ff 	lea    -0x2064(%rbp),%rax
   11113:	48 89 85 78 fa ff ff 	mov    %rax,-0x588(%rbp)
   1111a:	48 8d 05 3f 61 01 00 	lea    0x1613f(%rip),%rax        # 27260 <g_3270>
   11121:	48 89 85 80 fa ff ff 	mov    %rax,-0x580(%rbp)
   11128:	48 8d 05 21 5f 01 00 	lea    0x15f21(%rip),%rax        # 27050 <g_25+0x10>
   1112f:	48 89 85 88 fa ff ff 	mov    %rax,-0x578(%rbp)
   11136:	48 8d 85 b4 df ff ff 	lea    -0x204c(%rbp),%rax
   1113d:	48 89 85 90 fa ff ff 	mov    %rax,-0x570(%rbp)
   11144:	48 8d 05 2d 5f 01 00 	lea    0x15f2d(%rip),%rax        # 27078 <g_105>
   1114b:	48 89 85 98 fa ff ff 	mov    %rax,-0x568(%rbp)
   11152:	48 8d 85 20 e2 ff ff 	lea    -0x1de0(%rbp),%rax
   11159:	48 83 c0 08          	add    $0x8,%rax
   1115d:	48 89 85 a0 fa ff ff 	mov    %rax,-0x560(%rbp)
   11164:	48 8d 05 f5 60 01 00 	lea    0x160f5(%rip),%rax        # 27260 <g_3270>
   1116b:	48 89 85 a8 fa ff ff 	mov    %rax,-0x558(%rbp)
   11172:	48 c7 85 b0 fa ff ff 	movq   $0x0,-0x550(%rbp)
   11179:	00 00 00 00 
   1117d:	48 8d 85 a0 e2 ff ff 	lea    -0x1d60(%rbp),%rax
   11184:	48 89 85 b8 fa ff ff 	mov    %rax,-0x548(%rbp)
   1118b:	48 8d 85 a0 e2 ff ff 	lea    -0x1d60(%rbp),%rax
   11192:	48 83 c0 24          	add    $0x24,%rax
   11196:	48 89 85 c0 fa ff ff 	mov    %rax,-0x540(%rbp)
   1119d:	48 8d 85 50 e4 ff ff 	lea    -0x1bb0(%rbp),%rax
   111a4:	48 83 c0 04          	add    $0x4,%rax
   111a8:	48 89 85 c8 fa ff ff 	mov    %rax,-0x538(%rbp)
   111af:	48 8d 85 a0 df ff ff 	lea    -0x2060(%rbp),%rax
   111b6:	48 89 85 d0 fa ff ff 	mov    %rax,-0x530(%rbp)
   111bd:	48 8d 05 8c 5e 01 00 	lea    0x15e8c(%rip),%rax        # 27050 <g_25+0x10>
   111c4:	48 89 85 d8 fa ff ff 	mov    %rax,-0x528(%rbp)
   111cb:	48 c7 85 e0 fa ff ff 	movq   $0x0,-0x520(%rbp)
   111d2:	00 00 00 00 
   111d6:	48 c7 85 e8 fa ff ff 	movq   $0x0,-0x518(%rbp)
   111dd:	00 00 00 00 
   111e1:	48 8d 85 b0 df ff ff 	lea    -0x2050(%rbp),%rax
   111e8:	48 89 85 f0 fa ff ff 	mov    %rax,-0x510(%rbp)
   111ef:	48 8d 05 6a 60 01 00 	lea    0x1606a(%rip),%rax        # 27260 <g_3270>
   111f6:	48 89 85 f8 fa ff ff 	mov    %rax,-0x508(%rbp)
   111fd:	48 8d 05 74 5e 01 00 	lea    0x15e74(%rip),%rax        # 27078 <g_105>
   11204:	48 89 85 00 fb ff ff 	mov    %rax,-0x500(%rbp)
   1120b:	48 8d 85 a0 e2 ff ff 	lea    -0x1d60(%rbp),%rax
   11212:	48 83 c0 10          	add    $0x10,%rax
   11216:	48 89 85 08 fb ff ff 	mov    %rax,-0x4f8(%rbp)
   1121d:	48 8d 05 78 60 01 00 	lea    0x16078(%rip),%rax        # 2729c <g_3777>
   11224:	48 89 85 10 fb ff ff 	mov    %rax,-0x4f0(%rbp)
   1122b:	48 8d 85 20 e2 ff ff 	lea    -0x1de0(%rbp),%rax
   11232:	48 83 c0 0c          	add    $0xc,%rax
   11236:	48 89 85 18 fb ff ff 	mov    %rax,-0x4e8(%rbp)
   1123d:	48 8d 05 68 5e 01 00 	lea    0x15e68(%rip),%rax        # 270ac <g_178>
   11244:	48 89 85 20 fb ff ff 	mov    %rax,-0x4e0(%rbp)
   1124b:	48 8d 05 0e 60 01 00 	lea    0x1600e(%rip),%rax        # 27260 <g_3270>
   11252:	48 89 85 28 fb ff ff 	mov    %rax,-0x4d8(%rbp)
   11259:	48 c7 85 30 fb ff ff 	movq   $0x0,-0x4d0(%rbp)
   11260:	00 00 00 00 
   11264:	48 8d 05 f5 5f 01 00 	lea    0x15ff5(%rip),%rax        # 27260 <g_3270>
   1126b:	48 89 85 38 fb ff ff 	mov    %rax,-0x4c8(%rbp)
   11272:	48 c7 85 40 fb ff ff 	movq   $0x0,-0x4c0(%rbp)
   11279:	00 00 00 00 
   1127d:	48 8d 05 dc 5f 01 00 	lea    0x15fdc(%rip),%rax        # 27260 <g_3270>
   11284:	48 89 85 48 fb ff ff 	mov    %rax,-0x4b8(%rbp)
   1128b:	48 8d 05 be 5d 01 00 	lea    0x15dbe(%rip),%rax        # 27050 <g_25+0x10>
   11292:	48 89 85 50 fb ff ff 	mov    %rax,-0x4b0(%rbp)
   11299:	48 8d 85 50 e4 ff ff 	lea    -0x1bb0(%rbp),%rax
   112a0:	48 89 85 58 fb ff ff 	mov    %rax,-0x4a8(%rbp)
   112a7:	48 8d 05 a2 5d 01 00 	lea    0x15da2(%rip),%rax        # 27050 <g_25+0x10>
   112ae:	48 89 85 60 fb ff ff 	mov    %rax,-0x4a0(%rbp)
   112b5:	48 c7 85 68 fb ff ff 	movq   $0x0,-0x498(%rbp)
   112bc:	00 00 00 00 
   112c0:	48 c7 85 70 fb ff ff 	movq   $0x0,-0x490(%rbp)
   112c7:	00 00 00 00 
   112cb:	48 8d 05 96 5e 01 00 	lea    0x15e96(%rip),%rax        # 27168 <g_2257>
   112d2:	48 89 85 78 fb ff ff 	mov    %rax,-0x488(%rbp)
   112d9:	48 8d 05 84 5d 01 00 	lea    0x15d84(%rip),%rax        # 27064 <g_50>
   112e0:	48 89 85 80 fb ff ff 	mov    %rax,-0x480(%rbp)
   112e7:	48 8d 05 7a 5e 01 00 	lea    0x15e7a(%rip),%rax        # 27168 <g_2257>
   112ee:	48 89 85 88 fb ff ff 	mov    %rax,-0x478(%rbp)
   112f5:	48 c7 85 90 fb ff ff 	movq   $0x0,-0x470(%rbp)
   112fc:	00 00 00 00 
   11300:	48 c7 85 98 fb ff ff 	movq   $0x0,-0x468(%rbp)
   11307:	00 00 00 00 
   1130b:	48 8d 85 a0 e2 ff ff 	lea    -0x1d60(%rbp),%rax
   11312:	48 83 c0 14          	add    $0x14,%rax
   11316:	48 89 85 a0 fb ff ff 	mov    %rax,-0x460(%rbp)
   1131d:	48 8d 05 44 5e 01 00 	lea    0x15e44(%rip),%rax        # 27168 <g_2257>
   11324:	48 89 85 a8 fb ff ff 	mov    %rax,-0x458(%rbp)
   1132b:	48 8d 85 b0 df ff ff 	lea    -0x2050(%rbp),%rax
   11332:	48 89 85 b0 fb ff ff 	mov    %rax,-0x450(%rbp)
   11339:	48 8d 85 ac df ff ff 	lea    -0x2054(%rbp),%rax
   11340:	48 89 85 b8 fb ff ff 	mov    %rax,-0x448(%rbp)
   11347:	48 c7 85 c0 fb ff ff 	movq   $0x0,-0x440(%rbp)
   1134e:	00 00 00 00 
   11352:	48 8d 05 0f 5e 01 00 	lea    0x15e0f(%rip),%rax        # 27168 <g_2257>
   11359:	48 89 85 c8 fb ff ff 	mov    %rax,-0x438(%rbp)
   11360:	48 c7 85 d0 fb ff ff 	movq   $0x0,-0x430(%rbp)
   11367:	00 00 00 00 
   1136b:	48 8d 85 20 e2 ff ff 	lea    -0x1de0(%rbp),%rax
   11372:	48 83 c0 0c          	add    $0xc,%rax
   11376:	48 89 85 d8 fb ff ff 	mov    %rax,-0x428(%rbp)
   1137d:	48 8d 05 e4 5d 01 00 	lea    0x15de4(%rip),%rax        # 27168 <g_2257>
   11384:	48 89 85 e0 fb ff ff 	mov    %rax,-0x420(%rbp)
   1138b:	48 8d 85 a0 e2 ff ff 	lea    -0x1d60(%rbp),%rax
   11392:	48 83 c0 04          	add    $0x4,%rax
   11396:	48 89 85 e8 fb ff ff 	mov    %rax,-0x418(%rbp)
   1139d:	48 c7 85 f0 fb ff ff 	movq   $0x0,-0x410(%rbp)
   113a4:	00 00 00 00 
   113a8:	48 8d 85 a4 df ff ff 	lea    -0x205c(%rbp),%rax
   113af:	48 89 85 f8 fb ff ff 	mov    %rax,-0x408(%rbp)
   113b6:	48 8d 85 ac df ff ff 	lea    -0x2054(%rbp),%rax
   113bd:	48 89 85 00 fc ff ff 	mov    %rax,-0x400(%rbp)
   113c4:	48 c7 85 08 fc ff ff 	movq   $0x0,-0x3f8(%rbp)
   113cb:	00 00 00 00 
   113cf:	48 8d 85 a0 e2 ff ff 	lea    -0x1d60(%rbp),%rax
   113d6:	48 89 85 10 fc ff ff 	mov    %rax,-0x3f0(%rbp)
   113dd:	48 8d 85 ac df ff ff 	lea    -0x2054(%rbp),%rax
   113e4:	48 89 85 18 fc ff ff 	mov    %rax,-0x3e8(%rbp)
   113eb:	48 c7 85 20 fc ff ff 	movq   $0x0,-0x3e0(%rbp)
   113f2:	00 00 00 00 
   113f6:	48 8d 85 a0 e2 ff ff 	lea    -0x1d60(%rbp),%rax
   113fd:	48 83 c0 10          	add    $0x10,%rax
   11401:	48 89 85 28 fc ff ff 	mov    %rax,-0x3d8(%rbp)
   11408:	48 8d 85 b0 df ff ff 	lea    -0x2050(%rbp),%rax
   1140f:	48 89 85 30 fc ff ff 	mov    %rax,-0x3d0(%rbp)
   11416:	48 8d 05 33 5c 01 00 	lea    0x15c33(%rip),%rax        # 27050 <g_25+0x10>
   1141d:	48 89 85 38 fc ff ff 	mov    %rax,-0x3c8(%rbp)
   11424:	48 8d 85 a8 df ff ff 	lea    -0x2058(%rbp),%rax
   1142b:	48 89 85 40 fc ff ff 	mov    %rax,-0x3c0(%rbp)
   11432:	48 8d 05 27 5e 01 00 	lea    0x15e27(%rip),%rax        # 27260 <g_3270>
   11439:	48 89 85 48 fc ff ff 	mov    %rax,-0x3b8(%rbp)
   11440:	48 8d 05 21 5d 01 00 	lea    0x15d21(%rip),%rax        # 27168 <g_2257>
   11447:	48 89 85 50 fc ff ff 	mov    %rax,-0x3b0(%rbp)
   1144e:	48 8d 05 0f 5c 01 00 	lea    0x15c0f(%rip),%rax        # 27064 <g_50>
   11455:	48 89 85 58 fc ff ff 	mov    %rax,-0x3a8(%rbp)
   1145c:	48 8d 85 50 e4 ff ff 	lea    -0x1bb0(%rbp),%rax
   11463:	48 83 c0 04          	add    $0x4,%rax
   11467:	48 89 85 60 fc ff ff 	mov    %rax,-0x3a0(%rbp)
   1146e:	48 8d 05 d3 5b 01 00 	lea    0x15bd3(%rip),%rax        # 27048 <g_25+0x8>
   11475:	48 89 85 68 fc ff ff 	mov    %rax,-0x398(%rbp)
   1147c:	48 8d 85 a8 df ff ff 	lea    -0x2058(%rbp),%rax
   11483:	48 89 85 70 fc ff ff 	mov    %rax,-0x390(%rbp)
   1148a:	48 8d 85 a0 e2 ff ff 	lea    -0x1d60(%rbp),%rax
   11491:	48 89 85 78 fc ff ff 	mov    %rax,-0x388(%rbp)
   11498:	48 8d 85 50 e4 ff ff 	lea    -0x1bb0(%rbp),%rax
   1149f:	48 89 85 80 fc ff ff 	mov    %rax,-0x380(%rbp)
   114a6:	48 c7 85 88 fc ff ff 	movq   $0x0,-0x378(%rbp)
   114ad:	00 00 00 00 
   114b1:	48 c7 85 90 fc ff ff 	movq   $0x0,-0x370(%rbp)
   114b8:	00 00 00 00 
   114bc:	48 8d 85 ac df ff ff 	lea    -0x2054(%rbp),%rax
   114c3:	48 89 85 98 fc ff ff 	mov    %rax,-0x368(%rbp)
   114ca:	48 c7 85 a0 fc ff ff 	movq   $0x0,-0x360(%rbp)
   114d1:	00 00 00 00 
   114d5:	48 c7 85 a8 fc ff ff 	movq   $0x0,-0x358(%rbp)
   114dc:	00 00 00 00 
   114e0:	48 c7 85 b0 fc ff ff 	movq   $0x0,-0x350(%rbp)
   114e7:	00 00 00 00 
   114eb:	48 8d 05 72 5b 01 00 	lea    0x15b72(%rip),%rax        # 27064 <g_50>
   114f2:	48 89 85 b8 fc ff ff 	mov    %rax,-0x348(%rbp)
   114f9:	48 c7 85 c0 fc ff ff 	movq   $0x0,-0x340(%rbp)
   11500:	00 00 00 00 
   11504:	48 8d 85 20 e2 ff ff 	lea    -0x1de0(%rbp),%rax
   1150b:	48 83 c0 0c          	add    $0xc,%rax
   1150f:	48 89 85 c8 fc ff ff 	mov    %rax,-0x338(%rbp)
   11516:	48 c7 85 d0 fc ff ff 	movq   $0x0,-0x330(%rbp)
   1151d:	00 00 00 00 
   11521:	48 c7 85 d8 fc ff ff 	movq   $0x0,-0x328(%rbp)
   11528:	00 00 00 00 
   1152c:	48 8d 05 31 5b 01 00 	lea    0x15b31(%rip),%rax        # 27064 <g_50>
   11533:	48 89 85 e0 fc ff ff 	mov    %rax,-0x320(%rbp)
   1153a:	48 c7 85 e8 fc ff ff 	movq   $0x0,-0x318(%rbp)
   11541:	00 00 00 00 
   11545:	48 8d 05 1c 5c 01 00 	lea    0x15c1c(%rip),%rax        # 27168 <g_2257>
   1154c:	48 89 85 f0 fc ff ff 	mov    %rax,-0x310(%rbp)
   11553:	48 8d 85 ac df ff ff 	lea    -0x2054(%rbp),%rax
   1155a:	48 89 85 f8 fc ff ff 	mov    %rax,-0x308(%rbp)
   11561:	48 8d 05 10 5b 01 00 	lea    0x15b10(%rip),%rax        # 27078 <g_105>
   11568:	48 89 85 00 fd ff ff 	mov    %rax,-0x300(%rbp)
   1156f:	48 8d 05 36 5b 01 00 	lea    0x15b36(%rip),%rax        # 270ac <g_178>
   11576:	48 89 85 08 fd ff ff 	mov    %rax,-0x2f8(%rbp)
   1157d:	48 8d 85 a0 e2 ff ff 	lea    -0x1d60(%rbp),%rax
   11584:	48 83 c0 04          	add    $0x4,%rax
   11588:	48 89 85 10 fd ff ff 	mov    %rax,-0x2f0(%rbp)
   1158f:	48 c7 85 18 fd ff ff 	movq   $0x0,-0x2e8(%rbp)
   11596:	00 00 00 00 
   1159a:	48 8d 85 b4 df ff ff 	lea    -0x204c(%rbp),%rax
   115a1:	48 89 85 20 fd ff ff 	mov    %rax,-0x2e0(%rbp)
   115a8:	48 8d 85 20 e2 ff ff 	lea    -0x1de0(%rbp),%rax
   115af:	48 83 c0 08          	add    $0x8,%rax
   115b3:	48 89 85 28 fd ff ff 	mov    %rax,-0x2d8(%rbp)
   115ba:	48 c7 85 30 fd ff ff 	movq   $0x0,-0x2d0(%rbp)
   115c1:	00 00 00 00 
   115c5:	48 8d 05 ac 5a 01 00 	lea    0x15aac(%rip),%rax        # 27078 <g_105>
   115cc:	48 89 85 38 fd ff ff 	mov    %rax,-0x2c8(%rbp)
   115d3:	48 c7 85 40 fd ff ff 	movq   $0x0,-0x2c0(%rbp)
   115da:	00 00 00 00 
   115de:	48 8d 85 b8 df ff ff 	lea    -0x2048(%rbp),%rax
   115e5:	48 89 85 48 fd ff ff 	mov    %rax,-0x2b8(%rbp)
   115ec:	48 8d 05 a9 5c 01 00 	lea    0x15ca9(%rip),%rax        # 2729c <g_3777>
   115f3:	48 89 85 50 fd ff ff 	mov    %rax,-0x2b0(%rbp)
   115fa:	48 8d 05 63 5a 01 00 	lea    0x15a63(%rip),%rax        # 27064 <g_50>
   11601:	48 89 85 58 fd ff ff 	mov    %rax,-0x2a8(%rbp)
   11608:	48 8d 85 b4 df ff ff 	lea    -0x204c(%rbp),%rax
   1160f:	48 89 85 60 fd ff ff 	mov    %rax,-0x2a0(%rbp)
   11616:	48 8d 05 7f 5c 01 00 	lea    0x15c7f(%rip),%rax        # 2729c <g_3777>
   1161d:	48 89 85 68 fd ff ff 	mov    %rax,-0x298(%rbp)
   11624:	48 8d 85 20 e2 ff ff 	lea    -0x1de0(%rbp),%rax
   1162b:	48 83 c0 0c          	add    $0xc,%rax
   1162f:	48 89 85 70 fd ff ff 	mov    %rax,-0x290(%rbp)
   11636:	48 8d 85 a4 df ff ff 	lea    -0x205c(%rbp),%rax
   1163d:	48 89 85 78 fd ff ff 	mov    %rax,-0x288(%rbp)
   11644:	48 c7 85 80 fd ff ff 	movq   $0x0,-0x280(%rbp)
   1164b:	00 00 00 00 
   1164f:	48 8d 85 50 e4 ff ff 	lea    -0x1bb0(%rbp),%rax
   11656:	48 89 85 88 fd ff ff 	mov    %rax,-0x278(%rbp)
   1165d:	48 c7 85 90 fd ff ff 	movq   $0x0,-0x270(%rbp)
   11664:	00 00 00 00 
   11668:	48 8d 05 f1 5b 01 00 	lea    0x15bf1(%rip),%rax        # 27260 <g_3270>
   1166f:	48 89 85 98 fd ff ff 	mov    %rax,-0x268(%rbp)
   11676:	48 8d 85 9c df ff ff 	lea    -0x2064(%rbp),%rax
   1167d:	48 89 85 a0 fd ff ff 	mov    %rax,-0x260(%rbp)
   11684:	48 8d 85 a4 df ff ff 	lea    -0x205c(%rbp),%rax
   1168b:	48 89 85 a8 fd ff ff 	mov    %rax,-0x258(%rbp)
   11692:	48 8d 85 b4 df ff ff 	lea    -0x204c(%rbp),%rax
   11699:	48 89 85 b0 fd ff ff 	mov    %rax,-0x250(%rbp)
   116a0:	48 c7 85 b8 fd ff ff 	movq   $0x0,-0x248(%rbp)
   116a7:	00 00 00 00 
   116ab:	48 8d 85 a0 e2 ff ff 	lea    -0x1d60(%rbp),%rax
   116b2:	48 83 c0 20          	add    $0x20,%rax
   116b6:	48 89 85 c0 fd ff ff 	mov    %rax,-0x240(%rbp)
   116bd:	48 8d 05 e8 59 01 00 	lea    0x159e8(%rip),%rax        # 270ac <g_178>
   116c4:	48 89 85 c8 fd ff ff 	mov    %rax,-0x238(%rbp)
   116cb:	48 8d 85 b4 df ff ff 	lea    -0x204c(%rbp),%rax
   116d2:	48 89 85 d0 fd ff ff 	mov    %rax,-0x230(%rbp)
   116d9:	48 c7 85 d8 fd ff ff 	movq   $0x0,-0x228(%rbp)
   116e0:	00 00 00 00 
   116e4:	48 8d 85 b0 df ff ff 	lea    -0x2050(%rbp),%rax
   116eb:	48 89 85 e0 fd ff ff 	mov    %rax,-0x220(%rbp)
   116f2:	48 8d 85 c0 df ff ff 	lea    -0x2040(%rbp),%rax
   116f9:	48 89 85 e8 fd ff ff 	mov    %rax,-0x218(%rbp)
   11700:	48 8d 05 1d 59 01 00 	lea    0x1591d(%rip),%rax        # 27024 <g_8>
   11707:	48 89 85 f0 fd ff ff 	mov    %rax,-0x210(%rbp)
   1170e:	48 8d 85 20 e2 ff ff 	lea    -0x1de0(%rbp),%rax
   11715:	48 83 c0 0c          	add    $0xc,%rax
   11719:	48 89 85 f8 fd ff ff 	mov    %rax,-0x208(%rbp)
   11720:	48 c7 85 00 fe ff ff 	movq   $0x0,-0x200(%rbp)
   11727:	00 00 00 00 
   1172b:	48 8d 85 20 e2 ff ff 	lea    -0x1de0(%rbp),%rax
   11732:	48 83 c0 04          	add    $0x4,%rax
   11736:	48 89 85 08 fe ff ff 	mov    %rax,-0x1f8(%rbp)
   1173d:	48 8d 85 50 e4 ff ff 	lea    -0x1bb0(%rbp),%rax
   11744:	48 89 85 10 fe ff ff 	mov    %rax,-0x1f0(%rbp)
   1174b:	48 8d 85 a0 e2 ff ff 	lea    -0x1d60(%rbp),%rax
   11752:	48 83 c0 10          	add    $0x10,%rax
   11756:	48 89 85 18 fe ff ff 	mov    %rax,-0x1e8(%rbp)
   1175d:	48 8d 85 a0 e2 ff ff 	lea    -0x1d60(%rbp),%rax
   11764:	48 83 c0 20          	add    $0x20,%rax
   11768:	48 89 85 20 fe ff ff 	mov    %rax,-0x1e0(%rbp)
   1176f:	48 8d 85 a0 e2 ff ff 	lea    -0x1d60(%rbp),%rax
   11776:	48 83 c0 14          	add    $0x14,%rax
   1177a:	48 89 85 28 fe ff ff 	mov    %rax,-0x1d8(%rbp)
   11781:	48 8d 05 24 59 01 00 	lea    0x15924(%rip),%rax        # 270ac <g_178>
   11788:	48 89 85 30 fe ff ff 	mov    %rax,-0x1d0(%rbp)
   1178f:	48 c7 85 38 fe ff ff 	movq   $0x0,-0x1c8(%rbp)
   11796:	00 00 00 00 
   1179a:	48 c7 85 40 fe ff ff 	movq   $0x0,-0x1c0(%rbp)
   117a1:	00 00 00 00 
   117a5:	48 8d 85 50 e4 ff ff 	lea    -0x1bb0(%rbp),%rax
   117ac:	48 89 85 48 fe ff ff 	mov    %rax,-0x1b8(%rbp)
   117b3:	48 c7 85 50 fe ff ff 	movq   $0x0,-0x1b0(%rbp)
   117ba:	00 00 00 00 
   117be:	48 c7 85 58 fe ff ff 	movq   $0x0,-0x1a8(%rbp)
   117c5:	00 00 00 00 
   117c9:	48 8d 85 b8 df ff ff 	lea    -0x2048(%rbp),%rax
   117d0:	48 89 85 60 fe ff ff 	mov    %rax,-0x1a0(%rbp)
   117d7:	48 8d 85 b8 df ff ff 	lea    -0x2048(%rbp),%rax
   117de:	48 89 85 68 fe ff ff 	mov    %rax,-0x198(%rbp)
   117e5:	48 8d 85 b8 df ff ff 	lea    -0x2048(%rbp),%rax
   117ec:	48 89 85 70 fe ff ff 	mov    %rax,-0x190(%rbp)
   117f3:	48 8d 85 b8 df ff ff 	lea    -0x2048(%rbp),%rax
   117fa:	48 89 85 78 fe ff ff 	mov    %rax,-0x188(%rbp)
   11801:	48 c7 85 80 fe ff ff 	movq   $0x0,-0x180(%rbp)
   11808:	00 00 00 00 
   1180c:	48 c7 85 88 fe ff ff 	movq   $0x0,-0x178(%rbp)
   11813:	00 00 00 00 
   11817:	48 c7 85 90 fe ff ff 	movq   $0x0,-0x170(%rbp)
   1181e:	00 00 00 00 
   11822:	48 8d 05 4f 58 01 00 	lea    0x1584f(%rip),%rax        # 27078 <g_105>
   11829:	48 89 85 98 fe ff ff 	mov    %rax,-0x168(%rbp)
   11830:	48 8d 05 11 58 01 00 	lea    0x15811(%rip),%rax        # 27048 <g_25+0x8>
   11837:	48 89 85 a0 fe ff ff 	mov    %rax,-0x160(%rbp)
   1183e:	48 8d 85 a4 df ff ff 	lea    -0x205c(%rbp),%rax
   11845:	48 89 85 a8 fe ff ff 	mov    %rax,-0x158(%rbp)
   1184c:	48 c7 85 b0 fe ff ff 	movq   $0x0,-0x150(%rbp)
   11853:	00 00 00 00 
   11857:	48 8d 05 0a 59 01 00 	lea    0x1590a(%rip),%rax        # 27168 <g_2257>
   1185e:	48 89 85 b8 fe ff ff 	mov    %rax,-0x148(%rbp)
   11865:	48 8d 05 30 5a 01 00 	lea    0x15a30(%rip),%rax        # 2729c <g_3777>
   1186c:	48 89 85 c0 fe ff ff 	mov    %rax,-0x140(%rbp)
   11873:	48 8d 85 a0 e2 ff ff 	lea    -0x1d60(%rbp),%rax
   1187a:	48 83 c0 10          	add    $0x10,%rax
   1187e:	48 89 85 c8 fe ff ff 	mov    %rax,-0x138(%rbp)
   11885:	48 8d 05 ec 57 01 00 	lea    0x157ec(%rip),%rax        # 27078 <g_105>
   1188c:	48 89 85 d0 fe ff ff 	mov    %rax,-0x130(%rbp)
   11893:	48 c7 85 d8 fe ff ff 	movq   $0x0,-0x128(%rbp)
   1189a:	00 00 00 00 
   1189e:	48 8d 05 bb 59 01 00 	lea    0x159bb(%rip),%rax        # 27260 <g_3270>
   118a5:	48 89 85 e0 fe ff ff 	mov    %rax,-0x120(%rbp)
   118ac:	48 8d 05 b1 57 01 00 	lea    0x157b1(%rip),%rax        # 27064 <g_50>
   118b3:	48 89 85 e8 fe ff ff 	mov    %rax,-0x118(%rbp)
   118ba:	48 8d 85 a4 df ff ff 	lea    -0x205c(%rbp),%rax
   118c1:	48 89 85 f0 fe ff ff 	mov    %rax,-0x110(%rbp)
   118c8:	48 8d 05 99 58 01 00 	lea    0x15899(%rip),%rax        # 27168 <g_2257>
   118cf:	48 89 85 f8 fe ff ff 	mov    %rax,-0x108(%rbp)
   118d6:	48 8d 05 8b 58 01 00 	lea    0x1588b(%rip),%rax        # 27168 <g_2257>
   118dd:	48 89 85 00 ff ff ff 	mov    %rax,-0x100(%rbp)
   118e4:	48 8d 85 50 e4 ff ff 	lea    -0x1bb0(%rbp),%rax
   118eb:	48 83 c0 04          	add    $0x4,%rax
   118ef:	48 89 85 08 ff ff ff 	mov    %rax,-0xf8(%rbp)
   118f6:	48 8d 85 b0 df ff ff 	lea    -0x2050(%rbp),%rax
   118fd:	48 89 85 10 ff ff ff 	mov    %rax,-0xf0(%rbp)
   11904:	48 8d 05 6d 57 01 00 	lea    0x1576d(%rip),%rax        # 27078 <g_105>
   1190b:	48 89 85 18 ff ff ff 	mov    %rax,-0xe8(%rbp)
   11912:	48 8d 85 50 e4 ff ff 	lea    -0x1bb0(%rbp),%rax
   11919:	48 89 85 20 ff ff ff 	mov    %rax,-0xe0(%rbp)
   11920:	48 8d 85 a0 e2 ff ff 	lea    -0x1d60(%rbp),%rax
   11927:	48 83 c0 20          	add    $0x20,%rax
   1192b:	48 89 85 28 ff ff ff 	mov    %rax,-0xd8(%rbp)
   11932:	48 8d 05 27 59 01 00 	lea    0x15927(%rip),%rax        # 27260 <g_3270>
   11939:	48 89 85 30 ff ff ff 	mov    %rax,-0xd0(%rbp)
   11940:	48 8d 85 b8 df ff ff 	lea    -0x2048(%rbp),%rax
   11947:	48 89 85 38 ff ff ff 	mov    %rax,-0xc8(%rbp)
   1194e:	48 8d 05 0b 59 01 00 	lea    0x1590b(%rip),%rax        # 27260 <g_3270>
   11955:	48 89 85 40 ff ff ff 	mov    %rax,-0xc0(%rbp)
   1195c:	48 8d 85 9c df ff ff 	lea    -0x2064(%rbp),%rax
   11963:	48 89 85 48 ff ff ff 	mov    %rax,-0xb8(%rbp)
   1196a:	48 8d 85 50 e4 ff ff 	lea    -0x1bb0(%rbp),%rax
   11971:	48 83 c0 04          	add    $0x4,%rax
   11975:	48 89 85 50 ff ff ff 	mov    %rax,-0xb0(%rbp)
   1197c:	48 c7 85 58 ff ff ff 	movq   $0x0,-0xa8(%rbp)
   11983:	00 00 00 00 
   11987:	48 c7 85 60 ff ff ff 	movq   $0x0,-0xa0(%rbp)
   1198e:	00 00 00 00 
   11992:	48 8d 85 a0 e2 ff ff 	lea    -0x1d60(%rbp),%rax
   11999:	48 83 c0 0c          	add    $0xc,%rax
   1199d:	48 89 85 68 ff ff ff 	mov    %rax,-0x98(%rbp)
   119a4:	48 c7 85 70 ff ff ff 	movq   $0x0,-0x90(%rbp)
   119ab:	00 00 00 00 
   119af:	48 c7 85 78 ff ff ff 	movq   $0x0,-0x88(%rbp)
   119b6:	00 00 00 00 
   119ba:	48 8d 85 a0 e2 ff ff 	lea    -0x1d60(%rbp),%rax
   119c1:	48 83 c0 10          	add    $0x10,%rax
   119c5:	48 89 45 80          	mov    %rax,-0x80(%rbp)
   119c9:	48 8d 85 b8 df ff ff 	lea    -0x2048(%rbp),%rax
   119d0:	48 89 45 88          	mov    %rax,-0x78(%rbp)
   119d4:	48 83 bd c8 e1 ff ff 	cmpq   $0x0,-0x1e38(%rbp)
   119db:	00 
   119dc:	0f 95 c0             	setne  %al
   119df:	44 0f b6 e0          	movzbl %al,%r12d
   119e3:	48 8b 85 d8 e1 ff ff 	mov    -0x1e28(%rbp),%rax
   119ea:	0f b6 d8             	movzbl %al,%ebx
   119ed:	48 8b 05 74 58 01 00 	mov    0x15874(%rip),%rax        # 27268 <g_3382>
   119f4:	98                   	cwtl   
   119f5:	be 01 00 00 00       	mov    $0x1,%esi
   119fa:	89 c7                	mov    %eax,%edi
   119fc:	e8 b2 b9 ff ff       	callq  d3b3 <safe_add_func_int16_t_s_s>
   11a01:	89 de                	mov    %ebx,%esi
   11a03:	bf 6d 00 00 00       	mov    $0x6d,%edi
   11a08:	e8 86 c1 ff ff       	callq  db93 <safe_mul_func_uint8_t_u_u>
   11a0d:	0f b6 d0             	movzbl %al,%edx
   11a10:	48 8b b5 a8 ec ff ff 	mov    -0x1358(%rbp),%rsi
   11a17:	48 8b 05 52 9e 01 00 	mov    0x19e52(%rip),%rax        # 2b870 <g_3611>
   11a1e:	48 8b 8d f0 e0 ff ff 	mov    -0x1f10(%rbp),%rcx
   11a25:	48 89 08             	mov    %rcx,(%rax)
   11a28:	48 8b 00             	mov    (%rax),%rax
   11a2b:	48 39 c6             	cmp    %rax,%rsi
   11a2e:	0f 95 c0             	setne  %al
   11a31:	0f b6 c8             	movzbl %al,%ecx
   11a34:	48 8b 85 d8 e0 ff ff 	mov    -0x1f28(%rbp),%rax
   11a3b:	0f b7 00             	movzwl (%rax),%eax
   11a3e:	21 c1                	and    %eax,%ecx
   11a40:	48 8b 85 d8 e0 ff ff 	mov    -0x1f28(%rbp),%rax
   11a47:	66 89 08             	mov    %cx,(%rax)
   11a4a:	48 8b 85 d8 e0 ff ff 	mov    -0x1f28(%rbp),%rax
   11a51:	0f b7 00             	movzwl (%rax),%eax
   11a54:	98                   	cwtl   
   11a55:	89 d6                	mov    %edx,%esi
   11a57:	89 c7                	mov    %eax,%edi
   11a59:	e8 75 b9 ff ff       	callq  d3d3 <safe_sub_func_int16_t_s_s>
   11a5e:	48 0f bf d0          	movswq %ax,%rdx
   11a62:	48 8b 85 a0 e0 ff ff 	mov    -0x1f60(%rbp),%rax
   11a69:	48 89 10             	mov    %rdx,(%rax)
   11a6c:	48 8b 85 a0 e0 ff ff 	mov    -0x1f60(%rbp),%rax
   11a73:	48 8b 00             	mov    (%rax),%rax
   11a76:	89 c2                	mov    %eax,%edx
   11a78:	8b 85 78 df ff ff    	mov    -0x2088(%rbp),%eax
   11a7e:	21 d0                	and    %edx,%eax
   11a80:	0f b6 c0             	movzbl %al,%eax
   11a83:	be 00 00 00 00       	mov    $0x0,%esi
   11a88:	89 c7                	mov    %eax,%edi
   11a8a:	e8 e9 c0 ff ff       	callq  db78 <safe_sub_func_uint8_t_u_u>
   11a8f:	0f b6 c0             	movzbl %al,%eax
   11a92:	41 39 c4             	cmp    %eax,%r12d
   11a95:	75 11                	jne    11aa8 <func_2+0x2f19>
   11a97:	66 83 bd 7c df ff ff 	cmpw   $0x0,-0x2084(%rbp)
   11a9e:	00 
   11a9f:	74 07                	je     11aa8 <func_2+0x2f19>
   11aa1:	b8 01 00 00 00       	mov    $0x1,%eax
   11aa6:	eb 05                	jmp    11aad <func_2+0x2f1e>
   11aa8:	b8 00 00 00 00       	mov    $0x0,%eax
   11aad:	48 98                	cltq   
   11aaf:	be 08 00 00 00       	mov    $0x8,%esi
   11ab4:	48 89 c7             	mov    %rax,%rdi
   11ab7:	e8 3b bf ff ff       	callq  d9f7 <safe_div_func_int64_t_s_s>
   11abc:	0f bf d0             	movswl %ax,%edx
   11abf:	0f bf 85 7c df ff ff 	movswl -0x2084(%rbp),%eax
   11ac6:	89 d6                	mov    %edx,%esi
   11ac8:	89 c7                	mov    %eax,%edi
   11aca:	e8 47 b9 ff ff       	callq  d416 <safe_mod_func_int16_t_s_s>
   11acf:	66 85 c0             	test   %ax,%ax
   11ad2:	74 07                	je     11adb <func_2+0x2f4c>
   11ad4:	b8 01 00 00 00       	mov    $0x1,%eax
   11ad9:	eb 05                	jmp    11ae0 <func_2+0x2f51>
   11adb:	b8 00 00 00 00       	mov    $0x0,%eax
   11ae0:	3b 85 64 df ff ff    	cmp    -0x209c(%rbp),%eax
   11ae6:	0f 9f c0             	setg   %al
   11ae9:	0f b6 d0             	movzbl %al,%edx
   11aec:	48 8b 05 4d 90 01 00 	mov    0x1904d(%rip),%rax        # 2ab40 <g_2467>
   11af3:	0f b6 00             	movzbl (%rax),%eax
   11af6:	0f be c0             	movsbl %al,%eax
   11af9:	39 c2                	cmp    %eax,%edx
   11afb:	0f 9e c0             	setle  %al
   11afe:	0f b6 d0             	movzbl %al,%edx
   11b01:	48 8b 85 e0 e1 ff ff 	mov    -0x1e20(%rbp),%rax
   11b08:	89 10                	mov    %edx,(%rax)
   11b0a:	48 8d 85 b8 df ff ff 	lea    -0x2048(%rbp),%rax
   11b11:	48 89 85 20 e1 ff ff 	mov    %rax,-0x1ee0(%rbp)
   11b18:	66 83 ad 96 df ff ff 	subw   $0x1,-0x206a(%rbp)
   11b1f:	01 
   11b20:	48 8b 05 d9 55 01 00 	mov    0x155d9(%rip),%rax        # 27100 <g_699>
   11b27:	48 83 e8 01          	sub    $0x1,%rax
   11b2b:	48 89 05 ce 55 01 00 	mov    %rax,0x155ce(%rip)        # 27100 <g_699>
   11b32:	48 8b 05 c7 55 01 00 	mov    0x155c7(%rip),%rax        # 27100 <g_699>
   11b39:	48 85 c0             	test   %rax,%rax
   11b3c:	0f 89 6a f1 ff ff    	jns    10cac <func_2+0x211d>
   11b42:	48 8b 85 28 e1 ff ff 	mov    -0x1ed8(%rbp),%rax
   11b49:	89 c2                	mov    %eax,%edx
   11b4b:	8b 85 64 df ff ff    	mov    -0x209c(%rbp),%eax
   11b51:	21 d0                	and    %edx,%eax
   11b53:	89 85 64 df ff ff    	mov    %eax,-0x209c(%rbp)
   11b59:	e9 12 09 00 00       	jmpq   12470 <func_2+0x38e1>
   11b5e:	48 c7 85 50 e1 ff ff 	movq   $0x0,-0x1eb0(%rbp)
   11b65:	00 00 00 00 
   11b69:	c7 85 c8 df ff ff d9 	movl   $0x4b708cd9,-0x2038(%rbp)
   11b70:	8c 70 4b 
   11b73:	c7 85 14 e0 ff ff f8 	movl   $0xfffffff8,-0x1fec(%rbp)
   11b7a:	ff ff ff 
   11b7d:	c7 85 18 e0 ff ff fa 	movl   $0xfffffffa,-0x1fe8(%rbp)
   11b84:	ff ff ff 
   11b87:	c7 85 1c e0 ff ff 23 	movl   $0xaad80a23,-0x1fe4(%rbp)
   11b8e:	0a d8 aa 
   11b91:	c7 85 d0 e2 ff ff 01 	movl   $0x1,-0x1d30(%rbp)
   11b98:	00 00 00 
   11b9b:	c7 85 d4 e2 ff ff 00 	movl   $0x0,-0x1d2c(%rbp)
   11ba2:	00 00 00 
   11ba5:	c7 85 d8 e2 ff ff 00 	movl   $0x0,-0x1d28(%rbp)
   11bac:	00 00 00 
   11baf:	c7 85 dc e2 ff ff 01 	movl   $0x1,-0x1d24(%rbp)
   11bb6:	00 00 00 
   11bb9:	c7 85 e0 e2 ff ff 00 	movl   $0x0,-0x1d20(%rbp)
   11bc0:	00 00 00 
   11bc3:	c7 85 e4 e2 ff ff 01 	movl   $0x1,-0x1d1c(%rbp)
   11bca:	00 00 00 
   11bcd:	c7 85 e8 e2 ff ff 01 	movl   $0x1,-0x1d18(%rbp)
   11bd4:	00 00 00 
   11bd7:	c7 85 ec e2 ff ff 1d 	movl   $0x3da121d,-0x1d14(%rbp)
   11bde:	12 da 03 
   11be1:	c7 85 f0 e2 ff ff 00 	movl   $0x0,-0x1d10(%rbp)
   11be8:	00 00 00 
   11beb:	c7 85 f4 e2 ff ff 01 	movl   $0x1,-0x1d0c(%rbp)
   11bf2:	00 00 00 
   11bf5:	c7 85 f8 e2 ff ff 00 	movl   $0x0,-0x1d08(%rbp)
   11bfc:	00 00 00 
   11bff:	c7 85 fc e2 ff ff a6 	movl   $0x2c1f4ea6,-0x1d04(%rbp)
   11c06:	4e 1f 2c 
   11c09:	c7 85 00 e3 ff ff 01 	movl   $0x1,-0x1d00(%rbp)
   11c10:	00 00 00 
   11c13:	c7 85 04 e3 ff ff 1d 	movl   $0x3da121d,-0x1cfc(%rbp)
   11c1a:	12 da 03 
   11c1d:	c7 85 08 e3 ff ff a6 	movl   $0x2c1f4ea6,-0x1cf8(%rbp)
   11c24:	4e 1f 2c 
   11c27:	c7 85 0c e3 ff ff a6 	movl   $0x2c1f4ea6,-0x1cf4(%rbp)
   11c2e:	4e 1f 2c 
   11c31:	48 8d 05 74 56 01 00 	lea    0x15674(%rip),%rax        # 272ac <g_4408>
   11c38:	48 89 85 70 e0 ff ff 	mov    %rax,-0x1f90(%rbp)
   11c3f:	48 8d 85 70 e0 ff ff 	lea    -0x1f90(%rbp),%rax
   11c46:	48 89 85 78 e0 ff ff 	mov    %rax,-0x1f88(%rbp)
   11c4d:	48 8d 85 78 e0 ff ff 	lea    -0x1f88(%rbp),%rax
   11c54:	48 89 85 80 e0 ff ff 	mov    %rax,-0x1f80(%rbp)
   11c5b:	48 8d 85 80 e0 ff ff 	lea    -0x1f80(%rbp),%rax
   11c62:	48 89 85 58 e1 ff ff 	mov    %rax,-0x1ea8(%rbp)
   11c69:	48 8d 85 9c df ff ff 	lea    -0x2064(%rbp),%rax
   11c70:	48 89 85 60 e1 ff ff 	mov    %rax,-0x1ea0(%rbp)
   11c77:	48 c7 85 68 e1 ff ff 	movq   $0x0,-0x1e98(%rbp)
   11c7e:	00 00 00 00 
   11c82:	48 c7 85 70 e1 ff ff 	movq   $0x0,-0x1e90(%rbp)
   11c89:	00 00 00 00 
   11c8d:	48 8d 85 c8 df ff ff 	lea    -0x2038(%rbp),%rax
   11c94:	48 89 85 78 e1 ff ff 	mov    %rax,-0x1e88(%rbp)
   11c9b:	48 8d 85 c4 df ff ff 	lea    -0x203c(%rbp),%rax
   11ca2:	48 89 85 80 e1 ff ff 	mov    %rax,-0x1e80(%rbp)
   11ca9:	48 8d 05 74 53 01 00 	lea    0x15374(%rip),%rax        # 27024 <g_8>
   11cb0:	48 89 85 10 e5 ff ff 	mov    %rax,-0x1af0(%rbp)
   11cb7:	48 8d 85 20 e2 ff ff 	lea    -0x1de0(%rbp),%rax
   11cbe:	48 89 85 18 e5 ff ff 	mov    %rax,-0x1ae8(%rbp)
   11cc5:	48 8d 05 58 53 01 00 	lea    0x15358(%rip),%rax        # 27024 <g_8>
   11ccc:	48 89 85 20 e5 ff ff 	mov    %rax,-0x1ae0(%rbp)
   11cd3:	48 8d 85 d0 e2 ff ff 	lea    -0x1d30(%rbp),%rax
   11cda:	48 83 c0 18          	add    $0x18,%rax
   11cde:	48 89 85 28 e5 ff ff 	mov    %rax,-0x1ad8(%rbp)
   11ce5:	48 8d 05 38 53 01 00 	lea    0x15338(%rip),%rax        # 27024 <g_8>
   11cec:	48 89 85 30 e5 ff ff 	mov    %rax,-0x1ad0(%rbp)
   11cf3:	48 8d 85 20 e2 ff ff 	lea    -0x1de0(%rbp),%rax
   11cfa:	48 89 85 38 e5 ff ff 	mov    %rax,-0x1ac8(%rbp)
   11d01:	48 8d 05 1c 53 01 00 	lea    0x1531c(%rip),%rax        # 27024 <g_8>
   11d08:	48 89 85 40 e5 ff ff 	mov    %rax,-0x1ac0(%rbp)
   11d0f:	48 8d 85 d0 e2 ff ff 	lea    -0x1d30(%rbp),%rax
   11d16:	48 83 c0 18          	add    $0x18,%rax
   11d1a:	48 89 85 48 e5 ff ff 	mov    %rax,-0x1ab8(%rbp)
   11d21:	48 8d 05 fc 52 01 00 	lea    0x152fc(%rip),%rax        # 27024 <g_8>
   11d28:	48 89 85 50 e5 ff ff 	mov    %rax,-0x1ab0(%rbp)
   11d2f:	48 8d 85 20 e2 ff ff 	lea    -0x1de0(%rbp),%rax
   11d36:	48 89 85 58 e5 ff ff 	mov    %rax,-0x1aa8(%rbp)
   11d3d:	48 8d 05 e0 52 01 00 	lea    0x152e0(%rip),%rax        # 27024 <g_8>
   11d44:	48 89 85 60 e5 ff ff 	mov    %rax,-0x1aa0(%rbp)
   11d4b:	48 8d 85 d0 e2 ff ff 	lea    -0x1d30(%rbp),%rax
   11d52:	48 83 c0 18          	add    $0x18,%rax
   11d56:	48 89 85 68 e5 ff ff 	mov    %rax,-0x1a98(%rbp)
   11d5d:	48 8d 05 c0 52 01 00 	lea    0x152c0(%rip),%rax        # 27024 <g_8>
   11d64:	48 89 85 70 e5 ff ff 	mov    %rax,-0x1a90(%rbp)
   11d6b:	48 8d 85 20 e2 ff ff 	lea    -0x1de0(%rbp),%rax
   11d72:	48 89 85 78 e5 ff ff 	mov    %rax,-0x1a88(%rbp)
   11d79:	48 8d 05 a4 52 01 00 	lea    0x152a4(%rip),%rax        # 27024 <g_8>
   11d80:	48 89 85 80 e5 ff ff 	mov    %rax,-0x1a80(%rbp)
   11d87:	48 8d 85 d0 e2 ff ff 	lea    -0x1d30(%rbp),%rax
   11d8e:	48 83 c0 18          	add    $0x18,%rax
   11d92:	48 89 85 88 e5 ff ff 	mov    %rax,-0x1a78(%rbp)
   11d99:	48 8d 05 84 52 01 00 	lea    0x15284(%rip),%rax        # 27024 <g_8>
   11da0:	48 89 85 90 e5 ff ff 	mov    %rax,-0x1a70(%rbp)
   11da7:	48 8d 85 20 e2 ff ff 	lea    -0x1de0(%rbp),%rax
   11dae:	48 89 85 98 e5 ff ff 	mov    %rax,-0x1a68(%rbp)
   11db5:	48 8d 05 68 52 01 00 	lea    0x15268(%rip),%rax        # 27024 <g_8>
   11dbc:	48 89 85 a0 e5 ff ff 	mov    %rax,-0x1a60(%rbp)
   11dc3:	48 8d 85 d0 e2 ff ff 	lea    -0x1d30(%rbp),%rax
   11dca:	48 83 c0 18          	add    $0x18,%rax
   11dce:	48 89 85 a8 e5 ff ff 	mov    %rax,-0x1a58(%rbp)
   11dd5:	48 8d 05 48 52 01 00 	lea    0x15248(%rip),%rax        # 27024 <g_8>
   11ddc:	48 89 85 b0 e5 ff ff 	mov    %rax,-0x1a50(%rbp)
   11de3:	48 8d 85 20 e2 ff ff 	lea    -0x1de0(%rbp),%rax
   11dea:	48 89 85 b8 e5 ff ff 	mov    %rax,-0x1a48(%rbp)
   11df1:	48 8d 05 2c 52 01 00 	lea    0x1522c(%rip),%rax        # 27024 <g_8>
   11df8:	48 89 85 c0 e5 ff ff 	mov    %rax,-0x1a40(%rbp)
   11dff:	48 8d 85 d0 e2 ff ff 	lea    -0x1d30(%rbp),%rax
   11e06:	48 83 c0 18          	add    $0x18,%rax
   11e0a:	48 89 85 c8 e5 ff ff 	mov    %rax,-0x1a38(%rbp)
   11e11:	48 8d 05 0c 52 01 00 	lea    0x1520c(%rip),%rax        # 27024 <g_8>
   11e18:	48 89 85 d0 e5 ff ff 	mov    %rax,-0x1a30(%rbp)
   11e1f:	48 8d 85 20 e2 ff ff 	lea    -0x1de0(%rbp),%rax
   11e26:	48 89 85 d8 e5 ff ff 	mov    %rax,-0x1a28(%rbp)
   11e2d:	48 8d 05 f0 51 01 00 	lea    0x151f0(%rip),%rax        # 27024 <g_8>
   11e34:	48 89 85 e0 e5 ff ff 	mov    %rax,-0x1a20(%rbp)
   11e3b:	48 8d 85 d0 e2 ff ff 	lea    -0x1d30(%rbp),%rax
   11e42:	48 83 c0 18          	add    $0x18,%rax
   11e46:	48 89 85 e8 e5 ff ff 	mov    %rax,-0x1a18(%rbp)
   11e4d:	48 8d 05 d0 51 01 00 	lea    0x151d0(%rip),%rax        # 27024 <g_8>
   11e54:	48 89 85 f0 e5 ff ff 	mov    %rax,-0x1a10(%rbp)
   11e5b:	48 8d 85 20 e2 ff ff 	lea    -0x1de0(%rbp),%rax
   11e62:	48 89 85 f8 e5 ff ff 	mov    %rax,-0x1a08(%rbp)
   11e69:	48 8d 05 b4 51 01 00 	lea    0x151b4(%rip),%rax        # 27024 <g_8>
   11e70:	48 89 85 00 e6 ff ff 	mov    %rax,-0x1a00(%rbp)
   11e77:	48 8d 85 d0 e2 ff ff 	lea    -0x1d30(%rbp),%rax
   11e7e:	48 83 c0 18          	add    $0x18,%rax
   11e82:	48 89 85 08 e6 ff ff 	mov    %rax,-0x19f8(%rbp)
   11e89:	c7 85 e4 df ff ff 00 	movl   $0x0,-0x201c(%rbp)
   11e90:	00 00 00 
   11e93:	eb 1b                	jmp    11eb0 <func_2+0x3321>
   11e95:	8b 85 e4 df ff ff    	mov    -0x201c(%rbp),%eax
   11e9b:	48 98                	cltq   
   11e9d:	48 c7 84 c5 18 e2 ff 	movq   $0xffffffffffffffff,-0x1de8(%rbp,%rax,8)
   11ea4:	ff ff ff ff ff 
   11ea9:	83 85 e4 df ff ff 01 	addl   $0x1,-0x201c(%rbp)
   11eb0:	83 bd e4 df ff ff 00 	cmpl   $0x0,-0x201c(%rbp)
   11eb7:	7e dc                	jle    11e95 <func_2+0x3306>
   11eb9:	8b 85 78 df ff ff    	mov    -0x2088(%rbp),%eax
   11ebf:	0f b7 d8             	movzwl %ax,%ebx
   11ec2:	44 0f bf b5 7c df ff 	movswl -0x2084(%rbp),%r14d
   11ec9:	ff 
   11eca:	48 0f bf 85 7c df ff 	movswq -0x2084(%rbp),%rax
   11ed1:	ff 
   11ed2:	48 83 e0 f7          	and    $0xfffffffffffffff7,%rax
   11ed6:	49 89 c7             	mov    %rax,%r15
   11ed9:	44 0f bf a5 7c df ff 	movswl -0x2084(%rbp),%r12d
   11ee0:	ff 
   11ee1:	48 8b 05 20 91 01 00 	mov    0x19120(%rip),%rax        # 2b008 <g_3091>
   11ee8:	48 8b 00             	mov    (%rax),%rax
   11eeb:	48 c7 00 00 00 00 00 	movq   $0x0,(%rax)
   11ef2:	48 8b 00             	mov    (%rax),%rax
   11ef5:	48 39 85 50 e1 ff ff 	cmp    %rax,-0x1eb0(%rbp)
   11efc:	0f 95 c0             	setne  %al
   11eff:	0f b6 c0             	movzbl %al,%eax
   11f02:	be e0 00 00 00       	mov    $0xe0,%esi
   11f07:	89 c7                	mov    %eax,%edi
   11f09:	e8 85 bc ff ff       	callq  db93 <safe_mul_func_uint8_t_u_u>
   11f0e:	84 c0                	test   %al,%al
   11f10:	74 11                	je     11f23 <func_2+0x3394>
   11f12:	66 83 bd 7c df ff ff 	cmpw   $0x0,-0x2084(%rbp)
   11f19:	00 
   11f1a:	74 07                	je     11f23 <func_2+0x3394>
   11f1c:	b8 01 00 00 00       	mov    $0x1,%eax
   11f21:	eb 05                	jmp    11f28 <func_2+0x3399>
   11f23:	b8 00 00 00 00       	mov    $0x0,%eax
   11f28:	89 c2                	mov    %eax,%edx
   11f2a:	8b 85 64 df ff ff    	mov    -0x209c(%rbp),%eax
   11f30:	09 d0                	or     %edx,%eax
   11f32:	44 0f be e8          	movsbl %al,%r13d
   11f36:	be 0b 00 00 00       	mov    $0xb,%esi
   11f3b:	bf 00 00 00 00       	mov    $0x0,%edi
   11f40:	e8 9c b5 ff ff       	callq  d4e1 <safe_lshift_func_int16_t_s_u>
   11f45:	0f be c0             	movsbl %al,%eax
   11f48:	44 89 ee             	mov    %r13d,%esi
   11f4b:	89 c7                	mov    %eax,%edi
   11f4d:	e8 c0 b2 ff ff       	callq  d212 <safe_mul_func_int8_t_s_s>
   11f52:	0f be c0             	movsbl %al,%eax
   11f55:	39 85 64 df ff ff    	cmp    %eax,-0x209c(%rbp)
   11f5b:	0f 94 c0             	sete   %al
   11f5e:	0f b6 c0             	movzbl %al,%eax
   11f61:	44 89 e6             	mov    %r12d,%esi
   11f64:	89 c7                	mov    %eax,%edi
   11f66:	e8 83 b3 ff ff       	callq  d2ee <safe_lshift_func_int8_t_s_u>
   11f6b:	48 0f be c0          	movsbq %al,%rax
   11f6f:	49 39 c7             	cmp    %rax,%r15
   11f72:	0f 96 c0             	setbe  %al
   11f75:	0f b6 c0             	movzbl %al,%eax
   11f78:	41 39 c6             	cmp    %eax,%r14d
   11f7b:	0f 9c c0             	setl   %al
   11f7e:	0f b6 c0             	movzbl %al,%eax
   11f81:	be 2c 8a 2a 52       	mov    $0x522a8a2c,%esi
   11f86:	89 c7                	mov    %eax,%edi
   11f88:	e8 72 b7 ff ff       	callq  d6ff <safe_div_func_int32_t_s_s>
   11f8d:	39 85 78 df ff ff    	cmp    %eax,-0x2088(%rbp)
   11f93:	0f 94 c0             	sete   %al
   11f96:	89 c2                	mov    %eax,%edx
   11f98:	48 8b 85 f8 e0 ff ff 	mov    -0x1f08(%rbp),%rax
   11f9f:	31 d0                	xor    %edx,%eax
   11fa1:	88 85 90 df ff ff    	mov    %al,-0x2070(%rbp)
   11fa7:	0f b6 85 90 df ff ff 	movzbl -0x2070(%rbp),%eax
   11fae:	89 de                	mov    %ebx,%esi
   11fb0:	89 c7                	mov    %eax,%edi
   11fb2:	e8 48 bd ff ff       	callq  dcff <safe_add_func_uint16_t_u_u>
   11fb7:	66 85 c0             	test   %ax,%ax
   11fba:	75 0a                	jne    11fc6 <func_2+0x3437>
   11fbc:	66 83 bd 7c df ff ff 	cmpw   $0x0,-0x2084(%rbp)
   11fc3:	00 
   11fc4:	74 07                	je     11fcd <func_2+0x343e>
   11fc6:	b8 01 00 00 00       	mov    $0x1,%eax
   11fcb:	eb 05                	jmp    11fd2 <func_2+0x3443>
   11fcd:	b8 00 00 00 00       	mov    $0x0,%eax
   11fd2:	89 85 b4 df ff ff    	mov    %eax,-0x204c(%rbp)
   11fd8:	8b 85 78 df ff ff    	mov    -0x2088(%rbp),%eax
   11fde:	0f b7 c0             	movzwl %ax,%eax
   11fe1:	be 0a 00 00 00       	mov    $0xa,%esi
   11fe6:	89 c7                	mov    %eax,%edi
   11fe8:	e8 d1 bd ff ff       	callq  ddbe <safe_lshift_func_uint16_t_u_s>
   11fed:	66 85 c0             	test   %ax,%ax
   11ff0:	75 5f                	jne    12051 <func_2+0x34c2>
   11ff2:	0f bf 9d 7c df ff ff 	movswl -0x2084(%rbp),%ebx
   11ff9:	8b 85 64 df ff ff    	mov    -0x209c(%rbp),%eax
   11fff:	48 63 d0             	movslq %eax,%rdx
   12002:	8b 85 64 df ff ff    	mov    -0x209c(%rbp),%eax
   12008:	48 98                	cltq   
   1200a:	48 89 d6             	mov    %rdx,%rsi
   1200d:	48 89 c7             	mov    %rax,%rdi
   12010:	e8 9a c0 ff ff       	callq  e0af <safe_div_func_uint64_t_u_u>
   12015:	0f be c0             	movsbl %al,%eax
   12018:	be 01 00 00 00       	mov    $0x1,%esi
   1201d:	89 c7                	mov    %eax,%edi
   1201f:	e8 ce b1 ff ff       	callq  d1f2 <safe_sub_func_int8_t_s_s>
   12024:	0f be c0             	movsbl %al,%eax
   12027:	89 85 b8 df ff ff    	mov    %eax,-0x2048(%rbp)
   1202d:	8b 95 c8 df ff ff    	mov    -0x2038(%rbp),%edx
   12033:	8b 85 64 df ff ff    	mov    -0x209c(%rbp),%eax
   12039:	0f be c0             	movsbl %al,%eax
   1203c:	89 d6                	mov    %edx,%esi
   1203e:	89 c7                	mov    %eax,%edi
   12040:	e8 f0 b2 ff ff       	callq  d335 <safe_rshift_func_int8_t_s_s>
   12045:	89 de                	mov    %ebx,%esi
   12047:	bf 00 00 00 00       	mov    $0x0,%edi
   1204c:	e8 6d bd ff ff       	callq  ddbe <safe_lshift_func_uint16_t_u_s>
   12051:	ba 01 00 00 00       	mov    $0x1,%edx
   12056:	0f bf 85 7c df ff ff 	movswl -0x2084(%rbp),%eax
   1205d:	39 c2                	cmp    %eax,%edx
   1205f:	0f 9e c2             	setle  %dl
   12062:	48 8b 05 d7 8a 01 00 	mov    0x18ad7(%rip),%rax        # 2ab40 <g_2467>
   12069:	88 10                	mov    %dl,(%rax)
   1206b:	8b 95 b4 df ff ff    	mov    -0x204c(%rbp),%edx
   12071:	48 8b 05 e0 89 01 00 	mov    0x189e0(%rip),%rax        # 2aa58 <g_396>
   12078:	48 63 d2             	movslq %edx,%rdx
   1207b:	48 89 10             	mov    %rdx,(%rax)
   1207e:	48 8b 00             	mov    (%rax),%rax
   12081:	48 85 c0             	test   %rax,%rax
   12084:	74 10                	je     12096 <func_2+0x3507>
   12086:	83 bd f4 df ff ff 00 	cmpl   $0x0,-0x200c(%rbp)
   1208d:	74 07                	je     12096 <func_2+0x3507>
   1208f:	b8 01 00 00 00       	mov    $0x1,%eax
   12094:	eb 05                	jmp    1209b <func_2+0x350c>
   12096:	b8 00 00 00 00       	mov    $0x0,%eax
   1209b:	83 f8 01             	cmp    $0x1,%eax
   1209e:	0f 9e c0             	setle  %al
   120a1:	0f b6 c0             	movzbl %al,%eax
   120a4:	23 85 64 df ff ff    	and    -0x209c(%rbp),%eax
   120aa:	85 c0                	test   %eax,%eax
   120ac:	0f 84 e7 02 00 00    	je     12399 <func_2+0x380a>
   120b2:	48 8d 85 94 df ff ff 	lea    -0x206c(%rbp),%rax
   120b9:	48 89 85 a8 e1 ff ff 	mov    %rax,-0x1e58(%rbp)
   120c0:	c7 85 20 e0 ff ff d2 	movl   $0x615eb4d2,-0x1fe0(%rbp)
   120c7:	b4 5e 61 
   120ca:	48 8d 85 10 f8 ff ff 	lea    -0x7f0(%rbp),%rax
   120d1:	48 8d 15 a8 65 01 00 	lea    0x165a8(%rip),%rdx        # 28680 <g_4462+0x13c0>
   120d8:	b9 60 00 00 00       	mov    $0x60,%ecx
   120dd:	48 89 c7             	mov    %rax,%rdi
   120e0:	48 89 d6             	mov    %rdx,%rsi
   120e3:	f3 48 a5             	rep movsq %ds:(%rsi),%es:(%rdi)
   120e6:	48 8d 95 50 e4 ff ff 	lea    -0x1bb0(%rbp),%rdx
   120ed:	b8 00 00 00 00       	mov    $0x0,%eax
   120f2:	b9 18 00 00 00       	mov    $0x18,%ecx
   120f7:	48 89 d7             	mov    %rdx,%rdi
   120fa:	f3 48 ab             	rep stos %rax,%es:(%rdi)
   120fd:	48 c7 85 b0 e1 ff ff 	movq   $0x0,-0x1e50(%rbp)
   12104:	00 00 00 00 
   12108:	48 8d 85 10 e3 ff ff 	lea    -0x1cf0(%rbp),%rax
   1210f:	48 89 85 b8 e1 ff ff 	mov    %rax,-0x1e48(%rbp)
   12116:	48 8d 05 5b 50 01 00 	lea    0x1505b(%rip),%rax        # 27178 <g_2448>
   1211d:	48 89 85 c0 e1 ff ff 	mov    %rax,-0x1e40(%rbp)
   12124:	c7 85 e8 df ff ff 00 	movl   $0x0,-0x2018(%rbp)
   1212b:	00 00 00 
   1212e:	eb 1a                	jmp    1214a <func_2+0x35bb>
   12130:	8b 85 e8 df ff ff    	mov    -0x2018(%rbp),%eax
   12136:	48 98                	cltq   
   12138:	c7 84 85 30 e2 ff ff 	movl   $0x1617b74d,-0x1dd0(%rbp,%rax,4)
   1213f:	4d b7 17 16 
   12143:	83 85 e8 df ff ff 01 	addl   $0x1,-0x2018(%rbp)
   1214a:	83 bd e8 df ff ff 04 	cmpl   $0x4,-0x2018(%rbp)
   12151:	7e dd                	jle    12130 <func_2+0x35a1>
   12153:	8b 05 0b 51 01 00    	mov    0x1510b(%rip),%eax        # 27264 <g_3271>
   12159:	83 c0 01             	add    $0x1,%eax
   1215c:	89 05 02 51 01 00    	mov    %eax,0x15102(%rip)        # 27264 <g_3271>
   12162:	8b 15 fc 50 01 00    	mov    0x150fc(%rip),%edx        # 27264 <g_3271>
   12168:	48 83 bd 38 e1 ff ff 	cmpq   $0x0,-0x1ec8(%rbp)
   1216f:	00 
   12170:	0f 95 c0             	setne  %al
   12173:	0f b6 c0             	movzbl %al,%eax
   12176:	89 d6                	mov    %edx,%esi
   12178:	89 c7                	mov    %eax,%edi
   1217a:	e8 51 bd ff ff       	callq  ded0 <safe_sub_func_uint32_t_u_u>
   1217f:	48 be e8 6a 8e 76 5f 	movabs $0xbc38bf5f768e6ae8,%rsi
   12186:	bf 38 bc 
   12189:	48 bf d7 90 36 bb e1 	movabs $0x17e6ede1bb3690d7,%rdi
   12190:	ed e6 17 
   12193:	e8 b3 be ff ff       	callq  e04b <safe_sub_func_uint64_t_u_u>
   12198:	be 79 59 56 b2       	mov    $0xb2565979,%esi
   1219d:	89 c7                	mov    %eax,%edi
   1219f:	e8 5b b5 ff ff       	callq  d6ff <safe_div_func_int32_t_s_s>
   121a4:	0f b6 c0             	movzbl %al,%eax
   121a7:	25 fa 00 00 00       	and    $0xfa,%eax
   121ac:	89 c3                	mov    %eax,%ebx
   121ae:	8b 85 c8 df ff ff    	mov    -0x2038(%rbp),%eax
   121b4:	39 85 78 df ff ff    	cmp    %eax,-0x2088(%rbp)
   121ba:	0f 92 c0             	setb   %al
   121bd:	0f b6 c0             	movzbl %al,%eax
   121c0:	be 05 00 00 00       	mov    $0x5,%esi
   121c5:	89 c7                	mov    %eax,%edi
   121c7:	e8 f2 bb ff ff       	callq  ddbe <safe_lshift_func_uint16_t_u_s>
   121cc:	0f b6 c0             	movzbl %al,%eax
   121cf:	89 de                	mov    %ebx,%esi
   121d1:	89 c7                	mov    %eax,%edi
   121d3:	e8 bb b9 ff ff       	callq  db93 <safe_mul_func_uint8_t_u_u>
   121d8:	0f b6 d0             	movzbl %al,%edx
   121db:	48 8b 85 a8 e1 ff ff 	mov    -0x1e58(%rbp),%rax
   121e2:	0f b7 00             	movzwl (%rax),%eax
   121e5:	8d 70 ff             	lea    -0x1(%rax),%esi
   121e8:	48 8b 8d a8 e1 ff ff 	mov    -0x1e58(%rbp),%rcx
   121ef:	66 89 31             	mov    %si,(%rcx)
   121f2:	66 85 c0             	test   %ax,%ax
   121f5:	74 1a                	je     12211 <func_2+0x3682>
   121f7:	66 83 bd 7c df ff ff 	cmpw   $0x0,-0x2084(%rbp)
   121fe:	00 
   121ff:	75 09                	jne    1220a <func_2+0x367b>
   12201:	83 bd 78 df ff ff 00 	cmpl   $0x0,-0x2088(%rbp)
   12208:	74 07                	je     12211 <func_2+0x3682>
   1220a:	b8 01 00 00 00       	mov    $0x1,%eax
   1220f:	eb 05                	jmp    12216 <func_2+0x3687>
   12211:	b8 00 00 00 00       	mov    $0x0,%eax
   12216:	89 d6                	mov    %edx,%esi
   12218:	89 c7                	mov    %eax,%edi
   1221a:	e8 e0 b4 ff ff       	callq  d6ff <safe_div_func_int32_t_s_s>
   1221f:	81 bd 64 df ff ff a0 	cmpl   $0xa0,-0x209c(%rbp)
   12226:	00 00 00 
   12229:	0f 94 c0             	sete   %al
   1222c:	0f b6 d0             	movzbl %al,%edx
   1222f:	0f bf 85 7c df ff ff 	movswl -0x2084(%rbp),%eax
   12236:	39 c2                	cmp    %eax,%edx
   12238:	0f 94 c0             	sete   %al
   1223b:	0f b6 d0             	movzbl %al,%edx
   1223e:	8b 85 c0 df ff ff    	mov    -0x2040(%rbp),%eax
   12244:	31 d0                	xor    %edx,%eax
   12246:	89 85 c0 df ff ff    	mov    %eax,-0x2040(%rbp)
   1224c:	48 8b 85 18 e2 ff ff 	mov    -0x1de8(%rbp),%rax
   12253:	48 83 e8 01          	sub    $0x1,%rax
   12257:	48 89 85 18 e2 ff ff 	mov    %rax,-0x1de8(%rbp)
   1225e:	0f b6 05 17 50 01 00 	movzbl 0x15017(%rip),%eax        # 2727c <g_3575>
   12265:	0f b6 d8             	movzbl %al,%ebx
   12268:	44 0f bf a5 7c df ff 	movswl -0x2084(%rbp),%r12d
   1226f:	ff 
   12270:	8b 85 f0 e2 ff ff    	mov    -0x1d10(%rbp),%eax
   12276:	39 85 64 df ff ff    	cmp    %eax,-0x209c(%rbp)
   1227c:	0f 95 c0             	setne  %al
   1227f:	0f b6 c0             	movzbl %al,%eax
   12282:	39 85 10 e0 ff ff    	cmp    %eax,-0x1ff0(%rbp)
   12288:	0f 9f c0             	setg   %al
   1228b:	0f b6 d0             	movzbl %al,%edx
   1228e:	0f bf 85 7c df ff ff 	movswl -0x2084(%rbp),%eax
   12295:	39 c2                	cmp    %eax,%edx
   12297:	0f 9e c0             	setle  %al
   1229a:	0f b6 d0             	movzbl %al,%edx
   1229d:	48 8b 8d 48 e3 ff ff 	mov    -0x1cb8(%rbp),%rcx
   122a4:	48 8b 85 b8 e1 ff ff 	mov    -0x1e48(%rbp),%rax
   122ab:	48 89 08             	mov    %rcx,(%rax)
   122ae:	48 8b 85 b8 e1 ff ff 	mov    -0x1e48(%rbp),%rax
   122b5:	48 8b 00             	mov    (%rax),%rax
   122b8:	48 39 85 00 e1 ff ff 	cmp    %rax,-0x1f00(%rbp)
   122bf:	0f 94 c0             	sete   %al
   122c2:	0f b6 c0             	movzbl %al,%eax
   122c5:	89 d6                	mov    %edx,%esi
   122c7:	89 c7                	mov    %eax,%edi
   122c9:	e8 e5 b0 ff ff       	callq  d3b3 <safe_add_func_int16_t_s_s>
   122ce:	8b 85 64 df ff ff    	mov    -0x209c(%rbp),%eax
   122d4:	89 c6                	mov    %eax,%esi
   122d6:	bf 01 00 00 00       	mov    $0x1,%edi
   122db:	e8 8c b0 ff ff       	callq  d36c <safe_rshift_func_int8_t_s_u>
   122e0:	83 bd 78 df ff ff 01 	cmpl   $0x1,-0x2088(%rbp)
   122e7:	0f 96 c0             	setbe  %al
   122ea:	0f b6 d0             	movzbl %al,%edx
   122ed:	48 8b 85 a8 e1 ff ff 	mov    -0x1e58(%rbp),%rax
   122f4:	66 89 10             	mov    %dx,(%rax)
   122f7:	48 8b 85 a8 e1 ff ff 	mov    -0x1e58(%rbp),%rax
   122fe:	0f b7 00             	movzwl (%rax),%eax
   12301:	0f b7 c0             	movzwl %ax,%eax
   12304:	39 85 64 df ff ff    	cmp    %eax,-0x209c(%rbp)
   1230a:	0f 95 c0             	setne  %al
   1230d:	0f b6 c0             	movzbl %al,%eax
   12310:	be 07 00 00 00       	mov    $0x7,%esi
   12315:	89 c7                	mov    %eax,%edi
   12317:	e8 85 af ff ff       	callq  d2a1 <safe_lshift_func_int8_t_s_s>
   1231c:	3c 08                	cmp    $0x8,%al
   1231e:	0f 9f c0             	setg   %al
   12321:	0f b6 c0             	movzbl %al,%eax
   12324:	41 39 c4             	cmp    %eax,%r12d
   12327:	0f 9e c0             	setle  %al
   1232a:	0f b6 d0             	movzbl %al,%edx
   1232d:	48 8b 85 a0 e0 ff ff 	mov    -0x1f60(%rbp),%rax
   12334:	48 89 10             	mov    %rdx,(%rax)
   12337:	48 8b 85 a0 e0 ff ff 	mov    -0x1f60(%rbp),%rax
   1233e:	48 8b 00             	mov    (%rax),%rax
   12341:	48 89 c6             	mov    %rax,%rsi
   12344:	bf 00 00 00 00       	mov    $0x0,%edi
   12349:	e8 32 bd ff ff       	callq  e080 <safe_mod_func_uint64_t_u_u>
   1234e:	48 ba 2f 43 40 6c 02 	movabs $0xa56904026c40432f,%rdx
   12355:	04 69 a5 
   12358:	48 39 d0             	cmp    %rdx,%rax
   1235b:	0f 95 c0             	setne  %al
   1235e:	0f b6 c0             	movzbl %al,%eax
   12361:	8b 95 e8 e2 ff ff    	mov    -0x1d18(%rbp),%edx
   12367:	31 d0                	xor    %edx,%eax
   12369:	89 c2                	mov    %eax,%edx
   1236b:	48 8b 85 c0 e1 ff ff 	mov    -0x1e40(%rbp),%rax
   12372:	66 89 10             	mov    %dx,(%rax)
   12375:	48 8b 85 c0 e1 ff ff 	mov    -0x1e40(%rbp),%rax
   1237c:	0f b7 00             	movzwl (%rax),%eax
   1237f:	0f b7 c0             	movzwl %ax,%eax
   12382:	89 de                	mov    %ebx,%esi
   12384:	89 c7                	mov    %eax,%edi
   12386:	e8 b2 b9 ff ff       	callq  dd3d <safe_mul_func_uint16_t_u_u>
   1238b:	0f b7 c0             	movzwl %ax,%eax
   1238e:	89 85 c4 df ff ff    	mov    %eax,-0x203c(%rbp)
   12394:	e9 bd 00 00 00       	jmpq   12456 <func_2+0x38c7>
   12399:	48 8d 85 bc df ff ff 	lea    -0x2044(%rbp),%rax
   123a0:	48 89 85 88 e1 ff ff 	mov    %rax,-0x1e78(%rbp)
   123a7:	48 c7 85 90 e1 ff ff 	movq   $0x0,-0x1e70(%rbp)
   123ae:	00 00 00 00 
   123b2:	48 8d 85 a8 df ff ff 	lea    -0x2058(%rbp),%rax
   123b9:	48 89 85 98 e1 ff ff 	mov    %rax,-0x1e68(%rbp)
   123c0:	c6 85 92 df ff ff 07 	movb   $0x7,-0x206e(%rbp)
   123c7:	48 8d 85 60 e3 ff ff 	lea    -0x1ca0(%rbp),%rax
   123ce:	48 83 c0 40          	add    $0x40,%rax
   123d2:	48 89 85 a0 e1 ff ff 	mov    %rax,-0x1e60(%rbp)
   123d9:	c7 85 ec df ff ff 00 	movl   $0x0,-0x2014(%rbp)
   123e0:	00 00 00 
   123e3:	eb 1e                	jmp    12403 <func_2+0x3874>
   123e5:	8b 85 ec df ff ff    	mov    -0x2014(%rbp),%eax
   123eb:	48 98                	cltq   
   123ed:	48 8d 95 bc df ff ff 	lea    -0x2044(%rbp),%rdx
   123f4:	48 89 94 c5 10 f8 ff 	mov    %rdx,-0x7f0(%rbp,%rax,8)
   123fb:	ff 
   123fc:	83 85 ec df ff ff 01 	addl   $0x1,-0x2014(%rbp)
   12403:	83 bd ec df ff ff 02 	cmpl   $0x2,-0x2014(%rbp)
   1240a:	7e d9                	jle    123e5 <func_2+0x3856>
   1240c:	0f b6 85 92 df ff ff 	movzbl -0x206e(%rbp),%eax
   12413:	83 c0 01             	add    $0x1,%eax
   12416:	88 85 92 df ff ff    	mov    %al,-0x206e(%rbp)
   1241c:	48 8b 85 e8 f2 ff ff 	mov    -0xd18(%rbp),%rax
   12423:	48 89 85 58 e1 ff ff 	mov    %rax,-0x1ea8(%rbp)
   1242a:	48 8d 85 68 e0 ff ff 	lea    -0x1f98(%rbp),%rax
   12431:	48 39 85 58 e1 ff ff 	cmp    %rax,-0x1ea8(%rbp)
   12438:	0f 95 c0             	setne  %al
   1243b:	0f b6 c0             	movzbl %al,%eax
   1243e:	31 85 18 e0 ff ff    	xor    %eax,-0x1fe8(%rbp)
   12444:	48 8d 85 20 e2 ff ff 	lea    -0x1de0(%rbp),%rax
   1244b:	48 83 c0 0c          	add    $0xc,%rax
   1244f:	48 89 85 88 e1 ff ff 	mov    %rax,-0x1e78(%rbp)
   12456:	8b 05 54 4e 01 00    	mov    0x14e54(%rip),%eax        # 272b0 <g_4426>
   1245c:	83 e8 01             	sub    $0x1,%eax
   1245f:	89 05 4b 4e 01 00    	mov    %eax,0x14e4b(%rip)        # 272b0 <g_4426>
   12465:	48 8b 85 60 e1 ff ff 	mov    -0x1ea0(%rbp),%rax
   1246c:	8b 00                	mov    (%rax),%eax
   1246e:	85 c0                	test   %eax,%eax
   12470:	8b 05 f2 4c 01 00    	mov    0x14cf2(%rip),%eax        # 27168 <g_2257>
   12476:	83 e8 01             	sub    $0x1,%eax
   12479:	89 05 e9 4c 01 00    	mov    %eax,0x14ce9(%rip)        # 27168 <g_2257>
   1247f:	8b 05 e3 4c 01 00    	mov    0x14ce3(%rip),%eax        # 27168 <g_2257>
   12485:	85 c0                	test   %eax,%eax
   12487:	0f 89 e9 d7 ff ff    	jns    fc76 <func_2+0x10e7>
   1248d:	48 8b 85 10 e1 ff ff 	mov    -0x1ef0(%rbp),%rax
   12494:	eb 1c                	jmp    124b2 <func_2+0x3923>
   12496:	8b 05 c8 4c 01 00    	mov    0x14cc8(%rip),%eax        # 27164 <g_2001>
   1249c:	85 c0                	test   %eax,%eax
   1249e:	0f 8e a2 c9 ff ff    	jle    ee46 <func_2+0x2b7>
   124a4:	83 85 f0 df ff ff 01 	addl   $0x1,-0x2010(%rbp)
   124ab:	48 8b 85 c0 e0 ff ff 	mov    -0x1f40(%rbp),%rax
   124b2:	48 8b 5d c8          	mov    -0x38(%rbp),%rbx
   124b6:	64 48 33 1c 25 28 00 	xor    %fs:0x28,%rbx
   124bd:	00 00 
   124bf:	74 05                	je     124c6 <func_2+0x3937>
   124c1:	e8 aa ab ff ff       	callq  d070 <__stack_chk_fail@plt>
   124c6:	48 81 c4 78 20 00 00 	add    $0x2078,%rsp
   124cd:	5b                   	pop    %rbx
   124ce:	41 5c                	pop    %r12
   124d0:	41 5d                	pop    %r13
   124d2:	41 5e                	pop    %r14
   124d4:	41 5f                	pop    %r15
   124d6:	5d                   	pop    %rbp
   124d7:	c3                   	retq   

00000000000124d8 <func_10>:
   124d8:	f3 0f 1e fa          	endbr64 
   124dc:	55                   	push   %rbp
   124dd:	48 89 e5             	mov    %rsp,%rbp
   124e0:	41 56                	push   %r14
   124e2:	41 55                	push   %r13
   124e4:	41 54                	push   %r12
   124e6:	53                   	push   %rbx
   124e7:	48 81 ec 00 10 00 00 	sub    $0x1000,%rsp
   124ee:	48 83 0c 24 00       	orq    $0x0,(%rsp)
   124f3:	48 81 ec 70 0d 00 00 	sub    $0xd70,%rsp
   124fa:	48 89 bd 88 e2 ff ff 	mov    %rdi,-0x1d78(%rbp)
   12501:	48 89 b5 80 e2 ff ff 	mov    %rsi,-0x1d80(%rbp)
   12508:	48 89 95 78 e2 ff ff 	mov    %rdx,-0x1d88(%rbp)
   1250f:	48 89 8d 70 e2 ff ff 	mov    %rcx,-0x1d90(%rbp)
   12516:	64 48 8b 04 25 28 00 	mov    %fs:0x28,%rax
   1251d:	00 00 
   1251f:	48 89 45 d8          	mov    %rax,-0x28(%rbp)
   12523:	31 c0                	xor    %eax,%eax
   12525:	48 b8 23 75 85 1b ab 	movabs $0x996de1ab1b857523,%rax
   1252c:	e1 6d 99 
   1252f:	48 89 85 60 e3 ff ff 	mov    %rax,-0x1ca0(%rbp)
   12536:	c7 85 a8 e2 ff ff 27 	movl   $0x39f9d527,-0x1d58(%rbp)
   1253d:	d5 f9 39 
   12540:	48 8d 85 10 ed ff ff 	lea    -0x12f0(%rbp),%rax
   12547:	48 8d 15 b2 ee 00 00 	lea    0xeeb2(%rip),%rdx        # 21400 <g_4473+0x390>
   1254e:	b9 69 00 00 00       	mov    $0x69,%ecx
   12553:	48 89 c7             	mov    %rax,%rdi
   12556:	48 89 d6             	mov    %rdx,%rsi
   12559:	f3 48 a5             	rep movsq %ds:(%rsi),%es:(%rdi)
   1255c:	48 8d 05 01 4d 01 00 	lea    0x14d01(%rip),%rax        # 27264 <g_3271>
   12563:	48 89 85 28 e4 ff ff 	mov    %rax,-0x1bd8(%rbp)
   1256a:	48 c7 85 30 e4 ff ff 	movq   $0x0,-0x1bd0(%rbp)
   12571:	00 00 00 00 
   12575:	c7 85 ac e2 ff ff 9d 	movl   $0xd411c9d,-0x1d54(%rbp)
   1257c:	1c 41 0d 
   1257f:	c7 85 f0 e2 ff ff ba 	movl   $0x8a839eba,-0x1d10(%rbp)
   12586:	9e 83 8a 
   12589:	48 8d 05 b8 a0 01 00 	lea    0x1a0b8(%rip),%rax        # 2c648 <g_1061+0x8>
   12590:	48 89 85 68 e3 ff ff 	mov    %rax,-0x1c98(%rbp)
   12597:	48 8d 85 68 e3 ff ff 	lea    -0x1c98(%rbp),%rax
   1259e:	48 89 85 70 e3 ff ff 	mov    %rax,-0x1c90(%rbp)
   125a5:	48 8d 85 70 e3 ff ff 	lea    -0x1c90(%rbp),%rax
   125ac:	48 89 85 78 e3 ff ff 	mov    %rax,-0x1c88(%rbp)
   125b3:	c6 85 91 e2 ff ff 5d 	movb   $0x5d,-0x1d6f(%rbp)
   125ba:	48 b8 19 4f b1 d6 d6 	movabs $0x6b1e71d6d6b14f19,%rax
   125c1:	71 1e 6b 
   125c4:	48 89 85 40 e6 ff ff 	mov    %rax,-0x19c0(%rbp)
   125cb:	48 89 85 48 e6 ff ff 	mov    %rax,-0x19b8(%rbp)
   125d2:	48 89 85 50 e6 ff ff 	mov    %rax,-0x19b0(%rbp)
   125d9:	48 89 85 58 e6 ff ff 	mov    %rax,-0x19a8(%rbp)
   125e0:	48 8d 05 6d 4a 01 00 	lea    0x14a6d(%rip),%rax        # 27054 <g_25+0x14>
   125e7:	48 89 85 80 e3 ff ff 	mov    %rax,-0x1c80(%rbp)
   125ee:	48 8d 05 c3 a0 01 00 	lea    0x1a0c3(%rip),%rax        # 2c6b8 <g_3565>
   125f5:	48 89 85 38 e4 ff ff 	mov    %rax,-0x1bc8(%rbp)
   125fc:	48 8d 05 a5 4a 01 00 	lea    0x14aa5(%rip),%rax        # 270a8 <g_174>
   12603:	48 89 85 40 e4 ff ff 	mov    %rax,-0x1bc0(%rbp)
   1260a:	48 8d 05 97 84 01 00 	lea    0x18497(%rip),%rax        # 2aaa8 <g_1042>
   12611:	48 89 85 48 e4 ff ff 	mov    %rax,-0x1bb8(%rbp)
   12618:	48 c7 85 50 e4 ff ff 	movq   $0x0,-0x1bb0(%rbp)
   1261f:	00 00 00 00 
   12623:	c6 85 92 e2 ff ff 00 	movb   $0x0,-0x1d6e(%rbp)
   1262a:	48 b8 cf 06 3f 66 a1 	movabs $0xedef5ea1663f06cf,%rax
   12631:	5e ef ed 
   12634:	48 89 85 58 e4 ff ff 	mov    %rax,-0x1ba8(%rbp)
   1263b:	48 8d 05 56 a0 01 00 	lea    0x1a056(%rip),%rax        # 2c698 <g_2958>
   12642:	48 89 85 88 e3 ff ff 	mov    %rax,-0x1c78(%rbp)
   12649:	48 c7 85 60 e4 ff ff 	movq   $0x0,-0x1ba0(%rbp)
   12650:	00 00 00 00 
   12654:	48 c7 85 68 e4 ff ff 	movq   $0x0,-0x1b98(%rbp)
   1265b:	00 00 00 00 
   1265f:	48 8d 85 40 e7 ff ff 	lea    -0x18c0(%rbp),%rax
   12666:	48 05 c8 00 00 00    	add    $0xc8,%rax
   1266c:	48 89 85 90 e3 ff ff 	mov    %rax,-0x1c70(%rbp)
   12673:	48 8d 85 90 e3 ff ff 	lea    -0x1c70(%rbp),%rax
   1267a:	48 89 85 98 e3 ff ff 	mov    %rax,-0x1c68(%rbp)
   12681:	48 8d 85 98 e3 ff ff 	lea    -0x1c68(%rbp),%rax
   12688:	48 89 85 a0 e3 ff ff 	mov    %rax,-0x1c60(%rbp)
   1268f:	48 8d 85 a0 e3 ff ff 	lea    -0x1c60(%rbp),%rax
   12696:	48 89 85 a8 e3 ff ff 	mov    %rax,-0x1c58(%rbp)
   1269d:	48 8d 85 a8 e3 ff ff 	lea    -0x1c58(%rbp),%rax
   126a4:	48 89 85 70 e4 ff ff 	mov    %rax,-0x1b90(%rbp)
   126ab:	48 c7 85 78 e4 ff ff 	movq   $0x0,-0x1b88(%rbp)
   126b2:	00 00 00 00 
   126b6:	48 8d 05 a7 49 01 00 	lea    0x149a7(%rip),%rax        # 27064 <g_50>
   126bd:	48 89 85 80 e4 ff ff 	mov    %rax,-0x1b80(%rbp)
   126c4:	c7 85 f4 e2 ff ff 01 	movl   $0x1,-0x1d0c(%rbp)
   126cb:	00 00 00 
   126ce:	48 c7 85 88 e4 ff ff 	movq   $0xfffffffffffffffe,-0x1b78(%rbp)
   126d5:	fe ff ff ff 
   126d9:	c7 85 b0 e2 ff ff 00 	movl   $0x0,-0x1d50(%rbp)
   126e0:	00 00 00 
   126e3:	66 c7 85 98 e2 ff ff 	movw   $0x38d,-0x1d68(%rbp)
   126ea:	8d 03 
   126ec:	66 c7 85 9a e2 ff ff 	movw   $0x9,-0x1d66(%rbp)
   126f3:	09 00 
   126f5:	48 8d 85 88 e3 ff ff 	lea    -0x1c78(%rbp),%rax
   126fc:	48 89 85 b0 e3 ff ff 	mov    %rax,-0x1c50(%rbp)
   12703:	48 8d 85 b0 e3 ff ff 	lea    -0x1c50(%rbp),%rax
   1270a:	48 89 85 90 e4 ff ff 	mov    %rax,-0x1b70(%rbp)
   12711:	48 c7 85 98 e4 ff ff 	movq   $0xfffffffffffffffe,-0x1b68(%rbp)
   12718:	fe ff ff ff 
   1271c:	c7 85 b8 e2 ff ff 00 	movl   $0x0,-0x1d48(%rbp)
   12723:	00 00 00 
   12726:	eb 1a                	jmp    12742 <func_10+0x26a>
   12728:	8b 85 b8 e2 ff ff    	mov    -0x1d48(%rbp),%eax
   1272e:	48 98                	cltq   
   12730:	c7 84 85 e8 e5 ff ff 	movl   $0x8,-0x1a18(%rbp,%rax,4)
   12737:	08 00 00 00 
   1273b:	83 85 b8 e2 ff ff 01 	addl   $0x1,-0x1d48(%rbp)
   12742:	83 bd b8 e2 ff ff 01 	cmpl   $0x1,-0x1d48(%rbp)
   12749:	7e dd                	jle    12728 <func_10+0x250>
   1274b:	c7 85 b8 e2 ff ff 00 	movl   $0x0,-0x1d48(%rbp)
   12752:	00 00 00 
   12755:	eb 4e                	jmp    127a5 <func_10+0x2cd>
   12757:	c7 85 bc e2 ff ff 00 	movl   $0x0,-0x1d44(%rbp)
   1275e:	00 00 00 
   12761:	eb 32                	jmp    12795 <func_10+0x2bd>
   12763:	8b 85 bc e2 ff ff    	mov    -0x1d44(%rbp),%eax
   12769:	48 63 c8             	movslq %eax,%rcx
   1276c:	8b 85 b8 e2 ff ff    	mov    -0x1d48(%rbp),%eax
   12772:	48 63 d0             	movslq %eax,%rdx
   12775:	48 89 d0             	mov    %rdx,%rax
   12778:	48 c1 e0 02          	shl    $0x2,%rax
   1277c:	48 01 d0             	add    %rdx,%rax
   1277f:	48 01 c8             	add    %rcx,%rax
   12782:	48 c7 84 c5 40 e7 ff 	movq   $0xffffffffffffffff,-0x18c0(%rbp,%rax,8)
   12789:	ff ff ff ff ff 
   1278e:	83 85 bc e2 ff ff 01 	addl   $0x1,-0x1d44(%rbp)
   12795:	83 bd bc e2 ff ff 04 	cmpl   $0x4,-0x1d44(%rbp)
   1279c:	7e c5                	jle    12763 <func_10+0x28b>
   1279e:	83 85 b8 e2 ff ff 01 	addl   $0x1,-0x1d48(%rbp)
   127a5:	83 bd b8 e2 ff ff 07 	cmpl   $0x7,-0x1d48(%rbp)
   127ac:	7e a9                	jle    12757 <func_10+0x27f>
   127ae:	48 8b 95 60 e3 ff ff 	mov    -0x1ca0(%rbp),%rdx
   127b5:	48 8b 85 60 e3 ff ff 	mov    -0x1ca0(%rbp),%rax
   127bc:	48 89 d6             	mov    %rdx,%rsi
   127bf:	48 89 c7             	mov    %rax,%rdi
   127c2:	e8 84 b8 ff ff       	callq  e04b <safe_sub_func_uint64_t_u_u>
   127c7:	89 c2                	mov    %eax,%edx
   127c9:	48 8b 85 60 e3 ff ff 	mov    -0x1ca0(%rbp),%rax
   127d0:	0f b7 c0             	movzwl %ax,%eax
   127d3:	89 d6                	mov    %edx,%esi
   127d5:	89 c7                	mov    %eax,%edi
   127d7:	e8 9e b6 ff ff       	callq  de7a <safe_rshift_func_uint16_t_u_u>
   127dc:	0f b7 d8             	movzwl %ax,%ebx
   127df:	0f b6 05 96 4a 01 00 	movzbl 0x14a96(%rip),%eax        # 2727c <g_3575>
   127e6:	0f be c0             	movsbl %al,%eax
   127e9:	be 06 00 00 00       	mov    $0x6,%esi
   127ee:	89 c7                	mov    %eax,%edi
   127f0:	e8 f9 aa ff ff       	callq  d2ee <safe_lshift_func_int8_t_s_u>
   127f5:	0f be c0             	movsbl %al,%eax
   127f8:	39 c3                	cmp    %eax,%ebx
   127fa:	0f 9f c0             	setg   %al
   127fd:	0f b6 d8             	movzbl %al,%ebx
   12800:	48 8b 15 49 82 01 00 	mov    0x18249(%rip),%rdx        # 2aa50 <g_258>
   12807:	8b 02                	mov    (%rdx),%eax
   12809:	8d 48 01             	lea    0x1(%rax),%ecx
   1280c:	89 0a                	mov    %ecx,(%rdx)
   1280e:	48 8b 95 28 e4 ff ff 	mov    -0x1bd8(%rbp),%rdx
   12815:	89 02                	mov    %eax,(%rdx)
   12817:	48 8b 85 28 e4 ff ff 	mov    -0x1bd8(%rbp),%rax
   1281e:	44 8b 20             	mov    (%rax),%r12d
   12821:	c7 85 a8 e2 ff ff d4 	movl   $0x4a8dc5d4,-0x1d58(%rbp)
   12828:	c5 8d 4a 
   1282b:	be 07 00 00 00       	mov    $0x7,%esi
   12830:	bf d5 00 00 00       	mov    $0xd5,%edi
   12835:	e8 12 b4 ff ff       	callq  dc4c <safe_lshift_func_uint8_t_u_u>
   1283a:	0f b6 c0             	movzbl %al,%eax
   1283d:	41 39 c4             	cmp    %eax,%r12d
   12840:	0f 93 c0             	setae  %al
   12843:	0f b6 c0             	movzbl %al,%eax
   12846:	be 04 00 00 00       	mov    $0x4,%esi
   1284b:	89 c7                	mov    %eax,%edi
   1284d:	e8 40 ac ff ff       	callq  d492 <safe_lshift_func_int16_t_s_s>
   12852:	48 0f bf d0          	movswq %ax,%rdx
   12856:	48 8b 85 60 e3 ff ff 	mov    -0x1ca0(%rbp),%rax
   1285d:	48 39 c2             	cmp    %rax,%rdx
   12860:	0f 94 c0             	sete   %al
   12863:	0f b6 c0             	movzbl %al,%eax
   12866:	39 c3                	cmp    %eax,%ebx
   12868:	0f 9d c0             	setge  %al
   1286b:	0f b6 d8             	movzbl %al,%ebx
   1286e:	8b 85 48 ef ff ff    	mov    -0x10b8(%rbp),%eax
   12874:	89 c2                	mov    %eax,%edx
   12876:	8b 85 04 f0 ff ff    	mov    -0xffc(%rbp),%eax
   1287c:	89 d6                	mov    %edx,%esi
   1287e:	89 c7                	mov    %eax,%edi
   12880:	e8 78 b6 ff ff       	callq  defd <safe_mod_func_uint32_t_u_u>
   12885:	48 8b 05 b4 82 01 00 	mov    0x182b4(%rip),%rax        # 2ab40 <g_2467>
   1288c:	0f b6 00             	movzbl (%rax),%eax
   1288f:	48 0f be c0          	movsbq %al,%rax
   12893:	48 3d ff 00 00 00    	cmp    $0xff,%rax
   12899:	0f 97 c0             	seta   %al
   1289c:	0f b6 d0             	movzbl %al,%edx
   1289f:	8b 85 ac e2 ff ff    	mov    -0x1d54(%rbp),%eax
   128a5:	09 d0                	or     %edx,%eax
   128a7:	89 85 ac e2 ff ff    	mov    %eax,-0x1d54(%rbp)
   128ad:	48 8b 05 a4 81 01 00 	mov    0x181a4(%rip),%rax        # 2aa58 <g_396>
   128b4:	48 8b 08             	mov    (%rax),%rcx
   128b7:	48 63 d3             	movslq %ebx,%rdx
   128ba:	48 8b 05 97 81 01 00 	mov    0x18197(%rip),%rax        # 2aa58 <g_396>
   128c1:	48 21 ca             	and    %rcx,%rdx
   128c4:	48 89 10             	mov    %rdx,(%rax)
   128c7:	48 8b 10             	mov    (%rax),%rdx
   128ca:	48 8b 85 30 e4 ff ff 	mov    -0x1bd0(%rbp),%rax
   128d1:	48 89 05 90 8f 01 00 	mov    %rax,0x18f90(%rip)        # 2b868 <g_3586+0x48>
   128d8:	48 8b 05 89 8f 01 00 	mov    0x18f89(%rip),%rax        # 2b868 <g_3586+0x48>
   128df:	48 39 85 30 e4 ff ff 	cmp    %rax,-0x1bd0(%rbp)
   128e6:	0f 95 c0             	setne  %al
   128e9:	0f b6 c0             	movzbl %al,%eax
   128ec:	48 39 c2             	cmp    %rax,%rdx
   128ef:	0f 95 c0             	setne  %al
   128f2:	0f b6 c0             	movzbl %al,%eax
   128f5:	0b 85 f0 e2 ff ff    	or     -0x1d10(%rbp),%eax
   128fb:	85 c0                	test   %eax,%eax
   128fd:	0f 84 d8 1a 00 00    	je     143db <func_10+0x1f03>
   12903:	48 8d 05 f2 47 01 00 	lea    0x147f2(%rip),%rax        # 270fc <g_695>
   1290a:	48 89 85 48 e5 ff ff 	mov    %rax,-0x1ab8(%rbp)
   12911:	48 c7 85 60 f0 ff ff 	movq   $0x0,-0xfa0(%rbp)
   12918:	00 00 00 00 
   1291c:	48 8d 05 4d 49 01 00 	lea    0x1494d(%rip),%rax        # 27270 <g_3436>
   12923:	48 89 85 68 f0 ff ff 	mov    %rax,-0xf98(%rbp)
   1292a:	48 8d 05 4f 47 01 00 	lea    0x1474f(%rip),%rax        # 27080 <g_107>
   12931:	48 89 85 70 f0 ff ff 	mov    %rax,-0xf90(%rbp)
   12938:	48 8d 05 41 47 01 00 	lea    0x14741(%rip),%rax        # 27080 <g_107>
   1293f:	48 89 85 78 f0 ff ff 	mov    %rax,-0xf88(%rbp)
   12946:	48 c7 85 80 f0 ff ff 	movq   $0x0,-0xf80(%rbp)
   1294d:	00 00 00 00 
   12951:	48 8d 05 48 47 01 00 	lea    0x14748(%rip),%rax        # 270a0 <g_150>
   12958:	48 89 85 88 f0 ff ff 	mov    %rax,-0xf78(%rbp)
   1295f:	48 8d 05 0a 49 01 00 	lea    0x1490a(%rip),%rax        # 27270 <g_3436>
   12966:	48 89 85 90 f0 ff ff 	mov    %rax,-0xf70(%rbp)
   1296d:	48 8d 05 fc 48 01 00 	lea    0x148fc(%rip),%rax        # 27270 <g_3436>
   12974:	48 89 85 98 f0 ff ff 	mov    %rax,-0xf68(%rbp)
   1297b:	48 8d 05 1e 47 01 00 	lea    0x1471e(%rip),%rax        # 270a0 <g_150>
   12982:	48 89 85 a0 f0 ff ff 	mov    %rax,-0xf60(%rbp)
   12989:	48 c7 85 a8 f0 ff ff 	movq   $0x0,-0xf58(%rbp)
   12990:	00 00 00 00 
   12994:	48 8d 05 d5 48 01 00 	lea    0x148d5(%rip),%rax        # 27270 <g_3436>
   1299b:	48 89 85 b0 f0 ff ff 	mov    %rax,-0xf50(%rbp)
   129a2:	48 c7 85 b8 f0 ff ff 	movq   $0x0,-0xf48(%rbp)
   129a9:	00 00 00 00 
   129ad:	48 c7 85 c0 f0 ff ff 	movq   $0x0,-0xf40(%rbp)
   129b4:	00 00 00 00 
   129b8:	48 8d 05 b1 48 01 00 	lea    0x148b1(%rip),%rax        # 27270 <g_3436>
   129bf:	48 89 85 c8 f0 ff ff 	mov    %rax,-0xf38(%rbp)
   129c6:	48 8d 05 b3 46 01 00 	lea    0x146b3(%rip),%rax        # 27080 <g_107>
   129cd:	48 89 85 d0 f0 ff ff 	mov    %rax,-0xf30(%rbp)
   129d4:	48 8d 85 60 e3 ff ff 	lea    -0x1ca0(%rbp),%rax
   129db:	48 89 85 d8 f0 ff ff 	mov    %rax,-0xf28(%rbp)
   129e2:	48 8d 85 60 e3 ff ff 	lea    -0x1ca0(%rbp),%rax
   129e9:	48 89 85 e0 f0 ff ff 	mov    %rax,-0xf20(%rbp)
   129f0:	48 8d 85 60 e3 ff ff 	lea    -0x1ca0(%rbp),%rax
   129f7:	48 89 85 e8 f0 ff ff 	mov    %rax,-0xf18(%rbp)
   129fe:	48 8d 05 9b 46 01 00 	lea    0x1469b(%rip),%rax        # 270a0 <g_150>
   12a05:	48 89 85 f0 f0 ff ff 	mov    %rax,-0xf10(%rbp)
   12a0c:	48 c7 85 f8 f0 ff ff 	movq   $0x0,-0xf08(%rbp)
   12a13:	00 00 00 00 
   12a17:	48 8d 05 62 46 01 00 	lea    0x14662(%rip),%rax        # 27080 <g_107>
   12a1e:	48 89 85 00 f1 ff ff 	mov    %rax,-0xf00(%rbp)
   12a25:	48 8d 05 54 46 01 00 	lea    0x14654(%rip),%rax        # 27080 <g_107>
   12a2c:	48 89 85 08 f1 ff ff 	mov    %rax,-0xef8(%rbp)
   12a33:	48 8d 05 36 48 01 00 	lea    0x14836(%rip),%rax        # 27270 <g_3436>
   12a3a:	48 89 85 10 f1 ff ff 	mov    %rax,-0xef0(%rbp)
   12a41:	48 c7 85 18 f1 ff ff 	movq   $0x0,-0xee8(%rbp)
   12a48:	00 00 00 00 
   12a4c:	48 8d 85 60 e3 ff ff 	lea    -0x1ca0(%rbp),%rax
   12a53:	48 89 85 20 f1 ff ff 	mov    %rax,-0xee0(%rbp)
   12a5a:	48 8d 05 3f 46 01 00 	lea    0x1463f(%rip),%rax        # 270a0 <g_150>
   12a61:	48 89 85 28 f1 ff ff 	mov    %rax,-0xed8(%rbp)
   12a68:	48 c7 85 30 f1 ff ff 	movq   $0x0,-0xed0(%rbp)
   12a6f:	00 00 00 00 
   12a73:	48 8d 85 60 e3 ff ff 	lea    -0x1ca0(%rbp),%rax
   12a7a:	48 89 85 38 f1 ff ff 	mov    %rax,-0xec8(%rbp)
   12a81:	48 8d 05 18 46 01 00 	lea    0x14618(%rip),%rax        # 270a0 <g_150>
   12a88:	48 89 85 40 f1 ff ff 	mov    %rax,-0xec0(%rbp)
   12a8f:	48 8d 85 60 e3 ff ff 	lea    -0x1ca0(%rbp),%rax
   12a96:	48 89 85 48 f1 ff ff 	mov    %rax,-0xeb8(%rbp)
   12a9d:	48 c7 85 50 f1 ff ff 	movq   $0x0,-0xeb0(%rbp)
   12aa4:	00 00 00 00 
   12aa8:	48 8d 05 d1 45 01 00 	lea    0x145d1(%rip),%rax        # 27080 <g_107>
   12aaf:	48 89 85 58 f1 ff ff 	mov    %rax,-0xea8(%rbp)
   12ab6:	48 8d 05 83 46 01 00 	lea    0x14683(%rip),%rax        # 27140 <g_1126>
   12abd:	48 89 85 60 f1 ff ff 	mov    %rax,-0xea0(%rbp)
   12ac4:	48 8d 05 a5 47 01 00 	lea    0x147a5(%rip),%rax        # 27270 <g_3436>
   12acb:	48 89 85 68 f1 ff ff 	mov    %rax,-0xe98(%rbp)
   12ad2:	48 8d 05 67 46 01 00 	lea    0x14667(%rip),%rax        # 27140 <g_1126>
   12ad9:	48 89 85 70 f1 ff ff 	mov    %rax,-0xe90(%rbp)
   12ae0:	48 8d 05 99 45 01 00 	lea    0x14599(%rip),%rax        # 27080 <g_107>
   12ae7:	48 89 85 78 f1 ff ff 	mov    %rax,-0xe88(%rbp)
   12aee:	48 c7 85 80 f1 ff ff 	movq   $0x0,-0xe80(%rbp)
   12af5:	00 00 00 00 
   12af9:	48 8d 05 40 46 01 00 	lea    0x14640(%rip),%rax        # 27140 <g_1126>
   12b00:	48 89 85 88 f1 ff ff 	mov    %rax,-0xe78(%rbp)
   12b07:	48 8d 05 92 45 01 00 	lea    0x14592(%rip),%rax        # 270a0 <g_150>
   12b0e:	48 89 85 90 f1 ff ff 	mov    %rax,-0xe70(%rbp)
   12b15:	48 8d 05 64 45 01 00 	lea    0x14564(%rip),%rax        # 27080 <g_107>
   12b1c:	48 89 85 98 f1 ff ff 	mov    %rax,-0xe68(%rbp)
   12b23:	48 c7 85 a0 f1 ff ff 	movq   $0x0,-0xe60(%rbp)
   12b2a:	00 00 00 00 
   12b2e:	48 c7 85 a8 f1 ff ff 	movq   $0x0,-0xe58(%rbp)
   12b35:	00 00 00 00 
   12b39:	48 8d 05 60 45 01 00 	lea    0x14560(%rip),%rax        # 270a0 <g_150>
   12b40:	48 89 85 b0 f1 ff ff 	mov    %rax,-0xe50(%rbp)
   12b47:	48 8d 05 32 45 01 00 	lea    0x14532(%rip),%rax        # 27080 <g_107>
   12b4e:	48 89 85 b8 f1 ff ff 	mov    %rax,-0xe48(%rbp)
   12b55:	48 8d 05 14 47 01 00 	lea    0x14714(%rip),%rax        # 27270 <g_3436>
   12b5c:	48 89 85 c0 f1 ff ff 	mov    %rax,-0xe40(%rbp)
   12b63:	48 8d 05 16 45 01 00 	lea    0x14516(%rip),%rax        # 27080 <g_107>
   12b6a:	48 89 85 c8 f1 ff ff 	mov    %rax,-0xe38(%rbp)
   12b71:	48 8d 85 60 e3 ff ff 	lea    -0x1ca0(%rbp),%rax
   12b78:	48 89 85 d0 f1 ff ff 	mov    %rax,-0xe30(%rbp)
   12b7f:	48 8d 05 1a 45 01 00 	lea    0x1451a(%rip),%rax        # 270a0 <g_150>
   12b86:	48 89 85 d8 f1 ff ff 	mov    %rax,-0xe28(%rbp)
   12b8d:	48 8d 85 60 e3 ff ff 	lea    -0x1ca0(%rbp),%rax
   12b94:	48 89 85 e0 f1 ff ff 	mov    %rax,-0xe20(%rbp)
   12b9b:	48 8d 05 9e 45 01 00 	lea    0x1459e(%rip),%rax        # 27140 <g_1126>
   12ba2:	48 89 85 e8 f1 ff ff 	mov    %rax,-0xe18(%rbp)
   12ba9:	48 8d 05 d0 44 01 00 	lea    0x144d0(%rip),%rax        # 27080 <g_107>
   12bb0:	48 89 85 f0 f1 ff ff 	mov    %rax,-0xe10(%rbp)
   12bb7:	48 c7 85 f8 f1 ff ff 	movq   $0x0,-0xe08(%rbp)
   12bbe:	00 00 00 00 
   12bc2:	48 8d 05 b7 44 01 00 	lea    0x144b7(%rip),%rax        # 27080 <g_107>
   12bc9:	48 89 85 00 f2 ff ff 	mov    %rax,-0xe00(%rbp)
   12bd0:	48 c7 85 08 f2 ff ff 	movq   $0x0,-0xdf8(%rbp)
   12bd7:	00 00 00 00 
   12bdb:	48 8d 05 8e 46 01 00 	lea    0x1468e(%rip),%rax        # 27270 <g_3436>
   12be2:	48 89 85 10 f2 ff ff 	mov    %rax,-0xdf0(%rbp)
   12be9:	48 8d 05 80 46 01 00 	lea    0x14680(%rip),%rax        # 27270 <g_3436>
   12bf0:	48 89 85 18 f2 ff ff 	mov    %rax,-0xde8(%rbp)
   12bf7:	48 c7 85 20 f2 ff ff 	movq   $0x0,-0xde0(%rbp)
   12bfe:	00 00 00 00 
   12c02:	48 8d 05 77 44 01 00 	lea    0x14477(%rip),%rax        # 27080 <g_107>
   12c09:	48 89 85 28 f2 ff ff 	mov    %rax,-0xdd8(%rbp)
   12c10:	48 c7 85 30 f2 ff ff 	movq   $0x0,-0xdd0(%rbp)
   12c17:	00 00 00 00 
   12c1b:	48 8d 05 5e 44 01 00 	lea    0x1445e(%rip),%rax        # 27080 <g_107>
   12c22:	48 89 85 38 f2 ff ff 	mov    %rax,-0xdc8(%rbp)
   12c29:	48 8d 05 70 44 01 00 	lea    0x14470(%rip),%rax        # 270a0 <g_150>
   12c30:	48 89 85 40 f2 ff ff 	mov    %rax,-0xdc0(%rbp)
   12c37:	48 8d 05 42 44 01 00 	lea    0x14442(%rip),%rax        # 27080 <g_107>
   12c3e:	48 89 85 48 f2 ff ff 	mov    %rax,-0xdb8(%rbp)
   12c45:	48 8d 05 54 44 01 00 	lea    0x14454(%rip),%rax        # 270a0 <g_150>
   12c4c:	48 89 85 50 f2 ff ff 	mov    %rax,-0xdb0(%rbp)
   12c53:	48 c7 85 58 f2 ff ff 	movq   $0x0,-0xda8(%rbp)
   12c5a:	00 00 00 00 
   12c5e:	48 8d 05 db 44 01 00 	lea    0x144db(%rip),%rax        # 27140 <g_1126>
   12c65:	48 89 85 60 f2 ff ff 	mov    %rax,-0xda0(%rbp)
   12c6c:	48 8d 05 2d 44 01 00 	lea    0x1442d(%rip),%rax        # 270a0 <g_150>
   12c73:	48 89 85 68 f2 ff ff 	mov    %rax,-0xd98(%rbp)
   12c7a:	48 8d 05 1f 44 01 00 	lea    0x1441f(%rip),%rax        # 270a0 <g_150>
   12c81:	48 89 85 70 f2 ff ff 	mov    %rax,-0xd90(%rbp)
   12c88:	48 c7 85 78 f2 ff ff 	movq   $0x0,-0xd88(%rbp)
   12c8f:	00 00 00 00 
   12c93:	48 8d 05 06 44 01 00 	lea    0x14406(%rip),%rax        # 270a0 <g_150>
   12c9a:	48 89 85 80 f2 ff ff 	mov    %rax,-0xd80(%rbp)
   12ca1:	48 8d 05 f8 43 01 00 	lea    0x143f8(%rip),%rax        # 270a0 <g_150>
   12ca8:	48 89 85 88 f2 ff ff 	mov    %rax,-0xd78(%rbp)
   12caf:	48 8d 05 ea 43 01 00 	lea    0x143ea(%rip),%rax        # 270a0 <g_150>
   12cb6:	48 89 85 90 f2 ff ff 	mov    %rax,-0xd70(%rbp)
   12cbd:	48 c7 85 98 f2 ff ff 	movq   $0x0,-0xd68(%rbp)
   12cc4:	00 00 00 00 
   12cc8:	48 8d 85 60 e3 ff ff 	lea    -0x1ca0(%rbp),%rax
   12ccf:	48 89 85 a0 f2 ff ff 	mov    %rax,-0xd60(%rbp)
   12cd6:	48 c7 85 a8 f2 ff ff 	movq   $0x0,-0xd58(%rbp)
   12cdd:	00 00 00 00 
   12ce1:	48 8d 05 58 44 01 00 	lea    0x14458(%rip),%rax        # 27140 <g_1126>
   12ce8:	48 89 85 b0 f2 ff ff 	mov    %rax,-0xd50(%rbp)
   12cef:	48 8d 05 8a 43 01 00 	lea    0x1438a(%rip),%rax        # 27080 <g_107>
   12cf6:	48 89 85 b8 f2 ff ff 	mov    %rax,-0xd48(%rbp)
   12cfd:	48 8d 05 7c 43 01 00 	lea    0x1437c(%rip),%rax        # 27080 <g_107>
   12d04:	48 89 85 c0 f2 ff ff 	mov    %rax,-0xd40(%rbp)
   12d0b:	48 8d 05 6e 43 01 00 	lea    0x1436e(%rip),%rax        # 27080 <g_107>
   12d12:	48 89 85 c8 f2 ff ff 	mov    %rax,-0xd38(%rbp)
   12d19:	48 8d 05 20 44 01 00 	lea    0x14420(%rip),%rax        # 27140 <g_1126>
   12d20:	48 89 85 d0 f2 ff ff 	mov    %rax,-0xd30(%rbp)
   12d27:	48 c7 85 d8 f2 ff ff 	movq   $0x0,-0xd28(%rbp)
   12d2e:	00 00 00 00 
   12d32:	48 8d 05 07 44 01 00 	lea    0x14407(%rip),%rax        # 27140 <g_1126>
   12d39:	48 89 85 e0 f2 ff ff 	mov    %rax,-0xd20(%rbp)
   12d40:	48 8d 05 59 43 01 00 	lea    0x14359(%rip),%rax        # 270a0 <g_150>
   12d47:	48 89 85 e8 f2 ff ff 	mov    %rax,-0xd18(%rbp)
   12d4e:	48 8d 05 eb 43 01 00 	lea    0x143eb(%rip),%rax        # 27140 <g_1126>
   12d55:	48 89 85 f0 f2 ff ff 	mov    %rax,-0xd10(%rbp)
   12d5c:	48 c7 85 f8 f2 ff ff 	movq   $0x0,-0xd08(%rbp)
   12d63:	00 00 00 00 
   12d67:	48 8d 05 d2 43 01 00 	lea    0x143d2(%rip),%rax        # 27140 <g_1126>
   12d6e:	48 89 85 00 f3 ff ff 	mov    %rax,-0xd00(%rbp)
   12d75:	48 c7 85 08 f3 ff ff 	movq   $0x0,-0xcf8(%rbp)
   12d7c:	00 00 00 00 
   12d80:	48 8d 05 19 43 01 00 	lea    0x14319(%rip),%rax        # 270a0 <g_150>
   12d87:	48 89 85 10 f3 ff ff 	mov    %rax,-0xcf0(%rbp)
   12d8e:	48 8d 85 60 e3 ff ff 	lea    -0x1ca0(%rbp),%rax
   12d95:	48 89 85 18 f3 ff ff 	mov    %rax,-0xce8(%rbp)
   12d9c:	48 8d 85 60 e3 ff ff 	lea    -0x1ca0(%rbp),%rax
   12da3:	48 89 85 20 f3 ff ff 	mov    %rax,-0xce0(%rbp)
   12daa:	48 8d 85 60 e3 ff ff 	lea    -0x1ca0(%rbp),%rax
   12db1:	48 89 85 28 f3 ff ff 	mov    %rax,-0xcd8(%rbp)
   12db8:	48 8d 05 e1 42 01 00 	lea    0x142e1(%rip),%rax        # 270a0 <g_150>
   12dbf:	48 89 85 30 f3 ff ff 	mov    %rax,-0xcd0(%rbp)
   12dc6:	48 8d 05 73 43 01 00 	lea    0x14373(%rip),%rax        # 27140 <g_1126>
   12dcd:	48 89 85 38 f3 ff ff 	mov    %rax,-0xcc8(%rbp)
   12dd4:	48 8d 05 a5 42 01 00 	lea    0x142a5(%rip),%rax        # 27080 <g_107>
   12ddb:	48 89 85 40 f3 ff ff 	mov    %rax,-0xcc0(%rbp)
   12de2:	48 8d 05 b7 42 01 00 	lea    0x142b7(%rip),%rax        # 270a0 <g_150>
   12de9:	48 89 85 48 f3 ff ff 	mov    %rax,-0xcb8(%rbp)
   12df0:	48 8d 05 a9 42 01 00 	lea    0x142a9(%rip),%rax        # 270a0 <g_150>
   12df7:	48 89 85 50 f3 ff ff 	mov    %rax,-0xcb0(%rbp)
   12dfe:	48 c7 85 58 f3 ff ff 	movq   $0x0,-0xca8(%rbp)
   12e05:	00 00 00 00 
   12e09:	48 8d 05 60 44 01 00 	lea    0x14460(%rip),%rax        # 27270 <g_3436>
   12e10:	48 89 85 60 f3 ff ff 	mov    %rax,-0xca0(%rbp)
   12e17:	48 8d 85 60 e3 ff ff 	lea    -0x1ca0(%rbp),%rax
   12e1e:	48 89 85 68 f3 ff ff 	mov    %rax,-0xc98(%rbp)
   12e25:	48 8d 85 60 e3 ff ff 	lea    -0x1ca0(%rbp),%rax
   12e2c:	48 89 85 70 f3 ff ff 	mov    %rax,-0xc90(%rbp)
   12e33:	48 8d 05 36 44 01 00 	lea    0x14436(%rip),%rax        # 27270 <g_3436>
   12e3a:	48 89 85 78 f3 ff ff 	mov    %rax,-0xc88(%rbp)
   12e41:	48 8d 05 58 42 01 00 	lea    0x14258(%rip),%rax        # 270a0 <g_150>
   12e48:	48 89 85 80 f3 ff ff 	mov    %rax,-0xc80(%rbp)
   12e4f:	48 8d 85 60 e3 ff ff 	lea    -0x1ca0(%rbp),%rax
   12e56:	48 89 85 88 f3 ff ff 	mov    %rax,-0xc78(%rbp)
   12e5d:	48 8d 05 dc 42 01 00 	lea    0x142dc(%rip),%rax        # 27140 <g_1126>
   12e64:	48 89 85 90 f3 ff ff 	mov    %rax,-0xc70(%rbp)
   12e6b:	48 8d 05 ce 42 01 00 	lea    0x142ce(%rip),%rax        # 27140 <g_1126>
   12e72:	48 89 85 98 f3 ff ff 	mov    %rax,-0xc68(%rbp)
   12e79:	48 8d 85 60 e3 ff ff 	lea    -0x1ca0(%rbp),%rax
   12e80:	48 89 85 a0 f3 ff ff 	mov    %rax,-0xc60(%rbp)
   12e87:	48 8d 05 12 42 01 00 	lea    0x14212(%rip),%rax        # 270a0 <g_150>
   12e8e:	48 89 85 a8 f3 ff ff 	mov    %rax,-0xc58(%rbp)
   12e95:	48 8d 85 60 e3 ff ff 	lea    -0x1ca0(%rbp),%rax
   12e9c:	48 89 85 b0 f3 ff ff 	mov    %rax,-0xc50(%rbp)
   12ea3:	48 8d 05 d6 41 01 00 	lea    0x141d6(%rip),%rax        # 27080 <g_107>
   12eaa:	48 89 85 b8 f3 ff ff 	mov    %rax,-0xc48(%rbp)
   12eb1:	48 8d 05 b8 43 01 00 	lea    0x143b8(%rip),%rax        # 27270 <g_3436>
   12eb8:	48 89 85 c0 f3 ff ff 	mov    %rax,-0xc40(%rbp)
   12ebf:	48 8d 05 ba 41 01 00 	lea    0x141ba(%rip),%rax        # 27080 <g_107>
   12ec6:	48 89 85 c8 f3 ff ff 	mov    %rax,-0xc38(%rbp)
   12ecd:	48 c7 85 d0 f3 ff ff 	movq   $0x0,-0xc30(%rbp)
   12ed4:	00 00 00 00 
   12ed8:	48 8d 05 a1 41 01 00 	lea    0x141a1(%rip),%rax        # 27080 <g_107>
   12edf:	48 89 85 d8 f3 ff ff 	mov    %rax,-0xc28(%rbp)
   12ee6:	48 8d 85 60 e3 ff ff 	lea    -0x1ca0(%rbp),%rax
   12eed:	48 89 85 e0 f3 ff ff 	mov    %rax,-0xc20(%rbp)
   12ef4:	48 8d 05 a5 41 01 00 	lea    0x141a5(%rip),%rax        # 270a0 <g_150>
   12efb:	48 89 85 e8 f3 ff ff 	mov    %rax,-0xc18(%rbp)
   12f02:	48 8d 05 77 41 01 00 	lea    0x14177(%rip),%rax        # 27080 <g_107>
   12f09:	48 89 85 f0 f3 ff ff 	mov    %rax,-0xc10(%rbp)
   12f10:	48 8d 85 60 e3 ff ff 	lea    -0x1ca0(%rbp),%rax
   12f17:	48 89 85 f8 f3 ff ff 	mov    %rax,-0xc08(%rbp)
   12f1e:	48 c7 85 00 f4 ff ff 	movq   $0x0,-0xc00(%rbp)
   12f25:	00 00 00 00 
   12f29:	48 c7 85 08 f4 ff ff 	movq   $0x0,-0xbf8(%rbp)
   12f30:	00 00 00 00 
   12f34:	48 8d 05 65 41 01 00 	lea    0x14165(%rip),%rax        # 270a0 <g_150>
   12f3b:	48 89 85 10 f4 ff ff 	mov    %rax,-0xbf0(%rbp)
   12f42:	48 8d 05 57 41 01 00 	lea    0x14157(%rip),%rax        # 270a0 <g_150>
   12f49:	48 89 85 18 f4 ff ff 	mov    %rax,-0xbe8(%rbp)
   12f50:	48 c7 85 20 f4 ff ff 	movq   $0x0,-0xbe0(%rbp)
   12f57:	00 00 00 00 
   12f5b:	48 8d 05 0e 43 01 00 	lea    0x1430e(%rip),%rax        # 27270 <g_3436>
   12f62:	48 89 85 28 f4 ff ff 	mov    %rax,-0xbd8(%rbp)
   12f69:	48 8d 05 30 41 01 00 	lea    0x14130(%rip),%rax        # 270a0 <g_150>
   12f70:	48 89 85 30 f4 ff ff 	mov    %rax,-0xbd0(%rbp)
   12f77:	48 8d 05 22 41 01 00 	lea    0x14122(%rip),%rax        # 270a0 <g_150>
   12f7e:	48 89 85 38 f4 ff ff 	mov    %rax,-0xbc8(%rbp)
   12f85:	48 c7 85 40 f4 ff ff 	movq   $0x0,-0xbc0(%rbp)
   12f8c:	00 00 00 00 
   12f90:	48 8d 05 09 41 01 00 	lea    0x14109(%rip),%rax        # 270a0 <g_150>
   12f97:	48 89 85 48 f4 ff ff 	mov    %rax,-0xbb8(%rbp)
   12f9e:	48 8d 05 fb 40 01 00 	lea    0x140fb(%rip),%rax        # 270a0 <g_150>
   12fa5:	48 89 85 50 f4 ff ff 	mov    %rax,-0xbb0(%rbp)
   12fac:	48 8d 05 bd 42 01 00 	lea    0x142bd(%rip),%rax        # 27270 <g_3436>
   12fb3:	48 89 85 58 f4 ff ff 	mov    %rax,-0xba8(%rbp)
   12fba:	48 c7 85 60 f4 ff ff 	movq   $0x0,-0xba0(%rbp)
   12fc1:	00 00 00 00 
   12fc5:	48 8d 05 a4 42 01 00 	lea    0x142a4(%rip),%rax        # 27270 <g_3436>
   12fcc:	48 89 85 68 f4 ff ff 	mov    %rax,-0xb98(%rbp)
   12fd3:	48 8d 05 c6 40 01 00 	lea    0x140c6(%rip),%rax        # 270a0 <g_150>
   12fda:	48 89 85 70 f4 ff ff 	mov    %rax,-0xb90(%rbp)
   12fe1:	48 8d 05 b8 40 01 00 	lea    0x140b8(%rip),%rax        # 270a0 <g_150>
   12fe8:	48 89 85 78 f4 ff ff 	mov    %rax,-0xb88(%rbp)
   12fef:	48 8d 05 7a 42 01 00 	lea    0x1427a(%rip),%rax        # 27270 <g_3436>
   12ff6:	48 89 85 80 f4 ff ff 	mov    %rax,-0xb80(%rbp)
   12ffd:	48 c7 85 88 f4 ff ff 	movq   $0x0,-0xb78(%rbp)
   13004:	00 00 00 00 
   13008:	48 8d 05 61 42 01 00 	lea    0x14261(%rip),%rax        # 27270 <g_3436>
   1300f:	48 89 85 90 f4 ff ff 	mov    %rax,-0xb70(%rbp)
   13016:	48 c7 85 98 f4 ff ff 	movq   $0x0,-0xb68(%rbp)
   1301d:	00 00 00 00 
   13021:	48 8d 05 18 41 01 00 	lea    0x14118(%rip),%rax        # 27140 <g_1126>
   13028:	48 89 85 a0 f4 ff ff 	mov    %rax,-0xb60(%rbp)
   1302f:	48 8d 05 0a 41 01 00 	lea    0x1410a(%rip),%rax        # 27140 <g_1126>
   13036:	48 89 85 a8 f4 ff ff 	mov    %rax,-0xb58(%rbp)
   1303d:	48 8d 85 60 e3 ff ff 	lea    -0x1ca0(%rbp),%rax
   13044:	48 89 85 b0 f4 ff ff 	mov    %rax,-0xb50(%rbp)
   1304b:	48 c7 85 b8 f4 ff ff 	movq   $0x0,-0xb48(%rbp)
   13052:	00 00 00 00 
   13056:	48 8d 05 43 40 01 00 	lea    0x14043(%rip),%rax        # 270a0 <g_150>
   1305d:	48 89 85 c0 f4 ff ff 	mov    %rax,-0xb40(%rbp)
   13064:	48 8d 85 60 e3 ff ff 	lea    -0x1ca0(%rbp),%rax
   1306b:	48 89 85 c8 f4 ff ff 	mov    %rax,-0xb38(%rbp)
   13072:	48 8d 05 07 40 01 00 	lea    0x14007(%rip),%rax        # 27080 <g_107>
   13079:	48 89 85 d0 f4 ff ff 	mov    %rax,-0xb30(%rbp)
   13080:	48 c7 85 d8 f4 ff ff 	movq   $0x0,-0xb28(%rbp)
   13087:	00 00 00 00 
   1308b:	48 8d 85 60 e3 ff ff 	lea    -0x1ca0(%rbp),%rax
   13092:	48 89 85 e0 f4 ff ff 	mov    %rax,-0xb20(%rbp)
   13099:	48 c7 85 e8 f4 ff ff 	movq   $0x0,-0xb18(%rbp)
   130a0:	00 00 00 00 
   130a4:	48 c7 85 f0 f4 ff ff 	movq   $0x0,-0xb10(%rbp)
   130ab:	00 00 00 00 
   130af:	48 8d 85 60 e3 ff ff 	lea    -0x1ca0(%rbp),%rax
   130b6:	48 89 85 f8 f4 ff ff 	mov    %rax,-0xb08(%rbp)
   130bd:	48 c7 85 00 f5 ff ff 	movq   $0x0,-0xb00(%rbp)
   130c4:	00 00 00 00 
   130c8:	48 8d 05 b1 3f 01 00 	lea    0x13fb1(%rip),%rax        # 27080 <g_107>
   130cf:	48 89 85 08 f5 ff ff 	mov    %rax,-0xaf8(%rbp)
   130d6:	c7 85 18 e4 ff ff 07 	movl   $0x7,-0x1be8(%rbp)
   130dd:	00 00 00 
   130e0:	c7 85 08 e3 ff ff 08 	movl   $0x8,-0x1cf8(%rbp)
   130e7:	00 00 00 
   130ea:	c7 85 0c e3 ff ff 03 	movl   $0x1d578703,-0x1cf4(%rbp)
   130f1:	87 57 1d 
   130f4:	48 8d 85 78 e3 ff ff 	lea    -0x1c88(%rbp),%rax
   130fb:	48 89 85 e0 f7 ff ff 	mov    %rax,-0x820(%rbp)
   13102:	48 8d 85 78 e3 ff ff 	lea    -0x1c88(%rbp),%rax
   13109:	48 89 85 e8 f7 ff ff 	mov    %rax,-0x818(%rbp)
   13110:	48 8d 85 78 e3 ff ff 	lea    -0x1c88(%rbp),%rax
   13117:	48 89 85 f0 f7 ff ff 	mov    %rax,-0x810(%rbp)
   1311e:	48 8d 85 78 e3 ff ff 	lea    -0x1c88(%rbp),%rax
   13125:	48 89 85 f8 f7 ff ff 	mov    %rax,-0x808(%rbp)
   1312c:	48 c7 85 00 f8 ff ff 	movq   $0x0,-0x800(%rbp)
   13133:	00 00 00 00 
   13137:	48 8d 85 78 e3 ff ff 	lea    -0x1c88(%rbp),%rax
   1313e:	48 89 85 08 f8 ff ff 	mov    %rax,-0x7f8(%rbp)
   13145:	48 8d 85 78 e3 ff ff 	lea    -0x1c88(%rbp),%rax
   1314c:	48 89 85 10 f8 ff ff 	mov    %rax,-0x7f0(%rbp)
   13153:	48 8d 85 78 e3 ff ff 	lea    -0x1c88(%rbp),%rax
   1315a:	48 89 85 18 f8 ff ff 	mov    %rax,-0x7e8(%rbp)
   13161:	48 c7 85 20 f8 ff ff 	movq   $0x0,-0x7e0(%rbp)
   13168:	00 00 00 00 
   1316c:	48 8d 85 78 e3 ff ff 	lea    -0x1c88(%rbp),%rax
   13173:	48 89 85 28 f8 ff ff 	mov    %rax,-0x7d8(%rbp)
   1317a:	48 8d 85 78 e3 ff ff 	lea    -0x1c88(%rbp),%rax
   13181:	48 89 85 30 f8 ff ff 	mov    %rax,-0x7d0(%rbp)
   13188:	48 8d 85 78 e3 ff ff 	lea    -0x1c88(%rbp),%rax
   1318f:	48 89 85 38 f8 ff ff 	mov    %rax,-0x7c8(%rbp)
   13196:	48 8d 85 78 e3 ff ff 	lea    -0x1c88(%rbp),%rax
   1319d:	48 89 85 40 f8 ff ff 	mov    %rax,-0x7c0(%rbp)
   131a4:	48 8d 85 78 e3 ff ff 	lea    -0x1c88(%rbp),%rax
   131ab:	48 89 85 48 f8 ff ff 	mov    %rax,-0x7b8(%rbp)
   131b2:	48 8d 85 78 e3 ff ff 	lea    -0x1c88(%rbp),%rax
   131b9:	48 89 85 50 f8 ff ff 	mov    %rax,-0x7b0(%rbp)
   131c0:	48 8d 85 78 e3 ff ff 	lea    -0x1c88(%rbp),%rax
   131c7:	48 89 85 58 f8 ff ff 	mov    %rax,-0x7a8(%rbp)
   131ce:	48 c7 85 60 f8 ff ff 	movq   $0x0,-0x7a0(%rbp)
   131d5:	00 00 00 00 
   131d9:	48 8d 85 78 e3 ff ff 	lea    -0x1c88(%rbp),%rax
   131e0:	48 89 85 68 f8 ff ff 	mov    %rax,-0x798(%rbp)
   131e7:	48 c7 85 70 f8 ff ff 	movq   $0x0,-0x790(%rbp)
   131ee:	00 00 00 00 
   131f2:	48 8d 85 78 e3 ff ff 	lea    -0x1c88(%rbp),%rax
   131f9:	48 89 85 78 f8 ff ff 	mov    %rax,-0x788(%rbp)
   13200:	48 8d 85 78 e3 ff ff 	lea    -0x1c88(%rbp),%rax
   13207:	48 89 85 80 f8 ff ff 	mov    %rax,-0x780(%rbp)
   1320e:	48 8d 85 78 e3 ff ff 	lea    -0x1c88(%rbp),%rax
   13215:	48 89 85 88 f8 ff ff 	mov    %rax,-0x778(%rbp)
   1321c:	48 8d 85 78 e3 ff ff 	lea    -0x1c88(%rbp),%rax
   13223:	48 89 85 90 f8 ff ff 	mov    %rax,-0x770(%rbp)
   1322a:	48 8d 85 78 e3 ff ff 	lea    -0x1c88(%rbp),%rax
   13231:	48 89 85 98 f8 ff ff 	mov    %rax,-0x768(%rbp)
   13238:	48 8d 85 78 e3 ff ff 	lea    -0x1c88(%rbp),%rax
   1323f:	48 89 85 a0 f8 ff ff 	mov    %rax,-0x760(%rbp)
   13246:	48 8d 85 78 e3 ff ff 	lea    -0x1c88(%rbp),%rax
   1324d:	48 89 85 a8 f8 ff ff 	mov    %rax,-0x758(%rbp)
   13254:	48 8d 85 78 e3 ff ff 	lea    -0x1c88(%rbp),%rax
   1325b:	48 89 85 b0 f8 ff ff 	mov    %rax,-0x750(%rbp)
   13262:	48 8d 85 78 e3 ff ff 	lea    -0x1c88(%rbp),%rax
   13269:	48 89 85 b8 f8 ff ff 	mov    %rax,-0x748(%rbp)
   13270:	48 8d 85 78 e3 ff ff 	lea    -0x1c88(%rbp),%rax
   13277:	48 89 85 c0 f8 ff ff 	mov    %rax,-0x740(%rbp)
   1327e:	48 8d 85 78 e3 ff ff 	lea    -0x1c88(%rbp),%rax
   13285:	48 89 85 c8 f8 ff ff 	mov    %rax,-0x738(%rbp)
   1328c:	48 8d 85 78 e3 ff ff 	lea    -0x1c88(%rbp),%rax
   13293:	48 89 85 d0 f8 ff ff 	mov    %rax,-0x730(%rbp)
   1329a:	48 8d 85 78 e3 ff ff 	lea    -0x1c88(%rbp),%rax
   132a1:	48 89 85 d8 f8 ff ff 	mov    %rax,-0x728(%rbp)
   132a8:	48 8d 85 78 e3 ff ff 	lea    -0x1c88(%rbp),%rax
   132af:	48 89 85 e0 f8 ff ff 	mov    %rax,-0x720(%rbp)
   132b6:	48 c7 85 e8 f8 ff ff 	movq   $0x0,-0x718(%rbp)
   132bd:	00 00 00 00 
   132c1:	48 8d 85 78 e3 ff ff 	lea    -0x1c88(%rbp),%rax
   132c8:	48 89 85 f0 f8 ff ff 	mov    %rax,-0x710(%rbp)
   132cf:	48 c7 85 f8 f8 ff ff 	movq   $0x0,-0x708(%rbp)
   132d6:	00 00 00 00 
   132da:	48 8d 85 78 e3 ff ff 	lea    -0x1c88(%rbp),%rax
   132e1:	48 89 85 00 f9 ff ff 	mov    %rax,-0x700(%rbp)
   132e8:	48 c7 85 08 f9 ff ff 	movq   $0x0,-0x6f8(%rbp)
   132ef:	00 00 00 00 
   132f3:	48 8d 85 78 e3 ff ff 	lea    -0x1c88(%rbp),%rax
   132fa:	48 89 85 10 f9 ff ff 	mov    %rax,-0x6f0(%rbp)
   13301:	48 8d 85 78 e3 ff ff 	lea    -0x1c88(%rbp),%rax
   13308:	48 89 85 18 f9 ff ff 	mov    %rax,-0x6e8(%rbp)
   1330f:	48 8d 85 78 e3 ff ff 	lea    -0x1c88(%rbp),%rax
   13316:	48 89 85 20 f9 ff ff 	mov    %rax,-0x6e0(%rbp)
   1331d:	48 8d 85 78 e3 ff ff 	lea    -0x1c88(%rbp),%rax
   13324:	48 89 85 28 f9 ff ff 	mov    %rax,-0x6d8(%rbp)
   1332b:	48 8d 85 78 e3 ff ff 	lea    -0x1c88(%rbp),%rax
   13332:	48 89 85 30 f9 ff ff 	mov    %rax,-0x6d0(%rbp)
   13339:	48 c7 85 38 f9 ff ff 	movq   $0x0,-0x6c8(%rbp)
   13340:	00 00 00 00 
   13344:	48 8d 85 78 e3 ff ff 	lea    -0x1c88(%rbp),%rax
   1334b:	48 89 85 40 f9 ff ff 	mov    %rax,-0x6c0(%rbp)
   13352:	48 8d 85 78 e3 ff ff 	lea    -0x1c88(%rbp),%rax
   13359:	48 89 85 48 f9 ff ff 	mov    %rax,-0x6b8(%rbp)
   13360:	48 8d 85 78 e3 ff ff 	lea    -0x1c88(%rbp),%rax
   13367:	48 89 85 50 f9 ff ff 	mov    %rax,-0x6b0(%rbp)
   1336e:	48 8d 85 78 e3 ff ff 	lea    -0x1c88(%rbp),%rax
   13375:	48 89 85 58 f9 ff ff 	mov    %rax,-0x6a8(%rbp)
   1337c:	48 8d 85 78 e3 ff ff 	lea    -0x1c88(%rbp),%rax
   13383:	48 89 85 60 f9 ff ff 	mov    %rax,-0x6a0(%rbp)
   1338a:	48 8d 85 78 e3 ff ff 	lea    -0x1c88(%rbp),%rax
   13391:	48 89 85 68 f9 ff ff 	mov    %rax,-0x698(%rbp)
   13398:	48 8d 85 78 e3 ff ff 	lea    -0x1c88(%rbp),%rax
   1339f:	48 89 85 70 f9 ff ff 	mov    %rax,-0x690(%rbp)
   133a6:	48 8d 85 78 e3 ff ff 	lea    -0x1c88(%rbp),%rax
   133ad:	48 89 85 78 f9 ff ff 	mov    %rax,-0x688(%rbp)
   133b4:	48 8d 85 78 e3 ff ff 	lea    -0x1c88(%rbp),%rax
   133bb:	48 89 85 80 f9 ff ff 	mov    %rax,-0x680(%rbp)
   133c2:	48 c7 85 88 f9 ff ff 	movq   $0x0,-0x678(%rbp)
   133c9:	00 00 00 00 
   133cd:	48 8d 85 78 e3 ff ff 	lea    -0x1c88(%rbp),%rax
   133d4:	48 89 85 90 f9 ff ff 	mov    %rax,-0x670(%rbp)
   133db:	48 c7 85 98 f9 ff ff 	movq   $0x0,-0x668(%rbp)
   133e2:	00 00 00 00 
   133e6:	48 c7 85 a0 f9 ff ff 	movq   $0x0,-0x660(%rbp)
   133ed:	00 00 00 00 
   133f1:	48 8d 85 78 e3 ff ff 	lea    -0x1c88(%rbp),%rax
   133f8:	48 89 85 a8 f9 ff ff 	mov    %rax,-0x658(%rbp)
   133ff:	48 8d 85 78 e3 ff ff 	lea    -0x1c88(%rbp),%rax
   13406:	48 89 85 b0 f9 ff ff 	mov    %rax,-0x650(%rbp)
   1340d:	48 8d 85 78 e3 ff ff 	lea    -0x1c88(%rbp),%rax
   13414:	48 89 85 b8 f9 ff ff 	mov    %rax,-0x648(%rbp)
   1341b:	48 8d 85 78 e3 ff ff 	lea    -0x1c88(%rbp),%rax
   13422:	48 89 85 c0 f9 ff ff 	mov    %rax,-0x640(%rbp)
   13429:	48 8d 85 78 e3 ff ff 	lea    -0x1c88(%rbp),%rax
   13430:	48 89 85 c8 f9 ff ff 	mov    %rax,-0x638(%rbp)
   13437:	48 8d 85 78 e3 ff ff 	lea    -0x1c88(%rbp),%rax
   1343e:	48 89 85 d0 f9 ff ff 	mov    %rax,-0x630(%rbp)
   13445:	48 8d 85 78 e3 ff ff 	lea    -0x1c88(%rbp),%rax
   1344c:	48 89 85 d8 f9 ff ff 	mov    %rax,-0x628(%rbp)
   13453:	48 8d 85 78 e3 ff ff 	lea    -0x1c88(%rbp),%rax
   1345a:	48 89 85 e0 f9 ff ff 	mov    %rax,-0x620(%rbp)
   13461:	48 8d 85 78 e3 ff ff 	lea    -0x1c88(%rbp),%rax
   13468:	48 89 85 e8 f9 ff ff 	mov    %rax,-0x618(%rbp)
   1346f:	48 8d 85 78 e3 ff ff 	lea    -0x1c88(%rbp),%rax
   13476:	48 89 85 f0 f9 ff ff 	mov    %rax,-0x610(%rbp)
   1347d:	48 8d 85 78 e3 ff ff 	lea    -0x1c88(%rbp),%rax
   13484:	48 89 85 f8 f9 ff ff 	mov    %rax,-0x608(%rbp)
   1348b:	48 8d 85 78 e3 ff ff 	lea    -0x1c88(%rbp),%rax
   13492:	48 89 85 00 fa ff ff 	mov    %rax,-0x600(%rbp)
   13499:	48 c7 85 08 fa ff ff 	movq   $0x0,-0x5f8(%rbp)
   134a0:	00 00 00 00 
   134a4:	48 c7 85 10 fa ff ff 	movq   $0x0,-0x5f0(%rbp)
   134ab:	00 00 00 00 
   134af:	48 8d 85 78 e3 ff ff 	lea    -0x1c88(%rbp),%rax
   134b6:	48 89 85 18 fa ff ff 	mov    %rax,-0x5e8(%rbp)
   134bd:	48 8d 85 78 e3 ff ff 	lea    -0x1c88(%rbp),%rax
   134c4:	48 89 85 20 fa ff ff 	mov    %rax,-0x5e0(%rbp)
   134cb:	48 8d 85 78 e3 ff ff 	lea    -0x1c88(%rbp),%rax
   134d2:	48 89 85 28 fa ff ff 	mov    %rax,-0x5d8(%rbp)
   134d9:	48 8d 85 78 e3 ff ff 	lea    -0x1c88(%rbp),%rax
   134e0:	48 89 85 30 fa ff ff 	mov    %rax,-0x5d0(%rbp)
   134e7:	48 8d 85 78 e3 ff ff 	lea    -0x1c88(%rbp),%rax
   134ee:	48 89 85 38 fa ff ff 	mov    %rax,-0x5c8(%rbp)
   134f5:	48 8d 85 78 e3 ff ff 	lea    -0x1c88(%rbp),%rax
   134fc:	48 89 85 40 fa ff ff 	mov    %rax,-0x5c0(%rbp)
   13503:	48 8d 85 78 e3 ff ff 	lea    -0x1c88(%rbp),%rax
   1350a:	48 89 85 48 fa ff ff 	mov    %rax,-0x5b8(%rbp)
   13511:	48 8d 85 78 e3 ff ff 	lea    -0x1c88(%rbp),%rax
   13518:	48 89 85 50 fa ff ff 	mov    %rax,-0x5b0(%rbp)
   1351f:	48 8d 85 78 e3 ff ff 	lea    -0x1c88(%rbp),%rax
   13526:	48 89 85 58 fa ff ff 	mov    %rax,-0x5a8(%rbp)
   1352d:	48 8d 85 78 e3 ff ff 	lea    -0x1c88(%rbp),%rax
   13534:	48 89 85 60 fa ff ff 	mov    %rax,-0x5a0(%rbp)
   1353b:	48 8d 85 78 e3 ff ff 	lea    -0x1c88(%rbp),%rax
   13542:	48 89 85 68 fa ff ff 	mov    %rax,-0x598(%rbp)
   13549:	48 8d 85 78 e3 ff ff 	lea    -0x1c88(%rbp),%rax
   13550:	48 89 85 70 fa ff ff 	mov    %rax,-0x590(%rbp)
   13557:	48 8d 85 78 e3 ff ff 	lea    -0x1c88(%rbp),%rax
   1355e:	48 89 85 78 fa ff ff 	mov    %rax,-0x588(%rbp)
   13565:	48 c7 85 80 fa ff ff 	movq   $0x0,-0x580(%rbp)
   1356c:	00 00 00 00 
   13570:	48 8d 85 78 e3 ff ff 	lea    -0x1c88(%rbp),%rax
   13577:	48 89 85 88 fa ff ff 	mov    %rax,-0x578(%rbp)
   1357e:	48 8d 85 78 e3 ff ff 	lea    -0x1c88(%rbp),%rax
   13585:	48 89 85 90 fa ff ff 	mov    %rax,-0x570(%rbp)
   1358c:	48 8d 85 78 e3 ff ff 	lea    -0x1c88(%rbp),%rax
   13593:	48 89 85 98 fa ff ff 	mov    %rax,-0x568(%rbp)
   1359a:	48 8d 85 78 e3 ff ff 	lea    -0x1c88(%rbp),%rax
   135a1:	48 89 85 a0 fa ff ff 	mov    %rax,-0x560(%rbp)
   135a8:	48 c7 85 a8 fa ff ff 	movq   $0x0,-0x558(%rbp)
   135af:	00 00 00 00 
   135b3:	48 8d 85 78 e3 ff ff 	lea    -0x1c88(%rbp),%rax
   135ba:	48 89 85 b0 fa ff ff 	mov    %rax,-0x550(%rbp)
   135c1:	48 8d 85 78 e3 ff ff 	lea    -0x1c88(%rbp),%rax
   135c8:	48 89 85 b8 fa ff ff 	mov    %rax,-0x548(%rbp)
   135cf:	48 8d 85 78 e3 ff ff 	lea    -0x1c88(%rbp),%rax
   135d6:	48 89 85 c0 fa ff ff 	mov    %rax,-0x540(%rbp)
   135dd:	48 8d 85 78 e3 ff ff 	lea    -0x1c88(%rbp),%rax
   135e4:	48 89 85 c8 fa ff ff 	mov    %rax,-0x538(%rbp)
   135eb:	48 8d 85 78 e3 ff ff 	lea    -0x1c88(%rbp),%rax
   135f2:	48 89 85 d0 fa ff ff 	mov    %rax,-0x530(%rbp)
   135f9:	48 8d 85 78 e3 ff ff 	lea    -0x1c88(%rbp),%rax
   13600:	48 89 85 d8 fa ff ff 	mov    %rax,-0x528(%rbp)
   13607:	48 8d 85 78 e3 ff ff 	lea    -0x1c88(%rbp),%rax
   1360e:	48 89 85 e0 fa ff ff 	mov    %rax,-0x520(%rbp)
   13615:	48 c7 85 e8 fa ff ff 	movq   $0x0,-0x518(%rbp)
   1361c:	00 00 00 00 
   13620:	48 8d 85 78 e3 ff ff 	lea    -0x1c88(%rbp),%rax
   13627:	48 89 85 f0 fa ff ff 	mov    %rax,-0x510(%rbp)
   1362e:	48 8d 85 78 e3 ff ff 	lea    -0x1c88(%rbp),%rax
   13635:	48 89 85 f8 fa ff ff 	mov    %rax,-0x508(%rbp)
   1363c:	48 8d 85 78 e3 ff ff 	lea    -0x1c88(%rbp),%rax
   13643:	48 89 85 00 fb ff ff 	mov    %rax,-0x500(%rbp)
   1364a:	48 8d 85 78 e3 ff ff 	lea    -0x1c88(%rbp),%rax
   13651:	48 89 85 08 fb ff ff 	mov    %rax,-0x4f8(%rbp)
   13658:	48 8d 85 78 e3 ff ff 	lea    -0x1c88(%rbp),%rax
   1365f:	48 89 85 10 fb ff ff 	mov    %rax,-0x4f0(%rbp)
   13666:	48 8d 85 78 e3 ff ff 	lea    -0x1c88(%rbp),%rax
   1366d:	48 89 85 18 fb ff ff 	mov    %rax,-0x4e8(%rbp)
   13674:	48 8d 85 78 e3 ff ff 	lea    -0x1c88(%rbp),%rax
   1367b:	48 89 85 20 fb ff ff 	mov    %rax,-0x4e0(%rbp)
   13682:	48 c7 85 28 fb ff ff 	movq   $0x0,-0x4d8(%rbp)
   13689:	00 00 00 00 
   1368d:	48 8d 85 78 e3 ff ff 	lea    -0x1c88(%rbp),%rax
   13694:	48 89 85 30 fb ff ff 	mov    %rax,-0x4d0(%rbp)
   1369b:	48 8d 85 78 e3 ff ff 	lea    -0x1c88(%rbp),%rax
   136a2:	48 89 85 38 fb ff ff 	mov    %rax,-0x4c8(%rbp)
   136a9:	48 8d 85 78 e3 ff ff 	lea    -0x1c88(%rbp),%rax
   136b0:	48 89 85 40 fb ff ff 	mov    %rax,-0x4c0(%rbp)
   136b7:	48 8d 85 78 e3 ff ff 	lea    -0x1c88(%rbp),%rax
   136be:	48 89 85 48 fb ff ff 	mov    %rax,-0x4b8(%rbp)
   136c5:	48 8d 85 78 e3 ff ff 	lea    -0x1c88(%rbp),%rax
   136cc:	48 89 85 50 fb ff ff 	mov    %rax,-0x4b0(%rbp)
   136d3:	48 8d 85 78 e3 ff ff 	lea    -0x1c88(%rbp),%rax
   136da:	48 89 85 58 fb ff ff 	mov    %rax,-0x4a8(%rbp)
   136e1:	48 8d 85 78 e3 ff ff 	lea    -0x1c88(%rbp),%rax
   136e8:	48 89 85 60 fb ff ff 	mov    %rax,-0x4a0(%rbp)
   136ef:	48 8d 85 78 e3 ff ff 	lea    -0x1c88(%rbp),%rax
   136f6:	48 89 85 68 fb ff ff 	mov    %rax,-0x498(%rbp)
   136fd:	48 8d 85 78 e3 ff ff 	lea    -0x1c88(%rbp),%rax
   13704:	48 89 85 70 fb ff ff 	mov    %rax,-0x490(%rbp)
   1370b:	48 8d 85 78 e3 ff ff 	lea    -0x1c88(%rbp),%rax
   13712:	48 89 85 78 fb ff ff 	mov    %rax,-0x488(%rbp)
   13719:	48 8d 85 78 e3 ff ff 	lea    -0x1c88(%rbp),%rax
   13720:	48 89 85 80 fb ff ff 	mov    %rax,-0x480(%rbp)
   13727:	48 8d 85 78 e3 ff ff 	lea    -0x1c88(%rbp),%rax
   1372e:	48 89 85 88 fb ff ff 	mov    %rax,-0x478(%rbp)
   13735:	48 8d 85 78 e3 ff ff 	lea    -0x1c88(%rbp),%rax
   1373c:	48 89 85 90 fb ff ff 	mov    %rax,-0x470(%rbp)
   13743:	48 8d 85 78 e3 ff ff 	lea    -0x1c88(%rbp),%rax
   1374a:	48 89 85 98 fb ff ff 	mov    %rax,-0x468(%rbp)
   13751:	48 c7 85 a0 fb ff ff 	movq   $0x0,-0x460(%rbp)
   13758:	00 00 00 00 
   1375c:	48 8d 85 78 e3 ff ff 	lea    -0x1c88(%rbp),%rax
   13763:	48 89 85 a8 fb ff ff 	mov    %rax,-0x458(%rbp)
   1376a:	48 c7 85 b0 fb ff ff 	movq   $0x0,-0x450(%rbp)
   13771:	00 00 00 00 
   13775:	48 8d 85 78 e3 ff ff 	lea    -0x1c88(%rbp),%rax
   1377c:	48 89 85 b8 fb ff ff 	mov    %rax,-0x448(%rbp)
   13783:	48 8d 85 78 e3 ff ff 	lea    -0x1c88(%rbp),%rax
   1378a:	48 89 85 c0 fb ff ff 	mov    %rax,-0x440(%rbp)
   13791:	48 c7 85 c8 fb ff ff 	movq   $0x0,-0x438(%rbp)
   13798:	00 00 00 00 
   1379c:	48 8d 85 78 e3 ff ff 	lea    -0x1c88(%rbp),%rax
   137a3:	48 89 85 d0 fb ff ff 	mov    %rax,-0x430(%rbp)
   137aa:	48 c7 85 d8 fb ff ff 	movq   $0x0,-0x428(%rbp)
   137b1:	00 00 00 00 
   137b5:	48 8d 85 78 e3 ff ff 	lea    -0x1c88(%rbp),%rax
   137bc:	48 89 85 e0 fb ff ff 	mov    %rax,-0x420(%rbp)
   137c3:	48 c7 85 e8 fb ff ff 	movq   $0x0,-0x418(%rbp)
   137ca:	00 00 00 00 
   137ce:	48 8d 85 78 e3 ff ff 	lea    -0x1c88(%rbp),%rax
   137d5:	48 89 85 f0 fb ff ff 	mov    %rax,-0x410(%rbp)
   137dc:	48 8d 85 78 e3 ff ff 	lea    -0x1c88(%rbp),%rax
   137e3:	48 89 85 f8 fb ff ff 	mov    %rax,-0x408(%rbp)
   137ea:	48 c7 85 00 fc ff ff 	movq   $0x0,-0x400(%rbp)
   137f1:	00 00 00 00 
   137f5:	48 8d 85 78 e3 ff ff 	lea    -0x1c88(%rbp),%rax
   137fc:	48 89 85 08 fc ff ff 	mov    %rax,-0x3f8(%rbp)
   13803:	48 8d 85 78 e3 ff ff 	lea    -0x1c88(%rbp),%rax
   1380a:	48 89 85 10 fc ff ff 	mov    %rax,-0x3f0(%rbp)
   13811:	48 8d 85 78 e3 ff ff 	lea    -0x1c88(%rbp),%rax
   13818:	48 89 85 18 fc ff ff 	mov    %rax,-0x3e8(%rbp)
   1381f:	48 8d 85 78 e3 ff ff 	lea    -0x1c88(%rbp),%rax
   13826:	48 89 85 20 fc ff ff 	mov    %rax,-0x3e0(%rbp)
   1382d:	48 8d 85 78 e3 ff ff 	lea    -0x1c88(%rbp),%rax
   13834:	48 89 85 28 fc ff ff 	mov    %rax,-0x3d8(%rbp)
   1383b:	48 8d 85 78 e3 ff ff 	lea    -0x1c88(%rbp),%rax
   13842:	48 89 85 30 fc ff ff 	mov    %rax,-0x3d0(%rbp)
   13849:	48 8d 85 78 e3 ff ff 	lea    -0x1c88(%rbp),%rax
   13850:	48 89 85 38 fc ff ff 	mov    %rax,-0x3c8(%rbp)
   13857:	48 8d 85 78 e3 ff ff 	lea    -0x1c88(%rbp),%rax
   1385e:	48 89 85 40 fc ff ff 	mov    %rax,-0x3c0(%rbp)
   13865:	48 8d 85 78 e3 ff ff 	lea    -0x1c88(%rbp),%rax
   1386c:	48 89 85 48 fc ff ff 	mov    %rax,-0x3b8(%rbp)
   13873:	48 8d 85 78 e3 ff ff 	lea    -0x1c88(%rbp),%rax
   1387a:	48 89 85 50 fc ff ff 	mov    %rax,-0x3b0(%rbp)
   13881:	48 8d 85 78 e3 ff ff 	lea    -0x1c88(%rbp),%rax
   13888:	48 89 85 58 fc ff ff 	mov    %rax,-0x3a8(%rbp)
   1388f:	48 8d 85 78 e3 ff ff 	lea    -0x1c88(%rbp),%rax
   13896:	48 89 85 60 fc ff ff 	mov    %rax,-0x3a0(%rbp)
   1389d:	48 8d 85 78 e3 ff ff 	lea    -0x1c88(%rbp),%rax
   138a4:	48 89 85 68 fc ff ff 	mov    %rax,-0x398(%rbp)
   138ab:	48 c7 85 70 fc ff ff 	movq   $0x0,-0x390(%rbp)
   138b2:	00 00 00 00 
   138b6:	48 8d 85 78 e3 ff ff 	lea    -0x1c88(%rbp),%rax
   138bd:	48 89 85 78 fc ff ff 	mov    %rax,-0x388(%rbp)
   138c4:	48 8d 85 78 e3 ff ff 	lea    -0x1c88(%rbp),%rax
   138cb:	48 89 85 80 fc ff ff 	mov    %rax,-0x380(%rbp)
   138d2:	48 c7 85 88 fc ff ff 	movq   $0x0,-0x378(%rbp)
   138d9:	00 00 00 00 
   138dd:	48 8d 85 78 e3 ff ff 	lea    -0x1c88(%rbp),%rax
   138e4:	48 89 85 90 fc ff ff 	mov    %rax,-0x370(%rbp)
   138eb:	48 8d 85 78 e3 ff ff 	lea    -0x1c88(%rbp),%rax
   138f2:	48 89 85 98 fc ff ff 	mov    %rax,-0x368(%rbp)
   138f9:	48 8d 85 78 e3 ff ff 	lea    -0x1c88(%rbp),%rax
   13900:	48 89 85 a0 fc ff ff 	mov    %rax,-0x360(%rbp)
   13907:	48 8d 85 78 e3 ff ff 	lea    -0x1c88(%rbp),%rax
   1390e:	48 89 85 a8 fc ff ff 	mov    %rax,-0x358(%rbp)
   13915:	48 8d 85 78 e3 ff ff 	lea    -0x1c88(%rbp),%rax
   1391c:	48 89 85 b0 fc ff ff 	mov    %rax,-0x350(%rbp)
   13923:	48 8d 85 78 e3 ff ff 	lea    -0x1c88(%rbp),%rax
   1392a:	48 89 85 b8 fc ff ff 	mov    %rax,-0x348(%rbp)
   13931:	48 8d 85 78 e3 ff ff 	lea    -0x1c88(%rbp),%rax
   13938:	48 89 85 c0 fc ff ff 	mov    %rax,-0x340(%rbp)
   1393f:	48 8d 85 78 e3 ff ff 	lea    -0x1c88(%rbp),%rax
   13946:	48 89 85 c8 fc ff ff 	mov    %rax,-0x338(%rbp)
   1394d:	48 8d 85 78 e3 ff ff 	lea    -0x1c88(%rbp),%rax
   13954:	48 89 85 d0 fc ff ff 	mov    %rax,-0x330(%rbp)
   1395b:	48 8d 85 78 e3 ff ff 	lea    -0x1c88(%rbp),%rax
   13962:	48 89 85 d8 fc ff ff 	mov    %rax,-0x328(%rbp)
   13969:	48 c7 85 e0 fc ff ff 	movq   $0x0,-0x320(%rbp)
   13970:	00 00 00 00 
   13974:	48 c7 85 e8 fc ff ff 	movq   $0x0,-0x318(%rbp)
   1397b:	00 00 00 00 
   1397f:	48 8d 85 78 e3 ff ff 	lea    -0x1c88(%rbp),%rax
   13986:	48 89 85 f0 fc ff ff 	mov    %rax,-0x310(%rbp)
   1398d:	48 8d 85 78 e3 ff ff 	lea    -0x1c88(%rbp),%rax
   13994:	48 89 85 f8 fc ff ff 	mov    %rax,-0x308(%rbp)
   1399b:	48 8d 85 78 e3 ff ff 	lea    -0x1c88(%rbp),%rax
   139a2:	48 89 85 00 fd ff ff 	mov    %rax,-0x300(%rbp)
   139a9:	48 8d 85 78 e3 ff ff 	lea    -0x1c88(%rbp),%rax
   139b0:	48 89 85 08 fd ff ff 	mov    %rax,-0x2f8(%rbp)
   139b7:	48 8d 85 78 e3 ff ff 	lea    -0x1c88(%rbp),%rax
   139be:	48 89 85 10 fd ff ff 	mov    %rax,-0x2f0(%rbp)
   139c5:	48 8d 85 78 e3 ff ff 	lea    -0x1c88(%rbp),%rax
   139cc:	48 89 85 18 fd ff ff 	mov    %rax,-0x2e8(%rbp)
   139d3:	48 8d 85 78 e3 ff ff 	lea    -0x1c88(%rbp),%rax
   139da:	48 89 85 20 fd ff ff 	mov    %rax,-0x2e0(%rbp)
   139e1:	48 8d 85 78 e3 ff ff 	lea    -0x1c88(%rbp),%rax
   139e8:	48 89 85 28 fd ff ff 	mov    %rax,-0x2d8(%rbp)
   139ef:	48 c7 85 30 fd ff ff 	movq   $0x0,-0x2d0(%rbp)
   139f6:	00 00 00 00 
   139fa:	48 8d 85 78 e3 ff ff 	lea    -0x1c88(%rbp),%rax
   13a01:	48 89 85 38 fd ff ff 	mov    %rax,-0x2c8(%rbp)
   13a08:	48 8d 85 78 e3 ff ff 	lea    -0x1c88(%rbp),%rax
   13a0f:	48 89 85 40 fd ff ff 	mov    %rax,-0x2c0(%rbp)
   13a16:	48 8d 85 78 e3 ff ff 	lea    -0x1c88(%rbp),%rax
   13a1d:	48 89 85 48 fd ff ff 	mov    %rax,-0x2b8(%rbp)
   13a24:	48 8d 85 78 e3 ff ff 	lea    -0x1c88(%rbp),%rax
   13a2b:	48 89 85 50 fd ff ff 	mov    %rax,-0x2b0(%rbp)
   13a32:	48 8d 85 78 e3 ff ff 	lea    -0x1c88(%rbp),%rax
   13a39:	48 89 85 58 fd ff ff 	mov    %rax,-0x2a8(%rbp)
   13a40:	48 8d 85 78 e3 ff ff 	lea    -0x1c88(%rbp),%rax
   13a47:	48 89 85 60 fd ff ff 	mov    %rax,-0x2a0(%rbp)
   13a4e:	48 8d 85 78 e3 ff ff 	lea    -0x1c88(%rbp),%rax
   13a55:	48 89 85 68 fd ff ff 	mov    %rax,-0x298(%rbp)
   13a5c:	48 8d 85 78 e3 ff ff 	lea    -0x1c88(%rbp),%rax
   13a63:	48 89 85 70 fd ff ff 	mov    %rax,-0x290(%rbp)
   13a6a:	48 c7 85 78 fd ff ff 	movq   $0x0,-0x288(%rbp)
   13a71:	00 00 00 00 
   13a75:	48 8d 85 78 e3 ff ff 	lea    -0x1c88(%rbp),%rax
   13a7c:	48 89 85 80 fd ff ff 	mov    %rax,-0x280(%rbp)
   13a83:	48 8d 85 78 e3 ff ff 	lea    -0x1c88(%rbp),%rax
   13a8a:	48 89 85 88 fd ff ff 	mov    %rax,-0x278(%rbp)
   13a91:	48 8d 85 78 e3 ff ff 	lea    -0x1c88(%rbp),%rax
   13a98:	48 89 85 90 fd ff ff 	mov    %rax,-0x270(%rbp)
   13a9f:	48 8d 85 78 e3 ff ff 	lea    -0x1c88(%rbp),%rax
   13aa6:	48 89 85 98 fd ff ff 	mov    %rax,-0x268(%rbp)
   13aad:	48 8d 85 78 e3 ff ff 	lea    -0x1c88(%rbp),%rax
   13ab4:	48 89 85 a0 fd ff ff 	mov    %rax,-0x260(%rbp)
   13abb:	48 8d 85 78 e3 ff ff 	lea    -0x1c88(%rbp),%rax
   13ac2:	48 89 85 a8 fd ff ff 	mov    %rax,-0x258(%rbp)
   13ac9:	48 8d 85 78 e3 ff ff 	lea    -0x1c88(%rbp),%rax
   13ad0:	48 89 85 b0 fd ff ff 	mov    %rax,-0x250(%rbp)
   13ad7:	48 8d 85 78 e3 ff ff 	lea    -0x1c88(%rbp),%rax
   13ade:	48 89 85 b8 fd ff ff 	mov    %rax,-0x248(%rbp)
   13ae5:	48 8d 85 78 e3 ff ff 	lea    -0x1c88(%rbp),%rax
   13aec:	48 89 85 c0 fd ff ff 	mov    %rax,-0x240(%rbp)
   13af3:	48 8d 85 78 e3 ff ff 	lea    -0x1c88(%rbp),%rax
   13afa:	48 89 85 c8 fd ff ff 	mov    %rax,-0x238(%rbp)
   13b01:	48 8d 85 78 e3 ff ff 	lea    -0x1c88(%rbp),%rax
   13b08:	48 89 85 d0 fd ff ff 	mov    %rax,-0x230(%rbp)
   13b0f:	48 8d 85 78 e3 ff ff 	lea    -0x1c88(%rbp),%rax
   13b16:	48 89 85 d8 fd ff ff 	mov    %rax,-0x228(%rbp)
   13b1d:	48 8d 85 78 e3 ff ff 	lea    -0x1c88(%rbp),%rax
   13b24:	48 89 85 e0 fd ff ff 	mov    %rax,-0x220(%rbp)
   13b2b:	48 8d 85 78 e3 ff ff 	lea    -0x1c88(%rbp),%rax
   13b32:	48 89 85 e8 fd ff ff 	mov    %rax,-0x218(%rbp)
   13b39:	48 8d 85 78 e3 ff ff 	lea    -0x1c88(%rbp),%rax
   13b40:	48 89 85 f0 fd ff ff 	mov    %rax,-0x210(%rbp)
   13b47:	48 8d 85 78 e3 ff ff 	lea    -0x1c88(%rbp),%rax
   13b4e:	48 89 85 f8 fd ff ff 	mov    %rax,-0x208(%rbp)
   13b55:	48 8d 85 78 e3 ff ff 	lea    -0x1c88(%rbp),%rax
   13b5c:	48 89 85 00 fe ff ff 	mov    %rax,-0x200(%rbp)
   13b63:	48 8d 85 78 e3 ff ff 	lea    -0x1c88(%rbp),%rax
   13b6a:	48 89 85 08 fe ff ff 	mov    %rax,-0x1f8(%rbp)
   13b71:	48 c7 85 10 fe ff ff 	movq   $0x0,-0x1f0(%rbp)
   13b78:	00 00 00 00 
   13b7c:	48 8d 85 78 e3 ff ff 	lea    -0x1c88(%rbp),%rax
   13b83:	48 89 85 18 fe ff ff 	mov    %rax,-0x1e8(%rbp)
   13b8a:	48 8d 85 78 e3 ff ff 	lea    -0x1c88(%rbp),%rax
   13b91:	48 89 85 20 fe ff ff 	mov    %rax,-0x1e0(%rbp)
   13b98:	48 c7 85 28 fe ff ff 	movq   $0x0,-0x1d8(%rbp)
   13b9f:	00 00 00 00 
   13ba3:	48 8d 85 78 e3 ff ff 	lea    -0x1c88(%rbp),%rax
   13baa:	48 89 85 30 fe ff ff 	mov    %rax,-0x1d0(%rbp)
   13bb1:	48 8d 85 78 e3 ff ff 	lea    -0x1c88(%rbp),%rax
   13bb8:	48 89 85 38 fe ff ff 	mov    %rax,-0x1c8(%rbp)
   13bbf:	48 8d 85 78 e3 ff ff 	lea    -0x1c88(%rbp),%rax
   13bc6:	48 89 85 40 fe ff ff 	mov    %rax,-0x1c0(%rbp)
   13bcd:	48 c7 85 48 fe ff ff 	movq   $0x0,-0x1b8(%rbp)
   13bd4:	00 00 00 00 
   13bd8:	48 8d 85 78 e3 ff ff 	lea    -0x1c88(%rbp),%rax
   13bdf:	48 89 85 50 fe ff ff 	mov    %rax,-0x1b0(%rbp)
   13be6:	48 8d 85 78 e3 ff ff 	lea    -0x1c88(%rbp),%rax
   13bed:	48 89 85 58 fe ff ff 	mov    %rax,-0x1a8(%rbp)
   13bf4:	48 c7 85 60 fe ff ff 	movq   $0x0,-0x1a0(%rbp)
   13bfb:	00 00 00 00 
   13bff:	48 8d 85 78 e3 ff ff 	lea    -0x1c88(%rbp),%rax
   13c06:	48 89 85 68 fe ff ff 	mov    %rax,-0x198(%rbp)
   13c0d:	48 8d 85 78 e3 ff ff 	lea    -0x1c88(%rbp),%rax
   13c14:	48 89 85 70 fe ff ff 	mov    %rax,-0x190(%rbp)
   13c1b:	48 8d 85 78 e3 ff ff 	lea    -0x1c88(%rbp),%rax
   13c22:	48 89 85 78 fe ff ff 	mov    %rax,-0x188(%rbp)
   13c29:	48 8d 85 78 e3 ff ff 	lea    -0x1c88(%rbp),%rax
   13c30:	48 89 85 80 fe ff ff 	mov    %rax,-0x180(%rbp)
   13c37:	48 8d 85 78 e3 ff ff 	lea    -0x1c88(%rbp),%rax
   13c3e:	48 89 85 88 fe ff ff 	mov    %rax,-0x178(%rbp)
   13c45:	48 8d 85 78 e3 ff ff 	lea    -0x1c88(%rbp),%rax
   13c4c:	48 89 85 90 fe ff ff 	mov    %rax,-0x170(%rbp)
   13c53:	48 8d 85 78 e3 ff ff 	lea    -0x1c88(%rbp),%rax
   13c5a:	48 89 85 98 fe ff ff 	mov    %rax,-0x168(%rbp)
   13c61:	48 8d 85 78 e3 ff ff 	lea    -0x1c88(%rbp),%rax
   13c68:	48 89 85 a0 fe ff ff 	mov    %rax,-0x160(%rbp)
   13c6f:	48 8d 85 78 e3 ff ff 	lea    -0x1c88(%rbp),%rax
   13c76:	48 89 85 a8 fe ff ff 	mov    %rax,-0x158(%rbp)
   13c7d:	48 8d 85 78 e3 ff ff 	lea    -0x1c88(%rbp),%rax
   13c84:	48 89 85 b0 fe ff ff 	mov    %rax,-0x150(%rbp)
   13c8b:	48 8d 85 78 e3 ff ff 	lea    -0x1c88(%rbp),%rax
   13c92:	48 89 85 b8 fe ff ff 	mov    %rax,-0x148(%rbp)
   13c99:	48 8d 85 78 e3 ff ff 	lea    -0x1c88(%rbp),%rax
   13ca0:	48 89 85 c0 fe ff ff 	mov    %rax,-0x140(%rbp)
   13ca7:	48 8d 85 78 e3 ff ff 	lea    -0x1c88(%rbp),%rax
   13cae:	48 89 85 c8 fe ff ff 	mov    %rax,-0x138(%rbp)
   13cb5:	48 c7 85 d0 fe ff ff 	movq   $0x0,-0x130(%rbp)
   13cbc:	00 00 00 00 
   13cc0:	48 8d 85 78 e3 ff ff 	lea    -0x1c88(%rbp),%rax
   13cc7:	48 89 85 d8 fe ff ff 	mov    %rax,-0x128(%rbp)
   13cce:	48 8d 85 78 e3 ff ff 	lea    -0x1c88(%rbp),%rax
   13cd5:	48 89 85 e0 fe ff ff 	mov    %rax,-0x120(%rbp)
   13cdc:	48 c7 85 e8 fe ff ff 	movq   $0x0,-0x118(%rbp)
   13ce3:	00 00 00 00 
   13ce7:	48 8d 85 78 e3 ff ff 	lea    -0x1c88(%rbp),%rax
   13cee:	48 89 85 f0 fe ff ff 	mov    %rax,-0x110(%rbp)
   13cf5:	48 c7 85 f8 fe ff ff 	movq   $0x0,-0x108(%rbp)
   13cfc:	00 00 00 00 
   13d00:	48 8d 85 78 e3 ff ff 	lea    -0x1c88(%rbp),%rax
   13d07:	48 89 85 00 ff ff ff 	mov    %rax,-0x100(%rbp)
   13d0e:	48 8d 85 78 e3 ff ff 	lea    -0x1c88(%rbp),%rax
   13d15:	48 89 85 08 ff ff ff 	mov    %rax,-0xf8(%rbp)
   13d1c:	48 8d 85 78 e3 ff ff 	lea    -0x1c88(%rbp),%rax
   13d23:	48 89 85 10 ff ff ff 	mov    %rax,-0xf0(%rbp)
   13d2a:	48 8d 85 78 e3 ff ff 	lea    -0x1c88(%rbp),%rax
   13d31:	48 89 85 18 ff ff ff 	mov    %rax,-0xe8(%rbp)
   13d38:	48 8d 85 78 e3 ff ff 	lea    -0x1c88(%rbp),%rax
   13d3f:	48 89 85 20 ff ff ff 	mov    %rax,-0xe0(%rbp)
   13d46:	48 8d 85 78 e3 ff ff 	lea    -0x1c88(%rbp),%rax
   13d4d:	48 89 85 28 ff ff ff 	mov    %rax,-0xd8(%rbp)
   13d54:	48 8d 85 78 e3 ff ff 	lea    -0x1c88(%rbp),%rax
   13d5b:	48 89 85 30 ff ff ff 	mov    %rax,-0xd0(%rbp)
   13d62:	48 8d 85 78 e3 ff ff 	lea    -0x1c88(%rbp),%rax
   13d69:	48 89 85 38 ff ff ff 	mov    %rax,-0xc8(%rbp)
   13d70:	48 c7 85 40 ff ff ff 	movq   $0x0,-0xc0(%rbp)
   13d77:	00 00 00 00 
   13d7b:	48 c7 85 48 ff ff ff 	movq   $0x0,-0xb8(%rbp)
   13d82:	00 00 00 00 
   13d86:	48 8d 85 78 e3 ff ff 	lea    -0x1c88(%rbp),%rax
   13d8d:	48 89 85 50 ff ff ff 	mov    %rax,-0xb0(%rbp)
   13d94:	48 8d 85 78 e3 ff ff 	lea    -0x1c88(%rbp),%rax
   13d9b:	48 89 85 58 ff ff ff 	mov    %rax,-0xa8(%rbp)
   13da2:	48 8d 85 78 e3 ff ff 	lea    -0x1c88(%rbp),%rax
   13da9:	48 89 85 60 ff ff ff 	mov    %rax,-0xa0(%rbp)
   13db0:	48 8d 85 78 e3 ff ff 	lea    -0x1c88(%rbp),%rax
   13db7:	48 89 85 68 ff ff ff 	mov    %rax,-0x98(%rbp)
   13dbe:	48 8d 85 78 e3 ff ff 	lea    -0x1c88(%rbp),%rax
   13dc5:	48 89 85 70 ff ff ff 	mov    %rax,-0x90(%rbp)
   13dcc:	48 8d 85 78 e3 ff ff 	lea    -0x1c88(%rbp),%rax
   13dd3:	48 89 85 78 ff ff ff 	mov    %rax,-0x88(%rbp)
   13dda:	48 8d 85 78 e3 ff ff 	lea    -0x1c88(%rbp),%rax
   13de1:	48 89 45 80          	mov    %rax,-0x80(%rbp)
   13de5:	48 c7 45 88 00 00 00 	movq   $0x0,-0x78(%rbp)
   13dec:	00 
   13ded:	48 c7 45 90 00 00 00 	movq   $0x0,-0x70(%rbp)
   13df4:	00 
   13df5:	48 8d 85 78 e3 ff ff 	lea    -0x1c88(%rbp),%rax
   13dfc:	48 89 45 98          	mov    %rax,-0x68(%rbp)
   13e00:	48 c7 45 a0 00 00 00 	movq   $0x0,-0x60(%rbp)
   13e07:	00 
   13e08:	48 8d 85 78 e3 ff ff 	lea    -0x1c88(%rbp),%rax
   13e0f:	48 89 45 a8          	mov    %rax,-0x58(%rbp)
   13e13:	48 8d 85 78 e3 ff ff 	lea    -0x1c88(%rbp),%rax
   13e1a:	48 89 45 b0          	mov    %rax,-0x50(%rbp)
   13e1e:	48 8d 85 78 e3 ff ff 	lea    -0x1c88(%rbp),%rax
   13e25:	48 89 45 b8          	mov    %rax,-0x48(%rbp)
   13e29:	48 8d 85 40 ea ff ff 	lea    -0x15c0(%rbp),%rax
   13e30:	48 8d 15 49 4b 01 00 	lea    0x14b49(%rip),%rdx        # 28980 <g_4462+0x16c0>
   13e37:	b9 5a 00 00 00       	mov    $0x5a,%ecx
   13e3c:	48 89 c7             	mov    %rax,%rdi
   13e3f:	48 89 d6             	mov    %rdx,%rsi
   13e42:	f3 48 a5             	rep movsq %ds:(%rsi),%es:(%rdi)
   13e45:	66 c7 85 a4 e2 ff ff 	movw   $0xfff6,-0x1d5c(%rbp)
   13e4c:	f6 ff 
   13e4e:	48 8d 05 4b 6c 01 00 	lea    0x16c4b(%rip),%rax        # 2aaa0 <g_935>
   13e55:	48 89 85 50 e5 ff ff 	mov    %rax,-0x1ab0(%rbp)
   13e5c:	48 c7 85 58 e5 ff ff 	movq   $0x0,-0x1aa8(%rbp)
   13e63:	00 00 00 00 
   13e67:	48 8d 05 fa 32 01 00 	lea    0x132fa(%rip),%rax        # 27168 <g_2257>
   13e6e:	48 89 85 80 e8 ff ff 	mov    %rax,-0x1780(%rbp)
   13e75:	48 8d 85 e0 e6 ff ff 	lea    -0x1920(%rbp),%rax
   13e7c:	48 83 c0 0c          	add    $0xc,%rax
   13e80:	48 89 85 88 e8 ff ff 	mov    %rax,-0x1778(%rbp)
   13e87:	48 8d 85 e0 e6 ff ff 	lea    -0x1920(%rbp),%rax
   13e8e:	48 83 c0 0c          	add    $0xc,%rax
   13e92:	48 89 85 90 e8 ff ff 	mov    %rax,-0x1770(%rbp)
   13e99:	48 8d 05 c8 32 01 00 	lea    0x132c8(%rip),%rax        # 27168 <g_2257>
   13ea0:	48 89 85 98 e8 ff ff 	mov    %rax,-0x1768(%rbp)
   13ea7:	48 8d 85 18 e4 ff ff 	lea    -0x1be8(%rbp),%rax
   13eae:	48 89 85 a0 e8 ff ff 	mov    %rax,-0x1760(%rbp)
   13eb5:	48 8d 05 ac 32 01 00 	lea    0x132ac(%rip),%rax        # 27168 <g_2257>
   13ebc:	48 89 85 a8 e8 ff ff 	mov    %rax,-0x1758(%rbp)
   13ec3:	48 8d 85 e0 e6 ff ff 	lea    -0x1920(%rbp),%rax
   13eca:	48 83 c0 0c          	add    $0xc,%rax
   13ece:	48 89 85 b0 e8 ff ff 	mov    %rax,-0x1750(%rbp)
   13ed5:	48 8d 85 e0 e6 ff ff 	lea    -0x1920(%rbp),%rax
   13edc:	48 83 c0 0c          	add    $0xc,%rax
   13ee0:	48 89 85 b8 e8 ff ff 	mov    %rax,-0x1748(%rbp)
   13ee7:	48 8d 85 e0 e6 ff ff 	lea    -0x1920(%rbp),%rax
   13eee:	48 83 c0 0c          	add    $0xc,%rax
   13ef2:	48 89 85 c0 e8 ff ff 	mov    %rax,-0x1740(%rbp)
   13ef9:	48 8d 85 18 e4 ff ff 	lea    -0x1be8(%rbp),%rax
   13f00:	48 89 85 c8 e8 ff ff 	mov    %rax,-0x1738(%rbp)
   13f07:	48 8d 05 5a 32 01 00 	lea    0x1325a(%rip),%rax        # 27168 <g_2257>
   13f0e:	48 89 85 d0 e8 ff ff 	mov    %rax,-0x1730(%rbp)
   13f15:	48 8d 05 4c 32 01 00 	lea    0x1324c(%rip),%rax        # 27168 <g_2257>
   13f1c:	48 89 85 d8 e8 ff ff 	mov    %rax,-0x1728(%rbp)
   13f23:	48 8d 85 18 e4 ff ff 	lea    -0x1be8(%rbp),%rax
   13f2a:	48 89 85 e0 e8 ff ff 	mov    %rax,-0x1720(%rbp)
   13f31:	48 8d 85 e0 e6 ff ff 	lea    -0x1920(%rbp),%rax
   13f38:	48 83 c0 0c          	add    $0xc,%rax
   13f3c:	48 89 85 e8 e8 ff ff 	mov    %rax,-0x1718(%rbp)
   13f43:	48 8d 85 18 e4 ff ff 	lea    -0x1be8(%rbp),%rax
   13f4a:	48 89 85 f0 e8 ff ff 	mov    %rax,-0x1710(%rbp)
   13f51:	48 8d 05 10 32 01 00 	lea    0x13210(%rip),%rax        # 27168 <g_2257>
   13f58:	48 89 85 f8 e8 ff ff 	mov    %rax,-0x1708(%rbp)
   13f5f:	48 8d 05 02 32 01 00 	lea    0x13202(%rip),%rax        # 27168 <g_2257>
   13f66:	48 89 85 00 e9 ff ff 	mov    %rax,-0x1700(%rbp)
   13f6d:	48 8d 85 18 e4 ff ff 	lea    -0x1be8(%rbp),%rax
   13f74:	48 89 85 08 e9 ff ff 	mov    %rax,-0x16f8(%rbp)
   13f7b:	48 8d 05 e6 31 01 00 	lea    0x131e6(%rip),%rax        # 27168 <g_2257>
   13f82:	48 89 85 10 e9 ff ff 	mov    %rax,-0x16f0(%rbp)
   13f89:	48 8d 85 e0 e6 ff ff 	lea    -0x1920(%rbp),%rax
   13f90:	48 83 c0 0c          	add    $0xc,%rax
   13f94:	48 89 85 18 e9 ff ff 	mov    %rax,-0x16e8(%rbp)
   13f9b:	48 8d 85 e0 e6 ff ff 	lea    -0x1920(%rbp),%rax
   13fa2:	48 83 c0 0c          	add    $0xc,%rax
   13fa6:	48 89 85 20 e9 ff ff 	mov    %rax,-0x16e0(%rbp)
   13fad:	48 8d 05 b4 31 01 00 	lea    0x131b4(%rip),%rax        # 27168 <g_2257>
   13fb4:	48 89 85 28 e9 ff ff 	mov    %rax,-0x16d8(%rbp)
   13fbb:	48 8d 85 18 e4 ff ff 	lea    -0x1be8(%rbp),%rax
   13fc2:	48 89 85 30 e9 ff ff 	mov    %rax,-0x16d0(%rbp)
   13fc9:	48 8d 05 98 31 01 00 	lea    0x13198(%rip),%rax        # 27168 <g_2257>
   13fd0:	48 89 85 38 e9 ff ff 	mov    %rax,-0x16c8(%rbp)
   13fd7:	48 8d 05 ce 30 01 00 	lea    0x130ce(%rip),%rax        # 270ac <g_178>
   13fde:	48 89 85 40 e9 ff ff 	mov    %rax,-0x16c0(%rbp)
   13fe5:	48 8d 85 e0 e6 ff ff 	lea    -0x1920(%rbp),%rax
   13fec:	48 83 c0 0c          	add    $0xc,%rax
   13ff0:	48 89 85 48 e9 ff ff 	mov    %rax,-0x16b8(%rbp)
   13ff7:	48 8d 05 6a 31 01 00 	lea    0x1316a(%rip),%rax        # 27168 <g_2257>
   13ffe:	48 89 85 50 e9 ff ff 	mov    %rax,-0x16b0(%rbp)
   14005:	48 8d 85 e0 e6 ff ff 	lea    -0x1920(%rbp),%rax
   1400c:	48 83 c0 0c          	add    $0xc,%rax
   14010:	48 89 85 58 e9 ff ff 	mov    %rax,-0x16a8(%rbp)
   14017:	48 8d 05 8e 30 01 00 	lea    0x1308e(%rip),%rax        # 270ac <g_178>
   1401e:	48 89 85 60 e9 ff ff 	mov    %rax,-0x16a0(%rbp)
   14025:	48 8d 05 80 30 01 00 	lea    0x13080(%rip),%rax        # 270ac <g_178>
   1402c:	48 89 85 68 e9 ff ff 	mov    %rax,-0x1698(%rbp)
   14033:	48 8d 85 e0 e6 ff ff 	lea    -0x1920(%rbp),%rax
   1403a:	48 83 c0 0c          	add    $0xc,%rax
   1403e:	48 89 85 70 e9 ff ff 	mov    %rax,-0x1690(%rbp)
   14045:	48 8d 05 1c 31 01 00 	lea    0x1311c(%rip),%rax        # 27168 <g_2257>
   1404c:	48 89 85 78 e9 ff ff 	mov    %rax,-0x1688(%rbp)
   14053:	48 8d 05 52 30 01 00 	lea    0x13052(%rip),%rax        # 270ac <g_178>
   1405a:	48 89 85 80 e9 ff ff 	mov    %rax,-0x1680(%rbp)
   14061:	48 8d 05 44 30 01 00 	lea    0x13044(%rip),%rax        # 270ac <g_178>
   14068:	48 89 85 88 e9 ff ff 	mov    %rax,-0x1678(%rbp)
   1406f:	48 8d 85 e0 e6 ff ff 	lea    -0x1920(%rbp),%rax
   14076:	48 83 c0 0c          	add    $0xc,%rax
   1407a:	48 89 85 90 e9 ff ff 	mov    %rax,-0x1670(%rbp)
   14081:	48 8d 05 e0 30 01 00 	lea    0x130e0(%rip),%rax        # 27168 <g_2257>
   14088:	48 89 85 98 e9 ff ff 	mov    %rax,-0x1668(%rbp)
   1408f:	48 8d 85 e0 e6 ff ff 	lea    -0x1920(%rbp),%rax
   14096:	48 83 c0 0c          	add    $0xc,%rax
   1409a:	48 89 85 a0 e9 ff ff 	mov    %rax,-0x1660(%rbp)
   140a1:	48 8d 05 04 30 01 00 	lea    0x13004(%rip),%rax        # 270ac <g_178>
   140a8:	48 89 85 a8 e9 ff ff 	mov    %rax,-0x1658(%rbp)
   140af:	48 8d 05 f6 2f 01 00 	lea    0x12ff6(%rip),%rax        # 270ac <g_178>
   140b6:	48 89 85 b0 e9 ff ff 	mov    %rax,-0x1650(%rbp)
   140bd:	48 8d 85 e0 e6 ff ff 	lea    -0x1920(%rbp),%rax
   140c4:	48 83 c0 0c          	add    $0xc,%rax
   140c8:	48 89 85 b8 e9 ff ff 	mov    %rax,-0x1648(%rbp)
   140cf:	48 8d 05 92 30 01 00 	lea    0x13092(%rip),%rax        # 27168 <g_2257>
   140d6:	48 89 85 c0 e9 ff ff 	mov    %rax,-0x1640(%rbp)
   140dd:	48 8d 85 e0 e6 ff ff 	lea    -0x1920(%rbp),%rax
   140e4:	48 83 c0 0c          	add    $0xc,%rax
   140e8:	48 89 85 c8 e9 ff ff 	mov    %rax,-0x1638(%rbp)
   140ef:	48 8d 85 e0 e6 ff ff 	lea    -0x1920(%rbp),%rax
   140f6:	48 83 c0 0c          	add    $0xc,%rax
   140fa:	48 89 85 d0 e9 ff ff 	mov    %rax,-0x1630(%rbp)
   14101:	48 8d 05 60 30 01 00 	lea    0x13060(%rip),%rax        # 27168 <g_2257>
   14108:	48 89 85 d8 e9 ff ff 	mov    %rax,-0x1628(%rbp)
   1410f:	48 8d 85 18 e4 ff ff 	lea    -0x1be8(%rbp),%rax
   14116:	48 89 85 e0 e9 ff ff 	mov    %rax,-0x1620(%rbp)
   1411d:	48 8d 05 44 30 01 00 	lea    0x13044(%rip),%rax        # 27168 <g_2257>
   14124:	48 89 85 e8 e9 ff ff 	mov    %rax,-0x1618(%rbp)
   1412b:	48 8d 85 e0 e6 ff ff 	lea    -0x1920(%rbp),%rax
   14132:	48 83 c0 0c          	add    $0xc,%rax
   14136:	48 89 85 f0 e9 ff ff 	mov    %rax,-0x1610(%rbp)
   1413d:	48 8d 85 e0 e6 ff ff 	lea    -0x1920(%rbp),%rax
   14144:	48 83 c0 0c          	add    $0xc,%rax
   14148:	48 89 85 f8 e9 ff ff 	mov    %rax,-0x1608(%rbp)
   1414f:	48 8d 85 e0 e6 ff ff 	lea    -0x1920(%rbp),%rax
   14156:	48 83 c0 0c          	add    $0xc,%rax
   1415a:	48 89 85 00 ea ff ff 	mov    %rax,-0x1600(%rbp)
   14161:	48 8d 85 18 e4 ff ff 	lea    -0x1be8(%rbp),%rax
   14168:	48 89 85 08 ea ff ff 	mov    %rax,-0x15f8(%rbp)
   1416f:	48 8d 05 f2 2f 01 00 	lea    0x12ff2(%rip),%rax        # 27168 <g_2257>
   14176:	48 89 85 10 ea ff ff 	mov    %rax,-0x15f0(%rbp)
   1417d:	48 8d 05 e4 2f 01 00 	lea    0x12fe4(%rip),%rax        # 27168 <g_2257>
   14184:	48 89 85 18 ea ff ff 	mov    %rax,-0x15e8(%rbp)
   1418b:	48 8d 85 18 e4 ff ff 	lea    -0x1be8(%rbp),%rax
   14192:	48 89 85 20 ea ff ff 	mov    %rax,-0x15e0(%rbp)
   14199:	48 8d 85 e0 e6 ff ff 	lea    -0x1920(%rbp),%rax
   141a0:	48 83 c0 0c          	add    $0xc,%rax
   141a4:	48 89 85 28 ea ff ff 	mov    %rax,-0x15d8(%rbp)
   141ab:	48 8d 85 18 e4 ff ff 	lea    -0x1be8(%rbp),%rax
   141b2:	48 89 85 30 ea ff ff 	mov    %rax,-0x15d0(%rbp)
   141b9:	48 8d 05 a8 2f 01 00 	lea    0x12fa8(%rip),%rax        # 27168 <g_2257>
   141c0:	48 89 85 38 ea ff ff 	mov    %rax,-0x15c8(%rbp)
   141c7:	c7 85 c0 e2 ff ff 00 	movl   $0x0,-0x1d40(%rbp)
   141ce:	00 00 00 
   141d1:	eb 1a                	jmp    141ed <func_10+0x1d15>
   141d3:	8b 85 c0 e2 ff ff    	mov    -0x1d40(%rbp),%eax
   141d9:	48 98                	cltq   
   141db:	c7 84 85 e0 e6 ff ff 	movl   $0x0,-0x1920(%rbp,%rax,4)
   141e2:	00 00 00 00 
   141e6:	83 85 c0 e2 ff ff 01 	addl   $0x1,-0x1d40(%rbp)
   141ed:	83 bd c0 e2 ff ff 04 	cmpl   $0x4,-0x1d40(%rbp)
   141f4:	7e dd                	jle    141d3 <func_10+0x1cfb>
   141f6:	48 8b 05 4b 69 01 00 	mov    0x1694b(%rip),%rax        # 2ab48 <g_2471>
   141fd:	48 8b 95 88 e2 ff ff 	mov    -0x1d78(%rbp),%rdx
   14204:	48 89 10             	mov    %rdx,(%rax)
   14207:	8b 85 ac e2 ff ff    	mov    -0x1d54(%rbp),%eax
   1420d:	0f be d8             	movsbl %al,%ebx
   14210:	0f b6 05 72 30 01 00 	movzbl 0x13072(%rip),%eax        # 27289 <g_3603+0x9>
   14217:	8d 50 ff             	lea    -0x1(%rax),%edx
   1421a:	88 15 69 30 01 00    	mov    %dl,0x13069(%rip)        # 27289 <g_3603+0x9>
   14220:	44 0f b6 e8          	movzbl %al,%r13d
   14224:	48 8b 85 78 e3 ff ff 	mov    -0x1c88(%rbp),%rax
   1422b:	48 89 05 46 76 01 00 	mov    %rax,0x17646(%rip)        # 2b878 <g_3610>
   14232:	48 8b 05 3f 76 01 00 	mov    0x1763f(%rip),%rax        # 2b878 <g_3610>
   14239:	48 85 c0             	test   %rax,%rax
   1423c:	0f 94 c0             	sete   %al
   1423f:	0f b6 d0             	movzbl %al,%edx
   14242:	8b 85 e0 e6 ff ff    	mov    -0x1920(%rbp),%eax
   14248:	88 85 91 e2 ff ff    	mov    %al,-0x1d6f(%rbp)
   1424e:	0f b6 85 91 e2 ff ff 	movzbl -0x1d6f(%rbp),%eax
   14255:	09 c2                	or     %eax,%edx
   14257:	41 89 d6             	mov    %edx,%r14d
   1425a:	be 05 00 00 00       	mov    $0x5,%esi
   1425f:	bf ce 89 00 00       	mov    $0x89ce,%edi
   14264:	e8 55 9b ff ff       	callq  ddbe <safe_lshift_func_uint16_t_u_s>
   14269:	41 89 c4             	mov    %eax,%r12d
   1426c:	81 bd f0 e2 ff ff d2 	cmpl   $0xd2,-0x1d10(%rbp)
   14273:	00 00 00 
   14276:	75 0d                	jne    14285 <func_10+0x1dad>
   14278:	48 8b 05 c9 67 01 00 	mov    0x167c9(%rip),%rax        # 2aa48 <g_142>
   1427f:	8b 00                	mov    (%rax),%eax
   14281:	85 c0                	test   %eax,%eax
   14283:	74 07                	je     1428c <func_10+0x1db4>
   14285:	b8 01 00 00 00       	mov    $0x1,%eax
   1428a:	eb 05                	jmp    14291 <func_10+0x1db9>
   1428c:	b8 00 00 00 00       	mov    $0x0,%eax
   14291:	83 f8 07             	cmp    $0x7,%eax
   14294:	0f 9f c0             	setg   %al
   14297:	0f b6 c0             	movzbl %al,%eax
   1429a:	39 85 08 e3 ff ff    	cmp    %eax,-0x1cf8(%rbp)
   142a0:	0f 94 c0             	sete   %al
   142a3:	0f b6 c0             	movzbl %al,%eax
   142a6:	be ff ff ff ff       	mov    $0xffffffff,%esi
   142ab:	89 c7                	mov    %eax,%edi
   142ad:	e8 4d 94 ff ff       	callq  d6ff <safe_div_func_int32_t_s_s>
   142b2:	0f b6 c0             	movzbl %al,%eax
   142b5:	be 2a 00 00 00       	mov    $0x2a,%esi
   142ba:	89 c7                	mov    %eax,%edi
   142bc:	e8 99 98 ff ff       	callq  db5a <safe_add_func_uint8_t_u_u>
   142c1:	0f b6 d0             	movzbl %al,%edx
   142c4:	8b 85 ec e5 ff ff    	mov    -0x1a14(%rbp),%eax
   142ca:	0f b7 c0             	movzwl %ax,%eax
   142cd:	89 d6                	mov    %edx,%esi
   142cf:	89 c7                	mov    %eax,%edi
   142d1:	e8 72 9b ff ff       	callq  de48 <safe_rshift_func_uint16_t_u_s>
   142d6:	66 41 39 c4          	cmp    %ax,%r12w
   142da:	0f 93 c0             	setae  %al
   142dd:	0f b6 c0             	movzbl %al,%eax
   142e0:	89 85 18 e4 ff ff    	mov    %eax,-0x1be8(%rbp)
   142e6:	8b 85 18 e4 ff ff    	mov    -0x1be8(%rbp),%eax
   142ec:	48 98                	cltq   
   142ee:	48 ba 55 26 a2 02 9a 	movabs $0xf1bed39a02a22655,%rdx
   142f5:	d3 be f1 
   142f8:	48 21 d0             	and    %rdx,%rax
   142fb:	48 85 c0             	test   %rax,%rax
   142fe:	74 07                	je     14307 <func_10+0x1e2f>
   14300:	b8 01 00 00 00       	mov    $0x1,%eax
   14305:	eb 05                	jmp    1430c <func_10+0x1e34>
   14307:	b8 00 00 00 00       	mov    $0x0,%eax
   1430c:	44 39 f0             	cmp    %r14d,%eax
   1430f:	0f 9e c0             	setle  %al
   14312:	0f b6 c0             	movzbl %al,%eax
   14315:	89 85 ec e6 ff ff    	mov    %eax,-0x1914(%rbp)
   1431b:	8b 85 ec e6 ff ff    	mov    -0x1914(%rbp),%eax
   14321:	41 39 c5             	cmp    %eax,%r13d
   14324:	0f 9d c0             	setge  %al
   14327:	0f b6 d0             	movzbl %al,%edx
   1432a:	48 8b 85 48 e5 ff ff 	mov    -0x1ab8(%rbp),%rax
   14331:	0f b6 00             	movzbl (%rax),%eax
   14334:	8d 70 01             	lea    0x1(%rax),%esi
   14337:	48 8b 8d 48 e5 ff ff 	mov    -0x1ab8(%rbp),%rcx
   1433e:	40 88 31             	mov    %sil,(%rcx)
   14341:	0f b6 c0             	movzbl %al,%eax
   14344:	89 d6                	mov    %edx,%esi
   14346:	89 c7                	mov    %eax,%edi
   14348:	e8 46 98 ff ff       	callq  db93 <safe_mul_func_uint8_t_u_u>
   1434d:	89 de                	mov    %ebx,%esi
   1434f:	bf 00 00 00 00       	mov    $0x0,%edi
   14354:	e8 11 8f ff ff       	callq  d26a <safe_div_func_int8_t_s_s>
   14359:	84 c0                	test   %al,%al
   1435b:	74 08                	je     14365 <func_10+0x1e8d>
   1435d:	66 83 bd a4 e2 ff ff 	cmpw   $0x0,-0x1d5c(%rbp)
   14364:	00 
   14365:	0f b7 95 a4 e2 ff ff 	movzwl -0x1d5c(%rbp),%edx
   1436c:	48 8b 05 05 83 01 00 	mov    0x18305(%rip),%rax        # 2c678 <g_2194>
   14373:	8b 08                	mov    (%rax),%ecx
   14375:	0f bf d2             	movswl %dx,%edx
   14378:	48 8b 05 f9 82 01 00 	mov    0x182f9(%rip),%rax        # 2c678 <g_2194>
   1437f:	21 ca                	and    %ecx,%edx
   14381:	89 10                	mov    %edx,(%rax)
   14383:	48 8b 85 50 e5 ff ff 	mov    -0x1ab0(%rbp),%rax
   1438a:	48 3b 85 58 e5 ff ff 	cmp    -0x1aa8(%rbp),%rax
   14391:	0f 94 c0             	sete   %al
   14394:	0f b6 c8             	movzbl %al,%ecx
   14397:	8b 95 ec e6 ff ff    	mov    -0x1914(%rbp),%edx
   1439d:	48 8b 05 b4 66 01 00 	mov    0x166b4(%rip),%rax        # 2aa58 <g_396>
   143a4:	48 63 d2             	movslq %edx,%rdx
   143a7:	48 89 10             	mov    %rdx,(%rax)
   143aa:	48 8b 00             	mov    (%rax),%rax
   143ad:	48 39 c1             	cmp    %rax,%rcx
   143b0:	0f 95 c0             	setne  %al
   143b3:	0f b6 c0             	movzbl %al,%eax
   143b6:	89 85 a8 e2 ff ff    	mov    %eax,-0x1d58(%rbp)
   143bc:	48 8b 05 b5 82 01 00 	mov    0x182b5(%rip),%rax        # 2c678 <g_2194>
   143c3:	8b 95 a8 e2 ff ff    	mov    -0x1d58(%rbp),%edx
   143c9:	89 10                	mov    %edx,(%rax)
   143cb:	48 8b 15 76 66 01 00 	mov    0x16676(%rip),%rdx        # 2aa48 <g_142>
   143d2:	8b 00                	mov    (%rax),%eax
   143d4:	89 02                	mov    %eax,(%rdx)
   143d6:	e9 3e 24 00 00       	jmpq   16819 <func_10+0x4341>
   143db:	48 8d 05 86 2d 01 00 	lea    0x12d86(%rip),%rax        # 27168 <g_2257>
   143e2:	48 89 85 a0 e4 ff ff 	mov    %rax,-0x1b60(%rbp)
   143e9:	48 8d 85 60 f0 ff ff 	lea    -0xfa0(%rbp),%rax
   143f0:	48 8d 15 69 d3 00 00 	lea    0xd369(%rip),%rdx        # 21760 <g_4473+0x6f0>
   143f7:	b9 f0 00 00 00       	mov    $0xf0,%ecx
   143fc:	48 89 c7             	mov    %rax,%rdi
   143ff:	48 89 d6             	mov    %rdx,%rsi
   14402:	f3 48 a5             	rep movsq %ds:(%rsi),%es:(%rdi)
   14405:	48 8d 05 ac 82 01 00 	lea    0x182ac(%rip),%rax        # 2c6b8 <g_3565>
   1440c:	48 89 85 a0 e6 ff ff 	mov    %rax,-0x1960(%rbp)
   14413:	48 8d 05 9e 82 01 00 	lea    0x1829e(%rip),%rax        # 2c6b8 <g_3565>
   1441a:	48 89 85 a8 e6 ff ff 	mov    %rax,-0x1958(%rbp)
   14421:	48 8d 05 90 82 01 00 	lea    0x18290(%rip),%rax        # 2c6b8 <g_3565>
   14428:	48 89 85 b0 e6 ff ff 	mov    %rax,-0x1950(%rbp)
   1442f:	48 8d 05 82 82 01 00 	lea    0x18282(%rip),%rax        # 2c6b8 <g_3565>
   14436:	48 89 85 b8 e6 ff ff 	mov    %rax,-0x1948(%rbp)
   1443d:	48 8d 05 74 82 01 00 	lea    0x18274(%rip),%rax        # 2c6b8 <g_3565>
   14444:	48 89 85 c0 e6 ff ff 	mov    %rax,-0x1940(%rbp)
   1444b:	48 8d 05 66 82 01 00 	lea    0x18266(%rip),%rax        # 2c6b8 <g_3565>
   14452:	48 89 85 c8 e6 ff ff 	mov    %rax,-0x1938(%rbp)
   14459:	48 8d 05 58 82 01 00 	lea    0x18258(%rip),%rax        # 2c6b8 <g_3565>
   14460:	48 89 85 d0 e6 ff ff 	mov    %rax,-0x1930(%rbp)
   14467:	48 8d 05 4a 82 01 00 	lea    0x1824a(%rip),%rax        # 2c6b8 <g_3565>
   1446e:	48 89 85 d8 e6 ff ff 	mov    %rax,-0x1928(%rbp)
   14475:	48 8d 05 68 2c 01 00 	lea    0x12c68(%rip),%rax        # 270e4 <g_350>
   1447c:	48 89 85 f0 e3 ff ff 	mov    %rax,-0x1c10(%rbp)
   14483:	48 8d 85 f0 e3 ff ff 	lea    -0x1c10(%rbp),%rax
   1448a:	48 89 85 f8 e3 ff ff 	mov    %rax,-0x1c08(%rbp)
   14491:	48 8d 85 f8 e3 ff ff 	lea    -0x1c08(%rbp),%rax
   14498:	48 89 85 00 e4 ff ff 	mov    %rax,-0x1c00(%rbp)
   1449f:	48 8d 85 00 e4 ff ff 	lea    -0x1c00(%rbp),%rax
   144a6:	48 89 85 08 e4 ff ff 	mov    %rax,-0x1bf8(%rbp)
   144ad:	48 8d 85 08 e4 ff ff 	lea    -0x1bf8(%rbp),%rax
   144b4:	48 89 85 a8 e4 ff ff 	mov    %rax,-0x1b58(%rbp)
   144bb:	66 c7 85 9c e2 ff ff 	movw   $0xfff8,-0x1d64(%rbp)
   144c2:	f8 ff 
   144c4:	c7 85 f8 e2 ff ff 01 	movl   $0x1,-0x1d08(%rbp)
   144cb:	00 00 00 
   144ce:	66 c7 05 11 2c 01 00 	movw   $0x15,0x12c11(%rip)        # 270e8 <g_423>
   144d5:	15 00 
   144d7:	e9 69 1c 00 00       	jmpq   16145 <func_10+0x3c6d>
   144dc:	c7 85 00 e3 ff ff ff 	movl   $0xffffffff,-0x1d00(%rbp)
   144e3:	ff ff ff 
   144e6:	48 8d 05 bf 2b 01 00 	lea    0x12bbf(%rip),%rax        # 270ac <g_178>
   144ed:	48 89 85 f8 e4 ff ff 	mov    %rax,-0x1b08(%rbp)
   144f4:	48 c7 85 40 ea ff ff 	movq   $0x0,-0x15c0(%rbp)
   144fb:	00 00 00 00 
   144ff:	48 8d 85 10 ed ff ff 	lea    -0x12f0(%rbp),%rax
   14506:	48 05 f4 02 00 00    	add    $0x2f4,%rax
   1450c:	48 89 85 48 ea ff ff 	mov    %rax,-0x15b8(%rbp)
   14513:	48 8d 05 5e 2b 01 00 	lea    0x12b5e(%rip),%rax        # 27078 <g_105>
   1451a:	48 89 85 50 ea ff ff 	mov    %rax,-0x15b0(%rbp)
   14521:	48 8d 85 10 ed ff ff 	lea    -0x12f0(%rbp),%rax
   14528:	48 05 f4 02 00 00    	add    $0x2f4,%rax
   1452e:	48 89 85 58 ea ff ff 	mov    %rax,-0x15a8(%rbp)
   14535:	48 c7 85 60 ea ff ff 	movq   $0x0,-0x15a0(%rbp)
   1453c:	00 00 00 00 
   14540:	48 c7 85 68 ea ff ff 	movq   $0x0,-0x1598(%rbp)
   14547:	00 00 00 00 
   1454b:	48 8d 85 10 ed ff ff 	lea    -0x12f0(%rbp),%rax
   14552:	48 05 f4 02 00 00    	add    $0x2f4,%rax
   14558:	48 89 85 70 ea ff ff 	mov    %rax,-0x1590(%rbp)
   1455f:	48 8d 05 fe 2a 01 00 	lea    0x12afe(%rip),%rax        # 27064 <g_50>
   14566:	48 89 85 78 ea ff ff 	mov    %rax,-0x1588(%rbp)
   1456d:	48 8d 05 ec 2c 01 00 	lea    0x12cec(%rip),%rax        # 27260 <g_3270>
   14574:	48 89 85 80 ea ff ff 	mov    %rax,-0x1580(%rbp)
   1457b:	48 8d 05 e2 2a 01 00 	lea    0x12ae2(%rip),%rax        # 27064 <g_50>
   14582:	48 89 85 88 ea ff ff 	mov    %rax,-0x1578(%rbp)
   14589:	48 8d 85 10 ed ff ff 	lea    -0x12f0(%rbp),%rax
   14590:	48 05 f4 02 00 00    	add    $0x2f4,%rax
   14596:	48 89 85 90 ea ff ff 	mov    %rax,-0x1570(%rbp)
   1459d:	48 8d 85 10 ed ff ff 	lea    -0x12f0(%rbp),%rax
   145a4:	48 05 f4 02 00 00    	add    $0x2f4,%rax
   145aa:	48 89 85 98 ea ff ff 	mov    %rax,-0x1568(%rbp)
   145b1:	48 8d 05 ac 2a 01 00 	lea    0x12aac(%rip),%rax        # 27064 <g_50>
   145b8:	48 89 85 a0 ea ff ff 	mov    %rax,-0x1560(%rbp)
   145bf:	48 8d 05 9a 2c 01 00 	lea    0x12c9a(%rip),%rax        # 27260 <g_3270>
   145c6:	48 89 85 a8 ea ff ff 	mov    %rax,-0x1558(%rbp)
   145cd:	48 8d 85 10 ed ff ff 	lea    -0x12f0(%rbp),%rax
   145d4:	48 05 f4 02 00 00    	add    $0x2f4,%rax
   145da:	48 89 85 b0 ea ff ff 	mov    %rax,-0x1550(%rbp)
   145e1:	48 8d 05 78 2c 01 00 	lea    0x12c78(%rip),%rax        # 27260 <g_3270>
   145e8:	48 89 85 b8 ea ff ff 	mov    %rax,-0x1548(%rbp)
   145ef:	48 8d 05 82 2a 01 00 	lea    0x12a82(%rip),%rax        # 27078 <g_105>
   145f6:	48 89 85 c0 ea ff ff 	mov    %rax,-0x1540(%rbp)
   145fd:	48 8d 05 74 2a 01 00 	lea    0x12a74(%rip),%rax        # 27078 <g_105>
   14604:	48 89 85 c8 ea ff ff 	mov    %rax,-0x1538(%rbp)
   1460b:	48 8d 05 4e 2c 01 00 	lea    0x12c4e(%rip),%rax        # 27260 <g_3270>
   14612:	48 89 85 d0 ea ff ff 	mov    %rax,-0x1530(%rbp)
   14619:	48 8d 85 10 ed ff ff 	lea    -0x12f0(%rbp),%rax
   14620:	48 05 f4 02 00 00    	add    $0x2f4,%rax
   14626:	48 89 85 d8 ea ff ff 	mov    %rax,-0x1528(%rbp)
   1462d:	48 8d 05 2c 2c 01 00 	lea    0x12c2c(%rip),%rax        # 27260 <g_3270>
   14634:	48 89 85 e0 ea ff ff 	mov    %rax,-0x1520(%rbp)
   1463b:	48 8d 05 22 2a 01 00 	lea    0x12a22(%rip),%rax        # 27064 <g_50>
   14642:	48 89 85 e8 ea ff ff 	mov    %rax,-0x1518(%rbp)
   14649:	48 8d 85 10 ed ff ff 	lea    -0x12f0(%rbp),%rax
   14650:	48 05 f4 02 00 00    	add    $0x2f4,%rax
   14656:	48 89 85 f0 ea ff ff 	mov    %rax,-0x1510(%rbp)
   1465d:	48 8d 85 10 ed ff ff 	lea    -0x12f0(%rbp),%rax
   14664:	48 05 f4 02 00 00    	add    $0x2f4,%rax
   1466a:	48 89 85 f8 ea ff ff 	mov    %rax,-0x1508(%rbp)
   14671:	48 8d 05 ec 29 01 00 	lea    0x129ec(%rip),%rax        # 27064 <g_50>
   14678:	48 89 85 00 eb ff ff 	mov    %rax,-0x1500(%rbp)
   1467f:	48 8d 05 da 2b 01 00 	lea    0x12bda(%rip),%rax        # 27260 <g_3270>
   14686:	48 89 85 08 eb ff ff 	mov    %rax,-0x14f8(%rbp)
   1468d:	48 8d 05 d0 29 01 00 	lea    0x129d0(%rip),%rax        # 27064 <g_50>
   14694:	48 89 85 10 eb ff ff 	mov    %rax,-0x14f0(%rbp)
   1469b:	48 8d 85 10 ed ff ff 	lea    -0x12f0(%rbp),%rax
   146a2:	48 05 f4 02 00 00    	add    $0x2f4,%rax
   146a8:	48 89 85 18 eb ff ff 	mov    %rax,-0x14e8(%rbp)
   146af:	48 c7 85 20 eb ff ff 	movq   $0x0,-0x14e0(%rbp)
   146b6:	00 00 00 00 
   146ba:	48 8d 85 10 ed ff ff 	lea    -0x12f0(%rbp),%rax
   146c1:	48 05 f4 02 00 00    	add    $0x2f4,%rax
   146c7:	48 89 85 28 eb ff ff 	mov    %rax,-0x14d8(%rbp)
   146ce:	48 8d 05 8f 29 01 00 	lea    0x1298f(%rip),%rax        # 27064 <g_50>
   146d5:	48 89 85 30 eb ff ff 	mov    %rax,-0x14d0(%rbp)
   146dc:	48 8d 05 7d 2b 01 00 	lea    0x12b7d(%rip),%rax        # 27260 <g_3270>
   146e3:	48 89 85 38 eb ff ff 	mov    %rax,-0x14c8(%rbp)
   146ea:	48 8d 05 73 29 01 00 	lea    0x12973(%rip),%rax        # 27064 <g_50>
   146f1:	48 89 85 40 eb ff ff 	mov    %rax,-0x14c0(%rbp)
   146f8:	48 8d 85 10 ed ff ff 	lea    -0x12f0(%rbp),%rax
   146ff:	48 05 f4 02 00 00    	add    $0x2f4,%rax
   14705:	48 89 85 48 eb ff ff 	mov    %rax,-0x14b8(%rbp)
   1470c:	48 8d 85 10 ed ff ff 	lea    -0x12f0(%rbp),%rax
   14713:	48 05 f4 02 00 00    	add    $0x2f4,%rax
   14719:	48 89 85 50 eb ff ff 	mov    %rax,-0x14b0(%rbp)
   14720:	48 8d 85 10 ed ff ff 	lea    -0x12f0(%rbp),%rax
   14727:	48 05 f4 02 00 00    	add    $0x2f4,%rax
   1472d:	48 89 85 58 eb ff ff 	mov    %rax,-0x14a8(%rbp)
   14734:	48 8d 05 29 29 01 00 	lea    0x12929(%rip),%rax        # 27064 <g_50>
   1473b:	48 89 85 60 eb ff ff 	mov    %rax,-0x14a0(%rbp)
   14742:	48 8d 05 17 2b 01 00 	lea    0x12b17(%rip),%rax        # 27260 <g_3270>
   14749:	48 89 85 68 eb ff ff 	mov    %rax,-0x1498(%rbp)
   14750:	48 8d 05 0d 29 01 00 	lea    0x1290d(%rip),%rax        # 27064 <g_50>
   14757:	48 89 85 70 eb ff ff 	mov    %rax,-0x1490(%rbp)
   1475e:	48 8d 85 10 ed ff ff 	lea    -0x12f0(%rbp),%rax
   14765:	48 05 f4 02 00 00    	add    $0x2f4,%rax
   1476b:	48 89 85 78 eb ff ff 	mov    %rax,-0x1488(%rbp)
   14772:	48 8d 85 10 ed ff ff 	lea    -0x12f0(%rbp),%rax
   14779:	48 05 f4 02 00 00    	add    $0x2f4,%rax
   1477f:	48 89 85 80 eb ff ff 	mov    %rax,-0x1480(%rbp)
   14786:	48 8d 05 d7 28 01 00 	lea    0x128d7(%rip),%rax        # 27064 <g_50>
   1478d:	48 89 85 88 eb ff ff 	mov    %rax,-0x1478(%rbp)
   14794:	48 8d 05 dd 28 01 00 	lea    0x128dd(%rip),%rax        # 27078 <g_105>
   1479b:	48 89 85 90 eb ff ff 	mov    %rax,-0x1470(%rbp)
   147a2:	48 c7 85 98 eb ff ff 	movq   $0x0,-0x1468(%rbp)
   147a9:	00 00 00 00 
   147ad:	48 8d 05 c4 28 01 00 	lea    0x128c4(%rip),%rax        # 27078 <g_105>
   147b4:	48 89 85 a0 eb ff ff 	mov    %rax,-0x1460(%rbp)
   147bb:	48 8d 05 a2 28 01 00 	lea    0x128a2(%rip),%rax        # 27064 <g_50>
   147c2:	48 89 85 a8 eb ff ff 	mov    %rax,-0x1458(%rbp)
   147c9:	48 8d 05 94 28 01 00 	lea    0x12894(%rip),%rax        # 27064 <g_50>
   147d0:	48 89 85 b0 eb ff ff 	mov    %rax,-0x1450(%rbp)
   147d7:	48 8d 05 9a 28 01 00 	lea    0x1289a(%rip),%rax        # 27078 <g_105>
   147de:	48 89 85 b8 eb ff ff 	mov    %rax,-0x1448(%rbp)
   147e5:	48 c7 85 c0 eb ff ff 	movq   $0x0,-0x1440(%rbp)
   147ec:	00 00 00 00 
   147f0:	48 8d 05 6d 28 01 00 	lea    0x1286d(%rip),%rax        # 27064 <g_50>
   147f7:	48 89 85 c8 eb ff ff 	mov    %rax,-0x1438(%rbp)
   147fe:	48 c7 85 d0 eb ff ff 	movq   $0x0,-0x1430(%rbp)
   14805:	00 00 00 00 
   14809:	48 8d 05 50 2a 01 00 	lea    0x12a50(%rip),%rax        # 27260 <g_3270>
   14810:	48 89 85 d8 eb ff ff 	mov    %rax,-0x1428(%rbp)
   14817:	48 8d 05 42 2a 01 00 	lea    0x12a42(%rip),%rax        # 27260 <g_3270>
   1481e:	48 89 85 e0 eb ff ff 	mov    %rax,-0x1420(%rbp)
   14825:	48 c7 85 e8 eb ff ff 	movq   $0x0,-0x1418(%rbp)
   1482c:	00 00 00 00 
   14830:	48 8d 05 2d 28 01 00 	lea    0x1282d(%rip),%rax        # 27064 <g_50>
   14837:	48 89 85 f0 eb ff ff 	mov    %rax,-0x1410(%rbp)
   1483e:	48 c7 85 f8 eb ff ff 	movq   $0x0,-0x1408(%rbp)
   14845:	00 00 00 00 
   14849:	66 c7 85 a0 e2 ff ff 	movw   $0x1,-0x1d60(%rbp)
   14850:	01 00 
   14852:	66 c7 85 a2 e2 ff ff 	movw   $0x1,-0x1d5e(%rbp)
   14859:	01 00 
   1485b:	48 c7 85 60 e6 ff ff 	movq   $0x0,-0x19a0(%rbp)
   14862:	00 00 00 00 
   14866:	48 8d 05 93 64 01 00 	lea    0x16493(%rip),%rax        # 2ad00 <g_2961>
   1486d:	48 89 85 68 e6 ff ff 	mov    %rax,-0x1998(%rbp)
   14874:	48 8d 05 85 64 01 00 	lea    0x16485(%rip),%rax        # 2ad00 <g_2961>
   1487b:	48 89 85 70 e6 ff ff 	mov    %rax,-0x1990(%rbp)
   14882:	48 c7 85 78 e6 ff ff 	movq   $0x0,-0x1988(%rbp)
   14889:	00 00 00 00 
   1488d:	48 8d 05 6c 64 01 00 	lea    0x1646c(%rip),%rax        # 2ad00 <g_2961>
   14894:	48 89 85 80 e6 ff ff 	mov    %rax,-0x1980(%rbp)
   1489b:	48 8d 05 5e 64 01 00 	lea    0x1645e(%rip),%rax        # 2ad00 <g_2961>
   148a2:	48 89 85 88 e6 ff ff 	mov    %rax,-0x1978(%rbp)
   148a9:	48 c7 85 90 e6 ff ff 	movq   $0x0,-0x1970(%rbp)
   148b0:	00 00 00 00 
   148b4:	48 8d 85 60 e6 ff ff 	lea    -0x19a0(%rbp),%rax
   148bb:	48 83 c0 30          	add    $0x30,%rax
   148bf:	48 89 85 e0 f7 ff ff 	mov    %rax,-0x820(%rbp)
   148c6:	48 8d 85 60 e6 ff ff 	lea    -0x19a0(%rbp),%rax
   148cd:	48 83 c0 30          	add    $0x30,%rax
   148d1:	48 89 85 e8 f7 ff ff 	mov    %rax,-0x818(%rbp)
   148d8:	48 c7 85 f0 f7 ff ff 	movq   $0x0,-0x810(%rbp)
   148df:	00 00 00 00 
   148e3:	48 8d 85 60 e6 ff ff 	lea    -0x19a0(%rbp),%rax
   148ea:	48 83 c0 18          	add    $0x18,%rax
   148ee:	48 89 85 f8 f7 ff ff 	mov    %rax,-0x808(%rbp)
   148f5:	48 8d 85 60 e6 ff ff 	lea    -0x19a0(%rbp),%rax
   148fc:	48 83 c0 30          	add    $0x30,%rax
   14900:	48 89 85 00 f8 ff ff 	mov    %rax,-0x800(%rbp)
   14907:	48 8d 85 60 e6 ff ff 	lea    -0x19a0(%rbp),%rax
   1490e:	48 83 c0 18          	add    $0x18,%rax
   14912:	48 89 85 08 f8 ff ff 	mov    %rax,-0x7f8(%rbp)
   14919:	48 8d 85 60 e6 ff ff 	lea    -0x19a0(%rbp),%rax
   14920:	48 83 c0 20          	add    $0x20,%rax
   14924:	48 89 85 10 f8 ff ff 	mov    %rax,-0x7f0(%rbp)
   1492b:	48 8d 85 60 e6 ff ff 	lea    -0x19a0(%rbp),%rax
   14932:	48 89 85 18 f8 ff ff 	mov    %rax,-0x7e8(%rbp)
   14939:	48 8d 85 60 e6 ff ff 	lea    -0x19a0(%rbp),%rax
   14940:	48 83 c0 30          	add    $0x30,%rax
   14944:	48 89 85 20 f8 ff ff 	mov    %rax,-0x7e0(%rbp)
   1494b:	48 8d 85 60 e6 ff ff 	lea    -0x19a0(%rbp),%rax
   14952:	48 83 c0 30          	add    $0x30,%rax
   14956:	48 89 85 28 f8 ff ff 	mov    %rax,-0x7d8(%rbp)
   1495d:	48 c7 85 30 f8 ff ff 	movq   $0x0,-0x7d0(%rbp)
   14964:	00 00 00 00 
   14968:	48 8d 85 60 e6 ff ff 	lea    -0x19a0(%rbp),%rax
   1496f:	48 83 c0 20          	add    $0x20,%rax
   14973:	48 89 85 38 f8 ff ff 	mov    %rax,-0x7c8(%rbp)
   1497a:	48 8d 85 60 e6 ff ff 	lea    -0x19a0(%rbp),%rax
   14981:	48 83 c0 30          	add    $0x30,%rax
   14985:	48 89 85 40 f8 ff ff 	mov    %rax,-0x7c0(%rbp)
   1498c:	48 8d 85 60 e6 ff ff 	lea    -0x19a0(%rbp),%rax
   14993:	48 89 85 48 f8 ff ff 	mov    %rax,-0x7b8(%rbp)
   1499a:	48 c7 85 50 f8 ff ff 	movq   $0x0,-0x7b0(%rbp)
   149a1:	00 00 00 00 
   149a5:	48 8d 85 60 e6 ff ff 	lea    -0x19a0(%rbp),%rax
   149ac:	48 83 c0 30          	add    $0x30,%rax
   149b0:	48 89 85 58 f8 ff ff 	mov    %rax,-0x7a8(%rbp)
   149b7:	48 8d 85 60 e6 ff ff 	lea    -0x19a0(%rbp),%rax
   149be:	48 83 c0 30          	add    $0x30,%rax
   149c2:	48 89 85 60 f8 ff ff 	mov    %rax,-0x7a0(%rbp)
   149c9:	48 8d 85 60 e6 ff ff 	lea    -0x19a0(%rbp),%rax
   149d0:	48 83 c0 30          	add    $0x30,%rax
   149d4:	48 89 85 68 f8 ff ff 	mov    %rax,-0x798(%rbp)
   149db:	48 8d 85 60 e6 ff ff 	lea    -0x19a0(%rbp),%rax
   149e2:	48 83 c0 30          	add    $0x30,%rax
   149e6:	48 89 85 70 f8 ff ff 	mov    %rax,-0x790(%rbp)
   149ed:	48 8d 85 60 e6 ff ff 	lea    -0x19a0(%rbp),%rax
   149f4:	48 83 c0 30          	add    $0x30,%rax
   149f8:	48 89 85 78 f8 ff ff 	mov    %rax,-0x788(%rbp)
   149ff:	48 8d 85 60 e6 ff ff 	lea    -0x19a0(%rbp),%rax
   14a06:	48 83 c0 30          	add    $0x30,%rax
   14a0a:	48 89 85 80 f8 ff ff 	mov    %rax,-0x780(%rbp)
   14a11:	48 8d 85 60 e6 ff ff 	lea    -0x19a0(%rbp),%rax
   14a18:	48 83 c0 30          	add    $0x30,%rax
   14a1c:	48 89 85 88 f8 ff ff 	mov    %rax,-0x778(%rbp)
   14a23:	48 8d 85 60 e6 ff ff 	lea    -0x19a0(%rbp),%rax
   14a2a:	48 83 c0 30          	add    $0x30,%rax
   14a2e:	48 89 85 90 f8 ff ff 	mov    %rax,-0x770(%rbp)
   14a35:	48 c7 85 98 f8 ff ff 	movq   $0x0,-0x768(%rbp)
   14a3c:	00 00 00 00 
   14a40:	48 8d 85 60 e6 ff ff 	lea    -0x19a0(%rbp),%rax
   14a47:	48 83 c0 30          	add    $0x30,%rax
   14a4b:	48 89 85 a0 f8 ff ff 	mov    %rax,-0x760(%rbp)
   14a52:	48 8d 85 60 e6 ff ff 	lea    -0x19a0(%rbp),%rax
   14a59:	48 83 c0 20          	add    $0x20,%rax
   14a5d:	48 89 85 a8 f8 ff ff 	mov    %rax,-0x758(%rbp)
   14a64:	48 8d 85 60 e6 ff ff 	lea    -0x19a0(%rbp),%rax
   14a6b:	48 83 c0 20          	add    $0x20,%rax
   14a6f:	48 89 85 b0 f8 ff ff 	mov    %rax,-0x750(%rbp)
   14a76:	48 c7 85 b8 f8 ff ff 	movq   $0x0,-0x748(%rbp)
   14a7d:	00 00 00 00 
   14a81:	48 8d 85 60 e6 ff ff 	lea    -0x19a0(%rbp),%rax
   14a88:	48 83 c0 30          	add    $0x30,%rax
   14a8c:	48 89 85 c0 f8 ff ff 	mov    %rax,-0x740(%rbp)
   14a93:	48 8d 85 60 e6 ff ff 	lea    -0x19a0(%rbp),%rax
   14a9a:	48 83 c0 30          	add    $0x30,%rax
   14a9e:	48 89 85 c8 f8 ff ff 	mov    %rax,-0x738(%rbp)
   14aa5:	48 8d 85 60 e6 ff ff 	lea    -0x19a0(%rbp),%rax
   14aac:	48 89 85 d0 f8 ff ff 	mov    %rax,-0x730(%rbp)
   14ab3:	48 8d 85 60 e6 ff ff 	lea    -0x19a0(%rbp),%rax
   14aba:	48 83 c0 20          	add    $0x20,%rax
   14abe:	48 89 85 d8 f8 ff ff 	mov    %rax,-0x728(%rbp)
   14ac5:	48 8d 85 60 e6 ff ff 	lea    -0x19a0(%rbp),%rax
   14acc:	48 83 c0 30          	add    $0x30,%rax
   14ad0:	48 89 85 e0 f8 ff ff 	mov    %rax,-0x720(%rbp)
   14ad7:	48 8d 85 60 e6 ff ff 	lea    -0x19a0(%rbp),%rax
   14ade:	48 83 c0 30          	add    $0x30,%rax
   14ae2:	48 89 85 e8 f8 ff ff 	mov    %rax,-0x718(%rbp)
   14ae9:	48 8d 85 60 e6 ff ff 	lea    -0x19a0(%rbp),%rax
   14af0:	48 83 c0 18          	add    $0x18,%rax
   14af4:	48 89 85 f0 f8 ff ff 	mov    %rax,-0x710(%rbp)
   14afb:	48 c7 85 f8 f8 ff ff 	movq   $0x0,-0x708(%rbp)
   14b02:	00 00 00 00 
   14b06:	48 8d 85 60 e6 ff ff 	lea    -0x19a0(%rbp),%rax
   14b0d:	48 83 c0 30          	add    $0x30,%rax
   14b11:	48 89 85 00 f9 ff ff 	mov    %rax,-0x700(%rbp)
   14b18:	48 8d 85 60 e6 ff ff 	lea    -0x19a0(%rbp),%rax
   14b1f:	48 83 c0 20          	add    $0x20,%rax
   14b23:	48 89 85 08 f9 ff ff 	mov    %rax,-0x6f8(%rbp)
   14b2a:	48 8d 85 60 e6 ff ff 	lea    -0x19a0(%rbp),%rax
   14b31:	48 89 85 10 f9 ff ff 	mov    %rax,-0x6f0(%rbp)
   14b38:	48 c7 85 18 f9 ff ff 	movq   $0x0,-0x6e8(%rbp)
   14b3f:	00 00 00 00 
   14b43:	48 8d 85 60 e6 ff ff 	lea    -0x19a0(%rbp),%rax
   14b4a:	48 83 c0 30          	add    $0x30,%rax
   14b4e:	48 89 85 20 f9 ff ff 	mov    %rax,-0x6e0(%rbp)
   14b55:	48 8d 85 60 e6 ff ff 	lea    -0x19a0(%rbp),%rax
   14b5c:	48 83 c0 30          	add    $0x30,%rax
   14b60:	48 89 85 28 f9 ff ff 	mov    %rax,-0x6d8(%rbp)
   14b67:	48 8d 85 60 e6 ff ff 	lea    -0x19a0(%rbp),%rax
   14b6e:	48 83 c0 30          	add    $0x30,%rax
   14b72:	48 89 85 30 f9 ff ff 	mov    %rax,-0x6d0(%rbp)
   14b79:	48 8d 85 60 e6 ff ff 	lea    -0x19a0(%rbp),%rax
   14b80:	48 83 c0 30          	add    $0x30,%rax
   14b84:	48 89 85 38 f9 ff ff 	mov    %rax,-0x6c8(%rbp)
   14b8b:	48 8d 85 60 e6 ff ff 	lea    -0x19a0(%rbp),%rax
   14b92:	48 83 c0 20          	add    $0x20,%rax
   14b96:	48 89 85 40 f9 ff ff 	mov    %rax,-0x6c0(%rbp)
   14b9d:	48 8d 85 60 e6 ff ff 	lea    -0x19a0(%rbp),%rax
   14ba4:	48 83 c0 30          	add    $0x30,%rax
   14ba8:	48 89 85 48 f9 ff ff 	mov    %rax,-0x6b8(%rbp)
   14baf:	48 8d 85 60 e6 ff ff 	lea    -0x19a0(%rbp),%rax
   14bb6:	48 83 c0 20          	add    $0x20,%rax
   14bba:	48 89 85 50 f9 ff ff 	mov    %rax,-0x6b0(%rbp)
   14bc1:	48 8d 85 60 e6 ff ff 	lea    -0x19a0(%rbp),%rax
   14bc8:	48 83 c0 30          	add    $0x30,%rax
   14bcc:	48 89 85 58 f9 ff ff 	mov    %rax,-0x6a8(%rbp)
   14bd3:	48 8d 85 60 e6 ff ff 	lea    -0x19a0(%rbp),%rax
   14bda:	48 83 c0 10          	add    $0x10,%rax
   14bde:	48 89 85 60 f9 ff ff 	mov    %rax,-0x6a0(%rbp)
   14be5:	48 8d 85 60 e6 ff ff 	lea    -0x19a0(%rbp),%rax
   14bec:	48 89 85 68 f9 ff ff 	mov    %rax,-0x698(%rbp)
   14bf3:	48 8d 85 60 e6 ff ff 	lea    -0x19a0(%rbp),%rax
   14bfa:	48 83 c0 30          	add    $0x30,%rax
   14bfe:	48 89 85 70 f9 ff ff 	mov    %rax,-0x690(%rbp)
   14c05:	48 8d 85 60 e6 ff ff 	lea    -0x19a0(%rbp),%rax
   14c0c:	48 83 c0 20          	add    $0x20,%rax
   14c10:	48 89 85 78 f9 ff ff 	mov    %rax,-0x688(%rbp)
   14c17:	48 8d 85 60 e6 ff ff 	lea    -0x19a0(%rbp),%rax
   14c1e:	48 83 c0 28          	add    $0x28,%rax
   14c22:	48 89 85 80 f9 ff ff 	mov    %rax,-0x680(%rbp)
   14c29:	48 8d 85 60 e6 ff ff 	lea    -0x19a0(%rbp),%rax
   14c30:	48 83 c0 30          	add    $0x30,%rax
   14c34:	48 89 85 88 f9 ff ff 	mov    %rax,-0x678(%rbp)
   14c3b:	48 8d 85 60 e6 ff ff 	lea    -0x19a0(%rbp),%rax
   14c42:	48 83 c0 30          	add    $0x30,%rax
   14c46:	48 89 85 90 f9 ff ff 	mov    %rax,-0x670(%rbp)
   14c4d:	48 8d 85 60 e6 ff ff 	lea    -0x19a0(%rbp),%rax
   14c54:	48 89 85 98 f9 ff ff 	mov    %rax,-0x668(%rbp)
   14c5b:	48 8d 85 60 e6 ff ff 	lea    -0x19a0(%rbp),%rax
   14c62:	48 83 c0 30          	add    $0x30,%rax
   14c66:	48 89 85 a0 f9 ff ff 	mov    %rax,-0x660(%rbp)
   14c6d:	48 8d 85 60 e6 ff ff 	lea    -0x19a0(%rbp),%rax
   14c74:	48 83 c0 18          	add    $0x18,%rax
   14c78:	48 89 85 a8 f9 ff ff 	mov    %rax,-0x658(%rbp)
   14c7f:	48 8d 85 60 e6 ff ff 	lea    -0x19a0(%rbp),%rax
   14c86:	48 83 c0 30          	add    $0x30,%rax
   14c8a:	48 89 85 b0 f9 ff ff 	mov    %rax,-0x650(%rbp)
   14c91:	48 8d 85 60 e6 ff ff 	lea    -0x19a0(%rbp),%rax
   14c98:	48 83 c0 18          	add    $0x18,%rax
   14c9c:	48 89 85 b8 f9 ff ff 	mov    %rax,-0x648(%rbp)
   14ca3:	48 8d 85 60 e6 ff ff 	lea    -0x19a0(%rbp),%rax
   14caa:	48 83 c0 28          	add    $0x28,%rax
   14cae:	48 89 85 c0 f9 ff ff 	mov    %rax,-0x640(%rbp)
   14cb5:	48 8d 85 60 e6 ff ff 	lea    -0x19a0(%rbp),%rax
   14cbc:	48 83 c0 30          	add    $0x30,%rax
   14cc0:	48 89 85 c8 f9 ff ff 	mov    %rax,-0x638(%rbp)
   14cc7:	48 8d 85 60 e6 ff ff 	lea    -0x19a0(%rbp),%rax
   14cce:	48 83 c0 30          	add    $0x30,%rax
   14cd2:	48 89 85 d0 f9 ff ff 	mov    %rax,-0x630(%rbp)
   14cd9:	48 8d 85 60 e6 ff ff 	lea    -0x19a0(%rbp),%rax
   14ce0:	48 89 85 d8 f9 ff ff 	mov    %rax,-0x628(%rbp)
   14ce7:	48 8d 85 60 e6 ff ff 	lea    -0x19a0(%rbp),%rax
   14cee:	48 83 c0 10          	add    $0x10,%rax
   14cf2:	48 89 85 e0 f9 ff ff 	mov    %rax,-0x620(%rbp)
   14cf9:	48 8d 85 60 e6 ff ff 	lea    -0x19a0(%rbp),%rax
   14d00:	48 83 c0 18          	add    $0x18,%rax
   14d04:	48 89 85 e8 f9 ff ff 	mov    %rax,-0x618(%rbp)
   14d0b:	48 8d 85 60 e6 ff ff 	lea    -0x19a0(%rbp),%rax
   14d12:	48 83 c0 20          	add    $0x20,%rax
   14d16:	48 89 85 f0 f9 ff ff 	mov    %rax,-0x610(%rbp)
   14d1d:	48 8d 85 60 e6 ff ff 	lea    -0x19a0(%rbp),%rax
   14d24:	48 83 c0 30          	add    $0x30,%rax
   14d28:	48 89 85 f8 f9 ff ff 	mov    %rax,-0x608(%rbp)
   14d2f:	48 8d 85 60 e6 ff ff 	lea    -0x19a0(%rbp),%rax
   14d36:	48 83 c0 20          	add    $0x20,%rax
   14d3a:	48 89 85 00 fa ff ff 	mov    %rax,-0x600(%rbp)
   14d41:	48 8d 85 60 e6 ff ff 	lea    -0x19a0(%rbp),%rax
   14d48:	48 83 c0 30          	add    $0x30,%rax
   14d4c:	48 89 85 08 fa ff ff 	mov    %rax,-0x5f8(%rbp)
   14d53:	48 8d 85 60 e6 ff ff 	lea    -0x19a0(%rbp),%rax
   14d5a:	48 83 c0 30          	add    $0x30,%rax
   14d5e:	48 89 85 10 fa ff ff 	mov    %rax,-0x5f0(%rbp)
   14d65:	48 8d 85 60 e6 ff ff 	lea    -0x19a0(%rbp),%rax
   14d6c:	48 83 c0 20          	add    $0x20,%rax
   14d70:	48 89 85 18 fa ff ff 	mov    %rax,-0x5e8(%rbp)
   14d77:	48 8d 85 60 e6 ff ff 	lea    -0x19a0(%rbp),%rax
   14d7e:	48 83 c0 30          	add    $0x30,%rax
   14d82:	48 89 85 20 fa ff ff 	mov    %rax,-0x5e0(%rbp)
   14d89:	48 c7 85 28 fa ff ff 	movq   $0x0,-0x5d8(%rbp)
   14d90:	00 00 00 00 
   14d94:	48 8d 85 60 e6 ff ff 	lea    -0x19a0(%rbp),%rax
   14d9b:	48 89 85 30 fa ff ff 	mov    %rax,-0x5d0(%rbp)
   14da2:	48 8d 85 60 e6 ff ff 	lea    -0x19a0(%rbp),%rax
   14da9:	48 83 c0 30          	add    $0x30,%rax
   14dad:	48 89 85 38 fa ff ff 	mov    %rax,-0x5c8(%rbp)
   14db4:	48 8d 85 60 e6 ff ff 	lea    -0x19a0(%rbp),%rax
   14dbb:	48 83 c0 30          	add    $0x30,%rax
   14dbf:	48 89 85 40 fa ff ff 	mov    %rax,-0x5c0(%rbp)
   14dc6:	48 8d 85 60 e6 ff ff 	lea    -0x19a0(%rbp),%rax
   14dcd:	48 83 c0 30          	add    $0x30,%rax
   14dd1:	48 89 85 48 fa ff ff 	mov    %rax,-0x5b8(%rbp)
   14dd8:	48 8d 85 60 e6 ff ff 	lea    -0x19a0(%rbp),%rax
   14ddf:	48 83 c0 18          	add    $0x18,%rax
   14de3:	48 89 85 50 fa ff ff 	mov    %rax,-0x5b0(%rbp)
   14dea:	48 8d 85 60 e6 ff ff 	lea    -0x19a0(%rbp),%rax
   14df1:	48 83 c0 30          	add    $0x30,%rax
   14df5:	48 89 85 58 fa ff ff 	mov    %rax,-0x5a8(%rbp)
   14dfc:	48 8d 85 60 e6 ff ff 	lea    -0x19a0(%rbp),%rax
   14e03:	48 83 c0 30          	add    $0x30,%rax
   14e07:	48 89 85 60 fa ff ff 	mov    %rax,-0x5a0(%rbp)
   14e0e:	48 8d 85 60 e6 ff ff 	lea    -0x19a0(%rbp),%rax
   14e15:	48 83 c0 30          	add    $0x30,%rax
   14e19:	48 89 85 68 fa ff ff 	mov    %rax,-0x598(%rbp)
   14e20:	48 8d 85 60 e6 ff ff 	lea    -0x19a0(%rbp),%rax
   14e27:	48 89 85 70 fa ff ff 	mov    %rax,-0x590(%rbp)
   14e2e:	48 8d 85 60 e6 ff ff 	lea    -0x19a0(%rbp),%rax
   14e35:	48 83 c0 30          	add    $0x30,%rax
   14e39:	48 89 85 78 fa ff ff 	mov    %rax,-0x588(%rbp)
   14e40:	48 8d 85 60 e6 ff ff 	lea    -0x19a0(%rbp),%rax
   14e47:	48 83 c0 30          	add    $0x30,%rax
   14e4b:	48 89 85 80 fa ff ff 	mov    %rax,-0x580(%rbp)
   14e52:	48 8d 85 60 e6 ff ff 	lea    -0x19a0(%rbp),%rax
   14e59:	48 83 c0 30          	add    $0x30,%rax
   14e5d:	48 89 85 88 fa ff ff 	mov    %rax,-0x578(%rbp)
   14e64:	48 8d 85 60 e6 ff ff 	lea    -0x19a0(%rbp),%rax
   14e6b:	48 83 c0 20          	add    $0x20,%rax
   14e6f:	48 89 85 90 fa ff ff 	mov    %rax,-0x570(%rbp)
   14e76:	48 8d 85 60 e6 ff ff 	lea    -0x19a0(%rbp),%rax
   14e7d:	48 83 c0 30          	add    $0x30,%rax
   14e81:	48 89 85 98 fa ff ff 	mov    %rax,-0x568(%rbp)
   14e88:	48 8d 85 60 e6 ff ff 	lea    -0x19a0(%rbp),%rax
   14e8f:	48 83 c0 30          	add    $0x30,%rax
   14e93:	48 89 85 a0 fa ff ff 	mov    %rax,-0x560(%rbp)
   14e9a:	48 c7 85 a8 fa ff ff 	movq   $0x0,-0x558(%rbp)
   14ea1:	00 00 00 00 
   14ea5:	48 8d 85 60 e6 ff ff 	lea    -0x19a0(%rbp),%rax
   14eac:	48 83 c0 30          	add    $0x30,%rax
   14eb0:	48 89 85 b0 fa ff ff 	mov    %rax,-0x550(%rbp)
   14eb7:	48 8d 85 60 e6 ff ff 	lea    -0x19a0(%rbp),%rax
   14ebe:	48 83 c0 20          	add    $0x20,%rax
   14ec2:	48 89 85 b8 fa ff ff 	mov    %rax,-0x548(%rbp)
   14ec9:	48 8d 85 60 e6 ff ff 	lea    -0x19a0(%rbp),%rax
   14ed0:	48 83 c0 30          	add    $0x30,%rax
   14ed4:	48 89 85 c0 fa ff ff 	mov    %rax,-0x540(%rbp)
   14edb:	48 8d 85 60 e6 ff ff 	lea    -0x19a0(%rbp),%rax
   14ee2:	48 83 c0 30          	add    $0x30,%rax
   14ee6:	48 89 85 c8 fa ff ff 	mov    %rax,-0x538(%rbp)
   14eed:	48 8d 85 60 e6 ff ff 	lea    -0x19a0(%rbp),%rax
   14ef4:	48 83 c0 30          	add    $0x30,%rax
   14ef8:	48 89 85 d0 fa ff ff 	mov    %rax,-0x530(%rbp)
   14eff:	48 8d 85 60 e6 ff ff 	lea    -0x19a0(%rbp),%rax
   14f06:	48 83 c0 30          	add    $0x30,%rax
   14f0a:	48 89 85 d8 fa ff ff 	mov    %rax,-0x528(%rbp)
   14f11:	48 8d 85 60 e6 ff ff 	lea    -0x19a0(%rbp),%rax
   14f18:	48 83 c0 30          	add    $0x30,%rax
   14f1c:	48 89 85 e0 fa ff ff 	mov    %rax,-0x520(%rbp)
   14f23:	48 8d 85 60 e6 ff ff 	lea    -0x19a0(%rbp),%rax
   14f2a:	48 83 c0 18          	add    $0x18,%rax
   14f2e:	48 89 85 e8 fa ff ff 	mov    %rax,-0x518(%rbp)
   14f35:	48 c7 85 f0 fa ff ff 	movq   $0x0,-0x510(%rbp)
   14f3c:	00 00 00 00 
   14f40:	48 8d 85 60 e6 ff ff 	lea    -0x19a0(%rbp),%rax
   14f47:	48 89 85 f8 fa ff ff 	mov    %rax,-0x508(%rbp)
   14f4e:	48 8d 85 60 e6 ff ff 	lea    -0x19a0(%rbp),%rax
   14f55:	48 83 c0 30          	add    $0x30,%rax
   14f59:	48 89 85 00 fb ff ff 	mov    %rax,-0x500(%rbp)
   14f60:	48 8d 85 60 e6 ff ff 	lea    -0x19a0(%rbp),%rax
   14f67:	48 83 c0 30          	add    $0x30,%rax
   14f6b:	48 89 85 08 fb ff ff 	mov    %rax,-0x4f8(%rbp)
   14f72:	48 c7 85 10 fb ff ff 	movq   $0x0,-0x4f0(%rbp)
   14f79:	00 00 00 00 
   14f7d:	48 8d 85 60 e6 ff ff 	lea    -0x19a0(%rbp),%rax
   14f84:	48 83 c0 18          	add    $0x18,%rax
   14f88:	48 89 85 18 fb ff ff 	mov    %rax,-0x4e8(%rbp)
   14f8f:	48 8d 85 60 e6 ff ff 	lea    -0x19a0(%rbp),%rax
   14f96:	48 83 c0 30          	add    $0x30,%rax
   14f9a:	48 89 85 20 fb ff ff 	mov    %rax,-0x4e0(%rbp)
   14fa1:	48 8d 85 60 e6 ff ff 	lea    -0x19a0(%rbp),%rax
   14fa8:	48 83 c0 18          	add    $0x18,%rax
   14fac:	48 89 85 28 fb ff ff 	mov    %rax,-0x4d8(%rbp)
   14fb3:	48 8d 85 60 e6 ff ff 	lea    -0x19a0(%rbp),%rax
   14fba:	48 83 c0 20          	add    $0x20,%rax
   14fbe:	48 89 85 30 fb ff ff 	mov    %rax,-0x4d0(%rbp)
   14fc5:	48 8d 85 60 e6 ff ff 	lea    -0x19a0(%rbp),%rax
   14fcc:	48 89 85 38 fb ff ff 	mov    %rax,-0x4c8(%rbp)
   14fd3:	48 8d 85 60 e6 ff ff 	lea    -0x19a0(%rbp),%rax
   14fda:	48 83 c0 30          	add    $0x30,%rax
   14fde:	48 89 85 40 fb ff ff 	mov    %rax,-0x4c0(%rbp)
   14fe5:	48 8d 85 60 e6 ff ff 	lea    -0x19a0(%rbp),%rax
   14fec:	48 83 c0 30          	add    $0x30,%rax
   14ff0:	48 89 85 48 fb ff ff 	mov    %rax,-0x4b8(%rbp)
   14ff7:	48 c7 85 50 fb ff ff 	movq   $0x0,-0x4b0(%rbp)
   14ffe:	00 00 00 00 
   15002:	48 8d 85 60 e6 ff ff 	lea    -0x19a0(%rbp),%rax
   15009:	48 83 c0 20          	add    $0x20,%rax
   1500d:	48 89 85 58 fb ff ff 	mov    %rax,-0x4a8(%rbp)
   15014:	48 8d 85 60 e6 ff ff 	lea    -0x19a0(%rbp),%rax
   1501b:	48 83 c0 30          	add    $0x30,%rax
   1501f:	48 89 85 60 fb ff ff 	mov    %rax,-0x4a0(%rbp)
   15026:	48 8d 85 60 e6 ff ff 	lea    -0x19a0(%rbp),%rax
   1502d:	48 89 85 68 fb ff ff 	mov    %rax,-0x498(%rbp)
   15034:	48 c7 85 70 fb ff ff 	movq   $0x0,-0x490(%rbp)
   1503b:	00 00 00 00 
   1503f:	48 8d 85 60 e6 ff ff 	lea    -0x19a0(%rbp),%rax
   15046:	48 83 c0 30          	add    $0x30,%rax
   1504a:	48 89 85 78 fb ff ff 	mov    %rax,-0x488(%rbp)
   15051:	48 8d 85 60 e6 ff ff 	lea    -0x19a0(%rbp),%rax
   15058:	48 83 c0 30          	add    $0x30,%rax
   1505c:	48 89 85 80 fb ff ff 	mov    %rax,-0x480(%rbp)
   15063:	48 8d 85 60 e6 ff ff 	lea    -0x19a0(%rbp),%rax
   1506a:	48 83 c0 30          	add    $0x30,%rax
   1506e:	48 89 85 88 fb ff ff 	mov    %rax,-0x478(%rbp)
   15075:	48 8d 85 60 e6 ff ff 	lea    -0x19a0(%rbp),%rax
   1507c:	48 83 c0 30          	add    $0x30,%rax
   15080:	48 89 85 90 fb ff ff 	mov    %rax,-0x470(%rbp)
   15087:	48 8d 85 60 e6 ff ff 	lea    -0x19a0(%rbp),%rax
   1508e:	48 83 c0 30          	add    $0x30,%rax
   15092:	48 89 85 98 fb ff ff 	mov    %rax,-0x468(%rbp)
   15099:	48 8d 85 60 e6 ff ff 	lea    -0x19a0(%rbp),%rax
   150a0:	48 83 c0 30          	add    $0x30,%rax
   150a4:	48 89 85 a0 fb ff ff 	mov    %rax,-0x460(%rbp)
   150ab:	48 8d 85 60 e6 ff ff 	lea    -0x19a0(%rbp),%rax
   150b2:	48 83 c0 30          	add    $0x30,%rax
   150b6:	48 89 85 a8 fb ff ff 	mov    %rax,-0x458(%rbp)
   150bd:	48 8d 85 60 e6 ff ff 	lea    -0x19a0(%rbp),%rax
   150c4:	48 83 c0 30          	add    $0x30,%rax
   150c8:	48 89 85 b0 fb ff ff 	mov    %rax,-0x450(%rbp)
   150cf:	48 c7 85 b8 fb ff ff 	movq   $0x0,-0x448(%rbp)
   150d6:	00 00 00 00 
   150da:	48 8d 85 60 e6 ff ff 	lea    -0x19a0(%rbp),%rax
   150e1:	48 83 c0 30          	add    $0x30,%rax
   150e5:	48 89 85 c0 fb ff ff 	mov    %rax,-0x440(%rbp)
   150ec:	48 8d 85 60 e6 ff ff 	lea    -0x19a0(%rbp),%rax
   150f3:	48 83 c0 20          	add    $0x20,%rax
   150f7:	48 89 85 c8 fb ff ff 	mov    %rax,-0x438(%rbp)
   150fe:	48 8d 85 60 e6 ff ff 	lea    -0x19a0(%rbp),%rax
   15105:	48 83 c0 20          	add    $0x20,%rax
   15109:	48 89 85 d0 fb ff ff 	mov    %rax,-0x430(%rbp)
   15110:	48 c7 85 d8 fb ff ff 	movq   $0x0,-0x428(%rbp)
   15117:	00 00 00 00 
   1511b:	48 8d 85 60 e6 ff ff 	lea    -0x19a0(%rbp),%rax
   15122:	48 83 c0 30          	add    $0x30,%rax
   15126:	48 89 85 e0 fb ff ff 	mov    %rax,-0x420(%rbp)
   1512d:	48 8d 85 60 e6 ff ff 	lea    -0x19a0(%rbp),%rax
   15134:	48 83 c0 30          	add    $0x30,%rax
   15138:	48 89 85 e8 fb ff ff 	mov    %rax,-0x418(%rbp)
   1513f:	48 8d 85 60 e6 ff ff 	lea    -0x19a0(%rbp),%rax
   15146:	48 89 85 f0 fb ff ff 	mov    %rax,-0x410(%rbp)
   1514d:	48 8d 85 60 e6 ff ff 	lea    -0x19a0(%rbp),%rax
   15154:	48 83 c0 20          	add    $0x20,%rax
   15158:	48 89 85 f8 fb ff ff 	mov    %rax,-0x408(%rbp)
   1515f:	48 8d 85 60 e6 ff ff 	lea    -0x19a0(%rbp),%rax
   15166:	48 83 c0 30          	add    $0x30,%rax
   1516a:	48 89 85 00 fc ff ff 	mov    %rax,-0x400(%rbp)
   15171:	48 8d 85 60 e6 ff ff 	lea    -0x19a0(%rbp),%rax
   15178:	48 83 c0 30          	add    $0x30,%rax
   1517c:	48 89 85 08 fc ff ff 	mov    %rax,-0x3f8(%rbp)
   15183:	48 8d 85 60 e6 ff ff 	lea    -0x19a0(%rbp),%rax
   1518a:	48 83 c0 18          	add    $0x18,%rax
   1518e:	48 89 85 10 fc ff ff 	mov    %rax,-0x3f0(%rbp)
   15195:	48 c7 85 18 fc ff ff 	movq   $0x0,-0x3e8(%rbp)
   1519c:	00 00 00 00 
   151a0:	48 8d 85 60 e6 ff ff 	lea    -0x19a0(%rbp),%rax
   151a7:	48 83 c0 30          	add    $0x30,%rax
   151ab:	48 89 85 20 fc ff ff 	mov    %rax,-0x3e0(%rbp)
   151b2:	48 8d 85 60 e6 ff ff 	lea    -0x19a0(%rbp),%rax
   151b9:	48 83 c0 20          	add    $0x20,%rax
   151bd:	48 89 85 28 fc ff ff 	mov    %rax,-0x3d8(%rbp)
   151c4:	48 8d 85 60 e6 ff ff 	lea    -0x19a0(%rbp),%rax
   151cb:	48 89 85 30 fc ff ff 	mov    %rax,-0x3d0(%rbp)
   151d2:	48 c7 85 38 fc ff ff 	movq   $0x0,-0x3c8(%rbp)
   151d9:	00 00 00 00 
   151dd:	48 8d 85 60 e6 ff ff 	lea    -0x19a0(%rbp),%rax
   151e4:	48 83 c0 30          	add    $0x30,%rax
   151e8:	48 89 85 40 fc ff ff 	mov    %rax,-0x3c0(%rbp)
   151ef:	48 8d 85 60 e6 ff ff 	lea    -0x19a0(%rbp),%rax
   151f6:	48 83 c0 30          	add    $0x30,%rax
   151fa:	48 89 85 48 fc ff ff 	mov    %rax,-0x3b8(%rbp)
   15201:	48 8d 85 60 e6 ff ff 	lea    -0x19a0(%rbp),%rax
   15208:	48 83 c0 30          	add    $0x30,%rax
   1520c:	48 89 85 50 fc ff ff 	mov    %rax,-0x3b0(%rbp)
   15213:	48 8d 85 60 e6 ff ff 	lea    -0x19a0(%rbp),%rax
   1521a:	48 83 c0 30          	add    $0x30,%rax
   1521e:	48 89 85 58 fc ff ff 	mov    %rax,-0x3a8(%rbp)
   15225:	48 8d 85 60 e6 ff ff 	lea    -0x19a0(%rbp),%rax
   1522c:	48 83 c0 20          	add    $0x20,%rax
   15230:	48 89 85 60 fc ff ff 	mov    %rax,-0x3a0(%rbp)
   15237:	48 8d 85 60 e6 ff ff 	lea    -0x19a0(%rbp),%rax
   1523e:	48 83 c0 30          	add    $0x30,%rax
   15242:	48 89 85 68 fc ff ff 	mov    %rax,-0x398(%rbp)
   15249:	48 8d 85 60 e6 ff ff 	lea    -0x19a0(%rbp),%rax
   15250:	48 83 c0 20          	add    $0x20,%rax
   15254:	48 89 85 70 fc ff ff 	mov    %rax,-0x390(%rbp)
   1525b:	48 8d 85 60 e6 ff ff 	lea    -0x19a0(%rbp),%rax
   15262:	48 83 c0 30          	add    $0x30,%rax
   15266:	48 89 85 78 fc ff ff 	mov    %rax,-0x388(%rbp)
   1526d:	48 8d 85 60 e6 ff ff 	lea    -0x19a0(%rbp),%rax
   15274:	48 83 c0 10          	add    $0x10,%rax
   15278:	48 89 85 80 fc ff ff 	mov    %rax,-0x380(%rbp)
   1527f:	48 8d 85 60 e6 ff ff 	lea    -0x19a0(%rbp),%rax
   15286:	48 89 85 88 fc ff ff 	mov    %rax,-0x378(%rbp)
   1528d:	48 8d 85 60 e6 ff ff 	lea    -0x19a0(%rbp),%rax
   15294:	48 83 c0 30          	add    $0x30,%rax
   15298:	48 89 85 90 fc ff ff 	mov    %rax,-0x370(%rbp)
   1529f:	48 8d 85 60 e6 ff ff 	lea    -0x19a0(%rbp),%rax
   152a6:	48 83 c0 20          	add    $0x20,%rax
   152aa:	48 89 85 98 fc ff ff 	mov    %rax,-0x368(%rbp)
   152b1:	48 8d 85 60 e6 ff ff 	lea    -0x19a0(%rbp),%rax
   152b8:	48 83 c0 28          	add    $0x28,%rax
   152bc:	48 89 85 a0 fc ff ff 	mov    %rax,-0x360(%rbp)
   152c3:	48 8d 85 60 e6 ff ff 	lea    -0x19a0(%rbp),%rax
   152ca:	48 83 c0 30          	add    $0x30,%rax
   152ce:	48 89 85 a8 fc ff ff 	mov    %rax,-0x358(%rbp)
   152d5:	48 8d 85 60 e6 ff ff 	lea    -0x19a0(%rbp),%rax
   152dc:	48 83 c0 30          	add    $0x30,%rax
   152e0:	48 89 85 b0 fc ff ff 	mov    %rax,-0x350(%rbp)
   152e7:	48 8d 85 60 e6 ff ff 	lea    -0x19a0(%rbp),%rax
   152ee:	48 89 85 b8 fc ff ff 	mov    %rax,-0x348(%rbp)
   152f5:	48 8d 85 60 e6 ff ff 	lea    -0x19a0(%rbp),%rax
   152fc:	48 83 c0 30          	add    $0x30,%rax
   15300:	48 89 85 c0 fc ff ff 	mov    %rax,-0x340(%rbp)
   15307:	48 8d 85 60 e6 ff ff 	lea    -0x19a0(%rbp),%rax
   1530e:	48 83 c0 30          	add    $0x30,%rax
   15312:	48 89 85 c8 fc ff ff 	mov    %rax,-0x338(%rbp)
   15319:	48 8d 85 60 e6 ff ff 	lea    -0x19a0(%rbp),%rax
   15320:	48 83 c0 18          	add    $0x18,%rax
   15324:	48 89 85 d0 fc ff ff 	mov    %rax,-0x330(%rbp)
   1532b:	48 8d 85 60 e6 ff ff 	lea    -0x19a0(%rbp),%rax
   15332:	48 83 c0 20          	add    $0x20,%rax
   15336:	48 89 85 d8 fc ff ff 	mov    %rax,-0x328(%rbp)
   1533d:	48 8d 85 60 e6 ff ff 	lea    -0x19a0(%rbp),%rax
   15344:	48 89 85 e0 fc ff ff 	mov    %rax,-0x320(%rbp)
   1534b:	48 8d 85 60 e6 ff ff 	lea    -0x19a0(%rbp),%rax
   15352:	48 83 c0 30          	add    $0x30,%rax
   15356:	48 89 85 e8 fc ff ff 	mov    %rax,-0x318(%rbp)
   1535d:	48 8d 85 60 e6 ff ff 	lea    -0x19a0(%rbp),%rax
   15364:	48 83 c0 30          	add    $0x30,%rax
   15368:	48 89 85 f0 fc ff ff 	mov    %rax,-0x310(%rbp)
   1536f:	48 8d 85 60 e6 ff ff 	lea    -0x19a0(%rbp),%rax
   15376:	48 83 c0 18          	add    $0x18,%rax
   1537a:	48 89 85 f8 fc ff ff 	mov    %rax,-0x308(%rbp)
   15381:	48 8d 85 60 e6 ff ff 	lea    -0x19a0(%rbp),%rax
   15388:	48 89 85 00 fd ff ff 	mov    %rax,-0x300(%rbp)
   1538f:	48 8d 85 60 e6 ff ff 	lea    -0x19a0(%rbp),%rax
   15396:	48 83 c0 30          	add    $0x30,%rax
   1539a:	48 89 85 08 fd ff ff 	mov    %rax,-0x2f8(%rbp)
   153a1:	48 8d 85 60 e6 ff ff 	lea    -0x19a0(%rbp),%rax
   153a8:	48 83 c0 30          	add    $0x30,%rax
   153ac:	48 89 85 10 fd ff ff 	mov    %rax,-0x2f0(%rbp)
   153b3:	48 8d 85 60 e6 ff ff 	lea    -0x19a0(%rbp),%rax
   153ba:	48 83 c0 20          	add    $0x20,%rax
   153be:	48 89 85 18 fd ff ff 	mov    %rax,-0x2e8(%rbp)
   153c5:	48 8d 85 60 e6 ff ff 	lea    -0x19a0(%rbp),%rax
   153cc:	48 83 c0 30          	add    $0x30,%rax
   153d0:	48 89 85 20 fd ff ff 	mov    %rax,-0x2e0(%rbp)
   153d7:	48 8d 85 60 e6 ff ff 	lea    -0x19a0(%rbp),%rax
   153de:	48 83 c0 20          	add    $0x20,%rax
   153e2:	48 89 85 28 fd ff ff 	mov    %rax,-0x2d8(%rbp)
   153e9:	48 8d 85 60 e6 ff ff 	lea    -0x19a0(%rbp),%rax
   153f0:	48 83 c0 20          	add    $0x20,%rax
   153f4:	48 89 85 30 fd ff ff 	mov    %rax,-0x2d0(%rbp)
   153fb:	48 8d 85 60 e6 ff ff 	lea    -0x19a0(%rbp),%rax
   15402:	48 83 c0 30          	add    $0x30,%rax
   15406:	48 89 85 38 fd ff ff 	mov    %rax,-0x2c8(%rbp)
   1540d:	48 c7 85 40 fd ff ff 	movq   $0x0,-0x2c0(%rbp)
   15414:	00 00 00 00 
   15418:	48 8d 85 60 e6 ff ff 	lea    -0x19a0(%rbp),%rax
   1541f:	48 83 c0 10          	add    $0x10,%rax
   15423:	48 89 85 48 fd ff ff 	mov    %rax,-0x2b8(%rbp)
   1542a:	48 8d 85 60 e6 ff ff 	lea    -0x19a0(%rbp),%rax
   15431:	48 83 c0 18          	add    $0x18,%rax
   15435:	48 89 85 50 fd ff ff 	mov    %rax,-0x2b0(%rbp)
   1543c:	48 8d 85 60 e6 ff ff 	lea    -0x19a0(%rbp),%rax
   15443:	48 83 c0 30          	add    $0x30,%rax
   15447:	48 89 85 58 fd ff ff 	mov    %rax,-0x2a8(%rbp)
   1544e:	48 8d 85 60 e6 ff ff 	lea    -0x19a0(%rbp),%rax
   15455:	48 83 c0 30          	add    $0x30,%rax
   15459:	48 89 85 60 fd ff ff 	mov    %rax,-0x2a0(%rbp)
   15460:	48 8d 85 60 e6 ff ff 	lea    -0x19a0(%rbp),%rax
   15467:	48 83 c0 28          	add    $0x28,%rax
   1546b:	48 89 85 68 fd ff ff 	mov    %rax,-0x298(%rbp)
   15472:	48 8d 85 60 e6 ff ff 	lea    -0x19a0(%rbp),%rax
   15479:	48 83 c0 20          	add    $0x20,%rax
   1547d:	48 89 85 70 fd ff ff 	mov    %rax,-0x290(%rbp)
   15484:	48 8d 85 60 e6 ff ff 	lea    -0x19a0(%rbp),%rax
   1548b:	48 83 c0 18          	add    $0x18,%rax
   1548f:	48 89 85 78 fd ff ff 	mov    %rax,-0x288(%rbp)
   15496:	48 8d 85 60 e6 ff ff 	lea    -0x19a0(%rbp),%rax
   1549d:	48 83 c0 30          	add    $0x30,%rax
   154a1:	48 89 85 80 fd ff ff 	mov    %rax,-0x280(%rbp)
   154a8:	48 8d 85 60 e6 ff ff 	lea    -0x19a0(%rbp),%rax
   154af:	48 83 c0 30          	add    $0x30,%rax
   154b3:	48 89 85 88 fd ff ff 	mov    %rax,-0x278(%rbp)
   154ba:	48 8d 85 60 e6 ff ff 	lea    -0x19a0(%rbp),%rax
   154c1:	48 83 c0 30          	add    $0x30,%rax
   154c5:	48 89 85 90 fd ff ff 	mov    %rax,-0x270(%rbp)
   154cc:	48 8d 85 60 e6 ff ff 	lea    -0x19a0(%rbp),%rax
   154d3:	48 83 c0 18          	add    $0x18,%rax
   154d7:	48 89 85 98 fd ff ff 	mov    %rax,-0x268(%rbp)
   154de:	48 8d 85 60 e6 ff ff 	lea    -0x19a0(%rbp),%rax
   154e5:	48 83 c0 30          	add    $0x30,%rax
   154e9:	48 89 85 a0 fd ff ff 	mov    %rax,-0x260(%rbp)
   154f0:	48 8d 85 60 e6 ff ff 	lea    -0x19a0(%rbp),%rax
   154f7:	48 83 c0 28          	add    $0x28,%rax
   154fb:	48 89 85 a8 fd ff ff 	mov    %rax,-0x258(%rbp)
   15502:	48 8d 85 60 e6 ff ff 	lea    -0x19a0(%rbp),%rax
   15509:	48 83 c0 30          	add    $0x30,%rax
   1550d:	48 89 85 b0 fd ff ff 	mov    %rax,-0x250(%rbp)
   15514:	48 8d 85 60 e6 ff ff 	lea    -0x19a0(%rbp),%rax
   1551b:	48 83 c0 30          	add    $0x30,%rax
   1551f:	48 89 85 b8 fd ff ff 	mov    %rax,-0x248(%rbp)
   15526:	48 8d 85 60 e6 ff ff 	lea    -0x19a0(%rbp),%rax
   1552d:	48 83 c0 18          	add    $0x18,%rax
   15531:	48 89 85 c0 fd ff ff 	mov    %rax,-0x240(%rbp)
   15538:	48 8d 85 60 e6 ff ff 	lea    -0x19a0(%rbp),%rax
   1553f:	48 83 c0 10          	add    $0x10,%rax
   15543:	48 89 85 c8 fd ff ff 	mov    %rax,-0x238(%rbp)
   1554a:	48 8d 85 60 e6 ff ff 	lea    -0x19a0(%rbp),%rax
   15551:	48 83 c0 30          	add    $0x30,%rax
   15555:	48 89 85 d0 fd ff ff 	mov    %rax,-0x230(%rbp)
   1555c:	48 8d 85 60 e6 ff ff 	lea    -0x19a0(%rbp),%rax
   15563:	48 83 c0 30          	add    $0x30,%rax
   15567:	48 89 85 d8 fd ff ff 	mov    %rax,-0x228(%rbp)
   1556e:	48 8d 85 60 e6 ff ff 	lea    -0x19a0(%rbp),%rax
   15575:	48 83 c0 30          	add    $0x30,%rax
   15579:	48 89 85 e0 fd ff ff 	mov    %rax,-0x220(%rbp)
   15580:	48 8d 85 60 e6 ff ff 	lea    -0x19a0(%rbp),%rax
   15587:	48 83 c0 20          	add    $0x20,%rax
   1558b:	48 89 85 e8 fd ff ff 	mov    %rax,-0x218(%rbp)
   15592:	48 8d 85 60 e6 ff ff 	lea    -0x19a0(%rbp),%rax
   15599:	48 83 c0 30          	add    $0x30,%rax
   1559d:	48 89 85 f0 fd ff ff 	mov    %rax,-0x210(%rbp)
   155a4:	48 8d 85 60 e6 ff ff 	lea    -0x19a0(%rbp),%rax
   155ab:	48 83 c0 20          	add    $0x20,%rax
   155af:	48 89 85 f8 fd ff ff 	mov    %rax,-0x208(%rbp)
   155b6:	48 8d 85 60 e6 ff ff 	lea    -0x19a0(%rbp),%rax
   155bd:	48 83 c0 30          	add    $0x30,%rax
   155c1:	48 89 85 00 fe ff ff 	mov    %rax,-0x200(%rbp)
   155c8:	48 8d 85 60 e6 ff ff 	lea    -0x19a0(%rbp),%rax
   155cf:	48 83 c0 30          	add    $0x30,%rax
   155d3:	48 89 85 08 fe ff ff 	mov    %rax,-0x1f8(%rbp)
   155da:	48 8d 85 60 e6 ff ff 	lea    -0x19a0(%rbp),%rax
   155e1:	48 83 c0 30          	add    $0x30,%rax
   155e5:	48 89 85 10 fe ff ff 	mov    %rax,-0x1f0(%rbp)
   155ec:	48 8d 85 60 e6 ff ff 	lea    -0x19a0(%rbp),%rax
   155f3:	48 83 c0 18          	add    $0x18,%rax
   155f7:	48 89 85 18 fe ff ff 	mov    %rax,-0x1e8(%rbp)
   155fe:	48 8d 85 60 e6 ff ff 	lea    -0x19a0(%rbp),%rax
   15605:	48 83 c0 30          	add    $0x30,%rax
   15609:	48 89 85 20 fe ff ff 	mov    %rax,-0x1e0(%rbp)
   15610:	48 8d 85 60 e6 ff ff 	lea    -0x19a0(%rbp),%rax
   15617:	48 83 c0 30          	add    $0x30,%rax
   1561b:	48 89 85 28 fe ff ff 	mov    %rax,-0x1d8(%rbp)
   15622:	48 8d 85 60 e6 ff ff 	lea    -0x19a0(%rbp),%rax
   15629:	48 83 c0 10          	add    $0x10,%rax
   1562d:	48 89 85 30 fe ff ff 	mov    %rax,-0x1d0(%rbp)
   15634:	48 8d 85 60 e6 ff ff 	lea    -0x19a0(%rbp),%rax
   1563b:	48 83 c0 20          	add    $0x20,%rax
   1563f:	48 89 85 38 fe ff ff 	mov    %rax,-0x1c8(%rbp)
   15646:	48 c7 85 40 fe ff ff 	movq   $0x0,-0x1c0(%rbp)
   1564d:	00 00 00 00 
   15651:	48 8d 85 60 e6 ff ff 	lea    -0x19a0(%rbp),%rax
   15658:	48 83 c0 30          	add    $0x30,%rax
   1565c:	48 89 85 48 fe ff ff 	mov    %rax,-0x1b8(%rbp)
   15663:	48 8d 85 60 e6 ff ff 	lea    -0x19a0(%rbp),%rax
   1566a:	48 83 c0 30          	add    $0x30,%rax
   1566e:	48 89 85 50 fe ff ff 	mov    %rax,-0x1b0(%rbp)
   15675:	48 8d 85 60 e6 ff ff 	lea    -0x19a0(%rbp),%rax
   1567c:	48 83 c0 30          	add    $0x30,%rax
   15680:	48 89 85 58 fe ff ff 	mov    %rax,-0x1a8(%rbp)
   15687:	48 c7 85 60 fe ff ff 	movq   $0x0,-0x1a0(%rbp)
   1568e:	00 00 00 00 
   15692:	48 8d 85 60 e6 ff ff 	lea    -0x19a0(%rbp),%rax
   15699:	48 83 c0 30          	add    $0x30,%rax
   1569d:	48 89 85 68 fe ff ff 	mov    %rax,-0x198(%rbp)
   156a4:	48 8d 85 60 e6 ff ff 	lea    -0x19a0(%rbp),%rax
   156ab:	48 83 c0 10          	add    $0x10,%rax
   156af:	48 89 85 70 fe ff ff 	mov    %rax,-0x190(%rbp)
   156b6:	48 8d 85 60 e6 ff ff 	lea    -0x19a0(%rbp),%rax
   156bd:	48 83 c0 30          	add    $0x30,%rax
   156c1:	48 89 85 78 fe ff ff 	mov    %rax,-0x188(%rbp)
   156c8:	48 8d 85 60 e6 ff ff 	lea    -0x19a0(%rbp),%rax
   156cf:	48 83 c0 30          	add    $0x30,%rax
   156d3:	48 89 85 80 fe ff ff 	mov    %rax,-0x180(%rbp)
   156da:	48 8d 85 60 e6 ff ff 	lea    -0x19a0(%rbp),%rax
   156e1:	48 83 c0 30          	add    $0x30,%rax
   156e5:	48 89 85 88 fe ff ff 	mov    %rax,-0x178(%rbp)
   156ec:	48 8d 85 60 e6 ff ff 	lea    -0x19a0(%rbp),%rax
   156f3:	48 83 c0 30          	add    $0x30,%rax
   156f7:	48 89 85 90 fe ff ff 	mov    %rax,-0x170(%rbp)
   156fe:	48 8d 85 60 e6 ff ff 	lea    -0x19a0(%rbp),%rax
   15705:	48 83 c0 30          	add    $0x30,%rax
   15709:	48 89 85 98 fe ff ff 	mov    %rax,-0x168(%rbp)
   15710:	48 8d 85 60 e6 ff ff 	lea    -0x19a0(%rbp),%rax
   15717:	48 83 c0 30          	add    $0x30,%rax
   1571b:	48 89 85 a0 fe ff ff 	mov    %rax,-0x160(%rbp)
   15722:	48 8d 85 60 e6 ff ff 	lea    -0x19a0(%rbp),%rax
   15729:	48 83 c0 30          	add    $0x30,%rax
   1572d:	48 89 85 a8 fe ff ff 	mov    %rax,-0x158(%rbp)
   15734:	48 8d 85 60 e6 ff ff 	lea    -0x19a0(%rbp),%rax
   1573b:	48 83 c0 30          	add    $0x30,%rax
   1573f:	48 89 85 b0 fe ff ff 	mov    %rax,-0x150(%rbp)
   15746:	48 8d 85 60 e6 ff ff 	lea    -0x19a0(%rbp),%rax
   1574d:	48 83 c0 30          	add    $0x30,%rax
   15751:	48 89 85 b8 fe ff ff 	mov    %rax,-0x148(%rbp)
   15758:	48 8d 85 60 e6 ff ff 	lea    -0x19a0(%rbp),%rax
   1575f:	48 83 c0 30          	add    $0x30,%rax
   15763:	48 89 85 c0 fe ff ff 	mov    %rax,-0x140(%rbp)
   1576a:	48 8d 85 60 e6 ff ff 	lea    -0x19a0(%rbp),%rax
   15771:	48 83 c0 30          	add    $0x30,%rax
   15775:	48 89 85 c8 fe ff ff 	mov    %rax,-0x138(%rbp)
   1577c:	48 8d 85 60 e6 ff ff 	lea    -0x19a0(%rbp),%rax
   15783:	48 83 c0 30          	add    $0x30,%rax
   15787:	48 89 85 d0 fe ff ff 	mov    %rax,-0x130(%rbp)
   1578e:	48 8d 85 60 e6 ff ff 	lea    -0x19a0(%rbp),%rax
   15795:	48 83 c0 30          	add    $0x30,%rax
   15799:	48 89 85 d8 fe ff ff 	mov    %rax,-0x128(%rbp)
   157a0:	48 8d 85 60 e6 ff ff 	lea    -0x19a0(%rbp),%rax
   157a7:	48 83 c0 18          	add    $0x18,%rax
   157ab:	48 89 85 e0 fe ff ff 	mov    %rax,-0x120(%rbp)
   157b2:	48 8d 85 60 e6 ff ff 	lea    -0x19a0(%rbp),%rax
   157b9:	48 83 c0 30          	add    $0x30,%rax
   157bd:	48 89 85 e8 fe ff ff 	mov    %rax,-0x118(%rbp)
   157c4:	48 8d 85 60 e6 ff ff 	lea    -0x19a0(%rbp),%rax
   157cb:	48 83 c0 30          	add    $0x30,%rax
   157cf:	48 89 85 f0 fe ff ff 	mov    %rax,-0x110(%rbp)
   157d6:	48 8d 85 60 e6 ff ff 	lea    -0x19a0(%rbp),%rax
   157dd:	48 83 c0 10          	add    $0x10,%rax
   157e1:	48 89 85 f8 fe ff ff 	mov    %rax,-0x108(%rbp)
   157e8:	48 8d 85 60 e6 ff ff 	lea    -0x19a0(%rbp),%rax
   157ef:	48 83 c0 30          	add    $0x30,%rax
   157f3:	48 89 85 00 ff ff ff 	mov    %rax,-0x100(%rbp)
   157fa:	48 8d 85 60 e6 ff ff 	lea    -0x19a0(%rbp),%rax
   15801:	48 83 c0 30          	add    $0x30,%rax
   15805:	48 89 85 08 ff ff ff 	mov    %rax,-0xf8(%rbp)
   1580c:	48 8d 85 60 e6 ff ff 	lea    -0x19a0(%rbp),%rax
   15813:	48 83 c0 30          	add    $0x30,%rax
   15817:	48 89 85 10 ff ff ff 	mov    %rax,-0xf0(%rbp)
   1581e:	48 8d 85 60 e6 ff ff 	lea    -0x19a0(%rbp),%rax
   15825:	48 83 c0 30          	add    $0x30,%rax
   15829:	48 89 85 18 ff ff ff 	mov    %rax,-0xe8(%rbp)
   15830:	48 8d 85 60 e6 ff ff 	lea    -0x19a0(%rbp),%rax
   15837:	48 83 c0 30          	add    $0x30,%rax
   1583b:	48 89 85 20 ff ff ff 	mov    %rax,-0xe0(%rbp)
   15842:	48 8d 85 60 e6 ff ff 	lea    -0x19a0(%rbp),%rax
   15849:	48 83 c0 30          	add    $0x30,%rax
   1584d:	48 89 85 28 ff ff ff 	mov    %rax,-0xd8(%rbp)
   15854:	48 8d 85 60 e6 ff ff 	lea    -0x19a0(%rbp),%rax
   1585b:	48 83 c0 20          	add    $0x20,%rax
   1585f:	48 89 85 30 ff ff ff 	mov    %rax,-0xd0(%rbp)
   15866:	48 8d 85 60 e6 ff ff 	lea    -0x19a0(%rbp),%rax
   1586d:	48 83 c0 10          	add    $0x10,%rax
   15871:	48 89 85 38 ff ff ff 	mov    %rax,-0xc8(%rbp)
   15878:	48 8d 85 60 e6 ff ff 	lea    -0x19a0(%rbp),%rax
   1587f:	48 83 c0 30          	add    $0x30,%rax
   15883:	48 89 85 40 ff ff ff 	mov    %rax,-0xc0(%rbp)
   1588a:	48 8d 85 60 e6 ff ff 	lea    -0x19a0(%rbp),%rax
   15891:	48 83 c0 30          	add    $0x30,%rax
   15895:	48 89 85 48 ff ff ff 	mov    %rax,-0xb8(%rbp)
   1589c:	48 8d 85 60 e6 ff ff 	lea    -0x19a0(%rbp),%rax
   158a3:	48 83 c0 18          	add    $0x18,%rax
   158a7:	48 89 85 50 ff ff ff 	mov    %rax,-0xb0(%rbp)
   158ae:	48 8d 85 60 e6 ff ff 	lea    -0x19a0(%rbp),%rax
   158b5:	48 83 c0 30          	add    $0x30,%rax
   158b9:	48 89 85 58 ff ff ff 	mov    %rax,-0xa8(%rbp)
   158c0:	48 8d 05 a9 19 01 00 	lea    0x119a9(%rip),%rax        # 27270 <g_3436>
   158c7:	48 89 85 00 e5 ff ff 	mov    %rax,-0x1b00(%rbp)
   158ce:	c6 05 c7 17 01 00 00 	movb   $0x0,0x117c7(%rip)        # 2709c <g_135>
   158d5:	e9 48 03 00 00       	jmpq   15c22 <func_10+0x374a>
   158da:	c6 85 94 e2 ff ff 6a 	movb   $0x6a,-0x1d6c(%rbp)
   158e1:	48 8d 85 a8 e2 ff ff 	lea    -0x1d58(%rbp),%rax
   158e8:	48 89 85 80 e8 ff ff 	mov    %rax,-0x1780(%rbp)
   158ef:	48 8d 85 a8 e2 ff ff 	lea    -0x1d58(%rbp),%rax
   158f6:	48 89 85 88 e8 ff ff 	mov    %rax,-0x1778(%rbp)
   158fd:	48 8d 85 a8 e2 ff ff 	lea    -0x1d58(%rbp),%rax
   15904:	48 89 85 90 e8 ff ff 	mov    %rax,-0x1770(%rbp)
   1590b:	48 8d 85 a8 e2 ff ff 	lea    -0x1d58(%rbp),%rax
   15912:	48 89 85 98 e8 ff ff 	mov    %rax,-0x1768(%rbp)
   15919:	48 8d 85 a8 e2 ff ff 	lea    -0x1d58(%rbp),%rax
   15920:	48 89 85 a0 e8 ff ff 	mov    %rax,-0x1760(%rbp)
   15927:	48 8d 85 a8 e2 ff ff 	lea    -0x1d58(%rbp),%rax
   1592e:	48 89 85 a8 e8 ff ff 	mov    %rax,-0x1758(%rbp)
   15935:	48 8d 85 a8 e2 ff ff 	lea    -0x1d58(%rbp),%rax
   1593c:	48 89 85 b0 e8 ff ff 	mov    %rax,-0x1750(%rbp)
   15943:	48 8d 85 a8 e2 ff ff 	lea    -0x1d58(%rbp),%rax
   1594a:	48 89 85 b8 e8 ff ff 	mov    %rax,-0x1748(%rbp)
   15951:	48 8d 85 a8 e2 ff ff 	lea    -0x1d58(%rbp),%rax
   15958:	48 89 85 c0 e8 ff ff 	mov    %rax,-0x1740(%rbp)
   1595f:	48 8b 15 da 51 01 00 	mov    0x151da(%rip),%rdx        # 2ab40 <g_2467>
   15966:	48 8b 05 d3 51 01 00 	mov    0x151d3(%rip),%rax        # 2ab40 <g_2467>
   1596d:	0f b6 12             	movzbl (%rdx),%edx
   15970:	88 10                	mov    %dl,(%rax)
   15972:	0f b6 00             	movzbl (%rax),%eax
   15975:	0f be c0             	movsbl %al,%eax
   15978:	be 00 00 00 00       	mov    $0x0,%esi
   1597d:	89 c7                	mov    %eax,%edi
   1597f:	e8 50 78 ff ff       	callq  d1d4 <safe_add_func_int8_t_s_s>
   15984:	0f be c0             	movsbl %al,%eax
   15987:	89 85 00 e3 ff ff    	mov    %eax,-0x1d00(%rbp)
   1598d:	83 bd 00 e3 ff ff 00 	cmpl   $0x0,-0x1d00(%rbp)
   15994:	0f 84 63 01 00 00    	je     15afd <func_10+0x3625>
   1599a:	48 8d 05 a7 16 01 00 	lea    0x116a7(%rip),%rax        # 27048 <g_25+0x8>
   159a1:	48 89 85 20 e4 ff ff 	mov    %rax,-0x1be0(%rbp)
   159a8:	48 c7 05 ed 16 01 00 	movq   $0xffffffffffffffe6,0x116ed(%rip)        # 270a0 <g_150>
   159af:	e6 ff ff ff 
   159b3:	eb 72                	jmp    15a27 <func_10+0x354f>
   159b5:	48 8b 95 f8 e4 ff ff 	mov    -0x1b08(%rbp),%rdx
   159bc:	48 8b 85 a0 e4 ff ff 	mov    -0x1b60(%rbp),%rax
   159c3:	48 89 d6             	mov    %rdx,%rsi
   159c6:	48 89 c7             	mov    %rax,%rdi
   159c9:	e8 c8 7f 00 00       	callq  1d996 <func_45>
   159ce:	48 89 c2             	mov    %rax,%rdx
   159d1:	48 8b 85 78 e2 ff ff 	mov    -0x1d88(%rbp),%rax
   159d8:	48 89 c6             	mov    %rax,%rsi
   159db:	48 89 d7             	mov    %rdx,%rdi
   159de:	e8 b3 7f 00 00       	callq  1d996 <func_45>
   159e3:	48 89 85 20 e4 ff ff 	mov    %rax,-0x1be0(%rbp)
   159ea:	48 8b 85 f8 e4 ff ff 	mov    -0x1b08(%rbp),%rax
   159f1:	8b 00                	mov    (%rax),%eax
   159f3:	85 c0                	test   %eax,%eax
   159f5:	75 10                	jne    15a07 <func_10+0x352f>
   159f7:	48 8b 85 88 e2 ff ff 	mov    -0x1d78(%rbp),%rax
   159fe:	48 89 85 c8 ea ff ff 	mov    %rax,-0x1538(%rbp)
   15a05:	eb 01                	jmp    15a08 <func_10+0x3530>
   15a07:	90                   	nop
   15a08:	48 8b 05 91 16 01 00 	mov    0x11691(%rip),%rax        # 270a0 <g_150>
   15a0f:	98                   	cwtl   
   15a10:	be 01 00 00 00       	mov    $0x1,%esi
   15a15:	89 c7                	mov    %eax,%edi
   15a17:	e8 97 79 ff ff       	callq  d3b3 <safe_add_func_int16_t_s_s>
   15a1c:	48 0f bf c0          	movswq %ax,%rax
   15a20:	48 89 05 79 16 01 00 	mov    %rax,0x11679(%rip)        # 270a0 <g_150>
   15a27:	48 8b 05 72 16 01 00 	mov    0x11672(%rip),%rax        # 270a0 <g_150>
   15a2e:	48 83 f8 1f          	cmp    $0x1f,%rax
   15a32:	77 81                	ja     159b5 <func_10+0x34dd>
   15a34:	c6 05 ce 16 01 00 01 	movb   $0x1,0x116ce(%rip)        # 27109 <g_802>
   15a3b:	90                   	nop
   15a3c:	0f b6 05 c6 16 01 00 	movzbl 0x116c6(%rip),%eax        # 27109 <g_802>
   15a43:	3c 04                	cmp    $0x4,%al
   15a45:	0f 8f bb 01 00 00    	jg     15c06 <func_10+0x372e>
   15a4b:	48 8d 85 10 ed ff ff 	lea    -0x12f0(%rbp),%rax
   15a52:	48 05 f4 02 00 00    	add    $0x2f4,%rax
   15a58:	48 89 85 e0 e6 ff ff 	mov    %rax,-0x1920(%rbp)
   15a5f:	48 8d 85 10 ed ff ff 	lea    -0x12f0(%rbp),%rax
   15a66:	48 05 f0 00 00 00    	add    $0xf0,%rax
   15a6c:	48 89 85 e8 e6 ff ff 	mov    %rax,-0x1918(%rbp)
   15a73:	48 8d 85 10 ed ff ff 	lea    -0x12f0(%rbp),%rax
   15a7a:	48 05 f4 02 00 00    	add    $0x2f4,%rax
   15a80:	48 89 85 f0 e6 ff ff 	mov    %rax,-0x1910(%rbp)
   15a87:	48 8d 85 10 ed ff ff 	lea    -0x12f0(%rbp),%rax
   15a8e:	48 05 f4 02 00 00    	add    $0x2f4,%rax
   15a94:	48 89 85 f8 e6 ff ff 	mov    %rax,-0x1908(%rbp)
   15a9b:	48 8d 85 10 ed ff ff 	lea    -0x12f0(%rbp),%rax
   15aa2:	48 05 f0 00 00 00    	add    $0xf0,%rax
   15aa8:	48 89 85 00 e7 ff ff 	mov    %rax,-0x1900(%rbp)
   15aaf:	48 8d 85 10 ed ff ff 	lea    -0x12f0(%rbp),%rax
   15ab6:	48 05 f4 02 00 00    	add    $0x2f4,%rax
   15abc:	48 89 85 08 e7 ff ff 	mov    %rax,-0x18f8(%rbp)
   15ac3:	48 8d 05 96 17 01 00 	lea    0x11796(%rip),%rax        # 27260 <g_3270>
   15aca:	48 89 85 40 e5 ff ff 	mov    %rax,-0x1ac0(%rbp)
   15ad1:	48 8b 85 08 e7 ff ff 	mov    -0x18f8(%rbp),%rax
   15ad8:	48 8b 95 40 e5 ff ff 	mov    -0x1ac0(%rbp),%rdx
   15adf:	48 89 d6             	mov    %rdx,%rsi
   15ae2:	48 89 c7             	mov    %rax,%rdi
   15ae5:	e8 ac 7e 00 00       	callq  1d996 <func_45>
   15aea:	48 89 85 a0 e8 ff ff 	mov    %rax,-0x1760(%rbp)
   15af1:	48 8b 85 20 e4 ff ff 	mov    -0x1be0(%rbp),%rax
   15af8:	e9 16 1b 00 00       	jmpq   17613 <func_10+0x513b>
   15afd:	c7 85 04 e3 ff ff 01 	movl   $0x1,-0x1cfc(%rbp)
   15b04:	00 00 00 
   15b07:	8b 85 04 e3 ff ff    	mov    -0x1cfc(%rbp),%eax
   15b0d:	0f bf d8             	movswl %ax,%ebx
   15b10:	8b 85 04 e3 ff ff    	mov    -0x1cfc(%rbp),%eax
   15b16:	44 0f b6 e0          	movzbl %al,%r12d
   15b1a:	8b 85 04 e3 ff ff    	mov    -0x1cfc(%rbp),%eax
   15b20:	0f be c0             	movsbl %al,%eax
   15b23:	be 03 00 00 00       	mov    $0x3,%esi
   15b28:	89 c7                	mov    %eax,%edi
   15b2a:	e8 06 78 ff ff       	callq  d335 <safe_rshift_func_int8_t_s_s>
   15b2f:	84 c0                	test   %al,%al
   15b31:	75 16                	jne    15b49 <func_10+0x3671>
   15b33:	48 8b 85 a0 e4 ff ff 	mov    -0x1b60(%rbp),%rax
   15b3a:	8b 10                	mov    (%rax),%edx
   15b3c:	48 8b 85 70 e2 ff ff 	mov    -0x1d90(%rbp),%rax
   15b43:	8b 00                	mov    (%rax),%eax
   15b45:	39 c2                	cmp    %eax,%edx
   15b47:	74 07                	je     15b50 <func_10+0x3678>
   15b49:	b8 01 00 00 00       	mov    $0x1,%eax
   15b4e:	eb 05                	jmp    15b55 <func_10+0x367d>
   15b50:	b8 00 00 00 00       	mov    $0x0,%eax
   15b55:	0f b6 c0             	movzbl %al,%eax
   15b58:	44 89 e6             	mov    %r12d,%esi
   15b5b:	89 c7                	mov    %eax,%edi
   15b5d:	e8 79 80 ff ff       	callq  dbdb <safe_div_func_uint8_t_u_u>
   15b62:	0f b6 c0             	movzbl %al,%eax
   15b65:	89 de                	mov    %ebx,%esi
   15b67:	89 c7                	mov    %eax,%edi
   15b69:	e8 87 78 ff ff       	callq  d3f5 <safe_mul_func_int16_t_s_s>
   15b6e:	0f bf d8             	movswl %ax,%ebx
   15b71:	48 8b 85 40 e6 ff ff 	mov    -0x19c0(%rbp),%rax
   15b78:	41 89 c4             	mov    %eax,%r12d
   15b7b:	48 8b 85 a0 e4 ff ff 	mov    -0x1b60(%rbp),%rax
   15b82:	8b 00                	mov    (%rax),%eax
   15b84:	48 63 d0             	movslq %eax,%rdx
   15b87:	48 8b 85 a0 e4 ff ff 	mov    -0x1b60(%rbp),%rax
   15b8e:	8b 08                	mov    (%rax),%ecx
   15b90:	81 bd 04 e3 ff ff 9a 	cmpl   $0x779a,-0x1cfc(%rbp)
   15b97:	77 00 00 
   15b9a:	0f 95 c0             	setne  %al
   15b9d:	0f b6 c0             	movzbl %al,%eax
   15ba0:	39 c1                	cmp    %eax,%ecx
   15ba2:	0f 9c c0             	setl   %al
   15ba5:	0f b6 c0             	movzbl %al,%eax
   15ba8:	48 89 d6             	mov    %rdx,%rsi
   15bab:	48 89 c7             	mov    %rax,%rdi
   15bae:	e8 fc 84 ff ff       	callq  e0af <safe_div_func_uint64_t_u_u>
   15bb3:	be ff 00 00 00       	mov    $0xff,%esi
   15bb8:	bf 00 00 00 00       	mov    $0x0,%edi
   15bbd:	e8 d1 7f ff ff       	callq  db93 <safe_mul_func_uint8_t_u_u>
   15bc2:	44 89 e6             	mov    %r12d,%esi
   15bc5:	bf 01 00 00 00       	mov    $0x1,%edi
   15bca:	e8 7d 80 ff ff       	callq  dc4c <safe_lshift_func_uint8_t_u_u>
   15bcf:	0f b6 c0             	movzbl %al,%eax
   15bd2:	39 c3                	cmp    %eax,%ebx
   15bd4:	0f 9f c0             	setg   %al
   15bd7:	0f b6 d0             	movzbl %al,%edx
   15bda:	8b 85 04 e3 ff ff    	mov    -0x1cfc(%rbp),%eax
   15be0:	48 89 d6             	mov    %rdx,%rsi
   15be3:	48 89 c7             	mov    %rax,%rdi
   15be6:	e8 56 7c ff ff       	callq  d841 <safe_add_func_int64_t_s_s>
   15beb:	48 8b 95 f8 e4 ff ff 	mov    -0x1b08(%rbp),%rdx
   15bf2:	8b 12                	mov    (%rdx),%edx
   15bf4:	31 c2                	xor    %eax,%edx
   15bf6:	48 8b 85 f8 e4 ff ff 	mov    -0x1b08(%rbp),%rax
   15bfd:	89 10                	mov    %edx,(%rax)
   15bff:	83 bd 04 e3 ff ff 00 	cmpl   $0x0,-0x1cfc(%rbp)
   15c06:	0f b6 05 8f 14 01 00 	movzbl 0x1148f(%rip),%eax        # 2709c <g_135>
   15c0d:	0f be c0             	movsbl %al,%eax
   15c10:	be 04 00 00 00       	mov    $0x4,%esi
   15c15:	89 c7                	mov    %eax,%edi
   15c17:	e8 b8 75 ff ff       	callq  d1d4 <safe_add_func_int8_t_s_s>
   15c1c:	88 05 7a 14 01 00    	mov    %al,0x1147a(%rip)        # 2709c <g_135>
   15c22:	0f b6 05 73 14 01 00 	movzbl 0x11473(%rip),%eax        # 2709c <g_135>
   15c29:	3c 0f                	cmp    $0xf,%al
   15c2b:	0f 8f a9 fc ff ff    	jg     158da <func_10+0x3402>
   15c31:	48 8b 85 f8 e4 ff ff 	mov    -0x1b08(%rbp),%rax
   15c38:	8b 00                	mov    (%rax),%eax
   15c3a:	25 36 cf 31 53       	and    $0x5331cf36,%eax
   15c3f:	89 c2                	mov    %eax,%edx
   15c41:	48 8b 85 f8 e4 ff ff 	mov    -0x1b08(%rbp),%rax
   15c48:	89 10                	mov    %edx,(%rax)
   15c4a:	48 8b 85 f8 e4 ff ff 	mov    -0x1b08(%rbp),%rax
   15c51:	8b 00                	mov    (%rax),%eax
   15c53:	85 c0                	test   %eax,%eax
   15c55:	0f 84 05 04 00 00    	je     16060 <func_10+0x3b88>
   15c5b:	48 c7 85 10 e5 ff ff 	movq   $0xffffffffffffffff,-0x1af0(%rbp)
   15c62:	ff ff ff ff 
   15c66:	48 8d 05 14 15 01 00 	lea    0x11514(%rip),%rax        # 27181 <g_2495+0x1>
   15c6d:	48 89 85 18 e5 ff ff 	mov    %rax,-0x1ae8(%rbp)
   15c74:	48 c7 85 20 e5 ff ff 	movq   $0x0,-0x1ae0(%rbp)
   15c7b:	00 00 00 00 
   15c7f:	48 8d 05 83 14 01 00 	lea    0x11483(%rip),%rax        # 27109 <g_802>
   15c86:	48 89 85 28 e5 ff ff 	mov    %rax,-0x1ad8(%rbp)
   15c8d:	c7 85 18 e4 ff ff 20 	movl   $0x70900f20,-0x1be8(%rbp)
   15c94:	0f 90 70 
   15c97:	48 8d 05 ca 14 01 00 	lea    0x114ca(%rip),%rax        # 27168 <g_2257>
   15c9e:	48 89 85 e0 e6 ff ff 	mov    %rax,-0x1920(%rbp)
   15ca5:	48 8d 05 b8 13 01 00 	lea    0x113b8(%rip),%rax        # 27064 <g_50>
   15cac:	48 89 85 e8 e6 ff ff 	mov    %rax,-0x1918(%rbp)
   15cb3:	48 8d 05 ae 14 01 00 	lea    0x114ae(%rip),%rax        # 27168 <g_2257>
   15cba:	48 89 85 f0 e6 ff ff 	mov    %rax,-0x1910(%rbp)
   15cc1:	48 8d 05 9c 13 01 00 	lea    0x1139c(%rip),%rax        # 27064 <g_50>
   15cc8:	48 89 85 f8 e6 ff ff 	mov    %rax,-0x1908(%rbp)
   15ccf:	48 8d 05 92 14 01 00 	lea    0x11492(%rip),%rax        # 27168 <g_2257>
   15cd6:	48 89 85 00 e7 ff ff 	mov    %rax,-0x1900(%rbp)
   15cdd:	48 8d 05 80 13 01 00 	lea    0x11380(%rip),%rax        # 27064 <g_50>
   15ce4:	48 89 85 08 e7 ff ff 	mov    %rax,-0x18f8(%rbp)
   15ceb:	48 8d 05 76 14 01 00 	lea    0x11476(%rip),%rax        # 27168 <g_2257>
   15cf2:	48 89 85 10 e7 ff ff 	mov    %rax,-0x18f0(%rbp)
   15cf9:	48 8d 05 64 13 01 00 	lea    0x11364(%rip),%rax        # 27064 <g_50>
   15d00:	48 89 85 18 e7 ff ff 	mov    %rax,-0x18e8(%rbp)
   15d07:	48 8d 05 5a 14 01 00 	lea    0x1145a(%rip),%rax        # 27168 <g_2257>
   15d0e:	48 89 85 20 e7 ff ff 	mov    %rax,-0x18e0(%rbp)
   15d15:	48 8d 05 48 13 01 00 	lea    0x11348(%rip),%rax        # 27064 <g_50>
   15d1c:	48 89 85 28 e7 ff ff 	mov    %rax,-0x18d8(%rbp)
   15d23:	48 8d 05 3e 14 01 00 	lea    0x1143e(%rip),%rax        # 27168 <g_2257>
   15d2a:	48 89 85 30 e7 ff ff 	mov    %rax,-0x18d0(%rbp)
   15d31:	48 8d 05 2c 13 01 00 	lea    0x1132c(%rip),%rax        # 27064 <g_50>
   15d38:	48 89 85 38 e7 ff ff 	mov    %rax,-0x18c8(%rbp)
   15d3f:	48 8d 85 ac e2 ff ff 	lea    -0x1d54(%rbp),%rax
   15d46:	48 89 85 30 e5 ff ff 	mov    %rax,-0x1ad0(%rbp)
   15d4d:	48 8b 85 a0 e4 ff ff 	mov    -0x1b60(%rbp),%rax
   15d54:	8b 10                	mov    (%rax),%edx
   15d56:	48 8b 05 e3 4d 01 00 	mov    0x14de3(%rip),%rax        # 2ab40 <g_2467>
   15d5d:	0f b6 00             	movzbl (%rax),%eax
   15d60:	0f be c0             	movsbl %al,%eax
   15d63:	39 c2                	cmp    %eax,%edx
   15d65:	0f 94 c2             	sete   %dl
   15d68:	48 8b 05 d1 4d 01 00 	mov    0x14dd1(%rip),%rax        # 2ab40 <g_2467>
   15d6f:	88 10                	mov    %dl,(%rax)
   15d71:	0f b6 10             	movzbl (%rax),%edx
   15d74:	48 8b 85 18 e5 ff ff 	mov    -0x1ae8(%rbp),%rax
   15d7b:	88 10                	mov    %dl,(%rax)
   15d7d:	48 8b 85 18 e5 ff ff 	mov    -0x1ae8(%rbp),%rax
   15d84:	0f b6 00             	movzbl (%rax),%eax
   15d87:	0f be c0             	movsbl %al,%eax
   15d8a:	89 c7                	mov    %eax,%edi
   15d8c:	e8 2e 74 ff ff       	callq  d1bf <safe_unary_minus_func_int8_t_s>
   15d91:	0f be d8             	movsbl %al,%ebx
   15d94:	0f b6 85 91 e2 ff ff 	movzbl -0x1d6f(%rbp),%eax
   15d9b:	be 01 00 00 00       	mov    $0x1,%esi
   15da0:	89 c7                	mov    %eax,%edi
   15da2:	e8 34 7e ff ff       	callq  dbdb <safe_div_func_uint8_t_u_u>
   15da7:	0f b6 c0             	movzbl %al,%eax
   15daa:	89 de                	mov    %ebx,%esi
   15dac:	89 c7                	mov    %eax,%edi
   15dae:	e8 52 78 ff ff       	callq  d605 <safe_sub_func_int32_t_s_s>
   15db3:	48 63 d0             	movslq %eax,%rdx
   15db6:	48 8b 85 10 e5 ff ff 	mov    -0x1af0(%rbp),%rax
   15dbd:	48 89 d6             	mov    %rdx,%rsi
   15dc0:	48 89 c7             	mov    %rax,%rdi
   15dc3:	e8 66 82 ff ff       	callq  e02e <safe_add_func_uint64_t_u_u>
   15dc8:	48 8b 85 10 e5 ff ff 	mov    -0x1af0(%rbp),%rax
   15dcf:	89 c3                	mov    %eax,%ebx
   15dd1:	48 8b 85 48 f4 ff ff 	mov    -0xbb8(%rbp),%rax
   15dd8:	41 89 c4             	mov    %eax,%r12d
   15ddb:	48 8b 85 18 e5 ff ff 	mov    -0x1ae8(%rbp),%rax
   15de2:	0f b6 10             	movzbl (%rax),%edx
   15de5:	48 8b 05 54 4d 01 00 	mov    0x14d54(%rip),%rax        # 2ab40 <g_2467>
   15dec:	0f b6 00             	movzbl (%rax),%eax
   15def:	21 c2                	and    %eax,%edx
   15df1:	48 8b 85 18 e5 ff ff 	mov    -0x1ae8(%rbp),%rax
   15df8:	88 10                	mov    %dl,(%rax)
   15dfa:	48 8b 85 10 e5 ff ff 	mov    -0x1af0(%rbp),%rax
   15e01:	89 c2                	mov    %eax,%edx
   15e03:	48 8b 85 a0 e4 ff ff 	mov    -0x1b60(%rbp),%rax
   15e0a:	89 10                	mov    %edx,(%rax)
   15e0c:	48 8b 85 a0 e4 ff ff 	mov    -0x1b60(%rbp),%rax
   15e13:	8b 00                	mov    (%rax),%eax
   15e15:	be 53 cc 6b 5e       	mov    $0x5e6bcc53,%esi
   15e1a:	89 c7                	mov    %eax,%edi
   15e1c:	e8 97 80 ff ff       	callq  deb8 <safe_add_func_uint32_t_u_u>
   15e21:	0f b7 c0             	movzwl %ax,%eax
   15e24:	44 89 e6             	mov    %r12d,%esi
   15e27:	89 c7                	mov    %eax,%edi
   15e29:	e8 1a 80 ff ff       	callq  de48 <safe_rshift_func_uint16_t_u_s>
   15e2e:	0f b7 d0             	movzwl %ax,%edx
   15e31:	48 8b 85 48 f4 ff ff 	mov    -0xbb8(%rbp),%rax
   15e38:	0f b6 c0             	movzbl %al,%eax
   15e3b:	89 d6                	mov    %edx,%esi
   15e3d:	89 c7                	mov    %eax,%edi
   15e3f:	e8 08 7e ff ff       	callq  dc4c <safe_lshift_func_uint8_t_u_u>
   15e44:	84 c0                	test   %al,%al
   15e46:	74 07                	je     15e4f <func_10+0x3977>
   15e48:	b8 01 00 00 00       	mov    $0x1,%eax
   15e4d:	eb 05                	jmp    15e54 <func_10+0x397c>
   15e4f:	b8 00 00 00 00       	mov    $0x0,%eax
   15e54:	0f b7 c0             	movzwl %ax,%eax
   15e57:	be 00 00 00 00       	mov    $0x0,%esi
   15e5c:	89 c7                	mov    %eax,%edi
   15e5e:	e8 bc 7e ff ff       	callq  dd1f <safe_sub_func_uint16_t_u_u>
   15e63:	0f b7 c0             	movzwl %ax,%eax
   15e66:	be 00 00 00 00       	mov    $0x0,%esi
   15e6b:	89 c7                	mov    %eax,%edi
   15e6d:	e8 44 77 ff ff       	callq  d5b6 <safe_add_func_int32_t_s_s>
   15e72:	89 c2                	mov    %eax,%edx
   15e74:	48 8b 05 c5 4c 01 00 	mov    0x14cc5(%rip),%rax        # 2ab40 <g_2467>
   15e7b:	88 10                	mov    %dl,(%rax)
   15e7d:	0f b6 00             	movzbl (%rax),%eax
   15e80:	83 c8 fb             	or     $0xfffffffb,%eax
   15e83:	0f be c0             	movsbl %al,%eax
   15e86:	89 de                	mov    %ebx,%esi
   15e88:	89 c7                	mov    %eax,%edi
   15e8a:	e8 41 80 ff ff       	callq  ded0 <safe_sub_func_uint32_t_u_u>
   15e8f:	be fa ff ff ff       	mov    $0xfffffffa,%esi
   15e94:	89 c7                	mov    %eax,%edi
   15e96:	e8 6a 77 ff ff       	callq  d605 <safe_sub_func_int32_t_s_s>
   15e9b:	89 c2                	mov    %eax,%edx
   15e9d:	48 8b 85 28 e5 ff ff 	mov    -0x1ad8(%rbp),%rax
   15ea4:	88 10                	mov    %dl,(%rax)
   15ea6:	48 8b 85 10 e5 ff ff 	mov    -0x1af0(%rbp),%rax
   15ead:	48 89 c6             	mov    %rax,%rsi
   15eb0:	bf 01 00 00 00       	mov    $0x1,%edi
   15eb5:	e8 87 79 ff ff       	callq  d841 <safe_add_func_int64_t_s_s>
   15eba:	48 85 c0             	test   %rax,%rax
   15ebd:	75 0a                	jne    15ec9 <func_10+0x39f1>
   15ebf:	66 83 bd a2 e2 ff ff 	cmpw   $0x0,-0x1d5e(%rbp)
   15ec6:	00 
   15ec7:	74 07                	je     15ed0 <func_10+0x39f8>
   15ec9:	b8 01 00 00 00       	mov    $0x1,%eax
   15ece:	eb 05                	jmp    15ed5 <func_10+0x39fd>
   15ed0:	b8 00 00 00 00       	mov    $0x0,%eax
   15ed5:	0f b7 c0             	movzwl %ax,%eax
   15ed8:	be 02 00 00 00       	mov    $0x2,%esi
   15edd:	89 c7                	mov    %eax,%edi
   15edf:	e8 22 7f ff ff       	callq  de06 <safe_lshift_func_uint16_t_u_u>
   15ee4:	0f b7 c0             	movzwl %ax,%eax
   15ee7:	89 85 18 e4 ff ff    	mov    %eax,-0x1be8(%rbp)
   15eed:	8b 85 18 e4 ff ff    	mov    -0x1be8(%rbp),%eax
   15ef3:	85 c0                	test   %eax,%eax
   15ef5:	0f 84 b5 00 00 00    	je     15fb0 <func_10+0x3ad8>
   15efb:	c7 85 c4 e2 ff ff 00 	movl   $0x0,-0x1d3c(%rbp)
   15f02:	00 00 00 
   15f05:	e9 8d 00 00 00       	jmpq   15f97 <func_10+0x3abf>
   15f0a:	c7 85 c8 e2 ff ff 00 	movl   $0x0,-0x1d38(%rbp)
   15f11:	00 00 00 
   15f14:	eb 71                	jmp    15f87 <func_10+0x3aaf>
   15f16:	c7 85 cc e2 ff ff 00 	movl   $0x0,-0x1d34(%rbp)
   15f1d:	00 00 00 
   15f20:	eb 55                	jmp    15f77 <func_10+0x3a9f>
   15f22:	8b 85 cc e2 ff ff    	mov    -0x1d34(%rbp),%eax
   15f28:	48 63 f0             	movslq %eax,%rsi
   15f2b:	8b 85 c4 e2 ff ff    	mov    -0x1d3c(%rbp),%eax
   15f31:	48 63 d0             	movslq %eax,%rdx
   15f34:	8b 85 c8 e2 ff ff    	mov    -0x1d38(%rbp),%eax
   15f3a:	48 63 c8             	movslq %eax,%rcx
   15f3d:	48 89 d0             	mov    %rdx,%rax
   15f40:	48 c1 e0 02          	shl    $0x2,%rax
   15f44:	48 01 d0             	add    %rdx,%rax
   15f47:	48 01 c0             	add    %rax,%rax
   15f4a:	48 89 ca             	mov    %rcx,%rdx
   15f4d:	48 c1 e2 02          	shl    $0x2,%rdx
   15f51:	48 01 ca             	add    %rcx,%rdx
   15f54:	48 01 d0             	add    %rdx,%rax
   15f57:	48 01 f0             	add    %rsi,%rax
   15f5a:	48 8d 95 10 ed ff ff 	lea    -0x12f0(%rbp),%rdx
   15f61:	48 81 c2 f4 02 00 00 	add    $0x2f4,%rdx
   15f68:	48 89 94 c5 80 e8 ff 	mov    %rdx,-0x1780(%rbp,%rax,8)
   15f6f:	ff 
   15f70:	83 85 cc e2 ff ff 01 	addl   $0x1,-0x1d34(%rbp)
   15f77:	83 bd cc e2 ff ff 04 	cmpl   $0x4,-0x1d34(%rbp)
   15f7e:	7e a2                	jle    15f22 <func_10+0x3a4a>
   15f80:	83 85 c8 e2 ff ff 01 	addl   $0x1,-0x1d38(%rbp)
   15f87:	83 bd c8 e2 ff ff 01 	cmpl   $0x1,-0x1d38(%rbp)
   15f8e:	7e 86                	jle    15f16 <func_10+0x3a3e>
   15f90:	83 85 c4 e2 ff ff 01 	addl   $0x1,-0x1d3c(%rbp)
   15f97:	83 bd c4 e2 ff ff 01 	cmpl   $0x1,-0x1d3c(%rbp)
   15f9e:	0f 8e 66 ff ff ff    	jle    15f0a <func_10+0x3a32>
   15fa4:	48 8b 85 70 e2 ff ff 	mov    -0x1d90(%rbp),%rax
   15fab:	e9 63 16 00 00       	jmpq   17613 <func_10+0x513b>
   15fb0:	48 8d 85 10 ed ff ff 	lea    -0x12f0(%rbp),%rax
   15fb7:	48 83 c0 14          	add    $0x14,%rax
   15fbb:	48 89 85 38 e5 ff ff 	mov    %rax,-0x1ac8(%rbp)
   15fc2:	48 8b 85 80 e2 ff ff 	mov    -0x1d80(%rbp),%rax
   15fc9:	48 89 85 88 e2 ff ff 	mov    %rax,-0x1d78(%rbp)
   15fd0:	48 8b 85 f8 e4 ff ff 	mov    -0x1b08(%rbp),%rax
   15fd7:	8b 00                	mov    (%rax),%eax
   15fd9:	0d 2a 4f e2 e8       	or     $0xe8e24f2a,%eax
   15fde:	89 c2                	mov    %eax,%edx
   15fe0:	48 8b 85 f8 e4 ff ff 	mov    -0x1b08(%rbp),%rax
   15fe7:	89 10                	mov    %edx,(%rax)
   15fe9:	48 8b 85 70 e2 ff ff 	mov    -0x1d90(%rbp),%rax
   15ff0:	48 89 85 78 e2 ff ff 	mov    %rax,-0x1d88(%rbp)
   15ff7:	48 8b 05 1a 4b 01 00 	mov    0x14b1a(%rip),%rax        # 2ab18 <g_2240>
   15ffe:	48 8d 95 18 e4 ff ff 	lea    -0x1be8(%rbp),%rdx
   16005:	48 89 10             	mov    %rdx,(%rax)
   16008:	48 8b 85 80 e3 ff ff 	mov    -0x1c80(%rbp),%rax
   1600f:	8b 10                	mov    (%rax),%edx
   16011:	48 8b 85 a0 e4 ff ff 	mov    -0x1b60(%rbp),%rax
   16018:	89 10                	mov    %edx,(%rax)
   1601a:	48 8b 85 a0 e4 ff ff 	mov    -0x1b60(%rbp),%rax
   16021:	8b 00                	mov    (%rax),%eax
   16023:	48 63 d0             	movslq %eax,%rdx
   16026:	48 8b 85 e0 f3 ff ff 	mov    -0xc20(%rbp),%rax
   1602d:	48 21 c2             	and    %rax,%rdx
   16030:	48 8b 85 80 e3 ff ff 	mov    -0x1c80(%rbp),%rax
   16037:	8b 00                	mov    (%rax),%eax
   16039:	48 98                	cltq   
   1603b:	48 39 c2             	cmp    %rax,%rdx
   1603e:	0f 97 c2             	seta   %dl
   16041:	48 8b 85 80 e3 ff ff 	mov    -0x1c80(%rbp),%rax
   16048:	0f b6 d2             	movzbl %dl,%edx
   1604b:	89 10                	mov    %edx,(%rax)
   1604d:	48 8b 85 88 e2 ff ff 	mov    -0x1d78(%rbp),%rax
   16054:	48 89 85 30 e5 ff ff 	mov    %rax,-0x1ad0(%rbp)
   1605b:	e9 96 00 00 00       	jmpq   160f6 <func_10+0x3c1e>
   16060:	48 8d 85 80 e8 ff ff 	lea    -0x1780(%rbp),%rax
   16067:	48 89 85 08 e5 ff ff 	mov    %rax,-0x1af8(%rbp)
   1606e:	c7 85 d0 e2 ff ff 00 	movl   $0x0,-0x1d30(%rbp)
   16075:	00 00 00 
   16078:	eb 1e                	jmp    16098 <func_10+0x3bc0>
   1607a:	8b 85 d0 e2 ff ff    	mov    -0x1d30(%rbp),%eax
   16080:	48 98                	cltq   
   16082:	48 8d 15 77 4c 01 00 	lea    0x14c77(%rip),%rdx        # 2ad00 <g_2961>
   16089:	48 89 94 c5 80 e8 ff 	mov    %rdx,-0x1780(%rbp,%rax,8)
   16090:	ff 
   16091:	83 85 d0 e2 ff ff 01 	addl   $0x1,-0x1d30(%rbp)
   16098:	83 bd d0 e2 ff ff 00 	cmpl   $0x0,-0x1d30(%rbp)
   1609f:	7e d9                	jle    1607a <func_10+0x3ba2>
   160a1:	66 c7 05 4c 10 01 00 	movw   $0x0,0x1104c(%rip)        # 270f6 <g_620>
   160a8:	00 00 
   160aa:	eb 2f                	jmp    160db <func_10+0x3c03>
   160ac:	48 8b 05 cd 57 01 00 	mov    0x157cd(%rip),%rax        # 2b880 <g_3703>
   160b3:	48 8b 95 a0 e4 ff ff 	mov    -0x1b60(%rbp),%rdx
   160ba:	48 89 10             	mov    %rdx,(%rax)
   160bd:	0f b7 05 32 10 01 00 	movzwl 0x11032(%rip),%eax        # 270f6 <g_620>
   160c4:	0f b7 c0             	movzwl %ax,%eax
   160c7:	be 01 00 00 00       	mov    $0x1,%esi
   160cc:	48 89 c7             	mov    %rax,%rdi
   160cf:	e8 5a 7f ff ff       	callq  e02e <safe_add_func_uint64_t_u_u>
   160d4:	66 89 05 1b 10 01 00 	mov    %ax,0x1101b(%rip)        # 270f6 <g_620>
   160db:	0f b7 05 14 10 01 00 	movzwl 0x11014(%rip),%eax        # 270f6 <g_620>
   160e2:	66 83 f8 0a          	cmp    $0xa,%ax
   160e6:	74 c4                	je     160ac <func_10+0x3bd4>
   160e8:	48 8b 85 08 e5 ff ff 	mov    -0x1af8(%rbp),%rax
   160ef:	48 89 85 58 ff ff ff 	mov    %rax,-0xa8(%rbp)
   160f6:	48 8b 85 a0 e4 ff ff 	mov    -0x1b60(%rbp),%rax
   160fd:	8b 10                	mov    (%rax),%edx
   160ff:	48 8b 85 80 e3 ff ff 	mov    -0x1c80(%rbp),%rax
   16106:	8b 00                	mov    (%rax),%eax
   16108:	09 c2                	or     %eax,%edx
   1610a:	48 8b 85 a0 e4 ff ff 	mov    -0x1b60(%rbp),%rax
   16111:	89 10                	mov    %edx,(%rax)
   16113:	48 8b 85 00 e5 ff ff 	mov    -0x1b00(%rbp),%rax
   1611a:	48 bb 94 3f d5 44 ed 	movabs $0x667b55ed44d53f94,%rbx
   16121:	55 7b 66 
   16124:	48 89 18             	mov    %rbx,(%rax)
   16127:	48 8b 85 a0 e4 ff ff 	mov    -0x1b60(%rbp),%rax
   1612e:	c7 00 ad f9 bd db    	movl   $0xdbbdf9ad,(%rax)
   16134:	0f b7 05 ad 0f 01 00 	movzwl 0x10fad(%rip),%eax        # 270e8 <g_423>
   1613b:	83 c0 01             	add    $0x1,%eax
   1613e:	66 89 05 a3 0f 01 00 	mov    %ax,0x10fa3(%rip)        # 270e8 <g_423>
   16145:	0f b7 05 9c 0f 01 00 	movzwl 0x10f9c(%rip),%eax        # 270e8 <g_423>
   1614c:	66 83 f8 34          	cmp    $0x34,%ax
   16150:	0f 86 86 e3 ff ff    	jbe    144dc <func_10+0x2004>
   16156:	48 8b 85 80 e3 ff ff 	mov    -0x1c80(%rbp),%rax
   1615d:	8b 00                	mov    (%rax),%eax
   1615f:	0f be d0             	movsbl %al,%edx
   16162:	0f b6 05 21 11 01 00 	movzbl 0x11121(%rip),%eax        # 2728a <g_3712>
   16169:	0f be c0             	movsbl %al,%eax
   1616c:	89 d6                	mov    %edx,%esi
   1616e:	89 c7                	mov    %eax,%edi
   16170:	e8 5f 70 ff ff       	callq  d1d4 <safe_add_func_int8_t_s_s>
   16175:	89 c2                	mov    %eax,%edx
   16177:	48 8b 85 80 e3 ff ff 	mov    -0x1c80(%rbp),%rax
   1617e:	0f be d2             	movsbl %dl,%edx
   16181:	89 10                	mov    %edx,(%rax)
   16183:	be 03 00 00 00       	mov    $0x3,%esi
   16188:	bf f8 00 00 00       	mov    $0xf8,%edi
   1618d:	e8 2c 7b ff ff       	callq  dcbe <safe_rshift_func_uint8_t_u_u>
   16192:	0f b6 c0             	movzbl %al,%eax
   16195:	be 01 00 00 00       	mov    $0x1,%esi
   1619a:	89 c7                	mov    %eax,%edi
   1619c:	e8 ec 7a ff ff       	callq  dc8d <safe_rshift_func_uint8_t_u_s>
   161a1:	0f b6 d0             	movzbl %al,%edx
   161a4:	48 8b 85 a0 e4 ff ff 	mov    -0x1b60(%rbp),%rax
   161ab:	89 10                	mov    %edx,(%rax)
   161ad:	48 8d 85 e0 f7 ff ff 	lea    -0x820(%rbp),%rax
   161b4:	48 83 c0 08          	add    $0x8,%rax
   161b8:	48 89 85 b0 e4 ff ff 	mov    %rax,-0x1b50(%rbp)
   161bf:	c7 85 e8 e3 ff ff ff 	movl   $0xffffffff,-0x1c18(%rbp)
   161c6:	ff ff ff 
   161c9:	c7 85 d4 e2 ff ff 00 	movl   $0x0,-0x1d2c(%rbp)
   161d0:	00 00 00 
   161d3:	eb 43                	jmp    16218 <func_10+0x3d40>
   161d5:	c7 85 d8 e2 ff ff 00 	movl   $0x0,-0x1d28(%rbp)
   161dc:	00 00 00 
   161df:	eb 27                	jmp    16208 <func_10+0x3d30>
   161e1:	8b 85 d8 e2 ff ff    	mov    -0x1d28(%rbp),%eax
   161e7:	48 63 d0             	movslq %eax,%rdx
   161ea:	8b 85 d4 e2 ff ff    	mov    -0x1d2c(%rbp),%eax
   161f0:	48 98                	cltq   
   161f2:	48 01 d0             	add    %rdx,%rax
   161f5:	48 c7 84 c5 e0 f7 ff 	movq   $0x0,-0x820(%rbp,%rax,8)
   161fc:	ff 00 00 00 00 
   16201:	83 85 d8 e2 ff ff 01 	addl   $0x1,-0x1d28(%rbp)
   16208:	83 bd d8 e2 ff ff 00 	cmpl   $0x0,-0x1d28(%rbp)
   1620f:	7e d0                	jle    161e1 <func_10+0x3d09>
   16211:	83 85 d4 e2 ff ff 01 	addl   $0x1,-0x1d2c(%rbp)
   16218:	83 bd d4 e2 ff ff 05 	cmpl   $0x5,-0x1d2c(%rbp)
   1621f:	7e b4                	jle    161d5 <func_10+0x3cfd>
   16221:	66 c7 05 be 0e 01 00 	movw   $0x0,0x10ebe(%rip)        # 270e8 <g_423>
   16228:	00 00 
   1622a:	e9 23 04 00 00       	jmpq   16652 <func_10+0x417a>
   1622f:	66 c7 85 18 e4 ff ff 	movw   $0xfffc,-0x1be8(%rbp)
   16236:	fc ff 
   16238:	48 8d 05 21 10 01 00 	lea    0x11021(%rip),%rax        # 27260 <g_3270>
   1623f:	48 89 85 b8 e4 ff ff 	mov    %rax,-0x1b48(%rbp)
   16246:	48 8b 85 80 e3 ff ff 	mov    -0x1c80(%rbp),%rax
   1624d:	c7 00 d8 7b 32 26    	movl   $0x26327bd8,(%rax)
   16253:	c7 05 57 0e 01 00 18 	movl   $0x18,0x10e57(%rip)        # 270b4 <g_235>
   1625a:	00 00 00 
   1625d:	e9 c3 03 00 00       	jmpq   16625 <func_10+0x414d>
   16262:	66 c7 85 40 ea ff ff 	movw   $0x2b28,-0x15c0(%rbp)
   16269:	28 2b 
   1626b:	66 c7 85 42 ea ff ff 	movw   $0x9d00,-0x15be(%rbp)
   16272:	00 9d 
   16274:	66 c7 85 44 ea ff ff 	movw   $0x2b28,-0x15bc(%rbp)
   1627b:	28 2b 
   1627d:	66 c7 85 46 ea ff ff 	movw   $0x2b28,-0x15ba(%rbp)
   16284:	28 2b 
   16286:	66 c7 85 48 ea ff ff 	movw   $0x9d00,-0x15b8(%rbp)
   1628d:	00 9d 
   1628f:	66 c7 85 4a ea ff ff 	movw   $0x2b28,-0x15b6(%rbp)
   16296:	28 2b 
   16298:	66 c7 85 4c ea ff ff 	movw   $0x2b28,-0x15b4(%rbp)
   1629f:	28 2b 
   162a1:	66 c7 85 4e ea ff ff 	movw   $0x9d00,-0x15b2(%rbp)
   162a8:	00 9d 
   162aa:	66 c7 85 50 ea ff ff 	movw   $0x2b28,-0x15b0(%rbp)
   162b1:	28 2b 
   162b3:	66 c7 85 52 ea ff ff 	movw   $0x2b28,-0x15ae(%rbp)
   162ba:	28 2b 
   162bc:	66 c7 85 54 ea ff ff 	movw   $0x9d00,-0x15ac(%rbp)
   162c3:	00 9d 
   162c5:	66 c7 85 56 ea ff ff 	movw   $0x9d00,-0x15aa(%rbp)
   162cc:	00 9d 
   162ce:	66 c7 85 58 ea ff ff 	movw   $0x1,-0x15a8(%rbp)
   162d5:	01 00 
   162d7:	66 c7 85 5a ea ff ff 	movw   $0x9d00,-0x15a6(%rbp)
   162de:	00 9d 
   162e0:	66 c7 85 5c ea ff ff 	movw   $0x9d00,-0x15a4(%rbp)
   162e7:	00 9d 
   162e9:	66 c7 85 5e ea ff ff 	movw   $0x1,-0x15a2(%rbp)
   162f0:	01 00 
   162f2:	66 c7 85 60 ea ff ff 	movw   $0x9d00,-0x15a0(%rbp)
   162f9:	00 9d 
   162fb:	66 c7 85 62 ea ff ff 	movw   $0x9d00,-0x159e(%rbp)
   16302:	00 9d 
   16304:	66 c7 85 64 ea ff ff 	movw   $0x1,-0x159c(%rbp)
   1630b:	01 00 
   1630d:	66 c7 85 66 ea ff ff 	movw   $0x9d00,-0x159a(%rbp)
   16314:	00 9d 
   16316:	48 8d 05 3b 47 01 00 	lea    0x1473b(%rip),%rax        # 2aa58 <g_396>
   1631d:	48 89 85 c0 e4 ff ff 	mov    %rax,-0x1b40(%rbp)
   16324:	48 c7 85 c8 e4 ff ff 	movq   $0x0,-0x1b38(%rbp)
   1632b:	00 00 00 00 
   1632f:	48 8d 05 cb 0e 01 00 	lea    0x10ecb(%rip),%rax        # 27201 <g_2842+0x61>
   16336:	48 89 85 d0 e4 ff ff 	mov    %rax,-0x1b30(%rbp)
   1633d:	48 8d 05 20 0d 01 00 	lea    0x10d20(%rip),%rax        # 27064 <g_50>
   16344:	48 89 85 d8 e4 ff ff 	mov    %rax,-0x1b28(%rbp)
   1634b:	66 c7 05 20 0d 01 00 	movw   $0xffef,0x10d20(%rip)        # 27074 <g_86>
   16352:	ef ff 
   16354:	e9 c2 00 00 00       	jmpq   1641b <func_10+0x3f43>
   16359:	48 8d 05 ec 0c 01 00 	lea    0x10cec(%rip),%rax        # 2704c <g_25+0xc>
   16360:	48 89 85 e0 e4 ff ff 	mov    %rax,-0x1b20(%rbp)
   16367:	c6 85 93 e2 ff ff b4 	movb   $0xb4,-0x1d6d(%rbp)
   1636e:	48 8d 85 18 e4 ff ff 	lea    -0x1be8(%rbp),%rax
   16375:	48 89 85 e8 e4 ff ff 	mov    %rax,-0x1b18(%rbp)
   1637c:	0f b7 85 4c ea ff ff 	movzwl -0x15b4(%rbp),%eax
   16383:	83 e8 01             	sub    $0x1,%eax
   16386:	66 89 85 4c ea ff ff 	mov    %ax,-0x15b4(%rbp)
   1638d:	0f be 95 93 e2 ff ff 	movsbl -0x1d6d(%rbp),%edx
   16394:	48 8b 85 e0 e4 ff ff 	mov    -0x1b20(%rbp),%rax
   1639b:	8b 00                	mov    (%rax),%eax
   1639d:	39 c2                	cmp    %eax,%edx
   1639f:	0f 95 c0             	setne  %al
   163a2:	0f b6 d0             	movzbl %al,%edx
   163a5:	48 8b 85 e0 e4 ff ff 	mov    -0x1b20(%rbp),%rax
   163ac:	89 10                	mov    %edx,(%rax)
   163ae:	48 8b 85 e0 e4 ff ff 	mov    -0x1b20(%rbp),%rax
   163b5:	8b 10                	mov    (%rax),%edx
   163b7:	48 8b 85 a0 e4 ff ff 	mov    -0x1b60(%rbp),%rax
   163be:	8b 00                	mov    (%rax),%eax
   163c0:	31 c2                	xor    %eax,%edx
   163c2:	48 8b 85 a0 e4 ff ff 	mov    -0x1b60(%rbp),%rax
   163c9:	89 10                	mov    %edx,(%rax)
   163cb:	48 8b 85 80 e3 ff ff 	mov    -0x1c80(%rbp),%rax
   163d2:	8b 00                	mov    (%rax),%eax
   163d4:	48 63 d0             	movslq %eax,%rdx
   163d7:	0f b7 85 18 e4 ff ff 	movzwl -0x1be8(%rbp),%eax
   163de:	48 0f bf c0          	movswq %ax,%rax
   163e2:	48 89 d6             	mov    %rdx,%rsi
   163e5:	48 89 c7             	mov    %rax,%rdi
   163e8:	e8 93 7c ff ff       	callq  e080 <safe_mod_func_uint64_t_u_u>
   163ed:	48 8b 85 b0 e4 ff ff 	mov    -0x1b50(%rbp),%rax
   163f4:	48 3b 85 c0 e4 ff ff 	cmp    -0x1b40(%rbp),%rax
   163fb:	0f 94 c2             	sete   %dl
   163fe:	48 8b 85 80 e3 ff ff 	mov    -0x1c80(%rbp),%rax
   16405:	0f b6 d2             	movzbl %dl,%edx
   16408:	89 10                	mov    %edx,(%rax)
   1640a:	0f b7 05 63 0c 01 00 	movzwl 0x10c63(%rip),%eax        # 27074 <g_86>
   16411:	83 c0 01             	add    $0x1,%eax
   16414:	66 89 05 59 0c 01 00 	mov    %ax,0x10c59(%rip)        # 27074 <g_86>
   1641b:	0f b7 05 52 0c 01 00 	movzwl 0x10c52(%rip),%eax        # 27074 <g_86>
   16422:	66 83 f8 0a          	cmp    $0xa,%ax
   16426:	0f 87 2d ff ff ff    	ja     16359 <func_10+0x3e81>
   1642c:	48 8b 85 80 e3 ff ff 	mov    -0x1c80(%rbp),%rax
   16433:	8b 10                	mov    (%rax),%edx
   16435:	48 8b 85 a0 e4 ff ff 	mov    -0x1b60(%rbp),%rax
   1643c:	89 10                	mov    %edx,(%rax)
   1643e:	8b 95 e8 e3 ff ff    	mov    -0x1c18(%rbp),%edx
   16444:	48 8b 05 f5 46 01 00 	mov    0x146f5(%rip),%rax        # 2ab40 <g_2467>
   1644b:	88 10                	mov    %dl,(%rax)
   1644d:	0f b6 00             	movzbl (%rax),%eax
   16450:	0f be c0             	movsbl %al,%eax
   16453:	be 03 00 00 00       	mov    $0x3,%esi
   16458:	89 c7                	mov    %eax,%edi
   1645a:	e8 0d 6f ff ff       	callq  d36c <safe_rshift_func_int8_t_s_u>
   1645f:	84 c0                	test   %al,%al
   16461:	74 36                	je     16499 <func_10+0x3fc1>
   16463:	0f b7 85 4c ea ff ff 	movzwl -0x15b4(%rbp),%eax
   1646a:	0f b7 d8             	movzwl %ax,%ebx
   1646d:	8b 85 e8 e3 ff ff    	mov    -0x1c18(%rbp),%eax
   16473:	0f bf d0             	movswl %ax,%edx
   16476:	8b 85 e8 e3 ff ff    	mov    -0x1c18(%rbp),%eax
   1647c:	98                   	cwtl   
   1647d:	89 d6                	mov    %edx,%esi
   1647f:	89 c7                	mov    %eax,%edi
   16481:	e8 2d 6f ff ff       	callq  d3b3 <safe_add_func_int16_t_s_s>
   16486:	89 de                	mov    %ebx,%esi
   16488:	bf 00 00 00 00       	mov    $0x0,%edi
   1648d:	e8 e8 79 ff ff       	callq  de7a <safe_rshift_func_uint16_t_u_u>
   16492:	b8 01 00 00 00       	mov    $0x1,%eax
   16497:	eb 05                	jmp    1649e <func_10+0x3fc6>
   16499:	b8 00 00 00 00       	mov    $0x0,%eax
   1649e:	0f bf d8             	movswl %ax,%ebx
   164a1:	48 8b 85 80 e3 ff ff 	mov    -0x1c80(%rbp),%rax
   164a8:	8b 00                	mov    (%rax),%eax
   164aa:	44 0f be e0          	movsbl %al,%r12d
   164ae:	48 8b 05 db 0d 01 00 	mov    0x10ddb(%rip),%rax        # 27290 <g_3748>
   164b5:	0f b6 d0             	movzbl %al,%edx
   164b8:	48 8b 85 d0 e4 ff ff 	mov    -0x1b30(%rbp),%rax
   164bf:	0f b6 00             	movzbl (%rax),%eax
   164c2:	8d 48 ff             	lea    -0x1(%rax),%ecx
   164c5:	48 8b 85 d0 e4 ff ff 	mov    -0x1b30(%rbp),%rax
   164cc:	88 08                	mov    %cl,(%rax)
   164ce:	48 8b 85 d0 e4 ff ff 	mov    -0x1b30(%rbp),%rax
   164d5:	0f b6 00             	movzbl (%rax),%eax
   164d8:	0f b6 c0             	movzbl %al,%eax
   164db:	89 d6                	mov    %edx,%esi
   164dd:	89 c7                	mov    %eax,%edi
   164df:	e8 94 76 ff ff       	callq  db78 <safe_sub_func_uint8_t_u_u>
   164e4:	0f be c0             	movsbl %al,%eax
   164e7:	44 89 e6             	mov    %r12d,%esi
   164ea:	89 c7                	mov    %eax,%edi
   164ec:	e8 21 6d ff ff       	callq  d212 <safe_mul_func_int8_t_s_s>
   164f1:	0f be c0             	movsbl %al,%eax
   164f4:	89 de                	mov    %ebx,%esi
   164f6:	89 c7                	mov    %eax,%edi
   164f8:	e8 f8 6e ff ff       	callq  d3f5 <safe_mul_func_int16_t_s_s>
   164fd:	48 8b 05 cc 56 01 00 	mov    0x156cc(%rip),%rax        # 2bbd0 <g_3763>
   16504:	48 39 85 a8 e4 ff ff 	cmp    %rax,-0x1b58(%rbp)
   1650b:	74 42                	je     1654f <func_10+0x4077>
   1650d:	48 8b 05 34 45 01 00 	mov    0x14534(%rip),%rax        # 2aa48 <g_142>
   16514:	8b 10                	mov    (%rax),%edx
   16516:	48 8b 85 a0 e4 ff ff 	mov    -0x1b60(%rbp),%rax
   1651d:	8b 00                	mov    (%rax),%eax
   1651f:	31 c2                	xor    %eax,%edx
   16521:	48 8b 85 a0 e4 ff ff 	mov    -0x1b60(%rbp),%rax
   16528:	89 10                	mov    %edx,(%rax)
   1652a:	48 8b 95 b8 e4 ff ff 	mov    -0x1b48(%rbp),%rdx
   16531:	48 8d 85 e8 e3 ff ff 	lea    -0x1c18(%rbp),%rax
   16538:	48 89 d6             	mov    %rdx,%rsi
   1653b:	48 89 c7             	mov    %rax,%rdi
   1653e:	e8 53 74 00 00       	callq  1d996 <func_45>
   16543:	48 89 85 d8 e4 ff ff 	mov    %rax,-0x1b28(%rbp)
   1654a:	e9 c7 00 00 00       	jmpq   16616 <func_10+0x413e>
   1654f:	66 c7 85 9e e2 ff ff 	movw   $0x9c8f,-0x1d62(%rbp)
   16556:	8f 9c 
   16558:	48 83 bd 48 e4 ff ff 	cmpq   $0x0,-0x1bb8(%rbp)
   1655f:	00 
   16560:	0f 95 c0             	setne  %al
   16563:	0f b6 d8             	movzbl %al,%ebx
   16566:	48 8d 85 80 e2 ff ff 	lea    -0x1d80(%rbp),%rax
   1656d:	48 39 85 50 e4 ff ff 	cmp    %rax,-0x1bb0(%rbp)
   16574:	0f 95 c0             	setne  %al
   16577:	0f b6 c0             	movzbl %al,%eax
   1657a:	be 06 00 00 00       	mov    $0x6,%esi
   1657f:	89 c7                	mov    %eax,%edi
   16581:	e8 80 78 ff ff       	callq  de06 <safe_lshift_func_uint16_t_u_u>
   16586:	44 0f b7 e0          	movzwl %ax,%r12d
   1658a:	8b 15 0c 0d 01 00    	mov    0x10d0c(%rip),%edx        # 2729c <g_3777>
   16590:	48 8b 85 a0 e4 ff ff 	mov    -0x1b60(%rbp),%rax
   16597:	89 10                	mov    %edx,(%rax)
   16599:	48 8b 85 a0 e4 ff ff 	mov    -0x1b60(%rbp),%rax
   165a0:	44 8b 28             	mov    (%rax),%r13d
   165a3:	0f b7 85 9e e2 ff ff 	movzwl -0x1d62(%rbp),%eax
   165aa:	66 83 f8 fc          	cmp    $0xfffc,%ax
   165ae:	0f 96 c0             	setbe  %al
   165b1:	0f b6 c0             	movzbl %al,%eax
   165b4:	be 06 00 00 00       	mov    $0x6,%esi
   165b9:	89 c7                	mov    %eax,%edi
   165bb:	e8 e1 6c ff ff       	callq  d2a1 <safe_lshift_func_int8_t_s_s>
   165c0:	84 c0                	test   %al,%al
   165c2:	0f 95 c0             	setne  %al
   165c5:	0f b6 c0             	movzbl %al,%eax
   165c8:	41 39 c5             	cmp    %eax,%r13d
   165cb:	0f 9f c0             	setg   %al
   165ce:	0f b6 c0             	movzbl %al,%eax
   165d1:	44 31 e0             	xor    %r12d,%eax
   165d4:	83 f8 ff             	cmp    $0xffffffff,%eax
   165d7:	0f 94 c0             	sete   %al
   165da:	0f b6 d0             	movzbl %al,%edx
   165dd:	8b 85 e8 e3 ff ff    	mov    -0x1c18(%rbp),%eax
   165e3:	39 c2                	cmp    %eax,%edx
   165e5:	7d 07                	jge    165ee <func_10+0x4116>
   165e7:	b8 01 00 00 00       	mov    $0x1,%eax
   165ec:	eb 05                	jmp    165f3 <func_10+0x411b>
   165ee:	b8 00 00 00 00       	mov    $0x0,%eax
   165f3:	0f b6 c0             	movzbl %al,%eax
   165f6:	be 00 00 00 00       	mov    $0x0,%esi
   165fb:	89 c7                	mov    %eax,%edi
   165fd:	e8 4a 76 ff ff       	callq  dc4c <safe_lshift_func_uint8_t_u_u>
   16602:	0f b6 c0             	movzbl %al,%eax
   16605:	39 c3                	cmp    %eax,%ebx
   16607:	0f 9c c0             	setl   %al
   1660a:	0f b6 d0             	movzbl %al,%edx
   1660d:	48 8b 85 b8 e4 ff ff 	mov    -0x1b48(%rbp),%rax
   16614:	89 10                	mov    %edx,(%rax)
   16616:	8b 05 98 0a 01 00    	mov    0x10a98(%rip),%eax        # 270b4 <g_235>
   1661c:	83 e8 01             	sub    $0x1,%eax
   1661f:	89 05 8f 0a 01 00    	mov    %eax,0x10a8f(%rip)        # 270b4 <g_235>
   16625:	8b 05 89 0a 01 00    	mov    0x10a89(%rip),%eax        # 270b4 <g_235>
   1662b:	83 f8 0c             	cmp    $0xc,%eax
   1662e:	0f 8f 2e fc ff ff    	jg     16262 <func_10+0x3d8a>
   16634:	48 8b 85 b8 e4 ff ff 	mov    -0x1b48(%rbp),%rax
   1663b:	8b 00                	mov    (%rax),%eax
   1663d:	85 c0                	test   %eax,%eax
   1663f:	75 24                	jne    16665 <func_10+0x418d>
   16641:	0f b7 05 a0 0a 01 00 	movzwl 0x10aa0(%rip),%eax        # 270e8 <g_423>
   16648:	83 c0 01             	add    $0x1,%eax
   1664b:	66 89 05 96 0a 01 00 	mov    %ax,0x10a96(%rip)        # 270e8 <g_423>
   16652:	0f b7 05 8f 0a 01 00 	movzwl 0x10a8f(%rip),%eax        # 270e8 <g_423>
   16659:	66 83 f8 21          	cmp    $0x21,%ax
   1665d:	0f 86 cc fb ff ff    	jbe    1622f <func_10+0x3d57>
   16663:	eb 01                	jmp    16666 <func_10+0x418e>
   16665:	90                   	nop
   16666:	48 c7 05 cf 0a 01 00 	movq   $0x17,0x10acf(%rip)        # 27140 <g_1126>
   1666d:	17 00 00 00 
   16671:	e9 92 01 00 00       	jmpq   16808 <func_10+0x4330>
   16676:	48 8d 05 33 44 01 00 	lea    0x14433(%rip),%rax        # 2aab0 <g_1206>
   1667d:	48 89 85 10 e4 ff ff 	mov    %rax,-0x1bf0(%rbp)
   16684:	48 8d 85 10 e4 ff ff 	lea    -0x1bf0(%rbp),%rax
   1668b:	48 89 85 18 e4 ff ff 	mov    %rax,-0x1be8(%rbp)
   16692:	c7 85 fc e2 ff ff dd 	movl   $0x7cafa8dd,-0x1d04(%rbp)
   16699:	a8 af 7c 
   1669c:	48 8d 05 59 0a 01 00 	lea    0x10a59(%rip),%rax        # 270fc <g_695>
   166a3:	48 89 85 f0 e4 ff ff 	mov    %rax,-0x1b10(%rbp)
   166aa:	c7 85 dc e2 ff ff 00 	movl   $0x0,-0x1d24(%rbp)
   166b1:	00 00 00 
   166b4:	eb 1e                	jmp    166d4 <func_10+0x41fc>
   166b6:	8b 85 dc e2 ff ff    	mov    -0x1d24(%rbp),%eax
   166bc:	48 98                	cltq   
   166be:	48 8d 95 18 e4 ff ff 	lea    -0x1be8(%rbp),%rdx
   166c5:	48 89 94 c5 40 ea ff 	mov    %rdx,-0x15c0(%rbp,%rax,8)
   166cc:	ff 
   166cd:	83 85 dc e2 ff ff 01 	addl   $0x1,-0x1d24(%rbp)
   166d4:	83 bd dc e2 ff ff 03 	cmpl   $0x3,-0x1d24(%rbp)
   166db:	7e d9                	jle    166b6 <func_10+0x41de>
   166dd:	0f b7 9d 9c e2 ff ff 	movzwl -0x1d64(%rbp),%ebx
   166e4:	66 83 bd 9c e2 ff ff 	cmpw   $0x0,-0x1d64(%rbp)
   166eb:	00 
   166ec:	75 2a                	jne    16718 <func_10+0x4240>
   166ee:	48 8b 85 f0 e4 ff ff 	mov    -0x1b10(%rbp),%rax
   166f5:	0f b6 00             	movzbl (%rax),%eax
   166f8:	8d 48 01             	lea    0x1(%rax),%ecx
   166fb:	48 8b 95 f0 e4 ff ff 	mov    -0x1b10(%rbp),%rdx
   16702:	88 0a                	mov    %cl,(%rdx)
   16704:	0f b6 d0             	movzbl %al,%edx
   16707:	48 8b 05 32 44 01 00 	mov    0x14432(%rip),%rax        # 2ab40 <g_2467>
   1670e:	0f b6 00             	movzbl (%rax),%eax
   16711:	0f be c0             	movsbl %al,%eax
   16714:	39 c2                	cmp    %eax,%edx
   16716:	7c 07                	jl     1671f <func_10+0x4247>
   16718:	b8 01 00 00 00       	mov    $0x1,%eax
   1671d:	eb 05                	jmp    16724 <func_10+0x424c>
   1671f:	b8 00 00 00 00       	mov    $0x0,%eax
   16724:	0f b6 c0             	movzbl %al,%eax
   16727:	be 06 00 00 00       	mov    $0x6,%esi
   1672c:	89 c7                	mov    %eax,%edi
   1672e:	e8 5a 75 ff ff       	callq  dc8d <safe_rshift_func_uint8_t_u_s>
   16733:	32 85 92 e2 ff ff    	xor    -0x1d6e(%rbp),%al
   16739:	83 f0 ca             	xor    $0xffffffca,%eax
   1673c:	0f be d0             	movsbl %al,%edx
   1673f:	48 8b 05 fa 43 01 00 	mov    0x143fa(%rip),%rax        # 2ab40 <g_2467>
   16746:	0f b6 00             	movzbl (%rax),%eax
   16749:	0f be c0             	movsbl %al,%eax
   1674c:	89 d6                	mov    %edx,%esi
   1674e:	89 c7                	mov    %eax,%edi
   16750:	e8 7f 6a ff ff       	callq  d1d4 <safe_add_func_int8_t_s_s>
   16755:	48 8b 85 80 e3 ff ff 	mov    -0x1c80(%rbp),%rax
   1675c:	8b 00                	mov    (%rax),%eax
   1675e:	0f b7 c0             	movzwl %ax,%eax
   16761:	be 08 00 00 00       	mov    $0x8,%esi
   16766:	89 c7                	mov    %eax,%edi
   16768:	e8 51 76 ff ff       	callq  ddbe <safe_lshift_func_uint16_t_u_s>
   1676d:	98                   	cwtl   
   1676e:	be d2 80 ff ff       	mov    $0xffff80d2,%esi
   16773:	89 c7                	mov    %eax,%edi
   16775:	e8 9c 6c ff ff       	callq  d416 <safe_mod_func_int16_t_s_s>
   1677a:	0f bf d0             	movswl %ax,%edx
   1677d:	48 8b 85 a0 e4 ff ff 	mov    -0x1b60(%rbp),%rax
   16784:	89 10                	mov    %edx,(%rax)
   16786:	8b 85 e8 e3 ff ff    	mov    -0x1c18(%rbp),%eax
   1678c:	39 85 fc e2 ff ff    	cmp    %eax,-0x1d04(%rbp)
   16792:	0f 95 c0             	setne  %al
   16795:	0f b6 d0             	movzbl %al,%edx
   16798:	48 8b 05 b9 42 01 00 	mov    0x142b9(%rip),%rax        # 2aa58 <g_396>
   1679f:	48 8b 08             	mov    (%rax),%rcx
   167a2:	48 63 d2             	movslq %edx,%rdx
   167a5:	48 8b 05 ac 42 01 00 	mov    0x142ac(%rip),%rax        # 2aa58 <g_396>
   167ac:	48 21 ca             	and    %rcx,%rdx
   167af:	48 89 10             	mov    %rdx,(%rax)
   167b2:	48 8b 00             	mov    (%rax),%rax
   167b5:	48 c7 c6 fd ff ff ff 	mov    $0xfffffffffffffffd,%rsi
   167bc:	48 89 c7             	mov    %rax,%rdi
   167bf:	e8 f0 71 ff ff       	callq  d9b4 <safe_mod_func_int64_t_s_s>
   167c4:	0f b7 c0             	movzwl %ax,%eax
   167c7:	89 de                	mov    %ebx,%esi
   167c9:	89 c7                	mov    %eax,%edi
   167cb:	e8 6d 75 ff ff       	callq  dd3d <safe_mul_func_uint16_t_u_u>
   167d0:	0f b7 c0             	movzwl %ax,%eax
   167d3:	89 c6                	mov    %eax,%esi
   167d5:	bf 01 00 00 00       	mov    $0x1,%edi
   167da:	e8 56 6b ff ff       	callq  d335 <safe_rshift_func_int8_t_s_s>
   167df:	0f be c0             	movsbl %al,%eax
   167e2:	89 85 f8 e2 ff ff    	mov    %eax,-0x1d08(%rbp)
   167e8:	48 8b 05 51 09 01 00 	mov    0x10951(%rip),%rax        # 27140 <g_1126>
   167ef:	0f b7 c0             	movzwl %ax,%eax
   167f2:	be 03 00 00 00       	mov    $0x3,%esi
   167f7:	89 c7                	mov    %eax,%edi
   167f9:	e8 01 75 ff ff       	callq  dcff <safe_add_func_uint16_t_u_u>
   167fe:	0f b7 c0             	movzwl %ax,%eax
   16801:	48 89 05 38 09 01 00 	mov    %rax,0x10938(%rip)        # 27140 <g_1126>
   16808:	48 8b 05 31 09 01 00 	mov    0x10931(%rip),%rax        # 27140 <g_1126>
   1680f:	48 83 f8 1a          	cmp    $0x1a,%rax
   16813:	0f 85 5d fe ff ff    	jne    16676 <func_10+0x419e>
   16819:	48 c7 05 dc 08 01 00 	movq   $0x0,0x108dc(%rip)        # 27100 <g_699>
   16820:	00 00 00 00 
   16824:	90                   	nop
   16825:	48 8b 05 d4 08 01 00 	mov    0x108d4(%rip),%rax        # 27100 <g_699>
   1682c:	48 85 c0             	test   %rax,%rax
   1682f:	7f 0c                	jg     1683d <func_10+0x4365>
   16831:	48 8b 85 80 e2 ff ff 	mov    -0x1d80(%rbp),%rax
   16838:	e9 d6 0d 00 00       	jmpq   17613 <func_10+0x513b>
   1683d:	48 8b 85 80 e3 ff ff 	mov    -0x1c80(%rbp),%rax
   16844:	8b 00                	mov    (%rax),%eax
   16846:	41 89 c5             	mov    %eax,%r13d
   16849:	48 8b 85 80 e3 ff ff 	mov    -0x1c80(%rbp),%rax
   16850:	8b 00                	mov    (%rax),%eax
   16852:	89 c3                	mov    %eax,%ebx
   16854:	48 8b 85 80 e3 ff ff 	mov    -0x1c80(%rbp),%rax
   1685b:	8b 00                	mov    (%rax),%eax
   1685d:	0f b7 c0             	movzwl %ax,%eax
   16860:	be 00 00 00 00       	mov    $0x0,%esi
   16865:	89 c7                	mov    %eax,%edi
   16867:	e8 dc 75 ff ff       	callq  de48 <safe_rshift_func_uint16_t_u_s>
   1686c:	98                   	cwtl   
   1686d:	89 de                	mov    %ebx,%esi
   1686f:	89 c7                	mov    %eax,%edi
   16871:	e8 ed 6c ff ff       	callq  d563 <safe_rshift_func_int16_t_s_u>
   16876:	48 8b 85 80 e3 ff ff 	mov    -0x1c80(%rbp),%rax
   1687d:	8b 00                	mov    (%rax),%eax
   1687f:	0f b7 c0             	movzwl %ax,%eax
   16882:	be 06 00 00 00       	mov    $0x6,%esi
   16887:	89 c7                	mov    %eax,%edi
   16889:	e8 30 75 ff ff       	callq  ddbe <safe_lshift_func_uint16_t_u_s>
   1688e:	66 85 c0             	test   %ax,%ax
   16891:	75 6a                	jne    168fd <func_10+0x4425>
   16893:	48 8b 85 80 e3 ff ff 	mov    -0x1c80(%rbp),%rax
   1689a:	8b 18                	mov    (%rax),%ebx
   1689c:	48 8b 85 80 e3 ff ff 	mov    -0x1c80(%rbp),%rax
   168a3:	8b 00                	mov    (%rax),%eax
   168a5:	0f be c0             	movsbl %al,%eax
   168a8:	be 02 00 00 00       	mov    $0x2,%esi
   168ad:	89 c7                	mov    %eax,%edi
   168af:	e8 81 6a ff ff       	callq  d335 <safe_rshift_func_int8_t_s_s>
   168b4:	48 8b 85 78 e2 ff ff 	mov    -0x1d88(%rbp),%rax
   168bb:	8b 00                	mov    (%rax),%eax
   168bd:	83 f0 09             	xor    $0x9,%eax
   168c0:	0f b6 c0             	movzbl %al,%eax
   168c3:	be 44 00 00 00       	mov    $0x44,%esi
   168c8:	89 c7                	mov    %eax,%edi
   168ca:	e8 c4 72 ff ff       	callq  db93 <safe_mul_func_uint8_t_u_u>
   168cf:	44 0f b6 e0          	movzbl %al,%r12d
   168d3:	be 03 00 00 00       	mov    $0x3,%esi
   168d8:	bf 01 00 00 00       	mov    $0x1,%edi
   168dd:	e8 ab 73 ff ff       	callq  dc8d <safe_rshift_func_uint8_t_u_s>
   168e2:	0f b6 c0             	movzbl %al,%eax
   168e5:	44 89 e6             	mov    %r12d,%esi
   168e8:	89 c7                	mov    %eax,%edi
   168ea:	e8 9e 73 ff ff       	callq  dc8d <safe_rshift_func_uint8_t_u_s>
   168ef:	0f b6 c0             	movzbl %al,%eax
   168f2:	89 de                	mov    %ebx,%esi
   168f4:	89 c7                	mov    %eax,%edi
   168f6:	e8 bb 6c ff ff       	callq  d5b6 <safe_add_func_int32_t_s_s>
   168fb:	85 c0                	test   %eax,%eax
   168fd:	48 8b 85 58 e4 ff ff 	mov    -0x1ba8(%rbp),%rax
   16904:	48 f7 d0             	not    %rax
   16907:	48 c1 e8 3f          	shr    $0x3f,%rax
   1690b:	0f b6 c0             	movzbl %al,%eax
   1690e:	89 c6                	mov    %eax,%esi
   16910:	bf fa ff ff ff       	mov    $0xfffffffa,%edi
   16915:	e8 d8 68 ff ff       	callq  d1f2 <safe_sub_func_int8_t_s_s>
   1691a:	0f be c0             	movsbl %al,%eax
   1691d:	be 04 00 00 00       	mov    $0x4,%esi
   16922:	89 c7                	mov    %eax,%edi
   16924:	e8 c5 69 ff ff       	callq  d2ee <safe_lshift_func_int8_t_s_u>
   16929:	0f be c0             	movsbl %al,%eax
   1692c:	44 89 ee             	mov    %r13d,%esi
   1692f:	89 c7                	mov    %eax,%edi
   16931:	e8 ab 6b ff ff       	callq  d4e1 <safe_lshift_func_int16_t_s_u>
   16936:	66 85 c0             	test   %ax,%ax
   16939:	0f 84 f2 09 00 00    	je     17331 <func_10+0x4e59>
   1693f:	48 8d 05 52 5d 01 00 	lea    0x15d52(%rip),%rax        # 2c698 <g_2958>
   16946:	48 89 85 b8 e3 ff ff 	mov    %rax,-0x1c48(%rbp)
   1694d:	48 c7 85 68 e5 ff ff 	movq   $0x0,-0x1a98(%rbp)
   16954:	00 00 00 00 
   16958:	48 8d 05 29 07 01 00 	lea    0x10729(%rip),%rax        # 27088 <g_127>
   1695f:	48 89 85 c0 e3 ff ff 	mov    %rax,-0x1c40(%rbp)
   16966:	48 8d 85 c0 e3 ff ff 	lea    -0x1c40(%rbp),%rax
   1696d:	48 89 85 c8 e3 ff ff 	mov    %rax,-0x1c38(%rbp)
   16974:	48 8d 85 c8 e3 ff ff 	lea    -0x1c38(%rbp),%rax
   1697b:	48 89 85 e0 e6 ff ff 	mov    %rax,-0x1920(%rbp)
   16982:	48 8d 85 c8 e3 ff ff 	lea    -0x1c38(%rbp),%rax
   16989:	48 89 85 e8 e6 ff ff 	mov    %rax,-0x1918(%rbp)
   16990:	48 8d 85 c8 e3 ff ff 	lea    -0x1c38(%rbp),%rax
   16997:	48 89 85 f0 e6 ff ff 	mov    %rax,-0x1910(%rbp)
   1699e:	48 8d 85 c8 e3 ff ff 	lea    -0x1c38(%rbp),%rax
   169a5:	48 89 85 f8 e6 ff ff 	mov    %rax,-0x1908(%rbp)
   169ac:	48 8d 85 c8 e3 ff ff 	lea    -0x1c38(%rbp),%rax
   169b3:	48 89 85 00 e7 ff ff 	mov    %rax,-0x1900(%rbp)
   169ba:	48 8d 85 c8 e3 ff ff 	lea    -0x1c38(%rbp),%rax
   169c1:	48 89 85 08 e7 ff ff 	mov    %rax,-0x18f8(%rbp)
   169c8:	48 8d 85 c8 e3 ff ff 	lea    -0x1c38(%rbp),%rax
   169cf:	48 89 85 10 e7 ff ff 	mov    %rax,-0x18f0(%rbp)
   169d6:	48 8d 85 c8 e3 ff ff 	lea    -0x1c38(%rbp),%rax
   169dd:	48 89 85 18 e7 ff ff 	mov    %rax,-0x18e8(%rbp)
   169e4:	48 8d 85 00 e6 ff ff 	lea    -0x1a00(%rbp),%rax
   169eb:	48 89 85 70 e5 ff ff 	mov    %rax,-0x1a90(%rbp)
   169f2:	c7 85 10 e3 ff ff 96 	movl   $0xe438bd96,-0x1cf0(%rbp)
   169f9:	bd 38 e4 
   169fc:	66 c7 85 a6 e2 ff ff 	movw   $0x6479,-0x1d5a(%rbp)
   16a03:	79 64 
   16a05:	c7 85 14 e3 ff ff 05 	movl   $0x5,-0x1cec(%rbp)
   16a0c:	00 00 00 
   16a0f:	c7 85 18 e3 ff ff 33 	movl   $0x1ef26533,-0x1ce8(%rbp)
   16a16:	65 f2 1e 
   16a19:	48 8d 85 e0 f7 ff ff 	lea    -0x820(%rbp),%rax
   16a20:	48 8d 15 39 22 01 00 	lea    0x12239(%rip),%rdx        # 28c60 <g_4462+0x19a0>
   16a27:	b9 c8 00 00 00       	mov    $0xc8,%ecx
   16a2c:	48 89 c7             	mov    %rax,%rdi
   16a2f:	48 89 d6             	mov    %rdx,%rsi
   16a32:	f3 48 a5             	rep movsq %ds:(%rsi),%es:(%rdi)
   16a35:	c6 85 96 e2 ff ff fc 	movb   $0xfc,-0x1d6a(%rbp)
   16a3c:	c7 85 1c e3 ff ff 06 	movl   $0x6,-0x1ce4(%rbp)
   16a43:	00 00 00 
   16a46:	c7 85 b4 e2 ff ff 21 	movl   $0x6e79a921,-0x1d4c(%rbp)
   16a4d:	a9 79 6e 
   16a50:	c7 85 20 e3 ff ff 01 	movl   $0x1,-0x1ce0(%rbp)
   16a57:	00 00 00 
   16a5a:	c7 85 24 e3 ff ff cd 	movl   $0x77f269cd,-0x1cdc(%rbp)
   16a61:	69 f2 77 
   16a64:	c7 85 28 e3 ff ff 05 	movl   $0x5,-0x1cd8(%rbp)
   16a6b:	00 00 00 
   16a6e:	48 8d 85 b0 e2 ff ff 	lea    -0x1d50(%rbp),%rax
   16a75:	48 89 85 d0 e3 ff ff 	mov    %rax,-0x1c30(%rbp)
   16a7c:	48 8d 85 d0 e3 ff ff 	lea    -0x1c30(%rbp),%rax
   16a83:	48 89 85 d8 e3 ff ff 	mov    %rax,-0x1c28(%rbp)
   16a8a:	48 8d 85 d8 e3 ff ff 	lea    -0x1c28(%rbp),%rax
   16a91:	48 89 85 e0 e3 ff ff 	mov    %rax,-0x1c20(%rbp)
   16a98:	48 8d 85 e0 e3 ff ff 	lea    -0x1c20(%rbp),%rax
   16a9f:	48 89 85 78 e5 ff ff 	mov    %rax,-0x1a88(%rbp)
   16aa6:	c7 85 2c e3 ff ff 58 	movl   $0x18bdd558,-0x1cd4(%rbp)
   16aad:	d5 bd 18 
   16ab0:	48 8d 85 20 e6 ff ff 	lea    -0x19e0(%rbp),%rax
   16ab7:	48 83 c0 0c          	add    $0xc,%rax
   16abb:	48 89 85 80 e5 ff ff 	mov    %rax,-0x1a80(%rbp)
   16ac2:	c7 85 30 e3 ff ff 19 	movl   $0x1fc8ef19,-0x1cd0(%rbp)
   16ac9:	ef c8 1f 
   16acc:	c7 85 34 e3 ff ff 01 	movl   $0x1,-0x1ccc(%rbp)
   16ad3:	00 00 00 
   16ad6:	48 8d 05 83 07 01 00 	lea    0x10783(%rip),%rax        # 27260 <g_3270>
   16add:	48 89 85 88 e5 ff ff 	mov    %rax,-0x1a78(%rbp)
   16ae4:	c7 85 e0 e2 ff ff 00 	movl   $0x0,-0x1d20(%rbp)
   16aeb:	00 00 00 
   16aee:	eb 19                	jmp    16b09 <func_10+0x4631>
   16af0:	8b 85 e0 e2 ff ff    	mov    -0x1d20(%rbp),%eax
   16af6:	48 98                	cltq   
   16af8:	66 c7 84 45 e6 e5 ff 	movw   $0x3bee,-0x1a1a(%rbp,%rax,2)
   16aff:	ff ee 3b 
   16b02:	83 85 e0 e2 ff ff 01 	addl   $0x1,-0x1d20(%rbp)
   16b09:	83 bd e0 e2 ff ff 00 	cmpl   $0x0,-0x1d20(%rbp)
   16b10:	7e de                	jle    16af0 <func_10+0x4618>
   16b12:	c7 85 e0 e2 ff ff 00 	movl   $0x0,-0x1d20(%rbp)
   16b19:	00 00 00 
   16b1c:	eb 22                	jmp    16b40 <func_10+0x4668>
   16b1e:	8b 85 e0 e2 ff ff    	mov    -0x1d20(%rbp),%eax
   16b24:	48 98                	cltq   
   16b26:	48 8d 95 e0 e6 ff ff 	lea    -0x1920(%rbp),%rdx
   16b2d:	48 83 c2 38          	add    $0x38,%rdx
   16b31:	48 89 94 c5 00 e6 ff 	mov    %rdx,-0x1a00(%rbp,%rax,8)
   16b38:	ff 
   16b39:	83 85 e0 e2 ff ff 01 	addl   $0x1,-0x1d20(%rbp)
   16b40:	83 bd e0 e2 ff ff 02 	cmpl   $0x2,-0x1d20(%rbp)
   16b47:	7e d5                	jle    16b1e <func_10+0x4646>
   16b49:	c7 85 e0 e2 ff ff 00 	movl   $0x0,-0x1d20(%rbp)
   16b50:	00 00 00 
   16b53:	eb 22                	jmp    16b77 <func_10+0x469f>
   16b55:	8b 85 e0 e2 ff ff    	mov    -0x1d20(%rbp),%eax
   16b5b:	48 98                	cltq   
   16b5d:	48 8d 95 00 e6 ff ff 	lea    -0x1a00(%rbp),%rdx
   16b64:	48 83 c2 08          	add    $0x8,%rdx
   16b68:	48 89 94 c5 80 e8 ff 	mov    %rdx,-0x1780(%rbp,%rax,8)
   16b6f:	ff 
   16b70:	83 85 e0 e2 ff ff 01 	addl   $0x1,-0x1d20(%rbp)
   16b77:	83 bd e0 e2 ff ff 09 	cmpl   $0x9,-0x1d20(%rbp)
   16b7e:	7e d5                	jle    16b55 <func_10+0x467d>
   16b80:	c7 85 e0 e2 ff ff 00 	movl   $0x0,-0x1d20(%rbp)
   16b87:	00 00 00 
   16b8a:	eb 46                	jmp    16bd2 <func_10+0x46fa>
   16b8c:	c7 85 e4 e2 ff ff 00 	movl   $0x0,-0x1d1c(%rbp)
   16b93:	00 00 00 
   16b96:	eb 2a                	jmp    16bc2 <func_10+0x46ea>
   16b98:	8b 85 e4 e2 ff ff    	mov    -0x1d1c(%rbp),%eax
   16b9e:	48 98                	cltq   
   16ba0:	8b 95 e0 e2 ff ff    	mov    -0x1d20(%rbp),%edx
   16ba6:	48 63 d2             	movslq %edx,%rdx
   16ba9:	48 c1 e2 02          	shl    $0x2,%rdx
   16bad:	48 01 d0             	add    %rdx,%rax
   16bb0:	c7 84 85 f0 e5 ff ff 	movl   $0x0,-0x1a10(%rbp,%rax,4)
   16bb7:	00 00 00 00 
   16bbb:	83 85 e4 e2 ff ff 01 	addl   $0x1,-0x1d1c(%rbp)
   16bc2:	83 bd e4 e2 ff ff 03 	cmpl   $0x3,-0x1d1c(%rbp)
   16bc9:	7e cd                	jle    16b98 <func_10+0x46c0>
   16bcb:	83 85 e0 e2 ff ff 01 	addl   $0x1,-0x1d20(%rbp)
   16bd2:	83 bd e0 e2 ff ff 00 	cmpl   $0x0,-0x1d20(%rbp)
   16bd9:	7e b1                	jle    16b8c <func_10+0x46b4>
   16bdb:	c7 85 e0 e2 ff ff 00 	movl   $0x0,-0x1d20(%rbp)
   16be2:	00 00 00 
   16be5:	eb 1a                	jmp    16c01 <func_10+0x4729>
   16be7:	8b 85 e0 e2 ff ff    	mov    -0x1d20(%rbp),%eax
   16bed:	48 98                	cltq   
   16bef:	c7 84 85 20 e6 ff ff 	movl   $0xffffffff,-0x19e0(%rbp,%rax,4)
   16bf6:	ff ff ff ff 
   16bfa:	83 85 e0 e2 ff ff 01 	addl   $0x1,-0x1d20(%rbp)
   16c01:	83 bd e0 e2 ff ff 05 	cmpl   $0x5,-0x1d20(%rbp)
   16c08:	7e dd                	jle    16be7 <func_10+0x470f>
   16c0a:	0f b7 85 e6 e5 ff ff 	movzwl -0x1a1a(%rbp),%eax
   16c11:	48 0f bf c0          	movswq %ax,%rax
   16c15:	48 89 85 08 e8 ff ff 	mov    %rax,-0x17f8(%rbp)
   16c1c:	48 8b 85 88 e3 ff ff 	mov    -0x1c78(%rbp),%rax
   16c23:	48 89 85 68 e5 ff ff 	mov    %rax,-0x1a98(%rbp)
   16c2a:	48 8b 85 b8 e3 ff ff 	mov    -0x1c48(%rbp),%rax
   16c31:	48 39 85 68 e5 ff ff 	cmp    %rax,-0x1a98(%rbp)
   16c38:	0f 95 c0             	setne  %al
   16c3b:	0f b6 d0             	movzbl %al,%edx
   16c3e:	48 8b 05 7b 5c 01 00 	mov    0x15c7b(%rip),%rax        # 2c8c0 <g_3836>
   16c45:	48 89 85 c8 e8 ff ff 	mov    %rax,-0x1738(%rbp)
   16c4c:	48 8b 85 c8 e8 ff ff 	mov    -0x1738(%rbp),%rax
   16c53:	48 89 85 70 e5 ff ff 	mov    %rax,-0x1a90(%rbp)
   16c5a:	48 8b 85 60 e4 ff ff 	mov    -0x1ba0(%rbp),%rax
   16c61:	48 89 85 68 e4 ff ff 	mov    %rax,-0x1b98(%rbp)
   16c68:	48 8b 85 70 e5 ff ff 	mov    -0x1a90(%rbp),%rax
   16c6f:	48 3b 85 68 e4 ff ff 	cmp    -0x1b98(%rbp),%rax
   16c76:	0f 94 c0             	sete   %al
   16c79:	0f b6 c0             	movzbl %al,%eax
   16c7c:	39 c2                	cmp    %eax,%edx
   16c7e:	0f 9d c0             	setge  %al
   16c81:	0f b6 c8             	movzbl %al,%ecx
   16c84:	48 8b 85 80 e3 ff ff 	mov    -0x1c80(%rbp),%rax
   16c8b:	8b 10                	mov    (%rax),%edx
   16c8d:	48 8b 85 80 e3 ff ff 	mov    -0x1c80(%rbp),%rax
   16c94:	21 ca                	and    %ecx,%edx
   16c96:	89 10                	mov    %edx,(%rax)
   16c98:	66 c7 05 07 04 01 00 	movw   $0x0,0x10407(%rip)        # 270a8 <g_174>
   16c9f:	00 00 
   16ca1:	e9 0a 06 00 00       	jmpq   172b0 <func_10+0x4dd8>
   16ca6:	48 8d 05 93 04 01 00 	lea    0x10493(%rip),%rax        # 27140 <g_1126>
   16cad:	48 89 85 e8 e3 ff ff 	mov    %rax,-0x1c18(%rbp)
   16cb4:	48 8d 85 e8 e3 ff ff 	lea    -0x1c18(%rbp),%rax
   16cbb:	48 89 85 f0 e3 ff ff 	mov    %rax,-0x1c10(%rbp)
   16cc2:	48 8d 85 f0 e3 ff ff 	lea    -0x1c10(%rbp),%rax
   16cc9:	48 89 85 f8 e3 ff ff 	mov    %rax,-0x1c08(%rbp)
   16cd0:	48 8d 85 f8 e3 ff ff 	lea    -0x1c08(%rbp),%rax
   16cd7:	48 89 85 00 e4 ff ff 	mov    %rax,-0x1c00(%rbp)
   16cde:	48 8d 85 00 e4 ff ff 	lea    -0x1c00(%rbp),%rax
   16ce5:	48 89 85 90 e5 ff ff 	mov    %rax,-0x1a70(%rbp)
   16cec:	48 8d 05 6d 05 01 00 	lea    0x1056d(%rip),%rax        # 27260 <g_3270>
   16cf3:	48 89 85 98 e5 ff ff 	mov    %rax,-0x1a68(%rbp)
   16cfa:	48 c7 85 08 e4 ff ff 	movq   $0x0,-0x1bf8(%rbp)
   16d01:	00 00 00 00 
   16d05:	48 8d 85 08 e4 ff ff 	lea    -0x1bf8(%rbp),%rax
   16d0c:	48 89 85 60 f0 ff ff 	mov    %rax,-0xfa0(%rbp)
   16d13:	48 8d 85 08 e4 ff ff 	lea    -0x1bf8(%rbp),%rax
   16d1a:	48 89 85 68 f0 ff ff 	mov    %rax,-0xf98(%rbp)
   16d21:	48 8d 85 08 e4 ff ff 	lea    -0x1bf8(%rbp),%rax
   16d28:	48 89 85 70 f0 ff ff 	mov    %rax,-0xf90(%rbp)
   16d2f:	48 8d 85 08 e4 ff ff 	lea    -0x1bf8(%rbp),%rax
   16d36:	48 89 85 78 f0 ff ff 	mov    %rax,-0xf88(%rbp)
   16d3d:	48 8d 85 08 e4 ff ff 	lea    -0x1bf8(%rbp),%rax
   16d44:	48 89 85 80 f0 ff ff 	mov    %rax,-0xf80(%rbp)
   16d4b:	48 8d 85 08 e4 ff ff 	lea    -0x1bf8(%rbp),%rax
   16d52:	48 89 85 88 f0 ff ff 	mov    %rax,-0xf78(%rbp)
   16d59:	48 8d 85 08 e4 ff ff 	lea    -0x1bf8(%rbp),%rax
   16d60:	48 89 85 90 f0 ff ff 	mov    %rax,-0xf70(%rbp)
   16d67:	48 8d 85 08 e4 ff ff 	lea    -0x1bf8(%rbp),%rax
   16d6e:	48 89 85 98 f0 ff ff 	mov    %rax,-0xf68(%rbp)
   16d75:	48 8d 85 08 e4 ff ff 	lea    -0x1bf8(%rbp),%rax
   16d7c:	48 89 85 a0 f0 ff ff 	mov    %rax,-0xf60(%rbp)
   16d83:	48 8d 85 08 e4 ff ff 	lea    -0x1bf8(%rbp),%rax
   16d8a:	48 89 85 a8 f0 ff ff 	mov    %rax,-0xf58(%rbp)
   16d91:	48 8d 85 08 e4 ff ff 	lea    -0x1bf8(%rbp),%rax
   16d98:	48 89 85 b0 f0 ff ff 	mov    %rax,-0xf50(%rbp)
   16d9f:	48 8d 85 08 e4 ff ff 	lea    -0x1bf8(%rbp),%rax
   16da6:	48 89 85 b8 f0 ff ff 	mov    %rax,-0xf48(%rbp)
   16dad:	48 c7 85 c0 f0 ff ff 	movq   $0x0,-0xf40(%rbp)
   16db4:	00 00 00 00 
   16db8:	48 8d 85 08 e4 ff ff 	lea    -0x1bf8(%rbp),%rax
   16dbf:	48 89 85 c8 f0 ff ff 	mov    %rax,-0xf38(%rbp)
   16dc6:	48 8d 85 08 e4 ff ff 	lea    -0x1bf8(%rbp),%rax
   16dcd:	48 89 85 d0 f0 ff ff 	mov    %rax,-0xf30(%rbp)
   16dd4:	48 8d 85 08 e4 ff ff 	lea    -0x1bf8(%rbp),%rax
   16ddb:	48 89 85 d8 f0 ff ff 	mov    %rax,-0xf28(%rbp)
   16de2:	48 8d 85 08 e4 ff ff 	lea    -0x1bf8(%rbp),%rax
   16de9:	48 89 85 e0 f0 ff ff 	mov    %rax,-0xf20(%rbp)
   16df0:	48 8d 85 08 e4 ff ff 	lea    -0x1bf8(%rbp),%rax
   16df7:	48 89 85 e8 f0 ff ff 	mov    %rax,-0xf18(%rbp)
   16dfe:	48 8d 85 08 e4 ff ff 	lea    -0x1bf8(%rbp),%rax
   16e05:	48 89 85 f0 f0 ff ff 	mov    %rax,-0xf10(%rbp)
   16e0c:	48 8d 85 08 e4 ff ff 	lea    -0x1bf8(%rbp),%rax
   16e13:	48 89 85 f8 f0 ff ff 	mov    %rax,-0xf08(%rbp)
   16e1a:	48 8d 85 08 e4 ff ff 	lea    -0x1bf8(%rbp),%rax
   16e21:	48 89 85 00 f1 ff ff 	mov    %rax,-0xf00(%rbp)
   16e28:	48 8d 85 08 e4 ff ff 	lea    -0x1bf8(%rbp),%rax
   16e2f:	48 89 85 08 f1 ff ff 	mov    %rax,-0xef8(%rbp)
   16e36:	48 8d 85 08 e4 ff ff 	lea    -0x1bf8(%rbp),%rax
   16e3d:	48 89 85 10 f1 ff ff 	mov    %rax,-0xef0(%rbp)
   16e44:	48 8d 85 08 e4 ff ff 	lea    -0x1bf8(%rbp),%rax
   16e4b:	48 89 85 18 f1 ff ff 	mov    %rax,-0xee8(%rbp)
   16e52:	48 8d 85 08 e4 ff ff 	lea    -0x1bf8(%rbp),%rax
   16e59:	48 89 85 20 f1 ff ff 	mov    %rax,-0xee0(%rbp)
   16e60:	48 8d 85 08 e4 ff ff 	lea    -0x1bf8(%rbp),%rax
   16e67:	48 89 85 28 f1 ff ff 	mov    %rax,-0xed8(%rbp)
   16e6e:	48 8d 85 08 e4 ff ff 	lea    -0x1bf8(%rbp),%rax
   16e75:	48 89 85 30 f1 ff ff 	mov    %rax,-0xed0(%rbp)
   16e7c:	48 8d 85 08 e4 ff ff 	lea    -0x1bf8(%rbp),%rax
   16e83:	48 89 85 38 f1 ff ff 	mov    %rax,-0xec8(%rbp)
   16e8a:	48 8d 85 08 e4 ff ff 	lea    -0x1bf8(%rbp),%rax
   16e91:	48 89 85 40 f1 ff ff 	mov    %rax,-0xec0(%rbp)
   16e98:	48 8d 85 08 e4 ff ff 	lea    -0x1bf8(%rbp),%rax
   16e9f:	48 89 85 48 f1 ff ff 	mov    %rax,-0xeb8(%rbp)
   16ea6:	48 8d 85 08 e4 ff ff 	lea    -0x1bf8(%rbp),%rax
   16ead:	48 89 85 50 f1 ff ff 	mov    %rax,-0xeb0(%rbp)
   16eb4:	48 8d 85 08 e4 ff ff 	lea    -0x1bf8(%rbp),%rax
   16ebb:	48 89 85 58 f1 ff ff 	mov    %rax,-0xea8(%rbp)
   16ec2:	48 8d 85 08 e4 ff ff 	lea    -0x1bf8(%rbp),%rax
   16ec9:	48 89 85 60 f1 ff ff 	mov    %rax,-0xea0(%rbp)
   16ed0:	48 8d 85 08 e4 ff ff 	lea    -0x1bf8(%rbp),%rax
   16ed7:	48 89 85 68 f1 ff ff 	mov    %rax,-0xe98(%rbp)
   16ede:	48 8d 85 08 e4 ff ff 	lea    -0x1bf8(%rbp),%rax
   16ee5:	48 89 85 70 f1 ff ff 	mov    %rax,-0xe90(%rbp)
   16eec:	48 8d 85 08 e4 ff ff 	lea    -0x1bf8(%rbp),%rax
   16ef3:	48 89 85 78 f1 ff ff 	mov    %rax,-0xe88(%rbp)
   16efa:	48 8d 85 08 e4 ff ff 	lea    -0x1bf8(%rbp),%rax
   16f01:	48 89 85 80 f1 ff ff 	mov    %rax,-0xe80(%rbp)
   16f08:	48 8d 85 08 e4 ff ff 	lea    -0x1bf8(%rbp),%rax
   16f0f:	48 89 85 88 f1 ff ff 	mov    %rax,-0xe78(%rbp)
   16f16:	48 8d 85 08 e4 ff ff 	lea    -0x1bf8(%rbp),%rax
   16f1d:	48 89 85 90 f1 ff ff 	mov    %rax,-0xe70(%rbp)
   16f24:	48 8d 85 08 e4 ff ff 	lea    -0x1bf8(%rbp),%rax
   16f2b:	48 89 85 98 f1 ff ff 	mov    %rax,-0xe68(%rbp)
   16f32:	48 8d 85 08 e4 ff ff 	lea    -0x1bf8(%rbp),%rax
   16f39:	48 89 85 a0 f1 ff ff 	mov    %rax,-0xe60(%rbp)
   16f40:	48 8d 85 08 e4 ff ff 	lea    -0x1bf8(%rbp),%rax
   16f47:	48 89 85 a8 f1 ff ff 	mov    %rax,-0xe58(%rbp)
   16f4e:	48 c7 85 b0 f1 ff ff 	movq   $0x0,-0xe50(%rbp)
   16f55:	00 00 00 00 
   16f59:	48 8d 85 08 e4 ff ff 	lea    -0x1bf8(%rbp),%rax
   16f60:	48 89 85 b8 f1 ff ff 	mov    %rax,-0xe48(%rbp)
   16f67:	48 8d 85 08 e4 ff ff 	lea    -0x1bf8(%rbp),%rax
   16f6e:	48 89 85 c0 f1 ff ff 	mov    %rax,-0xe40(%rbp)
   16f75:	48 8d 85 08 e4 ff ff 	lea    -0x1bf8(%rbp),%rax
   16f7c:	48 89 85 c8 f1 ff ff 	mov    %rax,-0xe38(%rbp)
   16f83:	48 8d 85 08 e4 ff ff 	lea    -0x1bf8(%rbp),%rax
   16f8a:	48 89 85 d0 f1 ff ff 	mov    %rax,-0xe30(%rbp)
   16f91:	48 8d 85 08 e4 ff ff 	lea    -0x1bf8(%rbp),%rax
   16f98:	48 89 85 d8 f1 ff ff 	mov    %rax,-0xe28(%rbp)
   16f9f:	48 8d 85 08 e4 ff ff 	lea    -0x1bf8(%rbp),%rax
   16fa6:	48 89 85 e0 f1 ff ff 	mov    %rax,-0xe20(%rbp)
   16fad:	48 8d 85 08 e4 ff ff 	lea    -0x1bf8(%rbp),%rax
   16fb4:	48 89 85 e8 f1 ff ff 	mov    %rax,-0xe18(%rbp)
   16fbb:	c7 85 38 e3 ff ff 01 	movl   $0xc0acdd01,-0x1cc8(%rbp)
   16fc2:	dd ac c0 
   16fc5:	48 c7 85 a0 e5 ff ff 	movq   $0x0,-0x1a60(%rbp)
   16fcc:	00 00 00 00 
   16fd0:	c6 85 97 e2 ff ff 2e 	movb   $0x2e,-0x1d69(%rbp)
   16fd7:	48 8d 85 e8 e5 ff ff 	lea    -0x1a18(%rbp),%rax
   16fde:	48 83 c0 04          	add    $0x4,%rax
   16fe2:	48 89 85 10 e4 ff ff 	mov    %rax,-0x1bf0(%rbp)
   16fe9:	48 8d 85 10 e4 ff ff 	lea    -0x1bf0(%rbp),%rax
   16ff0:	48 89 85 18 e4 ff ff 	mov    %rax,-0x1be8(%rbp)
   16ff7:	48 8d 85 18 e4 ff ff 	lea    -0x1be8(%rbp),%rax
   16ffe:	48 89 85 a8 e5 ff ff 	mov    %rax,-0x1a58(%rbp)
   17005:	c7 85 3c e3 ff ff fc 	movl   $0xfffffffc,-0x1cc4(%rbp)
   1700c:	ff ff ff 
   1700f:	c7 85 40 e3 ff ff 01 	movl   $0x1,-0x1cc0(%rbp)
   17016:	00 00 00 
   17019:	c7 85 44 e3 ff ff 92 	movl   $0xdb6c7e92,-0x1cbc(%rbp)
   17020:	7e 6c db 
   17023:	c7 85 48 e3 ff ff 04 	movl   $0x4,-0x1cb8(%rbp)
   1702a:	00 00 00 
   1702d:	c7 85 4c e3 ff ff ff 	movl   $0xffffffff,-0x1cb4(%rbp)
   17034:	ff ff ff 
   17037:	c7 85 a0 e6 ff ff fe 	movl   $0xfffffffe,-0x1960(%rbp)
   1703e:	ff ff ff 
   17041:	c7 85 a4 e6 ff ff fe 	movl   $0xfffffffe,-0x195c(%rbp)
   17048:	ff ff ff 
   1704b:	c7 85 a8 e6 ff ff fe 	movl   $0xfffffffe,-0x1958(%rbp)
   17052:	ff ff ff 
   17055:	c7 85 ac e6 ff ff fe 	movl   $0xfffffffe,-0x1954(%rbp)
   1705c:	ff ff ff 
   1705f:	c7 85 b0 e6 ff ff fe 	movl   $0xfffffffe,-0x1950(%rbp)
   17066:	ff ff ff 
   17069:	c7 85 b4 e6 ff ff fe 	movl   $0xfffffffe,-0x194c(%rbp)
   17070:	ff ff ff 
   17073:	c7 85 b8 e6 ff ff fe 	movl   $0xfffffffe,-0x1948(%rbp)
   1707a:	ff ff ff 
   1707d:	48 8d 05 54 58 01 00 	lea    0x15854(%rip),%rax        # 2c8d8 <g_3964+0x8>
   17084:	48 89 85 b0 e5 ff ff 	mov    %rax,-0x1a50(%rbp)
   1708b:	c7 85 50 e3 ff ff 04 	movl   $0x42050804,-0x1cb0(%rbp)
   17092:	08 05 42 
   17095:	c7 85 54 e3 ff ff 17 	movl   $0x7b6a7617,-0x1cac(%rbp)
   1709c:	76 6a 7b 
   1709f:	48 c7 85 b8 e5 ff ff 	movq   $0x0,-0x1a48(%rbp)
   170a6:	00 00 00 00 
   170aa:	c7 85 58 e3 ff ff ec 	movl   $0xf0958aec,-0x1ca8(%rbp)
   170b1:	8a 95 f0 
   170b4:	48 c7 85 c0 e5 ff ff 	movq   $0x0,-0x1a40(%rbp)
   170bb:	00 00 00 00 
   170bf:	48 c7 85 c8 e5 ff ff 	movq   $0x0,-0x1a38(%rbp)
   170c6:	00 00 00 00 
   170ca:	48 8d 85 e6 e5 ff ff 	lea    -0x1a1a(%rbp),%rax
   170d1:	48 89 85 d0 e5 ff ff 	mov    %rax,-0x1a30(%rbp)
   170d8:	48 8d 85 b8 e3 ff ff 	lea    -0x1c48(%rbp),%rax
   170df:	48 89 85 d8 e5 ff ff 	mov    %rax,-0x1a28(%rbp)
   170e6:	48 8d 05 a3 00 01 00 	lea    0x100a3(%rip),%rax        # 27190 <g_2686>
   170ed:	48 89 85 40 ea ff ff 	mov    %rax,-0x15c0(%rbp)
   170f4:	48 8d 05 95 00 01 00 	lea    0x10095(%rip),%rax        # 27190 <g_2686>
   170fb:	48 89 85 48 ea ff ff 	mov    %rax,-0x15b8(%rbp)
   17102:	48 8d 05 87 00 01 00 	lea    0x10087(%rip),%rax        # 27190 <g_2686>
   17109:	48 89 85 50 ea ff ff 	mov    %rax,-0x15b0(%rbp)
   17110:	48 8d 05 dd ff 00 00 	lea    0xffdd(%rip),%rax        # 270f4 <g_525>
   17117:	48 89 85 58 ea ff ff 	mov    %rax,-0x15a8(%rbp)
   1711e:	48 8d 05 83 ff 00 00 	lea    0xff83(%rip),%rax        # 270a8 <g_174>
   17125:	48 89 85 60 ea ff ff 	mov    %rax,-0x15a0(%rbp)
   1712c:	48 8d 05 c1 ff 00 00 	lea    0xffc1(%rip),%rax        # 270f4 <g_525>
   17133:	48 89 85 68 ea ff ff 	mov    %rax,-0x1598(%rbp)
   1713a:	48 8d 05 4f 00 01 00 	lea    0x1004f(%rip),%rax        # 27190 <g_2686>
   17141:	48 89 85 70 ea ff ff 	mov    %rax,-0x1590(%rbp)
   17148:	48 8d 05 41 00 01 00 	lea    0x10041(%rip),%rax        # 27190 <g_2686>
   1714f:	48 89 85 78 ea ff ff 	mov    %rax,-0x1588(%rbp)
   17156:	48 8d 05 33 00 01 00 	lea    0x10033(%rip),%rax        # 27190 <g_2686>
   1715d:	48 89 85 80 ea ff ff 	mov    %rax,-0x1580(%rbp)
   17164:	48 8d 05 89 ff 00 00 	lea    0xff89(%rip),%rax        # 270f4 <g_525>
   1716b:	48 89 85 88 ea ff ff 	mov    %rax,-0x1578(%rbp)
   17172:	48 8d 05 2f ff 00 00 	lea    0xff2f(%rip),%rax        # 270a8 <g_174>
   17179:	48 89 85 90 ea ff ff 	mov    %rax,-0x1570(%rbp)
   17180:	48 8d 05 6d ff 00 00 	lea    0xff6d(%rip),%rax        # 270f4 <g_525>
   17187:	48 89 85 98 ea ff ff 	mov    %rax,-0x1568(%rbp)
   1718e:	48 8d 05 fb ff 00 00 	lea    0xfffb(%rip),%rax        # 27190 <g_2686>
   17195:	48 89 85 a0 ea ff ff 	mov    %rax,-0x1560(%rbp)
   1719c:	48 8d 05 ed ff 00 00 	lea    0xffed(%rip),%rax        # 27190 <g_2686>
   171a3:	48 89 85 a8 ea ff ff 	mov    %rax,-0x1558(%rbp)
   171aa:	48 8d 05 df ff 00 00 	lea    0xffdf(%rip),%rax        # 27190 <g_2686>
   171b1:	48 89 85 b0 ea ff ff 	mov    %rax,-0x1550(%rbp)
   171b8:	48 8d 05 35 ff 00 00 	lea    0xff35(%rip),%rax        # 270f4 <g_525>
   171bf:	48 89 85 b8 ea ff ff 	mov    %rax,-0x1548(%rbp)
   171c6:	48 8d 05 db fe 00 00 	lea    0xfedb(%rip),%rax        # 270a8 <g_174>
   171cd:	48 89 85 c0 ea ff ff 	mov    %rax,-0x1540(%rbp)
   171d4:	48 8d 05 19 ff 00 00 	lea    0xff19(%rip),%rax        # 270f4 <g_525>
   171db:	48 89 85 c8 ea ff ff 	mov    %rax,-0x1538(%rbp)
   171e2:	48 8d 05 a7 ff 00 00 	lea    0xffa7(%rip),%rax        # 27190 <g_2686>
   171e9:	48 89 85 d0 ea ff ff 	mov    %rax,-0x1530(%rbp)
   171f0:	48 8d 05 99 ff 00 00 	lea    0xff99(%rip),%rax        # 27190 <g_2686>
   171f7:	48 89 85 d8 ea ff ff 	mov    %rax,-0x1528(%rbp)
   171fe:	48 8d 05 8b ff 00 00 	lea    0xff8b(%rip),%rax        # 27190 <g_2686>
   17205:	48 89 85 e0 ea ff ff 	mov    %rax,-0x1520(%rbp)
   1720c:	48 8d 05 e1 fe 00 00 	lea    0xfee1(%rip),%rax        # 270f4 <g_525>
   17213:	48 89 85 e8 ea ff ff 	mov    %rax,-0x1518(%rbp)
   1721a:	48 8d 05 87 fe 00 00 	lea    0xfe87(%rip),%rax        # 270a8 <g_174>
   17221:	48 89 85 f0 ea ff ff 	mov    %rax,-0x1510(%rbp)
   17228:	48 8d 05 c5 fe 00 00 	lea    0xfec5(%rip),%rax        # 270f4 <g_525>
   1722f:	48 89 85 f8 ea ff ff 	mov    %rax,-0x1508(%rbp)
   17236:	48 8d 05 53 ff 00 00 	lea    0xff53(%rip),%rax        # 27190 <g_2686>
   1723d:	48 89 85 00 eb ff ff 	mov    %rax,-0x1500(%rbp)
   17244:	48 8d 05 45 ff 00 00 	lea    0xff45(%rip),%rax        # 27190 <g_2686>
   1724b:	48 89 85 08 eb ff ff 	mov    %rax,-0x14f8(%rbp)
   17252:	48 8d 05 37 ff 00 00 	lea    0xff37(%rip),%rax        # 27190 <g_2686>
   17259:	48 89 85 10 eb ff ff 	mov    %rax,-0x14f0(%rbp)
   17260:	c7 85 e8 e2 ff ff 00 	movl   $0x0,-0x1d18(%rbp)
   17267:	00 00 00 
   1726a:	eb 1e                	jmp    1728a <func_10+0x4db2>
   1726c:	8b 85 e8 e2 ff ff    	mov    -0x1d18(%rbp),%eax
   17272:	48 98                	cltq   
   17274:	48 8d 15 5d 4b 01 00 	lea    0x14b5d(%rip),%rdx        # 2bdd8 <g_4093+0x118>
   1727b:	48 89 94 c5 60 e6 ff 	mov    %rdx,-0x19a0(%rbp,%rax,8)
   17282:	ff 
   17283:	83 85 e8 e2 ff ff 01 	addl   $0x1,-0x1d18(%rbp)
   1728a:	83 bd e8 e2 ff ff 02 	cmpl   $0x2,-0x1d18(%rbp)
   17291:	7e d9                	jle    1726c <func_10+0x4d94>
   17293:	0f b7 05 0e fe 00 00 	movzwl 0xfe0e(%rip),%eax        # 270a8 <g_174>
   1729a:	0f b7 c0             	movzwl %ax,%eax
   1729d:	be 08 00 00 00       	mov    $0x8,%esi
   172a2:	89 c7                	mov    %eax,%edi
   172a4:	e8 56 6a ff ff       	callq  dcff <safe_add_func_uint16_t_u_u>
   172a9:	66 89 05 f8 fd 00 00 	mov    %ax,0xfdf8(%rip)        # 270a8 <g_174>
   172b0:	0f b7 05 f1 fd 00 00 	movzwl 0xfdf1(%rip),%eax        # 270a8 <g_174>
   172b7:	66 83 f8 0d          	cmp    $0xd,%ax
   172bb:	0f 8e e5 f9 ff ff    	jle    16ca6 <func_10+0x47ce>
   172c1:	8b 85 30 e3 ff ff    	mov    -0x1cd0(%rbp),%eax
   172c7:	3b 85 34 e3 ff ff    	cmp    -0x1ccc(%rbp),%eax
   172cd:	0f 96 c0             	setbe  %al
   172d0:	0f b6 c0             	movzbl %al,%eax
   172d3:	be 56 e8 00 00       	mov    $0xe856,%esi
   172d8:	89 c7                	mov    %eax,%edi
   172da:	e8 7d 6a ff ff       	callq  dd5c <safe_mod_func_uint16_t_u_u>
   172df:	48 8d 85 ac e2 ff ff 	lea    -0x1d54(%rbp),%rax
   172e6:	48 89 85 88 e5 ff ff 	mov    %rax,-0x1a78(%rbp)
   172ed:	48 8b 85 80 e5 ff ff 	mov    -0x1a80(%rbp),%rax
   172f4:	8b 00                	mov    (%rax),%eax
   172f6:	89 c1                	mov    %eax,%ecx
   172f8:	48 8b 95 88 e5 ff ff 	mov    -0x1a78(%rbp),%rdx
   172ff:	48 8d 85 b4 e2 ff ff 	lea    -0x1d4c(%rbp),%rax
   17306:	89 ce                	mov    %ecx,%esi
   17308:	48 89 c7             	mov    %rax,%rdi
   1730b:	e8 87 4a 00 00       	callq  1bd97 <func_26>
   17310:	48 89 c2             	mov    %rax,%rdx
   17313:	48 8b 85 80 e2 ff ff 	mov    -0x1d80(%rbp),%rax
   1731a:	48 89 d6             	mov    %rdx,%rsi
   1731d:	48 89 c7             	mov    %rax,%rdi
   17320:	e8 71 66 00 00       	callq  1d996 <func_45>
   17325:	48 89 85 88 e2 ff ff 	mov    %rax,-0x1d78(%rbp)
   1732c:	e9 74 02 00 00       	jmpq   175a5 <func_10+0x50cd>
   17331:	48 8d 05 0c fd 00 00 	lea    0xfd0c(%rip),%rax        # 27044 <g_25+0x4>
   17338:	48 89 85 60 e5 ff ff 	mov    %rax,-0x1aa0(%rbp)
   1733f:	48 8d 85 10 ed ff ff 	lea    -0x12f0(%rbp),%rax
   17346:	48 05 f4 02 00 00    	add    $0x2f4,%rax
   1734c:	48 89 85 e0 f7 ff ff 	mov    %rax,-0x820(%rbp)
   17353:	48 8d 05 06 ff 00 00 	lea    0xff06(%rip),%rax        # 27260 <g_3270>
   1735a:	48 89 85 e8 f7 ff ff 	mov    %rax,-0x818(%rbp)
   17361:	48 8d 85 10 ed ff ff 	lea    -0x12f0(%rbp),%rax
   17368:	48 05 f4 02 00 00    	add    $0x2f4,%rax
   1736e:	48 89 85 f0 f7 ff ff 	mov    %rax,-0x810(%rbp)
   17375:	48 c7 85 f8 f7 ff ff 	movq   $0x0,-0x808(%rbp)
   1737c:	00 00 00 00 
   17380:	48 8d 85 a8 e2 ff ff 	lea    -0x1d58(%rbp),%rax
   17387:	48 89 85 00 f8 ff ff 	mov    %rax,-0x800(%rbp)
   1738e:	48 8d 85 a8 e2 ff ff 	lea    -0x1d58(%rbp),%rax
   17395:	48 89 85 08 f8 ff ff 	mov    %rax,-0x7f8(%rbp)
   1739c:	48 8d 85 a8 e2 ff ff 	lea    -0x1d58(%rbp),%rax
   173a3:	48 89 85 10 f8 ff ff 	mov    %rax,-0x7f0(%rbp)
   173aa:	48 8d 05 af fe 00 00 	lea    0xfeaf(%rip),%rax        # 27260 <g_3270>
   173b1:	48 89 85 18 f8 ff ff 	mov    %rax,-0x7e8(%rbp)
   173b8:	48 8d 85 a8 e2 ff ff 	lea    -0x1d58(%rbp),%rax
   173bf:	48 89 85 20 f8 ff ff 	mov    %rax,-0x7e0(%rbp)
   173c6:	48 c7 85 28 f8 ff ff 	movq   $0x0,-0x7d8(%rbp)
   173cd:	00 00 00 00 
   173d1:	48 c7 85 30 f8 ff ff 	movq   $0x0,-0x7d0(%rbp)
   173d8:	00 00 00 00 
   173dc:	48 8d 85 a8 e2 ff ff 	lea    -0x1d58(%rbp),%rax
   173e3:	48 89 85 38 f8 ff ff 	mov    %rax,-0x7c8(%rbp)
   173ea:	48 8d 85 10 ed ff ff 	lea    -0x12f0(%rbp),%rax
   173f1:	48 05 f4 02 00 00    	add    $0x2f4,%rax
   173f7:	48 89 85 40 f8 ff ff 	mov    %rax,-0x7c0(%rbp)
   173fe:	48 8d 05 5b fe 00 00 	lea    0xfe5b(%rip),%rax        # 27260 <g_3270>
   17405:	48 89 85 48 f8 ff ff 	mov    %rax,-0x7b8(%rbp)
   1740c:	48 8d 85 10 ed ff ff 	lea    -0x12f0(%rbp),%rax
   17413:	48 05 f4 02 00 00    	add    $0x2f4,%rax
   17419:	48 89 85 50 f8 ff ff 	mov    %rax,-0x7b0(%rbp)
   17420:	48 c7 85 58 f8 ff ff 	movq   $0x0,-0x7a8(%rbp)
   17427:	00 00 00 00 
   1742b:	48 8d 85 a8 e2 ff ff 	lea    -0x1d58(%rbp),%rax
   17432:	48 89 85 60 f8 ff ff 	mov    %rax,-0x7a0(%rbp)
   17439:	48 8d 85 a8 e2 ff ff 	lea    -0x1d58(%rbp),%rax
   17440:	48 89 85 68 f8 ff ff 	mov    %rax,-0x798(%rbp)
   17447:	48 8d 85 a8 e2 ff ff 	lea    -0x1d58(%rbp),%rax
   1744e:	48 89 85 70 f8 ff ff 	mov    %rax,-0x790(%rbp)
   17455:	48 8d 05 04 fe 00 00 	lea    0xfe04(%rip),%rax        # 27260 <g_3270>
   1745c:	48 89 85 78 f8 ff ff 	mov    %rax,-0x788(%rbp)
   17463:	48 8d 85 a8 e2 ff ff 	lea    -0x1d58(%rbp),%rax
   1746a:	48 89 85 80 f8 ff ff 	mov    %rax,-0x780(%rbp)
   17471:	48 b8 01 01 01 01 01 	movabs $0x101010101010101,%rax
   17478:	01 01 01 
   1747b:	48 89 45 ce          	mov    %rax,-0x32(%rbp)
   1747f:	66 c7 45 d6 01 01    	movw   $0x101,-0x2a(%rbp)
   17485:	c6 85 95 e2 ff ff 5d 	movb   $0x5d,-0x1d6b(%rbp)
   1748c:	c7 85 ec e2 ff ff 00 	movl   $0x0,-0x1d14(%rbp)
   17493:	00 00 00 
   17496:	eb 14                	jmp    174ac <func_10+0x4fd4>
   17498:	8b 85 ec e2 ff ff    	mov    -0x1d14(%rbp),%eax
   1749e:	48 98                	cltq   
   174a0:	c6 44 05 c6 00       	movb   $0x0,-0x3a(%rbp,%rax,1)
   174a5:	83 85 ec e2 ff ff 01 	addl   $0x1,-0x1d14(%rbp)
   174ac:	83 bd ec e2 ff ff 07 	cmpl   $0x7,-0x1d14(%rbp)
   174b3:	7e e3                	jle    17498 <func_10+0x4fc0>
   174b5:	0f b6 45 d5          	movzbl -0x2b(%rbp),%eax
   174b9:	83 e8 01             	sub    $0x1,%eax
   174bc:	88 45 d5             	mov    %al,-0x2b(%rbp)
   174bf:	44 0f be ad 95 e2 ff 	movsbl -0x1d6b(%rbp),%r13d
   174c6:	ff 
   174c7:	48 83 bd 90 e4 ff ff 	cmpq   $0x0,-0x1b70(%rbp)
   174ce:	00 
   174cf:	0f 95 c0             	setne  %al
   174d2:	44 0f b6 e0          	movzbl %al,%r12d
   174d6:	48 8b 85 80 e4 ff ff 	mov    -0x1b80(%rbp),%rax
   174dd:	8b 00                	mov    (%rax),%eax
   174df:	48 63 d8             	movslq %eax,%rbx
   174e2:	48 8b 85 60 e5 ff ff 	mov    -0x1aa0(%rbp),%rax
   174e9:	8b 00                	mov    (%rax),%eax
   174eb:	0f b6 c0             	movzbl %al,%eax
   174ee:	89 c6                	mov    %eax,%esi
   174f0:	bf 00 00 00 00       	mov    $0x0,%edi
   174f5:	e8 99 66 ff ff       	callq  db93 <safe_mul_func_uint8_t_u_u>
   174fa:	0f b6 c0             	movzbl %al,%eax
   174fd:	48 89 de             	mov    %rbx,%rsi
   17500:	48 89 c7             	mov    %rax,%rdi
   17503:	e8 a0 63 ff ff       	callq  d8a8 <safe_sub_func_int64_t_s_s>
   17508:	48 8b 85 60 e5 ff ff 	mov    -0x1aa0(%rbp),%rax
   1750f:	8b 00                	mov    (%rax),%eax
   17511:	0f b6 c0             	movzbl %al,%eax
   17514:	be f5 00 00 00       	mov    $0xf5,%esi
   17519:	89 c7                	mov    %eax,%edi
   1751b:	e8 58 66 ff ff       	callq  db78 <safe_sub_func_uint8_t_u_u>
   17520:	84 c0                	test   %al,%al
   17522:	74 0b                	je     1752f <func_10+0x5057>
   17524:	48 8b 85 60 e5 ff ff 	mov    -0x1aa0(%rbp),%rax
   1752b:	8b 00                	mov    (%rax),%eax
   1752d:	85 c0                	test   %eax,%eax
   1752f:	be 01 00 00 00       	mov    $0x1,%esi
   17534:	bf fd 00 00 00       	mov    $0xfd,%edi
   17539:	e8 55 66 ff ff       	callq  db93 <safe_mul_func_uint8_t_u_u>
   1753e:	84 c0                	test   %al,%al
   17540:	74 07                	je     17549 <func_10+0x5071>
   17542:	b8 01 00 00 00       	mov    $0x1,%eax
   17547:	eb 05                	jmp    1754e <func_10+0x5076>
   17549:	b8 00 00 00 00       	mov    $0x0,%eax
   1754e:	48 98                	cltq   
   17550:	be 01 00 00 00       	mov    $0x1,%esi
   17555:	48 89 c7             	mov    %rax,%rdi
   17558:	e8 e4 62 ff ff       	callq  d841 <safe_add_func_int64_t_s_s>
   1755d:	48 8b 95 80 e3 ff ff 	mov    -0x1c80(%rbp),%rdx
   17564:	8b 12                	mov    (%rdx),%edx
   17566:	48 63 d2             	movslq %edx,%rdx
   17569:	48 39 d0             	cmp    %rdx,%rax
   1756c:	0f 9d c0             	setge  %al
   1756f:	0f b6 d0             	movzbl %al,%edx
   17572:	48 8b 85 60 e5 ff ff 	mov    -0x1aa0(%rbp),%rax
   17579:	8b 00                	mov    (%rax),%eax
   1757b:	09 d0                	or     %edx,%eax
   1757d:	48 98                	cltq   
   1757f:	48 89 85 98 e4 ff ff 	mov    %rax,-0x1b68(%rbp)
   17586:	4c 39 a5 98 e4 ff ff 	cmp    %r12,-0x1b68(%rbp)
   1758d:	0f 9c c0             	setl   %al
   17590:	0f b6 c0             	movzbl %al,%eax
   17593:	41 39 c5             	cmp    %eax,%r13d
   17596:	0f 95 c0             	setne  %al
   17599:	0f b6 d0             	movzbl %al,%edx
   1759c:	48 8b 85 80 e4 ff ff 	mov    -0x1b80(%rbp),%rax
   175a3:	89 10                	mov    %edx,(%rax)
   175a5:	c7 05 ed fc 00 00 00 	movl   $0x0,0xfced(%rip)        # 2729c <g_3777>
   175ac:	00 00 00 
   175af:	eb 50                	jmp    17601 <func_10+0x5129>
   175b1:	c7 85 5c e3 ff ff 97 	movl   $0xc74b2c97,-0x1ca4(%rbp)
   175b8:	2c 4b c7 
   175bb:	8b 85 5c e3 ff ff    	mov    -0x1ca4(%rbp),%eax
   175c1:	35 ff ff 00 00       	xor    $0xffff,%eax
   175c6:	39 85 5c e3 ff ff    	cmp    %eax,-0x1ca4(%rbp)
   175cc:	0f 96 c0             	setbe  %al
   175cf:	0f b6 c0             	movzbl %al,%eax
   175d2:	0b 85 5c e3 ff ff    	or     -0x1ca4(%rbp),%eax
   175d8:	89 c2                	mov    %eax,%edx
   175da:	48 8b 85 80 e4 ff ff 	mov    -0x1b80(%rbp),%rax
   175e1:	89 10                	mov    %edx,(%rax)
   175e3:	8b 05 b3 fc 00 00    	mov    0xfcb3(%rip),%eax        # 2729c <g_3777>
   175e9:	0f b7 c0             	movzwl %ax,%eax
   175ec:	be 06 00 00 00       	mov    $0x6,%esi
   175f1:	89 c7                	mov    %eax,%edi
   175f3:	e8 27 67 ff ff       	callq  dd1f <safe_sub_func_uint16_t_u_u>
   175f8:	0f b7 c0             	movzwl %ax,%eax
   175fb:	89 05 9b fc 00 00    	mov    %eax,0xfc9b(%rip)        # 2729c <g_3777>
   17601:	8b 05 95 fc 00 00    	mov    0xfc95(%rip),%eax        # 2729c <g_3777>
   17607:	83 f8 ed             	cmp    $0xffffffed,%eax
   1760a:	74 a5                	je     175b1 <func_10+0x50d9>
   1760c:	48 8b 85 80 e2 ff ff 	mov    -0x1d80(%rbp),%rax
   17613:	48 8b 5d d8          	mov    -0x28(%rbp),%rbx
   17617:	64 48 33 1c 25 28 00 	xor    %fs:0x28,%rbx
   1761e:	00 00 
   17620:	74 05                	je     17627 <func_10+0x514f>
   17622:	e8 49 5a ff ff       	callq  d070 <__stack_chk_fail@plt>
   17627:	48 81 c4 70 1d 00 00 	add    $0x1d70,%rsp
   1762e:	5b                   	pop    %rbx
   1762f:	41 5c                	pop    %r12
   17631:	41 5d                	pop    %r13
   17633:	41 5e                	pop    %r14
   17635:	5d                   	pop    %rbp
   17636:	c3                   	retq   

0000000000017637 <func_15>:
   17637:	f3 0f 1e fa          	endbr64 
   1763b:	55                   	push   %rbp
   1763c:	48 89 e5             	mov    %rsp,%rbp
   1763f:	41 57                	push   %r15
   17641:	41 56                	push   %r14
   17643:	41 55                	push   %r13
   17645:	41 54                	push   %r12
   17647:	53                   	push   %rbx
   17648:	48 81 ec 00 10 00 00 	sub    $0x1000,%rsp
   1764f:	48 83 0c 24 00       	orq    $0x0,(%rsp)
   17654:	48 81 ec d8 06 00 00 	sub    $0x6d8,%rsp
   1765b:	48 89 bd 38 e9 ff ff 	mov    %rdi,-0x16c8(%rbp)
   17662:	48 89 b5 30 e9 ff ff 	mov    %rsi,-0x16d0(%rbp)
   17669:	48 89 95 28 e9 ff ff 	mov    %rdx,-0x16d8(%rbp)
   17670:	89 8d 24 e9 ff ff    	mov    %ecx,-0x16dc(%rbp)
   17676:	4c 89 85 18 e9 ff ff 	mov    %r8,-0x16e8(%rbp)
   1767d:	64 48 8b 04 25 28 00 	mov    %fs:0x28,%rax
   17684:	00 00 
   17686:	48 89 45 c8          	mov    %rax,-0x38(%rbp)
   1768a:	31 c0                	xor    %eax,%eax
   1768c:	c7 85 74 e9 ff ff 6d 	movl   $0x87b6906d,-0x168c(%rbp)
   17693:	90 b6 87 
   17696:	48 8d 05 57 fa 00 00 	lea    0xfa57(%rip),%rax        # 270f4 <g_525>
   1769d:	48 89 85 60 eb ff ff 	mov    %rax,-0x14a0(%rbp)
   176a4:	c7 85 5c e9 ff ff 00 	movl   $0x0,-0x16a4(%rbp)
   176ab:	00 00 00 
   176ae:	48 8d 05 4b fa 00 00 	lea    0xfa4b(%rip),%rax        # 27100 <g_699>
   176b5:	48 89 85 68 eb ff ff 	mov    %rax,-0x1498(%rbp)
   176bc:	c7 85 60 e9 ff ff 57 	movl   $0x56619157,-0x16a0(%rbp)
   176c3:	91 61 56 
   176c6:	c7 85 a0 ed ff ff b0 	movl   $0x229413b0,-0x1260(%rbp)
   176cd:	13 94 22 
   176d0:	c7 85 a4 ed ff ff b0 	movl   $0x229413b0,-0x125c(%rbp)
   176d7:	13 94 22 
   176da:	c7 85 a8 ed ff ff 08 	movl   $0x8,-0x1258(%rbp)
   176e1:	00 00 00 
   176e4:	c7 85 ac ed ff ff b0 	movl   $0x229413b0,-0x1254(%rbp)
   176eb:	13 94 22 
   176ee:	c7 85 b0 ed ff ff b0 	movl   $0x229413b0,-0x1250(%rbp)
   176f5:	13 94 22 
   176f8:	c7 85 b4 ed ff ff 08 	movl   $0x8,-0x124c(%rbp)
   176ff:	00 00 00 
   17702:	c7 85 b8 ed ff ff b0 	movl   $0x229413b0,-0x1248(%rbp)
   17709:	13 94 22 
   1770c:	c7 85 bc ed ff ff b0 	movl   $0x229413b0,-0x1244(%rbp)
   17713:	13 94 22 
   17716:	48 8d 05 07 fa 00 00 	lea    0xfa07(%rip),%rax        # 27124 <g_899+0x14>
   1771d:	48 89 85 78 eb ff ff 	mov    %rax,-0x1488(%rbp)
   17724:	48 8d 05 7d 33 01 00 	lea    0x1337d(%rip),%rax        # 2aaa8 <g_1042>
   1772b:	48 89 85 b8 ea ff ff 	mov    %rax,-0x1548(%rbp)
   17732:	c7 85 b0 e9 ff ff 00 	movl   $0x0,-0x1650(%rbp)
   17739:	00 00 00 
   1773c:	48 8d 85 60 f1 ff ff 	lea    -0xea0(%rbp),%rax
   17743:	48 8d 15 56 1b 01 00 	lea    0x11b56(%rip),%rdx        # 292a0 <g_4462+0x1fe0>
   1774a:	b9 2d 00 00 00       	mov    $0x2d,%ecx
   1774f:	48 89 c7             	mov    %rax,%rdi
   17752:	48 89 d6             	mov    %rdx,%rsi
   17755:	f3 48 a5             	rep movsq %ds:(%rsi),%es:(%rdi)
   17758:	48 8d 85 60 f1 ff ff 	lea    -0xea0(%rbp),%rax
   1775f:	48 83 e8 80          	sub    $0xffffffffffffff80,%rax
   17763:	48 89 85 60 ee ff ff 	mov    %rax,-0x11a0(%rbp)
   1776a:	48 c7 85 68 ee ff ff 	movq   $0x0,-0x1198(%rbp)
   17771:	00 00 00 00 
   17775:	48 8d 85 60 f1 ff ff 	lea    -0xea0(%rbp),%rax
   1777c:	48 83 e8 80          	sub    $0xffffffffffffff80,%rax
   17780:	48 89 85 70 ee ff ff 	mov    %rax,-0x1190(%rbp)
   17787:	48 8d 85 60 f1 ff ff 	lea    -0xea0(%rbp),%rax
   1778e:	48 83 e8 80          	sub    $0xffffffffffffff80,%rax
   17792:	48 89 85 78 ee ff ff 	mov    %rax,-0x1188(%rbp)
   17799:	48 c7 85 80 ee ff ff 	movq   $0x0,-0x1180(%rbp)
   177a0:	00 00 00 00 
   177a4:	48 8d 85 60 f1 ff ff 	lea    -0xea0(%rbp),%rax
   177ab:	48 83 e8 80          	sub    $0xffffffffffffff80,%rax
   177af:	48 89 85 88 ee ff ff 	mov    %rax,-0x1178(%rbp)
   177b6:	66 c7 85 62 ed ff ff 	movw   $0x2837,-0x129e(%rbp)
   177bd:	37 28 
   177bf:	66 c7 85 64 ed ff ff 	movw   $0x2837,-0x129c(%rbp)
   177c6:	37 28 
   177c8:	66 c7 85 66 ed ff ff 	movw   $0x2837,-0x129a(%rbp)
   177cf:	37 28 
   177d1:	66 c7 85 68 ed ff ff 	movw   $0x2837,-0x1298(%rbp)
   177d8:	37 28 
   177da:	c7 85 64 e9 ff ff b7 	movl   $0x722ba7b7,-0x169c(%rbp)
   177e1:	a7 2b 72 
   177e4:	48 c7 85 80 eb ff ff 	movq   $0xfffffffffffffffd,-0x1480(%rbp)
   177eb:	fd ff ff ff 
   177ef:	48 8d 05 aa f8 00 00 	lea    0xf8aa(%rip),%rax        # 270a0 <g_150>
   177f6:	48 89 85 c0 ea ff ff 	mov    %rax,-0x1540(%rbp)
   177fd:	48 8d 85 c0 ea ff ff 	lea    -0x1540(%rbp),%rax
   17804:	48 89 85 c8 ea ff ff 	mov    %rax,-0x1538(%rbp)
   1780b:	c6 85 41 e9 ff ff e7 	movb   $0xe7,-0x16bf(%rbp)
   17812:	c7 85 b4 e9 ff ff 58 	movl   $0xaf5c8058,-0x164c(%rbp)
   17819:	80 5c af 
   1781c:	48 c7 85 d0 ea ff ff 	movq   $0x0,-0x1530(%rbp)
   17823:	00 00 00 00 
   17827:	c7 85 b8 e9 ff ff ff 	movl   $0xffffffff,-0x1648(%rbp)
   1782e:	ff ff ff 
   17831:	c7 85 c0 ed ff ff 01 	movl   $0xfefffe01,-0x1240(%rbp)
   17838:	fe ff fe 
   1783b:	c7 85 c4 ed ff ff 01 	movl   $0xf7fff701,-0x123c(%rbp)
   17842:	f7 ff f7 
   17845:	c7 85 c8 ed ff ff 01 	movl   $0xfefffe01,-0x1238(%rbp)
   1784c:	fe ff fe 
   1784f:	c7 85 cc ed ff ff 01 	movl   $0xf7fff701,-0x1234(%rbp)
   17856:	f7 ff f7 
   17859:	c7 85 d0 ed ff ff 01 	movl   $0xfefffe01,-0x1230(%rbp)
   17860:	fe ff fe 
   17863:	c7 85 d4 ed ff ff 01 	movl   $0xf7fff701,-0x122c(%rbp)
   1786a:	f7 ff f7 
   1786d:	c7 85 d8 ed ff ff 01 	movl   $0xfefffe01,-0x1228(%rbp)
   17874:	fe ff fe 
   17877:	c7 85 dc ed ff ff 01 	movl   $0xf7fff701,-0x1224(%rbp)
   1787e:	f7 ff f7 
   17881:	48 c7 85 88 eb ff ff 	movq   $0xffffffffffffffff,-0x1478(%rbp)
   17888:	ff ff ff ff 
   1788c:	48 b8 40 10 b4 d8 11 	movabs $0x5e3f1211d8b41040,%rax
   17893:	12 3f 5e 
   17896:	48 89 85 70 eb ff ff 	mov    %rax,-0x1490(%rbp)
   1789d:	48 8d 85 5c e9 ff ff 	lea    -0x16a4(%rbp),%rax
   178a4:	48 89 85 d0 f2 ff ff 	mov    %rax,-0xd30(%rbp)
   178ab:	48 c7 85 d8 f2 ff ff 	movq   $0x0,-0xd28(%rbp)
   178b2:	00 00 00 00 
   178b6:	48 8d 85 5c e9 ff ff 	lea    -0x16a4(%rbp),%rax
   178bd:	48 89 85 e0 f2 ff ff 	mov    %rax,-0xd20(%rbp)
   178c4:	48 8d 85 5c e9 ff ff 	lea    -0x16a4(%rbp),%rax
   178cb:	48 89 85 e8 f2 ff ff 	mov    %rax,-0xd18(%rbp)
   178d2:	48 c7 85 f0 f2 ff ff 	movq   $0x0,-0xd10(%rbp)
   178d9:	00 00 00 00 
   178dd:	48 8d 85 a0 ed ff ff 	lea    -0x1260(%rbp),%rax
   178e4:	48 89 85 f8 f2 ff ff 	mov    %rax,-0xd08(%rbp)
   178eb:	48 8d 05 32 f7 00 00 	lea    0xf732(%rip),%rax        # 27024 <g_8>
   178f2:	48 89 85 00 f3 ff ff 	mov    %rax,-0xd00(%rbp)
   178f9:	48 8d 05 24 f7 00 00 	lea    0xf724(%rip),%rax        # 27024 <g_8>
   17900:	48 89 85 08 f3 ff ff 	mov    %rax,-0xcf8(%rbp)
   17907:	48 8d 85 a0 ed ff ff 	lea    -0x1260(%rbp),%rax
   1790e:	48 89 85 10 f3 ff ff 	mov    %rax,-0xcf0(%rbp)
   17915:	48 8d 05 08 f7 00 00 	lea    0xf708(%rip),%rax        # 27024 <g_8>
   1791c:	48 89 85 18 f3 ff ff 	mov    %rax,-0xce8(%rbp)
   17923:	48 c7 85 20 f3 ff ff 	movq   $0x0,-0xce0(%rbp)
   1792a:	00 00 00 00 
   1792e:	48 c7 85 28 f3 ff ff 	movq   $0x0,-0xcd8(%rbp)
   17935:	00 00 00 00 
   17939:	48 8d 85 60 e9 ff ff 	lea    -0x16a0(%rbp),%rax
   17940:	48 89 85 30 f3 ff ff 	mov    %rax,-0xcd0(%rbp)
   17947:	48 c7 85 38 f3 ff ff 	movq   $0x0,-0xcc8(%rbp)
   1794e:	00 00 00 00 
   17952:	48 c7 85 40 f3 ff ff 	movq   $0x0,-0xcc0(%rbp)
   17959:	00 00 00 00 
   1795d:	48 8d 05 c0 f6 00 00 	lea    0xf6c0(%rip),%rax        # 27024 <g_8>
   17964:	48 89 85 48 f3 ff ff 	mov    %rax,-0xcb8(%rbp)
   1796b:	48 8d 85 a0 ed ff ff 	lea    -0x1260(%rbp),%rax
   17972:	48 89 85 50 f3 ff ff 	mov    %rax,-0xcb0(%rbp)
   17979:	48 8d 05 a4 f6 00 00 	lea    0xf6a4(%rip),%rax        # 27024 <g_8>
   17980:	48 89 85 58 f3 ff ff 	mov    %rax,-0xca8(%rbp)
   17987:	48 8d 05 96 f6 00 00 	lea    0xf696(%rip),%rax        # 27024 <g_8>
   1798e:	48 89 85 60 f3 ff ff 	mov    %rax,-0xca0(%rbp)
   17995:	48 8d 85 a0 ed ff ff 	lea    -0x1260(%rbp),%rax
   1799c:	48 89 85 68 f3 ff ff 	mov    %rax,-0xc98(%rbp)
   179a3:	48 c7 85 70 f3 ff ff 	movq   $0x0,-0xc90(%rbp)
   179aa:	00 00 00 00 
   179ae:	48 8d 85 5c e9 ff ff 	lea    -0x16a4(%rbp),%rax
   179b5:	48 89 85 78 f3 ff ff 	mov    %rax,-0xc88(%rbp)
   179bc:	48 8d 85 5c e9 ff ff 	lea    -0x16a4(%rbp),%rax
   179c3:	48 89 85 80 f3 ff ff 	mov    %rax,-0xc80(%rbp)
   179ca:	48 c7 85 88 f3 ff ff 	movq   $0x0,-0xc78(%rbp)
   179d1:	00 00 00 00 
   179d5:	48 8d 85 60 e9 ff ff 	lea    -0x16a0(%rbp),%rax
   179dc:	48 89 85 90 f3 ff ff 	mov    %rax,-0xc70(%rbp)
   179e3:	48 8d 05 3a f6 00 00 	lea    0xf63a(%rip),%rax        # 27024 <g_8>
   179ea:	48 89 85 98 f3 ff ff 	mov    %rax,-0xc68(%rbp)
   179f1:	48 8d 05 2c f6 00 00 	lea    0xf62c(%rip),%rax        # 27024 <g_8>
   179f8:	48 89 85 a0 f3 ff ff 	mov    %rax,-0xc60(%rbp)
   179ff:	48 8d 85 a0 ed ff ff 	lea    -0x1260(%rbp),%rax
   17a06:	48 89 85 a8 f3 ff ff 	mov    %rax,-0xc58(%rbp)
   17a0d:	48 8d 05 10 f6 00 00 	lea    0xf610(%rip),%rax        # 27024 <g_8>
   17a14:	48 89 85 b0 f3 ff ff 	mov    %rax,-0xc50(%rbp)
   17a1b:	48 8d 05 02 f6 00 00 	lea    0xf602(%rip),%rax        # 27024 <g_8>
   17a22:	48 89 85 b8 f3 ff ff 	mov    %rax,-0xc48(%rbp)
   17a29:	48 8d 85 60 e9 ff ff 	lea    -0x16a0(%rbp),%rax
   17a30:	48 89 85 c0 f3 ff ff 	mov    %rax,-0xc40(%rbp)
   17a37:	48 8d 85 5c e9 ff ff 	lea    -0x16a4(%rbp),%rax
   17a3e:	48 89 85 c8 f3 ff ff 	mov    %rax,-0xc38(%rbp)
   17a45:	48 8d 85 60 e9 ff ff 	lea    -0x16a0(%rbp),%rax
   17a4c:	48 89 85 d0 f3 ff ff 	mov    %rax,-0xc30(%rbp)
   17a53:	48 8d 85 60 e9 ff ff 	lea    -0x16a0(%rbp),%rax
   17a5a:	48 89 85 d8 f3 ff ff 	mov    %rax,-0xc28(%rbp)
   17a61:	48 8d 85 5c e9 ff ff 	lea    -0x16a4(%rbp),%rax
   17a68:	48 89 85 e0 f3 ff ff 	mov    %rax,-0xc20(%rbp)
   17a6f:	48 8d 05 ae f5 00 00 	lea    0xf5ae(%rip),%rax        # 27024 <g_8>
   17a76:	48 89 85 e8 f3 ff ff 	mov    %rax,-0xc18(%rbp)
   17a7d:	48 8d 85 a0 ed ff ff 	lea    -0x1260(%rbp),%rax
   17a84:	48 89 85 f0 f3 ff ff 	mov    %rax,-0xc10(%rbp)
   17a8b:	48 8d 85 a0 ed ff ff 	lea    -0x1260(%rbp),%rax
   17a92:	48 89 85 f8 f3 ff ff 	mov    %rax,-0xc08(%rbp)
   17a99:	48 8d 05 84 f5 00 00 	lea    0xf584(%rip),%rax        # 27024 <g_8>
   17aa0:	48 89 85 00 f4 ff ff 	mov    %rax,-0xc00(%rbp)
   17aa7:	48 8d 85 a0 ed ff ff 	lea    -0x1260(%rbp),%rax
   17aae:	48 89 85 08 f4 ff ff 	mov    %rax,-0xbf8(%rbp)
   17ab5:	48 8d 85 5c e9 ff ff 	lea    -0x16a4(%rbp),%rax
   17abc:	48 89 85 10 f4 ff ff 	mov    %rax,-0xbf0(%rbp)
   17ac3:	48 8d 85 5c e9 ff ff 	lea    -0x16a4(%rbp),%rax
   17aca:	48 89 85 18 f4 ff ff 	mov    %rax,-0xbe8(%rbp)
   17ad1:	48 c7 85 20 f4 ff ff 	movq   $0x0,-0xbe0(%rbp)
   17ad8:	00 00 00 00 
   17adc:	48 8d 85 5c e9 ff ff 	lea    -0x16a4(%rbp),%rax
   17ae3:	48 89 85 28 f4 ff ff 	mov    %rax,-0xbd8(%rbp)
   17aea:	48 8d 85 5c e9 ff ff 	lea    -0x16a4(%rbp),%rax
   17af1:	48 89 85 30 f4 ff ff 	mov    %rax,-0xbd0(%rbp)
   17af8:	c6 85 42 e9 ff ff 04 	movb   $0x4,-0x16be(%rbp)
   17aff:	48 8d 85 d0 ea ff ff 	lea    -0x1530(%rbp),%rax
   17b06:	48 89 85 d8 ea ff ff 	mov    %rax,-0x1528(%rbp)
   17b0d:	48 8d 85 d8 ea ff ff 	lea    -0x1528(%rbp),%rax
   17b14:	48 89 85 f0 fb ff ff 	mov    %rax,-0x410(%rbp)
   17b1b:	48 c7 85 f8 fb ff ff 	movq   $0x0,-0x408(%rbp)
   17b22:	00 00 00 00 
   17b26:	48 8d 85 d8 ea ff ff 	lea    -0x1528(%rbp),%rax
   17b2d:	48 89 85 00 fc ff ff 	mov    %rax,-0x400(%rbp)
   17b34:	48 8d 85 d8 ea ff ff 	lea    -0x1528(%rbp),%rax
   17b3b:	48 89 85 08 fc ff ff 	mov    %rax,-0x3f8(%rbp)
   17b42:	48 8d 85 d8 ea ff ff 	lea    -0x1528(%rbp),%rax
   17b49:	48 89 85 10 fc ff ff 	mov    %rax,-0x3f0(%rbp)
   17b50:	48 8d 85 d8 ea ff ff 	lea    -0x1528(%rbp),%rax
   17b57:	48 89 85 18 fc ff ff 	mov    %rax,-0x3e8(%rbp)
   17b5e:	48 8d 85 d8 ea ff ff 	lea    -0x1528(%rbp),%rax
   17b65:	48 89 85 20 fc ff ff 	mov    %rax,-0x3e0(%rbp)
   17b6c:	48 c7 85 28 fc ff ff 	movq   $0x0,-0x3d8(%rbp)
   17b73:	00 00 00 00 
   17b77:	48 c7 85 30 fc ff ff 	movq   $0x0,-0x3d0(%rbp)
   17b7e:	00 00 00 00 
   17b82:	48 8d 85 d8 ea ff ff 	lea    -0x1528(%rbp),%rax
   17b89:	48 89 85 38 fc ff ff 	mov    %rax,-0x3c8(%rbp)
   17b90:	48 8d 85 d8 ea ff ff 	lea    -0x1528(%rbp),%rax
   17b97:	48 89 85 40 fc ff ff 	mov    %rax,-0x3c0(%rbp)
   17b9e:	48 8d 85 d8 ea ff ff 	lea    -0x1528(%rbp),%rax
   17ba5:	48 89 85 48 fc ff ff 	mov    %rax,-0x3b8(%rbp)
   17bac:	48 8d 85 d8 ea ff ff 	lea    -0x1528(%rbp),%rax
   17bb3:	48 89 85 50 fc ff ff 	mov    %rax,-0x3b0(%rbp)
   17bba:	48 c7 85 58 fc ff ff 	movq   $0x0,-0x3a8(%rbp)
   17bc1:	00 00 00 00 
   17bc5:	48 8d 85 d8 ea ff ff 	lea    -0x1528(%rbp),%rax
   17bcc:	48 89 85 60 fc ff ff 	mov    %rax,-0x3a0(%rbp)
   17bd3:	48 8d 85 d8 ea ff ff 	lea    -0x1528(%rbp),%rax
   17bda:	48 89 85 68 fc ff ff 	mov    %rax,-0x398(%rbp)
   17be1:	48 8d 85 d8 ea ff ff 	lea    -0x1528(%rbp),%rax
   17be8:	48 89 85 70 fc ff ff 	mov    %rax,-0x390(%rbp)
   17bef:	48 8d 85 d8 ea ff ff 	lea    -0x1528(%rbp),%rax
   17bf6:	48 89 85 78 fc ff ff 	mov    %rax,-0x388(%rbp)
   17bfd:	48 8d 85 d8 ea ff ff 	lea    -0x1528(%rbp),%rax
   17c04:	48 89 85 80 fc ff ff 	mov    %rax,-0x380(%rbp)
   17c0b:	48 c7 85 88 fc ff ff 	movq   $0x0,-0x378(%rbp)
   17c12:	00 00 00 00 
   17c16:	48 8d 85 d8 ea ff ff 	lea    -0x1528(%rbp),%rax
   17c1d:	48 89 85 90 fc ff ff 	mov    %rax,-0x370(%rbp)
   17c24:	48 8d 85 d8 ea ff ff 	lea    -0x1528(%rbp),%rax
   17c2b:	48 89 85 98 fc ff ff 	mov    %rax,-0x368(%rbp)
   17c32:	48 8d 85 d8 ea ff ff 	lea    -0x1528(%rbp),%rax
   17c39:	48 89 85 a0 fc ff ff 	mov    %rax,-0x360(%rbp)
   17c40:	48 8d 85 d8 ea ff ff 	lea    -0x1528(%rbp),%rax
   17c47:	48 89 85 a8 fc ff ff 	mov    %rax,-0x358(%rbp)
   17c4e:	48 8d 85 d8 ea ff ff 	lea    -0x1528(%rbp),%rax
   17c55:	48 89 85 b0 fc ff ff 	mov    %rax,-0x350(%rbp)
   17c5c:	48 8d 85 d8 ea ff ff 	lea    -0x1528(%rbp),%rax
   17c63:	48 89 85 b8 fc ff ff 	mov    %rax,-0x348(%rbp)
   17c6a:	48 c7 85 c0 fc ff ff 	movq   $0x0,-0x340(%rbp)
   17c71:	00 00 00 00 
   17c75:	48 8d 85 d8 ea ff ff 	lea    -0x1528(%rbp),%rax
   17c7c:	48 89 85 c8 fc ff ff 	mov    %rax,-0x338(%rbp)
   17c83:	48 8d 85 d8 ea ff ff 	lea    -0x1528(%rbp),%rax
   17c8a:	48 89 85 d0 fc ff ff 	mov    %rax,-0x330(%rbp)
   17c91:	48 8d 85 d8 ea ff ff 	lea    -0x1528(%rbp),%rax
   17c98:	48 89 85 d8 fc ff ff 	mov    %rax,-0x328(%rbp)
   17c9f:	48 8d 85 d8 ea ff ff 	lea    -0x1528(%rbp),%rax
   17ca6:	48 89 85 e0 fc ff ff 	mov    %rax,-0x320(%rbp)
   17cad:	48 8d 85 d8 ea ff ff 	lea    -0x1528(%rbp),%rax
   17cb4:	48 89 85 e8 fc ff ff 	mov    %rax,-0x318(%rbp)
   17cbb:	48 8d 85 d8 ea ff ff 	lea    -0x1528(%rbp),%rax
   17cc2:	48 89 85 f0 fc ff ff 	mov    %rax,-0x310(%rbp)
   17cc9:	48 8d 85 d8 ea ff ff 	lea    -0x1528(%rbp),%rax
   17cd0:	48 89 85 f8 fc ff ff 	mov    %rax,-0x308(%rbp)
   17cd7:	48 8d 85 d8 ea ff ff 	lea    -0x1528(%rbp),%rax
   17cde:	48 89 85 00 fd ff ff 	mov    %rax,-0x300(%rbp)
   17ce5:	48 8d 85 d8 ea ff ff 	lea    -0x1528(%rbp),%rax
   17cec:	48 89 85 08 fd ff ff 	mov    %rax,-0x2f8(%rbp)
   17cf3:	48 8d 85 d8 ea ff ff 	lea    -0x1528(%rbp),%rax
   17cfa:	48 89 85 10 fd ff ff 	mov    %rax,-0x2f0(%rbp)
   17d01:	48 8d 85 d8 ea ff ff 	lea    -0x1528(%rbp),%rax
   17d08:	48 89 85 18 fd ff ff 	mov    %rax,-0x2e8(%rbp)
   17d0f:	48 8d 85 d8 ea ff ff 	lea    -0x1528(%rbp),%rax
   17d16:	48 89 85 20 fd ff ff 	mov    %rax,-0x2e0(%rbp)
   17d1d:	48 8d 85 d8 ea ff ff 	lea    -0x1528(%rbp),%rax
   17d24:	48 89 85 28 fd ff ff 	mov    %rax,-0x2d8(%rbp)
   17d2b:	48 8d 85 d8 ea ff ff 	lea    -0x1528(%rbp),%rax
   17d32:	48 89 85 30 fd ff ff 	mov    %rax,-0x2d0(%rbp)
   17d39:	48 8d 85 d8 ea ff ff 	lea    -0x1528(%rbp),%rax
   17d40:	48 89 85 38 fd ff ff 	mov    %rax,-0x2c8(%rbp)
   17d47:	48 8d 85 d8 ea ff ff 	lea    -0x1528(%rbp),%rax
   17d4e:	48 89 85 40 fd ff ff 	mov    %rax,-0x2c0(%rbp)
   17d55:	48 c7 85 48 fd ff ff 	movq   $0x0,-0x2b8(%rbp)
   17d5c:	00 00 00 00 
   17d60:	48 8d 85 d8 ea ff ff 	lea    -0x1528(%rbp),%rax
   17d67:	48 89 85 50 fd ff ff 	mov    %rax,-0x2b0(%rbp)
   17d6e:	48 8d 85 d8 ea ff ff 	lea    -0x1528(%rbp),%rax
   17d75:	48 89 85 58 fd ff ff 	mov    %rax,-0x2a8(%rbp)
   17d7c:	48 8d 85 d8 ea ff ff 	lea    -0x1528(%rbp),%rax
   17d83:	48 89 85 60 fd ff ff 	mov    %rax,-0x2a0(%rbp)
   17d8a:	48 8d 85 d8 ea ff ff 	lea    -0x1528(%rbp),%rax
   17d91:	48 89 85 68 fd ff ff 	mov    %rax,-0x298(%rbp)
   17d98:	48 8d 85 d8 ea ff ff 	lea    -0x1528(%rbp),%rax
   17d9f:	48 89 85 70 fd ff ff 	mov    %rax,-0x290(%rbp)
   17da6:	48 c7 85 78 fd ff ff 	movq   $0x0,-0x288(%rbp)
   17dad:	00 00 00 00 
   17db1:	48 c7 85 80 fd ff ff 	movq   $0x0,-0x280(%rbp)
   17db8:	00 00 00 00 
   17dbc:	48 8d 85 d8 ea ff ff 	lea    -0x1528(%rbp),%rax
   17dc3:	48 89 85 88 fd ff ff 	mov    %rax,-0x278(%rbp)
   17dca:	48 8d 85 d8 ea ff ff 	lea    -0x1528(%rbp),%rax
   17dd1:	48 89 85 90 fd ff ff 	mov    %rax,-0x270(%rbp)
   17dd8:	48 8d 85 d8 ea ff ff 	lea    -0x1528(%rbp),%rax
   17ddf:	48 89 85 98 fd ff ff 	mov    %rax,-0x268(%rbp)
   17de6:	48 8d 85 d8 ea ff ff 	lea    -0x1528(%rbp),%rax
   17ded:	48 89 85 a0 fd ff ff 	mov    %rax,-0x260(%rbp)
   17df4:	48 c7 85 a8 fd ff ff 	movq   $0x0,-0x258(%rbp)
   17dfb:	00 00 00 00 
   17dff:	48 8d 85 d8 ea ff ff 	lea    -0x1528(%rbp),%rax
   17e06:	48 89 85 b0 fd ff ff 	mov    %rax,-0x250(%rbp)
   17e0d:	48 8d 85 d8 ea ff ff 	lea    -0x1528(%rbp),%rax
   17e14:	48 89 85 b8 fd ff ff 	mov    %rax,-0x248(%rbp)
   17e1b:	48 8d 85 d8 ea ff ff 	lea    -0x1528(%rbp),%rax
   17e22:	48 89 85 c0 fd ff ff 	mov    %rax,-0x240(%rbp)
   17e29:	48 8d 85 d8 ea ff ff 	lea    -0x1528(%rbp),%rax
   17e30:	48 89 85 c8 fd ff ff 	mov    %rax,-0x238(%rbp)
   17e37:	48 8d 85 d8 ea ff ff 	lea    -0x1528(%rbp),%rax
   17e3e:	48 89 85 d0 fd ff ff 	mov    %rax,-0x230(%rbp)
   17e45:	48 c7 85 d8 fd ff ff 	movq   $0x0,-0x228(%rbp)
   17e4c:	00 00 00 00 
   17e50:	48 8d 85 d8 ea ff ff 	lea    -0x1528(%rbp),%rax
   17e57:	48 89 85 e0 fd ff ff 	mov    %rax,-0x220(%rbp)
   17e5e:	48 8d 85 d8 ea ff ff 	lea    -0x1528(%rbp),%rax
   17e65:	48 89 85 e8 fd ff ff 	mov    %rax,-0x218(%rbp)
   17e6c:	48 8d 85 d8 ea ff ff 	lea    -0x1528(%rbp),%rax
   17e73:	48 89 85 f0 fd ff ff 	mov    %rax,-0x210(%rbp)
   17e7a:	48 8d 85 d8 ea ff ff 	lea    -0x1528(%rbp),%rax
   17e81:	48 89 85 f8 fd ff ff 	mov    %rax,-0x208(%rbp)
   17e88:	48 8d 85 d8 ea ff ff 	lea    -0x1528(%rbp),%rax
   17e8f:	48 89 85 00 fe ff ff 	mov    %rax,-0x200(%rbp)
   17e96:	48 8d 85 d8 ea ff ff 	lea    -0x1528(%rbp),%rax
   17e9d:	48 89 85 08 fe ff ff 	mov    %rax,-0x1f8(%rbp)
   17ea4:	48 c7 85 10 fe ff ff 	movq   $0x0,-0x1f0(%rbp)
   17eab:	00 00 00 00 
   17eaf:	48 8d 85 d8 ea ff ff 	lea    -0x1528(%rbp),%rax
   17eb6:	48 89 85 18 fe ff ff 	mov    %rax,-0x1e8(%rbp)
   17ebd:	48 8d 85 d8 ea ff ff 	lea    -0x1528(%rbp),%rax
   17ec4:	48 89 85 20 fe ff ff 	mov    %rax,-0x1e0(%rbp)
   17ecb:	48 8d 85 d8 ea ff ff 	lea    -0x1528(%rbp),%rax
   17ed2:	48 89 85 28 fe ff ff 	mov    %rax,-0x1d8(%rbp)
   17ed9:	48 8d 85 d8 ea ff ff 	lea    -0x1528(%rbp),%rax
   17ee0:	48 89 85 30 fe ff ff 	mov    %rax,-0x1d0(%rbp)
   17ee7:	48 8d 85 d8 ea ff ff 	lea    -0x1528(%rbp),%rax
   17eee:	48 89 85 38 fe ff ff 	mov    %rax,-0x1c8(%rbp)
   17ef5:	48 8d 85 d8 ea ff ff 	lea    -0x1528(%rbp),%rax
   17efc:	48 89 85 40 fe ff ff 	mov    %rax,-0x1c0(%rbp)
   17f03:	48 8d 85 d8 ea ff ff 	lea    -0x1528(%rbp),%rax
   17f0a:	48 89 85 48 fe ff ff 	mov    %rax,-0x1b8(%rbp)
   17f11:	48 8d 85 d8 ea ff ff 	lea    -0x1528(%rbp),%rax
   17f18:	48 89 85 50 fe ff ff 	mov    %rax,-0x1b0(%rbp)
   17f1f:	48 8d 85 d8 ea ff ff 	lea    -0x1528(%rbp),%rax
   17f26:	48 89 85 58 fe ff ff 	mov    %rax,-0x1a8(%rbp)
   17f2d:	48 8d 85 d8 ea ff ff 	lea    -0x1528(%rbp),%rax
   17f34:	48 89 85 60 fe ff ff 	mov    %rax,-0x1a0(%rbp)
   17f3b:	48 8d 85 d8 ea ff ff 	lea    -0x1528(%rbp),%rax
   17f42:	48 89 85 68 fe ff ff 	mov    %rax,-0x198(%rbp)
   17f49:	48 8d 85 d8 ea ff ff 	lea    -0x1528(%rbp),%rax
   17f50:	48 89 85 70 fe ff ff 	mov    %rax,-0x190(%rbp)
   17f57:	48 8d 85 d8 ea ff ff 	lea    -0x1528(%rbp),%rax
   17f5e:	48 89 85 78 fe ff ff 	mov    %rax,-0x188(%rbp)
   17f65:	48 8d 85 d8 ea ff ff 	lea    -0x1528(%rbp),%rax
   17f6c:	48 89 85 80 fe ff ff 	mov    %rax,-0x180(%rbp)
   17f73:	48 8d 85 d8 ea ff ff 	lea    -0x1528(%rbp),%rax
   17f7a:	48 89 85 88 fe ff ff 	mov    %rax,-0x178(%rbp)
   17f81:	48 8d 85 d8 ea ff ff 	lea    -0x1528(%rbp),%rax
   17f88:	48 89 85 90 fe ff ff 	mov    %rax,-0x170(%rbp)
   17f8f:	48 c7 85 98 fe ff ff 	movq   $0x0,-0x168(%rbp)
   17f96:	00 00 00 00 
   17f9a:	48 8d 85 d8 ea ff ff 	lea    -0x1528(%rbp),%rax
   17fa1:	48 89 85 a0 fe ff ff 	mov    %rax,-0x160(%rbp)
   17fa8:	48 8d 85 d8 ea ff ff 	lea    -0x1528(%rbp),%rax
   17faf:	48 89 85 a8 fe ff ff 	mov    %rax,-0x158(%rbp)
   17fb6:	48 8d 85 d8 ea ff ff 	lea    -0x1528(%rbp),%rax
   17fbd:	48 89 85 b0 fe ff ff 	mov    %rax,-0x150(%rbp)
   17fc4:	48 8d 85 d8 ea ff ff 	lea    -0x1528(%rbp),%rax
   17fcb:	48 89 85 b8 fe ff ff 	mov    %rax,-0x148(%rbp)
   17fd2:	48 8d 85 d8 ea ff ff 	lea    -0x1528(%rbp),%rax
   17fd9:	48 89 85 c0 fe ff ff 	mov    %rax,-0x140(%rbp)
   17fe0:	48 c7 85 c8 fe ff ff 	movq   $0x0,-0x138(%rbp)
   17fe7:	00 00 00 00 
   17feb:	48 c7 85 d0 fe ff ff 	movq   $0x0,-0x130(%rbp)
   17ff2:	00 00 00 00 
   17ff6:	48 8d 85 d8 ea ff ff 	lea    -0x1528(%rbp),%rax
   17ffd:	48 89 85 d8 fe ff ff 	mov    %rax,-0x128(%rbp)
   18004:	48 8d 85 d8 ea ff ff 	lea    -0x1528(%rbp),%rax
   1800b:	48 89 85 e0 fe ff ff 	mov    %rax,-0x120(%rbp)
   18012:	48 8d 85 d8 ea ff ff 	lea    -0x1528(%rbp),%rax
   18019:	48 89 85 e8 fe ff ff 	mov    %rax,-0x118(%rbp)
   18020:	48 8d 85 d8 ea ff ff 	lea    -0x1528(%rbp),%rax
   18027:	48 89 85 f0 fe ff ff 	mov    %rax,-0x110(%rbp)
   1802e:	48 c7 85 f8 fe ff ff 	movq   $0x0,-0x108(%rbp)
   18035:	00 00 00 00 
   18039:	48 8d 85 d8 ea ff ff 	lea    -0x1528(%rbp),%rax
   18040:	48 89 85 00 ff ff ff 	mov    %rax,-0x100(%rbp)
   18047:	48 8d 85 d8 ea ff ff 	lea    -0x1528(%rbp),%rax
   1804e:	48 89 85 08 ff ff ff 	mov    %rax,-0xf8(%rbp)
   18055:	48 8d 85 d8 ea ff ff 	lea    -0x1528(%rbp),%rax
   1805c:	48 89 85 10 ff ff ff 	mov    %rax,-0xf0(%rbp)
   18063:	48 8d 85 d8 ea ff ff 	lea    -0x1528(%rbp),%rax
   1806a:	48 89 85 18 ff ff ff 	mov    %rax,-0xe8(%rbp)
   18071:	48 8d 85 d8 ea ff ff 	lea    -0x1528(%rbp),%rax
   18078:	48 89 85 20 ff ff ff 	mov    %rax,-0xe0(%rbp)
   1807f:	48 c7 85 28 ff ff ff 	movq   $0x0,-0xd8(%rbp)
   18086:	00 00 00 00 
   1808a:	48 8d 85 d8 ea ff ff 	lea    -0x1528(%rbp),%rax
   18091:	48 89 85 30 ff ff ff 	mov    %rax,-0xd0(%rbp)
   18098:	48 8d 85 d8 ea ff ff 	lea    -0x1528(%rbp),%rax
   1809f:	48 89 85 38 ff ff ff 	mov    %rax,-0xc8(%rbp)
   180a6:	48 8d 85 d8 ea ff ff 	lea    -0x1528(%rbp),%rax
   180ad:	48 89 85 40 ff ff ff 	mov    %rax,-0xc0(%rbp)
   180b4:	48 8d 85 d8 ea ff ff 	lea    -0x1528(%rbp),%rax
   180bb:	48 89 85 48 ff ff ff 	mov    %rax,-0xb8(%rbp)
   180c2:	48 8d 85 d8 ea ff ff 	lea    -0x1528(%rbp),%rax
   180c9:	48 89 85 50 ff ff ff 	mov    %rax,-0xb0(%rbp)
   180d0:	48 8d 85 d8 ea ff ff 	lea    -0x1528(%rbp),%rax
   180d7:	48 89 85 58 ff ff ff 	mov    %rax,-0xa8(%rbp)
   180de:	48 c7 85 60 ff ff ff 	movq   $0x0,-0xa0(%rbp)
   180e5:	00 00 00 00 
   180e9:	48 8d 85 d8 ea ff ff 	lea    -0x1528(%rbp),%rax
   180f0:	48 89 85 68 ff ff ff 	mov    %rax,-0x98(%rbp)
   180f7:	48 8d 85 d8 ea ff ff 	lea    -0x1528(%rbp),%rax
   180fe:	48 89 85 70 ff ff ff 	mov    %rax,-0x90(%rbp)
   18105:	48 8d 85 d8 ea ff ff 	lea    -0x1528(%rbp),%rax
   1810c:	48 89 85 78 ff ff ff 	mov    %rax,-0x88(%rbp)
   18113:	48 8d 85 d8 ea ff ff 	lea    -0x1528(%rbp),%rax
   1811a:	48 89 45 80          	mov    %rax,-0x80(%rbp)
   1811e:	48 8d 85 d8 ea ff ff 	lea    -0x1528(%rbp),%rax
   18125:	48 89 45 88          	mov    %rax,-0x78(%rbp)
   18129:	48 8d 85 d8 ea ff ff 	lea    -0x1528(%rbp),%rax
   18130:	48 89 45 90          	mov    %rax,-0x70(%rbp)
   18134:	48 8d 85 d8 ea ff ff 	lea    -0x1528(%rbp),%rax
   1813b:	48 89 45 98          	mov    %rax,-0x68(%rbp)
   1813f:	48 8d 85 d8 ea ff ff 	lea    -0x1528(%rbp),%rax
   18146:	48 89 45 a0          	mov    %rax,-0x60(%rbp)
   1814a:	48 8d 85 d8 ea ff ff 	lea    -0x1528(%rbp),%rax
   18151:	48 89 45 a8          	mov    %rax,-0x58(%rbp)
   18155:	c6 85 43 e9 ff ff 76 	movb   $0x76,-0x16bd(%rbp)
   1815c:	48 8d 05 ed 28 01 00 	lea    0x128ed(%rip),%rax        # 2aa50 <g_258>
   18163:	48 89 85 e0 ea ff ff 	mov    %rax,-0x1520(%rbp)
   1816a:	48 8d 85 e0 ea ff ff 	lea    -0x1520(%rbp),%rax
   18171:	48 89 85 e8 ea ff ff 	mov    %rax,-0x1518(%rbp)
   18178:	c6 85 44 e9 ff ff 00 	movb   $0x0,-0x16bc(%rbp)
   1817f:	48 c7 85 90 eb ff ff 	movq   $0x0,-0x1470(%rbp)
   18186:	00 00 00 00 
   1818a:	c6 85 45 e9 ff ff fd 	movb   $0xfd,-0x16bb(%rbp)
   18191:	c7 85 68 e9 ff ff 17 	movl   $0x36bdd317,-0x1698(%rbp)
   18198:	d3 bd 36 
   1819b:	48 b8 22 66 0a a3 f6 	movabs $0x9c98a0f6a30a6622,%rax
   181a2:	a0 98 9c 
   181a5:	48 89 85 98 eb ff ff 	mov    %rax,-0x1468(%rbp)
   181ac:	c7 85 bc e9 ff ff 16 	movl   $0x39bc216,-0x1644(%rbp)
   181b3:	c2 9b 03 
   181b6:	c6 85 46 e9 ff ff 35 	movb   $0x35,-0x16ba(%rbp)
   181bd:	48 8d 05 bc ee 00 00 	lea    0xeebc(%rip),%rax        # 27080 <g_107>
   181c4:	48 89 85 f0 ea ff ff 	mov    %rax,-0x1510(%rbp)
   181cb:	c7 85 c0 e9 ff ff 07 	movl   $0x7,-0x1640(%rbp)
   181d2:	00 00 00 
   181d5:	c7 85 c4 e9 ff ff 42 	movl   $0x7bf71b42,-0x163c(%rbp)
   181dc:	1b f7 7b 
   181df:	48 b8 ed 57 11 d6 10 	movabs $0x72a1d610d61157ed,%rax
   181e6:	d6 a1 72 
   181e9:	48 89 85 a0 eb ff ff 	mov    %rax,-0x1460(%rbp)
   181f0:	48 c7 85 a8 eb ff ff 	movq   $0x0,-0x1458(%rbp)
   181f7:	00 00 00 00 
   181fb:	48 8d 05 b6 28 01 00 	lea    0x128b6(%rip),%rax        # 2aab8 <g_1205>
   18202:	48 89 85 f8 ea ff ff 	mov    %rax,-0x1508(%rbp)
   18209:	48 8d 85 f8 ea ff ff 	lea    -0x1508(%rbp),%rax
   18210:	48 89 85 00 eb ff ff 	mov    %rax,-0x1500(%rbp)
   18217:	48 8d 95 80 ef ff ff 	lea    -0x1080(%rbp),%rdx
   1821e:	b8 00 00 00 00       	mov    $0x0,%eax
   18223:	b9 1e 00 00 00       	mov    $0x1e,%ecx
   18228:	48 89 d7             	mov    %rdx,%rdi
   1822b:	f3 48 ab             	rep stos %rax,%es:(%rdi)
   1822e:	48 8d 85 00 eb ff ff 	lea    -0x1500(%rbp),%rax
   18235:	48 89 85 88 ef ff ff 	mov    %rax,-0x1078(%rbp)
   1823c:	48 8d 85 00 eb ff ff 	lea    -0x1500(%rbp),%rax
   18243:	48 89 85 b0 ef ff ff 	mov    %rax,-0x1050(%rbp)
   1824a:	48 8d 85 00 eb ff ff 	lea    -0x1500(%rbp),%rax
   18251:	48 89 85 d8 ef ff ff 	mov    %rax,-0x1028(%rbp)
   18258:	48 8d 85 00 eb ff ff 	lea    -0x1500(%rbp),%rax
   1825f:	48 89 85 00 f0 ff ff 	mov    %rax,-0x1000(%rbp)
   18266:	48 8d 85 00 eb ff ff 	lea    -0x1500(%rbp),%rax
   1826d:	48 89 85 28 f0 ff ff 	mov    %rax,-0xfd8(%rbp)
   18274:	48 8d 85 00 eb ff ff 	lea    -0x1500(%rbp),%rax
   1827b:	48 89 85 50 f0 ff ff 	mov    %rax,-0xfb0(%rbp)
   18282:	c7 85 80 e9 ff ff 00 	movl   $0x0,-0x1680(%rbp)
   18289:	00 00 00 
   1828c:	eb 14                	jmp    182a2 <func_15+0xc6b>
   1828e:	8b 85 80 e9 ff ff    	mov    -0x1680(%rbp),%eax
   18294:	48 98                	cltq   
   18296:	c6 44 05 bd 1b       	movb   $0x1b,-0x43(%rbp,%rax,1)
   1829b:	83 85 80 e9 ff ff 01 	addl   $0x1,-0x1680(%rbp)
   182a2:	83 bd 80 e9 ff ff 02 	cmpl   $0x2,-0x1680(%rbp)
   182a9:	7e e3                	jle    1828e <func_15+0xc57>
   182ab:	c7 85 80 e9 ff ff 00 	movl   $0x0,-0x1680(%rbp)
   182b2:	00 00 00 
   182b5:	eb 19                	jmp    182d0 <func_15+0xc99>
   182b7:	8b 85 80 e9 ff ff    	mov    -0x1680(%rbp),%eax
   182bd:	48 98                	cltq   
   182bf:	66 c7 84 45 6a ed ff 	movw   $0x9,-0x1296(%rbp,%rax,2)
   182c6:	ff 09 00 
   182c9:	83 85 80 e9 ff ff 01 	addl   $0x1,-0x1680(%rbp)
   182d0:	83 bd 80 e9 ff ff 04 	cmpl   $0x4,-0x1680(%rbp)
   182d7:	7e de                	jle    182b7 <func_15+0xc80>
   182d9:	48 c7 05 a4 ed 00 00 	movq   $0x0,0xeda4(%rip)        # 27088 <g_127>
   182e0:	00 00 00 00 
   182e4:	e9 8f 01 00 00       	jmpq   18478 <func_15+0xe41>
   182e9:	c6 85 4c e9 ff ff 23 	movb   $0x23,-0x16b4(%rbp)
   182f0:	48 8d 05 61 27 01 00 	lea    0x12761(%rip),%rax        # 2aa58 <g_396>
   182f7:	48 89 85 40 eb ff ff 	mov    %rax,-0x14c0(%rbp)
   182fe:	48 8d 05 9b 27 01 00 	lea    0x1279b(%rip),%rax        # 2aaa0 <g_935>
   18305:	48 89 85 08 ed ff ff 	mov    %rax,-0x12f8(%rbp)
   1830c:	48 c7 85 10 ed ff ff 	movq   $0x0,-0x12f0(%rbp)
   18313:	00 00 00 00 
   18317:	48 8d 85 90 f8 ff ff 	lea    -0x770(%rbp),%rax
   1831e:	48 8d 15 bb 9b 00 00 	lea    0x9bbb(%rip),%rdx        # 21ee0 <g_4473+0xe70>
   18325:	b9 6c 00 00 00       	mov    $0x6c,%ecx
   1832a:	48 89 c7             	mov    %rax,%rdi
   1832d:	48 89 d6             	mov    %rdx,%rsi
   18330:	f3 48 a5             	rep movsq %ds:(%rsi),%es:(%rdi)
   18333:	66 c7 85 5a e9 ff ff 	movw   $0x433e,-0x16a6(%rbp)
   1833a:	3e 43 
   1833c:	c7 85 90 ea ff ff f7 	movl   $0xfffffff7,-0x1570(%rbp)
   18343:	ff ff ff 
   18346:	c7 85 94 ea ff ff 00 	movl   $0x0,-0x156c(%rbp)
   1834d:	00 00 00 
   18350:	c7 85 98 ea ff ff 00 	movl   $0x0,-0x1568(%rbp)
   18357:	00 00 00 
   1835a:	c7 85 9c ea ff ff 01 	movl   $0x1,-0x1564(%rbp)
   18361:	00 00 00 
   18364:	c7 85 a0 ea ff ff 04 	movl   $0x4,-0x1560(%rbp)
   1836b:	00 00 00 
   1836e:	48 8d 05 33 27 01 00 	lea    0x12733(%rip),%rax        # 2aaa8 <g_1042>
   18375:	48 89 85 18 ed ff ff 	mov    %rax,-0x12e8(%rbp)
   1837c:	c7 85 a4 ea ff ff 26 	movl   $0x2dab026,-0x155c(%rbp)
   18383:	b0 da 02 
   18386:	48 8d 05 b7 ec 00 00 	lea    0xecb7(%rip),%rax        # 27044 <g_25+0x4>
   1838d:	48 89 85 20 ed ff ff 	mov    %rax,-0x12e0(%rbp)
   18394:	48 8d 85 40 f4 ff ff 	lea    -0xbc0(%rbp),%rax
   1839b:	48 8d 15 7e 10 01 00 	lea    0x1107e(%rip),%rdx        # 29420 <g_4462+0x2160>
   183a2:	b9 36 00 00 00       	mov    $0x36,%ecx
   183a7:	48 89 c7             	mov    %rax,%rdi
   183aa:	48 89 d6             	mov    %rdx,%rsi
   183ad:	f3 48 a5             	rep movsq %ds:(%rsi),%es:(%rdi)
   183b0:	48 8d 85 40 f4 ff ff 	lea    -0xbc0(%rbp),%rax
   183b7:	48 05 00 01 00 00    	add    $0x100,%rax
   183bd:	48 89 85 28 ed ff ff 	mov    %rax,-0x12d8(%rbp)
   183c4:	c7 85 a8 ea ff ff 4c 	movl   $0xc00b44c,-0x1558(%rbp)
   183cb:	b4 00 0c 
   183ce:	c7 85 ac ea ff ff ff 	movl   $0xffffffff,-0x1554(%rbp)
   183d5:	ff ff ff 
   183d8:	c6 85 4d e9 ff ff 0b 	movb   $0xb,-0x16b3(%rbp)
   183df:	48 b8 69 e6 41 98 91 	movabs $0xc40df2919841e669,%rax
   183e6:	f2 0d c4 
   183e9:	48 89 85 30 ed ff ff 	mov    %rax,-0x12d0(%rbp)
   183f0:	c7 85 b0 ea ff ff cf 	movl   $0xc84784cf,-0x1550(%rbp)
   183f7:	84 47 c8 
   183fa:	48 8d 85 40 eb ff ff 	lea    -0x14c0(%rbp),%rax
   18401:	48 89 85 48 eb ff ff 	mov    %rax,-0x14b8(%rbp)
   18408:	48 8d 85 48 eb ff ff 	lea    -0x14b8(%rbp),%rax
   1840f:	48 89 85 50 eb ff ff 	mov    %rax,-0x14b0(%rbp)
   18416:	48 8d 85 50 eb ff ff 	lea    -0x14b0(%rbp),%rax
   1841d:	48 89 85 38 ed ff ff 	mov    %rax,-0x12c8(%rbp)
   18424:	48 8d 05 1d 42 01 00 	lea    0x1421d(%rip),%rax        # 2c648 <g_1061+0x8>
   1842b:	48 89 85 58 eb ff ff 	mov    %rax,-0x14a8(%rbp)
   18432:	48 8d 85 58 eb ff ff 	lea    -0x14a8(%rbp),%rax
   18439:	48 89 85 40 ed ff ff 	mov    %rax,-0x12c0(%rbp)
   18440:	c7 85 b4 ea ff ff bd 	movl   $0x638051bd,-0x154c(%rbp)
   18447:	51 80 63 
   1844a:	48 8d 85 f0 f5 ff ff 	lea    -0xa10(%rbp),%rax
   18451:	48 8d 15 e8 9d 00 00 	lea    0x9de8(%rip),%rdx        # 22240 <g_4473+0x11d0>
   18458:	b9 54 00 00 00       	mov    $0x54,%ecx
   1845d:	48 89 c7             	mov    %rax,%rdi
   18460:	48 89 d6             	mov    %rdx,%rsi
   18463:	f3 48 a5             	rep movsq %ds:(%rsi),%es:(%rdi)
   18466:	48 8b 05 1b ec 00 00 	mov    0xec1b(%rip),%rax        # 27088 <g_127>
   1846d:	48 83 c0 01          	add    $0x1,%rax
   18471:	48 89 05 10 ec 00 00 	mov    %rax,0xec10(%rip)        # 27088 <g_127>
   18478:	48 8b 05 09 ec 00 00 	mov    0xec09(%rip),%rax        # 27088 <g_127>
   1847f:	48 83 f8 01          	cmp    $0x1,%rax
   18483:	0f 8e 60 fe ff ff    	jle    182e9 <func_15+0xcb2>
   18489:	8b 95 b0 ed ff ff    	mov    -0x1250(%rbp),%edx
   1848f:	0f b6 85 c2 ed ff ff 	movzbl -0x123e(%rbp),%eax
   18496:	0f b6 c0             	movzbl %al,%eax
   18499:	09 d0                	or     %edx,%eax
   1849b:	89 85 b0 ed ff ff    	mov    %eax,-0x1250(%rbp)
   184a1:	8b 85 b0 ed ff ff    	mov    -0x1250(%rbp),%eax
   184a7:	85 c0                	test   %eax,%eax
   184a9:	0f 84 58 24 00 00    	je     1a907 <func_15+0x32d0>
   184af:	48 8d 05 82 41 01 00 	lea    0x14182(%rip),%rax        # 2c638 <g_1043>
   184b6:	48 89 85 10 ec ff ff 	mov    %rax,-0x13f0(%rbp)
   184bd:	c7 85 6c e9 ff ff ff 	movl   $0xffffffff,-0x1694(%rbp)
   184c4:	ff ff ff 
   184c7:	48 8d 05 72 ec 00 00 	lea    0xec72(%rip),%rax        # 27140 <g_1126>
   184ce:	48 89 85 18 ec ff ff 	mov    %rax,-0x13e8(%rbp)
   184d5:	48 8d 05 a4 eb 00 00 	lea    0xeba4(%rip),%rax        # 27080 <g_107>
   184dc:	48 89 85 08 eb ff ff 	mov    %rax,-0x14f8(%rbp)
   184e3:	48 c7 85 10 eb ff ff 	movq   $0x0,-0x14f0(%rbp)
   184ea:	00 00 00 00 
   184ee:	c7 85 d4 e9 ff ff 56 	movl   $0xfd68956,-0x162c(%rbp)
   184f5:	89 d6 0f 
   184f8:	48 8d 05 01 28 01 00 	lea    0x12801(%rip),%rax        # 2ad00 <g_2961>
   184ff:	48 89 85 20 ec ff ff 	mov    %rax,-0x13e0(%rbp)
   18506:	48 b8 68 90 95 eb 69 	movabs $0x2680e869eb959068,%rax
   1850d:	e8 80 26 
   18510:	48 89 85 28 ec ff ff 	mov    %rax,-0x13d8(%rbp)
   18517:	48 c7 85 30 ec ff ff 	movq   $0xfffffffffffffffc,-0x13d0(%rbp)
   1851e:	fc ff ff ff 
   18522:	48 8d 85 40 f4 ff ff 	lea    -0xbc0(%rbp),%rax
   18529:	48 8d 15 b0 9f 00 00 	lea    0x9fb0(%rip),%rdx        # 224e0 <g_4473+0x1470>
   18530:	b9 24 00 00 00       	mov    $0x24,%ecx
   18535:	48 89 c7             	mov    %rax,%rdi
   18538:	48 89 d6             	mov    %rdx,%rsi
   1853b:	f3 48 a5             	rep movsq %ds:(%rsi),%es:(%rdi)
   1853e:	48 8d 05 03 41 01 00 	lea    0x14103(%rip),%rax        # 2c648 <g_1061+0x8>
   18545:	48 89 85 70 f0 ff ff 	mov    %rax,-0xf90(%rbp)
   1854c:	48 8d 05 fd 40 01 00 	lea    0x140fd(%rip),%rax        # 2c650 <g_1061+0x10>
   18553:	48 89 85 78 f0 ff ff 	mov    %rax,-0xf88(%rbp)
   1855a:	48 8d 05 ef 40 01 00 	lea    0x140ef(%rip),%rax        # 2c650 <g_1061+0x10>
   18561:	48 89 85 80 f0 ff ff 	mov    %rax,-0xf80(%rbp)
   18568:	48 8d 05 e1 40 01 00 	lea    0x140e1(%rip),%rax        # 2c650 <g_1061+0x10>
   1856f:	48 89 85 88 f0 ff ff 	mov    %rax,-0xf78(%rbp)
   18576:	48 8d 05 cb 40 01 00 	lea    0x140cb(%rip),%rax        # 2c648 <g_1061+0x8>
   1857d:	48 89 85 90 f0 ff ff 	mov    %rax,-0xf70(%rbp)
   18584:	48 8d 05 bd 40 01 00 	lea    0x140bd(%rip),%rax        # 2c648 <g_1061+0x8>
   1858b:	48 89 85 98 f0 ff ff 	mov    %rax,-0xf68(%rbp)
   18592:	48 8d 05 af 40 01 00 	lea    0x140af(%rip),%rax        # 2c648 <g_1061+0x8>
   18599:	48 89 85 a0 f0 ff ff 	mov    %rax,-0xf60(%rbp)
   185a0:	48 8d 05 a9 40 01 00 	lea    0x140a9(%rip),%rax        # 2c650 <g_1061+0x10>
   185a7:	48 89 85 a8 f0 ff ff 	mov    %rax,-0xf58(%rbp)
   185ae:	48 8d 05 9b 40 01 00 	lea    0x1409b(%rip),%rax        # 2c650 <g_1061+0x10>
   185b5:	48 89 85 b0 f0 ff ff 	mov    %rax,-0xf50(%rbp)
   185bc:	48 8d 05 85 40 01 00 	lea    0x14085(%rip),%rax        # 2c648 <g_1061+0x8>
   185c3:	48 89 85 b8 f0 ff ff 	mov    %rax,-0xf48(%rbp)
   185ca:	48 c7 85 c0 f0 ff ff 	movq   $0x0,-0xf40(%rbp)
   185d1:	00 00 00 00 
   185d5:	48 8d 05 6c 40 01 00 	lea    0x1406c(%rip),%rax        # 2c648 <g_1061+0x8>
   185dc:	48 89 85 c8 f0 ff ff 	mov    %rax,-0xf38(%rbp)
   185e3:	48 8d 05 5e 40 01 00 	lea    0x1405e(%rip),%rax        # 2c648 <g_1061+0x8>
   185ea:	48 89 85 d0 f0 ff ff 	mov    %rax,-0xf30(%rbp)
   185f1:	48 c7 85 d8 f0 ff ff 	movq   $0x0,-0xf28(%rbp)
   185f8:	00 00 00 00 
   185fc:	48 8d 05 45 40 01 00 	lea    0x14045(%rip),%rax        # 2c648 <g_1061+0x8>
   18603:	48 89 85 e0 f0 ff ff 	mov    %rax,-0xf20(%rbp)
   1860a:	48 8d 05 3f 40 01 00 	lea    0x1403f(%rip),%rax        # 2c650 <g_1061+0x10>
   18611:	48 89 85 e8 f0 ff ff 	mov    %rax,-0xf18(%rbp)
   18618:	48 8d 05 31 40 01 00 	lea    0x14031(%rip),%rax        # 2c650 <g_1061+0x10>
   1861f:	48 89 85 f0 f0 ff ff 	mov    %rax,-0xf10(%rbp)
   18626:	48 8d 05 1b 40 01 00 	lea    0x1401b(%rip),%rax        # 2c648 <g_1061+0x8>
   1862d:	48 89 85 f8 f0 ff ff 	mov    %rax,-0xf08(%rbp)
   18634:	48 8d 05 0d 40 01 00 	lea    0x1400d(%rip),%rax        # 2c648 <g_1061+0x8>
   1863b:	48 89 85 00 f1 ff ff 	mov    %rax,-0xf00(%rbp)
   18642:	48 8d 05 ff 3f 01 00 	lea    0x13fff(%rip),%rax        # 2c648 <g_1061+0x8>
   18649:	48 89 85 08 f1 ff ff 	mov    %rax,-0xef8(%rbp)
   18650:	48 8d 05 f9 3f 01 00 	lea    0x13ff9(%rip),%rax        # 2c650 <g_1061+0x10>
   18657:	48 89 85 10 f1 ff ff 	mov    %rax,-0xef0(%rbp)
   1865e:	48 8d 05 eb 3f 01 00 	lea    0x13feb(%rip),%rax        # 2c650 <g_1061+0x10>
   18665:	48 89 85 18 f1 ff ff 	mov    %rax,-0xee8(%rbp)
   1866c:	48 8d 05 dd 3f 01 00 	lea    0x13fdd(%rip),%rax        # 2c650 <g_1061+0x10>
   18673:	48 89 85 20 f1 ff ff 	mov    %rax,-0xee0(%rbp)
   1867a:	48 8d 05 c7 3f 01 00 	lea    0x13fc7(%rip),%rax        # 2c648 <g_1061+0x8>
   18681:	48 89 85 28 f1 ff ff 	mov    %rax,-0xed8(%rbp)
   18688:	48 8d 05 c1 3f 01 00 	lea    0x13fc1(%rip),%rax        # 2c650 <g_1061+0x10>
   1868f:	48 89 85 30 f1 ff ff 	mov    %rax,-0xed0(%rbp)
   18696:	48 c7 85 38 f1 ff ff 	movq   $0x0,-0xec8(%rbp)
   1869d:	00 00 00 00 
   186a1:	48 8d 05 a8 3f 01 00 	lea    0x13fa8(%rip),%rax        # 2c650 <g_1061+0x10>
   186a8:	48 89 85 40 f1 ff ff 	mov    %rax,-0xec0(%rbp)
   186af:	48 8d 05 9a 3f 01 00 	lea    0x13f9a(%rip),%rax        # 2c650 <g_1061+0x10>
   186b6:	48 89 85 48 f1 ff ff 	mov    %rax,-0xeb8(%rbp)
   186bd:	48 c7 85 50 f1 ff ff 	movq   $0x0,-0xeb0(%rbp)
   186c4:	00 00 00 00 
   186c8:	48 8d 05 81 3f 01 00 	lea    0x13f81(%rip),%rax        # 2c650 <g_1061+0x10>
   186cf:	48 89 85 58 f1 ff ff 	mov    %rax,-0xea8(%rbp)
   186d6:	48 8d 85 70 f0 ff ff 	lea    -0xf90(%rbp),%rax
   186dd:	48 05 b8 00 00 00    	add    $0xb8,%rax
   186e3:	48 89 85 38 ec ff ff 	mov    %rax,-0x13c8(%rbp)
   186ea:	66 c7 85 50 e9 ff ff 	movw   $0x1,-0x16b0(%rbp)
   186f1:	01 00 
   186f3:	48 c7 85 00 ee ff ff 	movq   $0x0,-0x1200(%rbp)
   186fa:	00 00 00 00 
   186fe:	48 c7 85 08 ee ff ff 	movq   $0x0,-0x11f8(%rbp)
   18705:	00 00 00 00 
   18709:	48 c7 85 10 ee ff ff 	movq   $0x0,-0x11f0(%rbp)
   18710:	00 00 00 00 
   18714:	48 c7 85 18 ee ff ff 	movq   $0x0,-0x11e8(%rbp)
   1871b:	00 00 00 00 
   1871f:	48 c7 85 20 ee ff ff 	movq   $0x0,-0x11e0(%rbp)
   18726:	00 00 00 00 
   1872a:	48 8d 85 30 ee ff ff 	lea    -0x11d0(%rbp),%rax
   18731:	48 83 c0 18          	add    $0x18,%rax
   18735:	48 89 85 18 eb ff ff 	mov    %rax,-0x14e8(%rbp)
   1873c:	48 8d 85 18 eb ff ff 	lea    -0x14e8(%rbp),%rax
   18743:	48 89 85 40 ec ff ff 	mov    %rax,-0x13c0(%rbp)
   1874a:	48 8d 05 9f 3e 01 00 	lea    0x13e9f(%rip),%rax        # 2c5f0 <g_201+0x30>
   18751:	48 89 85 20 eb ff ff 	mov    %rax,-0x14e0(%rbp)
   18758:	48 8d 85 20 eb ff ff 	lea    -0x14e0(%rbp),%rax
   1875f:	48 89 85 48 ec ff ff 	mov    %rax,-0x13b8(%rbp)
   18766:	c6 85 48 e9 ff ff a2 	movb   $0xa2,-0x16b8(%rbp)
   1876d:	48 c7 85 28 eb ff ff 	movq   $0x0,-0x14d8(%rbp)
   18774:	00 00 00 00 
   18778:	48 8d 85 28 eb ff ff 	lea    -0x14d8(%rbp),%rax
   1877f:	48 89 85 30 eb ff ff 	mov    %rax,-0x14d0(%rbp)
   18786:	c7 85 74 ed ff ff b9 	movl   $0xb9ffb9b9,-0x128c(%rbp)
   1878d:	b9 ff b9 
   18790:	66 c7 85 78 ed ff ff 	movw   $0xffb9,-0x1288(%rbp)
   18797:	b9 ff 
   18799:	c7 85 7a ed ff ff b9 	movl   $0xb9ffb9b9,-0x1286(%rbp)
   187a0:	b9 ff b9 
   187a3:	66 c7 85 7e ed ff ff 	movw   $0xffb9,-0x1282(%rbp)
   187aa:	b9 ff 
   187ac:	c6 85 49 e9 ff ff 00 	movb   $0x0,-0x16b7(%rbp)
   187b3:	48 b8 21 1b c2 af c4 	movabs $0xf29459c4afc21b21,%rax
   187ba:	59 94 f2 
   187bd:	48 89 85 90 ee ff ff 	mov    %rax,-0x1170(%rbp)
   187c4:	48 89 85 98 ee ff ff 	mov    %rax,-0x1168(%rbp)
   187cb:	48 89 85 a0 ee ff ff 	mov    %rax,-0x1160(%rbp)
   187d2:	48 89 85 a8 ee ff ff 	mov    %rax,-0x1158(%rbp)
   187d9:	48 89 85 b0 ee ff ff 	mov    %rax,-0x1150(%rbp)
   187e0:	48 89 85 b8 ee ff ff 	mov    %rax,-0x1148(%rbp)
   187e7:	48 89 85 c0 ee ff ff 	mov    %rax,-0x1140(%rbp)
   187ee:	48 89 85 c8 ee ff ff 	mov    %rax,-0x1138(%rbp)
   187f5:	48 89 85 d0 ee ff ff 	mov    %rax,-0x1130(%rbp)
   187fc:	48 b8 9b 9b 9b 9b 9b 	movabs $0x9b9b9b9b9b9b9b9b,%rax
   18803:	9b 9b 9b 
   18806:	48 89 45 c0          	mov    %rax,-0x40(%rbp)
   1880a:	c7 85 84 e9 ff ff 00 	movl   $0x0,-0x167c(%rbp)
   18811:	00 00 00 
   18814:	eb 1e                	jmp    18834 <func_15+0x11fd>
   18816:	8b 85 84 e9 ff ff    	mov    -0x167c(%rbp),%eax
   1881c:	48 98                	cltq   
   1881e:	48 8d 15 8b 22 01 00 	lea    0x1228b(%rip),%rdx        # 2aab0 <g_1206>
   18825:	48 89 94 c5 30 ee ff 	mov    %rdx,-0x11d0(%rbp,%rax,8)
   1882c:	ff 
   1882d:	83 85 84 e9 ff ff 01 	addl   $0x1,-0x167c(%rbp)
   18834:	83 bd 84 e9 ff ff 04 	cmpl   $0x4,-0x167c(%rbp)
   1883b:	7e d9                	jle    18816 <func_15+0x11df>
   1883d:	c7 85 84 e9 ff ff 00 	movl   $0x0,-0x167c(%rbp)
   18844:	00 00 00 
   18847:	eb 1e                	jmp    18867 <func_15+0x1230>
   18849:	8b 85 84 e9 ff ff    	mov    -0x167c(%rbp),%eax
   1884f:	48 98                	cltq   
   18851:	48 8d 15 f8 21 01 00 	lea    0x121f8(%rip),%rdx        # 2aa50 <g_258>
   18858:	48 89 94 c5 50 ed ff 	mov    %rdx,-0x12b0(%rbp,%rax,8)
   1885f:	ff 
   18860:	83 85 84 e9 ff ff 01 	addl   $0x1,-0x167c(%rbp)
   18867:	83 bd 84 e9 ff ff 00 	cmpl   $0x0,-0x167c(%rbp)
   1886e:	7e d9                	jle    18849 <func_15+0x1212>
   18870:	c7 85 84 e9 ff ff 00 	movl   $0x0,-0x167c(%rbp)
   18877:	00 00 00 
   1887a:	eb 51                	jmp    188cd <func_15+0x1296>
   1887c:	c7 85 88 e9 ff ff 00 	movl   $0x0,-0x1678(%rbp)
   18883:	00 00 00 
   18886:	eb 35                	jmp    188bd <func_15+0x1286>
   18888:	8b 85 88 e9 ff ff    	mov    -0x1678(%rbp),%eax
   1888e:	48 63 c8             	movslq %eax,%rcx
   18891:	8b 85 84 e9 ff ff    	mov    -0x167c(%rbp),%eax
   18897:	48 63 d0             	movslq %eax,%rdx
   1889a:	48 89 d0             	mov    %rdx,%rax
   1889d:	48 01 c0             	add    %rax,%rax
   188a0:	48 01 d0             	add    %rdx,%rax
   188a3:	48 8d 5d d0          	lea    -0x30(%rbp),%rbx
   188a7:	48 01 d8             	add    %rbx,%rax
   188aa:	48 01 c8             	add    %rcx,%rax
   188ad:	48 2d 83 12 00 00    	sub    $0x1283,%rax
   188b3:	c6 00 fb             	movb   $0xfb,(%rax)
   188b6:	83 85 88 e9 ff ff 01 	addl   $0x1,-0x1678(%rbp)
   188bd:	83 bd 88 e9 ff ff 02 	cmpl   $0x2,-0x1678(%rbp)
   188c4:	7e c2                	jle    18888 <func_15+0x1251>
   188c6:	83 85 84 e9 ff ff 01 	addl   $0x1,-0x167c(%rbp)
   188cd:	83 bd 84 e9 ff ff 00 	cmpl   $0x0,-0x167c(%rbp)
   188d4:	7e a6                	jle    1887c <func_15+0x1245>
   188d6:	48 83 bd 10 ec ff ff 	cmpq   $0x0,-0x13f0(%rbp)
   188dd:	00 
   188de:	0f 95 c0             	setne  %al
   188e1:	0f b6 c0             	movzbl %al,%eax
   188e4:	be 06 00 00 00       	mov    $0x6,%esi
   188e9:	89 c7                	mov    %eax,%edi
   188eb:	e8 45 4a ff ff       	callq  d335 <safe_rshift_func_int8_t_s_s>
   188f0:	84 c0                	test   %al,%al
   188f2:	0f 84 d3 02 00 00    	je     18bcb <func_15+0x1594>
   188f8:	c7 85 dc e9 ff ff 64 	movl   $0x81243464,-0x1624(%rbp)
   188ff:	34 24 81 
   18902:	48 8d 05 17 22 01 00 	lea    0x12217(%rip),%rax        # 2ab20 <g_2308>
   18909:	48 89 85 58 ec ff ff 	mov    %rax,-0x13a8(%rbp)
   18910:	48 8d 05 f2 e7 00 00 	lea    0xe7f2(%rip),%rax        # 27109 <g_802>
   18917:	48 89 85 60 ec ff ff 	mov    %rax,-0x13a0(%rbp)
   1891e:	8b 85 6c e9 ff ff    	mov    -0x1694(%rbp),%eax
   18924:	0f bf d8             	movswl %ax,%ebx
   18927:	44 8b 25 6a e7 00 00 	mov    0xe76a(%rip),%r12d        # 27098 <g_132>
   1892e:	8b 85 6c e9 ff ff    	mov    -0x1694(%rbp),%eax
   18934:	0f b6 c0             	movzbl %al,%eax
   18937:	be 5f 00 00 00       	mov    $0x5f,%esi
   1893c:	89 c7                	mov    %eax,%edi
   1893e:	e8 98 52 ff ff       	callq  dbdb <safe_div_func_uint8_t_u_u>
   18943:	0f b6 c0             	movzbl %al,%eax
   18946:	44 89 e6             	mov    %r12d,%esi
   18949:	89 c7                	mov    %eax,%edi
   1894b:	e8 2a 55 ff ff       	callq  de7a <safe_rshift_func_uint16_t_u_u>
   18950:	44 0f b7 e0          	movzwl %ax,%r12d
   18954:	8b 85 24 e9 ff ff    	mov    -0x16dc(%rbp),%eax
   1895a:	0f b6 c0             	movzbl %al,%eax
   1895d:	be 02 00 00 00       	mov    $0x2,%esi
   18962:	89 c7                	mov    %eax,%edi
   18964:	e8 9c 52 ff ff       	callq  dc05 <safe_lshift_func_uint8_t_u_s>
   18969:	0f b6 c0             	movzbl %al,%eax
   1896c:	44 89 e6             	mov    %r12d,%esi
   1896f:	89 c7                	mov    %eax,%edi
   18971:	e8 8f 4c ff ff       	callq  d605 <safe_sub_func_int32_t_s_s>
   18976:	be fa 00 00 00       	mov    $0xfa,%esi
   1897b:	bf 00 00 00 00       	mov    $0x0,%edi
   18980:	e8 f3 51 ff ff       	callq  db78 <safe_sub_func_uint8_t_u_u>
   18985:	0f b6 d0             	movzbl %al,%edx
   18988:	8b 85 24 e9 ff ff    	mov    -0x16dc(%rbp),%eax
   1898e:	89 d6                	mov    %edx,%esi
   18990:	89 c7                	mov    %eax,%edi
   18992:	e8 66 55 ff ff       	callq  defd <safe_mod_func_uint32_t_u_u>
   18997:	89 de                	mov    %ebx,%esi
   18999:	bf 01 00 00 00       	mov    $0x1,%edi
   1899e:	e8 52 4a ff ff       	callq  d3f5 <safe_mul_func_int16_t_s_s>
   189a3:	98                   	cwtl   
   189a4:	39 85 24 e9 ff ff    	cmp    %eax,-0x16dc(%rbp)
   189aa:	0f 92 c0             	setb   %al
   189ad:	0f b6 c0             	movzbl %al,%eax
   189b0:	39 85 24 e9 ff ff    	cmp    %eax,-0x16dc(%rbp)
   189b6:	74 09                	je     189c1 <func_15+0x138a>
   189b8:	83 bd dc e9 ff ff 00 	cmpl   $0x0,-0x1624(%rbp)
   189bf:	74 07                	je     189c8 <func_15+0x1391>
   189c1:	ba 01 00 00 00       	mov    $0x1,%edx
   189c6:	eb 05                	jmp    189cd <func_15+0x1396>
   189c8:	ba 00 00 00 00       	mov    $0x0,%edx
   189cd:	48 8b 05 44 21 01 00 	mov    0x12144(%rip),%rax        # 2ab18 <g_2240>
   189d4:	48 8b 00             	mov    (%rax),%rax
   189d7:	8b 00                	mov    (%rax),%eax
   189d9:	09 d0                	or     %edx,%eax
   189db:	48 98                	cltq   
   189dd:	48 83 e0 f7          	and    $0xfffffffffffffff7,%rax
   189e1:	48 89 c2             	mov    %rax,%rdx
   189e4:	48 8b 85 18 e9 ff ff 	mov    -0x16e8(%rbp),%rax
   189eb:	8b 00                	mov    (%rax),%eax
   189ed:	89 c1                	mov    %eax,%ecx
   189ef:	89 d0                	mov    %edx,%eax
   189f1:	21 c8                	and    %ecx,%eax
   189f3:	89 c2                	mov    %eax,%edx
   189f5:	48 8b 85 18 e9 ff ff 	mov    -0x16e8(%rbp),%rax
   189fc:	89 10                	mov    %edx,(%rax)
   189fe:	48 8d 85 60 e9 ff ff 	lea    -0x16a0(%rbp),%rax
   18a05:	48 89 85 18 f4 ff ff 	mov    %rax,-0xbe8(%rbp)
   18a0c:	4c 8b a5 18 f4 ff ff 	mov    -0xbe8(%rbp),%r12
   18a13:	8b 85 24 e9 ff ff    	mov    -0x16dc(%rbp),%eax
   18a19:	0f b7 d8             	movzwl %ax,%ebx
   18a1c:	8b 85 dc e9 ff ff    	mov    -0x1624(%rbp),%eax
   18a22:	0f be c0             	movsbl %al,%eax
   18a25:	be 01 00 00 00       	mov    $0x1,%esi
   18a2a:	89 c7                	mov    %eax,%edi
   18a2c:	e8 70 48 ff ff       	callq  d2a1 <safe_lshift_func_int8_t_s_s>
   18a31:	0f be c0             	movsbl %al,%eax
   18a34:	48 8d 95 6c e9 ff ff 	lea    -0x1694(%rbp),%rdx
   18a3b:	4c 89 e1             	mov    %r12,%rcx
   18a3e:	89 de                	mov    %ebx,%esi
   18a40:	89 c7                	mov    %eax,%edi
   18a42:	e8 2b 37 00 00       	callq  1c172 <func_30>
   18a47:	48 8b 95 58 ec ff ff 	mov    -0x13a8(%rbp),%rdx
   18a4e:	48 89 02             	mov    %rax,(%rdx)
   18a51:	48 8b 85 58 ec ff ff 	mov    -0x13a8(%rbp),%rax
   18a58:	48 8b 00             	mov    (%rax),%rax
   18a5b:	8b 00                	mov    (%rax),%eax
   18a5d:	0f bf d8             	movswl %ax,%ebx
   18a60:	0f be 95 42 e9 ff ff 	movsbl -0x16be(%rbp),%edx
   18a67:	48 8b 05 8a 20 01 00 	mov    0x1208a(%rip),%rax        # 2aaf8 <g_1890>
   18a6e:	48 8b 08             	mov    (%rax),%rcx
   18a71:	48 8d 85 c8 ea ff ff 	lea    -0x1538(%rbp),%rax
   18a78:	48 39 c1             	cmp    %rax,%rcx
   18a7b:	0f 95 c0             	setne  %al
   18a7e:	0f b6 c0             	movzbl %al,%eax
   18a81:	39 85 24 e9 ff ff    	cmp    %eax,-0x16dc(%rbp)
   18a87:	0f 96 c0             	setbe  %al
   18a8a:	0f b6 c0             	movzbl %al,%eax
   18a8d:	89 d6                	mov    %edx,%esi
   18a8f:	89 c7                	mov    %eax,%edi
   18a91:	e8 20 4b ff ff       	callq  d5b6 <safe_add_func_int32_t_s_s>
   18a96:	83 f0 08             	xor    $0x8,%eax
   18a99:	98                   	cwtl   
   18a9a:	89 de                	mov    %ebx,%esi
   18a9c:	89 c7                	mov    %eax,%edi
   18a9e:	e8 10 49 ff ff       	callq  d3b3 <safe_add_func_int16_t_s_s>
   18aa3:	98                   	cwtl   
   18aa4:	be 00 00 00 00       	mov    $0x0,%esi
   18aa9:	89 c7                	mov    %eax,%edi
   18aab:	e8 36 54 ff ff       	callq  dee6 <safe_mul_func_uint32_t_u_u>
   18ab0:	85 c0                	test   %eax,%eax
   18ab2:	74 07                	je     18abb <func_15+0x1484>
   18ab4:	b8 01 00 00 00       	mov    $0x1,%eax
   18ab9:	eb 05                	jmp    18ac0 <func_15+0x1489>
   18abb:	b8 00 00 00 00       	mov    $0x0,%eax
   18ac0:	0f b7 c0             	movzwl %ax,%eax
   18ac3:	be 02 00 00 00       	mov    $0x2,%esi
   18ac8:	89 c7                	mov    %eax,%edi
   18aca:	e8 79 53 ff ff       	callq  de48 <safe_rshift_func_uint16_t_u_s>
   18acf:	0f b7 d0             	movzwl %ax,%edx
   18ad2:	8b 05 bc e6 00 00    	mov    0xe6bc(%rip),%eax        # 27194 <g_2690>
   18ad8:	0f b7 c0             	movzwl %ax,%eax
   18adb:	89 d6                	mov    %edx,%esi
   18add:	89 c7                	mov    %eax,%edi
   18adf:	e8 64 53 ff ff       	callq  de48 <safe_rshift_func_uint16_t_u_s>
   18ae4:	89 c2                	mov    %eax,%edx
   18ae6:	48 8b 05 53 20 01 00 	mov    0x12053(%rip),%rax        # 2ab40 <g_2467>
   18aed:	88 10                	mov    %dl,(%rax)
   18aef:	0f b6 10             	movzbl (%rax),%edx
   18af2:	48 8b 85 60 ec ff ff 	mov    -0x13a0(%rbp),%rax
   18af9:	0f b6 00             	movzbl (%rax),%eax
   18afc:	09 c2                	or     %eax,%edx
   18afe:	48 8b 85 60 ec ff ff 	mov    -0x13a0(%rbp),%rax
   18b05:	88 10                	mov    %dl,(%rax)
   18b07:	48 8b 85 60 ec ff ff 	mov    -0x13a0(%rbp),%rax
   18b0e:	0f b6 00             	movzbl (%rax),%eax
   18b11:	0f be d8             	movsbl %al,%ebx
   18b14:	8b 85 24 e9 ff ff    	mov    -0x16dc(%rbp),%eax
   18b1a:	0f be d0             	movsbl %al,%edx
   18b1d:	48 8b 85 78 eb ff ff 	mov    -0x1488(%rbp),%rax
   18b24:	0f b6 00             	movzbl (%rax),%eax
   18b27:	81 bd 24 e9 ff ff cb 	cmpl   $0x84cb,-0x16dc(%rbp)
   18b2e:	84 00 00 
   18b31:	0f 96 c1             	setbe  %cl
   18b34:	31 c1                	xor    %eax,%ecx
   18b36:	48 8b 85 78 eb ff ff 	mov    -0x1488(%rbp),%rax
   18b3d:	88 08                	mov    %cl,(%rax)
   18b3f:	48 8b 85 78 eb ff ff 	mov    -0x1488(%rbp),%rax
   18b46:	0f b6 00             	movzbl (%rax),%eax
   18b49:	0f be c0             	movsbl %al,%eax
   18b4c:	89 d6                	mov    %edx,%esi
   18b4e:	89 c7                	mov    %eax,%edi
   18b50:	e8 9d 46 ff ff       	callq  d1f2 <safe_sub_func_int8_t_s_s>
   18b55:	66 98                	cbtw   
   18b57:	0f b7 c0             	movzwl %ax,%eax
   18b5a:	be 01 00 00 00       	mov    $0x1,%esi
   18b5f:	89 c7                	mov    %eax,%edi
   18b61:	e8 e2 52 ff ff       	callq  de48 <safe_rshift_func_uint16_t_u_s>
   18b66:	89 de                	mov    %ebx,%esi
   18b68:	bf 01 00 00 00       	mov    $0x1,%edi
   18b6d:	e8 f8 46 ff ff       	callq  d26a <safe_div_func_int8_t_s_s>
   18b72:	0f be c0             	movsbl %al,%eax
   18b75:	39 85 24 e9 ff ff    	cmp    %eax,-0x16dc(%rbp)
   18b7b:	0f 97 c0             	seta   %al
   18b7e:	0f b6 d0             	movzbl %al,%edx
   18b81:	0f b6 05 fe e5 00 00 	movzbl 0xe5fe(%rip),%eax        # 27186 <g_2495+0x6>
   18b88:	66 98                	cbtw   
   18b8a:	21 d0                	and    %edx,%eax
   18b8c:	0f bf d0             	movswl %ax,%edx
   18b8f:	8b 85 24 e9 ff ff    	mov    -0x16dc(%rbp),%eax
   18b95:	98                   	cwtl   
   18b96:	89 d6                	mov    %edx,%esi
   18b98:	89 c7                	mov    %eax,%edi
   18b9a:	e8 14 48 ff ff       	callq  d3b3 <safe_add_func_int16_t_s_s>
   18b9f:	98                   	cwtl   
   18ba0:	39 85 24 e9 ff ff    	cmp    %eax,-0x16dc(%rbp)
   18ba6:	0f 92 c0             	setb   %al
   18ba9:	0f b6 d0             	movzbl %al,%edx
   18bac:	48 8b 85 18 e9 ff ff 	mov    -0x16e8(%rbp),%rax
   18bb3:	8b 00                	mov    (%rax),%eax
   18bb5:	39 c2                	cmp    %eax,%edx
   18bb7:	0f 94 c2             	sete   %dl
   18bba:	48 8b 05 b7 3a 01 00 	mov    0x13ab7(%rip),%rax        # 2c678 <g_2194>
   18bc1:	0f b6 d2             	movzbl %dl,%edx
   18bc4:	89 10                	mov    %edx,(%rax)
   18bc6:	e9 96 01 00 00       	jmpq   18d61 <func_15+0x172a>
   18bcb:	48 8d 85 f0 f5 ff ff 	lea    -0xa10(%rbp),%rax
   18bd2:	48 89 85 50 ec ff ff 	mov    %rax,-0x13b0(%rbp)
   18bd9:	66 c7 85 52 e9 ff ff 	movw   $0x6,-0x16ae(%rbp)
   18be0:	06 00 
   18be2:	c7 85 d8 e9 ff ff 02 	movl   $0x2,-0x1628(%rbp)
   18be9:	00 00 00 
   18bec:	c7 85 8c e9 ff ff 00 	movl   $0x0,-0x1674(%rbp)
   18bf3:	00 00 00 
   18bf6:	eb 1a                	jmp    18c12 <func_15+0x15db>
   18bf8:	8b 85 8c e9 ff ff    	mov    -0x1674(%rbp),%eax
   18bfe:	48 98                	cltq   
   18c00:	c7 84 85 90 f8 ff ff 	movl   $0xa2988a3e,-0x770(%rbp,%rax,4)
   18c07:	3e 8a 98 a2 
   18c0b:	83 85 8c e9 ff ff 01 	addl   $0x1,-0x1674(%rbp)
   18c12:	83 bd 8c e9 ff ff 05 	cmpl   $0x5,-0x1674(%rbp)
   18c19:	7e dd                	jle    18bf8 <func_15+0x15c1>
   18c1b:	c7 85 8c e9 ff ff 00 	movl   $0x0,-0x1674(%rbp)
   18c22:	00 00 00 
   18c25:	eb 1e                	jmp    18c45 <func_15+0x160e>
   18c27:	8b 85 8c e9 ff ff    	mov    -0x1674(%rbp),%eax
   18c2d:	48 98                	cltq   
   18c2f:	48 8d 95 d0 ea ff ff 	lea    -0x1530(%rbp),%rdx
   18c36:	48 89 94 c5 f0 f5 ff 	mov    %rdx,-0xa10(%rbp,%rax,8)
   18c3d:	ff 
   18c3e:	83 85 8c e9 ff ff 01 	addl   $0x1,-0x1674(%rbp)
   18c45:	83 bd 8c e9 ff ff 00 	cmpl   $0x0,-0x1674(%rbp)
   18c4c:	7e d9                	jle    18c27 <func_15+0x15f0>
   18c4e:	8b 9d 6c e9 ff ff    	mov    -0x1694(%rbp),%ebx
   18c54:	48 8b 05 f5 1d 01 00 	mov    0x11df5(%rip),%rax        # 2aa50 <g_258>
   18c5b:	8b 95 24 e9 ff ff    	mov    -0x16dc(%rbp),%edx
   18c61:	89 10                	mov    %edx,(%rax)
   18c63:	8b 00                	mov    (%rax),%eax
   18c65:	41 89 c4             	mov    %eax,%r12d
   18c68:	be ff ff ff ff       	mov    $0xffffffff,%esi
   18c6d:	bf 00 00 00 00       	mov    $0x0,%edi
   18c72:	e8 59 52 ff ff       	callq  ded0 <safe_sub_func_uint32_t_u_u>
   18c77:	0f b7 95 52 e9 ff ff 	movzwl -0x16ae(%rbp),%edx
   18c7e:	39 d0                	cmp    %edx,%eax
   18c80:	0f 96 c0             	setbe  %al
   18c83:	0f b6 d0             	movzbl %al,%edx
   18c86:	8b 85 98 f8 ff ff    	mov    -0x768(%rbp),%eax
   18c8c:	39 c2                	cmp    %eax,%edx
   18c8e:	0f 94 c0             	sete   %al
   18c91:	0f b6 c0             	movzbl %al,%eax
   18c94:	39 85 24 e9 ff ff    	cmp    %eax,-0x16dc(%rbp)
   18c9a:	0f 95 c0             	setne  %al
   18c9d:	0f b6 c0             	movzbl %al,%eax
   18ca0:	44 21 e0             	and    %r12d,%eax
   18ca3:	44 0f b7 e0          	movzwl %ax,%r12d
   18ca7:	8b 85 98 f8 ff ff    	mov    -0x768(%rbp),%eax
   18cad:	98                   	cwtl   
   18cae:	be 02 00 00 00       	mov    $0x2,%esi
   18cb3:	89 c7                	mov    %eax,%edi
   18cb5:	e8 a9 48 ff ff       	callq  d563 <safe_rshift_func_int16_t_s_u>
   18cba:	0f b7 c0             	movzwl %ax,%eax
   18cbd:	44 89 e6             	mov    %r12d,%esi
   18cc0:	89 c7                	mov    %eax,%edi
   18cc2:	e8 95 50 ff ff       	callq  dd5c <safe_mod_func_uint16_t_u_u>
   18cc7:	0f b7 c0             	movzwl %ax,%eax
   18cca:	0b 85 24 e9 ff ff    	or     -0x16dc(%rbp),%eax
   18cd0:	39 85 24 e9 ff ff    	cmp    %eax,-0x16dc(%rbp)
   18cd6:	0f 97 c0             	seta   %al
   18cd9:	0f b6 c0             	movzbl %al,%eax
   18cdc:	23 85 24 e9 ff ff    	and    -0x16dc(%rbp),%eax
   18ce2:	83 c8 01             	or     $0x1,%eax
   18ce5:	89 de                	mov    %ebx,%esi
   18ce7:	89 c7                	mov    %eax,%edi
   18ce9:	e8 11 4a ff ff       	callq  d6ff <safe_div_func_int32_t_s_s>
   18cee:	39 85 24 e9 ff ff    	cmp    %eax,-0x16dc(%rbp)
   18cf4:	0f 94 c0             	sete   %al
   18cf7:	0f b6 c0             	movzbl %al,%eax
   18cfa:	39 85 24 e9 ff ff    	cmp    %eax,-0x16dc(%rbp)
   18d00:	0f 95 c0             	setne  %al
   18d03:	0f b6 c0             	movzbl %al,%eax
   18d06:	21 85 d8 e9 ff ff    	and    %eax,-0x1628(%rbp)
   18d0c:	8b 85 d8 e9 ff ff    	mov    -0x1628(%rbp),%eax
   18d12:	89 85 6c e9 ff ff    	mov    %eax,-0x1694(%rbp)
   18d18:	8b 85 6c e9 ff ff    	mov    -0x1694(%rbp),%eax
   18d1e:	85 c0                	test   %eax,%eax
   18d20:	75 0a                	jne    18d2c <func_15+0x16f5>
   18d22:	66 83 bd 52 e9 ff ff 	cmpw   $0x0,-0x16ae(%rbp)
   18d29:	00 
   18d2a:	74 07                	je     18d33 <func_15+0x16fc>
   18d2c:	b8 01 00 00 00       	mov    $0x1,%eax
   18d31:	eb 05                	jmp    18d38 <func_15+0x1701>
   18d33:	b8 00 00 00 00       	mov    $0x0,%eax
   18d38:	83 f0 01             	xor    $0x1,%eax
   18d3b:	48 63 d0             	movslq %eax,%rdx
   18d3e:	8b 85 24 e9 ff ff    	mov    -0x16dc(%rbp),%eax
   18d44:	48 39 c2             	cmp    %rax,%rdx
   18d47:	0f 9d c0             	setge  %al
   18d4a:	0f b6 c8             	movzbl %al,%ecx
   18d4d:	48 8b 05 24 39 01 00 	mov    0x13924(%rip),%rax        # 2c678 <g_2194>
   18d54:	8b 10                	mov    (%rax),%edx
   18d56:	48 8b 05 1b 39 01 00 	mov    0x1391b(%rip),%rax        # 2c678 <g_2194>
   18d5d:	31 ca                	xor    %ecx,%edx
   18d5f:	89 10                	mov    %edx,(%rax)
   18d61:	48 8b 85 18 ec ff ff 	mov    -0x13e8(%rbp),%rax
   18d68:	48 c7 00 00 00 00 00 	movq   $0x0,(%rax)
   18d6f:	48 8b 85 08 eb ff ff 	mov    -0x14f8(%rbp),%rax
   18d76:	48 8b 95 18 ec ff ff 	mov    -0x13e8(%rbp),%rdx
   18d7d:	48 8b 12             	mov    (%rdx),%rdx
   18d80:	48 89 10             	mov    %rdx,(%rax)
   18d83:	48 8b 00             	mov    (%rax),%rax
   18d86:	48 ba c4 be 1c c1 5a 	movabs $0x2b233d5ac11cbec4,%rdx
   18d8d:	3d 23 2b 
   18d90:	48 39 d0             	cmp    %rdx,%rax
   18d93:	0f 84 2d 08 00 00    	je     195c6 <func_15+0x1f8f>
   18d99:	48 8d 85 80 ed ff ff 	lea    -0x1280(%rbp),%rax
   18da0:	48 89 85 30 ef ff ff 	mov    %rax,-0x10d0(%rbp)
   18da7:	48 c7 85 38 ef ff ff 	movq   $0x0,-0x10c8(%rbp)
   18dae:	00 00 00 00 
   18db2:	48 c7 85 40 ef ff ff 	movq   $0x0,-0x10c0(%rbp)
   18db9:	00 00 00 00 
   18dbd:	48 8d 85 80 ed ff ff 	lea    -0x1280(%rbp),%rax
   18dc4:	48 89 85 48 ef ff ff 	mov    %rax,-0x10b8(%rbp)
   18dcb:	48 c7 85 50 ef ff ff 	movq   $0x0,-0x10b0(%rbp)
   18dd2:	00 00 00 00 
   18dd6:	48 c7 85 58 ef ff ff 	movq   $0x0,-0x10a8(%rbp)
   18ddd:	00 00 00 00 
   18de1:	48 8d 85 80 ed ff ff 	lea    -0x1280(%rbp),%rax
   18de8:	48 89 85 60 ef ff ff 	mov    %rax,-0x10a0(%rbp)
   18def:	48 c7 85 68 ef ff ff 	movq   $0x0,-0x1098(%rbp)
   18df6:	00 00 00 00 
   18dfa:	c7 85 60 ea ff ff 01 	movl   $0x1,-0x15a0(%rbp)
   18e01:	00 00 00 
   18e04:	48 c7 85 b8 ec ff ff 	movq   $0x0,-0x1348(%rbp)
   18e0b:	00 00 00 00 
   18e0f:	c7 85 64 ea ff ff 7a 	movl   $0xbb762b7a,-0x159c(%rbp)
   18e16:	2b 76 bb 
   18e19:	c7 85 68 ea ff ff 01 	movl   $0x1,-0x1598(%rbp)
   18e20:	00 00 00 
   18e23:	48 c7 85 c0 ec ff ff 	movq   $0x0,-0x1340(%rbp)
   18e2a:	00 00 00 00 
   18e2e:	48 8d 05 b3 37 01 00 	lea    0x137b3(%rip),%rax        # 2c5e8 <g_201+0x28>
   18e35:	48 89 85 40 eb ff ff 	mov    %rax,-0x14c0(%rbp)
   18e3c:	48 8d 85 40 eb ff ff 	lea    -0x14c0(%rbp),%rax
   18e43:	48 89 85 90 f8 ff ff 	mov    %rax,-0x770(%rbp)
   18e4a:	48 8d 85 40 eb ff ff 	lea    -0x14c0(%rbp),%rax
   18e51:	48 89 85 98 f8 ff ff 	mov    %rax,-0x768(%rbp)
   18e58:	48 8d 85 40 eb ff ff 	lea    -0x14c0(%rbp),%rax
   18e5f:	48 89 85 a0 f8 ff ff 	mov    %rax,-0x760(%rbp)
   18e66:	48 8d 85 40 eb ff ff 	lea    -0x14c0(%rbp),%rax
   18e6d:	48 89 85 a8 f8 ff ff 	mov    %rax,-0x758(%rbp)
   18e74:	48 8d 85 40 eb ff ff 	lea    -0x14c0(%rbp),%rax
   18e7b:	48 89 85 b0 f8 ff ff 	mov    %rax,-0x750(%rbp)
   18e82:	48 8d 85 40 eb ff ff 	lea    -0x14c0(%rbp),%rax
   18e89:	48 89 85 b8 f8 ff ff 	mov    %rax,-0x748(%rbp)
   18e90:	48 8d 85 40 eb ff ff 	lea    -0x14c0(%rbp),%rax
   18e97:	48 89 85 c0 f8 ff ff 	mov    %rax,-0x740(%rbp)
   18e9e:	48 8d 85 40 eb ff ff 	lea    -0x14c0(%rbp),%rax
   18ea5:	48 89 85 c8 f8 ff ff 	mov    %rax,-0x738(%rbp)
   18eac:	48 8d 85 40 eb ff ff 	lea    -0x14c0(%rbp),%rax
   18eb3:	48 89 85 d0 f8 ff ff 	mov    %rax,-0x730(%rbp)
   18eba:	48 8d 85 40 eb ff ff 	lea    -0x14c0(%rbp),%rax
   18ec1:	48 89 85 d8 f8 ff ff 	mov    %rax,-0x728(%rbp)
   18ec8:	48 8d 85 40 eb ff ff 	lea    -0x14c0(%rbp),%rax
   18ecf:	48 89 85 e0 f8 ff ff 	mov    %rax,-0x720(%rbp)
   18ed6:	48 8d 85 40 eb ff ff 	lea    -0x14c0(%rbp),%rax
   18edd:	48 89 85 e8 f8 ff ff 	mov    %rax,-0x718(%rbp)
   18ee4:	48 8d 85 40 eb ff ff 	lea    -0x14c0(%rbp),%rax
   18eeb:	48 89 85 f0 f8 ff ff 	mov    %rax,-0x710(%rbp)
   18ef2:	48 8d 85 40 eb ff ff 	lea    -0x14c0(%rbp),%rax
   18ef9:	48 89 85 f8 f8 ff ff 	mov    %rax,-0x708(%rbp)
   18f00:	48 8d 85 40 eb ff ff 	lea    -0x14c0(%rbp),%rax
   18f07:	48 89 85 00 f9 ff ff 	mov    %rax,-0x700(%rbp)
   18f0e:	48 8d 85 40 eb ff ff 	lea    -0x14c0(%rbp),%rax
   18f15:	48 89 85 08 f9 ff ff 	mov    %rax,-0x6f8(%rbp)
   18f1c:	48 c7 85 10 f9 ff ff 	movq   $0x0,-0x6f0(%rbp)
   18f23:	00 00 00 00 
   18f27:	48 8d 85 40 eb ff ff 	lea    -0x14c0(%rbp),%rax
   18f2e:	48 89 85 18 f9 ff ff 	mov    %rax,-0x6e8(%rbp)
   18f35:	48 8d 85 40 eb ff ff 	lea    -0x14c0(%rbp),%rax
   18f3c:	48 89 85 20 f9 ff ff 	mov    %rax,-0x6e0(%rbp)
   18f43:	48 8d 85 40 eb ff ff 	lea    -0x14c0(%rbp),%rax
   18f4a:	48 89 85 28 f9 ff ff 	mov    %rax,-0x6d8(%rbp)
   18f51:	48 8d 85 40 eb ff ff 	lea    -0x14c0(%rbp),%rax
   18f58:	48 89 85 30 f9 ff ff 	mov    %rax,-0x6d0(%rbp)
   18f5f:	48 8d 85 40 eb ff ff 	lea    -0x14c0(%rbp),%rax
   18f66:	48 89 85 38 f9 ff ff 	mov    %rax,-0x6c8(%rbp)
   18f6d:	48 8d 85 40 eb ff ff 	lea    -0x14c0(%rbp),%rax
   18f74:	48 89 85 40 f9 ff ff 	mov    %rax,-0x6c0(%rbp)
   18f7b:	48 8d 85 40 eb ff ff 	lea    -0x14c0(%rbp),%rax
   18f82:	48 89 85 48 f9 ff ff 	mov    %rax,-0x6b8(%rbp)
   18f89:	48 8d 85 40 eb ff ff 	lea    -0x14c0(%rbp),%rax
   18f90:	48 89 85 50 f9 ff ff 	mov    %rax,-0x6b0(%rbp)
   18f97:	48 8d 85 40 eb ff ff 	lea    -0x14c0(%rbp),%rax
   18f9e:	48 89 85 58 f9 ff ff 	mov    %rax,-0x6a8(%rbp)
   18fa5:	48 8d 85 40 eb ff ff 	lea    -0x14c0(%rbp),%rax
   18fac:	48 89 85 60 f9 ff ff 	mov    %rax,-0x6a0(%rbp)
   18fb3:	48 8d 85 40 eb ff ff 	lea    -0x14c0(%rbp),%rax
   18fba:	48 89 85 68 f9 ff ff 	mov    %rax,-0x698(%rbp)
   18fc1:	48 8d 85 40 eb ff ff 	lea    -0x14c0(%rbp),%rax
   18fc8:	48 89 85 70 f9 ff ff 	mov    %rax,-0x690(%rbp)
   18fcf:	48 8d 85 40 eb ff ff 	lea    -0x14c0(%rbp),%rax
   18fd6:	48 89 85 78 f9 ff ff 	mov    %rax,-0x688(%rbp)
   18fdd:	48 8d 85 40 eb ff ff 	lea    -0x14c0(%rbp),%rax
   18fe4:	48 89 85 80 f9 ff ff 	mov    %rax,-0x680(%rbp)
   18feb:	48 8d 85 40 eb ff ff 	lea    -0x14c0(%rbp),%rax
   18ff2:	48 89 85 88 f9 ff ff 	mov    %rax,-0x678(%rbp)
   18ff9:	48 8d 85 40 eb ff ff 	lea    -0x14c0(%rbp),%rax
   19000:	48 89 85 90 f9 ff ff 	mov    %rax,-0x670(%rbp)
   19007:	48 8d 85 40 eb ff ff 	lea    -0x14c0(%rbp),%rax
   1900e:	48 89 85 98 f9 ff ff 	mov    %rax,-0x668(%rbp)
   19015:	48 8d 85 40 eb ff ff 	lea    -0x14c0(%rbp),%rax
   1901c:	48 89 85 a0 f9 ff ff 	mov    %rax,-0x660(%rbp)
   19023:	48 8d 85 40 eb ff ff 	lea    -0x14c0(%rbp),%rax
   1902a:	48 89 85 a8 f9 ff ff 	mov    %rax,-0x658(%rbp)
   19031:	48 c7 85 b0 f9 ff ff 	movq   $0x0,-0x650(%rbp)
   19038:	00 00 00 00 
   1903c:	48 8d 85 40 eb ff ff 	lea    -0x14c0(%rbp),%rax
   19043:	48 89 85 b8 f9 ff ff 	mov    %rax,-0x648(%rbp)
   1904a:	48 8d 85 40 eb ff ff 	lea    -0x14c0(%rbp),%rax
   19051:	48 89 85 c0 f9 ff ff 	mov    %rax,-0x640(%rbp)
   19058:	48 8d 85 40 eb ff ff 	lea    -0x14c0(%rbp),%rax
   1905f:	48 89 85 c8 f9 ff ff 	mov    %rax,-0x638(%rbp)
   19066:	48 8d 85 40 eb ff ff 	lea    -0x14c0(%rbp),%rax
   1906d:	48 89 85 d0 f9 ff ff 	mov    %rax,-0x630(%rbp)
   19074:	48 8d 85 40 eb ff ff 	lea    -0x14c0(%rbp),%rax
   1907b:	48 89 85 d8 f9 ff ff 	mov    %rax,-0x628(%rbp)
   19082:	48 8d 85 40 eb ff ff 	lea    -0x14c0(%rbp),%rax
   19089:	48 89 85 e0 f9 ff ff 	mov    %rax,-0x620(%rbp)
   19090:	48 8d 85 40 eb ff ff 	lea    -0x14c0(%rbp),%rax
   19097:	48 89 85 e8 f9 ff ff 	mov    %rax,-0x618(%rbp)
   1909e:	48 8d 85 40 eb ff ff 	lea    -0x14c0(%rbp),%rax
   190a5:	48 89 85 f0 f9 ff ff 	mov    %rax,-0x610(%rbp)
   190ac:	48 8d 85 40 eb ff ff 	lea    -0x14c0(%rbp),%rax
   190b3:	48 89 85 f8 f9 ff ff 	mov    %rax,-0x608(%rbp)
   190ba:	48 8d 85 40 eb ff ff 	lea    -0x14c0(%rbp),%rax
   190c1:	48 89 85 00 fa ff ff 	mov    %rax,-0x600(%rbp)
   190c8:	48 8d 85 40 eb ff ff 	lea    -0x14c0(%rbp),%rax
   190cf:	48 89 85 08 fa ff ff 	mov    %rax,-0x5f8(%rbp)
   190d6:	48 8d 85 40 eb ff ff 	lea    -0x14c0(%rbp),%rax
   190dd:	48 89 85 10 fa ff ff 	mov    %rax,-0x5f0(%rbp)
   190e4:	48 8d 85 40 eb ff ff 	lea    -0x14c0(%rbp),%rax
   190eb:	48 89 85 18 fa ff ff 	mov    %rax,-0x5e8(%rbp)
   190f2:	48 8d 85 40 eb ff ff 	lea    -0x14c0(%rbp),%rax
   190f9:	48 89 85 20 fa ff ff 	mov    %rax,-0x5e0(%rbp)
   19100:	48 8d 85 40 eb ff ff 	lea    -0x14c0(%rbp),%rax
   19107:	48 89 85 28 fa ff ff 	mov    %rax,-0x5d8(%rbp)
   1910e:	48 8d 85 40 eb ff ff 	lea    -0x14c0(%rbp),%rax
   19115:	48 89 85 30 fa ff ff 	mov    %rax,-0x5d0(%rbp)
   1911c:	48 8d 85 40 eb ff ff 	lea    -0x14c0(%rbp),%rax
   19123:	48 89 85 38 fa ff ff 	mov    %rax,-0x5c8(%rbp)
   1912a:	48 8d 85 40 eb ff ff 	lea    -0x14c0(%rbp),%rax
   19131:	48 89 85 40 fa ff ff 	mov    %rax,-0x5c0(%rbp)
   19138:	48 8d 85 40 eb ff ff 	lea    -0x14c0(%rbp),%rax
   1913f:	48 89 85 48 fa ff ff 	mov    %rax,-0x5b8(%rbp)
   19146:	48 c7 85 50 fa ff ff 	movq   $0x0,-0x5b0(%rbp)
   1914d:	00 00 00 00 
   19151:	48 8d 85 40 eb ff ff 	lea    -0x14c0(%rbp),%rax
   19158:	48 89 85 58 fa ff ff 	mov    %rax,-0x5a8(%rbp)
   1915f:	48 8d 85 40 eb ff ff 	lea    -0x14c0(%rbp),%rax
   19166:	48 89 85 60 fa ff ff 	mov    %rax,-0x5a0(%rbp)
   1916d:	48 8d 85 40 eb ff ff 	lea    -0x14c0(%rbp),%rax
   19174:	48 89 85 68 fa ff ff 	mov    %rax,-0x598(%rbp)
   1917b:	48 8d 85 40 eb ff ff 	lea    -0x14c0(%rbp),%rax
   19182:	48 89 85 70 fa ff ff 	mov    %rax,-0x590(%rbp)
   19189:	48 8d 85 40 eb ff ff 	lea    -0x14c0(%rbp),%rax
   19190:	48 89 85 78 fa ff ff 	mov    %rax,-0x588(%rbp)
   19197:	48 8d 85 40 eb ff ff 	lea    -0x14c0(%rbp),%rax
   1919e:	48 89 85 80 fa ff ff 	mov    %rax,-0x580(%rbp)
   191a5:	48 8d 85 40 eb ff ff 	lea    -0x14c0(%rbp),%rax
   191ac:	48 89 85 88 fa ff ff 	mov    %rax,-0x578(%rbp)
   191b3:	48 8d 85 40 eb ff ff 	lea    -0x14c0(%rbp),%rax
   191ba:	48 89 85 90 fa ff ff 	mov    %rax,-0x570(%rbp)
   191c1:	48 8d 85 40 eb ff ff 	lea    -0x14c0(%rbp),%rax
   191c8:	48 89 85 98 fa ff ff 	mov    %rax,-0x568(%rbp)
   191cf:	48 8d 85 40 eb ff ff 	lea    -0x14c0(%rbp),%rax
   191d6:	48 89 85 a0 fa ff ff 	mov    %rax,-0x560(%rbp)
   191dd:	48 8d 85 40 eb ff ff 	lea    -0x14c0(%rbp),%rax
   191e4:	48 89 85 a8 fa ff ff 	mov    %rax,-0x558(%rbp)
   191eb:	48 8d 85 40 eb ff ff 	lea    -0x14c0(%rbp),%rax
   191f2:	48 89 85 b0 fa ff ff 	mov    %rax,-0x550(%rbp)
   191f9:	48 8d 85 40 eb ff ff 	lea    -0x14c0(%rbp),%rax
   19200:	48 89 85 b8 fa ff ff 	mov    %rax,-0x548(%rbp)
   19207:	48 8d 85 40 eb ff ff 	lea    -0x14c0(%rbp),%rax
   1920e:	48 89 85 c0 fa ff ff 	mov    %rax,-0x540(%rbp)
   19215:	48 8d 85 40 eb ff ff 	lea    -0x14c0(%rbp),%rax
   1921c:	48 89 85 c8 fa ff ff 	mov    %rax,-0x538(%rbp)
   19223:	48 8d 85 40 eb ff ff 	lea    -0x14c0(%rbp),%rax
   1922a:	48 89 85 d0 fa ff ff 	mov    %rax,-0x530(%rbp)
   19231:	48 8d 85 40 eb ff ff 	lea    -0x14c0(%rbp),%rax
   19238:	48 89 85 d8 fa ff ff 	mov    %rax,-0x528(%rbp)
   1923f:	48 8d 85 40 eb ff ff 	lea    -0x14c0(%rbp),%rax
   19246:	48 89 85 e0 fa ff ff 	mov    %rax,-0x520(%rbp)
   1924d:	48 8d 85 40 eb ff ff 	lea    -0x14c0(%rbp),%rax
   19254:	48 89 85 e8 fa ff ff 	mov    %rax,-0x518(%rbp)
   1925b:	48 c7 85 f0 fa ff ff 	movq   $0x0,-0x510(%rbp)
   19262:	00 00 00 00 
   19266:	48 8d 85 40 eb ff ff 	lea    -0x14c0(%rbp),%rax
   1926d:	48 89 85 f8 fa ff ff 	mov    %rax,-0x508(%rbp)
   19274:	48 8d 85 40 eb ff ff 	lea    -0x14c0(%rbp),%rax
   1927b:	48 89 85 00 fb ff ff 	mov    %rax,-0x500(%rbp)
   19282:	48 8d 85 40 eb ff ff 	lea    -0x14c0(%rbp),%rax
   19289:	48 89 85 08 fb ff ff 	mov    %rax,-0x4f8(%rbp)
   19290:	48 8d 85 40 eb ff ff 	lea    -0x14c0(%rbp),%rax
   19297:	48 89 85 10 fb ff ff 	mov    %rax,-0x4f0(%rbp)
   1929e:	48 8d 85 40 eb ff ff 	lea    -0x14c0(%rbp),%rax
   192a5:	48 89 85 18 fb ff ff 	mov    %rax,-0x4e8(%rbp)
   192ac:	48 8d 85 40 eb ff ff 	lea    -0x14c0(%rbp),%rax
   192b3:	48 89 85 20 fb ff ff 	mov    %rax,-0x4e0(%rbp)
   192ba:	48 8d 85 40 eb ff ff 	lea    -0x14c0(%rbp),%rax
   192c1:	48 89 85 28 fb ff ff 	mov    %rax,-0x4d8(%rbp)
   192c8:	48 8d 85 40 eb ff ff 	lea    -0x14c0(%rbp),%rax
   192cf:	48 89 85 30 fb ff ff 	mov    %rax,-0x4d0(%rbp)
   192d6:	48 8d 85 40 eb ff ff 	lea    -0x14c0(%rbp),%rax
   192dd:	48 89 85 38 fb ff ff 	mov    %rax,-0x4c8(%rbp)
   192e4:	48 8d 85 40 eb ff ff 	lea    -0x14c0(%rbp),%rax
   192eb:	48 89 85 40 fb ff ff 	mov    %rax,-0x4c0(%rbp)
   192f2:	48 8d 85 40 eb ff ff 	lea    -0x14c0(%rbp),%rax
   192f9:	48 89 85 48 fb ff ff 	mov    %rax,-0x4b8(%rbp)
   19300:	48 8d 85 40 eb ff ff 	lea    -0x14c0(%rbp),%rax
   19307:	48 89 85 50 fb ff ff 	mov    %rax,-0x4b0(%rbp)
   1930e:	48 8d 85 40 eb ff ff 	lea    -0x14c0(%rbp),%rax
   19315:	48 89 85 58 fb ff ff 	mov    %rax,-0x4a8(%rbp)
   1931c:	48 8d 85 40 eb ff ff 	lea    -0x14c0(%rbp),%rax
   19323:	48 89 85 60 fb ff ff 	mov    %rax,-0x4a0(%rbp)
   1932a:	48 8d 85 40 eb ff ff 	lea    -0x14c0(%rbp),%rax
   19331:	48 89 85 68 fb ff ff 	mov    %rax,-0x498(%rbp)
   19338:	48 8d 85 40 eb ff ff 	lea    -0x14c0(%rbp),%rax
   1933f:	48 89 85 70 fb ff ff 	mov    %rax,-0x490(%rbp)
   19346:	48 8d 85 40 eb ff ff 	lea    -0x14c0(%rbp),%rax
   1934d:	48 89 85 78 fb ff ff 	mov    %rax,-0x488(%rbp)
   19354:	48 8d 85 40 eb ff ff 	lea    -0x14c0(%rbp),%rax
   1935b:	48 89 85 80 fb ff ff 	mov    %rax,-0x480(%rbp)
   19362:	48 8d 85 40 eb ff ff 	lea    -0x14c0(%rbp),%rax
   19369:	48 89 85 88 fb ff ff 	mov    %rax,-0x478(%rbp)
   19370:	48 c7 85 90 fb ff ff 	movq   $0x0,-0x470(%rbp)
   19377:	00 00 00 00 
   1937b:	48 8d 85 40 eb ff ff 	lea    -0x14c0(%rbp),%rax
   19382:	48 89 85 98 fb ff ff 	mov    %rax,-0x468(%rbp)
   19389:	48 8d 85 40 eb ff ff 	lea    -0x14c0(%rbp),%rax
   19390:	48 89 85 a0 fb ff ff 	mov    %rax,-0x460(%rbp)
   19397:	48 8d 85 40 eb ff ff 	lea    -0x14c0(%rbp),%rax
   1939e:	48 89 85 a8 fb ff ff 	mov    %rax,-0x458(%rbp)
   193a5:	c7 85 6c ea ff ff 01 	movl   $0x1,-0x1594(%rbp)
   193ac:	00 00 00 
   193af:	c7 85 70 ea ff ff 01 	movl   $0x1,-0x1590(%rbp)
   193b6:	00 00 00 
   193b9:	c7 85 74 ea ff ff 00 	movl   $0x0,-0x158c(%rbp)
   193c0:	00 00 00 
   193c3:	c7 85 78 ea ff ff eb 	movl   $0x837feceb,-0x1588(%rbp)
   193ca:	ec 7f 83 
   193cd:	c7 85 7c ea ff ff fb 	movl   $0xfffffffb,-0x1584(%rbp)
   193d4:	ff ff ff 
   193d7:	48 8d 85 f0 f5 ff ff 	lea    -0xa10(%rbp),%rax
   193de:	48 8d 15 1b 92 00 00 	lea    0x921b(%rip),%rdx        # 22600 <g_4473+0x1590>
   193e5:	b9 43 00 00 00       	mov    $0x43,%ecx
   193ea:	48 89 c7             	mov    %rax,%rdi
   193ed:	48 89 d6             	mov    %rdx,%rsi
   193f0:	f3 48 a5             	rep movsq %ds:(%rsi),%es:(%rdi)
   193f3:	48 89 f2             	mov    %rsi,%rdx
   193f6:	48 89 f8             	mov    %rdi,%rax
   193f9:	8b 0a                	mov    (%rdx),%ecx
   193fb:	89 08                	mov    %ecx,(%rax)
   193fd:	48 8d 05 a8 dc 00 00 	lea    0xdca8(%rip),%rax        # 270ac <g_178>
   19404:	48 89 85 c8 ec ff ff 	mov    %rax,-0x1338(%rbp)
   1940b:	c7 85 90 e9 ff ff 00 	movl   $0x0,-0x1670(%rbp)
   19412:	00 00 00 
   19415:	eb 46                	jmp    1945d <func_15+0x1e26>
   19417:	c7 85 94 e9 ff ff 00 	movl   $0x0,-0x166c(%rbp)
   1941e:	00 00 00 
   19421:	eb 2a                	jmp    1944d <func_15+0x1e16>
   19423:	8b 85 94 e9 ff ff    	mov    -0x166c(%rbp),%eax
   19429:	48 63 d0             	movslq %eax,%rdx
   1942c:	8b 85 90 e9 ff ff    	mov    -0x1670(%rbp),%eax
   19432:	48 98                	cltq   
   19434:	48 01 d0             	add    %rdx,%rax
   19437:	48 8d 15 ae dc 00 00 	lea    0xdcae(%rip),%rdx        # 270ec <g_484>
   1943e:	48 89 94 c5 80 ed ff 	mov    %rdx,-0x1280(%rbp,%rax,8)
   19445:	ff 
   19446:	83 85 94 e9 ff ff 01 	addl   $0x1,-0x166c(%rbp)
   1944d:	83 bd 94 e9 ff ff 00 	cmpl   $0x0,-0x166c(%rbp)
   19454:	7e cd                	jle    19423 <func_15+0x1dec>
   19456:	83 85 90 e9 ff ff 01 	addl   $0x1,-0x1670(%rbp)
   1945d:	83 bd 90 e9 ff ff 00 	cmpl   $0x0,-0x1670(%rbp)
   19464:	7e b1                	jle    19417 <func_15+0x1de0>
   19466:	c7 05 f8 dc 00 00 04 	movl   $0x4,0xdcf8(%rip)        # 27168 <g_2257>
   1946d:	00 00 00 
   19470:	e9 3e 01 00 00       	jmpq   195b3 <func_15+0x1f7c>
   19475:	48 8d 05 74 dc 00 00 	lea    0xdc74(%rip),%rax        # 270f0 <g_515>
   1947c:	48 89 85 48 eb ff ff 	mov    %rax,-0x14b8(%rbp)
   19483:	48 8d 85 48 eb ff ff 	lea    -0x14b8(%rbp),%rax
   1948a:	48 89 85 d0 ec ff ff 	mov    %rax,-0x1330(%rbp)
   19491:	c7 85 80 ea ff ff af 	movl   $0x80d4cdaf,-0x1580(%rbp)
   19498:	cd d4 80 
   1949b:	48 8d 05 fe db 00 00 	lea    0xdbfe(%rip),%rax        # 270a0 <g_150>
   194a2:	48 89 85 d8 ec ff ff 	mov    %rax,-0x1328(%rbp)
   194a9:	48 8d 85 e8 ea ff ff 	lea    -0x1518(%rbp),%rax
   194b0:	48 89 85 e0 ee ff ff 	mov    %rax,-0x1120(%rbp)
   194b7:	48 8d 85 e8 ea ff ff 	lea    -0x1518(%rbp),%rax
   194be:	48 89 85 e8 ee ff ff 	mov    %rax,-0x1118(%rbp)
   194c5:	48 8d 85 e8 ea ff ff 	lea    -0x1518(%rbp),%rax
   194cc:	48 89 85 f0 ee ff ff 	mov    %rax,-0x1110(%rbp)
   194d3:	48 8d 85 e8 ea ff ff 	lea    -0x1518(%rbp),%rax
   194da:	48 89 85 f8 ee ff ff 	mov    %rax,-0x1108(%rbp)
   194e1:	48 8d 05 18 18 01 00 	lea    0x11818(%rip),%rax        # 2ad00 <g_2961>
   194e8:	48 89 85 e0 ec ff ff 	mov    %rax,-0x1320(%rbp)
   194ef:	48 c7 85 e8 ec ff ff 	movq   $0x0,-0x1318(%rbp)
   194f6:	00 00 00 00 
   194fa:	48 8d 85 d0 ea ff ff 	lea    -0x1530(%rbp),%rax
   19501:	48 89 85 50 eb ff ff 	mov    %rax,-0x14b0(%rbp)
   19508:	48 8d 85 50 eb ff ff 	lea    -0x14b0(%rbp),%rax
   1950f:	48 89 85 f0 ec ff ff 	mov    %rax,-0x1310(%rbp)
   19516:	48 8d 05 83 15 01 00 	lea    0x11583(%rip),%rax        # 2aaa0 <g_935>
   1951d:	48 89 85 f8 ec ff ff 	mov    %rax,-0x1308(%rbp)
   19524:	c7 85 84 ea ff ff e5 	movl   $0x67dc0e5,-0x157c(%rbp)
   1952b:	c0 7d 06 
   1952e:	c7 85 88 ea ff ff f9 	movl   $0xfffffff9,-0x1578(%rbp)
   19535:	ff ff ff 
   19538:	c7 85 8c ea ff ff f7 	movl   $0x7ee241f7,-0x1574(%rbp)
   1953f:	41 e2 7e 
   19542:	c7 85 e0 ed ff ff 35 	movl   $0xf83b5d35,-0x1220(%rbp)
   19549:	5d 3b f8 
   1954c:	c7 85 e4 ed ff ff 35 	movl   $0xf83b5d35,-0x121c(%rbp)
   19553:	5d 3b f8 
   19556:	c7 85 e8 ed ff ff 01 	movl   $0x1,-0x1218(%rbp)
   1955d:	00 00 00 
   19560:	c7 85 ec ed ff ff 35 	movl   $0xf83b5d35,-0x1214(%rbp)
   19567:	5d 3b f8 
   1956a:	c7 85 f0 ed ff ff 35 	movl   $0xf83b5d35,-0x1210(%rbp)
   19571:	5d 3b f8 
   19574:	c7 85 f4 ed ff ff 01 	movl   $0x1,-0x120c(%rbp)
   1957b:	00 00 00 
   1957e:	c7 85 f8 ed ff ff 35 	movl   $0xf83b5d35,-0x1208(%rbp)
   19585:	5d 3b f8 
   19588:	48 8d 05 79 17 01 00 	lea    0x11779(%rip),%rax        # 2ad08 <g_3065>
   1958f:	48 89 85 58 eb ff ff 	mov    %rax,-0x14a8(%rbp)
   19596:	48 8d 85 58 eb ff ff 	lea    -0x14a8(%rbp),%rax
   1959d:	48 89 85 00 ed ff ff 	mov    %rax,-0x1300(%rbp)
   195a4:	8b 05 be db 00 00    	mov    0xdbbe(%rip),%eax        # 27168 <g_2257>
   195aa:	83 e8 01             	sub    $0x1,%eax
   195ad:	89 05 b5 db 00 00    	mov    %eax,0xdbb5(%rip)        # 27168 <g_2257>
   195b3:	8b 05 af db 00 00    	mov    0xdbaf(%rip),%eax        # 27168 <g_2257>
   195b9:	85 c0                	test   %eax,%eax
   195bb:	0f 89 b4 fe ff ff    	jns    19475 <func_15+0x1e3e>
   195c1:	e9 9c 12 00 00       	jmpq   1a862 <func_15+0x322b>
   195c6:	48 8d 85 10 eb ff ff 	lea    -0x14f0(%rbp),%rax
   195cd:	48 89 85 e0 ed ff ff 	mov    %rax,-0x1220(%rbp)
   195d4:	48 8d 85 10 eb ff ff 	lea    -0x14f0(%rbp),%rax
   195db:	48 89 85 e8 ed ff ff 	mov    %rax,-0x1218(%rbp)
   195e2:	48 8d 85 10 eb ff ff 	lea    -0x14f0(%rbp),%rax
   195e9:	48 89 85 f0 ed ff ff 	mov    %rax,-0x1210(%rbp)
   195f0:	48 8d 85 10 eb ff ff 	lea    -0x14f0(%rbp),%rax
   195f7:	48 89 85 f8 ed ff ff 	mov    %rax,-0x1208(%rbp)
   195fe:	c7 85 e0 e9 ff ff d1 	movl   $0xe2cf46d1,-0x1620(%rbp)
   19605:	46 cf e2 
   19608:	48 8d 05 25 db 00 00 	lea    0xdb25(%rip),%rax        # 27134 <g_1023>
   1960f:	48 89 85 90 f8 ff ff 	mov    %rax,-0x770(%rbp)
   19616:	48 8d 05 13 db 00 00 	lea    0xdb13(%rip),%rax        # 27130 <g_941>
   1961d:	48 89 85 98 f8 ff ff 	mov    %rax,-0x768(%rbp)
   19624:	48 8d 05 09 db 00 00 	lea    0xdb09(%rip),%rax        # 27134 <g_1023>
   1962b:	48 89 85 a0 f8 ff ff 	mov    %rax,-0x760(%rbp)
   19632:	48 8d 85 68 e9 ff ff 	lea    -0x1698(%rbp),%rax
   19639:	48 89 85 a8 f8 ff ff 	mov    %rax,-0x758(%rbp)
   19640:	48 8d 85 64 e9 ff ff 	lea    -0x169c(%rbp),%rax
   19647:	48 89 85 b0 f8 ff ff 	mov    %rax,-0x750(%rbp)
   1964e:	48 8d 85 68 e9 ff ff 	lea    -0x1698(%rbp),%rax
   19655:	48 89 85 b8 f8 ff ff 	mov    %rax,-0x748(%rbp)
   1965c:	48 8d 05 d1 da 00 00 	lea    0xdad1(%rip),%rax        # 27134 <g_1023>
   19663:	48 89 85 c0 f8 ff ff 	mov    %rax,-0x740(%rbp)
   1966a:	48 8d 05 bf da 00 00 	lea    0xdabf(%rip),%rax        # 27130 <g_941>
   19671:	48 89 85 c8 f8 ff ff 	mov    %rax,-0x738(%rbp)
   19678:	48 8d 85 64 e9 ff ff 	lea    -0x169c(%rbp),%rax
   1967f:	48 89 85 d0 f8 ff ff 	mov    %rax,-0x730(%rbp)
   19686:	48 8d 85 68 e9 ff ff 	lea    -0x1698(%rbp),%rax
   1968d:	48 89 85 d8 f8 ff ff 	mov    %rax,-0x728(%rbp)
   19694:	48 8d 05 99 da 00 00 	lea    0xda99(%rip),%rax        # 27134 <g_1023>
   1969b:	48 89 85 e0 f8 ff ff 	mov    %rax,-0x720(%rbp)
   196a2:	48 8d 05 87 da 00 00 	lea    0xda87(%rip),%rax        # 27130 <g_941>
   196a9:	48 89 85 e8 f8 ff ff 	mov    %rax,-0x718(%rbp)
   196b0:	48 8d 05 7d da 00 00 	lea    0xda7d(%rip),%rax        # 27134 <g_1023>
   196b7:	48 89 85 f0 f8 ff ff 	mov    %rax,-0x710(%rbp)
   196be:	48 8d 85 68 e9 ff ff 	lea    -0x1698(%rbp),%rax
   196c5:	48 89 85 f8 f8 ff ff 	mov    %rax,-0x708(%rbp)
   196cc:	48 8d 85 64 e9 ff ff 	lea    -0x169c(%rbp),%rax
   196d3:	48 89 85 00 f9 ff ff 	mov    %rax,-0x700(%rbp)
   196da:	48 8d 85 68 e9 ff ff 	lea    -0x1698(%rbp),%rax
   196e1:	48 89 85 08 f9 ff ff 	mov    %rax,-0x6f8(%rbp)
   196e8:	48 8d 85 64 e9 ff ff 	lea    -0x169c(%rbp),%rax
   196ef:	48 89 85 10 f9 ff ff 	mov    %rax,-0x6f0(%rbp)
   196f6:	48 8d 05 33 da 00 00 	lea    0xda33(%rip),%rax        # 27130 <g_941>
   196fd:	48 89 85 18 f9 ff ff 	mov    %rax,-0x6e8(%rbp)
   19704:	48 8d 05 8d d9 00 00 	lea    0xd98d(%rip),%rax        # 27098 <g_132>
   1970b:	48 89 85 20 f9 ff ff 	mov    %rax,-0x6e0(%rbp)
   19712:	48 8d 05 17 da 00 00 	lea    0xda17(%rip),%rax        # 27130 <g_941>
   19719:	48 89 85 28 f9 ff ff 	mov    %rax,-0x6d8(%rbp)
   19720:	48 8d 85 64 e9 ff ff 	lea    -0x169c(%rbp),%rax
   19727:	48 89 85 30 f9 ff ff 	mov    %rax,-0x6d0(%rbp)
   1972e:	48 8d 85 68 e9 ff ff 	lea    -0x1698(%rbp),%rax
   19735:	48 89 85 38 f9 ff ff 	mov    %rax,-0x6c8(%rbp)
   1973c:	48 8d 85 64 e9 ff ff 	lea    -0x169c(%rbp),%rax
   19743:	48 89 85 40 f9 ff ff 	mov    %rax,-0x6c0(%rbp)
   1974a:	48 8d 05 df d9 00 00 	lea    0xd9df(%rip),%rax        # 27130 <g_941>
   19751:	48 89 85 48 f9 ff ff 	mov    %rax,-0x6b8(%rbp)
   19758:	48 8d 05 d5 d9 00 00 	lea    0xd9d5(%rip),%rax        # 27134 <g_1023>
   1975f:	48 89 85 50 f9 ff ff 	mov    %rax,-0x6b0(%rbp)
   19766:	48 8d 05 c3 d9 00 00 	lea    0xd9c3(%rip),%rax        # 27130 <g_941>
   1976d:	48 89 85 58 f9 ff ff 	mov    %rax,-0x6a8(%rbp)
   19774:	48 8d 05 b9 d9 00 00 	lea    0xd9b9(%rip),%rax        # 27134 <g_1023>
   1977b:	48 89 85 60 f9 ff ff 	mov    %rax,-0x6a0(%rbp)
   19782:	48 8d 85 68 e9 ff ff 	lea    -0x1698(%rbp),%rax
   19789:	48 89 85 68 f9 ff ff 	mov    %rax,-0x698(%rbp)
   19790:	48 8d 85 64 e9 ff ff 	lea    -0x169c(%rbp),%rax
   19797:	48 89 85 70 f9 ff ff 	mov    %rax,-0x690(%rbp)
   1979e:	48 8d 85 68 e9 ff ff 	lea    -0x1698(%rbp),%rax
   197a5:	48 89 85 78 f9 ff ff 	mov    %rax,-0x688(%rbp)
   197ac:	48 8d 05 81 d9 00 00 	lea    0xd981(%rip),%rax        # 27134 <g_1023>
   197b3:	48 89 85 80 f9 ff ff 	mov    %rax,-0x680(%rbp)
   197ba:	48 8d 05 6f d9 00 00 	lea    0xd96f(%rip),%rax        # 27130 <g_941>
   197c1:	48 89 85 88 f9 ff ff 	mov    %rax,-0x678(%rbp)
   197c8:	48 8d 85 64 e9 ff ff 	lea    -0x169c(%rbp),%rax
   197cf:	48 89 85 90 f9 ff ff 	mov    %rax,-0x670(%rbp)
   197d6:	48 8d 85 68 e9 ff ff 	lea    -0x1698(%rbp),%rax
   197dd:	48 89 85 98 f9 ff ff 	mov    %rax,-0x668(%rbp)
   197e4:	48 8d 05 49 d9 00 00 	lea    0xd949(%rip),%rax        # 27134 <g_1023>
   197eb:	48 89 85 a0 f9 ff ff 	mov    %rax,-0x660(%rbp)
   197f2:	48 8d 05 37 d9 00 00 	lea    0xd937(%rip),%rax        # 27130 <g_941>
   197f9:	48 89 85 a8 f9 ff ff 	mov    %rax,-0x658(%rbp)
   19800:	48 8d 05 2d d9 00 00 	lea    0xd92d(%rip),%rax        # 27134 <g_1023>
   19807:	48 89 85 b0 f9 ff ff 	mov    %rax,-0x650(%rbp)
   1980e:	48 8d 85 68 e9 ff ff 	lea    -0x1698(%rbp),%rax
   19815:	48 89 85 b8 f9 ff ff 	mov    %rax,-0x648(%rbp)
   1981c:	48 8d 85 64 e9 ff ff 	lea    -0x169c(%rbp),%rax
   19823:	48 89 85 c0 f9 ff ff 	mov    %rax,-0x640(%rbp)
   1982a:	48 8d 85 68 e9 ff ff 	lea    -0x1698(%rbp),%rax
   19831:	48 89 85 c8 f9 ff ff 	mov    %rax,-0x638(%rbp)
   19838:	48 8d 85 64 e9 ff ff 	lea    -0x169c(%rbp),%rax
   1983f:	48 89 85 d0 f9 ff ff 	mov    %rax,-0x630(%rbp)
   19846:	48 8d 05 e3 d8 00 00 	lea    0xd8e3(%rip),%rax        # 27130 <g_941>
   1984d:	48 89 85 d8 f9 ff ff 	mov    %rax,-0x628(%rbp)
   19854:	48 8d 05 3d d8 00 00 	lea    0xd83d(%rip),%rax        # 27098 <g_132>
   1985b:	48 89 85 e0 f9 ff ff 	mov    %rax,-0x620(%rbp)
   19862:	48 8d 05 c7 d8 00 00 	lea    0xd8c7(%rip),%rax        # 27130 <g_941>
   19869:	48 89 85 e8 f9 ff ff 	mov    %rax,-0x618(%rbp)
   19870:	48 8d 85 64 e9 ff ff 	lea    -0x169c(%rbp),%rax
   19877:	48 89 85 f0 f9 ff ff 	mov    %rax,-0x610(%rbp)
   1987e:	48 8d 85 68 e9 ff ff 	lea    -0x1698(%rbp),%rax
   19885:	48 89 85 f8 f9 ff ff 	mov    %rax,-0x608(%rbp)
   1988c:	48 8d 85 64 e9 ff ff 	lea    -0x169c(%rbp),%rax
   19893:	48 89 85 00 fa ff ff 	mov    %rax,-0x600(%rbp)
   1989a:	48 8d 05 8f d8 00 00 	lea    0xd88f(%rip),%rax        # 27130 <g_941>
   198a1:	48 89 85 08 fa ff ff 	mov    %rax,-0x5f8(%rbp)
   198a8:	48 8d 85 90 f8 ff ff 	lea    -0x770(%rbp),%rax
   198af:	48 05 e8 00 00 00    	add    $0xe8,%rax
   198b5:	48 89 85 68 ec ff ff 	mov    %rax,-0x1398(%rbp)
   198bc:	c7 85 e4 e9 ff ff 00 	movl   $0x0,-0x161c(%rbp)
   198c3:	00 00 00 
   198c6:	c7 85 e8 e9 ff ff 04 	movl   $0x4,-0x1618(%rbp)
   198cd:	00 00 00 
   198d0:	c7 85 ec e9 ff ff 83 	movl   $0x8aeaec83,-0x1614(%rbp)
   198d7:	ec ea 8a 
   198da:	c7 85 f0 e9 ff ff f8 	movl   $0xfffffff8,-0x1610(%rbp)
   198e1:	ff ff ff 
   198e4:	c7 85 f4 e9 ff ff 01 	movl   $0x1,-0x160c(%rbp)
   198eb:	00 00 00 
   198ee:	48 c7 85 38 eb ff ff 	movq   $0x0,-0x14c8(%rbp)
   198f5:	00 00 00 00 
   198f9:	48 8d 85 b8 ea ff ff 	lea    -0x1548(%rbp),%rax
   19900:	48 89 85 70 ec ff ff 	mov    %rax,-0x1390(%rbp)
   19907:	48 b8 76 6f 2e fa 25 	movabs $0x3078a125fa2e6f76,%rax
   1990e:	a1 78 30 
   19911:	48 89 85 78 ec ff ff 	mov    %rax,-0x1388(%rbp)
   19918:	48 8d 05 31 11 01 00 	lea    0x11131(%rip),%rax        # 2aa50 <g_258>
   1991f:	48 89 85 40 eb ff ff 	mov    %rax,-0x14c0(%rbp)
   19926:	48 8d 85 40 eb ff ff 	lea    -0x14c0(%rbp),%rax
   1992d:	48 89 85 48 eb ff ff 	mov    %rax,-0x14b8(%rbp)
   19934:	48 8d 85 48 eb ff ff 	lea    -0x14b8(%rbp),%rax
   1993b:	48 89 85 50 eb ff ff 	mov    %rax,-0x14b0(%rbp)
   19942:	c7 85 98 e9 ff ff 00 	movl   $0x0,-0x1668(%rbp)
   19949:	00 00 00 
   1994c:	eb 1a                	jmp    19968 <func_15+0x2331>
   1994e:	8b 85 98 e9 ff ff    	mov    -0x1668(%rbp),%eax
   19954:	48 98                	cltq   
   19956:	c7 84 85 58 ed ff ff 	movl   $0x0,-0x12a8(%rbp,%rax,4)
   1995d:	00 00 00 00 
   19961:	83 85 98 e9 ff ff 01 	addl   $0x1,-0x1668(%rbp)
   19968:	83 bd 98 e9 ff ff 01 	cmpl   $0x1,-0x1668(%rbp)
   1996f:	7e dd                	jle    1994e <func_15+0x2317>
   19971:	48 83 bd 98 eb ff ff 	cmpq   $0x0,-0x1468(%rbp)
   19978:	00 
   19979:	74 38                	je     199b3 <func_15+0x237c>
   1997b:	90                   	nop
   1997c:	eb 01                	jmp    1997f <func_15+0x2348>
   1997e:	90                   	nop
   1997f:	48 8b 85 28 e9 ff ff 	mov    -0x16d8(%rbp),%rax
   19986:	8b 10                	mov    (%rax),%edx
   19988:	48 8b 85 18 e9 ff ff 	mov    -0x16e8(%rbp),%rax
   1998f:	89 10                	mov    %edx,(%rax)
   19991:	48 8b 85 18 e9 ff ff 	mov    -0x16e8(%rbp),%rax
   19998:	8b 08                	mov    (%rax),%ecx
   1999a:	48 8b 05 d7 2c 01 00 	mov    0x12cd7(%rip),%rax        # 2c678 <g_2194>
   199a1:	8b 10                	mov    (%rax),%edx
   199a3:	48 8b 05 ce 2c 01 00 	mov    0x12cce(%rip),%rax        # 2c678 <g_2194>
   199aa:	21 ca                	and    %ecx,%edx
   199ac:	89 10                	mov    %edx,(%rax)
   199ae:	e9 05 07 00 00       	jmpq   1a0b8 <func_15+0x2a81>
   199b3:	c7 85 e0 ee ff ff 1c 	movl   $0xdc41441c,-0x1120(%rbp)
   199ba:	44 41 dc 
   199bd:	c7 85 e4 ee ff ff 06 	movl   $0x6,-0x111c(%rbp)
   199c4:	00 00 00 
   199c7:	c7 85 e8 ee ff ff 1c 	movl   $0xdc41441c,-0x1118(%rbp)
   199ce:	44 41 dc 
   199d1:	c7 85 ec ee ff ff 1c 	movl   $0xdc41441c,-0x1114(%rbp)
   199d8:	44 41 dc 
   199db:	c7 85 f0 ee ff ff 06 	movl   $0x6,-0x1110(%rbp)
   199e2:	00 00 00 
   199e5:	c7 85 f4 ee ff ff 1c 	movl   $0xdc41441c,-0x110c(%rbp)
   199ec:	44 41 dc 
   199ef:	c7 85 f8 ee ff ff 06 	movl   $0x6,-0x1108(%rbp)
   199f6:	00 00 00 
   199f9:	c7 85 fc ee ff ff 1c 	movl   $0xdc41441c,-0x1104(%rbp)
   19a00:	44 41 dc 
   19a03:	c7 85 00 ef ff ff 1c 	movl   $0xdc41441c,-0x1100(%rbp)
   19a0a:	44 41 dc 
   19a0d:	c7 85 04 ef ff ff b7 	movl   $0xbe0410b7,-0x10fc(%rbp)
   19a14:	10 04 be 
   19a17:	c7 85 08 ef ff ff b7 	movl   $0xbe0410b7,-0x10f8(%rbp)
   19a1e:	10 04 be 
   19a21:	c7 85 0c ef ff ff 1c 	movl   $0xdc41441c,-0x10f4(%rbp)
   19a28:	44 41 dc 
   19a2b:	c7 85 10 ef ff ff b7 	movl   $0xbe0410b7,-0x10f0(%rbp)
   19a32:	10 04 be 
   19a35:	c7 85 14 ef ff ff 1c 	movl   $0xdc41441c,-0x10ec(%rbp)
   19a3c:	44 41 dc 
   19a3f:	c7 85 18 ef ff ff b7 	movl   $0xbe0410b7,-0x10e8(%rbp)
   19a46:	10 04 be 
   19a49:	c7 85 1c ef ff ff b7 	movl   $0xbe0410b7,-0x10e4(%rbp)
   19a50:	10 04 be 
   19a53:	c7 85 20 ef ff ff 1c 	movl   $0xdc41441c,-0x10e0(%rbp)
   19a5a:	44 41 dc 
   19a5d:	c7 85 24 ef ff ff 1c 	movl   $0xdc41441c,-0x10dc(%rbp)
   19a64:	44 41 dc 
   19a67:	c7 85 28 ef ff ff 06 	movl   $0x6,-0x10d8(%rbp)
   19a6e:	00 00 00 
   19a71:	c7 85 2c ef ff ff 1c 	movl   $0xdc41441c,-0x10d4(%rbp)
   19a78:	44 41 dc 
   19a7b:	48 8d 05 e6 d6 00 00 	lea    0xd6e6(%rip),%rax        # 27168 <g_2257>
   19a82:	48 89 85 80 ec ff ff 	mov    %rax,-0x1380(%rbp)
   19a89:	c7 85 f8 e9 ff ff ff 	movl   $0xffffffff,-0x1608(%rbp)
   19a90:	ff ff ff 
   19a93:	c7 85 fc e9 ff ff ff 	movl   $0xffffffff,-0x1604(%rbp)
   19a9a:	ff ff ff 
   19a9d:	c7 85 00 ea ff ff 96 	movl   $0xa6bf5e96,-0x1600(%rbp)
   19aa4:	5e bf a6 
   19aa7:	c7 85 04 ea ff ff 04 	movl   $0x4,-0x15fc(%rbp)
   19aae:	00 00 00 
   19ab1:	c7 85 08 ea ff ff fe 	movl   $0xfffffffe,-0x15f8(%rbp)
   19ab8:	ff ff ff 
   19abb:	c7 85 70 e9 ff ff 78 	movl   $0x20e80678,-0x1690(%rbp)
   19ac2:	06 e8 20 
   19ac5:	66 c7 85 54 e9 ff ff 	movw   $0x9,-0x16ac(%rbp)
   19acc:	09 00 
   19ace:	c7 85 0c ea ff ff ff 	movl   $0xffffffff,-0x15f4(%rbp)
   19ad5:	ff ff ff 
   19ad8:	c7 85 10 ea ff ff b3 	movl   $0x5cc52b3,-0x15f0(%rbp)
   19adf:	52 cc 05 
   19ae2:	48 8d 05 6f 0f 01 00 	lea    0x10f6f(%rip),%rax        # 2aa58 <g_396>
   19ae9:	48 89 85 58 eb ff ff 	mov    %rax,-0x14a8(%rbp)
   19af0:	48 8d 85 58 eb ff ff 	lea    -0x14a8(%rbp),%rax
   19af7:	48 89 85 88 ec ff ff 	mov    %rax,-0x1378(%rbp)
   19afe:	48 8d 85 90 f8 ff ff 	lea    -0x770(%rbp),%rax
   19b05:	48 83 c0 40          	add    $0x40,%rax
   19b09:	48 89 85 f0 f5 ff ff 	mov    %rax,-0xa10(%rbp)
   19b10:	48 c7 85 f8 f5 ff ff 	movq   $0x0,-0xa08(%rbp)
   19b17:	00 00 00 00 
   19b1b:	48 c7 85 00 f6 ff ff 	movq   $0x0,-0xa00(%rbp)
   19b22:	00 00 00 00 
   19b26:	48 8d 85 90 f8 ff ff 	lea    -0x770(%rbp),%rax
   19b2d:	48 83 c0 40          	add    $0x40,%rax
   19b31:	48 89 85 08 f6 ff ff 	mov    %rax,-0x9f8(%rbp)
   19b38:	48 c7 85 10 f6 ff ff 	movq   $0x0,-0x9f0(%rbp)
   19b3f:	00 00 00 00 
   19b43:	48 c7 85 18 f6 ff ff 	movq   $0x0,-0x9e8(%rbp)
   19b4a:	00 00 00 00 
   19b4e:	48 8d 85 90 f8 ff ff 	lea    -0x770(%rbp),%rax
   19b55:	48 83 c0 40          	add    $0x40,%rax
   19b59:	48 89 85 20 f6 ff ff 	mov    %rax,-0x9e0(%rbp)
   19b60:	48 c7 85 28 f6 ff ff 	movq   $0x0,-0x9d8(%rbp)
   19b67:	00 00 00 00 
   19b6b:	48 c7 85 30 f6 ff ff 	movq   $0x0,-0x9d0(%rbp)
   19b72:	00 00 00 00 
   19b76:	48 8d 85 90 f8 ff ff 	lea    -0x770(%rbp),%rax
   19b7d:	48 83 c0 40          	add    $0x40,%rax
   19b81:	48 89 85 38 f6 ff ff 	mov    %rax,-0x9c8(%rbp)
   19b88:	48 c7 85 40 f6 ff ff 	movq   $0x0,-0x9c0(%rbp)
   19b8f:	00 00 00 00 
   19b93:	48 8d 85 90 f8 ff ff 	lea    -0x770(%rbp),%rax
   19b9a:	48 83 c0 40          	add    $0x40,%rax
   19b9e:	48 89 85 48 f6 ff ff 	mov    %rax,-0x9b8(%rbp)
   19ba5:	48 c7 85 50 f6 ff ff 	movq   $0x0,-0x9b0(%rbp)
   19bac:	00 00 00 00 
   19bb0:	48 c7 85 58 f6 ff ff 	movq   $0x0,-0x9a8(%rbp)
   19bb7:	00 00 00 00 
   19bbb:	48 8d 85 90 f8 ff ff 	lea    -0x770(%rbp),%rax
   19bc2:	48 83 c0 40          	add    $0x40,%rax
   19bc6:	48 89 85 60 f6 ff ff 	mov    %rax,-0x9a0(%rbp)
   19bcd:	48 c7 85 68 f6 ff ff 	movq   $0x0,-0x998(%rbp)
   19bd4:	00 00 00 00 
   19bd8:	48 c7 85 70 f6 ff ff 	movq   $0x0,-0x990(%rbp)
   19bdf:	00 00 00 00 
   19be3:	48 8d 85 90 f8 ff ff 	lea    -0x770(%rbp),%rax
   19bea:	48 83 c0 40          	add    $0x40,%rax
   19bee:	48 89 85 78 f6 ff ff 	mov    %rax,-0x988(%rbp)
   19bf5:	48 c7 85 80 f6 ff ff 	movq   $0x0,-0x980(%rbp)
   19bfc:	00 00 00 00 
   19c00:	48 c7 85 88 f6 ff ff 	movq   $0x0,-0x978(%rbp)
   19c07:	00 00 00 00 
   19c0b:	48 c7 05 ea d4 00 00 	movq   $0xfffffffffffffff5,0xd4ea(%rip)        # 27100 <g_699>
   19c12:	f5 ff ff ff 
   19c16:	e9 8a 01 00 00       	jmpq   19da5 <func_15+0x276e>
   19c1b:	48 8d 85 e0 ed ff ff 	lea    -0x1220(%rbp),%rax
   19c22:	48 89 85 98 ec ff ff 	mov    %rax,-0x1368(%rbp)
   19c29:	c7 85 20 ea ff ff 9d 	movl   $0x55b13c9d,-0x15e0(%rbp)
   19c30:	3c b1 55 
   19c33:	0f b6 05 cf d4 00 00 	movzbl 0xd4cf(%rip),%eax        # 27109 <g_802>
   19c3a:	84 c0                	test   %al,%al
   19c3c:	0f 85 3c fd ff ff    	jne    1997e <func_15+0x2347>
   19c42:	48 8b 85 18 e9 ff ff 	mov    -0x16e8(%rbp),%rax
   19c49:	8b 18                	mov    (%rax),%ebx
   19c4b:	48 8b 95 e0 ed ff ff 	mov    -0x1220(%rbp),%rdx
   19c52:	48 8b 85 98 ec ff ff 	mov    -0x1368(%rbp),%rax
   19c59:	48 89 10             	mov    %rdx,(%rax)
   19c5c:	48 8b 85 98 ec ff ff 	mov    -0x1368(%rbp),%rax
   19c63:	48 8b 00             	mov    (%rax),%rax
   19c66:	ba 00 00 00 00       	mov    $0x0,%edx
   19c6b:	48 39 d0             	cmp    %rdx,%rax
   19c6e:	0f 95 c0             	setne  %al
   19c71:	0f b6 c0             	movzbl %al,%eax
   19c74:	be 03 00 00 00       	mov    $0x3,%esi
   19c79:	89 c7                	mov    %eax,%edi
   19c7b:	e8 0d 40 ff ff       	callq  dc8d <safe_rshift_func_uint8_t_u_s>
   19c80:	44 0f b6 e0          	movzbl %al,%r12d
   19c84:	8b 85 e0 e9 ff ff    	mov    -0x1620(%rbp),%eax
   19c8a:	0f b7 d0             	movzwl %ax,%edx
   19c8d:	8b 85 20 ea ff ff    	mov    -0x15e0(%rbp),%eax
   19c93:	0f b7 c0             	movzwl %ax,%eax
   19c96:	89 d6                	mov    %edx,%esi
   19c98:	89 c7                	mov    %eax,%edi
   19c9a:	e8 ef 40 ff ff       	callq  dd8e <safe_div_func_uint16_t_u_u>
   19c9f:	66 41 39 c4          	cmp    %ax,%r12w
   19ca3:	0f 93 c0             	setae  %al
   19ca6:	0f b6 c0             	movzbl %al,%eax
   19ca9:	be 0c 00 00 00       	mov    $0xc,%esi
   19cae:	89 c7                	mov    %eax,%edi
   19cb0:	e8 dd 37 ff ff       	callq  d492 <safe_lshift_func_int16_t_s_s>
   19cb5:	98                   	cwtl   
   19cb6:	be 01 00 00 00       	mov    $0x1,%esi
   19cbb:	89 c7                	mov    %eax,%edi
   19cbd:	e8 93 37 ff ff       	callq  d455 <safe_div_func_int16_t_s_s>
   19cc2:	48 8b 95 38 e9 ff ff 	mov    -0x16c8(%rbp),%rdx
   19cc9:	8b 12                	mov    (%rdx),%edx
   19ccb:	21 d0                	and    %edx,%eax
   19ccd:	0f b7 c0             	movzwl %ax,%eax
   19cd0:	be 01 00 00 00       	mov    $0x1,%esi
   19cd5:	89 c7                	mov    %eax,%edi
   19cd7:	e8 80 40 ff ff       	callq  dd5c <safe_mod_func_uint16_t_u_u>
   19cdc:	0f b7 c0             	movzwl %ax,%eax
   19cdf:	89 c6                	mov    %eax,%esi
   19ce1:	bf 3c 00 00 00       	mov    $0x3c,%edi
   19ce6:	e8 d3 3f ff ff       	callq  dcbe <safe_rshift_func_uint8_t_u_u>
   19ceb:	8b 85 6c e9 ff ff    	mov    -0x1694(%rbp),%eax
   19cf1:	89 de                	mov    %ebx,%esi
   19cf3:	89 c7                	mov    %eax,%edi
   19cf5:	e8 bc 38 ff ff       	callq  d5b6 <safe_add_func_int32_t_s_s>
   19cfa:	8b 85 24 e9 ff ff    	mov    -0x16dc(%rbp),%eax
   19d00:	0f b6 c0             	movzbl %al,%eax
   19d03:	be 00 00 00 00       	mov    $0x0,%esi
   19d08:	89 c7                	mov    %eax,%edi
   19d0a:	e8 7e 3f ff ff       	callq  dc8d <safe_rshift_func_uint8_t_u_s>
   19d0f:	0f b6 d0             	movzbl %al,%edx
   19d12:	48 8b 85 18 e9 ff ff 	mov    -0x16e8(%rbp),%rax
   19d19:	8b 08                	mov    (%rax),%ecx
   19d1b:	48 83 bd 68 ec ff ff 	cmpq   $0x0,-0x1398(%rbp)
   19d22:	00 
   19d23:	0f 95 c0             	setne  %al
   19d26:	0f b6 c0             	movzbl %al,%eax
   19d29:	39 c1                	cmp    %eax,%ecx
   19d2b:	0f 94 c0             	sete   %al
   19d2e:	0f b6 c0             	movzbl %al,%eax
   19d31:	39 c2                	cmp    %eax,%edx
   19d33:	0f 95 c0             	setne  %al
   19d36:	0f b6 c8             	movzbl %al,%ecx
   19d39:	48 8b 85 30 e9 ff ff 	mov    -0x16d0(%rbp),%rax
   19d40:	8b 10                	mov    (%rax),%edx
   19d42:	48 8b 05 ff 0c 01 00 	mov    0x10cff(%rip),%rax        # 2aa48 <g_142>
   19d49:	21 ca                	and    %ecx,%edx
   19d4b:	89 10                	mov    %edx,(%rax)
   19d4d:	48 c7 85 70 eb ff ff 	movq   $0xffffffffffffffeb,-0x1490(%rbp)
   19d54:	eb ff ff ff 
   19d58:	eb 2f                	jmp    19d89 <func_15+0x2752>
   19d5a:	8b 85 04 ef ff ff    	mov    -0x10fc(%rbp),%eax
   19d60:	83 c0 01             	add    $0x1,%eax
   19d63:	89 85 04 ef ff ff    	mov    %eax,-0x10fc(%rbp)
   19d69:	48 8b 85 70 eb ff ff 	mov    -0x1490(%rbp),%rax
   19d70:	0f b7 c0             	movzwl %ax,%eax
   19d73:	be 07 00 00 00       	mov    $0x7,%esi
   19d78:	89 c7                	mov    %eax,%edi
   19d7a:	e8 80 3f ff ff       	callq  dcff <safe_add_func_uint16_t_u_u>
   19d7f:	0f b7 c0             	movzwl %ax,%eax
   19d82:	48 89 85 70 eb ff ff 	mov    %rax,-0x1490(%rbp)
   19d89:	48 83 bd 70 eb ff ff 	cmpq   $0xfffffffffffffff7,-0x1490(%rbp)
   19d90:	f7 
   19d91:	7c c7                	jl     19d5a <func_15+0x2723>
   19d93:	48 8b 05 66 d3 00 00 	mov    0xd366(%rip),%rax        # 27100 <g_699>
   19d9a:	48 83 c0 01          	add    $0x1,%rax
   19d9e:	48 89 05 5b d3 00 00 	mov    %rax,0xd35b(%rip)        # 27100 <g_699>
   19da5:	48 8b 05 54 d3 00 00 	mov    0xd354(%rip),%rax        # 27100 <g_699>
   19dac:	48 83 f8 fa          	cmp    $0xfffffffffffffffa,%rax
   19db0:	0f 84 65 fe ff ff    	je     19c1b <func_15+0x25e4>
   19db6:	8b 9d e0 e9 ff ff    	mov    -0x1620(%rbp),%ebx
   19dbc:	44 8b a5 e0 e9 ff ff 	mov    -0x1620(%rbp),%r12d
   19dc3:	8b 85 e0 e9 ff ff    	mov    -0x1620(%rbp),%eax
   19dc9:	0f b6 c0             	movzbl %al,%eax
   19dcc:	be 01 00 00 00       	mov    $0x1,%esi
   19dd1:	89 c7                	mov    %eax,%edi
   19dd3:	e8 d6 3d ff ff       	callq  dbae <safe_mod_func_uint8_t_u_u>
   19dd8:	0f b6 c0             	movzbl %al,%eax
   19ddb:	44 89 e6             	mov    %r12d,%esi
   19dde:	89 c7                	mov    %eax,%edi
   19de0:	e8 95 40 ff ff       	callq  de7a <safe_rshift_func_uint16_t_u_u>
   19de5:	48 8b 85 28 ec ff ff 	mov    -0x13d8(%rbp),%rax
   19dec:	44 0f bf e0          	movswl %ax,%r12d
   19df0:	8b 85 e0 e9 ff ff    	mov    -0x1620(%rbp),%eax
   19df6:	0f b7 d0             	movzwl %ax,%edx
   19df9:	48 83 bd 40 ec ff ff 	cmpq   $0x0,-0x13c0(%rbp)
   19e00:	00 
   19e01:	0f 95 c0             	setne  %al
   19e04:	0f b6 c0             	movzbl %al,%eax
   19e07:	89 d6                	mov    %edx,%esi
   19e09:	89 c7                	mov    %eax,%edi
   19e0b:	e8 2d 3f ff ff       	callq  dd3d <safe_mul_func_uint16_t_u_u>
   19e10:	44 89 e6             	mov    %r12d,%esi
   19e13:	bf 01 00 00 00       	mov    $0x1,%edi
   19e18:	e8 f9 35 ff ff       	callq  d416 <safe_mod_func_int16_t_s_s>
   19e1d:	8b 85 e0 e9 ff ff    	mov    -0x1620(%rbp),%eax
   19e23:	0f b6 c0             	movzbl %al,%eax
   19e26:	be b2 00 00 00       	mov    $0xb2,%esi
   19e2b:	89 c7                	mov    %eax,%edi
   19e2d:	e8 46 3d ff ff       	callq  db78 <safe_sub_func_uint8_t_u_u>
   19e32:	be 05 00 00 00       	mov    $0x5,%esi
   19e37:	bf 00 00 00 00       	mov    $0x0,%edi
   19e3c:	e8 39 40 ff ff       	callq  de7a <safe_rshift_func_uint16_t_u_u>
   19e41:	81 bd e0 e9 ff ff 95 	cmpl   $0x2195,-0x1620(%rbp)
   19e48:	21 00 00 
   19e4b:	0f 94 c0             	sete   %al
   19e4e:	0f b6 c0             	movzbl %al,%eax
   19e51:	be ff ff ff ff       	mov    $0xffffffff,%esi
   19e56:	89 c7                	mov    %eax,%edi
   19e58:	e8 77 33 ff ff       	callq  d1d4 <safe_add_func_int8_t_s_s>
   19e5d:	66 98                	cbtw   
   19e5f:	0f b7 c0             	movzwl %ax,%eax
   19e62:	be 06 00 00 00       	mov    $0x6,%esi
   19e67:	89 c7                	mov    %eax,%edi
   19e69:	e8 50 3f ff ff       	callq  ddbe <safe_lshift_func_uint16_t_u_s>
   19e6e:	0f b7 c0             	movzwl %ax,%eax
   19e71:	89 de                	mov    %ebx,%esi
   19e73:	89 c7                	mov    %eax,%edi
   19e75:	e8 ab 40 ff ff       	callq  df25 <safe_div_func_uint32_t_u_u>
   19e7a:	48 8b 15 f7 27 01 00 	mov    0x127f7(%rip),%rdx        # 2c678 <g_2194>
   19e81:	8b 12                	mov    (%rdx),%edx
   19e83:	21 c2                	and    %eax,%edx
   19e85:	48 8b 05 ec 27 01 00 	mov    0x127ec(%rip),%rax        # 2c678 <g_2194>
   19e8c:	89 10                	mov    %edx,(%rax)
   19e8e:	c7 85 bc e9 ff ff 01 	movl   $0x1,-0x1644(%rbp)
   19e95:	00 00 00 
   19e98:	c7 85 14 ea ff ff 32 	movl   $0xf5a28932,-0x15ec(%rbp)
   19e9f:	89 a2 f5 
   19ea2:	c7 85 18 ea ff ff 71 	movl   $0x2c2a0271,-0x15e8(%rbp)
   19ea9:	02 2a 2c 
   19eac:	c7 85 1c ea ff ff 33 	movl   $0xfc38ab33,-0x15e4(%rbp)
   19eb3:	ab 38 fc 
   19eb6:	48 c7 85 80 ed ff ff 	movq   $0x0,-0x1280(%rbp)
   19ebd:	00 00 00 00 
   19ec1:	48 c7 85 88 ed ff ff 	movq   $0x0,-0x1278(%rbp)
   19ec8:	00 00 00 00 
   19ecc:	48 c7 85 90 ed ff ff 	movq   $0x0,-0x1270(%rbp)
   19ed3:	00 00 00 00 
   19ed7:	c7 85 98 ed ff ff 00 	movl   $0x0,-0x1268(%rbp)
   19ede:	00 00 00 
   19ee1:	48 8d 05 98 d1 00 00 	lea    0xd198(%rip),%rax        # 27080 <g_107>
   19ee8:	48 89 85 90 ec ff ff 	mov    %rax,-0x1370(%rbp)
   19eef:	48 c7 85 30 ef ff ff 	movq   $0x0,-0x10d0(%rbp)
   19ef6:	00 00 00 00 
   19efa:	48 8d 85 08 eb ff ff 	lea    -0x14f8(%rbp),%rax
   19f01:	48 89 85 38 ef ff ff 	mov    %rax,-0x10c8(%rbp)
   19f08:	48 8d 85 08 eb ff ff 	lea    -0x14f8(%rbp),%rax
   19f0f:	48 89 85 40 ef ff ff 	mov    %rax,-0x10c0(%rbp)
   19f16:	48 c7 85 48 ef ff ff 	movq   $0x0,-0x10b8(%rbp)
   19f1d:	00 00 00 00 
   19f21:	48 8d 85 08 eb ff ff 	lea    -0x14f8(%rbp),%rax
   19f28:	48 89 85 50 ef ff ff 	mov    %rax,-0x10b0(%rbp)
   19f2f:	48 8d 85 08 eb ff ff 	lea    -0x14f8(%rbp),%rax
   19f36:	48 89 85 58 ef ff ff 	mov    %rax,-0x10a8(%rbp)
   19f3d:	48 c7 85 60 ef ff ff 	movq   $0x0,-0x10a0(%rbp)
   19f44:	00 00 00 00 
   19f48:	48 8d 85 08 eb ff ff 	lea    -0x14f8(%rbp),%rax
   19f4f:	48 89 85 68 ef ff ff 	mov    %rax,-0x1098(%rbp)
   19f56:	48 8d 85 08 eb ff ff 	lea    -0x14f8(%rbp),%rax
   19f5d:	48 89 85 70 ef ff ff 	mov    %rax,-0x1090(%rbp)
   19f64:	48 c7 85 78 ef ff ff 	movq   $0x0,-0x1088(%rbp)
   19f6b:	00 00 00 00 
   19f6f:	66 c7 05 7e d1 00 00 	movw   $0x0,0xd17e(%rip)        # 270f6 <g_620>
   19f76:	00 00 
   19f78:	e9 dc 00 00 00       	jmpq   1a059 <func_15+0x2a22>
   19f7d:	48 8d 85 40 f4 ff ff 	lea    -0xbc0(%rbp),%rax
   19f84:	48 05 c8 00 00 00    	add    $0xc8,%rax
   19f8a:	48 89 85 38 e9 ff ff 	mov    %rax,-0x16c8(%rbp)
   19f91:	48 8b 85 18 e9 ff ff 	mov    -0x16e8(%rbp),%rax
   19f98:	48 89 85 f8 f3 ff ff 	mov    %rax,-0xc08(%rbp)
   19f9f:	48 8b 85 90 eb ff ff 	mov    -0x1470(%rbp),%rax
   19fa6:	48 89 05 b3 26 01 00 	mov    %rax,0x126b3(%rip)        # 2c660 <g_1310>
   19fad:	48 8b 05 ac 26 01 00 	mov    0x126ac(%rip),%rax        # 2c660 <g_1310>
   19fb4:	48 39 85 48 ec ff ff 	cmp    %rax,-0x13b8(%rbp)
   19fbb:	0f 95 c0             	setne  %al
   19fbe:	0f b6 d0             	movzbl %al,%edx
   19fc1:	8b 85 24 e9 ff ff    	mov    -0x16dc(%rbp),%eax
   19fc7:	48 89 d6             	mov    %rdx,%rsi
   19fca:	48 89 c7             	mov    %rax,%rdi
   19fcd:	e8 5c 40 ff ff       	callq  e02e <safe_add_func_uint64_t_u_u>
   19fd2:	48 85 c0             	test   %rax,%rax
   19fd5:	75 4f                	jne    1a026 <func_15+0x29ef>
   19fd7:	83 bd 24 e9 ff ff 00 	cmpl   $0x0,-0x16dc(%rbp)
   19fde:	74 4d                	je     1a02d <func_15+0x29f6>
   19fe0:	8b 85 e8 ee ff ff    	mov    -0x1118(%rbp),%eax
   19fe6:	f7 d0                	not    %eax
   19fe8:	89 c2                	mov    %eax,%edx
   19fea:	83 bd 14 ea ff ff 00 	cmpl   $0x0,-0x15ec(%rbp)
   19ff1:	74 11                	je     1a004 <func_15+0x29cd>
   19ff3:	8b 85 e0 ee ff ff    	mov    -0x1120(%rbp),%eax
   19ff9:	85 c0                	test   %eax,%eax
   19ffb:	74 07                	je     1a004 <func_15+0x29cd>
   19ffd:	b8 01 00 00 00       	mov    $0x1,%eax
   1a002:	eb 05                	jmp    1a009 <func_15+0x29d2>
   1a004:	b8 00 00 00 00       	mov    $0x0,%eax
   1a009:	21 d0                	and    %edx,%eax
   1a00b:	89 c2                	mov    %eax,%edx
   1a00d:	48 8b 85 60 eb ff ff 	mov    -0x14a0(%rbp),%rax
   1a014:	66 89 10             	mov    %dx,(%rax)
   1a017:	48 8b 85 60 eb ff ff 	mov    -0x14a0(%rbp),%rax
   1a01e:	0f b7 00             	movzwl (%rax),%eax
   1a021:	66 85 c0             	test   %ax,%ax
   1a024:	74 07                	je     1a02d <func_15+0x29f6>
   1a026:	ba 01 00 00 00       	mov    $0x1,%edx
   1a02b:	eb 05                	jmp    1a032 <func_15+0x29fb>
   1a02d:	ba 00 00 00 00       	mov    $0x0,%edx
   1a032:	48 8b 85 18 e9 ff ff 	mov    -0x16e8(%rbp),%rax
   1a039:	89 10                	mov    %edx,(%rax)
   1a03b:	0f b7 05 b4 d0 00 00 	movzwl 0xd0b4(%rip),%eax        # 270f6 <g_620>
   1a042:	0f b7 c0             	movzwl %ax,%eax
   1a045:	be 04 00 00 00       	mov    $0x4,%esi
   1a04a:	48 89 c7             	mov    %rax,%rdi
   1a04d:	e8 ef 37 ff ff       	callq  d841 <safe_add_func_int64_t_s_s>
   1a052:	66 89 05 9d d0 00 00 	mov    %ax,0xd09d(%rip)        # 270f6 <g_620>
   1a059:	0f b7 05 96 d0 00 00 	movzwl 0xd096(%rip),%eax        # 270f6 <g_620>
   1a060:	66 83 f8 13          	cmp    $0x13,%ax
   1a064:	0f 87 13 ff ff ff    	ja     19f7d <func_15+0x2946>
   1a06a:	48 8b 05 d7 09 01 00 	mov    0x109d7(%rip),%rax        # 2aa48 <g_142>
   1a071:	48 c7 85 80 ec ff ff 	movq   $0x0,-0x1380(%rbp)
   1a078:	00 00 00 00 
   1a07c:	8b 05 e2 d1 00 00    	mov    0xd1e2(%rip),%eax        # 27264 <g_3271>
   1a082:	83 c0 01             	add    $0x1,%eax
   1a085:	89 05 d9 d1 00 00    	mov    %eax,0xd1d9(%rip)        # 27264 <g_3271>
   1a08b:	0f bf 8d 50 e9 ff ff 	movswl -0x16b0(%rbp),%ecx
   1a092:	48 8d 85 40 f4 ff ff 	lea    -0xbc0(%rbp),%rax
   1a099:	48 8d 90 c8 00 00 00 	lea    0xc8(%rax),%rdx
   1a0a0:	48 8d 85 70 e9 ff ff 	lea    -0x1690(%rbp),%rax
   1a0a7:	89 ce                	mov    %ecx,%esi
   1a0a9:	48 89 c7             	mov    %rax,%rdi
   1a0ac:	e8 e6 1c 00 00       	callq  1bd97 <func_26>
   1a0b1:	48 89 85 38 e9 ff ff 	mov    %rax,-0x16c8(%rbp)
   1a0b8:	48 8b 05 81 0a 01 00 	mov    0x10a81(%rip),%rax        # 2ab40 <g_2467>
   1a0bf:	0f b6 00             	movzbl (%rax),%eax
   1a0c2:	0f be d8             	movsbl %al,%ebx
   1a0c5:	48 8b 05 74 0a 01 00 	mov    0x10a74(%rip),%rax        # 2ab40 <g_2467>
   1a0cc:	0f b6 00             	movzbl (%rax),%eax
   1a0cf:	0f be c0             	movsbl %al,%eax
   1a0d2:	be 07 00 00 00       	mov    $0x7,%esi
   1a0d7:	89 c7                	mov    %eax,%edi
   1a0d9:	e8 10 32 ff ff       	callq  d2ee <safe_lshift_func_int8_t_s_u>
   1a0de:	0f be d0             	movsbl %al,%edx
   1a0e1:	48 8b 85 08 eb ff ff 	mov    -0x14f8(%rbp),%rax
   1a0e8:	48 8b 08             	mov    (%rax),%rcx
   1a0eb:	48 83 c1 01          	add    $0x1,%rcx
   1a0ef:	48 89 08             	mov    %rcx,(%rax)
   1a0f2:	48 8b 08             	mov    (%rax),%rcx
   1a0f5:	8b 85 24 e9 ff ff    	mov    -0x16dc(%rbp),%eax
   1a0fb:	48 39 c1             	cmp    %rax,%rcx
   1a0fe:	0f 92 c0             	setb   %al
   1a101:	0f b6 c0             	movzbl %al,%eax
   1a104:	89 d6                	mov    %edx,%esi
   1a106:	89 c7                	mov    %eax,%edi
   1a108:	e8 ab 3d ff ff       	callq  deb8 <safe_add_func_uint32_t_u_u>
   1a10d:	41 89 c4             	mov    %eax,%r12d
   1a110:	48 8b 05 61 25 01 00 	mov    0x12561(%rip),%rax        # 2c678 <g_2194>
   1a117:	8b 00                	mov    (%rax),%eax
   1a119:	41 89 c5             	mov    %eax,%r13d
   1a11c:	48 8b 05 35 09 01 00 	mov    0x10935(%rip),%rax        # 2aa58 <g_396>
   1a123:	48 8b 00             	mov    (%rax),%rax
   1a126:	49 89 c6             	mov    %rax,%r14
   1a129:	8b 85 24 e9 ff ff    	mov    -0x16dc(%rbp),%eax
   1a12f:	98                   	cwtl   
   1a130:	8b 95 ec e9 ff ff    	mov    -0x1614(%rbp),%edx
   1a136:	0f bf d2             	movswl %dx,%edx
   1a139:	83 e2 49             	and    $0x49,%edx
   1a13c:	89 c6                	mov    %eax,%esi
   1a13e:	89 d7                	mov    %edx,%edi
   1a140:	e8 b0 32 ff ff       	callq  d3f5 <safe_mul_func_int16_t_s_s>
   1a145:	48 0f bf c0          	movswq %ax,%rax
   1a149:	48 0b 85 78 ec ff ff 	or     -0x1388(%rbp),%rax
   1a150:	4c 89 f6             	mov    %r14,%rsi
   1a153:	48 89 c7             	mov    %rax,%rdi
   1a156:	e8 25 3f ff ff       	callq  e080 <safe_mod_func_uint64_t_u_u>
   1a15b:	44 89 ee             	mov    %r13d,%esi
   1a15e:	bf 01 00 00 00       	mov    $0x1,%edi
   1a163:	e8 68 3d ff ff       	callq  ded0 <safe_sub_func_uint32_t_u_u>
   1a168:	0f b6 d0             	movzbl %al,%edx
   1a16b:	8b 85 24 e9 ff ff    	mov    -0x16dc(%rbp),%eax
   1a171:	0f b6 c0             	movzbl %al,%eax
   1a174:	89 d6                	mov    %edx,%esi
   1a176:	89 c7                	mov    %eax,%edi
   1a178:	e8 5e 3a ff ff       	callq  dbdb <safe_div_func_uint8_t_u_u>
   1a17d:	8b 85 24 e9 ff ff    	mov    -0x16dc(%rbp),%eax
   1a183:	89 c6                	mov    %eax,%esi
   1a185:	bf 01 00 00 00       	mov    $0x1,%edi
   1a18a:	e8 29 3d ff ff       	callq  deb8 <safe_add_func_uint32_t_u_u>
   1a18f:	83 bd 24 e9 ff ff 01 	cmpl   $0x1,-0x16dc(%rbp)
   1a196:	77 09                	ja     1a1a1 <func_15+0x2b6a>
   1a198:	83 bd 24 e9 ff ff 00 	cmpl   $0x0,-0x16dc(%rbp)
   1a19f:	74 07                	je     1a1a8 <func_15+0x2b71>
   1a1a1:	b8 01 00 00 00       	mov    $0x1,%eax
   1a1a6:	eb 05                	jmp    1a1ad <func_15+0x2b76>
   1a1a8:	b8 00 00 00 00       	mov    $0x0,%eax
   1a1ad:	98                   	cwtl   
   1a1ae:	be 02 00 00 00       	mov    $0x2,%esi
   1a1b3:	89 c7                	mov    %eax,%edi
   1a1b5:	e8 d8 32 ff ff       	callq  d492 <safe_lshift_func_int16_t_s_s>
   1a1ba:	0f b7 c0             	movzwl %ax,%eax
   1a1bd:	be 0d 00 00 00       	mov    $0xd,%esi
   1a1c2:	89 c7                	mov    %eax,%edi
   1a1c4:	e8 3d 3c ff ff       	callq  de06 <safe_lshift_func_uint16_t_u_u>
   1a1c9:	0f b7 d0             	movzwl %ax,%edx
   1a1cc:	8b 85 5c ed ff ff    	mov    -0x12a4(%rbp),%eax
   1a1d2:	09 d0                	or     %edx,%eax
   1a1d4:	41 39 c4             	cmp    %eax,%r12d
   1a1d7:	0f 92 c0             	setb   %al
   1a1da:	0f b6 c0             	movzbl %al,%eax
   1a1dd:	89 85 24 e9 ff ff    	mov    %eax,-0x16dc(%rbp)
   1a1e3:	8b 85 6c e9 ff ff    	mov    -0x1694(%rbp),%eax
   1a1e9:	0f be c0             	movsbl %al,%eax
   1a1ec:	89 de                	mov    %ebx,%esi
   1a1ee:	89 c7                	mov    %eax,%edi
   1a1f0:	e8 ac 30 ff ff       	callq  d2a1 <safe_lshift_func_int8_t_s_s>
   1a1f5:	0f be c0             	movsbl %al,%eax
   1a1f8:	39 85 ec e9 ff ff    	cmp    %eax,-0x1614(%rbp)
   1a1fe:	7e 1c                	jle    1a21c <func_15+0x2be5>
   1a200:	c6 85 4b e9 ff ff 98 	movb   $0x98,-0x16b5(%rbp)
   1a207:	0f b6 85 4b e9 ff ff 	movzbl -0x16b5(%rbp),%eax
   1a20e:	83 e8 01             	sub    $0x1,%eax
   1a211:	88 85 4b e9 ff ff    	mov    %al,-0x16b5(%rbp)
   1a217:	e9 3c 06 00 00       	jmpq   1a858 <func_15+0x3221>
   1a21c:	48 8d 05 35 08 01 00 	lea    0x10835(%rip),%rax        # 2aa58 <g_396>
   1a223:	48 89 85 f0 f5 ff ff 	mov    %rax,-0xa10(%rbp)
   1a22a:	48 8d 05 27 08 01 00 	lea    0x10827(%rip),%rax        # 2aa58 <g_396>
   1a231:	48 89 85 f8 f5 ff ff 	mov    %rax,-0xa08(%rbp)
   1a238:	48 8d 05 19 08 01 00 	lea    0x10819(%rip),%rax        # 2aa58 <g_396>
   1a23f:	48 89 85 00 f6 ff ff 	mov    %rax,-0xa00(%rbp)
   1a246:	48 8d 05 0b 08 01 00 	lea    0x1080b(%rip),%rax        # 2aa58 <g_396>
   1a24d:	48 89 85 08 f6 ff ff 	mov    %rax,-0x9f8(%rbp)
   1a254:	48 8d 05 fd 07 01 00 	lea    0x107fd(%rip),%rax        # 2aa58 <g_396>
   1a25b:	48 89 85 10 f6 ff ff 	mov    %rax,-0x9f0(%rbp)
   1a262:	c7 85 24 ea ff ff f9 	movl   $0xfffffff9,-0x15dc(%rbp)
   1a269:	ff ff ff 
   1a26c:	48 8d 85 d0 ea ff ff 	lea    -0x1530(%rbp),%rax
   1a273:	48 89 85 a0 ec ff ff 	mov    %rax,-0x1360(%rbp)
   1a27a:	c7 85 28 ea ff ff 05 	movl   $0x5,-0x15d8(%rbp)
   1a281:	00 00 00 
   1a284:	c7 85 2c ea ff ff ec 	movl   $0x9c8edfec,-0x15d4(%rbp)
   1a28b:	df 8e 9c 
   1a28e:	c7 85 30 ea ff ff ce 	movl   $0xca015ace,-0x15d0(%rbp)
   1a295:	5a 01 ca 
   1a298:	c7 85 34 ea ff ff 00 	movl   $0x0,-0x15cc(%rbp)
   1a29f:	00 00 00 
   1a2a2:	c7 85 38 ea ff ff 01 	movl   $0x1,-0x15c8(%rbp)
   1a2a9:	00 00 00 
   1a2ac:	c7 85 3c ea ff ff f7 	movl   $0xfffffff7,-0x15c4(%rbp)
   1a2b3:	ff ff ff 
   1a2b6:	c7 85 40 ea ff ff 01 	movl   $0x1,-0x15c0(%rbp)
   1a2bd:	00 00 00 
   1a2c0:	c7 85 44 ea ff ff 09 	movl   $0x9,-0x15bc(%rbp)
   1a2c7:	00 00 00 
   1a2ca:	c7 85 48 ea ff ff ff 	movl   $0xffffffff,-0x15b8(%rbp)
   1a2d1:	ff ff ff 
   1a2d4:	c7 85 4c ea ff ff d9 	movl   $0x47fcd5d9,-0x15b4(%rbp)
   1a2db:	d5 fc 47 
   1a2de:	c6 85 4a e9 ff ff 06 	movb   $0x6,-0x16b6(%rbp)
   1a2e5:	48 8b 85 18 e9 ff ff 	mov    -0x16e8(%rbp),%rax
   1a2ec:	48 89 85 28 e9 ff ff 	mov    %rax,-0x16d8(%rbp)
   1a2f3:	44 8b ad 3c f5 ff ff 	mov    -0xac4(%rbp),%r13d
   1a2fa:	48 8b 85 f0 f5 ff ff 	mov    -0xa10(%rbp),%rax
   1a301:	48 85 c0             	test   %rax,%rax
   1a304:	0f 95 c0             	setne  %al
   1a307:	44 0f b6 f0          	movzbl %al,%r14d
   1a30b:	83 bd 24 e9 ff ff 00 	cmpl   $0x0,-0x16dc(%rbp)
   1a312:	0f 94 c0             	sete   %al
   1a315:	44 0f b6 f8          	movzbl %al,%r15d
   1a319:	8b 9d 24 ea ff ff    	mov    -0x15dc(%rbp),%ebx
   1a31f:	44 8b a5 24 e9 ff ff 	mov    -0x16dc(%rbp),%r12d
   1a326:	48 8b 85 28 ec ff ff 	mov    -0x13d8(%rbp),%rax
   1a32d:	98                   	cwtl   
   1a32e:	89 c7                	mov    %eax,%edi
   1a330:	e8 68 30 ff ff       	callq  d39d <safe_unary_minus_func_int16_t_s>
   1a335:	48 0f bf c0          	movswq %ax,%rax
   1a339:	4c 89 e6             	mov    %r12,%rsi
   1a33c:	48 89 c7             	mov    %rax,%rdi
   1a33f:	e8 70 36 ff ff       	callq  d9b4 <safe_mod_func_int64_t_s_s>
   1a344:	0f b6 c0             	movzbl %al,%eax
   1a347:	89 de                	mov    %ebx,%esi
   1a349:	89 c7                	mov    %eax,%edi
   1a34b:	e8 fc 38 ff ff       	callq  dc4c <safe_lshift_func_uint8_t_u_u>
   1a350:	0f b6 c0             	movzbl %al,%eax
   1a353:	0b 85 24 ea ff ff    	or     -0x15dc(%rbp),%eax
   1a359:	85 c0                	test   %eax,%eax
   1a35b:	8b 85 24 e9 ff ff    	mov    -0x16dc(%rbp),%eax
   1a361:	0f b7 c0             	movzwl %ax,%eax
   1a364:	be d3 7a 00 00       	mov    $0x7ad3,%esi
   1a369:	89 c7                	mov    %eax,%edi
   1a36b:	e8 ec 39 ff ff       	callq  dd5c <safe_mod_func_uint16_t_u_u>
   1a370:	0f b7 c0             	movzwl %ax,%eax
   1a373:	41 39 c7             	cmp    %eax,%r15d
   1a376:	0f 95 c0             	setne  %al
   1a379:	0f b6 c0             	movzbl %al,%eax
   1a37c:	41 39 c6             	cmp    %eax,%r14d
   1a37f:	0f 9d c0             	setge  %al
   1a382:	0f b6 c0             	movzbl %al,%eax
   1a385:	89 c6                	mov    %eax,%esi
   1a387:	bf fa ff 00 00       	mov    $0xfffa,%edi
   1a38c:	e8 e9 3a ff ff       	callq  de7a <safe_rshift_func_uint16_t_u_u>
   1a391:	48 8d 05 e8 22 01 00 	lea    0x122e8(%rip),%rax        # 2c680 <g_2493>
   1a398:	48 39 85 a0 ec ff ff 	cmp    %rax,-0x1360(%rbp)
   1a39f:	0f 94 c0             	sete   %al
   1a3a2:	0f b6 d0             	movzbl %al,%edx
   1a3a5:	8b 85 1c f5 ff ff    	mov    -0xae4(%rbp),%eax
   1a3ab:	39 c2                	cmp    %eax,%edx
   1a3ad:	75 0d                	jne    1a3bc <func_15+0x2d85>
   1a3af:	48 8b 85 18 e9 ff ff 	mov    -0x16e8(%rbp),%rax
   1a3b6:	8b 00                	mov    (%rax),%eax
   1a3b8:	85 c0                	test   %eax,%eax
   1a3ba:	74 07                	je     1a3c3 <func_15+0x2d8c>
   1a3bc:	b8 01 00 00 00       	mov    $0x1,%eax
   1a3c1:	eb 05                	jmp    1a3c8 <func_15+0x2d91>
   1a3c3:	b8 00 00 00 00       	mov    $0x0,%eax
   1a3c8:	44 39 e8             	cmp    %r13d,%eax
   1a3cb:	0f 8e 24 02 00 00    	jle    1a5f5 <func_15+0x2fbe>
   1a3d1:	c7 85 50 ea ff ff db 	movl   $0x89bf2adb,-0x15b0(%rbp)
   1a3d8:	2a bf 89 
   1a3db:	48 8d 85 30 eb ff ff 	lea    -0x14d0(%rbp),%rax
   1a3e2:	48 89 85 a8 ec ff ff 	mov    %rax,-0x1358(%rbp)
   1a3e9:	48 8d 85 50 eb ff ff 	lea    -0x14b0(%rbp),%rax
   1a3f0:	48 89 85 b0 ec ff ff 	mov    %rax,-0x1350(%rbp)
   1a3f7:	c7 85 54 ea ff ff 39 	movl   $0x26e7fa39,-0x15ac(%rbp)
   1a3fe:	fa e7 26 
   1a401:	c7 85 58 ea ff ff 0e 	movl   $0xae82280e,-0x15a8(%rbp)
   1a408:	28 82 ae 
   1a40b:	66 c7 85 58 e9 ff ff 	movw   $0x4924,-0x16a8(%rbp)
   1a412:	24 49 
   1a414:	c7 85 9c e9 ff ff 00 	movl   $0x0,-0x1664(%rbp)
   1a41b:	00 00 00 
   1a41e:	eb 1a                	jmp    1a43a <func_15+0x2e03>
   1a420:	8b 85 9c e9 ff ff    	mov    -0x1664(%rbp),%eax
   1a426:	48 98                	cltq   
   1a428:	c7 84 85 30 ef ff ff 	movl   $0x1,-0x10d0(%rbp,%rax,4)
   1a42f:	01 00 00 00 
   1a433:	83 85 9c e9 ff ff 01 	addl   $0x1,-0x1664(%rbp)
   1a43a:	83 bd 9c e9 ff ff 08 	cmpl   $0x8,-0x1664(%rbp)
   1a441:	7e dd                	jle    1a420 <func_15+0x2de9>
   1a443:	48 8b 85 30 e9 ff ff 	mov    -0x16d0(%rbp),%rax
   1a44a:	8b 00                	mov    (%rax),%eax
   1a44c:	89 85 50 ea ff ff    	mov    %eax,-0x15b0(%rbp)
   1a452:	8b 95 50 ea ff ff    	mov    -0x15b0(%rbp),%edx
   1a458:	48 8b 85 28 e9 ff ff 	mov    -0x16d8(%rbp),%rax
   1a45f:	8b 00                	mov    (%rax),%eax
   1a461:	31 c2                	xor    %eax,%edx
   1a463:	48 8b 85 28 e9 ff ff 	mov    -0x16d8(%rbp),%rax
   1a46a:	89 10                	mov    %edx,(%rax)
   1a46c:	8b 85 50 ea ff ff    	mov    -0x15b0(%rbp),%eax
   1a472:	48 63 d8             	movslq %eax,%rbx
   1a475:	48 8b 95 50 eb ff ff 	mov    -0x14b0(%rbp),%rdx
   1a47c:	48 8b 85 b0 ec ff ff 	mov    -0x1350(%rbp),%rax
   1a483:	48 89 10             	mov    %rdx,(%rax)
   1a486:	48 8b 85 b0 ec ff ff 	mov    -0x1350(%rbp),%rax
   1a48d:	48 8b 00             	mov    (%rax),%rax
   1a490:	48 85 c0             	test   %rax,%rax
   1a493:	0f 94 c0             	sete   %al
   1a496:	0f b6 d0             	movzbl %al,%edx
   1a499:	48 8b 8d 30 eb ff ff 	mov    -0x14d0(%rbp),%rcx
   1a4a0:	48 8b 85 a8 ec ff ff 	mov    -0x1358(%rbp),%rax
   1a4a7:	48 89 08             	mov    %rcx,(%rax)
   1a4aa:	48 8b 85 a8 ec ff ff 	mov    -0x1358(%rbp),%rax
   1a4b1:	48 8b 00             	mov    (%rax),%rax
   1a4b4:	48 8d 0d b5 c7 00 00 	lea    0xc7b5(%rip),%rcx        # 26c70 <g_3205+0x10>
   1a4bb:	48 39 c8             	cmp    %rcx,%rax
   1a4be:	0f 94 c0             	sete   %al
   1a4c1:	0f b6 c0             	movzbl %al,%eax
   1a4c4:	89 85 28 ea ff ff    	mov    %eax,-0x15d8(%rbp)
   1a4ca:	83 bd 28 ea ff ff 50 	cmpl   $0x50,-0x15d8(%rbp)
   1a4d1:	0f 9f c0             	setg   %al
   1a4d4:	0f b6 c0             	movzbl %al,%eax
   1a4d7:	89 d6                	mov    %edx,%esi
   1a4d9:	89 c7                	mov    %eax,%edi
   1a4db:	e8 b2 2f ff ff       	callq  d492 <safe_lshift_func_int16_t_s_s>
   1a4e0:	0f b7 c0             	movzwl %ax,%eax
   1a4e3:	be 06 00 00 00       	mov    $0x6,%esi
   1a4e8:	89 c7                	mov    %eax,%edi
   1a4ea:	e8 59 39 ff ff       	callq  de48 <safe_rshift_func_uint16_t_u_s>
   1a4ef:	0f b7 c0             	movzwl %ax,%eax
   1a4f2:	8b 95 24 ea ff ff    	mov    -0x15dc(%rbp),%edx
   1a4f8:	89 d6                	mov    %edx,%esi
   1a4fa:	89 c7                	mov    %eax,%edi
   1a4fc:	e8 bd 38 ff ff       	callq  ddbe <safe_lshift_func_uint16_t_u_s>
   1a501:	0f b6 d0             	movzbl %al,%edx
   1a504:	48 8b 85 30 ec ff ff 	mov    -0x13d0(%rbp),%rax
   1a50b:	0f b6 c0             	movzbl %al,%eax
   1a50e:	89 d6                	mov    %edx,%esi
   1a510:	89 c7                	mov    %eax,%edi
   1a512:	e8 7c 36 ff ff       	callq  db93 <safe_mul_func_uint8_t_u_u>
   1a517:	0f b6 d0             	movzbl %al,%edx
   1a51a:	48 8b 85 28 e9 ff ff 	mov    -0x16d8(%rbp),%rax
   1a521:	c7 00 f8 dd cf 1d    	movl   $0x1dcfddf8,(%rax)
   1a527:	48 8b 85 28 e9 ff ff 	mov    -0x16d8(%rbp),%rax
   1a52e:	8b 00                	mov    (%rax),%eax
   1a530:	23 85 50 ea ff ff    	and    -0x15b0(%rbp),%eax
   1a536:	09 d0                	or     %edx,%eax
   1a538:	be 02 00 00 00       	mov    $0x2,%esi
   1a53d:	89 c7                	mov    %eax,%edi
   1a53f:	e8 72 30 ff ff       	callq  d5b6 <safe_add_func_int32_t_s_s>
   1a544:	8b 85 50 ea ff ff    	mov    -0x15b0(%rbp),%eax
   1a54a:	39 85 24 e9 ff ff    	cmp    %eax,-0x16dc(%rbp)
   1a550:	0f 95 c0             	setne  %al
   1a553:	0f b6 c0             	movzbl %al,%eax
   1a556:	48 89 de             	mov    %rbx,%rsi
   1a559:	48 89 c7             	mov    %rax,%rdi
   1a55c:	e8 cd 3a ff ff       	callq  e02e <safe_add_func_uint64_t_u_u>
   1a561:	89 c2                	mov    %eax,%edx
   1a563:	48 8b 05 d6 05 01 00 	mov    0x105d6(%rip),%rax        # 2ab40 <g_2467>
   1a56a:	0f b6 00             	movzbl (%rax),%eax
   1a56d:	0f be c0             	movsbl %al,%eax
   1a570:	21 c2                	and    %eax,%edx
   1a572:	48 8b 05 ff 20 01 00 	mov    0x120ff(%rip),%rax        # 2c678 <g_2194>
   1a579:	89 10                	mov    %edx,(%rax)
   1a57b:	c7 85 6c e9 ff ff 04 	movl   $0x4,-0x1694(%rbp)
   1a582:	00 00 00 
   1a585:	eb 5f                	jmp    1a5e6 <func_15+0x2faf>
   1a587:	c7 85 5c ea ff ff 4a 	movl   $0xf3a5804a,-0x15a4(%rbp)
   1a58e:	80 a5 f3 
   1a591:	c7 85 a0 e9 ff ff 00 	movl   $0x0,-0x1660(%rbp)
   1a598:	00 00 00 
   1a59b:	eb 1a                	jmp    1a5b7 <func_15+0x2f80>
   1a59d:	8b 85 a0 e9 ff ff    	mov    -0x1660(%rbp),%eax
   1a5a3:	48 98                	cltq   
   1a5a5:	c7 84 85 e0 ee ff ff 	movl   $0x5,-0x1120(%rbp,%rax,4)
   1a5ac:	05 00 00 00 
   1a5b0:	83 85 a0 e9 ff ff 01 	addl   $0x1,-0x1660(%rbp)
   1a5b7:	83 bd a0 e9 ff ff 07 	cmpl   $0x7,-0x1660(%rbp)
   1a5be:	7e dd                	jle    1a59d <func_15+0x2f66>
   1a5c0:	83 ad 5c ea ff ff 01 	subl   $0x1,-0x15a4(%rbp)
   1a5c7:	0f b6 85 79 ed ff ff 	movzbl -0x1287(%rbp),%eax
   1a5ce:	83 c0 01             	add    $0x1,%eax
   1a5d1:	88 85 79 ed ff ff    	mov    %al,-0x1287(%rbp)
   1a5d7:	8b 85 6c e9 ff ff    	mov    -0x1694(%rbp),%eax
   1a5dd:	83 e8 01             	sub    $0x1,%eax
   1a5e0:	89 85 6c e9 ff ff    	mov    %eax,-0x1694(%rbp)
   1a5e6:	8b 85 6c e9 ff ff    	mov    -0x1694(%rbp),%eax
   1a5ec:	85 c0                	test   %eax,%eax
   1a5ee:	7f 97                	jg     1a587 <func_15+0x2f50>
   1a5f0:	e9 63 02 00 00       	jmpq   1a858 <func_15+0x3221>
   1a5f5:	66 c7 85 56 e9 ff ff 	movw   $0xc1f1,-0x16aa(%rbp)
   1a5fc:	f1 c1 
   1a5fe:	8b 85 24 e9 ff ff    	mov    -0x16dc(%rbp),%eax
   1a604:	0f bf d8             	movswl %ax,%ebx
   1a607:	48 8b 05 62 cc 00 00 	mov    0xcc62(%rip),%rax        # 27270 <g_3436>
   1a60e:	89 85 14 e9 ff ff    	mov    %eax,-0x16ec(%rbp)
   1a614:	8b 85 f4 e9 ff ff    	mov    -0x160c(%rbp),%eax
   1a61a:	4c 63 e0             	movslq %eax,%r12
   1a61d:	44 8b ad 24 e9 ff ff 	mov    -0x16dc(%rbp),%r13d
   1a624:	8b 05 b2 ca 00 00    	mov    0xcab2(%rip),%eax        # 270dc <g_343+0x1c>
   1a62a:	44 0f b7 f0          	movzwl %ax,%r14d
   1a62e:	8b 85 24 e9 ff ff    	mov    -0x16dc(%rbp),%eax
   1a634:	44 0f b7 f8          	movzwl %ax,%r15d
   1a638:	be 00 00 00 00       	mov    $0x0,%esi
   1a63d:	bf 44 00 00 00       	mov    $0x44,%edi
   1a642:	e8 05 36 ff ff       	callq  dc4c <safe_lshift_func_uint8_t_u_u>
   1a647:	0f b6 c0             	movzbl %al,%eax
   1a64a:	39 85 24 e9 ff ff    	cmp    %eax,-0x16dc(%rbp)
   1a650:	0f 85 f3 00 00 00    	jne    1a749 <func_15+0x3112>
   1a656:	8b 85 24 e9 ff ff    	mov    -0x16dc(%rbp),%eax
   1a65c:	48 89 85 08 e9 ff ff 	mov    %rax,-0x16f8(%rbp)
   1a663:	8b 85 24 e9 ff ff    	mov    -0x16dc(%rbp),%eax
   1a669:	0f be c0             	movsbl %al,%eax
   1a66c:	89 85 10 e9 ff ff    	mov    %eax,-0x16f0(%rbp)
   1a672:	48 8b 85 78 ec ff ff 	mov    -0x1388(%rbp),%rax
   1a679:	0f b7 d0             	movzwl %ax,%edx
   1a67c:	0f b6 85 4a e9 ff ff 	movzbl -0x16b6(%rbp),%eax
   1a683:	89 d6                	mov    %edx,%esi
   1a685:	89 c7                	mov    %eax,%edi
   1a687:	e8 b1 36 ff ff       	callq  dd3d <safe_mul_func_uint16_t_u_u>
   1a68c:	0f b7 c0             	movzwl %ax,%eax
   1a68f:	89 85 4c ea ff ff    	mov    %eax,-0x15b4(%rbp)
   1a695:	8b 85 4c ea ff ff    	mov    -0x15b4(%rbp),%eax
   1a69b:	23 85 24 e9 ff ff    	and    -0x16dc(%rbp),%eax
   1a6a1:	83 f8 ff             	cmp    $0xffffffff,%eax
   1a6a4:	0f 94 c0             	sete   %al
   1a6a7:	0f b6 c0             	movzbl %al,%eax
   1a6aa:	8b b5 10 e9 ff ff    	mov    -0x16f0(%rbp),%esi
   1a6b0:	89 c7                	mov    %eax,%edi
   1a6b2:	e8 5b 2b ff ff       	callq  d212 <safe_mul_func_int8_t_s_s>
   1a6b7:	be fe 00 00 00       	mov    $0xfe,%esi
   1a6bc:	bf 01 00 00 00       	mov    $0x1,%edi
   1a6c1:	e8 94 34 ff ff       	callq  db5a <safe_add_func_uint8_t_u_u>
   1a6c6:	89 c2                	mov    %eax,%edx
   1a6c8:	48 8b 05 89 03 01 00 	mov    0x10389(%rip),%rax        # 2aa58 <g_396>
   1a6cf:	0f b6 d2             	movzbl %dl,%edx
   1a6d2:	48 89 10             	mov    %rdx,(%rax)
   1a6d5:	48 8b 05 64 04 01 00 	mov    0x10464(%rip),%rax        # 2ab40 <g_2467>
   1a6dc:	c6 00 01             	movb   $0x1,(%rax)
   1a6df:	8b 85 24 e9 ff ff    	mov    -0x16dc(%rbp),%eax
   1a6e5:	8b 95 6c e9 ff ff    	mov    -0x1694(%rbp),%edx
   1a6eb:	21 d0                	and    %edx,%eax
   1a6ed:	89 85 6c e9 ff ff    	mov    %eax,-0x1694(%rbp)
   1a6f3:	8b 85 6c e9 ff ff    	mov    -0x1694(%rbp),%eax
   1a6f9:	0f be d0             	movsbl %al,%edx
   1a6fc:	8b 85 f4 e9 ff ff    	mov    -0x160c(%rbp),%eax
   1a702:	0f be c0             	movsbl %al,%eax
   1a705:	89 d6                	mov    %edx,%esi
   1a707:	89 c7                	mov    %eax,%edi
   1a709:	e8 e4 2a ff ff       	callq  d1f2 <safe_sub_func_int8_t_s_s>
   1a70e:	be 73 a8 00 00       	mov    $0xa873,%esi
   1a713:	bf 00 00 00 00       	mov    $0x0,%edi
   1a718:	e8 20 36 ff ff       	callq  dd3d <safe_mul_func_uint16_t_u_u>
   1a71d:	66 3d cf f6          	cmp    $0xf6cf,%ax
   1a721:	75 09                	jne    1a72c <func_15+0x30f5>
   1a723:	80 bd 49 e9 ff ff 00 	cmpb   $0x0,-0x16b7(%rbp)
   1a72a:	74 07                	je     1a733 <func_15+0x30fc>
   1a72c:	b8 01 00 00 00       	mov    $0x1,%eax
   1a731:	eb 05                	jmp    1a738 <func_15+0x3101>
   1a733:	b8 00 00 00 00       	mov    $0x0,%eax
   1a738:	48 98                	cltq   
   1a73a:	48 8b b5 08 e9 ff ff 	mov    -0x16f8(%rbp),%rsi
   1a741:	48 89 c7             	mov    %rax,%rdi
   1a744:	e8 66 39 ff ff       	callq  e0af <safe_div_func_uint64_t_u_u>
   1a749:	83 bd 24 e9 ff ff 00 	cmpl   $0x0,-0x16dc(%rbp)
   1a750:	75 07                	jne    1a759 <func_15+0x3122>
   1a752:	b8 01 00 00 00       	mov    $0x1,%eax
   1a757:	eb 05                	jmp    1a75e <func_15+0x3127>
   1a759:	b8 00 00 00 00       	mov    $0x0,%eax
   1a75e:	0f b7 c0             	movzwl %ax,%eax
   1a761:	44 89 fe             	mov    %r15d,%esi
   1a764:	89 c7                	mov    %eax,%edi
   1a766:	e8 d2 35 ff ff       	callq  dd3d <safe_mul_func_uint16_t_u_u>
   1a76b:	0f b7 c0             	movzwl %ax,%eax
   1a76e:	44 89 f6             	mov    %r14d,%esi
   1a771:	89 c7                	mov    %eax,%edi
   1a773:	e8 87 35 ff ff       	callq  dcff <safe_add_func_uint16_t_u_u>
   1a778:	0f b7 c0             	movzwl %ax,%eax
   1a77b:	44 89 ee             	mov    %r13d,%esi
   1a77e:	89 c7                	mov    %eax,%edi
   1a780:	e8 7a 2f ff ff       	callq  d6ff <safe_div_func_int32_t_s_s>
   1a785:	48 0f bf 85 56 e9 ff 	movswq -0x16aa(%rbp),%rax
   1a78c:	ff 
   1a78d:	48 89 85 c0 ee ff ff 	mov    %rax,-0x1140(%rbp)
   1a794:	48 8b 95 c0 ee ff ff 	mov    -0x1140(%rbp),%rdx
   1a79b:	8b 85 24 e9 ff ff    	mov    -0x16dc(%rbp),%eax
   1a7a1:	48 39 c2             	cmp    %rax,%rdx
   1a7a4:	0f 9e c0             	setle  %al
   1a7a7:	0f b6 d0             	movzbl %al,%edx
   1a7aa:	0f b6 85 4a e9 ff ff 	movzbl -0x16b6(%rbp),%eax
   1a7b1:	31 d0                	xor    %edx,%eax
   1a7b3:	48 98                	cltq   
   1a7b5:	4c 89 e6             	mov    %r12,%rsi
   1a7b8:	48 89 c7             	mov    %rax,%rdi
   1a7bb:	e8 81 30 ff ff       	callq  d841 <safe_add_func_int64_t_s_s>
   1a7c0:	0f be c0             	movsbl %al,%eax
   1a7c3:	be 07 00 00 00       	mov    $0x7,%esi
   1a7c8:	89 c7                	mov    %eax,%edi
   1a7ca:	e8 66 2b ff ff       	callq  d335 <safe_rshift_func_int8_t_s_s>
   1a7cf:	48 0f be c0          	movsbq %al,%rax
   1a7d3:	be 01 00 00 00       	mov    $0x1,%esi
   1a7d8:	48 89 c7             	mov    %rax,%rdi
   1a7db:	e8 d4 31 ff ff       	callq  d9b4 <safe_mod_func_int64_t_s_s>
   1a7e0:	48 8b 85 50 eb ff ff 	mov    -0x14b0(%rbp),%rax
   1a7e7:	48 8b 00             	mov    (%rax),%rax
   1a7ea:	48 8b 00             	mov    (%rax),%rax
   1a7ed:	48 8b 00             	mov    (%rax),%rax
   1a7f0:	8b 10                	mov    (%rax),%edx
   1a7f2:	83 c2 01             	add    $0x1,%edx
   1a7f5:	89 10                	mov    %edx,(%rax)
   1a7f7:	8b 85 24 e9 ff ff    	mov    -0x16dc(%rbp),%eax
   1a7fd:	0f b6 c0             	movzbl %al,%eax
   1a800:	89 c6                	mov    %eax,%esi
   1a802:	bf 01 00 00 00       	mov    $0x1,%edi
   1a807:	e8 6c 33 ff ff       	callq  db78 <safe_sub_func_uint8_t_u_u>
   1a80c:	0f b6 c0             	movzbl %al,%eax
   1a80f:	8b b5 14 e9 ff ff    	mov    -0x16ec(%rbp),%esi
   1a815:	89 c7                	mov    %eax,%edi
   1a817:	e8 0e 2d ff ff       	callq  d52a <safe_rshift_func_int16_t_s_s>
   1a81c:	98                   	cwtl   
   1a81d:	89 de                	mov    %ebx,%esi
   1a81f:	89 c7                	mov    %eax,%edi
   1a821:	e8 cf 2b ff ff       	callq  d3f5 <safe_mul_func_int16_t_s_s>
   1a826:	48 0f bf c0          	movswq %ax,%rax
   1a82a:	48 0d 5c bf 00 00    	or     $0xbf5c,%rax
   1a830:	48 89 c2             	mov    %rax,%rdx
   1a833:	8b 85 48 ea ff ff    	mov    -0x15b8(%rbp),%eax
   1a839:	48 98                	cltq   
   1a83b:	48 39 c2             	cmp    %rax,%rdx
   1a83e:	0f 94 c0             	sete   %al
   1a841:	0f b6 c8             	movzbl %al,%ecx
   1a844:	48 8b 05 2d 1e 01 00 	mov    0x11e2d(%rip),%rax        # 2c678 <g_2194>
   1a84b:	8b 10                	mov    (%rax),%edx
   1a84d:	48 8b 05 24 1e 01 00 	mov    0x11e24(%rip),%rax        # 2c678 <g_2194>
   1a854:	31 ca                	xor    %ecx,%edx
   1a856:	89 10                	mov    %edx,(%rax)
   1a858:	0f b6 45 c2          	movzbl -0x3e(%rbp),%eax
   1a85c:	83 e8 01             	sub    $0x1,%eax
   1a85f:	88 45 c2             	mov    %al,-0x3e(%rbp)
   1a862:	48 8b 85 30 e9 ff ff 	mov    -0x16d0(%rbp),%rax
   1a869:	8b 00                	mov    (%rax),%eax
   1a86b:	89 c1                	mov    %eax,%ecx
   1a86d:	0f b6 85 7b ed ff ff 	movzbl -0x1285(%rbp),%eax
   1a874:	3c 08                	cmp    $0x8,%al
   1a876:	48 8b 85 08 eb ff ff 	mov    -0x14f8(%rbp),%rax
   1a87d:	8b 95 24 e9 ff ff    	mov    -0x16dc(%rbp),%edx
   1a883:	48 89 10             	mov    %rdx,(%rax)
   1a886:	48 8b 10             	mov    (%rax),%rdx
   1a889:	8b 85 24 e9 ff ff    	mov    -0x16dc(%rbp),%eax
   1a88f:	48 39 c2             	cmp    %rax,%rdx
   1a892:	89 ce                	mov    %ecx,%esi
   1a894:	bf 01 00 00 00       	mov    $0x1,%edi
   1a899:	e8 1a 36 ff ff       	callq  deb8 <safe_add_func_uint32_t_u_u>
   1a89e:	0f b6 c0             	movzbl %al,%eax
   1a8a1:	be 07 00 00 00       	mov    $0x7,%esi
   1a8a6:	89 c7                	mov    %eax,%edi
   1a8a8:	e8 11 34 ff ff       	callq  dcbe <safe_rshift_func_uint8_t_u_u>
   1a8ad:	0f b6 d0             	movzbl %al,%edx
   1a8b0:	8b 85 f0 f4 ff ff    	mov    -0xb10(%rbp),%eax
   1a8b6:	21 d0                	and    %edx,%eax
   1a8b8:	48 98                	cltq   
   1a8ba:	48 c7 c6 fb ff ff ff 	mov    $0xfffffffffffffffb,%rsi
   1a8c1:	48 89 c7             	mov    %rax,%rdi
   1a8c4:	e8 82 37 ff ff       	callq  e04b <safe_sub_func_uint64_t_u_u>
   1a8c9:	89 c2                	mov    %eax,%edx
   1a8cb:	8b 85 c4 e9 ff ff    	mov    -0x163c(%rbp),%eax
   1a8d1:	31 d0                	xor    %edx,%eax
   1a8d3:	89 85 6c e9 ff ff    	mov    %eax,-0x1694(%rbp)
   1a8d9:	48 8b 85 a0 eb ff ff 	mov    -0x1460(%rbp),%rax
   1a8e0:	be da 95 a7 ab       	mov    $0xaba795da,%esi
   1a8e5:	89 c7                	mov    %eax,%edi
   1a8e7:	e8 19 2d ff ff       	callq  d605 <safe_sub_func_int32_t_s_s>
   1a8ec:	89 c2                	mov    %eax,%edx
   1a8ee:	48 8b 05 83 1d 01 00 	mov    0x11d83(%rip),%rax        # 2c678 <g_2194>
   1a8f5:	8b 08                	mov    (%rax),%ecx
   1a8f7:	48 8b 05 7a 1d 01 00 	mov    0x11d7a(%rip),%rax        # 2c678 <g_2194>
   1a8fe:	09 ca                	or     %ecx,%edx
   1a900:	89 10                	mov    %edx,(%rax)
   1a902:	e9 c8 09 00 00       	jmpq   1b2cf <func_15+0x3c98>
   1a907:	c7 85 a4 e9 ff ff fc 	movl   $0xfffffffc,-0x165c(%rbp)
   1a90e:	ff ff ff 
   1a911:	c7 85 c8 e9 ff ff 67 	movl   $0xb7a50b67,-0x1638(%rbp)
   1a918:	0b a5 b7 
   1a91b:	48 c7 85 b0 eb ff ff 	movq   $0x0,-0x1450(%rbp)
   1a922:	00 00 00 00 
   1a926:	48 c7 85 58 eb ff ff 	movq   $0x0,-0x14a8(%rbp)
   1a92d:	00 00 00 00 
   1a931:	48 c7 85 b8 eb ff ff 	movq   $0x0,-0x1448(%rbp)
   1a938:	00 00 00 00 
   1a93c:	48 8d 85 62 ed ff ff 	lea    -0x129e(%rbp),%rax
   1a943:	48 83 c0 02          	add    $0x2,%rax
   1a947:	48 89 85 c0 eb ff ff 	mov    %rax,-0x1440(%rbp)
   1a94e:	48 8d 05 a7 c7 00 00 	lea    0xc7a7(%rip),%rax        # 270fc <g_695>
   1a955:	48 89 85 c8 eb ff ff 	mov    %rax,-0x1438(%rbp)
   1a95c:	48 c7 85 d0 eb ff ff 	movq   $0x0,-0x1430(%rbp)
   1a963:	00 00 00 00 
   1a967:	c7 85 a8 e9 ff ff 00 	movl   $0x0,-0x1658(%rbp)
   1a96e:	00 00 00 
   1a971:	eb 1a                	jmp    1a98d <func_15+0x3356>
   1a973:	8b 85 a8 e9 ff ff    	mov    -0x1658(%rbp),%eax
   1a979:	48 98                	cltq   
   1a97b:	c7 84 85 f0 f5 ff ff 	movl   $0x29b373e1,-0xa10(%rbp,%rax,4)
   1a982:	e1 73 b3 29 
   1a986:	83 85 a8 e9 ff ff 01 	addl   $0x1,-0x1658(%rbp)
   1a98d:	83 bd a8 e9 ff ff 06 	cmpl   $0x6,-0x1658(%rbp)
   1a994:	7e dd                	jle    1a973 <func_15+0x333c>
   1a996:	c7 85 a8 e9 ff ff 00 	movl   $0x0,-0x1658(%rbp)
   1a99d:	00 00 00 
   1a9a0:	eb 1e                	jmp    1a9c0 <func_15+0x3389>
   1a9a2:	8b 85 a8 e9 ff ff    	mov    -0x1658(%rbp),%eax
   1a9a8:	48 98                	cltq   
   1a9aa:	48 8d 15 45 c7 00 00 	lea    0xc745(%rip),%rdx        # 270f6 <g_620>
   1a9b1:	48 89 94 c5 40 f4 ff 	mov    %rdx,-0xbc0(%rbp,%rax,8)
   1a9b8:	ff 
   1a9b9:	83 85 a8 e9 ff ff 01 	addl   $0x1,-0x1658(%rbp)
   1a9c0:	83 bd a8 e9 ff ff 02 	cmpl   $0x2,-0x1658(%rbp)
   1a9c7:	7e d9                	jle    1a9a2 <func_15+0x336b>
   1a9c9:	48 8b 85 18 e9 ff ff 	mov    -0x16e8(%rbp),%rax
   1a9d0:	8b 00                	mov    (%rax),%eax
   1a9d2:	35 a6 b5 4f 46       	xor    $0x464fb5a6,%eax
   1a9d7:	89 c2                	mov    %eax,%edx
   1a9d9:	48 8b 85 18 e9 ff ff 	mov    -0x16e8(%rbp),%rax
   1a9e0:	89 10                	mov    %edx,(%rax)
   1a9e2:	83 ad c8 e9 ff ff 01 	subl   $0x1,-0x1638(%rbp)
   1a9e9:	48 8b 85 28 e9 ff ff 	mov    -0x16d8(%rbp),%rax
   1a9f0:	8b 00                	mov    (%rax),%eax
   1a9f2:	85 c0                	test   %eax,%eax
   1a9f4:	0f 84 21 04 00 00    	je     1ae1b <func_15+0x37e4>
   1a9fa:	c7 05 e0 c6 00 00 e5 	movl   $0xffffffe5,0xc6e0(%rip)        # 270e4 <g_350>
   1aa01:	ff ff ff 
   1aa04:	e9 f7 03 00 00       	jmpq   1ae00 <func_15+0x37c9>
   1aa09:	c6 85 47 e9 ff ff ff 	movb   $0xff,-0x16b9(%rbp)
   1aa10:	66 c7 85 4e e9 ff ff 	movw   $0x8a56,-0x16b2(%rbp)
   1aa17:	56 8a 
   1aa19:	48 8d 05 8c c6 00 00 	lea    0xc68c(%rip),%rax        # 270ac <g_178>
   1aa20:	48 89 85 f0 eb ff ff 	mov    %rax,-0x1410(%rbp)
   1aa27:	48 8d 85 f0 ea ff ff 	lea    -0x1510(%rbp),%rax
   1aa2e:	48 89 85 90 f8 ff ff 	mov    %rax,-0x770(%rbp)
   1aa35:	48 8d 85 f0 ea ff ff 	lea    -0x1510(%rbp),%rax
   1aa3c:	48 89 85 98 f8 ff ff 	mov    %rax,-0x768(%rbp)
   1aa43:	48 8d 85 f0 ea ff ff 	lea    -0x1510(%rbp),%rax
   1aa4a:	48 89 85 a0 f8 ff ff 	mov    %rax,-0x760(%rbp)
   1aa51:	48 8d 85 f0 ea ff ff 	lea    -0x1510(%rbp),%rax
   1aa58:	48 89 85 a8 f8 ff ff 	mov    %rax,-0x758(%rbp)
   1aa5f:	48 8d 85 f0 ea ff ff 	lea    -0x1510(%rbp),%rax
   1aa66:	48 89 85 b0 f8 ff ff 	mov    %rax,-0x750(%rbp)
   1aa6d:	48 8d 85 f0 ea ff ff 	lea    -0x1510(%rbp),%rax
   1aa74:	48 89 85 b8 f8 ff ff 	mov    %rax,-0x748(%rbp)
   1aa7b:	48 8d 85 f0 ea ff ff 	lea    -0x1510(%rbp),%rax
   1aa82:	48 89 85 c0 f8 ff ff 	mov    %rax,-0x740(%rbp)
   1aa89:	48 8d 85 90 f8 ff ff 	lea    -0x770(%rbp),%rax
   1aa90:	48 83 c0 28          	add    $0x28,%rax
   1aa94:	48 89 85 f8 eb ff ff 	mov    %rax,-0x1408(%rbp)
   1aa9b:	48 8d 05 a2 c5 00 00 	lea    0xc5a2(%rip),%rax        # 27044 <g_25+0x4>
   1aaa2:	48 89 85 00 ec ff ff 	mov    %rax,-0x1400(%rbp)
   1aaa9:	48 8b 85 18 e9 ff ff 	mov    -0x16e8(%rbp),%rax
   1aab0:	c7 00 ff ff ff ff    	movl   $0xffffffff,(%rax)
   1aab6:	c7 05 4c c6 00 00 00 	movl   $0x0,0xc64c(%rip)        # 2710c <g_818>
   1aabd:	00 00 00 
   1aac0:	e9 12 03 00 00       	jmpq   1add7 <func_15+0x37a0>
   1aac5:	48 8d 85 58 eb ff ff 	lea    -0x14a8(%rbp),%rax
   1aacc:	48 89 85 08 ec ff ff 	mov    %rax,-0x13f8(%rbp)
   1aad3:	c7 85 ac e9 ff ff 00 	movl   $0x0,-0x1654(%rbp)
   1aada:	00 00 00 
   1aadd:	eb 42                	jmp    1ab21 <func_15+0x34ea>
   1aadf:	c7 85 78 e9 ff ff 00 	movl   $0x0,-0x1688(%rbp)
   1aae6:	00 00 00 
   1aae9:	eb 26                	jmp    1ab11 <func_15+0x34da>
   1aaeb:	8b 85 78 e9 ff ff    	mov    -0x1688(%rbp),%eax
   1aaf1:	48 63 d0             	movslq %eax,%rdx
   1aaf4:	8b 85 ac e9 ff ff    	mov    -0x1654(%rbp),%eax
   1aafa:	48 98                	cltq   
   1aafc:	48 01 d0             	add    %rdx,%rax
   1aaff:	c7 84 85 70 f0 ff ff 	movl   $0x8cdcc812,-0xf90(%rbp,%rax,4)
   1ab06:	12 c8 dc 8c 
   1ab0a:	83 85 78 e9 ff ff 01 	addl   $0x1,-0x1688(%rbp)
   1ab11:	83 bd 78 e9 ff ff 00 	cmpl   $0x0,-0x1688(%rbp)
   1ab18:	7e d1                	jle    1aaeb <func_15+0x34b4>
   1ab1a:	83 85 ac e9 ff ff 01 	addl   $0x1,-0x1654(%rbp)
   1ab21:	83 bd ac e9 ff ff 02 	cmpl   $0x2,-0x1654(%rbp)
   1ab28:	7e b5                	jle    1aadf <func_15+0x34a8>
   1ab2a:	8b 05 dc c5 00 00    	mov    0xc5dc(%rip),%eax        # 2710c <g_818>
   1ab30:	89 c0                	mov    %eax,%eax
   1ab32:	0f b7 84 45 6a ed ff 	movzwl -0x1296(%rbp,%rax,2),%eax
   1ab39:	ff 
   1ab3a:	0f bf d8             	movswl %ax,%ebx
   1ab3d:	8b 05 c9 c5 00 00    	mov    0xc5c9(%rip),%eax        # 2710c <g_818>
   1ab43:	89 c0                	mov    %eax,%eax
   1ab45:	0f b7 84 45 6a ed ff 	movzwl -0x1296(%rbp,%rax,2),%eax
   1ab4c:	ff 
   1ab4d:	48 0f bf c0          	movswq %ax,%rax
   1ab51:	be 01 00 00 00       	mov    $0x1,%esi
   1ab56:	48 89 c7             	mov    %rax,%rdi
   1ab59:	e8 4a 2d ff ff       	callq  d8a8 <safe_sub_func_int64_t_s_s>
   1ab5e:	49 89 c5             	mov    %rax,%r13
   1ab61:	8b 05 75 c5 00 00    	mov    0xc575(%rip),%eax        # 270dc <g_343+0x1c>
   1ab67:	44 0f be e0          	movsbl %al,%r12d
   1ab6b:	48 8b 85 e8 ea ff ff 	mov    -0x1518(%rbp),%rax
   1ab72:	48 8b 00             	mov    (%rax),%rax
   1ab75:	48 8b 00             	mov    (%rax),%rax
   1ab78:	8b 10                	mov    (%rax),%edx
   1ab7a:	83 ea 01             	sub    $0x1,%edx
   1ab7d:	89 10                	mov    %edx,(%rax)
   1ab7f:	48 8b 05 ba ff 00 00 	mov    0xffba(%rip),%rax        # 2ab40 <g_2467>
   1ab86:	c6 00 fb             	movb   $0xfb,(%rax)
   1ab89:	0f b6 00             	movzbl (%rax),%eax
   1ab8c:	0f be c0             	movsbl %al,%eax
   1ab8f:	be 03 00 00 00       	mov    $0x3,%esi
   1ab94:	89 c7                	mov    %eax,%edi
   1ab96:	e8 d1 27 ff ff       	callq  d36c <safe_rshift_func_int8_t_s_u>
   1ab9b:	89 c2                	mov    %eax,%edx
   1ab9d:	48 8b 85 f0 ea ff ff 	mov    -0x1510(%rbp),%rax
   1aba4:	48 0f be d2          	movsbq %dl,%rdx
   1aba8:	48 89 10             	mov    %rdx,(%rax)
   1abab:	48 8b 10             	mov    (%rax),%rdx
   1abae:	0f be 8d 47 e9 ff ff 	movsbl -0x16b9(%rbp),%ecx
   1abb5:	48 83 bd b0 eb ff ff 	cmpq   $0x0,-0x1450(%rbp)
   1abbc:	00 
   1abbd:	0f 94 c0             	sete   %al
   1abc0:	0f b6 f0             	movzbl %al,%esi
   1abc3:	48 8b 05 4e ff 00 00 	mov    0xff4e(%rip),%rax        # 2ab18 <g_2240>
   1abca:	48 8b 00             	mov    (%rax),%rax
   1abcd:	8b 00                	mov    (%rax),%eax
   1abcf:	39 c6                	cmp    %eax,%esi
   1abd1:	0f 9e c0             	setle  %al
   1abd4:	0f b6 c0             	movzbl %al,%eax
   1abd7:	31 c1                	xor    %eax,%ecx
   1abd9:	8b 05 2d c5 00 00    	mov    0xc52d(%rip),%eax        # 2710c <g_818>
   1abdf:	89 c0                	mov    %eax,%eax
   1abe1:	0f b7 84 45 6a ed ff 	movzwl -0x1296(%rbp,%rax,2),%eax
   1abe8:	ff 
   1abe9:	98                   	cwtl   
   1abea:	31 c8                	xor    %ecx,%eax
   1abec:	3d ea af 2e 6e       	cmp    $0x6e2eafea,%eax
   1abf1:	0f 9f c0             	setg   %al
   1abf4:	0f b6 c0             	movzbl %al,%eax
   1abf7:	66 89 85 4e e9 ff ff 	mov    %ax,-0x16b2(%rbp)
   1abfe:	0f b7 85 4e e9 ff ff 	movzwl -0x16b2(%rbp),%eax
   1ac05:	48 39 c2             	cmp    %rax,%rdx
   1ac08:	44 89 e6             	mov    %r12d,%esi
   1ac0b:	bf 01 00 00 00       	mov    $0x1,%edi
   1ac10:	e8 dd 25 ff ff       	callq  d1f2 <safe_sub_func_int8_t_s_s>
   1ac15:	66 0f be d0          	movsbw %al,%dx
   1ac19:	8b 05 ed c4 00 00    	mov    0xc4ed(%rip),%eax        # 2710c <g_818>
   1ac1f:	89 c0                	mov    %eax,%eax
   1ac21:	0f b7 84 45 6a ed ff 	movzwl -0x1296(%rbp,%rax,2),%eax
   1ac28:	ff 
   1ac29:	66 39 c2             	cmp    %ax,%dx
   1ac2c:	0f 9f c0             	setg   %al
   1ac2f:	0f b6 c0             	movzbl %al,%eax
   1ac32:	49 39 c5             	cmp    %rax,%r13
   1ac35:	0f 9d c0             	setge  %al
   1ac38:	0f b6 c0             	movzbl %al,%eax
   1ac3b:	f7 d0                	not    %eax
   1ac3d:	89 c2                	mov    %eax,%edx
   1ac3f:	48 8b 85 78 eb ff ff 	mov    -0x1488(%rbp),%rax
   1ac46:	0f b6 00             	movzbl (%rax),%eax
   1ac49:	31 c2                	xor    %eax,%edx
   1ac4b:	48 8b 85 78 eb ff ff 	mov    -0x1488(%rbp),%rax
   1ac52:	88 10                	mov    %dl,(%rax)
   1ac54:	48 8b 85 78 eb ff ff 	mov    -0x1488(%rbp),%rax
   1ac5b:	0f b6 00             	movzbl (%rax),%eax
   1ac5e:	0f be c0             	movsbl %al,%eax
   1ac61:	89 de                	mov    %ebx,%esi
   1ac63:	89 c7                	mov    %eax,%edi
   1ac65:	e8 cb 26 ff ff       	callq  d335 <safe_rshift_func_int8_t_s_s>
   1ac6a:	8b 95 70 f0 ff ff    	mov    -0xf90(%rbp),%edx
   1ac70:	0f be c0             	movsbl %al,%eax
   1ac73:	31 d0                	xor    %edx,%eax
   1ac75:	89 85 70 f0 ff ff    	mov    %eax,-0xf90(%rbp)
   1ac7b:	48 8b 15 c6 fe 00 00 	mov    0xfec6(%rip),%rdx        # 2ab48 <g_2471>
   1ac82:	48 8b 05 97 03 01 00 	mov    0x10397(%rip),%rax        # 2b020 <g_3484>
   1ac89:	48 8b 12             	mov    (%rdx),%rdx
   1ac8c:	48 89 10             	mov    %rdx,(%rax)
   1ac8f:	8b 85 00 f6 ff ff    	mov    -0xa00(%rbp),%eax
   1ac95:	0f bf d8             	movswl %ax,%ebx
   1ac98:	48 8b 85 f0 eb ff ff 	mov    -0x1410(%rbp),%rax
   1ac9f:	8b 00                	mov    (%rax),%eax
   1aca1:	44 0f b7 e0          	movzwl %ax,%r12d
   1aca5:	48 8b 85 e8 ea ff ff 	mov    -0x1518(%rbp),%rax
   1acac:	48 8b 00             	mov    (%rax),%rax
   1acaf:	48 8b 00             	mov    (%rax),%rax
   1acb2:	8b 10                	mov    (%rax),%edx
   1acb4:	83 c2 01             	add    $0x1,%edx
   1acb7:	89 10                	mov    %edx,(%rax)
   1acb9:	8b 00                	mov    (%rax),%eax
   1acbb:	41 89 c5             	mov    %eax,%r13d
   1acbe:	8b 85 24 e9 ff ff    	mov    -0x16dc(%rbp),%eax
   1acc4:	0f be d0             	movsbl %al,%edx
   1acc7:	83 bd 24 e9 ff ff 00 	cmpl   $0x0,-0x16dc(%rbp)
   1acce:	75 27                	jne    1acf7 <func_15+0x36c0>
   1acd0:	48 8b 8d 58 eb ff ff 	mov    -0x14a8(%rbp),%rcx
   1acd7:	48 8b 85 08 ec ff ff 	mov    -0x13f8(%rbp),%rax
   1acde:	48 89 08             	mov    %rcx,(%rax)
   1ace1:	48 8b 85 08 ec ff ff 	mov    -0x13f8(%rbp),%rax
   1ace8:	48 8b 08             	mov    (%rax),%rcx
   1aceb:	48 8b 05 f6 04 01 00 	mov    0x104f6(%rip),%rax        # 2b1e8 <g_3507+0x1a8>
   1acf2:	48 39 c1             	cmp    %rax,%rcx
   1acf5:	75 07                	jne    1acfe <func_15+0x36c7>
   1acf7:	b9 01 00 00 00       	mov    $0x1,%ecx
   1acfc:	eb 05                	jmp    1ad03 <func_15+0x36cc>
   1acfe:	b9 00 00 00 00       	mov    $0x0,%ecx
   1ad03:	48 8b 85 f0 eb ff ff 	mov    -0x1410(%rbp),%rax
   1ad0a:	8b 00                	mov    (%rax),%eax
   1ad0c:	39 c1                	cmp    %eax,%ecx
   1ad0e:	0f 9c c0             	setl   %al
   1ad11:	0f b6 c0             	movzbl %al,%eax
   1ad14:	89 d6                	mov    %edx,%esi
   1ad16:	89 c7                	mov    %eax,%edi
   1ad18:	e8 14 25 ff ff       	callq  d231 <safe_mod_func_int8_t_s_s>
   1ad1d:	66 98                	cbtw   
   1ad1f:	44 09 e8             	or     %r13d,%eax
   1ad22:	0f b7 c0             	movzwl %ax,%eax
   1ad25:	44 89 e6             	mov    %r12d,%esi
   1ad28:	89 c7                	mov    %eax,%edi
   1ad2a:	e8 0e 30 ff ff       	callq  dd3d <safe_mul_func_uint16_t_u_u>
   1ad2f:	0f b7 c0             	movzwl %ax,%eax
   1ad32:	be ff ff ff ff       	mov    $0xffffffff,%esi
   1ad37:	89 c7                	mov    %eax,%edi
   1ad39:	e8 78 28 ff ff       	callq  d5b6 <safe_add_func_int32_t_s_s>
   1ad3e:	98                   	cwtl   
   1ad3f:	8b 95 24 e9 ff ff    	mov    -0x16dc(%rbp),%edx
   1ad45:	89 d6                	mov    %edx,%esi
   1ad47:	89 c7                	mov    %eax,%edi
   1ad49:	e8 15 28 ff ff       	callq  d563 <safe_rshift_func_int16_t_s_u>
   1ad4e:	98                   	cwtl   
   1ad4f:	89 de                	mov    %ebx,%esi
   1ad51:	89 c7                	mov    %eax,%edi
   1ad53:	e8 9d 26 ff ff       	callq  d3f5 <safe_mul_func_int16_t_s_s>
   1ad58:	98                   	cwtl   
   1ad59:	be e7 b3 f2 33       	mov    $0x33f2b3e7,%esi
   1ad5e:	89 c7                	mov    %eax,%edi
   1ad60:	e8 53 31 ff ff       	callq  deb8 <safe_add_func_uint32_t_u_u>
   1ad65:	0f b6 c0             	movzbl %al,%eax
   1ad68:	8b 95 24 e9 ff ff    	mov    -0x16dc(%rbp),%edx
   1ad6e:	89 d6                	mov    %edx,%esi
   1ad70:	89 c7                	mov    %eax,%edi
   1ad72:	e8 47 2f ff ff       	callq  dcbe <safe_rshift_func_uint8_t_u_u>
   1ad77:	83 f0 05             	xor    $0x5,%eax
   1ad7a:	0f b6 c8             	movzbl %al,%ecx
   1ad7d:	48 8b 95 00 ec ff ff 	mov    -0x1400(%rbp),%rdx
   1ad84:	48 8b 85 f0 eb ff ff 	mov    -0x1410(%rbp),%rax
   1ad8b:	89 ce                	mov    %ecx,%esi
   1ad8d:	48 89 c7             	mov    %rax,%rdi
   1ad90:	e8 02 10 00 00       	callq  1bd97 <func_26>
   1ad95:	48 89 c2             	mov    %rax,%rdx
   1ad98:	48 8b 05 e1 bf 00 00 	mov    0xbfe1(%rip),%rax        # 26d80 <l_3485.5092>
   1ad9f:	48 89 d6             	mov    %rdx,%rsi
   1ada2:	48 89 c7             	mov    %rax,%rdi
   1ada5:	e8 ec 2b 00 00       	callq  1d996 <func_45>
   1adaa:	48 89 85 18 e9 ff ff 	mov    %rax,-0x16e8(%rbp)
   1adb1:	48 83 bd b0 eb ff ff 	cmpq   $0x0,-0x1450(%rbp)
   1adb8:	00 
   1adb9:	0f 95 c0             	setne  %al
   1adbc:	0f b6 d0             	movzbl %al,%edx
   1adbf:	48 8b 85 18 e9 ff ff 	mov    -0x16e8(%rbp),%rax
   1adc6:	89 10                	mov    %edx,(%rax)
   1adc8:	8b 05 3e c3 00 00    	mov    0xc33e(%rip),%eax        # 2710c <g_818>
   1adce:	83 c0 01             	add    $0x1,%eax
   1add1:	89 05 35 c3 00 00    	mov    %eax,0xc335(%rip)        # 2710c <g_818>
   1add7:	8b 05 2f c3 00 00    	mov    0xc32f(%rip),%eax        # 2710c <g_818>
   1addd:	83 f8 04             	cmp    $0x4,%eax
   1ade0:	0f 86 df fc ff ff    	jbe    1aac5 <func_15+0x348e>
   1ade6:	48 8b 85 28 e9 ff ff 	mov    -0x16d8(%rbp),%rax
   1aded:	8b 00                	mov    (%rax),%eax
   1adef:	85 c0                	test   %eax,%eax
   1adf1:	8b 05 ed c2 00 00    	mov    0xc2ed(%rip),%eax        # 270e4 <g_350>
   1adf7:	83 c0 01             	add    $0x1,%eax
   1adfa:	89 05 e4 c2 00 00    	mov    %eax,0xc2e4(%rip)        # 270e4 <g_350>
   1ae00:	8b 05 de c2 00 00    	mov    0xc2de(%rip),%eax        # 270e4 <g_350>
   1ae06:	83 f8 23             	cmp    $0x23,%eax
   1ae09:	0f 86 fa fb ff ff    	jbe    1aa09 <func_15+0x33d2>
   1ae0f:	48 8b 85 28 e9 ff ff 	mov    -0x16d8(%rbp),%rax
   1ae16:	e9 bb 04 00 00       	jmpq   1b2d6 <func_15+0x3c9f>
   1ae1b:	66 c7 85 90 f8 ff ff 	movw   $0x909b,-0x770(%rbp)
   1ae22:	9b 90 
   1ae24:	66 c7 85 92 f8 ff ff 	movw   $0x909b,-0x76e(%rbp)
   1ae2b:	9b 90 
   1ae2d:	66 c7 85 94 f8 ff ff 	movw   $0x909b,-0x76c(%rbp)
   1ae34:	9b 90 
   1ae36:	66 c7 85 96 f8 ff ff 	movw   $0x909b,-0x76a(%rbp)
   1ae3d:	9b 90 
   1ae3f:	66 c7 85 98 f8 ff ff 	movw   $0x909b,-0x768(%rbp)
   1ae46:	9b 90 
   1ae48:	66 c7 85 9a f8 ff ff 	movw   $0x909b,-0x766(%rbp)
   1ae4f:	9b 90 
   1ae51:	48 8d 05 08 c4 00 00 	lea    0xc408(%rip),%rax        # 27260 <g_3270>
   1ae58:	48 89 85 d8 eb ff ff 	mov    %rax,-0x1428(%rbp)
   1ae5f:	66 c7 05 40 c2 00 00 	movw   $0x6,0xc240(%rip)        # 270a8 <g_174>
   1ae66:	06 00 
   1ae68:	90                   	nop
   1ae69:	0f b7 05 38 c2 00 00 	movzwl 0xc238(%rip),%eax        # 270a8 <g_174>
   1ae70:	66 85 c0             	test   %ax,%ax
   1ae73:	0f 88 9c 02 00 00    	js     1b115 <func_15+0x3ade>
   1ae79:	48 8d 05 30 c2 00 00 	lea    0xc230(%rip),%rax        # 270b0 <g_215>
   1ae80:	48 89 85 e0 eb ff ff 	mov    %rax,-0x1420(%rbp)
   1ae87:	48 8d 85 c0 ed ff ff 	lea    -0x1240(%rbp),%rax
   1ae8e:	48 83 c0 17          	add    $0x17,%rax
   1ae92:	48 89 85 e8 eb ff ff 	mov    %rax,-0x1418(%rbp)
   1ae99:	c7 85 d0 e9 ff ff 92 	movl   $0x7b29a992,-0x1630(%rbp)
   1aea0:	a9 29 7b 
   1aea3:	8b 85 f8 f5 ff ff    	mov    -0xa08(%rbp),%eax
   1aea9:	48 63 d8             	movslq %eax,%rbx
   1aeac:	0f b7 05 f5 c1 00 00 	movzwl 0xc1f5(%rip),%eax        # 270a8 <g_174>
   1aeb3:	98                   	cwtl   
   1aeb4:	48 98                	cltq   
   1aeb6:	8b 94 85 f0 f5 ff ff 	mov    -0xa10(%rbp,%rax,4),%edx
   1aebd:	0f b7 05 e4 c1 00 00 	movzwl 0xc1e4(%rip),%eax        # 270a8 <g_174>
   1aec4:	98                   	cwtl   
   1aec5:	48 98                	cltq   
   1aec7:	8b 84 85 f0 f5 ff ff 	mov    -0xa10(%rbp,%rax,4),%eax
   1aece:	0f be c0             	movsbl %al,%eax
   1aed1:	89 d6                	mov    %edx,%esi
   1aed3:	89 c7                	mov    %eax,%edi
   1aed5:	e8 c7 23 ff ff       	callq  d2a1 <safe_lshift_func_int8_t_s_s>
   1aeda:	48 0f be c0          	movsbq %al,%rax
   1aede:	48 89 de             	mov    %rbx,%rsi
   1aee1:	48 89 c7             	mov    %rax,%rdi
   1aee4:	e8 bf 29 ff ff       	callq  d8a8 <safe_sub_func_int64_t_s_s>
   1aee9:	48 89 c3             	mov    %rax,%rbx
   1aeec:	0f b7 05 9d c2 00 00 	movzwl 0xc29d(%rip),%eax        # 27190 <g_2686>
   1aef3:	83 e0 f9             	and    $0xfffffff9,%eax
   1aef6:	66 89 05 93 c2 00 00 	mov    %ax,0xc293(%rip)        # 27190 <g_2686>
   1aefd:	0f b7 05 8c c2 00 00 	movzwl 0xc28c(%rip),%eax        # 27190 <g_2686>
   1af04:	66 83 f8 ff          	cmp    $0xffff,%ax
   1af08:	7d 79                	jge    1af83 <func_15+0x394c>
   1af0a:	8b 85 24 e9 ff ff    	mov    -0x16dc(%rbp),%eax
   1af10:	0f be c0             	movsbl %al,%eax
   1af13:	89 c7                	mov    %eax,%edi
   1af15:	e8 a5 22 ff ff       	callq  d1bf <safe_unary_minus_func_int8_t_s>
   1af1a:	0f be d0             	movsbl %al,%edx
   1af1d:	48 8b 85 e0 eb ff ff 	mov    -0x1420(%rbp),%rax
   1af24:	48 3b 85 b0 eb ff ff 	cmp    -0x1450(%rbp),%rax
   1af2b:	0f 95 c0             	setne  %al
   1af2e:	0f b6 c0             	movzbl %al,%eax
   1af31:	89 d6                	mov    %edx,%esi
   1af33:	89 c7                	mov    %eax,%edi
   1af35:	e8 eb 2f ff ff       	callq  df25 <safe_div_func_uint32_t_u_u>
   1af3a:	89 c0                	mov    %eax,%eax
   1af3c:	48 be 5b e8 82 38 ce 	movabs $0xf7a1c1ce3882e85b,%rsi
   1af43:	c1 a1 f7 
   1af46:	48 89 c7             	mov    %rax,%rdi
   1af49:	e8 66 2a ff ff       	callq  d9b4 <safe_mod_func_int64_t_s_s>
   1af4e:	89 c2                	mov    %eax,%edx
   1af50:	48 8b 85 18 e9 ff ff 	mov    -0x16e8(%rbp),%rax
   1af57:	89 10                	mov    %edx,(%rax)
   1af59:	48 8b 85 18 e9 ff ff 	mov    -0x16e8(%rbp),%rax
   1af60:	8b 00                	mov    (%rax),%eax
   1af62:	39 85 24 e9 ff ff    	cmp    %eax,-0x16dc(%rbp)
   1af68:	0f 95 c0             	setne  %al
   1af6b:	0f b6 d0             	movzbl %al,%edx
   1af6e:	0f b7 85 9a f8 ff ff 	movzwl -0x766(%rbp),%eax
   1af75:	0f b7 c0             	movzwl %ax,%eax
   1af78:	39 c2                	cmp    %eax,%edx
   1af7a:	7d 07                	jge    1af83 <func_15+0x394c>
   1af7c:	b8 01 00 00 00       	mov    $0x1,%eax
   1af81:	eb 05                	jmp    1af88 <func_15+0x3951>
   1af83:	b8 00 00 00 00       	mov    $0x0,%eax
   1af88:	89 c2                	mov    %eax,%edx
   1af8a:	48 8b 85 e8 eb ff ff 	mov    -0x1418(%rbp),%rax
   1af91:	88 10                	mov    %dl,(%rax)
   1af93:	48 8b 85 e8 eb ff ff 	mov    -0x1418(%rbp),%rax
   1af9a:	0f b6 00             	movzbl (%rax),%eax
   1af9d:	84 c0                	test   %al,%al
   1af9f:	74 13                	je     1afb4 <func_15+0x397d>
   1afa1:	0f b7 85 9a f8 ff ff 	movzwl -0x766(%rbp),%eax
   1afa8:	66 85 c0             	test   %ax,%ax
   1afab:	74 07                	je     1afb4 <func_15+0x397d>
   1afad:	b8 01 00 00 00       	mov    $0x1,%eax
   1afb2:	eb 05                	jmp    1afb9 <func_15+0x3982>
   1afb4:	b8 00 00 00 00       	mov    $0x0,%eax
   1afb9:	3d 05 98 00 00       	cmp    $0x9805,%eax
   1afbe:	74 11                	je     1afd1 <func_15+0x399a>
   1afc0:	8b 85 04 f6 ff ff    	mov    -0x9fc(%rbp),%eax
   1afc6:	85 c0                	test   %eax,%eax
   1afc8:	74 07                	je     1afd1 <func_15+0x399a>
   1afca:	b8 01 00 00 00       	mov    $0x1,%eax
   1afcf:	eb 05                	jmp    1afd6 <func_15+0x399f>
   1afd1:	b8 00 00 00 00       	mov    $0x0,%eax
   1afd6:	0f b6 c0             	movzbl %al,%eax
   1afd9:	be 5f 00 00 00       	mov    $0x5f,%esi
   1afde:	89 c7                	mov    %eax,%edi
   1afe0:	e8 75 2b ff ff       	callq  db5a <safe_add_func_uint8_t_u_u>
   1afe5:	0f b6 d0             	movzbl %al,%edx
   1afe8:	48 8b 85 28 e9 ff ff 	mov    -0x16d8(%rbp),%rax
   1afef:	8b 00                	mov    (%rax),%eax
   1aff1:	09 d0                	or     %edx,%eax
   1aff3:	48 98                	cltq   
   1aff5:	48 39 c3             	cmp    %rax,%rbx
   1aff8:	83 bd 24 e9 ff ff 3c 	cmpl   $0x3c,-0x16dc(%rbp)
   1afff:	76 07                	jbe    1b008 <func_15+0x39d1>
   1b001:	b8 d6 ff ff ff       	mov    $0xffffffd6,%eax
   1b006:	eb 05                	jmp    1b00d <func_15+0x39d6>
   1b008:	b8 d7 ff ff ff       	mov    $0xffffffd7,%eax
   1b00d:	be bc ff ff ff       	mov    $0xffffffbc,%esi
   1b012:	89 c7                	mov    %eax,%edi
   1b014:	e8 bb 21 ff ff       	callq  d1d4 <safe_add_func_int8_t_s_s>
   1b019:	84 c0                	test   %al,%al
   1b01b:	75 09                	jne    1b026 <func_15+0x39ef>
   1b01d:	83 bd a4 e9 ff ff 00 	cmpl   $0x0,-0x165c(%rbp)
   1b024:	74 0c                	je     1b032 <func_15+0x39fb>
   1b026:	48 8b 85 38 e9 ff ff 	mov    -0x16c8(%rbp),%rax
   1b02d:	e9 a4 02 00 00       	jmpq   1b2d6 <func_15+0x3c9f>
   1b032:	48 8b 85 28 e9 ff ff 	mov    -0x16d8(%rbp),%rax
   1b039:	8b 18                	mov    (%rax),%ebx
   1b03b:	81 bd 24 e9 ff ff 90 	cmpl   $0x5c90,-0x16dc(%rbp)
   1b042:	5c 00 00 
   1b045:	74 21                	je     1b068 <func_15+0x3a31>
   1b047:	c7 85 d0 e9 ff ff 00 	movl   $0x0,-0x1630(%rbp)
   1b04e:	00 00 00 
   1b051:	8b 85 d0 e9 ff ff    	mov    -0x1630(%rbp),%eax
   1b057:	23 85 a4 e9 ff ff    	and    -0x165c(%rbp),%eax
   1b05d:	85 c0                	test   %eax,%eax
   1b05f:	74 07                	je     1b068 <func_15+0x3a31>
   1b061:	b8 01 00 00 00       	mov    $0x1,%eax
   1b066:	eb 05                	jmp    1b06d <func_15+0x3a36>
   1b068:	b8 00 00 00 00       	mov    $0x0,%eax
   1b06d:	0f bf d0             	movswl %ax,%edx
   1b070:	81 bd 24 e9 ff ff 0a 	cmpl   $0xcb0a,-0x16dc(%rbp)
   1b077:	cb 00 00 
   1b07a:	0f 96 c0             	setbe  %al
   1b07d:	0f b6 c0             	movzbl %al,%eax
   1b080:	89 d6                	mov    %edx,%esi
   1b082:	89 c7                	mov    %eax,%edi
   1b084:	e8 2a 23 ff ff       	callq  d3b3 <safe_add_func_int16_t_s_s>
   1b089:	98                   	cwtl   
   1b08a:	89 de                	mov    %ebx,%esi
   1b08c:	89 c7                	mov    %eax,%edi
   1b08e:	e8 39 26 ff ff       	callq  d6cc <safe_mod_func_int32_t_s_s>
   1b093:	41 89 c4             	mov    %eax,%r12d
   1b096:	8b 85 04 f6 ff ff    	mov    -0x9fc(%rbp),%eax
   1b09c:	48 63 d8             	movslq %eax,%rbx
   1b09f:	8b 85 c8 e9 ff ff    	mov    -0x1638(%rbp),%eax
   1b0a5:	0f be d0             	movsbl %al,%edx
   1b0a8:	48 8b 05 91 fa 00 00 	mov    0xfa91(%rip),%rax        # 2ab40 <g_2467>
   1b0af:	0f b6 00             	movzbl (%rax),%eax
   1b0b2:	0f be c0             	movsbl %al,%eax
   1b0b5:	89 d6                	mov    %edx,%esi
   1b0b7:	89 c7                	mov    %eax,%edi
   1b0b9:	e8 34 21 ff ff       	callq  d1f2 <safe_sub_func_int8_t_s_s>
   1b0be:	48 0f be c0          	movsbq %al,%rax
   1b0c2:	48 89 de             	mov    %rbx,%rsi
   1b0c5:	48 89 c7             	mov    %rax,%rdi
   1b0c8:	e8 b3 2f ff ff       	callq  e080 <safe_mod_func_uint64_t_u_u>
   1b0cd:	48 8b 15 6c fa 00 00 	mov    0xfa6c(%rip),%rdx        # 2ab40 <g_2467>
   1b0d4:	0f b6 12             	movzbl (%rdx),%edx
   1b0d7:	48 0f be d2          	movsbq %dl,%rdx
   1b0db:	48 39 d0             	cmp    %rdx,%rax
   1b0de:	0f 92 c0             	setb   %al
   1b0e1:	0f b6 c0             	movzbl %al,%eax
   1b0e4:	be 01 00 00 00       	mov    $0x1,%esi
   1b0e9:	89 c7                	mov    %eax,%edi
   1b0eb:	e8 15 25 ff ff       	callq  d605 <safe_sub_func_int32_t_s_s>
   1b0f0:	41 39 c4             	cmp    %eax,%r12d
   1b0f3:	0f 9f c0             	setg   %al
   1b0f6:	0f b6 c8             	movzbl %al,%ecx
   1b0f9:	48 8b 05 18 fa 00 00 	mov    0xfa18(%rip),%rax        # 2ab18 <g_2240>
   1b100:	48 8b 00             	mov    (%rax),%rax
   1b103:	8b 10                	mov    (%rax),%edx
   1b105:	09 ca                	or     %ecx,%edx
   1b107:	89 10                	mov    %edx,(%rax)
   1b109:	48 8b 85 30 e9 ff ff 	mov    -0x16d0(%rbp),%rax
   1b110:	e9 c1 01 00 00       	jmpq   1b2d6 <func_15+0x3c9f>
   1b115:	c7 05 15 c0 00 00 00 	movl   $0x0,0xc015(%rip)        # 27134 <g_1023>
   1b11c:	00 00 00 
   1b11f:	e9 d8 00 00 00       	jmpq   1b1fc <func_15+0x3bc5>
   1b124:	c7 85 7c e9 ff ff 00 	movl   $0x0,-0x1684(%rbp)
   1b12b:	00 00 00 
   1b12e:	eb 1a                	jmp    1b14a <func_15+0x3b13>
   1b130:	8b 85 7c e9 ff ff    	mov    -0x1684(%rbp),%eax
   1b136:	48 98                	cltq   
   1b138:	c7 84 85 70 f0 ff ff 	movl   $0xffffffff,-0xf90(%rbp,%rax,4)
   1b13f:	ff ff ff ff 
   1b143:	83 85 7c e9 ff ff 01 	addl   $0x1,-0x1684(%rbp)
   1b14a:	83 bd 7c e9 ff ff 01 	cmpl   $0x1,-0x1684(%rbp)
   1b151:	7e dd                	jle    1b130 <func_15+0x3af9>
   1b153:	48 8b 85 38 e9 ff ff 	mov    -0x16c8(%rbp),%rax
   1b15a:	8b 00                	mov    (%rax),%eax
   1b15c:	85 c0                	test   %eax,%eax
   1b15e:	74 53                	je     1b1b3 <func_15+0x3b7c>
   1b160:	c7 85 cc e9 ff ff 03 	movl   $0x3,-0x1634(%rbp)
   1b167:	00 00 00 
   1b16a:	c7 85 5c e9 ff ff 00 	movl   $0x0,-0x16a4(%rbp)
   1b171:	00 00 00 
   1b174:	90                   	nop
   1b175:	8b 85 5c e9 ff ff    	mov    -0x16a4(%rbp),%eax
   1b17b:	83 f8 f0             	cmp    $0xfffffff0,%eax
   1b17e:	7c 27                	jl     1b1a7 <func_15+0x3b70>
   1b180:	48 8b 05 f1 14 01 00 	mov    0x114f1(%rip),%rax        # 2c678 <g_2194>
   1b187:	8b 10                	mov    (%rax),%edx
   1b189:	48 8b 05 e8 14 01 00 	mov    0x114e8(%rip),%rax        # 2c678 <g_2194>
   1b190:	33 95 cc e9 ff ff    	xor    -0x1634(%rbp),%edx
   1b196:	89 10                	mov    %edx,(%rax)
   1b198:	48 8b 05 79 f9 00 00 	mov    0xf979(%rip),%rax        # 2ab18 <g_2240>
   1b19f:	48 8b 00             	mov    (%rax),%rax
   1b1a2:	e9 2f 01 00 00       	jmpq   1b2d6 <func_15+0x3c9f>
   1b1a7:	81 8d a4 e9 ff ff 08 	orl    $0x9d142a08,-0x165c(%rbp)
   1b1ae:	2a 14 9d 
   1b1b1:	eb 0f                	jmp    1b1c2 <func_15+0x3b8b>
   1b1b3:	8b 85 74 f0 ff ff    	mov    -0xf8c(%rbp),%eax
   1b1b9:	83 c0 01             	add    $0x1,%eax
   1b1bc:	89 85 74 f0 ff ff    	mov    %eax,-0xf8c(%rbp)
   1b1c2:	48 8b 85 30 e9 ff ff 	mov    -0x16d0(%rbp),%rax
   1b1c9:	48 89 85 b8 eb ff ff 	mov    %rax,-0x1448(%rbp)
   1b1d0:	48 8b 85 d8 eb ff ff 	mov    -0x1428(%rbp),%rax
   1b1d7:	48 89 85 38 e9 ff ff 	mov    %rax,-0x16c8(%rbp)
   1b1de:	8b 05 50 bf 00 00    	mov    0xbf50(%rip),%eax        # 27134 <g_1023>
   1b1e4:	0f b6 c0             	movzbl %al,%eax
   1b1e7:	be 09 00 00 00       	mov    $0x9,%esi
   1b1ec:	89 c7                	mov    %eax,%edi
   1b1ee:	e8 67 29 ff ff       	callq  db5a <safe_add_func_uint8_t_u_u>
   1b1f3:	0f b6 c0             	movzbl %al,%eax
   1b1f6:	89 05 38 bf 00 00    	mov    %eax,0xbf38(%rip)        # 27134 <g_1023>
   1b1fc:	8b 05 32 bf 00 00    	mov    0xbf32(%rip),%eax        # 27134 <g_1023>
   1b202:	83 f8 27             	cmp    $0x27,%eax
   1b205:	0f 87 19 ff ff ff    	ja     1b124 <func_15+0x3aed>
   1b20b:	8b 85 24 e9 ff ff    	mov    -0x16dc(%rbp),%eax
   1b211:	0f b7 c0             	movzwl %ax,%eax
   1b214:	48 8b 95 c0 eb ff ff 	mov    -0x1440(%rbp),%rdx
   1b21b:	66 c7 02 a1 ea       	movw   $0xeaa1,(%rdx)
   1b220:	48 8b 95 c0 eb ff ff 	mov    -0x1440(%rbp),%rdx
   1b227:	0f b7 12             	movzwl (%rdx),%edx
   1b22a:	0f b7 d2             	movzwl %dx,%edx
   1b22d:	31 95 a4 e9 ff ff    	xor    %edx,-0x165c(%rbp)
   1b233:	48 8b 95 b8 ea ff ff 	mov    -0x1548(%rbp),%rdx
   1b23a:	48 8b 12             	mov    (%rdx),%rdx
   1b23d:	48 8d 0d f4 13 01 00 	lea    0x113f4(%rip),%rcx        # 2c638 <g_1043>
   1b244:	48 39 ca             	cmp    %rcx,%rdx
   1b247:	0f 95 c2             	setne  %dl
   1b24a:	89 d1                	mov    %edx,%ecx
   1b24c:	48 8b 95 c8 eb ff ff 	mov    -0x1438(%rbp),%rdx
   1b253:	88 0a                	mov    %cl,(%rdx)
   1b255:	48 8b 95 c8 eb ff ff 	mov    -0x1438(%rbp),%rdx
   1b25c:	0f b6 12             	movzbl (%rdx),%edx
   1b25f:	0f b6 d2             	movzbl %dl,%edx
   1b262:	48 39 95 a8 eb ff ff 	cmp    %rdx,-0x1458(%rbp)
   1b269:	48 8b 95 20 f0 ff ff 	mov    -0xfe0(%rbp),%rdx
   1b270:	48 89 95 d0 eb ff ff 	mov    %rdx,-0x1430(%rbp)
   1b277:	48 8b 15 0a 14 01 00 	mov    0x1140a(%rip),%rdx        # 2c688 <g_2587>
   1b27e:	48 89 15 93 05 01 00 	mov    %rdx,0x10593(%rip)        # 2b818 <g_3563>
   1b285:	48 8b 15 8c 05 01 00 	mov    0x1058c(%rip),%rdx        # 2b818 <g_3563>
   1b28c:	48 39 95 d0 eb ff ff 	cmp    %rdx,-0x1430(%rbp)
   1b293:	0f 95 c2             	setne  %dl
   1b296:	0f b6 d2             	movzbl %dl,%edx
   1b299:	39 95 24 e9 ff ff    	cmp    %edx,-0x16dc(%rbp)
   1b29f:	89 c6                	mov    %eax,%esi
   1b2a1:	bf 01 00 00 00       	mov    $0x1,%edi
   1b2a6:	e8 e3 2a ff ff       	callq  dd8e <safe_div_func_uint16_t_u_u>
   1b2ab:	0f b7 c0             	movzwl %ax,%eax
   1b2ae:	39 85 24 e9 ff ff    	cmp    %eax,-0x16dc(%rbp)
   1b2b4:	0f 96 c0             	setbe  %al
   1b2b7:	0f b6 c0             	movzbl %al,%eax
   1b2ba:	39 85 24 e9 ff ff    	cmp    %eax,-0x16dc(%rbp)
   1b2c0:	0f 94 c0             	sete   %al
   1b2c3:	0f b6 d0             	movzbl %al,%edx
   1b2c6:	48 8b 85 18 e9 ff ff 	mov    -0x16e8(%rbp),%rax
   1b2cd:	89 10                	mov    %edx,(%rax)
   1b2cf:	48 8b 85 18 e9 ff ff 	mov    -0x16e8(%rbp),%rax
   1b2d6:	48 8b 5d c8          	mov    -0x38(%rbp),%rbx
   1b2da:	64 48 33 1c 25 28 00 	xor    %fs:0x28,%rbx
   1b2e1:	00 00 
   1b2e3:	74 05                	je     1b2ea <func_15+0x3cb3>
   1b2e5:	e8 86 1d ff ff       	callq  d070 <__stack_chk_fail@plt>
   1b2ea:	48 81 c4 d8 16 00 00 	add    $0x16d8,%rsp
   1b2f1:	5b                   	pop    %rbx
   1b2f2:	41 5c                	pop    %r12
   1b2f4:	41 5d                	pop    %r13
   1b2f6:	41 5e                	pop    %r14
   1b2f8:	41 5f                	pop    %r15
   1b2fa:	5d                   	pop    %rbp
   1b2fb:	c3                   	retq   

000000000001b2fc <func_22>:
   1b2fc:	f3 0f 1e fa          	endbr64 
   1b300:	55                   	push   %rbp
   1b301:	48 89 e5             	mov    %rsp,%rbp
   1b304:	41 57                	push   %r15
   1b306:	41 56                	push   %r14
   1b308:	41 55                	push   %r13
   1b30a:	41 54                	push   %r12
   1b30c:	53                   	push   %rbx
   1b30d:	48 81 ec 98 06 00 00 	sub    $0x698,%rsp
   1b314:	89 f8                	mov    %edi,%eax
   1b316:	66 89 85 4c f9 ff ff 	mov    %ax,-0x6b4(%rbp)
   1b31d:	64 48 8b 04 25 28 00 	mov    %fs:0x28,%rax
   1b324:	00 00 
   1b326:	48 89 45 c8          	mov    %rax,-0x38(%rbp)
   1b32a:	31 c0                	xor    %eax,%eax
   1b32c:	48 8d 05 11 bd 00 00 	lea    0xbd11(%rip),%rax        # 27044 <g_25+0x4>
   1b333:	48 89 85 70 f9 ff ff 	mov    %rax,-0x690(%rbp)
   1b33a:	48 c7 85 78 f9 ff ff 	movq   $0x0,-0x688(%rbp)
   1b341:	00 00 00 00 
   1b345:	48 8d 85 b0 fa ff ff 	lea    -0x550(%rbp),%rax
   1b34c:	48 8d 15 8d e2 00 00 	lea    0xe28d(%rip),%rdx        # 295e0 <g_4462+0x2320>
   1b353:	b9 a2 00 00 00       	mov    $0xa2,%ecx
   1b358:	48 89 c7             	mov    %rax,%rdi
   1b35b:	48 89 d6             	mov    %rdx,%rsi
   1b35e:	f3 48 a5             	rep movsq %ds:(%rsi),%es:(%rdi)
   1b361:	48 c7 85 80 f9 ff ff 	movq   $0x0,-0x680(%rbp)
   1b368:	00 00 00 00 
   1b36c:	c7 85 58 f9 ff ff ff 	movl   $0xffffffff,-0x6a8(%rbp)
   1b373:	ff ff ff 
   1b376:	48 8b 85 70 f9 ff ff 	mov    -0x690(%rbp),%rax
   1b37d:	8b 00                	mov    (%rax),%eax
   1b37f:	35 ee f8 cf ca       	xor    $0xcacff8ee,%eax
   1b384:	89 c2                	mov    %eax,%edx
   1b386:	48 8b 85 70 f9 ff ff 	mov    -0x690(%rbp),%rax
   1b38d:	89 10                	mov    %edx,(%rax)
   1b38f:	48 8b 85 70 f9 ff ff 	mov    -0x690(%rbp),%rax
   1b396:	8b 00                	mov    (%rax),%eax
   1b398:	89 85 48 f9 ff ff    	mov    %eax,-0x6b8(%rbp)
   1b39e:	4c 8b 25 d3 12 01 00 	mov    0x112d3(%rip),%r12        # 2c678 <g_2194>
   1b3a5:	48 8b 85 70 f9 ff ff 	mov    -0x690(%rbp),%rax
   1b3ac:	8b 00                	mov    (%rax),%eax
   1b3ae:	0f b7 d8             	movzwl %ax,%ebx
   1b3b1:	48 8b 85 70 f9 ff ff 	mov    -0x690(%rbp),%rax
   1b3b8:	44 8b 38             	mov    (%rax),%r15d
   1b3bb:	44 0f b7 ad 4c f9 ff 	movzwl -0x6b4(%rbp),%r13d
   1b3c2:	ff 
   1b3c3:	48 8b 85 70 f9 ff ff 	mov    -0x690(%rbp),%rax
   1b3ca:	44 8b 30             	mov    (%rax),%r14d
   1b3cd:	8b 05 51 bc 00 00    	mov    0xbc51(%rip),%eax        # 27024 <g_8>
   1b3d3:	85 c0                	test   %eax,%eax
   1b3d5:	75 0d                	jne    1b3e4 <func_22+0xe8>
   1b3d7:	48 8b 85 70 f9 ff ff 	mov    -0x690(%rbp),%rax
   1b3de:	8b 00                	mov    (%rax),%eax
   1b3e0:	85 c0                	test   %eax,%eax
   1b3e2:	74 07                	je     1b3eb <func_22+0xef>
   1b3e4:	ba 01 00 00 00       	mov    $0x1,%edx
   1b3e9:	eb 05                	jmp    1b3f0 <func_22+0xf4>
   1b3eb:	ba 00 00 00 00       	mov    $0x0,%edx
   1b3f0:	48 8b 85 70 f9 ff ff 	mov    -0x690(%rbp),%rax
   1b3f7:	8b 00                	mov    (%rax),%eax
   1b3f9:	39 c2                	cmp    %eax,%edx
   1b3fb:	0f 9d c0             	setge  %al
   1b3fe:	0f b6 c0             	movzbl %al,%eax
   1b401:	89 85 44 f9 ff ff    	mov    %eax,-0x6bc(%rbp)
   1b407:	48 8b 85 70 f9 ff ff 	mov    -0x690(%rbp),%rax
   1b40e:	48 89 05 2b f6 00 00 	mov    %rax,0xf62b(%rip)        # 2aa40 <g_49>
   1b415:	48 8b 15 24 f6 00 00 	mov    0xf624(%rip),%rdx        # 2aa40 <g_49>
   1b41c:	48 8b 85 70 f9 ff ff 	mov    -0x690(%rbp),%rax
   1b423:	48 89 d6             	mov    %rdx,%rsi
   1b426:	48 89 c7             	mov    %rax,%rdi
   1b429:	e8 68 25 00 00       	callq  1d996 <func_45>
   1b42e:	48 89 85 f0 fd ff ff 	mov    %rax,-0x210(%rbp)
   1b435:	48 8b 85 f0 fd ff ff 	mov    -0x210(%rbp),%rax
   1b43c:	48 8d 15 e1 bb 00 00 	lea    0xbbe1(%rip),%rdx        # 27024 <g_8>
   1b443:	48 39 d0             	cmp    %rdx,%rax
   1b446:	0f 95 c0             	setne  %al
   1b449:	0f b6 d0             	movzbl %al,%edx
   1b44c:	0f b7 85 4c f9 ff ff 	movzwl -0x6b4(%rbp),%eax
   1b453:	39 c2                	cmp    %eax,%edx
   1b455:	0f 9d c0             	setge  %al
   1b458:	0f b6 c0             	movzbl %al,%eax
   1b45b:	39 85 44 f9 ff ff    	cmp    %eax,-0x6bc(%rbp)
   1b461:	0f 9c c0             	setl   %al
   1b464:	0f b6 d0             	movzbl %al,%edx
   1b467:	48 8b 85 70 f9 ff ff 	mov    -0x690(%rbp),%rax
   1b46e:	8b 00                	mov    (%rax),%eax
   1b470:	39 c2                	cmp    %eax,%edx
   1b472:	0f 94 c0             	sete   %al
   1b475:	89 c2                	mov    %eax,%edx
   1b477:	0f b7 85 4c f9 ff ff 	movzwl -0x6b4(%rbp),%eax
   1b47e:	21 d0                	and    %edx,%eax
   1b480:	0f be d0             	movsbl %al,%edx
   1b483:	0f b7 8d 4c f9 ff ff 	movzwl -0x6b4(%rbp),%ecx
   1b48a:	48 8b 85 70 f9 ff ff 	mov    -0x690(%rbp),%rax
   1b491:	8b 00                	mov    (%rax),%eax
   1b493:	0f b7 c0             	movzwl %ax,%eax
   1b496:	89 ce                	mov    %ecx,%esi
   1b498:	89 c7                	mov    %eax,%edi
   1b49a:	e8 90 0e 00 00       	callq  1c32f <func_41>
   1b49f:	44 89 f6             	mov    %r14d,%esi
   1b4a2:	89 c7                	mov    %eax,%edi
   1b4a4:	e8 56 22 ff ff       	callq  d6ff <safe_div_func_int32_t_s_s>
   1b4a9:	85 c0                	test   %eax,%eax
   1b4ab:	74 11                	je     1b4be <func_22+0x1c2>
   1b4ad:	66 83 bd 4c f9 ff ff 	cmpw   $0x0,-0x6b4(%rbp)
   1b4b4:	00 
   1b4b5:	74 07                	je     1b4be <func_22+0x1c2>
   1b4b7:	b8 01 00 00 00       	mov    $0x1,%eax
   1b4bc:	eb 05                	jmp    1b4c3 <func_22+0x1c7>
   1b4be:	b8 00 00 00 00       	mov    $0x0,%eax
   1b4c3:	0f be c0             	movsbl %al,%eax
   1b4c6:	be 06 00 00 00       	mov    $0x6,%esi
   1b4cb:	89 c7                	mov    %eax,%edi
   1b4cd:	e8 cf 1d ff ff       	callq  d2a1 <safe_lshift_func_int8_t_s_s>
   1b4d2:	66 98                	cbtw   
   1b4d4:	0f b7 c0             	movzwl %ax,%eax
   1b4d7:	44 89 ee             	mov    %r13d,%esi
   1b4da:	89 c7                	mov    %eax,%edi
   1b4dc:	e8 ad 28 ff ff       	callq  dd8e <safe_div_func_uint16_t_u_u>
   1b4e1:	0f b7 d0             	movzwl %ax,%edx
   1b4e4:	48 8b 05 cd f5 00 00 	mov    0xf5cd(%rip),%rax        # 2aab8 <g_1205>
   1b4eb:	48 8b 00             	mov    (%rax),%rax
   1b4ee:	44 09 fa             	or     %r15d,%edx
   1b4f1:	89 10                	mov    %edx,(%rax)
   1b4f3:	8b 00                	mov    (%rax),%eax
   1b4f5:	48 8b 95 70 f9 ff ff 	mov    -0x690(%rbp),%rdx
   1b4fc:	4c 89 e1             	mov    %r12,%rcx
   1b4ff:	89 de                	mov    %ebx,%esi
   1b501:	89 c7                	mov    %eax,%edi
   1b503:	e8 6a 0c 00 00       	callq  1c172 <func_30>
   1b508:	48 89 c1             	mov    %rax,%rcx
   1b50b:	48 8b 1d 06 f6 00 00 	mov    0xf606(%rip),%rbx        # 2ab18 <g_2240>
   1b512:	48 8b 85 70 f9 ff ff 	mov    -0x690(%rbp),%rax
   1b519:	48 89 c2             	mov    %rax,%rdx
   1b51c:	8b b5 48 f9 ff ff    	mov    -0x6b8(%rbp),%esi
   1b522:	48 89 cf             	mov    %rcx,%rdi
   1b525:	e8 6d 08 00 00       	callq  1bd97 <func_26>
   1b52a:	48 89 03             	mov    %rax,(%rbx)
   1b52d:	c7 05 f9 bb 00 00 08 	movl   $0x8,0xbbf9(%rip)        # 27130 <g_941>
   1b534:	00 00 00 
   1b537:	e9 8a 01 00 00       	jmpq   1b6c6 <func_22+0x3ca>
   1b53c:	48 b8 dc c1 ba 3a 76 	movabs $0x6894be763abac1dc,%rax
   1b543:	be 94 68 
   1b546:	48 89 85 20 fa ff ff 	mov    %rax,-0x5e0(%rbp)
   1b54d:	48 89 85 28 fa ff ff 	mov    %rax,-0x5d8(%rbp)
   1b554:	48 c7 85 30 fa ff ff 	movq   $0x9,-0x5d0(%rbp)
   1b55b:	09 00 00 00 
   1b55f:	48 89 85 38 fa ff ff 	mov    %rax,-0x5c8(%rbp)
   1b566:	48 89 85 40 fa ff ff 	mov    %rax,-0x5c0(%rbp)
   1b56d:	48 c7 85 48 fa ff ff 	movq   $0x9,-0x5b8(%rbp)
   1b574:	09 00 00 00 
   1b578:	48 89 85 50 fa ff ff 	mov    %rax,-0x5b0(%rbp)
   1b57f:	c7 85 60 f9 ff ff 46 	movl   $0x8b69b746,-0x6a0(%rbp)
   1b586:	b7 69 8b 
   1b589:	c7 85 64 f9 ff ff 83 	movl   $0xf4ad0c83,-0x69c(%rbp)
   1b590:	0c ad f4 
   1b593:	c7 85 68 f9 ff ff 04 	movl   $0x4,-0x698(%rbp)
   1b59a:	00 00 00 
   1b59d:	c7 85 6c f9 ff ff af 	movl   $0xcda9faaf,-0x694(%rbp)
   1b5a4:	fa a9 cd 
   1b5a7:	c7 85 e0 f9 ff ff 01 	movl   $0x1,-0x620(%rbp)
   1b5ae:	00 00 00 
   1b5b1:	c7 85 e4 f9 ff ff ff 	movl   $0xffffffff,-0x61c(%rbp)
   1b5b8:	ff ff ff 
   1b5bb:	c7 85 e8 f9 ff ff ff 	movl   $0xffffffff,-0x618(%rbp)
   1b5c2:	ff ff ff 
   1b5c5:	c7 85 ec f9 ff ff 01 	movl   $0x1,-0x614(%rbp)
   1b5cc:	00 00 00 
   1b5cf:	c7 85 f0 f9 ff ff ff 	movl   $0xffffffff,-0x610(%rbp)
   1b5d6:	ff ff ff 
   1b5d9:	c7 85 f4 f9 ff ff ff 	movl   $0xffffffff,-0x60c(%rbp)
   1b5e0:	ff ff ff 
   1b5e3:	c7 85 f8 f9 ff ff 01 	movl   $0x1,-0x608(%rbp)
   1b5ea:	00 00 00 
   1b5ed:	c7 85 fc f9 ff ff ff 	movl   $0xffffffff,-0x604(%rbp)
   1b5f4:	ff ff ff 
   1b5f7:	c7 85 00 fa ff ff ff 	movl   $0xffffffff,-0x600(%rbp)
   1b5fe:	ff ff ff 
   1b601:	c7 85 c0 f9 ff ff f8 	movl   $0xfffffff8,-0x640(%rbp)
   1b608:	ff ff ff 
   1b60b:	c7 85 c4 f9 ff ff f6 	movl   $0xad3b64f6,-0x63c(%rbp)
   1b612:	64 3b ad 
   1b615:	c7 85 c8 f9 ff ff f8 	movl   $0xfffffff8,-0x638(%rbp)
   1b61c:	ff ff ff 
   1b61f:	c7 85 cc f9 ff ff f6 	movl   $0xad3b64f6,-0x634(%rbp)
   1b626:	64 3b ad 
   1b629:	c7 85 d0 f9 ff ff f8 	movl   $0xfffffff8,-0x630(%rbp)
   1b630:	ff ff ff 
   1b633:	c7 85 d4 f9 ff ff f6 	movl   $0xad3b64f6,-0x62c(%rbp)
   1b63a:	64 3b ad 
   1b63d:	c7 85 d8 f9 ff ff f8 	movl   $0xfffffff8,-0x628(%rbp)
   1b644:	ff ff ff 
   1b647:	c7 85 dc f9 ff ff f6 	movl   $0xad3b64f6,-0x624(%rbp)
   1b64e:	64 3b ad 
   1b651:	c7 05 95 ba 00 00 00 	movl   $0x0,0xba95(%rip)        # 270f0 <g_515>
   1b658:	00 00 00 
   1b65b:	90                   	nop
   1b65c:	8b 05 8e ba 00 00    	mov    0xba8e(%rip),%eax        # 270f0 <g_515>
   1b662:	83 f8 36             	cmp    $0x36,%eax
   1b665:	77 0e                	ja     1b675 <func_22+0x379>
   1b667:	48 8b 05 e2 f3 00 00 	mov    0xf3e2(%rip),%rax        # 2aa50 <g_258>
   1b66e:	8b 00                	mov    (%rax),%eax
   1b670:	e9 fc 06 00 00       	jmpq   1bd71 <func_22+0xa75>
   1b675:	c7 05 35 ba 00 00 ed 	movl   $0xffffffed,0xba35(%rip)        # 270b4 <g_235>
   1b67c:	ff ff ff 
   1b67f:	90                   	nop
   1b680:	8b 05 2e ba 00 00    	mov    0xba2e(%rip),%eax        # 270b4 <g_235>
   1b686:	83 f8 1a             	cmp    $0x1a,%eax
   1b689:	7e 0e                	jle    1b699 <func_22+0x39d>
   1b68b:	48 8b 05 be f3 00 00 	mov    0xf3be(%rip),%rax        # 2aa50 <g_258>
   1b692:	8b 00                	mov    (%rax),%eax
   1b694:	e9 d8 06 00 00       	jmpq   1bd71 <func_22+0xa75>
   1b699:	8b 85 c8 f9 ff ff    	mov    -0x638(%rbp),%eax
   1b69f:	83 c0 01             	add    $0x1,%eax
   1b6a2:	89 85 c8 f9 ff ff    	mov    %eax,-0x638(%rbp)
   1b6a8:	8b 05 82 ba 00 00    	mov    0xba82(%rip),%eax        # 27130 <g_941>
   1b6ae:	0f b6 c0             	movzbl %al,%eax
   1b6b1:	be 07 00 00 00       	mov    $0x7,%esi
   1b6b6:	89 c7                	mov    %eax,%edi
   1b6b8:	e8 9d 24 ff ff       	callq  db5a <safe_add_func_uint8_t_u_u>
   1b6bd:	0f b6 c0             	movzbl %al,%eax
   1b6c0:	89 05 6a ba 00 00    	mov    %eax,0xba6a(%rip)        # 27130 <g_941>
   1b6c6:	8b 05 64 ba 00 00    	mov    0xba64(%rip),%eax        # 27130 <g_941>
   1b6cc:	83 f8 08             	cmp    $0x8,%eax
   1b6cf:	0f 85 67 fe ff ff    	jne    1b53c <func_22+0x240>
   1b6d5:	48 83 bd 80 f9 ff ff 	cmpq   $0x0,-0x680(%rbp)
   1b6dc:	00 
   1b6dd:	0f 85 87 06 00 00    	jne    1bd6a <func_22+0xa6e>
   1b6e3:	c6 85 53 f9 ff ff ff 	movb   $0xff,-0x6ad(%rbp)
   1b6ea:	c7 85 54 f9 ff ff 33 	movl   $0x5f8af133,-0x6ac(%rbp)
   1b6f1:	f1 8a 5f 
   1b6f4:	48 8d 05 b1 b9 00 00 	lea    0xb9b1(%rip),%rax        # 270ac <g_178>
   1b6fb:	48 89 85 e0 f9 ff ff 	mov    %rax,-0x620(%rbp)
   1b702:	48 8d 05 a3 b9 00 00 	lea    0xb9a3(%rip),%rax        # 270ac <g_178>
   1b709:	48 89 85 e8 f9 ff ff 	mov    %rax,-0x618(%rbp)
   1b710:	48 8d 05 4d b9 00 00 	lea    0xb94d(%rip),%rax        # 27064 <g_50>
   1b717:	48 89 85 f0 f9 ff ff 	mov    %rax,-0x610(%rbp)
   1b71e:	48 8d 05 87 b9 00 00 	lea    0xb987(%rip),%rax        # 270ac <g_178>
   1b725:	48 89 85 f8 f9 ff ff 	mov    %rax,-0x608(%rbp)
   1b72c:	48 8d 05 79 b9 00 00 	lea    0xb979(%rip),%rax        # 270ac <g_178>
   1b733:	48 89 85 00 fa ff ff 	mov    %rax,-0x600(%rbp)
   1b73a:	48 8d 05 23 b9 00 00 	lea    0xb923(%rip),%rax        # 27064 <g_50>
   1b741:	48 89 85 08 fa ff ff 	mov    %rax,-0x5f8(%rbp)
   1b748:	48 8d 05 5d b9 00 00 	lea    0xb95d(%rip),%rax        # 270ac <g_178>
   1b74f:	48 89 85 10 fa ff ff 	mov    %rax,-0x5f0(%rbp)
   1b756:	48 8d 05 07 b9 00 00 	lea    0xb907(%rip),%rax        # 27064 <g_50>
   1b75d:	48 89 85 88 f9 ff ff 	mov    %rax,-0x678(%rbp)
   1b764:	c7 05 76 b9 00 00 00 	movl   $0x0,0xb976(%rip)        # 270e4 <g_350>
   1b76b:	00 00 00 
   1b76e:	90                   	nop
   1b76f:	8b 05 6f b9 00 00    	mov    0xb96f(%rip),%eax        # 270e4 <g_350>
   1b775:	83 f8 04             	cmp    $0x4,%eax
   1b778:	0f 87 c7 05 00 00    	ja     1bd45 <func_22+0xa49>
   1b77e:	c6 85 52 f9 ff ff 48 	movb   $0x48,-0x6ae(%rbp)
   1b785:	c7 05 25 b9 00 00 00 	movl   $0x0,0xb925(%rip)        # 270b4 <g_235>
   1b78c:	00 00 00 
   1b78f:	90                   	nop
   1b790:	8b 05 1e b9 00 00    	mov    0xb91e(%rip),%eax        # 270b4 <g_235>
   1b796:	83 f8 02             	cmp    $0x2,%eax
   1b799:	7f 31                	jg     1b7cc <func_22+0x4d0>
   1b79b:	8b 05 13 b9 00 00    	mov    0xb913(%rip),%eax        # 270b4 <g_235>
   1b7a1:	48 98                	cltq   
   1b7a3:	48 8d 14 85 00 00 00 	lea    0x0(,%rax,4),%rdx
   1b7aa:	00 
   1b7ab:	48 8d 05 9e b9 00 00 	lea    0xb99e(%rip),%rax        # 27150 <g_1573>
   1b7b2:	8b 14 02             	mov    (%rdx,%rax,1),%edx
   1b7b5:	48 8b 05 bc 0e 01 00 	mov    0x10ebc(%rip),%rax        # 2c678 <g_2194>
   1b7bc:	89 10                	mov    %edx,(%rax)
   1b7be:	48 8b 05 8b f2 00 00 	mov    0xf28b(%rip),%rax        # 2aa50 <g_258>
   1b7c5:	8b 00                	mov    (%rax),%eax
   1b7c7:	e9 a5 05 00 00       	jmpq   1bd71 <func_22+0xa75>
   1b7cc:	48 8b 05 45 f3 00 00 	mov    0xf345(%rip),%rax        # 2ab18 <g_2240>
   1b7d3:	48 8b 00             	mov    (%rax),%rax
   1b7d6:	8b 10                	mov    (%rax),%edx
   1b7d8:	8b 05 8a b9 00 00    	mov    0xb98a(%rip),%eax        # 27168 <g_2257>
   1b7de:	31 d0                	xor    %edx,%eax
   1b7e0:	89 05 82 b9 00 00    	mov    %eax,0xb982(%rip)        # 27168 <g_2257>
   1b7e6:	c7 05 78 b9 00 00 04 	movl   $0x4,0xb978(%rip)        # 27168 <g_2257>
   1b7ed:	00 00 00 
   1b7f0:	e9 39 05 00 00       	jmpq   1bd2e <func_22+0xa32>
   1b7f5:	c7 85 5c f9 ff ff 07 	movl   $0x7,-0x6a4(%rbp)
   1b7fc:	00 00 00 
   1b7ff:	48 8d 05 52 f2 00 00 	lea    0xf252(%rip),%rax        # 2aa58 <g_396>
   1b806:	48 89 85 90 f9 ff ff 	mov    %rax,-0x670(%rbp)
   1b80d:	48 8d 05 30 b8 00 00 	lea    0xb830(%rip),%rax        # 27044 <g_25+0x4>
   1b814:	48 89 85 98 f9 ff ff 	mov    %rax,-0x668(%rbp)
   1b81b:	c7 05 c7 b8 00 00 00 	movl   $0x0,0xb8c7(%rip)        # 270ec <g_484>
   1b822:	00 00 00 
   1b825:	e9 e6 04 00 00       	jmpq   1bd10 <func_22+0xa14>
   1b82a:	c7 45 c2 00 00 00 00 	movl   $0x0,-0x3e(%rbp)
   1b831:	66 c7 45 c6 00 00    	movw   $0x0,-0x3a(%rbp)
   1b837:	48 8d 05 72 b8 00 00 	lea    0xb872(%rip),%rax        # 270b0 <g_215>
   1b83e:	48 89 85 a0 f9 ff ff 	mov    %rax,-0x660(%rbp)
   1b845:	48 8d 05 9c b8 00 00 	lea    0xb89c(%rip),%rax        # 270e8 <g_423>
   1b84c:	48 89 85 a8 f9 ff ff 	mov    %rax,-0x658(%rbp)
   1b853:	48 8d 05 0a b8 00 00 	lea    0xb80a(%rip),%rax        # 27064 <g_50>
   1b85a:	48 89 85 b0 f9 ff ff 	mov    %rax,-0x650(%rbp)
   1b861:	48 8d 05 b8 f2 00 00 	lea    0xf2b8(%rip),%rax        # 2ab20 <g_2308>
   1b868:	48 89 85 b8 f9 ff ff 	mov    %rax,-0x648(%rbp)
   1b86f:	c7 85 20 fa ff ff ff 	movl   $0xffffffff,-0x5e0(%rbp)
   1b876:	ff ff ff 
   1b879:	c7 85 24 fa ff ff 01 	movl   $0x1,-0x5dc(%rbp)
   1b880:	00 00 00 
   1b883:	c7 85 28 fa ff ff 00 	movl   $0x0,-0x5d8(%rbp)
   1b88a:	00 00 00 
   1b88d:	c7 85 2c fa ff ff e2 	movl   $0x23b4a5e2,-0x5d4(%rbp)
   1b894:	a5 b4 23 
   1b897:	c7 85 30 fa ff ff 00 	movl   $0x0,-0x5d0(%rbp)
   1b89e:	00 00 00 
   1b8a1:	c7 85 34 fa ff ff 01 	movl   $0x1,-0x5cc(%rbp)
   1b8a8:	00 00 00 
   1b8ab:	c7 85 38 fa ff ff ff 	movl   $0xffffffff,-0x5c8(%rbp)
   1b8b2:	ff ff ff 
   1b8b5:	c7 85 3c fa ff ff 01 	movl   $0x1,-0x5c4(%rbp)
   1b8bc:	00 00 00 
   1b8bf:	c7 85 40 fa ff ff c4 	movl   $0x162244c4,-0x5c0(%rbp)
   1b8c6:	44 22 16 
   1b8c9:	c7 85 44 fa ff ff 01 	movl   $0x1,-0x5bc(%rbp)
   1b8d0:	00 00 00 
   1b8d3:	c7 85 48 fa ff ff 01 	movl   $0x1,-0x5b8(%rbp)
   1b8da:	00 00 00 
   1b8dd:	c7 85 4c fa ff ff c4 	movl   $0x162244c4,-0x5b4(%rbp)
   1b8e4:	44 22 16 
   1b8e7:	c7 85 50 fa ff ff 01 	movl   $0x1,-0x5b0(%rbp)
   1b8ee:	00 00 00 
   1b8f1:	c7 85 54 fa ff ff 01 	movl   $0x1,-0x5ac(%rbp)
   1b8f8:	00 00 00 
   1b8fb:	c7 85 58 fa ff ff ff 	movl   $0xffffffff,-0x5a8(%rbp)
   1b902:	ff ff ff 
   1b905:	c7 85 5c fa ff ff e2 	movl   $0x23b4a5e2,-0x5a4(%rbp)
   1b90c:	a5 b4 23 
   1b90f:	c7 85 60 fa ff ff 82 	movl   $0x290d6882,-0x5a0(%rbp)
   1b916:	68 0d 29 
   1b919:	c7 85 64 fa ff ff e2 	movl   $0x23b4a5e2,-0x59c(%rbp)
   1b920:	a5 b4 23 
   1b923:	c7 85 68 fa ff ff ff 	movl   $0xffffffff,-0x598(%rbp)
   1b92a:	ff ff ff 
   1b92d:	c7 85 6c fa ff ff 01 	movl   $0x1,-0x594(%rbp)
   1b934:	00 00 00 
   1b937:	c7 85 70 fa ff ff ff 	movl   $0xffffffff,-0x590(%rbp)
   1b93e:	ff ff ff 
   1b941:	c7 85 74 fa ff ff c4 	movl   $0x162244c4,-0x58c(%rbp)
   1b948:	44 22 16 
   1b94b:	c7 85 78 fa ff ff 01 	movl   $0x1,-0x588(%rbp)
   1b952:	00 00 00 
   1b955:	c7 85 7c fa ff ff 01 	movl   $0x1,-0x584(%rbp)
   1b95c:	00 00 00 
   1b95f:	c7 85 80 fa ff ff c4 	movl   $0x162244c4,-0x580(%rbp)
   1b966:	44 22 16 
   1b969:	c7 85 84 fa ff ff 01 	movl   $0x1,-0x57c(%rbp)
   1b970:	00 00 00 
   1b973:	c7 85 88 fa ff ff 01 	movl   $0x1,-0x578(%rbp)
   1b97a:	00 00 00 
   1b97d:	c7 85 8c fa ff ff c4 	movl   $0x162244c4,-0x574(%rbp)
   1b984:	44 22 16 
   1b987:	c7 85 90 fa ff ff 00 	movl   $0x0,-0x570(%rbp)
   1b98e:	00 00 00 
   1b991:	c7 85 94 fa ff ff e2 	movl   $0x23b4a5e2,-0x56c(%rbp)
   1b998:	a5 b4 23 
   1b99b:	c7 85 98 fa ff ff 00 	movl   $0x0,-0x568(%rbp)
   1b9a2:	00 00 00 
   1b9a5:	c7 85 9c fa ff ff 01 	movl   $0x1,-0x564(%rbp)
   1b9ac:	00 00 00 
   1b9af:	c7 85 a0 fa ff ff ff 	movl   $0xffffffff,-0x560(%rbp)
   1b9b6:	ff ff ff 
   1b9b9:	c7 85 a4 fa ff ff 01 	movl   $0x1,-0x55c(%rbp)
   1b9c0:	00 00 00 
   1b9c3:	c7 85 a8 fa ff ff 00 	movl   $0x0,-0x558(%rbp)
   1b9ca:	00 00 00 
   1b9cd:	66 83 bd 4c f9 ff ff 	cmpw   $0x0,-0x6b4(%rbp)
   1b9d4:	00 
   1b9d5:	0f 85 1d 01 00 00    	jne    1baf8 <func_22+0x7fc>
   1b9db:	0f b6 45 c5          	movzbl -0x3b(%rbp),%eax
   1b9df:	0f be d8             	movsbl %al,%ebx
   1b9e2:	0f b7 95 4c f9 ff ff 	movzwl -0x6b4(%rbp),%edx
   1b9e9:	0f b7 85 4c f9 ff ff 	movzwl -0x6b4(%rbp),%eax
   1b9f0:	89 d6                	mov    %edx,%esi
   1b9f2:	89 c7                	mov    %eax,%edi
   1b9f4:	e8 44 23 ff ff       	callq  dd3d <safe_mul_func_uint16_t_u_u>
   1b9f9:	0f b6 45 c5          	movzbl -0x3b(%rbp),%eax
   1b9fd:	44 0f be f0          	movsbl %al,%r14d
   1ba01:	8b 05 59 b7 00 00    	mov    0xb759(%rip),%eax        # 27160 <g_1573+0x10>
   1ba07:	44 0f be e0          	movsbl %al,%r12d
   1ba0b:	be 02 00 00 00       	mov    $0x2,%esi
   1ba10:	bf 48 00 00 00       	mov    $0x48,%edi
   1ba15:	e8 d4 18 ff ff       	callq  d2ee <safe_lshift_func_int8_t_s_u>
   1ba1a:	66 0f be d0          	movsbw %al,%dx
   1ba1e:	48 8b 85 a0 f9 ff ff 	mov    -0x660(%rbp),%rax
   1ba25:	66 89 10             	mov    %dx,(%rax)
   1ba28:	48 8b 85 a0 f9 ff ff 	mov    -0x660(%rbp),%rax
   1ba2f:	0f b7 00             	movzwl (%rax),%eax
   1ba32:	98                   	cwtl   
   1ba33:	89 c7                	mov    %eax,%edi
   1ba35:	e8 63 19 ff ff       	callq  d39d <safe_unary_minus_func_int16_t_s>
   1ba3a:	89 c2                	mov    %eax,%edx
   1ba3c:	48 8b 85 a8 f9 ff ff 	mov    -0x658(%rbp),%rax
   1ba43:	66 89 10             	mov    %dx,(%rax)
   1ba46:	48 8b 85 a8 f9 ff ff 	mov    -0x658(%rbp),%rax
   1ba4d:	0f b7 00             	movzwl (%rax),%eax
   1ba50:	0f b7 c0             	movzwl %ax,%eax
   1ba53:	23 85 5c f9 ff ff    	and    -0x6a4(%rbp),%eax
   1ba59:	be 5b 16 12 79       	mov    $0x7912165b,%esi
   1ba5e:	89 c7                	mov    %eax,%edi
   1ba60:	e8 6b 24 ff ff       	callq  ded0 <safe_sub_func_uint32_t_u_u>
   1ba65:	44 0f be e8          	movsbl %al,%r13d
   1ba69:	bf 00 00 00 00       	mov    $0x0,%edi
   1ba6e:	e8 a6 25 ff ff       	callq  e019 <safe_unary_minus_func_uint64_t_u>
   1ba73:	0f be c0             	movsbl %al,%eax
   1ba76:	44 89 ee             	mov    %r13d,%esi
   1ba79:	89 c7                	mov    %eax,%edi
   1ba7b:	e8 92 17 ff ff       	callq  d212 <safe_mul_func_int8_t_s_s>
   1ba80:	0f be c0             	movsbl %al,%eax
   1ba83:	44 89 e6             	mov    %r12d,%esi
   1ba86:	89 c7                	mov    %eax,%edi
   1ba88:	e8 dd 17 ff ff       	callq  d26a <safe_div_func_int8_t_s_s>
   1ba8d:	0f be d0             	movsbl %al,%edx
   1ba90:	0f b7 85 4c f9 ff ff 	movzwl -0x6b4(%rbp),%eax
   1ba97:	39 c2                	cmp    %eax,%edx
   1ba99:	0f 9c c0             	setl   %al
   1ba9c:	0f b6 d0             	movzbl %al,%edx
   1ba9f:	0f b7 85 4c f9 ff ff 	movzwl -0x6b4(%rbp),%eax
   1baa6:	39 c2                	cmp    %eax,%edx
   1baa8:	0f 9e c0             	setle  %al
   1baab:	0f b6 c0             	movzbl %al,%eax
   1baae:	41 39 c6             	cmp    %eax,%r14d
   1bab1:	0f 9c c0             	setl   %al
   1bab4:	0f b6 d0             	movzbl %al,%edx
   1bab7:	0f b7 85 4c f9 ff ff 	movzwl -0x6b4(%rbp),%eax
   1babe:	48 39 c2             	cmp    %rax,%rdx
   1bac1:	0f 96 c0             	setbe  %al
   1bac4:	0f b6 d0             	movzbl %al,%edx
   1bac7:	8b 85 5c f9 ff ff    	mov    -0x6a4(%rbp),%eax
   1bacd:	0f be c0             	movsbl %al,%eax
   1bad0:	89 d6                	mov    %edx,%esi
   1bad2:	89 c7                	mov    %eax,%edi
   1bad4:	e8 39 17 ff ff       	callq  d212 <safe_mul_func_int8_t_s_s>
   1bad9:	66 c7 85 4c f9 ff ff 	movw   $0x1,-0x6b4(%rbp)
   1bae0:	01 00 
   1bae2:	0f b7 85 4c f9 ff ff 	movzwl -0x6b4(%rbp),%eax
   1bae9:	89 de                	mov    %ebx,%esi
   1baeb:	89 c7                	mov    %eax,%edi
   1baed:	e8 56 23 ff ff       	callq  de48 <safe_rshift_func_uint16_t_u_s>
   1baf2:	66 83 f8 04          	cmp    $0x4,%ax
   1baf6:	74 07                	je     1baff <func_22+0x803>
   1baf8:	ba 01 00 00 00       	mov    $0x1,%edx
   1bafd:	eb 05                	jmp    1bb04 <func_22+0x808>
   1baff:	ba 00 00 00 00       	mov    $0x0,%edx
   1bb04:	48 8b 05 3d ef 00 00 	mov    0xef3d(%rip),%rax        # 2aa48 <g_142>
   1bb0b:	89 10                	mov    %edx,(%rax)
   1bb0d:	8b 00                	mov    (%rax),%eax
   1bb0f:	88 85 52 f9 ff ff    	mov    %al,-0x6ae(%rbp)
   1bb15:	48 c7 05 60 b5 00 00 	movq   $0x0,0xb560(%rip)        # 27080 <g_107>
   1bb1c:	00 00 00 00 
   1bb20:	90                   	nop
   1bb21:	48 8b 05 58 b5 00 00 	mov    0xb558(%rip),%rax        # 27080 <g_107>
   1bb28:	48 83 f8 08          	cmp    $0x8,%rax
   1bb2c:	77 1e                	ja     1bb4c <func_22+0x850>
   1bb2e:	48 8b 05 43 0b 01 00 	mov    0x10b43(%rip),%rax        # 2c678 <g_2194>
   1bb35:	0f b7 95 4c f9 ff ff 	movzwl -0x6b4(%rbp),%edx
   1bb3c:	89 10                	mov    %edx,(%rax)
   1bb3e:	48 8b 05 0b ef 00 00 	mov    0xef0b(%rip),%rax        # 2aa50 <g_258>
   1bb45:	8b 00                	mov    (%rax),%eax
   1bb47:	e9 25 02 00 00       	jmpq   1bd71 <func_22+0xa75>
   1bb4c:	0f be 9d 53 f9 ff ff 	movsbl -0x6ad(%rbp),%ebx
   1bb53:	66 0f be 85 53 f9 ff 	movsbw -0x6ad(%rbp),%ax
   1bb5a:	ff 
   1bb5b:	44 0f b7 e0          	movzwl %ax,%r12d
   1bb5f:	48 8b 05 da b5 00 00 	mov    0xb5da(%rip),%rax        # 27140 <g_1126>
   1bb66:	44 0f bf e8          	movswl %ax,%r13d
   1bb6a:	0f b6 05 8d b5 00 00 	movzbl 0xb58d(%rip),%eax        # 270fe <g_695+0x2>
   1bb71:	0f b6 d0             	movzbl %al,%edx
   1bb74:	0f b7 85 4c f9 ff ff 	movzwl -0x6b4(%rbp),%eax
   1bb7b:	98                   	cwtl   
   1bb7c:	89 d6                	mov    %edx,%esi
   1bb7e:	89 c7                	mov    %eax,%edi
   1bb80:	e8 70 18 ff ff       	callq  d3f5 <safe_mul_func_int16_t_s_s>
   1bb85:	0f bf d0             	movswl %ax,%edx
   1bb88:	48 83 bd 90 f9 ff ff 	cmpq   $0x0,-0x670(%rbp)
   1bb8f:	00 
   1bb90:	0f 94 c0             	sete   %al
   1bb93:	0f b6 c0             	movzbl %al,%eax
   1bb96:	89 d6                	mov    %edx,%esi
   1bb98:	89 c7                	mov    %eax,%edi
   1bb9a:	e8 96 17 ff ff       	callq  d335 <safe_rshift_func_int8_t_s_s>
   1bb9f:	66 44 0f be f8       	movsbw %al,%r15w
   1bba4:	66 83 bd 4c f9 ff ff 	cmpw   $0x0,-0x6b4(%rbp)
   1bbab:	00 
   1bbac:	75 5f                	jne    1bc0d <func_22+0x911>
   1bbae:	66 0f be 85 53 f9 ff 	movsbw -0x6ad(%rbp),%ax
   1bbb5:	ff 
   1bbb6:	44 0f b7 f0          	movzwl %ax,%r14d
   1bbba:	8b 85 58 f9 ff ff    	mov    -0x6a8(%rbp),%eax
   1bbc0:	98                   	cwtl   
   1bbc1:	89 c6                	mov    %eax,%esi
   1bbc3:	bf 01 00 00 00       	mov    $0x1,%edi
   1bbc8:	e8 e6 17 ff ff       	callq  d3b3 <safe_add_func_int16_t_s_s>
   1bbcd:	66 85 c0             	test   %ax,%ax
   1bbd0:	75 0a                	jne    1bbdc <func_22+0x8e0>
   1bbd2:	66 83 bd 4c f9 ff ff 	cmpw   $0x0,-0x6b4(%rbp)
   1bbd9:	00 
   1bbda:	74 07                	je     1bbe3 <func_22+0x8e7>
   1bbdc:	b8 01 00 00 00       	mov    $0x1,%eax
   1bbe1:	eb 05                	jmp    1bbe8 <func_22+0x8ec>
   1bbe3:	b8 00 00 00 00       	mov    $0x0,%eax
   1bbe8:	48 63 d0             	movslq %eax,%rdx
   1bbeb:	48 8b 05 66 ee 00 00 	mov    0xee66(%rip),%rax        # 2aa58 <g_396>
   1bbf2:	48 8b 00             	mov    (%rax),%rax
   1bbf5:	48 39 c2             	cmp    %rax,%rdx
   1bbf8:	0f 9f c0             	setg   %al
   1bbfb:	0f b6 c0             	movzbl %al,%eax
   1bbfe:	44 89 f6             	mov    %r14d,%esi
   1bc01:	89 c7                	mov    %eax,%edi
   1bc03:	e8 35 21 ff ff       	callq  dd3d <safe_mul_func_uint16_t_u_u>
   1bc08:	66 85 c0             	test   %ax,%ax
   1bc0b:	74 07                	je     1bc14 <func_22+0x918>
   1bc0d:	b8 01 00 00 00       	mov    $0x1,%eax
   1bc12:	eb 05                	jmp    1bc19 <func_22+0x91d>
   1bc14:	b8 00 00 00 00       	mov    $0x0,%eax
   1bc19:	0f bf d0             	movswl %ax,%edx
   1bc1c:	0f be 85 53 f9 ff ff 	movsbl -0x6ad(%rbp),%eax
   1bc23:	89 d6                	mov    %edx,%esi
   1bc25:	89 c7                	mov    %eax,%edi
   1bc27:	e8 c9 17 ff ff       	callq  d3f5 <safe_mul_func_int16_t_s_s>
   1bc2c:	66 41 39 c7          	cmp    %ax,%r15w
   1bc30:	0f 9e c0             	setle  %al
   1bc33:	0f b6 c0             	movzbl %al,%eax
   1bc36:	48 be c7 f4 e1 40 ab 	movabs $0xec4b0ab40e1f4c7,%rsi
   1bc3d:	b0 c4 0e 
   1bc40:	48 89 c7             	mov    %rax,%rdi
   1bc43:	e8 af 1d ff ff       	callq  d9f7 <safe_div_func_int64_t_s_s>
   1bc48:	48 be 0c a4 a2 cb e9 	movabs $0x260902e9cba2a40c,%rsi
   1bc4f:	02 09 26 
   1bc52:	48 89 c7             	mov    %rax,%rdi
   1bc55:	e8 9d 1d ff ff       	callq  d9f7 <safe_div_func_int64_t_s_s>
   1bc5a:	98                   	cwtl   
   1bc5b:	44 89 ee             	mov    %r13d,%esi
   1bc5e:	89 c7                	mov    %eax,%edi
   1bc60:	e8 4e 17 ff ff       	callq  d3b3 <safe_add_func_int16_t_s_s>
   1bc65:	0f b7 c0             	movzwl %ax,%eax
   1bc68:	44 89 e6             	mov    %r12d,%esi
   1bc6b:	89 c7                	mov    %eax,%edi
   1bc6d:	e8 ad 20 ff ff       	callq  dd1f <safe_sub_func_uint16_t_u_u>
   1bc72:	0f b7 c0             	movzwl %ax,%eax
   1bc75:	23 85 5c f9 ff ff    	and    -0x6a4(%rbp),%eax
   1bc7b:	8b 15 2b b4 00 00    	mov    0xb42b(%rip),%edx        # 270ac <g_178>
   1bc81:	39 d0                	cmp    %edx,%eax
   1bc83:	0f 92 c0             	setb   %al
   1bc86:	0f b6 c0             	movzbl %al,%eax
   1bc89:	39 85 5c f9 ff ff    	cmp    %eax,-0x6a4(%rbp)
   1bc8f:	0f 97 c0             	seta   %al
   1bc92:	0f b6 c0             	movzbl %al,%eax
   1bc95:	89 de                	mov    %ebx,%esi
   1bc97:	89 c7                	mov    %eax,%edi
   1bc99:	e8 57 17 ff ff       	callq  d3f5 <safe_mul_func_int16_t_s_s>
   1bc9e:	0f be 95 53 f9 ff ff 	movsbl -0x6ad(%rbp),%edx
   1bca5:	8b 85 54 f9 ff ff    	mov    -0x6ac(%rbp),%eax
   1bcab:	39 c2                	cmp    %eax,%edx
   1bcad:	0f 95 c0             	setne  %al
   1bcb0:	0f b6 c0             	movzbl %al,%eax
   1bcb3:	be 0b 00 00 00       	mov    $0xb,%esi
   1bcb8:	89 c7                	mov    %eax,%edi
   1bcba:	e8 89 21 ff ff       	callq  de48 <safe_rshift_func_uint16_t_u_s>
   1bcbf:	66 0f be 85 52 f9 ff 	movsbw -0x6ae(%rbp),%ax
   1bcc6:	ff 
   1bcc7:	0f b7 f0             	movzwl %ax,%esi
   1bcca:	0f b7 85 4c f9 ff ff 	movzwl -0x6b4(%rbp),%eax
   1bcd1:	48 8b 8d 98 f9 ff ff 	mov    -0x668(%rbp),%rcx
   1bcd8:	48 8b 95 b0 f9 ff ff 	mov    -0x650(%rbp),%rdx
   1bcdf:	89 c7                	mov    %eax,%edi
   1bce1:	e8 8c 04 00 00       	callq  1c172 <func_30>
   1bce6:	48 8b 95 b8 f9 ff ff 	mov    -0x648(%rbp),%rdx
   1bced:	48 89 02             	mov    %rax,(%rdx)
   1bcf0:	8b 85 88 fa ff ff    	mov    -0x578(%rbp),%eax
   1bcf6:	0d b7 98 d3 0c       	or     $0xcd398b7,%eax
   1bcfb:	89 85 88 fa ff ff    	mov    %eax,-0x578(%rbp)
   1bd01:	8b 05 e5 b3 00 00    	mov    0xb3e5(%rip),%eax        # 270ec <g_484>
   1bd07:	83 c0 01             	add    $0x1,%eax
   1bd0a:	89 05 dc b3 00 00    	mov    %eax,0xb3dc(%rip)        # 270ec <g_484>
   1bd10:	8b 05 d6 b3 00 00    	mov    0xb3d6(%rip),%eax        # 270ec <g_484>
   1bd16:	83 f8 02             	cmp    $0x2,%eax
   1bd19:	0f 86 0b fb ff ff    	jbe    1b82a <func_22+0x52e>
   1bd1f:	8b 05 43 b4 00 00    	mov    0xb443(%rip),%eax        # 27168 <g_2257>
   1bd25:	83 e8 01             	sub    $0x1,%eax
   1bd28:	89 05 3a b4 00 00    	mov    %eax,0xb43a(%rip)        # 27168 <g_2257>
   1bd2e:	8b 05 34 b4 00 00    	mov    0xb434(%rip),%eax        # 27168 <g_2257>
   1bd34:	85 c0                	test   %eax,%eax
   1bd36:	0f 89 b9 fa ff ff    	jns    1b7f5 <func_22+0x4f9>
   1bd3c:	0f be 85 52 f9 ff ff 	movsbl -0x6ae(%rbp),%eax
   1bd43:	eb 2c                	jmp    1bd71 <func_22+0xa75>
   1bd45:	48 8d 85 54 f9 ff ff 	lea    -0x6ac(%rbp),%rax
   1bd4c:	48 89 85 f0 f9 ff ff 	mov    %rax,-0x610(%rbp)
   1bd53:	48 8b 85 f0 f9 ff ff 	mov    -0x610(%rbp),%rax
   1bd5a:	48 89 85 88 f9 ff ff 	mov    %rax,-0x678(%rbp)
   1bd61:	0f b7 85 4c f9 ff ff 	movzwl -0x6b4(%rbp),%eax
   1bd68:	eb 07                	jmp    1bd71 <func_22+0xa75>
   1bd6a:	0f b7 85 4c f9 ff ff 	movzwl -0x6b4(%rbp),%eax
   1bd71:	48 8b 5d c8          	mov    -0x38(%rbp),%rbx
   1bd75:	64 48 33 1c 25 28 00 	xor    %fs:0x28,%rbx
   1bd7c:	00 00 
   1bd7e:	74 05                	je     1bd85 <func_22+0xa89>
   1bd80:	e8 eb 12 ff ff       	callq  d070 <__stack_chk_fail@plt>
   1bd85:	48 81 c4 98 06 00 00 	add    $0x698,%rsp
   1bd8c:	5b                   	pop    %rbx
   1bd8d:	41 5c                	pop    %r12
   1bd8f:	41 5d                	pop    %r13
   1bd91:	41 5e                	pop    %r14
   1bd93:	41 5f                	pop    %r15
   1bd95:	5d                   	pop    %rbp
   1bd96:	c3                   	retq   

000000000001bd97 <func_26>:
   1bd97:	f3 0f 1e fa          	endbr64 
   1bd9b:	55                   	push   %rbp
   1bd9c:	48 89 e5             	mov    %rsp,%rbp
   1bd9f:	41 54                	push   %r12
   1bda1:	53                   	push   %rbx
   1bda2:	48 81 ec 60 01 00 00 	sub    $0x160,%rsp
   1bda9:	48 89 bd a8 fe ff ff 	mov    %rdi,-0x158(%rbp)
   1bdb0:	89 b5 a4 fe ff ff    	mov    %esi,-0x15c(%rbp)
   1bdb6:	48 89 95 98 fe ff ff 	mov    %rdx,-0x168(%rbp)
   1bdbd:	64 48 8b 04 25 28 00 	mov    %fs:0x28,%rax
   1bdc4:	00 00 
   1bdc6:	48 89 45 e8          	mov    %rax,-0x18(%rbp)
   1bdca:	31 c0                	xor    %eax,%eax
   1bdcc:	66 c7 85 00 ff ff ff 	movw   $0x18a1,-0x100(%rbp)
   1bdd3:	a1 18 
   1bdd5:	66 c7 85 02 ff ff ff 	movw   $0x18a1,-0xfe(%rbp)
   1bddc:	a1 18 
   1bdde:	66 c7 85 04 ff ff ff 	movw   $0xffff,-0xfc(%rbp)
   1bde5:	ff ff 
   1bde7:	66 c7 85 06 ff ff ff 	movw   $0x5231,-0xfa(%rbp)
   1bdee:	31 52 
   1bdf0:	66 c7 85 08 ff ff ff 	movw   $0xffff,-0xf8(%rbp)
   1bdf7:	ff ff 
   1bdf9:	66 c7 85 0a ff ff ff 	movw   $0x18a1,-0xf6(%rbp)
   1be00:	a1 18 
   1be02:	66 c7 85 0c ff ff ff 	movw   $0x18a1,-0xf4(%rbp)
   1be09:	a1 18 
   1be0b:	66 c7 85 0e ff ff ff 	movw   $0xffff,-0xf2(%rbp)
   1be12:	ff ff 
   1be14:	66 c7 85 10 ff ff ff 	movw   $0x5231,-0xf0(%rbp)
   1be1b:	31 52 
   1be1d:	66 c7 85 12 ff ff ff 	movw   $0xffff,-0xee(%rbp)
   1be24:	ff ff 
   1be26:	48 b8 f7 3d 45 c6 0b 	movabs $0xace2120bc6453df7,%rax
   1be2d:	12 e2 ac 
   1be30:	48 89 85 c8 fe ff ff 	mov    %rax,-0x138(%rbp)
   1be37:	c7 85 70 ff ff ff f7 	movl   $0xfffffff7,-0x90(%rbp)
   1be3e:	ff ff ff 
   1be41:	c7 85 74 ff ff ff ad 	movl   $0xb433f0ad,-0x8c(%rbp)
   1be48:	f0 33 b4 
   1be4b:	c7 85 78 ff ff ff 04 	movl   $0x3becb004,-0x88(%rbp)
   1be52:	b0 ec 3b 
   1be55:	c7 85 7c ff ff ff 09 	movl   $0x9,-0x84(%rbp)
   1be5c:	00 00 00 
   1be5f:	c7 45 80 ff ff ff ff 	movl   $0xffffffff,-0x80(%rbp)
   1be66:	c7 45 84 ff ff ff ff 	movl   $0xffffffff,-0x7c(%rbp)
   1be6d:	c7 45 88 09 00 00 00 	movl   $0x9,-0x78(%rbp)
   1be74:	c7 45 8c 04 b0 ec 3b 	movl   $0x3becb004,-0x74(%rbp)
   1be7b:	c7 45 90 ad f0 33 b4 	movl   $0xb433f0ad,-0x70(%rbp)
   1be82:	c7 45 94 f7 ff ff ff 	movl   $0xfffffff7,-0x6c(%rbp)
   1be89:	c7 45 98 00 00 00 00 	movl   $0x0,-0x68(%rbp)
   1be90:	c7 45 9c 06 00 00 00 	movl   $0x6,-0x64(%rbp)
   1be97:	c7 45 a0 00 00 00 00 	movl   $0x0,-0x60(%rbp)
   1be9e:	c7 45 a4 f7 ff ff ff 	movl   $0xfffffff7,-0x5c(%rbp)
   1bea5:	c7 45 a8 ad f0 33 b4 	movl   $0xb433f0ad,-0x58(%rbp)
   1beac:	c7 45 ac 04 b0 ec 3b 	movl   $0x3becb004,-0x54(%rbp)
   1beb3:	c7 45 b0 09 00 00 00 	movl   $0x9,-0x50(%rbp)
   1beba:	c7 45 b4 ff ff ff ff 	movl   $0xffffffff,-0x4c(%rbp)
   1bec1:	c7 45 b8 ff ff ff ff 	movl   $0xffffffff,-0x48(%rbp)
   1bec8:	c7 45 bc 09 00 00 00 	movl   $0x9,-0x44(%rbp)
   1becf:	c7 45 c0 04 b0 ec 3b 	movl   $0x3becb004,-0x40(%rbp)
   1bed6:	c7 45 c4 ad f0 33 b4 	movl   $0xb433f0ad,-0x3c(%rbp)
   1bedd:	c7 45 c8 f7 ff ff ff 	movl   $0xfffffff7,-0x38(%rbp)
   1bee4:	c7 45 cc 00 00 00 00 	movl   $0x0,-0x34(%rbp)
   1beeb:	c7 45 d0 06 00 00 00 	movl   $0x6,-0x30(%rbp)
   1bef2:	c7 45 d4 00 00 00 00 	movl   $0x0,-0x2c(%rbp)
   1bef9:	c7 45 d8 f7 ff ff ff 	movl   $0xfffffff7,-0x28(%rbp)
   1bf00:	48 c7 05 35 b2 00 00 	movq   $0x0,0xb235(%rip)        # 27140 <g_1126>
   1bf07:	00 00 00 00 
   1bf0b:	e9 23 02 00 00       	jmpq   1c133 <func_26+0x39c>
   1bf10:	48 8d 05 69 b1 00 00 	lea    0xb169(%rip),%rax        # 27080 <g_107>
   1bf17:	48 89 85 d0 fe ff ff 	mov    %rax,-0x130(%rbp)
   1bf1e:	48 c7 85 d8 fe ff ff 	movq   $0x0,-0x128(%rbp)
   1bf25:	00 00 00 00 
   1bf29:	48 8d 05 cc b1 00 00 	lea    0xb1cc(%rip),%rax        # 270fc <g_695>
   1bf30:	48 89 85 e0 fe ff ff 	mov    %rax,-0x120(%rbp)
   1bf37:	48 8d 05 6c b1 00 00 	lea    0xb16c(%rip),%rax        # 270aa <g_177>
   1bf3e:	48 89 85 e8 fe ff ff 	mov    %rax,-0x118(%rbp)
   1bf45:	48 c7 85 f0 fe ff ff 	movq   $0x0,-0x110(%rbp)
   1bf4c:	00 00 00 00 
   1bf50:	48 8d 05 61 eb 00 00 	lea    0xeb61(%rip),%rax        # 2aab8 <g_1205>
   1bf57:	48 89 85 c0 fe ff ff 	mov    %rax,-0x140(%rbp)
   1bf5e:	48 c7 85 40 ff ff ff 	movq   $0x0,-0xc0(%rbp)
   1bf65:	00 00 00 00 
   1bf69:	48 c7 85 48 ff ff ff 	movq   $0x0,-0xb8(%rbp)
   1bf70:	00 00 00 00 
   1bf74:	48 c7 85 50 ff ff ff 	movq   $0x0,-0xb0(%rbp)
   1bf7b:	00 00 00 00 
   1bf7f:	48 c7 85 58 ff ff ff 	movq   $0x0,-0xa8(%rbp)
   1bf86:	00 00 00 00 
   1bf8a:	48 c7 85 60 ff ff ff 	movq   $0x0,-0xa0(%rbp)
   1bf91:	00 00 00 00 
   1bf95:	48 c7 85 68 ff ff ff 	movq   $0x0,-0x98(%rbp)
   1bf9c:	00 00 00 00 
   1bfa0:	48 8d 05 f5 b0 00 00 	lea    0xb0f5(%rip),%rax        # 2709c <g_135>
   1bfa7:	48 89 85 f8 fe ff ff 	mov    %rax,-0x108(%rbp)
   1bfae:	c7 85 bc fe ff ff 00 	movl   $0x0,-0x144(%rbp)
   1bfb5:	00 00 00 
   1bfb8:	eb 1b                	jmp    1bfd5 <func_26+0x23e>
   1bfba:	8b 85 bc fe ff ff    	mov    -0x144(%rbp),%eax
   1bfc0:	48 98                	cltq   
   1bfc2:	48 c7 84 c5 20 ff ff 	movq   $0x0,-0xe0(%rbp,%rax,8)
   1bfc9:	ff 00 00 00 00 
   1bfce:	83 85 bc fe ff ff 01 	addl   $0x1,-0x144(%rbp)
   1bfd5:	83 bd bc fe ff ff 02 	cmpl   $0x2,-0x144(%rbp)
   1bfdc:	7e dc                	jle    1bfba <func_26+0x223>
   1bfde:	48 8b 85 98 fe ff ff 	mov    -0x168(%rbp),%rax
   1bfe5:	8b 10                	mov    (%rax),%edx
   1bfe7:	48 83 bd d0 fe ff ff 	cmpq   $0x0,-0x130(%rbp)
   1bfee:	00 
   1bfef:	0f 94 c0             	sete   %al
   1bff2:	0f b6 c0             	movzbl %al,%eax
   1bff5:	09 c2                	or     %eax,%edx
   1bff7:	48 8b 85 98 fe ff ff 	mov    -0x168(%rbp),%rax
   1bffe:	89 10                	mov    %edx,(%rax)
   1c000:	0f b7 85 02 ff ff ff 	movzwl -0xfe(%rbp),%eax
   1c007:	83 e0 04             	and    $0x4,%eax
   1c00a:	66 89 85 02 ff ff ff 	mov    %ax,-0xfe(%rbp)
   1c011:	48 8b 05 68 b0 00 00 	mov    0xb068(%rip),%rax        # 27080 <g_107>
   1c018:	0f b6 d0             	movzbl %al,%edx
   1c01b:	0f b7 85 10 ff ff ff 	movzwl -0xf0(%rbp),%eax
   1c022:	89 c1                	mov    %eax,%ecx
   1c024:	48 8b 85 e0 fe ff ff 	mov    -0x120(%rbp),%rax
   1c02b:	88 08                	mov    %cl,(%rax)
   1c02d:	48 8b 85 e0 fe ff ff 	mov    -0x120(%rbp),%rax
   1c034:	0f b6 00             	movzbl (%rax),%eax
   1c037:	0f b6 c0             	movzbl %al,%eax
   1c03a:	89 d6                	mov    %edx,%esi
   1c03c:	89 c7                	mov    %eax,%edi
   1c03e:	e8 17 1b ff ff       	callq  db5a <safe_add_func_uint8_t_u_u>
   1c043:	0f b6 d0             	movzbl %al,%edx
   1c046:	48 8b 85 e8 fe ff ff 	mov    -0x118(%rbp),%rax
   1c04d:	66 89 10             	mov    %dx,(%rax)
   1c050:	48 83 bd f0 fe ff ff 	cmpq   $0x0,-0x110(%rbp)
   1c057:	00 
   1c058:	0f 94 c0             	sete   %al
   1c05b:	0f b6 d8             	movzbl %al,%ebx
   1c05e:	48 8b 85 c8 fe ff ff 	mov    -0x138(%rbp),%rax
   1c065:	41 89 c4             	mov    %eax,%r12d
   1c068:	48 8b 05 31 b0 00 00 	mov    0xb031(%rip),%rax        # 270a0 <g_150>
   1c06f:	89 c2                	mov    %eax,%edx
   1c071:	8b 05 d9 b0 00 00    	mov    0xb0d9(%rip),%eax        # 27150 <g_1573>
   1c077:	83 bd a4 fe ff ff 00 	cmpl   $0x0,-0x15c(%rbp)
   1c07e:	74 07                	je     1c087 <func_26+0x2f0>
   1c080:	b8 01 00 00 00       	mov    $0x1,%eax
   1c085:	eb 05                	jmp    1c08c <func_26+0x2f5>
   1c087:	b8 00 00 00 00       	mov    $0x0,%eax
   1c08c:	98                   	cwtl   
   1c08d:	89 d6                	mov    %edx,%esi
   1c08f:	89 c7                	mov    %eax,%edi
   1c091:	e8 cd 14 ff ff       	callq  d563 <safe_rshift_func_int16_t_s_u>
   1c096:	0f b7 85 02 ff ff ff 	movzwl -0xfe(%rbp),%eax
   1c09d:	98                   	cwtl   
   1c09e:	be 00 00 00 00       	mov    $0x0,%esi
   1c0a3:	89 c7                	mov    %eax,%edi
   1c0a5:	e8 37 14 ff ff       	callq  d4e1 <safe_lshift_func_int16_t_s_u>
   1c0aa:	48 8b 95 48 ff ff ff 	mov    -0xb8(%rbp),%rdx
   1c0b1:	48 8d 85 c0 fe ff ff 	lea    -0x140(%rbp),%rax
   1c0b8:	48 39 c2             	cmp    %rax,%rdx
   1c0bb:	0f 94 c0             	sete   %al
   1c0be:	0f b6 c0             	movzbl %al,%eax
   1c0c1:	44 89 e6             	mov    %r12d,%esi
   1c0c4:	89 c7                	mov    %eax,%edi
   1c0c6:	e8 6a 12 ff ff       	callq  d335 <safe_rshift_func_int8_t_s_s>
   1c0cb:	0f be d0             	movsbl %al,%edx
   1c0ce:	48 8b 85 98 fe ff ff 	mov    -0x168(%rbp),%rax
   1c0d5:	89 10                	mov    %edx,(%rax)
   1c0d7:	48 8b 85 98 fe ff ff 	mov    -0x168(%rbp),%rax
   1c0de:	8b 00                	mov    (%rax),%eax
   1c0e0:	39 c3                	cmp    %eax,%ebx
   1c0e2:	0f 9e c0             	setle  %al
   1c0e5:	0f b6 d0             	movzbl %al,%edx
   1c0e8:	48 8b 85 f8 fe ff ff 	mov    -0x108(%rbp),%rax
   1c0ef:	0f b6 00             	movzbl (%rax),%eax
   1c0f2:	21 c2                	and    %eax,%edx
   1c0f4:	48 8b 85 f8 fe ff ff 	mov    -0x108(%rbp),%rax
   1c0fb:	88 10                	mov    %dl,(%rax)
   1c0fd:	48 8b 85 f8 fe ff ff 	mov    -0x108(%rbp),%rax
   1c104:	0f b6 00             	movzbl (%rax),%eax
   1c107:	0f be c0             	movsbl %al,%eax
   1c10a:	23 85 a4 fe ff ff    	and    -0x15c(%rbp),%eax
   1c110:	89 45 a0             	mov    %eax,-0x60(%rbp)
   1c113:	48 8b 05 26 b0 00 00 	mov    0xb026(%rip),%rax        # 27140 <g_1126>
   1c11a:	0f b7 c0             	movzwl %ax,%eax
   1c11d:	be 06 00 00 00       	mov    $0x6,%esi
   1c122:	89 c7                	mov    %eax,%edi
   1c124:	e8 d6 1b ff ff       	callq  dcff <safe_add_func_uint16_t_u_u>
   1c129:	0f b7 c0             	movzwl %ax,%eax
   1c12c:	48 89 05 0d b0 00 00 	mov    %rax,0xb00d(%rip)        # 27140 <g_1126>
   1c133:	48 8b 05 06 b0 00 00 	mov    0xb006(%rip),%rax        # 27140 <g_1126>
   1c13a:	48 83 f8 1e          	cmp    $0x1e,%rax
   1c13e:	0f 87 cc fd ff ff    	ja     1bf10 <func_26+0x179>
   1c144:	c7 45 c4 0a 59 64 6b 	movl   $0x6b64590a,-0x3c(%rbp)
   1c14b:	48 8b 85 98 fe ff ff 	mov    -0x168(%rbp),%rax
   1c152:	48 8b 4d e8          	mov    -0x18(%rbp),%rcx
   1c156:	64 48 33 0c 25 28 00 	xor    %fs:0x28,%rcx
   1c15d:	00 00 
   1c15f:	74 05                	je     1c166 <func_26+0x3cf>
   1c161:	e8 0a 0f ff ff       	callq  d070 <__stack_chk_fail@plt>
   1c166:	48 81 c4 60 01 00 00 	add    $0x160,%rsp
   1c16d:	5b                   	pop    %rbx
   1c16e:	41 5c                	pop    %r12
   1c170:	5d                   	pop    %rbp
   1c171:	c3                   	retq   

000000000001c172 <func_30>:
   1c172:	f3 0f 1e fa          	endbr64 
   1c176:	55                   	push   %rbp
   1c177:	48 89 e5             	mov    %rsp,%rbp
   1c17a:	41 55                	push   %r13
   1c17c:	41 54                	push   %r12
   1c17e:	53                   	push   %rbx
   1c17f:	48 83 ec 68          	sub    $0x68,%rsp
   1c183:	89 7d 9c             	mov    %edi,-0x64(%rbp)
   1c186:	89 f0                	mov    %esi,%eax
   1c188:	48 89 55 90          	mov    %rdx,-0x70(%rbp)
   1c18c:	48 89 4d 88          	mov    %rcx,-0x78(%rbp)
   1c190:	66 89 45 98          	mov    %ax,-0x68(%rbp)
   1c194:	64 48 8b 04 25 28 00 	mov    %fs:0x28,%rax
   1c19b:	00 00 
   1c19d:	48 89 45 d8          	mov    %rax,-0x28(%rbp)
   1c1a1:	31 c0                	xor    %eax,%eax
   1c1a3:	48 b8 0a 23 3a 8e 5f 	movabs $0x7f67255f8e3a230a,%rax
   1c1aa:	25 67 7f 
   1c1ad:	48 89 45 b0          	mov    %rax,-0x50(%rbp)
   1c1b1:	c6 05 e4 ae 00 00 08 	movb   $0x8,0xaee4(%rip)        # 2709c <g_135>
   1c1b8:	e9 40 01 00 00       	jmpq   1c2fd <func_30+0x18b>
   1c1bd:	48 c7 45 a8 00 00 00 	movq   $0x0,-0x58(%rbp)
   1c1c4:	00 
   1c1c5:	48 8d 45 a8          	lea    -0x58(%rbp),%rax
   1c1c9:	48 89 45 b8          	mov    %rax,-0x48(%rbp)
   1c1cd:	48 8d 05 38 af 00 00 	lea    0xaf38(%rip),%rax        # 2710c <g_818>
   1c1d4:	48 89 45 c0          	mov    %rax,-0x40(%rbp)
   1c1d8:	c7 45 a4 06 00 00 00 	movl   $0x6,-0x5c(%rbp)
   1c1df:	48 8d 05 10 af 00 00 	lea    0xaf10(%rip),%rax        # 270f6 <g_620>
   1c1e6:	48 89 45 c8          	mov    %rax,-0x38(%rbp)
   1c1ea:	48 8d 05 bb ae 00 00 	lea    0xaebb(%rip),%rax        # 270ac <g_178>
   1c1f1:	48 89 45 d0          	mov    %rax,-0x30(%rbp)
   1c1f5:	8b 45 9c             	mov    -0x64(%rbp),%eax
   1c1f8:	0f bf d8             	movswl %ax,%ebx
   1c1fb:	48 8b 45 90          	mov    -0x70(%rbp),%rax
   1c1ff:	44 8b 20             	mov    (%rax),%r12d
   1c202:	48 8b 45 b0          	mov    -0x50(%rbp),%rax
   1c206:	44 0f b6 e8          	movzbl %al,%r13d
   1c20a:	8b 45 a4             	mov    -0x5c(%rbp),%eax
   1c20d:	98                   	cwtl   
   1c20e:	89 c6                	mov    %eax,%esi
   1c210:	bf e1 16 00 00       	mov    $0x16e1,%edi
   1c215:	e8 db 11 ff ff       	callq  d3f5 <safe_mul_func_int16_t_s_s>
   1c21a:	0f b6 c0             	movzbl %al,%eax
   1c21d:	44 89 ee             	mov    %r13d,%esi
   1c220:	89 c7                	mov    %eax,%edi
   1c222:	e8 33 19 ff ff       	callq  db5a <safe_add_func_uint8_t_u_u>
   1c227:	0f be c0             	movsbl %al,%eax
   1c22a:	be 00 00 00 00       	mov    $0x0,%esi
   1c22f:	89 c7                	mov    %eax,%edi
   1c231:	e8 6b 10 ff ff       	callq  d2a1 <safe_lshift_func_int8_t_s_s>
   1c236:	0f be c0             	movsbl %al,%eax
   1c239:	44 89 e6             	mov    %r12d,%esi
   1c23c:	89 c7                	mov    %eax,%edi
   1c23e:	e8 bc 14 ff ff       	callq  d6ff <safe_div_func_int32_t_s_s>
   1c243:	35 f8 ff 00 00       	xor    $0xfff8,%eax
   1c248:	89 c2                	mov    %eax,%edx
   1c24a:	8b 45 a4             	mov    -0x5c(%rbp),%eax
   1c24d:	39 c2                	cmp    %eax,%edx
   1c24f:	0f 96 c0             	setbe  %al
   1c252:	0f b6 c0             	movzbl %al,%eax
   1c255:	89 de                	mov    %ebx,%esi
   1c257:	89 c7                	mov    %eax,%edi
   1c259:	e8 f7 11 ff ff       	callq  d455 <safe_div_func_int16_t_s_s>
   1c25e:	0f b6 c0             	movzbl %al,%eax
   1c261:	be 03 00 00 00       	mov    $0x3,%esi
   1c266:	89 c7                	mov    %eax,%edi
   1c268:	e8 98 19 ff ff       	callq  dc05 <safe_lshift_func_uint8_t_u_s>
   1c26d:	0f b7 4d 98          	movzwl -0x68(%rbp),%ecx
   1c271:	48 8b 05 20 e8 00 00 	mov    0xe820(%rip),%rax        # 2aa98 <g_855>
   1c278:	48 8b 00             	mov    (%rax),%rax
   1c27b:	48 39 45 c0          	cmp    %rax,-0x40(%rbp)
   1c27f:	0f 94 c0             	sete   %al
   1c282:	0f b6 d0             	movzbl %al,%edx
   1c285:	48 8b 45 c8          	mov    -0x38(%rbp),%rax
   1c289:	0f b7 00             	movzwl (%rax),%eax
   1c28c:	21 c1                	and    %eax,%ecx
   1c28e:	48 8b 45 c8          	mov    -0x38(%rbp),%rax
   1c292:	66 89 08             	mov    %cx,(%rax)
   1c295:	48 8b 45 c8          	mov    -0x38(%rbp),%rax
   1c299:	0f b7 00             	movzwl (%rax),%eax
   1c29c:	0f b7 c0             	movzwl %ax,%eax
   1c29f:	39 c2                	cmp    %eax,%edx
   1c2a1:	66 83 7d 98 00       	cmpw   $0x0,-0x68(%rbp)
   1c2a6:	74 0e                	je     1c2b6 <func_30+0x144>
   1c2a8:	48 83 7d b8 00       	cmpq   $0x0,-0x48(%rbp)
   1c2ad:	74 07                	je     1c2b6 <func_30+0x144>
   1c2af:	b8 01 00 00 00       	mov    $0x1,%eax
   1c2b4:	eb 05                	jmp    1c2bb <func_30+0x149>
   1c2b6:	b8 00 00 00 00       	mov    $0x0,%eax
   1c2bb:	89 c3                	mov    %eax,%ebx
   1c2bd:	83 e3 01             	and    $0x1,%ebx
   1c2c0:	48 c7 c6 fe ff ff ff 	mov    $0xfffffffffffffffe,%rsi
   1c2c7:	48 c7 c7 f8 ff ff ff 	mov    $0xfffffffffffffff8,%rdi
   1c2ce:	e8 78 1d ff ff       	callq  e04b <safe_sub_func_uint64_t_u_u>
   1c2d3:	48 83 f8 01          	cmp    $0x1,%rax
   1c2d7:	0f 96 c0             	setbe  %al
   1c2da:	31 d8                	xor    %ebx,%eax
   1c2dc:	0f b6 d0             	movzbl %al,%edx
   1c2df:	48 8b 45 d0          	mov    -0x30(%rbp),%rax
   1c2e3:	8b 00                	mov    (%rax),%eax
   1c2e5:	09 c2                	or     %eax,%edx
   1c2e7:	48 8b 45 d0          	mov    -0x30(%rbp),%rax
   1c2eb:	89 10                	mov    %edx,(%rax)
   1c2ed:	0f b6 05 a8 ad 00 00 	movzbl 0xada8(%rip),%eax        # 2709c <g_135>
   1c2f4:	83 e8 01             	sub    $0x1,%eax
   1c2f7:	88 05 9f ad 00 00    	mov    %al,0xad9f(%rip)        # 2709c <g_135>
   1c2fd:	0f b6 05 98 ad 00 00 	movzbl 0xad98(%rip),%eax        # 2709c <g_135>
   1c304:	84 c0                	test   %al,%al
   1c306:	0f 89 b1 fe ff ff    	jns    1c1bd <func_30+0x4b>
   1c30c:	48 8b 45 90          	mov    -0x70(%rbp),%rax
   1c310:	48 8b 4d d8          	mov    -0x28(%rbp),%rcx
   1c314:	64 48 33 0c 25 28 00 	xor    %fs:0x28,%rcx
   1c31b:	00 00 
   1c31d:	74 05                	je     1c324 <func_30+0x1b2>
   1c31f:	e8 4c 0d ff ff       	callq  d070 <__stack_chk_fail@plt>
   1c324:	48 83 c4 68          	add    $0x68,%rsp
   1c328:	5b                   	pop    %rbx
   1c329:	41 5c                	pop    %r12
   1c32b:	41 5d                	pop    %r13
   1c32d:	5d                   	pop    %rbp
   1c32e:	c3                   	retq   

000000000001c32f <func_41>:
   1c32f:	f3 0f 1e fa          	endbr64 
   1c333:	55                   	push   %rbp
   1c334:	48 89 e5             	mov    %rsp,%rbp
   1c337:	53                   	push   %rbx
   1c338:	48 81 ec d8 0e 00 00 	sub    $0xed8,%rsp
   1c33f:	89 f8                	mov    %edi,%eax
   1c341:	89 b5 28 f1 ff ff    	mov    %esi,-0xed8(%rbp)
   1c347:	66 89 85 2c f1 ff ff 	mov    %ax,-0xed4(%rbp)
   1c34e:	89 d0                	mov    %edx,%eax
   1c350:	88 85 24 f1 ff ff    	mov    %al,-0xedc(%rbp)
   1c356:	64 48 8b 04 25 28 00 	mov    %fs:0x28,%rax
   1c35d:	00 00 
   1c35f:	48 89 45 e8          	mov    %rax,-0x18(%rbp)
   1c363:	31 c0                	xor    %eax,%eax
   1c365:	66 c7 85 46 f1 ff ff 	movw   $0x9c5a,-0xeba(%rbp)
   1c36c:	5a 9c 
   1c36e:	48 8d 05 ef ac 00 00 	lea    0xacef(%rip),%rax        # 27064 <g_50>
   1c375:	48 89 85 f0 f1 ff ff 	mov    %rax,-0xe10(%rbp)
   1c37c:	48 8d 05 bd e6 00 00 	lea    0xe6bd(%rip),%rax        # 2aa40 <g_49>
   1c383:	48 89 85 a8 f1 ff ff 	mov    %rax,-0xe58(%rbp)
   1c38a:	48 8d 85 d0 f2 ff ff 	lea    -0xd30(%rbp),%rax
   1c391:	48 83 c0 10          	add    $0x10,%rax
   1c395:	48 89 85 b0 f1 ff ff 	mov    %rax,-0xe50(%rbp)
   1c39c:	48 8d 85 b0 f1 ff ff 	lea    -0xe50(%rbp),%rax
   1c3a3:	48 89 85 f8 f1 ff ff 	mov    %rax,-0xe08(%rbp)
   1c3aa:	48 c7 85 b8 f1 ff ff 	movq   $0x0,-0xe48(%rbp)
   1c3b1:	00 00 00 00 
   1c3b5:	48 8d 85 b8 f1 ff ff 	lea    -0xe48(%rbp),%rax
   1c3bc:	48 89 85 60 f3 ff ff 	mov    %rax,-0xca0(%rbp)
   1c3c3:	48 8d 85 b8 f1 ff ff 	lea    -0xe48(%rbp),%rax
   1c3ca:	48 89 85 68 f3 ff ff 	mov    %rax,-0xc98(%rbp)
   1c3d1:	48 8d 85 b8 f1 ff ff 	lea    -0xe48(%rbp),%rax
   1c3d8:	48 89 85 70 f3 ff ff 	mov    %rax,-0xc90(%rbp)
   1c3df:	48 8d 85 b8 f1 ff ff 	lea    -0xe48(%rbp),%rax
   1c3e6:	48 89 85 78 f3 ff ff 	mov    %rax,-0xc88(%rbp)
   1c3ed:	48 8d 85 b8 f1 ff ff 	lea    -0xe48(%rbp),%rax
   1c3f4:	48 89 85 80 f3 ff ff 	mov    %rax,-0xc80(%rbp)
   1c3fb:	48 8d 85 b8 f1 ff ff 	lea    -0xe48(%rbp),%rax
   1c402:	48 89 85 88 f3 ff ff 	mov    %rax,-0xc78(%rbp)
   1c409:	48 8d 85 b8 f1 ff ff 	lea    -0xe48(%rbp),%rax
   1c410:	48 89 85 90 f3 ff ff 	mov    %rax,-0xc70(%rbp)
   1c417:	48 8d 85 b8 f1 ff ff 	lea    -0xe48(%rbp),%rax
   1c41e:	48 89 85 98 f3 ff ff 	mov    %rax,-0xc68(%rbp)
   1c425:	48 8d 05 4c ac 00 00 	lea    0xac4c(%rip),%rax        # 27078 <g_105>
   1c42c:	48 89 85 e8 f1 ff ff 	mov    %rax,-0xe18(%rbp)
   1c433:	66 c7 85 42 f1 ff ff 	movw   $0xe671,-0xebe(%rbp)
   1c43a:	71 e6 
   1c43c:	48 8d 05 15 e6 00 00 	lea    0xe615(%rip),%rax        # 2aa58 <g_396>
   1c443:	48 89 85 c0 f1 ff ff 	mov    %rax,-0xe40(%rbp)
   1c44a:	48 8d 85 c0 f1 ff ff 	lea    -0xe40(%rbp),%rax
   1c451:	48 89 85 f0 f2 ff ff 	mov    %rax,-0xd10(%rbp)
   1c458:	48 8d 85 c0 f1 ff ff 	lea    -0xe40(%rbp),%rax
   1c45f:	48 89 85 f8 f2 ff ff 	mov    %rax,-0xd08(%rbp)
   1c466:	48 8d 85 c0 f1 ff ff 	lea    -0xe40(%rbp),%rax
   1c46d:	48 89 85 00 f3 ff ff 	mov    %rax,-0xd00(%rbp)
   1c474:	48 8d 85 c0 f1 ff ff 	lea    -0xe40(%rbp),%rax
   1c47b:	48 89 85 08 f3 ff ff 	mov    %rax,-0xcf8(%rbp)
   1c482:	48 8d 85 c0 f1 ff ff 	lea    -0xe40(%rbp),%rax
   1c489:	48 89 85 10 f3 ff ff 	mov    %rax,-0xcf0(%rbp)
   1c490:	48 8d 85 c0 f1 ff ff 	lea    -0xe40(%rbp),%rax
   1c497:	48 89 85 18 f3 ff ff 	mov    %rax,-0xce8(%rbp)
   1c49e:	c7 85 4c f1 ff ff 00 	movl   $0x0,-0xeb4(%rbp)
   1c4a5:	00 00 00 
   1c4a8:	c7 85 50 f1 ff ff 8c 	movl   $0x53c00c8c,-0xeb0(%rbp)
   1c4af:	0c c0 53 
   1c4b2:	c7 85 54 f1 ff ff 01 	movl   $0x1,-0xeac(%rbp)
   1c4b9:	00 00 00 
   1c4bc:	48 8d 05 75 01 01 00 	lea    0x10175(%rip),%rax        # 2c638 <g_1043>
   1c4c3:	48 89 85 e0 f1 ff ff 	mov    %rax,-0xe20(%rbp)
   1c4ca:	48 8d 85 e0 f3 ff ff 	lea    -0xc20(%rbp),%rax
   1c4d1:	48 83 c0 20          	add    $0x20,%rax
   1c4d5:	48 89 85 00 f2 ff ff 	mov    %rax,-0xe00(%rbp)
   1c4dc:	66 c7 85 44 f1 ff ff 	movw   $0x3,-0xebc(%rbp)
   1c4e3:	03 00 
   1c4e5:	48 b8 1d d0 79 c3 c0 	movabs $0x5c12fcc0c379d01d,%rax
   1c4ec:	fc 12 5c 
   1c4ef:	48 89 85 08 f2 ff ff 	mov    %rax,-0xdf8(%rbp)
   1c4f6:	48 c7 85 c8 f1 ff ff 	movq   $0x0,-0xe38(%rbp)
   1c4fd:	00 00 00 00 
   1c501:	48 8d 85 c8 f1 ff ff 	lea    -0xe38(%rbp),%rax
   1c508:	48 89 85 10 f2 ff ff 	mov    %rax,-0xdf0(%rbp)
   1c50f:	48 c7 85 18 f2 ff ff 	movq   $0x0,-0xde8(%rbp)
   1c516:	00 00 00 00 
   1c51a:	66 c7 85 48 f1 ff ff 	movw   $0x7,-0xeb8(%rbp)
   1c521:	07 00 
   1c523:	48 8d 05 d4 ab 00 00 	lea    0xabd4(%rip),%rax        # 270fe <g_695+0x2>
   1c52a:	48 89 85 20 f2 ff ff 	mov    %rax,-0xde0(%rbp)
   1c531:	48 8d 85 c8 f1 ff ff 	lea    -0xe38(%rbp),%rax
   1c538:	48 89 85 80 f4 ff ff 	mov    %rax,-0xb80(%rbp)
   1c53f:	48 8d 85 c8 f1 ff ff 	lea    -0xe38(%rbp),%rax
   1c546:	48 89 85 88 f4 ff ff 	mov    %rax,-0xb78(%rbp)
   1c54d:	48 8d 85 c8 f1 ff ff 	lea    -0xe38(%rbp),%rax
   1c554:	48 89 85 90 f4 ff ff 	mov    %rax,-0xb70(%rbp)
   1c55b:	48 8d 85 c8 f1 ff ff 	lea    -0xe38(%rbp),%rax
   1c562:	48 89 85 98 f4 ff ff 	mov    %rax,-0xb68(%rbp)
   1c569:	48 8d 85 c8 f1 ff ff 	lea    -0xe38(%rbp),%rax
   1c570:	48 89 85 a0 f4 ff ff 	mov    %rax,-0xb60(%rbp)
   1c577:	48 8d 85 c8 f1 ff ff 	lea    -0xe38(%rbp),%rax
   1c57e:	48 89 85 a8 f4 ff ff 	mov    %rax,-0xb58(%rbp)
   1c585:	48 8d 85 c8 f1 ff ff 	lea    -0xe38(%rbp),%rax
   1c58c:	48 89 85 b0 f4 ff ff 	mov    %rax,-0xb50(%rbp)
   1c593:	48 8d 85 c8 f1 ff ff 	lea    -0xe38(%rbp),%rax
   1c59a:	48 89 85 b8 f4 ff ff 	mov    %rax,-0xb48(%rbp)
   1c5a1:	48 8d 85 c8 f1 ff ff 	lea    -0xe38(%rbp),%rax
   1c5a8:	48 89 85 c0 f4 ff ff 	mov    %rax,-0xb40(%rbp)
   1c5af:	48 8d 85 c8 f1 ff ff 	lea    -0xe38(%rbp),%rax
   1c5b6:	48 89 85 c8 f4 ff ff 	mov    %rax,-0xb38(%rbp)
   1c5bd:	48 8d 85 c8 f1 ff ff 	lea    -0xe38(%rbp),%rax
   1c5c4:	48 89 85 d0 f4 ff ff 	mov    %rax,-0xb30(%rbp)
   1c5cb:	48 8d 85 c8 f1 ff ff 	lea    -0xe38(%rbp),%rax
   1c5d2:	48 89 85 d8 f4 ff ff 	mov    %rax,-0xb28(%rbp)
   1c5d9:	48 8d 85 c8 f1 ff ff 	lea    -0xe38(%rbp),%rax
   1c5e0:	48 89 85 e0 f4 ff ff 	mov    %rax,-0xb20(%rbp)
   1c5e7:	48 8d 85 c8 f1 ff ff 	lea    -0xe38(%rbp),%rax
   1c5ee:	48 89 85 e8 f4 ff ff 	mov    %rax,-0xb18(%rbp)
   1c5f5:	48 8d 85 c8 f1 ff ff 	lea    -0xe38(%rbp),%rax
   1c5fc:	48 89 85 f0 f4 ff ff 	mov    %rax,-0xb10(%rbp)
   1c603:	48 8d 85 80 f4 ff ff 	lea    -0xb80(%rbp),%rax
   1c60a:	48 83 c0 68          	add    $0x68,%rax
   1c60e:	48 89 85 28 f2 ff ff 	mov    %rax,-0xdd8(%rbp)
   1c615:	c7 85 68 f1 ff ff fd 	movl   $0xfffffffd,-0xe98(%rbp)
   1c61c:	ff ff ff 
   1c61f:	c7 85 58 f1 ff ff 00 	movl   $0x0,-0xea8(%rbp)
   1c626:	00 00 00 
   1c629:	eb 45                	jmp    1c670 <func_41+0x341>
   1c62b:	c7 85 5c f1 ff ff 00 	movl   $0x0,-0xea4(%rbp)
   1c632:	00 00 00 
   1c635:	eb 29                	jmp    1c660 <func_41+0x331>
   1c637:	8b 85 5c f1 ff ff    	mov    -0xea4(%rbp),%eax
   1c63d:	48 98                	cltq   
   1c63f:	8b 95 58 f1 ff ff    	mov    -0xea8(%rbp),%edx
   1c645:	48 63 d2             	movslq %edx,%rdx
   1c648:	48 01 d2             	add    %rdx,%rdx
   1c64b:	48 01 d0             	add    %rdx,%rax
   1c64e:	c7 84 85 d0 f2 ff ff 	movl   $0x6a337f03,-0xd30(%rbp,%rax,4)
   1c655:	03 7f 33 6a 
   1c659:	83 85 5c f1 ff ff 01 	addl   $0x1,-0xea4(%rbp)
   1c660:	83 bd 5c f1 ff ff 01 	cmpl   $0x1,-0xea4(%rbp)
   1c667:	7e ce                	jle    1c637 <func_41+0x308>
   1c669:	83 85 58 f1 ff ff 01 	addl   $0x1,-0xea8(%rbp)
   1c670:	83 bd 58 f1 ff ff 03 	cmpl   $0x3,-0xea8(%rbp)
   1c677:	7e b2                	jle    1c62b <func_41+0x2fc>
   1c679:	c7 85 58 f1 ff ff 00 	movl   $0x0,-0xea8(%rbp)
   1c680:	00 00 00 
   1c683:	eb 1e                	jmp    1c6a3 <func_41+0x374>
   1c685:	8b 85 58 f1 ff ff    	mov    -0xea8(%rbp),%eax
   1c68b:	48 98                	cltq   
   1c68d:	48 8d 15 3c ff 00 00 	lea    0xff3c(%rip),%rdx        # 2c5d0 <g_201+0x10>
   1c694:	48 89 94 c5 e0 f3 ff 	mov    %rdx,-0xc20(%rbp,%rax,8)
   1c69b:	ff 
   1c69c:	83 85 58 f1 ff ff 01 	addl   $0x1,-0xea8(%rbp)
   1c6a3:	83 bd 58 f1 ff ff 08 	cmpl   $0x8,-0xea8(%rbp)
   1c6aa:	7e d9                	jle    1c685 <func_41+0x356>
   1c6ac:	c6 85 3d f1 ff ff fb 	movb   $0xfb,-0xec3(%rbp)
   1c6b3:	f6 95 3d f1 ff ff    	notb   -0xec3(%rbp)
   1c6b9:	48 8d 85 d0 f2 ff ff 	lea    -0xd30(%rbp),%rax
   1c6c0:	48 8d 50 04          	lea    0x4(%rax),%rdx
   1c6c4:	48 8d 85 d0 f2 ff ff 	lea    -0xd30(%rbp),%rax
   1c6cb:	48 83 c0 08          	add    $0x8,%rax
   1c6cf:	48 89 d6             	mov    %rdx,%rsi
   1c6d2:	48 89 c7             	mov    %rax,%rdi
   1c6d5:	e8 bc 12 00 00       	callq  1d996 <func_45>
   1c6da:	48 89 85 e8 f1 ff ff 	mov    %rax,-0xe18(%rbp)
   1c6e1:	48 8b 85 a8 f1 ff ff 	mov    -0xe58(%rbp),%rax
   1c6e8:	48 c7 00 00 00 00 00 	movq   $0x0,(%rax)
   1c6ef:	48 8b 10             	mov    (%rax),%rdx
   1c6f2:	48 8b 85 f8 f1 ff ff 	mov    -0xe08(%rbp),%rax
   1c6f9:	48 89 10             	mov    %rdx,(%rax)
   1c6fc:	48 8b 85 f8 f1 ff ff 	mov    -0xe08(%rbp),%rax
   1c703:	48 8b 00             	mov    (%rax),%rax
   1c706:	48 8d 95 d0 f2 ff ff 	lea    -0xd30(%rbp),%rdx
   1c70d:	48 83 c2 10          	add    $0x10,%rdx
   1c711:	48 89 d6             	mov    %rdx,%rsi
   1c714:	48 89 c7             	mov    %rax,%rdi
   1c717:	e8 7a 12 00 00       	callq  1d996 <func_45>
   1c71c:	48 89 c2             	mov    %rax,%rdx
   1c71f:	48 8b 9d a8 f1 ff ff 	mov    -0xe58(%rbp),%rbx
   1c726:	48 8b 85 e8 f1 ff ff 	mov    -0xe18(%rbp),%rax
   1c72d:	48 89 c6             	mov    %rax,%rsi
   1c730:	48 89 d7             	mov    %rdx,%rdi
   1c733:	e8 5e 12 00 00       	callq  1d996 <func_45>
   1c738:	48 89 03             	mov    %rax,(%rbx)
   1c73b:	48 c7 05 42 a9 00 00 	movq   $0x0,0xa942(%rip)        # 27088 <g_127>
   1c742:	00 00 00 00 
   1c746:	e9 7e 03 00 00       	jmpq   1cac9 <func_41+0x79a>
   1c74b:	c7 85 7c f1 ff ff 00 	movl   $0x0,-0xe84(%rbp)
   1c752:	00 00 00 
   1c755:	c7 85 80 f1 ff ff 53 	movl   $0x6d7f6853,-0xe80(%rbp)
   1c75c:	68 7f 6d 
   1c75f:	48 8d 85 a8 f1 ff ff 	lea    -0xe58(%rbp),%rax
   1c766:	48 89 85 68 f2 ff ff 	mov    %rax,-0xd98(%rbp)
   1c76d:	c7 85 84 f1 ff ff 03 	movl   $0x3,-0xe7c(%rbp)
   1c774:	00 00 00 
   1c777:	48 c7 85 70 f2 ff ff 	movq   $0xfffffffffffffff9,-0xd90(%rbp)
   1c77e:	f9 ff ff ff 
   1c782:	48 b8 ff ff 01 00 04 	movabs $0x401040001ffff,%rax
   1c789:	01 04 00 
   1c78c:	48 89 85 20 f3 ff ff 	mov    %rax,-0xce0(%rbp)
   1c793:	66 c7 85 28 f3 ff ff 	movw   $0xff01,-0xcd8(%rbp)
   1c79a:	01 ff 
   1c79c:	48 b8 04 8f 00 04 24 	movabs $0x4242404008f04,%rax
   1c7a3:	24 04 00 
   1c7a6:	48 89 85 2a f3 ff ff 	mov    %rax,-0xcd6(%rbp)
   1c7ad:	66 c7 85 32 f3 ff ff 	movw   $0x48f,-0xcce(%rbp)
   1c7b4:	8f 04 
   1c7b6:	48 b8 00 ff 8f 24 ff 	movabs $0xff8f24ff248fff00,%rax
   1c7bd:	24 8f ff 
   1c7c0:	48 89 85 34 f3 ff ff 	mov    %rax,-0xccc(%rbp)
   1c7c7:	66 c7 85 3c f3 ff ff 	movw   $0x0,-0xcc4(%rbp)
   1c7ce:	00 00 
   1c7d0:	48 b8 04 00 01 ff ff 	movabs $0x40001ffff010004,%rax
   1c7d7:	01 00 04 
   1c7da:	48 89 85 3e f3 ff ff 	mov    %rax,-0xcc2(%rbp)
   1c7e1:	66 c7 85 46 f3 ff ff 	movw   $0x401,-0xcba(%rbp)
   1c7e8:	01 04 
   1c7ea:	48 b8 ff 8f 24 ff 24 	movabs $0xff8f24ff248fff,%rax
   1c7f1:	8f ff 00 
   1c7f4:	48 89 85 48 f3 ff ff 	mov    %rax,-0xcb8(%rbp)
   1c7fb:	66 c7 85 50 f3 ff ff 	movw   $0xff00,-0xcb0(%rbp)
   1c802:	00 ff 
   1c804:	48 b8 00 04 24 24 04 	movabs $0x48f000424240400,%rax
   1c80b:	00 8f 04 
   1c80e:	48 89 85 52 f3 ff ff 	mov    %rax,-0xcae(%rbp)
   1c815:	66 c7 85 5a f3 ff ff 	movw   $0x8f,-0xca6(%rbp)
   1c81c:	8f 00 
   1c81e:	48 8d 05 8b e2 00 00 	lea    0xe28b(%rip),%rax        # 2aab0 <g_1206>
   1c825:	48 89 85 78 f2 ff ff 	mov    %rax,-0xd88(%rbp)
   1c82c:	48 c7 85 80 f2 ff ff 	movq   $0x0,-0xd80(%rbp)
   1c833:	00 00 00 00 
   1c837:	66 c7 85 4a f1 ff ff 	movw   $0xffff,-0xeb6(%rbp)
   1c83e:	ff ff 
   1c840:	48 8d 05 a9 a8 00 00 	lea    0xa8a9(%rip),%rax        # 270f0 <g_515>
   1c847:	48 89 85 88 f2 ff ff 	mov    %rax,-0xd78(%rbp)
   1c84e:	c7 85 88 f1 ff ff bf 	movl   $0x51113bbf,-0xe78(%rbp)
   1c855:	3b 11 51 
   1c858:	c7 85 8c f1 ff ff 07 	movl   $0x7,-0xe74(%rbp)
   1c85f:	00 00 00 
   1c862:	c7 85 90 f1 ff ff ff 	movl   $0xffffffff,-0xe70(%rbp)
   1c869:	ff ff ff 
   1c86c:	c7 85 94 f1 ff ff 01 	movl   $0x1,-0xe6c(%rbp)
   1c873:	00 00 00 
   1c876:	c7 85 98 f1 ff ff fc 	movl   $0xfffffffc,-0xe68(%rbp)
   1c87d:	ff ff ff 
   1c880:	66 c7 05 1f a8 00 00 	movw   $0x0,0xa81f(%rip)        # 270a8 <g_174>
   1c887:	00 00 
   1c889:	e9 fd 01 00 00       	jmpq   1ca8b <func_41+0x75c>
   1c88e:	48 b8 5d 0f ef 53 a3 	movabs $0xe0996ca353ef0f5d,%rax
   1c895:	6c 99 e0 
   1c898:	48 89 85 90 f2 ff ff 	mov    %rax,-0xd70(%rbp)
   1c89f:	48 8d 05 b2 47 00 00 	lea    0x47b2(%rip),%rax        # 21058 <g_1227>
   1c8a6:	48 89 85 98 f2 ff ff 	mov    %rax,-0xd68(%rbp)
   1c8ad:	c7 85 9c f1 ff ff 03 	movl   $0x3,-0xe64(%rbp)
   1c8b4:	00 00 00 
   1c8b7:	48 c7 85 a0 f3 ff ff 	movq   $0x1,-0xc60(%rbp)
   1c8be:	01 00 00 00 
   1c8c2:	48 c7 85 a8 f3 ff ff 	movq   $0x1,-0xc58(%rbp)
   1c8c9:	01 00 00 00 
   1c8cd:	48 c7 85 b0 f3 ff ff 	movq   $0x1,-0xc50(%rbp)
   1c8d4:	01 00 00 00 
   1c8d8:	48 c7 85 b8 f3 ff ff 	movq   $0x1,-0xc48(%rbp)
   1c8df:	01 00 00 00 
   1c8e3:	48 c7 85 c0 f3 ff ff 	movq   $0x1,-0xc40(%rbp)
   1c8ea:	01 00 00 00 
   1c8ee:	48 c7 85 c8 f3 ff ff 	movq   $0x1,-0xc38(%rbp)
   1c8f5:	01 00 00 00 
   1c8f9:	48 c7 85 d0 f3 ff ff 	movq   $0x1,-0xc30(%rbp)
   1c900:	01 00 00 00 
   1c904:	48 c7 85 d8 f3 ff ff 	movq   $0x1,-0xc28(%rbp)
   1c90b:	01 00 00 00 
   1c90f:	48 8d 85 60 f8 ff ff 	lea    -0x7a0(%rbp),%rax
   1c916:	48 8d 15 e3 d1 00 00 	lea    0xd1e3(%rip),%rdx        # 29b00 <g_4462+0x2840>
   1c91d:	b9 d8 00 00 00       	mov    $0xd8,%ecx
   1c922:	48 89 c7             	mov    %rax,%rdi
   1c925:	48 89 d6             	mov    %rdx,%rsi
   1c928:	f3 48 a5             	rep movsq %ds:(%rsi),%es:(%rdi)
   1c92b:	48 8d 85 60 f8 ff ff 	lea    -0x7a0(%rbp),%rax
   1c932:	48 05 28 06 00 00    	add    $0x628,%rax
   1c938:	48 89 85 a0 f2 ff ff 	mov    %rax,-0xd60(%rbp)
   1c93f:	48 8d 05 5a e1 00 00 	lea    0xe15a(%rip),%rax        # 2aaa0 <g_935>
   1c946:	48 89 85 a8 f2 ff ff 	mov    %rax,-0xd58(%rbp)
   1c94d:	48 8d 85 d0 f2 ff ff 	lea    -0xd30(%rbp),%rax
   1c954:	48 83 c0 0c          	add    $0xc,%rax
   1c958:	48 89 85 00 f5 ff ff 	mov    %rax,-0xb00(%rbp)
   1c95f:	48 8d 85 d0 f2 ff ff 	lea    -0xd30(%rbp),%rax
   1c966:	48 83 c0 0c          	add    $0xc,%rax
   1c96a:	48 89 85 08 f5 ff ff 	mov    %rax,-0xaf8(%rbp)
   1c971:	48 8d 85 d0 f2 ff ff 	lea    -0xd30(%rbp),%rax
   1c978:	48 83 c0 0c          	add    $0xc,%rax
   1c97c:	48 89 85 10 f5 ff ff 	mov    %rax,-0xaf0(%rbp)
   1c983:	48 8d 85 d0 f2 ff ff 	lea    -0xd30(%rbp),%rax
   1c98a:	48 83 c0 0c          	add    $0xc,%rax
   1c98e:	48 89 85 18 f5 ff ff 	mov    %rax,-0xae8(%rbp)
   1c995:	48 8d 85 d0 f2 ff ff 	lea    -0xd30(%rbp),%rax
   1c99c:	48 83 c0 0c          	add    $0xc,%rax
   1c9a0:	48 89 85 20 f5 ff ff 	mov    %rax,-0xae0(%rbp)
   1c9a7:	48 8d 85 d0 f2 ff ff 	lea    -0xd30(%rbp),%rax
   1c9ae:	48 83 c0 0c          	add    $0xc,%rax
   1c9b2:	48 89 85 28 f5 ff ff 	mov    %rax,-0xad8(%rbp)
   1c9b9:	48 8d 85 d0 f2 ff ff 	lea    -0xd30(%rbp),%rax
   1c9c0:	48 83 c0 0c          	add    $0xc,%rax
   1c9c4:	48 89 85 30 f5 ff ff 	mov    %rax,-0xad0(%rbp)
   1c9cb:	48 8d 85 d0 f2 ff ff 	lea    -0xd30(%rbp),%rax
   1c9d2:	48 83 c0 0c          	add    $0xc,%rax
   1c9d6:	48 89 85 38 f5 ff ff 	mov    %rax,-0xac8(%rbp)
   1c9dd:	48 8d 85 d0 f2 ff ff 	lea    -0xd30(%rbp),%rax
   1c9e4:	48 83 c0 0c          	add    $0xc,%rax
   1c9e8:	48 89 85 40 f5 ff ff 	mov    %rax,-0xac0(%rbp)
   1c9ef:	48 8d 85 d0 f2 ff ff 	lea    -0xd30(%rbp),%rax
   1c9f6:	48 83 c0 0c          	add    $0xc,%rax
   1c9fa:	48 89 85 48 f5 ff ff 	mov    %rax,-0xab8(%rbp)
   1ca01:	c7 85 a0 f1 ff ff 00 	movl   $0x0,-0xe60(%rbp)
   1ca08:	00 00 00 
   1ca0b:	c7 85 a4 f1 ff ff 42 	movl   $0x4dcd0942,-0xe5c(%rbp)
   1ca12:	09 cd 4d 
   1ca15:	c7 85 b0 f2 ff ff 3e 	movl   $0xae45bc3e,-0xd50(%rbp)
   1ca1c:	bc 45 ae 
   1ca1f:	c7 85 b4 f2 ff ff 3e 	movl   $0xae45bc3e,-0xd4c(%rbp)
   1ca26:	bc 45 ae 
   1ca29:	c7 85 b8 f2 ff ff 3e 	movl   $0xae45bc3e,-0xd48(%rbp)
   1ca30:	bc 45 ae 
   1ca33:	c7 85 bc f2 ff ff 3e 	movl   $0xae45bc3e,-0xd44(%rbp)
   1ca3a:	bc 45 ae 
   1ca3d:	c7 85 c0 f2 ff ff 3e 	movl   $0xae45bc3e,-0xd40(%rbp)
   1ca44:	bc 45 ae 
   1ca47:	c7 85 60 f1 ff ff 00 	movl   $0x0,-0xea0(%rbp)
   1ca4e:	00 00 00 
   1ca51:	eb 1e                	jmp    1ca71 <func_41+0x742>
   1ca53:	8b 85 60 f1 ff ff    	mov    -0xea0(%rbp),%eax
   1ca59:	48 98                	cltq   
   1ca5b:	48 8d 15 fe 45 00 00 	lea    0x45fe(%rip),%rdx        # 21060 <g_1678>
   1ca62:	48 89 94 c5 30 f4 ff 	mov    %rdx,-0xbd0(%rbp,%rax,8)
   1ca69:	ff 
   1ca6a:	83 85 60 f1 ff ff 01 	addl   $0x1,-0xea0(%rbp)
   1ca71:	83 bd 60 f1 ff ff 08 	cmpl   $0x8,-0xea0(%rbp)
   1ca78:	7e d9                	jle    1ca53 <func_41+0x724>
   1ca7a:	0f b7 05 27 a6 00 00 	movzwl 0xa627(%rip),%eax        # 270a8 <g_174>
   1ca81:	83 c0 01             	add    $0x1,%eax
   1ca84:	66 89 05 1d a6 00 00 	mov    %ax,0xa61d(%rip)        # 270a8 <g_174>
   1ca8b:	0f b7 05 16 a6 00 00 	movzwl 0xa616(%rip),%eax        # 270a8 <g_174>
   1ca92:	66 83 f8 04          	cmp    $0x4,%ax
   1ca96:	0f 84 f2 fd ff ff    	je     1c88e <func_41+0x55f>
   1ca9c:	0f b7 85 44 f1 ff ff 	movzwl -0xebc(%rbp),%eax
   1caa3:	83 c0 01             	add    $0x1,%eax
   1caa6:	66 89 85 44 f1 ff ff 	mov    %ax,-0xebc(%rbp)
   1caad:	48 8b 05 d4 a5 00 00 	mov    0xa5d4(%rip),%rax        # 27088 <g_127>
   1cab4:	be 02 00 00 00       	mov    $0x2,%esi
   1cab9:	89 c7                	mov    %eax,%edi
   1cabb:	e8 45 0b ff ff       	callq  d605 <safe_sub_func_int32_t_s_s>
   1cac0:	48 98                	cltq   
   1cac2:	48 89 05 bf a5 00 00 	mov    %rax,0xa5bf(%rip)        # 27088 <g_127>
   1cac9:	48 8b 05 b8 a5 00 00 	mov    0xa5b8(%rip),%rax        # 27088 <g_127>
   1cad0:	48 83 f8 e5          	cmp    $0xffffffffffffffe5,%rax
   1cad4:	0f 8d 71 fc ff ff    	jge    1c74b <func_41+0x41c>
   1cada:	c7 05 0c a6 00 00 00 	movl   $0x0,0xa60c(%rip)        # 270f0 <g_515>
   1cae1:	00 00 00 
   1cae4:	e9 76 0e 00 00       	jmpq   1d95f <func_41+0x1630>
   1cae9:	66 c7 85 40 f1 ff ff 	movw   $0x2,-0xec0(%rbp)
   1caf0:	02 00 
   1caf2:	48 c7 85 30 f2 ff ff 	movq   $0x3,-0xdd0(%rbp)
   1caf9:	03 00 00 00 
   1cafd:	48 8d 85 40 f1 ff ff 	lea    -0xec0(%rbp),%rax
   1cb04:	48 89 85 d0 f1 ff ff 	mov    %rax,-0xe30(%rbp)
   1cb0b:	48 8d 85 d0 f1 ff ff 	lea    -0xe30(%rbp),%rax
   1cb12:	48 89 85 60 f8 ff ff 	mov    %rax,-0x7a0(%rbp)
   1cb19:	48 8d 85 d0 f1 ff ff 	lea    -0xe30(%rbp),%rax
   1cb20:	48 89 85 68 f8 ff ff 	mov    %rax,-0x798(%rbp)
   1cb27:	48 8d 85 d0 f1 ff ff 	lea    -0xe30(%rbp),%rax
   1cb2e:	48 89 85 70 f8 ff ff 	mov    %rax,-0x790(%rbp)
   1cb35:	48 8d 85 d0 f1 ff ff 	lea    -0xe30(%rbp),%rax
   1cb3c:	48 89 85 78 f8 ff ff 	mov    %rax,-0x788(%rbp)
   1cb43:	48 8d 85 d0 f1 ff ff 	lea    -0xe30(%rbp),%rax
   1cb4a:	48 89 85 80 f8 ff ff 	mov    %rax,-0x780(%rbp)
   1cb51:	48 8d 85 d0 f1 ff ff 	lea    -0xe30(%rbp),%rax
   1cb58:	48 89 85 88 f8 ff ff 	mov    %rax,-0x778(%rbp)
   1cb5f:	48 8d 85 d0 f1 ff ff 	lea    -0xe30(%rbp),%rax
   1cb66:	48 89 85 90 f8 ff ff 	mov    %rax,-0x770(%rbp)
   1cb6d:	48 8d 85 d0 f1 ff ff 	lea    -0xe30(%rbp),%rax
   1cb74:	48 89 85 98 f8 ff ff 	mov    %rax,-0x768(%rbp)
   1cb7b:	48 8d 85 d0 f1 ff ff 	lea    -0xe30(%rbp),%rax
   1cb82:	48 89 85 a0 f8 ff ff 	mov    %rax,-0x760(%rbp)
   1cb89:	48 8d 85 d0 f1 ff ff 	lea    -0xe30(%rbp),%rax
   1cb90:	48 89 85 a8 f8 ff ff 	mov    %rax,-0x758(%rbp)
   1cb97:	48 8d 85 d0 f1 ff ff 	lea    -0xe30(%rbp),%rax
   1cb9e:	48 89 85 b0 f8 ff ff 	mov    %rax,-0x750(%rbp)
   1cba5:	48 8d 85 d0 f1 ff ff 	lea    -0xe30(%rbp),%rax
   1cbac:	48 89 85 b8 f8 ff ff 	mov    %rax,-0x748(%rbp)
   1cbb3:	48 8d 85 d0 f1 ff ff 	lea    -0xe30(%rbp),%rax
   1cbba:	48 89 85 c0 f8 ff ff 	mov    %rax,-0x740(%rbp)
   1cbc1:	48 8d 85 d0 f1 ff ff 	lea    -0xe30(%rbp),%rax
   1cbc8:	48 89 85 c8 f8 ff ff 	mov    %rax,-0x738(%rbp)
   1cbcf:	48 8d 85 d0 f1 ff ff 	lea    -0xe30(%rbp),%rax
   1cbd6:	48 89 85 d0 f8 ff ff 	mov    %rax,-0x730(%rbp)
   1cbdd:	48 8d 85 d0 f1 ff ff 	lea    -0xe30(%rbp),%rax
   1cbe4:	48 89 85 d8 f8 ff ff 	mov    %rax,-0x728(%rbp)
   1cbeb:	48 8d 85 d0 f1 ff ff 	lea    -0xe30(%rbp),%rax
   1cbf2:	48 89 85 e0 f8 ff ff 	mov    %rax,-0x720(%rbp)
   1cbf9:	48 8d 85 d0 f1 ff ff 	lea    -0xe30(%rbp),%rax
   1cc00:	48 89 85 e8 f8 ff ff 	mov    %rax,-0x718(%rbp)
   1cc07:	48 c7 85 f0 f8 ff ff 	movq   $0x0,-0x710(%rbp)
   1cc0e:	00 00 00 00 
   1cc12:	48 8d 85 d0 f1 ff ff 	lea    -0xe30(%rbp),%rax
   1cc19:	48 89 85 f8 f8 ff ff 	mov    %rax,-0x708(%rbp)
   1cc20:	48 8d 85 d0 f1 ff ff 	lea    -0xe30(%rbp),%rax
   1cc27:	48 89 85 00 f9 ff ff 	mov    %rax,-0x700(%rbp)
   1cc2e:	48 8d 85 d0 f1 ff ff 	lea    -0xe30(%rbp),%rax
   1cc35:	48 89 85 08 f9 ff ff 	mov    %rax,-0x6f8(%rbp)
   1cc3c:	48 8d 85 d0 f1 ff ff 	lea    -0xe30(%rbp),%rax
   1cc43:	48 89 85 10 f9 ff ff 	mov    %rax,-0x6f0(%rbp)
   1cc4a:	48 8d 85 d0 f1 ff ff 	lea    -0xe30(%rbp),%rax
   1cc51:	48 89 85 18 f9 ff ff 	mov    %rax,-0x6e8(%rbp)
   1cc58:	48 8d 85 d0 f1 ff ff 	lea    -0xe30(%rbp),%rax
   1cc5f:	48 89 85 20 f9 ff ff 	mov    %rax,-0x6e0(%rbp)
   1cc66:	48 8d 85 d0 f1 ff ff 	lea    -0xe30(%rbp),%rax
   1cc6d:	48 89 85 28 f9 ff ff 	mov    %rax,-0x6d8(%rbp)
   1cc74:	48 8d 85 d0 f1 ff ff 	lea    -0xe30(%rbp),%rax
   1cc7b:	48 89 85 30 f9 ff ff 	mov    %rax,-0x6d0(%rbp)
   1cc82:	48 8d 85 d0 f1 ff ff 	lea    -0xe30(%rbp),%rax
   1cc89:	48 89 85 38 f9 ff ff 	mov    %rax,-0x6c8(%rbp)
   1cc90:	48 8d 85 d0 f1 ff ff 	lea    -0xe30(%rbp),%rax
   1cc97:	48 89 85 40 f9 ff ff 	mov    %rax,-0x6c0(%rbp)
   1cc9e:	48 8d 85 d0 f1 ff ff 	lea    -0xe30(%rbp),%rax
   1cca5:	48 89 85 48 f9 ff ff 	mov    %rax,-0x6b8(%rbp)
   1ccac:	48 8d 85 d0 f1 ff ff 	lea    -0xe30(%rbp),%rax
   1ccb3:	48 89 85 50 f9 ff ff 	mov    %rax,-0x6b0(%rbp)
   1ccba:	48 8d 85 d0 f1 ff ff 	lea    -0xe30(%rbp),%rax
   1ccc1:	48 89 85 58 f9 ff ff 	mov    %rax,-0x6a8(%rbp)
   1ccc8:	48 8d 85 d0 f1 ff ff 	lea    -0xe30(%rbp),%rax
   1cccf:	48 89 85 60 f9 ff ff 	mov    %rax,-0x6a0(%rbp)
   1ccd6:	48 8d 85 d0 f1 ff ff 	lea    -0xe30(%rbp),%rax
   1ccdd:	48 89 85 68 f9 ff ff 	mov    %rax,-0x698(%rbp)
   1cce4:	48 8d 85 d0 f1 ff ff 	lea    -0xe30(%rbp),%rax
   1cceb:	48 89 85 70 f9 ff ff 	mov    %rax,-0x690(%rbp)
   1ccf2:	48 8d 85 d0 f1 ff ff 	lea    -0xe30(%rbp),%rax
   1ccf9:	48 89 85 78 f9 ff ff 	mov    %rax,-0x688(%rbp)
   1cd00:	48 8d 85 d0 f1 ff ff 	lea    -0xe30(%rbp),%rax
   1cd07:	48 89 85 80 f9 ff ff 	mov    %rax,-0x680(%rbp)
   1cd0e:	48 8d 85 d0 f1 ff ff 	lea    -0xe30(%rbp),%rax
   1cd15:	48 89 85 88 f9 ff ff 	mov    %rax,-0x678(%rbp)
   1cd1c:	48 8d 85 d0 f1 ff ff 	lea    -0xe30(%rbp),%rax
   1cd23:	48 89 85 90 f9 ff ff 	mov    %rax,-0x670(%rbp)
   1cd2a:	48 8d 85 d0 f1 ff ff 	lea    -0xe30(%rbp),%rax
   1cd31:	48 89 85 98 f9 ff ff 	mov    %rax,-0x668(%rbp)
   1cd38:	48 8d 85 d0 f1 ff ff 	lea    -0xe30(%rbp),%rax
   1cd3f:	48 89 85 a0 f9 ff ff 	mov    %rax,-0x660(%rbp)
   1cd46:	48 8d 85 d0 f1 ff ff 	lea    -0xe30(%rbp),%rax
   1cd4d:	48 89 85 a8 f9 ff ff 	mov    %rax,-0x658(%rbp)
   1cd54:	48 c7 85 b0 f9 ff ff 	movq   $0x0,-0x650(%rbp)
   1cd5b:	00 00 00 00 
   1cd5f:	48 8d 85 d0 f1 ff ff 	lea    -0xe30(%rbp),%rax
   1cd66:	48 89 85 b8 f9 ff ff 	mov    %rax,-0x648(%rbp)
   1cd6d:	48 8d 85 d0 f1 ff ff 	lea    -0xe30(%rbp),%rax
   1cd74:	48 89 85 c0 f9 ff ff 	mov    %rax,-0x640(%rbp)
   1cd7b:	48 8d 85 d0 f1 ff ff 	lea    -0xe30(%rbp),%rax
   1cd82:	48 89 85 c8 f9 ff ff 	mov    %rax,-0x638(%rbp)
   1cd89:	48 8d 85 d0 f1 ff ff 	lea    -0xe30(%rbp),%rax
   1cd90:	48 89 85 d0 f9 ff ff 	mov    %rax,-0x630(%rbp)
   1cd97:	48 8d 85 d0 f1 ff ff 	lea    -0xe30(%rbp),%rax
   1cd9e:	48 89 85 d8 f9 ff ff 	mov    %rax,-0x628(%rbp)
   1cda5:	48 8d 85 d0 f1 ff ff 	lea    -0xe30(%rbp),%rax
   1cdac:	48 89 85 e0 f9 ff ff 	mov    %rax,-0x620(%rbp)
   1cdb3:	48 8d 85 d0 f1 ff ff 	lea    -0xe30(%rbp),%rax
   1cdba:	48 89 85 e8 f9 ff ff 	mov    %rax,-0x618(%rbp)
   1cdc1:	48 8d 85 d0 f1 ff ff 	lea    -0xe30(%rbp),%rax
   1cdc8:	48 89 85 f0 f9 ff ff 	mov    %rax,-0x610(%rbp)
   1cdcf:	48 8d 85 d0 f1 ff ff 	lea    -0xe30(%rbp),%rax
   1cdd6:	48 89 85 f8 f9 ff ff 	mov    %rax,-0x608(%rbp)
   1cddd:	48 8d 85 d0 f1 ff ff 	lea    -0xe30(%rbp),%rax
   1cde4:	48 89 85 00 fa ff ff 	mov    %rax,-0x600(%rbp)
   1cdeb:	48 8d 85 d0 f1 ff ff 	lea    -0xe30(%rbp),%rax
   1cdf2:	48 89 85 08 fa ff ff 	mov    %rax,-0x5f8(%rbp)
   1cdf9:	48 8d 85 d0 f1 ff ff 	lea    -0xe30(%rbp),%rax
   1ce00:	48 89 85 10 fa ff ff 	mov    %rax,-0x5f0(%rbp)
   1ce07:	48 8d 85 d0 f1 ff ff 	lea    -0xe30(%rbp),%rax
   1ce0e:	48 89 85 18 fa ff ff 	mov    %rax,-0x5e8(%rbp)
   1ce15:	48 8d 85 d0 f1 ff ff 	lea    -0xe30(%rbp),%rax
   1ce1c:	48 89 85 20 fa ff ff 	mov    %rax,-0x5e0(%rbp)
   1ce23:	48 8d 85 d0 f1 ff ff 	lea    -0xe30(%rbp),%rax
   1ce2a:	48 89 85 28 fa ff ff 	mov    %rax,-0x5d8(%rbp)
   1ce31:	48 8d 85 d0 f1 ff ff 	lea    -0xe30(%rbp),%rax
   1ce38:	48 89 85 30 fa ff ff 	mov    %rax,-0x5d0(%rbp)
   1ce3f:	48 8d 85 d0 f1 ff ff 	lea    -0xe30(%rbp),%rax
   1ce46:	48 89 85 38 fa ff ff 	mov    %rax,-0x5c8(%rbp)
   1ce4d:	48 8d 85 d0 f1 ff ff 	lea    -0xe30(%rbp),%rax
   1ce54:	48 89 85 40 fa ff ff 	mov    %rax,-0x5c0(%rbp)
   1ce5b:	48 8d 85 d0 f1 ff ff 	lea    -0xe30(%rbp),%rax
   1ce62:	48 89 85 48 fa ff ff 	mov    %rax,-0x5b8(%rbp)
   1ce69:	48 8d 85 d0 f1 ff ff 	lea    -0xe30(%rbp),%rax
   1ce70:	48 89 85 50 fa ff ff 	mov    %rax,-0x5b0(%rbp)
   1ce77:	48 8d 85 d0 f1 ff ff 	lea    -0xe30(%rbp),%rax
   1ce7e:	48 89 85 58 fa ff ff 	mov    %rax,-0x5a8(%rbp)
   1ce85:	48 8d 85 d0 f1 ff ff 	lea    -0xe30(%rbp),%rax
   1ce8c:	48 89 85 60 fa ff ff 	mov    %rax,-0x5a0(%rbp)
   1ce93:	48 8d 85 d0 f1 ff ff 	lea    -0xe30(%rbp),%rax
   1ce9a:	48 89 85 68 fa ff ff 	mov    %rax,-0x598(%rbp)
   1cea1:	48 c7 85 70 fa ff ff 	movq   $0x0,-0x590(%rbp)
   1cea8:	00 00 00 00 
   1ceac:	48 8d 85 d0 f1 ff ff 	lea    -0xe30(%rbp),%rax
   1ceb3:	48 89 85 78 fa ff ff 	mov    %rax,-0x588(%rbp)
   1ceba:	48 8d 85 d0 f1 ff ff 	lea    -0xe30(%rbp),%rax
   1cec1:	48 89 85 80 fa ff ff 	mov    %rax,-0x580(%rbp)
   1cec8:	48 8d 85 d0 f1 ff ff 	lea    -0xe30(%rbp),%rax
   1cecf:	48 89 85 88 fa ff ff 	mov    %rax,-0x578(%rbp)
   1ced6:	48 8d 85 d0 f1 ff ff 	lea    -0xe30(%rbp),%rax
   1cedd:	48 89 85 90 fa ff ff 	mov    %rax,-0x570(%rbp)
   1cee4:	48 8d 85 d0 f1 ff ff 	lea    -0xe30(%rbp),%rax
   1ceeb:	48 89 85 98 fa ff ff 	mov    %rax,-0x568(%rbp)
   1cef2:	48 8d 85 d0 f1 ff ff 	lea    -0xe30(%rbp),%rax
   1cef9:	48 89 85 a0 fa ff ff 	mov    %rax,-0x560(%rbp)
   1cf00:	48 8d 85 d0 f1 ff ff 	lea    -0xe30(%rbp),%rax
   1cf07:	48 89 85 a8 fa ff ff 	mov    %rax,-0x558(%rbp)
   1cf0e:	48 c7 85 b0 fa ff ff 	movq   $0x0,-0x550(%rbp)
   1cf15:	00 00 00 00 
   1cf19:	48 8d 85 d0 f1 ff ff 	lea    -0xe30(%rbp),%rax
   1cf20:	48 89 85 b8 fa ff ff 	mov    %rax,-0x548(%rbp)
   1cf27:	48 8d 85 d0 f1 ff ff 	lea    -0xe30(%rbp),%rax
   1cf2e:	48 89 85 c0 fa ff ff 	mov    %rax,-0x540(%rbp)
   1cf35:	48 8d 85 d0 f1 ff ff 	lea    -0xe30(%rbp),%rax
   1cf3c:	48 89 85 c8 fa ff ff 	mov    %rax,-0x538(%rbp)
   1cf43:	48 c7 85 d0 fa ff ff 	movq   $0x0,-0x530(%rbp)
   1cf4a:	00 00 00 00 
   1cf4e:	48 8d 85 d0 f1 ff ff 	lea    -0xe30(%rbp),%rax
   1cf55:	48 89 85 d8 fa ff ff 	mov    %rax,-0x528(%rbp)
   1cf5c:	48 8d 85 d0 f1 ff ff 	lea    -0xe30(%rbp),%rax
   1cf63:	48 89 85 e0 fa ff ff 	mov    %rax,-0x520(%rbp)
   1cf6a:	48 8d 85 d0 f1 ff ff 	lea    -0xe30(%rbp),%rax
   1cf71:	48 89 85 e8 fa ff ff 	mov    %rax,-0x518(%rbp)
   1cf78:	48 c7 85 f0 fa ff ff 	movq   $0x0,-0x510(%rbp)
   1cf7f:	00 00 00 00 
   1cf83:	48 8d 85 d0 f1 ff ff 	lea    -0xe30(%rbp),%rax
   1cf8a:	48 89 85 f8 fa ff ff 	mov    %rax,-0x508(%rbp)
   1cf91:	48 8d 85 d0 f1 ff ff 	lea    -0xe30(%rbp),%rax
   1cf98:	48 89 85 00 fb ff ff 	mov    %rax,-0x500(%rbp)
   1cf9f:	48 8d 85 d0 f1 ff ff 	lea    -0xe30(%rbp),%rax
   1cfa6:	48 89 85 08 fb ff ff 	mov    %rax,-0x4f8(%rbp)
   1cfad:	48 8d 85 d0 f1 ff ff 	lea    -0xe30(%rbp),%rax
   1cfb4:	48 89 85 10 fb ff ff 	mov    %rax,-0x4f0(%rbp)
   1cfbb:	48 8d 85 d0 f1 ff ff 	lea    -0xe30(%rbp),%rax
   1cfc2:	48 89 85 18 fb ff ff 	mov    %rax,-0x4e8(%rbp)
   1cfc9:	48 8d 85 d0 f1 ff ff 	lea    -0xe30(%rbp),%rax
   1cfd0:	48 89 85 20 fb ff ff 	mov    %rax,-0x4e0(%rbp)
   1cfd7:	48 8d 85 d0 f1 ff ff 	lea    -0xe30(%rbp),%rax
   1cfde:	48 89 85 28 fb ff ff 	mov    %rax,-0x4d8(%rbp)
   1cfe5:	48 8d 85 d0 f1 ff ff 	lea    -0xe30(%rbp),%rax
   1cfec:	48 89 85 30 fb ff ff 	mov    %rax,-0x4d0(%rbp)
   1cff3:	48 8d 85 d0 f1 ff ff 	lea    -0xe30(%rbp),%rax
   1cffa:	48 89 85 38 fb ff ff 	mov    %rax,-0x4c8(%rbp)
   1d001:	48 8d 85 d0 f1 ff ff 	lea    -0xe30(%rbp),%rax
   1d008:	48 89 85 40 fb ff ff 	mov    %rax,-0x4c0(%rbp)
   1d00f:	48 8d 85 d0 f1 ff ff 	lea    -0xe30(%rbp),%rax
   1d016:	48 89 85 48 fb ff ff 	mov    %rax,-0x4b8(%rbp)
   1d01d:	48 8d 85 d0 f1 ff ff 	lea    -0xe30(%rbp),%rax
   1d024:	48 89 85 50 fb ff ff 	mov    %rax,-0x4b0(%rbp)
   1d02b:	48 8d 85 d0 f1 ff ff 	lea    -0xe30(%rbp),%rax
   1d032:	48 89 85 58 fb ff ff 	mov    %rax,-0x4a8(%rbp)
   1d039:	48 8d 85 d0 f1 ff ff 	lea    -0xe30(%rbp),%rax
   1d040:	48 89 85 60 fb ff ff 	mov    %rax,-0x4a0(%rbp)
   1d047:	48 8d 85 d0 f1 ff ff 	lea    -0xe30(%rbp),%rax
   1d04e:	48 89 85 68 fb ff ff 	mov    %rax,-0x498(%rbp)
   1d055:	48 c7 85 70 fb ff ff 	movq   $0x0,-0x490(%rbp)
   1d05c:	00 00 00 00 
   1d060:	48 8d 85 d0 f1 ff ff 	lea    -0xe30(%rbp),%rax
   1d067:	48 89 85 78 fb ff ff 	mov    %rax,-0x488(%rbp)
   1d06e:	48 8d 85 d0 f1 ff ff 	lea    -0xe30(%rbp),%rax
   1d075:	48 89 85 80 fb ff ff 	mov    %rax,-0x480(%rbp)
   1d07c:	48 8d 85 d0 f1 ff ff 	lea    -0xe30(%rbp),%rax
   1d083:	48 89 85 88 fb ff ff 	mov    %rax,-0x478(%rbp)
   1d08a:	48 c7 85 90 fb ff ff 	movq   $0x0,-0x470(%rbp)
   1d091:	00 00 00 00 
   1d095:	48 8d 85 d0 f1 ff ff 	lea    -0xe30(%rbp),%rax
   1d09c:	48 89 85 98 fb ff ff 	mov    %rax,-0x468(%rbp)
   1d0a3:	48 8d 85 d0 f1 ff ff 	lea    -0xe30(%rbp),%rax
   1d0aa:	48 89 85 a0 fb ff ff 	mov    %rax,-0x460(%rbp)
   1d0b1:	48 8d 85 d0 f1 ff ff 	lea    -0xe30(%rbp),%rax
   1d0b8:	48 89 85 a8 fb ff ff 	mov    %rax,-0x458(%rbp)
   1d0bf:	48 c7 85 b0 fb ff ff 	movq   $0x0,-0x450(%rbp)
   1d0c6:	00 00 00 00 
   1d0ca:	48 8d 85 d0 f1 ff ff 	lea    -0xe30(%rbp),%rax
   1d0d1:	48 89 85 b8 fb ff ff 	mov    %rax,-0x448(%rbp)
   1d0d8:	48 8d 85 d0 f1 ff ff 	lea    -0xe30(%rbp),%rax
   1d0df:	48 89 85 c0 fb ff ff 	mov    %rax,-0x440(%rbp)
   1d0e6:	48 8d 85 d0 f1 ff ff 	lea    -0xe30(%rbp),%rax
   1d0ed:	48 89 85 c8 fb ff ff 	mov    %rax,-0x438(%rbp)
   1d0f4:	48 8d 85 d0 f1 ff ff 	lea    -0xe30(%rbp),%rax
   1d0fb:	48 89 85 d0 fb ff ff 	mov    %rax,-0x430(%rbp)
   1d102:	48 8d 85 d0 f1 ff ff 	lea    -0xe30(%rbp),%rax
   1d109:	48 89 85 d8 fb ff ff 	mov    %rax,-0x428(%rbp)
   1d110:	48 8d 85 d0 f1 ff ff 	lea    -0xe30(%rbp),%rax
   1d117:	48 89 85 e0 fb ff ff 	mov    %rax,-0x420(%rbp)
   1d11e:	48 8d 85 d0 f1 ff ff 	lea    -0xe30(%rbp),%rax
   1d125:	48 89 85 e8 fb ff ff 	mov    %rax,-0x418(%rbp)
   1d12c:	48 8d 85 d0 f1 ff ff 	lea    -0xe30(%rbp),%rax
   1d133:	48 89 85 f0 fb ff ff 	mov    %rax,-0x410(%rbp)
   1d13a:	48 8d 85 d0 f1 ff ff 	lea    -0xe30(%rbp),%rax
   1d141:	48 89 85 f8 fb ff ff 	mov    %rax,-0x408(%rbp)
   1d148:	48 8d 85 d0 f1 ff ff 	lea    -0xe30(%rbp),%rax
   1d14f:	48 89 85 00 fc ff ff 	mov    %rax,-0x400(%rbp)
   1d156:	48 8d 85 d0 f1 ff ff 	lea    -0xe30(%rbp),%rax
   1d15d:	48 89 85 08 fc ff ff 	mov    %rax,-0x3f8(%rbp)
   1d164:	48 8d 85 d0 f1 ff ff 	lea    -0xe30(%rbp),%rax
   1d16b:	48 89 85 10 fc ff ff 	mov    %rax,-0x3f0(%rbp)
   1d172:	48 8d 85 d0 f1 ff ff 	lea    -0xe30(%rbp),%rax
   1d179:	48 89 85 18 fc ff ff 	mov    %rax,-0x3e8(%rbp)
   1d180:	48 8d 85 d0 f1 ff ff 	lea    -0xe30(%rbp),%rax
   1d187:	48 89 85 20 fc ff ff 	mov    %rax,-0x3e0(%rbp)
   1d18e:	48 8d 85 d0 f1 ff ff 	lea    -0xe30(%rbp),%rax
   1d195:	48 89 85 28 fc ff ff 	mov    %rax,-0x3d8(%rbp)
   1d19c:	48 c7 85 30 fc ff ff 	movq   $0x0,-0x3d0(%rbp)
   1d1a3:	00 00 00 00 
   1d1a7:	48 8d 85 d0 f1 ff ff 	lea    -0xe30(%rbp),%rax
   1d1ae:	48 89 85 38 fc ff ff 	mov    %rax,-0x3c8(%rbp)
   1d1b5:	48 8d 85 d0 f1 ff ff 	lea    -0xe30(%rbp),%rax
   1d1bc:	48 89 85 40 fc ff ff 	mov    %rax,-0x3c0(%rbp)
   1d1c3:	48 8d 85 d0 f1 ff ff 	lea    -0xe30(%rbp),%rax
   1d1ca:	48 89 85 48 fc ff ff 	mov    %rax,-0x3b8(%rbp)
   1d1d1:	48 c7 85 50 fc ff ff 	movq   $0x0,-0x3b0(%rbp)
   1d1d8:	00 00 00 00 
   1d1dc:	48 8d 85 d0 f1 ff ff 	lea    -0xe30(%rbp),%rax
   1d1e3:	48 89 85 58 fc ff ff 	mov    %rax,-0x3a8(%rbp)
   1d1ea:	48 8d 85 d0 f1 ff ff 	lea    -0xe30(%rbp),%rax
   1d1f1:	48 89 85 60 fc ff ff 	mov    %rax,-0x3a0(%rbp)
   1d1f8:	48 8d 85 d0 f1 ff ff 	lea    -0xe30(%rbp),%rax
   1d1ff:	48 89 85 68 fc ff ff 	mov    %rax,-0x398(%rbp)
   1d206:	48 c7 85 70 fc ff ff 	movq   $0x0,-0x390(%rbp)
   1d20d:	00 00 00 00 
   1d211:	48 8d 85 d0 f1 ff ff 	lea    -0xe30(%rbp),%rax
   1d218:	48 89 85 78 fc ff ff 	mov    %rax,-0x388(%rbp)
   1d21f:	48 8d 85 d0 f1 ff ff 	lea    -0xe30(%rbp),%rax
   1d226:	48 89 85 80 fc ff ff 	mov    %rax,-0x380(%rbp)
   1d22d:	48 8d 85 d0 f1 ff ff 	lea    -0xe30(%rbp),%rax
   1d234:	48 89 85 88 fc ff ff 	mov    %rax,-0x378(%rbp)
   1d23b:	48 8d 85 d0 f1 ff ff 	lea    -0xe30(%rbp),%rax
   1d242:	48 89 85 90 fc ff ff 	mov    %rax,-0x370(%rbp)
   1d249:	48 8d 85 d0 f1 ff ff 	lea    -0xe30(%rbp),%rax
   1d250:	48 89 85 98 fc ff ff 	mov    %rax,-0x368(%rbp)
   1d257:	48 8d 85 d0 f1 ff ff 	lea    -0xe30(%rbp),%rax
   1d25e:	48 89 85 a0 fc ff ff 	mov    %rax,-0x360(%rbp)
   1d265:	48 8d 85 d0 f1 ff ff 	lea    -0xe30(%rbp),%rax
   1d26c:	48 89 85 a8 fc ff ff 	mov    %rax,-0x358(%rbp)
   1d273:	48 8d 85 d0 f1 ff ff 	lea    -0xe30(%rbp),%rax
   1d27a:	48 89 85 b0 fc ff ff 	mov    %rax,-0x350(%rbp)
   1d281:	48 8d 85 d0 f1 ff ff 	lea    -0xe30(%rbp),%rax
   1d288:	48 89 85 b8 fc ff ff 	mov    %rax,-0x348(%rbp)
   1d28f:	48 8d 85 d0 f1 ff ff 	lea    -0xe30(%rbp),%rax
   1d296:	48 89 85 c0 fc ff ff 	mov    %rax,-0x340(%rbp)
   1d29d:	48 8d 85 d0 f1 ff ff 	lea    -0xe30(%rbp),%rax
   1d2a4:	48 89 85 c8 fc ff ff 	mov    %rax,-0x338(%rbp)
   1d2ab:	48 8d 85 d0 f1 ff ff 	lea    -0xe30(%rbp),%rax
   1d2b2:	48 89 85 d0 fc ff ff 	mov    %rax,-0x330(%rbp)
   1d2b9:	48 8d 85 d0 f1 ff ff 	lea    -0xe30(%rbp),%rax
   1d2c0:	48 89 85 d8 fc ff ff 	mov    %rax,-0x328(%rbp)
   1d2c7:	48 8d 85 d0 f1 ff ff 	lea    -0xe30(%rbp),%rax
   1d2ce:	48 89 85 e0 fc ff ff 	mov    %rax,-0x320(%rbp)
   1d2d5:	48 8d 85 d0 f1 ff ff 	lea    -0xe30(%rbp),%rax
   1d2dc:	48 89 85 e8 fc ff ff 	mov    %rax,-0x318(%rbp)
   1d2e3:	48 c7 85 f0 fc ff ff 	movq   $0x0,-0x310(%rbp)
   1d2ea:	00 00 00 00 
   1d2ee:	48 8d 85 d0 f1 ff ff 	lea    -0xe30(%rbp),%rax
   1d2f5:	48 89 85 f8 fc ff ff 	mov    %rax,-0x308(%rbp)
   1d2fc:	48 8d 85 d0 f1 ff ff 	lea    -0xe30(%rbp),%rax
   1d303:	48 89 85 00 fd ff ff 	mov    %rax,-0x300(%rbp)
   1d30a:	48 8d 85 d0 f1 ff ff 	lea    -0xe30(%rbp),%rax
   1d311:	48 89 85 08 fd ff ff 	mov    %rax,-0x2f8(%rbp)
   1d318:	48 c7 85 10 fd ff ff 	movq   $0x0,-0x2f0(%rbp)
   1d31f:	00 00 00 00 
   1d323:	48 8d 85 d0 f1 ff ff 	lea    -0xe30(%rbp),%rax
   1d32a:	48 89 85 18 fd ff ff 	mov    %rax,-0x2e8(%rbp)
   1d331:	48 8d 85 d0 f1 ff ff 	lea    -0xe30(%rbp),%rax
   1d338:	48 89 85 20 fd ff ff 	mov    %rax,-0x2e0(%rbp)
   1d33f:	48 8d 85 d0 f1 ff ff 	lea    -0xe30(%rbp),%rax
   1d346:	48 89 85 28 fd ff ff 	mov    %rax,-0x2d8(%rbp)
   1d34d:	48 c7 85 30 fd ff ff 	movq   $0x0,-0x2d0(%rbp)
   1d354:	00 00 00 00 
   1d358:	48 8d 85 d0 f1 ff ff 	lea    -0xe30(%rbp),%rax
   1d35f:	48 89 85 38 fd ff ff 	mov    %rax,-0x2c8(%rbp)
   1d366:	48 8d 85 d0 f1 ff ff 	lea    -0xe30(%rbp),%rax
   1d36d:	48 89 85 40 fd ff ff 	mov    %rax,-0x2c0(%rbp)
   1d374:	48 8d 85 d0 f1 ff ff 	lea    -0xe30(%rbp),%rax
   1d37b:	48 89 85 48 fd ff ff 	mov    %rax,-0x2b8(%rbp)
   1d382:	48 8d 85 d0 f1 ff ff 	lea    -0xe30(%rbp),%rax
   1d389:	48 89 85 50 fd ff ff 	mov    %rax,-0x2b0(%rbp)
   1d390:	48 8d 85 d0 f1 ff ff 	lea    -0xe30(%rbp),%rax
   1d397:	48 89 85 58 fd ff ff 	mov    %rax,-0x2a8(%rbp)
   1d39e:	48 8d 85 d0 f1 ff ff 	lea    -0xe30(%rbp),%rax
   1d3a5:	48 89 85 60 fd ff ff 	mov    %rax,-0x2a0(%rbp)
   1d3ac:	48 8d 85 d0 f1 ff ff 	lea    -0xe30(%rbp),%rax
   1d3b3:	48 89 85 68 fd ff ff 	mov    %rax,-0x298(%rbp)
   1d3ba:	48 8d 85 d0 f1 ff ff 	lea    -0xe30(%rbp),%rax
   1d3c1:	48 89 85 70 fd ff ff 	mov    %rax,-0x290(%rbp)
   1d3c8:	48 8d 85 d0 f1 ff ff 	lea    -0xe30(%rbp),%rax
   1d3cf:	48 89 85 78 fd ff ff 	mov    %rax,-0x288(%rbp)
   1d3d6:	48 8d 85 d0 f1 ff ff 	lea    -0xe30(%rbp),%rax
   1d3dd:	48 89 85 80 fd ff ff 	mov    %rax,-0x280(%rbp)
   1d3e4:	48 8d 85 d0 f1 ff ff 	lea    -0xe30(%rbp),%rax
   1d3eb:	48 89 85 88 fd ff ff 	mov    %rax,-0x278(%rbp)
   1d3f2:	48 8d 85 d0 f1 ff ff 	lea    -0xe30(%rbp),%rax
   1d3f9:	48 89 85 90 fd ff ff 	mov    %rax,-0x270(%rbp)
   1d400:	48 8d 85 d0 f1 ff ff 	lea    -0xe30(%rbp),%rax
   1d407:	48 89 85 98 fd ff ff 	mov    %rax,-0x268(%rbp)
   1d40e:	48 8d 85 d0 f1 ff ff 	lea    -0xe30(%rbp),%rax
   1d415:	48 89 85 a0 fd ff ff 	mov    %rax,-0x260(%rbp)
   1d41c:	48 8d 85 d0 f1 ff ff 	lea    -0xe30(%rbp),%rax
   1d423:	48 89 85 a8 fd ff ff 	mov    %rax,-0x258(%rbp)
   1d42a:	48 c7 85 b0 fd ff ff 	movq   $0x0,-0x250(%rbp)
   1d431:	00 00 00 00 
   1d435:	48 8d 85 d0 f1 ff ff 	lea    -0xe30(%rbp),%rax
   1d43c:	48 89 85 b8 fd ff ff 	mov    %rax,-0x248(%rbp)
   1d443:	48 8d 85 d0 f1 ff ff 	lea    -0xe30(%rbp),%rax
   1d44a:	48 89 85 c0 fd ff ff 	mov    %rax,-0x240(%rbp)
   1d451:	48 8d 85 d0 f1 ff ff 	lea    -0xe30(%rbp),%rax
   1d458:	48 89 85 c8 fd ff ff 	mov    %rax,-0x238(%rbp)
   1d45f:	48 c7 85 d0 fd ff ff 	movq   $0x0,-0x230(%rbp)
   1d466:	00 00 00 00 
   1d46a:	48 8d 85 d0 f1 ff ff 	lea    -0xe30(%rbp),%rax
   1d471:	48 89 85 d8 fd ff ff 	mov    %rax,-0x228(%rbp)
   1d478:	48 8d 85 d0 f1 ff ff 	lea    -0xe30(%rbp),%rax
   1d47f:	48 89 85 e0 fd ff ff 	mov    %rax,-0x220(%rbp)
   1d486:	48 8d 85 d0 f1 ff ff 	lea    -0xe30(%rbp),%rax
   1d48d:	48 89 85 e8 fd ff ff 	mov    %rax,-0x218(%rbp)
   1d494:	48 c7 85 f0 fd ff ff 	movq   $0x0,-0x210(%rbp)
   1d49b:	00 00 00 00 
   1d49f:	48 8d 85 d0 f1 ff ff 	lea    -0xe30(%rbp),%rax
   1d4a6:	48 89 85 f8 fd ff ff 	mov    %rax,-0x208(%rbp)
   1d4ad:	48 8d 85 d0 f1 ff ff 	lea    -0xe30(%rbp),%rax
   1d4b4:	48 89 85 00 fe ff ff 	mov    %rax,-0x200(%rbp)
   1d4bb:	48 8d 85 d0 f1 ff ff 	lea    -0xe30(%rbp),%rax
   1d4c2:	48 89 85 08 fe ff ff 	mov    %rax,-0x1f8(%rbp)
   1d4c9:	48 8d 85 d0 f1 ff ff 	lea    -0xe30(%rbp),%rax
   1d4d0:	48 89 85 10 fe ff ff 	mov    %rax,-0x1f0(%rbp)
   1d4d7:	48 8d 85 d0 f1 ff ff 	lea    -0xe30(%rbp),%rax
   1d4de:	48 89 85 18 fe ff ff 	mov    %rax,-0x1e8(%rbp)
   1d4e5:	48 8d 85 d0 f1 ff ff 	lea    -0xe30(%rbp),%rax
   1d4ec:	48 89 85 20 fe ff ff 	mov    %rax,-0x1e0(%rbp)
   1d4f3:	48 8d 85 d0 f1 ff ff 	lea    -0xe30(%rbp),%rax
   1d4fa:	48 89 85 28 fe ff ff 	mov    %rax,-0x1d8(%rbp)
   1d501:	48 8d 85 d0 f1 ff ff 	lea    -0xe30(%rbp),%rax
   1d508:	48 89 85 30 fe ff ff 	mov    %rax,-0x1d0(%rbp)
   1d50f:	48 8d 85 d0 f1 ff ff 	lea    -0xe30(%rbp),%rax
   1d516:	48 89 85 38 fe ff ff 	mov    %rax,-0x1c8(%rbp)
   1d51d:	48 8d 85 d0 f1 ff ff 	lea    -0xe30(%rbp),%rax
   1d524:	48 89 85 40 fe ff ff 	mov    %rax,-0x1c0(%rbp)
   1d52b:	48 8d 85 d0 f1 ff ff 	lea    -0xe30(%rbp),%rax
   1d532:	48 89 85 48 fe ff ff 	mov    %rax,-0x1b8(%rbp)
   1d539:	48 8d 85 d0 f1 ff ff 	lea    -0xe30(%rbp),%rax
   1d540:	48 89 85 50 fe ff ff 	mov    %rax,-0x1b0(%rbp)
   1d547:	48 8d 85 d0 f1 ff ff 	lea    -0xe30(%rbp),%rax
   1d54e:	48 89 85 58 fe ff ff 	mov    %rax,-0x1a8(%rbp)
   1d555:	48 8d 85 d0 f1 ff ff 	lea    -0xe30(%rbp),%rax
   1d55c:	48 89 85 60 fe ff ff 	mov    %rax,-0x1a0(%rbp)
   1d563:	48 8d 85 d0 f1 ff ff 	lea    -0xe30(%rbp),%rax
   1d56a:	48 89 85 68 fe ff ff 	mov    %rax,-0x198(%rbp)
   1d571:	48 c7 85 70 fe ff ff 	movq   $0x0,-0x190(%rbp)
   1d578:	00 00 00 00 
   1d57c:	48 8d 85 d0 f1 ff ff 	lea    -0xe30(%rbp),%rax
   1d583:	48 89 85 78 fe ff ff 	mov    %rax,-0x188(%rbp)
   1d58a:	48 8d 85 d0 f1 ff ff 	lea    -0xe30(%rbp),%rax
   1d591:	48 89 85 80 fe ff ff 	mov    %rax,-0x180(%rbp)
   1d598:	48 8d 85 d0 f1 ff ff 	lea    -0xe30(%rbp),%rax
   1d59f:	48 89 85 88 fe ff ff 	mov    %rax,-0x178(%rbp)
   1d5a6:	48 c7 85 90 fe ff ff 	movq   $0x0,-0x170(%rbp)
   1d5ad:	00 00 00 00 
   1d5b1:	48 8d 85 d0 f1 ff ff 	lea    -0xe30(%rbp),%rax
   1d5b8:	48 89 85 98 fe ff ff 	mov    %rax,-0x168(%rbp)
   1d5bf:	48 8d 85 d0 f1 ff ff 	lea    -0xe30(%rbp),%rax
   1d5c6:	48 89 85 a0 fe ff ff 	mov    %rax,-0x160(%rbp)
   1d5cd:	48 8d 85 d0 f1 ff ff 	lea    -0xe30(%rbp),%rax
   1d5d4:	48 89 85 a8 fe ff ff 	mov    %rax,-0x158(%rbp)
   1d5db:	48 c7 85 b0 fe ff ff 	movq   $0x0,-0x150(%rbp)
   1d5e2:	00 00 00 00 
   1d5e6:	48 8d 85 d0 f1 ff ff 	lea    -0xe30(%rbp),%rax
   1d5ed:	48 89 85 b8 fe ff ff 	mov    %rax,-0x148(%rbp)
   1d5f4:	48 8d 85 d0 f1 ff ff 	lea    -0xe30(%rbp),%rax
   1d5fb:	48 89 85 c0 fe ff ff 	mov    %rax,-0x140(%rbp)
   1d602:	48 8d 85 d0 f1 ff ff 	lea    -0xe30(%rbp),%rax
   1d609:	48 89 85 c8 fe ff ff 	mov    %rax,-0x138(%rbp)
   1d610:	48 8d 85 d0 f1 ff ff 	lea    -0xe30(%rbp),%rax
   1d617:	48 89 85 d0 fe ff ff 	mov    %rax,-0x130(%rbp)
   1d61e:	48 8d 85 d0 f1 ff ff 	lea    -0xe30(%rbp),%rax
   1d625:	48 89 85 d8 fe ff ff 	mov    %rax,-0x128(%rbp)
   1d62c:	48 8d 85 d0 f1 ff ff 	lea    -0xe30(%rbp),%rax
   1d633:	48 89 85 e0 fe ff ff 	mov    %rax,-0x120(%rbp)
   1d63a:	48 8d 85 d0 f1 ff ff 	lea    -0xe30(%rbp),%rax
   1d641:	48 89 85 e8 fe ff ff 	mov    %rax,-0x118(%rbp)
   1d648:	48 8d 85 d0 f1 ff ff 	lea    -0xe30(%rbp),%rax
   1d64f:	48 89 85 f0 fe ff ff 	mov    %rax,-0x110(%rbp)
   1d656:	48 8d 85 d0 f1 ff ff 	lea    -0xe30(%rbp),%rax
   1d65d:	48 89 85 f8 fe ff ff 	mov    %rax,-0x108(%rbp)
   1d664:	48 8d 85 d0 f1 ff ff 	lea    -0xe30(%rbp),%rax
   1d66b:	48 89 85 00 ff ff ff 	mov    %rax,-0x100(%rbp)
   1d672:	48 8d 85 d0 f1 ff ff 	lea    -0xe30(%rbp),%rax
   1d679:	48 89 85 08 ff ff ff 	mov    %rax,-0xf8(%rbp)
   1d680:	48 8d 85 d0 f1 ff ff 	lea    -0xe30(%rbp),%rax
   1d687:	48 89 85 10 ff ff ff 	mov    %rax,-0xf0(%rbp)
   1d68e:	48 8d 85 d0 f1 ff ff 	lea    -0xe30(%rbp),%rax
   1d695:	48 89 85 18 ff ff ff 	mov    %rax,-0xe8(%rbp)
   1d69c:	48 8d 85 d0 f1 ff ff 	lea    -0xe30(%rbp),%rax
   1d6a3:	48 89 85 20 ff ff ff 	mov    %rax,-0xe0(%rbp)
   1d6aa:	48 8d 85 d0 f1 ff ff 	lea    -0xe30(%rbp),%rax
   1d6b1:	48 89 85 28 ff ff ff 	mov    %rax,-0xd8(%rbp)
   1d6b8:	48 c7 85 30 ff ff ff 	movq   $0x0,-0xd0(%rbp)
   1d6bf:	00 00 00 00 
   1d6c3:	48 8d 85 d0 f1 ff ff 	lea    -0xe30(%rbp),%rax
   1d6ca:	48 89 85 38 ff ff ff 	mov    %rax,-0xc8(%rbp)
   1d6d1:	48 8d 85 d0 f1 ff ff 	lea    -0xe30(%rbp),%rax
   1d6d8:	48 89 85 40 ff ff ff 	mov    %rax,-0xc0(%rbp)
   1d6df:	48 8d 85 d0 f1 ff ff 	lea    -0xe30(%rbp),%rax
   1d6e6:	48 89 85 48 ff ff ff 	mov    %rax,-0xb8(%rbp)
   1d6ed:	48 c7 85 50 ff ff ff 	movq   $0x0,-0xb0(%rbp)
   1d6f4:	00 00 00 00 
   1d6f8:	48 8d 85 d0 f1 ff ff 	lea    -0xe30(%rbp),%rax
   1d6ff:	48 89 85 58 ff ff ff 	mov    %rax,-0xa8(%rbp)
   1d706:	48 8d 85 d0 f1 ff ff 	lea    -0xe30(%rbp),%rax
   1d70d:	48 89 85 60 ff ff ff 	mov    %rax,-0xa0(%rbp)
   1d714:	48 8d 85 d0 f1 ff ff 	lea    -0xe30(%rbp),%rax
   1d71b:	48 89 85 68 ff ff ff 	mov    %rax,-0x98(%rbp)
   1d722:	48 c7 85 70 ff ff ff 	movq   $0x0,-0x90(%rbp)
   1d729:	00 00 00 00 
   1d72d:	48 8d 85 d0 f1 ff ff 	lea    -0xe30(%rbp),%rax
   1d734:	48 89 85 78 ff ff ff 	mov    %rax,-0x88(%rbp)
   1d73b:	48 8d 85 d0 f1 ff ff 	lea    -0xe30(%rbp),%rax
   1d742:	48 89 45 80          	mov    %rax,-0x80(%rbp)
   1d746:	48 8d 85 d0 f1 ff ff 	lea    -0xe30(%rbp),%rax
   1d74d:	48 89 45 88          	mov    %rax,-0x78(%rbp)
   1d751:	48 8d 85 d0 f1 ff ff 	lea    -0xe30(%rbp),%rax
   1d758:	48 89 45 90          	mov    %rax,-0x70(%rbp)
   1d75c:	48 8d 85 d0 f1 ff ff 	lea    -0xe30(%rbp),%rax
   1d763:	48 89 45 98          	mov    %rax,-0x68(%rbp)
   1d767:	48 8d 85 d0 f1 ff ff 	lea    -0xe30(%rbp),%rax
   1d76e:	48 89 45 a0          	mov    %rax,-0x60(%rbp)
   1d772:	48 8d 85 d0 f1 ff ff 	lea    -0xe30(%rbp),%rax
   1d779:	48 89 45 a8          	mov    %rax,-0x58(%rbp)
   1d77d:	48 8d 85 d0 f1 ff ff 	lea    -0xe30(%rbp),%rax
   1d784:	48 89 45 b0          	mov    %rax,-0x50(%rbp)
   1d788:	48 8d 85 d0 f1 ff ff 	lea    -0xe30(%rbp),%rax
   1d78f:	48 89 45 b8          	mov    %rax,-0x48(%rbp)
   1d793:	48 8d 85 d0 f1 ff ff 	lea    -0xe30(%rbp),%rax
   1d79a:	48 89 45 c0          	mov    %rax,-0x40(%rbp)
   1d79e:	48 8d 85 d0 f1 ff ff 	lea    -0xe30(%rbp),%rax
   1d7a5:	48 89 45 c8          	mov    %rax,-0x38(%rbp)
   1d7a9:	48 8d 85 d0 f1 ff ff 	lea    -0xe30(%rbp),%rax
   1d7b0:	48 89 45 d0          	mov    %rax,-0x30(%rbp)
   1d7b4:	48 8d 85 d0 f1 ff ff 	lea    -0xe30(%rbp),%rax
   1d7bb:	48 89 45 d8          	mov    %rax,-0x28(%rbp)
   1d7bf:	48 c7 85 38 f2 ff ff 	movq   $0x0,-0xdc8(%rbp)
   1d7c6:	00 00 00 00 
   1d7ca:	48 c7 85 40 f2 ff ff 	movq   $0x0,-0xdc0(%rbp)
   1d7d1:	00 00 00 00 
   1d7d5:	c6 85 3e f1 ff ff 8b 	movb   $0x8b,-0xec2(%rbp)
   1d7dc:	c7 85 6c f1 ff ff 00 	movl   $0x0,-0xe94(%rbp)
   1d7e3:	00 00 00 
   1d7e6:	c7 85 70 f1 ff ff 45 	movl   $0x500e1d45,-0xe90(%rbp)
   1d7ed:	1d 0e 50 
   1d7f0:	c7 85 74 f1 ff ff cb 	movl   $0xbaf64ecb,-0xe8c(%rbp)
   1d7f7:	4e f6 ba 
   1d7fa:	48 8d 05 57 d2 00 00 	lea    0xd257(%rip),%rax        # 2aa58 <g_396>
   1d801:	48 89 85 48 f2 ff ff 	mov    %rax,-0xdb8(%rbp)
   1d808:	c7 85 78 f1 ff ff 20 	movl   $0x1e481820,-0xe88(%rbp)
   1d80f:	18 48 1e 
   1d812:	48 8d 05 e3 98 00 00 	lea    0x98e3(%rip),%rax        # 270fc <g_695>
   1d819:	48 89 85 50 f2 ff ff 	mov    %rax,-0xdb0(%rbp)
   1d820:	48 8d 05 d5 98 00 00 	lea    0x98d5(%rip),%rax        # 270fc <g_695>
   1d827:	48 89 85 30 f4 ff ff 	mov    %rax,-0xbd0(%rbp)
   1d82e:	48 c7 85 38 f4 ff ff 	movq   $0x0,-0xbc8(%rbp)
   1d835:	00 00 00 00 
   1d839:	48 c7 85 40 f4 ff ff 	movq   $0x0,-0xbc0(%rbp)
   1d840:	00 00 00 00 
   1d844:	48 8d 05 b1 98 00 00 	lea    0x98b1(%rip),%rax        # 270fc <g_695>
   1d84b:	48 89 85 48 f4 ff ff 	mov    %rax,-0xbb8(%rbp)
   1d852:	48 8d 05 a4 98 00 00 	lea    0x98a4(%rip),%rax        # 270fd <g_695+0x1>
   1d859:	48 89 85 50 f4 ff ff 	mov    %rax,-0xbb0(%rbp)
   1d860:	48 8d 05 95 98 00 00 	lea    0x9895(%rip),%rax        # 270fc <g_695>
   1d867:	48 89 85 58 f4 ff ff 	mov    %rax,-0xba8(%rbp)
   1d86e:	48 c7 85 60 f4 ff ff 	movq   $0x0,-0xba0(%rbp)
   1d875:	00 00 00 00 
   1d879:	48 c7 85 68 f4 ff ff 	movq   $0x0,-0xb98(%rbp)
   1d880:	00 00 00 00 
   1d884:	48 8d 05 71 98 00 00 	lea    0x9871(%rip),%rax        # 270fc <g_695>
   1d88b:	48 89 85 70 f4 ff ff 	mov    %rax,-0xb90(%rbp)
   1d892:	48 8d 05 64 98 00 00 	lea    0x9864(%rip),%rax        # 270fd <g_695+0x1>
   1d899:	48 89 85 78 f4 ff ff 	mov    %rax,-0xb88(%rbp)
   1d8a0:	48 8d 85 80 f4 ff ff 	lea    -0xb80(%rbp),%rax
   1d8a7:	48 83 c0 40          	add    $0x40,%rax
   1d8ab:	48 89 85 58 f2 ff ff 	mov    %rax,-0xda8(%rbp)
   1d8b2:	48 8d 85 00 f5 ff ff 	lea    -0xb00(%rbp),%rax
   1d8b9:	48 8d 15 60 4f 00 00 	lea    0x4f60(%rip),%rdx        # 22820 <g_4473+0x17b0>
   1d8c0:	b9 6c 00 00 00       	mov    $0x6c,%ecx
   1d8c5:	48 89 c7             	mov    %rax,%rdi
   1d8c8:	48 89 d6             	mov    %rdx,%rsi
   1d8cb:	f3 48 a5             	rep movsq %ds:(%rsi),%es:(%rdi)
   1d8ce:	c6 85 3f f1 ff ff f1 	movb   $0xf1,-0xec1(%rbp)
   1d8d5:	48 8d 05 d4 d1 00 00 	lea    0xd1d4(%rip),%rax        # 2aab0 <g_1206>
   1d8dc:	48 89 85 d8 f1 ff ff 	mov    %rax,-0xe28(%rbp)
   1d8e3:	48 8d 85 d8 f1 ff ff 	lea    -0xe28(%rbp),%rax
   1d8ea:	48 89 85 60 f2 ff ff 	mov    %rax,-0xda0(%rbp)
   1d8f1:	c7 85 64 f1 ff ff 00 	movl   $0x0,-0xe9c(%rbp)
   1d8f8:	00 00 00 
   1d8fb:	eb 1b                	jmp    1d918 <func_41+0x15e9>
   1d8fd:	8b 85 64 f1 ff ff    	mov    -0xe9c(%rbp),%eax
   1d903:	48 98                	cltq   
   1d905:	48 c7 84 c5 a0 f3 ff 	movq   $0x0,-0xc60(%rbp,%rax,8)
   1d90c:	ff 00 00 00 00 
   1d911:	83 85 64 f1 ff ff 01 	addl   $0x1,-0xe9c(%rbp)
   1d918:	83 bd 64 f1 ff ff 06 	cmpl   $0x6,-0xe9c(%rbp)
   1d91f:	7e dc                	jle    1d8fd <func_41+0x15ce>
   1d921:	c7 85 64 f1 ff ff 00 	movl   $0x0,-0xe9c(%rbp)
   1d928:	00 00 00 
   1d92b:	eb 1a                	jmp    1d947 <func_41+0x1618>
   1d92d:	8b 85 64 f1 ff ff    	mov    -0xe9c(%rbp),%eax
   1d933:	48 98                	cltq   
   1d935:	c7 84 85 20 f3 ff ff 	movl   $0xe4f60219,-0xce0(%rbp,%rax,4)
   1d93c:	19 02 f6 e4 
   1d940:	83 85 64 f1 ff ff 01 	addl   $0x1,-0xe9c(%rbp)
   1d947:	83 bd 64 f1 ff ff 01 	cmpl   $0x1,-0xe9c(%rbp)
   1d94e:	7e dd                	jle    1d92d <func_41+0x15fe>
   1d950:	8b 05 9a 97 00 00    	mov    0x979a(%rip),%eax        # 270f0 <g_515>
   1d956:	83 c0 01             	add    $0x1,%eax
   1d959:	89 05 91 97 00 00    	mov    %eax,0x9791(%rip)        # 270f0 <g_515>
   1d95f:	8b 05 8b 97 00 00    	mov    0x978b(%rip),%eax        # 270f0 <g_515>
   1d965:	83 f8 04             	cmp    $0x4,%eax
   1d968:	0f 86 7b f1 ff ff    	jbe    1cae9 <func_41+0x7ba>
   1d96e:	0f b6 85 24 f1 ff ff 	movzbl -0xedc(%rbp),%eax
   1d975:	0f be c0             	movsbl %al,%eax
   1d978:	48 8b 5d e8          	mov    -0x18(%rbp),%rbx
   1d97c:	64 48 33 1c 25 28 00 	xor    %fs:0x28,%rbx
   1d983:	00 00 
   1d985:	74 05                	je     1d98c <func_41+0x165d>
   1d987:	e8 e4 f6 fe ff       	callq  d070 <__stack_chk_fail@plt>
   1d98c:	48 81 c4 d8 0e 00 00 	add    $0xed8,%rsp
   1d993:	5b                   	pop    %rbx
   1d994:	5d                   	pop    %rbp
   1d995:	c3                   	retq   

000000000001d996 <func_45>:
   1d996:	f3 0f 1e fa          	endbr64 
   1d99a:	55                   	push   %rbp
   1d99b:	48 89 e5             	mov    %rsp,%rbp
   1d99e:	48 81 ec e0 01 00 00 	sub    $0x1e0,%rsp
   1d9a5:	48 89 bd 28 fe ff ff 	mov    %rdi,-0x1d8(%rbp)
   1d9ac:	48 89 b5 20 fe ff ff 	mov    %rsi,-0x1e0(%rbp)
   1d9b3:	64 48 8b 04 25 28 00 	mov    %fs:0x28,%rax
   1d9ba:	00 00 
   1d9bc:	48 89 45 f8          	mov    %rax,-0x8(%rbp)
   1d9c0:	31 c0                	xor    %eax,%eax
   1d9c2:	c7 85 3c fe ff ff 50 	movl   $0xbcce3f50,-0x1c4(%rbp)
   1d9c9:	3f ce bc 
   1d9cc:	48 8d 05 91 96 00 00 	lea    0x9691(%rip),%rax        # 27064 <g_50>
   1d9d3:	48 89 85 48 fe ff ff 	mov    %rax,-0x1b8(%rbp)
   1d9da:	c7 85 f0 fe ff ff 00 	movl   $0x0,-0x110(%rbp)
   1d9e1:	00 00 00 
   1d9e4:	c7 85 f4 fe ff ff 00 	movl   $0x0,-0x10c(%rbp)
   1d9eb:	00 00 00 
   1d9ee:	c7 85 f8 fe ff ff 00 	movl   $0x0,-0x108(%rbp)
   1d9f5:	00 00 00 
   1d9f8:	c7 85 fc fe ff ff ff 	movl   $0xffffffff,-0x104(%rbp)
   1d9ff:	ff ff ff 
   1da02:	c7 85 00 ff ff ff a9 	movl   $0x7c2b35a9,-0x100(%rbp)
   1da09:	35 2b 7c 
   1da0c:	c7 85 04 ff ff ff 00 	movl   $0x0,-0xfc(%rbp)
   1da13:	00 00 00 
   1da16:	c7 85 08 ff ff ff a9 	movl   $0x7c2b35a9,-0xf8(%rbp)
   1da1d:	35 2b 7c 
   1da20:	c7 85 0c ff ff ff ff 	movl   $0xffffffff,-0xf4(%rbp)
   1da27:	ff ff ff 
   1da2a:	c7 85 10 ff ff ff 79 	movl   $0x2e0dc979,-0xf0(%rbp)
   1da31:	c9 0d 2e 
   1da34:	c7 85 14 ff ff ff 79 	movl   $0x2e0dc979,-0xec(%rbp)
   1da3b:	c9 0d 2e 
   1da3e:	c7 85 18 ff ff ff ff 	movl   $0xffffffff,-0xe8(%rbp)
   1da45:	ff ff ff 
   1da48:	c7 85 1c ff ff ff 07 	movl   $0x7,-0xe4(%rbp)
   1da4f:	00 00 00 
   1da52:	c7 85 20 ff ff ff f9 	movl   $0xe87712f9,-0xe0(%rbp)
   1da59:	12 77 e8 
   1da5c:	c7 85 24 ff ff ff ff 	movl   $0xffffffff,-0xdc(%rbp)
   1da63:	ff ff ff 
   1da66:	c7 85 28 ff ff ff f9 	movl   $0xe87712f9,-0xd8(%rbp)
   1da6d:	12 77 e8 
   1da70:	c7 85 2c ff ff ff a9 	movl   $0x7c2b35a9,-0xd4(%rbp)
   1da77:	35 2b 7c 
   1da7a:	c7 85 30 ff ff ff 07 	movl   $0x7,-0xd0(%rbp)
   1da81:	00 00 00 
   1da84:	c7 85 34 ff ff ff 07 	movl   $0x7,-0xcc(%rbp)
   1da8b:	00 00 00 
   1da8e:	c7 85 38 ff ff ff a9 	movl   $0x7c2b35a9,-0xc8(%rbp)
   1da95:	35 2b 7c 
   1da98:	c7 85 3c ff ff ff f9 	movl   $0xe87712f9,-0xc4(%rbp)
   1da9f:	12 77 e8 
   1daa2:	c7 85 40 ff ff ff 79 	movl   $0x2e0dc979,-0xc0(%rbp)
   1daa9:	c9 0d 2e 
   1daac:	48 8d 05 3d eb 00 00 	lea    0xeb3d(%rip),%rax        # 2c5f0 <g_201+0x30>
   1dab3:	48 89 85 90 fe ff ff 	mov    %rax,-0x170(%rbp)
   1daba:	48 8d 05 2f eb 00 00 	lea    0xeb2f(%rip),%rax        # 2c5f0 <g_201+0x30>
   1dac1:	48 89 85 98 fe ff ff 	mov    %rax,-0x168(%rbp)
   1dac8:	48 8d 05 21 eb 00 00 	lea    0xeb21(%rip),%rax        # 2c5f0 <g_201+0x30>
   1dacf:	48 89 85 a0 fe ff ff 	mov    %rax,-0x160(%rbp)
   1dad6:	48 8d 05 13 eb 00 00 	lea    0xeb13(%rip),%rax        # 2c5f0 <g_201+0x30>
   1dadd:	48 89 85 a8 fe ff ff 	mov    %rax,-0x158(%rbp)
   1dae4:	48 8d 05 05 eb 00 00 	lea    0xeb05(%rip),%rax        # 2c5f0 <g_201+0x30>
   1daeb:	48 89 85 b0 fe ff ff 	mov    %rax,-0x150(%rbp)
   1daf2:	48 8d 85 90 fe ff ff 	lea    -0x170(%rbp),%rax
   1daf9:	48 83 c0 20          	add    $0x20,%rax
   1dafd:	48 89 85 50 fe ff ff 	mov    %rax,-0x1b0(%rbp)
   1db04:	48 c7 85 58 fe ff ff 	movq   $0x0,-0x1a8(%rbp)
   1db0b:	00 00 00 00 
   1db0f:	66 c7 85 32 fe ff ff 	movw   $0xfffa,-0x1ce(%rbp)
   1db16:	fa ff 
   1db18:	48 8d 05 19 eb 00 00 	lea    0xeb19(%rip),%rax        # 2c638 <g_1043>
   1db1f:	48 89 85 60 fe ff ff 	mov    %rax,-0x1a0(%rbp)
   1db26:	48 c7 85 68 fe ff ff 	movq   $0x1,-0x198(%rbp)
   1db2d:	01 00 00 00 
   1db31:	c6 85 30 fe ff ff f8 	movb   $0xf8,-0x1d0(%rbp)
   1db38:	48 8d 05 79 cf 00 00 	lea    0xcf79(%rip),%rax        # 2aab8 <g_1205>
   1db3f:	48 89 85 70 fe ff ff 	mov    %rax,-0x190(%rbp)
   1db46:	48 8d 05 5d 95 00 00 	lea    0x955d(%rip),%rax        # 270aa <g_177>
   1db4d:	48 89 85 78 fe ff ff 	mov    %rax,-0x188(%rbp)
   1db54:	c7 85 50 ff ff ff 74 	movl   $0x7eecca74,-0xb0(%rbp)
   1db5b:	ca ec 7e 
   1db5e:	c7 85 54 ff ff ff 38 	movl   $0xe61c5d38,-0xac(%rbp)
   1db65:	5d 1c e6 
   1db68:	c7 85 58 ff ff ff 02 	movl   $0x2,-0xa8(%rbp)
   1db6f:	00 00 00 
   1db72:	c7 85 5c ff ff ff 09 	movl   $0x9,-0xa4(%rbp)
   1db79:	00 00 00 
   1db7c:	c7 85 60 ff ff ff fc 	movl   $0xfffffffc,-0xa0(%rbp)
   1db83:	ff ff ff 
   1db86:	c7 85 64 ff ff ff fc 	movl   $0xfffffffc,-0x9c(%rbp)
   1db8d:	ff ff ff 
   1db90:	c7 85 68 ff ff ff 09 	movl   $0x9,-0x98(%rbp)
   1db97:	00 00 00 
   1db9a:	c7 85 6c ff ff ff 02 	movl   $0x2,-0x94(%rbp)
   1dba1:	00 00 00 
   1dba4:	c7 85 70 ff ff ff 38 	movl   $0xe61c5d38,-0x90(%rbp)
   1dbab:	5d 1c e6 
   1dbae:	c7 85 74 ff ff ff 74 	movl   $0x7eecca74,-0x8c(%rbp)
   1dbb5:	ca ec 7e 
   1dbb8:	c7 85 78 ff ff ff fc 	movl   $0xfffffffc,-0x88(%rbp)
   1dbbf:	ff ff ff 
   1dbc2:	c7 85 7c ff ff ff 38 	movl   $0xe61c5d38,-0x84(%rbp)
   1dbc9:	5d 1c e6 
   1dbcc:	c7 45 80 fc 82 6a 67 	movl   $0x676a82fc,-0x80(%rbp)
   1dbd3:	c7 45 84 38 5d 1c e6 	movl   $0xe61c5d38,-0x7c(%rbp)
   1dbda:	c7 45 88 fc ff ff ff 	movl   $0xfffffffc,-0x78(%rbp)
   1dbe1:	c7 45 8c 74 ca ec 7e 	movl   $0x7eecca74,-0x74(%rbp)
   1dbe8:	c7 45 90 38 5d 1c e6 	movl   $0xe61c5d38,-0x70(%rbp)
   1dbef:	c7 45 94 02 00 00 00 	movl   $0x2,-0x6c(%rbp)
   1dbf6:	c7 45 98 09 00 00 00 	movl   $0x9,-0x68(%rbp)
   1dbfd:	c7 45 9c fc ff ff ff 	movl   $0xfffffffc,-0x64(%rbp)
   1dc04:	c7 45 a0 fc ff ff ff 	movl   $0xfffffffc,-0x60(%rbp)
   1dc0b:	c7 45 a4 09 00 00 00 	movl   $0x9,-0x5c(%rbp)
   1dc12:	c7 45 a8 02 00 00 00 	movl   $0x2,-0x58(%rbp)
   1dc19:	c7 45 ac 38 5d 1c e6 	movl   $0xe61c5d38,-0x54(%rbp)
   1dc20:	c7 45 b0 74 ca ec 7e 	movl   $0x7eecca74,-0x50(%rbp)
   1dc27:	c7 45 b4 fc ff ff ff 	movl   $0xfffffffc,-0x4c(%rbp)
   1dc2e:	c7 45 b8 38 5d 1c e6 	movl   $0xe61c5d38,-0x48(%rbp)
   1dc35:	c7 45 bc fc 82 6a 67 	movl   $0x676a82fc,-0x44(%rbp)
   1dc3c:	c7 45 c0 38 5d 1c e6 	movl   $0xe61c5d38,-0x40(%rbp)
   1dc43:	c7 45 c4 fc ff ff ff 	movl   $0xfffffffc,-0x3c(%rbp)
   1dc4a:	c7 45 c8 74 ca ec 7e 	movl   $0x7eecca74,-0x38(%rbp)
   1dc51:	c7 45 cc 38 5d 1c e6 	movl   $0xe61c5d38,-0x34(%rbp)
   1dc58:	c7 45 d0 02 00 00 00 	movl   $0x2,-0x30(%rbp)
   1dc5f:	c7 45 d4 09 00 00 00 	movl   $0x9,-0x2c(%rbp)
   1dc66:	c7 45 d8 fc ff ff ff 	movl   $0xfffffffc,-0x28(%rbp)
   1dc6d:	c7 45 dc fc ff ff ff 	movl   $0xfffffffc,-0x24(%rbp)
   1dc74:	c7 45 e0 09 00 00 00 	movl   $0x9,-0x20(%rbp)
   1dc7b:	c7 45 e4 02 00 00 00 	movl   $0x2,-0x1c(%rbp)
   1dc82:	c7 45 e8 38 5d 1c e6 	movl   $0xe61c5d38,-0x18(%rbp)
   1dc89:	c7 45 ec 74 ca ec 7e 	movl   $0x7eecca74,-0x14(%rbp)
   1dc90:	c7 85 40 fe ff ff d4 	movl   $0x408209d4,-0x1c0(%rbp)
   1dc97:	09 82 40 
   1dc9a:	c6 85 31 fe ff ff f8 	movb   $0xf8,-0x1cf(%rbp)
   1dca1:	48 8d 05 7c 94 00 00 	lea    0x947c(%rip),%rax        # 27124 <g_899+0x14>
   1dca8:	48 89 85 80 fe ff ff 	mov    %rax,-0x180(%rbp)
   1dcaf:	c7 85 44 fe ff ff f8 	movl   $0xfffffff8,-0x1bc(%rbp)
   1dcb6:	ff ff ff 
   1dcb9:	c7 85 c0 fe ff ff 09 	movl   $0x9,-0x140(%rbp)
   1dcc0:	00 00 00 
   1dcc3:	c7 85 c4 fe ff ff 09 	movl   $0x9,-0x13c(%rbp)
   1dcca:	00 00 00 
   1dccd:	c7 85 c8 fe ff ff 09 	movl   $0x9,-0x138(%rbp)
   1dcd4:	00 00 00 
   1dcd7:	c7 85 cc fe ff ff 09 	movl   $0x9,-0x134(%rbp)
   1dcde:	00 00 00 
   1dce1:	c7 85 d0 fe ff ff 09 	movl   $0x9,-0x130(%rbp)
   1dce8:	00 00 00 
   1dceb:	c7 85 d4 fe ff ff 09 	movl   $0x9,-0x12c(%rbp)
   1dcf2:	00 00 00 
   1dcf5:	c7 85 d8 fe ff ff 09 	movl   $0x9,-0x128(%rbp)
   1dcfc:	00 00 00 
   1dcff:	c7 85 dc fe ff ff 09 	movl   $0x9,-0x124(%rbp)
   1dd06:	00 00 00 
   1dd09:	c7 85 e0 fe ff ff 09 	movl   $0x9,-0x120(%rbp)
   1dd10:	00 00 00 
   1dd13:	c7 85 e4 fe ff ff 09 	movl   $0x9,-0x11c(%rbp)
   1dd1a:	00 00 00 
   1dd1d:	c7 85 34 fe ff ff 00 	movl   $0x0,-0x1cc(%rbp)
   1dd24:	00 00 00 
   1dd27:	eb 41                	jmp    1dd6a <func_45+0x3d4>
   1dd29:	c7 85 38 fe ff ff 00 	movl   $0x0,-0x1c8(%rbp)
   1dd30:	00 00 00 
   1dd33:	eb 25                	jmp    1dd5a <func_45+0x3c4>
   1dd35:	8b 85 38 fe ff ff    	mov    -0x1c8(%rbp),%eax
   1dd3b:	48 63 d0             	movslq %eax,%rdx
   1dd3e:	8b 85 34 fe ff ff    	mov    -0x1cc(%rbp),%eax
   1dd44:	48 98                	cltq   
   1dd46:	48 01 d0             	add    %rdx,%rax
   1dd49:	66 c7 84 45 88 fe ff 	movw   $0xfff8,-0x178(%rbp,%rax,2)
   1dd50:	ff f8 ff 
   1dd53:	83 85 38 fe ff ff 01 	addl   $0x1,-0x1c8(%rbp)
   1dd5a:	83 bd 38 fe ff ff 00 	cmpl   $0x0,-0x1c8(%rbp)
   1dd61:	7e d2                	jle    1dd35 <func_45+0x39f>
   1dd63:	83 85 34 fe ff ff 01 	addl   $0x1,-0x1cc(%rbp)
   1dd6a:	83 bd 34 fe ff ff 03 	cmpl   $0x3,-0x1cc(%rbp)
   1dd71:	7e b6                	jle    1dd29 <func_45+0x393>
   1dd73:	48 8b 85 20 fe ff ff 	mov    -0x1e0(%rbp),%rax
   1dd7a:	48 8b 4d f8          	mov    -0x8(%rbp),%rcx
   1dd7e:	64 48 33 0c 25 28 00 	xor    %fs:0x28,%rcx
   1dd85:	00 00 
   1dd87:	74 05                	je     1dd8e <func_45+0x3f8>
   1dd89:	e8 e2 f2 fe ff       	callq  d070 <__stack_chk_fail@plt>
   1dd8e:	c9                   	leaveq 
   1dd8f:	c3                   	retq   

000000000001dd90 <func_61>:
   1dd90:	f3 0f 1e fa          	endbr64 
   1dd94:	55                   	push   %rbp
   1dd95:	48 89 e5             	mov    %rsp,%rbp
   1dd98:	48 81 ec 00 10 00 00 	sub    $0x1000,%rsp
   1dd9f:	48 83 0c 24 00       	orq    $0x0,(%rsp)
   1dda4:	48 81 ec 00 10 00 00 	sub    $0x1000,%rsp
   1ddab:	48 83 0c 24 00       	orq    $0x0,(%rsp)
   1ddb0:	48 81 ec 30 09 00 00 	sub    $0x930,%rsp
   1ddb7:	48 89 bd d8 d6 ff ff 	mov    %rdi,-0x2928(%rbp)
   1ddbe:	64 48 8b 04 25 28 00 	mov    %fs:0x28,%rax
   1ddc5:	00 00 
   1ddc7:	48 89 45 f8          	mov    %rax,-0x8(%rbp)
   1ddcb:	31 c0                	xor    %eax,%eax
   1ddcd:	c6 85 e1 d6 ff ff a3 	movb   $0xa3,-0x291f(%rbp)
   1ddd4:	48 8d 85 30 df ff ff 	lea    -0x20d0(%rbp),%rax
   1dddb:	48 8d 15 de c3 00 00 	lea    0xc3de(%rip),%rdx        # 2a1c0 <g_4462+0x2f00>
   1dde2:	b9 24 00 00 00       	mov    $0x24,%ecx
   1dde7:	48 89 c7             	mov    %rax,%rdi
   1ddea:	48 89 d6             	mov    %rdx,%rsi
   1dded:	f3 48 a5             	rep movsq %ds:(%rsi),%es:(%rdi)
   1ddf0:	c7 85 2c d7 ff ff 13 	movl   $0xf7267713,-0x28d4(%rbp)
   1ddf7:	77 26 f7 
   1ddfa:	c7 85 30 d7 ff ff 00 	movl   $0x0,-0x28d0(%rbp)
   1de01:	00 00 00 
   1de04:	c7 85 34 d7 ff ff 09 	movl   $0x9,-0x28cc(%rbp)
   1de0b:	00 00 00 
   1de0e:	c7 85 0c d7 ff ff a2 	movl   $0xf2ea6da2,-0x28f4(%rbp)
   1de15:	6d ea f2 
   1de18:	48 8d 05 61 92 00 00 	lea    0x9261(%rip),%rax        # 27080 <g_107>
   1de1f:	48 89 85 20 d8 ff ff 	mov    %rax,-0x27e0(%rbp)
   1de26:	48 c7 85 a0 d7 ff ff 	movq   $0x0,-0x2860(%rbp)
   1de2d:	00 00 00 00 
   1de31:	48 8d 85 a0 d7 ff ff 	lea    -0x2860(%rbp),%rax
   1de38:	48 89 85 d0 d9 ff ff 	mov    %rax,-0x2630(%rbp)
   1de3f:	48 8d 85 a0 d7 ff ff 	lea    -0x2860(%rbp),%rax
   1de46:	48 89 85 d8 d9 ff ff 	mov    %rax,-0x2628(%rbp)
   1de4d:	48 8d 85 a0 d7 ff ff 	lea    -0x2860(%rbp),%rax
   1de54:	48 89 85 e0 d9 ff ff 	mov    %rax,-0x2620(%rbp)
   1de5b:	48 8d 85 a0 d7 ff ff 	lea    -0x2860(%rbp),%rax
   1de62:	48 89 85 e8 d9 ff ff 	mov    %rax,-0x2618(%rbp)
   1de69:	48 8d 85 50 e0 ff ff 	lea    -0x1fb0(%rbp),%rax
   1de70:	48 8d 15 69 c4 00 00 	lea    0xc469(%rip),%rdx        # 2a2e0 <g_4462+0x3020>
   1de77:	b9 24 00 00 00       	mov    $0x24,%ecx
   1de7c:	48 89 c7             	mov    %rax,%rdi
   1de7f:	48 89 d6             	mov    %rdx,%rsi
   1de82:	f3 48 a5             	rep movsq %ds:(%rsi),%es:(%rdi)
   1de85:	48 b8 00 fb 00 00 fb 	movabs $0xfb0000fb0000fb00,%rax
   1de8c:	00 00 fb 
   1de8f:	48 89 45 ef          	mov    %rax,-0x11(%rbp)
   1de93:	c6 45 f7 00          	movb   $0x0,-0x9(%rbp)
   1de97:	48 8d 05 52 e7 00 00 	lea    0xe752(%rip),%rax        # 2c5f0 <g_201+0x30>
   1de9e:	48 89 85 a8 d7 ff ff 	mov    %rax,-0x2858(%rbp)
   1dea5:	48 8d 85 a8 d7 ff ff 	lea    -0x2858(%rbp),%rax
   1deac:	48 89 85 28 d8 ff ff 	mov    %rax,-0x27d8(%rbp)
   1deb3:	48 b8 79 ab 9a c2 88 	movabs $0x968dfa88c29aab79,%rax
   1deba:	fa 8d 96 
   1debd:	48 89 85 30 d8 ff ff 	mov    %rax,-0x27d0(%rbp)
   1dec4:	c7 85 a0 db ff ff ba 	movl   $0xc433c4ba,-0x2460(%rbp)
   1decb:	c4 33 c4 
   1dece:	c7 85 a4 db ff ff f9 	movl   $0x9501ddf9,-0x245c(%rbp)
   1ded5:	dd 01 95 
   1ded8:	c7 85 a8 db ff ff 00 	movl   $0x0,-0x2458(%rbp)
   1dedf:	00 00 00 
   1dee2:	c7 85 ac db ff ff 07 	movl   $0x28bfd507,-0x2454(%rbp)
   1dee9:	d5 bf 28 
   1deec:	c7 85 b0 db ff ff 00 	movl   $0x0,-0x2450(%rbp)
   1def3:	00 00 00 
   1def6:	c7 85 b4 db ff ff f9 	movl   $0x9501ddf9,-0x244c(%rbp)
   1defd:	dd 01 95 
   1df00:	c7 85 b8 db ff ff ba 	movl   $0xc433c4ba,-0x2448(%rbp)
   1df07:	c4 33 c4 
   1df0a:	c7 85 bc db ff ff ba 	movl   $0xc433c4ba,-0x2444(%rbp)
   1df11:	c4 33 c4 
   1df14:	c7 85 c0 db ff ff f9 	movl   $0x9501ddf9,-0x2440(%rbp)
   1df1b:	dd 01 95 
   1df1e:	c7 85 c4 db ff ff 00 	movl   $0x0,-0x243c(%rbp)
   1df25:	00 00 00 
   1df28:	c7 85 c8 db ff ff 07 	movl   $0x28bfd507,-0x2438(%rbp)
   1df2f:	d5 bf 28 
   1df32:	c7 85 cc db ff ff 00 	movl   $0x0,-0x2434(%rbp)
   1df39:	00 00 00 
   1df3c:	c7 85 d0 db ff ff f9 	movl   $0x9501ddf9,-0x2430(%rbp)
   1df43:	dd 01 95 
   1df46:	c7 85 d4 db ff ff ba 	movl   $0xc433c4ba,-0x242c(%rbp)
   1df4d:	c4 33 c4 
   1df50:	c7 85 d8 db ff ff ba 	movl   $0xc433c4ba,-0x2428(%rbp)
   1df57:	c4 33 c4 
   1df5a:	c7 85 dc db ff ff f9 	movl   $0x9501ddf9,-0x2424(%rbp)
   1df61:	dd 01 95 
   1df64:	48 8d 85 80 ea ff ff 	lea    -0x1580(%rbp),%rax
   1df6b:	48 8d 15 8e c4 00 00 	lea    0xc48e(%rip),%rdx        # 2a400 <g_4462+0x3140>
   1df72:	b9 c8 00 00 00       	mov    $0xc8,%ecx
   1df77:	48 89 c7             	mov    %rax,%rdi
   1df7a:	48 89 d6             	mov    %rdx,%rsi
   1df7d:	f3 48 a5             	rep movsq %ds:(%rsi),%es:(%rdi)
   1df80:	c7 85 38 d7 ff ff 49 	movl   $0xa9e9d349,-0x28c8(%rbp)
   1df87:	d3 e9 a9 
   1df8a:	c7 85 50 dd ff ff 4d 	movl   $0xeefeff4d,-0x22b0(%rbp)
   1df91:	ff fe ee 
   1df94:	66 c7 85 54 dd ff ff 	movw   $0x4d01,-0x22ac(%rbp)
   1df9b:	01 4d 
   1df9d:	c6 85 56 dd ff ff fe 	movb   $0xfe,-0x22aa(%rbp)
   1dfa4:	c7 85 57 dd ff ff 69 	movl   $0xa5008969,-0x22a9(%rbp)
   1dfab:	89 00 a5 
   1dfae:	66 c7 85 5b dd ff ff 	movw   $0x8900,-0x22a5(%rbp)
   1dfb5:	00 89 
   1dfb7:	c6 85 5d dd ff ff 69 	movb   $0x69,-0x22a3(%rbp)
   1dfbe:	c7 85 5e dd ff ff f1 	movl   $0xffd9fef1,-0x22a2(%rbp)
   1dfc5:	fe d9 ff 
   1dfc8:	66 c7 85 62 dd ff ff 	movw   $0x8f1,-0x229e(%rbp)
   1dfcf:	f1 08 
   1dfd1:	c6 85 64 dd ff ff fe 	movb   $0xfe,-0x229c(%rbp)
   1dfd8:	c7 85 65 dd ff ff 1b 	movl   $0x9a1b011b,-0x229b(%rbp)
   1dfdf:	01 1b 9a 
   1dfe2:	66 c7 85 69 dd ff ff 	movw   $0x100,-0x2297(%rbp)
   1dfe9:	00 01 
   1dfeb:	c6 85 6b dd ff ff 00 	movb   $0x0,-0x2295(%rbp)
   1dff2:	c7 85 6c dd ff ff ff 	movl   $0xd9d901ff,-0x2294(%rbp)
   1dff9:	01 d9 d9 
   1dffc:	66 c7 85 70 dd ff ff 	movw   $0xff01,-0x2290(%rbp)
   1e003:	01 ff 
   1e005:	c6 85 72 dd ff ff 51 	movb   $0x51,-0x228e(%rbp)
   1e00c:	c7 85 73 dd ff ff de 	movl   $0x1009ade,-0x228d(%rbp)
   1e013:	9a 00 01 
   1e016:	66 c7 85 77 dd ff ff 	movw   $0x171,-0x2289(%rbp)
   1e01d:	71 01 
   1e01f:	c6 85 79 dd ff ff 00 	movb   $0x0,-0x2287(%rbp)
   1e026:	c7 85 7a dd ff ff f1 	movl   $0xe7fe08f1,-0x2286(%rbp)
   1e02d:	08 fe e7 
   1e030:	66 c7 85 7e dd ff ff 	movw   $0x8ff,-0x2282(%rbp)
   1e037:	ff 08 
   1e039:	c6 85 80 dd ff ff 08 	movb   $0x8,-0x2280(%rbp)
   1e040:	c7 85 81 dd ff ff fc 	movl   $0x9a2d9afc,-0x227f(%rbp)
   1e047:	9a 2d 9a 
   1e04a:	66 c7 85 85 dd ff ff 	movw   $0x89fc,-0x227b(%rbp)
   1e051:	fc 89 
   1e053:	c6 85 87 dd ff ff 00 	movb   $0x0,-0x2279(%rbp)
   1e05a:	c7 85 88 dd ff ff 4d 	movl   $0xfeee014d,-0x2278(%rbp)
   1e061:	01 ee fe 
   1e064:	66 c7 85 8c dd ff ff 	movw   $0x4dff,-0x2274(%rbp)
   1e06b:	ff 4d 
   1e06d:	c6 85 8e dd ff ff 51 	movb   $0x51,-0x2272(%rbp)
   1e074:	c7 85 8f dd ff ff 00 	movl   $0xa5f80100,-0x2271(%rbp)
   1e07b:	01 f8 a5 
   1e07e:	66 c7 85 93 dd ff ff 	movw   $0x9a71,-0x226d(%rbp)
   1e085:	71 9a 
   1e087:	c6 85 95 dd ff ff 71 	movb   $0x71,-0x226b(%rbp)
   1e08e:	c7 85 96 dd ff ff 4d 	movl   $0x4dfefe4d,-0x226a(%rbp)
   1e095:	fe fe 4d 
   1e098:	66 c7 85 9a dd ff ff 	movw   $0xee01,-0x2266(%rbp)
   1e09f:	01 ee 
   1e0a1:	c6 85 9c dd ff ff fe 	movb   $0xfe,-0x2264(%rbp)
   1e0a8:	c7 85 9d dd ff ff fc 	movl   $0xa50089fc,-0x2263(%rbp)
   1e0af:	89 00 a5 
   1e0b2:	66 c7 85 a1 dd ff ff 	movw   $0x8900,-0x225f(%rbp)
   1e0b9:	00 89 
   1e0bb:	c6 85 a3 dd ff ff fc 	movb   $0xfc,-0x225d(%rbp)
   1e0c2:	c7 85 a4 dd ff ff f1 	movl   $0xfed9fff1,-0x225c(%rbp)
   1e0c9:	ff d9 fe 
   1e0cc:	66 c7 85 a8 dd ff ff 	movw   $0xf1f1,-0x2258(%rbp)
   1e0d3:	f1 f1 
   1e0d5:	c6 85 aa dd ff ff fe 	movb   $0xfe,-0x2256(%rbp)
   1e0dc:	c7 85 ab dd ff ff de 	movl   $0x9ade01de,-0x2255(%rbp)
   1e0e3:	01 de 9a 
   1e0e6:	66 c7 85 af dd ff ff 	movw   $0x100,-0x2251(%rbp)
   1e0ed:	00 01 
   1e0ef:	c6 85 b1 dd ff ff 71 	movb   $0x71,-0x224f(%rbp)
   1e0f6:	c7 85 b2 dd ff ff ff 	movl   $0x15108ff,-0x224e(%rbp)
   1e0fd:	08 51 01 
   1e100:	66 c7 85 b6 dd ff ff 	movw   $0xeef1,-0x224a(%rbp)
   1e107:	f1 ee 
   1e109:	c6 85 b8 dd ff ff 08 	movb   $0x8,-0x2248(%rbp)
   1e110:	c7 85 b9 dd ff ff 2d 	movl   $0xa51b012d,-0x2247(%rbp)
   1e117:	01 1b a5 
   1e11a:	66 c7 85 bd dd ff ff 	movw   $0xa5fc,-0x2243(%rbp)
   1e121:	fc a5 
   1e123:	c6 85 bf dd ff ff 1b 	movb   $0x1b,-0x2241(%rbp)
   1e12a:	c7 85 c0 dd ff ff ff 	movl   $0x51eeffff,-0x2240(%rbp)
   1e131:	ff ee 51 
   1e134:	66 c7 85 c4 dd ff ff 	movw   $0xff4d,-0x223c(%rbp)
   1e13b:	4d ff 
   1e13d:	c6 85 c6 dd ff ff fe 	movb   $0xfe,-0x223a(%rbp)
   1e144:	c7 85 c7 dd ff ff 00 	movl   $0x1710100,-0x2239(%rbp)
   1e14b:	01 71 01 
   1e14e:	66 c7 85 cb dd ff ff 	movw   $0x9a00,-0x2235(%rbp)
   1e155:	00 9a 
   1e157:	c6 85 cd dd ff ff de 	movb   $0xde,-0x2233(%rbp)
   1e15e:	c7 85 ce dd ff ff e7 	movl   $0x4dd908e7,-0x2232(%rbp)
   1e165:	08 d9 4d 
   1e168:	66 c7 85 d2 dd ff ff 	movw   $0xd94d,-0x222e(%rbp)
   1e16f:	4d d9 
   1e171:	c6 85 d4 dd ff ff 08 	movb   $0x8,-0x222c(%rbp)
   1e178:	c7 85 d5 dd ff ff 1b 	movl   $0x100891b,-0x222b(%rbp)
   1e17f:	89 00 01 
   1e182:	66 c7 85 d9 dd ff ff 	movw   $0x1fc,-0x2227(%rbp)
   1e189:	fc 01 
   1e18b:	c6 85 db dd ff ff fc 	movb   $0xfc,-0x2225(%rbp)
   1e192:	c7 85 dc dd ff ff e7 	movl   $0xd9ee4de7,-0x2224(%rbp)
   1e199:	4d ee d9 
   1e19c:	66 c7 85 e0 dd ff ff 	movw   $0xe7f1,-0x2220(%rbp)
   1e1a3:	f1 e7 
   1e1a5:	c6 85 e2 dd ff ff ee 	movb   $0xee,-0x221e(%rbp)
   1e1ac:	c7 85 e3 dd ff ff 00 	movl   $0x1de9a00,-0x221d(%rbp)
   1e1b3:	9a de 01 
   1e1b6:	66 c7 85 e7 dd ff ff 	movw   $0x9ade,-0x2219(%rbp)
   1e1bd:	de 9a 
   1e1bf:	c6 85 e9 dd ff ff 00 	movb   $0x0,-0x2217(%rbp)
   1e1c6:	c7 85 ea dd ff ff ff 	movl   $0x4d51eeff,-0x2216(%rbp)
   1e1cd:	ee 51 4d 
   1e1d0:	66 c7 85 ee dd ff ff 	movw   $0xfeff,-0x2212(%rbp)
   1e1d7:	ff fe 
   1e1d9:	c6 85 f0 dd ff ff ee 	movb   $0xee,-0x2210(%rbp)
   1e1e0:	c7 85 f1 dd ff ff 2d 	movl   $0x12d892d,-0x220f(%rbp)
   1e1e7:	89 2d 01 
   1e1ea:	66 c7 85 f5 dd ff ff 	movw   $0xa51b,-0x220b(%rbp)
   1e1f1:	1b a5 
   1e1f3:	c6 85 f7 dd ff ff fc 	movb   $0xfc,-0x2209(%rbp)
   1e1fa:	c7 85 f8 dd ff ff 4d 	movl   $0x5151f14d,-0x2208(%rbp)
   1e201:	f1 51 51 
   1e204:	66 c7 85 fc dd ff ff 	movw   $0x4df1,-0x2204(%rbp)
   1e20b:	f1 4d 
   1e20d:	c6 85 fe dd ff ff 08 	movb   $0x8,-0x2202(%rbp)
   1e214:	c7 85 ff dd ff ff f8 	movl   $0xa5de01f8,-0x2201(%rbp)
   1e21b:	01 de a5 
   1e21e:	66 c7 85 03 de ff ff 	movw   $0xa569,-0x21fd(%rbp)
   1e225:	69 a5 
   1e227:	c6 85 05 de ff ff de 	movb   $0xde,-0x21fb(%rbp)
   1e22e:	c7 85 06 de ff ff ff 	movl   $0x1eefeff,-0x21fa(%rbp)
   1e235:	fe ee 01 
   1e238:	66 c7 85 0a de ff ff 	movw   $0xfe4d,-0x21f6(%rbp)
   1e23f:	4d fe 
   1e241:	c6 85 0c de ff ff fe 	movb   $0xfe,-0x21f4(%rbp)
   1e248:	c7 85 0d de ff ff 00 	movl   $0x1000100,-0x21f3(%rbp)
   1e24f:	01 00 01 
   1e252:	66 c7 85 11 de ff ff 	movw   $0x9a00,-0x21ef(%rbp)
   1e259:	00 9a 
   1e25b:	c6 85 13 de ff ff 1b 	movb   $0x1b,-0x21ed(%rbp)
   1e262:	c7 85 14 de ff ff e7 	movl   $0xeed9f1e7,-0x21ec(%rbp)
   1e269:	f1 d9 ee 
   1e26c:	66 c7 85 18 de ff ff 	movw   $0xe74d,-0x21e8(%rbp)
   1e273:	4d e7 
   1e275:	c6 85 1a de ff ff 08 	movb   $0x8,-0x21e6(%rbp)
   1e27c:	c7 85 1b de ff ff de 	movl   $0x17189de,-0x21e5(%rbp)
   1e283:	89 71 01 
   1e286:	66 c7 85 1f de ff ff 	movw   $0x169,-0x21e1(%rbp)
   1e28d:	69 01 
   1e28f:	c6 85 21 de ff ff 69 	movb   $0x69,-0x21df(%rbp)
   1e296:	48 8d 05 4b 8e 00 00 	lea    0x8e4b(%rip),%rax        # 270e8 <g_423>
   1e29d:	48 89 85 38 d8 ff ff 	mov    %rax,-0x27c8(%rbp)
   1e2a4:	48 8d 05 ad c7 00 00 	lea    0xc7ad(%rip),%rax        # 2aa58 <g_396>
   1e2ab:	48 89 85 b0 d7 ff ff 	mov    %rax,-0x2850(%rbp)
   1e2b2:	48 8d 05 d7 8d 00 00 	lea    0x8dd7(%rip),%rax        # 27090 <g_129>
   1e2b9:	48 89 85 b8 d7 ff ff 	mov    %rax,-0x2848(%rbp)
   1e2c0:	48 8d 85 b8 d7 ff ff 	lea    -0x2848(%rbp),%rax
   1e2c7:	48 89 85 40 d8 ff ff 	mov    %rax,-0x27c0(%rbp)
   1e2ce:	48 8d 85 e1 d6 ff ff 	lea    -0x291f(%rbp),%rax
   1e2d5:	48 89 85 48 d8 ff ff 	mov    %rax,-0x27b8(%rbp)
   1e2dc:	48 8d 85 50 e0 ff ff 	lea    -0x1fb0(%rbp),%rax
   1e2e3:	48 83 c0 70          	add    $0x70,%rax
   1e2e7:	48 89 85 c0 d7 ff ff 	mov    %rax,-0x2840(%rbp)
   1e2ee:	48 8d 85 c0 d7 ff ff 	lea    -0x2840(%rbp),%rax
   1e2f5:	48 89 85 50 d8 ff ff 	mov    %rax,-0x27b0(%rbp)
   1e2fc:	c6 85 e2 d6 ff ff 02 	movb   $0x2,-0x291e(%rbp)
   1e303:	48 8d 05 6a 8d 00 00 	lea    0x8d6a(%rip),%rax        # 27074 <g_86>
   1e30a:	48 89 85 e0 db ff ff 	mov    %rax,-0x2420(%rbp)
   1e311:	48 8d 05 5c 8d 00 00 	lea    0x8d5c(%rip),%rax        # 27074 <g_86>
   1e318:	48 89 85 e8 db ff ff 	mov    %rax,-0x2418(%rbp)
   1e31f:	48 8d 05 4e 8d 00 00 	lea    0x8d4e(%rip),%rax        # 27074 <g_86>
   1e326:	48 89 85 f0 db ff ff 	mov    %rax,-0x2410(%rbp)
   1e32d:	48 8d 05 40 8d 00 00 	lea    0x8d40(%rip),%rax        # 27074 <g_86>
   1e334:	48 89 85 f8 db ff ff 	mov    %rax,-0x2408(%rbp)
   1e33b:	48 8d 05 32 8d 00 00 	lea    0x8d32(%rip),%rax        # 27074 <g_86>
   1e342:	48 89 85 00 dc ff ff 	mov    %rax,-0x2400(%rbp)
   1e349:	48 8d 05 24 8d 00 00 	lea    0x8d24(%rip),%rax        # 27074 <g_86>
   1e350:	48 89 85 08 dc ff ff 	mov    %rax,-0x23f8(%rbp)
   1e357:	48 8d 05 16 8d 00 00 	lea    0x8d16(%rip),%rax        # 27074 <g_86>
   1e35e:	48 89 85 10 dc ff ff 	mov    %rax,-0x23f0(%rbp)
   1e365:	48 8d 05 08 8d 00 00 	lea    0x8d08(%rip),%rax        # 27074 <g_86>
   1e36c:	48 89 85 18 dc ff ff 	mov    %rax,-0x23e8(%rbp)
   1e373:	48 8d 05 fa 8c 00 00 	lea    0x8cfa(%rip),%rax        # 27074 <g_86>
   1e37a:	48 89 85 20 dc ff ff 	mov    %rax,-0x23e0(%rbp)
   1e381:	48 8d 85 b8 d7 ff ff 	lea    -0x2848(%rbp),%rax
   1e388:	48 89 85 70 e1 ff ff 	mov    %rax,-0x1e90(%rbp)
   1e38f:	48 8d 85 b8 d7 ff ff 	lea    -0x2848(%rbp),%rax
   1e396:	48 89 85 78 e1 ff ff 	mov    %rax,-0x1e88(%rbp)
   1e39d:	48 8d 85 b8 d7 ff ff 	lea    -0x2848(%rbp),%rax
   1e3a4:	48 89 85 80 e1 ff ff 	mov    %rax,-0x1e80(%rbp)
   1e3ab:	48 8d 05 a6 c6 00 00 	lea    0xc6a6(%rip),%rax        # 2aa58 <g_396>
   1e3b2:	48 89 85 88 e1 ff ff 	mov    %rax,-0x1e78(%rbp)
   1e3b9:	48 8d 85 b8 d7 ff ff 	lea    -0x2848(%rbp),%rax
   1e3c0:	48 89 85 90 e1 ff ff 	mov    %rax,-0x1e70(%rbp)
   1e3c7:	48 8d 85 b8 d7 ff ff 	lea    -0x2848(%rbp),%rax
   1e3ce:	48 89 85 98 e1 ff ff 	mov    %rax,-0x1e68(%rbp)
   1e3d5:	48 8d 05 7c c6 00 00 	lea    0xc67c(%rip),%rax        # 2aa58 <g_396>
   1e3dc:	48 89 85 a0 e1 ff ff 	mov    %rax,-0x1e60(%rbp)
   1e3e3:	48 8d 85 b8 d7 ff ff 	lea    -0x2848(%rbp),%rax
   1e3ea:	48 89 85 a8 e1 ff ff 	mov    %rax,-0x1e58(%rbp)
   1e3f1:	48 8d 85 b8 d7 ff ff 	lea    -0x2848(%rbp),%rax
   1e3f8:	48 89 85 b0 e1 ff ff 	mov    %rax,-0x1e50(%rbp)
   1e3ff:	48 8d 05 52 c6 00 00 	lea    0xc652(%rip),%rax        # 2aa58 <g_396>
   1e406:	48 89 85 b8 e1 ff ff 	mov    %rax,-0x1e48(%rbp)
   1e40d:	48 8d 85 b8 d7 ff ff 	lea    -0x2848(%rbp),%rax
   1e414:	48 89 85 c0 e1 ff ff 	mov    %rax,-0x1e40(%rbp)
   1e41b:	48 8d 85 b8 d7 ff ff 	lea    -0x2848(%rbp),%rax
   1e422:	48 89 85 c8 e1 ff ff 	mov    %rax,-0x1e38(%rbp)
   1e429:	48 8d 85 b8 d7 ff ff 	lea    -0x2848(%rbp),%rax
   1e430:	48 89 85 d0 e1 ff ff 	mov    %rax,-0x1e30(%rbp)
   1e437:	48 8d 85 b8 d7 ff ff 	lea    -0x2848(%rbp),%rax
   1e43e:	48 89 85 d8 e1 ff ff 	mov    %rax,-0x1e28(%rbp)
   1e445:	48 8d 85 b8 d7 ff ff 	lea    -0x2848(%rbp),%rax
   1e44c:	48 89 85 e0 e1 ff ff 	mov    %rax,-0x1e20(%rbp)
   1e453:	48 8d 05 fe c5 00 00 	lea    0xc5fe(%rip),%rax        # 2aa58 <g_396>
   1e45a:	48 89 85 e8 e1 ff ff 	mov    %rax,-0x1e18(%rbp)
   1e461:	48 8d 85 b8 d7 ff ff 	lea    -0x2848(%rbp),%rax
   1e468:	48 89 85 f0 e1 ff ff 	mov    %rax,-0x1e10(%rbp)
   1e46f:	48 8d 85 b8 d7 ff ff 	lea    -0x2848(%rbp),%rax
   1e476:	48 89 85 f8 e1 ff ff 	mov    %rax,-0x1e08(%rbp)
   1e47d:	48 8d 05 d4 c5 00 00 	lea    0xc5d4(%rip),%rax        # 2aa58 <g_396>
   1e484:	48 89 85 00 e2 ff ff 	mov    %rax,-0x1e00(%rbp)
   1e48b:	48 8d 85 b8 d7 ff ff 	lea    -0x2848(%rbp),%rax
   1e492:	48 89 85 08 e2 ff ff 	mov    %rax,-0x1df8(%rbp)
   1e499:	48 8d 85 b8 d7 ff ff 	lea    -0x2848(%rbp),%rax
   1e4a0:	48 89 85 10 e2 ff ff 	mov    %rax,-0x1df0(%rbp)
   1e4a7:	48 8d 05 aa c5 00 00 	lea    0xc5aa(%rip),%rax        # 2aa58 <g_396>
   1e4ae:	48 89 85 18 e2 ff ff 	mov    %rax,-0x1de8(%rbp)
   1e4b5:	48 8d 85 b8 d7 ff ff 	lea    -0x2848(%rbp),%rax
   1e4bc:	48 89 85 20 e2 ff ff 	mov    %rax,-0x1de0(%rbp)
   1e4c3:	48 8d 85 b8 d7 ff ff 	lea    -0x2848(%rbp),%rax
   1e4ca:	48 89 85 28 e2 ff ff 	mov    %rax,-0x1dd8(%rbp)
   1e4d1:	48 8d 85 b8 d7 ff ff 	lea    -0x2848(%rbp),%rax
   1e4d8:	48 89 85 30 e2 ff ff 	mov    %rax,-0x1dd0(%rbp)
   1e4df:	48 8d 85 b8 d7 ff ff 	lea    -0x2848(%rbp),%rax
   1e4e6:	48 89 85 38 e2 ff ff 	mov    %rax,-0x1dc8(%rbp)
   1e4ed:	48 8d 85 b8 d7 ff ff 	lea    -0x2848(%rbp),%rax
   1e4f4:	48 89 85 40 e2 ff ff 	mov    %rax,-0x1dc0(%rbp)
   1e4fb:	48 8d 05 56 c5 00 00 	lea    0xc556(%rip),%rax        # 2aa58 <g_396>
   1e502:	48 89 85 48 e2 ff ff 	mov    %rax,-0x1db8(%rbp)
   1e509:	48 8d 85 b8 d7 ff ff 	lea    -0x2848(%rbp),%rax
   1e510:	48 89 85 50 e2 ff ff 	mov    %rax,-0x1db0(%rbp)
   1e517:	48 8d 85 b8 d7 ff ff 	lea    -0x2848(%rbp),%rax
   1e51e:	48 89 85 58 e2 ff ff 	mov    %rax,-0x1da8(%rbp)
   1e525:	48 8d 05 2c c5 00 00 	lea    0xc52c(%rip),%rax        # 2aa58 <g_396>
   1e52c:	48 89 85 60 e2 ff ff 	mov    %rax,-0x1da0(%rbp)
   1e533:	48 8d 85 b8 d7 ff ff 	lea    -0x2848(%rbp),%rax
   1e53a:	48 89 85 68 e2 ff ff 	mov    %rax,-0x1d98(%rbp)
   1e541:	48 8d 85 b8 d7 ff ff 	lea    -0x2848(%rbp),%rax
   1e548:	48 89 85 70 e2 ff ff 	mov    %rax,-0x1d90(%rbp)
   1e54f:	48 8d 05 02 c5 00 00 	lea    0xc502(%rip),%rax        # 2aa58 <g_396>
   1e556:	48 89 85 78 e2 ff ff 	mov    %rax,-0x1d88(%rbp)
   1e55d:	48 8d 85 b8 d7 ff ff 	lea    -0x2848(%rbp),%rax
   1e564:	48 89 85 80 e2 ff ff 	mov    %rax,-0x1d80(%rbp)
   1e56b:	48 8d 85 b8 d7 ff ff 	lea    -0x2848(%rbp),%rax
   1e572:	48 89 85 88 e2 ff ff 	mov    %rax,-0x1d78(%rbp)
   1e579:	48 8d 85 b8 d7 ff ff 	lea    -0x2848(%rbp),%rax
   1e580:	48 89 85 90 e2 ff ff 	mov    %rax,-0x1d70(%rbp)
   1e587:	48 8d 85 b8 d7 ff ff 	lea    -0x2848(%rbp),%rax
   1e58e:	48 89 85 98 e2 ff ff 	mov    %rax,-0x1d68(%rbp)
   1e595:	48 8d 85 b8 d7 ff ff 	lea    -0x2848(%rbp),%rax
   1e59c:	48 89 85 a0 e2 ff ff 	mov    %rax,-0x1d60(%rbp)
   1e5a3:	48 8d 05 ae c4 00 00 	lea    0xc4ae(%rip),%rax        # 2aa58 <g_396>
   1e5aa:	48 89 85 a8 e2 ff ff 	mov    %rax,-0x1d58(%rbp)
   1e5b1:	48 8d 85 b8 d7 ff ff 	lea    -0x2848(%rbp),%rax
   1e5b8:	48 89 85 b0 e2 ff ff 	mov    %rax,-0x1d50(%rbp)
   1e5bf:	48 8d 85 b8 d7 ff ff 	lea    -0x2848(%rbp),%rax
   1e5c6:	48 89 85 b8 e2 ff ff 	mov    %rax,-0x1d48(%rbp)
   1e5cd:	48 8d 05 84 c4 00 00 	lea    0xc484(%rip),%rax        # 2aa58 <g_396>
   1e5d4:	48 89 85 c0 e2 ff ff 	mov    %rax,-0x1d40(%rbp)
   1e5db:	48 8d 85 b8 d7 ff ff 	lea    -0x2848(%rbp),%rax
   1e5e2:	48 89 85 c8 e2 ff ff 	mov    %rax,-0x1d38(%rbp)
   1e5e9:	48 8d 85 b8 d7 ff ff 	lea    -0x2848(%rbp),%rax
   1e5f0:	48 89 85 d0 e2 ff ff 	mov    %rax,-0x1d30(%rbp)
   1e5f7:	48 8d 05 5a c4 00 00 	lea    0xc45a(%rip),%rax        # 2aa58 <g_396>
   1e5fe:	48 89 85 d8 e2 ff ff 	mov    %rax,-0x1d28(%rbp)
   1e605:	48 8d 85 b8 d7 ff ff 	lea    -0x2848(%rbp),%rax
   1e60c:	48 89 85 e0 e2 ff ff 	mov    %rax,-0x1d20(%rbp)
   1e613:	48 8d 85 b8 d7 ff ff 	lea    -0x2848(%rbp),%rax
   1e61a:	48 89 85 e8 e2 ff ff 	mov    %rax,-0x1d18(%rbp)
   1e621:	48 8d 85 b8 d7 ff ff 	lea    -0x2848(%rbp),%rax
   1e628:	48 89 85 f0 e2 ff ff 	mov    %rax,-0x1d10(%rbp)
   1e62f:	48 8d 85 b8 d7 ff ff 	lea    -0x2848(%rbp),%rax
   1e636:	48 89 85 f8 e2 ff ff 	mov    %rax,-0x1d08(%rbp)
   1e63d:	48 8d 85 b8 d7 ff ff 	lea    -0x2848(%rbp),%rax
   1e644:	48 89 85 00 e3 ff ff 	mov    %rax,-0x1d00(%rbp)
   1e64b:	48 8d 05 06 c4 00 00 	lea    0xc406(%rip),%rax        # 2aa58 <g_396>
   1e652:	48 89 85 08 e3 ff ff 	mov    %rax,-0x1cf8(%rbp)
   1e659:	48 8d 85 b8 d7 ff ff 	lea    -0x2848(%rbp),%rax
   1e660:	48 89 85 10 e3 ff ff 	mov    %rax,-0x1cf0(%rbp)
   1e667:	48 8d 85 b8 d7 ff ff 	lea    -0x2848(%rbp),%rax
   1e66e:	48 89 85 18 e3 ff ff 	mov    %rax,-0x1ce8(%rbp)
   1e675:	48 8d 05 dc c3 00 00 	lea    0xc3dc(%rip),%rax        # 2aa58 <g_396>
   1e67c:	48 89 85 20 e3 ff ff 	mov    %rax,-0x1ce0(%rbp)
   1e683:	48 8d 85 b8 d7 ff ff 	lea    -0x2848(%rbp),%rax
   1e68a:	48 89 85 28 e3 ff ff 	mov    %rax,-0x1cd8(%rbp)
   1e691:	48 8d 85 70 e1 ff ff 	lea    -0x1e90(%rbp),%rax
   1e698:	48 05 68 01 00 00    	add    $0x168,%rax
   1e69e:	48 89 85 c8 d7 ff ff 	mov    %rax,-0x2838(%rbp)
   1e6a5:	48 8d 85 c8 d7 ff ff 	lea    -0x2838(%rbp),%rax
   1e6ac:	48 89 85 d0 d7 ff ff 	mov    %rax,-0x2830(%rbp)
   1e6b3:	48 8d 85 d0 d7 ff ff 	lea    -0x2830(%rbp),%rax
   1e6ba:	48 89 85 58 d8 ff ff 	mov    %rax,-0x27a8(%rbp)
   1e6c1:	48 8d 05 88 c3 00 00 	lea    0xc388(%rip),%rax        # 2aa50 <g_258>
   1e6c8:	48 89 85 60 d8 ff ff 	mov    %rax,-0x27a0(%rbp)
   1e6cf:	48 c7 85 68 d8 ff ff 	movq   $0x0,-0x2798(%rbp)
   1e6d6:	00 00 00 00 
   1e6da:	c7 85 3c d7 ff ff 00 	movl   $0x0,-0x28c4(%rbp)
   1e6e1:	00 00 00 
   1e6e4:	c7 85 10 d7 ff ff 03 	movl   $0xcade203,-0x28f0(%rbp)
   1e6eb:	e2 ad 0c 
   1e6ee:	48 8d 85 b0 e6 ff ff 	lea    -0x1950(%rbp),%rax
   1e6f5:	48 8d 15 84 44 00 00 	lea    0x4484(%rip),%rdx        # 22b80 <g_4473+0x1b10>
   1e6fc:	b9 79 00 00 00       	mov    $0x79,%ecx
   1e701:	48 89 c7             	mov    %rax,%rdi
   1e704:	48 89 d6             	mov    %rdx,%rsi
   1e707:	f3 48 a5             	rep movsq %ds:(%rsi),%es:(%rdi)
   1e70a:	48 89 f2             	mov    %rsi,%rdx
   1e70d:	48 89 f8             	mov    %rdi,%rax
   1e710:	8b 0a                	mov    (%rdx),%ecx
   1e712:	89 08                	mov    %ecx,(%rax)
   1e714:	48 8d 40 04          	lea    0x4(%rax),%rax
   1e718:	48 8d 52 04          	lea    0x4(%rdx),%rdx
   1e71c:	c7 85 40 d7 ff ff d9 	movl   $0x77a382d9,-0x28c0(%rbp)
   1e723:	82 a3 77 
   1e726:	48 8d 05 43 89 00 00 	lea    0x8943(%rip),%rax        # 27070 <g_84>
   1e72d:	48 89 85 70 d8 ff ff 	mov    %rax,-0x2790(%rbp)
   1e734:	66 c7 85 f4 d6 ff ff 	movw   $0x23e8,-0x290c(%rbp)
   1e73b:	e8 23 
   1e73d:	66 c7 85 f6 d6 ff ff 	movw   $0x4,-0x290a(%rbp)
   1e744:	04 00 
   1e746:	48 c7 85 78 d8 ff ff 	movq   $0x0,-0x2788(%rbp)
   1e74d:	00 00 00 00 
   1e751:	48 8d 85 20 db ff ff 	lea    -0x24e0(%rbp),%rax
   1e758:	48 83 c0 28          	add    $0x28,%rax
   1e75c:	48 89 85 d8 d7 ff ff 	mov    %rax,-0x2828(%rbp)
   1e763:	c7 85 14 d7 ff ff 77 	movl   $0x4fa57077,-0x28ec(%rbp)
   1e76a:	70 a5 4f 
   1e76d:	c7 85 44 d7 ff ff 01 	movl   $0x1,-0x28bc(%rbp)
   1e774:	00 00 00 
   1e777:	c7 85 18 d7 ff ff 56 	movl   $0x8591e556,-0x28e8(%rbp)
   1e77e:	e5 91 85 
   1e781:	48 8d 85 14 d7 ff ff 	lea    -0x28ec(%rbp),%rax
   1e788:	48 89 85 c0 f0 ff ff 	mov    %rax,-0xf40(%rbp)
   1e78f:	48 c7 85 c8 f0 ff ff 	movq   $0x0,-0xf38(%rbp)
   1e796:	00 00 00 00 
   1e79a:	48 8d 05 43 89 00 00 	lea    0x8943(%rip),%rax        # 270e4 <g_350>
   1e7a1:	48 89 85 d0 f0 ff ff 	mov    %rax,-0xf30(%rbp)
   1e7a8:	48 8d 05 e9 88 00 00 	lea    0x88e9(%rip),%rax        # 27098 <g_132>
   1e7af:	48 89 85 d8 f0 ff ff 	mov    %rax,-0xf28(%rbp)
   1e7b6:	48 8d 05 27 89 00 00 	lea    0x8927(%rip),%rax        # 270e4 <g_350>
   1e7bd:	48 89 85 e0 f0 ff ff 	mov    %rax,-0xf20(%rbp)
   1e7c4:	48 8d 85 14 d7 ff ff 	lea    -0x28ec(%rbp),%rax
   1e7cb:	48 89 85 e8 f0 ff ff 	mov    %rax,-0xf18(%rbp)
   1e7d2:	48 8d 05 0b 89 00 00 	lea    0x890b(%rip),%rax        # 270e4 <g_350>
   1e7d9:	48 89 85 f0 f0 ff ff 	mov    %rax,-0xf10(%rbp)
   1e7e0:	48 8d 05 b1 88 00 00 	lea    0x88b1(%rip),%rax        # 27098 <g_132>
   1e7e7:	48 89 85 f8 f0 ff ff 	mov    %rax,-0xf08(%rbp)
   1e7ee:	48 8d 05 a3 88 00 00 	lea    0x88a3(%rip),%rax        # 27098 <g_132>
   1e7f5:	48 89 85 00 f1 ff ff 	mov    %rax,-0xf00(%rbp)
   1e7fc:	48 8d 05 95 88 00 00 	lea    0x8895(%rip),%rax        # 27098 <g_132>
   1e803:	48 89 85 08 f1 ff ff 	mov    %rax,-0xef8(%rbp)
   1e80a:	48 8d 05 87 88 00 00 	lea    0x8887(%rip),%rax        # 27098 <g_132>
   1e811:	48 89 85 10 f1 ff ff 	mov    %rax,-0xef0(%rbp)
   1e818:	48 8d 85 14 d7 ff ff 	lea    -0x28ec(%rbp),%rax
   1e81f:	48 89 85 18 f1 ff ff 	mov    %rax,-0xee8(%rbp)
   1e826:	48 8d 05 6b 88 00 00 	lea    0x886b(%rip),%rax        # 27098 <g_132>
   1e82d:	48 89 85 20 f1 ff ff 	mov    %rax,-0xee0(%rbp)
   1e834:	48 c7 85 28 f1 ff ff 	movq   $0x0,-0xed8(%rbp)
   1e83b:	00 00 00 00 
   1e83f:	48 8d 05 9e 88 00 00 	lea    0x889e(%rip),%rax        # 270e4 <g_350>
   1e846:	48 89 85 30 f1 ff ff 	mov    %rax,-0xed0(%rbp)
   1e84d:	48 8d 85 14 d7 ff ff 	lea    -0x28ec(%rbp),%rax
   1e854:	48 89 85 38 f1 ff ff 	mov    %rax,-0xec8(%rbp)
   1e85b:	48 8d 05 82 88 00 00 	lea    0x8882(%rip),%rax        # 270e4 <g_350>
   1e862:	48 89 85 40 f1 ff ff 	mov    %rax,-0xec0(%rbp)
   1e869:	48 8d 85 14 d7 ff ff 	lea    -0x28ec(%rbp),%rax
   1e870:	48 89 85 48 f1 ff ff 	mov    %rax,-0xeb8(%rbp)
   1e877:	48 8d 05 66 88 00 00 	lea    0x8866(%rip),%rax        # 270e4 <g_350>
   1e87e:	48 89 85 50 f1 ff ff 	mov    %rax,-0xeb0(%rbp)
   1e885:	48 8d 85 10 d7 ff ff 	lea    -0x28f0(%rbp),%rax
   1e88c:	48 89 85 58 f1 ff ff 	mov    %rax,-0xea8(%rbp)
   1e893:	48 8d 85 14 d7 ff ff 	lea    -0x28ec(%rbp),%rax
   1e89a:	48 89 85 60 f1 ff ff 	mov    %rax,-0xea0(%rbp)
   1e8a1:	48 8d 85 10 d7 ff ff 	lea    -0x28f0(%rbp),%rax
   1e8a8:	48 89 85 68 f1 ff ff 	mov    %rax,-0xe98(%rbp)
   1e8af:	48 8d 85 10 d7 ff ff 	lea    -0x28f0(%rbp),%rax
   1e8b6:	48 89 85 70 f1 ff ff 	mov    %rax,-0xe90(%rbp)
   1e8bd:	48 8d 05 d4 87 00 00 	lea    0x87d4(%rip),%rax        # 27098 <g_132>
   1e8c4:	48 89 85 78 f1 ff ff 	mov    %rax,-0xe88(%rbp)
   1e8cb:	48 8d 85 10 d7 ff ff 	lea    -0x28f0(%rbp),%rax
   1e8d2:	48 89 85 80 f1 ff ff 	mov    %rax,-0xe80(%rbp)
   1e8d9:	48 c7 85 88 f1 ff ff 	movq   $0x0,-0xe78(%rbp)
   1e8e0:	00 00 00 00 
   1e8e4:	48 c7 85 90 f1 ff ff 	movq   $0x0,-0xe70(%rbp)
   1e8eb:	00 00 00 00 
   1e8ef:	48 8d 85 10 d7 ff ff 	lea    -0x28f0(%rbp),%rax
   1e8f6:	48 89 85 98 f1 ff ff 	mov    %rax,-0xe68(%rbp)
   1e8fd:	48 8d 05 e0 87 00 00 	lea    0x87e0(%rip),%rax        # 270e4 <g_350>
   1e904:	48 89 85 a0 f1 ff ff 	mov    %rax,-0xe60(%rbp)
   1e90b:	48 8d 05 86 87 00 00 	lea    0x8786(%rip),%rax        # 27098 <g_132>
   1e912:	48 89 85 a8 f1 ff ff 	mov    %rax,-0xe58(%rbp)
   1e919:	48 8d 85 10 d7 ff ff 	lea    -0x28f0(%rbp),%rax
   1e920:	48 89 85 b0 f1 ff ff 	mov    %rax,-0xe50(%rbp)
   1e927:	48 8d 05 6a 87 00 00 	lea    0x876a(%rip),%rax        # 27098 <g_132>
   1e92e:	48 89 85 b8 f1 ff ff 	mov    %rax,-0xe48(%rbp)
   1e935:	48 8d 85 14 d7 ff ff 	lea    -0x28ec(%rbp),%rax
   1e93c:	48 89 85 c0 f1 ff ff 	mov    %rax,-0xe40(%rbp)
   1e943:	48 8d 05 4e 87 00 00 	lea    0x874e(%rip),%rax        # 27098 <g_132>
   1e94a:	48 89 85 c8 f1 ff ff 	mov    %rax,-0xe38(%rbp)
   1e951:	48 8d 85 10 d7 ff ff 	lea    -0x28f0(%rbp),%rax
   1e958:	48 89 85 d0 f1 ff ff 	mov    %rax,-0xe30(%rbp)
   1e95f:	48 8d 85 14 d7 ff ff 	lea    -0x28ec(%rbp),%rax
   1e966:	48 89 85 d8 f1 ff ff 	mov    %rax,-0xe28(%rbp)
   1e96d:	48 8d 85 14 d7 ff ff 	lea    -0x28ec(%rbp),%rax
   1e974:	48 89 85 e0 f1 ff ff 	mov    %rax,-0xe20(%rbp)
   1e97b:	48 c7 85 e8 f1 ff ff 	movq   $0x0,-0xe18(%rbp)
   1e982:	00 00 00 00 
   1e986:	48 8d 85 10 d7 ff ff 	lea    -0x28f0(%rbp),%rax
   1e98d:	48 89 85 f0 f1 ff ff 	mov    %rax,-0xe10(%rbp)
   1e994:	48 8d 85 14 d7 ff ff 	lea    -0x28ec(%rbp),%rax
   1e99b:	48 89 85 f8 f1 ff ff 	mov    %rax,-0xe08(%rbp)
   1e9a2:	48 8d 05 3b 87 00 00 	lea    0x873b(%rip),%rax        # 270e4 <g_350>
   1e9a9:	48 89 85 00 f2 ff ff 	mov    %rax,-0xe00(%rbp)
   1e9b0:	48 8d 05 e1 86 00 00 	lea    0x86e1(%rip),%rax        # 27098 <g_132>
   1e9b7:	48 89 85 08 f2 ff ff 	mov    %rax,-0xdf8(%rbp)
   1e9be:	48 8d 85 10 d7 ff ff 	lea    -0x28f0(%rbp),%rax
   1e9c5:	48 89 85 10 f2 ff ff 	mov    %rax,-0xdf0(%rbp)
   1e9cc:	48 8d 05 c5 86 00 00 	lea    0x86c5(%rip),%rax        # 27098 <g_132>
   1e9d3:	48 89 85 18 f2 ff ff 	mov    %rax,-0xde8(%rbp)
   1e9da:	48 8d 05 b7 86 00 00 	lea    0x86b7(%rip),%rax        # 27098 <g_132>
   1e9e1:	48 89 85 20 f2 ff ff 	mov    %rax,-0xde0(%rbp)
   1e9e8:	48 8d 05 a9 86 00 00 	lea    0x86a9(%rip),%rax        # 27098 <g_132>
   1e9ef:	48 89 85 28 f2 ff ff 	mov    %rax,-0xdd8(%rbp)
   1e9f6:	48 8d 05 9b 86 00 00 	lea    0x869b(%rip),%rax        # 27098 <g_132>
   1e9fd:	48 89 85 30 f2 ff ff 	mov    %rax,-0xdd0(%rbp)
   1ea04:	48 8d 85 10 d7 ff ff 	lea    -0x28f0(%rbp),%rax
   1ea0b:	48 89 85 38 f2 ff ff 	mov    %rax,-0xdc8(%rbp)
   1ea12:	48 8d 85 14 d7 ff ff 	lea    -0x28ec(%rbp),%rax
   1ea19:	48 89 85 40 f2 ff ff 	mov    %rax,-0xdc0(%rbp)
   1ea20:	48 c7 85 48 f2 ff ff 	movq   $0x0,-0xdb8(%rbp)
   1ea27:	00 00 00 00 
   1ea2b:	48 8d 05 66 86 00 00 	lea    0x8666(%rip),%rax        # 27098 <g_132>
   1ea32:	48 89 85 50 f2 ff ff 	mov    %rax,-0xdb0(%rbp)
   1ea39:	48 8d 05 58 86 00 00 	lea    0x8658(%rip),%rax        # 27098 <g_132>
   1ea40:	48 89 85 58 f2 ff ff 	mov    %rax,-0xda8(%rbp)
   1ea47:	48 8d 05 96 86 00 00 	lea    0x8696(%rip),%rax        # 270e4 <g_350>
   1ea4e:	48 89 85 60 f2 ff ff 	mov    %rax,-0xda0(%rbp)
   1ea55:	48 8d 85 10 d7 ff ff 	lea    -0x28f0(%rbp),%rax
   1ea5c:	48 89 85 68 f2 ff ff 	mov    %rax,-0xd98(%rbp)
   1ea63:	48 8d 05 7a 86 00 00 	lea    0x867a(%rip),%rax        # 270e4 <g_350>
   1ea6a:	48 89 85 70 f2 ff ff 	mov    %rax,-0xd90(%rbp)
   1ea71:	48 8d 85 10 d7 ff ff 	lea    -0x28f0(%rbp),%rax
   1ea78:	48 89 85 78 f2 ff ff 	mov    %rax,-0xd88(%rbp)
   1ea7f:	48 8d 05 12 86 00 00 	lea    0x8612(%rip),%rax        # 27098 <g_132>
   1ea86:	48 89 85 80 f2 ff ff 	mov    %rax,-0xd80(%rbp)
   1ea8d:	48 8d 85 14 d7 ff ff 	lea    -0x28ec(%rbp),%rax
   1ea94:	48 89 85 88 f2 ff ff 	mov    %rax,-0xd78(%rbp)
   1ea9b:	48 8d 85 10 d7 ff ff 	lea    -0x28f0(%rbp),%rax
   1eaa2:	48 89 85 90 f2 ff ff 	mov    %rax,-0xd70(%rbp)
   1eaa9:	48 8d 85 14 d7 ff ff 	lea    -0x28ec(%rbp),%rax
   1eab0:	48 89 85 98 f2 ff ff 	mov    %rax,-0xd68(%rbp)
   1eab7:	48 8d 85 14 d7 ff ff 	lea    -0x28ec(%rbp),%rax
   1eabe:	48 89 85 a0 f2 ff ff 	mov    %rax,-0xd60(%rbp)
   1eac5:	48 c7 85 a8 f2 ff ff 	movq   $0x0,-0xd58(%rbp)
   1eacc:	00 00 00 00 
   1ead0:	48 c7 85 b0 f2 ff ff 	movq   $0x0,-0xd50(%rbp)
   1ead7:	00 00 00 00 
   1eadb:	48 8d 85 14 d7 ff ff 	lea    -0x28ec(%rbp),%rax
   1eae2:	48 89 85 b8 f2 ff ff 	mov    %rax,-0xd48(%rbp)
   1eae9:	48 8d 05 f4 85 00 00 	lea    0x85f4(%rip),%rax        # 270e4 <g_350>
   1eaf0:	48 89 85 c0 f2 ff ff 	mov    %rax,-0xd40(%rbp)
   1eaf7:	48 8d 05 9a 85 00 00 	lea    0x859a(%rip),%rax        # 27098 <g_132>
   1eafe:	48 89 85 c8 f2 ff ff 	mov    %rax,-0xd38(%rbp)
   1eb05:	48 c7 85 d0 f2 ff ff 	movq   $0x0,-0xd30(%rbp)
   1eb0c:	00 00 00 00 
   1eb10:	48 8d 05 81 85 00 00 	lea    0x8581(%rip),%rax        # 27098 <g_132>
   1eb17:	48 89 85 d8 f2 ff ff 	mov    %rax,-0xd28(%rbp)
   1eb1e:	48 8d 85 14 d7 ff ff 	lea    -0x28ec(%rbp),%rax
   1eb25:	48 89 85 e0 f2 ff ff 	mov    %rax,-0xd20(%rbp)
   1eb2c:	48 8d 85 14 d7 ff ff 	lea    -0x28ec(%rbp),%rax
   1eb33:	48 89 85 e8 f2 ff ff 	mov    %rax,-0xd18(%rbp)
   1eb3a:	48 8d 85 10 d7 ff ff 	lea    -0x28f0(%rbp),%rax
   1eb41:	48 89 85 f0 f2 ff ff 	mov    %rax,-0xd10(%rbp)
   1eb48:	48 8d 05 49 85 00 00 	lea    0x8549(%rip),%rax        # 27098 <g_132>
   1eb4f:	48 89 85 f8 f2 ff ff 	mov    %rax,-0xd08(%rbp)
   1eb56:	48 8d 05 3b 85 00 00 	lea    0x853b(%rip),%rax        # 27098 <g_132>
   1eb5d:	48 89 85 00 f3 ff ff 	mov    %rax,-0xd00(%rbp)
   1eb64:	48 c7 85 08 f3 ff ff 	movq   $0x0,-0xcf8(%rbp)
   1eb6b:	00 00 00 00 
   1eb6f:	48 8d 05 6e 85 00 00 	lea    0x856e(%rip),%rax        # 270e4 <g_350>
   1eb76:	48 89 85 10 f3 ff ff 	mov    %rax,-0xcf0(%rbp)
   1eb7d:	48 8d 85 14 d7 ff ff 	lea    -0x28ec(%rbp),%rax
   1eb84:	48 89 85 18 f3 ff ff 	mov    %rax,-0xce8(%rbp)
   1eb8b:	48 8d 05 52 85 00 00 	lea    0x8552(%rip),%rax        # 270e4 <g_350>
   1eb92:	48 89 85 20 f3 ff ff 	mov    %rax,-0xce0(%rbp)
   1eb99:	48 8d 85 14 d7 ff ff 	lea    -0x28ec(%rbp),%rax
   1eba0:	48 89 85 28 f3 ff ff 	mov    %rax,-0xcd8(%rbp)
   1eba7:	48 8d 05 ea 84 00 00 	lea    0x84ea(%rip),%rax        # 27098 <g_132>
   1ebae:	48 89 85 30 f3 ff ff 	mov    %rax,-0xcd0(%rbp)
   1ebb5:	48 8d 05 dc 84 00 00 	lea    0x84dc(%rip),%rax        # 27098 <g_132>
   1ebbc:	48 89 85 38 f3 ff ff 	mov    %rax,-0xcc8(%rbp)
   1ebc3:	48 8d 85 14 d7 ff ff 	lea    -0x28ec(%rbp),%rax
   1ebca:	48 89 85 40 f3 ff ff 	mov    %rax,-0xcc0(%rbp)
   1ebd1:	48 8d 85 14 d7 ff ff 	lea    -0x28ec(%rbp),%rax
   1ebd8:	48 89 85 48 f3 ff ff 	mov    %rax,-0xcb8(%rbp)
   1ebdf:	48 8d 05 b2 84 00 00 	lea    0x84b2(%rip),%rax        # 27098 <g_132>
   1ebe6:	48 89 85 50 f3 ff ff 	mov    %rax,-0xcb0(%rbp)
   1ebed:	48 8d 85 14 d7 ff ff 	lea    -0x28ec(%rbp),%rax
   1ebf4:	48 89 85 58 f3 ff ff 	mov    %rax,-0xca8(%rbp)
   1ebfb:	48 8d 05 96 84 00 00 	lea    0x8496(%rip),%rax        # 27098 <g_132>
   1ec02:	48 89 85 60 f3 ff ff 	mov    %rax,-0xca0(%rbp)
   1ec09:	48 c7 85 68 f3 ff ff 	movq   $0x0,-0xc98(%rbp)
   1ec10:	00 00 00 00 
   1ec14:	48 8d 85 10 d7 ff ff 	lea    -0x28f0(%rbp),%rax
   1ec1b:	48 89 85 70 f3 ff ff 	mov    %rax,-0xc90(%rbp)
   1ec22:	48 8d 05 6f 84 00 00 	lea    0x846f(%rip),%rax        # 27098 <g_132>
   1ec29:	48 89 85 78 f3 ff ff 	mov    %rax,-0xc88(%rbp)
   1ec30:	48 8d 05 ad 84 00 00 	lea    0x84ad(%rip),%rax        # 270e4 <g_350>
   1ec37:	48 89 85 80 f3 ff ff 	mov    %rax,-0xc80(%rbp)
   1ec3e:	48 8d 85 14 d7 ff ff 	lea    -0x28ec(%rbp),%rax
   1ec45:	48 89 85 88 f3 ff ff 	mov    %rax,-0xc78(%rbp)
   1ec4c:	48 8d 85 10 d7 ff ff 	lea    -0x28f0(%rbp),%rax
   1ec53:	48 89 85 90 f3 ff ff 	mov    %rax,-0xc70(%rbp)
   1ec5a:	48 8d 85 10 d7 ff ff 	lea    -0x28f0(%rbp),%rax
   1ec61:	48 89 85 98 f3 ff ff 	mov    %rax,-0xc68(%rbp)
   1ec68:	48 8d 85 14 d7 ff ff 	lea    -0x28ec(%rbp),%rax
   1ec6f:	48 89 85 a0 f3 ff ff 	mov    %rax,-0xc60(%rbp)
   1ec76:	48 8d 85 14 d7 ff ff 	lea    -0x28ec(%rbp),%rax
   1ec7d:	48 89 85 a8 f3 ff ff 	mov    %rax,-0xc58(%rbp)
   1ec84:	48 8d 85 10 d7 ff ff 	lea    -0x28f0(%rbp),%rax
   1ec8b:	48 89 85 b0 f3 ff ff 	mov    %rax,-0xc50(%rbp)
   1ec92:	48 8d 05 ff 83 00 00 	lea    0x83ff(%rip),%rax        # 27098 <g_132>
   1ec99:	48 89 85 b8 f3 ff ff 	mov    %rax,-0xc48(%rbp)
   1eca0:	48 8d 85 14 d7 ff ff 	lea    -0x28ec(%rbp),%rax
   1eca7:	48 89 85 c0 f3 ff ff 	mov    %rax,-0xc40(%rbp)
   1ecae:	48 c7 85 c8 f3 ff ff 	movq   $0x0,-0xc38(%rbp)
   1ecb5:	00 00 00 00 
   1ecb9:	48 8d 85 10 d7 ff ff 	lea    -0x28f0(%rbp),%rax
   1ecc0:	48 89 85 d0 f3 ff ff 	mov    %rax,-0xc30(%rbp)
   1ecc7:	48 8d 85 14 d7 ff ff 	lea    -0x28ec(%rbp),%rax
   1ecce:	48 89 85 d8 f3 ff ff 	mov    %rax,-0xc28(%rbp)
   1ecd5:	48 8d 05 08 84 00 00 	lea    0x8408(%rip),%rax        # 270e4 <g_350>
   1ecdc:	48 89 85 e0 f3 ff ff 	mov    %rax,-0xc20(%rbp)
   1ece3:	48 8d 85 14 d7 ff ff 	lea    -0x28ec(%rbp),%rax
   1ecea:	48 89 85 e8 f3 ff ff 	mov    %rax,-0xc18(%rbp)
   1ecf1:	48 c7 85 f0 f3 ff ff 	movq   $0x0,-0xc10(%rbp)
   1ecf8:	00 00 00 00 
   1ecfc:	48 8d 05 95 83 00 00 	lea    0x8395(%rip),%rax        # 27098 <g_132>
   1ed03:	48 89 85 f8 f3 ff ff 	mov    %rax,-0xc08(%rbp)
   1ed0a:	48 8d 85 10 d7 ff ff 	lea    -0x28f0(%rbp),%rax
   1ed11:	48 89 85 00 f4 ff ff 	mov    %rax,-0xc00(%rbp)
   1ed18:	48 8d 85 14 d7 ff ff 	lea    -0x28ec(%rbp),%rax
   1ed1f:	48 89 85 08 f4 ff ff 	mov    %rax,-0xbf8(%rbp)
   1ed26:	48 8d 85 10 d7 ff ff 	lea    -0x28f0(%rbp),%rax
   1ed2d:	48 89 85 10 f4 ff ff 	mov    %rax,-0xbf0(%rbp)
   1ed34:	48 8d 85 14 d7 ff ff 	lea    -0x28ec(%rbp),%rax
   1ed3b:	48 89 85 18 f4 ff ff 	mov    %rax,-0xbe8(%rbp)
   1ed42:	48 8d 85 14 d7 ff ff 	lea    -0x28ec(%rbp),%rax
   1ed49:	48 89 85 20 f4 ff ff 	mov    %rax,-0xbe0(%rbp)
   1ed50:	48 c7 85 28 f4 ff ff 	movq   $0x0,-0xbd8(%rbp)
   1ed57:	00 00 00 00 
   1ed5b:	48 8d 05 82 83 00 00 	lea    0x8382(%rip),%rax        # 270e4 <g_350>
   1ed62:	48 89 85 30 f4 ff ff 	mov    %rax,-0xbd0(%rbp)
   1ed69:	48 8d 05 28 83 00 00 	lea    0x8328(%rip),%rax        # 27098 <g_132>
   1ed70:	48 89 85 38 f4 ff ff 	mov    %rax,-0xbc8(%rbp)
   1ed77:	48 8d 05 66 83 00 00 	lea    0x8366(%rip),%rax        # 270e4 <g_350>
   1ed7e:	48 89 85 40 f4 ff ff 	mov    %rax,-0xbc0(%rbp)
   1ed85:	48 8d 85 14 d7 ff ff 	lea    -0x28ec(%rbp),%rax
   1ed8c:	48 89 85 48 f4 ff ff 	mov    %rax,-0xbb8(%rbp)
   1ed93:	48 8d 05 4a 83 00 00 	lea    0x834a(%rip),%rax        # 270e4 <g_350>
   1ed9a:	48 89 85 50 f4 ff ff 	mov    %rax,-0xbb0(%rbp)
   1eda1:	48 8d 05 f0 82 00 00 	lea    0x82f0(%rip),%rax        # 27098 <g_132>
   1eda8:	48 89 85 58 f4 ff ff 	mov    %rax,-0xba8(%rbp)
   1edaf:	48 8d 05 e2 82 00 00 	lea    0x82e2(%rip),%rax        # 27098 <g_132>
   1edb6:	48 89 85 60 f4 ff ff 	mov    %rax,-0xba0(%rbp)
   1edbd:	48 8d 05 d4 82 00 00 	lea    0x82d4(%rip),%rax        # 27098 <g_132>
   1edc4:	48 89 85 68 f4 ff ff 	mov    %rax,-0xb98(%rbp)
   1edcb:	48 8d 05 c6 82 00 00 	lea    0x82c6(%rip),%rax        # 27098 <g_132>
   1edd2:	48 89 85 70 f4 ff ff 	mov    %rax,-0xb90(%rbp)
   1edd9:	48 8d 85 14 d7 ff ff 	lea    -0x28ec(%rbp),%rax
   1ede0:	48 89 85 78 f4 ff ff 	mov    %rax,-0xb88(%rbp)
   1ede7:	48 8d 05 aa 82 00 00 	lea    0x82aa(%rip),%rax        # 27098 <g_132>
   1edee:	48 89 85 80 f4 ff ff 	mov    %rax,-0xb80(%rbp)
   1edf5:	48 c7 85 88 f4 ff ff 	movq   $0x0,-0xb78(%rbp)
   1edfc:	00 00 00 00 
   1ee00:	48 8d 05 dd 82 00 00 	lea    0x82dd(%rip),%rax        # 270e4 <g_350>
   1ee07:	48 89 85 90 f4 ff ff 	mov    %rax,-0xb70(%rbp)
   1ee0e:	48 8d 85 14 d7 ff ff 	lea    -0x28ec(%rbp),%rax
   1ee15:	48 89 85 98 f4 ff ff 	mov    %rax,-0xb68(%rbp)
   1ee1c:	48 8d 05 c1 82 00 00 	lea    0x82c1(%rip),%rax        # 270e4 <g_350>
   1ee23:	48 89 85 a0 f4 ff ff 	mov    %rax,-0xb60(%rbp)
   1ee2a:	48 8d 85 14 d7 ff ff 	lea    -0x28ec(%rbp),%rax
   1ee31:	48 89 85 a8 f4 ff ff 	mov    %rax,-0xb58(%rbp)
   1ee38:	48 8d 05 a5 82 00 00 	lea    0x82a5(%rip),%rax        # 270e4 <g_350>
   1ee3f:	48 89 85 b0 f4 ff ff 	mov    %rax,-0xb50(%rbp)
   1ee46:	48 8d 85 10 d7 ff ff 	lea    -0x28f0(%rbp),%rax
   1ee4d:	48 89 85 b8 f4 ff ff 	mov    %rax,-0xb48(%rbp)
   1ee54:	48 8d 85 14 d7 ff ff 	lea    -0x28ec(%rbp),%rax
   1ee5b:	48 89 85 c0 f4 ff ff 	mov    %rax,-0xb40(%rbp)
   1ee62:	48 8d 85 10 d7 ff ff 	lea    -0x28f0(%rbp),%rax
   1ee69:	48 89 85 c8 f4 ff ff 	mov    %rax,-0xb38(%rbp)
   1ee70:	48 8d 85 10 d7 ff ff 	lea    -0x28f0(%rbp),%rax
   1ee77:	48 89 85 d0 f4 ff ff 	mov    %rax,-0xb30(%rbp)
   1ee7e:	48 8d 05 13 82 00 00 	lea    0x8213(%rip),%rax        # 27098 <g_132>
   1ee85:	48 89 85 d8 f4 ff ff 	mov    %rax,-0xb28(%rbp)
   1ee8c:	48 8d 85 10 d7 ff ff 	lea    -0x28f0(%rbp),%rax
   1ee93:	48 89 85 e0 f4 ff ff 	mov    %rax,-0xb20(%rbp)
   1ee9a:	48 c7 85 e8 f4 ff ff 	movq   $0x0,-0xb18(%rbp)
   1eea1:	00 00 00 00 
   1eea5:	48 c7 85 f0 f4 ff ff 	movq   $0x0,-0xb10(%rbp)
   1eeac:	00 00 00 00 
   1eeb0:	48 8d 85 10 d7 ff ff 	lea    -0x28f0(%rbp),%rax
   1eeb7:	48 89 85 f8 f4 ff ff 	mov    %rax,-0xb08(%rbp)
   1eebe:	48 8d 05 1f 82 00 00 	lea    0x821f(%rip),%rax        # 270e4 <g_350>
   1eec5:	48 89 85 00 f5 ff ff 	mov    %rax,-0xb00(%rbp)
   1eecc:	48 8d 05 c5 81 00 00 	lea    0x81c5(%rip),%rax        # 27098 <g_132>
   1eed3:	48 89 85 08 f5 ff ff 	mov    %rax,-0xaf8(%rbp)
   1eeda:	48 8d 85 10 d7 ff ff 	lea    -0x28f0(%rbp),%rax
   1eee1:	48 89 85 10 f5 ff ff 	mov    %rax,-0xaf0(%rbp)
   1eee8:	48 8d 05 a9 81 00 00 	lea    0x81a9(%rip),%rax        # 27098 <g_132>
   1eeef:	48 89 85 18 f5 ff ff 	mov    %rax,-0xae8(%rbp)
   1eef6:	48 8d 85 14 d7 ff ff 	lea    -0x28ec(%rbp),%rax
   1eefd:	48 89 85 20 f5 ff ff 	mov    %rax,-0xae0(%rbp)
   1ef04:	48 8d 05 8d 81 00 00 	lea    0x818d(%rip),%rax        # 27098 <g_132>
   1ef0b:	48 89 85 28 f5 ff ff 	mov    %rax,-0xad8(%rbp)
   1ef12:	48 8d 85 10 d7 ff ff 	lea    -0x28f0(%rbp),%rax
   1ef19:	48 89 85 30 f5 ff ff 	mov    %rax,-0xad0(%rbp)
   1ef20:	48 8d 85 14 d7 ff ff 	lea    -0x28ec(%rbp),%rax
   1ef27:	48 89 85 38 f5 ff ff 	mov    %rax,-0xac8(%rbp)
   1ef2e:	48 8d 85 14 d7 ff ff 	lea    -0x28ec(%rbp),%rax
   1ef35:	48 89 85 40 f5 ff ff 	mov    %rax,-0xac0(%rbp)
   1ef3c:	48 c7 85 48 f5 ff ff 	movq   $0x0,-0xab8(%rbp)
   1ef43:	00 00 00 00 
   1ef47:	48 8d 85 10 d7 ff ff 	lea    -0x28f0(%rbp),%rax
   1ef4e:	48 89 85 50 f5 ff ff 	mov    %rax,-0xab0(%rbp)
   1ef55:	48 8d 05 3c 81 00 00 	lea    0x813c(%rip),%rax        # 27098 <g_132>
   1ef5c:	48 89 85 58 f5 ff ff 	mov    %rax,-0xaa8(%rbp)
   1ef63:	48 8d 05 7a 81 00 00 	lea    0x817a(%rip),%rax        # 270e4 <g_350>
   1ef6a:	48 89 85 60 f5 ff ff 	mov    %rax,-0xaa0(%rbp)
   1ef71:	48 8d 85 10 d7 ff ff 	lea    -0x28f0(%rbp),%rax
   1ef78:	48 89 85 68 f5 ff ff 	mov    %rax,-0xa98(%rbp)
   1ef7f:	48 8d 05 5e 81 00 00 	lea    0x815e(%rip),%rax        # 270e4 <g_350>
   1ef86:	48 89 85 70 f5 ff ff 	mov    %rax,-0xa90(%rbp)
   1ef8d:	48 8d 05 04 81 00 00 	lea    0x8104(%rip),%rax        # 27098 <g_132>
   1ef94:	48 89 85 78 f5 ff ff 	mov    %rax,-0xa88(%rbp)
   1ef9b:	48 8d 05 42 81 00 00 	lea    0x8142(%rip),%rax        # 270e4 <g_350>
   1efa2:	48 89 85 80 f5 ff ff 	mov    %rax,-0xa80(%rbp)
   1efa9:	48 8d 05 34 81 00 00 	lea    0x8134(%rip),%rax        # 270e4 <g_350>
   1efb0:	48 89 85 88 f5 ff ff 	mov    %rax,-0xa78(%rbp)
   1efb7:	48 8d 05 da 80 00 00 	lea    0x80da(%rip),%rax        # 27098 <g_132>
   1efbe:	48 89 85 90 f5 ff ff 	mov    %rax,-0xa70(%rbp)
   1efc5:	48 8d 85 10 d7 ff ff 	lea    -0x28f0(%rbp),%rax
   1efcc:	48 89 85 98 f5 ff ff 	mov    %rax,-0xa68(%rbp)
   1efd3:	48 8d 85 10 d7 ff ff 	lea    -0x28f0(%rbp),%rax
   1efda:	48 89 85 a0 f5 ff ff 	mov    %rax,-0xa60(%rbp)
   1efe1:	48 8d 05 b0 80 00 00 	lea    0x80b0(%rip),%rax        # 27098 <g_132>
   1efe8:	48 89 85 a8 f5 ff ff 	mov    %rax,-0xa58(%rbp)
   1efef:	48 8d 05 a2 80 00 00 	lea    0x80a2(%rip),%rax        # 27098 <g_132>
   1eff6:	48 89 85 b0 f5 ff ff 	mov    %rax,-0xa50(%rbp)
   1effd:	48 8d 05 e0 80 00 00 	lea    0x80e0(%rip),%rax        # 270e4 <g_350>
   1f004:	48 89 85 b8 f5 ff ff 	mov    %rax,-0xa48(%rbp)
   1f00b:	48 8d 05 d2 80 00 00 	lea    0x80d2(%rip),%rax        # 270e4 <g_350>
   1f012:	48 89 85 c0 f5 ff ff 	mov    %rax,-0xa40(%rbp)
   1f019:	48 8d 85 10 d7 ff ff 	lea    -0x28f0(%rbp),%rax
   1f020:	48 89 85 c8 f5 ff ff 	mov    %rax,-0xa38(%rbp)
   1f027:	48 8d 05 b6 80 00 00 	lea    0x80b6(%rip),%rax        # 270e4 <g_350>
   1f02e:	48 89 85 d0 f5 ff ff 	mov    %rax,-0xa30(%rbp)
   1f035:	48 8d 05 a8 80 00 00 	lea    0x80a8(%rip),%rax        # 270e4 <g_350>
   1f03c:	48 89 85 d8 f5 ff ff 	mov    %rax,-0xa28(%rbp)
   1f043:	48 8d 85 10 d7 ff ff 	lea    -0x28f0(%rbp),%rax
   1f04a:	48 89 85 e0 f5 ff ff 	mov    %rax,-0xa20(%rbp)
   1f051:	48 c7 85 e8 f5 ff ff 	movq   $0x0,-0xa18(%rbp)
   1f058:	00 00 00 00 
   1f05c:	48 8d 05 35 80 00 00 	lea    0x8035(%rip),%rax        # 27098 <g_132>
   1f063:	48 89 85 f0 f5 ff ff 	mov    %rax,-0xa10(%rbp)
   1f06a:	48 8d 85 10 d7 ff ff 	lea    -0x28f0(%rbp),%rax
   1f071:	48 89 85 f8 f5 ff ff 	mov    %rax,-0xa08(%rbp)
   1f078:	48 c7 85 00 f6 ff ff 	movq   $0x0,-0xa00(%rbp)
   1f07f:	00 00 00 00 
   1f083:	48 8d 05 0e 80 00 00 	lea    0x800e(%rip),%rax        # 27098 <g_132>
   1f08a:	48 89 85 08 f6 ff ff 	mov    %rax,-0x9f8(%rbp)
   1f091:	48 8d 85 10 d7 ff ff 	lea    -0x28f0(%rbp),%rax
   1f098:	48 89 85 10 f6 ff ff 	mov    %rax,-0x9f0(%rbp)
   1f09f:	48 c7 85 18 f6 ff ff 	movq   $0x0,-0x9e8(%rbp)
   1f0a6:	00 00 00 00 
   1f0aa:	48 c7 85 20 f6 ff ff 	movq   $0x0,-0x9e0(%rbp)
   1f0b1:	00 00 00 00 
   1f0b5:	48 8d 05 28 80 00 00 	lea    0x8028(%rip),%rax        # 270e4 <g_350>
   1f0bc:	48 89 85 28 f6 ff ff 	mov    %rax,-0x9d8(%rbp)
   1f0c3:	48 8d 85 10 d7 ff ff 	lea    -0x28f0(%rbp),%rax
   1f0ca:	48 89 85 30 f6 ff ff 	mov    %rax,-0x9d0(%rbp)
   1f0d1:	48 8d 05 c0 7f 00 00 	lea    0x7fc0(%rip),%rax        # 27098 <g_132>
   1f0d8:	48 89 85 38 f6 ff ff 	mov    %rax,-0x9c8(%rbp)
   1f0df:	48 c7 85 40 f6 ff ff 	movq   $0x0,-0x9c0(%rbp)
   1f0e6:	00 00 00 00 
   1f0ea:	48 8d 05 a7 7f 00 00 	lea    0x7fa7(%rip),%rax        # 27098 <g_132>
   1f0f1:	48 89 85 48 f6 ff ff 	mov    %rax,-0x9b8(%rbp)
   1f0f8:	48 8d 05 99 7f 00 00 	lea    0x7f99(%rip),%rax        # 27098 <g_132>
   1f0ff:	48 89 85 50 f6 ff ff 	mov    %rax,-0x9b0(%rbp)
   1f106:	48 8d 85 10 d7 ff ff 	lea    -0x28f0(%rbp),%rax
   1f10d:	48 89 85 58 f6 ff ff 	mov    %rax,-0x9a8(%rbp)
   1f114:	48 8d 85 10 d7 ff ff 	lea    -0x28f0(%rbp),%rax
   1f11b:	48 89 85 60 f6 ff ff 	mov    %rax,-0x9a0(%rbp)
   1f122:	48 8d 85 10 d7 ff ff 	lea    -0x28f0(%rbp),%rax
   1f129:	48 89 85 68 f6 ff ff 	mov    %rax,-0x998(%rbp)
   1f130:	48 8d 05 ad 7f 00 00 	lea    0x7fad(%rip),%rax        # 270e4 <g_350>
   1f137:	48 89 85 70 f6 ff ff 	mov    %rax,-0x990(%rbp)
   1f13e:	48 8d 05 9f 7f 00 00 	lea    0x7f9f(%rip),%rax        # 270e4 <g_350>
   1f145:	48 89 85 78 f6 ff ff 	mov    %rax,-0x988(%rbp)
   1f14c:	48 8d 05 91 7f 00 00 	lea    0x7f91(%rip),%rax        # 270e4 <g_350>
   1f153:	48 89 85 80 f6 ff ff 	mov    %rax,-0x980(%rbp)
   1f15a:	48 8d 05 83 7f 00 00 	lea    0x7f83(%rip),%rax        # 270e4 <g_350>
   1f161:	48 89 85 88 f6 ff ff 	mov    %rax,-0x978(%rbp)
   1f168:	48 8d 05 29 7f 00 00 	lea    0x7f29(%rip),%rax        # 27098 <g_132>
   1f16f:	48 89 85 90 f6 ff ff 	mov    %rax,-0x970(%rbp)
   1f176:	48 8d 05 1b 7f 00 00 	lea    0x7f1b(%rip),%rax        # 27098 <g_132>
   1f17d:	48 89 85 98 f6 ff ff 	mov    %rax,-0x968(%rbp)
   1f184:	48 8d 85 10 d7 ff ff 	lea    -0x28f0(%rbp),%rax
   1f18b:	48 89 85 a0 f6 ff ff 	mov    %rax,-0x960(%rbp)
   1f192:	48 8d 85 10 d7 ff ff 	lea    -0x28f0(%rbp),%rax
   1f199:	48 89 85 a8 f6 ff ff 	mov    %rax,-0x958(%rbp)
   1f1a0:	48 8d 05 f1 7e 00 00 	lea    0x7ef1(%rip),%rax        # 27098 <g_132>
   1f1a7:	48 89 85 b0 f6 ff ff 	mov    %rax,-0x950(%rbp)
   1f1ae:	48 c7 85 b8 f6 ff ff 	movq   $0x0,-0x948(%rbp)
   1f1b5:	00 00 00 00 
   1f1b9:	48 8d 05 24 7f 00 00 	lea    0x7f24(%rip),%rax        # 270e4 <g_350>
   1f1c0:	48 89 85 c0 f6 ff ff 	mov    %rax,-0x940(%rbp)
   1f1c7:	48 8d 05 ca 7e 00 00 	lea    0x7eca(%rip),%rax        # 27098 <g_132>
   1f1ce:	48 89 85 c8 f6 ff ff 	mov    %rax,-0x938(%rbp)
   1f1d5:	48 8d 05 08 7f 00 00 	lea    0x7f08(%rip),%rax        # 270e4 <g_350>
   1f1dc:	48 89 85 d0 f6 ff ff 	mov    %rax,-0x930(%rbp)
   1f1e3:	48 8d 05 fa 7e 00 00 	lea    0x7efa(%rip),%rax        # 270e4 <g_350>
   1f1ea:	48 89 85 d8 f6 ff ff 	mov    %rax,-0x928(%rbp)
   1f1f1:	48 8d 05 ec 7e 00 00 	lea    0x7eec(%rip),%rax        # 270e4 <g_350>
   1f1f8:	48 89 85 e0 f6 ff ff 	mov    %rax,-0x920(%rbp)
   1f1ff:	48 c7 85 e8 f6 ff ff 	movq   $0x0,-0x918(%rbp)
   1f206:	00 00 00 00 
   1f20a:	48 8d 05 87 7e 00 00 	lea    0x7e87(%rip),%rax        # 27098 <g_132>
   1f211:	48 89 85 f0 f6 ff ff 	mov    %rax,-0x910(%rbp)
   1f218:	48 8d 05 c5 7e 00 00 	lea    0x7ec5(%rip),%rax        # 270e4 <g_350>
   1f21f:	48 89 85 f8 f6 ff ff 	mov    %rax,-0x908(%rbp)
   1f226:	48 8d 05 b7 7e 00 00 	lea    0x7eb7(%rip),%rax        # 270e4 <g_350>
   1f22d:	48 89 85 00 f7 ff ff 	mov    %rax,-0x900(%rbp)
   1f234:	48 c7 85 08 f7 ff ff 	movq   $0x0,-0x8f8(%rbp)
   1f23b:	00 00 00 00 
   1f23f:	48 8d 05 52 7e 00 00 	lea    0x7e52(%rip),%rax        # 27098 <g_132>
   1f246:	48 89 85 10 f7 ff ff 	mov    %rax,-0x8f0(%rbp)
   1f24d:	48 8d 05 90 7e 00 00 	lea    0x7e90(%rip),%rax        # 270e4 <g_350>
   1f254:	48 89 85 18 f7 ff ff 	mov    %rax,-0x8e8(%rbp)
   1f25b:	48 c7 85 20 f7 ff ff 	movq   $0x0,-0x8e0(%rbp)
   1f262:	00 00 00 00 
   1f266:	48 8d 05 2b 7e 00 00 	lea    0x7e2b(%rip),%rax        # 27098 <g_132>
   1f26d:	48 89 85 28 f7 ff ff 	mov    %rax,-0x8d8(%rbp)
   1f274:	48 8d 05 1d 7e 00 00 	lea    0x7e1d(%rip),%rax        # 27098 <g_132>
   1f27b:	48 89 85 30 f7 ff ff 	mov    %rax,-0x8d0(%rbp)
   1f282:	48 c7 85 38 f7 ff ff 	movq   $0x0,-0x8c8(%rbp)
   1f289:	00 00 00 00 
   1f28d:	48 c7 85 40 f7 ff ff 	movq   $0x0,-0x8c0(%rbp)
   1f294:	00 00 00 00 
   1f298:	48 8d 85 10 d7 ff ff 	lea    -0x28f0(%rbp),%rax
   1f29f:	48 89 85 48 f7 ff ff 	mov    %rax,-0x8b8(%rbp)
   1f2a6:	48 8d 05 eb 7d 00 00 	lea    0x7deb(%rip),%rax        # 27098 <g_132>
   1f2ad:	48 89 85 50 f7 ff ff 	mov    %rax,-0x8b0(%rbp)
   1f2b4:	48 8d 05 dd 7d 00 00 	lea    0x7ddd(%rip),%rax        # 27098 <g_132>
   1f2bb:	48 89 85 58 f7 ff ff 	mov    %rax,-0x8a8(%rbp)
   1f2c2:	48 8d 85 10 d7 ff ff 	lea    -0x28f0(%rbp),%rax
   1f2c9:	48 89 85 60 f7 ff ff 	mov    %rax,-0x8a0(%rbp)
   1f2d0:	48 8d 05 0d 7e 00 00 	lea    0x7e0d(%rip),%rax        # 270e4 <g_350>
   1f2d7:	48 89 85 68 f7 ff ff 	mov    %rax,-0x898(%rbp)
   1f2de:	48 8d 05 b3 7d 00 00 	lea    0x7db3(%rip),%rax        # 27098 <g_132>
   1f2e5:	48 89 85 70 f7 ff ff 	mov    %rax,-0x890(%rbp)
   1f2ec:	48 8d 05 f1 7d 00 00 	lea    0x7df1(%rip),%rax        # 270e4 <g_350>
   1f2f3:	48 89 85 78 f7 ff ff 	mov    %rax,-0x888(%rbp)
   1f2fa:	48 8d 05 97 7d 00 00 	lea    0x7d97(%rip),%rax        # 27098 <g_132>
   1f301:	48 89 85 80 f7 ff ff 	mov    %rax,-0x880(%rbp)
   1f308:	48 8d 85 10 d7 ff ff 	lea    -0x28f0(%rbp),%rax
   1f30f:	48 89 85 88 f7 ff ff 	mov    %rax,-0x878(%rbp)
   1f316:	48 c7 85 90 f7 ff ff 	movq   $0x0,-0x870(%rbp)
   1f31d:	00 00 00 00 
   1f321:	48 8d 85 10 d7 ff ff 	lea    -0x28f0(%rbp),%rax
   1f328:	48 89 85 98 f7 ff ff 	mov    %rax,-0x868(%rbp)
   1f32f:	48 8d 05 ae 7d 00 00 	lea    0x7dae(%rip),%rax        # 270e4 <g_350>
   1f336:	48 89 85 a0 f7 ff ff 	mov    %rax,-0x860(%rbp)
   1f33d:	48 8d 05 54 7d 00 00 	lea    0x7d54(%rip),%rax        # 27098 <g_132>
   1f344:	48 89 85 a8 f7 ff ff 	mov    %rax,-0x858(%rbp)
   1f34b:	48 8d 05 92 7d 00 00 	lea    0x7d92(%rip),%rax        # 270e4 <g_350>
   1f352:	48 89 85 b0 f7 ff ff 	mov    %rax,-0x850(%rbp)
   1f359:	48 8d 05 38 7d 00 00 	lea    0x7d38(%rip),%rax        # 27098 <g_132>
   1f360:	48 89 85 b8 f7 ff ff 	mov    %rax,-0x848(%rbp)
   1f367:	48 8d 05 76 7d 00 00 	lea    0x7d76(%rip),%rax        # 270e4 <g_350>
   1f36e:	48 89 85 c0 f7 ff ff 	mov    %rax,-0x840(%rbp)
   1f375:	48 8d 05 68 7d 00 00 	lea    0x7d68(%rip),%rax        # 270e4 <g_350>
   1f37c:	48 89 85 c8 f7 ff ff 	mov    %rax,-0x838(%rbp)
   1f383:	48 8d 05 0e 7d 00 00 	lea    0x7d0e(%rip),%rax        # 27098 <g_132>
   1f38a:	48 89 85 d0 f7 ff ff 	mov    %rax,-0x830(%rbp)
   1f391:	48 c7 85 d8 f7 ff ff 	movq   $0x0,-0x828(%rbp)
   1f398:	00 00 00 00 
   1f39c:	48 8d 05 41 7d 00 00 	lea    0x7d41(%rip),%rax        # 270e4 <g_350>
   1f3a3:	48 89 85 e0 f7 ff ff 	mov    %rax,-0x820(%rbp)
   1f3aa:	48 8d 05 e7 7c 00 00 	lea    0x7ce7(%rip),%rax        # 27098 <g_132>
   1f3b1:	48 89 85 e8 f7 ff ff 	mov    %rax,-0x818(%rbp)
   1f3b8:	48 8d 05 25 7d 00 00 	lea    0x7d25(%rip),%rax        # 270e4 <g_350>
   1f3bf:	48 89 85 f0 f7 ff ff 	mov    %rax,-0x810(%rbp)
   1f3c6:	48 8d 85 10 d7 ff ff 	lea    -0x28f0(%rbp),%rax
   1f3cd:	48 89 85 f8 f7 ff ff 	mov    %rax,-0x808(%rbp)
   1f3d4:	48 8d 05 09 7d 00 00 	lea    0x7d09(%rip),%rax        # 270e4 <g_350>
   1f3db:	48 89 85 00 f8 ff ff 	mov    %rax,-0x800(%rbp)
   1f3e2:	48 c7 85 08 f8 ff ff 	movq   $0x0,-0x7f8(%rbp)
   1f3e9:	00 00 00 00 
   1f3ed:	48 c7 85 10 f8 ff ff 	movq   $0x0,-0x7f0(%rbp)
   1f3f4:	00 00 00 00 
   1f3f8:	48 8d 05 e5 7c 00 00 	lea    0x7ce5(%rip),%rax        # 270e4 <g_350>
   1f3ff:	48 89 85 18 f8 ff ff 	mov    %rax,-0x7e8(%rbp)
   1f406:	48 8d 05 8b 7c 00 00 	lea    0x7c8b(%rip),%rax        # 27098 <g_132>
   1f40d:	48 89 85 20 f8 ff ff 	mov    %rax,-0x7e0(%rbp)
   1f414:	48 8d 85 10 d7 ff ff 	lea    -0x28f0(%rbp),%rax
   1f41b:	48 89 85 28 f8 ff ff 	mov    %rax,-0x7d8(%rbp)
   1f422:	48 8d 05 6f 7c 00 00 	lea    0x7c6f(%rip),%rax        # 27098 <g_132>
   1f429:	48 89 85 30 f8 ff ff 	mov    %rax,-0x7d0(%rbp)
   1f430:	48 8d 05 ad 7c 00 00 	lea    0x7cad(%rip),%rax        # 270e4 <g_350>
   1f437:	48 89 85 38 f8 ff ff 	mov    %rax,-0x7c8(%rbp)
   1f43e:	c7 85 48 d7 ff ff ff 	movl   $0xffffffff,-0x28b8(%rbp)
   1f445:	ff ff ff 
   1f448:	c7 85 4c d7 ff ff 1e 	movl   $0xd36c431e,-0x28b4(%rbp)
   1f44f:	43 6c d3 
   1f452:	c7 85 50 d7 ff ff 5d 	movl   $0x34aa9e5d,-0x28b0(%rbp)
   1f459:	9e aa 34 
   1f45c:	48 8d 05 8d 7c 00 00 	lea    0x7c8d(%rip),%rax        # 270f0 <g_515>
   1f463:	48 89 85 e0 d7 ff ff 	mov    %rax,-0x2820(%rbp)
   1f46a:	48 8d 85 e0 d7 ff ff 	lea    -0x2820(%rbp),%rax
   1f471:	48 89 85 80 d8 ff ff 	mov    %rax,-0x2780(%rbp)
   1f478:	c6 85 e3 d6 ff ff 92 	movb   $0x92,-0x291d(%rbp)
   1f47f:	48 8d 85 f4 d6 ff ff 	lea    -0x290c(%rbp),%rax
   1f486:	48 89 85 88 d8 ff ff 	mov    %rax,-0x2778(%rbp)
   1f48d:	48 8d 85 14 d7 ff ff 	lea    -0x28ec(%rbp),%rax
   1f494:	48 89 85 90 d8 ff ff 	mov    %rax,-0x2770(%rbp)
   1f49b:	c6 85 e4 d6 ff ff 00 	movb   $0x0,-0x291c(%rbp)
   1f4a2:	48 c7 85 e8 d7 ff ff 	movq   $0x0,-0x2818(%rbp)
   1f4a9:	00 00 00 00 
   1f4ad:	48 8d 85 e8 d7 ff ff 	lea    -0x2818(%rbp),%rax
   1f4b4:	48 89 85 b0 dc ff ff 	mov    %rax,-0x2350(%rbp)
   1f4bb:	48 8d 85 e8 d7 ff ff 	lea    -0x2818(%rbp),%rax
   1f4c2:	48 89 85 b8 dc ff ff 	mov    %rax,-0x2348(%rbp)
   1f4c9:	48 8d 85 e8 d7 ff ff 	lea    -0x2818(%rbp),%rax
   1f4d0:	48 89 85 c0 dc ff ff 	mov    %rax,-0x2340(%rbp)
   1f4d7:	48 8d 85 e8 d7 ff ff 	lea    -0x2818(%rbp),%rax
   1f4de:	48 89 85 c8 dc ff ff 	mov    %rax,-0x2338(%rbp)
   1f4e5:	48 8d 85 e8 d7 ff ff 	lea    -0x2818(%rbp),%rax
   1f4ec:	48 89 85 d0 dc ff ff 	mov    %rax,-0x2330(%rbp)
   1f4f3:	48 8d 85 e8 d7 ff ff 	lea    -0x2818(%rbp),%rax
   1f4fa:	48 89 85 d8 dc ff ff 	mov    %rax,-0x2328(%rbp)
   1f501:	48 8d 85 e8 d7 ff ff 	lea    -0x2818(%rbp),%rax
   1f508:	48 89 85 e0 dc ff ff 	mov    %rax,-0x2320(%rbp)
   1f50f:	48 8d 85 e8 d7 ff ff 	lea    -0x2818(%rbp),%rax
   1f516:	48 89 85 e8 dc ff ff 	mov    %rax,-0x2318(%rbp)
   1f51d:	48 8d 85 e8 d7 ff ff 	lea    -0x2818(%rbp),%rax
   1f524:	48 89 85 f0 dc ff ff 	mov    %rax,-0x2310(%rbp)
   1f52b:	48 8d 85 e8 d7 ff ff 	lea    -0x2818(%rbp),%rax
   1f532:	48 89 85 f8 dc ff ff 	mov    %rax,-0x2308(%rbp)
   1f539:	48 8d 85 e8 d7 ff ff 	lea    -0x2818(%rbp),%rax
   1f540:	48 89 85 00 dd ff ff 	mov    %rax,-0x2300(%rbp)
   1f547:	48 8d 85 e8 d7 ff ff 	lea    -0x2818(%rbp),%rax
   1f54e:	48 89 85 08 dd ff ff 	mov    %rax,-0x22f8(%rbp)
   1f555:	48 8d 85 e8 d7 ff ff 	lea    -0x2818(%rbp),%rax
   1f55c:	48 89 85 10 dd ff ff 	mov    %rax,-0x22f0(%rbp)
   1f563:	48 8d 85 e8 d7 ff ff 	lea    -0x2818(%rbp),%rax
   1f56a:	48 89 85 18 dd ff ff 	mov    %rax,-0x22e8(%rbp)
   1f571:	48 8d 85 e8 d7 ff ff 	lea    -0x2818(%rbp),%rax
   1f578:	48 89 85 20 dd ff ff 	mov    %rax,-0x22e0(%rbp)
   1f57f:	48 8d 85 e8 d7 ff ff 	lea    -0x2818(%rbp),%rax
   1f586:	48 89 85 28 dd ff ff 	mov    %rax,-0x22d8(%rbp)
   1f58d:	48 8d 85 e8 d7 ff ff 	lea    -0x2818(%rbp),%rax
   1f594:	48 89 85 30 dd ff ff 	mov    %rax,-0x22d0(%rbp)
   1f59b:	48 8d 85 e8 d7 ff ff 	lea    -0x2818(%rbp),%rax
   1f5a2:	48 89 85 38 dd ff ff 	mov    %rax,-0x22c8(%rbp)
   1f5a9:	48 8d 85 e8 d7 ff ff 	lea    -0x2818(%rbp),%rax
   1f5b0:	48 89 85 40 dd ff ff 	mov    %rax,-0x22c0(%rbp)
   1f5b7:	48 8d 85 e8 d7 ff ff 	lea    -0x2818(%rbp),%rax
   1f5be:	48 89 85 48 dd ff ff 	mov    %rax,-0x22b8(%rbp)
   1f5c5:	48 8d 05 1c 7b 00 00 	lea    0x7b1c(%rip),%rax        # 270e8 <g_423>
   1f5cc:	48 89 85 98 d8 ff ff 	mov    %rax,-0x2768(%rbp)
   1f5d3:	c7 85 54 d7 ff ff 00 	movl   $0x0,-0x28ac(%rbp)
   1f5da:	00 00 00 
   1f5dd:	c6 85 e5 d6 ff ff 01 	movb   $0x1,-0x291b(%rbp)
   1f5e4:	48 8d 85 0c d7 ff ff 	lea    -0x28f4(%rbp),%rax
   1f5eb:	48 89 85 f0 d7 ff ff 	mov    %rax,-0x2810(%rbp)
   1f5f2:	48 8d 85 f0 d7 ff ff 	lea    -0x2810(%rbp),%rax
   1f5f9:	48 89 85 a0 d8 ff ff 	mov    %rax,-0x2760(%rbp)
   1f600:	66 c7 85 f8 d6 ff ff 	movw   $0x2cf3,-0x2908(%rbp)
   1f607:	f3 2c 
   1f609:	48 b8 80 3e 1b 01 98 	movabs $0x4ac0e398011b3e80,%rax
   1f610:	e3 c0 4a 
   1f613:	48 89 85 a8 d8 ff ff 	mov    %rax,-0x2758(%rbp)
   1f61a:	c7 85 58 d7 ff ff ff 	movl   $0xffffffff,-0x28a8(%rbp)
   1f621:	ff ff ff 
   1f624:	c7 85 5c d7 ff ff 7a 	movl   $0x12b0027a,-0x28a4(%rbp)
   1f62b:	02 b0 12 
   1f62e:	c7 85 60 d7 ff ff 03 	movl   $0x811e0303,-0x28a0(%rbp)
   1f635:	03 1e 81 
   1f638:	c7 85 1c d7 ff ff ff 	movl   $0xffffffff,-0x28e4(%rbp)
   1f63f:	ff ff ff 
   1f642:	48 c7 85 b0 d8 ff ff 	movq   $0xffffffffffffffff,-0x2750(%rbp)
   1f649:	ff ff ff ff 
   1f64d:	c6 85 e6 d6 ff ff 59 	movb   $0x59,-0x291a(%rbp)
   1f654:	c6 85 e7 d6 ff ff f8 	movb   $0xf8,-0x2919(%rbp)
   1f65b:	66 c7 85 fa d6 ff ff 	movw   $0xfffd,-0x2906(%rbp)
   1f662:	fd ff 
   1f664:	c6 85 e8 d6 ff ff 06 	movb   $0x6,-0x2918(%rbp)
   1f66b:	c6 85 e9 d6 ff ff f8 	movb   $0xf8,-0x2917(%rbp)
   1f672:	c6 85 ea d6 ff ff 04 	movb   $0x4,-0x2916(%rbp)
   1f679:	c7 85 20 d7 ff ff ff 	movl   $0xffffffff,-0x28e0(%rbp)
   1f680:	ff ff ff 
   1f683:	c7 85 e0 da ff ff 95 	movl   $0x3019595,-0x2520(%rbp)
   1f68a:	95 01 03 
   1f68d:	66 c7 85 e4 da ff ff 	movw   $0x14b,-0x251c(%rbp)
   1f694:	4b 01 
   1f696:	c6 85 e6 da ff ff 4b 	movb   $0x4b,-0x251a(%rbp)
   1f69d:	c7 85 e7 da ff ff ff 	movl   $0xfffefeff,-0x2519(%rbp)
   1f6a4:	fe fe ff 
   1f6a7:	66 c7 85 eb da ff ff 	movw   $0xdfc2,-0x2515(%rbp)
   1f6ae:	c2 df 
   1f6b0:	c6 85 ed da ff ff ff 	movb   $0xff,-0x2513(%rbp)
   1f6b7:	c7 85 ee da ff ff 54 	movl   $0x9094b54,-0x2512(%rbp)
   1f6be:	4b 09 09 
   1f6c1:	66 c7 85 f2 da ff ff 	movw   $0x544b,-0x250e(%rbp)
   1f6c8:	4b 54 
   1f6ca:	c6 85 f4 da ff ff 00 	movb   $0x0,-0x250c(%rbp)
   1f6d1:	c7 85 f5 da ff ff 00 	movl   $0x2ff00,-0x250b(%rbp)
   1f6d8:	ff 02 00 
   1f6db:	66 c7 85 f9 da ff ff 	movw   $0x200,-0x2507(%rbp)
   1f6e2:	00 02 
   1f6e4:	c6 85 fb da ff ff ff 	movb   $0xff,-0x2505(%rbp)
   1f6eb:	c7 85 fc da ff ff 4b 	movl   $0x4b54004b,-0x2504(%rbp)
   1f6f2:	00 54 4b 
   1f6f5:	66 c7 85 00 db ff ff 	movw   $0x909,-0x2500(%rbp)
   1f6fc:	09 09 
   1f6fe:	c6 85 02 db ff ff 4b 	movb   $0x4b,-0x24fe(%rbp)
   1f705:	c7 85 03 db ff ff df 	movl   $0xc2dfffdf,-0x24fd(%rbp)
   1f70c:	ff df c2 
   1f70f:	66 c7 85 07 db ff ff 	movw   $0xfeff,-0x24f9(%rbp)
   1f716:	ff fe 
   1f718:	c6 85 09 db ff ff fe 	movb   $0xfe,-0x24f7(%rbp)
   1f71f:	c7 85 0a db ff ff 03 	movl   $0x4b014b03,-0x24f6(%rbp)
   1f726:	4b 01 4b 
   1f729:	66 c7 85 0e db ff ff 	movw   $0x103,-0x24f2(%rbp)
   1f730:	03 01 
   1f732:	c6 85 10 db ff ff 95 	movb   $0x95,-0x24f0(%rbp)
   1f739:	c6 85 eb d6 ff ff f6 	movb   $0xf6,-0x2915(%rbp)
   1f740:	66 c7 85 fc d6 ff ff 	movw   $0xf2b7,-0x2904(%rbp)
   1f747:	b7 f2 
   1f749:	66 c7 85 fe d6 ff ff 	movw   $0x1,-0x2902(%rbp)
   1f750:	01 00 
   1f752:	48 c7 85 b8 d8 ff ff 	movq   $0x1,-0x2748(%rbp)
   1f759:	01 00 00 00 
   1f75d:	66 c7 85 00 d7 ff ff 	movw   $0x9,-0x2900(%rbp)
   1f764:	09 00 
   1f766:	c6 85 ec d6 ff ff f6 	movb   $0xf6,-0x2914(%rbp)
   1f76d:	c7 85 64 d7 ff ff ff 	movl   $0xffffffff,-0x289c(%rbp)
   1f774:	ff ff ff 
   1f777:	48 b8 c8 be 44 7c 12 	movabs $0x3ce611127c44bec8,%rax
   1f77e:	11 e6 3c 
   1f781:	48 89 85 c0 d8 ff ff 	mov    %rax,-0x2740(%rbp)
   1f788:	48 8d 85 20 d7 ff ff 	lea    -0x28e0(%rbp),%rax
   1f78f:	48 89 85 c8 d8 ff ff 	mov    %rax,-0x2738(%rbp)
   1f796:	48 c7 85 d0 d8 ff ff 	movq   $0x0,-0x2730(%rbp)
   1f79d:	00 00 00 00 
   1f7a1:	48 c7 85 d8 d8 ff ff 	movq   $0x1,-0x2728(%rbp)
   1f7a8:	01 00 00 00 
   1f7ac:	c7 85 68 d7 ff ff 5b 	movl   $0xad6c325b,-0x2898(%rbp)
   1f7b3:	32 6c ad 
   1f7b6:	48 c7 85 e0 d8 ff ff 	movq   $0x9,-0x2720(%rbp)
   1f7bd:	09 00 00 00 
   1f7c1:	c7 85 6c d7 ff ff 01 	movl   $0x1,-0x2894(%rbp)
   1f7c8:	00 00 00 
   1f7cb:	48 8d 85 40 f8 ff ff 	lea    -0x7c0(%rbp),%rax
   1f7d2:	48 8d 15 87 37 00 00 	lea    0x3787(%rip),%rdx        # 22f60 <g_4473+0x1ef0>
   1f7d9:	b9 f5 00 00 00       	mov    $0xf5,%ecx
   1f7de:	48 89 c7             	mov    %rax,%rdi
   1f7e1:	48 89 d6             	mov    %rdx,%rsi
   1f7e4:	f3 48 a5             	rep movsq %ds:(%rsi),%es:(%rdi)
   1f7e7:	48 b8 ea 2e d4 47 c6 	movabs $0xcc04bc647d42eea,%rax
   1f7ee:	4b c0 0c 
   1f7f1:	48 89 85 e8 d8 ff ff 	mov    %rax,-0x2718(%rbp)
   1f7f8:	c7 85 70 d7 ff ff 27 	movl   $0x9045e927,-0x2890(%rbp)
   1f7ff:	e9 45 90 
   1f802:	c6 85 ed d6 ff ff 4f 	movb   $0x4f,-0x2913(%rbp)
   1f809:	c7 85 74 d7 ff ff aa 	movl   $0x2fb898aa,-0x288c(%rbp)
   1f810:	98 b8 2f 
   1f813:	c7 85 78 d7 ff ff cd 	movl   $0x4d1caccd,-0x2888(%rbp)
   1f81a:	ac 1c 4d 
   1f81d:	48 8d 85 d8 d7 ff ff 	lea    -0x2828(%rbp),%rax
   1f824:	48 89 85 f8 d7 ff ff 	mov    %rax,-0x2808(%rbp)
   1f82b:	48 c7 85 80 da ff ff 	movq   $0x0,-0x2580(%rbp)
   1f832:	00 00 00 00 
   1f836:	48 c7 85 88 da ff ff 	movq   $0x0,-0x2578(%rbp)
   1f83d:	00 00 00 00 
   1f841:	48 c7 85 90 da ff ff 	movq   $0x0,-0x2570(%rbp)
   1f848:	00 00 00 00 
   1f84c:	48 c7 85 98 da ff ff 	movq   $0x0,-0x2568(%rbp)
   1f853:	00 00 00 00 
   1f857:	48 c7 85 a0 da ff ff 	movq   $0x0,-0x2560(%rbp)
   1f85e:	00 00 00 00 
   1f862:	48 8d 85 1c d7 ff ff 	lea    -0x28e4(%rbp),%rax
   1f869:	48 89 85 f0 d8 ff ff 	mov    %rax,-0x2710(%rbp)
   1f870:	66 c7 85 02 d7 ff ff 	movw   $0x0,-0x28fe(%rbp)
   1f877:	00 00 
   1f879:	48 c7 85 f8 d8 ff ff 	movq   $0xffffffffffffffff,-0x2708(%rbp)
   1f880:	ff ff ff ff 
   1f884:	48 8d 85 f8 d7 ff ff 	lea    -0x2808(%rbp),%rax
   1f88b:	48 89 85 00 d9 ff ff 	mov    %rax,-0x2700(%rbp)
   1f892:	66 c7 85 04 d7 ff ff 	movw   $0xffff,-0x28fc(%rbp)
   1f899:	ff ff 
   1f89b:	c7 85 7c d7 ff ff 82 	movl   $0x2e8f2282,-0x2884(%rbp)
   1f8a2:	22 8f 2e 
   1f8a5:	66 c7 85 b0 d9 ff ff 	movw   $0x9,-0x2650(%rbp)
   1f8ac:	09 00 
   1f8ae:	66 c7 85 b2 d9 ff ff 	movw   $0xffff,-0x264e(%rbp)
   1f8b5:	ff ff 
   1f8b7:	66 c7 85 b4 d9 ff ff 	movw   $0x9,-0x264c(%rbp)
   1f8be:	09 00 
   1f8c0:	66 c7 85 b6 d9 ff ff 	movw   $0xfffc,-0x264a(%rbp)
   1f8c7:	fc ff 
   1f8c9:	66 c7 85 b8 d9 ff ff 	movw   $0xfffc,-0x2648(%rbp)
   1f8d0:	fc ff 
   1f8d2:	66 c7 85 ba d9 ff ff 	movw   $0x9,-0x2646(%rbp)
   1f8d9:	09 00 
   1f8db:	66 c7 85 bc d9 ff ff 	movw   $0xffff,-0x2644(%rbp)
   1f8e2:	ff ff 
   1f8e4:	66 c7 85 be d9 ff ff 	movw   $0x9,-0x2642(%rbp)
   1f8eb:	09 00 
   1f8ed:	66 c7 85 c0 d9 ff ff 	movw   $0xfffc,-0x2640(%rbp)
   1f8f4:	fc ff 
   1f8f6:	66 c7 85 c2 d9 ff ff 	movw   $0xfffc,-0x263e(%rbp)
   1f8fd:	fc ff 
   1f8ff:	c7 85 30 dc ff ff 05 	movl   $0x5,-0x23d0(%rbp)
   1f906:	00 00 00 
   1f909:	c7 85 34 dc ff ff 9a 	movl   $0x8d744e9a,-0x23cc(%rbp)
   1f910:	4e 74 8d 
   1f913:	c7 85 38 dc ff ff 02 	movl   $0x2,-0x23c8(%rbp)
   1f91a:	00 00 00 
   1f91d:	c7 85 3c dc ff ff c8 	movl   $0x42aa40c8,-0x23c4(%rbp)
   1f924:	40 aa 42 
   1f927:	c7 85 40 dc ff ff 02 	movl   $0x2,-0x23c0(%rbp)
   1f92e:	00 00 00 
   1f931:	c7 85 44 dc ff ff 9a 	movl   $0x8d744e9a,-0x23bc(%rbp)
   1f938:	4e 74 8d 
   1f93b:	c7 85 48 dc ff ff 05 	movl   $0x5,-0x23b8(%rbp)
   1f942:	00 00 00 
   1f945:	c7 85 4c dc ff ff 9a 	movl   $0x8d744e9a,-0x23b4(%rbp)
   1f94c:	4e 74 8d 
   1f94f:	c7 85 50 dc ff ff 02 	movl   $0x2,-0x23b0(%rbp)
   1f956:	00 00 00 
   1f959:	c7 85 54 dc ff ff c8 	movl   $0x42aa40c8,-0x23ac(%rbp)
   1f960:	40 aa 42 
   1f963:	c7 85 58 dc ff ff 02 	movl   $0x2,-0x23a8(%rbp)
   1f96a:	00 00 00 
   1f96d:	c7 85 5c dc ff ff 9a 	movl   $0x8d744e9a,-0x23a4(%rbp)
   1f974:	4e 74 8d 
   1f977:	c7 85 60 dc ff ff 05 	movl   $0x5,-0x23a0(%rbp)
   1f97e:	00 00 00 
   1f981:	c7 85 64 dc ff ff 9a 	movl   $0x8d744e9a,-0x239c(%rbp)
   1f988:	4e 74 8d 
   1f98b:	c7 85 68 dc ff ff 02 	movl   $0x2,-0x2398(%rbp)
   1f992:	00 00 00 
   1f995:	c7 85 6c dc ff ff c8 	movl   $0x42aa40c8,-0x2394(%rbp)
   1f99c:	40 aa 42 
   1f99f:	c7 85 70 dc ff ff 02 	movl   $0x2,-0x2390(%rbp)
   1f9a6:	00 00 00 
   1f9a9:	c7 85 74 dc ff ff 9a 	movl   $0x8d744e9a,-0x238c(%rbp)
   1f9b0:	4e 74 8d 
   1f9b3:	c7 85 78 dc ff ff 05 	movl   $0x5,-0x2388(%rbp)
   1f9ba:	00 00 00 
   1f9bd:	c7 85 7c dc ff ff 9a 	movl   $0x8d744e9a,-0x2384(%rbp)
   1f9c4:	4e 74 8d 
   1f9c7:	c7 85 80 dc ff ff 02 	movl   $0x2,-0x2380(%rbp)
   1f9ce:	00 00 00 
   1f9d1:	c7 85 84 dc ff ff c8 	movl   $0x42aa40c8,-0x237c(%rbp)
   1f9d8:	40 aa 42 
   1f9db:	c7 85 88 dc ff ff 02 	movl   $0x2,-0x2378(%rbp)
   1f9e2:	00 00 00 
   1f9e5:	c7 85 8c dc ff ff 9a 	movl   $0x8d744e9a,-0x2374(%rbp)
   1f9ec:	4e 74 8d 
   1f9ef:	c7 85 90 dc ff ff 05 	movl   $0x5,-0x2370(%rbp)
   1f9f6:	00 00 00 
   1f9f9:	c7 85 94 dc ff ff 9a 	movl   $0x8d744e9a,-0x236c(%rbp)
   1fa00:	4e 74 8d 
   1fa03:	c7 85 98 dc ff ff 02 	movl   $0x2,-0x2368(%rbp)
   1fa0a:	00 00 00 
   1fa0d:	c7 85 9c dc ff ff c8 	movl   $0x42aa40c8,-0x2364(%rbp)
   1fa14:	40 aa 42 
   1fa17:	c7 85 a0 dc ff ff 02 	movl   $0x2,-0x2360(%rbp)
   1fa1e:	00 00 00 
   1fa21:	c7 85 a4 dc ff ff 9a 	movl   $0x8d744e9a,-0x235c(%rbp)
   1fa28:	4e 74 8d 
   1fa2b:	48 8d 85 b8 d7 ff ff 	lea    -0x2848(%rbp),%rax
   1fa32:	48 89 85 30 da ff ff 	mov    %rax,-0x25d0(%rbp)
   1fa39:	48 8d 85 b8 d7 ff ff 	lea    -0x2848(%rbp),%rax
   1fa40:	48 89 85 38 da ff ff 	mov    %rax,-0x25c8(%rbp)
   1fa47:	48 8d 85 b8 d7 ff ff 	lea    -0x2848(%rbp),%rax
   1fa4e:	48 89 85 40 da ff ff 	mov    %rax,-0x25c0(%rbp)
   1fa55:	48 8d 85 b8 d7 ff ff 	lea    -0x2848(%rbp),%rax
   1fa5c:	48 89 85 48 da ff ff 	mov    %rax,-0x25b8(%rbp)
   1fa63:	c6 85 ee d6 ff ff 00 	movb   $0x0,-0x2912(%rbp)
   1fa6a:	c6 85 ef d6 ff ff ff 	movb   $0xff,-0x2911(%rbp)
   1fa71:	c6 85 f0 d6 ff ff 61 	movb   $0x61,-0x2910(%rbp)
   1fa78:	c7 85 80 d7 ff ff 9b 	movl   $0xe3b3909b,-0x2880(%rbp)
   1fa7f:	90 b3 e3 
   1fa82:	48 8d 85 0c d7 ff ff 	lea    -0x28f4(%rbp),%rax
   1fa89:	48 89 85 08 d9 ff ff 	mov    %rax,-0x26f8(%rbp)
   1fa90:	48 8d 85 c0 d7 ff ff 	lea    -0x2840(%rbp),%rax
   1fa97:	48 89 85 00 d8 ff ff 	mov    %rax,-0x2800(%rbp)
   1fa9e:	48 8d 85 00 d8 ff ff 	lea    -0x2800(%rbp),%rax
   1faa5:	48 89 85 08 d8 ff ff 	mov    %rax,-0x27f8(%rbp)
   1faac:	48 8d 85 08 d8 ff ff 	lea    -0x27f8(%rbp),%rax
   1fab3:	48 89 85 10 d9 ff ff 	mov    %rax,-0x26f0(%rbp)
   1faba:	c7 85 84 d7 ff ff 00 	movl   $0x0,-0x287c(%rbp)
   1fac1:	00 00 00 
   1fac4:	48 b8 25 d6 0e 83 dc 	movabs $0x66bac7dc830ed625,%rax
   1facb:	c7 ba 66 
   1face:	48 89 85 10 d8 ff ff 	mov    %rax,-0x27f0(%rbp)
   1fad5:	c7 85 88 d7 ff ff 89 	movl   $0xd66a5d89,-0x2878(%rbp)
   1fadc:	5d 6a d6 
   1fadf:	c7 85 8c d7 ff ff ca 	movl   $0xb00d5eca,-0x2874(%rbp)
   1fae6:	5e 0d b0 
   1fae9:	c6 85 f1 d6 ff ff 01 	movb   $0x1,-0x290f(%rbp)
   1faf0:	c6 85 f2 d6 ff ff 03 	movb   $0x3,-0x290e(%rbp)
   1faf7:	c7 85 90 d7 ff ff 00 	movl   $0xb19ec000,-0x2870(%rbp)
   1fafe:	c0 9e b1 
   1fb01:	c7 85 5e d9 ff ff 84 	movl   $0x2f840084,-0x26a2(%rbp)
   1fb08:	00 84 2f 
   1fb0b:	c6 85 62 d9 ff ff 2f 	movb   $0x2f,-0x269e(%rbp)
   1fb12:	c7 85 63 d9 ff ff 84 	movl   $0x2f840084,-0x269d(%rbp)
   1fb19:	00 84 2f 
   1fb1c:	c6 85 67 d9 ff ff 2f 	movb   $0x2f,-0x2699(%rbp)
   1fb23:	48 8d 85 30 de ff ff 	lea    -0x21d0(%rbp),%rax
   1fb2a:	48 8d 15 ef 3b 00 00 	lea    0x3bef(%rip),%rdx        # 23720 <g_4473+0x26b0>
   1fb31:	b9 1f 00 00 00       	mov    $0x1f,%ecx
   1fb36:	48 89 c7             	mov    %rax,%rdi
   1fb39:	48 89 d6             	mov    %rdx,%rsi
   1fb3c:	f3 48 a5             	rep movsq %ds:(%rsi),%es:(%rdi)
   1fb3f:	48 89 f2             	mov    %rsi,%rdx
   1fb42:	48 89 f8             	mov    %rdi,%rax
   1fb45:	8b 0a                	mov    (%rdx),%ecx
   1fb47:	89 08                	mov    %ecx,(%rax)
   1fb49:	48 8d 40 04          	lea    0x4(%rax),%rax
   1fb4d:	48 8d 52 04          	lea    0x4(%rdx),%rdx
   1fb51:	c7 85 94 d7 ff ff ff 	movl   $0xffffffff,-0x286c(%rbp)
   1fb58:	ff ff ff 
   1fb5b:	66 c7 85 06 d7 ff ff 	movw   $0x2edc,-0x28fa(%rbp)
   1fb62:	dc 2e 
   1fb64:	c7 85 98 d7 ff ff 01 	movl   $0x1,-0x2868(%rbp)
   1fb6b:	00 00 00 
   1fb6e:	48 8d 85 18 d7 ff ff 	lea    -0x28e8(%rbp),%rax
   1fb75:	48 89 85 18 d9 ff ff 	mov    %rax,-0x26e8(%rbp)
   1fb7c:	48 c7 85 b0 da ff ff 	movq   $0x0,-0x2550(%rbp)
   1fb83:	00 00 00 00 
   1fb87:	48 c7 85 b8 da ff ff 	movq   $0x0,-0x2548(%rbp)
   1fb8e:	00 00 00 00 
   1fb92:	48 c7 85 c0 da ff ff 	movq   $0x0,-0x2540(%rbp)
   1fb99:	00 00 00 00 
   1fb9d:	48 c7 85 c8 da ff ff 	movq   $0x0,-0x2538(%rbp)
   1fba4:	00 00 00 00 
   1fba8:	48 c7 85 d0 da ff ff 	movq   $0x0,-0x2530(%rbp)
   1fbaf:	00 00 00 00 
   1fbb3:	48 c7 85 d8 da ff ff 	movq   $0x0,-0x2528(%rbp)
   1fbba:	00 00 00 00 
   1fbbe:	48 8d 85 10 d8 ff ff 	lea    -0x27f0(%rbp),%rax
   1fbc5:	48 89 85 20 d9 ff ff 	mov    %rax,-0x26e0(%rbp)
   1fbcc:	48 b8 5a e7 f6 e4 71 	movabs $0xd28d1071e4f6e75a,%rax
   1fbd3:	10 8d d2 
   1fbd6:	48 89 85 28 d9 ff ff 	mov    %rax,-0x26d8(%rbp)
   1fbdd:	c7 85 9c d7 ff ff fc 	movl   $0xfffffffc,-0x2864(%rbp)
   1fbe4:	ff ff ff 
   1fbe7:	48 8d 05 b2 ae 00 00 	lea    0xaeb2(%rip),%rax        # 2aaa0 <g_935>
   1fbee:	48 89 85 18 d8 ff ff 	mov    %rax,-0x27e8(%rbp)
   1fbf5:	48 8d 85 18 d8 ff ff 	lea    -0x27e8(%rbp),%rax
   1fbfc:	48 89 85 30 d9 ff ff 	mov    %rax,-0x26d0(%rbp)
   1fc03:	48 8d 85 18 d8 ff ff 	lea    -0x27e8(%rbp),%rax
   1fc0a:	48 89 85 38 d9 ff ff 	mov    %rax,-0x26c8(%rbp)
   1fc11:	48 c7 85 40 d9 ff ff 	movq   $0xfffffffffffffffa,-0x26c0(%rbp)
   1fc18:	fa ff ff ff 
   1fc1c:	48 c7 85 48 d9 ff ff 	movq   $0x1,-0x26b8(%rbp)
   1fc23:	01 00 00 00 
   1fc27:	66 c7 85 08 d7 ff ff 	movw   $0xf122,-0x28f8(%rbp)
   1fc2e:	22 f1 
   1fc30:	48 b8 73 6c a7 26 d9 	movabs $0xbd5cd3d926a76c73,%rax
   1fc37:	d3 5c bd 
   1fc3a:	48 89 85 50 d9 ff ff 	mov    %rax,-0x26b0(%rbp)
   1fc41:	c6 85 f3 d6 ff ff 21 	movb   $0x21,-0x290d(%rbp)
   1fc48:	66 c7 85 0a d7 ff ff 	movw   $0xdca4,-0x28f6(%rbp)
   1fc4f:	a4 dc 
   1fc51:	48 8d 85 30 e3 ff ff 	lea    -0x1cd0(%rbp),%rax
   1fc58:	48 8d 15 c1 3b 00 00 	lea    0x3bc1(%rip),%rdx        # 23820 <g_4473+0x27b0>
   1fc5f:	b9 70 00 00 00       	mov    $0x70,%ecx
   1fc64:	48 89 c7             	mov    %rax,%rdi
   1fc67:	48 89 d6             	mov    %rdx,%rsi
   1fc6a:	f3 48 a5             	rep movsq %ds:(%rsi),%es:(%rdi)
   1fc6d:	c7 85 24 d7 ff ff 00 	movl   $0x0,-0x28dc(%rbp)
   1fc74:	00 00 00 
   1fc77:	eb 1e                	jmp    1fc97 <func_61+0x1f07>
   1fc79:	8b 85 24 d7 ff ff    	mov    -0x28dc(%rbp),%eax
   1fc7f:	48 98                	cltq   
   1fc81:	48 8d 95 b0 d7 ff ff 	lea    -0x2850(%rbp),%rdx
   1fc88:	48 89 94 c5 80 d9 ff 	mov    %rdx,-0x2680(%rbp,%rax,8)
   1fc8f:	ff 
   1fc90:	83 85 24 d7 ff ff 01 	addl   $0x1,-0x28dc(%rbp)
   1fc97:	83 bd 24 d7 ff ff 01 	cmpl   $0x1,-0x28dc(%rbp)
   1fc9e:	7e d9                	jle    1fc79 <func_61+0x1ee9>
   1fca0:	c7 85 24 d7 ff ff 00 	movl   $0x0,-0x28dc(%rbp)
   1fca7:	00 00 00 
   1fcaa:	eb 1b                	jmp    1fcc7 <func_61+0x1f37>
   1fcac:	8b 85 24 d7 ff ff    	mov    -0x28dc(%rbp),%eax
   1fcb2:	48 98                	cltq   
   1fcb4:	48 c7 84 c5 f0 d9 ff 	movq   $0xffffffffffffffff,-0x2610(%rbp,%rax,8)
   1fcbb:	ff ff ff ff ff 
   1fcc0:	83 85 24 d7 ff ff 01 	addl   $0x1,-0x28dc(%rbp)
   1fcc7:	83 bd 24 d7 ff ff 03 	cmpl   $0x3,-0x28dc(%rbp)
   1fcce:	7e dc                	jle    1fcac <func_61+0x1f1c>
   1fcd0:	c7 85 24 d7 ff ff 00 	movl   $0x0,-0x28dc(%rbp)
   1fcd7:	00 00 00 
   1fcda:	eb 1e                	jmp    1fcfa <func_61+0x1f6a>
   1fcdc:	8b 85 24 d7 ff ff    	mov    -0x28dc(%rbp),%eax
   1fce2:	48 98                	cltq   
   1fce4:	48 8d 95 f4 d6 ff ff 	lea    -0x290c(%rbp),%rdx
   1fceb:	48 89 94 c5 20 db ff 	mov    %rdx,-0x24e0(%rbp,%rax,8)
   1fcf2:	ff 
   1fcf3:	83 85 24 d7 ff ff 01 	addl   $0x1,-0x28dc(%rbp)
   1fcfa:	83 bd 24 d7 ff ff 06 	cmpl   $0x6,-0x28dc(%rbp)
   1fd01:	7e d9                	jle    1fcdc <func_61+0x1f4c>
   1fd03:	c7 85 24 d7 ff ff 00 	movl   $0x0,-0x28dc(%rbp)
   1fd0a:	00 00 00 
   1fd0d:	eb 1a                	jmp    1fd29 <func_61+0x1f99>
   1fd0f:	8b 85 24 d7 ff ff    	mov    -0x28dc(%rbp),%eax
   1fd15:	48 98                	cltq   
   1fd17:	c7 84 85 90 d9 ff ff 	movl   $0xffffffff,-0x2670(%rbp,%rax,4)
   1fd1e:	ff ff ff ff 
   1fd22:	83 85 24 d7 ff ff 01 	addl   $0x1,-0x28dc(%rbp)
   1fd29:	83 bd 24 d7 ff ff 04 	cmpl   $0x4,-0x28dc(%rbp)
   1fd30:	7e dd                	jle    1fd0f <func_61+0x1f7f>
   1fd32:	c7 85 24 d7 ff ff 00 	movl   $0x0,-0x28dc(%rbp)
   1fd39:	00 00 00 
   1fd3c:	eb 1a                	jmp    1fd58 <func_61+0x1fc8>
   1fd3e:	8b 85 24 d7 ff ff    	mov    -0x28dc(%rbp),%eax
   1fd44:	48 98                	cltq   
   1fd46:	c7 84 85 50 da ff ff 	movl   $0x1,-0x25b0(%rbp,%rax,4)
   1fd4d:	01 00 00 00 
   1fd51:	83 85 24 d7 ff ff 01 	addl   $0x1,-0x28dc(%rbp)
   1fd58:	83 bd 24 d7 ff ff 08 	cmpl   $0x8,-0x28dc(%rbp)
   1fd5f:	7e dd                	jle    1fd3e <func_61+0x1fae>
   1fd61:	c7 85 24 d7 ff ff 00 	movl   $0x0,-0x28dc(%rbp)
   1fd68:	00 00 00 
   1fd6b:	eb 46                	jmp    1fdb3 <func_61+0x2023>
   1fd6d:	c7 85 28 d7 ff ff 00 	movl   $0x0,-0x28d8(%rbp)
   1fd74:	00 00 00 
   1fd77:	eb 2a                	jmp    1fda3 <func_61+0x2013>
   1fd79:	8b 85 28 d7 ff ff    	mov    -0x28d8(%rbp),%eax
   1fd7f:	48 98                	cltq   
   1fd81:	8b 95 24 d7 ff ff    	mov    -0x28dc(%rbp),%edx
   1fd87:	48 63 d2             	movslq %edx,%rdx
   1fd8a:	48 c1 e2 03          	shl    $0x3,%rdx
   1fd8e:	48 01 d0             	add    %rdx,%rax
   1fd91:	c7 84 85 10 da ff ff 	movl   $0x1,-0x25f0(%rbp,%rax,4)
   1fd98:	01 00 00 00 
   1fd9c:	83 85 28 d7 ff ff 01 	addl   $0x1,-0x28d8(%rbp)
   1fda3:	83 bd 28 d7 ff ff 07 	cmpl   $0x7,-0x28d8(%rbp)
   1fdaa:	7e cd                	jle    1fd79 <func_61+0x1fe9>
   1fdac:	83 85 24 d7 ff ff 01 	addl   $0x1,-0x28dc(%rbp)
   1fdb3:	83 bd 24 d7 ff ff 00 	cmpl   $0x0,-0x28dc(%rbp)
   1fdba:	7e b1                	jle    1fd6d <func_61+0x1fdd>
   1fdbc:	c7 85 24 d7 ff ff 00 	movl   $0x0,-0x28dc(%rbp)
   1fdc3:	00 00 00 
   1fdc6:	eb 14                	jmp    1fddc <func_61+0x204c>
   1fdc8:	8b 85 24 d7 ff ff    	mov    -0x28dc(%rbp),%eax
   1fdce:	48 98                	cltq   
   1fdd0:	c6 44 05 ea c8       	movb   $0xc8,-0x16(%rbp,%rax,1)
   1fdd5:	83 85 24 d7 ff ff 01 	addl   $0x1,-0x28dc(%rbp)
   1fddc:	83 bd 24 d7 ff ff 04 	cmpl   $0x4,-0x28dc(%rbp)
   1fde3:	7e e3                	jle    1fdc8 <func_61+0x2038>
   1fde5:	c7 85 24 d7 ff ff 00 	movl   $0x0,-0x28dc(%rbp)
   1fdec:	00 00 00 
   1fdef:	eb 19                	jmp    1fe0a <func_61+0x207a>
   1fdf1:	8b 85 24 d7 ff ff    	mov    -0x28dc(%rbp),%eax
   1fdf7:	48 98                	cltq   
   1fdf9:	66 c7 84 45 5a d9 ff 	movw   $0xe9c4,-0x26a6(%rbp,%rax,2)
   1fe00:	ff c4 e9 
   1fe03:	83 85 24 d7 ff ff 01 	addl   $0x1,-0x28dc(%rbp)
   1fe0a:	83 bd 24 d7 ff ff 01 	cmpl   $0x1,-0x28dc(%rbp)
   1fe11:	7e de                	jle    1fdf1 <func_61+0x2061>
   1fe13:	c7 85 24 d7 ff ff 00 	movl   $0x0,-0x28dc(%rbp)
   1fe1a:	00 00 00 
   1fe1d:	eb 1a                	jmp    1fe39 <func_61+0x20a9>
   1fe1f:	8b 85 24 d7 ff ff    	mov    -0x28dc(%rbp),%eax
   1fe25:	48 98                	cltq   
   1fe27:	c7 84 85 68 d9 ff ff 	movl   $0xf0e7fde8,-0x2698(%rbp,%rax,4)
   1fe2e:	e8 fd e7 f0 
   1fe32:	83 85 24 d7 ff ff 01 	addl   $0x1,-0x28dc(%rbp)
   1fe39:	83 bd 24 d7 ff ff 02 	cmpl   $0x2,-0x28dc(%rbp)
   1fe40:	7e dd                	jle    1fe1f <func_61+0x208f>
   1fe42:	c7 85 24 d7 ff ff 00 	movl   $0x0,-0x28dc(%rbp)
   1fe49:	00 00 00 
   1fe4c:	eb 21                	jmp    1fe6f <func_61+0x20df>
   1fe4e:	8b 85 24 d7 ff ff    	mov    -0x28dc(%rbp),%eax
   1fe54:	48 98                	cltq   
   1fe56:	48 be 60 fd aa 18 20 	movabs $0xe58f2018aafd60,%rsi
   1fe5d:	8f e5 00 
   1fe60:	48 89 b4 c5 60 db ff 	mov    %rsi,-0x24a0(%rbp,%rax,8)
   1fe67:	ff 
   1fe68:	83 85 24 d7 ff ff 01 	addl   $0x1,-0x28dc(%rbp)
   1fe6f:	83 bd 24 d7 ff ff 06 	cmpl   $0x6,-0x28dc(%rbp)
   1fe76:	7e d6                	jle    1fe4e <func_61+0x20be>
   1fe78:	c7 85 24 d7 ff ff 00 	movl   $0x0,-0x28dc(%rbp)
   1fe7f:	00 00 00 
   1fe82:	eb 42                	jmp    1fec6 <func_61+0x2136>
   1fe84:	c7 85 28 d7 ff ff 00 	movl   $0x0,-0x28d8(%rbp)
   1fe8b:	00 00 00 
   1fe8e:	eb 26                	jmp    1feb6 <func_61+0x2126>
   1fe90:	8b 85 28 d7 ff ff    	mov    -0x28d8(%rbp),%eax
   1fe96:	48 63 d0             	movslq %eax,%rdx
   1fe99:	8b 85 24 d7 ff ff    	mov    -0x28dc(%rbp),%eax
   1fe9f:	48 98                	cltq   
   1fea1:	48 01 d0             	add    %rdx,%rax
   1fea4:	c7 84 85 74 d9 ff ff 	movl   $0xffffffff,-0x268c(%rbp,%rax,4)
   1feab:	ff ff ff ff 
   1feaf:	83 85 28 d7 ff ff 01 	addl   $0x1,-0x28d8(%rbp)
   1feb6:	83 bd 28 d7 ff ff 00 	cmpl   $0x0,-0x28d8(%rbp)
   1febd:	7e d1                	jle    1fe90 <func_61+0x2100>
   1febf:	83 85 24 d7 ff ff 01 	addl   $0x1,-0x28dc(%rbp)
   1fec6:	83 bd 24 d7 ff ff 02 	cmpl   $0x2,-0x28dc(%rbp)
   1fecd:	7e b5                	jle    1fe84 <func_61+0x20f4>
   1fecf:	48 8b 85 c0 d7 ff ff 	mov    -0x2840(%rbp),%rax
   1fed6:	48 8b 00             	mov    (%rax),%rax
   1fed9:	8b 00                	mov    (%rax),%eax
   1fedb:	48 98                	cltq   
   1fedd:	48 8b 7d f8          	mov    -0x8(%rbp),%rdi
   1fee1:	64 48 33 3c 25 28 00 	xor    %fs:0x28,%rdi
   1fee8:	00 00 
   1feea:	74 05                	je     1fef1 <func_61+0x2161>
   1feec:	e8 7f d1 fe ff       	callq  d070 <__stack_chk_fail@plt>
   1fef1:	c9                   	leaveq 
   1fef2:	c3                   	retq   

000000000001fef3 <main>:
   1fef3:	f3 0f 1e fa          	endbr64 
   1fef7:	55                   	push   %rbp
   1fef8:	48 89 e5             	mov    %rsp,%rbp
   1fefb:	48 83 ec 20          	sub    $0x20,%rsp
   1feff:	89 7d ec             	mov    %edi,-0x14(%rbp)
   1ff02:	48 89 75 e0          	mov    %rsi,-0x20(%rbp)
   1ff06:	c7 45 fc 00 00 00 00 	movl   $0x0,-0x4(%rbp)
   1ff0d:	83 7d ec 02          	cmpl   $0x2,-0x14(%rbp)
   1ff11:	75 25                	jne    1ff38 <main+0x45>
   1ff13:	48 8b 45 e0          	mov    -0x20(%rbp),%rax
   1ff17:	48 83 c0 08          	add    $0x8,%rax
   1ff1b:	48 8b 00             	mov    (%rax),%rax
   1ff1e:	48 8d 35 7b 3c 00 00 	lea    0x3c7b(%rip),%rsi        # 23ba0 <g_4473+0x2b30>
   1ff25:	48 89 c7             	mov    %rax,%rdi
   1ff28:	e8 63 d1 fe ff       	callq  d090 <strcmp@plt>
   1ff2d:	85 c0                	test   %eax,%eax
   1ff2f:	75 07                	jne    1ff38 <main+0x45>
   1ff31:	c7 45 fc 01 00 00 00 	movl   $0x1,-0x4(%rbp)
   1ff38:	e8 4c d2 fe ff       	callq  d189 <platform_main_begin>
   1ff3d:	e8 56 e6 fe ff       	callq  e598 <crc32_gentab>
   1ff42:	e8 6e e8 fe ff       	callq  e7b5 <func_1>
   1ff47:	8b 05 d7 70 00 00    	mov    0x70d7(%rip),%eax        # 27024 <g_8>
   1ff4d:	48 98                	cltq   
   1ff4f:	8b 55 fc             	mov    -0x4(%rbp),%edx
   1ff52:	48 8d 35 49 3c 00 00 	lea    0x3c49(%rip),%rsi        # 23ba2 <g_4473+0x2b32>
   1ff59:	48 89 c7             	mov    %rax,%rdi
   1ff5c:	e8 92 e7 fe ff       	callq  e6f3 <transparent_crc>
   1ff61:	c7 45 f0 00 00 00 00 	movl   $0x0,-0x10(%rbp)
   1ff68:	eb 4b                	jmp    1ffb5 <main+0xc2>
   1ff6a:	8b 45 f0             	mov    -0x10(%rbp),%eax
   1ff6d:	48 98                	cltq   
   1ff6f:	48 8d 14 85 00 00 00 	lea    0x0(,%rax,4),%rdx
   1ff76:	00 
   1ff77:	48 8d 05 c2 70 00 00 	lea    0x70c2(%rip),%rax        # 27040 <g_25>
   1ff7e:	8b 04 02             	mov    (%rdx,%rax,1),%eax
   1ff81:	48 98                	cltq   
   1ff83:	8b 55 fc             	mov    -0x4(%rbp),%edx
   1ff86:	48 8d 35 19 3c 00 00 	lea    0x3c19(%rip),%rsi        # 23ba6 <g_4473+0x2b36>
   1ff8d:	48 89 c7             	mov    %rax,%rdi
   1ff90:	e8 5e e7 fe ff       	callq  e6f3 <transparent_crc>
   1ff95:	83 7d fc 00          	cmpl   $0x0,-0x4(%rbp)
   1ff99:	74 16                	je     1ffb1 <main+0xbe>
   1ff9b:	8b 45 f0             	mov    -0x10(%rbp),%eax
   1ff9e:	89 c6                	mov    %eax,%esi
   1ffa0:	48 8d 3d 07 3c 00 00 	lea    0x3c07(%rip),%rdi        # 23bae <g_4473+0x2b3e>
   1ffa7:	b8 00 00 00 00       	mov    $0x0,%eax
   1ffac:	e8 cf d0 fe ff       	callq  d080 <printf@plt>
   1ffb1:	83 45 f0 01          	addl   $0x1,-0x10(%rbp)
   1ffb5:	83 7d f0 08          	cmpl   $0x8,-0x10(%rbp)
   1ffb9:	7e af                	jle    1ff6a <main+0x77>
   1ffbb:	8b 05 a3 70 00 00    	mov    0x70a3(%rip),%eax        # 27064 <g_50>
   1ffc1:	48 98                	cltq   
   1ffc3:	8b 55 fc             	mov    -0x4(%rbp),%edx
   1ffc6:	48 8d 35 ef 3b 00 00 	lea    0x3bef(%rip),%rsi        # 23bbc <g_4473+0x2b4c>
   1ffcd:	48 89 c7             	mov    %rax,%rdi
   1ffd0:	e8 1e e7 fe ff       	callq  e6f3 <transparent_crc>
   1ffd5:	0f b6 05 8c 70 00 00 	movzbl 0x708c(%rip),%eax        # 27068 <g_77>
   1ffdc:	48 0f be c0          	movsbq %al,%rax
   1ffe0:	8b 55 fc             	mov    -0x4(%rbp),%edx
   1ffe3:	48 8d 35 d7 3b 00 00 	lea    0x3bd7(%rip),%rsi        # 23bc1 <g_4473+0x2b51>
   1ffea:	48 89 c7             	mov    %rax,%rdi
   1ffed:	e8 01 e7 fe ff       	callq  e6f3 <transparent_crc>
   1fff2:	8b 05 74 70 00 00    	mov    0x7074(%rip),%eax        # 2706c <g_82>
   1fff8:	48 98                	cltq   
   1fffa:	8b 55 fc             	mov    -0x4(%rbp),%edx
   1fffd:	48 8d 35 c2 3b 00 00 	lea    0x3bc2(%rip),%rsi        # 23bc6 <g_4473+0x2b56>
   20004:	48 89 c7             	mov    %rax,%rdi
   20007:	e8 e7 e6 fe ff       	callq  e6f3 <transparent_crc>
   2000c:	8b 05 5e 70 00 00    	mov    0x705e(%rip),%eax        # 27070 <g_84>
   20012:	48 98                	cltq   
   20014:	8b 55 fc             	mov    -0x4(%rbp),%edx
   20017:	48 8d 35 ad 3b 00 00 	lea    0x3bad(%rip),%rsi        # 23bcb <g_4473+0x2b5b>
   2001e:	48 89 c7             	mov    %rax,%rdi
   20021:	e8 cd e6 fe ff       	callq  e6f3 <transparent_crc>
   20026:	0f b7 05 47 70 00 00 	movzwl 0x7047(%rip),%eax        # 27074 <g_86>
   2002d:	0f b7 c0             	movzwl %ax,%eax
   20030:	8b 55 fc             	mov    -0x4(%rbp),%edx
   20033:	48 8d 35 96 3b 00 00 	lea    0x3b96(%rip),%rsi        # 23bd0 <g_4473+0x2b60>
   2003a:	48 89 c7             	mov    %rax,%rdi
   2003d:	e8 b1 e6 fe ff       	callq  e6f3 <transparent_crc>
   20042:	8b 05 30 70 00 00    	mov    0x7030(%rip),%eax        # 27078 <g_105>
   20048:	48 98                	cltq   
   2004a:	8b 55 fc             	mov    -0x4(%rbp),%edx
   2004d:	48 8d 35 81 3b 00 00 	lea    0x3b81(%rip),%rsi        # 23bd5 <g_4473+0x2b65>
   20054:	48 89 c7             	mov    %rax,%rdi
   20057:	e8 97 e6 fe ff       	callq  e6f3 <transparent_crc>
   2005c:	48 8b 05 1d 70 00 00 	mov    0x701d(%rip),%rax        # 27080 <g_107>
   20063:	8b 55 fc             	mov    -0x4(%rbp),%edx
   20066:	48 8d 35 6e 3b 00 00 	lea    0x3b6e(%rip),%rsi        # 23bdb <g_4473+0x2b6b>
   2006d:	48 89 c7             	mov    %rax,%rdi
   20070:	e8 7e e6 fe ff       	callq  e6f3 <transparent_crc>
   20075:	48 8b 05 0c 70 00 00 	mov    0x700c(%rip),%rax        # 27088 <g_127>
   2007c:	48 89 c1             	mov    %rax,%rcx
   2007f:	8b 45 fc             	mov    -0x4(%rbp),%eax
   20082:	89 c2                	mov    %eax,%edx
   20084:	48 8d 35 56 3b 00 00 	lea    0x3b56(%rip),%rsi        # 23be1 <g_4473+0x2b71>
   2008b:	48 89 cf             	mov    %rcx,%rdi
   2008e:	e8 60 e6 fe ff       	callq  e6f3 <transparent_crc>
   20093:	48 8b 05 f6 6f 00 00 	mov    0x6ff6(%rip),%rax        # 27090 <g_129>
   2009a:	48 89 c1             	mov    %rax,%rcx
   2009d:	8b 45 fc             	mov    -0x4(%rbp),%eax
   200a0:	89 c2                	mov    %eax,%edx
   200a2:	48 8d 35 3e 3b 00 00 	lea    0x3b3e(%rip),%rsi        # 23be7 <g_4473+0x2b77>
   200a9:	48 89 cf             	mov    %rcx,%rdi
   200ac:	e8 42 e6 fe ff       	callq  e6f3 <transparent_crc>
   200b1:	8b 05 e1 6f 00 00    	mov    0x6fe1(%rip),%eax        # 27098 <g_132>
   200b7:	89 c1                	mov    %eax,%ecx
   200b9:	8b 45 fc             	mov    -0x4(%rbp),%eax
   200bc:	89 c2                	mov    %eax,%edx
   200be:	48 8d 35 28 3b 00 00 	lea    0x3b28(%rip),%rsi        # 23bed <g_4473+0x2b7d>
   200c5:	48 89 cf             	mov    %rcx,%rdi
   200c8:	e8 26 e6 fe ff       	callq  e6f3 <transparent_crc>
   200cd:	0f b6 05 c8 6f 00 00 	movzbl 0x6fc8(%rip),%eax        # 2709c <g_135>
   200d4:	48 0f be c0          	movsbq %al,%rax
   200d8:	8b 55 fc             	mov    -0x4(%rbp),%edx
   200db:	48 8d 35 11 3b 00 00 	lea    0x3b11(%rip),%rsi        # 23bf3 <g_4473+0x2b83>
   200e2:	48 89 c7             	mov    %rax,%rdi
   200e5:	e8 09 e6 fe ff       	callq  e6f3 <transparent_crc>
   200ea:	48 8b 05 af 6f 00 00 	mov    0x6faf(%rip),%rax        # 270a0 <g_150>
   200f1:	8b 55 fc             	mov    -0x4(%rbp),%edx
   200f4:	48 8d 35 fe 3a 00 00 	lea    0x3afe(%rip),%rsi        # 23bf9 <g_4473+0x2b89>
   200fb:	48 89 c7             	mov    %rax,%rdi
   200fe:	e8 f0 e5 fe ff       	callq  e6f3 <transparent_crc>
   20103:	0f b7 05 9e 6f 00 00 	movzwl 0x6f9e(%rip),%eax        # 270a8 <g_174>
   2010a:	48 0f bf c0          	movswq %ax,%rax
   2010e:	8b 55 fc             	mov    -0x4(%rbp),%edx
   20111:	48 8d 35 e7 3a 00 00 	lea    0x3ae7(%rip),%rsi        # 23bff <g_4473+0x2b8f>
   20118:	48 89 c7             	mov    %rax,%rdi
   2011b:	e8 d3 e5 fe ff       	callq  e6f3 <transparent_crc>
   20120:	0f b7 05 83 6f 00 00 	movzwl 0x6f83(%rip),%eax        # 270aa <g_177>
   20127:	0f b7 c0             	movzwl %ax,%eax
   2012a:	8b 55 fc             	mov    -0x4(%rbp),%edx
   2012d:	48 8d 35 d1 3a 00 00 	lea    0x3ad1(%rip),%rsi        # 23c05 <g_4473+0x2b95>
   20134:	48 89 c7             	mov    %rax,%rdi
   20137:	e8 b7 e5 fe ff       	callq  e6f3 <transparent_crc>
   2013c:	8b 05 6a 6f 00 00    	mov    0x6f6a(%rip),%eax        # 270ac <g_178>
   20142:	48 98                	cltq   
   20144:	8b 55 fc             	mov    -0x4(%rbp),%edx
   20147:	48 8d 35 bd 3a 00 00 	lea    0x3abd(%rip),%rsi        # 23c0b <g_4473+0x2b9b>
   2014e:	48 89 c7             	mov    %rax,%rdi
   20151:	e8 9d e5 fe ff       	callq  e6f3 <transparent_crc>
   20156:	0f b7 05 53 6f 00 00 	movzwl 0x6f53(%rip),%eax        # 270b0 <g_215>
   2015d:	48 0f bf c0          	movswq %ax,%rax
   20161:	8b 55 fc             	mov    -0x4(%rbp),%edx
   20164:	48 8d 35 a6 3a 00 00 	lea    0x3aa6(%rip),%rsi        # 23c11 <g_4473+0x2ba1>
   2016b:	48 89 c7             	mov    %rax,%rdi
   2016e:	e8 80 e5 fe ff       	callq  e6f3 <transparent_crc>
   20173:	8b 05 3b 6f 00 00    	mov    0x6f3b(%rip),%eax        # 270b4 <g_235>
   20179:	48 98                	cltq   
   2017b:	8b 55 fc             	mov    -0x4(%rbp),%edx
   2017e:	48 8d 35 92 3a 00 00 	lea    0x3a92(%rip),%rsi        # 23c17 <g_4473+0x2ba7>
   20185:	48 89 c7             	mov    %rax,%rdi
   20188:	e8 66 e5 fe ff       	callq  e6f3 <transparent_crc>
   2018d:	c7 45 f0 00 00 00 00 	movl   $0x0,-0x10(%rbp)
   20194:	e9 9c 00 00 00       	jmpq   20235 <main+0x342>
   20199:	c7 45 f4 00 00 00 00 	movl   $0x0,-0xc(%rbp)
   201a0:	e9 82 00 00 00       	jmpq   20227 <main+0x334>
   201a5:	c7 45 f8 00 00 00 00 	movl   $0x0,-0x8(%rbp)
   201ac:	eb 6f                	jmp    2021d <main+0x32a>
   201ae:	8b 45 f8             	mov    -0x8(%rbp),%eax
   201b1:	48 63 c8             	movslq %eax,%rcx
   201b4:	8b 45 f0             	mov    -0x10(%rbp),%eax
   201b7:	48 63 d0             	movslq %eax,%rdx
   201ba:	8b 45 f4             	mov    -0xc(%rbp),%eax
   201bd:	48 98                	cltq   
   201bf:	48 01 c2             	add    %rax,%rdx
   201c2:	48 89 d0             	mov    %rdx,%rax
   201c5:	48 c1 e0 03          	shl    $0x3,%rax
   201c9:	48 01 d0             	add    %rdx,%rax
   201cc:	48 01 c8             	add    %rcx,%rax
   201cf:	48 8d 14 85 00 00 00 	lea    0x0(,%rax,4),%rdx
   201d6:	00 
   201d7:	48 8d 05 e2 6e 00 00 	lea    0x6ee2(%rip),%rax        # 270c0 <g_343>
   201de:	8b 04 02             	mov    (%rdx,%rax,1),%eax
   201e1:	89 c1                	mov    %eax,%ecx
   201e3:	8b 45 fc             	mov    -0x4(%rbp),%eax
   201e6:	89 c2                	mov    %eax,%edx
   201e8:	48 8d 35 2e 3a 00 00 	lea    0x3a2e(%rip),%rsi        # 23c1d <g_4473+0x2bad>
   201ef:	48 89 cf             	mov    %rcx,%rdi
   201f2:	e8 fc e4 fe ff       	callq  e6f3 <transparent_crc>
   201f7:	83 7d fc 00          	cmpl   $0x0,-0x4(%rbp)
   201fb:	74 1c                	je     20219 <main+0x326>
   201fd:	8b 4d f8             	mov    -0x8(%rbp),%ecx
   20200:	8b 55 f4             	mov    -0xc(%rbp),%edx
   20203:	8b 45 f0             	mov    -0x10(%rbp),%eax
   20206:	89 c6                	mov    %eax,%esi
   20208:	48 8d 3d 1d 3a 00 00 	lea    0x3a1d(%rip),%rdi        # 23c2c <g_4473+0x2bbc>
   2020f:	b8 00 00 00 00       	mov    $0x0,%eax
   20214:	e8 67 ce fe ff       	callq  d080 <printf@plt>
   20219:	83 45 f8 01          	addl   $0x1,-0x8(%rbp)
   2021d:	83 7d f8 08          	cmpl   $0x8,-0x8(%rbp)
   20221:	7e 8b                	jle    201ae <main+0x2bb>
   20223:	83 45 f4 01          	addl   $0x1,-0xc(%rbp)
   20227:	83 7d f4 00          	cmpl   $0x0,-0xc(%rbp)
   2022b:	0f 8e 74 ff ff ff    	jle    201a5 <main+0x2b2>
   20231:	83 45 f0 01          	addl   $0x1,-0x10(%rbp)
   20235:	83 7d f0 00          	cmpl   $0x0,-0x10(%rbp)
   20239:	0f 8e 5a ff ff ff    	jle    20199 <main+0x2a6>
   2023f:	8b 05 9f 6e 00 00    	mov    0x6e9f(%rip),%eax        # 270e4 <g_350>
   20245:	89 c1                	mov    %eax,%ecx
   20247:	8b 45 fc             	mov    -0x4(%rbp),%eax
   2024a:	89 c2                	mov    %eax,%edx
   2024c:	48 8d 35 ef 39 00 00 	lea    0x39ef(%rip),%rsi        # 23c42 <g_4473+0x2bd2>
   20253:	48 89 cf             	mov    %rcx,%rdi
   20256:	e8 98 e4 fe ff       	callq  e6f3 <transparent_crc>
   2025b:	0f b7 05 86 6e 00 00 	movzwl 0x6e86(%rip),%eax        # 270e8 <g_423>
   20262:	0f b7 c0             	movzwl %ax,%eax
   20265:	8b 55 fc             	mov    -0x4(%rbp),%edx
   20268:	48 8d 35 d9 39 00 00 	lea    0x39d9(%rip),%rsi        # 23c48 <g_4473+0x2bd8>
   2026f:	48 89 c7             	mov    %rax,%rdi
   20272:	e8 7c e4 fe ff       	callq  e6f3 <transparent_crc>
   20277:	8b 05 6f 6e 00 00    	mov    0x6e6f(%rip),%eax        # 270ec <g_484>
   2027d:	89 c1                	mov    %eax,%ecx
   2027f:	8b 45 fc             	mov    -0x4(%rbp),%eax
   20282:	89 c2                	mov    %eax,%edx
   20284:	48 8d 35 c3 39 00 00 	lea    0x39c3(%rip),%rsi        # 23c4e <g_4473+0x2bde>
   2028b:	48 89 cf             	mov    %rcx,%rdi
   2028e:	e8 60 e4 fe ff       	callq  e6f3 <transparent_crc>
   20293:	8b 05 57 6e 00 00    	mov    0x6e57(%rip),%eax        # 270f0 <g_515>
   20299:	89 c1                	mov    %eax,%ecx
   2029b:	8b 45 fc             	mov    -0x4(%rbp),%eax
   2029e:	89 c2                	mov    %eax,%edx
   202a0:	48 8d 35 ad 39 00 00 	lea    0x39ad(%rip),%rsi        # 23c54 <g_4473+0x2be4>
   202a7:	48 89 cf             	mov    %rcx,%rdi
   202aa:	e8 44 e4 fe ff       	callq  e6f3 <transparent_crc>
   202af:	0f b7 05 3e 6e 00 00 	movzwl 0x6e3e(%rip),%eax        # 270f4 <g_525>
   202b6:	48 0f bf c0          	movswq %ax,%rax
   202ba:	8b 55 fc             	mov    -0x4(%rbp),%edx
   202bd:	48 8d 35 96 39 00 00 	lea    0x3996(%rip),%rsi        # 23c5a <g_4473+0x2bea>
   202c4:	48 89 c7             	mov    %rax,%rdi
   202c7:	e8 27 e4 fe ff       	callq  e6f3 <transparent_crc>
   202cc:	0f b7 05 23 6e 00 00 	movzwl 0x6e23(%rip),%eax        # 270f6 <g_620>
   202d3:	0f b7 c0             	movzwl %ax,%eax
   202d6:	8b 55 fc             	mov    -0x4(%rbp),%edx
   202d9:	48 8d 35 80 39 00 00 	lea    0x3980(%rip),%rsi        # 23c60 <g_4473+0x2bf0>
   202e0:	48 89 c7             	mov    %rax,%rdi
   202e3:	e8 0b e4 fe ff       	callq  e6f3 <transparent_crc>
   202e8:	8b 05 0a 6e 00 00    	mov    0x6e0a(%rip),%eax        # 270f8 <g_656>
   202ee:	89 c1                	mov    %eax,%ecx
   202f0:	8b 45 fc             	mov    -0x4(%rbp),%eax
   202f3:	89 c2                	mov    %eax,%edx
   202f5:	48 8d 35 6a 39 00 00 	lea    0x396a(%rip),%rsi        # 23c66 <g_4473+0x2bf6>
   202fc:	48 89 cf             	mov    %rcx,%rdi
   202ff:	e8 ef e3 fe ff       	callq  e6f3 <transparent_crc>
   20304:	c7 45 f0 00 00 00 00 	movl   $0x0,-0x10(%rbp)
   2030b:	eb 45                	jmp    20352 <main+0x45f>
   2030d:	8b 45 f0             	mov    -0x10(%rbp),%eax
   20310:	48 98                	cltq   
   20312:	48 8d 15 e3 6d 00 00 	lea    0x6de3(%rip),%rdx        # 270fc <g_695>
   20319:	0f b6 04 10          	movzbl (%rax,%rdx,1),%eax
   2031d:	0f b6 c0             	movzbl %al,%eax
   20320:	8b 55 fc             	mov    -0x4(%rbp),%edx
   20323:	48 8d 35 42 39 00 00 	lea    0x3942(%rip),%rsi        # 23c6c <g_4473+0x2bfc>
   2032a:	48 89 c7             	mov    %rax,%rdi
   2032d:	e8 c1 e3 fe ff       	callq  e6f3 <transparent_crc>
   20332:	83 7d fc 00          	cmpl   $0x0,-0x4(%rbp)
   20336:	74 16                	je     2034e <main+0x45b>
   20338:	8b 45 f0             	mov    -0x10(%rbp),%eax
   2033b:	89 c6                	mov    %eax,%esi
   2033d:	48 8d 3d 6a 38 00 00 	lea    0x386a(%rip),%rdi        # 23bae <g_4473+0x2b3e>
   20344:	b8 00 00 00 00       	mov    $0x0,%eax
   20349:	e8 32 cd fe ff       	callq  d080 <printf@plt>
   2034e:	83 45 f0 01          	addl   $0x1,-0x10(%rbp)
   20352:	83 7d f0 02          	cmpl   $0x2,-0x10(%rbp)
   20356:	7e b5                	jle    2030d <main+0x41a>
   20358:	48 8b 05 a1 6d 00 00 	mov    0x6da1(%rip),%rax        # 27100 <g_699>
   2035f:	48 89 c1             	mov    %rax,%rcx
   20362:	8b 45 fc             	mov    -0x4(%rbp),%eax
   20365:	89 c2                	mov    %eax,%edx
   20367:	48 8d 35 07 39 00 00 	lea    0x3907(%rip),%rsi        # 23c75 <g_4473+0x2c05>
   2036e:	48 89 cf             	mov    %rcx,%rdi
   20371:	e8 7d e3 fe ff       	callq  e6f3 <transparent_crc>
   20376:	0f b6 05 8b 6d 00 00 	movzbl 0x6d8b(%rip),%eax        # 27108 <g_700>
   2037d:	48 0f be c0          	movsbq %al,%rax
   20381:	8b 55 fc             	mov    -0x4(%rbp),%edx
   20384:	48 8d 35 f0 38 00 00 	lea    0x38f0(%rip),%rsi        # 23c7b <g_4473+0x2c0b>
   2038b:	48 89 c7             	mov    %rax,%rdi
   2038e:	e8 60 e3 fe ff       	callq  e6f3 <transparent_crc>
   20393:	0f b6 05 6f 6d 00 00 	movzbl 0x6d6f(%rip),%eax        # 27109 <g_802>
   2039a:	48 0f be c0          	movsbq %al,%rax
   2039e:	8b 55 fc             	mov    -0x4(%rbp),%edx
   203a1:	48 8d 35 d9 38 00 00 	lea    0x38d9(%rip),%rsi        # 23c81 <g_4473+0x2c11>
   203a8:	48 89 c7             	mov    %rax,%rdi
   203ab:	e8 43 e3 fe ff       	callq  e6f3 <transparent_crc>
   203b0:	8b 05 56 6d 00 00    	mov    0x6d56(%rip),%eax        # 2710c <g_818>
   203b6:	89 c1                	mov    %eax,%ecx
   203b8:	8b 45 fc             	mov    -0x4(%rbp),%eax
   203bb:	89 c2                	mov    %eax,%edx
   203bd:	48 8d 35 c3 38 00 00 	lea    0x38c3(%rip),%rsi        # 23c87 <g_4473+0x2c17>
   203c4:	48 89 cf             	mov    %rcx,%rdi
   203c7:	e8 27 e3 fe ff       	callq  e6f3 <transparent_crc>
   203cc:	c7 45 f0 00 00 00 00 	movl   $0x0,-0x10(%rbp)
   203d3:	eb 73                	jmp    20448 <main+0x555>
   203d5:	c7 45 f4 00 00 00 00 	movl   $0x0,-0xc(%rbp)
   203dc:	eb 60                	jmp    2043e <main+0x54b>
   203de:	8b 45 f4             	mov    -0xc(%rbp),%eax
   203e1:	48 63 c8             	movslq %eax,%rcx
   203e4:	8b 45 f0             	mov    -0x10(%rbp),%eax
   203e7:	48 63 d0             	movslq %eax,%rdx
   203ea:	48 89 d0             	mov    %rdx,%rax
   203ed:	48 c1 e0 02          	shl    $0x2,%rax
   203f1:	48 01 d0             	add    %rdx,%rax
   203f4:	48 8d 14 08          	lea    (%rax,%rcx,1),%rdx
   203f8:	48 8d 05 11 6d 00 00 	lea    0x6d11(%rip),%rax        # 27110 <g_899>
   203ff:	48 01 d0             	add    %rdx,%rax
   20402:	0f b6 00             	movzbl (%rax),%eax
   20405:	48 0f be c0          	movsbq %al,%rax
   20409:	8b 55 fc             	mov    -0x4(%rbp),%edx
   2040c:	48 8d 35 7a 38 00 00 	lea    0x387a(%rip),%rsi        # 23c8d <g_4473+0x2c1d>
   20413:	48 89 c7             	mov    %rax,%rdi
   20416:	e8 d8 e2 fe ff       	callq  e6f3 <transparent_crc>
   2041b:	83 7d fc 00          	cmpl   $0x0,-0x4(%rbp)
   2041f:	74 19                	je     2043a <main+0x547>
   20421:	8b 55 f4             	mov    -0xc(%rbp),%edx
   20424:	8b 45 f0             	mov    -0x10(%rbp),%eax
   20427:	89 c6                	mov    %eax,%esi
   20429:	48 8d 3d 69 38 00 00 	lea    0x3869(%rip),%rdi        # 23c99 <g_4473+0x2c29>
   20430:	b8 00 00 00 00       	mov    $0x0,%eax
   20435:	e8 46 cc fe ff       	callq  d080 <printf@plt>
   2043a:	83 45 f4 01          	addl   $0x1,-0xc(%rbp)
   2043e:	83 7d f4 04          	cmpl   $0x4,-0xc(%rbp)
   20442:	7e 9a                	jle    203de <main+0x4eb>
   20444:	83 45 f0 01          	addl   $0x1,-0x10(%rbp)
   20448:	83 7d f0 05          	cmpl   $0x5,-0x10(%rbp)
   2044c:	7e 87                	jle    203d5 <main+0x4e2>
   2044e:	8b 05 dc 6c 00 00    	mov    0x6cdc(%rip),%eax        # 27130 <g_941>
   20454:	89 c1                	mov    %eax,%ecx
   20456:	8b 45 fc             	mov    -0x4(%rbp),%eax
   20459:	89 c2                	mov    %eax,%edx
   2045b:	48 8d 35 49 38 00 00 	lea    0x3849(%rip),%rsi        # 23cab <g_4473+0x2c3b>
   20462:	48 89 cf             	mov    %rcx,%rdi
   20465:	e8 89 e2 fe ff       	callq  e6f3 <transparent_crc>
   2046a:	8b 05 c4 6c 00 00    	mov    0x6cc4(%rip),%eax        # 27134 <g_1023>
   20470:	89 c1                	mov    %eax,%ecx
   20472:	8b 45 fc             	mov    -0x4(%rbp),%eax
   20475:	89 c2                	mov    %eax,%edx
   20477:	48 8d 35 33 38 00 00 	lea    0x3833(%rip),%rsi        # 23cb1 <g_4473+0x2c41>
   2047e:	48 89 cf             	mov    %rcx,%rdi
   20481:	e8 6d e2 fe ff       	callq  e6f3 <transparent_crc>
   20486:	c7 45 f0 00 00 00 00 	movl   $0x0,-0x10(%rbp)
   2048d:	eb 4d                	jmp    204dc <main+0x5e9>
   2048f:	8b 45 f0             	mov    -0x10(%rbp),%eax
   20492:	48 98                	cltq   
   20494:	48 8d 14 85 00 00 00 	lea    0x0(,%rax,4),%rdx
   2049b:	00 
   2049c:	48 8d 05 95 6c 00 00 	lea    0x6c95(%rip),%rax        # 27138 <g_1099>
   204a3:	8b 04 02             	mov    (%rdx,%rax,1),%eax
   204a6:	89 c1                	mov    %eax,%ecx
   204a8:	8b 45 fc             	mov    -0x4(%rbp),%eax
   204ab:	89 c2                	mov    %eax,%edx
   204ad:	48 8d 35 04 38 00 00 	lea    0x3804(%rip),%rsi        # 23cb8 <g_4473+0x2c48>
   204b4:	48 89 cf             	mov    %rcx,%rdi
   204b7:	e8 37 e2 fe ff       	callq  e6f3 <transparent_crc>
   204bc:	83 7d fc 00          	cmpl   $0x0,-0x4(%rbp)
   204c0:	74 16                	je     204d8 <main+0x5e5>
   204c2:	8b 45 f0             	mov    -0x10(%rbp),%eax
   204c5:	89 c6                	mov    %eax,%esi
   204c7:	48 8d 3d e0 36 00 00 	lea    0x36e0(%rip),%rdi        # 23bae <g_4473+0x2b3e>
   204ce:	b8 00 00 00 00       	mov    $0x0,%eax
   204d3:	e8 a8 cb fe ff       	callq  d080 <printf@plt>
   204d8:	83 45 f0 01          	addl   $0x1,-0x10(%rbp)
   204dc:	83 7d f0 01          	cmpl   $0x1,-0x10(%rbp)
   204e0:	7e ad                	jle    2048f <main+0x59c>
   204e2:	48 8b 05 57 6c 00 00 	mov    0x6c57(%rip),%rax        # 27140 <g_1126>
   204e9:	8b 55 fc             	mov    -0x4(%rbp),%edx
   204ec:	48 8d 35 cf 37 00 00 	lea    0x37cf(%rip),%rsi        # 23cc2 <g_4473+0x2c52>
   204f3:	48 89 c7             	mov    %rax,%rdi
   204f6:	e8 f8 e1 fe ff       	callq  e6f3 <transparent_crc>
   204fb:	0f b6 05 46 6c 00 00 	movzbl 0x6c46(%rip),%eax        # 27148 <g_1393>
   20502:	0f b6 c0             	movzbl %al,%eax
   20505:	8b 55 fc             	mov    -0x4(%rbp),%edx
   20508:	48 8d 35 ba 37 00 00 	lea    0x37ba(%rip),%rsi        # 23cc9 <g_4473+0x2c59>
   2050f:	48 89 c7             	mov    %rax,%rdi
   20512:	e8 dc e1 fe ff       	callq  e6f3 <transparent_crc>
   20517:	c7 45 f0 00 00 00 00 	movl   $0x0,-0x10(%rbp)
   2051e:	eb 4d                	jmp    2056d <main+0x67a>
   20520:	8b 45 f0             	mov    -0x10(%rbp),%eax
   20523:	48 98                	cltq   
   20525:	48 8d 14 85 00 00 00 	lea    0x0(,%rax,4),%rdx
   2052c:	00 
   2052d:	48 8d 05 1c 6c 00 00 	lea    0x6c1c(%rip),%rax        # 27150 <g_1573>
   20534:	8b 04 02             	mov    (%rdx,%rax,1),%eax
   20537:	89 c1                	mov    %eax,%ecx
   20539:	8b 45 fc             	mov    -0x4(%rbp),%eax
   2053c:	89 c2                	mov    %eax,%edx
   2053e:	48 8d 35 8b 37 00 00 	lea    0x378b(%rip),%rsi        # 23cd0 <g_4473+0x2c60>
   20545:	48 89 cf             	mov    %rcx,%rdi
   20548:	e8 a6 e1 fe ff       	callq  e6f3 <transparent_crc>
   2054d:	83 7d fc 00          	cmpl   $0x0,-0x4(%rbp)
   20551:	74 16                	je     20569 <main+0x676>
   20553:	8b 45 f0             	mov    -0x10(%rbp),%eax
   20556:	89 c6                	mov    %eax,%esi
   20558:	48 8d 3d 4f 36 00 00 	lea    0x364f(%rip),%rdi        # 23bae <g_4473+0x2b3e>
   2055f:	b8 00 00 00 00       	mov    $0x0,%eax
   20564:	e8 17 cb fe ff       	callq  d080 <printf@plt>
   20569:	83 45 f0 01          	addl   $0x1,-0x10(%rbp)
   2056d:	83 7d f0 04          	cmpl   $0x4,-0x10(%rbp)
   20571:	7e ad                	jle    20520 <main+0x62d>
   20573:	b8 01 00 00 00       	mov    $0x1,%eax
   20578:	48 89 c1             	mov    %rax,%rcx
   2057b:	8b 45 fc             	mov    -0x4(%rbp),%eax
   2057e:	89 c2                	mov    %eax,%edx
   20580:	48 8d 35 53 37 00 00 	lea    0x3753(%rip),%rsi        # 23cda <g_4473+0x2c6a>
   20587:	48 89 cf             	mov    %rcx,%rdi
   2058a:	e8 64 e1 fe ff       	callq  e6f3 <transparent_crc>
   2058f:	8b 05 cf 6b 00 00    	mov    0x6bcf(%rip),%eax        # 27164 <g_2001>
   20595:	48 98                	cltq   
   20597:	8b 55 fc             	mov    -0x4(%rbp),%edx
   2059a:	48 8d 35 40 37 00 00 	lea    0x3740(%rip),%rsi        # 23ce1 <g_4473+0x2c71>
   205a1:	48 89 c7             	mov    %rax,%rdi
   205a4:	e8 4a e1 fe ff       	callq  e6f3 <transparent_crc>
   205a9:	8b 05 b9 6b 00 00    	mov    0x6bb9(%rip),%eax        # 27168 <g_2257>
   205af:	48 98                	cltq   
   205b1:	8b 55 fc             	mov    -0x4(%rbp),%edx
   205b4:	48 8d 35 2d 37 00 00 	lea    0x372d(%rip),%rsi        # 23ce8 <g_4473+0x2c78>
   205bb:	48 89 c7             	mov    %rax,%rdi
   205be:	e8 30 e1 fe ff       	callq  e6f3 <transparent_crc>
   205c3:	48 8b 05 a6 6b 00 00 	mov    0x6ba6(%rip),%rax        # 27170 <g_2417>
   205ca:	48 89 c1             	mov    %rax,%rcx
   205cd:	8b 45 fc             	mov    -0x4(%rbp),%eax
   205d0:	89 c2                	mov    %eax,%edx
   205d2:	48 8d 35 16 37 00 00 	lea    0x3716(%rip),%rsi        # 23cef <g_4473+0x2c7f>
   205d9:	48 89 cf             	mov    %rcx,%rdi
   205dc:	e8 12 e1 fe ff       	callq  e6f3 <transparent_crc>
   205e1:	0f b7 05 90 6b 00 00 	movzwl 0x6b90(%rip),%eax        # 27178 <g_2448>
   205e8:	0f b7 c0             	movzwl %ax,%eax
   205eb:	8b 55 fc             	mov    -0x4(%rbp),%edx
   205ee:	48 8d 35 01 37 00 00 	lea    0x3701(%rip),%rsi        # 23cf6 <g_4473+0x2c86>
   205f5:	48 89 c7             	mov    %rax,%rdi
   205f8:	e8 f6 e0 fe ff       	callq  e6f3 <transparent_crc>
   205fd:	c7 45 f0 00 00 00 00 	movl   $0x0,-0x10(%rbp)
   20604:	eb 73                	jmp    20679 <main+0x786>
   20606:	c7 45 f4 00 00 00 00 	movl   $0x0,-0xc(%rbp)
   2060d:	eb 60                	jmp    2066f <main+0x77c>
   2060f:	8b 45 f4             	mov    -0xc(%rbp),%eax
   20612:	48 63 c8             	movslq %eax,%rcx
   20615:	8b 45 f0             	mov    -0x10(%rbp),%eax
   20618:	48 63 d0             	movslq %eax,%rdx
   2061b:	48 89 d0             	mov    %rdx,%rax
   2061e:	48 c1 e0 03          	shl    $0x3,%rax
   20622:	48 01 d0             	add    %rdx,%rax
   20625:	48 8d 14 08          	lea    (%rax,%rcx,1),%rdx
   20629:	48 8d 05 50 6b 00 00 	lea    0x6b50(%rip),%rax        # 27180 <g_2495>
   20630:	48 01 d0             	add    %rdx,%rax
   20633:	0f b6 00             	movzbl (%rax),%eax
   20636:	48 0f be c0          	movsbq %al,%rax
   2063a:	8b 55 fc             	mov    -0x4(%rbp),%edx
   2063d:	48 8d 35 b9 36 00 00 	lea    0x36b9(%rip),%rsi        # 23cfd <g_4473+0x2c8d>
   20644:	48 89 c7             	mov    %rax,%rdi
   20647:	e8 a7 e0 fe ff       	callq  e6f3 <transparent_crc>
   2064c:	83 7d fc 00          	cmpl   $0x0,-0x4(%rbp)
   20650:	74 19                	je     2066b <main+0x778>
   20652:	8b 55 f4             	mov    -0xc(%rbp),%edx
   20655:	8b 45 f0             	mov    -0x10(%rbp),%eax
   20658:	89 c6                	mov    %eax,%esi
   2065a:	48 8d 3d 38 36 00 00 	lea    0x3638(%rip),%rdi        # 23c99 <g_4473+0x2c29>
   20661:	b8 00 00 00 00       	mov    $0x0,%eax
   20666:	e8 15 ca fe ff       	callq  d080 <printf@plt>
   2066b:	83 45 f4 01          	addl   $0x1,-0xc(%rbp)
   2066f:	83 7d f4 08          	cmpl   $0x8,-0xc(%rbp)
   20673:	7e 9a                	jle    2060f <main+0x71c>
   20675:	83 45 f0 01          	addl   $0x1,-0x10(%rbp)
   20679:	83 7d f0 00          	cmpl   $0x0,-0x10(%rbp)
   2067d:	7e 87                	jle    20606 <main+0x713>
   2067f:	8b 05 07 6b 00 00    	mov    0x6b07(%rip),%eax        # 2718c <g_2520>
   20685:	48 98                	cltq   
   20687:	8b 55 fc             	mov    -0x4(%rbp),%edx
   2068a:	48 8d 35 79 36 00 00 	lea    0x3679(%rip),%rsi        # 23d0a <g_4473+0x2c9a>
   20691:	48 89 c7             	mov    %rax,%rdi
   20694:	e8 5a e0 fe ff       	callq  e6f3 <transparent_crc>
   20699:	0f b7 05 f0 6a 00 00 	movzwl 0x6af0(%rip),%eax        # 27190 <g_2686>
   206a0:	48 0f bf c0          	movswq %ax,%rax
   206a4:	8b 55 fc             	mov    -0x4(%rbp),%edx
   206a7:	48 8d 35 63 36 00 00 	lea    0x3663(%rip),%rsi        # 23d11 <g_4473+0x2ca1>
   206ae:	48 89 c7             	mov    %rax,%rdi
   206b1:	e8 3d e0 fe ff       	callq  e6f3 <transparent_crc>
   206b6:	8b 05 d8 6a 00 00    	mov    0x6ad8(%rip),%eax        # 27194 <g_2690>
   206bc:	48 98                	cltq   
   206be:	8b 55 fc             	mov    -0x4(%rbp),%edx
   206c1:	48 8d 35 50 36 00 00 	lea    0x3650(%rip),%rsi        # 23d18 <g_4473+0x2ca8>
   206c8:	48 89 c7             	mov    %rax,%rdi
   206cb:	e8 23 e0 fe ff       	callq  e6f3 <transparent_crc>
   206d0:	c7 45 f0 00 00 00 00 	movl   $0x0,-0x10(%rbp)
   206d7:	e9 9e 00 00 00       	jmpq   2077a <main+0x887>
   206dc:	c7 45 f4 00 00 00 00 	movl   $0x0,-0xc(%rbp)
   206e3:	e9 84 00 00 00       	jmpq   2076c <main+0x879>
   206e8:	c7 45 f8 00 00 00 00 	movl   $0x0,-0x8(%rbp)
   206ef:	eb 71                	jmp    20762 <main+0x86f>
   206f1:	8b 45 f8             	mov    -0x8(%rbp),%eax
   206f4:	48 63 c8             	movslq %eax,%rcx
   206f7:	8b 45 f0             	mov    -0x10(%rbp),%eax
   206fa:	48 63 d0             	movslq %eax,%rdx
   206fd:	8b 45 f4             	mov    -0xc(%rbp),%eax
   20700:	48 63 f0             	movslq %eax,%rsi
   20703:	48 89 d0             	mov    %rdx,%rax
   20706:	48 01 c0             	add    %rax,%rax
   20709:	48 01 d0             	add    %rdx,%rax
   2070c:	48 01 c0             	add    %rax,%rax
   2070f:	48 01 f0             	add    %rsi,%rax
   20712:	48 c1 e0 02          	shl    $0x2,%rax
   20716:	48 8d 14 08          	lea    (%rax,%rcx,1),%rdx
   2071a:	48 8d 05 7f 6a 00 00 	lea    0x6a7f(%rip),%rax        # 271a0 <g_2842>
   20721:	48 01 d0             	add    %rdx,%rax
   20724:	0f b6 00             	movzbl (%rax),%eax
   20727:	0f b6 c0             	movzbl %al,%eax
   2072a:	8b 55 fc             	mov    -0x4(%rbp),%edx
   2072d:	48 8d 35 eb 35 00 00 	lea    0x35eb(%rip),%rsi        # 23d1f <g_4473+0x2caf>
   20734:	48 89 c7             	mov    %rax,%rdi
   20737:	e8 b7 df fe ff       	callq  e6f3 <transparent_crc>
   2073c:	83 7d fc 00          	cmpl   $0x0,-0x4(%rbp)
   20740:	74 1c                	je     2075e <main+0x86b>
   20742:	8b 4d f8             	mov    -0x8(%rbp),%ecx
   20745:	8b 55 f4             	mov    -0xc(%rbp),%edx
   20748:	8b 45 f0             	mov    -0x10(%rbp),%eax
   2074b:	89 c6                	mov    %eax,%esi
   2074d:	48 8d 3d d8 34 00 00 	lea    0x34d8(%rip),%rdi        # 23c2c <g_4473+0x2bbc>
   20754:	b8 00 00 00 00       	mov    $0x0,%eax
   20759:	e8 22 c9 fe ff       	callq  d080 <printf@plt>
   2075e:	83 45 f8 01          	addl   $0x1,-0x8(%rbp)
   20762:	83 7d f8 03          	cmpl   $0x3,-0x8(%rbp)
   20766:	7e 89                	jle    206f1 <main+0x7fe>
   20768:	83 45 f4 01          	addl   $0x1,-0xc(%rbp)
   2076c:	83 7d f4 05          	cmpl   $0x5,-0xc(%rbp)
   20770:	0f 8e 72 ff ff ff    	jle    206e8 <main+0x7f5>
   20776:	83 45 f0 01          	addl   $0x1,-0x10(%rbp)
   2077a:	83 7d f0 07          	cmpl   $0x7,-0x10(%rbp)
   2077e:	0f 8e 58 ff ff ff    	jle    206dc <main+0x7e9>
   20784:	8b 05 d6 6a 00 00    	mov    0x6ad6(%rip),%eax        # 27260 <g_3270>
   2078a:	48 98                	cltq   
   2078c:	8b 55 fc             	mov    -0x4(%rbp),%edx
   2078f:	48 8d 35 99 35 00 00 	lea    0x3599(%rip),%rsi        # 23d2f <g_4473+0x2cbf>
   20796:	48 89 c7             	mov    %rax,%rdi
   20799:	e8 55 df fe ff       	callq  e6f3 <transparent_crc>
   2079e:	8b 05 c0 6a 00 00    	mov    0x6ac0(%rip),%eax        # 27264 <g_3271>
   207a4:	89 c1                	mov    %eax,%ecx
   207a6:	8b 45 fc             	mov    -0x4(%rbp),%eax
   207a9:	89 c2                	mov    %eax,%edx
   207ab:	48 8d 35 84 35 00 00 	lea    0x3584(%rip),%rsi        # 23d36 <g_4473+0x2cc6>
   207b2:	48 89 cf             	mov    %rcx,%rdi
   207b5:	e8 39 df fe ff       	callq  e6f3 <transparent_crc>
   207ba:	48 8b 05 a7 6a 00 00 	mov    0x6aa7(%rip),%rax        # 27268 <g_3382>
   207c1:	48 89 c1             	mov    %rax,%rcx
   207c4:	8b 45 fc             	mov    -0x4(%rbp),%eax
   207c7:	89 c2                	mov    %eax,%edx
   207c9:	48 8d 35 6d 35 00 00 	lea    0x356d(%rip),%rsi        # 23d3d <g_4473+0x2ccd>
   207d0:	48 89 cf             	mov    %rcx,%rdi
   207d3:	e8 1b df fe ff       	callq  e6f3 <transparent_crc>
   207d8:	48 8b 05 91 6a 00 00 	mov    0x6a91(%rip),%rax        # 27270 <g_3436>
   207df:	8b 55 fc             	mov    -0x4(%rbp),%edx
   207e2:	48 8d 35 5b 35 00 00 	lea    0x355b(%rip),%rsi        # 23d44 <g_4473+0x2cd4>
   207e9:	48 89 c7             	mov    %rax,%rdi
   207ec:	e8 02 df fe ff       	callq  e6f3 <transparent_crc>
   207f1:	8b 05 81 6a 00 00    	mov    0x6a81(%rip),%eax        # 27278 <g_3511>
   207f7:	48 98                	cltq   
   207f9:	8b 55 fc             	mov    -0x4(%rbp),%edx
   207fc:	48 8d 35 48 35 00 00 	lea    0x3548(%rip),%rsi        # 23d4b <g_4473+0x2cdb>
   20803:	48 89 c7             	mov    %rax,%rdi
   20806:	e8 e8 de fe ff       	callq  e6f3 <transparent_crc>
   2080b:	0f b6 05 6a 6a 00 00 	movzbl 0x6a6a(%rip),%eax        # 2727c <g_3575>
   20812:	0f b6 c0             	movzbl %al,%eax
   20815:	8b 55 fc             	mov    -0x4(%rbp),%edx
   20818:	48 8d 35 33 35 00 00 	lea    0x3533(%rip),%rsi        # 23d52 <g_4473+0x2ce2>
   2081f:	48 89 c7             	mov    %rax,%rdi
   20822:	e8 cc de fe ff       	callq  e6f3 <transparent_crc>
   20827:	c7 45 f0 00 00 00 00 	movl   $0x0,-0x10(%rbp)
   2082e:	eb 45                	jmp    20875 <main+0x982>
   20830:	8b 45 f0             	mov    -0x10(%rbp),%eax
   20833:	48 98                	cltq   
   20835:	48 8d 15 44 6a 00 00 	lea    0x6a44(%rip),%rdx        # 27280 <g_3603>
   2083c:	0f b6 04 10          	movzbl (%rax,%rdx,1),%eax
   20840:	0f b6 c0             	movzbl %al,%eax
   20843:	8b 55 fc             	mov    -0x4(%rbp),%edx
   20846:	48 8d 35 0c 35 00 00 	lea    0x350c(%rip),%rsi        # 23d59 <g_4473+0x2ce9>
   2084d:	48 89 c7             	mov    %rax,%rdi
   20850:	e8 9e de fe ff       	callq  e6f3 <transparent_crc>
   20855:	83 7d fc 00          	cmpl   $0x0,-0x4(%rbp)
   20859:	74 16                	je     20871 <main+0x97e>
   2085b:	8b 45 f0             	mov    -0x10(%rbp),%eax
   2085e:	89 c6                	mov    %eax,%esi
   20860:	48 8d 3d 47 33 00 00 	lea    0x3347(%rip),%rdi        # 23bae <g_4473+0x2b3e>
   20867:	b8 00 00 00 00       	mov    $0x0,%eax
   2086c:	e8 0f c8 fe ff       	callq  d080 <printf@plt>
   20871:	83 45 f0 01          	addl   $0x1,-0x10(%rbp)
   20875:	83 7d f0 09          	cmpl   $0x9,-0x10(%rbp)
   20879:	7e b5                	jle    20830 <main+0x93d>
   2087b:	0f b6 05 08 6a 00 00 	movzbl 0x6a08(%rip),%eax        # 2728a <g_3712>
   20882:	48 0f be c0          	movsbq %al,%rax
   20886:	8b 55 fc             	mov    -0x4(%rbp),%edx
   20889:	48 8d 35 d3 34 00 00 	lea    0x34d3(%rip),%rsi        # 23d63 <g_4473+0x2cf3>
   20890:	48 89 c7             	mov    %rax,%rdi
   20893:	e8 5b de fe ff       	callq  e6f3 <transparent_crc>
   20898:	48 8b 05 f1 69 00 00 	mov    0x69f1(%rip),%rax        # 27290 <g_3748>
   2089f:	8b 55 fc             	mov    -0x4(%rbp),%edx
   208a2:	48 8d 35 c1 34 00 00 	lea    0x34c1(%rip),%rsi        # 23d6a <g_4473+0x2cfa>
   208a9:	48 89 c7             	mov    %rax,%rdi
   208ac:	e8 42 de fe ff       	callq  e6f3 <transparent_crc>
   208b1:	8b 05 e1 69 00 00    	mov    0x69e1(%rip),%eax        # 27298 <g_3768>
   208b7:	89 c1                	mov    %eax,%ecx
   208b9:	8b 45 fc             	mov    -0x4(%rbp),%eax
   208bc:	89 c2                	mov    %eax,%edx
   208be:	48 8d 35 ac 34 00 00 	lea    0x34ac(%rip),%rsi        # 23d71 <g_4473+0x2d01>
   208c5:	48 89 cf             	mov    %rcx,%rdi
   208c8:	e8 26 de fe ff       	callq  e6f3 <transparent_crc>
   208cd:	8b 05 c9 69 00 00    	mov    0x69c9(%rip),%eax        # 2729c <g_3777>
   208d3:	48 98                	cltq   
   208d5:	8b 55 fc             	mov    -0x4(%rbp),%edx
   208d8:	48 8d 35 99 34 00 00 	lea    0x3499(%rip),%rsi        # 23d78 <g_4473+0x2d08>
   208df:	48 89 c7             	mov    %rax,%rdi
   208e2:	e8 0c de fe ff       	callq  e6f3 <transparent_crc>
   208e7:	0f b6 05 b2 69 00 00 	movzbl 0x69b2(%rip),%eax        # 272a0 <g_3875>
   208ee:	0f b6 c0             	movzbl %al,%eax
   208f1:	8b 55 fc             	mov    -0x4(%rbp),%edx
   208f4:	48 8d 35 84 34 00 00 	lea    0x3484(%rip),%rsi        # 23d7f <g_4473+0x2d0f>
   208fb:	48 89 c7             	mov    %rax,%rdi
   208fe:	e8 f0 dd fe ff       	callq  e6f3 <transparent_crc>
   20903:	8b 05 9b 69 00 00    	mov    0x699b(%rip),%eax        # 272a4 <g_3962>
   20909:	89 c1                	mov    %eax,%ecx
   2090b:	8b 45 fc             	mov    -0x4(%rbp),%eax
   2090e:	89 c2                	mov    %eax,%edx
   20910:	48 8d 35 6f 34 00 00 	lea    0x346f(%rip),%rsi        # 23d86 <g_4473+0x2d16>
   20917:	48 89 cf             	mov    %rcx,%rdi
   2091a:	e8 d4 dd fe ff       	callq  e6f3 <transparent_crc>
   2091f:	0f b7 05 82 69 00 00 	movzwl 0x6982(%rip),%eax        # 272a8 <g_4171>
   20926:	0f b7 c0             	movzwl %ax,%eax
   20929:	8b 55 fc             	mov    -0x4(%rbp),%edx
   2092c:	48 8d 35 5a 34 00 00 	lea    0x345a(%rip),%rsi        # 23d8d <g_4473+0x2d1d>
   20933:	48 89 c7             	mov    %rax,%rdi
   20936:	e8 b8 dd fe ff       	callq  e6f3 <transparent_crc>
   2093b:	8b 05 6b 69 00 00    	mov    0x696b(%rip),%eax        # 272ac <g_4408>
   20941:	48 98                	cltq   
   20943:	8b 55 fc             	mov    -0x4(%rbp),%edx
   20946:	48 8d 35 47 34 00 00 	lea    0x3447(%rip),%rsi        # 23d94 <g_4473+0x2d24>
   2094d:	48 89 c7             	mov    %rax,%rdi
   20950:	e8 9e dd fe ff       	callq  e6f3 <transparent_crc>
   20955:	8b 05 55 69 00 00    	mov    0x6955(%rip),%eax        # 272b0 <g_4426>
   2095b:	89 c1                	mov    %eax,%ecx
   2095d:	8b 45 fc             	mov    -0x4(%rbp),%eax
   20960:	89 c2                	mov    %eax,%edx
   20962:	48 8d 35 32 34 00 00 	lea    0x3432(%rip),%rsi        # 23d9b <g_4473+0x2d2b>
   20969:	48 89 cf             	mov    %rcx,%rdi
   2096c:	e8 82 dd fe ff       	callq  e6f3 <transparent_crc>
   20971:	c7 45 f0 00 00 00 00 	movl   $0x0,-0x10(%rbp)
   20978:	eb 74                	jmp    209ee <main+0xafb>
   2097a:	c7 45 f4 00 00 00 00 	movl   $0x0,-0xc(%rbp)
   20981:	eb 61                	jmp    209e4 <main+0xaf1>
   20983:	8b 45 f4             	mov    -0xc(%rbp),%eax
   20986:	48 63 c8             	movslq %eax,%rcx
   20989:	8b 45 f0             	mov    -0x10(%rbp),%eax
   2098c:	48 63 d0             	movslq %eax,%rdx
   2098f:	48 89 d0             	mov    %rdx,%rax
   20992:	48 01 c0             	add    %rax,%rax
   20995:	48 01 d0             	add    %rdx,%rax
   20998:	48 01 c8             	add    %rcx,%rax
   2099b:	48 8d 14 85 00 00 00 	lea    0x0(,%rax,4),%rdx
   209a2:	00 
   209a3:	48 8d 05 16 69 00 00 	lea    0x6916(%rip),%rax        # 272c0 <g_4462>
   209aa:	8b 04 02             	mov    (%rdx,%rax,1),%eax
   209ad:	48 98                	cltq   
   209af:	8b 55 fc             	mov    -0x4(%rbp),%edx
   209b2:	48 8d 35 e9 33 00 00 	lea    0x33e9(%rip),%rsi        # 23da2 <g_4473+0x2d32>
   209b9:	48 89 c7             	mov    %rax,%rdi
   209bc:	e8 32 dd fe ff       	callq  e6f3 <transparent_crc>
   209c1:	83 7d fc 00          	cmpl   $0x0,-0x4(%rbp)
   209c5:	74 19                	je     209e0 <main+0xaed>
   209c7:	8b 55 f4             	mov    -0xc(%rbp),%edx
   209ca:	8b 45 f0             	mov    -0x10(%rbp),%eax
   209cd:	89 c6                	mov    %eax,%esi
   209cf:	48 8d 3d c3 32 00 00 	lea    0x32c3(%rip),%rdi        # 23c99 <g_4473+0x2c29>
   209d6:	b8 00 00 00 00       	mov    $0x0,%eax
   209db:	e8 a0 c6 fe ff       	callq  d080 <printf@plt>
   209e0:	83 45 f4 01          	addl   $0x1,-0xc(%rbp)
   209e4:	83 7d f4 02          	cmpl   $0x2,-0xc(%rbp)
   209e8:	7e 99                	jle    20983 <main+0xa90>
   209ea:	83 45 f0 01          	addl   $0x1,-0x10(%rbp)
   209ee:	83 7d f0 06          	cmpl   $0x6,-0x10(%rbp)
   209f2:	7e 86                	jle    2097a <main+0xa87>
   209f4:	b8 a5 ca ff ff       	mov    $0xffffcaa5,%eax
   209f9:	48 0f bf c0          	movswq %ax,%rax
   209fd:	8b 55 fc             	mov    -0x4(%rbp),%edx
   20a00:	48 8d 35 a8 33 00 00 	lea    0x33a8(%rip),%rsi        # 23daf <g_4473+0x2d3f>
   20a07:	48 89 c7             	mov    %rax,%rdi
   20a0a:	e8 e4 dc fe ff       	callq  e6f3 <transparent_crc>
   20a0f:	8b 05 0b 66 00 00    	mov    0x660b(%rip),%eax        # 27020 <crc32_context>
   20a15:	f7 d0                	not    %eax
   20a17:	89 c2                	mov    %eax,%edx
   20a19:	8b 45 fc             	mov    -0x4(%rbp),%eax
   20a1c:	89 c6                	mov    %eax,%esi
   20a1e:	89 d7                	mov    %edx,%edi
   20a20:	e8 6f c7 fe ff       	callq  d194 <platform_main_end>
   20a25:	b8 00 00 00 00       	mov    $0x0,%eax
   20a2a:	c9                   	leaveq 
   20a2b:	c3                   	retq   
   20a2c:	0f 1f 40 00          	nopl   0x0(%rax)

0000000000020a30 <__libc_csu_init>:
   20a30:	f3 0f 1e fa          	endbr64 
   20a34:	41 57                	push   %r15
   20a36:	4c 8d 3d 13 62 00 00 	lea    0x6213(%rip),%r15        # 26c50 <__frame_dummy_init_array_entry>
   20a3d:	41 56                	push   %r14
   20a3f:	49 89 d6             	mov    %rdx,%r14
   20a42:	41 55                	push   %r13
   20a44:	49 89 f5             	mov    %rsi,%r13
   20a47:	41 54                	push   %r12
   20a49:	41 89 fc             	mov    %edi,%r12d
   20a4c:	55                   	push   %rbp
   20a4d:	48 8d 2d 04 62 00 00 	lea    0x6204(%rip),%rbp        # 26c58 <__do_global_dtors_aux_fini_array_entry>
   20a54:	53                   	push   %rbx
   20a55:	4c 29 fd             	sub    %r15,%rbp
   20a58:	48 83 ec 08          	sub    $0x8,%rsp
   20a5c:	e8 9f c5 fe ff       	callq  d000 <_init>
   20a61:	48 c1 fd 03          	sar    $0x3,%rbp
   20a65:	74 1f                	je     20a86 <__libc_csu_init+0x56>
   20a67:	31 db                	xor    %ebx,%ebx
   20a69:	0f 1f 80 00 00 00 00 	nopl   0x0(%rax)
   20a70:	4c 89 f2             	mov    %r14,%rdx
   20a73:	4c 89 ee             	mov    %r13,%rsi
   20a76:	44 89 e7             	mov    %r12d,%edi
   20a79:	41 ff 14 df          	callq  *(%r15,%rbx,8)
   20a7d:	48 83 c3 01          	add    $0x1,%rbx
   20a81:	48 39 dd             	cmp    %rbx,%rbp
   20a84:	75 ea                	jne    20a70 <__libc_csu_init+0x40>
   20a86:	48 83 c4 08          	add    $0x8,%rsp
   20a8a:	5b                   	pop    %rbx
   20a8b:	5d                   	pop    %rbp
   20a8c:	41 5c                	pop    %r12
   20a8e:	41 5d                	pop    %r13
   20a90:	41 5e                	pop    %r14
   20a92:	41 5f                	pop    %r15
   20a94:	c3                   	retq   
   20a95:	66 66 2e 0f 1f 84 00 	data16 nopw %cs:0x0(%rax,%rax,1)
   20a9c:	00 00 00 00 

0000000000020aa0 <__libc_csu_fini>:
   20aa0:	f3 0f 1e fa          	endbr64 
   20aa4:	c3                   	retq   
