


Disassembly of section .text:

00000000000080a0 <_start>:
    80a0:	f3 0f 1e fa          	endbr64 
    80a4:	31 ed                	xor    %ebp,%ebp
    80a6:	49 89 d1             	mov    %rdx,%r9
    80a9:	5e                   	pop    %rsi
    80aa:	48 89 e2             	mov    %rsp,%rdx
    80ad:	48 83 e4 f0          	and    $0xfffffffffffffff0,%rsp
    80b1:	50                   	push   %rax
    80b2:	54                   	push   %rsp
    80b3:	4c 8d 05 56 0b 01 00 	lea    0x10b56(%rip),%r8        # 18c10 <__libc_csu_fini>
    80ba:	48 8d 0d df 0a 01 00 	lea    0x10adf(%rip),%rcx        # 18ba0 <__libc_csu_init>
    80c1:	48 8d 3d ad e3 00 00 	lea    0xe3ad(%rip),%rdi        # 16475 <main>
    80c8:	ff 15 12 5f 01 00    	callq  *0x15f12(%rip)        # 1dfe0 <__libc_start_main@GLIBC_2.2.5>
    80ce:	f4                   	hlt    
    80cf:	90                   	nop

00000000000080d0 <deregister_tm_clones>:
    80d0:	48 8d 3d 69 a7 01 00 	lea    0x1a769(%rip),%rdi        # 22840 <__TMC_END__>
    80d7:	48 8d 05 62 a7 01 00 	lea    0x1a762(%rip),%rax        # 22840 <__TMC_END__>
    80de:	48 39 f8             	cmp    %rdi,%rax
    80e1:	74 15                	je     80f8 <deregister_tm_clones+0x28>
    80e3:	48 8b 05 ee 5e 01 00 	mov    0x15eee(%rip),%rax        # 1dfd8 <_ITM_deregisterTMCloneTable>
    80ea:	48 85 c0             	test   %rax,%rax
    80ed:	74 09                	je     80f8 <deregister_tm_clones+0x28>
    80ef:	ff e0                	jmpq   *%rax
    80f1:	0f 1f 80 00 00 00 00 	nopl   0x0(%rax)
    80f8:	c3                   	retq   
    80f9:	0f 1f 80 00 00 00 00 	nopl   0x0(%rax)

0000000000008100 <register_tm_clones>:
    8100:	48 8d 3d 39 a7 01 00 	lea    0x1a739(%rip),%rdi        # 22840 <__TMC_END__>
    8107:	48 8d 35 32 a7 01 00 	lea    0x1a732(%rip),%rsi        # 22840 <__TMC_END__>
    810e:	48 29 fe             	sub    %rdi,%rsi
    8111:	48 89 f0             	mov    %rsi,%rax
    8114:	48 c1 ee 3f          	shr    $0x3f,%rsi
    8118:	48 c1 f8 03          	sar    $0x3,%rax
    811c:	48 01 c6             	add    %rax,%rsi
    811f:	48 d1 fe             	sar    %rsi
    8122:	74 14                	je     8138 <register_tm_clones+0x38>
    8124:	48 8b 05 c5 5e 01 00 	mov    0x15ec5(%rip),%rax        # 1dff0 <_ITM_registerTMCloneTable>
    812b:	48 85 c0             	test   %rax,%rax
    812e:	74 08                	je     8138 <register_tm_clones+0x38>
    8130:	ff e0                	jmpq   *%rax
    8132:	66 0f 1f 44 00 00    	nopw   0x0(%rax,%rax,1)
    8138:	c3                   	retq   
    8139:	0f 1f 80 00 00 00 00 	nopl   0x0(%rax)

0000000000008140 <__do_global_dtors_aux>:
    8140:	f3 0f 1e fa          	endbr64 
    8144:	80 3d f5 a6 01 00 00 	cmpb   $0x0,0x1a6f5(%rip)        # 22840 <__TMC_END__>
    814b:	75 2b                	jne    8178 <__do_global_dtors_aux+0x38>
    814d:	55                   	push   %rbp
    814e:	48 83 3d a2 5e 01 00 	cmpq   $0x0,0x15ea2(%rip)        # 1dff8 <__cxa_finalize@GLIBC_2.2.5>
    8155:	00 
    8156:	48 89 e5             	mov    %rsp,%rbp
    8159:	74 0c                	je     8167 <__do_global_dtors_aux+0x27>
    815b:	48 8b 3d a6 5e 01 00 	mov    0x15ea6(%rip),%rdi        # 1e008 <__dso_handle>
    8162:	e8 f9 fe ff ff       	callq  8060 <__cxa_finalize@plt>
    8167:	e8 64 ff ff ff       	callq  80d0 <deregister_tm_clones>
    816c:	c6 05 cd a6 01 00 01 	movb   $0x1,0x1a6cd(%rip)        # 22840 <__TMC_END__>
    8173:	5d                   	pop    %rbp
    8174:	c3                   	retq   
    8175:	0f 1f 00             	nopl   (%rax)
    8178:	c3                   	retq   
    8179:	0f 1f 80 00 00 00 00 	nopl   0x0(%rax)

0000000000008180 <frame_dummy>:
    8180:	f3 0f 1e fa          	endbr64 
    8184:	e9 77 ff ff ff       	jmpq   8100 <register_tm_clones>

0000000000008189 <platform_main_begin>:
    8189:	f3 0f 1e fa          	endbr64 
    818d:	55                   	push   %rbp
    818e:	48 89 e5             	mov    %rsp,%rbp
    8191:	90                   	nop
    8192:	5d                   	pop    %rbp
    8193:	c3                   	retq   

0000000000008194 <platform_main_end>:
    8194:	f3 0f 1e fa          	endbr64 
    8198:	55                   	push   %rbp
    8199:	48 89 e5             	mov    %rsp,%rbp
    819c:	48 83 ec 10          	sub    $0x10,%rsp
    81a0:	89 7d fc             	mov    %edi,-0x4(%rbp)
    81a3:	89 75 f8             	mov    %esi,-0x8(%rbp)
    81a6:	8b 45 fc             	mov    -0x4(%rbp),%eax
    81a9:	89 c6                	mov    %eax,%esi
    81ab:	48 8d 3d 6e 0e 01 00 	lea    0x10e6e(%rip),%rdi        # 19020 <_IO_stdin_used+0x20>
    81b2:	b8 00 00 00 00       	mov    $0x0,%eax
    81b7:	e8 c4 fe ff ff       	callq  8080 <printf@plt>
    81bc:	90                   	nop
    81bd:	c9                   	leaveq 
    81be:	c3                   	retq   

00000000000081bf <safe_unary_minus_func_int8_t_s>:
    81bf:	f3 0f 1e fa          	endbr64 
    81c3:	55                   	push   %rbp
    81c4:	48 89 e5             	mov    %rsp,%rbp
    81c7:	89 f8                	mov    %edi,%eax
    81c9:	88 45 fc             	mov    %al,-0x4(%rbp)
    81cc:	0f b6 45 fc          	movzbl -0x4(%rbp),%eax
    81d0:	f7 d8                	neg    %eax
    81d2:	5d                   	pop    %rbp
    81d3:	c3                   	retq   

00000000000081d4 <safe_add_func_int8_t_s_s>:
    81d4:	f3 0f 1e fa          	endbr64 
    81d8:	55                   	push   %rbp
    81d9:	48 89 e5             	mov    %rsp,%rbp
    81dc:	89 fa                	mov    %edi,%edx
    81de:	89 f0                	mov    %esi,%eax
    81e0:	88 55 fc             	mov    %dl,-0x4(%rbp)
    81e3:	88 45 f8             	mov    %al,-0x8(%rbp)
    81e6:	0f b6 55 fc          	movzbl -0x4(%rbp),%edx
    81ea:	0f b6 45 f8          	movzbl -0x8(%rbp),%eax
    81ee:	01 d0                	add    %edx,%eax
    81f0:	5d                   	pop    %rbp
    81f1:	c3                   	retq   

00000000000081f2 <safe_sub_func_int8_t_s_s>:
    81f2:	f3 0f 1e fa          	endbr64 
    81f6:	55                   	push   %rbp
    81f7:	48 89 e5             	mov    %rsp,%rbp
    81fa:	89 fa                	mov    %edi,%edx
    81fc:	89 f0                	mov    %esi,%eax
    81fe:	88 55 fc             	mov    %dl,-0x4(%rbp)
    8201:	88 45 f8             	mov    %al,-0x8(%rbp)
    8204:	0f b6 55 fc          	movzbl -0x4(%rbp),%edx
    8208:	0f b6 45 f8          	movzbl -0x8(%rbp),%eax
    820c:	29 c2                	sub    %eax,%edx
    820e:	89 d0                	mov    %edx,%eax
    8210:	5d                   	pop    %rbp
    8211:	c3                   	retq   

0000000000008212 <safe_mul_func_int8_t_s_s>:
    8212:	f3 0f 1e fa          	endbr64 
    8216:	55                   	push   %rbp
    8217:	48 89 e5             	mov    %rsp,%rbp
    821a:	89 fa                	mov    %edi,%edx
    821c:	89 f0                	mov    %esi,%eax
    821e:	88 55 fc             	mov    %dl,-0x4(%rbp)
    8221:	88 45 f8             	mov    %al,-0x8(%rbp)
    8224:	0f b6 45 fc          	movzbl -0x4(%rbp),%eax
    8228:	0f b6 55 f8          	movzbl -0x8(%rbp),%edx
    822c:	0f af c2             	imul   %edx,%eax
    822f:	5d                   	pop    %rbp
    8230:	c3                   	retq   

0000000000008231 <safe_mod_func_int8_t_s_s>:
    8231:	f3 0f 1e fa          	endbr64 
    8235:	55                   	push   %rbp
    8236:	48 89 e5             	mov    %rsp,%rbp
    8239:	89 fa                	mov    %edi,%edx
    823b:	89 f0                	mov    %esi,%eax
    823d:	88 55 fc             	mov    %dl,-0x4(%rbp)
    8240:	88 45 f8             	mov    %al,-0x8(%rbp)
    8243:	80 7d f8 00          	cmpb   $0x0,-0x8(%rbp)
    8247:	74 1b                	je     8264 <safe_mod_func_int8_t_s_s+0x33>
    8249:	80 7d fc 80          	cmpb   $0x80,-0x4(%rbp)
    824d:	75 06                	jne    8255 <safe_mod_func_int8_t_s_s+0x24>
    824f:	80 7d f8 ff          	cmpb   $0xff,-0x8(%rbp)
    8253:	74 0f                	je     8264 <safe_mod_func_int8_t_s_s+0x33>
    8255:	0f be 45 fc          	movsbl -0x4(%rbp),%eax
    8259:	0f be 4d f8          	movsbl -0x8(%rbp),%ecx
    825d:	99                   	cltd   
    825e:	f7 f9                	idiv   %ecx
    8260:	89 d0                	mov    %edx,%eax
    8262:	eb 04                	jmp    8268 <safe_mod_func_int8_t_s_s+0x37>
    8264:	0f b6 45 fc          	movzbl -0x4(%rbp),%eax
    8268:	5d                   	pop    %rbp
    8269:	c3                   	retq   

000000000000826a <safe_div_func_int8_t_s_s>:
    826a:	f3 0f 1e fa          	endbr64 
    826e:	55                   	push   %rbp
    826f:	48 89 e5             	mov    %rsp,%rbp
    8272:	89 fa                	mov    %edi,%edx
    8274:	89 f0                	mov    %esi,%eax
    8276:	88 55 fc             	mov    %dl,-0x4(%rbp)
    8279:	88 45 f8             	mov    %al,-0x8(%rbp)
    827c:	80 7d f8 00          	cmpb   $0x0,-0x8(%rbp)
    8280:	74 19                	je     829b <safe_div_func_int8_t_s_s+0x31>
    8282:	80 7d fc 80          	cmpb   $0x80,-0x4(%rbp)
    8286:	75 06                	jne    828e <safe_div_func_int8_t_s_s+0x24>
    8288:	80 7d f8 ff          	cmpb   $0xff,-0x8(%rbp)
    828c:	74 0d                	je     829b <safe_div_func_int8_t_s_s+0x31>
    828e:	0f be 45 fc          	movsbl -0x4(%rbp),%eax
    8292:	0f be 4d f8          	movsbl -0x8(%rbp),%ecx
    8296:	99                   	cltd   
    8297:	f7 f9                	idiv   %ecx
    8299:	eb 04                	jmp    829f <safe_div_func_int8_t_s_s+0x35>
    829b:	0f b6 45 fc          	movzbl -0x4(%rbp),%eax
    829f:	5d                   	pop    %rbp
    82a0:	c3                   	retq   

00000000000082a1 <safe_lshift_func_int8_t_s_s>:
    82a1:	f3 0f 1e fa          	endbr64 
    82a5:	55                   	push   %rbp
    82a6:	48 89 e5             	mov    %rsp,%rbp
    82a9:	89 f8                	mov    %edi,%eax
    82ab:	89 75 f8             	mov    %esi,-0x8(%rbp)
    82ae:	88 45 fc             	mov    %al,-0x4(%rbp)
    82b1:	80 7d fc 00          	cmpb   $0x0,-0x4(%rbp)
    82b5:	78 31                	js     82e8 <safe_lshift_func_int8_t_s_s+0x47>
    82b7:	83 7d f8 00          	cmpl   $0x0,-0x8(%rbp)
    82bb:	78 2b                	js     82e8 <safe_lshift_func_int8_t_s_s+0x47>
    82bd:	83 7d f8 1f          	cmpl   $0x1f,-0x8(%rbp)
    82c1:	7f 25                	jg     82e8 <safe_lshift_func_int8_t_s_s+0x47>
    82c3:	0f be 55 fc          	movsbl -0x4(%rbp),%edx
    82c7:	8b 45 f8             	mov    -0x8(%rbp),%eax
    82ca:	be 7f 00 00 00       	mov    $0x7f,%esi
    82cf:	89 c1                	mov    %eax,%ecx
    82d1:	d3 fe                	sar    %cl,%esi
    82d3:	89 f0                	mov    %esi,%eax
    82d5:	39 c2                	cmp    %eax,%edx
    82d7:	7f 0f                	jg     82e8 <safe_lshift_func_int8_t_s_s+0x47>
    82d9:	0f be 55 fc          	movsbl -0x4(%rbp),%edx
    82dd:	8b 45 f8             	mov    -0x8(%rbp),%eax
    82e0:	89 c1                	mov    %eax,%ecx
    82e2:	d3 e2                	shl    %cl,%edx
    82e4:	89 d0                	mov    %edx,%eax
    82e6:	eb 04                	jmp    82ec <safe_lshift_func_int8_t_s_s+0x4b>
    82e8:	0f b6 45 fc          	movzbl -0x4(%rbp),%eax
    82ec:	5d                   	pop    %rbp
    82ed:	c3                   	retq   

00000000000082ee <safe_lshift_func_int8_t_s_u>:
    82ee:	f3 0f 1e fa          	endbr64 
    82f2:	55                   	push   %rbp
    82f3:	48 89 e5             	mov    %rsp,%rbp
    82f6:	89 f8                	mov    %edi,%eax
    82f8:	89 75 f8             	mov    %esi,-0x8(%rbp)
    82fb:	88 45 fc             	mov    %al,-0x4(%rbp)
    82fe:	80 7d fc 00          	cmpb   $0x0,-0x4(%rbp)
    8302:	78 2b                	js     832f <safe_lshift_func_int8_t_s_u+0x41>
    8304:	83 7d f8 1f          	cmpl   $0x1f,-0x8(%rbp)
    8308:	77 25                	ja     832f <safe_lshift_func_int8_t_s_u+0x41>
    830a:	0f be 55 fc          	movsbl -0x4(%rbp),%edx
    830e:	8b 45 f8             	mov    -0x8(%rbp),%eax
    8311:	be 7f 00 00 00       	mov    $0x7f,%esi
    8316:	89 c1                	mov    %eax,%ecx
    8318:	d3 fe                	sar    %cl,%esi
    831a:	89 f0                	mov    %esi,%eax
    831c:	39 c2                	cmp    %eax,%edx
    831e:	7f 0f                	jg     832f <safe_lshift_func_int8_t_s_u+0x41>
    8320:	0f be 55 fc          	movsbl -0x4(%rbp),%edx
    8324:	8b 45 f8             	mov    -0x8(%rbp),%eax
    8327:	89 c1                	mov    %eax,%ecx
    8329:	d3 e2                	shl    %cl,%edx
    832b:	89 d0                	mov    %edx,%eax
    832d:	eb 04                	jmp    8333 <safe_lshift_func_int8_t_s_u+0x45>
    832f:	0f b6 45 fc          	movzbl -0x4(%rbp),%eax
    8333:	5d                   	pop    %rbp
    8334:	c3                   	retq   

0000000000008335 <safe_rshift_func_int8_t_s_s>:
    8335:	f3 0f 1e fa          	endbr64 
    8339:	55                   	push   %rbp
    833a:	48 89 e5             	mov    %rsp,%rbp
    833d:	89 f8                	mov    %edi,%eax
    833f:	89 75 f8             	mov    %esi,-0x8(%rbp)
    8342:	88 45 fc             	mov    %al,-0x4(%rbp)
    8345:	80 7d fc 00          	cmpb   $0x0,-0x4(%rbp)
    8349:	78 1b                	js     8366 <safe_rshift_func_int8_t_s_s+0x31>
    834b:	83 7d f8 00          	cmpl   $0x0,-0x8(%rbp)
    834f:	78 15                	js     8366 <safe_rshift_func_int8_t_s_s+0x31>
    8351:	83 7d f8 1f          	cmpl   $0x1f,-0x8(%rbp)
    8355:	7f 0f                	jg     8366 <safe_rshift_func_int8_t_s_s+0x31>
    8357:	0f be 55 fc          	movsbl -0x4(%rbp),%edx
    835b:	8b 45 f8             	mov    -0x8(%rbp),%eax
    835e:	89 c1                	mov    %eax,%ecx
    8360:	d3 fa                	sar    %cl,%edx
    8362:	89 d0                	mov    %edx,%eax
    8364:	eb 04                	jmp    836a <safe_rshift_func_int8_t_s_s+0x35>
    8366:	0f b6 45 fc          	movzbl -0x4(%rbp),%eax
    836a:	5d                   	pop    %rbp
    836b:	c3                   	retq   

000000000000836c <safe_rshift_func_int8_t_s_u>:
    836c:	f3 0f 1e fa          	endbr64 
    8370:	55                   	push   %rbp
    8371:	48 89 e5             	mov    %rsp,%rbp
    8374:	89 f8                	mov    %edi,%eax
    8376:	89 75 f8             	mov    %esi,-0x8(%rbp)
    8379:	88 45 fc             	mov    %al,-0x4(%rbp)
    837c:	80 7d fc 00          	cmpb   $0x0,-0x4(%rbp)
    8380:	78 15                	js     8397 <safe_rshift_func_int8_t_s_u+0x2b>
    8382:	83 7d f8 1f          	cmpl   $0x1f,-0x8(%rbp)
    8386:	77 0f                	ja     8397 <safe_rshift_func_int8_t_s_u+0x2b>
    8388:	0f be 55 fc          	movsbl -0x4(%rbp),%edx
    838c:	8b 45 f8             	mov    -0x8(%rbp),%eax
    838f:	89 c1                	mov    %eax,%ecx
    8391:	d3 fa                	sar    %cl,%edx
    8393:	89 d0                	mov    %edx,%eax
    8395:	eb 04                	jmp    839b <safe_rshift_func_int8_t_s_u+0x2f>
    8397:	0f b6 45 fc          	movzbl -0x4(%rbp),%eax
    839b:	5d                   	pop    %rbp
    839c:	c3                   	retq   

000000000000839d <safe_unary_minus_func_int16_t_s>:
    839d:	f3 0f 1e fa          	endbr64 
    83a1:	55                   	push   %rbp
    83a2:	48 89 e5             	mov    %rsp,%rbp
    83a5:	89 f8                	mov    %edi,%eax
    83a7:	66 89 45 fc          	mov    %ax,-0x4(%rbp)
    83ab:	0f b7 45 fc          	movzwl -0x4(%rbp),%eax
    83af:	f7 d8                	neg    %eax
    83b1:	5d                   	pop    %rbp
    83b2:	c3                   	retq   

00000000000083b3 <safe_add_func_int16_t_s_s>:
    83b3:	f3 0f 1e fa          	endbr64 
    83b7:	55                   	push   %rbp
    83b8:	48 89 e5             	mov    %rsp,%rbp
    83bb:	89 fa                	mov    %edi,%edx
    83bd:	89 f0                	mov    %esi,%eax
    83bf:	66 89 55 fc          	mov    %dx,-0x4(%rbp)
    83c3:	66 89 45 f8          	mov    %ax,-0x8(%rbp)
    83c7:	0f b7 55 fc          	movzwl -0x4(%rbp),%edx
    83cb:	0f b7 45 f8          	movzwl -0x8(%rbp),%eax
    83cf:	01 d0                	add    %edx,%eax
    83d1:	5d                   	pop    %rbp
    83d2:	c3                   	retq   

00000000000083d3 <safe_sub_func_int16_t_s_s>:
    83d3:	f3 0f 1e fa          	endbr64 
    83d7:	55                   	push   %rbp
    83d8:	48 89 e5             	mov    %rsp,%rbp
    83db:	89 fa                	mov    %edi,%edx
    83dd:	89 f0                	mov    %esi,%eax
    83df:	66 89 55 fc          	mov    %dx,-0x4(%rbp)
    83e3:	66 89 45 f8          	mov    %ax,-0x8(%rbp)
    83e7:	0f b7 55 fc          	movzwl -0x4(%rbp),%edx
    83eb:	0f b7 45 f8          	movzwl -0x8(%rbp),%eax
    83ef:	29 c2                	sub    %eax,%edx
    83f1:	89 d0                	mov    %edx,%eax
    83f3:	5d                   	pop    %rbp
    83f4:	c3                   	retq   

00000000000083f5 <safe_mul_func_int16_t_s_s>:
    83f5:	f3 0f 1e fa          	endbr64 
    83f9:	55                   	push   %rbp
    83fa:	48 89 e5             	mov    %rsp,%rbp
    83fd:	89 fa                	mov    %edi,%edx
    83ff:	89 f0                	mov    %esi,%eax
    8401:	66 89 55 fc          	mov    %dx,-0x4(%rbp)
    8405:	66 89 45 f8          	mov    %ax,-0x8(%rbp)
    8409:	0f b7 55 fc          	movzwl -0x4(%rbp),%edx
    840d:	0f b7 45 f8          	movzwl -0x8(%rbp),%eax
    8411:	0f af c2             	imul   %edx,%eax
    8414:	5d                   	pop    %rbp
    8415:	c3                   	retq   

0000000000008416 <safe_mod_func_int16_t_s_s>:
    8416:	f3 0f 1e fa          	endbr64 
    841a:	55                   	push   %rbp
    841b:	48 89 e5             	mov    %rsp,%rbp
    841e:	89 fa                	mov    %edi,%edx
    8420:	89 f0                	mov    %esi,%eax
    8422:	66 89 55 fc          	mov    %dx,-0x4(%rbp)
    8426:	66 89 45 f8          	mov    %ax,-0x8(%rbp)
    842a:	66 83 7d f8 00       	cmpw   $0x0,-0x8(%rbp)
    842f:	74 1e                	je     844f <safe_mod_func_int16_t_s_s+0x39>
    8431:	66 81 7d fc 00 80    	cmpw   $0x8000,-0x4(%rbp)
    8437:	75 07                	jne    8440 <safe_mod_func_int16_t_s_s+0x2a>
    8439:	66 83 7d f8 ff       	cmpw   $0xffff,-0x8(%rbp)
    843e:	74 0f                	je     844f <safe_mod_func_int16_t_s_s+0x39>
    8440:	0f bf 45 fc          	movswl -0x4(%rbp),%eax
    8444:	0f bf 4d f8          	movswl -0x8(%rbp),%ecx
    8448:	99                   	cltd   
    8449:	f7 f9                	idiv   %ecx
    844b:	89 d0                	mov    %edx,%eax
    844d:	eb 04                	jmp    8453 <safe_mod_func_int16_t_s_s+0x3d>
    844f:	0f b7 45 fc          	movzwl -0x4(%rbp),%eax
    8453:	5d                   	pop    %rbp
    8454:	c3                   	retq   

0000000000008455 <safe_div_func_int16_t_s_s>:
    8455:	f3 0f 1e fa          	endbr64 
    8459:	55                   	push   %rbp
    845a:	48 89 e5             	mov    %rsp,%rbp
    845d:	89 fa                	mov    %edi,%edx
    845f:	89 f0                	mov    %esi,%eax
    8461:	66 89 55 fc          	mov    %dx,-0x4(%rbp)
    8465:	66 89 45 f8          	mov    %ax,-0x8(%rbp)
    8469:	66 83 7d f8 00       	cmpw   $0x0,-0x8(%rbp)
    846e:	74 1c                	je     848c <safe_div_func_int16_t_s_s+0x37>
    8470:	66 81 7d fc 00 80    	cmpw   $0x8000,-0x4(%rbp)
    8476:	75 07                	jne    847f <safe_div_func_int16_t_s_s+0x2a>
    8478:	66 83 7d f8 ff       	cmpw   $0xffff,-0x8(%rbp)
    847d:	74 0d                	je     848c <safe_div_func_int16_t_s_s+0x37>
    847f:	0f bf 45 fc          	movswl -0x4(%rbp),%eax
    8483:	0f bf 4d f8          	movswl -0x8(%rbp),%ecx
    8487:	99                   	cltd   
    8488:	f7 f9                	idiv   %ecx
    848a:	eb 04                	jmp    8490 <safe_div_func_int16_t_s_s+0x3b>
    848c:	0f b7 45 fc          	movzwl -0x4(%rbp),%eax
    8490:	5d                   	pop    %rbp
    8491:	c3                   	retq   

0000000000008492 <safe_lshift_func_int16_t_s_s>:
    8492:	f3 0f 1e fa          	endbr64 
    8496:	55                   	push   %rbp
    8497:	48 89 e5             	mov    %rsp,%rbp
    849a:	89 f8                	mov    %edi,%eax
    849c:	89 75 f8             	mov    %esi,-0x8(%rbp)
    849f:	66 89 45 fc          	mov    %ax,-0x4(%rbp)
    84a3:	66 83 7d fc 00       	cmpw   $0x0,-0x4(%rbp)
    84a8:	78 31                	js     84db <safe_lshift_func_int16_t_s_s+0x49>
    84aa:	83 7d f8 00          	cmpl   $0x0,-0x8(%rbp)
    84ae:	78 2b                	js     84db <safe_lshift_func_int16_t_s_s+0x49>
    84b0:	83 7d f8 1f          	cmpl   $0x1f,-0x8(%rbp)
    84b4:	7f 25                	jg     84db <safe_lshift_func_int16_t_s_s+0x49>
    84b6:	0f bf 55 fc          	movswl -0x4(%rbp),%edx
    84ba:	8b 45 f8             	mov    -0x8(%rbp),%eax
    84bd:	be ff 7f 00 00       	mov    $0x7fff,%esi
    84c2:	89 c1                	mov    %eax,%ecx
    84c4:	d3 fe                	sar    %cl,%esi
    84c6:	89 f0                	mov    %esi,%eax
    84c8:	39 c2                	cmp    %eax,%edx
    84ca:	7f 0f                	jg     84db <safe_lshift_func_int16_t_s_s+0x49>
    84cc:	0f bf 55 fc          	movswl -0x4(%rbp),%edx
    84d0:	8b 45 f8             	mov    -0x8(%rbp),%eax
    84d3:	89 c1                	mov    %eax,%ecx
    84d5:	d3 e2                	shl    %cl,%edx
    84d7:	89 d0                	mov    %edx,%eax
    84d9:	eb 04                	jmp    84df <safe_lshift_func_int16_t_s_s+0x4d>
    84db:	0f b7 45 fc          	movzwl -0x4(%rbp),%eax
    84df:	5d                   	pop    %rbp
    84e0:	c3                   	retq   

00000000000084e1 <safe_lshift_func_int16_t_s_u>:
    84e1:	f3 0f 1e fa          	endbr64 
    84e5:	55                   	push   %rbp
    84e6:	48 89 e5             	mov    %rsp,%rbp
    84e9:	89 f8                	mov    %edi,%eax
    84eb:	89 75 f8             	mov    %esi,-0x8(%rbp)
    84ee:	66 89 45 fc          	mov    %ax,-0x4(%rbp)
    84f2:	66 83 7d fc 00       	cmpw   $0x0,-0x4(%rbp)
    84f7:	78 2b                	js     8524 <safe_lshift_func_int16_t_s_u+0x43>
    84f9:	83 7d f8 1f          	cmpl   $0x1f,-0x8(%rbp)
    84fd:	77 25                	ja     8524 <safe_lshift_func_int16_t_s_u+0x43>
    84ff:	0f bf 55 fc          	movswl -0x4(%rbp),%edx
    8503:	8b 45 f8             	mov    -0x8(%rbp),%eax
    8506:	be ff 7f 00 00       	mov    $0x7fff,%esi
    850b:	89 c1                	mov    %eax,%ecx
    850d:	d3 fe                	sar    %cl,%esi
    850f:	89 f0                	mov    %esi,%eax
    8511:	39 c2                	cmp    %eax,%edx
    8513:	7f 0f                	jg     8524 <safe_lshift_func_int16_t_s_u+0x43>
    8515:	0f bf 55 fc          	movswl -0x4(%rbp),%edx
    8519:	8b 45 f8             	mov    -0x8(%rbp),%eax
    851c:	89 c1                	mov    %eax,%ecx
    851e:	d3 e2                	shl    %cl,%edx
    8520:	89 d0                	mov    %edx,%eax
    8522:	eb 04                	jmp    8528 <safe_lshift_func_int16_t_s_u+0x47>
    8524:	0f b7 45 fc          	movzwl -0x4(%rbp),%eax
    8528:	5d                   	pop    %rbp
    8529:	c3                   	retq   

000000000000852a <safe_rshift_func_int16_t_s_s>:
    852a:	f3 0f 1e fa          	endbr64 
    852e:	55                   	push   %rbp
    852f:	48 89 e5             	mov    %rsp,%rbp
    8532:	89 f8                	mov    %edi,%eax
    8534:	89 75 f8             	mov    %esi,-0x8(%rbp)
    8537:	66 89 45 fc          	mov    %ax,-0x4(%rbp)
    853b:	66 83 7d fc 00       	cmpw   $0x0,-0x4(%rbp)
    8540:	78 1b                	js     855d <safe_rshift_func_int16_t_s_s+0x33>
    8542:	83 7d f8 00          	cmpl   $0x0,-0x8(%rbp)
    8546:	78 15                	js     855d <safe_rshift_func_int16_t_s_s+0x33>
    8548:	83 7d f8 1f          	cmpl   $0x1f,-0x8(%rbp)
    854c:	7f 0f                	jg     855d <safe_rshift_func_int16_t_s_s+0x33>
    854e:	0f bf 55 fc          	movswl -0x4(%rbp),%edx
    8552:	8b 45 f8             	mov    -0x8(%rbp),%eax
    8555:	89 c1                	mov    %eax,%ecx
    8557:	d3 fa                	sar    %cl,%edx
    8559:	89 d0                	mov    %edx,%eax
    855b:	eb 04                	jmp    8561 <safe_rshift_func_int16_t_s_s+0x37>
    855d:	0f b7 45 fc          	movzwl -0x4(%rbp),%eax
    8561:	5d                   	pop    %rbp
    8562:	c3                   	retq   

0000000000008563 <safe_rshift_func_int16_t_s_u>:
    8563:	f3 0f 1e fa          	endbr64 
    8567:	55                   	push   %rbp
    8568:	48 89 e5             	mov    %rsp,%rbp
    856b:	89 f8                	mov    %edi,%eax
    856d:	89 75 f8             	mov    %esi,-0x8(%rbp)
    8570:	66 89 45 fc          	mov    %ax,-0x4(%rbp)
    8574:	66 83 7d fc 00       	cmpw   $0x0,-0x4(%rbp)
    8579:	78 15                	js     8590 <safe_rshift_func_int16_t_s_u+0x2d>
    857b:	83 7d f8 1f          	cmpl   $0x1f,-0x8(%rbp)
    857f:	77 0f                	ja     8590 <safe_rshift_func_int16_t_s_u+0x2d>
    8581:	0f bf 55 fc          	movswl -0x4(%rbp),%edx
    8585:	8b 45 f8             	mov    -0x8(%rbp),%eax
    8588:	89 c1                	mov    %eax,%ecx
    858a:	d3 fa                	sar    %cl,%edx
    858c:	89 d0                	mov    %edx,%eax
    858e:	eb 04                	jmp    8594 <safe_rshift_func_int16_t_s_u+0x31>
    8590:	0f b7 45 fc          	movzwl -0x4(%rbp),%eax
    8594:	5d                   	pop    %rbp
    8595:	c3                   	retq   

0000000000008596 <safe_unary_minus_func_int32_t_s>:
    8596:	f3 0f 1e fa          	endbr64 
    859a:	55                   	push   %rbp
    859b:	48 89 e5             	mov    %rsp,%rbp
    859e:	89 7d fc             	mov    %edi,-0x4(%rbp)
    85a1:	81 7d fc 00 00 00 80 	cmpl   $0x80000000,-0x4(%rbp)
    85a8:	74 07                	je     85b1 <safe_unary_minus_func_int32_t_s+0x1b>
    85aa:	8b 45 fc             	mov    -0x4(%rbp),%eax
    85ad:	f7 d8                	neg    %eax
    85af:	eb 03                	jmp    85b4 <safe_unary_minus_func_int32_t_s+0x1e>
    85b1:	8b 45 fc             	mov    -0x4(%rbp),%eax
    85b4:	5d                   	pop    %rbp
    85b5:	c3                   	retq   

00000000000085b6 <safe_add_func_int32_t_s_s>:
    85b6:	f3 0f 1e fa          	endbr64 
    85ba:	55                   	push   %rbp
    85bb:	48 89 e5             	mov    %rsp,%rbp
    85be:	89 7d fc             	mov    %edi,-0x4(%rbp)
    85c1:	89 75 f8             	mov    %esi,-0x8(%rbp)
    85c4:	83 7d fc 00          	cmpl   $0x0,-0x4(%rbp)
    85c8:	7e 13                	jle    85dd <safe_add_func_int32_t_s_s+0x27>
    85ca:	83 7d f8 00          	cmpl   $0x0,-0x8(%rbp)
    85ce:	7e 0d                	jle    85dd <safe_add_func_int32_t_s_s+0x27>
    85d0:	b8 ff ff ff 7f       	mov    $0x7fffffff,%eax
    85d5:	2b 45 f8             	sub    -0x8(%rbp),%eax
    85d8:	39 45 fc             	cmp    %eax,-0x4(%rbp)
    85db:	7f 23                	jg     8600 <safe_add_func_int32_t_s_s+0x4a>
    85dd:	83 7d fc 00          	cmpl   $0x0,-0x4(%rbp)
    85e1:	79 13                	jns    85f6 <safe_add_func_int32_t_s_s+0x40>
    85e3:	83 7d f8 00          	cmpl   $0x0,-0x8(%rbp)
    85e7:	79 0d                	jns    85f6 <safe_add_func_int32_t_s_s+0x40>
    85e9:	b8 00 00 00 80       	mov    $0x80000000,%eax
    85ee:	2b 45 f8             	sub    -0x8(%rbp),%eax
    85f1:	39 45 fc             	cmp    %eax,-0x4(%rbp)
    85f4:	7c 0a                	jl     8600 <safe_add_func_int32_t_s_s+0x4a>
    85f6:	8b 55 fc             	mov    -0x4(%rbp),%edx
    85f9:	8b 45 f8             	mov    -0x8(%rbp),%eax
    85fc:	01 d0                	add    %edx,%eax
    85fe:	eb 03                	jmp    8603 <safe_add_func_int32_t_s_s+0x4d>
    8600:	8b 45 fc             	mov    -0x4(%rbp),%eax
    8603:	5d                   	pop    %rbp
    8604:	c3                   	retq   

0000000000008605 <safe_sub_func_int32_t_s_s>:
    8605:	f3 0f 1e fa          	endbr64 
    8609:	55                   	push   %rbp
    860a:	48 89 e5             	mov    %rsp,%rbp
    860d:	89 7d fc             	mov    %edi,-0x4(%rbp)
    8610:	89 75 f8             	mov    %esi,-0x8(%rbp)
    8613:	8b 45 fc             	mov    -0x4(%rbp),%eax
    8616:	33 45 f8             	xor    -0x8(%rbp),%eax
    8619:	89 c2                	mov    %eax,%edx
    861b:	8b 45 fc             	mov    -0x4(%rbp),%eax
    861e:	33 45 f8             	xor    -0x8(%rbp),%eax
    8621:	25 00 00 00 80       	and    $0x80000000,%eax
    8626:	33 45 fc             	xor    -0x4(%rbp),%eax
    8629:	2b 45 f8             	sub    -0x8(%rbp),%eax
    862c:	33 45 f8             	xor    -0x8(%rbp),%eax
    862f:	21 d0                	and    %edx,%eax
    8631:	85 c0                	test   %eax,%eax
    8633:	78 08                	js     863d <safe_sub_func_int32_t_s_s+0x38>
    8635:	8b 45 fc             	mov    -0x4(%rbp),%eax
    8638:	2b 45 f8             	sub    -0x8(%rbp),%eax
    863b:	eb 03                	jmp    8640 <safe_sub_func_int32_t_s_s+0x3b>
    863d:	8b 45 fc             	mov    -0x4(%rbp),%eax
    8640:	5d                   	pop    %rbp
    8641:	c3                   	retq   

0000000000008642 <safe_mul_func_int32_t_s_s>:
    8642:	f3 0f 1e fa          	endbr64 
    8646:	55                   	push   %rbp
    8647:	48 89 e5             	mov    %rsp,%rbp
    864a:	89 7d fc             	mov    %edi,-0x4(%rbp)
    864d:	89 75 f8             	mov    %esi,-0x8(%rbp)
    8650:	83 7d fc 00          	cmpl   $0x0,-0x4(%rbp)
    8654:	7e 14                	jle    866a <safe_mul_func_int32_t_s_s+0x28>
    8656:	83 7d f8 00          	cmpl   $0x0,-0x8(%rbp)
    865a:	7e 0e                	jle    866a <safe_mul_func_int32_t_s_s+0x28>
    865c:	b8 ff ff ff 7f       	mov    $0x7fffffff,%eax
    8661:	99                   	cltd   
    8662:	f7 7d f8             	idivl  -0x8(%rbp)
    8665:	39 45 fc             	cmp    %eax,-0x4(%rbp)
    8668:	7f 5d                	jg     86c7 <safe_mul_func_int32_t_s_s+0x85>
    866a:	83 7d fc 00          	cmpl   $0x0,-0x4(%rbp)
    866e:	7e 14                	jle    8684 <safe_mul_func_int32_t_s_s+0x42>
    8670:	83 7d f8 00          	cmpl   $0x0,-0x8(%rbp)
    8674:	7f 0e                	jg     8684 <safe_mul_func_int32_t_s_s+0x42>
    8676:	b8 00 00 00 80       	mov    $0x80000000,%eax
    867b:	99                   	cltd   
    867c:	f7 7d fc             	idivl  -0x4(%rbp)
    867f:	39 45 f8             	cmp    %eax,-0x8(%rbp)
    8682:	7c 43                	jl     86c7 <safe_mul_func_int32_t_s_s+0x85>
    8684:	83 7d fc 00          	cmpl   $0x0,-0x4(%rbp)
    8688:	7f 14                	jg     869e <safe_mul_func_int32_t_s_s+0x5c>
    868a:	83 7d f8 00          	cmpl   $0x0,-0x8(%rbp)
    868e:	7e 0e                	jle    869e <safe_mul_func_int32_t_s_s+0x5c>
    8690:	b8 00 00 00 80       	mov    $0x80000000,%eax
    8695:	99                   	cltd   
    8696:	f7 7d f8             	idivl  -0x8(%rbp)
    8699:	39 45 fc             	cmp    %eax,-0x4(%rbp)
    869c:	7c 29                	jl     86c7 <safe_mul_func_int32_t_s_s+0x85>
    869e:	83 7d fc 00          	cmpl   $0x0,-0x4(%rbp)
    86a2:	7f 1a                	jg     86be <safe_mul_func_int32_t_s_s+0x7c>
    86a4:	83 7d f8 00          	cmpl   $0x0,-0x8(%rbp)
    86a8:	7f 14                	jg     86be <safe_mul_func_int32_t_s_s+0x7c>
    86aa:	83 7d fc 00          	cmpl   $0x0,-0x4(%rbp)
    86ae:	74 0e                	je     86be <safe_mul_func_int32_t_s_s+0x7c>
    86b0:	b8 ff ff ff 7f       	mov    $0x7fffffff,%eax
    86b5:	99                   	cltd   
    86b6:	f7 7d fc             	idivl  -0x4(%rbp)
    86b9:	39 45 f8             	cmp    %eax,-0x8(%rbp)
    86bc:	7c 09                	jl     86c7 <safe_mul_func_int32_t_s_s+0x85>
    86be:	8b 45 fc             	mov    -0x4(%rbp),%eax
    86c1:	0f af 45 f8          	imul   -0x8(%rbp),%eax
    86c5:	eb 03                	jmp    86ca <safe_mul_func_int32_t_s_s+0x88>
    86c7:	8b 45 fc             	mov    -0x4(%rbp),%eax
    86ca:	5d                   	pop    %rbp
    86cb:	c3                   	retq   

00000000000086cc <safe_mod_func_int32_t_s_s>:
    86cc:	f3 0f 1e fa          	endbr64 
    86d0:	55                   	push   %rbp
    86d1:	48 89 e5             	mov    %rsp,%rbp
    86d4:	89 7d fc             	mov    %edi,-0x4(%rbp)
    86d7:	89 75 f8             	mov    %esi,-0x8(%rbp)
    86da:	83 7d f8 00          	cmpl   $0x0,-0x8(%rbp)
    86de:	74 1a                	je     86fa <safe_mod_func_int32_t_s_s+0x2e>
    86e0:	81 7d fc 00 00 00 80 	cmpl   $0x80000000,-0x4(%rbp)
    86e7:	75 06                	jne    86ef <safe_mod_func_int32_t_s_s+0x23>
    86e9:	83 7d f8 ff          	cmpl   $0xffffffff,-0x8(%rbp)
    86ed:	74 0b                	je     86fa <safe_mod_func_int32_t_s_s+0x2e>
    86ef:	8b 45 fc             	mov    -0x4(%rbp),%eax
    86f2:	99                   	cltd   
    86f3:	f7 7d f8             	idivl  -0x8(%rbp)
    86f6:	89 d0                	mov    %edx,%eax
    86f8:	eb 03                	jmp    86fd <safe_mod_func_int32_t_s_s+0x31>
    86fa:	8b 45 fc             	mov    -0x4(%rbp),%eax
    86fd:	5d                   	pop    %rbp
    86fe:	c3                   	retq   

00000000000086ff <safe_div_func_int32_t_s_s>:
    86ff:	f3 0f 1e fa          	endbr64 
    8703:	55                   	push   %rbp
    8704:	48 89 e5             	mov    %rsp,%rbp
    8707:	89 7d fc             	mov    %edi,-0x4(%rbp)
    870a:	89 75 f8             	mov    %esi,-0x8(%rbp)
    870d:	83 7d f8 00          	cmpl   $0x0,-0x8(%rbp)
    8711:	74 18                	je     872b <safe_div_func_int32_t_s_s+0x2c>
    8713:	81 7d fc 00 00 00 80 	cmpl   $0x80000000,-0x4(%rbp)
    871a:	75 06                	jne    8722 <safe_div_func_int32_t_s_s+0x23>
    871c:	83 7d f8 ff          	cmpl   $0xffffffff,-0x8(%rbp)
    8720:	74 09                	je     872b <safe_div_func_int32_t_s_s+0x2c>
    8722:	8b 45 fc             	mov    -0x4(%rbp),%eax
    8725:	99                   	cltd   
    8726:	f7 7d f8             	idivl  -0x8(%rbp)
    8729:	eb 03                	jmp    872e <safe_div_func_int32_t_s_s+0x2f>
    872b:	8b 45 fc             	mov    -0x4(%rbp),%eax
    872e:	5d                   	pop    %rbp
    872f:	c3                   	retq   

0000000000008730 <safe_lshift_func_int32_t_s_s>:
    8730:	f3 0f 1e fa          	endbr64 
    8734:	55                   	push   %rbp
    8735:	48 89 e5             	mov    %rsp,%rbp
    8738:	89 7d fc             	mov    %edi,-0x4(%rbp)
    873b:	89 75 f8             	mov    %esi,-0x8(%rbp)
    873e:	83 7d fc 00          	cmpl   $0x0,-0x4(%rbp)
    8742:	78 2d                	js     8771 <safe_lshift_func_int32_t_s_s+0x41>
    8744:	83 7d f8 00          	cmpl   $0x0,-0x8(%rbp)
    8748:	78 27                	js     8771 <safe_lshift_func_int32_t_s_s+0x41>
    874a:	83 7d f8 1f          	cmpl   $0x1f,-0x8(%rbp)
    874e:	7f 21                	jg     8771 <safe_lshift_func_int32_t_s_s+0x41>
    8750:	8b 45 f8             	mov    -0x8(%rbp),%eax
    8753:	ba ff ff ff 7f       	mov    $0x7fffffff,%edx
    8758:	89 c1                	mov    %eax,%ecx
    875a:	d3 fa                	sar    %cl,%edx
    875c:	89 d0                	mov    %edx,%eax
    875e:	39 45 fc             	cmp    %eax,-0x4(%rbp)
    8761:	7f 0e                	jg     8771 <safe_lshift_func_int32_t_s_s+0x41>
    8763:	8b 45 f8             	mov    -0x8(%rbp),%eax
    8766:	8b 55 fc             	mov    -0x4(%rbp),%edx
    8769:	89 c1                	mov    %eax,%ecx
    876b:	d3 e2                	shl    %cl,%edx
    876d:	89 d0                	mov    %edx,%eax
    876f:	eb 03                	jmp    8774 <safe_lshift_func_int32_t_s_s+0x44>
    8771:	8b 45 fc             	mov    -0x4(%rbp),%eax
    8774:	5d                   	pop    %rbp
    8775:	c3                   	retq   

0000000000008776 <safe_lshift_func_int32_t_s_u>:
    8776:	f3 0f 1e fa          	endbr64 
    877a:	55                   	push   %rbp
    877b:	48 89 e5             	mov    %rsp,%rbp
    877e:	89 7d fc             	mov    %edi,-0x4(%rbp)
    8781:	89 75 f8             	mov    %esi,-0x8(%rbp)
    8784:	83 7d fc 00          	cmpl   $0x0,-0x4(%rbp)
    8788:	78 27                	js     87b1 <safe_lshift_func_int32_t_s_u+0x3b>
    878a:	83 7d f8 1f          	cmpl   $0x1f,-0x8(%rbp)
    878e:	77 21                	ja     87b1 <safe_lshift_func_int32_t_s_u+0x3b>
    8790:	8b 45 f8             	mov    -0x8(%rbp),%eax
    8793:	ba ff ff ff 7f       	mov    $0x7fffffff,%edx
    8798:	89 c1                	mov    %eax,%ecx
    879a:	d3 fa                	sar    %cl,%edx
    879c:	89 d0                	mov    %edx,%eax
    879e:	39 45 fc             	cmp    %eax,-0x4(%rbp)
    87a1:	7f 0e                	jg     87b1 <safe_lshift_func_int32_t_s_u+0x3b>
    87a3:	8b 45 f8             	mov    -0x8(%rbp),%eax
    87a6:	8b 55 fc             	mov    -0x4(%rbp),%edx
    87a9:	89 c1                	mov    %eax,%ecx
    87ab:	d3 e2                	shl    %cl,%edx
    87ad:	89 d0                	mov    %edx,%eax
    87af:	eb 03                	jmp    87b4 <safe_lshift_func_int32_t_s_u+0x3e>
    87b1:	8b 45 fc             	mov    -0x4(%rbp),%eax
    87b4:	5d                   	pop    %rbp
    87b5:	c3                   	retq   

00000000000087b6 <safe_rshift_func_int32_t_s_s>:
    87b6:	f3 0f 1e fa          	endbr64 
    87ba:	55                   	push   %rbp
    87bb:	48 89 e5             	mov    %rsp,%rbp
    87be:	89 7d fc             	mov    %edi,-0x4(%rbp)
    87c1:	89 75 f8             	mov    %esi,-0x8(%rbp)
    87c4:	83 7d fc 00          	cmpl   $0x0,-0x4(%rbp)
    87c8:	78 1a                	js     87e4 <safe_rshift_func_int32_t_s_s+0x2e>
    87ca:	83 7d f8 00          	cmpl   $0x0,-0x8(%rbp)
    87ce:	78 14                	js     87e4 <safe_rshift_func_int32_t_s_s+0x2e>
    87d0:	83 7d f8 1f          	cmpl   $0x1f,-0x8(%rbp)
    87d4:	7f 0e                	jg     87e4 <safe_rshift_func_int32_t_s_s+0x2e>
    87d6:	8b 45 f8             	mov    -0x8(%rbp),%eax
    87d9:	8b 55 fc             	mov    -0x4(%rbp),%edx
    87dc:	89 c1                	mov    %eax,%ecx
    87de:	d3 fa                	sar    %cl,%edx
    87e0:	89 d0                	mov    %edx,%eax
    87e2:	eb 03                	jmp    87e7 <safe_rshift_func_int32_t_s_s+0x31>
    87e4:	8b 45 fc             	mov    -0x4(%rbp),%eax
    87e7:	5d                   	pop    %rbp
    87e8:	c3                   	retq   

00000000000087e9 <safe_rshift_func_int32_t_s_u>:
    87e9:	f3 0f 1e fa          	endbr64 
    87ed:	55                   	push   %rbp
    87ee:	48 89 e5             	mov    %rsp,%rbp
    87f1:	89 7d fc             	mov    %edi,-0x4(%rbp)
    87f4:	89 75 f8             	mov    %esi,-0x8(%rbp)
    87f7:	83 7d fc 00          	cmpl   $0x0,-0x4(%rbp)
    87fb:	78 14                	js     8811 <safe_rshift_func_int32_t_s_u+0x28>
    87fd:	83 7d f8 1f          	cmpl   $0x1f,-0x8(%rbp)
    8801:	77 0e                	ja     8811 <safe_rshift_func_int32_t_s_u+0x28>
    8803:	8b 45 f8             	mov    -0x8(%rbp),%eax
    8806:	8b 55 fc             	mov    -0x4(%rbp),%edx
    8809:	89 c1                	mov    %eax,%ecx
    880b:	d3 fa                	sar    %cl,%edx
    880d:	89 d0                	mov    %edx,%eax
    880f:	eb 03                	jmp    8814 <safe_rshift_func_int32_t_s_u+0x2b>
    8811:	8b 45 fc             	mov    -0x4(%rbp),%eax
    8814:	5d                   	pop    %rbp
    8815:	c3                   	retq   

0000000000008816 <safe_unary_minus_func_int64_t_s>:
    8816:	f3 0f 1e fa          	endbr64 
    881a:	55                   	push   %rbp
    881b:	48 89 e5             	mov    %rsp,%rbp
    881e:	48 89 7d f8          	mov    %rdi,-0x8(%rbp)
    8822:	48 b8 00 00 00 00 00 	movabs $0x8000000000000000,%rax
    8829:	00 00 80 
    882c:	48 39 45 f8          	cmp    %rax,-0x8(%rbp)
    8830:	74 09                	je     883b <safe_unary_minus_func_int64_t_s+0x25>
    8832:	48 8b 45 f8          	mov    -0x8(%rbp),%rax
    8836:	48 f7 d8             	neg    %rax
    8839:	eb 04                	jmp    883f <safe_unary_minus_func_int64_t_s+0x29>
    883b:	48 8b 45 f8          	mov    -0x8(%rbp),%rax
    883f:	5d                   	pop    %rbp
    8840:	c3                   	retq   

0000000000008841 <safe_add_func_int64_t_s_s>:
    8841:	f3 0f 1e fa          	endbr64 
    8845:	55                   	push   %rbp
    8846:	48 89 e5             	mov    %rsp,%rbp
    8849:	48 89 7d f8          	mov    %rdi,-0x8(%rbp)
    884d:	48 89 75 f0          	mov    %rsi,-0x10(%rbp)
    8851:	48 83 7d f8 00       	cmpq   $0x0,-0x8(%rbp)
    8856:	7e 1b                	jle    8873 <safe_add_func_int64_t_s_s+0x32>
    8858:	48 83 7d f0 00       	cmpq   $0x0,-0x10(%rbp)
    885d:	7e 14                	jle    8873 <safe_add_func_int64_t_s_s+0x32>
    885f:	48 b8 ff ff ff ff ff 	movabs $0x7fffffffffffffff,%rax
    8866:	ff ff 7f 
    8869:	48 2b 45 f0          	sub    -0x10(%rbp),%rax
    886d:	48 39 45 f8          	cmp    %rax,-0x8(%rbp)
    8871:	7f 2f                	jg     88a2 <safe_add_func_int64_t_s_s+0x61>
    8873:	48 83 7d f8 00       	cmpq   $0x0,-0x8(%rbp)
    8878:	79 1b                	jns    8895 <safe_add_func_int64_t_s_s+0x54>
    887a:	48 83 7d f0 00       	cmpq   $0x0,-0x10(%rbp)
    887f:	79 14                	jns    8895 <safe_add_func_int64_t_s_s+0x54>
    8881:	48 b8 00 00 00 00 00 	movabs $0x8000000000000000,%rax
    8888:	00 00 80 
    888b:	48 2b 45 f0          	sub    -0x10(%rbp),%rax
    888f:	48 39 45 f8          	cmp    %rax,-0x8(%rbp)
    8893:	7c 0d                	jl     88a2 <safe_add_func_int64_t_s_s+0x61>
    8895:	48 8b 55 f8          	mov    -0x8(%rbp),%rdx
    8899:	48 8b 45 f0          	mov    -0x10(%rbp),%rax
    889d:	48 01 d0             	add    %rdx,%rax
    88a0:	eb 04                	jmp    88a6 <safe_add_func_int64_t_s_s+0x65>
    88a2:	48 8b 45 f8          	mov    -0x8(%rbp),%rax
    88a6:	5d                   	pop    %rbp
    88a7:	c3                   	retq   

00000000000088a8 <safe_sub_func_int64_t_s_s>:
    88a8:	f3 0f 1e fa          	endbr64 
    88ac:	55                   	push   %rbp
    88ad:	48 89 e5             	mov    %rsp,%rbp
    88b0:	48 89 7d f8          	mov    %rdi,-0x8(%rbp)
    88b4:	48 89 75 f0          	mov    %rsi,-0x10(%rbp)
    88b8:	48 8b 45 f8          	mov    -0x8(%rbp),%rax
    88bc:	48 33 45 f0          	xor    -0x10(%rbp),%rax
    88c0:	48 89 c2             	mov    %rax,%rdx
    88c3:	48 8b 45 f8          	mov    -0x8(%rbp),%rax
    88c7:	48 33 45 f0          	xor    -0x10(%rbp),%rax
    88cb:	48 b9 00 00 00 00 00 	movabs $0x8000000000000000,%rcx
    88d2:	00 00 80 
    88d5:	48 21 c8             	and    %rcx,%rax
    88d8:	48 33 45 f8          	xor    -0x8(%rbp),%rax
    88dc:	48 2b 45 f0          	sub    -0x10(%rbp),%rax
    88e0:	48 33 45 f0          	xor    -0x10(%rbp),%rax
    88e4:	48 21 d0             	and    %rdx,%rax
    88e7:	48 85 c0             	test   %rax,%rax
    88ea:	78 0a                	js     88f6 <safe_sub_func_int64_t_s_s+0x4e>
    88ec:	48 8b 45 f8          	mov    -0x8(%rbp),%rax
    88f0:	48 2b 45 f0          	sub    -0x10(%rbp),%rax
    88f4:	eb 04                	jmp    88fa <safe_sub_func_int64_t_s_s+0x52>
    88f6:	48 8b 45 f8          	mov    -0x8(%rbp),%rax
    88fa:	5d                   	pop    %rbp
    88fb:	c3                   	retq   

00000000000088fc <safe_mul_func_int64_t_s_s>:
    88fc:	f3 0f 1e fa          	endbr64 
    8900:	55                   	push   %rbp
    8901:	48 89 e5             	mov    %rsp,%rbp
    8904:	48 89 7d f8          	mov    %rdi,-0x8(%rbp)
    8908:	48 89 75 f0          	mov    %rsi,-0x10(%rbp)
    890c:	48 83 7d f8 00       	cmpq   $0x0,-0x8(%rbp)
    8911:	7e 1d                	jle    8930 <safe_mul_func_int64_t_s_s+0x34>
    8913:	48 83 7d f0 00       	cmpq   $0x0,-0x10(%rbp)
    8918:	7e 16                	jle    8930 <safe_mul_func_int64_t_s_s+0x34>
    891a:	48 b8 ff ff ff ff ff 	movabs $0x7fffffffffffffff,%rax
    8921:	ff ff 7f 
    8924:	48 99                	cqto   
    8926:	48 f7 7d f0          	idivq  -0x10(%rbp)
    892a:	48 39 45 f8          	cmp    %rax,-0x8(%rbp)
    892e:	7f 7e                	jg     89ae <safe_mul_func_int64_t_s_s+0xb2>
    8930:	48 83 7d f8 00       	cmpq   $0x0,-0x8(%rbp)
    8935:	7e 1d                	jle    8954 <safe_mul_func_int64_t_s_s+0x58>
    8937:	48 83 7d f0 00       	cmpq   $0x0,-0x10(%rbp)
    893c:	7f 16                	jg     8954 <safe_mul_func_int64_t_s_s+0x58>
    893e:	48 b8 00 00 00 00 00 	movabs $0x8000000000000000,%rax
    8945:	00 00 80 
    8948:	48 99                	cqto   
    894a:	48 f7 7d f8          	idivq  -0x8(%rbp)
    894e:	48 39 45 f0          	cmp    %rax,-0x10(%rbp)
    8952:	7c 5a                	jl     89ae <safe_mul_func_int64_t_s_s+0xb2>
    8954:	48 83 7d f8 00       	cmpq   $0x0,-0x8(%rbp)
    8959:	7f 1d                	jg     8978 <safe_mul_func_int64_t_s_s+0x7c>
    895b:	48 83 7d f0 00       	cmpq   $0x0,-0x10(%rbp)
    8960:	7e 16                	jle    8978 <safe_mul_func_int64_t_s_s+0x7c>
    8962:	48 b8 00 00 00 00 00 	movabs $0x8000000000000000,%rax
    8969:	00 00 80 
    896c:	48 99                	cqto   
    896e:	48 f7 7d f0          	idivq  -0x10(%rbp)
    8972:	48 39 45 f8          	cmp    %rax,-0x8(%rbp)
    8976:	7c 36                	jl     89ae <safe_mul_func_int64_t_s_s+0xb2>
    8978:	48 83 7d f8 00       	cmpq   $0x0,-0x8(%rbp)
    897d:	7f 24                	jg     89a3 <safe_mul_func_int64_t_s_s+0xa7>
    897f:	48 83 7d f0 00       	cmpq   $0x0,-0x10(%rbp)
    8984:	7f 1d                	jg     89a3 <safe_mul_func_int64_t_s_s+0xa7>
    8986:	48 83 7d f8 00       	cmpq   $0x0,-0x8(%rbp)
    898b:	74 16                	je     89a3 <safe_mul_func_int64_t_s_s+0xa7>
    898d:	48 b8 ff ff ff ff ff 	movabs $0x7fffffffffffffff,%rax
    8994:	ff ff 7f 
    8997:	48 99                	cqto   
    8999:	48 f7 7d f8          	idivq  -0x8(%rbp)
    899d:	48 39 45 f0          	cmp    %rax,-0x10(%rbp)
    89a1:	7c 0b                	jl     89ae <safe_mul_func_int64_t_s_s+0xb2>
    89a3:	48 8b 45 f8          	mov    -0x8(%rbp),%rax
    89a7:	48 0f af 45 f0       	imul   -0x10(%rbp),%rax
    89ac:	eb 04                	jmp    89b2 <safe_mul_func_int64_t_s_s+0xb6>
    89ae:	48 8b 45 f8          	mov    -0x8(%rbp),%rax
    89b2:	5d                   	pop    %rbp
    89b3:	c3                   	retq   

00000000000089b4 <safe_mod_func_int64_t_s_s>:
    89b4:	f3 0f 1e fa          	endbr64 
    89b8:	55                   	push   %rbp
    89b9:	48 89 e5             	mov    %rsp,%rbp
    89bc:	48 89 7d f8          	mov    %rdi,-0x8(%rbp)
    89c0:	48 89 75 f0          	mov    %rsi,-0x10(%rbp)
    89c4:	48 83 7d f0 00       	cmpq   $0x0,-0x10(%rbp)
    89c9:	74 26                	je     89f1 <safe_mod_func_int64_t_s_s+0x3d>
    89cb:	48 b8 00 00 00 00 00 	movabs $0x8000000000000000,%rax
    89d2:	00 00 80 
    89d5:	48 39 45 f8          	cmp    %rax,-0x8(%rbp)
    89d9:	75 07                	jne    89e2 <safe_mod_func_int64_t_s_s+0x2e>
    89db:	48 83 7d f0 ff       	cmpq   $0xffffffffffffffff,-0x10(%rbp)
    89e0:	74 0f                	je     89f1 <safe_mod_func_int64_t_s_s+0x3d>
    89e2:	48 8b 45 f8          	mov    -0x8(%rbp),%rax
    89e6:	48 99                	cqto   
    89e8:	48 f7 7d f0          	idivq  -0x10(%rbp)
    89ec:	48 89 d0             	mov    %rdx,%rax
    89ef:	eb 04                	jmp    89f5 <safe_mod_func_int64_t_s_s+0x41>
    89f1:	48 8b 45 f8          	mov    -0x8(%rbp),%rax
    89f5:	5d                   	pop    %rbp
    89f6:	c3                   	retq   

00000000000089f7 <safe_div_func_int64_t_s_s>:
    89f7:	f3 0f 1e fa          	endbr64 
    89fb:	55                   	push   %rbp
    89fc:	48 89 e5             	mov    %rsp,%rbp
    89ff:	48 89 7d f8          	mov    %rdi,-0x8(%rbp)
    8a03:	48 89 75 f0          	mov    %rsi,-0x10(%rbp)
    8a07:	48 83 7d f0 00       	cmpq   $0x0,-0x10(%rbp)
    8a0c:	74 23                	je     8a31 <safe_div_func_int64_t_s_s+0x3a>
    8a0e:	48 b8 00 00 00 00 00 	movabs $0x8000000000000000,%rax
    8a15:	00 00 80 
    8a18:	48 39 45 f8          	cmp    %rax,-0x8(%rbp)
    8a1c:	75 07                	jne    8a25 <safe_div_func_int64_t_s_s+0x2e>
    8a1e:	48 83 7d f0 ff       	cmpq   $0xffffffffffffffff,-0x10(%rbp)
    8a23:	74 0c                	je     8a31 <safe_div_func_int64_t_s_s+0x3a>
    8a25:	48 8b 45 f8          	mov    -0x8(%rbp),%rax
    8a29:	48 99                	cqto   
    8a2b:	48 f7 7d f0          	idivq  -0x10(%rbp)
    8a2f:	eb 04                	jmp    8a35 <safe_div_func_int64_t_s_s+0x3e>
    8a31:	48 8b 45 f8          	mov    -0x8(%rbp),%rax
    8a35:	5d                   	pop    %rbp
    8a36:	c3                   	retq   

0000000000008a37 <safe_lshift_func_int64_t_s_s>:
    8a37:	f3 0f 1e fa          	endbr64 
    8a3b:	55                   	push   %rbp
    8a3c:	48 89 e5             	mov    %rsp,%rbp
    8a3f:	48 89 7d f8          	mov    %rdi,-0x8(%rbp)
    8a43:	89 75 f4             	mov    %esi,-0xc(%rbp)
    8a46:	48 83 7d f8 00       	cmpq   $0x0,-0x8(%rbp)
    8a4b:	78 38                	js     8a85 <safe_lshift_func_int64_t_s_s+0x4e>
    8a4d:	83 7d f4 00          	cmpl   $0x0,-0xc(%rbp)
    8a51:	78 32                	js     8a85 <safe_lshift_func_int64_t_s_s+0x4e>
    8a53:	83 7d f4 1f          	cmpl   $0x1f,-0xc(%rbp)
    8a57:	7f 2c                	jg     8a85 <safe_lshift_func_int64_t_s_s+0x4e>
    8a59:	8b 45 f4             	mov    -0xc(%rbp),%eax
    8a5c:	48 ba ff ff ff ff ff 	movabs $0x7fffffffffffffff,%rdx
    8a63:	ff ff 7f 
    8a66:	89 c1                	mov    %eax,%ecx
    8a68:	48 d3 fa             	sar    %cl,%rdx
    8a6b:	48 89 d0             	mov    %rdx,%rax
    8a6e:	48 39 45 f8          	cmp    %rax,-0x8(%rbp)
    8a72:	7f 11                	jg     8a85 <safe_lshift_func_int64_t_s_s+0x4e>
    8a74:	8b 45 f4             	mov    -0xc(%rbp),%eax
    8a77:	48 8b 55 f8          	mov    -0x8(%rbp),%rdx
    8a7b:	89 c1                	mov    %eax,%ecx
    8a7d:	48 d3 e2             	shl    %cl,%rdx
    8a80:	48 89 d0             	mov    %rdx,%rax
    8a83:	eb 04                	jmp    8a89 <safe_lshift_func_int64_t_s_s+0x52>
    8a85:	48 8b 45 f8          	mov    -0x8(%rbp),%rax
    8a89:	5d                   	pop    %rbp
    8a8a:	c3                   	retq   

0000000000008a8b <safe_lshift_func_int64_t_s_u>:
    8a8b:	f3 0f 1e fa          	endbr64 
    8a8f:	55                   	push   %rbp
    8a90:	48 89 e5             	mov    %rsp,%rbp
    8a93:	48 89 7d f8          	mov    %rdi,-0x8(%rbp)
    8a97:	89 75 f4             	mov    %esi,-0xc(%rbp)
    8a9a:	48 83 7d f8 00       	cmpq   $0x0,-0x8(%rbp)
    8a9f:	78 32                	js     8ad3 <safe_lshift_func_int64_t_s_u+0x48>
    8aa1:	83 7d f4 1f          	cmpl   $0x1f,-0xc(%rbp)
    8aa5:	77 2c                	ja     8ad3 <safe_lshift_func_int64_t_s_u+0x48>
    8aa7:	8b 45 f4             	mov    -0xc(%rbp),%eax
    8aaa:	48 ba ff ff ff ff ff 	movabs $0x7fffffffffffffff,%rdx
    8ab1:	ff ff 7f 
    8ab4:	89 c1                	mov    %eax,%ecx
    8ab6:	48 d3 fa             	sar    %cl,%rdx
    8ab9:	48 89 d0             	mov    %rdx,%rax
    8abc:	48 39 45 f8          	cmp    %rax,-0x8(%rbp)
    8ac0:	7f 11                	jg     8ad3 <safe_lshift_func_int64_t_s_u+0x48>
    8ac2:	8b 45 f4             	mov    -0xc(%rbp),%eax
    8ac5:	48 8b 55 f8          	mov    -0x8(%rbp),%rdx
    8ac9:	89 c1                	mov    %eax,%ecx
    8acb:	48 d3 e2             	shl    %cl,%rdx
    8ace:	48 89 d0             	mov    %rdx,%rax
    8ad1:	eb 04                	jmp    8ad7 <safe_lshift_func_int64_t_s_u+0x4c>
    8ad3:	48 8b 45 f8          	mov    -0x8(%rbp),%rax
    8ad7:	5d                   	pop    %rbp
    8ad8:	c3                   	retq   

0000000000008ad9 <safe_rshift_func_int64_t_s_s>:
    8ad9:	f3 0f 1e fa          	endbr64 
    8add:	55                   	push   %rbp
    8ade:	48 89 e5             	mov    %rsp,%rbp
    8ae1:	48 89 7d f8          	mov    %rdi,-0x8(%rbp)
    8ae5:	89 75 f4             	mov    %esi,-0xc(%rbp)
    8ae8:	48 83 7d f8 00       	cmpq   $0x0,-0x8(%rbp)
    8aed:	78 1d                	js     8b0c <safe_rshift_func_int64_t_s_s+0x33>
    8aef:	83 7d f4 00          	cmpl   $0x0,-0xc(%rbp)
    8af3:	78 17                	js     8b0c <safe_rshift_func_int64_t_s_s+0x33>
    8af5:	83 7d f4 1f          	cmpl   $0x1f,-0xc(%rbp)
    8af9:	7f 11                	jg     8b0c <safe_rshift_func_int64_t_s_s+0x33>
    8afb:	8b 45 f4             	mov    -0xc(%rbp),%eax
    8afe:	48 8b 55 f8          	mov    -0x8(%rbp),%rdx
    8b02:	89 c1                	mov    %eax,%ecx
    8b04:	48 d3 fa             	sar    %cl,%rdx
    8b07:	48 89 d0             	mov    %rdx,%rax
    8b0a:	eb 04                	jmp    8b10 <safe_rshift_func_int64_t_s_s+0x37>
    8b0c:	48 8b 45 f8          	mov    -0x8(%rbp),%rax
    8b10:	5d                   	pop    %rbp
    8b11:	c3                   	retq   

0000000000008b12 <safe_rshift_func_int64_t_s_u>:
    8b12:	f3 0f 1e fa          	endbr64 
    8b16:	55                   	push   %rbp
    8b17:	48 89 e5             	mov    %rsp,%rbp
    8b1a:	48 89 7d f8          	mov    %rdi,-0x8(%rbp)
    8b1e:	89 75 f4             	mov    %esi,-0xc(%rbp)
    8b21:	48 83 7d f8 00       	cmpq   $0x0,-0x8(%rbp)
    8b26:	78 17                	js     8b3f <safe_rshift_func_int64_t_s_u+0x2d>
    8b28:	83 7d f4 1f          	cmpl   $0x1f,-0xc(%rbp)
    8b2c:	77 11                	ja     8b3f <safe_rshift_func_int64_t_s_u+0x2d>
    8b2e:	8b 45 f4             	mov    -0xc(%rbp),%eax
    8b31:	48 8b 55 f8          	mov    -0x8(%rbp),%rdx
    8b35:	89 c1                	mov    %eax,%ecx
    8b37:	48 d3 fa             	sar    %cl,%rdx
    8b3a:	48 89 d0             	mov    %rdx,%rax
    8b3d:	eb 04                	jmp    8b43 <safe_rshift_func_int64_t_s_u+0x31>
    8b3f:	48 8b 45 f8          	mov    -0x8(%rbp),%rax
    8b43:	5d                   	pop    %rbp
    8b44:	c3                   	retq   

0000000000008b45 <safe_unary_minus_func_uint8_t_u>:
    8b45:	f3 0f 1e fa          	endbr64 
    8b49:	55                   	push   %rbp
    8b4a:	48 89 e5             	mov    %rsp,%rbp
    8b4d:	89 f8                	mov    %edi,%eax
    8b4f:	88 45 fc             	mov    %al,-0x4(%rbp)
    8b52:	0f b6 45 fc          	movzbl -0x4(%rbp),%eax
    8b56:	f7 d8                	neg    %eax
    8b58:	5d                   	pop    %rbp
    8b59:	c3                   	retq   

0000000000008b5a <safe_add_func_uint8_t_u_u>:
    8b5a:	f3 0f 1e fa          	endbr64 
    8b5e:	55                   	push   %rbp
    8b5f:	48 89 e5             	mov    %rsp,%rbp
    8b62:	89 fa                	mov    %edi,%edx
    8b64:	89 f0                	mov    %esi,%eax
    8b66:	88 55 fc             	mov    %dl,-0x4(%rbp)
    8b69:	88 45 f8             	mov    %al,-0x8(%rbp)
    8b6c:	0f b6 55 fc          	movzbl -0x4(%rbp),%edx
    8b70:	0f b6 45 f8          	movzbl -0x8(%rbp),%eax
    8b74:	01 d0                	add    %edx,%eax
    8b76:	5d                   	pop    %rbp
    8b77:	c3                   	retq   

0000000000008b78 <safe_sub_func_uint8_t_u_u>:
    8b78:	f3 0f 1e fa          	endbr64 
    8b7c:	55                   	push   %rbp
    8b7d:	48 89 e5             	mov    %rsp,%rbp
    8b80:	89 fa                	mov    %edi,%edx
    8b82:	89 f0                	mov    %esi,%eax
    8b84:	88 55 fc             	mov    %dl,-0x4(%rbp)
    8b87:	88 45 f8             	mov    %al,-0x8(%rbp)
    8b8a:	0f b6 45 fc          	movzbl -0x4(%rbp),%eax
    8b8e:	2a 45 f8             	sub    -0x8(%rbp),%al
    8b91:	5d                   	pop    %rbp
    8b92:	c3                   	retq   

0000000000008b93 <safe_mul_func_uint8_t_u_u>:
    8b93:	f3 0f 1e fa          	endbr64 
    8b97:	55                   	push   %rbp
    8b98:	48 89 e5             	mov    %rsp,%rbp
    8b9b:	89 fa                	mov    %edi,%edx
    8b9d:	89 f0                	mov    %esi,%eax
    8b9f:	88 55 fc             	mov    %dl,-0x4(%rbp)
    8ba2:	88 45 f8             	mov    %al,-0x8(%rbp)
    8ba5:	0f b6 45 fc          	movzbl -0x4(%rbp),%eax
    8ba9:	f6 65 f8             	mulb   -0x8(%rbp)
    8bac:	5d                   	pop    %rbp
    8bad:	c3                   	retq   

0000000000008bae <safe_mod_func_uint8_t_u_u>:
    8bae:	f3 0f 1e fa          	endbr64 
    8bb2:	55                   	push   %rbp
    8bb3:	48 89 e5             	mov    %rsp,%rbp
    8bb6:	89 fa                	mov    %edi,%edx
    8bb8:	89 f0                	mov    %esi,%eax
    8bba:	88 55 fc             	mov    %dl,-0x4(%rbp)
    8bbd:	88 45 f8             	mov    %al,-0x8(%rbp)
    8bc0:	80 7d f8 00          	cmpb   $0x0,-0x8(%rbp)
    8bc4:	74 0f                	je     8bd5 <safe_mod_func_uint8_t_u_u+0x27>
    8bc6:	0f b6 45 fc          	movzbl -0x4(%rbp),%eax
    8bca:	0f b6 c0             	movzbl %al,%eax
    8bcd:	f6 75 f8             	divb   -0x8(%rbp)
    8bd0:	0f b6 c4             	movzbl %ah,%eax
    8bd3:	eb 04                	jmp    8bd9 <safe_mod_func_uint8_t_u_u+0x2b>
    8bd5:	0f b6 45 fc          	movzbl -0x4(%rbp),%eax
    8bd9:	5d                   	pop    %rbp
    8bda:	c3                   	retq   

0000000000008bdb <safe_div_func_uint8_t_u_u>:
    8bdb:	f3 0f 1e fa          	endbr64 
    8bdf:	55                   	push   %rbp
    8be0:	48 89 e5             	mov    %rsp,%rbp
    8be3:	89 fa                	mov    %edi,%edx
    8be5:	89 f0                	mov    %esi,%eax
    8be7:	88 55 fc             	mov    %dl,-0x4(%rbp)
    8bea:	88 45 f8             	mov    %al,-0x8(%rbp)
    8bed:	80 7d f8 00          	cmpb   $0x0,-0x8(%rbp)
    8bf1:	74 0c                	je     8bff <safe_div_func_uint8_t_u_u+0x24>
    8bf3:	0f b6 45 fc          	movzbl -0x4(%rbp),%eax
    8bf7:	0f b6 c0             	movzbl %al,%eax
    8bfa:	f6 75 f8             	divb   -0x8(%rbp)
    8bfd:	eb 04                	jmp    8c03 <safe_div_func_uint8_t_u_u+0x28>
    8bff:	0f b6 45 fc          	movzbl -0x4(%rbp),%eax
    8c03:	5d                   	pop    %rbp
    8c04:	c3                   	retq   

0000000000008c05 <safe_lshift_func_uint8_t_u_s>:
    8c05:	f3 0f 1e fa          	endbr64 
    8c09:	55                   	push   %rbp
    8c0a:	48 89 e5             	mov    %rsp,%rbp
    8c0d:	89 f8                	mov    %edi,%eax
    8c0f:	89 75 f8             	mov    %esi,-0x8(%rbp)
    8c12:	88 45 fc             	mov    %al,-0x4(%rbp)
    8c15:	83 7d f8 00          	cmpl   $0x0,-0x8(%rbp)
    8c19:	78 2b                	js     8c46 <safe_lshift_func_uint8_t_u_s+0x41>
    8c1b:	83 7d f8 1f          	cmpl   $0x1f,-0x8(%rbp)
    8c1f:	7f 25                	jg     8c46 <safe_lshift_func_uint8_t_u_s+0x41>
    8c21:	0f b6 55 fc          	movzbl -0x4(%rbp),%edx
    8c25:	8b 45 f8             	mov    -0x8(%rbp),%eax
    8c28:	be ff 00 00 00       	mov    $0xff,%esi
    8c2d:	89 c1                	mov    %eax,%ecx
    8c2f:	d3 fe                	sar    %cl,%esi
    8c31:	89 f0                	mov    %esi,%eax
    8c33:	39 c2                	cmp    %eax,%edx
    8c35:	7f 0f                	jg     8c46 <safe_lshift_func_uint8_t_u_s+0x41>
    8c37:	0f b6 55 fc          	movzbl -0x4(%rbp),%edx
    8c3b:	8b 45 f8             	mov    -0x8(%rbp),%eax
    8c3e:	89 c1                	mov    %eax,%ecx
    8c40:	d3 e2                	shl    %cl,%edx
    8c42:	89 d0                	mov    %edx,%eax
    8c44:	eb 04                	jmp    8c4a <safe_lshift_func_uint8_t_u_s+0x45>
    8c46:	0f b6 45 fc          	movzbl -0x4(%rbp),%eax
    8c4a:	5d                   	pop    %rbp
    8c4b:	c3                   	retq   

0000000000008c4c <safe_lshift_func_uint8_t_u_u>:
    8c4c:	f3 0f 1e fa          	endbr64 
    8c50:	55                   	push   %rbp
    8c51:	48 89 e5             	mov    %rsp,%rbp
    8c54:	89 f8                	mov    %edi,%eax
    8c56:	89 75 f8             	mov    %esi,-0x8(%rbp)
    8c59:	88 45 fc             	mov    %al,-0x4(%rbp)
    8c5c:	83 7d f8 1f          	cmpl   $0x1f,-0x8(%rbp)
    8c60:	77 25                	ja     8c87 <safe_lshift_func_uint8_t_u_u+0x3b>
    8c62:	0f b6 55 fc          	movzbl -0x4(%rbp),%edx
    8c66:	8b 45 f8             	mov    -0x8(%rbp),%eax
    8c69:	be ff 00 00 00       	mov    $0xff,%esi
    8c6e:	89 c1                	mov    %eax,%ecx
    8c70:	d3 fe                	sar    %cl,%esi
    8c72:	89 f0                	mov    %esi,%eax
    8c74:	39 c2                	cmp    %eax,%edx
    8c76:	7f 0f                	jg     8c87 <safe_lshift_func_uint8_t_u_u+0x3b>
    8c78:	0f b6 55 fc          	movzbl -0x4(%rbp),%edx
    8c7c:	8b 45 f8             	mov    -0x8(%rbp),%eax
    8c7f:	89 c1                	mov    %eax,%ecx
    8c81:	d3 e2                	shl    %cl,%edx
    8c83:	89 d0                	mov    %edx,%eax
    8c85:	eb 04                	jmp    8c8b <safe_lshift_func_uint8_t_u_u+0x3f>
    8c87:	0f b6 45 fc          	movzbl -0x4(%rbp),%eax
    8c8b:	5d                   	pop    %rbp
    8c8c:	c3                   	retq   

0000000000008c8d <safe_rshift_func_uint8_t_u_s>:
    8c8d:	f3 0f 1e fa          	endbr64 
    8c91:	55                   	push   %rbp
    8c92:	48 89 e5             	mov    %rsp,%rbp
    8c95:	89 f8                	mov    %edi,%eax
    8c97:	89 75 f8             	mov    %esi,-0x8(%rbp)
    8c9a:	88 45 fc             	mov    %al,-0x4(%rbp)
    8c9d:	83 7d f8 00          	cmpl   $0x0,-0x8(%rbp)
    8ca1:	78 15                	js     8cb8 <safe_rshift_func_uint8_t_u_s+0x2b>
    8ca3:	83 7d f8 1f          	cmpl   $0x1f,-0x8(%rbp)
    8ca7:	7f 0f                	jg     8cb8 <safe_rshift_func_uint8_t_u_s+0x2b>
    8ca9:	0f b6 55 fc          	movzbl -0x4(%rbp),%edx
    8cad:	8b 45 f8             	mov    -0x8(%rbp),%eax
    8cb0:	89 c1                	mov    %eax,%ecx
    8cb2:	d3 fa                	sar    %cl,%edx
    8cb4:	89 d0                	mov    %edx,%eax
    8cb6:	eb 04                	jmp    8cbc <safe_rshift_func_uint8_t_u_s+0x2f>
    8cb8:	0f b6 45 fc          	movzbl -0x4(%rbp),%eax
    8cbc:	5d                   	pop    %rbp
    8cbd:	c3                   	retq   

0000000000008cbe <safe_rshift_func_uint8_t_u_u>:
    8cbe:	f3 0f 1e fa          	endbr64 
    8cc2:	55                   	push   %rbp
    8cc3:	48 89 e5             	mov    %rsp,%rbp
    8cc6:	89 f8                	mov    %edi,%eax
    8cc8:	89 75 f8             	mov    %esi,-0x8(%rbp)
    8ccb:	88 45 fc             	mov    %al,-0x4(%rbp)
    8cce:	83 7d f8 1f          	cmpl   $0x1f,-0x8(%rbp)
    8cd2:	77 0f                	ja     8ce3 <safe_rshift_func_uint8_t_u_u+0x25>
    8cd4:	0f b6 55 fc          	movzbl -0x4(%rbp),%edx
    8cd8:	8b 45 f8             	mov    -0x8(%rbp),%eax
    8cdb:	89 c1                	mov    %eax,%ecx
    8cdd:	d3 fa                	sar    %cl,%edx
    8cdf:	89 d0                	mov    %edx,%eax
    8ce1:	eb 04                	jmp    8ce7 <safe_rshift_func_uint8_t_u_u+0x29>
    8ce3:	0f b6 45 fc          	movzbl -0x4(%rbp),%eax
    8ce7:	5d                   	pop    %rbp
    8ce8:	c3                   	retq   

0000000000008ce9 <safe_unary_minus_func_uint16_t_u>:
    8ce9:	f3 0f 1e fa          	endbr64 
    8ced:	55                   	push   %rbp
    8cee:	48 89 e5             	mov    %rsp,%rbp
    8cf1:	89 f8                	mov    %edi,%eax
    8cf3:	66 89 45 fc          	mov    %ax,-0x4(%rbp)
    8cf7:	0f b7 45 fc          	movzwl -0x4(%rbp),%eax
    8cfb:	f7 d8                	neg    %eax
    8cfd:	5d                   	pop    %rbp
    8cfe:	c3                   	retq   

0000000000008cff <safe_add_func_uint16_t_u_u>:
    8cff:	f3 0f 1e fa          	endbr64 
    8d03:	55                   	push   %rbp
    8d04:	48 89 e5             	mov    %rsp,%rbp
    8d07:	89 fa                	mov    %edi,%edx
    8d09:	89 f0                	mov    %esi,%eax
    8d0b:	66 89 55 fc          	mov    %dx,-0x4(%rbp)
    8d0f:	66 89 45 f8          	mov    %ax,-0x8(%rbp)
    8d13:	0f b7 55 fc          	movzwl -0x4(%rbp),%edx
    8d17:	0f b7 45 f8          	movzwl -0x8(%rbp),%eax
    8d1b:	01 d0                	add    %edx,%eax
    8d1d:	5d                   	pop    %rbp
    8d1e:	c3                   	retq   

0000000000008d1f <safe_sub_func_uint16_t_u_u>:
    8d1f:	f3 0f 1e fa          	endbr64 
    8d23:	55                   	push   %rbp
    8d24:	48 89 e5             	mov    %rsp,%rbp
    8d27:	89 fa                	mov    %edi,%edx
    8d29:	89 f0                	mov    %esi,%eax
    8d2b:	66 89 55 fc          	mov    %dx,-0x4(%rbp)
    8d2f:	66 89 45 f8          	mov    %ax,-0x8(%rbp)
    8d33:	0f b7 45 fc          	movzwl -0x4(%rbp),%eax
    8d37:	66 2b 45 f8          	sub    -0x8(%rbp),%ax
    8d3b:	5d                   	pop    %rbp
    8d3c:	c3                   	retq   

0000000000008d3d <safe_mul_func_uint16_t_u_u>:
    8d3d:	f3 0f 1e fa          	endbr64 
    8d41:	55                   	push   %rbp
    8d42:	48 89 e5             	mov    %rsp,%rbp
    8d45:	89 fa                	mov    %edi,%edx
    8d47:	89 f0                	mov    %esi,%eax
    8d49:	66 89 55 fc          	mov    %dx,-0x4(%rbp)
    8d4d:	66 89 45 f8          	mov    %ax,-0x8(%rbp)
    8d51:	0f b7 45 fc          	movzwl -0x4(%rbp),%eax
    8d55:	66 0f af 45 f8       	imul   -0x8(%rbp),%ax
    8d5a:	5d                   	pop    %rbp
    8d5b:	c3                   	retq   

0000000000008d5c <safe_mod_func_uint16_t_u_u>:
    8d5c:	f3 0f 1e fa          	endbr64 
    8d60:	55                   	push   %rbp
    8d61:	48 89 e5             	mov    %rsp,%rbp
    8d64:	89 fa                	mov    %edi,%edx
    8d66:	89 f0                	mov    %esi,%eax
    8d68:	66 89 55 fc          	mov    %dx,-0x4(%rbp)
    8d6c:	66 89 45 f8          	mov    %ax,-0x8(%rbp)
    8d70:	66 83 7d f8 00       	cmpw   $0x0,-0x8(%rbp)
    8d75:	74 11                	je     8d88 <safe_mod_func_uint16_t_u_u+0x2c>
    8d77:	0f b7 45 fc          	movzwl -0x4(%rbp),%eax
    8d7b:	ba 00 00 00 00       	mov    $0x0,%edx
    8d80:	66 f7 75 f8          	divw   -0x8(%rbp)
    8d84:	89 d0                	mov    %edx,%eax
    8d86:	eb 04                	jmp    8d8c <safe_mod_func_uint16_t_u_u+0x30>
    8d88:	0f b7 45 fc          	movzwl -0x4(%rbp),%eax
    8d8c:	5d                   	pop    %rbp
    8d8d:	c3                   	retq   

0000000000008d8e <safe_div_func_uint16_t_u_u>:
    8d8e:	f3 0f 1e fa          	endbr64 
    8d92:	55                   	push   %rbp
    8d93:	48 89 e5             	mov    %rsp,%rbp
    8d96:	89 fa                	mov    %edi,%edx
    8d98:	89 f0                	mov    %esi,%eax
    8d9a:	66 89 55 fc          	mov    %dx,-0x4(%rbp)
    8d9e:	66 89 45 f8          	mov    %ax,-0x8(%rbp)
    8da2:	66 83 7d f8 00       	cmpw   $0x0,-0x8(%rbp)
    8da7:	74 0f                	je     8db8 <safe_div_func_uint16_t_u_u+0x2a>
    8da9:	0f b7 45 fc          	movzwl -0x4(%rbp),%eax
    8dad:	ba 00 00 00 00       	mov    $0x0,%edx
    8db2:	66 f7 75 f8          	divw   -0x8(%rbp)
    8db6:	eb 04                	jmp    8dbc <safe_div_func_uint16_t_u_u+0x2e>
    8db8:	0f b7 45 fc          	movzwl -0x4(%rbp),%eax
    8dbc:	5d                   	pop    %rbp
    8dbd:	c3                   	retq   

0000000000008dbe <safe_lshift_func_uint16_t_u_s>:
    8dbe:	f3 0f 1e fa          	endbr64 
    8dc2:	55                   	push   %rbp
    8dc3:	48 89 e5             	mov    %rsp,%rbp
    8dc6:	89 f8                	mov    %edi,%eax
    8dc8:	89 75 f8             	mov    %esi,-0x8(%rbp)
    8dcb:	66 89 45 fc          	mov    %ax,-0x4(%rbp)
    8dcf:	83 7d f8 00          	cmpl   $0x0,-0x8(%rbp)
    8dd3:	78 2b                	js     8e00 <safe_lshift_func_uint16_t_u_s+0x42>
    8dd5:	83 7d f8 1f          	cmpl   $0x1f,-0x8(%rbp)
    8dd9:	7f 25                	jg     8e00 <safe_lshift_func_uint16_t_u_s+0x42>
    8ddb:	0f b7 55 fc          	movzwl -0x4(%rbp),%edx
    8ddf:	8b 45 f8             	mov    -0x8(%rbp),%eax
    8de2:	be ff ff 00 00       	mov    $0xffff,%esi
    8de7:	89 c1                	mov    %eax,%ecx
    8de9:	d3 fe                	sar    %cl,%esi
    8deb:	89 f0                	mov    %esi,%eax
    8ded:	39 c2                	cmp    %eax,%edx
    8def:	7f 0f                	jg     8e00 <safe_lshift_func_uint16_t_u_s+0x42>
    8df1:	0f b7 55 fc          	movzwl -0x4(%rbp),%edx
    8df5:	8b 45 f8             	mov    -0x8(%rbp),%eax
    8df8:	89 c1                	mov    %eax,%ecx
    8dfa:	d3 e2                	shl    %cl,%edx
    8dfc:	89 d0                	mov    %edx,%eax
    8dfe:	eb 04                	jmp    8e04 <safe_lshift_func_uint16_t_u_s+0x46>
    8e00:	0f b7 45 fc          	movzwl -0x4(%rbp),%eax
    8e04:	5d                   	pop    %rbp
    8e05:	c3                   	retq   

0000000000008e06 <safe_lshift_func_uint16_t_u_u>:
    8e06:	f3 0f 1e fa          	endbr64 
    8e0a:	55                   	push   %rbp
    8e0b:	48 89 e5             	mov    %rsp,%rbp
    8e0e:	89 f8                	mov    %edi,%eax
    8e10:	89 75 f8             	mov    %esi,-0x8(%rbp)
    8e13:	66 89 45 fc          	mov    %ax,-0x4(%rbp)
    8e17:	83 7d f8 1f          	cmpl   $0x1f,-0x8(%rbp)
    8e1b:	77 25                	ja     8e42 <safe_lshift_func_uint16_t_u_u+0x3c>
    8e1d:	0f b7 55 fc          	movzwl -0x4(%rbp),%edx
    8e21:	8b 45 f8             	mov    -0x8(%rbp),%eax
    8e24:	be ff ff 00 00       	mov    $0xffff,%esi
    8e29:	89 c1                	mov    %eax,%ecx
    8e2b:	d3 fe                	sar    %cl,%esi
    8e2d:	89 f0                	mov    %esi,%eax
    8e2f:	39 c2                	cmp    %eax,%edx
    8e31:	7f 0f                	jg     8e42 <safe_lshift_func_uint16_t_u_u+0x3c>
    8e33:	0f b7 55 fc          	movzwl -0x4(%rbp),%edx
    8e37:	8b 45 f8             	mov    -0x8(%rbp),%eax
    8e3a:	89 c1                	mov    %eax,%ecx
    8e3c:	d3 e2                	shl    %cl,%edx
    8e3e:	89 d0                	mov    %edx,%eax
    8e40:	eb 04                	jmp    8e46 <safe_lshift_func_uint16_t_u_u+0x40>
    8e42:	0f b7 45 fc          	movzwl -0x4(%rbp),%eax
    8e46:	5d                   	pop    %rbp
    8e47:	c3                   	retq   

0000000000008e48 <safe_rshift_func_uint16_t_u_s>:
    8e48:	f3 0f 1e fa          	endbr64 
    8e4c:	55                   	push   %rbp
    8e4d:	48 89 e5             	mov    %rsp,%rbp
    8e50:	89 f8                	mov    %edi,%eax
    8e52:	89 75 f8             	mov    %esi,-0x8(%rbp)
    8e55:	66 89 45 fc          	mov    %ax,-0x4(%rbp)
    8e59:	83 7d f8 00          	cmpl   $0x0,-0x8(%rbp)
    8e5d:	78 15                	js     8e74 <safe_rshift_func_uint16_t_u_s+0x2c>
    8e5f:	83 7d f8 1f          	cmpl   $0x1f,-0x8(%rbp)
    8e63:	7f 0f                	jg     8e74 <safe_rshift_func_uint16_t_u_s+0x2c>
    8e65:	0f b7 55 fc          	movzwl -0x4(%rbp),%edx
    8e69:	8b 45 f8             	mov    -0x8(%rbp),%eax
    8e6c:	89 c1                	mov    %eax,%ecx
    8e6e:	d3 fa                	sar    %cl,%edx
    8e70:	89 d0                	mov    %edx,%eax
    8e72:	eb 04                	jmp    8e78 <safe_rshift_func_uint16_t_u_s+0x30>
    8e74:	0f b7 45 fc          	movzwl -0x4(%rbp),%eax
    8e78:	5d                   	pop    %rbp
    8e79:	c3                   	retq   

0000000000008e7a <safe_rshift_func_uint16_t_u_u>:
    8e7a:	f3 0f 1e fa          	endbr64 
    8e7e:	55                   	push   %rbp
    8e7f:	48 89 e5             	mov    %rsp,%rbp
    8e82:	89 f8                	mov    %edi,%eax
    8e84:	89 75 f8             	mov    %esi,-0x8(%rbp)
    8e87:	66 89 45 fc          	mov    %ax,-0x4(%rbp)
    8e8b:	83 7d f8 1f          	cmpl   $0x1f,-0x8(%rbp)
    8e8f:	77 0f                	ja     8ea0 <safe_rshift_func_uint16_t_u_u+0x26>
    8e91:	0f b7 55 fc          	movzwl -0x4(%rbp),%edx
    8e95:	8b 45 f8             	mov    -0x8(%rbp),%eax
    8e98:	89 c1                	mov    %eax,%ecx
    8e9a:	d3 fa                	sar    %cl,%edx
    8e9c:	89 d0                	mov    %edx,%eax
    8e9e:	eb 04                	jmp    8ea4 <safe_rshift_func_uint16_t_u_u+0x2a>
    8ea0:	0f b7 45 fc          	movzwl -0x4(%rbp),%eax
    8ea4:	5d                   	pop    %rbp
    8ea5:	c3                   	retq   

0000000000008ea6 <safe_unary_minus_func_uint32_t_u>:
    8ea6:	f3 0f 1e fa          	endbr64 
    8eaa:	55                   	push   %rbp
    8eab:	48 89 e5             	mov    %rsp,%rbp
    8eae:	89 7d fc             	mov    %edi,-0x4(%rbp)
    8eb1:	8b 45 fc             	mov    -0x4(%rbp),%eax
    8eb4:	f7 d8                	neg    %eax
    8eb6:	5d                   	pop    %rbp
    8eb7:	c3                   	retq   

0000000000008eb8 <safe_add_func_uint32_t_u_u>:
    8eb8:	f3 0f 1e fa          	endbr64 
    8ebc:	55                   	push   %rbp
    8ebd:	48 89 e5             	mov    %rsp,%rbp
    8ec0:	89 7d fc             	mov    %edi,-0x4(%rbp)
    8ec3:	89 75 f8             	mov    %esi,-0x8(%rbp)
    8ec6:	8b 55 fc             	mov    -0x4(%rbp),%edx
    8ec9:	8b 45 f8             	mov    -0x8(%rbp),%eax
    8ecc:	01 d0                	add    %edx,%eax
    8ece:	5d                   	pop    %rbp
    8ecf:	c3                   	retq   

0000000000008ed0 <safe_sub_func_uint32_t_u_u>:
    8ed0:	f3 0f 1e fa          	endbr64 
    8ed4:	55                   	push   %rbp
    8ed5:	48 89 e5             	mov    %rsp,%rbp
    8ed8:	89 7d fc             	mov    %edi,-0x4(%rbp)
    8edb:	89 75 f8             	mov    %esi,-0x8(%rbp)
    8ede:	8b 45 fc             	mov    -0x4(%rbp),%eax
    8ee1:	2b 45 f8             	sub    -0x8(%rbp),%eax
    8ee4:	5d                   	pop    %rbp
    8ee5:	c3                   	retq   

0000000000008ee6 <safe_mul_func_uint32_t_u_u>:
    8ee6:	f3 0f 1e fa          	endbr64 
    8eea:	55                   	push   %rbp
    8eeb:	48 89 e5             	mov    %rsp,%rbp
    8eee:	89 7d fc             	mov    %edi,-0x4(%rbp)
    8ef1:	89 75 f8             	mov    %esi,-0x8(%rbp)
    8ef4:	8b 45 fc             	mov    -0x4(%rbp),%eax
    8ef7:	0f af 45 f8          	imul   -0x8(%rbp),%eax
    8efb:	5d                   	pop    %rbp
    8efc:	c3                   	retq   

0000000000008efd <safe_mod_func_uint32_t_u_u>:
    8efd:	f3 0f 1e fa          	endbr64 
    8f01:	55                   	push   %rbp
    8f02:	48 89 e5             	mov    %rsp,%rbp
    8f05:	89 7d fc             	mov    %edi,-0x4(%rbp)
    8f08:	89 75 f8             	mov    %esi,-0x8(%rbp)
    8f0b:	83 7d f8 00          	cmpl   $0x0,-0x8(%rbp)
    8f0f:	74 0f                	je     8f20 <safe_mod_func_uint32_t_u_u+0x23>
    8f11:	8b 45 fc             	mov    -0x4(%rbp),%eax
    8f14:	ba 00 00 00 00       	mov    $0x0,%edx
    8f19:	f7 75 f8             	divl   -0x8(%rbp)
    8f1c:	89 d0                	mov    %edx,%eax
    8f1e:	eb 03                	jmp    8f23 <safe_mod_func_uint32_t_u_u+0x26>
    8f20:	8b 45 fc             	mov    -0x4(%rbp),%eax
    8f23:	5d                   	pop    %rbp
    8f24:	c3                   	retq   

0000000000008f25 <safe_div_func_uint32_t_u_u>:
    8f25:	f3 0f 1e fa          	endbr64 
    8f29:	55                   	push   %rbp
    8f2a:	48 89 e5             	mov    %rsp,%rbp
    8f2d:	89 7d fc             	mov    %edi,-0x4(%rbp)
    8f30:	89 75 f8             	mov    %esi,-0x8(%rbp)
    8f33:	83 7d f8 00          	cmpl   $0x0,-0x8(%rbp)
    8f37:	74 0d                	je     8f46 <safe_div_func_uint32_t_u_u+0x21>
    8f39:	8b 45 fc             	mov    -0x4(%rbp),%eax
    8f3c:	ba 00 00 00 00       	mov    $0x0,%edx
    8f41:	f7 75 f8             	divl   -0x8(%rbp)
    8f44:	eb 03                	jmp    8f49 <safe_div_func_uint32_t_u_u+0x24>
    8f46:	8b 45 fc             	mov    -0x4(%rbp),%eax
    8f49:	5d                   	pop    %rbp
    8f4a:	c3                   	retq   

0000000000008f4b <safe_lshift_func_uint32_t_u_s>:
    8f4b:	f3 0f 1e fa          	endbr64 
    8f4f:	55                   	push   %rbp
    8f50:	48 89 e5             	mov    %rsp,%rbp
    8f53:	89 7d fc             	mov    %edi,-0x4(%rbp)
    8f56:	89 75 f8             	mov    %esi,-0x8(%rbp)
    8f59:	83 7d f8 00          	cmpl   $0x0,-0x8(%rbp)
    8f5d:	78 27                	js     8f86 <safe_lshift_func_uint32_t_u_s+0x3b>
    8f5f:	83 7d f8 1f          	cmpl   $0x1f,-0x8(%rbp)
    8f63:	7f 21                	jg     8f86 <safe_lshift_func_uint32_t_u_s+0x3b>
    8f65:	8b 45 f8             	mov    -0x8(%rbp),%eax
    8f68:	ba ff ff ff ff       	mov    $0xffffffff,%edx
    8f6d:	89 c1                	mov    %eax,%ecx
    8f6f:	d3 ea                	shr    %cl,%edx
    8f71:	89 d0                	mov    %edx,%eax
    8f73:	39 45 fc             	cmp    %eax,-0x4(%rbp)
    8f76:	77 0e                	ja     8f86 <safe_lshift_func_uint32_t_u_s+0x3b>
    8f78:	8b 45 f8             	mov    -0x8(%rbp),%eax
    8f7b:	8b 55 fc             	mov    -0x4(%rbp),%edx
    8f7e:	89 c1                	mov    %eax,%ecx
    8f80:	d3 e2                	shl    %cl,%edx
    8f82:	89 d0                	mov    %edx,%eax
    8f84:	eb 03                	jmp    8f89 <safe_lshift_func_uint32_t_u_s+0x3e>
    8f86:	8b 45 fc             	mov    -0x4(%rbp),%eax
    8f89:	5d                   	pop    %rbp
    8f8a:	c3                   	retq   

0000000000008f8b <safe_lshift_func_uint32_t_u_u>:
    8f8b:	f3 0f 1e fa          	endbr64 
    8f8f:	55                   	push   %rbp
    8f90:	48 89 e5             	mov    %rsp,%rbp
    8f93:	89 7d fc             	mov    %edi,-0x4(%rbp)
    8f96:	89 75 f8             	mov    %esi,-0x8(%rbp)
    8f99:	83 7d f8 1f          	cmpl   $0x1f,-0x8(%rbp)
    8f9d:	77 21                	ja     8fc0 <safe_lshift_func_uint32_t_u_u+0x35>
    8f9f:	8b 45 f8             	mov    -0x8(%rbp),%eax
    8fa2:	ba ff ff ff ff       	mov    $0xffffffff,%edx
    8fa7:	89 c1                	mov    %eax,%ecx
    8fa9:	d3 ea                	shr    %cl,%edx
    8fab:	89 d0                	mov    %edx,%eax
    8fad:	39 45 fc             	cmp    %eax,-0x4(%rbp)
    8fb0:	77 0e                	ja     8fc0 <safe_lshift_func_uint32_t_u_u+0x35>
    8fb2:	8b 45 f8             	mov    -0x8(%rbp),%eax
    8fb5:	8b 55 fc             	mov    -0x4(%rbp),%edx
    8fb8:	89 c1                	mov    %eax,%ecx
    8fba:	d3 e2                	shl    %cl,%edx
    8fbc:	89 d0                	mov    %edx,%eax
    8fbe:	eb 03                	jmp    8fc3 <safe_lshift_func_uint32_t_u_u+0x38>
    8fc0:	8b 45 fc             	mov    -0x4(%rbp),%eax
    8fc3:	5d                   	pop    %rbp
    8fc4:	c3                   	retq   

0000000000008fc5 <safe_rshift_func_uint32_t_u_s>:
    8fc5:	f3 0f 1e fa          	endbr64 
    8fc9:	55                   	push   %rbp
    8fca:	48 89 e5             	mov    %rsp,%rbp
    8fcd:	89 7d fc             	mov    %edi,-0x4(%rbp)
    8fd0:	89 75 f8             	mov    %esi,-0x8(%rbp)
    8fd3:	83 7d f8 00          	cmpl   $0x0,-0x8(%rbp)
    8fd7:	78 14                	js     8fed <safe_rshift_func_uint32_t_u_s+0x28>
    8fd9:	83 7d f8 1f          	cmpl   $0x1f,-0x8(%rbp)
    8fdd:	7f 0e                	jg     8fed <safe_rshift_func_uint32_t_u_s+0x28>
    8fdf:	8b 45 f8             	mov    -0x8(%rbp),%eax
    8fe2:	8b 55 fc             	mov    -0x4(%rbp),%edx
    8fe5:	89 c1                	mov    %eax,%ecx
    8fe7:	d3 ea                	shr    %cl,%edx
    8fe9:	89 d0                	mov    %edx,%eax
    8feb:	eb 03                	jmp    8ff0 <safe_rshift_func_uint32_t_u_s+0x2b>
    8fed:	8b 45 fc             	mov    -0x4(%rbp),%eax
    8ff0:	5d                   	pop    %rbp
    8ff1:	c3                   	retq   

0000000000008ff2 <safe_rshift_func_uint32_t_u_u>:
    8ff2:	f3 0f 1e fa          	endbr64 
    8ff6:	55                   	push   %rbp
    8ff7:	48 89 e5             	mov    %rsp,%rbp
    8ffa:	89 7d fc             	mov    %edi,-0x4(%rbp)
    8ffd:	89 75 f8             	mov    %esi,-0x8(%rbp)
    9000:	83 7d f8 1f          	cmpl   $0x1f,-0x8(%rbp)
    9004:	77 0e                	ja     9014 <safe_rshift_func_uint32_t_u_u+0x22>
    9006:	8b 45 f8             	mov    -0x8(%rbp),%eax
    9009:	8b 55 fc             	mov    -0x4(%rbp),%edx
    900c:	89 c1                	mov    %eax,%ecx
    900e:	d3 ea                	shr    %cl,%edx
    9010:	89 d0                	mov    %edx,%eax
    9012:	eb 03                	jmp    9017 <safe_rshift_func_uint32_t_u_u+0x25>
    9014:	8b 45 fc             	mov    -0x4(%rbp),%eax
    9017:	5d                   	pop    %rbp
    9018:	c3                   	retq   

0000000000009019 <safe_unary_minus_func_uint64_t_u>:
    9019:	f3 0f 1e fa          	endbr64 
    901d:	55                   	push   %rbp
    901e:	48 89 e5             	mov    %rsp,%rbp
    9021:	48 89 7d f8          	mov    %rdi,-0x8(%rbp)
    9025:	48 8b 45 f8          	mov    -0x8(%rbp),%rax
    9029:	48 f7 d8             	neg    %rax
    902c:	5d                   	pop    %rbp
    902d:	c3                   	retq   

000000000000902e <safe_add_func_uint64_t_u_u>:
    902e:	f3 0f 1e fa          	endbr64 
    9032:	55                   	push   %rbp
    9033:	48 89 e5             	mov    %rsp,%rbp
    9036:	48 89 7d f8          	mov    %rdi,-0x8(%rbp)
    903a:	48 89 75 f0          	mov    %rsi,-0x10(%rbp)
    903e:	48 8b 55 f8          	mov    -0x8(%rbp),%rdx
    9042:	48 8b 45 f0          	mov    -0x10(%rbp),%rax
    9046:	48 01 d0             	add    %rdx,%rax
    9049:	5d                   	pop    %rbp
    904a:	c3                   	retq   

000000000000904b <safe_sub_func_uint64_t_u_u>:
    904b:	f3 0f 1e fa          	endbr64 
    904f:	55                   	push   %rbp
    9050:	48 89 e5             	mov    %rsp,%rbp
    9053:	48 89 7d f8          	mov    %rdi,-0x8(%rbp)
    9057:	48 89 75 f0          	mov    %rsi,-0x10(%rbp)
    905b:	48 8b 45 f8          	mov    -0x8(%rbp),%rax
    905f:	48 2b 45 f0          	sub    -0x10(%rbp),%rax
    9063:	5d                   	pop    %rbp
    9064:	c3                   	retq   

0000000000009065 <safe_mul_func_uint64_t_u_u>:
    9065:	f3 0f 1e fa          	endbr64 
    9069:	55                   	push   %rbp
    906a:	48 89 e5             	mov    %rsp,%rbp
    906d:	48 89 7d f8          	mov    %rdi,-0x8(%rbp)
    9071:	48 89 75 f0          	mov    %rsi,-0x10(%rbp)
    9075:	48 8b 45 f8          	mov    -0x8(%rbp),%rax
    9079:	48 0f af 45 f0       	imul   -0x10(%rbp),%rax
    907e:	5d                   	pop    %rbp
    907f:	c3                   	retq   

0000000000009080 <safe_mod_func_uint64_t_u_u>:
    9080:	f3 0f 1e fa          	endbr64 
    9084:	55                   	push   %rbp
    9085:	48 89 e5             	mov    %rsp,%rbp
    9088:	48 89 7d f8          	mov    %rdi,-0x8(%rbp)
    908c:	48 89 75 f0          	mov    %rsi,-0x10(%rbp)
    9090:	48 83 7d f0 00       	cmpq   $0x0,-0x10(%rbp)
    9095:	74 12                	je     90a9 <safe_mod_func_uint64_t_u_u+0x29>
    9097:	48 8b 45 f8          	mov    -0x8(%rbp),%rax
    909b:	ba 00 00 00 00       	mov    $0x0,%edx
    90a0:	48 f7 75 f0          	divq   -0x10(%rbp)
    90a4:	48 89 d0             	mov    %rdx,%rax
    90a7:	eb 04                	jmp    90ad <safe_mod_func_uint64_t_u_u+0x2d>
    90a9:	48 8b 45 f8          	mov    -0x8(%rbp),%rax
    90ad:	5d                   	pop    %rbp
    90ae:	c3                   	retq   

00000000000090af <safe_div_func_uint64_t_u_u>:
    90af:	f3 0f 1e fa          	endbr64 
    90b3:	55                   	push   %rbp
    90b4:	48 89 e5             	mov    %rsp,%rbp
    90b7:	48 89 7d f8          	mov    %rdi,-0x8(%rbp)
    90bb:	48 89 75 f0          	mov    %rsi,-0x10(%rbp)
    90bf:	48 83 7d f0 00       	cmpq   $0x0,-0x10(%rbp)
    90c4:	74 0f                	je     90d5 <safe_div_func_uint64_t_u_u+0x26>
    90c6:	48 8b 45 f8          	mov    -0x8(%rbp),%rax
    90ca:	ba 00 00 00 00       	mov    $0x0,%edx
    90cf:	48 f7 75 f0          	divq   -0x10(%rbp)
    90d3:	eb 04                	jmp    90d9 <safe_div_func_uint64_t_u_u+0x2a>
    90d5:	48 8b 45 f8          	mov    -0x8(%rbp),%rax
    90d9:	5d                   	pop    %rbp
    90da:	c3                   	retq   

00000000000090db <safe_lshift_func_uint64_t_u_s>:
    90db:	f3 0f 1e fa          	endbr64 
    90df:	55                   	push   %rbp
    90e0:	48 89 e5             	mov    %rsp,%rbp
    90e3:	48 89 7d f8          	mov    %rdi,-0x8(%rbp)
    90e7:	89 75 f4             	mov    %esi,-0xc(%rbp)
    90ea:	83 7d f4 00          	cmpl   $0x0,-0xc(%rbp)
    90ee:	78 2f                	js     911f <safe_lshift_func_uint64_t_u_s+0x44>
    90f0:	83 7d f4 1f          	cmpl   $0x1f,-0xc(%rbp)
    90f4:	7f 29                	jg     911f <safe_lshift_func_uint64_t_u_s+0x44>
    90f6:	8b 45 f4             	mov    -0xc(%rbp),%eax
    90f9:	48 c7 c2 ff ff ff ff 	mov    $0xffffffffffffffff,%rdx
    9100:	89 c1                	mov    %eax,%ecx
    9102:	48 d3 ea             	shr    %cl,%rdx
    9105:	48 89 d0             	mov    %rdx,%rax
    9108:	48 39 45 f8          	cmp    %rax,-0x8(%rbp)
    910c:	77 11                	ja     911f <safe_lshift_func_uint64_t_u_s+0x44>
    910e:	8b 45 f4             	mov    -0xc(%rbp),%eax
    9111:	48 8b 55 f8          	mov    -0x8(%rbp),%rdx
    9115:	89 c1                	mov    %eax,%ecx
    9117:	48 d3 e2             	shl    %cl,%rdx
    911a:	48 89 d0             	mov    %rdx,%rax
    911d:	eb 04                	jmp    9123 <safe_lshift_func_uint64_t_u_s+0x48>
    911f:	48 8b 45 f8          	mov    -0x8(%rbp),%rax
    9123:	5d                   	pop    %rbp
    9124:	c3                   	retq   

0000000000009125 <safe_lshift_func_uint64_t_u_u>:
    9125:	f3 0f 1e fa          	endbr64 
    9129:	55                   	push   %rbp
    912a:	48 89 e5             	mov    %rsp,%rbp
    912d:	48 89 7d f8          	mov    %rdi,-0x8(%rbp)
    9131:	89 75 f4             	mov    %esi,-0xc(%rbp)
    9134:	83 7d f4 1f          	cmpl   $0x1f,-0xc(%rbp)
    9138:	77 29                	ja     9163 <safe_lshift_func_uint64_t_u_u+0x3e>
    913a:	8b 45 f4             	mov    -0xc(%rbp),%eax
    913d:	48 c7 c2 ff ff ff ff 	mov    $0xffffffffffffffff,%rdx
    9144:	89 c1                	mov    %eax,%ecx
    9146:	48 d3 ea             	shr    %cl,%rdx
    9149:	48 89 d0             	mov    %rdx,%rax
    914c:	48 39 45 f8          	cmp    %rax,-0x8(%rbp)
    9150:	77 11                	ja     9163 <safe_lshift_func_uint64_t_u_u+0x3e>
    9152:	8b 45 f4             	mov    -0xc(%rbp),%eax
    9155:	48 8b 55 f8          	mov    -0x8(%rbp),%rdx
    9159:	89 c1                	mov    %eax,%ecx
    915b:	48 d3 e2             	shl    %cl,%rdx
    915e:	48 89 d0             	mov    %rdx,%rax
    9161:	eb 04                	jmp    9167 <safe_lshift_func_uint64_t_u_u+0x42>
    9163:	48 8b 45 f8          	mov    -0x8(%rbp),%rax
    9167:	5d                   	pop    %rbp
    9168:	c3                   	retq   

0000000000009169 <safe_rshift_func_uint64_t_u_s>:
    9169:	f3 0f 1e fa          	endbr64 
    916d:	55                   	push   %rbp
    916e:	48 89 e5             	mov    %rsp,%rbp
    9171:	48 89 7d f8          	mov    %rdi,-0x8(%rbp)
    9175:	89 75 f4             	mov    %esi,-0xc(%rbp)
    9178:	83 7d f4 00          	cmpl   $0x0,-0xc(%rbp)
    917c:	78 17                	js     9195 <safe_rshift_func_uint64_t_u_s+0x2c>
    917e:	83 7d f4 1f          	cmpl   $0x1f,-0xc(%rbp)
    9182:	7f 11                	jg     9195 <safe_rshift_func_uint64_t_u_s+0x2c>
    9184:	8b 45 f4             	mov    -0xc(%rbp),%eax
    9187:	48 8b 55 f8          	mov    -0x8(%rbp),%rdx
    918b:	89 c1                	mov    %eax,%ecx
    918d:	48 d3 ea             	shr    %cl,%rdx
    9190:	48 89 d0             	mov    %rdx,%rax
    9193:	eb 04                	jmp    9199 <safe_rshift_func_uint64_t_u_s+0x30>
    9195:	48 8b 45 f8          	mov    -0x8(%rbp),%rax
    9199:	5d                   	pop    %rbp
    919a:	c3                   	retq   

000000000000919b <safe_rshift_func_uint64_t_u_u>:
    919b:	f3 0f 1e fa          	endbr64 
    919f:	55                   	push   %rbp
    91a0:	48 89 e5             	mov    %rsp,%rbp
    91a3:	48 89 7d f8          	mov    %rdi,-0x8(%rbp)
    91a7:	89 75 f4             	mov    %esi,-0xc(%rbp)
    91aa:	83 7d f4 1f          	cmpl   $0x1f,-0xc(%rbp)
    91ae:	77 11                	ja     91c1 <safe_rshift_func_uint64_t_u_u+0x26>
    91b0:	8b 45 f4             	mov    -0xc(%rbp),%eax
    91b3:	48 8b 55 f8          	mov    -0x8(%rbp),%rdx
    91b7:	89 c1                	mov    %eax,%ecx
    91b9:	48 d3 ea             	shr    %cl,%rdx
    91bc:	48 89 d0             	mov    %rdx,%rax
    91bf:	eb 04                	jmp    91c5 <safe_rshift_func_uint64_t_u_u+0x2a>
    91c1:	48 8b 45 f8          	mov    -0x8(%rbp),%rax
    91c5:	5d                   	pop    %rbp
    91c6:	c3                   	retq   

00000000000091c7 <safe_add_func_float_f_f>:
    91c7:	f3 0f 1e fa          	endbr64 
    91cb:	55                   	push   %rbp
    91cc:	48 89 e5             	mov    %rsp,%rbp
    91cf:	f3 0f 11 45 fc       	movss  %xmm0,-0x4(%rbp)
    91d4:	f3 0f 11 4d f8       	movss  %xmm1,-0x8(%rbp)
    91d9:	f3 0f 10 4d fc       	movss  -0x4(%rbp),%xmm1
    91de:	f3 0f 10 05 3e 1b 01 	movss  0x11b3e(%rip),%xmm0        # 1ad24 <g_386+0x1cd0>
    91e5:	00 
    91e6:	f3 0f 59 c8          	mulss  %xmm0,%xmm1
    91ea:	f3 0f 10 55 f8       	movss  -0x8(%rbp),%xmm2
    91ef:	f3 0f 10 05 2d 1b 01 	movss  0x11b2d(%rip),%xmm0        # 1ad24 <g_386+0x1cd0>
    91f6:	00 
    91f7:	f3 0f 59 c2          	mulss  %xmm2,%xmm0
    91fb:	f3 0f 58 c1          	addss  %xmm1,%xmm0
    91ff:	f3 0f 10 0d 29 1b 01 	movss  0x11b29(%rip),%xmm1        # 1ad30 <g_386+0x1cdc>
    9206:	00 
    9207:	0f 54 c1             	andps  %xmm1,%xmm0
    920a:	0f 2f 05 2f 1b 01 00 	comiss 0x11b2f(%rip),%xmm0        # 1ad40 <g_386+0x1cec>
    9211:	76 07                	jbe    921a <safe_add_func_float_f_f+0x53>
    9213:	f3 0f 10 45 fc       	movss  -0x4(%rbp),%xmm0
    9218:	eb 0a                	jmp    9224 <safe_add_func_float_f_f+0x5d>
    921a:	f3 0f 10 45 fc       	movss  -0x4(%rbp),%xmm0
    921f:	f3 0f 58 45 f8       	addss  -0x8(%rbp),%xmm0
    9224:	5d                   	pop    %rbp
    9225:	c3                   	retq   

0000000000009226 <safe_sub_func_float_f_f>:
    9226:	f3 0f 1e fa          	endbr64 
    922a:	55                   	push   %rbp
    922b:	48 89 e5             	mov    %rsp,%rbp
    922e:	f3 0f 11 45 fc       	movss  %xmm0,-0x4(%rbp)
    9233:	f3 0f 11 4d f8       	movss  %xmm1,-0x8(%rbp)
    9238:	f3 0f 10 4d fc       	movss  -0x4(%rbp),%xmm1
    923d:	f3 0f 10 05 df 1a 01 	movss  0x11adf(%rip),%xmm0        # 1ad24 <g_386+0x1cd0>
    9244:	00 
    9245:	f3 0f 59 c1          	mulss  %xmm1,%xmm0
    9249:	f3 0f 10 55 f8       	movss  -0x8(%rbp),%xmm2
    924e:	f3 0f 10 0d ce 1a 01 	movss  0x11ace(%rip),%xmm1        # 1ad24 <g_386+0x1cd0>
    9255:	00 
    9256:	f3 0f 59 ca          	mulss  %xmm2,%xmm1
    925a:	f3 0f 5c c1          	subss  %xmm1,%xmm0
    925e:	f3 0f 10 0d ca 1a 01 	movss  0x11aca(%rip),%xmm1        # 1ad30 <g_386+0x1cdc>
    9265:	00 
    9266:	0f 54 c1             	andps  %xmm1,%xmm0
    9269:	0f 2f 05 d0 1a 01 00 	comiss 0x11ad0(%rip),%xmm0        # 1ad40 <g_386+0x1cec>
    9270:	76 07                	jbe    9279 <safe_sub_func_float_f_f+0x53>
    9272:	f3 0f 10 45 fc       	movss  -0x4(%rbp),%xmm0
    9277:	eb 0a                	jmp    9283 <safe_sub_func_float_f_f+0x5d>
    9279:	f3 0f 10 45 fc       	movss  -0x4(%rbp),%xmm0
    927e:	f3 0f 5c 45 f8       	subss  -0x8(%rbp),%xmm0
    9283:	5d                   	pop    %rbp
    9284:	c3                   	retq   

0000000000009285 <safe_mul_func_float_f_f>:
    9285:	f3 0f 1e fa          	endbr64 
    9289:	55                   	push   %rbp
    928a:	48 89 e5             	mov    %rsp,%rbp
    928d:	f3 0f 11 45 fc       	movss  %xmm0,-0x4(%rbp)
    9292:	f3 0f 11 4d f8       	movss  %xmm1,-0x8(%rbp)
    9297:	f3 0f 10 4d fc       	movss  -0x4(%rbp),%xmm1
    929c:	f3 0f 10 05 a0 1a 01 	movss  0x11aa0(%rip),%xmm0        # 1ad44 <g_386+0x1cf0>
    92a3:	00 
    92a4:	f3 0f 59 c8          	mulss  %xmm0,%xmm1
    92a8:	f3 0f 10 55 f8       	movss  -0x8(%rbp),%xmm2
    92ad:	f3 0f 10 05 93 1a 01 	movss  0x11a93(%rip),%xmm0        # 1ad48 <g_386+0x1cf4>
    92b4:	00 
    92b5:	f3 0f 59 c2          	mulss  %xmm2,%xmm0
    92b9:	f3 0f 59 c1          	mulss  %xmm1,%xmm0
    92bd:	f3 0f 10 0d 6b 1a 01 	movss  0x11a6b(%rip),%xmm1        # 1ad30 <g_386+0x1cdc>
    92c4:	00 
    92c5:	0f 54 c1             	andps  %xmm1,%xmm0
    92c8:	0f 2f 05 7d 1a 01 00 	comiss 0x11a7d(%rip),%xmm0        # 1ad4c <g_386+0x1cf8>
    92cf:	76 07                	jbe    92d8 <safe_mul_func_float_f_f+0x53>
    92d1:	f3 0f 10 45 fc       	movss  -0x4(%rbp),%xmm0
    92d6:	eb 0a                	jmp    92e2 <safe_mul_func_float_f_f+0x5d>
    92d8:	f3 0f 10 45 fc       	movss  -0x4(%rbp),%xmm0
    92dd:	f3 0f 59 45 f8       	mulss  -0x8(%rbp),%xmm0
    92e2:	5d                   	pop    %rbp
    92e3:	c3                   	retq   

00000000000092e4 <safe_div_func_float_f_f>:
    92e4:	f3 0f 1e fa          	endbr64 
    92e8:	55                   	push   %rbp
    92e9:	48 89 e5             	mov    %rsp,%rbp
    92ec:	f3 0f 11 45 fc       	movss  %xmm0,-0x4(%rbp)
    92f1:	f3 0f 11 4d f8       	movss  %xmm1,-0x8(%rbp)
    92f6:	f3 0f 10 45 f8       	movss  -0x8(%rbp),%xmm0
    92fb:	f3 0f 10 0d 2d 1a 01 	movss  0x11a2d(%rip),%xmm1        # 1ad30 <g_386+0x1cdc>
    9302:	00 
    9303:	0f 54 c8             	andps  %xmm0,%xmm1
    9306:	f3 0f 10 05 42 1a 01 	movss  0x11a42(%rip),%xmm0        # 1ad50 <g_386+0x1cfc>
    930d:	00 
    930e:	0f 2f c1             	comiss %xmm1,%xmm0
    9311:	0f 97 c0             	seta   %al
    9314:	83 f0 01             	xor    $0x1,%eax
    9317:	84 c0                	test   %al,%al
    9319:	75 56                	jne    9371 <safe_div_func_float_f_f+0x8d>
    931b:	66 0f ef c0          	pxor   %xmm0,%xmm0
    931f:	0f 2e 45 f8          	ucomiss -0x8(%rbp),%xmm0
    9323:	7a 0a                	jp     932f <safe_div_func_float_f_f+0x4b>
    9325:	66 0f ef c0          	pxor   %xmm0,%xmm0
    9329:	0f 2e 45 f8          	ucomiss -0x8(%rbp),%xmm0
    932d:	74 4e                	je     937d <safe_div_func_float_f_f+0x99>
    932f:	f3 0f 10 4d fc       	movss  -0x4(%rbp),%xmm1
    9334:	f3 0f 10 05 18 1a 01 	movss  0x11a18(%rip),%xmm0        # 1ad54 <g_386+0x1d00>
    933b:	00 
    933c:	f3 0f 59 c1          	mulss  %xmm1,%xmm0
    9340:	f3 0f 10 55 f8       	movss  -0x8(%rbp),%xmm2
    9345:	f3 0f 10 0d 0b 1a 01 	movss  0x11a0b(%rip),%xmm1        # 1ad58 <g_386+0x1d04>
    934c:	00 
    934d:	f3 0f 59 ca          	mulss  %xmm2,%xmm1
    9351:	f3 0f 5e c1          	divss  %xmm1,%xmm0
    9355:	f3 0f 10 0d d3 19 01 	movss  0x119d3(%rip),%xmm1        # 1ad30 <g_386+0x1cdc>
    935c:	00 
    935d:	0f 54 c1             	andps  %xmm1,%xmm0
    9360:	0f 2f 05 f5 19 01 00 	comiss 0x119f5(%rip),%xmm0        # 1ad5c <g_386+0x1d08>
    9367:	0f 97 c0             	seta   %al
    936a:	83 f0 01             	xor    $0x1,%eax
    936d:	84 c0                	test   %al,%al
    936f:	74 0c                	je     937d <safe_div_func_float_f_f+0x99>
    9371:	f3 0f 10 45 fc       	movss  -0x4(%rbp),%xmm0
    9376:	f3 0f 5e 45 f8       	divss  -0x8(%rbp),%xmm0
    937b:	eb 05                	jmp    9382 <safe_div_func_float_f_f+0x9e>
    937d:	f3 0f 10 45 fc       	movss  -0x4(%rbp),%xmm0
    9382:	5d                   	pop    %rbp
    9383:	c3                   	retq   

0000000000009384 <safe_add_func_double_f_f>:
    9384:	f3 0f 1e fa          	endbr64 
    9388:	55                   	push   %rbp
    9389:	48 89 e5             	mov    %rsp,%rbp
    938c:	f2 0f 11 45 f8       	movsd  %xmm0,-0x8(%rbp)
    9391:	f2 0f 11 4d f0       	movsd  %xmm1,-0x10(%rbp)
    9396:	f2 0f 10 4d f8       	movsd  -0x8(%rbp),%xmm1
    939b:	f2 0f 10 05 bd 19 01 	movsd  0x119bd(%rip),%xmm0        # 1ad60 <g_386+0x1d0c>
    93a2:	00 
    93a3:	f2 0f 59 c8          	mulsd  %xmm0,%xmm1
    93a7:	f2 0f 10 55 f0       	movsd  -0x10(%rbp),%xmm2
    93ac:	f2 0f 10 05 ac 19 01 	movsd  0x119ac(%rip),%xmm0        # 1ad60 <g_386+0x1d0c>
    93b3:	00 
    93b4:	f2 0f 59 c2          	mulsd  %xmm2,%xmm0
    93b8:	f2 0f 58 c1          	addsd  %xmm1,%xmm0
    93bc:	f3 0f 7e 0d ac 19 01 	movq   0x119ac(%rip),%xmm1        # 1ad70 <g_386+0x1d1c>
    93c3:	00 
    93c4:	66 0f 54 c1          	andpd  %xmm1,%xmm0
    93c8:	66 0f 2f 05 b0 19 01 	comisd 0x119b0(%rip),%xmm0        # 1ad80 <g_386+0x1d2c>
    93cf:	00 
    93d0:	76 07                	jbe    93d9 <safe_add_func_double_f_f+0x55>
    93d2:	f2 0f 10 45 f8       	movsd  -0x8(%rbp),%xmm0
    93d7:	eb 0a                	jmp    93e3 <safe_add_func_double_f_f+0x5f>
    93d9:	f2 0f 10 45 f8       	movsd  -0x8(%rbp),%xmm0
    93de:	f2 0f 58 45 f0       	addsd  -0x10(%rbp),%xmm0
    93e3:	5d                   	pop    %rbp
    93e4:	c3                   	retq   

00000000000093e5 <safe_sub_func_double_f_f>:
    93e5:	f3 0f 1e fa          	endbr64 
    93e9:	55                   	push   %rbp
    93ea:	48 89 e5             	mov    %rsp,%rbp
    93ed:	f2 0f 11 45 f8       	movsd  %xmm0,-0x8(%rbp)
    93f2:	f2 0f 11 4d f0       	movsd  %xmm1,-0x10(%rbp)
    93f7:	f2 0f 10 4d f8       	movsd  -0x8(%rbp),%xmm1
    93fc:	f2 0f 10 05 5c 19 01 	movsd  0x1195c(%rip),%xmm0        # 1ad60 <g_386+0x1d0c>
    9403:	00 
    9404:	f2 0f 59 c1          	mulsd  %xmm1,%xmm0
    9408:	f2 0f 10 55 f0       	movsd  -0x10(%rbp),%xmm2
    940d:	f2 0f 10 0d 4b 19 01 	movsd  0x1194b(%rip),%xmm1        # 1ad60 <g_386+0x1d0c>
    9414:	00 
    9415:	f2 0f 59 ca          	mulsd  %xmm2,%xmm1
    9419:	f2 0f 5c c1          	subsd  %xmm1,%xmm0
    941d:	f3 0f 7e 0d 4b 19 01 	movq   0x1194b(%rip),%xmm1        # 1ad70 <g_386+0x1d1c>
    9424:	00 
    9425:	66 0f 54 c1          	andpd  %xmm1,%xmm0
    9429:	66 0f 2f 05 4f 19 01 	comisd 0x1194f(%rip),%xmm0        # 1ad80 <g_386+0x1d2c>
    9430:	00 
    9431:	76 07                	jbe    943a <safe_sub_func_double_f_f+0x55>
    9433:	f2 0f 10 45 f8       	movsd  -0x8(%rbp),%xmm0
    9438:	eb 0a                	jmp    9444 <safe_sub_func_double_f_f+0x5f>
    943a:	f2 0f 10 45 f8       	movsd  -0x8(%rbp),%xmm0
    943f:	f2 0f 5c 45 f0       	subsd  -0x10(%rbp),%xmm0
    9444:	5d                   	pop    %rbp
    9445:	c3                   	retq   

0000000000009446 <safe_mul_func_double_f_f>:
    9446:	f3 0f 1e fa          	endbr64 
    944a:	55                   	push   %rbp
    944b:	48 89 e5             	mov    %rsp,%rbp
    944e:	f2 0f 11 45 f8       	movsd  %xmm0,-0x8(%rbp)
    9453:	f2 0f 11 4d f0       	movsd  %xmm1,-0x10(%rbp)
    9458:	f2 0f 10 4d f8       	movsd  -0x8(%rbp),%xmm1
    945d:	f2 0f 10 05 23 19 01 	movsd  0x11923(%rip),%xmm0        # 1ad88 <g_386+0x1d34>
    9464:	00 
    9465:	f2 0f 59 c8          	mulsd  %xmm0,%xmm1
    9469:	f2 0f 10 55 f0       	movsd  -0x10(%rbp),%xmm2
    946e:	f2 0f 10 05 1a 19 01 	movsd  0x1191a(%rip),%xmm0        # 1ad90 <g_386+0x1d3c>
    9475:	00 
    9476:	f2 0f 59 c2          	mulsd  %xmm2,%xmm0
    947a:	f2 0f 59 c1          	mulsd  %xmm1,%xmm0
    947e:	f3 0f 7e 0d ea 18 01 	movq   0x118ea(%rip),%xmm1        # 1ad70 <g_386+0x1d1c>
    9485:	00 
    9486:	66 0f 54 c1          	andpd  %xmm1,%xmm0
    948a:	66 0f 2f 05 06 19 01 	comisd 0x11906(%rip),%xmm0        # 1ad98 <g_386+0x1d44>
    9491:	00 
    9492:	76 07                	jbe    949b <safe_mul_func_double_f_f+0x55>
    9494:	f2 0f 10 45 f8       	movsd  -0x8(%rbp),%xmm0
    9499:	eb 0a                	jmp    94a5 <safe_mul_func_double_f_f+0x5f>
    949b:	f2 0f 10 45 f8       	movsd  -0x8(%rbp),%xmm0
    94a0:	f2 0f 59 45 f0       	mulsd  -0x10(%rbp),%xmm0
    94a5:	5d                   	pop    %rbp
    94a6:	c3                   	retq   

00000000000094a7 <safe_div_func_double_f_f>:
    94a7:	f3 0f 1e fa          	endbr64 
    94ab:	55                   	push   %rbp
    94ac:	48 89 e5             	mov    %rsp,%rbp
    94af:	f2 0f 11 45 f8       	movsd  %xmm0,-0x8(%rbp)
    94b4:	f2 0f 11 4d f0       	movsd  %xmm1,-0x10(%rbp)
    94b9:	f2 0f 10 45 f0       	movsd  -0x10(%rbp),%xmm0
    94be:	f3 0f 7e 0d aa 18 01 	movq   0x118aa(%rip),%xmm1        # 1ad70 <g_386+0x1d1c>
    94c5:	00 
    94c6:	66 0f 54 c8          	andpd  %xmm0,%xmm1
    94ca:	f2 0f 10 05 ce 18 01 	movsd  0x118ce(%rip),%xmm0        # 1ada0 <g_386+0x1d4c>
    94d1:	00 
    94d2:	66 0f 2f c1          	comisd %xmm1,%xmm0
    94d6:	0f 97 c0             	seta   %al
    94d9:	83 f0 01             	xor    $0x1,%eax
    94dc:	84 c0                	test   %al,%al
    94de:	75 5a                	jne    953a <safe_div_func_double_f_f+0x93>
    94e0:	66 0f ef c0          	pxor   %xmm0,%xmm0
    94e4:	66 0f 2e 45 f0       	ucomisd -0x10(%rbp),%xmm0
    94e9:	7a 0b                	jp     94f6 <safe_div_func_double_f_f+0x4f>
    94eb:	66 0f ef c0          	pxor   %xmm0,%xmm0
    94ef:	66 0f 2e 45 f0       	ucomisd -0x10(%rbp),%xmm0
    94f4:	74 50                	je     9546 <safe_div_func_double_f_f+0x9f>
    94f6:	f2 0f 10 4d f8       	movsd  -0x8(%rbp),%xmm1
    94fb:	f2 0f 10 05 a5 18 01 	movsd  0x118a5(%rip),%xmm0        # 1ada8 <g_386+0x1d54>
    9502:	00 
    9503:	f2 0f 59 c1          	mulsd  %xmm1,%xmm0
    9507:	f2 0f 10 55 f0       	movsd  -0x10(%rbp),%xmm2
    950c:	f2 0f 10 0d 9c 18 01 	movsd  0x1189c(%rip),%xmm1        # 1adb0 <g_386+0x1d5c>
    9513:	00 
    9514:	f2 0f 59 ca          	mulsd  %xmm2,%xmm1
    9518:	f2 0f 5e c1          	divsd  %xmm1,%xmm0
    951c:	f3 0f 7e 0d 4c 18 01 	movq   0x1184c(%rip),%xmm1        # 1ad70 <g_386+0x1d1c>
    9523:	00 
    9524:	66 0f 54 c1          	andpd  %xmm1,%xmm0
    9528:	66 0f 2f 05 88 18 01 	comisd 0x11888(%rip),%xmm0        # 1adb8 <g_386+0x1d64>
    952f:	00 
    9530:	0f 97 c0             	seta   %al
    9533:	83 f0 01             	xor    $0x1,%eax
    9536:	84 c0                	test   %al,%al
    9538:	74 0c                	je     9546 <safe_div_func_double_f_f+0x9f>
    953a:	f2 0f 10 45 f8       	movsd  -0x8(%rbp),%xmm0
    953f:	f2 0f 5e 45 f0       	divsd  -0x10(%rbp),%xmm0
    9544:	eb 05                	jmp    954b <safe_div_func_double_f_f+0xa4>
    9546:	f2 0f 10 45 f8       	movsd  -0x8(%rbp),%xmm0
    954b:	5d                   	pop    %rbp
    954c:	c3                   	retq   

000000000000954d <safe_convert_func_float_to_int32_t>:
    954d:	f3 0f 1e fa          	endbr64 
    9551:	55                   	push   %rbp
    9552:	48 89 e5             	mov    %rsp,%rbp
    9555:	f3 0f 11 45 fc       	movss  %xmm0,-0x4(%rbp)
    955a:	f3 0f 10 05 5e 18 01 	movss  0x1185e(%rip),%xmm0        # 1adc0 <g_386+0x1d6c>
    9561:	00 
    9562:	0f 2f 45 fc          	comiss -0x4(%rbp),%xmm0
    9566:	0f 93 c0             	setae  %al
    9569:	83 f0 01             	xor    $0x1,%eax
    956c:	84 c0                	test   %al,%al
    956e:	74 21                	je     9591 <safe_convert_func_float_to_int32_t+0x44>
    9570:	f3 0f 10 45 fc       	movss  -0x4(%rbp),%xmm0
    9575:	0f 2f 05 48 18 01 00 	comiss 0x11848(%rip),%xmm0        # 1adc4 <g_386+0x1d70>
    957c:	0f 93 c0             	setae  %al
    957f:	83 f0 01             	xor    $0x1,%eax
    9582:	84 c0                	test   %al,%al
    9584:	74 0b                	je     9591 <safe_convert_func_float_to_int32_t+0x44>
    9586:	f3 0f 10 45 fc       	movss  -0x4(%rbp),%xmm0
    958b:	f3 0f 2c c0          	cvttss2si %xmm0,%eax
    958f:	eb 05                	jmp    9596 <safe_convert_func_float_to_int32_t+0x49>
    9591:	b8 ff ff ff 7f       	mov    $0x7fffffff,%eax
    9596:	5d                   	pop    %rbp
    9597:	c3                   	retq   

0000000000009598 <crc32_gentab>:
    9598:	f3 0f 1e fa          	endbr64 
    959c:	55                   	push   %rbp
    959d:	48 89 e5             	mov    %rsp,%rbp
    95a0:	c7 45 fc 20 83 b8 ed 	movl   $0xedb88320,-0x4(%rbp)
    95a7:	c7 45 f4 00 00 00 00 	movl   $0x0,-0xc(%rbp)
    95ae:	eb 51                	jmp    9601 <crc32_gentab+0x69>
    95b0:	8b 45 f4             	mov    -0xc(%rbp),%eax
    95b3:	89 45 f0             	mov    %eax,-0x10(%rbp)
    95b6:	c7 45 f8 08 00 00 00 	movl   $0x8,-0x8(%rbp)
    95bd:	eb 1e                	jmp    95dd <crc32_gentab+0x45>
    95bf:	8b 45 f0             	mov    -0x10(%rbp),%eax
    95c2:	83 e0 01             	and    $0x1,%eax
    95c5:	85 c0                	test   %eax,%eax
    95c7:	74 0d                	je     95d6 <crc32_gentab+0x3e>
    95c9:	8b 45 f0             	mov    -0x10(%rbp),%eax
    95cc:	d1 e8                	shr    %eax
    95ce:	33 45 fc             	xor    -0x4(%rbp),%eax
    95d1:	89 45 f0             	mov    %eax,-0x10(%rbp)
    95d4:	eb 03                	jmp    95d9 <crc32_gentab+0x41>
    95d6:	d1 6d f0             	shrl   -0x10(%rbp)
    95d9:	83 6d f8 01          	subl   $0x1,-0x8(%rbp)
    95dd:	83 7d f8 00          	cmpl   $0x0,-0x8(%rbp)
    95e1:	7f dc                	jg     95bf <crc32_gentab+0x27>
    95e3:	8b 45 f4             	mov    -0xc(%rbp),%eax
    95e6:	48 98                	cltq   
    95e8:	48 8d 0c 85 00 00 00 	lea    0x0(,%rax,4),%rcx
    95ef:	00 
    95f0:	48 8d 15 69 92 01 00 	lea    0x19269(%rip),%rdx        # 22860 <crc32_tab>
    95f7:	8b 45 f0             	mov    -0x10(%rbp),%eax
    95fa:	89 04 11             	mov    %eax,(%rcx,%rdx,1)
    95fd:	83 45 f4 01          	addl   $0x1,-0xc(%rbp)
    9601:	81 7d f4 ff 00 00 00 	cmpl   $0xff,-0xc(%rbp)
    9608:	7e a6                	jle    95b0 <crc32_gentab+0x18>
    960a:	90                   	nop
    960b:	90                   	nop
    960c:	5d                   	pop    %rbp
    960d:	c3                   	retq   

000000000000960e <crc32_byte>:
    960e:	f3 0f 1e fa          	endbr64 
    9612:	55                   	push   %rbp
    9613:	48 89 e5             	mov    %rsp,%rbp
    9616:	89 f8                	mov    %edi,%eax
    9618:	88 45 fc             	mov    %al,-0x4(%rbp)
    961b:	8b 05 ff 49 01 00    	mov    0x149ff(%rip),%eax        # 1e020 <crc32_context>
    9621:	c1 e8 08             	shr    $0x8,%eax
    9624:	89 c1                	mov    %eax,%ecx
    9626:	0f b6 55 fc          	movzbl -0x4(%rbp),%edx
    962a:	8b 05 f0 49 01 00    	mov    0x149f0(%rip),%eax        # 1e020 <crc32_context>
    9630:	31 d0                	xor    %edx,%eax
    9632:	0f b6 c0             	movzbl %al,%eax
    9635:	89 c0                	mov    %eax,%eax
    9637:	48 8d 14 85 00 00 00 	lea    0x0(,%rax,4),%rdx
    963e:	00 
    963f:	48 8d 05 1a 92 01 00 	lea    0x1921a(%rip),%rax        # 22860 <crc32_tab>
    9646:	8b 04 02             	mov    (%rdx,%rax,1),%eax
    9649:	31 c8                	xor    %ecx,%eax
    964b:	89 05 cf 49 01 00    	mov    %eax,0x149cf(%rip)        # 1e020 <crc32_context>
    9651:	90                   	nop
    9652:	5d                   	pop    %rbp
    9653:	c3                   	retq   

0000000000009654 <crc32_8bytes>:
    9654:	f3 0f 1e fa          	endbr64 
    9658:	55                   	push   %rbp
    9659:	48 89 e5             	mov    %rsp,%rbp
    965c:	48 83 ec 08          	sub    $0x8,%rsp
    9660:	48 89 7d f8          	mov    %rdi,-0x8(%rbp)
    9664:	48 8b 45 f8          	mov    -0x8(%rbp),%rax
    9668:	0f b6 c0             	movzbl %al,%eax
    966b:	89 c7                	mov    %eax,%edi
    966d:	e8 9c ff ff ff       	callq  960e <crc32_byte>
    9672:	48 8b 45 f8          	mov    -0x8(%rbp),%rax
    9676:	48 c1 e8 08          	shr    $0x8,%rax
    967a:	0f b6 c0             	movzbl %al,%eax
    967d:	89 c7                	mov    %eax,%edi
    967f:	e8 8a ff ff ff       	callq  960e <crc32_byte>
    9684:	48 8b 45 f8          	mov    -0x8(%rbp),%rax
    9688:	48 c1 e8 10          	shr    $0x10,%rax
    968c:	0f b6 c0             	movzbl %al,%eax
    968f:	89 c7                	mov    %eax,%edi
    9691:	e8 78 ff ff ff       	callq  960e <crc32_byte>
    9696:	48 8b 45 f8          	mov    -0x8(%rbp),%rax
    969a:	48 c1 e8 18          	shr    $0x18,%rax
    969e:	0f b6 c0             	movzbl %al,%eax
    96a1:	89 c7                	mov    %eax,%edi
    96a3:	e8 66 ff ff ff       	callq  960e <crc32_byte>
    96a8:	48 8b 45 f8          	mov    -0x8(%rbp),%rax
    96ac:	48 c1 e8 20          	shr    $0x20,%rax
    96b0:	0f b6 c0             	movzbl %al,%eax
    96b3:	89 c7                	mov    %eax,%edi
    96b5:	e8 54 ff ff ff       	callq  960e <crc32_byte>
    96ba:	48 8b 45 f8          	mov    -0x8(%rbp),%rax
    96be:	48 c1 e8 28          	shr    $0x28,%rax
    96c2:	0f b6 c0             	movzbl %al,%eax
    96c5:	89 c7                	mov    %eax,%edi
    96c7:	e8 42 ff ff ff       	callq  960e <crc32_byte>
    96cc:	48 8b 45 f8          	mov    -0x8(%rbp),%rax
    96d0:	48 c1 e8 30          	shr    $0x30,%rax
    96d4:	0f b6 c0             	movzbl %al,%eax
    96d7:	89 c7                	mov    %eax,%edi
    96d9:	e8 30 ff ff ff       	callq  960e <crc32_byte>
    96de:	48 8b 45 f8          	mov    -0x8(%rbp),%rax
    96e2:	48 c1 e8 38          	shr    $0x38,%rax
    96e6:	0f b6 c0             	movzbl %al,%eax
    96e9:	89 c7                	mov    %eax,%edi
    96eb:	e8 1e ff ff ff       	callq  960e <crc32_byte>
    96f0:	90                   	nop
    96f1:	c9                   	leaveq 
    96f2:	c3                   	retq   

00000000000096f3 <transparent_crc>:
    96f3:	f3 0f 1e fa          	endbr64 
    96f7:	55                   	push   %rbp
    96f8:	48 89 e5             	mov    %rsp,%rbp
    96fb:	48 83 ec 20          	sub    $0x20,%rsp
    96ff:	48 89 7d f8          	mov    %rdi,-0x8(%rbp)
    9703:	48 89 75 f0          	mov    %rsi,-0x10(%rbp)
    9707:	89 55 ec             	mov    %edx,-0x14(%rbp)
    970a:	48 8b 45 f8          	mov    -0x8(%rbp),%rax
    970e:	48 89 c7             	mov    %rax,%rdi
    9711:	e8 3e ff ff ff       	callq  9654 <crc32_8bytes>
    9716:	83 7d ec 00          	cmpl   $0x0,-0x14(%rbp)
    971a:	74 22                	je     973e <transparent_crc+0x4b>
    971c:	8b 05 fe 48 01 00    	mov    0x148fe(%rip),%eax        # 1e020 <crc32_context>
    9722:	f7 d0                	not    %eax
    9724:	89 c2                	mov    %eax,%edx
    9726:	48 8b 45 f0          	mov    -0x10(%rbp),%rax
    972a:	48 89 c6             	mov    %rax,%rsi
    972d:	48 8d 3d fc f8 00 00 	lea    0xf8fc(%rip),%rdi        # 19030 <_IO_stdin_used+0x30>
    9734:	b8 00 00 00 00       	mov    $0x0,%eax
    9739:	e8 42 e9 ff ff       	callq  8080 <printf@plt>
    973e:	90                   	nop
    973f:	c9                   	leaveq 
    9740:	c3                   	retq   

0000000000009741 <transparent_crc_bytes>:
    9741:	f3 0f 1e fa          	endbr64 
    9745:	55                   	push   %rbp
    9746:	48 89 e5             	mov    %rsp,%rbp
    9749:	48 83 ec 30          	sub    $0x30,%rsp
    974d:	48 89 7d e8          	mov    %rdi,-0x18(%rbp)
    9751:	89 75 e4             	mov    %esi,-0x1c(%rbp)
    9754:	48 89 55 d8          	mov    %rdx,-0x28(%rbp)
    9758:	89 4d e0             	mov    %ecx,-0x20(%rbp)
    975b:	c7 45 fc 00 00 00 00 	movl   $0x0,-0x4(%rbp)
    9762:	eb 1e                	jmp    9782 <transparent_crc_bytes+0x41>
    9764:	8b 45 fc             	mov    -0x4(%rbp),%eax
    9767:	48 63 d0             	movslq %eax,%rdx
    976a:	48 8b 45 e8          	mov    -0x18(%rbp),%rax
    976e:	48 01 d0             	add    %rdx,%rax
    9771:	0f b6 00             	movzbl (%rax),%eax
    9774:	0f b6 c0             	movzbl %al,%eax
    9777:	89 c7                	mov    %eax,%edi
    9779:	e8 90 fe ff ff       	callq  960e <crc32_byte>
    977e:	83 45 fc 01          	addl   $0x1,-0x4(%rbp)
    9782:	8b 45 fc             	mov    -0x4(%rbp),%eax
    9785:	3b 45 e4             	cmp    -0x1c(%rbp),%eax
    9788:	7c da                	jl     9764 <transparent_crc_bytes+0x23>
    978a:	83 7d e0 00          	cmpl   $0x0,-0x20(%rbp)
    978e:	74 22                	je     97b2 <transparent_crc_bytes+0x71>
    9790:	8b 05 8a 48 01 00    	mov    0x1488a(%rip),%eax        # 1e020 <crc32_context>
    9796:	f7 d0                	not    %eax
    9798:	89 c2                	mov    %eax,%edx
    979a:	48 8b 45 d8          	mov    -0x28(%rbp),%rax
    979e:	48 89 c6             	mov    %rax,%rsi
    97a1:	48 8d 3d 88 f8 00 00 	lea    0xf888(%rip),%rdi        # 19030 <_IO_stdin_used+0x30>
    97a8:	b8 00 00 00 00       	mov    $0x0,%eax
    97ad:	e8 ce e8 ff ff       	callq  8080 <printf@plt>
    97b2:	90                   	nop
    97b3:	c9                   	leaveq 
    97b4:	c3                   	retq   

00000000000097b5 <func_1>:
    97b5:	f3 0f 1e fa          	endbr64 
    97b9:	55                   	push   %rbp
    97ba:	48 89 e5             	mov    %rsp,%rbp
    97bd:	41 57                	push   %r15
    97bf:	41 56                	push   %r14
    97c1:	41 55                	push   %r13
    97c3:	41 54                	push   %r12
    97c5:	53                   	push   %rbx
    97c6:	48 81 ec 08 01 00 00 	sub    $0x108,%rsp
    97cd:	64 48 8b 04 25 28 00 	mov    %fs:0x28,%rax
    97d4:	00 00 
    97d6:	48 89 45 c8          	mov    %rax,-0x38(%rbp)
    97da:	31 c0                	xor    %eax,%eax
    97dc:	48 b8 51 8b af f5 7a 	movabs $0xd0374c7af5af8b51,%rax
    97e3:	4c 37 d0 
    97e6:	48 89 85 28 ff ff ff 	mov    %rax,-0xd8(%rbp)
    97ed:	48 8d 05 74 94 01 00 	lea    0x19474(%rip),%rax        # 22c68 <g_27>
    97f4:	48 89 85 30 ff ff ff 	mov    %rax,-0xd0(%rbp)
    97fb:	48 c7 85 38 ff ff ff 	movq   $0x0,-0xc8(%rbp)
    9802:	00 00 00 00 
    9806:	48 c7 85 40 ff ff ff 	movq   $0x0,-0xc0(%rbp)
    980d:	00 00 00 00 
    9811:	48 8d 05 d0 5f 01 00 	lea    0x15fd0(%rip),%rax        # 1f7e8 <g_619>
    9818:	48 89 85 48 ff ff ff 	mov    %rax,-0xb8(%rbp)
    981f:	c7 85 18 ff ff ff ff 	movl   $0xffffffff,-0xe8(%rbp)
    9826:	ff ff ff 
    9829:	48 8d 05 98 48 01 00 	lea    0x14898(%rip),%rax        # 1e0c8 <g_45>
    9830:	48 89 85 20 ff ff ff 	mov    %rax,-0xe0(%rbp)
    9837:	c6 85 0f ff ff ff ff 	movb   $0xff,-0xf1(%rbp)
    983e:	c7 85 1c ff ff ff 01 	movl   $0x1,-0xe4(%rbp)
    9845:	00 00 00 
    9848:	c7 85 10 ff ff ff 00 	movl   $0x0,-0xf0(%rbp)
    984f:	00 00 00 
    9852:	eb 52                	jmp    98a6 <func_1+0xf1>
    9854:	c7 85 14 ff ff ff 00 	movl   $0x0,-0xec(%rbp)
    985b:	00 00 00 
    985e:	eb 36                	jmp    9896 <func_1+0xe1>
    9860:	8b 85 14 ff ff ff    	mov    -0xec(%rbp),%eax
    9866:	48 63 c8             	movslq %eax,%rcx
    9869:	8b 85 10 ff ff ff    	mov    -0xf0(%rbp),%eax
    986f:	48 63 d0             	movslq %eax,%rdx
    9872:	48 89 d0             	mov    %rdx,%rax
    9875:	48 c1 e0 02          	shl    $0x2,%rax
    9879:	48 01 d0             	add    %rdx,%rax
    987c:	48 8d 14 08          	lea    (%rax,%rcx,1),%rdx
    9880:	48 8d 85 20 ff ff ff 	lea    -0xe0(%rbp),%rax
    9887:	48 89 84 d5 50 ff ff 	mov    %rax,-0xb0(%rbp,%rdx,8)
    988e:	ff 
    988f:	83 85 14 ff ff ff 01 	addl   $0x1,-0xec(%rbp)
    9896:	83 bd 14 ff ff ff 04 	cmpl   $0x4,-0xec(%rbp)
    989d:	7e c1                	jle    9860 <func_1+0xab>
    989f:	83 85 10 ff ff ff 01 	addl   $0x1,-0xf0(%rbp)
    98a6:	83 bd 10 ff ff ff 02 	cmpl   $0x2,-0xf0(%rbp)
    98ad:	7e a5                	jle    9854 <func_1+0x9f>
    98af:	c7 85 fc fe ff ff 06 	movl   $0x6,-0x104(%rbp)
    98b6:	00 00 00 
    98b9:	0f b7 05 0d 5e 01 00 	movzwl 0x15e0d(%rip),%eax        # 1f6cd <g_439+0xd>
    98c0:	0f b7 d8             	movzwl %ax,%ebx
    98c3:	0f b6 05 f5 48 01 00 	movzbl 0x148f5(%rip),%eax        # 1e1bf <g_271+0xf>
    98ca:	0f b7 15 ef 48 01 00 	movzwl 0x148ef(%rip),%edx        # 1e1c0 <g_271+0x10>
    98d1:	81 e2 ff 7f 00 00    	and    $0x7fff,%edx
    98d7:	48 c1 e2 08          	shl    $0x8,%rdx
    98db:	48 09 d0             	or     %rdx,%rax
    98de:	48 c1 e0 29          	shl    $0x29,%rax
    98e2:	48 c1 f8 29          	sar    $0x29,%rax
    98e6:	89 85 f8 fe ff ff    	mov    %eax,-0x108(%rbp)
    98ec:	0f b7 05 18 49 01 00 	movzwl 0x14918(%rip),%eax        # 1e20b <g_427+0xb>
    98f3:	44 0f be e8          	movsbl %al,%r13d
    98f7:	0f b6 05 f1 48 01 00 	movzbl 0x148f1(%rip),%eax        # 1e1ef <g_407+0xf>
    98fe:	0f b7 15 eb 48 01 00 	movzwl 0x148eb(%rip),%edx        # 1e1f0 <g_407+0x10>
    9905:	81 e2 ff 7f 00 00    	and    $0x7fff,%edx
    990b:	48 c1 e2 08          	shl    $0x8,%rdx
    990f:	48 09 d0             	or     %rdx,%rax
    9912:	48 c1 e0 29          	shl    $0x29,%rax
    9916:	48 c1 f8 29          	sar    $0x29,%rax
    991a:	89 85 f4 fe ff ff    	mov    %eax,-0x10c(%rbp)
    9920:	4c 8b 65 b0          	mov    -0x50(%rbp),%r12
    9924:	48 8b 35 6d 7e 01 00 	mov    0x17e6d(%rip),%rsi        # 21798 <g_43>
    992b:	48 89 b5 e8 fe ff ff 	mov    %rsi,-0x118(%rbp)
    9932:	8b 05 dc 47 01 00    	mov    0x147dc(%rip),%eax        # 1e114 <g_230>
    9938:	89 85 f0 fe ff ff    	mov    %eax,-0x110(%rbp)
    993e:	48 8b 85 28 ff ff ff 	mov    -0xd8(%rbp),%rax
    9945:	89 85 e4 fe ff ff    	mov    %eax,-0x11c(%rbp)
    994b:	8b 05 77 47 01 00    	mov    0x14777(%rip),%eax        # 1e0c8 <g_45>
    9951:	89 85 e0 fe ff ff    	mov    %eax,-0x120(%rbp)
    9957:	48 8b 85 38 ff ff ff 	mov    -0xc8(%rbp),%rax
    995e:	44 0f bf f0          	movswl %ax,%r14d
    9962:	48 8b 85 28 ff ff ff 	mov    -0xd8(%rbp),%rax
    9969:	48 89 c7             	mov    %rax,%rdi
    996c:	48 f7 d7             	not    %rdi
    996f:	48 89 bd d8 fe ff ff 	mov    %rdi,-0x128(%rbp)
    9976:	48 8b 85 28 ff ff ff 	mov    -0xd8(%rbp),%rax
    997d:	44 0f b6 f8          	movzbl %al,%r15d
    9981:	8b 05 41 47 01 00    	mov    0x14741(%rip),%eax        # 1e0c8 <g_45>
    9987:	98                   	cwtl   
    9988:	be 04 00 00 00       	mov    $0x4,%esi
    998d:	89 c7                	mov    %eax,%edi
    998f:	e8 96 eb ff ff       	callq  852a <safe_rshift_func_int16_t_s_s>
    9994:	0f b6 c0             	movzbl %al,%eax
    9997:	44 89 fe             	mov    %r15d,%esi
    999a:	89 c7                	mov    %eax,%edi
    999c:	e8 b9 f1 ff ff       	callq  8b5a <safe_add_func_uint8_t_u_u>
    99a1:	0f b6 c0             	movzbl %al,%eax
    99a4:	48 39 85 d8 fe ff ff 	cmp    %rax,-0x128(%rbp)
    99ab:	0f 9d c0             	setge  %al
    99ae:	0f b6 c0             	movzbl %al,%eax
    99b1:	be fd a4 00 00       	mov    $0xa4fd,%esi
    99b6:	89 c7                	mov    %eax,%edi
    99b8:	e8 80 f3 ff ff       	callq  8d3d <safe_mul_func_uint16_t_u_u>
    99bd:	98                   	cwtl   
    99be:	44 89 f6             	mov    %r14d,%esi
    99c1:	89 c7                	mov    %eax,%edi
    99c3:	e8 2d ea ff ff       	callq  83f5 <safe_mul_func_int16_t_s_s>
    99c8:	48 8b 85 38 ff ff ff 	mov    -0xc8(%rbp),%rax
    99cf:	89 c1                	mov    %eax,%ecx
    99d1:	48 8b 85 40 ff ff ff 	mov    -0xc0(%rbp),%rax
    99d8:	8b 95 e0 fe ff ff    	mov    -0x120(%rbp),%edx
    99de:	48 89 c6             	mov    %rax,%rsi
    99e1:	89 cf                	mov    %ecx,%edi
    99e3:	e8 3a 61 00 00       	callq  fb22 <func_60>
    99e8:	0f b7 c0             	movzwl %ax,%eax
    99eb:	8b b5 e4 fe ff ff    	mov    -0x11c(%rbp),%esi
    99f1:	89 c7                	mov    %eax,%edi
    99f3:	e8 82 f4 ff ff       	callq  8e7a <safe_rshift_func_uint16_t_u_u>
    99f8:	0f b7 d0             	movzwl %ax,%edx
    99fb:	48 8b 85 48 ff ff ff 	mov    -0xb8(%rbp),%rax
    9a02:	89 10                	mov    %edx,(%rax)
    9a04:	48 8b 85 48 ff ff ff 	mov    -0xb8(%rbp),%rax
    9a0b:	8b 00                	mov    (%rax),%eax
    9a0d:	48 8b 95 30 ff ff ff 	mov    -0xd0(%rbp),%rdx
    9a14:	8b b5 18 ff ff ff    	mov    -0xe8(%rbp),%esi
    9a1a:	4c 8b 85 e8 fe ff ff 	mov    -0x118(%rbp),%r8
    9a21:	8b 8d f0 fe ff ff    	mov    -0x110(%rbp),%ecx
    9a27:	89 c7                	mov    %eax,%edi
    9a29:	e8 3b 4e 00 00       	callq  e869 <func_52>
    9a2e:	0f b7 c0             	movzwl %ax,%eax
    9a31:	48 39 85 28 ff ff ff 	cmp    %rax,-0xd8(%rbp)
    9a38:	0f 95 c0             	setne  %al
    9a3b:	0f b6 c0             	movzbl %al,%eax
    9a3e:	48 8b 95 30 ff ff ff 	mov    -0xd0(%rbp),%rdx
    9a45:	49 89 d0             	mov    %rdx,%r8
    9a48:	44 89 e9             	mov    %r13d,%ecx
    9a4b:	8b 95 f4 fe ff ff    	mov    -0x10c(%rbp),%edx
    9a51:	4c 89 e6             	mov    %r12,%rsi
    9a54:	89 c7                	mov    %eax,%edi
    9a56:	e8 99 4c 00 00       	callq  e6f4 <func_46>
    9a5b:	48 89 c1             	mov    %rax,%rcx
    9a5e:	8b 05 64 46 01 00    	mov    0x14664(%rip),%eax        # 1e0c8 <g_45>
    9a64:	0f bf d0             	movswl %ax,%edx
    9a67:	48 8b 05 2a 7d 01 00 	mov    0x17d2a(%rip),%rax        # 21798 <g_43>
    9a6e:	44 8b 85 f8 fe ff ff 	mov    -0x108(%rbp),%r8d
    9a75:	48 8d 35 14 7d 01 00 	lea    0x17d14(%rip),%rsi        # 21790 <g_44>
    9a7c:	48 89 c7             	mov    %rax,%rdi
    9a7f:	e8 06 45 00 00       	callq  df8a <func_37>
    9a84:	48 89 de             	mov    %rbx,%rsi
    9a87:	48 89 c7             	mov    %rax,%rdi
    9a8a:	e8 20 f6 ff ff       	callq  90af <safe_div_func_uint64_t_u_u>
    9a8f:	0f b7 c0             	movzwl %ax,%eax
    9a92:	89 c7                	mov    %eax,%edi
    9a94:	e8 f8 13 00 00       	callq  ae91 <func_33>
    9a99:	0f b7 05 b9 5d 01 00 	movzwl 0x15db9(%rip),%eax        # 1f859 <g_924+0x9>
    9aa0:	0f b6 c0             	movzbl %al,%eax
    9aa3:	be 00 00 00 00       	mov    $0x0,%esi
    9aa8:	89 c7                	mov    %eax,%edi
    9aaa:	e8 e4 f0 ff ff       	callq  8b93 <safe_mul_func_uint8_t_u_u>
    9aaf:	0f b6 d8             	movzbl %al,%ebx
    9ab2:	48 8b 85 28 ff ff ff 	mov    -0xd8(%rbp),%rax
    9ab9:	89 c7                	mov    %eax,%edi
    9abb:	e8 c9 12 00 00       	callq  ad89 <func_8>
    9ac0:	89 c2                	mov    %eax,%edx
    9ac2:	48 8b 85 30 ff ff ff 	mov    -0xd0(%rbp),%rax
    9ac9:	0f b7 00             	movzwl (%rax),%eax
    9acc:	8d 70 ff             	lea    -0x1(%rax),%esi
    9acf:	48 8b 8d 30 ff ff ff 	mov    -0xd0(%rbp),%rcx
    9ad6:	66 89 31             	mov    %si,(%rcx)
    9ad9:	66 39 c2             	cmp    %ax,%dx
    9adc:	0f 92 c0             	setb   %al
    9adf:	0f b6 c0             	movzbl %al,%eax
    9ae2:	8b 95 fc fe ff ff    	mov    -0x104(%rbp),%edx
    9ae8:	48 89 de             	mov    %rbx,%rsi
    9aeb:	89 c7                	mov    %eax,%edi
    9aed:	e8 c6 00 00 00       	callq  9bb8 <func_4>
    9af2:	0f b7 c0             	movzwl %ax,%eax
    9af5:	be 00 00 00 00       	mov    $0x0,%esi
    9afa:	89 c7                	mov    %eax,%edi
    9afc:	e8 79 f3 ff ff       	callq  8e7a <safe_rshift_func_uint16_t_u_u>
    9b01:	0f b6 15 87 5a 01 00 	movzbl 0x15a87(%rip),%edx        # 1f58f <g_434+0xf>
    9b08:	0f b7 0d 81 5a 01 00 	movzwl 0x15a81(%rip),%ecx        # 1f590 <g_434+0x10>
    9b0f:	81 e1 ff 7f 00 00    	and    $0x7fff,%ecx
    9b15:	48 c1 e1 08          	shl    $0x8,%rcx
    9b19:	48 09 ca             	or     %rcx,%rdx
    9b1c:	48 c1 e2 29          	shl    $0x29,%rdx
    9b20:	48 c1 fa 29          	sar    $0x29,%rdx
    9b24:	0f b7 c0             	movzwl %ax,%eax
    9b27:	21 d0                	and    %edx,%eax
    9b29:	c1 e0 09             	shl    $0x9,%eax
    9b2c:	c1 f8 09             	sar    $0x9,%eax
    9b2f:	89 c2                	mov    %eax,%edx
    9b31:	0f b6 ca             	movzbl %dl,%ecx
    9b34:	0f b6 15 54 5a 01 00 	movzbl 0x15a54(%rip),%edx        # 1f58f <g_434+0xf>
    9b3b:	83 e2 00             	and    $0x0,%edx
    9b3e:	09 ca                	or     %ecx,%edx
    9b40:	88 15 49 5a 01 00    	mov    %dl,0x15a49(%rip)        # 1f58f <g_434+0xf>
    9b46:	89 c2                	mov    %eax,%edx
    9b48:	c1 ea 08             	shr    $0x8,%edx
    9b4b:	89 d2                	mov    %edx,%edx
    9b4d:	0f b6 ca             	movzbl %dl,%ecx
    9b50:	0f b6 15 39 5a 01 00 	movzbl 0x15a39(%rip),%edx        # 1f590 <g_434+0x10>
    9b57:	83 e2 00             	and    $0x0,%edx
    9b5a:	09 ca                	or     %ecx,%edx
    9b5c:	88 15 2e 5a 01 00    	mov    %dl,0x15a2e(%rip)        # 1f590 <g_434+0x10>
    9b62:	c1 e8 10             	shr    $0x10,%eax
    9b65:	89 c0                	mov    %eax,%eax
    9b67:	83 e0 7f             	and    $0x7f,%eax
    9b6a:	89 c2                	mov    %eax,%edx
    9b6c:	83 e2 7f             	and    $0x7f,%edx
    9b6f:	0f b6 05 1b 5a 01 00 	movzbl 0x15a1b(%rip),%eax        # 1f591 <g_434+0x11>
    9b76:	83 e0 80             	and    $0xffffff80,%eax
    9b79:	09 d0                	or     %edx,%eax
    9b7b:	88 05 10 5a 01 00    	mov    %al,0x15a10(%rip)        # 1f591 <g_434+0x11>
    9b81:	83 ad 1c ff ff ff 01 	subl   $0x1,-0xe4(%rbp)
    9b88:	0f b6 05 b1 4f 01 00 	movzbl 0x14fb1(%rip),%eax        # 1eb40 <g_431+0x8c0>
    9b8f:	0f b6 c0             	movzbl %al,%eax
    9b92:	48 8b 5d c8          	mov    -0x38(%rbp),%rbx
    9b96:	64 48 33 1c 25 28 00 	xor    %fs:0x28,%rbx
    9b9d:	00 00 
    9b9f:	74 05                	je     9ba6 <func_1+0x3f1>
    9ba1:	e8 ca e4 ff ff       	callq  8070 <__stack_chk_fail@plt>
    9ba6:	48 81 c4 08 01 00 00 	add    $0x108,%rsp
    9bad:	5b                   	pop    %rbx
    9bae:	41 5c                	pop    %r12
    9bb0:	41 5d                	pop    %r13
    9bb2:	41 5e                	pop    %r14
    9bb4:	41 5f                	pop    %r15
    9bb6:	5d                   	pop    %rbp
    9bb7:	c3                   	retq   

0000000000009bb8 <func_4>:
    9bb8:	f3 0f 1e fa          	endbr64 
    9bbc:	55                   	push   %rbp
    9bbd:	48 89 e5             	mov    %rsp,%rbp
    9bc0:	41 57                	push   %r15
    9bc2:	41 56                	push   %r14
    9bc4:	41 55                	push   %r13
    9bc6:	41 54                	push   %r12
    9bc8:	53                   	push   %rbx
    9bc9:	48 81 ec 38 07 00 00 	sub    $0x738,%rsp
    9bd0:	89 f8                	mov    %edi,%eax
    9bd2:	48 89 b5 a0 f8 ff ff 	mov    %rsi,-0x760(%rbp)
    9bd9:	89 95 a8 f8 ff ff    	mov    %edx,-0x758(%rbp)
    9bdf:	88 85 ac f8 ff ff    	mov    %al,-0x754(%rbp)
    9be5:	64 48 8b 04 25 28 00 	mov    %fs:0x28,%rax
    9bec:	00 00 
    9bee:	48 89 45 c8          	mov    %rax,-0x38(%rbp)
    9bf2:	31 c0                	xor    %eax,%eax
    9bf4:	48 8d 05 cd 44 01 00 	lea    0x144cd(%rip),%rax        # 1e0c8 <g_45>
    9bfb:	48 89 85 38 f9 ff ff 	mov    %rax,-0x6c8(%rbp)
    9c02:	48 c7 85 f8 f8 ff ff 	movq   $0x0,-0x708(%rbp)
    9c09:	00 00 00 00 
    9c0d:	c7 85 e8 f8 ff ff 7e 	movl   $0x613c007e,-0x718(%rbp)
    9c14:	00 3c 61 
    9c17:	48 8d 05 da 5b 01 00 	lea    0x15bda(%rip),%rax        # 1f7f8 <g_744>
    9c1e:	48 89 85 40 f9 ff ff 	mov    %rax,-0x6c0(%rbp)
    9c25:	c7 85 d0 fa ff ff f9 	movl   $0xfffffff9,-0x530(%rbp)
    9c2c:	ff ff ff 
    9c2f:	c7 85 d4 fa ff ff 0c 	movl   $0xbbd310c,-0x52c(%rbp)
    9c36:	31 bd 0b 
    9c39:	c7 85 d8 fa ff ff f9 	movl   $0xfffffff9,-0x528(%rbp)
    9c40:	ff ff ff 
    9c43:	c7 85 dc fa ff ff f9 	movl   $0xfffffff9,-0x524(%rbp)
    9c4a:	ff ff ff 
    9c4d:	c7 85 e0 fa ff ff 0c 	movl   $0xbbd310c,-0x520(%rbp)
    9c54:	31 bd 0b 
    9c57:	c7 85 e4 fa ff ff f9 	movl   $0xfffffff9,-0x51c(%rbp)
    9c5e:	ff ff ff 
    9c61:	c7 85 e8 fa ff ff f9 	movl   $0xfffffff9,-0x518(%rbp)
    9c68:	ff ff ff 
    9c6b:	c7 85 ec fa ff ff 0c 	movl   $0xbbd310c,-0x514(%rbp)
    9c72:	31 bd 0b 
    9c75:	c7 85 f0 fa ff ff f9 	movl   $0xfffffff9,-0x510(%rbp)
    9c7c:	ff ff ff 
    9c7f:	c7 85 50 fa ff ff ff 	movl   $0xffffffff,-0x5b0(%rbp)
    9c86:	ff ff ff 
    9c89:	c7 85 54 fa ff ff 00 	movl   $0x0,-0x5ac(%rbp)
    9c90:	00 00 00 
    9c93:	c7 85 58 fa ff ff ff 	movl   $0xffffffff,-0x5a8(%rbp)
    9c9a:	ff ff ff 
    9c9d:	c7 85 5c fa ff ff ff 	movl   $0xffffffff,-0x5a4(%rbp)
    9ca4:	ff ff ff 
    9ca7:	c7 85 60 fa ff ff 00 	movl   $0x0,-0x5a0(%rbp)
    9cae:	00 00 00 
    9cb1:	c7 85 64 fa ff ff ff 	movl   $0xffffffff,-0x59c(%rbp)
    9cb8:	ff ff ff 
    9cbb:	48 8d 05 76 84 01 00 	lea    0x18476(%rip),%rax        # 22138 <g_1226>
    9cc2:	48 89 85 00 f9 ff ff 	mov    %rax,-0x700(%rbp)
    9cc9:	48 c7 85 48 f9 ff ff 	movq   $0x0,-0x6b8(%rbp)
    9cd0:	00 00 00 00 
    9cd4:	c6 85 bd f8 ff ff 3f 	movb   $0x3f,-0x743(%rbp)
    9cdb:	48 8d 05 06 59 01 00 	lea    0x15906(%rip),%rax        # 1f5e8 <g_437+0x8>
    9ce2:	48 89 85 08 f9 ff ff 	mov    %rax,-0x6f8(%rbp)
    9ce9:	48 8d 85 08 f9 ff ff 	lea    -0x6f8(%rbp),%rax
    9cf0:	48 89 85 10 f9 ff ff 	mov    %rax,-0x6f0(%rbp)
    9cf7:	48 8d 85 10 f9 ff ff 	lea    -0x6f0(%rbp),%rax
    9cfe:	48 89 85 00 fb ff ff 	mov    %rax,-0x500(%rbp)
    9d05:	48 8d 85 10 f9 ff ff 	lea    -0x6f0(%rbp),%rax
    9d0c:	48 89 85 08 fb ff ff 	mov    %rax,-0x4f8(%rbp)
    9d13:	48 8d 85 10 f9 ff ff 	lea    -0x6f0(%rbp),%rax
    9d1a:	48 89 85 10 fb ff ff 	mov    %rax,-0x4f0(%rbp)
    9d21:	48 c7 85 18 fb ff ff 	movq   $0x0,-0x4e8(%rbp)
    9d28:	00 00 00 00 
    9d2c:	48 8d 85 10 f9 ff ff 	lea    -0x6f0(%rbp),%rax
    9d33:	48 89 85 20 fb ff ff 	mov    %rax,-0x4e0(%rbp)
    9d3a:	48 8d 85 10 f9 ff ff 	lea    -0x6f0(%rbp),%rax
    9d41:	48 89 85 28 fb ff ff 	mov    %rax,-0x4d8(%rbp)
    9d48:	48 8d 85 10 f9 ff ff 	lea    -0x6f0(%rbp),%rax
    9d4f:	48 89 85 30 fb ff ff 	mov    %rax,-0x4d0(%rbp)
    9d56:	48 8d 85 10 f9 ff ff 	lea    -0x6f0(%rbp),%rax
    9d5d:	48 89 85 38 fb ff ff 	mov    %rax,-0x4c8(%rbp)
    9d64:	48 c7 85 40 fb ff ff 	movq   $0x0,-0x4c0(%rbp)
    9d6b:	00 00 00 00 
    9d6f:	48 c7 85 48 fb ff ff 	movq   $0x0,-0x4b8(%rbp)
    9d76:	00 00 00 00 
    9d7a:	48 8d 85 10 f9 ff ff 	lea    -0x6f0(%rbp),%rax
    9d81:	48 89 85 50 fb ff ff 	mov    %rax,-0x4b0(%rbp)
    9d88:	48 8d 85 10 f9 ff ff 	lea    -0x6f0(%rbp),%rax
    9d8f:	48 89 85 58 fb ff ff 	mov    %rax,-0x4a8(%rbp)
    9d96:	48 8d 85 10 f9 ff ff 	lea    -0x6f0(%rbp),%rax
    9d9d:	48 89 85 60 fb ff ff 	mov    %rax,-0x4a0(%rbp)
    9da4:	48 8d 85 10 f9 ff ff 	lea    -0x6f0(%rbp),%rax
    9dab:	48 89 85 68 fb ff ff 	mov    %rax,-0x498(%rbp)
    9db2:	48 c7 85 70 fb ff ff 	movq   $0x0,-0x490(%rbp)
    9db9:	00 00 00 00 
    9dbd:	48 8d 85 10 f9 ff ff 	lea    -0x6f0(%rbp),%rax
    9dc4:	48 89 85 78 fb ff ff 	mov    %rax,-0x488(%rbp)
    9dcb:	48 8d 85 10 f9 ff ff 	lea    -0x6f0(%rbp),%rax
    9dd2:	48 89 85 80 fb ff ff 	mov    %rax,-0x480(%rbp)
    9dd9:	48 8d 85 10 f9 ff ff 	lea    -0x6f0(%rbp),%rax
    9de0:	48 89 85 88 fb ff ff 	mov    %rax,-0x478(%rbp)
    9de7:	48 8d 85 10 f9 ff ff 	lea    -0x6f0(%rbp),%rax
    9dee:	48 89 85 90 fb ff ff 	mov    %rax,-0x470(%rbp)
    9df5:	48 8d 85 10 f9 ff ff 	lea    -0x6f0(%rbp),%rax
    9dfc:	48 89 85 98 fb ff ff 	mov    %rax,-0x468(%rbp)
    9e03:	48 8d 85 10 f9 ff ff 	lea    -0x6f0(%rbp),%rax
    9e0a:	48 89 85 a0 fb ff ff 	mov    %rax,-0x460(%rbp)
    9e11:	48 8d 85 10 f9 ff ff 	lea    -0x6f0(%rbp),%rax
    9e18:	48 89 85 a8 fb ff ff 	mov    %rax,-0x458(%rbp)
    9e1f:	48 8d 85 10 f9 ff ff 	lea    -0x6f0(%rbp),%rax
    9e26:	48 89 85 b0 fb ff ff 	mov    %rax,-0x450(%rbp)
    9e2d:	48 8d 85 10 f9 ff ff 	lea    -0x6f0(%rbp),%rax
    9e34:	48 89 85 b8 fb ff ff 	mov    %rax,-0x448(%rbp)
    9e3b:	c6 85 be f8 ff ff f3 	movb   $0xf3,-0x742(%rbp)
    9e42:	c7 85 80 fc ff ff b9 	movl   $0x839b54b9,-0x380(%rbp)
    9e49:	54 9b 83 
    9e4c:	c7 85 84 fc ff ff 00 	movl   $0x0,-0x37c(%rbp)
    9e53:	00 00 00 
    9e56:	c7 85 88 fc ff ff b9 	movl   $0x839b54b9,-0x378(%rbp)
    9e5d:	54 9b 83 
    9e60:	c7 85 8c fc ff ff 45 	movl   $0xa6034245,-0x374(%rbp)
    9e67:	42 03 a6 
    9e6a:	c7 85 90 fc ff ff 45 	movl   $0xa6034245,-0x370(%rbp)
    9e71:	42 03 a6 
    9e74:	c7 85 94 fc ff ff b9 	movl   $0x839b54b9,-0x36c(%rbp)
    9e7b:	54 9b 83 
    9e7e:	c7 85 98 fc ff ff f8 	movl   $0xfffffff8,-0x368(%rbp)
    9e85:	ff ff ff 
    9e88:	c7 85 9c fc ff ff f8 	movl   $0xfffffff8,-0x364(%rbp)
    9e8f:	ff ff ff 
    9e92:	c7 85 a0 fc ff ff 45 	movl   $0xa6034245,-0x360(%rbp)
    9e99:	42 03 a6 
    9e9c:	c7 85 a4 fc ff ff 00 	movl   $0x0,-0x35c(%rbp)
    9ea3:	00 00 00 
    9ea6:	c7 85 a8 fc ff ff 45 	movl   $0xa6034245,-0x358(%rbp)
    9ead:	42 03 a6 
    9eb0:	c7 85 ac fc ff ff f8 	movl   $0xfffffff8,-0x354(%rbp)
    9eb7:	ff ff ff 
    9eba:	c7 85 b0 fc ff ff 45 	movl   $0xa6034245,-0x350(%rbp)
    9ec1:	42 03 a6 
    9ec4:	c7 85 b4 fc ff ff 00 	movl   $0x0,-0x34c(%rbp)
    9ecb:	00 00 00 
    9ece:	c7 85 b8 fc ff ff 00 	movl   $0x0,-0x348(%rbp)
    9ed5:	00 00 00 
    9ed8:	c7 85 bc fc ff ff 00 	movl   $0x0,-0x344(%rbp)
    9edf:	00 00 00 
    9ee2:	c7 85 c0 fc ff ff 00 	movl   $0x0,-0x340(%rbp)
    9ee9:	00 00 00 
    9eec:	c7 85 c4 fc ff ff 45 	movl   $0xa6034245,-0x33c(%rbp)
    9ef3:	42 03 a6 
    9ef6:	c7 85 c8 fc ff ff f8 	movl   $0xfffffff8,-0x338(%rbp)
    9efd:	ff ff ff 
    9f00:	c7 85 cc fc ff ff 45 	movl   $0xa6034245,-0x334(%rbp)
    9f07:	42 03 a6 
    9f0a:	c7 85 d0 fc ff ff 00 	movl   $0x0,-0x330(%rbp)
    9f11:	00 00 00 
    9f14:	c7 85 d4 fc ff ff 45 	movl   $0xa6034245,-0x32c(%rbp)
    9f1b:	42 03 a6 
    9f1e:	c7 85 d8 fc ff ff f8 	movl   $0xfffffff8,-0x328(%rbp)
    9f25:	ff ff ff 
    9f28:	c7 85 dc fc ff ff f8 	movl   $0xfffffff8,-0x324(%rbp)
    9f2f:	ff ff ff 
    9f32:	c7 85 e0 fc ff ff b9 	movl   $0x839b54b9,-0x320(%rbp)
    9f39:	54 9b 83 
    9f3c:	c7 85 e4 fc ff ff 45 	movl   $0xa6034245,-0x31c(%rbp)
    9f43:	42 03 a6 
    9f46:	c7 85 e8 fc ff ff 45 	movl   $0xa6034245,-0x318(%rbp)
    9f4d:	42 03 a6 
    9f50:	c7 85 ec fc ff ff b9 	movl   $0x839b54b9,-0x314(%rbp)
    9f57:	54 9b 83 
    9f5a:	c7 85 f0 fc ff ff 00 	movl   $0x0,-0x310(%rbp)
    9f61:	00 00 00 
    9f64:	c7 85 f4 fc ff ff b9 	movl   $0x839b54b9,-0x30c(%rbp)
    9f6b:	54 9b 83 
    9f6e:	c7 85 f8 fc ff ff b9 	movl   $0x839b54b9,-0x308(%rbp)
    9f75:	54 9b 83 
    9f78:	c7 85 fc fc ff ff 00 	movl   $0x0,-0x304(%rbp)
    9f7f:	00 00 00 
    9f82:	c7 85 00 fd ff ff b9 	movl   $0x839b54b9,-0x300(%rbp)
    9f89:	54 9b 83 
    9f8c:	c7 85 04 fd ff ff 45 	movl   $0xa6034245,-0x2fc(%rbp)
    9f93:	42 03 a6 
    9f96:	c7 85 08 fd ff ff 45 	movl   $0xa6034245,-0x2f8(%rbp)
    9f9d:	42 03 a6 
    9fa0:	c7 85 0c fd ff ff b9 	movl   $0x839b54b9,-0x2f4(%rbp)
    9fa7:	54 9b 83 
    9faa:	c7 85 10 fd ff ff f8 	movl   $0xfffffff8,-0x2f0(%rbp)
    9fb1:	ff ff ff 
    9fb4:	c7 85 14 fd ff ff f8 	movl   $0xfffffff8,-0x2ec(%rbp)
    9fbb:	ff ff ff 
    9fbe:	c7 85 18 fd ff ff 45 	movl   $0xa6034245,-0x2e8(%rbp)
    9fc5:	42 03 a6 
    9fc8:	c7 85 1c fd ff ff 00 	movl   $0x0,-0x2e4(%rbp)
    9fcf:	00 00 00 
    9fd2:	c7 85 20 fd ff ff 45 	movl   $0xa6034245,-0x2e0(%rbp)
    9fd9:	42 03 a6 
    9fdc:	c7 85 24 fd ff ff f8 	movl   $0xfffffff8,-0x2dc(%rbp)
    9fe3:	ff ff ff 
    9fe6:	c7 85 28 fd ff ff 45 	movl   $0xa6034245,-0x2d8(%rbp)
    9fed:	42 03 a6 
    9ff0:	c7 85 2c fd ff ff 00 	movl   $0x0,-0x2d4(%rbp)
    9ff7:	00 00 00 
    9ffa:	c7 85 30 fd ff ff 00 	movl   $0x0,-0x2d0(%rbp)
    a001:	00 00 00 
    a004:	c7 85 34 fd ff ff 00 	movl   $0x0,-0x2cc(%rbp)
    a00b:	00 00 00 
    a00e:	c7 85 38 fd ff ff 00 	movl   $0x0,-0x2c8(%rbp)
    a015:	00 00 00 
    a018:	c7 85 3c fd ff ff 45 	movl   $0xa6034245,-0x2c4(%rbp)
    a01f:	42 03 a6 
    a022:	c7 85 40 fd ff ff f8 	movl   $0xfffffff8,-0x2c0(%rbp)
    a029:	ff ff ff 
    a02c:	c7 85 44 fd ff ff 45 	movl   $0xa6034245,-0x2bc(%rbp)
    a033:	42 03 a6 
    a036:	c7 85 48 fd ff ff 00 	movl   $0x0,-0x2b8(%rbp)
    a03d:	00 00 00 
    a040:	c7 85 4c fd ff ff 45 	movl   $0xa6034245,-0x2b4(%rbp)
    a047:	42 03 a6 
    a04a:	c7 85 50 fd ff ff f8 	movl   $0xfffffff8,-0x2b0(%rbp)
    a051:	ff ff ff 
    a054:	c7 85 54 fd ff ff f8 	movl   $0xfffffff8,-0x2ac(%rbp)
    a05b:	ff ff ff 
    a05e:	c7 85 58 fd ff ff b9 	movl   $0x839b54b9,-0x2a8(%rbp)
    a065:	54 9b 83 
    a068:	c7 85 5c fd ff ff 45 	movl   $0xa6034245,-0x2a4(%rbp)
    a06f:	42 03 a6 
    a072:	c7 85 60 fd ff ff 45 	movl   $0xa6034245,-0x2a0(%rbp)
    a079:	42 03 a6 
    a07c:	c7 85 64 fd ff ff b9 	movl   $0x839b54b9,-0x29c(%rbp)
    a083:	54 9b 83 
    a086:	c7 85 68 fd ff ff 00 	movl   $0x0,-0x298(%rbp)
    a08d:	00 00 00 
    a090:	c7 85 6c fd ff ff b9 	movl   $0x839b54b9,-0x294(%rbp)
    a097:	54 9b 83 
    a09a:	66 c7 85 c0 f8 ff ff 	movw   $0x4,-0x740(%rbp)
    a0a1:	04 00 
    a0a3:	c7 85 d0 f8 ff ff 00 	movl   $0x0,-0x730(%rbp)
    a0aa:	00 00 00 
    a0ad:	eb 1e                	jmp    a0cd <func_4+0x515>
    a0af:	8b 85 d0 f8 ff ff    	mov    -0x730(%rbp),%eax
    a0b5:	48 98                	cltq   
    a0b7:	48 8d 15 dd 56 01 00 	lea    0x156dd(%rip),%rdx        # 1f79b <g_441+0xb>
    a0be:	48 89 94 c5 30 fa ff 	mov    %rdx,-0x5d0(%rbp,%rax,8)
    a0c5:	ff 
    a0c6:	83 85 d0 f8 ff ff 01 	addl   $0x1,-0x730(%rbp)
    a0cd:	83 bd d0 f8 ff ff 02 	cmpl   $0x2,-0x730(%rbp)
    a0d4:	7e d9                	jle    a0af <func_4+0x4f7>
    a0d6:	c7 85 d0 f8 ff ff 00 	movl   $0x0,-0x730(%rbp)
    a0dd:	00 00 00 
    a0e0:	eb 1b                	jmp    a0fd <func_4+0x545>
    a0e2:	8b 85 d0 f8 ff ff    	mov    -0x730(%rbp),%eax
    a0e8:	48 98                	cltq   
    a0ea:	48 c7 84 c5 00 fa ff 	movq   $0x0,-0x600(%rbp,%rax,8)
    a0f1:	ff 00 00 00 00 
    a0f6:	83 85 d0 f8 ff ff 01 	addl   $0x1,-0x730(%rbp)
    a0fd:	83 bd d0 f8 ff ff 01 	cmpl   $0x1,-0x730(%rbp)
    a104:	7e dc                	jle    a0e2 <func_4+0x52a>
    a106:	c7 85 d0 f8 ff ff 00 	movl   $0x0,-0x730(%rbp)
    a10d:	00 00 00 
    a110:	eb 1e                	jmp    a130 <func_4+0x578>
    a112:	8b 85 d0 f8 ff ff    	mov    -0x730(%rbp),%eax
    a118:	48 98                	cltq   
    a11a:	48 8d 95 00 f9 ff ff 	lea    -0x700(%rbp),%rdx
    a121:	48 89 94 c5 70 fa ff 	mov    %rdx,-0x590(%rbp,%rax,8)
    a128:	ff 
    a129:	83 85 d0 f8 ff ff 01 	addl   $0x1,-0x730(%rbp)
    a130:	83 bd d0 f8 ff ff 02 	cmpl   $0x2,-0x730(%rbp)
    a137:	7e d9                	jle    a112 <func_4+0x55a>
    a139:	c7 85 d0 f8 ff ff 00 	movl   $0x0,-0x730(%rbp)
    a140:	00 00 00 
    a143:	eb 1e                	jmp    a163 <func_4+0x5ab>
    a145:	8b 85 d0 f8 ff ff    	mov    -0x730(%rbp),%eax
    a14b:	48 98                	cltq   
    a14d:	48 8d 15 ec 76 01 00 	lea    0x176ec(%rip),%rdx        # 21840 <g_260>
    a154:	48 89 94 c5 90 fa ff 	mov    %rdx,-0x570(%rbp,%rax,8)
    a15b:	ff 
    a15c:	83 85 d0 f8 ff ff 01 	addl   $0x1,-0x730(%rbp)
    a163:	83 bd d0 f8 ff ff 02 	cmpl   $0x2,-0x730(%rbp)
    a16a:	7e d9                	jle    a145 <func_4+0x58d>
    a16c:	48 8b 05 25 76 01 00 	mov    0x17625(%rip),%rax        # 21798 <g_43>
    a173:	48 8b 95 38 f9 ff ff 	mov    -0x6c8(%rbp),%rdx
    a17a:	48 89 10             	mov    %rdx,(%rax)
    a17d:	48 8b 05 7c 81 01 00 	mov    0x1817c(%rip),%rax        # 22300 <g_1309>
    a184:	48 8b 95 f8 f8 ff ff 	mov    -0x708(%rbp),%rdx
    a18b:	48 89 10             	mov    %rdx,(%rax)
    a18e:	48 8b 85 38 f9 ff ff 	mov    -0x6c8(%rbp),%rax
    a195:	8b 18                	mov    (%rax),%ebx
    a197:	48 8b 05 82 7f 01 00 	mov    0x17f82(%rip),%rax        # 22120 <g_1058>
    a19e:	0f b7 00             	movzwl (%rax),%eax
    a1a1:	44 0f bf e0          	movswl %ax,%r12d
    a1a5:	8b 85 a8 f8 ff ff    	mov    -0x758(%rbp),%eax
    a1ab:	4c 63 e8             	movslq %eax,%r13
    a1ae:	8b 95 a8 f8 ff ff    	mov    -0x758(%rbp),%edx
    a1b4:	8b 85 e8 f8 ff ff    	mov    -0x718(%rbp),%eax
    a1ba:	89 d6                	mov    %edx,%esi
    a1bc:	89 c7                	mov    %eax,%edi
    a1be:	e8 62 ed ff ff       	callq  8f25 <safe_div_func_uint32_t_u_u>
    a1c3:	3d 27 ac f9 da       	cmp    $0xdaf9ac27,%eax
    a1c8:	0f 96 c0             	setbe  %al
    a1cb:	0f b6 c0             	movzbl %al,%eax
    a1ce:	48 be 63 97 0a c4 ab 	movabs $0x8e67fabc40a9763,%rsi
    a1d5:	7f e6 08 
    a1d8:	48 89 c7             	mov    %rax,%rdi
    a1db:	e8 6b ee ff ff       	callq  904b <safe_sub_func_uint64_t_u_u>
    a1e0:	49 39 c5             	cmp    %rax,%r13
    a1e3:	0f 92 c0             	setb   %al
    a1e6:	0f b6 c0             	movzbl %al,%eax
    a1e9:	44 89 e6             	mov    %r12d,%esi
    a1ec:	89 c7                	mov    %eax,%edi
    a1ee:	e8 37 e3 ff ff       	callq  852a <safe_rshift_func_int16_t_s_s>
    a1f3:	48 0f bf c0          	movswq %ax,%rax
    a1f7:	be 00 00 00 00       	mov    $0x0,%esi
    a1fc:	48 89 c7             	mov    %rax,%rdi
    a1ff:	e8 a4 e6 ff ff       	callq  88a8 <safe_sub_func_int64_t_s_s>
    a204:	48 8b 15 1d 57 01 00 	mov    0x1571d(%rip),%rdx        # 1f928 <g_1369>
    a20b:	48 09 d0             	or     %rdx,%rax
    a20e:	48 85 c0             	test   %rax,%rax
    a211:	74 14                	je     a227 <func_4+0x66f>
    a213:	48 8b 85 38 f9 ff ff 	mov    -0x6c8(%rbp),%rax
    a21a:	8b 00                	mov    (%rax),%eax
    a21c:	85 c0                	test   %eax,%eax
    a21e:	74 07                	je     a227 <func_4+0x66f>
    a220:	b8 01 00 00 00       	mov    $0x1,%eax
    a225:	eb 05                	jmp    a22c <func_4+0x674>
    a227:	b8 00 00 00 00       	mov    $0x0,%eax
    a22c:	83 c8 06             	or     $0x6,%eax
    a22f:	48 98                	cltq   
    a231:	89 c0                	mov    %eax,%eax
    a233:	48 89 85 00 fa ff ff 	mov    %rax,-0x600(%rbp)
    a23a:	48 8b 95 00 fa ff ff 	mov    -0x600(%rbp),%rdx
    a241:	48 8b 85 38 f9 ff ff 	mov    -0x6c8(%rbp),%rax
    a248:	8b 00                	mov    (%rax),%eax
    a24a:	48 98                	cltq   
    a24c:	48 39 c2             	cmp    %rax,%rdx
    a24f:	0f 92 c0             	setb   %al
    a252:	0f b6 c0             	movzbl %al,%eax
    a255:	be 9e ff ff ff       	mov    $0xffffff9e,%esi
    a25a:	89 c7                	mov    %eax,%edi
    a25c:	e8 09 e0 ff ff       	callq  826a <safe_div_func_int8_t_s_s>
    a261:	be 01 00 00 00       	mov    $0x1,%esi
    a266:	bf 16 ef f0 c8       	mov    $0xc8f0ef16,%edi
    a26b:	e8 46 e3 ff ff       	callq  85b6 <safe_add_func_int32_t_s_s>
    a270:	48 c7 c2 ff ff ff ff 	mov    $0xffffffffffffffff,%rdx
    a277:	48 8b 85 40 f9 ff ff 	mov    -0x6c0(%rbp),%rax
    a27e:	48 8b 00             	mov    (%rax),%rax
    a281:	48 21 c2             	and    %rax,%rdx
    a284:	48 8b 85 40 f9 ff ff 	mov    -0x6c0(%rbp),%rax
    a28b:	48 89 10             	mov    %rdx,(%rax)
    a28e:	48 8b 85 40 f9 ff ff 	mov    -0x6c0(%rbp),%rax
    a295:	48 8b 00             	mov    (%rax),%rax
    a298:	49 89 c4             	mov    %rax,%r12
    a29b:	48 8b 85 38 f9 ff ff 	mov    -0x6c8(%rbp),%rax
    a2a2:	8b 00                	mov    (%rax),%eax
    a2a4:	85 c0                	test   %eax,%eax
    a2a6:	74 14                	je     a2bc <func_4+0x704>
    a2a8:	48 8b 85 38 f9 ff ff 	mov    -0x6c8(%rbp),%rax
    a2af:	8b 00                	mov    (%rax),%eax
    a2b1:	85 c0                	test   %eax,%eax
    a2b3:	74 07                	je     a2bc <func_4+0x704>
    a2b5:	b8 01 00 00 00       	mov    $0x1,%eax
    a2ba:	eb 05                	jmp    a2c1 <func_4+0x709>
    a2bc:	b8 00 00 00 00       	mov    $0x0,%eax
    a2c1:	48 98                	cltq   
    a2c3:	48 89 c6             	mov    %rax,%rsi
    a2c6:	bf 00 00 00 00       	mov    $0x0,%edi
    a2cb:	e8 71 e5 ff ff       	callq  8841 <safe_add_func_int64_t_s_s>
    a2d0:	48 8b 95 38 f9 ff ff 	mov    -0x6c8(%rbp),%rdx
    a2d7:	8b 12                	mov    (%rdx),%edx
    a2d9:	48 63 d2             	movslq %edx,%rdx
    a2dc:	48 31 d0             	xor    %rdx,%rax
    a2df:	4c 89 e6             	mov    %r12,%rsi
    a2e2:	48 89 c7             	mov    %rax,%rdi
    a2e5:	e8 96 ed ff ff       	callq  9080 <safe_mod_func_uint64_t_u_u>
    a2ea:	0f be c0             	movsbl %al,%eax
    a2ed:	be 01 00 00 00       	mov    $0x1,%esi
    a2f2:	89 c7                	mov    %eax,%edi
    a2f4:	e8 db de ff ff       	callq  81d4 <safe_add_func_int8_t_s_s>
    a2f9:	66 98                	cbtw   
    a2fb:	0f b7 c0             	movzwl %ax,%eax
    a2fe:	be 0b 00 00 00       	mov    $0xb,%esi
    a303:	89 c7                	mov    %eax,%edi
    a305:	e8 fc ea ff ff       	callq  8e06 <safe_lshift_func_uint16_t_u_u>
    a30a:	66 85 c0             	test   %ax,%ax
    a30d:	74 10                	je     a31f <func_4+0x767>
    a30f:	83 bd a8 f8 ff ff 00 	cmpl   $0x0,-0x758(%rbp)
    a316:	74 07                	je     a31f <func_4+0x767>
    a318:	ba 01 00 00 00       	mov    $0x1,%edx
    a31d:	eb 05                	jmp    a324 <func_4+0x76c>
    a31f:	ba 00 00 00 00       	mov    $0x0,%edx
    a324:	48 8b 05 95 75 01 00 	mov    0x17595(%rip),%rax        # 218c0 <g_532>
    a32b:	48 8b 00             	mov    (%rax),%rax
    a32e:	88 10                	mov    %dl,(%rax)
    a330:	0f b6 00             	movzbl (%rax),%eax
    a333:	0f b6 c0             	movzbl %al,%eax
    a336:	25 8e 00 00 00       	and    $0x8e,%eax
    a33b:	48 85 c0             	test   %rax,%rax
    a33e:	74 07                	je     a347 <func_4+0x78f>
    a340:	b8 01 00 00 00       	mov    $0x1,%eax
    a345:	eb 05                	jmp    a34c <func_4+0x794>
    a347:	b8 00 00 00 00       	mov    $0x0,%eax
    a34c:	84 c0                	test   %al,%al
    a34e:	74 16                	je     a366 <func_4+0x7ae>
    a350:	48 8b 05 c9 7d 01 00 	mov    0x17dc9(%rip),%rax        # 22120 <g_1058>
    a357:	0f b7 00             	movzwl (%rax),%eax
    a35a:	66 85 c0             	test   %ax,%ax
    a35d:	74 07                	je     a366 <func_4+0x7ae>
    a35f:	b8 01 00 00 00       	mov    $0x1,%eax
    a364:	eb 05                	jmp    a36b <func_4+0x7b3>
    a366:	b8 00 00 00 00       	mov    $0x0,%eax
    a36b:	0f b7 c0             	movzwl %ax,%eax
    a36e:	89 de                	mov    %ebx,%esi
    a370:	89 c7                	mov    %eax,%edi
    a372:	e8 47 ea ff ff       	callq  8dbe <safe_lshift_func_uint16_t_u_s>
    a377:	48 8b 85 38 f9 ff ff 	mov    -0x6c8(%rbp),%rax
    a37e:	8b 00                	mov    (%rax),%eax
    a380:	ba 06 00 00 00       	mov    $0x6,%edx
    a385:	39 d0                	cmp    %edx,%eax
    a387:	7c 13                	jl     a39c <func_4+0x7e4>
    a389:	0f b7 05 b1 47 01 00 	movzwl 0x147b1(%rip),%eax        # 1eb41 <g_431+0x8c1>
    a390:	66 85 c0             	test   %ax,%ax
    a393:	74 07                	je     a39c <func_4+0x7e4>
    a395:	ba 01 00 00 00       	mov    $0x1,%edx
    a39a:	eb 05                	jmp    a3a1 <func_4+0x7e9>
    a39c:	ba 00 00 00 00       	mov    $0x0,%edx
    a3a1:	48 8b 85 38 f9 ff ff 	mov    -0x6c8(%rbp),%rax
    a3a8:	89 10                	mov    %edx,(%rax)
    a3aa:	48 8b 85 38 f9 ff ff 	mov    -0x6c8(%rbp),%rax
    a3b1:	8b 00                	mov    (%rax),%eax
    a3b3:	85 c0                	test   %eax,%eax
    a3b5:	0f 84 80 07 00 00    	je     ab3b <func_4+0xf83>
    a3bb:	48 8d 85 70 fd ff ff 	lea    -0x290(%rbp),%rax
    a3c2:	48 8d 15 97 ec 00 00 	lea    0xec97(%rip),%rdx        # 19060 <g_386+0xc>
    a3c9:	b9 49 00 00 00       	mov    $0x49,%ecx
    a3ce:	48 89 c7             	mov    %rax,%rdi
    a3d1:	48 89 d6             	mov    %rdx,%rsi
    a3d4:	f3 48 a5             	rep movsq %ds:(%rsi),%es:(%rdi)
    a3d7:	48 89 f2             	mov    %rsi,%rdx
    a3da:	48 89 f8             	mov    %rdi,%rax
    a3dd:	8b 0a                	mov    (%rdx),%ecx
    a3df:	89 08                	mov    %ecx,(%rax)
    a3e1:	48 8d 40 04          	lea    0x4(%rax),%rax
    a3e5:	48 8d 52 04          	lea    0x4(%rdx),%rdx
    a3e9:	48 8d 05 e0 3c 01 00 	lea    0x13ce0(%rip),%rax        # 1e0d0 <g_96>
    a3f0:	48 89 85 70 f9 ff ff 	mov    %rax,-0x690(%rbp)
    a3f7:	48 8d 05 aa 74 01 00 	lea    0x174aa(%rip),%rax        # 218a8 <g_406>
    a3fe:	48 89 85 78 f9 ff ff 	mov    %rax,-0x688(%rbp)
    a405:	c7 85 c8 f8 ff ff 94 	movl   $0x5410f894,-0x738(%rbp)
    a40c:	f8 10 54 
    a40f:	c7 85 cc f8 ff ff 1f 	movl   $0x46e25c1f,-0x734(%rbp)
    a416:	5c e2 46 
    a419:	c7 85 ec f8 ff ff 00 	movl   $0x0,-0x714(%rbp)
    a420:	00 00 00 
    a423:	66 c7 85 c4 f8 ff ff 	movw   $0x50da,-0x73c(%rbp)
    a42a:	da 50 
    a42c:	48 8d 05 0d 54 01 00 	lea    0x1540d(%rip),%rax        # 1f840 <g_910>
    a433:	48 89 85 80 f9 ff ff 	mov    %rax,-0x680(%rbp)
    a43a:	48 c7 85 88 f9 ff ff 	movq   $0x0,-0x678(%rbp)
    a441:	00 00 00 00 
    a445:	48 8d 05 b4 7e 01 00 	lea    0x17eb4(%rip),%rax        # 22300 <g_1309>
    a44c:	48 89 85 18 f9 ff ff 	mov    %rax,-0x6e8(%rbp)
    a453:	c7 45 c1 46 46 46 46 	movl   $0x46464646,-0x3f(%rbp)
    a45a:	66 c7 45 c5 46 46    	movw   $0x4646,-0x3b(%rbp)
    a460:	c6 45 c7 46          	movb   $0x46,-0x39(%rbp)
    a464:	c6 85 bf f8 ff ff ff 	movb   $0xff,-0x741(%rbp)
    a46b:	66 c7 85 c6 f8 ff ff 	movw   $0x60df,-0x73a(%rbp)
    a472:	df 60 
    a474:	c7 85 d4 f8 ff ff 00 	movl   $0x0,-0x72c(%rbp)
    a47b:	00 00 00 
    a47e:	eb 1a                	jmp    a49a <func_4+0x8e2>
    a480:	8b 85 d4 f8 ff ff    	mov    -0x72c(%rbp),%eax
    a486:	48 98                	cltq   
    a488:	c7 84 85 10 fa ff ff 	movl   $0x0,-0x5f0(%rbp,%rax,4)
    a48f:	00 00 00 00 
    a493:	83 85 d4 f8 ff ff 01 	addl   $0x1,-0x72c(%rbp)
    a49a:	83 bd d4 f8 ff ff 04 	cmpl   $0x4,-0x72c(%rbp)
    a4a1:	7e dd                	jle    a480 <func_4+0x8c8>
    a4a3:	8b 9d a8 f8 ff ff    	mov    -0x758(%rbp),%ebx
    a4a9:	48 8b 85 a0 f8 ff ff 	mov    -0x760(%rbp),%rax
    a4b0:	44 0f be e0          	movsbl %al,%r12d
    a4b4:	8b 85 cc f8 ff ff    	mov    -0x734(%rbp),%eax
    a4ba:	44 0f bf e8          	movswl %ax,%r13d
    a4be:	48 8b 85 78 f9 ff ff 	mov    -0x688(%rbp),%rax
    a4c5:	48 8d 15 f4 51 01 00 	lea    0x151f4(%rip),%rdx        # 1f6c0 <g_439>
    a4cc:	48 89 10             	mov    %rdx,(%rax)
    a4cf:	48 8b 85 38 f9 ff ff 	mov    -0x6c8(%rbp),%rax
    a4d6:	8b 00                	mov    (%rax),%eax
    a4d8:	44 0f b7 f0          	movzwl %ax,%r14d
    a4dc:	48 8b 85 a0 f8 ff ff 	mov    -0x760(%rbp),%rax
    a4e3:	44 0f bf f8          	movswl %ax,%r15d
    a4e7:	be 91 d9 d6 9e       	mov    $0x9ed6d991,%esi
    a4ec:	bf 00 00 00 00       	mov    $0x0,%edi
    a4f1:	e8 da e9 ff ff       	callq  8ed0 <safe_sub_func_uint32_t_u_u>
    a4f6:	89 c1                	mov    %eax,%ecx
    a4f8:	8b 85 ec f8 ff ff    	mov    -0x714(%rbp),%eax
    a4fe:	8d 50 01             	lea    0x1(%rax),%edx
    a501:	89 95 ec f8 ff ff    	mov    %edx,-0x714(%rbp)
    a507:	89 85 1c fa ff ff    	mov    %eax,-0x5e4(%rbp)
    a50d:	8b 85 1c fa ff ff    	mov    -0x5e4(%rbp),%eax
    a513:	0f b7 c0             	movzwl %ax,%eax
    a516:	89 ce                	mov    %ecx,%esi
    a518:	89 c7                	mov    %eax,%edi
    a51a:	e8 5b e9 ff ff       	callq  8e7a <safe_rshift_func_uint16_t_u_u>
    a51f:	66 85 c0             	test   %ax,%ax
    a522:	0f 95 c0             	setne  %al
    a525:	0f b6 d0             	movzbl %al,%edx
    a528:	48 8b 05 f9 7b 01 00 	mov    0x17bf9(%rip),%rax        # 22128 <g_1057>
    a52f:	48 8b 00             	mov    (%rax),%rax
    a532:	0f b7 00             	movzwl (%rax),%eax
    a535:	98                   	cwtl   
    a536:	39 c2                	cmp    %eax,%edx
    a538:	0f 9e c0             	setle  %al
    a53b:	0f b6 c0             	movzbl %al,%eax
    a53e:	44 89 fe             	mov    %r15d,%esi
    a541:	89 c7                	mov    %eax,%edi
    a543:	e8 0d df ff ff       	callq  8455 <safe_div_func_int16_t_s_s>
    a548:	8b 85 50 fa ff ff    	mov    -0x5b0(%rbp),%eax
    a54e:	0f b7 c0             	movzwl %ax,%eax
    a551:	83 e0 01             	and    $0x1,%eax
    a554:	44 89 f6             	mov    %r14d,%esi
    a557:	89 c7                	mov    %eax,%edi
    a559:	e8 fe e7 ff ff       	callq  8d5c <safe_mod_func_uint16_t_u_u>
    a55e:	8b 05 6e 50 01 00    	mov    0x1506e(%rip),%eax        # 1f5d2 <g_436+0x12>
    a564:	89 c0                	mov    %eax,%eax
    a566:	48 39 85 a0 f8 ff ff 	cmp    %rax,-0x760(%rbp)
    a56d:	0f 97 c0             	seta   %al
    a570:	0f b6 d0             	movzbl %al,%edx
    a573:	0f b7 05 f1 4f 01 00 	movzwl 0x14ff1(%rip),%eax        # 1f56b <g_433+0xb>
    a57a:	0f b7 c0             	movzwl %ax,%eax
    a57d:	48 39 c2             	cmp    %rax,%rdx
    a580:	0f 95 c0             	setne  %al
    a583:	0f b6 c0             	movzbl %al,%eax
    a586:	48 c7 c6 f6 ff ff ff 	mov    $0xfffffffffffffff6,%rsi
    a58d:	48 89 c7             	mov    %rax,%rdi
    a590:	e8 13 e3 ff ff       	callq  88a8 <safe_sub_func_int64_t_s_s>
    a595:	48 85 c0             	test   %rax,%rax
    a598:	0f 9e c0             	setle  %al
    a59b:	0f b6 c0             	movzbl %al,%eax
    a59e:	be 01 00 00 00       	mov    $0x1,%esi
    a5a3:	89 c7                	mov    %eax,%edi
    a5a5:	e8 37 df ff ff       	callq  84e1 <safe_lshift_func_int16_t_s_u>
    a5aa:	48 8b 85 70 f9 ff ff 	mov    -0x690(%rbp),%rax
    a5b1:	48 8b 10             	mov    (%rax),%rdx
    a5b4:	8b 85 bc fd ff ff    	mov    -0x244(%rbp),%eax
    a5ba:	48 98                	cltq   
    a5bc:	48 31 c2             	xor    %rax,%rdx
    a5bf:	48 8b 85 70 f9 ff ff 	mov    -0x690(%rbp),%rax
    a5c6:	48 89 10             	mov    %rdx,(%rax)
    a5c9:	48 8b 85 70 f9 ff ff 	mov    -0x690(%rbp),%rax
    a5d0:	48 8b 00             	mov    (%rax),%rax
    a5d3:	48 83 f8 01          	cmp    $0x1,%rax
    a5d7:	0f 97 c0             	seta   %al
    a5da:	0f b6 c0             	movzbl %al,%eax
    a5dd:	be 04 00 00 00       	mov    $0x4,%esi
    a5e2:	89 c7                	mov    %eax,%edi
    a5e4:	e8 71 e5 ff ff       	callq  8b5a <safe_add_func_uint8_t_u_u>
    a5e9:	0f b6 c0             	movzbl %al,%eax
    a5ec:	be 0a 00 00 00       	mov    $0xa,%esi
    a5f1:	89 c7                	mov    %eax,%edi
    a5f3:	e8 82 e8 ff ff       	callq  8e7a <safe_rshift_func_uint16_t_u_u>
    a5f8:	98                   	cwtl   
    a5f9:	44 89 ee             	mov    %r13d,%esi
    a5fc:	89 c7                	mov    %eax,%edi
    a5fe:	e8 13 de ff ff       	callq  8416 <safe_mod_func_int16_t_s_s>
    a603:	0f be c0             	movsbl %al,%eax
    a606:	be 01 00 00 00       	mov    $0x1,%esi
    a60b:	89 c7                	mov    %eax,%edi
    a60d:	e8 e0 db ff ff       	callq  81f2 <safe_sub_func_int8_t_s_s>
    a612:	84 c0                	test   %al,%al
    a614:	75 12                	jne    a628 <func_4+0xa70>
    a616:	48 8b 05 0b 7b 01 00 	mov    0x17b0b(%rip),%rax        # 22128 <g_1057>
    a61d:	48 8b 00             	mov    (%rax),%rax
    a620:	0f b7 00             	movzwl (%rax),%eax
    a623:	66 85 c0             	test   %ax,%ax
    a626:	74 07                	je     a62f <func_4+0xa77>
    a628:	b8 01 00 00 00       	mov    $0x1,%eax
    a62d:	eb 05                	jmp    a634 <func_4+0xa7c>
    a62f:	b8 00 00 00 00       	mov    $0x0,%eax
    a634:	0f be c0             	movsbl %al,%eax
    a637:	44 89 e6             	mov    %r12d,%esi
    a63a:	89 c7                	mov    %eax,%edi
    a63c:	e8 d1 db ff ff       	callq  8212 <safe_mul_func_int8_t_s_s>
    a641:	89 de                	mov    %ebx,%esi
    a643:	bf 01 00 00 00       	mov    $0x1,%edi
    a648:	e8 71 e6 ff ff       	callq  8cbe <safe_rshift_func_uint8_t_u_u>
    a64d:	84 c0                	test   %al,%al
    a64f:	74 7b                	je     a6cc <func_4+0xb14>
    a651:	48 c7 85 98 f9 ff ff 	movq   $0x0,-0x668(%rbp)
    a658:	00 00 00 00 
    a65c:	48 c7 85 a0 f9 ff ff 	movq   $0x0,-0x660(%rbp)
    a663:	00 00 00 00 
    a667:	48 c7 85 30 f9 ff ff 	movq   $0x0,-0x6d0(%rbp)
    a66e:	00 00 00 00 
    a672:	48 8d 85 30 f9 ff ff 	lea    -0x6d0(%rbp),%rax
    a679:	48 89 85 a8 f9 ff ff 	mov    %rax,-0x658(%rbp)
    a680:	48 8b 1d 11 71 01 00 	mov    0x17111(%rip),%rbx        # 21798 <g_43>
    a687:	48 8d 85 d0 fa ff ff 	lea    -0x530(%rbp),%rax
    a68e:	48 83 c0 14          	add    $0x14,%rax
    a692:	48 89 c7             	mov    %rax,%rdi
    a695:	e8 29 07 00 00       	callq  adc3 <func_11>
    a69a:	48 89 03             	mov    %rax,(%rbx)
    a69d:	48 8d 85 cc f8 ff ff 	lea    -0x734(%rbp),%rax
    a6a4:	48 89 c7             	mov    %rax,%rdi
    a6a7:	e8 17 07 00 00       	callq  adc3 <func_11>
    a6ac:	48 8b 95 a8 f9 ff ff 	mov    -0x658(%rbp),%rdx
    a6b3:	48 89 02             	mov    %rax,(%rdx)
    a6b6:	48 8b 85 a8 f9 ff ff 	mov    -0x658(%rbp),%rax
    a6bd:	48 8b 00             	mov    (%rax),%rax
    a6c0:	48 89 05 49 7c 01 00 	mov    %rax,0x17c49(%rip)        # 22310 <g_1412>
    a6c7:	e9 fc 01 00 00       	jmpq   a8c8 <func_4+0xd10>
    a6cc:	48 8d 85 70 fa ff ff 	lea    -0x590(%rbp),%rax
    a6d3:	48 89 85 90 f9 ff ff 	mov    %rax,-0x670(%rbp)
    a6da:	48 8d 05 b7 50 01 00 	lea    0x150b7(%rip),%rax        # 1f798 <g_441+0x8>
    a6e1:	48 89 85 20 f9 ff ff 	mov    %rax,-0x6e0(%rbp)
    a6e8:	48 8d 85 20 f9 ff ff 	lea    -0x6e0(%rbp),%rax
    a6ef:	48 89 85 28 f9 ff ff 	mov    %rax,-0x6d8(%rbp)
    a6f6:	48 8d 85 28 f9 ff ff 	lea    -0x6d8(%rbp),%rax
    a6fd:	48 89 85 30 f9 ff ff 	mov    %rax,-0x6d0(%rbp)
    a704:	c7 85 d8 f8 ff ff 00 	movl   $0x0,-0x728(%rbp)
    a70b:	00 00 00 
    a70e:	eb 1e                	jmp    a72e <func_4+0xb76>
    a710:	8b 85 d8 f8 ff ff    	mov    -0x728(%rbp),%eax
    a716:	48 98                	cltq   
    a718:	48 8d 95 30 f9 ff ff 	lea    -0x6d0(%rbp),%rdx
    a71f:	48 89 94 c5 f8 f9 ff 	mov    %rdx,-0x608(%rbp,%rax,8)
    a726:	ff 
    a727:	83 85 d8 f8 ff ff 01 	addl   $0x1,-0x728(%rbp)
    a72e:	83 bd d8 f8 ff ff 00 	cmpl   $0x0,-0x728(%rbp)
    a735:	7e d9                	jle    a710 <func_4+0xb58>
    a737:	c7 85 d8 f8 ff ff 00 	movl   $0x0,-0x728(%rbp)
    a73e:	00 00 00 
    a741:	eb 1a                	jmp    a75d <func_4+0xba5>
    a743:	8b 85 d8 f8 ff ff    	mov    -0x728(%rbp),%eax
    a749:	48 98                	cltq   
    a74b:	c7 84 85 c0 fb ff ff 	movl   $0xffffffff,-0x440(%rbp,%rax,4)
    a752:	ff ff ff ff 
    a756:	83 85 d8 f8 ff ff 01 	addl   $0x1,-0x728(%rbp)
    a75d:	83 bd d8 f8 ff ff 04 	cmpl   $0x4,-0x728(%rbp)
    a764:	7e dd                	jle    a743 <func_4+0xb8b>
    a766:	c7 85 d8 f8 ff ff 00 	movl   $0x0,-0x728(%rbp)
    a76d:	00 00 00 
    a770:	eb 1e                	jmp    a790 <func_4+0xbd8>
    a772:	8b 85 d8 f8 ff ff    	mov    -0x728(%rbp),%eax
    a778:	48 98                	cltq   
    a77a:	48 8d 15 1b 39 01 00 	lea    0x1391b(%rip),%rdx        # 1e09c <g_23+0x1c>
    a781:	48 89 94 c5 b0 fa ff 	mov    %rdx,-0x550(%rbp,%rax,8)
    a788:	ff 
    a789:	83 85 d8 f8 ff ff 01 	addl   $0x1,-0x728(%rbp)
    a790:	83 bd d8 f8 ff ff 00 	cmpl   $0x0,-0x728(%rbp)
    a797:	7e d9                	jle    a772 <func_4+0xbba>
    a799:	48 8b 95 80 fa ff ff 	mov    -0x580(%rbp),%rdx
    a7a0:	48 8b 85 90 f9 ff ff 	mov    -0x670(%rbp),%rax
    a7a7:	48 89 10             	mov    %rdx,(%rax)
    a7aa:	66 c7 05 36 4e 01 00 	movw   $0xfff2,0x14e36(%rip)        # 1f5e9 <g_437+0x9>
    a7b1:	f2 ff 
    a7b3:	90                   	nop
    a7b4:	0f b7 05 2e 4e 01 00 	movzwl 0x14e2e(%rip),%eax        # 1f5e9 <g_437+0x9>
    a7bb:	66 83 f8 32          	cmp    $0x32,%ax
    a7bf:	0f 84 fb 00 00 00    	je     a8c0 <func_4+0xd08>
    a7c5:	8b 85 a8 f8 ff ff    	mov    -0x758(%rbp),%eax
    a7cb:	48 63 d8             	movslq %eax,%rbx
    a7ce:	48 8b 85 a0 f8 ff ff 	mov    -0x760(%rbp),%rax
    a7d5:	0f b6 d0             	movzbl %al,%edx
    a7d8:	48 8b 85 38 f9 ff ff 	mov    -0x6c8(%rbp),%rax
    a7df:	8b 00                	mov    (%rax),%eax
    a7e1:	33 85 a8 f8 ff ff    	xor    -0x758(%rbp),%eax
    a7e7:	3d 81 57 5e 7a       	cmp    $0x7a5e5781,%eax
    a7ec:	0f 9f c0             	setg   %al
    a7ef:	0f b6 c0             	movzbl %al,%eax
    a7f2:	89 d6                	mov    %edx,%esi
    a7f4:	89 c7                	mov    %eax,%edi
    a7f6:	e8 98 e3 ff ff       	callq  8b93 <safe_mul_func_uint8_t_u_u>
    a7fb:	8b 95 c0 fb ff ff    	mov    -0x440(%rbp),%edx
    a801:	48 8b 85 38 f9 ff ff 	mov    -0x6c8(%rbp),%rax
    a808:	8b 00                	mov    (%rax),%eax
    a80a:	23 85 a8 f8 ff ff    	and    -0x758(%rbp),%eax
    a810:	39 c2                	cmp    %eax,%edx
    a812:	0f 95 c0             	setne  %al
    a815:	0f b6 c0             	movzbl %al,%eax
    a818:	39 85 ec f8 ff ff    	cmp    %eax,-0x714(%rbp)
    a81e:	0f 96 c0             	setbe  %al
    a821:	0f b6 d0             	movzbl %al,%edx
    a824:	48 8b 85 40 f9 ff ff 	mov    -0x6c0(%rbp),%rax
    a82b:	48 89 10             	mov    %rdx,(%rax)
    a82e:	48 8b 85 40 f9 ff ff 	mov    -0x6c0(%rbp),%rax
    a835:	48 8b 00             	mov    (%rax),%rax
    a838:	48 89 de             	mov    %rbx,%rsi
    a83b:	48 89 c7             	mov    %rax,%rdi
    a83e:	e8 b4 e1 ff ff       	callq  89f7 <safe_div_func_int64_t_s_s>
    a843:	48 be e7 49 8f 54 30 	movabs $0x5392c330548f49e7,%rsi
    a84a:	c3 92 53 
    a84d:	bf 00 00 00 00       	mov    $0x0,%edi
    a852:	e8 29 e8 ff ff       	callq  9080 <safe_mod_func_uint64_t_u_u>
    a857:	48 8b 05 42 6f 01 00 	mov    0x16f42(%rip),%rax        # 217a0 <g_110>
    a85e:	0f b7 00             	movzwl (%rax),%eax
    a861:	48 8b 85 f8 f9 ff ff 	mov    -0x608(%rbp),%rax
    a868:	48 85 c0             	test   %rax,%rax
    a86b:	0f 95 c0             	setne  %al
    a86e:	0f b6 d0             	movzbl %al,%edx
    a871:	8b 85 a8 f8 ff ff    	mov    -0x758(%rbp),%eax
    a877:	83 f0 01             	xor    $0x1,%eax
    a87a:	89 c1                	mov    %eax,%ecx
    a87c:	0f b6 05 85 4f 01 00 	movzbl 0x14f85(%rip),%eax        # 1f808 <g_780+0x8>
    a883:	0f b6 c0             	movzbl %al,%eax
    a886:	39 c1                	cmp    %eax,%ecx
    a888:	0f 9e c0             	setle  %al
    a88b:	0f b6 c0             	movzbl %al,%eax
    a88e:	39 85 a8 f8 ff ff    	cmp    %eax,-0x758(%rbp)
    a894:	0f 9f c0             	setg   %al
    a897:	0f b6 c0             	movzbl %al,%eax
    a89a:	39 c2                	cmp    %eax,%edx
    a89c:	0f 9c c0             	setl   %al
    a89f:	0f b6 d0             	movzbl %al,%edx
    a8a2:	48 8b 05 ef 6e 01 00 	mov    0x16eef(%rip),%rax        # 21798 <g_43>
    a8a9:	48 8b 00             	mov    (%rax),%rax
    a8ac:	0b 95 a8 f8 ff ff    	or     -0x758(%rbp),%edx
    a8b2:	89 10                	mov    %edx,(%rax)
    a8b4:	48 8b 85 a0 f8 ff ff 	mov    -0x760(%rbp),%rax
    a8bb:	e9 a3 04 00 00       	jmpq   ad63 <func_4+0x11ab>
    a8c0:	66 83 85 c4 f8 ff ff 	addw   $0x1,-0x73c(%rbp)
    a8c7:	01 
    a8c8:	c6 05 c9 83 01 00 00 	movb   $0x0,0x183c9(%rip)        # 22c98 <g_1120>
    a8cf:	e9 f2 01 00 00       	jmpq   aac6 <func_4+0xf0e>
    a8d4:	48 8d 05 09 38 01 00 	lea    0x13809(%rip),%rax        # 1e0e4 <g_130>
    a8db:	48 89 85 b0 f9 ff ff 	mov    %rax,-0x650(%rbp)
    a8e2:	48 8d 05 cb 37 01 00 	lea    0x137cb(%rip),%rax        # 1e0b4 <g_23+0x34>
    a8e9:	48 89 85 b8 f9 ff ff 	mov    %rax,-0x648(%rbp)
    a8f0:	48 8d 85 10 fa ff ff 	lea    -0x5f0(%rbp),%rax
    a8f7:	48 89 85 c0 f9 ff ff 	mov    %rax,-0x640(%rbp)
    a8fe:	48 8d 85 50 fa ff ff 	lea    -0x5b0(%rbp),%rax
    a905:	48 89 85 c8 f9 ff ff 	mov    %rax,-0x638(%rbp)
    a90c:	c7 85 f0 f8 ff ff 26 	movl   $0xc92d7c26,-0x710(%rbp)
    a913:	7c 2d c9 
    a916:	48 8d 05 af 38 01 00 	lea    0x138af(%rip),%rax        # 1e1cc <g_374>
    a91d:	48 89 85 d0 f9 ff ff 	mov    %rax,-0x630(%rbp)
    a924:	48 c7 85 30 f9 ff ff 	movq   $0x0,-0x6d0(%rbp)
    a92b:	00 00 00 00 
    a92f:	48 8d 85 30 f9 ff ff 	lea    -0x6d0(%rbp),%rax
    a936:	48 89 85 d8 f9 ff ff 	mov    %rax,-0x628(%rbp)
    a93d:	48 8d 85 10 f9 ff ff 	lea    -0x6f0(%rbp),%rax
    a944:	48 89 85 e0 f9 ff ff 	mov    %rax,-0x620(%rbp)
    a94b:	c7 85 f4 f8 ff ff ff 	movl   $0xffffffff,-0x70c(%rbp)
    a952:	ff ff ff 
    a955:	48 b8 1d ba fd 35 e3 	movabs $0x4a35e7e335fdba1d,%rax
    a95c:	e7 35 4a 
    a95f:	48 89 85 e8 f9 ff ff 	mov    %rax,-0x618(%rbp)
    a966:	48 8d 85 f8 f8 ff ff 	lea    -0x708(%rbp),%rax
    a96d:	48 89 85 f0 f9 ff ff 	mov    %rax,-0x610(%rbp)
    a974:	c7 85 dc f8 ff ff 00 	movl   $0x0,-0x724(%rbp)
    a97b:	00 00 00 
    a97e:	e9 80 00 00 00       	jmpq   aa03 <func_4+0xe4b>
    a983:	c7 85 e0 f8 ff ff 00 	movl   $0x0,-0x720(%rbp)
    a98a:	00 00 00 
    a98d:	eb 64                	jmp    a9f3 <func_4+0xe3b>
    a98f:	c7 85 e4 f8 ff ff 00 	movl   $0x0,-0x71c(%rbp)
    a996:	00 00 00 
    a999:	eb 48                	jmp    a9e3 <func_4+0xe2b>
    a99b:	8b 85 e4 f8 ff ff    	mov    -0x71c(%rbp),%eax
    a9a1:	48 63 c8             	movslq %eax,%rcx
    a9a4:	8b 85 dc f8 ff ff    	mov    -0x724(%rbp),%eax
    a9aa:	48 63 d0             	movslq %eax,%rdx
    a9ad:	8b 85 e0 f8 ff ff    	mov    -0x720(%rbp),%eax
    a9b3:	48 63 f0             	movslq %eax,%rsi
    a9b6:	48 89 d0             	mov    %rdx,%rax
    a9b9:	48 01 c0             	add    %rax,%rax
    a9bc:	48 01 d0             	add    %rdx,%rax
    a9bf:	48 01 c0             	add    %rax,%rax
    a9c2:	48 01 f0             	add    %rsi,%rax
    a9c5:	48 c1 e0 02          	shl    $0x2,%rax
    a9c9:	48 8d 14 08          	lea    (%rax,%rcx,1),%rdx
    a9cd:	48 8d 85 c8 f8 ff ff 	lea    -0x738(%rbp),%rax
    a9d4:	48 89 84 d5 c0 fb ff 	mov    %rax,-0x440(%rbp,%rdx,8)
    a9db:	ff 
    a9dc:	83 85 e4 f8 ff ff 01 	addl   $0x1,-0x71c(%rbp)
    a9e3:	83 bd e4 f8 ff ff 03 	cmpl   $0x3,-0x71c(%rbp)
    a9ea:	7e af                	jle    a99b <func_4+0xde3>
    a9ec:	83 85 e0 f8 ff ff 01 	addl   $0x1,-0x720(%rbp)
    a9f3:	83 bd e0 f8 ff ff 05 	cmpl   $0x5,-0x720(%rbp)
    a9fa:	7e 93                	jle    a98f <func_4+0xdd7>
    a9fc:	83 85 dc f8 ff ff 01 	addl   $0x1,-0x724(%rbp)
    aa03:	83 bd dc f8 ff ff 00 	cmpl   $0x0,-0x724(%rbp)
    aa0a:	0f 8e 73 ff ff ff    	jle    a983 <func_4+0xdcb>
    aa10:	c7 85 dc f8 ff ff 00 	movl   $0x0,-0x724(%rbp)
    aa17:	00 00 00 
    aa1a:	eb 1e                	jmp    aa3a <func_4+0xe82>
    aa1c:	8b 85 dc f8 ff ff    	mov    -0x724(%rbp),%eax
    aa22:	48 98                	cltq   
    aa24:	48 8d 15 fd 4e 01 00 	lea    0x14efd(%rip),%rdx        # 1f928 <g_1369>
    aa2b:	48 89 94 c5 b0 fa ff 	mov    %rdx,-0x550(%rbp,%rax,8)
    aa32:	ff 
    aa33:	83 85 dc f8 ff ff 01 	addl   $0x1,-0x724(%rbp)
    aa3a:	83 bd dc f8 ff ff 02 	cmpl   $0x2,-0x724(%rbp)
    aa41:	7e d9                	jle    aa1c <func_4+0xe64>
    aa43:	48 8b 85 38 f9 ff ff 	mov    -0x6c8(%rbp),%rax
    aa4a:	8b 10                	mov    (%rax),%edx
    aa4c:	0f b6 05 45 82 01 00 	movzbl 0x18245(%rip),%eax        # 22c98 <g_1120>
    aa53:	0f be c0             	movsbl %al,%eax
    aa56:	83 c0 03             	add    $0x3,%eax
    aa59:	48 98                	cltq   
    aa5b:	8b 8c 85 50 fa ff ff 	mov    -0x5b0(%rbp,%rax,4),%ecx
    aa62:	48 83 bd 48 f9 ff ff 	cmpq   $0x0,-0x6b8(%rbp)
    aa69:	00 
    aa6a:	74 21                	je     aa8d <func_4+0xed5>
    aa6c:	0f b6 05 25 82 01 00 	movzbl 0x18225(%rip),%eax        # 22c98 <g_1120>
    aa73:	0f be c0             	movsbl %al,%eax
    aa76:	83 c0 03             	add    $0x3,%eax
    aa79:	48 98                	cltq   
    aa7b:	8b 84 85 50 fa ff ff 	mov    -0x5b0(%rbp,%rax,4),%eax
    aa82:	85 c0                	test   %eax,%eax
    aa84:	74 07                	je     aa8d <func_4+0xed5>
    aa86:	b8 01 00 00 00       	mov    $0x1,%eax
    aa8b:	eb 05                	jmp    aa92 <func_4+0xeda>
    aa8d:	b8 00 00 00 00       	mov    $0x0,%eax
    aa92:	21 c8                	and    %ecx,%eax
    aa94:	21 c2                	and    %eax,%edx
    aa96:	48 8b 85 38 f9 ff ff 	mov    -0x6c8(%rbp),%rax
    aa9d:	89 10                	mov    %edx,(%rax)
    aa9f:	48 8b 05 f2 6c 01 00 	mov    0x16cf2(%rip),%rax        # 21798 <g_43>
    aaa6:	48 8b 00             	mov    (%rax),%rax
    aaa9:	c7 00 07 dd 63 4f    	movl   $0x4f63dd07,(%rax)
    aaaf:	80 85 bd f8 ff ff 01 	addb   $0x1,-0x743(%rbp)
    aab6:	0f b6 05 db 81 01 00 	movzbl 0x181db(%rip),%eax        # 22c98 <g_1120>
    aabd:	83 c0 01             	add    $0x1,%eax
    aac0:	88 05 d2 81 01 00    	mov    %al,0x181d2(%rip)        # 22c98 <g_1120>
    aac6:	0f b6 05 cb 81 01 00 	movzbl 0x181cb(%rip),%eax        # 22c98 <g_1120>
    aacd:	84 c0                	test   %al,%al
    aacf:	0f 8e ff fd ff ff    	jle    a8d4 <func_4+0xd1c>
    aad5:	c6 05 7c 4d 01 00 00 	movb   $0x0,0x14d7c(%rip)        # 1f858 <g_924+0x8>
    aadc:	eb 4d                	jmp    ab2b <func_4+0xf73>
    aade:	be 06 00 00 00       	mov    $0x6,%esi
    aae3:	bf 01 00 00 00       	mov    $0x1,%edi
    aae8:	e8 18 e1 ff ff       	callq  8c05 <safe_lshift_func_uint8_t_u_s>
    aaed:	84 c0                	test   %al,%al
    aaef:	74 11                	je     ab02 <func_4+0xf4a>
    aaf1:	66 83 bd c6 f8 ff ff 	cmpw   $0x0,-0x73a(%rbp)
    aaf8:	00 
    aaf9:	74 07                	je     ab02 <func_4+0xf4a>
    aafb:	b9 01 00 00 00       	mov    $0x1,%ecx
    ab00:	eb 05                	jmp    ab07 <func_4+0xf4f>
    ab02:	b9 00 00 00 00       	mov    $0x0,%ecx
    ab07:	48 8b 05 82 6c 01 00 	mov    0x16c82(%rip),%rax        # 21790 <g_44>
    ab0e:	8b 10                	mov    (%rax),%edx
    ab10:	48 8b 05 79 6c 01 00 	mov    0x16c79(%rip),%rax        # 21790 <g_44>
    ab17:	09 ca                	or     %ecx,%edx
    ab19:	89 10                	mov    %edx,(%rax)
    ab1b:	0f b6 05 36 4d 01 00 	movzbl 0x14d36(%rip),%eax        # 1f858 <g_924+0x8>
    ab22:	83 c0 01             	add    $0x1,%eax
    ab25:	88 05 2d 4d 01 00    	mov    %al,0x14d2d(%rip)        # 1f858 <g_924+0x8>
    ab2b:	0f b6 05 26 4d 01 00 	movzbl 0x14d26(%rip),%eax        # 1f858 <g_924+0x8>
    ab32:	3c 0f                	cmp    $0xf,%al
    ab34:	75 a8                	jne    aade <func_4+0xf26>
    ab36:	e9 20 02 00 00       	jmpq   ad5b <func_4+0x11a3>
    ab3b:	48 8d 05 4a 36 01 00 	lea    0x1364a(%rip),%rax        # 1e18c <g_231+0x6c>
    ab42:	48 89 85 50 f9 ff ff 	mov    %rax,-0x6b0(%rbp)
    ab49:	48 8d 05 10 35 01 00 	lea    0x13510(%rip),%rax        # 1e060 <g_14+0x20>
    ab50:	48 89 85 58 f9 ff ff 	mov    %rax,-0x6a8(%rbp)
    ab57:	48 8d 05 2a 4d 01 00 	lea    0x14d2a(%rip),%rax        # 1f888 <g_1104>
    ab5e:	48 89 85 60 f9 ff ff 	mov    %rax,-0x6a0(%rbp)
    ab65:	48 8b 85 38 f9 ff ff 	mov    -0x6c8(%rbp),%rax
    ab6c:	8b 10                	mov    (%rax),%edx
    ab6e:	48 8b 85 38 f9 ff ff 	mov    -0x6c8(%rbp),%rax
    ab75:	89 10                	mov    %edx,(%rax)
    ab77:	48 8b 85 38 f9 ff ff 	mov    -0x6c8(%rbp),%rax
    ab7e:	8b 10                	mov    (%rax),%edx
    ab80:	48 8b 85 50 f9 ff ff 	mov    -0x6b0(%rbp),%rax
    ab87:	8b 00                	mov    (%rax),%eax
    ab89:	31 c2                	xor    %eax,%edx
    ab8b:	48 8b 85 50 f9 ff ff 	mov    -0x6b0(%rbp),%rax
    ab92:	89 10                	mov    %edx,(%rax)
    ab94:	48 8d 85 10 f9 ff ff 	lea    -0x6f0(%rbp),%rax
    ab9b:	48 89 85 58 fb ff ff 	mov    %rax,-0x4a8(%rbp)
    aba2:	48 8b 85 a0 f8 ff ff 	mov    -0x760(%rbp),%rax
    aba9:	89 c2                	mov    %eax,%edx
    abab:	48 8b 85 50 f9 ff ff 	mov    -0x6b0(%rbp),%rax
    abb2:	89 10                	mov    %edx,(%rax)
    abb4:	66 c7 05 8e 49 01 00 	movw   $0x17,0x1498e(%rip)        # 1f54b <g_432+0xb>
    abbb:	17 00 
    abbd:	e9 88 01 00 00       	jmpq   ad4a <func_4+0x1192>
    abc2:	66 c7 85 c2 f8 ff ff 	movw   $0x0,-0x73e(%rbp)
    abc9:	00 00 
    abcb:	c6 05 a6 4c 01 00 17 	movb   $0x17,0x14ca6(%rip)        # 1f878 <g_1081+0x8>
    abd2:	eb 1f                	jmp    abf3 <func_4+0x103b>
    abd4:	48 8b 85 50 f9 ff ff 	mov    -0x6b0(%rbp),%rax
    abdb:	8b 95 a8 f8 ff ff    	mov    -0x758(%rbp),%edx
    abe1:	89 10                	mov    %edx,(%rax)
    abe3:	0f b6 05 8e 4c 01 00 	movzbl 0x14c8e(%rip),%eax        # 1f878 <g_1081+0x8>
    abea:	83 c0 01             	add    $0x1,%eax
    abed:	88 05 85 4c 01 00    	mov    %al,0x14c85(%rip)        # 1f878 <g_1081+0x8>
    abf3:	0f b6 05 7e 4c 01 00 	movzbl 0x14c7e(%rip),%eax        # 1f878 <g_1081+0x8>
    abfa:	3c 3a                	cmp    $0x3a,%al
    abfc:	75 d6                	jne    abd4 <func_4+0x101c>
    abfe:	c7 85 a8 f8 ff ff e3 	movl   $0xffffffe3,-0x758(%rbp)
    ac05:	ff ff ff 
    ac08:	e9 12 01 00 00       	jmpq   ad1f <func_4+0x1167>
    ac0d:	48 8d 85 50 fa ff ff 	lea    -0x5b0(%rbp),%rax
    ac14:	48 83 c0 08          	add    $0x8,%rax
    ac18:	48 89 85 68 f9 ff ff 	mov    %rax,-0x698(%rbp)
    ac1f:	48 8d 05 1a 34 01 00 	lea    0x1341a(%rip),%rax        # 1e040 <g_14>
    ac26:	48 89 85 70 fd ff ff 	mov    %rax,-0x290(%rbp)
    ac2d:	48 8d 05 0c 34 01 00 	lea    0x1340c(%rip),%rax        # 1e040 <g_14>
    ac34:	48 89 85 78 fd ff ff 	mov    %rax,-0x288(%rbp)
    ac3b:	48 8d 05 fe 33 01 00 	lea    0x133fe(%rip),%rax        # 1e040 <g_14>
    ac42:	48 89 85 80 fd ff ff 	mov    %rax,-0x280(%rbp)
    ac49:	48 8d 05 f0 33 01 00 	lea    0x133f0(%rip),%rax        # 1e040 <g_14>
    ac50:	48 89 85 88 fd ff ff 	mov    %rax,-0x278(%rbp)
    ac57:	48 8d 05 e2 33 01 00 	lea    0x133e2(%rip),%rax        # 1e040 <g_14>
    ac5e:	48 89 85 90 fd ff ff 	mov    %rax,-0x270(%rbp)
    ac65:	48 8d 85 d0 fa ff ff 	lea    -0x530(%rbp),%rax
    ac6c:	48 83 c0 14          	add    $0x14,%rax
    ac70:	48 89 85 98 fd ff ff 	mov    %rax,-0x268(%rbp)
    ac77:	48 8d 85 d0 fa ff ff 	lea    -0x530(%rbp),%rax
    ac7e:	48 83 c0 14          	add    $0x14,%rax
    ac82:	48 89 85 a0 fd ff ff 	mov    %rax,-0x260(%rbp)
    ac89:	48 8d 85 d0 fa ff ff 	lea    -0x530(%rbp),%rax
    ac90:	48 83 c0 14          	add    $0x14,%rax
    ac94:	48 89 85 a8 fd ff ff 	mov    %rax,-0x258(%rbp)
    ac9b:	48 8d 85 d0 fa ff ff 	lea    -0x530(%rbp),%rax
    aca2:	48 83 c0 14          	add    $0x14,%rax
    aca6:	48 89 85 b0 fd ff ff 	mov    %rax,-0x250(%rbp)
    acad:	48 8d 85 d0 fa ff ff 	lea    -0x530(%rbp),%rax
    acb4:	48 83 c0 14          	add    $0x14,%rax
    acb8:	48 89 85 b8 fd ff ff 	mov    %rax,-0x248(%rbp)
    acbf:	48 8d 05 7a 33 01 00 	lea    0x1337a(%rip),%rax        # 1e040 <g_14>
    acc6:	48 89 85 c0 fd ff ff 	mov    %rax,-0x240(%rbp)
    accd:	48 8d 05 6c 33 01 00 	lea    0x1336c(%rip),%rax        # 1e040 <g_14>
    acd4:	48 89 85 c8 fd ff ff 	mov    %rax,-0x238(%rbp)
    acdb:	48 8d 05 5e 33 01 00 	lea    0x1335e(%rip),%rax        # 1e040 <g_14>
    ace2:	48 89 85 d0 fd ff ff 	mov    %rax,-0x230(%rbp)
    ace9:	48 8d 05 50 33 01 00 	lea    0x13350(%rip),%rax        # 1e040 <g_14>
    acf0:	48 89 85 d8 fd ff ff 	mov    %rax,-0x228(%rbp)
    acf7:	48 8d 05 42 33 01 00 	lea    0x13342(%rip),%rax        # 1e040 <g_14>
    acfe:	48 89 85 e0 fd ff ff 	mov    %rax,-0x220(%rbp)
    ad05:	8b 85 a8 f8 ff ff    	mov    -0x758(%rbp),%eax
    ad0b:	98                   	cwtl   
    ad0c:	be 09 00 00 00       	mov    $0x9,%esi
    ad11:	89 c7                	mov    %eax,%edi
    ad13:	e8 9b d6 ff ff       	callq  83b3 <safe_add_func_int16_t_s_s>
    ad18:	98                   	cwtl   
    ad19:	89 85 a8 f8 ff ff    	mov    %eax,-0x758(%rbp)
    ad1f:	83 bd a8 f8 ff ff e9 	cmpl   $0xffffffe9,-0x758(%rbp)
    ad26:	0f 85 e1 fe ff ff    	jne    ac0d <func_4+0x1055>
    ad2c:	0f b7 05 18 48 01 00 	movzwl 0x14818(%rip),%eax        # 1f54b <g_432+0xb>
    ad33:	0f b7 c0             	movzwl %ax,%eax
    ad36:	be 01 00 00 00       	mov    $0x1,%esi
    ad3b:	48 89 c7             	mov    %rax,%rdi
    ad3e:	e8 fe da ff ff       	callq  8841 <safe_add_func_int64_t_s_s>
    ad43:	66 89 05 01 48 01 00 	mov    %ax,0x14801(%rip)        # 1f54b <g_432+0xb>
    ad4a:	0f b7 05 fa 47 01 00 	movzwl 0x147fa(%rip),%eax        # 1f54b <g_432+0xb>
    ad51:	66 83 f8 20          	cmp    $0x20,%ax
    ad55:	0f 86 67 fe ff ff    	jbe    abc2 <func_4+0x100a>
    ad5b:	66 0f be 85 ac f8 ff 	movsbw -0x754(%rbp),%ax
    ad62:	ff 
    ad63:	48 8b 5d c8          	mov    -0x38(%rbp),%rbx
    ad67:	64 48 33 1c 25 28 00 	xor    %fs:0x28,%rbx
    ad6e:	00 00 
    ad70:	74 05                	je     ad77 <func_4+0x11bf>
    ad72:	e8 f9 d2 ff ff       	callq  8070 <__stack_chk_fail@plt>
    ad77:	48 81 c4 38 07 00 00 	add    $0x738,%rsp
    ad7e:	5b                   	pop    %rbx
    ad7f:	41 5c                	pop    %r12
    ad81:	41 5d                	pop    %r13
    ad83:	41 5e                	pop    %r14
    ad85:	41 5f                	pop    %r15
    ad87:	5d                   	pop    %rbp
    ad88:	c3                   	retq   

000000000000ad89 <func_8>:
    ad89:	f3 0f 1e fa          	endbr64 
    ad8d:	55                   	push   %rbp
    ad8e:	48 89 e5             	mov    %rsp,%rbp
    ad91:	53                   	push   %rbx
    ad92:	48 83 ec 28          	sub    $0x28,%rsp
    ad96:	89 7d dc             	mov    %edi,-0x24(%rbp)
    ad99:	c7 45 ec 01 00 00 00 	movl   $0x1,-0x14(%rbp)
    ada0:	48 8b 05 c9 69 01 00 	mov    0x169c9(%rip),%rax        # 21770 <g_13+0x10>
    ada7:	48 8b 1d da 69 01 00 	mov    0x169da(%rip),%rbx        # 21788 <g_24>
    adae:	48 89 c7             	mov    %rax,%rdi
    adb1:	e8 0d 00 00 00       	callq  adc3 <func_11>
    adb6:	48 89 03             	mov    %rax,(%rbx)
    adb9:	8b 45 ec             	mov    -0x14(%rbp),%eax
    adbc:	48 83 c4 28          	add    $0x28,%rsp
    adc0:	5b                   	pop    %rbx
    adc1:	5d                   	pop    %rbp
    adc2:	c3                   	retq   

000000000000adc3 <func_11>:
    adc3:	f3 0f 1e fa          	endbr64 
    adc7:	55                   	push   %rbp
    adc8:	48 89 e5             	mov    %rsp,%rbp
    adcb:	48 83 ec 50          	sub    $0x50,%rsp
    adcf:	48 89 7d b8          	mov    %rdi,-0x48(%rbp)
    add3:	64 48 8b 04 25 28 00 	mov    %fs:0x28,%rax
    adda:	00 00 
    addc:	48 89 45 f8          	mov    %rax,-0x8(%rbp)
    ade0:	31 c0                	xor    %eax,%eax
    ade2:	c7 45 d0 08 00 00 00 	movl   $0x8,-0x30(%rbp)
    ade9:	c7 45 d4 03 00 00 00 	movl   $0x3,-0x2c(%rbp)
    adf0:	c7 45 d8 08 00 00 00 	movl   $0x8,-0x28(%rbp)
    adf7:	c7 45 dc 03 00 00 00 	movl   $0x3,-0x24(%rbp)
    adfe:	c7 45 e0 08 00 00 00 	movl   $0x8,-0x20(%rbp)
    ae05:	c7 45 e4 03 00 00 00 	movl   $0x3,-0x1c(%rbp)
    ae0c:	c7 45 e8 08 00 00 00 	movl   $0x8,-0x18(%rbp)
    ae13:	c7 45 ec 03 00 00 00 	movl   $0x3,-0x14(%rbp)
    ae1a:	48 8d 05 43 32 01 00 	lea    0x13243(%rip),%rax        # 1e064 <g_19>
    ae21:	48 89 45 c0          	mov    %rax,-0x40(%rbp)
    ae25:	48 8d 05 84 32 01 00 	lea    0x13284(%rip),%rax        # 1e0b0 <g_23+0x30>
    ae2c:	48 89 45 c8          	mov    %rax,-0x38(%rbp)
    ae30:	bf 04 00 00 00       	mov    $0x4,%edi
    ae35:	e8 85 d3 ff ff       	callq  81bf <safe_unary_minus_func_int8_t_s>
    ae3a:	84 c0                	test   %al,%al
    ae3c:	0f 94 c0             	sete   %al
    ae3f:	0f b6 d0             	movzbl %al,%edx
    ae42:	48 8b 45 c0          	mov    -0x40(%rbp),%rax
    ae46:	66 89 10             	mov    %dx,(%rax)
    ae49:	8b 45 dc             	mov    -0x24(%rbp),%eax
    ae4c:	0f be c0             	movsbl %al,%eax
    ae4f:	89 c7                	mov    %eax,%edi
    ae51:	e8 69 d3 ff ff       	callq  81bf <safe_unary_minus_func_int8_t_s>
    ae56:	0f be c0             	movsbl %al,%eax
    ae59:	f7 d0                	not    %eax
    ae5b:	89 c2                	mov    %eax,%edx
    ae5d:	48 8b 45 b8          	mov    -0x48(%rbp),%rax
    ae61:	8b 00                	mov    (%rax),%eax
    ae63:	31 c2                	xor    %eax,%edx
    ae65:	48 8b 45 b8          	mov    -0x48(%rbp),%rax
    ae69:	89 10                	mov    %edx,(%rax)
    ae6b:	48 8b 45 b8          	mov    -0x48(%rbp),%rax
    ae6f:	8b 10                	mov    (%rax),%edx
    ae71:	48 8b 45 c8          	mov    -0x38(%rbp),%rax
    ae75:	89 10                	mov    %edx,(%rax)
    ae77:	48 8b 45 c8          	mov    -0x38(%rbp),%rax
    ae7b:	48 8b 4d f8          	mov    -0x8(%rbp),%rcx
    ae7f:	64 48 33 0c 25 28 00 	xor    %fs:0x28,%rcx
    ae86:	00 00 
    ae88:	74 05                	je     ae8f <func_11+0xcc>
    ae8a:	e8 e1 d1 ff ff       	callq  8070 <__stack_chk_fail@plt>
    ae8f:	c9                   	leaveq 
    ae90:	c3                   	retq   

000000000000ae91 <func_33>:
    ae91:	f3 0f 1e fa          	endbr64 
    ae95:	55                   	push   %rbp
    ae96:	48 89 e5             	mov    %rsp,%rbp
    ae99:	41 57                	push   %r15
    ae9b:	41 56                	push   %r14
    ae9d:	41 55                	push   %r13
    ae9f:	41 54                	push   %r12
    aea1:	53                   	push   %rbx
    aea2:	48 81 ec 58 0b 00 00 	sub    $0xb58,%rsp
    aea9:	89 f8                	mov    %edi,%eax
    aeab:	66 89 85 9c f4 ff ff 	mov    %ax,-0xb64(%rbp)
    aeb2:	64 48 8b 04 25 28 00 	mov    %fs:0x28,%rax
    aeb9:	00 00 
    aebb:	48 89 45 c8          	mov    %rax,-0x38(%rbp)
    aebf:	31 c0                	xor    %eax,%eax
    aec1:	c7 85 0c f5 ff ff 42 	movl   $0x11e1ce42,-0xaf4(%rbp)
    aec8:	ce e1 11 
    aecb:	48 8d 05 fa 32 01 00 	lea    0x132fa(%rip),%rax        # 1e1cc <g_374>
    aed2:	48 89 85 28 f6 ff ff 	mov    %rax,-0x9d8(%rbp)
    aed9:	48 8d 05 5c 49 01 00 	lea    0x1495c(%rip),%rax        # 1f83c <g_836>
    aee0:	48 89 85 c8 f5 ff ff 	mov    %rax,-0xa38(%rbp)
    aee7:	c7 85 b4 f4 ff ff 01 	movl   $0x1,-0xb4c(%rbp)
    aeee:	00 00 00 
    aef1:	c7 85 b8 f4 ff ff ff 	movl   $0xffffffff,-0xb48(%rbp)
    aef8:	ff ff ff 
    aefb:	c7 85 bc f4 ff ff 29 	movl   $0x36aa1129,-0xb44(%rbp)
    af02:	11 aa 36 
    af05:	c7 85 c0 f4 ff ff ff 	movl   $0xffffffff,-0xb40(%rbp)
    af0c:	ff ff ff 
    af0f:	48 8d 05 4a 2e 01 00 	lea    0x12e4a(%rip),%rax        # 1dd60 <g_259>
    af16:	48 89 85 20 f8 ff ff 	mov    %rax,-0x7e0(%rbp)
    af1d:	48 8d 05 3c 2e 01 00 	lea    0x12e3c(%rip),%rax        # 1dd60 <g_259>
    af24:	48 89 85 28 f8 ff ff 	mov    %rax,-0x7d8(%rbp)
    af2b:	48 8d 05 2e 2e 01 00 	lea    0x12e2e(%rip),%rax        # 1dd60 <g_259>
    af32:	48 89 85 30 f8 ff ff 	mov    %rax,-0x7d0(%rbp)
    af39:	48 8d 05 20 2e 01 00 	lea    0x12e20(%rip),%rax        # 1dd60 <g_259>
    af40:	48 89 85 38 f8 ff ff 	mov    %rax,-0x7c8(%rbp)
    af47:	48 8d 05 fa 45 01 00 	lea    0x145fa(%rip),%rax        # 1f548 <g_432+0x8>
    af4e:	48 89 85 d0 f5 ff ff 	mov    %rax,-0xa30(%rbp)
    af55:	48 b8 b4 a8 c3 1a 80 	movabs $0xde0740801ac3a8b4,%rax
    af5c:	40 07 de 
    af5f:	48 89 85 d8 f5 ff ff 	mov    %rax,-0xa28(%rbp)
    af66:	c7 85 10 f5 ff ff 06 	movl   $0xc88f8706,-0xaf0(%rbp)
    af6d:	87 8f c8 
    af70:	48 8d 05 79 48 01 00 	lea    0x14879(%rip),%rax        # 1f7f0 <g_743>
    af77:	48 89 85 30 f6 ff ff 	mov    %rax,-0x9d0(%rbp)
    af7e:	c7 85 e8 f4 ff ff ff 	movl   $0xffffffff,-0xb18(%rbp)
    af85:	ff ff ff 
    af88:	c7 85 14 f5 ff ff 8e 	movl   $0x35cec28e,-0xaec(%rbp)
    af8f:	c2 ce 35 
    af92:	c7 85 18 f5 ff ff 2e 	movl   $0xe7f7a72e,-0xae8(%rbp)
    af99:	a7 f7 e7 
    af9c:	c7 85 60 f7 ff ff 26 	movl   $0xe92a3826,-0x8a0(%rbp)
    afa3:	38 2a e9 
    afa6:	c7 85 64 f7 ff ff 26 	movl   $0xe92a3826,-0x89c(%rbp)
    afad:	38 2a e9 
    afb0:	c7 85 68 f7 ff ff 26 	movl   $0xe92a3826,-0x898(%rbp)
    afb7:	38 2a e9 
    afba:	c7 85 6c f7 ff ff 26 	movl   $0xe92a3826,-0x894(%rbp)
    afc1:	38 2a e9 
    afc4:	c7 85 70 f7 ff ff 26 	movl   $0xe92a3826,-0x890(%rbp)
    afcb:	38 2a e9 
    afce:	66 c7 85 ac f4 ff ff 	movw   $0x1b05,-0xb54(%rbp)
    afd5:	05 1b 
    afd7:	c6 85 a5 f4 ff ff ff 	movb   $0xff,-0xb5b(%rbp)
    afde:	48 8d 85 d0 f5 ff ff 	lea    -0xa30(%rbp),%rax
    afe5:	48 89 85 e0 f5 ff ff 	mov    %rax,-0xa20(%rbp)
    afec:	48 8d 85 e0 f5 ff ff 	lea    -0xa20(%rbp),%rax
    aff3:	48 89 85 e8 f5 ff ff 	mov    %rax,-0xa18(%rbp)
    affa:	c7 85 e0 f4 ff ff 00 	movl   $0x0,-0xb20(%rbp)
    b001:	00 00 00 
    b004:	eb 4e                	jmp    b054 <func_33+0x1c3>
    b006:	c7 85 e4 f4 ff ff 00 	movl   $0x0,-0xb1c(%rbp)
    b00d:	00 00 00 
    b010:	eb 32                	jmp    b044 <func_33+0x1b3>
    b012:	8b 85 e4 f4 ff ff    	mov    -0xb1c(%rbp),%eax
    b018:	48 63 c8             	movslq %eax,%rcx
    b01b:	8b 85 e0 f4 ff ff    	mov    -0xb20(%rbp),%eax
    b021:	48 63 d0             	movslq %eax,%rdx
    b024:	48 89 d0             	mov    %rdx,%rax
    b027:	48 c1 e0 02          	shl    $0x2,%rax
    b02b:	48 01 d0             	add    %rdx,%rax
    b02e:	48 01 c8             	add    %rcx,%rax
    b031:	48 c7 84 c5 d0 f9 ff 	movq   $0x0,-0x630(%rbp,%rax,8)
    b038:	ff 00 00 00 00 
    b03d:	83 85 e4 f4 ff ff 01 	addl   $0x1,-0xb1c(%rbp)
    b044:	83 bd e4 f4 ff ff 04 	cmpl   $0x4,-0xb1c(%rbp)
    b04b:	7e c5                	jle    b012 <func_33+0x181>
    b04d:	83 85 e0 f4 ff ff 01 	addl   $0x1,-0xb20(%rbp)
    b054:	83 bd e0 f4 ff ff 07 	cmpl   $0x7,-0xb20(%rbp)
    b05b:	7e a9                	jle    b006 <func_33+0x175>
    b05d:	c7 85 e0 f4 ff ff 00 	movl   $0x0,-0xb20(%rbp)
    b064:	00 00 00 
    b067:	eb 1e                	jmp    b087 <func_33+0x1f6>
    b069:	8b 85 e0 f4 ff ff    	mov    -0xb20(%rbp),%eax
    b06f:	48 98                	cltq   
    b071:	48 8d 15 50 30 01 00 	lea    0x13050(%rip),%rdx        # 1e0c8 <g_45>
    b078:	48 89 94 c5 80 f7 ff 	mov    %rdx,-0x880(%rbp,%rax,8)
    b07f:	ff 
    b080:	83 85 e0 f4 ff ff 01 	addl   $0x1,-0xb20(%rbp)
    b087:	83 bd e0 f4 ff ff 02 	cmpl   $0x2,-0xb20(%rbp)
    b08e:	7e d9                	jle    b069 <func_33+0x1d8>
    b090:	0f b7 85 9c f4 ff ff 	movzwl -0xb64(%rbp),%eax
    b097:	0f b7 d8             	movzwl %ax,%ebx
    b09a:	8b 85 0c f5 ff ff    	mov    -0xaf4(%rbp),%eax
    b0a0:	0f b6 c0             	movzbl %al,%eax
    b0a3:	be 04 00 00 00       	mov    $0x4,%esi
    b0a8:	89 c7                	mov    %eax,%edi
    b0aa:	e8 9d db ff ff       	callq  8c4c <safe_lshift_func_uint8_t_u_u>
    b0af:	f7 d0                	not    %eax
    b0b1:	41 89 c6             	mov    %eax,%r14d
    b0b4:	8b 85 0c f5 ff ff    	mov    -0xaf4(%rbp),%eax
    b0ba:	4c 63 e0             	movslq %eax,%r12
    b0bd:	48 83 bd 28 f6 ff ff 	cmpq   $0x0,-0x9d8(%rbp)
    b0c4:	00 
    b0c5:	0f 95 c0             	setne  %al
    b0c8:	44 0f b6 e8          	movzbl %al,%r13d
    b0cc:	0f b7 85 9c f4 ff ff 	movzwl -0xb64(%rbp),%eax
    b0d3:	66 85 c0             	test   %ax,%ax
    b0d6:	74 6b                	je     b143 <func_33+0x2b2>
    b0d8:	8b 85 0c f5 ff ff    	mov    -0xaf4(%rbp),%eax
    b0de:	89 c2                	mov    %eax,%edx
    b0e0:	0f b6 05 81 47 01 00 	movzbl 0x14781(%rip),%eax        # 1f868 <g_941>
    b0e7:	21 d0                	and    %edx,%eax
    b0e9:	88 05 79 47 01 00    	mov    %al,0x14779(%rip)        # 1f868 <g_941>
    b0ef:	0f b7 85 9c f4 ff ff 	movzwl -0xb64(%rbp),%eax
    b0f6:	66 83 f8 01          	cmp    $0x1,%ax
    b0fa:	0f 96 c0             	setbe  %al
    b0fd:	0f b6 d0             	movzbl %al,%edx
    b100:	8b 85 b4 f4 ff ff    	mov    -0xb4c(%rbp),%eax
    b106:	09 d0                	or     %edx,%eax
    b108:	89 85 b4 f4 ff ff    	mov    %eax,-0xb4c(%rbp)
    b10e:	0f b7 85 9c f4 ff ff 	movzwl -0xb64(%rbp),%eax
    b115:	89 c2                	mov    %eax,%edx
    b117:	8b 85 0c f5 ff ff    	mov    -0xaf4(%rbp),%eax
    b11d:	21 d0                	and    %edx,%eax
    b11f:	0f be c0             	movsbl %al,%eax
    b122:	48 8b 95 c8 f5 ff ff 	mov    -0xa38(%rbp),%rdx
    b129:	c6 02 01             	movb   $0x1,(%rdx)
    b12c:	89 c6                	mov    %eax,%esi
    b12e:	bf 00 00 00 00       	mov    $0x0,%edi
    b133:	e8 9c d0 ff ff       	callq  81d4 <safe_add_func_int8_t_s_s>
    b138:	3c ff                	cmp    $0xff,%al
    b13a:	7d 07                	jge    b143 <func_33+0x2b2>
    b13c:	b8 01 00 00 00       	mov    $0x1,%eax
    b141:	eb 05                	jmp    b148 <func_33+0x2b7>
    b143:	b8 00 00 00 00       	mov    $0x0,%eax
    b148:	3b 85 0c f5 ff ff    	cmp    -0xaf4(%rbp),%eax
    b14e:	0f 9e c0             	setle  %al
    b151:	0f b6 c0             	movzbl %al,%eax
    b154:	44 89 ea             	mov    %r13d,%edx
    b157:	31 c2                	xor    %eax,%edx
    b159:	8b 85 b8 f4 ff ff    	mov    -0xb48(%rbp),%eax
    b15f:	21 d0                	and    %edx,%eax
    b161:	89 85 b8 f4 ff ff    	mov    %eax,-0xb48(%rbp)
    b167:	8b 85 b8 f4 ff ff    	mov    -0xb48(%rbp),%eax
    b16d:	48 98                	cltq   
    b16f:	4c 89 e6             	mov    %r12,%rsi
    b172:	48 89 c7             	mov    %rax,%rdi
    b175:	e8 35 df ff ff       	callq  90af <safe_div_func_uint64_t_u_u>
    b17a:	8b 85 0c f5 ff ff    	mov    -0xaf4(%rbp),%eax
    b180:	83 f0 01             	xor    $0x1,%eax
    b183:	48 98                	cltq   
    b185:	89 c2                	mov    %eax,%edx
    b187:	8b 85 bc f4 ff ff    	mov    -0xb44(%rbp),%eax
    b18d:	21 d0                	and    %edx,%eax
    b18f:	89 85 bc f4 ff ff    	mov    %eax,-0xb44(%rbp)
    b195:	8b 85 bc f4 ff ff    	mov    -0xb44(%rbp),%eax
    b19b:	48 98                	cltq   
    b19d:	48 be fe be 68 1c 34 	movabs $0x6689b8341c68befe,%rsi
    b1a4:	b8 89 66 
    b1a7:	48 89 c7             	mov    %rax,%rdi
    b1aa:	e8 05 d8 ff ff       	callq  89b4 <safe_mod_func_int64_t_s_s>
    b1af:	44 21 f0             	and    %r14d,%eax
    b1b2:	0f b6 c0             	movzbl %al,%eax
    b1b5:	89 de                	mov    %ebx,%esi
    b1b7:	89 c7                	mov    %eax,%edi
    b1b9:	e8 8e da ff ff       	callq  8c4c <safe_lshift_func_uint8_t_u_u>
    b1be:	0f b7 85 9c f4 ff ff 	movzwl -0xb64(%rbp),%eax
    b1c5:	0f b7 c0             	movzwl %ax,%eax
    b1c8:	39 85 0c f5 ff ff    	cmp    %eax,-0xaf4(%rbp)
    b1ce:	0f 8f d2 02 00 00    	jg     b4a6 <func_33+0x615>
    b1d4:	48 c7 85 70 f6 ff ff 	movq   $0x7,-0x990(%rbp)
    b1db:	07 00 00 00 
    b1df:	48 c7 85 78 f6 ff ff 	movq   $0x0,-0x988(%rbp)
    b1e6:	00 00 00 00 
    b1ea:	c7 85 1c f5 ff ff f3 	movl   $0x192a2ff3,-0xae4(%rbp)
    b1f1:	2f 2a 19 
    b1f4:	48 c7 85 10 fb ff ff 	movq   $0x0,-0x4f0(%rbp)
    b1fb:	00 00 00 00 
    b1ff:	48 8d 05 52 2f 01 00 	lea    0x12f52(%rip),%rax        # 1e158 <g_231+0x38>
    b206:	48 89 85 18 fb ff ff 	mov    %rax,-0x4e8(%rbp)
    b20d:	48 8d 05 78 2f 01 00 	lea    0x12f78(%rip),%rax        # 1e18c <g_231+0x6c>
    b214:	48 89 85 20 fb ff ff 	mov    %rax,-0x4e0(%rbp)
    b21b:	48 8d 05 6a 2f 01 00 	lea    0x12f6a(%rip),%rax        # 1e18c <g_231+0x6c>
    b222:	48 89 85 28 fb ff ff 	mov    %rax,-0x4d8(%rbp)
    b229:	48 8d 05 5c 2f 01 00 	lea    0x12f5c(%rip),%rax        # 1e18c <g_231+0x6c>
    b230:	48 89 85 30 fb ff ff 	mov    %rax,-0x4d0(%rbp)
    b237:	48 8d 85 b4 f4 ff ff 	lea    -0xb4c(%rbp),%rax
    b23e:	48 89 85 38 fb ff ff 	mov    %rax,-0x4c8(%rbp)
    b245:	48 8d 05 04 2f 01 00 	lea    0x12f04(%rip),%rax        # 1e150 <g_231+0x30>
    b24c:	48 89 85 40 fb ff ff 	mov    %rax,-0x4c0(%rbp)
    b253:	48 8d 85 b4 f4 ff ff 	lea    -0xb4c(%rbp),%rax
    b25a:	48 89 85 48 fb ff ff 	mov    %rax,-0x4b8(%rbp)
    b261:	48 8d 85 b4 f4 ff ff 	lea    -0xb4c(%rbp),%rax
    b268:	48 89 85 50 fb ff ff 	mov    %rax,-0x4b0(%rbp)
    b26f:	48 8d 85 b4 f4 ff ff 	lea    -0xb4c(%rbp),%rax
    b276:	48 89 85 58 fb ff ff 	mov    %rax,-0x4a8(%rbp)
    b27d:	48 c7 85 60 fb ff ff 	movq   $0x0,-0x4a0(%rbp)
    b284:	00 00 00 00 
    b288:	48 8d 05 fd 2e 01 00 	lea    0x12efd(%rip),%rax        # 1e18c <g_231+0x6c>
    b28f:	48 89 85 68 fb ff ff 	mov    %rax,-0x498(%rbp)
    b296:	48 8d 05 bb 2e 01 00 	lea    0x12ebb(%rip),%rax        # 1e158 <g_231+0x38>
    b29d:	48 89 85 70 fb ff ff 	mov    %rax,-0x490(%rbp)
    b2a4:	48 8d 05 ad 2e 01 00 	lea    0x12ead(%rip),%rax        # 1e158 <g_231+0x38>
    b2ab:	48 89 85 78 fb ff ff 	mov    %rax,-0x488(%rbp)
    b2b2:	48 8d 05 d3 2e 01 00 	lea    0x12ed3(%rip),%rax        # 1e18c <g_231+0x6c>
    b2b9:	48 89 85 80 fb ff ff 	mov    %rax,-0x480(%rbp)
    b2c0:	48 8d 05 d5 2e 01 00 	lea    0x12ed5(%rip),%rax        # 1e19c <g_231+0x7c>
    b2c7:	48 89 85 88 fb ff ff 	mov    %rax,-0x478(%rbp)
    b2ce:	48 8d 85 b4 f4 ff ff 	lea    -0xb4c(%rbp),%rax
    b2d5:	48 89 85 90 fb ff ff 	mov    %rax,-0x470(%rbp)
    b2dc:	48 8d 05 e5 2d 01 00 	lea    0x12de5(%rip),%rax        # 1e0c8 <g_45>
    b2e3:	48 89 85 98 fb ff ff 	mov    %rax,-0x468(%rbp)
    b2ea:	48 8d 85 b4 f4 ff ff 	lea    -0xb4c(%rbp),%rax
    b2f1:	48 89 85 a0 fb ff ff 	mov    %rax,-0x460(%rbp)
    b2f8:	48 8d 05 9d 2e 01 00 	lea    0x12e9d(%rip),%rax        # 1e19c <g_231+0x7c>
    b2ff:	48 89 85 a8 fb ff ff 	mov    %rax,-0x458(%rbp)
    b306:	48 8d 05 7f 2e 01 00 	lea    0x12e7f(%rip),%rax        # 1e18c <g_231+0x6c>
    b30d:	48 89 85 b0 fb ff ff 	mov    %rax,-0x450(%rbp)
    b314:	48 8d 05 3d 2e 01 00 	lea    0x12e3d(%rip),%rax        # 1e158 <g_231+0x38>
    b31b:	48 89 85 b8 fb ff ff 	mov    %rax,-0x448(%rbp)
    b322:	48 8d 05 2f 2e 01 00 	lea    0x12e2f(%rip),%rax        # 1e158 <g_231+0x38>
    b329:	48 89 85 c0 fb ff ff 	mov    %rax,-0x440(%rbp)
    b330:	48 8d 05 55 2e 01 00 	lea    0x12e55(%rip),%rax        # 1e18c <g_231+0x6c>
    b337:	48 89 85 c8 fb ff ff 	mov    %rax,-0x438(%rbp)
    b33e:	48 c7 85 d0 fb ff ff 	movq   $0x0,-0x430(%rbp)
    b345:	00 00 00 00 
    b349:	48 8d 85 b4 f4 ff ff 	lea    -0xb4c(%rbp),%rax
    b350:	48 89 85 d8 fb ff ff 	mov    %rax,-0x428(%rbp)
    b357:	48 8d 85 b4 f4 ff ff 	lea    -0xb4c(%rbp),%rax
    b35e:	48 89 85 e0 fb ff ff 	mov    %rax,-0x420(%rbp)
    b365:	48 8d 85 b4 f4 ff ff 	lea    -0xb4c(%rbp),%rax
    b36c:	48 89 85 e8 fb ff ff 	mov    %rax,-0x418(%rbp)
    b373:	48 8d 05 d6 2d 01 00 	lea    0x12dd6(%rip),%rax        # 1e150 <g_231+0x30>
    b37a:	48 89 85 f0 fb ff ff 	mov    %rax,-0x410(%rbp)
    b381:	48 8d 85 b4 f4 ff ff 	lea    -0xb4c(%rbp),%rax
    b388:	48 89 85 f8 fb ff ff 	mov    %rax,-0x408(%rbp)
    b38f:	48 8d 05 f6 2d 01 00 	lea    0x12df6(%rip),%rax        # 1e18c <g_231+0x6c>
    b396:	48 89 85 00 fc ff ff 	mov    %rax,-0x400(%rbp)
    b39d:	48 8d 05 e8 2d 01 00 	lea    0x12de8(%rip),%rax        # 1e18c <g_231+0x6c>
    b3a4:	48 89 85 08 fc ff ff 	mov    %rax,-0x3f8(%rbp)
    b3ab:	48 8d 05 da 2d 01 00 	lea    0x12dda(%rip),%rax        # 1e18c <g_231+0x6c>
    b3b2:	48 89 85 10 fc ff ff 	mov    %rax,-0x3f0(%rbp)
    b3b9:	48 8d 05 98 2d 01 00 	lea    0x12d98(%rip),%rax        # 1e158 <g_231+0x38>
    b3c0:	48 89 85 18 fc ff ff 	mov    %rax,-0x3e8(%rbp)
    b3c7:	48 c7 85 20 fc ff ff 	movq   $0x0,-0x3e0(%rbp)
    b3ce:	00 00 00 00 
    b3d2:	0f b7 85 9c f4 ff ff 	movzwl -0xb64(%rbp),%eax
    b3d9:	0f b7 d8             	movzwl %ax,%ebx
    b3dc:	8b 85 c0 f4 ff ff    	mov    -0xb40(%rbp),%eax
    b3e2:	98                   	cwtl   
    b3e3:	be 01 00 00 00       	mov    $0x1,%esi
    b3e8:	89 c7                	mov    %eax,%edi
    b3ea:	e8 e4 cf ff ff       	callq  83d3 <safe_sub_func_int16_t_s_s>
    b3ef:	48 0f bf c0          	movswq %ax,%rax
    b3f3:	48 89 85 70 f6 ff ff 	mov    %rax,-0x990(%rbp)
    b3fa:	48 8b 85 70 f6 ff ff 	mov    -0x990(%rbp),%rax
    b401:	48 c7 c6 ff ff ff ff 	mov    $0xffffffffffffffff,%rsi
    b408:	48 89 c7             	mov    %rax,%rdi
    b40b:	e8 a4 d5 ff ff       	callq  89b4 <safe_mod_func_int64_t_s_s>
    b410:	0f b7 05 a6 43 01 00 	movzwl 0x143a6(%rip),%eax        # 1f7bd <g_442+0xd>
    b417:	0f b7 c0             	movzwl %ax,%eax
    b41a:	f7 d0                	not    %eax
    b41c:	89 de                	mov    %ebx,%esi
    b41e:	89 c7                	mov    %eax,%edi
    b420:	e8 93 da ff ff       	callq  8eb8 <safe_add_func_uint32_t_u_u>
    b425:	89 85 1c f5 ff ff    	mov    %eax,-0xae4(%rbp)
    b42b:	83 bd 1c f5 ff ff 00 	cmpl   $0x0,-0xae4(%rbp)
    b432:	74 11                	je     b445 <func_33+0x5b4>
    b434:	8b 05 06 44 01 00    	mov    0x14406(%rip),%eax        # 1f840 <g_910>
    b43a:	85 c0                	test   %eax,%eax
    b43c:	74 07                	je     b445 <func_33+0x5b4>
    b43e:	b8 01 00 00 00       	mov    $0x1,%eax
    b443:	eb 05                	jmp    b44a <func_33+0x5b9>
    b445:	b8 00 00 00 00       	mov    $0x0,%eax
    b44a:	48 98                	cltq   
    b44c:	be 00 00 00 00       	mov    $0x0,%esi
    b451:	48 89 c7             	mov    %rax,%rdi
    b454:	e8 f2 db ff ff       	callq  904b <safe_sub_func_uint64_t_u_u>
    b459:	0f b7 c0             	movzwl %ax,%eax
    b45c:	89 c7                	mov    %eax,%edi
    b45e:	e8 86 d8 ff ff       	callq  8ce9 <safe_unary_minus_func_uint16_t_u>
    b463:	48 8b 85 c8 f5 ff ff 	mov    -0xa38(%rbp),%rax
    b46a:	48 85 c0             	test   %rax,%rax
    b46d:	0f 95 c0             	setne  %al
    b470:	0f b6 c0             	movzbl %al,%eax
    b473:	be 01 00 00 00       	mov    $0x1,%esi
    b478:	89 c7                	mov    %eax,%edi
    b47a:	e8 e4 d0 ff ff       	callq  8563 <safe_rshift_func_int16_t_s_u>
    b47f:	98                   	cwtl   
    b480:	89 05 5e 2c 01 00    	mov    %eax,0x12c5e(%rip)        # 1e0e4 <g_130>
    b486:	66 c7 05 7a 2d 01 00 	movw   $0x0,0x12d7a(%rip)        # 1e209 <g_427+0x9>
    b48d:	00 00 
    b48f:	90                   	nop
    b490:	0f b7 05 72 2d 01 00 	movzwl 0x12d72(%rip),%eax        # 1e209 <g_427+0x9>
    b497:	66 83 f8 11          	cmp    $0x11,%ax
    b49b:	0f 85 a0 01 00 00    	jne    b641 <func_33+0x7b0>
    b4a1:	e9 b4 01 00 00       	jmpq   b65a <func_33+0x7c9>
    b4a6:	48 c7 85 38 f6 ff ff 	movq   $0x0,-0x9c8(%rbp)
    b4ad:	00 00 00 00 
    b4b1:	48 8d 05 2c 2c 01 00 	lea    0x12c2c(%rip),%rax        # 1e0e4 <g_130>
    b4b8:	48 89 85 40 f6 ff ff 	mov    %rax,-0x9c0(%rbp)
    b4bf:	48 8d 85 10 fb ff ff 	lea    -0x4f0(%rbp),%rax
    b4c6:	48 8d 15 73 44 01 00 	lea    0x14473(%rip),%rdx        # 1f940 <g_1685+0xa>
    b4cd:	b9 96 00 00 00       	mov    $0x96,%ecx
    b4d2:	48 89 c7             	mov    %rax,%rdi
    b4d5:	48 89 d6             	mov    %rdx,%rsi
    b4d8:	f3 48 a5             	rep movsq %ds:(%rsi),%es:(%rdi)
    b4db:	48 c7 85 48 f6 ff ff 	movq   $0x0,-0x9b8(%rbp)
    b4e2:	00 00 00 00 
    b4e6:	48 c7 85 50 f6 ff ff 	movq   $0x0,-0x9b0(%rbp)
    b4ed:	00 00 00 00 
    b4f1:	48 c7 85 58 f6 ff ff 	movq   $0x0,-0x9a8(%rbp)
    b4f8:	00 00 00 00 
    b4fc:	48 8d 05 c5 2c 01 00 	lea    0x12cc5(%rip),%rax        # 1e1c8 <g_331>
    b503:	48 89 85 60 f6 ff ff 	mov    %rax,-0x9a0(%rbp)
    b50a:	48 8d 05 c7 2b 01 00 	lea    0x12bc7(%rip),%rax        # 1e0d8 <g_105>
    b511:	48 89 85 68 f6 ff ff 	mov    %rax,-0x998(%rbp)
    b518:	0f b7 85 9c f4 ff ff 	movzwl -0xb64(%rbp),%eax
    b51f:	0f be d8             	movsbl %al,%ebx
    b522:	0f b7 85 9c f4 ff ff 	movzwl -0xb64(%rbp),%eax
    b529:	44 0f b7 e0          	movzwl %ax,%r12d
    b52d:	48 8b 85 60 f6 ff ff 	mov    -0x9a0(%rbp),%rax
    b534:	0f b7 10             	movzwl (%rax),%edx
    b537:	48 8b 85 a8 fd ff ff 	mov    -0x258(%rbp),%rax
    b53e:	48 85 c0             	test   %rax,%rax
    b541:	0f 95 c0             	setne  %al
    b544:	0f b6 c0             	movzbl %al,%eax
    b547:	21 c2                	and    %eax,%edx
    b549:	48 8b 85 60 f6 ff ff 	mov    -0x9a0(%rbp),%rax
    b550:	66 89 10             	mov    %dx,(%rax)
    b553:	48 8b 85 60 f6 ff ff 	mov    -0x9a0(%rbp),%rax
    b55a:	0f b7 00             	movzwl (%rax),%eax
    b55d:	0f b7 c0             	movzwl %ax,%eax
    b560:	89 c6                	mov    %eax,%esi
    b562:	bf 01 00 00 00       	mov    $0x1,%edi
    b567:	e8 d1 d7 ff ff       	callq  8d3d <safe_mul_func_uint16_t_u_u>
    b56c:	0f b7 d0             	movzwl %ax,%edx
    b56f:	48 8b 85 40 f6 ff ff 	mov    -0x9c0(%rbp),%rax
    b576:	8b 00                	mov    (%rax),%eax
    b578:	39 c2                	cmp    %eax,%edx
    b57a:	0f 9f c0             	setg   %al
    b57d:	0f b6 c0             	movzbl %al,%eax
    b580:	be 00 00 00 00       	mov    $0x0,%esi
    b585:	89 c7                	mov    %eax,%edi
    b587:	e8 79 d6 ff ff       	callq  8c05 <safe_lshift_func_uint8_t_u_s>
    b58c:	84 c0                	test   %al,%al
    b58e:	74 12                	je     b5a2 <func_33+0x711>
    b590:	0f b6 05 41 42 01 00 	movzbl 0x14241(%rip),%eax        # 1f7d8 <g_443+0x8>
    b597:	84 c0                	test   %al,%al
    b599:	74 07                	je     b5a2 <func_33+0x711>
    b59b:	b8 01 00 00 00       	mov    $0x1,%eax
    b5a0:	eb 05                	jmp    b5a7 <func_33+0x716>
    b5a2:	b8 00 00 00 00       	mov    $0x0,%eax
    b5a7:	0f b7 c0             	movzwl %ax,%eax
    b5aa:	44 89 e6             	mov    %r12d,%esi
    b5ad:	89 c7                	mov    %eax,%edi
    b5af:	e8 89 d7 ff ff       	callq  8d3d <safe_mul_func_uint16_t_u_u>
    b5b4:	0f b7 85 9c f4 ff ff 	movzwl -0xb64(%rbp),%eax
    b5bb:	0f be c0             	movsbl %al,%eax
    b5be:	89 de                	mov    %ebx,%esi
    b5c0:	89 c7                	mov    %eax,%edi
    b5c2:	e8 4b cc ff ff       	callq  8212 <safe_mul_func_int8_t_s_s>
    b5c7:	0f be c0             	movsbl %al,%eax
    b5ca:	be 01 00 00 00       	mov    $0x1,%esi
    b5cf:	89 c7                	mov    %eax,%edi
    b5d1:	e8 0b cf ff ff       	callq  84e1 <safe_lshift_func_int16_t_s_u>
    b5d6:	f7 d0                	not    %eax
    b5d8:	66 c1 e8 0f          	shr    $0xf,%ax
    b5dc:	0f b6 c0             	movzbl %al,%eax
    b5df:	be 03 00 00 00       	mov    $0x3,%esi
    b5e4:	89 c7                	mov    %eax,%edi
    b5e6:	e8 5d d8 ff ff       	callq  8e48 <safe_rshift_func_uint16_t_u_s>
    b5eb:	0f b6 c0             	movzbl %al,%eax
    b5ee:	48 8d 95 9c f4 ff ff 	lea    -0xb64(%rbp),%rdx
    b5f5:	48 89 95 38 f6 ff ff 	mov    %rdx,-0x9c8(%rbp)
    b5fc:	89 c6                	mov    %eax,%esi
    b5fe:	bf 01 00 00 00       	mov    $0x1,%edi
    b603:	e8 8b d5 ff ff       	callq  8b93 <safe_mul_func_uint8_t_u_u>
    b608:	0f b6 c0             	movzbl %al,%eax
    b60b:	be 08 00 00 00       	mov    $0x8,%esi
    b610:	89 c7                	mov    %eax,%edi
    b612:	e8 ef d7 ff ff       	callq  8e06 <safe_lshift_func_uint16_t_u_u>
    b617:	0f b7 d0             	movzwl %ax,%edx
    b61a:	48 8b 85 40 f6 ff ff 	mov    -0x9c0(%rbp),%rax
    b621:	89 10                	mov    %edx,(%rax)
    b623:	48 8b 85 40 f6 ff ff 	mov    -0x9c0(%rbp),%rax
    b62a:	8b 10                	mov    (%rax),%edx
    b62c:	48 8b 85 68 f6 ff ff 	mov    -0x998(%rbp),%rax
    b633:	89 10                	mov    %edx,(%rax)
    b635:	0f b7 05 d4 2a 01 00 	movzwl 0x12ad4(%rip),%eax        # 1e110 <g_226>
    b63c:	e9 23 29 00 00       	jmpq   df64 <func_33+0x30d3>
    b641:	0f b7 85 9c f4 ff ff 	movzwl -0xb64(%rbp),%eax
    b648:	66 85 c0             	test   %ax,%ax
    b64b:	75 0c                	jne    b659 <func_33+0x7c8>
    b64d:	0f b7 85 9c f4 ff ff 	movzwl -0xb64(%rbp),%eax
    b654:	e9 0b 29 00 00       	jmpq   df64 <func_33+0x30d3>
    b659:	90                   	nop
    b65a:	0f b7 85 9c f4 ff ff 	movzwl -0xb64(%rbp),%eax
    b661:	0f be d8             	movsbl %al,%ebx
    b664:	0f b6 05 a4 2b 01 00 	movzbl 0x12ba4(%rip),%eax        # 1e20f <g_427+0xf>
    b66b:	0f b7 15 9e 2b 01 00 	movzwl 0x12b9e(%rip),%edx        # 1e210 <g_427+0x10>
    b672:	81 e2 ff 7f 00 00    	and    $0x7fff,%edx
    b678:	48 c1 e2 08          	shl    $0x8,%rdx
    b67c:	48 09 d0             	or     %rdx,%rax
    b67f:	48 c1 e0 29          	shl    $0x29,%rax
    b683:	48 c1 f8 29          	sar    $0x29,%rax
    b687:	85 c0                	test   %eax,%eax
    b689:	0f 85 8d 00 00 00    	jne    b71c <func_33+0x88b>
    b68f:	0f b7 85 9c f4 ff ff 	movzwl -0xb64(%rbp),%eax
    b696:	0f b7 c0             	movzwl %ax,%eax
    b699:	c1 e0 09             	shl    $0x9,%eax
    b69c:	c1 f8 09             	sar    $0x9,%eax
    b69f:	89 c2                	mov    %eax,%edx
    b6a1:	0f b6 ca             	movzbl %dl,%ecx
    b6a4:	0f b6 15 c4 3e 01 00 	movzbl 0x13ec4(%rip),%edx        # 1f56f <g_433+0xf>
    b6ab:	83 e2 00             	and    $0x0,%edx
    b6ae:	09 ca                	or     %ecx,%edx
    b6b0:	88 15 b9 3e 01 00    	mov    %dl,0x13eb9(%rip)        # 1f56f <g_433+0xf>
    b6b6:	89 c2                	mov    %eax,%edx
    b6b8:	c1 ea 08             	shr    $0x8,%edx
    b6bb:	89 d2                	mov    %edx,%edx
    b6bd:	0f b6 ca             	movzbl %dl,%ecx
    b6c0:	0f b6 15 a9 3e 01 00 	movzbl 0x13ea9(%rip),%edx        # 1f570 <g_433+0x10>
    b6c7:	83 e2 00             	and    $0x0,%edx
    b6ca:	09 ca                	or     %ecx,%edx
    b6cc:	88 15 9e 3e 01 00    	mov    %dl,0x13e9e(%rip)        # 1f570 <g_433+0x10>
    b6d2:	c1 e8 10             	shr    $0x10,%eax
    b6d5:	89 c0                	mov    %eax,%eax
    b6d7:	83 e0 7f             	and    $0x7f,%eax
    b6da:	89 c2                	mov    %eax,%edx
    b6dc:	83 e2 7f             	and    $0x7f,%edx
    b6df:	0f b6 05 8b 3e 01 00 	movzbl 0x13e8b(%rip),%eax        # 1f571 <g_433+0x11>
    b6e6:	83 e0 80             	and    $0xffffff80,%eax
    b6e9:	09 d0                	or     %edx,%eax
    b6eb:	88 05 80 3e 01 00    	mov    %al,0x13e80(%rip)        # 1f571 <g_433+0x11>
    b6f1:	8b 85 0c f5 ff ff    	mov    -0xaf4(%rbp),%eax
    b6f7:	0f b7 c0             	movzwl %ax,%eax
    b6fa:	be 01 00 00 00       	mov    $0x1,%esi
    b6ff:	89 c7                	mov    %eax,%edi
    b701:	e8 37 d6 ff ff       	callq  8d3d <safe_mul_func_uint16_t_u_u>
    b706:	0f b7 95 9c f4 ff ff 	movzwl -0xb64(%rbp),%edx
    b70d:	66 39 d0             	cmp    %dx,%ax
    b710:	0f b7 85 9c f4 ff ff 	movzwl -0xb64(%rbp),%eax
    b717:	66 85 c0             	test   %ax,%ax
    b71a:	74 07                	je     b723 <func_33+0x892>
    b71c:	b8 01 00 00 00       	mov    $0x1,%eax
    b721:	eb 05                	jmp    b728 <func_33+0x897>
    b723:	b8 00 00 00 00       	mov    $0x0,%eax
    b728:	0f b6 c0             	movzbl %al,%eax
    b72b:	83 e0 0a             	and    $0xa,%eax
    b72e:	be 00 00 00 00       	mov    $0x0,%esi
    b733:	89 c7                	mov    %eax,%edi
    b735:	e8 59 d4 ff ff       	callq  8b93 <safe_mul_func_uint8_t_u_u>
    b73a:	0f b7 85 9c f4 ff ff 	movzwl -0xb64(%rbp),%eax
    b741:	0f b7 d0             	movzwl %ax,%edx
    b744:	0f b7 85 9c f4 ff ff 	movzwl -0xb64(%rbp),%eax
    b74b:	66 83 f8 01          	cmp    $0x1,%ax
    b74f:	0f 97 c0             	seta   %al
    b752:	0f b6 c0             	movzbl %al,%eax
    b755:	39 c2                	cmp    %eax,%edx
    b757:	0f 9f c0             	setg   %al
    b75a:	0f b6 c0             	movzbl %al,%eax
    b75d:	89 de                	mov    %ebx,%esi
    b75f:	89 c7                	mov    %eax,%edi
    b761:	e8 04 cb ff ff       	callq  826a <safe_div_func_int8_t_s_s>
    b766:	0f be c0             	movsbl %al,%eax
    b769:	89 c6                	mov    %eax,%esi
    b76b:	bf 01 00 00 00       	mov    $0x1,%edi
    b770:	e8 90 d4 ff ff       	callq  8c05 <safe_lshift_func_uint8_t_u_s>
    b775:	0f b7 8d 9c f4 ff ff 	movzwl -0xb64(%rbp),%ecx
    b77c:	48 8b 85 d0 f5 ff ff 	mov    -0xa30(%rbp),%rax
    b783:	0f b6 10             	movzbl (%rax),%edx
    b786:	48 8b 85 d0 f5 ff ff 	mov    -0xa30(%rbp),%rax
    b78d:	31 ca                	xor    %ecx,%edx
    b78f:	88 10                	mov    %dl,(%rax)
    b791:	0f b6 00             	movzbl (%rax),%eax
    b794:	0f b6 c0             	movzbl %al,%eax
    b797:	be 21 00 00 00       	mov    $0x21,%esi
    b79c:	89 c7                	mov    %eax,%edi
    b79e:	e8 0b d4 ff ff       	callq  8bae <safe_mod_func_uint8_t_u_u>
    b7a3:	89 c2                	mov    %eax,%edx
    b7a5:	48 8b 85 c8 f5 ff ff 	mov    -0xa38(%rbp),%rax
    b7ac:	88 10                	mov    %dl,(%rax)
    b7ae:	0f b6 00             	movzbl (%rax),%eax
    b7b1:	3c 01                	cmp    $0x1,%al
    b7b3:	0f 97 c0             	seta   %al
    b7b6:	0f b6 c0             	movzbl %al,%eax
    b7b9:	89 05 d1 29 01 00    	mov    %eax,0x129d1(%rip)        # 1e190 <g_231+0x70>
    b7bf:	8b 15 cb 29 01 00    	mov    0x129cb(%rip),%edx        # 1e190 <g_231+0x70>
    b7c5:	0f b7 85 9c f4 ff ff 	movzwl -0xb64(%rbp),%eax
    b7cc:	0f b7 c0             	movzwl %ax,%eax
    b7cf:	39 c2                	cmp    %eax,%edx
    b7d1:	0f 8c a9 0b 00 00    	jl     c380 <func_33+0x14ef>
    b7d7:	48 8d 85 c0 f4 ff ff 	lea    -0xb40(%rbp),%rax
    b7de:	48 89 85 88 f6 ff ff 	mov    %rax,-0x978(%rbp)
    b7e5:	c7 85 ec f4 ff ff 99 	movl   $0x863f7d99,-0xb14(%rbp)
    b7ec:	7d 3f 86 
    b7ef:	c7 85 58 f5 ff ff 06 	movl   $0x6,-0xaa8(%rbp)
    b7f6:	00 00 00 
    b7f9:	c7 85 a0 f7 ff ff 01 	movl   $0x1,-0x860(%rbp)
    b800:	00 00 00 
    b803:	c7 85 a4 f7 ff ff 07 	movl   $0x7,-0x85c(%rbp)
    b80a:	00 00 00 
    b80d:	c7 85 a8 f7 ff ff 07 	movl   $0x7,-0x858(%rbp)
    b814:	00 00 00 
    b817:	c7 85 ac f7 ff ff 01 	movl   $0x1,-0x854(%rbp)
    b81e:	00 00 00 
    b821:	c7 85 b0 f7 ff ff 07 	movl   $0x7,-0x850(%rbp)
    b828:	00 00 00 
    b82b:	c7 85 b4 f7 ff ff 07 	movl   $0x7,-0x84c(%rbp)
    b832:	00 00 00 
    b835:	48 8d 85 20 f8 ff ff 	lea    -0x7e0(%rbp),%rax
    b83c:	48 83 c0 10          	add    $0x10,%rax
    b840:	48 89 85 e0 f8 ff ff 	mov    %rax,-0x720(%rbp)
    b847:	48 8d 85 20 f8 ff ff 	lea    -0x7e0(%rbp),%rax
    b84e:	48 89 85 e8 f8 ff ff 	mov    %rax,-0x718(%rbp)
    b855:	48 8d 85 20 f8 ff ff 	lea    -0x7e0(%rbp),%rax
    b85c:	48 83 c0 10          	add    $0x10,%rax
    b860:	48 89 85 f0 f8 ff ff 	mov    %rax,-0x710(%rbp)
    b867:	48 8d 85 20 f8 ff ff 	lea    -0x7e0(%rbp),%rax
    b86e:	48 83 c0 10          	add    $0x10,%rax
    b872:	48 89 85 f8 f8 ff ff 	mov    %rax,-0x708(%rbp)
    b879:	48 8d 85 20 f8 ff ff 	lea    -0x7e0(%rbp),%rax
    b880:	48 83 c0 10          	add    $0x10,%rax
    b884:	48 89 85 00 f9 ff ff 	mov    %rax,-0x700(%rbp)
    b88b:	48 8d 85 20 f8 ff ff 	lea    -0x7e0(%rbp),%rax
    b892:	48 83 c0 10          	add    $0x10,%rax
    b896:	48 89 85 08 f9 ff ff 	mov    %rax,-0x6f8(%rbp)
    b89d:	48 8d 85 20 f8 ff ff 	lea    -0x7e0(%rbp),%rax
    b8a4:	48 83 c0 10          	add    $0x10,%rax
    b8a8:	48 89 85 10 f9 ff ff 	mov    %rax,-0x6f0(%rbp)
    b8af:	48 8d 85 20 f8 ff ff 	lea    -0x7e0(%rbp),%rax
    b8b6:	48 83 c0 10          	add    $0x10,%rax
    b8ba:	48 89 85 18 f9 ff ff 	mov    %rax,-0x6e8(%rbp)
    b8c1:	48 8d 85 20 f8 ff ff 	lea    -0x7e0(%rbp),%rax
    b8c8:	48 83 c0 10          	add    $0x10,%rax
    b8cc:	48 89 85 20 f9 ff ff 	mov    %rax,-0x6e0(%rbp)
    b8d3:	48 8d 85 20 f8 ff ff 	lea    -0x7e0(%rbp),%rax
    b8da:	48 83 c0 10          	add    $0x10,%rax
    b8de:	48 89 85 28 f9 ff ff 	mov    %rax,-0x6d8(%rbp)
    b8e5:	48 8d 85 20 f8 ff ff 	lea    -0x7e0(%rbp),%rax
    b8ec:	48 89 85 30 f9 ff ff 	mov    %rax,-0x6d0(%rbp)
    b8f3:	48 c7 85 38 f9 ff ff 	movq   $0x0,-0x6c8(%rbp)
    b8fa:	00 00 00 00 
    b8fe:	48 8d 85 20 f8 ff ff 	lea    -0x7e0(%rbp),%rax
    b905:	48 83 c0 08          	add    $0x8,%rax
    b909:	48 89 85 40 f9 ff ff 	mov    %rax,-0x6c0(%rbp)
    b910:	48 8d 85 20 f8 ff ff 	lea    -0x7e0(%rbp),%rax
    b917:	48 83 c0 10          	add    $0x10,%rax
    b91b:	48 89 85 48 f9 ff ff 	mov    %rax,-0x6b8(%rbp)
    b922:	48 c7 85 50 f9 ff ff 	movq   $0x0,-0x6b0(%rbp)
    b929:	00 00 00 00 
    b92d:	48 8d 85 20 f8 ff ff 	lea    -0x7e0(%rbp),%rax
    b934:	48 83 c0 08          	add    $0x8,%rax
    b938:	48 89 85 58 f9 ff ff 	mov    %rax,-0x6a8(%rbp)
    b93f:	48 c7 85 60 f9 ff ff 	movq   $0x0,-0x6a0(%rbp)
    b946:	00 00 00 00 
    b94a:	48 8d 85 20 f8 ff ff 	lea    -0x7e0(%rbp),%rax
    b951:	48 89 85 68 f9 ff ff 	mov    %rax,-0x698(%rbp)
    b958:	48 8d 85 20 f8 ff ff 	lea    -0x7e0(%rbp),%rax
    b95f:	48 89 85 70 f9 ff ff 	mov    %rax,-0x690(%rbp)
    b966:	48 c7 85 78 f9 ff ff 	movq   $0x0,-0x688(%rbp)
    b96d:	00 00 00 00 
    b971:	48 8d 85 20 f8 ff ff 	lea    -0x7e0(%rbp),%rax
    b978:	48 83 c0 10          	add    $0x10,%rax
    b97c:	48 89 85 80 f9 ff ff 	mov    %rax,-0x680(%rbp)
    b983:	48 8d 85 20 f8 ff ff 	lea    -0x7e0(%rbp),%rax
    b98a:	48 83 c0 10          	add    $0x10,%rax
    b98e:	48 89 85 88 f9 ff ff 	mov    %rax,-0x678(%rbp)
    b995:	48 8d 85 20 f8 ff ff 	lea    -0x7e0(%rbp),%rax
    b99c:	48 83 c0 10          	add    $0x10,%rax
    b9a0:	48 89 85 90 f9 ff ff 	mov    %rax,-0x670(%rbp)
    b9a7:	48 c7 85 98 f9 ff ff 	movq   $0x0,-0x668(%rbp)
    b9ae:	00 00 00 00 
    b9b2:	48 c7 85 a0 f9 ff ff 	movq   $0x0,-0x660(%rbp)
    b9b9:	00 00 00 00 
    b9bd:	48 8d 85 20 f8 ff ff 	lea    -0x7e0(%rbp),%rax
    b9c4:	48 83 c0 10          	add    $0x10,%rax
    b9c8:	48 89 85 a8 f9 ff ff 	mov    %rax,-0x658(%rbp)
    b9cf:	48 8d 85 20 f8 ff ff 	lea    -0x7e0(%rbp),%rax
    b9d6:	48 89 85 b0 f9 ff ff 	mov    %rax,-0x650(%rbp)
    b9dd:	48 8d 85 20 f8 ff ff 	lea    -0x7e0(%rbp),%rax
    b9e4:	48 83 c0 10          	add    $0x10,%rax
    b9e8:	48 89 85 b8 f9 ff ff 	mov    %rax,-0x648(%rbp)
    b9ef:	48 8d 85 20 f8 ff ff 	lea    -0x7e0(%rbp),%rax
    b9f6:	48 83 c0 10          	add    $0x10,%rax
    b9fa:	48 89 85 c0 f9 ff ff 	mov    %rax,-0x640(%rbp)
    ba01:	48 8d 85 20 f8 ff ff 	lea    -0x7e0(%rbp),%rax
    ba08:	48 83 c0 10          	add    $0x10,%rax
    ba0c:	48 89 85 c8 f9 ff ff 	mov    %rax,-0x638(%rbp)
    ba13:	48 8d 05 8e 5e 01 00 	lea    0x15e8e(%rip),%rax        # 218a8 <g_406>
    ba1a:	48 89 85 90 f6 ff ff 	mov    %rax,-0x970(%rbp)
    ba21:	48 8d 05 48 3e 01 00 	lea    0x13e48(%rip),%rax        # 1f870 <g_1081>
    ba28:	48 89 85 10 f6 ff ff 	mov    %rax,-0x9f0(%rbp)
    ba2f:	48 8d 85 10 f6 ff ff 	lea    -0x9f0(%rbp),%rax
    ba36:	48 89 85 98 f6 ff ff 	mov    %rax,-0x968(%rbp)
    ba3d:	0f b7 85 9c f4 ff ff 	movzwl -0xb64(%rbp),%eax
    ba44:	0f b7 d0             	movzwl %ax,%edx
    ba47:	48 8b 85 d8 f5 ff ff 	mov    -0xa28(%rbp),%rax
    ba4e:	48 21 d0             	and    %rdx,%rax
    ba51:	48 89 85 d8 f5 ff ff 	mov    %rax,-0xa28(%rbp)
    ba58:	66 c7 05 58 27 01 00 	movw   $0x0,0x12758(%rip)        # 1e1b9 <g_271+0x9>
    ba5f:	00 00 
    ba61:	e9 df 08 00 00       	jmpq   c345 <func_33+0x14b4>
    ba66:	48 8d 05 8b 3d 01 00 	lea    0x13d8b(%rip),%rax        # 1f7f8 <g_744>
    ba6d:	48 89 85 a0 f6 ff ff 	mov    %rax,-0x960(%rbp)
    ba74:	48 8d 05 51 27 01 00 	lea    0x12751(%rip),%rax        # 1e1cc <g_374>
    ba7b:	48 89 85 70 f8 ff ff 	mov    %rax,-0x790(%rbp)
    ba82:	48 8d 05 43 27 01 00 	lea    0x12743(%rip),%rax        # 1e1cc <g_374>
    ba89:	48 89 85 78 f8 ff ff 	mov    %rax,-0x788(%rbp)
    ba90:	48 8d 05 35 27 01 00 	lea    0x12735(%rip),%rax        # 1e1cc <g_374>
    ba97:	48 89 85 80 f8 ff ff 	mov    %rax,-0x780(%rbp)
    ba9e:	48 8d 05 27 27 01 00 	lea    0x12727(%rip),%rax        # 1e1cc <g_374>
    baa5:	48 89 85 88 f8 ff ff 	mov    %rax,-0x778(%rbp)
    baac:	48 8d 05 19 27 01 00 	lea    0x12719(%rip),%rax        # 1e1cc <g_374>
    bab3:	48 89 85 90 f8 ff ff 	mov    %rax,-0x770(%rbp)
    baba:	48 8d 05 0b 27 01 00 	lea    0x1270b(%rip),%rax        # 1e1cc <g_374>
    bac1:	48 89 85 98 f8 ff ff 	mov    %rax,-0x768(%rbp)
    bac8:	48 8d 05 fd 26 01 00 	lea    0x126fd(%rip),%rax        # 1e1cc <g_374>
    bacf:	48 89 85 a0 f8 ff ff 	mov    %rax,-0x760(%rbp)
    bad6:	48 8d 05 ef 26 01 00 	lea    0x126ef(%rip),%rax        # 1e1cc <g_374>
    badd:	48 89 85 a8 f8 ff ff 	mov    %rax,-0x758(%rbp)
    bae4:	c7 85 5c f5 ff ff ed 	movl   $0x466ec3ed,-0xaa4(%rbp)
    baeb:	c3 6e 46 
    baee:	66 c7 85 40 f8 ff ff 	movw   $0xb929,-0x7c0(%rbp)
    baf5:	29 b9 
    baf7:	66 c7 85 42 f8 ff ff 	movw   $0xb929,-0x7be(%rbp)
    bafe:	29 b9 
    bb00:	66 c7 85 44 f8 ff ff 	movw   $0x39f2,-0x7bc(%rbp)
    bb07:	f2 39 
    bb09:	66 c7 85 46 f8 ff ff 	movw   $0xb929,-0x7ba(%rbp)
    bb10:	29 b9 
    bb12:	66 c7 85 48 f8 ff ff 	movw   $0xb929,-0x7b8(%rbp)
    bb19:	29 b9 
    bb1b:	66 c7 85 4a f8 ff ff 	movw   $0x0,-0x7b6(%rbp)
    bb22:	00 00 
    bb24:	66 c7 85 4c f8 ff ff 	movw   $0x1,-0x7b4(%rbp)
    bb2b:	01 00 
    bb2d:	66 c7 85 4e f8 ff ff 	movw   $0x0,-0x7b2(%rbp)
    bb34:	00 00 
    bb36:	66 c7 85 50 f8 ff ff 	movw   $0x39f2,-0x7b0(%rbp)
    bb3d:	f2 39 
    bb3f:	66 c7 85 52 f8 ff ff 	movw   $0x1,-0x7ae(%rbp)
    bb46:	01 00 
    bb48:	66 c7 85 54 f8 ff ff 	movw   $0x0,-0x7ac(%rbp)
    bb4f:	00 00 
    bb51:	66 c7 85 56 f8 ff ff 	movw   $0x0,-0x7aa(%rbp)
    bb58:	00 00 
    bb5a:	66 c7 85 58 f8 ff ff 	movw   $0x0,-0x7a8(%rbp)
    bb61:	00 00 
    bb63:	66 c7 85 5a f8 ff ff 	movw   $0x1,-0x7a6(%rbp)
    bb6a:	01 00 
    bb6c:	66 c7 85 5c f8 ff ff 	movw   $0x39f2,-0x7a4(%rbp)
    bb73:	f2 39 
    bb75:	66 c7 85 5e f8 ff ff 	movw   $0x0,-0x7a2(%rbp)
    bb7c:	00 00 
    bb7e:	66 c7 85 60 f8 ff ff 	movw   $0x1,-0x7a0(%rbp)
    bb85:	01 00 
    bb87:	66 c7 85 62 f8 ff ff 	movw   $0x0,-0x79e(%rbp)
    bb8e:	00 00 
    bb90:	c7 85 60 f5 ff ff fe 	movl   $0xfffffffe,-0xaa0(%rbp)
    bb97:	ff ff ff 
    bb9a:	c7 85 f0 f4 ff ff 00 	movl   $0x0,-0xb10(%rbp)
    bba1:	00 00 00 
    bba4:	eb 1e                	jmp    bbc4 <func_33+0xd33>
    bba6:	8b 85 f0 f4 ff ff    	mov    -0xb10(%rbp),%eax
    bbac:	48 98                	cltq   
    bbae:	48 8d 95 b4 f4 ff ff 	lea    -0xb4c(%rbp),%rdx
    bbb5:	48 89 94 c5 c0 f7 ff 	mov    %rdx,-0x840(%rbp,%rax,8)
    bbbc:	ff 
    bbbd:	83 85 f0 f4 ff ff 01 	addl   $0x1,-0xb10(%rbp)
    bbc4:	83 bd f0 f4 ff ff 02 	cmpl   $0x2,-0xb10(%rbp)
    bbcb:	7e d9                	jle    bba6 <func_33+0xd15>
    bbcd:	66 c7 05 f3 39 01 00 	movw   $0x1,0x139f3(%rip)        # 1f5c9 <g_436+0x9>
    bbd4:	01 00 
    bbd6:	e9 48 07 00 00       	jmpq   c323 <func_33+0x1492>
    bbdb:	48 8d 05 e6 25 01 00 	lea    0x125e6(%rip),%rax        # 1e1c8 <g_331>
    bbe2:	48 89 85 a8 f6 ff ff 	mov    %rax,-0x958(%rbp)
    bbe9:	48 8d 85 10 fb ff ff 	lea    -0x4f0(%rbp),%rax
    bbf0:	48 8d 15 09 42 01 00 	lea    0x14209(%rip),%rdx        # 1fe00 <g_1685+0x4ca>
    bbf7:	b9 90 00 00 00       	mov    $0x90,%ecx
    bbfc:	48 89 c7             	mov    %rax,%rdi
    bbff:	48 89 d6             	mov    %rdx,%rsi
    bc02:	f3 48 a5             	rep movsq %ds:(%rsi),%es:(%rdi)
    bc05:	48 8d 05 c0 25 01 00 	lea    0x125c0(%rip),%rax        # 1e1cc <g_374>
    bc0c:	48 89 85 b0 f6 ff ff 	mov    %rax,-0x950(%rbp)
    bc13:	c7 85 f4 f4 ff ff 50 	movl   $0x5e4ab550,-0xb0c(%rbp)
    bc1a:	b5 4a 5e 
    bc1d:	c7 85 64 f5 ff ff 00 	movl   $0x0,-0xa9c(%rbp)
    bc24:	00 00 00 
    bc27:	66 c7 85 aa f4 ff ff 	movw   $0x6fab,-0xb56(%rbp)
    bc2e:	ab 6f 
    bc30:	48 8d 85 20 f8 ff ff 	lea    -0x7e0(%rbp),%rax
    bc37:	48 83 c0 10          	add    $0x10,%rax
    bc3b:	48 89 85 b8 f6 ff ff 	mov    %rax,-0x948(%rbp)
    bc42:	c7 85 f8 f4 ff ff 00 	movl   $0x0,-0xb08(%rbp)
    bc49:	00 00 00 
    bc4c:	eb 1b                	jmp    bc69 <func_33+0xdd8>
    bc4e:	8b 85 f8 f4 ff ff    	mov    -0xb08(%rbp),%eax
    bc54:	48 98                	cltq   
    bc56:	48 c7 84 c5 e0 f7 ff 	movq   $0x1,-0x820(%rbp,%rax,8)
    bc5d:	ff 01 00 00 00 
    bc62:	83 85 f8 f4 ff ff 01 	addl   $0x1,-0xb08(%rbp)
    bc69:	83 bd f8 f4 ff ff 02 	cmpl   $0x2,-0xb08(%rbp)
    bc70:	7e dc                	jle    bc4e <func_33+0xdbd>
    bc72:	8b 85 ec f4 ff ff    	mov    -0xb14(%rbp),%eax
    bc78:	0f bf d8             	movswl %ax,%ebx
    bc7b:	be 06 00 00 00       	mov    $0x6,%esi
    bc80:	bf 43 da 00 00       	mov    $0xda43,%edi
    bc85:	e8 7c d1 ff ff       	callq  8e06 <safe_lshift_func_uint16_t_u_u>
    bc8a:	48 83 bd a0 f6 ff ff 	cmpq   $0x0,-0x960(%rbp)
    bc91:	00 
    bc92:	0f 95 c0             	setne  %al
    bc95:	0f b6 d0             	movzbl %al,%edx
    bc98:	48 8b 85 a8 f6 ff ff 	mov    -0x958(%rbp),%rax
    bc9f:	66 89 10             	mov    %dx,(%rax)
    bca2:	48 8b 85 a8 f6 ff ff 	mov    -0x958(%rbp),%rax
    bca9:	0f b7 10             	movzwl (%rax),%edx
    bcac:	0f b7 05 87 3b 01 00 	movzwl 0x13b87(%rip),%eax        # 1f83a <g_783+0x2>
    bcb3:	21 d0                	and    %edx,%eax
    bcb5:	66 89 05 7e 3b 01 00 	mov    %ax,0x13b7e(%rip)        # 1f83a <g_783+0x2>
    bcbc:	0f b7 05 77 3b 01 00 	movzwl 0x13b77(%rip),%eax        # 1f83a <g_783+0x2>
    bcc3:	66 85 c0             	test   %ax,%ax
    bcc6:	0f 94 c0             	sete   %al
    bcc9:	0f b6 d0             	movzbl %al,%edx
    bccc:	48 8b 85 a0 f6 ff ff 	mov    -0x960(%rbp),%rax
    bcd3:	48 89 10             	mov    %rdx,(%rax)
    bcd6:	48 8b 85 a0 f6 ff ff 	mov    -0x960(%rbp),%rax
    bcdd:	4c 8b 20             	mov    (%rax),%r12
    bce0:	48 8d 05 e5 24 01 00 	lea    0x124e5(%rip),%rax        # 1e1cc <g_374>
    bce7:	48 89 85 b0 f6 ff ff 	mov    %rax,-0x950(%rbp)
    bcee:	48 8b 85 70 f8 ff ff 	mov    -0x790(%rbp),%rax
    bcf5:	48 89 85 88 f6 ff ff 	mov    %rax,-0x978(%rbp)
    bcfc:	48 8b 85 b0 f6 ff ff 	mov    -0x950(%rbp),%rax
    bd03:	48 3b 85 88 f6 ff ff 	cmp    -0x978(%rbp),%rax
    bd0a:	0f 95 c0             	setne  %al
    bd0d:	0f b6 c0             	movzbl %al,%eax
    bd10:	c1 e0 09             	shl    $0x9,%eax
    bd13:	c1 f8 09             	sar    $0x9,%eax
    bd16:	89 c2                	mov    %eax,%edx
    bd18:	0f b6 ca             	movzbl %dl,%ecx
    bd1b:	0f b6 15 4d 25 01 00 	movzbl 0x1254d(%rip),%edx        # 1e26f <g_430+0xf>
    bd22:	83 e2 00             	and    $0x0,%edx
    bd25:	09 ca                	or     %ecx,%edx
    bd27:	88 15 42 25 01 00    	mov    %dl,0x12542(%rip)        # 1e26f <g_430+0xf>
    bd2d:	89 c2                	mov    %eax,%edx
    bd2f:	c1 ea 08             	shr    $0x8,%edx
    bd32:	89 d2                	mov    %edx,%edx
    bd34:	0f b6 ca             	movzbl %dl,%ecx
    bd37:	0f b6 15 32 25 01 00 	movzbl 0x12532(%rip),%edx        # 1e270 <g_430+0x10>
    bd3e:	83 e2 00             	and    $0x0,%edx
    bd41:	09 ca                	or     %ecx,%edx
    bd43:	88 15 27 25 01 00    	mov    %dl,0x12527(%rip)        # 1e270 <g_430+0x10>
    bd49:	c1 e8 10             	shr    $0x10,%eax
    bd4c:	89 c0                	mov    %eax,%eax
    bd4e:	83 e0 7f             	and    $0x7f,%eax
    bd51:	89 c2                	mov    %eax,%edx
    bd53:	83 e2 7f             	and    $0x7f,%edx
    bd56:	0f b6 05 14 25 01 00 	movzbl 0x12514(%rip),%eax        # 1e271 <g_430+0x11>
    bd5d:	83 e0 80             	and    $0xffffff80,%eax
    bd60:	09 d0                	or     %edx,%eax
    bd62:	88 05 09 25 01 00    	mov    %al,0x12509(%rip)        # 1e271 <g_430+0x11>
    bd68:	0f b6 05 00 25 01 00 	movzbl 0x12500(%rip),%eax        # 1e26f <g_430+0xf>
    bd6f:	0f b7 15 fa 24 01 00 	movzwl 0x124fa(%rip),%edx        # 1e270 <g_430+0x10>
    bd76:	81 e2 ff 7f 00 00    	and    $0x7fff,%edx
    bd7c:	48 c1 e2 08          	shl    $0x8,%rdx
    bd80:	48 09 d0             	or     %rdx,%rax
    bd83:	48 c1 e0 29          	shl    $0x29,%rax
    bd87:	48 c1 f8 29          	sar    $0x29,%rax
    bd8b:	41 89 c6             	mov    %eax,%r14d
    bd8e:	48 8b 85 e8 f7 ff ff 	mov    -0x818(%rbp),%rax
    bd95:	41 89 c5             	mov    %eax,%r13d
    bd98:	0f b7 05 bc 3a 01 00 	movzwl 0x13abc(%rip),%eax        # 1f85b <g_924+0xb>
    bd9f:	66 85 c0             	test   %ax,%ax
    bda2:	0f 84 a0 00 00 00    	je     be48 <func_33+0xfb7>
    bda8:	8b 95 f4 f4 ff ff    	mov    -0xb0c(%rbp),%edx
    bdae:	8b 85 5c f5 ff ff    	mov    -0xaa4(%rbp),%eax
    bdb4:	0f be c0             	movsbl %al,%eax
    bdb7:	89 d6                	mov    %edx,%esi
    bdb9:	89 c7                	mov    %eax,%edi
    bdbb:	e8 ac c5 ff ff       	callq  836c <safe_rshift_func_int8_t_s_u>
    bdc0:	84 c0                	test   %al,%al
    bdc2:	74 10                	je     bdd4 <func_33+0xf43>
    bdc4:	83 bd 5c f5 ff ff 00 	cmpl   $0x0,-0xaa4(%rbp)
    bdcb:	74 07                	je     bdd4 <func_33+0xf43>
    bdcd:	b8 01 00 00 00       	mov    $0x1,%eax
    bdd2:	eb 05                	jmp    bdd9 <func_33+0xf48>
    bdd4:	b8 00 00 00 00       	mov    $0x0,%eax
    bdd9:	23 85 5c f5 ff ff    	and    -0xaa4(%rbp),%eax
    bddf:	85 c0                	test   %eax,%eax
    bde1:	74 07                	je     bdea <func_33+0xf59>
    bde3:	83 bd 5c f5 ff ff 00 	cmpl   $0x0,-0xaa4(%rbp)
    bdea:	83 bd f4 f4 ff ff ff 	cmpl   $0xffffffff,-0xb0c(%rbp)
    bdf1:	0f 95 c0             	setne  %al
    bdf4:	0f b6 c0             	movzbl %al,%eax
    bdf7:	0f b6 15 f1 37 01 00 	movzbl 0x137f1(%rip),%edx        # 1f5ef <g_437+0xf>
    bdfe:	0f b7 0d eb 37 01 00 	movzwl 0x137eb(%rip),%ecx        # 1f5f0 <g_437+0x10>
    be05:	81 e1 ff 7f 00 00    	and    $0x7fff,%ecx
    be0b:	48 c1 e1 08          	shl    $0x8,%rcx
    be0f:	48 09 ca             	or     %rcx,%rdx
    be12:	48 c1 e2 29          	shl    $0x29,%rdx
    be16:	48 c1 fa 29          	sar    $0x29,%rdx
    be1a:	39 d0                	cmp    %edx,%eax
    be1c:	0f 9f c0             	setg   %al
    be1f:	0f b6 c0             	movzbl %al,%eax
    be22:	0b 85 5c f5 ff ff    	or     -0xaa4(%rbp),%eax
    be28:	89 c2                	mov    %eax,%edx
    be2a:	0f b7 85 5c f8 ff ff 	movzwl -0x7a4(%rbp),%eax
    be31:	98                   	cwtl   
    be32:	39 c2                	cmp    %eax,%edx
    be34:	0f 9e c0             	setle  %al
    be37:	0f b6 d0             	movzbl %al,%edx
    be3a:	0f b7 05 98 39 01 00 	movzwl 0x13998(%rip),%eax        # 1f7d9 <g_443+0x9>
    be41:	0f b7 c0             	movzwl %ax,%eax
    be44:	09 d0                	or     %edx,%eax
    be46:	85 c0                	test   %eax,%eax
    be48:	0f b6 05 a0 23 01 00 	movzbl 0x123a0(%rip),%eax        # 1e1ef <g_407+0xf>
    be4f:	0f b7 15 9a 23 01 00 	movzwl 0x1239a(%rip),%edx        # 1e1f0 <g_407+0x10>
    be56:	81 e2 ff 7f 00 00    	and    $0x7fff,%edx
    be5c:	48 c1 e2 08          	shl    $0x8,%rdx
    be60:	48 09 d0             	or     %rdx,%rax
    be63:	48 c1 e0 29          	shl    $0x29,%rax
    be67:	48 c1 f8 29          	sar    $0x29,%rax
    be6b:	48 63 d0             	movslq %eax,%rdx
    be6e:	0f b7 85 9c f4 ff ff 	movzwl -0xb64(%rbp),%eax
    be75:	8d 48 01             	lea    0x1(%rax),%ecx
    be78:	66 89 8d 9c f4 ff ff 	mov    %cx,-0xb64(%rbp)
    be7f:	66 85 c0             	test   %ax,%ax
    be82:	0f 94 c0             	sete   %al
    be85:	0f b6 c0             	movzbl %al,%eax
    be88:	48 89 d6             	mov    %rdx,%rsi
    be8b:	48 89 c7             	mov    %rax,%rdi
    be8e:	e8 64 cb ff ff       	callq  89f7 <safe_div_func_int64_t_s_s>
    be93:	0f b7 15 51 23 01 00 	movzwl 0x12351(%rip),%edx        # 1e1eb <g_407+0xb>
    be9a:	0f b7 d2             	movzwl %dx,%edx
    be9d:	48 09 c2             	or     %rax,%rdx
    bea0:	8b 85 ec f4 ff ff    	mov    -0xb14(%rbp),%eax
    bea6:	48 98                	cltq   
    bea8:	48 39 c2             	cmp    %rax,%rdx
    beab:	0f 9d c0             	setge  %al
    beae:	0f b6 c0             	movzbl %al,%eax
    beb1:	44 89 ee             	mov    %r13d,%esi
    beb4:	89 c7                	mov    %eax,%edi
    beb6:	e8 6a d0 ff ff       	callq  8f25 <safe_div_func_uint32_t_u_u>
    bebb:	44 21 f0             	and    %r14d,%eax
    bebe:	89 c0                	mov    %eax,%eax
    bec0:	49 39 c4             	cmp    %rax,%r12
    bec3:	0f 95 c0             	setne  %al
    bec6:	0f b6 c0             	movzbl %al,%eax
    bec9:	89 de                	mov    %ebx,%esi
    becb:	89 c7                	mov    %eax,%edi
    becd:	e8 23 c5 ff ff       	callq  83f5 <safe_mul_func_int16_t_s_s>
    bed2:	66 85 c0             	test   %ax,%ax
    bed5:	74 13                	je     beea <func_33+0x1059>
    bed7:	0f b7 85 9c f4 ff ff 	movzwl -0xb64(%rbp),%eax
    bede:	66 85 c0             	test   %ax,%ax
    bee1:	74 07                	je     beea <func_33+0x1059>
    bee3:	b8 01 00 00 00       	mov    $0x1,%eax
    bee8:	eb 05                	jmp    beef <func_33+0x105e>
    beea:	b8 00 00 00 00       	mov    $0x0,%eax
    beef:	c1 e0 09             	shl    $0x9,%eax
    bef2:	c1 f8 09             	sar    $0x9,%eax
    bef5:	89 c2                	mov    %eax,%edx
    bef7:	0f b6 ca             	movzbl %dl,%ecx
    befa:	0f b6 15 4e 36 01 00 	movzbl 0x1364e(%rip),%edx        # 1f54f <g_432+0xf>
    bf01:	83 e2 00             	and    $0x0,%edx
    bf04:	09 ca                	or     %ecx,%edx
    bf06:	88 15 43 36 01 00    	mov    %dl,0x13643(%rip)        # 1f54f <g_432+0xf>
    bf0c:	89 c2                	mov    %eax,%edx
    bf0e:	c1 ea 08             	shr    $0x8,%edx
    bf11:	89 d2                	mov    %edx,%edx
    bf13:	0f b6 ca             	movzbl %dl,%ecx
    bf16:	0f b6 15 33 36 01 00 	movzbl 0x13633(%rip),%edx        # 1f550 <g_432+0x10>
    bf1d:	83 e2 00             	and    $0x0,%edx
    bf20:	09 ca                	or     %ecx,%edx
    bf22:	88 15 28 36 01 00    	mov    %dl,0x13628(%rip)        # 1f550 <g_432+0x10>
    bf28:	c1 e8 10             	shr    $0x10,%eax
    bf2b:	89 c0                	mov    %eax,%eax
    bf2d:	83 e0 7f             	and    $0x7f,%eax
    bf30:	89 c2                	mov    %eax,%edx
    bf32:	83 e2 7f             	and    $0x7f,%edx
    bf35:	0f b6 05 15 36 01 00 	movzbl 0x13615(%rip),%eax        # 1f551 <g_432+0x11>
    bf3c:	83 e0 80             	and    $0xffffff80,%eax
    bf3f:	09 d0                	or     %edx,%eax
    bf41:	88 05 0a 36 01 00    	mov    %al,0x1360a(%rip)        # 1f551 <g_432+0x11>
    bf47:	0f b6 05 01 36 01 00 	movzbl 0x13601(%rip),%eax        # 1f54f <g_432+0xf>
    bf4e:	0f b7 15 fb 35 01 00 	movzwl 0x135fb(%rip),%edx        # 1f550 <g_432+0x10>
    bf55:	81 e2 ff 7f 00 00    	and    $0x7fff,%edx
    bf5b:	48 c1 e2 08          	shl    $0x8,%rdx
    bf5f:	48 09 d0             	or     %rdx,%rax
    bf62:	48 c1 e0 29          	shl    $0x29,%rax
    bf66:	48 c1 f8 29          	sar    $0x29,%rax
    bf6a:	89 c2                	mov    %eax,%edx
    bf6c:	8b 05 56 21 01 00    	mov    0x12156(%rip),%eax        # 1e0c8 <g_45>
    bf72:	31 d0                	xor    %edx,%eax
    bf74:	89 05 4e 21 01 00    	mov    %eax,0x1214e(%rip)        # 1e0c8 <g_45>
    bf7a:	66 c7 05 68 22 01 00 	movw   $0x0,0x12268(%rip)        # 1e1eb <g_407+0xb>
    bf81:	00 00 
    bf83:	e9 79 03 00 00       	jmpq   c301 <func_33+0x1470>
    bf88:	c7 85 00 f8 ff ff f9 	movl   $0xfffffff9,-0x800(%rbp)
    bf8f:	ff ff ff 
    bf92:	c7 85 04 f8 ff ff f9 	movl   $0xfffffff9,-0x7fc(%rbp)
    bf99:	ff ff ff 
    bf9c:	c7 85 08 f8 ff ff f9 	movl   $0xfffffff9,-0x7f8(%rbp)
    bfa3:	ff ff ff 
    bfa6:	c7 85 0c f8 ff ff f9 	movl   $0xfffffff9,-0x7f4(%rbp)
    bfad:	ff ff ff 
    bfb0:	c7 85 10 f8 ff ff f9 	movl   $0xfffffff9,-0x7f0(%rbp)
    bfb7:	ff ff ff 
    bfba:	c7 85 14 f8 ff ff f9 	movl   $0xfffffff9,-0x7ec(%rbp)
    bfc1:	ff ff ff 
    bfc4:	c7 85 18 f8 ff ff f9 	movl   $0xfffffff9,-0x7e8(%rbp)
    bfcb:	ff ff ff 
    bfce:	66 c7 85 b0 f4 ff ff 	movw   $0x2d4f,-0xb50(%rbp)
    bfd5:	4f 2d 
    bfd7:	48 8d 85 10 fb ff ff 	lea    -0x4f0(%rbp),%rax
    bfde:	48 05 a0 00 00 00    	add    $0xa0,%rax
    bfe4:	48 89 85 c0 f6 ff ff 	mov    %rax,-0x940(%rbp)
    bfeb:	8b 05 4f 38 01 00    	mov    0x1384f(%rip),%eax        # 1f840 <g_910>
    bff1:	41 89 c5             	mov    %eax,%r13d
    bff4:	0f b7 85 9c f4 ff ff 	movzwl -0xb64(%rbp),%eax
    bffb:	0f b6 d8             	movzbl %al,%ebx
    bffe:	0f b7 85 42 f8 ff ff 	movzwl -0x7be(%rbp),%eax
    c005:	44 0f bf e0          	movswl %ax,%r12d
    c009:	48 8b 85 a8 f6 ff ff 	mov    -0x958(%rbp),%rax
    c010:	66 c7 00 01 00       	movw   $0x1,(%rax)
    c015:	0f b6 05 0c 38 01 00 	movzbl 0x1380c(%rip),%eax        # 1f828 <g_782+0x8>
    c01c:	84 c0                	test   %al,%al
    c01e:	0f 94 c0             	sete   %al
    c021:	0f b6 c0             	movzbl %al,%eax
    c024:	89 c6                	mov    %eax,%esi
    c026:	bf ff ff ff ff       	mov    $0xffffffff,%edi
    c02b:	e8 83 c3 ff ff       	callq  83b3 <safe_add_func_int16_t_s_s>
    c030:	be 06 00 00 00       	mov    $0x6,%esi
    c035:	bf 00 00 00 00       	mov    $0x0,%edi
    c03a:	e8 2d c3 ff ff       	callq  836c <safe_rshift_func_int8_t_s_u>
    c03f:	0f be d0             	movsbl %al,%edx
    c042:	0f b7 05 ba 36 01 00 	movzwl 0x136ba(%rip),%eax        # 1f703 <g_440+0x23>
    c049:	0f b7 c0             	movzwl %ax,%eax
    c04c:	39 c2                	cmp    %eax,%edx
    c04e:	0f 9c c0             	setl   %al
    c051:	0f b6 c0             	movzbl %al,%eax
    c054:	44 89 e6             	mov    %r12d,%esi
    c057:	89 c7                	mov    %eax,%edi
    c059:	e8 97 c3 ff ff       	callq  83f5 <safe_mul_func_int16_t_s_s>
    c05e:	98                   	cwtl   
    c05f:	be 00 00 00 00       	mov    $0x0,%esi
    c064:	89 c7                	mov    %eax,%edi
    c066:	e8 48 c3 ff ff       	callq  83b3 <safe_add_func_int16_t_s_s>
    c06b:	0f b6 c0             	movzbl %al,%eax
    c06e:	89 de                	mov    %ebx,%esi
    c070:	89 c7                	mov    %eax,%edi
    c072:	e8 1c cb ff ff       	callq  8b93 <safe_mul_func_uint8_t_u_u>
    c077:	0f b6 c0             	movzbl %al,%eax
    c07a:	44 89 ee             	mov    %r13d,%esi
    c07d:	89 c7                	mov    %eax,%edi
    c07f:	e8 81 cb ff ff       	callq  8c05 <safe_lshift_func_uint8_t_u_s>
    c084:	0f b6 c0             	movzbl %al,%eax
    c087:	be 86 00 00 00       	mov    $0x86,%esi
    c08c:	89 c7                	mov    %eax,%edi
    c08e:	e8 00 cb ff ff       	callq  8b93 <safe_mul_func_uint8_t_u_u>
    c093:	0f b6 c0             	movzbl %al,%eax
    c096:	0b 85 ec f4 ff ff    	or     -0xb14(%rbp),%eax
    c09c:	3d bc 94 00 00       	cmp    $0x94bc,%eax
    c0a1:	0f 9f c0             	setg   %al
    c0a4:	0f b6 c0             	movzbl %al,%eax
    c0a7:	39 85 f4 f4 ff ff    	cmp    %eax,-0xb0c(%rbp)
    c0ad:	0f 95 c0             	setne  %al
    c0b0:	0f b6 c0             	movzbl %al,%eax
    c0b3:	89 85 f4 f4 ff ff    	mov    %eax,-0xb0c(%rbp)
    c0b9:	0f b7 85 aa f4 ff ff 	movzwl -0xb56(%rbp),%eax
    c0c0:	83 e8 01             	sub    $0x1,%eax
    c0c3:	66 89 85 aa f4 ff ff 	mov    %ax,-0xb56(%rbp)
    c0ca:	0f b7 85 9c f4 ff ff 	movzwl -0xb64(%rbp),%eax
    c0d1:	0f b7 d0             	movzwl %ax,%edx
    c0d4:	0f b7 05 0e 35 01 00 	movzwl 0x1350e(%rip),%eax        # 1f5e9 <g_437+0x9>
    c0db:	66 85 c0             	test   %ax,%ax
    c0de:	0f 94 c0             	sete   %al
    c0e1:	0f b6 c0             	movzbl %al,%eax
    c0e4:	89 d6                	mov    %edx,%esi
    c0e6:	89 c7                	mov    %eax,%edi
    c0e8:	e8 f4 c3 ff ff       	callq  84e1 <safe_lshift_func_int16_t_s_u>
    c0ed:	66 85 c0             	test   %ax,%ax
    c0f0:	75 07                	jne    c0f9 <func_33+0x1268>
    c0f2:	ba 01 00 00 00       	mov    $0x1,%edx
    c0f7:	eb 05                	jmp    c0fe <func_33+0x126d>
    c0f9:	ba 00 00 00 00       	mov    $0x0,%edx
    c0fe:	0f b7 85 9c f4 ff ff 	movzwl -0xb64(%rbp),%eax
    c105:	0f b7 c0             	movzwl %ax,%eax
    c108:	21 c2                	and    %eax,%edx
    c10a:	8b 05 42 34 01 00    	mov    0x13442(%rip),%eax        # 1f552 <g_432+0x12>
    c110:	39 c2                	cmp    %eax,%edx
    c112:	0f 95 c0             	setne  %al
    c115:	0f b6 c0             	movzbl %al,%eax
    c118:	89 85 58 f5 ff ff    	mov    %eax,-0xaa8(%rbp)
    c11e:	8b 9d 58 f5 ff ff    	mov    -0xaa8(%rbp),%ebx
    c124:	0f b7 85 9c f4 ff ff 	movzwl -0xb64(%rbp),%eax
    c12b:	44 0f bf e0          	movswl %ax,%r12d
    c12f:	0f b7 85 9c f4 ff ff 	movzwl -0xb64(%rbp),%eax
    c136:	0f b7 c0             	movzwl %ax,%eax
    c139:	31 85 ec f4 ff ff    	xor    %eax,-0xb14(%rbp)
    c13f:	83 bd ec f4 ff ff 00 	cmpl   $0x0,-0xb14(%rbp)
    c146:	75 37                	jne    c17f <func_33+0x12ee>
    c148:	0f b7 15 1a 35 01 00 	movzwl 0x1351a(%rip),%edx        # 1f669 <g_438+0x69>
    c14f:	0f b7 85 9c f4 ff ff 	movzwl -0xb64(%rbp),%eax
    c156:	21 d0                	and    %edx,%eax
    c158:	0f b7 c0             	movzwl %ax,%eax
    c15b:	be 0c 00 00 00       	mov    $0xc,%esi
    c160:	89 c7                	mov    %eax,%edi
    c162:	e8 57 cc ff ff       	callq  8dbe <safe_lshift_func_uint16_t_u_s>
    c167:	66 85 c0             	test   %ax,%ax
    c16a:	75 07                	jne    c173 <func_33+0x12e2>
    c16c:	83 bd 64 f5 ff ff 00 	cmpl   $0x0,-0xa9c(%rbp)
    c173:	0f b7 85 9c f4 ff ff 	movzwl -0xb64(%rbp),%eax
    c17a:	66 85 c0             	test   %ax,%ax
    c17d:	74 07                	je     c186 <func_33+0x12f5>
    c17f:	ba 01 00 00 00       	mov    $0x1,%edx
    c184:	eb 05                	jmp    c18b <func_33+0x12fa>
    c186:	ba 00 00 00 00       	mov    $0x0,%edx
    c18b:	0f b7 85 4a f8 ff ff 	movzwl -0x7b6(%rbp),%eax
    c192:	98                   	cwtl   
    c193:	39 c2                	cmp    %eax,%edx
    c195:	0f 9c c0             	setl   %al
    c198:	0f b6 d0             	movzbl %al,%edx
    c19b:	0f b7 85 9c f4 ff ff 	movzwl -0xb64(%rbp),%eax
    c1a2:	0f b7 c0             	movzwl %ax,%eax
    c1a5:	39 c2                	cmp    %eax,%edx
    c1a7:	0f 9c c0             	setl   %al
    c1aa:	0f b6 d0             	movzbl %al,%edx
    c1ad:	48 8b 85 e8 f7 ff ff 	mov    -0x818(%rbp),%rax
    c1b4:	48 39 c2             	cmp    %rax,%rdx
    c1b7:	0f 9f c0             	setg   %al
    c1ba:	0f b6 c0             	movzbl %al,%eax
    c1bd:	48 8b 95 c8 f5 ff ff 	mov    -0xa38(%rbp),%rdx
    c1c4:	c6 02 06             	movb   $0x6,(%rdx)
    c1c7:	89 c6                	mov    %eax,%esi
    c1c9:	bf 06 00 00 00       	mov    $0x6,%edi
    c1ce:	e8 3f c0 ff ff       	callq  8212 <safe_mul_func_int8_t_s_s>
    c1d3:	0f b6 c0             	movzbl %al,%eax
    c1d6:	be 03 00 00 00       	mov    $0x3,%esi
    c1db:	89 c7                	mov    %eax,%edi
    c1dd:	e8 6a ca ff ff       	callq  8c4c <safe_lshift_func_uint8_t_u_u>
    c1e2:	0f b6 c0             	movzbl %al,%eax
    c1e5:	be 9d df b0 5b       	mov    $0x5bb0df9d,%esi
    c1ea:	89 c7                	mov    %eax,%edi
    c1ec:	e8 c7 cc ff ff       	callq  8eb8 <safe_add_func_uint32_t_u_u>
    c1f1:	44 89 e6             	mov    %r12d,%esi
    c1f4:	bf 07 00 00 00       	mov    $0x7,%edi
    c1f9:	e8 f7 c1 ff ff       	callq  83f5 <safe_mul_func_int16_t_s_s>
    c1fe:	0f be c0             	movsbl %al,%eax
    c201:	89 de                	mov    %ebx,%esi
    c203:	89 c7                	mov    %eax,%edi
    c205:	e8 62 c1 ff ff       	callq  836c <safe_rshift_func_int8_t_s_u>
    c20a:	83 c8 2a             	or     $0x2a,%eax
    c20d:	0f be d0             	movsbl %al,%edx
    c210:	48 8b 85 60 f9 ff ff 	mov    -0x6a0(%rbp),%rax
    c217:	48 89 85 b8 f6 ff ff 	mov    %rax,-0x948(%rbp)
    c21e:	48 8d 85 20 f8 ff ff 	lea    -0x7e0(%rbp),%rax
    c225:	48 83 c0 10          	add    $0x10,%rax
    c229:	48 39 85 b8 f6 ff ff 	cmp    %rax,-0x948(%rbp)
    c230:	0f 95 c0             	setne  %al
    c233:	0f b6 c0             	movzbl %al,%eax
    c236:	0f b6 0d f2 1f 01 00 	movzbl 0x11ff2(%rip),%ecx        # 1e22f <g_428+0xf>
    c23d:	0f b7 35 ec 1f 01 00 	movzwl 0x11fec(%rip),%esi        # 1e230 <g_428+0x10>
    c244:	81 e6 ff 7f 00 00    	and    $0x7fff,%esi
    c24a:	48 c1 e6 08          	shl    $0x8,%rsi
    c24e:	48 09 f1             	or     %rsi,%rcx
    c251:	48 c1 e1 29          	shl    $0x29,%rcx
    c255:	48 c1 f9 29          	sar    $0x29,%rcx
    c259:	31 c8                	xor    %ecx,%eax
    c25b:	c1 e0 09             	shl    $0x9,%eax
    c25e:	c1 f8 09             	sar    $0x9,%eax
    c261:	89 c1                	mov    %eax,%ecx
    c263:	0f b6 f1             	movzbl %cl,%esi
    c266:	0f b6 0d c2 1f 01 00 	movzbl 0x11fc2(%rip),%ecx        # 1e22f <g_428+0xf>
    c26d:	83 e1 00             	and    $0x0,%ecx
    c270:	09 f1                	or     %esi,%ecx
    c272:	88 0d b7 1f 01 00    	mov    %cl,0x11fb7(%rip)        # 1e22f <g_428+0xf>
    c278:	89 c1                	mov    %eax,%ecx
    c27a:	c1 e9 08             	shr    $0x8,%ecx
    c27d:	89 c9                	mov    %ecx,%ecx
    c27f:	0f b6 f1             	movzbl %cl,%esi
    c282:	0f b6 0d a7 1f 01 00 	movzbl 0x11fa7(%rip),%ecx        # 1e230 <g_428+0x10>
    c289:	83 e1 00             	and    $0x0,%ecx
    c28c:	09 f1                	or     %esi,%ecx
    c28e:	88 0d 9c 1f 01 00    	mov    %cl,0x11f9c(%rip)        # 1e230 <g_428+0x10>
    c294:	c1 e8 10             	shr    $0x10,%eax
    c297:	89 c0                	mov    %eax,%eax
    c299:	83 e0 7f             	and    $0x7f,%eax
    c29c:	89 c1                	mov    %eax,%ecx
    c29e:	83 e1 7f             	and    $0x7f,%ecx
    c2a1:	0f b6 05 89 1f 01 00 	movzbl 0x11f89(%rip),%eax        # 1e231 <g_428+0x11>
    c2a8:	83 e0 80             	and    $0xffffff80,%eax
    c2ab:	09 c8                	or     %ecx,%eax
    c2ad:	88 05 7e 1f 01 00    	mov    %al,0x11f7e(%rip)        # 1e231 <g_428+0x11>
    c2b3:	0f b6 05 75 1f 01 00 	movzbl 0x11f75(%rip),%eax        # 1e22f <g_428+0xf>
    c2ba:	0f b7 0d 6f 1f 01 00 	movzwl 0x11f6f(%rip),%ecx        # 1e230 <g_428+0x10>
    c2c1:	81 e1 ff 7f 00 00    	and    $0x7fff,%ecx
    c2c7:	48 c1 e1 08          	shl    $0x8,%rcx
    c2cb:	48 09 c8             	or     %rcx,%rax
    c2ce:	48 c1 e0 29          	shl    $0x29,%rax
    c2d2:	48 c1 f8 29          	sar    $0x29,%rax
    c2d6:	89 d6                	mov    %edx,%esi
    c2d8:	89 c7                	mov    %eax,%edi
    c2da:	e8 26 c3 ff ff       	callq  8605 <safe_sub_func_int32_t_s_s>
    c2df:	48 8b 05 b2 54 01 00 	mov    0x154b2(%rip),%rax        # 21798 <g_43>
    c2e6:	48 8b 95 c8 f7 ff ff 	mov    -0x838(%rbp),%rdx
    c2ed:	48 89 10             	mov    %rdx,(%rax)
    c2f0:	0f b7 05 f4 1e 01 00 	movzwl 0x11ef4(%rip),%eax        # 1e1eb <g_407+0xb>
    c2f7:	83 c0 01             	add    $0x1,%eax
    c2fa:	66 89 05 ea 1e 01 00 	mov    %ax,0x11eea(%rip)        # 1e1eb <g_407+0xb>
    c301:	0f b7 05 e3 1e 01 00 	movzwl 0x11ee3(%rip),%eax        # 1e1eb <g_407+0xb>
    c308:	66 83 f8 08          	cmp    $0x8,%ax
    c30c:	0f 86 76 fc ff ff    	jbe    bf88 <func_33+0x10f7>
    c312:	0f b7 05 b0 32 01 00 	movzwl 0x132b0(%rip),%eax        # 1f5c9 <g_436+0x9>
    c319:	83 c0 01             	add    $0x1,%eax
    c31c:	66 89 05 a6 32 01 00 	mov    %ax,0x132a6(%rip)        # 1f5c9 <g_436+0x9>
    c323:	0f b7 05 9f 32 01 00 	movzwl 0x1329f(%rip),%eax        # 1f5c9 <g_436+0x9>
    c32a:	66 83 f8 08          	cmp    $0x8,%ax
    c32e:	0f 86 a7 f8 ff ff    	jbe    bbdb <func_33+0xd4a>
    c334:	0f b7 05 7e 1e 01 00 	movzwl 0x11e7e(%rip),%eax        # 1e1b9 <g_271+0x9>
    c33b:	83 c0 01             	add    $0x1,%eax
    c33e:	66 89 05 74 1e 01 00 	mov    %ax,0x11e74(%rip)        # 1e1b9 <g_271+0x9>
    c345:	0f b7 05 6d 1e 01 00 	movzwl 0x11e6d(%rip),%eax        # 1e1b9 <g_271+0x9>
    c34c:	66 83 f8 08          	cmp    $0x8,%ax
    c350:	0f 86 10 f7 ff ff    	jbe    ba66 <func_33+0xbd5>
    c356:	48 8b 15 4b 55 01 00 	mov    0x1554b(%rip),%rdx        # 218a8 <g_406>
    c35d:	48 8b 85 90 f6 ff ff 	mov    -0x970(%rbp),%rax
    c364:	48 89 10             	mov    %rdx,(%rax)
    c367:	48 8b 85 90 f6 ff ff 	mov    -0x970(%rbp),%rax
    c36e:	48 8b 10             	mov    (%rax),%rdx
    c371:	48 8b 85 98 f6 ff ff 	mov    -0x968(%rbp),%rax
    c378:	48 89 10             	mov    %rdx,(%rax)
    c37b:	e9 84 03 00 00       	jmpq   c704 <func_33+0x1873>
    c380:	c7 85 20 f5 ff ff f8 	movl   $0x4227dff8,-0xae0(%rbp)
    c387:	df 27 42 
    c38a:	48 8d 05 5f 34 01 00 	lea    0x1345f(%rip),%rax        # 1f7f0 <g_743>
    c391:	48 89 85 80 f6 ff ff 	mov    %rax,-0x980(%rbp)
    c398:	c7 85 24 f5 ff ff f6 	movl   $0x354e67f6,-0xadc(%rbp)
    c39f:	67 4e 35 
    c3a2:	c7 85 28 f5 ff ff 01 	movl   $0x1,-0xad8(%rbp)
    c3a9:	00 00 00 
    c3ac:	c7 85 2c f5 ff ff 11 	movl   $0x7ac53511,-0xad4(%rbp)
    c3b3:	35 c5 7a 
    c3b6:	c7 85 30 f5 ff ff 01 	movl   $0x1,-0xad0(%rbp)
    c3bd:	00 00 00 
    c3c0:	c7 85 34 f5 ff ff 6c 	movl   $0xfc66796c,-0xacc(%rbp)
    c3c7:	79 66 fc 
    c3ca:	c7 85 38 f5 ff ff f7 	movl   $0xfffffff7,-0xac8(%rbp)
    c3d1:	ff ff ff 
    c3d4:	c7 85 3c f5 ff ff f8 	movl   $0x2ef4f1f8,-0xac4(%rbp)
    c3db:	f1 f4 2e 
    c3de:	8b 85 20 f5 ff ff    	mov    -0xae0(%rbp),%eax
    c3e4:	0f b6 c0             	movzbl %al,%eax
    c3e7:	be 05 00 00 00       	mov    $0x5,%esi
    c3ec:	89 c7                	mov    %eax,%edi
    c3ee:	e8 12 c8 ff ff       	callq  8c05 <safe_lshift_func_uint8_t_u_s>
    c3f3:	8b 85 20 f5 ff ff    	mov    -0xae0(%rbp),%eax
    c3f9:	48 63 d8             	movslq %eax,%rbx
    c3fc:	0f b7 85 9c f4 ff ff 	movzwl -0xb64(%rbp),%eax
    c403:	44 0f b7 e0          	movzwl %ax,%r12d
    c407:	0f b7 85 9c f4 ff ff 	movzwl -0xb64(%rbp),%eax
    c40e:	44 0f b7 e8          	movzwl %ax,%r13d
    c412:	0f b7 85 9c f4 ff ff 	movzwl -0xb64(%rbp),%eax
    c419:	0f b7 c0             	movzwl %ax,%eax
    c41c:	48 8b 15 ad 1c 01 00 	mov    0x11cad(%rip),%rdx        # 1e0d0 <g_96>
    c423:	89 c6                	mov    %eax,%esi
    c425:	89 d7                	mov    %edx,%edi
    c427:	e8 d1 ca ff ff       	callq  8efd <safe_mod_func_uint32_t_u_u>
    c42c:	0f be c0             	movsbl %al,%eax
    c42f:	89 c7                	mov    %eax,%edi
    c431:	e8 89 bd ff ff       	callq  81bf <safe_unary_minus_func_int8_t_s>
    c436:	0f be c0             	movsbl %al,%eax
    c439:	41 39 c5             	cmp    %eax,%r13d
    c43c:	0f 9c c0             	setl   %al
    c43f:	0f b6 c0             	movzbl %al,%eax
    c442:	0f b7 95 9c f4 ff ff 	movzwl -0xb64(%rbp),%edx
    c449:	31 d0                	xor    %edx,%eax
    c44b:	98                   	cwtl   
    c44c:	44 89 e6             	mov    %r12d,%esi
    c44f:	89 c7                	mov    %eax,%edi
    c451:	e8 8b c0 ff ff       	callq  84e1 <safe_lshift_func_int16_t_s_u>
    c456:	8b 05 7c 1c 01 00    	mov    0x11c7c(%rip),%eax        # 1e0d8 <g_105>
    c45c:	f7 d0                	not    %eax
    c45e:	48 63 d0             	movslq %eax,%rdx
    c461:	48 8b 85 80 f6 ff ff 	mov    -0x980(%rbp),%rax
    c468:	48 89 10             	mov    %rdx,(%rax)
    c46b:	48 8b 85 80 f6 ff ff 	mov    -0x980(%rbp),%rax
    c472:	48 8b 00             	mov    (%rax),%rax
    c475:	49 89 c4             	mov    %rax,%r12
    c478:	8b 85 20 f5 ff ff    	mov    -0xae0(%rbp),%eax
    c47e:	0f b6 c0             	movzbl %al,%eax
    c481:	be 01 00 00 00       	mov    $0x1,%esi
    c486:	89 c7                	mov    %eax,%edi
    c488:	e8 31 c8 ff ff       	callq  8cbe <safe_rshift_func_uint8_t_u_u>
    c48d:	0f b6 c0             	movzbl %al,%eax
    c490:	4c 89 e6             	mov    %r12,%rsi
    c493:	48 89 c7             	mov    %rax,%rdi
    c496:	e8 b0 cb ff ff       	callq  904b <safe_sub_func_uint64_t_u_u>
    c49b:	48 89 c2             	mov    %rax,%rdx
    c49e:	48 8b 85 c8 f5 ff ff 	mov    -0xa38(%rbp),%rax
    c4a5:	88 10                	mov    %dl,(%rax)
    c4a7:	0f b6 00             	movzbl (%rax),%eax
    c4aa:	0f be d0             	movsbl %al,%edx
    c4ad:	0f b7 85 9c f4 ff ff 	movzwl -0xb64(%rbp),%eax
    c4b4:	0f b7 c0             	movzwl %ax,%eax
    c4b7:	39 c2                	cmp    %eax,%edx
    c4b9:	48 89 de             	mov    %rbx,%rsi
    c4bc:	48 bf 4a bb 44 6d 1d 	movabs $0x81b8011d6d44bb4a,%rdi
    c4c3:	01 b8 81 
    c4c6:	e8 63 cb ff ff       	callq  902e <safe_add_func_uint64_t_u_u>
    c4cb:	8b 85 20 f5 ff ff    	mov    -0xae0(%rbp),%eax
    c4d1:	0f b7 c0             	movzwl %ax,%eax
    c4d4:	be 01 00 00 00       	mov    $0x1,%esi
    c4d9:	89 c7                	mov    %eax,%edi
    c4db:	e8 1f c8 ff ff       	callq  8cff <safe_add_func_uint16_t_u_u>
    c4e0:	0f b7 c0             	movzwl %ax,%eax
    c4e3:	89 85 24 f5 ff ff    	mov    %eax,-0xadc(%rbp)
    c4e9:	66 c7 05 37 1d 01 00 	movw   $0x0,0x11d37(%rip)        # 1e229 <g_428+0x9>
    c4f0:	00 00 
    c4f2:	e9 fc 01 00 00       	jmpq   c6f3 <func_33+0x1862>
    c4f7:	66 c7 85 ae f4 ff ff 	movw   $0x93de,-0xb52(%rbp)
    c4fe:	de 93 
    c500:	48 8d 85 10 fb ff ff 	lea    -0x4f0(%rbp),%rax
    c507:	48 8d 15 b2 cd 00 00 	lea    0xcdb2(%rip),%rdx        # 192c0 <g_386+0x26c>
    c50e:	b9 3c 00 00 00       	mov    $0x3c,%ecx
    c513:	48 89 c7             	mov    %rax,%rdi
    c516:	48 89 d6             	mov    %rdx,%rsi
    c519:	f3 48 a5             	rep movsq %ds:(%rsi),%es:(%rdi)
    c51c:	c7 85 fc f4 ff ff 00 	movl   $0x0,-0xb04(%rbp)
    c523:	00 00 00 
    c526:	eb 4c                	jmp    c574 <func_33+0x16e3>
    c528:	c7 85 00 f5 ff ff 00 	movl   $0x0,-0xb00(%rbp)
    c52f:	00 00 00 
    c532:	eb 30                	jmp    c564 <func_33+0x16d3>
    c534:	8b 85 00 f5 ff ff    	mov    -0xb00(%rbp),%eax
    c53a:	48 63 c8             	movslq %eax,%rcx
    c53d:	8b 85 fc f4 ff ff    	mov    -0xb04(%rbp),%eax
    c543:	48 63 d0             	movslq %eax,%rdx
    c546:	48 89 d0             	mov    %rdx,%rax
    c549:	48 01 c0             	add    %rax,%rax
    c54c:	48 01 d0             	add    %rdx,%rax
    c54f:	48 01 c8             	add    %rcx,%rax
    c552:	c7 84 85 e0 f8 ff ff 	movl   $0x357d32df,-0x720(%rbp,%rax,4)
    c559:	df 32 7d 35 
    c55d:	83 85 00 f5 ff ff 01 	addl   $0x1,-0xb00(%rbp)
    c564:	83 bd 00 f5 ff ff 02 	cmpl   $0x2,-0xb00(%rbp)
    c56b:	7e c7                	jle    c534 <func_33+0x16a3>
    c56d:	83 85 fc f4 ff ff 01 	addl   $0x1,-0xb04(%rbp)
    c574:	83 bd fc f4 ff ff 01 	cmpl   $0x1,-0xb04(%rbp)
    c57b:	7e ab                	jle    c528 <func_33+0x1697>
    c57d:	66 c7 05 8a 1b 01 00 	movw   $0x1,0x11b8a(%rip)        # 1e110 <g_226>
    c584:	01 00 
    c586:	e9 47 01 00 00       	jmpq   c6d2 <func_33+0x1841>
    c58b:	c7 85 40 f5 ff ff a7 	movl   $0x4b3312a7,-0xac0(%rbp)
    c592:	12 33 4b 
    c595:	c7 85 44 f5 ff ff ed 	movl   $0x46e14eed,-0xabc(%rbp)
    c59c:	4e e1 46 
    c59f:	c7 85 48 f5 ff ff c9 	movl   $0xf9a250c9,-0xab8(%rbp)
    c5a6:	50 a2 f9 
    c5a9:	c7 85 4c f5 ff ff 8a 	movl   $0xe49d1f8a,-0xab4(%rbp)
    c5b0:	1f 9d e4 
    c5b3:	c7 85 50 f5 ff ff 95 	movl   $0x7ba23a95,-0xab0(%rbp)
    c5ba:	3a a2 7b 
    c5bd:	c7 85 54 f5 ff ff ff 	movl   $0xffffffff,-0xaac(%rbp)
    c5c4:	ff ff ff 
    c5c7:	0f b6 05 bc 32 01 00 	movzbl 0x132bc(%rip),%eax        # 1f88a <g_1107>
    c5ce:	83 c0 01             	add    $0x1,%eax
    c5d1:	88 05 b3 32 01 00    	mov    %al,0x132b3(%rip)        # 1f88a <g_1107>
    c5d7:	0f b7 05 32 1b 01 00 	movzwl 0x11b32(%rip),%eax        # 1e110 <g_226>
    c5de:	98                   	cwtl   
    c5df:	83 c0 05             	add    $0x5,%eax
    c5e2:	48 98                	cltq   
    c5e4:	48 8d 14 c5 00 00 00 	lea    0x0(,%rax,8),%rdx
    c5eb:	00 
    c5ec:	48 8d 05 4d 52 01 00 	lea    0x1524d(%rip),%rax        # 21840 <g_260>
    c5f3:	48 8b 04 02          	mov    (%rdx,%rax,1),%rax
    c5f7:	48 85 c0             	test   %rax,%rax
    c5fa:	0f 95 c0             	setne  %al
    c5fd:	89 c2                	mov    %eax,%edx
    c5ff:	0f b6 05 92 66 01 00 	movzbl 0x16692(%rip),%eax        # 22c98 <g_1120>
    c606:	21 d0                	and    %edx,%eax
    c608:	88 05 8a 66 01 00    	mov    %al,0x1668a(%rip)        # 22c98 <g_1120>
    c60e:	0f b6 05 83 66 01 00 	movzbl 0x16683(%rip),%eax        # 22c98 <g_1120>
    c615:	66 98                	cbtw   
    c617:	0f b7 d8             	movzwl %ax,%ebx
    c61a:	0f b7 05 08 1c 01 00 	movzwl 0x11c08(%rip),%eax        # 1e229 <g_428+0x9>
    c621:	0f b7 c0             	movzwl %ax,%eax
    c624:	8d 50 03             	lea    0x3(%rax),%edx
    c627:	0f b7 05 e2 1a 01 00 	movzwl 0x11ae2(%rip),%eax        # 1e110 <g_226>
    c62e:	98                   	cwtl   
    c62f:	83 c0 04             	add    $0x4,%eax
    c632:	48 63 c8             	movslq %eax,%rcx
    c635:	48 63 d2             	movslq %edx,%rdx
    c638:	48 89 d0             	mov    %rdx,%rax
    c63b:	48 01 c0             	add    %rax,%rax
    c63e:	48 01 d0             	add    %rdx,%rax
    c641:	48 01 c0             	add    %rax,%rax
    c644:	48 01 c8             	add    %rcx,%rax
    c647:	48 8d 14 85 00 00 00 	lea    0x0(,%rax,4),%rdx
    c64e:	00 
    c64f:	48 8d 05 ca 1a 01 00 	lea    0x11aca(%rip),%rax        # 1e120 <g_231>
    c656:	8b 04 02             	mov    (%rdx,%rax,1),%eax
    c659:	89 c6                	mov    %eax,%esi
    c65b:	bf 34 85 4f 80       	mov    $0x804f8534,%edi
    c660:	e8 98 c8 ff ff       	callq  8efd <safe_mod_func_uint32_t_u_u>
    c665:	0f be c0             	movsbl %al,%eax
    c668:	be 01 00 00 00       	mov    $0x1,%esi
    c66d:	89 c7                	mov    %eax,%edi
    c66f:	e8 7a bc ff ff       	callq  82ee <safe_lshift_func_int8_t_s_u>
    c674:	48 0f be d0          	movsbq %al,%rdx
    c678:	48 8b 85 30 f6 ff ff 	mov    -0x9d0(%rbp),%rax
    c67f:	48 3b 85 80 f6 ff ff 	cmp    -0x980(%rbp),%rax
    c686:	0f 95 c0             	setne  %al
    c689:	0f b6 c0             	movzbl %al,%eax
    c68c:	48 89 d6             	mov    %rdx,%rsi
    c68f:	48 89 c7             	mov    %rax,%rdi
    c692:	e8 b4 c9 ff ff       	callq  904b <safe_sub_func_uint64_t_u_u>
    c697:	66 0d 1b 6f          	or     $0x6f1b,%ax
    c69b:	f7 d0                	not    %eax
    c69d:	0f b7 c0             	movzwl %ax,%eax
    c6a0:	89 de                	mov    %ebx,%esi
    c6a2:	89 c7                	mov    %eax,%edi
    c6a4:	e8 e5 c6 ff ff       	callq  8d8e <safe_div_func_uint16_t_u_u>
    c6a9:	0f b7 c0             	movzwl %ax,%eax
    c6ac:	89 85 c8 fc ff ff    	mov    %eax,-0x338(%rbp)
    c6b2:	8b 85 f4 f8 ff ff    	mov    -0x70c(%rbp),%eax
    c6b8:	83 e8 01             	sub    $0x1,%eax
    c6bb:	89 85 f4 f8 ff ff    	mov    %eax,-0x70c(%rbp)
    c6c1:	0f b7 05 48 1a 01 00 	movzwl 0x11a48(%rip),%eax        # 1e110 <g_226>
    c6c8:	83 e8 01             	sub    $0x1,%eax
    c6cb:	66 89 05 3e 1a 01 00 	mov    %ax,0x11a3e(%rip)        # 1e110 <g_226>
    c6d2:	0f b7 05 37 1a 01 00 	movzwl 0x11a37(%rip),%eax        # 1e110 <g_226>
    c6d9:	66 85 c0             	test   %ax,%ax
    c6dc:	0f 89 a9 fe ff ff    	jns    c58b <func_33+0x16fa>
    c6e2:	0f b7 05 40 1b 01 00 	movzwl 0x11b40(%rip),%eax        # 1e229 <g_428+0x9>
    c6e9:	83 c0 01             	add    $0x1,%eax
    c6ec:	66 89 05 36 1b 01 00 	mov    %ax,0x11b36(%rip)        # 1e229 <g_428+0x9>
    c6f3:	0f b7 05 2f 1b 01 00 	movzwl 0x11b2f(%rip),%eax        # 1e229 <g_428+0x9>
    c6fa:	66 83 f8 01          	cmp    $0x1,%ax
    c6fe:	0f 86 f3 fd ff ff    	jbe    c4f7 <func_33+0x1666>
    c704:	66 c7 05 01 1a 01 00 	movw   $0x0,0x11a01(%rip)        # 1e10e <g_224>
    c70b:	00 00 
    c70d:	e9 31 18 00 00       	jmpq   df43 <func_33+0x30b2>
    c712:	c7 85 c4 f4 ff ff 2b 	movl   $0x50b5802b,-0xb3c(%rbp)
    c719:	80 b5 50 
    c71c:	48 8d 05 1d 31 01 00 	lea    0x1311d(%rip),%rax        # 1f840 <g_910>
    c723:	48 89 85 c8 f6 ff ff 	mov    %rax,-0x938(%rbp)
    c72a:	48 8d 05 8f 31 01 00 	lea    0x1318f(%rip),%rax        # 1f8c0 <g_1145+0x20>
    c731:	48 89 85 d0 f6 ff ff 	mov    %rax,-0x930(%rbp)
    c738:	c7 85 c8 f4 ff ff 03 	movl   $0x3,-0xb38(%rbp)
    c73f:	00 00 00 
    c742:	c7 85 cc f4 ff ff 00 	movl   $0x0,-0xb34(%rbp)
    c749:	00 00 00 
    c74c:	c7 85 68 f5 ff ff fd 	movl   $0xfffffffd,-0xa98(%rbp)
    c753:	ff ff ff 
    c756:	c7 85 d0 f4 ff ff 01 	movl   $0x1,-0xb30(%rbp)
    c75d:	00 00 00 
    c760:	48 c7 85 18 f6 ff ff 	movq   $0x1,-0x9e8(%rbp)
    c767:	01 00 00 00 
    c76b:	c7 85 70 f8 ff ff dd 	movl   $0xc6e219dd,-0x790(%rbp)
    c772:	19 e2 c6 
    c775:	c7 85 74 f8 ff ff cf 	movl   $0x20aa90cf,-0x78c(%rbp)
    c77c:	90 aa 20 
    c77f:	c7 85 78 f8 ff ff cf 	movl   $0x20aa90cf,-0x788(%rbp)
    c786:	90 aa 20 
    c789:	c7 85 7c f8 ff ff dd 	movl   $0xc6e219dd,-0x784(%rbp)
    c790:	19 e2 c6 
    c793:	c7 85 80 f8 ff ff d3 	movl   $0xa10686d3,-0x780(%rbp)
    c79a:	86 06 a1 
    c79d:	c7 85 84 f8 ff ff dd 	movl   $0xc6e219dd,-0x77c(%rbp)
    c7a4:	19 e2 c6 
    c7a7:	c7 85 88 f8 ff ff cf 	movl   $0x20aa90cf,-0x778(%rbp)
    c7ae:	90 aa 20 
    c7b1:	c7 85 8c f8 ff ff cf 	movl   $0x20aa90cf,-0x774(%rbp)
    c7b8:	90 aa 20 
    c7bb:	c7 85 90 f8 ff ff dd 	movl   $0xc6e219dd,-0x770(%rbp)
    c7c2:	19 e2 c6 
    c7c5:	c7 85 94 f8 ff ff d3 	movl   $0xa10686d3,-0x76c(%rbp)
    c7cc:	86 06 a1 
    c7cf:	c7 85 98 f8 ff ff dd 	movl   $0xc6e219dd,-0x768(%rbp)
    c7d6:	19 e2 c6 
    c7d9:	c7 85 9c f8 ff ff cf 	movl   $0x20aa90cf,-0x764(%rbp)
    c7e0:	90 aa 20 
    c7e3:	c7 85 a0 f8 ff ff cf 	movl   $0x20aa90cf,-0x760(%rbp)
    c7ea:	90 aa 20 
    c7ed:	c7 85 a4 f8 ff ff dd 	movl   $0xc6e219dd,-0x75c(%rbp)
    c7f4:	19 e2 c6 
    c7f7:	c7 85 a8 f8 ff ff d3 	movl   $0xa10686d3,-0x758(%rbp)
    c7fe:	86 06 a1 
    c801:	c7 85 ac f8 ff ff dd 	movl   $0xc6e219dd,-0x754(%rbp)
    c808:	19 e2 c6 
    c80b:	c7 85 b0 f8 ff ff cf 	movl   $0x20aa90cf,-0x750(%rbp)
    c812:	90 aa 20 
    c815:	c7 85 b4 f8 ff ff cf 	movl   $0x20aa90cf,-0x74c(%rbp)
    c81c:	90 aa 20 
    c81f:	c7 85 b8 f8 ff ff dd 	movl   $0xc6e219dd,-0x748(%rbp)
    c826:	19 e2 c6 
    c829:	c7 85 bc f8 ff ff d3 	movl   $0xa10686d3,-0x744(%rbp)
    c830:	86 06 a1 
    c833:	c7 85 c0 f8 ff ff dd 	movl   $0xc6e219dd,-0x740(%rbp)
    c83a:	19 e2 c6 
    c83d:	c7 85 c4 f8 ff ff cf 	movl   $0x20aa90cf,-0x73c(%rbp)
    c844:	90 aa 20 
    c847:	c7 85 c8 f8 ff ff cf 	movl   $0x20aa90cf,-0x738(%rbp)
    c84e:	90 aa 20 
    c851:	c7 85 cc f8 ff ff dd 	movl   $0xc6e219dd,-0x734(%rbp)
    c858:	19 e2 c6 
    c85b:	c7 85 d0 f8 ff ff d3 	movl   $0xa10686d3,-0x730(%rbp)
    c862:	86 06 a1 
    c865:	c7 85 d4 f4 ff ff f9 	movl   $0xfffffff9,-0xb2c(%rbp)
    c86c:	ff ff ff 
    c86f:	48 c7 85 d8 f6 ff ff 	movq   $0x4,-0x928(%rbp)
    c876:	04 00 00 00 
    c87a:	48 8d 05 0f 64 01 00 	lea    0x1640f(%rip),%rax        # 22c90 <g_492>
    c881:	48 89 85 f0 f5 ff ff 	mov    %rax,-0xa10(%rbp)
    c888:	48 8d 85 f0 f5 ff ff 	lea    -0xa10(%rbp),%rax
    c88f:	48 89 85 f8 f5 ff ff 	mov    %rax,-0xa08(%rbp)
    c896:	66 c7 85 a8 f4 ff ff 	movw   $0x9b01,-0xb58(%rbp)
    c89d:	01 9b 
    c89f:	48 8d 05 82 19 01 00 	lea    0x11982(%rip),%rax        # 1e228 <g_428+0x8>
    c8a6:	48 89 85 e0 f6 ff ff 	mov    %rax,-0x920(%rbp)
    c8ad:	0f b7 85 9c f4 ff ff 	movzwl -0xb64(%rbp),%eax
    c8b4:	0f be d8             	movsbl %al,%ebx
    c8b7:	48 8b 85 c8 f6 ff ff 	mov    -0x938(%rbp),%rax
    c8be:	8b 00                	mov    (%rax),%eax
    c8c0:	8d 50 ff             	lea    -0x1(%rax),%edx
    c8c3:	48 8b 85 c8 f6 ff ff 	mov    -0x938(%rbp),%rax
    c8ca:	89 10                	mov    %edx,(%rax)
    c8cc:	48 8b 85 c8 f6 ff ff 	mov    -0x938(%rbp),%rax
    c8d3:	8b 10                	mov    (%rax),%edx
    c8d5:	48 8b 85 d0 f6 ff ff 	mov    -0x930(%rbp),%rax
    c8dc:	8b 00                	mov    (%rax),%eax
    c8de:	09 c2                	or     %eax,%edx
    c8e0:	48 8b 85 d0 f6 ff ff 	mov    -0x930(%rbp),%rax
    c8e7:	89 10                	mov    %edx,(%rax)
    c8e9:	48 8b 85 d0 f6 ff ff 	mov    -0x930(%rbp),%rax
    c8f0:	8b 00                	mov    (%rax),%eax
    c8f2:	8b 95 c4 f4 ff ff    	mov    -0xb3c(%rbp),%edx
    c8f8:	39 d0                	cmp    %edx,%eax
    c8fa:	0f 93 c0             	setae  %al
    c8fd:	44 0f b6 e0          	movzbl %al,%r12d
    c901:	8b 85 64 f7 ff ff    	mov    -0x89c(%rbp),%eax
    c907:	83 e8 01             	sub    $0x1,%eax
    c90a:	89 85 64 f7 ff ff    	mov    %eax,-0x89c(%rbp)
    c910:	8b 05 b6 18 01 00    	mov    0x118b6(%rip),%eax        # 1e1cc <g_374>
    c916:	0f b7 d0             	movzwl %ax,%edx
    c919:	0f b7 85 9c f4 ff ff 	movzwl -0xb64(%rbp),%eax
    c920:	0f b7 c0             	movzwl %ax,%eax
    c923:	89 85 c8 f4 ff ff    	mov    %eax,-0xb38(%rbp)
    c929:	8b 85 c8 f4 ff ff    	mov    -0xb38(%rbp),%eax
    c92f:	0f b7 c0             	movzwl %ax,%eax
    c932:	89 d6                	mov    %edx,%esi
    c934:	89 c7                	mov    %eax,%edi
    c936:	e8 02 c4 ff ff       	callq  8d3d <safe_mul_func_uint16_t_u_u>
    c93b:	0f b7 c0             	movzwl %ax,%eax
    c93e:	41 39 c4             	cmp    %eax,%r12d
    c941:	0f 9c c0             	setl   %al
    c944:	0f b6 c0             	movzbl %al,%eax
    c947:	89 c6                	mov    %eax,%esi
    c949:	bf aa ff ff ff       	mov    $0xffffffaa,%edi
    c94e:	e8 bf b8 ff ff       	callq  8212 <safe_mul_func_int8_t_s_s>
    c953:	0f b7 85 ac f4 ff ff 	movzwl -0xb54(%rbp),%eax
    c95a:	48 89 c6             	mov    %rax,%rsi
    c95d:	bf 01 00 00 00       	mov    $0x1,%edi
    c962:	e8 90 c0 ff ff       	callq  89f7 <safe_div_func_int64_t_s_s>
    c967:	0f b6 05 a1 2e 01 00 	movzbl 0x12ea1(%rip),%eax        # 1f80f <g_780+0xf>
    c96e:	0f b7 15 9b 2e 01 00 	movzwl 0x12e9b(%rip),%edx        # 1f810 <g_780+0x10>
    c975:	81 e2 ff 7f 00 00    	and    $0x7fff,%edx
    c97b:	48 c1 e2 08          	shl    $0x8,%rdx
    c97f:	48 09 d0             	or     %rdx,%rax
    c982:	48 c1 e0 29          	shl    $0x29,%rax
    c986:	48 c1 f8 29          	sar    $0x29,%rax
    c98a:	85 c0                	test   %eax,%eax
    c98c:	75 0c                	jne    c99a <func_33+0x1b09>
    c98e:	0f b7 85 9c f4 ff ff 	movzwl -0xb64(%rbp),%eax
    c995:	66 85 c0             	test   %ax,%ax
    c998:	74 07                	je     c9a1 <func_33+0x1b10>
    c99a:	b8 01 00 00 00       	mov    $0x1,%eax
    c99f:	eb 05                	jmp    c9a6 <func_33+0x1b15>
    c9a1:	b8 00 00 00 00       	mov    $0x0,%eax
    c9a6:	98                   	cwtl   
    c9a7:	be 00 00 00 00       	mov    $0x0,%esi
    c9ac:	89 c7                	mov    %eax,%edi
    c9ae:	e8 42 ba ff ff       	callq  83f5 <safe_mul_func_int16_t_s_s>
    c9b3:	89 de                	mov    %ebx,%esi
    c9b5:	bf ff ff ff ff       	mov    $0xffffffff,%edi
    c9ba:	e8 53 b8 ff ff       	callq  8212 <safe_mul_func_int8_t_s_s>
    c9bf:	0f be d0             	movsbl %al,%edx
    c9c2:	0f b7 05 45 17 01 00 	movzwl 0x11745(%rip),%eax        # 1e10e <g_224>
    c9c9:	0f bf c8             	movswl %ax,%ecx
    c9cc:	0f b7 05 3b 17 01 00 	movzwl 0x1173b(%rip),%eax        # 1e10e <g_224>
    c9d3:	98                   	cwtl   
    c9d4:	48 63 c9             	movslq %ecx,%rcx
    c9d7:	48 8d 34 09          	lea    (%rcx,%rcx,1),%rsi
    c9db:	48 8d 0d 56 2e 01 00 	lea    0x12e56(%rip),%rcx        # 1f838 <g_783>
    c9e2:	0f b7 0c 0e          	movzwl (%rsi,%rcx,1),%ecx
    c9e6:	48 63 f0             	movslq %eax,%rsi
    c9e9:	48 8d 3c 36          	lea    (%rsi,%rsi,1),%rdi
    c9ed:	48 8d 35 44 2e 01 00 	lea    0x12e44(%rip),%rsi        # 1f838 <g_783>
    c9f4:	66 89 0c 37          	mov    %cx,(%rdi,%rsi,1)
    c9f8:	48 98                	cltq   
    c9fa:	48 8d 0c 00          	lea    (%rax,%rax,1),%rcx
    c9fe:	48 8d 05 33 2e 01 00 	lea    0x12e33(%rip),%rax        # 1f838 <g_783>
    ca05:	0f b7 04 01          	movzwl (%rcx,%rax,1),%eax
    ca09:	98                   	cwtl   
    ca0a:	89 d6                	mov    %edx,%esi
    ca0c:	89 c7                	mov    %eax,%edi
    ca0e:	e8 a0 b9 ff ff       	callq  83b3 <safe_add_func_int16_t_s_s>
    ca13:	98                   	cwtl   
    ca14:	89 05 72 17 01 00    	mov    %eax,0x11772(%rip)        # 1e18c <g_231+0x6c>
    ca1a:	48 83 bd d8 f6 ff ff 	cmpq   $0x0,-0x928(%rbp)
    ca21:	00 
    ca22:	0f 85 2e 15 00 00    	jne    df56 <func_33+0x30c5>
    ca28:	66 c7 05 98 2b 01 00 	movw   $0x1,0x12b98(%rip)        # 1f5c9 <g_436+0x9>
    ca2f:	01 00 
    ca31:	e9 80 0e 00 00       	jmpq   d8b6 <func_33+0x2a25>
    ca36:	48 8d 85 f8 f5 ff ff 	lea    -0xa08(%rbp),%rax
    ca3d:	48 89 85 e8 f6 ff ff 	mov    %rax,-0x918(%rbp)
    ca44:	48 c7 85 f0 f6 ff ff 	movq   $0x0,-0x910(%rbp)
    ca4b:	00 00 00 00 
    ca4f:	48 8d 05 72 17 01 00 	lea    0x11772(%rip),%rax        # 1e1c8 <g_331>
    ca56:	48 89 85 00 f6 ff ff 	mov    %rax,-0xa00(%rbp)
    ca5d:	c7 85 6c f5 ff ff 08 	movl   $0x8,-0xa94(%rbp)
    ca64:	00 00 00 
    ca67:	48 8d 85 c8 f5 ff ff 	lea    -0xa38(%rbp),%rax
    ca6e:	48 89 85 e0 f8 ff ff 	mov    %rax,-0x720(%rbp)
    ca75:	48 8d 85 c8 f5 ff ff 	lea    -0xa38(%rbp),%rax
    ca7c:	48 89 85 e8 f8 ff ff 	mov    %rax,-0x718(%rbp)
    ca83:	48 8d 85 c8 f5 ff ff 	lea    -0xa38(%rbp),%rax
    ca8a:	48 89 85 f0 f8 ff ff 	mov    %rax,-0x710(%rbp)
    ca91:	48 8d 85 c8 f5 ff ff 	lea    -0xa38(%rbp),%rax
    ca98:	48 89 85 f8 f8 ff ff 	mov    %rax,-0x708(%rbp)
    ca9f:	48 8d 85 c8 f5 ff ff 	lea    -0xa38(%rbp),%rax
    caa6:	48 89 85 00 f9 ff ff 	mov    %rax,-0x700(%rbp)
    caad:	48 8d 85 c8 f5 ff ff 	lea    -0xa38(%rbp),%rax
    cab4:	48 89 85 08 f9 ff ff 	mov    %rax,-0x6f8(%rbp)
    cabb:	48 8d 85 c8 f5 ff ff 	lea    -0xa38(%rbp),%rax
    cac2:	48 89 85 10 f9 ff ff 	mov    %rax,-0x6f0(%rbp)
    cac9:	48 8d 85 c8 f5 ff ff 	lea    -0xa38(%rbp),%rax
    cad0:	48 89 85 18 f9 ff ff 	mov    %rax,-0x6e8(%rbp)
    cad7:	48 8d 85 c8 f5 ff ff 	lea    -0xa38(%rbp),%rax
    cade:	48 89 85 20 f9 ff ff 	mov    %rax,-0x6e0(%rbp)
    cae5:	48 c7 85 28 f9 ff ff 	movq   $0x0,-0x6d8(%rbp)
    caec:	00 00 00 00 
    caf0:	48 8d 85 c8 f5 ff ff 	lea    -0xa38(%rbp),%rax
    caf7:	48 89 85 30 f9 ff ff 	mov    %rax,-0x6d0(%rbp)
    cafe:	48 8d 85 c8 f5 ff ff 	lea    -0xa38(%rbp),%rax
    cb05:	48 89 85 38 f9 ff ff 	mov    %rax,-0x6c8(%rbp)
    cb0c:	48 8d 85 c8 f5 ff ff 	lea    -0xa38(%rbp),%rax
    cb13:	48 89 85 40 f9 ff ff 	mov    %rax,-0x6c0(%rbp)
    cb1a:	48 8d 85 c8 f5 ff ff 	lea    -0xa38(%rbp),%rax
    cb21:	48 89 85 48 f9 ff ff 	mov    %rax,-0x6b8(%rbp)
    cb28:	48 8d 85 c8 f5 ff ff 	lea    -0xa38(%rbp),%rax
    cb2f:	48 89 85 50 f9 ff ff 	mov    %rax,-0x6b0(%rbp)
    cb36:	48 c7 85 58 f9 ff ff 	movq   $0x0,-0x6a8(%rbp)
    cb3d:	00 00 00 00 
    cb41:	48 c7 85 60 f9 ff ff 	movq   $0x0,-0x6a0(%rbp)
    cb48:	00 00 00 00 
    cb4c:	48 8d 85 c8 f5 ff ff 	lea    -0xa38(%rbp),%rax
    cb53:	48 89 85 68 f9 ff ff 	mov    %rax,-0x698(%rbp)
    cb5a:	c7 85 70 f5 ff ff 42 	movl   $0x7f2dc542,-0xa90(%rbp)
    cb61:	c5 2d 7f 
    cb64:	c7 85 d8 f4 ff ff c0 	movl   $0xecd985c0,-0xb28(%rbp)
    cb6b:	85 d9 ec 
    cb6e:	c7 85 74 f5 ff ff f1 	movl   $0x51c7ddf1,-0xa8c(%rbp)
    cb75:	dd c7 51 
    cb78:	c7 85 78 f5 ff ff f7 	movl   $0xfffffff7,-0xa88(%rbp)
    cb7f:	ff ff ff 
    cb82:	c7 85 7c f5 ff ff f8 	movl   $0xfffffff8,-0xa84(%rbp)
    cb89:	ff ff ff 
    cb8c:	c7 85 80 f5 ff ff 21 	movl   $0xe1a51421,-0xa80(%rbp)
    cb93:	14 a5 e1 
    cb96:	48 8d 05 5b 2c 01 00 	lea    0x12c5b(%rip),%rax        # 1f7f8 <g_744>
    cb9d:	48 89 85 f8 f6 ff ff 	mov    %rax,-0x908(%rbp)
    cba4:	c6 85 a3 f4 ff ff ff 	movb   $0xff,-0xb5d(%rbp)
    cbab:	48 8d 05 f6 4c 01 00 	lea    0x14cf6(%rip),%rax        # 218a8 <g_406>
    cbb2:	48 89 85 08 f6 ff ff 	mov    %rax,-0x9f8(%rbp)
    cbb9:	0f b7 85 9c f4 ff ff 	movzwl -0xb64(%rbp),%eax
    cbc0:	66 85 c0             	test   %ax,%ax
    cbc3:	0f 85 00 0d 00 00    	jne    d8c9 <func_33+0x2a38>
    cbc9:	48 8b 95 f8 f5 ff ff 	mov    -0xa08(%rbp),%rdx
    cbd0:	48 8b 85 e8 f6 ff ff 	mov    -0x918(%rbp),%rax
    cbd7:	48 89 10             	mov    %rdx,(%rax)
    cbda:	0f b7 05 dc 15 01 00 	movzwl 0x115dc(%rip),%eax        # 1e1bd <g_271+0xd>
    cbe1:	0f b7 d0             	movzwl %ax,%edx
    cbe4:	0f b7 85 a8 f4 ff ff 	movzwl -0xb58(%rbp),%eax
    cbeb:	66 83 f8 6a          	cmp    $0x6a,%ax
    cbef:	0f 9f c0             	setg   %al
    cbf2:	0f b6 c0             	movzbl %al,%eax
    cbf5:	48 89 d6             	mov    %rdx,%rsi
    cbf8:	48 89 c7             	mov    %rax,%rdi
    cbfb:	e8 2e c4 ff ff       	callq  902e <safe_add_func_uint64_t_u_u>
    cc00:	0f b6 c0             	movzbl %al,%eax
    cc03:	89 c6                	mov    %eax,%esi
    cc05:	bf ff 00 00 00       	mov    $0xff,%edi
    cc0a:	e8 84 bf ff ff       	callq  8b93 <safe_mul_func_uint8_t_u_u>
    cc0f:	0f b7 85 9c f4 ff ff 	movzwl -0xb64(%rbp),%eax
    cc16:	0f b7 d8             	movzwl %ax,%ebx
    cc19:	0f b7 85 9c f4 ff ff 	movzwl -0xb64(%rbp),%eax
    cc20:	44 0f b7 e0          	movzwl %ax,%r12d
    cc24:	48 83 bd f0 f6 ff ff 	cmpq   $0x0,-0x910(%rbp)
    cc2b:	00 
    cc2c:	0f 95 c0             	setne  %al
    cc2f:	0f b6 c0             	movzbl %al,%eax
    cc32:	c1 e0 09             	shl    $0x9,%eax
    cc35:	c1 f8 09             	sar    $0x9,%eax
    cc38:	89 c2                	mov    %eax,%edx
    cc3a:	0f b6 ca             	movzbl %dl,%ecx
    cc3d:	0f b6 15 eb 2b 01 00 	movzbl 0x12beb(%rip),%edx        # 1f82f <g_782+0xf>
    cc44:	83 e2 00             	and    $0x0,%edx
    cc47:	09 ca                	or     %ecx,%edx
    cc49:	88 15 e0 2b 01 00    	mov    %dl,0x12be0(%rip)        # 1f82f <g_782+0xf>
    cc4f:	89 c2                	mov    %eax,%edx
    cc51:	c1 ea 08             	shr    $0x8,%edx
    cc54:	89 d2                	mov    %edx,%edx
    cc56:	0f b6 ca             	movzbl %dl,%ecx
    cc59:	0f b6 15 d0 2b 01 00 	movzbl 0x12bd0(%rip),%edx        # 1f830 <g_782+0x10>
    cc60:	83 e2 00             	and    $0x0,%edx
    cc63:	09 ca                	or     %ecx,%edx
    cc65:	88 15 c5 2b 01 00    	mov    %dl,0x12bc5(%rip)        # 1f830 <g_782+0x10>
    cc6b:	c1 e8 10             	shr    $0x10,%eax
    cc6e:	89 c0                	mov    %eax,%eax
    cc70:	83 e0 7f             	and    $0x7f,%eax
    cc73:	89 c2                	mov    %eax,%edx
    cc75:	83 e2 7f             	and    $0x7f,%edx
    cc78:	0f b6 05 b2 2b 01 00 	movzbl 0x12bb2(%rip),%eax        # 1f831 <g_782+0x11>
    cc7f:	83 e0 80             	and    $0xffffff80,%eax
    cc82:	09 d0                	or     %edx,%eax
    cc84:	88 05 a7 2b 01 00    	mov    %al,0x12ba7(%rip)        # 1f831 <g_782+0x11>
    cc8a:	0f b6 05 07 60 01 00 	movzbl 0x16007(%rip),%eax        # 22c98 <g_1120>
    cc91:	3c 01                	cmp    $0x1,%al
    cc93:	0f 95 c0             	setne  %al
    cc96:	0f b6 c0             	movzbl %al,%eax
    cc99:	89 c6                	mov    %eax,%esi
    cc9b:	bf 47 00 00 00       	mov    $0x47,%edi
    cca0:	e8 ee be ff ff       	callq  8b93 <safe_mul_func_uint8_t_u_u>
    cca5:	0f b7 85 9c f4 ff ff 	movzwl -0xb64(%rbp),%eax
    ccac:	0f b7 c0             	movzwl %ax,%eax
    ccaf:	44 89 e6             	mov    %r12d,%esi
    ccb2:	89 c7                	mov    %eax,%edi
    ccb4:	e8 84 c0 ff ff       	callq  8d3d <safe_mul_func_uint16_t_u_u>
    ccb9:	0f b7 c0             	movzwl %ax,%eax
    ccbc:	89 de                	mov    %ebx,%esi
    ccbe:	89 c7                	mov    %eax,%edi
    ccc0:	e8 38 c2 ff ff       	callq  8efd <safe_mod_func_uint32_t_u_u>
    ccc5:	3d 82 00 00 00       	cmp    $0x82,%eax
    ccca:	0f 97 c0             	seta   %al
    cccd:	0f b6 c0             	movzbl %al,%eax
    ccd0:	be 03 00 00 00       	mov    $0x3,%esi
    ccd5:	89 c7                	mov    %eax,%edi
    ccd7:	e8 05 b8 ff ff       	callq  84e1 <safe_lshift_func_int16_t_s_u>
    ccdc:	48 8b 85 00 f6 ff ff 	mov    -0xa00(%rbp),%rax
    cce3:	66 0f be 95 a5 f4 ff 	movsbw -0xb5b(%rbp),%dx
    ccea:	ff 
    cceb:	66 89 10             	mov    %dx,(%rax)
    ccee:	0f b7 00             	movzwl (%rax),%eax
    ccf1:	98                   	cwtl   
    ccf2:	be 8b ff ff ff       	mov    $0xffffff8b,%esi
    ccf7:	89 c7                	mov    %eax,%edi
    ccf9:	e8 57 b7 ff ff       	callq  8455 <safe_div_func_int16_t_s_s>
    ccfe:	66 85 c0             	test   %ax,%ax
    cd01:	0f 84 03 03 00 00    	je     d00a <func_33+0x2179>
    cd07:	c7 85 8c f5 ff ff f5 	movl   $0xbc194bf5,-0xa74(%rbp)
    cd0e:	4b 19 bc 
    cd11:	c7 85 90 f5 ff ff 26 	movl   $0x871ce826,-0xa70(%rbp)
    cd18:	e8 1c 87 
    cd1b:	c7 85 94 f5 ff ff e2 	movl   $0xd2a29fe2,-0xa6c(%rbp)
    cd22:	9f a2 d2 
    cd25:	c7 85 98 f5 ff ff 78 	movl   $0x3edf2e78,-0xa68(%rbp)
    cd2c:	2e df 3e 
    cd2f:	c7 85 9c f5 ff ff a1 	movl   $0x46c31ba1,-0xa64(%rbp)
    cd36:	1b c3 46 
    cd39:	c7 85 a0 f5 ff ff cc 	movl   $0x24ff0dcc,-0xa60(%rbp)
    cd40:	0d ff 24 
    cd43:	48 8d 05 4e 5f 01 00 	lea    0x15f4e(%rip),%rax        # 22c98 <g_1120>
    cd4a:	48 89 85 10 f7 ff ff 	mov    %rax,-0x8f0(%rbp)
    cd51:	48 8d 85 d0 f5 ff ff 	lea    -0xa30(%rbp),%rax
    cd58:	48 89 85 10 f6 ff ff 	mov    %rax,-0x9f0(%rbp)
    cd5f:	48 8d 85 10 f6 ff ff 	lea    -0x9f0(%rbp),%rax
    cd66:	48 89 85 18 f7 ff ff 	mov    %rax,-0x8e8(%rbp)
    cd6d:	83 ad 8c f5 ff ff 01 	subl   $0x1,-0xa74(%rbp)
    cd74:	0f b7 85 9c f4 ff ff 	movzwl -0xb64(%rbp),%eax
    cd7b:	0f b7 c0             	movzwl %ax,%eax
    cd7e:	89 85 6c f5 ff ff    	mov    %eax,-0xa94(%rbp)
    cd84:	48 8b 95 00 f9 ff ff 	mov    -0x700(%rbp),%rdx
    cd8b:	48 8b 05 9e 53 01 00 	mov    0x1539e(%rip),%rax        # 22130 <g_1193>
    cd92:	48 39 c2             	cmp    %rax,%rdx
    cd95:	0f 84 18 01 00 00    	je     ceb3 <func_33+0x2022>
    cd9b:	c6 85 a6 f4 ff ff 6b 	movb   $0x6b,-0xb5a(%rbp)
    cda2:	c7 85 a4 f5 ff ff 29 	movl   $0x6ac86729,-0xa5c(%rbp)
    cda9:	67 c8 6a 
    cdac:	c7 85 a8 f5 ff ff 00 	movl   $0x0,-0xa58(%rbp)
    cdb3:	00 00 00 
    cdb6:	c7 85 ac f5 ff ff c4 	movl   $0xd52e73c4,-0xa54(%rbp)
    cdbd:	73 2e d5 
    cdc0:	c7 85 00 f8 ff ff 03 	movl   $0x3,-0x800(%rbp)
    cdc7:	00 00 00 
    cdca:	c7 85 04 f8 ff ff 03 	movl   $0x3,-0x7fc(%rbp)
    cdd1:	00 00 00 
    cdd4:	c7 85 08 f8 ff ff 03 	movl   $0x3,-0x7f8(%rbp)
    cddb:	00 00 00 
    cdde:	c7 85 0c f8 ff ff 03 	movl   $0x3,-0x7f4(%rbp)
    cde5:	00 00 00 
    cde8:	c7 85 10 f8 ff ff 03 	movl   $0x3,-0x7f0(%rbp)
    cdef:	00 00 00 
    cdf2:	48 8d 85 10 fb ff ff 	lea    -0x4f0(%rbp),%rax
    cdf9:	48 8d 15 a0 c6 00 00 	lea    0xc6a0(%rip),%rdx        # 194a0 <g_386+0x44c>
    ce00:	b9 28 00 00 00       	mov    $0x28,%ecx
    ce05:	48 89 c7             	mov    %rax,%rdi
    ce08:	48 89 d6             	mov    %rdx,%rsi
    ce0b:	f3 48 a5             	rep movsq %ds:(%rsi),%es:(%rdi)
    ce0e:	48 b8 8d 2a 61 ab 4f 	movabs $0x5353144fab612a8d,%rax
    ce15:	14 53 53 
    ce18:	48 89 85 28 f7 ff ff 	mov    %rax,-0x8d8(%rbp)
    ce1f:	66 c7 05 53 2a 01 00 	movw   $0x0,0x12a53(%rip)        # 1f87b <g_1081+0xb>
    ce26:	00 00 
    ce28:	eb 70                	jmp    ce9a <func_33+0x2009>
    ce2a:	c7 85 b0 f5 ff ff 68 	movl   $0x5bee7f68,-0xa50(%rbp)
    ce31:	7f ee 5b 
    ce34:	c7 85 b4 f5 ff ff ff 	movl   $0xffffffff,-0xa4c(%rbp)
    ce3b:	ff ff ff 
    ce3e:	c7 85 b8 f5 ff ff 2b 	movl   $0xf414d62b,-0xa48(%rbp)
    ce45:	d6 14 f4 
    ce48:	c7 85 04 f5 ff ff 00 	movl   $0x0,-0xafc(%rbp)
    ce4f:	00 00 00 
    ce52:	eb 1a                	jmp    ce6e <func_33+0x1fdd>
    ce54:	8b 85 04 f5 ff ff    	mov    -0xafc(%rbp),%eax
    ce5a:	48 98                	cltq   
    ce5c:	c7 84 85 40 f8 ff ff 	movl   $0x6ddac083,-0x7c0(%rbp,%rax,4)
    ce63:	83 c0 da 6d 
    ce67:	83 85 04 f5 ff ff 01 	addl   $0x1,-0xafc(%rbp)
    ce6e:	83 bd 04 f5 ff ff 04 	cmpl   $0x4,-0xafc(%rbp)
    ce75:	7e dd                	jle    ce54 <func_33+0x1fc3>
    ce77:	48 8b 05 4a 2a 01 00 	mov    0x12a4a(%rip),%rax        # 1f8c8 <g_1215>
    ce7e:	48 83 e8 01          	sub    $0x1,%rax
    ce82:	48 89 05 3f 2a 01 00 	mov    %rax,0x12a3f(%rip)        # 1f8c8 <g_1215>
    ce89:	0f b7 05 eb 29 01 00 	movzwl 0x129eb(%rip),%eax        # 1f87b <g_1081+0xb>
    ce90:	83 c0 01             	add    $0x1,%eax
    ce93:	66 89 05 e1 29 01 00 	mov    %ax,0x129e1(%rip)        # 1f87b <g_1081+0xb>
    ce9a:	0f b7 05 da 29 01 00 	movzwl 0x129da(%rip),%eax        # 1f87b <g_1081+0xb>
    cea1:	66 85 c0             	test   %ax,%ax
    cea4:	74 84                	je     ce2a <func_33+0x1f99>
    cea6:	48 83 ad 28 f7 ff ff 	subq   $0x1,-0x8d8(%rbp)
    cead:	01 
    ceae:	e9 45 01 00 00       	jmpq   cff8 <func_33+0x2167>
    ceb3:	48 8d 85 e8 f5 ff ff 	lea    -0xa18(%rbp),%rax
    ceba:	48 89 85 20 f7 ff ff 	mov    %rax,-0x8e0(%rbp)
    cec1:	48 8b 05 d0 48 01 00 	mov    0x148d0(%rip),%rax        # 21798 <g_43>
    cec8:	48 8d 95 d0 f4 ff ff 	lea    -0xb30(%rbp),%rdx
    cecf:	48 89 10             	mov    %rdx,(%rax)
    ced2:	0f b7 85 9c f4 ff ff 	movzwl -0xb64(%rbp),%eax
    ced9:	83 e8 01             	sub    $0x1,%eax
    cedc:	66 89 85 9c f4 ff ff 	mov    %ax,-0xb64(%rbp)
    cee3:	0f b7 85 9c f4 ff ff 	movzwl -0xb64(%rbp),%eax
    ceea:	44 0f b7 e8          	movzwl %ax,%r13d
    ceee:	8b 85 78 f5 ff ff    	mov    -0xa88(%rbp),%eax
    cef4:	0f bf d8             	movswl %ax,%ebx
    cef7:	8b 85 80 f5 ff ff    	mov    -0xa80(%rbp),%eax
    cefd:	44 0f bf e0          	movswl %ax,%r12d
    cf01:	48 8b 95 e8 f5 ff ff 	mov    -0xa18(%rbp),%rdx
    cf08:	48 8b 85 20 f7 ff ff 	mov    -0x8e0(%rbp),%rax
    cf0f:	48 89 10             	mov    %rdx,(%rax)
    cf12:	48 8b 85 20 f7 ff ff 	mov    -0x8e0(%rbp),%rax
    cf19:	48 8b 00             	mov    (%rax),%rax
    cf1c:	48 39 85 18 f7 ff ff 	cmp    %rax,-0x8e8(%rbp)
    cf23:	41 0f 95 c6          	setne  %r14b
    cf27:	8b 85 9c f5 ff ff    	mov    -0xa64(%rbp),%eax
    cf2d:	0f b7 c0             	movzwl %ax,%eax
    cf30:	89 c7                	mov    %eax,%edi
    cf32:	e8 b2 bd ff ff       	callq  8ce9 <safe_unary_minus_func_uint16_t_u>
    cf37:	0f b7 d0             	movzwl %ax,%edx
    cf3a:	0f b7 05 48 26 01 00 	movzwl 0x12648(%rip),%eax        # 1f589 <g_434+0x9>
    cf41:	0f b7 c0             	movzwl %ax,%eax
    cf44:	39 85 78 f5 ff ff    	cmp    %eax,-0xa88(%rbp)
    cf4a:	0f 9f c0             	setg   %al
    cf4d:	0f b6 c0             	movzbl %al,%eax
    cf50:	39 c2                	cmp    %eax,%edx
    cf52:	0f 9f c0             	setg   %al
    cf55:	44 09 f0             	or     %r14d,%eax
    cf58:	0f b6 c0             	movzbl %al,%eax
    cf5b:	44 89 e6             	mov    %r12d,%esi
    cf5e:	89 c7                	mov    %eax,%edi
    cf60:	e8 b1 b4 ff ff       	callq  8416 <safe_mod_func_int16_t_s_s>
    cf65:	98                   	cwtl   
    cf66:	89 c7                	mov    %eax,%edi
    cf68:	e8 30 b4 ff ff       	callq  839d <safe_unary_minus_func_int16_t_s>
    cf6d:	98                   	cwtl   
    cf6e:	89 de                	mov    %ebx,%esi
    cf70:	89 c7                	mov    %eax,%edi
    cf72:	e8 7e b4 ff ff       	callq  83f5 <safe_mul_func_int16_t_s_s>
    cf77:	0f bf d0             	movswl %ax,%edx
    cf7a:	8b 85 8c f5 ff ff    	mov    -0xa74(%rbp),%eax
    cf80:	89 d6                	mov    %edx,%esi
    cf82:	89 c7                	mov    %eax,%edi
    cf84:	e8 2f bf ff ff       	callq  8eb8 <safe_add_func_uint32_t_u_u>
    cf89:	41 39 c5             	cmp    %eax,%r13d
    cf8c:	0f 95 c2             	setne  %dl
    cf8f:	48 8b 85 00 f6 ff ff 	mov    -0xa00(%rbp),%rax
    cf96:	0f b6 d2             	movzbl %dl,%edx
    cf99:	66 89 10             	mov    %dx,(%rax)
    cf9c:	48 8b 85 10 f7 ff ff 	mov    -0x8f0(%rbp),%rax
    cfa3:	48 89 05 8e 51 01 00 	mov    %rax,0x1518e(%rip)        # 22138 <g_1226>
    cfaa:	48 8b 05 87 51 01 00 	mov    0x15187(%rip),%rax        # 22138 <g_1226>
    cfb1:	48 85 c0             	test   %rax,%rax
    cfb4:	0f 95 c2             	setne  %dl
    cfb7:	48 8b 85 10 f6 ff ff 	mov    -0x9f0(%rbp),%rax
    cfbe:	48 8b 00             	mov    (%rax),%rax
    cfc1:	88 10                	mov    %dl,(%rax)
    cfc3:	0f b6 00             	movzbl (%rax),%eax
    cfc6:	0f b6 d0             	movzbl %al,%edx
    cfc9:	8b 85 90 f5 ff ff    	mov    -0xa70(%rbp),%eax
    cfcf:	0f b6 c0             	movzbl %al,%eax
    cfd2:	89 d6                	mov    %edx,%esi
    cfd4:	89 c7                	mov    %eax,%edi
    cfd6:	e8 e3 bc ff ff       	callq  8cbe <safe_rshift_func_uint8_t_u_u>
    cfdb:	89 c2                	mov    %eax,%edx
    cfdd:	48 8b 05 ac 47 01 00 	mov    0x147ac(%rip),%rax        # 21790 <g_44>
    cfe4:	0f b6 d2             	movzbl %dl,%edx
    cfe7:	89 10                	mov    %edx,(%rax)
    cfe9:	0f b6 05 78 28 01 00 	movzbl 0x12878(%rip),%eax        # 1f868 <g_941>
    cff0:	84 c0                	test   %al,%al
    cff2:	0f 85 a0 08 00 00    	jne    d898 <func_33+0x2a07>
    cff8:	83 bd 6c f5 ff ff 00 	cmpl   $0x0,-0xa94(%rbp)
    cfff:	0f 84 8f 05 00 00    	je     d594 <func_33+0x2703>
    d005:	e9 9b 08 00 00       	jmpq   d8a5 <func_33+0x2a14>
    d00a:	66 c7 85 b2 f4 ff ff 	movw   $0x638c,-0xb4e(%rbp)
    d011:	8c 63 
    d013:	c7 85 84 f5 ff ff 82 	movl   $0x8a15d782,-0xa7c(%rbp)
    d01a:	d7 15 8a 
    d01d:	c7 85 c4 f4 ff ff 00 	movl   $0x0,-0xb3c(%rbp)
    d024:	00 00 00 
    d027:	90                   	nop
    d028:	8b 85 c4 f4 ff ff    	mov    -0xb3c(%rbp),%eax
    d02e:	85 c0                	test   %eax,%eax
    d030:	0f 88 4e 05 00 00    	js     d584 <func_33+0x26f3>
    d036:	c7 85 88 f5 ff ff 00 	movl   $0x0,-0xa78(%rbp)
    d03d:	00 00 00 
    d040:	48 8d 85 d8 f5 ff ff 	lea    -0xa28(%rbp),%rax
    d047:	48 89 85 00 f7 ff ff 	mov    %rax,-0x900(%rbp)
    d04e:	c7 85 dc f4 ff ff 09 	movl   $0x9,-0xb24(%rbp)
    d055:	00 00 00 
    d058:	48 8b 05 d9 50 01 00 	mov    0x150d9(%rip),%rax        # 22138 <g_1226>
    d05f:	0f b6 00             	movzbl (%rax),%eax
    d062:	84 c0                	test   %al,%al
    d064:	74 2b                	je     d091 <func_33+0x2200>
    d066:	bf 01 00 00 00       	mov    $0x1,%edi
    d06b:	e8 2d b3 ff ff       	callq  839d <safe_unary_minus_func_int16_t_s>
    d070:	0f bf d8             	movswl %ax,%ebx
    d073:	8b 85 88 f5 ff ff    	mov    -0xa78(%rbp),%eax
    d079:	98                   	cwtl   
    d07a:	89 c6                	mov    %eax,%esi
    d07c:	bf fe ff ff ff       	mov    $0xfffffffe,%edi
    d081:	e8 90 b3 ff ff       	callq  8416 <safe_mod_func_int16_t_s_s>
    d086:	f7 d0                	not    %eax
    d088:	66 c1 e8 0f          	shr    $0xf,%ax
    d08c:	0f b6 c0             	movzbl %al,%eax
    d08f:	39 c3                	cmp    %eax,%ebx
    d091:	48 8b 05 00 48 01 00 	mov    0x14800(%rip),%rax        # 21898 <g_257+0x8>
    d098:	48 85 c0             	test   %rax,%rax
    d09b:	0f b7 85 9c f4 ff ff 	movzwl -0xb64(%rbp),%eax
    d0a2:	0f b6 d8             	movzbl %al,%ebx
    d0a5:	8b 85 7c f5 ff ff    	mov    -0xa84(%rbp),%eax
    d0ab:	44 0f be e0          	movsbl %al,%r12d
    d0af:	0f b7 85 9c f4 ff ff 	movzwl -0xb64(%rbp),%eax
    d0b6:	44 0f be e8          	movsbl %al,%r13d
    d0ba:	0f b7 85 9c f4 ff ff 	movzwl -0xb64(%rbp),%eax
    d0c1:	44 0f b7 f0          	movzwl %ax,%r14d
    d0c5:	8b 05 19 10 01 00    	mov    0x11019(%rip),%eax        # 1e0e4 <g_130>
    d0cb:	83 f8 fd             	cmp    $0xfffffffd,%eax
    d0ce:	0f 9c c0             	setl   %al
    d0d1:	0f b6 d0             	movzbl %al,%edx
    d0d4:	0f b7 85 b2 f4 ff ff 	movzwl -0xb4e(%rbp),%eax
    d0db:	39 c2                	cmp    %eax,%edx
    d0dd:	0f 9f c0             	setg   %al
    d0e0:	0f b6 d0             	movzbl %al,%edx
    d0e3:	0f b7 85 9c f4 ff ff 	movzwl -0xb64(%rbp),%eax
    d0ea:	0f b7 c0             	movzwl %ax,%eax
    d0ed:	89 d1                	mov    %edx,%ecx
    d0ef:	31 c1                	xor    %eax,%ecx
    d0f1:	0f b7 05 16 10 01 00 	movzwl 0x11016(%rip),%eax        # 1e10e <g_224>
    d0f8:	98                   	cwtl   
    d0f9:	48 98                	cltq   
    d0fb:	48 8d 14 00          	lea    (%rax,%rax,1),%rdx
    d0ff:	48 8d 05 32 27 01 00 	lea    0x12732(%rip),%rax        # 1f838 <g_783>
    d106:	0f b7 04 02          	movzwl (%rdx,%rax,1),%eax
    d10a:	98                   	cwtl   
    d10b:	39 c1                	cmp    %eax,%ecx
    d10d:	0f 9c c0             	setl   %al
    d110:	0f b6 c0             	movzbl %al,%eax
    d113:	be ff ff ff ff       	mov    $0xffffffff,%esi
    d118:	89 c7                	mov    %eax,%edi
    d11a:	e8 99 bd ff ff       	callq  8eb8 <safe_add_func_uint32_t_u_u>
    d11f:	48 be f3 01 ee 93 41 	movabs $0xfc04864193ee01f3,%rsi
    d126:	86 04 fc 
    d129:	48 bf b6 27 4c 90 ab 	movabs $0x608626ab904c27b6,%rdi
    d130:	26 86 60 
    d133:	e8 09 b7 ff ff       	callq  8841 <safe_add_func_int64_t_s_s>
    d138:	48 85 c0             	test   %rax,%rax
    d13b:	75 0a                	jne    d147 <func_33+0x22b6>
    d13d:	66 83 bd b2 f4 ff ff 	cmpw   $0x0,-0xb4e(%rbp)
    d144:	00 
    d145:	74 07                	je     d14e <func_33+0x22bd>
    d147:	b8 01 00 00 00       	mov    $0x1,%eax
    d14c:	eb 05                	jmp    d153 <func_33+0x22c2>
    d14e:	b8 00 00 00 00       	mov    $0x0,%eax
    d153:	83 f8 06             	cmp    $0x6,%eax
    d156:	0f 96 c0             	setbe  %al
    d159:	0f b6 c0             	movzbl %al,%eax
    d15c:	44 89 f6             	mov    %r14d,%esi
    d15f:	89 c7                	mov    %eax,%edi
    d161:	e8 27 bb ff ff       	callq  8c8d <safe_rshift_func_uint8_t_u_s>
    d166:	3c 01                	cmp    $0x1,%al
    d168:	0f 97 c0             	seta   %al
    d16b:	0f b6 c0             	movzbl %al,%eax
    d16e:	44 89 ee             	mov    %r13d,%esi
    d171:	89 c7                	mov    %eax,%edi
    d173:	e8 9a b0 ff ff       	callq  8212 <safe_mul_func_int8_t_s_s>
    d178:	0f b6 c0             	movzbl %al,%eax
    d17b:	be 02 00 00 00       	mov    $0x2,%esi
    d180:	89 c7                	mov    %eax,%edi
    d182:	e8 06 bb ff ff       	callq  8c8d <safe_rshift_func_uint8_t_u_s>
    d187:	48 8b 05 a2 4f 01 00 	mov    0x14fa2(%rip),%rax        # 22130 <g_1193>
    d18e:	48 8b 00             	mov    (%rax),%rax
    d191:	0f b6 00             	movzbl (%rax),%eax
    d194:	0f be c0             	movsbl %al,%eax
    d197:	44 89 e6             	mov    %r12d,%esi
    d19a:	89 c7                	mov    %eax,%edi
    d19c:	e8 51 b0 ff ff       	callq  81f2 <safe_sub_func_int8_t_s_s>
    d1a1:	89 c2                	mov    %eax,%edx
    d1a3:	48 8b 85 e8 f5 ff ff 	mov    -0xa18(%rbp),%rax
    d1aa:	48 8b 00             	mov    (%rax),%rax
    d1ad:	48 8b 00             	mov    (%rax),%rax
    d1b0:	88 10                	mov    %dl,(%rax)
    d1b2:	0f b6 00             	movzbl (%rax),%eax
    d1b5:	0f b6 c0             	movzbl %al,%eax
    d1b8:	66 39 85 b2 f4 ff ff 	cmp    %ax,-0xb4e(%rbp)
    d1bf:	0f 92 c0             	setb   %al
    d1c2:	0f b6 c0             	movzbl %al,%eax
    d1c5:	89 de                	mov    %ebx,%esi
    d1c7:	89 c7                	mov    %eax,%edi
    d1c9:	e8 aa b9 ff ff       	callq  8b78 <safe_sub_func_uint8_t_u_u>
    d1ce:	0f b6 05 32 25 01 00 	movzbl 0x12532(%rip),%eax        # 1f707 <g_440+0x27>
    d1d5:	83 e0 00             	and    $0x0,%eax
    d1d8:	83 c8 01             	or     $0x1,%eax
    d1db:	88 05 26 25 01 00    	mov    %al,0x12526(%rip)        # 1f707 <g_440+0x27>
    d1e1:	0f b6 05 20 25 01 00 	movzbl 0x12520(%rip),%eax        # 1f708 <g_440+0x28>
    d1e8:	83 e0 00             	and    $0x0,%eax
    d1eb:	88 05 17 25 01 00    	mov    %al,0x12517(%rip)        # 1f708 <g_440+0x28>
    d1f1:	0f b6 05 11 25 01 00 	movzbl 0x12511(%rip),%eax        # 1f709 <g_440+0x29>
    d1f8:	83 e0 80             	and    $0xffffff80,%eax
    d1fb:	88 05 08 25 01 00    	mov    %al,0x12508(%rip)        # 1f709 <g_440+0x29>
    d201:	0f b7 85 9c f4 ff ff 	movzwl -0xb64(%rbp),%eax
    d208:	0f b7 d8             	movzwl %ax,%ebx
    d20b:	0f b7 05 ab 0f 01 00 	movzwl 0x10fab(%rip),%eax        # 1e1bd <g_271+0xd>
    d212:	0f b7 c0             	movzwl %ax,%eax
    d215:	0f b6 15 d3 0f 01 00 	movzbl 0x10fd3(%rip),%edx        # 1e1ef <g_407+0xf>
    d21c:	0f b7 0d cd 0f 01 00 	movzwl 0x10fcd(%rip),%ecx        # 1e1f0 <g_407+0x10>
    d223:	81 e1 ff 7f 00 00    	and    $0x7fff,%ecx
    d229:	48 c1 e1 08          	shl    $0x8,%rcx
    d22d:	48 09 ca             	or     %rcx,%rdx
    d230:	48 c1 e2 29          	shl    $0x29,%rdx
    d234:	48 c1 fa 29          	sar    $0x29,%rdx
    d238:	31 d0                	xor    %edx,%eax
    d23a:	41 89 c6             	mov    %eax,%r14d
    d23d:	0f b7 05 ca 0e 01 00 	movzwl 0x10eca(%rip),%eax        # 1e10e <g_224>
    d244:	98                   	cwtl   
    d245:	48 98                	cltq   
    d247:	48 8d 14 00          	lea    (%rax,%rax,1),%rdx
    d24b:	48 8d 05 e6 25 01 00 	lea    0x125e6(%rip),%rax        # 1f838 <g_783>
    d252:	0f b7 04 02          	movzwl (%rdx,%rax,1),%eax
    d256:	44 0f bf e0          	movswl %ax,%r12d
    d25a:	48 8b 05 cf 4e 01 00 	mov    0x14ecf(%rip),%rax        # 22130 <g_1193>
    d261:	48 8b 00             	mov    (%rax),%rax
    d264:	0f b6 00             	movzbl (%rax),%eax
    d267:	0f b6 c0             	movzbl %al,%eax
    d26a:	89 c6                	mov    %eax,%esi
    d26c:	bf 01 00 00 00       	mov    $0x1,%edi
    d271:	e8 02 b9 ff ff       	callq  8b78 <safe_sub_func_uint8_t_u_u>
    d276:	44 0f b6 e8          	movzbl %al,%r13d
    d27a:	0f b7 85 9c f4 ff ff 	movzwl -0xb64(%rbp),%eax
    d281:	0f b7 c0             	movzwl %ax,%eax
    d284:	89 c6                	mov    %eax,%esi
    d286:	bf 01 00 00 00       	mov    $0x1,%edi
    d28b:	e8 76 bb ff ff       	callq  8e06 <safe_lshift_func_uint16_t_u_u>
    d290:	0f be c0             	movsbl %al,%eax
    d293:	89 c7                	mov    %eax,%edi
    d295:	e8 25 af ff ff       	callq  81bf <safe_unary_minus_func_int8_t_s>
    d29a:	0f be c0             	movsbl %al,%eax
    d29d:	41 39 c5             	cmp    %eax,%r13d
    d2a0:	0f 95 c0             	setne  %al
    d2a3:	0f b6 c0             	movzbl %al,%eax
    d2a6:	89 c6                	mov    %eax,%esi
    d2a8:	bf 04 00 00 00       	mov    $0x4,%edi
    d2ad:	e8 c6 b8 ff ff       	callq  8b78 <safe_sub_func_uint8_t_u_u>
    d2b2:	0f b6 c0             	movzbl %al,%eax
    d2b5:	41 39 c4             	cmp    %eax,%r12d
    d2b8:	0f 9e c0             	setle  %al
    d2bb:	0f b6 c0             	movzbl %al,%eax
    d2be:	44 89 f2             	mov    %r14d,%edx
    d2c1:	31 c2                	xor    %eax,%edx
    d2c3:	8b 05 0f 0e 01 00    	mov    0x10e0f(%rip),%eax        # 1e0d8 <g_105>
    d2c9:	39 c2                	cmp    %eax,%edx
    d2cb:	0f 95 c0             	setne  %al
    d2ce:	0f b6 d0             	movzbl %al,%edx
    d2d1:	48 8b 85 00 f7 ff ff 	mov    -0x900(%rbp),%rax
    d2d8:	48 89 10             	mov    %rdx,(%rax)
    d2db:	48 8b 85 00 f7 ff ff 	mov    -0x900(%rbp),%rax
    d2e2:	48 8b 00             	mov    (%rax),%rax
    d2e5:	48 ba 1a 5b 93 08 9e 	movabs $0x79e3eb9e08935b1a,%rdx
    d2ec:	eb e3 79 
    d2ef:	48 39 d0             	cmp    %rdx,%rax
    d2f2:	0f 97 c0             	seta   %al
    d2f5:	0f b6 d0             	movzbl %al,%edx
    d2f8:	8b 85 d0 f4 ff ff    	mov    -0xb30(%rbp),%eax
    d2fe:	21 d0                	and    %edx,%eax
    d300:	89 85 d0 f4 ff ff    	mov    %eax,-0xb30(%rbp)
    d306:	8b 85 d0 f4 ff ff    	mov    -0xb30(%rbp),%eax
    d30c:	0f b7 c0             	movzwl %ax,%eax
    d30f:	89 de                	mov    %ebx,%esi
    d311:	89 c7                	mov    %eax,%edi
    d313:	e8 30 bb ff ff       	callq  8e48 <safe_rshift_func_uint16_t_u_s>
    d318:	8b 85 88 f5 ff ff    	mov    -0xa78(%rbp),%eax
    d31e:	0f bf d0             	movswl %ax,%edx
    d321:	0f b7 85 9c f4 ff ff 	movzwl -0xb64(%rbp),%eax
    d328:	66 83 f8 05          	cmp    $0x5,%ax
    d32c:	0f 96 c0             	setbe  %al
    d32f:	0f b6 c0             	movzbl %al,%eax
    d332:	89 d6                	mov    %edx,%esi
    d334:	89 c7                	mov    %eax,%edi
    d336:	e8 1a b1 ff ff       	callq  8455 <safe_div_func_int16_t_s_s>
    d33b:	66 85 c0             	test   %ax,%ax
    d33e:	74 0c                	je     d34c <func_33+0x24bb>
    d340:	0f b7 85 9c f4 ff ff 	movzwl -0xb64(%rbp),%eax
    d347:	e9 18 0c 00 00       	jmpq   df64 <func_33+0x30d3>
    d34c:	48 c7 85 10 f6 ff ff 	movq   $0x0,-0x9f0(%rbp)
    d353:	00 00 00 00 
    d357:	48 8d 85 10 f6 ff ff 	lea    -0x9f0(%rbp),%rax
    d35e:	48 89 85 08 f7 ff ff 	mov    %rax,-0x8f8(%rbp)
    d365:	c7 85 08 f5 ff ff 00 	movl   $0x0,-0xaf8(%rbp)
    d36c:	00 00 00 
    d36f:	eb 1a                	jmp    d38b <func_33+0x24fa>
    d371:	8b 85 08 f5 ff ff    	mov    -0xaf8(%rbp),%eax
    d377:	48 98                	cltq   
    d379:	c7 84 85 10 fb ff ff 	movl   $0x0,-0x4f0(%rbp,%rax,4)
    d380:	00 00 00 00 
    d384:	83 85 08 f5 ff ff 01 	addl   $0x1,-0xaf8(%rbp)
    d38b:	83 bd 08 f5 ff ff 06 	cmpl   $0x6,-0xaf8(%rbp)
    d392:	7e dd                	jle    d371 <func_33+0x24e0>
    d394:	0f b7 85 9c f4 ff ff 	movzwl -0xb64(%rbp),%eax
    d39b:	0f b7 d0             	movzwl %ax,%edx
    d39e:	8b 85 dc f4 ff ff    	mov    -0xb24(%rbp),%eax
    d3a4:	21 d0                	and    %edx,%eax
    d3a6:	89 85 dc f4 ff ff    	mov    %eax,-0xb24(%rbp)
    d3ac:	0f b7 05 5b 0d 01 00 	movzwl 0x10d5b(%rip),%eax        # 1e10e <g_224>
    d3b3:	98                   	cwtl   
    d3b4:	48 98                	cltq   
    d3b6:	48 8d 14 00          	lea    (%rax,%rax,1),%rdx
    d3ba:	48 8d 05 77 24 01 00 	lea    0x12477(%rip),%rax        # 1f838 <g_783>
    d3c1:	0f b7 04 02          	movzwl (%rdx,%rax,1),%eax
    d3c5:	0f bf d8             	movswl %ax,%ebx
    d3c8:	48 8b 05 69 4d 01 00 	mov    0x14d69(%rip),%rax        # 22138 <g_1226>
    d3cf:	0f b6 00             	movzbl (%rax),%eax
    d3d2:	44 0f be e0          	movsbl %al,%r12d
    d3d6:	44 8b ad 28 fb ff ff 	mov    -0x4d8(%rbp),%r13d
    d3dd:	8b 85 24 fb ff ff    	mov    -0x4dc(%rbp),%eax
    d3e3:	44 0f be f0          	movsbl %al,%r14d
    d3e7:	48 8b 85 30 f6 ff ff 	mov    -0x9d0(%rbp),%rax
    d3ee:	48 8b 00             	mov    (%rax),%rax
    d3f1:	48 ba 56 3f d5 c7 0f 	movabs $0x4859760fc7d53f56,%rdx
    d3f8:	76 59 48 
    d3fb:	48 21 c2             	and    %rax,%rdx
    d3fe:	48 8b 85 30 f6 ff ff 	mov    -0x9d0(%rbp),%rax
    d405:	48 89 10             	mov    %rdx,(%rax)
    d408:	0f b7 85 9c f4 ff ff 	movzwl -0xb64(%rbp),%eax
    d40f:	0f b7 c0             	movzwl %ax,%eax
    d412:	89 85 98 f4 ff ff    	mov    %eax,-0xb68(%rbp)
    d418:	44 0f b7 bd b2 f4 ff 	movzwl -0xb4e(%rbp),%r15d
    d41f:	ff 
    d420:	0f b7 05 64 21 01 00 	movzwl 0x12164(%rip),%eax        # 1f58b <g_434+0xb>
    d427:	0f b7 f0             	movzwl %ax,%esi
    d42a:	89 b5 94 f4 ff ff    	mov    %esi,-0xb6c(%rbp)
    d430:	8b 85 c4 f4 ff ff    	mov    -0xb3c(%rbp),%eax
    d436:	48 98                	cltq   
    d438:	be 03 00 00 00       	mov    $0x3,%esi
    d43d:	48 89 c7             	mov    %rax,%rdi
    d440:	e8 63 b4 ff ff       	callq  88a8 <safe_sub_func_int64_t_s_s>
    d445:	48 89 85 88 f4 ff ff 	mov    %rax,-0xb78(%rbp)
    d44c:	be 01 00 00 00       	mov    $0x1,%esi
    d451:	bf 00 00 00 00       	mov    $0x0,%edi
    d456:	e8 78 af ff ff       	callq  83d3 <safe_sub_func_int16_t_s_s>
    d45b:	48 0f bf c0          	movswq %ax,%rax
    d45f:	48 39 85 88 f4 ff ff 	cmp    %rax,-0xb78(%rbp)
    d466:	0f 9e c0             	setle  %al
    d469:	0f b6 d0             	movzbl %al,%edx
    d46c:	0f b7 85 9c f4 ff ff 	movzwl -0xb64(%rbp),%eax
    d473:	0f b7 c0             	movzwl %ax,%eax
    d476:	39 c2                	cmp    %eax,%edx
    d478:	0f 9d c0             	setge  %al
    d47b:	0f b6 c0             	movzbl %al,%eax
    d47e:	39 85 70 f5 ff ff    	cmp    %eax,-0xa90(%rbp)
    d484:	0f 9c c0             	setl   %al
    d487:	0f b6 c0             	movzbl %al,%eax
    d48a:	8b b5 94 f4 ff ff    	mov    -0xb6c(%rbp),%esi
    d490:	89 c7                	mov    %eax,%edi
    d492:	e8 35 b2 ff ff       	callq  86cc <safe_mod_func_int32_t_s_s>
    d497:	44 89 fe             	mov    %r15d,%esi
    d49a:	89 c7                	mov    %eax,%edi
    d49c:	e8 64 b1 ff ff       	callq  8605 <safe_sub_func_int32_t_s_s>
    d4a1:	39 85 98 f4 ff ff    	cmp    %eax,-0xb68(%rbp)
    d4a7:	8b 85 24 fb ff ff    	mov    -0x4dc(%rbp),%eax
    d4ad:	0f be c0             	movsbl %al,%eax
    d4b0:	44 89 f6             	mov    %r14d,%esi
    d4b3:	89 c7                	mov    %eax,%edi
    d4b5:	e8 b0 ad ff ff       	callq  826a <safe_div_func_int8_t_s_s>
    d4ba:	48 8b 95 d0 f6 ff ff 	mov    -0x930(%rbp),%rdx
    d4c1:	8b 12                	mov    (%rdx),%edx
    d4c3:	0f be c0             	movsbl %al,%eax
    d4c6:	09 c2                	or     %eax,%edx
    d4c8:	48 8b 85 d0 f6 ff ff 	mov    -0x930(%rbp),%rax
    d4cf:	89 10                	mov    %edx,(%rax)
    d4d1:	48 8b 85 d0 f6 ff ff 	mov    -0x930(%rbp),%rax
    d4d8:	8b 00                	mov    (%rax),%eax
    d4da:	3d 4b e4 f0 61       	cmp    $0x61f0e44b,%eax
    d4df:	0f 95 c0             	setne  %al
    d4e2:	0f b6 c0             	movzbl %al,%eax
    d4e5:	44 89 ee             	mov    %r13d,%esi
    d4e8:	89 c7                	mov    %eax,%edi
    d4ea:	e8 16 b7 ff ff       	callq  8c05 <safe_lshift_func_uint8_t_u_s>
    d4ef:	8b 85 dc f4 ff ff    	mov    -0xb24(%rbp),%eax
    d4f5:	85 c0                	test   %eax,%eax
    d4f7:	0f 95 c0             	setne  %al
    d4fa:	0f b6 c0             	movzbl %al,%eax
    d4fd:	be 00 00 00 00       	mov    $0x0,%esi
    d502:	48 89 c7             	mov    %rax,%rdi
    d505:	e8 9e b3 ff ff       	callq  88a8 <safe_sub_func_int64_t_s_s>
    d50a:	41 89 c5             	mov    %eax,%r13d
    d50d:	be 00 00 00 00       	mov    $0x0,%esi
    d512:	bf 06 00 00 00       	mov    $0x6,%edi
    d517:	e8 d2 ad ff ff       	callq  82ee <safe_lshift_func_int8_t_s_u>
    d51c:	0f be c0             	movsbl %al,%eax
    d51f:	44 89 ee             	mov    %r13d,%esi
    d522:	89 c7                	mov    %eax,%edi
    d524:	e8 a3 b1 ff ff       	callq  86cc <safe_mod_func_int32_t_s_s>
    d529:	44 89 e6             	mov    %r12d,%esi
    d52c:	bf 01 00 00 00       	mov    $0x1,%edi
    d531:	e8 dc ac ff ff       	callq  8212 <safe_mul_func_int8_t_s_s>
    d536:	48 8b 05 cb 4d 01 00 	mov    0x14dcb(%rip),%rax        # 22308 <g_1308>
    d53d:	48 39 85 08 f7 ff ff 	cmp    %rax,-0x8f8(%rbp)
    d544:	0f 95 c0             	setne  %al
    d547:	0f b6 c0             	movzbl %al,%eax
    d54a:	66 89 85 9c f4 ff ff 	mov    %ax,-0xb64(%rbp)
    d551:	0f b7 85 9c f4 ff ff 	movzwl -0xb64(%rbp),%eax
    d558:	0f b7 c0             	movzwl %ax,%eax
    d55b:	89 c7                	mov    %eax,%edi
    d55d:	e8 87 b7 ff ff       	callq  8ce9 <safe_unary_minus_func_uint16_t_u>
    d562:	98                   	cwtl   
    d563:	89 de                	mov    %ebx,%esi
    d565:	89 c7                	mov    %eax,%edi
    d567:	e8 67 ae ff ff       	callq  83d3 <safe_sub_func_int16_t_s_s>
    d56c:	8b 85 7c f5 ff ff    	mov    -0xa84(%rbp),%eax
    d572:	89 85 84 f5 ff ff    	mov    %eax,-0xa7c(%rbp)
    d578:	0f b7 85 9c f4 ff ff 	movzwl -0xb64(%rbp),%eax
    d57f:	e9 e0 09 00 00       	jmpq   df64 <func_33+0x30d3>
    d584:	0f b7 85 9c f4 ff ff 	movzwl -0xb64(%rbp),%eax
    d58b:	66 85 c0             	test   %ax,%ax
    d58e:	0f 85 38 03 00 00    	jne    d8cc <func_33+0x2a3b>
    d594:	c6 05 cd 1f 01 00 00 	movb   $0x0,0x11fcd(%rip)        # 1f568 <g_433+0x8>
    d59b:	e9 e7 02 00 00       	jmpq   d887 <func_33+0x29f6>
    d5a0:	c6 85 a4 f4 ff ff 01 	movb   $0x1,-0xb5c(%rbp)
    d5a7:	c7 85 bc f5 ff ff 00 	movl   $0x17f24c00,-0xa44(%rbp)
    d5ae:	4c f2 17 
    d5b1:	48 b8 5f 2f f0 0c a3 	movabs $0x41f0c4a30cf02f5f,%rax
    d5b8:	c4 f0 41 
    d5bb:	48 89 85 20 f6 ff ff 	mov    %rax,-0x9e0(%rbp)
    d5c2:	48 8d 85 00 f6 ff ff 	lea    -0xa00(%rbp),%rax
    d5c9:	48 89 85 30 f7 ff ff 	mov    %rax,-0x8d0(%rbp)
    d5d0:	48 c7 85 38 f7 ff ff 	movq   $0x0,-0x8c8(%rbp)
    d5d7:	00 00 00 00 
    d5db:	48 8d 05 ee 0a 01 00 	lea    0x10aee(%rip),%rax        # 1e0d0 <g_96>
    d5e2:	48 89 85 40 f7 ff ff 	mov    %rax,-0x8c0(%rbp)
    d5e9:	48 8b 05 a8 41 01 00 	mov    0x141a8(%rip),%rax        # 21798 <g_43>
    d5f0:	48 8d 95 b8 f4 ff ff 	lea    -0xb48(%rbp),%rdx
    d5f7:	48 89 10             	mov    %rdx,(%rax)
    d5fa:	c7 05 04 0b 01 00 05 	movl   $0x5,0x10b04(%rip)        # 1e108 <g_207>
    d601:	00 00 00 
    d604:	e9 82 00 00 00       	jmpq   d68b <func_33+0x27fa>
    d609:	48 c7 85 18 f6 ff ff 	movq   $0x5,-0x9e8(%rbp)
    d610:	05 00 00 00 
    d614:	eb 59                	jmp    d66f <func_33+0x27de>
    d616:	48 8d 05 fb 4a 01 00 	lea    0x14afb(%rip),%rax        # 22118 <g_765>
    d61d:	48 89 85 50 f7 ff ff 	mov    %rax,-0x8b0(%rbp)
    d624:	0f b7 85 9c f4 ff ff 	movzwl -0xb64(%rbp),%eax
    d62b:	66 85 c0             	test   %ax,%ax
    d62e:	75 4b                	jne    d67b <func_33+0x27ea>
    d630:	8b 05 d2 0a 01 00    	mov    0x10ad2(%rip),%eax        # 1e108 <g_207>
    d636:	83 c0 02             	add    $0x2,%eax
    d639:	48 98                	cltq   
    d63b:	48 8d 14 c5 00 00 00 	lea    0x0(,%rax,8),%rdx
    d642:	00 
    d643:	48 8d 05 f6 41 01 00 	lea    0x141f6(%rip),%rax        # 21840 <g_260>
    d64a:	48 01 c2             	add    %rax,%rdx
    d64d:	48 8b 85 50 f7 ff ff 	mov    -0x8b0(%rbp),%rax
    d654:	48 89 10             	mov    %rdx,(%rax)
    d657:	0f b6 85 a4 f4 ff ff 	movzbl -0xb5c(%rbp),%eax
    d65e:	83 c0 01             	add    $0x1,%eax
    d661:	88 85 a4 f4 ff ff    	mov    %al,-0xb5c(%rbp)
    d667:	48 83 ad 18 f6 ff ff 	subq   $0x1,-0x9e8(%rbp)
    d66e:	01 
    d66f:	48 83 bd 18 f6 ff ff 	cmpq   $0x0,-0x9e8(%rbp)
    d676:	00 
    d677:	79 9d                	jns    d616 <func_33+0x2785>
    d679:	eb 01                	jmp    d67c <func_33+0x27eb>
    d67b:	90                   	nop
    d67c:	8b 05 86 0a 01 00    	mov    0x10a86(%rip),%eax        # 1e108 <g_207>
    d682:	83 e8 01             	sub    $0x1,%eax
    d685:	89 05 7d 0a 01 00    	mov    %eax,0x10a7d(%rip)        # 1e108 <g_207>
    d68b:	8b 05 77 0a 01 00    	mov    0x10a77(%rip),%eax        # 1e108 <g_207>
    d691:	85 c0                	test   %eax,%eax
    d693:	0f 89 70 ff ff ff    	jns    d609 <func_33+0x2778>
    d699:	66 c7 05 c9 0b 01 00 	movw   $0x0,0x10bc9(%rip)        # 1e26b <g_430+0xb>
    d6a0:	00 00 
    d6a2:	eb 2d                	jmp    d6d1 <func_33+0x2840>
    d6a4:	48 8b 15 ed 40 01 00 	mov    0x140ed(%rip),%rdx        # 21798 <g_43>
    d6ab:	48 8b 05 e6 40 01 00 	mov    0x140e6(%rip),%rax        # 21798 <g_43>
    d6b2:	48 8b 12             	mov    (%rdx),%rdx
    d6b5:	48 89 10             	mov    %rdx,(%rax)
    d6b8:	48 83 85 20 f6 ff ff 	addq   $0x1,-0x9e0(%rbp)
    d6bf:	01 
    d6c0:	0f b7 05 a4 0b 01 00 	movzwl 0x10ba4(%rip),%eax        # 1e26b <g_430+0xb>
    d6c7:	83 c0 01             	add    $0x1,%eax
    d6ca:	66 89 05 9a 0b 01 00 	mov    %ax,0x10b9a(%rip)        # 1e26b <g_430+0xb>
    d6d1:	0f b7 05 93 0b 01 00 	movzwl 0x10b93(%rip),%eax        # 1e26b <g_430+0xb>
    d6d8:	66 83 f8 06          	cmp    $0x6,%ax
    d6dc:	76 c6                	jbe    d6a4 <func_33+0x2813>
    d6de:	83 bd 80 f5 ff ff 00 	cmpl   $0x0,-0xa80(%rbp)
    d6e5:	0f 84 fa 00 00 00    	je     d7e5 <func_33+0x2954>
    d6eb:	48 8b 85 f8 f6 ff ff 	mov    -0x908(%rbp),%rax
    d6f2:	48 bb 2c f3 54 9a 76 	movabs $0xd4cb70769a54f32c,%rbx
    d6f9:	70 cb d4 
    d6fc:	48 89 18             	mov    %rbx,(%rax)
    d6ff:	48 8b 05 32 4a 01 00 	mov    0x14a32(%rip),%rax        # 22138 <g_1226>
    d706:	0f b6 00             	movzbl (%rax),%eax
    d709:	0f be d8             	movsbl %al,%ebx
    d70c:	0f b7 85 9c f4 ff ff 	movzwl -0xb64(%rbp),%eax
    d713:	0f b7 d0             	movzwl %ax,%edx
    d716:	0f b7 85 9c f4 ff ff 	movzwl -0xb64(%rbp),%eax
    d71d:	0f b7 f0             	movzwl %ax,%esi
    d720:	0f b6 05 c8 0a 01 00 	movzbl 0x10ac8(%rip),%eax        # 1e1ef <g_407+0xf>
    d727:	0f b7 0d c2 0a 01 00 	movzwl 0x10ac2(%rip),%ecx        # 1e1f0 <g_407+0x10>
    d72e:	81 e1 ff 7f 00 00    	and    $0x7fff,%ecx
    d734:	48 c1 e1 08          	shl    $0x8,%rcx
    d738:	48 09 c8             	or     %rcx,%rax
    d73b:	48 c1 e0 29          	shl    $0x29,%rax
    d73f:	48 c1 f8 29          	sar    $0x29,%rax
    d743:	89 c1                	mov    %eax,%ecx
    d745:	48 8b 85 00 f6 ff ff 	mov    -0xa00(%rbp),%rax
    d74c:	66 89 08             	mov    %cx,(%rax)
    d74f:	48 8b 85 30 f7 ff ff 	mov    -0x8d0(%rbp),%rax
    d756:	48 8d 8d a8 f4 ff ff 	lea    -0xb58(%rbp),%rcx
    d75d:	48 89 08             	mov    %rcx,(%rax)
    d760:	bf 01 00 00 00       	mov    $0x1,%edi
    d765:	48 8b 85 40 f7 ff ff 	mov    -0x8c0(%rbp),%rax
    d76c:	48 8b 08             	mov    (%rax),%rcx
    d76f:	48 63 c7             	movslq %edi,%rax
    d772:	48 31 c1             	xor    %rax,%rcx
    d775:	48 8b 85 40 f7 ff ff 	mov    -0x8c0(%rbp),%rax
    d77c:	48 89 08             	mov    %rcx,(%rax)
    d77f:	48 8b 85 40 f7 ff ff 	mov    -0x8c0(%rbp),%rax
    d786:	48 8b 00             	mov    (%rax),%rax
    d789:	48 85 c0             	test   %rax,%rax
    d78c:	74 07                	je     d795 <func_33+0x2904>
    d78e:	b8 01 00 00 00       	mov    $0x1,%eax
    d793:	eb 05                	jmp    d79a <func_33+0x2909>
    d795:	b8 00 00 00 00       	mov    $0x0,%eax
    d79a:	31 f0                	xor    %esi,%eax
    d79c:	83 c8 04             	or     $0x4,%eax
    d79f:	48 98                	cltq   
    d7a1:	48 89 d6             	mov    %rdx,%rsi
    d7a4:	48 89 c7             	mov    %rax,%rdi
    d7a7:	e8 4b b2 ff ff       	callq  89f7 <safe_div_func_int64_t_s_s>
    d7ac:	0f be c0             	movsbl %al,%eax
    d7af:	89 de                	mov    %ebx,%esi
    d7b1:	89 c7                	mov    %eax,%edi
    d7b3:	e8 e9 aa ff ff       	callq  82a1 <safe_lshift_func_int8_t_s_s>
    d7b8:	48 0f be d0          	movsbq %al,%rdx
    d7bc:	48 8b 85 f8 f6 ff ff 	mov    -0x908(%rbp),%rax
    d7c3:	48 89 10             	mov    %rdx,(%rax)
    d7c6:	48 8b 85 c8 f5 ff ff 	mov    -0xa38(%rbp),%rax
    d7cd:	8b 95 78 f5 ff ff    	mov    -0xa88(%rbp),%edx
    d7d3:	88 10                	mov    %dl,(%rax)
    d7d5:	83 bd 78 f5 ff ff 00 	cmpl   $0x0,-0xa88(%rbp)
    d7dc:	74 07                	je     d7e5 <func_33+0x2954>
    d7de:	ba 01 00 00 00       	mov    $0x1,%edx
    d7e3:	eb 05                	jmp    d7ea <func_33+0x2959>
    d7e5:	ba 00 00 00 00       	mov    $0x0,%edx
    d7ea:	0f b7 85 9c f4 ff ff 	movzwl -0xb64(%rbp),%eax
    d7f1:	0f b7 c0             	movzwl %ax,%eax
    d7f4:	39 c2                	cmp    %eax,%edx
    d7f6:	0f 9f c2             	setg   %dl
    d7f9:	48 8b 05 98 3f 01 00 	mov    0x13f98(%rip),%rax        # 21798 <g_43>
    d800:	48 8b 00             	mov    (%rax),%rax
    d803:	0f b6 d2             	movzbl %dl,%edx
    d806:	89 10                	mov    %edx,(%rax)
    d808:	8b 00                	mov    (%rax),%eax
    d80a:	85 c0                	test   %eax,%eax
    d80c:	74 26                	je     d834 <func_33+0x29a3>
    d80e:	c6 85 a7 f4 ff ff 00 	movb   $0x0,-0xb59(%rbp)
    d815:	c7 85 c4 f5 ff ff ff 	movl   $0xffffffff,-0xa3c(%rbp)
    d81c:	ff ff ff 
    d81f:	0f b7 05 45 0a 01 00 	movzwl 0x10a45(%rip),%eax        # 1e26b <g_430+0xb>
    d826:	66 85 c0             	test   %ax,%ax
    d829:	75 73                	jne    d89e <func_33+0x2a0d>
    d82b:	80 85 a3 f4 ff ff 01 	addb   $0x1,-0xb5d(%rbp)
    d832:	eb 43                	jmp    d877 <func_33+0x29e6>
    d834:	48 8d 85 08 f6 ff ff 	lea    -0x9f8(%rbp),%rax
    d83b:	48 89 85 48 f7 ff ff 	mov    %rax,-0x8b8(%rbp)
    d842:	c7 85 c0 f5 ff ff fc 	movl   $0xfffffffc,-0xa40(%rbp)
    d849:	ff ff ff 
    d84c:	48 8b 95 08 f6 ff ff 	mov    -0x9f8(%rbp),%rdx
    d853:	48 8b 85 48 f7 ff ff 	mov    -0x8b8(%rbp),%rax
    d85a:	48 89 10             	mov    %rdx,(%rax)
    d85d:	83 bd c0 f5 ff ff 00 	cmpl   $0x0,-0xa40(%rbp)
    d864:	75 3e                	jne    d8a4 <func_33+0x2a13>
    d866:	48 8b 05 2b 3f 01 00 	mov    0x13f2b(%rip),%rax        # 21798 <g_43>
    d86d:	48 8d 95 d8 f4 ff ff 	lea    -0xb28(%rbp),%rdx
    d874:	48 89 10             	mov    %rdx,(%rax)
    d877:	0f b6 05 ea 1c 01 00 	movzbl 0x11cea(%rip),%eax        # 1f568 <g_433+0x8>
    d87e:	83 c0 01             	add    $0x1,%eax
    d881:	88 05 e1 1c 01 00    	mov    %al,0x11ce1(%rip)        # 1f568 <g_433+0x8>
    d887:	0f b6 05 da 1c 01 00 	movzbl 0x11cda(%rip),%eax        # 1f568 <g_433+0x8>
    d88e:	3c 08                	cmp    $0x8,%al
    d890:	0f 86 0a fd ff ff    	jbe    d5a0 <func_33+0x270f>
    d896:	eb 0d                	jmp    d8a5 <func_33+0x2a14>
    d898:	90                   	nop
    d899:	e9 bc dd ff ff       	jmpq   b65a <func_33+0x7c9>
    d89e:	90                   	nop
    d89f:	e9 b6 dd ff ff       	jmpq   b65a <func_33+0x7c9>
    d8a4:	90                   	nop
    d8a5:	0f b7 05 1d 1d 01 00 	movzwl 0x11d1d(%rip),%eax        # 1f5c9 <g_436+0x9>
    d8ac:	83 c0 01             	add    $0x1,%eax
    d8af:	66 89 05 13 1d 01 00 	mov    %ax,0x11d13(%rip)        # 1f5c9 <g_436+0x9>
    d8b6:	0f b7 05 0c 1d 01 00 	movzwl 0x11d0c(%rip),%eax        # 1f5c9 <g_436+0x9>
    d8bd:	66 83 f8 08          	cmp    $0x8,%ax
    d8c1:	0f 86 6f f1 ff ff    	jbe    ca36 <func_33+0x1ba5>
    d8c7:	eb 04                	jmp    d8cd <func_33+0x2a3c>
    d8c9:	90                   	nop
    d8ca:	eb 01                	jmp    d8cd <func_33+0x2a3c>
    d8cc:	90                   	nop
    d8cd:	48 8b 05 c4 3e 01 00 	mov    0x13ec4(%rip),%rax        # 21798 <g_43>
    d8d4:	48 8d 95 c4 f4 ff ff 	lea    -0xb3c(%rbp),%rdx
    d8db:	48 89 10             	mov    %rdx,(%rax)
    d8de:	c7 85 e8 f4 ff ff 00 	movl   $0x0,-0xb18(%rbp)
    d8e5:	00 00 00 
    d8e8:	e9 38 06 00 00       	jmpq   df25 <func_33+0x3094>
    d8ed:	48 8d 85 70 f8 ff ff 	lea    -0x790(%rbp),%rax
    d8f4:	48 83 c0 38          	add    $0x38,%rax
    d8f8:	48 89 85 10 fb ff ff 	mov    %rax,-0x4f0(%rbp)
    d8ff:	48 8d 85 cc f4 ff ff 	lea    -0xb34(%rbp),%rax
    d906:	48 89 85 18 fb ff ff 	mov    %rax,-0x4e8(%rbp)
    d90d:	48 8d 85 b8 f4 ff ff 	lea    -0xb48(%rbp),%rax
    d914:	48 89 85 20 fb ff ff 	mov    %rax,-0x4e0(%rbp)
    d91b:	48 8d 85 70 f8 ff ff 	lea    -0x790(%rbp),%rax
    d922:	48 83 c0 10          	add    $0x10,%rax
    d926:	48 89 85 28 fb ff ff 	mov    %rax,-0x4d8(%rbp)
    d92d:	48 8d 85 d0 f4 ff ff 	lea    -0xb30(%rbp),%rax
    d934:	48 89 85 30 fb ff ff 	mov    %rax,-0x4d0(%rbp)
    d93b:	48 8d 05 96 07 01 00 	lea    0x10796(%rip),%rax        # 1e0d8 <g_105>
    d942:	48 89 85 38 fb ff ff 	mov    %rax,-0x4c8(%rbp)
    d949:	48 c7 85 40 fb ff ff 	movq   $0x0,-0x4c0(%rbp)
    d950:	00 00 00 00 
    d954:	48 8d 85 d4 f4 ff ff 	lea    -0xb2c(%rbp),%rax
    d95b:	48 89 85 48 fb ff ff 	mov    %rax,-0x4b8(%rbp)
    d962:	48 8d 05 23 08 01 00 	lea    0x10823(%rip),%rax        # 1e18c <g_231+0x6c>
    d969:	48 89 85 50 fb ff ff 	mov    %rax,-0x4b0(%rbp)
    d970:	48 c7 85 58 fb ff ff 	movq   $0x0,-0x4a8(%rbp)
    d977:	00 00 00 00 
    d97b:	48 8d 85 d0 f4 ff ff 	lea    -0xb30(%rbp),%rax
    d982:	48 89 85 60 fb ff ff 	mov    %rax,-0x4a0(%rbp)
    d989:	48 8d 05 54 07 01 00 	lea    0x10754(%rip),%rax        # 1e0e4 <g_130>
    d990:	48 89 85 68 fb ff ff 	mov    %rax,-0x498(%rbp)
    d997:	48 8d 85 70 f8 ff ff 	lea    -0x790(%rbp),%rax
    d99e:	48 83 c0 14          	add    $0x14,%rax
    d9a2:	48 89 85 70 fb ff ff 	mov    %rax,-0x490(%rbp)
    d9a9:	48 c7 85 78 fb ff ff 	movq   $0x0,-0x488(%rbp)
    d9b0:	00 00 00 00 
    d9b4:	48 8d 85 d4 f4 ff ff 	lea    -0xb2c(%rbp),%rax
    d9bb:	48 89 85 80 fb ff ff 	mov    %rax,-0x480(%rbp)
    d9c2:	48 8d 85 70 f8 ff ff 	lea    -0x790(%rbp),%rax
    d9c9:	48 83 c0 38          	add    $0x38,%rax
    d9cd:	48 89 85 88 fb ff ff 	mov    %rax,-0x478(%rbp)
    d9d4:	48 8d 85 b4 f4 ff ff 	lea    -0xb4c(%rbp),%rax
    d9db:	48 89 85 90 fb ff ff 	mov    %rax,-0x470(%rbp)
    d9e2:	48 8d 85 70 f8 ff ff 	lea    -0x790(%rbp),%rax
    d9e9:	48 83 c0 10          	add    $0x10,%rax
    d9ed:	48 89 85 98 fb ff ff 	mov    %rax,-0x468(%rbp)
    d9f4:	48 8d 85 d0 f4 ff ff 	lea    -0xb30(%rbp),%rax
    d9fb:	48 89 85 a0 fb ff ff 	mov    %rax,-0x460(%rbp)
    da02:	48 8d 85 d0 f4 ff ff 	lea    -0xb30(%rbp),%rax
    da09:	48 89 85 a8 fb ff ff 	mov    %rax,-0x458(%rbp)
    da10:	48 8d 85 70 f8 ff ff 	lea    -0x790(%rbp),%rax
    da17:	48 83 c0 38          	add    $0x38,%rax
    da1b:	48 89 85 b0 fb ff ff 	mov    %rax,-0x450(%rbp)
    da22:	48 8d 05 63 07 01 00 	lea    0x10763(%rip),%rax        # 1e18c <g_231+0x6c>
    da29:	48 89 85 b8 fb ff ff 	mov    %rax,-0x448(%rbp)
    da30:	48 8d 85 bc f4 ff ff 	lea    -0xb44(%rbp),%rax
    da37:	48 89 85 c0 fb ff ff 	mov    %rax,-0x440(%rbp)
    da3e:	48 8d 85 cc f4 ff ff 	lea    -0xb34(%rbp),%rax
    da45:	48 89 85 c8 fb ff ff 	mov    %rax,-0x438(%rbp)
    da4c:	48 8d 85 c4 f4 ff ff 	lea    -0xb3c(%rbp),%rax
    da53:	48 89 85 d0 fb ff ff 	mov    %rax,-0x430(%rbp)
    da5a:	48 8d 85 70 f8 ff ff 	lea    -0x790(%rbp),%rax
    da61:	48 83 c0 20          	add    $0x20,%rax
    da65:	48 89 85 d8 fb ff ff 	mov    %rax,-0x428(%rbp)
    da6c:	48 8d 85 70 f8 ff ff 	lea    -0x790(%rbp),%rax
    da73:	48 83 c0 14          	add    $0x14,%rax
    da77:	48 89 85 e0 fb ff ff 	mov    %rax,-0x420(%rbp)
    da7e:	48 8d 85 d4 f4 ff ff 	lea    -0xb2c(%rbp),%rax
    da85:	48 89 85 e8 fb ff ff 	mov    %rax,-0x418(%rbp)
    da8c:	48 8d 85 70 f8 ff ff 	lea    -0x790(%rbp),%rax
    da93:	48 83 c0 08          	add    $0x8,%rax
    da97:	48 89 85 f0 fb ff ff 	mov    %rax,-0x410(%rbp)
    da9e:	48 8d 85 cc f4 ff ff 	lea    -0xb34(%rbp),%rax
    daa5:	48 89 85 f8 fb ff ff 	mov    %rax,-0x408(%rbp)
    daac:	48 8d 85 bc f4 ff ff 	lea    -0xb44(%rbp),%rax
    dab3:	48 89 85 00 fc ff ff 	mov    %rax,-0x400(%rbp)
    daba:	48 8d 85 c4 f4 ff ff 	lea    -0xb3c(%rbp),%rax
    dac1:	48 89 85 08 fc ff ff 	mov    %rax,-0x3f8(%rbp)
    dac8:	48 8d 85 b8 f4 ff ff 	lea    -0xb48(%rbp),%rax
    dacf:	48 89 85 10 fc ff ff 	mov    %rax,-0x3f0(%rbp)
    dad6:	48 8d 85 c4 f4 ff ff 	lea    -0xb3c(%rbp),%rax
    dadd:	48 89 85 18 fc ff ff 	mov    %rax,-0x3e8(%rbp)
    dae4:	48 8d 85 bc f4 ff ff 	lea    -0xb44(%rbp),%rax
    daeb:	48 89 85 20 fc ff ff 	mov    %rax,-0x3e0(%rbp)
    daf2:	48 8d 85 cc f4 ff ff 	lea    -0xb34(%rbp),%rax
    daf9:	48 89 85 28 fc ff ff 	mov    %rax,-0x3d8(%rbp)
    db00:	48 8d 05 31 06 01 00 	lea    0x10631(%rip),%rax        # 1e138 <g_231+0x18>
    db07:	48 89 85 30 fc ff ff 	mov    %rax,-0x3d0(%rbp)
    db0e:	48 8d 05 23 06 01 00 	lea    0x10623(%rip),%rax        # 1e138 <g_231+0x18>
    db15:	48 89 85 38 fc ff ff 	mov    %rax,-0x3c8(%rbp)
    db1c:	48 8d 85 70 f8 ff ff 	lea    -0x790(%rbp),%rax
    db23:	48 83 c0 10          	add    $0x10,%rax
    db27:	48 89 85 40 fc ff ff 	mov    %rax,-0x3c0(%rbp)
    db2e:	48 8d 05 0b 06 01 00 	lea    0x1060b(%rip),%rax        # 1e140 <g_231+0x20>
    db35:	48 89 85 48 fc ff ff 	mov    %rax,-0x3b8(%rbp)
    db3c:	48 8d 85 d4 f4 ff ff 	lea    -0xb2c(%rbp),%rax
    db43:	48 89 85 50 fc ff ff 	mov    %rax,-0x3b0(%rbp)
    db4a:	48 8d 05 3b 06 01 00 	lea    0x1063b(%rip),%rax        # 1e18c <g_231+0x6c>
    db51:	48 89 85 58 fc ff ff 	mov    %rax,-0x3a8(%rbp)
    db58:	48 8d 85 70 f8 ff ff 	lea    -0x790(%rbp),%rax
    db5f:	48 83 c0 38          	add    $0x38,%rax
    db63:	48 89 85 60 fc ff ff 	mov    %rax,-0x3a0(%rbp)
    db6a:	48 8d 85 d4 f4 ff ff 	lea    -0xb2c(%rbp),%rax
    db71:	48 89 85 68 fc ff ff 	mov    %rax,-0x398(%rbp)
    db78:	48 8d 05 65 05 01 00 	lea    0x10565(%rip),%rax        # 1e0e4 <g_130>
    db7f:	48 89 85 70 fc ff ff 	mov    %rax,-0x390(%rbp)
    db86:	48 8d 85 b8 f4 ff ff 	lea    -0xb48(%rbp),%rax
    db8d:	48 89 85 78 fc ff ff 	mov    %rax,-0x388(%rbp)
    db94:	48 8d 05 a5 05 01 00 	lea    0x105a5(%rip),%rax        # 1e140 <g_231+0x20>
    db9b:	48 89 85 80 fc ff ff 	mov    %rax,-0x380(%rbp)
    dba2:	48 8d 85 70 f8 ff ff 	lea    -0x790(%rbp),%rax
    dba9:	48 83 c0 20          	add    $0x20,%rax
    dbad:	48 89 85 88 fc ff ff 	mov    %rax,-0x378(%rbp)
    dbb4:	48 8d 85 70 f8 ff ff 	lea    -0x790(%rbp),%rax
    dbbb:	48 83 c0 38          	add    $0x38,%rax
    dbbf:	48 89 85 90 fc ff ff 	mov    %rax,-0x370(%rbp)
    dbc6:	48 8d 85 bc f4 ff ff 	lea    -0xb44(%rbp),%rax
    dbcd:	48 89 85 98 fc ff ff 	mov    %rax,-0x368(%rbp)
    dbd4:	48 8d 85 b4 f4 ff ff 	lea    -0xb4c(%rbp),%rax
    dbdb:	48 89 85 a0 fc ff ff 	mov    %rax,-0x360(%rbp)
    dbe2:	48 c7 85 a8 fc ff ff 	movq   $0x0,-0x358(%rbp)
    dbe9:	00 00 00 00 
    dbed:	48 8d 05 98 05 01 00 	lea    0x10598(%rip),%rax        # 1e18c <g_231+0x6c>
    dbf4:	48 89 85 b0 fc ff ff 	mov    %rax,-0x350(%rbp)
    dbfb:	48 8d 85 cc f4 ff ff 	lea    -0xb34(%rbp),%rax
    dc02:	48 89 85 b8 fc ff ff 	mov    %rax,-0x348(%rbp)
    dc09:	48 8d 85 70 f8 ff ff 	lea    -0x790(%rbp),%rax
    dc10:	48 83 c0 08          	add    $0x8,%rax
    dc14:	48 89 85 c0 fc ff ff 	mov    %rax,-0x340(%rbp)
    dc1b:	48 8d 05 c2 04 01 00 	lea    0x104c2(%rip),%rax        # 1e0e4 <g_130>
    dc22:	48 89 85 c8 fc ff ff 	mov    %rax,-0x338(%rbp)
    dc29:	48 8d 85 70 f8 ff ff 	lea    -0x790(%rbp),%rax
    dc30:	48 83 c0 10          	add    $0x10,%rax
    dc34:	48 89 85 d0 fc ff ff 	mov    %rax,-0x330(%rbp)
    dc3b:	48 8d 85 d0 f4 ff ff 	lea    -0xb30(%rbp),%rax
    dc42:	48 89 85 d8 fc ff ff 	mov    %rax,-0x328(%rbp)
    dc49:	48 8d 85 c8 f4 ff ff 	lea    -0xb38(%rbp),%rax
    dc50:	48 89 85 e0 fc ff ff 	mov    %rax,-0x320(%rbp)
    dc57:	48 8d 05 da 04 01 00 	lea    0x104da(%rip),%rax        # 1e138 <g_231+0x18>
    dc5e:	48 89 85 e8 fc ff ff 	mov    %rax,-0x318(%rbp)
    dc65:	48 8d 05 20 05 01 00 	lea    0x10520(%rip),%rax        # 1e18c <g_231+0x6c>
    dc6c:	48 89 85 f0 fc ff ff 	mov    %rax,-0x310(%rbp)
    dc73:	48 8d 05 6a 04 01 00 	lea    0x1046a(%rip),%rax        # 1e0e4 <g_130>
    dc7a:	48 89 85 f8 fc ff ff 	mov    %rax,-0x308(%rbp)
    dc81:	48 8d 05 04 05 01 00 	lea    0x10504(%rip),%rax        # 1e18c <g_231+0x6c>
    dc88:	48 89 85 00 fd ff ff 	mov    %rax,-0x300(%rbp)
    dc8f:	48 8d 85 d4 f4 ff ff 	lea    -0xb2c(%rbp),%rax
    dc96:	48 89 85 08 fd ff ff 	mov    %rax,-0x2f8(%rbp)
    dc9d:	48 8d 85 70 f8 ff ff 	lea    -0x790(%rbp),%rax
    dca4:	48 83 c0 10          	add    $0x10,%rax
    dca8:	48 89 85 10 fd ff ff 	mov    %rax,-0x2f0(%rbp)
    dcaf:	48 8d 85 cc f4 ff ff 	lea    -0xb34(%rbp),%rax
    dcb6:	48 89 85 18 fd ff ff 	mov    %rax,-0x2e8(%rbp)
    dcbd:	48 8d 85 b4 f4 ff ff 	lea    -0xb4c(%rbp),%rax
    dcc4:	48 89 85 20 fd ff ff 	mov    %rax,-0x2e0(%rbp)
    dccb:	48 8d 05 12 04 01 00 	lea    0x10412(%rip),%rax        # 1e0e4 <g_130>
    dcd2:	48 89 85 28 fd ff ff 	mov    %rax,-0x2d8(%rbp)
    dcd9:	48 8d 05 04 04 01 00 	lea    0x10404(%rip),%rax        # 1e0e4 <g_130>
    dce0:	48 89 85 30 fd ff ff 	mov    %rax,-0x2d0(%rbp)
    dce7:	48 8d 05 f6 03 01 00 	lea    0x103f6(%rip),%rax        # 1e0e4 <g_130>
    dcee:	48 89 85 38 fd ff ff 	mov    %rax,-0x2c8(%rbp)
    dcf5:	48 8d 05 e8 03 01 00 	lea    0x103e8(%rip),%rax        # 1e0e4 <g_130>
    dcfc:	48 89 85 40 fd ff ff 	mov    %rax,-0x2c0(%rbp)
    dd03:	48 8d 85 b4 f4 ff ff 	lea    -0xb4c(%rbp),%rax
    dd0a:	48 89 85 48 fd ff ff 	mov    %rax,-0x2b8(%rbp)
    dd11:	48 8d 85 70 f8 ff ff 	lea    -0x790(%rbp),%rax
    dd18:	48 83 c0 38          	add    $0x38,%rax
    dd1c:	48 89 85 50 fd ff ff 	mov    %rax,-0x2b0(%rbp)
    dd23:	48 c7 85 58 fd ff ff 	movq   $0x0,-0x2a8(%rbp)
    dd2a:	00 00 00 00 
    dd2e:	48 8d 85 70 f8 ff ff 	lea    -0x790(%rbp),%rax
    dd35:	48 83 c0 38          	add    $0x38,%rax
    dd39:	48 89 85 60 fd ff ff 	mov    %rax,-0x2a0(%rbp)
    dd40:	48 8d 85 bc f4 ff ff 	lea    -0xb44(%rbp),%rax
    dd47:	48 89 85 68 fd ff ff 	mov    %rax,-0x298(%rbp)
    dd4e:	48 8d 85 70 f8 ff ff 	lea    -0x790(%rbp),%rax
    dd55:	48 83 c0 08          	add    $0x8,%rax
    dd59:	48 89 85 70 fd ff ff 	mov    %rax,-0x290(%rbp)
    dd60:	48 8d 85 bc f4 ff ff 	lea    -0xb44(%rbp),%rax
    dd67:	48 89 85 78 fd ff ff 	mov    %rax,-0x288(%rbp)
    dd6e:	48 8d 85 70 f8 ff ff 	lea    -0x790(%rbp),%rax
    dd75:	48 83 c0 20          	add    $0x20,%rax
    dd79:	48 89 85 80 fd ff ff 	mov    %rax,-0x280(%rbp)
    dd80:	48 8d 05 05 04 01 00 	lea    0x10405(%rip),%rax        # 1e18c <g_231+0x6c>
    dd87:	48 89 85 88 fd ff ff 	mov    %rax,-0x278(%rbp)
    dd8e:	48 8d 85 bc f4 ff ff 	lea    -0xb44(%rbp),%rax
    dd95:	48 89 85 90 fd ff ff 	mov    %rax,-0x270(%rbp)
    dd9c:	48 8d 05 35 03 01 00 	lea    0x10335(%rip),%rax        # 1e0d8 <g_105>
    dda3:	48 89 85 98 fd ff ff 	mov    %rax,-0x268(%rbp)
    ddaa:	48 8d 85 bc f4 ff ff 	lea    -0xb44(%rbp),%rax
    ddb1:	48 89 85 a0 fd ff ff 	mov    %rax,-0x260(%rbp)
    ddb8:	48 c7 85 a8 fd ff ff 	movq   $0x0,-0x258(%rbp)
    ddbf:	00 00 00 00 
    ddc3:	48 8d 85 c8 f4 ff ff 	lea    -0xb38(%rbp),%rax
    ddca:	48 89 85 b0 fd ff ff 	mov    %rax,-0x250(%rbp)
    ddd1:	48 8d 85 b4 f4 ff ff 	lea    -0xb4c(%rbp),%rax
    ddd8:	48 89 85 b8 fd ff ff 	mov    %rax,-0x248(%rbp)
    dddf:	48 8d 85 bc f4 ff ff 	lea    -0xb44(%rbp),%rax
    dde6:	48 89 85 c0 fd ff ff 	mov    %rax,-0x240(%rbp)
    dded:	48 8d 85 b8 f4 ff ff 	lea    -0xb48(%rbp),%rax
    ddf4:	48 89 85 c8 fd ff ff 	mov    %rax,-0x238(%rbp)
    ddfb:	48 8d 85 d4 f4 ff ff 	lea    -0xb2c(%rbp),%rax
    de02:	48 89 85 d0 fd ff ff 	mov    %rax,-0x230(%rbp)
    de09:	48 8d 85 d0 f4 ff ff 	lea    -0xb30(%rbp),%rax
    de10:	48 89 85 d8 fd ff ff 	mov    %rax,-0x228(%rbp)
    de17:	66 c7 05 5b 1a 01 00 	movw   $0x0,0x11a5b(%rip)        # 1f87b <g_1081+0xb>
    de1e:	00 00 
    de20:	e9 e9 00 00 00       	jmpq   df0e <func_33+0x307d>
    de25:	66 c7 05 2d 1a 01 00 	movw   $0x0,0x11a2d(%rip)        # 1f85b <g_924+0xb>
    de2c:	00 00 
    de2e:	e9 b9 00 00 00       	jmpq   deec <func_33+0x305b>
    de33:	66 c7 05 af 17 01 00 	movw   $0x1,0x117af(%rip)        # 1f5eb <g_437+0xb>
    de3a:	01 00 
    de3c:	e9 89 00 00 00       	jmpq   deca <func_33+0x3039>
    de41:	48 8d 05 03 17 01 00 	lea    0x11703(%rip),%rax        # 1f54b <g_432+0xb>
    de48:	48 89 85 00 f6 ff ff 	mov    %rax,-0xa00(%rbp)
    de4f:	48 8d 85 00 f6 ff ff 	lea    -0xa00(%rbp),%rax
    de56:	48 89 85 08 f6 ff ff 	mov    %rax,-0x9f8(%rbp)
    de5d:	48 8d 85 08 f6 ff ff 	lea    -0x9f8(%rbp),%rax
    de64:	48 89 85 10 f6 ff ff 	mov    %rax,-0x9f0(%rbp)
    de6b:	48 8d 85 10 f6 ff ff 	lea    -0x9f0(%rbp),%rax
    de72:	48 89 85 58 f7 ff ff 	mov    %rax,-0x8a8(%rbp)
    de79:	48 8b 85 58 f7 ff ff 	mov    -0x8a8(%rbp),%rax
    de80:	48 c7 00 00 00 00 00 	movq   $0x0,(%rax)
    de87:	0f b7 05 80 02 01 00 	movzwl 0x10280(%rip),%eax        # 1e10e <g_224>
    de8e:	98                   	cwtl   
    de8f:	8d 50 03             	lea    0x3(%rax),%edx
    de92:	0f b7 05 75 02 01 00 	movzwl 0x10275(%rip),%eax        # 1e10e <g_224>
    de99:	98                   	cwtl   
    de9a:	83 c0 02             	add    $0x2,%eax
    de9d:	48 63 c8             	movslq %eax,%rcx
    dea0:	48 63 d2             	movslq %edx,%rdx
    dea3:	48 89 d0             	mov    %rdx,%rax
    dea6:	48 c1 e0 02          	shl    $0x2,%rax
    deaa:	48 01 d0             	add    %rdx,%rax
    dead:	48 01 c8             	add    %rcx,%rax
    deb0:	8b 84 85 70 f8 ff ff 	mov    -0x790(%rbp,%rax,4),%eax
    deb7:	85 c0                	test   %eax,%eax
    deb9:	0f b7 05 2b 17 01 00 	movzwl 0x1172b(%rip),%eax        # 1f5eb <g_437+0xb>
    dec0:	83 c0 01             	add    $0x1,%eax
    dec3:	66 89 05 21 17 01 00 	mov    %ax,0x11721(%rip)        # 1f5eb <g_437+0xb>
    deca:	0f b7 05 1a 17 01 00 	movzwl 0x1171a(%rip),%eax        # 1f5eb <g_437+0xb>
    ded1:	66 83 f8 06          	cmp    $0x6,%ax
    ded5:	0f 86 66 ff ff ff    	jbe    de41 <func_33+0x2fb0>
    dedb:	0f b7 05 79 19 01 00 	movzwl 0x11979(%rip),%eax        # 1f85b <g_924+0xb>
    dee2:	83 c0 01             	add    $0x1,%eax
    dee5:	66 89 05 6f 19 01 00 	mov    %ax,0x1196f(%rip)        # 1f85b <g_924+0xb>
    deec:	0f b7 05 68 19 01 00 	movzwl 0x11968(%rip),%eax        # 1f85b <g_924+0xb>
    def3:	66 83 f8 08          	cmp    $0x8,%ax
    def7:	0f 86 36 ff ff ff    	jbe    de33 <func_33+0x2fa2>
    defd:	0f b7 05 77 19 01 00 	movzwl 0x11977(%rip),%eax        # 1f87b <g_1081+0xb>
    df04:	83 c0 01             	add    $0x1,%eax
    df07:	66 89 05 6d 19 01 00 	mov    %ax,0x1196d(%rip)        # 1f87b <g_1081+0xb>
    df0e:	0f b7 05 66 19 01 00 	movzwl 0x11966(%rip),%eax        # 1f87b <g_1081+0xb>
    df15:	66 85 c0             	test   %ax,%ax
    df18:	0f 84 07 ff ff ff    	je     de25 <func_33+0x2f94>
    df1e:	83 85 e8 f4 ff ff 01 	addl   $0x1,-0xb18(%rbp)
    df25:	83 bd e8 f4 ff ff 08 	cmpl   $0x8,-0xb18(%rbp)
    df2c:	0f 8e bb f9 ff ff    	jle    d8ed <func_33+0x2a5c>
    df32:	0f b7 05 d5 01 01 00 	movzwl 0x101d5(%rip),%eax        # 1e10e <g_224>
    df39:	83 c0 01             	add    $0x1,%eax
    df3c:	66 89 05 cb 01 01 00 	mov    %ax,0x101cb(%rip)        # 1e10e <g_224>
    df43:	0f b7 05 c4 01 01 00 	movzwl 0x101c4(%rip),%eax        # 1e10e <g_224>
    df4a:	66 83 f8 01          	cmp    $0x1,%ax
    df4e:	0f 8e be e7 ff ff    	jle    c712 <func_33+0x1881>
    df54:	eb 01                	jmp    df57 <func_33+0x30c6>
    df56:	90                   	nop
    df57:	48 8b 05 d2 41 01 00 	mov    0x141d2(%rip),%rax        # 22130 <g_1193>
    df5e:	48 8b 00             	mov    (%rax),%rax
    df61:	0f b6 00             	movzbl (%rax),%eax
    df64:	48 8b 5d c8          	mov    -0x38(%rbp),%rbx
    df68:	64 48 33 1c 25 28 00 	xor    %fs:0x28,%rbx
    df6f:	00 00 
    df71:	74 05                	je     df78 <func_33+0x30e7>
    df73:	e8 f8 a0 ff ff       	callq  8070 <__stack_chk_fail@plt>
    df78:	48 81 c4 58 0b 00 00 	add    $0xb58,%rsp
    df7f:	5b                   	pop    %rbx
    df80:	41 5c                	pop    %r12
    df82:	41 5d                	pop    %r13
    df84:	41 5e                	pop    %r14
    df86:	41 5f                	pop    %r15
    df88:	5d                   	pop    %rbp
    df89:	c3                   	retq   

000000000000df8a <func_37>:
    df8a:	f3 0f 1e fa          	endbr64 
    df8e:	55                   	push   %rbp
    df8f:	48 89 e5             	mov    %rsp,%rbp
    df92:	41 57                	push   %r15
    df94:	41 56                	push   %r14
    df96:	41 55                	push   %r13
    df98:	41 54                	push   %r12
    df9a:	53                   	push   %rbx
    df9b:	48 81 ec 08 04 00 00 	sub    $0x408,%rsp
    dfa2:	48 89 bd e8 fb ff ff 	mov    %rdi,-0x418(%rbp)
    dfa9:	48 89 b5 e0 fb ff ff 	mov    %rsi,-0x420(%rbp)
    dfb0:	89 d0                	mov    %edx,%eax
    dfb2:	48 89 8d d0 fb ff ff 	mov    %rcx,-0x430(%rbp)
    dfb9:	44 89 85 d8 fb ff ff 	mov    %r8d,-0x428(%rbp)
    dfc0:	66 89 85 dc fb ff ff 	mov    %ax,-0x424(%rbp)
    dfc7:	64 48 8b 04 25 28 00 	mov    %fs:0x28,%rax
    dfce:	00 00 
    dfd0:	48 89 45 c8          	mov    %rax,-0x38(%rbp)
    dfd4:	31 c0                	xor    %eax,%eax
    dfd6:	c7 85 fc fb ff ff 01 	movl   $0x1,-0x404(%rbp)
    dfdd:	00 00 00 
    dfe0:	48 8d 05 62 15 01 00 	lea    0x11562(%rip),%rax        # 1f549 <g_432+0x9>
    dfe7:	48 89 85 08 fc ff ff 	mov    %rax,-0x3f8(%rbp)
    dfee:	48 8d 85 08 fc ff ff 	lea    -0x3f8(%rbp),%rax
    dff5:	48 89 85 18 fc ff ff 	mov    %rax,-0x3e8(%rbp)
    dffc:	48 8d 05 ed 17 01 00 	lea    0x117ed(%rip),%rax        # 1f7f0 <g_743>
    e003:	48 89 85 20 fc ff ff 	mov    %rax,-0x3e0(%rbp)
    e00a:	48 c7 85 28 fc ff ff 	movq   $0x0,-0x3d8(%rbp)
    e011:	00 00 00 00 
    e015:	c7 85 f8 fb ff ff c3 	movl   $0x4f07e6c3,-0x408(%rbp)
    e01c:	e6 07 4f 
    e01f:	48 8d 85 f8 fb ff ff 	lea    -0x408(%rbp),%rax
    e026:	48 89 85 30 fc ff ff 	mov    %rax,-0x3d0(%rbp)
    e02d:	48 8d 05 34 01 01 00 	lea    0x10134(%rip),%rax        # 1e168 <g_231+0x48>
    e034:	48 89 85 38 fc ff ff 	mov    %rax,-0x3c8(%rbp)
    e03b:	48 8d 05 e6 00 01 00 	lea    0x100e6(%rip),%rax        # 1e128 <g_231+0x8>
    e042:	48 89 85 40 fc ff ff 	mov    %rax,-0x3c0(%rbp)
    e049:	48 8d 85 d0 fc ff ff 	lea    -0x330(%rbp),%rax
    e050:	48 8d 15 29 22 01 00 	lea    0x12229(%rip),%rdx        # 20280 <g_1685+0x94a>
    e057:	b9 23 00 00 00       	mov    $0x23,%ecx
    e05c:	48 89 c7             	mov    %rax,%rdi
    e05f:	48 89 d6             	mov    %rdx,%rsi
    e062:	f3 48 a5             	rep movsq %ds:(%rsi),%es:(%rdi)
    e065:	48 c7 85 48 fc ff ff 	movq   $0xffffffffffffffff,-0x3b8(%rbp)
    e06c:	ff ff ff ff 
    e070:	48 8d 05 d9 17 01 00 	lea    0x117d9(%rip),%rax        # 1f850 <g_924>
    e077:	48 89 85 10 fc ff ff 	mov    %rax,-0x3f0(%rbp)
    e07e:	48 8d 05 23 38 01 00 	lea    0x13823(%rip),%rax        # 218a8 <g_406>
    e085:	48 89 85 f0 fd ff ff 	mov    %rax,-0x210(%rbp)
    e08c:	48 8d 85 10 fc ff ff 	lea    -0x3f0(%rbp),%rax
    e093:	48 89 85 f8 fd ff ff 	mov    %rax,-0x208(%rbp)
    e09a:	48 c7 85 00 fe ff ff 	movq   $0x0,-0x200(%rbp)
    e0a1:	00 00 00 00 
    e0a5:	48 8d 05 fc 37 01 00 	lea    0x137fc(%rip),%rax        # 218a8 <g_406>
    e0ac:	48 89 85 08 fe ff ff 	mov    %rax,-0x1f8(%rbp)
    e0b3:	48 c7 85 10 fe ff ff 	movq   $0x0,-0x1f0(%rbp)
    e0ba:	00 00 00 00 
    e0be:	48 8d 85 10 fc ff ff 	lea    -0x3f0(%rbp),%rax
    e0c5:	48 89 85 18 fe ff ff 	mov    %rax,-0x1e8(%rbp)
    e0cc:	48 8d 05 d5 37 01 00 	lea    0x137d5(%rip),%rax        # 218a8 <g_406>
    e0d3:	48 89 85 20 fe ff ff 	mov    %rax,-0x1e0(%rbp)
    e0da:	48 8d 05 c7 37 01 00 	lea    0x137c7(%rip),%rax        # 218a8 <g_406>
    e0e1:	48 89 85 28 fe ff ff 	mov    %rax,-0x1d8(%rbp)
    e0e8:	48 8d 85 10 fc ff ff 	lea    -0x3f0(%rbp),%rax
    e0ef:	48 89 85 30 fe ff ff 	mov    %rax,-0x1d0(%rbp)
    e0f6:	48 8d 05 ab 37 01 00 	lea    0x137ab(%rip),%rax        # 218a8 <g_406>
    e0fd:	48 89 85 38 fe ff ff 	mov    %rax,-0x1c8(%rbp)
    e104:	48 c7 85 40 fe ff ff 	movq   $0x0,-0x1c0(%rbp)
    e10b:	00 00 00 00 
    e10f:	48 8d 85 10 fc ff ff 	lea    -0x3f0(%rbp),%rax
    e116:	48 89 85 48 fe ff ff 	mov    %rax,-0x1b8(%rbp)
    e11d:	48 8d 85 10 fc ff ff 	lea    -0x3f0(%rbp),%rax
    e124:	48 89 85 50 fe ff ff 	mov    %rax,-0x1b0(%rbp)
    e12b:	48 c7 85 58 fe ff ff 	movq   $0x0,-0x1a8(%rbp)
    e132:	00 00 00 00 
    e136:	48 c7 85 60 fe ff ff 	movq   $0x0,-0x1a0(%rbp)
    e13d:	00 00 00 00 
    e141:	48 8d 05 60 37 01 00 	lea    0x13760(%rip),%rax        # 218a8 <g_406>
    e148:	48 89 85 68 fe ff ff 	mov    %rax,-0x198(%rbp)
    e14f:	48 c7 85 70 fe ff ff 	movq   $0x0,-0x190(%rbp)
    e156:	00 00 00 00 
    e15a:	48 c7 85 78 fe ff ff 	movq   $0x0,-0x188(%rbp)
    e161:	00 00 00 00 
    e165:	48 8d 85 10 fc ff ff 	lea    -0x3f0(%rbp),%rax
    e16c:	48 89 85 80 fe ff ff 	mov    %rax,-0x180(%rbp)
    e173:	48 8d 05 2e 37 01 00 	lea    0x1372e(%rip),%rax        # 218a8 <g_406>
    e17a:	48 89 85 88 fe ff ff 	mov    %rax,-0x178(%rbp)
    e181:	48 8d 85 10 fc ff ff 	lea    -0x3f0(%rbp),%rax
    e188:	48 89 85 90 fe ff ff 	mov    %rax,-0x170(%rbp)
    e18f:	48 c7 85 98 fe ff ff 	movq   $0x0,-0x168(%rbp)
    e196:	00 00 00 00 
    e19a:	48 8d 05 07 37 01 00 	lea    0x13707(%rip),%rax        # 218a8 <g_406>
    e1a1:	48 89 85 a0 fe ff ff 	mov    %rax,-0x160(%rbp)
    e1a8:	48 c7 85 a8 fe ff ff 	movq   $0x0,-0x158(%rbp)
    e1af:	00 00 00 00 
    e1b3:	48 8d 85 10 fc ff ff 	lea    -0x3f0(%rbp),%rax
    e1ba:	48 89 85 b0 fe ff ff 	mov    %rax,-0x150(%rbp)
    e1c1:	48 8d 05 e0 36 01 00 	lea    0x136e0(%rip),%rax        # 218a8 <g_406>
    e1c8:	48 89 85 b8 fe ff ff 	mov    %rax,-0x148(%rbp)
    e1cf:	48 8d 05 d2 36 01 00 	lea    0x136d2(%rip),%rax        # 218a8 <g_406>
    e1d6:	48 89 85 c0 fe ff ff 	mov    %rax,-0x140(%rbp)
    e1dd:	48 8d 05 c4 36 01 00 	lea    0x136c4(%rip),%rax        # 218a8 <g_406>
    e1e4:	48 89 85 c8 fe ff ff 	mov    %rax,-0x138(%rbp)
    e1eb:	48 8d 05 b6 36 01 00 	lea    0x136b6(%rip),%rax        # 218a8 <g_406>
    e1f2:	48 89 85 d0 fe ff ff 	mov    %rax,-0x130(%rbp)
    e1f9:	48 8d 05 a8 36 01 00 	lea    0x136a8(%rip),%rax        # 218a8 <g_406>
    e200:	48 89 85 d8 fe ff ff 	mov    %rax,-0x128(%rbp)
    e207:	48 8d 85 10 fc ff ff 	lea    -0x3f0(%rbp),%rax
    e20e:	48 89 85 e0 fe ff ff 	mov    %rax,-0x120(%rbp)
    e215:	48 8d 85 10 fc ff ff 	lea    -0x3f0(%rbp),%rax
    e21c:	48 89 85 e8 fe ff ff 	mov    %rax,-0x118(%rbp)
    e223:	48 8d 05 7e 36 01 00 	lea    0x1367e(%rip),%rax        # 218a8 <g_406>
    e22a:	48 89 85 f0 fe ff ff 	mov    %rax,-0x110(%rbp)
    e231:	48 8d 05 70 36 01 00 	lea    0x13670(%rip),%rax        # 218a8 <g_406>
    e238:	48 89 85 f8 fe ff ff 	mov    %rax,-0x108(%rbp)
    e23f:	48 8d 85 10 fc ff ff 	lea    -0x3f0(%rbp),%rax
    e246:	48 89 85 00 ff ff ff 	mov    %rax,-0x100(%rbp)
    e24d:	48 8d 05 54 36 01 00 	lea    0x13654(%rip),%rax        # 218a8 <g_406>
    e254:	48 89 85 08 ff ff ff 	mov    %rax,-0xf8(%rbp)
    e25b:	48 c7 85 10 ff ff ff 	movq   $0x0,-0xf0(%rbp)
    e262:	00 00 00 00 
    e266:	48 8d 05 3b 36 01 00 	lea    0x1363b(%rip),%rax        # 218a8 <g_406>
    e26d:	48 89 85 18 ff ff ff 	mov    %rax,-0xe8(%rbp)
    e274:	48 8d 85 10 fc ff ff 	lea    -0x3f0(%rbp),%rax
    e27b:	48 89 85 20 ff ff ff 	mov    %rax,-0xe0(%rbp)
    e282:	48 8d 05 1f 36 01 00 	lea    0x1361f(%rip),%rax        # 218a8 <g_406>
    e289:	48 89 85 28 ff ff ff 	mov    %rax,-0xd8(%rbp)
    e290:	48 8d 85 10 fc ff ff 	lea    -0x3f0(%rbp),%rax
    e297:	48 89 85 30 ff ff ff 	mov    %rax,-0xd0(%rbp)
    e29e:	48 8d 85 10 fc ff ff 	lea    -0x3f0(%rbp),%rax
    e2a5:	48 89 85 38 ff ff ff 	mov    %rax,-0xc8(%rbp)
    e2ac:	48 8d 05 f5 35 01 00 	lea    0x135f5(%rip),%rax        # 218a8 <g_406>
    e2b3:	48 89 85 40 ff ff ff 	mov    %rax,-0xc0(%rbp)
    e2ba:	48 8d 05 e7 35 01 00 	lea    0x135e7(%rip),%rax        # 218a8 <g_406>
    e2c1:	48 89 85 48 ff ff ff 	mov    %rax,-0xb8(%rbp)
    e2c8:	48 c7 85 50 ff ff ff 	movq   $0x0,-0xb0(%rbp)
    e2cf:	00 00 00 00 
    e2d3:	48 8d 85 10 fc ff ff 	lea    -0x3f0(%rbp),%rax
    e2da:	48 89 85 58 ff ff ff 	mov    %rax,-0xa8(%rbp)
    e2e1:	48 8d 05 c0 35 01 00 	lea    0x135c0(%rip),%rax        # 218a8 <g_406>
    e2e8:	48 89 85 60 ff ff ff 	mov    %rax,-0xa0(%rbp)
    e2ef:	48 8d 85 10 fc ff ff 	lea    -0x3f0(%rbp),%rax
    e2f6:	48 89 85 68 ff ff ff 	mov    %rax,-0x98(%rbp)
    e2fd:	48 c7 85 70 ff ff ff 	movq   $0x0,-0x90(%rbp)
    e304:	00 00 00 00 
    e308:	48 c7 85 78 ff ff ff 	movq   $0x0,-0x88(%rbp)
    e30f:	00 00 00 00 
    e313:	48 c7 45 80 00 00 00 	movq   $0x0,-0x80(%rbp)
    e31a:	00 
    e31b:	48 8d 05 86 35 01 00 	lea    0x13586(%rip),%rax        # 218a8 <g_406>
    e322:	48 89 45 88          	mov    %rax,-0x78(%rbp)
    e326:	48 c7 45 90 00 00 00 	movq   $0x0,-0x70(%rbp)
    e32d:	00 
    e32e:	48 8d 85 10 fc ff ff 	lea    -0x3f0(%rbp),%rax
    e335:	48 89 45 98          	mov    %rax,-0x68(%rbp)
    e339:	48 c7 45 a0 00 00 00 	movq   $0x0,-0x60(%rbp)
    e340:	00 
    e341:	48 c7 45 a8 00 00 00 	movq   $0x0,-0x58(%rbp)
    e348:	00 
    e349:	66 c7 05 a9 fd 00 00 	movw   $0x0,0xfda9(%rip)        # 1e0fb <g_140+0xb>
    e350:	00 00 
    e352:	e9 39 03 00 00       	jmpq   e690 <func_37+0x706>
    e357:	66 c7 85 f6 fb ff ff 	movw   $0x5,-0x40a(%rbp)
    e35e:	05 00 
    e360:	48 c7 85 50 fc ff ff 	movq   $0x0,-0x3b0(%rbp)
    e367:	00 00 00 00 
    e36b:	48 b8 4a bb 4a bb 4a 	movabs $0xbb4abb4abb4abb4a,%rax
    e372:	bb 4a bb 
    e375:	48 89 45 bf          	mov    %rax,-0x41(%rbp)
    e379:	c6 45 c7 4a          	movb   $0x4a,-0x39(%rbp)
    e37d:	83 85 fc fb ff ff 01 	addl   $0x1,-0x404(%rbp)
    e384:	c6 05 7d fe 00 00 00 	movb   $0x0,0xfe7d(%rip)        # 1e208 <g_427+0x8>
    e38b:	e9 dd 02 00 00       	jmpq   e66d <func_37+0x6e3>
    e390:	48 c7 85 58 fc ff ff 	movq   $0x0,-0x3a8(%rbp)
    e397:	00 00 00 00 
    e39b:	c7 85 04 fc ff ff 01 	movl   $0x1,-0x3fc(%rbp)
    e3a2:	00 00 00 
    e3a5:	48 8d 05 90 14 01 00 	lea    0x11490(%rip),%rax        # 1f83c <g_836>
    e3ac:	48 89 85 60 fc ff ff 	mov    %rax,-0x3a0(%rbp)
    e3b3:	48 8d 05 82 14 01 00 	lea    0x11482(%rip),%rax        # 1f83c <g_836>
    e3ba:	48 89 85 68 fc ff ff 	mov    %rax,-0x398(%rbp)
    e3c1:	48 8d 05 74 14 01 00 	lea    0x11474(%rip),%rax        # 1f83c <g_836>
    e3c8:	48 89 85 70 fc ff ff 	mov    %rax,-0x390(%rbp)
    e3cf:	48 8d 05 66 14 01 00 	lea    0x11466(%rip),%rax        # 1f83c <g_836>
    e3d6:	48 89 85 78 fc ff ff 	mov    %rax,-0x388(%rbp)
    e3dd:	c7 85 00 fc ff ff 00 	movl   $0x0,-0x400(%rbp)
    e3e4:	00 00 00 
    e3e7:	eb 1e                	jmp    e407 <func_37+0x47d>
    e3e9:	8b 85 00 fc ff ff    	mov    -0x400(%rbp),%eax
    e3ef:	48 98                	cltq   
    e3f1:	48 8d 15 16 fd 00 00 	lea    0xfd16(%rip),%rdx        # 1e10e <g_224>
    e3f8:	48 89 94 c5 80 fc ff 	mov    %rdx,-0x380(%rbp,%rax,8)
    e3ff:	ff 
    e400:	83 85 00 fc ff ff 01 	addl   $0x1,-0x400(%rbp)
    e407:	83 bd 00 fc ff ff 08 	cmpl   $0x8,-0x400(%rbp)
    e40e:	7e d9                	jle    e3e9 <func_37+0x45f>
    e410:	48 8b 85 e8 fb ff ff 	mov    -0x418(%rbp),%rax
    e417:	48 8b 95 58 fc ff ff 	mov    -0x3a8(%rbp),%rdx
    e41e:	48 89 10             	mov    %rdx,(%rax)
    e421:	0f b7 85 f6 fb ff ff 	movzwl -0x40a(%rbp),%eax
    e428:	0f b6 d8             	movzbl %al,%ebx
    e42b:	48 8b 85 d0 fb ff ff 	mov    -0x430(%rbp),%rax
    e432:	41 89 c7             	mov    %eax,%r15d
    e435:	44 8b a5 d8 fb ff ff 	mov    -0x428(%rbp),%r12d
    e43c:	0f b7 85 f6 fb ff ff 	movzwl -0x40a(%rbp),%eax
    e443:	0f bf d0             	movswl %ax,%edx
    e446:	48 83 bd 18 fc ff ff 	cmpq   $0x0,-0x3e8(%rbp)
    e44d:	00 
    e44e:	0f 95 c0             	setne  %al
    e451:	0f b6 c0             	movzbl %al,%eax
    e454:	89 d6                	mov    %edx,%esi
    e456:	89 c7                	mov    %eax,%edi
    e458:	e8 98 9f ff ff       	callq  83f5 <safe_mul_func_int16_t_s_s>
    e45d:	66 85 c0             	test   %ax,%ax
    e460:	0f 85 3d 01 00 00    	jne    e5a3 <func_37+0x619>
    e466:	8b 85 d8 fb ff ff    	mov    -0x428(%rbp),%eax
    e46c:	44 0f be e8          	movsbl %al,%r13d
    e470:	44 0f b7 b5 f6 fb ff 	movzwl -0x40a(%rbp),%r14d
    e477:	ff 
    e478:	8b 85 d8 fb ff ff    	mov    -0x428(%rbp),%eax
    e47e:	48 89 c6             	mov    %rax,%rsi
    e481:	bf 00 00 00 00       	mov    $0x0,%edi
    e486:	e8 24 ac ff ff       	callq  90af <safe_div_func_uint64_t_u_u>
    e48b:	0f b7 c0             	movzwl %ax,%eax
    e48e:	44 89 f6             	mov    %r14d,%esi
    e491:	89 c7                	mov    %eax,%edi
    e493:	e8 e2 a9 ff ff       	callq  8e7a <safe_rshift_func_uint16_t_u_u>
    e498:	66 3d a6 cf          	cmp    $0xcfa6,%ax
    e49c:	0f 97 c0             	seta   %al
    e49f:	0f b6 c0             	movzbl %al,%eax
    e4a2:	89 c2                	mov    %eax,%edx
    e4a4:	0f b7 05 63 fc 00 00 	movzwl 0xfc63(%rip),%eax        # 1e10e <g_224>
    e4ab:	21 d0                	and    %edx,%eax
    e4ad:	66 89 05 5a fc 00 00 	mov    %ax,0xfc5a(%rip)        # 1e10e <g_224>
    e4b4:	0f b7 05 53 fc 00 00 	movzwl 0xfc53(%rip),%eax        # 1e10e <g_224>
    e4bb:	0f bf d0             	movswl %ax,%edx
    e4be:	0f b7 05 a6 fd 00 00 	movzwl 0xfda6(%rip),%eax        # 1e26b <g_430+0xb>
    e4c5:	0f b7 c0             	movzwl %ax,%eax
    e4c8:	31 d0                	xor    %edx,%eax
    e4ca:	3d ff a6 00 00       	cmp    $0xa6ff,%eax
    e4cf:	0f 95 c0             	setne  %al
    e4d2:	0f b6 d0             	movzbl %al,%edx
    e4d5:	0f bf 85 dc fb ff ff 	movswl -0x424(%rbp),%eax
    e4dc:	31 d0                	xor    %edx,%eax
    e4de:	89 c2                	mov    %eax,%edx
    e4e0:	8b 85 fc fb ff ff    	mov    -0x404(%rbp),%eax
    e4e6:	89 c6                	mov    %eax,%esi
    e4e8:	89 d7                	mov    %edx,%edi
    e4ea:	e8 e1 a9 ff ff       	callq  8ed0 <safe_sub_func_uint32_t_u_u>
    e4ef:	66 83 bd f6 fb ff ff 	cmpw   $0x5b,-0x40a(%rbp)
    e4f6:	5b 
    e4f7:	0f 96 c0             	setbe  %al
    e4fa:	0f b6 c0             	movzbl %al,%eax
    e4fd:	be 02 00 00 00       	mov    $0x2,%esi
    e502:	89 c7                	mov    %eax,%edi
    e504:	e8 98 9d ff ff       	callq  82a1 <safe_lshift_func_int8_t_s_s>
    e509:	be 62 00 00 00       	mov    $0x62,%esi
    e50e:	bf 00 00 00 00       	mov    $0x0,%edi
    e513:	e8 fa 9c ff ff       	callq  8212 <safe_mul_func_int8_t_s_s>
    e518:	48 83 bd d0 fb ff ff 	cmpq   $0x9,-0x430(%rbp)
    e51f:	09 
    e520:	0f 97 c0             	seta   %al
    e523:	0f b6 c0             	movzbl %al,%eax
    e526:	66 89 05 0d 13 01 00 	mov    %ax,0x1130d(%rip)        # 1f83a <g_783+0x2>
    e52d:	0f b7 05 06 13 01 00 	movzwl 0x11306(%rip),%eax        # 1f83a <g_783+0x2>
    e534:	0f b7 c0             	movzwl %ax,%eax
    e537:	83 e0 07             	and    $0x7,%eax
    e53a:	89 c2                	mov    %eax,%edx
    e53c:	48 8b 85 20 fc ff ff 	mov    -0x3e0(%rbp),%rax
    e543:	48 3b 85 50 fc ff ff 	cmp    -0x3b0(%rbp),%rax
    e54a:	0f 95 c0             	setne  %al
    e54d:	0f b6 c0             	movzbl %al,%eax
    e550:	89 d6                	mov    %edx,%esi
    e552:	89 c7                	mov    %eax,%edi
    e554:	e8 e4 a7 ff ff       	callq  8d3d <safe_mul_func_uint16_t_u_u>
    e559:	88 05 dd 12 01 00    	mov    %al,0x112dd(%rip)        # 1f83c <g_836>
    e55f:	0f b6 05 d6 12 01 00 	movzbl 0x112d6(%rip),%eax        # 1f83c <g_836>
    e566:	0f be c0             	movsbl %al,%eax
    e569:	44 89 ee             	mov    %r13d,%esi
    e56c:	89 c7                	mov    %eax,%edi
    e56e:	e8 9f 9c ff ff       	callq  8212 <safe_mul_func_int8_t_s_s>
    e573:	0f be c0             	movsbl %al,%eax
    e576:	c1 e0 09             	shl    $0x9,%eax
    e579:	c1 f8 09             	sar    $0x9,%eax
    e57c:	0f b6 15 3c 12 01 00 	movzbl 0x1123c(%rip),%edx        # 1f7bf <g_442+0xf>
    e583:	0f b7 0d 36 12 01 00 	movzwl 0x11236(%rip),%ecx        # 1f7c0 <g_442+0x10>
    e58a:	81 e1 ff 7f 00 00    	and    $0x7fff,%ecx
    e590:	48 c1 e1 08          	shl    $0x8,%rcx
    e594:	48 09 ca             	or     %rcx,%rdx
    e597:	48 c1 e2 29          	shl    $0x29,%rdx
    e59b:	48 c1 fa 29          	sar    $0x29,%rdx
    e59f:	39 d0                	cmp    %edx,%eax
    e5a1:	74 07                	je     e5aa <func_37+0x620>
    e5a3:	b8 01 00 00 00       	mov    $0x1,%eax
    e5a8:	eb 05                	jmp    e5af <func_37+0x625>
    e5aa:	b8 00 00 00 00       	mov    $0x0,%eax
    e5af:	48 98                	cltq   
    e5b1:	4c 89 e6             	mov    %r12,%rsi
    e5b4:	48 89 c7             	mov    %rax,%rdi
    e5b7:	e8 ec a2 ff ff       	callq  88a8 <safe_sub_func_int64_t_s_s>
    e5bc:	41 89 c4             	mov    %eax,%r12d
    e5bf:	8b 85 d8 fb ff ff    	mov    -0x428(%rbp),%eax
    e5c5:	98                   	cwtl   
    e5c6:	89 c6                	mov    %eax,%esi
    e5c8:	bf f8 ff ff ff       	mov    $0xfffffff8,%edi
    e5cd:	e8 01 9e ff ff       	callq  83d3 <safe_sub_func_int16_t_s_s>
    e5d2:	98                   	cwtl   
    e5d3:	44 89 e6             	mov    %r12d,%esi
    e5d6:	89 c7                	mov    %eax,%edi
    e5d8:	e8 db a8 ff ff       	callq  8eb8 <safe_add_func_uint32_t_u_u>
    e5dd:	85 c0                	test   %eax,%eax
    e5df:	74 11                	je     e5f2 <func_37+0x668>
    e5e1:	48 83 bd d0 fb ff ff 	cmpq   $0x0,-0x430(%rbp)
    e5e8:	00 
    e5e9:	74 07                	je     e5f2 <func_37+0x668>
    e5eb:	b8 01 00 00 00       	mov    $0x1,%eax
    e5f0:	eb 05                	jmp    e5f7 <func_37+0x66d>
    e5f2:	b8 00 00 00 00       	mov    $0x0,%eax
    e5f7:	44 89 fe             	mov    %r15d,%esi
    e5fa:	89 c7                	mov    %eax,%edi
    e5fc:	e8 cb a0 ff ff       	callq  86cc <safe_mod_func_int32_t_s_s>
    e601:	48 8b 95 20 fc ff ff 	mov    -0x3e0(%rbp),%rdx
    e608:	48 8b 12             	mov    (%rdx),%rdx
    e60b:	48 98                	cltq   
    e60d:	48 31 c2             	xor    %rax,%rdx
    e610:	48 8b 85 20 fc ff ff 	mov    -0x3e0(%rbp),%rax
    e617:	48 89 10             	mov    %rdx,(%rax)
    e61a:	48 8b 85 20 fc ff ff 	mov    -0x3e0(%rbp),%rax
    e621:	48 8b 10             	mov    (%rax),%rdx
    e624:	0f b7 05 de 11 01 00 	movzwl 0x111de(%rip),%eax        # 1f809 <g_780+0x9>
    e62b:	0f b7 c0             	movzwl %ax,%eax
    e62e:	48 39 c2             	cmp    %rax,%rdx
    e631:	0f 95 c0             	setne  %al
    e634:	0f b6 c0             	movzbl %al,%eax
    e637:	89 de                	mov    %ebx,%esi
    e639:	89 c7                	mov    %eax,%edi
    e63b:	e8 1a a5 ff ff       	callq  8b5a <safe_add_func_uint8_t_u_u>
    e640:	0f b6 c0             	movzbl %al,%eax
    e643:	89 05 f7 11 01 00    	mov    %eax,0x111f7(%rip)        # 1f840 <g_910>
    e649:	66 83 bd dc fb ff ff 	cmpw   $0x0,-0x424(%rbp)
    e650:	00 
    e651:	75 2b                	jne    e67e <func_37+0x6f4>
    e653:	0f b6 45 c2          	movzbl -0x3e(%rbp),%eax
    e657:	83 e8 01             	sub    $0x1,%eax
    e65a:	88 45 c2             	mov    %al,-0x3e(%rbp)
    e65d:	0f b6 05 a4 fb 00 00 	movzbl 0xfba4(%rip),%eax        # 1e208 <g_427+0x8>
    e664:	83 c0 01             	add    $0x1,%eax
    e667:	88 05 9b fb 00 00    	mov    %al,0xfb9b(%rip)        # 1e208 <g_427+0x8>
    e66d:	0f b6 05 94 fb 00 00 	movzbl 0xfb94(%rip),%eax        # 1e208 <g_427+0x8>
    e674:	3c 39                	cmp    $0x39,%al
    e676:	0f 87 14 fd ff ff    	ja     e390 <func_37+0x406>
    e67c:	eb 01                	jmp    e67f <func_37+0x6f5>
    e67e:	90                   	nop
    e67f:	0f b7 05 75 fa 00 00 	movzwl 0xfa75(%rip),%eax        # 1e0fb <g_140+0xb>
    e686:	83 c0 01             	add    $0x1,%eax
    e689:	66 89 05 6b fa 00 00 	mov    %ax,0xfa6b(%rip)        # 1e0fb <g_140+0xb>
    e690:	0f b7 05 64 fa 00 00 	movzwl 0xfa64(%rip),%eax        # 1e0fb <g_140+0xb>
    e697:	66 83 f8 35          	cmp    $0x35,%ax
    e69b:	0f 86 b6 fc ff ff    	jbe    e357 <func_37+0x3cd>
    e6a1:	8b 85 f8 fb ff ff    	mov    -0x408(%rbp),%eax
    e6a7:	25 af ab 9b 92       	and    $0x929babaf,%eax
    e6ac:	89 85 f8 fb ff ff    	mov    %eax,-0x408(%rbp)
    e6b2:	48 83 85 48 fc ff ff 	addq   $0x1,-0x3b8(%rbp)
    e6b9:	01 
    e6ba:	48 8b 85 10 fc ff ff 	mov    -0x3f0(%rbp),%rax
    e6c1:	48 89 05 e0 31 01 00 	mov    %rax,0x131e0(%rip)        # 218a8 <g_406>
    e6c8:	8b 85 d8 fb ff ff    	mov    -0x428(%rbp),%eax
    e6ce:	48 8b 5d c8          	mov    -0x38(%rbp),%rbx
    e6d2:	64 48 33 1c 25 28 00 	xor    %fs:0x28,%rbx
    e6d9:	00 00 
    e6db:	74 05                	je     e6e2 <func_37+0x758>
    e6dd:	e8 8e 99 ff ff       	callq  8070 <__stack_chk_fail@plt>
    e6e2:	48 81 c4 08 04 00 00 	add    $0x408,%rsp
    e6e9:	5b                   	pop    %rbx
    e6ea:	41 5c                	pop    %r12
    e6ec:	41 5d                	pop    %r13
    e6ee:	41 5e                	pop    %r14
    e6f0:	41 5f                	pop    %r15
    e6f2:	5d                   	pop    %rbp
    e6f3:	c3                   	retq   

000000000000e6f4 <func_46>:
    e6f4:	f3 0f 1e fa          	endbr64 
    e6f8:	55                   	push   %rbp
    e6f9:	48 89 e5             	mov    %rsp,%rbp
    e6fc:	41 54                	push   %r12
    e6fe:	53                   	push   %rbx
    e6ff:	48 83 ec 70          	sub    $0x70,%rsp
    e703:	89 7d 9c             	mov    %edi,-0x64(%rbp)
    e706:	48 89 75 90          	mov    %rsi,-0x70(%rbp)
    e70a:	89 55 98             	mov    %edx,-0x68(%rbp)
    e70d:	89 c8                	mov    %ecx,%eax
    e70f:	4c 89 45 80          	mov    %r8,-0x80(%rbp)
    e713:	88 45 8c             	mov    %al,-0x74(%rbp)
    e716:	64 48 8b 04 25 28 00 	mov    %fs:0x28,%rax
    e71d:	00 00 
    e71f:	48 89 45 e8          	mov    %rax,-0x18(%rbp)
    e723:	31 c0                	xor    %eax,%eax
    e725:	48 8d 05 3d 0f 01 00 	lea    0x10f3d(%rip),%rax        # 1f669 <g_438+0x69>
    e72c:	48 89 45 b8          	mov    %rax,-0x48(%rbp)
    e730:	48 c7 45 c0 00 00 00 	movq   $0x0,-0x40(%rbp)
    e737:	00 
    e738:	c7 45 a8 ff ff ff ff 	movl   $0xffffffff,-0x58(%rbp)
    e73f:	c7 45 ac 01 00 00 00 	movl   $0x1,-0x54(%rbp)
    e746:	c7 45 b0 ee c1 6f 7a 	movl   $0x7a6fc1ee,-0x50(%rbp)
    e74d:	48 8d 05 84 f9 00 00 	lea    0xf984(%rip),%rax        # 1e0d8 <g_105>
    e754:	48 89 45 c8          	mov    %rax,-0x38(%rbp)
    e758:	c7 45 b4 fa ff ff ff 	movl   $0xfffffffa,-0x4c(%rbp)
    e75f:	c7 45 a4 00 00 00 00 	movl   $0x0,-0x5c(%rbp)
    e766:	eb 15                	jmp    e77d <func_46+0x89>
    e768:	8b 45 a4             	mov    -0x5c(%rbp),%eax
    e76b:	48 98                	cltq   
    e76d:	48 8d 15 54 fa 00 00 	lea    0xfa54(%rip),%rdx        # 1e1c8 <g_331>
    e774:	48 89 54 c5 d0       	mov    %rdx,-0x30(%rbp,%rax,8)
    e779:	83 45 a4 01          	addl   $0x1,-0x5c(%rbp)
    e77d:	83 7d a4 01          	cmpl   $0x1,-0x5c(%rbp)
    e781:	7e e5                	jle    e768 <func_46+0x74>
    e783:	41 bc 01 00 00 00    	mov    $0x1,%r12d
    e789:	8b 5d 9c             	mov    -0x64(%rbp),%ebx
    e78c:	8b 55 98             	mov    -0x68(%rbp),%edx
    e78f:	8b 0d dd 0e 01 00    	mov    0x10edd(%rip),%ecx        # 1f672 <g_438+0x72>
    e795:	8b 05 b7 fa 00 00    	mov    0xfab7(%rip),%eax        # 1e252 <g_429+0x12>
    e79b:	39 c1                	cmp    %eax,%ecx
    e79d:	0f 97 c0             	seta   %al
    e7a0:	0f b6 c0             	movzbl %al,%eax
    e7a3:	89 d6                	mov    %edx,%esi
    e7a5:	89 c7                	mov    %eax,%edi
    e7a7:	e8 e1 a4 ff ff       	callq  8c8d <safe_rshift_func_uint8_t_u_s>
    e7ac:	0f b6 c0             	movzbl %al,%eax
    e7af:	48 89 de             	mov    %rbx,%rsi
    e7b2:	48 89 c7             	mov    %rax,%rdi
    e7b5:	e8 c6 a8 ff ff       	callq  9080 <safe_mod_func_uint64_t_u_u>
    e7ba:	89 45 b0             	mov    %eax,-0x50(%rbp)
    e7bd:	8b 45 b0             	mov    -0x50(%rbp),%eax
    e7c0:	98                   	cwtl   
    e7c1:	89 c6                	mov    %eax,%esi
    e7c3:	bf 00 00 00 00       	mov    $0x0,%edi
    e7c8:	e8 06 9c ff ff       	callq  83d3 <safe_sub_func_int16_t_s_s>
    e7cd:	44 31 65 a8          	xor    %r12d,-0x58(%rbp)
    e7d1:	83 7d a8 00          	cmpl   $0x0,-0x58(%rbp)
    e7d5:	0f 9f c0             	setg   %al
    e7d8:	0f b6 d0             	movzbl %al,%edx
    e7db:	48 8b 45 c8          	mov    -0x38(%rbp),%rax
    e7df:	8b 00                	mov    (%rax),%eax
    e7e1:	21 c2                	and    %eax,%edx
    e7e3:	48 8b 45 c8          	mov    -0x38(%rbp),%rax
    e7e7:	89 10                	mov    %edx,(%rax)
    e7e9:	8b 45 b4             	mov    -0x4c(%rbp),%eax
    e7ec:	c1 e0 09             	shl    $0x9,%eax
    e7ef:	c1 f8 09             	sar    $0x9,%eax
    e7f2:	89 c2                	mov    %eax,%edx
    e7f4:	0f b6 ca             	movzbl %dl,%ecx
    e7f7:	0f b6 15 11 10 01 00 	movzbl 0x11011(%rip),%edx        # 1f80f <g_780+0xf>
    e7fe:	83 e2 00             	and    $0x0,%edx
    e801:	09 ca                	or     %ecx,%edx
    e803:	88 15 06 10 01 00    	mov    %dl,0x11006(%rip)        # 1f80f <g_780+0xf>
    e809:	89 c2                	mov    %eax,%edx
    e80b:	c1 ea 08             	shr    $0x8,%edx
    e80e:	89 d2                	mov    %edx,%edx
    e810:	0f b6 ca             	movzbl %dl,%ecx
    e813:	0f b6 15 f6 0f 01 00 	movzbl 0x10ff6(%rip),%edx        # 1f810 <g_780+0x10>
    e81a:	83 e2 00             	and    $0x0,%edx
    e81d:	09 ca                	or     %ecx,%edx
    e81f:	88 15 eb 0f 01 00    	mov    %dl,0x10feb(%rip)        # 1f810 <g_780+0x10>
    e825:	c1 e8 10             	shr    $0x10,%eax
    e828:	89 c0                	mov    %eax,%eax
    e82a:	83 e0 7f             	and    $0x7f,%eax
    e82d:	89 c2                	mov    %eax,%edx
    e82f:	83 e2 7f             	and    $0x7f,%edx
    e832:	0f b6 05 d8 0f 01 00 	movzbl 0x10fd8(%rip),%eax        # 1f811 <g_780+0x11>
    e839:	83 e0 80             	and    $0xffffff80,%eax
    e83c:	09 d0                	or     %edx,%eax
    e83e:	88 05 cd 0f 01 00    	mov    %al,0x10fcd(%rip)        # 1f811 <g_780+0x11>
    e844:	48 8b 45 c8          	mov    -0x38(%rbp),%rax
    e848:	8b 00                	mov    (%rax),%eax
    e84a:	48 98                	cltq   
    e84c:	48 8b 5d e8          	mov    -0x18(%rbp),%rbx
    e850:	64 48 33 1c 25 28 00 	xor    %fs:0x28,%rbx
    e857:	00 00 
    e859:	74 05                	je     e860 <func_46+0x16c>
    e85b:	e8 10 98 ff ff       	callq  8070 <__stack_chk_fail@plt>
    e860:	48 83 c4 70          	add    $0x70,%rsp
    e864:	5b                   	pop    %rbx
    e865:	41 5c                	pop    %r12
    e867:	5d                   	pop    %rbp
    e868:	c3                   	retq   

000000000000e869 <func_52>:
    e869:	f3 0f 1e fa          	endbr64 
    e86d:	55                   	push   %rbp
    e86e:	48 89 e5             	mov    %rsp,%rbp
    e871:	41 56                	push   %r14
    e873:	41 55                	push   %r13
    e875:	41 54                	push   %r12
    e877:	53                   	push   %rbx
    e878:	48 81 ec 00 10 00 00 	sub    $0x1000,%rsp
    e87f:	48 83 0c 24 00       	orq    $0x0,(%rsp)
    e884:	48 81 ec a0 00 00 00 	sub    $0xa0,%rsp
    e88b:	89 bd 5c ef ff ff    	mov    %edi,-0x10a4(%rbp)
    e891:	89 b5 58 ef ff ff    	mov    %esi,-0x10a8(%rbp)
    e897:	48 89 95 50 ef ff ff 	mov    %rdx,-0x10b0(%rbp)
    e89e:	89 8d 4c ef ff ff    	mov    %ecx,-0x10b4(%rbp)
    e8a4:	4c 89 85 40 ef ff ff 	mov    %r8,-0x10c0(%rbp)
    e8ab:	64 48 8b 04 25 28 00 	mov    %fs:0x28,%rax
    e8b2:	00 00 
    e8b4:	48 89 45 d8          	mov    %rax,-0x28(%rbp)
    e8b8:	31 c0                	xor    %eax,%eax
    e8ba:	48 c7 85 00 f0 ff ff 	movq   $0x5,-0x1000(%rbp)
    e8c1:	05 00 00 00 
    e8c5:	c7 85 6c ef ff ff df 	movl   $0x5ca077df,-0x1094(%rbp)
    e8cc:	77 a0 5c 
    e8cf:	48 8d 85 30 f5 ff ff 	lea    -0xad0(%rbp),%rax
    e8d6:	48 8d 15 03 ad 00 00 	lea    0xad03(%rip),%rdx        # 195e0 <g_386+0x58c>
    e8dd:	b9 64 00 00 00       	mov    $0x64,%ecx
    e8e2:	48 89 c7             	mov    %rax,%rdi
    e8e5:	48 89 d6             	mov    %rdx,%rsi
    e8e8:	f3 48 a5             	rep movsq %ds:(%rsi),%es:(%rdi)
    e8eb:	c7 85 84 ef ff ff 00 	movl   $0x0,-0x107c(%rbp)
    e8f2:	00 00 00 
    e8f5:	48 8d 05 14 f8 00 00 	lea    0xf814(%rip),%rax        # 1e110 <g_226>
    e8fc:	48 89 85 08 f0 ff ff 	mov    %rax,-0xff8(%rbp)
    e903:	c7 85 88 ef ff ff 5f 	movl   $0xba2ad85f,-0x1078(%rbp)
    e90a:	d8 2a ba 
    e90d:	48 8d 05 6c 2f 01 00 	lea    0x12f6c(%rip),%rax        # 21880 <g_260+0x40>
    e914:	48 89 85 d0 ef ff ff 	mov    %rax,-0x1030(%rbp)
    e91b:	48 8d 85 d0 ef ff ff 	lea    -0x1030(%rbp),%rax
    e922:	48 89 85 90 f0 ff ff 	mov    %rax,-0xf70(%rbp)
    e929:	48 8d 85 d0 ef ff ff 	lea    -0x1030(%rbp),%rax
    e930:	48 89 85 98 f0 ff ff 	mov    %rax,-0xf68(%rbp)
    e937:	48 8d 85 d0 ef ff ff 	lea    -0x1030(%rbp),%rax
    e93e:	48 89 85 a0 f0 ff ff 	mov    %rax,-0xf60(%rbp)
    e945:	48 8d 85 d0 ef ff ff 	lea    -0x1030(%rbp),%rax
    e94c:	48 89 85 a8 f0 ff ff 	mov    %rax,-0xf58(%rbp)
    e953:	48 8d 85 d0 ef ff ff 	lea    -0x1030(%rbp),%rax
    e95a:	48 89 85 b0 f0 ff ff 	mov    %rax,-0xf50(%rbp)
    e961:	48 8d 85 90 f0 ff ff 	lea    -0xf70(%rbp),%rax
    e968:	48 89 85 10 f0 ff ff 	mov    %rax,-0xff0(%rbp)
    e96f:	48 8d 05 92 0e 01 00 	lea    0x10e92(%rip),%rax        # 1f808 <g_780+0x8>
    e976:	48 89 85 18 f0 ff ff 	mov    %rax,-0xfe8(%rbp)
    e97d:	66 c7 05 5a f7 00 00 	movw   $0x0,0xf75a(%rip)        # 1e0e0 <g_125>
    e984:	00 00 
    e986:	e9 5d 11 00 00       	jmpq   fae8 <func_52+0x127f>
    e98b:	c7 85 8c ef ff ff ff 	movl   $0xffffffff,-0x1074(%rbp)
    e992:	ff ff ff 
    e995:	48 c7 85 20 f0 ff ff 	movq   $0xffffffffffffffff,-0xfe0(%rbp)
    e99c:	ff ff ff ff 
    e9a0:	c7 85 90 ef ff ff e4 	movl   $0x8a0526e4,-0x1070(%rbp)
    e9a7:	26 05 8a 
    e9aa:	c7 85 94 ef ff ff 00 	movl   $0x0,-0x106c(%rbp)
    e9b1:	00 00 00 
    e9b4:	c7 85 98 ef ff ff b1 	movl   $0x59798b1,-0x1068(%rbp)
    e9bb:	98 97 05 
    e9be:	c7 85 9c ef ff ff 01 	movl   $0x1,-0x1064(%rbp)
    e9c5:	00 00 00 
    e9c8:	c7 85 a0 ef ff ff 01 	movl   $0x1,-0x1060(%rbp)
    e9cf:	00 00 00 
    e9d2:	c7 85 a4 ef ff ff 00 	movl   $0x0,-0x105c(%rbp)
    e9d9:	00 00 00 
    e9dc:	c7 85 a8 ef ff ff 23 	movl   $0xfada6c23,-0x1058(%rbp)
    e9e3:	6c da fa 
    e9e6:	c7 85 70 ef ff ff 00 	movl   $0x0,-0x1090(%rbp)
    e9ed:	00 00 00 
    e9f0:	c7 85 ac ef ff ff 02 	movl   $0x2,-0x1054(%rbp)
    e9f7:	00 00 00 
    e9fa:	c7 85 b0 ef ff ff fd 	movl   $0xfffffffd,-0x1050(%rbp)
    ea01:	ff ff ff 
    ea04:	48 8d 05 81 f7 00 00 	lea    0xf781(%rip),%rax        # 1e18c <g_231+0x6c>
    ea0b:	48 89 85 28 f0 ff ff 	mov    %rax,-0xfd8(%rbp)
    ea12:	48 8d 05 07 0e 01 00 	lea    0x10e07(%rip),%rax        # 1f820 <g_782>
    ea19:	48 89 85 30 f0 ff ff 	mov    %rax,-0xfd0(%rbp)
    ea20:	48 c7 85 d8 ef ff ff 	movq   $0x0,-0x1028(%rbp)
    ea27:	00 00 00 00 
    ea2b:	48 8d 85 d8 ef ff ff 	lea    -0x1028(%rbp),%rax
    ea32:	48 89 85 90 f2 ff ff 	mov    %rax,-0xd70(%rbp)
    ea39:	48 8d 85 d8 ef ff ff 	lea    -0x1028(%rbp),%rax
    ea40:	48 89 85 98 f2 ff ff 	mov    %rax,-0xd68(%rbp)
    ea47:	48 c7 85 a0 f2 ff ff 	movq   $0x0,-0xd60(%rbp)
    ea4e:	00 00 00 00 
    ea52:	48 c7 85 a8 f2 ff ff 	movq   $0x0,-0xd58(%rbp)
    ea59:	00 00 00 00 
    ea5d:	48 8d 85 d8 ef ff ff 	lea    -0x1028(%rbp),%rax
    ea64:	48 89 85 b0 f2 ff ff 	mov    %rax,-0xd50(%rbp)
    ea6b:	48 8d 85 d8 ef ff ff 	lea    -0x1028(%rbp),%rax
    ea72:	48 89 85 b8 f2 ff ff 	mov    %rax,-0xd48(%rbp)
    ea79:	48 8d 85 d8 ef ff ff 	lea    -0x1028(%rbp),%rax
    ea80:	48 89 85 c0 f2 ff ff 	mov    %rax,-0xd40(%rbp)
    ea87:	48 8d 85 d8 ef ff ff 	lea    -0x1028(%rbp),%rax
    ea8e:	48 89 85 c8 f2 ff ff 	mov    %rax,-0xd38(%rbp)
    ea95:	48 8d 85 d8 ef ff ff 	lea    -0x1028(%rbp),%rax
    ea9c:	48 89 85 d0 f2 ff ff 	mov    %rax,-0xd30(%rbp)
    eaa3:	48 c7 85 d8 f2 ff ff 	movq   $0x0,-0xd28(%rbp)
    eaaa:	00 00 00 00 
    eaae:	48 c7 85 e0 f2 ff ff 	movq   $0x0,-0xd20(%rbp)
    eab5:	00 00 00 00 
    eab9:	48 8d 85 d8 ef ff ff 	lea    -0x1028(%rbp),%rax
    eac0:	48 89 85 e8 f2 ff ff 	mov    %rax,-0xd18(%rbp)
    eac7:	48 8d 85 d8 ef ff ff 	lea    -0x1028(%rbp),%rax
    eace:	48 89 85 f0 f2 ff ff 	mov    %rax,-0xd10(%rbp)
    ead5:	48 8d 85 d8 ef ff ff 	lea    -0x1028(%rbp),%rax
    eadc:	48 89 85 f8 f2 ff ff 	mov    %rax,-0xd08(%rbp)
    eae3:	48 8d 85 d8 ef ff ff 	lea    -0x1028(%rbp),%rax
    eaea:	48 89 85 00 f3 ff ff 	mov    %rax,-0xd00(%rbp)
    eaf1:	48 8d 85 d8 ef ff ff 	lea    -0x1028(%rbp),%rax
    eaf8:	48 89 85 08 f3 ff ff 	mov    %rax,-0xcf8(%rbp)
    eaff:	48 c7 85 10 f3 ff ff 	movq   $0x0,-0xcf0(%rbp)
    eb06:	00 00 00 00 
    eb0a:	48 c7 85 18 f3 ff ff 	movq   $0x0,-0xce8(%rbp)
    eb11:	00 00 00 00 
    eb15:	48 8d 85 d8 ef ff ff 	lea    -0x1028(%rbp),%rax
    eb1c:	48 89 85 20 f3 ff ff 	mov    %rax,-0xce0(%rbp)
    eb23:	48 8d 85 d8 ef ff ff 	lea    -0x1028(%rbp),%rax
    eb2a:	48 89 85 28 f3 ff ff 	mov    %rax,-0xcd8(%rbp)
    eb31:	48 8d 85 d8 ef ff ff 	lea    -0x1028(%rbp),%rax
    eb38:	48 89 85 30 f3 ff ff 	mov    %rax,-0xcd0(%rbp)
    eb3f:	48 8d 85 d8 ef ff ff 	lea    -0x1028(%rbp),%rax
    eb46:	48 89 85 38 f3 ff ff 	mov    %rax,-0xcc8(%rbp)
    eb4d:	48 8d 85 d8 ef ff ff 	lea    -0x1028(%rbp),%rax
    eb54:	48 89 85 40 f3 ff ff 	mov    %rax,-0xcc0(%rbp)
    eb5b:	48 c7 85 48 f3 ff ff 	movq   $0x0,-0xcb8(%rbp)
    eb62:	00 00 00 00 
    eb66:	48 c7 85 50 f3 ff ff 	movq   $0x0,-0xcb0(%rbp)
    eb6d:	00 00 00 00 
    eb71:	48 8d 85 d8 ef ff ff 	lea    -0x1028(%rbp),%rax
    eb78:	48 89 85 58 f3 ff ff 	mov    %rax,-0xca8(%rbp)
    eb7f:	48 8d 85 d8 ef ff ff 	lea    -0x1028(%rbp),%rax
    eb86:	48 89 85 60 f3 ff ff 	mov    %rax,-0xca0(%rbp)
    eb8d:	48 8d 85 d8 ef ff ff 	lea    -0x1028(%rbp),%rax
    eb94:	48 89 85 68 f3 ff ff 	mov    %rax,-0xc98(%rbp)
    eb9b:	48 8d 85 d8 ef ff ff 	lea    -0x1028(%rbp),%rax
    eba2:	48 89 85 70 f3 ff ff 	mov    %rax,-0xc90(%rbp)
    eba9:	48 8d 85 d8 ef ff ff 	lea    -0x1028(%rbp),%rax
    ebb0:	48 89 85 78 f3 ff ff 	mov    %rax,-0xc88(%rbp)
    ebb7:	48 c7 85 80 f3 ff ff 	movq   $0x0,-0xc80(%rbp)
    ebbe:	00 00 00 00 
    ebc2:	48 c7 85 88 f3 ff ff 	movq   $0x0,-0xc78(%rbp)
    ebc9:	00 00 00 00 
    ebcd:	48 8d 85 d8 ef ff ff 	lea    -0x1028(%rbp),%rax
    ebd4:	48 89 85 90 f3 ff ff 	mov    %rax,-0xc70(%rbp)
    ebdb:	48 8d 85 d8 ef ff ff 	lea    -0x1028(%rbp),%rax
    ebe2:	48 89 85 98 f3 ff ff 	mov    %rax,-0xc68(%rbp)
    ebe9:	48 8d 85 d8 ef ff ff 	lea    -0x1028(%rbp),%rax
    ebf0:	48 89 85 a0 f3 ff ff 	mov    %rax,-0xc60(%rbp)
    ebf7:	48 8d 85 d8 ef ff ff 	lea    -0x1028(%rbp),%rax
    ebfe:	48 89 85 a8 f3 ff ff 	mov    %rax,-0xc58(%rbp)
    ec05:	48 8d 85 d8 ef ff ff 	lea    -0x1028(%rbp),%rax
    ec0c:	48 89 85 b0 f3 ff ff 	mov    %rax,-0xc50(%rbp)
    ec13:	48 c7 85 b8 f3 ff ff 	movq   $0x0,-0xc48(%rbp)
    ec1a:	00 00 00 00 
    ec1e:	48 c7 85 c0 f3 ff ff 	movq   $0x0,-0xc40(%rbp)
    ec25:	00 00 00 00 
    ec29:	48 8d 85 d8 ef ff ff 	lea    -0x1028(%rbp),%rax
    ec30:	48 89 85 c8 f3 ff ff 	mov    %rax,-0xc38(%rbp)
    ec37:	48 8d 85 d8 ef ff ff 	lea    -0x1028(%rbp),%rax
    ec3e:	48 89 85 d0 f3 ff ff 	mov    %rax,-0xc30(%rbp)
    ec45:	48 8d 85 d8 ef ff ff 	lea    -0x1028(%rbp),%rax
    ec4c:	48 89 85 d8 f3 ff ff 	mov    %rax,-0xc28(%rbp)
    ec53:	48 8d 85 d8 ef ff ff 	lea    -0x1028(%rbp),%rax
    ec5a:	48 89 85 e0 f3 ff ff 	mov    %rax,-0xc20(%rbp)
    ec61:	48 8d 85 d8 ef ff ff 	lea    -0x1028(%rbp),%rax
    ec68:	48 89 85 e8 f3 ff ff 	mov    %rax,-0xc18(%rbp)
    ec6f:	48 c7 85 f0 f3 ff ff 	movq   $0x0,-0xc10(%rbp)
    ec76:	00 00 00 00 
    ec7a:	48 c7 85 f8 f3 ff ff 	movq   $0x0,-0xc08(%rbp)
    ec81:	00 00 00 00 
    ec85:	48 8d 85 d8 ef ff ff 	lea    -0x1028(%rbp),%rax
    ec8c:	48 89 85 00 f4 ff ff 	mov    %rax,-0xc00(%rbp)
    ec93:	48 8d 85 d8 ef ff ff 	lea    -0x1028(%rbp),%rax
    ec9a:	48 89 85 08 f4 ff ff 	mov    %rax,-0xbf8(%rbp)
    eca1:	48 8d 85 d8 ef ff ff 	lea    -0x1028(%rbp),%rax
    eca8:	48 89 85 10 f4 ff ff 	mov    %rax,-0xbf0(%rbp)
    ecaf:	48 8d 85 d8 ef ff ff 	lea    -0x1028(%rbp),%rax
    ecb6:	48 89 85 18 f4 ff ff 	mov    %rax,-0xbe8(%rbp)
    ecbd:	48 8d 85 d8 ef ff ff 	lea    -0x1028(%rbp),%rax
    ecc4:	48 89 85 20 f4 ff ff 	mov    %rax,-0xbe0(%rbp)
    eccb:	48 c7 85 28 f4 ff ff 	movq   $0x0,-0xbd8(%rbp)
    ecd2:	00 00 00 00 
    ecd6:	48 c7 85 30 f4 ff ff 	movq   $0x0,-0xbd0(%rbp)
    ecdd:	00 00 00 00 
    ece1:	48 8d 85 d8 ef ff ff 	lea    -0x1028(%rbp),%rax
    ece8:	48 89 85 38 f4 ff ff 	mov    %rax,-0xbc8(%rbp)
    ecef:	48 8d 85 d8 ef ff ff 	lea    -0x1028(%rbp),%rax
    ecf6:	48 89 85 40 f4 ff ff 	mov    %rax,-0xbc0(%rbp)
    ecfd:	48 8d 85 d8 ef ff ff 	lea    -0x1028(%rbp),%rax
    ed04:	48 89 85 48 f4 ff ff 	mov    %rax,-0xbb8(%rbp)
    ed0b:	48 8d 85 d8 ef ff ff 	lea    -0x1028(%rbp),%rax
    ed12:	48 89 85 50 f4 ff ff 	mov    %rax,-0xbb0(%rbp)
    ed19:	48 8d 85 d8 ef ff ff 	lea    -0x1028(%rbp),%rax
    ed20:	48 89 85 58 f4 ff ff 	mov    %rax,-0xba8(%rbp)
    ed27:	48 c7 85 60 f4 ff ff 	movq   $0x0,-0xba0(%rbp)
    ed2e:	00 00 00 00 
    ed32:	48 c7 85 68 f4 ff ff 	movq   $0x0,-0xb98(%rbp)
    ed39:	00 00 00 00 
    ed3d:	48 8d 85 d8 ef ff ff 	lea    -0x1028(%rbp),%rax
    ed44:	48 89 85 70 f4 ff ff 	mov    %rax,-0xb90(%rbp)
    ed4b:	48 8d 85 d8 ef ff ff 	lea    -0x1028(%rbp),%rax
    ed52:	48 89 85 78 f4 ff ff 	mov    %rax,-0xb88(%rbp)
    ed59:	48 8d 85 d8 ef ff ff 	lea    -0x1028(%rbp),%rax
    ed60:	48 89 85 80 f4 ff ff 	mov    %rax,-0xb80(%rbp)
    ed67:	48 8d 85 d8 ef ff ff 	lea    -0x1028(%rbp),%rax
    ed6e:	48 89 85 88 f4 ff ff 	mov    %rax,-0xb78(%rbp)
    ed75:	48 8d 85 d8 ef ff ff 	lea    -0x1028(%rbp),%rax
    ed7c:	48 89 85 90 f4 ff ff 	mov    %rax,-0xb70(%rbp)
    ed83:	48 c7 85 98 f4 ff ff 	movq   $0x0,-0xb68(%rbp)
    ed8a:	00 00 00 00 
    ed8e:	48 c7 85 a0 f4 ff ff 	movq   $0x0,-0xb60(%rbp)
    ed95:	00 00 00 00 
    ed99:	48 8d 85 d8 ef ff ff 	lea    -0x1028(%rbp),%rax
    eda0:	48 89 85 a8 f4 ff ff 	mov    %rax,-0xb58(%rbp)
    eda7:	48 8d 85 d8 ef ff ff 	lea    -0x1028(%rbp),%rax
    edae:	48 89 85 b0 f4 ff ff 	mov    %rax,-0xb50(%rbp)
    edb5:	48 8d 85 d8 ef ff ff 	lea    -0x1028(%rbp),%rax
    edbc:	48 89 85 b8 f4 ff ff 	mov    %rax,-0xb48(%rbp)
    edc3:	48 8d 85 d8 ef ff ff 	lea    -0x1028(%rbp),%rax
    edca:	48 89 85 c0 f4 ff ff 	mov    %rax,-0xb40(%rbp)
    edd1:	48 8d 85 d8 ef ff ff 	lea    -0x1028(%rbp),%rax
    edd8:	48 89 85 c8 f4 ff ff 	mov    %rax,-0xb38(%rbp)
    eddf:	48 c7 85 d0 f4 ff ff 	movq   $0x0,-0xb30(%rbp)
    ede6:	00 00 00 00 
    edea:	48 c7 85 d8 f4 ff ff 	movq   $0x0,-0xb28(%rbp)
    edf1:	00 00 00 00 
    edf5:	48 8d 85 d8 ef ff ff 	lea    -0x1028(%rbp),%rax
    edfc:	48 89 85 e0 f4 ff ff 	mov    %rax,-0xb20(%rbp)
    ee03:	48 8d 85 d8 ef ff ff 	lea    -0x1028(%rbp),%rax
    ee0a:	48 89 85 e8 f4 ff ff 	mov    %rax,-0xb18(%rbp)
    ee11:	48 8d 85 d8 ef ff ff 	lea    -0x1028(%rbp),%rax
    ee18:	48 89 85 f0 f4 ff ff 	mov    %rax,-0xb10(%rbp)
    ee1f:	48 8d 85 d8 ef ff ff 	lea    -0x1028(%rbp),%rax
    ee26:	48 89 85 f8 f4 ff ff 	mov    %rax,-0xb08(%rbp)
    ee2d:	48 8d 85 d8 ef ff ff 	lea    -0x1028(%rbp),%rax
    ee34:	48 89 85 00 f5 ff ff 	mov    %rax,-0xb00(%rbp)
    ee3b:	48 c7 85 08 f5 ff ff 	movq   $0x0,-0xaf8(%rbp)
    ee42:	00 00 00 00 
    ee46:	48 c7 85 10 f5 ff ff 	movq   $0x0,-0xaf0(%rbp)
    ee4d:	00 00 00 00 
    ee51:	48 8d 85 d8 ef ff ff 	lea    -0x1028(%rbp),%rax
    ee58:	48 89 85 18 f5 ff ff 	mov    %rax,-0xae8(%rbp)
    ee5f:	48 8d 85 d8 ef ff ff 	lea    -0x1028(%rbp),%rax
    ee66:	48 89 85 20 f5 ff ff 	mov    %rax,-0xae0(%rbp)
    ee6d:	48 8d 85 d8 ef ff ff 	lea    -0x1028(%rbp),%rax
    ee74:	48 89 85 28 f5 ff ff 	mov    %rax,-0xad8(%rbp)
    ee7b:	48 8d 85 90 f2 ff ff 	lea    -0xd70(%rbp),%rax
    ee82:	48 05 20 01 00 00    	add    $0x120,%rax
    ee88:	48 89 85 38 f0 ff ff 	mov    %rax,-0xfc8(%rbp)
    ee8f:	83 bd 8c ef ff ff 00 	cmpl   $0x0,-0x1074(%rbp)
    ee96:	74 11                	je     eea9 <func_52+0x640>
    ee98:	b8 50 44 40 aa       	mov    $0xaa404450,%eax
    ee9d:	48 31 85 00 f0 ff ff 	xor    %rax,-0x1000(%rbp)
    eea4:	e9 f2 01 00 00       	jmpq   f09b <func_52+0x832>
    eea9:	c7 85 74 ef ff ff fa 	movl   $0xfffffffa,-0x108c(%rbp)
    eeb0:	ff ff ff 
    eeb3:	c7 85 b4 ef ff ff 00 	movl   $0x0,-0x104c(%rbp)
    eeba:	00 00 00 
    eebd:	c7 85 40 f1 ff ff c5 	movl   $0xbe4c0cc5,-0xec0(%rbp)
    eec4:	0c 4c be 
    eec7:	c7 85 44 f1 ff ff c5 	movl   $0xbe4c0cc5,-0xebc(%rbp)
    eece:	0c 4c be 
    eed1:	c7 85 48 f1 ff ff c5 	movl   $0xbe4c0cc5,-0xeb8(%rbp)
    eed8:	0c 4c be 
    eedb:	c7 85 4c f1 ff ff c5 	movl   $0xbe4c0cc5,-0xeb4(%rbp)
    eee2:	0c 4c be 
    eee5:	c7 85 50 f1 ff ff c5 	movl   $0xbe4c0cc5,-0xeb0(%rbp)
    eeec:	0c 4c be 
    eeef:	c7 85 54 f1 ff ff c5 	movl   $0xbe4c0cc5,-0xeac(%rbp)
    eef6:	0c 4c be 
    eef9:	c7 85 58 f1 ff ff c5 	movl   $0xbe4c0cc5,-0xea8(%rbp)
    ef00:	0c 4c be 
    ef03:	c7 85 5c f1 ff ff c5 	movl   $0xbe4c0cc5,-0xea4(%rbp)
    ef0a:	0c 4c be 
    ef0d:	c7 85 60 f1 ff ff c5 	movl   $0xbe4c0cc5,-0xea0(%rbp)
    ef14:	0c 4c be 
    ef17:	66 c7 85 68 ef ff ff 	movw   $0x0,-0x1098(%rbp)
    ef1e:	00 00 
    ef20:	66 c7 05 42 06 01 00 	movw   $0x0,0x10642(%rip)        # 1f56b <g_433+0xb>
    ef27:	00 00 
    ef29:	e9 50 01 00 00       	jmpq   f07e <func_52+0x815>
    ef2e:	66 c7 85 6a ef ff ff 	movw   $0xffff,-0x1096(%rbp)
    ef35:	ff ff 
    ef37:	48 8d 85 50 f8 ff ff 	lea    -0x7b0(%rbp),%rax
    ef3e:	48 8d 15 5b 14 01 00 	lea    0x1145b(%rip),%rdx        # 203a0 <g_1685+0xa6a>
    ef45:	b9 f0 00 00 00       	mov    $0xf0,%ecx
    ef4a:	48 89 c7             	mov    %rax,%rdi
    ef4d:	48 89 d6             	mov    %rdx,%rsi
    ef50:	f3 48 a5             	rep movsq %ds:(%rsi),%es:(%rdi)
    ef53:	66 c7 05 6c f2 00 00 	movw   $0x0,0xf26c(%rip)        # 1e1c8 <g_331>
    ef5a:	00 00 
    ef5c:	e9 f4 00 00 00       	jmpq   f055 <func_52+0x7ec>
    ef61:	48 8d 05 d0 f1 00 00 	lea    0xf1d0(%rip),%rax        # 1e138 <g_231+0x18>
    ef68:	48 89 85 40 f0 ff ff 	mov    %rax,-0xfc0(%rbp)
    ef6f:	48 8d 05 6e f1 00 00 	lea    0xf16e(%rip),%rax        # 1e0e4 <g_130>
    ef76:	48 89 85 b0 f1 ff ff 	mov    %rax,-0xe50(%rbp)
    ef7d:	48 8d 05 60 f1 00 00 	lea    0xf160(%rip),%rax        # 1e0e4 <g_130>
    ef84:	48 89 85 b8 f1 ff ff 	mov    %rax,-0xe48(%rbp)
    ef8b:	48 8d 05 52 f1 00 00 	lea    0xf152(%rip),%rax        # 1e0e4 <g_130>
    ef92:	48 89 85 c0 f1 ff ff 	mov    %rax,-0xe40(%rbp)
    ef99:	48 8d 05 44 f1 00 00 	lea    0xf144(%rip),%rax        # 1e0e4 <g_130>
    efa0:	48 89 85 c8 f1 ff ff 	mov    %rax,-0xe38(%rbp)
    efa7:	48 8d 05 36 f1 00 00 	lea    0xf136(%rip),%rax        # 1e0e4 <g_130>
    efae:	48 89 85 d0 f1 ff ff 	mov    %rax,-0xe30(%rbp)
    efb5:	48 8d 05 28 f1 00 00 	lea    0xf128(%rip),%rax        # 1e0e4 <g_130>
    efbc:	48 89 85 d8 f1 ff ff 	mov    %rax,-0xe28(%rbp)
    efc3:	48 8d 05 1a f1 00 00 	lea    0xf11a(%rip),%rax        # 1e0e4 <g_130>
    efca:	48 89 85 e0 f1 ff ff 	mov    %rax,-0xe20(%rbp)
    efd1:	48 8d 05 0c f1 00 00 	lea    0xf10c(%rip),%rax        # 1e0e4 <g_130>
    efd8:	48 89 85 e8 f1 ff ff 	mov    %rax,-0xe18(%rbp)
    efdf:	48 8d 05 fe f0 00 00 	lea    0xf0fe(%rip),%rax        # 1e0e4 <g_130>
    efe6:	48 89 85 f0 f1 ff ff 	mov    %rax,-0xe10(%rbp)
    efed:	48 c7 85 48 f0 ff ff 	movq   $0x1,-0xfb8(%rbp)
    eff4:	01 00 00 00 
    eff8:	66 c7 05 b8 07 01 00 	movw   $0x0,0x107b8(%rip)        # 1f7b9 <g_442+0x9>
    efff:	00 00 
    f001:	eb 2e                	jmp    f031 <func_52+0x7c8>
    f003:	48 8d 05 82 f1 00 00 	lea    0xf182(%rip),%rax        # 1e18c <g_231+0x6c>
    f00a:	48 89 85 50 f0 ff ff 	mov    %rax,-0xfb0(%rbp)
    f011:	48 8b 85 50 f0 ff ff 	mov    -0xfb0(%rbp),%rax
    f018:	8b 95 8c ef ff ff    	mov    -0x1074(%rbp),%edx
    f01e:	89 10                	mov    %edx,(%rax)
    f020:	0f b7 05 92 07 01 00 	movzwl 0x10792(%rip),%eax        # 1f7b9 <g_442+0x9>
    f027:	83 c0 01             	add    $0x1,%eax
    f02a:	66 89 05 88 07 01 00 	mov    %ax,0x10788(%rip)        # 1f7b9 <g_442+0x9>
    f031:	0f b7 05 81 07 01 00 	movzwl 0x10781(%rip),%eax        # 1f7b9 <g_442+0x9>
    f038:	66 85 c0             	test   %ax,%ax
    f03b:	74 c6                	je     f003 <func_52+0x79a>
    f03d:	83 ad 74 ef ff ff 01 	subl   $0x1,-0x108c(%rbp)
    f044:	0f b7 05 7d f1 00 00 	movzwl 0xf17d(%rip),%eax        # 1e1c8 <g_331>
    f04b:	83 e8 01             	sub    $0x1,%eax
    f04e:	66 89 05 73 f1 00 00 	mov    %ax,0xf173(%rip)        # 1e1c8 <g_331>
    f055:	0f b7 05 6c f1 00 00 	movzwl 0xf16c(%rip),%eax        # 1e1c8 <g_331>
    f05c:	66 85 c0             	test   %ax,%ax
    f05f:	0f 89 fc fe ff ff    	jns    ef61 <func_52+0x6f8>
    f065:	66 83 ad 68 ef ff ff 	subw   $0x1,-0x1098(%rbp)
    f06c:	01 
    f06d:	0f b7 05 f7 04 01 00 	movzwl 0x104f7(%rip),%eax        # 1f56b <g_433+0xb>
    f074:	83 c0 01             	add    $0x1,%eax
    f077:	66 89 05 ed 04 01 00 	mov    %ax,0x104ed(%rip)        # 1f56b <g_433+0xb>
    f07e:	0f b7 05 e6 04 01 00 	movzwl 0x104e6(%rip),%eax        # 1f56b <g_433+0xb>
    f085:	66 85 c0             	test   %ax,%ax
    f088:	0f 84 a0 fe ff ff    	je     ef2e <func_52+0x6c5>
    f08e:	83 bd 58 ef ff ff 00 	cmpl   $0x0,-0x10a8(%rbp)
    f095:	0f 85 3c 0a 00 00    	jne    fad7 <func_52+0x126e>
    f09b:	48 8b 85 28 f0 ff ff 	mov    -0xfd8(%rbp),%rax
    f0a2:	c7 00 00 00 00 00    	movl   $0x0,(%rax)
    f0a8:	66 c7 05 7a f1 00 00 	movw   $0x0,0xf17a(%rip)        # 1e22b <g_428+0xb>
    f0af:	00 00 
    f0b1:	e9 11 0a 00 00       	jmpq   fac7 <func_52+0x125e>
    f0b6:	c7 85 b8 ef ff ff 06 	movl   $0x6,-0x1048(%rbp)
    f0bd:	00 00 00 
    f0c0:	48 c7 85 e0 ef ff ff 	movq   $0x0,-0x1020(%rbp)
    f0c7:	00 00 00 00 
    f0cb:	48 8d 85 e0 ef ff ff 	lea    -0x1020(%rbp),%rax
    f0d2:	48 89 85 58 f0 ff ff 	mov    %rax,-0xfa8(%rbp)
    f0d9:	48 8d 05 5c 07 01 00 	lea    0x1075c(%rip),%rax        # 1f83c <g_836>
    f0e0:	48 89 85 c0 f0 ff ff 	mov    %rax,-0xf40(%rbp)
    f0e7:	48 8d 05 4e 07 01 00 	lea    0x1074e(%rip),%rax        # 1f83c <g_836>
    f0ee:	48 89 85 c8 f0 ff ff 	mov    %rax,-0xf38(%rbp)
    f0f5:	48 8d 05 40 07 01 00 	lea    0x10740(%rip),%rax        # 1f83c <g_836>
    f0fc:	48 89 85 d0 f0 ff ff 	mov    %rax,-0xf30(%rbp)
    f103:	48 8d 05 32 07 01 00 	lea    0x10732(%rip),%rax        # 1f83c <g_836>
    f10a:	48 89 85 d8 f0 ff ff 	mov    %rax,-0xf28(%rbp)
    f111:	48 8d 05 24 07 01 00 	lea    0x10724(%rip),%rax        # 1f83c <g_836>
    f118:	48 89 85 e0 f0 ff ff 	mov    %rax,-0xf20(%rbp)
    f11f:	48 8d 05 16 07 01 00 	lea    0x10716(%rip),%rax        # 1f83c <g_836>
    f126:	48 89 85 e8 f0 ff ff 	mov    %rax,-0xf18(%rbp)
    f12d:	8b 85 58 ef ff ff    	mov    -0x10a8(%rbp),%eax
    f133:	0f b6 d8             	movzbl %al,%ebx
    f136:	0f b7 05 cf ef 00 00 	movzwl 0xefcf(%rip),%eax        # 1e10c <g_211>
    f13d:	44 0f bf e0          	movswl %ax,%r12d
    f141:	44 8b ad 44 f8 ff ff 	mov    -0x7bc(%rbp),%r13d
    f148:	48 8d 05 bf ef 00 00 	lea    0xefbf(%rip),%rax        # 1e10e <g_224>
    f14f:	48 39 85 08 f0 ff ff 	cmp    %rax,-0xff8(%rbp)
    f156:	0f 95 c0             	setne  %al
    f159:	44 0f b6 f0          	movzbl %al,%r14d
    f15d:	48 8b 85 28 f0 ff ff 	mov    -0xfd8(%rbp),%rax
    f164:	8b 00                	mov    (%rax),%eax
    f166:	89 c2                	mov    %eax,%edx
    f168:	48 8b 05 81 06 01 00 	mov    0x10681(%rip),%rax        # 1f7f0 <g_743>
    f16f:	21 d0                	and    %edx,%eax
    f171:	0f be d0             	movsbl %al,%edx
    f174:	8b 05 52 f0 00 00    	mov    0xf052(%rip),%eax        # 1e1cc <g_374>
    f17a:	0f be c0             	movsbl %al,%eax
    f17d:	89 d6                	mov    %edx,%esi
    f17f:	89 c7                	mov    %eax,%edi
    f181:	e8 6c 90 ff ff       	callq  81f2 <safe_sub_func_int8_t_s_s>
    f186:	0f be c0             	movsbl %al,%eax
    f189:	23 85 5c ef ff ff    	and    -0x10a4(%rbp),%eax
    f18f:	41 39 c6             	cmp    %eax,%r14d
    f192:	0f 9e c0             	setle  %al
    f195:	0f b6 d0             	movzbl %al,%edx
    f198:	48 8b 85 28 f0 ff ff 	mov    -0xfd8(%rbp),%rax
    f19f:	8b 00                	mov    (%rax),%eax
    f1a1:	39 c2                	cmp    %eax,%edx
    f1a3:	0f 9c c0             	setl   %al
    f1a6:	0f b6 c0             	movzbl %al,%eax
    f1a9:	89 c6                	mov    %eax,%esi
    f1ab:	bf 07 bf 00 00       	mov    $0xbf07,%edi
    f1b0:	e8 09 9c ff ff       	callq  8dbe <safe_lshift_func_uint16_t_u_s>
    f1b5:	0f be c0             	movsbl %al,%eax
    f1b8:	be 05 00 00 00       	mov    $0x5,%esi
    f1bd:	89 c7                	mov    %eax,%edi
    f1bf:	e8 71 91 ff ff       	callq  8335 <safe_rshift_func_int8_t_s_s>
    f1c4:	83 bd 5c ef ff ff 01 	cmpl   $0x1,-0x10a4(%rbp)
    f1cb:	0f 9f c0             	setg   %al
    f1ce:	0f b6 c0             	movzbl %al,%eax
    f1d1:	8b 95 5c ef ff ff    	mov    -0x10a4(%rbp),%edx
    f1d7:	89 d6                	mov    %edx,%esi
    f1d9:	89 c7                	mov    %eax,%edi
    f1db:	e8 1f 95 ff ff       	callq  86ff <safe_div_func_int32_t_s_s>
    f1e0:	44 89 ee             	mov    %r13d,%esi
    f1e3:	89 c7                	mov    %eax,%edi
    f1e5:	e8 1b 94 ff ff       	callq  8605 <safe_sub_func_int32_t_s_s>
    f1ea:	98                   	cwtl   
    f1eb:	be 0d 00 00 00       	mov    $0xd,%esi
    f1f0:	89 c7                	mov    %eax,%edi
    f1f2:	e8 6c 93 ff ff       	callq  8563 <safe_rshift_func_int16_t_s_u>
    f1f7:	48 0f bf d0          	movswq %ax,%rdx
    f1fb:	8b 85 5c ef ff ff    	mov    -0x10a4(%rbp),%eax
    f201:	48 98                	cltq   
    f203:	48 89 d6             	mov    %rdx,%rsi
    f206:	48 89 c7             	mov    %rax,%rdi
    f209:	e8 3d 9e ff ff       	callq  904b <safe_sub_func_uint64_t_u_u>
    f20e:	8b 85 4c ef ff ff    	mov    -0x10b4(%rbp),%eax
    f214:	f7 d0                	not    %eax
    f216:	0f be c0             	movsbl %al,%eax
    f219:	be 01 00 00 00       	mov    $0x1,%esi
    f21e:	89 c7                	mov    %eax,%edi
    f220:	e8 0c 90 ff ff       	callq  8231 <safe_mod_func_int8_t_s_s>
    f225:	48 0f be d0          	movsbq %al,%rdx
    f229:	48 8b 05 c8 05 01 00 	mov    0x105c8(%rip),%rax        # 1f7f8 <g_744>
    f230:	48 39 c2             	cmp    %rax,%rdx
    f233:	0f 9c c0             	setl   %al
    f236:	0f b6 c0             	movzbl %al,%eax
    f239:	33 85 58 ef ff ff    	xor    -0x10a8(%rbp),%eax
    f23f:	44 89 e6             	mov    %r12d,%esi
    f242:	89 c7                	mov    %eax,%edi
    f244:	e8 6f 9c ff ff       	callq  8eb8 <safe_add_func_uint32_t_u_u>
    f249:	98                   	cwtl   
    f24a:	be 05 00 00 00       	mov    $0x5,%esi
    f24f:	89 c7                	mov    %eax,%edi
    f251:	e8 8b 92 ff ff       	callq  84e1 <safe_lshift_func_int16_t_s_u>
    f256:	83 bd b8 ef ff ff 01 	cmpl   $0x1,-0x1048(%rbp)
    f25d:	0f 95 c0             	setne  %al
    f260:	0f b6 c0             	movzbl %al,%eax
    f263:	89 de                	mov    %ebx,%esi
    f265:	89 c7                	mov    %eax,%edi
    f267:	e8 27 99 ff ff       	callq  8b93 <safe_mul_func_uint8_t_u_u>
    f26c:	84 c0                	test   %al,%al
    f26e:	0f 84 85 06 00 00    	je     f8f9 <func_52+0x1090>
    f274:	48 c7 85 e8 ef ff ff 	movq   $0x0,-0x1018(%rbp)
    f27b:	00 00 00 00 
    f27f:	c7 85 40 f1 ff ff 50 	movl   $0x394a0550,-0xec0(%rbp)
    f286:	05 4a 39 
    f289:	c7 85 44 f1 ff ff 50 	movl   $0x394a0550,-0xebc(%rbp)
    f290:	05 4a 39 
    f293:	c7 85 48 f1 ff ff 00 	movl   $0x0,-0xeb8(%rbp)
    f29a:	00 00 00 
    f29d:	c7 85 4c f1 ff ff be 	movl   $0x1164b2be,-0xeb4(%rbp)
    f2a4:	b2 64 11 
    f2a7:	c7 85 50 f1 ff ff be 	movl   $0x1164b2be,-0xeb0(%rbp)
    f2ae:	b2 64 11 
    f2b1:	c7 85 54 f1 ff ff f6 	movl   $0x57ccbff6,-0xeac(%rbp)
    f2b8:	bf cc 57 
    f2bb:	c7 85 58 f1 ff ff 50 	movl   $0x394a0550,-0xea8(%rbp)
    f2c2:	05 4a 39 
    f2c5:	c7 85 5c f1 ff ff 50 	movl   $0x394a0550,-0xea4(%rbp)
    f2cc:	05 4a 39 
    f2cf:	c7 85 60 f1 ff ff 00 	movl   $0x0,-0xea0(%rbp)
    f2d6:	00 00 00 
    f2d9:	c7 85 64 f1 ff ff be 	movl   $0x1164b2be,-0xe9c(%rbp)
    f2e0:	b2 64 11 
    f2e3:	c7 85 68 f1 ff ff be 	movl   $0x1164b2be,-0xe98(%rbp)
    f2ea:	b2 64 11 
    f2ed:	c7 85 6c f1 ff ff f6 	movl   $0x57ccbff6,-0xe94(%rbp)
    f2f4:	bf cc 57 
    f2f7:	c7 85 70 f1 ff ff 50 	movl   $0x394a0550,-0xe90(%rbp)
    f2fe:	05 4a 39 
    f301:	c7 85 74 f1 ff ff 50 	movl   $0x394a0550,-0xe8c(%rbp)
    f308:	05 4a 39 
    f30b:	c7 85 78 f1 ff ff 00 	movl   $0x0,-0xe88(%rbp)
    f312:	00 00 00 
    f315:	c7 85 7c f1 ff ff be 	movl   $0x1164b2be,-0xe84(%rbp)
    f31c:	b2 64 11 
    f31f:	c7 85 80 f1 ff ff be 	movl   $0x1164b2be,-0xe80(%rbp)
    f326:	b2 64 11 
    f329:	c7 85 84 f1 ff ff f6 	movl   $0x57ccbff6,-0xe7c(%rbp)
    f330:	bf cc 57 
    f333:	c7 85 88 f1 ff ff 50 	movl   $0x394a0550,-0xe78(%rbp)
    f33a:	05 4a 39 
    f33d:	c7 85 8c f1 ff ff 50 	movl   $0x394a0550,-0xe74(%rbp)
    f344:	05 4a 39 
    f347:	c7 85 90 f1 ff ff 00 	movl   $0x0,-0xe70(%rbp)
    f34e:	00 00 00 
    f351:	c7 85 94 f1 ff ff be 	movl   $0x1164b2be,-0xe6c(%rbp)
    f358:	b2 64 11 
    f35b:	c7 85 98 f1 ff ff be 	movl   $0x1164b2be,-0xe68(%rbp)
    f362:	b2 64 11 
    f365:	c7 85 9c f1 ff ff f6 	movl   $0x57ccbff6,-0xe64(%rbp)
    f36c:	bf cc 57 
    f36f:	c7 85 a0 f1 ff ff 50 	movl   $0x394a0550,-0xe60(%rbp)
    f376:	05 4a 39 
    f379:	c7 85 a4 f1 ff ff 50 	movl   $0x394a0550,-0xe5c(%rbp)
    f380:	05 4a 39 
    f383:	c7 85 a8 f1 ff ff 00 	movl   $0x0,-0xe58(%rbp)
    f38a:	00 00 00 
    f38d:	48 8d 85 e8 ef ff ff 	lea    -0x1018(%rbp),%rax
    f394:	48 89 85 f0 ef ff ff 	mov    %rax,-0x1010(%rbp)
    f39b:	48 8d 85 f0 ef ff ff 	lea    -0x1010(%rbp),%rax
    f3a2:	48 89 85 60 f0 ff ff 	mov    %rax,-0xfa0(%rbp)
    f3a9:	48 c7 85 68 f0 ff ff 	movq   $0x0,-0xf98(%rbp)
    f3b0:	00 00 00 00 
    f3b4:	c7 85 78 ef ff ff 00 	movl   $0x0,-0x1088(%rbp)
    f3bb:	00 00 00 
    f3be:	eb 4d                	jmp    f40d <func_52+0xba4>
    f3c0:	c7 85 7c ef ff ff 00 	movl   $0x0,-0x1084(%rbp)
    f3c7:	00 00 00 
    f3ca:	eb 31                	jmp    f3fd <func_52+0xb94>
    f3cc:	8b 85 7c ef ff ff    	mov    -0x1084(%rbp),%eax
    f3d2:	48 63 c8             	movslq %eax,%rcx
    f3d5:	8b 85 78 ef ff ff    	mov    -0x1088(%rbp),%eax
    f3db:	48 63 d0             	movslq %eax,%rdx
    f3de:	48 89 d0             	mov    %rdx,%rax
    f3e1:	48 01 c0             	add    %rax,%rax
    f3e4:	48 01 d0             	add    %rdx,%rax
    f3e7:	48 01 c8             	add    %rcx,%rax
    f3ea:	48 c7 84 c5 b0 f1 ff 	movq   $0x0,-0xe50(%rbp,%rax,8)
    f3f1:	ff 00 00 00 00 
    f3f6:	83 85 7c ef ff ff 01 	addl   $0x1,-0x1084(%rbp)
    f3fd:	83 bd 7c ef ff ff 02 	cmpl   $0x2,-0x1084(%rbp)
    f404:	7e c6                	jle    f3cc <func_52+0xb63>
    f406:	83 85 78 ef ff ff 01 	addl   $0x1,-0x1088(%rbp)
    f40d:	83 bd 78 ef ff ff 08 	cmpl   $0x8,-0x1088(%rbp)
    f414:	7e aa                	jle    f3c0 <func_52+0xb57>
    f416:	83 bd 88 ef ff ff 01 	cmpl   $0x1,-0x1078(%rbp)
    f41d:	0f 84 89 02 00 00    	je     f6ac <func_52+0xe43>
    f423:	48 8d 85 50 f8 ff ff 	lea    -0x7b0(%rbp),%rax
    f42a:	48 8d 15 cf a4 00 00 	lea    0xa4cf(%rip),%rdx        # 19900 <g_386+0x8ac>
    f431:	b9 2d 00 00 00       	mov    $0x2d,%ecx
    f436:	48 89 c7             	mov    %rax,%rdi
    f439:	48 89 d6             	mov    %rdx,%rsi
    f43c:	f3 48 a5             	rep movsq %ds:(%rsi),%es:(%rdi)
    f43f:	48 8d 05 ba 03 01 00 	lea    0x103ba(%rip),%rax        # 1f800 <g_780>
    f446:	48 89 85 80 f0 ff ff 	mov    %rax,-0xf80(%rbp)
    f44d:	c7 85 c8 ef ff ff f8 	movl   $0xfffffff8,-0x1038(%rbp)
    f454:	ff ff ff 
    f457:	66 c7 05 3b 03 01 00 	movw   $0xfff9,0x1033b(%rip)        # 1f79b <g_441+0xb>
    f45e:	f9 ff 
    f460:	eb 36                	jmp    f498 <func_52+0xc2f>
    f462:	48 c7 85 88 f0 ff ff 	movq   $0x0,-0xf78(%rbp)
    f469:	00 00 00 00 
    f46d:	48 8b 05 24 23 01 00 	mov    0x12324(%rip),%rax        # 21798 <g_43>
    f474:	48 8b 95 88 f0 ff ff 	mov    -0xf78(%rbp),%rdx
    f47b:	48 89 10             	mov    %rdx,(%rax)
    f47e:	83 bd 5c ef ff ff 00 	cmpl   $0x0,-0x10a4(%rbp)
    f485:	75 20                	jne    f4a7 <func_52+0xc3e>
    f487:	0f b7 05 0d 03 01 00 	movzwl 0x1030d(%rip),%eax        # 1f79b <g_441+0xb>
    f48e:	83 c0 01             	add    $0x1,%eax
    f491:	66 89 05 03 03 01 00 	mov    %ax,0x10303(%rip)        # 1f79b <g_441+0xb>
    f498:	0f b7 05 fc 02 01 00 	movzwl 0x102fc(%rip),%eax        # 1f79b <g_441+0xb>
    f49f:	66 83 f8 20          	cmp    $0x20,%ax
    f4a3:	75 bd                	jne    f462 <func_52+0xbf9>
    f4a5:	eb 01                	jmp    f4a8 <func_52+0xc3f>
    f4a7:	90                   	nop
    f4a8:	c6 05 d9 00 01 00 fe 	movb   $0xfe,0x100d9(%rip)        # 1f588 <g_434+0x8>
    f4af:	e9 d6 01 00 00       	jmpq   f68a <func_52+0xe21>
    f4b4:	48 8d 05 95 23 01 00 	lea    0x12395(%rip),%rax        # 21850 <g_260+0x10>
    f4bb:	48 89 85 f8 ef ff ff 	mov    %rax,-0x1008(%rbp)
    f4c2:	c7 85 cc ef ff ff 00 	movl   $0x0,-0x1034(%rbp)
    f4c9:	00 00 00 
    f4cc:	c7 85 80 ef ff ff 00 	movl   $0x0,-0x1080(%rbp)
    f4d3:	00 00 00 
    f4d6:	eb 1e                	jmp    f4f6 <func_52+0xc8d>
    f4d8:	8b 85 80 ef ff ff    	mov    -0x1080(%rbp),%eax
    f4de:	48 98                	cltq   
    f4e0:	48 8d 95 f8 ef ff ff 	lea    -0x1008(%rbp),%rdx
    f4e7:	48 89 94 c5 f0 f0 ff 	mov    %rdx,-0xf10(%rbp,%rax,8)
    f4ee:	ff 
    f4ef:	83 85 80 ef ff ff 01 	addl   $0x1,-0x1080(%rbp)
    f4f6:	83 bd 80 ef ff ff 09 	cmpl   $0x9,-0x1080(%rbp)
    f4fd:	7e d9                	jle    f4d8 <func_52+0xc6f>
    f4ff:	8b 9d 4c ef ff ff    	mov    -0x10b4(%rbp),%ebx
    f505:	44 8b a5 4c ef ff ff 	mov    -0x10b4(%rbp),%r12d
    f50c:	8b 85 58 ef ff ff    	mov    -0x10a8(%rbp),%eax
    f512:	0f b7 c0             	movzwl %ax,%eax
    f515:	be 65 eb 00 00       	mov    $0xeb65,%esi
    f51a:	89 c7                	mov    %eax,%edi
    f51c:	e8 1c 98 ff ff       	callq  8d3d <safe_mul_func_uint16_t_u_u>
    f521:	0f b7 c0             	movzwl %ax,%eax
    f524:	44 89 e6             	mov    %r12d,%esi
    f527:	89 c7                	mov    %eax,%edi
    f529:	e8 90 98 ff ff       	callq  8dbe <safe_lshift_func_uint16_t_u_s>
    f52e:	66 85 c0             	test   %ax,%ax
    f531:	74 10                	je     f543 <func_52+0xcda>
    f533:	b8 06 00 00 00       	mov    $0x6,%eax
    f538:	85 c0                	test   %eax,%eax
    f53a:	74 07                	je     f543 <func_52+0xcda>
    f53c:	b8 01 00 00 00       	mov    $0x1,%eax
    f541:	eb 05                	jmp    f548 <func_52+0xcdf>
    f543:	b8 00 00 00 00       	mov    $0x0,%eax
    f548:	89 c1                	mov    %eax,%ecx
    f54a:	0f b6 05 7e 00 01 00 	movzbl 0x1007e(%rip),%eax        # 1f5cf <g_436+0xf>
    f551:	0f b7 15 78 00 01 00 	movzwl 0x10078(%rip),%edx        # 1f5d0 <g_436+0x10>
    f558:	81 e2 ff 7f 00 00    	and    $0x7fff,%edx
    f55e:	48 c1 e2 08          	shl    $0x8,%rdx
    f562:	48 09 d0             	or     %rdx,%rax
    f565:	48 c1 e0 29          	shl    $0x29,%rax
    f569:	48 c1 f8 29          	sar    $0x29,%rax
    f56d:	89 ce                	mov    %ecx,%esi
    f56f:	89 c7                	mov    %eax,%edi
    f571:	e8 af 99 ff ff       	callq  8f25 <safe_div_func_uint32_t_u_u>
    f576:	48 8b 85 80 f0 ff ff 	mov    -0xf80(%rbp),%rax
    f57d:	48 3b 85 30 f0 ff ff 	cmp    -0xfd0(%rbp),%rax
    f584:	0f 95 c0             	setne  %al
    f587:	0f b6 c0             	movzbl %al,%eax
    f58a:	39 85 5c ef ff ff    	cmp    %eax,-0x10a4(%rbp)
    f590:	0f 9c c0             	setl   %al
    f593:	0f b6 d0             	movzbl %al,%edx
    f596:	8b 85 b8 ef ff ff    	mov    -0x1048(%rbp),%eax
    f59c:	89 d6                	mov    %edx,%esi
    f59e:	89 c7                	mov    %eax,%edi
    f5a0:	e8 11 90 ff ff       	callq  85b6 <safe_add_func_int32_t_s_s>
    f5a5:	48 98                	cltq   
    f5a7:	48 8b 95 70 f8 ff ff 	mov    -0x790(%rbp),%rdx
    f5ae:	48 89 c6             	mov    %rax,%rsi
    f5b1:	48 89 d7             	mov    %rdx,%rdi
    f5b4:	e8 f6 9a ff ff       	callq  90af <safe_div_func_uint64_t_u_u>
    f5b9:	66 89 05 7a 02 01 00 	mov    %ax,0x1027a(%rip)        # 1f83a <g_783+0x2>
    f5c0:	0f b7 05 73 02 01 00 	movzwl 0x10273(%rip),%eax        # 1f83a <g_783+0x2>
    f5c7:	0f b6 c0             	movzbl %al,%eax
    f5ca:	89 c6                	mov    %eax,%esi
    f5cc:	bf ff 00 00 00       	mov    $0xff,%edi
    f5d1:	e8 bd 95 ff ff       	callq  8b93 <safe_mul_func_uint8_t_u_u>
    f5d6:	48 8d 05 9b 22 01 00 	lea    0x1229b(%rip),%rax        # 21878 <g_260+0x38>
    f5dd:	48 89 05 34 2b 01 00 	mov    %rax,0x12b34(%rip)        # 22118 <g_765>
    f5e4:	48 8b 15 2d 2b 01 00 	mov    0x12b2d(%rip),%rdx        # 22118 <g_765>
    f5eb:	48 8b 85 e8 ef ff ff 	mov    -0x1018(%rbp),%rax
    f5f2:	48 39 c2             	cmp    %rax,%rdx
    f5f5:	0f 95 c0             	setne  %al
    f5f8:	0f b6 c0             	movzbl %al,%eax
    f5fb:	39 85 58 ef ff ff    	cmp    %eax,-0x10a8(%rbp)
    f601:	0f 96 c0             	setbe  %al
    f604:	0f b6 d0             	movzbl %al,%edx
    f607:	8b 85 5c ef ff ff    	mov    -0x10a4(%rbp),%eax
    f60d:	0f be c0             	movsbl %al,%eax
    f610:	89 d6                	mov    %edx,%esi
    f612:	89 c7                	mov    %eax,%edi
    f614:	e8 d9 8b ff ff       	callq  81f2 <safe_sub_func_int8_t_s_s>
    f619:	0f b6 c0             	movzbl %al,%eax
    f61c:	be c9 00 00 00       	mov    $0xc9,%esi
    f621:	89 c7                	mov    %eax,%edi
    f623:	e8 6b 95 ff ff       	callq  8b93 <safe_mul_func_uint8_t_u_u>
    f628:	48 8b 85 28 f0 ff ff 	mov    -0xfd8(%rbp),%rax
    f62f:	8b 10                	mov    (%rax),%edx
    f631:	48 8b 85 28 f0 ff ff 	mov    -0xfd8(%rbp),%rax
    f638:	89 10                	mov    %edx,(%rax)
    f63a:	48 8b 85 28 f0 ff ff 	mov    -0xfd8(%rbp),%rax
    f641:	8b 00                	mov    (%rax),%eax
    f643:	be ff ff ff ff       	mov    $0xffffffff,%esi
    f648:	89 c7                	mov    %eax,%edi
    f64a:	e8 b6 8f ff ff       	callq  8605 <safe_sub_func_int32_t_s_s>
    f64f:	98                   	cwtl   
    f650:	be 09 00 00 00       	mov    $0x9,%esi
    f655:	89 c7                	mov    %eax,%edi
    f657:	e8 77 8d ff ff       	callq  83d3 <safe_sub_func_int16_t_s_s>
    f65c:	89 de                	mov    %ebx,%esi
    f65e:	bf 00 00 00 00       	mov    $0x0,%edi
    f663:	e8 9d 8f ff ff       	callq  8605 <safe_sub_func_int32_t_s_s>
    f668:	39 85 4c ef ff ff    	cmp    %eax,-0x10b4(%rbp)
    f66e:	0f 92 c0             	setb   %al
    f671:	0f b6 c0             	movzbl %al,%eax
    f674:	89 85 c8 ef ff ff    	mov    %eax,-0x1038(%rbp)
    f67a:	0f b6 05 07 ff 00 00 	movzbl 0xff07(%rip),%eax        # 1f588 <g_434+0x8>
    f681:	83 c0 01             	add    $0x1,%eax
    f684:	88 05 fe fe 00 00    	mov    %al,0xfefe(%rip)        # 1f588 <g_434+0x8>
    f68a:	0f b6 05 f7 fe 00 00 	movzbl 0xfef7(%rip),%eax        # 1f588 <g_434+0x8>
    f691:	3c 23                	cmp    $0x23,%al
    f693:	0f 87 1b fe ff ff    	ja     f4b4 <func_52+0xc4b>
    f699:	48 8b 05 f8 20 01 00 	mov    0x120f8(%rip),%rax        # 21798 <g_43>
    f6a0:	48 c7 00 00 00 00 00 	movq   $0x0,(%rax)
    f6a7:	e9 79 01 00 00       	jmpq   f825 <func_52+0xfbc>
    f6ac:	c7 85 bc ef ff ff cd 	movl   $0xb2ec49cd,-0x1044(%rbp)
    f6b3:	49 ec b2 
    f6b6:	48 8d 05 b3 35 01 00 	lea    0x135b3(%rip),%rax        # 22c70 <g_100>
    f6bd:	48 89 85 70 f0 ff ff 	mov    %rax,-0xf90(%rbp)
    f6c4:	48 8d 05 2d 01 01 00 	lea    0x1012d(%rip),%rax        # 1f7f8 <g_744>
    f6cb:	48 89 85 78 f0 ff ff 	mov    %rax,-0xf88(%rbp)
    f6d2:	c7 85 c0 ef ff ff f8 	movl   $0xfffffff8,-0x1040(%rbp)
    f6d9:	ff ff ff 
    f6dc:	66 c7 05 2b ea 00 00 	movw   $0x1,0xea2b(%rip)        # 1e110 <g_226>
    f6e3:	01 00 
    f6e5:	eb 56                	jmp    f73d <func_52+0xed4>
    f6e7:	0f b7 05 3d eb 00 00 	movzwl 0xeb3d(%rip),%eax        # 1e22b <g_428+0xb>
    f6ee:	0f b7 c0             	movzwl %ax,%eax
    f6f1:	8d 50 01             	lea    0x1(%rax),%edx
    f6f4:	0f b7 05 30 eb 00 00 	movzwl 0xeb30(%rip),%eax        # 1e22b <g_428+0xb>
    f6fb:	0f b7 c0             	movzwl %ax,%eax
    f6fe:	83 c0 04             	add    $0x4,%eax
    f701:	48 63 c8             	movslq %eax,%rcx
    f704:	48 63 d2             	movslq %edx,%rdx
    f707:	48 89 d0             	mov    %rdx,%rax
    f70a:	48 01 c0             	add    %rax,%rax
    f70d:	48 01 d0             	add    %rdx,%rax
    f710:	48 01 c0             	add    %rax,%rax
    f713:	48 01 c8             	add    %rcx,%rax
    f716:	48 8d 14 85 00 00 00 	lea    0x0(,%rax,4),%rdx
    f71d:	00 
    f71e:	48 8d 05 fb e9 00 00 	lea    0xe9fb(%rip),%rax        # 1e120 <g_231>
    f725:	8b 04 02             	mov    (%rdx,%rax,1),%eax
    f728:	85 c0                	test   %eax,%eax
    f72a:	75 20                	jne    f74c <func_52+0xee3>
    f72c:	0f b7 05 dd e9 00 00 	movzwl 0xe9dd(%rip),%eax        # 1e110 <g_226>
    f733:	83 c0 01             	add    $0x1,%eax
    f736:	66 89 05 d3 e9 00 00 	mov    %ax,0xe9d3(%rip)        # 1e110 <g_226>
    f73d:	0f b7 05 cc e9 00 00 	movzwl 0xe9cc(%rip),%eax        # 1e110 <g_226>
    f744:	66 83 f8 05          	cmp    $0x5,%ax
    f748:	7e 9d                	jle    f6e7 <func_52+0xe7e>
    f74a:	eb 01                	jmp    f74d <func_52+0xee4>
    f74c:	90                   	nop
    f74d:	48 8b 85 38 f0 ff ff 	mov    -0xfc8(%rbp),%rax
    f754:	48 3b 85 58 f0 ff ff 	cmp    -0xfa8(%rbp),%rax
    f75b:	0f 95 c3             	setne  %bl
    f75e:	83 bd 5c ef ff ff 00 	cmpl   $0x0,-0x10a4(%rbp)
    f765:	75 24                	jne    f78b <func_52+0xf22>
    f767:	48 83 bd 70 f0 ff ff 	cmpq   $0x0,-0xf90(%rbp)
    f76e:	00 
    f76f:	0f 95 c0             	setne  %al
    f772:	0f b6 d0             	movzbl %al,%edx
    f775:	8b 85 b8 ef ff ff    	mov    -0x1048(%rbp),%eax
    f77b:	0f be c0             	movsbl %al,%eax
    f77e:	89 d6                	mov    %edx,%esi
    f780:	89 c7                	mov    %eax,%edi
    f782:	e8 67 8b ff ff       	callq  82ee <safe_lshift_func_int8_t_s_u>
    f787:	84 c0                	test   %al,%al
    f789:	74 07                	je     f792 <func_52+0xf29>
    f78b:	b8 01 00 00 00       	mov    $0x1,%eax
    f790:	eb 05                	jmp    f797 <func_52+0xf2e>
    f792:	b8 00 00 00 00       	mov    $0x0,%eax
    f797:	83 e0 01             	and    $0x1,%eax
    f79a:	31 d8                	xor    %ebx,%eax
    f79c:	84 c0                	test   %al,%al
    f79e:	75 0a                	jne    f7aa <func_52+0xf41>
    f7a0:	48 83 bd 00 f0 ff ff 	cmpq   $0x0,-0x1000(%rbp)
    f7a7:	00 
    f7a8:	74 07                	je     f7b1 <func_52+0xf48>
    f7aa:	b8 01 00 00 00       	mov    $0x1,%eax
    f7af:	eb 05                	jmp    f7b6 <func_52+0xf4d>
    f7b1:	b8 00 00 00 00       	mov    $0x0,%eax
    f7b6:	48 63 d0             	movslq %eax,%rdx
    f7b9:	48 8b 85 78 f0 ff ff 	mov    -0xf88(%rbp),%rax
    f7c0:	48 89 10             	mov    %rdx,(%rax)
    f7c3:	48 8b 85 78 f0 ff ff 	mov    -0xf88(%rbp),%rax
    f7ca:	48 8b 00             	mov    (%rax),%rax
    f7cd:	48 85 c0             	test   %rax,%rax
    f7d0:	74 10                	je     f7e2 <func_52+0xf79>
    f7d2:	83 bd bc ef ff ff 00 	cmpl   $0x0,-0x1044(%rbp)
    f7d9:	74 07                	je     f7e2 <func_52+0xf79>
    f7db:	b8 01 00 00 00       	mov    $0x1,%eax
    f7e0:	eb 05                	jmp    f7e7 <func_52+0xf7e>
    f7e2:	b8 00 00 00 00       	mov    $0x0,%eax
    f7e7:	39 85 bc ef ff ff    	cmp    %eax,-0x1044(%rbp)
    f7ed:	0f 92 c0             	setb   %al
    f7f0:	0f b6 c0             	movzbl %al,%eax
    f7f3:	09 85 c0 ef ff ff    	or     %eax,-0x1040(%rbp)
    f7f9:	66 c7 05 69 ea 00 00 	movw   $0xffff,0xea69(%rip)        # 1e26b <g_430+0xb>
    f800:	ff ff 
    f802:	90                   	nop
    f803:	0f b7 05 61 ea 00 00 	movzwl 0xea61(%rip),%eax        # 1e26b <g_430+0xb>
    f80a:	66 83 f8 1f          	cmp    $0x1f,%ax
    f80e:	77 15                	ja     f825 <func_52+0xfbc>
    f810:	c7 85 c4 ef ff ff 00 	movl   $0x0,-0x103c(%rbp)
    f817:	00 00 00 
    f81a:	8b 85 c4 ef ff ff    	mov    -0x103c(%rbp),%eax
    f820:	e9 d9 02 00 00       	jmpq   fafe <func_52+0x1295>
    f825:	8b 9d b8 ef ff ff    	mov    -0x1048(%rbp),%ebx
    f82b:	48 8b 85 10 f0 ff ff 	mov    -0xff0(%rbp),%rax
    f832:	48 3b 85 60 f0 ff ff 	cmp    -0xfa0(%rbp),%rax
    f839:	0f 95 c0             	setne  %al
    f83c:	0f b6 d0             	movzbl %al,%edx
    f83f:	8b 85 58 ef ff ff    	mov    -0x10a8(%rbp),%eax
    f845:	98                   	cwtl   
    f846:	89 d6                	mov    %edx,%esi
    f848:	89 c7                	mov    %eax,%edi
    f84a:	e8 84 8b ff ff       	callq  83d3 <safe_sub_func_int16_t_s_s>
    f84f:	48 be 3c cb 12 5f fb 	movabs $0xec9577fb5f12cb3c,%rsi
    f856:	77 95 ec 
    f859:	bf 01 00 00 00       	mov    $0x1,%edi
    f85e:	e8 45 90 ff ff       	callq  88a8 <safe_sub_func_int64_t_s_s>
    f863:	89 c2                	mov    %eax,%edx
    f865:	8b 85 6c ef ff ff    	mov    -0x1094(%rbp),%eax
    f86b:	31 d0                	xor    %edx,%eax
    f86d:	89 85 6c ef ff ff    	mov    %eax,-0x1094(%rbp)
    f873:	48 8b 85 28 f0 ff ff 	mov    -0xfd8(%rbp),%rax
    f87a:	8b 00                	mov    (%rax),%eax
    f87c:	85 c0                	test   %eax,%eax
    f87e:	75 0a                	jne    f88a <func_52+0x1021>
    f880:	8b 85 64 f1 ff ff    	mov    -0xe9c(%rbp),%eax
    f886:	85 c0                	test   %eax,%eax
    f888:	74 07                	je     f891 <func_52+0x1028>
    f88a:	b8 01 00 00 00       	mov    $0x1,%eax
    f88f:	eb 05                	jmp    f896 <func_52+0x102d>
    f891:	b8 00 00 00 00       	mov    $0x0,%eax
    f896:	89 de                	mov    %ebx,%esi
    f898:	89 c7                	mov    %eax,%edi
    f89a:	e8 19 96 ff ff       	callq  8eb8 <safe_add_func_uint32_t_u_u>
    f89f:	8b 85 5c ef ff ff    	mov    -0x10a4(%rbp),%eax
    f8a5:	39 85 4c ef ff ff    	cmp    %eax,-0x10b4(%rbp)
    f8ab:	0f 95 c0             	setne  %al
    f8ae:	0f b6 d0             	movzbl %al,%edx
    f8b1:	8b 85 5c ef ff ff    	mov    -0x10a4(%rbp),%eax
    f8b7:	0f b6 c0             	movzbl %al,%eax
    f8ba:	89 d6                	mov    %edx,%esi
    f8bc:	89 c7                	mov    %eax,%edi
    f8be:	e8 eb 92 ff ff       	callq  8bae <safe_mod_func_uint8_t_u_u>
    f8c3:	0f b6 d8             	movzbl %al,%ebx
    f8c6:	8b 85 84 ef ff ff    	mov    -0x107c(%rbp),%eax
    f8cc:	39 85 58 ef ff ff    	cmp    %eax,-0x10a8(%rbp)
    f8d2:	0f 96 c0             	setbe  %al
    f8d5:	0f b6 c0             	movzbl %al,%eax
    f8d8:	89 c7                	mov    %eax,%edi
    f8da:	e8 0a 94 ff ff       	callq  8ce9 <safe_unary_minus_func_uint16_t_u>
    f8df:	0f b7 c0             	movzwl %ax,%eax
    f8e2:	89 de                	mov    %ebx,%esi
    f8e4:	89 c7                	mov    %eax,%edi
    f8e6:	e8 34 94 ff ff       	callq  8d1f <safe_sub_func_uint16_t_u_u>
    f8eb:	0f b7 d0             	movzwl %ax,%edx
    f8ee:	48 8b 85 28 f0 ff ff 	mov    -0xfd8(%rbp),%rax
    f8f5:	89 10                	mov    %edx,(%rax)
    f8f7:	eb 11                	jmp    f90a <func_52+0x10a1>
    f8f9:	48 8b 85 40 ef ff ff 	mov    -0x10c0(%rbp),%rax
    f900:	48 8d 95 6c ef ff ff 	lea    -0x1094(%rbp),%rdx
    f907:	48 89 10             	mov    %rdx,(%rax)
    f90a:	8b 85 b8 ef ff ff    	mov    -0x1048(%rbp),%eax
    f910:	0f b7 d8             	movzwl %ax,%ebx
    f913:	8b 85 58 ef ff ff    	mov    -0x10a8(%rbp),%eax
    f919:	0f be d0             	movsbl %al,%edx
    f91c:	48 8b 05 f5 27 01 00 	mov    0x127f5(%rip),%rax        # 22118 <g_765>
    f923:	48 8b 00             	mov    (%rax),%rax
    f926:	48 85 c0             	test   %rax,%rax
    f929:	0f 95 c0             	setne  %al
    f92c:	0f b6 c0             	movzbl %al,%eax
    f92f:	89 d6                	mov    %edx,%esi
    f931:	89 c7                	mov    %eax,%edi
    f933:	e8 da 88 ff ff       	callq  8212 <safe_mul_func_int8_t_s_s>
    f938:	66 98                	cbtw   
    f93a:	0f b7 d0             	movzwl %ax,%edx
    f93d:	0f b7 05 fd f1 00 00 	movzwl 0xf1fd(%rip),%eax        # 1eb41 <g_431+0x8c1>
    f944:	0f b7 c0             	movzwl %ax,%eax
    f947:	89 d6                	mov    %edx,%esi
    f949:	89 c7                	mov    %eax,%edi
    f94b:	e8 ed 93 ff ff       	callq  8d3d <safe_mul_func_uint16_t_u_u>
    f950:	0f b6 c0             	movzbl %al,%eax
    f953:	be 03 00 00 00       	mov    $0x3,%esi
    f958:	89 c7                	mov    %eax,%edi
    f95a:	e8 5f 93 ff ff       	callq  8cbe <safe_rshift_func_uint8_t_u_u>
    f95f:	44 0f b6 f0          	movzbl %al,%r14d
    f963:	44 8b a5 4c ef ff ff 	mov    -0x10b4(%rbp),%r12d
    f96a:	8b 85 70 f5 ff ff    	mov    -0xa90(%rbp),%eax
    f970:	44 0f be e8          	movsbl %al,%r13d
    f974:	0f b6 05 64 fe 00 00 	movzbl 0xfe64(%rip),%eax        # 1f7df <g_443+0xf>
    f97b:	0f b7 15 5e fe 00 00 	movzwl 0xfe5e(%rip),%edx        # 1f7e0 <g_443+0x10>
    f982:	81 e2 ff 7f 00 00    	and    $0x7fff,%edx
    f988:	48 c1 e2 08          	shl    $0x8,%rdx
    f98c:	48 09 d0             	or     %rdx,%rax
    f98f:	48 c1 e0 29          	shl    $0x29,%rax
    f993:	48 c1 f8 29          	sar    $0x29,%rax
    f997:	89 c2                	mov    %eax,%edx
    f999:	8b 05 53 fc 00 00    	mov    0xfc53(%rip),%eax        # 1f5f2 <g_437+0x12>
    f99f:	89 d6                	mov    %edx,%esi
    f9a1:	89 c7                	mov    %eax,%edi
    f9a3:	e8 55 95 ff ff       	callq  8efd <safe_mod_func_uint32_t_u_u>
    f9a8:	8b 95 b8 ef ff ff    	mov    -0x1048(%rbp),%edx
    f9ae:	39 d0                	cmp    %edx,%eax
    f9b0:	0f 97 c0             	seta   %al
    f9b3:	0f b6 c0             	movzbl %al,%eax
    f9b6:	be 4a 00 00 00       	mov    $0x4a,%esi
    f9bb:	89 c7                	mov    %eax,%edi
    f9bd:	e8 d1 91 ff ff       	callq  8b93 <safe_mul_func_uint8_t_u_u>
    f9c2:	0f b6 c0             	movzbl %al,%eax
    f9c5:	be ff ff 00 00       	mov    $0xffff,%esi
    f9ca:	89 c7                	mov    %eax,%edi
    f9cc:	e8 2e 93 ff ff       	callq  8cff <safe_add_func_uint16_t_u_u>
    f9d1:	89 c2                	mov    %eax,%edx
    f9d3:	8b 85 b8 ef ff ff    	mov    -0x1048(%rbp),%eax
    f9d9:	31 d0                	xor    %edx,%eax
    f9db:	98                   	cwtl   
    f9dc:	be 6d 40 00 00       	mov    $0x406d,%esi
    f9e1:	89 c7                	mov    %eax,%edi
    f9e3:	e8 0d 8a ff ff       	callq  83f5 <safe_mul_func_int16_t_s_s>
    f9e8:	0f be c0             	movsbl %al,%eax
    f9eb:	44 89 ee             	mov    %r13d,%esi
    f9ee:	89 c7                	mov    %eax,%edi
    f9f0:	e8 3c 88 ff ff       	callq  8231 <safe_mod_func_int8_t_s_s>
    f9f5:	0f be c0             	movsbl %al,%eax
    f9f8:	44 89 e6             	mov    %r12d,%esi
    f9fb:	89 c7                	mov    %eax,%edi
    f9fd:	e8 fd 8c ff ff       	callq  86ff <safe_div_func_int32_t_s_s>
    fa02:	83 f0 5c             	xor    $0x5c,%eax
    fa05:	44 0f be e0          	movsbl %al,%r12d
    fa09:	8b 85 6c ef ff ff    	mov    -0x1094(%rbp),%eax
    fa0f:	0f b7 c0             	movzwl %ax,%eax
    fa12:	be 04 00 00 00       	mov    $0x4,%esi
    fa17:	89 c7                	mov    %eax,%edi
    fa19:	e8 a0 93 ff ff       	callq  8dbe <safe_lshift_func_uint16_t_u_s>
    fa1e:	0f b7 05 c4 e7 00 00 	movzwl 0xe7c4(%rip),%eax        # 1e1e9 <g_407+0x9>
    fa25:	0f b7 c0             	movzwl %ax,%eax
    fa28:	89 85 6c ef ff ff    	mov    %eax,-0x1094(%rbp)
    fa2e:	8b 95 6c ef ff ff    	mov    -0x1094(%rbp),%edx
    fa34:	48 8b 85 28 f0 ff ff 	mov    -0xfd8(%rbp),%rax
    fa3b:	89 10                	mov    %edx,(%rax)
    fa3d:	48 8b 85 28 f0 ff ff 	mov    -0xfd8(%rbp),%rax
    fa44:	8b 00                	mov    (%rax),%eax
    fa46:	0f be c0             	movsbl %al,%eax
    fa49:	44 89 e6             	mov    %r12d,%esi
    fa4c:	89 c7                	mov    %eax,%edi
    fa4e:	e8 bf 87 ff ff       	callq  8212 <safe_mul_func_int8_t_s_s>
    fa53:	0f be c0             	movsbl %al,%eax
    fa56:	41 39 c6             	cmp    %eax,%r14d
    fa59:	0f 9e c0             	setle  %al
    fa5c:	0f b6 c0             	movzbl %al,%eax
    fa5f:	89 de                	mov    %ebx,%esi
    fa61:	89 c7                	mov    %eax,%edi
    fa63:	e8 26 93 ff ff       	callq  8d8e <safe_div_func_uint16_t_u_u>
    fa68:	48 8d 05 63 e7 00 00 	lea    0xe763(%rip),%rax        # 1e1d2 <g_396>
    fa6f:	48 39 85 18 f0 ff ff 	cmp    %rax,-0xfe8(%rbp)
    fa76:	75 09                	jne    fa81 <func_52+0x1218>
    fa78:	83 bd 88 ef ff ff 00 	cmpl   $0x0,-0x1078(%rbp)
    fa7f:	74 07                	je     fa88 <func_52+0x121f>
    fa81:	b8 01 00 00 00       	mov    $0x1,%eax
    fa86:	eb 05                	jmp    fa8d <func_52+0x1224>
    fa88:	b8 00 00 00 00       	mov    $0x0,%eax
    fa8d:	89 c6                	mov    %eax,%esi
    fa8f:	bf f9 00 00 00       	mov    $0xf9,%edi
    fa94:	e8 25 92 ff ff       	callq  8cbe <safe_rshift_func_uint8_t_u_u>
    fa99:	0f b6 c0             	movzbl %al,%eax
    fa9c:	83 c8 f6             	or     $0xfffffff6,%eax
    fa9f:	89 85 b8 ef ff ff    	mov    %eax,-0x1048(%rbp)
    faa5:	48 8b 85 40 ef ff ff 	mov    -0x10c0(%rbp),%rax
    faac:	48 8d 95 70 ef ff ff 	lea    -0x1090(%rbp),%rdx
    fab3:	48 89 10             	mov    %rdx,(%rax)
    fab6:	0f b7 05 6e e7 00 00 	movzwl 0xe76e(%rip),%eax        # 1e22b <g_428+0xb>
    fabd:	83 c0 01             	add    $0x1,%eax
    fac0:	66 89 05 64 e7 00 00 	mov    %ax,0xe764(%rip)        # 1e22b <g_428+0xb>
    fac7:	0f b7 05 5d e7 00 00 	movzwl 0xe75d(%rip),%eax        # 1e22b <g_428+0xb>
    face:	66 85 c0             	test   %ax,%ax
    fad1:	0f 84 df f5 ff ff    	je     f0b6 <func_52+0x84d>
    fad7:	0f b7 05 02 e6 00 00 	movzwl 0xe602(%rip),%eax        # 1e0e0 <g_125>
    fade:	83 c0 01             	add    $0x1,%eax
    fae1:	66 89 05 f8 e5 00 00 	mov    %ax,0xe5f8(%rip)        # 1e0e0 <g_125>
    fae8:	0f b7 05 f1 e5 00 00 	movzwl 0xe5f1(%rip),%eax        # 1e0e0 <g_125>
    faef:	66 85 c0             	test   %ax,%ax
    faf2:	0f 84 93 ee ff ff    	je     e98b <func_52+0x122>
    faf8:	8b 85 6c ef ff ff    	mov    -0x1094(%rbp),%eax
    fafe:	48 8b 5d d8          	mov    -0x28(%rbp),%rbx
    fb02:	64 48 33 1c 25 28 00 	xor    %fs:0x28,%rbx
    fb09:	00 00 
    fb0b:	74 05                	je     fb12 <func_52+0x12a9>
    fb0d:	e8 5e 85 ff ff       	callq  8070 <__stack_chk_fail@plt>
    fb12:	48 81 c4 a0 10 00 00 	add    $0x10a0,%rsp
    fb19:	5b                   	pop    %rbx
    fb1a:	41 5c                	pop    %r12
    fb1c:	41 5d                	pop    %r13
    fb1e:	41 5e                	pop    %r14
    fb20:	5d                   	pop    %rbp
    fb21:	c3                   	retq   

000000000000fb22 <func_60>:
    fb22:	f3 0f 1e fa          	endbr64 
    fb26:	55                   	push   %rbp
    fb27:	48 89 e5             	mov    %rsp,%rbp
    fb2a:	41 57                	push   %r15
    fb2c:	41 56                	push   %r14
    fb2e:	41 55                	push   %r13
    fb30:	41 54                	push   %r12
    fb32:	53                   	push   %rbx
    fb33:	48 81 ec 00 10 00 00 	sub    $0x1000,%rsp
    fb3a:	48 83 0c 24 00       	orq    $0x0,(%rsp)
    fb3f:	48 81 ec 00 10 00 00 	sub    $0x1000,%rsp
    fb46:	48 83 0c 24 00       	orq    $0x0,(%rsp)
    fb4b:	48 81 ec 48 05 00 00 	sub    $0x548,%rsp
    fb52:	89 bd ac da ff ff    	mov    %edi,-0x2554(%rbp)
    fb58:	48 89 b5 a0 da ff ff 	mov    %rsi,-0x2560(%rbp)
    fb5f:	89 95 a8 da ff ff    	mov    %edx,-0x2558(%rbp)
    fb65:	64 48 8b 04 25 28 00 	mov    %fs:0x28,%rax
    fb6c:	00 00 
    fb6e:	48 89 45 c8          	mov    %rax,-0x38(%rbp)
    fb72:	31 c0                	xor    %eax,%eax
    fb74:	48 c7 85 a8 db ff ff 	movq   $0xffffffffffffffff,-0x2458(%rbp)
    fb7b:	ff ff ff ff 
    fb7f:	c7 85 c0 da ff ff 01 	movl   $0x1,-0x2540(%rbp)
    fb86:	00 00 00 
    fb89:	c7 85 c4 da ff ff 45 	movl   $0xaabb7745,-0x253c(%rbp)
    fb90:	77 bb aa 
    fb93:	48 c7 85 10 dc ff ff 	movq   $0x0,-0x23f0(%rbp)
    fb9a:	00 00 00 00 
    fb9e:	c7 85 c8 da ff ff 00 	movl   $0x0,-0x2538(%rbp)
    fba5:	00 00 00 
    fba8:	c7 85 b0 de ff ff 76 	movl   $0xadecf76,-0x2150(%rbp)
    fbaf:	cf de 0a 
    fbb2:	c7 85 b4 de ff ff 76 	movl   $0xadecf76,-0x214c(%rbp)
    fbb9:	cf de 0a 
    fbbc:	c7 85 b8 de ff ff 76 	movl   $0xadecf76,-0x2148(%rbp)
    fbc3:	cf de 0a 
    fbc6:	c7 85 bc de ff ff 76 	movl   $0xadecf76,-0x2144(%rbp)
    fbcd:	cf de 0a 
    fbd0:	c7 85 c0 de ff ff 76 	movl   $0xadecf76,-0x2140(%rbp)
    fbd7:	cf de 0a 
    fbda:	c7 85 cc da ff ff ff 	movl   $0xffffffff,-0x2534(%rbp)
    fbe1:	ff ff ff 
    fbe4:	48 8d 05 95 1c 01 00 	lea    0x11c95(%rip),%rax        # 21880 <g_260+0x40>
    fbeb:	48 89 85 b0 db ff ff 	mov    %rax,-0x2450(%rbp)
    fbf2:	48 8d 85 b0 db ff ff 	lea    -0x2450(%rbp),%rax
    fbf9:	48 89 85 e0 df ff ff 	mov    %rax,-0x2020(%rbp)
    fc00:	48 8d 85 b0 db ff ff 	lea    -0x2450(%rbp),%rax
    fc07:	48 89 85 e8 df ff ff 	mov    %rax,-0x2018(%rbp)
    fc0e:	48 8d 85 b0 db ff ff 	lea    -0x2450(%rbp),%rax
    fc15:	48 89 85 f0 df ff ff 	mov    %rax,-0x2010(%rbp)
    fc1c:	48 8d 85 b0 db ff ff 	lea    -0x2450(%rbp),%rax
    fc23:	48 89 85 f8 df ff ff 	mov    %rax,-0x2008(%rbp)
    fc2a:	48 8d 85 b0 db ff ff 	lea    -0x2450(%rbp),%rax
    fc31:	48 89 85 00 e0 ff ff 	mov    %rax,-0x2000(%rbp)
    fc38:	48 8d 85 b0 db ff ff 	lea    -0x2450(%rbp),%rax
    fc3f:	48 89 85 08 e0 ff ff 	mov    %rax,-0x1ff8(%rbp)
    fc46:	48 8d 85 b0 db ff ff 	lea    -0x2450(%rbp),%rax
    fc4d:	48 89 85 10 e0 ff ff 	mov    %rax,-0x1ff0(%rbp)
    fc54:	48 8d 85 b0 db ff ff 	lea    -0x2450(%rbp),%rax
    fc5b:	48 89 85 18 e0 ff ff 	mov    %rax,-0x1fe8(%rbp)
    fc62:	48 8d 85 b0 db ff ff 	lea    -0x2450(%rbp),%rax
    fc69:	48 89 85 20 e0 ff ff 	mov    %rax,-0x1fe0(%rbp)
    fc70:	48 8d 85 e0 e0 ff ff 	lea    -0x1f20(%rbp),%rax
    fc77:	48 8d 15 02 9e 00 00 	lea    0x9e02(%rip),%rdx        # 19a80 <g_386+0xa2c>
    fc7e:	b9 23 00 00 00       	mov    $0x23,%ecx
    fc83:	48 89 c7             	mov    %rax,%rdi
    fc86:	48 89 d6             	mov    %rdx,%rsi
    fc89:	f3 48 a5             	rep movsq %ds:(%rsi),%es:(%rdi)
    fc8c:	48 8d 05 1d 1c 01 00 	lea    0x11c1d(%rip),%rax        # 218b0 <g_423>
    fc93:	48 89 85 18 dc ff ff 	mov    %rax,-0x23e8(%rbp)
    fc9a:	48 8d 05 67 e5 00 00 	lea    0xe567(%rip),%rax        # 1e208 <g_427+0x8>
    fca1:	48 89 85 30 e0 ff ff 	mov    %rax,-0x1fd0(%rbp)
    fca8:	48 8d 05 f9 f8 00 00 	lea    0xf8f9(%rip),%rax        # 1f5a8 <g_435+0x8>
    fcaf:	48 89 85 38 e0 ff ff 	mov    %rax,-0x1fc8(%rbp)
    fcb6:	48 8d 05 eb f8 00 00 	lea    0xf8eb(%rip),%rax        # 1f5a8 <g_435+0x8>
    fcbd:	48 89 85 40 e0 ff ff 	mov    %rax,-0x1fc0(%rbp)
    fcc4:	48 c7 85 48 e0 ff ff 	movq   $0x0,-0x1fb8(%rbp)
    fccb:	00 00 00 00 
    fccf:	48 8d 05 d2 f8 00 00 	lea    0xf8d2(%rip),%rax        # 1f5a8 <g_435+0x8>
    fcd6:	48 89 85 50 e0 ff ff 	mov    %rax,-0x1fb0(%rbp)
    fcdd:	48 8d 05 1c fa 00 00 	lea    0xfa1c(%rip),%rax        # 1f700 <g_440+0x20>
    fce4:	48 89 85 58 e0 ff ff 	mov    %rax,-0x1fa8(%rbp)
    fceb:	48 8d 05 a6 fa 00 00 	lea    0xfaa6(%rip),%rax        # 1f798 <g_441+0x8>
    fcf2:	48 89 85 60 e0 ff ff 	mov    %rax,-0x1fa0(%rbp)
    fcf9:	48 8d 05 08 e5 00 00 	lea    0xe508(%rip),%rax        # 1e208 <g_427+0x8>
    fd00:	48 89 85 68 e0 ff ff 	mov    %rax,-0x1f98(%rbp)
    fd07:	48 8d 05 3a e5 00 00 	lea    0xe53a(%rip),%rax        # 1e248 <g_429+0x8>
    fd0e:	48 89 85 70 e0 ff ff 	mov    %rax,-0x1f90(%rbp)
    fd15:	48 c7 85 78 e0 ff ff 	movq   $0x0,-0x1f88(%rbp)
    fd1c:	00 00 00 00 
    fd20:	48 c7 85 80 e0 ff ff 	movq   $0x0,-0x1f80(%rbp)
    fd27:	00 00 00 00 
    fd2b:	48 8d 05 16 e5 00 00 	lea    0xe516(%rip),%rax        # 1e248 <g_429+0x8>
    fd32:	48 89 85 88 e0 ff ff 	mov    %rax,-0x1f78(%rbp)
    fd39:	48 8d 05 c8 e4 00 00 	lea    0xe4c8(%rip),%rax        # 1e208 <g_427+0x8>
    fd40:	48 89 85 90 e0 ff ff 	mov    %rax,-0x1f70(%rbp)
    fd47:	48 8d 05 4a fa 00 00 	lea    0xfa4a(%rip),%rax        # 1f798 <g_441+0x8>
    fd4e:	48 89 85 98 e0 ff ff 	mov    %rax,-0x1f68(%rbp)
    fd55:	48 8d 05 a4 f9 00 00 	lea    0xf9a4(%rip),%rax        # 1f700 <g_440+0x20>
    fd5c:	48 89 85 a0 e0 ff ff 	mov    %rax,-0x1f60(%rbp)
    fd63:	48 8d 05 3e f8 00 00 	lea    0xf83e(%rip),%rax        # 1f5a8 <g_435+0x8>
    fd6a:	48 89 85 a8 e0 ff ff 	mov    %rax,-0x1f58(%rbp)
    fd71:	48 c7 85 b0 e0 ff ff 	movq   $0x0,-0x1f50(%rbp)
    fd78:	00 00 00 00 
    fd7c:	48 8d 05 25 f8 00 00 	lea    0xf825(%rip),%rax        # 1f5a8 <g_435+0x8>
    fd83:	48 89 85 b8 e0 ff ff 	mov    %rax,-0x1f48(%rbp)
    fd8a:	48 8d 05 17 f8 00 00 	lea    0xf817(%rip),%rax        # 1f5a8 <g_435+0x8>
    fd91:	48 89 85 c0 e0 ff ff 	mov    %rax,-0x1f40(%rbp)
    fd98:	48 8d 05 69 e4 00 00 	lea    0xe469(%rip),%rax        # 1e208 <g_427+0x8>
    fd9f:	48 89 85 c8 e0 ff ff 	mov    %rax,-0x1f38(%rbp)
    fda6:	48 c7 85 d0 e0 ff ff 	movq   $0x0,-0x1f30(%rbp)
    fdad:	00 00 00 00 
    fdb1:	48 8d 85 30 e0 ff ff 	lea    -0x1fd0(%rbp),%rax
    fdb8:	48 83 c0 10          	add    $0x10,%rax
    fdbc:	48 89 85 00 e2 ff ff 	mov    %rax,-0x1e00(%rbp)
    fdc3:	48 8d 85 30 e0 ff ff 	lea    -0x1fd0(%rbp),%rax
    fdca:	48 83 c0 10          	add    $0x10,%rax
    fdce:	48 89 85 08 e2 ff ff 	mov    %rax,-0x1df8(%rbp)
    fdd5:	48 8d 85 30 e0 ff ff 	lea    -0x1fd0(%rbp),%rax
    fddc:	48 83 c0 20          	add    $0x20,%rax
    fde0:	48 89 85 10 e2 ff ff 	mov    %rax,-0x1df0(%rbp)
    fde7:	48 8d 85 30 e0 ff ff 	lea    -0x1fd0(%rbp),%rax
    fdee:	48 83 c0 10          	add    $0x10,%rax
    fdf2:	48 89 85 18 e2 ff ff 	mov    %rax,-0x1de8(%rbp)
    fdf9:	48 8d 85 30 e0 ff ff 	lea    -0x1fd0(%rbp),%rax
    fe00:	48 83 c0 10          	add    $0x10,%rax
    fe04:	48 89 85 20 e2 ff ff 	mov    %rax,-0x1de0(%rbp)
    fe0b:	48 8d 85 30 e0 ff ff 	lea    -0x1fd0(%rbp),%rax
    fe12:	48 83 c0 20          	add    $0x20,%rax
    fe16:	48 89 85 28 e2 ff ff 	mov    %rax,-0x1dd8(%rbp)
    fe1d:	48 8d 85 30 e0 ff ff 	lea    -0x1fd0(%rbp),%rax
    fe24:	48 83 c0 10          	add    $0x10,%rax
    fe28:	48 89 85 30 e2 ff ff 	mov    %rax,-0x1dd0(%rbp)
    fe2f:	48 8d 85 30 e0 ff ff 	lea    -0x1fd0(%rbp),%rax
    fe36:	48 83 c0 10          	add    $0x10,%rax
    fe3a:	48 89 85 38 e2 ff ff 	mov    %rax,-0x1dc8(%rbp)
    fe41:	48 8d 85 30 e0 ff ff 	lea    -0x1fd0(%rbp),%rax
    fe48:	48 83 c0 20          	add    $0x20,%rax
    fe4c:	48 89 85 40 e2 ff ff 	mov    %rax,-0x1dc0(%rbp)
    fe53:	48 c7 85 48 e2 ff ff 	movq   $0x0,-0x1db8(%rbp)
    fe5a:	00 00 00 00 
    fe5e:	48 8d 85 30 e0 ff ff 	lea    -0x1fd0(%rbp),%rax
    fe65:	48 05 98 00 00 00    	add    $0x98,%rax
    fe6b:	48 89 85 50 e2 ff ff 	mov    %rax,-0x1db0(%rbp)
    fe72:	48 8d 85 30 e0 ff ff 	lea    -0x1fd0(%rbp),%rax
    fe79:	48 83 c0 50          	add    $0x50,%rax
    fe7d:	48 89 85 58 e2 ff ff 	mov    %rax,-0x1da8(%rbp)
    fe84:	48 8d 85 30 e0 ff ff 	lea    -0x1fd0(%rbp),%rax
    fe8b:	48 05 98 00 00 00    	add    $0x98,%rax
    fe91:	48 89 85 60 e2 ff ff 	mov    %rax,-0x1da0(%rbp)
    fe98:	48 c7 85 68 e2 ff ff 	movq   $0x0,-0x1d98(%rbp)
    fe9f:	00 00 00 00 
    fea3:	48 8d 85 30 e0 ff ff 	lea    -0x1fd0(%rbp),%rax
    feaa:	48 83 c0 10          	add    $0x10,%rax
    feae:	48 89 85 70 e2 ff ff 	mov    %rax,-0x1d90(%rbp)
    feb5:	48 c7 85 78 e2 ff ff 	movq   $0x0,-0x1d88(%rbp)
    febc:	00 00 00 00 
    fec0:	48 8d 85 30 e0 ff ff 	lea    -0x1fd0(%rbp),%rax
    fec7:	48 05 98 00 00 00    	add    $0x98,%rax
    fecd:	48 89 85 80 e2 ff ff 	mov    %rax,-0x1d80(%rbp)
    fed4:	48 8d 85 30 e0 ff ff 	lea    -0x1fd0(%rbp),%rax
    fedb:	48 83 c0 50          	add    $0x50,%rax
    fedf:	48 89 85 88 e2 ff ff 	mov    %rax,-0x1d78(%rbp)
    fee6:	48 8d 85 30 e0 ff ff 	lea    -0x1fd0(%rbp),%rax
    feed:	48 83 c0 10          	add    $0x10,%rax
    fef1:	48 89 85 90 e2 ff ff 	mov    %rax,-0x1d70(%rbp)
    fef8:	48 8d 85 30 e0 ff ff 	lea    -0x1fd0(%rbp),%rax
    feff:	48 83 c0 10          	add    $0x10,%rax
    ff03:	48 89 85 98 e2 ff ff 	mov    %rax,-0x1d68(%rbp)
    ff0a:	48 8d 85 30 e0 ff ff 	lea    -0x1fd0(%rbp),%rax
    ff11:	48 83 c0 20          	add    $0x20,%rax
    ff15:	48 89 85 a0 e2 ff ff 	mov    %rax,-0x1d60(%rbp)
    ff1c:	48 8d 85 30 e0 ff ff 	lea    -0x1fd0(%rbp),%rax
    ff23:	48 83 c0 10          	add    $0x10,%rax
    ff27:	48 89 85 a8 e2 ff ff 	mov    %rax,-0x1d58(%rbp)
    ff2e:	48 8d 85 30 e0 ff ff 	lea    -0x1fd0(%rbp),%rax
    ff35:	48 83 c0 10          	add    $0x10,%rax
    ff39:	48 89 85 b0 e2 ff ff 	mov    %rax,-0x1d50(%rbp)
    ff40:	48 8d 85 30 e0 ff ff 	lea    -0x1fd0(%rbp),%rax
    ff47:	48 83 c0 20          	add    $0x20,%rax
    ff4b:	48 89 85 b8 e2 ff ff 	mov    %rax,-0x1d48(%rbp)
    ff52:	48 8d 85 30 e0 ff ff 	lea    -0x1fd0(%rbp),%rax
    ff59:	48 83 c0 10          	add    $0x10,%rax
    ff5d:	48 89 85 c0 e2 ff ff 	mov    %rax,-0x1d40(%rbp)
    ff64:	48 8d 85 30 e0 ff ff 	lea    -0x1fd0(%rbp),%rax
    ff6b:	48 83 c0 10          	add    $0x10,%rax
    ff6f:	48 89 85 c8 e2 ff ff 	mov    %rax,-0x1d38(%rbp)
    ff76:	48 8d 85 30 e0 ff ff 	lea    -0x1fd0(%rbp),%rax
    ff7d:	48 83 c0 20          	add    $0x20,%rax
    ff81:	48 89 85 d0 e2 ff ff 	mov    %rax,-0x1d30(%rbp)
    ff88:	48 c7 85 d8 e2 ff ff 	movq   $0x0,-0x1d28(%rbp)
    ff8f:	00 00 00 00 
    ff93:	48 8d 85 30 e0 ff ff 	lea    -0x1fd0(%rbp),%rax
    ff9a:	48 05 98 00 00 00    	add    $0x98,%rax
    ffa0:	48 89 85 e0 e2 ff ff 	mov    %rax,-0x1d20(%rbp)
    ffa7:	48 8d 85 30 e0 ff ff 	lea    -0x1fd0(%rbp),%rax
    ffae:	48 83 c0 50          	add    $0x50,%rax
    ffb2:	48 89 85 e8 e2 ff ff 	mov    %rax,-0x1d18(%rbp)
    ffb9:	48 8d 85 30 e0 ff ff 	lea    -0x1fd0(%rbp),%rax
    ffc0:	48 05 98 00 00 00    	add    $0x98,%rax
    ffc6:	48 89 85 f0 e2 ff ff 	mov    %rax,-0x1d10(%rbp)
    ffcd:	48 c7 85 f8 e2 ff ff 	movq   $0x0,-0x1d08(%rbp)
    ffd4:	00 00 00 00 
    ffd8:	48 8d 85 30 e0 ff ff 	lea    -0x1fd0(%rbp),%rax
    ffdf:	48 83 c0 10          	add    $0x10,%rax
    ffe3:	48 89 85 00 e3 ff ff 	mov    %rax,-0x1d00(%rbp)
    ffea:	48 c7 85 08 e3 ff ff 	movq   $0x0,-0x1cf8(%rbp)
    fff1:	00 00 00 00 
    fff5:	48 8d 85 30 e0 ff ff 	lea    -0x1fd0(%rbp),%rax
    fffc:	48 05 98 00 00 00    	add    $0x98,%rax
   10002:	48 89 85 10 e3 ff ff 	mov    %rax,-0x1cf0(%rbp)
   10009:	48 8d 85 30 e0 ff ff 	lea    -0x1fd0(%rbp),%rax
   10010:	48 83 c0 50          	add    $0x50,%rax
   10014:	48 89 85 18 e3 ff ff 	mov    %rax,-0x1ce8(%rbp)
   1001b:	c6 85 b4 da ff ff 02 	movb   $0x2,-0x254c(%rbp)
   10022:	48 8d 05 a7 e0 00 00 	lea    0xe0a7(%rip),%rax        # 1e0d0 <g_96>
   10029:	48 89 85 28 dc ff ff 	mov    %rax,-0x23d8(%rbp)
   10030:	c7 85 0c db ff ff 26 	movl   $0x281f0926,-0x24f4(%rbp)
   10037:	09 1f 28 
   1003a:	48 8d 05 ba e0 00 00 	lea    0xe0ba(%rip),%rax        # 1e0fb <g_140+0xb>
   10041:	48 89 85 30 dc ff ff 	mov    %rax,-0x23d0(%rbp)
   10048:	48 8d 05 95 e0 00 00 	lea    0xe095(%rip),%rax        # 1e0e4 <g_130>
   1004f:	48 89 85 20 dc ff ff 	mov    %rax,-0x23e0(%rbp)
   10056:	48 8d 05 f3 17 01 00 	lea    0x117f3(%rip),%rax        # 21850 <g_260+0x10>
   1005d:	48 89 85 38 dc ff ff 	mov    %rax,-0x23c8(%rbp)
   10064:	c6 85 b7 da ff ff 00 	movb   $0x0,-0x2549(%rbp)
   1006b:	48 8d 05 9a e0 00 00 	lea    0xe09a(%rip),%rax        # 1e10c <g_211>
   10072:	48 89 85 40 dc ff ff 	mov    %rax,-0x23c0(%rbp)
   10079:	48 c7 85 48 dc ff ff 	movq   $0x0,-0x23b8(%rbp)
   10080:	00 00 00 00 
   10084:	48 8d 85 a8 db ff ff 	lea    -0x2458(%rbp),%rax
   1008b:	48 89 85 50 dc ff ff 	mov    %rax,-0x23b0(%rbp)
   10092:	48 8d 05 ef e0 00 00 	lea    0xe0ef(%rip),%rax        # 1e188 <g_231+0x68>
   10099:	48 89 85 58 dc ff ff 	mov    %rax,-0x23a8(%rbp)
   100a0:	c7 85 ac da ff ff 00 	movl   $0x0,-0x2554(%rbp)
   100a7:	00 00 00 
   100aa:	e9 dc 5e 00 00       	jmpq   15f8b <func_60+0x6469>
   100af:	c7 85 08 db ff ff 02 	movl   $0x2,-0x24f8(%rbp)
   100b6:	00 00 00 
   100b9:	48 c7 85 b8 db ff ff 	movq   $0x0,-0x2448(%rbp)
   100c0:	00 00 00 00 
   100c4:	48 8d 05 05 e0 00 00 	lea    0xe005(%rip),%rax        # 1e0d0 <g_96>
   100cb:	48 89 85 60 dc ff ff 	mov    %rax,-0x23a0(%rbp)
   100d2:	c7 85 d0 da ff ff d1 	movl   $0xb025f3d1,-0x2530(%rbp)
   100d9:	f3 25 b0 
   100dc:	c7 85 10 df ff ff 00 	movl   $0x0,-0x20f0(%rbp)
   100e3:	00 00 00 
   100e6:	c7 85 14 df ff ff 00 	movl   $0x0,-0x20ec(%rbp)
   100ed:	00 00 00 
   100f0:	c7 85 18 df ff ff 5c 	movl   $0x563fec5c,-0x20e8(%rbp)
   100f7:	ec 3f 56 
   100fa:	c7 85 1c df ff ff 00 	movl   $0x0,-0x20e4(%rbp)
   10101:	00 00 00 
   10104:	c7 85 20 df ff ff 00 	movl   $0x0,-0x20e0(%rbp)
   1010b:	00 00 00 
   1010e:	c7 85 24 df ff ff 5c 	movl   $0x563fec5c,-0x20dc(%rbp)
   10115:	ec 3f 56 
   10118:	c7 85 28 df ff ff 00 	movl   $0x0,-0x20d8(%rbp)
   1011f:	00 00 00 
   10122:	c7 85 2c df ff ff 00 	movl   $0x0,-0x20d4(%rbp)
   10129:	00 00 00 
   1012c:	c7 85 30 df ff ff 00 	movl   $0x0,-0x20d0(%rbp)
   10133:	00 00 00 
   10136:	c7 85 d4 da ff ff b8 	movl   $0x45b5aab8,-0x252c(%rbp)
   1013d:	aa b5 45 
   10140:	48 c7 85 c0 db ff ff 	movq   $0x0,-0x2440(%rbp)
   10147:	00 00 00 00 
   1014b:	c6 85 b5 da ff ff e7 	movb   $0xe7,-0x254b(%rbp)
   10152:	48 8d 05 57 e0 00 00 	lea    0xe057(%rip),%rax        # 1e1b0 <g_271>
   10159:	48 89 85 c8 db ff ff 	mov    %rax,-0x2438(%rbp)
   10160:	48 8d 85 c8 db ff ff 	lea    -0x2438(%rbp),%rax
   10167:	48 89 85 d0 db ff ff 	mov    %rax,-0x2430(%rbp)
   1016e:	48 c7 85 68 dc ff ff 	movq   $0x0,-0x2398(%rbp)
   10175:	00 00 00 00 
   10179:	48 c7 85 70 dc ff ff 	movq   $0x0,-0x2390(%rbp)
   10180:	00 00 00 00 
   10184:	c7 85 d8 da ff ff 00 	movl   $0x0,-0x2528(%rbp)
   1018b:	00 00 00 
   1018e:	48 c7 85 d8 db ff ff 	movq   $0xfffffffffffffffa,-0x2428(%rbp)
   10195:	fa ff ff ff 
   10199:	c7 85 10 db ff ff 08 	movl   $0x8,-0x24f0(%rbp)
   101a0:	00 00 00 
   101a3:	48 8d 85 d8 db ff ff 	lea    -0x2428(%rbp),%rax
   101aa:	48 89 85 78 dc ff ff 	mov    %rax,-0x2388(%rbp)
   101b1:	48 b8 1c 0b a3 3e cd 	movabs $0xde0adcd3ea30b1c,%rax
   101b8:	ad e0 0d 
   101bb:	48 89 85 80 dc ff ff 	mov    %rax,-0x2380(%rbp)
   101c2:	48 8d 85 b5 da ff ff 	lea    -0x254b(%rbp),%rax
   101c9:	48 89 85 88 dc ff ff 	mov    %rax,-0x2378(%rbp)
   101d0:	48 8d 05 35 df 00 00 	lea    0xdf35(%rip),%rax        # 1e10c <g_211>
   101d7:	48 89 85 90 dc ff ff 	mov    %rax,-0x2370(%rbp)
   101de:	c7 85 04 db ff ff 00 	movl   $0x0,-0x24fc(%rbp)
   101e5:	00 00 00 
   101e8:	eb 1b                	jmp    10205 <func_60+0x6e3>
   101ea:	8b 85 04 db ff ff    	mov    -0x24fc(%rbp),%eax
   101f0:	48 98                	cltq   
   101f2:	48 c7 84 c5 78 de ff 	movq   $0x0,-0x2188(%rbp,%rax,8)
   101f9:	ff 00 00 00 00 
   101fe:	83 85 04 db ff ff 01 	addl   $0x1,-0x24fc(%rbp)
   10205:	83 bd 04 db ff ff 00 	cmpl   $0x0,-0x24fc(%rbp)
   1020c:	7e dc                	jle    101ea <func_60+0x6c8>
   1020e:	c7 85 04 db ff ff 00 	movl   $0x0,-0x24fc(%rbp)
   10215:	00 00 00 
   10218:	eb 46                	jmp    10260 <func_60+0x73e>
   1021a:	c7 85 00 db ff ff 00 	movl   $0x0,-0x2500(%rbp)
   10221:	00 00 00 
   10224:	eb 2a                	jmp    10250 <func_60+0x72e>
   10226:	8b 85 00 db ff ff    	mov    -0x2500(%rbp),%eax
   1022c:	48 98                	cltq   
   1022e:	8b 95 04 db ff ff    	mov    -0x24fc(%rbp),%edx
   10234:	48 63 d2             	movslq %edx,%rdx
   10237:	48 c1 e2 02          	shl    $0x2,%rdx
   1023b:	48 01 d0             	add    %rdx,%rax
   1023e:	c7 84 85 80 de ff ff 	movl   $0xffffffff,-0x2180(%rbp,%rax,4)
   10245:	ff ff ff ff 
   10249:	83 85 00 db ff ff 01 	addl   $0x1,-0x2500(%rbp)
   10250:	83 bd 00 db ff ff 03 	cmpl   $0x3,-0x2500(%rbp)
   10257:	7e cd                	jle    10226 <func_60+0x704>
   10259:	83 85 04 db ff ff 01 	addl   $0x1,-0x24fc(%rbp)
   10260:	83 bd 04 db ff ff 00 	cmpl   $0x0,-0x24fc(%rbp)
   10267:	7e b1                	jle    1021a <func_60+0x6f8>
   10269:	c7 85 04 db ff ff 00 	movl   $0x0,-0x24fc(%rbp)
   10270:	00 00 00 
   10273:	eb 49                	jmp    102be <func_60+0x79c>
   10275:	c7 85 00 db ff ff 00 	movl   $0x0,-0x2500(%rbp)
   1027c:	00 00 00 
   1027f:	eb 2d                	jmp    102ae <func_60+0x78c>
   10281:	8b 85 00 db ff ff    	mov    -0x2500(%rbp),%eax
   10287:	48 98                	cltq   
   10289:	8b 95 04 db ff ff    	mov    -0x24fc(%rbp),%edx
   1028f:	48 63 d2             	movslq %edx,%rdx
   10292:	48 01 d2             	add    %rdx,%rdx
   10295:	48 01 c2             	add    %rax,%rdx
   10298:	48 8d 85 78 de ff ff 	lea    -0x2188(%rbp),%rax
   1029f:	48 89 84 d5 70 df ff 	mov    %rax,-0x2090(%rbp,%rdx,8)
   102a6:	ff 
   102a7:	83 85 00 db ff ff 01 	addl   $0x1,-0x2500(%rbp)
   102ae:	83 bd 00 db ff ff 01 	cmpl   $0x1,-0x2500(%rbp)
   102b5:	7e ca                	jle    10281 <func_60+0x75f>
   102b7:	83 85 04 db ff ff 01 	addl   $0x1,-0x24fc(%rbp)
   102be:	83 bd 04 db ff ff 02 	cmpl   $0x2,-0x24fc(%rbp)
   102c5:	7e ae                	jle    10275 <func_60+0x753>
   102c7:	8b 85 ac da ff ff    	mov    -0x2554(%rbp),%eax
   102cd:	85 c0                	test   %eax,%eax
   102cf:	0f 85 33 01 00 00    	jne    10408 <func_60+0x8e6>
   102d5:	0f b7 05 04 de 00 00 	movzwl 0xde04(%rip),%eax        # 1e0e0 <g_125>
   102dc:	0f b7 d8             	movzwl %ax,%ebx
   102df:	48 8b 05 aa 14 01 00 	mov    0x114aa(%rip),%rax        # 21790 <g_44>
   102e6:	44 8b 20             	mov    (%rax),%r12d
   102e9:	8b 85 d0 da ff ff    	mov    -0x2530(%rbp),%eax
   102ef:	44 0f bf e8          	movswl %ax,%r13d
   102f3:	8b 85 a8 da ff ff    	mov    -0x2558(%rbp),%eax
   102f9:	41 89 c6             	mov    %eax,%r14d
   102fc:	48 8d 05 8d 14 01 00 	lea    0x1148d(%rip),%rax        # 21790 <g_44>
   10303:	48 39 85 a0 da ff ff 	cmp    %rax,-0x2560(%rbp)
   1030a:	0f 95 c0             	setne  %al
   1030d:	0f b6 d0             	movzbl %al,%edx
   10310:	48 8b 85 a8 db ff ff 	mov    -0x2458(%rbp),%rax
   10317:	48 31 d0             	xor    %rdx,%rax
   1031a:	48 89 85 a8 db ff ff 	mov    %rax,-0x2458(%rbp)
   10321:	48 8b 85 a8 db ff ff 	mov    -0x2458(%rbp),%rax
   10328:	0f b7 c0             	movzwl %ax,%eax
   1032b:	be f1 91 00 00       	mov    $0x91f1,%esi
   10330:	89 c7                	mov    %eax,%edi
   10332:	e8 06 8a ff ff       	callq  8d3d <safe_mul_func_uint16_t_u_u>
   10337:	0f b7 d0             	movzwl %ax,%edx
   1033a:	48 8b 85 60 dc ff ff 	mov    -0x23a0(%rbp),%rax
   10341:	48 89 10             	mov    %rdx,(%rax)
   10344:	48 8b 85 60 dc ff ff 	mov    -0x23a0(%rbp),%rax
   1034b:	48 8b 00             	mov    (%rax),%rax
   1034e:	4c 89 f2             	mov    %r14,%rdx
   10351:	48 31 c2             	xor    %rax,%rdx
   10354:	b8 3d 11 9f 80       	mov    $0x809f113d,%eax
   10359:	48 39 c2             	cmp    %rax,%rdx
   1035c:	0f 96 c0             	setbe  %al
   1035f:	0f b6 d0             	movzbl %al,%edx
   10362:	8b 85 c0 da ff ff    	mov    -0x2540(%rbp),%eax
   10368:	31 d0                	xor    %edx,%eax
   1036a:	89 85 c0 da ff ff    	mov    %eax,-0x2540(%rbp)
   10370:	8b 85 c0 da ff ff    	mov    -0x2540(%rbp),%eax
   10376:	85 c0                	test   %eax,%eax
   10378:	74 0a                	je     10384 <func_60+0x862>
   1037a:	8b 85 ac da ff ff    	mov    -0x2554(%rbp),%eax
   10380:	85 c0                	test   %eax,%eax
   10382:	75 09                	jne    1038d <func_60+0x86b>
   10384:	83 bd 08 db ff ff 00 	cmpl   $0x0,-0x24f8(%rbp)
   1038b:	74 07                	je     10394 <func_60+0x872>
   1038d:	b8 01 00 00 00       	mov    $0x1,%eax
   10392:	eb 05                	jmp    10399 <func_60+0x877>
   10394:	b8 00 00 00 00       	mov    $0x0,%eax
   10399:	89 c2                	mov    %eax,%edx
   1039b:	8b 85 c4 da ff ff    	mov    -0x253c(%rbp),%eax
   103a1:	39 c2                	cmp    %eax,%edx
   103a3:	0f 95 c0             	setne  %al
   103a6:	0f b6 c0             	movzbl %al,%eax
   103a9:	44 89 ee             	mov    %r13d,%esi
   103ac:	89 c7                	mov    %eax,%edi
   103ae:	e8 42 80 ff ff       	callq  83f5 <safe_mul_func_int16_t_s_s>
   103b3:	48 8b 05 b6 28 01 00 	mov    0x128b6(%rip),%rax        # 22c70 <g_100>
   103ba:	48 39 85 10 dc ff ff 	cmp    %rax,-0x23f0(%rbp)
   103c1:	0f 95 c0             	setne  %al
   103c4:	0f b6 c0             	movzbl %al,%eax
   103c7:	44 89 e2             	mov    %r12d,%edx
   103ca:	89 c6                	mov    %eax,%esi
   103cc:	48 8d 3d bd 13 01 00 	lea    0x113bd(%rip),%rdi        # 21790 <g_44>
   103d3:	e8 d6 5e 00 00       	callq  162ae <func_84>
   103d8:	48 8b 15 b1 13 01 00 	mov    0x113b1(%rip),%rdx        # 21790 <g_44>
   103df:	8b 12                	mov    (%rdx),%edx
   103e1:	39 d0                	cmp    %edx,%eax
   103e3:	0f 97 c0             	seta   %al
   103e6:	0f b6 c0             	movzbl %al,%eax
   103e9:	89 de                	mov    %ebx,%esi
   103eb:	89 c7                	mov    %eax,%edi
   103ed:	e8 af 7e ff ff       	callq  82a1 <safe_lshift_func_int8_t_s_s>
   103f2:	66 98                	cbtw   
   103f4:	0f b7 c0             	movzwl %ax,%eax
   103f7:	be 0e 00 00 00       	mov    $0xe,%esi
   103fc:	89 c7                	mov    %eax,%edi
   103fe:	e8 77 8a ff ff       	callq  8e7a <safe_rshift_func_uint16_t_u_u>
   10403:	66 85 c0             	test   %ax,%ax
   10406:	74 07                	je     1040f <func_60+0x8ed>
   10408:	b8 01 00 00 00       	mov    $0x1,%eax
   1040d:	eb 05                	jmp    10414 <func_60+0x8f2>
   1040f:	b8 00 00 00 00       	mov    $0x0,%eax
   10414:	be 1a fb c1 97       	mov    $0x97c1fb1a,%esi
   10419:	89 c7                	mov    %eax,%edi
   1041b:	e8 96 81 ff ff       	callq  85b6 <safe_add_func_int32_t_s_s>
   10420:	8b 85 a8 da ff ff    	mov    -0x2558(%rbp),%eax
   10426:	85 c0                	test   %eax,%eax
   10428:	0f 84 36 02 00 00    	je     10664 <func_60+0xb42>
   1042e:	c7 85 00 dc ff ff f7 	movl   $0xfffffff7,-0x2400(%rbp)
   10435:	ff ff ff 
   10438:	c7 85 9c db ff ff e4 	movl   $0x52693ce4,-0x2464(%rbp)
   1043f:	3c 69 52 
   10442:	48 8d 05 a7 dc 00 00 	lea    0xdca7(%rip),%rax        # 1e0f0 <g_140>
   10449:	48 89 85 08 dc ff ff 	mov    %rax,-0x23f8(%rbp)
   10450:	48 c7 85 58 de ff ff 	movq   $0x0,-0x21a8(%rbp)
   10457:	00 00 00 00 
   1045b:	48 8d 85 08 dc ff ff 	lea    -0x23f8(%rbp),%rax
   10462:	48 89 85 60 de ff ff 	mov    %rax,-0x21a0(%rbp)
   10469:	c7 85 e8 da ff ff 00 	movl   $0x0,-0x2518(%rbp)
   10470:	00 00 00 
   10473:	eb 1e                	jmp    10493 <func_60+0x971>
   10475:	8b 85 e8 da ff ff    	mov    -0x2518(%rbp),%eax
   1047b:	48 98                	cltq   
   1047d:	48 8d 95 00 dc ff ff 	lea    -0x2400(%rbp),%rdx
   10484:	48 89 94 c5 e0 f7 ff 	mov    %rdx,-0x820(%rbp,%rax,8)
   1048b:	ff 
   1048c:	83 85 e8 da ff ff 01 	addl   $0x1,-0x2518(%rbp)
   10493:	83 bd e8 da ff ff 02 	cmpl   $0x2,-0x2518(%rbp)
   1049a:	7e d9                	jle    10475 <func_60+0x953>
   1049c:	8b 85 9c db ff ff    	mov    -0x2464(%rbp),%eax
   104a2:	0f b6 c0             	movzbl %al,%eax
   104a5:	be 01 00 00 00       	mov    $0x1,%esi
   104aa:	89 c7                	mov    %eax,%edi
   104ac:	e8 dc 87 ff ff       	callq  8c8d <safe_rshift_func_uint8_t_u_s>
   104b1:	0f b6 c0             	movzbl %al,%eax
   104b4:	8b 95 ac da ff ff    	mov    -0x2554(%rbp),%edx
   104ba:	31 d0                	xor    %edx,%eax
   104bc:	0f b7 d0             	movzwl %ax,%edx
   104bf:	0f b7 05 1a dc 00 00 	movzwl 0xdc1a(%rip),%eax        # 1e0e0 <g_125>
   104c6:	0f b7 c0             	movzwl %ax,%eax
   104c9:	89 85 00 dc ff ff    	mov    %eax,-0x2400(%rbp)
   104cf:	8b 85 00 dc ff ff    	mov    -0x2400(%rbp),%eax
   104d5:	0f b7 c0             	movzwl %ax,%eax
   104d8:	89 d6                	mov    %edx,%esi
   104da:	89 c7                	mov    %eax,%edi
   104dc:	e8 7b 88 ff ff       	callq  8d5c <safe_mod_func_uint16_t_u_u>
   104e1:	48 8d 05 e8 12 01 00 	lea    0x112e8(%rip),%rax        # 217d0 <g_109+0x10>
   104e8:	48 89 05 19 13 01 00 	mov    %rax,0x11319(%rip)        # 21808 <g_108+0x8>
   104ef:	48 8b 95 08 dc ff ff 	mov    -0x23f8(%rbp),%rdx
   104f6:	48 8b 85 60 de ff ff 	mov    -0x21a0(%rbp),%rax
   104fd:	48 89 10             	mov    %rdx,(%rax)
   10500:	66 c7 05 f0 db 00 00 	movw   $0x0,0xdbf0(%rip)        # 1e0f9 <g_140+0x9>
   10507:	00 00 
   10509:	e9 e8 00 00 00       	jmpq   105f6 <func_60+0xad4>
   1050e:	48 c7 85 68 de ff ff 	movq   $0x0,-0x2198(%rbp)
   10515:	00 00 00 00 
   10519:	48 c7 85 70 de ff ff 	movq   $0x0,-0x2190(%rbp)
   10520:	00 00 00 00 
   10524:	c7 85 a0 db ff ff fa 	movl   $0xfffffffa,-0x2460(%rbp)
   1052b:	ff ff ff 
   1052e:	c7 85 a4 db ff ff 01 	movl   $0x1,-0x245c(%rbp)
   10535:	00 00 00 
   10538:	0f b6 05 c0 db 00 00 	movzbl 0xdbc0(%rip),%eax        # 1e0ff <g_140+0xf>
   1053f:	0f b7 15 ba db 00 00 	movzwl 0xdbba(%rip),%edx        # 1e100 <g_140+0x10>
   10546:	81 e2 ff 7f 00 00    	and    $0x7fff,%edx
   1054c:	48 c1 e2 08          	shl    $0x8,%rdx
   10550:	48 09 d0             	or     %rdx,%rax
   10553:	48 c1 e0 29          	shl    $0x29,%rax
   10557:	48 c1 f8 29          	sar    $0x29,%rax
   1055b:	85 c0                	test   %eax,%eax
   1055d:	74 5d                	je     105bc <func_60+0xa9a>
   1055f:	bf 90 ff ff ff       	mov    $0xffffff90,%edi
   10564:	e8 56 7c ff ff       	callq  81bf <safe_unary_minus_func_int8_t_s>
   10569:	84 c0                	test   %al,%al
   1056b:	75 48                	jne    105b5 <func_60+0xa93>
   1056d:	48 8d 05 04 27 01 00 	lea    0x12704(%rip),%rax        # 22c78 <g_123>
   10574:	48 89 05 f5 26 01 00 	mov    %rax,0x126f5(%rip)        # 22c70 <g_100>
   1057b:	48 8b 05 ee 26 01 00 	mov    0x126ee(%rip),%rax        # 22c70 <g_100>
   10582:	48 8d 15 57 db 00 00 	lea    0xdb57(%rip),%rdx        # 1e0e0 <g_125>
   10589:	48 39 d0             	cmp    %rdx,%rax
   1058c:	0f 95 c0             	setne  %al
   1058f:	0f b6 d8             	movzbl %al,%ebx
   10592:	be 06 00 00 00       	mov    $0x6,%esi
   10597:	bf 00 00 00 00       	mov    $0x0,%edi
   1059c:	e8 ab 86 ff ff       	callq  8c4c <safe_lshift_func_uint8_t_u_u>
   105a1:	84 c0                	test   %al,%al
   105a3:	74 07                	je     105ac <func_60+0xa8a>
   105a5:	b8 01 00 00 00       	mov    $0x1,%eax
   105aa:	eb 05                	jmp    105b1 <func_60+0xa8f>
   105ac:	b8 00 00 00 00       	mov    $0x0,%eax
   105b1:	39 d8                	cmp    %ebx,%eax
   105b3:	7e 07                	jle    105bc <func_60+0xa9a>
   105b5:	b8 01 00 00 00       	mov    $0x1,%eax
   105ba:	eb 05                	jmp    105c1 <func_60+0xa9f>
   105bc:	b8 00 00 00 00       	mov    $0x0,%eax
   105c1:	31 85 a4 db ff ff    	xor    %eax,-0x245c(%rbp)
   105c7:	c7 85 a4 db ff ff 00 	movl   $0x0,-0x245c(%rbp)
   105ce:	00 00 00 
   105d1:	83 bd a4 db ff ff 0b 	cmpl   $0xb,-0x245c(%rbp)
   105d8:	74 0b                	je     105e5 <func_60+0xac3>
   105da:	8b 85 a8 da ff ff    	mov    -0x2558(%rbp),%eax
   105e0:	e9 a3 5c 00 00       	jmpq   16288 <func_60+0x6766>
   105e5:	0f b7 05 0d db 00 00 	movzwl 0xdb0d(%rip),%eax        # 1e0f9 <g_140+0x9>
   105ec:	83 c0 01             	add    $0x1,%eax
   105ef:	66 89 05 03 db 00 00 	mov    %ax,0xdb03(%rip)        # 1e0f9 <g_140+0x9>
   105f6:	0f b7 05 fc da 00 00 	movzwl 0xdafc(%rip),%eax        # 1e0f9 <g_140+0x9>
   105fd:	66 83 f8 36          	cmp    $0x36,%ax
   10601:	0f 86 07 ff ff ff    	jbe    1050e <func_60+0x9ec>
   10607:	8b 85 c0 da ff ff    	mov    -0x2540(%rbp),%eax
   1060d:	85 c0                	test   %eax,%eax
   1060f:	74 2f                	je     10640 <func_60+0xb1e>
   10611:	8b 85 c0 da ff ff    	mov    -0x2540(%rbp),%eax
   10617:	0f be c0             	movsbl %al,%eax
   1061a:	89 c6                	mov    %eax,%esi
   1061c:	bf 00 00 00 00       	mov    $0x0,%edi
   10621:	e8 ec 7b ff ff       	callq  8212 <safe_mul_func_int8_t_s_s>
   10626:	0f be c0             	movsbl %al,%eax
   10629:	be 06 00 00 00       	mov    $0x6,%esi
   1062e:	89 c7                	mov    %eax,%edi
   10630:	e8 b9 7c ff ff       	callq  82ee <safe_lshift_func_int8_t_s_u>
   10635:	84 c0                	test   %al,%al
   10637:	74 07                	je     10640 <func_60+0xb1e>
   10639:	b8 01 00 00 00       	mov    $0x1,%eax
   1063e:	eb 05                	jmp    10645 <func_60+0xb23>
   10640:	b8 00 00 00 00       	mov    $0x0,%eax
   10645:	89 05 8d da 00 00    	mov    %eax,0xda8d(%rip)        # 1e0d8 <g_105>
   1064b:	8b 15 87 da 00 00    	mov    0xda87(%rip),%edx        # 1e0d8 <g_105>
   10651:	8b 85 30 df ff ff    	mov    -0x20d0(%rbp),%eax
   10657:	21 d0                	and    %edx,%eax
   10659:	89 85 30 df ff ff    	mov    %eax,-0x20d0(%rbp)
   1065f:	e9 57 58 00 00       	jmpq   15ebb <func_60+0x6399>
   10664:	c7 85 dc da ff ff fe 	movl   $0xfffffffe,-0x2524(%rbp)
   1066b:	ff ff ff 
   1066e:	c7 85 e0 da ff ff 40 	movl   $0x84563440,-0x2520(%rbp)
   10675:	34 56 84 
   10678:	c6 85 b6 da ff ff 00 	movb   $0x0,-0x254a(%rbp)
   1067f:	48 8d 85 90 de ff ff 	lea    -0x2170(%rbp),%rax
   10686:	48 83 c0 0c          	add    $0xc,%rax
   1068a:	48 89 85 e0 db ff ff 	mov    %rax,-0x2420(%rbp)
   10691:	48 8d 85 c0 db ff ff 	lea    -0x2440(%rbp),%rax
   10698:	48 89 85 00 f0 ff ff 	mov    %rax,-0x1000(%rbp)
   1069f:	48 8d 85 c0 db ff ff 	lea    -0x2440(%rbp),%rax
   106a6:	48 89 85 08 f0 ff ff 	mov    %rax,-0xff8(%rbp)
   106ad:	48 c7 85 10 f0 ff ff 	movq   $0x0,-0xff0(%rbp)
   106b4:	00 00 00 00 
   106b8:	48 c7 85 18 f0 ff ff 	movq   $0x0,-0xfe8(%rbp)
   106bf:	00 00 00 00 
   106c3:	48 c7 85 20 f0 ff ff 	movq   $0x0,-0xfe0(%rbp)
   106ca:	00 00 00 00 
   106ce:	48 8d 85 c0 db ff ff 	lea    -0x2440(%rbp),%rax
   106d5:	48 89 85 28 f0 ff ff 	mov    %rax,-0xfd8(%rbp)
   106dc:	48 8d 85 c0 db ff ff 	lea    -0x2440(%rbp),%rax
   106e3:	48 89 85 30 f0 ff ff 	mov    %rax,-0xfd0(%rbp)
   106ea:	48 8d 85 a8 db ff ff 	lea    -0x2458(%rbp),%rax
   106f1:	48 89 85 38 f0 ff ff 	mov    %rax,-0xfc8(%rbp)
   106f8:	48 8d 85 c0 db ff ff 	lea    -0x2440(%rbp),%rax
   106ff:	48 89 85 40 f0 ff ff 	mov    %rax,-0xfc0(%rbp)
   10706:	48 8d 85 c0 db ff ff 	lea    -0x2440(%rbp),%rax
   1070d:	48 89 85 48 f0 ff ff 	mov    %rax,-0xfb8(%rbp)
   10714:	48 8d 85 c0 db ff ff 	lea    -0x2440(%rbp),%rax
   1071b:	48 89 85 50 f0 ff ff 	mov    %rax,-0xfb0(%rbp)
   10722:	48 c7 85 58 f0 ff ff 	movq   $0x0,-0xfa8(%rbp)
   10729:	00 00 00 00 
   1072d:	48 8d 85 c0 db ff ff 	lea    -0x2440(%rbp),%rax
   10734:	48 89 85 60 f0 ff ff 	mov    %rax,-0xfa0(%rbp)
   1073b:	48 8d 85 c0 db ff ff 	lea    -0x2440(%rbp),%rax
   10742:	48 89 85 68 f0 ff ff 	mov    %rax,-0xf98(%rbp)
   10749:	48 8d 85 c0 db ff ff 	lea    -0x2440(%rbp),%rax
   10750:	48 89 85 70 f0 ff ff 	mov    %rax,-0xf90(%rbp)
   10757:	48 8d 85 c0 db ff ff 	lea    -0x2440(%rbp),%rax
   1075e:	48 89 85 78 f0 ff ff 	mov    %rax,-0xf88(%rbp)
   10765:	48 8d 85 a8 db ff ff 	lea    -0x2458(%rbp),%rax
   1076c:	48 89 85 80 f0 ff ff 	mov    %rax,-0xf80(%rbp)
   10773:	48 8d 85 c0 db ff ff 	lea    -0x2440(%rbp),%rax
   1077a:	48 89 85 88 f0 ff ff 	mov    %rax,-0xf78(%rbp)
   10781:	48 8d 85 a8 db ff ff 	lea    -0x2458(%rbp),%rax
   10788:	48 89 85 90 f0 ff ff 	mov    %rax,-0xf70(%rbp)
   1078f:	48 8d 85 a8 db ff ff 	lea    -0x2458(%rbp),%rax
   10796:	48 89 85 98 f0 ff ff 	mov    %rax,-0xf68(%rbp)
   1079d:	48 8d 85 c0 db ff ff 	lea    -0x2440(%rbp),%rax
   107a4:	48 89 85 a0 f0 ff ff 	mov    %rax,-0xf60(%rbp)
   107ab:	48 8d 85 a8 db ff ff 	lea    -0x2458(%rbp),%rax
   107b2:	48 89 85 a8 f0 ff ff 	mov    %rax,-0xf58(%rbp)
   107b9:	48 8d 85 a8 db ff ff 	lea    -0x2458(%rbp),%rax
   107c0:	48 89 85 b0 f0 ff ff 	mov    %rax,-0xf50(%rbp)
   107c7:	48 8d 85 c0 db ff ff 	lea    -0x2440(%rbp),%rax
   107ce:	48 89 85 b8 f0 ff ff 	mov    %rax,-0xf48(%rbp)
   107d5:	48 8d 85 c0 db ff ff 	lea    -0x2440(%rbp),%rax
   107dc:	48 89 85 c0 f0 ff ff 	mov    %rax,-0xf40(%rbp)
   107e3:	48 8d 85 a8 db ff ff 	lea    -0x2458(%rbp),%rax
   107ea:	48 89 85 c8 f0 ff ff 	mov    %rax,-0xf38(%rbp)
   107f1:	48 8d 85 c0 db ff ff 	lea    -0x2440(%rbp),%rax
   107f8:	48 89 85 d0 f0 ff ff 	mov    %rax,-0xf30(%rbp)
   107ff:	48 8d 85 c0 db ff ff 	lea    -0x2440(%rbp),%rax
   10806:	48 89 85 d8 f0 ff ff 	mov    %rax,-0xf28(%rbp)
   1080d:	48 8d 85 c0 db ff ff 	lea    -0x2440(%rbp),%rax
   10814:	48 89 85 e0 f0 ff ff 	mov    %rax,-0xf20(%rbp)
   1081b:	48 8d 85 c0 db ff ff 	lea    -0x2440(%rbp),%rax
   10822:	48 89 85 e8 f0 ff ff 	mov    %rax,-0xf18(%rbp)
   10829:	48 8d 85 c0 db ff ff 	lea    -0x2440(%rbp),%rax
   10830:	48 89 85 f0 f0 ff ff 	mov    %rax,-0xf10(%rbp)
   10837:	48 8d 85 a8 db ff ff 	lea    -0x2458(%rbp),%rax
   1083e:	48 89 85 f8 f0 ff ff 	mov    %rax,-0xf08(%rbp)
   10845:	48 c7 85 00 f1 ff ff 	movq   $0x0,-0xf00(%rbp)
   1084c:	00 00 00 00 
   10850:	48 8d 85 c0 db ff ff 	lea    -0x2440(%rbp),%rax
   10857:	48 89 85 08 f1 ff ff 	mov    %rax,-0xef8(%rbp)
   1085e:	48 8d 85 a8 db ff ff 	lea    -0x2458(%rbp),%rax
   10865:	48 89 85 10 f1 ff ff 	mov    %rax,-0xef0(%rbp)
   1086c:	48 c7 85 18 f1 ff ff 	movq   $0x0,-0xee8(%rbp)
   10873:	00 00 00 00 
   10877:	48 8d 85 a8 db ff ff 	lea    -0x2458(%rbp),%rax
   1087e:	48 89 85 20 f1 ff ff 	mov    %rax,-0xee0(%rbp)
   10885:	48 8d 85 c0 db ff ff 	lea    -0x2440(%rbp),%rax
   1088c:	48 89 85 28 f1 ff ff 	mov    %rax,-0xed8(%rbp)
   10893:	48 8d 85 a8 db ff ff 	lea    -0x2458(%rbp),%rax
   1089a:	48 89 85 30 f1 ff ff 	mov    %rax,-0xed0(%rbp)
   108a1:	48 8d 85 c0 db ff ff 	lea    -0x2440(%rbp),%rax
   108a8:	48 89 85 38 f1 ff ff 	mov    %rax,-0xec8(%rbp)
   108af:	48 8d 85 a8 db ff ff 	lea    -0x2458(%rbp),%rax
   108b6:	48 89 85 40 f1 ff ff 	mov    %rax,-0xec0(%rbp)
   108bd:	48 8d 85 c0 db ff ff 	lea    -0x2440(%rbp),%rax
   108c4:	48 89 85 48 f1 ff ff 	mov    %rax,-0xeb8(%rbp)
   108cb:	48 c7 85 50 f1 ff ff 	movq   $0x0,-0xeb0(%rbp)
   108d2:	00 00 00 00 
   108d6:	48 8d 85 a8 db ff ff 	lea    -0x2458(%rbp),%rax
   108dd:	48 89 85 58 f1 ff ff 	mov    %rax,-0xea8(%rbp)
   108e4:	48 8d 85 a8 db ff ff 	lea    -0x2458(%rbp),%rax
   108eb:	48 89 85 60 f1 ff ff 	mov    %rax,-0xea0(%rbp)
   108f2:	48 c7 85 68 f1 ff ff 	movq   $0x0,-0xe98(%rbp)
   108f9:	00 00 00 00 
   108fd:	48 8d 85 c0 db ff ff 	lea    -0x2440(%rbp),%rax
   10904:	48 89 85 70 f1 ff ff 	mov    %rax,-0xe90(%rbp)
   1090b:	48 8d 85 c0 db ff ff 	lea    -0x2440(%rbp),%rax
   10912:	48 89 85 78 f1 ff ff 	mov    %rax,-0xe88(%rbp)
   10919:	48 8d 85 c0 db ff ff 	lea    -0x2440(%rbp),%rax
   10920:	48 89 85 80 f1 ff ff 	mov    %rax,-0xe80(%rbp)
   10927:	48 8d 85 c0 db ff ff 	lea    -0x2440(%rbp),%rax
   1092e:	48 89 85 88 f1 ff ff 	mov    %rax,-0xe78(%rbp)
   10935:	48 8d 85 a8 db ff ff 	lea    -0x2458(%rbp),%rax
   1093c:	48 89 85 90 f1 ff ff 	mov    %rax,-0xe70(%rbp)
   10943:	48 8d 85 c0 db ff ff 	lea    -0x2440(%rbp),%rax
   1094a:	48 89 85 98 f1 ff ff 	mov    %rax,-0xe68(%rbp)
   10951:	48 c7 85 a0 f1 ff ff 	movq   $0x0,-0xe60(%rbp)
   10958:	00 00 00 00 
   1095c:	48 8d 85 a8 db ff ff 	lea    -0x2458(%rbp),%rax
   10963:	48 89 85 a8 f1 ff ff 	mov    %rax,-0xe58(%rbp)
   1096a:	48 8d 85 c0 db ff ff 	lea    -0x2440(%rbp),%rax
   10971:	48 89 85 b0 f1 ff ff 	mov    %rax,-0xe50(%rbp)
   10978:	48 8d 85 c0 db ff ff 	lea    -0x2440(%rbp),%rax
   1097f:	48 89 85 b8 f1 ff ff 	mov    %rax,-0xe48(%rbp)
   10986:	48 8d 85 c0 db ff ff 	lea    -0x2440(%rbp),%rax
   1098d:	48 89 85 c0 f1 ff ff 	mov    %rax,-0xe40(%rbp)
   10994:	48 8d 85 c0 db ff ff 	lea    -0x2440(%rbp),%rax
   1099b:	48 89 85 c8 f1 ff ff 	mov    %rax,-0xe38(%rbp)
   109a2:	48 c7 85 d0 f1 ff ff 	movq   $0x0,-0xe30(%rbp)
   109a9:	00 00 00 00 
   109ad:	48 8d 85 c0 db ff ff 	lea    -0x2440(%rbp),%rax
   109b4:	48 89 85 d8 f1 ff ff 	mov    %rax,-0xe28(%rbp)
   109bb:	48 8d 85 c0 db ff ff 	lea    -0x2440(%rbp),%rax
   109c2:	48 89 85 e0 f1 ff ff 	mov    %rax,-0xe20(%rbp)
   109c9:	48 8d 85 c0 db ff ff 	lea    -0x2440(%rbp),%rax
   109d0:	48 89 85 e8 f1 ff ff 	mov    %rax,-0xe18(%rbp)
   109d7:	48 8d 85 c0 db ff ff 	lea    -0x2440(%rbp),%rax
   109de:	48 89 85 f0 f1 ff ff 	mov    %rax,-0xe10(%rbp)
   109e5:	48 8d 85 a8 db ff ff 	lea    -0x2458(%rbp),%rax
   109ec:	48 89 85 f8 f1 ff ff 	mov    %rax,-0xe08(%rbp)
   109f3:	48 8d 85 c0 db ff ff 	lea    -0x2440(%rbp),%rax
   109fa:	48 89 85 00 f2 ff ff 	mov    %rax,-0xe00(%rbp)
   10a01:	48 8d 85 a8 db ff ff 	lea    -0x2458(%rbp),%rax
   10a08:	48 89 85 08 f2 ff ff 	mov    %rax,-0xdf8(%rbp)
   10a0f:	48 c7 85 10 f2 ff ff 	movq   $0x0,-0xdf0(%rbp)
   10a16:	00 00 00 00 
   10a1a:	48 8d 85 c0 db ff ff 	lea    -0x2440(%rbp),%rax
   10a21:	48 89 85 18 f2 ff ff 	mov    %rax,-0xde8(%rbp)
   10a28:	48 8d 85 c0 db ff ff 	lea    -0x2440(%rbp),%rax
   10a2f:	48 89 85 20 f2 ff ff 	mov    %rax,-0xde0(%rbp)
   10a36:	48 8d 85 a8 db ff ff 	lea    -0x2458(%rbp),%rax
   10a3d:	48 89 85 28 f2 ff ff 	mov    %rax,-0xdd8(%rbp)
   10a44:	48 8d 85 c0 db ff ff 	lea    -0x2440(%rbp),%rax
   10a4b:	48 89 85 30 f2 ff ff 	mov    %rax,-0xdd0(%rbp)
   10a52:	48 8d 85 c0 db ff ff 	lea    -0x2440(%rbp),%rax
   10a59:	48 89 85 38 f2 ff ff 	mov    %rax,-0xdc8(%rbp)
   10a60:	48 c7 85 40 f2 ff ff 	movq   $0x0,-0xdc0(%rbp)
   10a67:	00 00 00 00 
   10a6b:	48 8d 85 a8 db ff ff 	lea    -0x2458(%rbp),%rax
   10a72:	48 89 85 48 f2 ff ff 	mov    %rax,-0xdb8(%rbp)
   10a79:	48 8d 85 a8 db ff ff 	lea    -0x2458(%rbp),%rax
   10a80:	48 89 85 50 f2 ff ff 	mov    %rax,-0xdb0(%rbp)
   10a87:	48 8d 85 a8 db ff ff 	lea    -0x2458(%rbp),%rax
   10a8e:	48 89 85 58 f2 ff ff 	mov    %rax,-0xda8(%rbp)
   10a95:	48 8d 85 c0 db ff ff 	lea    -0x2440(%rbp),%rax
   10a9c:	48 89 85 60 f2 ff ff 	mov    %rax,-0xda0(%rbp)
   10aa3:	48 c7 85 68 f2 ff ff 	movq   $0x0,-0xd98(%rbp)
   10aaa:	00 00 00 00 
   10aae:	48 8d 85 c0 db ff ff 	lea    -0x2440(%rbp),%rax
   10ab5:	48 89 85 70 f2 ff ff 	mov    %rax,-0xd90(%rbp)
   10abc:	48 8d 85 c0 db ff ff 	lea    -0x2440(%rbp),%rax
   10ac3:	48 89 85 78 f2 ff ff 	mov    %rax,-0xd88(%rbp)
   10aca:	48 8d 85 a8 db ff ff 	lea    -0x2458(%rbp),%rax
   10ad1:	48 89 85 80 f2 ff ff 	mov    %rax,-0xd80(%rbp)
   10ad8:	48 8d 85 c0 db ff ff 	lea    -0x2440(%rbp),%rax
   10adf:	48 89 85 88 f2 ff ff 	mov    %rax,-0xd78(%rbp)
   10ae6:	48 c7 85 90 f2 ff ff 	movq   $0x0,-0xd70(%rbp)
   10aed:	00 00 00 00 
   10af1:	48 8d 85 c0 db ff ff 	lea    -0x2440(%rbp),%rax
   10af8:	48 89 85 98 f2 ff ff 	mov    %rax,-0xd68(%rbp)
   10aff:	48 8d 85 a8 db ff ff 	lea    -0x2458(%rbp),%rax
   10b06:	48 89 85 a0 f2 ff ff 	mov    %rax,-0xd60(%rbp)
   10b0d:	48 8d 85 c0 db ff ff 	lea    -0x2440(%rbp),%rax
   10b14:	48 89 85 a8 f2 ff ff 	mov    %rax,-0xd58(%rbp)
   10b1b:	48 8d 85 a8 db ff ff 	lea    -0x2458(%rbp),%rax
   10b22:	48 89 85 b0 f2 ff ff 	mov    %rax,-0xd50(%rbp)
   10b29:	48 c7 85 b8 f2 ff ff 	movq   $0x0,-0xd48(%rbp)
   10b30:	00 00 00 00 
   10b34:	48 8d 85 a8 db ff ff 	lea    -0x2458(%rbp),%rax
   10b3b:	48 89 85 c0 f2 ff ff 	mov    %rax,-0xd40(%rbp)
   10b42:	48 8d 85 c0 db ff ff 	lea    -0x2440(%rbp),%rax
   10b49:	48 89 85 c8 f2 ff ff 	mov    %rax,-0xd38(%rbp)
   10b50:	48 8d 85 a8 db ff ff 	lea    -0x2458(%rbp),%rax
   10b57:	48 89 85 d0 f2 ff ff 	mov    %rax,-0xd30(%rbp)
   10b5e:	48 8d 85 c0 db ff ff 	lea    -0x2440(%rbp),%rax
   10b65:	48 89 85 d8 f2 ff ff 	mov    %rax,-0xd28(%rbp)
   10b6c:	48 c7 85 e0 f2 ff ff 	movq   $0x0,-0xd20(%rbp)
   10b73:	00 00 00 00 
   10b77:	48 8d 85 c0 db ff ff 	lea    -0x2440(%rbp),%rax
   10b7e:	48 89 85 e8 f2 ff ff 	mov    %rax,-0xd18(%rbp)
   10b85:	48 8d 85 c0 db ff ff 	lea    -0x2440(%rbp),%rax
   10b8c:	48 89 85 f0 f2 ff ff 	mov    %rax,-0xd10(%rbp)
   10b93:	48 8d 85 c0 db ff ff 	lea    -0x2440(%rbp),%rax
   10b9a:	48 89 85 f8 f2 ff ff 	mov    %rax,-0xd08(%rbp)
   10ba1:	48 8d 85 c0 db ff ff 	lea    -0x2440(%rbp),%rax
   10ba8:	48 89 85 00 f3 ff ff 	mov    %rax,-0xd00(%rbp)
   10baf:	48 8d 85 a8 db ff ff 	lea    -0x2458(%rbp),%rax
   10bb6:	48 89 85 08 f3 ff ff 	mov    %rax,-0xcf8(%rbp)
   10bbd:	48 8d 85 c0 db ff ff 	lea    -0x2440(%rbp),%rax
   10bc4:	48 89 85 10 f3 ff ff 	mov    %rax,-0xcf0(%rbp)
   10bcb:	48 8d 85 c0 db ff ff 	lea    -0x2440(%rbp),%rax
   10bd2:	48 89 85 18 f3 ff ff 	mov    %rax,-0xce8(%rbp)
   10bd9:	48 8d 85 c0 db ff ff 	lea    -0x2440(%rbp),%rax
   10be0:	48 89 85 20 f3 ff ff 	mov    %rax,-0xce0(%rbp)
   10be7:	48 8d 85 c0 db ff ff 	lea    -0x2440(%rbp),%rax
   10bee:	48 89 85 28 f3 ff ff 	mov    %rax,-0xcd8(%rbp)
   10bf5:	48 8d 85 a8 db ff ff 	lea    -0x2458(%rbp),%rax
   10bfc:	48 89 85 30 f3 ff ff 	mov    %rax,-0xcd0(%rbp)
   10c03:	48 8d 85 a8 db ff ff 	lea    -0x2458(%rbp),%rax
   10c0a:	48 89 85 38 f3 ff ff 	mov    %rax,-0xcc8(%rbp)
   10c11:	48 8d 85 c0 db ff ff 	lea    -0x2440(%rbp),%rax
   10c18:	48 89 85 40 f3 ff ff 	mov    %rax,-0xcc0(%rbp)
   10c1f:	48 c7 85 48 f3 ff ff 	movq   $0x0,-0xcb8(%rbp)
   10c26:	00 00 00 00 
   10c2a:	48 8d 85 a8 db ff ff 	lea    -0x2458(%rbp),%rax
   10c31:	48 89 85 50 f3 ff ff 	mov    %rax,-0xcb0(%rbp)
   10c38:	48 8d 85 a8 db ff ff 	lea    -0x2458(%rbp),%rax
   10c3f:	48 89 85 58 f3 ff ff 	mov    %rax,-0xca8(%rbp)
   10c46:	48 8d 85 a8 db ff ff 	lea    -0x2458(%rbp),%rax
   10c4d:	48 89 85 60 f3 ff ff 	mov    %rax,-0xca0(%rbp)
   10c54:	48 8d 85 c0 db ff ff 	lea    -0x2440(%rbp),%rax
   10c5b:	48 89 85 68 f3 ff ff 	mov    %rax,-0xc98(%rbp)
   10c62:	48 8d 85 c0 db ff ff 	lea    -0x2440(%rbp),%rax
   10c69:	48 89 85 70 f3 ff ff 	mov    %rax,-0xc90(%rbp)
   10c70:	48 8d 85 a8 db ff ff 	lea    -0x2458(%rbp),%rax
   10c77:	48 89 85 78 f3 ff ff 	mov    %rax,-0xc88(%rbp)
   10c7e:	48 8d 85 c0 db ff ff 	lea    -0x2440(%rbp),%rax
   10c85:	48 89 85 80 f3 ff ff 	mov    %rax,-0xc80(%rbp)
   10c8c:	48 8d 85 a8 db ff ff 	lea    -0x2458(%rbp),%rax
   10c93:	48 89 85 88 f3 ff ff 	mov    %rax,-0xc78(%rbp)
   10c9a:	48 8d 85 c0 db ff ff 	lea    -0x2440(%rbp),%rax
   10ca1:	48 89 85 90 f3 ff ff 	mov    %rax,-0xc70(%rbp)
   10ca8:	48 8d 85 c0 db ff ff 	lea    -0x2440(%rbp),%rax
   10caf:	48 89 85 98 f3 ff ff 	mov    %rax,-0xc68(%rbp)
   10cb6:	48 8d 85 c0 db ff ff 	lea    -0x2440(%rbp),%rax
   10cbd:	48 89 85 a0 f3 ff ff 	mov    %rax,-0xc60(%rbp)
   10cc4:	48 8d 85 c0 db ff ff 	lea    -0x2440(%rbp),%rax
   10ccb:	48 89 85 a8 f3 ff ff 	mov    %rax,-0xc58(%rbp)
   10cd2:	48 8d 85 c0 db ff ff 	lea    -0x2440(%rbp),%rax
   10cd9:	48 89 85 b0 f3 ff ff 	mov    %rax,-0xc50(%rbp)
   10ce0:	48 8d 85 a8 db ff ff 	lea    -0x2458(%rbp),%rax
   10ce7:	48 89 85 b8 f3 ff ff 	mov    %rax,-0xc48(%rbp)
   10cee:	48 c7 85 c0 f3 ff ff 	movq   $0x0,-0xc40(%rbp)
   10cf5:	00 00 00 00 
   10cf9:	48 8d 85 c0 db ff ff 	lea    -0x2440(%rbp),%rax
   10d00:	48 89 85 c8 f3 ff ff 	mov    %rax,-0xc38(%rbp)
   10d07:	48 c7 85 d0 f3 ff ff 	movq   $0x0,-0xc30(%rbp)
   10d0e:	00 00 00 00 
   10d12:	48 8d 85 a8 db ff ff 	lea    -0x2458(%rbp),%rax
   10d19:	48 89 85 d8 f3 ff ff 	mov    %rax,-0xc28(%rbp)
   10d20:	48 8d 85 c0 db ff ff 	lea    -0x2440(%rbp),%rax
   10d27:	48 89 85 e0 f3 ff ff 	mov    %rax,-0xc20(%rbp)
   10d2e:	48 8d 85 c0 db ff ff 	lea    -0x2440(%rbp),%rax
   10d35:	48 89 85 e8 f3 ff ff 	mov    %rax,-0xc18(%rbp)
   10d3c:	48 c7 85 f0 f3 ff ff 	movq   $0x0,-0xc10(%rbp)
   10d43:	00 00 00 00 
   10d47:	48 8d 85 c0 db ff ff 	lea    -0x2440(%rbp),%rax
   10d4e:	48 89 85 f8 f3 ff ff 	mov    %rax,-0xc08(%rbp)
   10d55:	48 8d 85 c0 db ff ff 	lea    -0x2440(%rbp),%rax
   10d5c:	48 89 85 00 f4 ff ff 	mov    %rax,-0xc00(%rbp)
   10d63:	48 8d 85 a8 db ff ff 	lea    -0x2458(%rbp),%rax
   10d6a:	48 89 85 08 f4 ff ff 	mov    %rax,-0xbf8(%rbp)
   10d71:	48 8d 85 a8 db ff ff 	lea    -0x2458(%rbp),%rax
   10d78:	48 89 85 10 f4 ff ff 	mov    %rax,-0xbf0(%rbp)
   10d7f:	48 8d 85 a8 db ff ff 	lea    -0x2458(%rbp),%rax
   10d86:	48 89 85 18 f4 ff ff 	mov    %rax,-0xbe8(%rbp)
   10d8d:	48 8d 85 c0 db ff ff 	lea    -0x2440(%rbp),%rax
   10d94:	48 89 85 20 f4 ff ff 	mov    %rax,-0xbe0(%rbp)
   10d9b:	48 8d 85 c0 db ff ff 	lea    -0x2440(%rbp),%rax
   10da2:	48 89 85 28 f4 ff ff 	mov    %rax,-0xbd8(%rbp)
   10da9:	48 8d 85 c0 db ff ff 	lea    -0x2440(%rbp),%rax
   10db0:	48 89 85 30 f4 ff ff 	mov    %rax,-0xbd0(%rbp)
   10db7:	48 8d 85 a8 db ff ff 	lea    -0x2458(%rbp),%rax
   10dbe:	48 89 85 38 f4 ff ff 	mov    %rax,-0xbc8(%rbp)
   10dc5:	48 8d 85 c0 db ff ff 	lea    -0x2440(%rbp),%rax
   10dcc:	48 89 85 40 f4 ff ff 	mov    %rax,-0xbc0(%rbp)
   10dd3:	48 c7 85 48 f4 ff ff 	movq   $0x0,-0xbb8(%rbp)
   10dda:	00 00 00 00 
   10dde:	48 8d 85 c0 db ff ff 	lea    -0x2440(%rbp),%rax
   10de5:	48 89 85 50 f4 ff ff 	mov    %rax,-0xbb0(%rbp)
   10dec:	48 8d 85 a8 db ff ff 	lea    -0x2458(%rbp),%rax
   10df3:	48 89 85 58 f4 ff ff 	mov    %rax,-0xba8(%rbp)
   10dfa:	48 8d 85 a8 db ff ff 	lea    -0x2458(%rbp),%rax
   10e01:	48 89 85 60 f4 ff ff 	mov    %rax,-0xba0(%rbp)
   10e08:	48 8d 85 c0 db ff ff 	lea    -0x2440(%rbp),%rax
   10e0f:	48 89 85 68 f4 ff ff 	mov    %rax,-0xb98(%rbp)
   10e16:	48 8d 85 c0 db ff ff 	lea    -0x2440(%rbp),%rax
   10e1d:	48 89 85 70 f4 ff ff 	mov    %rax,-0xb90(%rbp)
   10e24:	48 8d 85 c0 db ff ff 	lea    -0x2440(%rbp),%rax
   10e2b:	48 89 85 78 f4 ff ff 	mov    %rax,-0xb88(%rbp)
   10e32:	48 8d 85 c0 db ff ff 	lea    -0x2440(%rbp),%rax
   10e39:	48 89 85 80 f4 ff ff 	mov    %rax,-0xb80(%rbp)
   10e40:	48 8d 85 a8 db ff ff 	lea    -0x2458(%rbp),%rax
   10e47:	48 89 85 88 f4 ff ff 	mov    %rax,-0xb78(%rbp)
   10e4e:	48 8d 85 c0 db ff ff 	lea    -0x2440(%rbp),%rax
   10e55:	48 89 85 90 f4 ff ff 	mov    %rax,-0xb70(%rbp)
   10e5c:	48 8d 85 c0 db ff ff 	lea    -0x2440(%rbp),%rax
   10e63:	48 89 85 98 f4 ff ff 	mov    %rax,-0xb68(%rbp)
   10e6a:	48 8d 85 c0 db ff ff 	lea    -0x2440(%rbp),%rax
   10e71:	48 89 85 a0 f4 ff ff 	mov    %rax,-0xb60(%rbp)
   10e78:	48 8d 85 c0 db ff ff 	lea    -0x2440(%rbp),%rax
   10e7f:	48 89 85 a8 f4 ff ff 	mov    %rax,-0xb58(%rbp)
   10e86:	48 8d 85 c0 db ff ff 	lea    -0x2440(%rbp),%rax
   10e8d:	48 89 85 b0 f4 ff ff 	mov    %rax,-0xb50(%rbp)
   10e94:	48 8d 85 c0 db ff ff 	lea    -0x2440(%rbp),%rax
   10e9b:	48 89 85 b8 f4 ff ff 	mov    %rax,-0xb48(%rbp)
   10ea2:	48 8d 85 a8 db ff ff 	lea    -0x2458(%rbp),%rax
   10ea9:	48 89 85 c0 f4 ff ff 	mov    %rax,-0xb40(%rbp)
   10eb0:	48 8d 85 c0 db ff ff 	lea    -0x2440(%rbp),%rax
   10eb7:	48 89 85 c8 f4 ff ff 	mov    %rax,-0xb38(%rbp)
   10ebe:	48 8d 85 a8 db ff ff 	lea    -0x2458(%rbp),%rax
   10ec5:	48 89 85 d0 f4 ff ff 	mov    %rax,-0xb30(%rbp)
   10ecc:	48 c7 85 d8 f4 ff ff 	movq   $0x0,-0xb28(%rbp)
   10ed3:	00 00 00 00 
   10ed7:	48 c7 85 e0 f4 ff ff 	movq   $0x0,-0xb20(%rbp)
   10ede:	00 00 00 00 
   10ee2:	48 8d 85 c0 db ff ff 	lea    -0x2440(%rbp),%rax
   10ee9:	48 89 85 e8 f4 ff ff 	mov    %rax,-0xb18(%rbp)
   10ef0:	48 8d 85 c0 db ff ff 	lea    -0x2440(%rbp),%rax
   10ef7:	48 89 85 f0 f4 ff ff 	mov    %rax,-0xb10(%rbp)
   10efe:	48 8d 85 c0 db ff ff 	lea    -0x2440(%rbp),%rax
   10f05:	48 89 85 f8 f4 ff ff 	mov    %rax,-0xb08(%rbp)
   10f0c:	48 8d 85 c0 db ff ff 	lea    -0x2440(%rbp),%rax
   10f13:	48 89 85 00 f5 ff ff 	mov    %rax,-0xb00(%rbp)
   10f1a:	48 8d 85 c0 db ff ff 	lea    -0x2440(%rbp),%rax
   10f21:	48 89 85 08 f5 ff ff 	mov    %rax,-0xaf8(%rbp)
   10f28:	48 8d 85 a8 db ff ff 	lea    -0x2458(%rbp),%rax
   10f2f:	48 89 85 10 f5 ff ff 	mov    %rax,-0xaf0(%rbp)
   10f36:	48 8d 85 c0 db ff ff 	lea    -0x2440(%rbp),%rax
   10f3d:	48 89 85 18 f5 ff ff 	mov    %rax,-0xae8(%rbp)
   10f44:	48 8d 85 c0 db ff ff 	lea    -0x2440(%rbp),%rax
   10f4b:	48 89 85 20 f5 ff ff 	mov    %rax,-0xae0(%rbp)
   10f52:	48 c7 85 28 f5 ff ff 	movq   $0x0,-0xad8(%rbp)
   10f59:	00 00 00 00 
   10f5d:	48 8d 85 c0 db ff ff 	lea    -0x2440(%rbp),%rax
   10f64:	48 89 85 30 f5 ff ff 	mov    %rax,-0xad0(%rbp)
   10f6b:	48 8d 85 a8 db ff ff 	lea    -0x2458(%rbp),%rax
   10f72:	48 89 85 38 f5 ff ff 	mov    %rax,-0xac8(%rbp)
   10f79:	48 8d 85 a8 db ff ff 	lea    -0x2458(%rbp),%rax
   10f80:	48 89 85 40 f5 ff ff 	mov    %rax,-0xac0(%rbp)
   10f87:	48 8d 85 a8 db ff ff 	lea    -0x2458(%rbp),%rax
   10f8e:	48 89 85 48 f5 ff ff 	mov    %rax,-0xab8(%rbp)
   10f95:	48 8d 85 a8 db ff ff 	lea    -0x2458(%rbp),%rax
   10f9c:	48 89 85 50 f5 ff ff 	mov    %rax,-0xab0(%rbp)
   10fa3:	48 8d 85 c0 db ff ff 	lea    -0x2440(%rbp),%rax
   10faa:	48 89 85 58 f5 ff ff 	mov    %rax,-0xaa8(%rbp)
   10fb1:	48 8d 85 c0 db ff ff 	lea    -0x2440(%rbp),%rax
   10fb8:	48 89 85 60 f5 ff ff 	mov    %rax,-0xaa0(%rbp)
   10fbf:	48 8d 85 a8 db ff ff 	lea    -0x2458(%rbp),%rax
   10fc6:	48 89 85 68 f5 ff ff 	mov    %rax,-0xa98(%rbp)
   10fcd:	48 8d 85 c0 db ff ff 	lea    -0x2440(%rbp),%rax
   10fd4:	48 89 85 70 f5 ff ff 	mov    %rax,-0xa90(%rbp)
   10fdb:	48 8d 85 c0 db ff ff 	lea    -0x2440(%rbp),%rax
   10fe2:	48 89 85 78 f5 ff ff 	mov    %rax,-0xa88(%rbp)
   10fe9:	48 8d 85 a8 db ff ff 	lea    -0x2458(%rbp),%rax
   10ff0:	48 89 85 80 f5 ff ff 	mov    %rax,-0xa80(%rbp)
   10ff7:	48 8d 85 a8 db ff ff 	lea    -0x2458(%rbp),%rax
   10ffe:	48 89 85 88 f5 ff ff 	mov    %rax,-0xa78(%rbp)
   11005:	48 8d 85 c0 db ff ff 	lea    -0x2440(%rbp),%rax
   1100c:	48 89 85 90 f5 ff ff 	mov    %rax,-0xa70(%rbp)
   11013:	48 8d 85 a8 db ff ff 	lea    -0x2458(%rbp),%rax
   1101a:	48 89 85 98 f5 ff ff 	mov    %rax,-0xa68(%rbp)
   11021:	48 8d 85 c0 db ff ff 	lea    -0x2440(%rbp),%rax
   11028:	48 89 85 a0 f5 ff ff 	mov    %rax,-0xa60(%rbp)
   1102f:	48 8d 85 c0 db ff ff 	lea    -0x2440(%rbp),%rax
   11036:	48 89 85 a8 f5 ff ff 	mov    %rax,-0xa58(%rbp)
   1103d:	48 8d 85 c0 db ff ff 	lea    -0x2440(%rbp),%rax
   11044:	48 89 85 b0 f5 ff ff 	mov    %rax,-0xa50(%rbp)
   1104b:	48 8d 85 c0 db ff ff 	lea    -0x2440(%rbp),%rax
   11052:	48 89 85 b8 f5 ff ff 	mov    %rax,-0xa48(%rbp)
   11059:	48 8d 85 a8 db ff ff 	lea    -0x2458(%rbp),%rax
   11060:	48 89 85 c0 f5 ff ff 	mov    %rax,-0xa40(%rbp)
   11067:	48 8d 85 c0 db ff ff 	lea    -0x2440(%rbp),%rax
   1106e:	48 89 85 c8 f5 ff ff 	mov    %rax,-0xa38(%rbp)
   11075:	48 8d 85 c0 db ff ff 	lea    -0x2440(%rbp),%rax
   1107c:	48 89 85 d0 f5 ff ff 	mov    %rax,-0xa30(%rbp)
   11083:	48 8d 85 c0 db ff ff 	lea    -0x2440(%rbp),%rax
   1108a:	48 89 85 d8 f5 ff ff 	mov    %rax,-0xa28(%rbp)
   11091:	48 8d 85 c0 db ff ff 	lea    -0x2440(%rbp),%rax
   11098:	48 89 85 e0 f5 ff ff 	mov    %rax,-0xa20(%rbp)
   1109f:	48 8d 85 a8 db ff ff 	lea    -0x2458(%rbp),%rax
   110a6:	48 89 85 e8 f5 ff ff 	mov    %rax,-0xa18(%rbp)
   110ad:	48 8d 85 c0 db ff ff 	lea    -0x2440(%rbp),%rax
   110b4:	48 89 85 f0 f5 ff ff 	mov    %rax,-0xa10(%rbp)
   110bb:	48 8d 85 c0 db ff ff 	lea    -0x2440(%rbp),%rax
   110c2:	48 89 85 f8 f5 ff ff 	mov    %rax,-0xa08(%rbp)
   110c9:	48 8d 85 c0 db ff ff 	lea    -0x2440(%rbp),%rax
   110d0:	48 89 85 00 f6 ff ff 	mov    %rax,-0xa00(%rbp)
   110d7:	48 8d 85 c0 db ff ff 	lea    -0x2440(%rbp),%rax
   110de:	48 89 85 08 f6 ff ff 	mov    %rax,-0x9f8(%rbp)
   110e5:	48 8d 85 a8 db ff ff 	lea    -0x2458(%rbp),%rax
   110ec:	48 89 85 10 f6 ff ff 	mov    %rax,-0x9f0(%rbp)
   110f3:	48 8d 85 a8 db ff ff 	lea    -0x2458(%rbp),%rax
   110fa:	48 89 85 18 f6 ff ff 	mov    %rax,-0x9e8(%rbp)
   11101:	48 8d 85 c0 db ff ff 	lea    -0x2440(%rbp),%rax
   11108:	48 89 85 20 f6 ff ff 	mov    %rax,-0x9e0(%rbp)
   1110f:	48 8d 85 c0 db ff ff 	lea    -0x2440(%rbp),%rax
   11116:	48 89 85 28 f6 ff ff 	mov    %rax,-0x9d8(%rbp)
   1111d:	48 8d 85 c0 db ff ff 	lea    -0x2440(%rbp),%rax
   11124:	48 89 85 30 f6 ff ff 	mov    %rax,-0x9d0(%rbp)
   1112b:	48 8d 85 c0 db ff ff 	lea    -0x2440(%rbp),%rax
   11132:	48 89 85 38 f6 ff ff 	mov    %rax,-0x9c8(%rbp)
   11139:	48 8d 85 a8 db ff ff 	lea    -0x2458(%rbp),%rax
   11140:	48 89 85 40 f6 ff ff 	mov    %rax,-0x9c0(%rbp)
   11147:	48 8d 85 c0 db ff ff 	lea    -0x2440(%rbp),%rax
   1114e:	48 89 85 48 f6 ff ff 	mov    %rax,-0x9b8(%rbp)
   11155:	48 8d 85 c0 db ff ff 	lea    -0x2440(%rbp),%rax
   1115c:	48 89 85 50 f6 ff ff 	mov    %rax,-0x9b0(%rbp)
   11163:	48 8d 85 a8 db ff ff 	lea    -0x2458(%rbp),%rax
   1116a:	48 89 85 58 f6 ff ff 	mov    %rax,-0x9a8(%rbp)
   11171:	48 8d 85 c0 db ff ff 	lea    -0x2440(%rbp),%rax
   11178:	48 89 85 60 f6 ff ff 	mov    %rax,-0x9a0(%rbp)
   1117f:	48 8d 85 c0 db ff ff 	lea    -0x2440(%rbp),%rax
   11186:	48 89 85 68 f6 ff ff 	mov    %rax,-0x998(%rbp)
   1118d:	48 8d 85 c0 db ff ff 	lea    -0x2440(%rbp),%rax
   11194:	48 89 85 70 f6 ff ff 	mov    %rax,-0x990(%rbp)
   1119b:	48 8d 85 a8 db ff ff 	lea    -0x2458(%rbp),%rax
   111a2:	48 89 85 78 f6 ff ff 	mov    %rax,-0x988(%rbp)
   111a9:	48 8d 85 c0 db ff ff 	lea    -0x2440(%rbp),%rax
   111b0:	48 89 85 80 f6 ff ff 	mov    %rax,-0x980(%rbp)
   111b7:	48 8d 85 c0 db ff ff 	lea    -0x2440(%rbp),%rax
   111be:	48 89 85 88 f6 ff ff 	mov    %rax,-0x978(%rbp)
   111c5:	48 8d 85 c0 db ff ff 	lea    -0x2440(%rbp),%rax
   111cc:	48 89 85 90 f6 ff ff 	mov    %rax,-0x970(%rbp)
   111d3:	48 8d 85 c0 db ff ff 	lea    -0x2440(%rbp),%rax
   111da:	48 89 85 98 f6 ff ff 	mov    %rax,-0x968(%rbp)
   111e1:	48 8d 85 a8 db ff ff 	lea    -0x2458(%rbp),%rax
   111e8:	48 89 85 a0 f6 ff ff 	mov    %rax,-0x960(%rbp)
   111ef:	48 8d 85 c0 db ff ff 	lea    -0x2440(%rbp),%rax
   111f6:	48 89 85 a8 f6 ff ff 	mov    %rax,-0x958(%rbp)
   111fd:	48 8d 85 c0 db ff ff 	lea    -0x2440(%rbp),%rax
   11204:	48 89 85 b0 f6 ff ff 	mov    %rax,-0x950(%rbp)
   1120b:	48 8d 85 c0 db ff ff 	lea    -0x2440(%rbp),%rax
   11212:	48 89 85 b8 f6 ff ff 	mov    %rax,-0x948(%rbp)
   11219:	48 8d 85 c0 db ff ff 	lea    -0x2440(%rbp),%rax
   11220:	48 89 85 c0 f6 ff ff 	mov    %rax,-0x940(%rbp)
   11227:	48 c7 85 c8 f6 ff ff 	movq   $0x0,-0x938(%rbp)
   1122e:	00 00 00 00 
   11232:	48 8d 85 c0 db ff ff 	lea    -0x2440(%rbp),%rax
   11239:	48 89 85 d0 f6 ff ff 	mov    %rax,-0x930(%rbp)
   11240:	48 8d 85 c0 db ff ff 	lea    -0x2440(%rbp),%rax
   11247:	48 89 85 d8 f6 ff ff 	mov    %rax,-0x928(%rbp)
   1124e:	48 c7 85 e0 f6 ff ff 	movq   $0x0,-0x920(%rbp)
   11255:	00 00 00 00 
   11259:	48 8d 85 c0 db ff ff 	lea    -0x2440(%rbp),%rax
   11260:	48 89 85 e8 f6 ff ff 	mov    %rax,-0x918(%rbp)
   11267:	48 8d 85 c0 db ff ff 	lea    -0x2440(%rbp),%rax
   1126e:	48 89 85 f0 f6 ff ff 	mov    %rax,-0x910(%rbp)
   11275:	48 8d 85 c0 db ff ff 	lea    -0x2440(%rbp),%rax
   1127c:	48 89 85 f8 f6 ff ff 	mov    %rax,-0x908(%rbp)
   11283:	48 8d 85 c0 db ff ff 	lea    -0x2440(%rbp),%rax
   1128a:	48 89 85 00 f7 ff ff 	mov    %rax,-0x900(%rbp)
   11291:	48 8d 85 c0 db ff ff 	lea    -0x2440(%rbp),%rax
   11298:	48 89 85 08 f7 ff ff 	mov    %rax,-0x8f8(%rbp)
   1129f:	48 8d 85 c0 db ff ff 	lea    -0x2440(%rbp),%rax
   112a6:	48 89 85 10 f7 ff ff 	mov    %rax,-0x8f0(%rbp)
   112ad:	48 8d 85 c0 db ff ff 	lea    -0x2440(%rbp),%rax
   112b4:	48 89 85 18 f7 ff ff 	mov    %rax,-0x8e8(%rbp)
   112bb:	48 8d 85 a8 db ff ff 	lea    -0x2458(%rbp),%rax
   112c2:	48 89 85 20 f7 ff ff 	mov    %rax,-0x8e0(%rbp)
   112c9:	48 8d 85 a8 db ff ff 	lea    -0x2458(%rbp),%rax
   112d0:	48 89 85 28 f7 ff ff 	mov    %rax,-0x8d8(%rbp)
   112d7:	48 c7 85 30 f7 ff ff 	movq   $0x0,-0x8d0(%rbp)
   112de:	00 00 00 00 
   112e2:	48 8d 85 c0 db ff ff 	lea    -0x2440(%rbp),%rax
   112e9:	48 89 85 38 f7 ff ff 	mov    %rax,-0x8c8(%rbp)
   112f0:	48 8d 85 c0 db ff ff 	lea    -0x2440(%rbp),%rax
   112f7:	48 89 85 40 f7 ff ff 	mov    %rax,-0x8c0(%rbp)
   112fe:	48 8d 85 c0 db ff ff 	lea    -0x2440(%rbp),%rax
   11305:	48 89 85 48 f7 ff ff 	mov    %rax,-0x8b8(%rbp)
   1130c:	48 8d 85 c0 db ff ff 	lea    -0x2440(%rbp),%rax
   11313:	48 89 85 50 f7 ff ff 	mov    %rax,-0x8b0(%rbp)
   1131a:	48 8d 85 c0 db ff ff 	lea    -0x2440(%rbp),%rax
   11321:	48 89 85 58 f7 ff ff 	mov    %rax,-0x8a8(%rbp)
   11328:	48 8d 85 a8 db ff ff 	lea    -0x2458(%rbp),%rax
   1132f:	48 89 85 60 f7 ff ff 	mov    %rax,-0x8a0(%rbp)
   11336:	48 8d 85 a8 db ff ff 	lea    -0x2458(%rbp),%rax
   1133d:	48 89 85 68 f7 ff ff 	mov    %rax,-0x898(%rbp)
   11344:	48 8d 85 c0 db ff ff 	lea    -0x2440(%rbp),%rax
   1134b:	48 89 85 70 f7 ff ff 	mov    %rax,-0x890(%rbp)
   11352:	48 8d 85 c0 db ff ff 	lea    -0x2440(%rbp),%rax
   11359:	48 89 85 78 f7 ff ff 	mov    %rax,-0x888(%rbp)
   11360:	48 8d 85 c0 db ff ff 	lea    -0x2440(%rbp),%rax
   11367:	48 89 85 80 f7 ff ff 	mov    %rax,-0x880(%rbp)
   1136e:	48 8d 85 a8 db ff ff 	lea    -0x2458(%rbp),%rax
   11375:	48 89 85 88 f7 ff ff 	mov    %rax,-0x878(%rbp)
   1137c:	48 8d 85 a8 db ff ff 	lea    -0x2458(%rbp),%rax
   11383:	48 89 85 90 f7 ff ff 	mov    %rax,-0x870(%rbp)
   1138a:	48 8d 85 c0 db ff ff 	lea    -0x2440(%rbp),%rax
   11391:	48 89 85 98 f7 ff ff 	mov    %rax,-0x868(%rbp)
   11398:	48 8d 85 a8 db ff ff 	lea    -0x2458(%rbp),%rax
   1139f:	48 89 85 a0 f7 ff ff 	mov    %rax,-0x860(%rbp)
   113a6:	48 8d 85 c0 db ff ff 	lea    -0x2440(%rbp),%rax
   113ad:	48 89 85 a8 f7 ff ff 	mov    %rax,-0x858(%rbp)
   113b4:	48 8d 85 c0 db ff ff 	lea    -0x2440(%rbp),%rax
   113bb:	48 89 85 b0 f7 ff ff 	mov    %rax,-0x850(%rbp)
   113c2:	48 8d 85 c0 db ff ff 	lea    -0x2440(%rbp),%rax
   113c9:	48 89 85 b8 f7 ff ff 	mov    %rax,-0x848(%rbp)
   113d0:	48 8d 85 a8 db ff ff 	lea    -0x2458(%rbp),%rax
   113d7:	48 89 85 c0 f7 ff ff 	mov    %rax,-0x840(%rbp)
   113de:	48 8d 85 a8 db ff ff 	lea    -0x2458(%rbp),%rax
   113e5:	48 89 85 c8 f7 ff ff 	mov    %rax,-0x838(%rbp)
   113ec:	48 8d 85 c0 db ff ff 	lea    -0x2440(%rbp),%rax
   113f3:	48 89 85 d0 f7 ff ff 	mov    %rax,-0x830(%rbp)
   113fa:	48 8d 85 c0 db ff ff 	lea    -0x2440(%rbp),%rax
   11401:	48 89 85 d8 f7 ff ff 	mov    %rax,-0x828(%rbp)
   11408:	48 c7 85 98 dc ff ff 	movq   $0x0,-0x2368(%rbp)
   1140f:	00 00 00 00 
   11413:	48 8d 85 20 e6 ff ff 	lea    -0x19e0(%rbp),%rax
   1141a:	48 8d 15 ff f6 00 00 	lea    0xf6ff(%rip),%rdx        # 20b20 <g_1685+0x11ea>
   11421:	b9 5a 00 00 00       	mov    $0x5a,%ecx
   11426:	48 89 c7             	mov    %rax,%rdi
   11429:	48 89 d6             	mov    %rdx,%rsi
   1142c:	f3 48 a5             	rep movsq %ds:(%rsi),%es:(%rdi)
   1142f:	c7 85 14 db ff ff 97 	movl   $0xab2fb397,-0x24ec(%rbp)
   11436:	b3 2f ab 
   11439:	48 8d 05 90 cd 00 00 	lea    0xcd90(%rip),%rax        # 1e1d0 <g_375>
   11440:	48 89 85 40 df ff ff 	mov    %rax,-0x20c0(%rbp)
   11447:	48 8d 05 82 cd 00 00 	lea    0xcd82(%rip),%rax        # 1e1d0 <g_375>
   1144e:	48 89 85 48 df ff ff 	mov    %rax,-0x20b8(%rbp)
   11455:	48 8d 05 74 cd 00 00 	lea    0xcd74(%rip),%rax        # 1e1d0 <g_375>
   1145c:	48 89 85 50 df ff ff 	mov    %rax,-0x20b0(%rbp)
   11463:	48 8d 05 66 cd 00 00 	lea    0xcd66(%rip),%rax        # 1e1d0 <g_375>
   1146a:	48 89 85 58 df ff ff 	mov    %rax,-0x20a8(%rbp)
   11471:	48 8d 05 58 cd 00 00 	lea    0xcd58(%rip),%rax        # 1e1d0 <g_375>
   11478:	48 89 85 60 df ff ff 	mov    %rax,-0x20a0(%rbp)
   1147f:	48 8d 85 40 df ff ff 	lea    -0x20c0(%rbp),%rax
   11486:	48 83 c0 08          	add    $0x8,%rax
   1148a:	48 89 85 e8 db ff ff 	mov    %rax,-0x2418(%rbp)
   11491:	48 8d 85 e8 db ff ff 	lea    -0x2418(%rbp),%rax
   11498:	48 89 85 a0 dc ff ff 	mov    %rax,-0x2360(%rbp)
   1149f:	48 8d 05 5a e2 00 00 	lea    0xe25a(%rip),%rax        # 1f700 <g_440+0x20>
   114a6:	48 89 85 f0 db ff ff 	mov    %rax,-0x2410(%rbp)
   114ad:	48 8d 85 f0 db ff ff 	lea    -0x2410(%rbp),%rax
   114b4:	48 89 85 a0 df ff ff 	mov    %rax,-0x2060(%rbp)
   114bb:	48 8d 85 f0 db ff ff 	lea    -0x2410(%rbp),%rax
   114c2:	48 89 85 a8 df ff ff 	mov    %rax,-0x2058(%rbp)
   114c9:	48 8d 85 f0 db ff ff 	lea    -0x2410(%rbp),%rax
   114d0:	48 89 85 b0 df ff ff 	mov    %rax,-0x2050(%rbp)
   114d7:	48 8d 85 f0 db ff ff 	lea    -0x2410(%rbp),%rax
   114de:	48 89 85 b8 df ff ff 	mov    %rax,-0x2048(%rbp)
   114e5:	48 8d 85 f0 db ff ff 	lea    -0x2410(%rbp),%rax
   114ec:	48 89 85 c0 df ff ff 	mov    %rax,-0x2040(%rbp)
   114f3:	48 8d 85 f0 db ff ff 	lea    -0x2410(%rbp),%rax
   114fa:	48 89 85 c8 df ff ff 	mov    %rax,-0x2038(%rbp)
   11501:	48 8d 85 f0 db ff ff 	lea    -0x2410(%rbp),%rax
   11508:	48 89 85 d0 df ff ff 	mov    %rax,-0x2030(%rbp)
   1150f:	48 8d 85 70 df ff ff 	lea    -0x2090(%rbp),%rax
   11516:	48 83 c0 18          	add    $0x18,%rax
   1151a:	48 89 85 a8 dc ff ff 	mov    %rax,-0x2358(%rbp)
   11521:	48 8d 85 80 de ff ff 	lea    -0x2180(%rbp),%rax
   11528:	48 83 c0 08          	add    $0x8,%rax
   1152c:	48 89 85 b0 dc ff ff 	mov    %rax,-0x2350(%rbp)
   11533:	c7 85 ec da ff ff 00 	movl   $0x0,-0x2514(%rbp)
   1153a:	00 00 00 
   1153d:	eb 1a                	jmp    11559 <func_60+0x1a37>
   1153f:	8b 85 ec da ff ff    	mov    -0x2514(%rbp),%eax
   11545:	48 98                	cltq   
   11547:	c7 84 85 90 de ff ff 	movl   $0xc9940e3e,-0x2170(%rbp,%rax,4)
   1154e:	3e 0e 94 c9 
   11552:	83 85 ec da ff ff 01 	addl   $0x1,-0x2514(%rbp)
   11559:	83 bd ec da ff ff 03 	cmpl   $0x3,-0x2514(%rbp)
   11560:	7e dd                	jle    1153f <func_60+0x1a1d>
   11562:	48 8b 05 2f 02 01 00 	mov    0x1022f(%rip),%rax        # 21798 <g_43>
   11569:	48 8b 00             	mov    (%rax),%rax
   1156c:	8b 00                	mov    (%rax),%eax
   1156e:	85 c0                	test   %eax,%eax
   11570:	0f 84 d4 15 00 00    	je     12b4a <func_60+0x3028>
   11576:	48 8d 85 10 df ff ff 	lea    -0x20f0(%rbp),%rax
   1157d:	48 83 c0 20          	add    $0x20,%rax
   11581:	48 89 85 d0 de ff ff 	mov    %rax,-0x2130(%rbp)
   11588:	48 8d 85 10 df ff ff 	lea    -0x20f0(%rbp),%rax
   1158f:	48 83 c0 20          	add    $0x20,%rax
   11593:	48 89 85 d8 de ff ff 	mov    %rax,-0x2128(%rbp)
   1159a:	48 8d 85 10 df ff ff 	lea    -0x20f0(%rbp),%rax
   115a1:	48 83 c0 20          	add    $0x20,%rax
   115a5:	48 89 85 e0 de ff ff 	mov    %rax,-0x2120(%rbp)
   115ac:	48 8d 85 10 df ff ff 	lea    -0x20f0(%rbp),%rax
   115b3:	48 83 c0 20          	add    $0x20,%rax
   115b7:	48 89 85 e8 de ff ff 	mov    %rax,-0x2118(%rbp)
   115be:	48 8d 85 d0 de ff ff 	lea    -0x2130(%rbp),%rax
   115c5:	48 83 c0 10          	add    $0x10,%rax
   115c9:	48 89 85 60 e4 ff ff 	mov    %rax,-0x1ba0(%rbp)
   115d0:	48 8d 85 d0 de ff ff 	lea    -0x2130(%rbp),%rax
   115d7:	48 83 c0 10          	add    $0x10,%rax
   115db:	48 89 85 68 e4 ff ff 	mov    %rax,-0x1b98(%rbp)
   115e2:	48 8d 85 d0 de ff ff 	lea    -0x2130(%rbp),%rax
   115e9:	48 83 c0 10          	add    $0x10,%rax
   115ed:	48 89 85 70 e4 ff ff 	mov    %rax,-0x1b90(%rbp)
   115f4:	48 8d 85 d0 de ff ff 	lea    -0x2130(%rbp),%rax
   115fb:	48 83 c0 10          	add    $0x10,%rax
   115ff:	48 89 85 78 e4 ff ff 	mov    %rax,-0x1b88(%rbp)
   11606:	48 8d 85 d0 de ff ff 	lea    -0x2130(%rbp),%rax
   1160d:	48 83 c0 10          	add    $0x10,%rax
   11611:	48 89 85 80 e4 ff ff 	mov    %rax,-0x1b80(%rbp)
   11618:	48 8d 85 d0 de ff ff 	lea    -0x2130(%rbp),%rax
   1161f:	48 83 c0 10          	add    $0x10,%rax
   11623:	48 89 85 88 e4 ff ff 	mov    %rax,-0x1b78(%rbp)
   1162a:	48 8d 85 d0 de ff ff 	lea    -0x2130(%rbp),%rax
   11631:	48 83 c0 10          	add    $0x10,%rax
   11635:	48 89 85 90 e4 ff ff 	mov    %rax,-0x1b70(%rbp)
   1163c:	48 8d 85 d0 de ff ff 	lea    -0x2130(%rbp),%rax
   11643:	48 83 c0 10          	add    $0x10,%rax
   11647:	48 89 85 98 e4 ff ff 	mov    %rax,-0x1b68(%rbp)
   1164e:	48 8d 85 d0 de ff ff 	lea    -0x2130(%rbp),%rax
   11655:	48 83 c0 10          	add    $0x10,%rax
   11659:	48 89 85 a0 e4 ff ff 	mov    %rax,-0x1b60(%rbp)
   11660:	48 8d 85 d0 de ff ff 	lea    -0x2130(%rbp),%rax
   11667:	48 83 c0 10          	add    $0x10,%rax
   1166b:	48 89 85 a8 e4 ff ff 	mov    %rax,-0x1b58(%rbp)
   11672:	48 8d 85 d0 de ff ff 	lea    -0x2130(%rbp),%rax
   11679:	48 83 c0 10          	add    $0x10,%rax
   1167d:	48 89 85 b0 e4 ff ff 	mov    %rax,-0x1b50(%rbp)
   11684:	48 8d 85 d0 de ff ff 	lea    -0x2130(%rbp),%rax
   1168b:	48 83 c0 10          	add    $0x10,%rax
   1168f:	48 89 85 b8 e4 ff ff 	mov    %rax,-0x1b48(%rbp)
   11696:	48 8d 85 d0 de ff ff 	lea    -0x2130(%rbp),%rax
   1169d:	48 83 c0 10          	add    $0x10,%rax
   116a1:	48 89 85 c0 e4 ff ff 	mov    %rax,-0x1b40(%rbp)
   116a8:	48 8d 85 d0 de ff ff 	lea    -0x2130(%rbp),%rax
   116af:	48 83 c0 10          	add    $0x10,%rax
   116b3:	48 89 85 c8 e4 ff ff 	mov    %rax,-0x1b38(%rbp)
   116ba:	48 8d 85 d0 de ff ff 	lea    -0x2130(%rbp),%rax
   116c1:	48 83 c0 10          	add    $0x10,%rax
   116c5:	48 89 85 d0 e4 ff ff 	mov    %rax,-0x1b30(%rbp)
   116cc:	48 8d 85 d0 de ff ff 	lea    -0x2130(%rbp),%rax
   116d3:	48 83 c0 10          	add    $0x10,%rax
   116d7:	48 89 85 d8 e4 ff ff 	mov    %rax,-0x1b28(%rbp)
   116de:	48 8d 85 d0 de ff ff 	lea    -0x2130(%rbp),%rax
   116e5:	48 83 c0 10          	add    $0x10,%rax
   116e9:	48 89 85 e0 e4 ff ff 	mov    %rax,-0x1b20(%rbp)
   116f0:	48 8d 85 d0 de ff ff 	lea    -0x2130(%rbp),%rax
   116f7:	48 83 c0 10          	add    $0x10,%rax
   116fb:	48 89 85 e8 e4 ff ff 	mov    %rax,-0x1b18(%rbp)
   11702:	48 8d 85 d0 de ff ff 	lea    -0x2130(%rbp),%rax
   11709:	48 83 c0 10          	add    $0x10,%rax
   1170d:	48 89 85 f0 e4 ff ff 	mov    %rax,-0x1b10(%rbp)
   11714:	48 8d 85 d0 de ff ff 	lea    -0x2130(%rbp),%rax
   1171b:	48 83 c0 10          	add    $0x10,%rax
   1171f:	48 89 85 f8 e4 ff ff 	mov    %rax,-0x1b08(%rbp)
   11726:	48 8d 85 d0 de ff ff 	lea    -0x2130(%rbp),%rax
   1172d:	48 83 c0 10          	add    $0x10,%rax
   11731:	48 89 85 00 e5 ff ff 	mov    %rax,-0x1b00(%rbp)
   11738:	48 8d 85 d0 de ff ff 	lea    -0x2130(%rbp),%rax
   1173f:	48 83 c0 10          	add    $0x10,%rax
   11743:	48 89 85 08 e5 ff ff 	mov    %rax,-0x1af8(%rbp)
   1174a:	48 8d 85 d0 de ff ff 	lea    -0x2130(%rbp),%rax
   11751:	48 83 c0 10          	add    $0x10,%rax
   11755:	48 89 85 10 e5 ff ff 	mov    %rax,-0x1af0(%rbp)
   1175c:	48 8d 85 d0 de ff ff 	lea    -0x2130(%rbp),%rax
   11763:	48 83 c0 10          	add    $0x10,%rax
   11767:	48 89 85 18 e5 ff ff 	mov    %rax,-0x1ae8(%rbp)
   1176e:	48 8d 85 d0 de ff ff 	lea    -0x2130(%rbp),%rax
   11775:	48 83 c0 10          	add    $0x10,%rax
   11779:	48 89 85 20 e5 ff ff 	mov    %rax,-0x1ae0(%rbp)
   11780:	48 8d 85 d0 de ff ff 	lea    -0x2130(%rbp),%rax
   11787:	48 83 c0 10          	add    $0x10,%rax
   1178b:	48 89 85 28 e5 ff ff 	mov    %rax,-0x1ad8(%rbp)
   11792:	48 8d 85 d0 de ff ff 	lea    -0x2130(%rbp),%rax
   11799:	48 83 c0 10          	add    $0x10,%rax
   1179d:	48 89 85 30 e5 ff ff 	mov    %rax,-0x1ad0(%rbp)
   117a4:	48 8d 85 d0 de ff ff 	lea    -0x2130(%rbp),%rax
   117ab:	48 83 c0 10          	add    $0x10,%rax
   117af:	48 89 85 38 e5 ff ff 	mov    %rax,-0x1ac8(%rbp)
   117b6:	48 8d 85 d0 de ff ff 	lea    -0x2130(%rbp),%rax
   117bd:	48 83 c0 10          	add    $0x10,%rax
   117c1:	48 89 85 40 e5 ff ff 	mov    %rax,-0x1ac0(%rbp)
   117c8:	48 8d 85 d0 de ff ff 	lea    -0x2130(%rbp),%rax
   117cf:	48 83 c0 10          	add    $0x10,%rax
   117d3:	48 89 85 48 e5 ff ff 	mov    %rax,-0x1ab8(%rbp)
   117da:	48 8d 85 d0 de ff ff 	lea    -0x2130(%rbp),%rax
   117e1:	48 83 c0 10          	add    $0x10,%rax
   117e5:	48 89 85 50 e5 ff ff 	mov    %rax,-0x1ab0(%rbp)
   117ec:	48 8d 85 d0 de ff ff 	lea    -0x2130(%rbp),%rax
   117f3:	48 83 c0 10          	add    $0x10,%rax
   117f7:	48 89 85 58 e5 ff ff 	mov    %rax,-0x1aa8(%rbp)
   117fe:	48 8d 85 d0 de ff ff 	lea    -0x2130(%rbp),%rax
   11805:	48 83 c0 10          	add    $0x10,%rax
   11809:	48 89 85 60 e5 ff ff 	mov    %rax,-0x1aa0(%rbp)
   11810:	48 8d 85 d0 de ff ff 	lea    -0x2130(%rbp),%rax
   11817:	48 83 c0 10          	add    $0x10,%rax
   1181b:	48 89 85 68 e5 ff ff 	mov    %rax,-0x1a98(%rbp)
   11822:	48 8d 85 d0 de ff ff 	lea    -0x2130(%rbp),%rax
   11829:	48 83 c0 10          	add    $0x10,%rax
   1182d:	48 89 85 70 e5 ff ff 	mov    %rax,-0x1a90(%rbp)
   11834:	48 8d 85 d0 de ff ff 	lea    -0x2130(%rbp),%rax
   1183b:	48 83 c0 10          	add    $0x10,%rax
   1183f:	48 89 85 78 e5 ff ff 	mov    %rax,-0x1a88(%rbp)
   11846:	48 8d 85 d0 de ff ff 	lea    -0x2130(%rbp),%rax
   1184d:	48 83 c0 10          	add    $0x10,%rax
   11851:	48 89 85 80 e5 ff ff 	mov    %rax,-0x1a80(%rbp)
   11858:	48 8d 85 d0 de ff ff 	lea    -0x2130(%rbp),%rax
   1185f:	48 83 c0 10          	add    $0x10,%rax
   11863:	48 89 85 88 e5 ff ff 	mov    %rax,-0x1a78(%rbp)
   1186a:	48 8d 85 d0 de ff ff 	lea    -0x2130(%rbp),%rax
   11871:	48 83 c0 10          	add    $0x10,%rax
   11875:	48 89 85 90 e5 ff ff 	mov    %rax,-0x1a70(%rbp)
   1187c:	48 8d 85 d0 de ff ff 	lea    -0x2130(%rbp),%rax
   11883:	48 83 c0 10          	add    $0x10,%rax
   11887:	48 89 85 98 e5 ff ff 	mov    %rax,-0x1a68(%rbp)
   1188e:	48 8d 85 d0 de ff ff 	lea    -0x2130(%rbp),%rax
   11895:	48 83 c0 10          	add    $0x10,%rax
   11899:	48 89 85 a0 e5 ff ff 	mov    %rax,-0x1a60(%rbp)
   118a0:	48 8d 85 d0 de ff ff 	lea    -0x2130(%rbp),%rax
   118a7:	48 83 c0 10          	add    $0x10,%rax
   118ab:	48 89 85 a8 e5 ff ff 	mov    %rax,-0x1a58(%rbp)
   118b2:	48 8d 85 d0 de ff ff 	lea    -0x2130(%rbp),%rax
   118b9:	48 83 c0 10          	add    $0x10,%rax
   118bd:	48 89 85 b0 e5 ff ff 	mov    %rax,-0x1a50(%rbp)
   118c4:	48 8d 85 d0 de ff ff 	lea    -0x2130(%rbp),%rax
   118cb:	48 83 c0 10          	add    $0x10,%rax
   118cf:	48 89 85 b8 e5 ff ff 	mov    %rax,-0x1a48(%rbp)
   118d6:	48 8d 85 d0 de ff ff 	lea    -0x2130(%rbp),%rax
   118dd:	48 83 c0 10          	add    $0x10,%rax
   118e1:	48 89 85 c0 e5 ff ff 	mov    %rax,-0x1a40(%rbp)
   118e8:	48 8d 85 d0 de ff ff 	lea    -0x2130(%rbp),%rax
   118ef:	48 83 c0 10          	add    $0x10,%rax
   118f3:	48 89 85 c8 e5 ff ff 	mov    %rax,-0x1a38(%rbp)
   118fa:	48 8d 85 d0 de ff ff 	lea    -0x2130(%rbp),%rax
   11901:	48 83 c0 10          	add    $0x10,%rax
   11905:	48 89 85 d0 e5 ff ff 	mov    %rax,-0x1a30(%rbp)
   1190c:	48 8d 85 d0 de ff ff 	lea    -0x2130(%rbp),%rax
   11913:	48 83 c0 10          	add    $0x10,%rax
   11917:	48 89 85 d8 e5 ff ff 	mov    %rax,-0x1a28(%rbp)
   1191e:	48 8d 85 d0 de ff ff 	lea    -0x2130(%rbp),%rax
   11925:	48 83 c0 10          	add    $0x10,%rax
   11929:	48 89 85 e0 e5 ff ff 	mov    %rax,-0x1a20(%rbp)
   11930:	48 8d 85 d0 de ff ff 	lea    -0x2130(%rbp),%rax
   11937:	48 83 c0 10          	add    $0x10,%rax
   1193b:	48 89 85 e8 e5 ff ff 	mov    %rax,-0x1a18(%rbp)
   11942:	48 8d 85 d0 de ff ff 	lea    -0x2130(%rbp),%rax
   11949:	48 83 c0 10          	add    $0x10,%rax
   1194d:	48 89 85 f0 e5 ff ff 	mov    %rax,-0x1a10(%rbp)
   11954:	48 8d 85 d0 de ff ff 	lea    -0x2130(%rbp),%rax
   1195b:	48 83 c0 10          	add    $0x10,%rax
   1195f:	48 89 85 f8 e5 ff ff 	mov    %rax,-0x1a08(%rbp)
   11966:	48 8d 85 d0 de ff ff 	lea    -0x2130(%rbp),%rax
   1196d:	48 83 c0 10          	add    $0x10,%rax
   11971:	48 89 85 00 e6 ff ff 	mov    %rax,-0x1a00(%rbp)
   11978:	48 8d 85 d0 de ff ff 	lea    -0x2130(%rbp),%rax
   1197f:	48 83 c0 10          	add    $0x10,%rax
   11983:	48 89 85 08 e6 ff ff 	mov    %rax,-0x19f8(%rbp)
   1198a:	48 8d 85 d0 de ff ff 	lea    -0x2130(%rbp),%rax
   11991:	48 83 c0 10          	add    $0x10,%rax
   11995:	48 89 85 10 e6 ff ff 	mov    %rax,-0x19f0(%rbp)
   1199c:	48 8d 85 d0 de ff ff 	lea    -0x2130(%rbp),%rax
   119a3:	48 83 c0 10          	add    $0x10,%rax
   119a7:	48 89 85 18 e6 ff ff 	mov    %rax,-0x19e8(%rbp)
   119ae:	c7 85 e4 da ff ff f9 	movl   $0xfffffff9,-0x251c(%rbp)
   119b5:	ff ff ff 
   119b8:	48 c7 85 00 dd ff ff 	movq   $0x0,-0x2300(%rbp)
   119bf:	00 00 00 00 
   119c3:	48 8d 85 dc da ff ff 	lea    -0x2524(%rbp),%rax
   119ca:	48 89 85 f0 de ff ff 	mov    %rax,-0x2110(%rbp)
   119d1:	48 8d 85 dc da ff ff 	lea    -0x2524(%rbp),%rax
   119d8:	48 89 85 f8 de ff ff 	mov    %rax,-0x2108(%rbp)
   119df:	48 8d 85 dc da ff ff 	lea    -0x2524(%rbp),%rax
   119e6:	48 89 85 00 df ff ff 	mov    %rax,-0x2100(%rbp)
   119ed:	48 8d 85 dc da ff ff 	lea    -0x2524(%rbp),%rax
   119f4:	48 89 85 08 df ff ff 	mov    %rax,-0x20f8(%rbp)
   119fb:	48 8d 85 a8 db ff ff 	lea    -0x2458(%rbp),%rax
   11a02:	48 89 85 08 dd ff ff 	mov    %rax,-0x22f8(%rbp)
   11a09:	48 8d 05 fc c6 00 00 	lea    0xc6fc(%rip),%rax        # 1e10c <g_211>
   11a10:	48 89 85 10 dd ff ff 	mov    %rax,-0x22f0(%rbp)
   11a17:	48 8d 85 78 de ff ff 	lea    -0x2188(%rbp),%rax
   11a1e:	48 89 85 18 dd ff ff 	mov    %rax,-0x22e8(%rbp)
   11a25:	48 8d 85 b0 db ff ff 	lea    -0x2450(%rbp),%rax
   11a2c:	48 89 85 20 dd ff ff 	mov    %rax,-0x22e0(%rbp)
   11a33:	c6 85 ba da ff ff 01 	movb   $0x1,-0x2546(%rbp)
   11a3a:	48 8d 05 7a c7 00 00 	lea    0xc77a(%rip),%rax        # 1e1bb <g_271+0xb>
   11a41:	48 89 85 f8 db ff ff 	mov    %rax,-0x2408(%rbp)
   11a48:	48 8b 05 49 fd 00 00 	mov    0xfd49(%rip),%rax        # 21798 <g_43>
   11a4f:	48 8b 95 e0 de ff ff 	mov    -0x2120(%rbp),%rdx
   11a56:	48 89 10             	mov    %rdx,(%rax)
   11a59:	8b 85 ac da ff ff    	mov    -0x2554(%rbp),%eax
   11a5f:	48 63 d8             	movslq %eax,%rbx
   11a62:	8b 85 dc da ff ff    	mov    -0x2524(%rbp),%eax
   11a68:	44 0f be e0          	movsbl %al,%r12d
   11a6c:	44 8b ad a8 da ff ff 	mov    -0x2558(%rbp),%r13d
   11a73:	be 03 00 00 00       	mov    $0x3,%esi
   11a78:	bf 51 00 00 00       	mov    $0x51,%edi
   11a7d:	e8 ea 68 ff ff       	callq  836c <safe_rshift_func_int8_t_s_u>
   11a82:	0f b6 05 76 c6 00 00 	movzbl 0xc676(%rip),%eax        # 1e0ff <g_140+0xf>
   11a89:	0f b7 15 70 c6 00 00 	movzwl 0xc670(%rip),%edx        # 1e100 <g_140+0x10>
   11a90:	81 e2 ff 7f 00 00    	and    $0x7fff,%edx
   11a96:	48 c1 e2 08          	shl    $0x8,%rdx
   11a9a:	48 09 d0             	or     %rdx,%rax
   11a9d:	48 c1 e0 29          	shl    $0x29,%rax
   11aa1:	48 c1 f8 29          	sar    $0x29,%rax
   11aa5:	44 0f bf f0          	movswl %ax,%r14d
   11aa9:	0f b7 05 c8 11 01 00 	movzwl 0x111c8(%rip),%eax        # 22c78 <g_123>
   11ab0:	44 0f be f8          	movsbl %al,%r15d
   11ab4:	be 0e 00 00 00       	mov    $0xe,%esi
   11ab9:	bf fc 81 00 00       	mov    $0x81fc,%edi
   11abe:	e8 85 73 ff ff       	callq  8e48 <safe_rshift_func_uint16_t_u_s>
   11ac3:	66 89 85 98 da ff ff 	mov    %ax,-0x2568(%rbp)
   11aca:	0f b7 05 a7 11 01 00 	movzwl 0x111a7(%rip),%eax        # 22c78 <g_123>
   11ad1:	0f b7 c8             	movzwl %ax,%ecx
   11ad4:	48 89 8d 90 da ff ff 	mov    %rcx,-0x2570(%rbp)
   11adb:	8b 85 e4 da ff ff    	mov    -0x251c(%rbp),%eax
   11ae1:	0f b7 d0             	movzwl %ax,%edx
   11ae4:	8b 85 a8 da ff ff    	mov    -0x2558(%rbp),%eax
   11aea:	0f b7 c0             	movzwl %ax,%eax
   11aed:	89 d6                	mov    %edx,%esi
   11aef:	89 c7                	mov    %eax,%edi
   11af1:	e8 09 72 ff ff       	callq  8cff <safe_add_func_uint16_t_u_u>
   11af6:	8b 85 c4 da ff ff    	mov    -0x253c(%rbp),%eax
   11afc:	83 f8 01             	cmp    $0x1,%eax
   11aff:	0f 97 c0             	seta   %al
   11b02:	0f b6 d0             	movzbl %al,%edx
   11b05:	8b 85 ac da ff ff    	mov    -0x2554(%rbp),%eax
   11b0b:	39 c2                	cmp    %eax,%edx
   11b0d:	0f 9c c0             	setl   %al
   11b10:	0f b6 c0             	movzbl %al,%eax
   11b13:	be c4 00 00 00       	mov    $0xc4,%esi
   11b18:	89 c7                	mov    %eax,%edi
   11b1a:	e8 8f 70 ff ff       	callq  8bae <safe_mod_func_uint8_t_u_u>
   11b1f:	0f b6 d0             	movzbl %al,%edx
   11b22:	8b 85 c0 da ff ff    	mov    -0x2540(%rbp),%eax
   11b28:	21 d0                	and    %edx,%eax
   11b2a:	89 85 c0 da ff ff    	mov    %eax,-0x2540(%rbp)
   11b30:	8b 85 c0 da ff ff    	mov    -0x2540(%rbp),%eax
   11b36:	48 98                	cltq   
   11b38:	48 8b b5 90 da ff ff 	mov    -0x2570(%rbp),%rsi
   11b3f:	48 89 c7             	mov    %rax,%rdi
   11b42:	e8 6d 6e ff ff       	callq  89b4 <safe_mod_func_int64_t_s_s>
   11b47:	48 85 c0             	test   %rax,%rax
   11b4a:	0f 94 c0             	sete   %al
   11b4d:	0f b6 d0             	movzbl %al,%edx
   11b50:	0f b7 05 89 c5 00 00 	movzwl 0xc589(%rip),%eax        # 1e0e0 <g_125>
   11b57:	0f b7 c0             	movzwl %ax,%eax
   11b5a:	39 c2                	cmp    %eax,%edx
   11b5c:	0f 9e c0             	setle  %al
   11b5f:	0f b6 d0             	movzbl %al,%edx
   11b62:	8b 85 dc da ff ff    	mov    -0x2524(%rbp),%eax
   11b68:	39 c2                	cmp    %eax,%edx
   11b6a:	0f 9f c0             	setg   %al
   11b6d:	0f b6 c0             	movzbl %al,%eax
   11b70:	89 85 30 df ff ff    	mov    %eax,-0x20d0(%rbp)
   11b76:	8b 85 30 df ff ff    	mov    -0x20d0(%rbp),%eax
   11b7c:	66 0b 85 98 da ff ff 	or     -0x2568(%rbp),%ax
   11b83:	0f b7 c0             	movzwl %ax,%eax
   11b86:	be 00 00 00 00       	mov    $0x0,%esi
   11b8b:	89 c7                	mov    %eax,%edi
   11b8d:	e8 ab 71 ff ff       	callq  8d3d <safe_mul_func_uint16_t_u_u>
   11b92:	ba 01 00 00 00       	mov    $0x1,%edx
   11b97:	8b 85 d4 da ff ff    	mov    -0x252c(%rbp),%eax
   11b9d:	09 d0                	or     %edx,%eax
   11b9f:	89 85 d4 da ff ff    	mov    %eax,-0x252c(%rbp)
   11ba5:	8b 85 ac da ff ff    	mov    -0x2554(%rbp),%eax
   11bab:	0f be c0             	movsbl %al,%eax
   11bae:	44 89 fe             	mov    %r15d,%esi
   11bb1:	89 c7                	mov    %eax,%edi
   11bb3:	e8 5a 66 ff ff       	callq  8212 <safe_mul_func_int8_t_s_s>
   11bb8:	44 89 f6             	mov    %r14d,%esi
   11bbb:	bf 00 00 00 00       	mov    $0x0,%edi
   11bc0:	e8 51 68 ff ff       	callq  8416 <safe_mod_func_int16_t_s_s>
   11bc5:	8b 85 a8 da ff ff    	mov    -0x2558(%rbp),%eax
   11bcb:	8b 15 13 c5 00 00    	mov    0xc513(%rip),%edx        # 1e0e4 <g_130>
   11bd1:	39 d0                	cmp    %edx,%eax
   11bd3:	0f 95 c0             	setne  %al
   11bd6:	0f b6 d0             	movzbl %al,%edx
   11bd9:	8b 85 a8 da ff ff    	mov    -0x2558(%rbp),%eax
   11bdf:	39 c2                	cmp    %eax,%edx
   11be1:	0f 95 c0             	setne  %al
   11be4:	0f b6 c0             	movzbl %al,%eax
   11be7:	be 01 00 00 00       	mov    $0x1,%esi
   11bec:	89 c7                	mov    %eax,%edi
   11bee:	e8 55 72 ff ff       	callq  8e48 <safe_rshift_func_uint16_t_u_s>
   11bf3:	0f b7 c0             	movzwl %ax,%eax
   11bf6:	be 0d 00 00 00       	mov    $0xd,%esi
   11bfb:	89 c7                	mov    %eax,%edi
   11bfd:	e8 04 72 ff ff       	callq  8e06 <safe_lshift_func_uint16_t_u_u>
   11c02:	89 c2                	mov    %eax,%edx
   11c04:	8b 85 d0 da ff ff    	mov    -0x2530(%rbp),%eax
   11c0a:	21 d0                	and    %edx,%eax
   11c0c:	0f be c0             	movsbl %al,%eax
   11c0f:	44 89 ee             	mov    %r13d,%esi
   11c12:	89 c7                	mov    %eax,%edi
   11c14:	e8 53 67 ff ff       	callq  836c <safe_rshift_func_int8_t_s_u>
   11c19:	84 c0                	test   %al,%al
   11c1b:	75 08                	jne    11c25 <func_60+0x2103>
   11c1d:	8b 05 a5 c4 00 00    	mov    0xc4a5(%rip),%eax        # 1e0c8 <g_45>
   11c23:	85 c0                	test   %eax,%eax
   11c25:	be 06 00 00 00       	mov    $0x6,%esi
   11c2a:	bf 01 00 00 00       	mov    $0x1,%edi
   11c2f:	e8 f1 72 ff ff       	callq  8f25 <safe_div_func_uint32_t_u_u>
   11c34:	be 30 e1 7f d6       	mov    $0xd67fe130,%esi
   11c39:	89 c7                	mov    %eax,%edi
   11c3b:	e8 c5 69 ff ff       	callq  8605 <safe_sub_func_int32_t_s_s>
   11c40:	0f be c0             	movsbl %al,%eax
   11c43:	be 06 00 00 00       	mov    $0x6,%esi
   11c48:	89 c7                	mov    %eax,%edi
   11c4a:	e8 9f 66 ff ff       	callq  82ee <safe_lshift_func_int8_t_s_u>
   11c4f:	0f be c0             	movsbl %al,%eax
   11c52:	44 89 e6             	mov    %r12d,%esi
   11c55:	89 c7                	mov    %eax,%edi
   11c57:	e8 78 65 ff ff       	callq  81d4 <safe_add_func_int8_t_s_s>
   11c5c:	0f be c0             	movsbl %al,%eax
   11c5f:	be 00 00 00 00       	mov    $0x0,%esi
   11c64:	89 c7                	mov    %eax,%edi
   11c66:	e8 9a 69 ff ff       	callq  8605 <safe_sub_func_int32_t_s_s>
   11c6b:	8b 95 ac da ff ff    	mov    -0x2554(%rbp),%edx
   11c71:	39 d0                	cmp    %edx,%eax
   11c73:	0f 9f c0             	setg   %al
   11c76:	0f b6 d0             	movzbl %al,%edx
   11c79:	48 8b 85 08 dd ff ff 	mov    -0x22f8(%rbp),%rax
   11c80:	48 89 10             	mov    %rdx,(%rax)
   11c83:	48 8b 85 08 dd ff ff 	mov    -0x22f8(%rbp),%rax
   11c8a:	48 8b 00             	mov    (%rax),%rax
   11c8d:	48 89 de             	mov    %rbx,%rsi
   11c90:	48 89 c7             	mov    %rax,%rdi
   11c93:	e8 1c 6d ff ff       	callq  89b4 <safe_mod_func_int64_t_s_s>
   11c98:	0f b6 c0             	movzbl %al,%eax
   11c9b:	be 04 00 00 00       	mov    $0x4,%esi
   11ca0:	89 c7                	mov    %eax,%edi
   11ca2:	e8 17 70 ff ff       	callq  8cbe <safe_rshift_func_uint8_t_u_u>
   11ca7:	0f b6 d0             	movzbl %al,%edx
   11caa:	8b 85 dc da ff ff    	mov    -0x2524(%rbp),%eax
   11cb0:	39 c2                	cmp    %eax,%edx
   11cb2:	0f 9d c0             	setge  %al
   11cb5:	0f b6 d0             	movzbl %al,%edx
   11cb8:	48 8b 85 10 dd ff ff 	mov    -0x22f0(%rbp),%rax
   11cbf:	0f b7 00             	movzwl (%rax),%eax
   11cc2:	31 c2                	xor    %eax,%edx
   11cc4:	48 8b 85 10 dd ff ff 	mov    -0x22f0(%rbp),%rax
   11ccb:	66 89 10             	mov    %dx,(%rax)
   11cce:	48 8b 85 10 dd ff ff 	mov    -0x22f0(%rbp),%rax
   11cd5:	0f b7 00             	movzwl (%rax),%eax
   11cd8:	98                   	cwtl   
   11cd9:	89 85 e0 da ff ff    	mov    %eax,-0x2520(%rbp)
   11cdf:	48 8b 05 b2 fa 00 00 	mov    0xfab2(%rip),%rax        # 21798 <g_43>
   11ce6:	48 8d 95 ac da ff ff 	lea    -0x2554(%rbp),%rdx
   11ced:	48 89 10             	mov    %rdx,(%rax)
   11cf0:	48 8b 00             	mov    (%rax),%rax
   11cf3:	48 89 05 86 0f 01 00 	mov    %rax,0x10f86(%rip)        # 22c80 <g_166>
   11cfa:	48 c7 85 28 dd ff ff 	movq   $0x0,-0x22d8(%rbp)
   11d01:	00 00 00 00 
   11d05:	48 8d 05 02 c4 00 00 	lea    0xc402(%rip),%rax        # 1e10e <g_224>
   11d0c:	48 89 85 30 dd ff ff 	mov    %rax,-0x22d0(%rbp)
   11d13:	48 8d 05 f6 c3 00 00 	lea    0xc3f6(%rip),%rax        # 1e110 <g_226>
   11d1a:	48 89 85 38 dd ff ff 	mov    %rax,-0x22c8(%rbp)
   11d21:	c7 85 20 db ff ff 00 	movl   $0x0,-0x24e0(%rbp)
   11d28:	00 00 00 
   11d2b:	c7 85 24 db ff ff 00 	movl   $0x0,-0x24dc(%rbp)
   11d32:	00 00 00 
   11d35:	c7 85 28 db ff ff 60 	movl   $0x60ea1d60,-0x24d8(%rbp)
   11d3c:	1d ea 60 
   11d3f:	c7 85 2c db ff ff cc 	movl   $0x73804cc,-0x24d4(%rbp)
   11d46:	04 38 07 
   11d49:	c7 85 30 db ff ff 11 	movl   $0x529a5e11,-0x24d0(%rbp)
   11d50:	5e 9a 52 
   11d53:	c7 85 34 db ff ff 68 	movl   $0x300b8868,-0x24cc(%rbp)
   11d5a:	88 0b 30 
   11d5d:	c7 85 38 db ff ff f6 	movl   $0xfffffff6,-0x24c8(%rbp)
   11d64:	ff ff ff 
   11d67:	c7 85 3c db ff ff 03 	movl   $0xd3d11c03,-0x24c4(%rbp)
   11d6e:	1c d1 d3 
   11d71:	8b 85 e0 da ff ff    	mov    -0x2520(%rbp),%eax
   11d77:	25 17 f0 66 22       	and    $0x2266f017,%eax
   11d7c:	89 85 e0 da ff ff    	mov    %eax,-0x2520(%rbp)
   11d82:	8b 95 e0 da ff ff    	mov    -0x2520(%rbp),%edx
   11d88:	8b 85 9c de ff ff    	mov    -0x2164(%rbp),%eax
   11d8e:	09 d0                	or     %edx,%eax
   11d90:	89 85 9c de ff ff    	mov    %eax,-0x2164(%rbp)
   11d96:	8b 9d dc da ff ff    	mov    -0x2524(%rbp),%ebx
   11d9c:	48 83 bd 18 dd ff ff 	cmpq   $0x0,-0x22e8(%rbp)
   11da3:	00 
   11da4:	74 1b                	je     11dc1 <func_60+0x229f>
   11da6:	be 4b 0f 00 00       	mov    $0xf4b,%esi
   11dab:	bf 01 00 00 00       	mov    $0x1,%edi
   11db0:	e8 88 6f ff ff       	callq  8d3d <safe_mul_func_uint16_t_u_u>
   11db5:	66 85 c0             	test   %ax,%ax
   11db8:	74 07                	je     11dc1 <func_60+0x229f>
   11dba:	b8 01 00 00 00       	mov    $0x1,%eax
   11dbf:	eb 05                	jmp    11dc6 <func_60+0x22a4>
   11dc1:	b8 00 00 00 00       	mov    $0x0,%eax
   11dc6:	0f b6 d0             	movzbl %al,%edx
   11dc9:	8b 85 a8 da ff ff    	mov    -0x2558(%rbp),%eax
   11dcf:	89 c1                	mov    %eax,%ecx
   11dd1:	48 8b 85 10 dd ff ff 	mov    -0x22f0(%rbp),%rax
   11dd8:	66 89 08             	mov    %cx,(%rax)
   11ddb:	48 8b 85 10 dd ff ff 	mov    -0x22f0(%rbp),%rax
   11de2:	0f b7 00             	movzwl (%rax),%eax
   11de5:	83 f0 78             	xor    $0x78,%eax
   11de8:	0f b6 c0             	movzbl %al,%eax
   11deb:	89 d6                	mov    %edx,%esi
   11ded:	89 c7                	mov    %eax,%edi
   11def:	e8 84 6d ff ff       	callq  8b78 <safe_sub_func_uint8_t_u_u>
   11df4:	48 8b 05 95 f9 00 00 	mov    0xf995(%rip),%rax        # 21790 <g_44>
   11dfb:	8b 00                	mov    (%rax),%eax
   11dfd:	83 f0 05             	xor    $0x5,%eax
   11e00:	89 c2                	mov    %eax,%edx
   11e02:	48 8b 85 30 dd ff ff 	mov    -0x22d0(%rbp),%rax
   11e09:	66 89 10             	mov    %dx,(%rax)
   11e0c:	48 8b 85 30 dd ff ff 	mov    -0x22d0(%rbp),%rax
   11e13:	0f b7 00             	movzwl (%rax),%eax
   11e16:	0f bf d0             	movswl %ax,%edx
   11e19:	8b 85 dc da ff ff    	mov    -0x2524(%rbp),%eax
   11e1f:	39 c2                	cmp    %eax,%edx
   11e21:	0f 9f c0             	setg   %al
   11e24:	0f b6 d0             	movzbl %al,%edx
   11e27:	8b 05 9b c2 00 00    	mov    0xc29b(%rip),%eax        # 1e0c8 <g_45>
   11e2d:	39 c2                	cmp    %eax,%edx
   11e2f:	0f 9e c0             	setle  %al
   11e32:	0f b6 c0             	movzbl %al,%eax
   11e35:	89 c7                	mov    %eax,%edi
   11e37:	e8 61 65 ff ff       	callq  839d <safe_unary_minus_func_int16_t_s>
   11e3c:	48 8b 85 38 dd ff ff 	mov    -0x22c8(%rbp),%rax
   11e43:	66 c7 00 07 00       	movw   $0x7,(%rax)
   11e48:	89 de                	mov    %ebx,%esi
   11e4a:	bf 01 00 00 00       	mov    $0x1,%edi
   11e4f:	e8 78 68 ff ff       	callq  86cc <safe_mod_func_int32_t_s_s>
   11e54:	85 c0                	test   %eax,%eax
   11e56:	74 52                	je     11eaa <func_60+0x2388>
   11e58:	c6 85 bb da ff ff f6 	movb   $0xf6,-0x2545(%rbp)
   11e5f:	48 8b 15 32 f9 00 00 	mov    0xf932(%rip),%rdx        # 21798 <g_43>
   11e66:	48 8b 05 2b f9 00 00 	mov    0xf92b(%rip),%rax        # 21798 <g_43>
   11e6d:	48 8b 12             	mov    (%rdx),%rdx
   11e70:	48 89 10             	mov    %rdx,(%rax)
   11e73:	48 8b 05 1e f9 00 00 	mov    0xf91e(%rip),%rax        # 21798 <g_43>
   11e7a:	48 8b 00             	mov    (%rax),%rax
   11e7d:	8b 00                	mov    (%rax),%eax
   11e7f:	85 c0                	test   %eax,%eax
   11e81:	0f 84 ca 02 00 00    	je     12151 <func_60+0x262f>
   11e87:	8b 85 ac da ff ff    	mov    -0x2554(%rbp),%eax
   11e8d:	0f be c0             	movsbl %al,%eax
   11e90:	be 02 00 00 00       	mov    $0x2,%esi
   11e95:	89 c7                	mov    %eax,%edi
   11e97:	e8 38 63 ff ff       	callq  81d4 <safe_add_func_int8_t_s_s>
   11e9c:	0f be c0             	movsbl %al,%eax
   11e9f:	89 85 ac da ff ff    	mov    %eax,-0x2554(%rbp)
   11ea5:	e9 e1 40 00 00       	jmpq   15f8b <func_60+0x6469>
   11eaa:	48 c7 85 08 dc ff ff 	movq   $0x0,-0x23f8(%rbp)
   11eb1:	00 00 00 00 
   11eb5:	48 8d 85 08 dc ff ff 	lea    -0x23f8(%rbp),%rax
   11ebc:	48 89 85 40 dd ff ff 	mov    %rax,-0x22c0(%rbp)
   11ec3:	c7 85 40 db ff ff 00 	movl   $0x0,-0x24c0(%rbp)
   11eca:	00 00 00 
   11ecd:	c7 85 44 db ff ff fa 	movl   $0xfffffffa,-0x24bc(%rbp)
   11ed4:	ff ff ff 
   11ed7:	c7 85 48 db ff ff 00 	movl   $0x0,-0x24b8(%rbp)
   11ede:	00 00 00 
   11ee1:	c7 85 4c db ff ff ff 	movl   $0xffffffff,-0x24b4(%rbp)
   11ee8:	ff ff ff 
   11eeb:	c7 85 50 db ff ff 44 	movl   $0x3bed8244,-0x24b0(%rbp)
   11ef2:	82 ed 3b 
   11ef5:	c7 85 e0 f7 ff ff 01 	movl   $0x1,-0x820(%rbp)
   11efc:	00 00 00 
   11eff:	c7 85 e4 f7 ff ff 6e 	movl   $0x7cdf416e,-0x81c(%rbp)
   11f06:	41 df 7c 
   11f09:	c7 85 e8 f7 ff ff 01 	movl   $0x1,-0x818(%rbp)
   11f10:	00 00 00 
   11f13:	c7 85 ec f7 ff ff 6e 	movl   $0x7cdf416e,-0x814(%rbp)
   11f1a:	41 df 7c 
   11f1d:	c7 85 f0 f7 ff ff 01 	movl   $0x1,-0x810(%rbp)
   11f24:	00 00 00 
   11f27:	c7 85 f4 f7 ff ff 6e 	movl   $0x7cdf416e,-0x80c(%rbp)
   11f2e:	41 df 7c 
   11f31:	c7 85 f8 f7 ff ff 01 	movl   $0x1,-0x808(%rbp)
   11f38:	00 00 00 
   11f3b:	c7 85 fc f7 ff ff 6e 	movl   $0x7cdf416e,-0x804(%rbp)
   11f42:	41 df 7c 
   11f45:	c7 85 00 f8 ff ff 01 	movl   $0x1,-0x800(%rbp)
   11f4c:	00 00 00 
   11f4f:	c7 85 04 f8 ff ff 6e 	movl   $0x7cdf416e,-0x7fc(%rbp)
   11f56:	41 df 7c 
   11f59:	c7 85 08 f8 ff ff 01 	movl   $0x1,-0x7f8(%rbp)
   11f60:	00 00 00 
   11f63:	c7 85 0c f8 ff ff 6e 	movl   $0x7cdf416e,-0x7f4(%rbp)
   11f6a:	41 df 7c 
   11f6d:	c7 85 10 f8 ff ff 01 	movl   $0x1,-0x7f0(%rbp)
   11f74:	00 00 00 
   11f77:	c7 85 14 f8 ff ff 6e 	movl   $0x7cdf416e,-0x7ec(%rbp)
   11f7e:	41 df 7c 
   11f81:	c7 85 18 f8 ff ff 01 	movl   $0x1,-0x7e8(%rbp)
   11f88:	00 00 00 
   11f8b:	c7 85 1c f8 ff ff 6e 	movl   $0x7cdf416e,-0x7e4(%rbp)
   11f92:	41 df 7c 
   11f95:	c7 85 20 f8 ff ff 01 	movl   $0x1,-0x7e0(%rbp)
   11f9c:	00 00 00 
   11f9f:	c7 85 24 f8 ff ff 6e 	movl   $0x7cdf416e,-0x7dc(%rbp)
   11fa6:	41 df 7c 
   11fa9:	c7 85 28 f8 ff ff 01 	movl   $0x1,-0x7d8(%rbp)
   11fb0:	00 00 00 
   11fb3:	c7 85 2c f8 ff ff 6e 	movl   $0x7cdf416e,-0x7d4(%rbp)
   11fba:	41 df 7c 
   11fbd:	c7 85 30 f8 ff ff 01 	movl   $0x1,-0x7d0(%rbp)
   11fc4:	00 00 00 
   11fc7:	c7 85 34 f8 ff ff 6e 	movl   $0x7cdf416e,-0x7cc(%rbp)
   11fce:	41 df 7c 
   11fd1:	c7 85 38 f8 ff ff 01 	movl   $0x1,-0x7c8(%rbp)
   11fd8:	00 00 00 
   11fdb:	c7 85 3c f8 ff ff 6e 	movl   $0x7cdf416e,-0x7c4(%rbp)
   11fe2:	41 df 7c 
   11fe5:	c7 85 40 f8 ff ff 01 	movl   $0x1,-0x7c0(%rbp)
   11fec:	00 00 00 
   11fef:	c7 85 44 f8 ff ff 6e 	movl   $0x7cdf416e,-0x7bc(%rbp)
   11ff6:	41 df 7c 
   11ff9:	c7 85 48 f8 ff ff 01 	movl   $0x1,-0x7b8(%rbp)
   12000:	00 00 00 
   12003:	c7 85 4c f8 ff ff 6e 	movl   $0x7cdf416e,-0x7b4(%rbp)
   1200a:	41 df 7c 
   1200d:	c7 85 50 f8 ff ff 01 	movl   $0x1,-0x7b0(%rbp)
   12014:	00 00 00 
   12017:	c7 85 54 f8 ff ff 6e 	movl   $0x7cdf416e,-0x7ac(%rbp)
   1201e:	41 df 7c 
   12021:	c7 85 58 f8 ff ff 01 	movl   $0x1,-0x7a8(%rbp)
   12028:	00 00 00 
   1202b:	c7 85 5c f8 ff ff 6e 	movl   $0x7cdf416e,-0x7a4(%rbp)
   12032:	41 df 7c 
   12035:	c7 85 60 f8 ff ff 01 	movl   $0x1,-0x7a0(%rbp)
   1203c:	00 00 00 
   1203f:	c7 85 64 f8 ff ff 6e 	movl   $0x7cdf416e,-0x79c(%rbp)
   12046:	41 df 7c 
   12049:	c7 85 68 f8 ff ff 01 	movl   $0x1,-0x798(%rbp)
   12050:	00 00 00 
   12053:	c7 85 6c f8 ff ff 6e 	movl   $0x7cdf416e,-0x794(%rbp)
   1205a:	41 df 7c 
   1205d:	c7 85 70 f8 ff ff 01 	movl   $0x1,-0x790(%rbp)
   12064:	00 00 00 
   12067:	c7 85 74 f8 ff ff 6e 	movl   $0x7cdf416e,-0x78c(%rbp)
   1206e:	41 df 7c 
   12071:	c7 85 78 f8 ff ff 01 	movl   $0x1,-0x788(%rbp)
   12078:	00 00 00 
   1207b:	c7 85 7c f8 ff ff 6e 	movl   $0x7cdf416e,-0x784(%rbp)
   12082:	41 df 7c 
   12085:	c7 85 80 f8 ff ff 01 	movl   $0x1,-0x780(%rbp)
   1208c:	00 00 00 
   1208f:	c7 85 84 f8 ff ff 6e 	movl   $0x7cdf416e,-0x77c(%rbp)
   12096:	41 df 7c 
   12099:	c7 85 88 f8 ff ff 01 	movl   $0x1,-0x778(%rbp)
   120a0:	00 00 00 
   120a3:	c7 85 8c f8 ff ff 6e 	movl   $0x7cdf416e,-0x774(%rbp)
   120aa:	41 df 7c 
   120ad:	c7 85 90 f8 ff ff 01 	movl   $0x1,-0x770(%rbp)
   120b4:	00 00 00 
   120b7:	c7 85 94 f8 ff ff 6e 	movl   $0x7cdf416e,-0x76c(%rbp)
   120be:	41 df 7c 
   120c1:	c7 85 98 f8 ff ff 01 	movl   $0x1,-0x768(%rbp)
   120c8:	00 00 00 
   120cb:	c7 85 9c f8 ff ff 6e 	movl   $0x7cdf416e,-0x764(%rbp)
   120d2:	41 df 7c 
   120d5:	c7 85 a0 f8 ff ff 01 	movl   $0x1,-0x760(%rbp)
   120dc:	00 00 00 
   120df:	c7 85 a4 f8 ff ff 6e 	movl   $0x7cdf416e,-0x75c(%rbp)
   120e6:	41 df 7c 
   120e9:	c7 85 a8 f8 ff ff 01 	movl   $0x1,-0x758(%rbp)
   120f0:	00 00 00 
   120f3:	c7 85 ac f8 ff ff 6e 	movl   $0x7cdf416e,-0x754(%rbp)
   120fa:	41 df 7c 
   120fd:	c7 85 b0 f8 ff ff 01 	movl   $0x1,-0x750(%rbp)
   12104:	00 00 00 
   12107:	c7 85 b4 f8 ff ff 6e 	movl   $0x7cdf416e,-0x74c(%rbp)
   1210e:	41 df 7c 
   12111:	c7 85 b8 f8 ff ff 01 	movl   $0x1,-0x748(%rbp)
   12118:	00 00 00 
   1211b:	c7 85 bc f8 ff ff 6e 	movl   $0x7cdf416e,-0x744(%rbp)
   12122:	41 df 7c 
   12125:	48 8b 85 40 dd ff ff 	mov    -0x22c0(%rbp),%rax
   1212c:	48 8d 15 ed f6 00 00 	lea    0xf6ed(%rip),%rdx        # 21820 <g_108+0x20>
   12133:	48 89 10             	mov    %rdx,(%rax)
   12136:	83 85 3c db ff ff 01 	addl   $0x1,-0x24c4(%rbp)
   1213d:	48 8b 15 54 f6 00 00 	mov    0xf654(%rip),%rdx        # 21798 <g_43>
   12144:	48 8b 05 4d f6 00 00 	mov    0xf64d(%rip),%rax        # 21798 <g_43>
   1214b:	48 8b 12             	mov    (%rdx),%rdx
   1214e:	48 89 10             	mov    %rdx,(%rax)
   12151:	8b 85 dc da ff ff    	mov    -0x2524(%rbp),%eax
   12157:	89 c6                	mov    %eax,%esi
   12159:	bf b1 4e 4e f3       	mov    $0xf34e4eb1,%edi
   1215e:	e8 c2 6d ff ff       	callq  8f25 <safe_div_func_uint32_t_u_u>
   12163:	89 c7                	mov    %eax,%edi
   12165:	e8 3c 6d ff ff       	callq  8ea6 <safe_unary_minus_func_uint32_t_u>
   1216a:	0f b7 15 6f bf 00 00 	movzwl 0xbf6f(%rip),%edx        # 1e0e0 <g_125>
   12171:	0f b7 d2             	movzwl %dx,%edx
   12174:	39 d0                	cmp    %edx,%eax
   12176:	0f 92 c0             	setb   %al
   12179:	0f b6 c0             	movzbl %al,%eax
   1217c:	89 85 e0 da ff ff    	mov    %eax,-0x2520(%rbp)
   12182:	8b 85 e0 da ff ff    	mov    -0x2520(%rbp),%eax
   12188:	89 85 bc de ff ff    	mov    %eax,-0x2144(%rbp)
   1218e:	8b 95 bc de ff ff    	mov    -0x2144(%rbp),%edx
   12194:	8b 85 88 de ff ff    	mov    -0x2178(%rbp),%eax
   1219a:	21 d0                	and    %edx,%eax
   1219c:	89 85 88 de ff ff    	mov    %eax,-0x2178(%rbp)
   121a2:	66 c7 05 50 bf 00 00 	movw   $0x0,0xbf50(%rip)        # 1e0fb <g_140+0xb>
   121a9:	00 00 
   121ab:	eb 34                	jmp    121e1 <func_60+0x26bf>
   121ad:	48 b8 13 c0 d9 3a ef 	movabs $0xe5396fef3ad9c013,%rax
   121b4:	6f 39 e5 
   121b7:	48 89 85 50 de ff ff 	mov    %rax,-0x21b0(%rbp)
   121be:	c7 85 d4 da ff ff 00 	movl   $0x0,-0x252c(%rbp)
   121c5:	00 00 00 
   121c8:	48 83 ad 50 de ff ff 	subq   $0x1,-0x21b0(%rbp)
   121cf:	01 
   121d0:	0f b7 05 24 bf 00 00 	movzwl 0xbf24(%rip),%eax        # 1e0fb <g_140+0xb>
   121d7:	83 c0 01             	add    $0x1,%eax
   121da:	66 89 05 1a bf 00 00 	mov    %ax,0xbf1a(%rip)        # 1e0fb <g_140+0xb>
   121e1:	0f b7 05 13 bf 00 00 	movzwl 0xbf13(%rip),%eax        # 1e0fb <g_140+0xb>
   121e8:	66 83 f8 06          	cmp    $0x6,%ax
   121ec:	76 bf                	jbe    121ad <func_60+0x268b>
   121ee:	8b 85 a8 da ff ff    	mov    -0x2558(%rbp),%eax
   121f4:	0f bf d8             	movswl %ax,%ebx
   121f7:	8b 95 a8 da ff ff    	mov    -0x2558(%rbp),%edx
   121fd:	0f be 85 ba da ff ff 	movsbl -0x2546(%rbp),%eax
   12204:	89 d6                	mov    %edx,%esi
   12206:	89 c7                	mov    %eax,%edi
   12208:	e8 5f 61 ff ff       	callq  836c <safe_rshift_func_int8_t_s_u>
   1220d:	0f be c0             	movsbl %al,%eax
   12210:	89 c6                	mov    %eax,%esi
   12212:	bf 56 fe 0e 41       	mov    $0x410efe56,%edi
   12217:	e8 e9 63 ff ff       	callq  8605 <safe_sub_func_int32_t_s_s>
   1221c:	0f b6 c0             	movzbl %al,%eax
   1221f:	be 06 00 00 00       	mov    $0x6,%esi
   12224:	89 c7                	mov    %eax,%edi
   12226:	e8 93 6a ff ff       	callq  8cbe <safe_rshift_func_uint8_t_u_u>
   1222b:	0f b6 d0             	movzbl %al,%edx
   1222e:	48 8b 85 18 dd ff ff 	mov    -0x22e8(%rbp),%rax
   12235:	48 8b 08             	mov    (%rax),%rcx
   12238:	48 8b 85 f8 db ff ff 	mov    -0x2408(%rbp),%rax
   1223f:	48 39 c1             	cmp    %rax,%rcx
   12242:	0f 95 c0             	setne  %al
   12245:	0f b6 c0             	movzbl %al,%eax
   12248:	39 c2                	cmp    %eax,%edx
   1224a:	0f 9f c0             	setg   %al
   1224d:	0f b6 d0             	movzbl %al,%edx
   12250:	8b 85 30 df ff ff    	mov    -0x20d0(%rbp),%eax
   12256:	09 d0                	or     %edx,%eax
   12258:	89 85 30 df ff ff    	mov    %eax,-0x20d0(%rbp)
   1225e:	48 8b 95 40 f3 ff ff 	mov    -0xcc0(%rbp),%rdx
   12265:	48 8b 05 1c 0a 01 00 	mov    0x10a1c(%rip),%rax        # 22c88 <g_313>
   1226c:	48 39 c2             	cmp    %rax,%rdx
   1226f:	0f 95 c0             	setne  %al
   12272:	0f b6 d0             	movzbl %al,%edx
   12275:	48 8b 85 10 dd ff ff 	mov    -0x22f0(%rbp),%rax
   1227c:	66 89 10             	mov    %dx,(%rax)
   1227f:	48 8b 85 10 dd ff ff 	mov    -0x22f0(%rbp),%rax
   12286:	0f b7 00             	movzwl (%rax),%eax
   12289:	98                   	cwtl   
   1228a:	89 de                	mov    %ebx,%esi
   1228c:	89 c7                	mov    %eax,%edi
   1228e:	e8 40 61 ff ff       	callq  83d3 <safe_sub_func_int16_t_s_s>
   12293:	66 85 c0             	test   %ax,%ax
   12296:	0f 84 9e 01 00 00    	je     1243a <func_60+0x2918>
   1229c:	48 8d 05 d5 f5 00 00 	lea    0xf5d5(%rip),%rax        # 21878 <g_260+0x38>
   122a3:	48 89 85 48 de ff ff 	mov    %rax,-0x21b8(%rbp)
   122aa:	48 8b 05 cf 09 01 00 	mov    0x109cf(%rip),%rax        # 22c80 <g_166>
   122b1:	8b 00                	mov    (%rax),%eax
   122b3:	85 c0                	test   %eax,%eax
   122b5:	74 0b                	je     122c2 <func_60+0x27a0>
   122b7:	8b 85 ac da ff ff    	mov    -0x2554(%rbp),%eax
   122bd:	e9 c6 3f 00 00       	jmpq   16288 <func_60+0x6766>
   122c2:	48 8b 15 cf f4 00 00 	mov    0xf4cf(%rip),%rdx        # 21798 <g_43>
   122c9:	48 8b 05 c8 f4 00 00 	mov    0xf4c8(%rip),%rax        # 21798 <g_43>
   122d0:	48 8b 12             	mov    (%rdx),%rdx
   122d3:	48 89 10             	mov    %rdx,(%rax)
   122d6:	c6 05 1b be 00 00 00 	movb   $0x0,0xbe1b(%rip)        # 1e0f8 <g_140+0x8>
   122dd:	90                   	nop
   122de:	0f b6 05 13 be 00 00 	movzbl 0xbe13(%rip),%eax        # 1e0f8 <g_140+0x8>
   122e5:	3c 1d                	cmp    $0x1d,%al
   122e7:	0f 86 42 01 00 00    	jbe    1242f <func_60+0x290d>
   122ed:	8b 85 ac da ff ff    	mov    -0x2554(%rbp),%eax
   122f3:	0f b6 d0             	movzbl %al,%edx
   122f6:	48 8b 85 e0 db ff ff 	mov    -0x2420(%rbp),%rax
   122fd:	8b 00                	mov    (%rax),%eax
   122ff:	83 f0 98             	xor    $0xffffff98,%eax
   12302:	0f b6 c0             	movzbl %al,%eax
   12305:	89 d6                	mov    %edx,%esi
   12307:	89 c7                	mov    %eax,%edi
   12309:	e8 4c 68 ff ff       	callq  8b5a <safe_add_func_uint8_t_u_u>
   1230e:	3c 01                	cmp    $0x1,%al
   12310:	0f 84 a0 00 00 00    	je     123b6 <func_60+0x2894>
   12316:	8b 85 a8 da ff ff    	mov    -0x2558(%rbp),%eax
   1231c:	0f b7 d8             	movzwl %ax,%ebx
   1231f:	8b 85 ac da ff ff    	mov    -0x2554(%rbp),%eax
   12325:	0f bf d0             	movswl %ax,%edx
   12328:	48 8b 85 20 dd ff ff 	mov    -0x22e0(%rbp),%rax
   1232f:	48 8b 08             	mov    (%rax),%rcx
   12332:	48 8b 85 20 dd ff ff 	mov    -0x22e0(%rbp),%rax
   12339:	48 89 08             	mov    %rcx,(%rax)
   1233c:	48 8b 85 20 dd ff ff 	mov    -0x22e0(%rbp),%rax
   12343:	48 8b 00             	mov    (%rax),%rax
   12346:	48 39 85 48 de ff ff 	cmp    %rax,-0x21b8(%rbp)
   1234d:	0f 95 c0             	setne  %al
   12350:	0f b6 c8             	movzbl %al,%ecx
   12353:	8b 05 07 be 00 00    	mov    0xbe07(%rip),%eax        # 1e160 <g_231+0x40>
   12359:	39 c1                	cmp    %eax,%ecx
   1235b:	75 0a                	jne    12367 <func_60+0x2845>
   1235d:	8b 85 ac da ff ff    	mov    -0x2554(%rbp),%eax
   12363:	85 c0                	test   %eax,%eax
   12365:	74 07                	je     1236e <func_60+0x284c>
   12367:	b8 01 00 00 00       	mov    $0x1,%eax
   1236c:	eb 05                	jmp    12373 <func_60+0x2851>
   1236e:	b8 00 00 00 00       	mov    $0x0,%eax
   12373:	98                   	cwtl   
   12374:	89 d6                	mov    %edx,%esi
   12376:	89 c7                	mov    %eax,%edi
   12378:	e8 78 60 ff ff       	callq  83f5 <safe_mul_func_int16_t_s_s>
   1237d:	8b 95 ac da ff ff    	mov    -0x2554(%rbp),%edx
   12383:	8b 85 30 df ff ff    	mov    -0x20d0(%rbp),%eax
   12389:	09 d0                	or     %edx,%eax
   1238b:	89 85 30 df ff ff    	mov    %eax,-0x20d0(%rbp)
   12391:	8b 85 30 df ff ff    	mov    -0x20d0(%rbp),%eax
   12397:	0f b7 c0             	movzwl %ax,%eax
   1239a:	89 de                	mov    %ebx,%esi
   1239c:	89 c7                	mov    %eax,%edi
   1239e:	e8 9a 69 ff ff       	callq  8d3d <safe_mul_func_uint16_t_u_u>
   123a3:	0f b6 c0             	movzbl %al,%eax
   123a6:	be 00 00 00 00       	mov    $0x0,%esi
   123ab:	89 c7                	mov    %eax,%edi
   123ad:	e8 a8 67 ff ff       	callq  8b5a <safe_add_func_uint8_t_u_u>
   123b2:	84 c0                	test   %al,%al
   123b4:	75 07                	jne    123bd <func_60+0x289b>
   123b6:	b8 01 00 00 00       	mov    $0x1,%eax
   123bb:	eb 05                	jmp    123c2 <func_60+0x28a0>
   123bd:	b8 00 00 00 00       	mov    $0x0,%eax
   123c2:	89 c7                	mov    %eax,%edi
   123c4:	e8 cd 61 ff ff       	callq  8596 <safe_unary_minus_func_int32_t_s>
   123c9:	85 c0                	test   %eax,%eax
   123cb:	75 0c                	jne    123d9 <func_60+0x28b7>
   123cd:	0f b7 05 3a bd 00 00 	movzwl 0xbd3a(%rip),%eax        # 1e10e <g_224>
   123d4:	66 85 c0             	test   %ax,%ax
   123d7:	74 07                	je     123e0 <func_60+0x28be>
   123d9:	b8 01 00 00 00       	mov    $0x1,%eax
   123de:	eb 05                	jmp    123e5 <func_60+0x28c3>
   123e0:	b8 00 00 00 00       	mov    $0x0,%eax
   123e5:	48 63 d0             	movslq %eax,%rdx
   123e8:	0f b6 05 c9 bd 00 00 	movzbl 0xbdc9(%rip),%eax        # 1e1b8 <g_271+0x8>
   123ef:	0f b6 c0             	movzbl %al,%eax
   123f2:	48 89 d6             	mov    %rdx,%rsi
   123f5:	48 89 c7             	mov    %rax,%rdi
   123f8:	e8 44 64 ff ff       	callq  8841 <safe_add_func_int64_t_s_s>
   123fd:	89 c6                	mov    %eax,%esi
   123ff:	bf ff ff ff ff       	mov    $0xffffffff,%edi
   12404:	e8 ad 61 ff ff       	callq  85b6 <safe_add_func_int32_t_s_s>
   12409:	66 89 05 b8 bd 00 00 	mov    %ax,0xbdb8(%rip)        # 1e1c8 <g_331>
   12410:	48 8b 15 81 f3 00 00 	mov    0xf381(%rip),%rdx        # 21798 <g_43>
   12417:	48 8b 05 7a f3 00 00 	mov    0xf37a(%rip),%rax        # 21798 <g_43>
   1241e:	48 8b 12             	mov    (%rdx),%rdx
   12421:	48 89 10             	mov    %rdx,(%rax)
   12424:	8b 85 a8 da ff ff    	mov    -0x2558(%rbp),%eax
   1242a:	e9 59 3e 00 00       	jmpq   16288 <func_60+0x6766>
   1242f:	8b 85 cc da ff ff    	mov    -0x2534(%rbp),%eax
   12435:	e9 4e 3e 00 00       	jmpq   16288 <func_60+0x6766>
   1243a:	c7 85 54 db ff ff ac 	movl   $0xa7cd64ac,-0x24ac(%rbp)
   12441:	64 cd a7 
   12444:	48 8d 85 e4 da ff ff 	lea    -0x251c(%rbp),%rax
   1244b:	48 89 85 48 dd ff ff 	mov    %rax,-0x22b8(%rbp)
   12452:	c7 85 58 db ff ff 9a 	movl   $0x76a0469a,-0x24a8(%rbp)
   12459:	46 a0 76 
   1245c:	c7 85 5c db ff ff 23 	movl   $0xaeae5323,-0x24a4(%rbp)
   12463:	53 ae ae 
   12466:	48 8d 85 10 ec ff ff 	lea    -0x13f0(%rbp),%rax
   1246d:	48 8d 15 2c 77 00 00 	lea    0x772c(%rip),%rdx        # 19ba0 <g_386+0xb4c>
   12474:	b9 7e 00 00 00       	mov    $0x7e,%ecx
   12479:	48 89 c7             	mov    %rax,%rdi
   1247c:	48 89 d6             	mov    %rdx,%rsi
   1247f:	f3 48 a5             	rep movsq %ds:(%rsi),%es:(%rdi)
   12482:	48 8d 05 47 bc 00 00 	lea    0xbc47(%rip),%rax        # 1e0d0 <g_96>
   12489:	48 89 85 50 dd ff ff 	mov    %rax,-0x22b0(%rbp)
   12490:	83 ad 54 db ff ff 01 	subl   $0x1,-0x24ac(%rbp)
   12497:	8b 85 ac da ff ff    	mov    -0x2554(%rbp),%eax
   1249d:	89 c2                	mov    %eax,%edx
   1249f:	48 8b 85 48 dd ff ff 	mov    -0x22b8(%rbp),%rax
   124a6:	89 10                	mov    %edx,(%rax)
   124a8:	8b 85 ac da ff ff    	mov    -0x2554(%rbp),%eax
   124ae:	85 c0                	test   %eax,%eax
   124b0:	0f 84 ee 04 00 00    	je     129a4 <func_60+0x2e82>
   124b6:	48 8d 85 f8 db ff ff 	lea    -0x2408(%rbp),%rax
   124bd:	48 89 85 00 dc ff ff 	mov    %rax,-0x2400(%rbp)
   124c4:	48 8d 85 a0 de ff ff 	lea    -0x2160(%rbp),%rax
   124cb:	48 89 85 08 dc ff ff 	mov    %rax,-0x23f8(%rbp)
   124d2:	48 8d 85 08 dc ff ff 	lea    -0x23f8(%rbp),%rax
   124d9:	48 89 85 20 e3 ff ff 	mov    %rax,-0x1ce0(%rbp)
   124e0:	48 8d 85 08 dc ff ff 	lea    -0x23f8(%rbp),%rax
   124e7:	48 89 85 28 e3 ff ff 	mov    %rax,-0x1cd8(%rbp)
   124ee:	48 8d 85 08 dc ff ff 	lea    -0x23f8(%rbp),%rax
   124f5:	48 89 85 30 e3 ff ff 	mov    %rax,-0x1cd0(%rbp)
   124fc:	48 8d 85 08 dc ff ff 	lea    -0x23f8(%rbp),%rax
   12503:	48 89 85 38 e3 ff ff 	mov    %rax,-0x1cc8(%rbp)
   1250a:	48 8d 85 08 dc ff ff 	lea    -0x23f8(%rbp),%rax
   12511:	48 89 85 40 e3 ff ff 	mov    %rax,-0x1cc0(%rbp)
   12518:	48 8d 85 08 dc ff ff 	lea    -0x23f8(%rbp),%rax
   1251f:	48 89 85 48 e3 ff ff 	mov    %rax,-0x1cb8(%rbp)
   12526:	48 8d 85 08 dc ff ff 	lea    -0x23f8(%rbp),%rax
   1252d:	48 89 85 50 e3 ff ff 	mov    %rax,-0x1cb0(%rbp)
   12534:	48 8d 85 08 dc ff ff 	lea    -0x23f8(%rbp),%rax
   1253b:	48 89 85 58 e3 ff ff 	mov    %rax,-0x1ca8(%rbp)
   12542:	48 8d 85 08 dc ff ff 	lea    -0x23f8(%rbp),%rax
   12549:	48 89 85 60 e3 ff ff 	mov    %rax,-0x1ca0(%rbp)
   12550:	48 8d 85 08 dc ff ff 	lea    -0x23f8(%rbp),%rax
   12557:	48 89 85 68 e3 ff ff 	mov    %rax,-0x1c98(%rbp)
   1255e:	48 c7 85 70 e3 ff ff 	movq   $0x0,-0x1c90(%rbp)
   12565:	00 00 00 00 
   12569:	48 8d 85 08 dc ff ff 	lea    -0x23f8(%rbp),%rax
   12570:	48 89 85 78 e3 ff ff 	mov    %rax,-0x1c88(%rbp)
   12577:	48 c7 85 80 e3 ff ff 	movq   $0x0,-0x1c80(%rbp)
   1257e:	00 00 00 00 
   12582:	48 8d 85 08 dc ff ff 	lea    -0x23f8(%rbp),%rax
   12589:	48 89 85 88 e3 ff ff 	mov    %rax,-0x1c78(%rbp)
   12590:	48 c7 85 90 e3 ff ff 	movq   $0x0,-0x1c70(%rbp)
   12597:	00 00 00 00 
   1259b:	48 8d 85 08 dc ff ff 	lea    -0x23f8(%rbp),%rax
   125a2:	48 89 85 98 e3 ff ff 	mov    %rax,-0x1c68(%rbp)
   125a9:	48 c7 85 a0 e3 ff ff 	movq   $0x0,-0x1c60(%rbp)
   125b0:	00 00 00 00 
   125b4:	48 8d 85 08 dc ff ff 	lea    -0x23f8(%rbp),%rax
   125bb:	48 89 85 a8 e3 ff ff 	mov    %rax,-0x1c58(%rbp)
   125c2:	48 c7 85 b0 e3 ff ff 	movq   $0x0,-0x1c50(%rbp)
   125c9:	00 00 00 00 
   125cd:	48 8d 85 08 dc ff ff 	lea    -0x23f8(%rbp),%rax
   125d4:	48 89 85 b8 e3 ff ff 	mov    %rax,-0x1c48(%rbp)
   125db:	48 8d 85 08 dc ff ff 	lea    -0x23f8(%rbp),%rax
   125e2:	48 89 85 c0 e3 ff ff 	mov    %rax,-0x1c40(%rbp)
   125e9:	48 8d 85 08 dc ff ff 	lea    -0x23f8(%rbp),%rax
   125f0:	48 89 85 c8 e3 ff ff 	mov    %rax,-0x1c38(%rbp)
   125f7:	48 8d 85 08 dc ff ff 	lea    -0x23f8(%rbp),%rax
   125fe:	48 89 85 d0 e3 ff ff 	mov    %rax,-0x1c30(%rbp)
   12605:	48 8d 85 08 dc ff ff 	lea    -0x23f8(%rbp),%rax
   1260c:	48 89 85 d8 e3 ff ff 	mov    %rax,-0x1c28(%rbp)
   12613:	48 8d 85 08 dc ff ff 	lea    -0x23f8(%rbp),%rax
   1261a:	48 89 85 e0 e3 ff ff 	mov    %rax,-0x1c20(%rbp)
   12621:	48 8d 85 08 dc ff ff 	lea    -0x23f8(%rbp),%rax
   12628:	48 89 85 e8 e3 ff ff 	mov    %rax,-0x1c18(%rbp)
   1262f:	48 8d 85 08 dc ff ff 	lea    -0x23f8(%rbp),%rax
   12636:	48 89 85 f0 e3 ff ff 	mov    %rax,-0x1c10(%rbp)
   1263d:	48 8d 85 08 dc ff ff 	lea    -0x23f8(%rbp),%rax
   12644:	48 89 85 f8 e3 ff ff 	mov    %rax,-0x1c08(%rbp)
   1264b:	48 8d 85 08 dc ff ff 	lea    -0x23f8(%rbp),%rax
   12652:	48 89 85 00 e4 ff ff 	mov    %rax,-0x1c00(%rbp)
   12659:	48 8d 85 08 dc ff ff 	lea    -0x23f8(%rbp),%rax
   12660:	48 89 85 08 e4 ff ff 	mov    %rax,-0x1bf8(%rbp)
   12667:	48 c7 85 10 e4 ff ff 	movq   $0x0,-0x1bf0(%rbp)
   1266e:	00 00 00 00 
   12672:	48 8d 85 08 dc ff ff 	lea    -0x23f8(%rbp),%rax
   12679:	48 89 85 18 e4 ff ff 	mov    %rax,-0x1be8(%rbp)
   12680:	48 c7 85 20 e4 ff ff 	movq   $0x0,-0x1be0(%rbp)
   12687:	00 00 00 00 
   1268b:	48 8d 85 08 dc ff ff 	lea    -0x23f8(%rbp),%rax
   12692:	48 89 85 28 e4 ff ff 	mov    %rax,-0x1bd8(%rbp)
   12699:	48 c7 85 30 e4 ff ff 	movq   $0x0,-0x1bd0(%rbp)
   126a0:	00 00 00 00 
   126a4:	48 8d 85 08 dc ff ff 	lea    -0x23f8(%rbp),%rax
   126ab:	48 89 85 38 e4 ff ff 	mov    %rax,-0x1bc8(%rbp)
   126b2:	48 c7 85 40 e4 ff ff 	movq   $0x0,-0x1bc0(%rbp)
   126b9:	00 00 00 00 
   126bd:	48 8d 85 08 dc ff ff 	lea    -0x23f8(%rbp),%rax
   126c4:	48 89 85 48 e4 ff ff 	mov    %rax,-0x1bb8(%rbp)
   126cb:	48 c7 85 50 e4 ff ff 	movq   $0x0,-0x1bb0(%rbp)
   126d2:	00 00 00 00 
   126d6:	48 8d 85 08 dc ff ff 	lea    -0x23f8(%rbp),%rax
   126dd:	48 89 85 58 e4 ff ff 	mov    %rax,-0x1ba8(%rbp)
   126e4:	48 8d 05 0d ba 00 00 	lea    0xba0d(%rip),%rax        # 1e0f8 <g_140+0x8>
   126eb:	48 89 85 78 dd ff ff 	mov    %rax,-0x2288(%rbp)
   126f2:	48 c7 85 80 dd ff ff 	movq   $0x0,-0x2280(%rbp)
   126f9:	00 00 00 00 
   126fd:	48 8d 85 e0 f7 ff ff 	lea    -0x820(%rbp),%rax
   12704:	48 8d 15 f5 e6 00 00 	lea    0xe6f5(%rip),%rdx        # 20e00 <g_1685+0x14ca>
   1270b:	b9 f0 00 00 00       	mov    $0xf0,%ecx
   12710:	48 89 c7             	mov    %rax,%rdi
   12713:	48 89 d6             	mov    %rdx,%rsi
   12716:	f3 48 a5             	rep movsq %ds:(%rsi),%es:(%rdi)
   12719:	c7 85 60 db ff ff f9 	movl   $0xfffffff9,-0x24a0(%rbp)
   12720:	ff ff ff 
   12723:	48 8d 85 b6 da ff ff 	lea    -0x254a(%rbp),%rax
   1272a:	48 89 85 88 dd ff ff 	mov    %rax,-0x2278(%rbp)
   12731:	48 8d 85 f0 e8 ff ff 	lea    -0x1710(%rbp),%rax
   12738:	48 8d 15 61 78 00 00 	lea    0x7861(%rip),%rdx        # 19fa0 <g_386+0xf4c>
   1273f:	b9 64 00 00 00       	mov    $0x64,%ecx
   12744:	48 89 c7             	mov    %rax,%rdi
   12747:	48 89 d6             	mov    %rdx,%rsi
   1274a:	f3 48 a5             	rep movsq %ds:(%rsi),%es:(%rdi)
   1274d:	c7 85 64 db ff ff 01 	movl   $0x1,-0x249c(%rbp)
   12754:	00 00 00 
   12757:	c7 85 f0 da ff ff 00 	movl   $0x0,-0x2510(%rbp)
   1275e:	00 00 00 
   12761:	eb 1e                	jmp    12781 <func_60+0x2c5f>
   12763:	8b 85 f0 da ff ff    	mov    -0x2510(%rbp),%eax
   12769:	48 98                	cltq   
   1276b:	48 8d 95 00 dc ff ff 	lea    -0x2400(%rbp),%rdx
   12772:	48 89 94 c5 a0 de ff 	mov    %rdx,-0x2160(%rbp,%rax,8)
   12779:	ff 
   1277a:	83 85 f0 da ff ff 01 	addl   $0x1,-0x2510(%rbp)
   12781:	83 bd f0 da ff ff 01 	cmpl   $0x1,-0x2510(%rbp)
   12788:	7e d9                	jle    12763 <func_60+0x2c41>
   1278a:	8b 05 fc b9 00 00    	mov    0xb9fc(%rip),%eax        # 1e18c <g_231+0x6c>
   12790:	0f bf d8             	movswl %ax,%ebx
   12793:	44 8b a5 ac da ff ff 	mov    -0x2554(%rbp),%r12d
   1279a:	8b 85 54 db ff ff    	mov    -0x24ac(%rbp),%eax
   127a0:	44 0f b6 e8          	movzbl %al,%r13d
   127a4:	be 05 00 00 00       	mov    $0x5,%esi
   127a9:	bf 00 00 00 00       	mov    $0x0,%edi
   127ae:	e8 52 64 ff ff       	callq  8c05 <safe_lshift_func_uint8_t_u_s>
   127b3:	48 c7 c2 ff ff ff ff 	mov    $0xffffffffffffffff,%rdx
   127ba:	8b 85 9c e1 ff ff    	mov    -0x1e64(%rbp),%eax
   127c0:	21 d0                	and    %edx,%eax
   127c2:	89 85 9c e1 ff ff    	mov    %eax,-0x1e64(%rbp)
   127c8:	8b 85 9c e1 ff ff    	mov    -0x1e64(%rbp),%eax
   127ce:	89 c2                	mov    %eax,%edx
   127d0:	8b 85 ac da ff ff    	mov    -0x2554(%rbp),%eax
   127d6:	09 d0                	or     %edx,%eax
   127d8:	44 0f be f0          	movsbl %al,%r14d
   127dc:	8b 85 c0 da ff ff    	mov    -0x2540(%rbp),%eax
   127e2:	89 c2                	mov    %eax,%edx
   127e4:	8b 85 d0 da ff ff    	mov    -0x2530(%rbp),%eax
   127ea:	09 d0                	or     %edx,%eax
   127ec:	89 85 c0 da ff ff    	mov    %eax,-0x2540(%rbp)
   127f2:	8b 85 c0 da ff ff    	mov    -0x2540(%rbp),%eax
   127f8:	0f b6 c0             	movzbl %al,%eax
   127fb:	be 01 00 00 00       	mov    $0x1,%esi
   12800:	89 c7                	mov    %eax,%edi
   12802:	e8 b7 64 ff ff       	callq  8cbe <safe_rshift_func_uint8_t_u_u>
   12807:	0f be c0             	movsbl %al,%eax
   1280a:	44 89 f6             	mov    %r14d,%esi
   1280d:	89 c7                	mov    %eax,%edi
   1280f:	e8 de 59 ff ff       	callq  81f2 <safe_sub_func_int8_t_s_s>
   12814:	0f b6 c0             	movzbl %al,%eax
   12817:	44 89 ee             	mov    %r13d,%esi
   1281a:	89 c7                	mov    %eax,%edi
   1281c:	e8 72 63 ff ff       	callq  8b93 <safe_mul_func_uint8_t_u_u>
   12821:	0f b6 d0             	movzbl %al,%edx
   12824:	48 8b 85 78 dd ff ff 	mov    -0x2288(%rbp),%rax
   1282b:	0f b6 00             	movzbl (%rax),%eax
   1282e:	8d 70 01             	lea    0x1(%rax),%esi
   12831:	48 8b 8d 78 dd ff ff 	mov    -0x2288(%rbp),%rcx
   12838:	40 88 31             	mov    %sil,(%rcx)
   1283b:	0f b6 c0             	movzbl %al,%eax
   1283e:	89 d6                	mov    %edx,%esi
   12840:	89 c7                	mov    %eax,%edi
   12842:	e8 4c 63 ff ff       	callq  8b93 <safe_mul_func_uint8_t_u_u>
   12847:	0f b6 d0             	movzbl %al,%edx
   1284a:	8b 85 a8 da ff ff    	mov    -0x2558(%rbp),%eax
   12850:	39 c2                	cmp    %eax,%edx
   12852:	0f 97 c0             	seta   %al
   12855:	0f b6 c0             	movzbl %al,%eax
   12858:	be 01 00 00 00       	mov    $0x1,%esi
   1285d:	89 c7                	mov    %eax,%edi
   1285f:	e8 6c 66 ff ff       	callq  8ed0 <safe_sub_func_uint32_t_u_u>
   12864:	0f b7 c0             	movzwl %ax,%eax
   12867:	44 89 e6             	mov    %r12d,%esi
   1286a:	89 c7                	mov    %eax,%edi
   1286c:	e8 4d 65 ff ff       	callq  8dbe <safe_lshift_func_uint16_t_u_s>
   12871:	0f b7 c0             	movzwl %ax,%eax
   12874:	89 85 60 db ff ff    	mov    %eax,-0x24a0(%rbp)
   1287a:	48 8b 85 88 dd ff ff 	mov    -0x2278(%rbp),%rax
   12881:	c6 00 01             	movb   $0x1,(%rax)
   12884:	48 8b 85 88 dd ff ff 	mov    -0x2278(%rbp),%rax
   1288b:	0f b6 00             	movzbl (%rax),%eax
   1288e:	0f be d0             	movsbl %al,%edx
   12891:	48 8b 85 30 e4 ff ff 	mov    -0x1bd0(%rbp),%rax
   12898:	48 39 85 68 dc ff ff 	cmp    %rax,-0x2398(%rbp)
   1289f:	0f 95 c0             	setne  %al
   128a2:	0f b6 c0             	movzbl %al,%eax
   128a5:	89 d6                	mov    %edx,%esi
   128a7:	89 c7                	mov    %eax,%edi
   128a9:	e8 64 59 ff ff       	callq  8212 <safe_mul_func_int8_t_s_s>
   128ae:	0f be d0             	movsbl %al,%edx
   128b1:	8b 85 a8 da ff ff    	mov    -0x2558(%rbp),%eax
   128b7:	39 c2                	cmp    %eax,%edx
   128b9:	0f 92 c0             	setb   %al
   128bc:	0f b6 c0             	movzbl %al,%eax
   128bf:	89 de                	mov    %ebx,%esi
   128c1:	89 c7                	mov    %eax,%edi
   128c3:	e8 0b 5b ff ff       	callq  83d3 <safe_sub_func_int16_t_s_s>
   128c8:	0f bf d0             	movswl %ax,%edx
   128cb:	0f b7 05 3a b8 00 00 	movzwl 0xb83a(%rip),%eax        # 1e10c <g_211>
   128d2:	66 85 c0             	test   %ax,%ax
   128d5:	0f 94 c0             	sete   %al
   128d8:	0f b6 c0             	movzbl %al,%eax
   128db:	89 d6                	mov    %edx,%esi
   128dd:	89 c7                	mov    %eax,%edi
   128df:	e8 d2 5c ff ff       	callq  85b6 <safe_add_func_int32_t_s_s>
   128e4:	89 05 1e b8 00 00    	mov    %eax,0xb81e(%rip)        # 1e108 <g_207>
   128ea:	0f b6 05 c7 b8 00 00 	movzbl 0xb8c7(%rip),%eax        # 1e1b8 <g_271+0x8>
   128f1:	0f b6 c0             	movzbl %al,%eax
   128f4:	be 03 00 00 00       	mov    $0x3,%esi
   128f9:	89 c7                	mov    %eax,%edi
   128fb:	e8 8d 63 ff ff       	callq  8c8d <safe_rshift_func_uint8_t_u_s>
   12900:	84 c0                	test   %al,%al
   12902:	74 13                	je     12917 <func_60+0x2df5>
   12904:	0f b7 05 05 b8 00 00 	movzwl 0xb805(%rip),%eax        # 1e110 <g_226>
   1290b:	66 85 c0             	test   %ax,%ax
   1290e:	74 07                	je     12917 <func_60+0x2df5>
   12910:	b8 01 00 00 00       	mov    $0x1,%eax
   12915:	eb 05                	jmp    1291c <func_60+0x2dfa>
   12917:	b8 00 00 00 00       	mov    $0x0,%eax
   1291c:	89 c2                	mov    %eax,%edx
   1291e:	8b 05 a8 b8 00 00    	mov    0xb8a8(%rip),%eax        # 1e1cc <g_374>
   12924:	09 d0                	or     %edx,%eax
   12926:	89 05 a0 b8 00 00    	mov    %eax,0xb8a0(%rip)        # 1e1cc <g_374>
   1292c:	8b 05 9a b8 00 00    	mov    0xb89a(%rip),%eax        # 1e1cc <g_374>
   12932:	89 c2                	mov    %eax,%edx
   12934:	0f b7 05 95 b8 00 00 	movzwl 0xb895(%rip),%eax        # 1e1d0 <g_375>
   1293b:	31 d0                	xor    %edx,%eax
   1293d:	66 89 05 8c b8 00 00 	mov    %ax,0xb88c(%rip)        # 1e1d0 <g_375>
   12944:	0f b7 05 85 b8 00 00 	movzwl 0xb885(%rip),%eax        # 1e1d0 <g_375>
   1294b:	0f b6 d0             	movzbl %al,%edx
   1294e:	48 8b 05 33 03 01 00 	mov    0x10333(%rip),%rax        # 22c88 <g_313>
   12955:	48 85 c0             	test   %rax,%rax
   12958:	0f 95 c0             	setne  %al
   1295b:	0f b6 c0             	movzbl %al,%eax
   1295e:	39 85 54 db ff ff    	cmp    %eax,-0x24ac(%rbp)
   12964:	0f 92 c0             	setb   %al
   12967:	0f b6 c0             	movzbl %al,%eax
   1296a:	89 d6                	mov    %edx,%esi
   1296c:	89 c7                	mov    %eax,%edi
   1296e:	e8 e7 61 ff ff       	callq  8b5a <safe_add_func_uint8_t_u_u>
   12973:	0f b6 d0             	movzbl %al,%edx
   12976:	8b 85 c8 da ff ff    	mov    -0x2538(%rbp),%eax
   1297c:	09 d0                	or     %edx,%eax
   1297e:	89 85 c8 da ff ff    	mov    %eax,-0x2538(%rbp)
   12984:	48 8b 15 0d ee 00 00 	mov    0xee0d(%rip),%rdx        # 21798 <g_43>
   1298b:	48 8b 05 06 ee 00 00 	mov    0xee06(%rip),%rax        # 21798 <g_43>
   12992:	48 8b 12             	mov    (%rdx),%rdx
   12995:	48 89 10             	mov    %rdx,(%rax)
   12998:	83 ad 64 db ff ff 01 	subl   $0x1,-0x249c(%rbp)
   1299f:	e9 7d 01 00 00       	jmpq   12b21 <func_60+0x2fff>
   129a4:	48 8d 05 a9 66 00 00 	lea    0x66a9(%rip),%rax        # 19054 <g_386>
   129ab:	48 89 85 00 dc ff ff 	mov    %rax,-0x2400(%rbp)
   129b2:	48 8d 85 00 dc ff ff 	lea    -0x2400(%rbp),%rax
   129b9:	48 89 85 58 dd ff ff 	mov    %rax,-0x22a8(%rbp)
   129c0:	48 c7 85 60 dd ff ff 	movq   $0x0,-0x22a0(%rbp)
   129c7:	00 00 00 00 
   129cb:	48 8d 05 26 b7 00 00 	lea    0xb726(%rip),%rax        # 1e0f8 <g_140+0x8>
   129d2:	48 89 85 08 dc ff ff 	mov    %rax,-0x23f8(%rbp)
   129d9:	48 8d 85 08 dc ff ff 	lea    -0x23f8(%rbp),%rax
   129e0:	48 89 85 68 dd ff ff 	mov    %rax,-0x2298(%rbp)
   129e7:	48 8d 85 b8 db ff ff 	lea    -0x2448(%rbp),%rax
   129ee:	48 89 85 70 dd ff ff 	mov    %rax,-0x2290(%rbp)
   129f5:	b9 00 00 00 00       	mov    $0x0,%ecx
   129fa:	48 8b 85 e0 db ff ff 	mov    -0x2420(%rbp),%rax
   12a01:	8b 10                	mov    (%rax),%edx
   12a03:	48 8b 85 e0 db ff ff 	mov    -0x2420(%rbp),%rax
   12a0a:	31 ca                	xor    %ecx,%edx
   12a0c:	89 10                	mov    %edx,(%rax)
   12a0e:	0f b6 05 a3 b7 00 00 	movzbl 0xb7a3(%rip),%eax        # 1e1b8 <g_271+0x8>
   12a15:	0f b6 c0             	movzbl %al,%eax
   12a18:	be 03 00 00 00       	mov    $0x3,%esi
   12a1d:	89 c7                	mov    %eax,%edi
   12a1f:	e8 bd 5a ff ff       	callq  84e1 <safe_lshift_func_int16_t_s_u>
   12a24:	0f b7 c0             	movzwl %ax,%eax
   12a27:	be 0b 00 00 00       	mov    $0xb,%esi
   12a2c:	89 c7                	mov    %eax,%edi
   12a2e:	e8 d3 63 ff ff       	callq  8e06 <safe_lshift_func_uint16_t_u_u>
   12a33:	48 8b 85 68 dd ff ff 	mov    -0x2298(%rbp),%rax
   12a3a:	48 c7 00 00 00 00 00 	movq   $0x0,(%rax)
   12a41:	48 8d 05 8a b7 00 00 	lea    0xb78a(%rip),%rax        # 1e1d2 <g_396>
   12a48:	48 85 c0             	test   %rax,%rax
   12a4b:	74 7e                	je     12acb <func_60+0x2fa9>
   12a4d:	8b 85 a8 da ff ff    	mov    -0x2558(%rbp),%eax
   12a53:	89 c3                	mov    %eax,%ebx
   12a55:	0f b7 05 9d b6 00 00 	movzwl 0xb69d(%rip),%eax        # 1e0f9 <g_140+0x9>
   12a5c:	0f b6 c0             	movzbl %al,%eax
   12a5f:	be 07 00 00 00       	mov    $0x7,%esi
   12a64:	89 c7                	mov    %eax,%edi
   12a66:	e8 53 62 ff ff       	callq  8cbe <safe_rshift_func_uint8_t_u_u>
   12a6b:	48 83 bd 50 dd ff ff 	cmpq   $0x0,-0x22b0(%rbp)
   12a72:	00 
   12a73:	0f 95 c1             	setne  %cl
   12a76:	48 8d 85 20 e6 ff ff 	lea    -0x19e0(%rbp),%rax
   12a7d:	48 05 20 02 00 00    	add    $0x220,%rax
   12a83:	48 39 85 70 dd ff ff 	cmp    %rax,-0x2290(%rbp)
   12a8a:	0f 95 c0             	setne  %al
   12a8d:	0f b6 d0             	movzbl %al,%edx
   12a90:	8b 85 ac da ff ff    	mov    -0x2554(%rbp),%eax
   12a96:	39 c2                	cmp    %eax,%edx
   12a98:	0f 9e c0             	setle  %al
   12a9b:	09 c8                	or     %ecx,%eax
   12a9d:	0f b6 c0             	movzbl %al,%eax
   12aa0:	89 85 6c ee ff ff    	mov    %eax,-0x1194(%rbp)
   12aa6:	8b 85 6c ee ff ff    	mov    -0x1194(%rbp),%eax
   12aac:	85 c0                	test   %eax,%eax
   12aae:	0f 95 c0             	setne  %al
   12ab1:	0f b6 c0             	movzbl %al,%eax
   12ab4:	48 89 de             	mov    %rbx,%rsi
   12ab7:	48 89 c7             	mov    %rax,%rdi
   12aba:	e8 e9 5d ff ff       	callq  88a8 <safe_sub_func_int64_t_s_s>
   12abf:	8b 95 ac da ff ff    	mov    -0x2554(%rbp),%edx
   12ac5:	48 63 d2             	movslq %edx,%rdx
   12ac8:	48 39 d0             	cmp    %rdx,%rax
   12acb:	8b 85 c8 da ff ff    	mov    -0x2538(%rbp),%eax
   12ad1:	85 c0                	test   %eax,%eax
   12ad3:	75 0a                	jne    12adf <func_60+0x2fbd>
   12ad5:	8b 85 ac da ff ff    	mov    -0x2554(%rbp),%eax
   12adb:	85 c0                	test   %eax,%eax
   12add:	74 0a                	je     12ae9 <func_60+0x2fc7>
   12adf:	0f b7 05 17 b6 00 00 	movzwl 0xb617(%rip),%eax        # 1e0fd <g_140+0xd>
   12ae6:	66 85 c0             	test   %ax,%ax
   12ae9:	48 c7 c1 ff ff ff ff 	mov    $0xffffffffffffffff,%rcx
   12af0:	48 8b 85 e0 db ff ff 	mov    -0x2420(%rbp),%rax
   12af7:	8b 00                	mov    (%rax),%eax
   12af9:	89 c2                	mov    %eax,%edx
   12afb:	89 c8                	mov    %ecx,%eax
   12afd:	21 c2                	and    %eax,%edx
   12aff:	48 8b 85 e0 db ff ff 	mov    -0x2420(%rbp),%rax
   12b06:	89 10                	mov    %edx,(%rax)
   12b08:	8b 00                	mov    (%rax),%eax
   12b0a:	89 85 c8 da ff ff    	mov    %eax,-0x2538(%rbp)
   12b10:	48 8b 85 d0 db ff ff 	mov    -0x2430(%rbp),%rax
   12b17:	48 8b 15 8a ed 00 00 	mov    0xed8a(%rip),%rdx        # 218a8 <g_406>
   12b1e:	48 89 10             	mov    %rdx,(%rax)
   12b21:	83 85 14 db ff ff 01 	addl   $0x1,-0x24ec(%rbp)
   12b28:	48 8b 15 69 ec 00 00 	mov    0xec69(%rip),%rdx        # 21798 <g_43>
   12b2f:	48 8b 05 62 ec 00 00 	mov    0xec62(%rip),%rax        # 21798 <g_43>
   12b36:	48 8b 12             	mov    (%rdx),%rdx
   12b39:	48 89 10             	mov    %rdx,(%rax)
   12b3c:	66 c7 05 9b b5 00 00 	movw   $0x2,0xb59b(%rip)        # 1e0e0 <g_125>
   12b43:	02 00 
   12b45:	e9 ed 06 00 00       	jmpq   13237 <func_60+0x3715>
   12b4a:	66 c7 85 f8 db ff ff 	movw   $0xffff,-0x2408(%rbp)
   12b51:	ff ff 
   12b53:	48 8d 85 b6 da ff ff 	lea    -0x254a(%rbp),%rax
   12b5a:	48 89 85 10 ec ff ff 	mov    %rax,-0x13f0(%rbp)
   12b61:	48 8d 85 b6 da ff ff 	lea    -0x254a(%rbp),%rax
   12b68:	48 89 85 18 ec ff ff 	mov    %rax,-0x13e8(%rbp)
   12b6f:	48 8d 85 b5 da ff ff 	lea    -0x254b(%rbp),%rax
   12b76:	48 89 85 20 ec ff ff 	mov    %rax,-0x13e0(%rbp)
   12b7d:	48 8d 85 b6 da ff ff 	lea    -0x254a(%rbp),%rax
   12b84:	48 89 85 28 ec ff ff 	mov    %rax,-0x13d8(%rbp)
   12b8b:	48 8d 85 b6 da ff ff 	lea    -0x254a(%rbp),%rax
   12b92:	48 89 85 30 ec ff ff 	mov    %rax,-0x13d0(%rbp)
   12b99:	48 8d 85 b5 da ff ff 	lea    -0x254b(%rbp),%rax
   12ba0:	48 89 85 38 ec ff ff 	mov    %rax,-0x13c8(%rbp)
   12ba7:	48 8d 85 e0 f7 ff ff 	lea    -0x820(%rbp),%rax
   12bae:	48 8d 15 cb e9 00 00 	lea    0xe9cb(%rip),%rdx        # 21580 <g_1685+0x1c4a>
   12bb5:	b9 3c 00 00 00       	mov    $0x3c,%ecx
   12bba:	48 89 c7             	mov    %rax,%rdi
   12bbd:	48 89 d6             	mov    %rdx,%rsi
   12bc0:	f3 48 a5             	rep movsq %ds:(%rsi),%es:(%rdi)
   12bc3:	48 c7 85 b8 dc ff ff 	movq   $0x0,-0x2348(%rbp)
   12bca:	00 00 00 00 
   12bce:	c6 85 b8 da ff ff 00 	movb   $0x0,-0x2548(%rbp)
   12bd5:	48 8d 85 e8 db ff ff 	lea    -0x2418(%rbp),%rax
   12bdc:	48 39 85 a0 dc ff ff 	cmp    %rax,-0x2360(%rbp)
   12be3:	0f 95 c0             	setne  %al
   12be6:	0f b6 c0             	movzbl %al,%eax
   12be9:	89 c7                	mov    %eax,%edi
   12beb:	e8 55 5f ff ff       	callq  8b45 <safe_unary_minus_func_uint8_t_u>
   12bf0:	0f b7 85 f8 db ff ff 	movzwl -0x2408(%rbp),%eax
   12bf7:	66 85 c0             	test   %ax,%ax
   12bfa:	75 25                	jne    12c21 <func_60+0x30ff>
   12bfc:	8b 05 06 b5 00 00    	mov    0xb506(%rip),%eax        # 1e108 <g_207>
   12c02:	0f be d0             	movsbl %al,%edx
   12c05:	0f b7 05 dd b5 00 00 	movzwl 0xb5dd(%rip),%eax        # 1e1e9 <g_407+0x9>
   12c0c:	66 3d 49 a4          	cmp    $0xa449,%ax
   12c10:	0f 97 c0             	seta   %al
   12c13:	0f b6 c0             	movzbl %al,%eax
   12c16:	89 d6                	mov    %edx,%esi
   12c18:	89 c7                	mov    %eax,%edi
   12c1a:	e8 12 56 ff ff       	callq  8231 <safe_mod_func_int8_t_s_s>
   12c1f:	84 c0                	test   %al,%al
   12c21:	48 8b 85 30 ec ff ff 	mov    -0x13d0(%rbp),%rax
   12c28:	48 85 c0             	test   %rax,%rax
   12c2b:	0f 95 c0             	setne  %al
   12c2e:	0f b6 d0             	movzbl %al,%edx
   12c31:	0f b7 05 40 00 01 00 	movzwl 0x10040(%rip),%eax        # 22c78 <g_123>
   12c38:	0f b7 c0             	movzwl %ax,%eax
   12c3b:	39 c2                	cmp    %eax,%edx
   12c3d:	0f 9c c0             	setl   %al
   12c40:	0f b6 c0             	movzbl %al,%eax
   12c43:	f7 d0                	not    %eax
   12c45:	0f bf d0             	movswl %ax,%edx
   12c48:	0f b7 85 f8 db ff ff 	movzwl -0x2408(%rbp),%eax
   12c4f:	98                   	cwtl   
   12c50:	89 d6                	mov    %edx,%esi
   12c52:	89 c7                	mov    %eax,%edi
   12c54:	e8 bd 57 ff ff       	callq  8416 <safe_mod_func_int16_t_s_s>
   12c59:	48 8b 05 38 eb 00 00 	mov    0xeb38(%rip),%rax        # 21798 <g_43>
   12c60:	48 8d 95 ac da ff ff 	lea    -0x2554(%rbp),%rdx
   12c67:	48 89 10             	mov    %rdx,(%rax)
   12c6a:	8b 85 ac da ff ff    	mov    -0x2554(%rbp),%eax
   12c70:	85 c0                	test   %eax,%eax
   12c72:	74 13                	je     12c87 <func_60+0x3165>
   12c74:	48 8b 05 1d ec 00 00 	mov    0xec1d(%rip),%rax        # 21898 <g_257+0x8>
   12c7b:	48 89 85 18 dc ff ff 	mov    %rax,-0x23e8(%rbp)
   12c82:	e9 e0 04 00 00       	jmpq   13167 <func_60+0x3645>
   12c87:	c6 85 b9 da ff ff fe 	movb   $0xfe,-0x2547(%rbp)
   12c8e:	48 8d 85 30 e0 ff ff 	lea    -0x1fd0(%rbp),%rax
   12c95:	48 83 c0 60          	add    $0x60,%rax
   12c99:	48 89 85 00 dc ff ff 	mov    %rax,-0x2400(%rbp)
   12ca0:	48 8d 85 00 dc ff ff 	lea    -0x2400(%rbp),%rax
   12ca7:	48 89 85 c0 dc ff ff 	mov    %rax,-0x2340(%rbp)
   12cae:	48 8d 05 1b b4 00 00 	lea    0xb41b(%rip),%rax        # 1e0d0 <g_96>
   12cb5:	48 89 85 c8 dc ff ff 	mov    %rax,-0x2338(%rbp)
   12cbc:	c7 85 18 db ff ff 60 	movl   $0x84f87a60,-0x24e8(%rbp)
   12cc3:	7a f8 84 
   12cc6:	66 c7 05 2a b4 00 00 	movw   $0x0,0xb42a(%rip)        # 1e0f9 <g_140+0x9>
   12ccd:	00 00 
   12ccf:	eb 45                	jmp    12d16 <func_60+0x31f4>
   12cd1:	48 8d 85 b0 de ff ff 	lea    -0x2150(%rbp),%rax
   12cd8:	48 83 c0 04          	add    $0x4,%rax
   12cdc:	48 89 85 f8 dc ff ff 	mov    %rax,-0x2308(%rbp)
   12ce3:	48 8b 85 d0 db ff ff 	mov    -0x2430(%rbp),%rax
   12cea:	48 8b 95 e8 f8 ff ff 	mov    -0x718(%rbp),%rdx
   12cf1:	48 89 10             	mov    %rdx,(%rax)
   12cf4:	48 8b 05 9d ea 00 00 	mov    0xea9d(%rip),%rax        # 21798 <g_43>
   12cfb:	48 8b 95 f8 dc ff ff 	mov    -0x2308(%rbp),%rdx
   12d02:	48 89 10             	mov    %rdx,(%rax)
   12d05:	0f b7 05 ed b3 00 00 	movzwl 0xb3ed(%rip),%eax        # 1e0f9 <g_140+0x9>
   12d0c:	83 c0 01             	add    $0x1,%eax
   12d0f:	66 89 05 e3 b3 00 00 	mov    %ax,0xb3e3(%rip)        # 1e0f9 <g_140+0x9>
   12d16:	0f b7 05 dc b3 00 00 	movzwl 0xb3dc(%rip),%eax        # 1e0f9 <g_140+0x9>
   12d1d:	66 83 f8 13          	cmp    $0x13,%ax
   12d21:	76 ae                	jbe    12cd1 <func_60+0x31af>
   12d23:	8b 85 c8 da ff ff    	mov    -0x2538(%rbp),%eax
   12d29:	41 89 c5             	mov    %eax,%r13d
   12d2c:	8b 85 9c e1 ff ff    	mov    -0x1e64(%rbp),%eax
   12d32:	41 89 c6             	mov    %eax,%r14d
   12d35:	8b 85 ac da ff ff    	mov    -0x2554(%rbp),%eax
   12d3b:	85 c0                	test   %eax,%eax
   12d3d:	0f 85 d1 00 00 00    	jne    12e14 <func_60+0x32f2>
   12d43:	0f be 9d b9 da ff ff 	movsbl -0x2547(%rbp),%ebx
   12d4a:	8b 85 a8 da ff ff    	mov    -0x2558(%rbp),%eax
   12d50:	41 89 c7             	mov    %eax,%r15d
   12d53:	44 0f be a5 b9 da ff 	movsbl -0x2547(%rbp),%r12d
   12d5a:	ff 
   12d5b:	8b 85 a8 da ff ff    	mov    -0x2558(%rbp),%eax
   12d61:	89 c7                	mov    %eax,%edi
   12d63:	48 8b 85 e0 db ff ff 	mov    -0x2420(%rbp),%rax
   12d6a:	8b 08                	mov    (%rax),%ecx
   12d6c:	48 8b 85 a0 df ff ff 	mov    -0x2060(%rbp),%rax
   12d73:	48 89 85 68 e2 ff ff 	mov    %rax,-0x1d98(%rbp)
   12d7a:	48 8b b5 68 e2 ff ff 	mov    -0x1d98(%rbp),%rsi
   12d81:	48 8b 95 00 dc ff ff 	mov    -0x2400(%rbp),%rdx
   12d88:	48 8b 85 c0 dc ff ff 	mov    -0x2340(%rbp),%rax
   12d8f:	48 89 10             	mov    %rdx,(%rax)
   12d92:	48 8b 85 c0 dc ff ff 	mov    -0x2340(%rbp),%rax
   12d99:	48 8b 00             	mov    (%rax),%rax
   12d9c:	48 39 c6             	cmp    %rax,%rsi
   12d9f:	0f 95 c0             	setne  %al
   12da2:	0f b6 c0             	movzbl %al,%eax
   12da5:	39 c1                	cmp    %eax,%ecx
   12da7:	74 14                	je     12dbd <func_60+0x329b>
   12da9:	48 8b 85 e0 db ff ff 	mov    -0x2420(%rbp),%rax
   12db0:	8b 00                	mov    (%rax),%eax
   12db2:	85 c0                	test   %eax,%eax
   12db4:	74 07                	je     12dbd <func_60+0x329b>
   12db6:	b8 01 00 00 00       	mov    $0x1,%eax
   12dbb:	eb 05                	jmp    12dc2 <func_60+0x32a0>
   12dbd:	b8 00 00 00 00       	mov    $0x0,%eax
   12dc2:	89 fe                	mov    %edi,%esi
   12dc4:	89 c7                	mov    %eax,%edi
   12dc6:	e8 eb 57 ff ff       	callq  85b6 <safe_add_func_int32_t_s_s>
   12dcb:	41 39 c4             	cmp    %eax,%r12d
   12dce:	0f 9d c0             	setge  %al
   12dd1:	0f b6 c0             	movzbl %al,%eax
   12dd4:	4c 89 fe             	mov    %r15,%rsi
   12dd7:	48 89 c7             	mov    %rax,%rdi
   12dda:	e8 d5 5b ff ff       	callq  89b4 <safe_mod_func_int64_t_s_s>
   12ddf:	8b 85 a8 da ff ff    	mov    -0x2558(%rbp),%eax
   12de5:	98                   	cwtl   
   12de6:	be 03 00 00 00       	mov    $0x3,%esi
   12deb:	89 c7                	mov    %eax,%edi
   12ded:	e8 a0 56 ff ff       	callq  8492 <safe_lshift_func_int16_t_s_s>
   12df2:	48 8d 05 d9 b3 00 00 	lea    0xb3d9(%rip),%rax        # 1e1d2 <g_396>
   12df9:	48 85 c0             	test   %rax,%rax
   12dfc:	0f 95 c0             	setne  %al
   12dff:	0f b6 c0             	movzbl %al,%eax
   12e02:	89 de                	mov    %ebx,%esi
   12e04:	89 c7                	mov    %eax,%edi
   12e06:	e8 5f 54 ff ff       	callq  826a <safe_div_func_int8_t_s_s>
   12e0b:	80 bd b9 da ff ff 00 	cmpb   $0x0,-0x2547(%rbp)
   12e12:	74 07                	je     12e1b <func_60+0x32f9>
   12e14:	b8 01 00 00 00       	mov    $0x1,%eax
   12e19:	eb 05                	jmp    12e20 <func_60+0x32fe>
   12e1b:	b8 00 00 00 00       	mov    $0x0,%eax
   12e20:	0f b6 d8             	movzbl %al,%ebx
   12e23:	c7 85 b8 de ff ff 01 	movl   $0x1,-0x2148(%rbp)
   12e2a:	00 00 00 
   12e2d:	be 01 00 00 00       	mov    $0x1,%esi
   12e32:	bf f9 ff 00 00       	mov    $0xfff9,%edi
   12e37:	e8 ca 5f ff ff       	callq  8e06 <safe_lshift_func_uint16_t_u_u>
   12e3c:	0f b6 c0             	movzbl %al,%eax
   12e3f:	89 de                	mov    %ebx,%esi
   12e41:	89 c7                	mov    %eax,%edi
   12e43:	e8 12 5d ff ff       	callq  8b5a <safe_add_func_uint8_t_u_u>
   12e48:	0f b6 c0             	movzbl %al,%eax
   12e4b:	89 c7                	mov    %eax,%edi
   12e4d:	e8 f3 5c ff ff       	callq  8b45 <safe_unary_minus_func_uint8_t_u>
   12e52:	0f b6 d0             	movzbl %al,%edx
   12e55:	8b 85 ac da ff ff    	mov    -0x2554(%rbp),%eax
   12e5b:	39 c2                	cmp    %eax,%edx
   12e5d:	0f 9c c0             	setl   %al
   12e60:	0f b6 c0             	movzbl %al,%eax
   12e63:	44 89 f6             	mov    %r14d,%esi
   12e66:	89 c7                	mov    %eax,%edi
   12e68:	e8 51 5e ff ff       	callq  8cbe <safe_rshift_func_uint8_t_u_u>
   12e6d:	80 bd b9 da ff ff 00 	cmpb   $0x0,-0x2547(%rbp)
   12e74:	74 13                	je     12e89 <func_60+0x3367>
   12e76:	0f b7 05 50 c8 00 00 	movzwl 0xc850(%rip),%eax        # 1f6cd <g_439+0xd>
   12e7d:	66 85 c0             	test   %ax,%ax
   12e80:	74 07                	je     12e89 <func_60+0x3367>
   12e82:	b8 01 00 00 00       	mov    $0x1,%eax
   12e87:	eb 05                	jmp    12e8e <func_60+0x336c>
   12e89:	b8 00 00 00 00       	mov    $0x0,%eax
   12e8e:	98                   	cwtl   
   12e8f:	44 89 ee             	mov    %r13d,%esi
   12e92:	89 c7                	mov    %eax,%edi
   12e94:	e8 ca 56 ff ff       	callq  8563 <safe_rshift_func_int16_t_s_u>
   12e99:	66 85 c0             	test   %ax,%ax
   12e9c:	0f 84 85 02 00 00    	je     13127 <func_60+0x3605>
   12ea2:	c7 85 1c db ff ff b9 	movl   $0x191aabb9,-0x24e4(%rbp)
   12ea9:	ab 1a 19 
   12eac:	48 8d 85 f8 db ff ff 	lea    -0x2408(%rbp),%rax
   12eb3:	48 89 85 d8 dc ff ff 	mov    %rax,-0x2328(%rbp)
   12eba:	48 c7 85 e0 dc ff ff 	movq   $0x0,-0x2320(%rbp)
   12ec1:	00 00 00 00 
   12ec5:	48 8d 05 b4 e9 00 00 	lea    0xe9b4(%rip),%rax        # 21880 <g_260+0x40>
   12ecc:	48 89 85 e8 dc ff ff 	mov    %rax,-0x2318(%rbp)
   12ed3:	48 8d 05 f2 b2 00 00 	lea    0xb2f2(%rip),%rax        # 1e1cc <g_374>
   12eda:	48 89 85 08 dc ff ff 	mov    %rax,-0x23f8(%rbp)
   12ee1:	48 8d 85 08 dc ff ff 	lea    -0x23f8(%rbp),%rax
   12ee8:	48 89 85 f0 dc ff ff 	mov    %rax,-0x2310(%rbp)
   12eef:	8b 85 ac da ff ff    	mov    -0x2554(%rbp),%eax
   12ef5:	3d d2 2d 00 00       	cmp    $0x2dd2,%eax
   12efa:	0f 8e 16 01 00 00    	jle    13016 <func_60+0x34f4>
   12f00:	be 06 00 00 00       	mov    $0x6,%esi
   12f05:	bf f7 00 00 00       	mov    $0xf7,%edi
   12f0a:	e8 3d 5d ff ff       	callq  8c4c <safe_lshift_func_uint8_t_u_u>
   12f0f:	48 8b 85 e0 db ff ff 	mov    -0x2420(%rbp),%rax
   12f16:	8b 00                	mov    (%rax),%eax
   12f18:	0f bf d8             	movswl %ax,%ebx
   12f1b:	0f b6 05 4d c7 00 00 	movzbl 0xc74d(%rip),%eax        # 1f66f <g_438+0x6f>
   12f22:	0f b7 15 47 c7 00 00 	movzwl 0xc747(%rip),%edx        # 1f670 <g_438+0x70>
   12f29:	81 e2 ff 7f 00 00    	and    $0x7fff,%edx
   12f2f:	48 c1 e2 08          	shl    $0x8,%rdx
   12f33:	48 09 d0             	or     %rdx,%rax
   12f36:	48 c1 e0 29          	shl    $0x29,%rax
   12f3a:	48 c1 f8 29          	sar    $0x29,%rax
   12f3e:	4c 63 e0             	movslq %eax,%r12
   12f41:	48 8b 85 60 dc ff ff 	mov    -0x23a0(%rbp),%rax
   12f48:	48 89 85 70 dc ff ff 	mov    %rax,-0x2390(%rbp)
   12f4f:	44 8b ad ac da ff ff 	mov    -0x2554(%rbp),%r13d
   12f56:	8b 85 a8 da ff ff    	mov    -0x2558(%rbp),%eax
   12f5c:	41 89 c6             	mov    %eax,%r14d
   12f5f:	0f b7 85 f8 db ff ff 	movzwl -0x2408(%rbp),%eax
   12f66:	0f be c0             	movsbl %al,%eax
   12f69:	be 68 00 00 00       	mov    $0x68,%esi
   12f6e:	89 c7                	mov    %eax,%edi
   12f70:	e8 bc 52 ff ff       	callq  8231 <safe_mod_func_int8_t_s_s>
   12f75:	0f be c0             	movsbl %al,%eax
   12f78:	39 85 1c db ff ff    	cmp    %eax,-0x24e4(%rbp)
   12f7e:	4c 89 f6             	mov    %r14,%rsi
   12f81:	48 bf 07 c1 f4 f6 d5 	movabs $0x372a8d5f6f4c107,%rdi
   12f88:	a8 72 03 
   12f8b:	e8 f0 60 ff ff       	callq  9080 <safe_mod_func_uint64_t_u_u>
   12f90:	89 c2                	mov    %eax,%edx
   12f92:	48 8b 85 d8 dc ff ff 	mov    -0x2328(%rbp),%rax
   12f99:	66 89 10             	mov    %dx,(%rax)
   12f9c:	48 8b 85 d8 dc ff ff 	mov    -0x2328(%rbp),%rax
   12fa3:	0f b7 00             	movzwl (%rax),%eax
   12fa6:	98                   	cwtl   
   12fa7:	44 89 ee             	mov    %r13d,%esi
   12faa:	89 c7                	mov    %eax,%edi
   12fac:	e8 e1 54 ff ff       	callq  8492 <safe_lshift_func_int16_t_s_s>
   12fb1:	0f b6 05 e7 c7 00 00 	movzbl 0xc7e7(%rip),%eax        # 1f79f <g_441+0xf>
   12fb8:	0f b7 15 e1 c7 00 00 	movzwl 0xc7e1(%rip),%edx        # 1f7a0 <g_441+0x10>
   12fbf:	81 e2 ff 7f 00 00    	and    $0x7fff,%edx
   12fc5:	48 c1 e2 08          	shl    $0x8,%rdx
   12fc9:	48 09 d0             	or     %rdx,%rax
   12fcc:	48 c1 e0 29          	shl    $0x29,%rax
   12fd0:	48 c1 f8 29          	sar    $0x29,%rax
   12fd4:	89 c7                	mov    %eax,%edi
   12fd6:	e8 cb 5e ff ff       	callq  8ea6 <safe_unary_minus_func_uint32_t_u>
   12fdb:	8b 95 1c db ff ff    	mov    -0x24e4(%rbp),%edx
   12fe1:	31 c2                	xor    %eax,%edx
   12fe3:	8b 85 c0 da ff ff    	mov    -0x2540(%rbp),%eax
   12fe9:	39 c2                	cmp    %eax,%edx
   12feb:	0f 95 c0             	setne  %al
   12fee:	0f b6 c0             	movzbl %al,%eax
   12ff1:	4c 89 e6             	mov    %r12,%rsi
   12ff4:	48 89 c7             	mov    %rax,%rdi
   12ff7:	e8 32 60 ff ff       	callq  902e <safe_add_func_uint64_t_u_u>
   12ffc:	48 3d 6e a5 ea 0e    	cmp    $0xeeaa56e,%rax
   13002:	0f 94 c0             	sete   %al
   13005:	0f b6 c0             	movzbl %al,%eax
   13008:	89 de                	mov    %ebx,%esi
   1300a:	89 c7                	mov    %eax,%edi
   1300c:	e8 05 54 ff ff       	callq  8416 <safe_mod_func_int16_t_s_s>
   13011:	66 85 c0             	test   %ax,%ax
   13014:	75 07                	jne    1301d <func_60+0x34fb>
   13016:	b8 01 00 00 00       	mov    $0x1,%eax
   1301b:	eb 05                	jmp    13022 <func_60+0x3500>
   1301d:	b8 00 00 00 00       	mov    $0x0,%eax
   13022:	09 85 18 db ff ff    	or     %eax,-0x24e8(%rbp)
   13028:	0f b7 05 da b1 00 00 	movzwl 0xb1da(%rip),%eax        # 1e209 <g_427+0x9>
   1302f:	0f b7 d8             	movzwl %ax,%ebx
   13032:	48 8d 85 a8 da ff ff 	lea    -0x2558(%rbp),%rax
   13039:	48 89 05 50 fc 00 00 	mov    %rax,0xfc50(%rip)        # 22c90 <g_492>
   13040:	4c 8b 3d 49 fc 00 00 	mov    0xfc49(%rip),%r15        # 22c90 <g_492>
   13047:	8b 85 a8 da ff ff    	mov    -0x2558(%rbp),%eax
   1304d:	44 0f b6 e0          	movzbl %al,%r12d
   13051:	8b 05 9b c5 00 00    	mov    0xc59b(%rip),%eax        # 1f5f2 <g_437+0x12>
   13057:	44 0f be e8          	movsbl %al,%r13d
   1305b:	48 8b 85 e0 db ff ff 	mov    -0x2420(%rbp),%rax
   13062:	44 8b 30             	mov    (%rax),%r14d
   13065:	8b 85 a8 da ff ff    	mov    -0x2558(%rbp),%eax
   1306b:	89 c6                	mov    %eax,%esi
   1306d:	bf af 98 00 00       	mov    $0x98af,%edi
   13072:	e8 8f 5d ff ff       	callq  8e06 <safe_lshift_func_uint16_t_u_u>
   13077:	48 8b 85 b8 dc ff ff 	mov    -0x2348(%rbp),%rax
   1307e:	48 3b 85 e8 dc ff ff 	cmp    -0x2318(%rbp),%rax
   13085:	0f 95 c0             	setne  %al
   13088:	0f b6 d0             	movzbl %al,%edx
   1308b:	48 8b 85 e0 db ff ff 	mov    -0x2420(%rbp),%rax
   13092:	8b 00                	mov    (%rax),%eax
   13094:	39 c2                	cmp    %eax,%edx
   13096:	0f 9c c0             	setl   %al
   13099:	0f b6 c0             	movzbl %al,%eax
   1309c:	be 2b 7d 00 00       	mov    $0x7d2b,%esi
   130a1:	89 c7                	mov    %eax,%edi
   130a3:	e8 ad 53 ff ff       	callq  8455 <safe_div_func_int16_t_s_s>
   130a8:	0f be c0             	movsbl %al,%eax
   130ab:	44 89 f6             	mov    %r14d,%esi
   130ae:	89 c7                	mov    %eax,%edi
   130b0:	e8 ec 51 ff ff       	callq  82a1 <safe_lshift_func_int8_t_s_s>
   130b5:	48 8b 85 c0 db ff ff 	mov    -0x2440(%rbp),%rax
   130bc:	48 85 c0             	test   %rax,%rax
   130bf:	0f 9f c0             	setg   %al
   130c2:	0f b6 c0             	movzbl %al,%eax
   130c5:	44 89 ee             	mov    %r13d,%esi
   130c8:	89 c7                	mov    %eax,%edi
   130ca:	e8 62 51 ff ff       	callq  8231 <safe_mod_func_int8_t_s_s>
   130cf:	0f b6 c0             	movzbl %al,%eax
   130d2:	44 89 e6             	mov    %r12d,%esi
   130d5:	89 c7                	mov    %eax,%edi
   130d7:	e8 7e 5a ff ff       	callq  8b5a <safe_add_func_uint8_t_u_u>
   130dc:	48 8b 85 f0 dc ff ff 	mov    -0x2310(%rbp),%rax
   130e3:	48 8d 95 a8 da ff ff 	lea    -0x2558(%rbp),%rdx
   130ea:	48 89 10             	mov    %rdx,(%rax)
   130ed:	48 8b 85 f0 dc ff ff 	mov    -0x2310(%rbp),%rax
   130f4:	48 8b 00             	mov    (%rax),%rax
   130f7:	49 39 c7             	cmp    %rax,%r15
   130fa:	0f 95 c0             	setne  %al
   130fd:	0f b6 d0             	movzbl %al,%edx
   13100:	8b 85 ac da ff ff    	mov    -0x2554(%rbp),%eax
   13106:	31 d0                	xor    %edx,%eax
   13108:	89 de                	mov    %ebx,%esi
   1310a:	89 c7                	mov    %eax,%edi
   1310c:	e8 ec 5d ff ff       	callq  8efd <safe_mod_func_uint32_t_u_u>
   13111:	8b 95 ac da ff ff    	mov    -0x2554(%rbp),%edx
   13117:	39 d0                	cmp    %edx,%eax
   13119:	0f 92 c0             	setb   %al
   1311c:	0f b6 c0             	movzbl %al,%eax
   1311f:	30 85 b8 da ff ff    	xor    %al,-0x2548(%rbp)
   13125:	eb 40                	jmp    13167 <func_60+0x3645>
   13127:	48 8d 85 e0 db ff ff 	lea    -0x2420(%rbp),%rax
   1312e:	48 89 85 d0 dc ff ff 	mov    %rax,-0x2330(%rbp)
   13135:	48 8b 15 5c e6 00 00 	mov    0xe65c(%rip),%rdx        # 21798 <g_43>
   1313c:	48 8b 05 55 e6 00 00 	mov    0xe655(%rip),%rax        # 21798 <g_43>
   13143:	48 8b 12             	mov    (%rdx),%rdx
   13146:	48 89 10             	mov    %rdx,(%rax)
   13149:	48 8b 10             	mov    (%rax),%rdx
   1314c:	48 8b 85 d0 dc ff ff 	mov    -0x2330(%rbp),%rax
   13153:	48 89 10             	mov    %rdx,(%rax)
   13156:	48 8b 05 33 e6 00 00 	mov    0xe633(%rip),%rax        # 21790 <g_44>
   1315d:	8b 00                	mov    (%rax),%eax
   1315f:	85 c0                	test   %eax,%eax
   13161:	0f 85 34 2e 00 00    	jne    15f9b <func_60+0x6479>
   13167:	8b 85 ac da ff ff    	mov    -0x2554(%rbp),%eax
   1316d:	e9 16 31 00 00       	jmpq   16288 <func_60+0x6766>
   13172:	48 c7 85 28 de ff ff 	movq   $0x0,-0x21d8(%rbp)
   13179:	00 00 00 00 
   1317d:	48 8d 85 b0 de ff ff 	lea    -0x2150(%rbp),%rax
   13184:	48 83 c0 04          	add    $0x4,%rax
   13188:	48 89 85 30 de ff ff 	mov    %rax,-0x21d0(%rbp)
   1318f:	48 8d 05 f6 af 00 00 	lea    0xaff6(%rip),%rax        # 1e18c <g_231+0x6c>
   13196:	48 89 85 38 de ff ff 	mov    %rax,-0x21c8(%rbp)
   1319d:	48 8d 85 c8 da ff ff 	lea    -0x2538(%rbp),%rax
   131a4:	48 89 85 40 de ff ff 	mov    %rax,-0x21c0(%rbp)
   131ab:	c7 85 98 db ff ff 9a 	movl   $0x4c59b09a,-0x2468(%rbp)
   131b2:	b0 59 4c 
   131b5:	48 c7 85 e0 f7 ff ff 	movq   $0x0,-0x820(%rbp)
   131bc:	00 00 00 00 
   131c0:	48 c7 85 e8 f7 ff ff 	movq   $0x0,-0x818(%rbp)
   131c7:	00 00 00 00 
   131cb:	48 c7 85 f0 f7 ff ff 	movq   $0x0,-0x810(%rbp)
   131d2:	00 00 00 00 
   131d6:	48 c7 85 f8 f7 ff ff 	movq   $0x0,-0x808(%rbp)
   131dd:	00 00 00 00 
   131e1:	48 c7 85 00 f8 ff ff 	movq   $0x0,-0x800(%rbp)
   131e8:	00 00 00 00 
   131ec:	48 c7 85 08 f8 ff ff 	movq   $0x0,-0x7f8(%rbp)
   131f3:	00 00 00 00 
   131f7:	48 c7 85 10 f8 ff ff 	movq   $0x0,-0x7f0(%rbp)
   131fe:	00 00 00 00 
   13202:	48 c7 85 18 f8 ff ff 	movq   $0x0,-0x7e8(%rbp)
   13209:	00 00 00 00 
   1320d:	48 c7 85 20 f8 ff ff 	movq   $0x0,-0x7e0(%rbp)
   13214:	00 00 00 00 
   13218:	c6 85 bd da ff ff dc 	movb   $0xdc,-0x2543(%rbp)
   1321f:	80 85 bd da ff ff 01 	addb   $0x1,-0x2543(%rbp)
   13226:	0f b7 05 b3 ae 00 00 	movzwl 0xaeb3(%rip),%eax        # 1e0e0 <g_125>
   1322d:	83 c0 01             	add    $0x1,%eax
   13230:	66 89 05 a9 ae 00 00 	mov    %ax,0xaea9(%rip)        # 1e0e0 <g_125>
   13237:	0f b7 05 a2 ae 00 00 	movzwl 0xaea2(%rip),%eax        # 1e0e0 <g_125>
   1323e:	66 83 f8 08          	cmp    $0x8,%ax
   13242:	0f 86 2a ff ff ff    	jbe    13172 <func_60+0x3650>
   13248:	c7 85 d8 da ff ff 00 	movl   $0x0,-0x2528(%rbp)
   1324f:	00 00 00 
   13252:	e9 55 2c 00 00       	jmpq   15eac <func_60+0x638a>
   13257:	c7 85 68 db ff ff 00 	movl   $0x0,-0x2498(%rbp)
   1325e:	00 00 00 
   13261:	c7 85 e4 da ff ff 16 	movl   $0x9d3e0216,-0x251c(%rbp)
   13268:	02 3e 9d 
   1326b:	c7 85 6c db ff ff fc 	movl   $0xfffffffc,-0x2494(%rbp)
   13272:	ff ff ff 
   13275:	c7 85 70 db ff ff 00 	movl   $0x0,-0x2490(%rbp)
   1327c:	00 00 00 
   1327f:	c7 85 74 db ff ff ff 	movl   $0xffffffff,-0x248c(%rbp)
   13286:	ff ff ff 
   13289:	c7 85 78 db ff ff ff 	movl   $0xffffffff,-0x2488(%rbp)
   13290:	ff ff ff 
   13293:	c7 85 7c db ff ff 05 	movl   $0xc8f45305,-0x2484(%rbp)
   1329a:	53 f4 c8 
   1329d:	c7 85 80 db ff ff 00 	movl   $0x0,-0x2480(%rbp)
   132a4:	00 00 00 
   132a7:	c7 85 84 db ff ff 00 	movl   $0x0,-0x247c(%rbp)
   132ae:	00 00 00 
   132b1:	c7 85 88 db ff ff 00 	movl   $0x0,-0x2478(%rbp)
   132b8:	00 00 00 
   132bb:	48 8b 05 d6 e4 00 00 	mov    0xe4d6(%rip),%rax        # 21798 <g_43>
   132c2:	48 8b 00             	mov    (%rax),%rax
   132c5:	8b 00                	mov    (%rax),%eax
   132c7:	85 c0                	test   %eax,%eax
   132c9:	0f 84 89 01 00 00    	je     13458 <func_60+0x3936>
   132cf:	c7 85 f4 da ff ff 00 	movl   $0x0,-0x250c(%rbp)
   132d6:	00 00 00 
   132d9:	eb 25                	jmp    13300 <func_60+0x37de>
   132db:	8b 85 f4 da ff ff    	mov    -0x250c(%rbp),%eax
   132e1:	48 98                	cltq   
   132e3:	48 8d 95 00 e2 ff ff 	lea    -0x1e00(%rbp),%rdx
   132ea:	48 81 c2 b8 00 00 00 	add    $0xb8,%rdx
   132f1:	48 89 94 c5 e0 f7 ff 	mov    %rdx,-0x820(%rbp,%rax,8)
   132f8:	ff 
   132f9:	83 85 f4 da ff ff 01 	addl   $0x1,-0x250c(%rbp)
   13300:	83 bd f4 da ff ff 00 	cmpl   $0x0,-0x250c(%rbp)
   13307:	7e d2                	jle    132db <func_60+0x37b9>
   13309:	c6 05 78 c2 00 00 00 	movb   $0x0,0xc278(%rip)        # 1f588 <g_434+0x8>
   13310:	e9 17 01 00 00       	jmpq   1342c <func_60+0x390a>
   13315:	48 8d 85 b6 da ff ff 	lea    -0x254a(%rbp),%rax
   1331c:	48 89 85 20 de ff ff 	mov    %rax,-0x21e0(%rbp)
   13323:	c7 85 94 db ff ff 01 	movl   $0x1,-0x246c(%rbp)
   1332a:	00 00 00 
   1332d:	b8 06 00 00 00       	mov    $0x6,%eax
   13332:	48 63 d8             	movslq %eax,%rbx
   13335:	48 8b 85 20 de ff ff 	mov    -0x21e0(%rbp),%rax
   1333c:	0f b6 00             	movzbl (%rax),%eax
   1333f:	89 c2                	mov    %eax,%edx
   13341:	8b 85 a8 da ff ff    	mov    -0x2558(%rbp),%eax
   13347:	21 d0                	and    %edx,%eax
   13349:	89 c2                	mov    %eax,%edx
   1334b:	48 8b 85 20 de ff ff 	mov    -0x21e0(%rbp),%rax
   13352:	88 10                	mov    %dl,(%rax)
   13354:	48 8b 85 20 de ff ff 	mov    -0x21e0(%rbp),%rax
   1335b:	0f b6 00             	movzbl (%rax),%eax
   1335e:	0f be d0             	movsbl %al,%edx
   13361:	8b 85 ac da ff ff    	mov    -0x2554(%rbp),%eax
   13367:	0f be c0             	movsbl %al,%eax
   1336a:	89 d6                	mov    %edx,%esi
   1336c:	89 c7                	mov    %eax,%edi
   1336e:	e8 7f 4e ff ff       	callq  81f2 <safe_sub_func_int8_t_s_s>
   13373:	41 89 c4             	mov    %eax,%r12d
   13376:	8b 85 ac da ff ff    	mov    -0x2554(%rbp),%eax
   1337c:	41 89 c5             	mov    %eax,%r13d
   1337f:	8b 85 a8 da ff ff    	mov    -0x2558(%rbp),%eax
   13385:	98                   	cwtl   
   13386:	be f9 ff ff ff       	mov    $0xfffffff9,%esi
   1338b:	89 c7                	mov    %eax,%edi
   1338d:	e8 84 50 ff ff       	callq  8416 <safe_mod_func_int16_t_s_s>
   13392:	98                   	cwtl   
   13393:	39 85 08 db ff ff    	cmp    %eax,-0x24f8(%rbp)
   13399:	75 0a                	jne    133a5 <func_60+0x3883>
   1339b:	8b 85 ac da ff ff    	mov    -0x2554(%rbp),%eax
   133a1:	85 c0                	test   %eax,%eax
   133a3:	74 07                	je     133ac <func_60+0x388a>
   133a5:	b8 01 00 00 00       	mov    $0x1,%eax
   133aa:	eb 05                	jmp    133b1 <func_60+0x388f>
   133ac:	b8 00 00 00 00       	mov    $0x0,%eax
   133b1:	0f bf d0             	movswl %ax,%edx
   133b4:	48 8b 0d ad e8 00 00 	mov    0xe8ad(%rip),%rcx        # 21c68 <g_531+0x388>
   133bb:	48 8b 85 e0 f7 ff ff 	mov    -0x820(%rbp),%rax
   133c2:	48 39 c1             	cmp    %rax,%rcx
   133c5:	0f 95 c0             	setne  %al
   133c8:	0f b6 c0             	movzbl %al,%eax
   133cb:	89 d6                	mov    %edx,%esi
   133cd:	89 c7                	mov    %eax,%edi
   133cf:	e8 21 50 ff ff       	callq  83f5 <safe_mul_func_int16_t_s_s>
   133d4:	0f be c0             	movsbl %al,%eax
   133d7:	44 89 ee             	mov    %r13d,%esi
   133da:	89 c7                	mov    %eax,%edi
   133dc:	e8 8b 4f ff ff       	callq  836c <safe_rshift_func_int8_t_s_u>
   133e1:	44 31 e0             	xor    %r12d,%eax
   133e4:	48 0f be d0          	movsbq %al,%rdx
   133e8:	48 8b 85 60 dc ff ff 	mov    -0x23a0(%rbp),%rax
   133ef:	48 89 10             	mov    %rdx,(%rax)
   133f2:	48 8b 85 60 dc ff ff 	mov    -0x23a0(%rbp),%rax
   133f9:	48 8b 00             	mov    (%rax),%rax
   133fc:	48 89 de             	mov    %rbx,%rsi
   133ff:	48 89 c7             	mov    %rax,%rdi
   13402:	e8 27 5c ff ff       	callq  902e <safe_add_func_uint64_t_u_u>
   13407:	48 3d fe 00 00 00    	cmp    $0xfe,%rax
   1340d:	0f 96 c2             	setbe  %dl
   13410:	48 8b 85 e0 db ff ff 	mov    -0x2420(%rbp),%rax
   13417:	0f b6 d2             	movzbl %dl,%edx
   1341a:	89 10                	mov    %edx,(%rax)
   1341c:	0f b6 05 65 c1 00 00 	movzbl 0xc165(%rip),%eax        # 1f588 <g_434+0x8>
   13423:	83 c0 01             	add    $0x1,%eax
   13426:	88 05 5c c1 00 00    	mov    %al,0xc15c(%rip)        # 1f588 <g_434+0x8>
   1342c:	0f b6 05 55 c1 00 00 	movzbl 0xc155(%rip),%eax        # 1f588 <g_434+0x8>
   13433:	3c 01                	cmp    $0x1,%al
   13435:	0f 86 da fe ff ff    	jbe    13315 <func_60+0x37f3>
   1343b:	48 8b 85 d8 db ff ff 	mov    -0x2428(%rbp),%rax
   13442:	48 83 e8 01          	sub    $0x1,%rax
   13446:	48 89 85 d8 db ff ff 	mov    %rax,-0x2428(%rbp)
   1344d:	8b 85 9c e1 ff ff    	mov    -0x1e64(%rbp),%eax
   13453:	e9 30 2e 00 00       	jmpq   16288 <func_60+0x6766>
   13458:	c7 85 8c db ff ff b3 	movl   $0xf7d424b3,-0x2474(%rbp)
   1345f:	24 d4 f7 
   13462:	48 8d 05 5f ad 00 00 	lea    0xad5f(%rip),%rax        # 1e1c8 <g_331>
   13469:	48 89 85 08 dc ff ff 	mov    %rax,-0x23f8(%rbp)
   13470:	48 8d 85 08 dc ff ff 	lea    -0x23f8(%rbp),%rax
   13477:	48 89 85 90 dd ff ff 	mov    %rax,-0x2270(%rbp)
   1347e:	c7 85 90 db ff ff 07 	movl   $0x7,-0x2470(%rbp)
   13485:	00 00 00 
   13488:	c7 85 f8 da ff ff 00 	movl   $0x0,-0x2508(%rbp)
   1348f:	00 00 00 
   13492:	eb 1a                	jmp    134ae <func_60+0x398c>
   13494:	8b 85 f8 da ff ff    	mov    -0x2508(%rbp),%eax
   1349a:	48 98                	cltq   
   1349c:	c7 84 85 60 e4 ff ff 	movl   $0x8d691986,-0x1ba0(%rbp,%rax,4)
   134a3:	86 19 69 8d 
   134a7:	83 85 f8 da ff ff 01 	addl   $0x1,-0x2508(%rbp)
   134ae:	83 bd f8 da ff ff 02 	cmpl   $0x2,-0x2508(%rbp)
   134b5:	7e dd                	jle    13494 <func_60+0x3972>
   134b7:	66 c7 05 89 c0 00 00 	movw   $0x0,0xc089(%rip)        # 1f549 <g_432+0x9>
   134be:	00 00 
   134c0:	e9 e4 06 00 00       	jmpq   13ba9 <func_60+0x4087>
   134c5:	48 c7 85 e0 f7 ff ff 	movq   $0x0,-0x820(%rbp)
   134cc:	00 00 00 00 
   134d0:	48 c7 85 e8 f7 ff ff 	movq   $0x0,-0x818(%rbp)
   134d7:	00 00 00 00 
   134db:	48 8d 85 70 df ff ff 	lea    -0x2090(%rbp),%rax
   134e2:	48 83 c0 18          	add    $0x18,%rax
   134e6:	48 89 85 f0 f7 ff ff 	mov    %rax,-0x810(%rbp)
   134ed:	48 8d 05 7c e3 00 00 	lea    0xe37c(%rip),%rax        # 21870 <g_260+0x30>
   134f4:	48 89 85 f8 f7 ff ff 	mov    %rax,-0x808(%rbp)
   134fb:	48 8d 05 7e e3 00 00 	lea    0xe37e(%rip),%rax        # 21880 <g_260+0x40>
   13502:	48 89 85 00 f8 ff ff 	mov    %rax,-0x800(%rbp)
   13509:	48 8d 05 60 e3 00 00 	lea    0xe360(%rip),%rax        # 21870 <g_260+0x30>
   13510:	48 89 85 08 f8 ff ff 	mov    %rax,-0x7f8(%rbp)
   13517:	48 8d 85 70 df ff ff 	lea    -0x2090(%rbp),%rax
   1351e:	48 83 c0 18          	add    $0x18,%rax
   13522:	48 89 85 10 f8 ff ff 	mov    %rax,-0x7f0(%rbp)
   13529:	48 c7 85 18 f8 ff ff 	movq   $0x0,-0x7e8(%rbp)
   13530:	00 00 00 00 
   13534:	48 c7 85 20 f8 ff ff 	movq   $0x0,-0x7e0(%rbp)
   1353b:	00 00 00 00 
   1353f:	48 8d 05 3a e3 00 00 	lea    0xe33a(%rip),%rax        # 21880 <g_260+0x40>
   13546:	48 89 85 28 f8 ff ff 	mov    %rax,-0x7d8(%rbp)
   1354d:	48 8d 85 70 df ff ff 	lea    -0x2090(%rbp),%rax
   13554:	48 83 c0 18          	add    $0x18,%rax
   13558:	48 89 85 30 f8 ff ff 	mov    %rax,-0x7d0(%rbp)
   1355f:	48 c7 85 38 f8 ff ff 	movq   $0x0,-0x7c8(%rbp)
   13566:	00 00 00 00 
   1356a:	48 8d 05 0f e3 00 00 	lea    0xe30f(%rip),%rax        # 21880 <g_260+0x40>
   13571:	48 89 85 40 f8 ff ff 	mov    %rax,-0x7c0(%rbp)
   13578:	48 c7 85 48 f8 ff ff 	movq   $0x0,-0x7b8(%rbp)
   1357f:	00 00 00 00 
   13583:	48 8d 85 70 df ff ff 	lea    -0x2090(%rbp),%rax
   1358a:	48 83 c0 18          	add    $0x18,%rax
   1358e:	48 89 85 50 f8 ff ff 	mov    %rax,-0x7b0(%rbp)
   13595:	48 8d 05 e4 e2 00 00 	lea    0xe2e4(%rip),%rax        # 21880 <g_260+0x40>
   1359c:	48 89 85 58 f8 ff ff 	mov    %rax,-0x7a8(%rbp)
   135a3:	48 8d 05 9e e2 00 00 	lea    0xe29e(%rip),%rax        # 21848 <g_260+0x8>
   135aa:	48 89 85 60 f8 ff ff 	mov    %rax,-0x7a0(%rbp)
   135b1:	48 8d 85 70 df ff ff 	lea    -0x2090(%rbp),%rax
   135b8:	48 83 c0 18          	add    $0x18,%rax
   135bc:	48 89 85 68 f8 ff ff 	mov    %rax,-0x798(%rbp)
   135c3:	48 8d 05 a6 e2 00 00 	lea    0xe2a6(%rip),%rax        # 21870 <g_260+0x30>
   135ca:	48 89 85 70 f8 ff ff 	mov    %rax,-0x790(%rbp)
   135d1:	48 8d 05 a8 e2 00 00 	lea    0xe2a8(%rip),%rax        # 21880 <g_260+0x40>
   135d8:	48 89 85 78 f8 ff ff 	mov    %rax,-0x788(%rbp)
   135df:	48 8d 85 70 df ff ff 	lea    -0x2090(%rbp),%rax
   135e6:	48 83 c0 18          	add    $0x18,%rax
   135ea:	48 89 85 80 f8 ff ff 	mov    %rax,-0x780(%rbp)
   135f1:	48 8d 05 88 e2 00 00 	lea    0xe288(%rip),%rax        # 21880 <g_260+0x40>
   135f8:	48 89 85 88 f8 ff ff 	mov    %rax,-0x778(%rbp)
   135ff:	48 8d 05 6a e2 00 00 	lea    0xe26a(%rip),%rax        # 21870 <g_260+0x30>
   13606:	48 89 85 90 f8 ff ff 	mov    %rax,-0x770(%rbp)
   1360d:	48 8d 85 70 df ff ff 	lea    -0x2090(%rbp),%rax
   13614:	48 83 c0 18          	add    $0x18,%rax
   13618:	48 89 85 98 f8 ff ff 	mov    %rax,-0x768(%rbp)
   1361f:	48 8d 85 70 df ff ff 	lea    -0x2090(%rbp),%rax
   13626:	48 83 c0 18          	add    $0x18,%rax
   1362a:	48 89 85 a0 f8 ff ff 	mov    %rax,-0x760(%rbp)
   13631:	48 8d 05 38 e2 00 00 	lea    0xe238(%rip),%rax        # 21870 <g_260+0x30>
   13638:	48 89 85 a8 f8 ff ff 	mov    %rax,-0x758(%rbp)
   1363f:	48 8d 05 3a e2 00 00 	lea    0xe23a(%rip),%rax        # 21880 <g_260+0x40>
   13646:	48 89 85 b0 f8 ff ff 	mov    %rax,-0x750(%rbp)
   1364d:	48 8d 05 2c e2 00 00 	lea    0xe22c(%rip),%rax        # 21880 <g_260+0x40>
   13654:	48 89 85 b8 f8 ff ff 	mov    %rax,-0x748(%rbp)
   1365b:	48 8d 85 70 df ff ff 	lea    -0x2090(%rbp),%rax
   13662:	48 83 c0 18          	add    $0x18,%rax
   13666:	48 89 85 c0 f8 ff ff 	mov    %rax,-0x740(%rbp)
   1366d:	48 8d 05 0c e2 00 00 	lea    0xe20c(%rip),%rax        # 21880 <g_260+0x40>
   13674:	48 89 85 c8 f8 ff ff 	mov    %rax,-0x738(%rbp)
   1367b:	48 8d 05 be e1 00 00 	lea    0xe1be(%rip),%rax        # 21840 <g_260>
   13682:	48 89 85 d0 f8 ff ff 	mov    %rax,-0x730(%rbp)
   13689:	48 8d 85 70 df ff ff 	lea    -0x2090(%rbp),%rax
   13690:	48 83 c0 18          	add    $0x18,%rax
   13694:	48 89 85 d8 f8 ff ff 	mov    %rax,-0x728(%rbp)
   1369b:	48 c7 85 e0 f8 ff ff 	movq   $0x0,-0x720(%rbp)
   136a2:	00 00 00 00 
   136a6:	48 8d 85 70 df ff ff 	lea    -0x2090(%rbp),%rax
   136ad:	48 83 c0 10          	add    $0x10,%rax
   136b1:	48 89 85 e8 f8 ff ff 	mov    %rax,-0x718(%rbp)
   136b8:	48 8d 05 89 e1 00 00 	lea    0xe189(%rip),%rax        # 21848 <g_260+0x8>
   136bf:	48 89 85 f0 f8 ff ff 	mov    %rax,-0x710(%rbp)
   136c6:	48 c7 85 f8 f8 ff ff 	movq   $0x0,-0x708(%rbp)
   136cd:	00 00 00 00 
   136d1:	48 c7 85 00 f9 ff ff 	movq   $0x0,-0x700(%rbp)
   136d8:	00 00 00 00 
   136dc:	48 8d 85 70 df ff ff 	lea    -0x2090(%rbp),%rax
   136e3:	48 83 c0 28          	add    $0x28,%rax
   136e7:	48 89 85 08 f9 ff ff 	mov    %rax,-0x6f8(%rbp)
   136ee:	48 8d 85 70 df ff ff 	lea    -0x2090(%rbp),%rax
   136f5:	48 83 c0 18          	add    $0x18,%rax
   136f9:	48 89 85 10 f9 ff ff 	mov    %rax,-0x6f0(%rbp)
   13700:	48 8d 85 70 df ff ff 	lea    -0x2090(%rbp),%rax
   13707:	48 83 c0 18          	add    $0x18,%rax
   1370b:	48 89 85 18 f9 ff ff 	mov    %rax,-0x6e8(%rbp)
   13712:	48 8d 85 70 df ff ff 	lea    -0x2090(%rbp),%rax
   13719:	48 83 c0 18          	add    $0x18,%rax
   1371d:	48 89 85 20 f9 ff ff 	mov    %rax,-0x6e0(%rbp)
   13724:	48 8d 85 70 df ff ff 	lea    -0x2090(%rbp),%rax
   1372b:	48 83 c0 18          	add    $0x18,%rax
   1372f:	48 89 85 28 f9 ff ff 	mov    %rax,-0x6d8(%rbp)
   13736:	48 8d 85 70 df ff ff 	lea    -0x2090(%rbp),%rax
   1373d:	48 83 c0 28          	add    $0x28,%rax
   13741:	48 89 85 30 f9 ff ff 	mov    %rax,-0x6d0(%rbp)
   13748:	48 c7 85 38 f9 ff ff 	movq   $0x0,-0x6c8(%rbp)
   1374f:	00 00 00 00 
   13753:	48 8d 85 70 df ff ff 	lea    -0x2090(%rbp),%rax
   1375a:	48 83 c0 28          	add    $0x28,%rax
   1375e:	48 89 85 40 f9 ff ff 	mov    %rax,-0x6c0(%rbp)
   13765:	48 8d 05 14 e1 00 00 	lea    0xe114(%rip),%rax        # 21880 <g_260+0x40>
   1376c:	48 89 85 48 f9 ff ff 	mov    %rax,-0x6b8(%rbp)
   13773:	48 8d 05 c6 e0 00 00 	lea    0xe0c6(%rip),%rax        # 21840 <g_260>
   1377a:	48 89 85 50 f9 ff ff 	mov    %rax,-0x6b0(%rbp)
   13781:	48 8d 85 70 df ff ff 	lea    -0x2090(%rbp),%rax
   13788:	48 83 c0 18          	add    $0x18,%rax
   1378c:	48 89 85 58 f9 ff ff 	mov    %rax,-0x6a8(%rbp)
   13793:	48 c7 85 60 f9 ff ff 	movq   $0x0,-0x6a0(%rbp)
   1379a:	00 00 00 00 
   1379e:	48 8d 85 70 df ff ff 	lea    -0x2090(%rbp),%rax
   137a5:	48 83 c0 10          	add    $0x10,%rax
   137a9:	48 89 85 68 f9 ff ff 	mov    %rax,-0x698(%rbp)
   137b0:	48 8d 05 91 e0 00 00 	lea    0xe091(%rip),%rax        # 21848 <g_260+0x8>
   137b7:	48 89 85 70 f9 ff ff 	mov    %rax,-0x690(%rbp)
   137be:	48 c7 85 78 f9 ff ff 	movq   $0x0,-0x688(%rbp)
   137c5:	00 00 00 00 
   137c9:	48 8d 05 78 e0 00 00 	lea    0xe078(%rip),%rax        # 21848 <g_260+0x8>
   137d0:	48 89 85 80 f9 ff ff 	mov    %rax,-0x680(%rbp)
   137d7:	48 8d 85 70 df ff ff 	lea    -0x2090(%rbp),%rax
   137de:	48 83 c0 10          	add    $0x10,%rax
   137e2:	48 89 85 88 f9 ff ff 	mov    %rax,-0x678(%rbp)
   137e9:	48 8d 85 70 df ff ff 	lea    -0x2090(%rbp),%rax
   137f0:	48 83 c0 28          	add    $0x28,%rax
   137f4:	48 89 85 90 f9 ff ff 	mov    %rax,-0x670(%rbp)
   137fb:	48 8d 05 6e e0 00 00 	lea    0xe06e(%rip),%rax        # 21870 <g_260+0x30>
   13802:	48 89 85 98 f9 ff ff 	mov    %rax,-0x668(%rbp)
   13809:	48 8d 05 60 e0 00 00 	lea    0xe060(%rip),%rax        # 21870 <g_260+0x30>
   13810:	48 89 85 a0 f9 ff ff 	mov    %rax,-0x660(%rbp)
   13817:	48 8d 85 70 df ff ff 	lea    -0x2090(%rbp),%rax
   1381e:	48 83 c0 28          	add    $0x28,%rax
   13822:	48 89 85 a8 f9 ff ff 	mov    %rax,-0x658(%rbp)
   13829:	48 8d 05 50 e0 00 00 	lea    0xe050(%rip),%rax        # 21880 <g_260+0x40>
   13830:	48 89 85 b0 f9 ff ff 	mov    %rax,-0x650(%rbp)
   13837:	48 8d 85 70 df ff ff 	lea    -0x2090(%rbp),%rax
   1383e:	48 83 c0 18          	add    $0x18,%rax
   13842:	48 89 85 b8 f9 ff ff 	mov    %rax,-0x648(%rbp)
   13849:	48 8d 05 30 e0 00 00 	lea    0xe030(%rip),%rax        # 21880 <g_260+0x40>
   13850:	48 89 85 c0 f9 ff ff 	mov    %rax,-0x640(%rbp)
   13857:	48 8d 85 70 df ff ff 	lea    -0x2090(%rbp),%rax
   1385e:	48 83 c0 28          	add    $0x28,%rax
   13862:	48 89 85 c8 f9 ff ff 	mov    %rax,-0x638(%rbp)
   13869:	48 8d 05 00 e0 00 00 	lea    0xe000(%rip),%rax        # 21870 <g_260+0x30>
   13870:	48 89 85 d0 f9 ff ff 	mov    %rax,-0x630(%rbp)
   13877:	48 8d 85 70 df ff ff 	lea    -0x2090(%rbp),%rax
   1387e:	48 89 85 d8 f9 ff ff 	mov    %rax,-0x628(%rbp)
   13885:	48 8d 85 70 df ff ff 	lea    -0x2090(%rbp),%rax
   1388c:	48 83 c0 08          	add    $0x8,%rax
   13890:	48 89 85 e0 f9 ff ff 	mov    %rax,-0x620(%rbp)
   13897:	48 c7 85 e8 f9 ff ff 	movq   $0x0,-0x618(%rbp)
   1389e:	00 00 00 00 
   138a2:	48 8d 05 97 df 00 00 	lea    0xdf97(%rip),%rax        # 21840 <g_260>
   138a9:	48 89 85 f0 f9 ff ff 	mov    %rax,-0x610(%rbp)
   138b0:	48 8d 85 70 df ff ff 	lea    -0x2090(%rbp),%rax
   138b7:	48 83 c0 18          	add    $0x18,%rax
   138bb:	48 89 85 f8 f9 ff ff 	mov    %rax,-0x608(%rbp)
   138c2:	48 8d 05 77 df 00 00 	lea    0xdf77(%rip),%rax        # 21840 <g_260>
   138c9:	48 89 85 00 fa ff ff 	mov    %rax,-0x600(%rbp)
   138d0:	48 c7 85 08 fa ff ff 	movq   $0x0,-0x5f8(%rbp)
   138d7:	00 00 00 00 
   138db:	48 8d 85 70 df ff ff 	lea    -0x2090(%rbp),%rax
   138e2:	48 83 c0 08          	add    $0x8,%rax
   138e6:	48 89 85 10 fa ff ff 	mov    %rax,-0x5f0(%rbp)
   138ed:	48 8d 85 70 df ff ff 	lea    -0x2090(%rbp),%rax
   138f4:	48 89 85 18 fa ff ff 	mov    %rax,-0x5e8(%rbp)
   138fb:	48 8d 05 6e df 00 00 	lea    0xdf6e(%rip),%rax        # 21870 <g_260+0x30>
   13902:	48 89 85 20 fa ff ff 	mov    %rax,-0x5e0(%rbp)
   13909:	48 8d 85 70 df ff ff 	lea    -0x2090(%rbp),%rax
   13910:	48 83 c0 28          	add    $0x28,%rax
   13914:	48 89 85 28 fa ff ff 	mov    %rax,-0x5d8(%rbp)
   1391b:	48 8d 05 5e df 00 00 	lea    0xdf5e(%rip),%rax        # 21880 <g_260+0x40>
   13922:	48 89 85 30 fa ff ff 	mov    %rax,-0x5d0(%rbp)
   13929:	48 8d 85 70 df ff ff 	lea    -0x2090(%rbp),%rax
   13930:	48 83 c0 18          	add    $0x18,%rax
   13934:	48 89 85 38 fa ff ff 	mov    %rax,-0x5c8(%rbp)
   1393b:	48 8d 05 3e df 00 00 	lea    0xdf3e(%rip),%rax        # 21880 <g_260+0x40>
   13942:	48 89 85 40 fa ff ff 	mov    %rax,-0x5c0(%rbp)
   13949:	48 8d 85 70 df ff ff 	lea    -0x2090(%rbp),%rax
   13950:	48 83 c0 28          	add    $0x28,%rax
   13954:	48 89 85 48 fa ff ff 	mov    %rax,-0x5b8(%rbp)
   1395b:	48 8d 05 0e df 00 00 	lea    0xdf0e(%rip),%rax        # 21870 <g_260+0x30>
   13962:	48 89 85 50 fa ff ff 	mov    %rax,-0x5b0(%rbp)
   13969:	48 8d 05 00 df 00 00 	lea    0xdf00(%rip),%rax        # 21870 <g_260+0x30>
   13970:	48 89 85 58 fa ff ff 	mov    %rax,-0x5a8(%rbp)
   13977:	48 8d 85 70 df ff ff 	lea    -0x2090(%rbp),%rax
   1397e:	48 83 c0 28          	add    $0x28,%rax
   13982:	48 89 85 60 fa ff ff 	mov    %rax,-0x5a0(%rbp)
   13989:	48 8d 85 c4 da ff ff 	lea    -0x253c(%rbp),%rax
   13990:	48 89 85 98 dd ff ff 	mov    %rax,-0x2268(%rbp)
   13997:	48 8d 85 d0 db ff ff 	lea    -0x2430(%rbp),%rax
   1399e:	48 89 85 a0 dd ff ff 	mov    %rax,-0x2260(%rbp)
   139a5:	8b 85 ac da ff ff    	mov    -0x2554(%rbp),%eax
   139ab:	41 89 c5             	mov    %eax,%r13d
   139ae:	be 01 00 00 00       	mov    $0x1,%esi
   139b3:	bf 00 00 00 00       	mov    $0x0,%edi
   139b8:	e8 31 49 ff ff       	callq  82ee <safe_lshift_func_int8_t_s_u>
   139bd:	48 8d 05 bc de 00 00 	lea    0xdebc(%rip),%rax        # 21880 <g_260+0x40>
   139c4:	48 89 85 a8 dc ff ff 	mov    %rax,-0x2358(%rbp)
   139cb:	48 8b 85 d8 f8 ff ff 	mov    -0x728(%rbp),%rax
   139d2:	48 39 85 a8 dc ff ff 	cmp    %rax,-0x2358(%rbp)
   139d9:	0f 95 c0             	setne  %al
   139dc:	44 0f b6 e0          	movzbl %al,%r12d
   139e0:	8b 9d 68 db ff ff    	mov    -0x2498(%rbp),%ebx
   139e6:	8b 05 a6 bb 00 00    	mov    0xbba6(%rip),%eax        # 1f592 <g_434+0x12>
   139ec:	85 c0                	test   %eax,%eax
   139ee:	0f 95 c0             	setne  %al
   139f1:	0f b6 c0             	movzbl %al,%eax
   139f4:	8b 15 78 bb 00 00    	mov    0xbb78(%rip),%edx        # 1f572 <g_433+0x12>
   139fa:	89 d2                	mov    %edx,%edx
   139fc:	48 89 c6             	mov    %rax,%rsi
   139ff:	48 89 d7             	mov    %rdx,%rdi
   13a02:	e8 44 56 ff ff       	callq  904b <safe_sub_func_uint64_t_u_u>
   13a07:	48 89 de             	mov    %rbx,%rsi
   13a0a:	48 89 c7             	mov    %rax,%rdi
   13a0d:	e8 2f 4e ff ff       	callq  8841 <safe_add_func_int64_t_s_s>
   13a12:	48 85 c0             	test   %rax,%rax
   13a15:	75 08                	jne    13a1f <func_60+0x3efd>
   13a17:	8b 85 ac da ff ff    	mov    -0x2554(%rbp),%eax
   13a1d:	85 c0                	test   %eax,%eax
   13a1f:	48 8b 85 e0 db ff ff 	mov    -0x2420(%rbp),%rax
   13a26:	8b 00                	mov    (%rax),%eax
   13a28:	83 f0 01             	xor    $0x1,%eax
   13a2b:	89 c2                	mov    %eax,%edx
   13a2d:	48 8b 85 98 dd ff ff 	mov    -0x2268(%rbp),%rax
   13a34:	89 10                	mov    %edx,(%rax)
   13a36:	48 8b 85 98 dd ff ff 	mov    -0x2268(%rbp),%rax
   13a3d:	8b 00                	mov    (%rax),%eax
   13a3f:	41 39 c4             	cmp    %eax,%r12d
   13a42:	0f 95 c0             	setne  %al
   13a45:	0f b6 c0             	movzbl %al,%eax
   13a48:	8b 95 08 db ff ff    	mov    -0x24f8(%rbp),%edx
   13a4e:	89 d6                	mov    %edx,%esi
   13a50:	89 c7                	mov    %eax,%edi
   13a52:	e8 ce 54 ff ff       	callq  8f25 <safe_div_func_uint32_t_u_u>
   13a57:	be 06 00 00 00       	mov    $0x6,%esi
   13a5c:	bf 2d e1 00 00       	mov    $0xe12d,%edi
   13a61:	e8 14 54 ff ff       	callq  8e7a <safe_rshift_func_uint16_t_u_u>
   13a66:	83 bd 8c db ff ff 02 	cmpl   $0x2,-0x2474(%rbp)
   13a6d:	0f 95 c0             	setne  %al
   13a70:	0f b6 d0             	movzbl %al,%edx
   13a73:	8b 85 c8 da ff ff    	mov    -0x2538(%rbp),%eax
   13a79:	39 c2                	cmp    %eax,%edx
   13a7b:	0f 9f c0             	setg   %al
   13a7e:	0f b6 d0             	movzbl %al,%edx
   13a81:	8b 85 a8 da ff ff    	mov    -0x2558(%rbp),%eax
   13a87:	21 c2                	and    %eax,%edx
   13a89:	8b 85 ac da ff ff    	mov    -0x2554(%rbp),%eax
   13a8f:	39 c2                	cmp    %eax,%edx
   13a91:	0f 97 c0             	seta   %al
   13a94:	0f b6 c0             	movzbl %al,%eax
   13a97:	be d4 00 00 00       	mov    $0xd4,%esi
   13a9c:	89 c7                	mov    %eax,%edi
   13a9e:	e8 0b 51 ff ff       	callq  8bae <safe_mod_func_uint8_t_u_u>
   13aa3:	0f b6 c0             	movzbl %al,%eax
   13aa6:	44 89 ee             	mov    %r13d,%esi
   13aa9:	89 c7                	mov    %eax,%edi
   13aab:	e8 56 53 ff ff       	callq  8e06 <safe_lshift_func_uint16_t_u_u>
   13ab0:	48 8b 95 e0 db ff ff 	mov    -0x2420(%rbp),%rdx
   13ab7:	48 8b 85 e0 db ff ff 	mov    -0x2420(%rbp),%rax
   13abe:	8b 12                	mov    (%rdx),%edx
   13ac0:	89 10                	mov    %edx,(%rax)
   13ac2:	8b 00                	mov    (%rax),%eax
   13ac4:	88 85 b4 da ff ff    	mov    %al,-0x254c(%rbp)
   13aca:	48 8b 05 af f1 00 00 	mov    0xf1af(%rip),%rax        # 22c80 <g_166>
   13ad1:	8b 00                	mov    (%rax),%eax
   13ad3:	85 c0                	test   %eax,%eax
   13ad5:	0f 85 e0 00 00 00    	jne    13bbb <func_60+0x4099>
   13adb:	48 8b 85 e0 db ff ff 	mov    -0x2420(%rbp),%rax
   13ae2:	8b 95 68 db ff ff    	mov    -0x2498(%rbp),%edx
   13ae8:	89 10                	mov    %edx,(%rax)
   13aea:	48 8b 85 a0 dd ff ff 	mov    -0x2260(%rbp),%rax
   13af1:	48 8d 15 b0 dd 00 00 	lea    0xddb0(%rip),%rdx        # 218a8 <g_406>
   13af8:	48 89 10             	mov    %rdx,(%rax)
   13afb:	ba 01 00 00 00       	mov    $0x1,%edx
   13b00:	48 8b 05 09 e6 00 00 	mov    0xe609(%rip),%rax        # 22110 <g_563>
   13b07:	48 85 c0             	test   %rax,%rax
   13b0a:	0f 95 c0             	setne  %al
   13b0d:	0f b6 c0             	movzbl %al,%eax
   13b10:	39 c2                	cmp    %eax,%edx
   13b12:	8b 85 ac da ff ff    	mov    -0x2554(%rbp),%eax
   13b18:	0f bf d8             	movswl %ax,%ebx
   13b1b:	8b 85 88 de ff ff    	mov    -0x2178(%rbp),%eax
   13b21:	98                   	cwtl   
   13b22:	be f5 bf ff ff       	mov    $0xffffbff5,%esi
   13b27:	89 c7                	mov    %eax,%edi
   13b29:	e8 a5 48 ff ff       	callq  83d3 <safe_sub_func_int16_t_s_s>
   13b2e:	89 de                	mov    %ebx,%esi
   13b30:	bf a9 cd ff ff       	mov    $0xffffcda9,%edi
   13b35:	e8 99 48 ff ff       	callq  83d3 <safe_sub_func_int16_t_s_s>
   13b3a:	0f b6 05 07 a7 00 00 	movzbl 0xa707(%rip),%eax        # 1e248 <g_429+0x8>
   13b41:	84 c0                	test   %al,%al
   13b43:	0f 95 c0             	setne  %al
   13b46:	0f b6 c0             	movzbl %al,%eax
   13b49:	89 85 10 df ff ff    	mov    %eax,-0x20f0(%rbp)
   13b4f:	8b 95 10 df ff ff    	mov    -0x20f0(%rbp),%edx
   13b55:	0f b7 05 5d a6 00 00 	movzwl 0xa65d(%rip),%eax        # 1e1b9 <g_271+0x9>
   13b5c:	0f b7 c0             	movzwl %ax,%eax
   13b5f:	21 d0                	and    %edx,%eax
   13b61:	48 98                	cltq   
   13b63:	48 ba 16 38 06 b9 ca 	movabs $0xa75800cab9063816,%rdx
   13b6a:	00 58 a7 
   13b6d:	48 21 c2             	and    %rax,%rdx
   13b70:	48 8b 85 60 dc ff ff 	mov    -0x23a0(%rbp),%rax
   13b77:	48 8b 00             	mov    (%rax),%rax
   13b7a:	48 31 c2             	xor    %rax,%rdx
   13b7d:	48 8b 85 60 dc ff ff 	mov    -0x23a0(%rbp),%rax
   13b84:	48 89 10             	mov    %rdx,(%rax)
   13b87:	48 8b 05 0a dc 00 00 	mov    0xdc0a(%rip),%rax        # 21798 <g_43>
   13b8e:	48 8d 95 d8 da ff ff 	lea    -0x2528(%rbp),%rdx
   13b95:	48 89 10             	mov    %rdx,(%rax)
   13b98:	0f b7 05 aa b9 00 00 	movzwl 0xb9aa(%rip),%eax        # 1f549 <g_432+0x9>
   13b9f:	83 c0 01             	add    $0x1,%eax
   13ba2:	66 89 05 a0 b9 00 00 	mov    %ax,0xb9a0(%rip)        # 1f549 <g_432+0x9>
   13ba9:	0f b7 05 99 b9 00 00 	movzwl 0xb999(%rip),%eax        # 1f549 <g_432+0x9>
   13bb0:	66 85 c0             	test   %ax,%ax
   13bb3:	0f 84 0c f9 ff ff    	je     134c5 <func_60+0x39a3>
   13bb9:	eb 01                	jmp    13bbc <func_60+0x409a>
   13bbb:	90                   	nop
   13bbc:	48 8b 85 90 dd ff ff 	mov    -0x2270(%rbp),%rax
   13bc3:	48 c7 00 00 00 00 00 	movq   $0x0,(%rax)
   13bca:	48 8b 85 90 dd ff ff 	mov    -0x2270(%rbp),%rax
   13bd1:	48 8b 00             	mov    (%rax),%rax
   13bd4:	48 8d 15 31 a5 00 00 	lea    0xa531(%rip),%rdx        # 1e10c <g_211>
   13bdb:	48 39 d0             	cmp    %rdx,%rax
   13bde:	0f 95 c0             	setne  %al
   13be1:	0f b6 c8             	movzbl %al,%ecx
   13be4:	48 8b 85 e0 db ff ff 	mov    -0x2420(%rbp),%rax
   13beb:	8b 10                	mov    (%rax),%edx
   13bed:	48 8b 85 e0 db ff ff 	mov    -0x2420(%rbp),%rax
   13bf4:	21 ca                	and    %ecx,%edx
   13bf6:	89 10                	mov    %edx,(%rax)
   13bf8:	66 c7 05 b8 a5 00 00 	movw   $0x0,0xa5b8(%rip)        # 1e1b9 <g_271+0x9>
   13bff:	00 00 
   13c01:	90                   	nop
   13c02:	0f b7 05 b0 a5 00 00 	movzwl 0xa5b0(%rip),%eax        # 1e1b9 <g_271+0x9>
   13c09:	66 83 f8 34          	cmp    $0x34,%ax
   13c0d:	0f 87 42 0f 00 00    	ja     14b55 <func_60+0x5033>
   13c13:	66 c7 85 be da ff ff 	movw   $0xd72e,-0x2542(%rbp)
   13c1a:	2e d7 
   13c1c:	48 8d 85 10 ec ff ff 	lea    -0x13f0(%rbp),%rax
   13c23:	48 8d 15 96 66 00 00 	lea    0x6696(%rip),%rdx        # 1a2c0 <g_386+0x126c>
   13c2a:	b9 28 00 00 00       	mov    $0x28,%ecx
   13c2f:	48 89 c7             	mov    %rax,%rdi
   13c32:	48 89 d6             	mov    %rdx,%rsi
   13c35:	f3 48 a5             	rep movsq %ds:(%rsi),%es:(%rdi)
   13c38:	48 8d 85 b4 da ff ff 	lea    -0x254c(%rbp),%rax
   13c3f:	48 89 85 e0 f7 ff ff 	mov    %rax,-0x820(%rbp)
   13c46:	48 8d 85 b6 da ff ff 	lea    -0x254a(%rbp),%rax
   13c4d:	48 89 85 e8 f7 ff ff 	mov    %rax,-0x818(%rbp)
   13c54:	48 8d 85 b4 da ff ff 	lea    -0x254c(%rbp),%rax
   13c5b:	48 89 85 f0 f7 ff ff 	mov    %rax,-0x810(%rbp)
   13c62:	48 8d 85 b4 da ff ff 	lea    -0x254c(%rbp),%rax
   13c69:	48 89 85 f8 f7 ff ff 	mov    %rax,-0x808(%rbp)
   13c70:	48 8d 85 b6 da ff ff 	lea    -0x254a(%rbp),%rax
   13c77:	48 89 85 00 f8 ff ff 	mov    %rax,-0x800(%rbp)
   13c7e:	48 8d 85 b6 da ff ff 	lea    -0x254a(%rbp),%rax
   13c85:	48 89 85 08 f8 ff ff 	mov    %rax,-0x7f8(%rbp)
   13c8c:	48 8d 85 b6 da ff ff 	lea    -0x254a(%rbp),%rax
   13c93:	48 89 85 10 f8 ff ff 	mov    %rax,-0x7f0(%rbp)
   13c9a:	48 8d 85 b6 da ff ff 	lea    -0x254a(%rbp),%rax
   13ca1:	48 89 85 18 f8 ff ff 	mov    %rax,-0x7e8(%rbp)
   13ca8:	48 8d 85 b6 da ff ff 	lea    -0x254a(%rbp),%rax
   13caf:	48 89 85 20 f8 ff ff 	mov    %rax,-0x7e0(%rbp)
   13cb6:	48 8d 85 b4 da ff ff 	lea    -0x254c(%rbp),%rax
   13cbd:	48 89 85 28 f8 ff ff 	mov    %rax,-0x7d8(%rbp)
   13cc4:	48 8d 85 b4 da ff ff 	lea    -0x254c(%rbp),%rax
   13ccb:	48 89 85 30 f8 ff ff 	mov    %rax,-0x7d0(%rbp)
   13cd2:	48 8d 85 b6 da ff ff 	lea    -0x254a(%rbp),%rax
   13cd9:	48 89 85 38 f8 ff ff 	mov    %rax,-0x7c8(%rbp)
   13ce0:	48 8d 85 b4 da ff ff 	lea    -0x254c(%rbp),%rax
   13ce7:	48 89 85 40 f8 ff ff 	mov    %rax,-0x7c0(%rbp)
   13cee:	48 8d 85 b6 da ff ff 	lea    -0x254a(%rbp),%rax
   13cf5:	48 89 85 48 f8 ff ff 	mov    %rax,-0x7b8(%rbp)
   13cfc:	48 8d 85 b4 da ff ff 	lea    -0x254c(%rbp),%rax
   13d03:	48 89 85 50 f8 ff ff 	mov    %rax,-0x7b0(%rbp)
   13d0a:	48 8d 85 b4 da ff ff 	lea    -0x254c(%rbp),%rax
   13d11:	48 89 85 58 f8 ff ff 	mov    %rax,-0x7a8(%rbp)
   13d18:	48 8d 85 b6 da ff ff 	lea    -0x254a(%rbp),%rax
   13d1f:	48 89 85 60 f8 ff ff 	mov    %rax,-0x7a0(%rbp)
   13d26:	48 8d 85 b6 da ff ff 	lea    -0x254a(%rbp),%rax
   13d2d:	48 89 85 68 f8 ff ff 	mov    %rax,-0x798(%rbp)
   13d34:	48 8d 85 b6 da ff ff 	lea    -0x254a(%rbp),%rax
   13d3b:	48 89 85 70 f8 ff ff 	mov    %rax,-0x790(%rbp)
   13d42:	48 8d 85 b6 da ff ff 	lea    -0x254a(%rbp),%rax
   13d49:	48 89 85 78 f8 ff ff 	mov    %rax,-0x788(%rbp)
   13d50:	48 8d 85 b6 da ff ff 	lea    -0x254a(%rbp),%rax
   13d57:	48 89 85 80 f8 ff ff 	mov    %rax,-0x780(%rbp)
   13d5e:	48 8d 85 b4 da ff ff 	lea    -0x254c(%rbp),%rax
   13d65:	48 89 85 88 f8 ff ff 	mov    %rax,-0x778(%rbp)
   13d6c:	48 8d 85 b4 da ff ff 	lea    -0x254c(%rbp),%rax
   13d73:	48 89 85 90 f8 ff ff 	mov    %rax,-0x770(%rbp)
   13d7a:	48 8d 85 b6 da ff ff 	lea    -0x254a(%rbp),%rax
   13d81:	48 89 85 98 f8 ff ff 	mov    %rax,-0x768(%rbp)
   13d88:	48 8d 85 b4 da ff ff 	lea    -0x254c(%rbp),%rax
   13d8f:	48 89 85 a0 f8 ff ff 	mov    %rax,-0x760(%rbp)
   13d96:	48 8d 85 b6 da ff ff 	lea    -0x254a(%rbp),%rax
   13d9d:	48 89 85 a8 f8 ff ff 	mov    %rax,-0x758(%rbp)
   13da4:	48 8d 85 b4 da ff ff 	lea    -0x254c(%rbp),%rax
   13dab:	48 89 85 b0 f8 ff ff 	mov    %rax,-0x750(%rbp)
   13db2:	48 8d 85 b4 da ff ff 	lea    -0x254c(%rbp),%rax
   13db9:	48 89 85 b8 f8 ff ff 	mov    %rax,-0x748(%rbp)
   13dc0:	48 8d 85 b6 da ff ff 	lea    -0x254a(%rbp),%rax
   13dc7:	48 89 85 c0 f8 ff ff 	mov    %rax,-0x740(%rbp)
   13dce:	48 8d 85 b6 da ff ff 	lea    -0x254a(%rbp),%rax
   13dd5:	48 89 85 c8 f8 ff ff 	mov    %rax,-0x738(%rbp)
   13ddc:	48 8d 85 b6 da ff ff 	lea    -0x254a(%rbp),%rax
   13de3:	48 89 85 d0 f8 ff ff 	mov    %rax,-0x730(%rbp)
   13dea:	48 8d 85 b6 da ff ff 	lea    -0x254a(%rbp),%rax
   13df1:	48 89 85 d8 f8 ff ff 	mov    %rax,-0x728(%rbp)
   13df8:	48 8d 85 b6 da ff ff 	lea    -0x254a(%rbp),%rax
   13dff:	48 89 85 e0 f8 ff ff 	mov    %rax,-0x720(%rbp)
   13e06:	48 8d 85 b4 da ff ff 	lea    -0x254c(%rbp),%rax
   13e0d:	48 89 85 e8 f8 ff ff 	mov    %rax,-0x718(%rbp)
   13e14:	48 8d 85 b4 da ff ff 	lea    -0x254c(%rbp),%rax
   13e1b:	48 89 85 f0 f8 ff ff 	mov    %rax,-0x710(%rbp)
   13e22:	48 8d 85 b6 da ff ff 	lea    -0x254a(%rbp),%rax
   13e29:	48 89 85 f8 f8 ff ff 	mov    %rax,-0x708(%rbp)
   13e30:	48 8d 85 b4 da ff ff 	lea    -0x254c(%rbp),%rax
   13e37:	48 89 85 00 f9 ff ff 	mov    %rax,-0x700(%rbp)
   13e3e:	48 8d 85 b6 da ff ff 	lea    -0x254a(%rbp),%rax
   13e45:	48 89 85 08 f9 ff ff 	mov    %rax,-0x6f8(%rbp)
   13e4c:	48 8d 85 b4 da ff ff 	lea    -0x254c(%rbp),%rax
   13e53:	48 89 85 10 f9 ff ff 	mov    %rax,-0x6f0(%rbp)
   13e5a:	48 8d 85 b4 da ff ff 	lea    -0x254c(%rbp),%rax
   13e61:	48 89 85 18 f9 ff ff 	mov    %rax,-0x6e8(%rbp)
   13e68:	48 8d 85 b6 da ff ff 	lea    -0x254a(%rbp),%rax
   13e6f:	48 89 85 20 f9 ff ff 	mov    %rax,-0x6e0(%rbp)
   13e76:	48 8d 85 b6 da ff ff 	lea    -0x254a(%rbp),%rax
   13e7d:	48 89 85 28 f9 ff ff 	mov    %rax,-0x6d8(%rbp)
   13e84:	48 8d 85 b6 da ff ff 	lea    -0x254a(%rbp),%rax
   13e8b:	48 89 85 30 f9 ff ff 	mov    %rax,-0x6d0(%rbp)
   13e92:	48 8d 85 b6 da ff ff 	lea    -0x254a(%rbp),%rax
   13e99:	48 89 85 38 f9 ff ff 	mov    %rax,-0x6c8(%rbp)
   13ea0:	48 8d 85 b6 da ff ff 	lea    -0x254a(%rbp),%rax
   13ea7:	48 89 85 40 f9 ff ff 	mov    %rax,-0x6c0(%rbp)
   13eae:	48 8d 85 b4 da ff ff 	lea    -0x254c(%rbp),%rax
   13eb5:	48 89 85 48 f9 ff ff 	mov    %rax,-0x6b8(%rbp)
   13ebc:	48 8d 85 b4 da ff ff 	lea    -0x254c(%rbp),%rax
   13ec3:	48 89 85 50 f9 ff ff 	mov    %rax,-0x6b0(%rbp)
   13eca:	48 8d 85 b6 da ff ff 	lea    -0x254a(%rbp),%rax
   13ed1:	48 89 85 58 f9 ff ff 	mov    %rax,-0x6a8(%rbp)
   13ed8:	48 8d 85 b4 da ff ff 	lea    -0x254c(%rbp),%rax
   13edf:	48 89 85 60 f9 ff ff 	mov    %rax,-0x6a0(%rbp)
   13ee6:	48 8d 85 b6 da ff ff 	lea    -0x254a(%rbp),%rax
   13eed:	48 89 85 68 f9 ff ff 	mov    %rax,-0x698(%rbp)
   13ef4:	48 8d 85 b4 da ff ff 	lea    -0x254c(%rbp),%rax
   13efb:	48 89 85 70 f9 ff ff 	mov    %rax,-0x690(%rbp)
   13f02:	48 8d 85 b4 da ff ff 	lea    -0x254c(%rbp),%rax
   13f09:	48 89 85 78 f9 ff ff 	mov    %rax,-0x688(%rbp)
   13f10:	48 8d 85 b6 da ff ff 	lea    -0x254a(%rbp),%rax
   13f17:	48 89 85 80 f9 ff ff 	mov    %rax,-0x680(%rbp)
   13f1e:	48 8d 85 b6 da ff ff 	lea    -0x254a(%rbp),%rax
   13f25:	48 89 85 88 f9 ff ff 	mov    %rax,-0x678(%rbp)
   13f2c:	48 8d 85 b6 da ff ff 	lea    -0x254a(%rbp),%rax
   13f33:	48 89 85 90 f9 ff ff 	mov    %rax,-0x670(%rbp)
   13f3a:	48 8d 85 b6 da ff ff 	lea    -0x254a(%rbp),%rax
   13f41:	48 89 85 98 f9 ff ff 	mov    %rax,-0x668(%rbp)
   13f48:	48 8d 85 b6 da ff ff 	lea    -0x254a(%rbp),%rax
   13f4f:	48 89 85 a0 f9 ff ff 	mov    %rax,-0x660(%rbp)
   13f56:	48 8d 85 b4 da ff ff 	lea    -0x254c(%rbp),%rax
   13f5d:	48 89 85 a8 f9 ff ff 	mov    %rax,-0x658(%rbp)
   13f64:	48 8d 85 b4 da ff ff 	lea    -0x254c(%rbp),%rax
   13f6b:	48 89 85 b0 f9 ff ff 	mov    %rax,-0x650(%rbp)
   13f72:	48 8d 85 b6 da ff ff 	lea    -0x254a(%rbp),%rax
   13f79:	48 89 85 b8 f9 ff ff 	mov    %rax,-0x648(%rbp)
   13f80:	48 8d 85 b4 da ff ff 	lea    -0x254c(%rbp),%rax
   13f87:	48 89 85 c0 f9 ff ff 	mov    %rax,-0x640(%rbp)
   13f8e:	48 8d 85 b6 da ff ff 	lea    -0x254a(%rbp),%rax
   13f95:	48 89 85 c8 f9 ff ff 	mov    %rax,-0x638(%rbp)
   13f9c:	48 8d 85 b4 da ff ff 	lea    -0x254c(%rbp),%rax
   13fa3:	48 89 85 d0 f9 ff ff 	mov    %rax,-0x630(%rbp)
   13faa:	48 8d 85 b4 da ff ff 	lea    -0x254c(%rbp),%rax
   13fb1:	48 89 85 d8 f9 ff ff 	mov    %rax,-0x628(%rbp)
   13fb8:	48 8d 85 b6 da ff ff 	lea    -0x254a(%rbp),%rax
   13fbf:	48 89 85 e0 f9 ff ff 	mov    %rax,-0x620(%rbp)
   13fc6:	48 8d 85 b6 da ff ff 	lea    -0x254a(%rbp),%rax
   13fcd:	48 89 85 e8 f9 ff ff 	mov    %rax,-0x618(%rbp)
   13fd4:	48 8d 85 b6 da ff ff 	lea    -0x254a(%rbp),%rax
   13fdb:	48 89 85 f0 f9 ff ff 	mov    %rax,-0x610(%rbp)
   13fe2:	48 8d 85 b6 da ff ff 	lea    -0x254a(%rbp),%rax
   13fe9:	48 89 85 f8 f9 ff ff 	mov    %rax,-0x608(%rbp)
   13ff0:	48 8d 85 b6 da ff ff 	lea    -0x254a(%rbp),%rax
   13ff7:	48 89 85 00 fa ff ff 	mov    %rax,-0x600(%rbp)
   13ffe:	48 8d 85 b4 da ff ff 	lea    -0x254c(%rbp),%rax
   14005:	48 89 85 08 fa ff ff 	mov    %rax,-0x5f8(%rbp)
   1400c:	48 8d 85 b4 da ff ff 	lea    -0x254c(%rbp),%rax
   14013:	48 89 85 10 fa ff ff 	mov    %rax,-0x5f0(%rbp)
   1401a:	48 8d 85 b6 da ff ff 	lea    -0x254a(%rbp),%rax
   14021:	48 89 85 18 fa ff ff 	mov    %rax,-0x5e8(%rbp)
   14028:	48 8d 85 b4 da ff ff 	lea    -0x254c(%rbp),%rax
   1402f:	48 89 85 20 fa ff ff 	mov    %rax,-0x5e0(%rbp)
   14036:	48 8d 85 b6 da ff ff 	lea    -0x254a(%rbp),%rax
   1403d:	48 89 85 28 fa ff ff 	mov    %rax,-0x5d8(%rbp)
   14044:	48 8d 85 b6 da ff ff 	lea    -0x254a(%rbp),%rax
   1404b:	48 89 85 30 fa ff ff 	mov    %rax,-0x5d0(%rbp)
   14052:	48 8d 85 b5 da ff ff 	lea    -0x254b(%rbp),%rax
   14059:	48 89 85 38 fa ff ff 	mov    %rax,-0x5c8(%rbp)
   14060:	48 8d 85 b4 da ff ff 	lea    -0x254c(%rbp),%rax
   14067:	48 89 85 40 fa ff ff 	mov    %rax,-0x5c0(%rbp)
   1406e:	48 8d 85 b4 da ff ff 	lea    -0x254c(%rbp),%rax
   14075:	48 89 85 48 fa ff ff 	mov    %rax,-0x5b8(%rbp)
   1407c:	48 8d 85 b6 da ff ff 	lea    -0x254a(%rbp),%rax
   14083:	48 89 85 50 fa ff ff 	mov    %rax,-0x5b0(%rbp)
   1408a:	48 8d 85 b4 da ff ff 	lea    -0x254c(%rbp),%rax
   14091:	48 89 85 58 fa ff ff 	mov    %rax,-0x5a8(%rbp)
   14098:	48 8d 85 b4 da ff ff 	lea    -0x254c(%rbp),%rax
   1409f:	48 89 85 60 fa ff ff 	mov    %rax,-0x5a0(%rbp)
   140a6:	48 8d 85 b5 da ff ff 	lea    -0x254b(%rbp),%rax
   140ad:	48 89 85 68 fa ff ff 	mov    %rax,-0x598(%rbp)
   140b4:	48 8d 85 b6 da ff ff 	lea    -0x254a(%rbp),%rax
   140bb:	48 89 85 70 fa ff ff 	mov    %rax,-0x590(%rbp)
   140c2:	48 8d 85 b4 da ff ff 	lea    -0x254c(%rbp),%rax
   140c9:	48 89 85 78 fa ff ff 	mov    %rax,-0x588(%rbp)
   140d0:	48 8d 85 b6 da ff ff 	lea    -0x254a(%rbp),%rax
   140d7:	48 89 85 80 fa ff ff 	mov    %rax,-0x580(%rbp)
   140de:	48 8d 85 b4 da ff ff 	lea    -0x254c(%rbp),%rax
   140e5:	48 89 85 88 fa ff ff 	mov    %rax,-0x578(%rbp)
   140ec:	48 8d 85 b6 da ff ff 	lea    -0x254a(%rbp),%rax
   140f3:	48 89 85 90 fa ff ff 	mov    %rax,-0x570(%rbp)
   140fa:	48 8d 85 b5 da ff ff 	lea    -0x254b(%rbp),%rax
   14101:	48 89 85 98 fa ff ff 	mov    %rax,-0x568(%rbp)
   14108:	48 8d 85 b4 da ff ff 	lea    -0x254c(%rbp),%rax
   1410f:	48 89 85 a0 fa ff ff 	mov    %rax,-0x560(%rbp)
   14116:	48 8d 85 b4 da ff ff 	lea    -0x254c(%rbp),%rax
   1411d:	48 89 85 a8 fa ff ff 	mov    %rax,-0x558(%rbp)
   14124:	48 8d 85 b6 da ff ff 	lea    -0x254a(%rbp),%rax
   1412b:	48 89 85 b0 fa ff ff 	mov    %rax,-0x550(%rbp)
   14132:	48 8d 85 b4 da ff ff 	lea    -0x254c(%rbp),%rax
   14139:	48 89 85 b8 fa ff ff 	mov    %rax,-0x548(%rbp)
   14140:	48 8d 85 b4 da ff ff 	lea    -0x254c(%rbp),%rax
   14147:	48 89 85 c0 fa ff ff 	mov    %rax,-0x540(%rbp)
   1414e:	48 8d 85 b5 da ff ff 	lea    -0x254b(%rbp),%rax
   14155:	48 89 85 c8 fa ff ff 	mov    %rax,-0x538(%rbp)
   1415c:	48 8d 85 b6 da ff ff 	lea    -0x254a(%rbp),%rax
   14163:	48 89 85 d0 fa ff ff 	mov    %rax,-0x530(%rbp)
   1416a:	48 8d 85 b4 da ff ff 	lea    -0x254c(%rbp),%rax
   14171:	48 89 85 d8 fa ff ff 	mov    %rax,-0x528(%rbp)
   14178:	48 8d 85 b6 da ff ff 	lea    -0x254a(%rbp),%rax
   1417f:	48 89 85 e0 fa ff ff 	mov    %rax,-0x520(%rbp)
   14186:	48 8d 85 b4 da ff ff 	lea    -0x254c(%rbp),%rax
   1418d:	48 89 85 e8 fa ff ff 	mov    %rax,-0x518(%rbp)
   14194:	48 8d 85 b6 da ff ff 	lea    -0x254a(%rbp),%rax
   1419b:	48 89 85 f0 fa ff ff 	mov    %rax,-0x510(%rbp)
   141a2:	48 8d 85 b5 da ff ff 	lea    -0x254b(%rbp),%rax
   141a9:	48 89 85 f8 fa ff ff 	mov    %rax,-0x508(%rbp)
   141b0:	48 8d 85 b4 da ff ff 	lea    -0x254c(%rbp),%rax
   141b7:	48 89 85 00 fb ff ff 	mov    %rax,-0x500(%rbp)
   141be:	48 8d 85 b4 da ff ff 	lea    -0x254c(%rbp),%rax
   141c5:	48 89 85 08 fb ff ff 	mov    %rax,-0x4f8(%rbp)
   141cc:	48 8d 85 b6 da ff ff 	lea    -0x254a(%rbp),%rax
   141d3:	48 89 85 10 fb ff ff 	mov    %rax,-0x4f0(%rbp)
   141da:	48 8d 85 b4 da ff ff 	lea    -0x254c(%rbp),%rax
   141e1:	48 89 85 18 fb ff ff 	mov    %rax,-0x4e8(%rbp)
   141e8:	48 8d 85 b4 da ff ff 	lea    -0x254c(%rbp),%rax
   141ef:	48 89 85 20 fb ff ff 	mov    %rax,-0x4e0(%rbp)
   141f6:	48 8d 85 b5 da ff ff 	lea    -0x254b(%rbp),%rax
   141fd:	48 89 85 28 fb ff ff 	mov    %rax,-0x4d8(%rbp)
   14204:	48 8d 85 b6 da ff ff 	lea    -0x254a(%rbp),%rax
   1420b:	48 89 85 30 fb ff ff 	mov    %rax,-0x4d0(%rbp)
   14212:	48 8d 85 b4 da ff ff 	lea    -0x254c(%rbp),%rax
   14219:	48 89 85 38 fb ff ff 	mov    %rax,-0x4c8(%rbp)
   14220:	48 8d 85 b6 da ff ff 	lea    -0x254a(%rbp),%rax
   14227:	48 89 85 40 fb ff ff 	mov    %rax,-0x4c0(%rbp)
   1422e:	48 8d 85 b4 da ff ff 	lea    -0x254c(%rbp),%rax
   14235:	48 89 85 48 fb ff ff 	mov    %rax,-0x4b8(%rbp)
   1423c:	48 8d 85 b6 da ff ff 	lea    -0x254a(%rbp),%rax
   14243:	48 89 85 50 fb ff ff 	mov    %rax,-0x4b0(%rbp)
   1424a:	48 8d 85 b5 da ff ff 	lea    -0x254b(%rbp),%rax
   14251:	48 89 85 58 fb ff ff 	mov    %rax,-0x4a8(%rbp)
   14258:	48 8d 85 b4 da ff ff 	lea    -0x254c(%rbp),%rax
   1425f:	48 89 85 60 fb ff ff 	mov    %rax,-0x4a0(%rbp)
   14266:	48 8d 85 b4 da ff ff 	lea    -0x254c(%rbp),%rax
   1426d:	48 89 85 68 fb ff ff 	mov    %rax,-0x498(%rbp)
   14274:	48 8d 85 b6 da ff ff 	lea    -0x254a(%rbp),%rax
   1427b:	48 89 85 70 fb ff ff 	mov    %rax,-0x490(%rbp)
   14282:	48 8d 85 b4 da ff ff 	lea    -0x254c(%rbp),%rax
   14289:	48 89 85 78 fb ff ff 	mov    %rax,-0x488(%rbp)
   14290:	48 8d 85 b4 da ff ff 	lea    -0x254c(%rbp),%rax
   14297:	48 89 85 80 fb ff ff 	mov    %rax,-0x480(%rbp)
   1429e:	48 8d 85 b5 da ff ff 	lea    -0x254b(%rbp),%rax
   142a5:	48 89 85 88 fb ff ff 	mov    %rax,-0x478(%rbp)
   142ac:	48 8d 85 b6 da ff ff 	lea    -0x254a(%rbp),%rax
   142b3:	48 89 85 90 fb ff ff 	mov    %rax,-0x470(%rbp)
   142ba:	48 8d 85 b4 da ff ff 	lea    -0x254c(%rbp),%rax
   142c1:	48 89 85 98 fb ff ff 	mov    %rax,-0x468(%rbp)
   142c8:	48 8d 85 b6 da ff ff 	lea    -0x254a(%rbp),%rax
   142cf:	48 89 85 a0 fb ff ff 	mov    %rax,-0x460(%rbp)
   142d6:	48 8d 85 b4 da ff ff 	lea    -0x254c(%rbp),%rax
   142dd:	48 89 85 a8 fb ff ff 	mov    %rax,-0x458(%rbp)
   142e4:	48 8d 85 b6 da ff ff 	lea    -0x254a(%rbp),%rax
   142eb:	48 89 85 b0 fb ff ff 	mov    %rax,-0x450(%rbp)
   142f2:	48 8d 85 b5 da ff ff 	lea    -0x254b(%rbp),%rax
   142f9:	48 89 85 b8 fb ff ff 	mov    %rax,-0x448(%rbp)
   14300:	48 8d 85 b4 da ff ff 	lea    -0x254c(%rbp),%rax
   14307:	48 89 85 c0 fb ff ff 	mov    %rax,-0x440(%rbp)
   1430e:	48 8d 85 b4 da ff ff 	lea    -0x254c(%rbp),%rax
   14315:	48 89 85 c8 fb ff ff 	mov    %rax,-0x438(%rbp)
   1431c:	48 8d 85 b6 da ff ff 	lea    -0x254a(%rbp),%rax
   14323:	48 89 85 d0 fb ff ff 	mov    %rax,-0x430(%rbp)
   1432a:	48 8d 85 b4 da ff ff 	lea    -0x254c(%rbp),%rax
   14331:	48 89 85 d8 fb ff ff 	mov    %rax,-0x428(%rbp)
   14338:	48 8d 85 b4 da ff ff 	lea    -0x254c(%rbp),%rax
   1433f:	48 89 85 e0 fb ff ff 	mov    %rax,-0x420(%rbp)
   14346:	48 8d 85 b5 da ff ff 	lea    -0x254b(%rbp),%rax
   1434d:	48 89 85 e8 fb ff ff 	mov    %rax,-0x418(%rbp)
   14354:	48 8d 85 b6 da ff ff 	lea    -0x254a(%rbp),%rax
   1435b:	48 89 85 f0 fb ff ff 	mov    %rax,-0x410(%rbp)
   14362:	48 8d 85 b4 da ff ff 	lea    -0x254c(%rbp),%rax
   14369:	48 89 85 f8 fb ff ff 	mov    %rax,-0x408(%rbp)
   14370:	48 8d 85 b6 da ff ff 	lea    -0x254a(%rbp),%rax
   14377:	48 89 85 00 fc ff ff 	mov    %rax,-0x400(%rbp)
   1437e:	48 8d 85 b4 da ff ff 	lea    -0x254c(%rbp),%rax
   14385:	48 89 85 08 fc ff ff 	mov    %rax,-0x3f8(%rbp)
   1438c:	48 8d 85 b6 da ff ff 	lea    -0x254a(%rbp),%rax
   14393:	48 89 85 10 fc ff ff 	mov    %rax,-0x3f0(%rbp)
   1439a:	48 8d 85 b5 da ff ff 	lea    -0x254b(%rbp),%rax
   143a1:	48 89 85 18 fc ff ff 	mov    %rax,-0x3e8(%rbp)
   143a8:	48 8d 85 b4 da ff ff 	lea    -0x254c(%rbp),%rax
   143af:	48 89 85 20 fc ff ff 	mov    %rax,-0x3e0(%rbp)
   143b6:	48 8d 85 b4 da ff ff 	lea    -0x254c(%rbp),%rax
   143bd:	48 89 85 28 fc ff ff 	mov    %rax,-0x3d8(%rbp)
   143c4:	48 8d 85 b6 da ff ff 	lea    -0x254a(%rbp),%rax
   143cb:	48 89 85 30 fc ff ff 	mov    %rax,-0x3d0(%rbp)
   143d2:	48 8d 85 b4 da ff ff 	lea    -0x254c(%rbp),%rax
   143d9:	48 89 85 38 fc ff ff 	mov    %rax,-0x3c8(%rbp)
   143e0:	48 8d 85 b4 da ff ff 	lea    -0x254c(%rbp),%rax
   143e7:	48 89 85 40 fc ff ff 	mov    %rax,-0x3c0(%rbp)
   143ee:	48 8d 85 b5 da ff ff 	lea    -0x254b(%rbp),%rax
   143f5:	48 89 85 48 fc ff ff 	mov    %rax,-0x3b8(%rbp)
   143fc:	48 8d 85 b6 da ff ff 	lea    -0x254a(%rbp),%rax
   14403:	48 89 85 50 fc ff ff 	mov    %rax,-0x3b0(%rbp)
   1440a:	48 8d 85 b4 da ff ff 	lea    -0x254c(%rbp),%rax
   14411:	48 89 85 58 fc ff ff 	mov    %rax,-0x3a8(%rbp)
   14418:	48 8d 85 b6 da ff ff 	lea    -0x254a(%rbp),%rax
   1441f:	48 89 85 60 fc ff ff 	mov    %rax,-0x3a0(%rbp)
   14426:	48 8d 85 b4 da ff ff 	lea    -0x254c(%rbp),%rax
   1442d:	48 89 85 68 fc ff ff 	mov    %rax,-0x398(%rbp)
   14434:	48 8d 85 b6 da ff ff 	lea    -0x254a(%rbp),%rax
   1443b:	48 89 85 70 fc ff ff 	mov    %rax,-0x390(%rbp)
   14442:	48 8d 85 b5 da ff ff 	lea    -0x254b(%rbp),%rax
   14449:	48 89 85 78 fc ff ff 	mov    %rax,-0x388(%rbp)
   14450:	48 8d 85 b4 da ff ff 	lea    -0x254c(%rbp),%rax
   14457:	48 89 85 80 fc ff ff 	mov    %rax,-0x380(%rbp)
   1445e:	48 8d 85 b4 da ff ff 	lea    -0x254c(%rbp),%rax
   14465:	48 89 85 88 fc ff ff 	mov    %rax,-0x378(%rbp)
   1446c:	48 8d 85 b6 da ff ff 	lea    -0x254a(%rbp),%rax
   14473:	48 89 85 90 fc ff ff 	mov    %rax,-0x370(%rbp)
   1447a:	48 8d 85 b4 da ff ff 	lea    -0x254c(%rbp),%rax
   14481:	48 89 85 98 fc ff ff 	mov    %rax,-0x368(%rbp)
   14488:	48 8d 85 b4 da ff ff 	lea    -0x254c(%rbp),%rax
   1448f:	48 89 85 a0 fc ff ff 	mov    %rax,-0x360(%rbp)
   14496:	48 8d 85 b5 da ff ff 	lea    -0x254b(%rbp),%rax
   1449d:	48 89 85 a8 fc ff ff 	mov    %rax,-0x358(%rbp)
   144a4:	48 8d 85 b6 da ff ff 	lea    -0x254a(%rbp),%rax
   144ab:	48 89 85 b0 fc ff ff 	mov    %rax,-0x350(%rbp)
   144b2:	48 8d 85 b4 da ff ff 	lea    -0x254c(%rbp),%rax
   144b9:	48 89 85 b8 fc ff ff 	mov    %rax,-0x348(%rbp)
   144c0:	48 8d 85 b6 da ff ff 	lea    -0x254a(%rbp),%rax
   144c7:	48 89 85 c0 fc ff ff 	mov    %rax,-0x340(%rbp)
   144ce:	48 8d 85 b4 da ff ff 	lea    -0x254c(%rbp),%rax
   144d5:	48 89 85 c8 fc ff ff 	mov    %rax,-0x338(%rbp)
   144dc:	48 8d 85 b6 da ff ff 	lea    -0x254a(%rbp),%rax
   144e3:	48 89 85 d0 fc ff ff 	mov    %rax,-0x330(%rbp)
   144ea:	48 8d 85 b5 da ff ff 	lea    -0x254b(%rbp),%rax
   144f1:	48 89 85 d8 fc ff ff 	mov    %rax,-0x328(%rbp)
   144f8:	48 8d 85 b4 da ff ff 	lea    -0x254c(%rbp),%rax
   144ff:	48 89 85 e0 fc ff ff 	mov    %rax,-0x320(%rbp)
   14506:	48 8d 85 b4 da ff ff 	lea    -0x254c(%rbp),%rax
   1450d:	48 89 85 e8 fc ff ff 	mov    %rax,-0x318(%rbp)
   14514:	48 8d 85 b6 da ff ff 	lea    -0x254a(%rbp),%rax
   1451b:	48 89 85 f0 fc ff ff 	mov    %rax,-0x310(%rbp)
   14522:	48 8d 85 b4 da ff ff 	lea    -0x254c(%rbp),%rax
   14529:	48 89 85 f8 fc ff ff 	mov    %rax,-0x308(%rbp)
   14530:	48 8d 85 b4 da ff ff 	lea    -0x254c(%rbp),%rax
   14537:	48 89 85 00 fd ff ff 	mov    %rax,-0x300(%rbp)
   1453e:	48 8d 85 b5 da ff ff 	lea    -0x254b(%rbp),%rax
   14545:	48 89 85 08 fd ff ff 	mov    %rax,-0x2f8(%rbp)
   1454c:	48 8d 85 b6 da ff ff 	lea    -0x254a(%rbp),%rax
   14553:	48 89 85 10 fd ff ff 	mov    %rax,-0x2f0(%rbp)
   1455a:	48 8d 85 b4 da ff ff 	lea    -0x254c(%rbp),%rax
   14561:	48 89 85 18 fd ff ff 	mov    %rax,-0x2e8(%rbp)
   14568:	48 8d 85 b6 da ff ff 	lea    -0x254a(%rbp),%rax
   1456f:	48 89 85 20 fd ff ff 	mov    %rax,-0x2e0(%rbp)
   14576:	48 8d 85 b4 da ff ff 	lea    -0x254c(%rbp),%rax
   1457d:	48 89 85 28 fd ff ff 	mov    %rax,-0x2d8(%rbp)
   14584:	48 8d 85 b6 da ff ff 	lea    -0x254a(%rbp),%rax
   1458b:	48 89 85 30 fd ff ff 	mov    %rax,-0x2d0(%rbp)
   14592:	48 8d 85 b5 da ff ff 	lea    -0x254b(%rbp),%rax
   14599:	48 89 85 38 fd ff ff 	mov    %rax,-0x2c8(%rbp)
   145a0:	48 8d 85 b4 da ff ff 	lea    -0x254c(%rbp),%rax
   145a7:	48 89 85 40 fd ff ff 	mov    %rax,-0x2c0(%rbp)
   145ae:	48 8d 85 b4 da ff ff 	lea    -0x254c(%rbp),%rax
   145b5:	48 89 85 48 fd ff ff 	mov    %rax,-0x2b8(%rbp)
   145bc:	48 8d 85 b6 da ff ff 	lea    -0x254a(%rbp),%rax
   145c3:	48 89 85 50 fd ff ff 	mov    %rax,-0x2b0(%rbp)
   145ca:	48 8d 85 b4 da ff ff 	lea    -0x254c(%rbp),%rax
   145d1:	48 89 85 58 fd ff ff 	mov    %rax,-0x2a8(%rbp)
   145d8:	48 8d 85 b4 da ff ff 	lea    -0x254c(%rbp),%rax
   145df:	48 89 85 60 fd ff ff 	mov    %rax,-0x2a0(%rbp)
   145e6:	48 8d 85 b5 da ff ff 	lea    -0x254b(%rbp),%rax
   145ed:	48 89 85 68 fd ff ff 	mov    %rax,-0x298(%rbp)
   145f4:	48 8d 85 b6 da ff ff 	lea    -0x254a(%rbp),%rax
   145fb:	48 89 85 70 fd ff ff 	mov    %rax,-0x290(%rbp)
   14602:	48 8d 85 b4 da ff ff 	lea    -0x254c(%rbp),%rax
   14609:	48 89 85 78 fd ff ff 	mov    %rax,-0x288(%rbp)
   14610:	48 8d 85 b6 da ff ff 	lea    -0x254a(%rbp),%rax
   14617:	48 89 85 80 fd ff ff 	mov    %rax,-0x280(%rbp)
   1461e:	48 8d 85 b4 da ff ff 	lea    -0x254c(%rbp),%rax
   14625:	48 89 85 88 fd ff ff 	mov    %rax,-0x278(%rbp)
   1462c:	48 8d 85 b6 da ff ff 	lea    -0x254a(%rbp),%rax
   14633:	48 89 85 90 fd ff ff 	mov    %rax,-0x270(%rbp)
   1463a:	48 8d 85 b5 da ff ff 	lea    -0x254b(%rbp),%rax
   14641:	48 89 85 98 fd ff ff 	mov    %rax,-0x268(%rbp)
   14648:	48 8d 85 b4 da ff ff 	lea    -0x254c(%rbp),%rax
   1464f:	48 89 85 a0 fd ff ff 	mov    %rax,-0x260(%rbp)
   14656:	48 8d 85 b4 da ff ff 	lea    -0x254c(%rbp),%rax
   1465d:	48 89 85 a8 fd ff ff 	mov    %rax,-0x258(%rbp)
   14664:	48 8d 85 b6 da ff ff 	lea    -0x254a(%rbp),%rax
   1466b:	48 89 85 b0 fd ff ff 	mov    %rax,-0x250(%rbp)
   14672:	48 8d 85 b4 da ff ff 	lea    -0x254c(%rbp),%rax
   14679:	48 89 85 b8 fd ff ff 	mov    %rax,-0x248(%rbp)
   14680:	48 8d 85 b4 da ff ff 	lea    -0x254c(%rbp),%rax
   14687:	48 89 85 c0 fd ff ff 	mov    %rax,-0x240(%rbp)
   1468e:	48 8d 85 b5 da ff ff 	lea    -0x254b(%rbp),%rax
   14695:	48 89 85 c8 fd ff ff 	mov    %rax,-0x238(%rbp)
   1469c:	48 8d 85 b6 da ff ff 	lea    -0x254a(%rbp),%rax
   146a3:	48 89 85 d0 fd ff ff 	mov    %rax,-0x230(%rbp)
   146aa:	48 8d 85 b4 da ff ff 	lea    -0x254c(%rbp),%rax
   146b1:	48 89 85 d8 fd ff ff 	mov    %rax,-0x228(%rbp)
   146b8:	48 8d 85 b6 da ff ff 	lea    -0x254a(%rbp),%rax
   146bf:	48 89 85 e0 fd ff ff 	mov    %rax,-0x220(%rbp)
   146c6:	48 8d 85 b4 da ff ff 	lea    -0x254c(%rbp),%rax
   146cd:	48 89 85 e8 fd ff ff 	mov    %rax,-0x218(%rbp)
   146d4:	48 8d 85 b6 da ff ff 	lea    -0x254a(%rbp),%rax
   146db:	48 89 85 f0 fd ff ff 	mov    %rax,-0x210(%rbp)
   146e2:	48 8d 85 b5 da ff ff 	lea    -0x254b(%rbp),%rax
   146e9:	48 89 85 f8 fd ff ff 	mov    %rax,-0x208(%rbp)
   146f0:	48 8d 85 b4 da ff ff 	lea    -0x254c(%rbp),%rax
   146f7:	48 89 85 00 fe ff ff 	mov    %rax,-0x200(%rbp)
   146fe:	48 8d 85 b4 da ff ff 	lea    -0x254c(%rbp),%rax
   14705:	48 89 85 08 fe ff ff 	mov    %rax,-0x1f8(%rbp)
   1470c:	48 8d 85 b6 da ff ff 	lea    -0x254a(%rbp),%rax
   14713:	48 89 85 10 fe ff ff 	mov    %rax,-0x1f0(%rbp)
   1471a:	48 8d 85 b4 da ff ff 	lea    -0x254c(%rbp),%rax
   14721:	48 89 85 18 fe ff ff 	mov    %rax,-0x1e8(%rbp)
   14728:	48 8d 85 b4 da ff ff 	lea    -0x254c(%rbp),%rax
   1472f:	48 89 85 20 fe ff ff 	mov    %rax,-0x1e0(%rbp)
   14736:	48 8d 85 b5 da ff ff 	lea    -0x254b(%rbp),%rax
   1473d:	48 89 85 28 fe ff ff 	mov    %rax,-0x1d8(%rbp)
   14744:	48 8d 85 b6 da ff ff 	lea    -0x254a(%rbp),%rax
   1474b:	48 89 85 30 fe ff ff 	mov    %rax,-0x1d0(%rbp)
   14752:	48 8d 85 b4 da ff ff 	lea    -0x254c(%rbp),%rax
   14759:	48 89 85 38 fe ff ff 	mov    %rax,-0x1c8(%rbp)
   14760:	48 8d 85 b6 da ff ff 	lea    -0x254a(%rbp),%rax
   14767:	48 89 85 40 fe ff ff 	mov    %rax,-0x1c0(%rbp)
   1476e:	48 8d 85 b4 da ff ff 	lea    -0x254c(%rbp),%rax
   14775:	48 89 85 48 fe ff ff 	mov    %rax,-0x1b8(%rbp)
   1477c:	48 8d 85 b6 da ff ff 	lea    -0x254a(%rbp),%rax
   14783:	48 89 85 50 fe ff ff 	mov    %rax,-0x1b0(%rbp)
   1478a:	48 8d 85 b5 da ff ff 	lea    -0x254b(%rbp),%rax
   14791:	48 89 85 58 fe ff ff 	mov    %rax,-0x1a8(%rbp)
   14798:	48 8d 85 b4 da ff ff 	lea    -0x254c(%rbp),%rax
   1479f:	48 89 85 60 fe ff ff 	mov    %rax,-0x1a0(%rbp)
   147a6:	48 8d 85 b4 da ff ff 	lea    -0x254c(%rbp),%rax
   147ad:	48 89 85 68 fe ff ff 	mov    %rax,-0x198(%rbp)
   147b4:	48 8d 85 b6 da ff ff 	lea    -0x254a(%rbp),%rax
   147bb:	48 89 85 70 fe ff ff 	mov    %rax,-0x190(%rbp)
   147c2:	48 8d 85 b4 da ff ff 	lea    -0x254c(%rbp),%rax
   147c9:	48 89 85 78 fe ff ff 	mov    %rax,-0x188(%rbp)
   147d0:	48 8d 85 b4 da ff ff 	lea    -0x254c(%rbp),%rax
   147d7:	48 89 85 80 fe ff ff 	mov    %rax,-0x180(%rbp)
   147de:	48 8d 85 b5 da ff ff 	lea    -0x254b(%rbp),%rax
   147e5:	48 89 85 88 fe ff ff 	mov    %rax,-0x178(%rbp)
   147ec:	48 8d 85 b6 da ff ff 	lea    -0x254a(%rbp),%rax
   147f3:	48 89 85 90 fe ff ff 	mov    %rax,-0x170(%rbp)
   147fa:	48 8d 85 b4 da ff ff 	lea    -0x254c(%rbp),%rax
   14801:	48 89 85 98 fe ff ff 	mov    %rax,-0x168(%rbp)
   14808:	48 8d 85 b6 da ff ff 	lea    -0x254a(%rbp),%rax
   1480f:	48 89 85 a0 fe ff ff 	mov    %rax,-0x160(%rbp)
   14816:	48 8d 85 b4 da ff ff 	lea    -0x254c(%rbp),%rax
   1481d:	48 89 85 a8 fe ff ff 	mov    %rax,-0x158(%rbp)
   14824:	48 8d 85 b6 da ff ff 	lea    -0x254a(%rbp),%rax
   1482b:	48 89 85 b0 fe ff ff 	mov    %rax,-0x150(%rbp)
   14832:	48 8d 85 b5 da ff ff 	lea    -0x254b(%rbp),%rax
   14839:	48 89 85 b8 fe ff ff 	mov    %rax,-0x148(%rbp)
   14840:	48 8d 85 b4 da ff ff 	lea    -0x254c(%rbp),%rax
   14847:	48 89 85 c0 fe ff ff 	mov    %rax,-0x140(%rbp)
   1484e:	48 8d 85 b4 da ff ff 	lea    -0x254c(%rbp),%rax
   14855:	48 89 85 c8 fe ff ff 	mov    %rax,-0x138(%rbp)
   1485c:	48 8d 85 b6 da ff ff 	lea    -0x254a(%rbp),%rax
   14863:	48 89 85 d0 fe ff ff 	mov    %rax,-0x130(%rbp)
   1486a:	48 8d 85 b4 da ff ff 	lea    -0x254c(%rbp),%rax
   14871:	48 89 85 d8 fe ff ff 	mov    %rax,-0x128(%rbp)
   14878:	48 8d 85 b4 da ff ff 	lea    -0x254c(%rbp),%rax
   1487f:	48 89 85 e0 fe ff ff 	mov    %rax,-0x120(%rbp)
   14886:	48 8d 85 b5 da ff ff 	lea    -0x254b(%rbp),%rax
   1488d:	48 89 85 e8 fe ff ff 	mov    %rax,-0x118(%rbp)
   14894:	48 8d 85 b6 da ff ff 	lea    -0x254a(%rbp),%rax
   1489b:	48 89 85 f0 fe ff ff 	mov    %rax,-0x110(%rbp)
   148a2:	48 8d 85 b4 da ff ff 	lea    -0x254c(%rbp),%rax
   148a9:	48 89 85 f8 fe ff ff 	mov    %rax,-0x108(%rbp)
   148b0:	48 8d 85 b6 da ff ff 	lea    -0x254a(%rbp),%rax
   148b7:	48 89 85 00 ff ff ff 	mov    %rax,-0x100(%rbp)
   148be:	48 8d 85 b4 da ff ff 	lea    -0x254c(%rbp),%rax
   148c5:	48 89 85 08 ff ff ff 	mov    %rax,-0xf8(%rbp)
   148cc:	48 8d 85 b6 da ff ff 	lea    -0x254a(%rbp),%rax
   148d3:	48 89 85 10 ff ff ff 	mov    %rax,-0xf0(%rbp)
   148da:	48 8d 85 b5 da ff ff 	lea    -0x254b(%rbp),%rax
   148e1:	48 89 85 18 ff ff ff 	mov    %rax,-0xe8(%rbp)
   148e8:	48 8d 85 b4 da ff ff 	lea    -0x254c(%rbp),%rax
   148ef:	48 89 85 20 ff ff ff 	mov    %rax,-0xe0(%rbp)
   148f6:	48 8d 85 b4 da ff ff 	lea    -0x254c(%rbp),%rax
   148fd:	48 89 85 28 ff ff ff 	mov    %rax,-0xd8(%rbp)
   14904:	48 8d 85 b6 da ff ff 	lea    -0x254a(%rbp),%rax
   1490b:	48 89 85 30 ff ff ff 	mov    %rax,-0xd0(%rbp)
   14912:	48 8d 85 b4 da ff ff 	lea    -0x254c(%rbp),%rax
   14919:	48 89 85 38 ff ff ff 	mov    %rax,-0xc8(%rbp)
   14920:	48 8d 85 b4 da ff ff 	lea    -0x254c(%rbp),%rax
   14927:	48 89 85 40 ff ff ff 	mov    %rax,-0xc0(%rbp)
   1492e:	48 8d 85 b5 da ff ff 	lea    -0x254b(%rbp),%rax
   14935:	48 89 85 48 ff ff ff 	mov    %rax,-0xb8(%rbp)
   1493c:	48 8d 85 b6 da ff ff 	lea    -0x254a(%rbp),%rax
   14943:	48 89 85 50 ff ff ff 	mov    %rax,-0xb0(%rbp)
   1494a:	48 8d 85 b4 da ff ff 	lea    -0x254c(%rbp),%rax
   14951:	48 89 85 58 ff ff ff 	mov    %rax,-0xa8(%rbp)
   14958:	48 8d 85 b6 da ff ff 	lea    -0x254a(%rbp),%rax
   1495f:	48 89 85 60 ff ff ff 	mov    %rax,-0xa0(%rbp)
   14966:	48 8d 85 b4 da ff ff 	lea    -0x254c(%rbp),%rax
   1496d:	48 89 85 68 ff ff ff 	mov    %rax,-0x98(%rbp)
   14974:	48 8d 85 b6 da ff ff 	lea    -0x254a(%rbp),%rax
   1497b:	48 89 85 70 ff ff ff 	mov    %rax,-0x90(%rbp)
   14982:	48 8d 85 b5 da ff ff 	lea    -0x254b(%rbp),%rax
   14989:	48 89 85 78 ff ff ff 	mov    %rax,-0x88(%rbp)
   14990:	48 8d 85 b4 da ff ff 	lea    -0x254c(%rbp),%rax
   14997:	48 89 45 80          	mov    %rax,-0x80(%rbp)
   1499b:	48 8d 85 b4 da ff ff 	lea    -0x254c(%rbp),%rax
   149a2:	48 89 45 88          	mov    %rax,-0x78(%rbp)
   149a6:	48 8d 85 b6 da ff ff 	lea    -0x254a(%rbp),%rax
   149ad:	48 89 45 90          	mov    %rax,-0x70(%rbp)
   149b1:	48 8d 85 b4 da ff ff 	lea    -0x254c(%rbp),%rax
   149b8:	48 89 45 98          	mov    %rax,-0x68(%rbp)
   149bc:	48 8d 85 b4 da ff ff 	lea    -0x254c(%rbp),%rax
   149c3:	48 89 45 a0          	mov    %rax,-0x60(%rbp)
   149c7:	48 8d 85 b5 da ff ff 	lea    -0x254b(%rbp),%rax
   149ce:	48 89 45 a8          	mov    %rax,-0x58(%rbp)
   149d2:	48 8d 85 b6 da ff ff 	lea    -0x254a(%rbp),%rax
   149d9:	48 89 45 b0          	mov    %rax,-0x50(%rbp)
   149dd:	48 8d 85 b4 da ff ff 	lea    -0x254c(%rbp),%rax
   149e4:	48 89 45 b8          	mov    %rax,-0x48(%rbp)
   149e8:	48 8d 85 e0 f7 ff ff 	lea    -0x820(%rbp),%rax
   149ef:	48 05 68 02 00 00    	add    $0x268,%rax
   149f5:	48 89 85 a8 dd ff ff 	mov    %rax,-0x2258(%rbp)
   149fc:	48 8d 05 89 97 00 00 	lea    0x9789(%rip),%rax        # 1e18c <g_231+0x6c>
   14a03:	48 89 85 b0 dd ff ff 	mov    %rax,-0x2250(%rbp)
   14a0a:	48 8d 85 e0 da ff ff 	lea    -0x2520(%rbp),%rax
   14a11:	48 89 85 b8 dd ff ff 	mov    %rax,-0x2248(%rbp)
   14a18:	48 8d 85 60 e4 ff ff 	lea    -0x1ba0(%rbp),%rax
   14a1f:	48 83 c0 04          	add    $0x4,%rax
   14a23:	48 89 85 c0 dd ff ff 	mov    %rax,-0x2240(%rbp)
   14a2a:	48 8d 85 e4 da ff ff 	lea    -0x251c(%rbp),%rax
   14a31:	48 89 85 c8 dd ff ff 	mov    %rax,-0x2238(%rbp)
   14a38:	48 8d 85 e4 da ff ff 	lea    -0x251c(%rbp),%rax
   14a3f:	48 89 85 d0 dd ff ff 	mov    %rax,-0x2230(%rbp)
   14a46:	48 8d 85 b0 de ff ff 	lea    -0x2150(%rbp),%rax
   14a4d:	48 83 c0 10          	add    $0x10,%rax
   14a51:	48 89 85 d8 dd ff ff 	mov    %rax,-0x2228(%rbp)
   14a58:	48 8d 85 c0 da ff ff 	lea    -0x2540(%rbp),%rax
   14a5f:	48 89 85 e0 dd ff ff 	mov    %rax,-0x2220(%rbp)
   14a66:	48 8d 85 90 de ff ff 	lea    -0x2170(%rbp),%rax
   14a6d:	48 83 c0 08          	add    $0x8,%rax
   14a71:	48 89 85 e8 dd ff ff 	mov    %rax,-0x2218(%rbp)
   14a78:	48 8d 85 e0 da ff ff 	lea    -0x2520(%rbp),%rax
   14a7f:	48 89 85 f0 dd ff ff 	mov    %rax,-0x2210(%rbp)
   14a86:	48 8d 85 c8 da ff ff 	lea    -0x2538(%rbp),%rax
   14a8d:	48 89 85 f8 dd ff ff 	mov    %rax,-0x2208(%rbp)
   14a94:	48 8d 85 e0 e0 ff ff 	lea    -0x1f20(%rbp),%rax
   14a9b:	48 05 bc 00 00 00    	add    $0xbc,%rax
   14aa1:	48 89 85 f0 e8 ff ff 	mov    %rax,-0x1710(%rbp)
   14aa8:	48 8d 85 e0 e0 ff ff 	lea    -0x1f20(%rbp),%rax
   14aaf:	48 05 bc 00 00 00    	add    $0xbc,%rax
   14ab5:	48 89 85 f8 e8 ff ff 	mov    %rax,-0x1708(%rbp)
   14abc:	48 8d 85 e0 e0 ff ff 	lea    -0x1f20(%rbp),%rax
   14ac3:	48 05 bc 00 00 00    	add    $0xbc,%rax
   14ac9:	48 89 85 00 e9 ff ff 	mov    %rax,-0x1700(%rbp)
   14ad0:	48 8d 85 e0 e0 ff ff 	lea    -0x1f20(%rbp),%rax
   14ad7:	48 05 bc 00 00 00    	add    $0xbc,%rax
   14add:	48 89 85 08 e9 ff ff 	mov    %rax,-0x16f8(%rbp)
   14ae4:	48 8d 85 e0 e0 ff ff 	lea    -0x1f20(%rbp),%rax
   14aeb:	48 05 bc 00 00 00    	add    $0xbc,%rax
   14af1:	48 89 85 10 e9 ff ff 	mov    %rax,-0x16f0(%rbp)
   14af8:	48 8d 85 e0 e0 ff ff 	lea    -0x1f20(%rbp),%rax
   14aff:	48 05 bc 00 00 00    	add    $0xbc,%rax
   14b05:	48 89 85 18 e9 ff ff 	mov    %rax,-0x16e8(%rbp)
   14b0c:	c6 85 bc da ff ff 82 	movb   $0x82,-0x2544(%rbp)
   14b13:	c7 85 68 e4 ff ff 4e 	movl   $0xdb4e,-0x1b98(%rbp)
   14b1a:	db 00 00 
   14b1d:	48 8b 05 74 cc 00 00 	mov    0xcc74(%rip),%rax        # 21798 <g_43>
   14b24:	48 8b 00             	mov    (%rax),%rax
   14b27:	8b 00                	mov    (%rax),%eax
   14b29:	89 85 e4 da ff ff    	mov    %eax,-0x251c(%rbp)
   14b2f:	8b 85 d0 ec ff ff    	mov    -0x1330(%rbp),%eax
   14b35:	85 c0                	test   %eax,%eax
   14b37:	75 1b                	jne    14b54 <func_60+0x5032>
   14b39:	0f b6 85 bc da ff ff 	movzbl -0x2544(%rbp),%eax
   14b40:	83 e8 01             	sub    $0x1,%eax
   14b43:	88 85 bc da ff ff    	mov    %al,-0x2544(%rbp)
   14b49:	8b 85 68 e4 ff ff    	mov    -0x1b98(%rbp),%eax
   14b4f:	e9 34 17 00 00       	jmpq   16288 <func_60+0x6766>
   14b54:	90                   	nop
   14b55:	c7 85 08 db ff ff f2 	movl   $0xfffffff2,-0x24f8(%rbp)
   14b5c:	ff ff ff 
   14b5f:	83 bd 08 db ff ff 0a 	cmpl   $0xa,-0x24f8(%rbp)
   14b66:	77 0b                	ja     14b73 <func_60+0x5051>
   14b68:	8b 85 68 e4 ff ff    	mov    -0x1b98(%rbp),%eax
   14b6e:	e9 15 17 00 00       	jmpq   16288 <func_60+0x6766>
   14b73:	66 c7 05 3f ac 00 00 	movw   $0x0,0xac3f(%rip)        # 1f7bb <g_442+0xb>
   14b7a:	00 00 
   14b7c:	e9 c4 00 00 00       	jmpq   14c45 <func_60+0x5123>
   14b81:	c7 85 d4 da ff ff 02 	movl   $0x2,-0x252c(%rbp)
   14b88:	00 00 00 
   14b8b:	e9 81 00 00 00       	jmpq   14c11 <func_60+0x50ef>
   14b90:	66 c7 85 e0 f7 ff ff 	movw   $0x1,-0x820(%rbp)
   14b97:	01 00 
   14b99:	66 c7 85 e2 f7 ff ff 	movw   $0x7,-0x81e(%rbp)
   14ba0:	07 00 
   14ba2:	66 c7 85 e4 f7 ff ff 	movw   $0x1,-0x81c(%rbp)
   14ba9:	01 00 
   14bab:	66 c7 85 e6 f7 ff ff 	movw   $0x7,-0x81a(%rbp)
   14bb2:	07 00 
   14bb4:	66 c7 85 e8 f7 ff ff 	movw   $0x1,-0x818(%rbp)
   14bbb:	01 00 
   14bbd:	66 c7 85 ea f7 ff ff 	movw   $0x7,-0x816(%rbp)
   14bc4:	07 00 
   14bc6:	66 c7 85 ec f7 ff ff 	movw   $0x1,-0x814(%rbp)
   14bcd:	01 00 
   14bcf:	66 c7 85 ee f7 ff ff 	movw   $0x7,-0x812(%rbp)
   14bd6:	07 00 
   14bd8:	66 c7 85 f0 f7 ff ff 	movw   $0x1,-0x810(%rbp)
   14bdf:	01 00 
   14be1:	8b 85 c8 da ff ff    	mov    -0x2538(%rbp),%eax
   14be7:	66 89 85 e6 f7 ff ff 	mov    %ax,-0x81a(%rbp)
   14bee:	48 8b 15 a3 cb 00 00 	mov    0xcba3(%rip),%rdx        # 21798 <g_43>
   14bf5:	48 8b 05 9c cb 00 00 	mov    0xcb9c(%rip),%rax        # 21798 <g_43>
   14bfc:	48 8b 12             	mov    (%rdx),%rdx
   14bff:	48 89 10             	mov    %rdx,(%rax)
   14c02:	8b 85 d4 da ff ff    	mov    -0x252c(%rbp),%eax
   14c08:	83 e8 01             	sub    $0x1,%eax
   14c0b:	89 85 d4 da ff ff    	mov    %eax,-0x252c(%rbp)
   14c11:	8b 85 d4 da ff ff    	mov    -0x252c(%rbp),%eax
   14c17:	85 c0                	test   %eax,%eax
   14c19:	0f 89 71 ff ff ff    	jns    14b90 <func_60+0x506e>
   14c1f:	48 8b 85 e0 db ff ff 	mov    -0x2420(%rbp),%rax
   14c26:	8b 10                	mov    (%rax),%edx
   14c28:	48 8b 85 e0 db ff ff 	mov    -0x2420(%rbp),%rax
   14c2f:	83 ca 01             	or     $0x1,%edx
   14c32:	89 10                	mov    %edx,(%rax)
   14c34:	0f b7 05 80 ab 00 00 	movzwl 0xab80(%rip),%eax        # 1f7bb <g_442+0xb>
   14c3b:	83 c0 01             	add    $0x1,%eax
   14c3e:	66 89 05 76 ab 00 00 	mov    %ax,0xab76(%rip)        # 1f7bb <g_442+0xb>
   14c45:	0f b7 05 6f ab 00 00 	movzwl 0xab6f(%rip),%eax        # 1f7bb <g_442+0xb>
   14c4c:	66 83 f8 02          	cmp    $0x2,%ax
   14c50:	0f 86 2b ff ff ff    	jbe    14b81 <func_60+0x505f>
   14c56:	8b 85 ac da ff ff    	mov    -0x2554(%rbp),%eax
   14c5c:	89 c3                	mov    %eax,%ebx
   14c5e:	48 8b 85 a8 db ff ff 	mov    -0x2458(%rbp),%rax
   14c65:	0f b7 d0             	movzwl %ax,%edx
   14c68:	48 8b 85 d8 db ff ff 	mov    -0x2428(%rbp),%rax
   14c6f:	89 c1                	mov    %eax,%ecx
   14c71:	8b 85 c0 da ff ff    	mov    -0x2540(%rbp),%eax
   14c77:	21 c8                	and    %ecx,%eax
   14c79:	89 85 c0 da ff ff    	mov    %eax,-0x2540(%rbp)
   14c7f:	8b 85 c0 da ff ff    	mov    -0x2540(%rbp),%eax
   14c85:	0f b7 c0             	movzwl %ax,%eax
   14c88:	89 d6                	mov    %edx,%esi
   14c8a:	89 c7                	mov    %eax,%edi
   14c8c:	e8 6e 40 ff ff       	callq  8cff <safe_add_func_uint16_t_u_u>
   14c91:	0f b7 c0             	movzwl %ax,%eax
   14c94:	89 de                	mov    %ebx,%esi
   14c96:	89 c7                	mov    %eax,%edi
   14c98:	e8 69 41 ff ff       	callq  8e06 <safe_lshift_func_uint16_t_u_u>
   14c9d:	66 85 c0             	test   %ax,%ax
   14ca0:	0f 84 d7 11 00 00    	je     15e7d <func_60+0x635b>
   14ca6:	48 8d 85 d0 da ff ff 	lea    -0x2530(%rbp),%rax
   14cad:	48 89 85 00 de ff ff 	mov    %rax,-0x2200(%rbp)
   14cb4:	c7 85 f8 db ff ff 5b 	movl   $0x527f755b,-0x2408(%rbp)
   14cbb:	75 7f 52 
   14cbe:	48 8d 05 24 a9 00 00 	lea    0xa924(%rip),%rax        # 1f5e9 <g_437+0x9>
   14cc5:	48 89 85 10 ec ff ff 	mov    %rax,-0x13f0(%rbp)
   14ccc:	48 8d 05 96 95 00 00 	lea    0x9596(%rip),%rax        # 1e269 <g_430+0x9>
   14cd3:	48 89 85 18 ec ff ff 	mov    %rax,-0x13e8(%rbp)
   14cda:	48 8d 05 08 a9 00 00 	lea    0xa908(%rip),%rax        # 1f5e9 <g_437+0x9>
   14ce1:	48 89 85 20 ec ff ff 	mov    %rax,-0x13e0(%rbp)
   14ce8:	48 8d 05 fa a8 00 00 	lea    0xa8fa(%rip),%rax        # 1f5e9 <g_437+0x9>
   14cef:	48 89 85 28 ec ff ff 	mov    %rax,-0x13d8(%rbp)
   14cf6:	48 8d 05 6c 95 00 00 	lea    0x956c(%rip),%rax        # 1e269 <g_430+0x9>
   14cfd:	48 89 85 30 ec ff ff 	mov    %rax,-0x13d0(%rbp)
   14d04:	48 8d 05 de a8 00 00 	lea    0xa8de(%rip),%rax        # 1f5e9 <g_437+0x9>
   14d0b:	48 89 85 38 ec ff ff 	mov    %rax,-0x13c8(%rbp)
   14d12:	48 8d 05 d0 a8 00 00 	lea    0xa8d0(%rip),%rax        # 1f5e9 <g_437+0x9>
   14d19:	48 89 85 40 ec ff ff 	mov    %rax,-0x13c0(%rbp)
   14d20:	48 8d 05 42 95 00 00 	lea    0x9542(%rip),%rax        # 1e269 <g_430+0x9>
   14d27:	48 89 85 48 ec ff ff 	mov    %rax,-0x13b8(%rbp)
   14d2e:	48 8d 05 b4 a8 00 00 	lea    0xa8b4(%rip),%rax        # 1f5e9 <g_437+0x9>
   14d35:	48 89 85 50 ec ff ff 	mov    %rax,-0x13b0(%rbp)
   14d3c:	48 8d 05 a6 a8 00 00 	lea    0xa8a6(%rip),%rax        # 1f5e9 <g_437+0x9>
   14d43:	48 89 85 58 ec ff ff 	mov    %rax,-0x13a8(%rbp)
   14d4a:	48 8d 05 18 95 00 00 	lea    0x9518(%rip),%rax        # 1e269 <g_430+0x9>
   14d51:	48 89 85 60 ec ff ff 	mov    %rax,-0x13a0(%rbp)
   14d58:	48 8d 05 8a a8 00 00 	lea    0xa88a(%rip),%rax        # 1f5e9 <g_437+0x9>
   14d5f:	48 89 85 68 ec ff ff 	mov    %rax,-0x1398(%rbp)
   14d66:	48 8d 05 7c a8 00 00 	lea    0xa87c(%rip),%rax        # 1f5e9 <g_437+0x9>
   14d6d:	48 89 85 70 ec ff ff 	mov    %rax,-0x1390(%rbp)
   14d74:	48 8d 05 ee 94 00 00 	lea    0x94ee(%rip),%rax        # 1e269 <g_430+0x9>
   14d7b:	48 89 85 78 ec ff ff 	mov    %rax,-0x1388(%rbp)
   14d82:	48 8d 05 60 a8 00 00 	lea    0xa860(%rip),%rax        # 1f5e9 <g_437+0x9>
   14d89:	48 89 85 80 ec ff ff 	mov    %rax,-0x1380(%rbp)
   14d90:	48 8d 05 52 a8 00 00 	lea    0xa852(%rip),%rax        # 1f5e9 <g_437+0x9>
   14d97:	48 89 85 88 ec ff ff 	mov    %rax,-0x1378(%rbp)
   14d9e:	48 8d 05 c4 94 00 00 	lea    0x94c4(%rip),%rax        # 1e269 <g_430+0x9>
   14da5:	48 89 85 90 ec ff ff 	mov    %rax,-0x1370(%rbp)
   14dac:	48 8d 05 36 a8 00 00 	lea    0xa836(%rip),%rax        # 1f5e9 <g_437+0x9>
   14db3:	48 89 85 98 ec ff ff 	mov    %rax,-0x1368(%rbp)
   14dba:	48 c7 85 00 dc ff ff 	movq   $0x0,-0x2400(%rbp)
   14dc1:	00 00 00 00 
   14dc5:	48 8d 85 00 dc ff ff 	lea    -0x2400(%rbp),%rax
   14dcc:	48 89 85 08 de ff ff 	mov    %rax,-0x21f8(%rbp)
   14dd3:	48 8d 05 34 93 00 00 	lea    0x9334(%rip),%rax        # 1e10e <g_224>
   14dda:	48 89 85 08 dc ff ff 	mov    %rax,-0x23f8(%rbp)
   14de1:	48 8d 85 08 dc ff ff 	lea    -0x23f8(%rbp),%rax
   14de8:	48 89 85 10 de ff ff 	mov    %rax,-0x21f0(%rbp)
   14def:	48 8d 85 e0 e0 ff ff 	lea    -0x1f20(%rbp),%rax
   14df6:	48 05 fc 00 00 00    	add    $0xfc,%rax
   14dfc:	48 89 85 18 de ff ff 	mov    %rax,-0x21e8(%rbp)
   14e03:	48 8d 85 10 df ff ff 	lea    -0x20f0(%rbp),%rax
   14e0a:	48 83 c0 14          	add    $0x14,%rax
   14e0e:	48 89 85 e0 f7 ff ff 	mov    %rax,-0x820(%rbp)
   14e15:	48 c7 85 e8 f7 ff ff 	movq   $0x0,-0x818(%rbp)
   14e1c:	00 00 00 00 
   14e20:	48 8d 05 6d 93 00 00 	lea    0x936d(%rip),%rax        # 1e194 <g_231+0x74>
   14e27:	48 89 85 f0 f7 ff ff 	mov    %rax,-0x810(%rbp)
   14e2e:	48 c7 85 f8 f7 ff ff 	movq   $0x0,-0x808(%rbp)
   14e35:	00 00 00 00 
   14e39:	48 8d 85 90 de ff ff 	lea    -0x2170(%rbp),%rax
   14e40:	48 83 c0 0c          	add    $0xc,%rax
   14e44:	48 89 85 00 f8 ff ff 	mov    %rax,-0x800(%rbp)
   14e4b:	48 8d 05 92 92 00 00 	lea    0x9292(%rip),%rax        # 1e0e4 <g_130>
   14e52:	48 89 85 08 f8 ff ff 	mov    %rax,-0x7f8(%rbp)
   14e59:	48 8d 85 c0 da ff ff 	lea    -0x2540(%rbp),%rax
   14e60:	48 89 85 10 f8 ff ff 	mov    %rax,-0x7f0(%rbp)
   14e67:	48 8d 85 90 de ff ff 	lea    -0x2170(%rbp),%rax
   14e6e:	48 83 c0 0c          	add    $0xc,%rax
   14e72:	48 89 85 18 f8 ff ff 	mov    %rax,-0x7e8(%rbp)
   14e79:	48 8d 85 10 df ff ff 	lea    -0x20f0(%rbp),%rax
   14e80:	48 83 c0 14          	add    $0x14,%rax
   14e84:	48 89 85 20 f8 ff ff 	mov    %rax,-0x7e0(%rbp)
   14e8b:	48 8d 85 e0 da ff ff 	lea    -0x2520(%rbp),%rax
   14e92:	48 89 85 28 f8 ff ff 	mov    %rax,-0x7d8(%rbp)
   14e99:	48 8d 85 10 df ff ff 	lea    -0x20f0(%rbp),%rax
   14ea0:	48 83 c0 14          	add    $0x14,%rax
   14ea4:	48 89 85 30 f8 ff ff 	mov    %rax,-0x7d0(%rbp)
   14eab:	48 8d 85 e0 da ff ff 	lea    -0x2520(%rbp),%rax
   14eb2:	48 89 85 38 f8 ff ff 	mov    %rax,-0x7c8(%rbp)
   14eb9:	48 c7 85 40 f8 ff ff 	movq   $0x0,-0x7c0(%rbp)
   14ec0:	00 00 00 00 
   14ec4:	48 8d 05 69 92 00 00 	lea    0x9269(%rip),%rax        # 1e134 <g_231+0x14>
   14ecb:	48 89 85 48 f8 ff ff 	mov    %rax,-0x7b8(%rbp)
   14ed2:	48 8d 85 10 df ff ff 	lea    -0x20f0(%rbp),%rax
   14ed9:	48 83 c0 08          	add    $0x8,%rax
   14edd:	48 89 85 50 f8 ff ff 	mov    %rax,-0x7b0(%rbp)
   14ee4:	48 8d 85 e0 e0 ff ff 	lea    -0x1f20(%rbp),%rax
   14eeb:	48 05 bc 00 00 00    	add    $0xbc,%rax
   14ef1:	48 89 85 58 f8 ff ff 	mov    %rax,-0x7a8(%rbp)
   14ef8:	48 8d 05 41 92 00 00 	lea    0x9241(%rip),%rax        # 1e140 <g_231+0x20>
   14eff:	48 89 85 60 f8 ff ff 	mov    %rax,-0x7a0(%rbp)
   14f06:	48 8d 85 e0 e0 ff ff 	lea    -0x1f20(%rbp),%rax
   14f0d:	48 05 0c 01 00 00    	add    $0x10c,%rax
   14f13:	48 89 85 68 f8 ff ff 	mov    %rax,-0x798(%rbp)
   14f1a:	48 8d 85 10 df ff ff 	lea    -0x20f0(%rbp),%rax
   14f21:	48 83 c0 20          	add    $0x20,%rax
   14f25:	48 89 85 70 f8 ff ff 	mov    %rax,-0x790(%rbp)
   14f2c:	48 8d 85 10 df ff ff 	lea    -0x20f0(%rbp),%rax
   14f33:	48 83 c0 20          	add    $0x20,%rax
   14f37:	48 89 85 78 f8 ff ff 	mov    %rax,-0x788(%rbp)
   14f3e:	48 8d 85 c8 da ff ff 	lea    -0x2538(%rbp),%rax
   14f45:	48 89 85 80 f8 ff ff 	mov    %rax,-0x780(%rbp)
   14f4c:	48 8d 85 c0 da ff ff 	lea    -0x2540(%rbp),%rax
   14f53:	48 89 85 88 f8 ff ff 	mov    %rax,-0x778(%rbp)
   14f5a:	48 8d 05 83 91 00 00 	lea    0x9183(%rip),%rax        # 1e0e4 <g_130>
   14f61:	48 89 85 90 f8 ff ff 	mov    %rax,-0x770(%rbp)
   14f68:	48 8d 85 c0 da ff ff 	lea    -0x2540(%rbp),%rax
   14f6f:	48 89 85 98 f8 ff ff 	mov    %rax,-0x768(%rbp)
   14f76:	48 8d 85 c8 da ff ff 	lea    -0x2538(%rbp),%rax
   14f7d:	48 89 85 a0 f8 ff ff 	mov    %rax,-0x760(%rbp)
   14f84:	48 8d 85 d4 da ff ff 	lea    -0x252c(%rbp),%rax
   14f8b:	48 89 85 a8 f8 ff ff 	mov    %rax,-0x758(%rbp)
   14f92:	48 8d 85 e0 e0 ff ff 	lea    -0x1f20(%rbp),%rax
   14f99:	48 05 fc 00 00 00    	add    $0xfc,%rax
   14f9f:	48 89 85 b0 f8 ff ff 	mov    %rax,-0x750(%rbp)
   14fa6:	48 8d 85 90 de ff ff 	lea    -0x2170(%rbp),%rax
   14fad:	48 83 c0 08          	add    $0x8,%rax
   14fb1:	48 89 85 b8 f8 ff ff 	mov    %rax,-0x748(%rbp)
   14fb8:	48 8d 85 e0 e0 ff ff 	lea    -0x1f20(%rbp),%rax
   14fbf:	48 05 bc 00 00 00    	add    $0xbc,%rax
   14fc5:	48 89 85 c0 f8 ff ff 	mov    %rax,-0x740(%rbp)
   14fcc:	48 8d 05 05 91 00 00 	lea    0x9105(%rip),%rax        # 1e0d8 <g_105>
   14fd3:	48 89 85 c8 f8 ff ff 	mov    %rax,-0x738(%rbp)
   14fda:	48 8d 85 c0 da ff ff 	lea    -0x2540(%rbp),%rax
   14fe1:	48 89 85 d0 f8 ff ff 	mov    %rax,-0x730(%rbp)
   14fe8:	48 8d 85 e0 e0 ff ff 	lea    -0x1f20(%rbp),%rax
   14fef:	48 83 c0 50          	add    $0x50,%rax
   14ff3:	48 89 85 d8 f8 ff ff 	mov    %rax,-0x728(%rbp)
   14ffa:	48 8d 85 f8 db ff ff 	lea    -0x2408(%rbp),%rax
   15001:	48 89 85 e0 f8 ff ff 	mov    %rax,-0x720(%rbp)
   15008:	48 8d 05 b9 90 00 00 	lea    0x90b9(%rip),%rax        # 1e0c8 <g_45>
   1500f:	48 89 85 e8 f8 ff ff 	mov    %rax,-0x718(%rbp)
   15016:	48 c7 85 f0 f8 ff ff 	movq   $0x0,-0x710(%rbp)
   1501d:	00 00 00 00 
   15021:	48 8d 05 6c 91 00 00 	lea    0x916c(%rip),%rax        # 1e194 <g_231+0x74>
   15028:	48 89 85 f8 f8 ff ff 	mov    %rax,-0x708(%rbp)
   1502f:	48 8d 85 f8 db ff ff 	lea    -0x2408(%rbp),%rax
   15036:	48 89 85 00 f9 ff ff 	mov    %rax,-0x700(%rbp)
   1503d:	48 c7 85 08 f9 ff ff 	movq   $0x0,-0x6f8(%rbp)
   15044:	00 00 00 00 
   15048:	48 8d 85 e0 e0 ff ff 	lea    -0x1f20(%rbp),%rax
   1504f:	48 05 fc 00 00 00    	add    $0xfc,%rax
   15055:	48 89 85 10 f9 ff ff 	mov    %rax,-0x6f0(%rbp)
   1505c:	48 8d 05 75 90 00 00 	lea    0x9075(%rip),%rax        # 1e0d8 <g_105>
   15063:	48 89 85 18 f9 ff ff 	mov    %rax,-0x6e8(%rbp)
   1506a:	48 8d 85 b0 de ff ff 	lea    -0x2150(%rbp),%rax
   15071:	48 89 85 20 f9 ff ff 	mov    %rax,-0x6e0(%rbp)
   15078:	48 8d 05 49 90 00 00 	lea    0x9049(%rip),%rax        # 1e0c8 <g_45>
   1507f:	48 89 85 28 f9 ff ff 	mov    %rax,-0x6d8(%rbp)
   15086:	48 8d 85 d4 da ff ff 	lea    -0x252c(%rbp),%rax
   1508d:	48 89 85 30 f9 ff ff 	mov    %rax,-0x6d0(%rbp)
   15094:	48 8d 85 c0 da ff ff 	lea    -0x2540(%rbp),%rax
   1509b:	48 89 85 38 f9 ff ff 	mov    %rax,-0x6c8(%rbp)
   150a2:	48 8d 85 c8 da ff ff 	lea    -0x2538(%rbp),%rax
   150a9:	48 89 85 40 f9 ff ff 	mov    %rax,-0x6c0(%rbp)
   150b0:	48 8d 05 21 90 00 00 	lea    0x9021(%rip),%rax        # 1e0d8 <g_105>
   150b7:	48 89 85 48 f9 ff ff 	mov    %rax,-0x6b8(%rbp)
   150be:	48 8d 85 10 df ff ff 	lea    -0x20f0(%rbp),%rax
   150c5:	48 83 c0 14          	add    $0x14,%rax
   150c9:	48 89 85 50 f9 ff ff 	mov    %rax,-0x6b0(%rbp)
   150d0:	48 8d 85 e0 e0 ff ff 	lea    -0x1f20(%rbp),%rax
   150d7:	48 05 bc 00 00 00    	add    $0xbc,%rax
   150dd:	48 89 85 58 f9 ff ff 	mov    %rax,-0x6a8(%rbp)
   150e4:	48 8d 85 e4 da ff ff 	lea    -0x251c(%rbp),%rax
   150eb:	48 89 85 60 f9 ff ff 	mov    %rax,-0x6a0(%rbp)
   150f2:	48 8d 85 10 df ff ff 	lea    -0x20f0(%rbp),%rax
   150f9:	48 83 c0 20          	add    $0x20,%rax
   150fd:	48 89 85 68 f9 ff ff 	mov    %rax,-0x698(%rbp)
   15104:	48 8d 05 89 90 00 00 	lea    0x9089(%rip),%rax        # 1e194 <g_231+0x74>
   1510b:	48 89 85 70 f9 ff ff 	mov    %rax,-0x690(%rbp)
   15112:	48 8d 85 d8 da ff ff 	lea    -0x2528(%rbp),%rax
   15119:	48 89 85 78 f9 ff ff 	mov    %rax,-0x688(%rbp)
   15120:	48 8d 85 d8 da ff ff 	lea    -0x2528(%rbp),%rax
   15127:	48 89 85 80 f9 ff ff 	mov    %rax,-0x680(%rbp)
   1512e:	48 8d 05 5f 90 00 00 	lea    0x905f(%rip),%rax        # 1e194 <g_231+0x74>
   15135:	48 89 85 88 f9 ff ff 	mov    %rax,-0x678(%rbp)
   1513c:	48 8d 85 10 df ff ff 	lea    -0x20f0(%rbp),%rax
   15143:	48 83 c0 08          	add    $0x8,%rax
   15147:	48 89 85 90 f9 ff ff 	mov    %rax,-0x670(%rbp)
   1514e:	48 8d 85 90 de ff ff 	lea    -0x2170(%rbp),%rax
   15155:	48 83 c0 08          	add    $0x8,%rax
   15159:	48 89 85 98 f9 ff ff 	mov    %rax,-0x668(%rbp)
   15160:	48 c7 85 a0 f9 ff ff 	movq   $0x0,-0x660(%rbp)
   15167:	00 00 00 00 
   1516b:	48 8d 05 be 8f 00 00 	lea    0x8fbe(%rip),%rax        # 1e130 <g_231+0x10>
   15172:	48 89 85 a8 f9 ff ff 	mov    %rax,-0x658(%rbp)
   15179:	48 8d 85 e4 da ff ff 	lea    -0x251c(%rbp),%rax
   15180:	48 89 85 b0 f9 ff ff 	mov    %rax,-0x650(%rbp)
   15187:	48 8d 85 e0 da ff ff 	lea    -0x2520(%rbp),%rax
   1518e:	48 89 85 b8 f9 ff ff 	mov    %rax,-0x648(%rbp)
   15195:	48 c7 85 c0 f9 ff ff 	movq   $0x0,-0x640(%rbp)
   1519c:	00 00 00 00 
   151a0:	48 8d 85 10 df ff ff 	lea    -0x20f0(%rbp),%rax
   151a7:	48 83 c0 14          	add    $0x14,%rax
   151ab:	48 89 85 c8 f9 ff ff 	mov    %rax,-0x638(%rbp)
   151b2:	48 8d 85 c0 da ff ff 	lea    -0x2540(%rbp),%rax
   151b9:	48 89 85 d0 f9 ff ff 	mov    %rax,-0x630(%rbp)
   151c0:	48 8d 05 1d 8f 00 00 	lea    0x8f1d(%rip),%rax        # 1e0e4 <g_130>
   151c7:	48 89 85 d8 f9 ff ff 	mov    %rax,-0x628(%rbp)
   151ce:	48 8d 85 90 de ff ff 	lea    -0x2170(%rbp),%rax
   151d5:	48 83 c0 0c          	add    $0xc,%rax
   151d9:	48 89 85 e0 f9 ff ff 	mov    %rax,-0x620(%rbp)
   151e0:	48 8d 85 c0 da ff ff 	lea    -0x2540(%rbp),%rax
   151e7:	48 89 85 e8 f9 ff ff 	mov    %rax,-0x618(%rbp)
   151ee:	48 8d 85 10 df ff ff 	lea    -0x20f0(%rbp),%rax
   151f5:	48 83 c0 20          	add    $0x20,%rax
   151f9:	48 89 85 f0 f9 ff ff 	mov    %rax,-0x610(%rbp)
   15200:	48 8d 85 10 df ff ff 	lea    -0x20f0(%rbp),%rax
   15207:	48 83 c0 20          	add    $0x20,%rax
   1520b:	48 89 85 f8 f9 ff ff 	mov    %rax,-0x608(%rbp)
   15212:	48 8d 85 e4 da ff ff 	lea    -0x251c(%rbp),%rax
   15219:	48 89 85 00 fa ff ff 	mov    %rax,-0x600(%rbp)
   15220:	48 8d 85 f8 db ff ff 	lea    -0x2408(%rbp),%rax
   15227:	48 89 85 08 fa ff ff 	mov    %rax,-0x5f8(%rbp)
   1522e:	48 8d 85 d8 da ff ff 	lea    -0x2528(%rbp),%rax
   15235:	48 89 85 10 fa ff ff 	mov    %rax,-0x5f0(%rbp)
   1523c:	48 c7 85 18 fa ff ff 	movq   $0x0,-0x5e8(%rbp)
   15243:	00 00 00 00 
   15247:	48 c7 85 20 fa ff ff 	movq   $0x0,-0x5e0(%rbp)
   1524e:	00 00 00 00 
   15252:	48 8d 05 3b 8f 00 00 	lea    0x8f3b(%rip),%rax        # 1e194 <g_231+0x74>
   15259:	48 89 85 28 fa ff ff 	mov    %rax,-0x5d8(%rbp)
   15260:	48 8d 05 7d 8e 00 00 	lea    0x8e7d(%rip),%rax        # 1e0e4 <g_130>
   15267:	48 89 85 30 fa ff ff 	mov    %rax,-0x5d0(%rbp)
   1526e:	48 8d 85 e0 e0 ff ff 	lea    -0x1f20(%rbp),%rax
   15275:	48 05 bc 00 00 00    	add    $0xbc,%rax
   1527b:	48 89 85 38 fa ff ff 	mov    %rax,-0x5c8(%rbp)
   15282:	48 8d 85 e4 da ff ff 	lea    -0x251c(%rbp),%rax
   15289:	48 89 85 40 fa ff ff 	mov    %rax,-0x5c0(%rbp)
   15290:	48 8d 05 41 8e 00 00 	lea    0x8e41(%rip),%rax        # 1e0d8 <g_105>
   15297:	48 89 85 48 fa ff ff 	mov    %rax,-0x5b8(%rbp)
   1529e:	48 8d 85 e4 da ff ff 	lea    -0x251c(%rbp),%rax
   152a5:	48 89 85 50 fa ff ff 	mov    %rax,-0x5b0(%rbp)
   152ac:	48 8d 85 c0 da ff ff 	lea    -0x2540(%rbp),%rax
   152b3:	48 89 85 58 fa ff ff 	mov    %rax,-0x5a8(%rbp)
   152ba:	48 8d 85 e0 da ff ff 	lea    -0x2520(%rbp),%rax
   152c1:	48 89 85 60 fa ff ff 	mov    %rax,-0x5a0(%rbp)
   152c8:	48 c7 85 68 fa ff ff 	movq   $0x0,-0x598(%rbp)
   152cf:	00 00 00 00 
   152d3:	48 8d 85 e0 da ff ff 	lea    -0x2520(%rbp),%rax
   152da:	48 89 85 70 fa ff ff 	mov    %rax,-0x590(%rbp)
   152e1:	48 8d 85 c0 da ff ff 	lea    -0x2540(%rbp),%rax
   152e8:	48 89 85 78 fa ff ff 	mov    %rax,-0x588(%rbp)
   152ef:	48 c7 85 80 fa ff ff 	movq   $0x0,-0x580(%rbp)
   152f6:	00 00 00 00 
   152fa:	48 8d 05 5f 8e 00 00 	lea    0x8e5f(%rip),%rax        # 1e160 <g_231+0x40>
   15301:	48 89 85 88 fa ff ff 	mov    %rax,-0x578(%rbp)
   15308:	48 8d 05 b9 8d 00 00 	lea    0x8db9(%rip),%rax        # 1e0c8 <g_45>
   1530f:	48 89 85 90 fa ff ff 	mov    %rax,-0x570(%rbp)
   15316:	48 c7 85 98 fa ff ff 	movq   $0x0,-0x568(%rbp)
   1531d:	00 00 00 00 
   15321:	48 8d 85 e0 e0 ff ff 	lea    -0x1f20(%rbp),%rax
   15328:	48 05 fc 00 00 00    	add    $0xfc,%rax
   1532e:	48 89 85 a0 fa ff ff 	mov    %rax,-0x560(%rbp)
   15335:	48 8d 05 34 8e 00 00 	lea    0x8e34(%rip),%rax        # 1e170 <g_231+0x50>
   1533c:	48 89 85 a8 fa ff ff 	mov    %rax,-0x558(%rbp)
   15343:	48 8d 85 c8 da ff ff 	lea    -0x2538(%rbp),%rax
   1534a:	48 89 85 b0 fa ff ff 	mov    %rax,-0x550(%rbp)
   15351:	48 8d 85 c8 da ff ff 	lea    -0x2538(%rbp),%rax
   15358:	48 89 85 b8 fa ff ff 	mov    %rax,-0x548(%rbp)
   1535f:	48 c7 85 c0 fa ff ff 	movq   $0x0,-0x540(%rbp)
   15366:	00 00 00 00 
   1536a:	48 8d 05 57 8d 00 00 	lea    0x8d57(%rip),%rax        # 1e0c8 <g_45>
   15371:	48 89 85 c8 fa ff ff 	mov    %rax,-0x538(%rbp)
   15378:	48 8d 85 d8 da ff ff 	lea    -0x2528(%rbp),%rax
   1537f:	48 89 85 d0 fa ff ff 	mov    %rax,-0x530(%rbp)
   15386:	48 8d 05 ff 8d 00 00 	lea    0x8dff(%rip),%rax        # 1e18c <g_231+0x6c>
   1538d:	48 89 85 d8 fa ff ff 	mov    %rax,-0x528(%rbp)
   15394:	48 8d 05 49 8d 00 00 	lea    0x8d49(%rip),%rax        # 1e0e4 <g_130>
   1539b:	48 89 85 e0 fa ff ff 	mov    %rax,-0x520(%rbp)
   153a2:	48 c7 85 e8 fa ff ff 	movq   $0x0,-0x518(%rbp)
   153a9:	00 00 00 00 
   153ad:	48 8d 85 e0 e0 ff ff 	lea    -0x1f20(%rbp),%rax
   153b4:	48 05 bc 00 00 00    	add    $0xbc,%rax
   153ba:	48 89 85 f0 fa ff ff 	mov    %rax,-0x510(%rbp)
   153c1:	48 8d 05 1c 8d 00 00 	lea    0x8d1c(%rip),%rax        # 1e0e4 <g_130>
   153c8:	48 89 85 f8 fa ff ff 	mov    %rax,-0x508(%rbp)
   153cf:	48 c7 85 00 fb ff ff 	movq   $0x0,-0x500(%rbp)
   153d6:	00 00 00 00 
   153da:	48 c7 85 08 fb ff ff 	movq   $0x0,-0x4f8(%rbp)
   153e1:	00 00 00 00 
   153e5:	48 8d 85 e0 da ff ff 	lea    -0x2520(%rbp),%rax
   153ec:	48 89 85 10 fb ff ff 	mov    %rax,-0x4f0(%rbp)
   153f3:	48 8d 85 c0 da ff ff 	lea    -0x2540(%rbp),%rax
   153fa:	48 89 85 18 fb ff ff 	mov    %rax,-0x4e8(%rbp)
   15401:	48 c7 85 20 fb ff ff 	movq   $0x0,-0x4e0(%rbp)
   15408:	00 00 00 00 
   1540c:	48 c7 85 28 fb ff ff 	movq   $0x0,-0x4d8(%rbp)
   15413:	00 00 00 00 
   15417:	48 8d 85 90 de ff ff 	lea    -0x2170(%rbp),%rax
   1541e:	48 89 85 30 fb ff ff 	mov    %rax,-0x4d0(%rbp)
   15425:	48 8d 05 ac 8c 00 00 	lea    0x8cac(%rip),%rax        # 1e0d8 <g_105>
   1542c:	48 89 85 38 fb ff ff 	mov    %rax,-0x4c8(%rbp)
   15433:	48 8d 85 10 df ff ff 	lea    -0x20f0(%rbp),%rax
   1543a:	48 83 c0 20          	add    $0x20,%rax
   1543e:	48 89 85 40 fb ff ff 	mov    %rax,-0x4c0(%rbp)
   15445:	48 8d 05 8c 8c 00 00 	lea    0x8c8c(%rip),%rax        # 1e0d8 <g_105>
   1544c:	48 89 85 48 fb ff ff 	mov    %rax,-0x4b8(%rbp)
   15453:	48 8d 85 c0 da ff ff 	lea    -0x2540(%rbp),%rax
   1545a:	48 89 85 50 fb ff ff 	mov    %rax,-0x4b0(%rbp)
   15461:	48 8d 85 c0 da ff ff 	lea    -0x2540(%rbp),%rax
   15468:	48 89 85 58 fb ff ff 	mov    %rax,-0x4a8(%rbp)
   1546f:	48 c7 85 60 fb ff ff 	movq   $0x0,-0x4a0(%rbp)
   15476:	00 00 00 00 
   1547a:	48 8d 05 b3 8c 00 00 	lea    0x8cb3(%rip),%rax        # 1e134 <g_231+0x14>
   15481:	48 89 85 68 fb ff ff 	mov    %rax,-0x498(%rbp)
   15488:	48 8d 05 55 8c 00 00 	lea    0x8c55(%rip),%rax        # 1e0e4 <g_130>
   1548f:	48 89 85 70 fb ff ff 	mov    %rax,-0x490(%rbp)
   15496:	48 c7 85 78 fb ff ff 	movq   $0x0,-0x488(%rbp)
   1549d:	00 00 00 00 
   154a1:	48 8d 85 c0 da ff ff 	lea    -0x2540(%rbp),%rax
   154a8:	48 89 85 80 fb ff ff 	mov    %rax,-0x480(%rbp)
   154af:	48 8d 85 10 df ff ff 	lea    -0x20f0(%rbp),%rax
   154b6:	48 83 c0 20          	add    $0x20,%rax
   154ba:	48 89 85 88 fb ff ff 	mov    %rax,-0x478(%rbp)
   154c1:	48 8d 85 10 df ff ff 	lea    -0x20f0(%rbp),%rax
   154c8:	48 83 c0 14          	add    $0x14,%rax
   154cc:	48 89 85 90 fb ff ff 	mov    %rax,-0x470(%rbp)
   154d3:	48 8d 85 e0 e0 ff ff 	lea    -0x1f20(%rbp),%rax
   154da:	48 05 bc 00 00 00    	add    $0xbc,%rax
   154e0:	48 89 85 98 fb ff ff 	mov    %rax,-0x468(%rbp)
   154e7:	48 8d 85 e0 e0 ff ff 	lea    -0x1f20(%rbp),%rax
   154ee:	48 83 c0 50          	add    $0x50,%rax
   154f2:	48 89 85 a0 fb ff ff 	mov    %rax,-0x460(%rbp)
   154f9:	48 8d 85 d4 da ff ff 	lea    -0x252c(%rbp),%rax
   15500:	48 89 85 a8 fb ff ff 	mov    %rax,-0x458(%rbp)
   15507:	48 8d 85 c0 da ff ff 	lea    -0x2540(%rbp),%rax
   1550e:	48 89 85 b0 fb ff ff 	mov    %rax,-0x450(%rbp)
   15515:	48 c7 85 b8 fb ff ff 	movq   $0x0,-0x448(%rbp)
   1551c:	00 00 00 00 
   15520:	48 8d 05 bd 8b 00 00 	lea    0x8bbd(%rip),%rax        # 1e0e4 <g_130>
   15527:	48 89 85 c0 fb ff ff 	mov    %rax,-0x440(%rbp)
   1552e:	48 8d 85 f8 db ff ff 	lea    -0x2408(%rbp),%rax
   15535:	48 89 85 c8 fb ff ff 	mov    %rax,-0x438(%rbp)
   1553c:	48 8d 85 c0 da ff ff 	lea    -0x2540(%rbp),%rax
   15543:	48 89 85 d0 fb ff ff 	mov    %rax,-0x430(%rbp)
   1554a:	48 8d 05 df 8b 00 00 	lea    0x8bdf(%rip),%rax        # 1e130 <g_231+0x10>
   15551:	48 89 85 d8 fb ff ff 	mov    %rax,-0x428(%rbp)
   15558:	48 8d 05 2d 8c 00 00 	lea    0x8c2d(%rip),%rax        # 1e18c <g_231+0x6c>
   1555f:	48 89 85 e0 fb ff ff 	mov    %rax,-0x420(%rbp)
   15566:	48 8d 85 e0 e0 ff ff 	lea    -0x1f20(%rbp),%rax
   1556d:	48 05 dc 00 00 00    	add    $0xdc,%rax
   15573:	48 89 85 e8 fb ff ff 	mov    %rax,-0x418(%rbp)
   1557a:	48 8d 85 90 de ff ff 	lea    -0x2170(%rbp),%rax
   15581:	48 83 c0 0c          	add    $0xc,%rax
   15585:	48 89 85 f0 fb ff ff 	mov    %rax,-0x410(%rbp)
   1558c:	48 8d 85 c0 da ff ff 	lea    -0x2540(%rbp),%rax
   15593:	48 89 85 f8 fb ff ff 	mov    %rax,-0x408(%rbp)
   1559a:	48 8d 85 d8 da ff ff 	lea    -0x2528(%rbp),%rax
   155a1:	48 89 85 00 fc ff ff 	mov    %rax,-0x400(%rbp)
   155a8:	48 8d 85 90 de ff ff 	lea    -0x2170(%rbp),%rax
   155af:	48 83 c0 0c          	add    $0xc,%rax
   155b3:	48 89 85 08 fc ff ff 	mov    %rax,-0x3f8(%rbp)
   155ba:	48 8d 85 c8 da ff ff 	lea    -0x2538(%rbp),%rax
   155c1:	48 89 85 10 fc ff ff 	mov    %rax,-0x3f0(%rbp)
   155c8:	48 8d 05 61 8b 00 00 	lea    0x8b61(%rip),%rax        # 1e130 <g_231+0x10>
   155cf:	48 89 85 18 fc ff ff 	mov    %rax,-0x3e8(%rbp)
   155d6:	48 8d 85 90 de ff ff 	lea    -0x2170(%rbp),%rax
   155dd:	48 89 85 20 fc ff ff 	mov    %rax,-0x3e0(%rbp)
   155e4:	48 8d 85 e0 e0 ff ff 	lea    -0x1f20(%rbp),%rax
   155eb:	48 05 bc 00 00 00    	add    $0xbc,%rax
   155f1:	48 89 85 28 fc ff ff 	mov    %rax,-0x3d8(%rbp)
   155f8:	48 8d 85 e4 da ff ff 	lea    -0x251c(%rbp),%rax
   155ff:	48 89 85 30 fc ff ff 	mov    %rax,-0x3d0(%rbp)
   15606:	48 8d 85 e0 e0 ff ff 	lea    -0x1f20(%rbp),%rax
   1560d:	48 05 0c 01 00 00    	add    $0x10c,%rax
   15613:	48 89 85 38 fc ff ff 	mov    %rax,-0x3c8(%rbp)
   1561a:	48 8d 85 d8 da ff ff 	lea    -0x2528(%rbp),%rax
   15621:	48 89 85 40 fc ff ff 	mov    %rax,-0x3c0(%rbp)
   15628:	48 c7 85 48 fc ff ff 	movq   $0x0,-0x3b8(%rbp)
   1562f:	00 00 00 00 
   15633:	48 8d 85 d4 da ff ff 	lea    -0x252c(%rbp),%rax
   1563a:	48 89 85 50 fc ff ff 	mov    %rax,-0x3b0(%rbp)
   15641:	48 c7 85 58 fc ff ff 	movq   $0x0,-0x3a8(%rbp)
   15648:	00 00 00 00 
   1564c:	48 8d 85 c0 da ff ff 	lea    -0x2540(%rbp),%rax
   15653:	48 89 85 60 fc ff ff 	mov    %rax,-0x3a0(%rbp)
   1565a:	48 8d 85 e0 da ff ff 	lea    -0x2520(%rbp),%rax
   15661:	48 89 85 68 fc ff ff 	mov    %rax,-0x398(%rbp)
   15668:	48 8d 05 75 8a 00 00 	lea    0x8a75(%rip),%rax        # 1e0e4 <g_130>
   1566f:	48 89 85 70 fc ff ff 	mov    %rax,-0x390(%rbp)
   15676:	48 c7 85 78 fc ff ff 	movq   $0x0,-0x388(%rbp)
   1567d:	00 00 00 00 
   15681:	48 8d 85 d8 da ff ff 	lea    -0x2528(%rbp),%rax
   15688:	48 89 85 80 fc ff ff 	mov    %rax,-0x380(%rbp)
   1568f:	48 8d 85 e0 e0 ff ff 	lea    -0x1f20(%rbp),%rax
   15696:	48 05 bc 00 00 00    	add    $0xbc,%rax
   1569c:	48 89 85 88 fc ff ff 	mov    %rax,-0x378(%rbp)
   156a3:	48 8d 05 3a 8a 00 00 	lea    0x8a3a(%rip),%rax        # 1e0e4 <g_130>
   156aa:	48 89 85 90 fc ff ff 	mov    %rax,-0x370(%rbp)
   156b1:	48 8d 85 c8 da ff ff 	lea    -0x2538(%rbp),%rax
   156b8:	48 89 85 98 fc ff ff 	mov    %rax,-0x368(%rbp)
   156bf:	48 8d 85 f8 db ff ff 	lea    -0x2408(%rbp),%rax
   156c6:	48 89 85 a0 fc ff ff 	mov    %rax,-0x360(%rbp)
   156cd:	48 8d 85 d8 da ff ff 	lea    -0x2528(%rbp),%rax
   156d4:	48 89 85 a8 fc ff ff 	mov    %rax,-0x358(%rbp)
   156db:	48 8d 85 10 df ff ff 	lea    -0x20f0(%rbp),%rax
   156e2:	48 83 c0 14          	add    $0x14,%rax
   156e6:	48 89 85 b0 fc ff ff 	mov    %rax,-0x350(%rbp)
   156ed:	48 8d 85 e0 da ff ff 	lea    -0x2520(%rbp),%rax
   156f4:	48 89 85 b8 fc ff ff 	mov    %rax,-0x348(%rbp)
   156fb:	48 8d 05 c6 89 00 00 	lea    0x89c6(%rip),%rax        # 1e0c8 <g_45>
   15702:	48 89 85 c0 fc ff ff 	mov    %rax,-0x340(%rbp)
   15709:	48 8d 85 90 de ff ff 	lea    -0x2170(%rbp),%rax
   15710:	48 83 c0 08          	add    $0x8,%rax
   15714:	48 89 85 c8 fc ff ff 	mov    %rax,-0x338(%rbp)
   1571b:	48 8d 85 c0 da ff ff 	lea    -0x2540(%rbp),%rax
   15722:	48 89 85 d0 fc ff ff 	mov    %rax,-0x330(%rbp)
   15729:	48 c7 85 d8 fc ff ff 	movq   $0x0,-0x328(%rbp)
   15730:	00 00 00 00 
   15734:	48 8d 85 d8 da ff ff 	lea    -0x2528(%rbp),%rax
   1573b:	48 89 85 e0 fc ff ff 	mov    %rax,-0x320(%rbp)
   15742:	48 c7 85 e8 fc ff ff 	movq   $0x0,-0x318(%rbp)
   15749:	00 00 00 00 
   1574d:	48 8d 05 90 89 00 00 	lea    0x8990(%rip),%rax        # 1e0e4 <g_130>
   15754:	48 89 85 f0 fc ff ff 	mov    %rax,-0x310(%rbp)
   1575b:	48 c7 85 f8 fc ff ff 	movq   $0x0,-0x308(%rbp)
   15762:	00 00 00 00 
   15766:	48 c7 85 00 fd ff ff 	movq   $0x0,-0x300(%rbp)
   1576d:	00 00 00 00 
   15771:	48 8d 05 b8 89 00 00 	lea    0x89b8(%rip),%rax        # 1e130 <g_231+0x10>
   15778:	48 89 85 08 fd ff ff 	mov    %rax,-0x2f8(%rbp)
   1577f:	48 8d 85 e4 da ff ff 	lea    -0x251c(%rbp),%rax
   15786:	48 89 85 10 fd ff ff 	mov    %rax,-0x2f0(%rbp)
   1578d:	48 8d 85 e0 e0 ff ff 	lea    -0x1f20(%rbp),%rax
   15794:	48 05 0c 01 00 00    	add    $0x10c,%rax
   1579a:	48 89 85 18 fd ff ff 	mov    %rax,-0x2e8(%rbp)
   157a1:	48 8d 85 e4 da ff ff 	lea    -0x251c(%rbp),%rax
   157a8:	48 89 85 20 fd ff ff 	mov    %rax,-0x2e0(%rbp)
   157af:	48 8d 05 7a 89 00 00 	lea    0x897a(%rip),%rax        # 1e130 <g_231+0x10>
   157b6:	48 89 85 28 fd ff ff 	mov    %rax,-0x2d8(%rbp)
   157bd:	48 8d 85 90 de ff ff 	lea    -0x2170(%rbp),%rax
   157c4:	48 83 c0 0c          	add    $0xc,%rax
   157c8:	48 89 85 30 fd ff ff 	mov    %rax,-0x2d0(%rbp)
   157cf:	48 8d 05 0e 89 00 00 	lea    0x890e(%rip),%rax        # 1e0e4 <g_130>
   157d6:	48 89 85 38 fd ff ff 	mov    %rax,-0x2c8(%rbp)
   157dd:	48 8d 85 f8 db ff ff 	lea    -0x2408(%rbp),%rax
   157e4:	48 89 85 40 fd ff ff 	mov    %rax,-0x2c0(%rbp)
   157eb:	48 c7 85 48 fd ff ff 	movq   $0x0,-0x2b8(%rbp)
   157f2:	00 00 00 00 
   157f6:	48 8d 05 e7 88 00 00 	lea    0x88e7(%rip),%rax        # 1e0e4 <g_130>
   157fd:	48 89 85 50 fd ff ff 	mov    %rax,-0x2b0(%rbp)
   15804:	48 8d 05 d9 88 00 00 	lea    0x88d9(%rip),%rax        # 1e0e4 <g_130>
   1580b:	48 89 85 58 fd ff ff 	mov    %rax,-0x2a8(%rbp)
   15812:	48 8d 85 90 de ff ff 	lea    -0x2170(%rbp),%rax
   15819:	48 89 85 60 fd ff ff 	mov    %rax,-0x2a0(%rbp)
   15820:	48 c7 85 68 fd ff ff 	movq   $0x0,-0x298(%rbp)
   15827:	00 00 00 00 
   1582b:	48 8d 85 f8 db ff ff 	lea    -0x2408(%rbp),%rax
   15832:	48 89 85 70 fd ff ff 	mov    %rax,-0x290(%rbp)
   15839:	48 8d 05 f0 88 00 00 	lea    0x88f0(%rip),%rax        # 1e130 <g_231+0x10>
   15840:	48 89 85 78 fd ff ff 	mov    %rax,-0x288(%rbp)
   15847:	48 8d 05 96 88 00 00 	lea    0x8896(%rip),%rax        # 1e0e4 <g_130>
   1584e:	48 89 85 80 fd ff ff 	mov    %rax,-0x280(%rbp)
   15855:	48 c7 85 88 fd ff ff 	movq   $0x0,-0x278(%rbp)
   1585c:	00 00 00 00 
   15860:	48 c7 85 90 fd ff ff 	movq   $0x0,-0x270(%rbp)
   15867:	00 00 00 00 
   1586b:	48 8d 05 72 88 00 00 	lea    0x8872(%rip),%rax        # 1e0e4 <g_130>
   15872:	48 89 85 98 fd ff ff 	mov    %rax,-0x268(%rbp)
   15879:	48 8d 05 64 88 00 00 	lea    0x8864(%rip),%rax        # 1e0e4 <g_130>
   15880:	48 89 85 a0 fd ff ff 	mov    %rax,-0x260(%rbp)
   15887:	48 8d 05 d2 88 00 00 	lea    0x88d2(%rip),%rax        # 1e160 <g_231+0x40>
   1588e:	48 89 85 a8 fd ff ff 	mov    %rax,-0x258(%rbp)
   15895:	48 8d 85 f8 db ff ff 	lea    -0x2408(%rbp),%rax
   1589c:	48 89 85 b0 fd ff ff 	mov    %rax,-0x250(%rbp)
   158a3:	48 8d 05 2e 88 00 00 	lea    0x882e(%rip),%rax        # 1e0d8 <g_105>
   158aa:	48 89 85 b8 fd ff ff 	mov    %rax,-0x248(%rbp)
   158b1:	48 8d 85 e0 e0 ff ff 	lea    -0x1f20(%rbp),%rax
   158b8:	48 05 bc 00 00 00    	add    $0xbc,%rax
   158be:	48 89 85 c0 fd ff ff 	mov    %rax,-0x240(%rbp)
   158c5:	48 8d 85 90 de ff ff 	lea    -0x2170(%rbp),%rax
   158cc:	48 83 c0 08          	add    $0x8,%rax
   158d0:	48 89 85 c8 fd ff ff 	mov    %rax,-0x238(%rbp)
   158d7:	48 8d 05 06 88 00 00 	lea    0x8806(%rip),%rax        # 1e0e4 <g_130>
   158de:	48 89 85 d0 fd ff ff 	mov    %rax,-0x230(%rbp)
   158e5:	48 8d 85 c8 da ff ff 	lea    -0x2538(%rbp),%rax
   158ec:	48 89 85 d8 fd ff ff 	mov    %rax,-0x228(%rbp)
   158f3:	48 8d 85 90 de ff ff 	lea    -0x2170(%rbp),%rax
   158fa:	48 83 c0 0c          	add    $0xc,%rax
   158fe:	48 89 85 e0 fd ff ff 	mov    %rax,-0x220(%rbp)
   15905:	48 8d 05 28 88 00 00 	lea    0x8828(%rip),%rax        # 1e134 <g_231+0x14>
   1590c:	48 89 85 e8 fd ff ff 	mov    %rax,-0x218(%rbp)
   15913:	48 c7 85 f0 fd ff ff 	movq   $0x0,-0x210(%rbp)
   1591a:	00 00 00 00 
   1591e:	48 8d 05 b3 87 00 00 	lea    0x87b3(%rip),%rax        # 1e0d8 <g_105>
   15925:	48 89 85 f8 fd ff ff 	mov    %rax,-0x208(%rbp)
   1592c:	48 8d 85 e4 da ff ff 	lea    -0x251c(%rbp),%rax
   15933:	48 89 85 00 fe ff ff 	mov    %rax,-0x200(%rbp)
   1593a:	48 8d 85 c0 da ff ff 	lea    -0x2540(%rbp),%rax
   15941:	48 89 85 08 fe ff ff 	mov    %rax,-0x1f8(%rbp)
   15948:	48 8d 05 95 87 00 00 	lea    0x8795(%rip),%rax        # 1e0e4 <g_130>
   1594f:	48 89 85 10 fe ff ff 	mov    %rax,-0x1f0(%rbp)
   15956:	48 8d 85 f8 db ff ff 	lea    -0x2408(%rbp),%rax
   1595d:	48 89 85 18 fe ff ff 	mov    %rax,-0x1e8(%rbp)
   15964:	48 8d 85 f8 db ff ff 	lea    -0x2408(%rbp),%rax
   1596b:	48 89 85 20 fe ff ff 	mov    %rax,-0x1e0(%rbp)
   15972:	48 8d 85 10 df ff ff 	lea    -0x20f0(%rbp),%rax
   15979:	48 83 c0 14          	add    $0x14,%rax
   1597d:	48 89 85 28 fe ff ff 	mov    %rax,-0x1d8(%rbp)
   15984:	48 c7 85 30 fe ff ff 	movq   $0x0,-0x1d0(%rbp)
   1598b:	00 00 00 00 
   1598f:	48 8d 85 d8 da ff ff 	lea    -0x2528(%rbp),%rax
   15996:	48 89 85 38 fe ff ff 	mov    %rax,-0x1c8(%rbp)
   1599d:	48 c7 85 40 fe ff ff 	movq   $0x0,-0x1c0(%rbp)
   159a4:	00 00 00 00 
   159a8:	48 8d 05 81 87 00 00 	lea    0x8781(%rip),%rax        # 1e130 <g_231+0x10>
   159af:	48 89 85 48 fe ff ff 	mov    %rax,-0x1b8(%rbp)
   159b6:	48 8d 05 e7 87 00 00 	lea    0x87e7(%rip),%rax        # 1e1a4 <g_231+0x84>
   159bd:	48 89 85 50 fe ff ff 	mov    %rax,-0x1b0(%rbp)
   159c4:	48 8d 05 19 87 00 00 	lea    0x8719(%rip),%rax        # 1e0e4 <g_130>
   159cb:	48 89 85 58 fe ff ff 	mov    %rax,-0x1a8(%rbp)
   159d2:	48 8d 85 10 df ff ff 	lea    -0x20f0(%rbp),%rax
   159d9:	48 83 c0 18          	add    $0x18,%rax
   159dd:	48 89 85 60 fe ff ff 	mov    %rax,-0x1a0(%rbp)
   159e4:	48 8d 85 d4 da ff ff 	lea    -0x252c(%rbp),%rax
   159eb:	48 89 85 68 fe ff ff 	mov    %rax,-0x198(%rbp)
   159f2:	48 8d 05 3b 87 00 00 	lea    0x873b(%rip),%rax        # 1e134 <g_231+0x14>
   159f9:	48 89 85 70 fe ff ff 	mov    %rax,-0x190(%rbp)
   15a00:	48 8d 05 dd 86 00 00 	lea    0x86dd(%rip),%rax        # 1e0e4 <g_130>
   15a07:	48 89 85 78 fe ff ff 	mov    %rax,-0x188(%rbp)
   15a0e:	48 c7 85 80 fe ff ff 	movq   $0x0,-0x180(%rbp)
   15a15:	00 00 00 00 
   15a19:	48 8d 85 d8 da ff ff 	lea    -0x2528(%rbp),%rax
   15a20:	48 89 85 88 fe ff ff 	mov    %rax,-0x178(%rbp)
   15a27:	48 8d 05 b6 86 00 00 	lea    0x86b6(%rip),%rax        # 1e0e4 <g_130>
   15a2e:	48 89 85 90 fe ff ff 	mov    %rax,-0x170(%rbp)
   15a35:	48 8d 85 c0 da ff ff 	lea    -0x2540(%rbp),%rax
   15a3c:	48 89 85 98 fe ff ff 	mov    %rax,-0x168(%rbp)
   15a43:	48 8d 85 10 df ff ff 	lea    -0x20f0(%rbp),%rax
   15a4a:	48 83 c0 1c          	add    $0x1c,%rax
   15a4e:	48 89 85 a0 fe ff ff 	mov    %rax,-0x160(%rbp)
   15a55:	48 8d 05 d4 86 00 00 	lea    0x86d4(%rip),%rax        # 1e130 <g_231+0x10>
   15a5c:	48 89 85 a8 fe ff ff 	mov    %rax,-0x158(%rbp)
   15a63:	48 8d 05 7a 86 00 00 	lea    0x867a(%rip),%rax        # 1e0e4 <g_130>
   15a6a:	48 89 85 b0 fe ff ff 	mov    %rax,-0x150(%rbp)
   15a71:	48 8d 05 14 87 00 00 	lea    0x8714(%rip),%rax        # 1e18c <g_231+0x6c>
   15a78:	48 89 85 b8 fe ff ff 	mov    %rax,-0x148(%rbp)
   15a7f:	48 8d 05 42 86 00 00 	lea    0x8642(%rip),%rax        # 1e0c8 <g_45>
   15a86:	48 89 85 c0 fe ff ff 	mov    %rax,-0x140(%rbp)
   15a8d:	48 8d 05 50 86 00 00 	lea    0x8650(%rip),%rax        # 1e0e4 <g_130>
   15a94:	48 89 85 c8 fe ff ff 	mov    %rax,-0x138(%rbp)
   15a9b:	48 8d 85 d4 da ff ff 	lea    -0x252c(%rbp),%rax
   15aa2:	48 89 85 d0 fe ff ff 	mov    %rax,-0x130(%rbp)
   15aa9:	48 8d 05 84 86 00 00 	lea    0x8684(%rip),%rax        # 1e134 <g_231+0x14>
   15ab0:	48 89 85 d8 fe ff ff 	mov    %rax,-0x128(%rbp)
   15ab7:	48 8d 05 76 86 00 00 	lea    0x8676(%rip),%rax        # 1e134 <g_231+0x14>
   15abe:	48 89 85 e0 fe ff ff 	mov    %rax,-0x120(%rbp)
   15ac5:	48 c7 85 e8 fe ff ff 	movq   $0x0,-0x118(%rbp)
   15acc:	00 00 00 00 
   15ad0:	48 8d 85 e4 da ff ff 	lea    -0x251c(%rbp),%rax
   15ad7:	48 89 85 f0 fe ff ff 	mov    %rax,-0x110(%rbp)
   15ade:	48 c7 85 f8 fe ff ff 	movq   $0x0,-0x108(%rbp)
   15ae5:	00 00 00 00 
   15ae9:	48 8d 85 e0 e0 ff ff 	lea    -0x1f20(%rbp),%rax
   15af0:	48 05 bc 00 00 00    	add    $0xbc,%rax
   15af6:	48 89 85 00 ff ff ff 	mov    %rax,-0x100(%rbp)
   15afd:	48 8d 85 e0 e0 ff ff 	lea    -0x1f20(%rbp),%rax
   15b04:	48 05 bc 00 00 00    	add    $0xbc,%rax
   15b0a:	48 89 85 08 ff ff ff 	mov    %rax,-0xf8(%rbp)
   15b11:	48 8d 85 c8 da ff ff 	lea    -0x2538(%rbp),%rax
   15b18:	48 89 85 10 ff ff ff 	mov    %rax,-0xf0(%rbp)
   15b1f:	48 8d 05 a2 85 00 00 	lea    0x85a2(%rip),%rax        # 1e0c8 <g_45>
   15b26:	48 89 85 18 ff ff ff 	mov    %rax,-0xe8(%rbp)
   15b2d:	48 8d 05 60 86 00 00 	lea    0x8660(%rip),%rax        # 1e194 <g_231+0x74>
   15b34:	48 89 85 20 ff ff ff 	mov    %rax,-0xe0(%rbp)
   15b3b:	48 8d 05 a2 85 00 00 	lea    0x85a2(%rip),%rax        # 1e0e4 <g_130>
   15b42:	48 89 85 28 ff ff ff 	mov    %rax,-0xd8(%rbp)
   15b49:	48 c7 85 30 ff ff ff 	movq   $0x0,-0xd0(%rbp)
   15b50:	00 00 00 00 
   15b54:	48 8d 85 e4 da ff ff 	lea    -0x251c(%rbp),%rax
   15b5b:	48 89 85 38 ff ff ff 	mov    %rax,-0xc8(%rbp)
   15b62:	48 8d 85 10 df ff ff 	lea    -0x20f0(%rbp),%rax
   15b69:	48 83 c0 20          	add    $0x20,%rax
   15b6d:	48 89 85 40 ff ff ff 	mov    %rax,-0xc0(%rbp)
   15b74:	48 8d 85 e0 e0 ff ff 	lea    -0x1f20(%rbp),%rax
   15b7b:	48 05 bc 00 00 00    	add    $0xbc,%rax
   15b81:	48 89 85 48 ff ff ff 	mov    %rax,-0xb8(%rbp)
   15b88:	48 8d 85 f8 db ff ff 	lea    -0x2408(%rbp),%rax
   15b8f:	48 89 85 50 ff ff ff 	mov    %rax,-0xb0(%rbp)
   15b96:	48 8d 85 e0 e0 ff ff 	lea    -0x1f20(%rbp),%rax
   15b9d:	48 05 bc 00 00 00    	add    $0xbc,%rax
   15ba3:	48 89 85 58 ff ff ff 	mov    %rax,-0xa8(%rbp)
   15baa:	48 8d 85 c8 da ff ff 	lea    -0x2538(%rbp),%rax
   15bb1:	48 89 85 60 ff ff ff 	mov    %rax,-0xa0(%rbp)
   15bb8:	48 8d 85 d4 da ff ff 	lea    -0x252c(%rbp),%rax
   15bbf:	48 89 85 68 ff ff ff 	mov    %rax,-0x98(%rbp)
   15bc6:	48 8d 05 c7 85 00 00 	lea    0x85c7(%rip),%rax        # 1e194 <g_231+0x74>
   15bcd:	48 89 85 70 ff ff ff 	mov    %rax,-0x90(%rbp)
   15bd4:	48 c7 85 78 ff ff ff 	movq   $0x0,-0x88(%rbp)
   15bdb:	00 00 00 00 
   15bdf:	48 8d 85 d8 da ff ff 	lea    -0x2528(%rbp),%rax
   15be6:	48 89 45 80          	mov    %rax,-0x80(%rbp)
   15bea:	48 8d 85 90 de ff ff 	lea    -0x2170(%rbp),%rax
   15bf1:	48 83 c0 0c          	add    $0xc,%rax
   15bf5:	48 89 45 88          	mov    %rax,-0x78(%rbp)
   15bf9:	48 8d 05 c8 84 00 00 	lea    0x84c8(%rip),%rax        # 1e0c8 <g_45>
   15c00:	48 89 45 90          	mov    %rax,-0x70(%rbp)
   15c04:	48 c7 45 98 00 00 00 	movq   $0x0,-0x68(%rbp)
   15c0b:	00 
   15c0c:	48 c7 45 a0 00 00 00 	movq   $0x0,-0x60(%rbp)
   15c13:	00 
   15c14:	48 8d 85 f8 db ff ff 	lea    -0x2408(%rbp),%rax
   15c1b:	48 89 45 a8          	mov    %rax,-0x58(%rbp)
   15c1f:	c7 85 fc da ff ff 00 	movl   $0x0,-0x2504(%rbp)
   15c26:	00 00 00 
   15c29:	eb 1a                	jmp    15c45 <func_60+0x6123>
   15c2b:	8b 85 fc da ff ff    	mov    -0x2504(%rbp),%eax
   15c31:	48 98                	cltq   
   15c33:	c7 84 85 f0 e8 ff ff 	movl   $0xb776f80d,-0x1710(%rbp,%rax,4)
   15c3a:	0d f8 76 b7 
   15c3e:	83 85 fc da ff ff 01 	addl   $0x1,-0x2504(%rbp)
   15c45:	83 bd fc da ff ff 05 	cmpl   $0x5,-0x2504(%rbp)
   15c4c:	7e dd                	jle    15c2b <func_60+0x6109>
   15c4e:	8b 85 f8 db ff ff    	mov    -0x2408(%rbp),%eax
   15c54:	0f b6 d8             	movzbl %al,%ebx
   15c57:	48 8b 85 78 dc ff ff 	mov    -0x2388(%rbp),%rax
   15c5e:	48 3b 85 28 dc ff ff 	cmp    -0x23d8(%rbp),%rax
   15c65:	75 4c                	jne    15cb3 <func_60+0x6191>
   15c67:	48 8b 85 e0 db ff ff 	mov    -0x2420(%rbp),%rax
   15c6e:	8b 00                	mov    (%rax),%eax
   15c70:	44 0f b6 e0          	movzbl %al,%r12d
   15c74:	0f b7 05 ce 85 00 00 	movzwl 0x85ce(%rip),%eax        # 1e249 <g_429+0x9>
   15c7b:	0f b7 c0             	movzwl %ax,%eax
   15c7e:	48 89 c6             	mov    %rax,%rsi
   15c81:	bf 01 00 00 00       	mov    $0x1,%edi
   15c86:	e8 24 34 ff ff       	callq  90af <safe_div_func_uint64_t_u_u>
   15c8b:	48 85 c0             	test   %rax,%rax
   15c8e:	74 08                	je     15c98 <func_60+0x6176>
   15c90:	8b 85 f8 db ff ff    	mov    -0x2408(%rbp),%eax
   15c96:	85 c0                	test   %eax,%eax
   15c98:	44 89 e6             	mov    %r12d,%esi
   15c9b:	bf 69 00 00 00       	mov    $0x69,%edi
   15ca0:	e8 36 2f ff ff       	callq  8bdb <safe_div_func_uint8_t_u_u>
   15ca5:	8b 95 e4 da ff ff    	mov    -0x251c(%rbp),%edx
   15cab:	8b 05 37 9b 00 00    	mov    0x9b37(%rip),%eax        # 1f7e8 <g_619>
   15cb1:	39 c2                	cmp    %eax,%edx
   15cb3:	c7 85 20 df ff ff 00 	movl   $0x0,-0x20e0(%rbp)
   15cba:	00 00 00 
   15cbd:	8b 85 20 df ff ff    	mov    -0x20e0(%rbp),%eax
   15cc3:	83 c8 fc             	or     $0xfffffffc,%eax
   15cc6:	0f be c0             	movsbl %al,%eax
   15cc9:	be fe ff ff ff       	mov    $0xfffffffe,%esi
   15cce:	89 c7                	mov    %eax,%edi
   15cd0:	e8 95 25 ff ff       	callq  826a <safe_div_func_int8_t_s_s>
   15cd5:	0f be d0             	movsbl %al,%edx
   15cd8:	8b 8d d0 da ff ff    	mov    -0x2530(%rbp),%ecx
   15cde:	48 8b 85 00 de ff ff 	mov    -0x2200(%rbp),%rax
   15ce5:	89 08                	mov    %ecx,(%rax)
   15ce7:	48 8b 85 e0 db ff ff 	mov    -0x2420(%rbp),%rax
   15cee:	8b 00                	mov    (%rax),%eax
   15cf0:	89 d6                	mov    %edx,%esi
   15cf2:	89 c7                	mov    %eax,%edi
   15cf4:	e8 bd 28 ff ff       	callq  85b6 <safe_add_func_int32_t_s_s>
   15cf9:	0f b6 c0             	movzbl %al,%eax
   15cfc:	89 de                	mov    %ebx,%esi
   15cfe:	89 c7                	mov    %eax,%edi
   15d00:	e8 55 2e ff ff       	callq  8b5a <safe_add_func_uint8_t_u_u>
   15d05:	0f b6 05 3b 8e 00 00 	movzbl 0x8e3b(%rip),%eax        # 1eb47 <g_431+0x8c7>
   15d0c:	0f b7 15 35 8e 00 00 	movzwl 0x8e35(%rip),%edx        # 1eb48 <g_431+0x8c8>
   15d13:	81 e2 ff 7f 00 00    	and    $0x7fff,%edx
   15d19:	48 c1 e2 08          	shl    $0x8,%rdx
   15d1d:	48 09 d0             	or     %rdx,%rax
   15d20:	48 c1 e0 29          	shl    $0x29,%rax
   15d24:	48 c1 f8 29          	sar    $0x29,%rax
   15d28:	89 c1                	mov    %eax,%ecx
   15d2a:	8b 85 ac da ff ff    	mov    -0x2554(%rbp),%eax
   15d30:	39 85 0c db ff ff    	cmp    %eax,-0x24f4(%rbp)
   15d36:	0f 95 c0             	setne  %al
   15d39:	0f b6 d0             	movzbl %al,%edx
   15d3c:	48 8b 85 e0 db ff ff 	mov    -0x2420(%rbp),%rax
   15d43:	31 ca                	xor    %ecx,%edx
   15d45:	89 10                	mov    %edx,(%rax)
   15d47:	8b 05 bb 83 00 00    	mov    0x83bb(%rip),%eax        # 1e108 <g_207>
   15d4d:	89 c2                	mov    %eax,%edx
   15d4f:	8b 85 88 de ff ff    	mov    -0x2178(%rbp),%eax
   15d55:	89 d6                	mov    %edx,%esi
   15d57:	89 c7                	mov    %eax,%edi
   15d59:	e8 c7 31 ff ff       	callq  8f25 <safe_div_func_uint32_t_u_u>
   15d5e:	0f b6 05 4a 98 00 00 	movzbl 0x984a(%rip),%eax        # 1f5af <g_435+0xf>
   15d65:	0f b7 15 44 98 00 00 	movzwl 0x9844(%rip),%edx        # 1f5b0 <g_435+0x10>
   15d6c:	81 e2 ff 7f 00 00    	and    $0x7fff,%edx
   15d72:	48 c1 e2 08          	shl    $0x8,%rdx
   15d76:	48 09 d0             	or     %rdx,%rax
   15d79:	48 c1 e0 29          	shl    $0x29,%rax
   15d7d:	48 c1 f8 29          	sar    $0x29,%rax
   15d81:	85 c0                	test   %eax,%eax
   15d83:	74 07                	je     15d8c <func_60+0x626a>
   15d85:	bf 01 00 00 00       	mov    $0x1,%edi
   15d8a:	eb 05                	jmp    15d91 <func_60+0x626f>
   15d8c:	bf 00 00 00 00       	mov    $0x0,%edi
   15d91:	48 8b 85 a0 dc ff ff 	mov    -0x2360(%rbp),%rax
   15d98:	48 8b 00             	mov    (%rax),%rax
   15d9b:	48 8b 95 60 ec ff ff 	mov    -0x13a0(%rbp),%rdx
   15da2:	48 89 10             	mov    %rdx,(%rax)
   15da5:	c7 85 e4 da ff ff 01 	movl   $0x1,-0x251c(%rbp)
   15dac:	00 00 00 
   15daf:	8b 8d e4 da ff ff    	mov    -0x251c(%rbp),%ecx
   15db5:	48 8b 85 08 de ff ff 	mov    -0x21f8(%rbp),%rax
   15dbc:	48 8b 95 10 dc ff ff 	mov    -0x23f0(%rbp),%rdx
   15dc3:	48 89 10             	mov    %rdx,(%rax)
   15dc6:	48 8b 85 08 de ff ff 	mov    -0x21f8(%rbp),%rax
   15dcd:	48 8b 30             	mov    (%rax),%rsi
   15dd0:	48 8b 95 78 de ff ff 	mov    -0x2188(%rbp),%rdx
   15dd7:	48 8b 85 10 de ff ff 	mov    -0x21f0(%rbp),%rax
   15dde:	48 89 10             	mov    %rdx,(%rax)
   15de1:	48 8b 85 10 de ff ff 	mov    -0x21f0(%rbp),%rax
   15de8:	48 8b 00             	mov    (%rax),%rax
   15deb:	48 39 c6             	cmp    %rax,%rsi
   15dee:	0f 95 c2             	setne  %dl
   15df1:	48 8b 85 e0 db ff ff 	mov    -0x2420(%rbp),%rax
   15df8:	0f b6 d2             	movzbl %dl,%edx
   15dfb:	89 10                	mov    %edx,(%rax)
   15dfd:	8b 00                	mov    (%rax),%eax
   15dff:	09 c1                	or     %eax,%ecx
   15e01:	89 ca                	mov    %ecx,%edx
   15e03:	8b 85 ac da ff ff    	mov    -0x2554(%rbp),%eax
   15e09:	21 d0                	and    %edx,%eax
   15e0b:	89 fe                	mov    %edi,%esi
   15e0d:	89 c7                	mov    %eax,%edi
   15e0f:	e8 eb 28 ff ff       	callq  86ff <safe_div_func_int32_t_s_s>
   15e14:	c1 e0 09             	shl    $0x9,%eax
   15e17:	c1 f8 09             	sar    $0x9,%eax
   15e1a:	89 c2                	mov    %eax,%edx
   15e1c:	0f b6 ca             	movzbl %dl,%ecx
   15e1f:	0f b6 15 b9 99 00 00 	movzbl 0x99b9(%rip),%edx        # 1f7df <g_443+0xf>
   15e26:	83 e2 00             	and    $0x0,%edx
   15e29:	09 ca                	or     %ecx,%edx
   15e2b:	88 15 ae 99 00 00    	mov    %dl,0x99ae(%rip)        # 1f7df <g_443+0xf>
   15e31:	89 c2                	mov    %eax,%edx
   15e33:	c1 ea 08             	shr    $0x8,%edx
   15e36:	89 d2                	mov    %edx,%edx
   15e38:	0f b6 ca             	movzbl %dl,%ecx
   15e3b:	0f b6 15 9e 99 00 00 	movzbl 0x999e(%rip),%edx        # 1f7e0 <g_443+0x10>
   15e42:	83 e2 00             	and    $0x0,%edx
   15e45:	09 ca                	or     %ecx,%edx
   15e47:	88 15 93 99 00 00    	mov    %dl,0x9993(%rip)        # 1f7e0 <g_443+0x10>
   15e4d:	c1 e8 10             	shr    $0x10,%eax
   15e50:	89 c0                	mov    %eax,%eax
   15e52:	83 e0 7f             	and    $0x7f,%eax
   15e55:	89 c2                	mov    %eax,%edx
   15e57:	83 e2 7f             	and    $0x7f,%edx
   15e5a:	0f b6 05 80 99 00 00 	movzbl 0x9980(%rip),%eax        # 1f7e1 <g_443+0x11>
   15e61:	83 e0 80             	and    $0xffffff80,%eax
   15e64:	09 d0                	or     %edx,%eax
   15e66:	88 05 75 99 00 00    	mov    %al,0x9975(%rip)        # 1f7e1 <g_443+0x11>
   15e6c:	8b 85 04 e9 ff ff    	mov    -0x16fc(%rbp),%eax
   15e72:	83 e8 01             	sub    $0x1,%eax
   15e75:	89 85 04 e9 ff ff    	mov    %eax,-0x16fc(%rbp)
   15e7b:	eb 20                	jmp    15e9d <func_60+0x637b>
   15e7d:	48 8b 15 fc cd 00 00 	mov    0xcdfc(%rip),%rdx        # 22c80 <g_166>
   15e84:	48 8b 85 e0 db ff ff 	mov    -0x2420(%rbp),%rax
   15e8b:	8b 12                	mov    (%rdx),%edx
   15e8d:	89 10                	mov    %edx,(%rax)
   15e8f:	48 8b 05 02 b9 00 00 	mov    0xb902(%rip),%rax        # 21798 <g_43>
   15e96:	48 8b 00             	mov    (%rax),%rax
   15e99:	8b 00                	mov    (%rax),%eax
   15e9b:	85 c0                	test   %eax,%eax
   15e9d:	8b 85 d8 da ff ff    	mov    -0x2528(%rbp),%eax
   15ea3:	83 e8 01             	sub    $0x1,%eax
   15ea6:	89 85 d8 da ff ff    	mov    %eax,-0x2528(%rbp)
   15eac:	8b 85 d8 da ff ff    	mov    -0x2528(%rbp),%eax
   15eb2:	83 f8 e7             	cmp    $0xffffffe7,%eax
   15eb5:	0f 8d 9c d3 ff ff    	jge    13257 <func_60+0x3735>
   15ebb:	48 8b 85 d8 db ff ff 	mov    -0x2428(%rbp),%rax
   15ec2:	89 c3                	mov    %eax,%ebx
   15ec4:	8b 85 b4 de ff ff    	mov    -0x214c(%rbp),%eax
   15eca:	83 f8 01             	cmp    $0x1,%eax
   15ecd:	0f 95 c0             	setne  %al
   15ed0:	0f b6 d0             	movzbl %al,%edx
   15ed3:	48 83 bd 30 dc ff ff 	cmpq   $0x0,-0x23d0(%rbp)
   15eda:	00 
   15edb:	0f 95 c0             	setne  %al
   15ede:	0f b6 c0             	movzbl %al,%eax
   15ee1:	89 d6                	mov    %edx,%esi
   15ee3:	89 c7                	mov    %eax,%edi
   15ee5:	e8 40 26 ff ff       	callq  852a <safe_rshift_func_int16_t_s_s>
   15eea:	0c ff                	or     $0xff,%al
   15eec:	0f b7 c0             	movzwl %ax,%eax
   15eef:	89 de                	mov    %ebx,%esi
   15ef1:	89 c7                	mov    %eax,%edi
   15ef3:	e8 0e 2f ff ff       	callq  8e06 <safe_lshift_func_uint16_t_u_u>
   15ef8:	0f b7 c0             	movzwl %ax,%eax
   15efb:	0f b6 15 0d 83 00 00 	movzbl 0x830d(%rip),%edx        # 1e20f <g_427+0xf>
   15f02:	0f b7 0d 07 83 00 00 	movzwl 0x8307(%rip),%ecx        # 1e210 <g_427+0x10>
   15f09:	81 e1 ff 7f 00 00    	and    $0x7fff,%ecx
   15f0f:	48 c1 e1 08          	shl    $0x8,%rcx
   15f13:	48 09 ca             	or     %rcx,%rdx
   15f16:	48 c1 e2 29          	shl    $0x29,%rdx
   15f1a:	48 c1 fa 29          	sar    $0x29,%rdx
   15f1e:	09 c2                	or     %eax,%edx
   15f20:	0f b7 05 84 96 00 00 	movzwl 0x9684(%rip),%eax        # 1f5ab <g_435+0xb>
   15f27:	0f b7 c0             	movzwl %ax,%eax
   15f2a:	39 c2                	cmp    %eax,%edx
   15f2c:	ba 01 00 00 00       	mov    $0x1,%edx
   15f31:	48 8b 85 90 dc ff ff 	mov    -0x2370(%rbp),%rax
   15f38:	0f b7 00             	movzwl (%rax),%eax
   15f3b:	31 c2                	xor    %eax,%edx
   15f3d:	48 8b 85 90 dc ff ff 	mov    -0x2370(%rbp),%rax
   15f44:	66 89 10             	mov    %dx,(%rax)
   15f47:	48 8b 85 88 dc ff ff 	mov    -0x2378(%rbp),%rax
   15f4e:	0f b6 00             	movzbl (%rax),%eax
   15f51:	0f b7 15 75 96 00 00 	movzwl 0x9675(%rip),%edx        # 1f5cd <g_436+0xd>
   15f58:	09 c2                	or     %eax,%edx
   15f5a:	48 8b 85 88 dc ff ff 	mov    -0x2378(%rbp),%rax
   15f61:	88 10                	mov    %dl,(%rax)
   15f63:	0f b6 85 b4 da ff ff 	movzbl -0x254c(%rbp),%eax
   15f6a:	84 c0                	test   %al,%al
   15f6c:	0f 95 c0             	setne  %al
   15f6f:	0f b6 d0             	movzbl %al,%edx
   15f72:	8b 85 d8 da ff ff    	mov    -0x2528(%rbp),%eax
   15f78:	09 d0                	or     %edx,%eax
   15f7a:	89 85 d8 da ff ff    	mov    %eax,-0x2528(%rbp)
   15f80:	8b 85 d8 da ff ff    	mov    -0x2528(%rbp),%eax
   15f86:	e9 fd 02 00 00       	jmpq   16288 <func_60+0x6766>
   15f8b:	8b 85 ac da ff ff    	mov    -0x2554(%rbp),%eax
   15f91:	85 c0                	test   %eax,%eax
   15f93:	0f 8f 16 a1 ff ff    	jg     100af <func_60+0x58d>
   15f99:	eb 01                	jmp    15f9c <func_60+0x647a>
   15f9b:	90                   	nop
   15f9c:	66 c7 05 67 81 00 00 	movw   $0x0,0x8167(%rip)        # 1e10c <g_211>
   15fa3:	00 00 
   15fa5:	eb 6a                	jmp    16011 <func_60+0x64ef>
   15fa7:	48 8b 05 ea b7 00 00 	mov    0xb7ea(%rip),%rax        # 21798 <g_43>
   15fae:	48 8d 95 ac da ff ff 	lea    -0x2554(%rbp),%rdx
   15fb5:	48 89 10             	mov    %rdx,(%rax)
   15fb8:	48 8b 00             	mov    (%rax),%rax
   15fbb:	48 89 85 20 dc ff ff 	mov    %rax,-0x23e0(%rbp)
   15fc2:	48 8b 15 cf b7 00 00 	mov    0xb7cf(%rip),%rdx        # 21798 <g_43>
   15fc9:	48 8b 05 c8 b7 00 00 	mov    0xb7c8(%rip),%rax        # 21798 <g_43>
   15fd0:	48 8b 12             	mov    (%rdx),%rdx
   15fd3:	48 89 10             	mov    %rdx,(%rax)
   15fd6:	48 8b 00             	mov    (%rax),%rax
   15fd9:	48 8d 15 a4 81 00 00 	lea    0x81a4(%rip),%rdx        # 1e184 <g_231+0x64>
   15fe0:	48 39 d0             	cmp    %rdx,%rax
   15fe3:	0f 95 c0             	setne  %al
   15fe6:	0f b6 d0             	movzbl %al,%edx
   15fe9:	48 8b 85 20 dc ff ff 	mov    -0x23e0(%rbp),%rax
   15ff0:	89 10                	mov    %edx,(%rax)
   15ff2:	0f b7 05 13 81 00 00 	movzwl 0x8113(%rip),%eax        # 1e10c <g_211>
   15ff9:	0f be c0             	movsbl %al,%eax
   15ffc:	be 08 00 00 00       	mov    $0x8,%esi
   16001:	89 c7                	mov    %eax,%edi
   16003:	e8 ea 21 ff ff       	callq  81f2 <safe_sub_func_int8_t_s_s>
   16008:	66 98                	cbtw   
   1600a:	66 89 05 fb 80 00 00 	mov    %ax,0x80fb(%rip)        # 1e10c <g_211>
   16011:	0f b7 05 f4 80 00 00 	movzwl 0x80f4(%rip),%eax        # 1e10c <g_211>
   16018:	66 83 f8 f8          	cmp    $0xfff8,%ax
   1601c:	75 89                	jne    15fa7 <func_60+0x6485>
   1601e:	48 8b 85 20 dc ff ff 	mov    -0x23e0(%rbp),%rax
   16025:	8b 00                	mov    (%rax),%eax
   16027:	48 63 d8             	movslq %eax,%rbx
   1602a:	8b 85 ac da ff ff    	mov    -0x2554(%rbp),%eax
   16030:	44 0f bf e0          	movswl %ax,%r12d
   16034:	8b 85 a8 da ff ff    	mov    -0x2558(%rbp),%eax
   1603a:	89 c0                	mov    %eax,%eax
   1603c:	48 89 85 98 da ff ff 	mov    %rax,-0x2568(%rbp)
   16043:	8b 85 ac da ff ff    	mov    -0x2554(%rbp),%eax
   16049:	44 0f b6 e8          	movzbl %al,%r13d
   1604d:	8b 05 c1 80 00 00    	mov    0x80c1(%rip),%eax        # 1e114 <g_230>
   16053:	4c 63 f0             	movslq %eax,%r14
   16056:	0f b6 05 a3 96 00 00 	movzbl 0x96a3(%rip),%eax        # 1f700 <g_440+0x20>
   1605d:	88 85 b7 da ff ff    	mov    %al,-0x2549(%rbp)
   16063:	44 0f be bd b7 da ff 	movsbl -0x2549(%rbp),%r15d
   1606a:	ff 
   1606b:	48 8b 85 20 dc ff ff 	mov    -0x23e0(%rbp),%rax
   16072:	8b 00                	mov    (%rax),%eax
   16074:	89 c2                	mov    %eax,%edx
   16076:	48 8b 85 20 dc ff ff 	mov    -0x23e0(%rbp),%rax
   1607d:	8b 00                	mov    (%rax),%eax
   1607f:	0f b7 c0             	movzwl %ax,%eax
   16082:	89 d6                	mov    %edx,%esi
   16084:	89 c7                	mov    %eax,%edi
   16086:	e8 7b 2d ff ff       	callq  8e06 <safe_lshift_func_uint16_t_u_u>
   1608b:	0f b7 c0             	movzwl %ax,%eax
   1608e:	44 09 f8             	or     %r15d,%eax
   16091:	89 c2                	mov    %eax,%edx
   16093:	8b 85 a8 da ff ff    	mov    -0x2558(%rbp),%eax
   16099:	21 d0                	and    %edx,%eax
   1609b:	89 c0                	mov    %eax,%eax
   1609d:	4c 89 f6             	mov    %r14,%rsi
   160a0:	48 89 c7             	mov    %rax,%rdi
   160a3:	e8 a3 2f ff ff       	callq  904b <safe_sub_func_uint64_t_u_u>
   160a8:	ba 32 31 7c 90       	mov    $0x907c3132,%edx
   160ad:	48 39 d0             	cmp    %rdx,%rax
   160b0:	0f 97 c0             	seta   %al
   160b3:	0f b6 d0             	movzbl %al,%edx
   160b6:	8b 85 9c e1 ff ff    	mov    -0x1e64(%rbp),%eax
   160bc:	21 d0                	and    %edx,%eax
   160be:	89 85 9c e1 ff ff    	mov    %eax,-0x1e64(%rbp)
   160c4:	b9 01 00 00 00       	mov    $0x1,%ecx
   160c9:	48 8b 85 20 dc ff ff 	mov    -0x23e0(%rbp),%rax
   160d0:	8b 10                	mov    (%rax),%edx
   160d2:	48 8b 05 b7 b6 00 00 	mov    0xb6b7(%rip),%rax        # 21790 <g_44>
   160d9:	8b 00                	mov    (%rax),%eax
   160db:	39 c2                	cmp    %eax,%edx
   160dd:	0f 95 c0             	setne  %al
   160e0:	0f b6 d0             	movzbl %al,%edx
   160e3:	48 8b 85 40 dc ff ff 	mov    -0x23c0(%rbp),%rax
   160ea:	0f b7 00             	movzwl (%rax),%eax
   160ed:	09 c1                	or     %eax,%ecx
   160ef:	48 8b 85 40 dc ff ff 	mov    -0x23c0(%rbp),%rax
   160f6:	66 89 08             	mov    %cx,(%rax)
   160f9:	48 8b 85 40 dc ff ff 	mov    -0x23c0(%rbp),%rax
   16100:	0f b7 00             	movzwl (%rax),%eax
   16103:	48 0f bf c0          	movswq %ax,%rax
   16107:	48 35 89 83 00 00    	xor    $0x8389,%rax
   1610d:	48 39 c2             	cmp    %rax,%rdx
   16110:	0f 95 c0             	setne  %al
   16113:	0f b6 c0             	movzbl %al,%eax
   16116:	44 89 ee             	mov    %r13d,%esi
   16119:	89 c7                	mov    %eax,%edi
   1611b:	e8 73 2a ff ff       	callq  8b93 <safe_mul_func_uint8_t_u_u>
   16120:	0f b6 c0             	movzbl %al,%eax
   16123:	48 8b b5 98 da ff ff 	mov    -0x2568(%rbp),%rsi
   1612a:	48 89 c7             	mov    %rax,%rdi
   1612d:	e8 0f 27 ff ff       	callq  8841 <safe_add_func_int64_t_s_s>
   16132:	8b 95 a8 da ff ff    	mov    -0x2558(%rbp),%edx
   16138:	89 d2                	mov    %edx,%edx
   1613a:	48 39 d0             	cmp    %rdx,%rax
   1613d:	0f 95 c0             	setne  %al
   16140:	0f b6 c0             	movzbl %al,%eax
   16143:	44 89 e6             	mov    %r12d,%esi
   16146:	89 c7                	mov    %eax,%edi
   16148:	e8 08 23 ff ff       	callq  8455 <safe_div_func_int16_t_s_s>
   1614d:	be 07 00 00 00       	mov    $0x7,%esi
   16152:	bf 00 00 00 00       	mov    $0x0,%edi
   16157:	e8 36 23 ff ff       	callq  8492 <safe_lshift_func_int16_t_s_s>
   1615c:	0f b6 05 5c 80 00 00 	movzbl 0x805c(%rip),%eax        # 1e1bf <g_271+0xf>
   16163:	0f b7 15 56 80 00 00 	movzwl 0x8056(%rip),%edx        # 1e1c0 <g_271+0x10>
   1616a:	81 e2 ff 7f 00 00    	and    $0x7fff,%edx
   16170:	48 c1 e2 08          	shl    $0x8,%rdx
   16174:	48 09 d0             	or     %rdx,%rax
   16177:	48 c1 e0 29          	shl    $0x29,%rax
   1617b:	48 c1 f8 29          	sar    $0x29,%rax
   1617f:	48 98                	cltq   
   16181:	48 89 de             	mov    %rbx,%rsi
   16184:	48 89 c7             	mov    %rax,%rdi
   16187:	e8 bf 2e ff ff       	callq  904b <safe_sub_func_uint64_t_u_u>
   1618c:	48 8b 95 20 dc ff ff 	mov    -0x23e0(%rbp),%rdx
   16193:	8b 12                	mov    (%rdx),%edx
   16195:	48 63 d2             	movslq %edx,%rdx
   16198:	48 39 d0             	cmp    %rdx,%rax
   1619b:	0f 93 c0             	setae  %al
   1619e:	0f b6 d0             	movzbl %al,%edx
   161a1:	8b 85 ac da ff ff    	mov    -0x2554(%rbp),%eax
   161a7:	39 c2                	cmp    %eax,%edx
   161a9:	0f 95 c0             	setne  %al
   161ac:	0f b6 d0             	movzbl %al,%edx
   161af:	48 8b 85 20 dc ff ff 	mov    -0x23e0(%rbp),%rax
   161b6:	8b 00                	mov    (%rax),%eax
   161b8:	39 c2                	cmp    %eax,%edx
   161ba:	0f 9e c0             	setle  %al
   161bd:	0f b6 d0             	movzbl %al,%edx
   161c0:	48 8b 85 20 dc ff ff 	mov    -0x23e0(%rbp),%rax
   161c7:	89 10                	mov    %edx,(%rax)
   161c9:	48 8b 85 20 dc ff ff 	mov    -0x23e0(%rbp),%rax
   161d0:	8b 00                	mov    (%rax),%eax
   161d2:	0f be c0             	movsbl %al,%eax
   161d5:	be fe ff ff ff       	mov    $0xfffffffe,%esi
   161da:	89 c7                	mov    %eax,%edi
   161dc:	e8 31 20 ff ff       	callq  8212 <safe_mul_func_int8_t_s_s>
   161e1:	48 8b 95 50 dc ff ff 	mov    -0x23b0(%rbp),%rdx
   161e8:	48 8b 12             	mov    (%rdx),%rdx
   161eb:	48 0f be c0          	movsbq %al,%rax
   161ef:	48 31 c2             	xor    %rax,%rdx
   161f2:	48 8b 85 50 dc ff ff 	mov    -0x23b0(%rbp),%rax
   161f9:	48 89 10             	mov    %rdx,(%rax)
   161fc:	48 8b 85 50 dc ff ff 	mov    -0x23b0(%rbp),%rax
   16203:	48 8b 10             	mov    (%rax),%rdx
   16206:	0f b6 05 bb 93 00 00 	movzbl 0x93bb(%rip),%eax        # 1f5c8 <g_436+0x8>
   1620d:	0f b6 c0             	movzbl %al,%eax
   16210:	48 39 c2             	cmp    %rax,%rdx
   16213:	0f 9f c0             	setg   %al
   16216:	0f b6 d0             	movzbl %al,%edx
   16219:	8b 85 a8 da ff ff    	mov    -0x2558(%rbp),%eax
   1621f:	39 c2                	cmp    %eax,%edx
   16221:	0f 95 c0             	setne  %al
   16224:	0f b6 d0             	movzbl %al,%edx
   16227:	8b 85 a8 da ff ff    	mov    -0x2558(%rbp),%eax
   1622d:	39 c2                	cmp    %eax,%edx
   1622f:	0f 96 c0             	setbe  %al
   16232:	0f b6 c0             	movzbl %al,%eax
   16235:	be 00 00 00 00       	mov    $0x0,%esi
   1623a:	89 c7                	mov    %eax,%edi
   1623c:	e8 d1 1f ff ff       	callq  8212 <safe_mul_func_int8_t_s_s>
   16241:	0f be d0             	movsbl %al,%edx
   16244:	48 83 bd 38 dc ff ff 	cmpq   $0x0,-0x23c8(%rbp)
   1624b:	00 
   1624c:	0f 95 c0             	setne  %al
   1624f:	0f b6 c0             	movzbl %al,%eax
   16252:	89 d6                	mov    %edx,%esi
   16254:	89 c7                	mov    %eax,%edi
   16256:	e8 b7 1f ff ff       	callq  8212 <safe_mul_func_int8_t_s_s>
   1625b:	0f be c0             	movsbl %al,%eax
   1625e:	be 64 89 ff ff       	mov    $0xffff8964,%esi
   16263:	89 c7                	mov    %eax,%edi
   16265:	e8 69 21 ff ff       	callq  83d3 <safe_sub_func_int16_t_s_s>
   1626a:	8b 85 cc da ff ff    	mov    -0x2534(%rbp),%eax
   16270:	83 f8 fc             	cmp    $0xfffffffc,%eax
   16273:	0f 9d c0             	setge  %al
   16276:	0f b6 d0             	movzbl %al,%edx
   16279:	48 8b 85 58 dc ff ff 	mov    -0x23a8(%rbp),%rax
   16280:	89 10                	mov    %edx,(%rax)
   16282:	8b 85 ac da ff ff    	mov    -0x2554(%rbp),%eax
   16288:	48 8b 5d c8          	mov    -0x38(%rbp),%rbx
   1628c:	64 48 33 1c 25 28 00 	xor    %fs:0x28,%rbx
   16293:	00 00 
   16295:	74 05                	je     1629c <func_60+0x677a>
   16297:	e8 d4 1d ff ff       	callq  8070 <__stack_chk_fail@plt>
   1629c:	48 81 c4 48 25 00 00 	add    $0x2548,%rsp
   162a3:	5b                   	pop    %rbx
   162a4:	41 5c                	pop    %r12
   162a6:	41 5d                	pop    %r13
   162a8:	41 5e                	pop    %r14
   162aa:	41 5f                	pop    %r15
   162ac:	5d                   	pop    %rbp
   162ad:	c3                   	retq   

00000000000162ae <func_84>:
   162ae:	f3 0f 1e fa          	endbr64 
   162b2:	55                   	push   %rbp
   162b3:	48 89 e5             	mov    %rsp,%rbp
   162b6:	41 54                	push   %r12
   162b8:	53                   	push   %rbx
   162b9:	48 83 ec 70          	sub    $0x70,%rsp
   162bd:	48 89 7d 88          	mov    %rdi,-0x78(%rbp)
   162c1:	89 f0                	mov    %esi,%eax
   162c3:	89 55 80             	mov    %edx,-0x80(%rbp)
   162c6:	88 45 84             	mov    %al,-0x7c(%rbp)
   162c9:	64 48 8b 04 25 28 00 	mov    %fs:0x28,%rax
   162d0:	00 00 
   162d2:	48 89 45 e8          	mov    %rax,-0x18(%rbp)
   162d6:	31 c0                	xor    %eax,%eax
   162d8:	48 c7 45 a0 00 00 00 	movq   $0x0,-0x60(%rbp)
   162df:	00 
   162e0:	48 8d 45 a0          	lea    -0x60(%rbp),%rax
   162e4:	48 89 45 a8          	mov    %rax,-0x58(%rbp)
   162e8:	48 8d 05 e9 7d 00 00 	lea    0x7de9(%rip),%rax        # 1e0d8 <g_105>
   162ef:	48 89 45 b0          	mov    %rax,-0x50(%rbp)
   162f3:	48 8d 05 7e c9 00 00 	lea    0xc97e(%rip),%rax        # 22c78 <g_123>
   162fa:	48 89 45 b8          	mov    %rax,-0x48(%rbp)
   162fe:	66 c7 45 96 8b 84    	movw   $0x848b,-0x6a(%rbp)
   16304:	48 8d 05 c5 7d 00 00 	lea    0x7dc5(%rip),%rax        # 1e0d0 <g_96>
   1630b:	48 89 45 c0          	mov    %rax,-0x40(%rbp)
   1630f:	c7 45 9c ff ff ff ff 	movl   $0xffffffff,-0x64(%rbp)
   16316:	48 8d 05 c7 7d 00 00 	lea    0x7dc7(%rip),%rax        # 1e0e4 <g_130>
   1631d:	48 89 45 c8          	mov    %rax,-0x38(%rbp)
   16321:	c7 45 98 00 00 00 00 	movl   $0x0,-0x68(%rbp)
   16328:	eb 15                	jmp    1633f <func_84+0x91>
   1632a:	8b 45 98             	mov    -0x68(%rbp),%eax
   1632d:	48 98                	cltq   
   1632f:	48 8d 15 aa 7d 00 00 	lea    0x7daa(%rip),%rdx        # 1e0e0 <g_125>
   16336:	48 89 54 c5 d0       	mov    %rdx,-0x30(%rbp,%rax,8)
   1633b:	83 45 98 01          	addl   $0x1,-0x68(%rbp)
   1633f:	83 7d 98 01          	cmpl   $0x1,-0x68(%rbp)
   16343:	7e e5                	jle    1632a <func_84+0x7c>
   16345:	48 8b 55 a0          	mov    -0x60(%rbp),%rdx
   16349:	48 8b 45 a8          	mov    -0x58(%rbp),%rax
   1634d:	48 89 10             	mov    %rdx,(%rax)
   16350:	48 8b 45 88          	mov    -0x78(%rbp),%rax
   16354:	48 8b 00             	mov    (%rax),%rax
   16357:	8b 10                	mov    (%rax),%edx
   16359:	48 8b 45 b0          	mov    -0x50(%rbp),%rax
   1635d:	89 10                	mov    %edx,(%rax)
   1635f:	48 8b 45 b0          	mov    -0x50(%rbp),%rax
   16363:	8b 00                	mov    (%rax),%eax
   16365:	85 c0                	test   %eax,%eax
   16367:	0f 85 a4 00 00 00    	jne    16411 <func_84+0x163>
   1636d:	8b 45 80             	mov    -0x80(%rbp),%eax
   16370:	0f b7 d8             	movzwl %ax,%ebx
   16373:	44 0f b6 65 84       	movzbl -0x7c(%rbp),%r12d
   16378:	0f b6 45 84          	movzbl -0x7c(%rbp),%eax
   1637c:	89 c6                	mov    %eax,%esi
   1637e:	bf 01 00 00 00       	mov    $0x1,%edi
   16383:	e8 b5 29 ff ff       	callq  8d3d <safe_mul_func_uint16_t_u_u>
   16388:	0f b7 c0             	movzwl %ax,%eax
   1638b:	be 08 00 00 00       	mov    $0x8,%esi
   16390:	89 c7                	mov    %eax,%edi
   16392:	e8 27 2a ff ff       	callq  8dbe <safe_lshift_func_uint16_t_u_s>
   16397:	48 8b 55 b8          	mov    -0x48(%rbp),%rdx
   1639b:	0f b7 12             	movzwl (%rdx),%edx
   1639e:	31 c2                	xor    %eax,%edx
   163a0:	48 8b 45 b8          	mov    -0x48(%rbp),%rax
   163a4:	66 89 10             	mov    %dx,(%rax)
   163a7:	48 8b 45 b8          	mov    -0x48(%rbp),%rax
   163ab:	0f b7 00             	movzwl (%rax),%eax
   163ae:	0f b7 c0             	movzwl %ax,%eax
   163b1:	be 0e 00 00 00       	mov    $0xe,%esi
   163b6:	89 c7                	mov    %eax,%edi
   163b8:	e8 01 2a ff ff       	callq  8dbe <safe_lshift_func_uint16_t_u_s>
   163bd:	0f b6 45 84          	movzbl -0x7c(%rbp),%eax
   163c1:	44 89 e6             	mov    %r12d,%esi
   163c4:	89 c7                	mov    %eax,%edi
   163c6:	e8 c8 27 ff ff       	callq  8b93 <safe_mul_func_uint8_t_u_u>
   163cb:	0f b6 d0             	movzbl %al,%edx
   163ce:	48 8b 45 b0          	mov    -0x50(%rbp),%rax
   163d2:	8b 00                	mov    (%rax),%eax
   163d4:	39 c2                	cmp    %eax,%edx
   163d6:	48 8b 05 2b b4 00 00 	mov    0xb42b(%rip),%rax        # 21808 <g_108+0x8>
   163dd:	48 8d 15 ec b3 00 00 	lea    0xb3ec(%rip),%rdx        # 217d0 <g_109+0x10>
   163e4:	48 39 d0             	cmp    %rdx,%rax
   163e7:	8b 05 db 7c 00 00    	mov    0x7cdb(%rip),%eax        # 1e0c8 <g_45>
   163ed:	83 f8 01             	cmp    $0x1,%eax
   163f0:	0f 95 c0             	setne  %al
   163f3:	0f b6 d0             	movzbl %al,%edx
   163f6:	48 8b 45 b0          	mov    -0x50(%rbp),%rax
   163fa:	89 10                	mov    %edx,(%rax)
   163fc:	48 8b 45 b0          	mov    -0x50(%rbp),%rax
   16400:	8b 00                	mov    (%rax),%eax
   16402:	0f b7 c0             	movzwl %ax,%eax
   16405:	89 de                	mov    %ebx,%esi
   16407:	89 c7                	mov    %eax,%edi
   16409:	e8 2f 29 ff ff       	callq  8d3d <safe_mul_func_uint16_t_u_u>
   1640e:	66 85 c0             	test   %ax,%ax
   16411:	48 8d 05 b8 7c 00 00 	lea    0x7cb8(%rip),%rax        # 1e0d0 <g_96>
   16418:	48 39 45 c0          	cmp    %rax,-0x40(%rbp)
   1641c:	0f 95 c0             	setne  %al
   1641f:	0f b6 c0             	movzbl %al,%eax
   16422:	89 45 9c             	mov    %eax,-0x64(%rbp)
   16425:	8b 05 9d 7c 00 00    	mov    0x7c9d(%rip),%eax        # 1e0c8 <g_45>
   1642b:	39 45 9c             	cmp    %eax,-0x64(%rbp)
   1642e:	0f 95 c0             	setne  %al
   16431:	0f b6 c0             	movzbl %al,%eax
   16434:	f7 d0                	not    %eax
   16436:	89 c2                	mov    %eax,%edx
   16438:	48 8b 45 c8          	mov    -0x38(%rbp),%rax
   1643c:	89 10                	mov    %edx,(%rax)
   1643e:	66 c7 45 96 e5 ff    	movw   $0xffe5,-0x6a(%rbp)
   16444:	66 83 7d 96 32       	cmpw   $0x32,-0x6a(%rbp)
   16449:	74 09                	je     16454 <func_84+0x1a6>
   1644b:	48 8b 05 7e 7c 00 00 	mov    0x7c7e(%rip),%rax        # 1e0d0 <g_96>
   16452:	eb 04                	jmp    16458 <func_84+0x1aa>
   16454:	0f b6 45 84          	movzbl -0x7c(%rbp),%eax
   16458:	48 8b 4d e8          	mov    -0x18(%rbp),%rcx
   1645c:	64 48 33 0c 25 28 00 	xor    %fs:0x28,%rcx
   16463:	00 00 
   16465:	74 05                	je     1646c <func_84+0x1be>
   16467:	e8 04 1c ff ff       	callq  8070 <__stack_chk_fail@plt>
   1646c:	48 83 c4 70          	add    $0x70,%rsp
   16470:	5b                   	pop    %rbx
   16471:	41 5c                	pop    %r12
   16473:	5d                   	pop    %rbp
   16474:	c3                   	retq   

0000000000016475 <main>:
   16475:	f3 0f 1e fa          	endbr64 
   16479:	55                   	push   %rbp
   1647a:	48 89 e5             	mov    %rsp,%rbp
   1647d:	48 83 ec 20          	sub    $0x20,%rsp
   16481:	89 7d ec             	mov    %edi,-0x14(%rbp)
   16484:	48 89 75 e0          	mov    %rsi,-0x20(%rbp)
   16488:	c7 45 fc 00 00 00 00 	movl   $0x0,-0x4(%rbp)
   1648f:	83 7d ec 02          	cmpl   $0x2,-0x14(%rbp)
   16493:	74 25                	je     164ba <main+0x45>
   16495:	48 8b 45 e0          	mov    -0x20(%rbp),%rax
   16499:	48 83 c0 08          	add    $0x8,%rax
   1649d:	48 8b 00             	mov    (%rax),%rax
   164a0:	48 8d 35 59 3f 00 00 	lea    0x3f59(%rip),%rsi        # 1a400 <g_386+0x13ac>
   164a7:	48 89 c7             	mov    %rax,%rdi
   164aa:	e8 e1 1b ff ff       	callq  8090 <strcmp@plt>
   164af:	85 c0                	test   %eax,%eax
   164b1:	74 07                	je     164ba <main+0x45>
   164b3:	c7 45 fc 01 00 00 00 	movl   $0x1,-0x4(%rbp)
   164ba:	e8 ca 1c ff ff       	callq  8189 <platform_main_begin>
   164bf:	e8 d4 30 ff ff       	callq  9598 <crc32_gentab>
   164c4:	e8 ec 32 ff ff       	callq  97b5 <func_1>
   164c9:	c7 45 f0 00 00 00 00 	movl   $0x0,-0x10(%rbp)
   164d0:	eb 4b                	jmp    1651d <main+0xa8>
   164d2:	8b 45 f0             	mov    -0x10(%rbp),%eax
   164d5:	48 98                	cltq   
   164d7:	48 8d 14 85 00 00 00 	lea    0x0(,%rax,4),%rdx
   164de:	00 
   164df:	48 8d 05 5a 7b 00 00 	lea    0x7b5a(%rip),%rax        # 1e040 <g_14>
   164e6:	8b 04 02             	mov    (%rdx,%rax,1),%eax
   164e9:	48 98                	cltq   
   164eb:	8b 55 fc             	mov    -0x4(%rbp),%edx
   164ee:	48 8d 35 0d 3f 00 00 	lea    0x3f0d(%rip),%rsi        # 1a402 <g_386+0x13ae>
   164f5:	48 89 c7             	mov    %rax,%rdi
   164f8:	e8 f6 31 ff ff       	callq  96f3 <transparent_crc>
   164fd:	83 7d fc 00          	cmpl   $0x0,-0x4(%rbp)
   16501:	74 16                	je     16519 <main+0xa4>
   16503:	8b 45 f0             	mov    -0x10(%rbp),%eax
   16506:	89 c6                	mov    %eax,%esi
   16508:	48 8d 3d fb 3e 00 00 	lea    0x3efb(%rip),%rdi        # 1a40a <g_386+0x13b6>
   1650f:	b8 00 00 00 00       	mov    $0x0,%eax
   16514:	e8 67 1b ff ff       	callq  8080 <printf@plt>
   16519:	83 45 f0 01          	addl   $0x1,-0x10(%rbp)
   1651d:	83 7d f0 08          	cmpl   $0x8,-0x10(%rbp)
   16521:	7e af                	jle    164d2 <main+0x5d>
   16523:	0f b7 05 3a 7b 00 00 	movzwl 0x7b3a(%rip),%eax        # 1e064 <g_19>
   1652a:	0f b7 c0             	movzwl %ax,%eax
   1652d:	8b 55 fc             	mov    -0x4(%rbp),%edx
   16530:	48 8d 35 e1 3e 00 00 	lea    0x3ee1(%rip),%rsi        # 1a418 <g_386+0x13c4>
   16537:	48 89 c7             	mov    %rax,%rdi
   1653a:	e8 b4 31 ff ff       	callq  96f3 <transparent_crc>
   1653f:	c7 45 f0 00 00 00 00 	movl   $0x0,-0x10(%rbp)
   16546:	eb 74                	jmp    165bc <main+0x147>
   16548:	c7 45 f4 00 00 00 00 	movl   $0x0,-0xc(%rbp)
   1654f:	eb 61                	jmp    165b2 <main+0x13d>
   16551:	8b 45 f4             	mov    -0xc(%rbp),%eax
   16554:	48 63 c8             	movslq %eax,%rcx
   16557:	8b 45 f0             	mov    -0x10(%rbp),%eax
   1655a:	48 63 d0             	movslq %eax,%rdx
   1655d:	48 89 d0             	mov    %rdx,%rax
   16560:	48 01 c0             	add    %rax,%rax
   16563:	48 01 d0             	add    %rdx,%rax
   16566:	48 01 c8             	add    %rcx,%rax
   16569:	48 8d 14 85 00 00 00 	lea    0x0(,%rax,4),%rdx
   16570:	00 
   16571:	48 8d 05 08 7b 00 00 	lea    0x7b08(%rip),%rax        # 1e080 <g_23>
   16578:	8b 04 02             	mov    (%rdx,%rax,1),%eax
   1657b:	48 98                	cltq   
   1657d:	8b 55 fc             	mov    -0x4(%rbp),%edx
   16580:	48 8d 35 96 3e 00 00 	lea    0x3e96(%rip),%rsi        # 1a41d <g_386+0x13c9>
   16587:	48 89 c7             	mov    %rax,%rdi
   1658a:	e8 64 31 ff ff       	callq  96f3 <transparent_crc>
   1658f:	83 7d fc 00          	cmpl   $0x0,-0x4(%rbp)
   16593:	74 19                	je     165ae <main+0x139>
   16595:	8b 55 f4             	mov    -0xc(%rbp),%edx
   16598:	8b 45 f0             	mov    -0x10(%rbp),%eax
   1659b:	89 c6                	mov    %eax,%esi
   1659d:	48 8d 3d 84 3e 00 00 	lea    0x3e84(%rip),%rdi        # 1a428 <g_386+0x13d4>
   165a4:	b8 00 00 00 00       	mov    $0x0,%eax
   165a9:	e8 d2 1a ff ff       	callq  8080 <printf@plt>
   165ae:	83 45 f4 01          	addl   $0x1,-0xc(%rbp)
   165b2:	83 7d f4 02          	cmpl   $0x2,-0xc(%rbp)
   165b6:	7e 99                	jle    16551 <main+0xdc>
   165b8:	83 45 f0 01          	addl   $0x1,-0x10(%rbp)
   165bc:	83 7d f0 05          	cmpl   $0x5,-0x10(%rbp)
   165c0:	7e 86                	jle    16548 <main+0xd3>
   165c2:	0f b7 05 9f c6 00 00 	movzwl 0xc69f(%rip),%eax        # 22c68 <g_27>
   165c9:	0f b7 c0             	movzwl %ax,%eax
   165cc:	8b 55 fc             	mov    -0x4(%rbp),%edx
   165cf:	48 8d 35 64 3e 00 00 	lea    0x3e64(%rip),%rsi        # 1a43a <g_386+0x13e6>
   165d6:	48 89 c7             	mov    %rax,%rdi
   165d9:	e8 15 31 ff ff       	callq  96f3 <transparent_crc>
   165de:	8b 05 e4 7a 00 00    	mov    0x7ae4(%rip),%eax        # 1e0c8 <g_45>
   165e4:	48 98                	cltq   
   165e6:	8b 55 fc             	mov    -0x4(%rbp),%edx
   165e9:	48 8d 35 4f 3e 00 00 	lea    0x3e4f(%rip),%rsi        # 1a43f <g_386+0x13eb>
   165f0:	48 89 c7             	mov    %rax,%rdi
   165f3:	e8 fb 30 ff ff       	callq  96f3 <transparent_crc>
   165f8:	48 8b 05 d1 7a 00 00 	mov    0x7ad1(%rip),%rax        # 1e0d0 <g_96>
   165ff:	8b 55 fc             	mov    -0x4(%rbp),%edx
   16602:	48 8d 35 3b 3e 00 00 	lea    0x3e3b(%rip),%rsi        # 1a444 <g_386+0x13f0>
   16609:	48 89 c7             	mov    %rax,%rdi
   1660c:	e8 e2 30 ff ff       	callq  96f3 <transparent_crc>
   16611:	8b 05 c1 7a 00 00    	mov    0x7ac1(%rip),%eax        # 1e0d8 <g_105>
   16617:	48 98                	cltq   
   16619:	8b 55 fc             	mov    -0x4(%rbp),%edx
   1661c:	48 8d 35 26 3e 00 00 	lea    0x3e26(%rip),%rsi        # 1a449 <g_386+0x13f5>
   16623:	48 89 c7             	mov    %rax,%rdi
   16626:	e8 c8 30 ff ff       	callq  96f3 <transparent_crc>
   1662b:	0f b7 05 aa 7a 00 00 	movzwl 0x7aaa(%rip),%eax        # 1e0dc <g_111>
   16632:	0f b7 c0             	movzwl %ax,%eax
   16635:	8b 55 fc             	mov    -0x4(%rbp),%edx
   16638:	48 8d 35 10 3e 00 00 	lea    0x3e10(%rip),%rsi        # 1a44f <g_386+0x13fb>
   1663f:	48 89 c7             	mov    %rax,%rdi
   16642:	e8 ac 30 ff ff       	callq  96f3 <transparent_crc>
   16647:	0f b7 05 90 7a 00 00 	movzwl 0x7a90(%rip),%eax        # 1e0de <g_113>
   1664e:	0f b7 c0             	movzwl %ax,%eax
   16651:	8b 55 fc             	mov    -0x4(%rbp),%edx
   16654:	48 8d 35 fa 3d 00 00 	lea    0x3dfa(%rip),%rsi        # 1a455 <g_386+0x1401>
   1665b:	48 89 c7             	mov    %rax,%rdi
   1665e:	e8 90 30 ff ff       	callq  96f3 <transparent_crc>
   16663:	0f b7 05 0e c6 00 00 	movzwl 0xc60e(%rip),%eax        # 22c78 <g_123>
   1666a:	0f b7 c0             	movzwl %ax,%eax
   1666d:	8b 55 fc             	mov    -0x4(%rbp),%edx
   16670:	48 8d 35 e4 3d 00 00 	lea    0x3de4(%rip),%rsi        # 1a45b <g_386+0x1407>
   16677:	48 89 c7             	mov    %rax,%rdi
   1667a:	e8 74 30 ff ff       	callq  96f3 <transparent_crc>
   1667f:	0f b7 05 5a 7a 00 00 	movzwl 0x7a5a(%rip),%eax        # 1e0e0 <g_125>
   16686:	0f b7 c0             	movzwl %ax,%eax
   16689:	8b 55 fc             	mov    -0x4(%rbp),%edx
   1668c:	48 8d 35 ce 3d 00 00 	lea    0x3dce(%rip),%rsi        # 1a461 <g_386+0x140d>
   16693:	48 89 c7             	mov    %rax,%rdi
   16696:	e8 58 30 ff ff       	callq  96f3 <transparent_crc>
   1669b:	8b 05 43 7a 00 00    	mov    0x7a43(%rip),%eax        # 1e0e4 <g_130>
   166a1:	48 98                	cltq   
   166a3:	8b 55 fc             	mov    -0x4(%rbp),%edx
   166a6:	48 8d 35 ba 3d 00 00 	lea    0x3dba(%rip),%rsi        # 1a467 <g_386+0x1413>
   166ad:	48 89 c7             	mov    %rax,%rdi
   166b0:	e8 3e 30 ff ff       	callq  96f3 <transparent_crc>
   166b5:	48 8b 05 34 7a 00 00 	mov    0x7a34(%rip),%rax        # 1e0f0 <g_140>
   166bc:	48 89 c1             	mov    %rax,%rcx
   166bf:	8b 45 fc             	mov    -0x4(%rbp),%eax
   166c2:	89 c2                	mov    %eax,%edx
   166c4:	48 8d 35 a2 3d 00 00 	lea    0x3da2(%rip),%rsi        # 1a46d <g_386+0x1419>
   166cb:	48 89 cf             	mov    %rcx,%rdi
   166ce:	e8 20 30 ff ff       	callq  96f3 <transparent_crc>
   166d3:	0f b6 05 1e 7a 00 00 	movzbl 0x7a1e(%rip),%eax        # 1e0f8 <g_140+0x8>
   166da:	0f b6 c0             	movzbl %al,%eax
   166dd:	8b 55 fc             	mov    -0x4(%rbp),%edx
   166e0:	48 8d 35 8f 3d 00 00 	lea    0x3d8f(%rip),%rsi        # 1a476 <g_386+0x1422>
   166e7:	48 89 c7             	mov    %rax,%rdi
   166ea:	e8 04 30 ff ff       	callq  96f3 <transparent_crc>
   166ef:	0f b7 05 03 7a 00 00 	movzwl 0x7a03(%rip),%eax        # 1e0f9 <g_140+0x9>
   166f6:	0f b7 c0             	movzwl %ax,%eax
   166f9:	8b 55 fc             	mov    -0x4(%rbp),%edx
   166fc:	48 8d 35 7c 3d 00 00 	lea    0x3d7c(%rip),%rsi        # 1a47f <g_386+0x142b>
   16703:	48 89 c7             	mov    %rax,%rdi
   16706:	e8 e8 2f ff ff       	callq  96f3 <transparent_crc>
   1670b:	0f b7 05 e9 79 00 00 	movzwl 0x79e9(%rip),%eax        # 1e0fb <g_140+0xb>
   16712:	0f b7 c0             	movzwl %ax,%eax
   16715:	8b 55 fc             	mov    -0x4(%rbp),%edx
   16718:	48 8d 35 69 3d 00 00 	lea    0x3d69(%rip),%rsi        # 1a488 <g_386+0x1434>
   1671f:	48 89 c7             	mov    %rax,%rdi
   16722:	e8 cc 2f ff ff       	callq  96f3 <transparent_crc>
   16727:	0f b7 05 cf 79 00 00 	movzwl 0x79cf(%rip),%eax        # 1e0fd <g_140+0xd>
   1672e:	0f b7 c0             	movzwl %ax,%eax
   16731:	8b 55 fc             	mov    -0x4(%rbp),%edx
   16734:	48 8d 35 56 3d 00 00 	lea    0x3d56(%rip),%rsi        # 1a491 <g_386+0x143d>
   1673b:	48 89 c7             	mov    %rax,%rdi
   1673e:	e8 b0 2f ff ff       	callq  96f3 <transparent_crc>
   16743:	0f b6 05 b5 79 00 00 	movzbl 0x79b5(%rip),%eax        # 1e0ff <g_140+0xf>
   1674a:	0f b7 15 af 79 00 00 	movzwl 0x79af(%rip),%edx        # 1e100 <g_140+0x10>
   16751:	81 e2 ff 7f 00 00    	and    $0x7fff,%edx
   16757:	48 c1 e2 08          	shl    $0x8,%rdx
   1675b:	48 09 d0             	or     %rdx,%rax
   1675e:	48 c1 e0 29          	shl    $0x29,%rax
   16762:	48 c1 f8 29          	sar    $0x29,%rax
   16766:	48 98                	cltq   
   16768:	8b 55 fc             	mov    -0x4(%rbp),%edx
   1676b:	48 8d 35 28 3d 00 00 	lea    0x3d28(%rip),%rsi        # 1a49a <g_386+0x1446>
   16772:	48 89 c7             	mov    %rax,%rdi
   16775:	e8 79 2f ff ff       	callq  96f3 <transparent_crc>
   1677a:	8b 05 82 79 00 00    	mov    0x7982(%rip),%eax        # 1e102 <g_140+0x12>
   16780:	89 c1                	mov    %eax,%ecx
   16782:	8b 45 fc             	mov    -0x4(%rbp),%eax
   16785:	89 c2                	mov    %eax,%edx
   16787:	48 8d 35 15 3d 00 00 	lea    0x3d15(%rip),%rsi        # 1a4a3 <g_386+0x144f>
   1678e:	48 89 cf             	mov    %rcx,%rdi
   16791:	e8 5d 2f ff ff       	callq  96f3 <transparent_crc>
   16796:	0f b7 05 69 79 00 00 	movzwl 0x7969(%rip),%eax        # 1e106 <g_140+0x16>
   1679d:	48 0f bf c0          	movswq %ax,%rax
   167a1:	8b 55 fc             	mov    -0x4(%rbp),%edx
   167a4:	48 8d 35 01 3d 00 00 	lea    0x3d01(%rip),%rsi        # 1a4ac <g_386+0x1458>
   167ab:	48 89 c7             	mov    %rax,%rdi
   167ae:	e8 40 2f ff ff       	callq  96f3 <transparent_crc>
   167b3:	8b 05 4f 79 00 00    	mov    0x794f(%rip),%eax        # 1e108 <g_207>
   167b9:	48 98                	cltq   
   167bb:	8b 55 fc             	mov    -0x4(%rbp),%edx
   167be:	48 8d 35 f0 3c 00 00 	lea    0x3cf0(%rip),%rsi        # 1a4b5 <g_386+0x1461>
   167c5:	48 89 c7             	mov    %rax,%rdi
   167c8:	e8 26 2f ff ff       	callq  96f3 <transparent_crc>
   167cd:	0f b7 05 38 79 00 00 	movzwl 0x7938(%rip),%eax        # 1e10c <g_211>
   167d4:	48 0f bf c0          	movswq %ax,%rax
   167d8:	8b 55 fc             	mov    -0x4(%rbp),%edx
   167db:	48 8d 35 d9 3c 00 00 	lea    0x3cd9(%rip),%rsi        # 1a4bb <g_386+0x1467>
   167e2:	48 89 c7             	mov    %rax,%rdi
   167e5:	e8 09 2f ff ff       	callq  96f3 <transparent_crc>
   167ea:	0f b7 05 1d 79 00 00 	movzwl 0x791d(%rip),%eax        # 1e10e <g_224>
   167f1:	48 0f bf c0          	movswq %ax,%rax
   167f5:	8b 55 fc             	mov    -0x4(%rbp),%edx
   167f8:	48 8d 35 c2 3c 00 00 	lea    0x3cc2(%rip),%rsi        # 1a4c1 <g_386+0x146d>
   167ff:	48 89 c7             	mov    %rax,%rdi
   16802:	e8 ec 2e ff ff       	callq  96f3 <transparent_crc>
   16807:	0f b7 05 02 79 00 00 	movzwl 0x7902(%rip),%eax        # 1e110 <g_226>
   1680e:	48 0f bf c0          	movswq %ax,%rax
   16812:	8b 55 fc             	mov    -0x4(%rbp),%edx
   16815:	48 8d 35 ab 3c 00 00 	lea    0x3cab(%rip),%rsi        # 1a4c7 <g_386+0x1473>
   1681c:	48 89 c7             	mov    %rax,%rdi
   1681f:	e8 cf 2e ff ff       	callq  96f3 <transparent_crc>
   16824:	8b 05 ea 78 00 00    	mov    0x78ea(%rip),%eax        # 1e114 <g_230>
   1682a:	48 98                	cltq   
   1682c:	8b 55 fc             	mov    -0x4(%rbp),%edx
   1682f:	48 8d 35 97 3c 00 00 	lea    0x3c97(%rip),%rsi        # 1a4cd <g_386+0x1479>
   16836:	48 89 c7             	mov    %rax,%rdi
   16839:	e8 b5 2e ff ff       	callq  96f3 <transparent_crc>
   1683e:	c7 45 f0 00 00 00 00 	movl   $0x0,-0x10(%rbp)
   16845:	eb 77                	jmp    168be <main+0x449>
   16847:	c7 45 f4 00 00 00 00 	movl   $0x0,-0xc(%rbp)
   1684e:	eb 64                	jmp    168b4 <main+0x43f>
   16850:	8b 45 f4             	mov    -0xc(%rbp),%eax
   16853:	48 63 c8             	movslq %eax,%rcx
   16856:	8b 45 f0             	mov    -0x10(%rbp),%eax
   16859:	48 63 d0             	movslq %eax,%rdx
   1685c:	48 89 d0             	mov    %rdx,%rax
   1685f:	48 01 c0             	add    %rax,%rax
   16862:	48 01 d0             	add    %rdx,%rax
   16865:	48 01 c0             	add    %rax,%rax
   16868:	48 01 c8             	add    %rcx,%rax
   1686b:	48 8d 14 85 00 00 00 	lea    0x0(,%rax,4),%rdx
   16872:	00 
   16873:	48 8d 05 a6 78 00 00 	lea    0x78a6(%rip),%rax        # 1e120 <g_231>
   1687a:	8b 04 02             	mov    (%rdx,%rax,1),%eax
   1687d:	48 98                	cltq   
   1687f:	8b 55 fc             	mov    -0x4(%rbp),%edx
   16882:	48 8d 35 4a 3c 00 00 	lea    0x3c4a(%rip),%rsi        # 1a4d3 <g_386+0x147f>
   16889:	48 89 c7             	mov    %rax,%rdi
   1688c:	e8 62 2e ff ff       	callq  96f3 <transparent_crc>
   16891:	83 7d fc 00          	cmpl   $0x0,-0x4(%rbp)
   16895:	74 19                	je     168b0 <main+0x43b>
   16897:	8b 55 f4             	mov    -0xc(%rbp),%edx
   1689a:	8b 45 f0             	mov    -0x10(%rbp),%eax
   1689d:	89 c6                	mov    %eax,%esi
   1689f:	48 8d 3d 82 3b 00 00 	lea    0x3b82(%rip),%rdi        # 1a428 <g_386+0x13d4>
   168a6:	b8 00 00 00 00       	mov    $0x0,%eax
   168ab:	e8 d0 17 ff ff       	callq  8080 <printf@plt>
   168b0:	83 45 f4 01          	addl   $0x1,-0xc(%rbp)
   168b4:	83 7d f4 05          	cmpl   $0x5,-0xc(%rbp)
   168b8:	7e 96                	jle    16850 <main+0x3db>
   168ba:	83 45 f0 01          	addl   $0x1,-0x10(%rbp)
   168be:	83 7d f0 05          	cmpl   $0x5,-0x10(%rbp)
   168c2:	7e 83                	jle    16847 <main+0x3d2>
   168c4:	48 8b 05 e5 78 00 00 	mov    0x78e5(%rip),%rax        # 1e1b0 <g_271>
   168cb:	48 89 c1             	mov    %rax,%rcx
   168ce:	8b 45 fc             	mov    -0x4(%rbp),%eax
   168d1:	89 c2                	mov    %eax,%edx
   168d3:	48 8d 35 05 3c 00 00 	lea    0x3c05(%rip),%rsi        # 1a4df <g_386+0x148b>
   168da:	48 89 cf             	mov    %rcx,%rdi
   168dd:	e8 11 2e ff ff       	callq  96f3 <transparent_crc>
   168e2:	0f b6 05 cf 78 00 00 	movzbl 0x78cf(%rip),%eax        # 1e1b8 <g_271+0x8>
   168e9:	0f b6 c0             	movzbl %al,%eax
   168ec:	8b 55 fc             	mov    -0x4(%rbp),%edx
   168ef:	48 8d 35 f2 3b 00 00 	lea    0x3bf2(%rip),%rsi        # 1a4e8 <g_386+0x1494>
   168f6:	48 89 c7             	mov    %rax,%rdi
   168f9:	e8 f5 2d ff ff       	callq  96f3 <transparent_crc>
   168fe:	0f b7 05 b4 78 00 00 	movzwl 0x78b4(%rip),%eax        # 1e1b9 <g_271+0x9>
   16905:	0f b7 c0             	movzwl %ax,%eax
   16908:	8b 55 fc             	mov    -0x4(%rbp),%edx
   1690b:	48 8d 35 df 3b 00 00 	lea    0x3bdf(%rip),%rsi        # 1a4f1 <g_386+0x149d>
   16912:	48 89 c7             	mov    %rax,%rdi
   16915:	e8 d9 2d ff ff       	callq  96f3 <transparent_crc>
   1691a:	0f b7 05 9a 78 00 00 	movzwl 0x789a(%rip),%eax        # 1e1bb <g_271+0xb>
   16921:	0f b7 c0             	movzwl %ax,%eax
   16924:	8b 55 fc             	mov    -0x4(%rbp),%edx
   16927:	48 8d 35 cc 3b 00 00 	lea    0x3bcc(%rip),%rsi        # 1a4fa <g_386+0x14a6>
   1692e:	48 89 c7             	mov    %rax,%rdi
   16931:	e8 bd 2d ff ff       	callq  96f3 <transparent_crc>
   16936:	0f b7 05 80 78 00 00 	movzwl 0x7880(%rip),%eax        # 1e1bd <g_271+0xd>
   1693d:	0f b7 c0             	movzwl %ax,%eax
   16940:	8b 55 fc             	mov    -0x4(%rbp),%edx
   16943:	48 8d 35 b9 3b 00 00 	lea    0x3bb9(%rip),%rsi        # 1a503 <g_386+0x14af>
   1694a:	48 89 c7             	mov    %rax,%rdi
   1694d:	e8 a1 2d ff ff       	callq  96f3 <transparent_crc>
   16952:	0f b6 05 66 78 00 00 	movzbl 0x7866(%rip),%eax        # 1e1bf <g_271+0xf>
   16959:	0f b7 15 60 78 00 00 	movzwl 0x7860(%rip),%edx        # 1e1c0 <g_271+0x10>
   16960:	81 e2 ff 7f 00 00    	and    $0x7fff,%edx
   16966:	48 c1 e2 08          	shl    $0x8,%rdx
   1696a:	48 09 d0             	or     %rdx,%rax
   1696d:	48 c1 e0 29          	shl    $0x29,%rax
   16971:	48 c1 f8 29          	sar    $0x29,%rax
   16975:	48 98                	cltq   
   16977:	8b 55 fc             	mov    -0x4(%rbp),%edx
   1697a:	48 8d 35 8b 3b 00 00 	lea    0x3b8b(%rip),%rsi        # 1a50c <g_386+0x14b8>
   16981:	48 89 c7             	mov    %rax,%rdi
   16984:	e8 6a 2d ff ff       	callq  96f3 <transparent_crc>
   16989:	8b 05 33 78 00 00    	mov    0x7833(%rip),%eax        # 1e1c2 <g_271+0x12>
   1698f:	89 c1                	mov    %eax,%ecx
   16991:	8b 45 fc             	mov    -0x4(%rbp),%eax
   16994:	89 c2                	mov    %eax,%edx
   16996:	48 8d 35 78 3b 00 00 	lea    0x3b78(%rip),%rsi        # 1a515 <g_386+0x14c1>
   1699d:	48 89 cf             	mov    %rcx,%rdi
   169a0:	e8 4e 2d ff ff       	callq  96f3 <transparent_crc>
   169a5:	0f b7 05 1a 78 00 00 	movzwl 0x781a(%rip),%eax        # 1e1c6 <g_271+0x16>
   169ac:	48 0f bf c0          	movswq %ax,%rax
   169b0:	8b 55 fc             	mov    -0x4(%rbp),%edx
   169b3:	48 8d 35 64 3b 00 00 	lea    0x3b64(%rip),%rsi        # 1a51e <g_386+0x14ca>
   169ba:	48 89 c7             	mov    %rax,%rdi
   169bd:	e8 31 2d ff ff       	callq  96f3 <transparent_crc>
   169c2:	0f b7 05 ff 77 00 00 	movzwl 0x77ff(%rip),%eax        # 1e1c8 <g_331>
   169c9:	48 0f bf c0          	movswq %ax,%rax
   169cd:	8b 55 fc             	mov    -0x4(%rbp),%edx
   169d0:	48 8d 35 50 3b 00 00 	lea    0x3b50(%rip),%rsi        # 1a527 <g_386+0x14d3>
   169d7:	48 89 c7             	mov    %rax,%rdi
   169da:	e8 14 2d ff ff       	callq  96f3 <transparent_crc>
   169df:	8b 05 e7 77 00 00    	mov    0x77e7(%rip),%eax        # 1e1cc <g_374>
   169e5:	89 c1                	mov    %eax,%ecx
   169e7:	8b 45 fc             	mov    -0x4(%rbp),%eax
   169ea:	89 c2                	mov    %eax,%edx
   169ec:	48 8d 35 3a 3b 00 00 	lea    0x3b3a(%rip),%rsi        # 1a52d <g_386+0x14d9>
   169f3:	48 89 cf             	mov    %rcx,%rdi
   169f6:	e8 f8 2c ff ff       	callq  96f3 <transparent_crc>
   169fb:	0f b7 05 ce 77 00 00 	movzwl 0x77ce(%rip),%eax        # 1e1d0 <g_375>
   16a02:	0f b7 c0             	movzwl %ax,%eax
   16a05:	8b 55 fc             	mov    -0x4(%rbp),%edx
   16a08:	48 8d 35 24 3b 00 00 	lea    0x3b24(%rip),%rsi        # 1a533 <g_386+0x14df>
   16a0f:	48 89 c7             	mov    %rax,%rdi
   16a12:	e8 dc 2c ff ff       	callq  96f3 <transparent_crc>
   16a17:	b8 06 00 00 00       	mov    $0x6,%eax
   16a1c:	48 98                	cltq   
   16a1e:	8b 55 fc             	mov    -0x4(%rbp),%edx
   16a21:	48 8d 35 11 3b 00 00 	lea    0x3b11(%rip),%rsi        # 1a539 <g_386+0x14e5>
   16a28:	48 89 c7             	mov    %rax,%rdi
   16a2b:	e8 c3 2c ff ff       	callq  96f3 <transparent_crc>
   16a30:	0f b6 05 9b 77 00 00 	movzbl 0x779b(%rip),%eax        # 1e1d2 <g_396>
   16a37:	0f b6 c0             	movzbl %al,%eax
   16a3a:	8b 55 fc             	mov    -0x4(%rbp),%edx
   16a3d:	48 8d 35 fb 3a 00 00 	lea    0x3afb(%rip),%rsi        # 1a53f <g_386+0x14eb>
   16a44:	48 89 c7             	mov    %rax,%rdi
   16a47:	e8 a7 2c ff ff       	callq  96f3 <transparent_crc>
   16a4c:	48 8b 05 8d 77 00 00 	mov    0x778d(%rip),%rax        # 1e1e0 <g_407>
   16a53:	48 89 c1             	mov    %rax,%rcx
   16a56:	8b 45 fc             	mov    -0x4(%rbp),%eax
   16a59:	89 c2                	mov    %eax,%edx
   16a5b:	48 8d 35 e3 3a 00 00 	lea    0x3ae3(%rip),%rsi        # 1a545 <g_386+0x14f1>
   16a62:	48 89 cf             	mov    %rcx,%rdi
   16a65:	e8 89 2c ff ff       	callq  96f3 <transparent_crc>
   16a6a:	0f b6 05 77 77 00 00 	movzbl 0x7777(%rip),%eax        # 1e1e8 <g_407+0x8>
   16a71:	0f b6 c0             	movzbl %al,%eax
   16a74:	8b 55 fc             	mov    -0x4(%rbp),%edx
   16a77:	48 8d 35 d0 3a 00 00 	lea    0x3ad0(%rip),%rsi        # 1a54e <g_386+0x14fa>
   16a7e:	48 89 c7             	mov    %rax,%rdi
   16a81:	e8 6d 2c ff ff       	callq  96f3 <transparent_crc>
   16a86:	0f b7 05 5c 77 00 00 	movzwl 0x775c(%rip),%eax        # 1e1e9 <g_407+0x9>
   16a8d:	0f b7 c0             	movzwl %ax,%eax
   16a90:	8b 55 fc             	mov    -0x4(%rbp),%edx
   16a93:	48 8d 35 bd 3a 00 00 	lea    0x3abd(%rip),%rsi        # 1a557 <g_386+0x1503>
   16a9a:	48 89 c7             	mov    %rax,%rdi
   16a9d:	e8 51 2c ff ff       	callq  96f3 <transparent_crc>
   16aa2:	0f b7 05 42 77 00 00 	movzwl 0x7742(%rip),%eax        # 1e1eb <g_407+0xb>
   16aa9:	0f b7 c0             	movzwl %ax,%eax
   16aac:	8b 55 fc             	mov    -0x4(%rbp),%edx
   16aaf:	48 8d 35 aa 3a 00 00 	lea    0x3aaa(%rip),%rsi        # 1a560 <g_386+0x150c>
   16ab6:	48 89 c7             	mov    %rax,%rdi
   16ab9:	e8 35 2c ff ff       	callq  96f3 <transparent_crc>
   16abe:	0f b7 05 28 77 00 00 	movzwl 0x7728(%rip),%eax        # 1e1ed <g_407+0xd>
   16ac5:	0f b7 c0             	movzwl %ax,%eax
   16ac8:	8b 55 fc             	mov    -0x4(%rbp),%edx
   16acb:	48 8d 35 97 3a 00 00 	lea    0x3a97(%rip),%rsi        # 1a569 <g_386+0x1515>
   16ad2:	48 89 c7             	mov    %rax,%rdi
   16ad5:	e8 19 2c ff ff       	callq  96f3 <transparent_crc>
   16ada:	0f b6 05 0e 77 00 00 	movzbl 0x770e(%rip),%eax        # 1e1ef <g_407+0xf>
   16ae1:	0f b7 15 08 77 00 00 	movzwl 0x7708(%rip),%edx        # 1e1f0 <g_407+0x10>
   16ae8:	81 e2 ff 7f 00 00    	and    $0x7fff,%edx
   16aee:	48 c1 e2 08          	shl    $0x8,%rdx
   16af2:	48 09 d0             	or     %rdx,%rax
   16af5:	48 c1 e0 29          	shl    $0x29,%rax
   16af9:	48 c1 f8 29          	sar    $0x29,%rax
   16afd:	48 98                	cltq   
   16aff:	8b 55 fc             	mov    -0x4(%rbp),%edx
   16b02:	48 8d 35 69 3a 00 00 	lea    0x3a69(%rip),%rsi        # 1a572 <g_386+0x151e>
   16b09:	48 89 c7             	mov    %rax,%rdi
   16b0c:	e8 e2 2b ff ff       	callq  96f3 <transparent_crc>
   16b11:	8b 05 db 76 00 00    	mov    0x76db(%rip),%eax        # 1e1f2 <g_407+0x12>
   16b17:	89 c1                	mov    %eax,%ecx
   16b19:	8b 45 fc             	mov    -0x4(%rbp),%eax
   16b1c:	89 c2                	mov    %eax,%edx
   16b1e:	48 8d 35 56 3a 00 00 	lea    0x3a56(%rip),%rsi        # 1a57b <g_386+0x1527>
   16b25:	48 89 cf             	mov    %rcx,%rdi
   16b28:	e8 c6 2b ff ff       	callq  96f3 <transparent_crc>
   16b2d:	0f b7 05 c2 76 00 00 	movzwl 0x76c2(%rip),%eax        # 1e1f6 <g_407+0x16>
   16b34:	48 0f bf c0          	movswq %ax,%rax
   16b38:	8b 55 fc             	mov    -0x4(%rbp),%edx
   16b3b:	48 8d 35 42 3a 00 00 	lea    0x3a42(%rip),%rsi        # 1a584 <g_386+0x1530>
   16b42:	48 89 c7             	mov    %rax,%rdi
   16b45:	e8 a9 2b ff ff       	callq  96f3 <transparent_crc>
   16b4a:	48 8b 05 af 76 00 00 	mov    0x76af(%rip),%rax        # 1e200 <g_427>
   16b51:	48 89 c1             	mov    %rax,%rcx
   16b54:	8b 45 fc             	mov    -0x4(%rbp),%eax
   16b57:	89 c2                	mov    %eax,%edx
   16b59:	48 8d 35 2d 3a 00 00 	lea    0x3a2d(%rip),%rsi        # 1a58d <g_386+0x1539>
   16b60:	48 89 cf             	mov    %rcx,%rdi
   16b63:	e8 8b 2b ff ff       	callq  96f3 <transparent_crc>
   16b68:	0f b6 05 99 76 00 00 	movzbl 0x7699(%rip),%eax        # 1e208 <g_427+0x8>
   16b6f:	0f b6 c0             	movzbl %al,%eax
   16b72:	8b 55 fc             	mov    -0x4(%rbp),%edx
   16b75:	48 8d 35 1a 3a 00 00 	lea    0x3a1a(%rip),%rsi        # 1a596 <g_386+0x1542>
   16b7c:	48 89 c7             	mov    %rax,%rdi
   16b7f:	e8 6f 2b ff ff       	callq  96f3 <transparent_crc>
   16b84:	0f b7 05 7e 76 00 00 	movzwl 0x767e(%rip),%eax        # 1e209 <g_427+0x9>
   16b8b:	0f b7 c0             	movzwl %ax,%eax
   16b8e:	8b 55 fc             	mov    -0x4(%rbp),%edx
   16b91:	48 8d 35 07 3a 00 00 	lea    0x3a07(%rip),%rsi        # 1a59f <g_386+0x154b>
   16b98:	48 89 c7             	mov    %rax,%rdi
   16b9b:	e8 53 2b ff ff       	callq  96f3 <transparent_crc>
   16ba0:	0f b7 05 64 76 00 00 	movzwl 0x7664(%rip),%eax        # 1e20b <g_427+0xb>
   16ba7:	0f b7 c0             	movzwl %ax,%eax
   16baa:	8b 55 fc             	mov    -0x4(%rbp),%edx
   16bad:	48 8d 35 f4 39 00 00 	lea    0x39f4(%rip),%rsi        # 1a5a8 <g_386+0x1554>
   16bb4:	48 89 c7             	mov    %rax,%rdi
   16bb7:	e8 37 2b ff ff       	callq  96f3 <transparent_crc>
   16bbc:	0f b7 05 4a 76 00 00 	movzwl 0x764a(%rip),%eax        # 1e20d <g_427+0xd>
   16bc3:	0f b7 c0             	movzwl %ax,%eax
   16bc6:	8b 55 fc             	mov    -0x4(%rbp),%edx
   16bc9:	48 8d 35 e1 39 00 00 	lea    0x39e1(%rip),%rsi        # 1a5b1 <g_386+0x155d>
   16bd0:	48 89 c7             	mov    %rax,%rdi
   16bd3:	e8 1b 2b ff ff       	callq  96f3 <transparent_crc>
   16bd8:	0f b6 05 30 76 00 00 	movzbl 0x7630(%rip),%eax        # 1e20f <g_427+0xf>
   16bdf:	0f b7 15 2a 76 00 00 	movzwl 0x762a(%rip),%edx        # 1e210 <g_427+0x10>
   16be6:	81 e2 ff 7f 00 00    	and    $0x7fff,%edx
   16bec:	48 c1 e2 08          	shl    $0x8,%rdx
   16bf0:	48 09 d0             	or     %rdx,%rax
   16bf3:	48 c1 e0 29          	shl    $0x29,%rax
   16bf7:	48 c1 f8 29          	sar    $0x29,%rax
   16bfb:	48 98                	cltq   
   16bfd:	8b 55 fc             	mov    -0x4(%rbp),%edx
   16c00:	48 8d 35 b3 39 00 00 	lea    0x39b3(%rip),%rsi        # 1a5ba <g_386+0x1566>
   16c07:	48 89 c7             	mov    %rax,%rdi
   16c0a:	e8 e4 2a ff ff       	callq  96f3 <transparent_crc>
   16c0f:	8b 05 fd 75 00 00    	mov    0x75fd(%rip),%eax        # 1e212 <g_427+0x12>
   16c15:	89 c1                	mov    %eax,%ecx
   16c17:	8b 45 fc             	mov    -0x4(%rbp),%eax
   16c1a:	89 c2                	mov    %eax,%edx
   16c1c:	48 8d 35 a0 39 00 00 	lea    0x39a0(%rip),%rsi        # 1a5c3 <g_386+0x156f>
   16c23:	48 89 cf             	mov    %rcx,%rdi
   16c26:	e8 c8 2a ff ff       	callq  96f3 <transparent_crc>
   16c2b:	0f b7 05 e4 75 00 00 	movzwl 0x75e4(%rip),%eax        # 1e216 <g_427+0x16>
   16c32:	48 0f bf c0          	movswq %ax,%rax
   16c36:	8b 55 fc             	mov    -0x4(%rbp),%edx
   16c39:	48 8d 35 8c 39 00 00 	lea    0x398c(%rip),%rsi        # 1a5cc <g_386+0x1578>
   16c40:	48 89 c7             	mov    %rax,%rdi
   16c43:	e8 ab 2a ff ff       	callq  96f3 <transparent_crc>
   16c48:	48 8b 05 d1 75 00 00 	mov    0x75d1(%rip),%rax        # 1e220 <g_428>
   16c4f:	48 89 c1             	mov    %rax,%rcx
   16c52:	8b 45 fc             	mov    -0x4(%rbp),%eax
   16c55:	89 c2                	mov    %eax,%edx
   16c57:	48 8d 35 77 39 00 00 	lea    0x3977(%rip),%rsi        # 1a5d5 <g_386+0x1581>
   16c5e:	48 89 cf             	mov    %rcx,%rdi
   16c61:	e8 8d 2a ff ff       	callq  96f3 <transparent_crc>
   16c66:	0f b6 05 bb 75 00 00 	movzbl 0x75bb(%rip),%eax        # 1e228 <g_428+0x8>
   16c6d:	0f b6 c0             	movzbl %al,%eax
   16c70:	8b 55 fc             	mov    -0x4(%rbp),%edx
   16c73:	48 8d 35 64 39 00 00 	lea    0x3964(%rip),%rsi        # 1a5de <g_386+0x158a>
   16c7a:	48 89 c7             	mov    %rax,%rdi
   16c7d:	e8 71 2a ff ff       	callq  96f3 <transparent_crc>
   16c82:	0f b7 05 a0 75 00 00 	movzwl 0x75a0(%rip),%eax        # 1e229 <g_428+0x9>
   16c89:	0f b7 c0             	movzwl %ax,%eax
   16c8c:	8b 55 fc             	mov    -0x4(%rbp),%edx
   16c8f:	48 8d 35 51 39 00 00 	lea    0x3951(%rip),%rsi        # 1a5e7 <g_386+0x1593>
   16c96:	48 89 c7             	mov    %rax,%rdi
   16c99:	e8 55 2a ff ff       	callq  96f3 <transparent_crc>
   16c9e:	0f b7 05 86 75 00 00 	movzwl 0x7586(%rip),%eax        # 1e22b <g_428+0xb>
   16ca5:	0f b7 c0             	movzwl %ax,%eax
   16ca8:	8b 55 fc             	mov    -0x4(%rbp),%edx
   16cab:	48 8d 35 3e 39 00 00 	lea    0x393e(%rip),%rsi        # 1a5f0 <g_386+0x159c>
   16cb2:	48 89 c7             	mov    %rax,%rdi
   16cb5:	e8 39 2a ff ff       	callq  96f3 <transparent_crc>
   16cba:	0f b7 05 6c 75 00 00 	movzwl 0x756c(%rip),%eax        # 1e22d <g_428+0xd>
   16cc1:	0f b7 c0             	movzwl %ax,%eax
   16cc4:	8b 55 fc             	mov    -0x4(%rbp),%edx
   16cc7:	48 8d 35 2b 39 00 00 	lea    0x392b(%rip),%rsi        # 1a5f9 <g_386+0x15a5>
   16cce:	48 89 c7             	mov    %rax,%rdi
   16cd1:	e8 1d 2a ff ff       	callq  96f3 <transparent_crc>
   16cd6:	0f b6 05 52 75 00 00 	movzbl 0x7552(%rip),%eax        # 1e22f <g_428+0xf>
   16cdd:	0f b7 15 4c 75 00 00 	movzwl 0x754c(%rip),%edx        # 1e230 <g_428+0x10>
   16ce4:	81 e2 ff 7f 00 00    	and    $0x7fff,%edx
   16cea:	48 c1 e2 08          	shl    $0x8,%rdx
   16cee:	48 09 d0             	or     %rdx,%rax
   16cf1:	48 c1 e0 29          	shl    $0x29,%rax
   16cf5:	48 c1 f8 29          	sar    $0x29,%rax
   16cf9:	48 98                	cltq   
   16cfb:	8b 55 fc             	mov    -0x4(%rbp),%edx
   16cfe:	48 8d 35 fd 38 00 00 	lea    0x38fd(%rip),%rsi        # 1a602 <g_386+0x15ae>
   16d05:	48 89 c7             	mov    %rax,%rdi
   16d08:	e8 e6 29 ff ff       	callq  96f3 <transparent_crc>
   16d0d:	8b 05 1f 75 00 00    	mov    0x751f(%rip),%eax        # 1e232 <g_428+0x12>
   16d13:	89 c1                	mov    %eax,%ecx
   16d15:	8b 45 fc             	mov    -0x4(%rbp),%eax
   16d18:	89 c2                	mov    %eax,%edx
   16d1a:	48 8d 35 ea 38 00 00 	lea    0x38ea(%rip),%rsi        # 1a60b <g_386+0x15b7>
   16d21:	48 89 cf             	mov    %rcx,%rdi
   16d24:	e8 ca 29 ff ff       	callq  96f3 <transparent_crc>
   16d29:	0f b7 05 06 75 00 00 	movzwl 0x7506(%rip),%eax        # 1e236 <g_428+0x16>
   16d30:	48 0f bf c0          	movswq %ax,%rax
   16d34:	8b 55 fc             	mov    -0x4(%rbp),%edx
   16d37:	48 8d 35 d6 38 00 00 	lea    0x38d6(%rip),%rsi        # 1a614 <g_386+0x15c0>
   16d3e:	48 89 c7             	mov    %rax,%rdi
   16d41:	e8 ad 29 ff ff       	callq  96f3 <transparent_crc>
   16d46:	c7 45 f0 00 00 00 00 	movl   $0x0,-0x10(%rbp)
   16d4d:	e9 f0 01 00 00       	jmpq   16f42 <main+0xacd>
   16d52:	8b 45 f0             	mov    -0x10(%rbp),%eax
   16d55:	48 63 d0             	movslq %eax,%rdx
   16d58:	48 89 d0             	mov    %rdx,%rax
   16d5b:	48 01 c0             	add    %rax,%rax
   16d5e:	48 01 d0             	add    %rdx,%rax
   16d61:	48 c1 e0 03          	shl    $0x3,%rax
   16d65:	48 89 c2             	mov    %rax,%rdx
   16d68:	48 8d 05 d1 74 00 00 	lea    0x74d1(%rip),%rax        # 1e240 <g_429>
   16d6f:	48 8b 04 02          	mov    (%rdx,%rax,1),%rax
   16d73:	48 89 c1             	mov    %rax,%rcx
   16d76:	8b 45 fc             	mov    -0x4(%rbp),%eax
   16d79:	89 c2                	mov    %eax,%edx
   16d7b:	48 8d 35 9b 38 00 00 	lea    0x389b(%rip),%rsi        # 1a61d <g_386+0x15c9>
   16d82:	48 89 cf             	mov    %rcx,%rdi
   16d85:	e8 69 29 ff ff       	callq  96f3 <transparent_crc>
   16d8a:	8b 45 f0             	mov    -0x10(%rbp),%eax
   16d8d:	48 63 d0             	movslq %eax,%rdx
   16d90:	48 89 d0             	mov    %rdx,%rax
   16d93:	48 01 c0             	add    %rax,%rax
   16d96:	48 01 d0             	add    %rdx,%rax
   16d99:	48 c1 e0 03          	shl    $0x3,%rax
   16d9d:	48 89 c2             	mov    %rax,%rdx
   16da0:	48 8d 05 a1 74 00 00 	lea    0x74a1(%rip),%rax        # 1e248 <g_429+0x8>
   16da7:	0f b6 04 02          	movzbl (%rdx,%rax,1),%eax
   16dab:	0f b6 c0             	movzbl %al,%eax
   16dae:	8b 55 fc             	mov    -0x4(%rbp),%edx
   16db1:	48 8d 35 71 38 00 00 	lea    0x3871(%rip),%rsi        # 1a629 <g_386+0x15d5>
   16db8:	48 89 c7             	mov    %rax,%rdi
   16dbb:	e8 33 29 ff ff       	callq  96f3 <transparent_crc>
   16dc0:	8b 45 f0             	mov    -0x10(%rbp),%eax
   16dc3:	48 63 d0             	movslq %eax,%rdx
   16dc6:	48 89 d0             	mov    %rdx,%rax
   16dc9:	48 01 c0             	add    %rax,%rax
   16dcc:	48 01 d0             	add    %rdx,%rax
   16dcf:	48 c1 e0 03          	shl    $0x3,%rax
   16dd3:	48 89 c2             	mov    %rax,%rdx
   16dd6:	48 8d 05 63 74 00 00 	lea    0x7463(%rip),%rax        # 1e240 <g_429>
   16ddd:	0f b7 44 02 09       	movzwl 0x9(%rdx,%rax,1),%eax
   16de2:	0f b7 c0             	movzwl %ax,%eax
   16de5:	8b 55 fc             	mov    -0x4(%rbp),%edx
   16de8:	48 8d 35 46 38 00 00 	lea    0x3846(%rip),%rsi        # 1a635 <g_386+0x15e1>
   16def:	48 89 c7             	mov    %rax,%rdi
   16df2:	e8 fc 28 ff ff       	callq  96f3 <transparent_crc>
   16df7:	8b 45 f0             	mov    -0x10(%rbp),%eax
   16dfa:	48 63 d0             	movslq %eax,%rdx
   16dfd:	48 89 d0             	mov    %rdx,%rax
   16e00:	48 01 c0             	add    %rax,%rax
   16e03:	48 01 d0             	add    %rdx,%rax
   16e06:	48 c1 e0 03          	shl    $0x3,%rax
   16e0a:	48 89 c2             	mov    %rax,%rdx
   16e0d:	48 8d 05 2c 74 00 00 	lea    0x742c(%rip),%rax        # 1e240 <g_429>
   16e14:	0f b7 44 02 0b       	movzwl 0xb(%rdx,%rax,1),%eax
   16e19:	0f b7 c0             	movzwl %ax,%eax
   16e1c:	8b 55 fc             	mov    -0x4(%rbp),%edx
   16e1f:	48 8d 35 1b 38 00 00 	lea    0x381b(%rip),%rsi        # 1a641 <g_386+0x15ed>
   16e26:	48 89 c7             	mov    %rax,%rdi
   16e29:	e8 c5 28 ff ff       	callq  96f3 <transparent_crc>
   16e2e:	8b 45 f0             	mov    -0x10(%rbp),%eax
   16e31:	48 63 d0             	movslq %eax,%rdx
   16e34:	48 89 d0             	mov    %rdx,%rax
   16e37:	48 01 c0             	add    %rax,%rax
   16e3a:	48 01 d0             	add    %rdx,%rax
   16e3d:	48 c1 e0 03          	shl    $0x3,%rax
   16e41:	48 89 c2             	mov    %rax,%rdx
   16e44:	48 8d 05 f5 73 00 00 	lea    0x73f5(%rip),%rax        # 1e240 <g_429>
   16e4b:	0f b7 44 02 0d       	movzwl 0xd(%rdx,%rax,1),%eax
   16e50:	0f b7 c0             	movzwl %ax,%eax
   16e53:	8b 55 fc             	mov    -0x4(%rbp),%edx
   16e56:	48 8d 35 f0 37 00 00 	lea    0x37f0(%rip),%rsi        # 1a64d <g_386+0x15f9>
   16e5d:	48 89 c7             	mov    %rax,%rdi
   16e60:	e8 8e 28 ff ff       	callq  96f3 <transparent_crc>
   16e65:	8b 45 f0             	mov    -0x10(%rbp),%eax
   16e68:	48 63 d0             	movslq %eax,%rdx
   16e6b:	48 89 d0             	mov    %rdx,%rax
   16e6e:	48 01 c0             	add    %rax,%rax
   16e71:	48 01 d0             	add    %rdx,%rax
   16e74:	48 c1 e0 03          	shl    $0x3,%rax
   16e78:	48 89 c2             	mov    %rax,%rdx
   16e7b:	48 8d 05 be 73 00 00 	lea    0x73be(%rip),%rax        # 1e240 <g_429>
   16e82:	0f b6 4c 02 0f       	movzbl 0xf(%rdx,%rax,1),%ecx
   16e87:	0f b7 44 02 10       	movzwl 0x10(%rdx,%rax,1),%eax
   16e8c:	25 ff 7f 00 00       	and    $0x7fff,%eax
   16e91:	48 c1 e0 08          	shl    $0x8,%rax
   16e95:	48 09 c8             	or     %rcx,%rax
   16e98:	48 c1 e0 29          	shl    $0x29,%rax
   16e9c:	48 c1 f8 29          	sar    $0x29,%rax
   16ea0:	48 98                	cltq   
   16ea2:	8b 55 fc             	mov    -0x4(%rbp),%edx
   16ea5:	48 8d 35 ad 37 00 00 	lea    0x37ad(%rip),%rsi        # 1a659 <g_386+0x1605>
   16eac:	48 89 c7             	mov    %rax,%rdi
   16eaf:	e8 3f 28 ff ff       	callq  96f3 <transparent_crc>
   16eb4:	8b 45 f0             	mov    -0x10(%rbp),%eax
   16eb7:	48 63 d0             	movslq %eax,%rdx
   16eba:	48 89 d0             	mov    %rdx,%rax
   16ebd:	48 01 c0             	add    %rax,%rax
   16ec0:	48 01 d0             	add    %rdx,%rax
   16ec3:	48 c1 e0 03          	shl    $0x3,%rax
   16ec7:	48 89 c2             	mov    %rax,%rdx
   16eca:	48 8d 05 7f 73 00 00 	lea    0x737f(%rip),%rax        # 1e250 <g_429+0x10>
   16ed1:	8b 44 02 02          	mov    0x2(%rdx,%rax,1),%eax
   16ed5:	89 c1                	mov    %eax,%ecx
   16ed7:	8b 45 fc             	mov    -0x4(%rbp),%eax
   16eda:	89 c2                	mov    %eax,%edx
   16edc:	48 8d 35 82 37 00 00 	lea    0x3782(%rip),%rsi        # 1a665 <g_386+0x1611>
   16ee3:	48 89 cf             	mov    %rcx,%rdi
   16ee6:	e8 08 28 ff ff       	callq  96f3 <transparent_crc>
   16eeb:	8b 45 f0             	mov    -0x10(%rbp),%eax
   16eee:	48 63 d0             	movslq %eax,%rdx
   16ef1:	48 89 d0             	mov    %rdx,%rax
   16ef4:	48 01 c0             	add    %rax,%rax
   16ef7:	48 01 d0             	add    %rdx,%rax
   16efa:	48 c1 e0 03          	shl    $0x3,%rax
   16efe:	48 89 c2             	mov    %rax,%rdx
   16f01:	48 8d 05 4e 73 00 00 	lea    0x734e(%rip),%rax        # 1e256 <g_429+0x16>
   16f08:	0f b7 04 02          	movzwl (%rdx,%rax,1),%eax
   16f0c:	48 0f bf c0          	movswq %ax,%rax
   16f10:	8b 55 fc             	mov    -0x4(%rbp),%edx
   16f13:	48 8d 35 57 37 00 00 	lea    0x3757(%rip),%rsi        # 1a671 <g_386+0x161d>
   16f1a:	48 89 c7             	mov    %rax,%rdi
   16f1d:	e8 d1 27 ff ff       	callq  96f3 <transparent_crc>
   16f22:	83 7d fc 00          	cmpl   $0x0,-0x4(%rbp)
   16f26:	74 16                	je     16f3e <main+0xac9>
   16f28:	8b 45 f0             	mov    -0x10(%rbp),%eax
   16f2b:	89 c6                	mov    %eax,%esi
   16f2d:	48 8d 3d d6 34 00 00 	lea    0x34d6(%rip),%rdi        # 1a40a <g_386+0x13b6>
   16f34:	b8 00 00 00 00       	mov    $0x0,%eax
   16f39:	e8 42 11 ff ff       	callq  8080 <printf@plt>
   16f3e:	83 45 f0 01          	addl   $0x1,-0x10(%rbp)
   16f42:	83 7d f0 00          	cmpl   $0x0,-0x10(%rbp)
   16f46:	0f 8e 06 fe ff ff    	jle    16d52 <main+0x8dd>
   16f4c:	48 8b 05 0d 73 00 00 	mov    0x730d(%rip),%rax        # 1e260 <g_430>
   16f53:	48 89 c1             	mov    %rax,%rcx
   16f56:	8b 45 fc             	mov    -0x4(%rbp),%eax
   16f59:	89 c2                	mov    %eax,%edx
   16f5b:	48 8d 35 1b 37 00 00 	lea    0x371b(%rip),%rsi        # 1a67d <g_386+0x1629>
   16f62:	48 89 cf             	mov    %rcx,%rdi
   16f65:	e8 89 27 ff ff       	callq  96f3 <transparent_crc>
   16f6a:	0f b6 05 f7 72 00 00 	movzbl 0x72f7(%rip),%eax        # 1e268 <g_430+0x8>
   16f71:	0f b6 c0             	movzbl %al,%eax
   16f74:	8b 55 fc             	mov    -0x4(%rbp),%edx
   16f77:	48 8d 35 08 37 00 00 	lea    0x3708(%rip),%rsi        # 1a686 <g_386+0x1632>
   16f7e:	48 89 c7             	mov    %rax,%rdi
   16f81:	e8 6d 27 ff ff       	callq  96f3 <transparent_crc>
   16f86:	0f b7 05 dc 72 00 00 	movzwl 0x72dc(%rip),%eax        # 1e269 <g_430+0x9>
   16f8d:	0f b7 c0             	movzwl %ax,%eax
   16f90:	8b 55 fc             	mov    -0x4(%rbp),%edx
   16f93:	48 8d 35 f5 36 00 00 	lea    0x36f5(%rip),%rsi        # 1a68f <g_386+0x163b>
   16f9a:	48 89 c7             	mov    %rax,%rdi
   16f9d:	e8 51 27 ff ff       	callq  96f3 <transparent_crc>
   16fa2:	0f b7 05 c2 72 00 00 	movzwl 0x72c2(%rip),%eax        # 1e26b <g_430+0xb>
   16fa9:	0f b7 c0             	movzwl %ax,%eax
   16fac:	8b 55 fc             	mov    -0x4(%rbp),%edx
   16faf:	48 8d 35 e2 36 00 00 	lea    0x36e2(%rip),%rsi        # 1a698 <g_386+0x1644>
   16fb6:	48 89 c7             	mov    %rax,%rdi
   16fb9:	e8 35 27 ff ff       	callq  96f3 <transparent_crc>
   16fbe:	0f b7 05 a8 72 00 00 	movzwl 0x72a8(%rip),%eax        # 1e26d <g_430+0xd>
   16fc5:	0f b7 c0             	movzwl %ax,%eax
   16fc8:	8b 55 fc             	mov    -0x4(%rbp),%edx
   16fcb:	48 8d 35 cf 36 00 00 	lea    0x36cf(%rip),%rsi        # 1a6a1 <g_386+0x164d>
   16fd2:	48 89 c7             	mov    %rax,%rdi
   16fd5:	e8 19 27 ff ff       	callq  96f3 <transparent_crc>
   16fda:	0f b6 05 8e 72 00 00 	movzbl 0x728e(%rip),%eax        # 1e26f <g_430+0xf>
   16fe1:	0f b7 15 88 72 00 00 	movzwl 0x7288(%rip),%edx        # 1e270 <g_430+0x10>
   16fe8:	81 e2 ff 7f 00 00    	and    $0x7fff,%edx
   16fee:	48 c1 e2 08          	shl    $0x8,%rdx
   16ff2:	48 09 d0             	or     %rdx,%rax
   16ff5:	48 c1 e0 29          	shl    $0x29,%rax
   16ff9:	48 c1 f8 29          	sar    $0x29,%rax
   16ffd:	48 98                	cltq   
   16fff:	8b 55 fc             	mov    -0x4(%rbp),%edx
   17002:	48 8d 35 a1 36 00 00 	lea    0x36a1(%rip),%rsi        # 1a6aa <g_386+0x1656>
   17009:	48 89 c7             	mov    %rax,%rdi
   1700c:	e8 e2 26 ff ff       	callq  96f3 <transparent_crc>
   17011:	8b 05 5b 72 00 00    	mov    0x725b(%rip),%eax        # 1e272 <g_430+0x12>
   17017:	89 c1                	mov    %eax,%ecx
   17019:	8b 45 fc             	mov    -0x4(%rbp),%eax
   1701c:	89 c2                	mov    %eax,%edx
   1701e:	48 8d 35 8e 36 00 00 	lea    0x368e(%rip),%rsi        # 1a6b3 <g_386+0x165f>
   17025:	48 89 cf             	mov    %rcx,%rdi
   17028:	e8 c6 26 ff ff       	callq  96f3 <transparent_crc>
   1702d:	0f b7 05 42 72 00 00 	movzwl 0x7242(%rip),%eax        # 1e276 <g_430+0x16>
   17034:	48 0f bf c0          	movswq %ax,%rax
   17038:	8b 55 fc             	mov    -0x4(%rbp),%edx
   1703b:	48 8d 35 7a 36 00 00 	lea    0x367a(%rip),%rsi        # 1a6bc <g_386+0x1668>
   17042:	48 89 c7             	mov    %rax,%rdi
   17045:	e8 a9 26 ff ff       	callq  96f3 <transparent_crc>
   1704a:	c7 45 f0 00 00 00 00 	movl   $0x0,-0x10(%rbp)
   17051:	e9 ad 03 00 00       	jmpq   17403 <main+0xf8e>
   17056:	c7 45 f4 00 00 00 00 	movl   $0x0,-0xc(%rbp)
   1705d:	e9 93 03 00 00       	jmpq   173f5 <main+0xf80>
   17062:	c7 45 f8 00 00 00 00 	movl   $0x0,-0x8(%rbp)
   17069:	e9 79 03 00 00       	jmpq   173e7 <main+0xf72>
   1706e:	8b 45 f8             	mov    -0x8(%rbp),%eax
   17071:	48 98                	cltq   
   17073:	8b 55 f4             	mov    -0xc(%rbp),%edx
   17076:	48 63 f2             	movslq %edx,%rsi
   17079:	8b 55 f0             	mov    -0x10(%rbp),%edx
   1707c:	48 63 ca             	movslq %edx,%rcx
   1707f:	48 89 c2             	mov    %rax,%rdx
   17082:	48 01 d2             	add    %rdx,%rdx
   17085:	48 01 c2             	add    %rax,%rdx
   17088:	48 8d 04 d5 00 00 00 	lea    0x0(,%rdx,8),%rax
   1708f:	00 
   17090:	48 89 c2             	mov    %rax,%rdx
   17093:	48 89 f0             	mov    %rsi,%rax
   17096:	48 01 c0             	add    %rax,%rax
   17099:	48 01 f0             	add    %rsi,%rax
   1709c:	48 c1 e0 05          	shl    $0x5,%rax
   170a0:	48 01 c2             	add    %rax,%rdx
   170a3:	48 89 c8             	mov    %rcx,%rax
   170a6:	48 c1 e0 04          	shl    $0x4,%rax
   170aa:	48 29 c8             	sub    %rcx,%rax
   170ad:	48 c1 e0 05          	shl    $0x5,%rax
   170b1:	48 01 c2             	add    %rax,%rdx
   170b4:	48 8d 05 c5 71 00 00 	lea    0x71c5(%rip),%rax        # 1e280 <g_431>
   170bb:	48 01 d0             	add    %rdx,%rax
   170be:	48 8b 00             	mov    (%rax),%rax
   170c1:	48 89 c1             	mov    %rax,%rcx
   170c4:	8b 45 fc             	mov    -0x4(%rbp),%eax
   170c7:	89 c2                	mov    %eax,%edx
   170c9:	48 8d 35 f5 35 00 00 	lea    0x35f5(%rip),%rsi        # 1a6c5 <g_386+0x1671>
   170d0:	48 89 cf             	mov    %rcx,%rdi
   170d3:	e8 1b 26 ff ff       	callq  96f3 <transparent_crc>
   170d8:	8b 45 f8             	mov    -0x8(%rbp),%eax
   170db:	48 98                	cltq   
   170dd:	8b 55 f4             	mov    -0xc(%rbp),%edx
   170e0:	48 63 f2             	movslq %edx,%rsi
   170e3:	8b 55 f0             	mov    -0x10(%rbp),%edx
   170e6:	48 63 ca             	movslq %edx,%rcx
   170e9:	48 89 c2             	mov    %rax,%rdx
   170ec:	48 01 d2             	add    %rdx,%rdx
   170ef:	48 01 c2             	add    %rax,%rdx
   170f2:	48 8d 04 d5 00 00 00 	lea    0x0(,%rdx,8),%rax
   170f9:	00 
   170fa:	48 89 c2             	mov    %rax,%rdx
   170fd:	48 89 f0             	mov    %rsi,%rax
   17100:	48 01 c0             	add    %rax,%rax
   17103:	48 01 f0             	add    %rsi,%rax
   17106:	48 c1 e0 05          	shl    $0x5,%rax
   1710a:	48 01 c2             	add    %rax,%rdx
   1710d:	48 89 c8             	mov    %rcx,%rax
   17110:	48 c1 e0 04          	shl    $0x4,%rax
   17114:	48 29 c8             	sub    %rcx,%rax
   17117:	48 c1 e0 05          	shl    $0x5,%rax
   1711b:	48 01 c2             	add    %rax,%rdx
   1711e:	48 8d 05 63 71 00 00 	lea    0x7163(%rip),%rax        # 1e288 <g_431+0x8>
   17125:	48 01 d0             	add    %rdx,%rax
   17128:	0f b6 00             	movzbl (%rax),%eax
   1712b:	0f b6 c0             	movzbl %al,%eax
   1712e:	8b 55 fc             	mov    -0x4(%rbp),%edx
   17131:	48 8d 35 9f 35 00 00 	lea    0x359f(%rip),%rsi        # 1a6d7 <g_386+0x1683>
   17138:	48 89 c7             	mov    %rax,%rdi
   1713b:	e8 b3 25 ff ff       	callq  96f3 <transparent_crc>
   17140:	8b 45 f8             	mov    -0x8(%rbp),%eax
   17143:	48 98                	cltq   
   17145:	8b 55 f4             	mov    -0xc(%rbp),%edx
   17148:	48 63 f2             	movslq %edx,%rsi
   1714b:	8b 55 f0             	mov    -0x10(%rbp),%edx
   1714e:	48 63 ca             	movslq %edx,%rcx
   17151:	48 89 c2             	mov    %rax,%rdx
   17154:	48 01 d2             	add    %rdx,%rdx
   17157:	48 01 c2             	add    %rax,%rdx
   1715a:	48 8d 04 d5 00 00 00 	lea    0x0(,%rdx,8),%rax
   17161:	00 
   17162:	48 89 c2             	mov    %rax,%rdx
   17165:	48 89 f0             	mov    %rsi,%rax
   17168:	48 01 c0             	add    %rax,%rax
   1716b:	48 01 f0             	add    %rsi,%rax
   1716e:	48 c1 e0 05          	shl    $0x5,%rax
   17172:	48 01 c2             	add    %rax,%rdx
   17175:	48 89 c8             	mov    %rcx,%rax
   17178:	48 c1 e0 04          	shl    $0x4,%rax
   1717c:	48 29 c8             	sub    %rcx,%rax
   1717f:	48 c1 e0 05          	shl    $0x5,%rax
   17183:	48 01 c2             	add    %rax,%rdx
   17186:	48 8d 05 f3 70 00 00 	lea    0x70f3(%rip),%rax        # 1e280 <g_431>
   1718d:	48 01 d0             	add    %rdx,%rax
   17190:	0f b7 40 09          	movzwl 0x9(%rax),%eax
   17194:	0f b7 c0             	movzwl %ax,%eax
   17197:	8b 55 fc             	mov    -0x4(%rbp),%edx
   1719a:	48 8d 35 48 35 00 00 	lea    0x3548(%rip),%rsi        # 1a6e9 <g_386+0x1695>
   171a1:	48 89 c7             	mov    %rax,%rdi
   171a4:	e8 4a 25 ff ff       	callq  96f3 <transparent_crc>
   171a9:	8b 45 f8             	mov    -0x8(%rbp),%eax
   171ac:	48 98                	cltq   
   171ae:	8b 55 f4             	mov    -0xc(%rbp),%edx
   171b1:	48 63 f2             	movslq %edx,%rsi
   171b4:	8b 55 f0             	mov    -0x10(%rbp),%edx
   171b7:	48 63 ca             	movslq %edx,%rcx
   171ba:	48 89 c2             	mov    %rax,%rdx
   171bd:	48 01 d2             	add    %rdx,%rdx
   171c0:	48 01 c2             	add    %rax,%rdx
   171c3:	48 8d 04 d5 00 00 00 	lea    0x0(,%rdx,8),%rax
   171ca:	00 
   171cb:	48 89 c2             	mov    %rax,%rdx
   171ce:	48 89 f0             	mov    %rsi,%rax
   171d1:	48 01 c0             	add    %rax,%rax
   171d4:	48 01 f0             	add    %rsi,%rax
   171d7:	48 c1 e0 05          	shl    $0x5,%rax
   171db:	48 01 c2             	add    %rax,%rdx
   171de:	48 89 c8             	mov    %rcx,%rax
   171e1:	48 c1 e0 04          	shl    $0x4,%rax
   171e5:	48 29 c8             	sub    %rcx,%rax
   171e8:	48 c1 e0 05          	shl    $0x5,%rax
   171ec:	48 01 c2             	add    %rax,%rdx
   171ef:	48 8d 05 8a 70 00 00 	lea    0x708a(%rip),%rax        # 1e280 <g_431>
   171f6:	48 01 d0             	add    %rdx,%rax
   171f9:	0f b7 40 0b          	movzwl 0xb(%rax),%eax
   171fd:	0f b7 c0             	movzwl %ax,%eax
   17200:	8b 55 fc             	mov    -0x4(%rbp),%edx
   17203:	48 8d 35 f1 34 00 00 	lea    0x34f1(%rip),%rsi        # 1a6fb <g_386+0x16a7>
   1720a:	48 89 c7             	mov    %rax,%rdi
   1720d:	e8 e1 24 ff ff       	callq  96f3 <transparent_crc>
   17212:	8b 45 f8             	mov    -0x8(%rbp),%eax
   17215:	48 98                	cltq   
   17217:	8b 55 f4             	mov    -0xc(%rbp),%edx
   1721a:	48 63 f2             	movslq %edx,%rsi
   1721d:	8b 55 f0             	mov    -0x10(%rbp),%edx
   17220:	48 63 ca             	movslq %edx,%rcx
   17223:	48 89 c2             	mov    %rax,%rdx
   17226:	48 01 d2             	add    %rdx,%rdx
   17229:	48 01 c2             	add    %rax,%rdx
   1722c:	48 8d 04 d5 00 00 00 	lea    0x0(,%rdx,8),%rax
   17233:	00 
   17234:	48 89 c2             	mov    %rax,%rdx
   17237:	48 89 f0             	mov    %rsi,%rax
   1723a:	48 01 c0             	add    %rax,%rax
   1723d:	48 01 f0             	add    %rsi,%rax
   17240:	48 c1 e0 05          	shl    $0x5,%rax
   17244:	48 01 c2             	add    %rax,%rdx
   17247:	48 89 c8             	mov    %rcx,%rax
   1724a:	48 c1 e0 04          	shl    $0x4,%rax
   1724e:	48 29 c8             	sub    %rcx,%rax
   17251:	48 c1 e0 05          	shl    $0x5,%rax
   17255:	48 01 c2             	add    %rax,%rdx
   17258:	48 8d 05 21 70 00 00 	lea    0x7021(%rip),%rax        # 1e280 <g_431>
   1725f:	48 01 d0             	add    %rdx,%rax
   17262:	0f b7 40 0d          	movzwl 0xd(%rax),%eax
   17266:	0f b7 c0             	movzwl %ax,%eax
   17269:	8b 55 fc             	mov    -0x4(%rbp),%edx
   1726c:	48 8d 35 9a 34 00 00 	lea    0x349a(%rip),%rsi        # 1a70d <g_386+0x16b9>
   17273:	48 89 c7             	mov    %rax,%rdi
   17276:	e8 78 24 ff ff       	callq  96f3 <transparent_crc>
   1727b:	8b 45 f8             	mov    -0x8(%rbp),%eax
   1727e:	48 98                	cltq   
   17280:	8b 55 f4             	mov    -0xc(%rbp),%edx
   17283:	48 63 f2             	movslq %edx,%rsi
   17286:	8b 55 f0             	mov    -0x10(%rbp),%edx
   17289:	48 63 ca             	movslq %edx,%rcx
   1728c:	48 89 c2             	mov    %rax,%rdx
   1728f:	48 01 d2             	add    %rdx,%rdx
   17292:	48 01 c2             	add    %rax,%rdx
   17295:	48 8d 04 d5 00 00 00 	lea    0x0(,%rdx,8),%rax
   1729c:	00 
   1729d:	48 89 c2             	mov    %rax,%rdx
   172a0:	48 89 f0             	mov    %rsi,%rax
   172a3:	48 01 c0             	add    %rax,%rax
   172a6:	48 01 f0             	add    %rsi,%rax
   172a9:	48 c1 e0 05          	shl    $0x5,%rax
   172ad:	48 01 c2             	add    %rax,%rdx
   172b0:	48 89 c8             	mov    %rcx,%rax
   172b3:	48 c1 e0 04          	shl    $0x4,%rax
   172b7:	48 29 c8             	sub    %rcx,%rax
   172ba:	48 c1 e0 05          	shl    $0x5,%rax
   172be:	48 01 c2             	add    %rax,%rdx
   172c1:	48 8d 05 b8 6f 00 00 	lea    0x6fb8(%rip),%rax        # 1e280 <g_431>
   172c8:	48 01 d0             	add    %rdx,%rax
   172cb:	0f b6 50 0f          	movzbl 0xf(%rax),%edx
   172cf:	0f b7 40 10          	movzwl 0x10(%rax),%eax
   172d3:	25 ff 7f 00 00       	and    $0x7fff,%eax
   172d8:	48 c1 e0 08          	shl    $0x8,%rax
   172dc:	48 09 d0             	or     %rdx,%rax
   172df:	48 c1 e0 29          	shl    $0x29,%rax
   172e3:	48 c1 f8 29          	sar    $0x29,%rax
   172e7:	48 98                	cltq   
   172e9:	8b 55 fc             	mov    -0x4(%rbp),%edx
   172ec:	48 8d 35 2c 34 00 00 	lea    0x342c(%rip),%rsi        # 1a71f <g_386+0x16cb>
   172f3:	48 89 c7             	mov    %rax,%rdi
   172f6:	e8 f8 23 ff ff       	callq  96f3 <transparent_crc>
   172fb:	8b 45 f8             	mov    -0x8(%rbp),%eax
   172fe:	48 63 d0             	movslq %eax,%rdx
   17301:	8b 45 f4             	mov    -0xc(%rbp),%eax
   17304:	48 63 c8             	movslq %eax,%rcx
   17307:	8b 45 f0             	mov    -0x10(%rbp),%eax
   1730a:	48 63 f0             	movslq %eax,%rsi
   1730d:	48 89 d0             	mov    %rdx,%rax
   17310:	48 01 c0             	add    %rax,%rax
   17313:	48 01 d0             	add    %rdx,%rax
   17316:	48 c1 e0 03          	shl    $0x3,%rax
   1731a:	48 89 f2             	mov    %rsi,%rdx
   1731d:	48 c1 e2 04          	shl    $0x4,%rdx
   17321:	48 29 f2             	sub    %rsi,%rdx
   17324:	48 c1 e2 05          	shl    $0x5,%rdx
   17328:	48 01 c2             	add    %rax,%rdx
   1732b:	48 89 c8             	mov    %rcx,%rax
   1732e:	48 01 c0             	add    %rax,%rax
   17331:	48 01 c8             	add    %rcx,%rax
   17334:	48 c1 e0 05          	shl    $0x5,%rax
   17338:	48 01 c2             	add    %rax,%rdx
   1733b:	48 8d 05 4e 6f 00 00 	lea    0x6f4e(%rip),%rax        # 1e290 <g_431+0x10>
   17342:	48 01 d0             	add    %rdx,%rax
   17345:	8b 40 02             	mov    0x2(%rax),%eax
   17348:	89 c1                	mov    %eax,%ecx
   1734a:	8b 45 fc             	mov    -0x4(%rbp),%eax
   1734d:	89 c2                	mov    %eax,%edx
   1734f:	48 8d 35 db 33 00 00 	lea    0x33db(%rip),%rsi        # 1a731 <g_386+0x16dd>
   17356:	48 89 cf             	mov    %rcx,%rdi
   17359:	e8 95 23 ff ff       	callq  96f3 <transparent_crc>
   1735e:	8b 45 f8             	mov    -0x8(%rbp),%eax
   17361:	48 63 d0             	movslq %eax,%rdx
   17364:	8b 45 f4             	mov    -0xc(%rbp),%eax
   17367:	48 63 c8             	movslq %eax,%rcx
   1736a:	8b 45 f0             	mov    -0x10(%rbp),%eax
   1736d:	48 63 f0             	movslq %eax,%rsi
   17370:	48 89 d0             	mov    %rdx,%rax
   17373:	48 01 c0             	add    %rax,%rax
   17376:	48 01 d0             	add    %rdx,%rax
   17379:	48 c1 e0 03          	shl    $0x3,%rax
   1737d:	48 89 f2             	mov    %rsi,%rdx
   17380:	48 c1 e2 04          	shl    $0x4,%rdx
   17384:	48 29 f2             	sub    %rsi,%rdx
   17387:	48 c1 e2 05          	shl    $0x5,%rdx
   1738b:	48 01 c2             	add    %rax,%rdx
   1738e:	48 89 c8             	mov    %rcx,%rax
   17391:	48 01 c0             	add    %rax,%rax
   17394:	48 01 c8             	add    %rcx,%rax
   17397:	48 c1 e0 05          	shl    $0x5,%rax
   1739b:	48 01 c2             	add    %rax,%rdx
   1739e:	48 8d 05 f1 6e 00 00 	lea    0x6ef1(%rip),%rax        # 1e296 <g_431+0x16>
   173a5:	48 01 d0             	add    %rdx,%rax
   173a8:	0f b7 00             	movzwl (%rax),%eax
   173ab:	48 0f bf c0          	movswq %ax,%rax
   173af:	8b 55 fc             	mov    -0x4(%rbp),%edx
   173b2:	48 8d 35 8a 33 00 00 	lea    0x338a(%rip),%rsi        # 1a743 <g_386+0x16ef>
   173b9:	48 89 c7             	mov    %rax,%rdi
   173bc:	e8 32 23 ff ff       	callq  96f3 <transparent_crc>
   173c1:	83 7d fc 00          	cmpl   $0x0,-0x4(%rbp)
   173c5:	74 1c                	je     173e3 <main+0xf6e>
   173c7:	8b 4d f8             	mov    -0x8(%rbp),%ecx
   173ca:	8b 55 f4             	mov    -0xc(%rbp),%edx
   173cd:	8b 45 f0             	mov    -0x10(%rbp),%eax
   173d0:	89 c6                	mov    %eax,%esi
   173d2:	48 8d 3d 7c 33 00 00 	lea    0x337c(%rip),%rdi        # 1a755 <g_386+0x1701>
   173d9:	b8 00 00 00 00       	mov    $0x0,%eax
   173de:	e8 9d 0c ff ff       	callq  8080 <printf@plt>
   173e3:	83 45 f8 01          	addl   $0x1,-0x8(%rbp)
   173e7:	83 7d f8 03          	cmpl   $0x3,-0x8(%rbp)
   173eb:	0f 8e 7d fc ff ff    	jle    1706e <main+0xbf9>
   173f1:	83 45 f4 01          	addl   $0x1,-0xc(%rbp)
   173f5:	83 7d f4 04          	cmpl   $0x4,-0xc(%rbp)
   173f9:	0f 8e 63 fc ff ff    	jle    17062 <main+0xbed>
   173ff:	83 45 f0 01          	addl   $0x1,-0x10(%rbp)
   17403:	83 7d f0 09          	cmpl   $0x9,-0x10(%rbp)
   17407:	0f 8e 49 fc ff ff    	jle    17056 <main+0xbe1>
   1740d:	48 8b 05 2c 81 00 00 	mov    0x812c(%rip),%rax        # 1f540 <g_432>
   17414:	48 89 c1             	mov    %rax,%rcx
   17417:	8b 45 fc             	mov    -0x4(%rbp),%eax
   1741a:	89 c2                	mov    %eax,%edx
   1741c:	48 8d 35 48 33 00 00 	lea    0x3348(%rip),%rsi        # 1a76b <g_386+0x1717>
   17423:	48 89 cf             	mov    %rcx,%rdi
   17426:	e8 c8 22 ff ff       	callq  96f3 <transparent_crc>
   1742b:	0f b6 05 16 81 00 00 	movzbl 0x8116(%rip),%eax        # 1f548 <g_432+0x8>
   17432:	0f b6 c0             	movzbl %al,%eax
   17435:	8b 55 fc             	mov    -0x4(%rbp),%edx
   17438:	48 8d 35 35 33 00 00 	lea    0x3335(%rip),%rsi        # 1a774 <g_386+0x1720>
   1743f:	48 89 c7             	mov    %rax,%rdi
   17442:	e8 ac 22 ff ff       	callq  96f3 <transparent_crc>
   17447:	0f b7 05 fb 80 00 00 	movzwl 0x80fb(%rip),%eax        # 1f549 <g_432+0x9>
   1744e:	0f b7 c0             	movzwl %ax,%eax
   17451:	8b 55 fc             	mov    -0x4(%rbp),%edx
   17454:	48 8d 35 22 33 00 00 	lea    0x3322(%rip),%rsi        # 1a77d <g_386+0x1729>
   1745b:	48 89 c7             	mov    %rax,%rdi
   1745e:	e8 90 22 ff ff       	callq  96f3 <transparent_crc>
   17463:	0f b7 05 e1 80 00 00 	movzwl 0x80e1(%rip),%eax        # 1f54b <g_432+0xb>
   1746a:	0f b7 c0             	movzwl %ax,%eax
   1746d:	8b 55 fc             	mov    -0x4(%rbp),%edx
   17470:	48 8d 35 0f 33 00 00 	lea    0x330f(%rip),%rsi        # 1a786 <g_386+0x1732>
   17477:	48 89 c7             	mov    %rax,%rdi
   1747a:	e8 74 22 ff ff       	callq  96f3 <transparent_crc>
   1747f:	0f b7 05 c7 80 00 00 	movzwl 0x80c7(%rip),%eax        # 1f54d <g_432+0xd>
   17486:	0f b7 c0             	movzwl %ax,%eax
   17489:	8b 55 fc             	mov    -0x4(%rbp),%edx
   1748c:	48 8d 35 fc 32 00 00 	lea    0x32fc(%rip),%rsi        # 1a78f <g_386+0x173b>
   17493:	48 89 c7             	mov    %rax,%rdi
   17496:	e8 58 22 ff ff       	callq  96f3 <transparent_crc>
   1749b:	0f b6 05 ad 80 00 00 	movzbl 0x80ad(%rip),%eax        # 1f54f <g_432+0xf>
   174a2:	0f b7 15 a7 80 00 00 	movzwl 0x80a7(%rip),%edx        # 1f550 <g_432+0x10>
   174a9:	81 e2 ff 7f 00 00    	and    $0x7fff,%edx
   174af:	48 c1 e2 08          	shl    $0x8,%rdx
   174b3:	48 09 d0             	or     %rdx,%rax
   174b6:	48 c1 e0 29          	shl    $0x29,%rax
   174ba:	48 c1 f8 29          	sar    $0x29,%rax
   174be:	48 98                	cltq   
   174c0:	8b 55 fc             	mov    -0x4(%rbp),%edx
   174c3:	48 8d 35 ce 32 00 00 	lea    0x32ce(%rip),%rsi        # 1a798 <g_386+0x1744>
   174ca:	48 89 c7             	mov    %rax,%rdi
   174cd:	e8 21 22 ff ff       	callq  96f3 <transparent_crc>
   174d2:	8b 05 7a 80 00 00    	mov    0x807a(%rip),%eax        # 1f552 <g_432+0x12>
   174d8:	89 c1                	mov    %eax,%ecx
   174da:	8b 45 fc             	mov    -0x4(%rbp),%eax
   174dd:	89 c2                	mov    %eax,%edx
   174df:	48 8d 35 bb 32 00 00 	lea    0x32bb(%rip),%rsi        # 1a7a1 <g_386+0x174d>
   174e6:	48 89 cf             	mov    %rcx,%rdi
   174e9:	e8 05 22 ff ff       	callq  96f3 <transparent_crc>
   174ee:	0f b7 05 61 80 00 00 	movzwl 0x8061(%rip),%eax        # 1f556 <g_432+0x16>
   174f5:	48 0f bf c0          	movswq %ax,%rax
   174f9:	8b 55 fc             	mov    -0x4(%rbp),%edx
   174fc:	48 8d 35 a7 32 00 00 	lea    0x32a7(%rip),%rsi        # 1a7aa <g_386+0x1756>
   17503:	48 89 c7             	mov    %rax,%rdi
   17506:	e8 e8 21 ff ff       	callq  96f3 <transparent_crc>
   1750b:	48 8b 05 4e 80 00 00 	mov    0x804e(%rip),%rax        # 1f560 <g_433>
   17512:	48 89 c1             	mov    %rax,%rcx
   17515:	8b 45 fc             	mov    -0x4(%rbp),%eax
   17518:	89 c2                	mov    %eax,%edx
   1751a:	48 8d 35 92 32 00 00 	lea    0x3292(%rip),%rsi        # 1a7b3 <g_386+0x175f>
   17521:	48 89 cf             	mov    %rcx,%rdi
   17524:	e8 ca 21 ff ff       	callq  96f3 <transparent_crc>
   17529:	0f b6 05 38 80 00 00 	movzbl 0x8038(%rip),%eax        # 1f568 <g_433+0x8>
   17530:	0f b6 c0             	movzbl %al,%eax
   17533:	8b 55 fc             	mov    -0x4(%rbp),%edx
   17536:	48 8d 35 7f 32 00 00 	lea    0x327f(%rip),%rsi        # 1a7bc <g_386+0x1768>
   1753d:	48 89 c7             	mov    %rax,%rdi
   17540:	e8 ae 21 ff ff       	callq  96f3 <transparent_crc>
   17545:	0f b7 05 1d 80 00 00 	movzwl 0x801d(%rip),%eax        # 1f569 <g_433+0x9>
   1754c:	0f b7 c0             	movzwl %ax,%eax
   1754f:	8b 55 fc             	mov    -0x4(%rbp),%edx
   17552:	48 8d 35 6c 32 00 00 	lea    0x326c(%rip),%rsi        # 1a7c5 <g_386+0x1771>
   17559:	48 89 c7             	mov    %rax,%rdi
   1755c:	e8 92 21 ff ff       	callq  96f3 <transparent_crc>
   17561:	0f b7 05 03 80 00 00 	movzwl 0x8003(%rip),%eax        # 1f56b <g_433+0xb>
   17568:	0f b7 c0             	movzwl %ax,%eax
   1756b:	8b 55 fc             	mov    -0x4(%rbp),%edx
   1756e:	48 8d 35 59 32 00 00 	lea    0x3259(%rip),%rsi        # 1a7ce <g_386+0x177a>
   17575:	48 89 c7             	mov    %rax,%rdi
   17578:	e8 76 21 ff ff       	callq  96f3 <transparent_crc>
   1757d:	0f b7 05 e9 7f 00 00 	movzwl 0x7fe9(%rip),%eax        # 1f56d <g_433+0xd>
   17584:	0f b7 c0             	movzwl %ax,%eax
   17587:	8b 55 fc             	mov    -0x4(%rbp),%edx
   1758a:	48 8d 35 46 32 00 00 	lea    0x3246(%rip),%rsi        # 1a7d7 <g_386+0x1783>
   17591:	48 89 c7             	mov    %rax,%rdi
   17594:	e8 5a 21 ff ff       	callq  96f3 <transparent_crc>
   17599:	0f b6 05 cf 7f 00 00 	movzbl 0x7fcf(%rip),%eax        # 1f56f <g_433+0xf>
   175a0:	0f b7 15 c9 7f 00 00 	movzwl 0x7fc9(%rip),%edx        # 1f570 <g_433+0x10>
   175a7:	81 e2 ff 7f 00 00    	and    $0x7fff,%edx
   175ad:	48 c1 e2 08          	shl    $0x8,%rdx
   175b1:	48 09 d0             	or     %rdx,%rax
   175b4:	48 c1 e0 29          	shl    $0x29,%rax
   175b8:	48 c1 f8 29          	sar    $0x29,%rax
   175bc:	48 98                	cltq   
   175be:	8b 55 fc             	mov    -0x4(%rbp),%edx
   175c1:	48 8d 35 18 32 00 00 	lea    0x3218(%rip),%rsi        # 1a7e0 <g_386+0x178c>
   175c8:	48 89 c7             	mov    %rax,%rdi
   175cb:	e8 23 21 ff ff       	callq  96f3 <transparent_crc>
   175d0:	8b 05 9c 7f 00 00    	mov    0x7f9c(%rip),%eax        # 1f572 <g_433+0x12>
   175d6:	89 c1                	mov    %eax,%ecx
   175d8:	8b 45 fc             	mov    -0x4(%rbp),%eax
   175db:	89 c2                	mov    %eax,%edx
   175dd:	48 8d 35 05 32 00 00 	lea    0x3205(%rip),%rsi        # 1a7e9 <g_386+0x1795>
   175e4:	48 89 cf             	mov    %rcx,%rdi
   175e7:	e8 07 21 ff ff       	callq  96f3 <transparent_crc>
   175ec:	0f b7 05 83 7f 00 00 	movzwl 0x7f83(%rip),%eax        # 1f576 <g_433+0x16>
   175f3:	48 0f bf c0          	movswq %ax,%rax
   175f7:	8b 55 fc             	mov    -0x4(%rbp),%edx
   175fa:	48 8d 35 f1 31 00 00 	lea    0x31f1(%rip),%rsi        # 1a7f2 <g_386+0x179e>
   17601:	48 89 c7             	mov    %rax,%rdi
   17604:	e8 ea 20 ff ff       	callq  96f3 <transparent_crc>
   17609:	48 8b 05 70 7f 00 00 	mov    0x7f70(%rip),%rax        # 1f580 <g_434>
   17610:	48 89 c1             	mov    %rax,%rcx
   17613:	8b 45 fc             	mov    -0x4(%rbp),%eax
   17616:	89 c2                	mov    %eax,%edx
   17618:	48 8d 35 dc 31 00 00 	lea    0x31dc(%rip),%rsi        # 1a7fb <g_386+0x17a7>
   1761f:	48 89 cf             	mov    %rcx,%rdi
   17622:	e8 cc 20 ff ff       	callq  96f3 <transparent_crc>
   17627:	0f b6 05 5a 7f 00 00 	movzbl 0x7f5a(%rip),%eax        # 1f588 <g_434+0x8>
   1762e:	0f b6 c0             	movzbl %al,%eax
   17631:	8b 55 fc             	mov    -0x4(%rbp),%edx
   17634:	48 8d 35 c9 31 00 00 	lea    0x31c9(%rip),%rsi        # 1a804 <g_386+0x17b0>
   1763b:	48 89 c7             	mov    %rax,%rdi
   1763e:	e8 b0 20 ff ff       	callq  96f3 <transparent_crc>
   17643:	0f b7 05 3f 7f 00 00 	movzwl 0x7f3f(%rip),%eax        # 1f589 <g_434+0x9>
   1764a:	0f b7 c0             	movzwl %ax,%eax
   1764d:	8b 55 fc             	mov    -0x4(%rbp),%edx
   17650:	48 8d 35 b6 31 00 00 	lea    0x31b6(%rip),%rsi        # 1a80d <g_386+0x17b9>
   17657:	48 89 c7             	mov    %rax,%rdi
   1765a:	e8 94 20 ff ff       	callq  96f3 <transparent_crc>
   1765f:	0f b7 05 25 7f 00 00 	movzwl 0x7f25(%rip),%eax        # 1f58b <g_434+0xb>
   17666:	0f b7 c0             	movzwl %ax,%eax
   17669:	8b 55 fc             	mov    -0x4(%rbp),%edx
   1766c:	48 8d 35 a3 31 00 00 	lea    0x31a3(%rip),%rsi        # 1a816 <g_386+0x17c2>
   17673:	48 89 c7             	mov    %rax,%rdi
   17676:	e8 78 20 ff ff       	callq  96f3 <transparent_crc>
   1767b:	0f b7 05 0b 7f 00 00 	movzwl 0x7f0b(%rip),%eax        # 1f58d <g_434+0xd>
   17682:	0f b7 c0             	movzwl %ax,%eax
   17685:	8b 55 fc             	mov    -0x4(%rbp),%edx
   17688:	48 8d 35 90 31 00 00 	lea    0x3190(%rip),%rsi        # 1a81f <g_386+0x17cb>
   1768f:	48 89 c7             	mov    %rax,%rdi
   17692:	e8 5c 20 ff ff       	callq  96f3 <transparent_crc>
   17697:	0f b6 05 f1 7e 00 00 	movzbl 0x7ef1(%rip),%eax        # 1f58f <g_434+0xf>
   1769e:	0f b7 15 eb 7e 00 00 	movzwl 0x7eeb(%rip),%edx        # 1f590 <g_434+0x10>
   176a5:	81 e2 ff 7f 00 00    	and    $0x7fff,%edx
   176ab:	48 c1 e2 08          	shl    $0x8,%rdx
   176af:	48 09 d0             	or     %rdx,%rax
   176b2:	48 c1 e0 29          	shl    $0x29,%rax
   176b6:	48 c1 f8 29          	sar    $0x29,%rax
   176ba:	48 98                	cltq   
   176bc:	8b 55 fc             	mov    -0x4(%rbp),%edx
   176bf:	48 8d 35 62 31 00 00 	lea    0x3162(%rip),%rsi        # 1a828 <g_386+0x17d4>
   176c6:	48 89 c7             	mov    %rax,%rdi
   176c9:	e8 25 20 ff ff       	callq  96f3 <transparent_crc>
   176ce:	8b 05 be 7e 00 00    	mov    0x7ebe(%rip),%eax        # 1f592 <g_434+0x12>
   176d4:	89 c1                	mov    %eax,%ecx
   176d6:	8b 45 fc             	mov    -0x4(%rbp),%eax
   176d9:	89 c2                	mov    %eax,%edx
   176db:	48 8d 35 4f 31 00 00 	lea    0x314f(%rip),%rsi        # 1a831 <g_386+0x17dd>
   176e2:	48 89 cf             	mov    %rcx,%rdi
   176e5:	e8 09 20 ff ff       	callq  96f3 <transparent_crc>
   176ea:	0f b7 05 a5 7e 00 00 	movzwl 0x7ea5(%rip),%eax        # 1f596 <g_434+0x16>
   176f1:	48 0f bf c0          	movswq %ax,%rax
   176f5:	8b 55 fc             	mov    -0x4(%rbp),%edx
   176f8:	48 8d 35 3b 31 00 00 	lea    0x313b(%rip),%rsi        # 1a83a <g_386+0x17e6>
   176ff:	48 89 c7             	mov    %rax,%rdi
   17702:	e8 ec 1f ff ff       	callq  96f3 <transparent_crc>
   17707:	48 8b 05 92 7e 00 00 	mov    0x7e92(%rip),%rax        # 1f5a0 <g_435>
   1770e:	48 89 c1             	mov    %rax,%rcx
   17711:	8b 45 fc             	mov    -0x4(%rbp),%eax
   17714:	89 c2                	mov    %eax,%edx
   17716:	48 8d 35 26 31 00 00 	lea    0x3126(%rip),%rsi        # 1a843 <g_386+0x17ef>
   1771d:	48 89 cf             	mov    %rcx,%rdi
   17720:	e8 ce 1f ff ff       	callq  96f3 <transparent_crc>
   17725:	0f b6 05 7c 7e 00 00 	movzbl 0x7e7c(%rip),%eax        # 1f5a8 <g_435+0x8>
   1772c:	0f b6 c0             	movzbl %al,%eax
   1772f:	8b 55 fc             	mov    -0x4(%rbp),%edx
   17732:	48 8d 35 13 31 00 00 	lea    0x3113(%rip),%rsi        # 1a84c <g_386+0x17f8>
   17739:	48 89 c7             	mov    %rax,%rdi
   1773c:	e8 b2 1f ff ff       	callq  96f3 <transparent_crc>
   17741:	0f b7 05 61 7e 00 00 	movzwl 0x7e61(%rip),%eax        # 1f5a9 <g_435+0x9>
   17748:	0f b7 c0             	movzwl %ax,%eax
   1774b:	8b 55 fc             	mov    -0x4(%rbp),%edx
   1774e:	48 8d 35 00 31 00 00 	lea    0x3100(%rip),%rsi        # 1a855 <g_386+0x1801>
   17755:	48 89 c7             	mov    %rax,%rdi
   17758:	e8 96 1f ff ff       	callq  96f3 <transparent_crc>
   1775d:	0f b7 05 47 7e 00 00 	movzwl 0x7e47(%rip),%eax        # 1f5ab <g_435+0xb>
   17764:	0f b7 c0             	movzwl %ax,%eax
   17767:	8b 55 fc             	mov    -0x4(%rbp),%edx
   1776a:	48 8d 35 ed 30 00 00 	lea    0x30ed(%rip),%rsi        # 1a85e <g_386+0x180a>
   17771:	48 89 c7             	mov    %rax,%rdi
   17774:	e8 7a 1f ff ff       	callq  96f3 <transparent_crc>
   17779:	0f b7 05 2d 7e 00 00 	movzwl 0x7e2d(%rip),%eax        # 1f5ad <g_435+0xd>
   17780:	0f b7 c0             	movzwl %ax,%eax
   17783:	8b 55 fc             	mov    -0x4(%rbp),%edx
   17786:	48 8d 35 da 30 00 00 	lea    0x30da(%rip),%rsi        # 1a867 <g_386+0x1813>
   1778d:	48 89 c7             	mov    %rax,%rdi
   17790:	e8 5e 1f ff ff       	callq  96f3 <transparent_crc>
   17795:	0f b6 05 13 7e 00 00 	movzbl 0x7e13(%rip),%eax        # 1f5af <g_435+0xf>
   1779c:	0f b7 15 0d 7e 00 00 	movzwl 0x7e0d(%rip),%edx        # 1f5b0 <g_435+0x10>
   177a3:	81 e2 ff 7f 00 00    	and    $0x7fff,%edx
   177a9:	48 c1 e2 08          	shl    $0x8,%rdx
   177ad:	48 09 d0             	or     %rdx,%rax
   177b0:	48 c1 e0 29          	shl    $0x29,%rax
   177b4:	48 c1 f8 29          	sar    $0x29,%rax
   177b8:	48 98                	cltq   
   177ba:	8b 55 fc             	mov    -0x4(%rbp),%edx
   177bd:	48 8d 35 ac 30 00 00 	lea    0x30ac(%rip),%rsi        # 1a870 <g_386+0x181c>
   177c4:	48 89 c7             	mov    %rax,%rdi
   177c7:	e8 27 1f ff ff       	callq  96f3 <transparent_crc>
   177cc:	8b 05 e0 7d 00 00    	mov    0x7de0(%rip),%eax        # 1f5b2 <g_435+0x12>
   177d2:	89 c1                	mov    %eax,%ecx
   177d4:	8b 45 fc             	mov    -0x4(%rbp),%eax
   177d7:	89 c2                	mov    %eax,%edx
   177d9:	48 8d 35 99 30 00 00 	lea    0x3099(%rip),%rsi        # 1a879 <g_386+0x1825>
   177e0:	48 89 cf             	mov    %rcx,%rdi
   177e3:	e8 0b 1f ff ff       	callq  96f3 <transparent_crc>
   177e8:	0f b7 05 c7 7d 00 00 	movzwl 0x7dc7(%rip),%eax        # 1f5b6 <g_435+0x16>
   177ef:	48 0f bf c0          	movswq %ax,%rax
   177f3:	8b 55 fc             	mov    -0x4(%rbp),%edx
   177f6:	48 8d 35 85 30 00 00 	lea    0x3085(%rip),%rsi        # 1a882 <g_386+0x182e>
   177fd:	48 89 c7             	mov    %rax,%rdi
   17800:	e8 ee 1e ff ff       	callq  96f3 <transparent_crc>
   17805:	48 8b 05 b4 7d 00 00 	mov    0x7db4(%rip),%rax        # 1f5c0 <g_436>
   1780c:	48 89 c1             	mov    %rax,%rcx
   1780f:	8b 45 fc             	mov    -0x4(%rbp),%eax
   17812:	89 c2                	mov    %eax,%edx
   17814:	48 8d 35 70 30 00 00 	lea    0x3070(%rip),%rsi        # 1a88b <g_386+0x1837>
   1781b:	48 89 cf             	mov    %rcx,%rdi
   1781e:	e8 d0 1e ff ff       	callq  96f3 <transparent_crc>
   17823:	0f b6 05 9e 7d 00 00 	movzbl 0x7d9e(%rip),%eax        # 1f5c8 <g_436+0x8>
   1782a:	0f b6 c0             	movzbl %al,%eax
   1782d:	8b 55 fc             	mov    -0x4(%rbp),%edx
   17830:	48 8d 35 5d 30 00 00 	lea    0x305d(%rip),%rsi        # 1a894 <g_386+0x1840>
   17837:	48 89 c7             	mov    %rax,%rdi
   1783a:	e8 b4 1e ff ff       	callq  96f3 <transparent_crc>
   1783f:	0f b7 05 83 7d 00 00 	movzwl 0x7d83(%rip),%eax        # 1f5c9 <g_436+0x9>
   17846:	0f b7 c0             	movzwl %ax,%eax
   17849:	8b 55 fc             	mov    -0x4(%rbp),%edx
   1784c:	48 8d 35 4a 30 00 00 	lea    0x304a(%rip),%rsi        # 1a89d <g_386+0x1849>
   17853:	48 89 c7             	mov    %rax,%rdi
   17856:	e8 98 1e ff ff       	callq  96f3 <transparent_crc>
   1785b:	0f b7 05 69 7d 00 00 	movzwl 0x7d69(%rip),%eax        # 1f5cb <g_436+0xb>
   17862:	0f b7 c0             	movzwl %ax,%eax
   17865:	8b 55 fc             	mov    -0x4(%rbp),%edx
   17868:	48 8d 35 37 30 00 00 	lea    0x3037(%rip),%rsi        # 1a8a6 <g_386+0x1852>
   1786f:	48 89 c7             	mov    %rax,%rdi
   17872:	e8 7c 1e ff ff       	callq  96f3 <transparent_crc>
   17877:	0f b7 05 4f 7d 00 00 	movzwl 0x7d4f(%rip),%eax        # 1f5cd <g_436+0xd>
   1787e:	0f b7 c0             	movzwl %ax,%eax
   17881:	8b 55 fc             	mov    -0x4(%rbp),%edx
   17884:	48 8d 35 24 30 00 00 	lea    0x3024(%rip),%rsi        # 1a8af <g_386+0x185b>
   1788b:	48 89 c7             	mov    %rax,%rdi
   1788e:	e8 60 1e ff ff       	callq  96f3 <transparent_crc>
   17893:	0f b6 05 35 7d 00 00 	movzbl 0x7d35(%rip),%eax        # 1f5cf <g_436+0xf>
   1789a:	0f b7 15 2f 7d 00 00 	movzwl 0x7d2f(%rip),%edx        # 1f5d0 <g_436+0x10>
   178a1:	81 e2 ff 7f 00 00    	and    $0x7fff,%edx
   178a7:	48 c1 e2 08          	shl    $0x8,%rdx
   178ab:	48 09 d0             	or     %rdx,%rax
   178ae:	48 c1 e0 29          	shl    $0x29,%rax
   178b2:	48 c1 f8 29          	sar    $0x29,%rax
   178b6:	48 98                	cltq   
   178b8:	8b 55 fc             	mov    -0x4(%rbp),%edx
   178bb:	48 8d 35 f6 2f 00 00 	lea    0x2ff6(%rip),%rsi        # 1a8b8 <g_386+0x1864>
   178c2:	48 89 c7             	mov    %rax,%rdi
   178c5:	e8 29 1e ff ff       	callq  96f3 <transparent_crc>
   178ca:	8b 05 02 7d 00 00    	mov    0x7d02(%rip),%eax        # 1f5d2 <g_436+0x12>
   178d0:	89 c1                	mov    %eax,%ecx
   178d2:	8b 45 fc             	mov    -0x4(%rbp),%eax
   178d5:	89 c2                	mov    %eax,%edx
   178d7:	48 8d 35 e3 2f 00 00 	lea    0x2fe3(%rip),%rsi        # 1a8c1 <g_386+0x186d>
   178de:	48 89 cf             	mov    %rcx,%rdi
   178e1:	e8 0d 1e ff ff       	callq  96f3 <transparent_crc>
   178e6:	0f b7 05 e9 7c 00 00 	movzwl 0x7ce9(%rip),%eax        # 1f5d6 <g_436+0x16>
   178ed:	48 0f bf c0          	movswq %ax,%rax
   178f1:	8b 55 fc             	mov    -0x4(%rbp),%edx
   178f4:	48 8d 35 cf 2f 00 00 	lea    0x2fcf(%rip),%rsi        # 1a8ca <g_386+0x1876>
   178fb:	48 89 c7             	mov    %rax,%rdi
   178fe:	e8 f0 1d ff ff       	callq  96f3 <transparent_crc>
   17903:	48 8b 05 d6 7c 00 00 	mov    0x7cd6(%rip),%rax        # 1f5e0 <g_437>
   1790a:	48 89 c1             	mov    %rax,%rcx
   1790d:	8b 45 fc             	mov    -0x4(%rbp),%eax
   17910:	89 c2                	mov    %eax,%edx
   17912:	48 8d 35 ba 2f 00 00 	lea    0x2fba(%rip),%rsi        # 1a8d3 <g_386+0x187f>
   17919:	48 89 cf             	mov    %rcx,%rdi
   1791c:	e8 d2 1d ff ff       	callq  96f3 <transparent_crc>
   17921:	0f b6 05 c0 7c 00 00 	movzbl 0x7cc0(%rip),%eax        # 1f5e8 <g_437+0x8>
   17928:	0f b6 c0             	movzbl %al,%eax
   1792b:	8b 55 fc             	mov    -0x4(%rbp),%edx
   1792e:	48 8d 35 a7 2f 00 00 	lea    0x2fa7(%rip),%rsi        # 1a8dc <g_386+0x1888>
   17935:	48 89 c7             	mov    %rax,%rdi
   17938:	e8 b6 1d ff ff       	callq  96f3 <transparent_crc>
   1793d:	0f b7 05 a5 7c 00 00 	movzwl 0x7ca5(%rip),%eax        # 1f5e9 <g_437+0x9>
   17944:	0f b7 c0             	movzwl %ax,%eax
   17947:	8b 55 fc             	mov    -0x4(%rbp),%edx
   1794a:	48 8d 35 94 2f 00 00 	lea    0x2f94(%rip),%rsi        # 1a8e5 <g_386+0x1891>
   17951:	48 89 c7             	mov    %rax,%rdi
   17954:	e8 9a 1d ff ff       	callq  96f3 <transparent_crc>
   17959:	0f b7 05 8b 7c 00 00 	movzwl 0x7c8b(%rip),%eax        # 1f5eb <g_437+0xb>
   17960:	0f b7 c0             	movzwl %ax,%eax
   17963:	8b 55 fc             	mov    -0x4(%rbp),%edx
   17966:	48 8d 35 81 2f 00 00 	lea    0x2f81(%rip),%rsi        # 1a8ee <g_386+0x189a>
   1796d:	48 89 c7             	mov    %rax,%rdi
   17970:	e8 7e 1d ff ff       	callq  96f3 <transparent_crc>
   17975:	0f b7 05 71 7c 00 00 	movzwl 0x7c71(%rip),%eax        # 1f5ed <g_437+0xd>
   1797c:	0f b7 c0             	movzwl %ax,%eax
   1797f:	8b 55 fc             	mov    -0x4(%rbp),%edx
   17982:	48 8d 35 6e 2f 00 00 	lea    0x2f6e(%rip),%rsi        # 1a8f7 <g_386+0x18a3>
   17989:	48 89 c7             	mov    %rax,%rdi
   1798c:	e8 62 1d ff ff       	callq  96f3 <transparent_crc>
   17991:	0f b6 05 57 7c 00 00 	movzbl 0x7c57(%rip),%eax        # 1f5ef <g_437+0xf>
   17998:	0f b7 15 51 7c 00 00 	movzwl 0x7c51(%rip),%edx        # 1f5f0 <g_437+0x10>
   1799f:	81 e2 ff 7f 00 00    	and    $0x7fff,%edx
   179a5:	48 c1 e2 08          	shl    $0x8,%rdx
   179a9:	48 09 d0             	or     %rdx,%rax
   179ac:	48 c1 e0 29          	shl    $0x29,%rax
   179b0:	48 c1 f8 29          	sar    $0x29,%rax
   179b4:	48 98                	cltq   
   179b6:	8b 55 fc             	mov    -0x4(%rbp),%edx
   179b9:	48 8d 35 40 2f 00 00 	lea    0x2f40(%rip),%rsi        # 1a900 <g_386+0x18ac>
   179c0:	48 89 c7             	mov    %rax,%rdi
   179c3:	e8 2b 1d ff ff       	callq  96f3 <transparent_crc>
   179c8:	8b 05 24 7c 00 00    	mov    0x7c24(%rip),%eax        # 1f5f2 <g_437+0x12>
   179ce:	89 c1                	mov    %eax,%ecx
   179d0:	8b 45 fc             	mov    -0x4(%rbp),%eax
   179d3:	89 c2                	mov    %eax,%edx
   179d5:	48 8d 35 2d 2f 00 00 	lea    0x2f2d(%rip),%rsi        # 1a909 <g_386+0x18b5>
   179dc:	48 89 cf             	mov    %rcx,%rdi
   179df:	e8 0f 1d ff ff       	callq  96f3 <transparent_crc>
   179e4:	0f b7 05 0b 7c 00 00 	movzwl 0x7c0b(%rip),%eax        # 1f5f6 <g_437+0x16>
   179eb:	48 0f bf c0          	movswq %ax,%rax
   179ef:	8b 55 fc             	mov    -0x4(%rbp),%edx
   179f2:	48 8d 35 19 2f 00 00 	lea    0x2f19(%rip),%rsi        # 1a912 <g_386+0x18be>
   179f9:	48 89 c7             	mov    %rax,%rdi
   179fc:	e8 f2 1c ff ff       	callq  96f3 <transparent_crc>
   17a01:	c7 45 f0 00 00 00 00 	movl   $0x0,-0x10(%rbp)
   17a08:	e9 b1 03 00 00       	jmpq   17dbe <main+0x1949>
   17a0d:	c7 45 f4 00 00 00 00 	movl   $0x0,-0xc(%rbp)
   17a14:	e9 97 03 00 00       	jmpq   17db0 <main+0x193b>
   17a19:	c7 45 f8 00 00 00 00 	movl   $0x0,-0x8(%rbp)
   17a20:	e9 7d 03 00 00       	jmpq   17da2 <main+0x192d>
   17a25:	8b 45 f8             	mov    -0x8(%rbp),%eax
   17a28:	48 98                	cltq   
   17a2a:	8b 55 f4             	mov    -0xc(%rbp),%edx
   17a2d:	48 63 f2             	movslq %edx,%rsi
   17a30:	8b 55 f0             	mov    -0x10(%rbp),%edx
   17a33:	48 63 ca             	movslq %edx,%rcx
   17a36:	48 89 c2             	mov    %rax,%rdx
   17a39:	48 01 d2             	add    %rdx,%rdx
   17a3c:	48 01 c2             	add    %rax,%rdx
   17a3f:	48 8d 04 d5 00 00 00 	lea    0x0(,%rdx,8),%rax
   17a46:	00 
   17a47:	48 89 c2             	mov    %rax,%rdx
   17a4a:	48 89 f0             	mov    %rsi,%rax
   17a4d:	48 01 c0             	add    %rax,%rax
   17a50:	48 01 f0             	add    %rsi,%rax
   17a53:	48 c1 e0 05          	shl    $0x5,%rax
   17a57:	48 01 c2             	add    %rax,%rdx
   17a5a:	48 89 c8             	mov    %rcx,%rax
   17a5d:	48 01 c0             	add    %rax,%rax
   17a60:	48 01 c8             	add    %rcx,%rax
   17a63:	48 c1 e0 05          	shl    $0x5,%rax
   17a67:	48 01 c2             	add    %rax,%rdx
   17a6a:	48 8d 05 8f 7b 00 00 	lea    0x7b8f(%rip),%rax        # 1f600 <g_438>
   17a71:	48 01 d0             	add    %rdx,%rax
   17a74:	48 8b 00             	mov    (%rax),%rax
   17a77:	48 89 c1             	mov    %rax,%rcx
   17a7a:	8b 45 fc             	mov    -0x4(%rbp),%eax
   17a7d:	89 c2                	mov    %eax,%edx
   17a7f:	48 8d 35 95 2e 00 00 	lea    0x2e95(%rip),%rsi        # 1a91b <g_386+0x18c7>
   17a86:	48 89 cf             	mov    %rcx,%rdi
   17a89:	e8 65 1c ff ff       	callq  96f3 <transparent_crc>
   17a8e:	8b 45 f8             	mov    -0x8(%rbp),%eax
   17a91:	48 98                	cltq   
   17a93:	8b 55 f4             	mov    -0xc(%rbp),%edx
   17a96:	48 63 f2             	movslq %edx,%rsi
   17a99:	8b 55 f0             	mov    -0x10(%rbp),%edx
   17a9c:	48 63 ca             	movslq %edx,%rcx
   17a9f:	48 89 c2             	mov    %rax,%rdx
   17aa2:	48 01 d2             	add    %rdx,%rdx
   17aa5:	48 01 c2             	add    %rax,%rdx
   17aa8:	48 8d 04 d5 00 00 00 	lea    0x0(,%rdx,8),%rax
   17aaf:	00 
   17ab0:	48 89 c2             	mov    %rax,%rdx
   17ab3:	48 89 f0             	mov    %rsi,%rax
   17ab6:	48 01 c0             	add    %rax,%rax
   17ab9:	48 01 f0             	add    %rsi,%rax
   17abc:	48 c1 e0 05          	shl    $0x5,%rax
   17ac0:	48 01 c2             	add    %rax,%rdx
   17ac3:	48 89 c8             	mov    %rcx,%rax
   17ac6:	48 01 c0             	add    %rax,%rax
   17ac9:	48 01 c8             	add    %rcx,%rax
   17acc:	48 c1 e0 05          	shl    $0x5,%rax
   17ad0:	48 01 c2             	add    %rax,%rdx
   17ad3:	48 8d 05 2e 7b 00 00 	lea    0x7b2e(%rip),%rax        # 1f608 <g_438+0x8>
   17ada:	48 01 d0             	add    %rdx,%rax
   17add:	0f b6 00             	movzbl (%rax),%eax
   17ae0:	0f b6 c0             	movzbl %al,%eax
   17ae3:	8b 55 fc             	mov    -0x4(%rbp),%edx
   17ae6:	48 8d 35 40 2e 00 00 	lea    0x2e40(%rip),%rsi        # 1a92d <g_386+0x18d9>
   17aed:	48 89 c7             	mov    %rax,%rdi
   17af0:	e8 fe 1b ff ff       	callq  96f3 <transparent_crc>
   17af5:	8b 45 f8             	mov    -0x8(%rbp),%eax
   17af8:	48 98                	cltq   
   17afa:	8b 55 f4             	mov    -0xc(%rbp),%edx
   17afd:	48 63 f2             	movslq %edx,%rsi
   17b00:	8b 55 f0             	mov    -0x10(%rbp),%edx
   17b03:	48 63 ca             	movslq %edx,%rcx
   17b06:	48 89 c2             	mov    %rax,%rdx
   17b09:	48 01 d2             	add    %rdx,%rdx
   17b0c:	48 01 c2             	add    %rax,%rdx
   17b0f:	48 8d 04 d5 00 00 00 	lea    0x0(,%rdx,8),%rax
   17b16:	00 
   17b17:	48 89 c2             	mov    %rax,%rdx
   17b1a:	48 89 f0             	mov    %rsi,%rax
   17b1d:	48 01 c0             	add    %rax,%rax
   17b20:	48 01 f0             	add    %rsi,%rax
   17b23:	48 c1 e0 05          	shl    $0x5,%rax
   17b27:	48 01 c2             	add    %rax,%rdx
   17b2a:	48 89 c8             	mov    %rcx,%rax
   17b2d:	48 01 c0             	add    %rax,%rax
   17b30:	48 01 c8             	add    %rcx,%rax
   17b33:	48 c1 e0 05          	shl    $0x5,%rax
   17b37:	48 01 c2             	add    %rax,%rdx
   17b3a:	48 8d 05 bf 7a 00 00 	lea    0x7abf(%rip),%rax        # 1f600 <g_438>
   17b41:	48 01 d0             	add    %rdx,%rax
   17b44:	0f b7 40 09          	movzwl 0x9(%rax),%eax
   17b48:	0f b7 c0             	movzwl %ax,%eax
   17b4b:	8b 55 fc             	mov    -0x4(%rbp),%edx
   17b4e:	48 8d 35 ea 2d 00 00 	lea    0x2dea(%rip),%rsi        # 1a93f <g_386+0x18eb>
   17b55:	48 89 c7             	mov    %rax,%rdi
   17b58:	e8 96 1b ff ff       	callq  96f3 <transparent_crc>
   17b5d:	8b 45 f8             	mov    -0x8(%rbp),%eax
   17b60:	48 98                	cltq   
   17b62:	8b 55 f4             	mov    -0xc(%rbp),%edx
   17b65:	48 63 f2             	movslq %edx,%rsi
   17b68:	8b 55 f0             	mov    -0x10(%rbp),%edx
   17b6b:	48 63 ca             	movslq %edx,%rcx
   17b6e:	48 89 c2             	mov    %rax,%rdx
   17b71:	48 01 d2             	add    %rdx,%rdx
   17b74:	48 01 c2             	add    %rax,%rdx
   17b77:	48 8d 04 d5 00 00 00 	lea    0x0(,%rdx,8),%rax
   17b7e:	00 
   17b7f:	48 89 c2             	mov    %rax,%rdx
   17b82:	48 89 f0             	mov    %rsi,%rax
   17b85:	48 01 c0             	add    %rax,%rax
   17b88:	48 01 f0             	add    %rsi,%rax
   17b8b:	48 c1 e0 05          	shl    $0x5,%rax
   17b8f:	48 01 c2             	add    %rax,%rdx
   17b92:	48 89 c8             	mov    %rcx,%rax
   17b95:	48 01 c0             	add    %rax,%rax
   17b98:	48 01 c8             	add    %rcx,%rax
   17b9b:	48 c1 e0 05          	shl    $0x5,%rax
   17b9f:	48 01 c2             	add    %rax,%rdx
   17ba2:	48 8d 05 57 7a 00 00 	lea    0x7a57(%rip),%rax        # 1f600 <g_438>
   17ba9:	48 01 d0             	add    %rdx,%rax
   17bac:	0f b7 40 0b          	movzwl 0xb(%rax),%eax
   17bb0:	0f b7 c0             	movzwl %ax,%eax
   17bb3:	8b 55 fc             	mov    -0x4(%rbp),%edx
   17bb6:	48 8d 35 94 2d 00 00 	lea    0x2d94(%rip),%rsi        # 1a951 <g_386+0x18fd>
   17bbd:	48 89 c7             	mov    %rax,%rdi
   17bc0:	e8 2e 1b ff ff       	callq  96f3 <transparent_crc>
   17bc5:	8b 45 f8             	mov    -0x8(%rbp),%eax
   17bc8:	48 98                	cltq   
   17bca:	8b 55 f4             	mov    -0xc(%rbp),%edx
   17bcd:	48 63 f2             	movslq %edx,%rsi
   17bd0:	8b 55 f0             	mov    -0x10(%rbp),%edx
   17bd3:	48 63 ca             	movslq %edx,%rcx
   17bd6:	48 89 c2             	mov    %rax,%rdx
   17bd9:	48 01 d2             	add    %rdx,%rdx
   17bdc:	48 01 c2             	add    %rax,%rdx
   17bdf:	48 8d 04 d5 00 00 00 	lea    0x0(,%rdx,8),%rax
   17be6:	00 
   17be7:	48 89 c2             	mov    %rax,%rdx
   17bea:	48 89 f0             	mov    %rsi,%rax
   17bed:	48 01 c0             	add    %rax,%rax
   17bf0:	48 01 f0             	add    %rsi,%rax
   17bf3:	48 c1 e0 05          	shl    $0x5,%rax
   17bf7:	48 01 c2             	add    %rax,%rdx
   17bfa:	48 89 c8             	mov    %rcx,%rax
   17bfd:	48 01 c0             	add    %rax,%rax
   17c00:	48 01 c8             	add    %rcx,%rax
   17c03:	48 c1 e0 05          	shl    $0x5,%rax
   17c07:	48 01 c2             	add    %rax,%rdx
   17c0a:	48 8d 05 ef 79 00 00 	lea    0x79ef(%rip),%rax        # 1f600 <g_438>
   17c11:	48 01 d0             	add    %rdx,%rax
   17c14:	0f b7 40 0d          	movzwl 0xd(%rax),%eax
   17c18:	0f b7 c0             	movzwl %ax,%eax
   17c1b:	8b 55 fc             	mov    -0x4(%rbp),%edx
   17c1e:	48 8d 35 3e 2d 00 00 	lea    0x2d3e(%rip),%rsi        # 1a963 <g_386+0x190f>
   17c25:	48 89 c7             	mov    %rax,%rdi
   17c28:	e8 c6 1a ff ff       	callq  96f3 <transparent_crc>
   17c2d:	8b 45 f8             	mov    -0x8(%rbp),%eax
   17c30:	48 98                	cltq   
   17c32:	8b 55 f4             	mov    -0xc(%rbp),%edx
   17c35:	48 63 f2             	movslq %edx,%rsi
   17c38:	8b 55 f0             	mov    -0x10(%rbp),%edx
   17c3b:	48 63 ca             	movslq %edx,%rcx
   17c3e:	48 89 c2             	mov    %rax,%rdx
   17c41:	48 01 d2             	add    %rdx,%rdx
   17c44:	48 01 c2             	add    %rax,%rdx
   17c47:	48 8d 04 d5 00 00 00 	lea    0x0(,%rdx,8),%rax
   17c4e:	00 
   17c4f:	48 89 c2             	mov    %rax,%rdx
   17c52:	48 89 f0             	mov    %rsi,%rax
   17c55:	48 01 c0             	add    %rax,%rax
   17c58:	48 01 f0             	add    %rsi,%rax
   17c5b:	48 c1 e0 05          	shl    $0x5,%rax
   17c5f:	48 01 c2             	add    %rax,%rdx
   17c62:	48 89 c8             	mov    %rcx,%rax
   17c65:	48 01 c0             	add    %rax,%rax
   17c68:	48 01 c8             	add    %rcx,%rax
   17c6b:	48 c1 e0 05          	shl    $0x5,%rax
   17c6f:	48 01 c2             	add    %rax,%rdx
   17c72:	48 8d 05 87 79 00 00 	lea    0x7987(%rip),%rax        # 1f600 <g_438>
   17c79:	48 01 d0             	add    %rdx,%rax
   17c7c:	0f b6 50 0f          	movzbl 0xf(%rax),%edx
   17c80:	0f b7 40 10          	movzwl 0x10(%rax),%eax
   17c84:	25 ff 7f 00 00       	and    $0x7fff,%eax
   17c89:	48 c1 e0 08          	shl    $0x8,%rax
   17c8d:	48 09 d0             	or     %rdx,%rax
   17c90:	48 c1 e0 29          	shl    $0x29,%rax
   17c94:	48 c1 f8 29          	sar    $0x29,%rax
   17c98:	48 98                	cltq   
   17c9a:	8b 55 fc             	mov    -0x4(%rbp),%edx
   17c9d:	48 8d 35 d1 2c 00 00 	lea    0x2cd1(%rip),%rsi        # 1a975 <g_386+0x1921>
   17ca4:	48 89 c7             	mov    %rax,%rdi
   17ca7:	e8 47 1a ff ff       	callq  96f3 <transparent_crc>
   17cac:	8b 45 f8             	mov    -0x8(%rbp),%eax
   17caf:	48 98                	cltq   
   17cb1:	8b 55 f4             	mov    -0xc(%rbp),%edx
   17cb4:	48 63 ca             	movslq %edx,%rcx
   17cb7:	8b 55 f0             	mov    -0x10(%rbp),%edx
   17cba:	48 63 f2             	movslq %edx,%rsi
   17cbd:	48 89 c2             	mov    %rax,%rdx
   17cc0:	48 01 d2             	add    %rdx,%rdx
   17cc3:	48 01 c2             	add    %rax,%rdx
   17cc6:	48 8d 04 d5 00 00 00 	lea    0x0(,%rdx,8),%rax
   17ccd:	00 
   17cce:	48 89 c2             	mov    %rax,%rdx
   17cd1:	48 89 f0             	mov    %rsi,%rax
   17cd4:	48 01 c0             	add    %rax,%rax
   17cd7:	48 01 f0             	add    %rsi,%rax
   17cda:	48 c1 e0 05          	shl    $0x5,%rax
   17cde:	48 01 c2             	add    %rax,%rdx
   17ce1:	48 89 c8             	mov    %rcx,%rax
   17ce4:	48 01 c0             	add    %rax,%rax
   17ce7:	48 01 c8             	add    %rcx,%rax
   17cea:	48 c1 e0 05          	shl    $0x5,%rax
   17cee:	48 01 c2             	add    %rax,%rdx
   17cf1:	48 8d 05 18 79 00 00 	lea    0x7918(%rip),%rax        # 1f610 <g_438+0x10>
   17cf8:	48 01 d0             	add    %rdx,%rax
   17cfb:	8b 40 02             	mov    0x2(%rax),%eax
   17cfe:	89 c1                	mov    %eax,%ecx
   17d00:	8b 45 fc             	mov    -0x4(%rbp),%eax
   17d03:	89 c2                	mov    %eax,%edx
   17d05:	48 8d 35 7b 2c 00 00 	lea    0x2c7b(%rip),%rsi        # 1a987 <g_386+0x1933>
   17d0c:	48 89 cf             	mov    %rcx,%rdi
   17d0f:	e8 df 19 ff ff       	callq  96f3 <transparent_crc>
   17d14:	8b 45 f8             	mov    -0x8(%rbp),%eax
   17d17:	48 98                	cltq   
   17d19:	8b 55 f4             	mov    -0xc(%rbp),%edx
   17d1c:	48 63 ca             	movslq %edx,%rcx
   17d1f:	8b 55 f0             	mov    -0x10(%rbp),%edx
   17d22:	48 63 f2             	movslq %edx,%rsi
   17d25:	48 89 c2             	mov    %rax,%rdx
   17d28:	48 01 d2             	add    %rdx,%rdx
   17d2b:	48 01 c2             	add    %rax,%rdx
   17d2e:	48 8d 04 d5 00 00 00 	lea    0x0(,%rdx,8),%rax
   17d35:	00 
   17d36:	48 89 c2             	mov    %rax,%rdx
   17d39:	48 89 f0             	mov    %rsi,%rax
   17d3c:	48 01 c0             	add    %rax,%rax
   17d3f:	48 01 f0             	add    %rsi,%rax
   17d42:	48 c1 e0 05          	shl    $0x5,%rax
   17d46:	48 01 c2             	add    %rax,%rdx
   17d49:	48 89 c8             	mov    %rcx,%rax
   17d4c:	48 01 c0             	add    %rax,%rax
   17d4f:	48 01 c8             	add    %rcx,%rax
   17d52:	48 c1 e0 05          	shl    $0x5,%rax
   17d56:	48 01 c2             	add    %rax,%rdx
   17d59:	48 8d 05 b6 78 00 00 	lea    0x78b6(%rip),%rax        # 1f616 <g_438+0x16>
   17d60:	48 01 d0             	add    %rdx,%rax
   17d63:	0f b7 00             	movzwl (%rax),%eax
   17d66:	48 0f bf c0          	movswq %ax,%rax
   17d6a:	8b 55 fc             	mov    -0x4(%rbp),%edx
   17d6d:	48 8d 35 25 2c 00 00 	lea    0x2c25(%rip),%rsi        # 1a999 <g_386+0x1945>
   17d74:	48 89 c7             	mov    %rax,%rdi
   17d77:	e8 77 19 ff ff       	callq  96f3 <transparent_crc>
   17d7c:	83 7d fc 00          	cmpl   $0x0,-0x4(%rbp)
   17d80:	74 1c                	je     17d9e <main+0x1929>
   17d82:	8b 4d f8             	mov    -0x8(%rbp),%ecx
   17d85:	8b 55 f4             	mov    -0xc(%rbp),%edx
   17d88:	8b 45 f0             	mov    -0x10(%rbp),%eax
   17d8b:	89 c6                	mov    %eax,%esi
   17d8d:	48 8d 3d c1 29 00 00 	lea    0x29c1(%rip),%rdi        # 1a755 <g_386+0x1701>
   17d94:	b8 00 00 00 00       	mov    $0x0,%eax
   17d99:	e8 e2 02 ff ff       	callq  8080 <printf@plt>
   17d9e:	83 45 f8 01          	addl   $0x1,-0x8(%rbp)
   17da2:	83 7d f8 03          	cmpl   $0x3,-0x8(%rbp)
   17da6:	0f 8e 79 fc ff ff    	jle    17a25 <main+0x15b0>
   17dac:	83 45 f4 01          	addl   $0x1,-0xc(%rbp)
   17db0:	83 7d f4 00          	cmpl   $0x0,-0xc(%rbp)
   17db4:	0f 8e 5f fc ff ff    	jle    17a19 <main+0x15a4>
   17dba:	83 45 f0 01          	addl   $0x1,-0x10(%rbp)
   17dbe:	83 7d f0 01          	cmpl   $0x1,-0x10(%rbp)
   17dc2:	0f 8e 45 fc ff ff    	jle    17a0d <main+0x1598>
   17dc8:	48 8b 05 f1 78 00 00 	mov    0x78f1(%rip),%rax        # 1f6c0 <g_439>
   17dcf:	48 89 c1             	mov    %rax,%rcx
   17dd2:	8b 45 fc             	mov    -0x4(%rbp),%eax
   17dd5:	89 c2                	mov    %eax,%edx
   17dd7:	48 8d 35 cd 2b 00 00 	lea    0x2bcd(%rip),%rsi        # 1a9ab <g_386+0x1957>
   17dde:	48 89 cf             	mov    %rcx,%rdi
   17de1:	e8 0d 19 ff ff       	callq  96f3 <transparent_crc>
   17de6:	0f b6 05 db 78 00 00 	movzbl 0x78db(%rip),%eax        # 1f6c8 <g_439+0x8>
   17ded:	0f b6 c0             	movzbl %al,%eax
   17df0:	8b 55 fc             	mov    -0x4(%rbp),%edx
   17df3:	48 8d 35 ba 2b 00 00 	lea    0x2bba(%rip),%rsi        # 1a9b4 <g_386+0x1960>
   17dfa:	48 89 c7             	mov    %rax,%rdi
   17dfd:	e8 f1 18 ff ff       	callq  96f3 <transparent_crc>
   17e02:	0f b7 05 c0 78 00 00 	movzwl 0x78c0(%rip),%eax        # 1f6c9 <g_439+0x9>
   17e09:	0f b7 c0             	movzwl %ax,%eax
   17e0c:	8b 55 fc             	mov    -0x4(%rbp),%edx
   17e0f:	48 8d 35 a7 2b 00 00 	lea    0x2ba7(%rip),%rsi        # 1a9bd <g_386+0x1969>
   17e16:	48 89 c7             	mov    %rax,%rdi
   17e19:	e8 d5 18 ff ff       	callq  96f3 <transparent_crc>
   17e1e:	0f b7 05 a6 78 00 00 	movzwl 0x78a6(%rip),%eax        # 1f6cb <g_439+0xb>
   17e25:	0f b7 c0             	movzwl %ax,%eax
   17e28:	8b 55 fc             	mov    -0x4(%rbp),%edx
   17e2b:	48 8d 35 94 2b 00 00 	lea    0x2b94(%rip),%rsi        # 1a9c6 <g_386+0x1972>
   17e32:	48 89 c7             	mov    %rax,%rdi
   17e35:	e8 b9 18 ff ff       	callq  96f3 <transparent_crc>
   17e3a:	0f b7 05 8c 78 00 00 	movzwl 0x788c(%rip),%eax        # 1f6cd <g_439+0xd>
   17e41:	0f b7 c0             	movzwl %ax,%eax
   17e44:	8b 55 fc             	mov    -0x4(%rbp),%edx
   17e47:	48 8d 35 81 2b 00 00 	lea    0x2b81(%rip),%rsi        # 1a9cf <g_386+0x197b>
   17e4e:	48 89 c7             	mov    %rax,%rdi
   17e51:	e8 9d 18 ff ff       	callq  96f3 <transparent_crc>
   17e56:	0f b6 05 72 78 00 00 	movzbl 0x7872(%rip),%eax        # 1f6cf <g_439+0xf>
   17e5d:	0f b7 15 6c 78 00 00 	movzwl 0x786c(%rip),%edx        # 1f6d0 <g_439+0x10>
   17e64:	81 e2 ff 7f 00 00    	and    $0x7fff,%edx
   17e6a:	48 c1 e2 08          	shl    $0x8,%rdx
   17e6e:	48 09 d0             	or     %rdx,%rax
   17e71:	48 c1 e0 29          	shl    $0x29,%rax
   17e75:	48 c1 f8 29          	sar    $0x29,%rax
   17e79:	48 98                	cltq   
   17e7b:	8b 55 fc             	mov    -0x4(%rbp),%edx
   17e7e:	48 8d 35 53 2b 00 00 	lea    0x2b53(%rip),%rsi        # 1a9d8 <g_386+0x1984>
   17e85:	48 89 c7             	mov    %rax,%rdi
   17e88:	e8 66 18 ff ff       	callq  96f3 <transparent_crc>
   17e8d:	8b 05 3f 78 00 00    	mov    0x783f(%rip),%eax        # 1f6d2 <g_439+0x12>
   17e93:	89 c1                	mov    %eax,%ecx
   17e95:	8b 45 fc             	mov    -0x4(%rbp),%eax
   17e98:	89 c2                	mov    %eax,%edx
   17e9a:	48 8d 35 40 2b 00 00 	lea    0x2b40(%rip),%rsi        # 1a9e1 <g_386+0x198d>
   17ea1:	48 89 cf             	mov    %rcx,%rdi
   17ea4:	e8 4a 18 ff ff       	callq  96f3 <transparent_crc>
   17ea9:	0f b7 05 26 78 00 00 	movzwl 0x7826(%rip),%eax        # 1f6d6 <g_439+0x16>
   17eb0:	48 0f bf c0          	movswq %ax,%rax
   17eb4:	8b 55 fc             	mov    -0x4(%rbp),%edx
   17eb7:	48 8d 35 2c 2b 00 00 	lea    0x2b2c(%rip),%rsi        # 1a9ea <g_386+0x1996>
   17ebe:	48 89 c7             	mov    %rax,%rdi
   17ec1:	e8 2d 18 ff ff       	callq  96f3 <transparent_crc>
   17ec6:	c7 45 f0 00 00 00 00 	movl   $0x0,-0x10(%rbp)
   17ecd:	e9 f0 01 00 00       	jmpq   180c2 <main+0x1c4d>
   17ed2:	8b 45 f0             	mov    -0x10(%rbp),%eax
   17ed5:	48 63 d0             	movslq %eax,%rdx
   17ed8:	48 89 d0             	mov    %rdx,%rax
   17edb:	48 01 c0             	add    %rax,%rax
   17ede:	48 01 d0             	add    %rdx,%rax
   17ee1:	48 c1 e0 03          	shl    $0x3,%rax
   17ee5:	48 89 c2             	mov    %rax,%rdx
   17ee8:	48 8d 05 f1 77 00 00 	lea    0x77f1(%rip),%rax        # 1f6e0 <g_440>
   17eef:	48 8b 04 02          	mov    (%rdx,%rax,1),%rax
   17ef3:	48 89 c1             	mov    %rax,%rcx
   17ef6:	8b 45 fc             	mov    -0x4(%rbp),%eax
   17ef9:	89 c2                	mov    %eax,%edx
   17efb:	48 8d 35 f1 2a 00 00 	lea    0x2af1(%rip),%rsi        # 1a9f3 <g_386+0x199f>
   17f02:	48 89 cf             	mov    %rcx,%rdi
   17f05:	e8 e9 17 ff ff       	callq  96f3 <transparent_crc>
   17f0a:	8b 45 f0             	mov    -0x10(%rbp),%eax
   17f0d:	48 63 d0             	movslq %eax,%rdx
   17f10:	48 89 d0             	mov    %rdx,%rax
   17f13:	48 01 c0             	add    %rax,%rax
   17f16:	48 01 d0             	add    %rdx,%rax
   17f19:	48 c1 e0 03          	shl    $0x3,%rax
   17f1d:	48 89 c2             	mov    %rax,%rdx
   17f20:	48 8d 05 c1 77 00 00 	lea    0x77c1(%rip),%rax        # 1f6e8 <g_440+0x8>
   17f27:	0f b6 04 02          	movzbl (%rdx,%rax,1),%eax
   17f2b:	0f b6 c0             	movzbl %al,%eax
   17f2e:	8b 55 fc             	mov    -0x4(%rbp),%edx
   17f31:	48 8d 35 c7 2a 00 00 	lea    0x2ac7(%rip),%rsi        # 1a9ff <g_386+0x19ab>
   17f38:	48 89 c7             	mov    %rax,%rdi
   17f3b:	e8 b3 17 ff ff       	callq  96f3 <transparent_crc>
   17f40:	8b 45 f0             	mov    -0x10(%rbp),%eax
   17f43:	48 63 d0             	movslq %eax,%rdx
   17f46:	48 89 d0             	mov    %rdx,%rax
   17f49:	48 01 c0             	add    %rax,%rax
   17f4c:	48 01 d0             	add    %rdx,%rax
   17f4f:	48 c1 e0 03          	shl    $0x3,%rax
   17f53:	48 89 c2             	mov    %rax,%rdx
   17f56:	48 8d 05 83 77 00 00 	lea    0x7783(%rip),%rax        # 1f6e0 <g_440>
   17f5d:	0f b7 44 02 09       	movzwl 0x9(%rdx,%rax,1),%eax
   17f62:	0f b7 c0             	movzwl %ax,%eax
   17f65:	8b 55 fc             	mov    -0x4(%rbp),%edx
   17f68:	48 8d 35 9c 2a 00 00 	lea    0x2a9c(%rip),%rsi        # 1aa0b <g_386+0x19b7>
   17f6f:	48 89 c7             	mov    %rax,%rdi
   17f72:	e8 7c 17 ff ff       	callq  96f3 <transparent_crc>
   17f77:	8b 45 f0             	mov    -0x10(%rbp),%eax
   17f7a:	48 63 d0             	movslq %eax,%rdx
   17f7d:	48 89 d0             	mov    %rdx,%rax
   17f80:	48 01 c0             	add    %rax,%rax
   17f83:	48 01 d0             	add    %rdx,%rax
   17f86:	48 c1 e0 03          	shl    $0x3,%rax
   17f8a:	48 89 c2             	mov    %rax,%rdx
   17f8d:	48 8d 05 4c 77 00 00 	lea    0x774c(%rip),%rax        # 1f6e0 <g_440>
   17f94:	0f b7 44 02 0b       	movzwl 0xb(%rdx,%rax,1),%eax
   17f99:	0f b7 c0             	movzwl %ax,%eax
   17f9c:	8b 55 fc             	mov    -0x4(%rbp),%edx
   17f9f:	48 8d 35 71 2a 00 00 	lea    0x2a71(%rip),%rsi        # 1aa17 <g_386+0x19c3>
   17fa6:	48 89 c7             	mov    %rax,%rdi
   17fa9:	e8 45 17 ff ff       	callq  96f3 <transparent_crc>
   17fae:	8b 45 f0             	mov    -0x10(%rbp),%eax
   17fb1:	48 63 d0             	movslq %eax,%rdx
   17fb4:	48 89 d0             	mov    %rdx,%rax
   17fb7:	48 01 c0             	add    %rax,%rax
   17fba:	48 01 d0             	add    %rdx,%rax
   17fbd:	48 c1 e0 03          	shl    $0x3,%rax
   17fc1:	48 89 c2             	mov    %rax,%rdx
   17fc4:	48 8d 05 15 77 00 00 	lea    0x7715(%rip),%rax        # 1f6e0 <g_440>
   17fcb:	0f b7 44 02 0d       	movzwl 0xd(%rdx,%rax,1),%eax
   17fd0:	0f b7 c0             	movzwl %ax,%eax
   17fd3:	8b 55 fc             	mov    -0x4(%rbp),%edx
   17fd6:	48 8d 35 46 2a 00 00 	lea    0x2a46(%rip),%rsi        # 1aa23 <g_386+0x19cf>
   17fdd:	48 89 c7             	mov    %rax,%rdi
   17fe0:	e8 0e 17 ff ff       	callq  96f3 <transparent_crc>
   17fe5:	8b 45 f0             	mov    -0x10(%rbp),%eax
   17fe8:	48 63 d0             	movslq %eax,%rdx
   17feb:	48 89 d0             	mov    %rdx,%rax
   17fee:	48 01 c0             	add    %rax,%rax
   17ff1:	48 01 d0             	add    %rdx,%rax
   17ff4:	48 c1 e0 03          	shl    $0x3,%rax
   17ff8:	48 89 c2             	mov    %rax,%rdx
   17ffb:	48 8d 05 de 76 00 00 	lea    0x76de(%rip),%rax        # 1f6e0 <g_440>
   18002:	0f b6 4c 02 0f       	movzbl 0xf(%rdx,%rax,1),%ecx
   18007:	0f b7 44 02 10       	movzwl 0x10(%rdx,%rax,1),%eax
   1800c:	25 ff 7f 00 00       	and    $0x7fff,%eax
   18011:	48 c1 e0 08          	shl    $0x8,%rax
   18015:	48 09 c8             	or     %rcx,%rax
   18018:	48 c1 e0 29          	shl    $0x29,%rax
   1801c:	48 c1 f8 29          	sar    $0x29,%rax
   18020:	48 98                	cltq   
   18022:	8b 55 fc             	mov    -0x4(%rbp),%edx
   18025:	48 8d 35 03 2a 00 00 	lea    0x2a03(%rip),%rsi        # 1aa2f <g_386+0x19db>
   1802c:	48 89 c7             	mov    %rax,%rdi
   1802f:	e8 bf 16 ff ff       	callq  96f3 <transparent_crc>
   18034:	8b 45 f0             	mov    -0x10(%rbp),%eax
   18037:	48 63 d0             	movslq %eax,%rdx
   1803a:	48 89 d0             	mov    %rdx,%rax
   1803d:	48 01 c0             	add    %rax,%rax
   18040:	48 01 d0             	add    %rdx,%rax
   18043:	48 c1 e0 03          	shl    $0x3,%rax
   18047:	48 89 c2             	mov    %rax,%rdx
   1804a:	48 8d 05 9f 76 00 00 	lea    0x769f(%rip),%rax        # 1f6f0 <g_440+0x10>
   18051:	8b 44 02 02          	mov    0x2(%rdx,%rax,1),%eax
   18055:	89 c1                	mov    %eax,%ecx
   18057:	8b 45 fc             	mov    -0x4(%rbp),%eax
   1805a:	89 c2                	mov    %eax,%edx
   1805c:	48 8d 35 d8 29 00 00 	lea    0x29d8(%rip),%rsi        # 1aa3b <g_386+0x19e7>
   18063:	48 89 cf             	mov    %rcx,%rdi
   18066:	e8 88 16 ff ff       	callq  96f3 <transparent_crc>
   1806b:	8b 45 f0             	mov    -0x10(%rbp),%eax
   1806e:	48 63 d0             	movslq %eax,%rdx
   18071:	48 89 d0             	mov    %rdx,%rax
   18074:	48 01 c0             	add    %rax,%rax
   18077:	48 01 d0             	add    %rdx,%rax
   1807a:	48 c1 e0 03          	shl    $0x3,%rax
   1807e:	48 89 c2             	mov    %rax,%rdx
   18081:	48 8d 05 6e 76 00 00 	lea    0x766e(%rip),%rax        # 1f6f6 <g_440+0x16>
   18088:	0f b7 04 02          	movzwl (%rdx,%rax,1),%eax
   1808c:	48 0f bf c0          	movswq %ax,%rax
   18090:	8b 55 fc             	mov    -0x4(%rbp),%edx
   18093:	48 8d 35 ad 29 00 00 	lea    0x29ad(%rip),%rsi        # 1aa47 <g_386+0x19f3>
   1809a:	48 89 c7             	mov    %rax,%rdi
   1809d:	e8 51 16 ff ff       	callq  96f3 <transparent_crc>
   180a2:	83 7d fc 00          	cmpl   $0x0,-0x4(%rbp)
   180a6:	74 16                	je     180be <main+0x1c49>
   180a8:	8b 45 f0             	mov    -0x10(%rbp),%eax
   180ab:	89 c6                	mov    %eax,%esi
   180ad:	48 8d 3d 56 23 00 00 	lea    0x2356(%rip),%rdi        # 1a40a <g_386+0x13b6>
   180b4:	b8 00 00 00 00       	mov    $0x0,%eax
   180b9:	e8 c2 ff fe ff       	callq  8080 <printf@plt>
   180be:	83 45 f0 01          	addl   $0x1,-0x10(%rbp)
   180c2:	83 7d f0 06          	cmpl   $0x6,-0x10(%rbp)
   180c6:	0f 8e 06 fe ff ff    	jle    17ed2 <main+0x1a5d>
   180cc:	48 8b 05 bd 76 00 00 	mov    0x76bd(%rip),%rax        # 1f790 <g_441>
   180d3:	48 89 c1             	mov    %rax,%rcx
   180d6:	8b 45 fc             	mov    -0x4(%rbp),%eax
   180d9:	89 c2                	mov    %eax,%edx
   180db:	48 8d 35 71 29 00 00 	lea    0x2971(%rip),%rsi        # 1aa53 <g_386+0x19ff>
   180e2:	48 89 cf             	mov    %rcx,%rdi
   180e5:	e8 09 16 ff ff       	callq  96f3 <transparent_crc>
   180ea:	0f b6 05 a7 76 00 00 	movzbl 0x76a7(%rip),%eax        # 1f798 <g_441+0x8>
   180f1:	0f b6 c0             	movzbl %al,%eax
   180f4:	8b 55 fc             	mov    -0x4(%rbp),%edx
   180f7:	48 8d 35 5e 29 00 00 	lea    0x295e(%rip),%rsi        # 1aa5c <g_386+0x1a08>
   180fe:	48 89 c7             	mov    %rax,%rdi
   18101:	e8 ed 15 ff ff       	callq  96f3 <transparent_crc>
   18106:	0f b7 05 8c 76 00 00 	movzwl 0x768c(%rip),%eax        # 1f799 <g_441+0x9>
   1810d:	0f b7 c0             	movzwl %ax,%eax
   18110:	8b 55 fc             	mov    -0x4(%rbp),%edx
   18113:	48 8d 35 4b 29 00 00 	lea    0x294b(%rip),%rsi        # 1aa65 <g_386+0x1a11>
   1811a:	48 89 c7             	mov    %rax,%rdi
   1811d:	e8 d1 15 ff ff       	callq  96f3 <transparent_crc>
   18122:	0f b7 05 72 76 00 00 	movzwl 0x7672(%rip),%eax        # 1f79b <g_441+0xb>
   18129:	0f b7 c0             	movzwl %ax,%eax
   1812c:	8b 55 fc             	mov    -0x4(%rbp),%edx
   1812f:	48 8d 35 38 29 00 00 	lea    0x2938(%rip),%rsi        # 1aa6e <g_386+0x1a1a>
   18136:	48 89 c7             	mov    %rax,%rdi
   18139:	e8 b5 15 ff ff       	callq  96f3 <transparent_crc>
   1813e:	0f b7 05 58 76 00 00 	movzwl 0x7658(%rip),%eax        # 1f79d <g_441+0xd>
   18145:	0f b7 c0             	movzwl %ax,%eax
   18148:	8b 55 fc             	mov    -0x4(%rbp),%edx
   1814b:	48 8d 35 25 29 00 00 	lea    0x2925(%rip),%rsi        # 1aa77 <g_386+0x1a23>
   18152:	48 89 c7             	mov    %rax,%rdi
   18155:	e8 99 15 ff ff       	callq  96f3 <transparent_crc>
   1815a:	0f b6 05 3e 76 00 00 	movzbl 0x763e(%rip),%eax        # 1f79f <g_441+0xf>
   18161:	0f b7 15 38 76 00 00 	movzwl 0x7638(%rip),%edx        # 1f7a0 <g_441+0x10>
   18168:	81 e2 ff 7f 00 00    	and    $0x7fff,%edx
   1816e:	48 c1 e2 08          	shl    $0x8,%rdx
   18172:	48 09 d0             	or     %rdx,%rax
   18175:	48 c1 e0 29          	shl    $0x29,%rax
   18179:	48 c1 f8 29          	sar    $0x29,%rax
   1817d:	48 98                	cltq   
   1817f:	8b 55 fc             	mov    -0x4(%rbp),%edx
   18182:	48 8d 35 f7 28 00 00 	lea    0x28f7(%rip),%rsi        # 1aa80 <g_386+0x1a2c>
   18189:	48 89 c7             	mov    %rax,%rdi
   1818c:	e8 62 15 ff ff       	callq  96f3 <transparent_crc>
   18191:	8b 05 0b 76 00 00    	mov    0x760b(%rip),%eax        # 1f7a2 <g_441+0x12>
   18197:	89 c1                	mov    %eax,%ecx
   18199:	8b 45 fc             	mov    -0x4(%rbp),%eax
   1819c:	89 c2                	mov    %eax,%edx
   1819e:	48 8d 35 e4 28 00 00 	lea    0x28e4(%rip),%rsi        # 1aa89 <g_386+0x1a35>
   181a5:	48 89 cf             	mov    %rcx,%rdi
   181a8:	e8 46 15 ff ff       	callq  96f3 <transparent_crc>
   181ad:	0f b7 05 f2 75 00 00 	movzwl 0x75f2(%rip),%eax        # 1f7a6 <g_441+0x16>
   181b4:	48 0f bf c0          	movswq %ax,%rax
   181b8:	8b 55 fc             	mov    -0x4(%rbp),%edx
   181bb:	48 8d 35 d0 28 00 00 	lea    0x28d0(%rip),%rsi        # 1aa92 <g_386+0x1a3e>
   181c2:	48 89 c7             	mov    %rax,%rdi
   181c5:	e8 29 15 ff ff       	callq  96f3 <transparent_crc>
   181ca:	48 8b 05 df 75 00 00 	mov    0x75df(%rip),%rax        # 1f7b0 <g_442>
   181d1:	48 89 c1             	mov    %rax,%rcx
   181d4:	8b 45 fc             	mov    -0x4(%rbp),%eax
   181d7:	89 c2                	mov    %eax,%edx
   181d9:	48 8d 35 bb 28 00 00 	lea    0x28bb(%rip),%rsi        # 1aa9b <g_386+0x1a47>
   181e0:	48 89 cf             	mov    %rcx,%rdi
   181e3:	e8 0b 15 ff ff       	callq  96f3 <transparent_crc>
   181e8:	0f b6 05 c9 75 00 00 	movzbl 0x75c9(%rip),%eax        # 1f7b8 <g_442+0x8>
   181ef:	0f b6 c0             	movzbl %al,%eax
   181f2:	8b 55 fc             	mov    -0x4(%rbp),%edx
   181f5:	48 8d 35 a8 28 00 00 	lea    0x28a8(%rip),%rsi        # 1aaa4 <g_386+0x1a50>
   181fc:	48 89 c7             	mov    %rax,%rdi
   181ff:	e8 ef 14 ff ff       	callq  96f3 <transparent_crc>
   18204:	0f b7 05 ae 75 00 00 	movzwl 0x75ae(%rip),%eax        # 1f7b9 <g_442+0x9>
   1820b:	0f b7 c0             	movzwl %ax,%eax
   1820e:	8b 55 fc             	mov    -0x4(%rbp),%edx
   18211:	48 8d 35 95 28 00 00 	lea    0x2895(%rip),%rsi        # 1aaad <g_386+0x1a59>
   18218:	48 89 c7             	mov    %rax,%rdi
   1821b:	e8 d3 14 ff ff       	callq  96f3 <transparent_crc>
   18220:	0f b7 05 94 75 00 00 	movzwl 0x7594(%rip),%eax        # 1f7bb <g_442+0xb>
   18227:	0f b7 c0             	movzwl %ax,%eax
   1822a:	8b 55 fc             	mov    -0x4(%rbp),%edx
   1822d:	48 8d 35 82 28 00 00 	lea    0x2882(%rip),%rsi        # 1aab6 <g_386+0x1a62>
   18234:	48 89 c7             	mov    %rax,%rdi
   18237:	e8 b7 14 ff ff       	callq  96f3 <transparent_crc>
   1823c:	0f b7 05 7a 75 00 00 	movzwl 0x757a(%rip),%eax        # 1f7bd <g_442+0xd>
   18243:	0f b7 c0             	movzwl %ax,%eax
   18246:	8b 55 fc             	mov    -0x4(%rbp),%edx
   18249:	48 8d 35 6f 28 00 00 	lea    0x286f(%rip),%rsi        # 1aabf <g_386+0x1a6b>
   18250:	48 89 c7             	mov    %rax,%rdi
   18253:	e8 9b 14 ff ff       	callq  96f3 <transparent_crc>
   18258:	0f b6 05 60 75 00 00 	movzbl 0x7560(%rip),%eax        # 1f7bf <g_442+0xf>
   1825f:	0f b7 15 5a 75 00 00 	movzwl 0x755a(%rip),%edx        # 1f7c0 <g_442+0x10>
   18266:	81 e2 ff 7f 00 00    	and    $0x7fff,%edx
   1826c:	48 c1 e2 08          	shl    $0x8,%rdx
   18270:	48 09 d0             	or     %rdx,%rax
   18273:	48 c1 e0 29          	shl    $0x29,%rax
   18277:	48 c1 f8 29          	sar    $0x29,%rax
   1827b:	48 98                	cltq   
   1827d:	8b 55 fc             	mov    -0x4(%rbp),%edx
   18280:	48 8d 35 41 28 00 00 	lea    0x2841(%rip),%rsi        # 1aac8 <g_386+0x1a74>
   18287:	48 89 c7             	mov    %rax,%rdi
   1828a:	e8 64 14 ff ff       	callq  96f3 <transparent_crc>
   1828f:	8b 05 2d 75 00 00    	mov    0x752d(%rip),%eax        # 1f7c2 <g_442+0x12>
   18295:	89 c1                	mov    %eax,%ecx
   18297:	8b 45 fc             	mov    -0x4(%rbp),%eax
   1829a:	89 c2                	mov    %eax,%edx
   1829c:	48 8d 35 2e 28 00 00 	lea    0x282e(%rip),%rsi        # 1aad1 <g_386+0x1a7d>
   182a3:	48 89 cf             	mov    %rcx,%rdi
   182a6:	e8 48 14 ff ff       	callq  96f3 <transparent_crc>
   182ab:	0f b7 05 14 75 00 00 	movzwl 0x7514(%rip),%eax        # 1f7c6 <g_442+0x16>
   182b2:	48 0f bf c0          	movswq %ax,%rax
   182b6:	8b 55 fc             	mov    -0x4(%rbp),%edx
   182b9:	48 8d 35 1a 28 00 00 	lea    0x281a(%rip),%rsi        # 1aada <g_386+0x1a86>
   182c0:	48 89 c7             	mov    %rax,%rdi
   182c3:	e8 2b 14 ff ff       	callq  96f3 <transparent_crc>
   182c8:	48 8b 05 01 75 00 00 	mov    0x7501(%rip),%rax        # 1f7d0 <g_443>
   182cf:	48 89 c1             	mov    %rax,%rcx
   182d2:	8b 45 fc             	mov    -0x4(%rbp),%eax
   182d5:	89 c2                	mov    %eax,%edx
   182d7:	48 8d 35 05 28 00 00 	lea    0x2805(%rip),%rsi        # 1aae3 <g_386+0x1a8f>
   182de:	48 89 cf             	mov    %rcx,%rdi
   182e1:	e8 0d 14 ff ff       	callq  96f3 <transparent_crc>
   182e6:	0f b6 05 eb 74 00 00 	movzbl 0x74eb(%rip),%eax        # 1f7d8 <g_443+0x8>
   182ed:	0f b6 c0             	movzbl %al,%eax
   182f0:	8b 55 fc             	mov    -0x4(%rbp),%edx
   182f3:	48 8d 35 f2 27 00 00 	lea    0x27f2(%rip),%rsi        # 1aaec <g_386+0x1a98>
   182fa:	48 89 c7             	mov    %rax,%rdi
   182fd:	e8 f1 13 ff ff       	callq  96f3 <transparent_crc>
   18302:	0f b7 05 d0 74 00 00 	movzwl 0x74d0(%rip),%eax        # 1f7d9 <g_443+0x9>
   18309:	0f b7 c0             	movzwl %ax,%eax
   1830c:	8b 55 fc             	mov    -0x4(%rbp),%edx
   1830f:	48 8d 35 df 27 00 00 	lea    0x27df(%rip),%rsi        # 1aaf5 <g_386+0x1aa1>
   18316:	48 89 c7             	mov    %rax,%rdi
   18319:	e8 d5 13 ff ff       	callq  96f3 <transparent_crc>
   1831e:	0f b7 05 b6 74 00 00 	movzwl 0x74b6(%rip),%eax        # 1f7db <g_443+0xb>
   18325:	0f b7 c0             	movzwl %ax,%eax
   18328:	8b 55 fc             	mov    -0x4(%rbp),%edx
   1832b:	48 8d 35 cc 27 00 00 	lea    0x27cc(%rip),%rsi        # 1aafe <g_386+0x1aaa>
   18332:	48 89 c7             	mov    %rax,%rdi
   18335:	e8 b9 13 ff ff       	callq  96f3 <transparent_crc>
   1833a:	0f b7 05 9c 74 00 00 	movzwl 0x749c(%rip),%eax        # 1f7dd <g_443+0xd>
   18341:	0f b7 c0             	movzwl %ax,%eax
   18344:	8b 55 fc             	mov    -0x4(%rbp),%edx
   18347:	48 8d 35 b9 27 00 00 	lea    0x27b9(%rip),%rsi        # 1ab07 <g_386+0x1ab3>
   1834e:	48 89 c7             	mov    %rax,%rdi
   18351:	e8 9d 13 ff ff       	callq  96f3 <transparent_crc>
   18356:	0f b6 05 82 74 00 00 	movzbl 0x7482(%rip),%eax        # 1f7df <g_443+0xf>
   1835d:	0f b7 15 7c 74 00 00 	movzwl 0x747c(%rip),%edx        # 1f7e0 <g_443+0x10>
   18364:	81 e2 ff 7f 00 00    	and    $0x7fff,%edx
   1836a:	48 c1 e2 08          	shl    $0x8,%rdx
   1836e:	48 09 d0             	or     %rdx,%rax
   18371:	48 c1 e0 29          	shl    $0x29,%rax
   18375:	48 c1 f8 29          	sar    $0x29,%rax
   18379:	48 98                	cltq   
   1837b:	8b 55 fc             	mov    -0x4(%rbp),%edx
   1837e:	48 8d 35 8b 27 00 00 	lea    0x278b(%rip),%rsi        # 1ab10 <g_386+0x1abc>
   18385:	48 89 c7             	mov    %rax,%rdi
   18388:	e8 66 13 ff ff       	callq  96f3 <transparent_crc>
   1838d:	8b 05 4f 74 00 00    	mov    0x744f(%rip),%eax        # 1f7e2 <g_443+0x12>
   18393:	89 c1                	mov    %eax,%ecx
   18395:	8b 45 fc             	mov    -0x4(%rbp),%eax
   18398:	89 c2                	mov    %eax,%edx
   1839a:	48 8d 35 78 27 00 00 	lea    0x2778(%rip),%rsi        # 1ab19 <g_386+0x1ac5>
   183a1:	48 89 cf             	mov    %rcx,%rdi
   183a4:	e8 4a 13 ff ff       	callq  96f3 <transparent_crc>
   183a9:	0f b7 05 36 74 00 00 	movzwl 0x7436(%rip),%eax        # 1f7e6 <g_443+0x16>
   183b0:	48 0f bf c0          	movswq %ax,%rax
   183b4:	8b 55 fc             	mov    -0x4(%rbp),%edx
   183b7:	48 8d 35 64 27 00 00 	lea    0x2764(%rip),%rsi        # 1ab22 <g_386+0x1ace>
   183be:	48 89 c7             	mov    %rax,%rdi
   183c1:	e8 2d 13 ff ff       	callq  96f3 <transparent_crc>
   183c6:	8b 05 1c 74 00 00    	mov    0x741c(%rip),%eax        # 1f7e8 <g_619>
   183cc:	48 98                	cltq   
   183ce:	8b 55 fc             	mov    -0x4(%rbp),%edx
   183d1:	48 8d 35 53 27 00 00 	lea    0x2753(%rip),%rsi        # 1ab2b <g_386+0x1ad7>
   183d8:	48 89 c7             	mov    %rax,%rdi
   183db:	e8 13 13 ff ff       	callq  96f3 <transparent_crc>
   183e0:	48 8b 05 09 74 00 00 	mov    0x7409(%rip),%rax        # 1f7f0 <g_743>
   183e7:	48 89 c1             	mov    %rax,%rcx
   183ea:	8b 45 fc             	mov    -0x4(%rbp),%eax
   183ed:	89 c2                	mov    %eax,%edx
   183ef:	48 8d 35 3b 27 00 00 	lea    0x273b(%rip),%rsi        # 1ab31 <g_386+0x1add>
   183f6:	48 89 cf             	mov    %rcx,%rdi
   183f9:	e8 f5 12 ff ff       	callq  96f3 <transparent_crc>
   183fe:	48 8b 05 f3 73 00 00 	mov    0x73f3(%rip),%rax        # 1f7f8 <g_744>
   18405:	48 89 c1             	mov    %rax,%rcx
   18408:	8b 45 fc             	mov    -0x4(%rbp),%eax
   1840b:	89 c2                	mov    %eax,%edx
   1840d:	48 8d 35 23 27 00 00 	lea    0x2723(%rip),%rsi        # 1ab37 <g_386+0x1ae3>
   18414:	48 89 cf             	mov    %rcx,%rdi
   18417:	e8 d7 12 ff ff       	callq  96f3 <transparent_crc>
   1841c:	48 8b 05 dd 73 00 00 	mov    0x73dd(%rip),%rax        # 1f800 <g_780>
   18423:	48 89 c1             	mov    %rax,%rcx
   18426:	8b 45 fc             	mov    -0x4(%rbp),%eax
   18429:	89 c2                	mov    %eax,%edx
   1842b:	48 8d 35 0b 27 00 00 	lea    0x270b(%rip),%rsi        # 1ab3d <g_386+0x1ae9>
   18432:	48 89 cf             	mov    %rcx,%rdi
   18435:	e8 b9 12 ff ff       	callq  96f3 <transparent_crc>
   1843a:	0f b6 05 c7 73 00 00 	movzbl 0x73c7(%rip),%eax        # 1f808 <g_780+0x8>
   18441:	0f b6 c0             	movzbl %al,%eax
   18444:	8b 55 fc             	mov    -0x4(%rbp),%edx
   18447:	48 8d 35 f8 26 00 00 	lea    0x26f8(%rip),%rsi        # 1ab46 <g_386+0x1af2>
   1844e:	48 89 c7             	mov    %rax,%rdi
   18451:	e8 9d 12 ff ff       	callq  96f3 <transparent_crc>
   18456:	0f b7 05 ac 73 00 00 	movzwl 0x73ac(%rip),%eax        # 1f809 <g_780+0x9>
   1845d:	0f b7 c0             	movzwl %ax,%eax
   18460:	8b 55 fc             	mov    -0x4(%rbp),%edx
   18463:	48 8d 35 e5 26 00 00 	lea    0x26e5(%rip),%rsi        # 1ab4f <g_386+0x1afb>
   1846a:	48 89 c7             	mov    %rax,%rdi
   1846d:	e8 81 12 ff ff       	callq  96f3 <transparent_crc>
   18472:	0f b7 05 92 73 00 00 	movzwl 0x7392(%rip),%eax        # 1f80b <g_780+0xb>
   18479:	0f b7 c0             	movzwl %ax,%eax
   1847c:	8b 55 fc             	mov    -0x4(%rbp),%edx
   1847f:	48 8d 35 d2 26 00 00 	lea    0x26d2(%rip),%rsi        # 1ab58 <g_386+0x1b04>
   18486:	48 89 c7             	mov    %rax,%rdi
   18489:	e8 65 12 ff ff       	callq  96f3 <transparent_crc>
   1848e:	0f b7 05 78 73 00 00 	movzwl 0x7378(%rip),%eax        # 1f80d <g_780+0xd>
   18495:	0f b7 c0             	movzwl %ax,%eax
   18498:	8b 55 fc             	mov    -0x4(%rbp),%edx
   1849b:	48 8d 35 bf 26 00 00 	lea    0x26bf(%rip),%rsi        # 1ab61 <g_386+0x1b0d>
   184a2:	48 89 c7             	mov    %rax,%rdi
   184a5:	e8 49 12 ff ff       	callq  96f3 <transparent_crc>
   184aa:	0f b6 05 5e 73 00 00 	movzbl 0x735e(%rip),%eax        # 1f80f <g_780+0xf>
   184b1:	0f b7 15 58 73 00 00 	movzwl 0x7358(%rip),%edx        # 1f810 <g_780+0x10>
   184b8:	81 e2 ff 7f 00 00    	and    $0x7fff,%edx
   184be:	48 c1 e2 08          	shl    $0x8,%rdx
   184c2:	48 09 d0             	or     %rdx,%rax
   184c5:	48 c1 e0 29          	shl    $0x29,%rax
   184c9:	48 c1 f8 29          	sar    $0x29,%rax
   184cd:	48 98                	cltq   
   184cf:	8b 55 fc             	mov    -0x4(%rbp),%edx
   184d2:	48 8d 35 91 26 00 00 	lea    0x2691(%rip),%rsi        # 1ab6a <g_386+0x1b16>
   184d9:	48 89 c7             	mov    %rax,%rdi
   184dc:	e8 12 12 ff ff       	callq  96f3 <transparent_crc>
   184e1:	8b 05 2b 73 00 00    	mov    0x732b(%rip),%eax        # 1f812 <g_780+0x12>
   184e7:	89 c1                	mov    %eax,%ecx
   184e9:	8b 45 fc             	mov    -0x4(%rbp),%eax
   184ec:	89 c2                	mov    %eax,%edx
   184ee:	48 8d 35 7e 26 00 00 	lea    0x267e(%rip),%rsi        # 1ab73 <g_386+0x1b1f>
   184f5:	48 89 cf             	mov    %rcx,%rdi
   184f8:	e8 f6 11 ff ff       	callq  96f3 <transparent_crc>
   184fd:	0f b7 05 12 73 00 00 	movzwl 0x7312(%rip),%eax        # 1f816 <g_780+0x16>
   18504:	48 0f bf c0          	movswq %ax,%rax
   18508:	8b 55 fc             	mov    -0x4(%rbp),%edx
   1850b:	48 8d 35 6a 26 00 00 	lea    0x266a(%rip),%rsi        # 1ab7c <g_386+0x1b28>
   18512:	48 89 c7             	mov    %rax,%rdi
   18515:	e8 d9 11 ff ff       	callq  96f3 <transparent_crc>
   1851a:	48 8b 05 ff 72 00 00 	mov    0x72ff(%rip),%rax        # 1f820 <g_782>
   18521:	48 89 c1             	mov    %rax,%rcx
   18524:	8b 45 fc             	mov    -0x4(%rbp),%eax
   18527:	89 c2                	mov    %eax,%edx
   18529:	48 8d 35 55 26 00 00 	lea    0x2655(%rip),%rsi        # 1ab85 <g_386+0x1b31>
   18530:	48 89 cf             	mov    %rcx,%rdi
   18533:	e8 bb 11 ff ff       	callq  96f3 <transparent_crc>
   18538:	0f b6 05 e9 72 00 00 	movzbl 0x72e9(%rip),%eax        # 1f828 <g_782+0x8>
   1853f:	0f b6 c0             	movzbl %al,%eax
   18542:	8b 55 fc             	mov    -0x4(%rbp),%edx
   18545:	48 8d 35 42 26 00 00 	lea    0x2642(%rip),%rsi        # 1ab8e <g_386+0x1b3a>
   1854c:	48 89 c7             	mov    %rax,%rdi
   1854f:	e8 9f 11 ff ff       	callq  96f3 <transparent_crc>
   18554:	0f b7 05 ce 72 00 00 	movzwl 0x72ce(%rip),%eax        # 1f829 <g_782+0x9>
   1855b:	0f b7 c0             	movzwl %ax,%eax
   1855e:	8b 55 fc             	mov    -0x4(%rbp),%edx
   18561:	48 8d 35 2f 26 00 00 	lea    0x262f(%rip),%rsi        # 1ab97 <g_386+0x1b43>
   18568:	48 89 c7             	mov    %rax,%rdi
   1856b:	e8 83 11 ff ff       	callq  96f3 <transparent_crc>
   18570:	0f b7 05 b4 72 00 00 	movzwl 0x72b4(%rip),%eax        # 1f82b <g_782+0xb>
   18577:	0f b7 c0             	movzwl %ax,%eax
   1857a:	8b 55 fc             	mov    -0x4(%rbp),%edx
   1857d:	48 8d 35 1c 26 00 00 	lea    0x261c(%rip),%rsi        # 1aba0 <g_386+0x1b4c>
   18584:	48 89 c7             	mov    %rax,%rdi
   18587:	e8 67 11 ff ff       	callq  96f3 <transparent_crc>
   1858c:	0f b7 05 9a 72 00 00 	movzwl 0x729a(%rip),%eax        # 1f82d <g_782+0xd>
   18593:	0f b7 c0             	movzwl %ax,%eax
   18596:	8b 55 fc             	mov    -0x4(%rbp),%edx
   18599:	48 8d 35 09 26 00 00 	lea    0x2609(%rip),%rsi        # 1aba9 <g_386+0x1b55>
   185a0:	48 89 c7             	mov    %rax,%rdi
   185a3:	e8 4b 11 ff ff       	callq  96f3 <transparent_crc>
   185a8:	0f b6 05 80 72 00 00 	movzbl 0x7280(%rip),%eax        # 1f82f <g_782+0xf>
   185af:	0f b7 15 7a 72 00 00 	movzwl 0x727a(%rip),%edx        # 1f830 <g_782+0x10>
   185b6:	81 e2 ff 7f 00 00    	and    $0x7fff,%edx
   185bc:	48 c1 e2 08          	shl    $0x8,%rdx
   185c0:	48 09 d0             	or     %rdx,%rax
   185c3:	48 c1 e0 29          	shl    $0x29,%rax
   185c7:	48 c1 f8 29          	sar    $0x29,%rax
   185cb:	48 98                	cltq   
   185cd:	8b 55 fc             	mov    -0x4(%rbp),%edx
   185d0:	48 8d 35 db 25 00 00 	lea    0x25db(%rip),%rsi        # 1abb2 <g_386+0x1b5e>
   185d7:	48 89 c7             	mov    %rax,%rdi
   185da:	e8 14 11 ff ff       	callq  96f3 <transparent_crc>
   185df:	8b 05 4d 72 00 00    	mov    0x724d(%rip),%eax        # 1f832 <g_782+0x12>
   185e5:	89 c1                	mov    %eax,%ecx
   185e7:	8b 45 fc             	mov    -0x4(%rbp),%eax
   185ea:	89 c2                	mov    %eax,%edx
   185ec:	48 8d 35 c8 25 00 00 	lea    0x25c8(%rip),%rsi        # 1abbb <g_386+0x1b67>
   185f3:	48 89 cf             	mov    %rcx,%rdi
   185f6:	e8 f8 10 ff ff       	callq  96f3 <transparent_crc>
   185fb:	0f b7 05 34 72 00 00 	movzwl 0x7234(%rip),%eax        # 1f836 <g_782+0x16>
   18602:	48 0f bf c0          	movswq %ax,%rax
   18606:	8b 55 fc             	mov    -0x4(%rbp),%edx
   18609:	48 8d 35 b4 25 00 00 	lea    0x25b4(%rip),%rsi        # 1abc4 <g_386+0x1b70>
   18610:	48 89 c7             	mov    %rax,%rdi
   18613:	e8 db 10 ff ff       	callq  96f3 <transparent_crc>
   18618:	c7 45 f0 00 00 00 00 	movl   $0x0,-0x10(%rbp)
   1861f:	eb 4a                	jmp    1866b <main+0x21f6>
   18621:	8b 45 f0             	mov    -0x10(%rbp),%eax
   18624:	48 98                	cltq   
   18626:	48 8d 14 00          	lea    (%rax,%rax,1),%rdx
   1862a:	48 8d 05 07 72 00 00 	lea    0x7207(%rip),%rax        # 1f838 <g_783>
   18631:	0f b7 04 02          	movzwl (%rdx,%rax,1),%eax
   18635:	48 0f bf c0          	movswq %ax,%rax
   18639:	8b 55 fc             	mov    -0x4(%rbp),%edx
   1863c:	48 8d 35 8a 25 00 00 	lea    0x258a(%rip),%rsi        # 1abcd <g_386+0x1b79>
   18643:	48 89 c7             	mov    %rax,%rdi
   18646:	e8 a8 10 ff ff       	callq  96f3 <transparent_crc>
   1864b:	83 7d fc 00          	cmpl   $0x0,-0x4(%rbp)
   1864f:	74 16                	je     18667 <main+0x21f2>
   18651:	8b 45 f0             	mov    -0x10(%rbp),%eax
   18654:	89 c6                	mov    %eax,%esi
   18656:	48 8d 3d ad 1d 00 00 	lea    0x1dad(%rip),%rdi        # 1a40a <g_386+0x13b6>
   1865d:	b8 00 00 00 00       	mov    $0x0,%eax
   18662:	e8 19 fa fe ff       	callq  8080 <printf@plt>
   18667:	83 45 f0 01          	addl   $0x1,-0x10(%rbp)
   1866b:	83 7d f0 01          	cmpl   $0x1,-0x10(%rbp)
   1866f:	7e b0                	jle    18621 <main+0x21ac>
   18671:	0f b6 05 c4 71 00 00 	movzbl 0x71c4(%rip),%eax        # 1f83c <g_836>
   18678:	48 0f be c0          	movsbq %al,%rax
   1867c:	8b 55 fc             	mov    -0x4(%rbp),%edx
   1867f:	48 8d 35 50 25 00 00 	lea    0x2550(%rip),%rsi        # 1abd6 <g_386+0x1b82>
   18686:	48 89 c7             	mov    %rax,%rdi
   18689:	e8 65 10 ff ff       	callq  96f3 <transparent_crc>
   1868e:	8b 05 ac 71 00 00    	mov    0x71ac(%rip),%eax        # 1f840 <g_910>
   18694:	89 c1                	mov    %eax,%ecx
   18696:	8b 45 fc             	mov    -0x4(%rbp),%eax
   18699:	89 c2                	mov    %eax,%edx
   1869b:	48 8d 35 3a 25 00 00 	lea    0x253a(%rip),%rsi        # 1abdc <g_386+0x1b88>
   186a2:	48 89 cf             	mov    %rcx,%rdi
   186a5:	e8 49 10 ff ff       	callq  96f3 <transparent_crc>
   186aa:	48 8b 05 9f 71 00 00 	mov    0x719f(%rip),%rax        # 1f850 <g_924>
   186b1:	48 89 c1             	mov    %rax,%rcx
   186b4:	8b 45 fc             	mov    -0x4(%rbp),%eax
   186b7:	89 c2                	mov    %eax,%edx
   186b9:	48 8d 35 22 25 00 00 	lea    0x2522(%rip),%rsi        # 1abe2 <g_386+0x1b8e>
   186c0:	48 89 cf             	mov    %rcx,%rdi
   186c3:	e8 2b 10 ff ff       	callq  96f3 <transparent_crc>
   186c8:	0f b6 05 89 71 00 00 	movzbl 0x7189(%rip),%eax        # 1f858 <g_924+0x8>
   186cf:	0f b6 c0             	movzbl %al,%eax
   186d2:	8b 55 fc             	mov    -0x4(%rbp),%edx
   186d5:	48 8d 35 0f 25 00 00 	lea    0x250f(%rip),%rsi        # 1abeb <g_386+0x1b97>
   186dc:	48 89 c7             	mov    %rax,%rdi
   186df:	e8 0f 10 ff ff       	callq  96f3 <transparent_crc>
   186e4:	0f b7 05 6e 71 00 00 	movzwl 0x716e(%rip),%eax        # 1f859 <g_924+0x9>
   186eb:	0f b7 c0             	movzwl %ax,%eax
   186ee:	8b 55 fc             	mov    -0x4(%rbp),%edx
   186f1:	48 8d 35 fc 24 00 00 	lea    0x24fc(%rip),%rsi        # 1abf4 <g_386+0x1ba0>
   186f8:	48 89 c7             	mov    %rax,%rdi
   186fb:	e8 f3 0f ff ff       	callq  96f3 <transparent_crc>
   18700:	0f b7 05 54 71 00 00 	movzwl 0x7154(%rip),%eax        # 1f85b <g_924+0xb>
   18707:	0f b7 c0             	movzwl %ax,%eax
   1870a:	8b 55 fc             	mov    -0x4(%rbp),%edx
   1870d:	48 8d 35 e9 24 00 00 	lea    0x24e9(%rip),%rsi        # 1abfd <g_386+0x1ba9>
   18714:	48 89 c7             	mov    %rax,%rdi
   18717:	e8 d7 0f ff ff       	callq  96f3 <transparent_crc>
   1871c:	0f b7 05 3a 71 00 00 	movzwl 0x713a(%rip),%eax        # 1f85d <g_924+0xd>
   18723:	0f b7 c0             	movzwl %ax,%eax
   18726:	8b 55 fc             	mov    -0x4(%rbp),%edx
   18729:	48 8d 35 d6 24 00 00 	lea    0x24d6(%rip),%rsi        # 1ac06 <g_386+0x1bb2>
   18730:	48 89 c7             	mov    %rax,%rdi
   18733:	e8 bb 0f ff ff       	callq  96f3 <transparent_crc>
   18738:	0f b6 05 20 71 00 00 	movzbl 0x7120(%rip),%eax        # 1f85f <g_924+0xf>
   1873f:	0f b7 15 1a 71 00 00 	movzwl 0x711a(%rip),%edx        # 1f860 <g_924+0x10>
   18746:	81 e2 ff 7f 00 00    	and    $0x7fff,%edx
   1874c:	48 c1 e2 08          	shl    $0x8,%rdx
   18750:	48 09 d0             	or     %rdx,%rax
   18753:	48 c1 e0 29          	shl    $0x29,%rax
   18757:	48 c1 f8 29          	sar    $0x29,%rax
   1875b:	48 98                	cltq   
   1875d:	8b 55 fc             	mov    -0x4(%rbp),%edx
   18760:	48 8d 35 a8 24 00 00 	lea    0x24a8(%rip),%rsi        # 1ac0f <g_386+0x1bbb>
   18767:	48 89 c7             	mov    %rax,%rdi
   1876a:	e8 84 0f ff ff       	callq  96f3 <transparent_crc>
   1876f:	8b 05 ed 70 00 00    	mov    0x70ed(%rip),%eax        # 1f862 <g_924+0x12>
   18775:	89 c1                	mov    %eax,%ecx
   18777:	8b 45 fc             	mov    -0x4(%rbp),%eax
   1877a:	89 c2                	mov    %eax,%edx
   1877c:	48 8d 35 95 24 00 00 	lea    0x2495(%rip),%rsi        # 1ac18 <g_386+0x1bc4>
   18783:	48 89 cf             	mov    %rcx,%rdi
   18786:	e8 68 0f ff ff       	callq  96f3 <transparent_crc>
   1878b:	0f b7 05 d4 70 00 00 	movzwl 0x70d4(%rip),%eax        # 1f866 <g_924+0x16>
   18792:	48 0f bf c0          	movswq %ax,%rax
   18796:	8b 55 fc             	mov    -0x4(%rbp),%edx
   18799:	48 8d 35 81 24 00 00 	lea    0x2481(%rip),%rsi        # 1ac21 <g_386+0x1bcd>
   187a0:	48 89 c7             	mov    %rax,%rdi
   187a3:	e8 4b 0f ff ff       	callq  96f3 <transparent_crc>
   187a8:	0f b6 05 b9 70 00 00 	movzbl 0x70b9(%rip),%eax        # 1f868 <g_941>
   187af:	48 0f be c0          	movsbq %al,%rax
   187b3:	8b 55 fc             	mov    -0x4(%rbp),%edx
   187b6:	48 8d 35 6d 24 00 00 	lea    0x246d(%rip),%rsi        # 1ac2a <g_386+0x1bd6>
   187bd:	48 89 c7             	mov    %rax,%rdi
   187c0:	e8 2e 0f ff ff       	callq  96f3 <transparent_crc>
   187c5:	0f b7 05 9e 70 00 00 	movzwl 0x709e(%rip),%eax        # 1f86a <g_1059>
   187cc:	48 0f bf c0          	movswq %ax,%rax
   187d0:	8b 55 fc             	mov    -0x4(%rbp),%edx
   187d3:	48 8d 35 56 24 00 00 	lea    0x2456(%rip),%rsi        # 1ac30 <g_386+0x1bdc>
   187da:	48 89 c7             	mov    %rax,%rdi
   187dd:	e8 11 0f ff ff       	callq  96f3 <transparent_crc>
   187e2:	48 8b 05 87 70 00 00 	mov    0x7087(%rip),%rax        # 1f870 <g_1081>
   187e9:	48 89 c1             	mov    %rax,%rcx
   187ec:	8b 45 fc             	mov    -0x4(%rbp),%eax
   187ef:	89 c2                	mov    %eax,%edx
   187f1:	48 8d 35 3f 24 00 00 	lea    0x243f(%rip),%rsi        # 1ac37 <g_386+0x1be3>
   187f8:	48 89 cf             	mov    %rcx,%rdi
   187fb:	e8 f3 0e ff ff       	callq  96f3 <transparent_crc>
   18800:	0f b6 05 71 70 00 00 	movzbl 0x7071(%rip),%eax        # 1f878 <g_1081+0x8>
   18807:	0f b6 c0             	movzbl %al,%eax
   1880a:	8b 55 fc             	mov    -0x4(%rbp),%edx
   1880d:	48 8d 35 2d 24 00 00 	lea    0x242d(%rip),%rsi        # 1ac41 <g_386+0x1bed>
   18814:	48 89 c7             	mov    %rax,%rdi
   18817:	e8 d7 0e ff ff       	callq  96f3 <transparent_crc>
   1881c:	0f b7 05 56 70 00 00 	movzwl 0x7056(%rip),%eax        # 1f879 <g_1081+0x9>
   18823:	0f b7 c0             	movzwl %ax,%eax
   18826:	8b 55 fc             	mov    -0x4(%rbp),%edx
   18829:	48 8d 35 1b 24 00 00 	lea    0x241b(%rip),%rsi        # 1ac4b <g_386+0x1bf7>
   18830:	48 89 c7             	mov    %rax,%rdi
   18833:	e8 bb 0e ff ff       	callq  96f3 <transparent_crc>
   18838:	0f b7 05 3c 70 00 00 	movzwl 0x703c(%rip),%eax        # 1f87b <g_1081+0xb>
   1883f:	0f b7 c0             	movzwl %ax,%eax
   18842:	8b 55 fc             	mov    -0x4(%rbp),%edx
   18845:	48 8d 35 09 24 00 00 	lea    0x2409(%rip),%rsi        # 1ac55 <g_386+0x1c01>
   1884c:	48 89 c7             	mov    %rax,%rdi
   1884f:	e8 9f 0e ff ff       	callq  96f3 <transparent_crc>
   18854:	0f b7 05 22 70 00 00 	movzwl 0x7022(%rip),%eax        # 1f87d <g_1081+0xd>
   1885b:	0f b7 c0             	movzwl %ax,%eax
   1885e:	8b 55 fc             	mov    -0x4(%rbp),%edx
   18861:	48 8d 35 f7 23 00 00 	lea    0x23f7(%rip),%rsi        # 1ac5f <g_386+0x1c0b>
   18868:	48 89 c7             	mov    %rax,%rdi
   1886b:	e8 83 0e ff ff       	callq  96f3 <transparent_crc>
   18870:	0f b6 05 08 70 00 00 	movzbl 0x7008(%rip),%eax        # 1f87f <g_1081+0xf>
   18877:	0f b7 15 02 70 00 00 	movzwl 0x7002(%rip),%edx        # 1f880 <g_1081+0x10>
   1887e:	81 e2 ff 7f 00 00    	and    $0x7fff,%edx
   18884:	48 c1 e2 08          	shl    $0x8,%rdx
   18888:	48 09 d0             	or     %rdx,%rax
   1888b:	48 c1 e0 29          	shl    $0x29,%rax
   1888f:	48 c1 f8 29          	sar    $0x29,%rax
   18893:	48 98                	cltq   
   18895:	8b 55 fc             	mov    -0x4(%rbp),%edx
   18898:	48 8d 35 ca 23 00 00 	lea    0x23ca(%rip),%rsi        # 1ac69 <g_386+0x1c15>
   1889f:	48 89 c7             	mov    %rax,%rdi
   188a2:	e8 4c 0e ff ff       	callq  96f3 <transparent_crc>
   188a7:	8b 05 d5 6f 00 00    	mov    0x6fd5(%rip),%eax        # 1f882 <g_1081+0x12>
   188ad:	89 c1                	mov    %eax,%ecx
   188af:	8b 45 fc             	mov    -0x4(%rbp),%eax
   188b2:	89 c2                	mov    %eax,%edx
   188b4:	48 8d 35 b8 23 00 00 	lea    0x23b8(%rip),%rsi        # 1ac73 <g_386+0x1c1f>
   188bb:	48 89 cf             	mov    %rcx,%rdi
   188be:	e8 30 0e ff ff       	callq  96f3 <transparent_crc>
   188c3:	0f b7 05 bc 6f 00 00 	movzwl 0x6fbc(%rip),%eax        # 1f886 <g_1081+0x16>
   188ca:	48 0f bf c0          	movswq %ax,%rax
   188ce:	8b 55 fc             	mov    -0x4(%rbp),%edx
   188d1:	48 8d 35 a5 23 00 00 	lea    0x23a5(%rip),%rsi        # 1ac7d <g_386+0x1c29>
   188d8:	48 89 c7             	mov    %rax,%rdi
   188db:	e8 13 0e ff ff       	callq  96f3 <transparent_crc>
   188e0:	0f b7 05 a1 6f 00 00 	movzwl 0x6fa1(%rip),%eax        # 1f888 <g_1104>
   188e7:	48 0f bf c0          	movswq %ax,%rax
   188eb:	8b 55 fc             	mov    -0x4(%rbp),%edx
   188ee:	48 8d 35 92 23 00 00 	lea    0x2392(%rip),%rsi        # 1ac87 <g_386+0x1c33>
   188f5:	48 89 c7             	mov    %rax,%rdi
   188f8:	e8 f6 0d ff ff       	callq  96f3 <transparent_crc>
   188fd:	0f b6 05 86 6f 00 00 	movzbl 0x6f86(%rip),%eax        # 1f88a <g_1107>
   18904:	0f b6 c0             	movzbl %al,%eax
   18907:	8b 55 fc             	mov    -0x4(%rbp),%edx
   1890a:	48 8d 35 7d 23 00 00 	lea    0x237d(%rip),%rsi        # 1ac8e <g_386+0x1c3a>
   18911:	48 89 c7             	mov    %rax,%rdi
   18914:	e8 da 0d ff ff       	callq  96f3 <transparent_crc>
   18919:	0f b6 05 78 a3 00 00 	movzbl 0xa378(%rip),%eax        # 22c98 <g_1120>
   18920:	48 0f be c0          	movsbq %al,%rax
   18924:	8b 55 fc             	mov    -0x4(%rbp),%edx
   18927:	48 8d 35 67 23 00 00 	lea    0x2367(%rip),%rsi        # 1ac95 <g_386+0x1c41>
   1892e:	48 89 c7             	mov    %rax,%rdi
   18931:	e8 bd 0d ff ff       	callq  96f3 <transparent_crc>
   18936:	c7 45 f0 00 00 00 00 	movl   $0x0,-0x10(%rbp)
   1893d:	eb 4d                	jmp    1898c <main+0x2517>
   1893f:	8b 45 f0             	mov    -0x10(%rbp),%eax
   18942:	48 98                	cltq   
   18944:	48 8d 14 85 00 00 00 	lea    0x0(,%rax,4),%rdx
   1894b:	00 
   1894c:	48 8d 05 4d 6f 00 00 	lea    0x6f4d(%rip),%rax        # 1f8a0 <g_1145>
   18953:	8b 04 02             	mov    (%rdx,%rax,1),%eax
   18956:	89 c1                	mov    %eax,%ecx
   18958:	8b 45 fc             	mov    -0x4(%rbp),%eax
   1895b:	89 c2                	mov    %eax,%edx
   1895d:	48 8d 35 38 23 00 00 	lea    0x2338(%rip),%rsi        # 1ac9c <g_386+0x1c48>
   18964:	48 89 cf             	mov    %rcx,%rdi
   18967:	e8 87 0d ff ff       	callq  96f3 <transparent_crc>
   1896c:	83 7d fc 00          	cmpl   $0x0,-0x4(%rbp)
   18970:	74 16                	je     18988 <main+0x2513>
   18972:	8b 45 f0             	mov    -0x10(%rbp),%eax
   18975:	89 c6                	mov    %eax,%esi
   18977:	48 8d 3d 8c 1a 00 00 	lea    0x1a8c(%rip),%rdi        # 1a40a <g_386+0x13b6>
   1897e:	b8 00 00 00 00       	mov    $0x0,%eax
   18983:	e8 f8 f6 fe ff       	callq  8080 <printf@plt>
   18988:	83 45 f0 01          	addl   $0x1,-0x10(%rbp)
   1898c:	83 7d f0 09          	cmpl   $0x9,-0x10(%rbp)
   18990:	7e ad                	jle    1893f <main+0x24ca>
   18992:	48 8b 05 2f 6f 00 00 	mov    0x6f2f(%rip),%rax        # 1f8c8 <g_1215>
   18999:	8b 55 fc             	mov    -0x4(%rbp),%edx
   1899c:	48 8d 35 03 23 00 00 	lea    0x2303(%rip),%rsi        # 1aca6 <g_386+0x1c52>
   189a3:	48 89 c7             	mov    %rax,%rdi
   189a6:	e8 48 0d ff ff       	callq  96f3 <transparent_crc>
   189ab:	c7 45 f0 00 00 00 00 	movl   $0x0,-0x10(%rbp)
   189b2:	eb 4b                	jmp    189ff <main+0x258a>
   189b4:	8b 45 f0             	mov    -0x10(%rbp),%eax
   189b7:	48 98                	cltq   
   189b9:	48 8d 14 85 00 00 00 	lea    0x0(,%rax,4),%rdx
   189c0:	00 
   189c1:	48 8d 05 18 6f 00 00 	lea    0x6f18(%rip),%rax        # 1f8e0 <g_1219>
   189c8:	8b 04 02             	mov    (%rdx,%rax,1),%eax
   189cb:	48 98                	cltq   
   189cd:	8b 55 fc             	mov    -0x4(%rbp),%edx
   189d0:	48 8d 35 d6 22 00 00 	lea    0x22d6(%rip),%rsi        # 1acad <g_386+0x1c59>
   189d7:	48 89 c7             	mov    %rax,%rdi
   189da:	e8 14 0d ff ff       	callq  96f3 <transparent_crc>
   189df:	83 7d fc 00          	cmpl   $0x0,-0x4(%rbp)
   189e3:	74 16                	je     189fb <main+0x2586>
   189e5:	8b 45 f0             	mov    -0x10(%rbp),%eax
   189e8:	89 c6                	mov    %eax,%esi
   189ea:	48 8d 3d 19 1a 00 00 	lea    0x1a19(%rip),%rdi        # 1a40a <g_386+0x13b6>
   189f1:	b8 00 00 00 00       	mov    $0x0,%eax
   189f6:	e8 85 f6 fe ff       	callq  8080 <printf@plt>
   189fb:	83 45 f0 01          	addl   $0x1,-0x10(%rbp)
   189ff:	83 7d f0 09          	cmpl   $0x9,-0x10(%rbp)
   18a03:	7e af                	jle    189b4 <main+0x253f>
   18a05:	48 8b 05 04 6f 00 00 	mov    0x6f04(%rip),%rax        # 1f910 <g_1311>
   18a0c:	48 89 c1             	mov    %rax,%rcx
   18a0f:	8b 45 fc             	mov    -0x4(%rbp),%eax
   18a12:	89 c2                	mov    %eax,%edx
   18a14:	48 8d 35 9c 22 00 00 	lea    0x229c(%rip),%rsi        # 1acb7 <g_386+0x1c63>
   18a1b:	48 89 cf             	mov    %rcx,%rdi
   18a1e:	e8 d0 0c ff ff       	callq  96f3 <transparent_crc>
   18a23:	0f b6 05 ee 6e 00 00 	movzbl 0x6eee(%rip),%eax        # 1f918 <g_1311+0x8>
   18a2a:	0f b6 c0             	movzbl %al,%eax
   18a2d:	8b 55 fc             	mov    -0x4(%rbp),%edx
   18a30:	48 8d 35 8a 22 00 00 	lea    0x228a(%rip),%rsi        # 1acc1 <g_386+0x1c6d>
   18a37:	48 89 c7             	mov    %rax,%rdi
   18a3a:	e8 b4 0c ff ff       	callq  96f3 <transparent_crc>
   18a3f:	0f b7 05 d3 6e 00 00 	movzwl 0x6ed3(%rip),%eax        # 1f919 <g_1311+0x9>
   18a46:	0f b7 c0             	movzwl %ax,%eax
   18a49:	8b 55 fc             	mov    -0x4(%rbp),%edx
   18a4c:	48 8d 35 78 22 00 00 	lea    0x2278(%rip),%rsi        # 1accb <g_386+0x1c77>
   18a53:	48 89 c7             	mov    %rax,%rdi
   18a56:	e8 98 0c ff ff       	callq  96f3 <transparent_crc>
   18a5b:	0f b7 05 b9 6e 00 00 	movzwl 0x6eb9(%rip),%eax        # 1f91b <g_1311+0xb>
   18a62:	0f b7 c0             	movzwl %ax,%eax
   18a65:	8b 55 fc             	mov    -0x4(%rbp),%edx
   18a68:	48 8d 35 66 22 00 00 	lea    0x2266(%rip),%rsi        # 1acd5 <g_386+0x1c81>
   18a6f:	48 89 c7             	mov    %rax,%rdi
   18a72:	e8 7c 0c ff ff       	callq  96f3 <transparent_crc>
   18a77:	0f b7 05 9f 6e 00 00 	movzwl 0x6e9f(%rip),%eax        # 1f91d <g_1311+0xd>
   18a7e:	0f b7 c0             	movzwl %ax,%eax
   18a81:	8b 55 fc             	mov    -0x4(%rbp),%edx
   18a84:	48 8d 35 54 22 00 00 	lea    0x2254(%rip),%rsi        # 1acdf <g_386+0x1c8b>
   18a8b:	48 89 c7             	mov    %rax,%rdi
   18a8e:	e8 60 0c ff ff       	callq  96f3 <transparent_crc>
   18a93:	0f b6 05 85 6e 00 00 	movzbl 0x6e85(%rip),%eax        # 1f91f <g_1311+0xf>
   18a9a:	0f b7 15 7f 6e 00 00 	movzwl 0x6e7f(%rip),%edx        # 1f920 <g_1311+0x10>
   18aa1:	81 e2 ff 7f 00 00    	and    $0x7fff,%edx
   18aa7:	48 c1 e2 08          	shl    $0x8,%rdx
   18aab:	48 09 d0             	or     %rdx,%rax
   18aae:	48 c1 e0 29          	shl    $0x29,%rax
   18ab2:	48 c1 f8 29          	sar    $0x29,%rax
   18ab6:	48 98                	cltq   
   18ab8:	8b 55 fc             	mov    -0x4(%rbp),%edx
   18abb:	48 8d 35 27 22 00 00 	lea    0x2227(%rip),%rsi        # 1ace9 <g_386+0x1c95>
   18ac2:	48 89 c7             	mov    %rax,%rdi
   18ac5:	e8 29 0c ff ff       	callq  96f3 <transparent_crc>
   18aca:	8b 05 52 6e 00 00    	mov    0x6e52(%rip),%eax        # 1f922 <g_1311+0x12>
   18ad0:	89 c1                	mov    %eax,%ecx
   18ad2:	8b 45 fc             	mov    -0x4(%rbp),%eax
   18ad5:	89 c2                	mov    %eax,%edx
   18ad7:	48 8d 35 15 22 00 00 	lea    0x2215(%rip),%rsi        # 1acf3 <g_386+0x1c9f>
   18ade:	48 89 cf             	mov    %rcx,%rdi
   18ae1:	e8 0d 0c ff ff       	callq  96f3 <transparent_crc>
   18ae6:	0f b7 05 39 6e 00 00 	movzwl 0x6e39(%rip),%eax        # 1f926 <g_1311+0x16>
   18aed:	48 0f bf c0          	movswq %ax,%rax
   18af1:	8b 55 fc             	mov    -0x4(%rbp),%edx
   18af4:	48 8d 35 02 22 00 00 	lea    0x2202(%rip),%rsi        # 1acfd <g_386+0x1ca9>
   18afb:	48 89 c7             	mov    %rax,%rdi
   18afe:	e8 f0 0b ff ff       	callq  96f3 <transparent_crc>
   18b03:	48 8b 05 1e 6e 00 00 	mov    0x6e1e(%rip),%rax        # 1f928 <g_1369>
   18b0a:	48 89 c1             	mov    %rax,%rcx
   18b0d:	8b 45 fc             	mov    -0x4(%rbp),%eax
   18b10:	89 c2                	mov    %eax,%edx
   18b12:	48 8d 35 ee 21 00 00 	lea    0x21ee(%rip),%rsi        # 1ad07 <g_386+0x1cb3>
   18b19:	48 89 cf             	mov    %rcx,%rdi
   18b1c:	e8 d2 0b ff ff       	callq  96f3 <transparent_crc>
   18b21:	8b 05 09 6e 00 00    	mov    0x6e09(%rip),%eax        # 1f930 <g_1468>
   18b27:	89 c1                	mov    %eax,%ecx
   18b29:	8b 45 fc             	mov    -0x4(%rbp),%eax
   18b2c:	89 c2                	mov    %eax,%edx
   18b2e:	48 8d 35 d9 21 00 00 	lea    0x21d9(%rip),%rsi        # 1ad0e <g_386+0x1cba>
   18b35:	48 89 cf             	mov    %rcx,%rdi
   18b38:	e8 b6 0b ff ff       	callq  96f3 <transparent_crc>
   18b3d:	0f b6 05 f0 6d 00 00 	movzbl 0x6df0(%rip),%eax        # 1f934 <g_1549>
   18b44:	0f b6 c0             	movzbl %al,%eax
   18b47:	8b 55 fc             	mov    -0x4(%rbp),%edx
   18b4a:	48 8d 35 c4 21 00 00 	lea    0x21c4(%rip),%rsi        # 1ad15 <g_386+0x1cc1>
   18b51:	48 89 c7             	mov    %rax,%rdi
   18b54:	e8 9a 0b ff ff       	callq  96f3 <transparent_crc>
   18b59:	0f b7 05 d6 6d 00 00 	movzwl 0x6dd6(%rip),%eax        # 1f936 <g_1685>
   18b60:	0f b7 c0             	movzwl %ax,%eax
   18b63:	8b 55 fc             	mov    -0x4(%rbp),%edx
   18b66:	48 8d 35 af 21 00 00 	lea    0x21af(%rip),%rsi        # 1ad1c <g_386+0x1cc8>
   18b6d:	48 89 c7             	mov    %rax,%rdi
   18b70:	e8 7e 0b ff ff       	callq  96f3 <transparent_crc>
   18b75:	8b 05 a5 54 00 00    	mov    0x54a5(%rip),%eax        # 1e020 <crc32_context>
   18b7b:	f7 d0                	not    %eax
   18b7d:	89 c2                	mov    %eax,%edx
   18b7f:	8b 45 fc             	mov    -0x4(%rbp),%eax
   18b82:	89 c6                	mov    %eax,%esi
   18b84:	89 d7                	mov    %edx,%edi
   18b86:	e8 09 f6 fe ff       	callq  8194 <platform_main_end>
   18b8b:	b8 00 00 00 00       	mov    $0x0,%eax
   18b90:	c9                   	leaveq 
   18b91:	c3                   	retq   
   18b92:	66 2e 0f 1f 84 00 00 	nopw   %cs:0x0(%rax,%rax,1)
   18b99:	00 00 00 
   18b9c:	0f 1f 40 00          	nopl   0x0(%rax)

0000000000018ba0 <__libc_csu_init>:
   18ba0:	f3 0f 1e fa          	endbr64 
   18ba4:	41 57                	push   %r15
   18ba6:	4c 8d 3d a3 51 00 00 	lea    0x51a3(%rip),%r15        # 1dd50 <__frame_dummy_init_array_entry>
   18bad:	41 56                	push   %r14
   18baf:	49 89 d6             	mov    %rdx,%r14
   18bb2:	41 55                	push   %r13
   18bb4:	49 89 f5             	mov    %rsi,%r13
   18bb7:	41 54                	push   %r12
   18bb9:	41 89 fc             	mov    %edi,%r12d
   18bbc:	55                   	push   %rbp
   18bbd:	48 8d 2d 94 51 00 00 	lea    0x5194(%rip),%rbp        # 1dd58 <__do_global_dtors_aux_fini_array_entry>
   18bc4:	53                   	push   %rbx
   18bc5:	4c 29 fd             	sub    %r15,%rbp
   18bc8:	48 83 ec 08          	sub    $0x8,%rsp
   18bcc:	e8 2f f4 fe ff       	callq  8000 <_init>
   18bd1:	48 c1 fd 03          	sar    $0x3,%rbp
   18bd5:	74 1f                	je     18bf6 <__libc_csu_init+0x56>
   18bd7:	31 db                	xor    %ebx,%ebx
   18bd9:	0f 1f 80 00 00 00 00 	nopl   0x0(%rax)
   18be0:	4c 89 f2             	mov    %r14,%rdx
   18be3:	4c 89 ee             	mov    %r13,%rsi
   18be6:	44 89 e7             	mov    %r12d,%edi
   18be9:	41 ff 14 df          	callq  *(%r15,%rbx,8)
   18bed:	48 83 c3 01          	add    $0x1,%rbx
   18bf1:	48 39 dd             	cmp    %rbx,%rbp
   18bf4:	75 ea                	jne    18be0 <__libc_csu_init+0x40>
   18bf6:	48 83 c4 08          	add    $0x8,%rsp
   18bfa:	5b                   	pop    %rbx
   18bfb:	5d                   	pop    %rbp
   18bfc:	41 5c                	pop    %r12
   18bfe:	41 5d                	pop    %r13
   18c00:	41 5e                	pop    %r14
   18c02:	41 5f                	pop    %r15
   18c04:	c3                   	retq   
   18c05:	66 66 2e 0f 1f 84 00 	data16 nopw %cs:0x0(%rax,%rax,1)
   18c0c:	00 00 00 00 

0000000000018c10 <__libc_csu_fini>:
   18c10:	f3 0f 1e fa          	endbr64 
   18c14:	c3                   	retq   
