


Disassembly of section .text:

00000000000060a0 <_start>:
    60a0:	f3 0f 1e fa          	endbr64 
    60a4:	31 ed                	xor    %ebp,%ebp
    60a6:	49 89 d1             	mov    %rdx,%r9
    60a9:	5e                   	pop    %rsi
    60aa:	48 89 e2             	mov    %rsp,%rdx
    60ad:	48 83 e4 f0          	and    $0xfffffffffffffff0,%rsp
    60b1:	50                   	push   %rax
    60b2:	54                   	push   %rsp
    60b3:	4c 8d 05 46 1d 01 00 	lea    0x11d46(%rip),%r8        # 17e00 <__libc_csu_fini>
    60ba:	48 8d 0d cf 1c 01 00 	lea    0x11ccf(%rip),%rcx        # 17d90 <__libc_csu_init>
    60c1:	48 8d 3d 4c eb 00 00 	lea    0xeb4c(%rip),%rdi        # 14c14 <main>
    60c8:	ff 15 fa 6e 01 00    	callq  *0x16efa(%rip)        # 1cfc8 <__libc_start_main@GLIBC_2.2.5>
    60ce:	f4                   	hlt    
    60cf:	90                   	nop

00000000000060d0 <deregister_tm_clones>:
    60d0:	48 8d 3d c9 b0 01 00 	lea    0x1b0c9(%rip),%rdi        # 211a0 <__TMC_END__>
    60d7:	48 8d 05 c2 b0 01 00 	lea    0x1b0c2(%rip),%rax        # 211a0 <__TMC_END__>
    60de:	48 39 f8             	cmp    %rdi,%rax
    60e1:	74 15                	je     60f8 <deregister_tm_clones+0x28>
    60e3:	48 8b 05 d6 6e 01 00 	mov    0x16ed6(%rip),%rax        # 1cfc0 <_ITM_deregisterTMCloneTable>
    60ea:	48 85 c0             	test   %rax,%rax
    60ed:	74 09                	je     60f8 <deregister_tm_clones+0x28>
    60ef:	ff e0                	jmpq   *%rax
    60f1:	0f 1f 80 00 00 00 00 	nopl   0x0(%rax)
    60f8:	c3                   	retq   
    60f9:	0f 1f 80 00 00 00 00 	nopl   0x0(%rax)

0000000000006100 <register_tm_clones>:
    6100:	48 8d 3d 99 b0 01 00 	lea    0x1b099(%rip),%rdi        # 211a0 <__TMC_END__>
    6107:	48 8d 35 92 b0 01 00 	lea    0x1b092(%rip),%rsi        # 211a0 <__TMC_END__>
    610e:	48 29 fe             	sub    %rdi,%rsi
    6111:	48 89 f0             	mov    %rsi,%rax
    6114:	48 c1 ee 3f          	shr    $0x3f,%rsi
    6118:	48 c1 f8 03          	sar    $0x3,%rax
    611c:	48 01 c6             	add    %rax,%rsi
    611f:	48 d1 fe             	sar    %rsi
    6122:	74 14                	je     6138 <register_tm_clones+0x38>
    6124:	48 8b 05 ad 6e 01 00 	mov    0x16ead(%rip),%rax        # 1cfd8 <_ITM_registerTMCloneTable>
    612b:	48 85 c0             	test   %rax,%rax
    612e:	74 08                	je     6138 <register_tm_clones+0x38>
    6130:	ff e0                	jmpq   *%rax
    6132:	66 0f 1f 44 00 00    	nopw   0x0(%rax,%rax,1)
    6138:	c3                   	retq   
    6139:	0f 1f 80 00 00 00 00 	nopl   0x0(%rax)

0000000000006140 <__do_global_dtors_aux>:
    6140:	f3 0f 1e fa          	endbr64 
    6144:	80 3d 55 b0 01 00 00 	cmpb   $0x0,0x1b055(%rip)        # 211a0 <__TMC_END__>
    614b:	75 2b                	jne    6178 <__do_global_dtors_aux+0x38>
    614d:	55                   	push   %rbp
    614e:	48 83 3d 8a 6e 01 00 	cmpq   $0x0,0x16e8a(%rip)        # 1cfe0 <__cxa_finalize@GLIBC_2.2.5>
    6155:	00 
    6156:	48 89 e5             	mov    %rsp,%rbp
    6159:	74 0c                	je     6167 <__do_global_dtors_aux+0x27>
    615b:	48 8b 3d a6 6e 01 00 	mov    0x16ea6(%rip),%rdi        # 1d008 <__dso_handle>
    6162:	e8 f9 fe ff ff       	callq  6060 <__cxa_finalize@plt>
    6167:	e8 64 ff ff ff       	callq  60d0 <deregister_tm_clones>
    616c:	c6 05 2d b0 01 00 01 	movb   $0x1,0x1b02d(%rip)        # 211a0 <__TMC_END__>
    6173:	5d                   	pop    %rbp
    6174:	c3                   	retq   
    6175:	0f 1f 00             	nopl   (%rax)
    6178:	c3                   	retq   
    6179:	0f 1f 80 00 00 00 00 	nopl   0x0(%rax)

0000000000006180 <frame_dummy>:
    6180:	f3 0f 1e fa          	endbr64 
    6184:	e9 77 ff ff ff       	jmpq   6100 <register_tm_clones>

0000000000006189 <platform_main_begin>:
    6189:	f3 0f 1e fa          	endbr64 
    618d:	55                   	push   %rbp
    618e:	48 89 e5             	mov    %rsp,%rbp
    6191:	90                   	nop
    6192:	5d                   	pop    %rbp
    6193:	c3                   	retq   

0000000000006194 <platform_main_end>:
    6194:	f3 0f 1e fa          	endbr64 
    6198:	55                   	push   %rbp
    6199:	48 89 e5             	mov    %rsp,%rbp
    619c:	48 83 ec 10          	sub    $0x10,%rsp
    61a0:	89 7d fc             	mov    %edi,-0x4(%rbp)
    61a3:	89 75 f8             	mov    %esi,-0x8(%rbp)
    61a6:	8b 45 fc             	mov    -0x4(%rbp),%eax
    61a9:	89 c6                	mov    %eax,%esi
    61ab:	48 8d 3d 6e 1e 01 00 	lea    0x11e6e(%rip),%rdi        # 18020 <_IO_stdin_used+0x20>
    61b2:	b8 00 00 00 00       	mov    $0x0,%eax
    61b7:	e8 c4 fe ff ff       	callq  6080 <printf@plt>
    61bc:	90                   	nop
    61bd:	c9                   	leaveq 
    61be:	c3                   	retq   

00000000000061bf <safe_unary_minus_func_int8_t_s>:
    61bf:	f3 0f 1e fa          	endbr64 
    61c3:	55                   	push   %rbp
    61c4:	48 89 e5             	mov    %rsp,%rbp
    61c7:	89 f8                	mov    %edi,%eax
    61c9:	88 45 fc             	mov    %al,-0x4(%rbp)
    61cc:	0f b6 45 fc          	movzbl -0x4(%rbp),%eax
    61d0:	f7 d8                	neg    %eax
    61d2:	5d                   	pop    %rbp
    61d3:	c3                   	retq   

00000000000061d4 <safe_add_func_int8_t_s_s>:
    61d4:	f3 0f 1e fa          	endbr64 
    61d8:	55                   	push   %rbp
    61d9:	48 89 e5             	mov    %rsp,%rbp
    61dc:	89 fa                	mov    %edi,%edx
    61de:	89 f0                	mov    %esi,%eax
    61e0:	88 55 fc             	mov    %dl,-0x4(%rbp)
    61e3:	88 45 f8             	mov    %al,-0x8(%rbp)
    61e6:	0f b6 55 fc          	movzbl -0x4(%rbp),%edx
    61ea:	0f b6 45 f8          	movzbl -0x8(%rbp),%eax
    61ee:	01 d0                	add    %edx,%eax
    61f0:	5d                   	pop    %rbp
    61f1:	c3                   	retq   

00000000000061f2 <safe_sub_func_int8_t_s_s>:
    61f2:	f3 0f 1e fa          	endbr64 
    61f6:	55                   	push   %rbp
    61f7:	48 89 e5             	mov    %rsp,%rbp
    61fa:	89 fa                	mov    %edi,%edx
    61fc:	89 f0                	mov    %esi,%eax
    61fe:	88 55 fc             	mov    %dl,-0x4(%rbp)
    6201:	88 45 f8             	mov    %al,-0x8(%rbp)
    6204:	0f b6 55 fc          	movzbl -0x4(%rbp),%edx
    6208:	0f b6 45 f8          	movzbl -0x8(%rbp),%eax
    620c:	29 c2                	sub    %eax,%edx
    620e:	89 d0                	mov    %edx,%eax
    6210:	5d                   	pop    %rbp
    6211:	c3                   	retq   

0000000000006212 <safe_mul_func_int8_t_s_s>:
    6212:	f3 0f 1e fa          	endbr64 
    6216:	55                   	push   %rbp
    6217:	48 89 e5             	mov    %rsp,%rbp
    621a:	89 fa                	mov    %edi,%edx
    621c:	89 f0                	mov    %esi,%eax
    621e:	88 55 fc             	mov    %dl,-0x4(%rbp)
    6221:	88 45 f8             	mov    %al,-0x8(%rbp)
    6224:	0f b6 45 fc          	movzbl -0x4(%rbp),%eax
    6228:	0f b6 55 f8          	movzbl -0x8(%rbp),%edx
    622c:	0f af c2             	imul   %edx,%eax
    622f:	5d                   	pop    %rbp
    6230:	c3                   	retq   

0000000000006231 <safe_mod_func_int8_t_s_s>:
    6231:	f3 0f 1e fa          	endbr64 
    6235:	55                   	push   %rbp
    6236:	48 89 e5             	mov    %rsp,%rbp
    6239:	89 fa                	mov    %edi,%edx
    623b:	89 f0                	mov    %esi,%eax
    623d:	88 55 fc             	mov    %dl,-0x4(%rbp)
    6240:	88 45 f8             	mov    %al,-0x8(%rbp)
    6243:	80 7d f8 00          	cmpb   $0x0,-0x8(%rbp)
    6247:	74 1b                	je     6264 <safe_mod_func_int8_t_s_s+0x33>
    6249:	80 7d fc 80          	cmpb   $0x80,-0x4(%rbp)
    624d:	75 06                	jne    6255 <safe_mod_func_int8_t_s_s+0x24>
    624f:	80 7d f8 ff          	cmpb   $0xff,-0x8(%rbp)
    6253:	74 0f                	je     6264 <safe_mod_func_int8_t_s_s+0x33>
    6255:	0f be 45 fc          	movsbl -0x4(%rbp),%eax
    6259:	0f be 4d f8          	movsbl -0x8(%rbp),%ecx
    625d:	99                   	cltd   
    625e:	f7 f9                	idiv   %ecx
    6260:	89 d0                	mov    %edx,%eax
    6262:	eb 04                	jmp    6268 <safe_mod_func_int8_t_s_s+0x37>
    6264:	0f b6 45 fc          	movzbl -0x4(%rbp),%eax
    6268:	5d                   	pop    %rbp
    6269:	c3                   	retq   

000000000000626a <safe_div_func_int8_t_s_s>:
    626a:	f3 0f 1e fa          	endbr64 
    626e:	55                   	push   %rbp
    626f:	48 89 e5             	mov    %rsp,%rbp
    6272:	89 fa                	mov    %edi,%edx
    6274:	89 f0                	mov    %esi,%eax
    6276:	88 55 fc             	mov    %dl,-0x4(%rbp)
    6279:	88 45 f8             	mov    %al,-0x8(%rbp)
    627c:	80 7d f8 00          	cmpb   $0x0,-0x8(%rbp)
    6280:	74 19                	je     629b <safe_div_func_int8_t_s_s+0x31>
    6282:	80 7d fc 80          	cmpb   $0x80,-0x4(%rbp)
    6286:	75 06                	jne    628e <safe_div_func_int8_t_s_s+0x24>
    6288:	80 7d f8 ff          	cmpb   $0xff,-0x8(%rbp)
    628c:	74 0d                	je     629b <safe_div_func_int8_t_s_s+0x31>
    628e:	0f be 45 fc          	movsbl -0x4(%rbp),%eax
    6292:	0f be 4d f8          	movsbl -0x8(%rbp),%ecx
    6296:	99                   	cltd   
    6297:	f7 f9                	idiv   %ecx
    6299:	eb 04                	jmp    629f <safe_div_func_int8_t_s_s+0x35>
    629b:	0f b6 45 fc          	movzbl -0x4(%rbp),%eax
    629f:	5d                   	pop    %rbp
    62a0:	c3                   	retq   

00000000000062a1 <safe_lshift_func_int8_t_s_s>:
    62a1:	f3 0f 1e fa          	endbr64 
    62a5:	55                   	push   %rbp
    62a6:	48 89 e5             	mov    %rsp,%rbp
    62a9:	89 f8                	mov    %edi,%eax
    62ab:	89 75 f8             	mov    %esi,-0x8(%rbp)
    62ae:	88 45 fc             	mov    %al,-0x4(%rbp)
    62b1:	80 7d fc 00          	cmpb   $0x0,-0x4(%rbp)
    62b5:	78 31                	js     62e8 <safe_lshift_func_int8_t_s_s+0x47>
    62b7:	83 7d f8 00          	cmpl   $0x0,-0x8(%rbp)
    62bb:	78 2b                	js     62e8 <safe_lshift_func_int8_t_s_s+0x47>
    62bd:	83 7d f8 1f          	cmpl   $0x1f,-0x8(%rbp)
    62c1:	7f 25                	jg     62e8 <safe_lshift_func_int8_t_s_s+0x47>
    62c3:	0f be 55 fc          	movsbl -0x4(%rbp),%edx
    62c7:	8b 45 f8             	mov    -0x8(%rbp),%eax
    62ca:	be 7f 00 00 00       	mov    $0x7f,%esi
    62cf:	89 c1                	mov    %eax,%ecx
    62d1:	d3 fe                	sar    %cl,%esi
    62d3:	89 f0                	mov    %esi,%eax
    62d5:	39 c2                	cmp    %eax,%edx
    62d7:	7f 0f                	jg     62e8 <safe_lshift_func_int8_t_s_s+0x47>
    62d9:	0f be 55 fc          	movsbl -0x4(%rbp),%edx
    62dd:	8b 45 f8             	mov    -0x8(%rbp),%eax
    62e0:	89 c1                	mov    %eax,%ecx
    62e2:	d3 e2                	shl    %cl,%edx
    62e4:	89 d0                	mov    %edx,%eax
    62e6:	eb 04                	jmp    62ec <safe_lshift_func_int8_t_s_s+0x4b>
    62e8:	0f b6 45 fc          	movzbl -0x4(%rbp),%eax
    62ec:	5d                   	pop    %rbp
    62ed:	c3                   	retq   

00000000000062ee <safe_lshift_func_int8_t_s_u>:
    62ee:	f3 0f 1e fa          	endbr64 
    62f2:	55                   	push   %rbp
    62f3:	48 89 e5             	mov    %rsp,%rbp
    62f6:	89 f8                	mov    %edi,%eax
    62f8:	89 75 f8             	mov    %esi,-0x8(%rbp)
    62fb:	88 45 fc             	mov    %al,-0x4(%rbp)
    62fe:	80 7d fc 00          	cmpb   $0x0,-0x4(%rbp)
    6302:	78 2b                	js     632f <safe_lshift_func_int8_t_s_u+0x41>
    6304:	83 7d f8 1f          	cmpl   $0x1f,-0x8(%rbp)
    6308:	77 25                	ja     632f <safe_lshift_func_int8_t_s_u+0x41>
    630a:	0f be 55 fc          	movsbl -0x4(%rbp),%edx
    630e:	8b 45 f8             	mov    -0x8(%rbp),%eax
    6311:	be 7f 00 00 00       	mov    $0x7f,%esi
    6316:	89 c1                	mov    %eax,%ecx
    6318:	d3 fe                	sar    %cl,%esi
    631a:	89 f0                	mov    %esi,%eax
    631c:	39 c2                	cmp    %eax,%edx
    631e:	7f 0f                	jg     632f <safe_lshift_func_int8_t_s_u+0x41>
    6320:	0f be 55 fc          	movsbl -0x4(%rbp),%edx
    6324:	8b 45 f8             	mov    -0x8(%rbp),%eax
    6327:	89 c1                	mov    %eax,%ecx
    6329:	d3 e2                	shl    %cl,%edx
    632b:	89 d0                	mov    %edx,%eax
    632d:	eb 04                	jmp    6333 <safe_lshift_func_int8_t_s_u+0x45>
    632f:	0f b6 45 fc          	movzbl -0x4(%rbp),%eax
    6333:	5d                   	pop    %rbp
    6334:	c3                   	retq   

0000000000006335 <safe_rshift_func_int8_t_s_s>:
    6335:	f3 0f 1e fa          	endbr64 
    6339:	55                   	push   %rbp
    633a:	48 89 e5             	mov    %rsp,%rbp
    633d:	89 f8                	mov    %edi,%eax
    633f:	89 75 f8             	mov    %esi,-0x8(%rbp)
    6342:	88 45 fc             	mov    %al,-0x4(%rbp)
    6345:	80 7d fc 00          	cmpb   $0x0,-0x4(%rbp)
    6349:	78 1b                	js     6366 <safe_rshift_func_int8_t_s_s+0x31>
    634b:	83 7d f8 00          	cmpl   $0x0,-0x8(%rbp)
    634f:	78 15                	js     6366 <safe_rshift_func_int8_t_s_s+0x31>
    6351:	83 7d f8 1f          	cmpl   $0x1f,-0x8(%rbp)
    6355:	7f 0f                	jg     6366 <safe_rshift_func_int8_t_s_s+0x31>
    6357:	0f be 55 fc          	movsbl -0x4(%rbp),%edx
    635b:	8b 45 f8             	mov    -0x8(%rbp),%eax
    635e:	89 c1                	mov    %eax,%ecx
    6360:	d3 fa                	sar    %cl,%edx
    6362:	89 d0                	mov    %edx,%eax
    6364:	eb 04                	jmp    636a <safe_rshift_func_int8_t_s_s+0x35>
    6366:	0f b6 45 fc          	movzbl -0x4(%rbp),%eax
    636a:	5d                   	pop    %rbp
    636b:	c3                   	retq   

000000000000636c <safe_rshift_func_int8_t_s_u>:
    636c:	f3 0f 1e fa          	endbr64 
    6370:	55                   	push   %rbp
    6371:	48 89 e5             	mov    %rsp,%rbp
    6374:	89 f8                	mov    %edi,%eax
    6376:	89 75 f8             	mov    %esi,-0x8(%rbp)
    6379:	88 45 fc             	mov    %al,-0x4(%rbp)
    637c:	80 7d fc 00          	cmpb   $0x0,-0x4(%rbp)
    6380:	78 15                	js     6397 <safe_rshift_func_int8_t_s_u+0x2b>
    6382:	83 7d f8 1f          	cmpl   $0x1f,-0x8(%rbp)
    6386:	77 0f                	ja     6397 <safe_rshift_func_int8_t_s_u+0x2b>
    6388:	0f be 55 fc          	movsbl -0x4(%rbp),%edx
    638c:	8b 45 f8             	mov    -0x8(%rbp),%eax
    638f:	89 c1                	mov    %eax,%ecx
    6391:	d3 fa                	sar    %cl,%edx
    6393:	89 d0                	mov    %edx,%eax
    6395:	eb 04                	jmp    639b <safe_rshift_func_int8_t_s_u+0x2f>
    6397:	0f b6 45 fc          	movzbl -0x4(%rbp),%eax
    639b:	5d                   	pop    %rbp
    639c:	c3                   	retq   

000000000000639d <safe_unary_minus_func_int16_t_s>:
    639d:	f3 0f 1e fa          	endbr64 
    63a1:	55                   	push   %rbp
    63a2:	48 89 e5             	mov    %rsp,%rbp
    63a5:	89 f8                	mov    %edi,%eax
    63a7:	66 89 45 fc          	mov    %ax,-0x4(%rbp)
    63ab:	0f b7 45 fc          	movzwl -0x4(%rbp),%eax
    63af:	f7 d8                	neg    %eax
    63b1:	5d                   	pop    %rbp
    63b2:	c3                   	retq   

00000000000063b3 <safe_add_func_int16_t_s_s>:
    63b3:	f3 0f 1e fa          	endbr64 
    63b7:	55                   	push   %rbp
    63b8:	48 89 e5             	mov    %rsp,%rbp
    63bb:	89 fa                	mov    %edi,%edx
    63bd:	89 f0                	mov    %esi,%eax
    63bf:	66 89 55 fc          	mov    %dx,-0x4(%rbp)
    63c3:	66 89 45 f8          	mov    %ax,-0x8(%rbp)
    63c7:	0f b7 55 fc          	movzwl -0x4(%rbp),%edx
    63cb:	0f b7 45 f8          	movzwl -0x8(%rbp),%eax
    63cf:	01 d0                	add    %edx,%eax
    63d1:	5d                   	pop    %rbp
    63d2:	c3                   	retq   

00000000000063d3 <safe_sub_func_int16_t_s_s>:
    63d3:	f3 0f 1e fa          	endbr64 
    63d7:	55                   	push   %rbp
    63d8:	48 89 e5             	mov    %rsp,%rbp
    63db:	89 fa                	mov    %edi,%edx
    63dd:	89 f0                	mov    %esi,%eax
    63df:	66 89 55 fc          	mov    %dx,-0x4(%rbp)
    63e3:	66 89 45 f8          	mov    %ax,-0x8(%rbp)
    63e7:	0f b7 55 fc          	movzwl -0x4(%rbp),%edx
    63eb:	0f b7 45 f8          	movzwl -0x8(%rbp),%eax
    63ef:	29 c2                	sub    %eax,%edx
    63f1:	89 d0                	mov    %edx,%eax
    63f3:	5d                   	pop    %rbp
    63f4:	c3                   	retq   

00000000000063f5 <safe_mul_func_int16_t_s_s>:
    63f5:	f3 0f 1e fa          	endbr64 
    63f9:	55                   	push   %rbp
    63fa:	48 89 e5             	mov    %rsp,%rbp
    63fd:	89 fa                	mov    %edi,%edx
    63ff:	89 f0                	mov    %esi,%eax
    6401:	66 89 55 fc          	mov    %dx,-0x4(%rbp)
    6405:	66 89 45 f8          	mov    %ax,-0x8(%rbp)
    6409:	0f b7 55 fc          	movzwl -0x4(%rbp),%edx
    640d:	0f b7 45 f8          	movzwl -0x8(%rbp),%eax
    6411:	0f af c2             	imul   %edx,%eax
    6414:	5d                   	pop    %rbp
    6415:	c3                   	retq   

0000000000006416 <safe_mod_func_int16_t_s_s>:
    6416:	f3 0f 1e fa          	endbr64 
    641a:	55                   	push   %rbp
    641b:	48 89 e5             	mov    %rsp,%rbp
    641e:	89 fa                	mov    %edi,%edx
    6420:	89 f0                	mov    %esi,%eax
    6422:	66 89 55 fc          	mov    %dx,-0x4(%rbp)
    6426:	66 89 45 f8          	mov    %ax,-0x8(%rbp)
    642a:	66 83 7d f8 00       	cmpw   $0x0,-0x8(%rbp)
    642f:	74 1e                	je     644f <safe_mod_func_int16_t_s_s+0x39>
    6431:	66 81 7d fc 00 80    	cmpw   $0x8000,-0x4(%rbp)
    6437:	75 07                	jne    6440 <safe_mod_func_int16_t_s_s+0x2a>
    6439:	66 83 7d f8 ff       	cmpw   $0xffff,-0x8(%rbp)
    643e:	74 0f                	je     644f <safe_mod_func_int16_t_s_s+0x39>
    6440:	0f bf 45 fc          	movswl -0x4(%rbp),%eax
    6444:	0f bf 4d f8          	movswl -0x8(%rbp),%ecx
    6448:	99                   	cltd   
    6449:	f7 f9                	idiv   %ecx
    644b:	89 d0                	mov    %edx,%eax
    644d:	eb 04                	jmp    6453 <safe_mod_func_int16_t_s_s+0x3d>
    644f:	0f b7 45 fc          	movzwl -0x4(%rbp),%eax
    6453:	5d                   	pop    %rbp
    6454:	c3                   	retq   

0000000000006455 <safe_div_func_int16_t_s_s>:
    6455:	f3 0f 1e fa          	endbr64 
    6459:	55                   	push   %rbp
    645a:	48 89 e5             	mov    %rsp,%rbp
    645d:	89 fa                	mov    %edi,%edx
    645f:	89 f0                	mov    %esi,%eax
    6461:	66 89 55 fc          	mov    %dx,-0x4(%rbp)
    6465:	66 89 45 f8          	mov    %ax,-0x8(%rbp)
    6469:	66 83 7d f8 00       	cmpw   $0x0,-0x8(%rbp)
    646e:	74 1c                	je     648c <safe_div_func_int16_t_s_s+0x37>
    6470:	66 81 7d fc 00 80    	cmpw   $0x8000,-0x4(%rbp)
    6476:	75 07                	jne    647f <safe_div_func_int16_t_s_s+0x2a>
    6478:	66 83 7d f8 ff       	cmpw   $0xffff,-0x8(%rbp)
    647d:	74 0d                	je     648c <safe_div_func_int16_t_s_s+0x37>
    647f:	0f bf 45 fc          	movswl -0x4(%rbp),%eax
    6483:	0f bf 4d f8          	movswl -0x8(%rbp),%ecx
    6487:	99                   	cltd   
    6488:	f7 f9                	idiv   %ecx
    648a:	eb 04                	jmp    6490 <safe_div_func_int16_t_s_s+0x3b>
    648c:	0f b7 45 fc          	movzwl -0x4(%rbp),%eax
    6490:	5d                   	pop    %rbp
    6491:	c3                   	retq   

0000000000006492 <safe_lshift_func_int16_t_s_s>:
    6492:	f3 0f 1e fa          	endbr64 
    6496:	55                   	push   %rbp
    6497:	48 89 e5             	mov    %rsp,%rbp
    649a:	89 f8                	mov    %edi,%eax
    649c:	89 75 f8             	mov    %esi,-0x8(%rbp)
    649f:	66 89 45 fc          	mov    %ax,-0x4(%rbp)
    64a3:	66 83 7d fc 00       	cmpw   $0x0,-0x4(%rbp)
    64a8:	78 31                	js     64db <safe_lshift_func_int16_t_s_s+0x49>
    64aa:	83 7d f8 00          	cmpl   $0x0,-0x8(%rbp)
    64ae:	78 2b                	js     64db <safe_lshift_func_int16_t_s_s+0x49>
    64b0:	83 7d f8 1f          	cmpl   $0x1f,-0x8(%rbp)
    64b4:	7f 25                	jg     64db <safe_lshift_func_int16_t_s_s+0x49>
    64b6:	0f bf 55 fc          	movswl -0x4(%rbp),%edx
    64ba:	8b 45 f8             	mov    -0x8(%rbp),%eax
    64bd:	be ff 7f 00 00       	mov    $0x7fff,%esi
    64c2:	89 c1                	mov    %eax,%ecx
    64c4:	d3 fe                	sar    %cl,%esi
    64c6:	89 f0                	mov    %esi,%eax
    64c8:	39 c2                	cmp    %eax,%edx
    64ca:	7f 0f                	jg     64db <safe_lshift_func_int16_t_s_s+0x49>
    64cc:	0f bf 55 fc          	movswl -0x4(%rbp),%edx
    64d0:	8b 45 f8             	mov    -0x8(%rbp),%eax
    64d3:	89 c1                	mov    %eax,%ecx
    64d5:	d3 e2                	shl    %cl,%edx
    64d7:	89 d0                	mov    %edx,%eax
    64d9:	eb 04                	jmp    64df <safe_lshift_func_int16_t_s_s+0x4d>
    64db:	0f b7 45 fc          	movzwl -0x4(%rbp),%eax
    64df:	5d                   	pop    %rbp
    64e0:	c3                   	retq   

00000000000064e1 <safe_lshift_func_int16_t_s_u>:
    64e1:	f3 0f 1e fa          	endbr64 
    64e5:	55                   	push   %rbp
    64e6:	48 89 e5             	mov    %rsp,%rbp
    64e9:	89 f8                	mov    %edi,%eax
    64eb:	89 75 f8             	mov    %esi,-0x8(%rbp)
    64ee:	66 89 45 fc          	mov    %ax,-0x4(%rbp)
    64f2:	66 83 7d fc 00       	cmpw   $0x0,-0x4(%rbp)
    64f7:	78 2b                	js     6524 <safe_lshift_func_int16_t_s_u+0x43>
    64f9:	83 7d f8 1f          	cmpl   $0x1f,-0x8(%rbp)
    64fd:	77 25                	ja     6524 <safe_lshift_func_int16_t_s_u+0x43>
    64ff:	0f bf 55 fc          	movswl -0x4(%rbp),%edx
    6503:	8b 45 f8             	mov    -0x8(%rbp),%eax
    6506:	be ff 7f 00 00       	mov    $0x7fff,%esi
    650b:	89 c1                	mov    %eax,%ecx
    650d:	d3 fe                	sar    %cl,%esi
    650f:	89 f0                	mov    %esi,%eax
    6511:	39 c2                	cmp    %eax,%edx
    6513:	7f 0f                	jg     6524 <safe_lshift_func_int16_t_s_u+0x43>
    6515:	0f bf 55 fc          	movswl -0x4(%rbp),%edx
    6519:	8b 45 f8             	mov    -0x8(%rbp),%eax
    651c:	89 c1                	mov    %eax,%ecx
    651e:	d3 e2                	shl    %cl,%edx
    6520:	89 d0                	mov    %edx,%eax
    6522:	eb 04                	jmp    6528 <safe_lshift_func_int16_t_s_u+0x47>
    6524:	0f b7 45 fc          	movzwl -0x4(%rbp),%eax
    6528:	5d                   	pop    %rbp
    6529:	c3                   	retq   

000000000000652a <safe_rshift_func_int16_t_s_s>:
    652a:	f3 0f 1e fa          	endbr64 
    652e:	55                   	push   %rbp
    652f:	48 89 e5             	mov    %rsp,%rbp
    6532:	89 f8                	mov    %edi,%eax
    6534:	89 75 f8             	mov    %esi,-0x8(%rbp)
    6537:	66 89 45 fc          	mov    %ax,-0x4(%rbp)
    653b:	66 83 7d fc 00       	cmpw   $0x0,-0x4(%rbp)
    6540:	78 1b                	js     655d <safe_rshift_func_int16_t_s_s+0x33>
    6542:	83 7d f8 00          	cmpl   $0x0,-0x8(%rbp)
    6546:	78 15                	js     655d <safe_rshift_func_int16_t_s_s+0x33>
    6548:	83 7d f8 1f          	cmpl   $0x1f,-0x8(%rbp)
    654c:	7f 0f                	jg     655d <safe_rshift_func_int16_t_s_s+0x33>
    654e:	0f bf 55 fc          	movswl -0x4(%rbp),%edx
    6552:	8b 45 f8             	mov    -0x8(%rbp),%eax
    6555:	89 c1                	mov    %eax,%ecx
    6557:	d3 fa                	sar    %cl,%edx
    6559:	89 d0                	mov    %edx,%eax
    655b:	eb 04                	jmp    6561 <safe_rshift_func_int16_t_s_s+0x37>
    655d:	0f b7 45 fc          	movzwl -0x4(%rbp),%eax
    6561:	5d                   	pop    %rbp
    6562:	c3                   	retq   

0000000000006563 <safe_rshift_func_int16_t_s_u>:
    6563:	f3 0f 1e fa          	endbr64 
    6567:	55                   	push   %rbp
    6568:	48 89 e5             	mov    %rsp,%rbp
    656b:	89 f8                	mov    %edi,%eax
    656d:	89 75 f8             	mov    %esi,-0x8(%rbp)
    6570:	66 89 45 fc          	mov    %ax,-0x4(%rbp)
    6574:	66 83 7d fc 00       	cmpw   $0x0,-0x4(%rbp)
    6579:	78 15                	js     6590 <safe_rshift_func_int16_t_s_u+0x2d>
    657b:	83 7d f8 1f          	cmpl   $0x1f,-0x8(%rbp)
    657f:	77 0f                	ja     6590 <safe_rshift_func_int16_t_s_u+0x2d>
    6581:	0f bf 55 fc          	movswl -0x4(%rbp),%edx
    6585:	8b 45 f8             	mov    -0x8(%rbp),%eax
    6588:	89 c1                	mov    %eax,%ecx
    658a:	d3 fa                	sar    %cl,%edx
    658c:	89 d0                	mov    %edx,%eax
    658e:	eb 04                	jmp    6594 <safe_rshift_func_int16_t_s_u+0x31>
    6590:	0f b7 45 fc          	movzwl -0x4(%rbp),%eax
    6594:	5d                   	pop    %rbp
    6595:	c3                   	retq   

0000000000006596 <safe_unary_minus_func_int32_t_s>:
    6596:	f3 0f 1e fa          	endbr64 
    659a:	55                   	push   %rbp
    659b:	48 89 e5             	mov    %rsp,%rbp
    659e:	89 7d fc             	mov    %edi,-0x4(%rbp)
    65a1:	81 7d fc 00 00 00 80 	cmpl   $0x80000000,-0x4(%rbp)
    65a8:	74 07                	je     65b1 <safe_unary_minus_func_int32_t_s+0x1b>
    65aa:	8b 45 fc             	mov    -0x4(%rbp),%eax
    65ad:	f7 d8                	neg    %eax
    65af:	eb 03                	jmp    65b4 <safe_unary_minus_func_int32_t_s+0x1e>
    65b1:	8b 45 fc             	mov    -0x4(%rbp),%eax
    65b4:	5d                   	pop    %rbp
    65b5:	c3                   	retq   

00000000000065b6 <safe_add_func_int32_t_s_s>:
    65b6:	f3 0f 1e fa          	endbr64 
    65ba:	55                   	push   %rbp
    65bb:	48 89 e5             	mov    %rsp,%rbp
    65be:	89 7d fc             	mov    %edi,-0x4(%rbp)
    65c1:	89 75 f8             	mov    %esi,-0x8(%rbp)
    65c4:	83 7d fc 00          	cmpl   $0x0,-0x4(%rbp)
    65c8:	7e 13                	jle    65dd <safe_add_func_int32_t_s_s+0x27>
    65ca:	83 7d f8 00          	cmpl   $0x0,-0x8(%rbp)
    65ce:	7e 0d                	jle    65dd <safe_add_func_int32_t_s_s+0x27>
    65d0:	b8 ff ff ff 7f       	mov    $0x7fffffff,%eax
    65d5:	2b 45 f8             	sub    -0x8(%rbp),%eax
    65d8:	39 45 fc             	cmp    %eax,-0x4(%rbp)
    65db:	7f 23                	jg     6600 <safe_add_func_int32_t_s_s+0x4a>
    65dd:	83 7d fc 00          	cmpl   $0x0,-0x4(%rbp)
    65e1:	79 13                	jns    65f6 <safe_add_func_int32_t_s_s+0x40>
    65e3:	83 7d f8 00          	cmpl   $0x0,-0x8(%rbp)
    65e7:	79 0d                	jns    65f6 <safe_add_func_int32_t_s_s+0x40>
    65e9:	b8 00 00 00 80       	mov    $0x80000000,%eax
    65ee:	2b 45 f8             	sub    -0x8(%rbp),%eax
    65f1:	39 45 fc             	cmp    %eax,-0x4(%rbp)
    65f4:	7c 0a                	jl     6600 <safe_add_func_int32_t_s_s+0x4a>
    65f6:	8b 55 fc             	mov    -0x4(%rbp),%edx
    65f9:	8b 45 f8             	mov    -0x8(%rbp),%eax
    65fc:	01 d0                	add    %edx,%eax
    65fe:	eb 03                	jmp    6603 <safe_add_func_int32_t_s_s+0x4d>
    6600:	8b 45 fc             	mov    -0x4(%rbp),%eax
    6603:	5d                   	pop    %rbp
    6604:	c3                   	retq   

0000000000006605 <safe_sub_func_int32_t_s_s>:
    6605:	f3 0f 1e fa          	endbr64 
    6609:	55                   	push   %rbp
    660a:	48 89 e5             	mov    %rsp,%rbp
    660d:	89 7d fc             	mov    %edi,-0x4(%rbp)
    6610:	89 75 f8             	mov    %esi,-0x8(%rbp)
    6613:	8b 45 fc             	mov    -0x4(%rbp),%eax
    6616:	33 45 f8             	xor    -0x8(%rbp),%eax
    6619:	89 c2                	mov    %eax,%edx
    661b:	8b 45 fc             	mov    -0x4(%rbp),%eax
    661e:	33 45 f8             	xor    -0x8(%rbp),%eax
    6621:	25 00 00 00 80       	and    $0x80000000,%eax
    6626:	33 45 fc             	xor    -0x4(%rbp),%eax
    6629:	2b 45 f8             	sub    -0x8(%rbp),%eax
    662c:	33 45 f8             	xor    -0x8(%rbp),%eax
    662f:	21 d0                	and    %edx,%eax
    6631:	85 c0                	test   %eax,%eax
    6633:	78 08                	js     663d <safe_sub_func_int32_t_s_s+0x38>
    6635:	8b 45 fc             	mov    -0x4(%rbp),%eax
    6638:	2b 45 f8             	sub    -0x8(%rbp),%eax
    663b:	eb 03                	jmp    6640 <safe_sub_func_int32_t_s_s+0x3b>
    663d:	8b 45 fc             	mov    -0x4(%rbp),%eax
    6640:	5d                   	pop    %rbp
    6641:	c3                   	retq   

0000000000006642 <safe_mul_func_int32_t_s_s>:
    6642:	f3 0f 1e fa          	endbr64 
    6646:	55                   	push   %rbp
    6647:	48 89 e5             	mov    %rsp,%rbp
    664a:	89 7d fc             	mov    %edi,-0x4(%rbp)
    664d:	89 75 f8             	mov    %esi,-0x8(%rbp)
    6650:	83 7d fc 00          	cmpl   $0x0,-0x4(%rbp)
    6654:	7e 14                	jle    666a <safe_mul_func_int32_t_s_s+0x28>
    6656:	83 7d f8 00          	cmpl   $0x0,-0x8(%rbp)
    665a:	7e 0e                	jle    666a <safe_mul_func_int32_t_s_s+0x28>
    665c:	b8 ff ff ff 7f       	mov    $0x7fffffff,%eax
    6661:	99                   	cltd   
    6662:	f7 7d f8             	idivl  -0x8(%rbp)
    6665:	39 45 fc             	cmp    %eax,-0x4(%rbp)
    6668:	7f 5d                	jg     66c7 <safe_mul_func_int32_t_s_s+0x85>
    666a:	83 7d fc 00          	cmpl   $0x0,-0x4(%rbp)
    666e:	7e 14                	jle    6684 <safe_mul_func_int32_t_s_s+0x42>
    6670:	83 7d f8 00          	cmpl   $0x0,-0x8(%rbp)
    6674:	7f 0e                	jg     6684 <safe_mul_func_int32_t_s_s+0x42>
    6676:	b8 00 00 00 80       	mov    $0x80000000,%eax
    667b:	99                   	cltd   
    667c:	f7 7d fc             	idivl  -0x4(%rbp)
    667f:	39 45 f8             	cmp    %eax,-0x8(%rbp)
    6682:	7c 43                	jl     66c7 <safe_mul_func_int32_t_s_s+0x85>
    6684:	83 7d fc 00          	cmpl   $0x0,-0x4(%rbp)
    6688:	7f 14                	jg     669e <safe_mul_func_int32_t_s_s+0x5c>
    668a:	83 7d f8 00          	cmpl   $0x0,-0x8(%rbp)
    668e:	7e 0e                	jle    669e <safe_mul_func_int32_t_s_s+0x5c>
    6690:	b8 00 00 00 80       	mov    $0x80000000,%eax
    6695:	99                   	cltd   
    6696:	f7 7d f8             	idivl  -0x8(%rbp)
    6699:	39 45 fc             	cmp    %eax,-0x4(%rbp)
    669c:	7c 29                	jl     66c7 <safe_mul_func_int32_t_s_s+0x85>
    669e:	83 7d fc 00          	cmpl   $0x0,-0x4(%rbp)
    66a2:	7f 1a                	jg     66be <safe_mul_func_int32_t_s_s+0x7c>
    66a4:	83 7d f8 00          	cmpl   $0x0,-0x8(%rbp)
    66a8:	7f 14                	jg     66be <safe_mul_func_int32_t_s_s+0x7c>
    66aa:	83 7d fc 00          	cmpl   $0x0,-0x4(%rbp)
    66ae:	74 0e                	je     66be <safe_mul_func_int32_t_s_s+0x7c>
    66b0:	b8 ff ff ff 7f       	mov    $0x7fffffff,%eax
    66b5:	99                   	cltd   
    66b6:	f7 7d fc             	idivl  -0x4(%rbp)
    66b9:	39 45 f8             	cmp    %eax,-0x8(%rbp)
    66bc:	7c 09                	jl     66c7 <safe_mul_func_int32_t_s_s+0x85>
    66be:	8b 45 fc             	mov    -0x4(%rbp),%eax
    66c1:	0f af 45 f8          	imul   -0x8(%rbp),%eax
    66c5:	eb 03                	jmp    66ca <safe_mul_func_int32_t_s_s+0x88>
    66c7:	8b 45 fc             	mov    -0x4(%rbp),%eax
    66ca:	5d                   	pop    %rbp
    66cb:	c3                   	retq   

00000000000066cc <safe_mod_func_int32_t_s_s>:
    66cc:	f3 0f 1e fa          	endbr64 
    66d0:	55                   	push   %rbp
    66d1:	48 89 e5             	mov    %rsp,%rbp
    66d4:	89 7d fc             	mov    %edi,-0x4(%rbp)
    66d7:	89 75 f8             	mov    %esi,-0x8(%rbp)
    66da:	83 7d f8 00          	cmpl   $0x0,-0x8(%rbp)
    66de:	74 1a                	je     66fa <safe_mod_func_int32_t_s_s+0x2e>
    66e0:	81 7d fc 00 00 00 80 	cmpl   $0x80000000,-0x4(%rbp)
    66e7:	75 06                	jne    66ef <safe_mod_func_int32_t_s_s+0x23>
    66e9:	83 7d f8 ff          	cmpl   $0xffffffff,-0x8(%rbp)
    66ed:	74 0b                	je     66fa <safe_mod_func_int32_t_s_s+0x2e>
    66ef:	8b 45 fc             	mov    -0x4(%rbp),%eax
    66f2:	99                   	cltd   
    66f3:	f7 7d f8             	idivl  -0x8(%rbp)
    66f6:	89 d0                	mov    %edx,%eax
    66f8:	eb 03                	jmp    66fd <safe_mod_func_int32_t_s_s+0x31>
    66fa:	8b 45 fc             	mov    -0x4(%rbp),%eax
    66fd:	5d                   	pop    %rbp
    66fe:	c3                   	retq   

00000000000066ff <safe_div_func_int32_t_s_s>:
    66ff:	f3 0f 1e fa          	endbr64 
    6703:	55                   	push   %rbp
    6704:	48 89 e5             	mov    %rsp,%rbp
    6707:	89 7d fc             	mov    %edi,-0x4(%rbp)
    670a:	89 75 f8             	mov    %esi,-0x8(%rbp)
    670d:	83 7d f8 00          	cmpl   $0x0,-0x8(%rbp)
    6711:	74 18                	je     672b <safe_div_func_int32_t_s_s+0x2c>
    6713:	81 7d fc 00 00 00 80 	cmpl   $0x80000000,-0x4(%rbp)
    671a:	75 06                	jne    6722 <safe_div_func_int32_t_s_s+0x23>
    671c:	83 7d f8 ff          	cmpl   $0xffffffff,-0x8(%rbp)
    6720:	74 09                	je     672b <safe_div_func_int32_t_s_s+0x2c>
    6722:	8b 45 fc             	mov    -0x4(%rbp),%eax
    6725:	99                   	cltd   
    6726:	f7 7d f8             	idivl  -0x8(%rbp)
    6729:	eb 03                	jmp    672e <safe_div_func_int32_t_s_s+0x2f>
    672b:	8b 45 fc             	mov    -0x4(%rbp),%eax
    672e:	5d                   	pop    %rbp
    672f:	c3                   	retq   

0000000000006730 <safe_lshift_func_int32_t_s_s>:
    6730:	f3 0f 1e fa          	endbr64 
    6734:	55                   	push   %rbp
    6735:	48 89 e5             	mov    %rsp,%rbp
    6738:	89 7d fc             	mov    %edi,-0x4(%rbp)
    673b:	89 75 f8             	mov    %esi,-0x8(%rbp)
    673e:	83 7d fc 00          	cmpl   $0x0,-0x4(%rbp)
    6742:	78 2d                	js     6771 <safe_lshift_func_int32_t_s_s+0x41>
    6744:	83 7d f8 00          	cmpl   $0x0,-0x8(%rbp)
    6748:	78 27                	js     6771 <safe_lshift_func_int32_t_s_s+0x41>
    674a:	83 7d f8 1f          	cmpl   $0x1f,-0x8(%rbp)
    674e:	7f 21                	jg     6771 <safe_lshift_func_int32_t_s_s+0x41>
    6750:	8b 45 f8             	mov    -0x8(%rbp),%eax
    6753:	ba ff ff ff 7f       	mov    $0x7fffffff,%edx
    6758:	89 c1                	mov    %eax,%ecx
    675a:	d3 fa                	sar    %cl,%edx
    675c:	89 d0                	mov    %edx,%eax
    675e:	39 45 fc             	cmp    %eax,-0x4(%rbp)
    6761:	7f 0e                	jg     6771 <safe_lshift_func_int32_t_s_s+0x41>
    6763:	8b 45 f8             	mov    -0x8(%rbp),%eax
    6766:	8b 55 fc             	mov    -0x4(%rbp),%edx
    6769:	89 c1                	mov    %eax,%ecx
    676b:	d3 e2                	shl    %cl,%edx
    676d:	89 d0                	mov    %edx,%eax
    676f:	eb 03                	jmp    6774 <safe_lshift_func_int32_t_s_s+0x44>
    6771:	8b 45 fc             	mov    -0x4(%rbp),%eax
    6774:	5d                   	pop    %rbp
    6775:	c3                   	retq   

0000000000006776 <safe_lshift_func_int32_t_s_u>:
    6776:	f3 0f 1e fa          	endbr64 
    677a:	55                   	push   %rbp
    677b:	48 89 e5             	mov    %rsp,%rbp
    677e:	89 7d fc             	mov    %edi,-0x4(%rbp)
    6781:	89 75 f8             	mov    %esi,-0x8(%rbp)
    6784:	83 7d fc 00          	cmpl   $0x0,-0x4(%rbp)
    6788:	78 27                	js     67b1 <safe_lshift_func_int32_t_s_u+0x3b>
    678a:	83 7d f8 1f          	cmpl   $0x1f,-0x8(%rbp)
    678e:	77 21                	ja     67b1 <safe_lshift_func_int32_t_s_u+0x3b>
    6790:	8b 45 f8             	mov    -0x8(%rbp),%eax
    6793:	ba ff ff ff 7f       	mov    $0x7fffffff,%edx
    6798:	89 c1                	mov    %eax,%ecx
    679a:	d3 fa                	sar    %cl,%edx
    679c:	89 d0                	mov    %edx,%eax
    679e:	39 45 fc             	cmp    %eax,-0x4(%rbp)
    67a1:	7f 0e                	jg     67b1 <safe_lshift_func_int32_t_s_u+0x3b>
    67a3:	8b 45 f8             	mov    -0x8(%rbp),%eax
    67a6:	8b 55 fc             	mov    -0x4(%rbp),%edx
    67a9:	89 c1                	mov    %eax,%ecx
    67ab:	d3 e2                	shl    %cl,%edx
    67ad:	89 d0                	mov    %edx,%eax
    67af:	eb 03                	jmp    67b4 <safe_lshift_func_int32_t_s_u+0x3e>
    67b1:	8b 45 fc             	mov    -0x4(%rbp),%eax
    67b4:	5d                   	pop    %rbp
    67b5:	c3                   	retq   

00000000000067b6 <safe_rshift_func_int32_t_s_s>:
    67b6:	f3 0f 1e fa          	endbr64 
    67ba:	55                   	push   %rbp
    67bb:	48 89 e5             	mov    %rsp,%rbp
    67be:	89 7d fc             	mov    %edi,-0x4(%rbp)
    67c1:	89 75 f8             	mov    %esi,-0x8(%rbp)
    67c4:	83 7d fc 00          	cmpl   $0x0,-0x4(%rbp)
    67c8:	78 1a                	js     67e4 <safe_rshift_func_int32_t_s_s+0x2e>
    67ca:	83 7d f8 00          	cmpl   $0x0,-0x8(%rbp)
    67ce:	78 14                	js     67e4 <safe_rshift_func_int32_t_s_s+0x2e>
    67d0:	83 7d f8 1f          	cmpl   $0x1f,-0x8(%rbp)
    67d4:	7f 0e                	jg     67e4 <safe_rshift_func_int32_t_s_s+0x2e>
    67d6:	8b 45 f8             	mov    -0x8(%rbp),%eax
    67d9:	8b 55 fc             	mov    -0x4(%rbp),%edx
    67dc:	89 c1                	mov    %eax,%ecx
    67de:	d3 fa                	sar    %cl,%edx
    67e0:	89 d0                	mov    %edx,%eax
    67e2:	eb 03                	jmp    67e7 <safe_rshift_func_int32_t_s_s+0x31>
    67e4:	8b 45 fc             	mov    -0x4(%rbp),%eax
    67e7:	5d                   	pop    %rbp
    67e8:	c3                   	retq   

00000000000067e9 <safe_rshift_func_int32_t_s_u>:
    67e9:	f3 0f 1e fa          	endbr64 
    67ed:	55                   	push   %rbp
    67ee:	48 89 e5             	mov    %rsp,%rbp
    67f1:	89 7d fc             	mov    %edi,-0x4(%rbp)
    67f4:	89 75 f8             	mov    %esi,-0x8(%rbp)
    67f7:	83 7d fc 00          	cmpl   $0x0,-0x4(%rbp)
    67fb:	78 14                	js     6811 <safe_rshift_func_int32_t_s_u+0x28>
    67fd:	83 7d f8 1f          	cmpl   $0x1f,-0x8(%rbp)
    6801:	77 0e                	ja     6811 <safe_rshift_func_int32_t_s_u+0x28>
    6803:	8b 45 f8             	mov    -0x8(%rbp),%eax
    6806:	8b 55 fc             	mov    -0x4(%rbp),%edx
    6809:	89 c1                	mov    %eax,%ecx
    680b:	d3 fa                	sar    %cl,%edx
    680d:	89 d0                	mov    %edx,%eax
    680f:	eb 03                	jmp    6814 <safe_rshift_func_int32_t_s_u+0x2b>
    6811:	8b 45 fc             	mov    -0x4(%rbp),%eax
    6814:	5d                   	pop    %rbp
    6815:	c3                   	retq   

0000000000006816 <safe_unary_minus_func_int64_t_s>:
    6816:	f3 0f 1e fa          	endbr64 
    681a:	55                   	push   %rbp
    681b:	48 89 e5             	mov    %rsp,%rbp
    681e:	48 89 7d f8          	mov    %rdi,-0x8(%rbp)
    6822:	48 b8 00 00 00 00 00 	movabs $0x8000000000000000,%rax
    6829:	00 00 80 
    682c:	48 39 45 f8          	cmp    %rax,-0x8(%rbp)
    6830:	74 09                	je     683b <safe_unary_minus_func_int64_t_s+0x25>
    6832:	48 8b 45 f8          	mov    -0x8(%rbp),%rax
    6836:	48 f7 d8             	neg    %rax
    6839:	eb 04                	jmp    683f <safe_unary_minus_func_int64_t_s+0x29>
    683b:	48 8b 45 f8          	mov    -0x8(%rbp),%rax
    683f:	5d                   	pop    %rbp
    6840:	c3                   	retq   

0000000000006841 <safe_add_func_int64_t_s_s>:
    6841:	f3 0f 1e fa          	endbr64 
    6845:	55                   	push   %rbp
    6846:	48 89 e5             	mov    %rsp,%rbp
    6849:	48 89 7d f8          	mov    %rdi,-0x8(%rbp)
    684d:	48 89 75 f0          	mov    %rsi,-0x10(%rbp)
    6851:	48 83 7d f8 00       	cmpq   $0x0,-0x8(%rbp)
    6856:	7e 1b                	jle    6873 <safe_add_func_int64_t_s_s+0x32>
    6858:	48 83 7d f0 00       	cmpq   $0x0,-0x10(%rbp)
    685d:	7e 14                	jle    6873 <safe_add_func_int64_t_s_s+0x32>
    685f:	48 b8 ff ff ff ff ff 	movabs $0x7fffffffffffffff,%rax
    6866:	ff ff 7f 
    6869:	48 2b 45 f0          	sub    -0x10(%rbp),%rax
    686d:	48 39 45 f8          	cmp    %rax,-0x8(%rbp)
    6871:	7f 2f                	jg     68a2 <safe_add_func_int64_t_s_s+0x61>
    6873:	48 83 7d f8 00       	cmpq   $0x0,-0x8(%rbp)
    6878:	79 1b                	jns    6895 <safe_add_func_int64_t_s_s+0x54>
    687a:	48 83 7d f0 00       	cmpq   $0x0,-0x10(%rbp)
    687f:	79 14                	jns    6895 <safe_add_func_int64_t_s_s+0x54>
    6881:	48 b8 00 00 00 00 00 	movabs $0x8000000000000000,%rax
    6888:	00 00 80 
    688b:	48 2b 45 f0          	sub    -0x10(%rbp),%rax
    688f:	48 39 45 f8          	cmp    %rax,-0x8(%rbp)
    6893:	7c 0d                	jl     68a2 <safe_add_func_int64_t_s_s+0x61>
    6895:	48 8b 55 f8          	mov    -0x8(%rbp),%rdx
    6899:	48 8b 45 f0          	mov    -0x10(%rbp),%rax
    689d:	48 01 d0             	add    %rdx,%rax
    68a0:	eb 04                	jmp    68a6 <safe_add_func_int64_t_s_s+0x65>
    68a2:	48 8b 45 f8          	mov    -0x8(%rbp),%rax
    68a6:	5d                   	pop    %rbp
    68a7:	c3                   	retq   

00000000000068a8 <safe_sub_func_int64_t_s_s>:
    68a8:	f3 0f 1e fa          	endbr64 
    68ac:	55                   	push   %rbp
    68ad:	48 89 e5             	mov    %rsp,%rbp
    68b0:	48 89 7d f8          	mov    %rdi,-0x8(%rbp)
    68b4:	48 89 75 f0          	mov    %rsi,-0x10(%rbp)
    68b8:	48 8b 45 f8          	mov    -0x8(%rbp),%rax
    68bc:	48 33 45 f0          	xor    -0x10(%rbp),%rax
    68c0:	48 89 c2             	mov    %rax,%rdx
    68c3:	48 8b 45 f8          	mov    -0x8(%rbp),%rax
    68c7:	48 33 45 f0          	xor    -0x10(%rbp),%rax
    68cb:	48 b9 00 00 00 00 00 	movabs $0x8000000000000000,%rcx
    68d2:	00 00 80 
    68d5:	48 21 c8             	and    %rcx,%rax
    68d8:	48 33 45 f8          	xor    -0x8(%rbp),%rax
    68dc:	48 2b 45 f0          	sub    -0x10(%rbp),%rax
    68e0:	48 33 45 f0          	xor    -0x10(%rbp),%rax
    68e4:	48 21 d0             	and    %rdx,%rax
    68e7:	48 85 c0             	test   %rax,%rax
    68ea:	78 0a                	js     68f6 <safe_sub_func_int64_t_s_s+0x4e>
    68ec:	48 8b 45 f8          	mov    -0x8(%rbp),%rax
    68f0:	48 2b 45 f0          	sub    -0x10(%rbp),%rax
    68f4:	eb 04                	jmp    68fa <safe_sub_func_int64_t_s_s+0x52>
    68f6:	48 8b 45 f8          	mov    -0x8(%rbp),%rax
    68fa:	5d                   	pop    %rbp
    68fb:	c3                   	retq   

00000000000068fc <safe_mul_func_int64_t_s_s>:
    68fc:	f3 0f 1e fa          	endbr64 
    6900:	55                   	push   %rbp
    6901:	48 89 e5             	mov    %rsp,%rbp
    6904:	48 89 7d f8          	mov    %rdi,-0x8(%rbp)
    6908:	48 89 75 f0          	mov    %rsi,-0x10(%rbp)
    690c:	48 83 7d f8 00       	cmpq   $0x0,-0x8(%rbp)
    6911:	7e 1d                	jle    6930 <safe_mul_func_int64_t_s_s+0x34>
    6913:	48 83 7d f0 00       	cmpq   $0x0,-0x10(%rbp)
    6918:	7e 16                	jle    6930 <safe_mul_func_int64_t_s_s+0x34>
    691a:	48 b8 ff ff ff ff ff 	movabs $0x7fffffffffffffff,%rax
    6921:	ff ff 7f 
    6924:	48 99                	cqto   
    6926:	48 f7 7d f0          	idivq  -0x10(%rbp)
    692a:	48 39 45 f8          	cmp    %rax,-0x8(%rbp)
    692e:	7f 7e                	jg     69ae <safe_mul_func_int64_t_s_s+0xb2>
    6930:	48 83 7d f8 00       	cmpq   $0x0,-0x8(%rbp)
    6935:	7e 1d                	jle    6954 <safe_mul_func_int64_t_s_s+0x58>
    6937:	48 83 7d f0 00       	cmpq   $0x0,-0x10(%rbp)
    693c:	7f 16                	jg     6954 <safe_mul_func_int64_t_s_s+0x58>
    693e:	48 b8 00 00 00 00 00 	movabs $0x8000000000000000,%rax
    6945:	00 00 80 
    6948:	48 99                	cqto   
    694a:	48 f7 7d f8          	idivq  -0x8(%rbp)
    694e:	48 39 45 f0          	cmp    %rax,-0x10(%rbp)
    6952:	7c 5a                	jl     69ae <safe_mul_func_int64_t_s_s+0xb2>
    6954:	48 83 7d f8 00       	cmpq   $0x0,-0x8(%rbp)
    6959:	7f 1d                	jg     6978 <safe_mul_func_int64_t_s_s+0x7c>
    695b:	48 83 7d f0 00       	cmpq   $0x0,-0x10(%rbp)
    6960:	7e 16                	jle    6978 <safe_mul_func_int64_t_s_s+0x7c>
    6962:	48 b8 00 00 00 00 00 	movabs $0x8000000000000000,%rax
    6969:	00 00 80 
    696c:	48 99                	cqto   
    696e:	48 f7 7d f0          	idivq  -0x10(%rbp)
    6972:	48 39 45 f8          	cmp    %rax,-0x8(%rbp)
    6976:	7c 36                	jl     69ae <safe_mul_func_int64_t_s_s+0xb2>
    6978:	48 83 7d f8 00       	cmpq   $0x0,-0x8(%rbp)
    697d:	7f 24                	jg     69a3 <safe_mul_func_int64_t_s_s+0xa7>
    697f:	48 83 7d f0 00       	cmpq   $0x0,-0x10(%rbp)
    6984:	7f 1d                	jg     69a3 <safe_mul_func_int64_t_s_s+0xa7>
    6986:	48 83 7d f8 00       	cmpq   $0x0,-0x8(%rbp)
    698b:	74 16                	je     69a3 <safe_mul_func_int64_t_s_s+0xa7>
    698d:	48 b8 ff ff ff ff ff 	movabs $0x7fffffffffffffff,%rax
    6994:	ff ff 7f 
    6997:	48 99                	cqto   
    6999:	48 f7 7d f8          	idivq  -0x8(%rbp)
    699d:	48 39 45 f0          	cmp    %rax,-0x10(%rbp)
    69a1:	7c 0b                	jl     69ae <safe_mul_func_int64_t_s_s+0xb2>
    69a3:	48 8b 45 f8          	mov    -0x8(%rbp),%rax
    69a7:	48 0f af 45 f0       	imul   -0x10(%rbp),%rax
    69ac:	eb 04                	jmp    69b2 <safe_mul_func_int64_t_s_s+0xb6>
    69ae:	48 8b 45 f8          	mov    -0x8(%rbp),%rax
    69b2:	5d                   	pop    %rbp
    69b3:	c3                   	retq   

00000000000069b4 <safe_mod_func_int64_t_s_s>:
    69b4:	f3 0f 1e fa          	endbr64 
    69b8:	55                   	push   %rbp
    69b9:	48 89 e5             	mov    %rsp,%rbp
    69bc:	48 89 7d f8          	mov    %rdi,-0x8(%rbp)
    69c0:	48 89 75 f0          	mov    %rsi,-0x10(%rbp)
    69c4:	48 83 7d f0 00       	cmpq   $0x0,-0x10(%rbp)
    69c9:	74 26                	je     69f1 <safe_mod_func_int64_t_s_s+0x3d>
    69cb:	48 b8 00 00 00 00 00 	movabs $0x8000000000000000,%rax
    69d2:	00 00 80 
    69d5:	48 39 45 f8          	cmp    %rax,-0x8(%rbp)
    69d9:	75 07                	jne    69e2 <safe_mod_func_int64_t_s_s+0x2e>
    69db:	48 83 7d f0 ff       	cmpq   $0xffffffffffffffff,-0x10(%rbp)
    69e0:	74 0f                	je     69f1 <safe_mod_func_int64_t_s_s+0x3d>
    69e2:	48 8b 45 f8          	mov    -0x8(%rbp),%rax
    69e6:	48 99                	cqto   
    69e8:	48 f7 7d f0          	idivq  -0x10(%rbp)
    69ec:	48 89 d0             	mov    %rdx,%rax
    69ef:	eb 04                	jmp    69f5 <safe_mod_func_int64_t_s_s+0x41>
    69f1:	48 8b 45 f8          	mov    -0x8(%rbp),%rax
    69f5:	5d                   	pop    %rbp
    69f6:	c3                   	retq   

00000000000069f7 <safe_div_func_int64_t_s_s>:
    69f7:	f3 0f 1e fa          	endbr64 
    69fb:	55                   	push   %rbp
    69fc:	48 89 e5             	mov    %rsp,%rbp
    69ff:	48 89 7d f8          	mov    %rdi,-0x8(%rbp)
    6a03:	48 89 75 f0          	mov    %rsi,-0x10(%rbp)
    6a07:	48 83 7d f0 00       	cmpq   $0x0,-0x10(%rbp)
    6a0c:	74 23                	je     6a31 <safe_div_func_int64_t_s_s+0x3a>
    6a0e:	48 b8 00 00 00 00 00 	movabs $0x8000000000000000,%rax
    6a15:	00 00 80 
    6a18:	48 39 45 f8          	cmp    %rax,-0x8(%rbp)
    6a1c:	75 07                	jne    6a25 <safe_div_func_int64_t_s_s+0x2e>
    6a1e:	48 83 7d f0 ff       	cmpq   $0xffffffffffffffff,-0x10(%rbp)
    6a23:	74 0c                	je     6a31 <safe_div_func_int64_t_s_s+0x3a>
    6a25:	48 8b 45 f8          	mov    -0x8(%rbp),%rax
    6a29:	48 99                	cqto   
    6a2b:	48 f7 7d f0          	idivq  -0x10(%rbp)
    6a2f:	eb 04                	jmp    6a35 <safe_div_func_int64_t_s_s+0x3e>
    6a31:	48 8b 45 f8          	mov    -0x8(%rbp),%rax
    6a35:	5d                   	pop    %rbp
    6a36:	c3                   	retq   

0000000000006a37 <safe_lshift_func_int64_t_s_s>:
    6a37:	f3 0f 1e fa          	endbr64 
    6a3b:	55                   	push   %rbp
    6a3c:	48 89 e5             	mov    %rsp,%rbp
    6a3f:	48 89 7d f8          	mov    %rdi,-0x8(%rbp)
    6a43:	89 75 f4             	mov    %esi,-0xc(%rbp)
    6a46:	48 83 7d f8 00       	cmpq   $0x0,-0x8(%rbp)
    6a4b:	78 38                	js     6a85 <safe_lshift_func_int64_t_s_s+0x4e>
    6a4d:	83 7d f4 00          	cmpl   $0x0,-0xc(%rbp)
    6a51:	78 32                	js     6a85 <safe_lshift_func_int64_t_s_s+0x4e>
    6a53:	83 7d f4 1f          	cmpl   $0x1f,-0xc(%rbp)
    6a57:	7f 2c                	jg     6a85 <safe_lshift_func_int64_t_s_s+0x4e>
    6a59:	8b 45 f4             	mov    -0xc(%rbp),%eax
    6a5c:	48 ba ff ff ff ff ff 	movabs $0x7fffffffffffffff,%rdx
    6a63:	ff ff 7f 
    6a66:	89 c1                	mov    %eax,%ecx
    6a68:	48 d3 fa             	sar    %cl,%rdx
    6a6b:	48 89 d0             	mov    %rdx,%rax
    6a6e:	48 39 45 f8          	cmp    %rax,-0x8(%rbp)
    6a72:	7f 11                	jg     6a85 <safe_lshift_func_int64_t_s_s+0x4e>
    6a74:	8b 45 f4             	mov    -0xc(%rbp),%eax
    6a77:	48 8b 55 f8          	mov    -0x8(%rbp),%rdx
    6a7b:	89 c1                	mov    %eax,%ecx
    6a7d:	48 d3 e2             	shl    %cl,%rdx
    6a80:	48 89 d0             	mov    %rdx,%rax
    6a83:	eb 04                	jmp    6a89 <safe_lshift_func_int64_t_s_s+0x52>
    6a85:	48 8b 45 f8          	mov    -0x8(%rbp),%rax
    6a89:	5d                   	pop    %rbp
    6a8a:	c3                   	retq   

0000000000006a8b <safe_lshift_func_int64_t_s_u>:
    6a8b:	f3 0f 1e fa          	endbr64 
    6a8f:	55                   	push   %rbp
    6a90:	48 89 e5             	mov    %rsp,%rbp
    6a93:	48 89 7d f8          	mov    %rdi,-0x8(%rbp)
    6a97:	89 75 f4             	mov    %esi,-0xc(%rbp)
    6a9a:	48 83 7d f8 00       	cmpq   $0x0,-0x8(%rbp)
    6a9f:	78 32                	js     6ad3 <safe_lshift_func_int64_t_s_u+0x48>
    6aa1:	83 7d f4 1f          	cmpl   $0x1f,-0xc(%rbp)
    6aa5:	77 2c                	ja     6ad3 <safe_lshift_func_int64_t_s_u+0x48>
    6aa7:	8b 45 f4             	mov    -0xc(%rbp),%eax
    6aaa:	48 ba ff ff ff ff ff 	movabs $0x7fffffffffffffff,%rdx
    6ab1:	ff ff 7f 
    6ab4:	89 c1                	mov    %eax,%ecx
    6ab6:	48 d3 fa             	sar    %cl,%rdx
    6ab9:	48 89 d0             	mov    %rdx,%rax
    6abc:	48 39 45 f8          	cmp    %rax,-0x8(%rbp)
    6ac0:	7f 11                	jg     6ad3 <safe_lshift_func_int64_t_s_u+0x48>
    6ac2:	8b 45 f4             	mov    -0xc(%rbp),%eax
    6ac5:	48 8b 55 f8          	mov    -0x8(%rbp),%rdx
    6ac9:	89 c1                	mov    %eax,%ecx
    6acb:	48 d3 e2             	shl    %cl,%rdx
    6ace:	48 89 d0             	mov    %rdx,%rax
    6ad1:	eb 04                	jmp    6ad7 <safe_lshift_func_int64_t_s_u+0x4c>
    6ad3:	48 8b 45 f8          	mov    -0x8(%rbp),%rax
    6ad7:	5d                   	pop    %rbp
    6ad8:	c3                   	retq   

0000000000006ad9 <safe_rshift_func_int64_t_s_s>:
    6ad9:	f3 0f 1e fa          	endbr64 
    6add:	55                   	push   %rbp
    6ade:	48 89 e5             	mov    %rsp,%rbp
    6ae1:	48 89 7d f8          	mov    %rdi,-0x8(%rbp)
    6ae5:	89 75 f4             	mov    %esi,-0xc(%rbp)
    6ae8:	48 83 7d f8 00       	cmpq   $0x0,-0x8(%rbp)
    6aed:	78 1d                	js     6b0c <safe_rshift_func_int64_t_s_s+0x33>
    6aef:	83 7d f4 00          	cmpl   $0x0,-0xc(%rbp)
    6af3:	78 17                	js     6b0c <safe_rshift_func_int64_t_s_s+0x33>
    6af5:	83 7d f4 1f          	cmpl   $0x1f,-0xc(%rbp)
    6af9:	7f 11                	jg     6b0c <safe_rshift_func_int64_t_s_s+0x33>
    6afb:	8b 45 f4             	mov    -0xc(%rbp),%eax
    6afe:	48 8b 55 f8          	mov    -0x8(%rbp),%rdx
    6b02:	89 c1                	mov    %eax,%ecx
    6b04:	48 d3 fa             	sar    %cl,%rdx
    6b07:	48 89 d0             	mov    %rdx,%rax
    6b0a:	eb 04                	jmp    6b10 <safe_rshift_func_int64_t_s_s+0x37>
    6b0c:	48 8b 45 f8          	mov    -0x8(%rbp),%rax
    6b10:	5d                   	pop    %rbp
    6b11:	c3                   	retq   

0000000000006b12 <safe_rshift_func_int64_t_s_u>:
    6b12:	f3 0f 1e fa          	endbr64 
    6b16:	55                   	push   %rbp
    6b17:	48 89 e5             	mov    %rsp,%rbp
    6b1a:	48 89 7d f8          	mov    %rdi,-0x8(%rbp)
    6b1e:	89 75 f4             	mov    %esi,-0xc(%rbp)
    6b21:	48 83 7d f8 00       	cmpq   $0x0,-0x8(%rbp)
    6b26:	78 17                	js     6b3f <safe_rshift_func_int64_t_s_u+0x2d>
    6b28:	83 7d f4 1f          	cmpl   $0x1f,-0xc(%rbp)
    6b2c:	77 11                	ja     6b3f <safe_rshift_func_int64_t_s_u+0x2d>
    6b2e:	8b 45 f4             	mov    -0xc(%rbp),%eax
    6b31:	48 8b 55 f8          	mov    -0x8(%rbp),%rdx
    6b35:	89 c1                	mov    %eax,%ecx
    6b37:	48 d3 fa             	sar    %cl,%rdx
    6b3a:	48 89 d0             	mov    %rdx,%rax
    6b3d:	eb 04                	jmp    6b43 <safe_rshift_func_int64_t_s_u+0x31>
    6b3f:	48 8b 45 f8          	mov    -0x8(%rbp),%rax
    6b43:	5d                   	pop    %rbp
    6b44:	c3                   	retq   

0000000000006b45 <safe_unary_minus_func_uint8_t_u>:
    6b45:	f3 0f 1e fa          	endbr64 
    6b49:	55                   	push   %rbp
    6b4a:	48 89 e5             	mov    %rsp,%rbp
    6b4d:	89 f8                	mov    %edi,%eax
    6b4f:	88 45 fc             	mov    %al,-0x4(%rbp)
    6b52:	0f b6 45 fc          	movzbl -0x4(%rbp),%eax
    6b56:	f7 d8                	neg    %eax
    6b58:	5d                   	pop    %rbp
    6b59:	c3                   	retq   

0000000000006b5a <safe_add_func_uint8_t_u_u>:
    6b5a:	f3 0f 1e fa          	endbr64 
    6b5e:	55                   	push   %rbp
    6b5f:	48 89 e5             	mov    %rsp,%rbp
    6b62:	89 fa                	mov    %edi,%edx
    6b64:	89 f0                	mov    %esi,%eax
    6b66:	88 55 fc             	mov    %dl,-0x4(%rbp)
    6b69:	88 45 f8             	mov    %al,-0x8(%rbp)
    6b6c:	0f b6 55 fc          	movzbl -0x4(%rbp),%edx
    6b70:	0f b6 45 f8          	movzbl -0x8(%rbp),%eax
    6b74:	01 d0                	add    %edx,%eax
    6b76:	5d                   	pop    %rbp
    6b77:	c3                   	retq   

0000000000006b78 <safe_sub_func_uint8_t_u_u>:
    6b78:	f3 0f 1e fa          	endbr64 
    6b7c:	55                   	push   %rbp
    6b7d:	48 89 e5             	mov    %rsp,%rbp
    6b80:	89 fa                	mov    %edi,%edx
    6b82:	89 f0                	mov    %esi,%eax
    6b84:	88 55 fc             	mov    %dl,-0x4(%rbp)
    6b87:	88 45 f8             	mov    %al,-0x8(%rbp)
    6b8a:	0f b6 45 fc          	movzbl -0x4(%rbp),%eax
    6b8e:	2a 45 f8             	sub    -0x8(%rbp),%al
    6b91:	5d                   	pop    %rbp
    6b92:	c3                   	retq   

0000000000006b93 <safe_mul_func_uint8_t_u_u>:
    6b93:	f3 0f 1e fa          	endbr64 
    6b97:	55                   	push   %rbp
    6b98:	48 89 e5             	mov    %rsp,%rbp
    6b9b:	89 fa                	mov    %edi,%edx
    6b9d:	89 f0                	mov    %esi,%eax
    6b9f:	88 55 fc             	mov    %dl,-0x4(%rbp)
    6ba2:	88 45 f8             	mov    %al,-0x8(%rbp)
    6ba5:	0f b6 45 fc          	movzbl -0x4(%rbp),%eax
    6ba9:	f6 65 f8             	mulb   -0x8(%rbp)
    6bac:	5d                   	pop    %rbp
    6bad:	c3                   	retq   

0000000000006bae <safe_mod_func_uint8_t_u_u>:
    6bae:	f3 0f 1e fa          	endbr64 
    6bb2:	55                   	push   %rbp
    6bb3:	48 89 e5             	mov    %rsp,%rbp
    6bb6:	89 fa                	mov    %edi,%edx
    6bb8:	89 f0                	mov    %esi,%eax
    6bba:	88 55 fc             	mov    %dl,-0x4(%rbp)
    6bbd:	88 45 f8             	mov    %al,-0x8(%rbp)
    6bc0:	80 7d f8 00          	cmpb   $0x0,-0x8(%rbp)
    6bc4:	74 0f                	je     6bd5 <safe_mod_func_uint8_t_u_u+0x27>
    6bc6:	0f b6 45 fc          	movzbl -0x4(%rbp),%eax
    6bca:	0f b6 c0             	movzbl %al,%eax
    6bcd:	f6 75 f8             	divb   -0x8(%rbp)
    6bd0:	0f b6 c4             	movzbl %ah,%eax
    6bd3:	eb 04                	jmp    6bd9 <safe_mod_func_uint8_t_u_u+0x2b>
    6bd5:	0f b6 45 fc          	movzbl -0x4(%rbp),%eax
    6bd9:	5d                   	pop    %rbp
    6bda:	c3                   	retq   

0000000000006bdb <safe_div_func_uint8_t_u_u>:
    6bdb:	f3 0f 1e fa          	endbr64 
    6bdf:	55                   	push   %rbp
    6be0:	48 89 e5             	mov    %rsp,%rbp
    6be3:	89 fa                	mov    %edi,%edx
    6be5:	89 f0                	mov    %esi,%eax
    6be7:	88 55 fc             	mov    %dl,-0x4(%rbp)
    6bea:	88 45 f8             	mov    %al,-0x8(%rbp)
    6bed:	80 7d f8 00          	cmpb   $0x0,-0x8(%rbp)
    6bf1:	74 0c                	je     6bff <safe_div_func_uint8_t_u_u+0x24>
    6bf3:	0f b6 45 fc          	movzbl -0x4(%rbp),%eax
    6bf7:	0f b6 c0             	movzbl %al,%eax
    6bfa:	f6 75 f8             	divb   -0x8(%rbp)
    6bfd:	eb 04                	jmp    6c03 <safe_div_func_uint8_t_u_u+0x28>
    6bff:	0f b6 45 fc          	movzbl -0x4(%rbp),%eax
    6c03:	5d                   	pop    %rbp
    6c04:	c3                   	retq   

0000000000006c05 <safe_lshift_func_uint8_t_u_s>:
    6c05:	f3 0f 1e fa          	endbr64 
    6c09:	55                   	push   %rbp
    6c0a:	48 89 e5             	mov    %rsp,%rbp
    6c0d:	89 f8                	mov    %edi,%eax
    6c0f:	89 75 f8             	mov    %esi,-0x8(%rbp)
    6c12:	88 45 fc             	mov    %al,-0x4(%rbp)
    6c15:	83 7d f8 00          	cmpl   $0x0,-0x8(%rbp)
    6c19:	78 2b                	js     6c46 <safe_lshift_func_uint8_t_u_s+0x41>
    6c1b:	83 7d f8 1f          	cmpl   $0x1f,-0x8(%rbp)
    6c1f:	7f 25                	jg     6c46 <safe_lshift_func_uint8_t_u_s+0x41>
    6c21:	0f b6 55 fc          	movzbl -0x4(%rbp),%edx
    6c25:	8b 45 f8             	mov    -0x8(%rbp),%eax
    6c28:	be ff 00 00 00       	mov    $0xff,%esi
    6c2d:	89 c1                	mov    %eax,%ecx
    6c2f:	d3 fe                	sar    %cl,%esi
    6c31:	89 f0                	mov    %esi,%eax
    6c33:	39 c2                	cmp    %eax,%edx
    6c35:	7f 0f                	jg     6c46 <safe_lshift_func_uint8_t_u_s+0x41>
    6c37:	0f b6 55 fc          	movzbl -0x4(%rbp),%edx
    6c3b:	8b 45 f8             	mov    -0x8(%rbp),%eax
    6c3e:	89 c1                	mov    %eax,%ecx
    6c40:	d3 e2                	shl    %cl,%edx
    6c42:	89 d0                	mov    %edx,%eax
    6c44:	eb 04                	jmp    6c4a <safe_lshift_func_uint8_t_u_s+0x45>
    6c46:	0f b6 45 fc          	movzbl -0x4(%rbp),%eax
    6c4a:	5d                   	pop    %rbp
    6c4b:	c3                   	retq   

0000000000006c4c <safe_lshift_func_uint8_t_u_u>:
    6c4c:	f3 0f 1e fa          	endbr64 
    6c50:	55                   	push   %rbp
    6c51:	48 89 e5             	mov    %rsp,%rbp
    6c54:	89 f8                	mov    %edi,%eax
    6c56:	89 75 f8             	mov    %esi,-0x8(%rbp)
    6c59:	88 45 fc             	mov    %al,-0x4(%rbp)
    6c5c:	83 7d f8 1f          	cmpl   $0x1f,-0x8(%rbp)
    6c60:	77 25                	ja     6c87 <safe_lshift_func_uint8_t_u_u+0x3b>
    6c62:	0f b6 55 fc          	movzbl -0x4(%rbp),%edx
    6c66:	8b 45 f8             	mov    -0x8(%rbp),%eax
    6c69:	be ff 00 00 00       	mov    $0xff,%esi
    6c6e:	89 c1                	mov    %eax,%ecx
    6c70:	d3 fe                	sar    %cl,%esi
    6c72:	89 f0                	mov    %esi,%eax
    6c74:	39 c2                	cmp    %eax,%edx
    6c76:	7f 0f                	jg     6c87 <safe_lshift_func_uint8_t_u_u+0x3b>
    6c78:	0f b6 55 fc          	movzbl -0x4(%rbp),%edx
    6c7c:	8b 45 f8             	mov    -0x8(%rbp),%eax
    6c7f:	89 c1                	mov    %eax,%ecx
    6c81:	d3 e2                	shl    %cl,%edx
    6c83:	89 d0                	mov    %edx,%eax
    6c85:	eb 04                	jmp    6c8b <safe_lshift_func_uint8_t_u_u+0x3f>
    6c87:	0f b6 45 fc          	movzbl -0x4(%rbp),%eax
    6c8b:	5d                   	pop    %rbp
    6c8c:	c3                   	retq   

0000000000006c8d <safe_rshift_func_uint8_t_u_s>:
    6c8d:	f3 0f 1e fa          	endbr64 
    6c91:	55                   	push   %rbp
    6c92:	48 89 e5             	mov    %rsp,%rbp
    6c95:	89 f8                	mov    %edi,%eax
    6c97:	89 75 f8             	mov    %esi,-0x8(%rbp)
    6c9a:	88 45 fc             	mov    %al,-0x4(%rbp)
    6c9d:	83 7d f8 00          	cmpl   $0x0,-0x8(%rbp)
    6ca1:	78 15                	js     6cb8 <safe_rshift_func_uint8_t_u_s+0x2b>
    6ca3:	83 7d f8 1f          	cmpl   $0x1f,-0x8(%rbp)
    6ca7:	7f 0f                	jg     6cb8 <safe_rshift_func_uint8_t_u_s+0x2b>
    6ca9:	0f b6 55 fc          	movzbl -0x4(%rbp),%edx
    6cad:	8b 45 f8             	mov    -0x8(%rbp),%eax
    6cb0:	89 c1                	mov    %eax,%ecx
    6cb2:	d3 fa                	sar    %cl,%edx
    6cb4:	89 d0                	mov    %edx,%eax
    6cb6:	eb 04                	jmp    6cbc <safe_rshift_func_uint8_t_u_s+0x2f>
    6cb8:	0f b6 45 fc          	movzbl -0x4(%rbp),%eax
    6cbc:	5d                   	pop    %rbp
    6cbd:	c3                   	retq   

0000000000006cbe <safe_rshift_func_uint8_t_u_u>:
    6cbe:	f3 0f 1e fa          	endbr64 
    6cc2:	55                   	push   %rbp
    6cc3:	48 89 e5             	mov    %rsp,%rbp
    6cc6:	89 f8                	mov    %edi,%eax
    6cc8:	89 75 f8             	mov    %esi,-0x8(%rbp)
    6ccb:	88 45 fc             	mov    %al,-0x4(%rbp)
    6cce:	83 7d f8 1f          	cmpl   $0x1f,-0x8(%rbp)
    6cd2:	77 0f                	ja     6ce3 <safe_rshift_func_uint8_t_u_u+0x25>
    6cd4:	0f b6 55 fc          	movzbl -0x4(%rbp),%edx
    6cd8:	8b 45 f8             	mov    -0x8(%rbp),%eax
    6cdb:	89 c1                	mov    %eax,%ecx
    6cdd:	d3 fa                	sar    %cl,%edx
    6cdf:	89 d0                	mov    %edx,%eax
    6ce1:	eb 04                	jmp    6ce7 <safe_rshift_func_uint8_t_u_u+0x29>
    6ce3:	0f b6 45 fc          	movzbl -0x4(%rbp),%eax
    6ce7:	5d                   	pop    %rbp
    6ce8:	c3                   	retq   

0000000000006ce9 <safe_unary_minus_func_uint16_t_u>:
    6ce9:	f3 0f 1e fa          	endbr64 
    6ced:	55                   	push   %rbp
    6cee:	48 89 e5             	mov    %rsp,%rbp
    6cf1:	89 f8                	mov    %edi,%eax
    6cf3:	66 89 45 fc          	mov    %ax,-0x4(%rbp)
    6cf7:	0f b7 45 fc          	movzwl -0x4(%rbp),%eax
    6cfb:	f7 d8                	neg    %eax
    6cfd:	5d                   	pop    %rbp
    6cfe:	c3                   	retq   

0000000000006cff <safe_add_func_uint16_t_u_u>:
    6cff:	f3 0f 1e fa          	endbr64 
    6d03:	55                   	push   %rbp
    6d04:	48 89 e5             	mov    %rsp,%rbp
    6d07:	89 fa                	mov    %edi,%edx
    6d09:	89 f0                	mov    %esi,%eax
    6d0b:	66 89 55 fc          	mov    %dx,-0x4(%rbp)
    6d0f:	66 89 45 f8          	mov    %ax,-0x8(%rbp)
    6d13:	0f b7 55 fc          	movzwl -0x4(%rbp),%edx
    6d17:	0f b7 45 f8          	movzwl -0x8(%rbp),%eax
    6d1b:	01 d0                	add    %edx,%eax
    6d1d:	5d                   	pop    %rbp
    6d1e:	c3                   	retq   

0000000000006d1f <safe_sub_func_uint16_t_u_u>:
    6d1f:	f3 0f 1e fa          	endbr64 
    6d23:	55                   	push   %rbp
    6d24:	48 89 e5             	mov    %rsp,%rbp
    6d27:	89 fa                	mov    %edi,%edx
    6d29:	89 f0                	mov    %esi,%eax
    6d2b:	66 89 55 fc          	mov    %dx,-0x4(%rbp)
    6d2f:	66 89 45 f8          	mov    %ax,-0x8(%rbp)
    6d33:	0f b7 45 fc          	movzwl -0x4(%rbp),%eax
    6d37:	66 2b 45 f8          	sub    -0x8(%rbp),%ax
    6d3b:	5d                   	pop    %rbp
    6d3c:	c3                   	retq   

0000000000006d3d <safe_mul_func_uint16_t_u_u>:
    6d3d:	f3 0f 1e fa          	endbr64 
    6d41:	55                   	push   %rbp
    6d42:	48 89 e5             	mov    %rsp,%rbp
    6d45:	89 fa                	mov    %edi,%edx
    6d47:	89 f0                	mov    %esi,%eax
    6d49:	66 89 55 fc          	mov    %dx,-0x4(%rbp)
    6d4d:	66 89 45 f8          	mov    %ax,-0x8(%rbp)
    6d51:	0f b7 45 fc          	movzwl -0x4(%rbp),%eax
    6d55:	66 0f af 45 f8       	imul   -0x8(%rbp),%ax
    6d5a:	5d                   	pop    %rbp
    6d5b:	c3                   	retq   

0000000000006d5c <safe_mod_func_uint16_t_u_u>:
    6d5c:	f3 0f 1e fa          	endbr64 
    6d60:	55                   	push   %rbp
    6d61:	48 89 e5             	mov    %rsp,%rbp
    6d64:	89 fa                	mov    %edi,%edx
    6d66:	89 f0                	mov    %esi,%eax
    6d68:	66 89 55 fc          	mov    %dx,-0x4(%rbp)
    6d6c:	66 89 45 f8          	mov    %ax,-0x8(%rbp)
    6d70:	66 83 7d f8 00       	cmpw   $0x0,-0x8(%rbp)
    6d75:	74 11                	je     6d88 <safe_mod_func_uint16_t_u_u+0x2c>
    6d77:	0f b7 45 fc          	movzwl -0x4(%rbp),%eax
    6d7b:	ba 00 00 00 00       	mov    $0x0,%edx
    6d80:	66 f7 75 f8          	divw   -0x8(%rbp)
    6d84:	89 d0                	mov    %edx,%eax
    6d86:	eb 04                	jmp    6d8c <safe_mod_func_uint16_t_u_u+0x30>
    6d88:	0f b7 45 fc          	movzwl -0x4(%rbp),%eax
    6d8c:	5d                   	pop    %rbp
    6d8d:	c3                   	retq   

0000000000006d8e <safe_div_func_uint16_t_u_u>:
    6d8e:	f3 0f 1e fa          	endbr64 
    6d92:	55                   	push   %rbp
    6d93:	48 89 e5             	mov    %rsp,%rbp
    6d96:	89 fa                	mov    %edi,%edx
    6d98:	89 f0                	mov    %esi,%eax
    6d9a:	66 89 55 fc          	mov    %dx,-0x4(%rbp)
    6d9e:	66 89 45 f8          	mov    %ax,-0x8(%rbp)
    6da2:	66 83 7d f8 00       	cmpw   $0x0,-0x8(%rbp)
    6da7:	74 0f                	je     6db8 <safe_div_func_uint16_t_u_u+0x2a>
    6da9:	0f b7 45 fc          	movzwl -0x4(%rbp),%eax
    6dad:	ba 00 00 00 00       	mov    $0x0,%edx
    6db2:	66 f7 75 f8          	divw   -0x8(%rbp)
    6db6:	eb 04                	jmp    6dbc <safe_div_func_uint16_t_u_u+0x2e>
    6db8:	0f b7 45 fc          	movzwl -0x4(%rbp),%eax
    6dbc:	5d                   	pop    %rbp
    6dbd:	c3                   	retq   

0000000000006dbe <safe_lshift_func_uint16_t_u_s>:
    6dbe:	f3 0f 1e fa          	endbr64 
    6dc2:	55                   	push   %rbp
    6dc3:	48 89 e5             	mov    %rsp,%rbp
    6dc6:	89 f8                	mov    %edi,%eax
    6dc8:	89 75 f8             	mov    %esi,-0x8(%rbp)
    6dcb:	66 89 45 fc          	mov    %ax,-0x4(%rbp)
    6dcf:	83 7d f8 00          	cmpl   $0x0,-0x8(%rbp)
    6dd3:	78 2b                	js     6e00 <safe_lshift_func_uint16_t_u_s+0x42>
    6dd5:	83 7d f8 1f          	cmpl   $0x1f,-0x8(%rbp)
    6dd9:	7f 25                	jg     6e00 <safe_lshift_func_uint16_t_u_s+0x42>
    6ddb:	0f b7 55 fc          	movzwl -0x4(%rbp),%edx
    6ddf:	8b 45 f8             	mov    -0x8(%rbp),%eax
    6de2:	be ff ff 00 00       	mov    $0xffff,%esi
    6de7:	89 c1                	mov    %eax,%ecx
    6de9:	d3 fe                	sar    %cl,%esi
    6deb:	89 f0                	mov    %esi,%eax
    6ded:	39 c2                	cmp    %eax,%edx
    6def:	7f 0f                	jg     6e00 <safe_lshift_func_uint16_t_u_s+0x42>
    6df1:	0f b7 55 fc          	movzwl -0x4(%rbp),%edx
    6df5:	8b 45 f8             	mov    -0x8(%rbp),%eax
    6df8:	89 c1                	mov    %eax,%ecx
    6dfa:	d3 e2                	shl    %cl,%edx
    6dfc:	89 d0                	mov    %edx,%eax
    6dfe:	eb 04                	jmp    6e04 <safe_lshift_func_uint16_t_u_s+0x46>
    6e00:	0f b7 45 fc          	movzwl -0x4(%rbp),%eax
    6e04:	5d                   	pop    %rbp
    6e05:	c3                   	retq   

0000000000006e06 <safe_lshift_func_uint16_t_u_u>:
    6e06:	f3 0f 1e fa          	endbr64 
    6e0a:	55                   	push   %rbp
    6e0b:	48 89 e5             	mov    %rsp,%rbp
    6e0e:	89 f8                	mov    %edi,%eax
    6e10:	89 75 f8             	mov    %esi,-0x8(%rbp)
    6e13:	66 89 45 fc          	mov    %ax,-0x4(%rbp)
    6e17:	83 7d f8 1f          	cmpl   $0x1f,-0x8(%rbp)
    6e1b:	77 25                	ja     6e42 <safe_lshift_func_uint16_t_u_u+0x3c>
    6e1d:	0f b7 55 fc          	movzwl -0x4(%rbp),%edx
    6e21:	8b 45 f8             	mov    -0x8(%rbp),%eax
    6e24:	be ff ff 00 00       	mov    $0xffff,%esi
    6e29:	89 c1                	mov    %eax,%ecx
    6e2b:	d3 fe                	sar    %cl,%esi
    6e2d:	89 f0                	mov    %esi,%eax
    6e2f:	39 c2                	cmp    %eax,%edx
    6e31:	7f 0f                	jg     6e42 <safe_lshift_func_uint16_t_u_u+0x3c>
    6e33:	0f b7 55 fc          	movzwl -0x4(%rbp),%edx
    6e37:	8b 45 f8             	mov    -0x8(%rbp),%eax
    6e3a:	89 c1                	mov    %eax,%ecx
    6e3c:	d3 e2                	shl    %cl,%edx
    6e3e:	89 d0                	mov    %edx,%eax
    6e40:	eb 04                	jmp    6e46 <safe_lshift_func_uint16_t_u_u+0x40>
    6e42:	0f b7 45 fc          	movzwl -0x4(%rbp),%eax
    6e46:	5d                   	pop    %rbp
    6e47:	c3                   	retq   

0000000000006e48 <safe_rshift_func_uint16_t_u_s>:
    6e48:	f3 0f 1e fa          	endbr64 
    6e4c:	55                   	push   %rbp
    6e4d:	48 89 e5             	mov    %rsp,%rbp
    6e50:	89 f8                	mov    %edi,%eax
    6e52:	89 75 f8             	mov    %esi,-0x8(%rbp)
    6e55:	66 89 45 fc          	mov    %ax,-0x4(%rbp)
    6e59:	83 7d f8 00          	cmpl   $0x0,-0x8(%rbp)
    6e5d:	78 15                	js     6e74 <safe_rshift_func_uint16_t_u_s+0x2c>
    6e5f:	83 7d f8 1f          	cmpl   $0x1f,-0x8(%rbp)
    6e63:	7f 0f                	jg     6e74 <safe_rshift_func_uint16_t_u_s+0x2c>
    6e65:	0f b7 55 fc          	movzwl -0x4(%rbp),%edx
    6e69:	8b 45 f8             	mov    -0x8(%rbp),%eax
    6e6c:	89 c1                	mov    %eax,%ecx
    6e6e:	d3 fa                	sar    %cl,%edx
    6e70:	89 d0                	mov    %edx,%eax
    6e72:	eb 04                	jmp    6e78 <safe_rshift_func_uint16_t_u_s+0x30>
    6e74:	0f b7 45 fc          	movzwl -0x4(%rbp),%eax
    6e78:	5d                   	pop    %rbp
    6e79:	c3                   	retq   

0000000000006e7a <safe_rshift_func_uint16_t_u_u>:
    6e7a:	f3 0f 1e fa          	endbr64 
    6e7e:	55                   	push   %rbp
    6e7f:	48 89 e5             	mov    %rsp,%rbp
    6e82:	89 f8                	mov    %edi,%eax
    6e84:	89 75 f8             	mov    %esi,-0x8(%rbp)
    6e87:	66 89 45 fc          	mov    %ax,-0x4(%rbp)
    6e8b:	83 7d f8 1f          	cmpl   $0x1f,-0x8(%rbp)
    6e8f:	77 0f                	ja     6ea0 <safe_rshift_func_uint16_t_u_u+0x26>
    6e91:	0f b7 55 fc          	movzwl -0x4(%rbp),%edx
    6e95:	8b 45 f8             	mov    -0x8(%rbp),%eax
    6e98:	89 c1                	mov    %eax,%ecx
    6e9a:	d3 fa                	sar    %cl,%edx
    6e9c:	89 d0                	mov    %edx,%eax
    6e9e:	eb 04                	jmp    6ea4 <safe_rshift_func_uint16_t_u_u+0x2a>
    6ea0:	0f b7 45 fc          	movzwl -0x4(%rbp),%eax
    6ea4:	5d                   	pop    %rbp
    6ea5:	c3                   	retq   

0000000000006ea6 <safe_unary_minus_func_uint32_t_u>:
    6ea6:	f3 0f 1e fa          	endbr64 
    6eaa:	55                   	push   %rbp
    6eab:	48 89 e5             	mov    %rsp,%rbp
    6eae:	89 7d fc             	mov    %edi,-0x4(%rbp)
    6eb1:	8b 45 fc             	mov    -0x4(%rbp),%eax
    6eb4:	f7 d8                	neg    %eax
    6eb6:	5d                   	pop    %rbp
    6eb7:	c3                   	retq   

0000000000006eb8 <safe_add_func_uint32_t_u_u>:
    6eb8:	f3 0f 1e fa          	endbr64 
    6ebc:	55                   	push   %rbp
    6ebd:	48 89 e5             	mov    %rsp,%rbp
    6ec0:	89 7d fc             	mov    %edi,-0x4(%rbp)
    6ec3:	89 75 f8             	mov    %esi,-0x8(%rbp)
    6ec6:	8b 55 fc             	mov    -0x4(%rbp),%edx
    6ec9:	8b 45 f8             	mov    -0x8(%rbp),%eax
    6ecc:	01 d0                	add    %edx,%eax
    6ece:	5d                   	pop    %rbp
    6ecf:	c3                   	retq   

0000000000006ed0 <safe_sub_func_uint32_t_u_u>:
    6ed0:	f3 0f 1e fa          	endbr64 
    6ed4:	55                   	push   %rbp
    6ed5:	48 89 e5             	mov    %rsp,%rbp
    6ed8:	89 7d fc             	mov    %edi,-0x4(%rbp)
    6edb:	89 75 f8             	mov    %esi,-0x8(%rbp)
    6ede:	8b 45 fc             	mov    -0x4(%rbp),%eax
    6ee1:	2b 45 f8             	sub    -0x8(%rbp),%eax
    6ee4:	5d                   	pop    %rbp
    6ee5:	c3                   	retq   

0000000000006ee6 <safe_mul_func_uint32_t_u_u>:
    6ee6:	f3 0f 1e fa          	endbr64 
    6eea:	55                   	push   %rbp
    6eeb:	48 89 e5             	mov    %rsp,%rbp
    6eee:	89 7d fc             	mov    %edi,-0x4(%rbp)
    6ef1:	89 75 f8             	mov    %esi,-0x8(%rbp)
    6ef4:	8b 45 fc             	mov    -0x4(%rbp),%eax
    6ef7:	0f af 45 f8          	imul   -0x8(%rbp),%eax
    6efb:	5d                   	pop    %rbp
    6efc:	c3                   	retq   

0000000000006efd <safe_mod_func_uint32_t_u_u>:
    6efd:	f3 0f 1e fa          	endbr64 
    6f01:	55                   	push   %rbp
    6f02:	48 89 e5             	mov    %rsp,%rbp
    6f05:	89 7d fc             	mov    %edi,-0x4(%rbp)
    6f08:	89 75 f8             	mov    %esi,-0x8(%rbp)
    6f0b:	83 7d f8 00          	cmpl   $0x0,-0x8(%rbp)
    6f0f:	74 0f                	je     6f20 <safe_mod_func_uint32_t_u_u+0x23>
    6f11:	8b 45 fc             	mov    -0x4(%rbp),%eax
    6f14:	ba 00 00 00 00       	mov    $0x0,%edx
    6f19:	f7 75 f8             	divl   -0x8(%rbp)
    6f1c:	89 d0                	mov    %edx,%eax
    6f1e:	eb 03                	jmp    6f23 <safe_mod_func_uint32_t_u_u+0x26>
    6f20:	8b 45 fc             	mov    -0x4(%rbp),%eax
    6f23:	5d                   	pop    %rbp
    6f24:	c3                   	retq   

0000000000006f25 <safe_div_func_uint32_t_u_u>:
    6f25:	f3 0f 1e fa          	endbr64 
    6f29:	55                   	push   %rbp
    6f2a:	48 89 e5             	mov    %rsp,%rbp
    6f2d:	89 7d fc             	mov    %edi,-0x4(%rbp)
    6f30:	89 75 f8             	mov    %esi,-0x8(%rbp)
    6f33:	83 7d f8 00          	cmpl   $0x0,-0x8(%rbp)
    6f37:	74 0d                	je     6f46 <safe_div_func_uint32_t_u_u+0x21>
    6f39:	8b 45 fc             	mov    -0x4(%rbp),%eax
    6f3c:	ba 00 00 00 00       	mov    $0x0,%edx
    6f41:	f7 75 f8             	divl   -0x8(%rbp)
    6f44:	eb 03                	jmp    6f49 <safe_div_func_uint32_t_u_u+0x24>
    6f46:	8b 45 fc             	mov    -0x4(%rbp),%eax
    6f49:	5d                   	pop    %rbp
    6f4a:	c3                   	retq   

0000000000006f4b <safe_lshift_func_uint32_t_u_s>:
    6f4b:	f3 0f 1e fa          	endbr64 
    6f4f:	55                   	push   %rbp
    6f50:	48 89 e5             	mov    %rsp,%rbp
    6f53:	89 7d fc             	mov    %edi,-0x4(%rbp)
    6f56:	89 75 f8             	mov    %esi,-0x8(%rbp)
    6f59:	83 7d f8 00          	cmpl   $0x0,-0x8(%rbp)
    6f5d:	78 27                	js     6f86 <safe_lshift_func_uint32_t_u_s+0x3b>
    6f5f:	83 7d f8 1f          	cmpl   $0x1f,-0x8(%rbp)
    6f63:	7f 21                	jg     6f86 <safe_lshift_func_uint32_t_u_s+0x3b>
    6f65:	8b 45 f8             	mov    -0x8(%rbp),%eax
    6f68:	ba ff ff ff ff       	mov    $0xffffffff,%edx
    6f6d:	89 c1                	mov    %eax,%ecx
    6f6f:	d3 ea                	shr    %cl,%edx
    6f71:	89 d0                	mov    %edx,%eax
    6f73:	39 45 fc             	cmp    %eax,-0x4(%rbp)
    6f76:	77 0e                	ja     6f86 <safe_lshift_func_uint32_t_u_s+0x3b>
    6f78:	8b 45 f8             	mov    -0x8(%rbp),%eax
    6f7b:	8b 55 fc             	mov    -0x4(%rbp),%edx
    6f7e:	89 c1                	mov    %eax,%ecx
    6f80:	d3 e2                	shl    %cl,%edx
    6f82:	89 d0                	mov    %edx,%eax
    6f84:	eb 03                	jmp    6f89 <safe_lshift_func_uint32_t_u_s+0x3e>
    6f86:	8b 45 fc             	mov    -0x4(%rbp),%eax
    6f89:	5d                   	pop    %rbp
    6f8a:	c3                   	retq   

0000000000006f8b <safe_lshift_func_uint32_t_u_u>:
    6f8b:	f3 0f 1e fa          	endbr64 
    6f8f:	55                   	push   %rbp
    6f90:	48 89 e5             	mov    %rsp,%rbp
    6f93:	89 7d fc             	mov    %edi,-0x4(%rbp)
    6f96:	89 75 f8             	mov    %esi,-0x8(%rbp)
    6f99:	83 7d f8 1f          	cmpl   $0x1f,-0x8(%rbp)
    6f9d:	77 21                	ja     6fc0 <safe_lshift_func_uint32_t_u_u+0x35>
    6f9f:	8b 45 f8             	mov    -0x8(%rbp),%eax
    6fa2:	ba ff ff ff ff       	mov    $0xffffffff,%edx
    6fa7:	89 c1                	mov    %eax,%ecx
    6fa9:	d3 ea                	shr    %cl,%edx
    6fab:	89 d0                	mov    %edx,%eax
    6fad:	39 45 fc             	cmp    %eax,-0x4(%rbp)
    6fb0:	77 0e                	ja     6fc0 <safe_lshift_func_uint32_t_u_u+0x35>
    6fb2:	8b 45 f8             	mov    -0x8(%rbp),%eax
    6fb5:	8b 55 fc             	mov    -0x4(%rbp),%edx
    6fb8:	89 c1                	mov    %eax,%ecx
    6fba:	d3 e2                	shl    %cl,%edx
    6fbc:	89 d0                	mov    %edx,%eax
    6fbe:	eb 03                	jmp    6fc3 <safe_lshift_func_uint32_t_u_u+0x38>
    6fc0:	8b 45 fc             	mov    -0x4(%rbp),%eax
    6fc3:	5d                   	pop    %rbp
    6fc4:	c3                   	retq   

0000000000006fc5 <safe_rshift_func_uint32_t_u_s>:
    6fc5:	f3 0f 1e fa          	endbr64 
    6fc9:	55                   	push   %rbp
    6fca:	48 89 e5             	mov    %rsp,%rbp
    6fcd:	89 7d fc             	mov    %edi,-0x4(%rbp)
    6fd0:	89 75 f8             	mov    %esi,-0x8(%rbp)
    6fd3:	83 7d f8 00          	cmpl   $0x0,-0x8(%rbp)
    6fd7:	78 14                	js     6fed <safe_rshift_func_uint32_t_u_s+0x28>
    6fd9:	83 7d f8 1f          	cmpl   $0x1f,-0x8(%rbp)
    6fdd:	7f 0e                	jg     6fed <safe_rshift_func_uint32_t_u_s+0x28>
    6fdf:	8b 45 f8             	mov    -0x8(%rbp),%eax
    6fe2:	8b 55 fc             	mov    -0x4(%rbp),%edx
    6fe5:	89 c1                	mov    %eax,%ecx
    6fe7:	d3 ea                	shr    %cl,%edx
    6fe9:	89 d0                	mov    %edx,%eax
    6feb:	eb 03                	jmp    6ff0 <safe_rshift_func_uint32_t_u_s+0x2b>
    6fed:	8b 45 fc             	mov    -0x4(%rbp),%eax
    6ff0:	5d                   	pop    %rbp
    6ff1:	c3                   	retq   

0000000000006ff2 <safe_rshift_func_uint32_t_u_u>:
    6ff2:	f3 0f 1e fa          	endbr64 
    6ff6:	55                   	push   %rbp
    6ff7:	48 89 e5             	mov    %rsp,%rbp
    6ffa:	89 7d fc             	mov    %edi,-0x4(%rbp)
    6ffd:	89 75 f8             	mov    %esi,-0x8(%rbp)
    7000:	83 7d f8 1f          	cmpl   $0x1f,-0x8(%rbp)
    7004:	77 0e                	ja     7014 <safe_rshift_func_uint32_t_u_u+0x22>
    7006:	8b 45 f8             	mov    -0x8(%rbp),%eax
    7009:	8b 55 fc             	mov    -0x4(%rbp),%edx
    700c:	89 c1                	mov    %eax,%ecx
    700e:	d3 ea                	shr    %cl,%edx
    7010:	89 d0                	mov    %edx,%eax
    7012:	eb 03                	jmp    7017 <safe_rshift_func_uint32_t_u_u+0x25>
    7014:	8b 45 fc             	mov    -0x4(%rbp),%eax
    7017:	5d                   	pop    %rbp
    7018:	c3                   	retq   

0000000000007019 <safe_unary_minus_func_uint64_t_u>:
    7019:	f3 0f 1e fa          	endbr64 
    701d:	55                   	push   %rbp
    701e:	48 89 e5             	mov    %rsp,%rbp
    7021:	48 89 7d f8          	mov    %rdi,-0x8(%rbp)
    7025:	48 8b 45 f8          	mov    -0x8(%rbp),%rax
    7029:	48 f7 d8             	neg    %rax
    702c:	5d                   	pop    %rbp
    702d:	c3                   	retq   

000000000000702e <safe_add_func_uint64_t_u_u>:
    702e:	f3 0f 1e fa          	endbr64 
    7032:	55                   	push   %rbp
    7033:	48 89 e5             	mov    %rsp,%rbp
    7036:	48 89 7d f8          	mov    %rdi,-0x8(%rbp)
    703a:	48 89 75 f0          	mov    %rsi,-0x10(%rbp)
    703e:	48 8b 55 f8          	mov    -0x8(%rbp),%rdx
    7042:	48 8b 45 f0          	mov    -0x10(%rbp),%rax
    7046:	48 01 d0             	add    %rdx,%rax
    7049:	5d                   	pop    %rbp
    704a:	c3                   	retq   

000000000000704b <safe_sub_func_uint64_t_u_u>:
    704b:	f3 0f 1e fa          	endbr64 
    704f:	55                   	push   %rbp
    7050:	48 89 e5             	mov    %rsp,%rbp
    7053:	48 89 7d f8          	mov    %rdi,-0x8(%rbp)
    7057:	48 89 75 f0          	mov    %rsi,-0x10(%rbp)
    705b:	48 8b 45 f8          	mov    -0x8(%rbp),%rax
    705f:	48 2b 45 f0          	sub    -0x10(%rbp),%rax
    7063:	5d                   	pop    %rbp
    7064:	c3                   	retq   

0000000000007065 <safe_mul_func_uint64_t_u_u>:
    7065:	f3 0f 1e fa          	endbr64 
    7069:	55                   	push   %rbp
    706a:	48 89 e5             	mov    %rsp,%rbp
    706d:	48 89 7d f8          	mov    %rdi,-0x8(%rbp)
    7071:	48 89 75 f0          	mov    %rsi,-0x10(%rbp)
    7075:	48 8b 45 f8          	mov    -0x8(%rbp),%rax
    7079:	48 0f af 45 f0       	imul   -0x10(%rbp),%rax
    707e:	5d                   	pop    %rbp
    707f:	c3                   	retq   

0000000000007080 <safe_mod_func_uint64_t_u_u>:
    7080:	f3 0f 1e fa          	endbr64 
    7084:	55                   	push   %rbp
    7085:	48 89 e5             	mov    %rsp,%rbp
    7088:	48 89 7d f8          	mov    %rdi,-0x8(%rbp)
    708c:	48 89 75 f0          	mov    %rsi,-0x10(%rbp)
    7090:	48 83 7d f0 00       	cmpq   $0x0,-0x10(%rbp)
    7095:	74 12                	je     70a9 <safe_mod_func_uint64_t_u_u+0x29>
    7097:	48 8b 45 f8          	mov    -0x8(%rbp),%rax
    709b:	ba 00 00 00 00       	mov    $0x0,%edx
    70a0:	48 f7 75 f0          	divq   -0x10(%rbp)
    70a4:	48 89 d0             	mov    %rdx,%rax
    70a7:	eb 04                	jmp    70ad <safe_mod_func_uint64_t_u_u+0x2d>
    70a9:	48 8b 45 f8          	mov    -0x8(%rbp),%rax
    70ad:	5d                   	pop    %rbp
    70ae:	c3                   	retq   

00000000000070af <safe_div_func_uint64_t_u_u>:
    70af:	f3 0f 1e fa          	endbr64 
    70b3:	55                   	push   %rbp
    70b4:	48 89 e5             	mov    %rsp,%rbp
    70b7:	48 89 7d f8          	mov    %rdi,-0x8(%rbp)
    70bb:	48 89 75 f0          	mov    %rsi,-0x10(%rbp)
    70bf:	48 83 7d f0 00       	cmpq   $0x0,-0x10(%rbp)
    70c4:	74 0f                	je     70d5 <safe_div_func_uint64_t_u_u+0x26>
    70c6:	48 8b 45 f8          	mov    -0x8(%rbp),%rax
    70ca:	ba 00 00 00 00       	mov    $0x0,%edx
    70cf:	48 f7 75 f0          	divq   -0x10(%rbp)
    70d3:	eb 04                	jmp    70d9 <safe_div_func_uint64_t_u_u+0x2a>
    70d5:	48 8b 45 f8          	mov    -0x8(%rbp),%rax
    70d9:	5d                   	pop    %rbp
    70da:	c3                   	retq   

00000000000070db <safe_lshift_func_uint64_t_u_s>:
    70db:	f3 0f 1e fa          	endbr64 
    70df:	55                   	push   %rbp
    70e0:	48 89 e5             	mov    %rsp,%rbp
    70e3:	48 89 7d f8          	mov    %rdi,-0x8(%rbp)
    70e7:	89 75 f4             	mov    %esi,-0xc(%rbp)
    70ea:	83 7d f4 00          	cmpl   $0x0,-0xc(%rbp)
    70ee:	78 2f                	js     711f <safe_lshift_func_uint64_t_u_s+0x44>
    70f0:	83 7d f4 1f          	cmpl   $0x1f,-0xc(%rbp)
    70f4:	7f 29                	jg     711f <safe_lshift_func_uint64_t_u_s+0x44>
    70f6:	8b 45 f4             	mov    -0xc(%rbp),%eax
    70f9:	48 c7 c2 ff ff ff ff 	mov    $0xffffffffffffffff,%rdx
    7100:	89 c1                	mov    %eax,%ecx
    7102:	48 d3 ea             	shr    %cl,%rdx
    7105:	48 89 d0             	mov    %rdx,%rax
    7108:	48 39 45 f8          	cmp    %rax,-0x8(%rbp)
    710c:	77 11                	ja     711f <safe_lshift_func_uint64_t_u_s+0x44>
    710e:	8b 45 f4             	mov    -0xc(%rbp),%eax
    7111:	48 8b 55 f8          	mov    -0x8(%rbp),%rdx
    7115:	89 c1                	mov    %eax,%ecx
    7117:	48 d3 e2             	shl    %cl,%rdx
    711a:	48 89 d0             	mov    %rdx,%rax
    711d:	eb 04                	jmp    7123 <safe_lshift_func_uint64_t_u_s+0x48>
    711f:	48 8b 45 f8          	mov    -0x8(%rbp),%rax
    7123:	5d                   	pop    %rbp
    7124:	c3                   	retq   

0000000000007125 <safe_lshift_func_uint64_t_u_u>:
    7125:	f3 0f 1e fa          	endbr64 
    7129:	55                   	push   %rbp
    712a:	48 89 e5             	mov    %rsp,%rbp
    712d:	48 89 7d f8          	mov    %rdi,-0x8(%rbp)
    7131:	89 75 f4             	mov    %esi,-0xc(%rbp)
    7134:	83 7d f4 1f          	cmpl   $0x1f,-0xc(%rbp)
    7138:	77 29                	ja     7163 <safe_lshift_func_uint64_t_u_u+0x3e>
    713a:	8b 45 f4             	mov    -0xc(%rbp),%eax
    713d:	48 c7 c2 ff ff ff ff 	mov    $0xffffffffffffffff,%rdx
    7144:	89 c1                	mov    %eax,%ecx
    7146:	48 d3 ea             	shr    %cl,%rdx
    7149:	48 89 d0             	mov    %rdx,%rax
    714c:	48 39 45 f8          	cmp    %rax,-0x8(%rbp)
    7150:	77 11                	ja     7163 <safe_lshift_func_uint64_t_u_u+0x3e>
    7152:	8b 45 f4             	mov    -0xc(%rbp),%eax
    7155:	48 8b 55 f8          	mov    -0x8(%rbp),%rdx
    7159:	89 c1                	mov    %eax,%ecx
    715b:	48 d3 e2             	shl    %cl,%rdx
    715e:	48 89 d0             	mov    %rdx,%rax
    7161:	eb 04                	jmp    7167 <safe_lshift_func_uint64_t_u_u+0x42>
    7163:	48 8b 45 f8          	mov    -0x8(%rbp),%rax
    7167:	5d                   	pop    %rbp
    7168:	c3                   	retq   

0000000000007169 <safe_rshift_func_uint64_t_u_s>:
    7169:	f3 0f 1e fa          	endbr64 
    716d:	55                   	push   %rbp
    716e:	48 89 e5             	mov    %rsp,%rbp
    7171:	48 89 7d f8          	mov    %rdi,-0x8(%rbp)
    7175:	89 75 f4             	mov    %esi,-0xc(%rbp)
    7178:	83 7d f4 00          	cmpl   $0x0,-0xc(%rbp)
    717c:	78 17                	js     7195 <safe_rshift_func_uint64_t_u_s+0x2c>
    717e:	83 7d f4 1f          	cmpl   $0x1f,-0xc(%rbp)
    7182:	7f 11                	jg     7195 <safe_rshift_func_uint64_t_u_s+0x2c>
    7184:	8b 45 f4             	mov    -0xc(%rbp),%eax
    7187:	48 8b 55 f8          	mov    -0x8(%rbp),%rdx
    718b:	89 c1                	mov    %eax,%ecx
    718d:	48 d3 ea             	shr    %cl,%rdx
    7190:	48 89 d0             	mov    %rdx,%rax
    7193:	eb 04                	jmp    7199 <safe_rshift_func_uint64_t_u_s+0x30>
    7195:	48 8b 45 f8          	mov    -0x8(%rbp),%rax
    7199:	5d                   	pop    %rbp
    719a:	c3                   	retq   

000000000000719b <safe_rshift_func_uint64_t_u_u>:
    719b:	f3 0f 1e fa          	endbr64 
    719f:	55                   	push   %rbp
    71a0:	48 89 e5             	mov    %rsp,%rbp
    71a3:	48 89 7d f8          	mov    %rdi,-0x8(%rbp)
    71a7:	89 75 f4             	mov    %esi,-0xc(%rbp)
    71aa:	83 7d f4 1f          	cmpl   $0x1f,-0xc(%rbp)
    71ae:	77 11                	ja     71c1 <safe_rshift_func_uint64_t_u_u+0x26>
    71b0:	8b 45 f4             	mov    -0xc(%rbp),%eax
    71b3:	48 8b 55 f8          	mov    -0x8(%rbp),%rdx
    71b7:	89 c1                	mov    %eax,%ecx
    71b9:	48 d3 ea             	shr    %cl,%rdx
    71bc:	48 89 d0             	mov    %rdx,%rax
    71bf:	eb 04                	jmp    71c5 <safe_rshift_func_uint64_t_u_u+0x2a>
    71c1:	48 8b 45 f8          	mov    -0x8(%rbp),%rax
    71c5:	5d                   	pop    %rbp
    71c6:	c3                   	retq   

00000000000071c7 <safe_add_func_float_f_f>:
    71c7:	f3 0f 1e fa          	endbr64 
    71cb:	55                   	push   %rbp
    71cc:	48 89 e5             	mov    %rsp,%rbp
    71cf:	f3 0f 11 45 fc       	movss  %xmm0,-0x4(%rbp)
    71d4:	f3 0f 11 4d f8       	movss  %xmm1,-0x8(%rbp)
    71d9:	f3 0f 10 4d fc       	movss  -0x4(%rbp),%xmm1
    71de:	f3 0f 10 05 e2 35 01 	movss  0x135e2(%rip),%xmm0        # 1a7c8 <l_1393.5051+0x3e8>
    71e5:	00 
    71e6:	f3 0f 59 c8          	mulss  %xmm0,%xmm1
    71ea:	f3 0f 10 55 f8       	movss  -0x8(%rbp),%xmm2
    71ef:	f3 0f 10 05 d1 35 01 	movss  0x135d1(%rip),%xmm0        # 1a7c8 <l_1393.5051+0x3e8>
    71f6:	00 
    71f7:	f3 0f 59 c2          	mulss  %xmm2,%xmm0
    71fb:	f3 0f 58 c1          	addss  %xmm1,%xmm0
    71ff:	f3 0f 10 0d c9 35 01 	movss  0x135c9(%rip),%xmm1        # 1a7d0 <l_1393.5051+0x3f0>
    7206:	00 
    7207:	0f 54 c1             	andps  %xmm1,%xmm0
    720a:	0f 2f 05 cf 35 01 00 	comiss 0x135cf(%rip),%xmm0        # 1a7e0 <l_1393.5051+0x400>
    7211:	76 07                	jbe    721a <safe_add_func_float_f_f+0x53>
    7213:	f3 0f 10 45 fc       	movss  -0x4(%rbp),%xmm0
    7218:	eb 0a                	jmp    7224 <safe_add_func_float_f_f+0x5d>
    721a:	f3 0f 10 45 fc       	movss  -0x4(%rbp),%xmm0
    721f:	f3 0f 58 45 f8       	addss  -0x8(%rbp),%xmm0
    7224:	5d                   	pop    %rbp
    7225:	c3                   	retq   

0000000000007226 <safe_sub_func_float_f_f>:
    7226:	f3 0f 1e fa          	endbr64 
    722a:	55                   	push   %rbp
    722b:	48 89 e5             	mov    %rsp,%rbp
    722e:	f3 0f 11 45 fc       	movss  %xmm0,-0x4(%rbp)
    7233:	f3 0f 11 4d f8       	movss  %xmm1,-0x8(%rbp)
    7238:	f3 0f 10 4d fc       	movss  -0x4(%rbp),%xmm1
    723d:	f3 0f 10 05 83 35 01 	movss  0x13583(%rip),%xmm0        # 1a7c8 <l_1393.5051+0x3e8>
    7244:	00 
    7245:	f3 0f 59 c1          	mulss  %xmm1,%xmm0
    7249:	f3 0f 10 55 f8       	movss  -0x8(%rbp),%xmm2
    724e:	f3 0f 10 0d 72 35 01 	movss  0x13572(%rip),%xmm1        # 1a7c8 <l_1393.5051+0x3e8>
    7255:	00 
    7256:	f3 0f 59 ca          	mulss  %xmm2,%xmm1
    725a:	f3 0f 5c c1          	subss  %xmm1,%xmm0
    725e:	f3 0f 10 0d 6a 35 01 	movss  0x1356a(%rip),%xmm1        # 1a7d0 <l_1393.5051+0x3f0>
    7265:	00 
    7266:	0f 54 c1             	andps  %xmm1,%xmm0
    7269:	0f 2f 05 70 35 01 00 	comiss 0x13570(%rip),%xmm0        # 1a7e0 <l_1393.5051+0x400>
    7270:	76 07                	jbe    7279 <safe_sub_func_float_f_f+0x53>
    7272:	f3 0f 10 45 fc       	movss  -0x4(%rbp),%xmm0
    7277:	eb 0a                	jmp    7283 <safe_sub_func_float_f_f+0x5d>
    7279:	f3 0f 10 45 fc       	movss  -0x4(%rbp),%xmm0
    727e:	f3 0f 5c 45 f8       	subss  -0x8(%rbp),%xmm0
    7283:	5d                   	pop    %rbp
    7284:	c3                   	retq   

0000000000007285 <safe_mul_func_float_f_f>:
    7285:	f3 0f 1e fa          	endbr64 
    7289:	55                   	push   %rbp
    728a:	48 89 e5             	mov    %rsp,%rbp
    728d:	f3 0f 11 45 fc       	movss  %xmm0,-0x4(%rbp)
    7292:	f3 0f 11 4d f8       	movss  %xmm1,-0x8(%rbp)
    7297:	f3 0f 10 4d fc       	movss  -0x4(%rbp),%xmm1
    729c:	f3 0f 10 05 40 35 01 	movss  0x13540(%rip),%xmm0        # 1a7e4 <l_1393.5051+0x404>
    72a3:	00 
    72a4:	f3 0f 59 c8          	mulss  %xmm0,%xmm1
    72a8:	f3 0f 10 55 f8       	movss  -0x8(%rbp),%xmm2
    72ad:	f3 0f 10 05 33 35 01 	movss  0x13533(%rip),%xmm0        # 1a7e8 <l_1393.5051+0x408>
    72b4:	00 
    72b5:	f3 0f 59 c2          	mulss  %xmm2,%xmm0
    72b9:	f3 0f 59 c1          	mulss  %xmm1,%xmm0
    72bd:	f3 0f 10 0d 0b 35 01 	movss  0x1350b(%rip),%xmm1        # 1a7d0 <l_1393.5051+0x3f0>
    72c4:	00 
    72c5:	0f 54 c1             	andps  %xmm1,%xmm0
    72c8:	0f 2f 05 1d 35 01 00 	comiss 0x1351d(%rip),%xmm0        # 1a7ec <l_1393.5051+0x40c>
    72cf:	76 07                	jbe    72d8 <safe_mul_func_float_f_f+0x53>
    72d1:	f3 0f 10 45 fc       	movss  -0x4(%rbp),%xmm0
    72d6:	eb 0a                	jmp    72e2 <safe_mul_func_float_f_f+0x5d>
    72d8:	f3 0f 10 45 fc       	movss  -0x4(%rbp),%xmm0
    72dd:	f3 0f 59 45 f8       	mulss  -0x8(%rbp),%xmm0
    72e2:	5d                   	pop    %rbp
    72e3:	c3                   	retq   

00000000000072e4 <safe_div_func_float_f_f>:
    72e4:	f3 0f 1e fa          	endbr64 
    72e8:	55                   	push   %rbp
    72e9:	48 89 e5             	mov    %rsp,%rbp
    72ec:	f3 0f 11 45 fc       	movss  %xmm0,-0x4(%rbp)
    72f1:	f3 0f 11 4d f8       	movss  %xmm1,-0x8(%rbp)
    72f6:	f3 0f 10 45 f8       	movss  -0x8(%rbp),%xmm0
    72fb:	f3 0f 10 0d cd 34 01 	movss  0x134cd(%rip),%xmm1        # 1a7d0 <l_1393.5051+0x3f0>
    7302:	00 
    7303:	0f 54 c8             	andps  %xmm0,%xmm1
    7306:	f3 0f 10 05 e2 34 01 	movss  0x134e2(%rip),%xmm0        # 1a7f0 <l_1393.5051+0x410>
    730d:	00 
    730e:	0f 2f c1             	comiss %xmm1,%xmm0
    7311:	0f 97 c0             	seta   %al
    7314:	83 f0 01             	xor    $0x1,%eax
    7317:	84 c0                	test   %al,%al
    7319:	75 56                	jne    7371 <safe_div_func_float_f_f+0x8d>
    731b:	66 0f ef c0          	pxor   %xmm0,%xmm0
    731f:	0f 2e 45 f8          	ucomiss -0x8(%rbp),%xmm0
    7323:	7a 0a                	jp     732f <safe_div_func_float_f_f+0x4b>
    7325:	66 0f ef c0          	pxor   %xmm0,%xmm0
    7329:	0f 2e 45 f8          	ucomiss -0x8(%rbp),%xmm0
    732d:	74 4e                	je     737d <safe_div_func_float_f_f+0x99>
    732f:	f3 0f 10 4d fc       	movss  -0x4(%rbp),%xmm1
    7334:	f3 0f 10 05 b8 34 01 	movss  0x134b8(%rip),%xmm0        # 1a7f4 <l_1393.5051+0x414>
    733b:	00 
    733c:	f3 0f 59 c1          	mulss  %xmm1,%xmm0
    7340:	f3 0f 10 55 f8       	movss  -0x8(%rbp),%xmm2
    7345:	f3 0f 10 0d ab 34 01 	movss  0x134ab(%rip),%xmm1        # 1a7f8 <l_1393.5051+0x418>
    734c:	00 
    734d:	f3 0f 59 ca          	mulss  %xmm2,%xmm1
    7351:	f3 0f 5e c1          	divss  %xmm1,%xmm0
    7355:	f3 0f 10 0d 73 34 01 	movss  0x13473(%rip),%xmm1        # 1a7d0 <l_1393.5051+0x3f0>
    735c:	00 
    735d:	0f 54 c1             	andps  %xmm1,%xmm0
    7360:	0f 2f 05 95 34 01 00 	comiss 0x13495(%rip),%xmm0        # 1a7fc <l_1393.5051+0x41c>
    7367:	0f 97 c0             	seta   %al
    736a:	83 f0 01             	xor    $0x1,%eax
    736d:	84 c0                	test   %al,%al
    736f:	74 0c                	je     737d <safe_div_func_float_f_f+0x99>
    7371:	f3 0f 10 45 fc       	movss  -0x4(%rbp),%xmm0
    7376:	f3 0f 5e 45 f8       	divss  -0x8(%rbp),%xmm0
    737b:	eb 05                	jmp    7382 <safe_div_func_float_f_f+0x9e>
    737d:	f3 0f 10 45 fc       	movss  -0x4(%rbp),%xmm0
    7382:	5d                   	pop    %rbp
    7383:	c3                   	retq   

0000000000007384 <safe_add_func_double_f_f>:
    7384:	f3 0f 1e fa          	endbr64 
    7388:	55                   	push   %rbp
    7389:	48 89 e5             	mov    %rsp,%rbp
    738c:	f2 0f 11 45 f8       	movsd  %xmm0,-0x8(%rbp)
    7391:	f2 0f 11 4d f0       	movsd  %xmm1,-0x10(%rbp)
    7396:	f2 0f 10 4d f8       	movsd  -0x8(%rbp),%xmm1
    739b:	f2 0f 10 05 5d 34 01 	movsd  0x1345d(%rip),%xmm0        # 1a800 <l_1393.5051+0x420>
    73a2:	00 
    73a3:	f2 0f 59 c8          	mulsd  %xmm0,%xmm1
    73a7:	f2 0f 10 55 f0       	movsd  -0x10(%rbp),%xmm2
    73ac:	f2 0f 10 05 4c 34 01 	movsd  0x1344c(%rip),%xmm0        # 1a800 <l_1393.5051+0x420>
    73b3:	00 
    73b4:	f2 0f 59 c2          	mulsd  %xmm2,%xmm0
    73b8:	f2 0f 58 c1          	addsd  %xmm1,%xmm0
    73bc:	f3 0f 7e 0d 4c 34 01 	movq   0x1344c(%rip),%xmm1        # 1a810 <l_1393.5051+0x430>
    73c3:	00 
    73c4:	66 0f 54 c1          	andpd  %xmm1,%xmm0
    73c8:	66 0f 2f 05 50 34 01 	comisd 0x13450(%rip),%xmm0        # 1a820 <l_1393.5051+0x440>
    73cf:	00 
    73d0:	76 07                	jbe    73d9 <safe_add_func_double_f_f+0x55>
    73d2:	f2 0f 10 45 f8       	movsd  -0x8(%rbp),%xmm0
    73d7:	eb 0a                	jmp    73e3 <safe_add_func_double_f_f+0x5f>
    73d9:	f2 0f 10 45 f8       	movsd  -0x8(%rbp),%xmm0
    73de:	f2 0f 58 45 f0       	addsd  -0x10(%rbp),%xmm0
    73e3:	5d                   	pop    %rbp
    73e4:	c3                   	retq   

00000000000073e5 <safe_sub_func_double_f_f>:
    73e5:	f3 0f 1e fa          	endbr64 
    73e9:	55                   	push   %rbp
    73ea:	48 89 e5             	mov    %rsp,%rbp
    73ed:	f2 0f 11 45 f8       	movsd  %xmm0,-0x8(%rbp)
    73f2:	f2 0f 11 4d f0       	movsd  %xmm1,-0x10(%rbp)
    73f7:	f2 0f 10 4d f8       	movsd  -0x8(%rbp),%xmm1
    73fc:	f2 0f 10 05 fc 33 01 	movsd  0x133fc(%rip),%xmm0        # 1a800 <l_1393.5051+0x420>
    7403:	00 
    7404:	f2 0f 59 c1          	mulsd  %xmm1,%xmm0
    7408:	f2 0f 10 55 f0       	movsd  -0x10(%rbp),%xmm2
    740d:	f2 0f 10 0d eb 33 01 	movsd  0x133eb(%rip),%xmm1        # 1a800 <l_1393.5051+0x420>
    7414:	00 
    7415:	f2 0f 59 ca          	mulsd  %xmm2,%xmm1
    7419:	f2 0f 5c c1          	subsd  %xmm1,%xmm0
    741d:	f3 0f 7e 0d eb 33 01 	movq   0x133eb(%rip),%xmm1        # 1a810 <l_1393.5051+0x430>
    7424:	00 
    7425:	66 0f 54 c1          	andpd  %xmm1,%xmm0
    7429:	66 0f 2f 05 ef 33 01 	comisd 0x133ef(%rip),%xmm0        # 1a820 <l_1393.5051+0x440>
    7430:	00 
    7431:	76 07                	jbe    743a <safe_sub_func_double_f_f+0x55>
    7433:	f2 0f 10 45 f8       	movsd  -0x8(%rbp),%xmm0
    7438:	eb 0a                	jmp    7444 <safe_sub_func_double_f_f+0x5f>
    743a:	f2 0f 10 45 f8       	movsd  -0x8(%rbp),%xmm0
    743f:	f2 0f 5c 45 f0       	subsd  -0x10(%rbp),%xmm0
    7444:	5d                   	pop    %rbp
    7445:	c3                   	retq   

0000000000007446 <safe_mul_func_double_f_f>:
    7446:	f3 0f 1e fa          	endbr64 
    744a:	55                   	push   %rbp
    744b:	48 89 e5             	mov    %rsp,%rbp
    744e:	f2 0f 11 45 f8       	movsd  %xmm0,-0x8(%rbp)
    7453:	f2 0f 11 4d f0       	movsd  %xmm1,-0x10(%rbp)
    7458:	f2 0f 10 4d f8       	movsd  -0x8(%rbp),%xmm1
    745d:	f2 0f 10 05 c3 33 01 	movsd  0x133c3(%rip),%xmm0        # 1a828 <l_1393.5051+0x448>
    7464:	00 
    7465:	f2 0f 59 c8          	mulsd  %xmm0,%xmm1
    7469:	f2 0f 10 55 f0       	movsd  -0x10(%rbp),%xmm2
    746e:	f2 0f 10 05 ba 33 01 	movsd  0x133ba(%rip),%xmm0        # 1a830 <l_1393.5051+0x450>
    7475:	00 
    7476:	f2 0f 59 c2          	mulsd  %xmm2,%xmm0
    747a:	f2 0f 59 c1          	mulsd  %xmm1,%xmm0
    747e:	f3 0f 7e 0d 8a 33 01 	movq   0x1338a(%rip),%xmm1        # 1a810 <l_1393.5051+0x430>
    7485:	00 
    7486:	66 0f 54 c1          	andpd  %xmm1,%xmm0
    748a:	66 0f 2f 05 a6 33 01 	comisd 0x133a6(%rip),%xmm0        # 1a838 <l_1393.5051+0x458>
    7491:	00 
    7492:	76 07                	jbe    749b <safe_mul_func_double_f_f+0x55>
    7494:	f2 0f 10 45 f8       	movsd  -0x8(%rbp),%xmm0
    7499:	eb 0a                	jmp    74a5 <safe_mul_func_double_f_f+0x5f>
    749b:	f2 0f 10 45 f8       	movsd  -0x8(%rbp),%xmm0
    74a0:	f2 0f 59 45 f0       	mulsd  -0x10(%rbp),%xmm0
    74a5:	5d                   	pop    %rbp
    74a6:	c3                   	retq   

00000000000074a7 <safe_div_func_double_f_f>:
    74a7:	f3 0f 1e fa          	endbr64 
    74ab:	55                   	push   %rbp
    74ac:	48 89 e5             	mov    %rsp,%rbp
    74af:	f2 0f 11 45 f8       	movsd  %xmm0,-0x8(%rbp)
    74b4:	f2 0f 11 4d f0       	movsd  %xmm1,-0x10(%rbp)
    74b9:	f2 0f 10 45 f0       	movsd  -0x10(%rbp),%xmm0
    74be:	f3 0f 7e 0d 4a 33 01 	movq   0x1334a(%rip),%xmm1        # 1a810 <l_1393.5051+0x430>
    74c5:	00 
    74c6:	66 0f 54 c8          	andpd  %xmm0,%xmm1
    74ca:	f2 0f 10 05 6e 33 01 	movsd  0x1336e(%rip),%xmm0        # 1a840 <l_1393.5051+0x460>
    74d1:	00 
    74d2:	66 0f 2f c1          	comisd %xmm1,%xmm0
    74d6:	0f 97 c0             	seta   %al
    74d9:	83 f0 01             	xor    $0x1,%eax
    74dc:	84 c0                	test   %al,%al
    74de:	75 5a                	jne    753a <safe_div_func_double_f_f+0x93>
    74e0:	66 0f ef c0          	pxor   %xmm0,%xmm0
    74e4:	66 0f 2e 45 f0       	ucomisd -0x10(%rbp),%xmm0
    74e9:	7a 0b                	jp     74f6 <safe_div_func_double_f_f+0x4f>
    74eb:	66 0f ef c0          	pxor   %xmm0,%xmm0
    74ef:	66 0f 2e 45 f0       	ucomisd -0x10(%rbp),%xmm0
    74f4:	74 50                	je     7546 <safe_div_func_double_f_f+0x9f>
    74f6:	f2 0f 10 4d f8       	movsd  -0x8(%rbp),%xmm1
    74fb:	f2 0f 10 05 45 33 01 	movsd  0x13345(%rip),%xmm0        # 1a848 <l_1393.5051+0x468>
    7502:	00 
    7503:	f2 0f 59 c1          	mulsd  %xmm1,%xmm0
    7507:	f2 0f 10 55 f0       	movsd  -0x10(%rbp),%xmm2
    750c:	f2 0f 10 0d 3c 33 01 	movsd  0x1333c(%rip),%xmm1        # 1a850 <l_1393.5051+0x470>
    7513:	00 
    7514:	f2 0f 59 ca          	mulsd  %xmm2,%xmm1
    7518:	f2 0f 5e c1          	divsd  %xmm1,%xmm0
    751c:	f3 0f 7e 0d ec 32 01 	movq   0x132ec(%rip),%xmm1        # 1a810 <l_1393.5051+0x430>
    7523:	00 
    7524:	66 0f 54 c1          	andpd  %xmm1,%xmm0
    7528:	66 0f 2f 05 28 33 01 	comisd 0x13328(%rip),%xmm0        # 1a858 <l_1393.5051+0x478>
    752f:	00 
    7530:	0f 97 c0             	seta   %al
    7533:	83 f0 01             	xor    $0x1,%eax
    7536:	84 c0                	test   %al,%al
    7538:	74 0c                	je     7546 <safe_div_func_double_f_f+0x9f>
    753a:	f2 0f 10 45 f8       	movsd  -0x8(%rbp),%xmm0
    753f:	f2 0f 5e 45 f0       	divsd  -0x10(%rbp),%xmm0
    7544:	eb 05                	jmp    754b <safe_div_func_double_f_f+0xa4>
    7546:	f2 0f 10 45 f8       	movsd  -0x8(%rbp),%xmm0
    754b:	5d                   	pop    %rbp
    754c:	c3                   	retq   

000000000000754d <safe_convert_func_float_to_int32_t>:
    754d:	f3 0f 1e fa          	endbr64 
    7551:	55                   	push   %rbp
    7552:	48 89 e5             	mov    %rsp,%rbp
    7555:	f3 0f 11 45 fc       	movss  %xmm0,-0x4(%rbp)
    755a:	f3 0f 10 05 fe 32 01 	movss  0x132fe(%rip),%xmm0        # 1a860 <l_1393.5051+0x480>
    7561:	00 
    7562:	0f 2f 45 fc          	comiss -0x4(%rbp),%xmm0
    7566:	0f 93 c0             	setae  %al
    7569:	83 f0 01             	xor    $0x1,%eax
    756c:	84 c0                	test   %al,%al
    756e:	74 21                	je     7591 <safe_convert_func_float_to_int32_t+0x44>
    7570:	f3 0f 10 45 fc       	movss  -0x4(%rbp),%xmm0
    7575:	0f 2f 05 e8 32 01 00 	comiss 0x132e8(%rip),%xmm0        # 1a864 <l_1393.5051+0x484>
    757c:	0f 93 c0             	setae  %al
    757f:	83 f0 01             	xor    $0x1,%eax
    7582:	84 c0                	test   %al,%al
    7584:	74 0b                	je     7591 <safe_convert_func_float_to_int32_t+0x44>
    7586:	f3 0f 10 45 fc       	movss  -0x4(%rbp),%xmm0
    758b:	f3 0f 2c c0          	cvttss2si %xmm0,%eax
    758f:	eb 05                	jmp    7596 <safe_convert_func_float_to_int32_t+0x49>
    7591:	b8 ff ff ff 7f       	mov    $0x7fffffff,%eax
    7596:	5d                   	pop    %rbp
    7597:	c3                   	retq   

0000000000007598 <crc32_gentab>:
    7598:	f3 0f 1e fa          	endbr64 
    759c:	55                   	push   %rbp
    759d:	48 89 e5             	mov    %rsp,%rbp
    75a0:	c7 45 fc 20 83 b8 ed 	movl   $0xedb88320,-0x4(%rbp)
    75a7:	c7 45 f4 00 00 00 00 	movl   $0x0,-0xc(%rbp)
    75ae:	eb 51                	jmp    7601 <crc32_gentab+0x69>
    75b0:	8b 45 f4             	mov    -0xc(%rbp),%eax
    75b3:	89 45 f0             	mov    %eax,-0x10(%rbp)
    75b6:	c7 45 f8 08 00 00 00 	movl   $0x8,-0x8(%rbp)
    75bd:	eb 1e                	jmp    75dd <crc32_gentab+0x45>
    75bf:	8b 45 f0             	mov    -0x10(%rbp),%eax
    75c2:	83 e0 01             	and    $0x1,%eax
    75c5:	85 c0                	test   %eax,%eax
    75c7:	74 0d                	je     75d6 <crc32_gentab+0x3e>
    75c9:	8b 45 f0             	mov    -0x10(%rbp),%eax
    75cc:	d1 e8                	shr    %eax
    75ce:	33 45 fc             	xor    -0x4(%rbp),%eax
    75d1:	89 45 f0             	mov    %eax,-0x10(%rbp)
    75d4:	eb 03                	jmp    75d9 <crc32_gentab+0x41>
    75d6:	d1 6d f0             	shrl   -0x10(%rbp)
    75d9:	83 6d f8 01          	subl   $0x1,-0x8(%rbp)
    75dd:	83 7d f8 00          	cmpl   $0x0,-0x8(%rbp)
    75e1:	7f dc                	jg     75bf <crc32_gentab+0x27>
    75e3:	8b 45 f4             	mov    -0xc(%rbp),%eax
    75e6:	48 98                	cltq   
    75e8:	48 8d 0c 85 00 00 00 	lea    0x0(,%rax,4),%rcx
    75ef:	00 
    75f0:	48 8d 15 c9 9b 01 00 	lea    0x19bc9(%rip),%rdx        # 211c0 <crc32_tab>
    75f7:	8b 45 f0             	mov    -0x10(%rbp),%eax
    75fa:	89 04 11             	mov    %eax,(%rcx,%rdx,1)
    75fd:	83 45 f4 01          	addl   $0x1,-0xc(%rbp)
    7601:	81 7d f4 ff 00 00 00 	cmpl   $0xff,-0xc(%rbp)
    7608:	7e a6                	jle    75b0 <crc32_gentab+0x18>
    760a:	90                   	nop
    760b:	90                   	nop
    760c:	5d                   	pop    %rbp
    760d:	c3                   	retq   

000000000000760e <crc32_byte>:
    760e:	f3 0f 1e fa          	endbr64 
    7612:	55                   	push   %rbp
    7613:	48 89 e5             	mov    %rsp,%rbp
    7616:	89 f8                	mov    %edi,%eax
    7618:	88 45 fc             	mov    %al,-0x4(%rbp)
    761b:	8b 05 ff 59 01 00    	mov    0x159ff(%rip),%eax        # 1d020 <crc32_context>
    7621:	c1 e8 08             	shr    $0x8,%eax
    7624:	89 c1                	mov    %eax,%ecx
    7626:	0f b6 55 fc          	movzbl -0x4(%rbp),%edx
    762a:	8b 05 f0 59 01 00    	mov    0x159f0(%rip),%eax        # 1d020 <crc32_context>
    7630:	31 d0                	xor    %edx,%eax
    7632:	0f b6 c0             	movzbl %al,%eax
    7635:	89 c0                	mov    %eax,%eax
    7637:	48 8d 14 85 00 00 00 	lea    0x0(,%rax,4),%rdx
    763e:	00 
    763f:	48 8d 05 7a 9b 01 00 	lea    0x19b7a(%rip),%rax        # 211c0 <crc32_tab>
    7646:	8b 04 02             	mov    (%rdx,%rax,1),%eax
    7649:	31 c8                	xor    %ecx,%eax
    764b:	89 05 cf 59 01 00    	mov    %eax,0x159cf(%rip)        # 1d020 <crc32_context>
    7651:	90                   	nop
    7652:	5d                   	pop    %rbp
    7653:	c3                   	retq   

0000000000007654 <crc32_8bytes>:
    7654:	f3 0f 1e fa          	endbr64 
    7658:	55                   	push   %rbp
    7659:	48 89 e5             	mov    %rsp,%rbp
    765c:	48 83 ec 08          	sub    $0x8,%rsp
    7660:	48 89 7d f8          	mov    %rdi,-0x8(%rbp)
    7664:	48 8b 45 f8          	mov    -0x8(%rbp),%rax
    7668:	0f b6 c0             	movzbl %al,%eax
    766b:	89 c7                	mov    %eax,%edi
    766d:	e8 9c ff ff ff       	callq  760e <crc32_byte>
    7672:	48 8b 45 f8          	mov    -0x8(%rbp),%rax
    7676:	48 c1 e8 08          	shr    $0x8,%rax
    767a:	0f b6 c0             	movzbl %al,%eax
    767d:	89 c7                	mov    %eax,%edi
    767f:	e8 8a ff ff ff       	callq  760e <crc32_byte>
    7684:	48 8b 45 f8          	mov    -0x8(%rbp),%rax
    7688:	48 c1 e8 10          	shr    $0x10,%rax
    768c:	0f b6 c0             	movzbl %al,%eax
    768f:	89 c7                	mov    %eax,%edi
    7691:	e8 78 ff ff ff       	callq  760e <crc32_byte>
    7696:	48 8b 45 f8          	mov    -0x8(%rbp),%rax
    769a:	48 c1 e8 18          	shr    $0x18,%rax
    769e:	0f b6 c0             	movzbl %al,%eax
    76a1:	89 c7                	mov    %eax,%edi
    76a3:	e8 66 ff ff ff       	callq  760e <crc32_byte>
    76a8:	48 8b 45 f8          	mov    -0x8(%rbp),%rax
    76ac:	48 c1 e8 20          	shr    $0x20,%rax
    76b0:	0f b6 c0             	movzbl %al,%eax
    76b3:	89 c7                	mov    %eax,%edi
    76b5:	e8 54 ff ff ff       	callq  760e <crc32_byte>
    76ba:	48 8b 45 f8          	mov    -0x8(%rbp),%rax
    76be:	48 c1 e8 28          	shr    $0x28,%rax
    76c2:	0f b6 c0             	movzbl %al,%eax
    76c5:	89 c7                	mov    %eax,%edi
    76c7:	e8 42 ff ff ff       	callq  760e <crc32_byte>
    76cc:	48 8b 45 f8          	mov    -0x8(%rbp),%rax
    76d0:	48 c1 e8 30          	shr    $0x30,%rax
    76d4:	0f b6 c0             	movzbl %al,%eax
    76d7:	89 c7                	mov    %eax,%edi
    76d9:	e8 30 ff ff ff       	callq  760e <crc32_byte>
    76de:	48 8b 45 f8          	mov    -0x8(%rbp),%rax
    76e2:	48 c1 e8 38          	shr    $0x38,%rax
    76e6:	0f b6 c0             	movzbl %al,%eax
    76e9:	89 c7                	mov    %eax,%edi
    76eb:	e8 1e ff ff ff       	callq  760e <crc32_byte>
    76f0:	90                   	nop
    76f1:	c9                   	leaveq 
    76f2:	c3                   	retq   

00000000000076f3 <transparent_crc>:
    76f3:	f3 0f 1e fa          	endbr64 
    76f7:	55                   	push   %rbp
    76f8:	48 89 e5             	mov    %rsp,%rbp
    76fb:	48 83 ec 20          	sub    $0x20,%rsp
    76ff:	48 89 7d f8          	mov    %rdi,-0x8(%rbp)
    7703:	48 89 75 f0          	mov    %rsi,-0x10(%rbp)
    7707:	89 55 ec             	mov    %edx,-0x14(%rbp)
    770a:	48 8b 45 f8          	mov    -0x8(%rbp),%rax
    770e:	48 89 c7             	mov    %rax,%rdi
    7711:	e8 3e ff ff ff       	callq  7654 <crc32_8bytes>
    7716:	83 7d ec 00          	cmpl   $0x0,-0x14(%rbp)
    771a:	74 22                	je     773e <transparent_crc+0x4b>
    771c:	8b 05 fe 58 01 00    	mov    0x158fe(%rip),%eax        # 1d020 <crc32_context>
    7722:	f7 d0                	not    %eax
    7724:	89 c2                	mov    %eax,%edx
    7726:	48 8b 45 f0          	mov    -0x10(%rbp),%rax
    772a:	48 89 c6             	mov    %rax,%rsi
    772d:	48 8d 3d fc 08 01 00 	lea    0x108fc(%rip),%rdi        # 18030 <_IO_stdin_used+0x30>
    7734:	b8 00 00 00 00       	mov    $0x0,%eax
    7739:	e8 42 e9 ff ff       	callq  6080 <printf@plt>
    773e:	90                   	nop
    773f:	c9                   	leaveq 
    7740:	c3                   	retq   

0000000000007741 <transparent_crc_bytes>:
    7741:	f3 0f 1e fa          	endbr64 
    7745:	55                   	push   %rbp
    7746:	48 89 e5             	mov    %rsp,%rbp
    7749:	48 83 ec 30          	sub    $0x30,%rsp
    774d:	48 89 7d e8          	mov    %rdi,-0x18(%rbp)
    7751:	89 75 e4             	mov    %esi,-0x1c(%rbp)
    7754:	48 89 55 d8          	mov    %rdx,-0x28(%rbp)
    7758:	89 4d e0             	mov    %ecx,-0x20(%rbp)
    775b:	c7 45 fc 00 00 00 00 	movl   $0x0,-0x4(%rbp)
    7762:	eb 1e                	jmp    7782 <transparent_crc_bytes+0x41>
    7764:	8b 45 fc             	mov    -0x4(%rbp),%eax
    7767:	48 63 d0             	movslq %eax,%rdx
    776a:	48 8b 45 e8          	mov    -0x18(%rbp),%rax
    776e:	48 01 d0             	add    %rdx,%rax
    7771:	0f b6 00             	movzbl (%rax),%eax
    7774:	0f b6 c0             	movzbl %al,%eax
    7777:	89 c7                	mov    %eax,%edi
    7779:	e8 90 fe ff ff       	callq  760e <crc32_byte>
    777e:	83 45 fc 01          	addl   $0x1,-0x4(%rbp)
    7782:	8b 45 fc             	mov    -0x4(%rbp),%eax
    7785:	3b 45 e4             	cmp    -0x1c(%rbp),%eax
    7788:	7c da                	jl     7764 <transparent_crc_bytes+0x23>
    778a:	83 7d e0 00          	cmpl   $0x0,-0x20(%rbp)
    778e:	74 22                	je     77b2 <transparent_crc_bytes+0x71>
    7790:	8b 05 8a 58 01 00    	mov    0x1588a(%rip),%eax        # 1d020 <crc32_context>
    7796:	f7 d0                	not    %eax
    7798:	89 c2                	mov    %eax,%edx
    779a:	48 8b 45 d8          	mov    -0x28(%rbp),%rax
    779e:	48 89 c6             	mov    %rax,%rsi
    77a1:	48 8d 3d 88 08 01 00 	lea    0x10888(%rip),%rdi        # 18030 <_IO_stdin_used+0x30>
    77a8:	b8 00 00 00 00       	mov    $0x0,%eax
    77ad:	e8 ce e8 ff ff       	callq  6080 <printf@plt>
    77b2:	90                   	nop
    77b3:	c9                   	leaveq 
    77b4:	c3                   	retq   

00000000000077b5 <func_1>:
    77b5:	f3 0f 1e fa          	endbr64 
    77b9:	55                   	push   %rbp
    77ba:	48 89 e5             	mov    %rsp,%rbp
    77bd:	41 54                	push   %r12
    77bf:	53                   	push   %rbx
    77c0:	48 83 ec 20          	sub    $0x20,%rsp
    77c4:	c7 45 dc ff ff ff ff 	movl   $0xffffffff,-0x24(%rbp)
    77cb:	48 8d 05 6e 58 01 00 	lea    0x1586e(%rip),%rax        # 1d040 <g_5>
    77d2:	48 89 45 e0          	mov    %rax,-0x20(%rbp)
    77d6:	48 8d 05 2b a0 01 00 	lea    0x1a02b(%rip),%rax        # 21808 <g_3239>
    77dd:	48 89 45 e8          	mov    %rax,-0x18(%rbp)
    77e1:	c7 45 dc 00 00 00 00 	movl   $0x0,-0x24(%rbp)
    77e8:	48 8b 45 e0          	mov    -0x20(%rbp),%rax
    77ec:	8b 55 dc             	mov    -0x24(%rbp),%edx
    77ef:	89 10                	mov    %edx,(%rax)
    77f1:	4c 8b 25 18 a0 01 00 	mov    0x1a018(%rip),%r12        # 21810 <g_3240>
    77f8:	48 8d 05 e9 8c 01 00 	lea    0x18ce9(%rip),%rax        # 204e8 <g_2172>
    77ff:	48 89 05 92 99 01 00 	mov    %rax,0x19992(%rip)        # 21198 <g_3237>
    7806:	48 8b 45 e8          	mov    -0x18(%rbp),%rax
    780a:	c7 00 ff ff ff ff    	movl   $0xffffffff,(%rax)
    7810:	8b 45 dc             	mov    -0x24(%rbp),%eax
    7813:	0f b6 c0             	movzbl %al,%eax
    7816:	89 c6                	mov    %eax,%esi
    7818:	bf f5 00 00 00       	mov    $0xf5,%edi
    781d:	e8 b9 f3 ff ff       	callq  6bdb <safe_div_func_uint8_t_u_u>
    7822:	0f b6 c0             	movzbl %al,%eax
    7825:	39 45 dc             	cmp    %eax,-0x24(%rbp)
    7828:	0f 94 c0             	sete   %al
    782b:	0f b6 d8             	movzbl %al,%ebx
    782e:	48 8b 45 e0          	mov    -0x20(%rbp),%rax
    7832:	8b 00                	mov    (%rax),%eax
    7834:	89 c7                	mov    %eax,%edi
    7836:	e8 81 00 00 00       	callq  78bc <func_12>
    783b:	0f be c0             	movsbl %al,%eax
    783e:	be 05 00 00 00       	mov    $0x5,%esi
    7843:	89 c7                	mov    %eax,%edi
    7845:	e8 eb ea ff ff       	callq  6335 <safe_rshift_func_int8_t_s_s>
    784a:	4c 89 e2             	mov    %r12,%rdx
    784d:	89 de                	mov    %ebx,%esi
    784f:	bf 00 00 00 00       	mov    $0x0,%edi
    7854:	e8 34 00 00 00       	callq  788d <func_6>
    7859:	f7 d0                	not    %eax
    785b:	66 c1 e8 0f          	shr    $0xf,%ax
    785f:	0f b6 c0             	movzbl %al,%eax
    7862:	39 45 dc             	cmp    %eax,-0x24(%rbp)
    7865:	0f 9f c2             	setg   %dl
    7868:	48 8b 05 69 87 01 00 	mov    0x18769(%rip),%rax        # 1ffd8 <g_110>
    786f:	48 8b 00             	mov    (%rax),%rax
    7872:	48 8b 00             	mov    (%rax),%rax
    7875:	48 8b 00             	mov    (%rax),%rax
    7878:	0f b6 d2             	movzbl %dl,%edx
    787b:	89 10                	mov    %edx,(%rax)
    787d:	48 8b 05 44 74 01 00 	mov    0x17444(%rip),%rax        # 1ecc8 <g_3242>
    7884:	48 83 c4 20          	add    $0x20,%rsp
    7888:	5b                   	pop    %rbx
    7889:	41 5c                	pop    %r12
    788b:	5d                   	pop    %rbp
    788c:	c3                   	retq   

000000000000788d <func_6>:
    788d:	f3 0f 1e fa          	endbr64 
    7891:	55                   	push   %rbp
    7892:	48 89 e5             	mov    %rsp,%rbp
    7895:	48 89 7d e8          	mov    %rdi,-0x18(%rbp)
    7899:	89 f0                	mov    %esi,%eax
    789b:	48 89 55 d8          	mov    %rdx,-0x28(%rbp)
    789f:	66 89 45 e4          	mov    %ax,-0x1c(%rbp)
    78a3:	48 8d 05 aa 57 01 00 	lea    0x157aa(%rip),%rax        # 1d054 <g_5+0x14>
    78aa:	48 89 45 f8          	mov    %rax,-0x8(%rbp)
    78ae:	48 c7 45 f8 00 00 00 	movq   $0x0,-0x8(%rbp)
    78b5:	00 
    78b6:	48 8b 45 e8          	mov    -0x18(%rbp),%rax
    78ba:	5d                   	pop    %rbp
    78bb:	c3                   	retq   

00000000000078bc <func_12>:
    78bc:	f3 0f 1e fa          	endbr64 
    78c0:	55                   	push   %rbp
    78c1:	48 89 e5             	mov    %rsp,%rbp
    78c4:	41 57                	push   %r15
    78c6:	41 56                	push   %r14
    78c8:	41 55                	push   %r13
    78ca:	41 54                	push   %r12
    78cc:	53                   	push   %rbx
    78cd:	48 81 ec 00 10 00 00 	sub    $0x1000,%rsp
    78d4:	48 83 0c 24 00       	orq    $0x0,(%rsp)
    78d9:	48 81 ec 18 01 00 00 	sub    $0x118,%rsp
    78e0:	89 bd dc ee ff ff    	mov    %edi,-0x1124(%rbp)
    78e6:	64 48 8b 04 25 28 00 	mov    %fs:0x28,%rax
    78ed:	00 00 
    78ef:	48 89 45 c8          	mov    %rax,-0x38(%rbp)
    78f3:	31 c0                	xor    %eax,%eax
    78f5:	c7 85 e4 ee ff ff 00 	movl   $0x0,-0x111c(%rbp)
    78fc:	00 00 00 
    78ff:	48 8d 05 5a 57 01 00 	lea    0x1575a(%rip),%rax        # 1d060 <g_41>
    7906:	48 89 85 c8 ef ff ff 	mov    %rax,-0x1038(%rbp)
    790d:	48 8d 05 2c 57 01 00 	lea    0x1572c(%rip),%rax        # 1d040 <g_5>
    7914:	48 89 85 d0 ef ff ff 	mov    %rax,-0x1030(%rbp)
    791b:	48 c7 85 58 ef ff ff 	movq   $0x0,-0x10a8(%rbp)
    7922:	00 00 00 00 
    7926:	48 8d 05 33 58 01 00 	lea    0x15833(%rip),%rax        # 1d160 <g_79+0xe0>
    792d:	48 89 85 90 f2 ff ff 	mov    %rax,-0xd70(%rbp)
    7934:	48 8d 05 fd 61 01 00 	lea    0x161fd(%rip),%rax        # 1db38 <g_870+0x98>
    793b:	48 89 85 98 f2 ff ff 	mov    %rax,-0xd68(%rbp)
    7942:	48 8d 05 ef 61 01 00 	lea    0x161ef(%rip),%rax        # 1db38 <g_870+0x98>
    7949:	48 89 85 a0 f2 ff ff 	mov    %rax,-0xd60(%rbp)
    7950:	48 8d 05 09 58 01 00 	lea    0x15809(%rip),%rax        # 1d160 <g_79+0xe0>
    7957:	48 89 85 a8 f2 ff ff 	mov    %rax,-0xd58(%rbp)
    795e:	48 8d 05 d3 61 01 00 	lea    0x161d3(%rip),%rax        # 1db38 <g_870+0x98>
    7965:	48 89 85 b0 f2 ff ff 	mov    %rax,-0xd50(%rbp)
    796c:	48 8d 05 8d 5b 01 00 	lea    0x15b8d(%rip),%rax        # 1d500 <g_81+0x20>
    7973:	48 89 85 b8 f2 ff ff 	mov    %rax,-0xd48(%rbp)
    797a:	48 8d 05 7f 5b 01 00 	lea    0x15b7f(%rip),%rax        # 1d500 <g_81+0x20>
    7981:	48 89 85 c0 f2 ff ff 	mov    %rax,-0xd40(%rbp)
    7988:	48 8d 05 71 57 01 00 	lea    0x15771(%rip),%rax        # 1d100 <g_79+0x80>
    798f:	48 89 85 c8 f2 ff ff 	mov    %rax,-0xd38(%rbp)
    7996:	48 8d 05 63 5b 01 00 	lea    0x15b63(%rip),%rax        # 1d500 <g_81+0x20>
    799d:	48 89 85 d0 f2 ff ff 	mov    %rax,-0xd30(%rbp)
    79a4:	48 8d 05 55 5b 01 00 	lea    0x15b55(%rip),%rax        # 1d500 <g_81+0x20>
    79ab:	48 89 85 d8 f2 ff ff 	mov    %rax,-0xd28(%rbp)
    79b2:	48 8d 05 7f 61 01 00 	lea    0x1617f(%rip),%rax        # 1db38 <g_870+0x98>
    79b9:	48 89 85 e0 f2 ff ff 	mov    %rax,-0xd20(%rbp)
    79c0:	48 8d 05 99 57 01 00 	lea    0x15799(%rip),%rax        # 1d160 <g_79+0xe0>
    79c7:	48 89 85 e8 f2 ff ff 	mov    %rax,-0xd18(%rbp)
    79ce:	48 8d 05 63 61 01 00 	lea    0x16163(%rip),%rax        # 1db38 <g_870+0x98>
    79d5:	48 89 85 f0 f2 ff ff 	mov    %rax,-0xd10(%rbp)
    79dc:	48 8d 05 55 61 01 00 	lea    0x16155(%rip),%rax        # 1db38 <g_870+0x98>
    79e3:	48 89 85 f8 f2 ff ff 	mov    %rax,-0xd08(%rbp)
    79ea:	48 8d 05 6f 57 01 00 	lea    0x1576f(%rip),%rax        # 1d160 <g_79+0xe0>
    79f1:	48 89 85 00 f3 ff ff 	mov    %rax,-0xd00(%rbp)
    79f8:	48 c7 85 d8 ef ff ff 	movq   $0x3,-0x1028(%rbp)
    79ff:	03 00 00 00 
    7a03:	c7 85 04 ef ff ff 00 	movl   $0x0,-0x10fc(%rbp)
    7a0a:	00 00 00 
    7a0d:	c7 85 e8 ee ff ff fc 	movl   $0xfffffffc,-0x1118(%rbp)
    7a14:	ff ff ff 
    7a17:	c7 85 ec ee ff ff 00 	movl   $0x0,-0x1114(%rbp)
    7a1e:	00 00 00 
    7a21:	c7 85 08 ef ff ff a8 	movl   $0x61845a8,-0x10f8(%rbp)
    7a28:	45 18 06 
    7a2b:	c7 85 0c ef ff ff 92 	movl   $0x4a24c92,-0x10f4(%rbp)
    7a32:	4c a2 04 
    7a35:	48 8d 05 44 9c 01 00 	lea    0x19c44(%rip),%rax        # 21680 <g_1606>
    7a3c:	48 89 85 60 ef ff ff 	mov    %rax,-0x10a0(%rbp)
    7a43:	c7 85 10 ef ff ff 8a 	movl   $0x4b17098a,-0x10f0(%rbp)
    7a4a:	09 17 4b 
    7a4d:	48 8d 85 30 f4 ff ff 	lea    -0xbd0(%rbp),%rax
    7a54:	48 8d 15 85 72 01 00 	lea    0x17285(%rip),%rdx        # 1ece0 <g_3242+0x18>
    7a5b:	b9 36 00 00 00       	mov    $0x36,%ecx
    7a60:	48 89 c7             	mov    %rax,%rdi
    7a63:	48 89 d6             	mov    %rdx,%rsi
    7a66:	f3 48 a5             	rep movsq %ds:(%rsi),%es:(%rdi)
    7a69:	48 8d 05 d0 64 01 00 	lea    0x164d0(%rip),%rax        # 1df40 <g_1749>
    7a70:	48 89 85 10 f2 ff ff 	mov    %rax,-0xdf0(%rbp)
    7a77:	48 8d 05 12 5f 01 00 	lea    0x15f12(%rip),%rax        # 1d990 <g_213+0x10>
    7a7e:	48 89 85 18 f2 ff ff 	mov    %rax,-0xde8(%rbp)
    7a85:	48 8d 05 04 5f 01 00 	lea    0x15f04(%rip),%rax        # 1d990 <g_213+0x10>
    7a8c:	48 89 85 20 f2 ff ff 	mov    %rax,-0xde0(%rbp)
    7a93:	48 8d 05 a6 64 01 00 	lea    0x164a6(%rip),%rax        # 1df40 <g_1749>
    7a9a:	48 89 85 28 f2 ff ff 	mov    %rax,-0xdd8(%rbp)
    7aa1:	48 8d 05 e8 5e 01 00 	lea    0x15ee8(%rip),%rax        # 1d990 <g_213+0x10>
    7aa8:	48 89 85 30 f2 ff ff 	mov    %rax,-0xdd0(%rbp)
    7aaf:	48 8d 05 da 5e 01 00 	lea    0x15eda(%rip),%rax        # 1d990 <g_213+0x10>
    7ab6:	48 89 85 38 f2 ff ff 	mov    %rax,-0xdc8(%rbp)
    7abd:	48 8d 05 7c 64 01 00 	lea    0x1647c(%rip),%rax        # 1df40 <g_1749>
    7ac4:	48 89 85 40 f2 ff ff 	mov    %rax,-0xdc0(%rbp)
    7acb:	48 8d 05 b6 89 01 00 	lea    0x189b6(%rip),%rax        # 20488 <g_1883>
    7ad2:	48 89 85 e0 ef ff ff 	mov    %rax,-0x1020(%rbp)
    7ad9:	48 c7 85 68 ef ff ff 	movq   $0x0,-0x1098(%rbp)
    7ae0:	00 00 00 00 
    7ae4:	48 c7 85 e8 ef ff ff 	movq   $0x0,-0x1018(%rbp)
    7aeb:	00 00 00 00 
    7aef:	48 c7 85 70 ef ff ff 	movq   $0x0,-0x1090(%rbp)
    7af6:	00 00 00 00 
    7afa:	48 8d 85 70 ef ff ff 	lea    -0x1090(%rbp),%rax
    7b01:	48 89 85 f0 ef ff ff 	mov    %rax,-0x1010(%rbp)
    7b08:	48 c7 85 78 ef ff ff 	movq   $0x0,-0x1088(%rbp)
    7b0f:	00 00 00 00 
    7b13:	48 8d 85 78 ef ff ff 	lea    -0x1088(%rbp),%rax
    7b1a:	48 89 85 80 ef ff ff 	mov    %rax,-0x1080(%rbp)
    7b21:	48 8d 85 80 ef ff ff 	lea    -0x1080(%rbp),%rax
    7b28:	48 89 85 f8 ef ff ff 	mov    %rax,-0x1008(%rbp)
    7b2f:	48 8d 05 ca 55 01 00 	lea    0x155ca(%rip),%rax        # 1d100 <g_79+0x80>
    7b36:	48 89 85 a0 f1 ff ff 	mov    %rax,-0xe60(%rbp)
    7b3d:	48 8d 05 bc 55 01 00 	lea    0x155bc(%rip),%rax        # 1d100 <g_79+0x80>
    7b44:	48 89 85 a8 f1 ff ff 	mov    %rax,-0xe58(%rbp)
    7b4b:	48 8d 05 ae 55 01 00 	lea    0x155ae(%rip),%rax        # 1d100 <g_79+0x80>
    7b52:	48 89 85 b0 f1 ff ff 	mov    %rax,-0xe50(%rbp)
    7b59:	48 8d 05 a0 55 01 00 	lea    0x155a0(%rip),%rax        # 1d100 <g_79+0x80>
    7b60:	48 89 85 b8 f1 ff ff 	mov    %rax,-0xe48(%rbp)
    7b67:	48 8d 05 92 55 01 00 	lea    0x15592(%rip),%rax        # 1d100 <g_79+0x80>
    7b6e:	48 89 85 c0 f1 ff ff 	mov    %rax,-0xe40(%rbp)
    7b75:	48 8d 05 84 55 01 00 	lea    0x15584(%rip),%rax        # 1d100 <g_79+0x80>
    7b7c:	48 89 85 c8 f1 ff ff 	mov    %rax,-0xe38(%rbp)
    7b83:	48 8d 85 a0 f1 ff ff 	lea    -0xe60(%rbp),%rax
    7b8a:	48 83 c0 20          	add    $0x20,%rax
    7b8e:	48 89 85 88 ef ff ff 	mov    %rax,-0x1078(%rbp)
    7b95:	48 8d 85 88 ef ff ff 	lea    -0x1078(%rbp),%rax
    7b9c:	48 89 85 00 f0 ff ff 	mov    %rax,-0x1000(%rbp)
    7ba3:	48 8d 05 0e 85 01 00 	lea    0x1850e(%rip),%rax        # 200b8 <g_1267>
    7baa:	48 89 85 08 f0 ff ff 	mov    %rax,-0xff8(%rbp)
    7bb1:	48 c7 85 10 f0 ff ff 	movq   $0x0,-0xff0(%rbp)
    7bb8:	00 00 00 00 
    7bbc:	48 8d 05 55 89 01 00 	lea    0x18955(%rip),%rax        # 20518 <g_2362>
    7bc3:	48 89 85 18 f0 ff ff 	mov    %rax,-0xfe8(%rbp)
    7bca:	48 8d 85 ec ee ff ff 	lea    -0x1114(%rbp),%rax
    7bd1:	48 89 85 20 f0 ff ff 	mov    %rax,-0xfe0(%rbp)
    7bd8:	c7 85 14 ef ff ff 07 	movl   $0x7,-0x10ec(%rbp)
    7bdf:	00 00 00 
    7be2:	48 8d 05 2f 5a 01 00 	lea    0x15a2f(%rip),%rax        # 1d618 <g_212+0x98>
    7be9:	48 89 85 28 f0 ff ff 	mov    %rax,-0xfd8(%rbp)
    7bf0:	c7 85 f0 ee ff ff 00 	movl   $0x0,-0x1110(%rbp)
    7bf7:	00 00 00 
    7bfa:	eb 1e                	jmp    7c1a <func_12+0x35e>
    7bfc:	8b 85 f0 ee ff ff    	mov    -0x1110(%rbp),%eax
    7c02:	48 98                	cltq   
    7c04:	48 8d 95 60 ef ff ff 	lea    -0x10a0(%rbp),%rdx
    7c0b:	48 89 94 c5 d0 f1 ff 	mov    %rdx,-0xe30(%rbp,%rax,8)
    7c12:	ff 
    7c13:	83 85 f0 ee ff ff 01 	addl   $0x1,-0x1110(%rbp)
    7c1a:	83 bd f0 ee ff ff 06 	cmpl   $0x6,-0x1110(%rbp)
    7c21:	7e d9                	jle    7bfc <func_12+0x340>
    7c23:	48 8b 85 d0 ef ff ff 	mov    -0x1030(%rbp),%rax
    7c2a:	8b 00                	mov    (%rax),%eax
    7c2c:	0f bf d8             	movswl %ax,%ebx
    7c2f:	8b 85 dc ee ff ff    	mov    -0x1124(%rbp),%eax
    7c35:	48 89 85 d0 ee ff ff 	mov    %rax,-0x1130(%rbp)
    7c3c:	48 8b 85 d0 ef ff ff 	mov    -0x1030(%rbp),%rax
    7c43:	8b 00                	mov    (%rax),%eax
    7c45:	89 85 d8 ee ff ff    	mov    %eax,-0x1128(%rbp)
    7c4b:	48 8b 85 d0 ef ff ff 	mov    -0x1030(%rbp),%rax
    7c52:	8b 00                	mov    (%rax),%eax
    7c54:	44 0f b7 e0          	movzwl %ax,%r12d
    7c58:	8b 85 e4 ee ff ff    	mov    -0x111c(%rbp),%eax
    7c5e:	85 c0                	test   %eax,%eax
    7c60:	0f 84 00 01 00 00    	je     7d66 <func_12+0x4aa>
    7c66:	0f b7 05 c3 5d 01 00 	movzwl 0x15dc3(%rip),%eax        # 1da30 <g_527>
    7c6d:	c1 e0 04             	shl    $0x4,%eax
    7c70:	66 c1 f8 04          	sar    $0x4,%ax
    7c74:	44 0f b6 f0          	movzbl %al,%r14d
    7c78:	44 8b 2d dd 53 01 00 	mov    0x153dd(%rip),%r13d        # 1d05c <g_5+0x1c>
    7c7f:	48 8b 85 d0 ef ff ff 	mov    -0x1030(%rbp),%rax
    7c86:	8b 00                	mov    (%rax),%eax
    7c88:	89 85 cc ee ff ff    	mov    %eax,-0x1134(%rbp)
    7c8e:	48 83 bd d0 ef ff ff 	cmpq   $0x0,-0x1030(%rbp)
    7c95:	00 
    7c96:	0f 94 c0             	sete   %al
    7c99:	0f b6 f8             	movzbl %al,%edi
    7c9c:	48 89 bd c0 ee ff ff 	mov    %rdi,-0x1140(%rbp)
    7ca3:	8b 05 97 53 01 00    	mov    0x15397(%rip),%eax        # 1d040 <g_5>
    7ca9:	44 0f bf f8          	movswl %ax,%r15d
    7cad:	8b 05 91 53 01 00    	mov    0x15391(%rip),%eax        # 1d044 <g_5+0x4>
    7cb3:	0f b7 d0             	movzwl %ax,%edx
    7cb6:	8b 85 e4 ee ff ff    	mov    -0x111c(%rbp),%eax
    7cbc:	0f b7 c0             	movzwl %ax,%eax
    7cbf:	89 d6                	mov    %edx,%esi
    7cc1:	89 c7                	mov    %eax,%edi
    7cc3:	e8 75 f0 ff ff       	callq  6d3d <safe_mul_func_uint16_t_u_u>
    7cc8:	89 c2                	mov    %eax,%edx
    7cca:	48 8b 85 c8 ef ff ff 	mov    -0x1038(%rbp),%rax
    7cd1:	0f b6 00             	movzbl (%rax),%eax
    7cd4:	09 c2                	or     %eax,%edx
    7cd6:	48 8b 85 c8 ef ff ff 	mov    -0x1038(%rbp),%rax
    7cdd:	88 10                	mov    %dl,(%rax)
    7cdf:	48 8b 85 c8 ef ff ff 	mov    -0x1038(%rbp),%rax
    7ce6:	0f b6 00             	movzbl (%rax),%eax
    7ce9:	0f b6 c0             	movzbl %al,%eax
    7cec:	8b 8d cc ee ff ff    	mov    -0x1134(%rbp),%ecx
    7cf2:	48 8b 95 c0 ee ff ff 	mov    -0x1140(%rbp),%rdx
    7cf9:	44 89 fe             	mov    %r15d,%esi
    7cfc:	89 c7                	mov    %eax,%edi
    7cfe:	e8 3d 65 00 00       	callq  e240 <func_33>
    7d03:	85 c0                	test   %eax,%eax
    7d05:	74 10                	je     7d17 <func_12+0x45b>
    7d07:	83 bd dc ee ff ff 00 	cmpl   $0x0,-0x1124(%rbp)
    7d0e:	74 07                	je     7d17 <func_12+0x45b>
    7d10:	b8 01 00 00 00       	mov    $0x1,%eax
    7d15:	eb 05                	jmp    7d1c <func_12+0x460>
    7d17:	b8 00 00 00 00       	mov    $0x0,%eax
    7d1c:	0f b6 c0             	movzbl %al,%eax
    7d1f:	89 c7                	mov    %eax,%edi
    7d21:	e8 1f ee ff ff       	callq  6b45 <safe_unary_minus_func_uint8_t_u>
    7d26:	84 c0                	test   %al,%al
    7d28:	75 0a                	jne    7d34 <func_12+0x478>
    7d2a:	8b 05 88 5c 01 00    	mov    0x15c88(%rip),%eax        # 1d9b8 <g_262>
    7d30:	85 c0                	test   %eax,%eax
    7d32:	74 07                	je     7d3b <func_12+0x47f>
    7d34:	b8 01 00 00 00       	mov    $0x1,%eax
    7d39:	eb 05                	jmp    7d40 <func_12+0x484>
    7d3b:	b8 00 00 00 00       	mov    $0x0,%eax
    7d40:	39 85 dc ee ff ff    	cmp    %eax,-0x1124(%rbp)
    7d46:	0f 96 c0             	setbe  %al
    7d49:	0f b6 c0             	movzbl %al,%eax
    7d4c:	44 89 f2             	mov    %r14d,%edx
    7d4f:	44 89 ee             	mov    %r13d,%esi
    7d52:	48 89 c7             	mov    %rax,%rdi
    7d55:	e8 ad 64 00 00       	callq  e207 <func_28>
    7d5a:	66 85 c0             	test   %ax,%ax
    7d5d:	74 07                	je     7d66 <func_12+0x4aa>
    7d5f:	b8 01 00 00 00       	mov    $0x1,%eax
    7d64:	eb 05                	jmp    7d6b <func_12+0x4af>
    7d66:	b8 00 00 00 00       	mov    $0x0,%eax
    7d6b:	48 98                	cltq   
    7d6d:	48 89 05 c4 5d 01 00 	mov    %rax,0x15dc4(%rip)        # 1db38 <g_870+0x98>
    7d74:	48 8b 15 bd 5d 01 00 	mov    0x15dbd(%rip),%rdx        # 1db38 <g_870+0x98>
    7d7b:	8b 05 8f 5e 01 00    	mov    0x15e8f(%rip),%eax        # 1dc10 <g_1525+0x10>
    7d81:	c1 e0 05             	shl    $0x5,%eax
    7d84:	c1 f8 05             	sar    $0x5,%eax
    7d87:	48 98                	cltq   
    7d89:	48 21 c2             	and    %rax,%rdx
    7d8c:	48 8b 05 fd 98 01 00 	mov    0x198fd(%rip),%rax        # 21690 <g_1606+0x10>
    7d93:	48 21 d0             	and    %rdx,%rax
    7d96:	48 89 05 f3 98 01 00 	mov    %rax,0x198f3(%rip)        # 21690 <g_1606+0x10>
    7d9d:	48 8b 85 d0 ef ff ff 	mov    -0x1030(%rbp),%rax
    7da4:	48 89 c7             	mov    %rax,%rdi
    7da7:	e8 a7 26 00 00       	callq  a453 <func_24>
    7dac:	48 89 c7             	mov    %rax,%rdi
    7daf:	48 8b 85 d0 ef ff ff 	mov    -0x1030(%rbp),%rax
    7db6:	4c 8b 85 d0 ee ff ff 	mov    -0x1130(%rbp),%r8
    7dbd:	8b 8d d8 ee ff ff    	mov    -0x1128(%rbp),%ecx
    7dc3:	48 89 c2             	mov    %rax,%rdx
    7dc6:	44 89 e6             	mov    %r12d,%esi
    7dc9:	e8 58 20 00 00       	callq  9e26 <func_18>
    7dce:	48 85 c0             	test   %rax,%rax
    7dd1:	74 07                	je     7dda <func_12+0x51e>
    7dd3:	b8 01 00 00 00       	mov    $0x1,%eax
    7dd8:	eb 05                	jmp    7ddf <func_12+0x523>
    7dda:	b8 00 00 00 00       	mov    $0x0,%eax
    7ddf:	89 c2                	mov    %eax,%edx
    7de1:	48 8b 85 d0 ef ff ff 	mov    -0x1030(%rbp),%rax
    7de8:	8b 00                	mov    (%rax),%eax
    7dea:	09 d0                	or     %edx,%eax
    7dec:	0f bf d0             	movswl %ax,%edx
    7def:	8b 05 67 52 01 00    	mov    0x15267(%rip),%eax        # 1d05c <g_5+0x1c>
    7df5:	98                   	cwtl   
    7df6:	89 d6                	mov    %edx,%esi
    7df8:	89 c7                	mov    %eax,%edi
    7dfa:	e8 b4 e5 ff ff       	callq  63b3 <safe_add_func_int16_t_s_s>
    7dff:	98                   	cwtl   
    7e00:	89 de                	mov    %ebx,%esi
    7e02:	89 c7                	mov    %eax,%edi
    7e04:	e8 4c e6 ff ff       	callq  6455 <safe_div_func_int16_t_s_s>
    7e09:	66 85 c0             	test   %ax,%ax
    7e0c:	75 11                	jne    7e1f <func_12+0x563>
    7e0e:	48 8b 85 d0 ef ff ff 	mov    -0x1030(%rbp),%rax
    7e15:	8b 00                	mov    (%rax),%eax
    7e17:	85 c0                	test   %eax,%eax
    7e19:	0f 84 e7 10 00 00    	je     8f06 <func_12+0x164a>
    7e1f:	c7 85 30 ef ff ff f9 	movl   $0xfffffff9,-0x10d0(%rbp)
    7e26:	ff ff ff 
    7e29:	48 8d 05 e0 60 01 00 	lea    0x160e0(%rip),%rax        # 1df10 <g_1724>
    7e30:	48 89 85 c0 f0 ff ff 	mov    %rax,-0xf40(%rbp)
    7e37:	48 8d 85 58 ef ff ff 	lea    -0x10a8(%rbp),%rax
    7e3e:	48 89 85 40 f8 ff ff 	mov    %rax,-0x7c0(%rbp)
    7e45:	48 8d 85 58 ef ff ff 	lea    -0x10a8(%rbp),%rax
    7e4c:	48 89 85 48 f8 ff ff 	mov    %rax,-0x7b8(%rbp)
    7e53:	48 8d 85 58 ef ff ff 	lea    -0x10a8(%rbp),%rax
    7e5a:	48 89 85 50 f8 ff ff 	mov    %rax,-0x7b0(%rbp)
    7e61:	48 8d 85 58 ef ff ff 	lea    -0x10a8(%rbp),%rax
    7e68:	48 89 85 58 f8 ff ff 	mov    %rax,-0x7a8(%rbp)
    7e6f:	48 8d 85 58 ef ff ff 	lea    -0x10a8(%rbp),%rax
    7e76:	48 89 85 60 f8 ff ff 	mov    %rax,-0x7a0(%rbp)
    7e7d:	48 8d 85 58 ef ff ff 	lea    -0x10a8(%rbp),%rax
    7e84:	48 89 85 68 f8 ff ff 	mov    %rax,-0x798(%rbp)
    7e8b:	48 8d 85 90 f2 ff ff 	lea    -0xd70(%rbp),%rax
    7e92:	48 83 c0 40          	add    $0x40,%rax
    7e96:	48 89 85 70 f8 ff ff 	mov    %rax,-0x790(%rbp)
    7e9d:	48 8d 85 58 ef ff ff 	lea    -0x10a8(%rbp),%rax
    7ea4:	48 89 85 78 f8 ff ff 	mov    %rax,-0x788(%rbp)
    7eab:	48 8d 85 90 f2 ff ff 	lea    -0xd70(%rbp),%rax
    7eb2:	48 83 c0 40          	add    $0x40,%rax
    7eb6:	48 89 85 80 f8 ff ff 	mov    %rax,-0x780(%rbp)
    7ebd:	48 8d 85 58 ef ff ff 	lea    -0x10a8(%rbp),%rax
    7ec4:	48 89 85 88 f8 ff ff 	mov    %rax,-0x778(%rbp)
    7ecb:	48 8d 85 58 ef ff ff 	lea    -0x10a8(%rbp),%rax
    7ed2:	48 89 85 90 f8 ff ff 	mov    %rax,-0x770(%rbp)
    7ed9:	48 8d 85 58 ef ff ff 	lea    -0x10a8(%rbp),%rax
    7ee0:	48 89 85 98 f8 ff ff 	mov    %rax,-0x768(%rbp)
    7ee7:	48 8d 85 58 ef ff ff 	lea    -0x10a8(%rbp),%rax
    7eee:	48 89 85 a0 f8 ff ff 	mov    %rax,-0x760(%rbp)
    7ef5:	48 8d 85 58 ef ff ff 	lea    -0x10a8(%rbp),%rax
    7efc:	48 89 85 a8 f8 ff ff 	mov    %rax,-0x758(%rbp)
    7f03:	48 8d 85 58 ef ff ff 	lea    -0x10a8(%rbp),%rax
    7f0a:	48 89 85 b0 f8 ff ff 	mov    %rax,-0x750(%rbp)
    7f11:	48 8d 05 40 97 01 00 	lea    0x19740(%rip),%rax        # 21658 <g_1464>
    7f18:	48 89 85 b8 f8 ff ff 	mov    %rax,-0x748(%rbp)
    7f1f:	48 8d 85 90 f2 ff ff 	lea    -0xd70(%rbp),%rax
    7f26:	48 83 c0 40          	add    $0x40,%rax
    7f2a:	48 89 85 c0 f8 ff ff 	mov    %rax,-0x740(%rbp)
    7f31:	48 8d 05 20 97 01 00 	lea    0x19720(%rip),%rax        # 21658 <g_1464>
    7f38:	48 89 85 c8 f8 ff ff 	mov    %rax,-0x738(%rbp)
    7f3f:	48 8d 85 90 f2 ff ff 	lea    -0xd70(%rbp),%rax
    7f46:	48 83 c0 40          	add    $0x40,%rax
    7f4a:	48 89 85 d0 f8 ff ff 	mov    %rax,-0x730(%rbp)
    7f51:	48 8d 05 00 97 01 00 	lea    0x19700(%rip),%rax        # 21658 <g_1464>
    7f58:	48 89 85 d8 f8 ff ff 	mov    %rax,-0x728(%rbp)
    7f5f:	48 8d 85 58 ef ff ff 	lea    -0x10a8(%rbp),%rax
    7f66:	48 89 85 e0 f8 ff ff 	mov    %rax,-0x720(%rbp)
    7f6d:	48 8d 85 58 ef ff ff 	lea    -0x10a8(%rbp),%rax
    7f74:	48 89 85 e8 f8 ff ff 	mov    %rax,-0x718(%rbp)
    7f7b:	48 8d 85 58 ef ff ff 	lea    -0x10a8(%rbp),%rax
    7f82:	48 89 85 f0 f8 ff ff 	mov    %rax,-0x710(%rbp)
    7f89:	48 8d 85 58 ef ff ff 	lea    -0x10a8(%rbp),%rax
    7f90:	48 89 85 f8 f8 ff ff 	mov    %rax,-0x708(%rbp)
    7f97:	48 8d 85 58 ef ff ff 	lea    -0x10a8(%rbp),%rax
    7f9e:	48 89 85 00 f9 ff ff 	mov    %rax,-0x700(%rbp)
    7fa5:	48 8d 85 58 ef ff ff 	lea    -0x10a8(%rbp),%rax
    7fac:	48 89 85 08 f9 ff ff 	mov    %rax,-0x6f8(%rbp)
    7fb3:	48 8d 85 90 f2 ff ff 	lea    -0xd70(%rbp),%rax
    7fba:	48 83 c0 40          	add    $0x40,%rax
    7fbe:	48 89 85 10 f9 ff ff 	mov    %rax,-0x6f0(%rbp)
    7fc5:	48 8d 85 58 ef ff ff 	lea    -0x10a8(%rbp),%rax
    7fcc:	48 89 85 18 f9 ff ff 	mov    %rax,-0x6e8(%rbp)
    7fd3:	48 8d 85 90 f2 ff ff 	lea    -0xd70(%rbp),%rax
    7fda:	48 83 c0 40          	add    $0x40,%rax
    7fde:	48 89 85 20 f9 ff ff 	mov    %rax,-0x6e0(%rbp)
    7fe5:	48 8d 85 58 ef ff ff 	lea    -0x10a8(%rbp),%rax
    7fec:	48 89 85 28 f9 ff ff 	mov    %rax,-0x6d8(%rbp)
    7ff3:	48 8d 85 58 ef ff ff 	lea    -0x10a8(%rbp),%rax
    7ffa:	48 89 85 30 f9 ff ff 	mov    %rax,-0x6d0(%rbp)
    8001:	48 8d 85 58 ef ff ff 	lea    -0x10a8(%rbp),%rax
    8008:	48 89 85 38 f9 ff ff 	mov    %rax,-0x6c8(%rbp)
    800f:	48 8d 85 58 ef ff ff 	lea    -0x10a8(%rbp),%rax
    8016:	48 89 85 40 f9 ff ff 	mov    %rax,-0x6c0(%rbp)
    801d:	48 8d 85 58 ef ff ff 	lea    -0x10a8(%rbp),%rax
    8024:	48 89 85 48 f9 ff ff 	mov    %rax,-0x6b8(%rbp)
    802b:	48 8d 85 58 ef ff ff 	lea    -0x10a8(%rbp),%rax
    8032:	48 89 85 50 f9 ff ff 	mov    %rax,-0x6b0(%rbp)
    8039:	48 8d 05 18 96 01 00 	lea    0x19618(%rip),%rax        # 21658 <g_1464>
    8040:	48 89 85 58 f9 ff ff 	mov    %rax,-0x6a8(%rbp)
    8047:	48 8d 85 90 f2 ff ff 	lea    -0xd70(%rbp),%rax
    804e:	48 83 c0 40          	add    $0x40,%rax
    8052:	48 89 85 60 f9 ff ff 	mov    %rax,-0x6a0(%rbp)
    8059:	48 8d 05 f8 95 01 00 	lea    0x195f8(%rip),%rax        # 21658 <g_1464>
    8060:	48 89 85 68 f9 ff ff 	mov    %rax,-0x698(%rbp)
    8067:	48 8d 85 90 f2 ff ff 	lea    -0xd70(%rbp),%rax
    806e:	48 83 c0 40          	add    $0x40,%rax
    8072:	48 89 85 70 f9 ff ff 	mov    %rax,-0x690(%rbp)
    8079:	48 8d 05 d8 95 01 00 	lea    0x195d8(%rip),%rax        # 21658 <g_1464>
    8080:	48 89 85 78 f9 ff ff 	mov    %rax,-0x688(%rbp)
    8087:	48 8d 85 58 ef ff ff 	lea    -0x10a8(%rbp),%rax
    808e:	48 89 85 80 f9 ff ff 	mov    %rax,-0x680(%rbp)
    8095:	48 8d 85 58 ef ff ff 	lea    -0x10a8(%rbp),%rax
    809c:	48 89 85 88 f9 ff ff 	mov    %rax,-0x678(%rbp)
    80a3:	48 8d 85 58 ef ff ff 	lea    -0x10a8(%rbp),%rax
    80aa:	48 89 85 90 f9 ff ff 	mov    %rax,-0x670(%rbp)
    80b1:	48 8d 85 58 ef ff ff 	lea    -0x10a8(%rbp),%rax
    80b8:	48 89 85 98 f9 ff ff 	mov    %rax,-0x668(%rbp)
    80bf:	48 8d 85 58 ef ff ff 	lea    -0x10a8(%rbp),%rax
    80c6:	48 89 85 a0 f9 ff ff 	mov    %rax,-0x660(%rbp)
    80cd:	48 8d 85 58 ef ff ff 	lea    -0x10a8(%rbp),%rax
    80d4:	48 89 85 a8 f9 ff ff 	mov    %rax,-0x658(%rbp)
    80db:	48 8d 85 90 f2 ff ff 	lea    -0xd70(%rbp),%rax
    80e2:	48 83 c0 40          	add    $0x40,%rax
    80e6:	48 89 85 b0 f9 ff ff 	mov    %rax,-0x650(%rbp)
    80ed:	48 8d 85 58 ef ff ff 	lea    -0x10a8(%rbp),%rax
    80f4:	48 89 85 b8 f9 ff ff 	mov    %rax,-0x648(%rbp)
    80fb:	48 8d 85 90 f2 ff ff 	lea    -0xd70(%rbp),%rax
    8102:	48 83 c0 40          	add    $0x40,%rax
    8106:	48 89 85 c0 f9 ff ff 	mov    %rax,-0x640(%rbp)
    810d:	48 8d 85 58 ef ff ff 	lea    -0x10a8(%rbp),%rax
    8114:	48 89 85 c8 f9 ff ff 	mov    %rax,-0x638(%rbp)
    811b:	48 8d 85 58 ef ff ff 	lea    -0x10a8(%rbp),%rax
    8122:	48 89 85 d0 f9 ff ff 	mov    %rax,-0x630(%rbp)
    8129:	48 8d 85 58 ef ff ff 	lea    -0x10a8(%rbp),%rax
    8130:	48 89 85 d8 f9 ff ff 	mov    %rax,-0x628(%rbp)
    8137:	48 8d 85 58 ef ff ff 	lea    -0x10a8(%rbp),%rax
    813e:	48 89 85 e0 f9 ff ff 	mov    %rax,-0x620(%rbp)
    8145:	48 8d 85 58 ef ff ff 	lea    -0x10a8(%rbp),%rax
    814c:	48 89 85 e8 f9 ff ff 	mov    %rax,-0x618(%rbp)
    8153:	48 8d 85 58 ef ff ff 	lea    -0x10a8(%rbp),%rax
    815a:	48 89 85 f0 f9 ff ff 	mov    %rax,-0x610(%rbp)
    8161:	48 8d 05 f0 94 01 00 	lea    0x194f0(%rip),%rax        # 21658 <g_1464>
    8168:	48 89 85 f8 f9 ff ff 	mov    %rax,-0x608(%rbp)
    816f:	48 8d 85 90 f2 ff ff 	lea    -0xd70(%rbp),%rax
    8176:	48 83 c0 40          	add    $0x40,%rax
    817a:	48 89 85 00 fa ff ff 	mov    %rax,-0x600(%rbp)
    8181:	48 8d 05 d0 94 01 00 	lea    0x194d0(%rip),%rax        # 21658 <g_1464>
    8188:	48 89 85 08 fa ff ff 	mov    %rax,-0x5f8(%rbp)
    818f:	48 8d 85 90 f2 ff ff 	lea    -0xd70(%rbp),%rax
    8196:	48 83 c0 40          	add    $0x40,%rax
    819a:	48 89 85 10 fa ff ff 	mov    %rax,-0x5f0(%rbp)
    81a1:	48 8d 05 b0 94 01 00 	lea    0x194b0(%rip),%rax        # 21658 <g_1464>
    81a8:	48 89 85 18 fa ff ff 	mov    %rax,-0x5e8(%rbp)
    81af:	48 8d 85 58 ef ff ff 	lea    -0x10a8(%rbp),%rax
    81b6:	48 89 85 20 fa ff ff 	mov    %rax,-0x5e0(%rbp)
    81bd:	48 8d 85 58 ef ff ff 	lea    -0x10a8(%rbp),%rax
    81c4:	48 89 85 28 fa ff ff 	mov    %rax,-0x5d8(%rbp)
    81cb:	48 8d 85 58 ef ff ff 	lea    -0x10a8(%rbp),%rax
    81d2:	48 89 85 30 fa ff ff 	mov    %rax,-0x5d0(%rbp)
    81d9:	48 8d 85 58 ef ff ff 	lea    -0x10a8(%rbp),%rax
    81e0:	48 89 85 38 fa ff ff 	mov    %rax,-0x5c8(%rbp)
    81e7:	48 8d 85 58 ef ff ff 	lea    -0x10a8(%rbp),%rax
    81ee:	48 89 85 40 fa ff ff 	mov    %rax,-0x5c0(%rbp)
    81f5:	48 8d 85 58 ef ff ff 	lea    -0x10a8(%rbp),%rax
    81fc:	48 89 85 48 fa ff ff 	mov    %rax,-0x5b8(%rbp)
    8203:	48 8d 85 90 f2 ff ff 	lea    -0xd70(%rbp),%rax
    820a:	48 83 c0 40          	add    $0x40,%rax
    820e:	48 89 85 50 fa ff ff 	mov    %rax,-0x5b0(%rbp)
    8215:	48 8d 85 58 ef ff ff 	lea    -0x10a8(%rbp),%rax
    821c:	48 89 85 58 fa ff ff 	mov    %rax,-0x5a8(%rbp)
    8223:	48 8d 85 90 f2 ff ff 	lea    -0xd70(%rbp),%rax
    822a:	48 83 c0 40          	add    $0x40,%rax
    822e:	48 89 85 60 fa ff ff 	mov    %rax,-0x5a0(%rbp)
    8235:	48 8d 85 58 ef ff ff 	lea    -0x10a8(%rbp),%rax
    823c:	48 89 85 68 fa ff ff 	mov    %rax,-0x598(%rbp)
    8243:	48 8d 85 58 ef ff ff 	lea    -0x10a8(%rbp),%rax
    824a:	48 89 85 70 fa ff ff 	mov    %rax,-0x590(%rbp)
    8251:	48 8d 85 58 ef ff ff 	lea    -0x10a8(%rbp),%rax
    8258:	48 89 85 78 fa ff ff 	mov    %rax,-0x588(%rbp)
    825f:	48 8d 85 58 ef ff ff 	lea    -0x10a8(%rbp),%rax
    8266:	48 89 85 80 fa ff ff 	mov    %rax,-0x580(%rbp)
    826d:	48 8d 85 58 ef ff ff 	lea    -0x10a8(%rbp),%rax
    8274:	48 89 85 88 fa ff ff 	mov    %rax,-0x578(%rbp)
    827b:	48 8d 85 58 ef ff ff 	lea    -0x10a8(%rbp),%rax
    8282:	48 89 85 90 fa ff ff 	mov    %rax,-0x570(%rbp)
    8289:	48 8d 05 c8 93 01 00 	lea    0x193c8(%rip),%rax        # 21658 <g_1464>
    8290:	48 89 85 98 fa ff ff 	mov    %rax,-0x568(%rbp)
    8297:	48 8d 85 90 f2 ff ff 	lea    -0xd70(%rbp),%rax
    829e:	48 83 c0 40          	add    $0x40,%rax
    82a2:	48 89 85 a0 fa ff ff 	mov    %rax,-0x560(%rbp)
    82a9:	48 8d 05 a8 93 01 00 	lea    0x193a8(%rip),%rax        # 21658 <g_1464>
    82b0:	48 89 85 a8 fa ff ff 	mov    %rax,-0x558(%rbp)
    82b7:	48 8d 85 90 f2 ff ff 	lea    -0xd70(%rbp),%rax
    82be:	48 83 c0 40          	add    $0x40,%rax
    82c2:	48 89 85 b0 fa ff ff 	mov    %rax,-0x550(%rbp)
    82c9:	48 8d 05 88 93 01 00 	lea    0x19388(%rip),%rax        # 21658 <g_1464>
    82d0:	48 89 85 b8 fa ff ff 	mov    %rax,-0x548(%rbp)
    82d7:	48 8d 85 58 ef ff ff 	lea    -0x10a8(%rbp),%rax
    82de:	48 89 85 c0 fa ff ff 	mov    %rax,-0x540(%rbp)
    82e5:	48 8d 85 58 ef ff ff 	lea    -0x10a8(%rbp),%rax
    82ec:	48 89 85 c8 fa ff ff 	mov    %rax,-0x538(%rbp)
    82f3:	48 8d 85 58 ef ff ff 	lea    -0x10a8(%rbp),%rax
    82fa:	48 89 85 d0 fa ff ff 	mov    %rax,-0x530(%rbp)
    8301:	48 8d 85 58 ef ff ff 	lea    -0x10a8(%rbp),%rax
    8308:	48 89 85 d8 fa ff ff 	mov    %rax,-0x528(%rbp)
    830f:	48 8d 85 58 ef ff ff 	lea    -0x10a8(%rbp),%rax
    8316:	48 89 85 e0 fa ff ff 	mov    %rax,-0x520(%rbp)
    831d:	48 8d 85 58 ef ff ff 	lea    -0x10a8(%rbp),%rax
    8324:	48 89 85 e8 fa ff ff 	mov    %rax,-0x518(%rbp)
    832b:	48 8d 85 90 f2 ff ff 	lea    -0xd70(%rbp),%rax
    8332:	48 83 c0 40          	add    $0x40,%rax
    8336:	48 89 85 f0 fa ff ff 	mov    %rax,-0x510(%rbp)
    833d:	48 8d 85 58 ef ff ff 	lea    -0x10a8(%rbp),%rax
    8344:	48 89 85 f8 fa ff ff 	mov    %rax,-0x508(%rbp)
    834b:	48 8d 85 90 f2 ff ff 	lea    -0xd70(%rbp),%rax
    8352:	48 83 c0 40          	add    $0x40,%rax
    8356:	48 89 85 00 fb ff ff 	mov    %rax,-0x500(%rbp)
    835d:	48 8d 85 58 ef ff ff 	lea    -0x10a8(%rbp),%rax
    8364:	48 89 85 08 fb ff ff 	mov    %rax,-0x4f8(%rbp)
    836b:	48 8d 85 58 ef ff ff 	lea    -0x10a8(%rbp),%rax
    8372:	48 89 85 10 fb ff ff 	mov    %rax,-0x4f0(%rbp)
    8379:	48 8d 85 58 ef ff ff 	lea    -0x10a8(%rbp),%rax
    8380:	48 89 85 18 fb ff ff 	mov    %rax,-0x4e8(%rbp)
    8387:	48 8d 85 58 ef ff ff 	lea    -0x10a8(%rbp),%rax
    838e:	48 89 85 20 fb ff ff 	mov    %rax,-0x4e0(%rbp)
    8395:	48 8d 85 58 ef ff ff 	lea    -0x10a8(%rbp),%rax
    839c:	48 89 85 28 fb ff ff 	mov    %rax,-0x4d8(%rbp)
    83a3:	48 8d 85 58 ef ff ff 	lea    -0x10a8(%rbp),%rax
    83aa:	48 89 85 30 fb ff ff 	mov    %rax,-0x4d0(%rbp)
    83b1:	48 8d 05 a0 92 01 00 	lea    0x192a0(%rip),%rax        # 21658 <g_1464>
    83b8:	48 89 85 38 fb ff ff 	mov    %rax,-0x4c8(%rbp)
    83bf:	48 8d 85 90 f2 ff ff 	lea    -0xd70(%rbp),%rax
    83c6:	48 83 c0 40          	add    $0x40,%rax
    83ca:	48 89 85 40 fb ff ff 	mov    %rax,-0x4c0(%rbp)
    83d1:	48 8d 05 80 92 01 00 	lea    0x19280(%rip),%rax        # 21658 <g_1464>
    83d8:	48 89 85 48 fb ff ff 	mov    %rax,-0x4b8(%rbp)
    83df:	48 8d 85 90 f2 ff ff 	lea    -0xd70(%rbp),%rax
    83e6:	48 83 c0 40          	add    $0x40,%rax
    83ea:	48 89 85 50 fb ff ff 	mov    %rax,-0x4b0(%rbp)
    83f1:	48 8d 05 60 92 01 00 	lea    0x19260(%rip),%rax        # 21658 <g_1464>
    83f8:	48 89 85 58 fb ff ff 	mov    %rax,-0x4a8(%rbp)
    83ff:	48 8d 85 58 ef ff ff 	lea    -0x10a8(%rbp),%rax
    8406:	48 89 85 60 fb ff ff 	mov    %rax,-0x4a0(%rbp)
    840d:	48 8d 85 58 ef ff ff 	lea    -0x10a8(%rbp),%rax
    8414:	48 89 85 68 fb ff ff 	mov    %rax,-0x498(%rbp)
    841b:	48 8d 85 58 ef ff ff 	lea    -0x10a8(%rbp),%rax
    8422:	48 89 85 70 fb ff ff 	mov    %rax,-0x490(%rbp)
    8429:	48 8d 85 58 ef ff ff 	lea    -0x10a8(%rbp),%rax
    8430:	48 89 85 78 fb ff ff 	mov    %rax,-0x488(%rbp)
    8437:	48 8d 85 58 ef ff ff 	lea    -0x10a8(%rbp),%rax
    843e:	48 89 85 80 fb ff ff 	mov    %rax,-0x480(%rbp)
    8445:	48 8d 85 58 ef ff ff 	lea    -0x10a8(%rbp),%rax
    844c:	48 89 85 88 fb ff ff 	mov    %rax,-0x478(%rbp)
    8453:	48 8d 85 90 f2 ff ff 	lea    -0xd70(%rbp),%rax
    845a:	48 83 c0 40          	add    $0x40,%rax
    845e:	48 89 85 90 fb ff ff 	mov    %rax,-0x470(%rbp)
    8465:	48 8d 85 58 ef ff ff 	lea    -0x10a8(%rbp),%rax
    846c:	48 89 85 98 fb ff ff 	mov    %rax,-0x468(%rbp)
    8473:	48 8d 85 90 f2 ff ff 	lea    -0xd70(%rbp),%rax
    847a:	48 83 c0 40          	add    $0x40,%rax
    847e:	48 89 85 a0 fb ff ff 	mov    %rax,-0x460(%rbp)
    8485:	48 8d 85 58 ef ff ff 	lea    -0x10a8(%rbp),%rax
    848c:	48 89 85 a8 fb ff ff 	mov    %rax,-0x458(%rbp)
    8493:	48 8d 85 58 ef ff ff 	lea    -0x10a8(%rbp),%rax
    849a:	48 89 85 b0 fb ff ff 	mov    %rax,-0x450(%rbp)
    84a1:	48 8d 85 58 ef ff ff 	lea    -0x10a8(%rbp),%rax
    84a8:	48 89 85 b8 fb ff ff 	mov    %rax,-0x448(%rbp)
    84af:	48 8d 85 58 ef ff ff 	lea    -0x10a8(%rbp),%rax
    84b6:	48 89 85 c0 fb ff ff 	mov    %rax,-0x440(%rbp)
    84bd:	48 8d 85 58 ef ff ff 	lea    -0x10a8(%rbp),%rax
    84c4:	48 89 85 c8 fb ff ff 	mov    %rax,-0x438(%rbp)
    84cb:	48 8d 85 58 ef ff ff 	lea    -0x10a8(%rbp),%rax
    84d2:	48 89 85 d0 fb ff ff 	mov    %rax,-0x430(%rbp)
    84d9:	48 8d 05 78 91 01 00 	lea    0x19178(%rip),%rax        # 21658 <g_1464>
    84e0:	48 89 85 d8 fb ff ff 	mov    %rax,-0x428(%rbp)
    84e7:	48 8d 85 90 f2 ff ff 	lea    -0xd70(%rbp),%rax
    84ee:	48 83 c0 40          	add    $0x40,%rax
    84f2:	48 89 85 e0 fb ff ff 	mov    %rax,-0x420(%rbp)
    84f9:	48 8d 05 58 91 01 00 	lea    0x19158(%rip),%rax        # 21658 <g_1464>
    8500:	48 89 85 e8 fb ff ff 	mov    %rax,-0x418(%rbp)
    8507:	48 8d 85 90 f2 ff ff 	lea    -0xd70(%rbp),%rax
    850e:	48 83 c0 40          	add    $0x40,%rax
    8512:	48 89 85 f0 fb ff ff 	mov    %rax,-0x410(%rbp)
    8519:	48 8d 05 38 91 01 00 	lea    0x19138(%rip),%rax        # 21658 <g_1464>
    8520:	48 89 85 f8 fb ff ff 	mov    %rax,-0x408(%rbp)
    8527:	48 8d 85 58 ef ff ff 	lea    -0x10a8(%rbp),%rax
    852e:	48 89 85 00 fc ff ff 	mov    %rax,-0x400(%rbp)
    8535:	48 8d 85 58 ef ff ff 	lea    -0x10a8(%rbp),%rax
    853c:	48 89 85 08 fc ff ff 	mov    %rax,-0x3f8(%rbp)
    8543:	48 8d 85 58 ef ff ff 	lea    -0x10a8(%rbp),%rax
    854a:	48 89 85 10 fc ff ff 	mov    %rax,-0x3f0(%rbp)
    8551:	48 8d 85 58 ef ff ff 	lea    -0x10a8(%rbp),%rax
    8558:	48 89 85 18 fc ff ff 	mov    %rax,-0x3e8(%rbp)
    855f:	48 8d 85 58 ef ff ff 	lea    -0x10a8(%rbp),%rax
    8566:	48 89 85 20 fc ff ff 	mov    %rax,-0x3e0(%rbp)
    856d:	48 8d 85 58 ef ff ff 	lea    -0x10a8(%rbp),%rax
    8574:	48 89 85 28 fc ff ff 	mov    %rax,-0x3d8(%rbp)
    857b:	48 8d 85 90 f2 ff ff 	lea    -0xd70(%rbp),%rax
    8582:	48 83 c0 40          	add    $0x40,%rax
    8586:	48 89 85 30 fc ff ff 	mov    %rax,-0x3d0(%rbp)
    858d:	48 8d 85 58 ef ff ff 	lea    -0x10a8(%rbp),%rax
    8594:	48 89 85 38 fc ff ff 	mov    %rax,-0x3c8(%rbp)
    859b:	48 8d 85 90 f2 ff ff 	lea    -0xd70(%rbp),%rax
    85a2:	48 83 c0 40          	add    $0x40,%rax
    85a6:	48 89 85 40 fc ff ff 	mov    %rax,-0x3c0(%rbp)
    85ad:	48 8d 85 58 ef ff ff 	lea    -0x10a8(%rbp),%rax
    85b4:	48 89 85 48 fc ff ff 	mov    %rax,-0x3b8(%rbp)
    85bb:	48 8d 85 58 ef ff ff 	lea    -0x10a8(%rbp),%rax
    85c2:	48 89 85 50 fc ff ff 	mov    %rax,-0x3b0(%rbp)
    85c9:	48 8d 85 58 ef ff ff 	lea    -0x10a8(%rbp),%rax
    85d0:	48 89 85 58 fc ff ff 	mov    %rax,-0x3a8(%rbp)
    85d7:	48 8d 85 58 ef ff ff 	lea    -0x10a8(%rbp),%rax
    85de:	48 89 85 60 fc ff ff 	mov    %rax,-0x3a0(%rbp)
    85e5:	48 8d 85 58 ef ff ff 	lea    -0x10a8(%rbp),%rax
    85ec:	48 89 85 68 fc ff ff 	mov    %rax,-0x398(%rbp)
    85f3:	48 8d 85 58 ef ff ff 	lea    -0x10a8(%rbp),%rax
    85fa:	48 89 85 70 fc ff ff 	mov    %rax,-0x390(%rbp)
    8601:	48 8d 05 50 90 01 00 	lea    0x19050(%rip),%rax        # 21658 <g_1464>
    8608:	48 89 85 78 fc ff ff 	mov    %rax,-0x388(%rbp)
    860f:	48 8d 85 90 f2 ff ff 	lea    -0xd70(%rbp),%rax
    8616:	48 83 c0 40          	add    $0x40,%rax
    861a:	48 89 85 80 fc ff ff 	mov    %rax,-0x380(%rbp)
    8621:	48 8d 05 30 90 01 00 	lea    0x19030(%rip),%rax        # 21658 <g_1464>
    8628:	48 89 85 88 fc ff ff 	mov    %rax,-0x378(%rbp)
    862f:	48 8d 85 90 f2 ff ff 	lea    -0xd70(%rbp),%rax
    8636:	48 83 c0 40          	add    $0x40,%rax
    863a:	48 89 85 90 fc ff ff 	mov    %rax,-0x370(%rbp)
    8641:	48 8d 05 10 90 01 00 	lea    0x19010(%rip),%rax        # 21658 <g_1464>
    8648:	48 89 85 98 fc ff ff 	mov    %rax,-0x368(%rbp)
    864f:	48 8d 85 58 ef ff ff 	lea    -0x10a8(%rbp),%rax
    8656:	48 89 85 a0 fc ff ff 	mov    %rax,-0x360(%rbp)
    865d:	48 8d 85 58 ef ff ff 	lea    -0x10a8(%rbp),%rax
    8664:	48 89 85 a8 fc ff ff 	mov    %rax,-0x358(%rbp)
    866b:	48 8d 85 58 ef ff ff 	lea    -0x10a8(%rbp),%rax
    8672:	48 89 85 b0 fc ff ff 	mov    %rax,-0x350(%rbp)
    8679:	48 8d 85 58 ef ff ff 	lea    -0x10a8(%rbp),%rax
    8680:	48 89 85 b8 fc ff ff 	mov    %rax,-0x348(%rbp)
    8687:	48 8d 85 58 ef ff ff 	lea    -0x10a8(%rbp),%rax
    868e:	48 89 85 c0 fc ff ff 	mov    %rax,-0x340(%rbp)
    8695:	48 8d 85 58 ef ff ff 	lea    -0x10a8(%rbp),%rax
    869c:	48 89 85 c8 fc ff ff 	mov    %rax,-0x338(%rbp)
    86a3:	48 8d 85 90 f2 ff ff 	lea    -0xd70(%rbp),%rax
    86aa:	48 83 c0 40          	add    $0x40,%rax
    86ae:	48 89 85 d0 fc ff ff 	mov    %rax,-0x330(%rbp)
    86b5:	48 8d 85 58 ef ff ff 	lea    -0x10a8(%rbp),%rax
    86bc:	48 89 85 d8 fc ff ff 	mov    %rax,-0x328(%rbp)
    86c3:	48 8d 85 90 f2 ff ff 	lea    -0xd70(%rbp),%rax
    86ca:	48 83 c0 40          	add    $0x40,%rax
    86ce:	48 89 85 e0 fc ff ff 	mov    %rax,-0x320(%rbp)
    86d5:	48 8d 85 58 ef ff ff 	lea    -0x10a8(%rbp),%rax
    86dc:	48 89 85 e8 fc ff ff 	mov    %rax,-0x318(%rbp)
    86e3:	48 8d 85 58 ef ff ff 	lea    -0x10a8(%rbp),%rax
    86ea:	48 89 85 f0 fc ff ff 	mov    %rax,-0x310(%rbp)
    86f1:	48 8d 85 58 ef ff ff 	lea    -0x10a8(%rbp),%rax
    86f8:	48 89 85 f8 fc ff ff 	mov    %rax,-0x308(%rbp)
    86ff:	48 8d 85 58 ef ff ff 	lea    -0x10a8(%rbp),%rax
    8706:	48 89 85 00 fd ff ff 	mov    %rax,-0x300(%rbp)
    870d:	48 8d 85 58 ef ff ff 	lea    -0x10a8(%rbp),%rax
    8714:	48 89 85 08 fd ff ff 	mov    %rax,-0x2f8(%rbp)
    871b:	48 8d 85 58 ef ff ff 	lea    -0x10a8(%rbp),%rax
    8722:	48 89 85 10 fd ff ff 	mov    %rax,-0x2f0(%rbp)
    8729:	48 8d 05 28 8f 01 00 	lea    0x18f28(%rip),%rax        # 21658 <g_1464>
    8730:	48 89 85 18 fd ff ff 	mov    %rax,-0x2e8(%rbp)
    8737:	48 8d 85 90 f2 ff ff 	lea    -0xd70(%rbp),%rax
    873e:	48 83 c0 40          	add    $0x40,%rax
    8742:	48 89 85 20 fd ff ff 	mov    %rax,-0x2e0(%rbp)
    8749:	48 8d 05 08 8f 01 00 	lea    0x18f08(%rip),%rax        # 21658 <g_1464>
    8750:	48 89 85 28 fd ff ff 	mov    %rax,-0x2d8(%rbp)
    8757:	48 8d 85 90 f2 ff ff 	lea    -0xd70(%rbp),%rax
    875e:	48 83 c0 40          	add    $0x40,%rax
    8762:	48 89 85 30 fd ff ff 	mov    %rax,-0x2d0(%rbp)
    8769:	48 8d 05 e8 8e 01 00 	lea    0x18ee8(%rip),%rax        # 21658 <g_1464>
    8770:	48 89 85 38 fd ff ff 	mov    %rax,-0x2c8(%rbp)
    8777:	48 8d 85 58 ef ff ff 	lea    -0x10a8(%rbp),%rax
    877e:	48 89 85 40 fd ff ff 	mov    %rax,-0x2c0(%rbp)
    8785:	48 8d 85 58 ef ff ff 	lea    -0x10a8(%rbp),%rax
    878c:	48 89 85 48 fd ff ff 	mov    %rax,-0x2b8(%rbp)
    8793:	48 8d 85 58 ef ff ff 	lea    -0x10a8(%rbp),%rax
    879a:	48 89 85 50 fd ff ff 	mov    %rax,-0x2b0(%rbp)
    87a1:	48 8d 85 58 ef ff ff 	lea    -0x10a8(%rbp),%rax
    87a8:	48 89 85 58 fd ff ff 	mov    %rax,-0x2a8(%rbp)
    87af:	48 8d 85 58 ef ff ff 	lea    -0x10a8(%rbp),%rax
    87b6:	48 89 85 60 fd ff ff 	mov    %rax,-0x2a0(%rbp)
    87bd:	48 8d 85 58 ef ff ff 	lea    -0x10a8(%rbp),%rax
    87c4:	48 89 85 68 fd ff ff 	mov    %rax,-0x298(%rbp)
    87cb:	48 8d 85 90 f2 ff ff 	lea    -0xd70(%rbp),%rax
    87d2:	48 83 c0 40          	add    $0x40,%rax
    87d6:	48 89 85 70 fd ff ff 	mov    %rax,-0x290(%rbp)
    87dd:	48 8d 85 58 ef ff ff 	lea    -0x10a8(%rbp),%rax
    87e4:	48 89 85 78 fd ff ff 	mov    %rax,-0x288(%rbp)
    87eb:	48 8d 85 90 f2 ff ff 	lea    -0xd70(%rbp),%rax
    87f2:	48 83 c0 40          	add    $0x40,%rax
    87f6:	48 89 85 80 fd ff ff 	mov    %rax,-0x280(%rbp)
    87fd:	48 8d 85 58 ef ff ff 	lea    -0x10a8(%rbp),%rax
    8804:	48 89 85 88 fd ff ff 	mov    %rax,-0x278(%rbp)
    880b:	48 8d 85 58 ef ff ff 	lea    -0x10a8(%rbp),%rax
    8812:	48 89 85 90 fd ff ff 	mov    %rax,-0x270(%rbp)
    8819:	48 8d 85 58 ef ff ff 	lea    -0x10a8(%rbp),%rax
    8820:	48 89 85 98 fd ff ff 	mov    %rax,-0x268(%rbp)
    8827:	48 8d 85 58 ef ff ff 	lea    -0x10a8(%rbp),%rax
    882e:	48 89 85 a0 fd ff ff 	mov    %rax,-0x260(%rbp)
    8835:	48 8d 85 58 ef ff ff 	lea    -0x10a8(%rbp),%rax
    883c:	48 89 85 a8 fd ff ff 	mov    %rax,-0x258(%rbp)
    8843:	48 8d 85 58 ef ff ff 	lea    -0x10a8(%rbp),%rax
    884a:	48 89 85 b0 fd ff ff 	mov    %rax,-0x250(%rbp)
    8851:	48 8d 05 00 8e 01 00 	lea    0x18e00(%rip),%rax        # 21658 <g_1464>
    8858:	48 89 85 b8 fd ff ff 	mov    %rax,-0x248(%rbp)
    885f:	48 8d 85 90 f2 ff ff 	lea    -0xd70(%rbp),%rax
    8866:	48 83 c0 40          	add    $0x40,%rax
    886a:	48 89 85 c0 fd ff ff 	mov    %rax,-0x240(%rbp)
    8871:	48 8d 05 e0 8d 01 00 	lea    0x18de0(%rip),%rax        # 21658 <g_1464>
    8878:	48 89 85 c8 fd ff ff 	mov    %rax,-0x238(%rbp)
    887f:	48 8d 85 90 f2 ff ff 	lea    -0xd70(%rbp),%rax
    8886:	48 83 c0 40          	add    $0x40,%rax
    888a:	48 89 85 d0 fd ff ff 	mov    %rax,-0x230(%rbp)
    8891:	48 8d 05 c0 8d 01 00 	lea    0x18dc0(%rip),%rax        # 21658 <g_1464>
    8898:	48 89 85 d8 fd ff ff 	mov    %rax,-0x228(%rbp)
    889f:	48 8d 85 58 ef ff ff 	lea    -0x10a8(%rbp),%rax
    88a6:	48 89 85 e0 fd ff ff 	mov    %rax,-0x220(%rbp)
    88ad:	48 8d 85 58 ef ff ff 	lea    -0x10a8(%rbp),%rax
    88b4:	48 89 85 e8 fd ff ff 	mov    %rax,-0x218(%rbp)
    88bb:	48 8d 85 58 ef ff ff 	lea    -0x10a8(%rbp),%rax
    88c2:	48 89 85 f0 fd ff ff 	mov    %rax,-0x210(%rbp)
    88c9:	48 8d 85 58 ef ff ff 	lea    -0x10a8(%rbp),%rax
    88d0:	48 89 85 f8 fd ff ff 	mov    %rax,-0x208(%rbp)
    88d7:	48 8d 85 58 ef ff ff 	lea    -0x10a8(%rbp),%rax
    88de:	48 89 85 00 fe ff ff 	mov    %rax,-0x200(%rbp)
    88e5:	48 8d 85 58 ef ff ff 	lea    -0x10a8(%rbp),%rax
    88ec:	48 89 85 08 fe ff ff 	mov    %rax,-0x1f8(%rbp)
    88f3:	48 8d 85 90 f2 ff ff 	lea    -0xd70(%rbp),%rax
    88fa:	48 83 c0 40          	add    $0x40,%rax
    88fe:	48 89 85 10 fe ff ff 	mov    %rax,-0x1f0(%rbp)
    8905:	48 8d 85 58 ef ff ff 	lea    -0x10a8(%rbp),%rax
    890c:	48 89 85 18 fe ff ff 	mov    %rax,-0x1e8(%rbp)
    8913:	48 8d 85 90 f2 ff ff 	lea    -0xd70(%rbp),%rax
    891a:	48 83 c0 40          	add    $0x40,%rax
    891e:	48 89 85 20 fe ff ff 	mov    %rax,-0x1e0(%rbp)
    8925:	48 8d 85 58 ef ff ff 	lea    -0x10a8(%rbp),%rax
    892c:	48 89 85 28 fe ff ff 	mov    %rax,-0x1d8(%rbp)
    8933:	48 8d 85 58 ef ff ff 	lea    -0x10a8(%rbp),%rax
    893a:	48 89 85 30 fe ff ff 	mov    %rax,-0x1d0(%rbp)
    8941:	48 8d 85 58 ef ff ff 	lea    -0x10a8(%rbp),%rax
    8948:	48 89 85 38 fe ff ff 	mov    %rax,-0x1c8(%rbp)
    894f:	48 8d 85 58 ef ff ff 	lea    -0x10a8(%rbp),%rax
    8956:	48 89 85 40 fe ff ff 	mov    %rax,-0x1c0(%rbp)
    895d:	48 8d 85 58 ef ff ff 	lea    -0x10a8(%rbp),%rax
    8964:	48 89 85 48 fe ff ff 	mov    %rax,-0x1b8(%rbp)
    896b:	48 8d 85 58 ef ff ff 	lea    -0x10a8(%rbp),%rax
    8972:	48 89 85 50 fe ff ff 	mov    %rax,-0x1b0(%rbp)
    8979:	48 8d 05 d8 8c 01 00 	lea    0x18cd8(%rip),%rax        # 21658 <g_1464>
    8980:	48 89 85 58 fe ff ff 	mov    %rax,-0x1a8(%rbp)
    8987:	48 8d 85 90 f2 ff ff 	lea    -0xd70(%rbp),%rax
    898e:	48 83 c0 40          	add    $0x40,%rax
    8992:	48 89 85 60 fe ff ff 	mov    %rax,-0x1a0(%rbp)
    8999:	48 8d 05 b8 8c 01 00 	lea    0x18cb8(%rip),%rax        # 21658 <g_1464>
    89a0:	48 89 85 68 fe ff ff 	mov    %rax,-0x198(%rbp)
    89a7:	48 8d 85 90 f2 ff ff 	lea    -0xd70(%rbp),%rax
    89ae:	48 83 c0 40          	add    $0x40,%rax
    89b2:	48 89 85 70 fe ff ff 	mov    %rax,-0x190(%rbp)
    89b9:	48 8d 05 98 8c 01 00 	lea    0x18c98(%rip),%rax        # 21658 <g_1464>
    89c0:	48 89 85 78 fe ff ff 	mov    %rax,-0x188(%rbp)
    89c7:	48 8d 85 58 ef ff ff 	lea    -0x10a8(%rbp),%rax
    89ce:	48 89 85 80 fe ff ff 	mov    %rax,-0x180(%rbp)
    89d5:	48 8d 85 58 ef ff ff 	lea    -0x10a8(%rbp),%rax
    89dc:	48 89 85 88 fe ff ff 	mov    %rax,-0x178(%rbp)
    89e3:	48 8d 85 58 ef ff ff 	lea    -0x10a8(%rbp),%rax
    89ea:	48 89 85 90 fe ff ff 	mov    %rax,-0x170(%rbp)
    89f1:	48 8d 85 58 ef ff ff 	lea    -0x10a8(%rbp),%rax
    89f8:	48 89 85 98 fe ff ff 	mov    %rax,-0x168(%rbp)
    89ff:	48 8d 85 58 ef ff ff 	lea    -0x10a8(%rbp),%rax
    8a06:	48 89 85 a0 fe ff ff 	mov    %rax,-0x160(%rbp)
    8a0d:	48 8d 85 58 ef ff ff 	lea    -0x10a8(%rbp),%rax
    8a14:	48 89 85 a8 fe ff ff 	mov    %rax,-0x158(%rbp)
    8a1b:	48 8d 85 90 f2 ff ff 	lea    -0xd70(%rbp),%rax
    8a22:	48 83 c0 40          	add    $0x40,%rax
    8a26:	48 89 85 b0 fe ff ff 	mov    %rax,-0x150(%rbp)
    8a2d:	48 8d 85 58 ef ff ff 	lea    -0x10a8(%rbp),%rax
    8a34:	48 89 85 b8 fe ff ff 	mov    %rax,-0x148(%rbp)
    8a3b:	48 8d 85 90 f2 ff ff 	lea    -0xd70(%rbp),%rax
    8a42:	48 83 c0 40          	add    $0x40,%rax
    8a46:	48 89 85 c0 fe ff ff 	mov    %rax,-0x140(%rbp)
    8a4d:	48 8d 85 58 ef ff ff 	lea    -0x10a8(%rbp),%rax
    8a54:	48 89 85 c8 fe ff ff 	mov    %rax,-0x138(%rbp)
    8a5b:	48 8d 85 58 ef ff ff 	lea    -0x10a8(%rbp),%rax
    8a62:	48 89 85 d0 fe ff ff 	mov    %rax,-0x130(%rbp)
    8a69:	48 8d 85 58 ef ff ff 	lea    -0x10a8(%rbp),%rax
    8a70:	48 89 85 d8 fe ff ff 	mov    %rax,-0x128(%rbp)
    8a77:	48 8d 85 58 ef ff ff 	lea    -0x10a8(%rbp),%rax
    8a7e:	48 89 85 e0 fe ff ff 	mov    %rax,-0x120(%rbp)
    8a85:	48 8d 85 58 ef ff ff 	lea    -0x10a8(%rbp),%rax
    8a8c:	48 89 85 e8 fe ff ff 	mov    %rax,-0x118(%rbp)
    8a93:	48 8d 85 58 ef ff ff 	lea    -0x10a8(%rbp),%rax
    8a9a:	48 89 85 f0 fe ff ff 	mov    %rax,-0x110(%rbp)
    8aa1:	48 8d 05 b0 8b 01 00 	lea    0x18bb0(%rip),%rax        # 21658 <g_1464>
    8aa8:	48 89 85 f8 fe ff ff 	mov    %rax,-0x108(%rbp)
    8aaf:	48 8d 85 90 f2 ff ff 	lea    -0xd70(%rbp),%rax
    8ab6:	48 83 c0 40          	add    $0x40,%rax
    8aba:	48 89 85 00 ff ff ff 	mov    %rax,-0x100(%rbp)
    8ac1:	48 8d 05 90 8b 01 00 	lea    0x18b90(%rip),%rax        # 21658 <g_1464>
    8ac8:	48 89 85 08 ff ff ff 	mov    %rax,-0xf8(%rbp)
    8acf:	48 8d 85 90 f2 ff ff 	lea    -0xd70(%rbp),%rax
    8ad6:	48 83 c0 40          	add    $0x40,%rax
    8ada:	48 89 85 10 ff ff ff 	mov    %rax,-0xf0(%rbp)
    8ae1:	48 8d 05 70 8b 01 00 	lea    0x18b70(%rip),%rax        # 21658 <g_1464>
    8ae8:	48 89 85 18 ff ff ff 	mov    %rax,-0xe8(%rbp)
    8aef:	48 8d 85 58 ef ff ff 	lea    -0x10a8(%rbp),%rax
    8af6:	48 89 85 20 ff ff ff 	mov    %rax,-0xe0(%rbp)
    8afd:	48 8d 85 58 ef ff ff 	lea    -0x10a8(%rbp),%rax
    8b04:	48 89 85 28 ff ff ff 	mov    %rax,-0xd8(%rbp)
    8b0b:	48 8d 85 58 ef ff ff 	lea    -0x10a8(%rbp),%rax
    8b12:	48 89 85 30 ff ff ff 	mov    %rax,-0xd0(%rbp)
    8b19:	48 8d 85 58 ef ff ff 	lea    -0x10a8(%rbp),%rax
    8b20:	48 89 85 38 ff ff ff 	mov    %rax,-0xc8(%rbp)
    8b27:	48 8d 85 58 ef ff ff 	lea    -0x10a8(%rbp),%rax
    8b2e:	48 89 85 40 ff ff ff 	mov    %rax,-0xc0(%rbp)
    8b35:	48 8d 85 58 ef ff ff 	lea    -0x10a8(%rbp),%rax
    8b3c:	48 89 85 48 ff ff ff 	mov    %rax,-0xb8(%rbp)
    8b43:	48 8d 85 90 f2 ff ff 	lea    -0xd70(%rbp),%rax
    8b4a:	48 83 c0 40          	add    $0x40,%rax
    8b4e:	48 89 85 50 ff ff ff 	mov    %rax,-0xb0(%rbp)
    8b55:	48 8d 85 58 ef ff ff 	lea    -0x10a8(%rbp),%rax
    8b5c:	48 89 85 58 ff ff ff 	mov    %rax,-0xa8(%rbp)
    8b63:	48 8d 85 90 f2 ff ff 	lea    -0xd70(%rbp),%rax
    8b6a:	48 83 c0 40          	add    $0x40,%rax
    8b6e:	48 89 85 60 ff ff ff 	mov    %rax,-0xa0(%rbp)
    8b75:	48 8d 85 58 ef ff ff 	lea    -0x10a8(%rbp),%rax
    8b7c:	48 89 85 68 ff ff ff 	mov    %rax,-0x98(%rbp)
    8b83:	48 8d 85 58 ef ff ff 	lea    -0x10a8(%rbp),%rax
    8b8a:	48 89 85 70 ff ff ff 	mov    %rax,-0x90(%rbp)
    8b91:	48 8d 85 58 ef ff ff 	lea    -0x10a8(%rbp),%rax
    8b98:	48 89 85 78 ff ff ff 	mov    %rax,-0x88(%rbp)
    8b9f:	48 8d 85 58 ef ff ff 	lea    -0x10a8(%rbp),%rax
    8ba6:	48 89 45 80          	mov    %rax,-0x80(%rbp)
    8baa:	48 8d 85 58 ef ff ff 	lea    -0x10a8(%rbp),%rax
    8bb1:	48 89 45 88          	mov    %rax,-0x78(%rbp)
    8bb5:	48 8d 85 58 ef ff ff 	lea    -0x10a8(%rbp),%rax
    8bbc:	48 89 45 90          	mov    %rax,-0x70(%rbp)
    8bc0:	48 8d 05 91 8a 01 00 	lea    0x18a91(%rip),%rax        # 21658 <g_1464>
    8bc7:	48 89 45 98          	mov    %rax,-0x68(%rbp)
    8bcb:	48 8d 85 90 f2 ff ff 	lea    -0xd70(%rbp),%rax
    8bd2:	48 83 c0 40          	add    $0x40,%rax
    8bd6:	48 89 45 a0          	mov    %rax,-0x60(%rbp)
    8bda:	48 8d 05 77 8a 01 00 	lea    0x18a77(%rip),%rax        # 21658 <g_1464>
    8be1:	48 89 45 a8          	mov    %rax,-0x58(%rbp)
    8be5:	48 8d 85 90 f2 ff ff 	lea    -0xd70(%rbp),%rax
    8bec:	48 83 c0 40          	add    $0x40,%rax
    8bf0:	48 89 45 b0          	mov    %rax,-0x50(%rbp)
    8bf4:	48 8d 05 5d 8a 01 00 	lea    0x18a5d(%rip),%rax        # 21658 <g_1464>
    8bfb:	48 89 45 b8          	mov    %rax,-0x48(%rbp)
    8bff:	c7 85 34 ef ff ff ff 	movl   $0xffffffff,-0x10cc(%rbp)
    8c06:	ff ff ff 
    8c09:	48 c7 85 c8 f0 ff ff 	movq   $0x0,-0xf38(%rbp)
    8c10:	00 00 00 00 
    8c14:	c6 85 e3 ee ff ff a5 	movb   $0xa5,-0x111d(%rbp)
    8c1b:	48 8d 85 68 ef ff ff 	lea    -0x1098(%rbp),%rax
    8c22:	48 89 85 d0 f0 ff ff 	mov    %rax,-0xf30(%rbp)
    8c29:	c7 85 f4 ee ff ff 00 	movl   $0x0,-0x110c(%rbp)
    8c30:	00 00 00 
    8c33:	eb 1e                	jmp    8c53 <func_12+0x1397>
    8c35:	8b 85 f4 ee ff ff    	mov    -0x110c(%rbp),%eax
    8c3b:	48 98                	cltq   
    8c3d:	48 8d 15 9c 73 01 00 	lea    0x1739c(%rip),%rdx        # 1ffe0 <g_130>
    8c44:	48 89 94 c5 a0 f3 ff 	mov    %rdx,-0xc60(%rbp,%rax,8)
    8c4b:	ff 
    8c4c:	83 85 f4 ee ff ff 01 	addl   $0x1,-0x110c(%rbp)
    8c53:	83 bd f4 ee ff ff 09 	cmpl   $0x9,-0x110c(%rbp)
    8c5a:	7e d9                	jle    8c35 <func_12+0x1379>
    8c5c:	c7 05 fa 4e 01 00 ec 	movl   $0xffffffec,0x14efa(%rip)        # 1db60 <g_945>
    8c63:	ff ff ff 
    8c66:	e9 5c 02 00 00       	jmpq   8ec7 <func_12+0x160b>
    8c6b:	48 c7 85 d8 f0 ff ff 	movq   $0x9,-0xf28(%rbp)
    8c72:	09 00 00 00 
    8c76:	48 8d 05 f7 48 01 00 	lea    0x148f7(%rip),%rax        # 1d574 <g_157>
    8c7d:	48 89 85 e0 f0 ff ff 	mov    %rax,-0xf20(%rbp)
    8c84:	c7 85 38 ef ff ff 0b 	movl   $0xfa68a00b,-0x10c8(%rbp)
    8c8b:	a0 68 fa 
    8c8e:	c7 85 3c ef ff ff f8 	movl   $0xadce21f8,-0x10c4(%rbp)
    8c95:	21 ce ad 
    8c98:	c7 85 40 ef ff ff 35 	movl   $0x76bb835,-0x10c0(%rbp)
    8c9f:	b8 6b 07 
    8ca2:	c7 85 44 ef ff ff fc 	movl   $0xfffffffc,-0x10bc(%rbp)
    8ca9:	ff ff ff 
    8cac:	c7 85 48 ef ff ff 08 	movl   $0x8,-0x10b8(%rbp)
    8cb3:	00 00 00 
    8cb6:	c7 85 4c ef ff ff ff 	movl   $0xffffffff,-0x10b4(%rbp)
    8cbd:	ff ff ff 
    8cc0:	c7 85 50 ef ff ff 03 	movl   $0x881f6d03,-0x10b0(%rbp)
    8cc7:	6d 1f 88 
    8cca:	48 8d 85 58 ef ff ff 	lea    -0x10a8(%rbp),%rax
    8cd1:	48 89 85 e8 f0 ff ff 	mov    %rax,-0xf18(%rbp)
    8cd8:	48 c7 85 b8 ef ff ff 	movq   $0x0,-0x1048(%rbp)
    8cdf:	00 00 00 00 
    8ce3:	48 8d 85 b8 ef ff ff 	lea    -0x1048(%rbp),%rax
    8cea:	48 89 85 c0 ef ff ff 	mov    %rax,-0x1040(%rbp)
    8cf1:	48 8d 85 c0 ef ff ff 	lea    -0x1040(%rbp),%rax
    8cf8:	48 89 85 f0 f0 ff ff 	mov    %rax,-0xf10(%rbp)
    8cff:	48 c7 85 f8 f0 ff ff 	movq   $0x0,-0xf08(%rbp)
    8d06:	00 00 00 00 
    8d0a:	c7 85 54 ef ff ff 00 	movl   $0x0,-0x10ac(%rbp)
    8d11:	00 00 00 
    8d14:	c7 85 e0 f5 ff ff 01 	movl   $0x1,-0xa20(%rbp)
    8d1b:	00 00 00 
    8d1e:	c7 85 e4 f5 ff ff 01 	movl   $0x1,-0xa1c(%rbp)
    8d25:	00 00 00 
    8d28:	c7 85 e8 f5 ff ff 01 	movl   $0x1,-0xa18(%rbp)
    8d2f:	00 00 00 
    8d32:	c7 85 ec f5 ff ff 01 	movl   $0x1,-0xa14(%rbp)
    8d39:	00 00 00 
    8d3c:	c7 85 f0 f5 ff ff 01 	movl   $0x1,-0xa10(%rbp)
    8d43:	00 00 00 
    8d46:	c7 85 f4 f5 ff ff 01 	movl   $0x1,-0xa0c(%rbp)
    8d4d:	00 00 00 
    8d50:	c7 85 f8 f5 ff ff 01 	movl   $0x1,-0xa08(%rbp)
    8d57:	00 00 00 
    8d5a:	c7 85 fc f5 ff ff 00 	movl   $0x0,-0xa04(%rbp)
    8d61:	00 00 00 
    8d64:	c7 85 00 f6 ff ff 32 	movl   $0x7a7a9432,-0xa00(%rbp)
    8d6b:	94 7a 7a 
    8d6e:	c7 85 04 f6 ff ff 00 	movl   $0x0,-0x9fc(%rbp)
    8d75:	00 00 00 
    8d78:	c7 85 08 f6 ff ff 32 	movl   $0x7a7a9432,-0x9f8(%rbp)
    8d7f:	94 7a 7a 
    8d82:	c7 85 0c f6 ff ff 00 	movl   $0x0,-0x9f4(%rbp)
    8d89:	00 00 00 
    8d8c:	c7 85 10 f6 ff ff 32 	movl   $0x7a7a9432,-0x9f0(%rbp)
    8d93:	94 7a 7a 
    8d96:	c7 85 14 f6 ff ff 00 	movl   $0x0,-0x9ec(%rbp)
    8d9d:	00 00 00 
    8da0:	c7 85 18 f6 ff ff 01 	movl   $0x1,-0x9e8(%rbp)
    8da7:	00 00 00 
    8daa:	c7 85 1c f6 ff ff 01 	movl   $0x1,-0x9e4(%rbp)
    8db1:	00 00 00 
    8db4:	c7 85 20 f6 ff ff 01 	movl   $0x1,-0x9e0(%rbp)
    8dbb:	00 00 00 
    8dbe:	c7 85 24 f6 ff ff 01 	movl   $0x1,-0x9dc(%rbp)
    8dc5:	00 00 00 
    8dc8:	c7 85 28 f6 ff ff 01 	movl   $0x1,-0x9d8(%rbp)
    8dcf:	00 00 00 
    8dd2:	c7 85 2c f6 ff ff 01 	movl   $0x1,-0x9d4(%rbp)
    8dd9:	00 00 00 
    8ddc:	c7 85 30 f6 ff ff 01 	movl   $0x1,-0x9d0(%rbp)
    8de3:	00 00 00 
    8de6:	c7 85 34 f6 ff ff 00 	movl   $0x0,-0x9cc(%rbp)
    8ded:	00 00 00 
    8df0:	c7 85 38 f6 ff ff 32 	movl   $0x7a7a9432,-0x9c8(%rbp)
    8df7:	94 7a 7a 
    8dfa:	c7 85 3c f6 ff ff 00 	movl   $0x0,-0x9c4(%rbp)
    8e01:	00 00 00 
    8e04:	c7 85 40 f6 ff ff 32 	movl   $0x7a7a9432,-0x9c0(%rbp)
    8e0b:	94 7a 7a 
    8e0e:	c7 85 44 f6 ff ff 00 	movl   $0x0,-0x9bc(%rbp)
    8e15:	00 00 00 
    8e18:	c7 85 48 f6 ff ff 32 	movl   $0x7a7a9432,-0x9b8(%rbp)
    8e1f:	94 7a 7a 
    8e22:	c7 85 4c f6 ff ff 00 	movl   $0x0,-0x9b4(%rbp)
    8e29:	00 00 00 
    8e2c:	c7 85 50 f6 ff ff 01 	movl   $0x1,-0x9b0(%rbp)
    8e33:	00 00 00 
    8e36:	c7 85 54 f6 ff ff 01 	movl   $0x1,-0x9ac(%rbp)
    8e3d:	00 00 00 
    8e40:	c7 85 58 f6 ff ff 01 	movl   $0x1,-0x9a8(%rbp)
    8e47:	00 00 00 
    8e4a:	c7 85 5c f6 ff ff 01 	movl   $0x1,-0x9a4(%rbp)
    8e51:	00 00 00 
    8e54:	c7 85 60 f6 ff ff 01 	movl   $0x1,-0x9a0(%rbp)
    8e5b:	00 00 00 
    8e5e:	c7 85 64 f6 ff ff 01 	movl   $0x1,-0x99c(%rbp)
    8e65:	00 00 00 
    8e68:	c7 85 68 f6 ff ff 01 	movl   $0x1,-0x998(%rbp)
    8e6f:	00 00 00 
    8e72:	c7 85 6c f6 ff ff 00 	movl   $0x0,-0x994(%rbp)
    8e79:	00 00 00 
    8e7c:	c7 85 70 f6 ff ff 32 	movl   $0x7a7a9432,-0x990(%rbp)
    8e83:	94 7a 7a 
    8e86:	c7 85 74 f6 ff ff 00 	movl   $0x0,-0x98c(%rbp)
    8e8d:	00 00 00 
    8e90:	c7 85 78 f6 ff ff 32 	movl   $0x7a7a9432,-0x988(%rbp)
    8e97:	94 7a 7a 
    8e9a:	c7 85 7c f6 ff ff 00 	movl   $0x0,-0x984(%rbp)
    8ea1:	00 00 00 
    8ea4:	c7 85 80 f6 ff ff 32 	movl   $0x7a7a9432,-0x980(%rbp)
    8eab:	94 7a 7a 
    8eae:	c7 85 84 f6 ff ff 00 	movl   $0x0,-0x97c(%rbp)
    8eb5:	00 00 00 
    8eb8:	8b 05 a2 4c 01 00    	mov    0x14ca2(%rip),%eax        # 1db60 <g_945>
    8ebe:	83 c0 01             	add    $0x1,%eax
    8ec1:	89 05 99 4c 01 00    	mov    %eax,0x14c99(%rip)        # 1db60 <g_945>
    8ec7:	8b 05 93 4c 01 00    	mov    0x14c93(%rip),%eax        # 1db60 <g_945>
    8ecd:	83 f8 f1             	cmp    $0xfffffff1,%eax
    8ed0:	0f 84 95 fd ff ff    	je     8c6b <func_12+0x13af>
    8ed6:	48 83 bd e0 ef ff ff 	cmpq   $0x0,-0x1020(%rbp)
    8edd:	00 
    8ede:	0f 95 c0             	setne  %al
    8ee1:	0f b6 c0             	movzbl %al,%eax
    8ee4:	be 00 00 00 00       	mov    $0x0,%esi
    8ee9:	89 c7                	mov    %eax,%edi
    8eeb:	e8 6a dc ff ff       	callq  6b5a <safe_add_func_uint8_t_u_u>
    8ef0:	48 8b 95 68 ef ff ff 	mov    -0x1098(%rbp),%rdx
    8ef7:	48 8b 85 d0 f0 ff ff 	mov    -0xf30(%rbp),%rax
    8efe:	48 89 10             	mov    %rdx,(%rax)
    8f01:	e9 dc 0e 00 00       	jmpq   9de2 <func_12+0x2526>
    8f06:	48 8d 05 a3 77 01 00 	lea    0x177a3(%rip),%rax        # 206b0 <g_2789>
    8f0d:	48 89 85 90 ef ff ff 	mov    %rax,-0x1070(%rbp)
    8f14:	48 8d 85 60 f1 ff ff 	lea    -0xea0(%rbp),%rax
    8f1b:	48 83 c0 08          	add    $0x8,%rax
    8f1f:	48 89 85 30 f0 ff ff 	mov    %rax,-0xfd0(%rbp)
    8f26:	48 8d 05 8b 71 01 00 	lea    0x1718b(%rip),%rax        # 200b8 <g_1267>
    8f2d:	48 89 85 98 ef ff ff 	mov    %rax,-0x1068(%rbp)
    8f34:	48 8d 85 98 ef ff ff 	lea    -0x1068(%rbp),%rax
    8f3b:	48 89 85 a0 ef ff ff 	mov    %rax,-0x1060(%rbp)
    8f42:	48 8d 85 a0 ef ff ff 	lea    -0x1060(%rbp),%rax
    8f49:	48 89 85 a8 ef ff ff 	mov    %rax,-0x1058(%rbp)
    8f50:	48 8d 85 a8 ef ff ff 	lea    -0x1058(%rbp),%rax
    8f57:	48 89 85 38 f0 ff ff 	mov    %rax,-0xfc8(%rbp)
    8f5e:	c7 85 f8 ee ff ff 07 	movl   $0x7,-0x1108(%rbp)
    8f65:	00 00 00 
    8f68:	48 8d 85 e8 ee ff ff 	lea    -0x1118(%rbp),%rax
    8f6f:	48 89 85 40 f0 ff ff 	mov    %rax,-0xfc0(%rbp)
    8f76:	48 8d 05 63 70 01 00 	lea    0x17063(%rip),%rax        # 1ffe0 <g_130>
    8f7d:	48 89 85 48 f0 ff ff 	mov    %rax,-0xfb8(%rbp)
    8f84:	48 8d 85 40 f8 ff ff 	lea    -0x7c0(%rbp),%rax
    8f8b:	48 8d 15 0e 5f 01 00 	lea    0x15f0e(%rip),%rdx        # 1eea0 <g_3242+0x1d8>
    8f92:	b9 a0 00 00 00       	mov    $0xa0,%ecx
    8f97:	48 89 c7             	mov    %rax,%rdi
    8f9a:	48 89 d6             	mov    %rdx,%rsi
    8f9d:	f3 48 a5             	rep movsq %ds:(%rsi),%es:(%rdi)
    8fa0:	48 8d 05 7d 4a 01 00 	lea    0x14a7d(%rip),%rax        # 1da24 <g_521>
    8fa7:	48 89 85 50 f0 ff ff 	mov    %rax,-0xfb0(%rbp)
    8fae:	48 8d 05 13 86 01 00 	lea    0x18613(%rip),%rax        # 215c8 <g_85>
    8fb5:	48 89 85 58 f0 ff ff 	mov    %rax,-0xfa8(%rbp)
    8fbc:	48 8d 85 e0 f5 ff ff 	lea    -0xa20(%rbp),%rax
    8fc3:	48 8d 15 d6 63 01 00 	lea    0x163d6(%rip),%rdx        # 1f3a0 <g_3242+0x6d8>
    8fca:	b9 4b 00 00 00       	mov    $0x4b,%ecx
    8fcf:	48 89 c7             	mov    %rax,%rdi
    8fd2:	48 89 d6             	mov    %rdx,%rsi
    8fd5:	f3 48 a5             	rep movsq %ds:(%rsi),%es:(%rdi)
    8fd8:	c7 85 10 f3 ff ff 90 	movl   $0xfd8c9190,-0xcf0(%rbp)
    8fdf:	91 8c fd 
    8fe2:	c7 85 14 f3 ff ff 06 	movl   $0x6,-0xcec(%rbp)
    8fe9:	00 00 00 
    8fec:	c7 85 18 f3 ff ff 90 	movl   $0xfd8c9190,-0xce8(%rbp)
    8ff3:	91 8c fd 
    8ff6:	c7 85 1c f3 ff ff 06 	movl   $0x6,-0xce4(%rbp)
    8ffd:	00 00 00 
    9000:	c7 85 20 f3 ff ff 90 	movl   $0xfd8c9190,-0xce0(%rbp)
    9007:	91 8c fd 
    900a:	c7 85 24 f3 ff ff 06 	movl   $0x6,-0xcdc(%rbp)
    9011:	00 00 00 
    9014:	c7 85 28 f3 ff ff 90 	movl   $0xfd8c9190,-0xcd8(%rbp)
    901b:	91 8c fd 
    901e:	c7 85 2c f3 ff ff 06 	movl   $0x6,-0xcd4(%rbp)
    9025:	00 00 00 
    9028:	c7 85 30 f3 ff ff 90 	movl   $0xfd8c9190,-0xcd0(%rbp)
    902f:	91 8c fd 
    9032:	c7 85 34 f3 ff ff 06 	movl   $0x6,-0xccc(%rbp)
    9039:	00 00 00 
    903c:	c7 85 38 f3 ff ff 90 	movl   $0xfd8c9190,-0xcc8(%rbp)
    9043:	91 8c fd 
    9046:	c7 85 3c f3 ff ff 06 	movl   $0x6,-0xcc4(%rbp)
    904d:	00 00 00 
    9050:	c7 85 40 f3 ff ff 90 	movl   $0xfd8c9190,-0xcc0(%rbp)
    9057:	91 8c fd 
    905a:	c7 85 44 f3 ff ff 06 	movl   $0x6,-0xcbc(%rbp)
    9061:	00 00 00 
    9064:	c7 85 48 f3 ff ff 90 	movl   $0xfd8c9190,-0xcb8(%rbp)
    906b:	91 8c fd 
    906e:	c7 85 4c f3 ff ff 06 	movl   $0x6,-0xcb4(%rbp)
    9075:	00 00 00 
    9078:	c7 85 50 f3 ff ff 90 	movl   $0xfd8c9190,-0xcb0(%rbp)
    907f:	91 8c fd 
    9082:	c7 85 54 f3 ff ff 06 	movl   $0x6,-0xcac(%rbp)
    9089:	00 00 00 
    908c:	c7 85 58 f3 ff ff 90 	movl   $0xfd8c9190,-0xca8(%rbp)
    9093:	91 8c fd 
    9096:	c7 85 5c f3 ff ff 06 	movl   $0x6,-0xca4(%rbp)
    909d:	00 00 00 
    90a0:	c7 85 60 f3 ff ff 90 	movl   $0xfd8c9190,-0xca0(%rbp)
    90a7:	91 8c fd 
    90aa:	c7 85 64 f3 ff ff 06 	movl   $0x6,-0xc9c(%rbp)
    90b1:	00 00 00 
    90b4:	c7 85 68 f3 ff ff 90 	movl   $0xfd8c9190,-0xc98(%rbp)
    90bb:	91 8c fd 
    90be:	c7 85 6c f3 ff ff 06 	movl   $0x6,-0xc94(%rbp)
    90c5:	00 00 00 
    90c8:	c7 85 70 f3 ff ff 90 	movl   $0xfd8c9190,-0xc90(%rbp)
    90cf:	91 8c fd 
    90d2:	c7 85 74 f3 ff ff 06 	movl   $0x6,-0xc8c(%rbp)
    90d9:	00 00 00 
    90dc:	c7 85 78 f3 ff ff 90 	movl   $0xfd8c9190,-0xc88(%rbp)
    90e3:	91 8c fd 
    90e6:	c7 85 7c f3 ff ff 06 	movl   $0x6,-0xc84(%rbp)
    90ed:	00 00 00 
    90f0:	c7 85 80 f3 ff ff 90 	movl   $0xfd8c9190,-0xc80(%rbp)
    90f7:	91 8c fd 
    90fa:	c7 85 84 f3 ff ff 06 	movl   $0x6,-0xc7c(%rbp)
    9101:	00 00 00 
    9104:	c7 85 88 f3 ff ff 90 	movl   $0xfd8c9190,-0xc78(%rbp)
    910b:	91 8c fd 
    910e:	c7 85 8c f3 ff ff 06 	movl   $0x6,-0xc74(%rbp)
    9115:	00 00 00 
    9118:	c7 85 90 f3 ff ff 90 	movl   $0xfd8c9190,-0xc70(%rbp)
    911f:	91 8c fd 
    9122:	c7 85 94 f3 ff ff 06 	movl   $0x6,-0xc6c(%rbp)
    9129:	00 00 00 
    912c:	c7 85 98 f3 ff ff 90 	movl   $0xfd8c9190,-0xc68(%rbp)
    9133:	91 8c fd 
    9136:	c7 85 9c f3 ff ff 06 	movl   $0x6,-0xc64(%rbp)
    913d:	00 00 00 
    9140:	48 8d 05 d9 73 01 00 	lea    0x173d9(%rip),%rax        # 20520 <g_2361>
    9147:	48 89 85 60 f0 ff ff 	mov    %rax,-0xfa0(%rbp)
    914e:	48 c7 85 68 f0 ff ff 	movq   $0x0,-0xf98(%rbp)
    9155:	00 00 00 00 
    9159:	c7 85 fc ee ff ff 00 	movl   $0x0,-0x1104(%rbp)
    9160:	00 00 00 
    9163:	eb 1e                	jmp    9183 <func_12+0x18c7>
    9165:	8b 85 fc ee ff ff    	mov    -0x1104(%rbp),%eax
    916b:	48 98                	cltq   
    916d:	48 8d 95 90 ef ff ff 	lea    -0x1070(%rbp),%rdx
    9174:	48 89 94 c5 50 f2 ff 	mov    %rdx,-0xdb0(%rbp,%rax,8)
    917b:	ff 
    917c:	83 85 fc ee ff ff 01 	addl   $0x1,-0x1104(%rbp)
    9183:	83 bd fc ee ff ff 06 	cmpl   $0x6,-0x1104(%rbp)
    918a:	7e d9                	jle    9165 <func_12+0x18a9>
    918c:	c7 85 fc ee ff ff 00 	movl   $0x0,-0x1104(%rbp)
    9193:	00 00 00 
    9196:	eb 22                	jmp    91ba <func_12+0x18fe>
    9198:	8b 85 fc ee ff ff    	mov    -0x1104(%rbp),%eax
    919e:	48 98                	cltq   
    91a0:	48 8d 95 50 f2 ff ff 	lea    -0xdb0(%rbp),%rdx
    91a7:	48 83 c2 28          	add    $0x28,%rdx
    91ab:	48 89 94 c5 60 f1 ff 	mov    %rdx,-0xea0(%rbp,%rax,8)
    91b2:	ff 
    91b3:	83 85 fc ee ff ff 01 	addl   $0x1,-0x1104(%rbp)
    91ba:	83 bd fc ee ff ff 03 	cmpl   $0x3,-0x1104(%rbp)
    91c1:	7e d5                	jle    9198 <func_12+0x18dc>
    91c3:	c7 85 fc ee ff ff 00 	movl   $0x0,-0x1104(%rbp)
    91ca:	00 00 00 
    91cd:	eb 1a                	jmp    91e9 <func_12+0x192d>
    91cf:	8b 85 fc ee ff ff    	mov    -0x1104(%rbp),%eax
    91d5:	48 98                	cltq   
    91d7:	c7 84 85 0c f1 ff ff 	movl   $0xfffffff7,-0xef4(%rbp,%rax,4)
    91de:	f7 ff ff ff 
    91e2:	83 85 fc ee ff ff 01 	addl   $0x1,-0x1104(%rbp)
    91e9:	83 bd fc ee ff ff 01 	cmpl   $0x1,-0x1104(%rbp)
    91f0:	7e dd                	jle    91cf <func_12+0x1913>
    91f2:	c7 85 fc ee ff ff 00 	movl   $0x0,-0x1104(%rbp)
    91f9:	00 00 00 
    91fc:	eb 1b                	jmp    9219 <func_12+0x195d>
    91fe:	8b 85 fc ee ff ff    	mov    -0x1104(%rbp),%eax
    9204:	48 98                	cltq   
    9206:	48 c7 84 c5 20 f1 ff 	movq   $0x5,-0xee0(%rbp,%rax,8)
    920d:	ff 05 00 00 00 
    9212:	83 85 fc ee ff ff 01 	addl   $0x1,-0x1104(%rbp)
    9219:	83 bd fc ee ff ff 02 	cmpl   $0x2,-0x1104(%rbp)
    9220:	7e dc                	jle    91fe <func_12+0x1942>
    9222:	c7 85 fc ee ff ff 00 	movl   $0x0,-0x1104(%rbp)
    9229:	00 00 00 
    922c:	eb 1a                	jmp    9248 <func_12+0x198c>
    922e:	8b 85 fc ee ff ff    	mov    -0x1104(%rbp),%eax
    9234:	48 98                	cltq   
    9236:	c7 84 85 14 f1 ff ff 	movl   $0xffffffff,-0xeec(%rbp,%rax,4)
    923d:	ff ff ff ff 
    9241:	83 85 fc ee ff ff 01 	addl   $0x1,-0x1104(%rbp)
    9248:	83 bd fc ee ff ff 02 	cmpl   $0x2,-0x1104(%rbp)
    924f:	7e dd                	jle    922e <func_12+0x1972>
    9251:	8b 05 e1 58 01 00    	mov    0x158e1(%rip),%eax        # 1eb38 <g_2477+0x8>
    9257:	01 c0                	add    %eax,%eax
    9259:	d1 f8                	sar    %eax
    925b:	0f b6 d8             	movzbl %al,%ebx
    925e:	8b 85 f8 ee ff ff    	mov    -0x1108(%rbp),%eax
    9264:	44 0f be e0          	movsbl %al,%r12d
    9268:	48 8b 05 51 72 01 00 	mov    0x17251(%rip),%rax        # 204c0 <g_2090>
    926f:	48 8b 00             	mov    (%rax),%rax
    9272:	4c 8b 28             	mov    (%rax),%r13
    9275:	48 8b 05 0c 6e 01 00 	mov    0x16e0c(%rip),%rax        # 20088 <g_798>
    927c:	0f b6 00             	movzbl (%rax),%eax
    927f:	44 0f be f0          	movsbl %al,%r14d
    9283:	be 21 00 00 00       	mov    $0x21,%esi
    9288:	bf 7c 00 00 00       	mov    $0x7c,%edi
    928d:	e8 9f cf ff ff       	callq  6231 <safe_mod_func_int8_t_s_s>
    9292:	88 85 d0 ee ff ff    	mov    %al,-0x1130(%rbp)
    9298:	44 8b bd f8 ee ff ff 	mov    -0x1108(%rbp),%r15d
    929f:	8b 85 dc ee ff ff    	mov    -0x1124(%rbp),%eax
    92a5:	98                   	cwtl   
    92a6:	89 85 d8 ee ff ff    	mov    %eax,-0x1128(%rbp)
    92ac:	8b 05 5a 49 01 00    	mov    0x1495a(%rip),%eax        # 1dc0c <g_1525+0xc>
    92b2:	c1 e0 0e             	shl    $0xe,%eax
    92b5:	c1 f8 0e             	sar    $0xe,%eax
    92b8:	0f b6 d0             	movzbl %al,%edx
    92bb:	48 8b 05 8e 6e 01 00 	mov    0x16e8e(%rip),%rax        # 20150 <g_1556>
    92c2:	48 8b 00             	mov    (%rax),%rax
    92c5:	48 8b 00             	mov    (%rax),%rax
    92c8:	48 85 c0             	test   %rax,%rax
    92cb:	0f 94 c0             	sete   %al
    92ce:	89 c1                	mov    %eax,%ecx
    92d0:	8b 85 dc ee ff ff    	mov    -0x1124(%rbp),%eax
    92d6:	21 c8                	and    %ecx,%eax
    92d8:	0f b6 c0             	movzbl %al,%eax
    92db:	89 d6                	mov    %edx,%esi
    92dd:	89 c7                	mov    %eax,%edi
    92df:	e8 94 d8 ff ff       	callq  6b78 <safe_sub_func_uint8_t_u_u>
    92e4:	0f b6 c0             	movzbl %al,%eax
    92e7:	8b 95 dc ee ff ff    	mov    -0x1124(%rbp),%edx
    92ed:	09 d0                	or     %edx,%eax
    92ef:	0f b7 d0             	movzwl %ax,%edx
    92f2:	48 8b 05 87 71 01 00 	mov    0x17187(%rip),%rax        # 20480 <g_1865>
    92f9:	48 8b 00             	mov    (%rax),%rax
    92fc:	8b 8d dc ee ff ff    	mov    -0x1124(%rbp),%ecx
    9302:	66 89 08             	mov    %cx,(%rax)
    9305:	0f b7 00             	movzwl (%rax),%eax
    9308:	0f b7 c0             	movzwl %ax,%eax
    930b:	89 d6                	mov    %edx,%esi
    930d:	89 c7                	mov    %eax,%edi
    930f:	e8 0b da ff ff       	callq  6d1f <safe_sub_func_uint16_t_u_u>
    9314:	0f b7 c0             	movzwl %ax,%eax
    9317:	39 85 f8 ee ff ff    	cmp    %eax,-0x1108(%rbp)
    931d:	7d 10                	jge    932f <func_12+0x1a73>
    931f:	83 bd dc ee ff ff 00 	cmpl   $0x0,-0x1124(%rbp)
    9326:	74 07                	je     932f <func_12+0x1a73>
    9328:	b8 01 00 00 00       	mov    $0x1,%eax
    932d:	eb 05                	jmp    9334 <func_12+0x1a78>
    932f:	b8 00 00 00 00       	mov    $0x0,%eax
    9334:	98                   	cwtl   
    9335:	8b b5 d8 ee ff ff    	mov    -0x1128(%rbp),%esi
    933b:	89 c7                	mov    %eax,%edi
    933d:	e8 91 d0 ff ff       	callq  63d3 <safe_sub_func_int16_t_s_s>
    9342:	48 8d 05 4b 57 01 00 	lea    0x1574b(%rip),%rax        # 1ea94 <g_2384>
    9349:	8b 95 dc ee ff ff    	mov    -0x1124(%rbp),%edx
    934f:	88 10                	mov    %dl,(%rax)
    9351:	0f b6 00             	movzbl (%rax),%eax
    9354:	0f be c0             	movsbl %al,%eax
    9357:	44 89 fe             	mov    %r15d,%esi
    935a:	89 c7                	mov    %eax,%edi
    935c:	e8 0b d0 ff ff       	callq  636c <safe_rshift_func_int8_t_s_u>
    9361:	38 85 d0 ee ff ff    	cmp    %al,-0x1130(%rbp)
    9367:	0f 9f c0             	setg   %al
    936a:	0f b6 c0             	movzbl %al,%eax
    936d:	44 89 f6             	mov    %r14d,%esi
    9370:	89 c7                	mov    %eax,%edi
    9372:	e8 9b ce ff ff       	callq  6212 <safe_mul_func_int8_t_s_s>
    9377:	48 8b 05 3a 71 01 00 	mov    0x1713a(%rip),%rax        # 204b8 <g_2091>
    937e:	48 8b 00             	mov    (%rax),%rax
    9381:	4c 89 ee             	mov    %r13,%rsi
    9384:	48 89 c7             	mov    %rax,%rdi
    9387:	e8 bf dc ff ff       	callq  704b <safe_sub_func_uint64_t_u_u>
    938c:	98                   	cwtl   
    938d:	be 04 00 00 00       	mov    $0x4,%esi
    9392:	89 c7                	mov    %eax,%edi
    9394:	e8 ca d1 ff ff       	callq  6563 <safe_rshift_func_int16_t_s_u>
    9399:	98                   	cwtl   
    939a:	39 85 f8 ee ff ff    	cmp    %eax,-0x1108(%rbp)
    93a0:	0f 9c c0             	setl   %al
    93a3:	0f b6 c0             	movzbl %al,%eax
    93a6:	44 89 e6             	mov    %r12d,%esi
    93a9:	89 c7                	mov    %eax,%edi
    93ab:	e8 62 ce ff ff       	callq  6212 <safe_mul_func_int8_t_s_s>
    93b0:	0f be d0             	movsbl %al,%edx
    93b3:	48 8b 85 e8 ef ff ff 	mov    -0x1018(%rbp),%rax
    93ba:	48 89 85 38 f0 ff ff 	mov    %rax,-0xfc8(%rbp)
    93c1:	48 8b 85 38 f0 ff ff 	mov    -0xfc8(%rbp),%rax
    93c8:	48 3b 85 30 f0 ff ff 	cmp    -0xfd0(%rbp),%rax
    93cf:	0f 95 c0             	setne  %al
    93d2:	0f b6 c0             	movzbl %al,%eax
    93d5:	89 d6                	mov    %edx,%esi
    93d7:	89 c7                	mov    %eax,%edi
    93d9:	e8 f2 da ff ff       	callq  6ed0 <safe_sub_func_uint32_t_u_u>
    93de:	0f b6 c0             	movzbl %al,%eax
    93e1:	89 de                	mov    %ebx,%esi
    93e3:	89 c7                	mov    %eax,%edi
    93e5:	e8 a9 d7 ff ff       	callq  6b93 <safe_mul_func_uint8_t_u_u>
    93ea:	0f b6 c0             	movzbl %al,%eax
    93ed:	89 85 f8 ee ff ff    	mov    %eax,-0x1108(%rbp)
    93f3:	8b 85 f8 ee ff ff    	mov    -0x1108(%rbp),%eax
    93f9:	be ff ff ff ff       	mov    $0xffffffff,%esi
    93fe:	89 c7                	mov    %eax,%edi
    9400:	e8 00 d2 ff ff       	callq  6605 <safe_sub_func_int32_t_s_s>
    9405:	8b 95 0c f1 ff ff    	mov    -0xef4(%rbp),%edx
    940b:	39 d0                	cmp    %edx,%eax
    940d:	7c 11                	jl     9420 <func_12+0x1b64>
    940f:	8b 05 3f 58 01 00    	mov    0x1583f(%rip),%eax        # 1ec54 <g_2754>
    9415:	85 c0                	test   %eax,%eax
    9417:	74 07                	je     9420 <func_12+0x1b64>
    9419:	b8 01 00 00 00       	mov    $0x1,%eax
    941e:	eb 05                	jmp    9425 <func_12+0x1b69>
    9420:	b8 00 00 00 00       	mov    $0x0,%eax
    9425:	85 c0                	test   %eax,%eax
    9427:	0f 84 9f 02 00 00    	je     96cc <func_12+0x1e10>
    942d:	c6 85 e2 ee ff ff 04 	movb   $0x4,-0x111e(%rbp)
    9434:	48 c7 85 80 f1 ff ff 	movq   $0x0,-0xe80(%rbp)
    943b:	00 00 00 00 
    943f:	48 c7 85 88 f1 ff ff 	movq   $0x0,-0xe78(%rbp)
    9446:	00 00 00 00 
    944a:	48 c7 85 90 f1 ff ff 	movq   $0x0,-0xe70(%rbp)
    9451:	00 00 00 00 
    9455:	48 c7 85 98 f1 ff ff 	movq   $0x0,-0xe68(%rbp)
    945c:	00 00 00 00 
    9460:	c7 85 28 ef ff ff 07 	movl   $0x7,-0x10d8(%rbp)
    9467:	00 00 00 
    946a:	48 c7 85 90 f0 ff ff 	movq   $0x0,-0xf70(%rbp)
    9471:	00 00 00 00 
    9475:	c7 85 40 f1 ff ff bd 	movl   $0xf66c64bd,-0xec0(%rbp)
    947c:	64 6c f6 
    947f:	c7 85 44 f1 ff ff bd 	movl   $0xf66c64bd,-0xebc(%rbp)
    9486:	64 6c f6 
    9489:	c7 85 48 f1 ff ff bd 	movl   $0xf66c64bd,-0xeb8(%rbp)
    9490:	64 6c f6 
    9493:	c7 85 4c f1 ff ff bd 	movl   $0xf66c64bd,-0xeb4(%rbp)
    949a:	64 6c f6 
    949d:	c7 85 50 f1 ff ff bd 	movl   $0xf66c64bd,-0xeb0(%rbp)
    94a4:	64 6c f6 
    94a7:	c7 85 54 f1 ff ff bd 	movl   $0xf66c64bd,-0xeac(%rbp)
    94ae:	64 6c f6 
    94b1:	c7 85 58 f1 ff ff bd 	movl   $0xf66c64bd,-0xea8(%rbp)
    94b8:	64 6c f6 
    94bb:	c7 85 a0 f3 ff ff ff 	movl   $0xffffffff,-0xc60(%rbp)
    94c2:	ff ff ff 
    94c5:	c7 85 a4 f3 ff ff b7 	movl   $0x821ee4b7,-0xc5c(%rbp)
    94cc:	e4 1e 82 
    94cf:	c7 85 a8 f3 ff ff ff 	movl   $0xffffffff,-0xc58(%rbp)
    94d6:	ff ff ff 
    94d9:	c7 85 ac f3 ff ff ff 	movl   $0xffffffff,-0xc54(%rbp)
    94e0:	ff ff ff 
    94e3:	c7 85 b0 f3 ff ff b7 	movl   $0x821ee4b7,-0xc50(%rbp)
    94ea:	e4 1e 82 
    94ed:	c7 85 b4 f3 ff ff ff 	movl   $0xffffffff,-0xc4c(%rbp)
    94f4:	ff ff ff 
    94f7:	c7 85 b8 f3 ff ff ff 	movl   $0xffffffff,-0xc48(%rbp)
    94fe:	ff ff ff 
    9501:	c7 85 bc f3 ff ff b7 	movl   $0x821ee4b7,-0xc44(%rbp)
    9508:	e4 1e 82 
    950b:	c7 85 c0 f3 ff ff ff 	movl   $0xffffffff,-0xc40(%rbp)
    9512:	ff ff ff 
    9515:	c7 85 c4 f3 ff ff 24 	movl   $0x4a81c624,-0xc3c(%rbp)
    951c:	c6 81 4a 
    951f:	c7 85 c8 f3 ff ff f9 	movl   $0xfffffff9,-0xc38(%rbp)
    9526:	ff ff ff 
    9529:	c7 85 cc f3 ff ff 24 	movl   $0x4a81c624,-0xc34(%rbp)
    9530:	c6 81 4a 
    9533:	c7 85 d0 f3 ff ff 24 	movl   $0x4a81c624,-0xc30(%rbp)
    953a:	c6 81 4a 
    953d:	c7 85 d4 f3 ff ff f9 	movl   $0xfffffff9,-0xc2c(%rbp)
    9544:	ff ff ff 
    9547:	c7 85 d8 f3 ff ff 24 	movl   $0x4a81c624,-0xc28(%rbp)
    954e:	c6 81 4a 
    9551:	c7 85 dc f3 ff ff 24 	movl   $0x4a81c624,-0xc24(%rbp)
    9558:	c6 81 4a 
    955b:	c7 85 e0 f3 ff ff f9 	movl   $0xfffffff9,-0xc20(%rbp)
    9562:	ff ff ff 
    9565:	c7 85 e4 f3 ff ff 24 	movl   $0x4a81c624,-0xc1c(%rbp)
    956c:	c6 81 4a 
    956f:	c7 85 e8 f3 ff ff ff 	movl   $0xffffffff,-0xc18(%rbp)
    9576:	ff ff ff 
    9579:	c7 85 ec f3 ff ff b7 	movl   $0x821ee4b7,-0xc14(%rbp)
    9580:	e4 1e 82 
    9583:	c7 85 f0 f3 ff ff ff 	movl   $0xffffffff,-0xc10(%rbp)
    958a:	ff ff ff 
    958d:	c7 85 f4 f3 ff ff ff 	movl   $0xffffffff,-0xc0c(%rbp)
    9594:	ff ff ff 
    9597:	c7 85 f8 f3 ff ff b7 	movl   $0x821ee4b7,-0xc08(%rbp)
    959e:	e4 1e 82 
    95a1:	c7 85 fc f3 ff ff ff 	movl   $0xffffffff,-0xc04(%rbp)
    95a8:	ff ff ff 
    95ab:	c7 85 00 f4 ff ff ff 	movl   $0xffffffff,-0xc00(%rbp)
    95b2:	ff ff ff 
    95b5:	c7 85 04 f4 ff ff b7 	movl   $0x821ee4b7,-0xbfc(%rbp)
    95bc:	e4 1e 82 
    95bf:	c7 85 08 f4 ff ff ff 	movl   $0xffffffff,-0xbf8(%rbp)
    95c6:	ff ff ff 
    95c9:	c7 85 0c f4 ff ff 24 	movl   $0x4a81c624,-0xbf4(%rbp)
    95d0:	c6 81 4a 
    95d3:	c7 85 10 f4 ff ff f9 	movl   $0xfffffff9,-0xbf0(%rbp)
    95da:	ff ff ff 
    95dd:	c7 85 14 f4 ff ff 24 	movl   $0x4a81c624,-0xbec(%rbp)
    95e4:	c6 81 4a 
    95e7:	c7 85 18 f4 ff ff 24 	movl   $0x4a81c624,-0xbe8(%rbp)
    95ee:	c6 81 4a 
    95f1:	c7 85 1c f4 ff ff f9 	movl   $0xfffffff9,-0xbe4(%rbp)
    95f8:	ff ff ff 
    95fb:	c7 85 20 f4 ff ff 24 	movl   $0x4a81c624,-0xbe0(%rbp)
    9602:	c6 81 4a 
    9605:	c7 85 24 f4 ff ff 24 	movl   $0x4a81c624,-0xbdc(%rbp)
    960c:	c6 81 4a 
    960f:	c7 85 28 f4 ff ff f9 	movl   $0xfffffff9,-0xbd8(%rbp)
    9616:	ff ff ff 
    9619:	c7 85 2c f4 ff ff 24 	movl   $0x4a81c624,-0xbd4(%rbp)
    9620:	c6 81 4a 
    9623:	48 8d 05 ba 7f 01 00 	lea    0x17fba(%rip),%rax        # 215e4 <g_402>
    962a:	48 89 85 98 f0 ff ff 	mov    %rax,-0xf68(%rbp)
    9631:	48 8d 05 40 54 01 00 	lea    0x15440(%rip),%rax        # 1ea78 <g_2196>
    9638:	48 89 85 b0 ef ff ff 	mov    %rax,-0x1050(%rbp)
    963f:	48 c7 85 a0 f0 ff ff 	movq   $0x0,-0xf60(%rbp)
    9646:	00 00 00 00 
    964a:	48 8d 85 b0 ef ff ff 	lea    -0x1050(%rbp),%rax
    9651:	48 89 85 a8 f0 ff ff 	mov    %rax,-0xf58(%rbp)
    9658:	48 c7 85 b0 f0 ff ff 	movq   $0x0,-0xf50(%rbp)
    965f:	00 00 00 00 
    9663:	48 8d 05 56 48 01 00 	lea    0x14856(%rip),%rax        # 1dec0 <g_1601>
    966a:	48 89 85 b8 ef ff ff 	mov    %rax,-0x1048(%rbp)
    9671:	48 8d 85 b8 ef ff ff 	lea    -0x1048(%rbp),%rax
    9678:	48 89 85 c0 ef ff ff 	mov    %rax,-0x1040(%rbp)
    967f:	48 8d 85 c0 ef ff ff 	lea    -0x1040(%rbp),%rax
    9686:	48 89 85 b8 f0 ff ff 	mov    %rax,-0xf48(%rbp)
    968d:	c7 85 2c ef ff ff ff 	movl   $0xffffffff,-0x10d4(%rbp)
    9694:	ff ff ff 
    9697:	c7 85 00 ef ff ff 00 	movl   $0x0,-0x1100(%rbp)
    969e:	00 00 00 
    96a1:	eb 1b                	jmp    96be <func_12+0x1e02>
    96a3:	8b 85 00 ef ff ff    	mov    -0x1100(%rbp),%eax
    96a9:	48 98                	cltq   
    96ab:	48 c7 84 c5 00 f1 ff 	movq   $0x0,-0xf00(%rbp,%rax,8)
    96b2:	ff 00 00 00 00 
    96b7:	83 85 00 ef ff ff 01 	addl   $0x1,-0x1100(%rbp)
    96be:	83 bd 00 ef ff ff 00 	cmpl   $0x0,-0x1100(%rbp)
    96c5:	7e dc                	jle    96a3 <func_12+0x1de7>
    96c7:	e9 3b 05 00 00       	jmpq   9c07 <func_12+0x234b>
    96cc:	48 8d 85 e4 ee ff ff 	lea    -0x111c(%rbp),%rax
    96d3:	48 89 85 70 f0 ff ff 	mov    %rax,-0xf90(%rbp)
    96da:	c7 85 18 ef ff ff 89 	movl   $0x7f5b3189,-0x10e8(%rbp)
    96e1:	31 5b 7f 
    96e4:	c7 85 1c ef ff ff ff 	movl   $0xffffffff,-0x10e4(%rbp)
    96eb:	ff ff ff 
    96ee:	48 c7 85 78 f0 ff ff 	movq   $0x0,-0xf88(%rbp)
    96f5:	00 00 00 00 
    96f9:	c7 85 f8 ee ff ff 05 	movl   $0x5,-0x1108(%rbp)
    9700:	00 00 00 
    9703:	e9 62 04 00 00       	jmpq   9b6a <func_12+0x22ae>
    9708:	48 8d 05 91 7f 01 00 	lea    0x17f91(%rip),%rax        # 216a0 <g_2025>
    970f:	48 89 85 80 f0 ff ff 	mov    %rax,-0xf80(%rbp)
    9716:	c7 85 20 ef ff ff 8c 	movl   $0xe78dd78c,-0x10e0(%rbp)
    971d:	d7 8d e7 
    9720:	c6 85 e1 ee ff ff 54 	movb   $0x54,-0x111f(%rbp)
    9727:	48 8b 05 f2 6d 01 00 	mov    0x16df2(%rip),%rax        # 20520 <g_2361>
    972e:	48 8b 00             	mov    (%rax),%rax
    9731:	48 8b 00             	mov    (%rax),%rax
    9734:	44 8b 20             	mov    (%rax),%r12d
    9737:	8b 85 dc ee ff ff    	mov    -0x1124(%rbp),%eax
    973d:	f7 d0                	not    %eax
    973f:	41 89 c6             	mov    %eax,%r14d
    9742:	48 8b 85 80 f0 ff ff 	mov    -0xf80(%rbp),%rax
    9749:	48 3b 85 00 f0 ff ff 	cmp    -0x1000(%rbp),%rax
    9750:	0f 95 c0             	setne  %al
    9753:	44 0f b6 e8          	movzbl %al,%r13d
    9757:	8b 05 bf 42 01 00    	mov    0x142bf(%rip),%eax        # 1da1c <g_510+0xc>
    975d:	c1 e0 0e             	shl    $0xe,%eax
    9760:	c1 f8 0e             	sar    $0xe,%eax
    9763:	0f b6 d8             	movzbl %al,%ebx
    9766:	48 8b 05 13 7a 01 00 	mov    0x17a13(%rip),%rax        # 21180 <g_3066>
    976d:	48 8b 00             	mov    (%rax),%rax
    9770:	48 89 c7             	mov    %rax,%rdi
    9773:	e8 7d a8 00 00       	callq  13ff5 <func_59>
    9778:	48 89 85 70 f0 ff ff 	mov    %rax,-0xf90(%rbp)
    977f:	48 8b 05 9a 6d 01 00 	mov    0x16d9a(%rip),%rax        # 20520 <g_2361>
    9786:	48 8b 00             	mov    (%rax),%rax
    9789:	48 8b 00             	mov    (%rax),%rax
    978c:	48 39 85 70 f0 ff ff 	cmp    %rax,-0xf90(%rbp)
    9793:	0f 95 c0             	setne  %al
    9796:	0f b6 d0             	movzbl %al,%edx
    9799:	48 8b 05 20 6d 01 00 	mov    0x16d20(%rip),%rax        # 204c0 <g_2090>
    97a0:	48 8b 00             	mov    (%rax),%rax
    97a3:	48 8b 00             	mov    (%rax),%rax
    97a6:	48 89 d6             	mov    %rdx,%rsi
    97a9:	48 89 c7             	mov    %rax,%rdi
    97ac:	e8 9a d8 ff ff       	callq  704b <safe_sub_func_uint64_t_u_u>
    97b1:	8b 85 20 ef ff ff    	mov    -0x10e0(%rbp),%eax
    97b7:	0f b7 c0             	movzwl %ax,%eax
    97ba:	be 0e 00 00 00       	mov    $0xe,%esi
    97bf:	89 c7                	mov    %eax,%edi
    97c1:	e8 b4 d6 ff ff       	callq  6e7a <safe_rshift_func_uint16_t_u_u>
    97c6:	66 85 c0             	test   %ax,%ax
    97c9:	74 14                	je     97df <func_12+0x1f23>
    97cb:	48 8b 85 d0 ef ff ff 	mov    -0x1030(%rbp),%rax
    97d2:	8b 00                	mov    (%rax),%eax
    97d4:	85 c0                	test   %eax,%eax
    97d6:	74 07                	je     97df <func_12+0x1f23>
    97d8:	b8 01 00 00 00       	mov    $0x1,%eax
    97dd:	eb 05                	jmp    97e4 <func_12+0x1f28>
    97df:	b8 00 00 00 00       	mov    $0x0,%eax
    97e4:	0f b6 c0             	movzbl %al,%eax
    97e7:	89 de                	mov    %ebx,%esi
    97e9:	89 c7                	mov    %eax,%edi
    97eb:	e8 88 d3 ff ff       	callq  6b78 <safe_sub_func_uint8_t_u_u>
    97f0:	0f b6 c0             	movzbl %al,%eax
    97f3:	be 20 00 00 00       	mov    $0x20,%esi
    97f8:	89 c7                	mov    %eax,%edi
    97fa:	e8 94 d3 ff ff       	callq  6b93 <safe_mul_func_uint8_t_u_u>
    97ff:	0f b6 d0             	movzbl %al,%edx
    9802:	8b 85 74 f3 ff ff    	mov    -0xc8c(%rbp),%eax
    9808:	39 c2                	cmp    %eax,%edx
    980a:	0f 96 c0             	setbe  %al
    980d:	0f b6 c0             	movzbl %al,%eax
    9810:	39 85 18 ef ff ff    	cmp    %eax,-0x10e8(%rbp)
    9816:	0f 9e c0             	setle  %al
    9819:	0f b6 c0             	movzbl %al,%eax
    981c:	23 85 dc ee ff ff    	and    -0x1124(%rbp),%eax
    9822:	0d 7b c3 92 07       	or     $0x792c37b,%eax
    9827:	89 c0                	mov    %eax,%eax
    9829:	49 39 c5             	cmp    %rax,%r13
    982c:	0f 9f c0             	setg   %al
    982f:	0f b6 d0             	movzbl %al,%edx
    9832:	48 8b 05 c7 38 01 00 	mov    0x138c7(%rip),%rax        # 1d100 <g_79+0x80>
    9839:	48 39 c2             	cmp    %rax,%rdx
    983c:	0f 9f c0             	setg   %al
    983f:	0f b6 d0             	movzbl %al,%edx
    9842:	8b 85 dc ee ff ff    	mov    -0x1124(%rbp),%eax
    9848:	48 09 d0             	or     %rdx,%rax
    984b:	49 39 c6             	cmp    %rax,%r14
    984e:	0f 95 c0             	setne  %al
    9851:	0f b6 c0             	movzbl %al,%eax
    9854:	be f6 ff ff ff       	mov    $0xfffffff6,%esi
    9859:	89 c7                	mov    %eax,%edi
    985b:	e8 9d d6 ff ff       	callq  6efd <safe_mod_func_uint32_t_u_u>
    9860:	be ff ff ff ff       	mov    $0xffffffff,%esi
    9865:	bf fa ff ff ff       	mov    $0xfffffffa,%edi
    986a:	e8 a7 cb ff ff       	callq  6416 <safe_mod_func_int16_t_s_s>
    986f:	98                   	cwtl   
    9870:	41 39 c4             	cmp    %eax,%r12d
    9873:	0f 96 c0             	setbe  %al
    9876:	0f b6 c0             	movzbl %al,%eax
    9879:	48 89 05 a8 48 01 00 	mov    %rax,0x148a8(%rip)        # 1e128 <g_1758+0x88>
    9880:	ba a2 3b 9e cd       	mov    $0xcd9e3ba2,%edx
    9885:	48 8b 85 40 f0 ff ff 	mov    -0xfc0(%rbp),%rax
    988c:	8b 00                	mov    (%rax),%eax
    988e:	21 c2                	and    %eax,%edx
    9890:	48 8b 85 40 f0 ff ff 	mov    -0xfc0(%rbp),%rax
    9897:	89 10                	mov    %edx,(%rax)
    9899:	c7 05 1d 46 01 00 00 	movl   $0x0,0x1461d(%rip)        # 1dec0 <g_1601>
    98a0:	00 00 00 
    98a3:	e9 ac 02 00 00       	jmpq   9b54 <func_12+0x2298>
    98a8:	48 c7 85 88 f0 ff ff 	movq   $0x0,-0xf78(%rbp)
    98af:	00 00 00 00 
    98b3:	c7 85 24 ef ff ff 48 	movl   $0xb03c3d48,-0x10dc(%rbp)
    98ba:	3d 3c b0 
    98bd:	66 c7 05 b2 3c 01 00 	movw   $0x5,0x13cb2(%rip)        # 1d578 <g_201>
    98c4:	05 00 
    98c6:	e9 cd 00 00 00       	jmpq   9998 <func_12+0x20dc>
    98cb:	0f b7 05 a6 3c 01 00 	movzwl 0x13ca6(%rip),%eax        # 1d578 <g_201>
    98d2:	98                   	cwtl   
    98d3:	8d 48 01             	lea    0x1(%rax),%ecx
    98d6:	0f b7 05 9b 3c 01 00 	movzwl 0x13c9b(%rip),%eax        # 1d578 <g_201>
    98dd:	98                   	cwtl   
    98de:	48 63 f0             	movslq %eax,%rsi
    98e1:	8b 85 f8 ee ff ff    	mov    -0x1108(%rbp),%eax
    98e7:	48 63 d0             	movslq %eax,%rdx
    98ea:	48 63 c9             	movslq %ecx,%rcx
    98ed:	48 89 d0             	mov    %rdx,%rax
    98f0:	48 c1 e0 02          	shl    $0x2,%rax
    98f4:	48 01 d0             	add    %rdx,%rax
    98f7:	48 c1 e0 02          	shl    $0x2,%rax
    98fb:	48 01 d0             	add    %rdx,%rax
    98fe:	48 01 c0             	add    %rax,%rax
    9901:	48 89 ca             	mov    %rcx,%rdx
    9904:	48 01 d2             	add    %rdx,%rdx
    9907:	48 01 ca             	add    %rcx,%rdx
    990a:	48 01 d2             	add    %rdx,%rdx
    990d:	48 01 d0             	add    %rdx,%rax
    9910:	48 01 f0             	add    %rsi,%rax
    9913:	48 8d 14 85 00 00 00 	lea    0x0(,%rax,4),%rdx
    991a:	00 
    991b:	48 8d 05 5e 3c 01 00 	lea    0x13c5e(%rip),%rax        # 1d580 <g_212>
    9922:	8b 14 02             	mov    (%rdx,%rax,1),%edx
    9925:	0f b7 05 4c 3c 01 00 	movzwl 0x13c4c(%rip),%eax        # 1d578 <g_201>
    992c:	98                   	cwtl   
    992d:	8d 48 01             	lea    0x1(%rax),%ecx
    9930:	0f b7 05 41 3c 01 00 	movzwl 0x13c41(%rip),%eax        # 1d578 <g_201>
    9937:	98                   	cwtl   
    9938:	89 d6                	mov    %edx,%esi
    993a:	81 e6 19 dc f5 be    	and    $0xbef5dc19,%esi
    9940:	48 63 f8             	movslq %eax,%rdi
    9943:	8b 85 f8 ee ff ff    	mov    -0x1108(%rbp),%eax
    9949:	48 63 d0             	movslq %eax,%rdx
    994c:	48 63 c9             	movslq %ecx,%rcx
    994f:	48 89 d0             	mov    %rdx,%rax
    9952:	48 c1 e0 02          	shl    $0x2,%rax
    9956:	48 01 d0             	add    %rdx,%rax
    9959:	48 c1 e0 02          	shl    $0x2,%rax
    995d:	48 01 d0             	add    %rdx,%rax
    9960:	48 01 c0             	add    %rax,%rax
    9963:	48 89 ca             	mov    %rcx,%rdx
    9966:	48 01 d2             	add    %rdx,%rdx
    9969:	48 01 ca             	add    %rcx,%rdx
    996c:	48 01 d2             	add    %rdx,%rdx
    996f:	48 01 d0             	add    %rdx,%rax
    9972:	48 01 f8             	add    %rdi,%rax
    9975:	48 8d 14 85 00 00 00 	lea    0x0(,%rax,4),%rdx
    997c:	00 
    997d:	48 8d 05 fc 3b 01 00 	lea    0x13bfc(%rip),%rax        # 1d580 <g_212>
    9984:	89 34 02             	mov    %esi,(%rdx,%rax,1)
    9987:	0f b7 05 ea 3b 01 00 	movzwl 0x13bea(%rip),%eax        # 1d578 <g_201>
    998e:	83 e8 01             	sub    $0x1,%eax
    9991:	66 89 05 e0 3b 01 00 	mov    %ax,0x13be0(%rip)        # 1d578 <g_201>
    9998:	0f b7 05 d9 3b 01 00 	movzwl 0x13bd9(%rip),%eax        # 1d578 <g_201>
    999f:	66 85 c0             	test   %ax,%ax
    99a2:	0f 89 23 ff ff ff    	jns    98cb <func_12+0x200f>
    99a8:	c7 85 ec ee ff ff 00 	movl   $0x0,-0x1114(%rbp)
    99af:	00 00 00 
    99b2:	eb 16                	jmp    99ca <func_12+0x210e>
    99b4:	80 85 e1 ee ff ff 01 	addb   $0x1,-0x111f(%rbp)
    99bb:	8b 85 ec ee ff ff    	mov    -0x1114(%rbp),%eax
    99c1:	83 c0 01             	add    $0x1,%eax
    99c4:	89 85 ec ee ff ff    	mov    %eax,-0x1114(%rbp)
    99ca:	8b 85 ec ee ff ff    	mov    -0x1114(%rbp),%eax
    99d0:	83 f8 05             	cmp    $0x5,%eax
    99d3:	7e df                	jle    99b4 <func_12+0x20f8>
    99d5:	8b 85 dc ee ff ff    	mov    -0x1124(%rbp),%eax
    99db:	0f b7 d8             	movzwl %ax,%ebx
    99de:	48 8b 05 ab 66 01 00 	mov    0x166ab(%rip),%rax        # 20090 <g_797>
    99e5:	48 8b 00             	mov    (%rax),%rax
    99e8:	0f b6 00             	movzbl (%rax),%eax
    99eb:	44 0f be e8          	movsbl %al,%r13d
    99ef:	8b 85 dc ee ff ff    	mov    -0x1124(%rbp),%eax
    99f5:	44 0f b7 e0          	movzwl %ax,%r12d
    99f9:	83 bd 18 ef ff ff 00 	cmpl   $0x0,-0x10e8(%rbp)
    9a00:	74 72                	je     9a74 <func_12+0x21b8>
    9a02:	83 bd dc ee ff ff 00 	cmpl   $0x0,-0x1124(%rbp)
    9a09:	74 30                	je     9a3b <func_12+0x217f>
    9a0b:	8b 85 dc ee ff ff    	mov    -0x1124(%rbp),%eax
    9a11:	89 c6                	mov    %eax,%esi
    9a13:	bf 01 00 00 00       	mov    $0x1,%edi
    9a18:	e8 99 cb ff ff       	callq  65b6 <safe_add_func_int32_t_s_s>
    9a1d:	48 8b 15 0c 6b 01 00 	mov    0x16b0c(%rip),%rdx        # 20530 <g_2381>
    9a24:	48 8b 12             	mov    (%rdx),%rdx
    9a27:	48 8b 12             	mov    (%rdx),%rdx
    9a2a:	0f b6 12             	movzbl (%rdx),%edx
    9a2d:	0f be d2             	movsbl %dl,%edx
    9a30:	39 d0                	cmp    %edx,%eax
    9a32:	74 07                	je     9a3b <func_12+0x217f>
    9a34:	b8 01 00 00 00       	mov    $0x1,%eax
    9a39:	eb 05                	jmp    9a40 <func_12+0x2184>
    9a3b:	b8 00 00 00 00       	mov    $0x0,%eax
    9a40:	0f b7 c0             	movzwl %ax,%eax
    9a43:	be 09 00 00 00       	mov    $0x9,%esi
    9a48:	89 c7                	mov    %eax,%edi
    9a4a:	e8 2b d4 ff ff       	callq  6e7a <safe_rshift_func_uint16_t_u_u>
    9a4f:	0f b7 c0             	movzwl %ax,%eax
    9a52:	48 be b5 4f f9 6b 42 	movabs $0xb5b1e7426bf94fb5,%rsi
    9a59:	e7 b1 b5 
    9a5c:	48 89 c7             	mov    %rax,%rdi
    9a5f:	e8 44 ce ff ff       	callq  68a8 <safe_sub_func_int64_t_s_s>
    9a64:	83 bd dc ee ff ff 00 	cmpl   $0x0,-0x1124(%rbp)
    9a6b:	74 07                	je     9a74 <func_12+0x21b8>
    9a6d:	b8 01 00 00 00       	mov    $0x1,%eax
    9a72:	eb 05                	jmp    9a79 <func_12+0x21bd>
    9a74:	b8 00 00 00 00       	mov    $0x0,%eax
    9a79:	0f b7 c0             	movzwl %ax,%eax
    9a7c:	44 89 e6             	mov    %r12d,%esi
    9a7f:	89 c7                	mov    %eax,%edi
    9a81:	e8 d6 d2 ff ff       	callq  6d5c <safe_mod_func_uint16_t_u_u>
    9a86:	0f b7 c0             	movzwl %ax,%eax
    9a89:	41 39 c5             	cmp    %eax,%r13d
    9a8c:	b8 2f de ce 79       	mov    $0x79cede2f,%eax
    9a91:	21 85 24 ef ff ff    	and    %eax,-0x10dc(%rbp)
    9a97:	48 8b 85 60 f0 ff ff 	mov    -0xfa0(%rbp),%rax
    9a9e:	48 3b 85 88 f0 ff ff 	cmp    -0xf78(%rbp),%rax
    9aa5:	0f 95 c0             	setne  %al
    9aa8:	0f b6 c0             	movzbl %al,%eax
    9aab:	89 de                	mov    %ebx,%esi
    9aad:	89 c7                	mov    %eax,%edi
    9aaf:	e8 6b d2 ff ff       	callq  6d1f <safe_sub_func_uint16_t_u_u>
    9ab4:	0f b7 c0             	movzwl %ax,%eax
    9ab7:	39 85 dc ee ff ff    	cmp    %eax,-0x1124(%rbp)
    9abd:	0f 97 c0             	seta   %al
    9ac0:	0f b6 c0             	movzbl %al,%eax
    9ac3:	be b4 92 00 00       	mov    $0x92b4,%esi
    9ac8:	89 c7                	mov    %eax,%edi
    9aca:	e8 8d d2 ff ff       	callq  6d5c <safe_mod_func_uint16_t_u_u>
    9acf:	83 bd dc ee ff ff 00 	cmpl   $0x0,-0x1124(%rbp)
    9ad6:	74 07                	je     9adf <func_12+0x2223>
    9ad8:	83 bd dc ee ff ff 00 	cmpl   $0x0,-0x1124(%rbp)
    9adf:	b8 01 00 00 00       	mov    $0x1,%eax
    9ae4:	89 c2                	mov    %eax,%edx
    9ae6:	0f b7 05 89 3a 01 00 	movzwl 0x13a89(%rip),%eax        # 1d576 <g_196>
    9aed:	21 d0                	and    %edx,%eax
    9aef:	66 89 05 80 3a 01 00 	mov    %ax,0x13a80(%rip)        # 1d576 <g_196>
    9af6:	ba fe ff ff ff       	mov    $0xfffffffe,%edx
    9afb:	48 8b 85 40 f0 ff ff 	mov    -0xfc0(%rbp),%rax
    9b02:	8b 00                	mov    (%rax),%eax
    9b04:	21 c2                	and    %eax,%edx
    9b06:	48 8b 85 40 f0 ff ff 	mov    -0xfc0(%rbp),%rax
    9b0d:	89 10                	mov    %edx,(%rax)
    9b0f:	c6 05 02 41 01 00 00 	movb   $0x0,0x14102(%rip)        # 1dc18 <g_1546>
    9b16:	90                   	nop
    9b17:	0f b6 05 fa 40 01 00 	movzbl 0x140fa(%rip),%eax        # 1dc18 <g_1546>
    9b1e:	3c 02                	cmp    $0x2,%al
    9b20:	7f 23                	jg     9b45 <func_12+0x2289>
    9b22:	0f b6 05 ef 40 01 00 	movzbl 0x140ef(%rip),%eax        # 1dc18 <g_1546>
    9b29:	0f be c0             	movsbl %al,%eax
    9b2c:	48 98                	cltq   
    9b2e:	48 8d 14 85 00 00 00 	lea    0x0(,%rax,4),%rdx
    9b35:	00 
    9b36:	48 8d 05 8b 46 01 00 	lea    0x1468b(%rip),%rax        # 1e1c8 <g_1832>
    9b3d:	8b 04 02             	mov    (%rdx,%rax,1),%eax
    9b40:	e9 bb 02 00 00       	jmpq   9e00 <func_12+0x2544>
    9b45:	8b 05 75 43 01 00    	mov    0x14375(%rip),%eax        # 1dec0 <g_1601>
    9b4b:	83 c0 01             	add    $0x1,%eax
    9b4e:	89 05 6c 43 01 00    	mov    %eax,0x1436c(%rip)        # 1dec0 <g_1601>
    9b54:	8b 05 66 43 01 00    	mov    0x14366(%rip),%eax        # 1dec0 <g_1601>
    9b5a:	83 f8 05             	cmp    $0x5,%eax
    9b5d:	0f 86 45 fd ff ff    	jbe    98a8 <func_12+0x1fec>
    9b63:	83 ad f8 ee ff ff 01 	subl   $0x1,-0x1108(%rbp)
    9b6a:	83 bd f8 ee ff ff 00 	cmpl   $0x0,-0x1108(%rbp)
    9b71:	0f 89 91 fb ff ff    	jns    9708 <func_12+0x1e4c>
    9b77:	48 8d 85 0c f1 ff ff 	lea    -0xef4(%rbp),%rax
    9b7e:	48 89 85 78 f0 ff ff 	mov    %rax,-0xf88(%rbp)
    9b85:	48 c7 05 d8 39 01 00 	movq   $0x0,0x139d8(%rip)        # 1d568 <g_151>
    9b8c:	00 00 00 00 
    9b90:	eb 68                	jmp    9bfa <func_12+0x233e>
    9b92:	48 c7 05 93 43 01 00 	movq   $0x0,0x14393(%rip)        # 1df30 <g_1748>
    9b99:	00 00 00 00 
    9b9d:	eb 3d                	jmp    9bdc <func_12+0x2320>
    9b9f:	48 8b 15 c2 39 01 00 	mov    0x139c2(%rip),%rdx        # 1d568 <g_151>
    9ba6:	48 8b 05 83 43 01 00 	mov    0x14383(%rip),%rax        # 1df30 <g_1748>
    9bad:	48 01 d0             	add    %rdx,%rax
    9bb0:	48 8d 14 c5 00 00 00 	lea    0x0(,%rax,8),%rdx
    9bb7:	00 
    9bb8:	48 8d 05 41 69 01 00 	lea    0x16941(%rip),%rax        # 20500 <g_2363>
    9bbf:	48 8d 0d fa 42 01 00 	lea    0x142fa(%rip),%rcx        # 1dec0 <g_1601>
    9bc6:	48 89 0c 02          	mov    %rcx,(%rdx,%rax,1)
    9bca:	48 8b 05 5f 43 01 00 	mov    0x1435f(%rip),%rax        # 1df30 <g_1748>
    9bd1:	48 83 c0 01          	add    $0x1,%rax
    9bd5:	48 89 05 54 43 01 00 	mov    %rax,0x14354(%rip)        # 1df30 <g_1748>
    9bdc:	48 8b 05 4d 43 01 00 	mov    0x1434d(%rip),%rax        # 1df30 <g_1748>
    9be3:	48 85 c0             	test   %rax,%rax
    9be6:	74 b7                	je     9b9f <func_12+0x22e3>
    9be8:	48 8b 05 79 39 01 00 	mov    0x13979(%rip),%rax        # 1d568 <g_151>
    9bef:	48 83 c0 01          	add    $0x1,%rax
    9bf3:	48 89 05 6e 39 01 00 	mov    %rax,0x1396e(%rip)        # 1d568 <g_151>
    9bfa:	48 8b 05 67 39 01 00 	mov    0x13967(%rip),%rax        # 1d568 <g_151>
    9c01:	48 83 f8 02          	cmp    $0x2,%rax
    9c05:	76 8b                	jbe    9b92 <func_12+0x22d6>
    9c07:	44 8b b5 dc ee ff ff 	mov    -0x1124(%rbp),%r14d
    9c0e:	48 8b 85 10 f0 ff ff 	mov    -0xff0(%rbp),%rax
    9c15:	41 89 c7             	mov    %eax,%r15d
    9c18:	8b 9d dc ee ff ff    	mov    -0x1124(%rbp),%ebx
    9c1e:	48 8b 05 9b 68 01 00 	mov    0x1689b(%rip),%rax        # 204c0 <g_2090>
    9c25:	48 8b 00             	mov    (%rax),%rax
    9c28:	4c 8b 20             	mov    (%rax),%r12
    9c2b:	48 8b 05 06 3f 01 00 	mov    0x13f06(%rip),%rax        # 1db38 <g_870+0x98>
    9c32:	44 0f b6 e8          	movzbl %al,%r13d
    9c36:	8b 85 dc ee ff ff    	mov    -0x1124(%rbp),%eax
    9c3c:	89 c6                	mov    %eax,%esi
    9c3e:	bf ff ff ff ff       	mov    $0xffffffff,%edi
    9c43:	e8 ed c6 ff ff       	callq  6335 <safe_rshift_func_int8_t_s_s>
    9c48:	44 89 ee             	mov    %r13d,%esi
    9c4b:	bf 01 00 00 00       	mov    $0x1,%edi
    9c50:	e8 05 cf ff ff       	callq  6b5a <safe_add_func_uint8_t_u_u>
    9c55:	0f b6 c0             	movzbl %al,%eax
    9c58:	39 85 dc ee ff ff    	cmp    %eax,-0x1124(%rbp)
    9c5e:	0f 94 c0             	sete   %al
    9c61:	0f b6 c0             	movzbl %al,%eax
    9c64:	4c 89 e6             	mov    %r12,%rsi
    9c67:	48 89 c7             	mov    %rax,%rdi
    9c6a:	e8 dc d3 ff ff       	callq  704b <safe_sub_func_uint64_t_u_u>
    9c6f:	0f be c0             	movsbl %al,%eax
    9c72:	89 de                	mov    %ebx,%esi
    9c74:	89 c7                	mov    %eax,%edi
    9c76:	e8 26 c6 ff ff       	callq  62a1 <safe_lshift_func_int8_t_s_s>
    9c7b:	48 0f be c0          	movsbq %al,%rax
    9c7f:	be 01 00 00 00       	mov    $0x1,%esi
    9c84:	48 89 c7             	mov    %rax,%rdi
    9c87:	e8 bf d3 ff ff       	callq  704b <safe_sub_func_uint64_t_u_u>
    9c8c:	48 85 c0             	test   %rax,%rax
    9c8f:	74 10                	je     9ca1 <func_12+0x23e5>
    9c91:	83 bd dc ee ff ff 00 	cmpl   $0x0,-0x1124(%rbp)
    9c98:	74 07                	je     9ca1 <func_12+0x23e5>
    9c9a:	b8 01 00 00 00       	mov    $0x1,%eax
    9c9f:	eb 05                	jmp    9ca6 <func_12+0x23ea>
    9ca1:	b8 00 00 00 00       	mov    $0x0,%eax
    9ca6:	48 98                	cltq   
    9ca8:	48 89 c6             	mov    %rax,%rsi
    9cab:	bf 00 00 00 00       	mov    $0x0,%edi
    9cb0:	e8 cb d3 ff ff       	callq  7080 <safe_mod_func_uint64_t_u_u>
    9cb5:	8b 95 dc ee ff ff    	mov    -0x1124(%rbp),%edx
    9cbb:	48 39 d0             	cmp    %rdx,%rax
    9cbe:	0f 94 c0             	sete   %al
    9cc1:	0f b6 c0             	movzbl %al,%eax
    9cc4:	44 89 fe             	mov    %r15d,%esi
    9cc7:	89 c7                	mov    %eax,%edi
    9cc9:	e8 f0 d0 ff ff       	callq  6dbe <safe_lshift_func_uint16_t_u_s>
    9cce:	8b 85 dc ee ff ff    	mov    -0x1124(%rbp),%eax
    9cd4:	0f bf d8             	movswl %ax,%ebx
    9cd7:	48 8b 95 60 ef ff ff 	mov    -0x10a0(%rbp),%rdx
    9cde:	48 8b 02             	mov    (%rdx),%rax
    9ce1:	48 8d 48 ff          	lea    -0x1(%rax),%rcx
    9ce5:	48 89 0a             	mov    %rcx,(%rdx)
    9ce8:	48 89 05 89 42 01 00 	mov    %rax,0x14289(%rip)        # 1df78 <g_1750+0x18>
    9cef:	48 8b 05 82 42 01 00 	mov    0x14282(%rip),%rax        # 1df78 <g_1750+0x18>
    9cf6:	48 89 c6             	mov    %rax,%rsi
    9cf9:	48 8b 05 c0 63 01 00 	mov    0x163c0(%rip),%rax        # 200c0 <g_1266>
    9d00:	48 8b 00             	mov    (%rax),%rax
    9d03:	8b 10                	mov    (%rax),%edx
    9d05:	8d 4a ff             	lea    -0x1(%rdx),%ecx
    9d08:	89 08                	mov    %ecx,(%rax)
    9d0a:	48 8b 85 40 f0 ff ff 	mov    -0xfc0(%rbp),%rax
    9d11:	89 10                	mov    %edx,(%rax)
    9d13:	48 8b 85 d0 ef ff ff 	mov    -0x1030(%rbp),%rax
    9d1a:	c7 00 07 00 00 00    	movl   $0x7,(%rax)
    9d20:	48 8b 85 d0 ef ff ff 	mov    -0x1030(%rbp),%rax
    9d27:	8b 00                	mov    (%rax),%eax
    9d29:	48 98                	cltq   
    9d2b:	48 89 c7             	mov    %rax,%rdi
    9d2e:	e8 0e cb ff ff       	callq  6841 <safe_add_func_int64_t_s_s>
    9d33:	98                   	cwtl   
    9d34:	89 de                	mov    %ebx,%esi
    9d36:	89 c7                	mov    %eax,%edi
    9d38:	e8 b8 c6 ff ff       	callq  63f5 <safe_mul_func_int16_t_s_s>
    9d3d:	48 0f bf c0          	movswq %ax,%rax
    9d41:	be 01 00 00 00       	mov    $0x1,%esi
    9d46:	48 89 c7             	mov    %rax,%rdi
    9d49:	e8 fd d2 ff ff       	callq  704b <safe_sub_func_uint64_t_u_u>
    9d4e:	48 89 c2             	mov    %rax,%rdx
    9d51:	48 8b 85 60 f0 ff ff 	mov    -0xfa0(%rbp),%rax
    9d58:	48 8b 00             	mov    (%rax),%rax
    9d5b:	48 8b 00             	mov    (%rax),%rax
    9d5e:	48 8b 00             	mov    (%rax),%rax
    9d61:	89 10                	mov    %edx,(%rax)
    9d63:	8b 10                	mov    (%rax),%edx
    9d65:	48 83 bd 18 f0 ff ff 	cmpq   $0x0,-0xfe8(%rbp)
    9d6c:	00 
    9d6d:	0f 94 c0             	sete   %al
    9d70:	0f b6 c0             	movzbl %al,%eax
    9d73:	39 c2                	cmp    %eax,%edx
    9d75:	0f 95 c0             	setne  %al
    9d78:	0f b6 c0             	movzbl %al,%eax
    9d7b:	39 85 dc ee ff ff    	cmp    %eax,-0x1124(%rbp)
    9d81:	0f 97 c0             	seta   %al
    9d84:	0f b6 c0             	movzbl %al,%eax
    9d87:	be 00 00 00 00       	mov    $0x0,%esi
    9d8c:	89 c7                	mov    %eax,%edi
    9d8e:	e8 72 ce ff ff       	callq  6c05 <safe_lshift_func_uint8_t_u_s>
    9d93:	0f b6 d0             	movzbl %al,%edx
    9d96:	48 8b 05 ab 63 01 00 	mov    0x163ab(%rip),%rax        # 20148 <g_1557>
    9d9d:	48 8b 00             	mov    (%rax),%rax
    9da0:	48 8b 00             	mov    (%rax),%rax
    9da3:	48 21 d0             	and    %rdx,%rax
    9da6:	49 39 c6             	cmp    %rax,%r14
    9da9:	0f 9e c2             	setle  %dl
    9dac:	48 8b 05 25 62 01 00 	mov    0x16225(%rip),%rax        # 1ffd8 <g_110>
    9db3:	48 8b 00             	mov    (%rax),%rax
    9db6:	48 8b 00             	mov    (%rax),%rax
    9db9:	48 8b 00             	mov    (%rax),%rax
    9dbc:	0f b6 d2             	movzbl %dl,%edx
    9dbf:	89 10                	mov    %edx,(%rax)
    9dc1:	48 8d 85 0c f1 ff ff 	lea    -0xef4(%rbp),%rax
    9dc8:	48 83 c0 04          	add    $0x4,%rax
    9dcc:	48 89 85 20 f0 ff ff 	mov    %rax,-0xfe0(%rbp)
    9dd3:	8b 85 14 ef ff ff    	mov    -0x10ec(%rbp),%eax
    9dd9:	48 98                	cltq   
    9ddb:	48 89 85 68 f0 ff ff 	mov    %rax,-0xf98(%rbp)
    9de2:	48 8b 05 97 73 01 00 	mov    0x17397(%rip),%rax        # 21180 <g_3066>
    9de9:	48 8b 95 28 f0 ff ff 	mov    -0xfd8(%rbp),%rdx
    9df0:	48 89 10             	mov    %rdx,(%rax)
    9df3:	48 8b 05 2e 67 01 00 	mov    0x1672e(%rip),%rax        # 20528 <g_2382>
    9dfa:	48 8b 00             	mov    (%rax),%rax
    9dfd:	0f b6 00             	movzbl (%rax),%eax
    9e00:	48 8b 5d c8          	mov    -0x38(%rbp),%rbx
    9e04:	64 48 33 1c 25 28 00 	xor    %fs:0x28,%rbx
    9e0b:	00 00 
    9e0d:	74 05                	je     9e14 <func_12+0x2558>
    9e0f:	e8 5c c2 ff ff       	callq  6070 <__stack_chk_fail@plt>
    9e14:	48 81 c4 18 11 00 00 	add    $0x1118,%rsp
    9e1b:	5b                   	pop    %rbx
    9e1c:	41 5c                	pop    %r12
    9e1e:	41 5d                	pop    %r13
    9e20:	41 5e                	pop    %r14
    9e22:	41 5f                	pop    %r15
    9e24:	5d                   	pop    %rbp
    9e25:	c3                   	retq   

0000000000009e26 <func_18>:
    9e26:	f3 0f 1e fa          	endbr64 
    9e2a:	55                   	push   %rbp
    9e2b:	48 89 e5             	mov    %rsp,%rbp
    9e2e:	48 81 ec 50 07 00 00 	sub    $0x750,%rsp
    9e35:	48 89 bd c8 f8 ff ff 	mov    %rdi,-0x738(%rbp)
    9e3c:	89 f0                	mov    %esi,%eax
    9e3e:	48 89 95 b8 f8 ff ff 	mov    %rdx,-0x748(%rbp)
    9e45:	89 8d c0 f8 ff ff    	mov    %ecx,-0x740(%rbp)
    9e4b:	4c 89 85 b0 f8 ff ff 	mov    %r8,-0x750(%rbp)
    9e52:	66 89 85 c4 f8 ff ff 	mov    %ax,-0x73c(%rbp)
    9e59:	64 48 8b 04 25 28 00 	mov    %fs:0x28,%rax
    9e60:	00 00 
    9e62:	48 89 45 f8          	mov    %rax,-0x8(%rbp)
    9e66:	31 c0                	xor    %eax,%eax
    9e68:	c7 85 e0 fa ff ff 88 	movl   $0xb263d188,-0x520(%rbp)
    9e6f:	d1 63 b2 
    9e72:	c7 85 e4 fa ff ff 01 	movl   $0x1,-0x51c(%rbp)
    9e79:	00 00 00 
    9e7c:	c7 85 e8 fa ff ff 88 	movl   $0xb263d188,-0x518(%rbp)
    9e83:	d1 63 b2 
    9e86:	c7 85 ec fa ff ff 88 	movl   $0xb263d188,-0x514(%rbp)
    9e8d:	d1 63 b2 
    9e90:	c7 85 f0 fa ff ff 01 	movl   $0x1,-0x510(%rbp)
    9e97:	00 00 00 
    9e9a:	c7 85 f4 fa ff ff 01 	movl   $0x1,-0x50c(%rbp)
    9ea1:	00 00 00 
    9ea4:	c7 85 f8 fa ff ff f3 	movl   $0x51af7f3,-0x508(%rbp)
    9eab:	f7 1a 05 
    9eae:	c7 85 fc fa ff ff 01 	movl   $0x1,-0x504(%rbp)
    9eb5:	00 00 00 
    9eb8:	c7 85 00 fb ff ff 01 	movl   $0x1,-0x500(%rbp)
    9ebf:	00 00 00 
    9ec2:	c7 85 04 fb ff ff 88 	movl   $0xb263d188,-0x4fc(%rbp)
    9ec9:	d1 63 b2 
    9ecc:	c7 85 08 fb ff ff 88 	movl   $0xb263d188,-0x4f8(%rbp)
    9ed3:	d1 63 b2 
    9ed6:	c7 85 0c fb ff ff 01 	movl   $0x1,-0x4f4(%rbp)
    9edd:	00 00 00 
    9ee0:	c7 85 10 fb ff ff 88 	movl   $0xb263d188,-0x4f0(%rbp)
    9ee7:	d1 63 b2 
    9eea:	c7 85 14 fb ff ff 01 	movl   $0x1,-0x4ec(%rbp)
    9ef1:	00 00 00 
    9ef4:	c7 85 18 fb ff ff 88 	movl   $0xb263d188,-0x4e8(%rbp)
    9efb:	d1 63 b2 
    9efe:	c7 85 1c fb ff ff 88 	movl   $0xb263d188,-0x4e4(%rbp)
    9f05:	d1 63 b2 
    9f08:	c7 85 20 fb ff ff 01 	movl   $0x1,-0x4e0(%rbp)
    9f0f:	00 00 00 
    9f12:	c7 85 24 fb ff ff 01 	movl   $0x1,-0x4dc(%rbp)
    9f19:	00 00 00 
    9f1c:	c7 85 28 fb ff ff f3 	movl   $0x51af7f3,-0x4d8(%rbp)
    9f23:	f7 1a 05 
    9f26:	c7 85 2c fb ff ff 01 	movl   $0x1,-0x4d4(%rbp)
    9f2d:	00 00 00 
    9f30:	c7 85 fc f8 ff ff 0e 	movl   $0x57a8360e,-0x704(%rbp)
    9f37:	36 a8 57 
    9f3a:	48 c7 85 70 fa ff ff 	movq   $0x0,-0x590(%rbp)
    9f41:	00 00 00 00 
    9f45:	48 8d 05 89 3c 01 00 	lea    0x13c89(%rip),%rax        # 1dbd5 <g_1521+0x5>
    9f4c:	48 89 85 78 fa ff ff 	mov    %rax,-0x588(%rbp)
    9f53:	48 8d 05 7b 3c 01 00 	lea    0x13c7b(%rip),%rax        # 1dbd5 <g_1521+0x5>
    9f5a:	48 89 85 80 fa ff ff 	mov    %rax,-0x580(%rbp)
    9f61:	48 c7 85 88 fa ff ff 	movq   $0x0,-0x578(%rbp)
    9f68:	00 00 00 00 
    9f6c:	48 8d 05 62 3c 01 00 	lea    0x13c62(%rip),%rax        # 1dbd5 <g_1521+0x5>
    9f73:	48 89 85 90 fa ff ff 	mov    %rax,-0x570(%rbp)
    9f7a:	48 8d 05 54 3c 01 00 	lea    0x13c54(%rip),%rax        # 1dbd5 <g_1521+0x5>
    9f81:	48 89 85 98 fa ff ff 	mov    %rax,-0x568(%rbp)
    9f88:	48 c7 85 58 f9 ff ff 	movq   $0x0,-0x6a8(%rbp)
    9f8f:	00 00 00 00 
    9f93:	66 c7 85 20 fa ff ff 	movw   $0x1f69,-0x5e0(%rbp)
    9f9a:	69 1f 
    9f9c:	66 c7 85 22 fa ff ff 	movw   $0x1f69,-0x5de(%rbp)
    9fa3:	69 1f 
    9fa5:	66 c7 85 24 fa ff ff 	movw   $0x1f69,-0x5dc(%rbp)
    9fac:	69 1f 
    9fae:	66 c7 85 26 fa ff ff 	movw   $0x1f69,-0x5da(%rbp)
    9fb5:	69 1f 
    9fb7:	66 c7 85 28 fa ff ff 	movw   $0x1f69,-0x5d8(%rbp)
    9fbe:	69 1f 
    9fc0:	66 c7 85 2a fa ff ff 	movw   $0x1f69,-0x5d6(%rbp)
    9fc7:	69 1f 
    9fc9:	66 c7 85 2c fa ff ff 	movw   $0x1f69,-0x5d4(%rbp)
    9fd0:	69 1f 
    9fd2:	66 c7 85 2e fa ff ff 	movw   $0x1f69,-0x5d2(%rbp)
    9fd9:	69 1f 
    9fdb:	c7 85 00 f9 ff ff 17 	movl   $0xc32ffc17,-0x700(%rbp)
    9fe2:	fc 2f c3 
    9fe5:	48 8d 85 30 fb ff ff 	lea    -0x4d0(%rbp),%rax
    9fec:	48 8d 15 0d 56 01 00 	lea    0x1560d(%rip),%rdx        # 1f600 <g_3242+0x938>
    9ff3:	b9 28 00 00 00       	mov    $0x28,%ecx
    9ff8:	48 89 c7             	mov    %rax,%rdi
    9ffb:	48 89 d6             	mov    %rdx,%rsi
    9ffe:	f3 48 a5             	rep movsq %ds:(%rsi),%es:(%rdi)
    a001:	66 c7 85 e0 f8 ff ff 	movw   $0x1320,-0x720(%rbp)
    a008:	20 13 
    a00a:	c6 85 de f8 ff ff 01 	movb   $0x1,-0x722(%rbp)
    a011:	48 8d 05 6c 37 01 00 	lea    0x1376c(%rip),%rax        # 1d784 <g_212+0x204>
    a018:	48 89 85 20 f9 ff ff 	mov    %rax,-0x6e0(%rbp)
    a01f:	48 8d 85 20 f9 ff ff 	lea    -0x6e0(%rbp),%rax
    a026:	48 89 85 28 f9 ff ff 	mov    %rax,-0x6d8(%rbp)
    a02d:	48 8d 85 28 f9 ff ff 	lea    -0x6d8(%rbp),%rax
    a034:	48 89 85 60 f9 ff ff 	mov    %rax,-0x6a0(%rbp)
    a03b:	48 8d 05 86 64 01 00 	lea    0x16486(%rip),%rax        # 204c8 <g_2130>
    a042:	48 89 85 68 f9 ff ff 	mov    %rax,-0x698(%rbp)
    a049:	48 8d 05 90 77 01 00 	lea    0x17790(%rip),%rax        # 217e0 <g_2233>
    a050:	48 89 85 70 f9 ff ff 	mov    %rax,-0x690(%rbp)
    a057:	48 8d 85 f0 fd ff ff 	lea    -0x210(%rbp),%rax
    a05e:	48 8d 15 3b e0 00 00 	lea    0xe03b(%rip),%rdx        # 180a0 <g_1879+0x20>
    a065:	b9 3f 00 00 00       	mov    $0x3f,%ecx
    a06a:	48 89 c7             	mov    %rax,%rdi
    a06d:	48 89 d6             	mov    %rdx,%rsi
    a070:	f3 48 a5             	rep movsq %ds:(%rsi),%es:(%rdi)
    a073:	c7 85 04 f9 ff ff f8 	movl   $0xfffffff8,-0x6fc(%rbp)
    a07a:	ff ff ff 
    a07d:	48 8d 05 9c 64 01 00 	lea    0x1649c(%rip),%rax        # 20520 <g_2361>
    a084:	48 89 85 78 f9 ff ff 	mov    %rax,-0x688(%rbp)
    a08b:	48 8d 05 4e 4b 01 00 	lea    0x14b4e(%rip),%rax        # 1ebe0 <g_2627>
    a092:	48 89 85 80 f9 ff ff 	mov    %rax,-0x680(%rbp)
    a099:	c7 45 f4 02 02 02 02 	movl   $0x2020202,-0xc(%rbp)
    a0a0:	c7 85 08 f9 ff ff 00 	movl   $0x0,-0x6f8(%rbp)
    a0a7:	00 00 00 
    a0aa:	c7 85 0c f9 ff ff fc 	movl   $0xfffffffc,-0x6f4(%rbp)
    a0b1:	ff ff ff 
    a0b4:	c7 85 10 f9 ff ff dc 	movl   $0xa8c7dedc,-0x6f0(%rbp)
    a0bb:	de c7 a8 
    a0be:	48 8d 05 93 75 01 00 	lea    0x17593(%rip),%rax        # 21658 <g_1464>
    a0c5:	48 89 85 88 f9 ff ff 	mov    %rax,-0x678(%rbp)
    a0cc:	48 8d 05 1d 5f 01 00 	lea    0x15f1d(%rip),%rax        # 1fff0 <g_627>
    a0d3:	48 89 85 90 f9 ff ff 	mov    %rax,-0x670(%rbp)
    a0da:	c7 05 dc 3d 01 00 10 	movl   $0x10,0x13ddc(%rip)        # 1dec0 <g_1601>
    a0e1:	00 00 00 
    a0e4:	eb 7e                	jmp    a164 <func_18+0x33e>
    a0e6:	c7 85 ec f8 ff ff 00 	movl   $0x0,-0x714(%rbp)
    a0ed:	00 00 00 
    a0f0:	eb 4e                	jmp    a140 <func_18+0x31a>
    a0f2:	c7 85 f0 f8 ff ff 00 	movl   $0x0,-0x710(%rbp)
    a0f9:	00 00 00 
    a0fc:	eb 32                	jmp    a130 <func_18+0x30a>
    a0fe:	8b 85 f0 f8 ff ff    	mov    -0x710(%rbp),%eax
    a104:	48 63 c8             	movslq %eax,%rcx
    a107:	8b 85 ec f8 ff ff    	mov    -0x714(%rbp),%eax
    a10d:	48 63 d0             	movslq %eax,%rdx
    a110:	48 89 d0             	mov    %rdx,%rax
    a113:	48 c1 e0 03          	shl    $0x3,%rax
    a117:	48 01 d0             	add    %rdx,%rax
    a11a:	48 01 c8             	add    %rcx,%rax
    a11d:	48 c7 84 c5 70 fc ff 	movq   $0x1,-0x390(%rbp,%rax,8)
    a124:	ff 01 00 00 00 
    a129:	83 85 f0 f8 ff ff 01 	addl   $0x1,-0x710(%rbp)
    a130:	83 bd f0 f8 ff ff 08 	cmpl   $0x8,-0x710(%rbp)
    a137:	7e c5                	jle    a0fe <func_18+0x2d8>
    a139:	83 85 ec f8 ff ff 01 	addl   $0x1,-0x714(%rbp)
    a140:	83 bd ec f8 ff ff 01 	cmpl   $0x1,-0x714(%rbp)
    a147:	7e a9                	jle    a0f2 <func_18+0x2cc>
    a149:	48 8b 85 f8 fc ff ff 	mov    -0x308(%rbp),%rax
    a150:	48 85 c0             	test   %rax,%rax
    a153:	75 20                	jne    a175 <func_18+0x34f>
    a155:	8b 05 65 3d 01 00    	mov    0x13d65(%rip),%eax        # 1dec0 <g_1601>
    a15b:	83 c0 01             	add    $0x1,%eax
    a15e:	89 05 5c 3d 01 00    	mov    %eax,0x13d5c(%rip)        # 1dec0 <g_1601>
    a164:	8b 05 56 3d 01 00    	mov    0x13d56(%rip),%eax        # 1dec0 <g_1601>
    a16a:	83 f8 19             	cmp    $0x19,%eax
    a16d:	0f 84 73 ff ff ff    	je     a0e6 <func_18+0x2c0>
    a173:	eb 01                	jmp    a176 <func_18+0x350>
    a175:	90                   	nop
    a176:	66 c7 05 55 38 01 00 	movw   $0x0,0x13855(%rip)        # 1d9d4 <g_385>
    a17d:	00 00 
    a17f:	e9 9d 02 00 00       	jmpq   a421 <func_18+0x5fb>
    a184:	48 b8 c3 ca c8 e6 96 	movabs $0x3cc9f196e6c8cac3,%rax
    a18b:	f1 c9 3c 
    a18e:	48 89 85 98 f9 ff ff 	mov    %rax,-0x668(%rbp)
    a195:	c7 85 14 f9 ff ff 01 	movl   $0x1,-0x6ec(%rbp)
    a19c:	00 00 00 
    a19f:	48 8d 05 b2 33 01 00 	lea    0x133b2(%rip),%rax        # 1d558 <g_84+0x38>
    a1a6:	48 89 85 a0 f9 ff ff 	mov    %rax,-0x660(%rbp)
    a1ad:	48 8d 85 70 fc ff ff 	lea    -0x390(%rbp),%rax
    a1b4:	48 8d 15 85 55 01 00 	lea    0x15585(%rip),%rdx        # 1f740 <g_3242+0xa78>
    a1bb:	b9 30 00 00 00       	mov    $0x30,%ecx
    a1c0:	48 89 c7             	mov    %rax,%rdi
    a1c3:	48 89 d6             	mov    %rdx,%rsi
    a1c6:	f3 48 a5             	rep movsq %ds:(%rsi),%es:(%rdi)
    a1c9:	c7 85 18 f9 ff ff 94 	movl   $0xb4373c94,-0x6e8(%rbp)
    a1d0:	3c 37 b4 
    a1d3:	48 c7 85 a8 f9 ff ff 	movq   $0x0,-0x658(%rbp)
    a1da:	00 00 00 00 
    a1de:	48 8d 05 fb 75 01 00 	lea    0x175fb(%rip),%rax        # 217e0 <g_2233>
    a1e5:	48 89 85 b0 f9 ff ff 	mov    %rax,-0x650(%rbp)
    a1ec:	48 c7 85 30 f9 ff ff 	movq   $0x0,-0x6d0(%rbp)
    a1f3:	00 00 00 00 
    a1f7:	48 8d 05 1a 3a 01 00 	lea    0x13a1a(%rip),%rax        # 1dc18 <g_1546>
    a1fe:	48 89 85 b8 f9 ff ff 	mov    %rax,-0x648(%rbp)
    a205:	48 8d 05 54 33 01 00 	lea    0x13354(%rip),%rax        # 1d560 <g_86>
    a20c:	48 89 85 c0 f9 ff ff 	mov    %rax,-0x640(%rbp)
    a213:	48 8d 05 a6 37 01 00 	lea    0x137a6(%rip),%rax        # 1d9c0 <g_296>
    a21a:	48 89 85 c8 f9 ff ff 	mov    %rax,-0x638(%rbp)
    a221:	48 8d 05 68 62 01 00 	lea    0x16268(%rip),%rax        # 20490 <g_1882>
    a228:	48 89 85 d0 f9 ff ff 	mov    %rax,-0x630(%rbp)
    a22f:	c7 85 50 fa ff ff f6 	movl   $0xfffffff6,-0x5b0(%rbp)
    a236:	ff ff ff 
    a239:	c7 85 54 fa ff ff f6 	movl   $0xfffffff6,-0x5ac(%rbp)
    a240:	ff ff ff 
    a243:	c7 85 58 fa ff ff f6 	movl   $0xfffffff6,-0x5a8(%rbp)
    a24a:	ff ff ff 
    a24d:	c7 85 5c fa ff ff f6 	movl   $0xfffffff6,-0x5a4(%rbp)
    a254:	ff ff ff 
    a257:	c7 85 60 fa ff ff f6 	movl   $0xfffffff6,-0x5a0(%rbp)
    a25e:	ff ff ff 
    a261:	c7 85 64 fa ff ff f6 	movl   $0xfffffff6,-0x59c(%rbp)
    a268:	ff ff ff 
    a26b:	48 c7 85 d8 f9 ff ff 	movq   $0x0,-0x628(%rbp)
    a272:	00 00 00 00 
    a276:	66 c7 85 e2 f8 ff ff 	movw   $0x1,-0x71e(%rbp)
    a27d:	01 00 
    a27f:	48 8d 05 aa 73 01 00 	lea    0x173aa(%rip),%rax        # 21630 <g_1175>
    a286:	48 89 85 e0 f9 ff ff 	mov    %rax,-0x620(%rbp)
    a28d:	48 b8 d7 f8 60 cb a9 	movabs $0x83b800a9cb60f8d7,%rax
    a294:	00 b8 83 
    a297:	48 89 85 e8 f9 ff ff 	mov    %rax,-0x618(%rbp)
    a29e:	48 c7 85 38 f9 ff ff 	movq   $0x0,-0x6c8(%rbp)
    a2a5:	00 00 00 00 
    a2a9:	48 8d 85 38 f9 ff ff 	lea    -0x6c8(%rbp),%rax
    a2b0:	48 89 85 40 f9 ff ff 	mov    %rax,-0x6c0(%rbp)
    a2b7:	48 8d 85 40 f9 ff ff 	lea    -0x6c0(%rbp),%rax
    a2be:	48 89 85 f0 f9 ff ff 	mov    %rax,-0x610(%rbp)
    a2c5:	66 c7 85 e4 f8 ff ff 	movw   $0x4957,-0x71c(%rbp)
    a2cc:	57 49 
    a2ce:	48 8d 85 30 f9 ff ff 	lea    -0x6d0(%rbp),%rax
    a2d5:	48 89 85 48 f9 ff ff 	mov    %rax,-0x6b8(%rbp)
    a2dc:	48 8d 85 48 f9 ff ff 	lea    -0x6b8(%rbp),%rax
    a2e3:	48 89 85 f8 f9 ff ff 	mov    %rax,-0x608(%rbp)
    a2ea:	48 8d 85 30 f9 ff ff 	lea    -0x6d0(%rbp),%rax
    a2f1:	48 89 85 50 f9 ff ff 	mov    %rax,-0x6b0(%rbp)
    a2f8:	48 8d 85 50 f9 ff ff 	lea    -0x6b0(%rbp),%rax
    a2ff:	48 89 85 00 fa ff ff 	mov    %rax,-0x600(%rbp)
    a306:	48 8d 05 ab 36 01 00 	lea    0x136ab(%rip),%rax        # 1d9b8 <g_262>
    a30d:	48 89 85 08 fa ff ff 	mov    %rax,-0x5f8(%rbp)
    a314:	66 c7 85 e6 f8 ff ff 	movw   $0x4,-0x71a(%rbp)
    a31b:	04 00 
    a31d:	c7 85 1c f9 ff ff ff 	movl   $0xffffffff,-0x6e4(%rbp)
    a324:	ff ff ff 
    a327:	48 8d 05 02 37 01 00 	lea    0x13702(%rip),%rax        # 1da30 <g_527>
    a32e:	48 89 85 10 fa ff ff 	mov    %rax,-0x5f0(%rbp)
    a335:	66 c7 85 e8 f8 ff ff 	movw   $0x7816,-0x718(%rbp)
    a33c:	16 78 
    a33e:	c6 85 df f8 ff ff ff 	movb   $0xff,-0x721(%rbp)
    a345:	66 c7 85 ea f8 ff ff 	movw   $0x23f9,-0x716(%rbp)
    a34c:	f9 23 
    a34e:	c7 85 f4 f8 ff ff 00 	movl   $0x0,-0x70c(%rbp)
    a355:	00 00 00 
    a358:	eb 1e                	jmp    a378 <func_18+0x552>
    a35a:	8b 85 f4 f8 ff ff    	mov    -0x70c(%rbp),%eax
    a360:	48 98                	cltq   
    a362:	48 8d 15 7f 61 01 00 	lea    0x1617f(%rip),%rdx        # 204e8 <g_2172>
    a369:	48 89 94 c5 30 fa ff 	mov    %rdx,-0x5d0(%rbp,%rax,8)
    a370:	ff 
    a371:	83 85 f4 f8 ff ff 01 	addl   $0x1,-0x70c(%rbp)
    a378:	83 bd f4 f8 ff ff 02 	cmpl   $0x2,-0x70c(%rbp)
    a37f:	7e d9                	jle    a35a <func_18+0x534>
    a381:	c7 85 f4 f8 ff ff 00 	movl   $0x0,-0x70c(%rbp)
    a388:	00 00 00 
    a38b:	eb 4a                	jmp    a3d7 <func_18+0x5b1>
    a38d:	c7 85 f8 f8 ff ff 00 	movl   $0x0,-0x708(%rbp)
    a394:	00 00 00 
    a397:	eb 2e                	jmp    a3c7 <func_18+0x5a1>
    a399:	8b 85 f8 f8 ff ff    	mov    -0x708(%rbp),%eax
    a39f:	48 98                	cltq   
    a3a1:	8b 95 f4 f8 ff ff    	mov    -0x70c(%rbp),%edx
    a3a7:	48 63 d2             	movslq %edx,%rdx
    a3aa:	48 c1 e2 03          	shl    $0x3,%rdx
    a3ae:	48 01 d0             	add    %rdx,%rax
    a3b1:	48 8d 15 08 5d 01 00 	lea    0x15d08(%rip),%rdx        # 200c0 <g_1266>
    a3b8:	48 89 94 c5 a0 fa ff 	mov    %rdx,-0x560(%rbp,%rax,8)
    a3bf:	ff 
    a3c0:	83 85 f8 f8 ff ff 01 	addl   $0x1,-0x708(%rbp)
    a3c7:	83 bd f8 f8 ff ff 07 	cmpl   $0x7,-0x708(%rbp)
    a3ce:	7e c9                	jle    a399 <func_18+0x573>
    a3d0:	83 85 f4 f8 ff ff 01 	addl   $0x1,-0x70c(%rbp)
    a3d7:	83 bd f4 f8 ff ff 00 	cmpl   $0x0,-0x70c(%rbp)
    a3de:	7e ad                	jle    a38d <func_18+0x567>
    a3e0:	c7 85 f4 f8 ff ff 00 	movl   $0x0,-0x70c(%rbp)
    a3e7:	00 00 00 
    a3ea:	eb 1b                	jmp    a407 <func_18+0x5e1>
    a3ec:	8b 85 f4 f8 ff ff    	mov    -0x70c(%rbp),%eax
    a3f2:	48 98                	cltq   
    a3f4:	48 c7 84 c5 18 fa ff 	movq   $0x1,-0x5e8(%rbp,%rax,8)
    a3fb:	ff 01 00 00 00 
    a400:	83 85 f4 f8 ff ff 01 	addl   $0x1,-0x70c(%rbp)
    a407:	83 bd f4 f8 ff ff 00 	cmpl   $0x0,-0x70c(%rbp)
    a40e:	7e dc                	jle    a3ec <func_18+0x5c6>
    a410:	0f b7 05 bd 35 01 00 	movzwl 0x135bd(%rip),%eax        # 1d9d4 <g_385>
    a417:	83 c0 01             	add    $0x1,%eax
    a41a:	66 89 05 b3 35 01 00 	mov    %ax,0x135b3(%rip)        # 1d9d4 <g_385>
    a421:	0f b7 05 ac 35 01 00 	movzwl 0x135ac(%rip),%eax        # 1d9d4 <g_385>
    a428:	66 83 f8 02          	cmp    $0x2,%ax
    a42c:	0f 86 52 fd ff ff    	jbe    a184 <func_18+0x35e>
    a432:	48 8b 85 20 f9 ff ff 	mov    -0x6e0(%rbp),%rax
    a439:	8b 00                	mov    (%rax),%eax
    a43b:	48 98                	cltq   
    a43d:	48 8b 75 f8          	mov    -0x8(%rbp),%rsi
    a441:	64 48 33 34 25 28 00 	xor    %fs:0x28,%rsi
    a448:	00 00 
    a44a:	74 05                	je     a451 <func_18+0x62b>
    a44c:	e8 1f bc ff ff       	callq  6070 <__stack_chk_fail@plt>
    a451:	c9                   	leaveq 
    a452:	c3                   	retq   

000000000000a453 <func_24>:
    a453:	f3 0f 1e fa          	endbr64 
    a457:	55                   	push   %rbp
    a458:	48 89 e5             	mov    %rsp,%rbp
    a45b:	41 57                	push   %r15
    a45d:	41 56                	push   %r14
    a45f:	41 55                	push   %r13
    a461:	41 54                	push   %r12
    a463:	53                   	push   %rbx
    a464:	48 81 ec 00 10 00 00 	sub    $0x1000,%rsp
    a46b:	48 83 0c 24 00       	orq    $0x0,(%rsp)
    a470:	48 81 ec 58 08 00 00 	sub    $0x858,%rsp
    a477:	48 89 bd 88 e7 ff ff 	mov    %rdi,-0x1878(%rbp)
    a47e:	64 48 8b 04 25 28 00 	mov    %fs:0x28,%rax
    a485:	00 00 
    a487:	48 89 45 c8          	mov    %rax,-0x38(%rbp)
    a48b:	31 c0                	xor    %eax,%eax
    a48d:	c7 85 f4 e7 ff ff 31 	movl   $0x9ec36e31,-0x180c(%rbp)
    a494:	6e c3 9e 
    a497:	48 8d 05 2f 35 01 00 	lea    0x1352f(%rip),%rax        # 1d9cd <g_360>
    a49e:	48 89 85 10 e9 ff ff 	mov    %rax,-0x16f0(%rbp)
    a4a5:	c7 85 f8 e7 ff ff 4e 	movl   $0xe7acfd4e,-0x1808(%rbp)
    a4ac:	fd ac e7 
    a4af:	48 8d 85 f0 fb ff ff 	lea    -0x410(%rbp),%rax
    a4b6:	48 8d 15 e3 dd 00 00 	lea    0xdde3(%rip),%rdx        # 182a0 <g_1879+0x220>
    a4bd:	b9 78 00 00 00       	mov    $0x78,%ecx
    a4c2:	48 89 c7             	mov    %rax,%rdi
    a4c5:	48 89 d6             	mov    %rdx,%rsi
    a4c8:	f3 48 a5             	rep movsq %ds:(%rsi),%es:(%rdi)
    a4cb:	48 8d 05 a2 33 01 00 	lea    0x133a2(%rip),%rax        # 1d874 <g_212+0x2f4>
    a4d2:	48 89 85 18 e9 ff ff 	mov    %rax,-0x16e8(%rbp)
    a4d9:	48 c7 85 20 e9 ff ff 	movq   $0x0,-0x16e0(%rbp)
    a4e0:	00 00 00 00 
    a4e4:	48 8d 05 a5 34 01 00 	lea    0x134a5(%rip),%rax        # 1d990 <g_213+0x10>
    a4eb:	48 89 85 68 e8 ff ff 	mov    %rax,-0x1798(%rbp)
    a4f2:	c6 85 9b e7 ff ff 07 	movb   $0x7,-0x1865(%rbp)
    a4f9:	48 8d 05 88 35 01 00 	lea    0x13588(%rip),%rax        # 1da88 <g_735>
    a500:	48 89 85 70 e8 ff ff 	mov    %rax,-0x1790(%rbp)
    a507:	48 c7 85 28 e9 ff ff 	movq   $0x0,-0x16d8(%rbp)
    a50e:	00 00 00 00 
    a512:	48 8d 05 4b 36 01 00 	lea    0x1364b(%rip),%rax        # 1db64 <g_1022>
    a519:	48 89 85 08 e9 ff ff 	mov    %rax,-0x16f8(%rbp)
    a520:	66 c7 85 a2 e7 ff ff 	movw   $0x9,-0x185e(%rbp)
    a527:	09 00 
    a529:	48 8d 05 00 71 01 00 	lea    0x17100(%rip),%rax        # 21630 <g_1175>
    a530:	48 89 85 78 e8 ff ff 	mov    %rax,-0x1788(%rbp)
    a537:	48 8d 85 78 e8 ff ff 	lea    -0x1788(%rbp),%rax
    a53e:	48 89 85 30 e9 ff ff 	mov    %rax,-0x16d0(%rbp)
    a545:	c7 85 fc e7 ff ff 2a 	movl   $0x181adb2a,-0x1804(%rbp)
    a54c:	db 1a 18 
    a54f:	48 8d 85 f0 f0 ff ff 	lea    -0xf10(%rbp),%rax
    a556:	48 8d 15 63 53 01 00 	lea    0x15363(%rip),%rdx        # 1f8c0 <g_3242+0xbf8>
    a55d:	b9 46 00 00 00       	mov    $0x46,%ecx
    a562:	48 89 c7             	mov    %rax,%rdi
    a565:	48 89 d6             	mov    %rdx,%rsi
    a568:	f3 48 a5             	rep movsq %ds:(%rsi),%es:(%rdi)
    a56b:	48 8d 85 f0 f0 ff ff 	lea    -0xf10(%rbp),%rax
    a572:	48 05 48 01 00 00    	add    $0x148,%rax
    a578:	48 89 85 80 e8 ff ff 	mov    %rax,-0x1780(%rbp)
    a57f:	48 8d 05 5a 5a 01 00 	lea    0x15a5a(%rip),%rax        # 1ffe0 <g_130>
    a586:	48 89 85 88 e8 ff ff 	mov    %rax,-0x1778(%rbp)
    a58d:	48 8d 85 88 e8 ff ff 	lea    -0x1778(%rbp),%rax
    a594:	48 89 85 38 e9 ff ff 	mov    %rax,-0x16c8(%rbp)
    a59b:	c6 85 9c e7 ff ff 00 	movb   $0x0,-0x1864(%rbp)
    a5a2:	48 8d 05 cb 32 01 00 	lea    0x132cb(%rip),%rax        # 1d874 <g_212+0x2f4>
    a5a9:	48 89 85 40 e9 ff ff 	mov    %rax,-0x16c0(%rbp)
    a5b0:	48 8b 85 10 e9 ff ff 	mov    -0x16f0(%rbp),%rax
    a5b7:	c6 00 01             	movb   $0x1,(%rax)
    a5ba:	48 8b 85 10 e9 ff ff 	mov    -0x16f0(%rbp),%rax
    a5c1:	0f b6 00             	movzbl (%rax),%eax
    a5c4:	0f b6 c0             	movzbl %al,%eax
    a5c7:	be 03 00 00 00       	mov    $0x3,%esi
    a5cc:	89 c7                	mov    %eax,%edi
    a5ce:	e8 79 c6 ff ff       	callq  6c4c <safe_lshift_func_uint8_t_u_u>
    a5d3:	0f be c0             	movsbl %al,%eax
    a5d6:	89 c6                	mov    %eax,%esi
    a5d8:	bf ff ff ff ff       	mov    $0xffffffff,%edi
    a5dd:	e8 30 bc ff ff       	callq  6212 <safe_mul_func_int8_t_s_s>
    a5e2:	0f be c0             	movsbl %al,%eax
    a5e5:	89 c6                	mov    %eax,%esi
    a5e7:	bf 01 00 00 00       	mov    $0x1,%edi
    a5ec:	e8 0c c9 ff ff       	callq  6efd <safe_mod_func_uint32_t_u_u>
    a5f1:	89 c3                	mov    %eax,%ebx
    a5f3:	be 04 00 00 00       	mov    $0x4,%esi
    a5f8:	bf f0 00 00 00       	mov    $0xf0,%edi
    a5fd:	e8 ac c5 ff ff       	callq  6bae <safe_mod_func_uint8_t_u_u>
    a602:	0f b6 c0             	movzbl %al,%eax
    a605:	39 85 f8 e7 ff ff    	cmp    %eax,-0x1808(%rbp)
    a60b:	0f 9d c0             	setge  %al
    a60e:	0f b6 d0             	movzbl %al,%edx
    a611:	8b 85 f8 e7 ff ff    	mov    -0x1808(%rbp),%eax
    a617:	0f b7 c0             	movzwl %ax,%eax
    a61a:	89 d6                	mov    %edx,%esi
    a61c:	89 c7                	mov    %eax,%edi
    a61e:	e8 1a c7 ff ff       	callq  6d3d <safe_mul_func_uint16_t_u_u>
    a623:	0f b7 c0             	movzwl %ax,%eax
    a626:	09 d8                	or     %ebx,%eax
    a628:	39 85 f4 e7 ff ff    	cmp    %eax,-0x180c(%rbp)
    a62e:	0f 84 24 02 00 00    	je     a858 <func_24+0x405>
    a634:	48 c7 85 00 e9 ff ff 	movq   $0x0,-0x1700(%rbp)
    a63b:	00 00 00 00 
    a63f:	48 8d 85 00 e9 ff ff 	lea    -0x1700(%rbp),%rax
    a646:	48 89 85 78 eb ff ff 	mov    %rax,-0x1488(%rbp)
    a64d:	48 8d 05 3c 33 01 00 	lea    0x1333c(%rip),%rax        # 1d990 <g_213+0x10>
    a654:	48 89 85 80 eb ff ff 	mov    %rax,-0x1480(%rbp)
    a65b:	48 8d 05 2e 33 01 00 	lea    0x1332e(%rip),%rax        # 1d990 <g_213+0x10>
    a662:	48 89 85 88 eb ff ff 	mov    %rax,-0x1478(%rbp)
    a669:	48 8d 05 20 70 01 00 	lea    0x17020(%rip),%rax        # 21690 <g_1606+0x10>
    a670:	48 89 85 90 eb ff ff 	mov    %rax,-0x1470(%rbp)
    a677:	c7 85 90 f8 ff ff ee 	movl   $0xd7e282ee,-0x770(%rbp)
    a67e:	82 e2 d7 
    a681:	c7 85 94 f8 ff ff ee 	movl   $0xd7e282ee,-0x76c(%rbp)
    a688:	82 e2 d7 
    a68b:	c7 85 98 f8 ff ff 75 	movl   $0xb26b8775,-0x768(%rbp)
    a692:	87 6b b2 
    a695:	c7 85 9c f8 ff ff ee 	movl   $0xd7e282ee,-0x764(%rbp)
    a69c:	82 e2 d7 
    a69f:	c7 85 a0 f8 ff ff ee 	movl   $0xd7e282ee,-0x760(%rbp)
    a6a6:	82 e2 d7 
    a6a9:	c7 85 a4 f8 ff ff 75 	movl   $0xb26b8775,-0x75c(%rbp)
    a6b0:	87 6b b2 
    a6b3:	48 8d 05 be 2f 01 00 	lea    0x12fbe(%rip),%rax        # 1d678 <g_212+0xf8>
    a6ba:	48 89 85 98 eb ff ff 	mov    %rax,-0x1468(%rbp)
    a6c1:	8b 85 90 f8 ff ff    	mov    -0x770(%rbp),%eax
    a6c7:	0f be d8             	movsbl %al,%ebx
    a6ca:	48 8b 85 88 e7 ff ff 	mov    -0x1878(%rbp),%rax
    a6d1:	44 8b 20             	mov    (%rax),%r12d
    a6d4:	8b 95 f4 e7 ff ff    	mov    -0x180c(%rbp),%edx
    a6da:	48 8b 05 df 32 01 00 	mov    0x132df(%rip),%rax        # 1d9c0 <g_296>
    a6e1:	48 8d 48 01          	lea    0x1(%rax),%rcx
    a6e5:	48 89 0d d4 32 01 00 	mov    %rcx,0x132d4(%rip)        # 1d9c0 <g_296>
    a6ec:	48 8b 8d 90 eb ff ff 	mov    -0x1470(%rbp),%rcx
    a6f3:	48 8b 09             	mov    (%rcx),%rcx
    a6f6:	48 21 c1             	and    %rax,%rcx
    a6f9:	48 8b 85 90 eb ff ff 	mov    -0x1470(%rbp),%rax
    a700:	48 89 08             	mov    %rcx,(%rax)
    a703:	48 8b 85 90 eb ff ff 	mov    -0x1470(%rbp),%rax
    a70a:	48 8b 08             	mov    (%rax),%rcx
    a70d:	8b 85 90 f8 ff ff    	mov    -0x770(%rbp),%eax
    a713:	48 98                	cltq   
    a715:	48 39 c1             	cmp    %rax,%rcx
    a718:	76 0a                	jbe    a724 <func_24+0x2d1>
    a71a:	0f b7 05 6d 37 01 00 	movzwl 0x1376d(%rip),%eax        # 1de8e <g_1600+0x4e>
    a721:	66 85 c0             	test   %ax,%ax
    a724:	8b 05 2e 2e 01 00    	mov    0x12e2e(%rip),%eax        # 1d558 <g_84+0x38>
    a72a:	0f b7 c0             	movzwl %ax,%eax
    a72d:	89 d6                	mov    %edx,%esi
    a72f:	89 c7                	mov    %eax,%edi
    a731:	e8 12 c7 ff ff       	callq  6e48 <safe_rshift_func_uint16_t_u_s>
    a736:	0f b7 d0             	movzwl %ax,%edx
    a739:	8b 85 90 f8 ff ff    	mov    -0x770(%rbp),%eax
    a73f:	39 c2                	cmp    %eax,%edx
    a741:	0f 9e c0             	setle  %al
    a744:	0f b6 c0             	movzbl %al,%eax
    a747:	44 89 e6             	mov    %r12d,%esi
    a74a:	89 c7                	mov    %eax,%edi
    a74c:	e8 ae bf ff ff       	callq  66ff <safe_div_func_int32_t_s_s>
    a751:	8b 85 f4 e7 ff ff    	mov    -0x180c(%rbp),%eax
    a757:	89 c2                	mov    %eax,%edx
    a759:	8b 85 f8 e7 ff ff    	mov    -0x1808(%rbp),%eax
    a75f:	21 d0                	and    %edx,%eax
    a761:	0f b6 c0             	movzbl %al,%eax
    a764:	be 01 00 00 00       	mov    $0x1,%esi
    a769:	89 c7                	mov    %eax,%edi
    a76b:	e8 4e c5 ff ff       	callq  6cbe <safe_rshift_func_uint8_t_u_u>
    a770:	0f be c0             	movsbl %al,%eax
    a773:	89 de                	mov    %ebx,%esi
    a775:	89 c7                	mov    %eax,%edi
    a777:	e8 76 ba ff ff       	callq  61f2 <safe_sub_func_int8_t_s_s>
    a77c:	0f be d0             	movsbl %al,%edx
    a77f:	48 8b 8d 00 e9 ff ff 	mov    -0x1700(%rbp),%rcx
    a786:	48 8b 85 78 eb ff ff 	mov    -0x1488(%rbp),%rax
    a78d:	48 89 08             	mov    %rcx,(%rax)
    a790:	48 8b 85 78 eb ff ff 	mov    -0x1488(%rbp),%rax
    a797:	48 8b 08             	mov    (%rax),%rcx
    a79a:	48 8b 05 ef 58 01 00 	mov    0x158ef(%rip),%rax        # 20090 <g_797>
    a7a1:	48 8b 00             	mov    (%rax),%rax
    a7a4:	48 39 c1             	cmp    %rax,%rcx
    a7a7:	0f 95 c0             	setne  %al
    a7aa:	0f b6 c0             	movzbl %al,%eax
    a7ad:	89 d6                	mov    %edx,%esi
    a7af:	89 c7                	mov    %eax,%edi
    a7b1:	e8 3f bc ff ff       	callq  63f5 <safe_mul_func_int16_t_s_s>
    a7b6:	48 0f bf d0          	movswq %ax,%rdx
    a7ba:	48 8b 05 3f 29 01 00 	mov    0x1293f(%rip),%rax        # 1d100 <g_79+0x80>
    a7c1:	48 39 c2             	cmp    %rax,%rdx
    a7c4:	0f 94 c0             	sete   %al
    a7c7:	0f b6 d0             	movzbl %al,%edx
    a7ca:	48 8b 05 b7 58 01 00 	mov    0x158b7(%rip),%rax        # 20088 <g_798>
    a7d1:	0f b6 00             	movzbl (%rax),%eax
    a7d4:	0f be c0             	movsbl %al,%eax
    a7d7:	89 d6                	mov    %edx,%esi
    a7d9:	89 c7                	mov    %eax,%edi
    a7db:	e8 f4 b9 ff ff       	callq  61d4 <safe_add_func_int8_t_s_s>
    a7e0:	be ff ff ff ff       	mov    $0xffffffff,%esi
    a7e5:	bf fa ff ff ff       	mov    $0xfffffffa,%edi
    a7ea:	e8 7b ba ff ff       	callq  626a <safe_div_func_int8_t_s_s>
    a7ef:	0f be d8             	movsbl %al,%ebx
    a7f2:	8b 85 f8 e7 ff ff    	mov    -0x1808(%rbp),%eax
    a7f8:	0f b6 d0             	movzbl %al,%edx
    a7fb:	8b 85 f4 e7 ff ff    	mov    -0x180c(%rbp),%eax
    a801:	0f b6 c0             	movzbl %al,%eax
    a804:	89 d6                	mov    %edx,%esi
    a806:	89 c7                	mov    %eax,%edi
    a808:	e8 a1 c3 ff ff       	callq  6bae <safe_mod_func_uint8_t_u_u>
    a80d:	0f b6 c0             	movzbl %al,%eax
    a810:	89 de                	mov    %ebx,%esi
    a812:	89 c7                	mov    %eax,%edi
    a814:	e8 3c bc ff ff       	callq  6455 <safe_div_func_int16_t_s_s>
    a819:	0f be c0             	movsbl %al,%eax
    a81c:	89 c6                	mov    %eax,%esi
    a81e:	bf 6d 00 00 00       	mov    $0x6d,%edi
    a823:	e8 ea b9 ff ff       	callq  6212 <safe_mul_func_int8_t_s_s>
    a828:	84 c0                	test   %al,%al
    a82a:	74 07                	je     a833 <func_24+0x3e0>
    a82c:	ba 01 00 00 00       	mov    $0x1,%edx
    a831:	eb 05                	jmp    a838 <func_24+0x3e5>
    a833:	ba 00 00 00 00       	mov    $0x0,%edx
    a838:	48 8b 85 98 eb ff ff 	mov    -0x1468(%rbp),%rax
    a83f:	8b 00                	mov    (%rax),%eax
    a841:	31 c2                	xor    %eax,%edx
    a843:	48 8b 85 98 eb ff ff 	mov    -0x1468(%rbp),%rax
    a84a:	89 10                	mov    %edx,(%rax)
    a84c:	48 8b 85 40 e9 ff ff 	mov    -0x16c0(%rbp),%rax
    a853:	e9 89 39 00 00       	jmpq   e1e1 <func_24+0x3d8e>
    a858:	48 8d 05 15 2d 01 00 	lea    0x12d15(%rip),%rax        # 1d574 <g_157>
    a85f:	48 89 85 90 e8 ff ff 	mov    %rax,-0x1770(%rbp)
    a866:	48 8d 85 90 e8 ff ff 	lea    -0x1770(%rbp),%rax
    a86d:	48 89 85 98 e8 ff ff 	mov    %rax,-0x1768(%rbp)
    a874:	48 8d 85 98 e8 ff ff 	lea    -0x1768(%rbp),%rax
    a87b:	48 89 85 10 ed ff ff 	mov    %rax,-0x12f0(%rbp)
    a882:	48 8d 85 98 e8 ff ff 	lea    -0x1768(%rbp),%rax
    a889:	48 89 85 18 ed ff ff 	mov    %rax,-0x12e8(%rbp)
    a890:	48 8d 85 98 e8 ff ff 	lea    -0x1768(%rbp),%rax
    a897:	48 89 85 20 ed ff ff 	mov    %rax,-0x12e0(%rbp)
    a89e:	48 8d 85 98 e8 ff ff 	lea    -0x1768(%rbp),%rax
    a8a5:	48 89 85 28 ed ff ff 	mov    %rax,-0x12d8(%rbp)
    a8ac:	48 8d 85 98 e8 ff ff 	lea    -0x1768(%rbp),%rax
    a8b3:	48 89 85 30 ed ff ff 	mov    %rax,-0x12d0(%rbp)
    a8ba:	48 8d 85 98 e8 ff ff 	lea    -0x1768(%rbp),%rax
    a8c1:	48 89 85 38 ed ff ff 	mov    %rax,-0x12c8(%rbp)
    a8c8:	48 8d 85 98 e8 ff ff 	lea    -0x1768(%rbp),%rax
    a8cf:	48 89 85 40 ed ff ff 	mov    %rax,-0x12c0(%rbp)
    a8d6:	48 8d 85 98 e8 ff ff 	lea    -0x1768(%rbp),%rax
    a8dd:	48 89 85 48 ed ff ff 	mov    %rax,-0x12b8(%rbp)
    a8e4:	48 8d 85 98 e8 ff ff 	lea    -0x1768(%rbp),%rax
    a8eb:	48 89 85 50 ed ff ff 	mov    %rax,-0x12b0(%rbp)
    a8f2:	48 8d 85 98 e8 ff ff 	lea    -0x1768(%rbp),%rax
    a8f9:	48 89 85 58 ed ff ff 	mov    %rax,-0x12a8(%rbp)
    a900:	48 8d 85 98 e8 ff ff 	lea    -0x1768(%rbp),%rax
    a907:	48 89 85 60 ed ff ff 	mov    %rax,-0x12a0(%rbp)
    a90e:	48 8d 85 98 e8 ff ff 	lea    -0x1768(%rbp),%rax
    a915:	48 89 85 68 ed ff ff 	mov    %rax,-0x1298(%rbp)
    a91c:	48 8d 85 98 e8 ff ff 	lea    -0x1768(%rbp),%rax
    a923:	48 89 85 70 ed ff ff 	mov    %rax,-0x1290(%rbp)
    a92a:	48 8d 85 98 e8 ff ff 	lea    -0x1768(%rbp),%rax
    a931:	48 89 85 78 ed ff ff 	mov    %rax,-0x1288(%rbp)
    a938:	48 8d 85 98 e8 ff ff 	lea    -0x1768(%rbp),%rax
    a93f:	48 89 85 80 ed ff ff 	mov    %rax,-0x1280(%rbp)
    a946:	48 8d 85 98 e8 ff ff 	lea    -0x1768(%rbp),%rax
    a94d:	48 89 85 88 ed ff ff 	mov    %rax,-0x1278(%rbp)
    a954:	48 8d 85 98 e8 ff ff 	lea    -0x1768(%rbp),%rax
    a95b:	48 89 85 90 ed ff ff 	mov    %rax,-0x1270(%rbp)
    a962:	48 8d 85 98 e8 ff ff 	lea    -0x1768(%rbp),%rax
    a969:	48 89 85 98 ed ff ff 	mov    %rax,-0x1268(%rbp)
    a970:	48 8d 85 98 e8 ff ff 	lea    -0x1768(%rbp),%rax
    a977:	48 89 85 a0 ed ff ff 	mov    %rax,-0x1260(%rbp)
    a97e:	48 8d 85 98 e8 ff ff 	lea    -0x1768(%rbp),%rax
    a985:	48 89 85 a8 ed ff ff 	mov    %rax,-0x1258(%rbp)
    a98c:	48 8d 85 98 e8 ff ff 	lea    -0x1768(%rbp),%rax
    a993:	48 89 85 b0 ed ff ff 	mov    %rax,-0x1250(%rbp)
    a99a:	48 8d 85 98 e8 ff ff 	lea    -0x1768(%rbp),%rax
    a9a1:	48 89 85 b8 ed ff ff 	mov    %rax,-0x1248(%rbp)
    a9a8:	48 8d 85 98 e8 ff ff 	lea    -0x1768(%rbp),%rax
    a9af:	48 89 85 c0 ed ff ff 	mov    %rax,-0x1240(%rbp)
    a9b6:	48 8d 85 98 e8 ff ff 	lea    -0x1768(%rbp),%rax
    a9bd:	48 89 85 c8 ed ff ff 	mov    %rax,-0x1238(%rbp)
    a9c4:	48 c7 85 48 e9 ff ff 	movq   $0x0,-0x16b8(%rbp)
    a9cb:	00 00 00 00 
    a9cf:	c7 85 00 e8 ff ff 6d 	movl   $0xe03d4f6d,-0x1800(%rbp)
    a9d6:	4f 3d e0 
    a9d9:	c7 85 04 e8 ff ff 07 	movl   $0x7,-0x17fc(%rbp)
    a9e0:	00 00 00 
    a9e3:	c7 85 a8 e7 ff ff 05 	movl   $0x5,-0x1858(%rbp)
    a9ea:	00 00 00 
    a9ed:	48 8d 05 14 2b 01 00 	lea    0x12b14(%rip),%rax        # 1d508 <g_83>
    a9f4:	48 89 85 50 e9 ff ff 	mov    %rax,-0x16b0(%rbp)
    a9fb:	48 8d 05 8e 6c 01 00 	lea    0x16c8e(%rip),%rax        # 21690 <g_1606+0x10>
    aa02:	48 89 85 a0 e8 ff ff 	mov    %rax,-0x1760(%rbp)
    aa09:	48 8d 05 c0 6b 01 00 	lea    0x16bc0(%rip),%rax        # 215d0 <g_131>
    aa10:	48 89 85 a8 e8 ff ff 	mov    %rax,-0x1758(%rbp)
    aa17:	48 8d 05 82 56 01 00 	lea    0x15682(%rip),%rax        # 200a0 <g_902>
    aa1e:	48 89 85 58 e9 ff ff 	mov    %rax,-0x16a8(%rbp)
    aa25:	48 c7 85 60 e9 ff ff 	movq   $0x0,-0x16a0(%rbp)
    aa2c:	00 00 00 00 
    aa30:	48 c7 85 b0 e8 ff ff 	movq   $0x0,-0x1750(%rbp)
    aa37:	00 00 00 00 
    aa3b:	66 c7 85 a4 e7 ff ff 	movw   $0x3996,-0x185c(%rbp)
    aa42:	96 39 
    aa44:	c7 85 08 e8 ff ff 03 	movl   $0x3,-0x17f8(%rbp)
    aa4b:	00 00 00 
    aa4e:	48 c7 85 b8 e8 ff ff 	movq   $0x0,-0x1748(%rbp)
    aa55:	00 00 00 00 
    aa59:	48 c7 85 20 f3 ff ff 	movq   $0x0,-0xce0(%rbp)
    aa60:	00 00 00 00 
    aa64:	48 8d 85 b8 e8 ff ff 	lea    -0x1748(%rbp),%rax
    aa6b:	48 89 85 28 f3 ff ff 	mov    %rax,-0xcd8(%rbp)
    aa72:	48 c7 85 30 f3 ff ff 	movq   $0x0,-0xcd0(%rbp)
    aa79:	00 00 00 00 
    aa7d:	48 8d 85 b8 e8 ff ff 	lea    -0x1748(%rbp),%rax
    aa84:	48 89 85 38 f3 ff ff 	mov    %rax,-0xcc8(%rbp)
    aa8b:	48 c7 85 40 f3 ff ff 	movq   $0x0,-0xcc0(%rbp)
    aa92:	00 00 00 00 
    aa96:	48 8d 85 b8 e8 ff ff 	lea    -0x1748(%rbp),%rax
    aa9d:	48 89 85 48 f3 ff ff 	mov    %rax,-0xcb8(%rbp)
    aaa4:	48 c7 85 50 f3 ff ff 	movq   $0x0,-0xcb0(%rbp)
    aaab:	00 00 00 00 
    aaaf:	48 8d 85 b8 e8 ff ff 	lea    -0x1748(%rbp),%rax
    aab6:	48 89 85 58 f3 ff ff 	mov    %rax,-0xca8(%rbp)
    aabd:	48 c7 85 60 f3 ff ff 	movq   $0x0,-0xca0(%rbp)
    aac4:	00 00 00 00 
    aac8:	48 8d 85 b8 e8 ff ff 	lea    -0x1748(%rbp),%rax
    aacf:	48 89 85 68 f3 ff ff 	mov    %rax,-0xc98(%rbp)
    aad6:	48 c7 85 70 f3 ff ff 	movq   $0x0,-0xc90(%rbp)
    aadd:	00 00 00 00 
    aae1:	48 8d 85 b8 e8 ff ff 	lea    -0x1748(%rbp),%rax
    aae8:	48 89 85 78 f3 ff ff 	mov    %rax,-0xc88(%rbp)
    aaef:	48 c7 85 80 f3 ff ff 	movq   $0x0,-0xc80(%rbp)
    aaf6:	00 00 00 00 
    aafa:	48 8d 85 b8 e8 ff ff 	lea    -0x1748(%rbp),%rax
    ab01:	48 89 85 88 f3 ff ff 	mov    %rax,-0xc78(%rbp)
    ab08:	48 c7 85 90 f3 ff ff 	movq   $0x0,-0xc70(%rbp)
    ab0f:	00 00 00 00 
    ab13:	48 8d 85 b8 e8 ff ff 	lea    -0x1748(%rbp),%rax
    ab1a:	48 89 85 98 f3 ff ff 	mov    %rax,-0xc68(%rbp)
    ab21:	48 c7 85 a0 f3 ff ff 	movq   $0x0,-0xc60(%rbp)
    ab28:	00 00 00 00 
    ab2c:	48 8d 85 b8 e8 ff ff 	lea    -0x1748(%rbp),%rax
    ab33:	48 89 85 a8 f3 ff ff 	mov    %rax,-0xc58(%rbp)
    ab3a:	48 c7 85 b0 f3 ff ff 	movq   $0x0,-0xc50(%rbp)
    ab41:	00 00 00 00 
    ab45:	48 8d 85 b8 e8 ff ff 	lea    -0x1748(%rbp),%rax
    ab4c:	48 89 85 b8 f3 ff ff 	mov    %rax,-0xc48(%rbp)
    ab53:	48 c7 85 c0 f3 ff ff 	movq   $0x0,-0xc40(%rbp)
    ab5a:	00 00 00 00 
    ab5e:	48 8d 85 b8 e8 ff ff 	lea    -0x1748(%rbp),%rax
    ab65:	48 89 85 c8 f3 ff ff 	mov    %rax,-0xc38(%rbp)
    ab6c:	48 c7 85 d0 f3 ff ff 	movq   $0x0,-0xc30(%rbp)
    ab73:	00 00 00 00 
    ab77:	48 8d 85 b8 e8 ff ff 	lea    -0x1748(%rbp),%rax
    ab7e:	48 89 85 d8 f3 ff ff 	mov    %rax,-0xc28(%rbp)
    ab85:	48 c7 85 e0 f3 ff ff 	movq   $0x0,-0xc20(%rbp)
    ab8c:	00 00 00 00 
    ab90:	48 8d 85 b8 e8 ff ff 	lea    -0x1748(%rbp),%rax
    ab97:	48 89 85 e8 f3 ff ff 	mov    %rax,-0xc18(%rbp)
    ab9e:	48 c7 85 f0 f3 ff ff 	movq   $0x0,-0xc10(%rbp)
    aba5:	00 00 00 00 
    aba9:	48 8d 85 b8 e8 ff ff 	lea    -0x1748(%rbp),%rax
    abb0:	48 89 85 f8 f3 ff ff 	mov    %rax,-0xc08(%rbp)
    abb7:	48 c7 85 00 f4 ff ff 	movq   $0x0,-0xc00(%rbp)
    abbe:	00 00 00 00 
    abc2:	48 8d 85 b8 e8 ff ff 	lea    -0x1748(%rbp),%rax
    abc9:	48 89 85 08 f4 ff ff 	mov    %rax,-0xbf8(%rbp)
    abd0:	48 c7 85 10 f4 ff ff 	movq   $0x0,-0xbf0(%rbp)
    abd7:	00 00 00 00 
    abdb:	48 8d 85 b8 e8 ff ff 	lea    -0x1748(%rbp),%rax
    abe2:	48 89 85 18 f4 ff ff 	mov    %rax,-0xbe8(%rbp)
    abe9:	48 c7 85 20 f4 ff ff 	movq   $0x0,-0xbe0(%rbp)
    abf0:	00 00 00 00 
    abf4:	48 8d 85 b8 e8 ff ff 	lea    -0x1748(%rbp),%rax
    abfb:	48 89 85 28 f4 ff ff 	mov    %rax,-0xbd8(%rbp)
    ac02:	48 c7 85 30 f4 ff ff 	movq   $0x0,-0xbd0(%rbp)
    ac09:	00 00 00 00 
    ac0d:	48 8d 85 b8 e8 ff ff 	lea    -0x1748(%rbp),%rax
    ac14:	48 89 85 38 f4 ff ff 	mov    %rax,-0xbc8(%rbp)
    ac1b:	48 c7 85 40 f4 ff ff 	movq   $0x0,-0xbc0(%rbp)
    ac22:	00 00 00 00 
    ac26:	48 8d 85 b8 e8 ff ff 	lea    -0x1748(%rbp),%rax
    ac2d:	48 89 85 48 f4 ff ff 	mov    %rax,-0xbb8(%rbp)
    ac34:	48 c7 85 50 f4 ff ff 	movq   $0x0,-0xbb0(%rbp)
    ac3b:	00 00 00 00 
    ac3f:	48 8d 85 b8 e8 ff ff 	lea    -0x1748(%rbp),%rax
    ac46:	48 89 85 58 f4 ff ff 	mov    %rax,-0xba8(%rbp)
    ac4d:	48 c7 85 60 f4 ff ff 	movq   $0x0,-0xba0(%rbp)
    ac54:	00 00 00 00 
    ac58:	48 8d 85 b8 e8 ff ff 	lea    -0x1748(%rbp),%rax
    ac5f:	48 89 85 68 f4 ff ff 	mov    %rax,-0xb98(%rbp)
    ac66:	48 c7 85 70 f4 ff ff 	movq   $0x0,-0xb90(%rbp)
    ac6d:	00 00 00 00 
    ac71:	48 8d 85 b8 e8 ff ff 	lea    -0x1748(%rbp),%rax
    ac78:	48 89 85 78 f4 ff ff 	mov    %rax,-0xb88(%rbp)
    ac7f:	48 c7 85 80 f4 ff ff 	movq   $0x0,-0xb80(%rbp)
    ac86:	00 00 00 00 
    ac8a:	48 8d 85 b8 e8 ff ff 	lea    -0x1748(%rbp),%rax
    ac91:	48 89 85 88 f4 ff ff 	mov    %rax,-0xb78(%rbp)
    ac98:	48 c7 85 90 f4 ff ff 	movq   $0x0,-0xb70(%rbp)
    ac9f:	00 00 00 00 
    aca3:	48 8d 85 b8 e8 ff ff 	lea    -0x1748(%rbp),%rax
    acaa:	48 89 85 98 f4 ff ff 	mov    %rax,-0xb68(%rbp)
    acb1:	48 c7 85 a0 f4 ff ff 	movq   $0x0,-0xb60(%rbp)
    acb8:	00 00 00 00 
    acbc:	48 8d 85 b8 e8 ff ff 	lea    -0x1748(%rbp),%rax
    acc3:	48 89 85 a8 f4 ff ff 	mov    %rax,-0xb58(%rbp)
    acca:	48 c7 85 b0 f4 ff ff 	movq   $0x0,-0xb50(%rbp)
    acd1:	00 00 00 00 
    acd5:	48 8d 85 b8 e8 ff ff 	lea    -0x1748(%rbp),%rax
    acdc:	48 89 85 b8 f4 ff ff 	mov    %rax,-0xb48(%rbp)
    ace3:	48 c7 85 c0 f4 ff ff 	movq   $0x0,-0xb40(%rbp)
    acea:	00 00 00 00 
    acee:	48 8d 85 b8 e8 ff ff 	lea    -0x1748(%rbp),%rax
    acf5:	48 89 85 c8 f4 ff ff 	mov    %rax,-0xb38(%rbp)
    acfc:	48 c7 85 d0 f4 ff ff 	movq   $0x0,-0xb30(%rbp)
    ad03:	00 00 00 00 
    ad07:	48 8d 85 b8 e8 ff ff 	lea    -0x1748(%rbp),%rax
    ad0e:	48 89 85 d8 f4 ff ff 	mov    %rax,-0xb28(%rbp)
    ad15:	48 c7 85 e0 f4 ff ff 	movq   $0x0,-0xb20(%rbp)
    ad1c:	00 00 00 00 
    ad20:	48 8d 85 b8 e8 ff ff 	lea    -0x1748(%rbp),%rax
    ad27:	48 89 85 e8 f4 ff ff 	mov    %rax,-0xb18(%rbp)
    ad2e:	48 c7 85 f0 f4 ff ff 	movq   $0x0,-0xb10(%rbp)
    ad35:	00 00 00 00 
    ad39:	48 8d 85 b8 e8 ff ff 	lea    -0x1748(%rbp),%rax
    ad40:	48 89 85 f8 f4 ff ff 	mov    %rax,-0xb08(%rbp)
    ad47:	48 c7 85 00 f5 ff ff 	movq   $0x0,-0xb00(%rbp)
    ad4e:	00 00 00 00 
    ad52:	48 8d 85 b8 e8 ff ff 	lea    -0x1748(%rbp),%rax
    ad59:	48 89 85 08 f5 ff ff 	mov    %rax,-0xaf8(%rbp)
    ad60:	48 c7 85 10 f5 ff ff 	movq   $0x0,-0xaf0(%rbp)
    ad67:	00 00 00 00 
    ad6b:	48 8d 85 b8 e8 ff ff 	lea    -0x1748(%rbp),%rax
    ad72:	48 89 85 18 f5 ff ff 	mov    %rax,-0xae8(%rbp)
    ad79:	48 c7 85 20 f5 ff ff 	movq   $0x0,-0xae0(%rbp)
    ad80:	00 00 00 00 
    ad84:	48 8d 85 b8 e8 ff ff 	lea    -0x1748(%rbp),%rax
    ad8b:	48 89 85 28 f5 ff ff 	mov    %rax,-0xad8(%rbp)
    ad92:	48 c7 85 30 f5 ff ff 	movq   $0x0,-0xad0(%rbp)
    ad99:	00 00 00 00 
    ad9d:	48 8d 85 b8 e8 ff ff 	lea    -0x1748(%rbp),%rax
    ada4:	48 89 85 38 f5 ff ff 	mov    %rax,-0xac8(%rbp)
    adab:	48 c7 85 40 f5 ff ff 	movq   $0x0,-0xac0(%rbp)
    adb2:	00 00 00 00 
    adb6:	48 8d 85 b8 e8 ff ff 	lea    -0x1748(%rbp),%rax
    adbd:	48 89 85 48 f5 ff ff 	mov    %rax,-0xab8(%rbp)
    adc4:	48 c7 85 50 f5 ff ff 	movq   $0x0,-0xab0(%rbp)
    adcb:	00 00 00 00 
    adcf:	48 8d 85 b8 e8 ff ff 	lea    -0x1748(%rbp),%rax
    add6:	48 89 85 58 f5 ff ff 	mov    %rax,-0xaa8(%rbp)
    addd:	48 c7 85 60 f5 ff ff 	movq   $0x0,-0xaa0(%rbp)
    ade4:	00 00 00 00 
    ade8:	48 8d 85 b8 e8 ff ff 	lea    -0x1748(%rbp),%rax
    adef:	48 89 85 68 f5 ff ff 	mov    %rax,-0xa98(%rbp)
    adf6:	48 c7 85 70 f5 ff ff 	movq   $0x0,-0xa90(%rbp)
    adfd:	00 00 00 00 
    ae01:	48 8d 85 b8 e8 ff ff 	lea    -0x1748(%rbp),%rax
    ae08:	48 89 85 78 f5 ff ff 	mov    %rax,-0xa88(%rbp)
    ae0f:	48 c7 85 80 f5 ff ff 	movq   $0x0,-0xa80(%rbp)
    ae16:	00 00 00 00 
    ae1a:	48 8d 85 b8 e8 ff ff 	lea    -0x1748(%rbp),%rax
    ae21:	48 89 85 88 f5 ff ff 	mov    %rax,-0xa78(%rbp)
    ae28:	48 c7 85 90 f5 ff ff 	movq   $0x0,-0xa70(%rbp)
    ae2f:	00 00 00 00 
    ae33:	48 8d 85 b8 e8 ff ff 	lea    -0x1748(%rbp),%rax
    ae3a:	48 89 85 98 f5 ff ff 	mov    %rax,-0xa68(%rbp)
    ae41:	48 c7 85 a0 f5 ff ff 	movq   $0x0,-0xa60(%rbp)
    ae48:	00 00 00 00 
    ae4c:	48 8d 85 b8 e8 ff ff 	lea    -0x1748(%rbp),%rax
    ae53:	48 89 85 a8 f5 ff ff 	mov    %rax,-0xa58(%rbp)
    ae5a:	48 c7 85 b0 f5 ff ff 	movq   $0x0,-0xa50(%rbp)
    ae61:	00 00 00 00 
    ae65:	48 8d 85 b8 e8 ff ff 	lea    -0x1748(%rbp),%rax
    ae6c:	48 89 85 b8 f5 ff ff 	mov    %rax,-0xa48(%rbp)
    ae73:	48 8d 85 20 f3 ff ff 	lea    -0xce0(%rbp),%rax
    ae7a:	48 05 40 02 00 00    	add    $0x240,%rax
    ae80:	48 89 85 68 e9 ff ff 	mov    %rax,-0x1698(%rbp)
    ae87:	48 c7 85 70 e9 ff ff 	movq   $0x7,-0x1690(%rbp)
    ae8e:	07 00 00 00 
    ae92:	48 b8 ad 53 64 4f 17 	movabs $0xa0f8c1174f6453ad,%rax
    ae99:	c1 f8 a0 
    ae9c:	48 89 85 c0 e8 ff ff 	mov    %rax,-0x1740(%rbp)
    aea3:	c7 85 0c e8 ff ff 67 	movl   $0xfc904967,-0x17f4(%rbp)
    aeaa:	49 90 fc 
    aead:	48 8d 05 ec 67 01 00 	lea    0x167ec(%rip),%rax        # 216a0 <g_2025>
    aeb4:	48 89 85 10 ec ff ff 	mov    %rax,-0x13f0(%rbp)
    aebb:	48 8d 05 de 67 01 00 	lea    0x167de(%rip),%rax        # 216a0 <g_2025>
    aec2:	48 89 85 18 ec ff ff 	mov    %rax,-0x13e8(%rbp)
    aec9:	48 8d 05 d0 67 01 00 	lea    0x167d0(%rip),%rax        # 216a0 <g_2025>
    aed0:	48 89 85 20 ec ff ff 	mov    %rax,-0x13e0(%rbp)
    aed7:	48 8d 05 c2 67 01 00 	lea    0x167c2(%rip),%rax        # 216a0 <g_2025>
    aede:	48 89 85 28 ec ff ff 	mov    %rax,-0x13d8(%rbp)
    aee5:	48 8d 05 b4 67 01 00 	lea    0x167b4(%rip),%rax        # 216a0 <g_2025>
    aeec:	48 89 85 30 ec ff ff 	mov    %rax,-0x13d0(%rbp)
    aef3:	48 c7 85 c0 f5 ff ff 	movq   $0x0,-0xa40(%rbp)
    aefa:	00 00 00 00 
    aefe:	48 8d 85 10 ec ff ff 	lea    -0x13f0(%rbp),%rax
    af05:	48 83 c0 18          	add    $0x18,%rax
    af09:	48 89 85 c8 f5 ff ff 	mov    %rax,-0xa38(%rbp)
    af10:	48 8d 85 10 ec ff ff 	lea    -0x13f0(%rbp),%rax
    af17:	48 89 85 d0 f5 ff ff 	mov    %rax,-0xa30(%rbp)
    af1e:	48 8d 85 10 ec ff ff 	lea    -0x13f0(%rbp),%rax
    af25:	48 89 85 d8 f5 ff ff 	mov    %rax,-0xa28(%rbp)
    af2c:	48 c7 85 e0 f5 ff ff 	movq   $0x0,-0xa20(%rbp)
    af33:	00 00 00 00 
    af37:	48 c7 85 e8 f5 ff ff 	movq   $0x0,-0xa18(%rbp)
    af3e:	00 00 00 00 
    af42:	48 8d 85 10 ec ff ff 	lea    -0x13f0(%rbp),%rax
    af49:	48 89 85 f0 f5 ff ff 	mov    %rax,-0xa10(%rbp)
    af50:	48 8d 85 10 ec ff ff 	lea    -0x13f0(%rbp),%rax
    af57:	48 89 85 f8 f5 ff ff 	mov    %rax,-0xa08(%rbp)
    af5e:	48 8d 85 10 ec ff ff 	lea    -0x13f0(%rbp),%rax
    af65:	48 83 c0 18          	add    $0x18,%rax
    af69:	48 89 85 00 f6 ff ff 	mov    %rax,-0xa00(%rbp)
    af70:	48 8d 85 10 ec ff ff 	lea    -0x13f0(%rbp),%rax
    af77:	48 89 85 08 f6 ff ff 	mov    %rax,-0x9f8(%rbp)
    af7e:	48 8d 85 10 ec ff ff 	lea    -0x13f0(%rbp),%rax
    af85:	48 89 85 10 f6 ff ff 	mov    %rax,-0x9f0(%rbp)
    af8c:	48 8d 85 10 ec ff ff 	lea    -0x13f0(%rbp),%rax
    af93:	48 89 85 18 f6 ff ff 	mov    %rax,-0x9e8(%rbp)
    af9a:	48 8d 85 10 ec ff ff 	lea    -0x13f0(%rbp),%rax
    afa1:	48 89 85 20 f6 ff ff 	mov    %rax,-0x9e0(%rbp)
    afa8:	48 8d 85 10 ec ff ff 	lea    -0x13f0(%rbp),%rax
    afaf:	48 89 85 28 f6 ff ff 	mov    %rax,-0x9d8(%rbp)
    afb6:	48 8d 85 10 ec ff ff 	lea    -0x13f0(%rbp),%rax
    afbd:	48 89 85 30 f6 ff ff 	mov    %rax,-0x9d0(%rbp)
    afc4:	48 8d 85 10 ec ff ff 	lea    -0x13f0(%rbp),%rax
    afcb:	48 89 85 38 f6 ff ff 	mov    %rax,-0x9c8(%rbp)
    afd2:	48 8d 85 10 ec ff ff 	lea    -0x13f0(%rbp),%rax
    afd9:	48 89 85 40 f6 ff ff 	mov    %rax,-0x9c0(%rbp)
    afe0:	48 8d 85 10 ec ff ff 	lea    -0x13f0(%rbp),%rax
    afe7:	48 89 85 48 f6 ff ff 	mov    %rax,-0x9b8(%rbp)
    afee:	48 c7 85 50 f6 ff ff 	movq   $0x0,-0x9b0(%rbp)
    aff5:	00 00 00 00 
    aff9:	48 8d 85 10 ec ff ff 	lea    -0x13f0(%rbp),%rax
    b000:	48 83 c0 18          	add    $0x18,%rax
    b004:	48 89 85 58 f6 ff ff 	mov    %rax,-0x9a8(%rbp)
    b00b:	48 8d 85 10 ec ff ff 	lea    -0x13f0(%rbp),%rax
    b012:	48 89 85 60 f6 ff ff 	mov    %rax,-0x9a0(%rbp)
    b019:	48 8d 85 10 ec ff ff 	lea    -0x13f0(%rbp),%rax
    b020:	48 89 85 68 f6 ff ff 	mov    %rax,-0x998(%rbp)
    b027:	48 8d 85 10 ec ff ff 	lea    -0x13f0(%rbp),%rax
    b02e:	48 83 c0 18          	add    $0x18,%rax
    b032:	48 89 85 70 f6 ff ff 	mov    %rax,-0x990(%rbp)
    b039:	48 8d 85 10 ec ff ff 	lea    -0x13f0(%rbp),%rax
    b040:	48 83 c0 18          	add    $0x18,%rax
    b044:	48 89 85 78 f6 ff ff 	mov    %rax,-0x988(%rbp)
    b04b:	48 8d 85 10 ec ff ff 	lea    -0x13f0(%rbp),%rax
    b052:	48 83 c0 18          	add    $0x18,%rax
    b056:	48 89 85 80 f6 ff ff 	mov    %rax,-0x980(%rbp)
    b05d:	48 8d 85 10 ec ff ff 	lea    -0x13f0(%rbp),%rax
    b064:	48 83 c0 18          	add    $0x18,%rax
    b068:	48 89 85 88 f6 ff ff 	mov    %rax,-0x978(%rbp)
    b06f:	48 8d 85 10 ec ff ff 	lea    -0x13f0(%rbp),%rax
    b076:	48 89 85 90 f6 ff ff 	mov    %rax,-0x970(%rbp)
    b07d:	48 8d 85 10 ec ff ff 	lea    -0x13f0(%rbp),%rax
    b084:	48 83 c0 20          	add    $0x20,%rax
    b088:	48 89 85 98 f6 ff ff 	mov    %rax,-0x968(%rbp)
    b08f:	48 8d 85 10 ec ff ff 	lea    -0x13f0(%rbp),%rax
    b096:	48 89 85 a0 f6 ff ff 	mov    %rax,-0x960(%rbp)
    b09d:	48 8d 85 10 ec ff ff 	lea    -0x13f0(%rbp),%rax
    b0a4:	48 83 c0 20          	add    $0x20,%rax
    b0a8:	48 89 85 a8 f6 ff ff 	mov    %rax,-0x958(%rbp)
    b0af:	48 8d 85 10 ec ff ff 	lea    -0x13f0(%rbp),%rax
    b0b6:	48 89 85 b0 f6 ff ff 	mov    %rax,-0x950(%rbp)
    b0bd:	48 8d 85 10 ec ff ff 	lea    -0x13f0(%rbp),%rax
    b0c4:	48 83 c0 20          	add    $0x20,%rax
    b0c8:	48 89 85 b8 f6 ff ff 	mov    %rax,-0x948(%rbp)
    b0cf:	48 8d 85 10 ec ff ff 	lea    -0x13f0(%rbp),%rax
    b0d6:	48 89 85 c0 f6 ff ff 	mov    %rax,-0x940(%rbp)
    b0dd:	48 8d 85 10 ec ff ff 	lea    -0x13f0(%rbp),%rax
    b0e4:	48 83 c0 10          	add    $0x10,%rax
    b0e8:	48 89 85 c8 f6 ff ff 	mov    %rax,-0x938(%rbp)
    b0ef:	48 8d 85 10 ec ff ff 	lea    -0x13f0(%rbp),%rax
    b0f6:	48 89 85 d0 f6 ff ff 	mov    %rax,-0x930(%rbp)
    b0fd:	48 8d 85 10 ec ff ff 	lea    -0x13f0(%rbp),%rax
    b104:	48 83 c0 20          	add    $0x20,%rax
    b108:	48 89 85 d8 f6 ff ff 	mov    %rax,-0x928(%rbp)
    b10f:	48 8d 85 10 ec ff ff 	lea    -0x13f0(%rbp),%rax
    b116:	48 89 85 e0 f6 ff ff 	mov    %rax,-0x920(%rbp)
    b11d:	48 8d 85 10 ec ff ff 	lea    -0x13f0(%rbp),%rax
    b124:	48 83 c0 18          	add    $0x18,%rax
    b128:	48 89 85 e8 f6 ff ff 	mov    %rax,-0x918(%rbp)
    b12f:	48 8d 85 10 ec ff ff 	lea    -0x13f0(%rbp),%rax
    b136:	48 89 85 f0 f6 ff ff 	mov    %rax,-0x910(%rbp)
    b13d:	48 8d 85 10 ec ff ff 	lea    -0x13f0(%rbp),%rax
    b144:	48 89 85 f8 f6 ff ff 	mov    %rax,-0x908(%rbp)
    b14b:	48 8d 85 10 ec ff ff 	lea    -0x13f0(%rbp),%rax
    b152:	48 89 85 00 f7 ff ff 	mov    %rax,-0x900(%rbp)
    b159:	48 8d 85 10 ec ff ff 	lea    -0x13f0(%rbp),%rax
    b160:	48 89 85 08 f7 ff ff 	mov    %rax,-0x8f8(%rbp)
    b167:	48 8d 85 10 ec ff ff 	lea    -0x13f0(%rbp),%rax
    b16e:	48 89 85 10 f7 ff ff 	mov    %rax,-0x8f0(%rbp)
    b175:	48 8d 85 10 ec ff ff 	lea    -0x13f0(%rbp),%rax
    b17c:	48 89 85 18 f7 ff ff 	mov    %rax,-0x8e8(%rbp)
    b183:	48 8d 85 10 ec ff ff 	lea    -0x13f0(%rbp),%rax
    b18a:	48 89 85 20 f7 ff ff 	mov    %rax,-0x8e0(%rbp)
    b191:	48 8d 85 10 ec ff ff 	lea    -0x13f0(%rbp),%rax
    b198:	48 89 85 28 f7 ff ff 	mov    %rax,-0x8d8(%rbp)
    b19f:	48 8d 85 10 ec ff ff 	lea    -0x13f0(%rbp),%rax
    b1a6:	48 89 85 30 f7 ff ff 	mov    %rax,-0x8d0(%rbp)
    b1ad:	48 8d 85 10 ec ff ff 	lea    -0x13f0(%rbp),%rax
    b1b4:	48 89 85 38 f7 ff ff 	mov    %rax,-0x8c8(%rbp)
    b1bb:	48 8d 85 10 ec ff ff 	lea    -0x13f0(%rbp),%rax
    b1c2:	48 89 85 40 f7 ff ff 	mov    %rax,-0x8c0(%rbp)
    b1c9:	48 8d 85 10 ec ff ff 	lea    -0x13f0(%rbp),%rax
    b1d0:	48 89 85 48 f7 ff ff 	mov    %rax,-0x8b8(%rbp)
    b1d7:	48 c7 85 50 f7 ff ff 	movq   $0x0,-0x8b0(%rbp)
    b1de:	00 00 00 00 
    b1e2:	48 8d 85 10 ec ff ff 	lea    -0x13f0(%rbp),%rax
    b1e9:	48 89 85 58 f7 ff ff 	mov    %rax,-0x8a8(%rbp)
    b1f0:	48 8d 85 10 ec ff ff 	lea    -0x13f0(%rbp),%rax
    b1f7:	48 89 85 60 f7 ff ff 	mov    %rax,-0x8a0(%rbp)
    b1fe:	48 8d 85 10 ec ff ff 	lea    -0x13f0(%rbp),%rax
    b205:	48 89 85 68 f7 ff ff 	mov    %rax,-0x898(%rbp)
    b20c:	48 8d 85 10 ec ff ff 	lea    -0x13f0(%rbp),%rax
    b213:	48 83 c0 18          	add    $0x18,%rax
    b217:	48 89 85 70 f7 ff ff 	mov    %rax,-0x890(%rbp)
    b21e:	48 c7 85 78 f7 ff ff 	movq   $0x0,-0x888(%rbp)
    b225:	00 00 00 00 
    b229:	48 8d 85 10 ec ff ff 	lea    -0x13f0(%rbp),%rax
    b230:	48 89 85 80 f7 ff ff 	mov    %rax,-0x880(%rbp)
    b237:	48 8d 85 10 ec ff ff 	lea    -0x13f0(%rbp),%rax
    b23e:	48 89 85 88 f7 ff ff 	mov    %rax,-0x878(%rbp)
    b245:	48 8d 85 10 ec ff ff 	lea    -0x13f0(%rbp),%rax
    b24c:	48 89 85 90 f7 ff ff 	mov    %rax,-0x870(%rbp)
    b253:	48 8d 85 10 ec ff ff 	lea    -0x13f0(%rbp),%rax
    b25a:	48 89 85 98 f7 ff ff 	mov    %rax,-0x868(%rbp)
    b261:	48 c7 85 a0 f7 ff ff 	movq   $0x0,-0x860(%rbp)
    b268:	00 00 00 00 
    b26c:	48 8d 85 10 ec ff ff 	lea    -0x13f0(%rbp),%rax
    b273:	48 89 85 a8 f7 ff ff 	mov    %rax,-0x858(%rbp)
    b27a:	48 8d 85 10 ec ff ff 	lea    -0x13f0(%rbp),%rax
    b281:	48 89 85 b0 f7 ff ff 	mov    %rax,-0x850(%rbp)
    b288:	48 8d 85 10 ec ff ff 	lea    -0x13f0(%rbp),%rax
    b28f:	48 83 c0 20          	add    $0x20,%rax
    b293:	48 89 85 b8 f7 ff ff 	mov    %rax,-0x848(%rbp)
    b29a:	48 c7 85 c0 f7 ff ff 	movq   $0x0,-0x840(%rbp)
    b2a1:	00 00 00 00 
    b2a5:	48 8d 85 10 ec ff ff 	lea    -0x13f0(%rbp),%rax
    b2ac:	48 83 c0 20          	add    $0x20,%rax
    b2b0:	48 89 85 c8 f7 ff ff 	mov    %rax,-0x838(%rbp)
    b2b7:	48 8d 85 10 ec ff ff 	lea    -0x13f0(%rbp),%rax
    b2be:	48 89 85 d0 f7 ff ff 	mov    %rax,-0x830(%rbp)
    b2c5:	48 8d 85 10 ec ff ff 	lea    -0x13f0(%rbp),%rax
    b2cc:	48 83 c0 20          	add    $0x20,%rax
    b2d0:	48 89 85 d8 f7 ff ff 	mov    %rax,-0x828(%rbp)
    b2d7:	48 c7 85 e0 f7 ff ff 	movq   $0x0,-0x820(%rbp)
    b2de:	00 00 00 00 
    b2e2:	48 8d 85 10 ec ff ff 	lea    -0x13f0(%rbp),%rax
    b2e9:	48 83 c0 20          	add    $0x20,%rax
    b2ed:	48 89 85 e8 f7 ff ff 	mov    %rax,-0x818(%rbp)
    b2f4:	48 8d 85 10 ec ff ff 	lea    -0x13f0(%rbp),%rax
    b2fb:	48 89 85 f0 f7 ff ff 	mov    %rax,-0x810(%rbp)
    b302:	48 8d 85 10 ec ff ff 	lea    -0x13f0(%rbp),%rax
    b309:	48 83 c0 10          	add    $0x10,%rax
    b30d:	48 89 85 f8 f7 ff ff 	mov    %rax,-0x808(%rbp)
    b314:	48 8d 85 10 ec ff ff 	lea    -0x13f0(%rbp),%rax
    b31b:	48 89 85 00 f8 ff ff 	mov    %rax,-0x800(%rbp)
    b322:	48 c7 85 08 f8 ff ff 	movq   $0x0,-0x7f8(%rbp)
    b329:	00 00 00 00 
    b32d:	48 8d 85 10 ec ff ff 	lea    -0x13f0(%rbp),%rax
    b334:	48 89 85 10 f8 ff ff 	mov    %rax,-0x7f0(%rbp)
    b33b:	48 8d 85 10 ec ff ff 	lea    -0x13f0(%rbp),%rax
    b342:	48 89 85 18 f8 ff ff 	mov    %rax,-0x7e8(%rbp)
    b349:	48 8d 85 10 ec ff ff 	lea    -0x13f0(%rbp),%rax
    b350:	48 89 85 20 f8 ff ff 	mov    %rax,-0x7e0(%rbp)
    b357:	48 8d 85 10 ec ff ff 	lea    -0x13f0(%rbp),%rax
    b35e:	48 89 85 28 f8 ff ff 	mov    %rax,-0x7d8(%rbp)
    b365:	48 8d 85 10 ec ff ff 	lea    -0x13f0(%rbp),%rax
    b36c:	48 83 c0 18          	add    $0x18,%rax
    b370:	48 89 85 30 f8 ff ff 	mov    %rax,-0x7d0(%rbp)
    b377:	48 8d 85 10 ec ff ff 	lea    -0x13f0(%rbp),%rax
    b37e:	48 89 85 38 f8 ff ff 	mov    %rax,-0x7c8(%rbp)
    b385:	48 8d 85 10 ec ff ff 	lea    -0x13f0(%rbp),%rax
    b38c:	48 89 85 40 f8 ff ff 	mov    %rax,-0x7c0(%rbp)
    b393:	48 8d 85 10 ec ff ff 	lea    -0x13f0(%rbp),%rax
    b39a:	48 89 85 48 f8 ff ff 	mov    %rax,-0x7b8(%rbp)
    b3a1:	48 8d 85 10 ec ff ff 	lea    -0x13f0(%rbp),%rax
    b3a8:	48 89 85 50 f8 ff ff 	mov    %rax,-0x7b0(%rbp)
    b3af:	48 8d 85 10 ec ff ff 	lea    -0x13f0(%rbp),%rax
    b3b6:	48 89 85 58 f8 ff ff 	mov    %rax,-0x7a8(%rbp)
    b3bd:	48 8d 85 10 ec ff ff 	lea    -0x13f0(%rbp),%rax
    b3c4:	48 89 85 60 f8 ff ff 	mov    %rax,-0x7a0(%rbp)
    b3cb:	48 8d 85 10 ec ff ff 	lea    -0x13f0(%rbp),%rax
    b3d2:	48 89 85 68 f8 ff ff 	mov    %rax,-0x798(%rbp)
    b3d9:	48 8d 85 10 ec ff ff 	lea    -0x13f0(%rbp),%rax
    b3e0:	48 89 85 70 f8 ff ff 	mov    %rax,-0x790(%rbp)
    b3e7:	48 8d 85 10 ec ff ff 	lea    -0x13f0(%rbp),%rax
    b3ee:	48 89 85 78 f8 ff ff 	mov    %rax,-0x788(%rbp)
    b3f5:	48 8d 85 10 ec ff ff 	lea    -0x13f0(%rbp),%rax
    b3fc:	48 89 85 80 f8 ff ff 	mov    %rax,-0x780(%rbp)
    b403:	48 8d 85 10 ec ff ff 	lea    -0x13f0(%rbp),%rax
    b40a:	48 89 85 88 f8 ff ff 	mov    %rax,-0x778(%rbp)
    b411:	c7 85 ac e7 ff ff ff 	movl   $0xffffffff,-0x1854(%rbp)
    b418:	ff ff ff 
    b41b:	c6 85 9d e7 ff ff 20 	movb   $0x20,-0x1863(%rbp)
    b422:	c7 85 dc e7 ff ff 00 	movl   $0x0,-0x1824(%rbp)
    b429:	00 00 00 
    b42c:	eb 22                	jmp    b450 <func_24+0xffd>
    b42e:	8b 85 dc e7 ff ff    	mov    -0x1824(%rbp),%eax
    b434:	48 98                	cltq   
    b436:	48 8d 95 10 ed ff ff 	lea    -0x12f0(%rbp),%rdx
    b43d:	48 83 c2 18          	add    $0x18,%rdx
    b441:	48 89 94 c5 a0 eb ff 	mov    %rdx,-0x1460(%rbp,%rax,8)
    b448:	ff 
    b449:	83 85 dc e7 ff ff 01 	addl   $0x1,-0x1824(%rbp)
    b450:	83 bd dc e7 ff ff 01 	cmpl   $0x1,-0x1824(%rbp)
    b457:	7e d5                	jle    b42e <func_24+0xfdb>
    b459:	c7 85 dc e7 ff ff 00 	movl   $0x0,-0x1824(%rbp)
    b460:	00 00 00 
    b463:	eb 14                	jmp    b479 <func_24+0x1026>
    b465:	8b 85 dc e7 ff ff    	mov    -0x1824(%rbp),%eax
    b46b:	48 98                	cltq   
    b46d:	c6 44 05 bc bd       	movb   $0xbd,-0x44(%rbp,%rax,1)
    b472:	83 85 dc e7 ff ff 01 	addl   $0x1,-0x1824(%rbp)
    b479:	83 bd dc e7 ff ff 02 	cmpl   $0x2,-0x1824(%rbp)
    b480:	7e e3                	jle    b465 <func_24+0x1012>
    b482:	c7 85 dc e7 ff ff 00 	movl   $0x0,-0x1824(%rbp)
    b489:	00 00 00 
    b48c:	eb 46                	jmp    b4d4 <func_24+0x1081>
    b48e:	c7 85 d4 e7 ff ff 00 	movl   $0x0,-0x182c(%rbp)
    b495:	00 00 00 
    b498:	eb 2a                	jmp    b4c4 <func_24+0x1071>
    b49a:	8b 85 d4 e7 ff ff    	mov    -0x182c(%rbp),%eax
    b4a0:	48 63 d0             	movslq %eax,%rdx
    b4a3:	8b 85 dc e7 ff ff    	mov    -0x1824(%rbp),%eax
    b4a9:	48 98                	cltq   
    b4ab:	48 01 d0             	add    %rdx,%rax
    b4ae:	48 8d 15 d3 4f 01 00 	lea    0x14fd3(%rip),%rdx        # 20488 <g_1883>
    b4b5:	48 89 94 c5 e0 eb ff 	mov    %rdx,-0x1420(%rbp,%rax,8)
    b4bc:	ff 
    b4bd:	83 85 d4 e7 ff ff 01 	addl   $0x1,-0x182c(%rbp)
    b4c4:	83 bd d4 e7 ff ff 00 	cmpl   $0x0,-0x182c(%rbp)
    b4cb:	7e cd                	jle    b49a <func_24+0x1047>
    b4cd:	83 85 dc e7 ff ff 01 	addl   $0x1,-0x1824(%rbp)
    b4d4:	83 bd dc e7 ff ff 04 	cmpl   $0x4,-0x1824(%rbp)
    b4db:	7e b1                	jle    b48e <func_24+0x103b>
    b4dd:	48 8b 05 64 4c 01 00 	mov    0x14c64(%rip),%rax        # 20148 <g_1557>
    b4e4:	48 8b 10             	mov    (%rax),%rdx
    b4e7:	48 8b 05 5a 4c 01 00 	mov    0x14c5a(%rip),%rax        # 20148 <g_1557>
    b4ee:	48 8b 00             	mov    (%rax),%rax
    b4f1:	48 39 c2             	cmp    %rax,%rdx
    b4f4:	0f 94 c0             	sete   %al
    b4f7:	0f b6 c0             	movzbl %al,%eax
    b4fa:	c1 e8 1f             	shr    $0x1f,%eax
    b4fd:	0f b6 d8             	movzbl %al,%ebx
    b500:	48 83 bd 48 e9 ff ff 	cmpq   $0x1,-0x16b8(%rbp)
    b507:	01 
    b508:	7e 0f                	jle    b519 <func_24+0x10c6>
    b50a:	0f b6 45 bc          	movzbl -0x44(%rbp),%eax
    b50e:	84 c0                	test   %al,%al
    b510:	74 07                	je     b519 <func_24+0x10c6>
    b512:	b8 01 00 00 00       	mov    $0x1,%eax
    b517:	eb 05                	jmp    b51e <func_24+0x10cb>
    b519:	b8 00 00 00 00       	mov    $0x0,%eax
    b51e:	48 98                	cltq   
    b520:	48 89 c7             	mov    %rax,%rdi
    b523:	e8 f1 ba ff ff       	callq  7019 <safe_unary_minus_func_uint64_t_u>
    b528:	48 39 c3             	cmp    %rax,%rbx
    b52b:	0f 93 c0             	setae  %al
    b52e:	0f b6 d0             	movzbl %al,%edx
    b531:	48 8b 85 a0 ed ff ff 	mov    -0x1260(%rbp),%rax
    b538:	48 85 c0             	test   %rax,%rax
    b53b:	0f 94 c0             	sete   %al
    b53e:	0f b6 c0             	movzbl %al,%eax
    b541:	89 d6                	mov    %edx,%esi
    b543:	89 c7                	mov    %eax,%edi
    b545:	e8 69 ae ff ff       	callq  63b3 <safe_add_func_int16_t_s_s>
    b54a:	66 85 c0             	test   %ax,%ax
    b54d:	0f 84 83 16 00 00    	je     cbd6 <func_24+0x2783>
    b553:	48 8d 85 d0 ed ff ff 	lea    -0x1230(%rbp),%rax
    b55a:	48 8d 15 9f 45 01 00 	lea    0x1459f(%rip),%rdx        # 1fb00 <g_3242+0xe38>
    b561:	b9 24 00 00 00       	mov    $0x24,%ecx
    b566:	48 89 c7             	mov    %rax,%rdi
    b569:	48 89 d6             	mov    %rdx,%rsi
    b56c:	f3 48 a5             	rep movsq %ds:(%rsi),%es:(%rdi)
    b56f:	c7 85 b0 e7 ff ff ff 	movl   $0xffffffff,-0x1850(%rbp)
    b576:	ff ff ff 
    b579:	48 8d 05 60 26 01 00 	lea    0x12660(%rip),%rax        # 1dbe0 <g_1524>
    b580:	48 89 85 c0 ec ff ff 	mov    %rax,-0x1340(%rbp)
    b587:	48 c7 85 c8 ec ff ff 	movq   $0x0,-0x1338(%rbp)
    b58e:	00 00 00 00 
    b592:	48 8d 05 47 26 01 00 	lea    0x12647(%rip),%rax        # 1dbe0 <g_1524>
    b599:	48 89 85 d0 ec ff ff 	mov    %rax,-0x1330(%rbp)
    b5a0:	48 8d 05 39 26 01 00 	lea    0x12639(%rip),%rax        # 1dbe0 <g_1524>
    b5a7:	48 89 85 d8 ec ff ff 	mov    %rax,-0x1328(%rbp)
    b5ae:	48 c7 85 e0 ec ff ff 	movq   $0x0,-0x1320(%rbp)
    b5b5:	00 00 00 00 
    b5b9:	48 8d 05 20 26 01 00 	lea    0x12620(%rip),%rax        # 1dbe0 <g_1524>
    b5c0:	48 89 85 e8 ec ff ff 	mov    %rax,-0x1318(%rbp)
    b5c7:	48 8d 05 12 26 01 00 	lea    0x12612(%rip),%rax        # 1dbe0 <g_1524>
    b5ce:	48 89 85 f0 ec ff ff 	mov    %rax,-0x1310(%rbp)
    b5d5:	48 c7 85 f8 ec ff ff 	movq   $0x0,-0x1308(%rbp)
    b5dc:	00 00 00 00 
    b5e0:	48 8d 05 f9 25 01 00 	lea    0x125f9(%rip),%rax        # 1dbe0 <g_1524>
    b5e7:	48 89 85 00 ed ff ff 	mov    %rax,-0x1300(%rbp)
    b5ee:	48 8d 05 eb 25 01 00 	lea    0x125eb(%rip),%rax        # 1dbe0 <g_1524>
    b5f5:	48 89 85 08 ed ff ff 	mov    %rax,-0x12f8(%rbp)
    b5fc:	48 8d 85 c0 ec ff ff 	lea    -0x1340(%rbp),%rax
    b603:	48 83 c0 38          	add    $0x38,%rax
    b607:	48 89 85 38 ea ff ff 	mov    %rax,-0x15c8(%rbp)
    b60e:	48 8d 05 73 23 01 00 	lea    0x12373(%rip),%rax        # 1d988 <g_213+0x8>
    b615:	48 89 85 40 ea ff ff 	mov    %rax,-0x15c0(%rbp)
    b61c:	48 8d 85 98 e8 ff ff 	lea    -0x1768(%rbp),%rax
    b623:	48 89 85 48 ea ff ff 	mov    %rax,-0x15b8(%rbp)
    b62a:	48 8d 05 33 1a 01 00 	lea    0x11a33(%rip),%rax        # 1d064 <g_47>
    b631:	48 89 85 d8 e8 ff ff 	mov    %rax,-0x1728(%rbp)
    b638:	66 c7 85 a0 e7 ff ff 	movw   $0x5,-0x1860(%rbp)
    b63f:	05 00 
    b641:	48 8d 05 40 4e 01 00 	lea    0x14e40(%rip),%rax        # 20488 <g_1883>
    b648:	48 89 85 50 ea ff ff 	mov    %rax,-0x15b0(%rbp)
    b64f:	c7 85 38 e8 ff ff a7 	movl   $0xfadb03a7,-0x17c8(%rbp)
    b656:	03 db fa 
    b659:	c7 85 b4 e7 ff ff 45 	movl   $0xe84d6745,-0x184c(%rbp)
    b660:	67 4d e8 
    b663:	c7 85 b8 e7 ff ff be 	movl   $0x758b6cbe,-0x1848(%rbp)
    b66a:	6c 8b 75 
    b66d:	c7 85 3c e8 ff ff 00 	movl   $0x0,-0x17c4(%rbp)
    b674:	00 00 00 
    b677:	c7 85 bc e7 ff ff a0 	movl   $0xc583aea0,-0x1844(%rbp)
    b67e:	ae 83 c5 
    b681:	48 8d 85 bc e7 ff ff 	lea    -0x1844(%rbp),%rax
    b688:	48 89 85 58 ea ff ff 	mov    %rax,-0x15a8(%rbp)
    b68f:	48 b8 33 c6 52 dd 3e 	movabs $0xce1ce73edd52c633,%rax
    b696:	e7 1c ce 
    b699:	48 89 85 60 ea ff ff 	mov    %rax,-0x15a0(%rbp)
    b6a0:	be b7 00 00 00       	mov    $0xb7,%esi
    b6a5:	bf 93 00 00 00       	mov    $0x93,%edi
    b6aa:	e8 c9 b4 ff ff       	callq  6b78 <safe_sub_func_uint8_t_u_u>
    b6af:	44 0f b6 e0          	movzbl %al,%r12d
    b6b3:	0f b6 45 bc          	movzbl -0x44(%rbp),%eax
    b6b7:	0f be d8             	movsbl %al,%ebx
    b6ba:	be f9 ff ff ff       	mov    $0xfffffff9,%esi
    b6bf:	bf 01 00 00 00       	mov    $0x1,%edi
    b6c4:	e8 49 ab ff ff       	callq  6212 <safe_mul_func_int8_t_s_s>
    b6c9:	0f be c0             	movsbl %al,%eax
    b6cc:	89 de                	mov    %ebx,%esi
    b6ce:	89 c7                	mov    %eax,%edi
    b6d0:	e8 1d ab ff ff       	callq  61f2 <safe_sub_func_int8_t_s_s>
    b6d5:	c7 85 b0 e7 ff ff 00 	movl   $0x0,-0x1850(%rbp)
    b6dc:	00 00 00 
    b6df:	c7 85 00 e8 ff ff f8 	movl   $0xfffffff8,-0x1800(%rbp)
    b6e6:	ff ff ff 
    b6e9:	83 bd 04 e8 ff ff 00 	cmpl   $0x0,-0x17fc(%rbp)
    b6f0:	74 07                	je     b6f9 <func_24+0x12a6>
    b6f2:	b8 01 00 00 00       	mov    $0x1,%eax
    b6f7:	eb 05                	jmp    b6fe <func_24+0x12ab>
    b6f9:	b8 00 00 00 00       	mov    $0x0,%eax
    b6fe:	44 39 e0             	cmp    %r12d,%eax
    b701:	0f 9c c0             	setl   %al
    b704:	0f b6 d8             	movzbl %al,%ebx
    b707:	0f b6 45 bc          	movzbl -0x44(%rbp),%eax
    b70b:	0f b6 c0             	movzbl %al,%eax
    b70e:	0f b6 55 bd          	movzbl -0x43(%rbp),%edx
    b712:	0f b6 d2             	movzbl %dl,%edx
    b715:	f7 d2                	not    %edx
    b717:	21 c2                	and    %eax,%edx
    b719:	0f b6 45 be          	movzbl -0x42(%rbp),%eax
    b71d:	0f b6 c0             	movzbl %al,%eax
    b720:	39 c2                	cmp    %eax,%edx
    b722:	0f 9f c0             	setg   %al
    b725:	0f b6 d0             	movzbl %al,%edx
    b728:	8b 85 f8 e7 ff ff    	mov    -0x1808(%rbp),%eax
    b72e:	89 d6                	mov    %edx,%esi
    b730:	89 c7                	mov    %eax,%edi
    b732:	e8 99 b7 ff ff       	callq  6ed0 <safe_sub_func_uint32_t_u_u>
    b737:	0f b7 c0             	movzwl %ax,%eax
    b73a:	89 de                	mov    %ebx,%esi
    b73c:	89 c7                	mov    %eax,%edi
    b73e:	e8 fa b5 ff ff       	callq  6d3d <safe_mul_func_uint16_t_u_u>
    b743:	89 c2                	mov    %eax,%edx
    b745:	48 8b 05 8c 48 01 00 	mov    0x1488c(%rip),%rax        # 1ffd8 <g_110>
    b74c:	48 8b 00             	mov    (%rax),%rax
    b74f:	48 8b 00             	mov    (%rax),%rax
    b752:	48 8b 00             	mov    (%rax),%rax
    b755:	0f b7 d2             	movzwl %dx,%edx
    b758:	89 10                	mov    %edx,(%rax)
    b75a:	8b 85 f4 e7 ff ff    	mov    -0x180c(%rbp),%eax
    b760:	0f bf d8             	movswl %ax,%ebx
    b763:	0f b7 05 00 27 01 00 	movzwl 0x12700(%rip),%eax        # 1de6a <g_1600+0x2a>
    b76a:	41 89 c5             	mov    %eax,%r13d
    b76d:	8b 85 00 e8 ff ff    	mov    -0x1800(%rbp),%eax
    b773:	4c 63 e0             	movslq %eax,%r12
    b776:	8b 85 00 e8 ff ff    	mov    -0x1800(%rbp),%eax
    b77c:	48 98                	cltq   
    b77e:	48 be cb ef 35 35 fb 	movabs $0x39f34fb3535efcb,%rsi
    b785:	34 9f 03 
    b788:	48 89 c7             	mov    %rax,%rdi
    b78b:	e8 24 b2 ff ff       	callq  69b4 <safe_mod_func_int64_t_s_s>
    b790:	48 8d 15 e1 48 01 00 	lea    0x148e1(%rip),%rdx        # 20078 <g_662+0x78>
    b797:	48 39 95 38 ea ff ff 	cmp    %rdx,-0x15c8(%rbp)
    b79e:	0f 95 c2             	setne  %dl
    b7a1:	0f b6 ca             	movzbl %dl,%ecx
    b7a4:	8b 95 b0 e7 ff ff    	mov    -0x1850(%rbp),%edx
    b7aa:	31 ca                	xor    %ecx,%edx
    b7ac:	89 c1                	mov    %eax,%ecx
    b7ae:	8b 85 a8 e7 ff ff    	mov    -0x1858(%rbp),%eax
    b7b4:	31 c8                	xor    %ecx,%eax
    b7b6:	89 85 a8 e7 ff ff    	mov    %eax,-0x1858(%rbp)
    b7bc:	8b 85 a8 e7 ff ff    	mov    -0x1858(%rbp),%eax
    b7c2:	39 c2                	cmp    %eax,%edx
    b7c4:	0f 94 c0             	sete   %al
    b7c7:	0f b6 c0             	movzbl %al,%eax
    b7ca:	4c 89 e6             	mov    %r12,%rsi
    b7cd:	48 89 c7             	mov    %rax,%rdi
    b7d0:	e8 da b8 ff ff       	callq  70af <safe_div_func_uint64_t_u_u>
    b7d5:	89 c2                	mov    %eax,%edx
    b7d7:	48 8b 05 b2 48 01 00 	mov    0x148b2(%rip),%rax        # 20090 <g_797>
    b7de:	48 8b 00             	mov    (%rax),%rax
    b7e1:	0f b6 00             	movzbl (%rax),%eax
    b7e4:	66 98                	cbtw   
    b7e6:	09 d0                	or     %edx,%eax
    b7e8:	44 21 e8             	and    %r13d,%eax
    b7eb:	98                   	cwtl   
    b7ec:	25 66 45 00 00       	and    $0x4566,%eax
    b7f1:	89 de                	mov    %ebx,%esi
    b7f3:	89 c7                	mov    %eax,%edi
    b7f5:	e8 fb ab ff ff       	callq  63f5 <safe_mul_func_int16_t_s_s>
    b7fa:	98                   	cwtl   
    b7fb:	89 c6                	mov    %eax,%esi
    b7fd:	bf f9 ff ff ff       	mov    $0xfffffff9,%edi
    b802:	e8 8b ac ff ff       	callq  6492 <safe_lshift_func_int16_t_s_s>
    b807:	48 8b 85 88 e7 ff ff 	mov    -0x1878(%rbp),%rax
    b80e:	8b 00                	mov    (%rax),%eax
    b810:	3d 8c 6d b5 38       	cmp    $0x38b56d8c,%eax
    b815:	0f 8e 01 12 00 00    	jle    ca1c <func_24+0x25c9>
    b81b:	48 8d 05 36 5e 01 00 	lea    0x15e36(%rip),%rax        # 21658 <g_1464>
    b822:	48 89 85 68 ea ff ff 	mov    %rax,-0x1598(%rbp)
    b829:	c7 85 c0 e7 ff ff 38 	movl   $0x54e5d538,-0x1840(%rbp)
    b830:	d5 e5 54 
    b833:	48 8d 05 3a 1d 01 00 	lea    0x11d3a(%rip),%rax        # 1d574 <g_157>
    b83a:	48 89 85 70 ea ff ff 	mov    %rax,-0x1590(%rbp)
    b841:	48 8d 85 d8 e8 ff ff 	lea    -0x1728(%rbp),%rax
    b848:	48 89 85 78 ea ff ff 	mov    %rax,-0x1588(%rbp)
    b84f:	48 c7 85 e0 e8 ff ff 	movq   $0x0,-0x1720(%rbp)
    b856:	00 00 00 00 
    b85a:	48 8d 85 e0 e8 ff ff 	lea    -0x1720(%rbp),%rax
    b861:	48 89 85 80 ea ff ff 	mov    %rax,-0x1580(%rbp)
    b868:	c7 85 c4 e7 ff ff 08 	movl   $0x8,-0x183c(%rbp)
    b86f:	00 00 00 
    b872:	c7 85 c8 e8 ff ff 00 	movl   $0x0,-0x1738(%rbp)
    b879:	00 00 00 
    b87c:	c7 85 40 e8 ff ff a7 	movl   $0x9334a7a7,-0x17c0(%rbp)
    b883:	a7 34 93 
    b886:	c7 85 44 e8 ff ff 01 	movl   $0x1,-0x17bc(%rbp)
    b88d:	00 00 00 
    b890:	48 c7 85 e8 e8 ff ff 	movq   $0x0,-0x1718(%rbp)
    b897:	00 00 00 00 
    b89b:	48 8d 85 e8 e8 ff ff 	lea    -0x1718(%rbp),%rax
    b8a2:	48 89 85 f0 e8 ff ff 	mov    %rax,-0x1710(%rbp)
    b8a9:	48 8d 85 c0 eb ff ff 	lea    -0x1440(%rbp),%rax
    b8b0:	48 89 85 88 ea ff ff 	mov    %rax,-0x1578(%rbp)
    b8b7:	c7 85 48 e8 ff ff 00 	movl   $0x0,-0x17b8(%rbp)
    b8be:	00 00 00 
    b8c1:	c7 85 d8 e7 ff ff 00 	movl   $0x0,-0x1828(%rbp)
    b8c8:	00 00 00 
    b8cb:	eb 1e                	jmp    b8eb <func_24+0x1498>
    b8cd:	8b 85 d8 e7 ff ff    	mov    -0x1828(%rbp),%eax
    b8d3:	48 98                	cltq   
    b8d5:	48 8d 15 44 4b 01 00 	lea    0x14b44(%rip),%rdx        # 20420 <g_1866+0x2a0>
    b8dc:	48 89 94 c5 b0 eb ff 	mov    %rdx,-0x1450(%rbp,%rax,8)
    b8e3:	ff 
    b8e4:	83 85 d8 e7 ff ff 01 	addl   $0x1,-0x1828(%rbp)
    b8eb:	83 bd d8 e7 ff ff 01 	cmpl   $0x1,-0x1828(%rbp)
    b8f2:	7e d9                	jle    b8cd <func_24+0x147a>
    b8f4:	c7 85 d8 e7 ff ff 00 	movl   $0x0,-0x1828(%rbp)
    b8fb:	00 00 00 
    b8fe:	eb 1e                	jmp    b91e <func_24+0x14cb>
    b900:	8b 85 d8 e7 ff ff    	mov    -0x1828(%rbp),%eax
    b906:	48 98                	cltq   
    b908:	48 8d 95 f0 e8 ff ff 	lea    -0x1710(%rbp),%rdx
    b90f:	48 89 94 c5 c0 eb ff 	mov    %rdx,-0x1440(%rbp,%rax,8)
    b916:	ff 
    b917:	83 85 d8 e7 ff ff 01 	addl   $0x1,-0x1828(%rbp)
    b91e:	83 bd d8 e7 ff ff 02 	cmpl   $0x2,-0x1828(%rbp)
    b925:	7e d9                	jle    b900 <func_24+0x14ad>
    b927:	c7 85 b0 e7 ff ff f5 	movl   $0xfffffff5,-0x1850(%rbp)
    b92e:	ff ff ff 
    b931:	90                   	nop
    b932:	8b 85 b0 e7 ff ff    	mov    -0x1850(%rbp),%eax
    b938:	83 f8 fd             	cmp    $0xfffffffd,%eax
    b93b:	7c 0c                	jl     b949 <func_24+0x14f6>
    b93d:	48 8b 85 50 e9 ff ff 	mov    -0x16b0(%rbp),%rax
    b944:	e9 98 28 00 00       	jmpq   e1e1 <func_24+0x3d8e>
    b949:	48 8b 85 68 ea ff ff 	mov    -0x1598(%rbp),%rax
    b950:	48 8d 15 f9 1a 01 00 	lea    0x11af9(%rip),%rdx        # 1d450 <g_79+0x3d0>
    b957:	48 89 10             	mov    %rdx,(%rax)
    b95a:	be 0a 00 00 00       	mov    $0xa,%esi
    b95f:	bf 00 00 00 00       	mov    $0x0,%edi
    b964:	e8 78 ab ff ff       	callq  64e1 <safe_lshift_func_int16_t_s_u>
    b969:	66 85 c0             	test   %ax,%ax
    b96c:	0f 84 9c 09 00 00    	je     c30e <func_24+0x1ebb>
    b972:	48 8d 05 5b 20 01 00 	lea    0x1205b(%rip),%rax        # 1d9d4 <g_385>
    b979:	48 89 85 a8 ea ff ff 	mov    %rax,-0x1558(%rbp)
    b980:	48 c7 85 b0 ea ff ff 	movq   $0x0,-0x1550(%rbp)
    b987:	00 00 00 00 
    b98b:	c7 85 d0 e8 ff ff 68 	movl   $0xc7bb768,-0x1730(%rbp)
    b992:	b7 7b 0c 
    b995:	48 8d 05 24 25 01 00 	lea    0x12524(%rip),%rax        # 1dec0 <g_1601>
    b99c:	48 89 85 f8 e8 ff ff 	mov    %rax,-0x1708(%rbp)
    b9a3:	48 8d 85 c0 e7 ff ff 	lea    -0x1840(%rbp),%rax
    b9aa:	48 89 85 b8 ea ff ff 	mov    %rax,-0x1548(%rbp)
    b9b1:	48 b8 56 1d 82 a9 3a 	movabs $0x98c9d23aa9821d56,%rax
    b9b8:	d2 c9 98 
    b9bb:	48 89 85 c0 ea ff ff 	mov    %rax,-0x1540(%rbp)
    b9c2:	48 8d 05 ad 1b 01 00 	lea    0x11bad(%rip),%rax        # 1d576 <g_196>
    b9c9:	48 89 85 c8 ea ff ff 	mov    %rax,-0x1538(%rbp)
    b9d0:	c7 85 4c e8 ff ff 00 	movl   $0x0,-0x17b4(%rbp)
    b9d7:	00 00 00 
    b9da:	c7 85 50 e8 ff ff ce 	movl   $0x45a376ce,-0x17b0(%rbp)
    b9e1:	76 a3 45 
    b9e4:	c7 85 c8 e7 ff ff 00 	movl   $0x0,-0x1838(%rbp)
    b9eb:	00 00 00 
    b9ee:	eb 1a                	jmp    ba0a <func_24+0x15b7>
    b9f0:	8b 85 c8 e7 ff ff    	mov    -0x1838(%rbp),%eax
    b9f6:	48 98                	cltq   
    b9f8:	c7 84 85 80 ec ff ff 	movl   $0xcc3b5937,-0x1380(%rbp,%rax,4)
    b9ff:	37 59 3b cc 
    ba03:	83 85 c8 e7 ff ff 01 	addl   $0x1,-0x1838(%rbp)
    ba0a:	83 bd c8 e7 ff ff 01 	cmpl   $0x1,-0x1838(%rbp)
    ba11:	7e dd                	jle    b9f0 <func_24+0x159d>
    ba13:	c7 85 c8 e7 ff ff 00 	movl   $0x0,-0x1838(%rbp)
    ba1a:	00 00 00 
    ba1d:	eb 21                	jmp    ba40 <func_24+0x15ed>
    ba1f:	8b 85 c8 e7 ff ff    	mov    -0x1838(%rbp),%eax
    ba25:	48 98                	cltq   
    ba27:	48 bb 2e b9 6a 46 a3 	movabs $0x7528b8a3466ab92e,%rbx
    ba2e:	b8 28 75 
    ba31:	48 89 9c c5 f0 ee ff 	mov    %rbx,-0x1110(%rbp,%rax,8)
    ba38:	ff 
    ba39:	83 85 c8 e7 ff ff 01 	addl   $0x1,-0x1838(%rbp)
    ba40:	83 bd c8 e7 ff ff 01 	cmpl   $0x1,-0x1838(%rbp)
    ba47:	7e d6                	jle    ba1f <func_24+0x15cc>
    ba49:	48 8b 85 50 e9 ff ff 	mov    -0x16b0(%rbp),%rax
    ba50:	8b 00                	mov    (%rax),%eax
    ba52:	0f bf d8             	movswl %ax,%ebx
    ba55:	48 8b 05 14 21 01 00 	mov    0x12114(%rip),%rax        # 1db70 <g_1187>
    ba5c:	8b 85 c0 e7 ff ff    	mov    -0x1840(%rbp),%eax
    ba62:	be 7c c8 fa f6       	mov    $0xf6fac87c,%esi
    ba67:	89 c7                	mov    %eax,%edi
    ba69:	e8 91 ac ff ff       	callq  66ff <safe_div_func_int32_t_s_s>
    ba6e:	f7 d0                	not    %eax
    ba70:	c1 e8 1f             	shr    $0x1f,%eax
    ba73:	0f b6 c0             	movzbl %al,%eax
    ba76:	89 85 c0 e7 ff ff    	mov    %eax,-0x1840(%rbp)
    ba7c:	8b 85 c0 e7 ff ff    	mov    -0x1840(%rbp),%eax
    ba82:	89 85 a4 fd ff ff    	mov    %eax,-0x25c(%rbp)
    ba88:	8b 85 a4 fd ff ff    	mov    -0x25c(%rbp),%eax
    ba8e:	98                   	cwtl   
    ba8f:	89 de                	mov    %ebx,%esi
    ba91:	89 c7                	mov    %eax,%edi
    ba93:	e8 bd a9 ff ff       	callq  6455 <safe_div_func_int16_t_s_s>
    ba98:	0f be d8             	movsbl %al,%ebx
    ba9b:	8b 85 b0 e7 ff ff    	mov    -0x1850(%rbp),%eax
    baa1:	48 63 d0             	movslq %eax,%rdx
    baa4:	8b 05 8e 1f 01 00    	mov    0x11f8e(%rip),%eax        # 1da38 <g_527+0x8>
    baaa:	01 c0                	add    %eax,%eax
    baac:	d1 f8                	sar    %eax
    baae:	48 98                	cltq   
    bab0:	48 89 d6             	mov    %rdx,%rsi
    bab3:	48 89 c7             	mov    %rax,%rdi
    bab6:	e8 f4 b5 ff ff       	callq  70af <safe_div_func_uint64_t_u_u>
    babb:	0f be c0             	movsbl %al,%eax
    babe:	89 de                	mov    %ebx,%esi
    bac0:	89 c7                	mov    %eax,%edi
    bac2:	e8 4b a7 ff ff       	callq  6212 <safe_mul_func_int8_t_s_s>
    bac7:	48 8b 85 a0 e8 ff ff 	mov    -0x1760(%rbp),%rax
    bace:	48 8d 15 bb 5b 01 00 	lea    0x15bbb(%rip),%rdx        # 21690 <g_1606+0x10>
    bad5:	48 39 d0             	cmp    %rdx,%rax
    bad8:	0f 95 c0             	setne  %al
    badb:	0f b6 c0             	movzbl %al,%eax
    bade:	39 85 f8 e7 ff ff    	cmp    %eax,-0x1808(%rbp)
    bae4:	0f 9f c0             	setg   %al
    bae7:	89 c2                	mov    %eax,%edx
    bae9:	8b 85 d0 e8 ff ff    	mov    -0x1730(%rbp),%eax
    baef:	09 d0                	or     %edx,%eax
    baf1:	0f be c0             	movsbl %al,%eax
    baf4:	be 05 00 00 00       	mov    $0x5,%esi
    baf9:	89 c7                	mov    %eax,%edi
    bafb:	e8 6c a8 ff ff       	callq  636c <safe_rshift_func_int8_t_s_u>
    bb00:	48 8b 95 f8 e8 ff ff 	mov    -0x1708(%rbp),%rdx
    bb07:	8b 0a                	mov    (%rdx),%ecx
    bb09:	0f be d0             	movsbl %al,%edx
    bb0c:	48 8b 85 f8 e8 ff ff 	mov    -0x1708(%rbp),%rax
    bb13:	21 ca                	and    %ecx,%edx
    bb15:	89 10                	mov    %edx,(%rax)
    bb17:	48 8b 85 a8 ea ff ff 	mov    -0x1558(%rbp),%rax
    bb1e:	0f b7 00             	movzwl (%rax),%eax
    bb21:	8d 48 01             	lea    0x1(%rax),%ecx
    bb24:	48 8b 95 a8 ea ff ff 	mov    -0x1558(%rbp),%rdx
    bb2b:	66 89 0a             	mov    %cx,(%rdx)
    bb2e:	0f b7 c0             	movzwl %ax,%eax
    bb31:	89 c6                	mov    %eax,%esi
    bb33:	bf fe ff 00 00       	mov    $0xfffe,%edi
    bb38:	e8 00 b2 ff ff       	callq  6d3d <safe_mul_func_uint16_t_u_u>
    bb3d:	0f b7 d0             	movzwl %ax,%edx
    bb40:	8b 85 d0 e8 ff ff    	mov    -0x1730(%rbp),%eax
    bb46:	39 c2                	cmp    %eax,%edx
    bb48:	74 2c                	je     bb76 <func_24+0x1723>
    bb4a:	48 8d 05 57 44 01 00 	lea    0x14457(%rip),%rax        # 1ffa8 <g_63>
    bb51:	48 89 85 e0 ea ff ff 	mov    %rax,-0x1520(%rbp)
    bb58:	48 8b 85 88 e7 ff ff 	mov    -0x1878(%rbp),%rax
    bb5f:	48 89 c7             	mov    %rax,%rdi
    bb62:	e8 8e 84 00 00       	callq  13ff5 <func_59>
    bb67:	48 8b 95 e0 ea ff ff 	mov    -0x1520(%rbp),%rdx
    bb6e:	48 89 02             	mov    %rax,(%rdx)
    bb71:	e9 5e 01 00 00       	jmpq   bcd4 <func_24+0x1881>
    bb76:	48 8d 85 f8 e8 ff ff 	lea    -0x1708(%rbp),%rax
    bb7d:	48 89 85 d0 ea ff ff 	mov    %rax,-0x1530(%rbp)
    bb84:	48 c7 85 d8 ea ff ff 	movq   $0x0,-0x1528(%rbp)
    bb8b:	00 00 00 00 
    bb8f:	c7 85 cc e7 ff ff 00 	movl   $0x0,-0x1834(%rbp)
    bb96:	00 00 00 
    bb99:	eb 71                	jmp    bc0c <func_24+0x17b9>
    bb9b:	c7 85 d0 e7 ff ff 00 	movl   $0x0,-0x1830(%rbp)
    bba2:	00 00 00 
    bba5:	eb 55                	jmp    bbfc <func_24+0x17a9>
    bba7:	c7 85 e0 e7 ff ff 00 	movl   $0x0,-0x1820(%rbp)
    bbae:	00 00 00 
    bbb1:	eb 39                	jmp    bbec <func_24+0x1799>
    bbb3:	8b 85 e0 e7 ff ff    	mov    -0x1820(%rbp),%eax
    bbb9:	48 63 d0             	movslq %eax,%rdx
    bbbc:	8b 85 d0 e7 ff ff    	mov    -0x1830(%rbp),%eax
    bbc2:	48 98                	cltq   
    bbc4:	8b 8d cc e7 ff ff    	mov    -0x1834(%rbp),%ecx
    bbca:	48 63 c9             	movslq %ecx,%rcx
    bbcd:	48 01 c9             	add    %rcx,%rcx
    bbd0:	48 01 ca             	add    %rcx,%rdx
    bbd3:	48 01 c2             	add    %rax,%rdx
    bbd6:	48 8d 85 a8 e8 ff ff 	lea    -0x1758(%rbp),%rax
    bbdd:	48 89 84 d5 90 f8 ff 	mov    %rax,-0x770(%rbp,%rdx,8)
    bbe4:	ff 
    bbe5:	83 85 e0 e7 ff ff 01 	addl   $0x1,-0x1820(%rbp)
    bbec:	83 bd e0 e7 ff ff 00 	cmpl   $0x0,-0x1820(%rbp)
    bbf3:	7e be                	jle    bbb3 <func_24+0x1760>
    bbf5:	83 85 d0 e7 ff ff 01 	addl   $0x1,-0x1830(%rbp)
    bbfc:	83 bd d0 e7 ff ff 01 	cmpl   $0x1,-0x1830(%rbp)
    bc03:	7e a2                	jle    bba7 <func_24+0x1754>
    bc05:	83 85 cc e7 ff ff 01 	addl   $0x1,-0x1834(%rbp)
    bc0c:	83 bd cc e7 ff ff 01 	cmpl   $0x1,-0x1834(%rbp)
    bc13:	7e 86                	jle    bb9b <func_24+0x1748>
    bc15:	8b 85 c0 e7 ff ff    	mov    -0x1840(%rbp),%eax
    bc1b:	0f be d0             	movsbl %al,%edx
    bc1e:	48 8b 8d 88 e7 ff ff 	mov    -0x1878(%rbp),%rcx
    bc25:	48 8b 85 d0 ea ff ff 	mov    -0x1530(%rbp),%rax
    bc2c:	48 89 08             	mov    %rcx,(%rax)
    bc2f:	48 8b 05 5a 44 01 00 	mov    0x1445a(%rip),%rax        # 20090 <g_797>
    bc36:	48 8b 00             	mov    (%rax),%rax
    bc39:	0f b6 00             	movzbl (%rax),%eax
    bc3c:	0f be c0             	movsbl %al,%eax
    bc3f:	89 d6                	mov    %edx,%esi
    bc41:	89 c7                	mov    %eax,%edi
    bc43:	e8 e9 a5 ff ff       	callq  6231 <safe_mod_func_int8_t_s_s>
    bc48:	48 8b 95 a8 ea ff ff 	mov    -0x1558(%rbp),%rdx
    bc4f:	0f b7 12             	movzwl (%rdx),%edx
    bc52:	66 98                	cbtw   
    bc54:	31 d0                	xor    %edx,%eax
    bc56:	89 c2                	mov    %eax,%edx
    bc58:	48 8b 85 a8 ea ff ff 	mov    -0x1558(%rbp),%rax
    bc5f:	66 89 10             	mov    %dx,(%rax)
    bc62:	48 8b 05 1f 44 01 00 	mov    0x1441f(%rip),%rax        # 20088 <g_798>
    bc69:	0f b6 00             	movzbl (%rax),%eax
    bc6c:	48 8b 05 3d 43 01 00 	mov    0x1433d(%rip),%rax        # 1ffb0 <g_113>
    bc73:	c7 00 01 00 00 00    	movl   $0x1,(%rax)
    bc79:	48 8b 05 30 44 01 00 	mov    0x14430(%rip),%rax        # 200b0 <g_1002>
    bc80:	48 8b 10             	mov    (%rax),%rdx
    bc83:	48 8b 85 a8 e8 ff ff 	mov    -0x1758(%rbp),%rax
    bc8a:	48 89 05 4f 43 01 00 	mov    %rax,0x1434f(%rip)        # 1ffe0 <g_130>
    bc91:	48 8b 05 48 43 01 00 	mov    0x14348(%rip),%rax        # 1ffe0 <g_130>
    bc98:	48 39 c2             	cmp    %rax,%rdx
    bc9b:	0f 95 c0             	setne  %al
    bc9e:	0f b6 d0             	movzbl %al,%edx
    bca1:	8b 85 b0 e7 ff ff    	mov    -0x1850(%rbp),%eax
    bca7:	39 c2                	cmp    %eax,%edx
    bca9:	0f 9f c2             	setg   %dl
    bcac:	48 8b 05 1d 43 01 00 	mov    0x1431d(%rip),%rax        # 1ffd0 <g_111>
    bcb3:	48 8b 00             	mov    (%rax),%rax
    bcb6:	48 8b 00             	mov    (%rax),%rax
    bcb9:	0f b6 d2             	movzbl %dl,%edx
    bcbc:	89 10                	mov    %edx,(%rax)
    bcbe:	48 8b 05 13 43 01 00 	mov    0x14313(%rip),%rax        # 1ffd8 <g_110>
    bcc5:	48 8b 00             	mov    (%rax),%rax
    bcc8:	48 8b 00             	mov    (%rax),%rax
    bccb:	48 8b 00             	mov    (%rax),%rax
    bcce:	c7 00 a3 af 96 17    	movl   $0x1796afa3,(%rax)
    bcd4:	48 8b 85 50 e9 ff ff 	mov    -0x16b0(%rbp),%rax
    bcdb:	c7 00 00 00 00 00    	movl   $0x0,(%rax)
    bce1:	48 c7 85 e8 ea ff ff 	movq   $0x0,-0x1518(%rbp)
    bce8:	00 00 00 00 
    bcec:	48 8d 85 90 f8 ff ff 	lea    -0x770(%rbp),%rax
    bcf3:	48 8d 15 26 3f 01 00 	lea    0x13f26(%rip),%rdx        # 1fc20 <g_3242+0xf58>
    bcfa:	b9 48 00 00 00       	mov    $0x48,%ecx
    bcff:	48 89 c7             	mov    %rax,%rdi
    bd02:	48 89 d6             	mov    %rdx,%rsi
    bd05:	f3 48 a5             	rep movsq %ds:(%rsi),%es:(%rdi)
    bd08:	48 8d 85 90 f8 ff ff 	lea    -0x770(%rbp),%rax
    bd0f:	48 05 38 01 00 00    	add    $0x138,%rax
    bd15:	48 89 85 00 e9 ff ff 	mov    %rax,-0x1700(%rbp)
    bd1c:	48 8d 85 00 e9 ff ff 	lea    -0x1700(%rbp),%rax
    bd23:	48 89 85 f0 ea ff ff 	mov    %rax,-0x1510(%rbp)
    bd2a:	48 8d 05 39 21 01 00 	lea    0x12139(%rip),%rax        # 1de6a <g_1600+0x2a>
    bd31:	48 89 85 f8 ea ff ff 	mov    %rax,-0x1508(%rbp)
    bd38:	c7 85 54 e8 ff ff 08 	movl   $0x8,-0x17ac(%rbp)
    bd3f:	00 00 00 
    bd42:	48 c7 85 00 eb ff ff 	movq   $0x0,-0x1500(%rbp)
    bd49:	00 00 00 00 
    bd4d:	48 8d 05 22 18 01 00 	lea    0x11822(%rip),%rax        # 1d576 <g_196>
    bd54:	48 89 85 08 eb ff ff 	mov    %rax,-0x14f8(%rbp)
    bd5b:	48 8d 05 5e 43 01 00 	lea    0x1435e(%rip),%rax        # 200c0 <g_1266>
    bd62:	48 89 85 10 eb ff ff 	mov    %rax,-0x14f0(%rbp)
    bd69:	48 b8 88 8a 29 c7 30 	movabs $0xae680e30c7298a88,%rax
    bd70:	0e 68 ae 
    bd73:	48 89 85 18 eb ff ff 	mov    %rax,-0x14e8(%rbp)
    bd7a:	8b 9d c0 e7 ff ff    	mov    -0x1840(%rbp),%ebx
    bd80:	48 83 bd 48 ea ff ff 	cmpq   $0x0,-0x15b8(%rbp)
    bd87:	00 
    bd88:	0f 95 c0             	setne  %al
    bd8b:	44 0f b6 e0          	movzbl %al,%r12d
    bd8f:	48 8b 85 50 e9 ff ff 	mov    -0x16b0(%rbp),%rax
    bd96:	8b 00                	mov    (%rax),%eax
    bd98:	0f be c0             	movsbl %al,%eax
    bd9b:	48 8b 15 ee 42 01 00 	mov    0x142ee(%rip),%rdx        # 20090 <g_797>
    bda2:	48 8b 12             	mov    (%rdx),%rdx
    bda5:	48 39 95 70 ea ff ff 	cmp    %rdx,-0x1590(%rbp)
    bdac:	89 c6                	mov    %eax,%esi
    bdae:	bf 8f ff ff ff       	mov    $0xffffff8f,%edi
    bdb3:	e8 3a a4 ff ff       	callq  61f2 <safe_sub_func_int8_t_s_s>
    bdb8:	66 0f be d0          	movsbw %al,%dx
    bdbc:	48 8b 85 f8 ea ff ff 	mov    -0x1508(%rbp),%rax
    bdc3:	66 89 10             	mov    %dx,(%rax)
    bdc6:	48 8b 85 f8 ea ff ff 	mov    -0x1508(%rbp),%rax
    bdcd:	0f b7 00             	movzwl (%rax),%eax
    bdd0:	0f b7 c0             	movzwl %ax,%eax
    bdd3:	48 8b 95 f0 ea ff ff 	mov    -0x1510(%rbp),%rdx
    bdda:	48 8d 0d 77 43 01 00 	lea    0x14377(%rip),%rcx        # 20158 <g_1728>
    bde1:	48 89 0a             	mov    %rcx,(%rdx)
    bde4:	89 c6                	mov    %eax,%esi
    bde6:	bf 01 00 00 00       	mov    $0x1,%edi
    bdeb:	e8 6c af ff ff       	callq  6d5c <safe_mod_func_uint16_t_u_u>
    bdf0:	48 8b 85 18 e9 ff ff 	mov    -0x16e8(%rbp),%rax
    bdf7:	8b 00                	mov    (%rax),%eax
    bdf9:	83 f8 01             	cmp    $0x1,%eax
    bdfc:	0f 9e c0             	setle  %al
    bdff:	0f b6 c0             	movzbl %al,%eax
    be02:	be 03 00 00 00       	mov    $0x3,%esi
    be07:	89 c7                	mov    %eax,%edi
    be09:	e8 f8 af ff ff       	callq  6e06 <safe_lshift_func_uint16_t_u_u>
    be0e:	0f b7 c0             	movzwl %ax,%eax
    be11:	41 39 c4             	cmp    %eax,%r12d
    be14:	0f 9e c0             	setle  %al
    be17:	0f b6 c0             	movzbl %al,%eax
    be1a:	89 c7                	mov    %eax,%edi
    be1c:	e8 9e a3 ff ff       	callq  61bf <safe_unary_minus_func_int8_t_s>
    be21:	48 0f be c0          	movsbq %al,%rax
    be25:	48 be cb 81 17 ea 40 	movabs $0xf2c01040ea1781cb,%rsi
    be2c:	10 c0 f2 
    be2f:	48 89 c7             	mov    %rax,%rdi
    be32:	e8 49 b2 ff ff       	callq  7080 <safe_mod_func_uint64_t_u_u>
    be37:	89 c2                	mov    %eax,%edx
    be39:	48 8b 85 18 e9 ff ff 	mov    -0x16e8(%rbp),%rax
    be40:	8b 00                	mov    (%rax),%eax
    be42:	89 d6                	mov    %edx,%esi
    be44:	89 c7                	mov    %eax,%edi
    be46:	e8 b4 a8 ff ff       	callq  66ff <safe_div_func_int32_t_s_s>
    be4b:	0f be c0             	movsbl %al,%eax
    be4e:	89 de                	mov    %ebx,%esi
    be50:	89 c7                	mov    %eax,%edi
    be52:	e8 4a a4 ff ff       	callq  62a1 <safe_lshift_func_int8_t_s_s>
    be57:	0f be c0             	movsbl %al,%eax
    be5a:	39 85 54 e8 ff ff    	cmp    %eax,-0x17ac(%rbp)
    be60:	48 8d 85 b0 e7 ff ff 	lea    -0x1850(%rbp),%rax
    be67:	48 89 85 d8 e8 ff ff 	mov    %rax,-0x1728(%rbp)
    be6e:	48 8b 85 08 eb ff ff 	mov    -0x14f8(%rbp),%rax
    be75:	66 c7 00 00 00       	movw   $0x0,(%rax)
    be7a:	48 8b 85 10 e9 ff ff 	mov    -0x16f0(%rbp),%rax
    be81:	0f b6 00             	movzbl (%rax),%eax
    be84:	83 f0 06             	xor    $0x6,%eax
    be87:	89 c2                	mov    %eax,%edx
    be89:	48 8b 85 10 e9 ff ff 	mov    -0x16f0(%rbp),%rax
    be90:	88 10                	mov    %dl,(%rax)
    be92:	48 8b 85 88 e7 ff ff 	mov    -0x1878(%rbp),%rax
    be99:	48 89 85 88 e7 ff ff 	mov    %rax,-0x1878(%rbp)
    bea0:	48 8b 85 d8 e8 ff ff 	mov    -0x1728(%rbp),%rax
    bea7:	8b 00                	mov    (%rax),%eax
    bea9:	0f be d8             	movsbl %al,%ebx
    beac:	48 8b 05 7d 1b 01 00 	mov    0x11b7d(%rip),%rax        # 1da30 <g_527>
    beb3:	8b 85 c0 e7 ff ff    	mov    -0x1840(%rbp),%eax
    beb9:	0f b7 d0             	movzwl %ax,%edx
    bebc:	48 8b 85 d8 e8 ff ff 	mov    -0x1728(%rbp),%rax
    bec3:	8b 00                	mov    (%rax),%eax
    bec5:	f7 d0                	not    %eax
    bec7:	c1 e8 1f             	shr    $0x1f,%eax
    beca:	0f b6 c0             	movzbl %al,%eax
    becd:	89 d6                	mov    %edx,%esi
    becf:	89 c7                	mov    %eax,%edi
    bed1:	e8 b8 ae ff ff       	callq  6d8e <safe_div_func_uint16_t_u_u>
    bed6:	0f b7 d0             	movzwl %ax,%edx
    bed9:	8b 05 f1 1a 01 00    	mov    0x11af1(%rip),%eax        # 1d9d0 <g_383>
    bedf:	0f be c0             	movsbl %al,%eax
    bee2:	89 d6                	mov    %edx,%esi
    bee4:	89 c7                	mov    %eax,%edi
    bee6:	e8 03 a4 ff ff       	callq  62ee <safe_lshift_func_int8_t_s_u>
    beeb:	0f be c0             	movsbl %al,%eax
    beee:	89 de                	mov    %ebx,%esi
    bef0:	89 c7                	mov    %eax,%edi
    bef2:	e8 fb a2 ff ff       	callq  61f2 <safe_sub_func_int8_t_s_s>
    bef7:	48 0f be d0          	movsbq %al,%rdx
    befb:	48 8b 05 56 57 01 00 	mov    0x15756(%rip),%rax        # 21658 <g_1464>
    bf02:	48 8b 00             	mov    (%rax),%rax
    bf05:	48 39 c2             	cmp    %rax,%rdx
    bf08:	0f 95 c0             	setne  %al
    bf0b:	0f b6 d0             	movzbl %al,%edx
    bf0e:	48 8b 85 88 e7 ff ff 	mov    -0x1878(%rbp),%rax
    bf15:	8b 00                	mov    (%rax),%eax
    bf17:	39 c2                	cmp    %eax,%edx
    bf19:	0f 9e c0             	setle  %al
    bf1c:	0f b6 d8             	movzbl %al,%ebx
    bf1f:	be 01 00 00 00       	mov    $0x1,%esi
    bf24:	bf 64 69 00 00       	mov    $0x6964,%edi
    bf29:	e8 d8 ae ff ff       	callq  6e06 <safe_lshift_func_uint16_t_u_u>
    bf2e:	98                   	cwtl   
    bf2f:	89 c6                	mov    %eax,%esi
    bf31:	bf 35 02 00 00       	mov    $0x235,%edi
    bf36:	e8 78 a4 ff ff       	callq  63b3 <safe_add_func_int16_t_s_s>
    bf3b:	98                   	cwtl   
    bf3c:	89 de                	mov    %ebx,%esi
    bf3e:	89 c7                	mov    %eax,%edi
    bf40:	e8 6e a4 ff ff       	callq  63b3 <safe_add_func_int16_t_s_s>
    bf45:	89 c2                	mov    %eax,%edx
    bf47:	48 8b 05 62 40 01 00 	mov    0x14062(%rip),%rax        # 1ffb0 <g_113>
    bf4e:	0f bf d2             	movswl %dx,%edx
    bf51:	89 10                	mov    %edx,(%rax)
    bf53:	48 8d 05 46 41 01 00 	lea    0x14146(%rip),%rax        # 200a0 <g_902>
    bf5a:	48 89 85 58 e9 ff ff 	mov    %rax,-0x16a8(%rbp)
    bf61:	48 8b 05 48 40 01 00 	mov    0x14048(%rip),%rax        # 1ffb0 <g_113>
    bf68:	8b 10                	mov    (%rax),%edx
    bf6a:	48 8b 85 18 eb ff ff 	mov    -0x14e8(%rbp),%rax
    bf71:	25 f4 d7 d0 18       	and    $0x18d0d7f4,%eax
    bf76:	89 c1                	mov    %eax,%ecx
    bf78:	48 8b 05 31 40 01 00 	mov    0x14031(%rip),%rax        # 1ffb0 <g_113>
    bf7f:	21 ca                	and    %ecx,%edx
    bf81:	89 10                	mov    %edx,(%rax)
    bf83:	48 8b 05 26 40 01 00 	mov    0x14026(%rip),%rax        # 1ffb0 <g_113>
    bf8a:	8b 10                	mov    (%rax),%edx
    bf8c:	48 8b 85 50 e9 ff ff 	mov    -0x16b0(%rbp),%rax
    bf93:	8b 00                	mov    (%rax),%eax
    bf95:	09 c2                	or     %eax,%edx
    bf97:	48 8b 85 50 e9 ff ff 	mov    -0x16b0(%rbp),%rax
    bf9e:	89 10                	mov    %edx,(%rax)
    bfa0:	48 8b 05 31 40 01 00 	mov    0x14031(%rip),%rax        # 1ffd8 <g_110>
    bfa7:	48 8b 00             	mov    (%rax),%rax
    bfaa:	48 8b 00             	mov    (%rax),%rax
    bfad:	48 8b 00             	mov    (%rax),%rax
    bfb0:	48 8b 95 50 e9 ff ff 	mov    -0x16b0(%rbp),%rdx
    bfb7:	8b 12                	mov    (%rdx),%edx
    bfb9:	89 10                	mov    %edx,(%rax)
    bfbb:	90                   	nop
    bfbc:	f3 0f 1e fa          	endbr64 
    bfc0:	48 8d 85 d0 e8 ff ff 	lea    -0x1730(%rbp),%rax
    bfc7:	48 89 85 b8 ea ff ff 	mov    %rax,-0x1548(%rbp)
    bfce:	48 8b 85 b8 ea ff ff 	mov    -0x1548(%rbp),%rax
    bfd5:	8b 00                	mov    (%rax),%eax
    bfd7:	0f bf d8             	movswl %ax,%ebx
    bfda:	be 09 00 00 00       	mov    $0x9,%esi
    bfdf:	bf f3 98 00 00       	mov    $0x98f3,%edi
    bfe4:	e8 5f ae ff ff       	callq  6e48 <safe_rshift_func_uint16_t_u_s>
    bfe9:	0f b7 d0             	movzwl %ax,%edx
    bfec:	48 8b 85 b8 ea ff ff 	mov    -0x1548(%rbp),%rax
    bff3:	8b 00                	mov    (%rax),%eax
    bff5:	31 c2                	xor    %eax,%edx
    bff7:	41 89 d7             	mov    %edx,%r15d
    bffa:	48 8b 85 78 ea ff ff 	mov    -0x1588(%rbp),%rax
    c001:	48 8b 00             	mov    (%rax),%rax
    c004:	8b 00                	mov    (%rax),%eax
    c006:	44 0f bf e0          	movswl %ax,%r12d
    c00a:	48 8b 85 b8 ea ff ff 	mov    -0x1548(%rbp),%rax
    c011:	8b 00                	mov    (%rax),%eax
    c013:	44 0f bf e8          	movswl %ax,%r13d
    c017:	48 8b 05 52 1a 01 00 	mov    0x11a52(%rip),%rax        # 1da70 <g_727>
    c01e:	48 c1 e8 20          	shr    $0x20,%rax
    c022:	66 25 ff 7f          	and    $0x7fff,%ax
    c026:	44 0f b7 f0          	movzwl %ax,%r14d
    c02a:	48 8b 85 f0 ee ff ff 	mov    -0x1110(%rbp),%rax
    c031:	89 85 84 e7 ff ff    	mov    %eax,-0x187c(%rbp)
    c037:	0f b7 05 32 1b 01 00 	movzwl 0x11b32(%rip),%eax        # 1db70 <g_1187>
    c03e:	c1 e0 04             	shl    $0x4,%eax
    c041:	66 c1 f8 04          	sar    $0x4,%ax
    c045:	48 0f bf d0          	movswq %ax,%rdx
    c049:	0f b7 05 60 1b 01 00 	movzwl 0x11b60(%rip),%eax        # 1dbb0 <g_1496>
    c050:	c1 e0 04             	shl    $0x4,%eax
    c053:	66 c1 f8 04          	sar    $0x4,%ax
    c057:	48 0f bf c0          	movswq %ax,%rax
    c05b:	48 89 d6             	mov    %rdx,%rsi
    c05e:	48 89 c7             	mov    %rax,%rdi
    c061:	e8 1a b0 ff ff       	callq  7080 <safe_mod_func_uint64_t_u_u>
    c066:	48 83 bd 78 ea ff ff 	cmpq   $0x0,-0x1588(%rbp)
    c06d:	00 
    c06e:	0f 95 c0             	setne  %al
    c071:	0f b6 c0             	movzbl %al,%eax
    c074:	89 c7                	mov    %eax,%edi
    c076:	e8 22 a3 ff ff       	callq  639d <safe_unary_minus_func_int16_t_s>
    c07b:	0f be c0             	movsbl %al,%eax
    c07e:	be d2 ff ff ff       	mov    $0xffffffd2,%esi
    c083:	89 c7                	mov    %eax,%edi
    c085:	e8 68 a1 ff ff       	callq  61f2 <safe_sub_func_int8_t_s_s>
    c08a:	8b b5 84 e7 ff ff    	mov    -0x187c(%rbp),%esi
    c090:	bf 01 00 00 00       	mov    $0x1,%edi
    c095:	e8 07 a2 ff ff       	callq  62a1 <safe_lshift_func_int8_t_s_s>
    c09a:	4c 89 f6             	mov    %r14,%rsi
    c09d:	bf 01 00 00 00       	mov    $0x1,%edi
    c0a2:	e8 01 a8 ff ff       	callq  68a8 <safe_sub_func_int64_t_s_s>
    c0a7:	48 39 85 c0 ea ff ff 	cmp    %rax,-0x1540(%rbp)
    c0ae:	0f 92 c0             	setb   %al
    c0b1:	0f b6 d0             	movzbl %al,%edx
    c0b4:	48 8b 85 50 e9 ff ff 	mov    -0x16b0(%rbp),%rax
    c0bb:	89 10                	mov    %edx,(%rax)
    c0bd:	48 8b 85 50 e9 ff ff 	mov    -0x16b0(%rbp),%rax
    c0c4:	8b 00                	mov    (%rax),%eax
    c0c6:	89 c2                	mov    %eax,%edx
    c0c8:	48 8b 85 c8 ea ff ff 	mov    -0x1538(%rbp),%rax
    c0cf:	66 89 10             	mov    %dx,(%rax)
    c0d2:	48 8b 85 c8 ea ff ff 	mov    -0x1538(%rbp),%rax
    c0d9:	0f b7 00             	movzwl (%rax),%eax
    c0dc:	98                   	cwtl   
    c0dd:	44 89 ee             	mov    %r13d,%esi
    c0e0:	89 c7                	mov    %eax,%edi
    c0e2:	e8 6e a3 ff ff       	callq  6455 <safe_div_func_int16_t_s_s>
    c0e7:	0f bf d0             	movswl %ax,%edx
    c0ea:	0f b6 05 e3 1a 01 00 	movzbl 0x11ae3(%rip),%eax        # 1dbd4 <g_1521+0x4>
    c0f1:	0f b6 c0             	movzbl %al,%eax
    c0f4:	39 c2                	cmp    %eax,%edx
    c0f6:	0f 9c c0             	setl   %al
    c0f9:	0f b6 c0             	movzbl %al,%eax
    c0fc:	44 89 e6             	mov    %r12d,%esi
    c0ff:	89 c7                	mov    %eax,%edi
    c101:	e8 ef a2 ff ff       	callq  63f5 <safe_mul_func_int16_t_s_s>
    c106:	8b 85 84 ec ff ff    	mov    -0x137c(%rbp),%eax
    c10c:	44 89 fa             	mov    %r15d,%edx
    c10f:	09 d0                	or     %edx,%eax
    c111:	89 85 84 ec ff ff    	mov    %eax,-0x137c(%rbp)
    c117:	8b 95 84 ec ff ff    	mov    -0x137c(%rbp),%edx
    c11d:	48 8b 85 50 e9 ff ff 	mov    -0x16b0(%rbp),%rax
    c124:	8b 00                	mov    (%rax),%eax
    c126:	85 c0                	test   %eax,%eax
    c128:	0f 95 c0             	setne  %al
    c12b:	0f b6 c0             	movzbl %al,%eax
    c12e:	39 c2                	cmp    %eax,%edx
    c130:	0f 94 c0             	sete   %al
    c133:	0f b6 c0             	movzbl %al,%eax
    c136:	89 de                	mov    %ebx,%esi
    c138:	89 c7                	mov    %eax,%edi
    c13a:	e8 d7 a2 ff ff       	callq  6416 <safe_mod_func_int16_t_s_s>
    c13f:	48 8b 85 38 ea ff ff 	mov    -0x15c8(%rbp),%rax
    c146:	48 8b 10             	mov    (%rax),%rdx
    c149:	48 8b 05 28 3f 01 00 	mov    0x13f28(%rip),%rax        # 20078 <g_662+0x78>
    c150:	48 39 c2             	cmp    %rax,%rdx
    c153:	0f 94 c0             	sete   %al
    c156:	0f b6 c0             	movzbl %al,%eax
    c159:	89 c6                	mov    %eax,%esi
    c15b:	bf f9 ff 00 00       	mov    $0xfff9,%edi
    c160:	e8 d8 ab ff ff       	callq  6d3d <safe_mul_func_uint16_t_u_u>
    c165:	0f b7 d0             	movzwl %ax,%edx
    c168:	48 8b 85 18 e9 ff ff 	mov    -0x16e8(%rbp),%rax
    c16f:	89 10                	mov    %edx,(%rax)
    c171:	48 8b 85 18 e9 ff ff 	mov    -0x16e8(%rbp),%rax
    c178:	8b 00                	mov    (%rax),%eax
    c17a:	0f b7 c0             	movzwl %ax,%eax
    c17d:	89 c6                	mov    %eax,%esi
    c17f:	bf 78 4b 00 00       	mov    $0x4b78,%edi
    c184:	e8 05 ac ff ff       	callq  6d8e <safe_div_func_uint16_t_u_u>
    c189:	0f b7 c8             	movzwl %ax,%ecx
    c18c:	b8 ff ff ff ff       	mov    $0xffffffff,%eax
    c191:	0f bf d0             	movswl %ax,%edx
    c194:	48 8b 85 78 ea ff ff 	mov    -0x1588(%rbp),%rax
    c19b:	48 8b 00             	mov    (%rax),%rax
    c19e:	21 ca                	and    %ecx,%edx
    c1a0:	89 10                	mov    %edx,(%rax)
    c1a2:	48 8b 85 50 e9 ff ff 	mov    -0x16b0(%rbp),%rax
    c1a9:	8b 10                	mov    (%rax),%edx
    c1ab:	48 8b 85 88 e7 ff ff 	mov    -0x1878(%rbp),%rax
    c1b2:	8b 00                	mov    (%rax),%eax
    c1b4:	39 c2                	cmp    %eax,%edx
    c1b6:	0f 9c c0             	setl   %al
    c1b9:	0f b6 c0             	movzbl %al,%eax
    c1bc:	89 85 4c e8 ff ff    	mov    %eax,-0x17b4(%rbp)
    c1c2:	48 8b 85 d8 e8 ff ff 	mov    -0x1728(%rbp),%rax
    c1c9:	44 8b 28             	mov    (%rax),%r13d
    c1cc:	8b 1d fa 1f 01 00    	mov    0x11ffa(%rip),%ebx        # 1e1cc <g_1832+0x4>
    c1d2:	0f b7 05 07 1a 01 00 	movzwl 0x11a07(%rip),%eax        # 1dbe0 <g_1524>
    c1d9:	c1 e0 04             	shl    $0x4,%eax
    c1dc:	66 c1 f8 04          	sar    $0x4,%ax
    c1e0:	44 0f bf e0          	movswl %ax,%r12d
    c1e4:	48 8b 85 78 ea ff ff 	mov    -0x1588(%rbp),%rax
    c1eb:	48 8b 00             	mov    (%rax),%rax
    c1ee:	8b 00                	mov    (%rax),%eax
    c1f0:	0f be c0             	movsbl %al,%eax
    c1f3:	be 01 00 00 00       	mov    $0x1,%esi
    c1f8:	89 c7                	mov    %eax,%edi
    c1fa:	e8 f3 9f ff ff       	callq  61f2 <safe_sub_func_int8_t_s_s>
    c1ff:	48 0f be c0          	movsbq %al,%rax
    c203:	48 0d 0b 10 f8 1a    	or     $0x1af8100b,%rax
    c209:	48 89 c1             	mov    %rax,%rcx
    c20c:	48 8b 85 10 e9 ff ff 	mov    -0x16f0(%rbp),%rax
    c213:	0f b6 00             	movzbl (%rax),%eax
    c216:	89 c2                	mov    %eax,%edx
    c218:	89 c8                	mov    %ecx,%eax
    c21a:	21 d0                	and    %edx,%eax
    c21c:	89 c2                	mov    %eax,%edx
    c21e:	48 8b 85 10 e9 ff ff 	mov    -0x16f0(%rbp),%rax
    c225:	88 10                	mov    %dl,(%rax)
    c227:	48 8b 85 10 e9 ff ff 	mov    -0x16f0(%rbp),%rax
    c22e:	0f b6 00             	movzbl (%rax),%eax
    c231:	84 c0                	test   %al,%al
    c233:	74 13                	je     c248 <func_24+0x1df5>
    c235:	0f b7 85 a0 e7 ff ff 	movzwl -0x1860(%rbp),%eax
    c23c:	66 85 c0             	test   %ax,%ax
    c23f:	74 07                	je     c248 <func_24+0x1df5>
    c241:	b8 01 00 00 00       	mov    $0x1,%eax
    c246:	eb 05                	jmp    c24d <func_24+0x1dfa>
    c248:	b8 00 00 00 00       	mov    $0x0,%eax
    c24d:	89 c2                	mov    %eax,%edx
    c24f:	48 8b 85 88 e7 ff ff 	mov    -0x1878(%rbp),%rax
    c256:	8b 00                	mov    (%rax),%eax
    c258:	31 d0                	xor    %edx,%eax
    c25a:	98                   	cwtl   
    c25b:	44 89 e6             	mov    %r12d,%esi
    c25e:	89 c7                	mov    %eax,%edi
    c260:	e8 7c a2 ff ff       	callq  64e1 <safe_lshift_func_int16_t_s_u>
    c265:	98                   	cwtl   
    c266:	89 de                	mov    %ebx,%esi
    c268:	89 c7                	mov    %eax,%edi
    c26a:	e8 90 a4 ff ff       	callq  66ff <safe_div_func_int32_t_s_s>
    c26f:	41 39 c5             	cmp    %eax,%r13d
    c272:	0f 9e c0             	setle  %al
    c275:	0f b6 d0             	movzbl %al,%edx
    c278:	48 8b 85 50 e9 ff ff 	mov    -0x16b0(%rbp),%rax
    c27f:	8b 00                	mov    (%rax),%eax
    c281:	39 c2                	cmp    %eax,%edx
    c283:	0f 95 c0             	setne  %al
    c286:	0f b6 c0             	movzbl %al,%eax
    c289:	39 85 4c e8 ff ff    	cmp    %eax,-0x17b4(%rbp)
    c28f:	0f 9f c0             	setg   %al
    c292:	0f b6 d0             	movzbl %al,%edx
    c295:	8b 05 5d 1c 01 00    	mov    0x11c5d(%rip),%eax        # 1def8 <g_1708+0x8>
    c29b:	01 c0                	add    %eax,%eax
    c29d:	d1 f8                	sar    %eax
    c29f:	39 c2                	cmp    %eax,%edx
    c2a1:	0f 94 c0             	sete   %al
    c2a4:	0f b6 c0             	movzbl %al,%eax
    c2a7:	be b1 89 a9 31       	mov    $0x31a989b1,%esi
    c2ac:	89 c7                	mov    %eax,%edi
    c2ae:	e8 4a ac ff ff       	callq  6efd <safe_mod_func_uint32_t_u_u>
    c2b3:	48 8b 85 b8 ea ff ff 	mov    -0x1548(%rbp),%rax
    c2ba:	8b 10                	mov    (%rax),%edx
    c2bc:	48 8b 85 18 e9 ff ff 	mov    -0x16e8(%rbp),%rax
    c2c3:	8b 08                	mov    (%rax),%ecx
    c2c5:	48 8b 05 2c 3d 01 00 	mov    0x13d2c(%rip),%rax        # 1fff8 <g_626>
    c2cc:	48 8b 00             	mov    (%rax),%rax
    c2cf:	48 85 c0             	test   %rax,%rax
    c2d2:	0f 95 c0             	setne  %al
    c2d5:	0f b6 c0             	movzbl %al,%eax
    c2d8:	39 c1                	cmp    %eax,%ecx
    c2da:	0f 9d c0             	setge  %al
    c2dd:	0f b6 c0             	movzbl %al,%eax
    c2e0:	09 c2                	or     %eax,%edx
    c2e2:	48 8b 85 18 e9 ff ff 	mov    -0x16e8(%rbp),%rax
    c2e9:	8b 00                	mov    (%rax),%eax
    c2eb:	39 c2                	cmp    %eax,%edx
    c2ed:	0f 95 c0             	setne  %al
    c2f0:	0f b6 c0             	movzbl %al,%eax
    c2f3:	be 0a 00 00 00       	mov    $0xa,%esi
    c2f8:	89 c7                	mov    %eax,%edi
    c2fa:	e8 93 a1 ff ff       	callq  6492 <safe_lshift_func_int16_t_s_s>
    c2ff:	c7 85 50 e8 ff ff 01 	movl   $0x1,-0x17b0(%rbp)
    c306:	00 00 00 
    c309:	e9 09 03 00 00       	jmpq   c617 <func_24+0x21c4>
    c30e:	48 c7 85 90 ea ff ff 	movq   $0x6,-0x1570(%rbp)
    c315:	06 00 00 00 
    c319:	48 8d 85 a8 e7 ff ff 	lea    -0x1858(%rbp),%rax
    c320:	48 89 85 80 ec ff ff 	mov    %rax,-0x1380(%rbp)
    c327:	48 8d 85 a8 e7 ff ff 	lea    -0x1858(%rbp),%rax
    c32e:	48 89 85 88 ec ff ff 	mov    %rax,-0x1378(%rbp)
    c335:	48 8d 85 a8 e7 ff ff 	lea    -0x1858(%rbp),%rax
    c33c:	48 89 85 90 ec ff ff 	mov    %rax,-0x1370(%rbp)
    c343:	48 8d 85 a8 e7 ff ff 	lea    -0x1858(%rbp),%rax
    c34a:	48 89 85 98 ec ff ff 	mov    %rax,-0x1368(%rbp)
    c351:	48 8d 85 a8 e7 ff ff 	lea    -0x1858(%rbp),%rax
    c358:	48 89 85 a0 ec ff ff 	mov    %rax,-0x1360(%rbp)
    c35f:	48 8d 85 a8 e7 ff ff 	lea    -0x1858(%rbp),%rax
    c366:	48 89 85 a8 ec ff ff 	mov    %rax,-0x1358(%rbp)
    c36d:	48 8d 85 a8 e7 ff ff 	lea    -0x1858(%rbp),%rax
    c374:	48 89 85 b0 ec ff ff 	mov    %rax,-0x1350(%rbp)
    c37b:	48 8d 85 a8 e7 ff ff 	lea    -0x1858(%rbp),%rax
    c382:	48 89 85 b8 ec ff ff 	mov    %rax,-0x1348(%rbp)
    c389:	48 c7 85 98 ea ff ff 	movq   $0x1,-0x1568(%rbp)
    c390:	01 00 00 00 
    c394:	48 83 ad 98 ea ff ff 	subq   $0x1,-0x1568(%rbp)
    c39b:	01 
    c39c:	0f b7 05 ed 1b 01 00 	movzwl 0x11bed(%rip),%eax        # 1df90 <g_1753>
    c3a3:	0f b7 d0             	movzwl %ax,%edx
    c3a6:	48 8b 85 18 e9 ff ff 	mov    -0x16e8(%rbp),%rax
    c3ad:	8b 00                	mov    (%rax),%eax
    c3af:	39 c2                	cmp    %eax,%edx
    c3b1:	0f 9d c2             	setge  %dl
    c3b4:	48 8b 05 1d 3c 01 00 	mov    0x13c1d(%rip),%rax        # 1ffd8 <g_110>
    c3bb:	48 8b 00             	mov    (%rax),%rax
    c3be:	48 8b 00             	mov    (%rax),%rax
    c3c1:	48 8b 00             	mov    (%rax),%rax
    c3c4:	0f b6 d2             	movzbl %dl,%edx
    c3c7:	89 10                	mov    %edx,(%rax)
    c3c9:	c7 05 ed 1a 01 00 00 	movl   $0x0,0x11aed(%rip)        # 1dec0 <g_1601>
    c3d0:	00 00 00 
    c3d3:	e9 30 02 00 00       	jmpq   c608 <func_24+0x21b5>
    c3d8:	48 8d 85 68 e8 ff ff 	lea    -0x1798(%rbp),%rax
    c3df:	48 89 85 a0 ea ff ff 	mov    %rax,-0x1560(%rbp)
    c3e6:	48 8d 85 90 f8 ff ff 	lea    -0x770(%rbp),%rax
    c3ed:	48 8d 15 6c c2 00 00 	lea    0xc26c(%rip),%rdx        # 18660 <g_1879+0x5e0>
    c3f4:	b9 6c 00 00 00       	mov    $0x6c,%ecx
    c3f9:	48 89 c7             	mov    %rax,%rdi
    c3fc:	48 89 d6             	mov    %rdx,%rsi
    c3ff:	f3 48 a5             	rep movsq %ds:(%rsi),%es:(%rdi)
    c402:	48 8d 85 f0 ee ff ff 	lea    -0x1110(%rbp),%rax
    c409:	48 8d 15 b0 c5 00 00 	lea    0xc5b0(%rip),%rdx        # 189c0 <g_1879+0x940>
    c410:	b9 3f 00 00 00       	mov    $0x3f,%ecx
    c415:	48 89 c7             	mov    %rax,%rdi
    c418:	48 89 d6             	mov    %rdx,%rsi
    c41b:	f3 48 a5             	rep movsq %ds:(%rsi),%es:(%rdi)
    c41e:	48 8d 05 45 1a 01 00 	lea    0x11a45(%rip),%rax        # 1de6a <g_1600+0x2a>
    c425:	48 89 85 40 ec ff ff 	mov    %rax,-0x13c0(%rbp)
    c42c:	48 c7 85 48 ec ff ff 	movq   $0x0,-0x13b8(%rbp)
    c433:	00 00 00 00 
    c437:	48 8d 05 2c 1a 01 00 	lea    0x11a2c(%rip),%rax        # 1de6a <g_1600+0x2a>
    c43e:	48 89 85 50 ec ff ff 	mov    %rax,-0x13b0(%rbp)
    c445:	48 8d 05 1e 1a 01 00 	lea    0x11a1e(%rip),%rax        # 1de6a <g_1600+0x2a>
    c44c:	48 89 85 58 ec ff ff 	mov    %rax,-0x13a8(%rbp)
    c453:	48 c7 85 60 ec ff ff 	movq   $0x0,-0x13a0(%rbp)
    c45a:	00 00 00 00 
    c45e:	48 8d 05 05 1a 01 00 	lea    0x11a05(%rip),%rax        # 1de6a <g_1600+0x2a>
    c465:	48 89 85 68 ec ff ff 	mov    %rax,-0x1398(%rbp)
    c46c:	48 8d 05 f7 19 01 00 	lea    0x119f7(%rip),%rax        # 1de6a <g_1600+0x2a>
    c473:	48 89 85 70 ec ff ff 	mov    %rax,-0x1390(%rbp)
    c47a:	48 8b 95 68 e8 ff ff 	mov    -0x1798(%rbp),%rdx
    c481:	48 8b 85 a0 ea ff ff 	mov    -0x1560(%rbp),%rax
    c488:	48 89 10             	mov    %rdx,(%rax)
    c48b:	8b 05 db bb 00 00    	mov    0xbbdb(%rip),%eax        # 1806c <g_1685+0xc>
    c491:	25 ff ff 03 00       	and    $0x3ffff,%eax
    c496:	85 c0                	test   %eax,%eax
    c498:	74 05                	je     c49f <func_24+0x204c>
    c49a:	e9 fd fe ff ff       	jmpq   c39c <func_24+0x1f49>
    c49f:	48 8b 85 b0 e8 ff ff 	mov    -0x1750(%rbp),%rax
    c4a6:	48 89 85 80 ea ff ff 	mov    %rax,-0x1580(%rbp)
    c4ad:	48 8b 05 1c 3c 01 00 	mov    0x13c1c(%rip),%rax        # 200d0 <g_1405>
    c4b4:	48 39 85 80 ea ff ff 	cmp    %rax,-0x1580(%rbp)
    c4bb:	0f 95 c0             	setne  %al
    c4be:	0f b6 d0             	movzbl %al,%edx
    c4c1:	48 8b 85 78 ea ff ff 	mov    -0x1588(%rbp),%rax
    c4c8:	48 8b 00             	mov    (%rax),%rax
    c4cb:	8b 00                	mov    (%rax),%eax
    c4cd:	09 d0                	or     %edx,%eax
    c4cf:	85 c0                	test   %eax,%eax
    c4d1:	75 0d                	jne    c4e0 <func_24+0x208d>
    c4d3:	48 8b 85 50 e9 ff ff 	mov    -0x16b0(%rbp),%rax
    c4da:	8b 00                	mov    (%rax),%eax
    c4dc:	85 c0                	test   %eax,%eax
    c4de:	74 07                	je     c4e7 <func_24+0x2094>
    c4e0:	ba 01 00 00 00       	mov    $0x1,%edx
    c4e5:	eb 05                	jmp    c4ec <func_24+0x2099>
    c4e7:	ba 00 00 00 00       	mov    $0x0,%edx
    c4ec:	8b 85 b4 f0 ff ff    	mov    -0xf4c(%rbp),%eax
    c4f2:	39 c2                	cmp    %eax,%edx
    c4f4:	0f 95 c0             	setne  %al
    c4f7:	0f b6 d0             	movzbl %al,%edx
    c4fa:	48 8b 85 78 ea ff ff 	mov    -0x1588(%rbp),%rax
    c501:	48 8b 00             	mov    (%rax),%rax
    c504:	8b 00                	mov    (%rax),%eax
    c506:	39 c2                	cmp    %eax,%edx
    c508:	0f 9f c0             	setg   %al
    c50b:	0f b6 d0             	movzbl %al,%edx
    c50e:	8b 85 14 ef ff ff    	mov    -0x10ec(%rbp),%eax
    c514:	21 d0                	and    %edx,%eax
    c516:	89 c2                	mov    %eax,%edx
    c518:	8b 05 02 15 01 00    	mov    0x11502(%rip),%eax        # 1da20 <g_510+0x10>
    c51e:	c1 e0 05             	shl    $0x5,%eax
    c521:	c1 f8 05             	sar    $0x5,%eax
    c524:	0f be c0             	movsbl %al,%eax
    c527:	89 d6                	mov    %edx,%esi
    c529:	89 c7                	mov    %eax,%edi
    c52b:	e8 be 9d ff ff       	callq  62ee <safe_lshift_func_int8_t_s_u>
    c530:	66 98                	cbtw   
    c532:	0f b7 c0             	movzwl %ax,%eax
    c535:	be 08 00 00 00       	mov    $0x8,%esi
    c53a:	89 c7                	mov    %eax,%edi
    c53c:	e8 7d a8 ff ff       	callq  6dbe <safe_lshift_func_uint16_t_u_s>
    c541:	66 85 c0             	test   %ax,%ax
    c544:	74 07                	je     c54d <func_24+0x20fa>
    c546:	b8 01 00 00 00       	mov    $0x1,%eax
    c54b:	eb 05                	jmp    c552 <func_24+0x20ff>
    c54d:	b8 00 00 00 00       	mov    $0x0,%eax
    c552:	89 85 cc fa ff ff    	mov    %eax,-0x534(%rbp)
    c558:	48 8b 85 78 ea ff ff 	mov    -0x1588(%rbp),%rax
    c55f:	48 8b 00             	mov    (%rax),%rax
    c562:	8b 00                	mov    (%rax),%eax
    c564:	0f b7 d0             	movzwl %ax,%edx
    c567:	0f b6 85 9b e7 ff ff 	movzbl -0x1865(%rbp),%eax
    c56e:	89 d6                	mov    %edx,%esi
    c570:	89 c7                	mov    %eax,%edi
    c572:	e8 c6 a7 ff ff       	callq  6d3d <safe_mul_func_uint16_t_u_u>
    c577:	48 8b 85 d8 e8 ff ff 	mov    -0x1728(%rbp),%rax
    c57e:	8b 00                	mov    (%rax),%eax
    c580:	85 c0                	test   %eax,%eax
    c582:	75 08                	jne    c58c <func_24+0x2139>
    c584:	8b 85 64 f0 ff ff    	mov    -0xf9c(%rbp),%eax
    c58a:	85 c0                	test   %eax,%eax
    c58c:	48 8d 85 a0 e7 ff ff 	lea    -0x1860(%rbp),%rax
    c593:	48 39 85 60 e9 ff ff 	cmp    %rax,-0x16a0(%rbp)
    c59a:	75 1b                	jne    c5b7 <func_24+0x2164>
    c59c:	48 8b 05 2d 19 01 00 	mov    0x1192d(%rip),%rax        # 1ded0 <g_1698>
    c5a3:	48 c1 e8 0c          	shr    $0xc,%rax
    c5a7:	25 ff ff 01 00       	and    $0x1ffff,%eax
    c5ac:	85 c0                	test   %eax,%eax
    c5ae:	74 07                	je     c5b7 <func_24+0x2164>
    c5b0:	ba 01 00 00 00       	mov    $0x1,%edx
    c5b5:	eb 05                	jmp    c5bc <func_24+0x2169>
    c5b7:	ba 00 00 00 00       	mov    $0x0,%edx
    c5bc:	48 8b 85 18 e9 ff ff 	mov    -0x16e8(%rbp),%rax
    c5c3:	8b 00                	mov    (%rax),%eax
    c5c5:	09 c2                	or     %eax,%edx
    c5c7:	48 8b 85 18 e9 ff ff 	mov    -0x16e8(%rbp),%rax
    c5ce:	89 10                	mov    %edx,(%rax)
    c5d0:	48 8b 85 18 e9 ff ff 	mov    -0x16e8(%rbp),%rax
    c5d7:	8b 10                	mov    (%rax),%edx
    c5d9:	48 8b 85 d8 e8 ff ff 	mov    -0x1728(%rbp),%rax
    c5e0:	8b 00                	mov    (%rax),%eax
    c5e2:	21 c2                	and    %eax,%edx
    c5e4:	48 8b 85 18 e9 ff ff 	mov    -0x16e8(%rbp),%rax
    c5eb:	89 10                	mov    %edx,(%rax)
    c5ed:	8b 05 cd 18 01 00    	mov    0x118cd(%rip),%eax        # 1dec0 <g_1601>
    c5f3:	89 c0                	mov    %eax,%eax
    c5f5:	be 07 00 00 00       	mov    $0x7,%esi
    c5fa:	48 89 c7             	mov    %rax,%rdi
    c5fd:	e8 3f a2 ff ff       	callq  6841 <safe_add_func_int64_t_s_s>
    c602:	89 05 b8 18 01 00    	mov    %eax,0x118b8(%rip)        # 1dec0 <g_1601>
    c608:	8b 05 b2 18 01 00    	mov    0x118b2(%rip),%eax        # 1dec0 <g_1601>
    c60e:	83 f8 30             	cmp    $0x30,%eax
    c611:	0f 86 c1 fd ff ff    	jbe    c3d8 <func_24+0x1f85>
    c617:	66 c7 85 a0 e7 ff ff 	movw   $0x0,-0x1860(%rbp)
    c61e:	00 00 
    c620:	eb 44                	jmp    c666 <func_24+0x2213>
    c622:	c7 85 e4 e7 ff ff 00 	movl   $0x0,-0x181c(%rbp)
    c629:	00 00 00 
    c62c:	eb 1e                	jmp    c64c <func_24+0x21f9>
    c62e:	8b 85 e4 e7 ff ff    	mov    -0x181c(%rbp),%eax
    c634:	48 98                	cltq   
    c636:	48 8d 95 c0 e7 ff ff 	lea    -0x1840(%rbp),%rdx
    c63d:	48 89 94 c5 90 f8 ff 	mov    %rdx,-0x770(%rbp,%rax,8)
    c644:	ff 
    c645:	83 85 e4 e7 ff ff 01 	addl   $0x1,-0x181c(%rbp)
    c64c:	83 bd e4 e7 ff ff 07 	cmpl   $0x7,-0x181c(%rbp)
    c653:	7e d9                	jle    c62e <func_24+0x21db>
    c655:	0f b7 85 a0 e7 ff ff 	movzwl -0x1860(%rbp),%eax
    c65c:	83 c0 01             	add    $0x1,%eax
    c65f:	66 89 85 a0 e7 ff ff 	mov    %ax,-0x1860(%rbp)
    c666:	0f b7 85 a0 e7 ff ff 	movzwl -0x1860(%rbp),%eax
    c66d:	66 83 f8 09          	cmp    $0x9,%ax
    c671:	77 af                	ja     c622 <func_24+0x21cf>
    c673:	48 8b 85 88 e7 ff ff 	mov    -0x1878(%rbp),%rax
    c67a:	8b 00                	mov    (%rax),%eax
    c67c:	85 c0                	test   %eax,%eax
    c67e:	74 13                	je     c693 <func_24+0x2240>
    c680:	48 8b 85 88 ea ff ff 	mov    -0x1578(%rbp),%rax
    c687:	48 89 85 68 e9 ff ff 	mov    %rax,-0x1698(%rbp)
    c68e:	e9 c2 03 00 00       	jmpq   ca55 <func_24+0x2602>
    c693:	c7 85 58 e8 ff ff 2b 	movl   $0x729b972b,-0x17a8(%rbp)
    c69a:	97 9b 72 
    c69d:	c7 85 5c e8 ff ff 00 	movl   $0x0,-0x17a4(%rbp)
    c6a4:	00 00 00 
    c6a7:	48 8d 85 b4 e7 ff ff 	lea    -0x184c(%rbp),%rax
    c6ae:	48 89 85 20 eb ff ff 	mov    %rax,-0x14e0(%rbp)
    c6b5:	48 8d 85 c4 e7 ff ff 	lea    -0x183c(%rbp),%rax
    c6bc:	48 89 85 28 eb ff ff 	mov    %rax,-0x14d8(%rbp)
    c6c3:	48 8d 85 b0 e7 ff ff 	lea    -0x1850(%rbp),%rax
    c6ca:	48 89 85 30 eb ff ff 	mov    %rax,-0x14d0(%rbp)
    c6d1:	48 8d 85 c8 e8 ff ff 	lea    -0x1738(%rbp),%rax
    c6d8:	48 89 85 38 eb ff ff 	mov    %rax,-0x14c8(%rbp)
    c6df:	48 8d 05 fe 4e 01 00 	lea    0x14efe(%rip),%rax        # 215e4 <g_402>
    c6e6:	48 89 85 40 eb ff ff 	mov    %rax,-0x14c0(%rbp)
    c6ed:	48 8d 05 80 11 01 00 	lea    0x11180(%rip),%rax        # 1d874 <g_212+0x2f4>
    c6f4:	48 89 85 48 eb ff ff 	mov    %rax,-0x14b8(%rbp)
    c6fb:	48 8d 85 c8 e8 ff ff 	lea    -0x1738(%rbp),%rax
    c702:	48 89 85 50 eb ff ff 	mov    %rax,-0x14b0(%rbp)
    c709:	48 c7 85 58 eb ff ff 	movq   $0x0,-0x14a8(%rbp)
    c710:	00 00 00 00 
    c714:	48 8d 85 b8 e7 ff ff 	lea    -0x1848(%rbp),%rax
    c71b:	48 89 85 60 eb ff ff 	mov    %rax,-0x14a0(%rbp)
    c722:	c7 85 e8 e7 ff ff 00 	movl   $0x0,-0x1818(%rbp)
    c729:	00 00 00 
    c72c:	eb 21                	jmp    c74f <func_24+0x22fc>
    c72e:	8b 85 e8 e7 ff ff    	mov    -0x1818(%rbp),%eax
    c734:	48 98                	cltq   
    c736:	48 bb 52 82 c5 de 46 	movabs $0xb374e846dec58252,%rbx
    c73d:	e8 74 b3 
    c740:	48 89 9c c5 f0 ee ff 	mov    %rbx,-0x1110(%rbp,%rax,8)
    c747:	ff 
    c748:	83 85 e8 e7 ff ff 01 	addl   $0x1,-0x1818(%rbp)
    c74f:	83 bd e8 e7 ff ff 01 	cmpl   $0x1,-0x1818(%rbp)
    c756:	7e d6                	jle    c72e <func_24+0x22db>
    c758:	c7 85 e8 e7 ff ff 00 	movl   $0x0,-0x1818(%rbp)
    c75f:	00 00 00 
    c762:	eb 1e                	jmp    c782 <func_24+0x232f>
    c764:	8b 85 e8 e7 ff ff    	mov    -0x1818(%rbp),%eax
    c76a:	48 98                	cltq   
    c76c:	48 8d 15 01 11 01 00 	lea    0x11101(%rip),%rdx        # 1d874 <g_212+0x2f4>
    c773:	48 89 94 c5 90 f8 ff 	mov    %rdx,-0x770(%rbp,%rax,8)
    c77a:	ff 
    c77b:	83 85 e8 e7 ff ff 01 	addl   $0x1,-0x1818(%rbp)
    c782:	83 bd e8 e7 ff ff 03 	cmpl   $0x3,-0x1818(%rbp)
    c789:	7e d9                	jle    c764 <func_24+0x2311>
    c78b:	48 8b 85 f8 ee ff ff 	mov    -0x1108(%rbp),%rax
    c792:	48 89 c2             	mov    %rax,%rdx
    c795:	48 8b 85 f8 ee ff ff 	mov    -0x1108(%rbp),%rax
    c79c:	89 85 58 e8 ff ff    	mov    %eax,-0x17a8(%rbp)
    c7a2:	8b 85 58 e8 ff ff    	mov    -0x17a8(%rbp),%eax
    c7a8:	48 98                	cltq   
    c7aa:	48 89 d6             	mov    %rdx,%rsi
    c7ad:	48 89 c7             	mov    %rax,%rdi
    c7b0:	e8 8c a0 ff ff       	callq  6841 <safe_add_func_int64_t_s_s>
    c7b5:	48 85 c0             	test   %rax,%rax
    c7b8:	74 52                	je     c80c <func_24+0x23b9>
    c7ba:	48 8d 85 b8 e7 ff ff 	lea    -0x1848(%rbp),%rax
    c7c1:	48 89 85 68 eb ff ff 	mov    %rax,-0x1498(%rbp)
    c7c8:	48 8b 05 c1 3c 01 00 	mov    0x13cc1(%rip),%rax        # 20490 <g_1882>
    c7cf:	48 8b 10             	mov    (%rax),%rdx
    c7d2:	48 8b 85 50 ea ff ff 	mov    -0x15b0(%rbp),%rax
    c7d9:	48 89 10             	mov    %rdx,(%rax)
    c7dc:	48 83 bd 48 e9 ff ff 	cmpq   $0x0,-0x16b8(%rbp)
    c7e3:	00 
    c7e4:	90                   	nop
    c7e5:	f3 0f 1e fa          	endbr64 
    c7e9:	48 8b 05 e8 37 01 00 	mov    0x137e8(%rip),%rax        # 1ffd8 <g_110>
    c7f0:	48 8b 00             	mov    (%rax),%rax
    c7f3:	48 8b 00             	mov    (%rax),%rax
    c7f6:	48 8b 00             	mov    (%rax),%rax
    c7f9:	8b 10                	mov    (%rax),%edx
    c7fb:	83 ca 09             	or     $0x9,%edx
    c7fe:	89 10                	mov    %edx,(%rax)
    c800:	48 8b 85 28 e9 ff ff 	mov    -0x16d8(%rbp),%rax
    c807:	e9 d5 19 00 00       	jmpq   e1e1 <func_24+0x3d8e>
    c80c:	48 8b 85 88 e7 ff ff 	mov    -0x1878(%rbp),%rax
    c813:	48 89 c7             	mov    %rax,%rdi
    c816:	e8 da 77 00 00       	callq  13ff5 <func_59>
    c81b:	48 89 85 d8 e8 ff ff 	mov    %rax,-0x1728(%rbp)
    c822:	be 04 00 00 00       	mov    $0x4,%esi
    c827:	bf d5 ff ff ff       	mov    $0xffffffd5,%edi
    c82c:	e8 70 9a ff ff       	callq  62a1 <safe_lshift_func_int8_t_s_s>
    c831:	89 c2                	mov    %eax,%edx
    c833:	48 8b 05 76 37 01 00 	mov    0x13776(%rip),%rax        # 1ffb0 <g_113>
    c83a:	0f be d2             	movsbl %dl,%edx
    c83d:	89 10                	mov    %edx,(%rax)
    c83f:	c7 85 c8 e8 ff ff 00 	movl   $0x0,-0x1738(%rbp)
    c846:	00 00 00 
    c849:	e9 6b 01 00 00       	jmpq   c9b9 <func_24+0x2566>
    c84e:	48 c7 45 bf 00 00 00 	movq   $0x0,-0x41(%rbp)
    c855:	00 
    c856:	c6 45 c7 00          	movb   $0x0,-0x39(%rbp)
    c85a:	48 8b 85 88 e7 ff ff 	mov    -0x1878(%rbp),%rax
    c861:	8b 00                	mov    (%rax),%eax
    c863:	41 89 c4             	mov    %eax,%r12d
    c866:	0f b6 45 c4          	movzbl -0x3c(%rbp),%eax
    c86a:	0f b6 d8             	movzbl %al,%ebx
    c86d:	48 8b 85 d8 e8 ff ff 	mov    -0x1728(%rbp),%rax
    c874:	8b 00                	mov    (%rax),%eax
    c876:	48 63 d0             	movslq %eax,%rdx
    c879:	48 8b 85 d8 e8 ff ff 	mov    -0x1728(%rbp),%rax
    c880:	8b 00                	mov    (%rax),%eax
    c882:	48 98                	cltq   
    c884:	48 89 d6             	mov    %rdx,%rsi
    c887:	48 89 c7             	mov    %rax,%rdi
    c88a:	e8 bc a7 ff ff       	callq  704b <safe_sub_func_uint64_t_u_u>
    c88f:	48 85 c0             	test   %rax,%rax
    c892:	75 0c                	jne    c8a0 <func_24+0x244d>
    c894:	48 8b 05 25 09 01 00 	mov    0x10925(%rip),%rax        # 1d1c0 <g_79+0x140>
    c89b:	48 85 c0             	test   %rax,%rax
    c89e:	74 07                	je     c8a7 <func_24+0x2454>
    c8a0:	b8 01 00 00 00       	mov    $0x1,%eax
    c8a5:	eb 05                	jmp    c8ac <func_24+0x2459>
    c8a7:	b8 00 00 00 00       	mov    $0x0,%eax
    c8ac:	0f b6 c0             	movzbl %al,%eax
    c8af:	89 de                	mov    %ebx,%esi
    c8b1:	89 c7                	mov    %eax,%edi
    c8b3:	e8 f6 a2 ff ff       	callq  6bae <safe_mod_func_uint8_t_u_u>
    c8b8:	0f b6 c0             	movzbl %al,%eax
    c8bb:	44 89 e6             	mov    %r12d,%esi
    c8be:	89 c7                	mov    %eax,%edi
    c8c0:	e8 38 a6 ff ff       	callq  6efd <safe_mod_func_uint32_t_u_u>
    c8c5:	89 c2                	mov    %eax,%edx
    c8c7:	48 8b 85 10 e9 ff ff 	mov    -0x16f0(%rbp),%rax
    c8ce:	88 10                	mov    %dl,(%rax)
    c8d0:	48 8b 85 10 e9 ff ff 	mov    -0x16f0(%rbp),%rax
    c8d7:	0f b6 00             	movzbl (%rax),%eax
    c8da:	0f b6 c0             	movzbl %al,%eax
    c8dd:	be 07 00 00 00       	mov    $0x7,%esi
    c8e2:	89 c7                	mov    %eax,%edi
    c8e4:	e8 63 a3 ff ff       	callq  6c4c <safe_lshift_func_uint8_t_u_u>
    c8e9:	84 c0                	test   %al,%al
    c8eb:	74 07                	je     c8f4 <func_24+0x24a1>
    c8ed:	ba 01 00 00 00       	mov    $0x1,%edx
    c8f2:	eb 05                	jmp    c8f9 <func_24+0x24a6>
    c8f4:	ba 00 00 00 00       	mov    $0x0,%edx
    c8f9:	48 8b 85 88 e7 ff ff 	mov    -0x1878(%rbp),%rax
    c900:	8b 00                	mov    (%rax),%eax
    c902:	39 c2                	cmp    %eax,%edx
    c904:	0f 94 c0             	sete   %al
    c907:	0f b6 d0             	movzbl %al,%edx
    c90a:	8b 05 bc 18 01 00    	mov    0x118bc(%rip),%eax        # 1e1cc <g_1832+0x4>
    c910:	39 c2                	cmp    %eax,%edx
    c912:	0f 9c c0             	setl   %al
    c915:	0f b6 d0             	movzbl %al,%edx
    c918:	0f b6 45 c4          	movzbl -0x3c(%rbp),%eax
    c91c:	48 0f be c0          	movsbq %al,%rax
    c920:	48 89 d6             	mov    %rdx,%rsi
    c923:	48 89 c7             	mov    %rax,%rdi
    c926:	e8 03 a7 ff ff       	callq  702e <safe_add_func_uint64_t_u_u>
    c92b:	48 89 c2             	mov    %rax,%rdx
    c92e:	48 8b 85 88 e7 ff ff 	mov    -0x1878(%rbp),%rax
    c935:	8b 00                	mov    (%rax),%eax
    c937:	83 f8 fe             	cmp    $0xfffffffe,%eax
    c93a:	0f 9c c0             	setl   %al
    c93d:	0f b6 c0             	movzbl %al,%eax
    c940:	48 89 d6             	mov    %rdx,%rsi
    c943:	48 89 c7             	mov    %rax,%rdi
    c946:	e8 00 a7 ff ff       	callq  704b <safe_sub_func_uint64_t_u_u>
    c94b:	48 89 c2             	mov    %rax,%rdx
    c94e:	48 8b 85 70 e8 ff ff 	mov    -0x1790(%rbp),%rax
    c955:	48 89 10             	mov    %rdx,(%rax)
    c958:	48 8b 85 f8 ee ff ff 	mov    -0x1108(%rbp),%rax
    c95f:	98                   	cwtl   
    c960:	be 01 00 00 00       	mov    $0x1,%esi
    c965:	89 c7                	mov    %eax,%edi
    c967:	e8 47 9a ff ff       	callq  63b3 <safe_add_func_int16_t_s_s>
    c96c:	66 85 c0             	test   %ax,%ax
    c96f:	74 0e                	je     c97f <func_24+0x252c>
    c971:	48 8b 05 e8 37 01 00 	mov    0x137e8(%rip),%rax        # 20160 <g_1727>
    c978:	b8 01 00 00 00       	mov    $0x1,%eax
    c97d:	eb 05                	jmp    c984 <func_24+0x2531>
    c97f:	b8 00 00 00 00       	mov    $0x0,%eax
    c984:	0f b7 c0             	movzwl %ax,%eax
    c987:	be 01 00 00 00       	mov    $0x1,%esi
    c98c:	89 c7                	mov    %eax,%edi
    c98e:	e8 aa a3 ff ff       	callq  6d3d <safe_mul_func_uint16_t_u_u>
    c993:	48 8b 95 18 e9 ff ff 	mov    -0x16e8(%rbp),%rdx
    c99a:	8b 12                	mov    (%rdx),%edx
    c99c:	0f b7 c0             	movzwl %ax,%eax
    c99f:	31 c2                	xor    %eax,%edx
    c9a1:	48 8b 85 18 e9 ff ff 	mov    -0x16e8(%rbp),%rax
    c9a8:	89 10                	mov    %edx,(%rax)
    c9aa:	8b 85 c8 e8 ff ff    	mov    -0x1738(%rbp),%eax
    c9b0:	83 c0 01             	add    $0x1,%eax
    c9b3:	89 85 c8 e8 ff ff    	mov    %eax,-0x1738(%rbp)
    c9b9:	8b 85 c8 e8 ff ff    	mov    -0x1738(%rbp),%eax
    c9bf:	83 f8 01             	cmp    $0x1,%eax
    c9c2:	0f 8e 86 fe ff ff    	jle    c84e <func_24+0x23fb>
    c9c8:	48 83 ad 70 e9 ff ff 	subq   $0x1,-0x1690(%rbp)
    c9cf:	01 
    c9d0:	48 8b 05 01 36 01 00 	mov    0x13601(%rip),%rax        # 1ffd8 <g_110>
    c9d7:	48 8b 00             	mov    (%rax),%rax
    c9da:	48 85 c0             	test   %rax,%rax
    c9dd:	0f 94 c0             	sete   %al
    c9e0:	0f b6 d8             	movzbl %al,%ebx
    c9e3:	48 8b 85 28 eb ff ff 	mov    -0x14d8(%rbp),%rax
    c9ea:	8b 00                	mov    (%rax),%eax
    c9ec:	0f b6 c0             	movzbl %al,%eax
    c9ef:	be 05 00 00 00       	mov    $0x5,%esi
    c9f4:	89 c7                	mov    %eax,%edi
    c9f6:	e8 c3 a2 ff ff       	callq  6cbe <safe_rshift_func_uint8_t_u_u>
    c9fb:	0f b6 c0             	movzbl %al,%eax
    c9fe:	39 c3                	cmp    %eax,%ebx
    ca00:	0f 9d c0             	setge  %al
    ca03:	0f b6 d0             	movzbl %al,%edx
    ca06:	48 8b 85 30 eb ff ff 	mov    -0x14d0(%rbp),%rax
    ca0d:	8b 00                	mov    (%rax),%eax
    ca0f:	09 c2                	or     %eax,%edx
    ca11:	48 8b 85 30 eb ff ff 	mov    -0x14d0(%rbp),%rax
    ca18:	89 10                	mov    %edx,(%rax)
    ca1a:	eb 39                	jmp    ca55 <func_24+0x2602>
    ca1c:	0f b6 05 4b b6 00 00 	movzbl 0xb64b(%rip),%eax        # 1806e <g_1685+0xe>
    ca23:	83 e0 04             	and    $0x4,%eax
    ca26:	84 c0                	test   %al,%al
    ca28:	74 05                	je     ca2f <func_24+0x25dc>
    ca2a:	e9 71 ec ff ff       	jmpq   b6a0 <func_24+0x124d>
    ca2f:	48 8b 85 18 e9 ff ff 	mov    -0x16e8(%rbp),%rax
    ca36:	8b 00                	mov    (%rax),%eax
    ca38:	0f b6 c0             	movzbl %al,%eax
    ca3b:	89 c6                	mov    %eax,%esi
    ca3d:	bf 42 00 00 00       	mov    $0x42,%edi
    ca42:	e8 4c a1 ff ff       	callq  6b93 <safe_mul_func_uint8_t_u_u>
    ca47:	89 c2                	mov    %eax,%edx
    ca49:	48 8b 85 d8 e8 ff ff 	mov    -0x1728(%rbp),%rax
    ca50:	0f b6 d2             	movzbl %dl,%edx
    ca53:	89 10                	mov    %edx,(%rax)
    ca55:	be 06 00 00 00       	mov    $0x6,%esi
    ca5a:	bf 6e 00 00 00       	mov    $0x6e,%edi
    ca5f:	e8 a1 a1 ff ff       	callq  6c05 <safe_lshift_func_uint8_t_u_s>
    ca64:	89 c3                	mov    %eax,%ebx
    ca66:	48 8b 85 d8 e8 ff ff 	mov    -0x1728(%rbp),%rax
    ca6d:	8b 00                	mov    (%rax),%eax
    ca6f:	48 98                	cltq   
    ca71:	48 89 c7             	mov    %rax,%rdi
    ca74:	e8 a0 a5 ff ff       	callq  7019 <safe_unary_minus_func_uint64_t_u>
    ca79:	98                   	cwtl   
    ca7a:	be 0d 00 00 00       	mov    $0xd,%esi
    ca7f:	89 c7                	mov    %eax,%edi
    ca81:	e8 5b 9a ff ff       	callq  64e1 <safe_lshift_func_int16_t_s_u>
    ca86:	0f bf d0             	movswl %ax,%edx
    ca89:	48 8b 85 18 e9 ff ff 	mov    -0x16e8(%rbp),%rax
    ca90:	8b 00                	mov    (%rax),%eax
    ca92:	89 c6                	mov    %eax,%esi
    ca94:	48 8b 85 58 ea ff ff 	mov    -0x15a8(%rbp),%rax
    ca9b:	8b 08                	mov    (%rax),%ecx
    ca9d:	0f b6 c3             	movzbl %bl,%eax
    caa0:	21 c1                	and    %eax,%ecx
    caa2:	48 8b 85 58 ea ff ff 	mov    -0x15a8(%rbp),%rax
    caa9:	89 08                	mov    %ecx,(%rax)
    caab:	48 8b 85 58 ea ff ff 	mov    -0x15a8(%rbp),%rax
    cab2:	8b 00                	mov    (%rax),%eax
    cab4:	39 c6                	cmp    %eax,%esi
    cab6:	0f 96 c0             	setbe  %al
    cab9:	0f b6 c0             	movzbl %al,%eax
    cabc:	48 39 85 60 ea ff ff 	cmp    %rax,-0x15a0(%rbp)
    cac3:	0f 9c c0             	setl   %al
    cac6:	0f b6 c0             	movzbl %al,%eax
    cac9:	39 c2                	cmp    %eax,%edx
    cacb:	0f 95 c0             	setne  %al
    cace:	0f b6 c0             	movzbl %al,%eax
    cad1:	be 01 00 00 00       	mov    $0x1,%esi
    cad6:	89 c7                	mov    %eax,%edi
    cad8:	e8 b0 a1 ff ff       	callq  6c8d <safe_rshift_func_uint8_t_u_s>
    cadd:	44 0f b6 f0          	movzbl %al,%r14d
    cae1:	48 8b 85 50 e9 ff ff 	mov    -0x16b0(%rbp),%rax
    cae8:	8b 18                	mov    (%rax),%ebx
    caea:	48 8b 85 18 e9 ff ff 	mov    -0x16e8(%rbp),%rax
    caf1:	8b 00                	mov    (%rax),%eax
    caf3:	44 0f bf e0          	movswl %ax,%r12d
    caf7:	48 8b 85 50 e9 ff ff 	mov    -0x16b0(%rbp),%rax
    cafe:	44 8b 38             	mov    (%rax),%r15d
    cb01:	48 8b 85 d8 e8 ff ff 	mov    -0x1728(%rbp),%rax
    cb08:	8b 00                	mov    (%rax),%eax
    cb0a:	44 0f b7 e8          	movzwl %ax,%r13d
    cb0e:	48 8b 85 d8 e8 ff ff 	mov    -0x1728(%rbp),%rax
    cb15:	8b 00                	mov    (%rax),%eax
    cb17:	0f b7 c0             	movzwl %ax,%eax
    cb1a:	be 00 00 00 00       	mov    $0x0,%esi
    cb1f:	89 c7                	mov    %eax,%edi
    cb21:	e8 17 a2 ff ff       	callq  6d3d <safe_mul_func_uint16_t_u_u>
    cb26:	89 c2                	mov    %eax,%edx
    cb28:	48 8b 85 10 e9 ff ff 	mov    -0x16f0(%rbp),%rax
    cb2f:	88 10                	mov    %dl,(%rax)
    cb31:	48 8b 85 d8 e8 ff ff 	mov    -0x1728(%rbp),%rax
    cb38:	8b 00                	mov    (%rax),%eax
    cb3a:	0f b7 c0             	movzwl %ax,%eax
    cb3d:	44 89 ee             	mov    %r13d,%esi
    cb40:	89 c7                	mov    %eax,%edi
    cb42:	e8 f6 a1 ff ff       	callq  6d3d <safe_mul_func_uint16_t_u_u>
    cb47:	0f b7 c0             	movzwl %ax,%eax
    cb4a:	41 39 c7             	cmp    %eax,%r15d
    cb4d:	0f 9c c0             	setl   %al
    cb50:	0f b6 c0             	movzbl %al,%eax
    cb53:	44 89 e6             	mov    %r12d,%esi
    cb56:	89 c7                	mov    %eax,%edi
    cb58:	e8 98 98 ff ff       	callq  63f5 <safe_mul_func_int16_t_s_s>
    cb5d:	48 0f bf d0          	movswq %ax,%rdx
    cb61:	48 8b 05 58 0e 01 00 	mov    0x10e58(%rip),%rax        # 1d9c0 <g_296>
    cb68:	48 39 c2             	cmp    %rax,%rdx
    cb6b:	0f 94 c0             	sete   %al
    cb6e:	0f b6 c0             	movzbl %al,%eax
    cb71:	89 de                	mov    %ebx,%esi
    cb73:	89 c7                	mov    %eax,%edi
    cb75:	e8 8b 9a ff ff       	callq  6605 <safe_sub_func_int32_t_s_s>
    cb7a:	41 39 c6             	cmp    %eax,%r14d
    cb7d:	0f 9e c0             	setle  %al
    cb80:	0f b6 c0             	movzbl %al,%eax
    cb83:	be 00 00 00 00       	mov    $0x0,%esi
    cb88:	89 c7                	mov    %eax,%edi
    cb8a:	e8 2f a1 ff ff       	callq  6cbe <safe_rshift_func_uint8_t_u_u>
    cb8f:	48 8b 85 18 e9 ff ff 	mov    -0x16e8(%rbp),%rax
    cb96:	8b 10                	mov    (%rax),%edx
    cb98:	48 8b 85 18 e9 ff ff 	mov    -0x16e8(%rbp),%rax
    cb9f:	8b 00                	mov    (%rax),%eax
    cba1:	85 c0                	test   %eax,%eax
    cba3:	0f 95 c0             	setne  %al
    cba6:	0f b6 c0             	movzbl %al,%eax
    cba9:	39 c2                	cmp    %eax,%edx
    cbab:	0f 9e c2             	setle  %dl
    cbae:	48 8b 05 23 34 01 00 	mov    0x13423(%rip),%rax        # 1ffd8 <g_110>
    cbb5:	48 8b 00             	mov    (%rax),%rax
    cbb8:	48 8b 00             	mov    (%rax),%rax
    cbbb:	48 8b 00             	mov    (%rax),%rax
    cbbe:	0f b6 d2             	movzbl %dl,%edx
    cbc1:	89 10                	mov    %edx,(%rax)
    cbc3:	48 8b 85 88 e7 ff ff 	mov    -0x1878(%rbp),%rax
    cbca:	48 89 85 08 e9 ff ff 	mov    %rax,-0x16f8(%rbp)
    cbd1:	e9 e7 0f 00 00       	jmpq   dbbd <func_24+0x376a>
    cbd6:	c7 85 10 e8 ff ff 09 	movl   $0x9,-0x17f0(%rbp)
    cbdd:	00 00 00 
    cbe0:	c7 85 90 f8 ff ff 00 	movl   $0x0,-0x770(%rbp)
    cbe7:	00 00 00 
    cbea:	c7 85 94 f8 ff ff 00 	movl   $0x0,-0x76c(%rbp)
    cbf1:	00 00 00 
    cbf4:	c7 85 98 f8 ff ff 81 	movl   $0x124f5281,-0x768(%rbp)
    cbfb:	52 4f 12 
    cbfe:	c7 85 9c f8 ff ff 00 	movl   $0x0,-0x764(%rbp)
    cc05:	00 00 00 
    cc08:	c7 85 a0 f8 ff ff 00 	movl   $0x0,-0x760(%rbp)
    cc0f:	00 00 00 
    cc12:	c7 85 a4 f8 ff ff 81 	movl   $0x124f5281,-0x75c(%rbp)
    cc19:	52 4f 12 
    cc1c:	c7 85 a8 f8 ff ff 00 	movl   $0x0,-0x758(%rbp)
    cc23:	00 00 00 
    cc26:	c7 85 ac f8 ff ff 00 	movl   $0x0,-0x754(%rbp)
    cc2d:	00 00 00 
    cc30:	c7 85 b0 f8 ff ff 81 	movl   $0x124f5281,-0x750(%rbp)
    cc37:	52 4f 12 
    cc3a:	c7 85 b4 f8 ff ff 04 	movl   $0x4,-0x74c(%rbp)
    cc41:	00 00 00 
    cc44:	c7 85 b8 f8 ff ff 04 	movl   $0x4,-0x748(%rbp)
    cc4b:	00 00 00 
    cc4e:	c7 85 bc f8 ff ff 03 	movl   $0x3,-0x744(%rbp)
    cc55:	00 00 00 
    cc58:	c7 85 c0 f8 ff ff 04 	movl   $0x4,-0x740(%rbp)
    cc5f:	00 00 00 
    cc62:	c7 85 c4 f8 ff ff 04 	movl   $0x4,-0x73c(%rbp)
    cc69:	00 00 00 
    cc6c:	c7 85 c8 f8 ff ff 03 	movl   $0x3,-0x738(%rbp)
    cc73:	00 00 00 
    cc76:	c7 85 cc f8 ff ff 04 	movl   $0x4,-0x734(%rbp)
    cc7d:	00 00 00 
    cc80:	c7 85 d0 f8 ff ff 04 	movl   $0x4,-0x730(%rbp)
    cc87:	00 00 00 
    cc8a:	c7 85 d4 f8 ff ff 03 	movl   $0x3,-0x72c(%rbp)
    cc91:	00 00 00 
    cc94:	c7 85 d8 f8 ff ff 00 	movl   $0x0,-0x728(%rbp)
    cc9b:	00 00 00 
    cc9e:	c7 85 dc f8 ff ff 00 	movl   $0x0,-0x724(%rbp)
    cca5:	00 00 00 
    cca8:	c7 85 e0 f8 ff ff 81 	movl   $0x124f5281,-0x720(%rbp)
    ccaf:	52 4f 12 
    ccb2:	c7 85 e4 f8 ff ff 00 	movl   $0x0,-0x71c(%rbp)
    ccb9:	00 00 00 
    ccbc:	c7 85 e8 f8 ff ff 00 	movl   $0x0,-0x718(%rbp)
    ccc3:	00 00 00 
    ccc6:	c7 85 ec f8 ff ff 81 	movl   $0x124f5281,-0x714(%rbp)
    cccd:	52 4f 12 
    ccd0:	c7 85 f0 f8 ff ff 00 	movl   $0x0,-0x710(%rbp)
    ccd7:	00 00 00 
    ccda:	c7 85 f4 f8 ff ff 00 	movl   $0x0,-0x70c(%rbp)
    cce1:	00 00 00 
    cce4:	c7 85 f8 f8 ff ff 81 	movl   $0x124f5281,-0x708(%rbp)
    cceb:	52 4f 12 
    ccee:	c7 85 fc f8 ff ff 04 	movl   $0x4,-0x704(%rbp)
    ccf5:	00 00 00 
    ccf8:	c7 85 00 f9 ff ff 04 	movl   $0x4,-0x700(%rbp)
    ccff:	00 00 00 
    cd02:	c7 85 04 f9 ff ff 03 	movl   $0x3,-0x6fc(%rbp)
    cd09:	00 00 00 
    cd0c:	c7 85 08 f9 ff ff 04 	movl   $0x4,-0x6f8(%rbp)
    cd13:	00 00 00 
    cd16:	c7 85 0c f9 ff ff 04 	movl   $0x4,-0x6f4(%rbp)
    cd1d:	00 00 00 
    cd20:	c7 85 10 f9 ff ff 03 	movl   $0x3,-0x6f0(%rbp)
    cd27:	00 00 00 
    cd2a:	c7 85 14 f9 ff ff 04 	movl   $0x4,-0x6ec(%rbp)
    cd31:	00 00 00 
    cd34:	c7 85 18 f9 ff ff 04 	movl   $0x4,-0x6e8(%rbp)
    cd3b:	00 00 00 
    cd3e:	c7 85 1c f9 ff ff 03 	movl   $0x3,-0x6e4(%rbp)
    cd45:	00 00 00 
    cd48:	c7 85 20 f9 ff ff 00 	movl   $0x0,-0x6e0(%rbp)
    cd4f:	00 00 00 
    cd52:	c7 85 24 f9 ff ff 00 	movl   $0x0,-0x6dc(%rbp)
    cd59:	00 00 00 
    cd5c:	c7 85 28 f9 ff ff 81 	movl   $0x124f5281,-0x6d8(%rbp)
    cd63:	52 4f 12 
    cd66:	c7 85 2c f9 ff ff 00 	movl   $0x0,-0x6d4(%rbp)
    cd6d:	00 00 00 
    cd70:	c7 85 30 f9 ff ff 00 	movl   $0x0,-0x6d0(%rbp)
    cd77:	00 00 00 
    cd7a:	c7 85 34 f9 ff ff 81 	movl   $0x124f5281,-0x6cc(%rbp)
    cd81:	52 4f 12 
    cd84:	c7 85 38 f9 ff ff 00 	movl   $0x0,-0x6c8(%rbp)
    cd8b:	00 00 00 
    cd8e:	c7 85 3c f9 ff ff 00 	movl   $0x0,-0x6c4(%rbp)
    cd95:	00 00 00 
    cd98:	c7 85 40 f9 ff ff 81 	movl   $0x124f5281,-0x6c0(%rbp)
    cd9f:	52 4f 12 
    cda2:	48 c7 85 c8 e8 ff ff 	movq   $0x0,-0x1738(%rbp)
    cda9:	00 00 00 00 
    cdad:	48 8d 85 c8 e8 ff ff 	lea    -0x1738(%rbp),%rax
    cdb4:	48 89 85 d0 e8 ff ff 	mov    %rax,-0x1730(%rbp)
    cdbb:	c6 85 c0 e7 ff ff 06 	movb   $0x6,-0x1840(%rbp)
    cdc2:	48 8d 05 2f 32 01 00 	lea    0x1322f(%rip),%rax        # 1fff8 <g_626>
    cdc9:	48 89 85 78 e9 ff ff 	mov    %rax,-0x1688(%rbp)
    cdd0:	c6 85 9e e7 ff ff d7 	movb   $0xd7,-0x1862(%rbp)
    cdd7:	48 c7 85 80 e9 ff ff 	movq   $0x0,-0x1680(%rbp)
    cdde:	00 00 00 00 
    cde2:	66 c7 85 a6 e7 ff ff 	movw   $0x3,-0x185a(%rbp)
    cde9:	03 00 
    cdeb:	c7 85 ec e7 ff ff fc 	movl   $0xfffffffc,-0x1814(%rbp)
    cdf2:	ff ff ff 
    cdf5:	c6 05 1c 0e 01 00 00 	movb   $0x0,0x10e1c(%rip)        # 1dc18 <g_1546>
    cdfc:	e9 9f 0d 00 00       	jmpq   dba0 <func_24+0x374d>
    ce01:	48 8d 05 6e 07 01 00 	lea    0x1076e(%rip),%rax        # 1d576 <g_196>
    ce08:	48 89 85 88 e9 ff ff 	mov    %rax,-0x1678(%rbp)
    ce0f:	48 8d 85 70 e8 ff ff 	lea    -0x1790(%rbp),%rax
    ce16:	48 89 85 90 e9 ff ff 	mov    %rax,-0x1670(%rbp)
    ce1d:	48 8d 05 34 48 01 00 	lea    0x14834(%rip),%rax        # 21658 <g_1464>
    ce24:	48 89 85 98 e9 ff ff 	mov    %rax,-0x1668(%rbp)
    ce2b:	c7 85 14 e8 ff ff 00 	movl   $0x0,-0x17ec(%rbp)
    ce32:	00 00 00 
    ce35:	48 c7 85 a0 e9 ff ff 	movq   $0x0,-0x1660(%rbp)
    ce3c:	00 00 00 00 
    ce40:	48 c7 85 d8 e8 ff ff 	movq   $0x0,-0x1728(%rbp)
    ce47:	00 00 00 00 
    ce4b:	48 8d 85 d8 e8 ff ff 	lea    -0x1728(%rbp),%rax
    ce52:	48 89 85 a8 e9 ff ff 	mov    %rax,-0x1658(%rbp)
    ce59:	48 c7 85 e0 e8 ff ff 	movq   $0x0,-0x1720(%rbp)
    ce60:	00 00 00 00 
    ce64:	48 8d 85 e0 e8 ff ff 	lea    -0x1720(%rbp),%rax
    ce6b:	48 89 85 b0 e9 ff ff 	mov    %rax,-0x1650(%rbp)
    ce72:	c7 85 80 ec ff ff 53 	movl   $0x9c2dbc53,-0x1380(%rbp)
    ce79:	bc 2d 9c 
    ce7c:	c7 85 84 ec ff ff 53 	movl   $0x9c2dbc53,-0x137c(%rbp)
    ce83:	bc 2d 9c 
    ce86:	c7 85 88 ec ff ff ff 	movl   $0xffffffff,-0x1378(%rbp)
    ce8d:	ff ff ff 
    ce90:	c7 85 8c ec ff ff 53 	movl   $0x9c2dbc53,-0x1374(%rbp)
    ce97:	bc 2d 9c 
    ce9a:	c7 85 90 ec ff ff 53 	movl   $0x9c2dbc53,-0x1370(%rbp)
    cea1:	bc 2d 9c 
    cea4:	c7 85 94 ec ff ff ff 	movl   $0xffffffff,-0x136c(%rbp)
    ceab:	ff ff ff 
    ceae:	c7 85 98 ec ff ff 53 	movl   $0x9c2dbc53,-0x1368(%rbp)
    ceb5:	bc 2d 9c 
    ceb8:	c7 85 9c ec ff ff 53 	movl   $0x9c2dbc53,-0x1364(%rbp)
    cebf:	bc 2d 9c 
    cec2:	c7 85 a0 ec ff ff ff 	movl   $0xffffffff,-0x1360(%rbp)
    cec9:	ff ff ff 
    cecc:	c6 85 9f e7 ff ff f1 	movb   $0xf1,-0x1861(%rbp)
    ced3:	48 8d 85 f0 fb ff ff 	lea    -0x410(%rbp),%rax
    ceda:	48 05 b4 01 00 00    	add    $0x1b4,%rax
    cee0:	48 89 85 b8 e9 ff ff 	mov    %rax,-0x1648(%rbp)
    cee7:	48 8d 05 ca 0a 01 00 	lea    0x10aca(%rip),%rax        # 1d9b8 <g_262>
    ceee:	48 89 85 f0 ee ff ff 	mov    %rax,-0x1110(%rbp)
    cef5:	48 8d 05 bc 0a 01 00 	lea    0x10abc(%rip),%rax        # 1d9b8 <g_262>
    cefc:	48 89 85 f8 ee ff ff 	mov    %rax,-0x1108(%rbp)
    cf03:	48 c7 85 00 ef ff ff 	movq   $0x0,-0x1100(%rbp)
    cf0a:	00 00 00 00 
    cf0e:	48 8d 05 a3 0a 01 00 	lea    0x10aa3(%rip),%rax        # 1d9b8 <g_262>
    cf15:	48 89 85 08 ef ff ff 	mov    %rax,-0x10f8(%rbp)
    cf1c:	48 8d 05 95 0a 01 00 	lea    0x10a95(%rip),%rax        # 1d9b8 <g_262>
    cf23:	48 89 85 10 ef ff ff 	mov    %rax,-0x10f0(%rbp)
    cf2a:	48 8d 85 f0 fb ff ff 	lea    -0x410(%rbp),%rax
    cf31:	48 05 28 02 00 00    	add    $0x228,%rax
    cf37:	48 89 85 18 ef ff ff 	mov    %rax,-0x10e8(%rbp)
    cf3e:	48 c7 85 20 ef ff ff 	movq   $0x0,-0x10e0(%rbp)
    cf45:	00 00 00 00 
    cf49:	48 c7 85 28 ef ff ff 	movq   $0x0,-0x10d8(%rbp)
    cf50:	00 00 00 00 
    cf54:	48 8d 85 f0 fb ff ff 	lea    -0x410(%rbp),%rax
    cf5b:	48 05 28 02 00 00    	add    $0x228,%rax
    cf61:	48 89 85 30 ef ff ff 	mov    %rax,-0x10d0(%rbp)
    cf68:	48 c7 85 38 ef ff ff 	movq   $0x0,-0x10c8(%rbp)
    cf6f:	00 00 00 00 
    cf73:	48 c7 85 40 ef ff ff 	movq   $0x0,-0x10c0(%rbp)
    cf7a:	00 00 00 00 
    cf7e:	48 8d 85 f0 fb ff ff 	lea    -0x410(%rbp),%rax
    cf85:	48 05 28 02 00 00    	add    $0x228,%rax
    cf8b:	48 89 85 48 ef ff ff 	mov    %rax,-0x10b8(%rbp)
    cf92:	48 c7 85 50 ef ff ff 	movq   $0x0,-0x10b0(%rbp)
    cf99:	00 00 00 00 
    cf9d:	48 c7 85 58 ef ff ff 	movq   $0x0,-0x10a8(%rbp)
    cfa4:	00 00 00 00 
    cfa8:	48 8d 85 f0 fb ff ff 	lea    -0x410(%rbp),%rax
    cfaf:	48 05 28 02 00 00    	add    $0x228,%rax
    cfb5:	48 89 85 60 ef ff ff 	mov    %rax,-0x10a0(%rbp)
    cfbc:	48 c7 85 68 ef ff ff 	movq   $0x0,-0x1098(%rbp)
    cfc3:	00 00 00 00 
    cfc7:	c7 85 18 e8 ff ff 60 	movl   $0x5f2660,-0x17e8(%rbp)
    cfce:	26 5f 00 
    cfd1:	48 8b 85 a8 e8 ff ff 	mov    -0x1758(%rbp),%rax
    cfd8:	48 8d 95 88 e7 ff ff 	lea    -0x1878(%rbp),%rdx
    cfdf:	48 89 10             	mov    %rdx,(%rax)
    cfe2:	8b 85 10 e8 ff ff    	mov    -0x17f0(%rbp),%eax
    cfe8:	48 63 d0             	movslq %eax,%rdx
    cfeb:	83 bd 10 e8 ff ff 00 	cmpl   $0x0,-0x17f0(%rbp)
    cff2:	0f 94 c0             	sete   %al
    cff5:	0f b6 c0             	movzbl %al,%eax
    cff8:	23 85 10 e8 ff ff    	and    -0x17f0(%rbp),%eax
    cffe:	48 98                	cltq   
    d000:	48 89 d6             	mov    %rdx,%rsi
    d003:	48 89 c7             	mov    %rax,%rdi
    d006:	e8 40 a0 ff ff       	callq  704b <safe_sub_func_uint64_t_u_u>
    d00b:	48 85 c0             	test   %rax,%rax
    d00e:	0f 95 c0             	setne  %al
    d011:	0f b6 d0             	movzbl %al,%edx
    d014:	48 8b 85 50 e9 ff ff 	mov    -0x16b0(%rbp),%rax
    d01b:	8b 00                	mov    (%rax),%eax
    d01d:	21 c2                	and    %eax,%edx
    d01f:	48 8b 85 50 e9 ff ff 	mov    -0x16b0(%rbp),%rax
    d026:	89 10                	mov    %edx,(%rax)
    d028:	48 8b 85 a8 e8 ff ff 	mov    -0x1758(%rbp),%rax
    d02f:	48 8b 10             	mov    (%rax),%rdx
    d032:	48 8b 05 a7 2f 01 00 	mov    0x12fa7(%rip),%rax        # 1ffe0 <g_130>
    d039:	48 8b 00             	mov    (%rax),%rax
    d03c:	48 8b 12             	mov    (%rdx),%rdx
    d03f:	48 89 10             	mov    %rdx,(%rax)
    d042:	8b 9d 10 e8 ff ff    	mov    -0x17f0(%rbp),%ebx
    d048:	8b 05 52 0b 01 00    	mov    0x10b52(%rip),%eax        # 1dba0 <g_1351+0x10>
    d04e:	c1 e0 05             	shl    $0x5,%eax
    d051:	c1 f8 05             	sar    $0x5,%eax
    d054:	44 0f b7 e0          	movzwl %ax,%r12d
    d058:	48 8b 85 88 e7 ff ff 	mov    -0x1878(%rbp),%rax
    d05f:	44 8b 30             	mov    (%rax),%r14d
    d062:	48 8b 85 a0 e9 ff ff 	mov    -0x1660(%rbp),%rax
    d069:	89 85 84 e7 ff ff    	mov    %eax,-0x187c(%rbp)
    d06f:	8b 85 ec f8 ff ff    	mov    -0x714(%rbp),%eax
    d075:	44 0f b6 e8          	movzbl %al,%r13d
    d079:	48 8b 85 98 e8 ff ff 	mov    -0x1768(%rbp),%rax
    d080:	48 8b 00             	mov    (%rax),%rax
    d083:	8b 95 14 e8 ff ff    	mov    -0x17ec(%rbp),%edx
    d089:	88 10                	mov    %dl,(%rax)
    d08b:	0f b6 00             	movzbl (%rax),%eax
    d08e:	0f be d0             	movsbl %al,%edx
    d091:	48 8b 05 f8 2f 01 00 	mov    0x12ff8(%rip),%rax        # 20090 <g_797>
    d098:	48 8b 00             	mov    (%rax),%rax
    d09b:	0f b6 00             	movzbl (%rax),%eax
    d09e:	0f be c0             	movsbl %al,%eax
    d0a1:	89 d6                	mov    %edx,%esi
    d0a3:	89 c7                	mov    %eax,%edi
    d0a5:	e8 f7 91 ff ff       	callq  62a1 <safe_lshift_func_int8_t_s_s>
    d0aa:	44 0f be f8          	movsbl %al,%r15d
    d0ae:	be 02 00 00 00       	mov    $0x2,%esi
    d0b3:	bf 7a 2d 00 00       	mov    $0x2d7a,%edi
    d0b8:	e8 8b 9d ff ff       	callq  6e48 <safe_rshift_func_uint16_t_u_s>
    d0bd:	0f b7 c0             	movzwl %ax,%eax
    d0c0:	89 c6                	mov    %eax,%esi
    d0c2:	bf 00 00 00 00       	mov    $0x0,%edi
    d0c7:	e8 31 9e ff ff       	callq  6efd <safe_mod_func_uint32_t_u_u>
    d0cc:	41 39 c7             	cmp    %eax,%r15d
    d0cf:	0f 92 c0             	setb   %al
    d0d2:	0f b6 c0             	movzbl %al,%eax
    d0d5:	44 89 ee             	mov    %r13d,%esi
    d0d8:	89 c7                	mov    %eax,%edi
    d0da:	e8 7b 9a ff ff       	callq  6b5a <safe_add_func_uint8_t_u_u>
    d0df:	be f7 ff ff ff       	mov    $0xfffffff7,%esi
    d0e4:	bf 00 00 00 00       	mov    $0x0,%edi
    d0e9:	e8 c5 92 ff ff       	callq  63b3 <safe_add_func_int16_t_s_s>
    d0ee:	8b 95 14 e8 ff ff    	mov    -0x17ec(%rbp),%edx
    d0f4:	09 d0                	or     %edx,%eax
    d0f6:	0f b7 c0             	movzwl %ax,%eax
    d0f9:	8b b5 84 e7 ff ff    	mov    -0x187c(%rbp),%esi
    d0ff:	89 c7                	mov    %eax,%edi
    d101:	e8 b8 9c ff ff       	callq  6dbe <safe_lshift_func_uint16_t_u_s>
    d106:	0f b7 c0             	movzwl %ax,%eax
    d109:	41 39 c6             	cmp    %eax,%r14d
    d10c:	0f 9f c0             	setg   %al
    d10f:	0f b6 c0             	movzbl %al,%eax
    d112:	44 89 e6             	mov    %r12d,%esi
    d115:	89 c7                	mov    %eax,%edi
    d117:	e8 e3 9b ff ff       	callq  6cff <safe_add_func_uint16_t_u_u>
    d11c:	98                   	cwtl   
    d11d:	89 de                	mov    %ebx,%esi
    d11f:	89 c7                	mov    %eax,%edi
    d121:	e8 bb 93 ff ff       	callq  64e1 <safe_lshift_func_int16_t_s_u>
    d126:	48 8b 85 d0 e8 ff ff 	mov    -0x1730(%rbp),%rax
    d12d:	48 85 c0             	test   %rax,%rax
    d130:	0f 84 7f 07 00 00    	je     d8b5 <func_24+0x3462>
    d136:	48 c7 85 d0 e9 ff ff 	movq   $0x0,-0x1630(%rbp)
    d13d:	00 00 00 00 
    d141:	48 8d 05 b8 ff 00 00 	lea    0xffb8(%rip),%rax        # 1d100 <g_79+0x80>
    d148:	48 89 85 e8 e8 ff ff 	mov    %rax,-0x1718(%rbp)
    d14f:	48 8d 85 e8 e8 ff ff 	lea    -0x1718(%rbp),%rax
    d156:	48 89 85 d8 e9 ff ff 	mov    %rax,-0x1628(%rbp)
    d15d:	48 8d 05 94 2e 01 00 	lea    0x12e94(%rip),%rax        # 1fff8 <g_626>
    d164:	48 89 85 f0 e8 ff ff 	mov    %rax,-0x1710(%rbp)
    d16b:	48 8d 85 f0 e8 ff ff 	lea    -0x1710(%rbp),%rax
    d172:	48 89 85 e0 e9 ff ff 	mov    %rax,-0x1620(%rbp)
    d179:	48 8d 05 78 2e 01 00 	lea    0x12e78(%rip),%rax        # 1fff8 <g_626>
    d180:	48 89 85 f8 e8 ff ff 	mov    %rax,-0x1708(%rbp)
    d187:	48 8d 85 f8 e8 ff ff 	lea    -0x1708(%rbp),%rax
    d18e:	48 89 85 c0 ec ff ff 	mov    %rax,-0x1340(%rbp)
    d195:	48 c7 85 c8 ec ff ff 	movq   $0x0,-0x1338(%rbp)
    d19c:	00 00 00 00 
    d1a0:	48 8d 85 f8 e8 ff ff 	lea    -0x1708(%rbp),%rax
    d1a7:	48 89 85 d0 ec ff ff 	mov    %rax,-0x1330(%rbp)
    d1ae:	48 c7 85 d8 ec ff ff 	movq   $0x0,-0x1328(%rbp)
    d1b5:	00 00 00 00 
    d1b9:	48 8d 85 f8 e8 ff ff 	lea    -0x1708(%rbp),%rax
    d1c0:	48 89 85 e0 ec ff ff 	mov    %rax,-0x1320(%rbp)
    d1c7:	48 c7 85 e8 ec ff ff 	movq   $0x0,-0x1318(%rbp)
    d1ce:	00 00 00 00 
    d1d2:	48 8d 85 f8 e8 ff ff 	lea    -0x1708(%rbp),%rax
    d1d9:	48 89 85 f0 ec ff ff 	mov    %rax,-0x1310(%rbp)
    d1e0:	48 c7 85 f8 ec ff ff 	movq   $0x0,-0x1308(%rbp)
    d1e7:	00 00 00 00 
    d1eb:	48 8d 85 f8 e8 ff ff 	lea    -0x1708(%rbp),%rax
    d1f2:	48 89 85 00 ed ff ff 	mov    %rax,-0x1300(%rbp)
    d1f9:	48 c7 85 08 ed ff ff 	movq   $0x0,-0x12f8(%rbp)
    d200:	00 00 00 00 
    d204:	48 8d 05 55 fe 00 00 	lea    0xfe55(%rip),%rax        # 1d060 <g_41>
    d20b:	48 89 85 e8 e9 ff ff 	mov    %rax,-0x1618(%rbp)
    d212:	c7 85 c4 e7 ff ff a5 	movl   $0xfc7e56a5,-0x183c(%rbp)
    d219:	56 7e fc 
    d21c:	c7 85 24 e8 ff ff 82 	movl   $0x1f83b582,-0x17dc(%rbp)
    d223:	b5 83 1f 
    d226:	c7 85 28 e8 ff ff e3 	movl   $0x8537cde3,-0x17d8(%rbp)
    d22d:	cd 37 85 
    d230:	c7 85 2c e8 ff ff fa 	movl   $0xfffffffa,-0x17d4(%rbp)
    d237:	ff ff ff 
    d23a:	c7 85 30 e8 ff ff e7 	movl   $0x764171e7,-0x17d0(%rbp)
    d241:	71 41 76 
    d244:	48 c7 85 48 e9 ff ff 	movq   $0x3,-0x16b8(%rbp)
    d24b:	03 00 00 00 
    d24f:	48 83 bd 48 e9 ff ff 	cmpq   $0x0,-0x16b8(%rbp)
    d256:	00 
    d257:	78 0c                	js     d265 <func_24+0x2e12>
    d259:	48 8b 85 88 e7 ff ff 	mov    -0x1878(%rbp),%rax
    d260:	e9 7c 0f 00 00       	jmpq   e1e1 <func_24+0x3d8e>
    d265:	48 8b 85 50 e9 ff ff 	mov    -0x16b0(%rbp),%rax
    d26c:	8b 18                	mov    (%rax),%ebx
    d26e:	48 8b 85 08 e9 ff ff 	mov    -0x16f8(%rbp),%rax
    d275:	8b 00                	mov    (%rax),%eax
    d277:	0f b7 c0             	movzwl %ax,%eax
    d27a:	be 0b 00 00 00       	mov    $0xb,%esi
    d27f:	89 c7                	mov    %eax,%edi
    d281:	e8 f4 9b ff ff       	callq  6e7a <safe_rshift_func_uint16_t_u_u>
    d286:	48 8b 05 c3 2e 01 00 	mov    0x12ec3(%rip),%rax        # 20150 <g_1556>
    d28d:	48 8b 00             	mov    (%rax),%rax
    d290:	48 8b 00             	mov    (%rax),%rax
    d293:	48 8b 00             	mov    (%rax),%rax
    d296:	48 8d 85 70 e8 ff ff 	lea    -0x1790(%rbp),%rax
    d29d:	48 89 05 fc 43 01 00 	mov    %rax,0x143fc(%rip)        # 216a0 <g_2025>
    d2a4:	48 8b 05 f5 43 01 00 	mov    0x143f5(%rip),%rax        # 216a0 <g_2025>
    d2ab:	48 39 85 d8 e9 ff ff 	cmp    %rax,-0x1628(%rbp)
    d2b2:	be 02 00 00 00       	mov    $0x2,%esi
    d2b7:	bf 95 d2 00 00       	mov    $0xd295,%edi
    d2bc:	e8 45 9b ff ff       	callq  6e06 <safe_lshift_func_uint16_t_u_u>
    d2c1:	0f b7 c0             	movzwl %ax,%eax
    d2c4:	89 de                	mov    %ebx,%esi
    d2c6:	89 c7                	mov    %eax,%edi
    d2c8:	e8 32 94 ff ff       	callq  66ff <safe_div_func_int32_t_s_s>
    d2cd:	48 83 bd d0 e9 ff ff 	cmpq   $0x1,-0x1630(%rbp)
    d2d4:	01 
    d2d5:	0f 84 99 00 00 00    	je     d374 <func_24+0x2f21>
    d2db:	bf ff 4e f5 02       	mov    $0x2f54eff,%edi
    d2e0:	e8 c1 9b ff ff       	callq  6ea6 <safe_unary_minus_func_uint32_t_u>
    d2e5:	0f bf d0             	movswl %ax,%edx
    d2e8:	48 8b 85 d0 e9 ff ff 	mov    -0x1630(%rbp),%rax
    d2ef:	98                   	cwtl   
    d2f0:	89 d6                	mov    %edx,%esi
    d2f2:	89 c7                	mov    %eax,%edi
    d2f4:	e8 1d 91 ff ff       	callq  6416 <safe_mod_func_int16_t_s_s>
    d2f9:	89 c2                	mov    %eax,%edx
    d2fb:	48 8b 05 d6 2c 01 00 	mov    0x12cd6(%rip),%rax        # 1ffd8 <g_110>
    d302:	48 8b 00             	mov    (%rax),%rax
    d305:	48 8b 00             	mov    (%rax),%rax
    d308:	48 8b 00             	mov    (%rax),%rax
    d30b:	8b 08                	mov    (%rax),%ecx
    d30d:	0f bf d2             	movswl %dx,%edx
    d310:	09 ca                	or     %ecx,%edx
    d312:	89 10                	mov    %edx,(%rax)
    d314:	48 83 bd a8 e9 ff ff 	cmpq   $0x0,-0x1658(%rbp)
    d31b:	00 
    d31c:	0f 95 c1             	setne  %cl
    d31f:	48 8b 05 7a 43 01 00 	mov    0x1437a(%rip),%rax        # 216a0 <g_2025>
    d326:	48 8b 10             	mov    (%rax),%rdx
    d329:	48 8b 85 98 e9 ff ff 	mov    -0x1668(%rbp),%rax
    d330:	48 89 10             	mov    %rdx,(%rax)
    d333:	48 8b 85 98 e9 ff ff 	mov    -0x1668(%rbp),%rax
    d33a:	48 8b 10             	mov    (%rax),%rdx
    d33d:	48 8b 05 04 2e 01 00 	mov    0x12e04(%rip),%rax        # 20148 <g_1557>
    d344:	48 8b 00             	mov    (%rax),%rax
    d347:	48 39 c2             	cmp    %rax,%rdx
    d34a:	0f 94 c0             	sete   %al
    d34d:	09 c8                	or     %ecx,%eax
    d34f:	0f b6 d0             	movzbl %al,%edx
    d352:	48 8b 85 18 e9 ff ff 	mov    -0x16e8(%rbp),%rax
    d359:	89 10                	mov    %edx,(%rax)
    d35b:	48 8b 05 7e 2c 01 00 	mov    0x12c7e(%rip),%rax        # 1ffe0 <g_130>
    d362:	48 8b 00             	mov    (%rax),%rax
    d365:	48 8b 95 88 e7 ff ff 	mov    -0x1878(%rbp),%rdx
    d36c:	48 89 10             	mov    %rdx,(%rax)
    d36f:	e9 e9 01 00 00       	jmpq   d55d <func_24+0x310a>
    d374:	48 8d 85 98 e8 ff ff 	lea    -0x1768(%rbp),%rax
    d37b:	48 89 85 f0 e9 ff ff 	mov    %rax,-0x1610(%rbp)
    d382:	c7 85 f0 e7 ff ff 00 	movl   $0x0,-0x1810(%rbp)
    d389:	00 00 00 
    d38c:	eb 1e                	jmp    d3ac <func_24+0x2f59>
    d38e:	8b 85 f0 e7 ff ff    	mov    -0x1810(%rbp),%eax
    d394:	48 98                	cltq   
    d396:	48 8d 15 d7 04 01 00 	lea    0x104d7(%rip),%rdx        # 1d874 <g_212+0x2f4>
    d39d:	48 89 94 c5 d0 ed ff 	mov    %rdx,-0x1230(%rbp,%rax,8)
    d3a4:	ff 
    d3a5:	83 85 f0 e7 ff ff 01 	addl   $0x1,-0x1810(%rbp)
    d3ac:	83 bd f0 e7 ff ff 00 	cmpl   $0x0,-0x1810(%rbp)
    d3b3:	7e d9                	jle    d38e <func_24+0x2f3b>
    d3b5:	48 8b 85 18 e9 ff ff 	mov    -0x16e8(%rbp),%rax
    d3bc:	8b 00                	mov    (%rax),%eax
    d3be:	85 c0                	test   %eax,%eax
    d3c0:	0f 85 e9 07 00 00    	jne    dbaf <func_24+0x375c>
    d3c6:	48 8b 85 08 e9 ff ff 	mov    -0x16f8(%rbp),%rax
    d3cd:	8b 00                	mov    (%rax),%eax
    d3cf:	44 0f be f8          	movsbl %al,%r15d
    d3d3:	0f b7 05 36 06 01 00 	movzwl 0x10636(%rip),%eax        # 1da10 <g_510>
    d3da:	c1 e0 04             	shl    $0x4,%eax
    d3dd:	66 c1 f8 04          	sar    $0x4,%ax
    d3e1:	44 0f b6 e0          	movzbl %al,%r12d
    d3e5:	48 8b 9d d0 ed ff ff 	mov    -0x1230(%rbp),%rbx
    d3ec:	44 8b ad b4 f8 ff ff 	mov    -0x74c(%rbp),%r13d
    d3f3:	48 83 bd f0 e9 ff ff 	cmpq   $0x0,-0x1610(%rbp)
    d3fa:	00 
    d3fb:	0f 94 c0             	sete   %al
    d3fe:	44 0f b6 f0          	movzbl %al,%r14d
    d402:	0f b7 05 6f 01 01 00 	movzwl 0x1016f(%rip),%eax        # 1d578 <g_201>
    d409:	0f bf d0             	movswl %ax,%edx
    d40c:	48 8b 85 e8 e8 ff ff 	mov    -0x1718(%rbp),%rax
    d413:	48 8d 0d 66 42 01 00 	lea    0x14266(%rip),%rcx        # 21680 <g_1606>
    d41a:	48 39 c8             	cmp    %rcx,%rax
    d41d:	0f 94 c0             	sete   %al
    d420:	0f b6 c8             	movzbl %al,%ecx
    d423:	48 8b 85 a8 e8 ff ff 	mov    -0x1758(%rbp),%rax
    d42a:	48 8b 00             	mov    (%rax),%rax
    d42d:	48 8b 00             	mov    (%rax),%rax
    d430:	8b 00                	mov    (%rax),%eax
    d432:	39 c1                	cmp    %eax,%ecx
    d434:	0f 9f c0             	setg   %al
    d437:	0f b6 c0             	movzbl %al,%eax
    d43a:	89 d6                	mov    %edx,%esi
    d43c:	89 c7                	mov    %eax,%edi
    d43e:	e8 ab 8e ff ff       	callq  62ee <safe_lshift_func_int8_t_s_u>
    d443:	48 8b 85 08 e9 ff ff 	mov    -0x16f8(%rbp),%rax
    d44a:	8b 10                	mov    (%rax),%edx
    d44c:	48 8b 05 2d 30 01 00 	mov    0x1302d(%rip),%rax        # 20480 <g_1865>
    d453:	48 8b 00             	mov    (%rax),%rax
    d456:	66 89 10             	mov    %dx,(%rax)
    d459:	0f b7 00             	movzwl (%rax),%eax
    d45c:	0f b7 d0             	movzwl %ax,%edx
    d45f:	48 8b 85 08 e9 ff ff 	mov    -0x16f8(%rbp),%rax
    d466:	8b 00                	mov    (%rax),%eax
    d468:	39 c2                	cmp    %eax,%edx
    d46a:	48 83 bd d0 e9 ff ff 	cmpq   $0x0,-0x1630(%rbp)
    d471:	00 
    d472:	0f 9e c2             	setle  %dl
    d475:	48 8b 05 24 42 01 00 	mov    0x14224(%rip),%rax        # 216a0 <g_2025>
    d47c:	48 8b 00             	mov    (%rax),%rax
    d47f:	0f b6 d2             	movzbl %dl,%edx
    d482:	48 89 10             	mov    %rdx,(%rax)
    d485:	48 8b 00             	mov    (%rax),%rax
    d488:	48 83 f8 08          	cmp    $0x8,%rax
    d48c:	7e 0d                	jle    d49b <func_24+0x3048>
    d48e:	48 8b 85 18 e9 ff ff 	mov    -0x16e8(%rbp),%rax
    d495:	8b 00                	mov    (%rax),%eax
    d497:	85 c0                	test   %eax,%eax
    d499:	74 07                	je     d4a2 <func_24+0x304f>
    d49b:	b8 01 00 00 00       	mov    $0x1,%eax
    d4a0:	eb 05                	jmp    d4a7 <func_24+0x3054>
    d4a2:	b8 00 00 00 00       	mov    $0x0,%eax
    d4a7:	44 39 f0             	cmp    %r14d,%eax
    d4aa:	0f 9c c0             	setl   %al
    d4ad:	0f b6 c0             	movzbl %al,%eax
    d4b0:	44 89 ee             	mov    %r13d,%esi
    d4b3:	89 c7                	mov    %eax,%edi
    d4b5:	e8 04 99 ff ff       	callq  6dbe <safe_lshift_func_uint16_t_u_s>
    d4ba:	98                   	cwtl   
    d4bb:	be 01 00 00 00       	mov    $0x1,%esi
    d4c0:	89 c7                	mov    %eax,%edi
    d4c2:	e8 0c 8f ff ff       	callq  63d3 <safe_sub_func_int16_t_s_s>
    d4c7:	66 85 c0             	test   %ax,%ax
    d4ca:	75 0b                	jne    d4d7 <func_24+0x3084>
    d4cc:	0f b6 85 c0 e7 ff ff 	movzbl -0x1840(%rbp),%eax
    d4d3:	84 c0                	test   %al,%al
    d4d5:	74 07                	je     d4de <func_24+0x308b>
    d4d7:	b8 01 00 00 00       	mov    $0x1,%eax
    d4dc:	eb 05                	jmp    d4e3 <func_24+0x3090>
    d4de:	b8 00 00 00 00       	mov    $0x0,%eax
    d4e3:	3b 85 10 e8 ff ff    	cmp    -0x17f0(%rbp),%eax
    d4e9:	0f 9c c0             	setl   %al
    d4ec:	89 c2                	mov    %eax,%edx
    d4ee:	48 8b 85 50 e9 ff ff 	mov    -0x16b0(%rbp),%rax
    d4f5:	8b 00                	mov    (%rax),%eax
    d4f7:	09 d0                	or     %edx,%eax
    d4f9:	89 c2                	mov    %eax,%edx
    d4fb:	48 8b 85 10 e9 ff ff 	mov    -0x16f0(%rbp),%rax
    d502:	88 10                	mov    %dl,(%rax)
    d504:	48 8b 85 10 e9 ff ff 	mov    -0x16f0(%rbp),%rax
    d50b:	0f b6 00             	movzbl (%rax),%eax
    d50e:	0f be d0             	movsbl %al,%edx
    d511:	48 8b 05 70 2b 01 00 	mov    0x12b70(%rip),%rax        # 20088 <g_798>
    d518:	0f b6 00             	movzbl (%rax),%eax
    d51b:	0f be c0             	movsbl %al,%eax
    d51e:	89 d6                	mov    %edx,%esi
    d520:	89 c7                	mov    %eax,%edi
    d522:	e8 eb 8c ff ff       	callq  6212 <safe_mul_func_int8_t_s_s>
    d527:	0f be d0             	movsbl %al,%edx
    d52a:	8b 85 cc f8 ff ff    	mov    -0x734(%rbp),%eax
    d530:	39 c2                	cmp    %eax,%edx
    d532:	0f 94 c0             	sete   %al
    d535:	0f b6 c0             	movzbl %al,%eax
    d538:	48 8b 15 a1 2a 01 00 	mov    0x12aa1(%rip),%rdx        # 1ffe0 <g_130>
    d53f:	4c 8b 2a             	mov    (%rdx),%r13
    d542:	48 8d 95 c0 e7 ff ff 	lea    -0x1840(%rbp),%rdx
    d549:	45 89 f8             	mov    %r15d,%r8d
    d54c:	44 89 e1             	mov    %r12d,%ecx
    d54f:	48 89 de             	mov    %rbx,%rsi
    d552:	89 c7                	mov    %eax,%edi
    d554:	e8 08 3c 00 00       	callq  11161 <func_48>
    d559:	49 89 45 00          	mov    %rax,0x0(%r13)
    d55d:	48 8b 85 e0 e9 ff ff 	mov    -0x1620(%rbp),%rax
    d564:	48 8d 15 8d 2a 01 00 	lea    0x12a8d(%rip),%rdx        # 1fff8 <g_626>
    d56b:	48 89 10             	mov    %rdx,(%rax)
    d56e:	48 8b 85 e0 e9 ff ff 	mov    -0x1620(%rbp),%rax
    d575:	48 8b 00             	mov    (%rax),%rax
    d578:	48 89 85 78 e9 ff ff 	mov    %rax,-0x1688(%rbp)
    d57f:	48 8b 85 08 e9 ff ff 	mov    -0x16f8(%rbp),%rax
    d586:	44 8b 30             	mov    (%rax),%r14d
    d589:	8b 85 ec f8 ff ff    	mov    -0x714(%rbp),%eax
    d58f:	0f be d8             	movsbl %al,%ebx
    d592:	0f b6 85 c0 e7 ff ff 	movzbl -0x1840(%rbp),%eax
    d599:	44 0f be e0          	movsbl %al,%r12d
    d59d:	48 8b 85 08 e9 ff ff 	mov    -0x16f8(%rbp),%rax
    d5a4:	8b 00                	mov    (%rax),%eax
    d5a6:	44 0f b6 e8          	movzbl %al,%r13d
    d5aa:	48 8b 05 57 10 01 00 	mov    0x11057(%rip),%rax        # 1e608 <g_2030+0x8>
    d5b1:	48 c1 e0 0e          	shl    $0xe,%rax
    d5b5:	48 c1 f8 2e          	sar    $0x2e,%rax
    d5b9:	0f b6 d0             	movzbl %al,%edx
    d5bc:	48 8b 85 10 e9 ff ff 	mov    -0x16f0(%rbp),%rax
    d5c3:	c6 00 06             	movb   $0x6,(%rax)
    d5c6:	48 8b 85 10 e9 ff ff 	mov    -0x16f0(%rbp),%rax
    d5cd:	0f b6 08             	movzbl (%rax),%ecx
    d5d0:	48 8b 85 e8 e9 ff ff 	mov    -0x1618(%rbp),%rax
    d5d7:	88 08                	mov    %cl,(%rax)
    d5d9:	48 8b 85 e8 e9 ff ff 	mov    -0x1618(%rbp),%rax
    d5e0:	0f b6 00             	movzbl (%rax),%eax
    d5e3:	0f b6 c0             	movzbl %al,%eax
    d5e6:	89 d6                	mov    %edx,%esi
    d5e8:	89 c7                	mov    %eax,%edi
    d5ea:	e8 6b 95 ff ff       	callq  6b5a <safe_add_func_uint8_t_u_u>
    d5ef:	0f b6 d0             	movzbl %al,%edx
    d5f2:	8b 85 ec f8 ff ff    	mov    -0x714(%rbp),%eax
    d5f8:	31 d0                	xor    %edx,%eax
    d5fa:	48 63 d0             	movslq %eax,%rdx
    d5fd:	48 8b 05 9c 40 01 00 	mov    0x1409c(%rip),%rax        # 216a0 <g_2025>
    d604:	48 8b 00             	mov    (%rax),%rax
    d607:	48 8b 00             	mov    (%rax),%rax
    d60a:	48 39 c2             	cmp    %rax,%rdx
    d60d:	0f 94 c0             	sete   %al
    d610:	0f b6 c0             	movzbl %al,%eax
    d613:	44 89 ee             	mov    %r13d,%esi
    d616:	89 c7                	mov    %eax,%edi
    d618:	e8 5b 95 ff ff       	callq  6b78 <safe_sub_func_uint8_t_u_u>
    d61d:	0f b6 c0             	movzbl %al,%eax
    d620:	48 8b 95 d0 e9 ff ff 	mov    -0x1630(%rbp),%rdx
    d627:	48 89 d6             	mov    %rdx,%rsi
    d62a:	48 89 c7             	mov    %rax,%rdi
    d62d:	e8 0f 92 ff ff       	callq  6841 <safe_add_func_int64_t_s_s>
    d632:	0f b6 c0             	movzbl %al,%eax
    d635:	be 02 00 00 00       	mov    $0x2,%esi
    d63a:	89 c7                	mov    %eax,%edi
    d63c:	e8 7d 96 ff ff       	callq  6cbe <safe_rshift_func_uint8_t_u_u>
    d641:	44 89 e6             	mov    %r12d,%esi
    d644:	bf 00 00 00 00       	mov    $0x0,%edi
    d649:	e8 86 8b ff ff       	callq  61d4 <safe_add_func_int8_t_s_s>
    d64e:	0f be d0             	movsbl %al,%edx
    d651:	48 8b 85 c0 e8 ff ff 	mov    -0x1740(%rbp),%rax
    d658:	0f be c0             	movsbl %al,%eax
    d65b:	89 d6                	mov    %edx,%esi
    d65d:	89 c7                	mov    %eax,%edi
    d65f:	e8 ae 8b ff ff       	callq  6212 <safe_mul_func_int8_t_s_s>
    d664:	83 f0 01             	xor    $0x1,%eax
    d667:	0f be c0             	movsbl %al,%eax
    d66a:	89 de                	mov    %ebx,%esi
    d66c:	89 c7                	mov    %eax,%edi
    d66e:	e8 61 8b ff ff       	callq  61d4 <safe_add_func_int8_t_s_s>
    d673:	0f be d0             	movsbl %al,%edx
    d676:	8b 85 28 f9 ff ff    	mov    -0x6d8(%rbp),%eax
    d67c:	39 c2                	cmp    %eax,%edx
    d67e:	0f 94 c0             	sete   %al
    d681:	0f b6 c0             	movzbl %al,%eax
    d684:	39 85 10 e8 ff ff    	cmp    %eax,-0x17f0(%rbp)
    d68a:	0f 94 c0             	sete   %al
    d68d:	0f b6 d0             	movzbl %al,%edx
    d690:	0f b6 85 c0 e7 ff ff 	movzbl -0x1840(%rbp),%eax
    d697:	0f b6 c0             	movzbl %al,%eax
    d69a:	39 c2                	cmp    %eax,%edx
    d69c:	0f 9e c0             	setle  %al
    d69f:	0f b6 c0             	movzbl %al,%eax
    d6a2:	41 39 c6             	cmp    %eax,%r14d
    d6a5:	0f 9d c0             	setge  %al
    d6a8:	0f b6 d0             	movzbl %al,%edx
    d6ab:	48 8b 85 50 e9 ff ff 	mov    -0x16b0(%rbp),%rax
    d6b2:	8b 00                	mov    (%rax),%eax
    d6b4:	48 98                	cltq   
    d6b6:	48 89 d6             	mov    %rdx,%rsi
    d6b9:	48 89 c7             	mov    %rax,%rdi
    d6bc:	e8 6d 99 ff ff       	callq  702e <safe_add_func_uint64_t_u_u>
    d6c1:	89 c2                	mov    %eax,%edx
    d6c3:	48 8b 85 88 e7 ff ff 	mov    -0x1878(%rbp),%rax
    d6ca:	8b 00                	mov    (%rax),%eax
    d6cc:	31 d0                	xor    %edx,%eax
    d6ce:	98                   	cwtl   
    d6cf:	be 0b 00 00 00       	mov    $0xb,%esi
    d6d4:	89 c7                	mov    %eax,%edi
    d6d6:	e8 4f 8e ff ff       	callq  652a <safe_rshift_func_int16_t_s_s>
    d6db:	66 85 c0             	test   %ax,%ax
    d6de:	0f 84 89 00 00 00    	je     d76d <func_24+0x331a>
    d6e4:	48 8d 85 80 e8 ff ff 	lea    -0x1780(%rbp),%rax
    d6eb:	48 89 85 20 ea ff ff 	mov    %rax,-0x15e0(%rbp)
    d6f2:	48 8d 85 f0 f0 ff ff 	lea    -0xf10(%rbp),%rax
    d6f9:	48 05 48 01 00 00    	add    $0x148,%rax
    d6ff:	48 89 85 00 e9 ff ff 	mov    %rax,-0x1700(%rbp)
    d706:	48 8d 85 00 e9 ff ff 	lea    -0x1700(%rbp),%rax
    d70d:	48 89 85 28 ea ff ff 	mov    %rax,-0x15d8(%rbp)
    d714:	c7 85 34 e8 ff ff 1f 	movl   $0x641ec21f,-0x17cc(%rbp)
    d71b:	c2 1e 64 
    d71e:	48 8d 85 d0 e8 ff ff 	lea    -0x1730(%rbp),%rax
    d725:	48 89 85 30 ea ff ff 	mov    %rax,-0x15d0(%rbp)
    d72c:	48 8b 85 b0 e9 ff ff 	mov    -0x1650(%rbp),%rax
    d733:	48 89 05 6e 2d 01 00 	mov    %rax,0x12d6e(%rip)        # 204a8 <g_2077>
    d73a:	48 c7 05 6b 2d 01 00 	movq   $0x0,0x12d6b(%rip)        # 204b0 <g_2080>
    d741:	00 00 00 00 
    d745:	8b 85 24 f9 ff ff    	mov    -0x6dc(%rbp),%eax
    d74b:	89 c6                	mov    %eax,%esi
    d74d:	bf 01 00 00 00       	mov    $0x1,%edi
    d752:	e8 4a 8b ff ff       	callq  62a1 <safe_lshift_func_int8_t_s_s>
    d757:	48 8b 85 30 ea ff ff 	mov    -0x15d0(%rbp),%rax
    d75e:	48 8d 95 c8 e8 ff ff 	lea    -0x1738(%rbp),%rdx
    d765:	48 89 10             	mov    %rdx,(%rax)
    d768:	e9 1c 04 00 00       	jmpq   db89 <func_24+0x3736>
    d76d:	48 8d 85 90 f8 ff ff 	lea    -0x770(%rbp),%rax
    d774:	48 05 a4 00 00 00    	add    $0xa4,%rax
    d77a:	48 89 85 f8 e9 ff ff 	mov    %rax,-0x1608(%rbp)
    d781:	48 8d 05 dc f8 00 00 	lea    0xf8dc(%rip),%rax        # 1d064 <g_47>
    d788:	48 89 85 00 ea ff ff 	mov    %rax,-0x1600(%rbp)
    d78f:	48 8d 05 22 02 01 00 	lea    0x10222(%rip),%rax        # 1d9b8 <g_262>
    d796:	48 89 85 08 ea ff ff 	mov    %rax,-0x15f8(%rbp)
    d79d:	48 c7 85 10 ea ff ff 	movq   $0x0,-0x15f0(%rbp)
    d7a4:	00 00 00 00 
    d7a8:	48 8d 05 b5 f8 00 00 	lea    0xf8b5(%rip),%rax        # 1d064 <g_47>
    d7af:	48 89 85 18 ea ff ff 	mov    %rax,-0x15e8(%rbp)
    d7b6:	48 8d 85 c4 e7 ff ff 	lea    -0x183c(%rbp),%rax
    d7bd:	48 89 85 d0 ed ff ff 	mov    %rax,-0x1230(%rbp)
    d7c4:	48 8d 85 c4 e7 ff ff 	lea    -0x183c(%rbp),%rax
    d7cb:	48 89 85 d8 ed ff ff 	mov    %rax,-0x1228(%rbp)
    d7d2:	48 8d 85 c4 e7 ff ff 	lea    -0x183c(%rbp),%rax
    d7d9:	48 89 85 e0 ed ff ff 	mov    %rax,-0x1220(%rbp)
    d7e0:	48 8d 85 90 f8 ff ff 	lea    -0x770(%rbp),%rax
    d7e7:	48 83 c0 5c          	add    $0x5c,%rax
    d7eb:	48 89 85 e8 ed ff ff 	mov    %rax,-0x1218(%rbp)
    d7f2:	48 8d 85 90 f8 ff ff 	lea    -0x770(%rbp),%rax
    d7f9:	48 83 c0 5c          	add    $0x5c,%rax
    d7fd:	48 89 85 f0 ed ff ff 	mov    %rax,-0x1210(%rbp)
    d804:	48 8d 85 90 f8 ff ff 	lea    -0x770(%rbp),%rax
    d80b:	48 83 c0 5c          	add    $0x5c,%rax
    d80f:	48 89 85 f8 ed ff ff 	mov    %rax,-0x1208(%rbp)
    d816:	48 8d 85 c4 e7 ff ff 	lea    -0x183c(%rbp),%rax
    d81d:	48 89 85 00 ee ff ff 	mov    %rax,-0x1200(%rbp)
    d824:	48 8d 85 c4 e7 ff ff 	lea    -0x183c(%rbp),%rax
    d82b:	48 89 85 08 ee ff ff 	mov    %rax,-0x11f8(%rbp)
    d832:	48 8d 85 c4 e7 ff ff 	lea    -0x183c(%rbp),%rax
    d839:	48 89 85 10 ee ff ff 	mov    %rax,-0x11f0(%rbp)
    d840:	48 8d 85 90 f8 ff ff 	lea    -0x770(%rbp),%rax
    d847:	48 83 c0 5c          	add    $0x5c,%rax
    d84b:	48 89 85 18 ee ff ff 	mov    %rax,-0x11e8(%rbp)
    d852:	48 8d 85 90 f8 ff ff 	lea    -0x770(%rbp),%rax
    d859:	48 83 c0 5c          	add    $0x5c,%rax
    d85d:	48 89 85 20 ee ff ff 	mov    %rax,-0x11e0(%rbp)
    d864:	48 8d 85 90 f8 ff ff 	lea    -0x770(%rbp),%rax
    d86b:	48 83 c0 5c          	add    $0x5c,%rax
    d86f:	48 89 85 28 ee ff ff 	mov    %rax,-0x11d8(%rbp)
    d876:	48 8d 85 c4 e7 ff ff 	lea    -0x183c(%rbp),%rax
    d87d:	48 89 85 30 ee ff ff 	mov    %rax,-0x11d0(%rbp)
    d884:	48 8d 85 c4 e7 ff ff 	lea    -0x183c(%rbp),%rax
    d88b:	48 89 85 38 ee ff ff 	mov    %rax,-0x11c8(%rbp)
    d892:	48 8d 85 c4 e7 ff ff 	lea    -0x183c(%rbp),%rax
    d899:	48 89 85 40 ee ff ff 	mov    %rax,-0x11c0(%rbp)
    d8a0:	0f b6 85 9f e7 ff ff 	movzbl -0x1861(%rbp),%eax
    d8a7:	83 e8 01             	sub    $0x1,%eax
    d8aa:	88 85 9f e7 ff ff    	mov    %al,-0x1861(%rbp)
    d8b0:	e9 d4 02 00 00       	jmpq   db89 <func_24+0x3736>
    d8b5:	c7 85 1c e8 ff ff 93 	movl   $0xe4e31b93,-0x17e4(%rbp)
    d8bc:	1b e3 e4 
    d8bf:	48 8d 85 a8 e8 ff ff 	lea    -0x1758(%rbp),%rax
    d8c6:	48 89 85 00 e9 ff ff 	mov    %rax,-0x1700(%rbp)
    d8cd:	48 8d 85 00 e9 ff ff 	lea    -0x1700(%rbp),%rax
    d8d4:	48 89 85 c0 e9 ff ff 	mov    %rax,-0x1640(%rbp)
    d8db:	48 8b 05 ee 26 01 00 	mov    0x126ee(%rip),%rax        # 1ffd0 <g_111>
    d8e2:	48 8b 00             	mov    (%rax),%rax
    d8e5:	48 8b 00             	mov    (%rax),%rax
    d8e8:	8b 00                	mov    (%rax),%eax
    d8ea:	85 c0                	test   %eax,%eax
    d8ec:	0f 84 8b 02 00 00    	je     db7d <func_24+0x372a>
    d8f2:	48 c7 85 c8 e9 ff ff 	movq   $0x0,-0x1638(%rbp)
    d8f9:	00 00 00 00 
    d8fd:	c7 85 20 e8 ff ff f0 	movl   $0xafc5c7f0,-0x17e0(%rbp)
    d904:	c7 c5 af 
    d907:	48 8b 05 c2 3c 01 00 	mov    0x13cc2(%rip),%rax        # 215d0 <g_131>
    d90e:	48 8b 95 88 e7 ff ff 	mov    -0x1878(%rbp),%rdx
    d915:	48 89 10             	mov    %rdx,(%rax)
    d918:	48 8b 85 08 e9 ff ff 	mov    -0x16f8(%rbp),%rax
    d91f:	8b 00                	mov    (%rax),%eax
    d921:	23 85 1c e8 ff ff    	and    -0x17e4(%rbp),%eax
    d927:	39 85 1c e8 ff ff    	cmp    %eax,-0x17e4(%rbp)
    d92d:	0f 9d c0             	setge  %al
    d930:	0f b6 d8             	movzbl %al,%ebx
    d933:	8b 05 e7 00 01 00    	mov    0x100e7(%rip),%eax        # 1da20 <g_510+0x10>
    d939:	c1 e0 05             	shl    $0x5,%eax
    d93c:	c1 f8 05             	sar    $0x5,%eax
    d93f:	41 89 c4             	mov    %eax,%r12d
    d942:	8b 85 9c ec ff ff    	mov    -0x1364(%rbp),%eax
    d948:	89 c1                	mov    %eax,%ecx
    d94a:	48 8b 85 18 e9 ff ff 	mov    -0x16e8(%rbp),%rax
    d951:	8b 00                	mov    (%rax),%eax
    d953:	89 c6                	mov    %eax,%esi
    d955:	48 8b 85 58 f7 ff ff 	mov    -0x8a8(%rbp),%rax
    d95c:	48 39 85 c8 e9 ff ff 	cmp    %rax,-0x1638(%rbp)
    d963:	0f 94 c0             	sete   %al
    d966:	0f b6 d0             	movzbl %al,%edx
    d969:	8b 85 2c f9 ff ff    	mov    -0x6d4(%rbp),%eax
    d96f:	39 c2                	cmp    %eax,%edx
    d971:	0f 95 c0             	setne  %al
    d974:	0f b6 c0             	movzbl %al,%eax
    d977:	21 f0                	and    %esi,%eax
    d979:	98                   	cwtl   
    d97a:	89 ce                	mov    %ecx,%esi
    d97c:	89 c7                	mov    %eax,%edi
    d97e:	e8 5e 8b ff ff       	callq  64e1 <safe_lshift_func_int16_t_s_u>
    d983:	66 83 f8 fe          	cmp    $0xfffe,%ax
    d987:	0f 9c c0             	setl   %al
    d98a:	0f b6 c0             	movzbl %al,%eax
    d98d:	44 89 e6             	mov    %r12d,%esi
    d990:	89 c7                	mov    %eax,%edi
    d992:	e8 21 95 ff ff       	callq  6eb8 <safe_add_func_uint32_t_u_u>
    d997:	89 c2                	mov    %eax,%edx
    d999:	48 8b 05 e0 2a 01 00 	mov    0x12ae0(%rip),%rax        # 20480 <g_1865>
    d9a0:	48 8b 00             	mov    (%rax),%rax
    d9a3:	66 89 10             	mov    %dx,(%rax)
    d9a6:	0f b7 00             	movzwl (%rax),%eax
    d9a9:	0f b7 c0             	movzwl %ax,%eax
    d9ac:	39 c3                	cmp    %eax,%ebx
    d9ae:	0f 95 c0             	setne  %al
    d9b1:	0f b6 c0             	movzbl %al,%eax
    d9b4:	be 58 25 9c 8f       	mov    $0x8f9c2558,%esi
    d9b9:	89 c7                	mov    %eax,%edi
    d9bb:	e8 10 95 ff ff       	callq  6ed0 <safe_sub_func_uint32_t_u_u>
    d9c0:	48 8b 95 88 e9 ff ff 	mov    -0x1678(%rbp),%rdx
    d9c7:	0f b7 12             	movzwl (%rdx),%edx
    d9ca:	31 d0                	xor    %edx,%eax
    d9cc:	89 c2                	mov    %eax,%edx
    d9ce:	48 8b 85 88 e9 ff ff 	mov    -0x1678(%rbp),%rax
    d9d5:	66 89 10             	mov    %dx,(%rax)
    d9d8:	48 8b 85 88 e9 ff ff 	mov    -0x1678(%rbp),%rax
    d9df:	0f b7 00             	movzwl (%rax),%eax
    d9e2:	0f bf d0             	movswl %ax,%edx
    d9e5:	8b 85 1c e8 ff ff    	mov    -0x17e4(%rbp),%eax
    d9eb:	98                   	cwtl   
    d9ec:	89 d6                	mov    %edx,%esi
    d9ee:	89 c7                	mov    %eax,%edi
    d9f0:	e8 9d 8a ff ff       	callq  6492 <safe_lshift_func_int16_t_s_s>
    d9f5:	66 85 c0             	test   %ax,%ax
    d9f8:	75 0b                	jne    da05 <func_24+0x35b2>
    d9fa:	0f b6 05 d0 01 01 00 	movzbl 0x101d0(%rip),%eax        # 1dbd1 <g_1521+0x1>
    da01:	84 c0                	test   %al,%al
    da03:	74 07                	je     da0c <func_24+0x35b9>
    da05:	ba 01 00 00 00       	mov    $0x1,%edx
    da0a:	eb 05                	jmp    da11 <func_24+0x35be>
    da0c:	ba 00 00 00 00       	mov    $0x0,%edx
    da11:	48 8b 85 08 e9 ff ff 	mov    -0x16f8(%rbp),%rax
    da18:	89 10                	mov    %edx,(%rax)
    da1a:	48 8b 85 08 e9 ff ff 	mov    -0x16f8(%rbp),%rax
    da21:	8b 10                	mov    (%rax),%edx
    da23:	48 8b 85 50 e9 ff ff 	mov    -0x16b0(%rbp),%rax
    da2a:	8b 00                	mov    (%rax),%eax
    da2c:	21 c2                	and    %eax,%edx
    da2e:	48 8b 85 50 e9 ff ff 	mov    -0x16b0(%rbp),%rax
    da35:	89 10                	mov    %edx,(%rax)
    da37:	48 8b 85 88 e7 ff ff 	mov    -0x1878(%rbp),%rax
    da3e:	48 8b 15 9b 25 01 00 	mov    0x1259b(%rip),%rdx        # 1ffe0 <g_130>
    da45:	48 8b 1a             	mov    (%rdx),%rbx
    da48:	48 89 c7             	mov    %rax,%rdi
    da4b:	e8 a5 65 00 00       	callq  13ff5 <func_59>
    da50:	48 89 03             	mov    %rax,(%rbx)
    da53:	48 8b 85 00 e9 ff ff 	mov    -0x1700(%rbp),%rax
    da5a:	48 8b 00             	mov    (%rax),%rax
    da5d:	48 8b 00             	mov    (%rax),%rax
    da60:	48 8b 00             	mov    (%rax),%rax
    da63:	8b 00                	mov    (%rax),%eax
    da65:	48 63 d8             	movslq %eax,%rbx
    da68:	48 8b 85 88 e8 ff ff 	mov    -0x1778(%rbp),%rax
    da6f:	48 8b 00             	mov    (%rax),%rax
    da72:	48 8b 00             	mov    (%rax),%rax
    da75:	48 8b 00             	mov    (%rax),%rax
    da78:	44 8b 20             	mov    (%rax),%r12d
    da7b:	48 8b 05 4e 3b 01 00 	mov    0x13b4e(%rip),%rax        # 215d0 <g_131>
    da82:	48 8b 00             	mov    (%rax),%rax
    da85:	8b 10                	mov    (%rax),%edx
    da87:	48 8b 85 80 e8 ff ff 	mov    -0x1780(%rbp),%rax
    da8e:	48 8b 08             	mov    (%rax),%rcx
    da91:	48 8d 85 c0 e8 ff ff 	lea    -0x1740(%rbp),%rax
    da98:	48 39 c1             	cmp    %rax,%rcx
    da9b:	0f 94 c0             	sete   %al
    da9e:	0f b6 c0             	movzbl %al,%eax
    daa1:	39 c2                	cmp    %eax,%edx
    daa3:	0f 9f c0             	setg   %al
    daa6:	44 0f b6 e8          	movzbl %al,%r13d
    daaa:	8b 85 20 e8 ff ff    	mov    -0x17e0(%rbp),%eax
    dab0:	0f be c0             	movsbl %al,%eax
    dab3:	be 01 00 00 00       	mov    $0x1,%esi
    dab8:	89 c7                	mov    %eax,%edi
    daba:	e8 53 87 ff ff       	callq  6212 <safe_mul_func_int8_t_s_s>
    dabf:	0f be c0             	movsbl %al,%eax
    dac2:	41 39 c5             	cmp    %eax,%r13d
    dac5:	0f 9c c0             	setl   %al
    dac8:	0f b6 d0             	movzbl %al,%edx
    dacb:	48 8b 85 50 e9 ff ff 	mov    -0x16b0(%rbp),%rax
    dad2:	8b 00                	mov    (%rax),%eax
    dad4:	31 d0                	xor    %edx,%eax
    dad6:	0f bf d0             	movswl %ax,%edx
    dad9:	8b 85 20 e8 ff ff    	mov    -0x17e0(%rbp),%eax
    dadf:	98                   	cwtl   
    dae0:	89 d6                	mov    %edx,%esi
    dae2:	89 c7                	mov    %eax,%edi
    dae4:	e8 ea 88 ff ff       	callq  63d3 <safe_sub_func_int16_t_s_s>
    dae9:	66 85 c0             	test   %ax,%ax
    daec:	75 09                	jne    daf7 <func_24+0x36a4>
    daee:	83 bd 20 e8 ff ff 00 	cmpl   $0x0,-0x17e0(%rbp)
    daf5:	74 07                	je     dafe <func_24+0x36ab>
    daf7:	b8 01 00 00 00       	mov    $0x1,%eax
    dafc:	eb 05                	jmp    db03 <func_24+0x36b0>
    dafe:	b8 00 00 00 00       	mov    $0x0,%eax
    db03:	44 39 e0             	cmp    %r12d,%eax
    db06:	0f 9f c0             	setg   %al
    db09:	0f b6 c0             	movzbl %al,%eax
    db0c:	f7 d0                	not    %eax
    db0e:	89 c2                	mov    %eax,%edx
    db10:	8b 85 a8 f8 ff ff    	mov    -0x758(%rbp),%eax
    db16:	39 c2                	cmp    %eax,%edx
    db18:	0f 95 c0             	setne  %al
    db1b:	0f b6 c0             	movzbl %al,%eax
    db1e:	be fc ff ff ff       	mov    $0xfffffffc,%esi
    db23:	89 c7                	mov    %eax,%edi
    db25:	e8 cb 88 ff ff       	callq  63f5 <safe_mul_func_int16_t_s_s>
    db2a:	48 8b 85 38 e9 ff ff 	mov    -0x16c8(%rbp),%rax
    db31:	48 89 05 98 29 01 00 	mov    %rax,0x12998(%rip)        # 204d0 <g_2129>
    db38:	48 8b 05 91 29 01 00 	mov    0x12991(%rip),%rax        # 204d0 <g_2129>
    db3f:	48 89 05 62 3b 01 00 	mov    %rax,0x13b62(%rip)        # 216a8 <g_2131>
    db46:	48 8b 05 5b 3b 01 00 	mov    0x13b5b(%rip),%rax        # 216a8 <g_2131>
    db4d:	48 39 85 c0 e9 ff ff 	cmp    %rax,-0x1640(%rbp)
    db54:	0f 94 c0             	sete   %al
    db57:	0f b6 c0             	movzbl %al,%eax
    db5a:	48 89 de             	mov    %rbx,%rsi
    db5d:	48 89 c7             	mov    %rax,%rdi
    db60:	e8 c9 94 ff ff       	callq  702e <safe_add_func_uint64_t_u_u>
    db65:	48 8b 95 08 e9 ff ff 	mov    -0x16f8(%rbp),%rdx
    db6c:	8b 12                	mov    (%rdx),%edx
    db6e:	21 d0                	and    %edx,%eax
    db70:	89 c2                	mov    %eax,%edx
    db72:	48 8b 85 08 e9 ff ff 	mov    -0x16f8(%rbp),%rax
    db79:	89 10                	mov    %edx,(%rax)
    db7b:	eb 0c                	jmp    db89 <func_24+0x3736>
    db7d:	48 8b 85 88 e7 ff ff 	mov    -0x1878(%rbp),%rax
    db84:	e9 58 06 00 00       	jmpq   e1e1 <func_24+0x3d8e>
    db89:	83 85 ec e7 ff ff 01 	addl   $0x1,-0x1814(%rbp)
    db90:	0f b6 05 81 00 01 00 	movzbl 0x10081(%rip),%eax        # 1dc18 <g_1546>
    db97:	83 e8 01             	sub    $0x1,%eax
    db9a:	88 05 78 00 01 00    	mov    %al,0x10078(%rip)        # 1dc18 <g_1546>
    dba0:	0f b6 05 71 00 01 00 	movzbl 0x10071(%rip),%eax        # 1dc18 <g_1546>
    dba7:	3c e3                	cmp    $0xe3,%al
    dba9:	0f 8c 52 f2 ff ff    	jl     ce01 <func_24+0x29ae>
    dbaf:	48 8b 85 88 e7 ff ff 	mov    -0x1878(%rbp),%rax
    dbb6:	48 89 85 88 e7 ff ff 	mov    %rax,-0x1878(%rbp)
    dbbd:	48 8b 85 50 e9 ff ff 	mov    -0x16b0(%rbp),%rax
    dbc4:	8b 00                	mov    (%rax),%eax
    dbc6:	83 f8 ff             	cmp    $0xffffffff,%eax
    dbc9:	0f 84 f0 00 00 00    	je     dcbf <func_24+0x386c>
    dbcf:	c7 85 64 e8 ff ff ff 	movl   $0xffffffff,-0x179c(%rbp)
    dbd6:	ff ff ff 
    dbd9:	8b 9d 64 e8 ff ff    	mov    -0x179c(%rbp),%ebx
    dbdf:	48 8b 05 da 28 01 00 	mov    0x128da(%rip),%rax        # 204c0 <g_2090>
    dbe6:	48 8b 00             	mov    (%rax),%rax
    dbe9:	48 8b 00             	mov    (%rax),%rax
    dbec:	49 89 c5             	mov    %rax,%r13
    dbef:	48 8b 05 92 3a 01 00 	mov    0x13a92(%rip),%rax        # 21688 <g_1606+0x8>
    dbf6:	44 0f b6 e0          	movzbl %al,%r12d
    dbfa:	48 8b 85 50 e9 ff ff 	mov    -0x16b0(%rbp),%rax
    dc01:	8b 00                	mov    (%rax),%eax
    dc03:	be 01 00 00 00       	mov    $0x1,%esi
    dc08:	89 c7                	mov    %eax,%edi
    dc0a:	e8 f0 8a ff ff       	callq  66ff <safe_div_func_int32_t_s_s>
    dc0f:	f7 d0                	not    %eax
    dc11:	c1 e8 1f             	shr    $0x1f,%eax
    dc14:	0f b6 c0             	movzbl %al,%eax
    dc17:	44 89 e6             	mov    %r12d,%esi
    dc1a:	89 c7                	mov    %eax,%edi
    dc1c:	e8 ba 8f ff ff       	callq  6bdb <safe_div_func_uint8_t_u_u>
    dc21:	be ff ff 00 00       	mov    $0xffff,%esi
    dc26:	bf 00 00 00 00       	mov    $0x0,%edi
    dc2b:	e8 0d 91 ff ff       	callq  6d3d <safe_mul_func_uint16_t_u_u>
    dc30:	0f b7 c0             	movzwl %ax,%eax
    dc33:	4c 89 ee             	mov    %r13,%rsi
    dc36:	48 89 c7             	mov    %rax,%rdi
    dc39:	e8 76 8d ff ff       	callq  69b4 <safe_mod_func_int64_t_s_s>
    dc3e:	8b 85 64 e8 ff ff    	mov    -0x179c(%rbp),%eax
    dc44:	89 c2                	mov    %eax,%edx
    dc46:	48 8b 85 10 e9 ff ff 	mov    -0x16f0(%rbp),%rax
    dc4d:	88 10                	mov    %dl,(%rax)
    dc4f:	48 8b 85 10 e9 ff ff 	mov    -0x16f0(%rbp),%rax
    dc56:	0f b6 00             	movzbl (%rax),%eax
    dc59:	3c 01                	cmp    $0x1,%al
    dc5b:	0f 96 c0             	setbe  %al
    dc5e:	0f b6 d0             	movzbl %al,%edx
    dc61:	0f be 85 9c e7 ff ff 	movsbl -0x1864(%rbp),%eax
    dc68:	39 c2                	cmp    %eax,%edx
    dc6a:	0f 9d c0             	setge  %al
    dc6d:	0f b6 c0             	movzbl %al,%eax
    dc70:	be 00 00 00 00       	mov    $0x0,%esi
    dc75:	89 c7                	mov    %eax,%edi
    dc77:	e8 de 8e ff ff       	callq  6b5a <safe_add_func_uint8_t_u_u>
    dc7c:	0f b6 c0             	movzbl %al,%eax
    dc7f:	48 89 de             	mov    %rbx,%rsi
    dc82:	48 89 c7             	mov    %rax,%rdi
    dc85:	e8 25 94 ff ff       	callq  70af <safe_div_func_uint64_t_u_u>
    dc8a:	48 83 f8 01          	cmp    $0x1,%rax
    dc8e:	0f 94 c0             	sete   %al
    dc91:	0f b6 d0             	movzbl %al,%edx
    dc94:	48 8b 85 18 e9 ff ff 	mov    -0x16e8(%rbp),%rax
    dc9b:	8b 00                	mov    (%rax),%eax
    dc9d:	39 c2                	cmp    %eax,%edx
    dc9f:	0f 9c c0             	setl   %al
    dca2:	0f b6 d0             	movzbl %al,%edx
    dca5:	8b 85 ac e7 ff ff    	mov    -0x1854(%rbp),%eax
    dcab:	31 d0                	xor    %edx,%eax
    dcad:	89 85 ac e7 ff ff    	mov    %eax,-0x1854(%rbp)
    dcb3:	48 8b 85 88 e7 ff ff 	mov    -0x1878(%rbp),%rax
    dcba:	e9 22 05 00 00       	jmpq   e1e1 <func_24+0x3d8e>
    dcbf:	48 8d 85 a0 e8 ff ff 	lea    -0x1760(%rbp),%rax
    dcc6:	48 89 85 00 e9 ff ff 	mov    %rax,-0x1700(%rbp)
    dccd:	48 8d 85 00 e9 ff ff 	lea    -0x1700(%rbp),%rax
    dcd4:	48 89 85 90 f8 ff ff 	mov    %rax,-0x770(%rbp)
    dcdb:	48 c7 85 98 f8 ff ff 	movq   $0x0,-0x768(%rbp)
    dce2:	00 00 00 00 
    dce6:	48 8d 85 00 e9 ff ff 	lea    -0x1700(%rbp),%rax
    dced:	48 89 85 a0 f8 ff ff 	mov    %rax,-0x760(%rbp)
    dcf4:	48 c7 85 a8 f8 ff ff 	movq   $0x0,-0x758(%rbp)
    dcfb:	00 00 00 00 
    dcff:	48 8d 85 00 e9 ff ff 	lea    -0x1700(%rbp),%rax
    dd06:	48 89 85 b0 f8 ff ff 	mov    %rax,-0x750(%rbp)
    dd0d:	48 8d 85 00 e9 ff ff 	lea    -0x1700(%rbp),%rax
    dd14:	48 89 85 b8 f8 ff ff 	mov    %rax,-0x748(%rbp)
    dd1b:	48 8d 85 00 e9 ff ff 	lea    -0x1700(%rbp),%rax
    dd22:	48 89 85 c0 f8 ff ff 	mov    %rax,-0x740(%rbp)
    dd29:	48 c7 85 c8 f8 ff ff 	movq   $0x0,-0x738(%rbp)
    dd30:	00 00 00 00 
    dd34:	48 8d 85 00 e9 ff ff 	lea    -0x1700(%rbp),%rax
    dd3b:	48 89 85 d0 f8 ff ff 	mov    %rax,-0x730(%rbp)
    dd42:	48 c7 85 d8 f8 ff ff 	movq   $0x0,-0x728(%rbp)
    dd49:	00 00 00 00 
    dd4d:	48 8d 85 00 e9 ff ff 	lea    -0x1700(%rbp),%rax
    dd54:	48 89 85 e0 f8 ff ff 	mov    %rax,-0x720(%rbp)
    dd5b:	48 8d 85 00 e9 ff ff 	lea    -0x1700(%rbp),%rax
    dd62:	48 89 85 e8 f8 ff ff 	mov    %rax,-0x718(%rbp)
    dd69:	48 8d 85 00 e9 ff ff 	lea    -0x1700(%rbp),%rax
    dd70:	48 89 85 f0 f8 ff ff 	mov    %rax,-0x710(%rbp)
    dd77:	48 c7 85 f8 f8 ff ff 	movq   $0x0,-0x708(%rbp)
    dd7e:	00 00 00 00 
    dd82:	48 8d 85 00 e9 ff ff 	lea    -0x1700(%rbp),%rax
    dd89:	48 89 85 00 f9 ff ff 	mov    %rax,-0x700(%rbp)
    dd90:	48 8d 85 00 e9 ff ff 	lea    -0x1700(%rbp),%rax
    dd97:	48 89 85 08 f9 ff ff 	mov    %rax,-0x6f8(%rbp)
    dd9e:	48 8d 85 00 e9 ff ff 	lea    -0x1700(%rbp),%rax
    dda5:	48 89 85 10 f9 ff ff 	mov    %rax,-0x6f0(%rbp)
    ddac:	48 8d 85 00 e9 ff ff 	lea    -0x1700(%rbp),%rax
    ddb3:	48 89 85 18 f9 ff ff 	mov    %rax,-0x6e8(%rbp)
    ddba:	48 8d 85 00 e9 ff ff 	lea    -0x1700(%rbp),%rax
    ddc1:	48 89 85 20 f9 ff ff 	mov    %rax,-0x6e0(%rbp)
    ddc8:	48 c7 85 28 f9 ff ff 	movq   $0x0,-0x6d8(%rbp)
    ddcf:	00 00 00 00 
    ddd3:	48 c7 85 30 f9 ff ff 	movq   $0x0,-0x6d0(%rbp)
    ddda:	00 00 00 00 
    ddde:	48 c7 85 38 f9 ff ff 	movq   $0x0,-0x6c8(%rbp)
    dde5:	00 00 00 00 
    dde9:	48 8d 85 00 e9 ff ff 	lea    -0x1700(%rbp),%rax
    ddf0:	48 89 85 40 f9 ff ff 	mov    %rax,-0x6c0(%rbp)
    ddf7:	48 8d 85 00 e9 ff ff 	lea    -0x1700(%rbp),%rax
    ddfe:	48 89 85 48 f9 ff ff 	mov    %rax,-0x6b8(%rbp)
    de05:	48 8d 85 00 e9 ff ff 	lea    -0x1700(%rbp),%rax
    de0c:	48 89 85 50 f9 ff ff 	mov    %rax,-0x6b0(%rbp)
    de13:	48 8d 85 00 e9 ff ff 	lea    -0x1700(%rbp),%rax
    de1a:	48 89 85 58 f9 ff ff 	mov    %rax,-0x6a8(%rbp)
    de21:	48 c7 85 60 f9 ff ff 	movq   $0x0,-0x6a0(%rbp)
    de28:	00 00 00 00 
    de2c:	48 8d 85 00 e9 ff ff 	lea    -0x1700(%rbp),%rax
    de33:	48 89 85 68 f9 ff ff 	mov    %rax,-0x698(%rbp)
    de3a:	48 8d 85 00 e9 ff ff 	lea    -0x1700(%rbp),%rax
    de41:	48 89 85 70 f9 ff ff 	mov    %rax,-0x690(%rbp)
    de48:	48 8d 85 00 e9 ff ff 	lea    -0x1700(%rbp),%rax
    de4f:	48 89 85 78 f9 ff ff 	mov    %rax,-0x688(%rbp)
    de56:	48 c7 85 80 f9 ff ff 	movq   $0x0,-0x680(%rbp)
    de5d:	00 00 00 00 
    de61:	48 8d 85 00 e9 ff ff 	lea    -0x1700(%rbp),%rax
    de68:	48 89 85 88 f9 ff ff 	mov    %rax,-0x678(%rbp)
    de6f:	48 8d 85 00 e9 ff ff 	lea    -0x1700(%rbp),%rax
    de76:	48 89 85 90 f9 ff ff 	mov    %rax,-0x670(%rbp)
    de7d:	48 8d 85 00 e9 ff ff 	lea    -0x1700(%rbp),%rax
    de84:	48 89 85 98 f9 ff ff 	mov    %rax,-0x668(%rbp)
    de8b:	48 8d 85 00 e9 ff ff 	lea    -0x1700(%rbp),%rax
    de92:	48 89 85 a0 f9 ff ff 	mov    %rax,-0x660(%rbp)
    de99:	48 8d 85 00 e9 ff ff 	lea    -0x1700(%rbp),%rax
    dea0:	48 89 85 a8 f9 ff ff 	mov    %rax,-0x658(%rbp)
    dea7:	48 8d 85 00 e9 ff ff 	lea    -0x1700(%rbp),%rax
    deae:	48 89 85 b0 f9 ff ff 	mov    %rax,-0x650(%rbp)
    deb5:	48 8d 85 00 e9 ff ff 	lea    -0x1700(%rbp),%rax
    debc:	48 89 85 b8 f9 ff ff 	mov    %rax,-0x648(%rbp)
    dec3:	48 c7 85 c0 f9 ff ff 	movq   $0x0,-0x640(%rbp)
    deca:	00 00 00 00 
    dece:	48 8d 85 00 e9 ff ff 	lea    -0x1700(%rbp),%rax
    ded5:	48 89 85 c8 f9 ff ff 	mov    %rax,-0x638(%rbp)
    dedc:	48 8d 85 00 e9 ff ff 	lea    -0x1700(%rbp),%rax
    dee3:	48 89 85 d0 f9 ff ff 	mov    %rax,-0x630(%rbp)
    deea:	48 c7 85 d8 f9 ff ff 	movq   $0x0,-0x628(%rbp)
    def1:	00 00 00 00 
    def5:	48 c7 85 e0 f9 ff ff 	movq   $0x0,-0x620(%rbp)
    defc:	00 00 00 00 
    df00:	48 8d 85 00 e9 ff ff 	lea    -0x1700(%rbp),%rax
    df07:	48 89 85 e8 f9 ff ff 	mov    %rax,-0x618(%rbp)
    df0e:	48 8d 85 00 e9 ff ff 	lea    -0x1700(%rbp),%rax
    df15:	48 89 85 f0 f9 ff ff 	mov    %rax,-0x610(%rbp)
    df1c:	48 c7 85 f8 f9 ff ff 	movq   $0x0,-0x608(%rbp)
    df23:	00 00 00 00 
    df27:	48 8d 85 00 e9 ff ff 	lea    -0x1700(%rbp),%rax
    df2e:	48 89 85 00 fa ff ff 	mov    %rax,-0x600(%rbp)
    df35:	48 8d 85 00 e9 ff ff 	lea    -0x1700(%rbp),%rax
    df3c:	48 89 85 08 fa ff ff 	mov    %rax,-0x5f8(%rbp)
    df43:	48 c7 85 10 fa ff ff 	movq   $0x0,-0x5f0(%rbp)
    df4a:	00 00 00 00 
    df4e:	48 8d 85 00 e9 ff ff 	lea    -0x1700(%rbp),%rax
    df55:	48 89 85 18 fa ff ff 	mov    %rax,-0x5e8(%rbp)
    df5c:	48 8d 85 00 e9 ff ff 	lea    -0x1700(%rbp),%rax
    df63:	48 89 85 20 fa ff ff 	mov    %rax,-0x5e0(%rbp)
    df6a:	48 c7 85 28 fa ff ff 	movq   $0x0,-0x5d8(%rbp)
    df71:	00 00 00 00 
    df75:	48 8d 85 00 e9 ff ff 	lea    -0x1700(%rbp),%rax
    df7c:	48 89 85 30 fa ff ff 	mov    %rax,-0x5d0(%rbp)
    df83:	48 8d 85 00 e9 ff ff 	lea    -0x1700(%rbp),%rax
    df8a:	48 89 85 38 fa ff ff 	mov    %rax,-0x5c8(%rbp)
    df91:	48 8d 85 00 e9 ff ff 	lea    -0x1700(%rbp),%rax
    df98:	48 89 85 40 fa ff ff 	mov    %rax,-0x5c0(%rbp)
    df9f:	48 8d 85 00 e9 ff ff 	lea    -0x1700(%rbp),%rax
    dfa6:	48 89 85 48 fa ff ff 	mov    %rax,-0x5b8(%rbp)
    dfad:	c7 85 60 e8 ff ff ff 	movl   $0xffffffff,-0x17a0(%rbp)
    dfb4:	ff ff ff 
    dfb7:	48 8d 85 ac e7 ff ff 	lea    -0x1854(%rbp),%rax
    dfbe:	48 89 85 70 eb ff ff 	mov    %rax,-0x1490(%rbp)
    dfc5:	48 8d 85 f0 ee ff ff 	lea    -0x1110(%rbp),%rax
    dfcc:	48 8d 15 ed ab 00 00 	lea    0xabed(%rip),%rdx        # 18bc0 <g_1879+0xb40>
    dfd3:	b9 2d 00 00 00       	mov    $0x2d,%ecx
    dfd8:	48 89 c7             	mov    %rax,%rdi
    dfdb:	48 89 d6             	mov    %rdx,%rsi
    dfde:	f3 48 a5             	rep movsq %ds:(%rsi),%es:(%rdi)
    dfe1:	48 8d 05 fc 35 01 00 	lea    0x135fc(%rip),%rax        # 215e4 <g_402>
    dfe8:	48 89 85 d0 ed ff ff 	mov    %rax,-0x1230(%rbp)
    dfef:	48 c7 85 d8 ed ff ff 	movq   $0x0,-0x1228(%rbp)
    dff6:	00 00 00 00 
    dffa:	48 c7 85 e0 ed ff ff 	movq   $0x0,-0x1220(%rbp)
    e001:	00 00 00 00 
    e005:	48 8d 05 d8 35 01 00 	lea    0x135d8(%rip),%rax        # 215e4 <g_402>
    e00c:	48 89 85 e8 ed ff ff 	mov    %rax,-0x1218(%rbp)
    e013:	48 c7 85 f0 ed ff ff 	movq   $0x0,-0x1210(%rbp)
    e01a:	00 00 00 00 
    e01e:	48 c7 85 f8 ed ff ff 	movq   $0x0,-0x1208(%rbp)
    e025:	00 00 00 00 
    e029:	48 8d 05 b4 35 01 00 	lea    0x135b4(%rip),%rax        # 215e4 <g_402>
    e030:	48 89 85 00 ee ff ff 	mov    %rax,-0x1200(%rbp)
    e037:	66 c7 85 c0 ec ff ff 	movw   $0x0,-0x1340(%rbp)
    e03e:	00 00 
    e040:	66 c7 85 c2 ec ff ff 	movw   $0x8,-0x133e(%rbp)
    e047:	08 00 
    e049:	66 c7 85 c4 ec ff ff 	movw   $0xf85,-0x133c(%rbp)
    e050:	85 0f 
    e052:	66 c7 85 c6 ec ff ff 	movw   $0x8,-0x133a(%rbp)
    e059:	08 00 
    e05b:	66 c7 85 c8 ec ff ff 	movw   $0xffff,-0x1338(%rbp)
    e062:	ff ff 
    e064:	66 c7 85 ca ec ff ff 	movw   $0x8,-0x1336(%rbp)
    e06b:	08 00 
    e06d:	66 c7 85 cc ec ff ff 	movw   $0x8,-0x1334(%rbp)
    e074:	08 00 
    e076:	66 c7 85 ce ec ff ff 	movw   $0xc538,-0x1332(%rbp)
    e07d:	38 c5 
    e07f:	66 c7 85 d0 ec ff ff 	movw   $0xffff,-0x1330(%rbp)
    e086:	ff ff 
    e088:	66 c7 85 d2 ec ff ff 	movw   $0xc538,-0x132e(%rbp)
    e08f:	38 c5 
    e091:	66 c7 85 d4 ec ff ff 	movw   $0x8,-0x132c(%rbp)
    e098:	08 00 
    e09a:	66 c7 85 d6 ec ff ff 	movw   $0x8,-0x132a(%rbp)
    e0a1:	08 00 
    e0a3:	66 c7 85 d8 ec ff ff 	movw   $0xffff,-0x1328(%rbp)
    e0aa:	ff ff 
    e0ac:	66 c7 85 da ec ff ff 	movw   $0x8,-0x1326(%rbp)
    e0b3:	08 00 
    e0b5:	66 c7 85 dc ec ff ff 	movw   $0xf85,-0x1324(%rbp)
    e0bc:	85 0f 
    e0be:	48 8b 85 10 e9 ff ff 	mov    -0x16f0(%rbp),%rax
    e0c5:	0f b6 00             	movzbl (%rax),%eax
    e0c8:	8d 50 01             	lea    0x1(%rax),%edx
    e0cb:	48 8b 85 10 e9 ff ff 	mov    -0x16f0(%rbp),%rax
    e0d2:	88 10                	mov    %dl,(%rax)
    e0d4:	48 8b 85 50 e9 ff ff 	mov    -0x16b0(%rbp),%rax
    e0db:	8b 00                	mov    (%rax),%eax
    e0dd:	0f b6 d8             	movzbl %al,%ebx
    e0e0:	48 8b 85 88 e7 ff ff 	mov    -0x1878(%rbp),%rax
    e0e7:	8b 10                	mov    (%rax),%edx
    e0e9:	48 8b 05 b0 1e 01 00 	mov    0x11eb0(%rip),%rax        # 1ffa0 <g_46>
    e0f0:	8b 00                	mov    (%rax),%eax
    e0f2:	89 d6                	mov    %edx,%esi
    e0f4:	89 c7                	mov    %eax,%edi
    e0f6:	e8 d1 85 ff ff       	callq  66cc <safe_mod_func_int32_t_s_s>
    e0fb:	0f b7 d0             	movzwl %ax,%edx
    e0fe:	48 8b 85 18 e9 ff ff 	mov    -0x16e8(%rbp),%rax
    e105:	8b 00                	mov    (%rax),%eax
    e107:	0f b7 c0             	movzwl %ax,%eax
    e10a:	89 d6                	mov    %edx,%esi
    e10c:	89 c7                	mov    %eax,%edi
    e10e:	e8 2a 8c ff ff       	callq  6d3d <safe_mul_func_uint16_t_u_u>
    e113:	0f b6 c0             	movzbl %al,%eax
    e116:	83 e0 01             	and    $0x1,%eax
    e119:	89 de                	mov    %ebx,%esi
    e11b:	89 c7                	mov    %eax,%edi
    e11d:	e8 71 8a ff ff       	callq  6b93 <safe_mul_func_uint8_t_u_u>
    e122:	0f be c0             	movsbl %al,%eax
    e125:	89 c6                	mov    %eax,%esi
    e127:	bf 04 00 00 00       	mov    $0x4,%edi
    e12c:	e8 a3 80 ff ff       	callq  61d4 <safe_add_func_int8_t_s_s>
    e131:	48 8b 85 e0 f9 ff ff 	mov    -0x620(%rbp),%rax
    e138:	48 8d 15 81 23 01 00 	lea    0x12381(%rip),%rdx        # 204c0 <g_2090>
    e13f:	48 39 d0             	cmp    %rdx,%rax
    e142:	74 0b                	je     e14f <func_24+0x3cfc>
    e144:	0f b6 05 2d 09 01 00 	movzbl 0x1092d(%rip),%eax        # 1ea78 <g_2196>
    e14b:	84 c0                	test   %al,%al
    e14d:	74 07                	je     e156 <func_24+0x3d03>
    e14f:	b8 01 00 00 00       	mov    $0x1,%eax
    e154:	eb 05                	jmp    e15b <func_24+0x3d08>
    e156:	b8 00 00 00 00       	mov    $0x0,%eax
    e15b:	0f b6 c0             	movzbl %al,%eax
    e15e:	be 02 00 00 00       	mov    $0x2,%esi
    e163:	89 c7                	mov    %eax,%edi
    e165:	e8 e2 8a ff ff       	callq  6c4c <safe_lshift_func_uint8_t_u_u>
    e16a:	0f b6 c0             	movzbl %al,%eax
    e16d:	be ff ff ff ff       	mov    $0xffffffff,%esi
    e172:	89 c7                	mov    %eax,%edi
    e174:	e8 3f 8d ff ff       	callq  6eb8 <safe_add_func_uint32_t_u_u>
    e179:	85 c0                	test   %eax,%eax
    e17b:	75 0d                	jne    e18a <func_24+0x3d37>
    e17d:	48 8b 85 88 e7 ff ff 	mov    -0x1878(%rbp),%rax
    e184:	8b 00                	mov    (%rax),%eax
    e186:	85 c0                	test   %eax,%eax
    e188:	74 07                	je     e191 <func_24+0x3d3e>
    e18a:	ba 01 00 00 00       	mov    $0x1,%edx
    e18f:	eb 05                	jmp    e196 <func_24+0x3d43>
    e191:	ba 00 00 00 00       	mov    $0x0,%edx
    e196:	48 8b 85 50 e9 ff ff 	mov    -0x16b0(%rbp),%rax
    e19d:	8b 00                	mov    (%rax),%eax
    e19f:	39 c2                	cmp    %eax,%edx
    e1a1:	0f 9c c0             	setl   %al
    e1a4:	0f b6 d0             	movzbl %al,%edx
    e1a7:	48 8b 85 08 e9 ff ff 	mov    -0x16f8(%rbp),%rax
    e1ae:	8b 00                	mov    (%rax),%eax
    e1b0:	39 c2                	cmp    %eax,%edx
    e1b2:	0f 95 c2             	setne  %dl
    e1b5:	48 8b 05 1c 1e 01 00 	mov    0x11e1c(%rip),%rax        # 1ffd8 <g_110>
    e1bc:	48 8b 00             	mov    (%rax),%rax
    e1bf:	48 8b 00             	mov    (%rax),%rax
    e1c2:	48 8b 00             	mov    (%rax),%rax
    e1c5:	0f b6 d2             	movzbl %dl,%edx
    e1c8:	89 10                	mov    %edx,(%rax)
    e1ca:	0f b6 85 9d e7 ff ff 	movzbl -0x1863(%rbp),%eax
    e1d1:	83 e8 01             	sub    $0x1,%eax
    e1d4:	88 85 9d e7 ff ff    	mov    %al,-0x1863(%rbp)
    e1da:	48 8b 85 88 e7 ff ff 	mov    -0x1878(%rbp),%rax
    e1e1:	48 8b 5d c8          	mov    -0x38(%rbp),%rbx
    e1e5:	64 48 33 1c 25 28 00 	xor    %fs:0x28,%rbx
    e1ec:	00 00 
    e1ee:	74 05                	je     e1f5 <func_24+0x3da2>
    e1f0:	e8 7b 7e ff ff       	callq  6070 <__stack_chk_fail@plt>
    e1f5:	48 81 c4 58 18 00 00 	add    $0x1858,%rsp
    e1fc:	5b                   	pop    %rbx
    e1fd:	41 5c                	pop    %r12
    e1ff:	41 5d                	pop    %r13
    e201:	41 5e                	pop    %r14
    e203:	41 5f                	pop    %r15
    e205:	5d                   	pop    %rbp
    e206:	c3                   	retq   

000000000000e207 <func_28>:
    e207:	f3 0f 1e fa          	endbr64 
    e20b:	55                   	push   %rbp
    e20c:	48 89 e5             	mov    %rsp,%rbp
    e20f:	48 89 7d f8          	mov    %rdi,-0x8(%rbp)
    e213:	89 75 f4             	mov    %esi,-0xc(%rbp)
    e216:	89 d0                	mov    %edx,%eax
    e218:	88 45 f0             	mov    %al,-0x10(%rbp)
    e21b:	66 c7 05 d4 f7 00 00 	movw   $0x0,0xf7d4(%rip)        # 1d9f8 <g_477>
    e222:	00 00 
    e224:	90                   	nop
    e225:	0f b7 05 cc f7 00 00 	movzwl 0xf7cc(%rip),%eax        # 1d9f8 <g_477>
    e22c:	66 83 f8 03          	cmp    $0x3,%ax
    e230:	77 06                	ja     e238 <func_28+0x31>
    e232:	0f b6 45 f0          	movzbl -0x10(%rbp),%eax
    e236:	eb 06                	jmp    e23e <func_28+0x37>
    e238:	8b 05 82 fc 00 00    	mov    0xfc82(%rip),%eax        # 1dec0 <g_1601>
    e23e:	5d                   	pop    %rbp
    e23f:	c3                   	retq   

000000000000e240 <func_33>:
    e240:	f3 0f 1e fa          	endbr64 
    e244:	55                   	push   %rbp
    e245:	48 89 e5             	mov    %rsp,%rbp
    e248:	41 57                	push   %r15
    e24a:	41 56                	push   %r14
    e24c:	41 55                	push   %r13
    e24e:	41 54                	push   %r12
    e250:	53                   	push   %rbx
    e251:	48 81 ec 00 10 00 00 	sub    $0x1000,%rsp
    e258:	48 83 0c 24 00       	orq    $0x0,(%rsp)
    e25d:	48 81 ec 18 02 00 00 	sub    $0x218,%rsp
    e264:	89 f0                	mov    %esi,%eax
    e266:	48 89 95 d0 ed ff ff 	mov    %rdx,-0x1230(%rbp)
    e26d:	89 8d cc ed ff ff    	mov    %ecx,-0x1234(%rbp)
    e273:	89 fa                	mov    %edi,%edx
    e275:	88 95 dc ed ff ff    	mov    %dl,-0x1224(%rbp)
    e27b:	66 89 85 d8 ed ff ff 	mov    %ax,-0x1228(%rbp)
    e282:	64 48 8b 04 25 28 00 	mov    %fs:0x28,%rax
    e289:	00 00 
    e28b:	48 89 45 c8          	mov    %rax,-0x38(%rbp)
    e28f:	31 c0                	xor    %eax,%eax
    e291:	48 c7 45 c0 00 00 00 	movq   $0x0,-0x40(%rbp)
    e298:	00 
    e299:	48 8d 05 b0 f5 00 00 	lea    0xf5b0(%rip),%rax        # 1d850 <g_212+0x2d0>
    e2a0:	48 89 85 c0 ef ff ff 	mov    %rax,-0x1040(%rbp)
    e2a7:	c7 85 f4 ed ff ff f6 	movl   $0xfffffff6,-0x120c(%rbp)
    e2ae:	ff ff ff 
    e2b1:	c6 85 eb ed ff ff f1 	movb   $0xf1,-0x1215(%rbp)
    e2b8:	c7 85 f8 ed ff ff e3 	movl   $0x41e68ce3,-0x1208(%rbp)
    e2bf:	8c e6 41 
    e2c2:	48 b8 01 01 01 01 01 	movabs $0x101010101010101,%rax
    e2c9:	01 01 01 
    e2cc:	48 89 85 c0 f1 ff ff 	mov    %rax,-0xe40(%rbp)
    e2d3:	66 c7 85 c8 f1 ff ff 	movw   $0x101,-0xe38(%rbp)
    e2da:	01 01 
    e2dc:	48 89 85 ca f1 ff ff 	mov    %rax,-0xe36(%rbp)
    e2e3:	66 c7 85 d2 f1 ff ff 	movw   $0x101,-0xe2e(%rbp)
    e2ea:	01 01 
    e2ec:	48 b8 01 01 c7 01 01 	movabs $0x101c70101c70101,%rax
    e2f3:	c7 01 01 
    e2f6:	48 89 85 d4 f1 ff ff 	mov    %rax,-0xe2c(%rbp)
    e2fd:	66 c7 85 dc f1 ff ff 	movw   $0x1c7,-0xe24(%rbp)
    e304:	c7 01 
    e306:	48 c7 85 e0 ee ff ff 	movq   $0x0,-0x1120(%rbp)
    e30d:	00 00 00 00 
    e311:	48 8d 85 e0 ee ff ff 	lea    -0x1120(%rbp),%rax
    e318:	48 89 85 e8 ee ff ff 	mov    %rax,-0x1118(%rbp)
    e31f:	48 8d 85 e8 ee ff ff 	lea    -0x1118(%rbp),%rax
    e326:	48 89 85 f0 ee ff ff 	mov    %rax,-0x1110(%rbp)
    e32d:	48 8d 05 5c f6 00 00 	lea    0xf65c(%rip),%rax        # 1d990 <g_213+0x10>
    e334:	48 89 85 f8 ee ff ff 	mov    %rax,-0x1108(%rbp)
    e33b:	c7 85 a0 f1 ff ff ff 	movl   $0xffffffff,-0xe60(%rbp)
    e342:	ff ff ff 
    e345:	c7 85 a4 f1 ff ff ff 	movl   $0xffffffff,-0xe5c(%rbp)
    e34c:	ff ff ff 
    e34f:	c7 85 a8 f1 ff ff ff 	movl   $0xffffffff,-0xe58(%rbp)
    e356:	ff ff ff 
    e359:	c7 85 ac f1 ff ff ff 	movl   $0xffffffff,-0xe54(%rbp)
    e360:	ff ff ff 
    e363:	c7 85 b0 f1 ff ff ff 	movl   $0xffffffff,-0xe50(%rbp)
    e36a:	ff ff ff 
    e36d:	c7 85 b4 f1 ff ff ff 	movl   $0xffffffff,-0xe4c(%rbp)
    e374:	ff ff ff 
    e377:	c7 85 b8 f1 ff ff ff 	movl   $0xffffffff,-0xe48(%rbp)
    e37e:	ff ff ff 
    e381:	c7 85 4c ee ff ff ff 	movl   $0xffffffff,-0x11b4(%rbp)
    e388:	ff ff ff 
    e38b:	48 8d 05 2e 1d 01 00 	lea    0x11d2e(%rip),%rax        # 200c0 <g_1266>
    e392:	48 89 85 c8 ef ff ff 	mov    %rax,-0x1038(%rbp)
    e399:	48 8d 05 40 1c 01 00 	lea    0x11c40(%rip),%rax        # 1ffe0 <g_130>
    e3a0:	48 89 85 00 ef ff ff 	mov    %rax,-0x1100(%rbp)
    e3a7:	48 8d 85 00 ef ff ff 	lea    -0x1100(%rbp),%rax
    e3ae:	48 89 85 e0 f1 ff ff 	mov    %rax,-0xe20(%rbp)
    e3b5:	48 8d 85 00 ef ff ff 	lea    -0x1100(%rbp),%rax
    e3bc:	48 89 85 e8 f1 ff ff 	mov    %rax,-0xe18(%rbp)
    e3c3:	48 8d 85 00 ef ff ff 	lea    -0x1100(%rbp),%rax
    e3ca:	48 89 85 f0 f1 ff ff 	mov    %rax,-0xe10(%rbp)
    e3d1:	48 8d 85 00 ef ff ff 	lea    -0x1100(%rbp),%rax
    e3d8:	48 89 85 f8 f1 ff ff 	mov    %rax,-0xe08(%rbp)
    e3df:	c7 85 fc ed ff ff c5 	movl   $0xd86d88c5,-0x1204(%rbp)
    e3e6:	88 6d d8 
    e3e9:	48 8d 85 fc ed ff ff 	lea    -0x1204(%rbp),%rax
    e3f0:	48 89 85 e0 f3 ff ff 	mov    %rax,-0xc20(%rbp)
    e3f7:	48 c7 85 e8 f3 ff ff 	movq   $0x0,-0xc18(%rbp)
    e3fe:	00 00 00 00 
    e402:	48 8d 85 fc ed ff ff 	lea    -0x1204(%rbp),%rax
    e409:	48 89 85 f0 f3 ff ff 	mov    %rax,-0xc10(%rbp)
    e410:	48 8d 85 fc ed ff ff 	lea    -0x1204(%rbp),%rax
    e417:	48 89 85 f8 f3 ff ff 	mov    %rax,-0xc08(%rbp)
    e41e:	48 8d 85 fc ed ff ff 	lea    -0x1204(%rbp),%rax
    e425:	48 89 85 00 f4 ff ff 	mov    %rax,-0xc00(%rbp)
    e42c:	48 8d 85 fc ed ff ff 	lea    -0x1204(%rbp),%rax
    e433:	48 89 85 08 f4 ff ff 	mov    %rax,-0xbf8(%rbp)
    e43a:	48 8d 85 fc ed ff ff 	lea    -0x1204(%rbp),%rax
    e441:	48 89 85 10 f4 ff ff 	mov    %rax,-0xbf0(%rbp)
    e448:	48 c7 85 18 f4 ff ff 	movq   $0x0,-0xbe8(%rbp)
    e44f:	00 00 00 00 
    e453:	48 8d 85 fc ed ff ff 	lea    -0x1204(%rbp),%rax
    e45a:	48 89 85 20 f4 ff ff 	mov    %rax,-0xbe0(%rbp)
    e461:	48 8d 85 fc ed ff ff 	lea    -0x1204(%rbp),%rax
    e468:	48 89 85 28 f4 ff ff 	mov    %rax,-0xbd8(%rbp)
    e46f:	48 8d 85 fc ed ff ff 	lea    -0x1204(%rbp),%rax
    e476:	48 89 85 30 f4 ff ff 	mov    %rax,-0xbd0(%rbp)
    e47d:	48 8d 85 fc ed ff ff 	lea    -0x1204(%rbp),%rax
    e484:	48 89 85 38 f4 ff ff 	mov    %rax,-0xbc8(%rbp)
    e48b:	48 8d 85 fc ed ff ff 	lea    -0x1204(%rbp),%rax
    e492:	48 89 85 40 f4 ff ff 	mov    %rax,-0xbc0(%rbp)
    e499:	48 c7 85 48 f4 ff ff 	movq   $0x0,-0xbb8(%rbp)
    e4a0:	00 00 00 00 
    e4a4:	48 8d 85 fc ed ff ff 	lea    -0x1204(%rbp),%rax
    e4ab:	48 89 85 50 f4 ff ff 	mov    %rax,-0xbb0(%rbp)
    e4b2:	48 8d 05 2b 31 01 00 	lea    0x1312b(%rip),%rax        # 215e4 <g_402>
    e4b9:	48 89 85 b8 ef ff ff 	mov    %rax,-0x1048(%rbp)
    e4c0:	c7 85 48 ee ff ff fd 	movl   $0xfffffffd,-0x11b8(%rbp)
    e4c7:	ff ff ff 
    e4ca:	48 8d 05 ef f4 00 00 	lea    0xf4ef(%rip),%rax        # 1d9c0 <g_296>
    e4d1:	48 89 85 b0 ef ff ff 	mov    %rax,-0x1050(%rbp)
    e4d8:	48 c7 85 08 ef ff ff 	movq   $0x0,-0x10f8(%rbp)
    e4df:	00 00 00 00 
    e4e3:	c6 85 ea ed ff ff 00 	movb   $0x0,-0x1216(%rbp)
    e4ea:	48 c7 85 f0 f2 ff ff 	movq   $0x0,-0xd10(%rbp)
    e4f1:	00 00 00 00 
    e4f5:	48 c7 85 f8 f2 ff ff 	movq   $0x0,-0xd08(%rbp)
    e4fc:	00 00 00 00 
    e500:	48 8d 05 d9 f6 00 00 	lea    0xf6d9(%rip),%rax        # 1dbe0 <g_1524>
    e507:	48 89 85 00 f3 ff ff 	mov    %rax,-0xd00(%rbp)
    e50e:	48 c7 85 08 f3 ff ff 	movq   $0x0,-0xcf8(%rbp)
    e515:	00 00 00 00 
    e519:	48 c7 85 10 f3 ff ff 	movq   $0x0,-0xcf0(%rbp)
    e520:	00 00 00 00 
    e524:	48 8d 05 b5 f6 00 00 	lea    0xf6b5(%rip),%rax        # 1dbe0 <g_1524>
    e52b:	48 89 85 18 f3 ff ff 	mov    %rax,-0xce8(%rbp)
    e532:	48 c7 85 20 f3 ff ff 	movq   $0x0,-0xce0(%rbp)
    e539:	00 00 00 00 
    e53d:	48 c7 85 28 f3 ff ff 	movq   $0x0,-0xcd8(%rbp)
    e544:	00 00 00 00 
    e548:	48 8d 05 91 f6 00 00 	lea    0xf691(%rip),%rax        # 1dbe0 <g_1524>
    e54f:	48 89 85 30 f3 ff ff 	mov    %rax,-0xcd0(%rbp)
    e556:	48 8d 85 f0 f2 ff ff 	lea    -0xd10(%rbp),%rax
    e55d:	48 89 85 a8 ef ff ff 	mov    %rax,-0x1058(%rbp)
    e564:	c7 85 44 ee ff ff 68 	movl   $0x34be1b68,-0x11bc(%rbp)
    e56b:	1b be 34 
    e56e:	66 c7 85 d8 ed ff ff 	movw   $0x0,-0x1228(%rbp)
    e575:	00 00 
    e577:	eb 25                	jmp    e59e <func_33+0x35e>
    e579:	48 8b 05 20 1a 01 00 	mov    0x11a20(%rip),%rax        # 1ffa0 <g_46>
    e580:	8b 08                	mov    (%rax),%ecx
    e582:	0f b6 55 c5          	movzbl -0x3b(%rbp),%edx
    e586:	0f b6 d2             	movzbl %dl,%edx
    e589:	09 ca                	or     %ecx,%edx
    e58b:	89 10                	mov    %edx,(%rax)
    e58d:	0f b7 85 d8 ed ff ff 	movzwl -0x1228(%rbp),%eax
    e594:	83 e8 01             	sub    $0x1,%eax
    e597:	66 89 85 d8 ed ff ff 	mov    %ax,-0x1228(%rbp)
    e59e:	66 83 bd d8 ed ff ff 	cmpw   $0xffed,-0x1228(%rbp)
    e5a5:	ed 
    e5a6:	7d d1                	jge    e579 <func_33+0x339>
    e5a8:	0f b6 45 c4          	movzbl -0x3c(%rbp),%eax
    e5ac:	84 c0                	test   %al,%al
    e5ae:	0f 84 9a 03 00 00    	je     e94e <func_33+0x70e>
    e5b4:	48 c7 85 28 f1 ff ff 	movq   $0x0,-0xed8(%rbp)
    e5bb:	00 00 00 00 
    e5bf:	48 c7 85 30 f1 ff ff 	movq   $0x0,-0xed0(%rbp)
    e5c6:	00 00 00 00 
    e5ca:	48 8d 05 4f 30 01 00 	lea    0x1304f(%rip),%rax        # 21620 <g_1000+0x20>
    e5d1:	48 89 85 38 f1 ff ff 	mov    %rax,-0xec8(%rbp)
    e5d8:	48 8d 05 05 30 01 00 	lea    0x13005(%rip),%rax        # 215e4 <g_402>
    e5df:	48 89 85 40 f1 ff ff 	mov    %rax,-0xec0(%rbp)
    e5e6:	48 8d 05 83 ef 00 00 	lea    0xef83(%rip),%rax        # 1d570 <g_153>
    e5ed:	48 89 85 48 f1 ff ff 	mov    %rax,-0xeb8(%rbp)
    e5f4:	48 8d 05 65 ef 00 00 	lea    0xef65(%rip),%rax        # 1d560 <g_86>
    e5fb:	48 89 85 70 ef ff ff 	mov    %rax,-0x1090(%rbp)
    e602:	48 8d 85 70 ef ff ff 	lea    -0x1090(%rbp),%rax
    e609:	48 89 85 50 f1 ff ff 	mov    %rax,-0xeb0(%rbp)
    e610:	48 8d 05 51 1a 01 00 	lea    0x11a51(%rip),%rax        # 20068 <g_662+0x68>
    e617:	48 89 85 80 fa ff ff 	mov    %rax,-0x580(%rbp)
    e61e:	48 c7 85 88 fa ff ff 	movq   $0x0,-0x578(%rbp)
    e625:	00 00 00 00 
    e629:	48 8d 05 f0 19 01 00 	lea    0x119f0(%rip),%rax        # 20020 <g_662+0x20>
    e630:	48 89 85 90 fa ff ff 	mov    %rax,-0x570(%rbp)
    e637:	48 8d 05 e2 19 01 00 	lea    0x119e2(%rip),%rax        # 20020 <g_662+0x20>
    e63e:	48 89 85 98 fa ff ff 	mov    %rax,-0x568(%rbp)
    e645:	48 c7 85 a0 fa ff ff 	movq   $0x0,-0x560(%rbp)
    e64c:	00 00 00 00 
    e650:	48 8d 05 11 1a 01 00 	lea    0x11a11(%rip),%rax        # 20068 <g_662+0x68>
    e657:	48 89 85 a8 fa ff ff 	mov    %rax,-0x558(%rbp)
    e65e:	48 c7 85 b0 fa ff ff 	movq   $0x0,-0x550(%rbp)
    e665:	00 00 00 00 
    e669:	48 8d 05 b0 19 01 00 	lea    0x119b0(%rip),%rax        # 20020 <g_662+0x20>
    e670:	48 89 85 b8 fa ff ff 	mov    %rax,-0x548(%rbp)
    e677:	48 8d 05 a2 19 01 00 	lea    0x119a2(%rip),%rax        # 20020 <g_662+0x20>
    e67e:	48 89 85 c0 fa ff ff 	mov    %rax,-0x540(%rbp)
    e685:	48 c7 85 c8 fa ff ff 	movq   $0x0,-0x538(%rbp)
    e68c:	00 00 00 00 
    e690:	48 8d 05 d1 19 01 00 	lea    0x119d1(%rip),%rax        # 20068 <g_662+0x68>
    e697:	48 89 85 d0 fa ff ff 	mov    %rax,-0x530(%rbp)
    e69e:	48 c7 85 d8 fa ff ff 	movq   $0x0,-0x528(%rbp)
    e6a5:	00 00 00 00 
    e6a9:	48 8d 05 70 19 01 00 	lea    0x11970(%rip),%rax        # 20020 <g_662+0x20>
    e6b0:	48 89 85 e0 fa ff ff 	mov    %rax,-0x520(%rbp)
    e6b7:	48 8d 05 62 19 01 00 	lea    0x11962(%rip),%rax        # 20020 <g_662+0x20>
    e6be:	48 89 85 e8 fa ff ff 	mov    %rax,-0x518(%rbp)
    e6c5:	0f b7 05 64 f3 00 00 	movzwl 0xf364(%rip),%eax        # 1da30 <g_527>
    e6cc:	c1 e0 04             	shl    $0x4,%eax
    e6cf:	66 c1 f8 04          	sar    $0x4,%ax
    e6d3:	44 0f be f8          	movsbl %al,%r15d
    e6d7:	8b 05 03 2f 01 00    	mov    0x12f03(%rip),%eax        # 215e0 <g_302>
    e6dd:	0f b6 d8             	movzbl %al,%ebx
    e6e0:	0f b6 45 c5          	movzbl -0x3b(%rbp),%eax
    e6e4:	44 0f b6 f0          	movzbl %al,%r14d
    e6e8:	0f b6 45 c5          	movzbl -0x3b(%rbp),%eax
    e6ec:	44 0f b6 e8          	movzbl %al,%r13d
    e6f0:	48 8b 85 d0 ed ff ff 	mov    -0x1230(%rbp),%rax
    e6f7:	44 0f be e0          	movsbl %al,%r12d
    e6fb:	48 c7 05 a2 18 01 00 	movq   $0x0,0x118a2(%rip)        # 1ffa8 <g_63>
    e702:	00 00 00 00 
    e706:	48 8b 05 9b 18 01 00 	mov    0x1189b(%rip),%rax        # 1ffa8 <g_63>
    e70d:	48 89 c7             	mov    %rax,%rdi
    e710:	e8 e0 58 00 00       	callq  13ff5 <func_59>
    e715:	44 89 f1             	mov    %r14d,%ecx
    e718:	44 89 ea             	mov    %r13d,%edx
    e71b:	44 89 e6             	mov    %r12d,%esi
    e71e:	48 89 c7             	mov    %rax,%rdi
    e721:	e8 f0 44 00 00       	callq  12c16 <func_54>
    e726:	8b 05 38 e9 00 00    	mov    0xe938(%rip),%eax        # 1d064 <g_47>
    e72c:	89 c7                	mov    %eax,%edi
    e72e:	48 8b 85 c0 ef ff ff 	mov    -0x1040(%rbp),%rax
    e735:	45 89 f8             	mov    %r15d,%r8d
    e738:	89 d9                	mov    %ebx,%ecx
    e73a:	48 8d 15 8b f2 00 00 	lea    0xf28b(%rip),%rdx        # 1d9cc <g_307>
    e741:	48 89 c6             	mov    %rax,%rsi
    e744:	e8 18 2a 00 00       	callq  11161 <func_48>
    e749:	48 89 85 c0 ef ff ff 	mov    %rax,-0x1040(%rbp)
    e750:	c7 05 86 2e 01 00 00 	movl   $0x0,0x12e86(%rip)        # 215e0 <g_302>
    e757:	00 00 00 
    e75a:	eb 38                	jmp    e794 <func_33+0x554>
    e75c:	8b 85 cc ed ff ff    	mov    -0x1234(%rbp),%eax
    e762:	85 c0                	test   %eax,%eax
    e764:	75 3b                	jne    e7a1 <func_33+0x561>
    e766:	48 8b 05 3b 19 01 00 	mov    0x1193b(%rip),%rax        # 200a8 <g_999>
    e76d:	48 89 85 38 f1 ff ff 	mov    %rax,-0xec8(%rbp)
    e774:	48 8b 05 35 19 01 00 	mov    0x11935(%rip),%rax        # 200b0 <g_1002>
    e77b:	48 8b 95 38 f1 ff ff 	mov    -0xec8(%rbp),%rdx
    e782:	48 89 10             	mov    %rdx,(%rax)
    e785:	8b 05 55 2e 01 00    	mov    0x12e55(%rip),%eax        # 215e0 <g_302>
    e78b:	83 e8 01             	sub    $0x1,%eax
    e78e:	89 05 4c 2e 01 00    	mov    %eax,0x12e4c(%rip)        # 215e0 <g_302>
    e794:	8b 05 46 2e 01 00    	mov    0x12e46(%rip),%eax        # 215e0 <g_302>
    e79a:	83 f8 e3             	cmp    $0xffffffe3,%eax
    e79d:	7c bd                	jl     e75c <func_33+0x51c>
    e79f:	eb 01                	jmp    e7a2 <func_33+0x562>
    e7a1:	90                   	nop
    e7a2:	48 8b 05 df 18 01 00 	mov    0x118df(%rip),%rax        # 20088 <g_798>
    e7a9:	0f b6 00             	movzbl (%rax),%eax
    e7ac:	3c fd                	cmp    $0xfd,%al
    e7ae:	0f b7 85 d8 ed ff ff 	movzwl -0x1228(%rbp),%eax
    e7b5:	0f be d8             	movsbl %al,%ebx
    e7b8:	48 8b 85 c0 ef ff ff 	mov    -0x1040(%rbp),%rax
    e7bf:	8b 00                	mov    (%rax),%eax
    e7c1:	41 89 c4             	mov    %eax,%r12d
    e7c4:	48 8b 85 c0 ef ff ff 	mov    -0x1040(%rbp),%rax
    e7cb:	8b 10                	mov    (%rax),%edx
    e7cd:	48 8b 85 40 f1 ff ff 	mov    -0xec0(%rbp),%rax
    e7d4:	c7 00 b0 62 ee 5e    	movl   $0x5eee62b0,(%rax)
    e7da:	0f b6 85 dc ed ff ff 	movzbl -0x1224(%rbp),%eax
    e7e1:	35 b0 62 ee 5e       	xor    $0x5eee62b0,%eax
    e7e6:	89 85 f4 ed ff ff    	mov    %eax,-0x120c(%rbp)
    e7ec:	8b 85 f4 ed ff ff    	mov    -0x120c(%rbp),%eax
    e7f2:	85 c0                	test   %eax,%eax
    e7f4:	74 53                	je     e849 <func_33+0x609>
    e7f6:	48 83 bd d0 ed ff ff 	cmpq   $0x0,-0x1230(%rbp)
    e7fd:	00 
    e7fe:	75 0c                	jne    e80c <func_33+0x5cc>
    e800:	0f b7 05 f1 f1 00 00 	movzwl 0xf1f1(%rip),%eax        # 1d9f8 <g_477>
    e807:	66 85 c0             	test   %ax,%ax
    e80a:	74 07                	je     e813 <func_33+0x5d3>
    e80c:	b9 01 00 00 00       	mov    $0x1,%ecx
    e811:	eb 05                	jmp    e818 <func_33+0x5d8>
    e813:	b9 00 00 00 00       	mov    $0x0,%ecx
    e818:	0f b7 05 c1 f1 00 00 	movzwl 0xf1c1(%rip),%eax        # 1d9e0 <g_406>
    e81f:	c1 e0 04             	shl    $0x4,%eax
    e822:	66 c1 f8 04          	sar    $0x4,%ax
    e826:	98                   	cwtl   
    e827:	39 c1                	cmp    %eax,%ecx
    e829:	0f 94 c0             	sete   %al
    e82c:	0f b6 c8             	movzbl %al,%ecx
    e82f:	48 8b 85 48 f1 ff ff 	mov    -0xeb8(%rbp),%rax
    e836:	89 08                	mov    %ecx,(%rax)
    e838:	66 83 bd d8 ed ff ff 	cmpw   $0x0,-0x1228(%rbp)
    e83f:	00 
    e840:	74 07                	je     e849 <func_33+0x609>
    e842:	b8 01 00 00 00       	mov    $0x1,%eax
    e847:	eb 05                	jmp    e84e <func_33+0x60e>
    e849:	b8 00 00 00 00       	mov    $0x0,%eax
    e84e:	89 d6                	mov    %edx,%esi
    e850:	89 c7                	mov    %eax,%edi
    e852:	e8 ae 7d ff ff       	callq  6605 <safe_sub_func_int32_t_s_s>
    e857:	89 c2                	mov    %eax,%edx
    e859:	0f b7 05 98 f1 00 00 	movzwl 0xf198(%rip),%eax        # 1d9f8 <g_477>
    e860:	21 d0                	and    %edx,%eax
    e862:	44 09 e0             	or     %r12d,%eax
    e865:	0f b7 d0             	movzwl %ax,%edx
    e868:	0f b7 85 d8 ed ff ff 	movzwl -0x1228(%rbp),%eax
    e86f:	0f b7 c0             	movzwl %ax,%eax
    e872:	89 d6                	mov    %edx,%esi
    e874:	89 c7                	mov    %eax,%edi
    e876:	e8 e1 84 ff ff       	callq  6d5c <safe_mod_func_uint16_t_u_u>
    e87b:	66 85 c0             	test   %ax,%ax
    e87e:	75 11                	jne    e891 <func_33+0x651>
    e880:	48 83 bd d0 ed ff ff 	cmpq   $0x0,-0x1230(%rbp)
    e887:	00 
    e888:	75 07                	jne    e891 <func_33+0x651>
    e88a:	b8 01 00 00 00       	mov    $0x1,%eax
    e88f:	eb 05                	jmp    e896 <func_33+0x656>
    e891:	b8 00 00 00 00       	mov    $0x0,%eax
    e896:	0f be c0             	movsbl %al,%eax
    e899:	89 de                	mov    %ebx,%esi
    e89b:	89 c7                	mov    %eax,%edi
    e89d:	e8 32 79 ff ff       	callq  61d4 <safe_add_func_int8_t_s_s>
    e8a2:	0f be d0             	movsbl %al,%edx
    e8a5:	0f b6 85 dc ed ff ff 	movzbl -0x1224(%rbp),%eax
    e8ac:	89 d6                	mov    %edx,%esi
    e8ae:	89 c7                	mov    %eax,%edi
    e8b0:	e8 40 7b ff ff       	callq  63f5 <safe_mul_func_int16_t_s_s>
    e8b5:	0f b7 85 d8 ed ff ff 	movzwl -0x1228(%rbp),%eax
    e8bc:	0f bf d0             	movswl %ax,%edx
    e8bf:	8b 85 f8 ed ff ff    	mov    -0x1208(%rbp),%eax
    e8c5:	31 d0                	xor    %edx,%eax
    e8c7:	89 85 f8 ed ff ff    	mov    %eax,-0x1208(%rbp)
    e8cd:	8b 85 cc ed ff ff    	mov    -0x1234(%rbp),%eax
    e8d3:	3d 1c 3a 00 00       	cmp    $0x3a1c,%eax
    e8d8:	0f 97 c0             	seta   %al
    e8db:	0f b6 c0             	movzbl %al,%eax
    e8de:	be 02 00 00 00       	mov    $0x2,%esi
    e8e3:	89 c7                	mov    %eax,%edi
    e8e5:	e8 82 7a ff ff       	callq  636c <safe_rshift_func_int8_t_s_u>
    e8ea:	0f be d0             	movsbl %al,%edx
    e8ed:	48 8b 05 34 2d 01 00 	mov    0x12d34(%rip),%rax        # 21628 <g_1019>
    e8f4:	48 39 85 50 f1 ff ff 	cmp    %rax,-0xeb0(%rbp)
    e8fb:	0f 94 c0             	sete   %al
    e8fe:	0f b6 c8             	movzbl %al,%ecx
    e901:	8b 05 5d f2 00 00    	mov    0xf25d(%rip),%eax        # 1db64 <g_1022>
    e907:	39 c1                	cmp    %eax,%ecx
    e909:	0f 94 c0             	sete   %al
    e90c:	0f b6 c0             	movzbl %al,%eax
    e90f:	89 d6                	mov    %edx,%esi
    e911:	89 c7                	mov    %eax,%edi
    e913:	e8 dd 7a ff ff       	callq  63f5 <safe_mul_func_int16_t_s_s>
    e918:	89 c3                	mov    %eax,%ebx
    e91a:	48 8b 05 4f ea 00 00 	mov    0xea4f(%rip),%rax        # 1d370 <g_79+0x2f0>
    e921:	0f be c0             	movsbl %al,%eax
    e924:	be 69 00 00 00       	mov    $0x69,%esi
    e929:	89 c7                	mov    %eax,%edi
    e92b:	e8 01 79 ff ff       	callq  6231 <safe_mod_func_int8_t_s_s>
    e930:	66 98                	cbtw   
    e932:	66 39 c3             	cmp    %ax,%bx
    e935:	48 8b 15 44 17 01 00 	mov    0x11744(%rip),%rdx        # 20080 <g_661>
    e93c:	48 8b 05 3d 17 01 00 	mov    0x1173d(%rip),%rax        # 20080 <g_661>
    e943:	48 8b 12             	mov    (%rdx),%rdx
    e946:	48 89 10             	mov    %rdx,(%rax)
    e949:	e9 e7 27 00 00       	jmpq   11135 <func_33+0x2ef5>
    e94e:	48 8d 05 9b 16 01 00 	lea    0x1169b(%rip),%rax        # 1fff0 <g_627>
    e955:	48 89 85 a0 ef ff ff 	mov    %rax,-0x1060(%rbp)
    e95c:	48 c7 85 10 ef ff ff 	movq   $0x0,-0x10f0(%rbp)
    e963:	00 00 00 00 
    e967:	48 8d 85 10 ef ff ff 	lea    -0x10f0(%rbp),%rax
    e96e:	48 89 85 80 ef ff ff 	mov    %rax,-0x1080(%rbp)
    e975:	c7 85 00 ee ff ff d5 	movl   $0xf65853d5,-0x1200(%rbp)
    e97c:	53 58 f6 
    e97f:	48 8d 05 72 16 01 00 	lea    0x11672(%rip),%rax        # 1fff8 <g_626>
    e986:	48 89 85 18 ef ff ff 	mov    %rax,-0x10e8(%rbp)
    e98d:	48 8d 85 18 ef ff ff 	lea    -0x10e8(%rbp),%rax
    e994:	48 89 85 20 ef ff ff 	mov    %rax,-0x10e0(%rbp)
    e99b:	c7 85 18 ee ff ff 11 	movl   $0x71219911,-0x11e8(%rbp)
    e9a2:	99 21 71 
    e9a5:	c7 85 1c ee ff ff f7 	movl   $0xfffffff7,-0x11e4(%rbp)
    e9ac:	ff ff ff 
    e9af:	48 8d 05 bf eb 00 00 	lea    0xebbf(%rip),%rax        # 1d575 <g_157+0x1>
    e9b6:	48 89 85 28 ef ff ff 	mov    %rax,-0x10d8(%rbp)
    e9bd:	48 8d 85 28 ef ff ff 	lea    -0x10d8(%rbp),%rax
    e9c4:	48 89 85 30 ef ff ff 	mov    %rax,-0x10d0(%rbp)
    e9cb:	48 c7 85 30 f2 ff ff 	movq   $0x0,-0xdd0(%rbp)
    e9d2:	00 00 00 00 
    e9d6:	48 c7 85 38 f2 ff ff 	movq   $0x0,-0xdc8(%rbp)
    e9dd:	00 00 00 00 
    e9e1:	48 c7 85 40 f2 ff ff 	movq   $0x0,-0xdc0(%rbp)
    e9e8:	00 00 00 00 
    e9ec:	48 c7 85 48 f2 ff ff 	movq   $0x0,-0xdb8(%rbp)
    e9f3:	00 00 00 00 
    e9f7:	48 c7 85 50 f2 ff ff 	movq   $0x0,-0xdb0(%rbp)
    e9fe:	00 00 00 00 
    ea02:	48 c7 85 58 f2 ff ff 	movq   $0x0,-0xda8(%rbp)
    ea09:	00 00 00 00 
    ea0d:	48 c7 85 60 f2 ff ff 	movq   $0x0,-0xda0(%rbp)
    ea14:	00 00 00 00 
    ea18:	48 8d 85 30 f2 ff ff 	lea    -0xdd0(%rbp),%rax
    ea1f:	48 83 c0 28          	add    $0x28,%rax
    ea23:	48 89 85 38 ef ff ff 	mov    %rax,-0x10c8(%rbp)
    ea2a:	48 8d 05 9f 2b 01 00 	lea    0x12b9f(%rip),%rax        # 215d0 <g_131>
    ea31:	48 89 85 88 ef ff ff 	mov    %rax,-0x1078(%rbp)
    ea38:	c7 85 20 ee ff ff c6 	movl   $0x88a104c6,-0x11e0(%rbp)
    ea3f:	04 a1 88 
    ea42:	48 c7 85 90 ef ff ff 	movq   $0x0,-0x1070(%rbp)
    ea49:	00 00 00 00 
    ea4d:	48 8d 05 80 ef 00 00 	lea    0xef80(%rip),%rax        # 1d9d4 <g_385>
    ea54:	48 89 85 40 ef ff ff 	mov    %rax,-0x10c0(%rbp)
    ea5b:	48 8d 05 2e ef 00 00 	lea    0xef2e(%rip),%rax        # 1d990 <g_213+0x10>
    ea62:	48 89 85 48 ef ff ff 	mov    %rax,-0x10b8(%rbp)
    ea69:	c7 85 24 ee ff ff 6e 	movl   $0x4879786e,-0x11dc(%rbp)
    ea70:	78 79 48 
    ea73:	c7 85 28 ee ff ff 4a 	movl   $0x79391b4a,-0x11d8(%rbp)
    ea7a:	1b 39 79 
    ea7d:	c7 85 2c ee ff ff f6 	movl   $0xfffffff6,-0x11d4(%rbp)
    ea84:	ff ff ff 
    ea87:	c7 85 30 ee ff ff 08 	movl   $0x8,-0x11d0(%rbp)
    ea8e:	00 00 00 
    ea91:	48 c7 85 98 ef ff ff 	movq   $0x0,-0x1068(%rbp)
    ea98:	00 00 00 00 
    ea9c:	c7 85 34 ee ff ff 01 	movl   $0x1,-0x11cc(%rbp)
    eaa3:	00 00 00 
    eaa6:	c7 85 38 ee ff ff 5f 	movl   $0x65abbb5f,-0x11c8(%rbp)
    eaad:	bb ab 65 
    eab0:	c7 85 3c ee ff ff 0f 	movl   $0x7b0b5b0f,-0x11c4(%rbp)
    eab7:	5b 0b 7b 
    eaba:	c7 85 40 ee ff ff 01 	movl   $0x1,-0x11c0(%rbp)
    eac1:	00 00 00 
    eac4:	66 c7 85 ec ed ff ff 	movw   $0x9934,-0x1214(%rbp)
    eacb:	34 99 
    eacd:	c7 85 70 f1 ff ff 00 	movl   $0x0,-0xe90(%rbp)
    ead4:	00 00 00 
    ead7:	c7 85 74 f1 ff ff 00 	movl   $0x0,-0xe8c(%rbp)
    eade:	00 00 00 
    eae1:	c7 85 78 f1 ff ff 00 	movl   $0x0,-0xe88(%rbp)
    eae8:	00 00 00 
    eaeb:	c7 85 7c f1 ff ff 00 	movl   $0x0,-0xe84(%rbp)
    eaf2:	00 00 00 
    eaf5:	48 c7 85 40 f3 ff ff 	movq   $0x0,-0xcc0(%rbp)
    eafc:	00 00 00 00 
    eb00:	48 c7 85 48 f3 ff ff 	movq   $0x0,-0xcb8(%rbp)
    eb07:	00 00 00 00 
    eb0b:	48 c7 85 50 f3 ff ff 	movq   $0x0,-0xcb0(%rbp)
    eb12:	00 00 00 00 
    eb16:	48 c7 85 58 f3 ff ff 	movq   $0x0,-0xca8(%rbp)
    eb1d:	00 00 00 00 
    eb21:	48 c7 85 60 f3 ff ff 	movq   $0x0,-0xca0(%rbp)
    eb28:	00 00 00 00 
    eb2c:	48 c7 85 68 f3 ff ff 	movq   $0x0,-0xc98(%rbp)
    eb33:	00 00 00 00 
    eb37:	48 c7 85 70 f3 ff ff 	movq   $0x0,-0xc90(%rbp)
    eb3e:	00 00 00 00 
    eb42:	48 c7 85 78 f3 ff ff 	movq   $0x0,-0xc88(%rbp)
    eb49:	00 00 00 00 
    eb4d:	48 c7 85 80 f3 ff ff 	movq   $0x0,-0xc80(%rbp)
    eb54:	00 00 00 00 
    eb58:	c7 85 14 ee ff ff 00 	movl   $0x0,-0x11ec(%rbp)
    eb5f:	00 00 00 
    eb62:	c7 85 f4 ed ff ff 00 	movl   $0x0,-0x120c(%rbp)
    eb69:	00 00 00 
    eb6c:	e9 96 25 00 00       	jmpq   11107 <func_33+0x2ec7>
    eb71:	c7 85 04 ee ff ff 00 	movl   $0x0,-0x11fc(%rbp)
    eb78:	00 00 00 
    eb7b:	c7 85 08 ee ff ff 00 	movl   $0x0,-0x11f8(%rbp)
    eb82:	00 00 00 
    eb85:	48 8d 85 30 f2 ff ff 	lea    -0xdd0(%rbp),%rax
    eb8c:	48 83 c0 10          	add    $0x10,%rax
    eb90:	48 89 85 40 f6 ff ff 	mov    %rax,-0x9c0(%rbp)
    eb97:	48 8d 85 30 f2 ff ff 	lea    -0xdd0(%rbp),%rax
    eb9e:	48 83 c0 10          	add    $0x10,%rax
    eba2:	48 89 85 48 f6 ff ff 	mov    %rax,-0x9b8(%rbp)
    eba9:	48 8d 85 30 f2 ff ff 	lea    -0xdd0(%rbp),%rax
    ebb0:	48 83 c0 10          	add    $0x10,%rax
    ebb4:	48 89 85 50 f6 ff ff 	mov    %rax,-0x9b0(%rbp)
    ebbb:	48 8d 85 30 f2 ff ff 	lea    -0xdd0(%rbp),%rax
    ebc2:	48 83 c0 10          	add    $0x10,%rax
    ebc6:	48 89 85 58 f6 ff ff 	mov    %rax,-0x9a8(%rbp)
    ebcd:	48 8d 85 30 f2 ff ff 	lea    -0xdd0(%rbp),%rax
    ebd4:	48 83 c0 10          	add    $0x10,%rax
    ebd8:	48 89 85 60 f6 ff ff 	mov    %rax,-0x9a0(%rbp)
    ebdf:	48 8d 85 30 f2 ff ff 	lea    -0xdd0(%rbp),%rax
    ebe6:	48 83 c0 10          	add    $0x10,%rax
    ebea:	48 89 85 68 f6 ff ff 	mov    %rax,-0x998(%rbp)
    ebf1:	48 8d 85 30 f2 ff ff 	lea    -0xdd0(%rbp),%rax
    ebf8:	48 83 c0 10          	add    $0x10,%rax
    ebfc:	48 89 85 70 f6 ff ff 	mov    %rax,-0x990(%rbp)
    ec03:	48 8d 85 30 f2 ff ff 	lea    -0xdd0(%rbp),%rax
    ec0a:	48 83 c0 10          	add    $0x10,%rax
    ec0e:	48 89 85 78 f6 ff ff 	mov    %rax,-0x988(%rbp)
    ec15:	48 8d 85 30 f2 ff ff 	lea    -0xdd0(%rbp),%rax
    ec1c:	48 83 c0 10          	add    $0x10,%rax
    ec20:	48 89 85 80 f6 ff ff 	mov    %rax,-0x980(%rbp)
    ec27:	48 8d 85 30 f2 ff ff 	lea    -0xdd0(%rbp),%rax
    ec2e:	48 83 c0 10          	add    $0x10,%rax
    ec32:	48 89 85 88 f6 ff ff 	mov    %rax,-0x978(%rbp)
    ec39:	48 8d 85 30 f2 ff ff 	lea    -0xdd0(%rbp),%rax
    ec40:	48 83 c0 10          	add    $0x10,%rax
    ec44:	48 89 85 90 f6 ff ff 	mov    %rax,-0x970(%rbp)
    ec4b:	48 8d 85 30 f2 ff ff 	lea    -0xdd0(%rbp),%rax
    ec52:	48 83 c0 10          	add    $0x10,%rax
    ec56:	48 89 85 98 f6 ff ff 	mov    %rax,-0x968(%rbp)
    ec5d:	48 8d 85 30 f2 ff ff 	lea    -0xdd0(%rbp),%rax
    ec64:	48 83 c0 10          	add    $0x10,%rax
    ec68:	48 89 85 a0 f6 ff ff 	mov    %rax,-0x960(%rbp)
    ec6f:	48 8d 85 30 f2 ff ff 	lea    -0xdd0(%rbp),%rax
    ec76:	48 83 c0 10          	add    $0x10,%rax
    ec7a:	48 89 85 a8 f6 ff ff 	mov    %rax,-0x958(%rbp)
    ec81:	48 8d 85 30 f2 ff ff 	lea    -0xdd0(%rbp),%rax
    ec88:	48 83 c0 10          	add    $0x10,%rax
    ec8c:	48 89 85 b0 f6 ff ff 	mov    %rax,-0x950(%rbp)
    ec93:	48 8d 85 30 f2 ff ff 	lea    -0xdd0(%rbp),%rax
    ec9a:	48 83 c0 10          	add    $0x10,%rax
    ec9e:	48 89 85 b8 f6 ff ff 	mov    %rax,-0x948(%rbp)
    eca5:	48 8d 85 30 f2 ff ff 	lea    -0xdd0(%rbp),%rax
    ecac:	48 83 c0 10          	add    $0x10,%rax
    ecb0:	48 89 85 c0 f6 ff ff 	mov    %rax,-0x940(%rbp)
    ecb7:	48 8d 85 30 f2 ff ff 	lea    -0xdd0(%rbp),%rax
    ecbe:	48 83 c0 10          	add    $0x10,%rax
    ecc2:	48 89 85 c8 f6 ff ff 	mov    %rax,-0x938(%rbp)
    ecc9:	48 8d 85 30 f2 ff ff 	lea    -0xdd0(%rbp),%rax
    ecd0:	48 83 c0 10          	add    $0x10,%rax
    ecd4:	48 89 85 d0 f6 ff ff 	mov    %rax,-0x930(%rbp)
    ecdb:	48 8d 85 30 f2 ff ff 	lea    -0xdd0(%rbp),%rax
    ece2:	48 83 c0 10          	add    $0x10,%rax
    ece6:	48 89 85 d8 f6 ff ff 	mov    %rax,-0x928(%rbp)
    eced:	48 8d 85 30 f2 ff ff 	lea    -0xdd0(%rbp),%rax
    ecf4:	48 83 c0 10          	add    $0x10,%rax
    ecf8:	48 89 85 e0 f6 ff ff 	mov    %rax,-0x920(%rbp)
    ecff:	48 8d 85 30 f2 ff ff 	lea    -0xdd0(%rbp),%rax
    ed06:	48 83 c0 10          	add    $0x10,%rax
    ed0a:	48 89 85 e8 f6 ff ff 	mov    %rax,-0x918(%rbp)
    ed11:	48 8d 85 30 f2 ff ff 	lea    -0xdd0(%rbp),%rax
    ed18:	48 83 c0 10          	add    $0x10,%rax
    ed1c:	48 89 85 f0 f6 ff ff 	mov    %rax,-0x910(%rbp)
    ed23:	48 8d 85 30 f2 ff ff 	lea    -0xdd0(%rbp),%rax
    ed2a:	48 83 c0 10          	add    $0x10,%rax
    ed2e:	48 89 85 f8 f6 ff ff 	mov    %rax,-0x908(%rbp)
    ed35:	48 8d 85 30 f2 ff ff 	lea    -0xdd0(%rbp),%rax
    ed3c:	48 83 c0 10          	add    $0x10,%rax
    ed40:	48 89 85 00 f7 ff ff 	mov    %rax,-0x900(%rbp)
    ed47:	48 8d 85 30 f2 ff ff 	lea    -0xdd0(%rbp),%rax
    ed4e:	48 83 c0 10          	add    $0x10,%rax
    ed52:	48 89 85 08 f7 ff ff 	mov    %rax,-0x8f8(%rbp)
    ed59:	48 8d 85 30 f2 ff ff 	lea    -0xdd0(%rbp),%rax
    ed60:	48 83 c0 10          	add    $0x10,%rax
    ed64:	48 89 85 10 f7 ff ff 	mov    %rax,-0x8f0(%rbp)
    ed6b:	48 8d 85 30 f2 ff ff 	lea    -0xdd0(%rbp),%rax
    ed72:	48 83 c0 10          	add    $0x10,%rax
    ed76:	48 89 85 18 f7 ff ff 	mov    %rax,-0x8e8(%rbp)
    ed7d:	48 8d 85 30 f2 ff ff 	lea    -0xdd0(%rbp),%rax
    ed84:	48 83 c0 10          	add    $0x10,%rax
    ed88:	48 89 85 20 f7 ff ff 	mov    %rax,-0x8e0(%rbp)
    ed8f:	48 8d 85 30 f2 ff ff 	lea    -0xdd0(%rbp),%rax
    ed96:	48 83 c0 10          	add    $0x10,%rax
    ed9a:	48 89 85 28 f7 ff ff 	mov    %rax,-0x8d8(%rbp)
    eda1:	48 8d 85 30 f2 ff ff 	lea    -0xdd0(%rbp),%rax
    eda8:	48 83 c0 10          	add    $0x10,%rax
    edac:	48 89 85 30 f7 ff ff 	mov    %rax,-0x8d0(%rbp)
    edb3:	48 8d 85 30 f2 ff ff 	lea    -0xdd0(%rbp),%rax
    edba:	48 83 c0 10          	add    $0x10,%rax
    edbe:	48 89 85 38 f7 ff ff 	mov    %rax,-0x8c8(%rbp)
    edc5:	48 8d 85 30 f2 ff ff 	lea    -0xdd0(%rbp),%rax
    edcc:	48 83 c0 10          	add    $0x10,%rax
    edd0:	48 89 85 40 f7 ff ff 	mov    %rax,-0x8c0(%rbp)
    edd7:	48 8d 85 30 f2 ff ff 	lea    -0xdd0(%rbp),%rax
    edde:	48 83 c0 10          	add    $0x10,%rax
    ede2:	48 89 85 48 f7 ff ff 	mov    %rax,-0x8b8(%rbp)
    ede9:	48 8d 85 30 f2 ff ff 	lea    -0xdd0(%rbp),%rax
    edf0:	48 83 c0 10          	add    $0x10,%rax
    edf4:	48 89 85 50 f7 ff ff 	mov    %rax,-0x8b0(%rbp)
    edfb:	48 8d 85 30 f2 ff ff 	lea    -0xdd0(%rbp),%rax
    ee02:	48 83 c0 10          	add    $0x10,%rax
    ee06:	48 89 85 58 f7 ff ff 	mov    %rax,-0x8a8(%rbp)
    ee0d:	48 8d 85 30 f2 ff ff 	lea    -0xdd0(%rbp),%rax
    ee14:	48 83 c0 10          	add    $0x10,%rax
    ee18:	48 89 85 60 f7 ff ff 	mov    %rax,-0x8a0(%rbp)
    ee1f:	48 8d 85 30 f2 ff ff 	lea    -0xdd0(%rbp),%rax
    ee26:	48 83 c0 10          	add    $0x10,%rax
    ee2a:	48 89 85 68 f7 ff ff 	mov    %rax,-0x898(%rbp)
    ee31:	48 8d 85 30 f2 ff ff 	lea    -0xdd0(%rbp),%rax
    ee38:	48 83 c0 10          	add    $0x10,%rax
    ee3c:	48 89 85 70 f7 ff ff 	mov    %rax,-0x890(%rbp)
    ee43:	48 8d 85 30 f2 ff ff 	lea    -0xdd0(%rbp),%rax
    ee4a:	48 83 c0 10          	add    $0x10,%rax
    ee4e:	48 89 85 78 f7 ff ff 	mov    %rax,-0x888(%rbp)
    ee55:	48 8d 85 30 f2 ff ff 	lea    -0xdd0(%rbp),%rax
    ee5c:	48 83 c0 10          	add    $0x10,%rax
    ee60:	48 89 85 80 f7 ff ff 	mov    %rax,-0x880(%rbp)
    ee67:	48 8d 85 30 f2 ff ff 	lea    -0xdd0(%rbp),%rax
    ee6e:	48 83 c0 10          	add    $0x10,%rax
    ee72:	48 89 85 88 f7 ff ff 	mov    %rax,-0x878(%rbp)
    ee79:	48 8d 85 30 f2 ff ff 	lea    -0xdd0(%rbp),%rax
    ee80:	48 83 c0 10          	add    $0x10,%rax
    ee84:	48 89 85 90 f7 ff ff 	mov    %rax,-0x870(%rbp)
    ee8b:	48 8d 85 30 f2 ff ff 	lea    -0xdd0(%rbp),%rax
    ee92:	48 83 c0 10          	add    $0x10,%rax
    ee96:	48 89 85 98 f7 ff ff 	mov    %rax,-0x868(%rbp)
    ee9d:	48 8d 85 30 f2 ff ff 	lea    -0xdd0(%rbp),%rax
    eea4:	48 83 c0 10          	add    $0x10,%rax
    eea8:	48 89 85 a0 f7 ff ff 	mov    %rax,-0x860(%rbp)
    eeaf:	48 8d 85 30 f2 ff ff 	lea    -0xdd0(%rbp),%rax
    eeb6:	48 83 c0 10          	add    $0x10,%rax
    eeba:	48 89 85 a8 f7 ff ff 	mov    %rax,-0x858(%rbp)
    eec1:	48 8d 85 30 f2 ff ff 	lea    -0xdd0(%rbp),%rax
    eec8:	48 83 c0 10          	add    $0x10,%rax
    eecc:	48 89 85 b0 f7 ff ff 	mov    %rax,-0x850(%rbp)
    eed3:	48 8d 85 30 f2 ff ff 	lea    -0xdd0(%rbp),%rax
    eeda:	48 83 c0 10          	add    $0x10,%rax
    eede:	48 89 85 b8 f7 ff ff 	mov    %rax,-0x848(%rbp)
    eee5:	48 8d 85 30 f2 ff ff 	lea    -0xdd0(%rbp),%rax
    eeec:	48 83 c0 10          	add    $0x10,%rax
    eef0:	48 89 85 c0 f7 ff ff 	mov    %rax,-0x840(%rbp)
    eef7:	48 8d 85 30 f2 ff ff 	lea    -0xdd0(%rbp),%rax
    eefe:	48 83 c0 10          	add    $0x10,%rax
    ef02:	48 89 85 c8 f7 ff ff 	mov    %rax,-0x838(%rbp)
    ef09:	48 8d 85 30 f2 ff ff 	lea    -0xdd0(%rbp),%rax
    ef10:	48 83 c0 10          	add    $0x10,%rax
    ef14:	48 89 85 d0 f7 ff ff 	mov    %rax,-0x830(%rbp)
    ef1b:	48 8d 85 30 f2 ff ff 	lea    -0xdd0(%rbp),%rax
    ef22:	48 83 c0 10          	add    $0x10,%rax
    ef26:	48 89 85 d8 f7 ff ff 	mov    %rax,-0x828(%rbp)
    ef2d:	48 8d 85 30 f2 ff ff 	lea    -0xdd0(%rbp),%rax
    ef34:	48 83 c0 10          	add    $0x10,%rax
    ef38:	48 89 85 e0 f7 ff ff 	mov    %rax,-0x820(%rbp)
    ef3f:	48 8d 85 30 f2 ff ff 	lea    -0xdd0(%rbp),%rax
    ef46:	48 83 c0 10          	add    $0x10,%rax
    ef4a:	48 89 85 e8 f7 ff ff 	mov    %rax,-0x818(%rbp)
    ef51:	48 8d 85 30 f2 ff ff 	lea    -0xdd0(%rbp),%rax
    ef58:	48 83 c0 10          	add    $0x10,%rax
    ef5c:	48 89 85 f0 f7 ff ff 	mov    %rax,-0x810(%rbp)
    ef63:	48 8d 85 30 f2 ff ff 	lea    -0xdd0(%rbp),%rax
    ef6a:	48 83 c0 10          	add    $0x10,%rax
    ef6e:	48 89 85 f8 f7 ff ff 	mov    %rax,-0x808(%rbp)
    ef75:	48 8d 85 30 f2 ff ff 	lea    -0xdd0(%rbp),%rax
    ef7c:	48 83 c0 10          	add    $0x10,%rax
    ef80:	48 89 85 00 f8 ff ff 	mov    %rax,-0x800(%rbp)
    ef87:	48 8d 85 30 f2 ff ff 	lea    -0xdd0(%rbp),%rax
    ef8e:	48 83 c0 10          	add    $0x10,%rax
    ef92:	48 89 85 08 f8 ff ff 	mov    %rax,-0x7f8(%rbp)
    ef99:	48 8d 85 30 f2 ff ff 	lea    -0xdd0(%rbp),%rax
    efa0:	48 83 c0 10          	add    $0x10,%rax
    efa4:	48 89 85 10 f8 ff ff 	mov    %rax,-0x7f0(%rbp)
    efab:	48 8d 85 30 f2 ff ff 	lea    -0xdd0(%rbp),%rax
    efb2:	48 83 c0 10          	add    $0x10,%rax
    efb6:	48 89 85 18 f8 ff ff 	mov    %rax,-0x7e8(%rbp)
    efbd:	48 8d 85 30 f2 ff ff 	lea    -0xdd0(%rbp),%rax
    efc4:	48 83 c0 10          	add    $0x10,%rax
    efc8:	48 89 85 20 f8 ff ff 	mov    %rax,-0x7e0(%rbp)
    efcf:	48 8d 85 30 f2 ff ff 	lea    -0xdd0(%rbp),%rax
    efd6:	48 83 c0 10          	add    $0x10,%rax
    efda:	48 89 85 28 f8 ff ff 	mov    %rax,-0x7d8(%rbp)
    efe1:	48 8d 85 30 f2 ff ff 	lea    -0xdd0(%rbp),%rax
    efe8:	48 83 c0 10          	add    $0x10,%rax
    efec:	48 89 85 30 f8 ff ff 	mov    %rax,-0x7d0(%rbp)
    eff3:	48 8d 85 30 f2 ff ff 	lea    -0xdd0(%rbp),%rax
    effa:	48 83 c0 10          	add    $0x10,%rax
    effe:	48 89 85 38 f8 ff ff 	mov    %rax,-0x7c8(%rbp)
    f005:	c7 85 0c ee ff ff 41 	movl   $0x604f1941,-0x11f4(%rbp)
    f00c:	19 4f 60 
    f00f:	48 8d 85 0c ee ff ff 	lea    -0x11f4(%rbp),%rax
    f016:	48 89 85 78 ef ff ff 	mov    %rax,-0x1088(%rbp)
    f01d:	48 8d 85 e0 f3 ff ff 	lea    -0xc20(%rbp),%rax
    f024:	48 83 c0 60          	add    $0x60,%rax
    f028:	48 89 85 d0 ef ff ff 	mov    %rax,-0x1030(%rbp)
    f02f:	c7 85 70 ee ff ff ff 	movl   $0xffffffff,-0x1190(%rbp)
    f036:	ff ff ff 
    f039:	c7 85 74 ee ff ff fd 	movl   $0xfffffffd,-0x118c(%rbp)
    f040:	ff ff ff 
    f043:	c7 85 78 ee ff ff 46 	movl   $0x3300f046,-0x1188(%rbp)
    f04a:	f0 00 33 
    f04d:	48 c7 85 d8 ef ff ff 	movq   $0x0,-0x1028(%rbp)
    f054:	00 00 00 00 
    f058:	66 c7 85 ee ed ff ff 	movw   $0x9443,-0x1212(%rbp)
    f05f:	43 94 
    f061:	c7 85 7c ee ff ff f6 	movl   $0xfffffff6,-0x1184(%rbp)
    f068:	ff ff ff 
    f06b:	c7 85 6c ee ff ff 00 	movl   $0x0,-0x1194(%rbp)
    f072:	00 00 00 
    f075:	eb 43                	jmp    f0ba <func_33+0xe7a>
    f077:	c7 85 64 ee ff ff 00 	movl   $0x0,-0x119c(%rbp)
    f07e:	00 00 00 
    f081:	eb 27                	jmp    f0aa <func_33+0xe6a>
    f083:	8b 85 64 ee ff ff    	mov    -0x119c(%rbp),%eax
    f089:	48 63 d0             	movslq %eax,%rdx
    f08c:	8b 85 6c ee ff ff    	mov    -0x1194(%rbp),%eax
    f092:	48 98                	cltq   
    f094:	48 01 d0             	add    %rdx,%rax
    f097:	48 c7 84 c5 58 f1 ff 	movq   $0x1,-0xea8(%rbp,%rax,8)
    f09e:	ff 01 00 00 00 
    f0a3:	83 85 64 ee ff ff 01 	addl   $0x1,-0x119c(%rbp)
    f0aa:	83 bd 64 ee ff ff 00 	cmpl   $0x0,-0x119c(%rbp)
    f0b1:	7e d0                	jle    f083 <func_33+0xe43>
    f0b3:	83 85 6c ee ff ff 01 	addl   $0x1,-0x1194(%rbp)
    f0ba:	83 bd 6c ee ff ff 00 	cmpl   $0x0,-0x1194(%rbp)
    f0c1:	7e b4                	jle    f077 <func_33+0xe37>
    f0c3:	c7 85 6c ee ff ff 00 	movl   $0x0,-0x1194(%rbp)
    f0ca:	00 00 00 
    f0cd:	eb 1a                	jmp    f0e9 <func_33+0xea9>
    f0cf:	8b 85 6c ee ff ff    	mov    -0x1194(%rbp),%eax
    f0d5:	48 98                	cltq   
    f0d7:	c7 84 85 64 f1 ff ff 	movl   $0x29540352,-0xe9c(%rbp,%rax,4)
    f0de:	52 03 54 29 
    f0e2:	83 85 6c ee ff ff 01 	addl   $0x1,-0x1194(%rbp)
    f0e9:	83 bd 6c ee ff ff 02 	cmpl   $0x2,-0x1194(%rbp)
    f0f0:	7e dd                	jle    f0cf <func_33+0xe8f>
    f0f2:	c7 85 cc ed ff ff 00 	movl   $0x0,-0x1234(%rbp)
    f0f9:	00 00 00 
    f0fc:	e9 3f 09 00 00       	jmpq   fa40 <func_33+0x1800>
    f101:	48 8d 05 70 e4 00 00 	lea    0xe470(%rip),%rax        # 1d578 <g_201>
    f108:	48 89 85 50 ef ff ff 	mov    %rax,-0x10b0(%rbp)
    f10f:	48 8d 85 50 ef ff ff 	lea    -0x10b0(%rbp),%rax
    f116:	48 89 85 58 ef ff ff 	mov    %rax,-0x10a8(%rbp)
    f11d:	48 8d 85 58 ef ff ff 	lea    -0x10a8(%rbp),%rax
    f124:	48 89 85 80 fa ff ff 	mov    %rax,-0x580(%rbp)
    f12b:	48 c7 85 88 fa ff ff 	movq   $0x0,-0x578(%rbp)
    f132:	00 00 00 00 
    f136:	48 8d 85 58 ef ff ff 	lea    -0x10a8(%rbp),%rax
    f13d:	48 89 85 90 fa ff ff 	mov    %rax,-0x570(%rbp)
    f144:	48 c7 85 98 fa ff ff 	movq   $0x0,-0x568(%rbp)
    f14b:	00 00 00 00 
    f14f:	48 8d 85 58 ef ff ff 	lea    -0x10a8(%rbp),%rax
    f156:	48 89 85 a0 fa ff ff 	mov    %rax,-0x560(%rbp)
    f15d:	48 c7 85 a8 fa ff ff 	movq   $0x0,-0x558(%rbp)
    f164:	00 00 00 00 
    f168:	48 8d 85 58 ef ff ff 	lea    -0x10a8(%rbp),%rax
    f16f:	48 89 85 b0 fa ff ff 	mov    %rax,-0x550(%rbp)
    f176:	48 c7 85 b8 fa ff ff 	movq   $0x0,-0x548(%rbp)
    f17d:	00 00 00 00 
    f181:	48 8d 85 58 ef ff ff 	lea    -0x10a8(%rbp),%rax
    f188:	48 89 85 c0 fa ff ff 	mov    %rax,-0x540(%rbp)
    f18f:	48 c7 85 c8 fa ff ff 	movq   $0x0,-0x538(%rbp)
    f196:	00 00 00 00 
    f19a:	48 8d 85 58 ef ff ff 	lea    -0x10a8(%rbp),%rax
    f1a1:	48 89 85 d0 fa ff ff 	mov    %rax,-0x530(%rbp)
    f1a8:	48 c7 85 d8 fa ff ff 	movq   $0x0,-0x528(%rbp)
    f1af:	00 00 00 00 
    f1b3:	48 8d 85 58 ef ff ff 	lea    -0x10a8(%rbp),%rax
    f1ba:	48 89 85 e0 fa ff ff 	mov    %rax,-0x520(%rbp)
    f1c1:	48 c7 85 e8 fa ff ff 	movq   $0x0,-0x518(%rbp)
    f1c8:	00 00 00 00 
    f1cc:	48 8d 85 58 ef ff ff 	lea    -0x10a8(%rbp),%rax
    f1d3:	48 89 85 f0 fa ff ff 	mov    %rax,-0x510(%rbp)
    f1da:	48 c7 85 f8 fa ff ff 	movq   $0x0,-0x508(%rbp)
    f1e1:	00 00 00 00 
    f1e5:	48 8d 85 58 ef ff ff 	lea    -0x10a8(%rbp),%rax
    f1ec:	48 89 85 00 fb ff ff 	mov    %rax,-0x500(%rbp)
    f1f3:	48 c7 85 08 fb ff ff 	movq   $0x0,-0x4f8(%rbp)
    f1fa:	00 00 00 00 
    f1fe:	48 8d 85 58 ef ff ff 	lea    -0x10a8(%rbp),%rax
    f205:	48 89 85 10 fb ff ff 	mov    %rax,-0x4f0(%rbp)
    f20c:	48 c7 85 18 fb ff ff 	movq   $0x0,-0x4e8(%rbp)
    f213:	00 00 00 00 
    f217:	48 8d 85 58 ef ff ff 	lea    -0x10a8(%rbp),%rax
    f21e:	48 89 85 20 fb ff ff 	mov    %rax,-0x4e0(%rbp)
    f225:	48 c7 85 28 fb ff ff 	movq   $0x0,-0x4d8(%rbp)
    f22c:	00 00 00 00 
    f230:	48 8d 85 58 ef ff ff 	lea    -0x10a8(%rbp),%rax
    f237:	48 89 85 30 fb ff ff 	mov    %rax,-0x4d0(%rbp)
    f23e:	48 c7 85 38 fb ff ff 	movq   $0x0,-0x4c8(%rbp)
    f245:	00 00 00 00 
    f249:	48 8d 85 58 ef ff ff 	lea    -0x10a8(%rbp),%rax
    f250:	48 89 85 40 fb ff ff 	mov    %rax,-0x4c0(%rbp)
    f257:	48 c7 85 48 fb ff ff 	movq   $0x0,-0x4b8(%rbp)
    f25e:	00 00 00 00 
    f262:	48 8d 85 58 ef ff ff 	lea    -0x10a8(%rbp),%rax
    f269:	48 89 85 50 fb ff ff 	mov    %rax,-0x4b0(%rbp)
    f270:	48 c7 85 58 fb ff ff 	movq   $0x0,-0x4a8(%rbp)
    f277:	00 00 00 00 
    f27b:	48 8d 85 58 ef ff ff 	lea    -0x10a8(%rbp),%rax
    f282:	48 89 85 60 fb ff ff 	mov    %rax,-0x4a0(%rbp)
    f289:	48 c7 85 68 fb ff ff 	movq   $0x0,-0x498(%rbp)
    f290:	00 00 00 00 
    f294:	48 8d 85 58 ef ff ff 	lea    -0x10a8(%rbp),%rax
    f29b:	48 89 85 70 fb ff ff 	mov    %rax,-0x490(%rbp)
    f2a2:	48 c7 85 78 fb ff ff 	movq   $0x0,-0x488(%rbp)
    f2a9:	00 00 00 00 
    f2ad:	c7 85 10 ee ff ff 01 	movl   $0x1,-0x11f0(%rbp)
    f2b4:	00 00 00 
    f2b7:	48 b8 18 fc e1 e8 a1 	movabs $0x2e21f0a1e8e1fc18,%rax
    f2be:	f0 21 2e 
    f2c1:	48 89 85 e0 ef ff ff 	mov    %rax,-0x1020(%rbp)
    f2c8:	48 b8 e9 8c d9 f1 c1 	movabs $0xbaf5eac1f1d98ce9,%rax
    f2cf:	ea f5 ba 
    f2d2:	48 89 85 60 ef ff ff 	mov    %rax,-0x10a0(%rbp)
    f2d9:	48 8d 05 84 e8 00 00 	lea    0xe884(%rip),%rax        # 1db64 <g_1022>
    f2e0:	48 89 85 e8 ef ff ff 	mov    %rax,-0x1018(%rbp)
    f2e7:	48 8d 05 da e6 00 00 	lea    0xe6da(%rip),%rax        # 1d9c8 <g_303>
    f2ee:	48 89 85 68 ef ff ff 	mov    %rax,-0x1098(%rbp)
    f2f5:	48 8d 85 68 ef ff ff 	lea    -0x1098(%rbp),%rax
    f2fc:	48 89 85 f0 ef ff ff 	mov    %rax,-0x1010(%rbp)
    f303:	48 b8 10 f4 f0 dd 1d 	movabs $0x4474e71dddf0f410,%rax
    f30a:	e7 74 44 
    f30d:	48 89 85 70 ef ff ff 	mov    %rax,-0x1090(%rbp)
    f314:	c7 85 80 ee ff ff 01 	movl   $0x1,-0x1180(%rbp)
    f31b:	00 00 00 
    f31e:	c7 85 84 ee ff ff 96 	movl   $0xea26e896,-0x117c(%rbp)
    f325:	e8 26 ea 
    f328:	c7 85 88 ee ff ff 55 	movl   $0x7ecd7655,-0x1178(%rbp)
    f32f:	76 cd 7e 
    f332:	48 c7 85 f8 ef ff ff 	movq   $0x0,-0x1008(%rbp)
    f339:	00 00 00 00 
    f33d:	48 8d 85 e8 ee ff ff 	lea    -0x1118(%rbp),%rax
    f344:	48 89 85 00 f0 ff ff 	mov    %rax,-0x1000(%rbp)
    f34b:	c7 85 8c ee ff ff 84 	movl   $0xa1572984,-0x1174(%rbp)
    f352:	29 57 a1 
    f355:	c7 85 90 ee ff ff 07 	movl   $0x7,-0x1170(%rbp)
    f35c:	00 00 00 
    f35f:	c7 85 94 ee ff ff 00 	movl   $0x0,-0x116c(%rbp)
    f366:	00 00 00 
    f369:	c7 05 71 22 01 00 00 	movl   $0x0,0x12271(%rip)        # 215e4 <g_402>
    f370:	00 00 00 
    f373:	e9 f1 00 00 00       	jmpq   f469 <func_33+0x1229>
    f378:	48 8d 05 79 0c 01 00 	lea    0x10c79(%rip),%rax        # 1fff8 <g_626>
    f37f:	48 89 85 48 f0 ff ff 	mov    %rax,-0xfb8(%rbp)
    f386:	c7 85 a8 ee ff ff 00 	movl   $0x0,-0x1158(%rbp)
    f38d:	00 00 00 
    f390:	48 8d 05 39 22 01 00 	lea    0x12239(%rip),%rax        # 215d0 <g_131>
    f397:	48 89 85 50 f0 ff ff 	mov    %rax,-0xfb0(%rbp)
    f39e:	48 8d 05 bd e1 00 00 	lea    0xe1bd(%rip),%rax        # 1d562 <g_94>
    f3a5:	48 89 85 58 f0 ff ff 	mov    %rax,-0xfa8(%rbp)
    f3ac:	48 8d 05 dd e5 00 00 	lea    0xe5dd(%rip),%rax        # 1d990 <g_213+0x10>
    f3b3:	48 89 85 60 f0 ff ff 	mov    %rax,-0xfa0(%rbp)
    f3ba:	48 c7 85 68 f0 ff ff 	movq   $0x0,-0xf98(%rbp)
    f3c1:	00 00 00 00 
    f3c5:	48 8d 05 e4 e6 00 00 	lea    0xe6e4(%rip),%rax        # 1dab0 <g_870+0x10>
    f3cc:	48 89 85 70 f0 ff ff 	mov    %rax,-0xf90(%rbp)
    f3d3:	48 8d 05 96 e1 00 00 	lea    0xe196(%rip),%rax        # 1d570 <g_153>
    f3da:	48 89 85 78 f0 ff ff 	mov    %rax,-0xf88(%rbp)
    f3e1:	48 c7 85 80 f0 ff ff 	movq   $0x0,-0xf80(%rbp)
    f3e8:	00 00 00 00 
    f3ec:	48 8d 85 f8 ed ff ff 	lea    -0x1208(%rbp),%rax
    f3f3:	48 89 85 88 f0 ff ff 	mov    %rax,-0xf78(%rbp)
    f3fa:	c7 85 68 ee ff ff 00 	movl   $0x0,-0x1198(%rbp)
    f401:	00 00 00 
    f404:	eb 42                	jmp    f448 <func_33+0x1208>
    f406:	c7 85 50 ee ff ff 00 	movl   $0x0,-0x11b0(%rbp)
    f40d:	00 00 00 
    f410:	eb 26                	jmp    f438 <func_33+0x11f8>
    f412:	8b 85 50 ee ff ff    	mov    -0x11b0(%rbp),%eax
    f418:	48 63 d0             	movslq %eax,%rdx
    f41b:	8b 85 68 ee ff ff    	mov    -0x1198(%rbp),%eax
    f421:	48 98                	cltq   
    f423:	48 01 d0             	add    %rdx,%rax
    f426:	c7 84 85 40 f8 ff ff 	movl   $0xd3a73b50,-0x7c0(%rbp,%rax,4)
    f42d:	50 3b a7 d3 
    f431:	83 85 50 ee ff ff 01 	addl   $0x1,-0x11b0(%rbp)
    f438:	83 bd 50 ee ff ff 00 	cmpl   $0x0,-0x11b0(%rbp)
    f43f:	7e d1                	jle    f412 <func_33+0x11d2>
    f441:	83 85 68 ee ff ff 01 	addl   $0x1,-0x1198(%rbp)
    f448:	83 bd 68 ee ff ff 02 	cmpl   $0x2,-0x1198(%rbp)
    f44f:	7e b5                	jle    f406 <func_33+0x11c6>
    f451:	8b 05 8d 21 01 00    	mov    0x1218d(%rip),%eax        # 215e4 <g_402>
    f457:	be 03 00 00 00       	mov    $0x3,%esi
    f45c:	89 c7                	mov    %eax,%edi
    f45e:	e8 55 7a ff ff       	callq  6eb8 <safe_add_func_uint32_t_u_u>
    f463:	89 05 7b 21 01 00    	mov    %eax,0x1217b(%rip)        # 215e4 <g_402>
    f469:	8b 05 75 21 01 00    	mov    0x12175(%rip),%eax        # 215e4 <g_402>
    f46f:	83 f8 03             	cmp    $0x3,%eax
    f472:	0f 8f 00 ff ff ff    	jg     f378 <func_33+0x1138>
    f478:	c6 85 eb ed ff ff 06 	movb   $0x6,-0x1215(%rbp)
    f47f:	e9 ae 00 00 00       	jmpq   f532 <func_33+0x12f2>
    f484:	48 8d 05 42 e5 00 00 	lea    0xe542(%rip),%rax        # 1d9cd <g_360>
    f48b:	48 89 85 40 f0 ff ff 	mov    %rax,-0xfc0(%rbp)
    f492:	0f b6 85 dc ed ff ff 	movzbl -0x1224(%rbp),%eax
    f499:	be 00 00 00 00       	mov    $0x0,%esi
    f49e:	89 c7                	mov    %eax,%edi
    f4a0:	e8 a7 77 ff ff       	callq  6c4c <safe_lshift_func_uint8_t_u_u>
    f4a5:	84 c0                	test   %al,%al
    f4a7:	0f bf 9d d8 ed ff ff 	movswl -0x1228(%rbp),%ebx
    f4ae:	48 8b 85 40 f0 ff ff 	mov    -0xfc0(%rbp),%rax
    f4b5:	0f b6 00             	movzbl (%rax),%eax
    f4b8:	8d 50 01             	lea    0x1(%rax),%edx
    f4bb:	48 8b 85 40 f0 ff ff 	mov    -0xfc0(%rbp),%rax
    f4c2:	88 10                	mov    %dl,(%rax)
    f4c4:	48 8b 85 40 f0 ff ff 	mov    -0xfc0(%rbp),%rax
    f4cb:	0f b6 00             	movzbl (%rax),%eax
    f4ce:	0f b6 c0             	movzbl %al,%eax
    f4d1:	be 01 00 00 00       	mov    $0x1,%esi
    f4d6:	89 c7                	mov    %eax,%edi
    f4d8:	e8 9b 76 ff ff       	callq  6b78 <safe_sub_func_uint8_t_u_u>
    f4dd:	0f b6 c0             	movzbl %al,%eax
    f4e0:	be 01 00 00 00       	mov    $0x1,%esi
    f4e5:	89 c7                	mov    %eax,%edi
    f4e7:	e8 33 78 ff ff       	callq  6d1f <safe_sub_func_uint16_t_u_u>
    f4ec:	0f b7 c0             	movzwl %ax,%eax
    f4ef:	39 c3                	cmp    %eax,%ebx
    f4f1:	0f 9e c0             	setle  %al
    f4f4:	0f b6 c0             	movzbl %al,%eax
    f4f7:	89 c6                	mov    %eax,%esi
    f4f9:	bf 68 00 00 00       	mov    $0x68,%edi
    f4fe:	e8 49 77 ff ff       	callq  6c4c <safe_lshift_func_uint8_t_u_u>
    f503:	48 8b 85 c0 ef ff ff 	mov    -0x1040(%rbp),%rax
    f50a:	c7 00 70 ce d1 53    	movl   $0x53d1ce70,(%rax)
    f510:	48 8b 05 99 0a 01 00 	mov    0x10a99(%rip),%rax        # 1ffb0 <g_113>
    f517:	48 8b 95 c0 ef ff ff 	mov    -0x1040(%rbp),%rdx
    f51e:	8b 12                	mov    (%rdx),%edx
    f520:	89 10                	mov    %edx,(%rax)
    f522:	0f b6 85 eb ed ff ff 	movzbl -0x1215(%rbp),%eax
    f529:	83 e8 01             	sub    $0x1,%eax
    f52c:	88 85 eb ed ff ff    	mov    %al,-0x1215(%rbp)
    f532:	80 bd eb ed ff ff f9 	cmpb   $0xf9,-0x1215(%rbp)
    f539:	0f 8d 45 ff ff ff    	jge    f484 <func_33+0x1244>
    f53f:	48 8d 05 7a 0b 01 00 	lea    0x10b7a(%rip),%rax        # 200c0 <g_1266>
    f546:	48 89 85 40 f8 ff ff 	mov    %rax,-0x7c0(%rbp)
    f54d:	48 8d 05 6c 0b 01 00 	lea    0x10b6c(%rip),%rax        # 200c0 <g_1266>
    f554:	48 89 85 48 f8 ff ff 	mov    %rax,-0x7b8(%rbp)
    f55b:	48 8d 05 5e 0b 01 00 	lea    0x10b5e(%rip),%rax        # 200c0 <g_1266>
    f562:	48 89 85 50 f8 ff ff 	mov    %rax,-0x7b0(%rbp)
    f569:	48 8d 05 50 0b 01 00 	lea    0x10b50(%rip),%rax        # 200c0 <g_1266>
    f570:	48 89 85 58 f8 ff ff 	mov    %rax,-0x7a8(%rbp)
    f577:	48 8d 05 42 0b 01 00 	lea    0x10b42(%rip),%rax        # 200c0 <g_1266>
    f57e:	48 89 85 60 f8 ff ff 	mov    %rax,-0x7a0(%rbp)
    f585:	48 8d 05 34 0b 01 00 	lea    0x10b34(%rip),%rax        # 200c0 <g_1266>
    f58c:	48 89 85 68 f8 ff ff 	mov    %rax,-0x798(%rbp)
    f593:	48 8d 05 26 0b 01 00 	lea    0x10b26(%rip),%rax        # 200c0 <g_1266>
    f59a:	48 89 85 70 f8 ff ff 	mov    %rax,-0x790(%rbp)
    f5a1:	48 8d 05 18 0b 01 00 	lea    0x10b18(%rip),%rax        # 200c0 <g_1266>
    f5a8:	48 89 85 78 f8 ff ff 	mov    %rax,-0x788(%rbp)
    f5af:	48 c7 85 08 f0 ff ff 	movq   $0x0,-0xff8(%rbp)
    f5b6:	00 00 00 00 
    f5ba:	48 8d 05 c7 e4 00 00 	lea    0xe4c7(%rip),%rax        # 1da88 <g_735>
    f5c1:	48 89 85 10 f0 ff ff 	mov    %rax,-0xff0(%rbp)
    f5c8:	48 c7 85 18 f0 ff ff 	movq   $0x0,-0xfe8(%rbp)
    f5cf:	00 00 00 00 
    f5d3:	48 8d 85 40 ef ff ff 	lea    -0x10c0(%rbp),%rax
    f5da:	48 89 85 20 f0 ff ff 	mov    %rax,-0xfe0(%rbp)
    f5e1:	c7 85 54 ee ff ff 00 	movl   $0x0,-0x11ac(%rbp)
    f5e8:	00 00 00 
    f5eb:	eb 46                	jmp    f633 <func_33+0x13f3>
    f5ed:	c7 85 58 ee ff ff 00 	movl   $0x0,-0x11a8(%rbp)
    f5f4:	00 00 00 
    f5f7:	eb 2a                	jmp    f623 <func_33+0x13e3>
    f5f9:	8b 85 58 ee ff ff    	mov    -0x11a8(%rbp),%eax
    f5ff:	48 63 d0             	movslq %eax,%rdx
    f602:	8b 85 54 ee ff ff    	mov    -0x11ac(%rbp),%eax
    f608:	48 98                	cltq   
    f60a:	48 01 d0             	add    %rdx,%rax
    f60d:	48 8d 15 b4 0a 01 00 	lea    0x10ab4(%rip),%rdx        # 200c8 <g_1279>
    f614:	48 89 94 c5 60 f4 ff 	mov    %rdx,-0xba0(%rbp,%rax,8)
    f61b:	ff 
    f61c:	83 85 58 ee ff ff 01 	addl   $0x1,-0x11a8(%rbp)
    f623:	83 bd 58 ee ff ff 00 	cmpl   $0x0,-0x11a8(%rbp)
    f62a:	7e cd                	jle    f5f9 <func_33+0x13b9>
    f62c:	83 85 54 ee ff ff 01 	addl   $0x1,-0x11ac(%rbp)
    f633:	83 bd 54 ee ff ff 01 	cmpl   $0x1,-0x11ac(%rbp)
    f63a:	7e b1                	jle    f5ed <func_33+0x13ad>
    f63c:	48 8b 05 6d 09 01 00 	mov    0x1096d(%rip),%rax        # 1ffb0 <g_113>
    f643:	8b 00                	mov    (%rax),%eax
    f645:	85 c0                	test   %eax,%eax
    f647:	0f 85 02 04 00 00    	jne    fa4f <func_33+0x180f>
    f64d:	48 8b 85 d0 ed ff ff 	mov    -0x1230(%rbp),%rax
    f654:	0f b7 c0             	movzwl %ax,%eax
    f657:	89 c6                	mov    %eax,%esi
    f659:	bf 01 00 00 00       	mov    $0x1,%edi
    f65e:	e8 da 76 ff ff       	callq  6d3d <safe_mul_func_uint16_t_u_u>
    f663:	0f b7 d0             	movzwl %ax,%edx
    f666:	48 8b 85 c0 ef ff ff 	mov    -0x1040(%rbp),%rax
    f66d:	8b 00                	mov    (%rax),%eax
    f66f:	39 c2                	cmp    %eax,%edx
    f671:	0f 95 c0             	setne  %al
    f674:	0f b6 c0             	movzbl %al,%eax
    f677:	be 0d 00 00 00       	mov    $0xd,%esi
    f67c:	89 c7                	mov    %eax,%edi
    f67e:	e8 83 77 ff ff       	callq  6e06 <safe_lshift_func_uint16_t_u_u>
    f683:	be 18 d9 6b 56       	mov    $0x566bd918,%esi
    f688:	bf fd ff ff ff       	mov    $0xfffffffd,%edi
    f68d:	e8 3e 78 ff ff       	callq  6ed0 <safe_sub_func_uint32_t_u_u>
    f692:	98                   	cwtl   
    f693:	be 02 00 00 00       	mov    $0x2,%esi
    f698:	89 c7                	mov    %eax,%edi
    f69a:	e8 14 6d ff ff       	callq  63b3 <safe_add_func_int16_t_s_s>
    f69f:	66 83 f8 fe          	cmp    $0xfffe,%ax
    f6a3:	0f 9c c0             	setl   %al
    f6a6:	0f b6 d0             	movzbl %al,%edx
    f6a9:	48 8b 85 e8 ef ff ff 	mov    -0x1018(%rbp),%rax
    f6b0:	8b 00                	mov    (%rax),%eax
    f6b2:	21 d0                	and    %edx,%eax
    f6b4:	83 f8 61             	cmp    $0x61,%eax
    f6b7:	0f 95 c2             	setne  %dl
    f6ba:	48 8b 05 e7 08 01 00 	mov    0x108e7(%rip),%rax        # 1ffa8 <g_63>
    f6c1:	0f b6 d2             	movzbl %dl,%edx
    f6c4:	89 10                	mov    %edx,(%rax)
    f6c6:	8b 10                	mov    (%rax),%edx
    f6c8:	8b 85 f8 ed ff ff    	mov    -0x1208(%rbp),%eax
    f6ce:	09 d0                	or     %edx,%eax
    f6d0:	89 85 f8 ed ff ff    	mov    %eax,-0x1208(%rbp)
    f6d6:	0f b7 05 03 e3 00 00 	movzwl 0xe303(%rip),%eax        # 1d9e0 <g_406>
    f6dd:	c1 e0 04             	shl    $0x4,%eax
    f6e0:	66 c1 f8 04          	sar    $0x4,%ax
    f6e4:	98                   	cwtl   
    f6e5:	89 05 55 1f 01 00    	mov    %eax,0x11f55(%rip)        # 21640 <g_1277>
    f6eb:	8b 05 4f 1f 01 00    	mov    0x11f4f(%rip),%eax        # 21640 <g_1277>
    f6f1:	89 c2                	mov    %eax,%edx
    f6f3:	48 8b 85 10 f0 ff ff 	mov    -0xff0(%rbp),%rax
    f6fa:	48 89 10             	mov    %rdx,(%rax)
    f6fd:	48 8b 85 10 f0 ff ff 	mov    -0xff0(%rbp),%rax
    f704:	48 8b 00             	mov    (%rax),%rax
    f707:	48 85 c0             	test   %rax,%rax
    f70a:	74 3d                	je     f749 <func_33+0x1509>
    f70c:	48 8b 85 38 ef ff ff 	mov    -0x10c8(%rbp),%rax
    f713:	48 8b 00             	mov    (%rax),%rax
    f716:	48 39 85 00 f0 ff ff 	cmp    %rax,-0x1000(%rbp)
    f71d:	8b 85 cc ed ff ff    	mov    -0x1234(%rbp),%eax
    f723:	89 c0                	mov    %eax,%eax
    f725:	48 89 85 d0 ed ff ff 	mov    %rax,-0x1230(%rbp)
    f72c:	48 8b 05 95 09 01 00 	mov    0x10995(%rip),%rax        # 200c8 <g_1279>
    f733:	48 89 85 90 ef ff ff 	mov    %rax,-0x1070(%rbp)
    f73a:	48 8d 05 8f 08 01 00 	lea    0x1088f(%rip),%rax        # 1ffd0 <g_111>
    f741:	48 39 85 90 ef ff ff 	cmp    %rax,-0x1070(%rbp)
    f748:	90                   	nop
    f749:	48 8b 95 40 ef ff ff 	mov    -0x10c0(%rbp),%rdx
    f750:	48 8b 85 20 f0 ff ff 	mov    -0xfe0(%rbp),%rax
    f757:	48 89 10             	mov    %rdx,(%rax)
    f75a:	48 8b 85 20 f0 ff ff 	mov    -0xfe0(%rbp),%rax
    f761:	48 8b 00             	mov    (%rax),%rax
    f764:	48 85 c0             	test   %rax,%rax
    f767:	be ff 00 00 00       	mov    $0xff,%esi
    f76c:	bf 00 00 00 00       	mov    $0x0,%edi
    f771:	e8 1d 74 ff ff       	callq  6b93 <safe_mul_func_uint8_t_u_u>
    f776:	84 c0                	test   %al,%al
    f778:	48 8d 05 11 e2 00 00 	lea    0xe211(%rip),%rax        # 1d990 <g_213+0x10>
    f77f:	48 89 85 28 f0 ff ff 	mov    %rax,-0xfd8(%rbp)
    f786:	48 8d 85 60 ef ff ff 	lea    -0x10a0(%rbp),%rax
    f78d:	48 89 85 30 f0 ff ff 	mov    %rax,-0xfd0(%rbp)
    f794:	48 8d 05 65 d9 00 00 	lea    0xd965(%rip),%rax        # 1d100 <g_79+0x80>
    f79b:	48 89 85 38 f0 ff ff 	mov    %rax,-0xfc8(%rbp)
    f7a2:	c7 85 98 ee ff ff ff 	movl   $0xffffffff,-0x1168(%rbp)
    f7a9:	ff ff ff 
    f7ac:	c7 85 9c ee ff ff be 	movl   $0xf98d31be,-0x1164(%rbp)
    f7b3:	31 8d f9 
    f7b6:	c7 85 a0 ee ff ff c1 	movl   $0xfedc9ac1,-0x1160(%rbp)
    f7bd:	9a dc fe 
    f7c0:	c7 85 a4 ee ff ff e9 	movl   $0xbe885e9,-0x115c(%rbp)
    f7c7:	85 e8 0b 
    f7ca:	48 8b 85 48 ef ff ff 	mov    -0x10b8(%rbp),%rax
    f7d1:	48 85 c0             	test   %rax,%rax
    f7d4:	0f 94 c0             	sete   %al
    f7d7:	0f b6 d8             	movzbl %al,%ebx
    f7da:	48 8b 85 d0 ed ff ff 	mov    -0x1230(%rbp),%rax
    f7e1:	0f b7 c0             	movzwl %ax,%eax
    f7e4:	89 c7                	mov    %eax,%edi
    f7e6:	e8 fe 74 ff ff       	callq  6ce9 <safe_unary_minus_func_uint16_t_u>
    f7eb:	0f b7 85 d8 ed ff ff 	movzwl -0x1228(%rbp),%eax
    f7f2:	89 c1                	mov    %eax,%ecx
    f7f4:	48 8b 15 9d d5 00 00 	mov    0xd59d(%rip),%rdx        # 1cd98 <l_1290.4920+0x18>
    f7fb:	48 8b 85 50 ef ff ff 	mov    -0x10b0(%rbp),%rax
    f802:	48 39 c2             	cmp    %rax,%rdx
    f805:	0f 94 c0             	sete   %al
    f808:	09 c8                	or     %ecx,%eax
    f80a:	0f b6 c0             	movzbl %al,%eax
    f80d:	89 de                	mov    %ebx,%esi
    f80f:	89 c7                	mov    %eax,%edi
    f811:	e8 62 73 ff ff       	callq  6b78 <safe_sub_func_uint8_t_u_u>
    f816:	48 8b 15 93 07 01 00 	mov    0x10793(%rip),%rdx        # 1ffb0 <g_113>
    f81d:	8b 0a                	mov    (%rdx),%ecx
    f81f:	0f b6 d0             	movzbl %al,%edx
    f822:	48 8b 05 87 07 01 00 	mov    0x10787(%rip),%rax        # 1ffb0 <g_113>
    f829:	09 ca                	or     %ecx,%edx
    f82b:	89 10                	mov    %edx,(%rax)
    f82d:	48 8b 85 d0 ed ff ff 	mov    -0x1230(%rbp),%rax
    f834:	41 89 c4             	mov    %eax,%r12d
    f837:	8b 85 cc ed ff ff    	mov    -0x1234(%rbp),%eax
    f83d:	41 89 c5             	mov    %eax,%r13d
    f840:	48 8b 9d 58 f1 ff ff 	mov    -0xea8(%rbp),%rbx
    f847:	48 8b 85 e8 ef ff ff 	mov    -0x1018(%rbp),%rax
    f84e:	8b 00                	mov    (%rax),%eax
    f850:	41 89 c6             	mov    %eax,%r14d
    f853:	48 8b 85 10 f0 ff ff 	mov    -0xff0(%rbp),%rax
    f85a:	48 8b 10             	mov    (%rax),%rdx
    f85d:	48 8b 05 d4 e2 00 00 	mov    0xe2d4(%rip),%rax        # 1db38 <g_870+0x98>
    f864:	48 31 c2             	xor    %rax,%rdx
    f867:	48 8b 85 10 f0 ff ff 	mov    -0xff0(%rbp),%rax
    f86e:	48 89 10             	mov    %rdx,(%rax)
    f871:	48 8b 85 10 f0 ff ff 	mov    -0xff0(%rbp),%rax
    f878:	48 8b 00             	mov    (%rax),%rax
    f87b:	48 89 c7             	mov    %rax,%rdi
    f87e:	e8 93 6f ff ff       	callq  6816 <safe_unary_minus_func_int64_t_s>
    f883:	48 8b 95 38 f0 ff ff 	mov    -0xfc8(%rbp),%rdx
    f88a:	48 8b 12             	mov    (%rdx),%rdx
    f88d:	48 09 c2             	or     %rax,%rdx
    f890:	48 8b 85 38 f0 ff ff 	mov    -0xfc8(%rbp),%rax
    f897:	48 89 10             	mov    %rdx,(%rax)
    f89a:	48 8b 85 38 f0 ff ff 	mov    -0xfc8(%rbp),%rax
    f8a1:	48 8b 10             	mov    (%rax),%rdx
    f8a4:	0f b6 8d dc ed ff ff 	movzbl -0x1224(%rbp),%ecx
    f8ab:	8b 05 b3 e2 00 00    	mov    0xe2b3(%rip),%eax        # 1db64 <g_1022>
    f8b1:	39 c1                	cmp    %eax,%ecx
    f8b3:	0f 9e c0             	setle  %al
    f8b6:	0f b6 c0             	movzbl %al,%eax
    f8b9:	48 39 c2             	cmp    %rax,%rdx
    f8bc:	0f 9d c0             	setge  %al
    f8bf:	0f b6 d0             	movzbl %al,%edx
    f8c2:	48 8b 85 f8 f1 ff ff 	mov    -0xe08(%rbp),%rax
    f8c9:	48 85 c0             	test   %rax,%rax
    f8cc:	0f 95 c0             	setne  %al
    f8cf:	0f b6 c0             	movzbl %al,%eax
    f8d2:	89 d6                	mov    %edx,%esi
    f8d4:	89 c7                	mov    %eax,%edi
    f8d6:	e8 2b 75 ff ff       	callq  6e06 <safe_lshift_func_uint16_t_u_u>
    f8db:	0f b7 c0             	movzwl %ax,%eax
    f8de:	48 39 85 d0 ed ff ff 	cmp    %rax,-0x1230(%rbp)
    f8e5:	0f 92 c0             	setb   %al
    f8e8:	0f b6 c0             	movzbl %al,%eax
    f8eb:	44 89 f6             	mov    %r14d,%esi
    f8ee:	89 c7                	mov    %eax,%edi
    f8f0:	e8 c3 75 ff ff       	callq  6eb8 <safe_add_func_uint32_t_u_u>
    f8f5:	0f b6 15 66 dc 00 00 	movzbl 0xdc66(%rip),%edx        # 1d562 <g_94>
    f8fc:	0f be d2             	movsbl %dl,%edx
    f8ff:	39 d0                	cmp    %edx,%eax
    f901:	0f 92 c0             	setb   %al
    f904:	0f b6 c0             	movzbl %al,%eax
    f907:	48 39 c3             	cmp    %rax,%rbx
    f90a:	0f 94 c0             	sete   %al
    f90d:	0f b6 d0             	movzbl %al,%edx
    f910:	48 8b 85 c0 ef ff ff 	mov    -0x1040(%rbp),%rax
    f917:	8b 00                	mov    (%rax),%eax
    f919:	0f b7 c0             	movzwl %ax,%eax
    f91c:	89 d6                	mov    %edx,%esi
    f91e:	89 c7                	mov    %eax,%edi
    f920:	e8 55 75 ff ff       	callq  6e7a <safe_rshift_func_uint16_t_u_u>
    f925:	0f b7 c0             	movzwl %ax,%eax
    f928:	4c 89 ee             	mov    %r13,%rsi
    f92b:	48 89 c7             	mov    %rax,%rdi
    f92e:	e8 0e 6f ff ff       	callq  6841 <safe_add_func_int64_t_s_s>
    f933:	48 85 c0             	test   %rax,%rax
    f936:	74 11                	je     f949 <func_33+0x1709>
    f938:	8b 05 26 dc 00 00    	mov    0xdc26(%rip),%eax        # 1d564 <g_114>
    f93e:	85 c0                	test   %eax,%eax
    f940:	74 07                	je     f949 <func_33+0x1709>
    f942:	b8 01 00 00 00       	mov    $0x1,%eax
    f947:	eb 05                	jmp    f94e <func_33+0x170e>
    f949:	b8 00 00 00 00       	mov    $0x0,%eax
    f94e:	48 98                	cltq   
    f950:	48 8b 95 d0 ed ff ff 	mov    -0x1230(%rbp),%rdx
    f957:	48 89 d6             	mov    %rdx,%rsi
    f95a:	48 89 c7             	mov    %rax,%rdi
    f95d:	e8 e9 76 ff ff       	callq  704b <safe_sub_func_uint64_t_u_u>
    f962:	0f be c0             	movsbl %al,%eax
    f965:	be 05 00 00 00       	mov    $0x5,%esi
    f96a:	89 c7                	mov    %eax,%edi
    f96c:	e8 fb 69 ff ff       	callq  636c <safe_rshift_func_int8_t_s_u>
    f971:	0f be c0             	movsbl %al,%eax
    f974:	f7 d0                	not    %eax
    f976:	48 98                	cltq   
    f978:	48 39 85 d0 ed ff ff 	cmp    %rax,-0x1230(%rbp)
    f97f:	0f 94 c0             	sete   %al
    f982:	0f b6 c0             	movzbl %al,%eax
    f985:	be 02 00 00 00       	mov    $0x2,%esi
    f98a:	89 c7                	mov    %eax,%edi
    f98c:	e8 74 72 ff ff       	callq  6c05 <safe_lshift_func_uint8_t_u_s>
    f991:	0f b6 c0             	movzbl %al,%eax
    f994:	44 89 e6             	mov    %r12d,%esi
    f997:	89 c7                	mov    %eax,%edi
    f999:	e8 68 74 ff ff       	callq  6e06 <safe_lshift_func_uint16_t_u_u>
    f99e:	0f b7 d0             	movzwl %ax,%edx
    f9a1:	8b 05 99 1c 01 00    	mov    0x11c99(%rip),%eax        # 21640 <g_1277>
    f9a7:	39 c2                	cmp    %eax,%edx
    f9a9:	48 8b 05 48 06 01 00 	mov    0x10648(%rip),%rax        # 1fff8 <g_626>
    f9b0:	48 8b 00             	mov    (%rax),%rax
    f9b3:	66 c7 00 00 00       	movw   $0x0,(%rax)
    f9b8:	0f b7 00             	movzwl (%rax),%eax
    f9bb:	98                   	cwtl   
    f9bc:	be 07 00 00 00       	mov    $0x7,%esi
    f9c1:	89 c7                	mov    %eax,%edi
    f9c3:	e8 19 6b ff ff       	callq  64e1 <safe_lshift_func_int16_t_s_u>
    f9c8:	48 0f bf d0          	movswq %ax,%rdx
    f9cc:	48 8b 85 30 f0 ff ff 	mov    -0xfd0(%rbp),%rax
    f9d3:	48 8b 08             	mov    (%rax),%rcx
    f9d6:	48 8b 85 58 f1 ff ff 	mov    -0xea8(%rbp),%rax
    f9dd:	48 09 c1             	or     %rax,%rcx
    f9e0:	48 8b 85 30 f0 ff ff 	mov    -0xfd0(%rbp),%rax
    f9e7:	48 89 08             	mov    %rcx,(%rax)
    f9ea:	48 8b 85 30 f0 ff ff 	mov    -0xfd0(%rbp),%rax
    f9f1:	48 8b 00             	mov    (%rax),%rax
    f9f4:	48 89 d6             	mov    %rdx,%rsi
    f9f7:	48 89 c7             	mov    %rax,%rdi
    f9fa:	e8 4c 76 ff ff       	callq  704b <safe_sub_func_uint64_t_u_u>
    f9ff:	48 8b 15 a2 05 01 00 	mov    0x105a2(%rip),%rdx        # 1ffa8 <g_63>
    fa06:	8b 12                	mov    (%rdx),%edx
    fa08:	21 c2                	and    %eax,%edx
    fa0a:	48 8b 05 97 05 01 00 	mov    0x10597(%rip),%rax        # 1ffa8 <g_63>
    fa11:	89 10                	mov    %edx,(%rax)
    fa13:	8b 85 fc ed ff ff    	mov    -0x1204(%rbp),%eax
    fa19:	83 c0 01             	add    $0x1,%eax
    fa1c:	89 85 fc ed ff ff    	mov    %eax,-0x1204(%rbp)
    fa22:	8b 05 a8 df 00 00    	mov    0xdfa8(%rip),%eax        # 1d9d0 <g_383>
    fa28:	85 c0                	test   %eax,%eax
    fa2a:	74 05                	je     fa31 <func_33+0x17f1>
    fa2c:	e9 3d eb ff ff       	jmpq   e56e <func_33+0x32e>
    fa31:	8b 85 cc ed ff ff    	mov    -0x1234(%rbp),%eax
    fa37:	83 c0 01             	add    $0x1,%eax
    fa3a:	89 85 cc ed ff ff    	mov    %eax,-0x1234(%rbp)
    fa40:	8b 85 cc ed ff ff    	mov    -0x1234(%rbp),%eax
    fa46:	83 f8 3a             	cmp    $0x3a,%eax
    fa49:	0f 85 b2 f6 ff ff    	jne    f101 <func_33+0xec1>
    fa4f:	c7 85 24 ee ff ff 1b 	movl   $0x1b,-0x11dc(%rbp)
    fa56:	00 00 00 
    fa59:	e9 7b 16 00 00       	jmpq   110d9 <func_33+0x2e99>
    fa5e:	48 8d 05 53 06 01 00 	lea    0x10653(%rip),%rax        # 200b8 <g_1267>
    fa65:	48 89 85 90 f0 ff ff 	mov    %rax,-0xf70(%rbp)
    fa6c:	48 8d 85 f8 ed ff ff 	lea    -0x1208(%rbp),%rax
    fa73:	48 89 85 40 f8 ff ff 	mov    %rax,-0x7c0(%rbp)
    fa7a:	48 8d 05 87 da 00 00 	lea    0xda87(%rip),%rax        # 1d508 <g_83>
    fa81:	48 89 85 48 f8 ff ff 	mov    %rax,-0x7b8(%rbp)
    fa88:	48 8d 05 29 df 00 00 	lea    0xdf29(%rip),%rax        # 1d9b8 <g_262>
    fa8f:	48 89 85 50 f8 ff ff 	mov    %rax,-0x7b0(%rbp)
    fa96:	48 8d 85 08 ee ff ff 	lea    -0x11f8(%rbp),%rax
    fa9d:	48 89 85 58 f8 ff ff 	mov    %rax,-0x7a8(%rbp)
    faa4:	48 8d 05 0d df 00 00 	lea    0xdf0d(%rip),%rax        # 1d9b8 <g_262>
    faab:	48 89 85 60 f8 ff ff 	mov    %rax,-0x7a0(%rbp)
    fab2:	48 8d 85 f4 ed ff ff 	lea    -0x120c(%rbp),%rax
    fab9:	48 89 85 68 f8 ff ff 	mov    %rax,-0x798(%rbp)
    fac0:	48 8d 05 f1 de 00 00 	lea    0xdef1(%rip),%rax        # 1d9b8 <g_262>
    fac7:	48 89 85 70 f8 ff ff 	mov    %rax,-0x790(%rbp)
    face:	48 8d 85 f4 ed ff ff 	lea    -0x120c(%rbp),%rax
    fad5:	48 89 85 78 f8 ff ff 	mov    %rax,-0x788(%rbp)
    fadc:	48 8d 85 08 ee ff ff 	lea    -0x11f8(%rbp),%rax
    fae3:	48 89 85 80 f8 ff ff 	mov    %rax,-0x780(%rbp)
    faea:	48 8d 85 f8 ed ff ff 	lea    -0x1208(%rbp),%rax
    faf1:	48 89 85 88 f8 ff ff 	mov    %rax,-0x778(%rbp)
    faf8:	48 8d 05 09 da 00 00 	lea    0xda09(%rip),%rax        # 1d508 <g_83>
    faff:	48 89 85 90 f8 ff ff 	mov    %rax,-0x770(%rbp)
    fb06:	48 8d 85 f8 ed ff ff 	lea    -0x1208(%rbp),%rax
    fb0d:	48 89 85 98 f8 ff ff 	mov    %rax,-0x768(%rbp)
    fb14:	48 8d 85 08 ee ff ff 	lea    -0x11f8(%rbp),%rax
    fb1b:	48 89 85 a0 f8 ff ff 	mov    %rax,-0x760(%rbp)
    fb22:	48 8d 85 f4 ed ff ff 	lea    -0x120c(%rbp),%rax
    fb29:	48 89 85 a8 f8 ff ff 	mov    %rax,-0x758(%rbp)
    fb30:	48 8d 85 08 ee ff ff 	lea    -0x11f8(%rbp),%rax
    fb37:	48 89 85 b0 f8 ff ff 	mov    %rax,-0x750(%rbp)
    fb3e:	48 8d 05 73 de 00 00 	lea    0xde73(%rip),%rax        # 1d9b8 <g_262>
    fb45:	48 89 85 b8 f8 ff ff 	mov    %rax,-0x748(%rbp)
    fb4c:	48 c7 85 c0 f8 ff ff 	movq   $0x0,-0x740(%rbp)
    fb53:	00 00 00 00 
    fb57:	48 8d 05 aa d9 00 00 	lea    0xd9aa(%rip),%rax        # 1d508 <g_83>
    fb5e:	48 89 85 c8 f8 ff ff 	mov    %rax,-0x738(%rbp)
    fb65:	48 8d 85 f8 ed ff ff 	lea    -0x1208(%rbp),%rax
    fb6c:	48 89 85 d0 f8 ff ff 	mov    %rax,-0x730(%rbp)
    fb73:	48 8d 85 a0 f1 ff ff 	lea    -0xe60(%rbp),%rax
    fb7a:	48 83 c0 04          	add    $0x4,%rax
    fb7e:	48 89 85 d8 f8 ff ff 	mov    %rax,-0x728(%rbp)
    fb85:	48 8d 05 2c de 00 00 	lea    0xde2c(%rip),%rax        # 1d9b8 <g_262>
    fb8c:	48 89 85 e0 f8 ff ff 	mov    %rax,-0x720(%rbp)
    fb93:	48 8d 05 1e de 00 00 	lea    0xde1e(%rip),%rax        # 1d9b8 <g_262>
    fb9a:	48 89 85 e8 f8 ff ff 	mov    %rax,-0x718(%rbp)
    fba1:	48 8d 85 a0 f1 ff ff 	lea    -0xe60(%rbp),%rax
    fba8:	48 83 c0 04          	add    $0x4,%rax
    fbac:	48 89 85 f0 f8 ff ff 	mov    %rax,-0x710(%rbp)
    fbb3:	48 8d 85 f8 ed ff ff 	lea    -0x1208(%rbp),%rax
    fbba:	48 89 85 f8 f8 ff ff 	mov    %rax,-0x708(%rbp)
    fbc1:	48 8d 05 f0 dd 00 00 	lea    0xddf0(%rip),%rax        # 1d9b8 <g_262>
    fbc8:	48 89 85 00 f9 ff ff 	mov    %rax,-0x700(%rbp)
    fbcf:	48 8d 05 e2 dd 00 00 	lea    0xdde2(%rip),%rax        # 1d9b8 <g_262>
    fbd6:	48 89 85 08 f9 ff ff 	mov    %rax,-0x6f8(%rbp)
    fbdd:	48 8d 85 f8 ed ff ff 	lea    -0x1208(%rbp),%rax
    fbe4:	48 89 85 10 f9 ff ff 	mov    %rax,-0x6f0(%rbp)
    fbeb:	48 8d 85 f8 ed ff ff 	lea    -0x1208(%rbp),%rax
    fbf2:	48 89 85 18 f9 ff ff 	mov    %rax,-0x6e8(%rbp)
    fbf9:	48 8d 05 b8 dd 00 00 	lea    0xddb8(%rip),%rax        # 1d9b8 <g_262>
    fc00:	48 89 85 20 f9 ff ff 	mov    %rax,-0x6e0(%rbp)
    fc07:	48 c7 85 28 f9 ff ff 	movq   $0x0,-0x6d8(%rbp)
    fc0e:	00 00 00 00 
    fc12:	48 8d 85 08 ee ff ff 	lea    -0x11f8(%rbp),%rax
    fc19:	48 89 85 30 f9 ff ff 	mov    %rax,-0x6d0(%rbp)
    fc20:	48 c7 85 38 f9 ff ff 	movq   $0x0,-0x6c8(%rbp)
    fc27:	00 00 00 00 
    fc2b:	48 8d 05 86 dd 00 00 	lea    0xdd86(%rip),%rax        # 1d9b8 <g_262>
    fc32:	48 89 85 40 f9 ff ff 	mov    %rax,-0x6c0(%rbp)
    fc39:	48 8d 85 08 ee ff ff 	lea    -0x11f8(%rbp),%rax
    fc40:	48 89 85 48 f9 ff ff 	mov    %rax,-0x6b8(%rbp)
    fc47:	48 8d 05 ba d8 00 00 	lea    0xd8ba(%rip),%rax        # 1d508 <g_83>
    fc4e:	48 89 85 50 f9 ff ff 	mov    %rax,-0x6b0(%rbp)
    fc55:	48 8d 05 5c dd 00 00 	lea    0xdd5c(%rip),%rax        # 1d9b8 <g_262>
    fc5c:	48 89 85 58 f9 ff ff 	mov    %rax,-0x6a8(%rbp)
    fc63:	48 8d 05 9e d8 00 00 	lea    0xd89e(%rip),%rax        # 1d508 <g_83>
    fc6a:	48 89 85 60 f9 ff ff 	mov    %rax,-0x6a0(%rbp)
    fc71:	48 8d 85 08 ee ff ff 	lea    -0x11f8(%rbp),%rax
    fc78:	48 89 85 68 f9 ff ff 	mov    %rax,-0x698(%rbp)
    fc7f:	48 8d 05 32 dd 00 00 	lea    0xdd32(%rip),%rax        # 1d9b8 <g_262>
    fc86:	48 89 85 70 f9 ff ff 	mov    %rax,-0x690(%rbp)
    fc8d:	48 c7 85 78 f9 ff ff 	movq   $0x0,-0x688(%rbp)
    fc94:	00 00 00 00 
    fc98:	48 8d 85 08 ee ff ff 	lea    -0x11f8(%rbp),%rax
    fc9f:	48 89 85 80 f9 ff ff 	mov    %rax,-0x680(%rbp)
    fca6:	48 c7 85 88 f9 ff ff 	movq   $0x0,-0x678(%rbp)
    fcad:	00 00 00 00 
    fcb1:	48 8d 05 00 dd 00 00 	lea    0xdd00(%rip),%rax        # 1d9b8 <g_262>
    fcb8:	48 89 85 90 f9 ff ff 	mov    %rax,-0x670(%rbp)
    fcbf:	48 8d 85 f8 ed ff ff 	lea    -0x1208(%rbp),%rax
    fcc6:	48 89 85 98 f9 ff ff 	mov    %rax,-0x668(%rbp)
    fccd:	48 8d 85 f8 ed ff ff 	lea    -0x1208(%rbp),%rax
    fcd4:	48 89 85 a0 f9 ff ff 	mov    %rax,-0x660(%rbp)
    fcdb:	48 8d 05 d6 dc 00 00 	lea    0xdcd6(%rip),%rax        # 1d9b8 <g_262>
    fce2:	48 89 85 a8 f9 ff ff 	mov    %rax,-0x658(%rbp)
    fce9:	48 8d 05 c8 dc 00 00 	lea    0xdcc8(%rip),%rax        # 1d9b8 <g_262>
    fcf0:	48 89 85 b0 f9 ff ff 	mov    %rax,-0x650(%rbp)
    fcf7:	48 8d 85 f8 ed ff ff 	lea    -0x1208(%rbp),%rax
    fcfe:	48 89 85 b8 f9 ff ff 	mov    %rax,-0x648(%rbp)
    fd05:	48 8d 85 a0 f1 ff ff 	lea    -0xe60(%rbp),%rax
    fd0c:	48 83 c0 04          	add    $0x4,%rax
    fd10:	48 89 85 c0 f9 ff ff 	mov    %rax,-0x640(%rbp)
    fd17:	48 8d 05 9a dc 00 00 	lea    0xdc9a(%rip),%rax        # 1d9b8 <g_262>
    fd1e:	48 89 85 c8 f9 ff ff 	mov    %rax,-0x638(%rbp)
    fd25:	48 8d 05 8c dc 00 00 	lea    0xdc8c(%rip),%rax        # 1d9b8 <g_262>
    fd2c:	48 89 85 d0 f9 ff ff 	mov    %rax,-0x630(%rbp)
    fd33:	48 8d 85 a0 f1 ff ff 	lea    -0xe60(%rbp),%rax
    fd3a:	48 83 c0 04          	add    $0x4,%rax
    fd3e:	48 89 85 d8 f9 ff ff 	mov    %rax,-0x628(%rbp)
    fd45:	48 8d 85 f8 ed ff ff 	lea    -0x1208(%rbp),%rax
    fd4c:	48 89 85 e0 f9 ff ff 	mov    %rax,-0x620(%rbp)
    fd53:	48 8d 05 ae d7 00 00 	lea    0xd7ae(%rip),%rax        # 1d508 <g_83>
    fd5a:	48 89 85 e8 f9 ff ff 	mov    %rax,-0x618(%rbp)
    fd61:	48 c7 85 f0 f9 ff ff 	movq   $0x0,-0x610(%rbp)
    fd68:	00 00 00 00 
    fd6c:	48 8d 05 45 dc 00 00 	lea    0xdc45(%rip),%rax        # 1d9b8 <g_262>
    fd73:	48 89 85 f8 f9 ff ff 	mov    %rax,-0x608(%rbp)
    fd7a:	48 8d 85 08 ee ff ff 	lea    -0x11f8(%rbp),%rax
    fd81:	48 89 85 00 fa ff ff 	mov    %rax,-0x600(%rbp)
    fd88:	48 8d 85 f4 ed ff ff 	lea    -0x120c(%rbp),%rax
    fd8f:	48 89 85 08 fa ff ff 	mov    %rax,-0x5f8(%rbp)
    fd96:	48 8d 85 08 ee ff ff 	lea    -0x11f8(%rbp),%rax
    fd9d:	48 89 85 10 fa ff ff 	mov    %rax,-0x5f0(%rbp)
    fda4:	48 8d 85 f8 ed ff ff 	lea    -0x1208(%rbp),%rax
    fdab:	48 89 85 18 fa ff ff 	mov    %rax,-0x5e8(%rbp)
    fdb2:	48 8d 05 4f d7 00 00 	lea    0xd74f(%rip),%rax        # 1d508 <g_83>
    fdb9:	48 89 85 20 fa ff ff 	mov    %rax,-0x5e0(%rbp)
    fdc0:	48 8d 85 f8 ed ff ff 	lea    -0x1208(%rbp),%rax
    fdc7:	48 89 85 28 fa ff ff 	mov    %rax,-0x5d8(%rbp)
    fdce:	48 8d 85 08 ee ff ff 	lea    -0x11f8(%rbp),%rax
    fdd5:	48 89 85 30 fa ff ff 	mov    %rax,-0x5d0(%rbp)
    fddc:	48 8d 85 f4 ed ff ff 	lea    -0x120c(%rbp),%rax
    fde3:	48 89 85 38 fa ff ff 	mov    %rax,-0x5c8(%rbp)
    fdea:	48 8d 05 c7 db 00 00 	lea    0xdbc7(%rip),%rax        # 1d9b8 <g_262>
    fdf1:	48 89 85 40 fa ff ff 	mov    %rax,-0x5c0(%rbp)
    fdf8:	48 8d 85 f4 ed ff ff 	lea    -0x120c(%rbp),%rax
    fdff:	48 89 85 48 fa ff ff 	mov    %rax,-0x5b8(%rbp)
    fe06:	48 8d 05 ab db 00 00 	lea    0xdbab(%rip),%rax        # 1d9b8 <g_262>
    fe0d:	48 89 85 50 fa ff ff 	mov    %rax,-0x5b0(%rbp)
    fe14:	48 8d 85 08 ee ff ff 	lea    -0x11f8(%rbp),%rax
    fe1b:	48 89 85 58 fa ff ff 	mov    %rax,-0x5a8(%rbp)
    fe22:	48 8d 05 8f db 00 00 	lea    0xdb8f(%rip),%rax        # 1d9b8 <g_262>
    fe29:	48 89 85 60 fa ff ff 	mov    %rax,-0x5a0(%rbp)
    fe30:	48 8d 05 d1 d6 00 00 	lea    0xd6d1(%rip),%rax        # 1d508 <g_83>
    fe37:	48 89 85 68 fa ff ff 	mov    %rax,-0x598(%rbp)
    fe3e:	48 8d 85 f8 ed ff ff 	lea    -0x1208(%rbp),%rax
    fe45:	48 89 85 70 fa ff ff 	mov    %rax,-0x590(%rbp)
    fe4c:	48 8d 85 f8 ed ff ff 	lea    -0x1208(%rbp),%rax
    fe53:	48 89 85 78 fa ff ff 	mov    %rax,-0x588(%rbp)
    fe5a:	c7 85 ac ee ff ff a4 	movl   $0xe17e38a4,-0x1154(%rbp)
    fe61:	38 7e e1 
    fe64:	48 8d 85 08 ef ff ff 	lea    -0x10f8(%rbp),%rax
    fe6b:	48 89 85 98 f0 ff ff 	mov    %rax,-0xf68(%rbp)
    fe72:	48 c7 85 a0 f0 ff ff 	movq   $0x0,-0xf60(%rbp)
    fe79:	00 00 00 00 
    fe7d:	48 c7 85 58 ef ff ff 	movq   $0x0,-0x10a8(%rbp)
    fe84:	00 00 00 00 
    fe88:	48 c7 85 a8 f0 ff ff 	movq   $0x0,-0xf58(%rbp)
    fe8f:	00 00 00 00 
    fe93:	48 8d 85 58 ef ff ff 	lea    -0x10a8(%rbp),%rax
    fe9a:	48 89 85 b0 f0 ff ff 	mov    %rax,-0xf50(%rbp)
    fea1:	48 c7 85 b8 f0 ff ff 	movq   $0x0,-0xf48(%rbp)
    fea8:	00 00 00 00 
    feac:	c7 85 b0 ee ff ff bd 	movl   $0x413027bd,-0x1150(%rbp)
    feb3:	27 30 41 
    feb6:	66 c7 85 f0 ed ff ff 	movw   $0x4,-0x1210(%rbp)
    febd:	04 00 
    febf:	48 8d 05 ca da 00 00 	lea    0xdaca(%rip),%rax        # 1d990 <g_213+0x10>
    fec6:	48 89 85 60 ef ff ff 	mov    %rax,-0x10a0(%rbp)
    fecd:	48 8d 85 18 ef ff ff 	lea    -0x10e8(%rbp),%rax
    fed4:	48 89 85 c0 f0 ff ff 	mov    %rax,-0xf40(%rbp)
    fedb:	48 8d 85 38 ef ff ff 	lea    -0x10c8(%rbp),%rax
    fee2:	48 89 85 70 f2 ff ff 	mov    %rax,-0xd90(%rbp)
    fee9:	48 8d 85 38 ef ff ff 	lea    -0x10c8(%rbp),%rax
    fef0:	48 89 85 78 f2 ff ff 	mov    %rax,-0xd88(%rbp)
    fef7:	48 8d 85 38 ef ff ff 	lea    -0x10c8(%rbp),%rax
    fefe:	48 89 85 80 f2 ff ff 	mov    %rax,-0xd80(%rbp)
    ff05:	48 8d 85 38 ef ff ff 	lea    -0x10c8(%rbp),%rax
    ff0c:	48 89 85 88 f2 ff ff 	mov    %rax,-0xd78(%rbp)
    ff13:	48 8d 85 38 ef ff ff 	lea    -0x10c8(%rbp),%rax
    ff1a:	48 89 85 90 f2 ff ff 	mov    %rax,-0xd70(%rbp)
    ff21:	48 8d 85 38 ef ff ff 	lea    -0x10c8(%rbp),%rax
    ff28:	48 89 85 98 f2 ff ff 	mov    %rax,-0xd68(%rbp)
    ff2f:	48 8d 85 38 ef ff ff 	lea    -0x10c8(%rbp),%rax
    ff36:	48 89 85 a0 f2 ff ff 	mov    %rax,-0xd60(%rbp)
    ff3d:	c7 85 5c ee ff ff 00 	movl   $0x0,-0x11a4(%rbp)
    ff44:	00 00 00 
    ff47:	eb 1b                	jmp    ff64 <func_33+0x1d24>
    ff49:	8b 85 5c ee ff ff    	mov    -0x11a4(%rbp),%eax
    ff4f:	48 98                	cltq   
    ff51:	48 c7 84 c5 00 f2 ff 	movq   $0x0,-0xe00(%rbp,%rax,8)
    ff58:	ff 00 00 00 00 
    ff5d:	83 85 5c ee ff ff 01 	addl   $0x1,-0x11a4(%rbp)
    ff64:	83 bd 5c ee ff ff 04 	cmpl   $0x4,-0x11a4(%rbp)
    ff6b:	7e dc                	jle    ff49 <func_33+0x1d09>
    ff6d:	c7 85 5c ee ff ff 00 	movl   $0x0,-0x11a4(%rbp)
    ff74:	00 00 00 
    ff77:	eb 22                	jmp    ff9b <func_33+0x1d5b>
    ff79:	8b 85 5c ee ff ff    	mov    -0x11a4(%rbp),%eax
    ff7f:	48 98                	cltq   
    ff81:	48 8d 95 40 f3 ff ff 	lea    -0xcc0(%rbp),%rdx
    ff88:	48 83 c2 18          	add    $0x18,%rdx
    ff8c:	48 89 94 c5 80 f1 ff 	mov    %rdx,-0xe80(%rbp,%rax,8)
    ff93:	ff 
    ff94:	83 85 5c ee ff ff 01 	addl   $0x1,-0x11a4(%rbp)
    ff9b:	83 bd 5c ee ff ff 02 	cmpl   $0x2,-0x11a4(%rbp)
    ffa2:	7e d5                	jle    ff79 <func_33+0x1d39>
    ffa4:	c7 85 00 ee ff ff 00 	movl   $0x0,-0x1200(%rbp)
    ffab:	00 00 00 
    ffae:	e9 77 01 00 00       	jmpq   1012a <func_33+0x1eea>
    ffb3:	c7 85 cc ee ff ff 00 	movl   $0x0,-0x1134(%rbp)
    ffba:	00 00 00 
    ffbd:	c7 85 d0 ee ff ff ff 	movl   $0xffffffff,-0x1130(%rbp)
    ffc4:	ff ff ff 
    ffc7:	c7 85 d4 ee ff ff 58 	movl   $0x2ad40558,-0x112c(%rbp)
    ffce:	05 d4 2a 
    ffd1:	48 8d 85 30 ef ff ff 	lea    -0x10d0(%rbp),%rax
    ffd8:	48 89 85 08 f1 ff ff 	mov    %rax,-0xef8(%rbp)
    ffdf:	48 8d 85 60 f4 ff ff 	lea    -0xba0(%rbp),%rax
    ffe6:	48 8d 15 73 fe 00 00 	lea    0xfe73(%rip),%rdx        # 1fe60 <g_3242+0x1198>
    ffed:	b9 28 00 00 00       	mov    $0x28,%ecx
    fff2:	48 89 c7             	mov    %rax,%rdi
    fff5:	48 89 d6             	mov    %rdx,%rsi
    fff8:	f3 48 a5             	rep movsq %ds:(%rsi),%es:(%rdi)
    fffb:	48 8d 85 b0 f2 ff ff 	lea    -0xd50(%rbp),%rax
   10002:	48 83 c0 10          	add    $0x10,%rax
   10006:	48 89 85 10 f1 ff ff 	mov    %rax,-0xef0(%rbp)
   1000d:	48 c7 85 70 ef ff ff 	movq   $0x0,-0x1090(%rbp)
   10014:	00 00 00 00 
   10018:	48 8d 85 70 ef ff ff 	lea    -0x1090(%rbp),%rax
   1001f:	48 89 85 90 f3 ff ff 	mov    %rax,-0xc70(%rbp)
   10026:	48 8d 85 70 ef ff ff 	lea    -0x1090(%rbp),%rax
   1002d:	48 89 85 98 f3 ff ff 	mov    %rax,-0xc68(%rbp)
   10034:	48 8d 85 70 ef ff ff 	lea    -0x1090(%rbp),%rax
   1003b:	48 89 85 a0 f3 ff ff 	mov    %rax,-0xc60(%rbp)
   10042:	48 8d 85 70 ef ff ff 	lea    -0x1090(%rbp),%rax
   10049:	48 89 85 a8 f3 ff ff 	mov    %rax,-0xc58(%rbp)
   10050:	48 8d 85 70 ef ff ff 	lea    -0x1090(%rbp),%rax
   10057:	48 89 85 b0 f3 ff ff 	mov    %rax,-0xc50(%rbp)
   1005e:	48 8d 85 70 ef ff ff 	lea    -0x1090(%rbp),%rax
   10065:	48 89 85 b8 f3 ff ff 	mov    %rax,-0xc48(%rbp)
   1006c:	48 8d 85 70 ef ff ff 	lea    -0x1090(%rbp),%rax
   10073:	48 89 85 c0 f3 ff ff 	mov    %rax,-0xc40(%rbp)
   1007a:	48 8d 85 70 ef ff ff 	lea    -0x1090(%rbp),%rax
   10081:	48 89 85 c8 f3 ff ff 	mov    %rax,-0xc38(%rbp)
   10088:	48 8d 85 70 ef ff ff 	lea    -0x1090(%rbp),%rax
   1008f:	48 89 85 d0 f3 ff ff 	mov    %rax,-0xc30(%rbp)
   10096:	c7 85 d8 ee ff ff ff 	movl   $0xffffffff,-0x1128(%rbp)
   1009d:	ff ff ff 
   100a0:	48 8d 85 80 fa ff ff 	lea    -0x580(%rbp),%rax
   100a7:	48 8d 15 92 8c 00 00 	lea    0x8c92(%rip),%rdx        # 18d40 <g_1879+0xcc0>
   100ae:	b9 2a 00 00 00       	mov    $0x2a,%ecx
   100b3:	48 89 c7             	mov    %rax,%rdi
   100b6:	48 89 d6             	mov    %rdx,%rsi
   100b9:	f3 48 a5             	rep movsq %ds:(%rsi),%es:(%rdi)
   100bc:	c7 85 dc ee ff ff 00 	movl   $0x0,-0x1124(%rbp)
   100c3:	00 00 00 
   100c6:	48 8d 05 c3 d8 00 00 	lea    0xd8c3(%rip),%rax        # 1d990 <g_213+0x10>
   100cd:	48 89 85 18 f1 ff ff 	mov    %rax,-0xee8(%rbp)
   100d4:	48 c7 85 20 f1 ff ff 	movq   $0xffffffffffffffff,-0xee0(%rbp)
   100db:	ff ff ff ff 
   100df:	c7 85 60 ee ff ff 00 	movl   $0x0,-0x11a0(%rbp)
   100e6:	00 00 00 
   100e9:	eb 1e                	jmp    10109 <func_33+0x1ec9>
   100eb:	8b 85 60 ee ff ff    	mov    -0x11a0(%rbp),%eax
   100f1:	48 98                	cltq   
   100f3:	48 8d 15 76 d4 00 00 	lea    0xd476(%rip),%rdx        # 1d570 <g_153>
   100fa:	48 89 94 c5 b0 f2 ff 	mov    %rdx,-0xd50(%rbp,%rax,8)
   10101:	ff 
   10102:	83 85 60 ee ff ff 01 	addl   $0x1,-0x11a0(%rbp)
   10109:	83 bd 60 ee ff ff 06 	cmpl   $0x6,-0x11a0(%rbp)
   10110:	7e d9                	jle    100eb <func_33+0x1eab>
   10112:	8b 85 00 ee ff ff    	mov    -0x1200(%rbp),%eax
   10118:	be 01 00 00 00       	mov    $0x1,%esi
   1011d:	89 c7                	mov    %eax,%edi
   1011f:	e8 92 64 ff ff       	callq  65b6 <safe_add_func_int32_t_s_s>
   10124:	89 85 00 ee ff ff    	mov    %eax,-0x1200(%rbp)
   1012a:	8b 85 00 ee ff ff    	mov    -0x1200(%rbp),%eax
   10130:	83 f8 02             	cmp    $0x2,%eax
   10133:	0f 8e 7a fe ff ff    	jle    ffb3 <func_33+0x1d73>
   10139:	48 8b 95 08 ef ff ff 	mov    -0x10f8(%rbp),%rdx
   10140:	48 8b 85 98 f0 ff ff 	mov    -0xf68(%rbp),%rax
   10147:	48 89 10             	mov    %rdx,(%rax)
   1014a:	48 8b 85 98 f0 ff ff 	mov    -0xf68(%rbp),%rax
   10151:	48 8b 00             	mov    (%rax),%rax
   10154:	48 89 85 40 ef ff ff 	mov    %rax,-0x10c0(%rbp)
   1015b:	8b 85 14 ee ff ff    	mov    -0x11ec(%rbp),%eax
   10161:	48 63 d8             	movslq %eax,%rbx
   10164:	48 8b 05 05 da 00 00 	mov    0xda05(%rip),%rax        # 1db70 <g_1187>
   1016b:	48 c1 e8 0c          	shr    $0xc,%rax
   1016f:	41 89 c4             	mov    %eax,%r12d
   10172:	41 81 e4 ff ff 01 00 	and    $0x1ffff,%r12d
   10179:	48 8b 95 58 ef ff ff 	mov    -0x10a8(%rbp),%rdx
   10180:	48 8b 85 b0 f0 ff ff 	mov    -0xf50(%rbp),%rax
   10187:	48 89 10             	mov    %rdx,(%rax)
   1018a:	48 8b 85 b0 f0 ff ff 	mov    -0xf50(%rbp),%rax
   10191:	48 8b 10             	mov    (%rax),%rdx
   10194:	48 8b 85 50 f3 ff ff 	mov    -0xcb0(%rbp),%rax
   1019b:	48 89 05 b6 14 01 00 	mov    %rax,0x114b6(%rip)        # 21658 <g_1464>
   101a2:	48 8b 05 af 14 01 00 	mov    0x114af(%rip),%rax        # 21658 <g_1464>
   101a9:	48 39 c2             	cmp    %rax,%rdx
   101ac:	0f 94 c0             	sete   %al
   101af:	0f b6 c0             	movzbl %al,%eax
   101b2:	be 05 00 00 00       	mov    $0x5,%esi
   101b7:	89 c7                	mov    %eax,%edi
   101b9:	e8 ae 61 ff ff       	callq  636c <safe_rshift_func_int8_t_s_u>
   101be:	0f be c0             	movsbl %al,%eax
   101c1:	44 89 e1             	mov    %r12d,%ecx
   101c4:	0f b7 15 09 d8 00 00 	movzwl 0xd809(%rip),%edx        # 1d9d4 <g_385>
   101cb:	31 ca                	xor    %ecx,%edx
   101cd:	66 89 15 00 d8 00 00 	mov    %dx,0xd800(%rip)        # 1d9d4 <g_385>
   101d4:	0f b7 15 f9 d7 00 00 	movzwl 0xd7f9(%rip),%edx        # 1d9d4 <g_385>
   101db:	0f b7 d2             	movzwl %dx,%edx
   101de:	f7 d2                	not    %edx
   101e0:	39 d0                	cmp    %edx,%eax
   101e2:	0f 95 c0             	setne  %al
   101e5:	0f b6 c0             	movzbl %al,%eax
   101e8:	be 01 00 00 00       	mov    $0x1,%esi
   101ed:	89 c7                	mov    %eax,%edi
   101ef:	e8 1e 60 ff ff       	callq  6212 <safe_mul_func_int8_t_s_s>
   101f4:	48 0f be c0          	movsbq %al,%rax
   101f8:	0c a0                	or     $0xa0,%al
   101fa:	48 89 c2             	mov    %rax,%rdx
   101fd:	8b 85 b0 ee ff ff    	mov    -0x1150(%rbp),%eax
   10203:	48 39 c2             	cmp    %rax,%rdx
   10206:	0f 9e c0             	setle  %al
   10209:	0f b6 c0             	movzbl %al,%eax
   1020c:	be 02 00 00 00       	mov    $0x2,%esi
   10211:	89 c7                	mov    %eax,%edi
   10213:	e8 d6 60 ff ff       	callq  62ee <safe_lshift_func_int8_t_s_u>
   10218:	0f be c0             	movsbl %al,%eax
   1021b:	89 85 cc ed ff ff    	mov    %eax,-0x1234(%rbp)
   10221:	8b 95 cc ed ff ff    	mov    -0x1234(%rbp),%edx
   10227:	0f b6 85 dc ed ff ff 	movzbl -0x1224(%rbp),%eax
   1022e:	39 c2                	cmp    %eax,%edx
   10230:	0f 94 c0             	sete   %al
   10233:	0f b6 c0             	movzbl %al,%eax
   10236:	48 89 de             	mov    %rbx,%rsi
   10239:	48 89 c7             	mov    %rax,%rdi
   1023c:	e8 00 66 ff ff       	callq  6841 <safe_add_func_int64_t_s_s>
   10241:	0f b6 95 dc ed ff ff 	movzbl -0x1224(%rbp),%edx
   10248:	8b 05 12 d9 00 00    	mov    0xd912(%rip),%eax        # 1db60 <g_945>
   1024e:	39 c2                	cmp    %eax,%edx
   10250:	0f 84 c5 0d 00 00    	je     1101b <func_33+0x2ddb>
   10256:	c7 85 b8 ee ff ff da 	movl   $0x2e34d9da,-0x1148(%rbp)
   1025d:	d9 34 2e 
   10260:	c7 85 bc ee ff ff ff 	movl   $0xffffffff,-0x1144(%rbp)
   10267:	ff ff ff 
   1026a:	c7 85 c0 ee ff ff 41 	movl   $0x55569141,-0x1140(%rbp)
   10271:	91 56 55 
   10274:	48 8d 05 52 d7 00 00 	lea    0xd752(%rip),%rax        # 1d9cd <g_360>
   1027b:	48 89 85 d0 f0 ff ff 	mov    %rax,-0xf30(%rbp)
   10282:	48 8d 05 4b d7 00 00 	lea    0xd74b(%rip),%rax        # 1d9d4 <g_385>
   10289:	48 89 85 d8 f0 ff ff 	mov    %rax,-0xf28(%rbp)
   10290:	48 8d 85 58 f1 ff ff 	lea    -0xea8(%rbp),%rax
   10297:	48 89 85 e0 f0 ff ff 	mov    %rax,-0xf20(%rbp)
   1029e:	c7 85 c4 ee ff ff 00 	movl   $0x0,-0x113c(%rbp)
   102a5:	00 00 00 
   102a8:	c7 85 c8 ee ff ff e6 	movl   $0xa7f630e6,-0x1138(%rbp)
   102af:	30 f6 a7 
   102b2:	8b 85 cc ed ff ff    	mov    -0x1234(%rbp),%eax
   102b8:	85 c0                	test   %eax,%eax
   102ba:	74 12                	je     102ce <func_33+0x208e>
   102bc:	83 ad b8 ee ff ff 01 	subl   $0x1,-0x1148(%rbp)
   102c3:	8b 85 b8 ee ff ff    	mov    -0x1148(%rbp),%eax
   102c9:	e9 6d 0e 00 00       	jmpq   1113b <func_33+0x2efb>
   102ce:	48 8d 85 60 f4 ff ff 	lea    -0xba0(%rbp),%rax
   102d5:	48 8d 15 c4 8b 00 00 	lea    0x8bc4(%rip),%rdx        # 18ea0 <g_1879+0xe20>
   102dc:	b9 3c 00 00 00       	mov    $0x3c,%ecx
   102e1:	48 89 c7             	mov    %rax,%rdi
   102e4:	48 89 d6             	mov    %rdx,%rsi
   102e7:	f3 48 a5             	rep movsq %ds:(%rsi),%es:(%rdi)
   102ea:	48 8d 05 9f d6 00 00 	lea    0xd69f(%rip),%rax        # 1d990 <g_213+0x10>
   102f1:	48 89 85 e8 f0 ff ff 	mov    %rax,-0xf18(%rbp)
   102f8:	48 8d 85 f8 ee ff ff 	lea    -0x1108(%rbp),%rax
   102ff:	48 89 85 f0 f0 ff ff 	mov    %rax,-0xf10(%rbp)
   10306:	48 8d 85 60 ef ff ff 	lea    -0x10a0(%rbp),%rax
   1030d:	48 89 85 f8 f0 ff ff 	mov    %rax,-0xf08(%rbp)
   10314:	48 c7 85 68 ef ff ff 	movq   $0x0,-0x1098(%rbp)
   1031b:	00 00 00 00 
   1031f:	48 8d 85 68 ef ff ff 	lea    -0x1098(%rbp),%rax
   10326:	48 89 85 00 f1 ff ff 	mov    %rax,-0xf00(%rbp)
   1032d:	48 8d 85 18 ef ff ff 	lea    -0x10e8(%rbp),%rax
   10334:	48 89 85 70 ef ff ff 	mov    %rax,-0x1090(%rbp)
   1033b:	48 8d 85 20 ef ff ff 	lea    -0x10e0(%rbp),%rax
   10342:	48 89 85 80 fa ff ff 	mov    %rax,-0x580(%rbp)
   10349:	48 8d 85 20 ef ff ff 	lea    -0x10e0(%rbp),%rax
   10350:	48 89 85 88 fa ff ff 	mov    %rax,-0x578(%rbp)
   10357:	48 c7 85 90 fa ff ff 	movq   $0x0,-0x570(%rbp)
   1035e:	00 00 00 00 
   10362:	48 c7 85 98 fa ff ff 	movq   $0x0,-0x568(%rbp)
   10369:	00 00 00 00 
   1036d:	48 c7 85 a0 fa ff ff 	movq   $0x0,-0x560(%rbp)
   10374:	00 00 00 00 
   10378:	48 c7 85 a8 fa ff ff 	movq   $0x0,-0x558(%rbp)
   1037f:	00 00 00 00 
   10383:	48 c7 85 b0 fa ff ff 	movq   $0x0,-0x550(%rbp)
   1038a:	00 00 00 00 
   1038e:	48 8d 85 20 ef ff ff 	lea    -0x10e0(%rbp),%rax
   10395:	48 89 85 b8 fa ff ff 	mov    %rax,-0x548(%rbp)
   1039c:	48 8d 85 20 ef ff ff 	lea    -0x10e0(%rbp),%rax
   103a3:	48 89 85 c0 fa ff ff 	mov    %rax,-0x540(%rbp)
   103aa:	48 c7 85 c8 fa ff ff 	movq   $0x0,-0x538(%rbp)
   103b1:	00 00 00 00 
   103b5:	48 8d 85 70 ef ff ff 	lea    -0x1090(%rbp),%rax
   103bc:	48 89 85 d0 fa ff ff 	mov    %rax,-0x530(%rbp)
   103c3:	48 c7 85 d8 fa ff ff 	movq   $0x0,-0x528(%rbp)
   103ca:	00 00 00 00 
   103ce:	48 8d 85 20 ef ff ff 	lea    -0x10e0(%rbp),%rax
   103d5:	48 89 85 e0 fa ff ff 	mov    %rax,-0x520(%rbp)
   103dc:	48 8d 85 20 ef ff ff 	lea    -0x10e0(%rbp),%rax
   103e3:	48 89 85 e8 fa ff ff 	mov    %rax,-0x518(%rbp)
   103ea:	48 c7 85 f0 fa ff ff 	movq   $0x0,-0x510(%rbp)
   103f1:	00 00 00 00 
   103f5:	48 c7 85 f8 fa ff ff 	movq   $0x0,-0x508(%rbp)
   103fc:	00 00 00 00 
   10400:	48 c7 85 00 fb ff ff 	movq   $0x0,-0x500(%rbp)
   10407:	00 00 00 00 
   1040b:	48 c7 85 08 fb ff ff 	movq   $0x0,-0x4f8(%rbp)
   10412:	00 00 00 00 
   10416:	48 c7 85 10 fb ff ff 	movq   $0x0,-0x4f0(%rbp)
   1041d:	00 00 00 00 
   10421:	48 8d 85 20 ef ff ff 	lea    -0x10e0(%rbp),%rax
   10428:	48 89 85 18 fb ff ff 	mov    %rax,-0x4e8(%rbp)
   1042f:	48 8d 85 20 ef ff ff 	lea    -0x10e0(%rbp),%rax
   10436:	48 89 85 20 fb ff ff 	mov    %rax,-0x4e0(%rbp)
   1043d:	48 c7 85 28 fb ff ff 	movq   $0x0,-0x4d8(%rbp)
   10444:	00 00 00 00 
   10448:	48 8d 85 70 ef ff ff 	lea    -0x1090(%rbp),%rax
   1044f:	48 89 85 30 fb ff ff 	mov    %rax,-0x4d0(%rbp)
   10456:	48 c7 85 38 fb ff ff 	movq   $0x0,-0x4c8(%rbp)
   1045d:	00 00 00 00 
   10461:	48 8d 85 20 ef ff ff 	lea    -0x10e0(%rbp),%rax
   10468:	48 89 85 40 fb ff ff 	mov    %rax,-0x4c0(%rbp)
   1046f:	48 8d 85 20 ef ff ff 	lea    -0x10e0(%rbp),%rax
   10476:	48 89 85 48 fb ff ff 	mov    %rax,-0x4b8(%rbp)
   1047d:	48 c7 85 50 fb ff ff 	movq   $0x0,-0x4b0(%rbp)
   10484:	00 00 00 00 
   10488:	48 c7 85 58 fb ff ff 	movq   $0x0,-0x4a8(%rbp)
   1048f:	00 00 00 00 
   10493:	48 c7 85 60 fb ff ff 	movq   $0x0,-0x4a0(%rbp)
   1049a:	00 00 00 00 
   1049e:	48 c7 85 68 fb ff ff 	movq   $0x0,-0x498(%rbp)
   104a5:	00 00 00 00 
   104a9:	48 c7 85 70 fb ff ff 	movq   $0x0,-0x490(%rbp)
   104b0:	00 00 00 00 
   104b4:	48 8d 85 20 ef ff ff 	lea    -0x10e0(%rbp),%rax
   104bb:	48 89 85 78 fb ff ff 	mov    %rax,-0x488(%rbp)
   104c2:	48 8d 85 20 ef ff ff 	lea    -0x10e0(%rbp),%rax
   104c9:	48 89 85 80 fb ff ff 	mov    %rax,-0x480(%rbp)
   104d0:	48 c7 85 88 fb ff ff 	movq   $0x0,-0x478(%rbp)
   104d7:	00 00 00 00 
   104db:	48 8d 85 70 ef ff ff 	lea    -0x1090(%rbp),%rax
   104e2:	48 89 85 90 fb ff ff 	mov    %rax,-0x470(%rbp)
   104e9:	48 c7 85 98 fb ff ff 	movq   $0x0,-0x468(%rbp)
   104f0:	00 00 00 00 
   104f4:	48 8d 85 20 ef ff ff 	lea    -0x10e0(%rbp),%rax
   104fb:	48 89 85 a0 fb ff ff 	mov    %rax,-0x460(%rbp)
   10502:	48 8d 85 20 ef ff ff 	lea    -0x10e0(%rbp),%rax
   10509:	48 89 85 a8 fb ff ff 	mov    %rax,-0x458(%rbp)
   10510:	48 c7 85 b0 fb ff ff 	movq   $0x0,-0x450(%rbp)
   10517:	00 00 00 00 
   1051b:	48 c7 85 b8 fb ff ff 	movq   $0x0,-0x448(%rbp)
   10522:	00 00 00 00 
   10526:	48 c7 85 c0 fb ff ff 	movq   $0x0,-0x440(%rbp)
   1052d:	00 00 00 00 
   10531:	48 c7 85 c8 fb ff ff 	movq   $0x0,-0x438(%rbp)
   10538:	00 00 00 00 
   1053c:	48 c7 85 d0 fb ff ff 	movq   $0x0,-0x430(%rbp)
   10543:	00 00 00 00 
   10547:	48 8d 85 20 ef ff ff 	lea    -0x10e0(%rbp),%rax
   1054e:	48 89 85 d8 fb ff ff 	mov    %rax,-0x428(%rbp)
   10555:	48 8d 85 20 ef ff ff 	lea    -0x10e0(%rbp),%rax
   1055c:	48 89 85 e0 fb ff ff 	mov    %rax,-0x420(%rbp)
   10563:	48 c7 85 e8 fb ff ff 	movq   $0x0,-0x418(%rbp)
   1056a:	00 00 00 00 
   1056e:	48 8d 85 70 ef ff ff 	lea    -0x1090(%rbp),%rax
   10575:	48 89 85 f0 fb ff ff 	mov    %rax,-0x410(%rbp)
   1057c:	48 c7 85 f8 fb ff ff 	movq   $0x0,-0x408(%rbp)
   10583:	00 00 00 00 
   10587:	48 8d 85 20 ef ff ff 	lea    -0x10e0(%rbp),%rax
   1058e:	48 89 85 00 fc ff ff 	mov    %rax,-0x400(%rbp)
   10595:	48 8d 85 20 ef ff ff 	lea    -0x10e0(%rbp),%rax
   1059c:	48 89 85 08 fc ff ff 	mov    %rax,-0x3f8(%rbp)
   105a3:	48 c7 85 10 fc ff ff 	movq   $0x0,-0x3f0(%rbp)
   105aa:	00 00 00 00 
   105ae:	48 c7 85 18 fc ff ff 	movq   $0x0,-0x3e8(%rbp)
   105b5:	00 00 00 00 
   105b9:	48 c7 85 20 fc ff ff 	movq   $0x0,-0x3e0(%rbp)
   105c0:	00 00 00 00 
   105c4:	48 c7 85 28 fc ff ff 	movq   $0x0,-0x3d8(%rbp)
   105cb:	00 00 00 00 
   105cf:	48 c7 85 30 fc ff ff 	movq   $0x0,-0x3d0(%rbp)
   105d6:	00 00 00 00 
   105da:	48 8d 85 20 ef ff ff 	lea    -0x10e0(%rbp),%rax
   105e1:	48 89 85 38 fc ff ff 	mov    %rax,-0x3c8(%rbp)
   105e8:	48 8d 85 20 ef ff ff 	lea    -0x10e0(%rbp),%rax
   105ef:	48 89 85 40 fc ff ff 	mov    %rax,-0x3c0(%rbp)
   105f6:	48 c7 85 48 fc ff ff 	movq   $0x0,-0x3b8(%rbp)
   105fd:	00 00 00 00 
   10601:	48 8d 85 70 ef ff ff 	lea    -0x1090(%rbp),%rax
   10608:	48 89 85 50 fc ff ff 	mov    %rax,-0x3b0(%rbp)
   1060f:	48 c7 85 58 fc ff ff 	movq   $0x0,-0x3a8(%rbp)
   10616:	00 00 00 00 
   1061a:	48 8d 85 20 ef ff ff 	lea    -0x10e0(%rbp),%rax
   10621:	48 89 85 60 fc ff ff 	mov    %rax,-0x3a0(%rbp)
   10628:	48 8d 85 20 ef ff ff 	lea    -0x10e0(%rbp),%rax
   1062f:	48 89 85 68 fc ff ff 	mov    %rax,-0x398(%rbp)
   10636:	48 c7 85 70 fc ff ff 	movq   $0x0,-0x390(%rbp)
   1063d:	00 00 00 00 
   10641:	48 c7 85 78 fc ff ff 	movq   $0x0,-0x388(%rbp)
   10648:	00 00 00 00 
   1064c:	48 c7 85 80 fc ff ff 	movq   $0x0,-0x380(%rbp)
   10653:	00 00 00 00 
   10657:	48 c7 85 88 fc ff ff 	movq   $0x0,-0x378(%rbp)
   1065e:	00 00 00 00 
   10662:	48 c7 85 90 fc ff ff 	movq   $0x0,-0x370(%rbp)
   10669:	00 00 00 00 
   1066d:	48 8d 85 20 ef ff ff 	lea    -0x10e0(%rbp),%rax
   10674:	48 89 85 98 fc ff ff 	mov    %rax,-0x368(%rbp)
   1067b:	48 8d 85 20 ef ff ff 	lea    -0x10e0(%rbp),%rax
   10682:	48 89 85 a0 fc ff ff 	mov    %rax,-0x360(%rbp)
   10689:	48 c7 85 a8 fc ff ff 	movq   $0x0,-0x358(%rbp)
   10690:	00 00 00 00 
   10694:	48 8d 85 70 ef ff ff 	lea    -0x1090(%rbp),%rax
   1069b:	48 89 85 b0 fc ff ff 	mov    %rax,-0x350(%rbp)
   106a2:	48 c7 85 b8 fc ff ff 	movq   $0x0,-0x348(%rbp)
   106a9:	00 00 00 00 
   106ad:	48 8d 85 20 ef ff ff 	lea    -0x10e0(%rbp),%rax
   106b4:	48 89 85 c0 fc ff ff 	mov    %rax,-0x340(%rbp)
   106bb:	48 8d 85 20 ef ff ff 	lea    -0x10e0(%rbp),%rax
   106c2:	48 89 85 c8 fc ff ff 	mov    %rax,-0x338(%rbp)
   106c9:	48 c7 85 d0 fc ff ff 	movq   $0x0,-0x330(%rbp)
   106d0:	00 00 00 00 
   106d4:	48 c7 85 d8 fc ff ff 	movq   $0x0,-0x328(%rbp)
   106db:	00 00 00 00 
   106df:	48 c7 85 e0 fc ff ff 	movq   $0x0,-0x320(%rbp)
   106e6:	00 00 00 00 
   106ea:	48 c7 85 e8 fc ff ff 	movq   $0x0,-0x318(%rbp)
   106f1:	00 00 00 00 
   106f5:	48 c7 85 f0 fc ff ff 	movq   $0x0,-0x310(%rbp)
   106fc:	00 00 00 00 
   10700:	48 8d 85 20 ef ff ff 	lea    -0x10e0(%rbp),%rax
   10707:	48 89 85 f8 fc ff ff 	mov    %rax,-0x308(%rbp)
   1070e:	48 8d 85 20 ef ff ff 	lea    -0x10e0(%rbp),%rax
   10715:	48 89 85 00 fd ff ff 	mov    %rax,-0x300(%rbp)
   1071c:	48 c7 85 08 fd ff ff 	movq   $0x0,-0x2f8(%rbp)
   10723:	00 00 00 00 
   10727:	48 8d 85 20 ef ff ff 	lea    -0x10e0(%rbp),%rax
   1072e:	48 89 85 10 fd ff ff 	mov    %rax,-0x2f0(%rbp)
   10735:	48 8d 85 20 ef ff ff 	lea    -0x10e0(%rbp),%rax
   1073c:	48 89 85 18 fd ff ff 	mov    %rax,-0x2e8(%rbp)
   10743:	48 c7 85 20 fd ff ff 	movq   $0x0,-0x2e0(%rbp)
   1074a:	00 00 00 00 
   1074e:	48 8d 85 20 ef ff ff 	lea    -0x10e0(%rbp),%rax
   10755:	48 89 85 28 fd ff ff 	mov    %rax,-0x2d8(%rbp)
   1075c:	48 8d 85 70 ef ff ff 	lea    -0x1090(%rbp),%rax
   10763:	48 89 85 30 fd ff ff 	mov    %rax,-0x2d0(%rbp)
   1076a:	48 8d 85 20 ef ff ff 	lea    -0x10e0(%rbp),%rax
   10771:	48 89 85 38 fd ff ff 	mov    %rax,-0x2c8(%rbp)
   10778:	48 8d 85 70 ef ff ff 	lea    -0x1090(%rbp),%rax
   1077f:	48 89 85 40 fd ff ff 	mov    %rax,-0x2c0(%rbp)
   10786:	48 8d 85 20 ef ff ff 	lea    -0x10e0(%rbp),%rax
   1078d:	48 89 85 48 fd ff ff 	mov    %rax,-0x2b8(%rbp)
   10794:	48 8d 85 70 ef ff ff 	lea    -0x1090(%rbp),%rax
   1079b:	48 89 85 50 fd ff ff 	mov    %rax,-0x2b0(%rbp)
   107a2:	48 8d 85 20 ef ff ff 	lea    -0x10e0(%rbp),%rax
   107a9:	48 89 85 58 fd ff ff 	mov    %rax,-0x2a8(%rbp)
   107b0:	48 c7 85 60 fd ff ff 	movq   $0x0,-0x2a0(%rbp)
   107b7:	00 00 00 00 
   107bb:	48 8d 85 20 ef ff ff 	lea    -0x10e0(%rbp),%rax
   107c2:	48 89 85 68 fd ff ff 	mov    %rax,-0x298(%rbp)
   107c9:	48 8d 85 20 ef ff ff 	lea    -0x10e0(%rbp),%rax
   107d0:	48 89 85 70 fd ff ff 	mov    %rax,-0x290(%rbp)
   107d7:	48 8d 85 20 ef ff ff 	lea    -0x10e0(%rbp),%rax
   107de:	48 89 85 78 fd ff ff 	mov    %rax,-0x288(%rbp)
   107e5:	48 c7 85 80 fd ff ff 	movq   $0x0,-0x280(%rbp)
   107ec:	00 00 00 00 
   107f0:	48 8d 85 20 ef ff ff 	lea    -0x10e0(%rbp),%rax
   107f7:	48 89 85 88 fd ff ff 	mov    %rax,-0x278(%rbp)
   107fe:	48 8d 85 70 ef ff ff 	lea    -0x1090(%rbp),%rax
   10805:	48 89 85 90 fd ff ff 	mov    %rax,-0x270(%rbp)
   1080c:	48 8d 85 20 ef ff ff 	lea    -0x10e0(%rbp),%rax
   10813:	48 89 85 98 fd ff ff 	mov    %rax,-0x268(%rbp)
   1081a:	48 8d 85 70 ef ff ff 	lea    -0x1090(%rbp),%rax
   10821:	48 89 85 a0 fd ff ff 	mov    %rax,-0x260(%rbp)
   10828:	48 8d 85 20 ef ff ff 	lea    -0x10e0(%rbp),%rax
   1082f:	48 89 85 a8 fd ff ff 	mov    %rax,-0x258(%rbp)
   10836:	48 8d 85 70 ef ff ff 	lea    -0x1090(%rbp),%rax
   1083d:	48 89 85 b0 fd ff ff 	mov    %rax,-0x250(%rbp)
   10844:	48 8d 85 20 ef ff ff 	lea    -0x10e0(%rbp),%rax
   1084b:	48 89 85 b8 fd ff ff 	mov    %rax,-0x248(%rbp)
   10852:	48 c7 85 c0 fd ff ff 	movq   $0x0,-0x240(%rbp)
   10859:	00 00 00 00 
   1085d:	48 8d 85 20 ef ff ff 	lea    -0x10e0(%rbp),%rax
   10864:	48 89 85 c8 fd ff ff 	mov    %rax,-0x238(%rbp)
   1086b:	48 8d 85 20 ef ff ff 	lea    -0x10e0(%rbp),%rax
   10872:	48 89 85 d0 fd ff ff 	mov    %rax,-0x230(%rbp)
   10879:	48 8d 85 20 ef ff ff 	lea    -0x10e0(%rbp),%rax
   10880:	48 89 85 d8 fd ff ff 	mov    %rax,-0x228(%rbp)
   10887:	48 c7 85 e0 fd ff ff 	movq   $0x0,-0x220(%rbp)
   1088e:	00 00 00 00 
   10892:	48 8d 85 20 ef ff ff 	lea    -0x10e0(%rbp),%rax
   10899:	48 89 85 e8 fd ff ff 	mov    %rax,-0x218(%rbp)
   108a0:	48 8d 85 70 ef ff ff 	lea    -0x1090(%rbp),%rax
   108a7:	48 89 85 f0 fd ff ff 	mov    %rax,-0x210(%rbp)
   108ae:	48 8d 85 20 ef ff ff 	lea    -0x10e0(%rbp),%rax
   108b5:	48 89 85 f8 fd ff ff 	mov    %rax,-0x208(%rbp)
   108bc:	48 8d 85 70 ef ff ff 	lea    -0x1090(%rbp),%rax
   108c3:	48 89 85 00 fe ff ff 	mov    %rax,-0x200(%rbp)
   108ca:	48 8d 85 20 ef ff ff 	lea    -0x10e0(%rbp),%rax
   108d1:	48 89 85 08 fe ff ff 	mov    %rax,-0x1f8(%rbp)
   108d8:	48 8d 85 70 ef ff ff 	lea    -0x1090(%rbp),%rax
   108df:	48 89 85 10 fe ff ff 	mov    %rax,-0x1f0(%rbp)
   108e6:	48 8d 85 20 ef ff ff 	lea    -0x10e0(%rbp),%rax
   108ed:	48 89 85 18 fe ff ff 	mov    %rax,-0x1e8(%rbp)
   108f4:	48 c7 85 20 fe ff ff 	movq   $0x0,-0x1e0(%rbp)
   108fb:	00 00 00 00 
   108ff:	48 8d 85 20 ef ff ff 	lea    -0x10e0(%rbp),%rax
   10906:	48 89 85 28 fe ff ff 	mov    %rax,-0x1d8(%rbp)
   1090d:	48 8d 85 20 ef ff ff 	lea    -0x10e0(%rbp),%rax
   10914:	48 89 85 30 fe ff ff 	mov    %rax,-0x1d0(%rbp)
   1091b:	48 8d 85 20 ef ff ff 	lea    -0x10e0(%rbp),%rax
   10922:	48 89 85 38 fe ff ff 	mov    %rax,-0x1c8(%rbp)
   10929:	48 c7 85 40 fe ff ff 	movq   $0x0,-0x1c0(%rbp)
   10930:	00 00 00 00 
   10934:	48 8d 85 20 ef ff ff 	lea    -0x10e0(%rbp),%rax
   1093b:	48 89 85 48 fe ff ff 	mov    %rax,-0x1b8(%rbp)
   10942:	48 8d 85 70 ef ff ff 	lea    -0x1090(%rbp),%rax
   10949:	48 89 85 50 fe ff ff 	mov    %rax,-0x1b0(%rbp)
   10950:	48 8d 85 20 ef ff ff 	lea    -0x10e0(%rbp),%rax
   10957:	48 89 85 58 fe ff ff 	mov    %rax,-0x1a8(%rbp)
   1095e:	48 8d 85 70 ef ff ff 	lea    -0x1090(%rbp),%rax
   10965:	48 89 85 60 fe ff ff 	mov    %rax,-0x1a0(%rbp)
   1096c:	48 8d 85 20 ef ff ff 	lea    -0x10e0(%rbp),%rax
   10973:	48 89 85 68 fe ff ff 	mov    %rax,-0x198(%rbp)
   1097a:	48 8d 85 70 ef ff ff 	lea    -0x1090(%rbp),%rax
   10981:	48 89 85 70 fe ff ff 	mov    %rax,-0x190(%rbp)
   10988:	48 8d 85 20 ef ff ff 	lea    -0x10e0(%rbp),%rax
   1098f:	48 89 85 78 fe ff ff 	mov    %rax,-0x188(%rbp)
   10996:	48 c7 85 80 fe ff ff 	movq   $0x0,-0x180(%rbp)
   1099d:	00 00 00 00 
   109a1:	48 8d 85 20 ef ff ff 	lea    -0x10e0(%rbp),%rax
   109a8:	48 89 85 88 fe ff ff 	mov    %rax,-0x178(%rbp)
   109af:	48 8d 85 20 ef ff ff 	lea    -0x10e0(%rbp),%rax
   109b6:	48 89 85 90 fe ff ff 	mov    %rax,-0x170(%rbp)
   109bd:	48 8d 85 20 ef ff ff 	lea    -0x10e0(%rbp),%rax
   109c4:	48 89 85 98 fe ff ff 	mov    %rax,-0x168(%rbp)
   109cb:	48 c7 85 a0 fe ff ff 	movq   $0x0,-0x160(%rbp)
   109d2:	00 00 00 00 
   109d6:	48 8d 85 20 ef ff ff 	lea    -0x10e0(%rbp),%rax
   109dd:	48 89 85 a8 fe ff ff 	mov    %rax,-0x158(%rbp)
   109e4:	48 8d 85 70 ef ff ff 	lea    -0x1090(%rbp),%rax
   109eb:	48 89 85 b0 fe ff ff 	mov    %rax,-0x150(%rbp)
   109f2:	48 8d 85 20 ef ff ff 	lea    -0x10e0(%rbp),%rax
   109f9:	48 89 85 b8 fe ff ff 	mov    %rax,-0x148(%rbp)
   10a00:	48 8d 85 70 ef ff ff 	lea    -0x1090(%rbp),%rax
   10a07:	48 89 85 c0 fe ff ff 	mov    %rax,-0x140(%rbp)
   10a0e:	48 8d 85 20 ef ff ff 	lea    -0x10e0(%rbp),%rax
   10a15:	48 89 85 c8 fe ff ff 	mov    %rax,-0x138(%rbp)
   10a1c:	48 8d 85 70 ef ff ff 	lea    -0x1090(%rbp),%rax
   10a23:	48 89 85 d0 fe ff ff 	mov    %rax,-0x130(%rbp)
   10a2a:	48 8d 85 20 ef ff ff 	lea    -0x10e0(%rbp),%rax
   10a31:	48 89 85 d8 fe ff ff 	mov    %rax,-0x128(%rbp)
   10a38:	48 c7 85 e0 fe ff ff 	movq   $0x0,-0x120(%rbp)
   10a3f:	00 00 00 00 
   10a43:	48 8d 85 20 ef ff ff 	lea    -0x10e0(%rbp),%rax
   10a4a:	48 89 85 e8 fe ff ff 	mov    %rax,-0x118(%rbp)
   10a51:	48 8d 85 20 ef ff ff 	lea    -0x10e0(%rbp),%rax
   10a58:	48 89 85 f0 fe ff ff 	mov    %rax,-0x110(%rbp)
   10a5f:	48 8d 85 20 ef ff ff 	lea    -0x10e0(%rbp),%rax
   10a66:	48 89 85 f8 fe ff ff 	mov    %rax,-0x108(%rbp)
   10a6d:	48 c7 85 00 ff ff ff 	movq   $0x0,-0x100(%rbp)
   10a74:	00 00 00 00 
   10a78:	48 8d 85 20 ef ff ff 	lea    -0x10e0(%rbp),%rax
   10a7f:	48 89 85 08 ff ff ff 	mov    %rax,-0xf8(%rbp)
   10a86:	48 8d 85 70 ef ff ff 	lea    -0x1090(%rbp),%rax
   10a8d:	48 89 85 10 ff ff ff 	mov    %rax,-0xf0(%rbp)
   10a94:	48 8d 85 20 ef ff ff 	lea    -0x10e0(%rbp),%rax
   10a9b:	48 89 85 18 ff ff ff 	mov    %rax,-0xe8(%rbp)
   10aa2:	48 8d 85 70 ef ff ff 	lea    -0x1090(%rbp),%rax
   10aa9:	48 89 85 20 ff ff ff 	mov    %rax,-0xe0(%rbp)
   10ab0:	48 8d 85 20 ef ff ff 	lea    -0x10e0(%rbp),%rax
   10ab7:	48 89 85 28 ff ff ff 	mov    %rax,-0xd8(%rbp)
   10abe:	48 8d 85 70 ef ff ff 	lea    -0x1090(%rbp),%rax
   10ac5:	48 89 85 30 ff ff ff 	mov    %rax,-0xd0(%rbp)
   10acc:	48 8d 85 20 ef ff ff 	lea    -0x10e0(%rbp),%rax
   10ad3:	48 89 85 38 ff ff ff 	mov    %rax,-0xc8(%rbp)
   10ada:	48 c7 85 40 ff ff ff 	movq   $0x0,-0xc0(%rbp)
   10ae1:	00 00 00 00 
   10ae5:	48 8d 85 20 ef ff ff 	lea    -0x10e0(%rbp),%rax
   10aec:	48 89 85 48 ff ff ff 	mov    %rax,-0xb8(%rbp)
   10af3:	48 8d 85 20 ef ff ff 	lea    -0x10e0(%rbp),%rax
   10afa:	48 89 85 50 ff ff ff 	mov    %rax,-0xb0(%rbp)
   10b01:	48 8d 85 20 ef ff ff 	lea    -0x10e0(%rbp),%rax
   10b08:	48 89 85 58 ff ff ff 	mov    %rax,-0xa8(%rbp)
   10b0f:	48 c7 85 60 ff ff ff 	movq   $0x0,-0xa0(%rbp)
   10b16:	00 00 00 00 
   10b1a:	48 8d 85 20 ef ff ff 	lea    -0x10e0(%rbp),%rax
   10b21:	48 89 85 68 ff ff ff 	mov    %rax,-0x98(%rbp)
   10b28:	48 8d 85 70 ef ff ff 	lea    -0x1090(%rbp),%rax
   10b2f:	48 89 85 70 ff ff ff 	mov    %rax,-0x90(%rbp)
   10b36:	48 8d 85 20 ef ff ff 	lea    -0x10e0(%rbp),%rax
   10b3d:	48 89 85 78 ff ff ff 	mov    %rax,-0x88(%rbp)
   10b44:	48 8d 85 70 ef ff ff 	lea    -0x1090(%rbp),%rax
   10b4b:	48 89 45 80          	mov    %rax,-0x80(%rbp)
   10b4f:	48 8d 85 20 ef ff ff 	lea    -0x10e0(%rbp),%rax
   10b56:	48 89 45 88          	mov    %rax,-0x78(%rbp)
   10b5a:	48 8d 85 70 ef ff ff 	lea    -0x1090(%rbp),%rax
   10b61:	48 89 45 90          	mov    %rax,-0x70(%rbp)
   10b65:	48 8d 85 20 ef ff ff 	lea    -0x10e0(%rbp),%rax
   10b6c:	48 89 45 98          	mov    %rax,-0x68(%rbp)
   10b70:	48 c7 45 a0 00 00 00 	movq   $0x0,-0x60(%rbp)
   10b77:	00 
   10b78:	48 8d 85 20 ef ff ff 	lea    -0x10e0(%rbp),%rax
   10b7f:	48 89 45 a8          	mov    %rax,-0x58(%rbp)
   10b83:	48 8d 85 20 ef ff ff 	lea    -0x10e0(%rbp),%rax
   10b8a:	48 89 45 b0          	mov    %rax,-0x50(%rbp)
   10b8e:	48 8d 85 20 ef ff ff 	lea    -0x10e0(%rbp),%rax
   10b95:	48 89 45 b8          	mov    %rax,-0x48(%rbp)
   10b99:	0f b6 9d dc ed ff ff 	movzbl -0x1224(%rbp),%ebx
   10ba0:	48 8b 85 d0 ed ff ff 	mov    -0x1230(%rbp),%rax
   10ba7:	89 c2                	mov    %eax,%edx
   10ba9:	8b 85 cc ed ff ff    	mov    -0x1234(%rbp),%eax
   10baf:	3d 5a 22 00 00       	cmp    $0x225a,%eax
   10bb4:	0f 94 c0             	sete   %al
   10bb7:	0f b6 c0             	movzbl %al,%eax
   10bba:	31 85 bc ee ff ff    	xor    %eax,-0x1144(%rbp)
   10bc0:	89 d6                	mov    %edx,%esi
   10bc2:	bf c8 f2 01 8b       	mov    $0x8b01f2c8,%edi
   10bc7:	e8 ec 62 ff ff       	callq  6eb8 <safe_add_func_uint32_t_u_u>
   10bcc:	89 c1                	mov    %eax,%ecx
   10bce:	48 8b 05 8b 0a 01 00 	mov    0x10a8b(%rip),%rax        # 21660 <g_1478>
   10bd5:	48 8b 95 60 ef ff ff 	mov    -0x10a0(%rbp),%rdx
   10bdc:	48 8b 85 f0 f0 ff ff 	mov    -0xf10(%rbp),%rax
   10be3:	48 89 10             	mov    %rdx,(%rax)
   10be6:	48 8b 85 f0 f0 ff ff 	mov    -0xf10(%rbp),%rax
   10bed:	48 8b 10             	mov    (%rax),%rdx
   10bf0:	48 8b 85 f8 f0 ff ff 	mov    -0xf08(%rbp),%rax
   10bf7:	48 89 10             	mov    %rdx,(%rax)
   10bfa:	48 8b 85 f8 f0 ff ff 	mov    -0xf08(%rbp),%rax
   10c01:	48 8b 00             	mov    (%rax),%rax
   10c04:	48 39 85 e8 f0 ff ff 	cmp    %rax,-0xf18(%rbp)
   10c0b:	0f 94 c0             	sete   %al
   10c0e:	0f b6 c0             	movzbl %al,%eax
   10c11:	48 89 ce             	mov    %rcx,%rsi
   10c14:	48 89 c7             	mov    %rax,%rdi
   10c17:	e8 64 64 ff ff       	callq  7080 <safe_mod_func_uint64_t_u_u>
   10c1c:	8b 85 c0 ee ff ff    	mov    -0x1140(%rbp),%eax
   10c22:	98                   	cwtl   
   10c23:	89 de                	mov    %ebx,%esi
   10c25:	89 c7                	mov    %eax,%edi
   10c27:	e8 fe 58 ff ff       	callq  652a <safe_rshift_func_int16_t_s_s>
   10c2c:	66 3d a3 40          	cmp    $0x40a3,%ax
   10c30:	0f 9f c0             	setg   %al
   10c33:	0f b6 c8             	movzbl %al,%ecx
   10c36:	48 8b 05 6b f3 00 00 	mov    0xf36b(%rip),%rax        # 1ffa8 <g_63>
   10c3d:	8b 10                	mov    (%rax),%edx
   10c3f:	48 8b 05 62 f3 00 00 	mov    0xf362(%rip),%rax        # 1ffa8 <g_63>
   10c46:	09 ca                	or     %ecx,%edx
   10c48:	89 10                	mov    %edx,(%rax)
   10c4a:	48 8b 85 00 f1 ff ff 	mov    -0xf00(%rbp),%rax
   10c51:	48 8d 95 80 f1 ff ff 	lea    -0xe80(%rbp),%rdx
   10c58:	48 83 c2 08          	add    $0x8,%rdx
   10c5c:	48 89 10             	mov    %rdx,(%rax)
   10c5f:	48 8b 85 70 ef ff ff 	mov    -0x1090(%rbp),%rax
   10c66:	48 89 85 c0 f0 ff ff 	mov    %rax,-0xf40(%rbp)
   10c6d:	48 83 bd c0 f0 ff ff 	cmpq   $0x0,-0xf40(%rbp)
   10c74:	00 
   10c75:	8b 85 cc ed ff ff    	mov    -0x1234(%rbp),%eax
   10c7b:	0f bf d0             	movswl %ax,%edx
   10c7e:	0f bf 85 d8 ed ff ff 	movswl -0x1228(%rbp),%eax
   10c85:	89 d6                	mov    %edx,%esi
   10c87:	89 c7                	mov    %eax,%edi
   10c89:	e8 67 57 ff ff       	callq  63f5 <safe_mul_func_int16_t_s_s>
   10c8e:	48 8b 05 33 cf 00 00 	mov    0xcf33(%rip),%rax        # 1dbc8 <g_1505>
   10c95:	be 03 00 00 00       	mov    $0x3,%esi
   10c9a:	bf bd ff ff ff       	mov    $0xffffffbd,%edi
   10c9f:	e8 4a 56 ff ff       	callq  62ee <safe_lshift_func_int8_t_s_u>
   10ca4:	0f be d0             	movsbl %al,%edx
   10ca7:	0f bf 85 d8 ed ff ff 	movswl -0x1228(%rbp),%eax
   10cae:	89 d6                	mov    %edx,%esi
   10cb0:	89 c7                	mov    %eax,%edi
   10cb2:	e8 48 5a ff ff       	callq  66ff <safe_div_func_int32_t_s_s>
   10cb7:	98                   	cwtl   
   10cb8:	be 03 00 00 00       	mov    $0x3,%esi
   10cbd:	89 c7                	mov    %eax,%edi
   10cbf:	e8 9f 58 ff ff       	callq  6563 <safe_rshift_func_int16_t_s_u>
   10cc4:	48 8d 85 04 ee ff ff 	lea    -0x11fc(%rbp),%rax
   10ccb:	48 89 85 20 f2 ff ff 	mov    %rax,-0xde0(%rbp)
   10cd2:	48 8b 85 20 f2 ff ff 	mov    -0xde0(%rbp),%rax
   10cd9:	48 89 85 78 ef ff ff 	mov    %rax,-0x1088(%rbp)
   10ce0:	83 bd b8 ee ff ff 00 	cmpl   $0x0,-0x1148(%rbp)
   10ce7:	0f 84 2e 01 00 00    	je     10e1b <func_33+0x2bdb>
   10ced:	0f b6 05 d8 cc 00 00 	movzbl 0xccd8(%rip),%eax        # 1d9cc <g_307>
   10cf4:	0f b6 d8             	movzbl %al,%ebx
   10cf7:	0f b7 85 d8 ed ff ff 	movzwl -0x1228(%rbp),%eax
   10cfe:	44 0f b6 e0          	movzbl %al,%r12d
   10d02:	48 8b 85 80 ef ff ff 	mov    -0x1080(%rbp),%rax
   10d09:	48 8d 15 d0 f2 00 00 	lea    0xf2d0(%rip),%rdx        # 1ffe0 <g_130>
   10d10:	48 89 10             	mov    %rdx,(%rax)
   10d13:	0f b6 05 b8 ce 00 00 	movzbl 0xceb8(%rip),%eax        # 1dbd2 <g_1521+0x2>
   10d1a:	44 0f b6 e8          	movzbl %al,%r13d
   10d1e:	66 c7 05 fd cc 00 00 	movw   $0xfffc,0xccfd(%rip)        # 1da24 <g_521>
   10d25:	fc ff 
   10d27:	b9 00 00 00 00       	mov    $0x0,%ecx
   10d2c:	48 8b 85 d0 f0 ff ff 	mov    -0xf30(%rbp),%rax
   10d33:	0f b6 00             	movzbl (%rax),%eax
   10d36:	89 c2                	mov    %eax,%edx
   10d38:	89 c8                	mov    %ecx,%eax
   10d3a:	09 d0                	or     %edx,%eax
   10d3c:	89 c2                	mov    %eax,%edx
   10d3e:	48 8b 85 d0 f0 ff ff 	mov    -0xf30(%rbp),%rax
   10d45:	88 10                	mov    %dl,(%rax)
   10d47:	48 8b 85 d0 f0 ff ff 	mov    -0xf30(%rbp),%rax
   10d4e:	0f b6 00             	movzbl (%rax),%eax
   10d51:	0f b6 d0             	movzbl %al,%edx
   10d54:	0f b7 85 d8 ed ff ff 	movzwl -0x1228(%rbp),%eax
   10d5b:	0f b6 c0             	movzbl %al,%eax
   10d5e:	89 d6                	mov    %edx,%esi
   10d60:	89 c7                	mov    %eax,%edi
   10d62:	e8 57 5f ff ff       	callq  6cbe <safe_rshift_func_uint8_t_u_u>
   10d67:	84 c0                	test   %al,%al
   10d69:	74 11                	je     10d7c <func_33+0x2b3c>
   10d6b:	48 8b 05 06 cd 00 00 	mov    0xcd06(%rip),%rax        # 1da78 <g_727+0x8>
   10d72:	48 c1 e0 0e          	shl    $0xe,%rax
   10d76:	48 c1 f8 2e          	sar    $0x2e,%rax
   10d7a:	85 c0                	test   %eax,%eax
   10d7c:	be 00 00 00 00       	mov    $0x0,%esi
   10d81:	bf 00 00 00 00       	mov    $0x0,%edi
   10d86:	e8 ef 60 ff ff       	callq  6e7a <safe_rshift_func_uint16_t_u_u>
   10d8b:	48 8b 85 b8 ef ff ff 	mov    -0x1048(%rbp),%rax
   10d92:	c7 00 01 00 00 00    	movl   $0x1,(%rax)
   10d98:	48 8b 85 b8 ef ff ff 	mov    -0x1048(%rbp),%rax
   10d9f:	8b 10                	mov    (%rax),%edx
   10da1:	48 8b 85 78 ef ff ff 	mov    -0x1088(%rbp),%rax
   10da8:	89 10                	mov    %edx,(%rax)
   10daa:	48 8b 85 78 ef ff ff 	mov    -0x1088(%rbp),%rax
   10db1:	8b 00                	mov    (%rax),%eax
   10db3:	44 89 ee             	mov    %r13d,%esi
   10db6:	89 c7                	mov    %eax,%edi
   10db8:	e8 42 59 ff ff       	callq  66ff <safe_div_func_int32_t_s_s>
   10dbd:	48 98                	cltq   
   10dbf:	48 89 c6             	mov    %rax,%rsi
   10dc2:	48 bf ed 32 d8 e5 2c 	movabs $0x90146e2ce5d832ed,%rdi
   10dc9:	6e 14 90 
   10dcc:	e8 d7 5a ff ff       	callq  68a8 <safe_sub_func_int64_t_s_s>
   10dd1:	44 89 e6             	mov    %r12d,%esi
   10dd4:	bf 00 00 00 00       	mov    $0x0,%edi
   10dd9:	e8 fd 5d ff ff       	callq  6bdb <safe_div_func_uint8_t_u_u>
   10dde:	89 c2                	mov    %eax,%edx
   10de0:	48 8b 85 18 ef ff ff 	mov    -0x10e8(%rbp),%rax
   10de7:	48 8b 00             	mov    (%rax),%rax
   10dea:	48 8b 00             	mov    (%rax),%rax
   10ded:	0f b6 d2             	movzbl %dl,%edx
   10df0:	66 89 10             	mov    %dx,(%rax)
   10df3:	0f b7 00             	movzwl (%rax),%eax
   10df6:	66 23 85 d8 ed ff ff 	and    -0x1228(%rbp),%ax
   10dfd:	66 39 85 d8 ed ff ff 	cmp    %ax,-0x1228(%rbp)
   10e04:	0f 9e c0             	setle  %al
   10e07:	0f b6 d0             	movzbl %al,%edx
   10e0a:	8b 05 e8 c8 00 00    	mov    0xc8e8(%rip),%eax        # 1d6f8 <g_212+0x178>
   10e10:	09 d0                	or     %edx,%eax
   10e12:	89 de                	mov    %ebx,%esi
   10e14:	89 c7                	mov    %eax,%edi
   10e16:	e8 0a 61 ff ff       	callq  6f25 <safe_div_func_uint32_t_u_u>
   10e1b:	48 8b 85 50 f3 ff ff 	mov    -0xcb0(%rbp),%rax
   10e22:	48 8d 15 5f cc 00 00 	lea    0xcc5f(%rip),%rdx        # 1da88 <g_735>
   10e29:	48 89 95 d8 ef ff ff 	mov    %rdx,-0x1028(%rbp)
   10e30:	48 39 85 d8 ef ff ff 	cmp    %rax,-0x1028(%rbp)
   10e37:	0f 94 c0             	sete   %al
   10e3a:	0f b6 d0             	movzbl %al,%edx
   10e3d:	48 8b 85 c0 ef ff ff 	mov    -0x1040(%rbp),%rax
   10e44:	89 10                	mov    %edx,(%rax)
   10e46:	c7 05 a4 cb 00 00 00 	movl   $0x0,0xcba4(%rip)        # 1d9f4 <g_436>
   10e4d:	00 00 00 
   10e50:	eb 23                	jmp    10e75 <func_33+0x2c35>
   10e52:	8b 05 9c cb 00 00    	mov    0xcb9c(%rip),%eax        # 1d9f4 <g_436>
   10e58:	89 c0                	mov    %eax,%eax
   10e5a:	48 c7 84 c5 80 f1 ff 	movq   $0x0,-0xe80(%rbp,%rax,8)
   10e61:	ff 00 00 00 00 
   10e66:	8b 05 88 cb 00 00    	mov    0xcb88(%rip),%eax        # 1d9f4 <g_436>
   10e6c:	83 c0 01             	add    $0x1,%eax
   10e6f:	89 05 7f cb 00 00    	mov    %eax,0xcb7f(%rip)        # 1d9f4 <g_436>
   10e75:	8b 05 79 cb 00 00    	mov    0xcb79(%rip),%eax        # 1d9f4 <g_436>
   10e7b:	83 f8 02             	cmp    $0x2,%eax
   10e7e:	76 d2                	jbe    10e52 <func_33+0x2c12>
   10e80:	66 83 bd d8 ed ff ff 	cmpw   $0x0,-0x1228(%rbp)
   10e87:	00 
   10e88:	0f 85 0f 01 00 00    	jne    10f9d <func_33+0x2d5d>
   10e8e:	0f b6 9d dc ed ff ff 	movzbl -0x1224(%rbp),%ebx
   10e95:	0f b6 95 dc ed ff ff 	movzbl -0x1224(%rbp),%edx
   10e9c:	0f b6 85 dc ed ff ff 	movzbl -0x1224(%rbp),%eax
   10ea3:	48 89 05 e6 ca 00 00 	mov    %rax,0xcae6(%rip)        # 1d990 <g_213+0x10>
   10eaa:	48 8b 05 df ca 00 00 	mov    0xcadf(%rip),%rax        # 1d990 <g_213+0x10>
   10eb1:	48 89 d6             	mov    %rdx,%rsi
   10eb4:	48 89 c7             	mov    %rax,%rdi
   10eb7:	e8 72 61 ff ff       	callq  702e <safe_add_func_uint64_t_u_u>
   10ebc:	48 8b 15 75 f2 00 00 	mov    0xf275(%rip),%rdx        # 20138 <g_1552>
   10ec3:	48 8b 05 86 f2 00 00 	mov    0xf286(%rip),%rax        # 20150 <g_1556>
   10eca:	48 39 c2             	cmp    %rax,%rdx
   10ecd:	0f 95 c0             	setne  %al
   10ed0:	0f b6 d0             	movzbl %al,%edx
   10ed3:	0f bf 85 d8 ed ff ff 	movswl -0x1228(%rbp),%eax
   10eda:	21 d0                	and    %edx,%eax
   10edc:	89 de                	mov    %ebx,%esi
   10ede:	89 c7                	mov    %eax,%edi
   10ee0:	e8 40 60 ff ff       	callq  6f25 <safe_div_func_uint32_t_u_u>
   10ee5:	89 c2                	mov    %eax,%edx
   10ee7:	48 8b 85 b0 ef ff ff 	mov    -0x1050(%rbp),%rax
   10eee:	48 8b 00             	mov    (%rax),%rax
   10ef1:	48 8d 48 ff          	lea    -0x1(%rax),%rcx
   10ef5:	48 8b 85 b0 ef ff ff 	mov    -0x1050(%rbp),%rax
   10efc:	48 89 08             	mov    %rcx,(%rax)
   10eff:	48 8b 85 b0 ef ff ff 	mov    -0x1050(%rbp),%rax
   10f06:	48 8b 08             	mov    (%rax),%rcx
   10f09:	48 8b 85 e0 f0 ff ff 	mov    -0xf20(%rbp),%rax
   10f10:	48 8b 00             	mov    (%rax),%rax
   10f13:	48 09 c1             	or     %rax,%rcx
   10f16:	48 8b 85 e0 f0 ff ff 	mov    -0xf20(%rbp),%rax
   10f1d:	48 89 08             	mov    %rcx,(%rax)
   10f20:	48 8b 85 e0 f0 ff ff 	mov    -0xf20(%rbp),%rax
   10f27:	48 8b 08             	mov    (%rax),%rcx
   10f2a:	48 0f bf 85 d8 ed ff 	movswq -0x1228(%rbp),%rax
   10f31:	ff 
   10f32:	48 21 c1             	and    %rax,%rcx
   10f35:	48 0f bf 85 d8 ed ff 	movswq -0x1228(%rbp),%rax
   10f3c:	ff 
   10f3d:	48 39 c1             	cmp    %rax,%rcx
   10f40:	0f 97 c0             	seta   %al
   10f43:	0f b6 c0             	movzbl %al,%eax
   10f46:	89 c1                	mov    %eax,%ecx
   10f48:	8b 85 cc ed ff ff    	mov    -0x1234(%rbp),%eax
   10f4e:	09 c8                	or     %ecx,%eax
   10f50:	89 85 cc ed ff ff    	mov    %eax,-0x1234(%rbp)
   10f56:	8b 85 cc ed ff ff    	mov    -0x1234(%rbp),%eax
   10f5c:	89 d6                	mov    %edx,%esi
   10f5e:	89 c7                	mov    %eax,%edi
   10f60:	e8 6b 5f ff ff       	callq  6ed0 <safe_sub_func_uint32_t_u_u>
   10f65:	48 8b 95 90 f2 ff ff 	mov    -0xd70(%rbp),%rdx
   10f6c:	48 8d 85 38 ef ff ff 	lea    -0x10c8(%rbp),%rax
   10f73:	48 39 c2             	cmp    %rax,%rdx
   10f76:	0f 95 c0             	setne  %al
   10f79:	0f b6 d0             	movzbl %al,%edx
   10f7c:	48 8b 85 78 ef ff ff 	mov    -0x1088(%rbp),%rax
   10f83:	89 10                	mov    %edx,(%rax)
   10f85:	48 8b 85 78 ef ff ff 	mov    -0x1088(%rbp),%rax
   10f8c:	8b 00                	mov    (%rax),%eax
   10f8e:	89 85 bc ee ff ff    	mov    %eax,-0x1144(%rbp)
   10f94:	83 bd bc ee ff ff 00 	cmpl   $0x0,-0x1144(%rbp)
   10f9b:	74 55                	je     10ff2 <func_33+0x2db2>
   10f9d:	8b 05 c1 c5 00 00    	mov    0xc5c1(%rip),%eax        # 1d564 <g_114>
   10fa3:	0f b6 c0             	movzbl %al,%eax
   10fa6:	be 87 00 00 00       	mov    $0x87,%esi
   10fab:	89 c7                	mov    %eax,%edi
   10fad:	e8 a8 5b ff ff       	callq  6b5a <safe_add_func_uint8_t_u_u>
   10fb2:	0f b6 d0             	movzbl %al,%edx
   10fb5:	48 83 bd d0 ed ff ff 	cmpq   $0x5,-0x1230(%rbp)
   10fbc:	05 
   10fbd:	0f 96 c0             	setbe  %al
   10fc0:	0f b6 c0             	movzbl %al,%eax
   10fc3:	48 89 d6             	mov    %rdx,%rsi
   10fc6:	48 89 c7             	mov    %rax,%rdi
   10fc9:	e8 b2 60 ff ff       	callq  7080 <safe_mod_func_uint64_t_u_u>
   10fce:	ba 00 00 00 00       	mov    $0x0,%edx
   10fd3:	48 8b 85 c0 ef ff ff 	mov    -0x1040(%rbp),%rax
   10fda:	8b 00                	mov    (%rax),%eax
   10fdc:	21 c2                	and    %eax,%edx
   10fde:	48 8b 85 c0 ef ff ff 	mov    -0x1040(%rbp),%rax
   10fe5:	89 10                	mov    %edx,(%rax)
   10fe7:	8b 85 c0 ee ff ff    	mov    -0x1140(%rbp),%eax
   10fed:	e9 49 01 00 00       	jmpq   1113b <func_33+0x2efb>
   10ff2:	48 8b 05 b7 ef 00 00 	mov    0xefb7(%rip),%rax        # 1ffb0 <g_113>
   10ff9:	8b 00                	mov    (%rax),%eax
   10ffb:	85 c0                	test   %eax,%eax
   10ffd:	0f 85 e5 00 00 00    	jne    110e8 <func_33+0x2ea8>
   11003:	8b 85 cc ed ff ff    	mov    -0x1234(%rbp),%eax
   11009:	85 c0                	test   %eax,%eax
   1100b:	0f 85 af 00 00 00    	jne    110c0 <func_33+0x2e80>
   11011:	66 83 85 ee ed ff ff 	addw   $0x1,-0x1212(%rbp)
   11018:	01 
   11019:	eb 7b                	jmp    11096 <func_33+0x2e56>
   1101b:	66 c7 85 f2 ed ff ff 	movw   $0x4,-0x120e(%rbp)
   11022:	04 00 
   11024:	48 c7 85 c8 f0 ff ff 	movq   $0x0,-0xf38(%rbp)
   1102b:	00 00 00 00 
   1102f:	c7 85 b4 ee ff ff 01 	movl   $0x1,-0x114c(%rbp)
   11036:	00 00 00 
   11039:	48 8b 85 38 ef ff ff 	mov    -0x10c8(%rbp),%rax
   11040:	48 c7 00 00 00 00 00 	movq   $0x0,(%rax)
   11047:	0f b7 05 62 cb 00 00 	movzwl 0xcb62(%rip),%eax        # 1dbb0 <g_1496>
   1104e:	c1 e0 04             	shl    $0x4,%eax
   11051:	66 c1 f8 04          	sar    $0x4,%ax
   11055:	98                   	cwtl   
   11056:	89 c6                	mov    %eax,%esi
   11058:	bf 00 00 00 00       	mov    $0x0,%edi
   1105d:	e8 56 5e ff ff       	callq  6eb8 <safe_add_func_uint32_t_u_u>
   11062:	8b 95 cc ed ff ff    	mov    -0x1234(%rbp),%edx
   11068:	39 d0                	cmp    %edx,%eax
   1106a:	0f 96 c0             	setbe  %al
   1106d:	0f b6 c0             	movzbl %al,%eax
   11070:	89 85 b4 ee ff ff    	mov    %eax,-0x114c(%rbp)
   11076:	80 bd dc ed ff ff 00 	cmpb   $0x0,-0x1224(%rbp)
   1107d:	75 6c                	jne    110eb <func_33+0x2eab>
   1107f:	48 8b 05 52 ef 00 00 	mov    0xef52(%rip),%rax        # 1ffd8 <g_110>
   11086:	48 8b 00             	mov    (%rax),%rax
   11089:	48 8b 00             	mov    (%rax),%rax
   1108c:	48 8b 00             	mov    (%rax),%rax
   1108f:	8b 10                	mov    (%rax),%edx
   11091:	83 ca fc             	or     $0xfffffffc,%edx
   11094:	89 10                	mov    %edx,(%rax)
   11096:	48 8b 05 3b ef 00 00 	mov    0xef3b(%rip),%rax        # 1ffd8 <g_110>
   1109d:	48 8b 00             	mov    (%rax),%rax
   110a0:	48 8b 00             	mov    (%rax),%rax
   110a3:	48 8b 00             	mov    (%rax),%rax
   110a6:	0f b6 95 dc ed ff ff 	movzbl -0x1224(%rbp),%edx
   110ad:	89 10                	mov    %edx,(%rax)
   110af:	8b 05 0b ce 00 00    	mov    0xce0b(%rip),%eax        # 1dec0 <g_1601>
   110b5:	83 e8 01             	sub    $0x1,%eax
   110b8:	89 05 02 ce 00 00    	mov    %eax,0xce02(%rip)        # 1dec0 <g_1601>
   110be:	eb 01                	jmp    110c1 <func_33+0x2e81>
   110c0:	90                   	nop
   110c1:	8b 85 24 ee ff ff    	mov    -0x11dc(%rbp),%eax
   110c7:	be 06 00 00 00       	mov    $0x6,%esi
   110cc:	89 c7                	mov    %eax,%edi
   110ce:	e8 fd 5d ff ff       	callq  6ed0 <safe_sub_func_uint32_t_u_u>
   110d3:	89 85 24 ee ff ff    	mov    %eax,-0x11dc(%rbp)
   110d9:	83 bd 24 ee ff ff 00 	cmpl   $0x0,-0x11dc(%rbp)
   110e0:	0f 84 78 e9 ff ff    	je     fa5e <func_33+0x181e>
   110e6:	eb 04                	jmp    110ec <func_33+0x2eac>
   110e8:	90                   	nop
   110e9:	eb 01                	jmp    110ec <func_33+0x2eac>
   110eb:	90                   	nop
   110ec:	8b 85 f4 ed ff ff    	mov    -0x120c(%rbp),%eax
   110f2:	48 98                	cltq   
   110f4:	be 06 00 00 00       	mov    $0x6,%esi
   110f9:	48 89 c7             	mov    %rax,%rdi
   110fc:	e8 40 57 ff ff       	callq  6841 <safe_add_func_int64_t_s_s>
   11101:	89 85 f4 ed ff ff    	mov    %eax,-0x120c(%rbp)
   11107:	8b 85 f4 ed ff ff    	mov    -0x120c(%rbp),%eax
   1110d:	83 f8 12             	cmp    $0x12,%eax
   11110:	0f 8e 5b da ff ff    	jle    eb71 <func_33+0x931>
   11116:	48 8b 85 b8 ef ff ff 	mov    -0x1048(%rbp),%rax
   1111d:	8b 00                	mov    (%rax),%eax
   1111f:	89 c2                	mov    %eax,%edx
   11121:	48 8b 85 d0 ed ff ff 	mov    -0x1230(%rbp),%rax
   11128:	31 d0                	xor    %edx,%eax
   1112a:	89 c2                	mov    %eax,%edx
   1112c:	48 8b 85 b8 ef ff ff 	mov    -0x1048(%rbp),%rax
   11133:	89 10                	mov    %edx,(%rax)
   11135:	8b 05 a5 04 01 00    	mov    0x104a5(%rip),%eax        # 215e0 <g_302>
   1113b:	48 8b 5d c8          	mov    -0x38(%rbp),%rbx
   1113f:	64 48 33 1c 25 28 00 	xor    %fs:0x28,%rbx
   11146:	00 00 
   11148:	74 05                	je     1114f <func_33+0x2f0f>
   1114a:	e8 21 4f ff ff       	callq  6070 <__stack_chk_fail@plt>
   1114f:	48 81 c4 18 12 00 00 	add    $0x1218,%rsp
   11156:	5b                   	pop    %rbx
   11157:	41 5c                	pop    %r12
   11159:	41 5d                	pop    %r13
   1115b:	41 5e                	pop    %r14
   1115d:	41 5f                	pop    %r15
   1115f:	5d                   	pop    %rbp
   11160:	c3                   	retq   

0000000000011161 <func_48>:
   11161:	f3 0f 1e fa          	endbr64 
   11165:	55                   	push   %rbp
   11166:	48 89 e5             	mov    %rsp,%rbp
   11169:	41 57                	push   %r15
   1116b:	41 56                	push   %r14
   1116d:	41 55                	push   %r13
   1116f:	41 54                	push   %r12
   11171:	53                   	push   %rbx
   11172:	48 81 ec 18 0b 00 00 	sub    $0xb18,%rsp
   11179:	89 bd ec f4 ff ff    	mov    %edi,-0xb14(%rbp)
   1117f:	48 89 b5 e0 f4 ff ff 	mov    %rsi,-0xb20(%rbp)
   11186:	48 89 95 d8 f4 ff ff 	mov    %rdx,-0xb28(%rbp)
   1118d:	89 c8                	mov    %ecx,%eax
   1118f:	44 89 c2             	mov    %r8d,%edx
   11192:	88 85 e8 f4 ff ff    	mov    %al,-0xb18(%rbp)
   11198:	89 d0                	mov    %edx,%eax
   1119a:	88 85 d4 f4 ff ff    	mov    %al,-0xb2c(%rbp)
   111a0:	64 48 8b 04 25 28 00 	mov    %fs:0x28,%rax
   111a7:	00 00 
   111a9:	48 89 45 c8          	mov    %rax,-0x38(%rbp)
   111ad:	31 c0                	xor    %eax,%eax
   111af:	c7 85 fc f4 ff ff 06 	movl   $0x6,-0xb04(%rbp)
   111b6:	00 00 00 
   111b9:	48 c7 85 b0 f5 ff ff 	movq   $0x0,-0xa50(%rbp)
   111c0:	00 00 00 00 
   111c4:	48 c7 85 80 f5 ff ff 	movq   $0x0,-0xa80(%rbp)
   111cb:	00 00 00 00 
   111cf:	48 8d 05 f2 03 01 00 	lea    0x103f2(%rip),%rax        # 215c8 <g_85>
   111d6:	48 89 85 88 f5 ff ff 	mov    %rax,-0xa78(%rbp)
   111dd:	c7 85 24 f5 ff ff f5 	movl   $0xe8ab8ef5,-0xadc(%rbp)
   111e4:	8e ab e8 
   111e7:	c7 85 28 f5 ff ff 5e 	movl   $0x13df475e,-0xad8(%rbp)
   111ee:	47 df 13 
   111f1:	48 b8 e7 a0 a3 f3 b7 	movabs $0xe2fddbb7f3a3a0e7,%rax
   111f8:	db fd e2 
   111fb:	48 89 85 b8 f5 ff ff 	mov    %rax,-0xa48(%rbp)
   11202:	48 c7 85 c0 f5 ff ff 	movq   $0x0,-0xa40(%rbp)
   11209:	00 00 00 00 
   1120d:	48 8d 85 70 f9 ff ff 	lea    -0x690(%rbp),%rax
   11214:	48 8d 15 65 7e 00 00 	lea    0x7e65(%rip),%rdx        # 19080 <g_1879+0x1000>
   1121b:	b9 5a 00 00 00       	mov    $0x5a,%ecx
   11220:	48 89 c7             	mov    %rax,%rdi
   11223:	48 89 d6             	mov    %rdx,%rsi
   11226:	f3 48 a5             	rep movsq %ds:(%rsi),%es:(%rdi)
   11229:	c7 85 10 f5 ff ff bf 	movl   $0x2af219bf,-0xaf0(%rbp)
   11230:	19 f2 2a 
   11233:	c7 85 00 f5 ff ff 06 	movl   $0x6,-0xb00(%rbp)
   1123a:	00 00 00 
   1123d:	c7 85 2c f5 ff ff 08 	movl   $0x8,-0xad4(%rbp)
   11244:	00 00 00 
   11247:	c7 85 30 f5 ff ff c0 	movl   $0x821b6ac0,-0xad0(%rbp)
   1124e:	6a 1b 82 
   11251:	c7 85 34 f5 ff ff fa 	movl   $0xfffffffa,-0xacc(%rbp)
   11258:	ff ff ff 
   1125b:	c7 85 38 f5 ff ff 00 	movl   $0x0,-0xac8(%rbp)
   11262:	00 00 00 
   11265:	c7 85 3c f5 ff ff 01 	movl   $0x1,-0xac4(%rbp)
   1126c:	00 00 00 
   1126f:	c7 85 40 f5 ff ff 01 	movl   $0x1,-0xac0(%rbp)
   11276:	00 00 00 
   11279:	c7 85 44 f5 ff ff d8 	movl   $0x6b6464d8,-0xabc(%rbp)
   11280:	64 64 6b 
   11283:	c7 85 48 f5 ff ff 01 	movl   $0x1,-0xab8(%rbp)
   1128a:	00 00 00 
   1128d:	c7 85 c0 f6 ff ff 01 	movl   $0x1,-0x940(%rbp)
   11294:	00 00 00 
   11297:	c7 85 c4 f6 ff ff 01 	movl   $0x1,-0x93c(%rbp)
   1129e:	00 00 00 
   112a1:	c7 85 c8 f6 ff ff 01 	movl   $0x1,-0x938(%rbp)
   112a8:	00 00 00 
   112ab:	c7 85 cc f6 ff ff 01 	movl   $0x1,-0x934(%rbp)
   112b2:	00 00 00 
   112b5:	c7 85 d0 f6 ff ff 01 	movl   $0x1,-0x930(%rbp)
   112bc:	00 00 00 
   112bf:	c7 85 d4 f6 ff ff 01 	movl   $0x1,-0x92c(%rbp)
   112c6:	00 00 00 
   112c9:	c7 85 d8 f6 ff ff 01 	movl   $0x1,-0x928(%rbp)
   112d0:	00 00 00 
   112d3:	c7 85 dc f6 ff ff 01 	movl   $0x1,-0x924(%rbp)
   112da:	00 00 00 
   112dd:	c7 85 4c f5 ff ff 01 	movl   $0x1,-0xab4(%rbp)
   112e4:	00 00 00 
   112e7:	48 c7 85 c8 f5 ff ff 	movq   $0x0,-0xa38(%rbp)
   112ee:	00 00 00 00 
   112f2:	66 c7 85 a4 f6 ff ff 	movw   $0xf423,-0x95c(%rbp)
   112f9:	23 f4 
   112fb:	66 c7 85 a6 f6 ff ff 	movw   $0xf423,-0x95a(%rbp)
   11302:	23 f4 
   11304:	66 c7 85 a8 f6 ff ff 	movw   $0x1,-0x958(%rbp)
   1130b:	01 00 
   1130d:	66 c7 85 aa f6 ff ff 	movw   $0xf423,-0x956(%rbp)
   11314:	23 f4 
   11316:	66 c7 85 ac f6 ff ff 	movw   $0xf423,-0x954(%rbp)
   1131d:	23 f4 
   1131f:	66 c7 85 ae f6 ff ff 	movw   $0x1,-0x952(%rbp)
   11326:	01 00 
   11328:	48 8d 05 79 ec 00 00 	lea    0xec79(%rip),%rax        # 1ffa8 <g_63>
   1132f:	48 89 85 d0 f5 ff ff 	mov    %rax,-0xa30(%rbp)
   11336:	8b 85 fc f4 ff ff    	mov    -0xb04(%rbp),%eax
   1133c:	98                   	cwtl   
   1133d:	be 01 00 00 00       	mov    $0x1,%esi
   11342:	89 c7                	mov    %eax,%edi
   11344:	e8 49 51 ff ff       	callq  6492 <safe_lshift_func_int16_t_s_s>
   11349:	98                   	cwtl   
   1134a:	89 85 d0 f4 ff ff    	mov    %eax,-0xb30(%rbp)
   11350:	0f b6 9d e8 f4 ff ff 	movzbl -0xb18(%rbp),%ebx
   11357:	4c 0f be a5 d4 f4 ff 	movsbq -0xb2c(%rbp),%r12
   1135e:	ff 
   1135f:	8b 85 fc f4 ff ff    	mov    -0xb04(%rbp),%eax
   11365:	44 0f b7 e8          	movzwl %ax,%r13d
   11369:	44 0f b6 b5 e8 f4 ff 	movzbl -0xb18(%rbp),%r14d
   11370:	ff 
   11371:	44 8b bd ec f4 ff ff 	mov    -0xb14(%rbp),%r15d
   11378:	8b 05 52 c6 00 00    	mov    0xc652(%rip),%eax        # 1d9d0 <g_383>
   1137e:	89 85 cc f4 ff ff    	mov    %eax,-0xb34(%rbp)
   11384:	8b 85 fc f4 ff ff    	mov    -0xb04(%rbp),%eax
   1138a:	89 c2                	mov    %eax,%edx
   1138c:	8b 85 fc f4 ff ff    	mov    -0xb04(%rbp),%eax
   11392:	89 c0                	mov    %eax,%eax
   11394:	48 89 d6             	mov    %rdx,%rsi
   11397:	48 89 c7             	mov    %rax,%rdi
   1139a:	e8 e1 5c ff ff       	callq  7080 <safe_mod_func_uint64_t_u_u>
   1139f:	48 89 85 c0 f4 ff ff 	mov    %rax,-0xb40(%rbp)
   113a6:	8b 85 ec f4 ff ff    	mov    -0xb14(%rbp),%eax
   113ac:	0f bf d0             	movswl %ax,%edx
   113af:	48 8b 05 42 ec 00 00 	mov    0xec42(%rip),%rax        # 1fff8 <g_626>
   113b6:	48 c7 00 00 00 00 00 	movq   $0x0,(%rax)
   113bd:	48 8b 00             	mov    (%rax),%rax
   113c0:	48 39 85 b0 f5 ff ff 	cmp    %rax,-0xa50(%rbp)
   113c7:	0f 95 c0             	setne  %al
   113ca:	0f b6 f8             	movzbl %al,%edi
   113cd:	66 0f be 8d d4 f4 ff 	movsbw -0xb2c(%rbp),%cx
   113d4:	ff 
   113d5:	48 8b 85 88 f5 ff ff 	mov    -0xa78(%rbp),%rax
   113dc:	0f b6 30             	movzbl (%rax),%esi
   113df:	48 8b 85 88 f5 ff ff 	mov    -0xa78(%rbp),%rax
   113e6:	31 fe                	xor    %edi,%esi
   113e8:	40 88 30             	mov    %sil,(%rax)
   113eb:	0f b6 00             	movzbl (%rax),%eax
   113ee:	66 98                	cbtw   
   113f0:	21 c8                	and    %ecx,%eax
   113f2:	98                   	cwtl   
   113f3:	89 d6                	mov    %edx,%esi
   113f5:	89 c7                	mov    %eax,%edi
   113f7:	e8 d7 4f ff ff       	callq  63d3 <safe_sub_func_int16_t_s_s>
   113fc:	66 3d 93 09          	cmp    $0x993,%ax
   11400:	0f 9e c0             	setle  %al
   11403:	0f b6 d0             	movzbl %al,%edx
   11406:	8b 85 fc f4 ff ff    	mov    -0xb04(%rbp),%eax
   1140c:	21 d0                	and    %edx,%eax
   1140e:	89 c0                	mov    %eax,%eax
   11410:	48 39 85 c0 f4 ff ff 	cmp    %rax,-0xb40(%rbp)
   11417:	0f 97 c0             	seta   %al
   1141a:	0f b6 d0             	movzbl %al,%edx
   1141d:	48 8b 85 e0 f4 ff ff 	mov    -0xb20(%rbp),%rax
   11424:	8b 00                	mov    (%rax),%eax
   11426:	39 c2                	cmp    %eax,%edx
   11428:	0f 9f c0             	setg   %al
   1142b:	0f b6 c0             	movzbl %al,%eax
   1142e:	8b b5 cc f4 ff ff    	mov    -0xb34(%rbp),%esi
   11434:	89 c7                	mov    %eax,%edi
   11436:	e8 c2 5a ff ff       	callq  6efd <safe_mod_func_uint32_t_u_u>
   1143b:	48 8b 05 16 c6 00 00 	mov    0xc616(%rip),%rax        # 1da58 <g_663+0x8>
   11442:	01 c0                	add    %eax,%eax
   11444:	d1 f8                	sar    %eax
   11446:	83 f8 01             	cmp    $0x1,%eax
   11449:	0f 9f c0             	setg   %al
   1144c:	0f b6 c0             	movzbl %al,%eax
   1144f:	4c 89 fe             	mov    %r15,%rsi
   11452:	48 89 c7             	mov    %rax,%rdi
   11455:	e8 5a 55 ff ff       	callq  69b4 <safe_mod_func_int64_t_s_s>
   1145a:	98                   	cwtl   
   1145b:	44 89 f6             	mov    %r14d,%esi
   1145e:	89 c7                	mov    %eax,%edi
   11460:	e8 f0 4f ff ff       	callq  6455 <safe_div_func_int16_t_s_s>
   11465:	0f b7 c0             	movzwl %ax,%eax
   11468:	44 89 ee             	mov    %r13d,%esi
   1146b:	89 c7                	mov    %eax,%edi
   1146d:	e8 cb 58 ff ff       	callq  6d3d <safe_mul_func_uint16_t_u_u>
   11472:	4c 89 e6             	mov    %r12,%rsi
   11475:	48 c7 c7 ff ff ff ff 	mov    $0xffffffffffffffff,%rdi
   1147c:	e8 27 54 ff ff       	callq  68a8 <safe_sub_func_int64_t_s_s>
   11481:	0f b6 c0             	movzbl %al,%eax
   11484:	be 01 00 00 00       	mov    $0x1,%esi
   11489:	89 c7                	mov    %eax,%edi
   1148b:	e8 fd 57 ff ff       	callq  6c8d <safe_rshift_func_uint8_t_u_s>
   11490:	0f b6 c0             	movzbl %al,%eax
   11493:	89 de                	mov    %ebx,%esi
   11495:	89 c7                	mov    %eax,%edi
   11497:	e8 f7 56 ff ff       	callq  6b93 <safe_mul_func_uint8_t_u_u>
   1149c:	0f b6 c0             	movzbl %al,%eax
   1149f:	39 85 d0 f4 ff ff    	cmp    %eax,-0xb30(%rbp)
   114a5:	75 17                	jne    114be <func_48+0x35d>
   114a7:	48 8b 15 f2 ea 00 00 	mov    0xeaf2(%rip),%rdx        # 1ffa0 <g_46>
   114ae:	48 8b 05 fb ea 00 00 	mov    0xeafb(%rip),%rax        # 1ffb0 <g_113>
   114b5:	8b 12                	mov    (%rdx),%edx
   114b7:	89 10                	mov    %edx,(%rax)
   114b9:	e9 12 17 00 00       	jmpq   12bd0 <func_48+0x1a6f>
   114be:	48 c7 85 90 f5 ff ff 	movq   $0xffffffffffffffff,-0xa70(%rbp)
   114c5:	ff ff ff ff 
   114c9:	48 8d 05 94 bb 00 00 	lea    0xbb94(%rip),%rax        # 1d064 <g_47>
   114d0:	48 89 85 d8 f5 ff ff 	mov    %rax,-0xa28(%rbp)
   114d7:	c7 85 50 f5 ff ff f6 	movl   $0xfffffff6,-0xab0(%rbp)
   114de:	ff ff ff 
   114e1:	c7 85 54 f5 ff ff 09 	movl   $0x9,-0xaac(%rbp)
   114e8:	00 00 00 
   114eb:	48 8d 05 16 c0 00 00 	lea    0xc016(%rip),%rax        # 1d508 <g_83>
   114f2:	48 89 85 e0 f5 ff ff 	mov    %rax,-0xa20(%rbp)
   114f9:	48 8d 05 e4 00 01 00 	lea    0x100e4(%rip),%rax        # 215e4 <g_402>
   11500:	48 89 85 e8 f5 ff ff 	mov    %rax,-0xa18(%rbp)
   11507:	48 8d 05 fa bf 00 00 	lea    0xbffa(%rip),%rax        # 1d508 <g_83>
   1150e:	48 89 85 f0 f5 ff ff 	mov    %rax,-0xa10(%rbp)
   11515:	48 8d 85 00 f5 ff ff 	lea    -0xb00(%rbp),%rax
   1151c:	48 89 85 f8 f5 ff ff 	mov    %rax,-0xa08(%rbp)
   11523:	48 8d 05 ba 00 01 00 	lea    0x100ba(%rip),%rax        # 215e4 <g_402>
   1152a:	48 89 85 b0 f7 ff ff 	mov    %rax,-0x850(%rbp)
   11531:	48 8d 05 ac 00 01 00 	lea    0x100ac(%rip),%rax        # 215e4 <g_402>
   11538:	48 89 85 b8 f7 ff ff 	mov    %rax,-0x848(%rbp)
   1153f:	48 8d 85 00 f5 ff ff 	lea    -0xb00(%rbp),%rax
   11546:	48 89 85 c0 f7 ff ff 	mov    %rax,-0x840(%rbp)
   1154d:	48 8d 05 90 00 01 00 	lea    0x10090(%rip),%rax        # 215e4 <g_402>
   11554:	48 89 85 c8 f7 ff ff 	mov    %rax,-0x838(%rbp)
   1155b:	48 8d 05 82 00 01 00 	lea    0x10082(%rip),%rax        # 215e4 <g_402>
   11562:	48 89 85 d0 f7 ff ff 	mov    %rax,-0x830(%rbp)
   11569:	48 8d 85 00 f5 ff ff 	lea    -0xb00(%rbp),%rax
   11570:	48 89 85 d8 f7 ff ff 	mov    %rax,-0x828(%rbp)
   11577:	48 8d 05 66 00 01 00 	lea    0x10066(%rip),%rax        # 215e4 <g_402>
   1157e:	48 89 85 e0 f7 ff ff 	mov    %rax,-0x820(%rbp)
   11585:	48 8d 05 58 00 01 00 	lea    0x10058(%rip),%rax        # 215e4 <g_402>
   1158c:	48 89 85 e8 f7 ff ff 	mov    %rax,-0x818(%rbp)
   11593:	48 8d 85 00 f5 ff ff 	lea    -0xb00(%rbp),%rax
   1159a:	48 89 85 f0 f7 ff ff 	mov    %rax,-0x810(%rbp)
   115a1:	48 8d 05 3c 00 01 00 	lea    0x1003c(%rip),%rax        # 215e4 <g_402>
   115a8:	48 89 85 f8 f7 ff ff 	mov    %rax,-0x808(%rbp)
   115af:	c7 85 58 f5 ff ff ff 	movl   $0xffffffff,-0xaa8(%rbp)
   115b6:	ff ff ff 
   115b9:	66 c7 85 f6 f4 ff ff 	movw   $0xfff7,-0xb0a(%rbp)
   115c0:	f7 ff 
   115c2:	66 c7 85 50 f8 ff ff 	movw   $0x0,-0x7b0(%rbp)
   115c9:	00 00 
   115cb:	66 c7 85 52 f8 ff ff 	movw   $0xffff,-0x7ae(%rbp)
   115d2:	ff ff 
   115d4:	66 c7 85 54 f8 ff ff 	movw   $0x0,-0x7ac(%rbp)
   115db:	00 00 
   115dd:	66 c7 85 56 f8 ff ff 	movw   $0xffff,-0x7aa(%rbp)
   115e4:	ff ff 
   115e6:	66 c7 85 58 f8 ff ff 	movw   $0x1e4a,-0x7a8(%rbp)
   115ed:	4a 1e 
   115ef:	66 c7 85 5a f8 ff ff 	movw   $0x6ee,-0x7a6(%rbp)
   115f6:	ee 06 
   115f8:	66 c7 85 5c f8 ff ff 	movw   $0x0,-0x7a4(%rbp)
   115ff:	00 00 
   11601:	66 c7 85 5e f8 ff ff 	movw   $0x8,-0x7a2(%rbp)
   11608:	08 00 
   1160a:	66 c7 85 60 f8 ff ff 	movw   $0xffff,-0x7a0(%rbp)
   11611:	ff ff 
   11613:	66 c7 85 62 f8 ff ff 	movw   $0x0,-0x79e(%rbp)
   1161a:	00 00 
   1161c:	66 c7 85 64 f8 ff ff 	movw   $0x0,-0x79c(%rbp)
   11623:	00 00 
   11625:	66 c7 85 66 f8 ff ff 	movw   $0xffff,-0x79a(%rbp)
   1162c:	ff ff 
   1162e:	66 c7 85 68 f8 ff ff 	movw   $0x8,-0x798(%rbp)
   11635:	08 00 
   11637:	66 c7 85 6a f8 ff ff 	movw   $0xffff,-0x796(%rbp)
   1163e:	ff ff 
   11640:	66 c7 85 6c f8 ff ff 	movw   $0x0,-0x794(%rbp)
   11647:	00 00 
   11649:	66 c7 85 6e f8 ff ff 	movw   $0xffff,-0x792(%rbp)
   11650:	ff ff 
   11652:	66 c7 85 70 f8 ff ff 	movw   $0x1e4a,-0x790(%rbp)
   11659:	4a 1e 
   1165b:	66 c7 85 72 f8 ff ff 	movw   $0x6ee,-0x78e(%rbp)
   11662:	ee 06 
   11664:	66 c7 85 74 f8 ff ff 	movw   $0x0,-0x78c(%rbp)
   1166b:	00 00 
   1166d:	66 c7 85 76 f8 ff ff 	movw   $0x6ee,-0x78a(%rbp)
   11674:	ee 06 
   11676:	66 c7 85 78 f8 ff ff 	movw   $0x1e4a,-0x788(%rbp)
   1167d:	4a 1e 
   1167f:	66 c7 85 7a f8 ff ff 	movw   $0xfffc,-0x786(%rbp)
   11686:	fc ff 
   11688:	66 c7 85 7c f8 ff ff 	movw   $0xfffc,-0x784(%rbp)
   1168f:	fc ff 
   11691:	66 c7 85 7e f8 ff ff 	movw   $0x8,-0x782(%rbp)
   11698:	08 00 
   1169a:	66 c7 85 80 f8 ff ff 	movw   $0x0,-0x780(%rbp)
   116a1:	00 00 
   116a3:	66 c7 85 82 f8 ff ff 	movw   $0x8,-0x77e(%rbp)
   116aa:	08 00 
   116ac:	66 c7 85 84 f8 ff ff 	movw   $0xfffc,-0x77c(%rbp)
   116b3:	fc ff 
   116b5:	66 c7 85 86 f8 ff ff 	movw   $0xfffc,-0x77a(%rbp)
   116bc:	fc ff 
   116be:	66 c7 85 88 f8 ff ff 	movw   $0xfffe,-0x778(%rbp)
   116c5:	fe ff 
   116c7:	66 c7 85 8a f8 ff ff 	movw   $0xffff,-0x776(%rbp)
   116ce:	ff ff 
   116d0:	66 c7 85 8c f8 ff ff 	movw   $0x5a42,-0x774(%rbp)
   116d7:	42 5a 
   116d9:	66 c7 85 8e f8 ff ff 	movw   $0xffff,-0x772(%rbp)
   116e0:	ff ff 
   116e2:	66 c7 85 90 f8 ff ff 	movw   $0xfffe,-0x770(%rbp)
   116e9:	fe ff 
   116eb:	66 c7 85 92 f8 ff ff 	movw   $0x8a18,-0x76e(%rbp)
   116f2:	18 8a 
   116f4:	66 c7 85 94 f8 ff ff 	movw   $0x1e4a,-0x76c(%rbp)
   116fb:	4a 1e 
   116fd:	66 c7 85 96 f8 ff ff 	movw   $0xffff,-0x76a(%rbp)
   11704:	ff ff 
   11706:	66 c7 85 98 f8 ff ff 	movw   $0xffff,-0x768(%rbp)
   1170d:	ff ff 
   1170f:	66 c7 85 9a f8 ff ff 	movw   $0xffff,-0x766(%rbp)
   11716:	ff ff 
   11718:	66 c7 85 9c f8 ff ff 	movw   $0x8,-0x764(%rbp)
   1171f:	08 00 
   11721:	66 c7 85 9e f8 ff ff 	movw   $0x8,-0x762(%rbp)
   11728:	08 00 
   1172a:	66 c7 85 a0 f8 ff ff 	movw   $0xffff,-0x760(%rbp)
   11731:	ff ff 
   11733:	66 c7 85 a2 f8 ff ff 	movw   $0xffff,-0x75e(%rbp)
   1173a:	ff ff 
   1173c:	c7 05 1e b9 00 00 00 	movl   $0x0,0xb91e(%rip)        # 1d064 <g_47>
   11743:	00 00 00 
   11746:	e9 2f 11 00 00       	jmpq   1287a <func_48+0x1719>
   1174b:	48 c7 85 98 f5 ff ff 	movq   $0x0,-0xa68(%rbp)
   11752:	00 00 00 00 
   11756:	48 c7 85 18 f6 ff ff 	movq   $0x0,-0x9e8(%rbp)
   1175d:	00 00 00 00 
   11761:	48 8d 85 80 f5 ff ff 	lea    -0xa80(%rbp),%rax
   11768:	48 89 85 a0 f5 ff ff 	mov    %rax,-0xa60(%rbp)
   1176f:	48 8d 05 ea bd 00 00 	lea    0xbdea(%rip),%rax        # 1d560 <g_86>
   11776:	48 89 85 20 f6 ff ff 	mov    %rax,-0x9e0(%rbp)
   1177d:	c7 85 04 f5 ff ff 01 	movl   $0x1,-0xafc(%rbp)
   11784:	00 00 00 
   11787:	c7 85 08 f5 ff ff 64 	movl   $0x25ebbc64,-0xaf8(%rbp)
   1178e:	bc eb 25 
   11791:	48 8d 85 a0 f5 ff ff 	lea    -0xa60(%rbp),%rax
   11798:	48 89 85 a8 f5 ff ff 	mov    %rax,-0xa58(%rbp)
   1179f:	c7 85 14 f5 ff ff 00 	movl   $0x0,-0xaec(%rbp)
   117a6:	00 00 00 
   117a9:	eb 1e                	jmp    117c9 <func_48+0x668>
   117ab:	8b 85 14 f5 ff ff    	mov    -0xaec(%rbp),%eax
   117b1:	48 98                	cltq   
   117b3:	48 8d 15 ce c2 00 00 	lea    0xc2ce(%rip),%rdx        # 1da88 <g_735>
   117ba:	48 89 94 c5 00 f8 ff 	mov    %rdx,-0x800(%rbp,%rax,8)
   117c1:	ff 
   117c2:	83 85 14 f5 ff ff 01 	addl   $0x1,-0xaec(%rbp)
   117c9:	83 bd 14 f5 ff ff 09 	cmpl   $0x9,-0xaec(%rbp)
   117d0:	7e d9                	jle    117ab <func_48+0x64a>
   117d2:	c7 85 14 f5 ff ff 00 	movl   $0x0,-0xaec(%rbp)
   117d9:	00 00 00 
   117dc:	eb 1e                	jmp    117fc <func_48+0x69b>
   117de:	8b 85 14 f5 ff ff    	mov    -0xaec(%rbp),%eax
   117e4:	48 98                	cltq   
   117e6:	48 8d 95 a8 f5 ff ff 	lea    -0xa58(%rbp),%rdx
   117ed:	48 89 94 c5 b0 f6 ff 	mov    %rdx,-0x950(%rbp,%rax,8)
   117f4:	ff 
   117f5:	83 85 14 f5 ff ff 01 	addl   $0x1,-0xaec(%rbp)
   117fc:	83 bd 14 f5 ff ff 01 	cmpl   $0x1,-0xaec(%rbp)
   11803:	7e d9                	jle    117de <func_48+0x67d>
   11805:	0f b7 05 18 c2 00 00 	movzwl 0xc218(%rip),%eax        # 1da24 <g_521>
   1180c:	66 85 c0             	test   %ax,%ax
   1180f:	0f 85 7f 01 00 00    	jne    11994 <func_48+0x833>
   11815:	48 8b 85 e0 f4 ff ff 	mov    -0xb20(%rbp),%rax
   1181c:	8b 00                	mov    (%rax),%eax
   1181e:	41 89 c4             	mov    %eax,%r12d
   11821:	8b 85 fc f4 ff ff    	mov    -0xb04(%rbp),%eax
   11827:	89 c2                	mov    %eax,%edx
   11829:	48 8b 85 90 f5 ff ff 	mov    -0xa70(%rbp),%rax
   11830:	48 39 c2             	cmp    %rax,%rdx
   11833:	0f 94 c0             	sete   %al
   11836:	0f b6 c0             	movzbl %al,%eax
   11839:	89 85 24 f5 ff ff    	mov    %eax,-0xadc(%rbp)
   1183f:	8b 85 24 f5 ff ff    	mov    -0xadc(%rbp),%eax
   11845:	48 89 05 a4 bc 00 00 	mov    %rax,0xbca4(%rip)        # 1d4f0 <g_81+0x10>
   1184c:	48 8b 85 90 f5 ff ff 	mov    -0xa70(%rbp),%rax
   11853:	98                   	cwtl   
   11854:	be 3f de ff ff       	mov    $0xffffde3f,%esi
   11859:	89 c7                	mov    %eax,%edi
   1185b:	e8 53 4b ff ff       	callq  63b3 <safe_add_func_int16_t_s_s>
   11860:	66 85 c0             	test   %ax,%ax
   11863:	74 0a                	je     1186f <func_48+0x70e>
   11865:	48 8b 85 98 f5 ff ff 	mov    -0xa68(%rbp),%rax
   1186c:	48 85 c0             	test   %rax,%rax
   1186f:	48 8b 05 0a c2 00 00 	mov    0xc20a(%rip),%rax        # 1da80 <g_727+0x10>
   11876:	89 c3                	mov    %eax,%ebx
   11878:	c1 e3 05             	shl    $0x5,%ebx
   1187b:	c1 fb 05             	sar    $0x5,%ebx
   1187e:	48 8b 85 98 f5 ff ff 	mov    -0xa68(%rbp),%rax
   11885:	98                   	cwtl   
   11886:	89 c6                	mov    %eax,%esi
   11888:	bf 03 e6 ff ff       	mov    $0xffffe603,%edi
   1188d:	e8 84 4b ff ff       	callq  6416 <safe_mod_func_int16_t_s_s>
   11892:	98                   	cwtl   
   11893:	c1 e0 05             	shl    $0x5,%eax
   11896:	c1 f8 05             	sar    $0x5,%eax
   11899:	39 c3                	cmp    %eax,%ebx
   1189b:	74 1b                	je     118b8 <func_48+0x757>
   1189d:	48 8b 05 cc c1 00 00 	mov    0xc1cc(%rip),%rax        # 1da70 <g_727>
   118a4:	48 c1 e8 20          	shr    $0x20,%rax
   118a8:	66 25 ff 7f          	and    $0x7fff,%ax
   118ac:	66 85 c0             	test   %ax,%ax
   118af:	74 07                	je     118b8 <func_48+0x757>
   118b1:	b8 01 00 00 00       	mov    $0x1,%eax
   118b6:	eb 05                	jmp    118bd <func_48+0x75c>
   118b8:	b8 00 00 00 00       	mov    $0x0,%eax
   118bd:	48 63 d0             	movslq %eax,%rdx
   118c0:	8b 85 fc f4 ff ff    	mov    -0xb04(%rbp),%eax
   118c6:	89 c0                	mov    %eax,%eax
   118c8:	48 89 05 a9 bb 00 00 	mov    %rax,0xbba9(%rip)        # 1d478 <g_79+0x3f8>
   118cf:	48 8b 05 a2 bb 00 00 	mov    0xbba2(%rip),%rax        # 1d478 <g_79+0x3f8>
   118d6:	48 39 c2             	cmp    %rax,%rdx
   118d9:	0f 9e c0             	setle  %al
   118dc:	0f b6 c8             	movzbl %al,%ecx
   118df:	48 8b 85 88 f5 ff ff 	mov    -0xa78(%rbp),%rax
   118e6:	0f b6 10             	movzbl (%rax),%edx
   118e9:	48 8b 85 88 f5 ff ff 	mov    -0xa78(%rbp),%rax
   118f0:	31 ca                	xor    %ecx,%edx
   118f2:	88 10                	mov    %dl,(%rax)
   118f4:	0f b6 00             	movzbl (%rax),%eax
   118f7:	0f be c0             	movsbl %al,%eax
   118fa:	be 04 00 00 00       	mov    $0x4,%esi
   118ff:	89 c7                	mov    %eax,%edi
   11901:	e8 9b 49 ff ff       	callq  62a1 <safe_lshift_func_int8_t_s_s>
   11906:	0f be c0             	movsbl %al,%eax
   11909:	48 8b 0d 80 e7 00 00 	mov    0xe780(%rip),%rcx        # 20090 <g_797>
   11910:	48 8b 95 a0 f5 ff ff 	mov    -0xa60(%rbp),%rdx
   11917:	48 39 d1             	cmp    %rdx,%rcx
   1191a:	75 07                	jne    11923 <func_48+0x7c2>
   1191c:	ba 01 00 00 00       	mov    $0x1,%edx
   11921:	eb 05                	jmp    11928 <func_48+0x7c7>
   11923:	ba 00 00 00 00       	mov    $0x0,%edx
   11928:	39 c2                	cmp    %eax,%edx
   1192a:	0f 9e c0             	setle  %al
   1192d:	0f b6 d0             	movzbl %al,%edx
   11930:	48 8b 85 20 f6 ff ff 	mov    -0x9e0(%rbp),%rax
   11937:	0f b7 00             	movzwl (%rax),%eax
   1193a:	89 c1                	mov    %eax,%ecx
   1193c:	89 d0                	mov    %edx,%eax
   1193e:	09 c8                	or     %ecx,%eax
   11940:	89 c2                	mov    %eax,%edx
   11942:	48 8b 85 20 f6 ff ff 	mov    -0x9e0(%rbp),%rax
   11949:	66 89 10             	mov    %dx,(%rax)
   1194c:	48 8b 85 20 f6 ff ff 	mov    -0x9e0(%rbp),%rax
   11953:	0f b7 00             	movzwl (%rax),%eax
   11956:	0f b7 c0             	movzwl %ax,%eax
   11959:	48 8b 95 90 f5 ff ff 	mov    -0xa70(%rbp),%rdx
   11960:	21 d0                	and    %edx,%eax
   11962:	44 89 e6             	mov    %r12d,%esi
   11965:	89 c7                	mov    %eax,%edi
   11967:	e8 b9 55 ff ff       	callq  6f25 <safe_div_func_uint32_t_u_u>
   1196c:	85 c0                	test   %eax,%eax
   1196e:	75 0d                	jne    1197d <func_48+0x81c>
   11970:	48 8b 85 e0 f4 ff ff 	mov    -0xb20(%rbp),%rax
   11977:	8b 00                	mov    (%rax),%eax
   11979:	85 c0                	test   %eax,%eax
   1197b:	74 07                	je     11984 <func_48+0x823>
   1197d:	ba 01 00 00 00       	mov    $0x1,%edx
   11982:	eb 05                	jmp    11989 <func_48+0x828>
   11984:	ba 00 00 00 00       	mov    $0x0,%edx
   11989:	0f be 85 d4 f4 ff ff 	movsbl -0xb2c(%rbp),%eax
   11990:	39 c2                	cmp    %eax,%edx
   11992:	7e 07                	jle    1199b <func_48+0x83a>
   11994:	ba 01 00 00 00       	mov    $0x1,%edx
   11999:	eb 05                	jmp    119a0 <func_48+0x83f>
   1199b:	ba 00 00 00 00       	mov    $0x0,%edx
   119a0:	48 8b 05 31 e6 00 00 	mov    0xe631(%rip),%rax        # 1ffd8 <g_110>
   119a7:	48 8b 00             	mov    (%rax),%rax
   119aa:	48 8b 00             	mov    (%rax),%rax
   119ad:	48 8b 00             	mov    (%rax),%rax
   119b0:	89 10                	mov    %edx,(%rax)
   119b2:	c7 05 24 fc 00 00 00 	movl   $0x0,0xfc24(%rip)        # 215e0 <g_302>
   119b9:	00 00 00 
   119bc:	e9 9b 0e 00 00       	jmpq   1285c <func_48+0x16fb>
   119c1:	66 c7 85 60 f7 ff ff 	movw   $0x92e4,-0x8a0(%rbp)
   119c8:	e4 92 
   119ca:	66 c7 85 62 f7 ff ff 	movw   $0x83bf,-0x89e(%rbp)
   119d1:	bf 83 
   119d3:	66 c7 85 64 f7 ff ff 	movw   $0x4,-0x89c(%rbp)
   119da:	04 00 
   119dc:	66 c7 85 66 f7 ff ff 	movw   $0x92e4,-0x89a(%rbp)
   119e3:	e4 92 
   119e5:	66 c7 85 68 f7 ff ff 	movw   $0x4,-0x898(%rbp)
   119ec:	04 00 
   119ee:	66 c7 85 6a f7 ff ff 	movw   $0x83bf,-0x896(%rbp)
   119f5:	bf 83 
   119f7:	66 c7 85 6c f7 ff ff 	movw   $0x7,-0x894(%rbp)
   119fe:	07 00 
   11a00:	66 c7 85 6e f7 ff ff 	movw   $0x83bf,-0x892(%rbp)
   11a07:	bf 83 
   11a09:	66 c7 85 70 f7 ff ff 	movw   $0x2067,-0x890(%rbp)
   11a10:	67 20 
   11a12:	66 c7 85 72 f7 ff ff 	movw   $0x7,-0x88e(%rbp)
   11a19:	07 00 
   11a1b:	66 c7 85 74 f7 ff ff 	movw   $0x4,-0x88c(%rbp)
   11a22:	04 00 
   11a24:	66 c7 85 76 f7 ff ff 	movw   $0x4,-0x88a(%rbp)
   11a2b:	04 00 
   11a2d:	66 c7 85 78 f7 ff ff 	movw   $0x10e0,-0x888(%rbp)
   11a34:	e0 10 
   11a36:	66 c7 85 7a f7 ff ff 	movw   $0x83bf,-0x886(%rbp)
   11a3d:	bf 83 
   11a3f:	66 c7 85 7c f7 ff ff 	movw   $0x83bf,-0x884(%rbp)
   11a46:	bf 83 
   11a48:	66 c7 85 7e f7 ff ff 	movw   $0x10e0,-0x882(%rbp)
   11a4f:	e0 10 
   11a51:	66 c7 85 80 f7 ff ff 	movw   $0x4,-0x880(%rbp)
   11a58:	04 00 
   11a5a:	66 c7 85 82 f7 ff ff 	movw   $0x2067,-0x87e(%rbp)
   11a61:	67 20 
   11a63:	66 c7 85 84 f7 ff ff 	movw   $0x92e4,-0x87c(%rbp)
   11a6a:	e4 92 
   11a6c:	66 c7 85 86 f7 ff ff 	movw   $0x83bf,-0x87a(%rbp)
   11a73:	bf 83 
   11a75:	66 c7 85 88 f7 ff ff 	movw   $0x4,-0x878(%rbp)
   11a7c:	04 00 
   11a7e:	66 c7 85 8a f7 ff ff 	movw   $0x92e4,-0x876(%rbp)
   11a85:	e4 92 
   11a87:	66 c7 85 8c f7 ff ff 	movw   $0x4,-0x874(%rbp)
   11a8e:	04 00 
   11a90:	66 c7 85 8e f7 ff ff 	movw   $0x83bf,-0x872(%rbp)
   11a97:	bf 83 
   11a99:	66 c7 85 90 f7 ff ff 	movw   $0x7,-0x870(%rbp)
   11aa0:	07 00 
   11aa2:	66 c7 85 92 f7 ff ff 	movw   $0x83bf,-0x86e(%rbp)
   11aa9:	bf 83 
   11aab:	66 c7 85 94 f7 ff ff 	movw   $0x2067,-0x86c(%rbp)
   11ab2:	67 20 
   11ab4:	66 c7 85 96 f7 ff ff 	movw   $0x7,-0x86a(%rbp)
   11abb:	07 00 
   11abd:	66 c7 85 98 f7 ff ff 	movw   $0x4,-0x868(%rbp)
   11ac4:	04 00 
   11ac6:	66 c7 85 9a f7 ff ff 	movw   $0x4,-0x866(%rbp)
   11acd:	04 00 
   11acf:	66 c7 85 9c f7 ff ff 	movw   $0x10e0,-0x864(%rbp)
   11ad6:	e0 10 
   11ad8:	66 c7 85 9e f7 ff ff 	movw   $0x83bf,-0x862(%rbp)
   11adf:	bf 83 
   11ae1:	66 c7 85 a0 f7 ff ff 	movw   $0x83bf,-0x860(%rbp)
   11ae8:	bf 83 
   11aea:	66 c7 85 a2 f7 ff ff 	movw   $0x10e0,-0x85e(%rbp)
   11af1:	e0 10 
   11af3:	66 c7 85 a4 f7 ff ff 	movw   $0x4,-0x85c(%rbp)
   11afa:	04 00 
   11afc:	66 c7 85 a6 f7 ff ff 	movw   $0x2067,-0x85a(%rbp)
   11b03:	67 20 
   11b05:	c6 85 f3 f4 ff ff 94 	movb   $0x94,-0xb0d(%rbp)
   11b0c:	c7 85 0c f5 ff ff 01 	movl   $0x1,-0xaf4(%rbp)
   11b13:	00 00 00 
   11b16:	c7 85 78 f5 ff ff 6b 	movl   $0x1e460f6b,-0xa88(%rbp)
   11b1d:	0f 46 1e 
   11b20:	48 8d 05 91 be 00 00 	lea    0xbe91(%rip),%rax        # 1d9b8 <g_262>
   11b27:	48 89 85 28 f6 ff ff 	mov    %rax,-0x9d8(%rbp)
   11b2e:	48 8d 85 04 f5 ff ff 	lea    -0xafc(%rbp),%rax
   11b35:	48 89 85 30 f6 ff ff 	mov    %rax,-0x9d0(%rbp)
   11b3c:	48 8d 05 31 bd 00 00 	lea    0xbd31(%rip),%rax        # 1d874 <g_212+0x2f4>
   11b43:	48 89 85 38 f6 ff ff 	mov    %rax,-0x9c8(%rbp)
   11b4a:	48 8d 05 23 bd 00 00 	lea    0xbd23(%rip),%rax        # 1d874 <g_212+0x2f4>
   11b51:	48 89 85 40 f6 ff ff 	mov    %rax,-0x9c0(%rbp)
   11b58:	48 8d 05 85 fa 00 00 	lea    0xfa85(%rip),%rax        # 215e4 <g_402>
   11b5f:	48 89 85 48 f6 ff ff 	mov    %rax,-0x9b8(%rbp)
   11b66:	48 8d 85 0c f5 ff ff 	lea    -0xaf4(%rbp),%rax
   11b6d:	48 89 85 50 f6 ff ff 	mov    %rax,-0x9b0(%rbp)
   11b74:	c7 85 18 f5 ff ff 00 	movl   $0x0,-0xae8(%rbp)
   11b7b:	00 00 00 
   11b7e:	eb 1e                	jmp    11b9e <func_48+0xa3d>
   11b80:	8b 85 18 f5 ff ff    	mov    -0xae8(%rbp),%eax
   11b86:	48 98                	cltq   
   11b88:	48 8d 95 08 f5 ff ff 	lea    -0xaf8(%rbp),%rdx
   11b8f:	48 89 94 c5 e0 f6 ff 	mov    %rdx,-0x920(%rbp,%rax,8)
   11b96:	ff 
   11b97:	83 85 18 f5 ff ff 01 	addl   $0x1,-0xae8(%rbp)
   11b9e:	83 bd 18 f5 ff ff 06 	cmpl   $0x6,-0xae8(%rbp)
   11ba5:	7e d9                	jle    11b80 <func_48+0xa1f>
   11ba7:	c6 85 e8 f4 ff ff 00 	movb   $0x0,-0xb18(%rbp)
   11bae:	e9 bf 05 00 00       	jmpq   12172 <func_48+0x1011>
   11bb3:	c7 85 7c f5 ff ff cb 	movl   $0xa450e2cb,-0xa84(%rbp)
   11bba:	e2 50 a4 
   11bbd:	c7 85 1c f5 ff ff 00 	movl   $0x0,-0xae4(%rbp)
   11bc4:	00 00 00 
   11bc7:	eb 1a                	jmp    11be3 <func_48+0xa82>
   11bc9:	8b 85 1c f5 ff ff    	mov    -0xae4(%rbp),%eax
   11bcf:	48 98                	cltq   
   11bd1:	c7 84 85 b0 f8 ff ff 	movl   $0xffffffff,-0x750(%rbp,%rax,4)
   11bd8:	ff ff ff ff 
   11bdc:	83 85 1c f5 ff ff 01 	addl   $0x1,-0xae4(%rbp)
   11be3:	83 bd 1c f5 ff ff 03 	cmpl   $0x3,-0xae4(%rbp)
   11bea:	7e dd                	jle    11bc9 <func_48+0xa68>
   11bec:	66 c7 05 03 be 00 00 	movw   $0x0,0xbe03(%rip)        # 1d9f8 <g_477>
   11bf3:	00 00 
   11bf5:	e9 d9 03 00 00       	jmpq   11fd3 <func_48+0xe72>
   11bfa:	48 c7 85 58 f6 ff ff 	movq   $0x0,-0x9a8(%rbp)
   11c01:	00 00 00 00 
   11c05:	48 8d 85 90 f5 ff ff 	lea    -0xa70(%rbp),%rax
   11c0c:	48 89 85 60 f6 ff ff 	mov    %rax,-0x9a0(%rbp)
   11c13:	48 8d 85 88 f5 ff ff 	lea    -0xa78(%rbp),%rax
   11c1a:	48 89 85 68 f6 ff ff 	mov    %rax,-0x998(%rbp)
   11c21:	48 c7 85 40 fc ff ff 	movq   $0x0,-0x3c0(%rbp)
   11c28:	00 00 00 00 
   11c2c:	48 8d 05 5d bd 00 00 	lea    0xbd5d(%rip),%rax        # 1d990 <g_213+0x10>
   11c33:	48 89 85 48 fc ff ff 	mov    %rax,-0x3b8(%rbp)
   11c3a:	48 c7 85 50 fc ff ff 	movq   $0x0,-0x3b0(%rbp)
   11c41:	00 00 00 00 
   11c45:	48 8d 05 44 bd 00 00 	lea    0xbd44(%rip),%rax        # 1d990 <g_213+0x10>
   11c4c:	48 89 85 58 fc ff ff 	mov    %rax,-0x3a8(%rbp)
   11c53:	48 c7 85 60 fc ff ff 	movq   $0x0,-0x3a0(%rbp)
   11c5a:	00 00 00 00 
   11c5e:	48 8d 05 2b bd 00 00 	lea    0xbd2b(%rip),%rax        # 1d990 <g_213+0x10>
   11c65:	48 89 85 68 fc ff ff 	mov    %rax,-0x398(%rbp)
   11c6c:	48 c7 85 70 fc ff ff 	movq   $0x0,-0x390(%rbp)
   11c73:	00 00 00 00 
   11c77:	48 8d 05 12 bd 00 00 	lea    0xbd12(%rip),%rax        # 1d990 <g_213+0x10>
   11c7e:	48 89 85 78 fc ff ff 	mov    %rax,-0x388(%rbp)
   11c85:	48 c7 85 80 fc ff ff 	movq   $0x0,-0x380(%rbp)
   11c8c:	00 00 00 00 
   11c90:	48 8d 05 f9 bc 00 00 	lea    0xbcf9(%rip),%rax        # 1d990 <g_213+0x10>
   11c97:	48 89 85 88 fc ff ff 	mov    %rax,-0x378(%rbp)
   11c9e:	48 c7 85 90 fc ff ff 	movq   $0x0,-0x370(%rbp)
   11ca5:	00 00 00 00 
   11ca9:	48 8d 05 e0 bc 00 00 	lea    0xbce0(%rip),%rax        # 1d990 <g_213+0x10>
   11cb0:	48 89 85 98 fc ff ff 	mov    %rax,-0x368(%rbp)
   11cb7:	48 c7 85 a0 fc ff ff 	movq   $0x0,-0x360(%rbp)
   11cbe:	00 00 00 00 
   11cc2:	48 8d 05 c7 bc 00 00 	lea    0xbcc7(%rip),%rax        # 1d990 <g_213+0x10>
   11cc9:	48 89 85 a8 fc ff ff 	mov    %rax,-0x358(%rbp)
   11cd0:	48 c7 85 b0 fc ff ff 	movq   $0x0,-0x350(%rbp)
   11cd7:	00 00 00 00 
   11cdb:	48 8d 05 ae bc 00 00 	lea    0xbcae(%rip),%rax        # 1d990 <g_213+0x10>
   11ce2:	48 89 85 b8 fc ff ff 	mov    %rax,-0x348(%rbp)
   11ce9:	48 c7 85 c0 fc ff ff 	movq   $0x0,-0x340(%rbp)
   11cf0:	00 00 00 00 
   11cf4:	48 8d 05 95 bc 00 00 	lea    0xbc95(%rip),%rax        # 1d990 <g_213+0x10>
   11cfb:	48 89 85 c8 fc ff ff 	mov    %rax,-0x338(%rbp)
   11d02:	48 c7 85 d0 fc ff ff 	movq   $0x0,-0x330(%rbp)
   11d09:	00 00 00 00 
   11d0d:	48 8d 05 7c bc 00 00 	lea    0xbc7c(%rip),%rax        # 1d990 <g_213+0x10>
   11d14:	48 89 85 d8 fc ff ff 	mov    %rax,-0x328(%rbp)
   11d1b:	48 c7 85 e0 fc ff ff 	movq   $0x0,-0x320(%rbp)
   11d22:	00 00 00 00 
   11d26:	48 8d 05 63 bc 00 00 	lea    0xbc63(%rip),%rax        # 1d990 <g_213+0x10>
   11d2d:	48 89 85 e8 fc ff ff 	mov    %rax,-0x318(%rbp)
   11d34:	48 c7 85 f0 fc ff ff 	movq   $0x0,-0x310(%rbp)
   11d3b:	00 00 00 00 
   11d3f:	48 8d 05 4a bc 00 00 	lea    0xbc4a(%rip),%rax        # 1d990 <g_213+0x10>
   11d46:	48 89 85 f8 fc ff ff 	mov    %rax,-0x308(%rbp)
   11d4d:	48 c7 85 00 fd ff ff 	movq   $0x0,-0x300(%rbp)
   11d54:	00 00 00 00 
   11d58:	48 8d 05 31 bc 00 00 	lea    0xbc31(%rip),%rax        # 1d990 <g_213+0x10>
   11d5f:	48 89 85 08 fd ff ff 	mov    %rax,-0x2f8(%rbp)
   11d66:	48 c7 85 10 fd ff ff 	movq   $0x0,-0x2f0(%rbp)
   11d6d:	00 00 00 00 
   11d71:	48 8d 05 18 bc 00 00 	lea    0xbc18(%rip),%rax        # 1d990 <g_213+0x10>
   11d78:	48 89 85 18 fd ff ff 	mov    %rax,-0x2e8(%rbp)
   11d7f:	48 c7 85 20 fd ff ff 	movq   $0x0,-0x2e0(%rbp)
   11d86:	00 00 00 00 
   11d8a:	48 8d 05 ff bb 00 00 	lea    0xbbff(%rip),%rax        # 1d990 <g_213+0x10>
   11d91:	48 89 85 28 fd ff ff 	mov    %rax,-0x2d8(%rbp)
   11d98:	48 c7 85 30 fd ff ff 	movq   $0x0,-0x2d0(%rbp)
   11d9f:	00 00 00 00 
   11da3:	48 8d 05 e6 bb 00 00 	lea    0xbbe6(%rip),%rax        # 1d990 <g_213+0x10>
   11daa:	48 89 85 38 fd ff ff 	mov    %rax,-0x2c8(%rbp)
   11db1:	48 8d 85 40 fc ff ff 	lea    -0x3c0(%rbp),%rax
   11db8:	48 83 c0 48          	add    $0x48,%rax
   11dbc:	48 89 85 70 f6 ff ff 	mov    %rax,-0x990(%rbp)
   11dc3:	0f b7 05 ac b7 00 00 	movzwl 0xb7ac(%rip),%eax        # 1d576 <g_196>
   11dca:	48 0f bf d0          	movswq %ax,%rdx
   11dce:	48 8b 85 60 f6 ff ff 	mov    -0x9a0(%rbp),%rax
   11dd5:	48 8b 08             	mov    (%rax),%rcx
   11dd8:	8b 05 3a bc 00 00    	mov    0xbc3a(%rip),%eax        # 1da18 <g_510+0x8>
   11dde:	01 c0                	add    %eax,%eax
   11de0:	d1 f8                	sar    %eax
   11de2:	48 98                	cltq   
   11de4:	48 21 c1             	and    %rax,%rcx
   11de7:	48 8b 85 60 f6 ff ff 	mov    -0x9a0(%rbp),%rax
   11dee:	48 89 08             	mov    %rcx,(%rax)
   11df1:	48 8b 85 60 f6 ff ff 	mov    -0x9a0(%rbp),%rax
   11df8:	48 8b 00             	mov    (%rax),%rax
   11dfb:	48 39 c2             	cmp    %rax,%rdx
   11dfe:	0f 93 c0             	setae  %al
   11e01:	0f b6 c0             	movzbl %al,%eax
   11e04:	89 c6                	mov    %eax,%esi
   11e06:	bf 06 00 00 00       	mov    $0x6,%edi
   11e0b:	e8 91 44 ff ff       	callq  62a1 <safe_lshift_func_int8_t_s_s>
   11e10:	4c 0f be e8          	movsbq %al,%r13
   11e14:	0f b6 9d e8 f4 ff ff 	movzbl -0xb18(%rbp),%ebx
   11e1b:	8b 05 f7 bb 00 00    	mov    0xbbf7(%rip),%eax        # 1da18 <g_510+0x8>
   11e21:	01 c0                	add    %eax,%eax
   11e23:	d1 f8                	sar    %eax
   11e25:	44 0f bf e0          	movswl %ax,%r12d
   11e29:	be 3a 00 00 00       	mov    $0x3a,%esi
   11e2e:	bf 00 00 00 00       	mov    $0x0,%edi
   11e33:	e8 f9 43 ff ff       	callq  6231 <safe_mod_func_int8_t_s_s>
   11e38:	48 8b 05 71 e1 00 00 	mov    0xe171(%rip),%rax        # 1ffb0 <g_113>
   11e3f:	44 8b 30             	mov    (%rax),%r14d
   11e42:	8b 85 fc f4 ff ff    	mov    -0xb04(%rbp),%eax
   11e48:	98                   	cwtl   
   11e49:	be 07 00 00 00       	mov    $0x7,%esi
   11e4e:	89 c7                	mov    %eax,%edi
   11e50:	e8 d5 46 ff ff       	callq  652a <safe_rshift_func_int16_t_s_s>
   11e55:	0f bf d0             	movswl %ax,%edx
   11e58:	48 83 bd 68 f6 ff ff 	cmpq   $0x0,-0x998(%rbp)
   11e5f:	00 
   11e60:	0f 94 c0             	sete   %al
   11e63:	0f b6 c0             	movzbl %al,%eax
   11e66:	39 c2                	cmp    %eax,%edx
   11e68:	0f 9c c0             	setl   %al
   11e6b:	0f b6 d0             	movzbl %al,%edx
   11e6e:	0f be 85 d4 f4 ff ff 	movsbl -0xb2c(%rbp),%eax
   11e75:	21 d0                	and    %edx,%eax
   11e77:	41 39 c6             	cmp    %eax,%r14d
   11e7a:	0f 9d c0             	setge  %al
   11e7d:	0f b6 c0             	movzbl %al,%eax
   11e80:	44 89 e6             	mov    %r12d,%esi
   11e83:	89 c7                	mov    %eax,%edi
   11e85:	e8 29 45 ff ff       	callq  63b3 <safe_add_func_int16_t_s_s>
   11e8a:	98                   	cwtl   
   11e8b:	89 c6                	mov    %eax,%esi
   11e8d:	bf b1 4e 00 00       	mov    $0x4eb1,%edi
   11e92:	e8 4a 46 ff ff       	callq  64e1 <safe_lshift_func_int16_t_s_u>
   11e97:	0f b7 95 68 f7 ff ff 	movzwl -0x898(%rbp),%edx
   11e9e:	66 39 d0             	cmp    %dx,%ax
   11ea1:	0f 95 c0             	setne  %al
   11ea4:	0f b6 c0             	movzbl %al,%eax
   11ea7:	48 89 de             	mov    %rbx,%rsi
   11eaa:	48 89 c7             	mov    %rax,%rdi
   11ead:	e8 f6 49 ff ff       	callq  68a8 <safe_sub_func_int64_t_s_s>
   11eb2:	48 89 c6             	mov    %rax,%rsi
   11eb5:	48 bf 0b 87 5e 16 ff 	movabs $0x182542ff165e870b,%rdi
   11ebc:	42 25 18 
   11ebf:	e8 bc 51 ff ff       	callq  7080 <safe_mod_func_uint64_t_u_u>
   11ec4:	4c 09 e8             	or     %r13,%rax
   11ec7:	48 be 9b 95 88 1c 1c 	movabs $0xeb847b1c1c88959b,%rsi
   11ece:	7b 84 eb 
   11ed1:	48 89 c7             	mov    %rax,%rdi
   11ed4:	e8 cf 49 ff ff       	callq  68a8 <safe_sub_func_int64_t_s_s>
   11ed9:	48 83 c8 04          	or     $0x4,%rax
   11edd:	48 89 c7             	mov    %rax,%rdi
   11ee0:	8b 05 fa f6 00 00    	mov    0xf6fa(%rip),%eax        # 215e0 <g_302>
   11ee6:	8d 50 01             	lea    0x1(%rax),%edx
   11ee9:	8b 05 f1 f6 00 00    	mov    0xf6f1(%rip),%eax        # 215e0 <g_302>
   11eef:	8d 48 05             	lea    0x5(%rax),%ecx
   11ef2:	0f b6 85 e8 f4 ff ff 	movzbl -0xb18(%rbp),%eax
   11ef9:	83 c0 02             	add    $0x2,%eax
   11efc:	48 63 f0             	movslq %eax,%rsi
   11eff:	48 63 d2             	movslq %edx,%rdx
   11f02:	48 63 c9             	movslq %ecx,%rcx
   11f05:	48 89 d0             	mov    %rdx,%rax
   11f08:	48 c1 e0 02          	shl    $0x2,%rax
   11f0c:	48 01 d0             	add    %rdx,%rax
   11f0f:	48 c1 e0 02          	shl    $0x2,%rax
   11f13:	48 01 d0             	add    %rdx,%rax
   11f16:	48 01 c0             	add    %rax,%rax
   11f19:	48 89 ca             	mov    %rcx,%rdx
   11f1c:	48 01 d2             	add    %rdx,%rdx
   11f1f:	48 01 ca             	add    %rcx,%rdx
   11f22:	48 01 d2             	add    %rdx,%rdx
   11f25:	48 01 d0             	add    %rdx,%rax
   11f28:	48 01 f0             	add    %rsi,%rax
   11f2b:	48 8d 14 85 00 00 00 	lea    0x0(,%rax,4),%rdx
   11f32:	00 
   11f33:	48 8d 05 46 b6 00 00 	lea    0xb646(%rip),%rax        # 1d580 <g_212>
   11f3a:	8b 04 02             	mov    (%rdx,%rax,1),%eax
   11f3d:	89 fe                	mov    %edi,%esi
   11f3f:	8b 15 9b f6 00 00    	mov    0xf69b(%rip),%edx        # 215e0 <g_302>
   11f45:	44 8d 42 01          	lea    0x1(%rdx),%r8d
   11f49:	8b 15 91 f6 00 00    	mov    0xf691(%rip),%edx        # 215e0 <g_302>
   11f4f:	8d 4a 05             	lea    0x5(%rdx),%ecx
   11f52:	0f b6 95 e8 f4 ff ff 	movzbl -0xb18(%rbp),%edx
   11f59:	83 c2 02             	add    $0x2,%edx
   11f5c:	09 c6                	or     %eax,%esi
   11f5e:	48 63 fa             	movslq %edx,%rdi
   11f61:	49 63 d0             	movslq %r8d,%rdx
   11f64:	48 63 c9             	movslq %ecx,%rcx
   11f67:	48 89 d0             	mov    %rdx,%rax
   11f6a:	48 c1 e0 02          	shl    $0x2,%rax
   11f6e:	48 01 d0             	add    %rdx,%rax
   11f71:	48 c1 e0 02          	shl    $0x2,%rax
   11f75:	48 01 d0             	add    %rdx,%rax
   11f78:	48 01 c0             	add    %rax,%rax
   11f7b:	48 89 ca             	mov    %rcx,%rdx
   11f7e:	48 01 d2             	add    %rdx,%rdx
   11f81:	48 01 ca             	add    %rcx,%rdx
   11f84:	48 01 d2             	add    %rdx,%rdx
   11f87:	48 01 d0             	add    %rdx,%rax
   11f8a:	48 01 f8             	add    %rdi,%rax
   11f8d:	48 8d 14 85 00 00 00 	lea    0x0(,%rax,4),%rdx
   11f94:	00 
   11f95:	48 8d 05 e4 b5 00 00 	lea    0xb5e4(%rip),%rax        # 1d580 <g_212>
   11f9c:	89 34 02             	mov    %esi,(%rdx,%rax,1)
   11f9f:	48 8b 95 68 fc ff ff 	mov    -0x398(%rbp),%rdx
   11fa6:	48 8b 85 70 f6 ff ff 	mov    -0x990(%rbp),%rax
   11fad:	48 89 10             	mov    %rdx,(%rax)
   11fb0:	48 8b 15 e9 df 00 00 	mov    0xdfe9(%rip),%rdx        # 1ffa0 <g_46>
   11fb7:	48 8b 05 f2 df 00 00 	mov    0xdff2(%rip),%rax        # 1ffb0 <g_113>
   11fbe:	8b 12                	mov    (%rdx),%edx
   11fc0:	89 10                	mov    %edx,(%rax)
   11fc2:	0f b7 05 2f ba 00 00 	movzwl 0xba2f(%rip),%eax        # 1d9f8 <g_477>
   11fc9:	83 c0 01             	add    $0x1,%eax
   11fcc:	66 89 05 25 ba 00 00 	mov    %ax,0xba25(%rip)        # 1d9f8 <g_477>
   11fd3:	0f b7 05 1e ba 00 00 	movzwl 0xba1e(%rip),%eax        # 1d9f8 <g_477>
   11fda:	66 83 f8 01          	cmp    $0x1,%ax
   11fde:	0f 86 16 fc ff ff    	jbe    11bfa <func_48+0xa99>
   11fe4:	48 8b 95 90 f5 ff ff 	mov    -0xa70(%rbp),%rdx
   11feb:	48 8b 05 be df 00 00 	mov    0xdfbe(%rip),%rax        # 1ffb0 <g_113>
   11ff2:	89 10                	mov    %edx,(%rax)
   11ff4:	48 8b 05 dd df 00 00 	mov    0xdfdd(%rip),%rax        # 1ffd8 <g_110>
   11ffb:	48 8b 00             	mov    (%rax),%rax
   11ffe:	48 8b 00             	mov    (%rax),%rax
   12001:	48 8b 00             	mov    (%rax),%rax
   12004:	8b 00                	mov    (%rax),%eax
   12006:	85 c0                	test   %eax,%eax
   12008:	0f 85 73 01 00 00    	jne    12181 <func_48+0x1020>
   1200e:	48 8b 85 20 f6 ff ff 	mov    -0x9e0(%rbp),%rax
   12015:	0f b7 00             	movzwl (%rax),%eax
   12018:	8d 48 ff             	lea    -0x1(%rax),%ecx
   1201b:	48 8b 95 20 f6 ff ff 	mov    -0x9e0(%rbp),%rdx
   12022:	66 89 0a             	mov    %cx,(%rdx)
   12025:	66 3d 1f 4e          	cmp    $0x4e1f,%ax
   12029:	0f 86 23 01 00 00    	jbe    12152 <func_48+0xff1>
   1202f:	8b 05 e7 b9 00 00    	mov    0xb9e7(%rip),%eax        # 1da1c <g_510+0xc>
   12035:	c1 e0 0e             	shl    $0xe,%eax
   12038:	c1 f8 0e             	sar    $0xe,%eax
   1203b:	48 63 d8             	movslq %eax,%rbx
   1203e:	48 8b 85 98 f5 ff ff 	mov    -0xa68(%rbp),%rax
   12045:	44 0f b7 e0          	movzwl %ax,%r12d
   12049:	0f b7 05 84 b9 00 00 	movzwl 0xb984(%rip),%eax        # 1d9d4 <g_385>
   12050:	0f b7 d0             	movzwl %ax,%edx
   12053:	0f be 85 d4 f4 ff ff 	movsbl -0xb2c(%rbp),%eax
   1205a:	89 d6                	mov    %edx,%esi
   1205c:	89 c7                	mov    %eax,%edi
   1205e:	e8 c2 4e ff ff       	callq  6f25 <safe_div_func_uint32_t_u_u>
   12063:	be ff ff ff ff       	mov    $0xffffffff,%esi
   12068:	89 c7                	mov    %eax,%edi
   1206a:	e8 61 4e ff ff       	callq  6ed0 <safe_sub_func_uint32_t_u_u>
   1206f:	0f b7 c0             	movzwl %ax,%eax
   12072:	be 0d 00 00 00       	mov    $0xd,%esi
   12077:	89 c7                	mov    %eax,%edi
   12079:	e8 fc 4d ff ff       	callq  6e7a <safe_rshift_func_uint16_t_u_u>
   1207e:	0f b7 d0             	movzwl %ax,%edx
   12081:	0f b6 85 e8 f4 ff ff 	movzbl -0xb18(%rbp),%eax
   12088:	31 c2                	xor    %eax,%edx
   1208a:	8b 05 b0 b9 00 00    	mov    0xb9b0(%rip),%eax        # 1da40 <g_527+0x10>
   12090:	c1 e0 05             	shl    $0x5,%eax
   12093:	c1 f8 05             	sar    $0x5,%eax
   12096:	39 c2                	cmp    %eax,%edx
   12098:	0f 95 c0             	setne  %al
   1209b:	0f b6 c0             	movzbl %al,%eax
   1209e:	44 89 e6             	mov    %r12d,%esi
   120a1:	89 c7                	mov    %eax,%edi
   120a3:	e8 77 4c ff ff       	callq  6d1f <safe_sub_func_uint16_t_u_u>
   120a8:	48 8b 05 01 df 00 00 	mov    0xdf01(%rip),%rax        # 1ffb0 <g_113>
   120af:	8b 00                	mov    (%rax),%eax
   120b1:	85 c0                	test   %eax,%eax
   120b3:	0f 9e c0             	setle  %al
   120b6:	0f b6 c0             	movzbl %al,%eax
   120b9:	be 0d 00 00 00       	mov    $0xd,%esi
   120be:	89 c7                	mov    %eax,%edi
   120c0:	e8 65 44 ff ff       	callq  652a <safe_rshift_func_int16_t_s_s>
   120c5:	48 0f bf c0          	movswq %ax,%rax
   120c9:	48 89 05 30 b4 00 00 	mov    %rax,0xb430(%rip)        # 1d500 <g_81+0x20>
   120d0:	48 8b 15 29 b4 00 00 	mov    0xb429(%rip),%rdx        # 1d500 <g_81+0x20>
   120d7:	8b 85 bc f8 ff ff    	mov    -0x744(%rbp),%eax
   120dd:	09 d0                	or     %edx,%eax
   120df:	89 85 bc f8 ff ff    	mov    %eax,-0x744(%rbp)
   120e5:	8b 85 bc f8 ff ff    	mov    -0x744(%rbp),%eax
   120eb:	48 98                	cltq   
   120ed:	48 89 de             	mov    %rbx,%rsi
   120f0:	48 89 c7             	mov    %rax,%rdi
   120f3:	e8 49 47 ff ff       	callq  6841 <safe_add_func_int64_t_s_s>
   120f8:	48 89 c2             	mov    %rax,%rdx
   120fb:	48 b8 f4 63 5b 5a 4f 	movabs $0x450b9b4f5a5b63f4,%rax
   12102:	9b 0b 45 
   12105:	48 39 c2             	cmp    %rax,%rdx
   12108:	8b 05 aa b8 00 00    	mov    0xb8aa(%rip),%eax        # 1d9b8 <g_262>
   1210e:	48 98                	cltq   
   12110:	48 89 c7             	mov    %rax,%rdi
   12113:	e8 01 4f ff ff       	callq  7019 <safe_unary_minus_func_uint64_t_u>
   12118:	48 83 f8 03          	cmp    $0x3,%rax
   1211c:	0f 94 c0             	sete   %al
   1211f:	0f b6 d0             	movzbl %al,%edx
   12122:	0f be 85 d4 f4 ff ff 	movsbl -0xb2c(%rbp),%eax
   12129:	39 c2                	cmp    %eax,%edx
   1212b:	0f 9d c0             	setge  %al
   1212e:	0f b6 c0             	movzbl %al,%eax
   12131:	48 c7 c6 fb ff ff ff 	mov    $0xfffffffffffffffb,%rsi
   12138:	48 89 c7             	mov    %rax,%rdi
   1213b:	e8 b7 48 ff ff       	callq  69f7 <safe_div_func_int64_t_s_s>
   12140:	21 85 28 f5 ff ff    	and    %eax,-0xad8(%rbp)
   12146:	48 8b 85 d8 f5 ff ff 	mov    -0xa28(%rbp),%rax
   1214d:	e9 9e 0a 00 00       	jmpq   12bf0 <func_48+0x1a8f>
   12152:	0f b7 85 8e f7 ff ff 	movzwl -0x872(%rbp),%eax
   12159:	66 85 c0             	test   %ax,%ax
   1215c:	75 26                	jne    12184 <func_48+0x1023>
   1215e:	48 8b 85 e0 f4 ff ff 	mov    -0xb20(%rbp),%rax
   12165:	c7 00 01 00 00 00    	movl   $0x1,(%rax)
   1216b:	80 85 e8 f4 ff ff 01 	addb   $0x1,-0xb18(%rbp)
   12172:	80 bd e8 f4 ff ff 01 	cmpb   $0x1,-0xb18(%rbp)
   12179:	0f 86 34 fa ff ff    	jbe    11bb3 <func_48+0xa52>
   1217f:	eb 04                	jmp    12185 <func_48+0x1024>
   12181:	90                   	nop
   12182:	eb 01                	jmp    12185 <func_48+0x1024>
   12184:	90                   	nop
   12185:	66 c7 05 e8 b3 00 00 	movw   $0x1,0xb3e8(%rip)        # 1d576 <g_196>
   1218c:	01 00 
   1218e:	e9 73 06 00 00       	jmpq   12806 <func_48+0x16a5>
   12193:	66 c7 85 f4 f4 ff ff 	movw   $0x4,-0xb0c(%rbp)
   1219a:	04 00 
   1219c:	48 8d 85 40 fc ff ff 	lea    -0x3c0(%rbp),%rax
   121a3:	48 8d 15 b6 71 00 00 	lea    0x71b6(%rip),%rdx        # 19360 <g_1879+0x12e0>
   121aa:	b9 70 00 00 00       	mov    $0x70,%ecx
   121af:	48 89 c7             	mov    %rax,%rdi
   121b2:	48 89 d6             	mov    %rdx,%rsi
   121b5:	f3 48 a5             	rep movsq %ds:(%rsi),%es:(%rdi)
   121b8:	48 8d 05 01 b8 00 00 	lea    0xb801(%rip),%rax        # 1d9c0 <g_296>
   121bf:	48 89 85 78 f6 ff ff 	mov    %rax,-0x988(%rbp)
   121c6:	48 8d 85 fc f4 ff ff 	lea    -0xb04(%rbp),%rax
   121cd:	48 89 85 b0 f8 ff ff 	mov    %rax,-0x750(%rbp)
   121d4:	48 8d 05 95 b3 00 00 	lea    0xb395(%rip),%rax        # 1d570 <g_153>
   121db:	48 89 85 b8 f8 ff ff 	mov    %rax,-0x748(%rbp)
   121e2:	48 8d 85 fc f4 ff ff 	lea    -0xb04(%rbp),%rax
   121e9:	48 89 85 c0 f8 ff ff 	mov    %rax,-0x740(%rbp)
   121f0:	48 8d 05 79 b3 00 00 	lea    0xb379(%rip),%rax        # 1d570 <g_153>
   121f7:	48 89 85 c8 f8 ff ff 	mov    %rax,-0x738(%rbp)
   121fe:	48 8d 85 fc f4 ff ff 	lea    -0xb04(%rbp),%rax
   12205:	48 89 85 d0 f8 ff ff 	mov    %rax,-0x730(%rbp)
   1220c:	48 8d 05 5d b3 00 00 	lea    0xb35d(%rip),%rax        # 1d570 <g_153>
   12213:	48 89 85 d8 f8 ff ff 	mov    %rax,-0x728(%rbp)
   1221a:	48 8d 85 fc f4 ff ff 	lea    -0xb04(%rbp),%rax
   12221:	48 89 85 e0 f8 ff ff 	mov    %rax,-0x720(%rbp)
   12228:	48 8d 05 41 b3 00 00 	lea    0xb341(%rip),%rax        # 1d570 <g_153>
   1222f:	48 89 85 e8 f8 ff ff 	mov    %rax,-0x718(%rbp)
   12236:	48 8d 05 33 b3 00 00 	lea    0xb333(%rip),%rax        # 1d570 <g_153>
   1223d:	48 89 85 f0 f8 ff ff 	mov    %rax,-0x710(%rbp)
   12244:	48 c7 85 f8 f8 ff ff 	movq   $0x0,-0x708(%rbp)
   1224b:	00 00 00 00 
   1224f:	48 c7 85 00 f9 ff ff 	movq   $0x0,-0x700(%rbp)
   12256:	00 00 00 00 
   1225a:	48 8d 05 0f b3 00 00 	lea    0xb30f(%rip),%rax        # 1d570 <g_153>
   12261:	48 89 85 08 f9 ff ff 	mov    %rax,-0x6f8(%rbp)
   12268:	48 8d 85 fc f4 ff ff 	lea    -0xb04(%rbp),%rax
   1226f:	48 89 85 10 f9 ff ff 	mov    %rax,-0x6f0(%rbp)
   12276:	48 8d 05 f3 b2 00 00 	lea    0xb2f3(%rip),%rax        # 1d570 <g_153>
   1227d:	48 89 85 18 f9 ff ff 	mov    %rax,-0x6e8(%rbp)
   12284:	48 c7 85 20 f9 ff ff 	movq   $0x0,-0x6e0(%rbp)
   1228b:	00 00 00 00 
   1228f:	48 8d 05 da b2 00 00 	lea    0xb2da(%rip),%rax        # 1d570 <g_153>
   12296:	48 89 85 28 f9 ff ff 	mov    %rax,-0x6d8(%rbp)
   1229d:	48 8d 05 cc b2 00 00 	lea    0xb2cc(%rip),%rax        # 1d570 <g_153>
   122a4:	48 89 85 30 f9 ff ff 	mov    %rax,-0x6d0(%rbp)
   122ab:	48 8d 85 fc f4 ff ff 	lea    -0xb04(%rbp),%rax
   122b2:	48 89 85 38 f9 ff ff 	mov    %rax,-0x6c8(%rbp)
   122b9:	48 8d 85 fc f4 ff ff 	lea    -0xb04(%rbp),%rax
   122c0:	48 89 85 40 f9 ff ff 	mov    %rax,-0x6c0(%rbp)
   122c7:	48 8d 85 fc f4 ff ff 	lea    -0xb04(%rbp),%rax
   122ce:	48 89 85 48 f9 ff ff 	mov    %rax,-0x6b8(%rbp)
   122d5:	48 8d 85 fc f4 ff ff 	lea    -0xb04(%rbp),%rax
   122dc:	48 89 85 50 f9 ff ff 	mov    %rax,-0x6b0(%rbp)
   122e3:	48 c7 85 58 f9 ff ff 	movq   $0x0,-0x6a8(%rbp)
   122ea:	00 00 00 00 
   122ee:	48 8d 85 fc f4 ff ff 	lea    -0xb04(%rbp),%rax
   122f5:	48 89 85 60 f9 ff ff 	mov    %rax,-0x6a0(%rbp)
   122fc:	48 8d 85 fc f4 ff ff 	lea    -0xb04(%rbp),%rax
   12303:	48 89 85 68 f9 ff ff 	mov    %rax,-0x698(%rbp)
   1230a:	48 8d 85 98 f5 ff ff 	lea    -0xa68(%rbp),%rax
   12311:	48 89 85 80 f6 ff ff 	mov    %rax,-0x980(%rbp)
   12318:	c7 05 96 b6 00 00 00 	movl   $0x0,0xb696(%rip)        # 1d9b8 <g_262>
   1231f:	00 00 00 
   12322:	e9 a3 00 00 00       	jmpq   123ca <func_48+0x1269>
   12327:	48 8d 05 da b1 00 00 	lea    0xb1da(%rip),%rax        # 1d508 <g_83>
   1232e:	48 89 85 90 f6 ff ff 	mov    %rax,-0x970(%rbp)
   12335:	48 8d 05 38 b5 00 00 	lea    0xb538(%rip),%rax        # 1d874 <g_212+0x2f4>
   1233c:	48 89 85 98 f6 ff ff 	mov    %rax,-0x968(%rbp)
   12343:	48 8d 05 6e b6 00 00 	lea    0xb66e(%rip),%rax        # 1d9b8 <g_262>
   1234a:	48 89 85 20 f7 ff ff 	mov    %rax,-0x8e0(%rbp)
   12351:	48 8d 05 50 b2 00 00 	lea    0xb250(%rip),%rax        # 1d5a8 <g_212+0x28>
   12358:	48 89 85 28 f7 ff ff 	mov    %rax,-0x8d8(%rbp)
   1235f:	48 8d 05 52 b6 00 00 	lea    0xb652(%rip),%rax        # 1d9b8 <g_262>
   12366:	48 89 85 30 f7 ff ff 	mov    %rax,-0x8d0(%rbp)
   1236d:	48 8d 05 44 b6 00 00 	lea    0xb644(%rip),%rax        # 1d9b8 <g_262>
   12374:	48 89 85 38 f7 ff ff 	mov    %rax,-0x8c8(%rbp)
   1237b:	48 8d 05 26 b2 00 00 	lea    0xb226(%rip),%rax        # 1d5a8 <g_212+0x28>
   12382:	48 89 85 40 f7 ff ff 	mov    %rax,-0x8c0(%rbp)
   12389:	48 8d 05 28 b6 00 00 	lea    0xb628(%rip),%rax        # 1d9b8 <g_262>
   12390:	48 89 85 48 f7 ff ff 	mov    %rax,-0x8b8(%rbp)
   12397:	48 8d 05 1a b6 00 00 	lea    0xb61a(%rip),%rax        # 1d9b8 <g_262>
   1239e:	48 89 85 50 f7 ff ff 	mov    %rax,-0x8b0(%rbp)
   123a5:	48 8d 05 fc b1 00 00 	lea    0xb1fc(%rip),%rax        # 1d5a8 <g_212+0x28>
   123ac:	48 89 85 58 f7 ff ff 	mov    %rax,-0x8a8(%rbp)
   123b3:	66 83 ad f4 f4 ff ff 	subw   $0x1,-0xb0c(%rbp)
   123ba:	01 
   123bb:	8b 05 f7 b5 00 00    	mov    0xb5f7(%rip),%eax        # 1d9b8 <g_262>
   123c1:	83 c0 01             	add    $0x1,%eax
   123c4:	89 05 ee b5 00 00    	mov    %eax,0xb5ee(%rip)        # 1d9b8 <g_262>
   123ca:	8b 05 e8 b5 00 00    	mov    0xb5e8(%rip),%eax        # 1d9b8 <g_262>
   123d0:	83 f8 01             	cmp    $0x1,%eax
   123d3:	0f 8e 4e ff ff ff    	jle    12327 <func_48+0x11c6>
   123d9:	0f b6 9d f3 f4 ff ff 	movzbl -0xb0d(%rbp),%ebx
   123e0:	0f b6 05 e5 b5 00 00 	movzbl 0xb5e5(%rip),%eax        # 1d9cc <g_307>
   123e7:	44 0f be e0          	movsbl %al,%r12d
   123eb:	8b 05 fb b5 00 00    	mov    0xb5fb(%rip),%eax        # 1d9ec <g_406+0xc>
   123f1:	c1 e0 0e             	shl    $0xe,%eax
   123f4:	c1 f8 0e             	sar    $0xe,%eax
   123f7:	41 89 c6             	mov    %eax,%r14d
   123fa:	0f b6 05 8f b6 00 00 	movzbl 0xb68f(%rip),%eax        # 1da90 <g_799>
   12401:	44 0f be e8          	movsbl %al,%r13d
   12405:	83 bd ec f4 ff ff 01 	cmpl   $0x1,-0xb14(%rbp)
   1240c:	0f 96 c0             	setbe  %al
   1240f:	0f b6 c0             	movzbl %al,%eax
   12412:	be 02 00 00 00       	mov    $0x2,%esi
   12417:	89 c7                	mov    %eax,%edi
   12419:	e8 c3 40 ff ff       	callq  64e1 <safe_lshift_func_int16_t_s_u>
   1241e:	48 0f bf d0          	movswq %ax,%rdx
   12422:	48 8b 85 d8 f5 ff ff 	mov    -0xa28(%rbp),%rax
   12429:	8b 00                	mov    (%rax),%eax
   1242b:	48 98                	cltq   
   1242d:	48 89 d6             	mov    %rdx,%rsi
   12430:	48 89 c7             	mov    %rax,%rdi
   12433:	e8 7c 45 ff ff       	callq  69b4 <safe_mod_func_int64_t_s_s>
   12438:	0f b7 c0             	movzwl %ax,%eax
   1243b:	be 04 00 00 00       	mov    $0x4,%esi
   12440:	89 c7                	mov    %eax,%edi
   12442:	e8 77 49 ff ff       	callq  6dbe <safe_lshift_func_uint16_t_u_s>
   12447:	0f b7 d0             	movzwl %ax,%edx
   1244a:	48 8b 85 d8 f4 ff ff 	mov    -0xb28(%rbp),%rax
   12451:	0f b6 00             	movzbl (%rax),%eax
   12454:	84 c0                	test   %al,%al
   12456:	75 0c                	jne    12464 <func_48+0x1303>
   12458:	0f b7 85 96 f7 ff ff 	movzwl -0x86a(%rbp),%eax
   1245f:	66 85 c0             	test   %ax,%ax
   12462:	74 07                	je     1246b <func_48+0x130a>
   12464:	b9 01 00 00 00       	mov    $0x1,%ecx
   12469:	eb 05                	jmp    12470 <func_48+0x130f>
   1246b:	b9 00 00 00 00       	mov    $0x0,%ecx
   12470:	8b 85 04 f5 ff ff    	mov    -0xafc(%rbp),%eax
   12476:	39 c1                	cmp    %eax,%ecx
   12478:	0f 9d c0             	setge  %al
   1247b:	0f b6 c0             	movzbl %al,%eax
   1247e:	39 c2                	cmp    %eax,%edx
   12480:	0f 95 c0             	setne  %al
   12483:	0f b6 c0             	movzbl %al,%eax
   12486:	44 89 ee             	mov    %r13d,%esi
   12489:	89 c7                	mov    %eax,%edi
   1248b:	e8 65 3f ff ff       	callq  63f5 <safe_mul_func_int16_t_s_s>
   12490:	0f bf d0             	movswl %ax,%edx
   12493:	48 8b 85 d8 f5 ff ff 	mov    -0xa28(%rbp),%rax
   1249a:	8b 00                	mov    (%rax),%eax
   1249c:	39 c2                	cmp    %eax,%edx
   1249e:	0f 9d c0             	setge  %al
   124a1:	44 21 f0             	and    %r14d,%eax
   124a4:	0f be c0             	movsbl %al,%eax
   124a7:	44 89 e6             	mov    %r12d,%esi
   124aa:	89 c7                	mov    %eax,%edi
   124ac:	e8 41 3d ff ff       	callq  61f2 <safe_sub_func_int8_t_s_s>
   124b1:	89 de                	mov    %ebx,%esi
   124b3:	bf ff ff ff ff       	mov    $0xffffffff,%edi
   124b8:	e8 42 42 ff ff       	callq  66ff <safe_div_func_int32_t_s_s>
   124bd:	48 8b 05 74 b6 00 00 	mov    0xb674(%rip),%rax        # 1db38 <g_870+0x98>
   124c4:	48 85 c0             	test   %rax,%rax
   124c7:	48 8b 05 0a db 00 00 	mov    0xdb0a(%rip),%rax        # 1ffd8 <g_110>
   124ce:	48 8b 00             	mov    (%rax),%rax
   124d1:	48 8b 00             	mov    (%rax),%rax
   124d4:	48 8b 00             	mov    (%rax),%rax
   124d7:	8b 08                	mov    (%rax),%ecx
   124d9:	48 8b 95 e0 f4 ff ff 	mov    -0xb20(%rbp),%rdx
   124e0:	8b 12                	mov    (%rdx),%edx
   124e2:	31 ca                	xor    %ecx,%edx
   124e4:	89 10                	mov    %edx,(%rax)
   124e6:	48 8b 85 e0 f4 ff ff 	mov    -0xb20(%rbp),%rax
   124ed:	8b 00                	mov    (%rax),%eax
   124ef:	85 c0                	test   %eax,%eax
   124f1:	0f 85 fa 02 00 00    	jne    127f1 <func_48+0x1690>
   124f7:	8b 05 5b b0 00 00    	mov    0xb05b(%rip),%eax        # 1d558 <g_84+0x38>
   124fd:	0f bf d8             	movswl %ax,%ebx
   12500:	0f b6 05 c5 b4 00 00 	movzbl 0xb4c5(%rip),%eax        # 1d9cc <g_307>
   12507:	83 c0 01             	add    $0x1,%eax
   1250a:	88 05 bc b4 00 00    	mov    %al,0xb4bc(%rip)        # 1d9cc <g_307>
   12510:	48 8b 85 d8 f5 ff ff 	mov    -0xa28(%rbp),%rax
   12517:	8b 00                	mov    (%rax),%eax
   12519:	0f bf d0             	movswl %ax,%edx
   1251c:	48 8b 8d 88 f9 ff ff 	mov    -0x678(%rbp),%rcx
   12523:	0f b6 85 e8 f4 ff ff 	movzbl -0xb18(%rbp),%eax
   1252a:	48 21 c8             	and    %rcx,%rax
   1252d:	48 89 85 88 f9 ff ff 	mov    %rax,-0x678(%rbp)
   12534:	48 8b 85 88 f9 ff ff 	mov    -0x678(%rbp),%rax
   1253b:	66 25 85 21          	and    $0x2185,%ax
   1253f:	89 c1                	mov    %eax,%ecx
   12541:	8b 85 04 f5 ff ff    	mov    -0xafc(%rbp),%eax
   12547:	31 c8                	xor    %ecx,%eax
   12549:	98                   	cwtl   
   1254a:	89 d6                	mov    %edx,%esi
   1254c:	89 c7                	mov    %eax,%edi
   1254e:	e8 60 3e ff ff       	callq  63b3 <safe_add_func_int16_t_s_s>
   12553:	0f b7 c0             	movzwl %ax,%eax
   12556:	be 22 36 00 00       	mov    $0x3622,%esi
   1255b:	89 c7                	mov    %eax,%edi
   1255d:	e8 2c 48 ff ff       	callq  6d8e <safe_div_func_uint16_t_u_u>
   12562:	0f b7 d0             	movzwl %ax,%edx
   12565:	48 8b 85 d8 f5 ff ff 	mov    -0xa28(%rbp),%rax
   1256c:	8b 00                	mov    (%rax),%eax
   1256e:	39 c2                	cmp    %eax,%edx
   12570:	0f 9c c0             	setl   %al
   12573:	0f b6 d0             	movzbl %al,%edx
   12576:	8b 85 44 fc ff ff    	mov    -0x3bc(%rbp),%eax
   1257c:	98                   	cwtl   
   1257d:	89 d6                	mov    %edx,%esi
   1257f:	89 c7                	mov    %eax,%edi
   12581:	e8 2d 3e ff ff       	callq  63b3 <safe_add_func_int16_t_s_s>
   12586:	98                   	cwtl   
   12587:	89 de                	mov    %ebx,%esi
   12589:	89 c7                	mov    %eax,%edi
   1258b:	e8 c5 3e ff ff       	callq  6455 <safe_div_func_int16_t_s_s>
   12590:	0f be d0             	movsbl %al,%edx
   12593:	48 8b 85 88 f5 ff ff 	mov    -0xa78(%rbp),%rax
   1259a:	0f b6 08             	movzbl (%rax),%ecx
   1259d:	8b 85 98 fe ff ff    	mov    -0x168(%rbp),%eax
   125a3:	89 c6                	mov    %eax,%esi
   125a5:	48 8b 85 88 f5 ff ff 	mov    -0xa78(%rbp),%rax
   125ac:	21 f1                	and    %esi,%ecx
   125ae:	88 08                	mov    %cl,(%rax)
   125b0:	0f b6 00             	movzbl (%rax),%eax
   125b3:	0f be c0             	movsbl %al,%eax
   125b6:	89 d6                	mov    %edx,%esi
   125b8:	89 c7                	mov    %eax,%edi
   125ba:	e8 72 3c ff ff       	callq  6231 <safe_mod_func_int8_t_s_s>
   125bf:	38 85 d4 f4 ff ff    	cmp    %al,-0xb2c(%rbp)
   125c5:	0f 9f c0             	setg   %al
   125c8:	0f b6 d0             	movzbl %al,%edx
   125cb:	48 8b 85 80 f6 ff ff 	mov    -0x980(%rbp),%rax
   125d2:	48 89 10             	mov    %rdx,(%rax)
   125d5:	48 8b 85 80 f6 ff ff 	mov    -0x980(%rbp),%rax
   125dc:	48 8b 10             	mov    (%rax),%rdx
   125df:	8b 05 37 b4 00 00    	mov    0xb437(%rip),%eax        # 1da1c <g_510+0xc>
   125e5:	c1 e0 0e             	shl    $0xe,%eax
   125e8:	c1 f8 0e             	sar    $0xe,%eax
   125eb:	48 98                	cltq   
   125ed:	48 39 c2             	cmp    %rax,%rdx
   125f0:	0f 93 c0             	setae  %al
   125f3:	0f b6 d0             	movzbl %al,%edx
   125f6:	48 8b 85 20 f6 ff ff 	mov    -0x9e0(%rbp),%rax
   125fd:	66 89 10             	mov    %dx,(%rax)
   12600:	0f b6 05 c6 b3 00 00 	movzbl 0xb3c6(%rip),%eax        # 1d9cd <g_360>
   12607:	0f be d0             	movsbl %al,%edx
   1260a:	48 8b 85 78 f6 ff ff 	mov    -0x988(%rbp),%rax
   12611:	48 bb d4 20 ce 69 a8 	movabs $0x811837a869ce20d4,%rbx
   12618:	37 18 81 
   1261b:	48 89 18             	mov    %rbx,(%rax)
   1261e:	0f b6 85 e8 f4 ff ff 	movzbl -0xb18(%rbp),%eax
   12625:	0f be c0             	movsbl %al,%eax
   12628:	89 d6                	mov    %edx,%esi
   1262a:	89 c7                	mov    %eax,%edi
   1262c:	e8 e1 3b ff ff       	callq  6212 <safe_mul_func_int8_t_s_s>
   12631:	66 98                	cbtw   
   12633:	0f b7 c0             	movzwl %ax,%eax
   12636:	89 c6                	mov    %eax,%esi
   12638:	bf ff ff 00 00       	mov    $0xffff,%edi
   1263d:	e8 4c 47 ff ff       	callq  6d8e <safe_div_func_uint16_t_u_u>
   12642:	66 3d 41 a3          	cmp    $0xa341,%ax
   12646:	48 8b 05 3b da 00 00 	mov    0xda3b(%rip),%rax        # 20088 <g_798>
   1264d:	0f b6 00             	movzbl (%rax),%eax
   12650:	48 0f be d0          	movsbq %al,%rdx
   12654:	48 8b 85 98 f5 ff ff 	mov    -0xa68(%rbp),%rax
   1265b:	48 39 c2             	cmp    %rax,%rdx
   1265e:	0f 92 c0             	setb   %al
   12661:	0f b6 d0             	movzbl %al,%edx
   12664:	0f b6 85 e8 f4 ff ff 	movzbl -0xb18(%rbp),%eax
   1266b:	89 d6                	mov    %edx,%esi
   1266d:	89 c7                	mov    %eax,%edi
   1266f:	e8 44 48 ff ff       	callq  6eb8 <safe_add_func_uint32_t_u_u>
   12674:	8b 95 0c f5 ff ff    	mov    -0xaf4(%rbp),%edx
   1267a:	31 d0                	xor    %edx,%eax
   1267c:	89 85 0c f5 ff ff    	mov    %eax,-0xaf4(%rbp)
   12682:	8b 95 0c f5 ff ff    	mov    -0xaf4(%rbp),%edx
   12688:	8b 85 30 fd ff ff    	mov    -0x2d0(%rbp),%eax
   1268e:	39 c2                	cmp    %eax,%edx
   12690:	74 0c                	je     1269e <func_48+0x153d>
   12692:	48 8b 85 e0 f4 ff ff 	mov    -0xb20(%rbp),%rax
   12699:	e9 52 05 00 00       	jmpq   12bf0 <func_48+0x1a8f>
   1269e:	48 8d 05 fb d9 00 00 	lea    0xd9fb(%rip),%rax        # 200a0 <g_902>
   126a5:	48 89 85 88 f6 ff ff 	mov    %rax,-0x978(%rbp)
   126ac:	48 8b 15 ed d9 00 00 	mov    0xd9ed(%rip),%rdx        # 200a0 <g_902>
   126b3:	48 8b 85 88 f6 ff ff 	mov    -0x978(%rbp),%rax
   126ba:	48 89 10             	mov    %rdx,(%rax)
   126bd:	80 bd f3 f4 ff ff 00 	cmpb   $0x0,-0xb0d(%rbp)
   126c4:	0f 85 2a 01 00 00    	jne    127f4 <func_48+0x1693>
   126ca:	c7 05 34 ae 00 00 01 	movl   $0x1,0xae34(%rip)        # 1d508 <g_83>
   126d1:	00 00 00 
   126d4:	e9 08 01 00 00       	jmpq   127e1 <func_48+0x1680>
   126d9:	48 0f be 85 d4 f4 ff 	movsbq -0xb2c(%rbp),%rax
   126e0:	ff 
   126e1:	48 8b 15 38 b4 00 00 	mov    0xb438(%rip),%rdx        # 1db20 <g_870+0x80>
   126e8:	48 89 c6             	mov    %rax,%rsi
   126eb:	48 89 d7             	mov    %rdx,%rdi
   126ee:	e8 bc 49 ff ff       	callq  70af <safe_div_func_uint64_t_u_u>
   126f3:	48 89 c3             	mov    %rax,%rbx
   126f6:	48 8b 05 8b d9 00 00 	mov    0xd98b(%rip),%rax        # 20088 <g_798>
   126fd:	0f b6 00             	movzbl (%rax),%eax
   12700:	0f be d0             	movsbl %al,%edx
   12703:	0f b7 85 78 f7 ff ff 	movzwl -0x888(%rbp),%eax
   1270a:	0f be c0             	movsbl %al,%eax
   1270d:	89 d6                	mov    %edx,%esi
   1270f:	89 c7                	mov    %eax,%edi
   12711:	e8 be 3a ff ff       	callq  61d4 <safe_add_func_int8_t_s_s>
   12716:	48 8b 85 d8 f4 ff ff 	mov    -0xb28(%rbp),%rax
   1271d:	0f b6 00             	movzbl (%rax),%eax
   12720:	83 c8 01             	or     $0x1,%eax
   12723:	0f b6 c0             	movzbl %al,%eax
   12726:	48 c7 c6 fc ff ff ff 	mov    $0xfffffffffffffffc,%rsi
   1272d:	48 89 c7             	mov    %rax,%rdi
   12730:	e8 73 41 ff ff       	callq  68a8 <safe_sub_func_int64_t_s_s>
   12735:	0f b6 d0             	movzbl %al,%edx
   12738:	48 8b 85 b8 f6 ff ff 	mov    -0x948(%rbp),%rax
   1273f:	48 85 c0             	test   %rax,%rax
   12742:	0f 95 c0             	setne  %al
   12745:	0f b6 c8             	movzbl %al,%ecx
   12748:	0f b6 85 e8 f4 ff ff 	movzbl -0xb18(%rbp),%eax
   1274f:	39 c1                	cmp    %eax,%ecx
   12751:	0f 9c c0             	setl   %al
   12754:	0f b6 c0             	movzbl %al,%eax
   12757:	89 d6                	mov    %edx,%esi
   12759:	89 c7                	mov    %eax,%edi
   1275b:	e8 4e 44 ff ff       	callq  6bae <safe_mod_func_uint8_t_u_u>
   12760:	0f b6 d0             	movzbl %al,%edx
   12763:	8b 05 df a8 00 00    	mov    0xa8df(%rip),%eax        # 1d048 <g_5+0x8>
   12769:	39 c2                	cmp    %eax,%edx
   1276b:	0f 95 c0             	setne  %al
   1276e:	0f b6 c0             	movzbl %al,%eax
   12771:	48 39 c3             	cmp    %rax,%rbx
   12774:	0f 93 c0             	setae  %al
   12777:	0f b6 d0             	movzbl %al,%edx
   1277a:	0f be 85 d4 f4 ff ff 	movsbl -0xb2c(%rbp),%eax
   12781:	89 d6                	mov    %edx,%esi
   12783:	89 c7                	mov    %eax,%edi
   12785:	e8 ab 3b ff ff       	callq  6335 <safe_rshift_func_int8_t_s_s>
   1278a:	0f be 85 d4 f4 ff ff 	movsbl -0xb2c(%rbp),%eax
   12791:	89 85 04 f5 ff ff    	mov    %eax,-0xafc(%rbp)
   12797:	8b 85 04 f5 ff ff    	mov    -0xafc(%rbp),%eax
   1279d:	85 c0                	test   %eax,%eax
   1279f:	74 18                	je     127b9 <func_48+0x1658>
   127a1:	48 8b 05 e8 d8 00 00 	mov    0xd8e8(%rip),%rax        # 20090 <g_797>
   127a8:	48 8b 00             	mov    (%rax),%rax
   127ab:	0f b6 00             	movzbl (%rax),%eax
   127ae:	84 c0                	test   %al,%al
   127b0:	74 07                	je     127b9 <func_48+0x1658>
   127b2:	ba 01 00 00 00       	mov    $0x1,%edx
   127b7:	eb 05                	jmp    127be <func_48+0x165d>
   127b9:	ba 00 00 00 00       	mov    $0x0,%edx
   127be:	48 8b 85 e0 f4 ff ff 	mov    -0xb20(%rbp),%rax
   127c5:	8b 00                	mov    (%rax),%eax
   127c7:	31 c2                	xor    %eax,%edx
   127c9:	48 8b 85 e0 f4 ff ff 	mov    -0xb20(%rbp),%rax
   127d0:	89 10                	mov    %edx,(%rax)
   127d2:	8b 05 30 ad 00 00    	mov    0xad30(%rip),%eax        # 1d508 <g_83>
   127d8:	83 e8 01             	sub    $0x1,%eax
   127db:	89 05 27 ad 00 00    	mov    %eax,0xad27(%rip)        # 1d508 <g_83>
   127e1:	8b 05 21 ad 00 00    	mov    0xad21(%rip),%eax        # 1d508 <g_83>
   127e7:	85 c0                	test   %eax,%eax
   127e9:	0f 89 ea fe ff ff    	jns    126d9 <func_48+0x1578>
   127ef:	eb 04                	jmp    127f5 <func_48+0x1694>
   127f1:	90                   	nop
   127f2:	eb 01                	jmp    127f5 <func_48+0x1694>
   127f4:	90                   	nop
   127f5:	0f b7 05 7a ad 00 00 	movzwl 0xad7a(%rip),%eax        # 1d576 <g_196>
   127fc:	83 e8 01             	sub    $0x1,%eax
   127ff:	66 89 05 70 ad 00 00 	mov    %ax,0xad70(%rip)        # 1d576 <g_196>
   12806:	0f b7 05 69 ad 00 00 	movzwl 0xad69(%rip),%eax        # 1d576 <g_196>
   1280d:	66 85 c0             	test   %ax,%ax
   12810:	0f 89 7d f9 ff ff    	jns    12193 <func_48+0x1032>
   12816:	83 ad 10 f5 ff ff 01 	subl   $0x1,-0xaf0(%rbp)
   1281d:	c7 85 fc f4 ff ff 00 	movl   $0x0,-0xb04(%rbp)
   12824:	00 00 00 
   12827:	90                   	nop
   12828:	8b 85 fc f4 ff ff    	mov    -0xb04(%rbp),%eax
   1282e:	83 f8 01             	cmp    $0x1,%eax
   12831:	77 1a                	ja     1284d <func_48+0x16ec>
   12833:	48 8b 85 e0 f4 ff ff 	mov    -0xb20(%rbp),%rax
   1283a:	8b 00                	mov    (%rax),%eax
   1283c:	85 c0                	test   %eax,%eax
   1283e:	75 0c                	jne    1284c <func_48+0x16eb>
   12840:	48 8b 85 e0 f4 ff ff 	mov    -0xb20(%rbp),%rax
   12847:	e9 a4 03 00 00       	jmpq   12bf0 <func_48+0x1a8f>
   1284c:	90                   	nop
   1284d:	8b 05 8d ed 00 00    	mov    0xed8d(%rip),%eax        # 215e0 <g_302>
   12853:	83 c0 01             	add    $0x1,%eax
   12856:	89 05 84 ed 00 00    	mov    %eax,0xed84(%rip)        # 215e0 <g_302>
   1285c:	8b 05 7e ed 00 00    	mov    0xed7e(%rip),%eax        # 215e0 <g_302>
   12862:	83 f8 01             	cmp    $0x1,%eax
   12865:	0f 8e 56 f1 ff ff    	jle    119c1 <func_48+0x860>
   1286b:	8b 05 f3 a7 00 00    	mov    0xa7f3(%rip),%eax        # 1d064 <g_47>
   12871:	83 c0 01             	add    $0x1,%eax
   12874:	89 05 ea a7 00 00    	mov    %eax,0xa7ea(%rip)        # 1d064 <g_47>
   1287a:	8b 05 e4 a7 00 00    	mov    0xa7e4(%rip),%eax        # 1d064 <g_47>
   12880:	83 f8 01             	cmp    $0x1,%eax
   12883:	0f 8e c2 ee ff ff    	jle    1174b <func_48+0x5ea>
   12889:	66 83 85 f6 f4 ff ff 	addw   $0x1,-0xb0a(%rbp)
   12890:	01 
   12891:	48 8b 85 d8 f4 ff ff 	mov    -0xb28(%rbp),%rax
   12898:	0f b6 00             	movzbl (%rax),%eax
   1289b:	83 c8 02             	or     $0x2,%eax
   1289e:	89 c2                	mov    %eax,%edx
   128a0:	48 8b 85 d8 f4 ff ff 	mov    -0xb28(%rbp),%rax
   128a7:	88 10                	mov    %dl,(%rax)
   128a9:	48 8b 85 d8 f4 ff ff 	mov    -0xb28(%rbp),%rax
   128b0:	0f b6 00             	movzbl (%rax),%eax
   128b3:	0f b6 d0             	movzbl %al,%edx
   128b6:	48 8d 85 90 f5 ff ff 	lea    -0xa70(%rbp),%rax
   128bd:	48 39 85 c8 f5 ff ff 	cmp    %rax,-0xa38(%rbp)
   128c4:	0f 94 c0             	sete   %al
   128c7:	0f b6 c0             	movzbl %al,%eax
   128ca:	89 d6                	mov    %edx,%esi
   128cc:	89 c7                	mov    %eax,%edi
   128ce:	e8 c0 42 ff ff       	callq  6b93 <safe_mul_func_uint8_t_u_u>
   128d3:	0f b6 d0             	movzbl %al,%edx
   128d6:	0f b6 05 eb ec 00 00 	movzbl 0xeceb(%rip),%eax        # 215c8 <g_85>
   128dd:	0f be c0             	movsbl %al,%eax
   128e0:	39 c2                	cmp    %eax,%edx
   128e2:	0f 95 c0             	setne  %al
   128e5:	0f b6 c0             	movzbl %al,%eax
   128e8:	66 89 85 aa f6 ff ff 	mov    %ax,-0x956(%rbp)
   128ef:	0f b7 85 aa f6 ff ff 	movzwl -0x956(%rbp),%eax
   128f6:	66 85 c0             	test   %ax,%ax
   128f9:	0f 84 8c 02 00 00    	je     12b8b <func_48+0x1a2a>
   128ff:	48 c7 85 00 f6 ff ff 	movq   $0xfffffffffffffff6,-0xa00(%rbp)
   12906:	f6 ff ff ff 
   1290a:	c7 85 6c f5 ff ff 54 	movl   $0x373f4854,-0xa94(%rbp)
   12911:	48 3f 37 
   12914:	c7 85 70 f5 ff ff fe 	movl   $0xfffffffe,-0xa90(%rbp)
   1291b:	ff ff ff 
   1291e:	c7 85 b0 f8 ff ff 01 	movl   $0x1,-0x750(%rbp)
   12925:	00 00 00 
   12928:	c7 85 b4 f8 ff ff 01 	movl   $0x1,-0x74c(%rbp)
   1292f:	00 00 00 
   12932:	c7 85 b8 f8 ff ff 01 	movl   $0x1,-0x748(%rbp)
   12939:	00 00 00 
   1293c:	c7 85 bc f8 ff ff 01 	movl   $0x1,-0x744(%rbp)
   12943:	00 00 00 
   12946:	c7 85 c0 f8 ff ff 01 	movl   $0x1,-0x740(%rbp)
   1294d:	00 00 00 
   12950:	c7 85 c4 f8 ff ff 01 	movl   $0x1,-0x73c(%rbp)
   12957:	00 00 00 
   1295a:	c7 85 c8 f8 ff ff 01 	movl   $0x1,-0x738(%rbp)
   12961:	00 00 00 
   12964:	c7 85 cc f8 ff ff 01 	movl   $0x1,-0x734(%rbp)
   1296b:	00 00 00 
   1296e:	66 c7 85 fa f4 ff ff 	movw   $0x3bd0,-0xb06(%rbp)
   12975:	d0 3b 
   12977:	48 8b 85 00 f6 ff ff 	mov    -0xa00(%rbp),%rax
   1297e:	0f b6 d8             	movzbl %al,%ebx
   12981:	0f b7 05 88 b0 00 00 	movzwl 0xb088(%rip),%eax        # 1da10 <g_510>
   12988:	c1 e0 04             	shl    $0x4,%eax
   1298b:	66 c1 f8 04          	sar    $0x4,%ax
   1298f:	4c 0f bf e0          	movswq %ax,%r12
   12993:	8b 05 a7 a6 00 00    	mov    0xa6a7(%rip),%eax        # 1d040 <g_5>
   12999:	0f bf d0             	movswl %ax,%edx
   1299c:	0f b6 85 e8 f4 ff ff 	movzbl -0xb18(%rbp),%eax
   129a3:	89 d6                	mov    %edx,%esi
   129a5:	89 c7                	mov    %eax,%edi
   129a7:	e8 49 3a ff ff       	callq  63f5 <safe_mul_func_int16_t_s_s>
   129ac:	48 0f bf c0          	movswq %ax,%rax
   129b0:	4c 89 e6             	mov    %r12,%rsi
   129b3:	48 89 c7             	mov    %rax,%rdi
   129b6:	e8 73 46 ff ff       	callq  702e <safe_add_func_uint64_t_u_u>
   129bb:	0f b6 c0             	movzbl %al,%eax
   129be:	89 de                	mov    %ebx,%esi
   129c0:	89 c7                	mov    %eax,%edi
   129c2:	e8 cc 41 ff ff       	callq  6b93 <safe_mul_func_uint8_t_u_u>
   129c7:	0f b6 d0             	movzbl %al,%edx
   129ca:	48 8b 85 b8 f5 ff ff 	mov    -0xa48(%rbp),%rax
   129d1:	48 89 d6             	mov    %rdx,%rsi
   129d4:	48 89 c7             	mov    %rax,%rdi
   129d7:	e8 d3 46 ff ff       	callq  70af <safe_div_func_uint64_t_u_u>
   129dc:	48 89 c2             	mov    %rax,%rdx
   129df:	48 8b 05 f2 d5 00 00 	mov    0xd5f2(%rip),%rax        # 1ffd8 <g_110>
   129e6:	48 8b 00             	mov    (%rax),%rax
   129e9:	48 8b 00             	mov    (%rax),%rax
   129ec:	48 8b 00             	mov    (%rax),%rax
   129ef:	89 10                	mov    %edx,(%rax)
   129f1:	c7 05 e9 eb 00 00 00 	movl   $0x0,0xebe9(%rip)        # 215e4 <g_402>
   129f8:	00 00 00 
   129fb:	e9 7a 01 00 00       	jmpq   12b7a <func_48+0x1a19>
   12a00:	c7 85 74 f5 ff ff 04 	movl   $0x4,-0xa8c(%rbp)
   12a07:	00 00 00 
   12a0a:	48 c7 85 08 f6 ff ff 	movq   $0x0,-0x9f8(%rbp)
   12a11:	00 00 00 00 
   12a15:	48 8d 05 1c b1 00 00 	lea    0xb11c(%rip),%rax        # 1db38 <g_870+0x98>
   12a1c:	48 89 85 10 f6 ff ff 	mov    %rax,-0x9f0(%rbp)
   12a23:	c7 85 20 f5 ff ff 00 	movl   $0x0,-0xae0(%rbp)
   12a2a:	00 00 00 
   12a2d:	eb 1e                	jmp    12a4d <func_48+0x18ec>
   12a2f:	8b 85 20 f5 ff ff    	mov    -0xae0(%rbp),%eax
   12a35:	48 98                	cltq   
   12a37:	48 8d 95 90 f5 ff ff 	lea    -0xa70(%rbp),%rdx
   12a3e:	48 89 94 c5 40 fc ff 	mov    %rdx,-0x3c0(%rbp,%rax,8)
   12a45:	ff 
   12a46:	83 85 20 f5 ff ff 01 	addl   $0x1,-0xae0(%rbp)
   12a4d:	83 bd 20 f5 ff ff 05 	cmpl   $0x5,-0xae0(%rbp)
   12a54:	7e d9                	jle    12a2f <func_48+0x18ce>
   12a56:	48 8b 05 13 b0 00 00 	mov    0xb013(%rip),%rax        # 1da70 <g_727>
   12a5d:	c1 e0 04             	shl    $0x4,%eax
   12a60:	66 c1 f8 04          	sar    $0x4,%ax
   12a64:	0f bf d8             	movswl %ax,%ebx
   12a67:	44 8b 25 d2 a5 00 00 	mov    0xa5d2(%rip),%r12d        # 1d040 <g_5>
   12a6e:	bf 00 00 00 00       	mov    $0x0,%edi
   12a73:	e8 71 42 ff ff       	callq  6ce9 <safe_unary_minus_func_uint16_t_u>
   12a78:	0f b7 c0             	movzwl %ax,%eax
   12a7b:	41 39 c4             	cmp    %eax,%r12d
   12a7e:	0f 95 c0             	setne  %al
   12a81:	44 0f b6 e8          	movzbl %al,%r13d
   12a85:	0f b7 85 9c f8 ff ff 	movzwl -0x764(%rbp),%eax
   12a8c:	48 0f bf c0          	movswq %ax,%rax
   12a90:	48 8b 95 b8 f5 ff ff 	mov    -0xa48(%rbp),%rdx
   12a97:	48 89 d6             	mov    %rdx,%rsi
   12a9a:	48 89 c7             	mov    %rax,%rdi
   12a9d:	e8 55 3f ff ff       	callq  69f7 <safe_div_func_int64_t_s_s>
   12aa2:	44 0f b6 e0          	movzbl %al,%r12d
   12aa6:	0f b7 85 fa f4 ff ff 	movzwl -0xb06(%rbp),%eax
   12aad:	0f be c0             	movsbl %al,%eax
   12ab0:	89 c7                	mov    %eax,%edi
   12ab2:	e8 08 37 ff ff       	callq  61bf <safe_unary_minus_func_int8_t_s>
   12ab7:	66 98                	cbtw   
   12ab9:	0f b7 c0             	movzwl %ax,%eax
   12abc:	be 00 00 00 00       	mov    $0x0,%esi
   12ac1:	89 c7                	mov    %eax,%edi
   12ac3:	e8 b2 43 ff ff       	callq  6e7a <safe_rshift_func_uint16_t_u_u>
   12ac8:	0f b6 c0             	movzbl %al,%eax
   12acb:	44 89 e6             	mov    %r12d,%esi
   12ace:	89 c7                	mov    %eax,%edi
   12ad0:	e8 be 40 ff ff       	callq  6b93 <safe_mul_func_uint8_t_u_u>
   12ad5:	0f b6 c0             	movzbl %al,%eax
   12ad8:	89 85 cc f8 ff ff    	mov    %eax,-0x734(%rbp)
   12ade:	8b 85 cc f8 ff ff    	mov    -0x734(%rbp),%eax
   12ae4:	41 39 c5             	cmp    %eax,%r13d
   12ae7:	0f 94 c0             	sete   %al
   12aea:	0f b6 c0             	movzbl %al,%eax
   12aed:	89 de                	mov    %ebx,%esi
   12aef:	89 c7                	mov    %eax,%edi
   12af1:	e8 84 43 ff ff       	callq  6e7a <safe_rshift_func_uint16_t_u_u>
   12af6:	0f b7 c0             	movzwl %ax,%eax
   12af9:	31 85 74 f5 ff ff    	xor    %eax,-0xa8c(%rbp)
   12aff:	8b 85 74 f5 ff ff    	mov    -0xa8c(%rbp),%eax
   12b05:	48 63 d0             	movslq %eax,%rdx
   12b08:	48 8b 85 10 f6 ff ff 	mov    -0x9f0(%rbp),%rax
   12b0f:	48 89 10             	mov    %rdx,(%rax)
   12b12:	48 8b 85 10 f6 ff ff 	mov    -0x9f0(%rbp),%rax
   12b19:	48 8b 00             	mov    (%rax),%rax
   12b1c:	48 89 c2             	mov    %rax,%rdx
   12b1f:	48 8b 05 9a ae 00 00 	mov    0xae9a(%rip),%rax        # 1d9c0 <g_296>
   12b26:	48 83 e8 01          	sub    $0x1,%rax
   12b2a:	48 89 05 8f ae 00 00 	mov    %rax,0xae8f(%rip)        # 1d9c0 <g_296>
   12b31:	48 8b 05 88 ae 00 00 	mov    0xae88(%rip),%rax        # 1d9c0 <g_296>
   12b38:	48 89 d6             	mov    %rdx,%rsi
   12b3b:	48 89 c7             	mov    %rax,%rdi
   12b3e:	e8 eb 44 ff ff       	callq  702e <safe_add_func_uint64_t_u_u>
   12b43:	89 c2                	mov    %eax,%edx
   12b45:	48 8b 85 d8 f5 ff ff 	mov    -0xa28(%rbp),%rax
   12b4c:	89 10                	mov    %edx,(%rax)
   12b4e:	48 8b 85 d8 f5 ff ff 	mov    -0xa28(%rbp),%rax
   12b55:	8b 10                	mov    (%rax),%edx
   12b57:	48 8b 85 e0 f5 ff ff 	mov    -0xa20(%rbp),%rax
   12b5e:	8b 00                	mov    (%rax),%eax
   12b60:	21 c2                	and    %eax,%edx
   12b62:	48 8b 85 e0 f5 ff ff 	mov    -0xa20(%rbp),%rax
   12b69:	89 10                	mov    %edx,(%rax)
   12b6b:	8b 05 73 ea 00 00    	mov    0xea73(%rip),%eax        # 215e4 <g_402>
   12b71:	83 c0 01             	add    $0x1,%eax
   12b74:	89 05 6a ea 00 00    	mov    %eax,0xea6a(%rip)        # 215e4 <g_402>
   12b7a:	8b 05 64 ea 00 00    	mov    0xea64(%rip),%eax        # 215e4 <g_402>
   12b80:	83 f8 15             	cmp    $0x15,%eax
   12b83:	0f 8f 77 fe ff ff    	jg     12a00 <func_48+0x189f>
   12b89:	eb 45                	jmp    12bd0 <func_48+0x1a6f>
   12b8b:	c7 85 5c f5 ff ff 37 	movl   $0xc773ac37,-0xaa4(%rbp)
   12b92:	ac 73 c7 
   12b95:	c7 85 60 f5 ff ff ff 	movl   $0xffffffff,-0xaa0(%rbp)
   12b9c:	ff ff ff 
   12b9f:	c7 85 64 f5 ff ff 1b 	movl   $0xcbaaa01b,-0xa9c(%rbp)
   12ba6:	a0 aa cb 
   12ba9:	c7 85 68 f5 ff ff 00 	movl   $0x0,-0xa98(%rbp)
   12bb0:	00 00 00 
   12bb3:	66 c7 85 f8 f4 ff ff 	movw   $0xffff,-0xb08(%rbp)
   12bba:	ff ff 
   12bbc:	8b 85 30 f5 ff ff    	mov    -0xad0(%rbp),%eax
   12bc2:	89 85 40 f5 ff ff    	mov    %eax,-0xac0(%rbp)
   12bc8:	66 83 85 f8 f4 ff ff 	addw   $0x1,-0xb08(%rbp)
   12bcf:	01 
   12bd0:	48 8b 85 e0 f4 ff ff 	mov    -0xb20(%rbp),%rax
   12bd7:	48 89 c7             	mov    %rax,%rdi
   12bda:	e8 16 14 00 00       	callq  13ff5 <func_59>
   12bdf:	48 8b 95 d0 f5 ff ff 	mov    -0xa30(%rbp),%rdx
   12be6:	48 89 02             	mov    %rax,(%rdx)
   12be9:	48 8b 85 e0 f4 ff ff 	mov    -0xb20(%rbp),%rax
   12bf0:	48 8b 5d c8          	mov    -0x38(%rbp),%rbx
   12bf4:	64 48 33 1c 25 28 00 	xor    %fs:0x28,%rbx
   12bfb:	00 00 
   12bfd:	74 05                	je     12c04 <func_48+0x1aa3>
   12bff:	e8 6c 34 ff ff       	callq  6070 <__stack_chk_fail@plt>
   12c04:	48 81 c4 18 0b 00 00 	add    $0xb18,%rsp
   12c0b:	5b                   	pop    %rbx
   12c0c:	41 5c                	pop    %r12
   12c0e:	41 5d                	pop    %r13
   12c10:	41 5e                	pop    %r14
   12c12:	41 5f                	pop    %r15
   12c14:	5d                   	pop    %rbp
   12c15:	c3                   	retq   

0000000000012c16 <func_54>:
   12c16:	f3 0f 1e fa          	endbr64 
   12c1a:	55                   	push   %rbp
   12c1b:	48 89 e5             	mov    %rsp,%rbp
   12c1e:	41 56                	push   %r14
   12c20:	41 55                	push   %r13
   12c22:	41 54                	push   %r12
   12c24:	53                   	push   %rbx
   12c25:	48 81 ec d0 07 00 00 	sub    $0x7d0,%rsp
   12c2c:	48 89 bd 28 f8 ff ff 	mov    %rdi,-0x7d8(%rbp)
   12c33:	89 f0                	mov    %esi,%eax
   12c35:	89 95 20 f8 ff ff    	mov    %edx,-0x7e0(%rbp)
   12c3b:	89 8d 1c f8 ff ff    	mov    %ecx,-0x7e4(%rbp)
   12c41:	88 85 24 f8 ff ff    	mov    %al,-0x7dc(%rbp)
   12c47:	64 48 8b 04 25 28 00 	mov    %fs:0x28,%rax
   12c4e:	00 00 
   12c50:	48 89 45 d8          	mov    %rax,-0x28(%rbp)
   12c54:	31 c0                	xor    %eax,%eax
   12c56:	c7 85 40 f8 ff ff a2 	movl   $0x3ef9d1a2,-0x7c0(%rbp)
   12c5d:	d1 f9 3e 
   12c60:	48 8d 05 99 a4 00 00 	lea    0xa499(%rip),%rax        # 1d100 <g_79+0x80>
   12c67:	48 89 85 b8 f8 ff ff 	mov    %rax,-0x748(%rbp)
   12c6e:	48 8d 05 83 d3 00 00 	lea    0xd383(%rip),%rax        # 1fff8 <g_626>
   12c75:	48 89 85 68 f8 ff ff 	mov    %rax,-0x798(%rbp)
   12c7c:	48 8d 85 68 f8 ff ff 	lea    -0x798(%rbp),%rax
   12c83:	48 89 85 c0 f8 ff ff 	mov    %rax,-0x740(%rbp)
   12c8a:	c7 85 5c f8 ff ff f8 	movl   $0xfffffff8,-0x7a4(%rbp)
   12c91:	ff ff ff 
   12c94:	c7 85 44 f8 ff ff 00 	movl   $0x0,-0x7bc(%rbp)
   12c9b:	00 00 00 
   12c9e:	c7 85 54 f8 ff ff 01 	movl   $0x1,-0x7ac(%rbp)
   12ca5:	00 00 00 
   12ca8:	48 c7 85 70 f8 ff ff 	movq   $0x0,-0x790(%rbp)
   12caf:	00 00 00 00 
   12cb3:	48 8d 85 70 f8 ff ff 	lea    -0x790(%rbp),%rax
   12cba:	48 89 85 78 f8 ff ff 	mov    %rax,-0x788(%rbp)
   12cc1:	48 8d 85 78 f8 ff ff 	lea    -0x788(%rbp),%rax
   12cc8:	48 89 85 80 f8 ff ff 	mov    %rax,-0x780(%rbp)
   12ccf:	48 8d 85 80 f8 ff ff 	lea    -0x780(%rbp),%rax
   12cd6:	48 89 85 c8 f8 ff ff 	mov    %rax,-0x738(%rbp)
   12cdd:	48 8d 85 78 f8 ff ff 	lea    -0x788(%rbp),%rax
   12ce4:	48 89 85 88 f8 ff ff 	mov    %rax,-0x778(%rbp)
   12ceb:	48 8d 85 88 f8 ff ff 	lea    -0x778(%rbp),%rax
   12cf2:	48 89 85 d0 f8 ff ff 	mov    %rax,-0x730(%rbp)
   12cf9:	48 8d 05 74 ab 00 00 	lea    0xab74(%rip),%rax        # 1d874 <g_212+0x2f4>
   12d00:	48 89 85 d8 f8 ff ff 	mov    %rax,-0x728(%rbp)
   12d07:	48 8d 85 44 f8 ff ff 	lea    -0x7bc(%rbp),%rax
   12d0e:	48 89 85 e0 f8 ff ff 	mov    %rax,-0x720(%rbp)
   12d15:	48 8d 85 40 f8 ff ff 	lea    -0x7c0(%rbp),%rax
   12d1c:	48 89 85 e8 f8 ff ff 	mov    %rax,-0x718(%rbp)
   12d23:	48 8d 05 3a a3 00 00 	lea    0xa33a(%rip),%rax        # 1d064 <g_47>
   12d2a:	48 89 85 f0 f8 ff ff 	mov    %rax,-0x710(%rbp)
   12d31:	48 8d 85 40 f8 ff ff 	lea    -0x7c0(%rbp),%rax
   12d38:	48 89 85 b0 fa ff ff 	mov    %rax,-0x550(%rbp)
   12d3f:	48 c7 85 b8 fa ff ff 	movq   $0x0,-0x548(%rbp)
   12d46:	00 00 00 00 
   12d4a:	48 8d 85 40 f8 ff ff 	lea    -0x7c0(%rbp),%rax
   12d51:	48 89 85 c0 fa ff ff 	mov    %rax,-0x540(%rbp)
   12d58:	48 c7 85 c8 fa ff ff 	movq   $0x0,-0x538(%rbp)
   12d5f:	00 00 00 00 
   12d63:	48 8d 85 40 f8 ff ff 	lea    -0x7c0(%rbp),%rax
   12d6a:	48 89 85 d0 fa ff ff 	mov    %rax,-0x530(%rbp)
   12d71:	48 c7 85 d8 fa ff ff 	movq   $0x0,-0x528(%rbp)
   12d78:	00 00 00 00 
   12d7c:	48 8d 85 40 f8 ff ff 	lea    -0x7c0(%rbp),%rax
   12d83:	48 89 85 e0 fa ff ff 	mov    %rax,-0x520(%rbp)
   12d8a:	48 c7 85 e8 fa ff ff 	movq   $0x0,-0x518(%rbp)
   12d91:	00 00 00 00 
   12d95:	48 8d 85 40 f8 ff ff 	lea    -0x7c0(%rbp),%rax
   12d9c:	48 89 85 f0 fa ff ff 	mov    %rax,-0x510(%rbp)
   12da3:	48 c7 85 f8 fa ff ff 	movq   $0x0,-0x508(%rbp)
   12daa:	00 00 00 00 
   12dae:	48 8d 85 40 f8 ff ff 	lea    -0x7c0(%rbp),%rax
   12db5:	48 89 85 00 fb ff ff 	mov    %rax,-0x500(%rbp)
   12dbc:	48 c7 85 08 fb ff ff 	movq   $0x0,-0x4f8(%rbp)
   12dc3:	00 00 00 00 
   12dc7:	48 8d 85 40 f8 ff ff 	lea    -0x7c0(%rbp),%rax
   12dce:	48 89 85 10 fb ff ff 	mov    %rax,-0x4f0(%rbp)
   12dd5:	48 c7 85 18 fb ff ff 	movq   $0x0,-0x4e8(%rbp)
   12ddc:	00 00 00 00 
   12de0:	48 8d 85 40 f8 ff ff 	lea    -0x7c0(%rbp),%rax
   12de7:	48 89 85 20 fb ff ff 	mov    %rax,-0x4e0(%rbp)
   12dee:	48 c7 85 28 fb ff ff 	movq   $0x0,-0x4d8(%rbp)
   12df5:	00 00 00 00 
   12df9:	c6 85 3d f8 ff ff 2e 	movb   $0x2e,-0x7c3(%rbp)
   12e00:	66 c7 85 3e f8 ff ff 	movw   $0xfff7,-0x7c2(%rbp)
   12e07:	f7 ff 
   12e09:	c7 85 50 f8 ff ff 00 	movl   $0x0,-0x7b0(%rbp)
   12e10:	00 00 00 
   12e13:	eb 45                	jmp    12e5a <func_54+0x244>
   12e15:	c7 85 58 f8 ff ff 00 	movl   $0x0,-0x7a8(%rbp)
   12e1c:	00 00 00 
   12e1f:	eb 29                	jmp    12e4a <func_54+0x234>
   12e21:	8b 85 58 f8 ff ff    	mov    -0x7a8(%rbp),%eax
   12e27:	48 98                	cltq   
   12e29:	8b 95 50 f8 ff ff    	mov    -0x7b0(%rbp),%edx
   12e2f:	48 63 d2             	movslq %edx,%rdx
   12e32:	48 01 d2             	add    %rdx,%rdx
   12e35:	48 01 d0             	add    %rdx,%rax
   12e38:	c7 84 85 80 f9 ff ff 	movl   $0x4,-0x680(%rbp,%rax,4)
   12e3f:	04 00 00 00 
   12e43:	83 85 58 f8 ff ff 01 	addl   $0x1,-0x7a8(%rbp)
   12e4a:	83 bd 58 f8 ff ff 01 	cmpl   $0x1,-0x7a8(%rbp)
   12e51:	7e ce                	jle    12e21 <func_54+0x20b>
   12e53:	83 85 50 f8 ff ff 01 	addl   $0x1,-0x7b0(%rbp)
   12e5a:	83 bd 50 f8 ff ff 05 	cmpl   $0x5,-0x7b0(%rbp)
   12e61:	7e b2                	jle    12e15 <func_54+0x1ff>
   12e63:	c7 85 50 f8 ff ff 00 	movl   $0x0,-0x7b0(%rbp)
   12e6a:	00 00 00 
   12e6d:	eb 1a                	jmp    12e89 <func_54+0x273>
   12e6f:	8b 85 50 f8 ff ff    	mov    -0x7b0(%rbp),%eax
   12e75:	48 98                	cltq   
   12e77:	c7 84 85 60 f9 ff ff 	movl   $0xfffffffd,-0x6a0(%rbp,%rax,4)
   12e7e:	fd ff ff ff 
   12e82:	83 85 50 f8 ff ff 01 	addl   $0x1,-0x7b0(%rbp)
   12e89:	83 bd 50 f8 ff ff 06 	cmpl   $0x6,-0x7b0(%rbp)
   12e90:	7e dd                	jle    12e6f <func_54+0x259>
   12e92:	90                   	nop
   12e93:	f3 0f 1e fa          	endbr64 
   12e97:	8b 85 20 f8 ff ff    	mov    -0x7e0(%rbp),%eax
   12e9d:	0f b7 d8             	movzwl %ax,%ebx
   12ea0:	be 02 00 00 00       	mov    $0x2,%esi
   12ea5:	bf 01 00 00 00       	mov    $0x1,%edi
   12eaa:	e8 86 34 ff ff       	callq  6335 <safe_rshift_func_int8_t_s_s>
   12eaf:	0f b6 95 24 f8 ff ff 	movzbl -0x7dc(%rbp),%edx
   12eb6:	38 d0                	cmp    %dl,%al
   12eb8:	0f 9c c0             	setl   %al
   12ebb:	0f b6 c0             	movzbl %al,%eax
   12ebe:	89 de                	mov    %ebx,%esi
   12ec0:	89 c7                	mov    %eax,%edi
   12ec2:	e8 38 3e ff ff       	callq  6cff <safe_add_func_uint16_t_u_u>
   12ec7:	0f b7 d0             	movzwl %ax,%edx
   12eca:	8b 85 40 f8 ff ff    	mov    -0x7c0(%rbp),%eax
   12ed0:	39 c2                	cmp    %eax,%edx
   12ed2:	0f 9e c0             	setle  %al
   12ed5:	0f b6 c0             	movzbl %al,%eax
   12ed8:	be b3 47 3d 38       	mov    $0x383d47b3,%esi
   12edd:	89 c7                	mov    %eax,%edi
   12edf:	e8 ec 3f ff ff       	callq  6ed0 <safe_sub_func_uint32_t_u_u>
   12ee4:	85 c0                	test   %eax,%eax
   12ee6:	74 11                	je     12ef9 <func_54+0x2e3>
   12ee8:	8b 85 40 f8 ff ff    	mov    -0x7c0(%rbp),%eax
   12eee:	85 c0                	test   %eax,%eax
   12ef0:	74 07                	je     12ef9 <func_54+0x2e3>
   12ef2:	b8 01 00 00 00       	mov    $0x1,%eax
   12ef7:	eb 05                	jmp    12efe <func_54+0x2e8>
   12ef9:	b8 00 00 00 00       	mov    $0x0,%eax
   12efe:	0f b7 d0             	movzwl %ax,%edx
   12f01:	8b 85 20 f8 ff ff    	mov    -0x7e0(%rbp),%eax
   12f07:	0f b7 c0             	movzwl %ax,%eax
   12f0a:	89 d6                	mov    %edx,%esi
   12f0c:	89 c7                	mov    %eax,%edi
   12f0e:	e8 49 3e ff ff       	callq  6d5c <safe_mod_func_uint16_t_u_u>
   12f13:	66 85 c0             	test   %ax,%ax
   12f16:	74 07                	je     12f1f <func_54+0x309>
   12f18:	b8 01 00 00 00       	mov    $0x1,%eax
   12f1d:	eb 05                	jmp    12f24 <func_54+0x30e>
   12f1f:	b8 00 00 00 00       	mov    $0x0,%eax
   12f24:	89 85 40 f8 ff ff    	mov    %eax,-0x7c0(%rbp)
   12f2a:	c6 05 97 e6 00 00 00 	movb   $0x0,0xe697(%rip)        # 215c8 <g_85>
   12f31:	e9 56 10 00 00       	jmpq   13f8c <func_54+0x1376>
   12f36:	48 8d 85 10 fc ff ff 	lea    -0x3f0(%rbp),%rax
   12f3d:	48 8d 15 9c 67 00 00 	lea    0x679c(%rip),%rdx        # 196e0 <g_1879+0x1660>
   12f44:	b9 28 00 00 00       	mov    $0x28,%ecx
   12f49:	48 89 c7             	mov    %rax,%rdi
   12f4c:	48 89 d6             	mov    %rdx,%rsi
   12f4f:	f3 48 a5             	rep movsq %ds:(%rsi),%es:(%rdi)
   12f52:	48 8d 85 68 f8 ff ff 	lea    -0x798(%rbp),%rax
   12f59:	48 89 85 b0 f8 ff ff 	mov    %rax,-0x750(%rbp)
   12f60:	c7 85 48 f8 ff ff bc 	movl   $0xb3ea5abc,-0x7b8(%rbp)
   12f67:	5a ea b3 
   12f6a:	48 8d 05 04 a6 00 00 	lea    0xa604(%rip),%rax        # 1d575 <g_157+0x1>
   12f71:	48 89 85 f8 f8 ff ff 	mov    %rax,-0x708(%rbp)
   12f78:	48 8d 05 71 a5 00 00 	lea    0xa571(%rip),%rax        # 1d4f0 <g_81+0x10>
   12f7f:	48 89 85 00 f9 ff ff 	mov    %rax,-0x700(%rbp)
   12f86:	48 8d 05 2b aa 00 00 	lea    0xaa2b(%rip),%rax        # 1d9b8 <g_262>
   12f8d:	48 89 85 08 f9 ff ff 	mov    %rax,-0x6f8(%rbp)
   12f94:	48 8d 05 ed aa 00 00 	lea    0xaaed(%rip),%rax        # 1da88 <g_735>
   12f9b:	48 89 85 10 f9 ff ff 	mov    %rax,-0x6f0(%rbp)
   12fa2:	48 8d 05 7b aa 00 00 	lea    0xaa7b(%rip),%rax        # 1da24 <g_521>
   12fa9:	48 89 85 b0 f9 ff ff 	mov    %rax,-0x650(%rbp)
   12fb0:	48 8d 05 6d aa 00 00 	lea    0xaa6d(%rip),%rax        # 1da24 <g_521>
   12fb7:	48 89 85 b8 f9 ff ff 	mov    %rax,-0x648(%rbp)
   12fbe:	48 8d 05 5f aa 00 00 	lea    0xaa5f(%rip),%rax        # 1da24 <g_521>
   12fc5:	48 89 85 c0 f9 ff ff 	mov    %rax,-0x640(%rbp)
   12fcc:	48 8d 05 51 aa 00 00 	lea    0xaa51(%rip),%rax        # 1da24 <g_521>
   12fd3:	48 89 85 c8 f9 ff ff 	mov    %rax,-0x638(%rbp)
   12fda:	48 8d 05 43 aa 00 00 	lea    0xaa43(%rip),%rax        # 1da24 <g_521>
   12fe1:	48 89 85 d0 f9 ff ff 	mov    %rax,-0x630(%rbp)
   12fe8:	48 8d 05 35 aa 00 00 	lea    0xaa35(%rip),%rax        # 1da24 <g_521>
   12fef:	48 89 85 d8 f9 ff ff 	mov    %rax,-0x628(%rbp)
   12ff6:	48 8d 05 27 aa 00 00 	lea    0xaa27(%rip),%rax        # 1da24 <g_521>
   12ffd:	48 89 85 e0 f9 ff ff 	mov    %rax,-0x620(%rbp)
   13004:	48 8d 05 19 aa 00 00 	lea    0xaa19(%rip),%rax        # 1da24 <g_521>
   1300b:	48 89 85 e8 f9 ff ff 	mov    %rax,-0x618(%rbp)
   13012:	c7 05 48 a0 00 00 f2 	movl   $0xfffffff2,0xa048(%rip)        # 1d064 <g_47>
   13019:	ff ff ff 
   1301c:	e9 1f 0e 00 00       	jmpq   13e40 <func_54+0x122a>
   13021:	48 8d 05 d0 cf 00 00 	lea    0xcfd0(%rip),%rax        # 1fff8 <g_626>
   13028:	48 89 85 30 fb ff ff 	mov    %rax,-0x4d0(%rbp)
   1302f:	48 8d 05 c2 cf 00 00 	lea    0xcfc2(%rip),%rax        # 1fff8 <g_626>
   13036:	48 89 85 38 fb ff ff 	mov    %rax,-0x4c8(%rbp)
   1303d:	48 8d 05 b4 cf 00 00 	lea    0xcfb4(%rip),%rax        # 1fff8 <g_626>
   13044:	48 89 85 40 fb ff ff 	mov    %rax,-0x4c0(%rbp)
   1304b:	48 8d 05 a6 cf 00 00 	lea    0xcfa6(%rip),%rax        # 1fff8 <g_626>
   13052:	48 89 85 48 fb ff ff 	mov    %rax,-0x4b8(%rbp)
   13059:	48 8d 05 98 cf 00 00 	lea    0xcf98(%rip),%rax        # 1fff8 <g_626>
   13060:	48 89 85 50 fb ff ff 	mov    %rax,-0x4b0(%rbp)
   13067:	48 8d 05 8a cf 00 00 	lea    0xcf8a(%rip),%rax        # 1fff8 <g_626>
   1306e:	48 89 85 58 fb ff ff 	mov    %rax,-0x4a8(%rbp)
   13075:	48 8d 05 7c cf 00 00 	lea    0xcf7c(%rip),%rax        # 1fff8 <g_626>
   1307c:	48 89 85 60 fb ff ff 	mov    %rax,-0x4a0(%rbp)
   13083:	48 8d 05 6e cf 00 00 	lea    0xcf6e(%rip),%rax        # 1fff8 <g_626>
   1308a:	48 89 85 68 fb ff ff 	mov    %rax,-0x498(%rbp)
   13091:	48 8d 05 60 cf 00 00 	lea    0xcf60(%rip),%rax        # 1fff8 <g_626>
   13098:	48 89 85 70 fb ff ff 	mov    %rax,-0x490(%rbp)
   1309f:	48 8d 05 52 cf 00 00 	lea    0xcf52(%rip),%rax        # 1fff8 <g_626>
   130a6:	48 89 85 78 fb ff ff 	mov    %rax,-0x488(%rbp)
   130ad:	48 8d 05 44 cf 00 00 	lea    0xcf44(%rip),%rax        # 1fff8 <g_626>
   130b4:	48 89 85 80 fb ff ff 	mov    %rax,-0x480(%rbp)
   130bb:	48 8d 05 36 cf 00 00 	lea    0xcf36(%rip),%rax        # 1fff8 <g_626>
   130c2:	48 89 85 88 fb ff ff 	mov    %rax,-0x478(%rbp)
   130c9:	48 8d 05 28 cf 00 00 	lea    0xcf28(%rip),%rax        # 1fff8 <g_626>
   130d0:	48 89 85 90 fb ff ff 	mov    %rax,-0x470(%rbp)
   130d7:	48 8d 05 1a cf 00 00 	lea    0xcf1a(%rip),%rax        # 1fff8 <g_626>
   130de:	48 89 85 98 fb ff ff 	mov    %rax,-0x468(%rbp)
   130e5:	48 8d 05 0c cf 00 00 	lea    0xcf0c(%rip),%rax        # 1fff8 <g_626>
   130ec:	48 89 85 a0 fb ff ff 	mov    %rax,-0x460(%rbp)
   130f3:	48 8d 05 fe ce 00 00 	lea    0xcefe(%rip),%rax        # 1fff8 <g_626>
   130fa:	48 89 85 a8 fb ff ff 	mov    %rax,-0x458(%rbp)
   13101:	48 8d 05 f0 ce 00 00 	lea    0xcef0(%rip),%rax        # 1fff8 <g_626>
   13108:	48 89 85 b0 fb ff ff 	mov    %rax,-0x450(%rbp)
   1310f:	48 8d 05 e2 ce 00 00 	lea    0xcee2(%rip),%rax        # 1fff8 <g_626>
   13116:	48 89 85 b8 fb ff ff 	mov    %rax,-0x448(%rbp)
   1311d:	48 8d 05 d4 ce 00 00 	lea    0xced4(%rip),%rax        # 1fff8 <g_626>
   13124:	48 89 85 c0 fb ff ff 	mov    %rax,-0x440(%rbp)
   1312b:	48 8d 05 c6 ce 00 00 	lea    0xcec6(%rip),%rax        # 1fff8 <g_626>
   13132:	48 89 85 c8 fb ff ff 	mov    %rax,-0x438(%rbp)
   13139:	48 8d 05 b8 ce 00 00 	lea    0xceb8(%rip),%rax        # 1fff8 <g_626>
   13140:	48 89 85 d0 fb ff ff 	mov    %rax,-0x430(%rbp)
   13147:	48 8d 05 aa ce 00 00 	lea    0xceaa(%rip),%rax        # 1fff8 <g_626>
   1314e:	48 89 85 d8 fb ff ff 	mov    %rax,-0x428(%rbp)
   13155:	48 8d 05 9c ce 00 00 	lea    0xce9c(%rip),%rax        # 1fff8 <g_626>
   1315c:	48 89 85 e0 fb ff ff 	mov    %rax,-0x420(%rbp)
   13163:	48 8d 05 8e ce 00 00 	lea    0xce8e(%rip),%rax        # 1fff8 <g_626>
   1316a:	48 89 85 e8 fb ff ff 	mov    %rax,-0x418(%rbp)
   13171:	48 8d 05 80 ce 00 00 	lea    0xce80(%rip),%rax        # 1fff8 <g_626>
   13178:	48 89 85 f0 fb ff ff 	mov    %rax,-0x410(%rbp)
   1317f:	48 8d 05 72 ce 00 00 	lea    0xce72(%rip),%rax        # 1fff8 <g_626>
   13186:	48 89 85 f8 fb ff ff 	mov    %rax,-0x408(%rbp)
   1318d:	48 8d 05 64 ce 00 00 	lea    0xce64(%rip),%rax        # 1fff8 <g_626>
   13194:	48 89 85 00 fc ff ff 	mov    %rax,-0x400(%rbp)
   1319b:	48 8d 05 26 a8 00 00 	lea    0xa826(%rip),%rax        # 1d9c8 <g_303>
   131a2:	48 89 85 18 f9 ff ff 	mov    %rax,-0x6e8(%rbp)
   131a9:	48 c7 85 20 f9 ff ff 	movq   $0x0,-0x6e0(%rbp)
   131b0:	00 00 00 00 
   131b4:	48 8d 05 05 a8 00 00 	lea    0xa805(%rip),%rax        # 1d9c0 <g_296>
   131bb:	48 89 85 28 f9 ff ff 	mov    %rax,-0x6d8(%rbp)
   131c2:	c7 85 4c f8 ff ff 00 	movl   $0x0,-0x7b4(%rbp)
   131c9:	00 00 00 
   131cc:	48 8d 05 a1 a6 00 00 	lea    0xa6a1(%rip),%rax        # 1d874 <g_212+0x2f4>
   131d3:	48 89 85 50 fd ff ff 	mov    %rax,-0x2b0(%rbp)
   131da:	48 c7 85 58 fd ff ff 	movq   $0x0,-0x2a8(%rbp)
   131e1:	00 00 00 00 
   131e5:	48 8d 05 74 a4 00 00 	lea    0xa474(%rip),%rax        # 1d660 <g_212+0xe0>
   131ec:	48 89 85 60 fd ff ff 	mov    %rax,-0x2a0(%rbp)
   131f3:	48 8d 05 0e a3 00 00 	lea    0xa30e(%rip),%rax        # 1d508 <g_83>
   131fa:	48 89 85 68 fd ff ff 	mov    %rax,-0x298(%rbp)
   13201:	48 8d 05 b0 a7 00 00 	lea    0xa7b0(%rip),%rax        # 1d9b8 <g_262>
   13208:	48 89 85 70 fd ff ff 	mov    %rax,-0x290(%rbp)
   1320f:	48 8d 05 4a a4 00 00 	lea    0xa44a(%rip),%rax        # 1d660 <g_212+0xe0>
   13216:	48 89 85 78 fd ff ff 	mov    %rax,-0x288(%rbp)
   1321d:	48 c7 85 80 fd ff ff 	movq   $0x0,-0x280(%rbp)
   13224:	00 00 00 00 
   13228:	48 8d 05 35 9e 00 00 	lea    0x9e35(%rip),%rax        # 1d064 <g_47>
   1322f:	48 89 85 88 fd ff ff 	mov    %rax,-0x278(%rbp)
   13236:	48 c7 85 90 fd ff ff 	movq   $0x0,-0x270(%rbp)
   1323d:	00 00 00 00 
   13241:	48 8d 05 18 a4 00 00 	lea    0xa418(%rip),%rax        # 1d660 <g_212+0xe0>
   13248:	48 89 85 98 fd ff ff 	mov    %rax,-0x268(%rbp)
   1324f:	48 8d 05 62 a7 00 00 	lea    0xa762(%rip),%rax        # 1d9b8 <g_262>
   13256:	48 89 85 a0 fd ff ff 	mov    %rax,-0x260(%rbp)
   1325d:	48 8d 05 a4 a2 00 00 	lea    0xa2a4(%rip),%rax        # 1d508 <g_83>
   13264:	48 89 85 a8 fd ff ff 	mov    %rax,-0x258(%rbp)
   1326b:	48 8d 05 ee a3 00 00 	lea    0xa3ee(%rip),%rax        # 1d660 <g_212+0xe0>
   13272:	48 89 85 b0 fd ff ff 	mov    %rax,-0x250(%rbp)
   13279:	48 c7 85 b8 fd ff ff 	movq   $0x0,-0x248(%rbp)
   13280:	00 00 00 00 
   13284:	48 8d 05 e9 a5 00 00 	lea    0xa5e9(%rip),%rax        # 1d874 <g_212+0x2f4>
   1328b:	48 89 85 c0 fd ff ff 	mov    %rax,-0x240(%rbp)
   13292:	48 8d 05 1f a7 00 00 	lea    0xa71f(%rip),%rax        # 1d9b8 <g_262>
   13299:	48 89 85 c8 fd ff ff 	mov    %rax,-0x238(%rbp)
   132a0:	48 8d 85 40 f8 ff ff 	lea    -0x7c0(%rbp),%rax
   132a7:	48 89 85 d0 fd ff ff 	mov    %rax,-0x230(%rbp)
   132ae:	48 c7 85 d8 fd ff ff 	movq   $0x0,-0x228(%rbp)
   132b5:	00 00 00 00 
   132b9:	48 c7 85 e0 fd ff ff 	movq   $0x0,-0x220(%rbp)
   132c0:	00 00 00 00 
   132c4:	48 8d 05 81 9d 00 00 	lea    0x9d81(%rip),%rax        # 1d04c <g_5+0xc>
   132cb:	48 89 85 e8 fd ff ff 	mov    %rax,-0x218(%rbp)
   132d2:	48 c7 85 f0 fd ff ff 	movq   $0x0,-0x210(%rbp)
   132d9:	00 00 00 00 
   132dd:	48 8d 85 40 f8 ff ff 	lea    -0x7c0(%rbp),%rax
   132e4:	48 89 85 f8 fd ff ff 	mov    %rax,-0x208(%rbp)
   132eb:	48 8d 05 72 9d 00 00 	lea    0x9d72(%rip),%rax        # 1d064 <g_47>
   132f2:	48 89 85 00 fe ff ff 	mov    %rax,-0x200(%rbp)
   132f9:	48 8d 85 4c f8 ff ff 	lea    -0x7b4(%rbp),%rax
   13300:	48 89 85 08 fe ff ff 	mov    %rax,-0x1f8(%rbp)
   13307:	48 8d 05 aa a6 00 00 	lea    0xa6aa(%rip),%rax        # 1d9b8 <g_262>
   1330e:	48 89 85 10 fe ff ff 	mov    %rax,-0x1f0(%rbp)
   13315:	48 8d 85 4c f8 ff ff 	lea    -0x7b4(%rbp),%rax
   1331c:	48 89 85 18 fe ff ff 	mov    %rax,-0x1e8(%rbp)
   13323:	48 8d 05 3a 9d 00 00 	lea    0x9d3a(%rip),%rax        # 1d064 <g_47>
   1332a:	48 89 85 20 fe ff ff 	mov    %rax,-0x1e0(%rbp)
   13331:	48 8d 85 40 f8 ff ff 	lea    -0x7c0(%rbp),%rax
   13338:	48 89 85 28 fe ff ff 	mov    %rax,-0x1d8(%rbp)
   1333f:	48 c7 85 30 fe ff ff 	movq   $0x0,-0x1d0(%rbp)
   13346:	00 00 00 00 
   1334a:	48 8d 05 fb 9c 00 00 	lea    0x9cfb(%rip),%rax        # 1d04c <g_5+0xc>
   13351:	48 89 85 38 fe ff ff 	mov    %rax,-0x1c8(%rbp)
   13358:	48 c7 85 40 fe ff ff 	movq   $0x0,-0x1c0(%rbp)
   1335f:	00 00 00 00 
   13363:	48 c7 85 48 fe ff ff 	movq   $0x0,-0x1b8(%rbp)
   1336a:	00 00 00 00 
   1336e:	48 8d 85 40 f8 ff ff 	lea    -0x7c0(%rbp),%rax
   13375:	48 89 85 50 fe ff ff 	mov    %rax,-0x1b0(%rbp)
   1337c:	48 8d 05 35 a6 00 00 	lea    0xa635(%rip),%rax        # 1d9b8 <g_262>
   13383:	48 89 85 58 fe ff ff 	mov    %rax,-0x1a8(%rbp)
   1338a:	48 8d 05 e3 a4 00 00 	lea    0xa4e3(%rip),%rax        # 1d874 <g_212+0x2f4>
   13391:	48 89 85 60 fe ff ff 	mov    %rax,-0x1a0(%rbp)
   13398:	48 c7 85 68 fe ff ff 	movq   $0x0,-0x198(%rbp)
   1339f:	00 00 00 00 
   133a3:	48 8d 05 b6 a2 00 00 	lea    0xa2b6(%rip),%rax        # 1d660 <g_212+0xe0>
   133aa:	48 89 85 70 fe ff ff 	mov    %rax,-0x190(%rbp)
   133b1:	48 8d 05 50 a1 00 00 	lea    0xa150(%rip),%rax        # 1d508 <g_83>
   133b8:	48 89 85 78 fe ff ff 	mov    %rax,-0x188(%rbp)
   133bf:	48 8d 05 f2 a5 00 00 	lea    0xa5f2(%rip),%rax        # 1d9b8 <g_262>
   133c6:	48 89 85 80 fe ff ff 	mov    %rax,-0x180(%rbp)
   133cd:	48 8d 05 8c a2 00 00 	lea    0xa28c(%rip),%rax        # 1d660 <g_212+0xe0>
   133d4:	48 89 85 88 fe ff ff 	mov    %rax,-0x178(%rbp)
   133db:	48 8d 05 80 a1 00 00 	lea    0xa180(%rip),%rax        # 1d562 <g_94>
   133e2:	48 89 85 90 f8 ff ff 	mov    %rax,-0x770(%rbp)
   133e9:	8b 85 20 f8 ff ff    	mov    -0x7e0(%rbp),%eax
   133ef:	f7 d0                	not    %eax
   133f1:	be 96 45 f9 c9       	mov    $0xc9f94596,%esi
   133f6:	89 c7                	mov    %eax,%edi
   133f8:	e8 b9 31 ff ff       	callq  65b6 <safe_add_func_int32_t_s_s>
   133fd:	48 8b 85 b8 f8 ff ff 	mov    -0x748(%rbp),%rax
   13404:	48 3b 85 20 f9 ff ff 	cmp    -0x6e0(%rbp),%rax
   1340b:	0f 94 c0             	sete   %al
   1340e:	0f b6 c0             	movzbl %al,%eax
   13411:	48 c7 c6 ff ff ff ff 	mov    $0xffffffffffffffff,%rsi
   13418:	48 89 c7             	mov    %rax,%rdi
   1341b:	e8 94 35 ff ff       	callq  69b4 <safe_mod_func_int64_t_s_s>
   13420:	48 8b 05 d1 cb 00 00 	mov    0xcbd1(%rip),%rax        # 1fff8 <g_626>
   13427:	48 89 05 ca cb 00 00 	mov    %rax,0xcbca(%rip)        # 1fff8 <g_626>
   1342e:	48 8b 05 c3 cb 00 00 	mov    0xcbc3(%rip),%rax        # 1fff8 <g_626>
   13435:	48 8d 15 9c e1 00 00 	lea    0xe19c(%rip),%rdx        # 215d8 <g_299>
   1343c:	48 39 d0             	cmp    %rdx,%rax
   1343f:	0f 94 c0             	sete   %al
   13442:	0f b6 d0             	movzbl %al,%edx
   13445:	48 8b 85 18 f9 ff ff 	mov    -0x6e8(%rbp),%rax
   1344c:	89 10                	mov    %edx,(%rax)
   1344e:	8b 95 a0 fc ff ff    	mov    -0x360(%rbp),%edx
   13454:	8b 85 40 f8 ff ff    	mov    -0x7c0(%rbp),%eax
   1345a:	39 c2                	cmp    %eax,%edx
   1345c:	0f 9d c0             	setge  %al
   1345f:	0f b6 d0             	movzbl %al,%edx
   13462:	48 8b 85 28 f9 ff ff 	mov    -0x6d8(%rbp),%rax
   13469:	48 89 10             	mov    %rdx,(%rax)
   1346c:	48 8b 85 28 f9 ff ff 	mov    -0x6d8(%rbp),%rax
   13473:	48 8b 00             	mov    (%rax),%rax
   13476:	48 85 c0             	test   %rax,%rax
   13479:	74 07                	je     13482 <func_54+0x86c>
   1347b:	b8 01 00 00 00       	mov    $0x1,%eax
   13480:	eb 05                	jmp    13487 <func_54+0x871>
   13482:	b8 00 00 00 00       	mov    $0x0,%eax
   13487:	0f b7 d0             	movzwl %ax,%edx
   1348a:	8b 85 20 f8 ff ff    	mov    -0x7e0(%rbp),%eax
   13490:	0f b7 c0             	movzwl %ax,%eax
   13493:	89 d6                	mov    %edx,%esi
   13495:	89 c7                	mov    %eax,%edi
   13497:	e8 83 38 ff ff       	callq  6d1f <safe_sub_func_uint16_t_u_u>
   1349c:	8b 85 40 f8 ff ff    	mov    -0x7c0(%rbp),%eax
   134a2:	85 c0                	test   %eax,%eax
   134a4:	74 11                	je     134b7 <func_54+0x8a1>
   134a6:	8b 85 4c f8 ff ff    	mov    -0x7b4(%rbp),%eax
   134ac:	85 c0                	test   %eax,%eax
   134ae:	74 07                	je     134b7 <func_54+0x8a1>
   134b0:	b8 01 00 00 00       	mov    $0x1,%eax
   134b5:	eb 05                	jmp    134bc <func_54+0x8a6>
   134b7:	b8 00 00 00 00       	mov    $0x0,%eax
   134bc:	89 85 1c f8 ff ff    	mov    %eax,-0x7e4(%rbp)
   134c2:	48 8d 85 40 f8 ff ff 	lea    -0x7c0(%rbp),%rax
   134c9:	48 89 c7             	mov    %rax,%rdi
   134cc:	e8 24 0b 00 00       	callq  13ff5 <func_59>
   134d1:	48 89 85 70 fe ff ff 	mov    %rax,-0x190(%rbp)
   134d8:	be 04 00 00 00       	mov    $0x4,%esi
   134dd:	bf 08 00 00 00       	mov    $0x8,%edi
   134e2:	e8 d7 37 ff ff       	callq  6cbe <safe_rshift_func_uint8_t_u_u>
   134e7:	89 c2                	mov    %eax,%edx
   134e9:	0f b6 85 24 f8 ff ff 	movzbl -0x7dc(%rbp),%eax
   134f0:	09 d0                	or     %edx,%eax
   134f2:	0f b6 c0             	movzbl %al,%eax
   134f5:	be 8f 00 00 00       	mov    $0x8f,%esi
   134fa:	89 c7                	mov    %eax,%edi
   134fc:	e8 92 36 ff ff       	callq  6b93 <safe_mul_func_uint8_t_u_u>
   13501:	8b 05 c9 a4 00 00    	mov    0xa4c9(%rip),%eax        # 1d9d0 <g_383>
   13507:	48 63 d8             	movslq %eax,%rbx
   1350a:	8b 85 40 f8 ff ff    	mov    -0x7c0(%rbp),%eax
   13510:	4c 63 e0             	movslq %eax,%r12
   13513:	48 8b 85 c0 f8 ff ff 	mov    -0x740(%rbp),%rax
   1351a:	48 89 85 b0 f8 ff ff 	mov    %rax,-0x750(%rbp)
   13521:	48 8d 85 30 fb ff ff 	lea    -0x4d0(%rbp),%rax
   13528:	48 83 c0 40          	add    $0x40,%rax
   1352c:	48 39 85 b0 f8 ff ff 	cmp    %rax,-0x750(%rbp)
   13533:	0f 95 c0             	setne  %al
   13536:	89 c2                	mov    %eax,%edx
   13538:	8b 85 1c f8 ff ff    	mov    -0x7e4(%rbp),%eax
   1353e:	31 d0                	xor    %edx,%eax
   13540:	0f b6 c0             	movzbl %al,%eax
   13543:	be 01 00 00 00       	mov    $0x1,%esi
   13548:	89 c7                	mov    %eax,%edi
   1354a:	e8 3e 37 ff ff       	callq  6c8d <safe_rshift_func_uint8_t_u_s>
   1354f:	44 0f b6 e8          	movzbl %al,%r13d
   13553:	0f b6 85 24 f8 ff ff 	movzbl -0x7dc(%rbp),%eax
   1355a:	0f b6 c0             	movzbl %al,%eax
   1355d:	89 c6                	mov    %eax,%esi
   1355f:	bf 7c 00 00 00       	mov    $0x7c,%edi
   13564:	e8 f1 35 ff ff       	callq  6b5a <safe_add_func_uint8_t_u_u>
   13569:	8b 05 79 a4 00 00    	mov    0xa479(%rip),%eax        # 1d9e8 <g_406+0x8>
   1356f:	25 00 00 00 80       	and    $0x80000000,%eax
   13574:	83 c8 01             	or     $0x1,%eax
   13577:	89 05 6b a4 00 00    	mov    %eax,0xa46b(%rip)        # 1d9e8 <g_406+0x8>
   1357d:	8b 05 65 a4 00 00    	mov    0xa465(%rip),%eax        # 1d9e8 <g_406+0x8>
   13583:	01 c0                	add    %eax,%eax
   13585:	d1 f8                	sar    %eax
   13587:	44 21 e8             	and    %r13d,%eax
   1358a:	48 98                	cltq   
   1358c:	83 e0 04             	and    $0x4,%eax
   1358f:	4c 89 e6             	mov    %r12,%rsi
   13592:	48 89 c7             	mov    %rax,%rdi
   13595:	e8 5d 34 ff ff       	callq  69f7 <safe_div_func_int64_t_s_s>
   1359a:	48 89 c2             	mov    %rax,%rdx
   1359d:	48 8b 85 90 f8 ff ff 	mov    -0x770(%rbp),%rax
   135a4:	88 10                	mov    %dl,(%rax)
   135a6:	0f b6 00             	movzbl (%rax),%eax
   135a9:	0f b6 d0             	movzbl %al,%edx
   135ac:	0f b7 05 21 a4 00 00 	movzwl 0xa421(%rip),%eax        # 1d9d4 <g_385>
   135b3:	0f b6 c0             	movzbl %al,%eax
   135b6:	89 d6                	mov    %edx,%esi
   135b8:	89 c7                	mov    %eax,%edi
   135ba:	e8 ef 35 ff ff       	callq  6bae <safe_mod_func_uint8_t_u_u>
   135bf:	0f b6 c0             	movzbl %al,%eax
   135c2:	48 89 de             	mov    %rbx,%rsi
   135c5:	48 89 c7             	mov    %rax,%rdi
   135c8:	e8 7e 3a ff ff       	callq  704b <safe_sub_func_uint64_t_u_u>
   135cd:	c7 85 f0 f9 ff ff da 	movl   $0xc400ffda,-0x610(%rbp)
   135d4:	ff 00 c4 
   135d7:	66 c7 85 f4 f9 ff ff 	movw   $0xc4,-0x60c(%rbp)
   135de:	c4 00 
   135e0:	c7 85 f6 f9 ff ff ff 	movl   $0xdaf6ffff,-0x60a(%rbp)
   135e7:	ff f6 da 
   135ea:	66 c7 85 fa f9 ff ff 	movw   $0x56ff,-0x606(%rbp)
   135f1:	ff 56 
   135f3:	c7 85 fc f9 ff ff f5 	movl   $0x359600f5,-0x604(%rbp)
   135fa:	00 96 35 
   135fd:	66 c7 85 00 fa ff ff 	movw   $0xf5a0,-0x600(%rbp)
   13604:	a0 f5 
   13606:	c7 85 02 fa ff ff 01 	movl   $0x7c4ff01,-0x5fe(%rbp)
   1360d:	ff c4 07 
   13610:	66 c7 85 06 fa ff ff 	movw   $0x949d,-0x5fa(%rbp)
   13617:	9d 94 
   13619:	c7 85 08 fa ff ff f6 	movl   $0xd4f507f6,-0x5f8(%rbp)
   13620:	07 f5 d4 
   13623:	66 c7 85 0c fa ff ff 	movw   $0x5201,-0x5f4(%rbp)
   1362a:	01 52 
   1362c:	c7 85 0e fa ff ff d4 	movl   $0xd45201d4,-0x5f2(%rbp)
   13633:	01 52 d4 
   13636:	66 c7 85 12 fa ff ff 	movw   $0x11,-0x5ee(%rbp)
   1363d:	11 00 
   1363f:	c7 85 14 fa ff ff f6 	movl   $0x735fcf6,-0x5ec(%rbp)
   13646:	fc 35 07 
   13649:	66 c7 85 18 fa ff ff 	movw   $0xda01,-0x5e8(%rbp)
   13650:	01 da 
   13652:	c7 85 1a fa ff ff 01 	movl   $0x11f81101,-0x5e6(%rbp)
   13659:	11 f8 11 
   1365c:	66 c7 85 1e fa ff ff 	movw   $0xff01,-0x5e2(%rbp)
   13663:	01 ff 
   13665:	c7 85 20 fa ff ff ff 	movl   $0x1a0fcff,-0x5e0(%rbp)
   1366c:	fc a0 01 
   1366f:	66 c7 85 24 fa ff ff 	movw   $0x3511,-0x5dc(%rbp)
   13676:	11 35 
   13678:	c7 85 26 fa ff ff 9d 	movl   $0xfc94019d,-0x5da(%rbp)
   1367f:	01 94 fc 
   13682:	66 c7 85 2a fa ff ff 	movw   $0x3501,-0x5d6(%rbp)
   13689:	01 35 
   1368b:	c7 85 2c fa ff ff 01 	movl   $0x1a00701,-0x5d4(%rbp)
   13692:	07 a0 01 
   13695:	66 c7 85 30 fa ff ff 	movw   $0xff9d,-0x5d0(%rbp)
   1369c:	9d ff 
   1369e:	c7 85 32 fa ff ff 01 	movl   $0x9df8ff01,-0x5ce(%rbp)
   136a5:	ff f8 9d 
   136a8:	66 c7 85 36 fa ff ff 	movw   $0xda36,-0x5ca(%rbp)
   136af:	36 da 
   136b1:	c7 85 38 fa ff ff 01 	movl   $0x135fe01,-0x5c8(%rbp)
   136b8:	fe 35 01 
   136bb:	66 c7 85 3c fa ff ff 	movw   $0xff,-0x5c4(%rbp)
   136c2:	ff 00 
   136c4:	c7 85 3e fa ff ff 01 	movl   $0xfc529d01,-0x5c2(%rbp)
   136cb:	9d 52 fc 
   136ce:	66 c7 85 42 fa ff ff 	movw   $0x52fc,-0x5be(%rbp)
   136d5:	fc 52 
   136d7:	c7 85 44 fa ff ff 9d 	movl   $0x1f59d9d,-0x5bc(%rbp)
   136de:	9d f5 01 
   136e1:	66 c7 85 48 fa ff ff 	movw   $0x94ff,-0x5b8(%rbp)
   136e8:	ff 94 
   136ea:	c7 85 4a fa ff ff ff 	movl   $0x11c4feff,-0x5b6(%rbp)
   136f1:	fe c4 11 
   136f4:	66 c7 85 4e fa ff ff 	movw   $0xf536,-0x5b2(%rbp)
   136fb:	36 f5 
   136fd:	48 c7 85 30 f9 ff ff 	movq   $0x0,-0x6d0(%rbp)
   13704:	00 00 00 00 
   13708:	48 c7 85 38 f9 ff ff 	movq   $0x0,-0x6c8(%rbp)
   1370f:	00 00 00 00 
   13713:	48 c7 85 40 f9 ff ff 	movq   $0x0,-0x6c0(%rbp)
   1371a:	00 00 00 00 
   1371e:	48 c7 85 50 fa ff ff 	movq   $0x0,-0x5b0(%rbp)
   13725:	00 00 00 00 
   13729:	48 c7 85 58 fa ff ff 	movq   $0x0,-0x5a8(%rbp)
   13730:	00 00 00 00 
   13734:	48 c7 85 60 fa ff ff 	movq   $0x0,-0x5a0(%rbp)
   1373b:	00 00 00 00 
   1373f:	48 8d 05 87 a2 00 00 	lea    0xa287(%rip),%rax        # 1d9cd <g_360>
   13746:	48 89 85 68 fa ff ff 	mov    %rax,-0x598(%rbp)
   1374d:	48 8d 05 78 a2 00 00 	lea    0xa278(%rip),%rax        # 1d9cc <g_307>
   13754:	48 89 85 70 fa ff ff 	mov    %rax,-0x590(%rbp)
   1375b:	48 8d 05 6a a2 00 00 	lea    0xa26a(%rip),%rax        # 1d9cc <g_307>
   13762:	48 89 85 78 fa ff ff 	mov    %rax,-0x588(%rbp)
   13769:	48 8d 05 5d a2 00 00 	lea    0xa25d(%rip),%rax        # 1d9cd <g_360>
   13770:	48 89 85 80 fa ff ff 	mov    %rax,-0x580(%rbp)
   13777:	48 8d 05 4e a2 00 00 	lea    0xa24e(%rip),%rax        # 1d9cc <g_307>
   1377e:	48 89 85 88 fa ff ff 	mov    %rax,-0x578(%rbp)
   13785:	48 8d 05 40 a2 00 00 	lea    0xa240(%rip),%rax        # 1d9cc <g_307>
   1378c:	48 89 85 90 fa ff ff 	mov    %rax,-0x570(%rbp)
   13793:	48 8d 05 33 a2 00 00 	lea    0xa233(%rip),%rax        # 1d9cd <g_360>
   1379a:	48 89 85 98 fa ff ff 	mov    %rax,-0x568(%rbp)
   137a1:	48 c7 85 a0 fa ff ff 	movq   $0x0,-0x560(%rbp)
   137a8:	00 00 00 00 
   137ac:	48 c7 85 a8 fa ff ff 	movq   $0x0,-0x558(%rbp)
   137b3:	00 00 00 00 
   137b7:	8b 85 40 f8 ff ff    	mov    -0x7c0(%rbp),%eax
   137bd:	0f be c0             	movsbl %al,%eax
   137c0:	be 35 00 00 00       	mov    $0x35,%esi
   137c5:	89 c7                	mov    %eax,%edi
   137c7:	e8 26 2a ff ff       	callq  61f2 <safe_sub_func_int8_t_s_s>
   137cc:	44 0f be e0          	movsbl %al,%r12d
   137d0:	48 8b 05 19 c8 00 00 	mov    0xc819(%rip),%rax        # 1fff0 <g_627>
   137d7:	0f b7 00             	movzwl (%rax),%eax
   137da:	66 85 c0             	test   %ax,%ax
   137dd:	0f 85 c2 00 00 00    	jne    138a5 <func_54+0xc8f>
   137e3:	44 8b 2d 56 98 00 00 	mov    0x9856(%rip),%r13d        # 1d040 <g_5>
   137ea:	0f b6 85 3f fa ff ff 	movzbl -0x5c1(%rbp),%eax
   137f1:	0f b6 d8             	movzbl %al,%ebx
   137f4:	0f b6 85 3e fa ff ff 	movzbl -0x5c2(%rbp),%eax
   137fb:	48 0f be c0          	movsbq %al,%rax
   137ff:	48 89 c7             	mov    %rax,%rdi
   13802:	e8 12 38 ff ff       	callq  7019 <safe_unary_minus_func_uint64_t_u>
   13807:	0f b6 85 3e fa ff ff 	movzbl -0x5c2(%rbp),%eax
   1380e:	0f be c0             	movsbl %al,%eax
   13811:	39 85 20 f8 ff ff    	cmp    %eax,-0x7e0(%rbp)
   13817:	0f 95 c0             	setne  %al
   1381a:	0f b6 d0             	movzbl %al,%edx
   1381d:	8b 85 48 f8 ff ff    	mov    -0x7b8(%rbp),%eax
   13823:	09 d0                	or     %edx,%eax
   13825:	89 85 48 f8 ff ff    	mov    %eax,-0x7b8(%rbp)
   1382b:	48 8b 85 90 f8 ff ff 	mov    -0x770(%rbp),%rax
   13832:	c6 00 01             	movb   $0x1,(%rax)
   13835:	0f b6 00             	movzbl (%rax),%eax
   13838:	88 85 24 f8 ff ff    	mov    %al,-0x7dc(%rbp)
   1383e:	c6 05 88 a1 00 00 00 	movb   $0x0,0xa188(%rip)        # 1d9cd <g_360>
   13845:	0f b6 05 81 a1 00 00 	movzbl 0xa181(%rip),%eax        # 1d9cd <g_360>
   1384c:	0f b6 c0             	movzbl %al,%eax
   1384f:	89 de                	mov    %ebx,%esi
   13851:	89 c7                	mov    %eax,%edi
   13853:	e8 02 33 ff ff       	callq  6b5a <safe_add_func_uint8_t_u_u>
   13858:	0f b6 c0             	movzbl %al,%eax
   1385b:	be fa ff ff ff       	mov    $0xfffffffa,%esi
   13860:	89 c7                	mov    %eax,%edi
   13862:	e8 af 2b ff ff       	callq  6416 <safe_mod_func_int16_t_s_s>
   13867:	0f b6 c0             	movzbl %al,%eax
   1386a:	be 06 00 00 00       	mov    $0x6,%esi
   1386f:	89 c7                	mov    %eax,%edi
   13871:	e8 d6 33 ff ff       	callq  6c4c <safe_lshift_func_uint8_t_u_u>
   13876:	0f b6 c0             	movzbl %al,%eax
   13879:	41 39 c5             	cmp    %eax,%r13d
   1387c:	0f 9e c0             	setle  %al
   1387f:	0f b6 d0             	movzbl %al,%edx
   13882:	48 8b 85 18 f9 ff ff 	mov    -0x6e8(%rbp),%rax
   13889:	89 10                	mov    %edx,(%rax)
   1388b:	0f b7 05 42 a1 00 00 	movzwl 0xa142(%rip),%eax        # 1d9d4 <g_385>
   13892:	0f b7 d0             	movzwl %ax,%edx
   13895:	8b 85 48 f8 ff ff    	mov    -0x7b8(%rbp),%eax
   1389b:	21 d0                	and    %edx,%eax
   1389d:	39 85 1c f8 ff ff    	cmp    %eax,-0x7e4(%rbp)
   138a3:	7f 07                	jg     138ac <func_54+0xc96>
   138a5:	b8 01 00 00 00       	mov    $0x1,%eax
   138aa:	eb 05                	jmp    138b1 <func_54+0xc9b>
   138ac:	b8 00 00 00 00       	mov    $0x0,%eax
   138b1:	89 c2                	mov    %eax,%edx
   138b3:	8b 85 1c f8 ff ff    	mov    -0x7e4(%rbp),%eax
   138b9:	31 d0                	xor    %edx,%eax
   138bb:	0f b7 d0             	movzwl %ax,%edx
   138be:	0f b6 05 9b 97 00 00 	movzbl 0x979b(%rip),%eax        # 1d060 <g_41>
   138c5:	0f b6 c0             	movzbl %al,%eax
   138c8:	89 d6                	mov    %edx,%esi
   138ca:	89 c7                	mov    %eax,%edi
   138cc:	e8 2e 34 ff ff       	callq  6cff <safe_add_func_uint16_t_u_u>
   138d1:	0f b7 c0             	movzwl %ax,%eax
   138d4:	41 39 c4             	cmp    %eax,%r12d
   138d7:	0f 9c c0             	setl   %al
   138da:	0f b6 d0             	movzbl %al,%edx
   138dd:	48 8b 05 9c c7 00 00 	mov    0xc79c(%rip),%rax        # 20080 <g_661>
   138e4:	48 85 c0             	test   %rax,%rax
   138e7:	0f 94 c0             	sete   %al
   138ea:	0f b6 c0             	movzbl %al,%eax
   138ed:	89 d6                	mov    %edx,%esi
   138ef:	89 c7                	mov    %eax,%edi
   138f1:	e8 9d 32 ff ff       	callq  6b93 <safe_mul_func_uint8_t_u_u>
   138f6:	89 c2                	mov    %eax,%edx
   138f8:	48 8b 05 b1 c6 00 00 	mov    0xc6b1(%rip),%rax        # 1ffb0 <g_113>
   138ff:	0f b6 d2             	movzbl %dl,%edx
   13902:	89 10                	mov    %edx,(%rax)
   13904:	48 8b 05 a5 c6 00 00 	mov    0xc6a5(%rip),%rax        # 1ffb0 <g_113>
   1390b:	8b 00                	mov    (%rax),%eax
   1390d:	85 c0                	test   %eax,%eax
   1390f:	0f 85 3a 05 00 00    	jne    13e4f <func_54+0x1239>
   13915:	48 8b 05 94 c6 00 00 	mov    0xc694(%rip),%rax        # 1ffb0 <g_113>
   1391c:	8b 08                	mov    (%rax),%ecx
   1391e:	83 bd 5c f8 ff ff 00 	cmpl   $0x0,-0x7a4(%rbp)
   13925:	0f 94 c0             	sete   %al
   13928:	0f b6 d0             	movzbl %al,%edx
   1392b:	48 8b 05 7e c6 00 00 	mov    0xc67e(%rip),%rax        # 1ffb0 <g_113>
   13932:	31 ca                	xor    %ecx,%edx
   13934:	89 10                	mov    %edx,(%rax)
   13936:	66 c7 05 39 9c 00 00 	movw   $0x0,0x9c39(%rip)        # 1d578 <g_201>
   1393d:	00 00 
   1393f:	e9 d3 04 00 00       	jmpq   13e17 <func_54+0x1201>
   13944:	48 8d 05 2b 9c 00 00 	lea    0x9c2b(%rip),%rax        # 1d576 <g_196>
   1394b:	48 89 85 48 f9 ff ff 	mov    %rax,-0x6b8(%rbp)
   13952:	c7 85 60 f8 ff ff b1 	movl   $0x9c4743b1,-0x7a0(%rbp)
   13959:	43 47 9c 
   1395c:	48 8b 15 1d c7 00 00 	mov    0xc71d(%rip),%rdx        # 20080 <g_661>
   13963:	48 8b 05 16 c7 00 00 	mov    0xc716(%rip),%rax        # 20080 <g_661>
   1396a:	48 8b 12             	mov    (%rdx),%rdx
   1396d:	48 89 10             	mov    %rdx,(%rax)
   13970:	c7 85 1c f8 ff ff 00 	movl   $0x0,-0x7e4(%rbp)
   13977:	00 00 00 
   1397a:	e9 7a 04 00 00       	jmpq   13df9 <func_54+0x11e3>
   1397f:	48 c7 85 98 f8 ff ff 	movq   $0x0,-0x768(%rbp)
   13986:	00 00 00 00 
   1398a:	48 8d 85 90 f8 ff ff 	lea    -0x770(%rbp),%rax
   13991:	48 89 85 a0 f8 ff ff 	mov    %rax,-0x760(%rbp)
   13998:	c7 85 64 f8 ff ff 01 	movl   $0x1,-0x79c(%rbp)
   1399f:	00 00 00 
   139a2:	48 8d 05 4f a0 00 00 	lea    0xa04f(%rip),%rax        # 1d9f8 <g_477>
   139a9:	48 89 85 50 f9 ff ff 	mov    %rax,-0x6b0(%rbp)
   139b0:	48 8d 85 98 f8 ff ff 	lea    -0x768(%rbp),%rax
   139b7:	48 89 85 90 fe ff ff 	mov    %rax,-0x170(%rbp)
   139be:	48 8d 85 98 f8 ff ff 	lea    -0x768(%rbp),%rax
   139c5:	48 89 85 98 fe ff ff 	mov    %rax,-0x168(%rbp)
   139cc:	48 8d 85 a0 f8 ff ff 	lea    -0x760(%rbp),%rax
   139d3:	48 89 85 a0 fe ff ff 	mov    %rax,-0x160(%rbp)
   139da:	48 8d 85 98 f8 ff ff 	lea    -0x768(%rbp),%rax
   139e1:	48 89 85 a8 fe ff ff 	mov    %rax,-0x158(%rbp)
   139e8:	48 8d 85 98 f8 ff ff 	lea    -0x768(%rbp),%rax
   139ef:	48 89 85 b0 fe ff ff 	mov    %rax,-0x150(%rbp)
   139f6:	48 8d 85 a0 f8 ff ff 	lea    -0x760(%rbp),%rax
   139fd:	48 89 85 b8 fe ff ff 	mov    %rax,-0x148(%rbp)
   13a04:	48 8d 85 98 f8 ff ff 	lea    -0x768(%rbp),%rax
   13a0b:	48 89 85 c0 fe ff ff 	mov    %rax,-0x140(%rbp)
   13a12:	48 8d 85 98 f8 ff ff 	lea    -0x768(%rbp),%rax
   13a19:	48 89 85 c8 fe ff ff 	mov    %rax,-0x138(%rbp)
   13a20:	48 8d 85 a0 f8 ff ff 	lea    -0x760(%rbp),%rax
   13a27:	48 89 85 d0 fe ff ff 	mov    %rax,-0x130(%rbp)
   13a2e:	48 8d 85 98 f8 ff ff 	lea    -0x768(%rbp),%rax
   13a35:	48 89 85 d8 fe ff ff 	mov    %rax,-0x128(%rbp)
   13a3c:	48 8d 85 98 f8 ff ff 	lea    -0x768(%rbp),%rax
   13a43:	48 89 85 e0 fe ff ff 	mov    %rax,-0x120(%rbp)
   13a4a:	48 c7 85 e8 fe ff ff 	movq   $0x0,-0x118(%rbp)
   13a51:	00 00 00 00 
   13a55:	48 c7 85 f0 fe ff ff 	movq   $0x0,-0x110(%rbp)
   13a5c:	00 00 00 00 
   13a60:	48 8d 85 98 f8 ff ff 	lea    -0x768(%rbp),%rax
   13a67:	48 89 85 f8 fe ff ff 	mov    %rax,-0x108(%rbp)
   13a6e:	48 c7 85 00 ff ff ff 	movq   $0x0,-0x100(%rbp)
   13a75:	00 00 00 00 
   13a79:	48 c7 85 08 ff ff ff 	movq   $0x0,-0xf8(%rbp)
   13a80:	00 00 00 00 
   13a84:	48 8d 85 98 f8 ff ff 	lea    -0x768(%rbp),%rax
   13a8b:	48 89 85 10 ff ff ff 	mov    %rax,-0xf0(%rbp)
   13a92:	48 c7 85 18 ff ff ff 	movq   $0x0,-0xe8(%rbp)
   13a99:	00 00 00 00 
   13a9d:	48 c7 85 20 ff ff ff 	movq   $0x0,-0xe0(%rbp)
   13aa4:	00 00 00 00 
   13aa8:	48 8d 85 98 f8 ff ff 	lea    -0x768(%rbp),%rax
   13aaf:	48 89 85 28 ff ff ff 	mov    %rax,-0xd8(%rbp)
   13ab6:	48 c7 85 30 ff ff ff 	movq   $0x0,-0xd0(%rbp)
   13abd:	00 00 00 00 
   13ac1:	48 8d 85 98 f8 ff ff 	lea    -0x768(%rbp),%rax
   13ac8:	48 89 85 38 ff ff ff 	mov    %rax,-0xc8(%rbp)
   13acf:	48 c7 85 40 ff ff ff 	movq   $0x0,-0xc0(%rbp)
   13ad6:	00 00 00 00 
   13ada:	48 c7 85 48 ff ff ff 	movq   $0x0,-0xb8(%rbp)
   13ae1:	00 00 00 00 
   13ae5:	48 8d 85 98 f8 ff ff 	lea    -0x768(%rbp),%rax
   13aec:	48 89 85 50 ff ff ff 	mov    %rax,-0xb0(%rbp)
   13af3:	48 c7 85 58 ff ff ff 	movq   $0x0,-0xa8(%rbp)
   13afa:	00 00 00 00 
   13afe:	48 c7 85 60 ff ff ff 	movq   $0x0,-0xa0(%rbp)
   13b05:	00 00 00 00 
   13b09:	48 8d 85 98 f8 ff ff 	lea    -0x768(%rbp),%rax
   13b10:	48 89 85 68 ff ff ff 	mov    %rax,-0x98(%rbp)
   13b17:	48 c7 85 70 ff ff ff 	movq   $0x0,-0x90(%rbp)
   13b1e:	00 00 00 00 
   13b22:	48 c7 85 78 ff ff ff 	movq   $0x0,-0x88(%rbp)
   13b29:	00 00 00 00 
   13b2d:	48 8d 85 98 f8 ff ff 	lea    -0x768(%rbp),%rax
   13b34:	48 89 45 80          	mov    %rax,-0x80(%rbp)
   13b38:	48 8d 85 98 f8 ff ff 	lea    -0x768(%rbp),%rax
   13b3f:	48 89 45 88          	mov    %rax,-0x78(%rbp)
   13b43:	48 8d 85 a0 f8 ff ff 	lea    -0x760(%rbp),%rax
   13b4a:	48 89 45 90          	mov    %rax,-0x70(%rbp)
   13b4e:	48 8d 85 98 f8 ff ff 	lea    -0x768(%rbp),%rax
   13b55:	48 89 45 98          	mov    %rax,-0x68(%rbp)
   13b59:	48 8d 85 98 f8 ff ff 	lea    -0x768(%rbp),%rax
   13b60:	48 89 45 a0          	mov    %rax,-0x60(%rbp)
   13b64:	48 8d 85 a0 f8 ff ff 	lea    -0x760(%rbp),%rax
   13b6b:	48 89 45 a8          	mov    %rax,-0x58(%rbp)
   13b6f:	48 8d 85 98 f8 ff ff 	lea    -0x768(%rbp),%rax
   13b76:	48 89 45 b0          	mov    %rax,-0x50(%rbp)
   13b7a:	48 8d 85 98 f8 ff ff 	lea    -0x768(%rbp),%rax
   13b81:	48 89 45 b8          	mov    %rax,-0x48(%rbp)
   13b85:	48 8d 85 a0 f8 ff ff 	lea    -0x760(%rbp),%rax
   13b8c:	48 89 45 c0          	mov    %rax,-0x40(%rbp)
   13b90:	48 8d 85 98 f8 ff ff 	lea    -0x768(%rbp),%rax
   13b97:	48 89 45 c8          	mov    %rax,-0x38(%rbp)
   13b9b:	48 8d 85 90 fe ff ff 	lea    -0x170(%rbp),%rax
   13ba2:	48 83 c0 50          	add    $0x50,%rax
   13ba6:	48 89 85 a8 f8 ff ff 	mov    %rax,-0x758(%rbp)
   13bad:	48 8d 85 a8 f8 ff ff 	lea    -0x758(%rbp),%rax
   13bb4:	48 89 85 58 f9 ff ff 	mov    %rax,-0x6a8(%rbp)
   13bbb:	8b 9d 5c f8 ff ff    	mov    -0x7a4(%rbp),%ebx
   13bc1:	0f b7 05 b0 99 00 00 	movzwl 0x99b0(%rip),%eax        # 1d578 <g_201>
   13bc8:	98                   	cwtl   
   13bc9:	0f b7 15 a8 99 00 00 	movzwl 0x99a8(%rip),%edx        # 1d578 <g_201>
   13bd0:	0f bf d2             	movswl %dx,%edx
   13bd3:	0f b7 0d 9e 99 00 00 	movzwl 0x999e(%rip),%ecx        # 1d578 <g_201>
   13bda:	0f bf c9             	movswl %cx,%ecx
   13bdd:	83 c1 03             	add    $0x3,%ecx
   13be0:	48 63 f1             	movslq %ecx,%rsi
   13be3:	48 98                	cltq   
   13be5:	48 63 ca             	movslq %edx,%rcx
   13be8:	48 89 c2             	mov    %rax,%rdx
   13beb:	48 01 d2             	add    %rdx,%rdx
   13bee:	48 01 c2             	add    %rax,%rdx
   13bf1:	48 89 d0             	mov    %rdx,%rax
   13bf4:	48 c1 e0 04          	shl    $0x4,%rax
   13bf8:	48 89 c2             	mov    %rax,%rdx
   13bfb:	48 89 c8             	mov    %rcx,%rax
   13bfe:	48 01 c0             	add    %rax,%rax
   13c01:	48 01 c8             	add    %rcx,%rax
   13c04:	48 01 c0             	add    %rax,%rax
   13c07:	48 01 d0             	add    %rdx,%rax
   13c0a:	48 8d 4d e0          	lea    -0x20(%rbp),%rcx
   13c0e:	48 01 c8             	add    %rcx,%rax
   13c11:	48 01 f0             	add    %rsi,%rax
   13c14:	48 2d f0 05 00 00    	sub    $0x5f0,%rax
   13c1a:	0f b6 00             	movzbl (%rax),%eax
   13c1d:	44 0f be f0          	movsbl %al,%r14d
   13c21:	0f b6 85 3e fa ff ff 	movzbl -0x5c2(%rbp),%eax
   13c28:	66 98                	cbtw   
   13c2a:	44 0f b7 e0          	movzwl %ax,%r12d
   13c2e:	44 8b ad 60 f8 ff ff 	mov    -0x7a0(%rbp),%r13d
   13c35:	0f b6 85 24 f8 ff ff 	movzbl -0x7dc(%rbp),%eax
   13c3c:	0f be d0             	movsbl %al,%edx
   13c3f:	8b 85 20 f8 ff ff    	mov    -0x7e0(%rbp),%eax
   13c45:	89 85 64 f8 ff ff    	mov    %eax,-0x79c(%rbp)
   13c4b:	48 8b 05 8e 9d 00 00 	mov    0x9d8e(%rip),%rax        # 1d9e0 <g_406>
   13c52:	48 c1 e8 20          	shr    $0x20,%rax
   13c56:	66 25 ff 7f          	and    $0x7fff,%ax
   13c5a:	66 83 f8 01          	cmp    $0x1,%ax
   13c5e:	0f 96 c0             	setbe  %al
   13c61:	0f b6 c8             	movzbl %al,%ecx
   13c64:	48 8b 85 50 f9 ff ff 	mov    -0x6b0(%rbp),%rax
   13c6b:	66 89 08             	mov    %cx,(%rax)
   13c6e:	48 8b 85 50 f9 ff ff 	mov    -0x6b0(%rbp),%rax
   13c75:	0f b7 00             	movzwl (%rax),%eax
   13c78:	0f b7 c0             	movzwl %ax,%eax
   13c7b:	89 d6                	mov    %edx,%esi
   13c7d:	89 c7                	mov    %eax,%edi
   13c7f:	e8 f6 31 ff ff       	callq  6e7a <safe_rshift_func_uint16_t_u_u>
   13c84:	89 c2                	mov    %eax,%edx
   13c86:	0f b6 85 05 fa ff ff 	movzbl -0x5fb(%rbp),%eax
   13c8d:	31 d0                	xor    %edx,%eax
   13c8f:	0f be c0             	movsbl %al,%eax
   13c92:	44 89 ee             	mov    %r13d,%esi
   13c95:	89 c7                	mov    %eax,%edi
   13c97:	e8 52 26 ff ff       	callq  62ee <safe_lshift_func_int8_t_s_u>
   13c9c:	66 98                	cbtw   
   13c9e:	0f b7 c0             	movzwl %ax,%eax
   13ca1:	44 89 e6             	mov    %r12d,%esi
   13ca4:	89 c7                	mov    %eax,%edi
   13ca6:	e8 92 30 ff ff       	callq  6d3d <safe_mul_func_uint16_t_u_u>
   13cab:	83 e0 01             	and    $0x1,%eax
   13cae:	83 e0 01             	and    $0x1,%eax
   13cb1:	8d 14 85 00 00 00 00 	lea    0x0(,%rax,4),%edx
   13cb8:	0f b6 05 5f 9d 00 00 	movzbl 0x9d5f(%rip),%eax        # 1da1e <g_510+0xe>
   13cbf:	83 e0 fb             	and    $0xfffffffb,%eax
   13cc2:	09 d0                	or     %edx,%eax
   13cc4:	88 05 54 9d 00 00    	mov    %al,0x9d54(%rip)        # 1da1e <g_510+0xe>
   13cca:	0f b6 85 34 fa ff ff 	movzbl -0x5cc(%rbp),%eax
   13cd1:	0f be c0             	movsbl %al,%eax
   13cd4:	8b 95 20 f8 ff ff    	mov    -0x7e0(%rbp),%edx
   13cda:	89 d6                	mov    %edx,%esi
   13cdc:	89 c7                	mov    %eax,%edi
   13cde:	e8 52 26 ff ff       	callq  6335 <safe_rshift_func_int8_t_s_s>
   13ce3:	89 c2                	mov    %eax,%edx
   13ce5:	48 8b 05 0c c3 00 00 	mov    0xc30c(%rip),%rax        # 1fff8 <g_626>
   13cec:	48 8b 00             	mov    (%rax),%rax
   13cef:	0f b7 00             	movzwl (%rax),%eax
   13cf2:	31 d0                	xor    %edx,%eax
   13cf4:	0f b6 c0             	movzbl %al,%eax
   13cf7:	be 6c 00 00 00       	mov    $0x6c,%esi
   13cfc:	89 c7                	mov    %eax,%edi
   13cfe:	e8 90 2e ff ff       	callq  6b93 <safe_mul_func_uint8_t_u_u>
   13d03:	0f b6 d0             	movzbl %al,%edx
   13d06:	48 8b 85 a0 f8 ff ff 	mov    -0x760(%rbp),%rax
   13d0d:	48 8b 8d f8 f8 ff ff 	mov    -0x708(%rbp),%rcx
   13d14:	48 89 08             	mov    %rcx,(%rax)
   13d17:	48 8b 00             	mov    (%rax),%rax
   13d1a:	48 85 c0             	test   %rax,%rax
   13d1d:	0f 94 c0             	sete   %al
   13d20:	0f b6 c0             	movzbl %al,%eax
   13d23:	48 89 d6             	mov    %rdx,%rsi
   13d26:	48 89 c7             	mov    %rax,%rdi
   13d29:	e8 00 33 ff ff       	callq  702e <safe_add_func_uint64_t_u_u>
   13d2e:	48 85 c0             	test   %rax,%rax
   13d31:	74 13                	je     13d46 <func_54+0x1130>
   13d33:	0f b7 05 be 9c 00 00 	movzwl 0x9cbe(%rip),%eax        # 1d9f8 <g_477>
   13d3a:	66 85 c0             	test   %ax,%ax
   13d3d:	74 07                	je     13d46 <func_54+0x1130>
   13d3f:	b8 01 00 00 00       	mov    $0x1,%eax
   13d44:	eb 05                	jmp    13d4b <func_54+0x1135>
   13d46:	b8 00 00 00 00       	mov    $0x0,%eax
   13d4b:	44 39 f0             	cmp    %r14d,%eax
   13d4e:	0f 95 c0             	setne  %al
   13d51:	0f b6 c0             	movzbl %al,%eax
   13d54:	be fc ff 00 00       	mov    $0xfffc,%esi
   13d59:	89 c7                	mov    %eax,%edi
   13d5b:	e8 dd 2f ff ff       	callq  6d3d <safe_mul_func_uint16_t_u_u>
   13d60:	48 8b 85 b8 f8 ff ff 	mov    -0x748(%rbp),%rax
   13d67:	48 c7 00 01 00 00 00 	movq   $0x1,(%rax)
   13d6e:	48 8b 85 b8 f8 ff ff 	mov    -0x748(%rbp),%rax
   13d75:	48 8b 00             	mov    (%rax),%rax
   13d78:	89 c2                	mov    %eax,%edx
   13d7a:	8b 05 bc 9c 00 00    	mov    0x9cbc(%rip),%eax        # 1da3c <g_527+0xc>
   13d80:	c1 e0 0e             	shl    $0xe,%eax
   13d83:	c1 f8 0e             	sar    $0xe,%eax
   13d86:	09 d0                	or     %edx,%eax
   13d88:	89 de                	mov    %ebx,%esi
   13d8a:	89 c7                	mov    %eax,%edi
   13d8c:	e8 6c 31 ff ff       	callq  6efd <safe_mod_func_uint32_t_u_u>
   13d91:	be 4b a1 d1 67       	mov    $0x67d1a14b,%esi
   13d96:	89 c7                	mov    %eax,%edi
   13d98:	e8 2f 29 ff ff       	callq  66cc <safe_mod_func_int32_t_s_s>
   13d9d:	48 8b 85 58 f9 ff ff 	mov    -0x6a8(%rbp),%rax
   13da4:	48 c7 00 00 00 00 00 	movq   $0x0,(%rax)
   13dab:	8b 85 1c f8 ff ff    	mov    -0x7e4(%rbp),%eax
   13db1:	44 8d 60 01          	lea    0x1(%rax),%r12d
   13db5:	0f b7 05 bc 97 00 00 	movzwl 0x97bc(%rip),%eax        # 1d578 <g_201>
   13dbc:	0f bf d8             	movswl %ax,%ebx
   13dbf:	48 8d 85 48 f8 ff ff 	lea    -0x7b8(%rbp),%rax
   13dc6:	48 89 c7             	mov    %rax,%rdi
   13dc9:	e8 27 02 00 00       	callq  13ff5 <func_59>
   13dce:	48 63 d3             	movslq %ebx,%rdx
   13dd1:	49 63 f4             	movslq %r12d,%rsi
   13dd4:	8b 8d 1c f8 ff ff    	mov    -0x7e4(%rbp),%ecx
   13dda:	48 63 c9             	movslq %ecx,%rcx
   13ddd:	48 c1 e6 02          	shl    $0x2,%rsi
   13de1:	48 01 f1             	add    %rsi,%rcx
   13de4:	48 01 c9             	add    %rcx,%rcx
   13de7:	48 01 ca             	add    %rcx,%rdx
   13dea:	48 89 84 d5 50 fd ff 	mov    %rax,-0x2b0(%rbp,%rdx,8)
   13df1:	ff 
   13df2:	83 85 1c f8 ff ff 01 	addl   $0x1,-0x7e4(%rbp)
   13df9:	83 bd 1c f8 ff ff 01 	cmpl   $0x1,-0x7e4(%rbp)
   13e00:	0f 8e 79 fb ff ff    	jle    1397f <func_54+0xd69>
   13e06:	0f b7 05 6b 97 00 00 	movzwl 0x976b(%rip),%eax        # 1d578 <g_201>
   13e0d:	83 c0 01             	add    $0x1,%eax
   13e10:	66 89 05 61 97 00 00 	mov    %ax,0x9761(%rip)        # 1d578 <g_201>
   13e17:	0f b7 05 5a 97 00 00 	movzwl 0x975a(%rip),%eax        # 1d578 <g_201>
   13e1e:	66 83 f8 01          	cmp    $0x1,%ax
   13e22:	0f 8e 1c fb ff ff    	jle    13944 <func_54+0xd2e>
   13e28:	8b 05 36 92 00 00    	mov    0x9236(%rip),%eax        # 1d064 <g_47>
   13e2e:	be 01 00 00 00       	mov    $0x1,%esi
   13e33:	89 c7                	mov    %eax,%edi
   13e35:	e8 cb 27 ff ff       	callq  6605 <safe_sub_func_int32_t_s_s>
   13e3a:	89 05 24 92 00 00    	mov    %eax,0x9224(%rip)        # 1d064 <g_47>
   13e40:	8b 05 1e 92 00 00    	mov    0x921e(%rip),%eax        # 1d064 <g_47>
   13e46:	83 f8 e9             	cmp    $0xffffffe9,%eax
   13e49:	0f 84 d2 f1 ff ff    	je     13021 <func_54+0x40b>
   13e4f:	8b 85 40 f8 ff ff    	mov    -0x7c0(%rbp),%eax
   13e55:	48 63 d0             	movslq %eax,%rdx
   13e58:	48 8b 85 00 f9 ff ff 	mov    -0x700(%rbp),%rax
   13e5f:	48 89 10             	mov    %rdx,(%rax)
   13e62:	48 8b 85 00 f9 ff ff 	mov    -0x700(%rbp),%rax
   13e69:	48 8b 18             	mov    (%rax),%rbx
   13e6c:	0f b6 05 5a 9b 00 00 	movzbl 0x9b5a(%rip),%eax        # 1d9cd <g_360>
   13e73:	84 c0                	test   %al,%al
   13e75:	0f 95 c0             	setne  %al
   13e78:	0f b6 c0             	movzbl %al,%eax
   13e7b:	89 c6                	mov    %eax,%esi
   13e7d:	bf ca ff ff ff       	mov    $0xffffffca,%edi
   13e82:	e8 67 24 ff ff       	callq  62ee <safe_lshift_func_int8_t_s_u>
   13e87:	0f be d0             	movsbl %al,%edx
   13e8a:	8b 85 20 f8 ff ff    	mov    -0x7e0(%rbp),%eax
   13e90:	98                   	cwtl   
   13e91:	89 d6                	mov    %edx,%esi
   13e93:	89 c7                	mov    %eax,%edi
   13e95:	e8 19 25 ff ff       	callq  63b3 <safe_add_func_int16_t_s_s>
   13e9a:	0f bf d0             	movswl %ax,%edx
   13e9d:	48 8b 85 08 f9 ff ff 	mov    -0x6f8(%rbp),%rax
   13ea4:	89 10                	mov    %edx,(%rax)
   13ea6:	8b 85 a0 fc ff ff    	mov    -0x360(%rbp),%eax
   13eac:	98                   	cwtl   
   13ead:	be 01 00 00 00       	mov    $0x1,%esi
   13eb2:	89 c7                	mov    %eax,%edi
   13eb4:	e8 5d 25 ff ff       	callq  6416 <safe_mod_func_int16_t_s_s>
   13eb9:	48 0f bf d0          	movswq %ax,%rdx
   13ebd:	48 8b 85 10 f9 ff ff 	mov    -0x6f0(%rbp),%rax
   13ec4:	48 89 10             	mov    %rdx,(%rax)
   13ec7:	48 8b 85 10 f9 ff ff 	mov    -0x6f0(%rbp),%rax
   13ece:	48 8b 00             	mov    (%rax),%rax
   13ed1:	48 be d3 9d 9e 86 ed 	movabs $0x8ca08ed869e9dd3,%rsi
   13ed8:	08 ca 08 
   13edb:	48 89 c7             	mov    %rax,%rdi
   13ede:	e8 d1 2a ff ff       	callq  69b4 <safe_mod_func_int64_t_s_s>
   13ee3:	48 39 c3             	cmp    %rax,%rbx
   13ee6:	0f 95 c0             	setne  %al
   13ee9:	0f b6 c0             	movzbl %al,%eax
   13eec:	66 89 05 e1 9a 00 00 	mov    %ax,0x9ae1(%rip)        # 1d9d4 <g_385>
   13ef3:	0f b6 85 24 f8 ff ff 	movzbl -0x7dc(%rbp),%eax
   13efa:	3c 01                	cmp    $0x1,%al
   13efc:	7e 11                	jle    13f0f <func_54+0x12f9>
   13efe:	8b 85 44 f8 ff ff    	mov    -0x7bc(%rbp),%eax
   13f04:	85 c0                	test   %eax,%eax
   13f06:	74 07                	je     13f0f <func_54+0x12f9>
   13f08:	b8 01 00 00 00       	mov    $0x1,%eax
   13f0d:	eb 05                	jmp    13f14 <func_54+0x12fe>
   13f0f:	b8 00 00 00 00       	mov    $0x0,%eax
   13f14:	0f be c0             	movsbl %al,%eax
   13f17:	be dd ff ff ff       	mov    $0xffffffdd,%esi
   13f1c:	89 c7                	mov    %eax,%edi
   13f1e:	e8 ef 22 ff ff       	callq  6212 <safe_mul_func_int8_t_s_s>
   13f23:	48 8b 85 b8 f8 ff ff 	mov    -0x748(%rbp),%rax
   13f2a:	48 c7 00 ff ff ff ff 	movq   $0xffffffffffffffff,(%rax)
   13f31:	48 c7 c6 ff ff ff ff 	mov    $0xffffffffffffffff,%rsi
   13f38:	bf 06 00 00 00       	mov    $0x6,%edi
   13f3d:	e8 ec 30 ff ff       	callq  702e <safe_add_func_uint64_t_u_u>
   13f42:	48 89 c2             	mov    %rax,%rdx
   13f45:	48 8b 85 b0 f8 ff ff 	mov    -0x750(%rbp),%rax
   13f4c:	48 8b 00             	mov    (%rax),%rax
   13f4f:	48 8b 00             	mov    (%rax),%rax
   13f52:	48 8b 00             	mov    (%rax),%rax
   13f55:	66 89 10             	mov    %dx,(%rax)
   13f58:	0f b7 00             	movzwl (%rax),%eax
   13f5b:	98                   	cwtl   
   13f5c:	89 85 48 f8 ff ff    	mov    %eax,-0x7b8(%rbp)
   13f62:	8b 85 48 f8 ff ff    	mov    -0x7b8(%rbp),%eax
   13f68:	98                   	cwtl   
   13f69:	be ff ff ff ff       	mov    $0xffffffff,%esi
   13f6e:	89 c7                	mov    %eax,%edi
   13f70:	e8 3e 24 ff ff       	callq  63b3 <safe_add_func_int16_t_s_s>
   13f75:	98                   	cwtl   
   13f76:	31 85 54 f8 ff ff    	xor    %eax,-0x7ac(%rbp)
   13f7c:	0f b6 05 45 d6 00 00 	movzbl 0xd645(%rip),%eax        # 215c8 <g_85>
   13f83:	83 c0 01             	add    $0x1,%eax
   13f86:	88 05 3c d6 00 00    	mov    %al,0xd63c(%rip)        # 215c8 <g_85>
   13f8c:	0f b6 05 35 d6 00 00 	movzbl 0xd635(%rip),%eax        # 215c8 <g_85>
   13f93:	3c 19                	cmp    $0x19,%al
   13f95:	0f 8e 9b ef ff ff    	jle    12f36 <func_54+0x320>
   13f9b:	48 8b 95 80 f8 ff ff 	mov    -0x780(%rbp),%rdx
   13fa2:	48 8b 85 c8 f8 ff ff 	mov    -0x738(%rbp),%rax
   13fa9:	48 89 10             	mov    %rdx,(%rax)
   13fac:	48 8b 85 c8 f8 ff ff 	mov    -0x738(%rbp),%rax
   13fb3:	48 8b 10             	mov    (%rax),%rdx
   13fb6:	48 8b 85 d0 f8 ff ff 	mov    -0x730(%rbp),%rax
   13fbd:	48 89 10             	mov    %rdx,(%rax)
   13fc0:	66 83 85 3e f8 ff ff 	addw   $0x1,-0x7c2(%rbp)
   13fc7:	01 
   13fc8:	48 8b 85 d8 f8 ff ff 	mov    -0x728(%rbp),%rax
   13fcf:	8b 00                	mov    (%rax),%eax
   13fd1:	48 8b 5d d8          	mov    -0x28(%rbp),%rbx
   13fd5:	64 48 33 1c 25 28 00 	xor    %fs:0x28,%rbx
   13fdc:	00 00 
   13fde:	74 05                	je     13fe5 <func_54+0x13cf>
   13fe0:	e8 8b 20 ff ff       	callq  6070 <__stack_chk_fail@plt>
   13fe5:	48 81 c4 d0 07 00 00 	add    $0x7d0,%rsp
   13fec:	5b                   	pop    %rbx
   13fed:	41 5c                	pop    %r12
   13fef:	41 5d                	pop    %r13
   13ff1:	41 5e                	pop    %r14
   13ff3:	5d                   	pop    %rbp
   13ff4:	c3                   	retq   

0000000000013ff5 <func_59>:
   13ff5:	f3 0f 1e fa          	endbr64 
   13ff9:	55                   	push   %rbp
   13ffa:	48 89 e5             	mov    %rsp,%rbp
   13ffd:	48 81 ec 90 07 00 00 	sub    $0x790,%rsp
   14004:	48 89 bd 78 f8 ff ff 	mov    %rdi,-0x788(%rbp)
   1400b:	64 48 8b 04 25 28 00 	mov    %fs:0x28,%rax
   14012:	00 00 
   14014:	48 89 45 f8          	mov    %rax,-0x8(%rbp)
   14018:	31 c0                	xor    %eax,%eax
   1401a:	48 8d 05 43 90 00 00 	lea    0x9043(%rip),%rax        # 1d064 <g_47>
   14021:	48 89 85 98 f8 ff ff 	mov    %rax,-0x768(%rbp)
   14028:	48 b8 97 a5 98 a4 d4 	movabs $0xcf28d0d4a498a597,%rax
   1402f:	d0 28 cf 
   14032:	48 89 85 a0 f8 ff ff 	mov    %rax,-0x760(%rbp)
   14039:	48 c7 85 a8 f8 ff ff 	movq   $0x0,-0x758(%rbp)
   14040:	00 00 00 00 
   14044:	48 c7 85 b0 f8 ff ff 	movq   $0x0,-0x750(%rbp)
   1404b:	00 00 00 00 
   1404f:	48 8d 85 b0 f8 ff ff 	lea    -0x750(%rbp),%rax
   14056:	48 89 85 c8 f8 ff ff 	mov    %rax,-0x738(%rbp)
   1405d:	48 8d 85 a0 f8 ff ff 	lea    -0x760(%rbp),%rax
   14064:	48 89 85 50 f9 ff ff 	mov    %rax,-0x6b0(%rbp)
   1406b:	48 8d 85 a0 f8 ff ff 	lea    -0x760(%rbp),%rax
   14072:	48 89 85 58 f9 ff ff 	mov    %rax,-0x6a8(%rbp)
   14079:	48 8d 85 a0 f8 ff ff 	lea    -0x760(%rbp),%rax
   14080:	48 89 85 60 f9 ff ff 	mov    %rax,-0x6a0(%rbp)
   14087:	48 8d 85 a0 f8 ff ff 	lea    -0x760(%rbp),%rax
   1408e:	48 89 85 68 f9 ff ff 	mov    %rax,-0x698(%rbp)
   14095:	48 8d 85 a0 f8 ff ff 	lea    -0x760(%rbp),%rax
   1409c:	48 89 85 70 f9 ff ff 	mov    %rax,-0x690(%rbp)
   140a3:	48 8d 85 a0 f8 ff ff 	lea    -0x760(%rbp),%rax
   140aa:	48 89 85 78 f9 ff ff 	mov    %rax,-0x688(%rbp)
   140b1:	48 8d 85 a0 f8 ff ff 	lea    -0x760(%rbp),%rax
   140b8:	48 89 85 80 f9 ff ff 	mov    %rax,-0x680(%rbp)
   140bf:	48 8d 85 a0 f8 ff ff 	lea    -0x760(%rbp),%rax
   140c6:	48 89 85 88 f9 ff ff 	mov    %rax,-0x678(%rbp)
   140cd:	c7 85 8c f8 ff ff 00 	movl   $0x0,-0x774(%rbp)
   140d4:	00 00 00 
   140d7:	c7 85 90 f8 ff ff c9 	movl   $0xf66f2fc9,-0x770(%rbp)
   140de:	2f 6f f6 
   140e1:	48 8d 85 98 f8 ff ff 	lea    -0x768(%rbp),%rax
   140e8:	48 89 85 d0 fa ff ff 	mov    %rax,-0x530(%rbp)
   140ef:	48 8d 85 98 f8 ff ff 	lea    -0x768(%rbp),%rax
   140f6:	48 89 85 d8 fa ff ff 	mov    %rax,-0x528(%rbp)
   140fd:	48 8d 85 98 f8 ff ff 	lea    -0x768(%rbp),%rax
   14104:	48 89 85 e0 fa ff ff 	mov    %rax,-0x520(%rbp)
   1410b:	48 8d 85 98 f8 ff ff 	lea    -0x768(%rbp),%rax
   14112:	48 89 85 e8 fa ff ff 	mov    %rax,-0x518(%rbp)
   14119:	48 8d 05 88 be 00 00 	lea    0xbe88(%rip),%rax        # 1ffa8 <g_63>
   14120:	48 89 85 f0 fa ff ff 	mov    %rax,-0x510(%rbp)
   14127:	48 8d 85 98 f8 ff ff 	lea    -0x768(%rbp),%rax
   1412e:	48 89 85 f8 fa ff ff 	mov    %rax,-0x508(%rbp)
   14135:	48 c7 85 00 fb ff ff 	movq   $0x0,-0x500(%rbp)
   1413c:	00 00 00 00 
   14140:	48 8d 85 98 f8 ff ff 	lea    -0x768(%rbp),%rax
   14147:	48 89 85 08 fb ff ff 	mov    %rax,-0x4f8(%rbp)
   1414e:	48 c7 85 10 fb ff ff 	movq   $0x0,-0x4f0(%rbp)
   14155:	00 00 00 00 
   14159:	48 8d 85 98 f8 ff ff 	lea    -0x768(%rbp),%rax
   14160:	48 89 85 18 fb ff ff 	mov    %rax,-0x4e8(%rbp)
   14167:	48 c7 85 20 fb ff ff 	movq   $0x0,-0x4e0(%rbp)
   1416e:	00 00 00 00 
   14172:	48 c7 85 28 fb ff ff 	movq   $0x0,-0x4d8(%rbp)
   14179:	00 00 00 00 
   1417d:	48 c7 85 30 fb ff ff 	movq   $0x0,-0x4d0(%rbp)
   14184:	00 00 00 00 
   14188:	48 c7 85 38 fb ff ff 	movq   $0x0,-0x4c8(%rbp)
   1418f:	00 00 00 00 
   14193:	48 c7 85 40 fb ff ff 	movq   $0x0,-0x4c0(%rbp)
   1419a:	00 00 00 00 
   1419e:	48 8d 85 00 f9 ff ff 	lea    -0x700(%rbp),%rax
   141a5:	48 83 c0 08          	add    $0x8,%rax
   141a9:	48 89 85 48 fb ff ff 	mov    %rax,-0x4b8(%rbp)
   141b0:	48 8d 85 98 f8 ff ff 	lea    -0x768(%rbp),%rax
   141b7:	48 89 85 50 fb ff ff 	mov    %rax,-0x4b0(%rbp)
   141be:	48 8d 85 98 f8 ff ff 	lea    -0x768(%rbp),%rax
   141c5:	48 89 85 58 fb ff ff 	mov    %rax,-0x4a8(%rbp)
   141cc:	48 8d 85 98 f8 ff ff 	lea    -0x768(%rbp),%rax
   141d3:	48 89 85 60 fb ff ff 	mov    %rax,-0x4a0(%rbp)
   141da:	48 8d 05 c7 bd 00 00 	lea    0xbdc7(%rip),%rax        # 1ffa8 <g_63>
   141e1:	48 89 85 68 fb ff ff 	mov    %rax,-0x498(%rbp)
   141e8:	48 8d 85 98 f8 ff ff 	lea    -0x768(%rbp),%rax
   141ef:	48 89 85 70 fb ff ff 	mov    %rax,-0x490(%rbp)
   141f6:	48 8d 85 98 f8 ff ff 	lea    -0x768(%rbp),%rax
   141fd:	48 89 85 78 fb ff ff 	mov    %rax,-0x488(%rbp)
   14204:	48 8d 05 9d bd 00 00 	lea    0xbd9d(%rip),%rax        # 1ffa8 <g_63>
   1420b:	48 89 85 80 fb ff ff 	mov    %rax,-0x480(%rbp)
   14212:	48 8d 85 98 f8 ff ff 	lea    -0x768(%rbp),%rax
   14219:	48 89 85 88 fb ff ff 	mov    %rax,-0x478(%rbp)
   14220:	48 8d 85 98 f8 ff ff 	lea    -0x768(%rbp),%rax
   14227:	48 89 85 90 fb ff ff 	mov    %rax,-0x470(%rbp)
   1422e:	48 8d 85 98 f8 ff ff 	lea    -0x768(%rbp),%rax
   14235:	48 89 85 98 fb ff ff 	mov    %rax,-0x468(%rbp)
   1423c:	48 c7 85 a0 fb ff ff 	movq   $0x0,-0x460(%rbp)
   14243:	00 00 00 00 
   14247:	48 8d 05 5a bd 00 00 	lea    0xbd5a(%rip),%rax        # 1ffa8 <g_63>
   1424e:	48 89 85 a8 fb ff ff 	mov    %rax,-0x458(%rbp)
   14255:	48 c7 85 b0 fb ff ff 	movq   $0x0,-0x450(%rbp)
   1425c:	00 00 00 00 
   14260:	48 8d 85 98 f8 ff ff 	lea    -0x768(%rbp),%rax
   14267:	48 89 85 b8 fb ff ff 	mov    %rax,-0x448(%rbp)
   1426e:	48 8d 85 98 f8 ff ff 	lea    -0x768(%rbp),%rax
   14275:	48 89 85 c0 fb ff ff 	mov    %rax,-0x440(%rbp)
   1427c:	48 c7 85 c8 fb ff ff 	movq   $0x0,-0x438(%rbp)
   14283:	00 00 00 00 
   14287:	48 8d 85 00 f9 ff ff 	lea    -0x700(%rbp),%rax
   1428e:	48 89 85 d0 fb ff ff 	mov    %rax,-0x430(%rbp)
   14295:	48 8d 05 0c bd 00 00 	lea    0xbd0c(%rip),%rax        # 1ffa8 <g_63>
   1429c:	48 89 85 d8 fb ff ff 	mov    %rax,-0x428(%rbp)
   142a3:	48 8d 85 98 f8 ff ff 	lea    -0x768(%rbp),%rax
   142aa:	48 89 85 e0 fb ff ff 	mov    %rax,-0x420(%rbp)
   142b1:	48 8d 85 98 f8 ff ff 	lea    -0x768(%rbp),%rax
   142b8:	48 89 85 e8 fb ff ff 	mov    %rax,-0x418(%rbp)
   142bf:	48 8d 85 98 f8 ff ff 	lea    -0x768(%rbp),%rax
   142c6:	48 89 85 f0 fb ff ff 	mov    %rax,-0x410(%rbp)
   142cd:	48 8d 05 d4 bc 00 00 	lea    0xbcd4(%rip),%rax        # 1ffa8 <g_63>
   142d4:	48 89 85 f8 fb ff ff 	mov    %rax,-0x408(%rbp)
   142db:	48 8d 05 c6 bc 00 00 	lea    0xbcc6(%rip),%rax        # 1ffa8 <g_63>
   142e2:	48 89 85 00 fc ff ff 	mov    %rax,-0x400(%rbp)
   142e9:	48 8d 85 98 f8 ff ff 	lea    -0x768(%rbp),%rax
   142f0:	48 89 85 08 fc ff ff 	mov    %rax,-0x3f8(%rbp)
   142f7:	48 8d 85 98 f8 ff ff 	lea    -0x768(%rbp),%rax
   142fe:	48 89 85 10 fc ff ff 	mov    %rax,-0x3f0(%rbp)
   14305:	48 8d 05 9c bc 00 00 	lea    0xbc9c(%rip),%rax        # 1ffa8 <g_63>
   1430c:	48 89 85 18 fc ff ff 	mov    %rax,-0x3e8(%rbp)
   14313:	48 8d 85 98 f8 ff ff 	lea    -0x768(%rbp),%rax
   1431a:	48 89 85 20 fc ff ff 	mov    %rax,-0x3e0(%rbp)
   14321:	48 8d 85 98 f8 ff ff 	lea    -0x768(%rbp),%rax
   14328:	48 89 85 28 fc ff ff 	mov    %rax,-0x3d8(%rbp)
   1432f:	48 8d 85 98 f8 ff ff 	lea    -0x768(%rbp),%rax
   14336:	48 89 85 30 fc ff ff 	mov    %rax,-0x3d0(%rbp)
   1433d:	48 8d 85 00 f9 ff ff 	lea    -0x700(%rbp),%rax
   14344:	48 83 c0 08          	add    $0x8,%rax
   14348:	48 89 85 38 fc ff ff 	mov    %rax,-0x3c8(%rbp)
   1434f:	48 8d 85 98 f8 ff ff 	lea    -0x768(%rbp),%rax
   14356:	48 89 85 40 fc ff ff 	mov    %rax,-0x3c0(%rbp)
   1435d:	48 8d 85 00 f9 ff ff 	lea    -0x700(%rbp),%rax
   14364:	48 89 85 48 fc ff ff 	mov    %rax,-0x3b8(%rbp)
   1436b:	48 c7 85 50 fc ff ff 	movq   $0x0,-0x3b0(%rbp)
   14372:	00 00 00 00 
   14376:	48 8d 85 98 f8 ff ff 	lea    -0x768(%rbp),%rax
   1437d:	48 89 85 58 fc ff ff 	mov    %rax,-0x3a8(%rbp)
   14384:	48 8d 85 98 f8 ff ff 	lea    -0x768(%rbp),%rax
   1438b:	48 89 85 60 fc ff ff 	mov    %rax,-0x3a0(%rbp)
   14392:	48 8d 85 98 f8 ff ff 	lea    -0x768(%rbp),%rax
   14399:	48 89 85 68 fc ff ff 	mov    %rax,-0x398(%rbp)
   143a0:	48 8d 85 98 f8 ff ff 	lea    -0x768(%rbp),%rax
   143a7:	48 89 85 70 fc ff ff 	mov    %rax,-0x390(%rbp)
   143ae:	48 8d 85 00 f9 ff ff 	lea    -0x700(%rbp),%rax
   143b5:	48 83 c0 08          	add    $0x8,%rax
   143b9:	48 89 85 78 fc ff ff 	mov    %rax,-0x388(%rbp)
   143c0:	48 8d 85 98 f8 ff ff 	lea    -0x768(%rbp),%rax
   143c7:	48 89 85 80 fc ff ff 	mov    %rax,-0x380(%rbp)
   143ce:	48 8d 05 d3 bb 00 00 	lea    0xbbd3(%rip),%rax        # 1ffa8 <g_63>
   143d5:	48 89 85 88 fc ff ff 	mov    %rax,-0x378(%rbp)
   143dc:	48 8d 85 98 f8 ff ff 	lea    -0x768(%rbp),%rax
   143e3:	48 89 85 90 fc ff ff 	mov    %rax,-0x370(%rbp)
   143ea:	48 c7 85 98 fc ff ff 	movq   $0x0,-0x368(%rbp)
   143f1:	00 00 00 00 
   143f5:	48 c7 85 a0 fc ff ff 	movq   $0x0,-0x360(%rbp)
   143fc:	00 00 00 00 
   14400:	48 8d 85 98 f8 ff ff 	lea    -0x768(%rbp),%rax
   14407:	48 89 85 a8 fc ff ff 	mov    %rax,-0x358(%rbp)
   1440e:	48 c7 85 b0 fc ff ff 	movq   $0x0,-0x350(%rbp)
   14415:	00 00 00 00 
   14419:	48 8d 85 98 f8 ff ff 	lea    -0x768(%rbp),%rax
   14420:	48 89 85 b8 fc ff ff 	mov    %rax,-0x348(%rbp)
   14427:	48 8d 85 98 f8 ff ff 	lea    -0x768(%rbp),%rax
   1442e:	48 89 85 c0 fc ff ff 	mov    %rax,-0x340(%rbp)
   14435:	48 8d 85 98 f8 ff ff 	lea    -0x768(%rbp),%rax
   1443c:	48 89 85 c8 fc ff ff 	mov    %rax,-0x338(%rbp)
   14443:	48 8d 85 98 f8 ff ff 	lea    -0x768(%rbp),%rax
   1444a:	48 89 85 d0 fc ff ff 	mov    %rax,-0x330(%rbp)
   14451:	48 8d 05 50 bb 00 00 	lea    0xbb50(%rip),%rax        # 1ffa8 <g_63>
   14458:	48 89 85 d8 fc ff ff 	mov    %rax,-0x328(%rbp)
   1445f:	48 8d 85 98 f8 ff ff 	lea    -0x768(%rbp),%rax
   14466:	48 89 85 e0 fc ff ff 	mov    %rax,-0x320(%rbp)
   1446d:	48 8d 85 00 f9 ff ff 	lea    -0x700(%rbp),%rax
   14474:	48 83 c0 08          	add    $0x8,%rax
   14478:	48 89 85 e8 fc ff ff 	mov    %rax,-0x318(%rbp)
   1447f:	48 8d 85 98 f8 ff ff 	lea    -0x768(%rbp),%rax
   14486:	48 89 85 f0 fc ff ff 	mov    %rax,-0x310(%rbp)
   1448d:	48 8d 85 00 f9 ff ff 	lea    -0x700(%rbp),%rax
   14494:	48 83 c0 08          	add    $0x8,%rax
   14498:	48 89 85 f8 fc ff ff 	mov    %rax,-0x308(%rbp)
   1449f:	48 8d 85 98 f8 ff ff 	lea    -0x768(%rbp),%rax
   144a6:	48 89 85 00 fd ff ff 	mov    %rax,-0x300(%rbp)
   144ad:	48 8d 05 f4 ba 00 00 	lea    0xbaf4(%rip),%rax        # 1ffa8 <g_63>
   144b4:	48 89 85 08 fd ff ff 	mov    %rax,-0x2f8(%rbp)
   144bb:	48 8d 85 00 f9 ff ff 	lea    -0x700(%rbp),%rax
   144c2:	48 89 85 10 fd ff ff 	mov    %rax,-0x2f0(%rbp)
   144c9:	48 8d 85 98 f8 ff ff 	lea    -0x768(%rbp),%rax
   144d0:	48 89 85 18 fd ff ff 	mov    %rax,-0x2e8(%rbp)
   144d7:	48 8d 85 98 f8 ff ff 	lea    -0x768(%rbp),%rax
   144de:	48 89 85 20 fd ff ff 	mov    %rax,-0x2e0(%rbp)
   144e5:	48 8d 85 98 f8 ff ff 	lea    -0x768(%rbp),%rax
   144ec:	48 89 85 28 fd ff ff 	mov    %rax,-0x2d8(%rbp)
   144f3:	48 c7 85 30 fd ff ff 	movq   $0x0,-0x2d0(%rbp)
   144fa:	00 00 00 00 
   144fe:	48 8d 85 98 f8 ff ff 	lea    -0x768(%rbp),%rax
   14505:	48 89 85 38 fd ff ff 	mov    %rax,-0x2c8(%rbp)
   1450c:	48 8d 85 98 f8 ff ff 	lea    -0x768(%rbp),%rax
   14513:	48 89 85 40 fd ff ff 	mov    %rax,-0x2c0(%rbp)
   1451a:	48 c7 85 48 fd ff ff 	movq   $0x0,-0x2b8(%rbp)
   14521:	00 00 00 00 
   14525:	48 8d 85 98 f8 ff ff 	lea    -0x768(%rbp),%rax
   1452c:	48 89 85 50 fd ff ff 	mov    %rax,-0x2b0(%rbp)
   14533:	48 8d 85 98 f8 ff ff 	lea    -0x768(%rbp),%rax
   1453a:	48 89 85 58 fd ff ff 	mov    %rax,-0x2a8(%rbp)
   14541:	48 8d 85 98 f8 ff ff 	lea    -0x768(%rbp),%rax
   14548:	48 89 85 60 fd ff ff 	mov    %rax,-0x2a0(%rbp)
   1454f:	48 8d 85 00 f9 ff ff 	lea    -0x700(%rbp),%rax
   14556:	48 83 c0 08          	add    $0x8,%rax
   1455a:	48 89 85 68 fd ff ff 	mov    %rax,-0x298(%rbp)
   14561:	48 c7 85 70 fd ff ff 	movq   $0x0,-0x290(%rbp)
   14568:	00 00 00 00 
   1456c:	48 8d 85 98 f8 ff ff 	lea    -0x768(%rbp),%rax
   14573:	48 89 85 78 fd ff ff 	mov    %rax,-0x288(%rbp)
   1457a:	48 c7 85 80 fd ff ff 	movq   $0x0,-0x280(%rbp)
   14581:	00 00 00 00 
   14585:	48 8d 05 1c ba 00 00 	lea    0xba1c(%rip),%rax        # 1ffa8 <g_63>
   1458c:	48 89 85 88 fd ff ff 	mov    %rax,-0x278(%rbp)
   14593:	48 8d 85 00 f9 ff ff 	lea    -0x700(%rbp),%rax
   1459a:	48 83 c0 08          	add    $0x8,%rax
   1459e:	48 89 85 90 fd ff ff 	mov    %rax,-0x270(%rbp)
   145a5:	48 8d 85 98 f8 ff ff 	lea    -0x768(%rbp),%rax
   145ac:	48 89 85 98 fd ff ff 	mov    %rax,-0x268(%rbp)
   145b3:	48 c7 85 a0 fd ff ff 	movq   $0x0,-0x260(%rbp)
   145ba:	00 00 00 00 
   145be:	48 8d 85 98 f8 ff ff 	lea    -0x768(%rbp),%rax
   145c5:	48 89 85 a8 fd ff ff 	mov    %rax,-0x258(%rbp)
   145cc:	48 c7 85 b0 fd ff ff 	movq   $0x0,-0x250(%rbp)
   145d3:	00 00 00 00 
   145d7:	48 8d 85 98 f8 ff ff 	lea    -0x768(%rbp),%rax
   145de:	48 89 85 b8 fd ff ff 	mov    %rax,-0x248(%rbp)
   145e5:	48 8d 85 98 f8 ff ff 	lea    -0x768(%rbp),%rax
   145ec:	48 89 85 c0 fd ff ff 	mov    %rax,-0x240(%rbp)
   145f3:	48 8d 85 98 f8 ff ff 	lea    -0x768(%rbp),%rax
   145fa:	48 89 85 c8 fd ff ff 	mov    %rax,-0x238(%rbp)
   14601:	48 8d 85 98 f8 ff ff 	lea    -0x768(%rbp),%rax
   14608:	48 89 85 d0 fd ff ff 	mov    %rax,-0x230(%rbp)
   1460f:	48 c7 85 d8 fd ff ff 	movq   $0x0,-0x228(%rbp)
   14616:	00 00 00 00 
   1461a:	48 8d 85 98 f8 ff ff 	lea    -0x768(%rbp),%rax
   14621:	48 89 85 e0 fd ff ff 	mov    %rax,-0x220(%rbp)
   14628:	48 8d 85 98 f8 ff ff 	lea    -0x768(%rbp),%rax
   1462f:	48 89 85 e8 fd ff ff 	mov    %rax,-0x218(%rbp)
   14636:	48 8d 05 6b b9 00 00 	lea    0xb96b(%rip),%rax        # 1ffa8 <g_63>
   1463d:	48 89 85 f0 fd ff ff 	mov    %rax,-0x210(%rbp)
   14644:	48 c7 85 f8 fd ff ff 	movq   $0x0,-0x208(%rbp)
   1464b:	00 00 00 00 
   1464f:	48 8d 85 00 f9 ff ff 	lea    -0x700(%rbp),%rax
   14656:	48 89 85 00 fe ff ff 	mov    %rax,-0x200(%rbp)
   1465d:	48 8d 85 98 f8 ff ff 	lea    -0x768(%rbp),%rax
   14664:	48 89 85 08 fe ff ff 	mov    %rax,-0x1f8(%rbp)
   1466b:	48 8d 85 98 f8 ff ff 	lea    -0x768(%rbp),%rax
   14672:	48 89 85 10 fe ff ff 	mov    %rax,-0x1f0(%rbp)
   14679:	48 8d 85 00 f9 ff ff 	lea    -0x700(%rbp),%rax
   14680:	48 83 c0 08          	add    $0x8,%rax
   14684:	48 89 85 18 fe ff ff 	mov    %rax,-0x1e8(%rbp)
   1468b:	48 c7 85 20 fe ff ff 	movq   $0x0,-0x1e0(%rbp)
   14692:	00 00 00 00 
   14696:	48 c7 85 28 fe ff ff 	movq   $0x0,-0x1d8(%rbp)
   1469d:	00 00 00 00 
   146a1:	48 8d 85 98 f8 ff ff 	lea    -0x768(%rbp),%rax
   146a8:	48 89 85 30 fe ff ff 	mov    %rax,-0x1d0(%rbp)
   146af:	48 8d 85 98 f8 ff ff 	lea    -0x768(%rbp),%rax
   146b6:	48 89 85 38 fe ff ff 	mov    %rax,-0x1c8(%rbp)
   146bd:	48 8d 85 00 f9 ff ff 	lea    -0x700(%rbp),%rax
   146c4:	48 83 c0 08          	add    $0x8,%rax
   146c8:	48 89 85 40 fe ff ff 	mov    %rax,-0x1c0(%rbp)
   146cf:	48 8d 85 98 f8 ff ff 	lea    -0x768(%rbp),%rax
   146d6:	48 89 85 48 fe ff ff 	mov    %rax,-0x1b8(%rbp)
   146dd:	48 8d 05 c4 b8 00 00 	lea    0xb8c4(%rip),%rax        # 1ffa8 <g_63>
   146e4:	48 89 85 50 fe ff ff 	mov    %rax,-0x1b0(%rbp)
   146eb:	48 8d 85 98 f8 ff ff 	lea    -0x768(%rbp),%rax
   146f2:	48 89 85 58 fe ff ff 	mov    %rax,-0x1a8(%rbp)
   146f9:	48 c7 85 60 fe ff ff 	movq   $0x0,-0x1a0(%rbp)
   14700:	00 00 00 00 
   14704:	48 c7 85 68 fe ff ff 	movq   $0x0,-0x198(%rbp)
   1470b:	00 00 00 00 
   1470f:	48 8d 85 98 f8 ff ff 	lea    -0x768(%rbp),%rax
   14716:	48 89 85 70 fe ff ff 	mov    %rax,-0x190(%rbp)
   1471d:	48 c7 85 78 fe ff ff 	movq   $0x0,-0x188(%rbp)
   14724:	00 00 00 00 
   14728:	48 8d 85 98 f8 ff ff 	lea    -0x768(%rbp),%rax
   1472f:	48 89 85 80 fe ff ff 	mov    %rax,-0x180(%rbp)
   14736:	48 8d 85 98 f8 ff ff 	lea    -0x768(%rbp),%rax
   1473d:	48 89 85 88 fe ff ff 	mov    %rax,-0x178(%rbp)
   14744:	48 8d 85 98 f8 ff ff 	lea    -0x768(%rbp),%rax
   1474b:	48 89 85 90 fe ff ff 	mov    %rax,-0x170(%rbp)
   14752:	48 8d 85 98 f8 ff ff 	lea    -0x768(%rbp),%rax
   14759:	48 89 85 98 fe ff ff 	mov    %rax,-0x168(%rbp)
   14760:	48 8d 05 41 b8 00 00 	lea    0xb841(%rip),%rax        # 1ffa8 <g_63>
   14767:	48 89 85 a0 fe ff ff 	mov    %rax,-0x160(%rbp)
   1476e:	48 8d 85 98 f8 ff ff 	lea    -0x768(%rbp),%rax
   14775:	48 89 85 a8 fe ff ff 	mov    %rax,-0x158(%rbp)
   1477c:	48 8d 85 00 f9 ff ff 	lea    -0x700(%rbp),%rax
   14783:	48 83 c0 08          	add    $0x8,%rax
   14787:	48 89 85 b0 fe ff ff 	mov    %rax,-0x150(%rbp)
   1478e:	48 8d 85 98 f8 ff ff 	lea    -0x768(%rbp),%rax
   14795:	48 89 85 b8 fe ff ff 	mov    %rax,-0x148(%rbp)
   1479c:	48 8d 85 00 f9 ff ff 	lea    -0x700(%rbp),%rax
   147a3:	48 83 c0 08          	add    $0x8,%rax
   147a7:	48 89 85 c0 fe ff ff 	mov    %rax,-0x140(%rbp)
   147ae:	48 8d 85 98 f8 ff ff 	lea    -0x768(%rbp),%rax
   147b5:	48 89 85 c8 fe ff ff 	mov    %rax,-0x138(%rbp)
   147bc:	48 8d 05 e5 b7 00 00 	lea    0xb7e5(%rip),%rax        # 1ffa8 <g_63>
   147c3:	48 89 85 d0 fe ff ff 	mov    %rax,-0x130(%rbp)
   147ca:	48 8d 85 00 f9 ff ff 	lea    -0x700(%rbp),%rax
   147d1:	48 89 85 d8 fe ff ff 	mov    %rax,-0x128(%rbp)
   147d8:	48 8d 85 98 f8 ff ff 	lea    -0x768(%rbp),%rax
   147df:	48 89 85 e0 fe ff ff 	mov    %rax,-0x120(%rbp)
   147e6:	48 8d 85 98 f8 ff ff 	lea    -0x768(%rbp),%rax
   147ed:	48 89 85 e8 fe ff ff 	mov    %rax,-0x118(%rbp)
   147f4:	48 8d 85 98 f8 ff ff 	lea    -0x768(%rbp),%rax
   147fb:	48 89 85 f0 fe ff ff 	mov    %rax,-0x110(%rbp)
   14802:	48 c7 85 f8 fe ff ff 	movq   $0x0,-0x108(%rbp)
   14809:	00 00 00 00 
   1480d:	48 8d 85 98 f8 ff ff 	lea    -0x768(%rbp),%rax
   14814:	48 89 85 00 ff ff ff 	mov    %rax,-0x100(%rbp)
   1481b:	48 8d 85 98 f8 ff ff 	lea    -0x768(%rbp),%rax
   14822:	48 89 85 08 ff ff ff 	mov    %rax,-0xf8(%rbp)
   14829:	48 c7 85 10 ff ff ff 	movq   $0x0,-0xf0(%rbp)
   14830:	00 00 00 00 
   14834:	48 8d 85 98 f8 ff ff 	lea    -0x768(%rbp),%rax
   1483b:	48 89 85 18 ff ff ff 	mov    %rax,-0xe8(%rbp)
   14842:	48 8d 85 98 f8 ff ff 	lea    -0x768(%rbp),%rax
   14849:	48 89 85 20 ff ff ff 	mov    %rax,-0xe0(%rbp)
   14850:	48 8d 85 98 f8 ff ff 	lea    -0x768(%rbp),%rax
   14857:	48 89 85 28 ff ff ff 	mov    %rax,-0xd8(%rbp)
   1485e:	48 8d 85 00 f9 ff ff 	lea    -0x700(%rbp),%rax
   14865:	48 83 c0 08          	add    $0x8,%rax
   14869:	48 89 85 30 ff ff ff 	mov    %rax,-0xd0(%rbp)
   14870:	48 c7 85 38 ff ff ff 	movq   $0x0,-0xc8(%rbp)
   14877:	00 00 00 00 
   1487b:	48 8d 85 98 f8 ff ff 	lea    -0x768(%rbp),%rax
   14882:	48 89 85 40 ff ff ff 	mov    %rax,-0xc0(%rbp)
   14889:	48 c7 85 48 ff ff ff 	movq   $0x0,-0xb8(%rbp)
   14890:	00 00 00 00 
   14894:	48 8d 05 0d b7 00 00 	lea    0xb70d(%rip),%rax        # 1ffa8 <g_63>
   1489b:	48 89 85 50 ff ff ff 	mov    %rax,-0xb0(%rbp)
   148a2:	48 8d 85 00 f9 ff ff 	lea    -0x700(%rbp),%rax
   148a9:	48 83 c0 08          	add    $0x8,%rax
   148ad:	48 89 85 58 ff ff ff 	mov    %rax,-0xa8(%rbp)
   148b4:	48 8d 85 98 f8 ff ff 	lea    -0x768(%rbp),%rax
   148bb:	48 89 85 60 ff ff ff 	mov    %rax,-0xa0(%rbp)
   148c2:	48 c7 85 68 ff ff ff 	movq   $0x0,-0x98(%rbp)
   148c9:	00 00 00 00 
   148cd:	48 8d 85 98 f8 ff ff 	lea    -0x768(%rbp),%rax
   148d4:	48 89 85 70 ff ff ff 	mov    %rax,-0x90(%rbp)
   148db:	48 c7 85 78 ff ff ff 	movq   $0x0,-0x88(%rbp)
   148e2:	00 00 00 00 
   148e6:	48 8d 85 98 f8 ff ff 	lea    -0x768(%rbp),%rax
   148ed:	48 89 45 80          	mov    %rax,-0x80(%rbp)
   148f1:	48 8d 85 98 f8 ff ff 	lea    -0x768(%rbp),%rax
   148f8:	48 89 45 88          	mov    %rax,-0x78(%rbp)
   148fc:	48 8d 85 98 f8 ff ff 	lea    -0x768(%rbp),%rax
   14903:	48 89 45 90          	mov    %rax,-0x70(%rbp)
   14907:	48 8d 85 98 f8 ff ff 	lea    -0x768(%rbp),%rax
   1490e:	48 89 45 98          	mov    %rax,-0x68(%rbp)
   14912:	48 c7 45 a0 00 00 00 	movq   $0x0,-0x60(%rbp)
   14919:	00 
   1491a:	48 8d 85 98 f8 ff ff 	lea    -0x768(%rbp),%rax
   14921:	48 89 45 a8          	mov    %rax,-0x58(%rbp)
   14925:	48 8d 85 98 f8 ff ff 	lea    -0x768(%rbp),%rax
   1492c:	48 89 45 b0          	mov    %rax,-0x50(%rbp)
   14930:	48 8d 05 71 b6 00 00 	lea    0xb671(%rip),%rax        # 1ffa8 <g_63>
   14937:	48 89 45 b8          	mov    %rax,-0x48(%rbp)
   1493b:	48 c7 45 c0 00 00 00 	movq   $0x0,-0x40(%rbp)
   14942:	00 
   14943:	48 8d 85 00 f9 ff ff 	lea    -0x700(%rbp),%rax
   1494a:	48 89 45 c8          	mov    %rax,-0x38(%rbp)
   1494e:	48 8d 85 98 f8 ff ff 	lea    -0x768(%rbp),%rax
   14955:	48 89 45 d0          	mov    %rax,-0x30(%rbp)
   14959:	48 8d 85 98 f8 ff ff 	lea    -0x768(%rbp),%rax
   14960:	48 89 45 d8          	mov    %rax,-0x28(%rbp)
   14964:	48 8d 85 d0 fa ff ff 	lea    -0x530(%rbp),%rax
   1496b:	48 05 70 02 00 00    	add    $0x270,%rax
   14971:	48 89 85 b8 f8 ff ff 	mov    %rax,-0x748(%rbp)
   14978:	c7 85 10 f9 ff ff 02 	movl   $0x2,-0x6f0(%rbp)
   1497f:	00 00 00 
   14982:	c7 85 14 f9 ff ff 02 	movl   $0x2,-0x6ec(%rbp)
   14989:	00 00 00 
   1498c:	c7 85 18 f9 ff ff 02 	movl   $0x2,-0x6e8(%rbp)
   14993:	00 00 00 
   14996:	c7 85 1c f9 ff ff 02 	movl   $0x2,-0x6e4(%rbp)
   1499d:	00 00 00 
   149a0:	c7 85 20 f9 ff ff 02 	movl   $0x2,-0x6e0(%rbp)
   149a7:	00 00 00 
   149aa:	48 8d 85 a8 f8 ff ff 	lea    -0x758(%rbp),%rax
   149b1:	48 89 85 d0 f8 ff ff 	mov    %rax,-0x730(%rbp)
   149b8:	48 8d 05 a1 86 00 00 	lea    0x86a1(%rip),%rax        # 1d060 <g_41>
   149bf:	48 89 85 d8 f8 ff ff 	mov    %rax,-0x728(%rbp)
   149c6:	c6 85 30 f9 ff ff f6 	movb   $0xf6,-0x6d0(%rbp)
   149cd:	c6 85 31 f9 ff ff fd 	movb   $0xfd,-0x6cf(%rbp)
   149d4:	c6 85 32 f9 ff ff bb 	movb   $0xbb,-0x6ce(%rbp)
   149db:	c6 85 33 f9 ff ff f6 	movb   $0xf6,-0x6cd(%rbp)
   149e2:	c6 85 34 f9 ff ff e5 	movb   $0xe5,-0x6cc(%rbp)
   149e9:	c6 85 35 f9 ff ff e5 	movb   $0xe5,-0x6cb(%rbp)
   149f0:	c6 85 36 f9 ff ff f6 	movb   $0xf6,-0x6ca(%rbp)
   149f7:	c6 85 37 f9 ff ff bb 	movb   $0xbb,-0x6c9(%rbp)
   149fe:	c6 85 38 f9 ff ff fd 	movb   $0xfd,-0x6c8(%rbp)
   14a05:	c6 85 39 f9 ff ff f6 	movb   $0xf6,-0x6c7(%rbp)
   14a0c:	c6 85 3a f9 ff ff fd 	movb   $0xfd,-0x6c6(%rbp)
   14a13:	c6 85 3b f9 ff ff bb 	movb   $0xbb,-0x6c5(%rbp)
   14a1a:	c6 85 3c f9 ff ff f6 	movb   $0xf6,-0x6c4(%rbp)
   14a21:	c6 85 3d f9 ff ff e5 	movb   $0xe5,-0x6c3(%rbp)
   14a28:	c6 85 3e f9 ff ff e5 	movb   $0xe5,-0x6c2(%rbp)
   14a2f:	c6 85 3f f9 ff ff f6 	movb   $0xf6,-0x6c1(%rbp)
   14a36:	c6 85 40 f9 ff ff bb 	movb   $0xbb,-0x6c0(%rbp)
   14a3d:	c6 85 41 f9 ff ff fd 	movb   $0xfd,-0x6bf(%rbp)
   14a44:	c6 85 42 f9 ff ff f6 	movb   $0xf6,-0x6be(%rbp)
   14a4b:	c6 85 43 f9 ff ff fd 	movb   $0xfd,-0x6bd(%rbp)
   14a52:	c6 85 44 f9 ff ff bb 	movb   $0xbb,-0x6bc(%rbp)
   14a59:	c6 85 45 f9 ff ff f6 	movb   $0xf6,-0x6bb(%rbp)
   14a60:	c6 85 46 f9 ff ff e5 	movb   $0xe5,-0x6ba(%rbp)
   14a67:	c6 85 47 f9 ff ff e5 	movb   $0xe5,-0x6b9(%rbp)
   14a6e:	c6 85 48 f9 ff ff f6 	movb   $0xf6,-0x6b8(%rbp)
   14a75:	c6 85 49 f9 ff ff bb 	movb   $0xbb,-0x6b7(%rbp)
   14a7c:	c6 85 4a f9 ff ff fd 	movb   $0xfd,-0x6b6(%rbp)
   14a83:	48 b8 1f 1f 1f 1f 1f 	movabs $0x1f1f1f1f1f1f1f1f,%rax
   14a8a:	1f 1f 1f 
   14a8d:	48 89 45 ee          	mov    %rax,-0x12(%rbp)
   14a91:	66 c7 45 f6 1f 1f    	movw   $0x1f1f,-0xa(%rbp)
   14a97:	48 8d 05 d8 8a 00 00 	lea    0x8ad8(%rip),%rax        # 1d576 <g_196>
   14a9e:	48 89 85 c0 f8 ff ff 	mov    %rax,-0x740(%rbp)
   14aa5:	48 8d 85 c0 f8 ff ff 	lea    -0x740(%rbp),%rax
   14aac:	48 89 85 e0 f8 ff ff 	mov    %rax,-0x720(%rbp)
   14ab3:	48 8d 05 26 8f 00 00 	lea    0x8f26(%rip),%rax        # 1d9e0 <g_406>
   14aba:	48 89 85 e8 f8 ff ff 	mov    %rax,-0x718(%rbp)
   14ac1:	c7 85 94 f8 ff ff 10 	movl   $0x6451ca10,-0x76c(%rbp)
   14ac8:	ca 51 64 
   14acb:	48 b8 f4 23 e6 e7 9c 	movabs $0x7dc449ce7e623f4,%rax
   14ad2:	44 dc 07 
   14ad5:	48 89 85 f0 f8 ff ff 	mov    %rax,-0x710(%rbp)
   14adc:	48 8d 05 61 85 00 00 	lea    0x8561(%rip),%rax        # 1d044 <g_5+0x4>
   14ae3:	48 89 85 f8 f8 ff ff 	mov    %rax,-0x708(%rbp)
   14aea:	c7 85 84 f8 ff ff 00 	movl   $0x0,-0x77c(%rbp)
   14af1:	00 00 00 
   14af4:	eb 1b                	jmp    14b11 <func_59+0xb1c>
   14af6:	8b 85 84 f8 ff ff    	mov    -0x77c(%rbp),%eax
   14afc:	48 98                	cltq   
   14afe:	48 c7 84 c5 00 f9 ff 	movq   $0x0,-0x700(%rbp,%rax,8)
   14b05:	ff 00 00 00 00 
   14b0a:	83 85 84 f8 ff ff 01 	addl   $0x1,-0x77c(%rbp)
   14b11:	83 bd 84 f8 ff ff 01 	cmpl   $0x1,-0x77c(%rbp)
   14b18:	7e dc                	jle    14af6 <func_59+0xb01>
   14b1a:	c7 85 84 f8 ff ff 00 	movl   $0x0,-0x77c(%rbp)
   14b21:	00 00 00 
   14b24:	eb 55                	jmp    14b7b <func_59+0xb86>
   14b26:	c7 85 88 f8 ff ff 00 	movl   $0x0,-0x778(%rbp)
   14b2d:	00 00 00 
   14b30:	eb 39                	jmp    14b6b <func_59+0xb76>
   14b32:	8b 85 88 f8 ff ff    	mov    -0x778(%rbp),%eax
   14b38:	48 63 c8             	movslq %eax,%rcx
   14b3b:	8b 85 84 f8 ff ff    	mov    -0x77c(%rbp),%eax
   14b41:	48 63 d0             	movslq %eax,%rdx
   14b44:	48 89 d0             	mov    %rdx,%rax
   14b47:	48 c1 e0 02          	shl    $0x2,%rax
   14b4b:	48 01 d0             	add    %rdx,%rax
   14b4e:	48 01 c0             	add    %rax,%rax
   14b51:	48 8d 14 08          	lea    (%rax,%rcx,1),%rdx
   14b55:	48 8d 85 b8 f8 ff ff 	lea    -0x748(%rbp),%rax
   14b5c:	48 89 84 d5 e0 f9 ff 	mov    %rax,-0x620(%rbp,%rdx,8)
   14b63:	ff 
   14b64:	83 85 88 f8 ff ff 01 	addl   $0x1,-0x778(%rbp)
   14b6b:	83 bd 88 f8 ff ff 09 	cmpl   $0x9,-0x778(%rbp)
   14b72:	7e be                	jle    14b32 <func_59+0xb3d>
   14b74:	83 85 84 f8 ff ff 01 	addl   $0x1,-0x77c(%rbp)
   14b7b:	83 bd 84 f8 ff ff 02 	cmpl   $0x2,-0x77c(%rbp)
   14b82:	7e a2                	jle    14b26 <func_59+0xb31>
   14b84:	c7 85 84 f8 ff ff 00 	movl   $0x0,-0x77c(%rbp)
   14b8b:	00 00 00 
   14b8e:	eb 4c                	jmp    14bdc <func_59+0xbe7>
   14b90:	c7 85 88 f8 ff ff 00 	movl   $0x0,-0x778(%rbp)
   14b97:	00 00 00 
   14b9a:	eb 30                	jmp    14bcc <func_59+0xbd7>
   14b9c:	8b 85 88 f8 ff ff    	mov    -0x778(%rbp),%eax
   14ba2:	48 63 c8             	movslq %eax,%rcx
   14ba5:	8b 85 84 f8 ff ff    	mov    -0x77c(%rbp),%eax
   14bab:	48 63 d0             	movslq %eax,%rdx
   14bae:	48 89 d0             	mov    %rdx,%rax
   14bb1:	48 01 c0             	add    %rax,%rax
   14bb4:	48 01 d0             	add    %rdx,%rax
   14bb7:	48 01 c8             	add    %rcx,%rax
   14bba:	c7 84 85 90 f9 ff ff 	movl   $0xb7763822,-0x670(%rbp,%rax,4)
   14bc1:	22 38 76 b7 
   14bc5:	83 85 88 f8 ff ff 01 	addl   $0x1,-0x778(%rbp)
   14bcc:	83 bd 88 f8 ff ff 02 	cmpl   $0x2,-0x778(%rbp)
   14bd3:	7e c7                	jle    14b9c <func_59+0xba7>
   14bd5:	83 85 84 f8 ff ff 01 	addl   $0x1,-0x77c(%rbp)
   14bdc:	83 bd 84 f8 ff ff 05 	cmpl   $0x5,-0x77c(%rbp)
   14be3:	7e ab                	jle    14b90 <func_59+0xb9b>
   14be5:	48 8b 85 a0 f8 ff ff 	mov    -0x760(%rbp),%rax
   14bec:	48 83 c0 01          	add    $0x1,%rax
   14bf0:	48 89 85 a0 f8 ff ff 	mov    %rax,-0x760(%rbp)
   14bf7:	48 8b 85 f8 f8 ff ff 	mov    -0x708(%rbp),%rax
   14bfe:	48 8b 75 f8          	mov    -0x8(%rbp),%rsi
   14c02:	64 48 33 34 25 28 00 	xor    %fs:0x28,%rsi
   14c09:	00 00 
   14c0b:	74 05                	je     14c12 <func_59+0xc1d>
   14c0d:	e8 5e 14 ff ff       	callq  6070 <__stack_chk_fail@plt>
   14c12:	c9                   	leaveq 
   14c13:	c3                   	retq   

0000000000014c14 <main>:
   14c14:	f3 0f 1e fa          	endbr64 
   14c18:	55                   	push   %rbp
   14c19:	48 89 e5             	mov    %rsp,%rbp
   14c1c:	48 83 ec 20          	sub    $0x20,%rsp
   14c20:	89 7d ec             	mov    %edi,-0x14(%rbp)
   14c23:	48 89 75 e0          	mov    %rsi,-0x20(%rbp)
   14c27:	c7 45 fc 00 00 00 00 	movl   $0x0,-0x4(%rbp)
   14c2e:	83 7d ec 02          	cmpl   $0x2,-0x14(%rbp)
   14c32:	75 25                	jne    14c59 <main+0x45>
   14c34:	48 8b 45 e0          	mov    -0x20(%rbp),%rax
   14c38:	48 83 c0 08          	add    $0x8,%rax
   14c3c:	48 8b 00             	mov    (%rax),%rax
   14c3f:	48 8d 35 da 4b 00 00 	lea    0x4bda(%rip),%rsi        # 19820 <g_1879+0x17a0>
   14c46:	48 89 c7             	mov    %rax,%rdi
   14c49:	e8 42 14 ff ff       	callq  6090 <strcmp@plt>
   14c4e:	85 c0                	test   %eax,%eax
   14c50:	75 07                	jne    14c59 <main+0x45>
   14c52:	c7 45 fc 01 00 00 00 	movl   $0x1,-0x4(%rbp)
   14c59:	e8 2b 15 ff ff       	callq  6189 <platform_main_begin>
   14c5e:	e8 35 29 ff ff       	callq  7598 <crc32_gentab>
   14c63:	e8 4d 2b ff ff       	callq  77b5 <func_1>
   14c68:	c7 45 f0 00 00 00 00 	movl   $0x0,-0x10(%rbp)
   14c6f:	eb 4b                	jmp    14cbc <main+0xa8>
   14c71:	8b 45 f0             	mov    -0x10(%rbp),%eax
   14c74:	48 98                	cltq   
   14c76:	48 8d 14 85 00 00 00 	lea    0x0(,%rax,4),%rdx
   14c7d:	00 
   14c7e:	48 8d 05 bb 83 00 00 	lea    0x83bb(%rip),%rax        # 1d040 <g_5>
   14c85:	8b 04 02             	mov    (%rdx,%rax,1),%eax
   14c88:	48 98                	cltq   
   14c8a:	8b 55 fc             	mov    -0x4(%rbp),%edx
   14c8d:	48 8d 35 8e 4b 00 00 	lea    0x4b8e(%rip),%rsi        # 19822 <g_1879+0x17a2>
   14c94:	48 89 c7             	mov    %rax,%rdi
   14c97:	e8 57 2a ff ff       	callq  76f3 <transparent_crc>
   14c9c:	83 7d fc 00          	cmpl   $0x0,-0x4(%rbp)
   14ca0:	74 16                	je     14cb8 <main+0xa4>
   14ca2:	8b 45 f0             	mov    -0x10(%rbp),%eax
   14ca5:	89 c6                	mov    %eax,%esi
   14ca7:	48 8d 3d 7b 4b 00 00 	lea    0x4b7b(%rip),%rdi        # 19829 <g_1879+0x17a9>
   14cae:	b8 00 00 00 00       	mov    $0x0,%eax
   14cb3:	e8 c8 13 ff ff       	callq  6080 <printf@plt>
   14cb8:	83 45 f0 01          	addl   $0x1,-0x10(%rbp)
   14cbc:	83 7d f0 07          	cmpl   $0x7,-0x10(%rbp)
   14cc0:	7e af                	jle    14c71 <main+0x5d>
   14cc2:	0f b6 05 97 83 00 00 	movzbl 0x8397(%rip),%eax        # 1d060 <g_41>
   14cc9:	0f b6 c0             	movzbl %al,%eax
   14ccc:	8b 55 fc             	mov    -0x4(%rbp),%edx
   14ccf:	48 8d 35 61 4b 00 00 	lea    0x4b61(%rip),%rsi        # 19837 <g_1879+0x17b7>
   14cd6:	48 89 c7             	mov    %rax,%rdi
   14cd9:	e8 15 2a ff ff       	callq  76f3 <transparent_crc>
   14cde:	8b 05 80 83 00 00    	mov    0x8380(%rip),%eax        # 1d064 <g_47>
   14ce4:	48 98                	cltq   
   14ce6:	8b 55 fc             	mov    -0x4(%rbp),%edx
   14ce9:	48 8d 35 4c 4b 00 00 	lea    0x4b4c(%rip),%rsi        # 1983c <g_1879+0x17bc>
   14cf0:	48 89 c7             	mov    %rax,%rdi
   14cf3:	e8 fb 29 ff ff       	callq  76f3 <transparent_crc>
   14cf8:	c7 45 f0 00 00 00 00 	movl   $0x0,-0x10(%rbp)
   14cff:	e9 b4 00 00 00       	jmpq   14db8 <main+0x1a4>
   14d04:	c7 45 f4 00 00 00 00 	movl   $0x0,-0xc(%rbp)
   14d0b:	e9 9a 00 00 00       	jmpq   14daa <main+0x196>
   14d10:	c7 45 f8 00 00 00 00 	movl   $0x0,-0x8(%rbp)
   14d17:	e9 80 00 00 00       	jmpq   14d9c <main+0x188>
   14d1c:	8b 45 f8             	mov    -0x8(%rbp),%eax
   14d1f:	48 63 f0             	movslq %eax,%rsi
   14d22:	8b 45 f0             	mov    -0x10(%rbp),%eax
   14d25:	48 63 d0             	movslq %eax,%rdx
   14d28:	8b 45 f4             	mov    -0xc(%rbp),%eax
   14d2b:	48 63 c8             	movslq %eax,%rcx
   14d2e:	48 89 d0             	mov    %rdx,%rax
   14d31:	48 c1 e0 03          	shl    $0x3,%rax
   14d35:	48 29 d0             	sub    %rdx,%rax
   14d38:	48 c1 e0 02          	shl    $0x2,%rax
   14d3c:	48 89 ca             	mov    %rcx,%rdx
   14d3f:	48 c1 e2 03          	shl    $0x3,%rdx
   14d43:	48 29 ca             	sub    %rcx,%rdx
   14d46:	48 01 d0             	add    %rdx,%rax
   14d49:	48 01 f0             	add    %rsi,%rax
   14d4c:	48 8d 14 c5 00 00 00 	lea    0x0(,%rax,8),%rdx
   14d53:	00 
   14d54:	48 8d 05 25 83 00 00 	lea    0x8325(%rip),%rax        # 1d080 <g_79>
   14d5b:	48 8b 04 02          	mov    (%rdx,%rax,1),%rax
   14d5f:	48 89 c1             	mov    %rax,%rcx
   14d62:	8b 45 fc             	mov    -0x4(%rbp),%eax
   14d65:	89 c2                	mov    %eax,%edx
   14d67:	48 8d 35 d3 4a 00 00 	lea    0x4ad3(%rip),%rsi        # 19841 <g_1879+0x17c1>
   14d6e:	48 89 cf             	mov    %rcx,%rdi
   14d71:	e8 7d 29 ff ff       	callq  76f3 <transparent_crc>
   14d76:	83 7d fc 00          	cmpl   $0x0,-0x4(%rbp)
   14d7a:	74 1c                	je     14d98 <main+0x184>
   14d7c:	8b 4d f8             	mov    -0x8(%rbp),%ecx
   14d7f:	8b 55 f4             	mov    -0xc(%rbp),%edx
   14d82:	8b 45 f0             	mov    -0x10(%rbp),%eax
   14d85:	89 c6                	mov    %eax,%esi
   14d87:	48 8d 3d c1 4a 00 00 	lea    0x4ac1(%rip),%rdi        # 1984f <g_1879+0x17cf>
   14d8e:	b8 00 00 00 00       	mov    $0x0,%eax
   14d93:	e8 e8 12 ff ff       	callq  6080 <printf@plt>
   14d98:	83 45 f8 01          	addl   $0x1,-0x8(%rbp)
   14d9c:	83 7d f8 06          	cmpl   $0x6,-0x8(%rbp)
   14da0:	0f 8e 76 ff ff ff    	jle    14d1c <main+0x108>
   14da6:	83 45 f4 01          	addl   $0x1,-0xc(%rbp)
   14daa:	83 7d f4 03          	cmpl   $0x3,-0xc(%rbp)
   14dae:	0f 8e 5c ff ff ff    	jle    14d10 <main+0xfc>
   14db4:	83 45 f0 01          	addl   $0x1,-0x10(%rbp)
   14db8:	83 7d f0 04          	cmpl   $0x4,-0x10(%rbp)
   14dbc:	0f 8e 42 ff ff ff    	jle    14d04 <main+0xf0>
   14dc2:	c7 45 f0 00 00 00 00 	movl   $0x0,-0x10(%rbp)
   14dc9:	eb 4f                	jmp    14e1a <main+0x206>
   14dcb:	8b 45 f0             	mov    -0x10(%rbp),%eax
   14dce:	48 98                	cltq   
   14dd0:	48 8d 14 c5 00 00 00 	lea    0x0(,%rax,8),%rdx
   14dd7:	00 
   14dd8:	48 8d 05 01 87 00 00 	lea    0x8701(%rip),%rax        # 1d4e0 <g_81>
   14ddf:	48 8b 04 02          	mov    (%rdx,%rax,1),%rax
   14de3:	48 89 c1             	mov    %rax,%rcx
   14de6:	8b 45 fc             	mov    -0x4(%rbp),%eax
   14de9:	89 c2                	mov    %eax,%edx
   14deb:	48 8d 35 73 4a 00 00 	lea    0x4a73(%rip),%rsi        # 19865 <g_1879+0x17e5>
   14df2:	48 89 cf             	mov    %rcx,%rdi
   14df5:	e8 f9 28 ff ff       	callq  76f3 <transparent_crc>
   14dfa:	83 7d fc 00          	cmpl   $0x0,-0x4(%rbp)
   14dfe:	74 16                	je     14e16 <main+0x202>
   14e00:	8b 45 f0             	mov    -0x10(%rbp),%eax
   14e03:	89 c6                	mov    %eax,%esi
   14e05:	48 8d 3d 1d 4a 00 00 	lea    0x4a1d(%rip),%rdi        # 19829 <g_1879+0x17a9>
   14e0c:	b8 00 00 00 00       	mov    $0x0,%eax
   14e11:	e8 6a 12 ff ff       	callq  6080 <printf@plt>
   14e16:	83 45 f0 01          	addl   $0x1,-0x10(%rbp)
   14e1a:	83 7d f0 04          	cmpl   $0x4,-0x10(%rbp)
   14e1e:	7e ab                	jle    14dcb <main+0x1b7>
   14e20:	8b 05 e2 86 00 00    	mov    0x86e2(%rip),%eax        # 1d508 <g_83>
   14e26:	48 98                	cltq   
   14e28:	8b 55 fc             	mov    -0x4(%rbp),%edx
   14e2b:	48 8d 35 3b 4a 00 00 	lea    0x4a3b(%rip),%rsi        # 1986d <g_1879+0x17ed>
   14e32:	48 89 c7             	mov    %rax,%rdi
   14e35:	e8 b9 28 ff ff       	callq  76f3 <transparent_crc>
   14e3a:	c7 45 f0 00 00 00 00 	movl   $0x0,-0x10(%rbp)
   14e41:	e9 8d 00 00 00       	jmpq   14ed3 <main+0x2bf>
   14e46:	c7 45 f4 00 00 00 00 	movl   $0x0,-0xc(%rbp)
   14e4d:	eb 7a                	jmp    14ec9 <main+0x2b5>
   14e4f:	c7 45 f8 00 00 00 00 	movl   $0x0,-0x8(%rbp)
   14e56:	eb 67                	jmp    14ebf <main+0x2ab>
   14e58:	8b 45 f8             	mov    -0x8(%rbp),%eax
   14e5b:	48 63 d0             	movslq %eax,%rdx
   14e5e:	8b 45 f4             	mov    -0xc(%rbp),%eax
   14e61:	48 98                	cltq   
   14e63:	8b 4d f0             	mov    -0x10(%rbp),%ecx
   14e66:	48 63 c9             	movslq %ecx,%rcx
   14e69:	48 c1 e1 03          	shl    $0x3,%rcx
   14e6d:	48 01 ca             	add    %rcx,%rdx
   14e70:	48 01 d0             	add    %rdx,%rax
   14e73:	48 8d 14 85 00 00 00 	lea    0x0(,%rax,4),%rdx
   14e7a:	00 
   14e7b:	48 8d 05 9e 86 00 00 	lea    0x869e(%rip),%rax        # 1d520 <g_84>
   14e82:	8b 04 02             	mov    (%rdx,%rax,1),%eax
   14e85:	48 98                	cltq   
   14e87:	8b 55 fc             	mov    -0x4(%rbp),%edx
   14e8a:	48 8d 35 e1 49 00 00 	lea    0x49e1(%rip),%rsi        # 19872 <g_1879+0x17f2>
   14e91:	48 89 c7             	mov    %rax,%rdi
   14e94:	e8 5a 28 ff ff       	callq  76f3 <transparent_crc>
   14e99:	83 7d fc 00          	cmpl   $0x0,-0x4(%rbp)
   14e9d:	74 1c                	je     14ebb <main+0x2a7>
   14e9f:	8b 4d f8             	mov    -0x8(%rbp),%ecx
   14ea2:	8b 55 f4             	mov    -0xc(%rbp),%edx
   14ea5:	8b 45 f0             	mov    -0x10(%rbp),%eax
   14ea8:	89 c6                	mov    %eax,%esi
   14eaa:	48 8d 3d 9e 49 00 00 	lea    0x499e(%rip),%rdi        # 1984f <g_1879+0x17cf>
   14eb1:	b8 00 00 00 00       	mov    $0x0,%eax
   14eb6:	e8 c5 11 ff ff       	callq  6080 <printf@plt>
   14ebb:	83 45 f8 01          	addl   $0x1,-0x8(%rbp)
   14ebf:	83 7d f8 00          	cmpl   $0x0,-0x8(%rbp)
   14ec3:	7e 93                	jle    14e58 <main+0x244>
   14ec5:	83 45 f4 01          	addl   $0x1,-0xc(%rbp)
   14ec9:	83 7d f4 07          	cmpl   $0x7,-0xc(%rbp)
   14ecd:	7e 80                	jle    14e4f <main+0x23b>
   14ecf:	83 45 f0 01          	addl   $0x1,-0x10(%rbp)
   14ed3:	83 7d f0 01          	cmpl   $0x1,-0x10(%rbp)
   14ed7:	0f 8e 69 ff ff ff    	jle    14e46 <main+0x232>
   14edd:	0f b6 05 e4 c6 00 00 	movzbl 0xc6e4(%rip),%eax        # 215c8 <g_85>
   14ee4:	48 0f be c0          	movsbq %al,%rax
   14ee8:	8b 55 fc             	mov    -0x4(%rbp),%edx
   14eeb:	48 8d 35 8e 49 00 00 	lea    0x498e(%rip),%rsi        # 19880 <g_1879+0x1800>
   14ef2:	48 89 c7             	mov    %rax,%rdi
   14ef5:	e8 f9 27 ff ff       	callq  76f3 <transparent_crc>
   14efa:	0f b7 05 5f 86 00 00 	movzwl 0x865f(%rip),%eax        # 1d560 <g_86>
   14f01:	0f b7 c0             	movzwl %ax,%eax
   14f04:	8b 55 fc             	mov    -0x4(%rbp),%edx
   14f07:	48 8d 35 77 49 00 00 	lea    0x4977(%rip),%rsi        # 19885 <g_1879+0x1805>
   14f0e:	48 89 c7             	mov    %rax,%rdi
   14f11:	e8 dd 27 ff ff       	callq  76f3 <transparent_crc>
   14f16:	0f b6 05 45 86 00 00 	movzbl 0x8645(%rip),%eax        # 1d562 <g_94>
   14f1d:	48 0f be c0          	movsbq %al,%rax
   14f21:	8b 55 fc             	mov    -0x4(%rbp),%edx
   14f24:	48 8d 35 5f 49 00 00 	lea    0x495f(%rip),%rsi        # 1988a <g_1879+0x180a>
   14f2b:	48 89 c7             	mov    %rax,%rdi
   14f2e:	e8 c0 27 ff ff       	callq  76f3 <transparent_crc>
   14f33:	8b 05 2b 86 00 00    	mov    0x862b(%rip),%eax        # 1d564 <g_114>
   14f39:	48 98                	cltq   
   14f3b:	8b 55 fc             	mov    -0x4(%rbp),%edx
   14f3e:	48 8d 35 4a 49 00 00 	lea    0x494a(%rip),%rsi        # 1988f <g_1879+0x180f>
   14f45:	48 89 c7             	mov    %rax,%rdi
   14f48:	e8 a6 27 ff ff       	callq  76f3 <transparent_crc>
   14f4d:	0f b7 05 14 86 00 00 	movzwl 0x8614(%rip),%eax        # 1d568 <g_151>
   14f54:	0f b7 c0             	movzwl %ax,%eax
   14f57:	8b 55 fc             	mov    -0x4(%rbp),%edx
   14f5a:	48 8d 35 34 49 00 00 	lea    0x4934(%rip),%rsi        # 19895 <g_1879+0x1815>
   14f61:	48 89 c7             	mov    %rax,%rdi
   14f64:	e8 8a 27 ff ff       	callq  76f3 <transparent_crc>
   14f69:	8b 05 01 86 00 00    	mov    0x8601(%rip),%eax        # 1d570 <g_153>
   14f6f:	89 c1                	mov    %eax,%ecx
   14f71:	8b 45 fc             	mov    -0x4(%rbp),%eax
   14f74:	89 c2                	mov    %eax,%edx
   14f76:	48 8d 35 21 49 00 00 	lea    0x4921(%rip),%rsi        # 1989e <g_1879+0x181e>
   14f7d:	48 89 cf             	mov    %rcx,%rdi
   14f80:	e8 6e 27 ff ff       	callq  76f3 <transparent_crc>
   14f85:	c7 45 f0 00 00 00 00 	movl   $0x0,-0x10(%rbp)
   14f8c:	eb 46                	jmp    14fd4 <main+0x3c0>
   14f8e:	8b 45 f0             	mov    -0x10(%rbp),%eax
   14f91:	48 98                	cltq   
   14f93:	48 8d 15 da 85 00 00 	lea    0x85da(%rip),%rdx        # 1d574 <g_157>
   14f9a:	0f b6 04 10          	movzbl (%rax,%rdx,1),%eax
   14f9e:	48 0f be c0          	movsbq %al,%rax
   14fa2:	8b 55 fc             	mov    -0x4(%rbp),%edx
   14fa5:	48 8d 35 f8 48 00 00 	lea    0x48f8(%rip),%rsi        # 198a4 <g_1879+0x1824>
   14fac:	48 89 c7             	mov    %rax,%rdi
   14faf:	e8 3f 27 ff ff       	callq  76f3 <transparent_crc>
   14fb4:	83 7d fc 00          	cmpl   $0x0,-0x4(%rbp)
   14fb8:	74 16                	je     14fd0 <main+0x3bc>
   14fba:	8b 45 f0             	mov    -0x10(%rbp),%eax
   14fbd:	89 c6                	mov    %eax,%esi
   14fbf:	48 8d 3d 63 48 00 00 	lea    0x4863(%rip),%rdi        # 19829 <g_1879+0x17a9>
   14fc6:	b8 00 00 00 00       	mov    $0x0,%eax
   14fcb:	e8 b0 10 ff ff       	callq  6080 <printf@plt>
   14fd0:	83 45 f0 01          	addl   $0x1,-0x10(%rbp)
   14fd4:	83 7d f0 01          	cmpl   $0x1,-0x10(%rbp)
   14fd8:	7e b4                	jle    14f8e <main+0x37a>
   14fda:	0f b7 05 95 85 00 00 	movzwl 0x8595(%rip),%eax        # 1d576 <g_196>
   14fe1:	48 0f bf c0          	movswq %ax,%rax
   14fe5:	8b 55 fc             	mov    -0x4(%rbp),%edx
   14fe8:	48 8d 35 be 48 00 00 	lea    0x48be(%rip),%rsi        # 198ad <g_1879+0x182d>
   14fef:	48 89 c7             	mov    %rax,%rdi
   14ff2:	e8 fc 26 ff ff       	callq  76f3 <transparent_crc>
   14ff7:	0f b7 05 7a 85 00 00 	movzwl 0x857a(%rip),%eax        # 1d578 <g_201>
   14ffe:	48 0f bf c0          	movswq %ax,%rax
   15002:	8b 55 fc             	mov    -0x4(%rbp),%edx
   15005:	48 8d 35 a7 48 00 00 	lea    0x48a7(%rip),%rsi        # 198b3 <g_1879+0x1833>
   1500c:	48 89 c7             	mov    %rax,%rdi
   1500f:	e8 df 26 ff ff       	callq  76f3 <transparent_crc>
   15014:	c7 45 f0 00 00 00 00 	movl   $0x0,-0x10(%rbp)
   1501b:	e9 b8 00 00 00       	jmpq   150d8 <main+0x4c4>
   15020:	c7 45 f4 00 00 00 00 	movl   $0x0,-0xc(%rbp)
   15027:	e9 9e 00 00 00       	jmpq   150ca <main+0x4b6>
   1502c:	c7 45 f8 00 00 00 00 	movl   $0x0,-0x8(%rbp)
   15033:	e9 84 00 00 00       	jmpq   150bc <main+0x4a8>
   15038:	8b 45 f8             	mov    -0x8(%rbp),%eax
   1503b:	48 63 f0             	movslq %eax,%rsi
   1503e:	8b 45 f0             	mov    -0x10(%rbp),%eax
   15041:	48 63 d0             	movslq %eax,%rdx
   15044:	8b 45 f4             	mov    -0xc(%rbp),%eax
   15047:	48 63 c8             	movslq %eax,%rcx
   1504a:	48 89 d0             	mov    %rdx,%rax
   1504d:	48 c1 e0 02          	shl    $0x2,%rax
   15051:	48 01 d0             	add    %rdx,%rax
   15054:	48 c1 e0 02          	shl    $0x2,%rax
   15058:	48 01 d0             	add    %rdx,%rax
   1505b:	48 01 c0             	add    %rax,%rax
   1505e:	48 89 ca             	mov    %rcx,%rdx
   15061:	48 01 d2             	add    %rdx,%rdx
   15064:	48 01 ca             	add    %rcx,%rdx
   15067:	48 01 d2             	add    %rdx,%rdx
   1506a:	48 01 d0             	add    %rdx,%rax
   1506d:	48 01 f0             	add    %rsi,%rax
   15070:	48 8d 14 85 00 00 00 	lea    0x0(,%rax,4),%rdx
   15077:	00 
   15078:	48 8d 05 01 85 00 00 	lea    0x8501(%rip),%rax        # 1d580 <g_212>
   1507f:	8b 04 02             	mov    (%rdx,%rax,1),%eax
   15082:	48 98                	cltq   
   15084:	8b 55 fc             	mov    -0x4(%rbp),%edx
   15087:	48 8d 35 2b 48 00 00 	lea    0x482b(%rip),%rsi        # 198b9 <g_1879+0x1839>
   1508e:	48 89 c7             	mov    %rax,%rdi
   15091:	e8 5d 26 ff ff       	callq  76f3 <transparent_crc>
   15096:	83 7d fc 00          	cmpl   $0x0,-0x4(%rbp)
   1509a:	74 1c                	je     150b8 <main+0x4a4>
   1509c:	8b 4d f8             	mov    -0x8(%rbp),%ecx
   1509f:	8b 55 f4             	mov    -0xc(%rbp),%edx
   150a2:	8b 45 f0             	mov    -0x10(%rbp),%eax
   150a5:	89 c6                	mov    %eax,%esi
   150a7:	48 8d 3d a1 47 00 00 	lea    0x47a1(%rip),%rdi        # 1984f <g_1879+0x17cf>
   150ae:	b8 00 00 00 00       	mov    $0x0,%eax
   150b3:	e8 c8 0f ff ff       	callq  6080 <printf@plt>
   150b8:	83 45 f8 01          	addl   $0x1,-0x8(%rbp)
   150bc:	83 7d f8 05          	cmpl   $0x5,-0x8(%rbp)
   150c0:	0f 8e 72 ff ff ff    	jle    15038 <main+0x424>
   150c6:	83 45 f4 01          	addl   $0x1,-0xc(%rbp)
   150ca:	83 7d f4 06          	cmpl   $0x6,-0xc(%rbp)
   150ce:	0f 8e 58 ff ff ff    	jle    1502c <main+0x418>
   150d4:	83 45 f0 01          	addl   $0x1,-0x10(%rbp)
   150d8:	83 7d f0 05          	cmpl   $0x5,-0x10(%rbp)
   150dc:	0f 8e 3e ff ff ff    	jle    15020 <main+0x40c>
   150e2:	c7 45 f0 00 00 00 00 	movl   $0x0,-0x10(%rbp)
   150e9:	eb 4d                	jmp    15138 <main+0x524>
   150eb:	8b 45 f0             	mov    -0x10(%rbp),%eax
   150ee:	48 98                	cltq   
   150f0:	48 8d 14 c5 00 00 00 	lea    0x0(,%rax,8),%rdx
   150f7:	00 
   150f8:	48 8d 05 81 88 00 00 	lea    0x8881(%rip),%rax        # 1d980 <g_213>
   150ff:	0f b7 04 02          	movzwl (%rdx,%rax,1),%eax
   15103:	0f b7 c0             	movzwl %ax,%eax
   15106:	8b 55 fc             	mov    -0x4(%rbp),%edx
   15109:	48 8d 35 b8 47 00 00 	lea    0x47b8(%rip),%rsi        # 198c8 <g_1879+0x1848>
   15110:	48 89 c7             	mov    %rax,%rdi
   15113:	e8 db 25 ff ff       	callq  76f3 <transparent_crc>
   15118:	83 7d fc 00          	cmpl   $0x0,-0x4(%rbp)
   1511c:	74 16                	je     15134 <main+0x520>
   1511e:	8b 45 f0             	mov    -0x10(%rbp),%eax
   15121:	89 c6                	mov    %eax,%esi
   15123:	48 8d 3d ff 46 00 00 	lea    0x46ff(%rip),%rdi        # 19829 <g_1879+0x17a9>
   1512a:	b8 00 00 00 00       	mov    $0x0,%eax
   1512f:	e8 4c 0f ff ff       	callq  6080 <printf@plt>
   15134:	83 45 f0 01          	addl   $0x1,-0x10(%rbp)
   15138:	83 7d f0 06          	cmpl   $0x6,-0x10(%rbp)
   1513c:	7e ad                	jle    150eb <main+0x4d7>
   1513e:	b8 ff ff ff ff       	mov    $0xffffffff,%eax
   15143:	48 0f bf c0          	movswq %ax,%rax
   15147:	8b 55 fc             	mov    -0x4(%rbp),%edx
   1514a:	48 8d 35 83 47 00 00 	lea    0x4783(%rip),%rsi        # 198d4 <g_1879+0x1854>
   15151:	48 89 c7             	mov    %rax,%rdi
   15154:	e8 9a 25 ff ff       	callq  76f3 <transparent_crc>
   15159:	8b 05 59 88 00 00    	mov    0x8859(%rip),%eax        # 1d9b8 <g_262>
   1515f:	48 98                	cltq   
   15161:	8b 55 fc             	mov    -0x4(%rbp),%edx
   15164:	48 8d 35 6f 47 00 00 	lea    0x476f(%rip),%rsi        # 198da <g_1879+0x185a>
   1516b:	48 89 c7             	mov    %rax,%rdi
   1516e:	e8 80 25 ff ff       	callq  76f3 <transparent_crc>
   15173:	48 8b 05 46 88 00 00 	mov    0x8846(%rip),%rax        # 1d9c0 <g_296>
   1517a:	8b 55 fc             	mov    -0x4(%rbp),%edx
   1517d:	48 8d 35 5c 47 00 00 	lea    0x475c(%rip),%rsi        # 198e0 <g_1879+0x1860>
   15184:	48 89 c7             	mov    %rax,%rdi
   15187:	e8 67 25 ff ff       	callq  76f3 <transparent_crc>
   1518c:	8b 05 4e c4 00 00    	mov    0xc44e(%rip),%eax        # 215e0 <g_302>
   15192:	48 98                	cltq   
   15194:	8b 55 fc             	mov    -0x4(%rbp),%edx
   15197:	48 8d 35 48 47 00 00 	lea    0x4748(%rip),%rsi        # 198e6 <g_1879+0x1866>
   1519e:	48 89 c7             	mov    %rax,%rdi
   151a1:	e8 4d 25 ff ff       	callq  76f3 <transparent_crc>
   151a6:	8b 05 1c 88 00 00    	mov    0x881c(%rip),%eax        # 1d9c8 <g_303>
   151ac:	89 c1                	mov    %eax,%ecx
   151ae:	8b 45 fc             	mov    -0x4(%rbp),%eax
   151b1:	89 c2                	mov    %eax,%edx
   151b3:	48 8d 35 32 47 00 00 	lea    0x4732(%rip),%rsi        # 198ec <g_1879+0x186c>
   151ba:	48 89 cf             	mov    %rcx,%rdi
   151bd:	e8 31 25 ff ff       	callq  76f3 <transparent_crc>
   151c2:	0f b6 05 03 88 00 00 	movzbl 0x8803(%rip),%eax        # 1d9cc <g_307>
   151c9:	0f b6 c0             	movzbl %al,%eax
   151cc:	8b 55 fc             	mov    -0x4(%rbp),%edx
   151cf:	48 8d 35 1c 47 00 00 	lea    0x471c(%rip),%rsi        # 198f2 <g_1879+0x1872>
   151d6:	48 89 c7             	mov    %rax,%rdi
   151d9:	e8 15 25 ff ff       	callq  76f3 <transparent_crc>
   151de:	0f b6 05 e8 87 00 00 	movzbl 0x87e8(%rip),%eax        # 1d9cd <g_360>
   151e5:	0f b6 c0             	movzbl %al,%eax
   151e8:	8b 55 fc             	mov    -0x4(%rbp),%edx
   151eb:	48 8d 35 06 47 00 00 	lea    0x4706(%rip),%rsi        # 198f8 <g_1879+0x1878>
   151f2:	48 89 c7             	mov    %rax,%rdi
   151f5:	e8 f9 24 ff ff       	callq  76f3 <transparent_crc>
   151fa:	8b 05 d0 87 00 00    	mov    0x87d0(%rip),%eax        # 1d9d0 <g_383>
   15200:	48 98                	cltq   
   15202:	8b 55 fc             	mov    -0x4(%rbp),%edx
   15205:	48 8d 35 f2 46 00 00 	lea    0x46f2(%rip),%rsi        # 198fe <g_1879+0x187e>
   1520c:	48 89 c7             	mov    %rax,%rdi
   1520f:	e8 df 24 ff ff       	callq  76f3 <transparent_crc>
   15214:	0f b7 05 b9 87 00 00 	movzwl 0x87b9(%rip),%eax        # 1d9d4 <g_385>
   1521b:	0f b7 c0             	movzwl %ax,%eax
   1521e:	8b 55 fc             	mov    -0x4(%rbp),%edx
   15221:	48 8d 35 dc 46 00 00 	lea    0x46dc(%rip),%rsi        # 19904 <g_1879+0x1884>
   15228:	48 89 c7             	mov    %rax,%rdi
   1522b:	e8 c3 24 ff ff       	callq  76f3 <transparent_crc>
   15230:	0f b7 05 a1 87 00 00 	movzwl 0x87a1(%rip),%eax        # 1d9d8 <g_401>
   15237:	0f b7 c0             	movzwl %ax,%eax
   1523a:	8b 55 fc             	mov    -0x4(%rbp),%edx
   1523d:	48 8d 35 c6 46 00 00 	lea    0x46c6(%rip),%rsi        # 1990a <g_1879+0x188a>
   15244:	48 89 c7             	mov    %rax,%rdi
   15247:	e8 a7 24 ff ff       	callq  76f3 <transparent_crc>
   1524c:	8b 05 92 c3 00 00    	mov    0xc392(%rip),%eax        # 215e4 <g_402>
   15252:	48 98                	cltq   
   15254:	8b 55 fc             	mov    -0x4(%rbp),%edx
   15257:	48 8d 35 b5 46 00 00 	lea    0x46b5(%rip),%rsi        # 19913 <g_1879+0x1893>
   1525e:	48 89 c7             	mov    %rax,%rdi
   15261:	e8 8d 24 ff ff       	callq  76f3 <transparent_crc>
   15266:	0f b7 05 73 87 00 00 	movzwl 0x8773(%rip),%eax        # 1d9e0 <g_406>
   1526d:	c1 e0 04             	shl    $0x4,%eax
   15270:	66 c1 f8 04          	sar    $0x4,%ax
   15274:	48 0f bf c0          	movswq %ax,%rax
   15278:	8b 55 fc             	mov    -0x4(%rbp),%edx
   1527b:	48 8d 35 97 46 00 00 	lea    0x4697(%rip),%rsi        # 19919 <g_1879+0x1899>
   15282:	48 89 c7             	mov    %rax,%rdi
   15285:	e8 69 24 ff ff       	callq  76f3 <transparent_crc>
   1528a:	48 8b 05 4f 87 00 00 	mov    0x874f(%rip),%rax        # 1d9e0 <g_406>
   15291:	48 c1 e8 0c          	shr    $0xc,%rax
   15295:	25 ff ff 01 00       	and    $0x1ffff,%eax
   1529a:	89 c1                	mov    %eax,%ecx
   1529c:	8b 45 fc             	mov    -0x4(%rbp),%eax
   1529f:	89 c2                	mov    %eax,%edx
   152a1:	48 8d 35 7a 46 00 00 	lea    0x467a(%rip),%rsi        # 19922 <g_1879+0x18a2>
   152a8:	48 89 cf             	mov    %rcx,%rdi
   152ab:	e8 43 24 ff ff       	callq  76f3 <transparent_crc>
   152b0:	48 8b 05 29 87 00 00 	mov    0x8729(%rip),%rax        # 1d9e0 <g_406>
   152b7:	48 c1 e8 20          	shr    $0x20,%rax
   152bb:	66 25 ff 7f          	and    $0x7fff,%ax
   152bf:	0f b7 c0             	movzwl %ax,%eax
   152c2:	8b 55 fc             	mov    -0x4(%rbp),%edx
   152c5:	48 8d 35 5f 46 00 00 	lea    0x465f(%rip),%rsi        # 1992b <g_1879+0x18ab>
   152cc:	48 89 c7             	mov    %rax,%rdi
   152cf:	e8 1f 24 ff ff       	callq  76f3 <transparent_crc>
   152d4:	8b 05 0e 87 00 00    	mov    0x870e(%rip),%eax        # 1d9e8 <g_406+0x8>
   152da:	01 c0                	add    %eax,%eax
   152dc:	d1 f8                	sar    %eax
   152de:	48 98                	cltq   
   152e0:	8b 55 fc             	mov    -0x4(%rbp),%edx
   152e3:	48 8d 35 4a 46 00 00 	lea    0x464a(%rip),%rsi        # 19934 <g_1879+0x18b4>
   152ea:	48 89 c7             	mov    %rax,%rdi
   152ed:	e8 01 24 ff ff       	callq  76f3 <transparent_crc>
   152f2:	8b 05 f4 86 00 00    	mov    0x86f4(%rip),%eax        # 1d9ec <g_406+0xc>
   152f8:	c1 e0 0e             	shl    $0xe,%eax
   152fb:	c1 f8 0e             	sar    $0xe,%eax
   152fe:	48 98                	cltq   
   15300:	8b 55 fc             	mov    -0x4(%rbp),%edx
   15303:	48 8d 35 33 46 00 00 	lea    0x4633(%rip),%rsi        # 1993d <g_1879+0x18bd>
   1530a:	48 89 c7             	mov    %rax,%rdi
   1530d:	e8 e1 23 ff ff       	callq  76f3 <transparent_crc>
   15312:	0f b6 05 d5 86 00 00 	movzbl 0x86d5(%rip),%eax        # 1d9ee <g_406+0xe>
   15319:	c0 e8 02             	shr    $0x2,%al
   1531c:	83 e0 01             	and    $0x1,%eax
   1531f:	0f b6 c0             	movzbl %al,%eax
   15322:	8b 55 fc             	mov    -0x4(%rbp),%edx
   15325:	48 8d 35 1a 46 00 00 	lea    0x461a(%rip),%rsi        # 19946 <g_1879+0x18c6>
   1532c:	48 89 c7             	mov    %rax,%rdi
   1532f:	e8 bf 23 ff ff       	callq  76f3 <transparent_crc>
   15334:	8b 05 b6 86 00 00    	mov    0x86b6(%rip),%eax        # 1d9f0 <g_406+0x10>
   1533a:	c1 e0 05             	shl    $0x5,%eax
   1533d:	c1 f8 05             	sar    $0x5,%eax
   15340:	48 98                	cltq   
   15342:	8b 55 fc             	mov    -0x4(%rbp),%edx
   15345:	48 8d 35 03 46 00 00 	lea    0x4603(%rip),%rsi        # 1994f <g_1879+0x18cf>
   1534c:	48 89 c7             	mov    %rax,%rdi
   1534f:	e8 9f 23 ff ff       	callq  76f3 <transparent_crc>
   15354:	8b 05 9a 86 00 00    	mov    0x869a(%rip),%eax        # 1d9f4 <g_436>
   1535a:	89 c1                	mov    %eax,%ecx
   1535c:	8b 45 fc             	mov    -0x4(%rbp),%eax
   1535f:	89 c2                	mov    %eax,%edx
   15361:	48 8d 35 f0 45 00 00 	lea    0x45f0(%rip),%rsi        # 19958 <g_1879+0x18d8>
   15368:	48 89 cf             	mov    %rcx,%rdi
   1536b:	e8 83 23 ff ff       	callq  76f3 <transparent_crc>
   15370:	0f b7 05 81 86 00 00 	movzwl 0x8681(%rip),%eax        # 1d9f8 <g_477>
   15377:	0f b7 c0             	movzwl %ax,%eax
   1537a:	8b 55 fc             	mov    -0x4(%rbp),%edx
   1537d:	48 8d 35 da 45 00 00 	lea    0x45da(%rip),%rsi        # 1995e <g_1879+0x18de>
   15384:	48 89 c7             	mov    %rax,%rdi
   15387:	e8 67 23 ff ff       	callq  76f3 <transparent_crc>
   1538c:	0f b7 05 6d 86 00 00 	movzwl 0x866d(%rip),%eax        # 1da00 <g_492>
   15393:	0f b7 c0             	movzwl %ax,%eax
   15396:	8b 55 fc             	mov    -0x4(%rbp),%edx
   15399:	48 8d 35 c4 45 00 00 	lea    0x45c4(%rip),%rsi        # 19964 <g_1879+0x18e4>
   153a0:	48 89 c7             	mov    %rax,%rdi
   153a3:	e8 4b 23 ff ff       	callq  76f3 <transparent_crc>
   153a8:	0f b7 05 61 86 00 00 	movzwl 0x8661(%rip),%eax        # 1da10 <g_510>
   153af:	c1 e0 04             	shl    $0x4,%eax
   153b2:	66 c1 f8 04          	sar    $0x4,%ax
   153b6:	48 0f bf c0          	movswq %ax,%rax
   153ba:	8b 55 fc             	mov    -0x4(%rbp),%edx
   153bd:	48 8d 35 a9 45 00 00 	lea    0x45a9(%rip),%rsi        # 1996d <g_1879+0x18ed>
   153c4:	48 89 c7             	mov    %rax,%rdi
   153c7:	e8 27 23 ff ff       	callq  76f3 <transparent_crc>
   153cc:	48 8b 05 3d 86 00 00 	mov    0x863d(%rip),%rax        # 1da10 <g_510>
   153d3:	48 c1 e8 0c          	shr    $0xc,%rax
   153d7:	25 ff ff 01 00       	and    $0x1ffff,%eax
   153dc:	89 c1                	mov    %eax,%ecx
   153de:	8b 45 fc             	mov    -0x4(%rbp),%eax
   153e1:	89 c2                	mov    %eax,%edx
   153e3:	48 8d 35 8c 45 00 00 	lea    0x458c(%rip),%rsi        # 19976 <g_1879+0x18f6>
   153ea:	48 89 cf             	mov    %rcx,%rdi
   153ed:	e8 01 23 ff ff       	callq  76f3 <transparent_crc>
   153f2:	48 8b 05 17 86 00 00 	mov    0x8617(%rip),%rax        # 1da10 <g_510>
   153f9:	48 c1 e8 20          	shr    $0x20,%rax
   153fd:	66 25 ff 7f          	and    $0x7fff,%ax
   15401:	0f b7 c0             	movzwl %ax,%eax
   15404:	8b 55 fc             	mov    -0x4(%rbp),%edx
   15407:	48 8d 35 71 45 00 00 	lea    0x4571(%rip),%rsi        # 1997f <g_1879+0x18ff>
   1540e:	48 89 c7             	mov    %rax,%rdi
   15411:	e8 dd 22 ff ff       	callq  76f3 <transparent_crc>
   15416:	8b 05 fc 85 00 00    	mov    0x85fc(%rip),%eax        # 1da18 <g_510+0x8>
   1541c:	01 c0                	add    %eax,%eax
   1541e:	d1 f8                	sar    %eax
   15420:	48 98                	cltq   
   15422:	8b 55 fc             	mov    -0x4(%rbp),%edx
   15425:	48 8d 35 5c 45 00 00 	lea    0x455c(%rip),%rsi        # 19988 <g_1879+0x1908>
   1542c:	48 89 c7             	mov    %rax,%rdi
   1542f:	e8 bf 22 ff ff       	callq  76f3 <transparent_crc>
   15434:	8b 05 e2 85 00 00    	mov    0x85e2(%rip),%eax        # 1da1c <g_510+0xc>
   1543a:	c1 e0 0e             	shl    $0xe,%eax
   1543d:	c1 f8 0e             	sar    $0xe,%eax
   15440:	48 98                	cltq   
   15442:	8b 55 fc             	mov    -0x4(%rbp),%edx
   15445:	48 8d 35 45 45 00 00 	lea    0x4545(%rip),%rsi        # 19991 <g_1879+0x1911>
   1544c:	48 89 c7             	mov    %rax,%rdi
   1544f:	e8 9f 22 ff ff       	callq  76f3 <transparent_crc>
   15454:	0f b6 05 c3 85 00 00 	movzbl 0x85c3(%rip),%eax        # 1da1e <g_510+0xe>
   1545b:	c0 e8 02             	shr    $0x2,%al
   1545e:	83 e0 01             	and    $0x1,%eax
   15461:	0f b6 c0             	movzbl %al,%eax
   15464:	8b 55 fc             	mov    -0x4(%rbp),%edx
   15467:	48 8d 35 2c 45 00 00 	lea    0x452c(%rip),%rsi        # 1999a <g_1879+0x191a>
   1546e:	48 89 c7             	mov    %rax,%rdi
   15471:	e8 7d 22 ff ff       	callq  76f3 <transparent_crc>
   15476:	8b 05 a4 85 00 00    	mov    0x85a4(%rip),%eax        # 1da20 <g_510+0x10>
   1547c:	c1 e0 05             	shl    $0x5,%eax
   1547f:	c1 f8 05             	sar    $0x5,%eax
   15482:	48 98                	cltq   
   15484:	8b 55 fc             	mov    -0x4(%rbp),%edx
   15487:	48 8d 35 15 45 00 00 	lea    0x4515(%rip),%rsi        # 199a3 <g_1879+0x1923>
   1548e:	48 89 c7             	mov    %rax,%rdi
   15491:	e8 5d 22 ff ff       	callq  76f3 <transparent_crc>
   15496:	0f b7 05 87 85 00 00 	movzwl 0x8587(%rip),%eax        # 1da24 <g_521>
   1549d:	0f b7 c0             	movzwl %ax,%eax
   154a0:	8b 55 fc             	mov    -0x4(%rbp),%edx
   154a3:	48 8d 35 02 45 00 00 	lea    0x4502(%rip),%rsi        # 199ac <g_1879+0x192c>
   154aa:	48 89 c7             	mov    %rax,%rdi
   154ad:	e8 41 22 ff ff       	callq  76f3 <transparent_crc>
   154b2:	0f b7 05 77 85 00 00 	movzwl 0x8577(%rip),%eax        # 1da30 <g_527>
   154b9:	c1 e0 04             	shl    $0x4,%eax
   154bc:	66 c1 f8 04          	sar    $0x4,%ax
   154c0:	48 0f bf c0          	movswq %ax,%rax
   154c4:	8b 55 fc             	mov    -0x4(%rbp),%edx
   154c7:	48 8d 35 e4 44 00 00 	lea    0x44e4(%rip),%rsi        # 199b2 <g_1879+0x1932>
   154ce:	48 89 c7             	mov    %rax,%rdi
   154d1:	e8 1d 22 ff ff       	callq  76f3 <transparent_crc>
   154d6:	48 8b 05 53 85 00 00 	mov    0x8553(%rip),%rax        # 1da30 <g_527>
   154dd:	48 c1 e8 0c          	shr    $0xc,%rax
   154e1:	25 ff ff 01 00       	and    $0x1ffff,%eax
   154e6:	89 c1                	mov    %eax,%ecx
   154e8:	8b 45 fc             	mov    -0x4(%rbp),%eax
   154eb:	89 c2                	mov    %eax,%edx
   154ed:	48 8d 35 c7 44 00 00 	lea    0x44c7(%rip),%rsi        # 199bb <g_1879+0x193b>
   154f4:	48 89 cf             	mov    %rcx,%rdi
   154f7:	e8 f7 21 ff ff       	callq  76f3 <transparent_crc>
   154fc:	48 8b 05 2d 85 00 00 	mov    0x852d(%rip),%rax        # 1da30 <g_527>
   15503:	48 c1 e8 20          	shr    $0x20,%rax
   15507:	66 25 ff 7f          	and    $0x7fff,%ax
   1550b:	0f b7 c0             	movzwl %ax,%eax
   1550e:	8b 55 fc             	mov    -0x4(%rbp),%edx
   15511:	48 8d 35 ac 44 00 00 	lea    0x44ac(%rip),%rsi        # 199c4 <g_1879+0x1944>
   15518:	48 89 c7             	mov    %rax,%rdi
   1551b:	e8 d3 21 ff ff       	callq  76f3 <transparent_crc>
   15520:	8b 05 12 85 00 00    	mov    0x8512(%rip),%eax        # 1da38 <g_527+0x8>
   15526:	01 c0                	add    %eax,%eax
   15528:	d1 f8                	sar    %eax
   1552a:	48 98                	cltq   
   1552c:	8b 55 fc             	mov    -0x4(%rbp),%edx
   1552f:	48 8d 35 97 44 00 00 	lea    0x4497(%rip),%rsi        # 199cd <g_1879+0x194d>
   15536:	48 89 c7             	mov    %rax,%rdi
   15539:	e8 b5 21 ff ff       	callq  76f3 <transparent_crc>
   1553e:	8b 05 f8 84 00 00    	mov    0x84f8(%rip),%eax        # 1da3c <g_527+0xc>
   15544:	c1 e0 0e             	shl    $0xe,%eax
   15547:	c1 f8 0e             	sar    $0xe,%eax
   1554a:	48 98                	cltq   
   1554c:	8b 55 fc             	mov    -0x4(%rbp),%edx
   1554f:	48 8d 35 80 44 00 00 	lea    0x4480(%rip),%rsi        # 199d6 <g_1879+0x1956>
   15556:	48 89 c7             	mov    %rax,%rdi
   15559:	e8 95 21 ff ff       	callq  76f3 <transparent_crc>
   1555e:	0f b6 05 d9 84 00 00 	movzbl 0x84d9(%rip),%eax        # 1da3e <g_527+0xe>
   15565:	c0 e8 02             	shr    $0x2,%al
   15568:	83 e0 01             	and    $0x1,%eax
   1556b:	0f b6 c0             	movzbl %al,%eax
   1556e:	8b 55 fc             	mov    -0x4(%rbp),%edx
   15571:	48 8d 35 67 44 00 00 	lea    0x4467(%rip),%rsi        # 199df <g_1879+0x195f>
   15578:	48 89 c7             	mov    %rax,%rdi
   1557b:	e8 73 21 ff ff       	callq  76f3 <transparent_crc>
   15580:	8b 05 ba 84 00 00    	mov    0x84ba(%rip),%eax        # 1da40 <g_527+0x10>
   15586:	c1 e0 05             	shl    $0x5,%eax
   15589:	c1 f8 05             	sar    $0x5,%eax
   1558c:	48 98                	cltq   
   1558e:	8b 55 fc             	mov    -0x4(%rbp),%edx
   15591:	48 8d 35 50 44 00 00 	lea    0x4450(%rip),%rsi        # 199e8 <g_1879+0x1968>
   15598:	48 89 c7             	mov    %rax,%rdi
   1559b:	e8 53 21 ff ff       	callq  76f3 <transparent_crc>
   155a0:	48 8b 05 a9 84 00 00 	mov    0x84a9(%rip),%rax        # 1da50 <g_663>
   155a7:	c1 e0 04             	shl    $0x4,%eax
   155aa:	66 c1 f8 04          	sar    $0x4,%ax
   155ae:	48 0f bf c0          	movswq %ax,%rax
   155b2:	8b 55 fc             	mov    -0x4(%rbp),%edx
   155b5:	48 8d 35 35 44 00 00 	lea    0x4435(%rip),%rsi        # 199f1 <g_1879+0x1971>
   155bc:	48 89 c7             	mov    %rax,%rdi
   155bf:	e8 2f 21 ff ff       	callq  76f3 <transparent_crc>
   155c4:	48 8b 05 85 84 00 00 	mov    0x8485(%rip),%rax        # 1da50 <g_663>
   155cb:	48 c1 e8 0c          	shr    $0xc,%rax
   155cf:	25 ff ff 01 00       	and    $0x1ffff,%eax
   155d4:	89 c1                	mov    %eax,%ecx
   155d6:	8b 45 fc             	mov    -0x4(%rbp),%eax
   155d9:	89 c2                	mov    %eax,%edx
   155db:	48 8d 35 18 44 00 00 	lea    0x4418(%rip),%rsi        # 199fa <g_1879+0x197a>
   155e2:	48 89 cf             	mov    %rcx,%rdi
   155e5:	e8 09 21 ff ff       	callq  76f3 <transparent_crc>
   155ea:	48 8b 05 5f 84 00 00 	mov    0x845f(%rip),%rax        # 1da50 <g_663>
   155f1:	48 c1 e8 20          	shr    $0x20,%rax
   155f5:	66 25 ff 7f          	and    $0x7fff,%ax
   155f9:	0f b7 c0             	movzwl %ax,%eax
   155fc:	8b 55 fc             	mov    -0x4(%rbp),%edx
   155ff:	48 8d 35 fd 43 00 00 	lea    0x43fd(%rip),%rsi        # 19a03 <g_1879+0x1983>
   15606:	48 89 c7             	mov    %rax,%rdi
   15609:	e8 e5 20 ff ff       	callq  76f3 <transparent_crc>
   1560e:	48 8b 05 43 84 00 00 	mov    0x8443(%rip),%rax        # 1da58 <g_663+0x8>
   15615:	01 c0                	add    %eax,%eax
   15617:	d1 f8                	sar    %eax
   15619:	48 98                	cltq   
   1561b:	8b 55 fc             	mov    -0x4(%rbp),%edx
   1561e:	48 8d 35 e7 43 00 00 	lea    0x43e7(%rip),%rsi        # 19a0c <g_1879+0x198c>
   15625:	48 89 c7             	mov    %rax,%rdi
   15628:	e8 c6 20 ff ff       	callq  76f3 <transparent_crc>
   1562d:	48 8b 05 24 84 00 00 	mov    0x8424(%rip),%rax        # 1da58 <g_663+0x8>
   15634:	48 c1 e0 0e          	shl    $0xe,%rax
   15638:	48 c1 f8 2e          	sar    $0x2e,%rax
   1563c:	48 98                	cltq   
   1563e:	8b 55 fc             	mov    -0x4(%rbp),%edx
   15641:	48 8d 35 cd 43 00 00 	lea    0x43cd(%rip),%rsi        # 19a15 <g_1879+0x1995>
   15648:	48 89 c7             	mov    %rax,%rdi
   1564b:	e8 a3 20 ff ff       	callq  76f3 <transparent_crc>
   15650:	48 8b 05 01 84 00 00 	mov    0x8401(%rip),%rax        # 1da58 <g_663+0x8>
   15657:	48 c1 e8 32          	shr    $0x32,%rax
   1565b:	83 e0 01             	and    $0x1,%eax
   1565e:	0f b6 c0             	movzbl %al,%eax
   15661:	8b 55 fc             	mov    -0x4(%rbp),%edx
   15664:	48 8d 35 b3 43 00 00 	lea    0x43b3(%rip),%rsi        # 19a1e <g_1879+0x199e>
   1566b:	48 89 c7             	mov    %rax,%rdi
   1566e:	e8 80 20 ff ff       	callq  76f3 <transparent_crc>
   15673:	48 8b 05 e6 83 00 00 	mov    0x83e6(%rip),%rax        # 1da60 <g_663+0x10>
   1567a:	c1 e0 05             	shl    $0x5,%eax
   1567d:	c1 f8 05             	sar    $0x5,%eax
   15680:	48 98                	cltq   
   15682:	8b 55 fc             	mov    -0x4(%rbp),%edx
   15685:	48 8d 35 9b 43 00 00 	lea    0x439b(%rip),%rsi        # 19a27 <g_1879+0x19a7>
   1568c:	48 89 c7             	mov    %rax,%rdi
   1568f:	e8 5f 20 ff ff       	callq  76f3 <transparent_crc>
   15694:	48 8b 05 d5 83 00 00 	mov    0x83d5(%rip),%rax        # 1da70 <g_727>
   1569b:	c1 e0 04             	shl    $0x4,%eax
   1569e:	66 c1 f8 04          	sar    $0x4,%ax
   156a2:	48 0f bf c0          	movswq %ax,%rax
   156a6:	8b 55 fc             	mov    -0x4(%rbp),%edx
   156a9:	48 8d 35 80 43 00 00 	lea    0x4380(%rip),%rsi        # 19a30 <g_1879+0x19b0>
   156b0:	48 89 c7             	mov    %rax,%rdi
   156b3:	e8 3b 20 ff ff       	callq  76f3 <transparent_crc>
   156b8:	48 8b 05 b1 83 00 00 	mov    0x83b1(%rip),%rax        # 1da70 <g_727>
   156bf:	48 c1 e8 0c          	shr    $0xc,%rax
   156c3:	25 ff ff 01 00       	and    $0x1ffff,%eax
   156c8:	89 c1                	mov    %eax,%ecx
   156ca:	8b 45 fc             	mov    -0x4(%rbp),%eax
   156cd:	89 c2                	mov    %eax,%edx
   156cf:	48 8d 35 63 43 00 00 	lea    0x4363(%rip),%rsi        # 19a39 <g_1879+0x19b9>
   156d6:	48 89 cf             	mov    %rcx,%rdi
   156d9:	e8 15 20 ff ff       	callq  76f3 <transparent_crc>
   156de:	48 8b 05 8b 83 00 00 	mov    0x838b(%rip),%rax        # 1da70 <g_727>
   156e5:	48 c1 e8 20          	shr    $0x20,%rax
   156e9:	66 25 ff 7f          	and    $0x7fff,%ax
   156ed:	0f b7 c0             	movzwl %ax,%eax
   156f0:	8b 55 fc             	mov    -0x4(%rbp),%edx
   156f3:	48 8d 35 48 43 00 00 	lea    0x4348(%rip),%rsi        # 19a42 <g_1879+0x19c2>
   156fa:	48 89 c7             	mov    %rax,%rdi
   156fd:	e8 f1 1f ff ff       	callq  76f3 <transparent_crc>
   15702:	48 8b 05 6f 83 00 00 	mov    0x836f(%rip),%rax        # 1da78 <g_727+0x8>
   15709:	01 c0                	add    %eax,%eax
   1570b:	d1 f8                	sar    %eax
   1570d:	48 98                	cltq   
   1570f:	8b 55 fc             	mov    -0x4(%rbp),%edx
   15712:	48 8d 35 32 43 00 00 	lea    0x4332(%rip),%rsi        # 19a4b <g_1879+0x19cb>
   15719:	48 89 c7             	mov    %rax,%rdi
   1571c:	e8 d2 1f ff ff       	callq  76f3 <transparent_crc>
   15721:	48 8b 05 50 83 00 00 	mov    0x8350(%rip),%rax        # 1da78 <g_727+0x8>
   15728:	48 c1 e0 0e          	shl    $0xe,%rax
   1572c:	48 c1 f8 2e          	sar    $0x2e,%rax
   15730:	48 98                	cltq   
   15732:	8b 55 fc             	mov    -0x4(%rbp),%edx
   15735:	48 8d 35 18 43 00 00 	lea    0x4318(%rip),%rsi        # 19a54 <g_1879+0x19d4>
   1573c:	48 89 c7             	mov    %rax,%rdi
   1573f:	e8 af 1f ff ff       	callq  76f3 <transparent_crc>
   15744:	48 8b 05 2d 83 00 00 	mov    0x832d(%rip),%rax        # 1da78 <g_727+0x8>
   1574b:	48 c1 e8 32          	shr    $0x32,%rax
   1574f:	83 e0 01             	and    $0x1,%eax
   15752:	0f b6 c0             	movzbl %al,%eax
   15755:	8b 55 fc             	mov    -0x4(%rbp),%edx
   15758:	48 8d 35 fe 42 00 00 	lea    0x42fe(%rip),%rsi        # 19a5d <g_1879+0x19dd>
   1575f:	48 89 c7             	mov    %rax,%rdi
   15762:	e8 8c 1f ff ff       	callq  76f3 <transparent_crc>
   15767:	48 8b 05 12 83 00 00 	mov    0x8312(%rip),%rax        # 1da80 <g_727+0x10>
   1576e:	c1 e0 05             	shl    $0x5,%eax
   15771:	c1 f8 05             	sar    $0x5,%eax
   15774:	48 98                	cltq   
   15776:	8b 55 fc             	mov    -0x4(%rbp),%edx
   15779:	48 8d 35 e6 42 00 00 	lea    0x42e6(%rip),%rsi        # 19a66 <g_1879+0x19e6>
   15780:	48 89 c7             	mov    %rax,%rdi
   15783:	e8 6b 1f ff ff       	callq  76f3 <transparent_crc>
   15788:	48 8b 05 f9 82 00 00 	mov    0x82f9(%rip),%rax        # 1da88 <g_735>
   1578f:	48 89 c1             	mov    %rax,%rcx
   15792:	8b 45 fc             	mov    -0x4(%rbp),%eax
   15795:	89 c2                	mov    %eax,%edx
   15797:	48 8d 35 d1 42 00 00 	lea    0x42d1(%rip),%rsi        # 19a6f <g_1879+0x19ef>
   1579e:	48 89 cf             	mov    %rcx,%rdi
   157a1:	e8 4d 1f ff ff       	callq  76f3 <transparent_crc>
   157a6:	0f b6 05 e3 82 00 00 	movzbl 0x82e3(%rip),%eax        # 1da90 <g_799>
   157ad:	48 0f be c0          	movsbq %al,%rax
   157b1:	8b 55 fc             	mov    -0x4(%rbp),%edx
   157b4:	48 8d 35 ba 42 00 00 	lea    0x42ba(%rip),%rsi        # 19a75 <g_1879+0x19f5>
   157bb:	48 89 c7             	mov    %rax,%rdi
   157be:	e8 30 1f ff ff       	callq  76f3 <transparent_crc>
   157c3:	c7 45 f0 00 00 00 00 	movl   $0x0,-0x10(%rbp)
   157ca:	eb 72                	jmp    1583e <main+0xc2a>
   157cc:	c7 45 f4 00 00 00 00 	movl   $0x0,-0xc(%rbp)
   157d3:	eb 5f                	jmp    15834 <main+0xc20>
   157d5:	8b 45 f4             	mov    -0xc(%rbp),%eax
   157d8:	48 98                	cltq   
   157da:	8b 55 f0             	mov    -0x10(%rbp),%edx
   157dd:	48 63 d2             	movslq %edx,%rdx
   157e0:	48 c1 e2 03          	shl    $0x3,%rdx
   157e4:	48 01 d0             	add    %rdx,%rax
   157e7:	48 8d 14 c5 00 00 00 	lea    0x0(,%rax,8),%rdx
   157ee:	00 
   157ef:	48 8d 05 aa 82 00 00 	lea    0x82aa(%rip),%rax        # 1daa0 <g_870>
   157f6:	48 8b 04 02          	mov    (%rdx,%rax,1),%rax
   157fa:	48 89 c1             	mov    %rax,%rcx
   157fd:	8b 45 fc             	mov    -0x4(%rbp),%eax
   15800:	89 c2                	mov    %eax,%edx
   15802:	48 8d 35 72 42 00 00 	lea    0x4272(%rip),%rsi        # 19a7b <g_1879+0x19fb>
   15809:	48 89 cf             	mov    %rcx,%rdi
   1580c:	e8 e2 1e ff ff       	callq  76f3 <transparent_crc>
   15811:	83 7d fc 00          	cmpl   $0x0,-0x4(%rbp)
   15815:	74 19                	je     15830 <main+0xc1c>
   15817:	8b 55 f4             	mov    -0xc(%rbp),%edx
   1581a:	8b 45 f0             	mov    -0x10(%rbp),%eax
   1581d:	89 c6                	mov    %eax,%esi
   1581f:	48 8d 3d 61 42 00 00 	lea    0x4261(%rip),%rdi        # 19a87 <g_1879+0x1a07>
   15826:	b8 00 00 00 00       	mov    $0x0,%eax
   1582b:	e8 50 08 ff ff       	callq  6080 <printf@plt>
   15830:	83 45 f4 01          	addl   $0x1,-0xc(%rbp)
   15834:	83 7d f4 07          	cmpl   $0x7,-0xc(%rbp)
   15838:	7e 9b                	jle    157d5 <main+0xbc1>
   1583a:	83 45 f0 01          	addl   $0x1,-0x10(%rbp)
   1583e:	83 7d f0 02          	cmpl   $0x2,-0x10(%rbp)
   15842:	7e 88                	jle    157cc <main+0xbb8>
   15844:	8b 05 16 83 00 00    	mov    0x8316(%rip),%eax        # 1db60 <g_945>
   1584a:	48 98                	cltq   
   1584c:	8b 55 fc             	mov    -0x4(%rbp),%edx
   1584f:	48 8d 35 43 42 00 00 	lea    0x4243(%rip),%rsi        # 19a99 <g_1879+0x1a19>
   15856:	48 89 c7             	mov    %rax,%rdi
   15859:	e8 95 1e ff ff       	callq  76f3 <transparent_crc>
   1585e:	8b 05 00 83 00 00    	mov    0x8300(%rip),%eax        # 1db64 <g_1022>
   15864:	48 98                	cltq   
   15866:	8b 55 fc             	mov    -0x4(%rbp),%edx
   15869:	48 8d 35 2f 42 00 00 	lea    0x422f(%rip),%rsi        # 19a9f <g_1879+0x1a1f>
   15870:	48 89 c7             	mov    %rax,%rdi
   15873:	e8 7b 1e ff ff       	callq  76f3 <transparent_crc>
   15878:	0f b7 05 f1 82 00 00 	movzwl 0x82f1(%rip),%eax        # 1db70 <g_1187>
   1587f:	c1 e0 04             	shl    $0x4,%eax
   15882:	66 c1 f8 04          	sar    $0x4,%ax
   15886:	48 0f bf c0          	movswq %ax,%rax
   1588a:	8b 55 fc             	mov    -0x4(%rbp),%edx
   1588d:	48 8d 35 12 42 00 00 	lea    0x4212(%rip),%rsi        # 19aa6 <g_1879+0x1a26>
   15894:	48 89 c7             	mov    %rax,%rdi
   15897:	e8 57 1e ff ff       	callq  76f3 <transparent_crc>
   1589c:	48 8b 05 cd 82 00 00 	mov    0x82cd(%rip),%rax        # 1db70 <g_1187>
   158a3:	48 c1 e8 0c          	shr    $0xc,%rax
   158a7:	25 ff ff 01 00       	and    $0x1ffff,%eax
   158ac:	89 c1                	mov    %eax,%ecx
   158ae:	8b 45 fc             	mov    -0x4(%rbp),%eax
   158b1:	89 c2                	mov    %eax,%edx
   158b3:	48 8d 35 f6 41 00 00 	lea    0x41f6(%rip),%rsi        # 19ab0 <g_1879+0x1a30>
   158ba:	48 89 cf             	mov    %rcx,%rdi
   158bd:	e8 31 1e ff ff       	callq  76f3 <transparent_crc>
   158c2:	48 8b 05 a7 82 00 00 	mov    0x82a7(%rip),%rax        # 1db70 <g_1187>
   158c9:	48 c1 e8 20          	shr    $0x20,%rax
   158cd:	66 25 ff 7f          	and    $0x7fff,%ax
   158d1:	0f b7 c0             	movzwl %ax,%eax
   158d4:	8b 55 fc             	mov    -0x4(%rbp),%edx
   158d7:	48 8d 35 dc 41 00 00 	lea    0x41dc(%rip),%rsi        # 19aba <g_1879+0x1a3a>
   158de:	48 89 c7             	mov    %rax,%rdi
   158e1:	e8 0d 1e ff ff       	callq  76f3 <transparent_crc>
   158e6:	8b 05 8c 82 00 00    	mov    0x828c(%rip),%eax        # 1db78 <g_1187+0x8>
   158ec:	01 c0                	add    %eax,%eax
   158ee:	d1 f8                	sar    %eax
   158f0:	48 98                	cltq   
   158f2:	8b 55 fc             	mov    -0x4(%rbp),%edx
   158f5:	48 8d 35 c8 41 00 00 	lea    0x41c8(%rip),%rsi        # 19ac4 <g_1879+0x1a44>
   158fc:	48 89 c7             	mov    %rax,%rdi
   158ff:	e8 ef 1d ff ff       	callq  76f3 <transparent_crc>
   15904:	8b 05 72 82 00 00    	mov    0x8272(%rip),%eax        # 1db7c <g_1187+0xc>
   1590a:	c1 e0 0e             	shl    $0xe,%eax
   1590d:	c1 f8 0e             	sar    $0xe,%eax
   15910:	48 98                	cltq   
   15912:	8b 55 fc             	mov    -0x4(%rbp),%edx
   15915:	48 8d 35 b2 41 00 00 	lea    0x41b2(%rip),%rsi        # 19ace <g_1879+0x1a4e>
   1591c:	48 89 c7             	mov    %rax,%rdi
   1591f:	e8 cf 1d ff ff       	callq  76f3 <transparent_crc>
   15924:	0f b6 05 53 82 00 00 	movzbl 0x8253(%rip),%eax        # 1db7e <g_1187+0xe>
   1592b:	c0 e8 02             	shr    $0x2,%al
   1592e:	83 e0 01             	and    $0x1,%eax
   15931:	0f b6 c0             	movzbl %al,%eax
   15934:	8b 55 fc             	mov    -0x4(%rbp),%edx
   15937:	48 8d 35 9a 41 00 00 	lea    0x419a(%rip),%rsi        # 19ad8 <g_1879+0x1a58>
   1593e:	48 89 c7             	mov    %rax,%rdi
   15941:	e8 ad 1d ff ff       	callq  76f3 <transparent_crc>
   15946:	8b 05 34 82 00 00    	mov    0x8234(%rip),%eax        # 1db80 <g_1187+0x10>
   1594c:	c1 e0 05             	shl    $0x5,%eax
   1594f:	c1 f8 05             	sar    $0x5,%eax
   15952:	48 98                	cltq   
   15954:	8b 55 fc             	mov    -0x4(%rbp),%edx
   15957:	48 8d 35 84 41 00 00 	lea    0x4184(%rip),%rsi        # 19ae2 <g_1879+0x1a62>
   1595e:	48 89 c7             	mov    %rax,%rdi
   15961:	e8 8d 1d ff ff       	callq  76f3 <transparent_crc>
   15966:	8b 05 d4 bc 00 00    	mov    0xbcd4(%rip),%eax        # 21640 <g_1277>
   1596c:	89 c1                	mov    %eax,%ecx
   1596e:	8b 45 fc             	mov    -0x4(%rbp),%eax
   15971:	89 c2                	mov    %eax,%edx
   15973:	48 8d 35 72 41 00 00 	lea    0x4172(%rip),%rsi        # 19aec <g_1879+0x1a6c>
   1597a:	48 89 cf             	mov    %rcx,%rdi
   1597d:	e8 71 1d ff ff       	callq  76f3 <transparent_crc>
   15982:	0f b7 05 07 82 00 00 	movzwl 0x8207(%rip),%eax        # 1db90 <g_1351>
   15989:	c1 e0 04             	shl    $0x4,%eax
   1598c:	66 c1 f8 04          	sar    $0x4,%ax
   15990:	48 0f bf c0          	movswq %ax,%rax
   15994:	8b 55 fc             	mov    -0x4(%rbp),%edx
   15997:	48 8d 35 55 41 00 00 	lea    0x4155(%rip),%rsi        # 19af3 <g_1879+0x1a73>
   1599e:	48 89 c7             	mov    %rax,%rdi
   159a1:	e8 4d 1d ff ff       	callq  76f3 <transparent_crc>
   159a6:	48 8b 05 e3 81 00 00 	mov    0x81e3(%rip),%rax        # 1db90 <g_1351>
   159ad:	48 c1 e8 0c          	shr    $0xc,%rax
   159b1:	25 ff ff 01 00       	and    $0x1ffff,%eax
   159b6:	89 c1                	mov    %eax,%ecx
   159b8:	8b 45 fc             	mov    -0x4(%rbp),%eax
   159bb:	89 c2                	mov    %eax,%edx
   159bd:	48 8d 35 39 41 00 00 	lea    0x4139(%rip),%rsi        # 19afd <g_1879+0x1a7d>
   159c4:	48 89 cf             	mov    %rcx,%rdi
   159c7:	e8 27 1d ff ff       	callq  76f3 <transparent_crc>
   159cc:	48 8b 05 bd 81 00 00 	mov    0x81bd(%rip),%rax        # 1db90 <g_1351>
   159d3:	48 c1 e8 20          	shr    $0x20,%rax
   159d7:	66 25 ff 7f          	and    $0x7fff,%ax
   159db:	0f b7 c0             	movzwl %ax,%eax
   159de:	8b 55 fc             	mov    -0x4(%rbp),%edx
   159e1:	48 8d 35 1f 41 00 00 	lea    0x411f(%rip),%rsi        # 19b07 <g_1879+0x1a87>
   159e8:	48 89 c7             	mov    %rax,%rdi
   159eb:	e8 03 1d ff ff       	callq  76f3 <transparent_crc>
   159f0:	8b 05 a2 81 00 00    	mov    0x81a2(%rip),%eax        # 1db98 <g_1351+0x8>
   159f6:	01 c0                	add    %eax,%eax
   159f8:	d1 f8                	sar    %eax
   159fa:	48 98                	cltq   
   159fc:	8b 55 fc             	mov    -0x4(%rbp),%edx
   159ff:	48 8d 35 0b 41 00 00 	lea    0x410b(%rip),%rsi        # 19b11 <g_1879+0x1a91>
   15a06:	48 89 c7             	mov    %rax,%rdi
   15a09:	e8 e5 1c ff ff       	callq  76f3 <transparent_crc>
   15a0e:	8b 05 88 81 00 00    	mov    0x8188(%rip),%eax        # 1db9c <g_1351+0xc>
   15a14:	c1 e0 0e             	shl    $0xe,%eax
   15a17:	c1 f8 0e             	sar    $0xe,%eax
   15a1a:	48 98                	cltq   
   15a1c:	8b 55 fc             	mov    -0x4(%rbp),%edx
   15a1f:	48 8d 35 f5 40 00 00 	lea    0x40f5(%rip),%rsi        # 19b1b <g_1879+0x1a9b>
   15a26:	48 89 c7             	mov    %rax,%rdi
   15a29:	e8 c5 1c ff ff       	callq  76f3 <transparent_crc>
   15a2e:	0f b6 05 69 81 00 00 	movzbl 0x8169(%rip),%eax        # 1db9e <g_1351+0xe>
   15a35:	c0 e8 02             	shr    $0x2,%al
   15a38:	83 e0 01             	and    $0x1,%eax
   15a3b:	0f b6 c0             	movzbl %al,%eax
   15a3e:	8b 55 fc             	mov    -0x4(%rbp),%edx
   15a41:	48 8d 35 dd 40 00 00 	lea    0x40dd(%rip),%rsi        # 19b25 <g_1879+0x1aa5>
   15a48:	48 89 c7             	mov    %rax,%rdi
   15a4b:	e8 a3 1c ff ff       	callq  76f3 <transparent_crc>
   15a50:	8b 05 4a 81 00 00    	mov    0x814a(%rip),%eax        # 1dba0 <g_1351+0x10>
   15a56:	c1 e0 05             	shl    $0x5,%eax
   15a59:	c1 f8 05             	sar    $0x5,%eax
   15a5c:	48 98                	cltq   
   15a5e:	8b 55 fc             	mov    -0x4(%rbp),%edx
   15a61:	48 8d 35 c7 40 00 00 	lea    0x40c7(%rip),%rsi        # 19b2f <g_1879+0x1aaf>
   15a68:	48 89 c7             	mov    %rax,%rdi
   15a6b:	e8 83 1c ff ff       	callq  76f3 <transparent_crc>
   15a70:	0f b7 05 39 81 00 00 	movzwl 0x8139(%rip),%eax        # 1dbb0 <g_1496>
   15a77:	c1 e0 04             	shl    $0x4,%eax
   15a7a:	66 c1 f8 04          	sar    $0x4,%ax
   15a7e:	48 0f bf c0          	movswq %ax,%rax
   15a82:	8b 55 fc             	mov    -0x4(%rbp),%edx
   15a85:	48 8d 35 ad 40 00 00 	lea    0x40ad(%rip),%rsi        # 19b39 <g_1879+0x1ab9>
   15a8c:	48 89 c7             	mov    %rax,%rdi
   15a8f:	e8 5f 1c ff ff       	callq  76f3 <transparent_crc>
   15a94:	48 8b 05 15 81 00 00 	mov    0x8115(%rip),%rax        # 1dbb0 <g_1496>
   15a9b:	48 c1 e8 0c          	shr    $0xc,%rax
   15a9f:	25 ff ff 01 00       	and    $0x1ffff,%eax
   15aa4:	89 c1                	mov    %eax,%ecx
   15aa6:	8b 45 fc             	mov    -0x4(%rbp),%eax
   15aa9:	89 c2                	mov    %eax,%edx
   15aab:	48 8d 35 91 40 00 00 	lea    0x4091(%rip),%rsi        # 19b43 <g_1879+0x1ac3>
   15ab2:	48 89 cf             	mov    %rcx,%rdi
   15ab5:	e8 39 1c ff ff       	callq  76f3 <transparent_crc>
   15aba:	48 8b 05 ef 80 00 00 	mov    0x80ef(%rip),%rax        # 1dbb0 <g_1496>
   15ac1:	48 c1 e8 20          	shr    $0x20,%rax
   15ac5:	66 25 ff 7f          	and    $0x7fff,%ax
   15ac9:	0f b7 c0             	movzwl %ax,%eax
   15acc:	8b 55 fc             	mov    -0x4(%rbp),%edx
   15acf:	48 8d 35 77 40 00 00 	lea    0x4077(%rip),%rsi        # 19b4d <g_1879+0x1acd>
   15ad6:	48 89 c7             	mov    %rax,%rdi
   15ad9:	e8 15 1c ff ff       	callq  76f3 <transparent_crc>
   15ade:	8b 05 d4 80 00 00    	mov    0x80d4(%rip),%eax        # 1dbb8 <g_1496+0x8>
   15ae4:	01 c0                	add    %eax,%eax
   15ae6:	d1 f8                	sar    %eax
   15ae8:	48 98                	cltq   
   15aea:	8b 55 fc             	mov    -0x4(%rbp),%edx
   15aed:	48 8d 35 63 40 00 00 	lea    0x4063(%rip),%rsi        # 19b57 <g_1879+0x1ad7>
   15af4:	48 89 c7             	mov    %rax,%rdi
   15af7:	e8 f7 1b ff ff       	callq  76f3 <transparent_crc>
   15afc:	8b 05 ba 80 00 00    	mov    0x80ba(%rip),%eax        # 1dbbc <g_1496+0xc>
   15b02:	c1 e0 0e             	shl    $0xe,%eax
   15b05:	c1 f8 0e             	sar    $0xe,%eax
   15b08:	48 98                	cltq   
   15b0a:	8b 55 fc             	mov    -0x4(%rbp),%edx
   15b0d:	48 8d 35 4d 40 00 00 	lea    0x404d(%rip),%rsi        # 19b61 <g_1879+0x1ae1>
   15b14:	48 89 c7             	mov    %rax,%rdi
   15b17:	e8 d7 1b ff ff       	callq  76f3 <transparent_crc>
   15b1c:	0f b6 05 9b 80 00 00 	movzbl 0x809b(%rip),%eax        # 1dbbe <g_1496+0xe>
   15b23:	c0 e8 02             	shr    $0x2,%al
   15b26:	83 e0 01             	and    $0x1,%eax
   15b29:	0f b6 c0             	movzbl %al,%eax
   15b2c:	8b 55 fc             	mov    -0x4(%rbp),%edx
   15b2f:	48 8d 35 35 40 00 00 	lea    0x4035(%rip),%rsi        # 19b6b <g_1879+0x1aeb>
   15b36:	48 89 c7             	mov    %rax,%rdi
   15b39:	e8 b5 1b ff ff       	callq  76f3 <transparent_crc>
   15b3e:	8b 05 7c 80 00 00    	mov    0x807c(%rip),%eax        # 1dbc0 <g_1496+0x10>
   15b44:	c1 e0 05             	shl    $0x5,%eax
   15b47:	c1 f8 05             	sar    $0x5,%eax
   15b4a:	48 98                	cltq   
   15b4c:	8b 55 fc             	mov    -0x4(%rbp),%edx
   15b4f:	48 8d 35 1f 40 00 00 	lea    0x401f(%rip),%rsi        # 19b75 <g_1879+0x1af5>
   15b56:	48 89 c7             	mov    %rax,%rdi
   15b59:	e8 95 1b ff ff       	callq  76f3 <transparent_crc>
   15b5e:	0f b7 05 63 80 00 00 	movzwl 0x8063(%rip),%eax        # 1dbc8 <g_1505>
   15b65:	0f b7 c0             	movzwl %ax,%eax
   15b68:	8b 55 fc             	mov    -0x4(%rbp),%edx
   15b6b:	48 8d 35 0d 40 00 00 	lea    0x400d(%rip),%rsi        # 19b7f <g_1879+0x1aff>
   15b72:	48 89 c7             	mov    %rax,%rdi
   15b75:	e8 79 1b ff ff       	callq  76f3 <transparent_crc>
   15b7a:	c7 45 f0 00 00 00 00 	movl   $0x0,-0x10(%rbp)
   15b81:	eb 45                	jmp    15bc8 <main+0xfb4>
   15b83:	8b 45 f0             	mov    -0x10(%rbp),%eax
   15b86:	48 98                	cltq   
   15b88:	48 8d 15 41 80 00 00 	lea    0x8041(%rip),%rdx        # 1dbd0 <g_1521>
   15b8f:	0f b6 04 10          	movzbl (%rax,%rdx,1),%eax
   15b93:	0f b6 c0             	movzbl %al,%eax
   15b96:	8b 55 fc             	mov    -0x4(%rbp),%edx
   15b99:	48 8d 35 e9 3f 00 00 	lea    0x3fe9(%rip),%rsi        # 19b89 <g_1879+0x1b09>
   15ba0:	48 89 c7             	mov    %rax,%rdi
   15ba3:	e8 4b 1b ff ff       	callq  76f3 <transparent_crc>
   15ba8:	83 7d fc 00          	cmpl   $0x0,-0x4(%rbp)
   15bac:	74 16                	je     15bc4 <main+0xfb0>
   15bae:	8b 45 f0             	mov    -0x10(%rbp),%eax
   15bb1:	89 c6                	mov    %eax,%esi
   15bb3:	48 8d 3d 6f 3c 00 00 	lea    0x3c6f(%rip),%rdi        # 19829 <g_1879+0x17a9>
   15bba:	b8 00 00 00 00       	mov    $0x0,%eax
   15bbf:	e8 bc 04 ff ff       	callq  6080 <printf@plt>
   15bc4:	83 45 f0 01          	addl   $0x1,-0x10(%rbp)
   15bc8:	83 7d f0 05          	cmpl   $0x5,-0x10(%rbp)
   15bcc:	7e b5                	jle    15b83 <main+0xf6f>
   15bce:	0f b7 05 0b 80 00 00 	movzwl 0x800b(%rip),%eax        # 1dbe0 <g_1524>
   15bd5:	c1 e0 04             	shl    $0x4,%eax
   15bd8:	66 c1 f8 04          	sar    $0x4,%ax
   15bdc:	48 0f bf c0          	movswq %ax,%rax
   15be0:	8b 55 fc             	mov    -0x4(%rbp),%edx
   15be3:	48 8d 35 a9 3f 00 00 	lea    0x3fa9(%rip),%rsi        # 19b93 <g_1879+0x1b13>
   15bea:	48 89 c7             	mov    %rax,%rdi
   15bed:	e8 01 1b ff ff       	callq  76f3 <transparent_crc>
   15bf2:	48 8b 05 e7 7f 00 00 	mov    0x7fe7(%rip),%rax        # 1dbe0 <g_1524>
   15bf9:	48 c1 e8 0c          	shr    $0xc,%rax
   15bfd:	25 ff ff 01 00       	and    $0x1ffff,%eax
   15c02:	89 c1                	mov    %eax,%ecx
   15c04:	8b 45 fc             	mov    -0x4(%rbp),%eax
   15c07:	89 c2                	mov    %eax,%edx
   15c09:	48 8d 35 8d 3f 00 00 	lea    0x3f8d(%rip),%rsi        # 19b9d <g_1879+0x1b1d>
   15c10:	48 89 cf             	mov    %rcx,%rdi
   15c13:	e8 db 1a ff ff       	callq  76f3 <transparent_crc>
   15c18:	48 8b 05 c1 7f 00 00 	mov    0x7fc1(%rip),%rax        # 1dbe0 <g_1524>
   15c1f:	48 c1 e8 20          	shr    $0x20,%rax
   15c23:	66 25 ff 7f          	and    $0x7fff,%ax
   15c27:	0f b7 c0             	movzwl %ax,%eax
   15c2a:	8b 55 fc             	mov    -0x4(%rbp),%edx
   15c2d:	48 8d 35 73 3f 00 00 	lea    0x3f73(%rip),%rsi        # 19ba7 <g_1879+0x1b27>
   15c34:	48 89 c7             	mov    %rax,%rdi
   15c37:	e8 b7 1a ff ff       	callq  76f3 <transparent_crc>
   15c3c:	8b 05 a6 7f 00 00    	mov    0x7fa6(%rip),%eax        # 1dbe8 <g_1524+0x8>
   15c42:	01 c0                	add    %eax,%eax
   15c44:	d1 f8                	sar    %eax
   15c46:	48 98                	cltq   
   15c48:	8b 55 fc             	mov    -0x4(%rbp),%edx
   15c4b:	48 8d 35 5f 3f 00 00 	lea    0x3f5f(%rip),%rsi        # 19bb1 <g_1879+0x1b31>
   15c52:	48 89 c7             	mov    %rax,%rdi
   15c55:	e8 99 1a ff ff       	callq  76f3 <transparent_crc>
   15c5a:	8b 05 8c 7f 00 00    	mov    0x7f8c(%rip),%eax        # 1dbec <g_1524+0xc>
   15c60:	c1 e0 0e             	shl    $0xe,%eax
   15c63:	c1 f8 0e             	sar    $0xe,%eax
   15c66:	48 98                	cltq   
   15c68:	8b 55 fc             	mov    -0x4(%rbp),%edx
   15c6b:	48 8d 35 49 3f 00 00 	lea    0x3f49(%rip),%rsi        # 19bbb <g_1879+0x1b3b>
   15c72:	48 89 c7             	mov    %rax,%rdi
   15c75:	e8 79 1a ff ff       	callq  76f3 <transparent_crc>
   15c7a:	0f b6 05 6d 7f 00 00 	movzbl 0x7f6d(%rip),%eax        # 1dbee <g_1524+0xe>
   15c81:	c0 e8 02             	shr    $0x2,%al
   15c84:	83 e0 01             	and    $0x1,%eax
   15c87:	0f b6 c0             	movzbl %al,%eax
   15c8a:	8b 55 fc             	mov    -0x4(%rbp),%edx
   15c8d:	48 8d 35 31 3f 00 00 	lea    0x3f31(%rip),%rsi        # 19bc5 <g_1879+0x1b45>
   15c94:	48 89 c7             	mov    %rax,%rdi
   15c97:	e8 57 1a ff ff       	callq  76f3 <transparent_crc>
   15c9c:	8b 05 4e 7f 00 00    	mov    0x7f4e(%rip),%eax        # 1dbf0 <g_1524+0x10>
   15ca2:	c1 e0 05             	shl    $0x5,%eax
   15ca5:	c1 f8 05             	sar    $0x5,%eax
   15ca8:	48 98                	cltq   
   15caa:	8b 55 fc             	mov    -0x4(%rbp),%edx
   15cad:	48 8d 35 1b 3f 00 00 	lea    0x3f1b(%rip),%rsi        # 19bcf <g_1879+0x1b4f>
   15cb4:	48 89 c7             	mov    %rax,%rdi
   15cb7:	e8 37 1a ff ff       	callq  76f3 <transparent_crc>
   15cbc:	0f b7 05 3d 7f 00 00 	movzwl 0x7f3d(%rip),%eax        # 1dc00 <g_1525>
   15cc3:	c1 e0 04             	shl    $0x4,%eax
   15cc6:	66 c1 f8 04          	sar    $0x4,%ax
   15cca:	48 0f bf c0          	movswq %ax,%rax
   15cce:	8b 55 fc             	mov    -0x4(%rbp),%edx
   15cd1:	48 8d 35 01 3f 00 00 	lea    0x3f01(%rip),%rsi        # 19bd9 <g_1879+0x1b59>
   15cd8:	48 89 c7             	mov    %rax,%rdi
   15cdb:	e8 13 1a ff ff       	callq  76f3 <transparent_crc>
   15ce0:	48 8b 05 19 7f 00 00 	mov    0x7f19(%rip),%rax        # 1dc00 <g_1525>
   15ce7:	48 c1 e8 0c          	shr    $0xc,%rax
   15ceb:	25 ff ff 01 00       	and    $0x1ffff,%eax
   15cf0:	89 c1                	mov    %eax,%ecx
   15cf2:	8b 45 fc             	mov    -0x4(%rbp),%eax
   15cf5:	89 c2                	mov    %eax,%edx
   15cf7:	48 8d 35 e5 3e 00 00 	lea    0x3ee5(%rip),%rsi        # 19be3 <g_1879+0x1b63>
   15cfe:	48 89 cf             	mov    %rcx,%rdi
   15d01:	e8 ed 19 ff ff       	callq  76f3 <transparent_crc>
   15d06:	48 8b 05 f3 7e 00 00 	mov    0x7ef3(%rip),%rax        # 1dc00 <g_1525>
   15d0d:	48 c1 e8 20          	shr    $0x20,%rax
   15d11:	66 25 ff 7f          	and    $0x7fff,%ax
   15d15:	0f b7 c0             	movzwl %ax,%eax
   15d18:	8b 55 fc             	mov    -0x4(%rbp),%edx
   15d1b:	48 8d 35 cb 3e 00 00 	lea    0x3ecb(%rip),%rsi        # 19bed <g_1879+0x1b6d>
   15d22:	48 89 c7             	mov    %rax,%rdi
   15d25:	e8 c9 19 ff ff       	callq  76f3 <transparent_crc>
   15d2a:	8b 05 d8 7e 00 00    	mov    0x7ed8(%rip),%eax        # 1dc08 <g_1525+0x8>
   15d30:	01 c0                	add    %eax,%eax
   15d32:	d1 f8                	sar    %eax
   15d34:	48 98                	cltq   
   15d36:	8b 55 fc             	mov    -0x4(%rbp),%edx
   15d39:	48 8d 35 b7 3e 00 00 	lea    0x3eb7(%rip),%rsi        # 19bf7 <g_1879+0x1b77>
   15d40:	48 89 c7             	mov    %rax,%rdi
   15d43:	e8 ab 19 ff ff       	callq  76f3 <transparent_crc>
   15d48:	8b 05 be 7e 00 00    	mov    0x7ebe(%rip),%eax        # 1dc0c <g_1525+0xc>
   15d4e:	c1 e0 0e             	shl    $0xe,%eax
   15d51:	c1 f8 0e             	sar    $0xe,%eax
   15d54:	48 98                	cltq   
   15d56:	8b 55 fc             	mov    -0x4(%rbp),%edx
   15d59:	48 8d 35 a1 3e 00 00 	lea    0x3ea1(%rip),%rsi        # 19c01 <g_1879+0x1b81>
   15d60:	48 89 c7             	mov    %rax,%rdi
   15d63:	e8 8b 19 ff ff       	callq  76f3 <transparent_crc>
   15d68:	0f b6 05 9f 7e 00 00 	movzbl 0x7e9f(%rip),%eax        # 1dc0e <g_1525+0xe>
   15d6f:	c0 e8 02             	shr    $0x2,%al
   15d72:	83 e0 01             	and    $0x1,%eax
   15d75:	0f b6 c0             	movzbl %al,%eax
   15d78:	8b 55 fc             	mov    -0x4(%rbp),%edx
   15d7b:	48 8d 35 89 3e 00 00 	lea    0x3e89(%rip),%rsi        # 19c0b <g_1879+0x1b8b>
   15d82:	48 89 c7             	mov    %rax,%rdi
   15d85:	e8 69 19 ff ff       	callq  76f3 <transparent_crc>
   15d8a:	8b 05 80 7e 00 00    	mov    0x7e80(%rip),%eax        # 1dc10 <g_1525+0x10>
   15d90:	c1 e0 05             	shl    $0x5,%eax
   15d93:	c1 f8 05             	sar    $0x5,%eax
   15d96:	48 98                	cltq   
   15d98:	8b 55 fc             	mov    -0x4(%rbp),%edx
   15d9b:	48 8d 35 73 3e 00 00 	lea    0x3e73(%rip),%rsi        # 19c15 <g_1879+0x1b95>
   15da2:	48 89 c7             	mov    %rax,%rdi
   15da5:	e8 49 19 ff ff       	callq  76f3 <transparent_crc>
   15daa:	8b 05 64 7e 00 00    	mov    0x7e64(%rip),%eax        # 1dc14 <g_1540>
   15db0:	89 c1                	mov    %eax,%ecx
   15db2:	8b 45 fc             	mov    -0x4(%rbp),%eax
   15db5:	89 c2                	mov    %eax,%edx
   15db7:	48 8d 35 61 3e 00 00 	lea    0x3e61(%rip),%rsi        # 19c1f <g_1879+0x1b9f>
   15dbe:	48 89 cf             	mov    %rcx,%rdi
   15dc1:	e8 2d 19 ff ff       	callq  76f3 <transparent_crc>
   15dc6:	0f b6 05 4b 7e 00 00 	movzbl 0x7e4b(%rip),%eax        # 1dc18 <g_1546>
   15dcd:	48 0f be c0          	movsbq %al,%rax
   15dd1:	8b 55 fc             	mov    -0x4(%rbp),%edx
   15dd4:	48 8d 35 4b 3e 00 00 	lea    0x3e4b(%rip),%rsi        # 19c26 <g_1879+0x1ba6>
   15ddb:	48 89 c7             	mov    %rax,%rdi
   15dde:	e8 10 19 ff ff       	callq  76f3 <transparent_crc>
   15de3:	c7 45 f0 00 00 00 00 	movl   $0x0,-0x10(%rbp)
   15dea:	eb 7c                	jmp    15e68 <main+0x1254>
   15dec:	c7 45 f4 00 00 00 00 	movl   $0x0,-0xc(%rbp)
   15df3:	eb 69                	jmp    15e5e <main+0x124a>
   15df5:	8b 45 f4             	mov    -0xc(%rbp),%eax
   15df8:	48 63 c8             	movslq %eax,%rcx
   15dfb:	8b 45 f0             	mov    -0x10(%rbp),%eax
   15dfe:	48 63 d0             	movslq %eax,%rdx
   15e01:	48 89 d0             	mov    %rdx,%rax
   15e04:	48 c1 e0 02          	shl    $0x2,%rax
   15e08:	48 01 d0             	add    %rdx,%rax
   15e0b:	48 01 c0             	add    %rax,%rax
   15e0e:	48 01 c8             	add    %rcx,%rax
   15e11:	48 8d 14 c5 00 00 00 	lea    0x0(,%rax,8),%rdx
   15e18:	00 
   15e19:	48 8d 05 00 7e 00 00 	lea    0x7e00(%rip),%rax        # 1dc20 <g_1555>
   15e20:	48 8b 04 02          	mov    (%rdx,%rax,1),%rax
   15e24:	48 89 c1             	mov    %rax,%rcx
   15e27:	8b 45 fc             	mov    -0x4(%rbp),%eax
   15e2a:	89 c2                	mov    %eax,%edx
   15e2c:	48 8d 35 fa 3d 00 00 	lea    0x3dfa(%rip),%rsi        # 19c2d <g_1879+0x1bad>
   15e33:	48 89 cf             	mov    %rcx,%rdi
   15e36:	e8 b8 18 ff ff       	callq  76f3 <transparent_crc>
   15e3b:	83 7d fc 00          	cmpl   $0x0,-0x4(%rbp)
   15e3f:	74 19                	je     15e5a <main+0x1246>
   15e41:	8b 55 f4             	mov    -0xc(%rbp),%edx
   15e44:	8b 45 f0             	mov    -0x10(%rbp),%eax
   15e47:	89 c6                	mov    %eax,%esi
   15e49:	48 8d 3d 37 3c 00 00 	lea    0x3c37(%rip),%rdi        # 19a87 <g_1879+0x1a07>
   15e50:	b8 00 00 00 00       	mov    $0x0,%eax
   15e55:	e8 26 02 ff ff       	callq  6080 <printf@plt>
   15e5a:	83 45 f4 01          	addl   $0x1,-0xc(%rbp)
   15e5e:	83 7d f4 09          	cmpl   $0x9,-0xc(%rbp)
   15e62:	7e 91                	jle    15df5 <main+0x11e1>
   15e64:	83 45 f0 01          	addl   $0x1,-0x10(%rbp)
   15e68:	83 7d f0 05          	cmpl   $0x5,-0x10(%rbp)
   15e6c:	0f 8e 7a ff ff ff    	jle    15dec <main+0x11d8>
   15e72:	48 8b 05 87 7f 00 00 	mov    0x7f87(%rip),%rax        # 1de00 <g_1559>
   15e79:	48 89 c1             	mov    %rax,%rcx
   15e7c:	8b 45 fc             	mov    -0x4(%rbp),%eax
   15e7f:	89 c2                	mov    %eax,%edx
   15e81:	48 8d 35 b2 3d 00 00 	lea    0x3db2(%rip),%rsi        # 19c3a <g_1879+0x1bba>
   15e88:	48 89 cf             	mov    %rcx,%rdi
   15e8b:	e8 63 18 ff ff       	callq  76f3 <transparent_crc>
   15e90:	48 8b 05 79 7f 00 00 	mov    0x7f79(%rip),%rax        # 1de10 <g_1574>
   15e97:	c1 e0 04             	shl    $0x4,%eax
   15e9a:	66 c1 f8 04          	sar    $0x4,%ax
   15e9e:	48 0f bf c0          	movswq %ax,%rax
   15ea2:	8b 55 fc             	mov    -0x4(%rbp),%edx
   15ea5:	48 8d 35 95 3d 00 00 	lea    0x3d95(%rip),%rsi        # 19c41 <g_1879+0x1bc1>
   15eac:	48 89 c7             	mov    %rax,%rdi
   15eaf:	e8 3f 18 ff ff       	callq  76f3 <transparent_crc>
   15eb4:	48 8b 05 55 7f 00 00 	mov    0x7f55(%rip),%rax        # 1de10 <g_1574>
   15ebb:	48 c1 e8 0c          	shr    $0xc,%rax
   15ebf:	25 ff ff 01 00       	and    $0x1ffff,%eax
   15ec4:	89 c1                	mov    %eax,%ecx
   15ec6:	8b 45 fc             	mov    -0x4(%rbp),%eax
   15ec9:	89 c2                	mov    %eax,%edx
   15ecb:	48 8d 35 79 3d 00 00 	lea    0x3d79(%rip),%rsi        # 19c4b <g_1879+0x1bcb>
   15ed2:	48 89 cf             	mov    %rcx,%rdi
   15ed5:	e8 19 18 ff ff       	callq  76f3 <transparent_crc>
   15eda:	48 8b 05 2f 7f 00 00 	mov    0x7f2f(%rip),%rax        # 1de10 <g_1574>
   15ee1:	48 c1 e8 20          	shr    $0x20,%rax
   15ee5:	66 25 ff 7f          	and    $0x7fff,%ax
   15ee9:	0f b7 c0             	movzwl %ax,%eax
   15eec:	8b 55 fc             	mov    -0x4(%rbp),%edx
   15eef:	48 8d 35 5f 3d 00 00 	lea    0x3d5f(%rip),%rsi        # 19c55 <g_1879+0x1bd5>
   15ef6:	48 89 c7             	mov    %rax,%rdi
   15ef9:	e8 f5 17 ff ff       	callq  76f3 <transparent_crc>
   15efe:	48 8b 05 13 7f 00 00 	mov    0x7f13(%rip),%rax        # 1de18 <g_1574+0x8>
   15f05:	01 c0                	add    %eax,%eax
   15f07:	d1 f8                	sar    %eax
   15f09:	48 98                	cltq   
   15f0b:	8b 55 fc             	mov    -0x4(%rbp),%edx
   15f0e:	48 8d 35 4a 3d 00 00 	lea    0x3d4a(%rip),%rsi        # 19c5f <g_1879+0x1bdf>
   15f15:	48 89 c7             	mov    %rax,%rdi
   15f18:	e8 d6 17 ff ff       	callq  76f3 <transparent_crc>
   15f1d:	48 8b 05 f4 7e 00 00 	mov    0x7ef4(%rip),%rax        # 1de18 <g_1574+0x8>
   15f24:	48 c1 e0 0e          	shl    $0xe,%rax
   15f28:	48 c1 f8 2e          	sar    $0x2e,%rax
   15f2c:	48 98                	cltq   
   15f2e:	8b 55 fc             	mov    -0x4(%rbp),%edx
   15f31:	48 8d 35 31 3d 00 00 	lea    0x3d31(%rip),%rsi        # 19c69 <g_1879+0x1be9>
   15f38:	48 89 c7             	mov    %rax,%rdi
   15f3b:	e8 b3 17 ff ff       	callq  76f3 <transparent_crc>
   15f40:	48 8b 05 d1 7e 00 00 	mov    0x7ed1(%rip),%rax        # 1de18 <g_1574+0x8>
   15f47:	48 c1 e8 32          	shr    $0x32,%rax
   15f4b:	83 e0 01             	and    $0x1,%eax
   15f4e:	0f b6 c0             	movzbl %al,%eax
   15f51:	8b 55 fc             	mov    -0x4(%rbp),%edx
   15f54:	48 8d 35 18 3d 00 00 	lea    0x3d18(%rip),%rsi        # 19c73 <g_1879+0x1bf3>
   15f5b:	48 89 c7             	mov    %rax,%rdi
   15f5e:	e8 90 17 ff ff       	callq  76f3 <transparent_crc>
   15f63:	48 8b 05 b6 7e 00 00 	mov    0x7eb6(%rip),%rax        # 1de20 <g_1574+0x10>
   15f6a:	c1 e0 05             	shl    $0x5,%eax
   15f6d:	c1 f8 05             	sar    $0x5,%eax
   15f70:	48 98                	cltq   
   15f72:	8b 55 fc             	mov    -0x4(%rbp),%edx
   15f75:	48 8d 35 01 3d 00 00 	lea    0x3d01(%rip),%rsi        # 19c7d <g_1879+0x1bfd>
   15f7c:	48 89 c7             	mov    %rax,%rdi
   15f7f:	e8 6f 17 ff ff       	callq  76f3 <transparent_crc>
   15f84:	c7 45 f0 00 00 00 00 	movl   $0x0,-0x10(%rbp)
   15f8b:	e9 af 00 00 00       	jmpq   1603f <main+0x142b>
   15f90:	c7 45 f4 00 00 00 00 	movl   $0x0,-0xc(%rbp)
   15f97:	e9 95 00 00 00       	jmpq   16031 <main+0x141d>
   15f9c:	c7 45 f8 00 00 00 00 	movl   $0x0,-0x8(%rbp)
   15fa3:	eb 7e                	jmp    16023 <main+0x140f>
   15fa5:	8b 45 f8             	mov    -0x8(%rbp),%eax
   15fa8:	48 63 f0             	movslq %eax,%rsi
   15fab:	8b 45 f0             	mov    -0x10(%rbp),%eax
   15fae:	48 63 d0             	movslq %eax,%rdx
   15fb1:	8b 45 f4             	mov    -0xc(%rbp),%eax
   15fb4:	48 63 c8             	movslq %eax,%rcx
   15fb7:	48 89 d0             	mov    %rdx,%rax
   15fba:	48 c1 e0 02          	shl    $0x2,%rax
   15fbe:	48 01 d0             	add    %rdx,%rax
   15fc1:	48 c1 e0 02          	shl    $0x2,%rax
   15fc5:	48 01 d0             	add    %rdx,%rax
   15fc8:	48 89 ca             	mov    %rcx,%rdx
   15fcb:	48 c1 e2 03          	shl    $0x3,%rdx
   15fcf:	48 29 ca             	sub    %rcx,%rdx
   15fd2:	48 01 d0             	add    %rdx,%rax
   15fd5:	48 01 f0             	add    %rsi,%rax
   15fd8:	48 8d 14 00          	lea    (%rax,%rax,1),%rdx
   15fdc:	48 8d 05 5d 7e 00 00 	lea    0x7e5d(%rip),%rax        # 1de40 <g_1600>
   15fe3:	0f b7 04 02          	movzwl (%rdx,%rax,1),%eax
   15fe7:	48 0f bf c0          	movswq %ax,%rax
   15feb:	8b 55 fc             	mov    -0x4(%rbp),%edx
   15fee:	48 8d 35 92 3c 00 00 	lea    0x3c92(%rip),%rsi        # 19c87 <g_1879+0x1c07>
   15ff5:	48 89 c7             	mov    %rax,%rdi
   15ff8:	e8 f6 16 ff ff       	callq  76f3 <transparent_crc>
   15ffd:	83 7d fc 00          	cmpl   $0x0,-0x4(%rbp)
   16001:	74 1c                	je     1601f <main+0x140b>
   16003:	8b 4d f8             	mov    -0x8(%rbp),%ecx
   16006:	8b 55 f4             	mov    -0xc(%rbp),%edx
   16009:	8b 45 f0             	mov    -0x10(%rbp),%eax
   1600c:	89 c6                	mov    %eax,%esi
   1600e:	48 8d 3d 3a 38 00 00 	lea    0x383a(%rip),%rdi        # 1984f <g_1879+0x17cf>
   16015:	b8 00 00 00 00       	mov    $0x0,%eax
   1601a:	e8 61 00 ff ff       	callq  6080 <printf@plt>
   1601f:	83 45 f8 01          	addl   $0x1,-0x8(%rbp)
   16023:	83 7d f8 06          	cmpl   $0x6,-0x8(%rbp)
   16027:	0f 8e 78 ff ff ff    	jle    15fa5 <main+0x1391>
   1602d:	83 45 f4 01          	addl   $0x1,-0xc(%rbp)
   16031:	83 7d f4 02          	cmpl   $0x2,-0xc(%rbp)
   16035:	0f 8e 61 ff ff ff    	jle    15f9c <main+0x1388>
   1603b:	83 45 f0 01          	addl   $0x1,-0x10(%rbp)
   1603f:	83 7d f0 02          	cmpl   $0x2,-0x10(%rbp)
   16043:	0f 8e 47 ff ff ff    	jle    15f90 <main+0x137c>
   16049:	8b 05 71 7e 00 00    	mov    0x7e71(%rip),%eax        # 1dec0 <g_1601>
   1604f:	89 c1                	mov    %eax,%ecx
   16051:	8b 45 fc             	mov    -0x4(%rbp),%eax
   16054:	89 c2                	mov    %eax,%edx
   16056:	48 8d 35 3a 3c 00 00 	lea    0x3c3a(%rip),%rsi        # 19c97 <g_1879+0x1c17>
   1605d:	48 89 cf             	mov    %rcx,%rdi
   16060:	e8 8e 16 ff ff       	callq  76f3 <transparent_crc>
   16065:	c7 45 f0 00 00 00 00 	movl   $0x0,-0x10(%rbp)
   1606c:	eb 4a                	jmp    160b8 <main+0x14a4>
   1606e:	8b 45 f0             	mov    -0x10(%rbp),%eax
   16071:	48 98                	cltq   
   16073:	48 8d 14 c5 00 00 00 	lea    0x0(,%rax,8),%rdx
   1607a:	00 
   1607b:	48 8d 05 fe b5 00 00 	lea    0xb5fe(%rip),%rax        # 21680 <g_1606>
   16082:	48 8b 04 02          	mov    (%rdx,%rax,1),%rax
   16086:	8b 55 fc             	mov    -0x4(%rbp),%edx
   16089:	48 8d 35 0e 3c 00 00 	lea    0x3c0e(%rip),%rsi        # 19c9e <g_1879+0x1c1e>
   16090:	48 89 c7             	mov    %rax,%rdi
   16093:	e8 5b 16 ff ff       	callq  76f3 <transparent_crc>
   16098:	83 7d fc 00          	cmpl   $0x0,-0x4(%rbp)
   1609c:	74 16                	je     160b4 <main+0x14a0>
   1609e:	8b 45 f0             	mov    -0x10(%rbp),%eax
   160a1:	89 c6                	mov    %eax,%esi
   160a3:	48 8d 3d 7f 37 00 00 	lea    0x377f(%rip),%rdi        # 19829 <g_1879+0x17a9>
   160aa:	b8 00 00 00 00       	mov    $0x0,%eax
   160af:	e8 cc ff fe ff       	callq  6080 <printf@plt>
   160b4:	83 45 f0 01          	addl   $0x1,-0x10(%rbp)
   160b8:	83 7d f0 03          	cmpl   $0x3,-0x10(%rbp)
   160bc:	7e b0                	jle    1606e <main+0x145a>
   160be:	b8 dc ff ff ff       	mov    $0xffffffdc,%eax
   160c3:	48 0f bf c0          	movswq %ax,%rax
   160c7:	8b 55 fc             	mov    -0x4(%rbp),%edx
   160ca:	48 8d 35 d7 3b 00 00 	lea    0x3bd7(%rip),%rsi        # 19ca8 <g_1879+0x1c28>
   160d1:	48 89 c7             	mov    %rax,%rdi
   160d4:	e8 1a 16 ff ff       	callq  76f3 <transparent_crc>
   160d9:	48 8b 05 80 1f 00 00 	mov    0x1f80(%rip),%rax        # 18060 <g_1685>
   160e0:	48 c1 e8 0c          	shr    $0xc,%rax
   160e4:	25 ff ff 01 00       	and    $0x1ffff,%eax
   160e9:	89 c1                	mov    %eax,%ecx
   160eb:	8b 45 fc             	mov    -0x4(%rbp),%eax
   160ee:	89 c2                	mov    %eax,%edx
   160f0:	48 8d 35 bb 3b 00 00 	lea    0x3bbb(%rip),%rsi        # 19cb2 <g_1879+0x1c32>
   160f7:	48 89 cf             	mov    %rcx,%rdi
   160fa:	e8 f4 15 ff ff       	callq  76f3 <transparent_crc>
   160ff:	48 8b 05 5a 1f 00 00 	mov    0x1f5a(%rip),%rax        # 18060 <g_1685>
   16106:	48 c1 e8 20          	shr    $0x20,%rax
   1610a:	66 25 ff 7f          	and    $0x7fff,%ax
   1610e:	0f b7 c0             	movzwl %ax,%eax
   16111:	8b 55 fc             	mov    -0x4(%rbp),%edx
   16114:	48 8d 35 a1 3b 00 00 	lea    0x3ba1(%rip),%rsi        # 19cbc <g_1879+0x1c3c>
   1611b:	48 89 c7             	mov    %rax,%rdi
   1611e:	e8 d0 15 ff ff       	callq  76f3 <transparent_crc>
   16123:	b8 95 7d 00 00       	mov    $0x7d95,%eax
   16128:	48 98                	cltq   
   1612a:	8b 55 fc             	mov    -0x4(%rbp),%edx
   1612d:	48 8d 35 92 3b 00 00 	lea    0x3b92(%rip),%rsi        # 19cc6 <g_1879+0x1c46>
   16134:	48 89 c7             	mov    %rax,%rdi
   16137:	e8 b7 15 ff ff       	callq  76f3 <transparent_crc>
   1613c:	b8 0c fe ff ff       	mov    $0xfffffe0c,%eax
   16141:	48 98                	cltq   
   16143:	8b 55 fc             	mov    -0x4(%rbp),%edx
   16146:	48 8d 35 83 3b 00 00 	lea    0x3b83(%rip),%rsi        # 19cd0 <g_1879+0x1c50>
   1614d:	48 89 c7             	mov    %rax,%rdi
   16150:	e8 9e 15 ff ff       	callq  76f3 <transparent_crc>
   16155:	b8 00 00 00 00       	mov    $0x0,%eax
   1615a:	0f b6 c0             	movzbl %al,%eax
   1615d:	8b 55 fc             	mov    -0x4(%rbp),%edx
   16160:	48 8d 35 73 3b 00 00 	lea    0x3b73(%rip),%rsi        # 19cda <g_1879+0x1c5a>
   16167:	48 89 c7             	mov    %rax,%rdi
   1616a:	e8 84 15 ff ff       	callq  76f3 <transparent_crc>
   1616f:	b8 a9 f5 ff ff       	mov    $0xfffff5a9,%eax
   16174:	48 98                	cltq   
   16176:	8b 55 fc             	mov    -0x4(%rbp),%edx
   16179:	48 8d 35 64 3b 00 00 	lea    0x3b64(%rip),%rsi        # 19ce4 <g_1879+0x1c64>
   16180:	48 89 c7             	mov    %rax,%rdi
   16183:	e8 6b 15 ff ff       	callq  76f3 <transparent_crc>
   16188:	48 8b 05 41 7d 00 00 	mov    0x7d41(%rip),%rax        # 1ded0 <g_1698>
   1618f:	c1 e0 04             	shl    $0x4,%eax
   16192:	66 c1 f8 04          	sar    $0x4,%ax
   16196:	48 0f bf c0          	movswq %ax,%rax
   1619a:	8b 55 fc             	mov    -0x4(%rbp),%edx
   1619d:	48 8d 35 4a 3b 00 00 	lea    0x3b4a(%rip),%rsi        # 19cee <g_1879+0x1c6e>
   161a4:	48 89 c7             	mov    %rax,%rdi
   161a7:	e8 47 15 ff ff       	callq  76f3 <transparent_crc>
   161ac:	48 8b 05 1d 7d 00 00 	mov    0x7d1d(%rip),%rax        # 1ded0 <g_1698>
   161b3:	48 c1 e8 0c          	shr    $0xc,%rax
   161b7:	25 ff ff 01 00       	and    $0x1ffff,%eax
   161bc:	89 c1                	mov    %eax,%ecx
   161be:	8b 45 fc             	mov    -0x4(%rbp),%eax
   161c1:	89 c2                	mov    %eax,%edx
   161c3:	48 8d 35 2e 3b 00 00 	lea    0x3b2e(%rip),%rsi        # 19cf8 <g_1879+0x1c78>
   161ca:	48 89 cf             	mov    %rcx,%rdi
   161cd:	e8 21 15 ff ff       	callq  76f3 <transparent_crc>
   161d2:	48 8b 05 f7 7c 00 00 	mov    0x7cf7(%rip),%rax        # 1ded0 <g_1698>
   161d9:	48 c1 e8 20          	shr    $0x20,%rax
   161dd:	66 25 ff 7f          	and    $0x7fff,%ax
   161e1:	0f b7 c0             	movzwl %ax,%eax
   161e4:	8b 55 fc             	mov    -0x4(%rbp),%edx
   161e7:	48 8d 35 14 3b 00 00 	lea    0x3b14(%rip),%rsi        # 19d02 <g_1879+0x1c82>
   161ee:	48 89 c7             	mov    %rax,%rdi
   161f1:	e8 fd 14 ff ff       	callq  76f3 <transparent_crc>
   161f6:	48 8b 05 db 7c 00 00 	mov    0x7cdb(%rip),%rax        # 1ded8 <g_1698+0x8>
   161fd:	01 c0                	add    %eax,%eax
   161ff:	d1 f8                	sar    %eax
   16201:	48 98                	cltq   
   16203:	8b 55 fc             	mov    -0x4(%rbp),%edx
   16206:	48 8d 35 ff 3a 00 00 	lea    0x3aff(%rip),%rsi        # 19d0c <g_1879+0x1c8c>
   1620d:	48 89 c7             	mov    %rax,%rdi
   16210:	e8 de 14 ff ff       	callq  76f3 <transparent_crc>
   16215:	48 8b 05 bc 7c 00 00 	mov    0x7cbc(%rip),%rax        # 1ded8 <g_1698+0x8>
   1621c:	48 c1 e0 0e          	shl    $0xe,%rax
   16220:	48 c1 f8 2e          	sar    $0x2e,%rax
   16224:	48 98                	cltq   
   16226:	8b 55 fc             	mov    -0x4(%rbp),%edx
   16229:	48 8d 35 e6 3a 00 00 	lea    0x3ae6(%rip),%rsi        # 19d16 <g_1879+0x1c96>
   16230:	48 89 c7             	mov    %rax,%rdi
   16233:	e8 bb 14 ff ff       	callq  76f3 <transparent_crc>
   16238:	48 8b 05 99 7c 00 00 	mov    0x7c99(%rip),%rax        # 1ded8 <g_1698+0x8>
   1623f:	48 c1 e8 32          	shr    $0x32,%rax
   16243:	83 e0 01             	and    $0x1,%eax
   16246:	0f b6 c0             	movzbl %al,%eax
   16249:	8b 55 fc             	mov    -0x4(%rbp),%edx
   1624c:	48 8d 35 cd 3a 00 00 	lea    0x3acd(%rip),%rsi        # 19d20 <g_1879+0x1ca0>
   16253:	48 89 c7             	mov    %rax,%rdi
   16256:	e8 98 14 ff ff       	callq  76f3 <transparent_crc>
   1625b:	48 8b 05 7e 7c 00 00 	mov    0x7c7e(%rip),%rax        # 1dee0 <g_1698+0x10>
   16262:	c1 e0 05             	shl    $0x5,%eax
   16265:	c1 f8 05             	sar    $0x5,%eax
   16268:	48 98                	cltq   
   1626a:	8b 55 fc             	mov    -0x4(%rbp),%edx
   1626d:	48 8d 35 b6 3a 00 00 	lea    0x3ab6(%rip),%rsi        # 19d2a <g_1879+0x1caa>
   16274:	48 89 c7             	mov    %rax,%rdi
   16277:	e8 77 14 ff ff       	callq  76f3 <transparent_crc>
   1627c:	0f b7 05 6d 7c 00 00 	movzwl 0x7c6d(%rip),%eax        # 1def0 <g_1708>
   16283:	c1 e0 04             	shl    $0x4,%eax
   16286:	66 c1 f8 04          	sar    $0x4,%ax
   1628a:	48 0f bf c0          	movswq %ax,%rax
   1628e:	8b 55 fc             	mov    -0x4(%rbp),%edx
   16291:	48 8d 35 9c 3a 00 00 	lea    0x3a9c(%rip),%rsi        # 19d34 <g_1879+0x1cb4>
   16298:	48 89 c7             	mov    %rax,%rdi
   1629b:	e8 53 14 ff ff       	callq  76f3 <transparent_crc>
   162a0:	48 8b 05 49 7c 00 00 	mov    0x7c49(%rip),%rax        # 1def0 <g_1708>
   162a7:	48 c1 e8 0c          	shr    $0xc,%rax
   162ab:	25 ff ff 01 00       	and    $0x1ffff,%eax
   162b0:	89 c1                	mov    %eax,%ecx
   162b2:	8b 45 fc             	mov    -0x4(%rbp),%eax
   162b5:	89 c2                	mov    %eax,%edx
   162b7:	48 8d 35 80 3a 00 00 	lea    0x3a80(%rip),%rsi        # 19d3e <g_1879+0x1cbe>
   162be:	48 89 cf             	mov    %rcx,%rdi
   162c1:	e8 2d 14 ff ff       	callq  76f3 <transparent_crc>
   162c6:	48 8b 05 23 7c 00 00 	mov    0x7c23(%rip),%rax        # 1def0 <g_1708>
   162cd:	48 c1 e8 20          	shr    $0x20,%rax
   162d1:	66 25 ff 7f          	and    $0x7fff,%ax
   162d5:	0f b7 c0             	movzwl %ax,%eax
   162d8:	8b 55 fc             	mov    -0x4(%rbp),%edx
   162db:	48 8d 35 66 3a 00 00 	lea    0x3a66(%rip),%rsi        # 19d48 <g_1879+0x1cc8>
   162e2:	48 89 c7             	mov    %rax,%rdi
   162e5:	e8 09 14 ff ff       	callq  76f3 <transparent_crc>
   162ea:	8b 05 08 7c 00 00    	mov    0x7c08(%rip),%eax        # 1def8 <g_1708+0x8>
   162f0:	01 c0                	add    %eax,%eax
   162f2:	d1 f8                	sar    %eax
   162f4:	48 98                	cltq   
   162f6:	8b 55 fc             	mov    -0x4(%rbp),%edx
   162f9:	48 8d 35 52 3a 00 00 	lea    0x3a52(%rip),%rsi        # 19d52 <g_1879+0x1cd2>
   16300:	48 89 c7             	mov    %rax,%rdi
   16303:	e8 eb 13 ff ff       	callq  76f3 <transparent_crc>
   16308:	8b 05 ee 7b 00 00    	mov    0x7bee(%rip),%eax        # 1defc <g_1708+0xc>
   1630e:	c1 e0 0e             	shl    $0xe,%eax
   16311:	c1 f8 0e             	sar    $0xe,%eax
   16314:	48 98                	cltq   
   16316:	8b 55 fc             	mov    -0x4(%rbp),%edx
   16319:	48 8d 35 3c 3a 00 00 	lea    0x3a3c(%rip),%rsi        # 19d5c <g_1879+0x1cdc>
   16320:	48 89 c7             	mov    %rax,%rdi
   16323:	e8 cb 13 ff ff       	callq  76f3 <transparent_crc>
   16328:	0f b6 05 cf 7b 00 00 	movzbl 0x7bcf(%rip),%eax        # 1defe <g_1708+0xe>
   1632f:	c0 e8 02             	shr    $0x2,%al
   16332:	83 e0 01             	and    $0x1,%eax
   16335:	0f b6 c0             	movzbl %al,%eax
   16338:	8b 55 fc             	mov    -0x4(%rbp),%edx
   1633b:	48 8d 35 24 3a 00 00 	lea    0x3a24(%rip),%rsi        # 19d66 <g_1879+0x1ce6>
   16342:	48 89 c7             	mov    %rax,%rdi
   16345:	e8 a9 13 ff ff       	callq  76f3 <transparent_crc>
   1634a:	8b 05 b0 7b 00 00    	mov    0x7bb0(%rip),%eax        # 1df00 <g_1708+0x10>
   16350:	c1 e0 05             	shl    $0x5,%eax
   16353:	c1 f8 05             	sar    $0x5,%eax
   16356:	48 98                	cltq   
   16358:	8b 55 fc             	mov    -0x4(%rbp),%edx
   1635b:	48 8d 35 0e 3a 00 00 	lea    0x3a0e(%rip),%rsi        # 19d70 <g_1879+0x1cf0>
   16362:	48 89 c7             	mov    %rax,%rdi
   16365:	e8 89 13 ff ff       	callq  76f3 <transparent_crc>
   1636a:	0f b7 05 9f 7b 00 00 	movzwl 0x7b9f(%rip),%eax        # 1df10 <g_1724>
   16371:	c1 e0 04             	shl    $0x4,%eax
   16374:	66 c1 f8 04          	sar    $0x4,%ax
   16378:	48 0f bf c0          	movswq %ax,%rax
   1637c:	8b 55 fc             	mov    -0x4(%rbp),%edx
   1637f:	48 8d 35 f4 39 00 00 	lea    0x39f4(%rip),%rsi        # 19d7a <g_1879+0x1cfa>
   16386:	48 89 c7             	mov    %rax,%rdi
   16389:	e8 65 13 ff ff       	callq  76f3 <transparent_crc>
   1638e:	48 8b 05 7b 7b 00 00 	mov    0x7b7b(%rip),%rax        # 1df10 <g_1724>
   16395:	48 c1 e8 0c          	shr    $0xc,%rax
   16399:	25 ff ff 01 00       	and    $0x1ffff,%eax
   1639e:	89 c1                	mov    %eax,%ecx
   163a0:	8b 45 fc             	mov    -0x4(%rbp),%eax
   163a3:	89 c2                	mov    %eax,%edx
   163a5:	48 8d 35 d8 39 00 00 	lea    0x39d8(%rip),%rsi        # 19d84 <g_1879+0x1d04>
   163ac:	48 89 cf             	mov    %rcx,%rdi
   163af:	e8 3f 13 ff ff       	callq  76f3 <transparent_crc>
   163b4:	48 8b 05 55 7b 00 00 	mov    0x7b55(%rip),%rax        # 1df10 <g_1724>
   163bb:	48 c1 e8 20          	shr    $0x20,%rax
   163bf:	66 25 ff 7f          	and    $0x7fff,%ax
   163c3:	0f b7 c0             	movzwl %ax,%eax
   163c6:	8b 55 fc             	mov    -0x4(%rbp),%edx
   163c9:	48 8d 35 be 39 00 00 	lea    0x39be(%rip),%rsi        # 19d8e <g_1879+0x1d0e>
   163d0:	48 89 c7             	mov    %rax,%rdi
   163d3:	e8 1b 13 ff ff       	callq  76f3 <transparent_crc>
   163d8:	8b 05 3a 7b 00 00    	mov    0x7b3a(%rip),%eax        # 1df18 <g_1724+0x8>
   163de:	01 c0                	add    %eax,%eax
   163e0:	d1 f8                	sar    %eax
   163e2:	48 98                	cltq   
   163e4:	8b 55 fc             	mov    -0x4(%rbp),%edx
   163e7:	48 8d 35 aa 39 00 00 	lea    0x39aa(%rip),%rsi        # 19d98 <g_1879+0x1d18>
   163ee:	48 89 c7             	mov    %rax,%rdi
   163f1:	e8 fd 12 ff ff       	callq  76f3 <transparent_crc>
   163f6:	8b 05 20 7b 00 00    	mov    0x7b20(%rip),%eax        # 1df1c <g_1724+0xc>
   163fc:	c1 e0 0e             	shl    $0xe,%eax
   163ff:	c1 f8 0e             	sar    $0xe,%eax
   16402:	48 98                	cltq   
   16404:	8b 55 fc             	mov    -0x4(%rbp),%edx
   16407:	48 8d 35 94 39 00 00 	lea    0x3994(%rip),%rsi        # 19da2 <g_1879+0x1d22>
   1640e:	48 89 c7             	mov    %rax,%rdi
   16411:	e8 dd 12 ff ff       	callq  76f3 <transparent_crc>
   16416:	0f b6 05 01 7b 00 00 	movzbl 0x7b01(%rip),%eax        # 1df1e <g_1724+0xe>
   1641d:	c0 e8 02             	shr    $0x2,%al
   16420:	83 e0 01             	and    $0x1,%eax
   16423:	0f b6 c0             	movzbl %al,%eax
   16426:	8b 55 fc             	mov    -0x4(%rbp),%edx
   16429:	48 8d 35 7c 39 00 00 	lea    0x397c(%rip),%rsi        # 19dac <g_1879+0x1d2c>
   16430:	48 89 c7             	mov    %rax,%rdi
   16433:	e8 bb 12 ff ff       	callq  76f3 <transparent_crc>
   16438:	8b 05 e2 7a 00 00    	mov    0x7ae2(%rip),%eax        # 1df20 <g_1724+0x10>
   1643e:	c1 e0 05             	shl    $0x5,%eax
   16441:	c1 f8 05             	sar    $0x5,%eax
   16444:	48 98                	cltq   
   16446:	8b 55 fc             	mov    -0x4(%rbp),%edx
   16449:	48 8d 35 66 39 00 00 	lea    0x3966(%rip),%rsi        # 19db6 <g_1879+0x1d36>
   16450:	48 89 c7             	mov    %rax,%rdi
   16453:	e8 9b 12 ff ff       	callq  76f3 <transparent_crc>
   16458:	0f b7 05 c9 7a 00 00 	movzwl 0x7ac9(%rip),%eax        # 1df28 <g_1747>
   1645f:	0f b7 c0             	movzwl %ax,%eax
   16462:	8b 55 fc             	mov    -0x4(%rbp),%edx
   16465:	48 8d 35 54 39 00 00 	lea    0x3954(%rip),%rsi        # 19dc0 <g_1879+0x1d40>
   1646c:	48 89 c7             	mov    %rax,%rdi
   1646f:	e8 7f 12 ff ff       	callq  76f3 <transparent_crc>
   16474:	0f b7 05 b5 7a 00 00 	movzwl 0x7ab5(%rip),%eax        # 1df30 <g_1748>
   1647b:	0f b7 c0             	movzwl %ax,%eax
   1647e:	8b 55 fc             	mov    -0x4(%rbp),%edx
   16481:	48 8d 35 42 39 00 00 	lea    0x3942(%rip),%rsi        # 19dca <g_1879+0x1d4a>
   16488:	48 89 c7             	mov    %rax,%rdi
   1648b:	e8 63 12 ff ff       	callq  76f3 <transparent_crc>
   16490:	c7 45 f0 00 00 00 00 	movl   $0x0,-0x10(%rbp)
   16497:	eb 4d                	jmp    164e6 <main+0x18d2>
   16499:	8b 45 f0             	mov    -0x10(%rbp),%eax
   1649c:	48 98                	cltq   
   1649e:	48 8d 14 c5 00 00 00 	lea    0x0(,%rax,8),%rdx
   164a5:	00 
   164a6:	48 8d 05 93 7a 00 00 	lea    0x7a93(%rip),%rax        # 1df40 <g_1749>
   164ad:	0f b7 04 02          	movzwl (%rdx,%rax,1),%eax
   164b1:	0f b7 c0             	movzwl %ax,%eax
   164b4:	8b 55 fc             	mov    -0x4(%rbp),%edx
   164b7:	48 8d 35 16 39 00 00 	lea    0x3916(%rip),%rsi        # 19dd4 <g_1879+0x1d54>
   164be:	48 89 c7             	mov    %rax,%rdi
   164c1:	e8 2d 12 ff ff       	callq  76f3 <transparent_crc>
   164c6:	83 7d fc 00          	cmpl   $0x0,-0x4(%rbp)
   164ca:	74 16                	je     164e2 <main+0x18ce>
   164cc:	8b 45 f0             	mov    -0x10(%rbp),%eax
   164cf:	89 c6                	mov    %eax,%esi
   164d1:	48 8d 3d 51 33 00 00 	lea    0x3351(%rip),%rdi        # 19829 <g_1879+0x17a9>
   164d8:	b8 00 00 00 00       	mov    $0x0,%eax
   164dd:	e8 9e fb fe ff       	callq  6080 <printf@plt>
   164e2:	83 45 f0 01          	addl   $0x1,-0x10(%rbp)
   164e6:	83 7d f0 01          	cmpl   $0x1,-0x10(%rbp)
   164ea:	7e ad                	jle    16499 <main+0x1885>
   164ec:	c7 45 f0 00 00 00 00 	movl   $0x0,-0x10(%rbp)
   164f3:	eb 6c                	jmp    16561 <main+0x194d>
   164f5:	c7 45 f4 00 00 00 00 	movl   $0x0,-0xc(%rbp)
   164fc:	eb 59                	jmp    16557 <main+0x1943>
   164fe:	8b 45 f4             	mov    -0xc(%rbp),%eax
   16501:	48 63 d0             	movslq %eax,%rdx
   16504:	8b 45 f0             	mov    -0x10(%rbp),%eax
   16507:	48 98                	cltq   
   16509:	48 01 d0             	add    %rdx,%rax
   1650c:	48 8d 14 c5 00 00 00 	lea    0x0(,%rax,8),%rdx
   16513:	00 
   16514:	48 8d 05 45 7a 00 00 	lea    0x7a45(%rip),%rax        # 1df60 <g_1750>
   1651b:	0f b7 04 02          	movzwl (%rdx,%rax,1),%eax
   1651f:	0f b7 c0             	movzwl %ax,%eax
   16522:	8b 55 fc             	mov    -0x4(%rbp),%edx
   16525:	48 8d 35 b5 38 00 00 	lea    0x38b5(%rip),%rsi        # 19de1 <g_1879+0x1d61>
   1652c:	48 89 c7             	mov    %rax,%rdi
   1652f:	e8 bf 11 ff ff       	callq  76f3 <transparent_crc>
   16534:	83 7d fc 00          	cmpl   $0x0,-0x4(%rbp)
   16538:	74 19                	je     16553 <main+0x193f>
   1653a:	8b 55 f4             	mov    -0xc(%rbp),%edx
   1653d:	8b 45 f0             	mov    -0x10(%rbp),%eax
   16540:	89 c6                	mov    %eax,%esi
   16542:	48 8d 3d 3e 35 00 00 	lea    0x353e(%rip),%rdi        # 19a87 <g_1879+0x1a07>
   16549:	b8 00 00 00 00       	mov    $0x0,%eax
   1654e:	e8 2d fb fe ff       	callq  6080 <printf@plt>
   16553:	83 45 f4 01          	addl   $0x1,-0xc(%rbp)
   16557:	83 7d f4 00          	cmpl   $0x0,-0xc(%rbp)
   1655b:	7e a1                	jle    164fe <main+0x18ea>
   1655d:	83 45 f0 01          	addl   $0x1,-0x10(%rbp)
   16561:	83 7d f0 03          	cmpl   $0x3,-0x10(%rbp)
   16565:	7e 8e                	jle    164f5 <main+0x18e1>
   16567:	0f b7 05 12 7a 00 00 	movzwl 0x7a12(%rip),%eax        # 1df80 <g_1751>
   1656e:	0f b7 c0             	movzwl %ax,%eax
   16571:	8b 55 fc             	mov    -0x4(%rbp),%edx
   16574:	48 8d 35 76 38 00 00 	lea    0x3876(%rip),%rsi        # 19df1 <g_1879+0x1d71>
   1657b:	48 89 c7             	mov    %rax,%rdi
   1657e:	e8 70 11 ff ff       	callq  76f3 <transparent_crc>
   16583:	0f b7 05 fe 79 00 00 	movzwl 0x79fe(%rip),%eax        # 1df88 <g_1752>
   1658a:	0f b7 c0             	movzwl %ax,%eax
   1658d:	8b 55 fc             	mov    -0x4(%rbp),%edx
   16590:	48 8d 35 64 38 00 00 	lea    0x3864(%rip),%rsi        # 19dfb <g_1879+0x1d7b>
   16597:	48 89 c7             	mov    %rax,%rdi
   1659a:	e8 54 11 ff ff       	callq  76f3 <transparent_crc>
   1659f:	0f b7 05 ea 79 00 00 	movzwl 0x79ea(%rip),%eax        # 1df90 <g_1753>
   165a6:	0f b7 c0             	movzwl %ax,%eax
   165a9:	8b 55 fc             	mov    -0x4(%rbp),%edx
   165ac:	48 8d 35 52 38 00 00 	lea    0x3852(%rip),%rsi        # 19e05 <g_1879+0x1d85>
   165b3:	48 89 c7             	mov    %rax,%rdi
   165b6:	e8 38 11 ff ff       	callq  76f3 <transparent_crc>
   165bb:	0f b7 05 d6 79 00 00 	movzwl 0x79d6(%rip),%eax        # 1df98 <g_1754>
   165c2:	0f b7 c0             	movzwl %ax,%eax
   165c5:	8b 55 fc             	mov    -0x4(%rbp),%edx
   165c8:	48 8d 35 40 38 00 00 	lea    0x3840(%rip),%rsi        # 19e0f <g_1879+0x1d8f>
   165cf:	48 89 c7             	mov    %rax,%rdi
   165d2:	e8 1c 11 ff ff       	callq  76f3 <transparent_crc>
   165d7:	0f b7 05 c2 79 00 00 	movzwl 0x79c2(%rip),%eax        # 1dfa0 <g_1755>
   165de:	0f b7 c0             	movzwl %ax,%eax
   165e1:	8b 55 fc             	mov    -0x4(%rbp),%edx
   165e4:	48 8d 35 2e 38 00 00 	lea    0x382e(%rip),%rsi        # 19e19 <g_1879+0x1d99>
   165eb:	48 89 c7             	mov    %rax,%rdi
   165ee:	e8 00 11 ff ff       	callq  76f3 <transparent_crc>
   165f3:	c7 45 f0 00 00 00 00 	movl   $0x0,-0x10(%rbp)
   165fa:	eb 70                	jmp    1666c <main+0x1a58>
   165fc:	c7 45 f4 00 00 00 00 	movl   $0x0,-0xc(%rbp)
   16603:	eb 5d                	jmp    16662 <main+0x1a4e>
   16605:	8b 45 f4             	mov    -0xc(%rbp),%eax
   16608:	48 98                	cltq   
   1660a:	8b 55 f0             	mov    -0x10(%rbp),%edx
   1660d:	48 63 d2             	movslq %edx,%rdx
   16610:	48 c1 e2 02          	shl    $0x2,%rdx
   16614:	48 01 d0             	add    %rdx,%rax
   16617:	48 8d 14 c5 00 00 00 	lea    0x0(,%rax,8),%rdx
   1661e:	00 
   1661f:	48 8d 05 9a 79 00 00 	lea    0x799a(%rip),%rax        # 1dfc0 <g_1756>
   16626:	0f b7 04 02          	movzwl (%rdx,%rax,1),%eax
   1662a:	0f b7 c0             	movzwl %ax,%eax
   1662d:	8b 55 fc             	mov    -0x4(%rbp),%edx
   16630:	48 8d 35 ec 37 00 00 	lea    0x37ec(%rip),%rsi        # 19e23 <g_1879+0x1da3>
   16637:	48 89 c7             	mov    %rax,%rdi
   1663a:	e8 b4 10 ff ff       	callq  76f3 <transparent_crc>
   1663f:	83 7d fc 00          	cmpl   $0x0,-0x4(%rbp)
   16643:	74 19                	je     1665e <main+0x1a4a>
   16645:	8b 55 f4             	mov    -0xc(%rbp),%edx
   16648:	8b 45 f0             	mov    -0x10(%rbp),%eax
   1664b:	89 c6                	mov    %eax,%esi
   1664d:	48 8d 3d 33 34 00 00 	lea    0x3433(%rip),%rdi        # 19a87 <g_1879+0x1a07>
   16654:	b8 00 00 00 00       	mov    $0x0,%eax
   16659:	e8 22 fa fe ff       	callq  6080 <printf@plt>
   1665e:	83 45 f4 01          	addl   $0x1,-0xc(%rbp)
   16662:	83 7d f4 03          	cmpl   $0x3,-0xc(%rbp)
   16666:	7e 9d                	jle    16605 <main+0x19f1>
   16668:	83 45 f0 01          	addl   $0x1,-0x10(%rbp)
   1666c:	83 7d f0 05          	cmpl   $0x5,-0x10(%rbp)
   16670:	7e 8a                	jle    165fc <main+0x19e8>
   16672:	0f b7 05 07 7a 00 00 	movzwl 0x7a07(%rip),%eax        # 1e080 <g_1757>
   16679:	0f b7 c0             	movzwl %ax,%eax
   1667c:	8b 55 fc             	mov    -0x4(%rbp),%edx
   1667f:	48 8d 35 ad 37 00 00 	lea    0x37ad(%rip),%rsi        # 19e33 <g_1879+0x1db3>
   16686:	48 89 c7             	mov    %rax,%rdi
   16689:	e8 65 10 ff ff       	callq  76f3 <transparent_crc>
   1668e:	c7 45 f0 00 00 00 00 	movl   $0x0,-0x10(%rbp)
   16695:	e9 9c 00 00 00       	jmpq   16736 <main+0x1b22>
   1669a:	c7 45 f4 00 00 00 00 	movl   $0x0,-0xc(%rbp)
   166a1:	e9 82 00 00 00       	jmpq   16728 <main+0x1b14>
   166a6:	c7 45 f8 00 00 00 00 	movl   $0x0,-0x8(%rbp)
   166ad:	eb 6f                	jmp    1671e <main+0x1b0a>
   166af:	8b 45 f8             	mov    -0x8(%rbp),%eax
   166b2:	48 63 c8             	movslq %eax,%rcx
   166b5:	8b 45 f0             	mov    -0x10(%rbp),%eax
   166b8:	48 63 d0             	movslq %eax,%rdx
   166bb:	8b 45 f4             	mov    -0xc(%rbp),%eax
   166be:	48 98                	cltq   
   166c0:	48 01 c2             	add    %rax,%rdx
   166c3:	48 89 d0             	mov    %rdx,%rax
   166c6:	48 c1 e0 03          	shl    $0x3,%rax
   166ca:	48 01 d0             	add    %rdx,%rax
   166cd:	48 01 c8             	add    %rcx,%rax
   166d0:	48 8d 14 c5 00 00 00 	lea    0x0(,%rax,8),%rdx
   166d7:	00 
   166d8:	48 8d 05 c1 79 00 00 	lea    0x79c1(%rip),%rax        # 1e0a0 <g_1758>
   166df:	0f b7 04 02          	movzwl (%rdx,%rax,1),%eax
   166e3:	0f b7 c0             	movzwl %ax,%eax
   166e6:	8b 55 fc             	mov    -0x4(%rbp),%edx
   166e9:	48 8d 35 4d 37 00 00 	lea    0x374d(%rip),%rsi        # 19e3d <g_1879+0x1dbd>
   166f0:	48 89 c7             	mov    %rax,%rdi
   166f3:	e8 fb 0f ff ff       	callq  76f3 <transparent_crc>
   166f8:	83 7d fc 00          	cmpl   $0x0,-0x4(%rbp)
   166fc:	74 1c                	je     1671a <main+0x1b06>
   166fe:	8b 4d f8             	mov    -0x8(%rbp),%ecx
   16701:	8b 55 f4             	mov    -0xc(%rbp),%edx
   16704:	8b 45 f0             	mov    -0x10(%rbp),%eax
   16707:	89 c6                	mov    %eax,%esi
   16709:	48 8d 3d 3f 31 00 00 	lea    0x313f(%rip),%rdi        # 1984f <g_1879+0x17cf>
   16710:	b8 00 00 00 00       	mov    $0x0,%eax
   16715:	e8 66 f9 fe ff       	callq  6080 <printf@plt>
   1671a:	83 45 f8 01          	addl   $0x1,-0x8(%rbp)
   1671e:	83 7d f8 08          	cmpl   $0x8,-0x8(%rbp)
   16722:	7e 8b                	jle    166af <main+0x1a9b>
   16724:	83 45 f4 01          	addl   $0x1,-0xc(%rbp)
   16728:	83 7d f4 00          	cmpl   $0x0,-0xc(%rbp)
   1672c:	0f 8e 74 ff ff ff    	jle    166a6 <main+0x1a92>
   16732:	83 45 f0 01          	addl   $0x1,-0x10(%rbp)
   16736:	83 7d f0 03          	cmpl   $0x3,-0x10(%rbp)
   1673a:	0f 8e 5a ff ff ff    	jle    1669a <main+0x1a86>
   16740:	0f b7 05 79 7a 00 00 	movzwl 0x7a79(%rip),%eax        # 1e1c0 <g_1823>
   16747:	0f b7 c0             	movzwl %ax,%eax
   1674a:	8b 55 fc             	mov    -0x4(%rbp),%edx
   1674d:	48 8d 35 fc 36 00 00 	lea    0x36fc(%rip),%rsi        # 19e50 <g_1879+0x1dd0>
   16754:	48 89 c7             	mov    %rax,%rdi
   16757:	e8 97 0f ff ff       	callq  76f3 <transparent_crc>
   1675c:	0f b7 05 15 19 00 00 	movzwl 0x1915(%rip),%eax        # 18078 <g_1828>
   16763:	0f b7 c0             	movzwl %ax,%eax
   16766:	8b 55 fc             	mov    -0x4(%rbp),%edx
   16769:	48 8d 35 ea 36 00 00 	lea    0x36ea(%rip),%rsi        # 19e5a <g_1879+0x1dda>
   16770:	48 89 c7             	mov    %rax,%rdi
   16773:	e8 7b 0f ff ff       	callq  76f3 <transparent_crc>
   16778:	c7 45 f0 00 00 00 00 	movl   $0x0,-0x10(%rbp)
   1677f:	eb 4b                	jmp    167cc <main+0x1bb8>
   16781:	8b 45 f0             	mov    -0x10(%rbp),%eax
   16784:	48 98                	cltq   
   16786:	48 8d 14 85 00 00 00 	lea    0x0(,%rax,4),%rdx
   1678d:	00 
   1678e:	48 8d 05 33 7a 00 00 	lea    0x7a33(%rip),%rax        # 1e1c8 <g_1832>
   16795:	8b 04 02             	mov    (%rdx,%rax,1),%eax
   16798:	48 98                	cltq   
   1679a:	8b 55 fc             	mov    -0x4(%rbp),%edx
   1679d:	48 8d 35 c0 36 00 00 	lea    0x36c0(%rip),%rsi        # 19e64 <g_1879+0x1de4>
   167a4:	48 89 c7             	mov    %rax,%rdi
   167a7:	e8 47 0f ff ff       	callq  76f3 <transparent_crc>
   167ac:	83 7d fc 00          	cmpl   $0x0,-0x4(%rbp)
   167b0:	74 16                	je     167c8 <main+0x1bb4>
   167b2:	8b 45 f0             	mov    -0x10(%rbp),%eax
   167b5:	89 c6                	mov    %eax,%esi
   167b7:	48 8d 3d 6b 30 00 00 	lea    0x306b(%rip),%rdi        # 19829 <g_1879+0x17a9>
   167be:	b8 00 00 00 00       	mov    $0x0,%eax
   167c3:	e8 b8 f8 fe ff       	callq  6080 <printf@plt>
   167c8:	83 45 f0 01          	addl   $0x1,-0x10(%rbp)
   167cc:	83 7d f0 02          	cmpl   $0x2,-0x10(%rbp)
   167d0:	7e af                	jle    16781 <main+0x1b6d>
   167d2:	c7 45 f0 00 00 00 00 	movl   $0x0,-0x10(%rbp)
   167d9:	e9 4c 02 00 00       	jmpq   16a2a <main+0x1e16>
   167de:	c7 45 f4 00 00 00 00 	movl   $0x0,-0xc(%rbp)
   167e5:	e9 32 02 00 00       	jmpq   16a1c <main+0x1e08>
   167ea:	8b 45 f4             	mov    -0xc(%rbp),%eax
   167ed:	48 63 d0             	movslq %eax,%rdx
   167f0:	8b 45 f0             	mov    -0x10(%rbp),%eax
   167f3:	48 63 c8             	movslq %eax,%rcx
   167f6:	48 89 d0             	mov    %rdx,%rax
   167f9:	48 c1 e0 02          	shl    $0x2,%rax
   167fd:	48 01 d0             	add    %rdx,%rax
   16800:	48 c1 e0 02          	shl    $0x2,%rax
   16804:	48 69 d1 8c 00 00 00 	imul   $0x8c,%rcx,%rdx
   1680b:	48 01 c2             	add    %rax,%rdx
   1680e:	48 8d 05 cb 79 00 00 	lea    0x79cb(%rip),%rax        # 1e1e0 <g_1844>
   16815:	48 01 d0             	add    %rdx,%rax
   16818:	8b 00                	mov    (%rax),%eax
   1681a:	c1 e0 04             	shl    $0x4,%eax
   1681d:	66 c1 f8 04          	sar    $0x4,%ax
   16821:	48 0f bf c0          	movswq %ax,%rax
   16825:	8b 55 fc             	mov    -0x4(%rbp),%edx
   16828:	48 8d 35 3f 36 00 00 	lea    0x363f(%rip),%rsi        # 19e6e <g_1879+0x1dee>
   1682f:	48 89 c7             	mov    %rax,%rdi
   16832:	e8 bc 0e ff ff       	callq  76f3 <transparent_crc>
   16837:	8b 45 f4             	mov    -0xc(%rbp),%eax
   1683a:	48 63 d0             	movslq %eax,%rdx
   1683d:	8b 45 f0             	mov    -0x10(%rbp),%eax
   16840:	48 63 c8             	movslq %eax,%rcx
   16843:	48 89 d0             	mov    %rdx,%rax
   16846:	48 c1 e0 02          	shl    $0x2,%rax
   1684a:	48 01 d0             	add    %rdx,%rax
   1684d:	48 c1 e0 02          	shl    $0x2,%rax
   16851:	48 69 d1 8c 00 00 00 	imul   $0x8c,%rcx,%rdx
   16858:	48 01 c2             	add    %rax,%rdx
   1685b:	48 8d 05 7e 79 00 00 	lea    0x797e(%rip),%rax        # 1e1e0 <g_1844>
   16862:	48 01 d0             	add    %rdx,%rax
   16865:	8b 00                	mov    (%rax),%eax
   16867:	c1 e8 0c             	shr    $0xc,%eax
   1686a:	25 ff ff 01 00       	and    $0x1ffff,%eax
   1686f:	89 c1                	mov    %eax,%ecx
   16871:	8b 45 fc             	mov    -0x4(%rbp),%eax
   16874:	89 c2                	mov    %eax,%edx
   16876:	48 8d 35 01 36 00 00 	lea    0x3601(%rip),%rsi        # 19e7e <g_1879+0x1dfe>
   1687d:	48 89 cf             	mov    %rcx,%rdi
   16880:	e8 6e 0e ff ff       	callq  76f3 <transparent_crc>
   16885:	8b 45 f4             	mov    -0xc(%rbp),%eax
   16888:	48 63 d0             	movslq %eax,%rdx
   1688b:	8b 45 f0             	mov    -0x10(%rbp),%eax
   1688e:	48 63 c8             	movslq %eax,%rcx
   16891:	48 89 d0             	mov    %rdx,%rax
   16894:	48 c1 e0 02          	shl    $0x2,%rax
   16898:	48 01 d0             	add    %rdx,%rax
   1689b:	48 c1 e0 02          	shl    $0x2,%rax
   1689f:	48 69 d1 8c 00 00 00 	imul   $0x8c,%rcx,%rdx
   168a6:	48 01 c2             	add    %rax,%rdx
   168a9:	48 8d 05 30 79 00 00 	lea    0x7930(%rip),%rax        # 1e1e0 <g_1844>
   168b0:	48 01 d0             	add    %rdx,%rax
   168b3:	8b 40 04             	mov    0x4(%rax),%eax
   168b6:	66 25 ff 7f          	and    $0x7fff,%ax
   168ba:	0f b7 c0             	movzwl %ax,%eax
   168bd:	8b 55 fc             	mov    -0x4(%rbp),%edx
   168c0:	48 8d 35 c7 35 00 00 	lea    0x35c7(%rip),%rsi        # 19e8e <g_1879+0x1e0e>
   168c7:	48 89 c7             	mov    %rax,%rdi
   168ca:	e8 24 0e ff ff       	callq  76f3 <transparent_crc>
   168cf:	8b 45 f4             	mov    -0xc(%rbp),%eax
   168d2:	48 63 d0             	movslq %eax,%rdx
   168d5:	8b 45 f0             	mov    -0x10(%rbp),%eax
   168d8:	48 63 c8             	movslq %eax,%rcx
   168db:	48 89 d0             	mov    %rdx,%rax
   168de:	48 c1 e0 02          	shl    $0x2,%rax
   168e2:	48 01 d0             	add    %rdx,%rax
   168e5:	48 c1 e0 02          	shl    $0x2,%rax
   168e9:	48 69 d1 8c 00 00 00 	imul   $0x8c,%rcx,%rdx
   168f0:	48 01 c2             	add    %rax,%rdx
   168f3:	48 8d 05 e6 78 00 00 	lea    0x78e6(%rip),%rax        # 1e1e0 <g_1844>
   168fa:	48 01 d0             	add    %rdx,%rax
   168fd:	8b 40 08             	mov    0x8(%rax),%eax
   16900:	01 c0                	add    %eax,%eax
   16902:	d1 f8                	sar    %eax
   16904:	48 98                	cltq   
   16906:	8b 55 fc             	mov    -0x4(%rbp),%edx
   16909:	48 8d 35 8e 35 00 00 	lea    0x358e(%rip),%rsi        # 19e9e <g_1879+0x1e1e>
   16910:	48 89 c7             	mov    %rax,%rdi
   16913:	e8 db 0d ff ff       	callq  76f3 <transparent_crc>
   16918:	8b 45 f4             	mov    -0xc(%rbp),%eax
   1691b:	48 63 d0             	movslq %eax,%rdx
   1691e:	8b 45 f0             	mov    -0x10(%rbp),%eax
   16921:	48 63 c8             	movslq %eax,%rcx
   16924:	48 89 d0             	mov    %rdx,%rax
   16927:	48 c1 e0 02          	shl    $0x2,%rax
   1692b:	48 01 d0             	add    %rdx,%rax
   1692e:	48 c1 e0 02          	shl    $0x2,%rax
   16932:	48 69 d1 8c 00 00 00 	imul   $0x8c,%rcx,%rdx
   16939:	48 01 c2             	add    %rax,%rdx
   1693c:	48 8d 05 9d 78 00 00 	lea    0x789d(%rip),%rax        # 1e1e0 <g_1844>
   16943:	48 01 d0             	add    %rdx,%rax
   16946:	8b 40 0c             	mov    0xc(%rax),%eax
   16949:	c1 e0 0e             	shl    $0xe,%eax
   1694c:	c1 f8 0e             	sar    $0xe,%eax
   1694f:	48 98                	cltq   
   16951:	8b 55 fc             	mov    -0x4(%rbp),%edx
   16954:	48 8d 35 53 35 00 00 	lea    0x3553(%rip),%rsi        # 19eae <g_1879+0x1e2e>
   1695b:	48 89 c7             	mov    %rax,%rdi
   1695e:	e8 90 0d ff ff       	callq  76f3 <transparent_crc>
   16963:	8b 45 f4             	mov    -0xc(%rbp),%eax
   16966:	48 63 d0             	movslq %eax,%rdx
   16969:	8b 45 f0             	mov    -0x10(%rbp),%eax
   1696c:	48 63 c8             	movslq %eax,%rcx
   1696f:	48 89 d0             	mov    %rdx,%rax
   16972:	48 c1 e0 02          	shl    $0x2,%rax
   16976:	48 01 d0             	add    %rdx,%rax
   16979:	48 c1 e0 02          	shl    $0x2,%rax
   1697d:	48 69 d1 8c 00 00 00 	imul   $0x8c,%rcx,%rdx
   16984:	48 01 c2             	add    %rax,%rdx
   16987:	48 8d 05 52 78 00 00 	lea    0x7852(%rip),%rax        # 1e1e0 <g_1844>
   1698e:	48 01 d0             	add    %rdx,%rax
   16991:	8b 40 0c             	mov    0xc(%rax),%eax
   16994:	c1 e8 12             	shr    $0x12,%eax
   16997:	83 e0 01             	and    $0x1,%eax
   1699a:	0f b6 c0             	movzbl %al,%eax
   1699d:	8b 55 fc             	mov    -0x4(%rbp),%edx
   169a0:	48 8d 35 17 35 00 00 	lea    0x3517(%rip),%rsi        # 19ebe <g_1879+0x1e3e>
   169a7:	48 89 c7             	mov    %rax,%rdi
   169aa:	e8 44 0d ff ff       	callq  76f3 <transparent_crc>
   169af:	8b 45 f4             	mov    -0xc(%rbp),%eax
   169b2:	48 63 d0             	movslq %eax,%rdx
   169b5:	8b 45 f0             	mov    -0x10(%rbp),%eax
   169b8:	48 63 c8             	movslq %eax,%rcx
   169bb:	48 89 d0             	mov    %rdx,%rax
   169be:	48 c1 e0 02          	shl    $0x2,%rax
   169c2:	48 01 d0             	add    %rdx,%rax
   169c5:	48 c1 e0 02          	shl    $0x2,%rax
   169c9:	48 69 d1 8c 00 00 00 	imul   $0x8c,%rcx,%rdx
   169d0:	48 01 c2             	add    %rax,%rdx
   169d3:	48 8d 05 16 78 00 00 	lea    0x7816(%rip),%rax        # 1e1f0 <g_1844+0x10>
   169da:	48 01 d0             	add    %rdx,%rax
   169dd:	8b 00                	mov    (%rax),%eax
   169df:	c1 e0 05             	shl    $0x5,%eax
   169e2:	c1 f8 05             	sar    $0x5,%eax
   169e5:	48 98                	cltq   
   169e7:	8b 55 fc             	mov    -0x4(%rbp),%edx
   169ea:	48 8d 35 dd 34 00 00 	lea    0x34dd(%rip),%rsi        # 19ece <g_1879+0x1e4e>
   169f1:	48 89 c7             	mov    %rax,%rdi
   169f4:	e8 fa 0c ff ff       	callq  76f3 <transparent_crc>
   169f9:	83 7d fc 00          	cmpl   $0x0,-0x4(%rbp)
   169fd:	74 19                	je     16a18 <main+0x1e04>
   169ff:	8b 55 f4             	mov    -0xc(%rbp),%edx
   16a02:	8b 45 f0             	mov    -0x10(%rbp),%eax
   16a05:	89 c6                	mov    %eax,%esi
   16a07:	48 8d 3d 79 30 00 00 	lea    0x3079(%rip),%rdi        # 19a87 <g_1879+0x1a07>
   16a0e:	b8 00 00 00 00       	mov    $0x0,%eax
   16a13:	e8 68 f6 fe ff       	callq  6080 <printf@plt>
   16a18:	83 45 f4 01          	addl   $0x1,-0xc(%rbp)
   16a1c:	83 7d f4 06          	cmpl   $0x6,-0xc(%rbp)
   16a20:	0f 8e c4 fd ff ff    	jle    167ea <main+0x1bd6>
   16a26:	83 45 f0 01          	addl   $0x1,-0x10(%rbp)
   16a2a:	83 7d f0 06          	cmpl   $0x6,-0x10(%rbp)
   16a2e:	0f 8e aa fd ff ff    	jle    167de <main+0x1bca>
   16a34:	0f b7 05 85 7b 00 00 	movzwl 0x7b85(%rip),%eax        # 1e5c0 <g_1875>
   16a3b:	c1 e0 04             	shl    $0x4,%eax
   16a3e:	66 c1 f8 04          	sar    $0x4,%ax
   16a42:	48 0f bf c0          	movswq %ax,%rax
   16a46:	8b 55 fc             	mov    -0x4(%rbp),%edx
   16a49:	48 8d 35 8e 34 00 00 	lea    0x348e(%rip),%rsi        # 19ede <g_1879+0x1e5e>
   16a50:	48 89 c7             	mov    %rax,%rdi
   16a53:	e8 9b 0c ff ff       	callq  76f3 <transparent_crc>
   16a58:	48 8b 05 61 7b 00 00 	mov    0x7b61(%rip),%rax        # 1e5c0 <g_1875>
   16a5f:	48 c1 e8 0c          	shr    $0xc,%rax
   16a63:	25 ff ff 01 00       	and    $0x1ffff,%eax
   16a68:	89 c1                	mov    %eax,%ecx
   16a6a:	8b 45 fc             	mov    -0x4(%rbp),%eax
   16a6d:	89 c2                	mov    %eax,%edx
   16a6f:	48 8d 35 72 34 00 00 	lea    0x3472(%rip),%rsi        # 19ee8 <g_1879+0x1e68>
   16a76:	48 89 cf             	mov    %rcx,%rdi
   16a79:	e8 75 0c ff ff       	callq  76f3 <transparent_crc>
   16a7e:	48 8b 05 3b 7b 00 00 	mov    0x7b3b(%rip),%rax        # 1e5c0 <g_1875>
   16a85:	48 c1 e8 20          	shr    $0x20,%rax
   16a89:	66 25 ff 7f          	and    $0x7fff,%ax
   16a8d:	0f b7 c0             	movzwl %ax,%eax
   16a90:	8b 55 fc             	mov    -0x4(%rbp),%edx
   16a93:	48 8d 35 58 34 00 00 	lea    0x3458(%rip),%rsi        # 19ef2 <g_1879+0x1e72>
   16a9a:	48 89 c7             	mov    %rax,%rdi
   16a9d:	e8 51 0c ff ff       	callq  76f3 <transparent_crc>
   16aa2:	8b 05 20 7b 00 00    	mov    0x7b20(%rip),%eax        # 1e5c8 <g_1875+0x8>
   16aa8:	01 c0                	add    %eax,%eax
   16aaa:	d1 f8                	sar    %eax
   16aac:	48 98                	cltq   
   16aae:	8b 55 fc             	mov    -0x4(%rbp),%edx
   16ab1:	48 8d 35 44 34 00 00 	lea    0x3444(%rip),%rsi        # 19efc <g_1879+0x1e7c>
   16ab8:	48 89 c7             	mov    %rax,%rdi
   16abb:	e8 33 0c ff ff       	callq  76f3 <transparent_crc>
   16ac0:	8b 05 06 7b 00 00    	mov    0x7b06(%rip),%eax        # 1e5cc <g_1875+0xc>
   16ac6:	c1 e0 0e             	shl    $0xe,%eax
   16ac9:	c1 f8 0e             	sar    $0xe,%eax
   16acc:	48 98                	cltq   
   16ace:	8b 55 fc             	mov    -0x4(%rbp),%edx
   16ad1:	48 8d 35 2e 34 00 00 	lea    0x342e(%rip),%rsi        # 19f06 <g_1879+0x1e86>
   16ad8:	48 89 c7             	mov    %rax,%rdi
   16adb:	e8 13 0c ff ff       	callq  76f3 <transparent_crc>
   16ae0:	0f b6 05 e7 7a 00 00 	movzbl 0x7ae7(%rip),%eax        # 1e5ce <g_1875+0xe>
   16ae7:	c0 e8 02             	shr    $0x2,%al
   16aea:	83 e0 01             	and    $0x1,%eax
   16aed:	0f b6 c0             	movzbl %al,%eax
   16af0:	8b 55 fc             	mov    -0x4(%rbp),%edx
   16af3:	48 8d 35 16 34 00 00 	lea    0x3416(%rip),%rsi        # 19f10 <g_1879+0x1e90>
   16afa:	48 89 c7             	mov    %rax,%rdi
   16afd:	e8 f1 0b ff ff       	callq  76f3 <transparent_crc>
   16b02:	8b 05 c8 7a 00 00    	mov    0x7ac8(%rip),%eax        # 1e5d0 <g_1875+0x10>
   16b08:	c1 e0 05             	shl    $0x5,%eax
   16b0b:	c1 f8 05             	sar    $0x5,%eax
   16b0e:	48 98                	cltq   
   16b10:	8b 55 fc             	mov    -0x4(%rbp),%edx
   16b13:	48 8d 35 00 34 00 00 	lea    0x3400(%rip),%rsi        # 19f1a <g_1879+0x1e9a>
   16b1a:	48 89 c7             	mov    %rax,%rdi
   16b1d:	e8 d1 0b ff ff       	callq  76f3 <transparent_crc>
   16b22:	b8 01 00 00 00       	mov    $0x1,%eax
   16b27:	89 c1                	mov    %eax,%ecx
   16b29:	8b 45 fc             	mov    -0x4(%rbp),%eax
   16b2c:	89 c2                	mov    %eax,%edx
   16b2e:	48 8d 35 ef 33 00 00 	lea    0x33ef(%rip),%rsi        # 19f24 <g_1879+0x1ea4>
   16b35:	48 89 cf             	mov    %rcx,%rdi
   16b38:	e8 b6 0b ff ff       	callq  76f3 <transparent_crc>
   16b3d:	0f b7 05 9c 7a 00 00 	movzwl 0x7a9c(%rip),%eax        # 1e5e0 <g_1916>
   16b44:	c1 e0 04             	shl    $0x4,%eax
   16b47:	66 c1 f8 04          	sar    $0x4,%ax
   16b4b:	48 0f bf c0          	movswq %ax,%rax
   16b4f:	8b 55 fc             	mov    -0x4(%rbp),%edx
   16b52:	48 8d 35 d2 33 00 00 	lea    0x33d2(%rip),%rsi        # 19f2b <g_1879+0x1eab>
   16b59:	48 89 c7             	mov    %rax,%rdi
   16b5c:	e8 92 0b ff ff       	callq  76f3 <transparent_crc>
   16b61:	48 8b 05 78 7a 00 00 	mov    0x7a78(%rip),%rax        # 1e5e0 <g_1916>
   16b68:	48 c1 e8 0c          	shr    $0xc,%rax
   16b6c:	25 ff ff 01 00       	and    $0x1ffff,%eax
   16b71:	89 c1                	mov    %eax,%ecx
   16b73:	8b 45 fc             	mov    -0x4(%rbp),%eax
   16b76:	89 c2                	mov    %eax,%edx
   16b78:	48 8d 35 b6 33 00 00 	lea    0x33b6(%rip),%rsi        # 19f35 <g_1879+0x1eb5>
   16b7f:	48 89 cf             	mov    %rcx,%rdi
   16b82:	e8 6c 0b ff ff       	callq  76f3 <transparent_crc>
   16b87:	48 8b 05 52 7a 00 00 	mov    0x7a52(%rip),%rax        # 1e5e0 <g_1916>
   16b8e:	48 c1 e8 20          	shr    $0x20,%rax
   16b92:	66 25 ff 7f          	and    $0x7fff,%ax
   16b96:	0f b7 c0             	movzwl %ax,%eax
   16b99:	8b 55 fc             	mov    -0x4(%rbp),%edx
   16b9c:	48 8d 35 9c 33 00 00 	lea    0x339c(%rip),%rsi        # 19f3f <g_1879+0x1ebf>
   16ba3:	48 89 c7             	mov    %rax,%rdi
   16ba6:	e8 48 0b ff ff       	callq  76f3 <transparent_crc>
   16bab:	8b 05 37 7a 00 00    	mov    0x7a37(%rip),%eax        # 1e5e8 <g_1916+0x8>
   16bb1:	01 c0                	add    %eax,%eax
   16bb3:	d1 f8                	sar    %eax
   16bb5:	48 98                	cltq   
   16bb7:	8b 55 fc             	mov    -0x4(%rbp),%edx
   16bba:	48 8d 35 88 33 00 00 	lea    0x3388(%rip),%rsi        # 19f49 <g_1879+0x1ec9>
   16bc1:	48 89 c7             	mov    %rax,%rdi
   16bc4:	e8 2a 0b ff ff       	callq  76f3 <transparent_crc>
   16bc9:	8b 05 1d 7a 00 00    	mov    0x7a1d(%rip),%eax        # 1e5ec <g_1916+0xc>
   16bcf:	c1 e0 0e             	shl    $0xe,%eax
   16bd2:	c1 f8 0e             	sar    $0xe,%eax
   16bd5:	48 98                	cltq   
   16bd7:	8b 55 fc             	mov    -0x4(%rbp),%edx
   16bda:	48 8d 35 72 33 00 00 	lea    0x3372(%rip),%rsi        # 19f53 <g_1879+0x1ed3>
   16be1:	48 89 c7             	mov    %rax,%rdi
   16be4:	e8 0a 0b ff ff       	callq  76f3 <transparent_crc>
   16be9:	0f b6 05 fe 79 00 00 	movzbl 0x79fe(%rip),%eax        # 1e5ee <g_1916+0xe>
   16bf0:	c0 e8 02             	shr    $0x2,%al
   16bf3:	83 e0 01             	and    $0x1,%eax
   16bf6:	0f b6 c0             	movzbl %al,%eax
   16bf9:	8b 55 fc             	mov    -0x4(%rbp),%edx
   16bfc:	48 8d 35 5a 33 00 00 	lea    0x335a(%rip),%rsi        # 19f5d <g_1879+0x1edd>
   16c03:	48 89 c7             	mov    %rax,%rdi
   16c06:	e8 e8 0a ff ff       	callq  76f3 <transparent_crc>
   16c0b:	8b 05 df 79 00 00    	mov    0x79df(%rip),%eax        # 1e5f0 <g_1916+0x10>
   16c11:	c1 e0 05             	shl    $0x5,%eax
   16c14:	c1 f8 05             	sar    $0x5,%eax
   16c17:	48 98                	cltq   
   16c19:	8b 55 fc             	mov    -0x4(%rbp),%edx
   16c1c:	48 8d 35 44 33 00 00 	lea    0x3344(%rip),%rsi        # 19f67 <g_1879+0x1ee7>
   16c23:	48 89 c7             	mov    %rax,%rdi
   16c26:	e8 c8 0a ff ff       	callq  76f3 <transparent_crc>
   16c2b:	0f b7 05 c6 79 00 00 	movzwl 0x79c6(%rip),%eax        # 1e5f8 <g_2006>
   16c32:	0f b7 c0             	movzwl %ax,%eax
   16c35:	8b 55 fc             	mov    -0x4(%rbp),%edx
   16c38:	48 8d 35 32 33 00 00 	lea    0x3332(%rip),%rsi        # 19f71 <g_1879+0x1ef1>
   16c3f:	48 89 c7             	mov    %rax,%rdi
   16c42:	e8 ac 0a ff ff       	callq  76f3 <transparent_crc>
   16c47:	48 8b 05 b2 79 00 00 	mov    0x79b2(%rip),%rax        # 1e600 <g_2030>
   16c4e:	c1 e0 04             	shl    $0x4,%eax
   16c51:	66 c1 f8 04          	sar    $0x4,%ax
   16c55:	48 0f bf c0          	movswq %ax,%rax
   16c59:	8b 55 fc             	mov    -0x4(%rbp),%edx
   16c5c:	48 8d 35 18 33 00 00 	lea    0x3318(%rip),%rsi        # 19f7b <g_1879+0x1efb>
   16c63:	48 89 c7             	mov    %rax,%rdi
   16c66:	e8 88 0a ff ff       	callq  76f3 <transparent_crc>
   16c6b:	48 8b 05 8e 79 00 00 	mov    0x798e(%rip),%rax        # 1e600 <g_2030>
   16c72:	48 c1 e8 0c          	shr    $0xc,%rax
   16c76:	25 ff ff 01 00       	and    $0x1ffff,%eax
   16c7b:	89 c1                	mov    %eax,%ecx
   16c7d:	8b 45 fc             	mov    -0x4(%rbp),%eax
   16c80:	89 c2                	mov    %eax,%edx
   16c82:	48 8d 35 fc 32 00 00 	lea    0x32fc(%rip),%rsi        # 19f85 <g_1879+0x1f05>
   16c89:	48 89 cf             	mov    %rcx,%rdi
   16c8c:	e8 62 0a ff ff       	callq  76f3 <transparent_crc>
   16c91:	48 8b 05 68 79 00 00 	mov    0x7968(%rip),%rax        # 1e600 <g_2030>
   16c98:	48 c1 e8 20          	shr    $0x20,%rax
   16c9c:	66 25 ff 7f          	and    $0x7fff,%ax
   16ca0:	0f b7 c0             	movzwl %ax,%eax
   16ca3:	8b 55 fc             	mov    -0x4(%rbp),%edx
   16ca6:	48 8d 35 e2 32 00 00 	lea    0x32e2(%rip),%rsi        # 19f8f <g_1879+0x1f0f>
   16cad:	48 89 c7             	mov    %rax,%rdi
   16cb0:	e8 3e 0a ff ff       	callq  76f3 <transparent_crc>
   16cb5:	48 8b 05 4c 79 00 00 	mov    0x794c(%rip),%rax        # 1e608 <g_2030+0x8>
   16cbc:	01 c0                	add    %eax,%eax
   16cbe:	d1 f8                	sar    %eax
   16cc0:	48 98                	cltq   
   16cc2:	8b 55 fc             	mov    -0x4(%rbp),%edx
   16cc5:	48 8d 35 cd 32 00 00 	lea    0x32cd(%rip),%rsi        # 19f99 <g_1879+0x1f19>
   16ccc:	48 89 c7             	mov    %rax,%rdi
   16ccf:	e8 1f 0a ff ff       	callq  76f3 <transparent_crc>
   16cd4:	48 8b 05 2d 79 00 00 	mov    0x792d(%rip),%rax        # 1e608 <g_2030+0x8>
   16cdb:	48 c1 e0 0e          	shl    $0xe,%rax
   16cdf:	48 c1 f8 2e          	sar    $0x2e,%rax
   16ce3:	48 98                	cltq   
   16ce5:	8b 55 fc             	mov    -0x4(%rbp),%edx
   16ce8:	48 8d 35 b4 32 00 00 	lea    0x32b4(%rip),%rsi        # 19fa3 <g_1879+0x1f23>
   16cef:	48 89 c7             	mov    %rax,%rdi
   16cf2:	e8 fc 09 ff ff       	callq  76f3 <transparent_crc>
   16cf7:	48 8b 05 0a 79 00 00 	mov    0x790a(%rip),%rax        # 1e608 <g_2030+0x8>
   16cfe:	48 c1 e8 32          	shr    $0x32,%rax
   16d02:	83 e0 01             	and    $0x1,%eax
   16d05:	0f b6 c0             	movzbl %al,%eax
   16d08:	8b 55 fc             	mov    -0x4(%rbp),%edx
   16d0b:	48 8d 35 9b 32 00 00 	lea    0x329b(%rip),%rsi        # 19fad <g_1879+0x1f2d>
   16d12:	48 89 c7             	mov    %rax,%rdi
   16d15:	e8 d9 09 ff ff       	callq  76f3 <transparent_crc>
   16d1a:	48 8b 05 ef 78 00 00 	mov    0x78ef(%rip),%rax        # 1e610 <g_2030+0x10>
   16d21:	c1 e0 05             	shl    $0x5,%eax
   16d24:	c1 f8 05             	sar    $0x5,%eax
   16d27:	48 98                	cltq   
   16d29:	8b 55 fc             	mov    -0x4(%rbp),%edx
   16d2c:	48 8d 35 84 32 00 00 	lea    0x3284(%rip),%rsi        # 19fb7 <g_1879+0x1f37>
   16d33:	48 89 c7             	mov    %rax,%rdi
   16d36:	e8 b8 09 ff ff       	callq  76f3 <transparent_crc>
   16d3b:	0f b7 05 de 78 00 00 	movzwl 0x78de(%rip),%eax        # 1e620 <g_2070>
   16d42:	c1 e0 04             	shl    $0x4,%eax
   16d45:	66 c1 f8 04          	sar    $0x4,%ax
   16d49:	48 0f bf c0          	movswq %ax,%rax
   16d4d:	8b 55 fc             	mov    -0x4(%rbp),%edx
   16d50:	48 8d 35 6a 32 00 00 	lea    0x326a(%rip),%rsi        # 19fc1 <g_1879+0x1f41>
   16d57:	48 89 c7             	mov    %rax,%rdi
   16d5a:	e8 94 09 ff ff       	callq  76f3 <transparent_crc>
   16d5f:	48 8b 05 ba 78 00 00 	mov    0x78ba(%rip),%rax        # 1e620 <g_2070>
   16d66:	48 c1 e8 0c          	shr    $0xc,%rax
   16d6a:	25 ff ff 01 00       	and    $0x1ffff,%eax
   16d6f:	89 c1                	mov    %eax,%ecx
   16d71:	8b 45 fc             	mov    -0x4(%rbp),%eax
   16d74:	89 c2                	mov    %eax,%edx
   16d76:	48 8d 35 4e 32 00 00 	lea    0x324e(%rip),%rsi        # 19fcb <g_1879+0x1f4b>
   16d7d:	48 89 cf             	mov    %rcx,%rdi
   16d80:	e8 6e 09 ff ff       	callq  76f3 <transparent_crc>
   16d85:	48 8b 05 94 78 00 00 	mov    0x7894(%rip),%rax        # 1e620 <g_2070>
   16d8c:	48 c1 e8 20          	shr    $0x20,%rax
   16d90:	66 25 ff 7f          	and    $0x7fff,%ax
   16d94:	0f b7 c0             	movzwl %ax,%eax
   16d97:	8b 55 fc             	mov    -0x4(%rbp),%edx
   16d9a:	48 8d 35 34 32 00 00 	lea    0x3234(%rip),%rsi        # 19fd5 <g_1879+0x1f55>
   16da1:	48 89 c7             	mov    %rax,%rdi
   16da4:	e8 4a 09 ff ff       	callq  76f3 <transparent_crc>
   16da9:	8b 05 79 78 00 00    	mov    0x7879(%rip),%eax        # 1e628 <g_2070+0x8>
   16daf:	01 c0                	add    %eax,%eax
   16db1:	d1 f8                	sar    %eax
   16db3:	48 98                	cltq   
   16db5:	8b 55 fc             	mov    -0x4(%rbp),%edx
   16db8:	48 8d 35 20 32 00 00 	lea    0x3220(%rip),%rsi        # 19fdf <g_1879+0x1f5f>
   16dbf:	48 89 c7             	mov    %rax,%rdi
   16dc2:	e8 2c 09 ff ff       	callq  76f3 <transparent_crc>
   16dc7:	8b 05 5f 78 00 00    	mov    0x785f(%rip),%eax        # 1e62c <g_2070+0xc>
   16dcd:	c1 e0 0e             	shl    $0xe,%eax
   16dd0:	c1 f8 0e             	sar    $0xe,%eax
   16dd3:	48 98                	cltq   
   16dd5:	8b 55 fc             	mov    -0x4(%rbp),%edx
   16dd8:	48 8d 35 0a 32 00 00 	lea    0x320a(%rip),%rsi        # 19fe9 <g_1879+0x1f69>
   16ddf:	48 89 c7             	mov    %rax,%rdi
   16de2:	e8 0c 09 ff ff       	callq  76f3 <transparent_crc>
   16de7:	0f b6 05 40 78 00 00 	movzbl 0x7840(%rip),%eax        # 1e62e <g_2070+0xe>
   16dee:	c0 e8 02             	shr    $0x2,%al
   16df1:	83 e0 01             	and    $0x1,%eax
   16df4:	0f b6 c0             	movzbl %al,%eax
   16df7:	8b 55 fc             	mov    -0x4(%rbp),%edx
   16dfa:	48 8d 35 f2 31 00 00 	lea    0x31f2(%rip),%rsi        # 19ff3 <g_1879+0x1f73>
   16e01:	48 89 c7             	mov    %rax,%rdi
   16e04:	e8 ea 08 ff ff       	callq  76f3 <transparent_crc>
   16e09:	8b 05 21 78 00 00    	mov    0x7821(%rip),%eax        # 1e630 <g_2070+0x10>
   16e0f:	c1 e0 05             	shl    $0x5,%eax
   16e12:	c1 f8 05             	sar    $0x5,%eax
   16e15:	48 98                	cltq   
   16e17:	8b 55 fc             	mov    -0x4(%rbp),%edx
   16e1a:	48 8d 35 dc 31 00 00 	lea    0x31dc(%rip),%rsi        # 19ffd <g_1879+0x1f7d>
   16e21:	48 89 c7             	mov    %rax,%rdi
   16e24:	e8 ca 08 ff ff       	callq  76f3 <transparent_crc>
   16e29:	0f b7 05 08 78 00 00 	movzwl 0x7808(%rip),%eax        # 1e638 <g_2120>
   16e30:	0f b7 c0             	movzwl %ax,%eax
   16e33:	8b 55 fc             	mov    -0x4(%rbp),%edx
   16e36:	48 8d 35 ca 31 00 00 	lea    0x31ca(%rip),%rsi        # 1a007 <g_1879+0x1f87>
   16e3d:	48 89 c7             	mov    %rax,%rdi
   16e40:	e8 ae 08 ff ff       	callq  76f3 <transparent_crc>
   16e45:	c7 45 f0 00 00 00 00 	movl   $0x0,-0x10(%rbp)
   16e4c:	e9 4c 02 00 00       	jmpq   1709d <main+0x2489>
   16e51:	c7 45 f4 00 00 00 00 	movl   $0x0,-0xc(%rbp)
   16e58:	e9 32 02 00 00       	jmpq   1708f <main+0x247b>
   16e5d:	8b 45 f4             	mov    -0xc(%rbp),%eax
   16e60:	48 63 d0             	movslq %eax,%rdx
   16e63:	8b 45 f0             	mov    -0x10(%rbp),%eax
   16e66:	48 63 c8             	movslq %eax,%rcx
   16e69:	48 89 d0             	mov    %rdx,%rax
   16e6c:	48 c1 e0 02          	shl    $0x2,%rax
   16e70:	48 01 d0             	add    %rdx,%rax
   16e73:	48 c1 e0 02          	shl    $0x2,%rax
   16e77:	48 69 d1 b4 00 00 00 	imul   $0xb4,%rcx,%rdx
   16e7e:	48 01 c2             	add    %rax,%rdx
   16e81:	48 8d 05 b8 77 00 00 	lea    0x77b8(%rip),%rax        # 1e640 <g_2185>
   16e88:	48 01 d0             	add    %rdx,%rax
   16e8b:	8b 00                	mov    (%rax),%eax
   16e8d:	c1 e0 04             	shl    $0x4,%eax
   16e90:	66 c1 f8 04          	sar    $0x4,%ax
   16e94:	48 0f bf c0          	movswq %ax,%rax
   16e98:	8b 55 fc             	mov    -0x4(%rbp),%edx
   16e9b:	48 8d 35 6f 31 00 00 	lea    0x316f(%rip),%rsi        # 1a011 <g_1879+0x1f91>
   16ea2:	48 89 c7             	mov    %rax,%rdi
   16ea5:	e8 49 08 ff ff       	callq  76f3 <transparent_crc>
   16eaa:	8b 45 f4             	mov    -0xc(%rbp),%eax
   16ead:	48 63 d0             	movslq %eax,%rdx
   16eb0:	8b 45 f0             	mov    -0x10(%rbp),%eax
   16eb3:	48 63 c8             	movslq %eax,%rcx
   16eb6:	48 89 d0             	mov    %rdx,%rax
   16eb9:	48 c1 e0 02          	shl    $0x2,%rax
   16ebd:	48 01 d0             	add    %rdx,%rax
   16ec0:	48 c1 e0 02          	shl    $0x2,%rax
   16ec4:	48 69 d1 b4 00 00 00 	imul   $0xb4,%rcx,%rdx
   16ecb:	48 01 c2             	add    %rax,%rdx
   16ece:	48 8d 05 6b 77 00 00 	lea    0x776b(%rip),%rax        # 1e640 <g_2185>
   16ed5:	48 01 d0             	add    %rdx,%rax
   16ed8:	8b 00                	mov    (%rax),%eax
   16eda:	c1 e8 0c             	shr    $0xc,%eax
   16edd:	25 ff ff 01 00       	and    $0x1ffff,%eax
   16ee2:	89 c1                	mov    %eax,%ecx
   16ee4:	8b 45 fc             	mov    -0x4(%rbp),%eax
   16ee7:	89 c2                	mov    %eax,%edx
   16ee9:	48 8d 35 31 31 00 00 	lea    0x3131(%rip),%rsi        # 1a021 <g_1879+0x1fa1>
   16ef0:	48 89 cf             	mov    %rcx,%rdi
   16ef3:	e8 fb 07 ff ff       	callq  76f3 <transparent_crc>
   16ef8:	8b 45 f4             	mov    -0xc(%rbp),%eax
   16efb:	48 63 d0             	movslq %eax,%rdx
   16efe:	8b 45 f0             	mov    -0x10(%rbp),%eax
   16f01:	48 63 c8             	movslq %eax,%rcx
   16f04:	48 89 d0             	mov    %rdx,%rax
   16f07:	48 c1 e0 02          	shl    $0x2,%rax
   16f0b:	48 01 d0             	add    %rdx,%rax
   16f0e:	48 c1 e0 02          	shl    $0x2,%rax
   16f12:	48 69 d1 b4 00 00 00 	imul   $0xb4,%rcx,%rdx
   16f19:	48 01 c2             	add    %rax,%rdx
   16f1c:	48 8d 05 1d 77 00 00 	lea    0x771d(%rip),%rax        # 1e640 <g_2185>
   16f23:	48 01 d0             	add    %rdx,%rax
   16f26:	8b 40 04             	mov    0x4(%rax),%eax
   16f29:	66 25 ff 7f          	and    $0x7fff,%ax
   16f2d:	0f b7 c0             	movzwl %ax,%eax
   16f30:	8b 55 fc             	mov    -0x4(%rbp),%edx
   16f33:	48 8d 35 f7 30 00 00 	lea    0x30f7(%rip),%rsi        # 1a031 <g_1879+0x1fb1>
   16f3a:	48 89 c7             	mov    %rax,%rdi
   16f3d:	e8 b1 07 ff ff       	callq  76f3 <transparent_crc>
   16f42:	8b 45 f4             	mov    -0xc(%rbp),%eax
   16f45:	48 63 d0             	movslq %eax,%rdx
   16f48:	8b 45 f0             	mov    -0x10(%rbp),%eax
   16f4b:	48 63 c8             	movslq %eax,%rcx
   16f4e:	48 89 d0             	mov    %rdx,%rax
   16f51:	48 c1 e0 02          	shl    $0x2,%rax
   16f55:	48 01 d0             	add    %rdx,%rax
   16f58:	48 c1 e0 02          	shl    $0x2,%rax
   16f5c:	48 69 d1 b4 00 00 00 	imul   $0xb4,%rcx,%rdx
   16f63:	48 01 c2             	add    %rax,%rdx
   16f66:	48 8d 05 d3 76 00 00 	lea    0x76d3(%rip),%rax        # 1e640 <g_2185>
   16f6d:	48 01 d0             	add    %rdx,%rax
   16f70:	8b 40 08             	mov    0x8(%rax),%eax
   16f73:	01 c0                	add    %eax,%eax
   16f75:	d1 f8                	sar    %eax
   16f77:	48 98                	cltq   
   16f79:	8b 55 fc             	mov    -0x4(%rbp),%edx
   16f7c:	48 8d 35 be 30 00 00 	lea    0x30be(%rip),%rsi        # 1a041 <g_1879+0x1fc1>
   16f83:	48 89 c7             	mov    %rax,%rdi
   16f86:	e8 68 07 ff ff       	callq  76f3 <transparent_crc>
   16f8b:	8b 45 f4             	mov    -0xc(%rbp),%eax
   16f8e:	48 63 d0             	movslq %eax,%rdx
   16f91:	8b 45 f0             	mov    -0x10(%rbp),%eax
   16f94:	48 63 c8             	movslq %eax,%rcx
   16f97:	48 89 d0             	mov    %rdx,%rax
   16f9a:	48 c1 e0 02          	shl    $0x2,%rax
   16f9e:	48 01 d0             	add    %rdx,%rax
   16fa1:	48 c1 e0 02          	shl    $0x2,%rax
   16fa5:	48 69 d1 b4 00 00 00 	imul   $0xb4,%rcx,%rdx
   16fac:	48 01 c2             	add    %rax,%rdx
   16faf:	48 8d 05 8a 76 00 00 	lea    0x768a(%rip),%rax        # 1e640 <g_2185>
   16fb6:	48 01 d0             	add    %rdx,%rax
   16fb9:	8b 40 0c             	mov    0xc(%rax),%eax
   16fbc:	c1 e0 0e             	shl    $0xe,%eax
   16fbf:	c1 f8 0e             	sar    $0xe,%eax
   16fc2:	48 98                	cltq   
   16fc4:	8b 55 fc             	mov    -0x4(%rbp),%edx
   16fc7:	48 8d 35 83 30 00 00 	lea    0x3083(%rip),%rsi        # 1a051 <g_1879+0x1fd1>
   16fce:	48 89 c7             	mov    %rax,%rdi
   16fd1:	e8 1d 07 ff ff       	callq  76f3 <transparent_crc>
   16fd6:	8b 45 f4             	mov    -0xc(%rbp),%eax
   16fd9:	48 63 d0             	movslq %eax,%rdx
   16fdc:	8b 45 f0             	mov    -0x10(%rbp),%eax
   16fdf:	48 63 c8             	movslq %eax,%rcx
   16fe2:	48 89 d0             	mov    %rdx,%rax
   16fe5:	48 c1 e0 02          	shl    $0x2,%rax
   16fe9:	48 01 d0             	add    %rdx,%rax
   16fec:	48 c1 e0 02          	shl    $0x2,%rax
   16ff0:	48 69 d1 b4 00 00 00 	imul   $0xb4,%rcx,%rdx
   16ff7:	48 01 c2             	add    %rax,%rdx
   16ffa:	48 8d 05 3f 76 00 00 	lea    0x763f(%rip),%rax        # 1e640 <g_2185>
   17001:	48 01 d0             	add    %rdx,%rax
   17004:	8b 40 0c             	mov    0xc(%rax),%eax
   17007:	c1 e8 12             	shr    $0x12,%eax
   1700a:	83 e0 01             	and    $0x1,%eax
   1700d:	0f b6 c0             	movzbl %al,%eax
   17010:	8b 55 fc             	mov    -0x4(%rbp),%edx
   17013:	48 8d 35 47 30 00 00 	lea    0x3047(%rip),%rsi        # 1a061 <g_1879+0x1fe1>
   1701a:	48 89 c7             	mov    %rax,%rdi
   1701d:	e8 d1 06 ff ff       	callq  76f3 <transparent_crc>
   17022:	8b 45 f4             	mov    -0xc(%rbp),%eax
   17025:	48 63 d0             	movslq %eax,%rdx
   17028:	8b 45 f0             	mov    -0x10(%rbp),%eax
   1702b:	48 63 c8             	movslq %eax,%rcx
   1702e:	48 89 d0             	mov    %rdx,%rax
   17031:	48 c1 e0 02          	shl    $0x2,%rax
   17035:	48 01 d0             	add    %rdx,%rax
   17038:	48 c1 e0 02          	shl    $0x2,%rax
   1703c:	48 69 d1 b4 00 00 00 	imul   $0xb4,%rcx,%rdx
   17043:	48 01 c2             	add    %rax,%rdx
   17046:	48 8d 05 03 76 00 00 	lea    0x7603(%rip),%rax        # 1e650 <g_2185+0x10>
   1704d:	48 01 d0             	add    %rdx,%rax
   17050:	8b 00                	mov    (%rax),%eax
   17052:	c1 e0 05             	shl    $0x5,%eax
   17055:	c1 f8 05             	sar    $0x5,%eax
   17058:	48 98                	cltq   
   1705a:	8b 55 fc             	mov    -0x4(%rbp),%edx
   1705d:	48 8d 35 0d 30 00 00 	lea    0x300d(%rip),%rsi        # 1a071 <g_1879+0x1ff1>
   17064:	48 89 c7             	mov    %rax,%rdi
   17067:	e8 87 06 ff ff       	callq  76f3 <transparent_crc>
   1706c:	83 7d fc 00          	cmpl   $0x0,-0x4(%rbp)
   17070:	74 19                	je     1708b <main+0x2477>
   17072:	8b 55 f4             	mov    -0xc(%rbp),%edx
   17075:	8b 45 f0             	mov    -0x10(%rbp),%eax
   17078:	89 c6                	mov    %eax,%esi
   1707a:	48 8d 3d 06 2a 00 00 	lea    0x2a06(%rip),%rdi        # 19a87 <g_1879+0x1a07>
   17081:	b8 00 00 00 00       	mov    $0x0,%eax
   17086:	e8 f5 ef fe ff       	callq  6080 <printf@plt>
   1708b:	83 45 f4 01          	addl   $0x1,-0xc(%rbp)
   1708f:	83 7d f4 08          	cmpl   $0x8,-0xc(%rbp)
   17093:	0f 8e c4 fd ff ff    	jle    16e5d <main+0x2249>
   17099:	83 45 f0 01          	addl   $0x1,-0x10(%rbp)
   1709d:	83 7d f0 05          	cmpl   $0x5,-0x10(%rbp)
   170a1:	0f 8e aa fd ff ff    	jle    16e51 <main+0x223d>
   170a7:	0f b6 05 ca 79 00 00 	movzbl 0x79ca(%rip),%eax        # 1ea78 <g_2196>
   170ae:	48 0f be c0          	movsbq %al,%rax
   170b2:	8b 55 fc             	mov    -0x4(%rbp),%edx
   170b5:	48 8d 35 c5 2f 00 00 	lea    0x2fc5(%rip),%rsi        # 1a081 <g_1879+0x2001>
   170bc:	48 89 c7             	mov    %rax,%rdi
   170bf:	e8 2f 06 ff ff       	callq  76f3 <transparent_crc>
   170c4:	0f b6 05 ae 79 00 00 	movzbl 0x79ae(%rip),%eax        # 1ea79 <g_2295>
   170cb:	48 0f be c0          	movsbq %al,%rax
   170cf:	8b 55 fc             	mov    -0x4(%rbp),%edx
   170d2:	48 8d 35 af 2f 00 00 	lea    0x2faf(%rip),%rsi        # 1a088 <g_1879+0x2008>
   170d9:	48 89 c7             	mov    %rax,%rdi
   170dc:	e8 12 06 ff ff       	callq  76f3 <transparent_crc>
   170e1:	48 8b 05 98 79 00 00 	mov    0x7998(%rip),%rax        # 1ea80 <g_2333>
   170e8:	c1 e0 04             	shl    $0x4,%eax
   170eb:	66 c1 f8 04          	sar    $0x4,%ax
   170ef:	48 0f bf c0          	movswq %ax,%rax
   170f3:	8b 55 fc             	mov    -0x4(%rbp),%edx
   170f6:	48 8d 35 92 2f 00 00 	lea    0x2f92(%rip),%rsi        # 1a08f <g_1879+0x200f>
   170fd:	48 89 c7             	mov    %rax,%rdi
   17100:	e8 ee 05 ff ff       	callq  76f3 <transparent_crc>
   17105:	48 8b 05 74 79 00 00 	mov    0x7974(%rip),%rax        # 1ea80 <g_2333>
   1710c:	48 c1 e8 0c          	shr    $0xc,%rax
   17110:	25 ff ff 01 00       	and    $0x1ffff,%eax
   17115:	89 c1                	mov    %eax,%ecx
   17117:	8b 45 fc             	mov    -0x4(%rbp),%eax
   1711a:	89 c2                	mov    %eax,%edx
   1711c:	48 8d 35 76 2f 00 00 	lea    0x2f76(%rip),%rsi        # 1a099 <g_1879+0x2019>
   17123:	48 89 cf             	mov    %rcx,%rdi
   17126:	e8 c8 05 ff ff       	callq  76f3 <transparent_crc>
   1712b:	48 8b 05 4e 79 00 00 	mov    0x794e(%rip),%rax        # 1ea80 <g_2333>
   17132:	48 c1 e8 20          	shr    $0x20,%rax
   17136:	66 25 ff 7f          	and    $0x7fff,%ax
   1713a:	0f b7 c0             	movzwl %ax,%eax
   1713d:	8b 55 fc             	mov    -0x4(%rbp),%edx
   17140:	48 8d 35 5c 2f 00 00 	lea    0x2f5c(%rip),%rsi        # 1a0a3 <g_1879+0x2023>
   17147:	48 89 c7             	mov    %rax,%rdi
   1714a:	e8 a4 05 ff ff       	callq  76f3 <transparent_crc>
   1714f:	48 8b 05 32 79 00 00 	mov    0x7932(%rip),%rax        # 1ea88 <g_2333+0x8>
   17156:	01 c0                	add    %eax,%eax
   17158:	d1 f8                	sar    %eax
   1715a:	48 98                	cltq   
   1715c:	8b 55 fc             	mov    -0x4(%rbp),%edx
   1715f:	48 8d 35 47 2f 00 00 	lea    0x2f47(%rip),%rsi        # 1a0ad <g_1879+0x202d>
   17166:	48 89 c7             	mov    %rax,%rdi
   17169:	e8 85 05 ff ff       	callq  76f3 <transparent_crc>
   1716e:	48 8b 05 13 79 00 00 	mov    0x7913(%rip),%rax        # 1ea88 <g_2333+0x8>
   17175:	48 c1 e0 0e          	shl    $0xe,%rax
   17179:	48 c1 f8 2e          	sar    $0x2e,%rax
   1717d:	48 98                	cltq   
   1717f:	8b 55 fc             	mov    -0x4(%rbp),%edx
   17182:	48 8d 35 2e 2f 00 00 	lea    0x2f2e(%rip),%rsi        # 1a0b7 <g_1879+0x2037>
   17189:	48 89 c7             	mov    %rax,%rdi
   1718c:	e8 62 05 ff ff       	callq  76f3 <transparent_crc>
   17191:	48 8b 05 f0 78 00 00 	mov    0x78f0(%rip),%rax        # 1ea88 <g_2333+0x8>
   17198:	48 c1 e8 32          	shr    $0x32,%rax
   1719c:	83 e0 01             	and    $0x1,%eax
   1719f:	0f b6 c0             	movzbl %al,%eax
   171a2:	8b 55 fc             	mov    -0x4(%rbp),%edx
   171a5:	48 8d 35 15 2f 00 00 	lea    0x2f15(%rip),%rsi        # 1a0c1 <g_1879+0x2041>
   171ac:	48 89 c7             	mov    %rax,%rdi
   171af:	e8 3f 05 ff ff       	callq  76f3 <transparent_crc>
   171b4:	48 8b 05 d5 78 00 00 	mov    0x78d5(%rip),%rax        # 1ea90 <g_2333+0x10>
   171bb:	c1 e0 05             	shl    $0x5,%eax
   171be:	c1 f8 05             	sar    $0x5,%eax
   171c1:	48 98                	cltq   
   171c3:	8b 55 fc             	mov    -0x4(%rbp),%edx
   171c6:	48 8d 35 fe 2e 00 00 	lea    0x2efe(%rip),%rsi        # 1a0cb <g_1879+0x204b>
   171cd:	48 89 c7             	mov    %rax,%rdi
   171d0:	e8 1e 05 ff ff       	callq  76f3 <transparent_crc>
   171d5:	0f b6 05 b8 78 00 00 	movzbl 0x78b8(%rip),%eax        # 1ea94 <g_2384>
   171dc:	48 0f be c0          	movsbq %al,%rax
   171e0:	8b 55 fc             	mov    -0x4(%rbp),%edx
   171e3:	48 8d 35 eb 2e 00 00 	lea    0x2eeb(%rip),%rsi        # 1a0d5 <g_1879+0x2055>
   171ea:	48 89 c7             	mov    %rax,%rdi
   171ed:	e8 01 05 ff ff       	callq  76f3 <transparent_crc>
   171f2:	c7 45 f0 00 00 00 00 	movl   $0x0,-0x10(%rbp)
   171f9:	e9 c6 01 00 00       	jmpq   173c4 <main+0x27b0>
   171fe:	8b 45 f0             	mov    -0x10(%rbp),%eax
   17201:	48 63 d0             	movslq %eax,%rdx
   17204:	48 89 d0             	mov    %rdx,%rax
   17207:	48 c1 e0 02          	shl    $0x2,%rax
   1720b:	48 01 d0             	add    %rdx,%rax
   1720e:	48 c1 e0 02          	shl    $0x2,%rax
   17212:	48 89 c2             	mov    %rax,%rdx
   17215:	48 8d 05 84 78 00 00 	lea    0x7884(%rip),%rax        # 1eaa0 <g_2453>
   1721c:	8b 04 02             	mov    (%rdx,%rax,1),%eax
   1721f:	c1 e0 04             	shl    $0x4,%eax
   17222:	66 c1 f8 04          	sar    $0x4,%ax
   17226:	48 0f bf c0          	movswq %ax,%rax
   1722a:	8b 55 fc             	mov    -0x4(%rbp),%edx
   1722d:	48 8d 35 a8 2e 00 00 	lea    0x2ea8(%rip),%rsi        # 1a0dc <g_1879+0x205c>
   17234:	48 89 c7             	mov    %rax,%rdi
   17237:	e8 b7 04 ff ff       	callq  76f3 <transparent_crc>
   1723c:	8b 45 f0             	mov    -0x10(%rbp),%eax
   1723f:	48 63 d0             	movslq %eax,%rdx
   17242:	48 89 d0             	mov    %rdx,%rax
   17245:	48 c1 e0 02          	shl    $0x2,%rax
   17249:	48 01 d0             	add    %rdx,%rax
   1724c:	48 c1 e0 02          	shl    $0x2,%rax
   17250:	48 89 c2             	mov    %rax,%rdx
   17253:	48 8d 05 46 78 00 00 	lea    0x7846(%rip),%rax        # 1eaa0 <g_2453>
   1725a:	8b 04 02             	mov    (%rdx,%rax,1),%eax
   1725d:	c1 e8 0c             	shr    $0xc,%eax
   17260:	25 ff ff 01 00       	and    $0x1ffff,%eax
   17265:	89 c1                	mov    %eax,%ecx
   17267:	8b 45 fc             	mov    -0x4(%rbp),%eax
   1726a:	89 c2                	mov    %eax,%edx
   1726c:	48 8d 35 76 2e 00 00 	lea    0x2e76(%rip),%rsi        # 1a0e9 <g_1879+0x2069>
   17273:	48 89 cf             	mov    %rcx,%rdi
   17276:	e8 78 04 ff ff       	callq  76f3 <transparent_crc>
   1727b:	8b 45 f0             	mov    -0x10(%rbp),%eax
   1727e:	48 63 d0             	movslq %eax,%rdx
   17281:	48 89 d0             	mov    %rdx,%rax
   17284:	48 c1 e0 02          	shl    $0x2,%rax
   17288:	48 01 d0             	add    %rdx,%rax
   1728b:	48 c1 e0 02          	shl    $0x2,%rax
   1728f:	48 89 c2             	mov    %rax,%rdx
   17292:	48 8d 05 07 78 00 00 	lea    0x7807(%rip),%rax        # 1eaa0 <g_2453>
   17299:	8b 44 02 04          	mov    0x4(%rdx,%rax,1),%eax
   1729d:	66 25 ff 7f          	and    $0x7fff,%ax
   172a1:	0f b7 c0             	movzwl %ax,%eax
   172a4:	8b 55 fc             	mov    -0x4(%rbp),%edx
   172a7:	48 8d 35 48 2e 00 00 	lea    0x2e48(%rip),%rsi        # 1a0f6 <g_1879+0x2076>
   172ae:	48 89 c7             	mov    %rax,%rdi
   172b1:	e8 3d 04 ff ff       	callq  76f3 <transparent_crc>
   172b6:	8b 45 f0             	mov    -0x10(%rbp),%eax
   172b9:	48 63 d0             	movslq %eax,%rdx
   172bc:	48 89 d0             	mov    %rdx,%rax
   172bf:	48 c1 e0 02          	shl    $0x2,%rax
   172c3:	48 01 d0             	add    %rdx,%rax
   172c6:	48 c1 e0 02          	shl    $0x2,%rax
   172ca:	48 89 c2             	mov    %rax,%rdx
   172cd:	48 8d 05 cc 77 00 00 	lea    0x77cc(%rip),%rax        # 1eaa0 <g_2453>
   172d4:	8b 44 02 08          	mov    0x8(%rdx,%rax,1),%eax
   172d8:	01 c0                	add    %eax,%eax
   172da:	d1 f8                	sar    %eax
   172dc:	48 98                	cltq   
   172de:	8b 55 fc             	mov    -0x4(%rbp),%edx
   172e1:	48 8d 35 1b 2e 00 00 	lea    0x2e1b(%rip),%rsi        # 1a103 <g_1879+0x2083>
   172e8:	48 89 c7             	mov    %rax,%rdi
   172eb:	e8 03 04 ff ff       	callq  76f3 <transparent_crc>
   172f0:	8b 45 f0             	mov    -0x10(%rbp),%eax
   172f3:	48 63 d0             	movslq %eax,%rdx
   172f6:	48 89 d0             	mov    %rdx,%rax
   172f9:	48 c1 e0 02          	shl    $0x2,%rax
   172fd:	48 01 d0             	add    %rdx,%rax
   17300:	48 c1 e0 02          	shl    $0x2,%rax
   17304:	48 89 c2             	mov    %rax,%rdx
   17307:	48 8d 05 92 77 00 00 	lea    0x7792(%rip),%rax        # 1eaa0 <g_2453>
   1730e:	8b 44 02 0c          	mov    0xc(%rdx,%rax,1),%eax
   17312:	c1 e0 0e             	shl    $0xe,%eax
   17315:	c1 f8 0e             	sar    $0xe,%eax
   17318:	48 98                	cltq   
   1731a:	8b 55 fc             	mov    -0x4(%rbp),%edx
   1731d:	48 8d 35 ec 2d 00 00 	lea    0x2dec(%rip),%rsi        # 1a110 <g_1879+0x2090>
   17324:	48 89 c7             	mov    %rax,%rdi
   17327:	e8 c7 03 ff ff       	callq  76f3 <transparent_crc>
   1732c:	8b 45 f0             	mov    -0x10(%rbp),%eax
   1732f:	48 63 d0             	movslq %eax,%rdx
   17332:	48 89 d0             	mov    %rdx,%rax
   17335:	48 c1 e0 02          	shl    $0x2,%rax
   17339:	48 01 d0             	add    %rdx,%rax
   1733c:	48 c1 e0 02          	shl    $0x2,%rax
   17340:	48 89 c2             	mov    %rax,%rdx
   17343:	48 8d 05 56 77 00 00 	lea    0x7756(%rip),%rax        # 1eaa0 <g_2453>
   1734a:	8b 44 02 0c          	mov    0xc(%rdx,%rax,1),%eax
   1734e:	c1 e8 12             	shr    $0x12,%eax
   17351:	83 e0 01             	and    $0x1,%eax
   17354:	0f b6 c0             	movzbl %al,%eax
   17357:	8b 55 fc             	mov    -0x4(%rbp),%edx
   1735a:	48 8d 35 bc 2d 00 00 	lea    0x2dbc(%rip),%rsi        # 1a11d <g_1879+0x209d>
   17361:	48 89 c7             	mov    %rax,%rdi
   17364:	e8 8a 03 ff ff       	callq  76f3 <transparent_crc>
   17369:	8b 45 f0             	mov    -0x10(%rbp),%eax
   1736c:	48 63 d0             	movslq %eax,%rdx
   1736f:	48 89 d0             	mov    %rdx,%rax
   17372:	48 c1 e0 02          	shl    $0x2,%rax
   17376:	48 01 d0             	add    %rdx,%rax
   17379:	48 c1 e0 02          	shl    $0x2,%rax
   1737d:	48 89 c2             	mov    %rax,%rdx
   17380:	48 8d 05 29 77 00 00 	lea    0x7729(%rip),%rax        # 1eab0 <g_2453+0x10>
   17387:	8b 04 02             	mov    (%rdx,%rax,1),%eax
   1738a:	c1 e0 05             	shl    $0x5,%eax
   1738d:	c1 f8 05             	sar    $0x5,%eax
   17390:	48 98                	cltq   
   17392:	8b 55 fc             	mov    -0x4(%rbp),%edx
   17395:	48 8d 35 8e 2d 00 00 	lea    0x2d8e(%rip),%rsi        # 1a12a <g_1879+0x20aa>
   1739c:	48 89 c7             	mov    %rax,%rdi
   1739f:	e8 4f 03 ff ff       	callq  76f3 <transparent_crc>
   173a4:	83 7d fc 00          	cmpl   $0x0,-0x4(%rbp)
   173a8:	74 16                	je     173c0 <main+0x27ac>
   173aa:	8b 45 f0             	mov    -0x10(%rbp),%eax
   173ad:	89 c6                	mov    %eax,%esi
   173af:	48 8d 3d 73 24 00 00 	lea    0x2473(%rip),%rdi        # 19829 <g_1879+0x17a9>
   173b6:	b8 00 00 00 00       	mov    $0x0,%eax
   173bb:	e8 c0 ec fe ff       	callq  6080 <printf@plt>
   173c0:	83 45 f0 01          	addl   $0x1,-0x10(%rbp)
   173c4:	83 7d f0 06          	cmpl   $0x6,-0x10(%rbp)
   173c8:	0f 8e 30 fe ff ff    	jle    171fe <main+0x25ea>
   173ce:	0f b7 05 5b 77 00 00 	movzwl 0x775b(%rip),%eax        # 1eb30 <g_2477>
   173d5:	c1 e0 04             	shl    $0x4,%eax
   173d8:	66 c1 f8 04          	sar    $0x4,%ax
   173dc:	48 0f bf c0          	movswq %ax,%rax
   173e0:	8b 55 fc             	mov    -0x4(%rbp),%edx
   173e3:	48 8d 35 4d 2d 00 00 	lea    0x2d4d(%rip),%rsi        # 1a137 <g_1879+0x20b7>
   173ea:	48 89 c7             	mov    %rax,%rdi
   173ed:	e8 01 03 ff ff       	callq  76f3 <transparent_crc>
   173f2:	48 8b 05 37 77 00 00 	mov    0x7737(%rip),%rax        # 1eb30 <g_2477>
   173f9:	48 c1 e8 0c          	shr    $0xc,%rax
   173fd:	25 ff ff 01 00       	and    $0x1ffff,%eax
   17402:	89 c1                	mov    %eax,%ecx
   17404:	8b 45 fc             	mov    -0x4(%rbp),%eax
   17407:	89 c2                	mov    %eax,%edx
   17409:	48 8d 35 31 2d 00 00 	lea    0x2d31(%rip),%rsi        # 1a141 <g_1879+0x20c1>
   17410:	48 89 cf             	mov    %rcx,%rdi
   17413:	e8 db 02 ff ff       	callq  76f3 <transparent_crc>
   17418:	48 8b 05 11 77 00 00 	mov    0x7711(%rip),%rax        # 1eb30 <g_2477>
   1741f:	48 c1 e8 20          	shr    $0x20,%rax
   17423:	66 25 ff 7f          	and    $0x7fff,%ax
   17427:	0f b7 c0             	movzwl %ax,%eax
   1742a:	8b 55 fc             	mov    -0x4(%rbp),%edx
   1742d:	48 8d 35 17 2d 00 00 	lea    0x2d17(%rip),%rsi        # 1a14b <g_1879+0x20cb>
   17434:	48 89 c7             	mov    %rax,%rdi
   17437:	e8 b7 02 ff ff       	callq  76f3 <transparent_crc>
   1743c:	8b 05 f6 76 00 00    	mov    0x76f6(%rip),%eax        # 1eb38 <g_2477+0x8>
   17442:	01 c0                	add    %eax,%eax
   17444:	d1 f8                	sar    %eax
   17446:	48 98                	cltq   
   17448:	8b 55 fc             	mov    -0x4(%rbp),%edx
   1744b:	48 8d 35 03 2d 00 00 	lea    0x2d03(%rip),%rsi        # 1a155 <g_1879+0x20d5>
   17452:	48 89 c7             	mov    %rax,%rdi
   17455:	e8 99 02 ff ff       	callq  76f3 <transparent_crc>
   1745a:	8b 05 dc 76 00 00    	mov    0x76dc(%rip),%eax        # 1eb3c <g_2477+0xc>
   17460:	c1 e0 0e             	shl    $0xe,%eax
   17463:	c1 f8 0e             	sar    $0xe,%eax
   17466:	48 98                	cltq   
   17468:	8b 55 fc             	mov    -0x4(%rbp),%edx
   1746b:	48 8d 35 ed 2c 00 00 	lea    0x2ced(%rip),%rsi        # 1a15f <g_1879+0x20df>
   17472:	48 89 c7             	mov    %rax,%rdi
   17475:	e8 79 02 ff ff       	callq  76f3 <transparent_crc>
   1747a:	0f b6 05 bd 76 00 00 	movzbl 0x76bd(%rip),%eax        # 1eb3e <g_2477+0xe>
   17481:	c0 e8 02             	shr    $0x2,%al
   17484:	83 e0 01             	and    $0x1,%eax
   17487:	0f b6 c0             	movzbl %al,%eax
   1748a:	8b 55 fc             	mov    -0x4(%rbp),%edx
   1748d:	48 8d 35 d5 2c 00 00 	lea    0x2cd5(%rip),%rsi        # 1a169 <g_1879+0x20e9>
   17494:	48 89 c7             	mov    %rax,%rdi
   17497:	e8 57 02 ff ff       	callq  76f3 <transparent_crc>
   1749c:	8b 05 9e 76 00 00    	mov    0x769e(%rip),%eax        # 1eb40 <g_2477+0x10>
   174a2:	c1 e0 05             	shl    $0x5,%eax
   174a5:	c1 f8 05             	sar    $0x5,%eax
   174a8:	48 98                	cltq   
   174aa:	8b 55 fc             	mov    -0x4(%rbp),%edx
   174ad:	48 8d 35 bf 2c 00 00 	lea    0x2cbf(%rip),%rsi        # 1a173 <g_1879+0x20f3>
   174b4:	48 89 c7             	mov    %rax,%rdi
   174b7:	e8 37 02 ff ff       	callq  76f3 <transparent_crc>
   174bc:	0f b7 05 81 76 00 00 	movzwl 0x7681(%rip),%eax        # 1eb44 <g_2502>
   174c3:	0f b7 c0             	movzwl %ax,%eax
   174c6:	8b 55 fc             	mov    -0x4(%rbp),%edx
   174c9:	48 8d 35 ad 2c 00 00 	lea    0x2cad(%rip),%rsi        # 1a17d <g_1879+0x20fd>
   174d0:	48 89 c7             	mov    %rax,%rdi
   174d3:	e8 1b 02 ff ff       	callq  76f3 <transparent_crc>
   174d8:	0f b7 05 71 76 00 00 	movzwl 0x7671(%rip),%eax        # 1eb50 <g_2505>
   174df:	c1 e0 04             	shl    $0x4,%eax
   174e2:	66 c1 f8 04          	sar    $0x4,%ax
   174e6:	48 0f bf c0          	movswq %ax,%rax
   174ea:	8b 55 fc             	mov    -0x4(%rbp),%edx
   174ed:	48 8d 35 90 2c 00 00 	lea    0x2c90(%rip),%rsi        # 1a184 <g_1879+0x2104>
   174f4:	48 89 c7             	mov    %rax,%rdi
   174f7:	e8 f7 01 ff ff       	callq  76f3 <transparent_crc>
   174fc:	48 8b 05 4d 76 00 00 	mov    0x764d(%rip),%rax        # 1eb50 <g_2505>
   17503:	48 c1 e8 0c          	shr    $0xc,%rax
   17507:	25 ff ff 01 00       	and    $0x1ffff,%eax
   1750c:	89 c1                	mov    %eax,%ecx
   1750e:	8b 45 fc             	mov    -0x4(%rbp),%eax
   17511:	89 c2                	mov    %eax,%edx
   17513:	48 8d 35 74 2c 00 00 	lea    0x2c74(%rip),%rsi        # 1a18e <g_1879+0x210e>
   1751a:	48 89 cf             	mov    %rcx,%rdi
   1751d:	e8 d1 01 ff ff       	callq  76f3 <transparent_crc>
   17522:	48 8b 05 27 76 00 00 	mov    0x7627(%rip),%rax        # 1eb50 <g_2505>
   17529:	48 c1 e8 20          	shr    $0x20,%rax
   1752d:	66 25 ff 7f          	and    $0x7fff,%ax
   17531:	0f b7 c0             	movzwl %ax,%eax
   17534:	8b 55 fc             	mov    -0x4(%rbp),%edx
   17537:	48 8d 35 5a 2c 00 00 	lea    0x2c5a(%rip),%rsi        # 1a198 <g_1879+0x2118>
   1753e:	48 89 c7             	mov    %rax,%rdi
   17541:	e8 ad 01 ff ff       	callq  76f3 <transparent_crc>
   17546:	8b 05 0c 76 00 00    	mov    0x760c(%rip),%eax        # 1eb58 <g_2505+0x8>
   1754c:	01 c0                	add    %eax,%eax
   1754e:	d1 f8                	sar    %eax
   17550:	48 98                	cltq   
   17552:	8b 55 fc             	mov    -0x4(%rbp),%edx
   17555:	48 8d 35 46 2c 00 00 	lea    0x2c46(%rip),%rsi        # 1a1a2 <g_1879+0x2122>
   1755c:	48 89 c7             	mov    %rax,%rdi
   1755f:	e8 8f 01 ff ff       	callq  76f3 <transparent_crc>
   17564:	8b 05 f2 75 00 00    	mov    0x75f2(%rip),%eax        # 1eb5c <g_2505+0xc>
   1756a:	c1 e0 0e             	shl    $0xe,%eax
   1756d:	c1 f8 0e             	sar    $0xe,%eax
   17570:	48 98                	cltq   
   17572:	8b 55 fc             	mov    -0x4(%rbp),%edx
   17575:	48 8d 35 30 2c 00 00 	lea    0x2c30(%rip),%rsi        # 1a1ac <g_1879+0x212c>
   1757c:	48 89 c7             	mov    %rax,%rdi
   1757f:	e8 6f 01 ff ff       	callq  76f3 <transparent_crc>
   17584:	0f b6 05 d3 75 00 00 	movzbl 0x75d3(%rip),%eax        # 1eb5e <g_2505+0xe>
   1758b:	c0 e8 02             	shr    $0x2,%al
   1758e:	83 e0 01             	and    $0x1,%eax
   17591:	0f b6 c0             	movzbl %al,%eax
   17594:	8b 55 fc             	mov    -0x4(%rbp),%edx
   17597:	48 8d 35 18 2c 00 00 	lea    0x2c18(%rip),%rsi        # 1a1b6 <g_1879+0x2136>
   1759e:	48 89 c7             	mov    %rax,%rdi
   175a1:	e8 4d 01 ff ff       	callq  76f3 <transparent_crc>
   175a6:	8b 05 b4 75 00 00    	mov    0x75b4(%rip),%eax        # 1eb60 <g_2505+0x10>
   175ac:	c1 e0 05             	shl    $0x5,%eax
   175af:	c1 f8 05             	sar    $0x5,%eax
   175b2:	48 98                	cltq   
   175b4:	8b 55 fc             	mov    -0x4(%rbp),%edx
   175b7:	48 8d 35 02 2c 00 00 	lea    0x2c02(%rip),%rsi        # 1a1c0 <g_1879+0x2140>
   175be:	48 89 c7             	mov    %rax,%rdi
   175c1:	e8 2d 01 ff ff       	callq  76f3 <transparent_crc>
   175c6:	0f b7 05 a3 75 00 00 	movzwl 0x75a3(%rip),%eax        # 1eb70 <g_2534>
   175cd:	c1 e0 04             	shl    $0x4,%eax
   175d0:	66 c1 f8 04          	sar    $0x4,%ax
   175d4:	48 0f bf c0          	movswq %ax,%rax
   175d8:	8b 55 fc             	mov    -0x4(%rbp),%edx
   175db:	48 8d 35 e8 2b 00 00 	lea    0x2be8(%rip),%rsi        # 1a1ca <g_1879+0x214a>
   175e2:	48 89 c7             	mov    %rax,%rdi
   175e5:	e8 09 01 ff ff       	callq  76f3 <transparent_crc>
   175ea:	48 8b 05 7f 75 00 00 	mov    0x757f(%rip),%rax        # 1eb70 <g_2534>
   175f1:	48 c1 e8 0c          	shr    $0xc,%rax
   175f5:	25 ff ff 01 00       	and    $0x1ffff,%eax
   175fa:	89 c1                	mov    %eax,%ecx
   175fc:	8b 45 fc             	mov    -0x4(%rbp),%eax
   175ff:	89 c2                	mov    %eax,%edx
   17601:	48 8d 35 cc 2b 00 00 	lea    0x2bcc(%rip),%rsi        # 1a1d4 <g_1879+0x2154>
   17608:	48 89 cf             	mov    %rcx,%rdi
   1760b:	e8 e3 00 ff ff       	callq  76f3 <transparent_crc>
   17610:	48 8b 05 59 75 00 00 	mov    0x7559(%rip),%rax        # 1eb70 <g_2534>
   17617:	48 c1 e8 20          	shr    $0x20,%rax
   1761b:	66 25 ff 7f          	and    $0x7fff,%ax
   1761f:	0f b7 c0             	movzwl %ax,%eax
   17622:	8b 55 fc             	mov    -0x4(%rbp),%edx
   17625:	48 8d 35 b2 2b 00 00 	lea    0x2bb2(%rip),%rsi        # 1a1de <g_1879+0x215e>
   1762c:	48 89 c7             	mov    %rax,%rdi
   1762f:	e8 bf 00 ff ff       	callq  76f3 <transparent_crc>
   17634:	8b 05 3e 75 00 00    	mov    0x753e(%rip),%eax        # 1eb78 <g_2534+0x8>
   1763a:	01 c0                	add    %eax,%eax
   1763c:	d1 f8                	sar    %eax
   1763e:	48 98                	cltq   
   17640:	8b 55 fc             	mov    -0x4(%rbp),%edx
   17643:	48 8d 35 9e 2b 00 00 	lea    0x2b9e(%rip),%rsi        # 1a1e8 <g_1879+0x2168>
   1764a:	48 89 c7             	mov    %rax,%rdi
   1764d:	e8 a1 00 ff ff       	callq  76f3 <transparent_crc>
   17652:	8b 05 24 75 00 00    	mov    0x7524(%rip),%eax        # 1eb7c <g_2534+0xc>
   17658:	c1 e0 0e             	shl    $0xe,%eax
   1765b:	c1 f8 0e             	sar    $0xe,%eax
   1765e:	48 98                	cltq   
   17660:	8b 55 fc             	mov    -0x4(%rbp),%edx
   17663:	48 8d 35 88 2b 00 00 	lea    0x2b88(%rip),%rsi        # 1a1f2 <g_1879+0x2172>
   1766a:	48 89 c7             	mov    %rax,%rdi
   1766d:	e8 81 00 ff ff       	callq  76f3 <transparent_crc>
   17672:	0f b6 05 05 75 00 00 	movzbl 0x7505(%rip),%eax        # 1eb7e <g_2534+0xe>
   17679:	c0 e8 02             	shr    $0x2,%al
   1767c:	83 e0 01             	and    $0x1,%eax
   1767f:	0f b6 c0             	movzbl %al,%eax
   17682:	8b 55 fc             	mov    -0x4(%rbp),%edx
   17685:	48 8d 35 70 2b 00 00 	lea    0x2b70(%rip),%rsi        # 1a1fc <g_1879+0x217c>
   1768c:	48 89 c7             	mov    %rax,%rdi
   1768f:	e8 5f 00 ff ff       	callq  76f3 <transparent_crc>
   17694:	8b 05 e6 74 00 00    	mov    0x74e6(%rip),%eax        # 1eb80 <g_2534+0x10>
   1769a:	c1 e0 05             	shl    $0x5,%eax
   1769d:	c1 f8 05             	sar    $0x5,%eax
   176a0:	48 98                	cltq   
   176a2:	8b 55 fc             	mov    -0x4(%rbp),%edx
   176a5:	48 8d 35 5a 2b 00 00 	lea    0x2b5a(%rip),%rsi        # 1a206 <g_1879+0x2186>
   176ac:	48 89 c7             	mov    %rax,%rdi
   176af:	e8 3f 00 ff ff       	callq  76f3 <transparent_crc>
   176b4:	0f b7 05 cd 74 00 00 	movzwl 0x74cd(%rip),%eax        # 1eb88 <g_2547>
   176bb:	0f b7 c0             	movzwl %ax,%eax
   176be:	8b 55 fc             	mov    -0x4(%rbp),%edx
   176c1:	48 8d 35 48 2b 00 00 	lea    0x2b48(%rip),%rsi        # 1a210 <g_1879+0x2190>
   176c8:	48 89 c7             	mov    %rax,%rdi
   176cb:	e8 23 00 ff ff       	callq  76f3 <transparent_crc>
   176d0:	0f b6 05 b9 74 00 00 	movzbl 0x74b9(%rip),%eax        # 1eb90 <g_2561>
   176d7:	48 0f be c0          	movsbq %al,%rax
   176db:	8b 55 fc             	mov    -0x4(%rbp),%edx
   176de:	48 8d 35 35 2b 00 00 	lea    0x2b35(%rip),%rsi        # 1a21a <g_1879+0x219a>
   176e5:	48 89 c7             	mov    %rax,%rdi
   176e8:	e8 06 00 ff ff       	callq  76f3 <transparent_crc>
   176ed:	c7 45 f0 00 00 00 00 	movl   $0x0,-0x10(%rbp)
   176f4:	eb 4d                	jmp    17743 <main+0x2b2f>
   176f6:	8b 45 f0             	mov    -0x10(%rbp),%eax
   176f9:	48 98                	cltq   
   176fb:	48 8d 14 c5 00 00 00 	lea    0x0(,%rax,8),%rdx
   17702:	00 
   17703:	48 8d 05 96 74 00 00 	lea    0x7496(%rip),%rax        # 1eba0 <g_2593>
   1770a:	0f b7 04 02          	movzwl (%rdx,%rax,1),%eax
   1770e:	0f b7 c0             	movzwl %ax,%eax
   17711:	8b 55 fc             	mov    -0x4(%rbp),%edx
   17714:	48 8d 35 06 2b 00 00 	lea    0x2b06(%rip),%rsi        # 1a221 <g_1879+0x21a1>
   1771b:	48 89 c7             	mov    %rax,%rdi
   1771e:	e8 d0 ff fe ff       	callq  76f3 <transparent_crc>
   17723:	83 7d fc 00          	cmpl   $0x0,-0x4(%rbp)
   17727:	74 16                	je     1773f <main+0x2b2b>
   17729:	8b 45 f0             	mov    -0x10(%rbp),%eax
   1772c:	89 c6                	mov    %eax,%esi
   1772e:	48 8d 3d f4 20 00 00 	lea    0x20f4(%rip),%rdi        # 19829 <g_1879+0x17a9>
   17735:	b8 00 00 00 00       	mov    $0x0,%eax
   1773a:	e8 41 e9 fe ff       	callq  6080 <printf@plt>
   1773f:	83 45 f0 01          	addl   $0x1,-0x10(%rbp)
   17743:	83 7d f0 06          	cmpl   $0x6,-0x10(%rbp)
   17747:	7e ad                	jle    176f6 <main+0x2ae2>
   17749:	0f b7 05 90 74 00 00 	movzwl 0x7490(%rip),%eax        # 1ebe0 <g_2627>
   17750:	c1 e0 04             	shl    $0x4,%eax
   17753:	66 c1 f8 04          	sar    $0x4,%ax
   17757:	48 0f bf c0          	movswq %ax,%rax
   1775b:	8b 55 fc             	mov    -0x4(%rbp),%edx
   1775e:	48 8d 35 c9 2a 00 00 	lea    0x2ac9(%rip),%rsi        # 1a22e <g_1879+0x21ae>
   17765:	48 89 c7             	mov    %rax,%rdi
   17768:	e8 86 ff fe ff       	callq  76f3 <transparent_crc>
   1776d:	48 8b 05 6c 74 00 00 	mov    0x746c(%rip),%rax        # 1ebe0 <g_2627>
   17774:	48 c1 e8 0c          	shr    $0xc,%rax
   17778:	25 ff ff 01 00       	and    $0x1ffff,%eax
   1777d:	89 c1                	mov    %eax,%ecx
   1777f:	8b 45 fc             	mov    -0x4(%rbp),%eax
   17782:	89 c2                	mov    %eax,%edx
   17784:	48 8d 35 ad 2a 00 00 	lea    0x2aad(%rip),%rsi        # 1a238 <g_1879+0x21b8>
   1778b:	48 89 cf             	mov    %rcx,%rdi
   1778e:	e8 60 ff fe ff       	callq  76f3 <transparent_crc>
   17793:	48 8b 05 46 74 00 00 	mov    0x7446(%rip),%rax        # 1ebe0 <g_2627>
   1779a:	48 c1 e8 20          	shr    $0x20,%rax
   1779e:	66 25 ff 7f          	and    $0x7fff,%ax
   177a2:	0f b7 c0             	movzwl %ax,%eax
   177a5:	8b 55 fc             	mov    -0x4(%rbp),%edx
   177a8:	48 8d 35 93 2a 00 00 	lea    0x2a93(%rip),%rsi        # 1a242 <g_1879+0x21c2>
   177af:	48 89 c7             	mov    %rax,%rdi
   177b2:	e8 3c ff fe ff       	callq  76f3 <transparent_crc>
   177b7:	8b 05 2b 74 00 00    	mov    0x742b(%rip),%eax        # 1ebe8 <g_2627+0x8>
   177bd:	01 c0                	add    %eax,%eax
   177bf:	d1 f8                	sar    %eax
   177c1:	48 98                	cltq   
   177c3:	8b 55 fc             	mov    -0x4(%rbp),%edx
   177c6:	48 8d 35 7f 2a 00 00 	lea    0x2a7f(%rip),%rsi        # 1a24c <g_1879+0x21cc>
   177cd:	48 89 c7             	mov    %rax,%rdi
   177d0:	e8 1e ff fe ff       	callq  76f3 <transparent_crc>
   177d5:	8b 05 11 74 00 00    	mov    0x7411(%rip),%eax        # 1ebec <g_2627+0xc>
   177db:	c1 e0 0e             	shl    $0xe,%eax
   177de:	c1 f8 0e             	sar    $0xe,%eax
   177e1:	48 98                	cltq   
   177e3:	8b 55 fc             	mov    -0x4(%rbp),%edx
   177e6:	48 8d 35 69 2a 00 00 	lea    0x2a69(%rip),%rsi        # 1a256 <g_1879+0x21d6>
   177ed:	48 89 c7             	mov    %rax,%rdi
   177f0:	e8 fe fe fe ff       	callq  76f3 <transparent_crc>
   177f5:	0f b6 05 f2 73 00 00 	movzbl 0x73f2(%rip),%eax        # 1ebee <g_2627+0xe>
   177fc:	c0 e8 02             	shr    $0x2,%al
   177ff:	83 e0 01             	and    $0x1,%eax
   17802:	0f b6 c0             	movzbl %al,%eax
   17805:	8b 55 fc             	mov    -0x4(%rbp),%edx
   17808:	48 8d 35 51 2a 00 00 	lea    0x2a51(%rip),%rsi        # 1a260 <g_1879+0x21e0>
   1780f:	48 89 c7             	mov    %rax,%rdi
   17812:	e8 dc fe fe ff       	callq  76f3 <transparent_crc>
   17817:	8b 05 d3 73 00 00    	mov    0x73d3(%rip),%eax        # 1ebf0 <g_2627+0x10>
   1781d:	c1 e0 05             	shl    $0x5,%eax
   17820:	c1 f8 05             	sar    $0x5,%eax
   17823:	48 98                	cltq   
   17825:	8b 55 fc             	mov    -0x4(%rbp),%edx
   17828:	48 8d 35 3b 2a 00 00 	lea    0x2a3b(%rip),%rsi        # 1a26a <g_1879+0x21ea>
   1782f:	48 89 c7             	mov    %rax,%rdi
   17832:	e8 bc fe fe ff       	callq  76f3 <transparent_crc>
   17837:	c7 45 f0 00 00 00 00 	movl   $0x0,-0x10(%rbp)
   1783e:	eb 4d                	jmp    1788d <main+0x2c79>
   17840:	8b 45 f0             	mov    -0x10(%rbp),%eax
   17843:	48 98                	cltq   
   17845:	48 8d 14 85 00 00 00 	lea    0x0(,%rax,4),%rdx
   1784c:	00 
   1784d:	48 8d 05 ac 73 00 00 	lea    0x73ac(%rip),%rax        # 1ec00 <g_2638>
   17854:	8b 04 02             	mov    (%rdx,%rax,1),%eax
   17857:	89 c1                	mov    %eax,%ecx
   17859:	8b 45 fc             	mov    -0x4(%rbp),%eax
   1785c:	89 c2                	mov    %eax,%edx
   1785e:	48 8d 35 0f 2a 00 00 	lea    0x2a0f(%rip),%rsi        # 1a274 <g_1879+0x21f4>
   17865:	48 89 cf             	mov    %rcx,%rdi
   17868:	e8 86 fe fe ff       	callq  76f3 <transparent_crc>
   1786d:	83 7d fc 00          	cmpl   $0x0,-0x4(%rbp)
   17871:	74 16                	je     17889 <main+0x2c75>
   17873:	8b 45 f0             	mov    -0x10(%rbp),%eax
   17876:	89 c6                	mov    %eax,%esi
   17878:	48 8d 3d aa 1f 00 00 	lea    0x1faa(%rip),%rdi        # 19829 <g_1879+0x17a9>
   1787f:	b8 00 00 00 00       	mov    $0x0,%eax
   17884:	e8 f7 e7 fe ff       	callq  6080 <printf@plt>
   17889:	83 45 f0 01          	addl   $0x1,-0x10(%rbp)
   1788d:	83 7d f0 09          	cmpl   $0x9,-0x10(%rbp)
   17891:	7e ad                	jle    17840 <main+0x2c2c>
   17893:	0f b7 05 8e 73 00 00 	movzwl 0x738e(%rip),%eax        # 1ec28 <g_2704>
   1789a:	48 0f bf c0          	movswq %ax,%rax
   1789e:	8b 55 fc             	mov    -0x4(%rbp),%edx
   178a1:	48 8d 35 d6 29 00 00 	lea    0x29d6(%rip),%rsi        # 1a27e <g_1879+0x21fe>
   178a8:	48 89 c7             	mov    %rax,%rdi
   178ab:	e8 43 fe fe ff       	callq  76f3 <transparent_crc>
   178b0:	48 8b 05 79 73 00 00 	mov    0x7379(%rip),%rax        # 1ec30 <g_2705>
   178b7:	48 89 c1             	mov    %rax,%rcx
   178ba:	8b 45 fc             	mov    -0x4(%rbp),%eax
   178bd:	89 c2                	mov    %eax,%edx
   178bf:	48 8d 35 bf 29 00 00 	lea    0x29bf(%rip),%rsi        # 1a285 <g_1879+0x2205>
   178c6:	48 89 cf             	mov    %rcx,%rdi
   178c9:	e8 25 fe fe ff       	callq  76f3 <transparent_crc>
   178ce:	0f b7 05 6b 73 00 00 	movzwl 0x736b(%rip),%eax        # 1ec40 <g_2753>
   178d5:	c1 e0 04             	shl    $0x4,%eax
   178d8:	66 c1 f8 04          	sar    $0x4,%ax
   178dc:	48 0f bf c0          	movswq %ax,%rax
   178e0:	8b 55 fc             	mov    -0x4(%rbp),%edx
   178e3:	48 8d 35 a2 29 00 00 	lea    0x29a2(%rip),%rsi        # 1a28c <g_1879+0x220c>
   178ea:	48 89 c7             	mov    %rax,%rdi
   178ed:	e8 01 fe fe ff       	callq  76f3 <transparent_crc>
   178f2:	48 8b 05 47 73 00 00 	mov    0x7347(%rip),%rax        # 1ec40 <g_2753>
   178f9:	48 c1 e8 0c          	shr    $0xc,%rax
   178fd:	25 ff ff 01 00       	and    $0x1ffff,%eax
   17902:	89 c1                	mov    %eax,%ecx
   17904:	8b 45 fc             	mov    -0x4(%rbp),%eax
   17907:	89 c2                	mov    %eax,%edx
   17909:	48 8d 35 86 29 00 00 	lea    0x2986(%rip),%rsi        # 1a296 <g_1879+0x2216>
   17910:	48 89 cf             	mov    %rcx,%rdi
   17913:	e8 db fd fe ff       	callq  76f3 <transparent_crc>
   17918:	48 8b 05 21 73 00 00 	mov    0x7321(%rip),%rax        # 1ec40 <g_2753>
   1791f:	48 c1 e8 20          	shr    $0x20,%rax
   17923:	66 25 ff 7f          	and    $0x7fff,%ax
   17927:	0f b7 c0             	movzwl %ax,%eax
   1792a:	8b 55 fc             	mov    -0x4(%rbp),%edx
   1792d:	48 8d 35 6c 29 00 00 	lea    0x296c(%rip),%rsi        # 1a2a0 <g_1879+0x2220>
   17934:	48 89 c7             	mov    %rax,%rdi
   17937:	e8 b7 fd fe ff       	callq  76f3 <transparent_crc>
   1793c:	8b 05 06 73 00 00    	mov    0x7306(%rip),%eax        # 1ec48 <g_2753+0x8>
   17942:	01 c0                	add    %eax,%eax
   17944:	d1 f8                	sar    %eax
   17946:	48 98                	cltq   
   17948:	8b 55 fc             	mov    -0x4(%rbp),%edx
   1794b:	48 8d 35 58 29 00 00 	lea    0x2958(%rip),%rsi        # 1a2aa <g_1879+0x222a>
   17952:	48 89 c7             	mov    %rax,%rdi
   17955:	e8 99 fd fe ff       	callq  76f3 <transparent_crc>
   1795a:	8b 05 ec 72 00 00    	mov    0x72ec(%rip),%eax        # 1ec4c <g_2753+0xc>
   17960:	c1 e0 0e             	shl    $0xe,%eax
   17963:	c1 f8 0e             	sar    $0xe,%eax
   17966:	48 98                	cltq   
   17968:	8b 55 fc             	mov    -0x4(%rbp),%edx
   1796b:	48 8d 35 42 29 00 00 	lea    0x2942(%rip),%rsi        # 1a2b4 <g_1879+0x2234>
   17972:	48 89 c7             	mov    %rax,%rdi
   17975:	e8 79 fd fe ff       	callq  76f3 <transparent_crc>
   1797a:	0f b6 05 cd 72 00 00 	movzbl 0x72cd(%rip),%eax        # 1ec4e <g_2753+0xe>
   17981:	c0 e8 02             	shr    $0x2,%al
   17984:	83 e0 01             	and    $0x1,%eax
   17987:	0f b6 c0             	movzbl %al,%eax
   1798a:	8b 55 fc             	mov    -0x4(%rbp),%edx
   1798d:	48 8d 35 2a 29 00 00 	lea    0x292a(%rip),%rsi        # 1a2be <g_1879+0x223e>
   17994:	48 89 c7             	mov    %rax,%rdi
   17997:	e8 57 fd fe ff       	callq  76f3 <transparent_crc>
   1799c:	8b 05 ae 72 00 00    	mov    0x72ae(%rip),%eax        # 1ec50 <g_2753+0x10>
   179a2:	c1 e0 05             	shl    $0x5,%eax
   179a5:	c1 f8 05             	sar    $0x5,%eax
   179a8:	48 98                	cltq   
   179aa:	8b 55 fc             	mov    -0x4(%rbp),%edx
   179ad:	48 8d 35 14 29 00 00 	lea    0x2914(%rip),%rsi        # 1a2c8 <g_1879+0x2248>
   179b4:	48 89 c7             	mov    %rax,%rdi
   179b7:	e8 37 fd fe ff       	callq  76f3 <transparent_crc>
   179bc:	8b 05 92 72 00 00    	mov    0x7292(%rip),%eax        # 1ec54 <g_2754>
   179c2:	48 98                	cltq   
   179c4:	8b 55 fc             	mov    -0x4(%rbp),%edx
   179c7:	48 8d 35 04 29 00 00 	lea    0x2904(%rip),%rsi        # 1a2d2 <g_1879+0x2252>
   179ce:	48 89 c7             	mov    %rax,%rdi
   179d1:	e8 1d fd fe ff       	callq  76f3 <transparent_crc>
   179d6:	48 8b 05 83 72 00 00 	mov    0x7283(%rip),%rax        # 1ec60 <g_2814>
   179dd:	c1 e0 04             	shl    $0x4,%eax
   179e0:	66 c1 f8 04          	sar    $0x4,%ax
   179e4:	48 0f bf c0          	movswq %ax,%rax
   179e8:	8b 55 fc             	mov    -0x4(%rbp),%edx
   179eb:	48 8d 35 e7 28 00 00 	lea    0x28e7(%rip),%rsi        # 1a2d9 <g_1879+0x2259>
   179f2:	48 89 c7             	mov    %rax,%rdi
   179f5:	e8 f9 fc fe ff       	callq  76f3 <transparent_crc>
   179fa:	48 8b 05 5f 72 00 00 	mov    0x725f(%rip),%rax        # 1ec60 <g_2814>
   17a01:	48 c1 e8 0c          	shr    $0xc,%rax
   17a05:	25 ff ff 01 00       	and    $0x1ffff,%eax
   17a0a:	89 c1                	mov    %eax,%ecx
   17a0c:	8b 45 fc             	mov    -0x4(%rbp),%eax
   17a0f:	89 c2                	mov    %eax,%edx
   17a11:	48 8d 35 cb 28 00 00 	lea    0x28cb(%rip),%rsi        # 1a2e3 <g_1879+0x2263>
   17a18:	48 89 cf             	mov    %rcx,%rdi
   17a1b:	e8 d3 fc fe ff       	callq  76f3 <transparent_crc>
   17a20:	48 8b 05 39 72 00 00 	mov    0x7239(%rip),%rax        # 1ec60 <g_2814>
   17a27:	48 c1 e8 20          	shr    $0x20,%rax
   17a2b:	66 25 ff 7f          	and    $0x7fff,%ax
   17a2f:	0f b7 c0             	movzwl %ax,%eax
   17a32:	8b 55 fc             	mov    -0x4(%rbp),%edx
   17a35:	48 8d 35 b1 28 00 00 	lea    0x28b1(%rip),%rsi        # 1a2ed <g_1879+0x226d>
   17a3c:	48 89 c7             	mov    %rax,%rdi
   17a3f:	e8 af fc fe ff       	callq  76f3 <transparent_crc>
   17a44:	48 8b 05 1d 72 00 00 	mov    0x721d(%rip),%rax        # 1ec68 <g_2814+0x8>
   17a4b:	01 c0                	add    %eax,%eax
   17a4d:	d1 f8                	sar    %eax
   17a4f:	48 98                	cltq   
   17a51:	8b 55 fc             	mov    -0x4(%rbp),%edx
   17a54:	48 8d 35 9c 28 00 00 	lea    0x289c(%rip),%rsi        # 1a2f7 <g_1879+0x2277>
   17a5b:	48 89 c7             	mov    %rax,%rdi
   17a5e:	e8 90 fc fe ff       	callq  76f3 <transparent_crc>
   17a63:	48 8b 05 fe 71 00 00 	mov    0x71fe(%rip),%rax        # 1ec68 <g_2814+0x8>
   17a6a:	48 c1 e0 0e          	shl    $0xe,%rax
   17a6e:	48 c1 f8 2e          	sar    $0x2e,%rax
   17a72:	48 98                	cltq   
   17a74:	8b 55 fc             	mov    -0x4(%rbp),%edx
   17a77:	48 8d 35 83 28 00 00 	lea    0x2883(%rip),%rsi        # 1a301 <g_1879+0x2281>
   17a7e:	48 89 c7             	mov    %rax,%rdi
   17a81:	e8 6d fc fe ff       	callq  76f3 <transparent_crc>
   17a86:	48 8b 05 db 71 00 00 	mov    0x71db(%rip),%rax        # 1ec68 <g_2814+0x8>
   17a8d:	48 c1 e8 32          	shr    $0x32,%rax
   17a91:	83 e0 01             	and    $0x1,%eax
   17a94:	0f b6 c0             	movzbl %al,%eax
   17a97:	8b 55 fc             	mov    -0x4(%rbp),%edx
   17a9a:	48 8d 35 6a 28 00 00 	lea    0x286a(%rip),%rsi        # 1a30b <g_1879+0x228b>
   17aa1:	48 89 c7             	mov    %rax,%rdi
   17aa4:	e8 4a fc fe ff       	callq  76f3 <transparent_crc>
   17aa9:	48 8b 05 c0 71 00 00 	mov    0x71c0(%rip),%rax        # 1ec70 <g_2814+0x10>
   17ab0:	c1 e0 05             	shl    $0x5,%eax
   17ab3:	c1 f8 05             	sar    $0x5,%eax
   17ab6:	48 98                	cltq   
   17ab8:	8b 55 fc             	mov    -0x4(%rbp),%edx
   17abb:	48 8d 35 53 28 00 00 	lea    0x2853(%rip),%rsi        # 1a315 <g_1879+0x2295>
   17ac2:	48 89 c7             	mov    %rax,%rdi
   17ac5:	e8 29 fc fe ff       	callq  76f3 <transparent_crc>
   17aca:	0f b7 05 2f 9d 00 00 	movzwl 0x9d2f(%rip),%eax        # 21800 <g_2980>
   17ad1:	0f b7 c0             	movzwl %ax,%eax
   17ad4:	8b 55 fc             	mov    -0x4(%rbp),%edx
   17ad7:	48 8d 35 41 28 00 00 	lea    0x2841(%rip),%rsi        # 1a31f <g_1879+0x229f>
   17ade:	48 89 c7             	mov    %rax,%rdi
   17ae1:	e8 0d fc fe ff       	callq  76f3 <transparent_crc>
   17ae6:	c7 45 f0 00 00 00 00 	movl   $0x0,-0x10(%rbp)
   17aed:	eb 4d                	jmp    17b3c <main+0x2f28>
   17aef:	8b 45 f0             	mov    -0x10(%rbp),%eax
   17af2:	48 98                	cltq   
   17af4:	48 8d 14 c5 00 00 00 	lea    0x0(,%rax,8),%rdx
   17afb:	00 
   17afc:	48 8d 05 7d 71 00 00 	lea    0x717d(%rip),%rax        # 1ec80 <g_3015>
   17b03:	0f b7 04 02          	movzwl (%rdx,%rax,1),%eax
   17b07:	0f b7 c0             	movzwl %ax,%eax
   17b0a:	8b 55 fc             	mov    -0x4(%rbp),%edx
   17b0d:	48 8d 35 15 28 00 00 	lea    0x2815(%rip),%rsi        # 1a329 <g_1879+0x22a9>
   17b14:	48 89 c7             	mov    %rax,%rdi
   17b17:	e8 d7 fb fe ff       	callq  76f3 <transparent_crc>
   17b1c:	83 7d fc 00          	cmpl   $0x0,-0x4(%rbp)
   17b20:	74 16                	je     17b38 <main+0x2f24>
   17b22:	8b 45 f0             	mov    -0x10(%rbp),%eax
   17b25:	89 c6                	mov    %eax,%esi
   17b27:	48 8d 3d fb 1c 00 00 	lea    0x1cfb(%rip),%rdi        # 19829 <g_1879+0x17a9>
   17b2e:	b8 00 00 00 00       	mov    $0x0,%eax
   17b33:	e8 48 e5 fe ff       	callq  6080 <printf@plt>
   17b38:	83 45 f0 01          	addl   $0x1,-0x10(%rbp)
   17b3c:	83 7d f0 01          	cmpl   $0x1,-0x10(%rbp)
   17b40:	7e ad                	jle    17aef <main+0x2edb>
   17b42:	0f b7 05 47 71 00 00 	movzwl 0x7147(%rip),%eax        # 1ec90 <g_3081>
   17b49:	c1 e0 04             	shl    $0x4,%eax
   17b4c:	66 c1 f8 04          	sar    $0x4,%ax
   17b50:	48 0f bf c0          	movswq %ax,%rax
   17b54:	8b 55 fc             	mov    -0x4(%rbp),%edx
   17b57:	48 8d 35 d8 27 00 00 	lea    0x27d8(%rip),%rsi        # 1a336 <g_1879+0x22b6>
   17b5e:	48 89 c7             	mov    %rax,%rdi
   17b61:	e8 8d fb fe ff       	callq  76f3 <transparent_crc>
   17b66:	48 8b 05 23 71 00 00 	mov    0x7123(%rip),%rax        # 1ec90 <g_3081>
   17b6d:	48 c1 e8 0c          	shr    $0xc,%rax
   17b71:	25 ff ff 01 00       	and    $0x1ffff,%eax
   17b76:	89 c1                	mov    %eax,%ecx
   17b78:	8b 45 fc             	mov    -0x4(%rbp),%eax
   17b7b:	89 c2                	mov    %eax,%edx
   17b7d:	48 8d 35 bc 27 00 00 	lea    0x27bc(%rip),%rsi        # 1a340 <g_1879+0x22c0>
   17b84:	48 89 cf             	mov    %rcx,%rdi
   17b87:	e8 67 fb fe ff       	callq  76f3 <transparent_crc>
   17b8c:	48 8b 05 fd 70 00 00 	mov    0x70fd(%rip),%rax        # 1ec90 <g_3081>
   17b93:	48 c1 e8 20          	shr    $0x20,%rax
   17b97:	66 25 ff 7f          	and    $0x7fff,%ax
   17b9b:	0f b7 c0             	movzwl %ax,%eax
   17b9e:	8b 55 fc             	mov    -0x4(%rbp),%edx
   17ba1:	48 8d 35 a2 27 00 00 	lea    0x27a2(%rip),%rsi        # 1a34a <g_1879+0x22ca>
   17ba8:	48 89 c7             	mov    %rax,%rdi
   17bab:	e8 43 fb fe ff       	callq  76f3 <transparent_crc>
   17bb0:	8b 05 e2 70 00 00    	mov    0x70e2(%rip),%eax        # 1ec98 <g_3081+0x8>
   17bb6:	01 c0                	add    %eax,%eax
   17bb8:	d1 f8                	sar    %eax
   17bba:	48 98                	cltq   
   17bbc:	8b 55 fc             	mov    -0x4(%rbp),%edx
   17bbf:	48 8d 35 8e 27 00 00 	lea    0x278e(%rip),%rsi        # 1a354 <g_1879+0x22d4>
   17bc6:	48 89 c7             	mov    %rax,%rdi
   17bc9:	e8 25 fb fe ff       	callq  76f3 <transparent_crc>
   17bce:	8b 05 c8 70 00 00    	mov    0x70c8(%rip),%eax        # 1ec9c <g_3081+0xc>
   17bd4:	c1 e0 0e             	shl    $0xe,%eax
   17bd7:	c1 f8 0e             	sar    $0xe,%eax
   17bda:	48 98                	cltq   
   17bdc:	8b 55 fc             	mov    -0x4(%rbp),%edx
   17bdf:	48 8d 35 78 27 00 00 	lea    0x2778(%rip),%rsi        # 1a35e <g_1879+0x22de>
   17be6:	48 89 c7             	mov    %rax,%rdi
   17be9:	e8 05 fb fe ff       	callq  76f3 <transparent_crc>
   17bee:	0f b6 05 a9 70 00 00 	movzbl 0x70a9(%rip),%eax        # 1ec9e <g_3081+0xe>
   17bf5:	c0 e8 02             	shr    $0x2,%al
   17bf8:	83 e0 01             	and    $0x1,%eax
   17bfb:	0f b6 c0             	movzbl %al,%eax
   17bfe:	8b 55 fc             	mov    -0x4(%rbp),%edx
   17c01:	48 8d 35 60 27 00 00 	lea    0x2760(%rip),%rsi        # 1a368 <g_1879+0x22e8>
   17c08:	48 89 c7             	mov    %rax,%rdi
   17c0b:	e8 e3 fa fe ff       	callq  76f3 <transparent_crc>
   17c10:	8b 05 8a 70 00 00    	mov    0x708a(%rip),%eax        # 1eca0 <g_3081+0x10>
   17c16:	c1 e0 05             	shl    $0x5,%eax
   17c19:	c1 f8 05             	sar    $0x5,%eax
   17c1c:	48 98                	cltq   
   17c1e:	8b 55 fc             	mov    -0x4(%rbp),%edx
   17c21:	48 8d 35 4a 27 00 00 	lea    0x274a(%rip),%rsi        # 1a372 <g_1879+0x22f2>
   17c28:	48 89 c7             	mov    %rax,%rdi
   17c2b:	e8 c3 fa fe ff       	callq  76f3 <transparent_crc>
   17c30:	0f b6 05 6d 70 00 00 	movzbl 0x706d(%rip),%eax        # 1eca4 <g_3136>
   17c37:	48 0f be c0          	movsbq %al,%rax
   17c3b:	8b 55 fc             	mov    -0x4(%rbp),%edx
   17c3e:	48 8d 35 37 27 00 00 	lea    0x2737(%rip),%rsi        # 1a37c <g_1879+0x22fc>
   17c45:	48 89 c7             	mov    %rax,%rdi
   17c48:	e8 a6 fa fe ff       	callq  76f3 <transparent_crc>
   17c4d:	0f b7 05 5c 70 00 00 	movzwl 0x705c(%rip),%eax        # 1ecb0 <g_3155>
   17c54:	c1 e0 04             	shl    $0x4,%eax
   17c57:	66 c1 f8 04          	sar    $0x4,%ax
   17c5b:	48 0f bf c0          	movswq %ax,%rax
   17c5f:	8b 55 fc             	mov    -0x4(%rbp),%edx
   17c62:	48 8d 35 1a 27 00 00 	lea    0x271a(%rip),%rsi        # 1a383 <g_1879+0x2303>
   17c69:	48 89 c7             	mov    %rax,%rdi
   17c6c:	e8 82 fa fe ff       	callq  76f3 <transparent_crc>
   17c71:	48 8b 05 38 70 00 00 	mov    0x7038(%rip),%rax        # 1ecb0 <g_3155>
   17c78:	48 c1 e8 0c          	shr    $0xc,%rax
   17c7c:	25 ff ff 01 00       	and    $0x1ffff,%eax
   17c81:	89 c1                	mov    %eax,%ecx
   17c83:	8b 45 fc             	mov    -0x4(%rbp),%eax
   17c86:	89 c2                	mov    %eax,%edx
   17c88:	48 8d 35 fe 26 00 00 	lea    0x26fe(%rip),%rsi        # 1a38d <g_1879+0x230d>
   17c8f:	48 89 cf             	mov    %rcx,%rdi
   17c92:	e8 5c fa fe ff       	callq  76f3 <transparent_crc>
   17c97:	48 8b 05 12 70 00 00 	mov    0x7012(%rip),%rax        # 1ecb0 <g_3155>
   17c9e:	48 c1 e8 20          	shr    $0x20,%rax
   17ca2:	66 25 ff 7f          	and    $0x7fff,%ax
   17ca6:	0f b7 c0             	movzwl %ax,%eax
   17ca9:	8b 55 fc             	mov    -0x4(%rbp),%edx
   17cac:	48 8d 35 e4 26 00 00 	lea    0x26e4(%rip),%rsi        # 1a397 <g_1879+0x2317>
   17cb3:	48 89 c7             	mov    %rax,%rdi
   17cb6:	e8 38 fa fe ff       	callq  76f3 <transparent_crc>
   17cbb:	8b 05 f7 6f 00 00    	mov    0x6ff7(%rip),%eax        # 1ecb8 <g_3155+0x8>
   17cc1:	01 c0                	add    %eax,%eax
   17cc3:	d1 f8                	sar    %eax
   17cc5:	48 98                	cltq   
   17cc7:	8b 55 fc             	mov    -0x4(%rbp),%edx
   17cca:	48 8d 35 d0 26 00 00 	lea    0x26d0(%rip),%rsi        # 1a3a1 <g_1879+0x2321>
   17cd1:	48 89 c7             	mov    %rax,%rdi
   17cd4:	e8 1a fa fe ff       	callq  76f3 <transparent_crc>
   17cd9:	8b 05 dd 6f 00 00    	mov    0x6fdd(%rip),%eax        # 1ecbc <g_3155+0xc>
   17cdf:	c1 e0 0e             	shl    $0xe,%eax
   17ce2:	c1 f8 0e             	sar    $0xe,%eax
   17ce5:	48 98                	cltq   
   17ce7:	8b 55 fc             	mov    -0x4(%rbp),%edx
   17cea:	48 8d 35 ba 26 00 00 	lea    0x26ba(%rip),%rsi        # 1a3ab <g_1879+0x232b>
   17cf1:	48 89 c7             	mov    %rax,%rdi
   17cf4:	e8 fa f9 fe ff       	callq  76f3 <transparent_crc>
   17cf9:	0f b6 05 be 6f 00 00 	movzbl 0x6fbe(%rip),%eax        # 1ecbe <g_3155+0xe>
   17d00:	c0 e8 02             	shr    $0x2,%al
   17d03:	83 e0 01             	and    $0x1,%eax
   17d06:	0f b6 c0             	movzbl %al,%eax
   17d09:	8b 55 fc             	mov    -0x4(%rbp),%edx
   17d0c:	48 8d 35 a2 26 00 00 	lea    0x26a2(%rip),%rsi        # 1a3b5 <g_1879+0x2335>
   17d13:	48 89 c7             	mov    %rax,%rdi
   17d16:	e8 d8 f9 fe ff       	callq  76f3 <transparent_crc>
   17d1b:	8b 05 9f 6f 00 00    	mov    0x6f9f(%rip),%eax        # 1ecc0 <g_3155+0x10>
   17d21:	c1 e0 05             	shl    $0x5,%eax
   17d24:	c1 f8 05             	sar    $0x5,%eax
   17d27:	48 98                	cltq   
   17d29:	8b 55 fc             	mov    -0x4(%rbp),%edx
   17d2c:	48 8d 35 8c 26 00 00 	lea    0x268c(%rip),%rsi        # 1a3bf <g_1879+0x233f>
   17d33:	48 89 c7             	mov    %rax,%rdi
   17d36:	e8 b8 f9 fe ff       	callq  76f3 <transparent_crc>
   17d3b:	8b 05 c7 9a 00 00    	mov    0x9ac7(%rip),%eax        # 21808 <g_3239>
   17d41:	48 98                	cltq   
   17d43:	8b 55 fc             	mov    -0x4(%rbp),%edx
   17d46:	48 8d 35 7c 26 00 00 	lea    0x267c(%rip),%rsi        # 1a3c9 <g_1879+0x2349>
   17d4d:	48 89 c7             	mov    %rax,%rdi
   17d50:	e8 9e f9 fe ff       	callq  76f3 <transparent_crc>
   17d55:	48 8b 05 6c 6f 00 00 	mov    0x6f6c(%rip),%rax        # 1ecc8 <g_3242>
   17d5c:	8b 55 fc             	mov    -0x4(%rbp),%edx
   17d5f:	48 8d 35 6a 26 00 00 	lea    0x266a(%rip),%rsi        # 1a3d0 <g_1879+0x2350>
   17d66:	48 89 c7             	mov    %rax,%rdi
   17d69:	e8 85 f9 fe ff       	callq  76f3 <transparent_crc>
   17d6e:	8b 05 ac 52 00 00    	mov    0x52ac(%rip),%eax        # 1d020 <crc32_context>
   17d74:	f7 d0                	not    %eax
   17d76:	89 c2                	mov    %eax,%edx
   17d78:	8b 45 fc             	mov    -0x4(%rbp),%eax
   17d7b:	89 c6                	mov    %eax,%esi
   17d7d:	89 d7                	mov    %edx,%edi
   17d7f:	e8 10 e4 fe ff       	callq  6194 <platform_main_end>
   17d84:	b8 00 00 00 00       	mov    $0x0,%eax
   17d89:	c9                   	leaveq 
   17d8a:	c3                   	retq   
   17d8b:	0f 1f 44 00 00       	nopl   0x0(%rax,%rax,1)

0000000000017d90 <__libc_csu_init>:
   17d90:	f3 0f 1e fa          	endbr64 
   17d94:	41 57                	push   %r15
   17d96:	4c 8d 3d b3 4f 00 00 	lea    0x4fb3(%rip),%r15        # 1cd50 <__frame_dummy_init_array_entry>
   17d9d:	41 56                	push   %r14
   17d9f:	49 89 d6             	mov    %rdx,%r14
   17da2:	41 55                	push   %r13
   17da4:	49 89 f5             	mov    %rsi,%r13
   17da7:	41 54                	push   %r12
   17da9:	41 89 fc             	mov    %edi,%r12d
   17dac:	55                   	push   %rbp
   17dad:	48 8d 2d a4 4f 00 00 	lea    0x4fa4(%rip),%rbp        # 1cd58 <__do_global_dtors_aux_fini_array_entry>
   17db4:	53                   	push   %rbx
   17db5:	4c 29 fd             	sub    %r15,%rbp
   17db8:	48 83 ec 08          	sub    $0x8,%rsp
   17dbc:	e8 3f e2 fe ff       	callq  6000 <_init>
   17dc1:	48 c1 fd 03          	sar    $0x3,%rbp
   17dc5:	74 1f                	je     17de6 <__libc_csu_init+0x56>
   17dc7:	31 db                	xor    %ebx,%ebx
   17dc9:	0f 1f 80 00 00 00 00 	nopl   0x0(%rax)
   17dd0:	4c 89 f2             	mov    %r14,%rdx
   17dd3:	4c 89 ee             	mov    %r13,%rsi
   17dd6:	44 89 e7             	mov    %r12d,%edi
   17dd9:	41 ff 14 df          	callq  *(%r15,%rbx,8)
   17ddd:	48 83 c3 01          	add    $0x1,%rbx
   17de1:	48 39 dd             	cmp    %rbx,%rbp
   17de4:	75 ea                	jne    17dd0 <__libc_csu_init+0x40>
   17de6:	48 83 c4 08          	add    $0x8,%rsp
   17dea:	5b                   	pop    %rbx
   17deb:	5d                   	pop    %rbp
   17dec:	41 5c                	pop    %r12
   17dee:	41 5d                	pop    %r13
   17df0:	41 5e                	pop    %r14
   17df2:	41 5f                	pop    %r15
   17df4:	c3                   	retq   
   17df5:	66 66 2e 0f 1f 84 00 	data16 nopw %cs:0x0(%rax,%rax,1)
   17dfc:	00 00 00 00 

0000000000017e00 <__libc_csu_fini>:
   17e00:	f3 0f 1e fa          	endbr64 
   17e04:	c3                   	retq   
