


Disassembly of section .text:

00000000000090a0 <_start>:
    90a0:	f3 0f 1e fa          	endbr64 
    90a4:	31 ed                	xor    %ebp,%ebp
    90a6:	49 89 d1             	mov    %rdx,%r9
    90a9:	5e                   	pop    %rsi
    90aa:	48 89 e2             	mov    %rsp,%rdx
    90ad:	48 83 e4 f0          	and    $0xfffffffffffffff0,%rsp
    90b1:	50                   	push   %rax
    90b2:	54                   	push   %rsp
    90b3:	4c 8d 05 f6 47 01 00 	lea    0x147f6(%rip),%r8        # 1d8b0 <__libc_csu_fini>
    90ba:	48 8d 0d 7f 47 01 00 	lea    0x1477f(%rip),%rcx        # 1d840 <__libc_csu_init>
    90c1:	48 8d 3d 05 3c 01 00 	lea    0x13c05(%rip),%rdi        # 1cccd <main>
    90c8:	ff 15 fa 8e 01 00    	callq  *0x18efa(%rip)        # 21fc8 <__libc_start_main@GLIBC_2.2.5>
    90ce:	f4                   	hlt    
    90cf:	90                   	nop

00000000000090d0 <deregister_tm_clones>:
    90d0:	48 8d 3d 61 ca 01 00 	lea    0x1ca61(%rip),%rdi        # 25b38 <__TMC_END__>
    90d7:	48 8d 05 5a ca 01 00 	lea    0x1ca5a(%rip),%rax        # 25b38 <__TMC_END__>
    90de:	48 39 f8             	cmp    %rdi,%rax
    90e1:	74 15                	je     90f8 <deregister_tm_clones+0x28>
    90e3:	48 8b 05 d6 8e 01 00 	mov    0x18ed6(%rip),%rax        # 21fc0 <_ITM_deregisterTMCloneTable>
    90ea:	48 85 c0             	test   %rax,%rax
    90ed:	74 09                	je     90f8 <deregister_tm_clones+0x28>
    90ef:	ff e0                	jmpq   *%rax
    90f1:	0f 1f 80 00 00 00 00 	nopl   0x0(%rax)
    90f8:	c3                   	retq   
    90f9:	0f 1f 80 00 00 00 00 	nopl   0x0(%rax)

0000000000009100 <register_tm_clones>:
    9100:	48 8d 3d 31 ca 01 00 	lea    0x1ca31(%rip),%rdi        # 25b38 <__TMC_END__>
    9107:	48 8d 35 2a ca 01 00 	lea    0x1ca2a(%rip),%rsi        # 25b38 <__TMC_END__>
    910e:	48 29 fe             	sub    %rdi,%rsi
    9111:	48 89 f0             	mov    %rsi,%rax
    9114:	48 c1 ee 3f          	shr    $0x3f,%rsi
    9118:	48 c1 f8 03          	sar    $0x3,%rax
    911c:	48 01 c6             	add    %rax,%rsi
    911f:	48 d1 fe             	sar    %rsi
    9122:	74 14                	je     9138 <register_tm_clones+0x38>
    9124:	48 8b 05 ad 8e 01 00 	mov    0x18ead(%rip),%rax        # 21fd8 <_ITM_registerTMCloneTable>
    912b:	48 85 c0             	test   %rax,%rax
    912e:	74 08                	je     9138 <register_tm_clones+0x38>
    9130:	ff e0                	jmpq   *%rax
    9132:	66 0f 1f 44 00 00    	nopw   0x0(%rax,%rax,1)
    9138:	c3                   	retq   
    9139:	0f 1f 80 00 00 00 00 	nopl   0x0(%rax)

0000000000009140 <__do_global_dtors_aux>:
    9140:	f3 0f 1e fa          	endbr64 
    9144:	80 3d f5 c9 01 00 00 	cmpb   $0x0,0x1c9f5(%rip)        # 25b40 <completed.8061>
    914b:	75 2b                	jne    9178 <__do_global_dtors_aux+0x38>
    914d:	55                   	push   %rbp
    914e:	48 83 3d 8a 8e 01 00 	cmpq   $0x0,0x18e8a(%rip)        # 21fe0 <__cxa_finalize@GLIBC_2.2.5>
    9155:	00 
    9156:	48 89 e5             	mov    %rsp,%rbp
    9159:	74 0c                	je     9167 <__do_global_dtors_aux+0x27>
    915b:	48 8b 3d a6 8e 01 00 	mov    0x18ea6(%rip),%rdi        # 22008 <__dso_handle>
    9162:	e8 f9 fe ff ff       	callq  9060 <__cxa_finalize@plt>
    9167:	e8 64 ff ff ff       	callq  90d0 <deregister_tm_clones>
    916c:	c6 05 cd c9 01 00 01 	movb   $0x1,0x1c9cd(%rip)        # 25b40 <completed.8061>
    9173:	5d                   	pop    %rbp
    9174:	c3                   	retq   
    9175:	0f 1f 00             	nopl   (%rax)
    9178:	c3                   	retq   
    9179:	0f 1f 80 00 00 00 00 	nopl   0x0(%rax)

0000000000009180 <frame_dummy>:
    9180:	f3 0f 1e fa          	endbr64 
    9184:	e9 77 ff ff ff       	jmpq   9100 <register_tm_clones>

0000000000009189 <platform_main_begin>:
    9189:	f3 0f 1e fa          	endbr64 
    918d:	55                   	push   %rbp
    918e:	48 89 e5             	mov    %rsp,%rbp
    9191:	90                   	nop
    9192:	5d                   	pop    %rbp
    9193:	c3                   	retq   

0000000000009194 <platform_main_end>:
    9194:	f3 0f 1e fa          	endbr64 
    9198:	55                   	push   %rbp
    9199:	48 89 e5             	mov    %rsp,%rbp
    919c:	48 83 ec 10          	sub    $0x10,%rsp
    91a0:	89 7d fc             	mov    %edi,-0x4(%rbp)
    91a3:	89 75 f8             	mov    %esi,-0x8(%rbp)
    91a6:	8b 45 fc             	mov    -0x4(%rbp),%eax
    91a9:	89 c6                	mov    %eax,%esi
    91ab:	48 8d 3d 6e 4e 01 00 	lea    0x14e6e(%rip),%rdi        # 1e020 <_IO_stdin_used+0x20>
    91b2:	b8 00 00 00 00       	mov    $0x0,%eax
    91b7:	e8 c4 fe ff ff       	callq  9080 <printf@plt>
    91bc:	90                   	nop
    91bd:	c9                   	leaveq 
    91be:	c3                   	retq   

00000000000091bf <safe_unary_minus_func_int8_t_s>:
    91bf:	f3 0f 1e fa          	endbr64 
    91c3:	55                   	push   %rbp
    91c4:	48 89 e5             	mov    %rsp,%rbp
    91c7:	89 f8                	mov    %edi,%eax
    91c9:	88 45 fc             	mov    %al,-0x4(%rbp)
    91cc:	0f b6 45 fc          	movzbl -0x4(%rbp),%eax
    91d0:	f7 d8                	neg    %eax
    91d2:	5d                   	pop    %rbp
    91d3:	c3                   	retq   

00000000000091d4 <safe_add_func_int8_t_s_s>:
    91d4:	f3 0f 1e fa          	endbr64 
    91d8:	55                   	push   %rbp
    91d9:	48 89 e5             	mov    %rsp,%rbp
    91dc:	89 fa                	mov    %edi,%edx
    91de:	89 f0                	mov    %esi,%eax
    91e0:	88 55 fc             	mov    %dl,-0x4(%rbp)
    91e3:	88 45 f8             	mov    %al,-0x8(%rbp)
    91e6:	0f b6 55 fc          	movzbl -0x4(%rbp),%edx
    91ea:	0f b6 45 f8          	movzbl -0x8(%rbp),%eax
    91ee:	01 d0                	add    %edx,%eax
    91f0:	5d                   	pop    %rbp
    91f1:	c3                   	retq   

00000000000091f2 <safe_sub_func_int8_t_s_s>:
    91f2:	f3 0f 1e fa          	endbr64 
    91f6:	55                   	push   %rbp
    91f7:	48 89 e5             	mov    %rsp,%rbp
    91fa:	89 fa                	mov    %edi,%edx
    91fc:	89 f0                	mov    %esi,%eax
    91fe:	88 55 fc             	mov    %dl,-0x4(%rbp)
    9201:	88 45 f8             	mov    %al,-0x8(%rbp)
    9204:	0f b6 55 fc          	movzbl -0x4(%rbp),%edx
    9208:	0f b6 45 f8          	movzbl -0x8(%rbp),%eax
    920c:	29 c2                	sub    %eax,%edx
    920e:	89 d0                	mov    %edx,%eax
    9210:	5d                   	pop    %rbp
    9211:	c3                   	retq   

0000000000009212 <safe_mul_func_int8_t_s_s>:
    9212:	f3 0f 1e fa          	endbr64 
    9216:	55                   	push   %rbp
    9217:	48 89 e5             	mov    %rsp,%rbp
    921a:	89 fa                	mov    %edi,%edx
    921c:	89 f0                	mov    %esi,%eax
    921e:	88 55 fc             	mov    %dl,-0x4(%rbp)
    9221:	88 45 f8             	mov    %al,-0x8(%rbp)
    9224:	0f b6 45 fc          	movzbl -0x4(%rbp),%eax
    9228:	0f b6 55 f8          	movzbl -0x8(%rbp),%edx
    922c:	0f af c2             	imul   %edx,%eax
    922f:	5d                   	pop    %rbp
    9230:	c3                   	retq   

0000000000009231 <safe_mod_func_int8_t_s_s>:
    9231:	f3 0f 1e fa          	endbr64 
    9235:	55                   	push   %rbp
    9236:	48 89 e5             	mov    %rsp,%rbp
    9239:	89 fa                	mov    %edi,%edx
    923b:	89 f0                	mov    %esi,%eax
    923d:	88 55 fc             	mov    %dl,-0x4(%rbp)
    9240:	88 45 f8             	mov    %al,-0x8(%rbp)
    9243:	80 7d f8 00          	cmpb   $0x0,-0x8(%rbp)
    9247:	74 1b                	je     9264 <safe_mod_func_int8_t_s_s+0x33>
    9249:	80 7d fc 80          	cmpb   $0x80,-0x4(%rbp)
    924d:	75 06                	jne    9255 <safe_mod_func_int8_t_s_s+0x24>
    924f:	80 7d f8 ff          	cmpb   $0xff,-0x8(%rbp)
    9253:	74 0f                	je     9264 <safe_mod_func_int8_t_s_s+0x33>
    9255:	0f be 45 fc          	movsbl -0x4(%rbp),%eax
    9259:	0f be 4d f8          	movsbl -0x8(%rbp),%ecx
    925d:	99                   	cltd   
    925e:	f7 f9                	idiv   %ecx
    9260:	89 d0                	mov    %edx,%eax
    9262:	eb 04                	jmp    9268 <safe_mod_func_int8_t_s_s+0x37>
    9264:	0f b6 45 fc          	movzbl -0x4(%rbp),%eax
    9268:	5d                   	pop    %rbp
    9269:	c3                   	retq   

000000000000926a <safe_div_func_int8_t_s_s>:
    926a:	f3 0f 1e fa          	endbr64 
    926e:	55                   	push   %rbp
    926f:	48 89 e5             	mov    %rsp,%rbp
    9272:	89 fa                	mov    %edi,%edx
    9274:	89 f0                	mov    %esi,%eax
    9276:	88 55 fc             	mov    %dl,-0x4(%rbp)
    9279:	88 45 f8             	mov    %al,-0x8(%rbp)
    927c:	80 7d f8 00          	cmpb   $0x0,-0x8(%rbp)
    9280:	74 19                	je     929b <safe_div_func_int8_t_s_s+0x31>
    9282:	80 7d fc 80          	cmpb   $0x80,-0x4(%rbp)
    9286:	75 06                	jne    928e <safe_div_func_int8_t_s_s+0x24>
    9288:	80 7d f8 ff          	cmpb   $0xff,-0x8(%rbp)
    928c:	74 0d                	je     929b <safe_div_func_int8_t_s_s+0x31>
    928e:	0f be 45 fc          	movsbl -0x4(%rbp),%eax
    9292:	0f be 4d f8          	movsbl -0x8(%rbp),%ecx
    9296:	99                   	cltd   
    9297:	f7 f9                	idiv   %ecx
    9299:	eb 04                	jmp    929f <safe_div_func_int8_t_s_s+0x35>
    929b:	0f b6 45 fc          	movzbl -0x4(%rbp),%eax
    929f:	5d                   	pop    %rbp
    92a0:	c3                   	retq   

00000000000092a1 <safe_lshift_func_int8_t_s_s>:
    92a1:	f3 0f 1e fa          	endbr64 
    92a5:	55                   	push   %rbp
    92a6:	48 89 e5             	mov    %rsp,%rbp
    92a9:	89 f8                	mov    %edi,%eax
    92ab:	89 75 f8             	mov    %esi,-0x8(%rbp)
    92ae:	88 45 fc             	mov    %al,-0x4(%rbp)
    92b1:	80 7d fc 00          	cmpb   $0x0,-0x4(%rbp)
    92b5:	78 31                	js     92e8 <safe_lshift_func_int8_t_s_s+0x47>
    92b7:	83 7d f8 00          	cmpl   $0x0,-0x8(%rbp)
    92bb:	78 2b                	js     92e8 <safe_lshift_func_int8_t_s_s+0x47>
    92bd:	83 7d f8 1f          	cmpl   $0x1f,-0x8(%rbp)
    92c1:	7f 25                	jg     92e8 <safe_lshift_func_int8_t_s_s+0x47>
    92c3:	0f be 55 fc          	movsbl -0x4(%rbp),%edx
    92c7:	8b 45 f8             	mov    -0x8(%rbp),%eax
    92ca:	be 7f 00 00 00       	mov    $0x7f,%esi
    92cf:	89 c1                	mov    %eax,%ecx
    92d1:	d3 fe                	sar    %cl,%esi
    92d3:	89 f0                	mov    %esi,%eax
    92d5:	39 c2                	cmp    %eax,%edx
    92d7:	7f 0f                	jg     92e8 <safe_lshift_func_int8_t_s_s+0x47>
    92d9:	0f be 55 fc          	movsbl -0x4(%rbp),%edx
    92dd:	8b 45 f8             	mov    -0x8(%rbp),%eax
    92e0:	89 c1                	mov    %eax,%ecx
    92e2:	d3 e2                	shl    %cl,%edx
    92e4:	89 d0                	mov    %edx,%eax
    92e6:	eb 04                	jmp    92ec <safe_lshift_func_int8_t_s_s+0x4b>
    92e8:	0f b6 45 fc          	movzbl -0x4(%rbp),%eax
    92ec:	5d                   	pop    %rbp
    92ed:	c3                   	retq   

00000000000092ee <safe_lshift_func_int8_t_s_u>:
    92ee:	f3 0f 1e fa          	endbr64 
    92f2:	55                   	push   %rbp
    92f3:	48 89 e5             	mov    %rsp,%rbp
    92f6:	89 f8                	mov    %edi,%eax
    92f8:	89 75 f8             	mov    %esi,-0x8(%rbp)
    92fb:	88 45 fc             	mov    %al,-0x4(%rbp)
    92fe:	80 7d fc 00          	cmpb   $0x0,-0x4(%rbp)
    9302:	78 2b                	js     932f <safe_lshift_func_int8_t_s_u+0x41>
    9304:	83 7d f8 1f          	cmpl   $0x1f,-0x8(%rbp)
    9308:	77 25                	ja     932f <safe_lshift_func_int8_t_s_u+0x41>
    930a:	0f be 55 fc          	movsbl -0x4(%rbp),%edx
    930e:	8b 45 f8             	mov    -0x8(%rbp),%eax
    9311:	be 7f 00 00 00       	mov    $0x7f,%esi
    9316:	89 c1                	mov    %eax,%ecx
    9318:	d3 fe                	sar    %cl,%esi
    931a:	89 f0                	mov    %esi,%eax
    931c:	39 c2                	cmp    %eax,%edx
    931e:	7f 0f                	jg     932f <safe_lshift_func_int8_t_s_u+0x41>
    9320:	0f be 55 fc          	movsbl -0x4(%rbp),%edx
    9324:	8b 45 f8             	mov    -0x8(%rbp),%eax
    9327:	89 c1                	mov    %eax,%ecx
    9329:	d3 e2                	shl    %cl,%edx
    932b:	89 d0                	mov    %edx,%eax
    932d:	eb 04                	jmp    9333 <safe_lshift_func_int8_t_s_u+0x45>
    932f:	0f b6 45 fc          	movzbl -0x4(%rbp),%eax
    9333:	5d                   	pop    %rbp
    9334:	c3                   	retq   

0000000000009335 <safe_rshift_func_int8_t_s_s>:
    9335:	f3 0f 1e fa          	endbr64 
    9339:	55                   	push   %rbp
    933a:	48 89 e5             	mov    %rsp,%rbp
    933d:	89 f8                	mov    %edi,%eax
    933f:	89 75 f8             	mov    %esi,-0x8(%rbp)
    9342:	88 45 fc             	mov    %al,-0x4(%rbp)
    9345:	80 7d fc 00          	cmpb   $0x0,-0x4(%rbp)
    9349:	78 1b                	js     9366 <safe_rshift_func_int8_t_s_s+0x31>
    934b:	83 7d f8 00          	cmpl   $0x0,-0x8(%rbp)
    934f:	78 15                	js     9366 <safe_rshift_func_int8_t_s_s+0x31>
    9351:	83 7d f8 1f          	cmpl   $0x1f,-0x8(%rbp)
    9355:	7f 0f                	jg     9366 <safe_rshift_func_int8_t_s_s+0x31>
    9357:	0f be 55 fc          	movsbl -0x4(%rbp),%edx
    935b:	8b 45 f8             	mov    -0x8(%rbp),%eax
    935e:	89 c1                	mov    %eax,%ecx
    9360:	d3 fa                	sar    %cl,%edx
    9362:	89 d0                	mov    %edx,%eax
    9364:	eb 04                	jmp    936a <safe_rshift_func_int8_t_s_s+0x35>
    9366:	0f b6 45 fc          	movzbl -0x4(%rbp),%eax
    936a:	5d                   	pop    %rbp
    936b:	c3                   	retq   

000000000000936c <safe_rshift_func_int8_t_s_u>:
    936c:	f3 0f 1e fa          	endbr64 
    9370:	55                   	push   %rbp
    9371:	48 89 e5             	mov    %rsp,%rbp
    9374:	89 f8                	mov    %edi,%eax
    9376:	89 75 f8             	mov    %esi,-0x8(%rbp)
    9379:	88 45 fc             	mov    %al,-0x4(%rbp)
    937c:	80 7d fc 00          	cmpb   $0x0,-0x4(%rbp)
    9380:	78 15                	js     9397 <safe_rshift_func_int8_t_s_u+0x2b>
    9382:	83 7d f8 1f          	cmpl   $0x1f,-0x8(%rbp)
    9386:	77 0f                	ja     9397 <safe_rshift_func_int8_t_s_u+0x2b>
    9388:	0f be 55 fc          	movsbl -0x4(%rbp),%edx
    938c:	8b 45 f8             	mov    -0x8(%rbp),%eax
    938f:	89 c1                	mov    %eax,%ecx
    9391:	d3 fa                	sar    %cl,%edx
    9393:	89 d0                	mov    %edx,%eax
    9395:	eb 04                	jmp    939b <safe_rshift_func_int8_t_s_u+0x2f>
    9397:	0f b6 45 fc          	movzbl -0x4(%rbp),%eax
    939b:	5d                   	pop    %rbp
    939c:	c3                   	retq   

000000000000939d <safe_unary_minus_func_int16_t_s>:
    939d:	f3 0f 1e fa          	endbr64 
    93a1:	55                   	push   %rbp
    93a2:	48 89 e5             	mov    %rsp,%rbp
    93a5:	89 f8                	mov    %edi,%eax
    93a7:	66 89 45 fc          	mov    %ax,-0x4(%rbp)
    93ab:	0f b7 45 fc          	movzwl -0x4(%rbp),%eax
    93af:	f7 d8                	neg    %eax
    93b1:	5d                   	pop    %rbp
    93b2:	c3                   	retq   

00000000000093b3 <safe_add_func_int16_t_s_s>:
    93b3:	f3 0f 1e fa          	endbr64 
    93b7:	55                   	push   %rbp
    93b8:	48 89 e5             	mov    %rsp,%rbp
    93bb:	89 fa                	mov    %edi,%edx
    93bd:	89 f0                	mov    %esi,%eax
    93bf:	66 89 55 fc          	mov    %dx,-0x4(%rbp)
    93c3:	66 89 45 f8          	mov    %ax,-0x8(%rbp)
    93c7:	0f b7 55 fc          	movzwl -0x4(%rbp),%edx
    93cb:	0f b7 45 f8          	movzwl -0x8(%rbp),%eax
    93cf:	01 d0                	add    %edx,%eax
    93d1:	5d                   	pop    %rbp
    93d2:	c3                   	retq   

00000000000093d3 <safe_sub_func_int16_t_s_s>:
    93d3:	f3 0f 1e fa          	endbr64 
    93d7:	55                   	push   %rbp
    93d8:	48 89 e5             	mov    %rsp,%rbp
    93db:	89 fa                	mov    %edi,%edx
    93dd:	89 f0                	mov    %esi,%eax
    93df:	66 89 55 fc          	mov    %dx,-0x4(%rbp)
    93e3:	66 89 45 f8          	mov    %ax,-0x8(%rbp)
    93e7:	0f b7 55 fc          	movzwl -0x4(%rbp),%edx
    93eb:	0f b7 45 f8          	movzwl -0x8(%rbp),%eax
    93ef:	29 c2                	sub    %eax,%edx
    93f1:	89 d0                	mov    %edx,%eax
    93f3:	5d                   	pop    %rbp
    93f4:	c3                   	retq   

00000000000093f5 <safe_mul_func_int16_t_s_s>:
    93f5:	f3 0f 1e fa          	endbr64 
    93f9:	55                   	push   %rbp
    93fa:	48 89 e5             	mov    %rsp,%rbp
    93fd:	89 fa                	mov    %edi,%edx
    93ff:	89 f0                	mov    %esi,%eax
    9401:	66 89 55 fc          	mov    %dx,-0x4(%rbp)
    9405:	66 89 45 f8          	mov    %ax,-0x8(%rbp)
    9409:	0f b7 55 fc          	movzwl -0x4(%rbp),%edx
    940d:	0f b7 45 f8          	movzwl -0x8(%rbp),%eax
    9411:	0f af c2             	imul   %edx,%eax
    9414:	5d                   	pop    %rbp
    9415:	c3                   	retq   

0000000000009416 <safe_mod_func_int16_t_s_s>:
    9416:	f3 0f 1e fa          	endbr64 
    941a:	55                   	push   %rbp
    941b:	48 89 e5             	mov    %rsp,%rbp
    941e:	89 fa                	mov    %edi,%edx
    9420:	89 f0                	mov    %esi,%eax
    9422:	66 89 55 fc          	mov    %dx,-0x4(%rbp)
    9426:	66 89 45 f8          	mov    %ax,-0x8(%rbp)
    942a:	66 83 7d f8 00       	cmpw   $0x0,-0x8(%rbp)
    942f:	74 1e                	je     944f <safe_mod_func_int16_t_s_s+0x39>
    9431:	66 81 7d fc 00 80    	cmpw   $0x8000,-0x4(%rbp)
    9437:	75 07                	jne    9440 <safe_mod_func_int16_t_s_s+0x2a>
    9439:	66 83 7d f8 ff       	cmpw   $0xffff,-0x8(%rbp)
    943e:	74 0f                	je     944f <safe_mod_func_int16_t_s_s+0x39>
    9440:	0f bf 45 fc          	movswl -0x4(%rbp),%eax
    9444:	0f bf 4d f8          	movswl -0x8(%rbp),%ecx
    9448:	99                   	cltd   
    9449:	f7 f9                	idiv   %ecx
    944b:	89 d0                	mov    %edx,%eax
    944d:	eb 04                	jmp    9453 <safe_mod_func_int16_t_s_s+0x3d>
    944f:	0f b7 45 fc          	movzwl -0x4(%rbp),%eax
    9453:	5d                   	pop    %rbp
    9454:	c3                   	retq   

0000000000009455 <safe_div_func_int16_t_s_s>:
    9455:	f3 0f 1e fa          	endbr64 
    9459:	55                   	push   %rbp
    945a:	48 89 e5             	mov    %rsp,%rbp
    945d:	89 fa                	mov    %edi,%edx
    945f:	89 f0                	mov    %esi,%eax
    9461:	66 89 55 fc          	mov    %dx,-0x4(%rbp)
    9465:	66 89 45 f8          	mov    %ax,-0x8(%rbp)
    9469:	66 83 7d f8 00       	cmpw   $0x0,-0x8(%rbp)
    946e:	74 1c                	je     948c <safe_div_func_int16_t_s_s+0x37>
    9470:	66 81 7d fc 00 80    	cmpw   $0x8000,-0x4(%rbp)
    9476:	75 07                	jne    947f <safe_div_func_int16_t_s_s+0x2a>
    9478:	66 83 7d f8 ff       	cmpw   $0xffff,-0x8(%rbp)
    947d:	74 0d                	je     948c <safe_div_func_int16_t_s_s+0x37>
    947f:	0f bf 45 fc          	movswl -0x4(%rbp),%eax
    9483:	0f bf 4d f8          	movswl -0x8(%rbp),%ecx
    9487:	99                   	cltd   
    9488:	f7 f9                	idiv   %ecx
    948a:	eb 04                	jmp    9490 <safe_div_func_int16_t_s_s+0x3b>
    948c:	0f b7 45 fc          	movzwl -0x4(%rbp),%eax
    9490:	5d                   	pop    %rbp
    9491:	c3                   	retq   

0000000000009492 <safe_lshift_func_int16_t_s_s>:
    9492:	f3 0f 1e fa          	endbr64 
    9496:	55                   	push   %rbp
    9497:	48 89 e5             	mov    %rsp,%rbp
    949a:	89 f8                	mov    %edi,%eax
    949c:	89 75 f8             	mov    %esi,-0x8(%rbp)
    949f:	66 89 45 fc          	mov    %ax,-0x4(%rbp)
    94a3:	66 83 7d fc 00       	cmpw   $0x0,-0x4(%rbp)
    94a8:	78 31                	js     94db <safe_lshift_func_int16_t_s_s+0x49>
    94aa:	83 7d f8 00          	cmpl   $0x0,-0x8(%rbp)
    94ae:	78 2b                	js     94db <safe_lshift_func_int16_t_s_s+0x49>
    94b0:	83 7d f8 1f          	cmpl   $0x1f,-0x8(%rbp)
    94b4:	7f 25                	jg     94db <safe_lshift_func_int16_t_s_s+0x49>
    94b6:	0f bf 55 fc          	movswl -0x4(%rbp),%edx
    94ba:	8b 45 f8             	mov    -0x8(%rbp),%eax
    94bd:	be ff 7f 00 00       	mov    $0x7fff,%esi
    94c2:	89 c1                	mov    %eax,%ecx
    94c4:	d3 fe                	sar    %cl,%esi
    94c6:	89 f0                	mov    %esi,%eax
    94c8:	39 c2                	cmp    %eax,%edx
    94ca:	7f 0f                	jg     94db <safe_lshift_func_int16_t_s_s+0x49>
    94cc:	0f bf 55 fc          	movswl -0x4(%rbp),%edx
    94d0:	8b 45 f8             	mov    -0x8(%rbp),%eax
    94d3:	89 c1                	mov    %eax,%ecx
    94d5:	d3 e2                	shl    %cl,%edx
    94d7:	89 d0                	mov    %edx,%eax
    94d9:	eb 04                	jmp    94df <safe_lshift_func_int16_t_s_s+0x4d>
    94db:	0f b7 45 fc          	movzwl -0x4(%rbp),%eax
    94df:	5d                   	pop    %rbp
    94e0:	c3                   	retq   

00000000000094e1 <safe_lshift_func_int16_t_s_u>:
    94e1:	f3 0f 1e fa          	endbr64 
    94e5:	55                   	push   %rbp
    94e6:	48 89 e5             	mov    %rsp,%rbp
    94e9:	89 f8                	mov    %edi,%eax
    94eb:	89 75 f8             	mov    %esi,-0x8(%rbp)
    94ee:	66 89 45 fc          	mov    %ax,-0x4(%rbp)
    94f2:	66 83 7d fc 00       	cmpw   $0x0,-0x4(%rbp)
    94f7:	78 2b                	js     9524 <safe_lshift_func_int16_t_s_u+0x43>
    94f9:	83 7d f8 1f          	cmpl   $0x1f,-0x8(%rbp)
    94fd:	77 25                	ja     9524 <safe_lshift_func_int16_t_s_u+0x43>
    94ff:	0f bf 55 fc          	movswl -0x4(%rbp),%edx
    9503:	8b 45 f8             	mov    -0x8(%rbp),%eax
    9506:	be ff 7f 00 00       	mov    $0x7fff,%esi
    950b:	89 c1                	mov    %eax,%ecx
    950d:	d3 fe                	sar    %cl,%esi
    950f:	89 f0                	mov    %esi,%eax
    9511:	39 c2                	cmp    %eax,%edx
    9513:	7f 0f                	jg     9524 <safe_lshift_func_int16_t_s_u+0x43>
    9515:	0f bf 55 fc          	movswl -0x4(%rbp),%edx
    9519:	8b 45 f8             	mov    -0x8(%rbp),%eax
    951c:	89 c1                	mov    %eax,%ecx
    951e:	d3 e2                	shl    %cl,%edx
    9520:	89 d0                	mov    %edx,%eax
    9522:	eb 04                	jmp    9528 <safe_lshift_func_int16_t_s_u+0x47>
    9524:	0f b7 45 fc          	movzwl -0x4(%rbp),%eax
    9528:	5d                   	pop    %rbp
    9529:	c3                   	retq   

000000000000952a <safe_rshift_func_int16_t_s_s>:
    952a:	f3 0f 1e fa          	endbr64 
    952e:	55                   	push   %rbp
    952f:	48 89 e5             	mov    %rsp,%rbp
    9532:	89 f8                	mov    %edi,%eax
    9534:	89 75 f8             	mov    %esi,-0x8(%rbp)
    9537:	66 89 45 fc          	mov    %ax,-0x4(%rbp)
    953b:	66 83 7d fc 00       	cmpw   $0x0,-0x4(%rbp)
    9540:	78 1b                	js     955d <safe_rshift_func_int16_t_s_s+0x33>
    9542:	83 7d f8 00          	cmpl   $0x0,-0x8(%rbp)
    9546:	78 15                	js     955d <safe_rshift_func_int16_t_s_s+0x33>
    9548:	83 7d f8 1f          	cmpl   $0x1f,-0x8(%rbp)
    954c:	7f 0f                	jg     955d <safe_rshift_func_int16_t_s_s+0x33>
    954e:	0f bf 55 fc          	movswl -0x4(%rbp),%edx
    9552:	8b 45 f8             	mov    -0x8(%rbp),%eax
    9555:	89 c1                	mov    %eax,%ecx
    9557:	d3 fa                	sar    %cl,%edx
    9559:	89 d0                	mov    %edx,%eax
    955b:	eb 04                	jmp    9561 <safe_rshift_func_int16_t_s_s+0x37>
    955d:	0f b7 45 fc          	movzwl -0x4(%rbp),%eax
    9561:	5d                   	pop    %rbp
    9562:	c3                   	retq   

0000000000009563 <safe_rshift_func_int16_t_s_u>:
    9563:	f3 0f 1e fa          	endbr64 
    9567:	55                   	push   %rbp
    9568:	48 89 e5             	mov    %rsp,%rbp
    956b:	89 f8                	mov    %edi,%eax
    956d:	89 75 f8             	mov    %esi,-0x8(%rbp)
    9570:	66 89 45 fc          	mov    %ax,-0x4(%rbp)
    9574:	66 83 7d fc 00       	cmpw   $0x0,-0x4(%rbp)
    9579:	78 15                	js     9590 <safe_rshift_func_int16_t_s_u+0x2d>
    957b:	83 7d f8 1f          	cmpl   $0x1f,-0x8(%rbp)
    957f:	77 0f                	ja     9590 <safe_rshift_func_int16_t_s_u+0x2d>
    9581:	0f bf 55 fc          	movswl -0x4(%rbp),%edx
    9585:	8b 45 f8             	mov    -0x8(%rbp),%eax
    9588:	89 c1                	mov    %eax,%ecx
    958a:	d3 fa                	sar    %cl,%edx
    958c:	89 d0                	mov    %edx,%eax
    958e:	eb 04                	jmp    9594 <safe_rshift_func_int16_t_s_u+0x31>
    9590:	0f b7 45 fc          	movzwl -0x4(%rbp),%eax
    9594:	5d                   	pop    %rbp
    9595:	c3                   	retq   

0000000000009596 <safe_unary_minus_func_int32_t_s>:
    9596:	f3 0f 1e fa          	endbr64 
    959a:	55                   	push   %rbp
    959b:	48 89 e5             	mov    %rsp,%rbp
    959e:	89 7d fc             	mov    %edi,-0x4(%rbp)
    95a1:	81 7d fc 00 00 00 80 	cmpl   $0x80000000,-0x4(%rbp)
    95a8:	74 07                	je     95b1 <safe_unary_minus_func_int32_t_s+0x1b>
    95aa:	8b 45 fc             	mov    -0x4(%rbp),%eax
    95ad:	f7 d8                	neg    %eax
    95af:	eb 03                	jmp    95b4 <safe_unary_minus_func_int32_t_s+0x1e>
    95b1:	8b 45 fc             	mov    -0x4(%rbp),%eax
    95b4:	5d                   	pop    %rbp
    95b5:	c3                   	retq   

00000000000095b6 <safe_add_func_int32_t_s_s>:
    95b6:	f3 0f 1e fa          	endbr64 
    95ba:	55                   	push   %rbp
    95bb:	48 89 e5             	mov    %rsp,%rbp
    95be:	89 7d fc             	mov    %edi,-0x4(%rbp)
    95c1:	89 75 f8             	mov    %esi,-0x8(%rbp)
    95c4:	83 7d fc 00          	cmpl   $0x0,-0x4(%rbp)
    95c8:	7e 13                	jle    95dd <safe_add_func_int32_t_s_s+0x27>
    95ca:	83 7d f8 00          	cmpl   $0x0,-0x8(%rbp)
    95ce:	7e 0d                	jle    95dd <safe_add_func_int32_t_s_s+0x27>
    95d0:	b8 ff ff ff 7f       	mov    $0x7fffffff,%eax
    95d5:	2b 45 f8             	sub    -0x8(%rbp),%eax
    95d8:	39 45 fc             	cmp    %eax,-0x4(%rbp)
    95db:	7f 23                	jg     9600 <safe_add_func_int32_t_s_s+0x4a>
    95dd:	83 7d fc 00          	cmpl   $0x0,-0x4(%rbp)
    95e1:	79 13                	jns    95f6 <safe_add_func_int32_t_s_s+0x40>
    95e3:	83 7d f8 00          	cmpl   $0x0,-0x8(%rbp)
    95e7:	79 0d                	jns    95f6 <safe_add_func_int32_t_s_s+0x40>
    95e9:	b8 00 00 00 80       	mov    $0x80000000,%eax
    95ee:	2b 45 f8             	sub    -0x8(%rbp),%eax
    95f1:	39 45 fc             	cmp    %eax,-0x4(%rbp)
    95f4:	7c 0a                	jl     9600 <safe_add_func_int32_t_s_s+0x4a>
    95f6:	8b 55 fc             	mov    -0x4(%rbp),%edx
    95f9:	8b 45 f8             	mov    -0x8(%rbp),%eax
    95fc:	01 d0                	add    %edx,%eax
    95fe:	eb 03                	jmp    9603 <safe_add_func_int32_t_s_s+0x4d>
    9600:	8b 45 fc             	mov    -0x4(%rbp),%eax
    9603:	5d                   	pop    %rbp
    9604:	c3                   	retq   

0000000000009605 <safe_sub_func_int32_t_s_s>:
    9605:	f3 0f 1e fa          	endbr64 
    9609:	55                   	push   %rbp
    960a:	48 89 e5             	mov    %rsp,%rbp
    960d:	89 7d fc             	mov    %edi,-0x4(%rbp)
    9610:	89 75 f8             	mov    %esi,-0x8(%rbp)
    9613:	8b 45 fc             	mov    -0x4(%rbp),%eax
    9616:	33 45 f8             	xor    -0x8(%rbp),%eax
    9619:	89 c2                	mov    %eax,%edx
    961b:	8b 45 fc             	mov    -0x4(%rbp),%eax
    961e:	33 45 f8             	xor    -0x8(%rbp),%eax
    9621:	25 00 00 00 80       	and    $0x80000000,%eax
    9626:	33 45 fc             	xor    -0x4(%rbp),%eax
    9629:	2b 45 f8             	sub    -0x8(%rbp),%eax
    962c:	33 45 f8             	xor    -0x8(%rbp),%eax
    962f:	21 d0                	and    %edx,%eax
    9631:	85 c0                	test   %eax,%eax
    9633:	78 08                	js     963d <safe_sub_func_int32_t_s_s+0x38>
    9635:	8b 45 fc             	mov    -0x4(%rbp),%eax
    9638:	2b 45 f8             	sub    -0x8(%rbp),%eax
    963b:	eb 03                	jmp    9640 <safe_sub_func_int32_t_s_s+0x3b>
    963d:	8b 45 fc             	mov    -0x4(%rbp),%eax
    9640:	5d                   	pop    %rbp
    9641:	c3                   	retq   

0000000000009642 <safe_mul_func_int32_t_s_s>:
    9642:	f3 0f 1e fa          	endbr64 
    9646:	55                   	push   %rbp
    9647:	48 89 e5             	mov    %rsp,%rbp
    964a:	89 7d fc             	mov    %edi,-0x4(%rbp)
    964d:	89 75 f8             	mov    %esi,-0x8(%rbp)
    9650:	83 7d fc 00          	cmpl   $0x0,-0x4(%rbp)
    9654:	7e 14                	jle    966a <safe_mul_func_int32_t_s_s+0x28>
    9656:	83 7d f8 00          	cmpl   $0x0,-0x8(%rbp)
    965a:	7e 0e                	jle    966a <safe_mul_func_int32_t_s_s+0x28>
    965c:	b8 ff ff ff 7f       	mov    $0x7fffffff,%eax
    9661:	99                   	cltd   
    9662:	f7 7d f8             	idivl  -0x8(%rbp)
    9665:	39 45 fc             	cmp    %eax,-0x4(%rbp)
    9668:	7f 5d                	jg     96c7 <safe_mul_func_int32_t_s_s+0x85>
    966a:	83 7d fc 00          	cmpl   $0x0,-0x4(%rbp)
    966e:	7e 14                	jle    9684 <safe_mul_func_int32_t_s_s+0x42>
    9670:	83 7d f8 00          	cmpl   $0x0,-0x8(%rbp)
    9674:	7f 0e                	jg     9684 <safe_mul_func_int32_t_s_s+0x42>
    9676:	b8 00 00 00 80       	mov    $0x80000000,%eax
    967b:	99                   	cltd   
    967c:	f7 7d fc             	idivl  -0x4(%rbp)
    967f:	39 45 f8             	cmp    %eax,-0x8(%rbp)
    9682:	7c 43                	jl     96c7 <safe_mul_func_int32_t_s_s+0x85>
    9684:	83 7d fc 00          	cmpl   $0x0,-0x4(%rbp)
    9688:	7f 14                	jg     969e <safe_mul_func_int32_t_s_s+0x5c>
    968a:	83 7d f8 00          	cmpl   $0x0,-0x8(%rbp)
    968e:	7e 0e                	jle    969e <safe_mul_func_int32_t_s_s+0x5c>
    9690:	b8 00 00 00 80       	mov    $0x80000000,%eax
    9695:	99                   	cltd   
    9696:	f7 7d f8             	idivl  -0x8(%rbp)
    9699:	39 45 fc             	cmp    %eax,-0x4(%rbp)
    969c:	7c 29                	jl     96c7 <safe_mul_func_int32_t_s_s+0x85>
    969e:	83 7d fc 00          	cmpl   $0x0,-0x4(%rbp)
    96a2:	7f 1a                	jg     96be <safe_mul_func_int32_t_s_s+0x7c>
    96a4:	83 7d f8 00          	cmpl   $0x0,-0x8(%rbp)
    96a8:	7f 14                	jg     96be <safe_mul_func_int32_t_s_s+0x7c>
    96aa:	83 7d fc 00          	cmpl   $0x0,-0x4(%rbp)
    96ae:	74 0e                	je     96be <safe_mul_func_int32_t_s_s+0x7c>
    96b0:	b8 ff ff ff 7f       	mov    $0x7fffffff,%eax
    96b5:	99                   	cltd   
    96b6:	f7 7d fc             	idivl  -0x4(%rbp)
    96b9:	39 45 f8             	cmp    %eax,-0x8(%rbp)
    96bc:	7c 09                	jl     96c7 <safe_mul_func_int32_t_s_s+0x85>
    96be:	8b 45 fc             	mov    -0x4(%rbp),%eax
    96c1:	0f af 45 f8          	imul   -0x8(%rbp),%eax
    96c5:	eb 03                	jmp    96ca <safe_mul_func_int32_t_s_s+0x88>
    96c7:	8b 45 fc             	mov    -0x4(%rbp),%eax
    96ca:	5d                   	pop    %rbp
    96cb:	c3                   	retq   

00000000000096cc <safe_mod_func_int32_t_s_s>:
    96cc:	f3 0f 1e fa          	endbr64 
    96d0:	55                   	push   %rbp
    96d1:	48 89 e5             	mov    %rsp,%rbp
    96d4:	89 7d fc             	mov    %edi,-0x4(%rbp)
    96d7:	89 75 f8             	mov    %esi,-0x8(%rbp)
    96da:	83 7d f8 00          	cmpl   $0x0,-0x8(%rbp)
    96de:	74 1a                	je     96fa <safe_mod_func_int32_t_s_s+0x2e>
    96e0:	81 7d fc 00 00 00 80 	cmpl   $0x80000000,-0x4(%rbp)
    96e7:	75 06                	jne    96ef <safe_mod_func_int32_t_s_s+0x23>
    96e9:	83 7d f8 ff          	cmpl   $0xffffffff,-0x8(%rbp)
    96ed:	74 0b                	je     96fa <safe_mod_func_int32_t_s_s+0x2e>
    96ef:	8b 45 fc             	mov    -0x4(%rbp),%eax
    96f2:	99                   	cltd   
    96f3:	f7 7d f8             	idivl  -0x8(%rbp)
    96f6:	89 d0                	mov    %edx,%eax
    96f8:	eb 03                	jmp    96fd <safe_mod_func_int32_t_s_s+0x31>
    96fa:	8b 45 fc             	mov    -0x4(%rbp),%eax
    96fd:	5d                   	pop    %rbp
    96fe:	c3                   	retq   

00000000000096ff <safe_div_func_int32_t_s_s>:
    96ff:	f3 0f 1e fa          	endbr64 
    9703:	55                   	push   %rbp
    9704:	48 89 e5             	mov    %rsp,%rbp
    9707:	89 7d fc             	mov    %edi,-0x4(%rbp)
    970a:	89 75 f8             	mov    %esi,-0x8(%rbp)
    970d:	83 7d f8 00          	cmpl   $0x0,-0x8(%rbp)
    9711:	74 18                	je     972b <safe_div_func_int32_t_s_s+0x2c>
    9713:	81 7d fc 00 00 00 80 	cmpl   $0x80000000,-0x4(%rbp)
    971a:	75 06                	jne    9722 <safe_div_func_int32_t_s_s+0x23>
    971c:	83 7d f8 ff          	cmpl   $0xffffffff,-0x8(%rbp)
    9720:	74 09                	je     972b <safe_div_func_int32_t_s_s+0x2c>
    9722:	8b 45 fc             	mov    -0x4(%rbp),%eax
    9725:	99                   	cltd   
    9726:	f7 7d f8             	idivl  -0x8(%rbp)
    9729:	eb 03                	jmp    972e <safe_div_func_int32_t_s_s+0x2f>
    972b:	8b 45 fc             	mov    -0x4(%rbp),%eax
    972e:	5d                   	pop    %rbp
    972f:	c3                   	retq   

0000000000009730 <safe_lshift_func_int32_t_s_s>:
    9730:	f3 0f 1e fa          	endbr64 
    9734:	55                   	push   %rbp
    9735:	48 89 e5             	mov    %rsp,%rbp
    9738:	89 7d fc             	mov    %edi,-0x4(%rbp)
    973b:	89 75 f8             	mov    %esi,-0x8(%rbp)
    973e:	83 7d fc 00          	cmpl   $0x0,-0x4(%rbp)
    9742:	78 2d                	js     9771 <safe_lshift_func_int32_t_s_s+0x41>
    9744:	83 7d f8 00          	cmpl   $0x0,-0x8(%rbp)
    9748:	78 27                	js     9771 <safe_lshift_func_int32_t_s_s+0x41>
    974a:	83 7d f8 1f          	cmpl   $0x1f,-0x8(%rbp)
    974e:	7f 21                	jg     9771 <safe_lshift_func_int32_t_s_s+0x41>
    9750:	8b 45 f8             	mov    -0x8(%rbp),%eax
    9753:	ba ff ff ff 7f       	mov    $0x7fffffff,%edx
    9758:	89 c1                	mov    %eax,%ecx
    975a:	d3 fa                	sar    %cl,%edx
    975c:	89 d0                	mov    %edx,%eax
    975e:	39 45 fc             	cmp    %eax,-0x4(%rbp)
    9761:	7f 0e                	jg     9771 <safe_lshift_func_int32_t_s_s+0x41>
    9763:	8b 45 f8             	mov    -0x8(%rbp),%eax
    9766:	8b 55 fc             	mov    -0x4(%rbp),%edx
    9769:	89 c1                	mov    %eax,%ecx
    976b:	d3 e2                	shl    %cl,%edx
    976d:	89 d0                	mov    %edx,%eax
    976f:	eb 03                	jmp    9774 <safe_lshift_func_int32_t_s_s+0x44>
    9771:	8b 45 fc             	mov    -0x4(%rbp),%eax
    9774:	5d                   	pop    %rbp
    9775:	c3                   	retq   

0000000000009776 <safe_lshift_func_int32_t_s_u>:
    9776:	f3 0f 1e fa          	endbr64 
    977a:	55                   	push   %rbp
    977b:	48 89 e5             	mov    %rsp,%rbp
    977e:	89 7d fc             	mov    %edi,-0x4(%rbp)
    9781:	89 75 f8             	mov    %esi,-0x8(%rbp)
    9784:	83 7d fc 00          	cmpl   $0x0,-0x4(%rbp)
    9788:	78 27                	js     97b1 <safe_lshift_func_int32_t_s_u+0x3b>
    978a:	83 7d f8 1f          	cmpl   $0x1f,-0x8(%rbp)
    978e:	77 21                	ja     97b1 <safe_lshift_func_int32_t_s_u+0x3b>
    9790:	8b 45 f8             	mov    -0x8(%rbp),%eax
    9793:	ba ff ff ff 7f       	mov    $0x7fffffff,%edx
    9798:	89 c1                	mov    %eax,%ecx
    979a:	d3 fa                	sar    %cl,%edx
    979c:	89 d0                	mov    %edx,%eax
    979e:	39 45 fc             	cmp    %eax,-0x4(%rbp)
    97a1:	7f 0e                	jg     97b1 <safe_lshift_func_int32_t_s_u+0x3b>
    97a3:	8b 45 f8             	mov    -0x8(%rbp),%eax
    97a6:	8b 55 fc             	mov    -0x4(%rbp),%edx
    97a9:	89 c1                	mov    %eax,%ecx
    97ab:	d3 e2                	shl    %cl,%edx
    97ad:	89 d0                	mov    %edx,%eax
    97af:	eb 03                	jmp    97b4 <safe_lshift_func_int32_t_s_u+0x3e>
    97b1:	8b 45 fc             	mov    -0x4(%rbp),%eax
    97b4:	5d                   	pop    %rbp
    97b5:	c3                   	retq   

00000000000097b6 <safe_rshift_func_int32_t_s_s>:
    97b6:	f3 0f 1e fa          	endbr64 
    97ba:	55                   	push   %rbp
    97bb:	48 89 e5             	mov    %rsp,%rbp
    97be:	89 7d fc             	mov    %edi,-0x4(%rbp)
    97c1:	89 75 f8             	mov    %esi,-0x8(%rbp)
    97c4:	83 7d fc 00          	cmpl   $0x0,-0x4(%rbp)
    97c8:	78 1a                	js     97e4 <safe_rshift_func_int32_t_s_s+0x2e>
    97ca:	83 7d f8 00          	cmpl   $0x0,-0x8(%rbp)
    97ce:	78 14                	js     97e4 <safe_rshift_func_int32_t_s_s+0x2e>
    97d0:	83 7d f8 1f          	cmpl   $0x1f,-0x8(%rbp)
    97d4:	7f 0e                	jg     97e4 <safe_rshift_func_int32_t_s_s+0x2e>
    97d6:	8b 45 f8             	mov    -0x8(%rbp),%eax
    97d9:	8b 55 fc             	mov    -0x4(%rbp),%edx
    97dc:	89 c1                	mov    %eax,%ecx
    97de:	d3 fa                	sar    %cl,%edx
    97e0:	89 d0                	mov    %edx,%eax
    97e2:	eb 03                	jmp    97e7 <safe_rshift_func_int32_t_s_s+0x31>
    97e4:	8b 45 fc             	mov    -0x4(%rbp),%eax
    97e7:	5d                   	pop    %rbp
    97e8:	c3                   	retq   

00000000000097e9 <safe_rshift_func_int32_t_s_u>:
    97e9:	f3 0f 1e fa          	endbr64 
    97ed:	55                   	push   %rbp
    97ee:	48 89 e5             	mov    %rsp,%rbp
    97f1:	89 7d fc             	mov    %edi,-0x4(%rbp)
    97f4:	89 75 f8             	mov    %esi,-0x8(%rbp)
    97f7:	83 7d fc 00          	cmpl   $0x0,-0x4(%rbp)
    97fb:	78 14                	js     9811 <safe_rshift_func_int32_t_s_u+0x28>
    97fd:	83 7d f8 1f          	cmpl   $0x1f,-0x8(%rbp)
    9801:	77 0e                	ja     9811 <safe_rshift_func_int32_t_s_u+0x28>
    9803:	8b 45 f8             	mov    -0x8(%rbp),%eax
    9806:	8b 55 fc             	mov    -0x4(%rbp),%edx
    9809:	89 c1                	mov    %eax,%ecx
    980b:	d3 fa                	sar    %cl,%edx
    980d:	89 d0                	mov    %edx,%eax
    980f:	eb 03                	jmp    9814 <safe_rshift_func_int32_t_s_u+0x2b>
    9811:	8b 45 fc             	mov    -0x4(%rbp),%eax
    9814:	5d                   	pop    %rbp
    9815:	c3                   	retq   

0000000000009816 <safe_unary_minus_func_int64_t_s>:
    9816:	f3 0f 1e fa          	endbr64 
    981a:	55                   	push   %rbp
    981b:	48 89 e5             	mov    %rsp,%rbp
    981e:	48 89 7d f8          	mov    %rdi,-0x8(%rbp)
    9822:	48 b8 00 00 00 00 00 	movabs $0x8000000000000000,%rax
    9829:	00 00 80 
    982c:	48 39 45 f8          	cmp    %rax,-0x8(%rbp)
    9830:	74 09                	je     983b <safe_unary_minus_func_int64_t_s+0x25>
    9832:	48 8b 45 f8          	mov    -0x8(%rbp),%rax
    9836:	48 f7 d8             	neg    %rax
    9839:	eb 04                	jmp    983f <safe_unary_minus_func_int64_t_s+0x29>
    983b:	48 8b 45 f8          	mov    -0x8(%rbp),%rax
    983f:	5d                   	pop    %rbp
    9840:	c3                   	retq   

0000000000009841 <safe_add_func_int64_t_s_s>:
    9841:	f3 0f 1e fa          	endbr64 
    9845:	55                   	push   %rbp
    9846:	48 89 e5             	mov    %rsp,%rbp
    9849:	48 89 7d f8          	mov    %rdi,-0x8(%rbp)
    984d:	48 89 75 f0          	mov    %rsi,-0x10(%rbp)
    9851:	48 83 7d f8 00       	cmpq   $0x0,-0x8(%rbp)
    9856:	7e 1b                	jle    9873 <safe_add_func_int64_t_s_s+0x32>
    9858:	48 83 7d f0 00       	cmpq   $0x0,-0x10(%rbp)
    985d:	7e 14                	jle    9873 <safe_add_func_int64_t_s_s+0x32>
    985f:	48 b8 ff ff ff ff ff 	movabs $0x7fffffffffffffff,%rax
    9866:	ff ff 7f 
    9869:	48 2b 45 f0          	sub    -0x10(%rbp),%rax
    986d:	48 39 45 f8          	cmp    %rax,-0x8(%rbp)
    9871:	7f 2f                	jg     98a2 <safe_add_func_int64_t_s_s+0x61>
    9873:	48 83 7d f8 00       	cmpq   $0x0,-0x8(%rbp)
    9878:	79 1b                	jns    9895 <safe_add_func_int64_t_s_s+0x54>
    987a:	48 83 7d f0 00       	cmpq   $0x0,-0x10(%rbp)
    987f:	79 14                	jns    9895 <safe_add_func_int64_t_s_s+0x54>
    9881:	48 b8 00 00 00 00 00 	movabs $0x8000000000000000,%rax
    9888:	00 00 80 
    988b:	48 2b 45 f0          	sub    -0x10(%rbp),%rax
    988f:	48 39 45 f8          	cmp    %rax,-0x8(%rbp)
    9893:	7c 0d                	jl     98a2 <safe_add_func_int64_t_s_s+0x61>
    9895:	48 8b 55 f8          	mov    -0x8(%rbp),%rdx
    9899:	48 8b 45 f0          	mov    -0x10(%rbp),%rax
    989d:	48 01 d0             	add    %rdx,%rax
    98a0:	eb 04                	jmp    98a6 <safe_add_func_int64_t_s_s+0x65>
    98a2:	48 8b 45 f8          	mov    -0x8(%rbp),%rax
    98a6:	5d                   	pop    %rbp
    98a7:	c3                   	retq   

00000000000098a8 <safe_sub_func_int64_t_s_s>:
    98a8:	f3 0f 1e fa          	endbr64 
    98ac:	55                   	push   %rbp
    98ad:	48 89 e5             	mov    %rsp,%rbp
    98b0:	48 89 7d f8          	mov    %rdi,-0x8(%rbp)
    98b4:	48 89 75 f0          	mov    %rsi,-0x10(%rbp)
    98b8:	48 8b 45 f8          	mov    -0x8(%rbp),%rax
    98bc:	48 33 45 f0          	xor    -0x10(%rbp),%rax
    98c0:	48 89 c2             	mov    %rax,%rdx
    98c3:	48 8b 45 f8          	mov    -0x8(%rbp),%rax
    98c7:	48 33 45 f0          	xor    -0x10(%rbp),%rax
    98cb:	48 b9 00 00 00 00 00 	movabs $0x8000000000000000,%rcx
    98d2:	00 00 80 
    98d5:	48 21 c8             	and    %rcx,%rax
    98d8:	48 33 45 f8          	xor    -0x8(%rbp),%rax
    98dc:	48 2b 45 f0          	sub    -0x10(%rbp),%rax
    98e0:	48 33 45 f0          	xor    -0x10(%rbp),%rax
    98e4:	48 21 d0             	and    %rdx,%rax
    98e7:	48 85 c0             	test   %rax,%rax
    98ea:	78 0a                	js     98f6 <safe_sub_func_int64_t_s_s+0x4e>
    98ec:	48 8b 45 f8          	mov    -0x8(%rbp),%rax
    98f0:	48 2b 45 f0          	sub    -0x10(%rbp),%rax
    98f4:	eb 04                	jmp    98fa <safe_sub_func_int64_t_s_s+0x52>
    98f6:	48 8b 45 f8          	mov    -0x8(%rbp),%rax
    98fa:	5d                   	pop    %rbp
    98fb:	c3                   	retq   

00000000000098fc <safe_mul_func_int64_t_s_s>:
    98fc:	f3 0f 1e fa          	endbr64 
    9900:	55                   	push   %rbp
    9901:	48 89 e5             	mov    %rsp,%rbp
    9904:	48 89 7d f8          	mov    %rdi,-0x8(%rbp)
    9908:	48 89 75 f0          	mov    %rsi,-0x10(%rbp)
    990c:	48 83 7d f8 00       	cmpq   $0x0,-0x8(%rbp)
    9911:	7e 1d                	jle    9930 <safe_mul_func_int64_t_s_s+0x34>
    9913:	48 83 7d f0 00       	cmpq   $0x0,-0x10(%rbp)
    9918:	7e 16                	jle    9930 <safe_mul_func_int64_t_s_s+0x34>
    991a:	48 b8 ff ff ff ff ff 	movabs $0x7fffffffffffffff,%rax
    9921:	ff ff 7f 
    9924:	48 99                	cqto   
    9926:	48 f7 7d f0          	idivq  -0x10(%rbp)
    992a:	48 39 45 f8          	cmp    %rax,-0x8(%rbp)
    992e:	7f 7e                	jg     99ae <safe_mul_func_int64_t_s_s+0xb2>
    9930:	48 83 7d f8 00       	cmpq   $0x0,-0x8(%rbp)
    9935:	7e 1d                	jle    9954 <safe_mul_func_int64_t_s_s+0x58>
    9937:	48 83 7d f0 00       	cmpq   $0x0,-0x10(%rbp)
    993c:	7f 16                	jg     9954 <safe_mul_func_int64_t_s_s+0x58>
    993e:	48 b8 00 00 00 00 00 	movabs $0x8000000000000000,%rax
    9945:	00 00 80 
    9948:	48 99                	cqto   
    994a:	48 f7 7d f8          	idivq  -0x8(%rbp)
    994e:	48 39 45 f0          	cmp    %rax,-0x10(%rbp)
    9952:	7c 5a                	jl     99ae <safe_mul_func_int64_t_s_s+0xb2>
    9954:	48 83 7d f8 00       	cmpq   $0x0,-0x8(%rbp)
    9959:	7f 1d                	jg     9978 <safe_mul_func_int64_t_s_s+0x7c>
    995b:	48 83 7d f0 00       	cmpq   $0x0,-0x10(%rbp)
    9960:	7e 16                	jle    9978 <safe_mul_func_int64_t_s_s+0x7c>
    9962:	48 b8 00 00 00 00 00 	movabs $0x8000000000000000,%rax
    9969:	00 00 80 
    996c:	48 99                	cqto   
    996e:	48 f7 7d f0          	idivq  -0x10(%rbp)
    9972:	48 39 45 f8          	cmp    %rax,-0x8(%rbp)
    9976:	7c 36                	jl     99ae <safe_mul_func_int64_t_s_s+0xb2>
    9978:	48 83 7d f8 00       	cmpq   $0x0,-0x8(%rbp)
    997d:	7f 24                	jg     99a3 <safe_mul_func_int64_t_s_s+0xa7>
    997f:	48 83 7d f0 00       	cmpq   $0x0,-0x10(%rbp)
    9984:	7f 1d                	jg     99a3 <safe_mul_func_int64_t_s_s+0xa7>
    9986:	48 83 7d f8 00       	cmpq   $0x0,-0x8(%rbp)
    998b:	74 16                	je     99a3 <safe_mul_func_int64_t_s_s+0xa7>
    998d:	48 b8 ff ff ff ff ff 	movabs $0x7fffffffffffffff,%rax
    9994:	ff ff 7f 
    9997:	48 99                	cqto   
    9999:	48 f7 7d f8          	idivq  -0x8(%rbp)
    999d:	48 39 45 f0          	cmp    %rax,-0x10(%rbp)
    99a1:	7c 0b                	jl     99ae <safe_mul_func_int64_t_s_s+0xb2>
    99a3:	48 8b 45 f8          	mov    -0x8(%rbp),%rax
    99a7:	48 0f af 45 f0       	imul   -0x10(%rbp),%rax
    99ac:	eb 04                	jmp    99b2 <safe_mul_func_int64_t_s_s+0xb6>
    99ae:	48 8b 45 f8          	mov    -0x8(%rbp),%rax
    99b2:	5d                   	pop    %rbp
    99b3:	c3                   	retq   

00000000000099b4 <safe_mod_func_int64_t_s_s>:
    99b4:	f3 0f 1e fa          	endbr64 
    99b8:	55                   	push   %rbp
    99b9:	48 89 e5             	mov    %rsp,%rbp
    99bc:	48 89 7d f8          	mov    %rdi,-0x8(%rbp)
    99c0:	48 89 75 f0          	mov    %rsi,-0x10(%rbp)
    99c4:	48 83 7d f0 00       	cmpq   $0x0,-0x10(%rbp)
    99c9:	74 26                	je     99f1 <safe_mod_func_int64_t_s_s+0x3d>
    99cb:	48 b8 00 00 00 00 00 	movabs $0x8000000000000000,%rax
    99d2:	00 00 80 
    99d5:	48 39 45 f8          	cmp    %rax,-0x8(%rbp)
    99d9:	75 07                	jne    99e2 <safe_mod_func_int64_t_s_s+0x2e>
    99db:	48 83 7d f0 ff       	cmpq   $0xffffffffffffffff,-0x10(%rbp)
    99e0:	74 0f                	je     99f1 <safe_mod_func_int64_t_s_s+0x3d>
    99e2:	48 8b 45 f8          	mov    -0x8(%rbp),%rax
    99e6:	48 99                	cqto   
    99e8:	48 f7 7d f0          	idivq  -0x10(%rbp)
    99ec:	48 89 d0             	mov    %rdx,%rax
    99ef:	eb 04                	jmp    99f5 <safe_mod_func_int64_t_s_s+0x41>
    99f1:	48 8b 45 f8          	mov    -0x8(%rbp),%rax
    99f5:	5d                   	pop    %rbp
    99f6:	c3                   	retq   

00000000000099f7 <safe_div_func_int64_t_s_s>:
    99f7:	f3 0f 1e fa          	endbr64 
    99fb:	55                   	push   %rbp
    99fc:	48 89 e5             	mov    %rsp,%rbp
    99ff:	48 89 7d f8          	mov    %rdi,-0x8(%rbp)
    9a03:	48 89 75 f0          	mov    %rsi,-0x10(%rbp)
    9a07:	48 83 7d f0 00       	cmpq   $0x0,-0x10(%rbp)
    9a0c:	74 23                	je     9a31 <safe_div_func_int64_t_s_s+0x3a>
    9a0e:	48 b8 00 00 00 00 00 	movabs $0x8000000000000000,%rax
    9a15:	00 00 80 
    9a18:	48 39 45 f8          	cmp    %rax,-0x8(%rbp)
    9a1c:	75 07                	jne    9a25 <safe_div_func_int64_t_s_s+0x2e>
    9a1e:	48 83 7d f0 ff       	cmpq   $0xffffffffffffffff,-0x10(%rbp)
    9a23:	74 0c                	je     9a31 <safe_div_func_int64_t_s_s+0x3a>
    9a25:	48 8b 45 f8          	mov    -0x8(%rbp),%rax
    9a29:	48 99                	cqto   
    9a2b:	48 f7 7d f0          	idivq  -0x10(%rbp)
    9a2f:	eb 04                	jmp    9a35 <safe_div_func_int64_t_s_s+0x3e>
    9a31:	48 8b 45 f8          	mov    -0x8(%rbp),%rax
    9a35:	5d                   	pop    %rbp
    9a36:	c3                   	retq   

0000000000009a37 <safe_lshift_func_int64_t_s_s>:
    9a37:	f3 0f 1e fa          	endbr64 
    9a3b:	55                   	push   %rbp
    9a3c:	48 89 e5             	mov    %rsp,%rbp
    9a3f:	48 89 7d f8          	mov    %rdi,-0x8(%rbp)
    9a43:	89 75 f4             	mov    %esi,-0xc(%rbp)
    9a46:	48 83 7d f8 00       	cmpq   $0x0,-0x8(%rbp)
    9a4b:	78 38                	js     9a85 <safe_lshift_func_int64_t_s_s+0x4e>
    9a4d:	83 7d f4 00          	cmpl   $0x0,-0xc(%rbp)
    9a51:	78 32                	js     9a85 <safe_lshift_func_int64_t_s_s+0x4e>
    9a53:	83 7d f4 1f          	cmpl   $0x1f,-0xc(%rbp)
    9a57:	7f 2c                	jg     9a85 <safe_lshift_func_int64_t_s_s+0x4e>
    9a59:	8b 45 f4             	mov    -0xc(%rbp),%eax
    9a5c:	48 ba ff ff ff ff ff 	movabs $0x7fffffffffffffff,%rdx
    9a63:	ff ff 7f 
    9a66:	89 c1                	mov    %eax,%ecx
    9a68:	48 d3 fa             	sar    %cl,%rdx
    9a6b:	48 89 d0             	mov    %rdx,%rax
    9a6e:	48 39 45 f8          	cmp    %rax,-0x8(%rbp)
    9a72:	7f 11                	jg     9a85 <safe_lshift_func_int64_t_s_s+0x4e>
    9a74:	8b 45 f4             	mov    -0xc(%rbp),%eax
    9a77:	48 8b 55 f8          	mov    -0x8(%rbp),%rdx
    9a7b:	89 c1                	mov    %eax,%ecx
    9a7d:	48 d3 e2             	shl    %cl,%rdx
    9a80:	48 89 d0             	mov    %rdx,%rax
    9a83:	eb 04                	jmp    9a89 <safe_lshift_func_int64_t_s_s+0x52>
    9a85:	48 8b 45 f8          	mov    -0x8(%rbp),%rax
    9a89:	5d                   	pop    %rbp
    9a8a:	c3                   	retq   

0000000000009a8b <safe_lshift_func_int64_t_s_u>:
    9a8b:	f3 0f 1e fa          	endbr64 
    9a8f:	55                   	push   %rbp
    9a90:	48 89 e5             	mov    %rsp,%rbp
    9a93:	48 89 7d f8          	mov    %rdi,-0x8(%rbp)
    9a97:	89 75 f4             	mov    %esi,-0xc(%rbp)
    9a9a:	48 83 7d f8 00       	cmpq   $0x0,-0x8(%rbp)
    9a9f:	78 32                	js     9ad3 <safe_lshift_func_int64_t_s_u+0x48>
    9aa1:	83 7d f4 1f          	cmpl   $0x1f,-0xc(%rbp)
    9aa5:	77 2c                	ja     9ad3 <safe_lshift_func_int64_t_s_u+0x48>
    9aa7:	8b 45 f4             	mov    -0xc(%rbp),%eax
    9aaa:	48 ba ff ff ff ff ff 	movabs $0x7fffffffffffffff,%rdx
    9ab1:	ff ff 7f 
    9ab4:	89 c1                	mov    %eax,%ecx
    9ab6:	48 d3 fa             	sar    %cl,%rdx
    9ab9:	48 89 d0             	mov    %rdx,%rax
    9abc:	48 39 45 f8          	cmp    %rax,-0x8(%rbp)
    9ac0:	7f 11                	jg     9ad3 <safe_lshift_func_int64_t_s_u+0x48>
    9ac2:	8b 45 f4             	mov    -0xc(%rbp),%eax
    9ac5:	48 8b 55 f8          	mov    -0x8(%rbp),%rdx
    9ac9:	89 c1                	mov    %eax,%ecx
    9acb:	48 d3 e2             	shl    %cl,%rdx
    9ace:	48 89 d0             	mov    %rdx,%rax
    9ad1:	eb 04                	jmp    9ad7 <safe_lshift_func_int64_t_s_u+0x4c>
    9ad3:	48 8b 45 f8          	mov    -0x8(%rbp),%rax
    9ad7:	5d                   	pop    %rbp
    9ad8:	c3                   	retq   

0000000000009ad9 <safe_rshift_func_int64_t_s_s>:
    9ad9:	f3 0f 1e fa          	endbr64 
    9add:	55                   	push   %rbp
    9ade:	48 89 e5             	mov    %rsp,%rbp
    9ae1:	48 89 7d f8          	mov    %rdi,-0x8(%rbp)
    9ae5:	89 75 f4             	mov    %esi,-0xc(%rbp)
    9ae8:	48 83 7d f8 00       	cmpq   $0x0,-0x8(%rbp)
    9aed:	78 1d                	js     9b0c <safe_rshift_func_int64_t_s_s+0x33>
    9aef:	83 7d f4 00          	cmpl   $0x0,-0xc(%rbp)
    9af3:	78 17                	js     9b0c <safe_rshift_func_int64_t_s_s+0x33>
    9af5:	83 7d f4 1f          	cmpl   $0x1f,-0xc(%rbp)
    9af9:	7f 11                	jg     9b0c <safe_rshift_func_int64_t_s_s+0x33>
    9afb:	8b 45 f4             	mov    -0xc(%rbp),%eax
    9afe:	48 8b 55 f8          	mov    -0x8(%rbp),%rdx
    9b02:	89 c1                	mov    %eax,%ecx
    9b04:	48 d3 fa             	sar    %cl,%rdx
    9b07:	48 89 d0             	mov    %rdx,%rax
    9b0a:	eb 04                	jmp    9b10 <safe_rshift_func_int64_t_s_s+0x37>
    9b0c:	48 8b 45 f8          	mov    -0x8(%rbp),%rax
    9b10:	5d                   	pop    %rbp
    9b11:	c3                   	retq   

0000000000009b12 <safe_rshift_func_int64_t_s_u>:
    9b12:	f3 0f 1e fa          	endbr64 
    9b16:	55                   	push   %rbp
    9b17:	48 89 e5             	mov    %rsp,%rbp
    9b1a:	48 89 7d f8          	mov    %rdi,-0x8(%rbp)
    9b1e:	89 75 f4             	mov    %esi,-0xc(%rbp)
    9b21:	48 83 7d f8 00       	cmpq   $0x0,-0x8(%rbp)
    9b26:	78 17                	js     9b3f <safe_rshift_func_int64_t_s_u+0x2d>
    9b28:	83 7d f4 1f          	cmpl   $0x1f,-0xc(%rbp)
    9b2c:	77 11                	ja     9b3f <safe_rshift_func_int64_t_s_u+0x2d>
    9b2e:	8b 45 f4             	mov    -0xc(%rbp),%eax
    9b31:	48 8b 55 f8          	mov    -0x8(%rbp),%rdx
    9b35:	89 c1                	mov    %eax,%ecx
    9b37:	48 d3 fa             	sar    %cl,%rdx
    9b3a:	48 89 d0             	mov    %rdx,%rax
    9b3d:	eb 04                	jmp    9b43 <safe_rshift_func_int64_t_s_u+0x31>
    9b3f:	48 8b 45 f8          	mov    -0x8(%rbp),%rax
    9b43:	5d                   	pop    %rbp
    9b44:	c3                   	retq   

0000000000009b45 <safe_unary_minus_func_uint8_t_u>:
    9b45:	f3 0f 1e fa          	endbr64 
    9b49:	55                   	push   %rbp
    9b4a:	48 89 e5             	mov    %rsp,%rbp
    9b4d:	89 f8                	mov    %edi,%eax
    9b4f:	88 45 fc             	mov    %al,-0x4(%rbp)
    9b52:	0f b6 45 fc          	movzbl -0x4(%rbp),%eax
    9b56:	f7 d8                	neg    %eax
    9b58:	5d                   	pop    %rbp
    9b59:	c3                   	retq   

0000000000009b5a <safe_add_func_uint8_t_u_u>:
    9b5a:	f3 0f 1e fa          	endbr64 
    9b5e:	55                   	push   %rbp
    9b5f:	48 89 e5             	mov    %rsp,%rbp
    9b62:	89 fa                	mov    %edi,%edx
    9b64:	89 f0                	mov    %esi,%eax
    9b66:	88 55 fc             	mov    %dl,-0x4(%rbp)
    9b69:	88 45 f8             	mov    %al,-0x8(%rbp)
    9b6c:	0f b6 55 fc          	movzbl -0x4(%rbp),%edx
    9b70:	0f b6 45 f8          	movzbl -0x8(%rbp),%eax
    9b74:	01 d0                	add    %edx,%eax
    9b76:	5d                   	pop    %rbp
    9b77:	c3                   	retq   

0000000000009b78 <safe_sub_func_uint8_t_u_u>:
    9b78:	f3 0f 1e fa          	endbr64 
    9b7c:	55                   	push   %rbp
    9b7d:	48 89 e5             	mov    %rsp,%rbp
    9b80:	89 fa                	mov    %edi,%edx
    9b82:	89 f0                	mov    %esi,%eax
    9b84:	88 55 fc             	mov    %dl,-0x4(%rbp)
    9b87:	88 45 f8             	mov    %al,-0x8(%rbp)
    9b8a:	0f b6 45 fc          	movzbl -0x4(%rbp),%eax
    9b8e:	2a 45 f8             	sub    -0x8(%rbp),%al
    9b91:	5d                   	pop    %rbp
    9b92:	c3                   	retq   

0000000000009b93 <safe_mul_func_uint8_t_u_u>:
    9b93:	f3 0f 1e fa          	endbr64 
    9b97:	55                   	push   %rbp
    9b98:	48 89 e5             	mov    %rsp,%rbp
    9b9b:	89 fa                	mov    %edi,%edx
    9b9d:	89 f0                	mov    %esi,%eax
    9b9f:	88 55 fc             	mov    %dl,-0x4(%rbp)
    9ba2:	88 45 f8             	mov    %al,-0x8(%rbp)
    9ba5:	0f b6 45 fc          	movzbl -0x4(%rbp),%eax
    9ba9:	f6 65 f8             	mulb   -0x8(%rbp)
    9bac:	5d                   	pop    %rbp
    9bad:	c3                   	retq   

0000000000009bae <safe_mod_func_uint8_t_u_u>:
    9bae:	f3 0f 1e fa          	endbr64 
    9bb2:	55                   	push   %rbp
    9bb3:	48 89 e5             	mov    %rsp,%rbp
    9bb6:	89 fa                	mov    %edi,%edx
    9bb8:	89 f0                	mov    %esi,%eax
    9bba:	88 55 fc             	mov    %dl,-0x4(%rbp)
    9bbd:	88 45 f8             	mov    %al,-0x8(%rbp)
    9bc0:	80 7d f8 00          	cmpb   $0x0,-0x8(%rbp)
    9bc4:	74 0f                	je     9bd5 <safe_mod_func_uint8_t_u_u+0x27>
    9bc6:	0f b6 45 fc          	movzbl -0x4(%rbp),%eax
    9bca:	0f b6 c0             	movzbl %al,%eax
    9bcd:	f6 75 f8             	divb   -0x8(%rbp)
    9bd0:	0f b6 c4             	movzbl %ah,%eax
    9bd3:	eb 04                	jmp    9bd9 <safe_mod_func_uint8_t_u_u+0x2b>
    9bd5:	0f b6 45 fc          	movzbl -0x4(%rbp),%eax
    9bd9:	5d                   	pop    %rbp
    9bda:	c3                   	retq   

0000000000009bdb <safe_div_func_uint8_t_u_u>:
    9bdb:	f3 0f 1e fa          	endbr64 
    9bdf:	55                   	push   %rbp
    9be0:	48 89 e5             	mov    %rsp,%rbp
    9be3:	89 fa                	mov    %edi,%edx
    9be5:	89 f0                	mov    %esi,%eax
    9be7:	88 55 fc             	mov    %dl,-0x4(%rbp)
    9bea:	88 45 f8             	mov    %al,-0x8(%rbp)
    9bed:	80 7d f8 00          	cmpb   $0x0,-0x8(%rbp)
    9bf1:	74 0c                	je     9bff <safe_div_func_uint8_t_u_u+0x24>
    9bf3:	0f b6 45 fc          	movzbl -0x4(%rbp),%eax
    9bf7:	0f b6 c0             	movzbl %al,%eax
    9bfa:	f6 75 f8             	divb   -0x8(%rbp)
    9bfd:	eb 04                	jmp    9c03 <safe_div_func_uint8_t_u_u+0x28>
    9bff:	0f b6 45 fc          	movzbl -0x4(%rbp),%eax
    9c03:	5d                   	pop    %rbp
    9c04:	c3                   	retq   

0000000000009c05 <safe_lshift_func_uint8_t_u_s>:
    9c05:	f3 0f 1e fa          	endbr64 
    9c09:	55                   	push   %rbp
    9c0a:	48 89 e5             	mov    %rsp,%rbp
    9c0d:	89 f8                	mov    %edi,%eax
    9c0f:	89 75 f8             	mov    %esi,-0x8(%rbp)
    9c12:	88 45 fc             	mov    %al,-0x4(%rbp)
    9c15:	83 7d f8 00          	cmpl   $0x0,-0x8(%rbp)
    9c19:	78 2b                	js     9c46 <safe_lshift_func_uint8_t_u_s+0x41>
    9c1b:	83 7d f8 1f          	cmpl   $0x1f,-0x8(%rbp)
    9c1f:	7f 25                	jg     9c46 <safe_lshift_func_uint8_t_u_s+0x41>
    9c21:	0f b6 55 fc          	movzbl -0x4(%rbp),%edx
    9c25:	8b 45 f8             	mov    -0x8(%rbp),%eax
    9c28:	be ff 00 00 00       	mov    $0xff,%esi
    9c2d:	89 c1                	mov    %eax,%ecx
    9c2f:	d3 fe                	sar    %cl,%esi
    9c31:	89 f0                	mov    %esi,%eax
    9c33:	39 c2                	cmp    %eax,%edx
    9c35:	7f 0f                	jg     9c46 <safe_lshift_func_uint8_t_u_s+0x41>
    9c37:	0f b6 55 fc          	movzbl -0x4(%rbp),%edx
    9c3b:	8b 45 f8             	mov    -0x8(%rbp),%eax
    9c3e:	89 c1                	mov    %eax,%ecx
    9c40:	d3 e2                	shl    %cl,%edx
    9c42:	89 d0                	mov    %edx,%eax
    9c44:	eb 04                	jmp    9c4a <safe_lshift_func_uint8_t_u_s+0x45>
    9c46:	0f b6 45 fc          	movzbl -0x4(%rbp),%eax
    9c4a:	5d                   	pop    %rbp
    9c4b:	c3                   	retq   

0000000000009c4c <safe_lshift_func_uint8_t_u_u>:
    9c4c:	f3 0f 1e fa          	endbr64 
    9c50:	55                   	push   %rbp
    9c51:	48 89 e5             	mov    %rsp,%rbp
    9c54:	89 f8                	mov    %edi,%eax
    9c56:	89 75 f8             	mov    %esi,-0x8(%rbp)
    9c59:	88 45 fc             	mov    %al,-0x4(%rbp)
    9c5c:	83 7d f8 1f          	cmpl   $0x1f,-0x8(%rbp)
    9c60:	77 25                	ja     9c87 <safe_lshift_func_uint8_t_u_u+0x3b>
    9c62:	0f b6 55 fc          	movzbl -0x4(%rbp),%edx
    9c66:	8b 45 f8             	mov    -0x8(%rbp),%eax
    9c69:	be ff 00 00 00       	mov    $0xff,%esi
    9c6e:	89 c1                	mov    %eax,%ecx
    9c70:	d3 fe                	sar    %cl,%esi
    9c72:	89 f0                	mov    %esi,%eax
    9c74:	39 c2                	cmp    %eax,%edx
    9c76:	7f 0f                	jg     9c87 <safe_lshift_func_uint8_t_u_u+0x3b>
    9c78:	0f b6 55 fc          	movzbl -0x4(%rbp),%edx
    9c7c:	8b 45 f8             	mov    -0x8(%rbp),%eax
    9c7f:	89 c1                	mov    %eax,%ecx
    9c81:	d3 e2                	shl    %cl,%edx
    9c83:	89 d0                	mov    %edx,%eax
    9c85:	eb 04                	jmp    9c8b <safe_lshift_func_uint8_t_u_u+0x3f>
    9c87:	0f b6 45 fc          	movzbl -0x4(%rbp),%eax
    9c8b:	5d                   	pop    %rbp
    9c8c:	c3                   	retq   

0000000000009c8d <safe_rshift_func_uint8_t_u_s>:
    9c8d:	f3 0f 1e fa          	endbr64 
    9c91:	55                   	push   %rbp
    9c92:	48 89 e5             	mov    %rsp,%rbp
    9c95:	89 f8                	mov    %edi,%eax
    9c97:	89 75 f8             	mov    %esi,-0x8(%rbp)
    9c9a:	88 45 fc             	mov    %al,-0x4(%rbp)
    9c9d:	83 7d f8 00          	cmpl   $0x0,-0x8(%rbp)
    9ca1:	78 15                	js     9cb8 <safe_rshift_func_uint8_t_u_s+0x2b>
    9ca3:	83 7d f8 1f          	cmpl   $0x1f,-0x8(%rbp)
    9ca7:	7f 0f                	jg     9cb8 <safe_rshift_func_uint8_t_u_s+0x2b>
    9ca9:	0f b6 55 fc          	movzbl -0x4(%rbp),%edx
    9cad:	8b 45 f8             	mov    -0x8(%rbp),%eax
    9cb0:	89 c1                	mov    %eax,%ecx
    9cb2:	d3 fa                	sar    %cl,%edx
    9cb4:	89 d0                	mov    %edx,%eax
    9cb6:	eb 04                	jmp    9cbc <safe_rshift_func_uint8_t_u_s+0x2f>
    9cb8:	0f b6 45 fc          	movzbl -0x4(%rbp),%eax
    9cbc:	5d                   	pop    %rbp
    9cbd:	c3                   	retq   

0000000000009cbe <safe_rshift_func_uint8_t_u_u>:
    9cbe:	f3 0f 1e fa          	endbr64 
    9cc2:	55                   	push   %rbp
    9cc3:	48 89 e5             	mov    %rsp,%rbp
    9cc6:	89 f8                	mov    %edi,%eax
    9cc8:	89 75 f8             	mov    %esi,-0x8(%rbp)
    9ccb:	88 45 fc             	mov    %al,-0x4(%rbp)
    9cce:	83 7d f8 1f          	cmpl   $0x1f,-0x8(%rbp)
    9cd2:	77 0f                	ja     9ce3 <safe_rshift_func_uint8_t_u_u+0x25>
    9cd4:	0f b6 55 fc          	movzbl -0x4(%rbp),%edx
    9cd8:	8b 45 f8             	mov    -0x8(%rbp),%eax
    9cdb:	89 c1                	mov    %eax,%ecx
    9cdd:	d3 fa                	sar    %cl,%edx
    9cdf:	89 d0                	mov    %edx,%eax
    9ce1:	eb 04                	jmp    9ce7 <safe_rshift_func_uint8_t_u_u+0x29>
    9ce3:	0f b6 45 fc          	movzbl -0x4(%rbp),%eax
    9ce7:	5d                   	pop    %rbp
    9ce8:	c3                   	retq   

0000000000009ce9 <safe_unary_minus_func_uint16_t_u>:
    9ce9:	f3 0f 1e fa          	endbr64 
    9ced:	55                   	push   %rbp
    9cee:	48 89 e5             	mov    %rsp,%rbp
    9cf1:	89 f8                	mov    %edi,%eax
    9cf3:	66 89 45 fc          	mov    %ax,-0x4(%rbp)
    9cf7:	0f b7 45 fc          	movzwl -0x4(%rbp),%eax
    9cfb:	f7 d8                	neg    %eax
    9cfd:	5d                   	pop    %rbp
    9cfe:	c3                   	retq   

0000000000009cff <safe_add_func_uint16_t_u_u>:
    9cff:	f3 0f 1e fa          	endbr64 
    9d03:	55                   	push   %rbp
    9d04:	48 89 e5             	mov    %rsp,%rbp
    9d07:	89 fa                	mov    %edi,%edx
    9d09:	89 f0                	mov    %esi,%eax
    9d0b:	66 89 55 fc          	mov    %dx,-0x4(%rbp)
    9d0f:	66 89 45 f8          	mov    %ax,-0x8(%rbp)
    9d13:	0f b7 55 fc          	movzwl -0x4(%rbp),%edx
    9d17:	0f b7 45 f8          	movzwl -0x8(%rbp),%eax
    9d1b:	01 d0                	add    %edx,%eax
    9d1d:	5d                   	pop    %rbp
    9d1e:	c3                   	retq   

0000000000009d1f <safe_sub_func_uint16_t_u_u>:
    9d1f:	f3 0f 1e fa          	endbr64 
    9d23:	55                   	push   %rbp
    9d24:	48 89 e5             	mov    %rsp,%rbp
    9d27:	89 fa                	mov    %edi,%edx
    9d29:	89 f0                	mov    %esi,%eax
    9d2b:	66 89 55 fc          	mov    %dx,-0x4(%rbp)
    9d2f:	66 89 45 f8          	mov    %ax,-0x8(%rbp)
    9d33:	0f b7 45 fc          	movzwl -0x4(%rbp),%eax
    9d37:	66 2b 45 f8          	sub    -0x8(%rbp),%ax
    9d3b:	5d                   	pop    %rbp
    9d3c:	c3                   	retq   

0000000000009d3d <safe_mul_func_uint16_t_u_u>:
    9d3d:	f3 0f 1e fa          	endbr64 
    9d41:	55                   	push   %rbp
    9d42:	48 89 e5             	mov    %rsp,%rbp
    9d45:	89 fa                	mov    %edi,%edx
    9d47:	89 f0                	mov    %esi,%eax
    9d49:	66 89 55 fc          	mov    %dx,-0x4(%rbp)
    9d4d:	66 89 45 f8          	mov    %ax,-0x8(%rbp)
    9d51:	0f b7 45 fc          	movzwl -0x4(%rbp),%eax
    9d55:	66 0f af 45 f8       	imul   -0x8(%rbp),%ax
    9d5a:	5d                   	pop    %rbp
    9d5b:	c3                   	retq   

0000000000009d5c <safe_mod_func_uint16_t_u_u>:
    9d5c:	f3 0f 1e fa          	endbr64 
    9d60:	55                   	push   %rbp
    9d61:	48 89 e5             	mov    %rsp,%rbp
    9d64:	89 fa                	mov    %edi,%edx
    9d66:	89 f0                	mov    %esi,%eax
    9d68:	66 89 55 fc          	mov    %dx,-0x4(%rbp)
    9d6c:	66 89 45 f8          	mov    %ax,-0x8(%rbp)
    9d70:	66 83 7d f8 00       	cmpw   $0x0,-0x8(%rbp)
    9d75:	74 11                	je     9d88 <safe_mod_func_uint16_t_u_u+0x2c>
    9d77:	0f b7 45 fc          	movzwl -0x4(%rbp),%eax
    9d7b:	ba 00 00 00 00       	mov    $0x0,%edx
    9d80:	66 f7 75 f8          	divw   -0x8(%rbp)
    9d84:	89 d0                	mov    %edx,%eax
    9d86:	eb 04                	jmp    9d8c <safe_mod_func_uint16_t_u_u+0x30>
    9d88:	0f b7 45 fc          	movzwl -0x4(%rbp),%eax
    9d8c:	5d                   	pop    %rbp
    9d8d:	c3                   	retq   

0000000000009d8e <safe_div_func_uint16_t_u_u>:
    9d8e:	f3 0f 1e fa          	endbr64 
    9d92:	55                   	push   %rbp
    9d93:	48 89 e5             	mov    %rsp,%rbp
    9d96:	89 fa                	mov    %edi,%edx
    9d98:	89 f0                	mov    %esi,%eax
    9d9a:	66 89 55 fc          	mov    %dx,-0x4(%rbp)
    9d9e:	66 89 45 f8          	mov    %ax,-0x8(%rbp)
    9da2:	66 83 7d f8 00       	cmpw   $0x0,-0x8(%rbp)
    9da7:	74 0f                	je     9db8 <safe_div_func_uint16_t_u_u+0x2a>
    9da9:	0f b7 45 fc          	movzwl -0x4(%rbp),%eax
    9dad:	ba 00 00 00 00       	mov    $0x0,%edx
    9db2:	66 f7 75 f8          	divw   -0x8(%rbp)
    9db6:	eb 04                	jmp    9dbc <safe_div_func_uint16_t_u_u+0x2e>
    9db8:	0f b7 45 fc          	movzwl -0x4(%rbp),%eax
    9dbc:	5d                   	pop    %rbp
    9dbd:	c3                   	retq   

0000000000009dbe <safe_lshift_func_uint16_t_u_s>:
    9dbe:	f3 0f 1e fa          	endbr64 
    9dc2:	55                   	push   %rbp
    9dc3:	48 89 e5             	mov    %rsp,%rbp
    9dc6:	89 f8                	mov    %edi,%eax
    9dc8:	89 75 f8             	mov    %esi,-0x8(%rbp)
    9dcb:	66 89 45 fc          	mov    %ax,-0x4(%rbp)
    9dcf:	83 7d f8 00          	cmpl   $0x0,-0x8(%rbp)
    9dd3:	78 2b                	js     9e00 <safe_lshift_func_uint16_t_u_s+0x42>
    9dd5:	83 7d f8 1f          	cmpl   $0x1f,-0x8(%rbp)
    9dd9:	7f 25                	jg     9e00 <safe_lshift_func_uint16_t_u_s+0x42>
    9ddb:	0f b7 55 fc          	movzwl -0x4(%rbp),%edx
    9ddf:	8b 45 f8             	mov    -0x8(%rbp),%eax
    9de2:	be ff ff 00 00       	mov    $0xffff,%esi
    9de7:	89 c1                	mov    %eax,%ecx
    9de9:	d3 fe                	sar    %cl,%esi
    9deb:	89 f0                	mov    %esi,%eax
    9ded:	39 c2                	cmp    %eax,%edx
    9def:	7f 0f                	jg     9e00 <safe_lshift_func_uint16_t_u_s+0x42>
    9df1:	0f b7 55 fc          	movzwl -0x4(%rbp),%edx
    9df5:	8b 45 f8             	mov    -0x8(%rbp),%eax
    9df8:	89 c1                	mov    %eax,%ecx
    9dfa:	d3 e2                	shl    %cl,%edx
    9dfc:	89 d0                	mov    %edx,%eax
    9dfe:	eb 04                	jmp    9e04 <safe_lshift_func_uint16_t_u_s+0x46>
    9e00:	0f b7 45 fc          	movzwl -0x4(%rbp),%eax
    9e04:	5d                   	pop    %rbp
    9e05:	c3                   	retq   

0000000000009e06 <safe_lshift_func_uint16_t_u_u>:
    9e06:	f3 0f 1e fa          	endbr64 
    9e0a:	55                   	push   %rbp
    9e0b:	48 89 e5             	mov    %rsp,%rbp
    9e0e:	89 f8                	mov    %edi,%eax
    9e10:	89 75 f8             	mov    %esi,-0x8(%rbp)
    9e13:	66 89 45 fc          	mov    %ax,-0x4(%rbp)
    9e17:	83 7d f8 1f          	cmpl   $0x1f,-0x8(%rbp)
    9e1b:	77 25                	ja     9e42 <safe_lshift_func_uint16_t_u_u+0x3c>
    9e1d:	0f b7 55 fc          	movzwl -0x4(%rbp),%edx
    9e21:	8b 45 f8             	mov    -0x8(%rbp),%eax
    9e24:	be ff ff 00 00       	mov    $0xffff,%esi
    9e29:	89 c1                	mov    %eax,%ecx
    9e2b:	d3 fe                	sar    %cl,%esi
    9e2d:	89 f0                	mov    %esi,%eax
    9e2f:	39 c2                	cmp    %eax,%edx
    9e31:	7f 0f                	jg     9e42 <safe_lshift_func_uint16_t_u_u+0x3c>
    9e33:	0f b7 55 fc          	movzwl -0x4(%rbp),%edx
    9e37:	8b 45 f8             	mov    -0x8(%rbp),%eax
    9e3a:	89 c1                	mov    %eax,%ecx
    9e3c:	d3 e2                	shl    %cl,%edx
    9e3e:	89 d0                	mov    %edx,%eax
    9e40:	eb 04                	jmp    9e46 <safe_lshift_func_uint16_t_u_u+0x40>
    9e42:	0f b7 45 fc          	movzwl -0x4(%rbp),%eax
    9e46:	5d                   	pop    %rbp
    9e47:	c3                   	retq   

0000000000009e48 <safe_rshift_func_uint16_t_u_s>:
    9e48:	f3 0f 1e fa          	endbr64 
    9e4c:	55                   	push   %rbp
    9e4d:	48 89 e5             	mov    %rsp,%rbp
    9e50:	89 f8                	mov    %edi,%eax
    9e52:	89 75 f8             	mov    %esi,-0x8(%rbp)
    9e55:	66 89 45 fc          	mov    %ax,-0x4(%rbp)
    9e59:	83 7d f8 00          	cmpl   $0x0,-0x8(%rbp)
    9e5d:	78 15                	js     9e74 <safe_rshift_func_uint16_t_u_s+0x2c>
    9e5f:	83 7d f8 1f          	cmpl   $0x1f,-0x8(%rbp)
    9e63:	7f 0f                	jg     9e74 <safe_rshift_func_uint16_t_u_s+0x2c>
    9e65:	0f b7 55 fc          	movzwl -0x4(%rbp),%edx
    9e69:	8b 45 f8             	mov    -0x8(%rbp),%eax
    9e6c:	89 c1                	mov    %eax,%ecx
    9e6e:	d3 fa                	sar    %cl,%edx
    9e70:	89 d0                	mov    %edx,%eax
    9e72:	eb 04                	jmp    9e78 <safe_rshift_func_uint16_t_u_s+0x30>
    9e74:	0f b7 45 fc          	movzwl -0x4(%rbp),%eax
    9e78:	5d                   	pop    %rbp
    9e79:	c3                   	retq   

0000000000009e7a <safe_rshift_func_uint16_t_u_u>:
    9e7a:	f3 0f 1e fa          	endbr64 
    9e7e:	55                   	push   %rbp
    9e7f:	48 89 e5             	mov    %rsp,%rbp
    9e82:	89 f8                	mov    %edi,%eax
    9e84:	89 75 f8             	mov    %esi,-0x8(%rbp)
    9e87:	66 89 45 fc          	mov    %ax,-0x4(%rbp)
    9e8b:	83 7d f8 1f          	cmpl   $0x1f,-0x8(%rbp)
    9e8f:	77 0f                	ja     9ea0 <safe_rshift_func_uint16_t_u_u+0x26>
    9e91:	0f b7 55 fc          	movzwl -0x4(%rbp),%edx
    9e95:	8b 45 f8             	mov    -0x8(%rbp),%eax
    9e98:	89 c1                	mov    %eax,%ecx
    9e9a:	d3 fa                	sar    %cl,%edx
    9e9c:	89 d0                	mov    %edx,%eax
    9e9e:	eb 04                	jmp    9ea4 <safe_rshift_func_uint16_t_u_u+0x2a>
    9ea0:	0f b7 45 fc          	movzwl -0x4(%rbp),%eax
    9ea4:	5d                   	pop    %rbp
    9ea5:	c3                   	retq   

0000000000009ea6 <safe_unary_minus_func_uint32_t_u>:
    9ea6:	f3 0f 1e fa          	endbr64 
    9eaa:	55                   	push   %rbp
    9eab:	48 89 e5             	mov    %rsp,%rbp
    9eae:	89 7d fc             	mov    %edi,-0x4(%rbp)
    9eb1:	8b 45 fc             	mov    -0x4(%rbp),%eax
    9eb4:	f7 d8                	neg    %eax
    9eb6:	5d                   	pop    %rbp
    9eb7:	c3                   	retq   

0000000000009eb8 <safe_add_func_uint32_t_u_u>:
    9eb8:	f3 0f 1e fa          	endbr64 
    9ebc:	55                   	push   %rbp
    9ebd:	48 89 e5             	mov    %rsp,%rbp
    9ec0:	89 7d fc             	mov    %edi,-0x4(%rbp)
    9ec3:	89 75 f8             	mov    %esi,-0x8(%rbp)
    9ec6:	8b 55 fc             	mov    -0x4(%rbp),%edx
    9ec9:	8b 45 f8             	mov    -0x8(%rbp),%eax
    9ecc:	01 d0                	add    %edx,%eax
    9ece:	5d                   	pop    %rbp
    9ecf:	c3                   	retq   

0000000000009ed0 <safe_sub_func_uint32_t_u_u>:
    9ed0:	f3 0f 1e fa          	endbr64 
    9ed4:	55                   	push   %rbp
    9ed5:	48 89 e5             	mov    %rsp,%rbp
    9ed8:	89 7d fc             	mov    %edi,-0x4(%rbp)
    9edb:	89 75 f8             	mov    %esi,-0x8(%rbp)
    9ede:	8b 45 fc             	mov    -0x4(%rbp),%eax
    9ee1:	2b 45 f8             	sub    -0x8(%rbp),%eax
    9ee4:	5d                   	pop    %rbp
    9ee5:	c3                   	retq   

0000000000009ee6 <safe_mul_func_uint32_t_u_u>:
    9ee6:	f3 0f 1e fa          	endbr64 
    9eea:	55                   	push   %rbp
    9eeb:	48 89 e5             	mov    %rsp,%rbp
    9eee:	89 7d fc             	mov    %edi,-0x4(%rbp)
    9ef1:	89 75 f8             	mov    %esi,-0x8(%rbp)
    9ef4:	8b 45 fc             	mov    -0x4(%rbp),%eax
    9ef7:	0f af 45 f8          	imul   -0x8(%rbp),%eax
    9efb:	5d                   	pop    %rbp
    9efc:	c3                   	retq   

0000000000009efd <safe_mod_func_uint32_t_u_u>:
    9efd:	f3 0f 1e fa          	endbr64 
    9f01:	55                   	push   %rbp
    9f02:	48 89 e5             	mov    %rsp,%rbp
    9f05:	89 7d fc             	mov    %edi,-0x4(%rbp)
    9f08:	89 75 f8             	mov    %esi,-0x8(%rbp)
    9f0b:	83 7d f8 00          	cmpl   $0x0,-0x8(%rbp)
    9f0f:	74 0f                	je     9f20 <safe_mod_func_uint32_t_u_u+0x23>
    9f11:	8b 45 fc             	mov    -0x4(%rbp),%eax
    9f14:	ba 00 00 00 00       	mov    $0x0,%edx
    9f19:	f7 75 f8             	divl   -0x8(%rbp)
    9f1c:	89 d0                	mov    %edx,%eax
    9f1e:	eb 03                	jmp    9f23 <safe_mod_func_uint32_t_u_u+0x26>
    9f20:	8b 45 fc             	mov    -0x4(%rbp),%eax
    9f23:	5d                   	pop    %rbp
    9f24:	c3                   	retq   

0000000000009f25 <safe_div_func_uint32_t_u_u>:
    9f25:	f3 0f 1e fa          	endbr64 
    9f29:	55                   	push   %rbp
    9f2a:	48 89 e5             	mov    %rsp,%rbp
    9f2d:	89 7d fc             	mov    %edi,-0x4(%rbp)
    9f30:	89 75 f8             	mov    %esi,-0x8(%rbp)
    9f33:	83 7d f8 00          	cmpl   $0x0,-0x8(%rbp)
    9f37:	74 0d                	je     9f46 <safe_div_func_uint32_t_u_u+0x21>
    9f39:	8b 45 fc             	mov    -0x4(%rbp),%eax
    9f3c:	ba 00 00 00 00       	mov    $0x0,%edx
    9f41:	f7 75 f8             	divl   -0x8(%rbp)
    9f44:	eb 03                	jmp    9f49 <safe_div_func_uint32_t_u_u+0x24>
    9f46:	8b 45 fc             	mov    -0x4(%rbp),%eax
    9f49:	5d                   	pop    %rbp
    9f4a:	c3                   	retq   

0000000000009f4b <safe_lshift_func_uint32_t_u_s>:
    9f4b:	f3 0f 1e fa          	endbr64 
    9f4f:	55                   	push   %rbp
    9f50:	48 89 e5             	mov    %rsp,%rbp
    9f53:	89 7d fc             	mov    %edi,-0x4(%rbp)
    9f56:	89 75 f8             	mov    %esi,-0x8(%rbp)
    9f59:	83 7d f8 00          	cmpl   $0x0,-0x8(%rbp)
    9f5d:	78 27                	js     9f86 <safe_lshift_func_uint32_t_u_s+0x3b>
    9f5f:	83 7d f8 1f          	cmpl   $0x1f,-0x8(%rbp)
    9f63:	7f 21                	jg     9f86 <safe_lshift_func_uint32_t_u_s+0x3b>
    9f65:	8b 45 f8             	mov    -0x8(%rbp),%eax
    9f68:	ba ff ff ff ff       	mov    $0xffffffff,%edx
    9f6d:	89 c1                	mov    %eax,%ecx
    9f6f:	d3 ea                	shr    %cl,%edx
    9f71:	89 d0                	mov    %edx,%eax
    9f73:	39 45 fc             	cmp    %eax,-0x4(%rbp)
    9f76:	77 0e                	ja     9f86 <safe_lshift_func_uint32_t_u_s+0x3b>
    9f78:	8b 45 f8             	mov    -0x8(%rbp),%eax
    9f7b:	8b 55 fc             	mov    -0x4(%rbp),%edx
    9f7e:	89 c1                	mov    %eax,%ecx
    9f80:	d3 e2                	shl    %cl,%edx
    9f82:	89 d0                	mov    %edx,%eax
    9f84:	eb 03                	jmp    9f89 <safe_lshift_func_uint32_t_u_s+0x3e>
    9f86:	8b 45 fc             	mov    -0x4(%rbp),%eax
    9f89:	5d                   	pop    %rbp
    9f8a:	c3                   	retq   

0000000000009f8b <safe_lshift_func_uint32_t_u_u>:
    9f8b:	f3 0f 1e fa          	endbr64 
    9f8f:	55                   	push   %rbp
    9f90:	48 89 e5             	mov    %rsp,%rbp
    9f93:	89 7d fc             	mov    %edi,-0x4(%rbp)
    9f96:	89 75 f8             	mov    %esi,-0x8(%rbp)
    9f99:	83 7d f8 1f          	cmpl   $0x1f,-0x8(%rbp)
    9f9d:	77 21                	ja     9fc0 <safe_lshift_func_uint32_t_u_u+0x35>
    9f9f:	8b 45 f8             	mov    -0x8(%rbp),%eax
    9fa2:	ba ff ff ff ff       	mov    $0xffffffff,%edx
    9fa7:	89 c1                	mov    %eax,%ecx
    9fa9:	d3 ea                	shr    %cl,%edx
    9fab:	89 d0                	mov    %edx,%eax
    9fad:	39 45 fc             	cmp    %eax,-0x4(%rbp)
    9fb0:	77 0e                	ja     9fc0 <safe_lshift_func_uint32_t_u_u+0x35>
    9fb2:	8b 45 f8             	mov    -0x8(%rbp),%eax
    9fb5:	8b 55 fc             	mov    -0x4(%rbp),%edx
    9fb8:	89 c1                	mov    %eax,%ecx
    9fba:	d3 e2                	shl    %cl,%edx
    9fbc:	89 d0                	mov    %edx,%eax
    9fbe:	eb 03                	jmp    9fc3 <safe_lshift_func_uint32_t_u_u+0x38>
    9fc0:	8b 45 fc             	mov    -0x4(%rbp),%eax
    9fc3:	5d                   	pop    %rbp
    9fc4:	c3                   	retq   

0000000000009fc5 <safe_rshift_func_uint32_t_u_s>:
    9fc5:	f3 0f 1e fa          	endbr64 
    9fc9:	55                   	push   %rbp
    9fca:	48 89 e5             	mov    %rsp,%rbp
    9fcd:	89 7d fc             	mov    %edi,-0x4(%rbp)
    9fd0:	89 75 f8             	mov    %esi,-0x8(%rbp)
    9fd3:	83 7d f8 00          	cmpl   $0x0,-0x8(%rbp)
    9fd7:	78 14                	js     9fed <safe_rshift_func_uint32_t_u_s+0x28>
    9fd9:	83 7d f8 1f          	cmpl   $0x1f,-0x8(%rbp)
    9fdd:	7f 0e                	jg     9fed <safe_rshift_func_uint32_t_u_s+0x28>
    9fdf:	8b 45 f8             	mov    -0x8(%rbp),%eax
    9fe2:	8b 55 fc             	mov    -0x4(%rbp),%edx
    9fe5:	89 c1                	mov    %eax,%ecx
    9fe7:	d3 ea                	shr    %cl,%edx
    9fe9:	89 d0                	mov    %edx,%eax
    9feb:	eb 03                	jmp    9ff0 <safe_rshift_func_uint32_t_u_s+0x2b>
    9fed:	8b 45 fc             	mov    -0x4(%rbp),%eax
    9ff0:	5d                   	pop    %rbp
    9ff1:	c3                   	retq   

0000000000009ff2 <safe_rshift_func_uint32_t_u_u>:
    9ff2:	f3 0f 1e fa          	endbr64 
    9ff6:	55                   	push   %rbp
    9ff7:	48 89 e5             	mov    %rsp,%rbp
    9ffa:	89 7d fc             	mov    %edi,-0x4(%rbp)
    9ffd:	89 75 f8             	mov    %esi,-0x8(%rbp)
    a000:	83 7d f8 1f          	cmpl   $0x1f,-0x8(%rbp)
    a004:	77 0e                	ja     a014 <safe_rshift_func_uint32_t_u_u+0x22>
    a006:	8b 45 f8             	mov    -0x8(%rbp),%eax
    a009:	8b 55 fc             	mov    -0x4(%rbp),%edx
    a00c:	89 c1                	mov    %eax,%ecx
    a00e:	d3 ea                	shr    %cl,%edx
    a010:	89 d0                	mov    %edx,%eax
    a012:	eb 03                	jmp    a017 <safe_rshift_func_uint32_t_u_u+0x25>
    a014:	8b 45 fc             	mov    -0x4(%rbp),%eax
    a017:	5d                   	pop    %rbp
    a018:	c3                   	retq   

000000000000a019 <safe_unary_minus_func_uint64_t_u>:
    a019:	f3 0f 1e fa          	endbr64 
    a01d:	55                   	push   %rbp
    a01e:	48 89 e5             	mov    %rsp,%rbp
    a021:	48 89 7d f8          	mov    %rdi,-0x8(%rbp)
    a025:	48 8b 45 f8          	mov    -0x8(%rbp),%rax
    a029:	48 f7 d8             	neg    %rax
    a02c:	5d                   	pop    %rbp
    a02d:	c3                   	retq   

000000000000a02e <safe_add_func_uint64_t_u_u>:
    a02e:	f3 0f 1e fa          	endbr64 
    a032:	55                   	push   %rbp
    a033:	48 89 e5             	mov    %rsp,%rbp
    a036:	48 89 7d f8          	mov    %rdi,-0x8(%rbp)
    a03a:	48 89 75 f0          	mov    %rsi,-0x10(%rbp)
    a03e:	48 8b 55 f8          	mov    -0x8(%rbp),%rdx
    a042:	48 8b 45 f0          	mov    -0x10(%rbp),%rax
    a046:	48 01 d0             	add    %rdx,%rax
    a049:	5d                   	pop    %rbp
    a04a:	c3                   	retq   

000000000000a04b <safe_sub_func_uint64_t_u_u>:
    a04b:	f3 0f 1e fa          	endbr64 
    a04f:	55                   	push   %rbp
    a050:	48 89 e5             	mov    %rsp,%rbp
    a053:	48 89 7d f8          	mov    %rdi,-0x8(%rbp)
    a057:	48 89 75 f0          	mov    %rsi,-0x10(%rbp)
    a05b:	48 8b 45 f8          	mov    -0x8(%rbp),%rax
    a05f:	48 2b 45 f0          	sub    -0x10(%rbp),%rax
    a063:	5d                   	pop    %rbp
    a064:	c3                   	retq   

000000000000a065 <safe_mul_func_uint64_t_u_u>:
    a065:	f3 0f 1e fa          	endbr64 
    a069:	55                   	push   %rbp
    a06a:	48 89 e5             	mov    %rsp,%rbp
    a06d:	48 89 7d f8          	mov    %rdi,-0x8(%rbp)
    a071:	48 89 75 f0          	mov    %rsi,-0x10(%rbp)
    a075:	48 8b 45 f8          	mov    -0x8(%rbp),%rax
    a079:	48 0f af 45 f0       	imul   -0x10(%rbp),%rax
    a07e:	5d                   	pop    %rbp
    a07f:	c3                   	retq   

000000000000a080 <safe_mod_func_uint64_t_u_u>:
    a080:	f3 0f 1e fa          	endbr64 
    a084:	55                   	push   %rbp
    a085:	48 89 e5             	mov    %rsp,%rbp
    a088:	48 89 7d f8          	mov    %rdi,-0x8(%rbp)
    a08c:	48 89 75 f0          	mov    %rsi,-0x10(%rbp)
    a090:	48 83 7d f0 00       	cmpq   $0x0,-0x10(%rbp)
    a095:	74 12                	je     a0a9 <safe_mod_func_uint64_t_u_u+0x29>
    a097:	48 8b 45 f8          	mov    -0x8(%rbp),%rax
    a09b:	ba 00 00 00 00       	mov    $0x0,%edx
    a0a0:	48 f7 75 f0          	divq   -0x10(%rbp)
    a0a4:	48 89 d0             	mov    %rdx,%rax
    a0a7:	eb 04                	jmp    a0ad <safe_mod_func_uint64_t_u_u+0x2d>
    a0a9:	48 8b 45 f8          	mov    -0x8(%rbp),%rax
    a0ad:	5d                   	pop    %rbp
    a0ae:	c3                   	retq   

000000000000a0af <safe_div_func_uint64_t_u_u>:
    a0af:	f3 0f 1e fa          	endbr64 
    a0b3:	55                   	push   %rbp
    a0b4:	48 89 e5             	mov    %rsp,%rbp
    a0b7:	48 89 7d f8          	mov    %rdi,-0x8(%rbp)
    a0bb:	48 89 75 f0          	mov    %rsi,-0x10(%rbp)
    a0bf:	48 83 7d f0 00       	cmpq   $0x0,-0x10(%rbp)
    a0c4:	74 0f                	je     a0d5 <safe_div_func_uint64_t_u_u+0x26>
    a0c6:	48 8b 45 f8          	mov    -0x8(%rbp),%rax
    a0ca:	ba 00 00 00 00       	mov    $0x0,%edx
    a0cf:	48 f7 75 f0          	divq   -0x10(%rbp)
    a0d3:	eb 04                	jmp    a0d9 <safe_div_func_uint64_t_u_u+0x2a>
    a0d5:	48 8b 45 f8          	mov    -0x8(%rbp),%rax
    a0d9:	5d                   	pop    %rbp
    a0da:	c3                   	retq   

000000000000a0db <safe_lshift_func_uint64_t_u_s>:
    a0db:	f3 0f 1e fa          	endbr64 
    a0df:	55                   	push   %rbp
    a0e0:	48 89 e5             	mov    %rsp,%rbp
    a0e3:	48 89 7d f8          	mov    %rdi,-0x8(%rbp)
    a0e7:	89 75 f4             	mov    %esi,-0xc(%rbp)
    a0ea:	83 7d f4 00          	cmpl   $0x0,-0xc(%rbp)
    a0ee:	78 2f                	js     a11f <safe_lshift_func_uint64_t_u_s+0x44>
    a0f0:	83 7d f4 1f          	cmpl   $0x1f,-0xc(%rbp)
    a0f4:	7f 29                	jg     a11f <safe_lshift_func_uint64_t_u_s+0x44>
    a0f6:	8b 45 f4             	mov    -0xc(%rbp),%eax
    a0f9:	48 c7 c2 ff ff ff ff 	mov    $0xffffffffffffffff,%rdx
    a100:	89 c1                	mov    %eax,%ecx
    a102:	48 d3 ea             	shr    %cl,%rdx
    a105:	48 89 d0             	mov    %rdx,%rax
    a108:	48 39 45 f8          	cmp    %rax,-0x8(%rbp)
    a10c:	77 11                	ja     a11f <safe_lshift_func_uint64_t_u_s+0x44>
    a10e:	8b 45 f4             	mov    -0xc(%rbp),%eax
    a111:	48 8b 55 f8          	mov    -0x8(%rbp),%rdx
    a115:	89 c1                	mov    %eax,%ecx
    a117:	48 d3 e2             	shl    %cl,%rdx
    a11a:	48 89 d0             	mov    %rdx,%rax
    a11d:	eb 04                	jmp    a123 <safe_lshift_func_uint64_t_u_s+0x48>
    a11f:	48 8b 45 f8          	mov    -0x8(%rbp),%rax
    a123:	5d                   	pop    %rbp
    a124:	c3                   	retq   

000000000000a125 <safe_lshift_func_uint64_t_u_u>:
    a125:	f3 0f 1e fa          	endbr64 
    a129:	55                   	push   %rbp
    a12a:	48 89 e5             	mov    %rsp,%rbp
    a12d:	48 89 7d f8          	mov    %rdi,-0x8(%rbp)
    a131:	89 75 f4             	mov    %esi,-0xc(%rbp)
    a134:	83 7d f4 1f          	cmpl   $0x1f,-0xc(%rbp)
    a138:	77 29                	ja     a163 <safe_lshift_func_uint64_t_u_u+0x3e>
    a13a:	8b 45 f4             	mov    -0xc(%rbp),%eax
    a13d:	48 c7 c2 ff ff ff ff 	mov    $0xffffffffffffffff,%rdx
    a144:	89 c1                	mov    %eax,%ecx
    a146:	48 d3 ea             	shr    %cl,%rdx
    a149:	48 89 d0             	mov    %rdx,%rax
    a14c:	48 39 45 f8          	cmp    %rax,-0x8(%rbp)
    a150:	77 11                	ja     a163 <safe_lshift_func_uint64_t_u_u+0x3e>
    a152:	8b 45 f4             	mov    -0xc(%rbp),%eax
    a155:	48 8b 55 f8          	mov    -0x8(%rbp),%rdx
    a159:	89 c1                	mov    %eax,%ecx
    a15b:	48 d3 e2             	shl    %cl,%rdx
    a15e:	48 89 d0             	mov    %rdx,%rax
    a161:	eb 04                	jmp    a167 <safe_lshift_func_uint64_t_u_u+0x42>
    a163:	48 8b 45 f8          	mov    -0x8(%rbp),%rax
    a167:	5d                   	pop    %rbp
    a168:	c3                   	retq   

000000000000a169 <safe_rshift_func_uint64_t_u_s>:
    a169:	f3 0f 1e fa          	endbr64 
    a16d:	55                   	push   %rbp
    a16e:	48 89 e5             	mov    %rsp,%rbp
    a171:	48 89 7d f8          	mov    %rdi,-0x8(%rbp)
    a175:	89 75 f4             	mov    %esi,-0xc(%rbp)
    a178:	83 7d f4 00          	cmpl   $0x0,-0xc(%rbp)
    a17c:	78 17                	js     a195 <safe_rshift_func_uint64_t_u_s+0x2c>
    a17e:	83 7d f4 1f          	cmpl   $0x1f,-0xc(%rbp)
    a182:	7f 11                	jg     a195 <safe_rshift_func_uint64_t_u_s+0x2c>
    a184:	8b 45 f4             	mov    -0xc(%rbp),%eax
    a187:	48 8b 55 f8          	mov    -0x8(%rbp),%rdx
    a18b:	89 c1                	mov    %eax,%ecx
    a18d:	48 d3 ea             	shr    %cl,%rdx
    a190:	48 89 d0             	mov    %rdx,%rax
    a193:	eb 04                	jmp    a199 <safe_rshift_func_uint64_t_u_s+0x30>
    a195:	48 8b 45 f8          	mov    -0x8(%rbp),%rax
    a199:	5d                   	pop    %rbp
    a19a:	c3                   	retq   

000000000000a19b <safe_rshift_func_uint64_t_u_u>:
    a19b:	f3 0f 1e fa          	endbr64 
    a19f:	55                   	push   %rbp
    a1a0:	48 89 e5             	mov    %rsp,%rbp
    a1a3:	48 89 7d f8          	mov    %rdi,-0x8(%rbp)
    a1a7:	89 75 f4             	mov    %esi,-0xc(%rbp)
    a1aa:	83 7d f4 1f          	cmpl   $0x1f,-0xc(%rbp)
    a1ae:	77 11                	ja     a1c1 <safe_rshift_func_uint64_t_u_u+0x26>
    a1b0:	8b 45 f4             	mov    -0xc(%rbp),%eax
    a1b3:	48 8b 55 f8          	mov    -0x8(%rbp),%rdx
    a1b7:	89 c1                	mov    %eax,%ecx
    a1b9:	48 d3 ea             	shr    %cl,%rdx
    a1bc:	48 89 d0             	mov    %rdx,%rax
    a1bf:	eb 04                	jmp    a1c5 <safe_rshift_func_uint64_t_u_u+0x2a>
    a1c1:	48 8b 45 f8          	mov    -0x8(%rbp),%rax
    a1c5:	5d                   	pop    %rbp
    a1c6:	c3                   	retq   

000000000000a1c7 <safe_add_func_float_f_f>:
    a1c7:	f3 0f 1e fa          	endbr64 
    a1cb:	55                   	push   %rbp
    a1cc:	48 89 e5             	mov    %rsp,%rbp
    a1cf:	f3 0f 11 45 fc       	movss  %xmm0,-0x4(%rbp)
    a1d4:	f3 0f 11 4d f8       	movss  %xmm1,-0x8(%rbp)
    a1d9:	f3 0f 10 4d fc       	movss  -0x4(%rbp),%xmm1
    a1de:	f3 0f 10 05 ba 53 01 	movss  0x153ba(%rip),%xmm0        # 1f5a0 <l_2376.4322+0x20>
    a1e5:	00 
    a1e6:	f3 0f 59 c8          	mulss  %xmm0,%xmm1
    a1ea:	f3 0f 10 55 f8       	movss  -0x8(%rbp),%xmm2
    a1ef:	f3 0f 10 05 a9 53 01 	movss  0x153a9(%rip),%xmm0        # 1f5a0 <l_2376.4322+0x20>
    a1f6:	00 
    a1f7:	f3 0f 59 c2          	mulss  %xmm2,%xmm0
    a1fb:	f3 0f 58 c1          	addss  %xmm1,%xmm0
    a1ff:	f3 0f 10 0d a9 53 01 	movss  0x153a9(%rip),%xmm1        # 1f5b0 <l_2376.4322+0x30>
    a206:	00 
    a207:	0f 54 c1             	andps  %xmm1,%xmm0
    a20a:	0f 2f 05 af 53 01 00 	comiss 0x153af(%rip),%xmm0        # 1f5c0 <l_2376.4322+0x40>
    a211:	76 07                	jbe    a21a <safe_add_func_float_f_f+0x53>
    a213:	f3 0f 10 45 fc       	movss  -0x4(%rbp),%xmm0
    a218:	eb 0a                	jmp    a224 <safe_add_func_float_f_f+0x5d>
    a21a:	f3 0f 10 45 fc       	movss  -0x4(%rbp),%xmm0
    a21f:	f3 0f 58 45 f8       	addss  -0x8(%rbp),%xmm0
    a224:	5d                   	pop    %rbp
    a225:	c3                   	retq   

000000000000a226 <safe_sub_func_float_f_f>:
    a226:	f3 0f 1e fa          	endbr64 
    a22a:	55                   	push   %rbp
    a22b:	48 89 e5             	mov    %rsp,%rbp
    a22e:	f3 0f 11 45 fc       	movss  %xmm0,-0x4(%rbp)
    a233:	f3 0f 11 4d f8       	movss  %xmm1,-0x8(%rbp)
    a238:	f3 0f 10 4d fc       	movss  -0x4(%rbp),%xmm1
    a23d:	f3 0f 10 05 5b 53 01 	movss  0x1535b(%rip),%xmm0        # 1f5a0 <l_2376.4322+0x20>
    a244:	00 
    a245:	f3 0f 59 c1          	mulss  %xmm1,%xmm0
    a249:	f3 0f 10 55 f8       	movss  -0x8(%rbp),%xmm2
    a24e:	f3 0f 10 0d 4a 53 01 	movss  0x1534a(%rip),%xmm1        # 1f5a0 <l_2376.4322+0x20>
    a255:	00 
    a256:	f3 0f 59 ca          	mulss  %xmm2,%xmm1
    a25a:	f3 0f 5c c1          	subss  %xmm1,%xmm0
    a25e:	f3 0f 10 0d 4a 53 01 	movss  0x1534a(%rip),%xmm1        # 1f5b0 <l_2376.4322+0x30>
    a265:	00 
    a266:	0f 54 c1             	andps  %xmm1,%xmm0
    a269:	0f 2f 05 50 53 01 00 	comiss 0x15350(%rip),%xmm0        # 1f5c0 <l_2376.4322+0x40>
    a270:	76 07                	jbe    a279 <safe_sub_func_float_f_f+0x53>
    a272:	f3 0f 10 45 fc       	movss  -0x4(%rbp),%xmm0
    a277:	eb 0a                	jmp    a283 <safe_sub_func_float_f_f+0x5d>
    a279:	f3 0f 10 45 fc       	movss  -0x4(%rbp),%xmm0
    a27e:	f3 0f 5c 45 f8       	subss  -0x8(%rbp),%xmm0
    a283:	5d                   	pop    %rbp
    a284:	c3                   	retq   

000000000000a285 <safe_mul_func_float_f_f>:
    a285:	f3 0f 1e fa          	endbr64 
    a289:	55                   	push   %rbp
    a28a:	48 89 e5             	mov    %rsp,%rbp
    a28d:	f3 0f 11 45 fc       	movss  %xmm0,-0x4(%rbp)
    a292:	f3 0f 11 4d f8       	movss  %xmm1,-0x8(%rbp)
    a297:	f3 0f 10 4d fc       	movss  -0x4(%rbp),%xmm1
    a29c:	f3 0f 10 05 20 53 01 	movss  0x15320(%rip),%xmm0        # 1f5c4 <l_2376.4322+0x44>
    a2a3:	00 
    a2a4:	f3 0f 59 c8          	mulss  %xmm0,%xmm1
    a2a8:	f3 0f 10 55 f8       	movss  -0x8(%rbp),%xmm2
    a2ad:	f3 0f 10 05 13 53 01 	movss  0x15313(%rip),%xmm0        # 1f5c8 <l_2376.4322+0x48>
    a2b4:	00 
    a2b5:	f3 0f 59 c2          	mulss  %xmm2,%xmm0
    a2b9:	f3 0f 59 c1          	mulss  %xmm1,%xmm0
    a2bd:	f3 0f 10 0d eb 52 01 	movss  0x152eb(%rip),%xmm1        # 1f5b0 <l_2376.4322+0x30>
    a2c4:	00 
    a2c5:	0f 54 c1             	andps  %xmm1,%xmm0
    a2c8:	0f 2f 05 fd 52 01 00 	comiss 0x152fd(%rip),%xmm0        # 1f5cc <l_2376.4322+0x4c>
    a2cf:	76 07                	jbe    a2d8 <safe_mul_func_float_f_f+0x53>
    a2d1:	f3 0f 10 45 fc       	movss  -0x4(%rbp),%xmm0
    a2d6:	eb 0a                	jmp    a2e2 <safe_mul_func_float_f_f+0x5d>
    a2d8:	f3 0f 10 45 fc       	movss  -0x4(%rbp),%xmm0
    a2dd:	f3 0f 59 45 f8       	mulss  -0x8(%rbp),%xmm0
    a2e2:	5d                   	pop    %rbp
    a2e3:	c3                   	retq   

000000000000a2e4 <safe_div_func_float_f_f>:
    a2e4:	f3 0f 1e fa          	endbr64 
    a2e8:	55                   	push   %rbp
    a2e9:	48 89 e5             	mov    %rsp,%rbp
    a2ec:	f3 0f 11 45 fc       	movss  %xmm0,-0x4(%rbp)
    a2f1:	f3 0f 11 4d f8       	movss  %xmm1,-0x8(%rbp)
    a2f6:	f3 0f 10 45 f8       	movss  -0x8(%rbp),%xmm0
    a2fb:	f3 0f 10 0d ad 52 01 	movss  0x152ad(%rip),%xmm1        # 1f5b0 <l_2376.4322+0x30>
    a302:	00 
    a303:	0f 54 c8             	andps  %xmm0,%xmm1
    a306:	f3 0f 10 05 c2 52 01 	movss  0x152c2(%rip),%xmm0        # 1f5d0 <l_2376.4322+0x50>
    a30d:	00 
    a30e:	0f 2f c1             	comiss %xmm1,%xmm0
    a311:	0f 97 c0             	seta   %al
    a314:	83 f0 01             	xor    $0x1,%eax
    a317:	84 c0                	test   %al,%al
    a319:	75 56                	jne    a371 <safe_div_func_float_f_f+0x8d>
    a31b:	66 0f ef c0          	pxor   %xmm0,%xmm0
    a31f:	0f 2e 45 f8          	ucomiss -0x8(%rbp),%xmm0
    a323:	7a 0a                	jp     a32f <safe_div_func_float_f_f+0x4b>
    a325:	66 0f ef c0          	pxor   %xmm0,%xmm0
    a329:	0f 2e 45 f8          	ucomiss -0x8(%rbp),%xmm0
    a32d:	74 4e                	je     a37d <safe_div_func_float_f_f+0x99>
    a32f:	f3 0f 10 4d fc       	movss  -0x4(%rbp),%xmm1
    a334:	f3 0f 10 05 98 52 01 	movss  0x15298(%rip),%xmm0        # 1f5d4 <l_2376.4322+0x54>
    a33b:	00 
    a33c:	f3 0f 59 c1          	mulss  %xmm1,%xmm0
    a340:	f3 0f 10 55 f8       	movss  -0x8(%rbp),%xmm2
    a345:	f3 0f 10 0d 8b 52 01 	movss  0x1528b(%rip),%xmm1        # 1f5d8 <l_2376.4322+0x58>
    a34c:	00 
    a34d:	f3 0f 59 ca          	mulss  %xmm2,%xmm1
    a351:	f3 0f 5e c1          	divss  %xmm1,%xmm0
    a355:	f3 0f 10 0d 53 52 01 	movss  0x15253(%rip),%xmm1        # 1f5b0 <l_2376.4322+0x30>
    a35c:	00 
    a35d:	0f 54 c1             	andps  %xmm1,%xmm0
    a360:	0f 2f 05 75 52 01 00 	comiss 0x15275(%rip),%xmm0        # 1f5dc <l_2376.4322+0x5c>
    a367:	0f 97 c0             	seta   %al
    a36a:	83 f0 01             	xor    $0x1,%eax
    a36d:	84 c0                	test   %al,%al
    a36f:	74 0c                	je     a37d <safe_div_func_float_f_f+0x99>
    a371:	f3 0f 10 45 fc       	movss  -0x4(%rbp),%xmm0
    a376:	f3 0f 5e 45 f8       	divss  -0x8(%rbp),%xmm0
    a37b:	eb 05                	jmp    a382 <safe_div_func_float_f_f+0x9e>
    a37d:	f3 0f 10 45 fc       	movss  -0x4(%rbp),%xmm0
    a382:	5d                   	pop    %rbp
    a383:	c3                   	retq   

000000000000a384 <safe_add_func_double_f_f>:
    a384:	f3 0f 1e fa          	endbr64 
    a388:	55                   	push   %rbp
    a389:	48 89 e5             	mov    %rsp,%rbp
    a38c:	f2 0f 11 45 f8       	movsd  %xmm0,-0x8(%rbp)
    a391:	f2 0f 11 4d f0       	movsd  %xmm1,-0x10(%rbp)
    a396:	f2 0f 10 4d f8       	movsd  -0x8(%rbp),%xmm1
    a39b:	f2 0f 10 05 3d 52 01 	movsd  0x1523d(%rip),%xmm0        # 1f5e0 <l_2376.4322+0x60>
    a3a2:	00 
    a3a3:	f2 0f 59 c8          	mulsd  %xmm0,%xmm1
    a3a7:	f2 0f 10 55 f0       	movsd  -0x10(%rbp),%xmm2
    a3ac:	f2 0f 10 05 2c 52 01 	movsd  0x1522c(%rip),%xmm0        # 1f5e0 <l_2376.4322+0x60>
    a3b3:	00 
    a3b4:	f2 0f 59 c2          	mulsd  %xmm2,%xmm0
    a3b8:	f2 0f 58 c1          	addsd  %xmm1,%xmm0
    a3bc:	f3 0f 7e 0d 2c 52 01 	movq   0x1522c(%rip),%xmm1        # 1f5f0 <l_2376.4322+0x70>
    a3c3:	00 
    a3c4:	66 0f 54 c1          	andpd  %xmm1,%xmm0
    a3c8:	66 0f 2f 05 30 52 01 	comisd 0x15230(%rip),%xmm0        # 1f600 <l_2376.4322+0x80>
    a3cf:	00 
    a3d0:	76 07                	jbe    a3d9 <safe_add_func_double_f_f+0x55>
    a3d2:	f2 0f 10 45 f8       	movsd  -0x8(%rbp),%xmm0
    a3d7:	eb 0a                	jmp    a3e3 <safe_add_func_double_f_f+0x5f>
    a3d9:	f2 0f 10 45 f8       	movsd  -0x8(%rbp),%xmm0
    a3de:	f2 0f 58 45 f0       	addsd  -0x10(%rbp),%xmm0
    a3e3:	5d                   	pop    %rbp
    a3e4:	c3                   	retq   

000000000000a3e5 <safe_sub_func_double_f_f>:
    a3e5:	f3 0f 1e fa          	endbr64 
    a3e9:	55                   	push   %rbp
    a3ea:	48 89 e5             	mov    %rsp,%rbp
    a3ed:	f2 0f 11 45 f8       	movsd  %xmm0,-0x8(%rbp)
    a3f2:	f2 0f 11 4d f0       	movsd  %xmm1,-0x10(%rbp)
    a3f7:	f2 0f 10 4d f8       	movsd  -0x8(%rbp),%xmm1
    a3fc:	f2 0f 10 05 dc 51 01 	movsd  0x151dc(%rip),%xmm0        # 1f5e0 <l_2376.4322+0x60>
    a403:	00 
    a404:	f2 0f 59 c1          	mulsd  %xmm1,%xmm0
    a408:	f2 0f 10 55 f0       	movsd  -0x10(%rbp),%xmm2
    a40d:	f2 0f 10 0d cb 51 01 	movsd  0x151cb(%rip),%xmm1        # 1f5e0 <l_2376.4322+0x60>
    a414:	00 
    a415:	f2 0f 59 ca          	mulsd  %xmm2,%xmm1
    a419:	f2 0f 5c c1          	subsd  %xmm1,%xmm0
    a41d:	f3 0f 7e 0d cb 51 01 	movq   0x151cb(%rip),%xmm1        # 1f5f0 <l_2376.4322+0x70>
    a424:	00 
    a425:	66 0f 54 c1          	andpd  %xmm1,%xmm0
    a429:	66 0f 2f 05 cf 51 01 	comisd 0x151cf(%rip),%xmm0        # 1f600 <l_2376.4322+0x80>
    a430:	00 
    a431:	76 07                	jbe    a43a <safe_sub_func_double_f_f+0x55>
    a433:	f2 0f 10 45 f8       	movsd  -0x8(%rbp),%xmm0
    a438:	eb 0a                	jmp    a444 <safe_sub_func_double_f_f+0x5f>
    a43a:	f2 0f 10 45 f8       	movsd  -0x8(%rbp),%xmm0
    a43f:	f2 0f 5c 45 f0       	subsd  -0x10(%rbp),%xmm0
    a444:	5d                   	pop    %rbp
    a445:	c3                   	retq   

000000000000a446 <safe_mul_func_double_f_f>:
    a446:	f3 0f 1e fa          	endbr64 
    a44a:	55                   	push   %rbp
    a44b:	48 89 e5             	mov    %rsp,%rbp
    a44e:	f2 0f 11 45 f8       	movsd  %xmm0,-0x8(%rbp)
    a453:	f2 0f 11 4d f0       	movsd  %xmm1,-0x10(%rbp)
    a458:	f2 0f 10 4d f8       	movsd  -0x8(%rbp),%xmm1
    a45d:	f2 0f 10 05 a3 51 01 	movsd  0x151a3(%rip),%xmm0        # 1f608 <l_2376.4322+0x88>
    a464:	00 
    a465:	f2 0f 59 c8          	mulsd  %xmm0,%xmm1
    a469:	f2 0f 10 55 f0       	movsd  -0x10(%rbp),%xmm2
    a46e:	f2 0f 10 05 9a 51 01 	movsd  0x1519a(%rip),%xmm0        # 1f610 <l_2376.4322+0x90>
    a475:	00 
    a476:	f2 0f 59 c2          	mulsd  %xmm2,%xmm0
    a47a:	f2 0f 59 c1          	mulsd  %xmm1,%xmm0
    a47e:	f3 0f 7e 0d 6a 51 01 	movq   0x1516a(%rip),%xmm1        # 1f5f0 <l_2376.4322+0x70>
    a485:	00 
    a486:	66 0f 54 c1          	andpd  %xmm1,%xmm0
    a48a:	66 0f 2f 05 86 51 01 	comisd 0x15186(%rip),%xmm0        # 1f618 <l_2376.4322+0x98>
    a491:	00 
    a492:	76 07                	jbe    a49b <safe_mul_func_double_f_f+0x55>
    a494:	f2 0f 10 45 f8       	movsd  -0x8(%rbp),%xmm0
    a499:	eb 0a                	jmp    a4a5 <safe_mul_func_double_f_f+0x5f>
    a49b:	f2 0f 10 45 f8       	movsd  -0x8(%rbp),%xmm0
    a4a0:	f2 0f 59 45 f0       	mulsd  -0x10(%rbp),%xmm0
    a4a5:	5d                   	pop    %rbp
    a4a6:	c3                   	retq   

000000000000a4a7 <safe_div_func_double_f_f>:
    a4a7:	f3 0f 1e fa          	endbr64 
    a4ab:	55                   	push   %rbp
    a4ac:	48 89 e5             	mov    %rsp,%rbp
    a4af:	f2 0f 11 45 f8       	movsd  %xmm0,-0x8(%rbp)
    a4b4:	f2 0f 11 4d f0       	movsd  %xmm1,-0x10(%rbp)
    a4b9:	f2 0f 10 45 f0       	movsd  -0x10(%rbp),%xmm0
    a4be:	f3 0f 7e 0d 2a 51 01 	movq   0x1512a(%rip),%xmm1        # 1f5f0 <l_2376.4322+0x70>
    a4c5:	00 
    a4c6:	66 0f 54 c8          	andpd  %xmm0,%xmm1
    a4ca:	f2 0f 10 05 4e 51 01 	movsd  0x1514e(%rip),%xmm0        # 1f620 <l_2376.4322+0xa0>
    a4d1:	00 
    a4d2:	66 0f 2f c1          	comisd %xmm1,%xmm0
    a4d6:	0f 97 c0             	seta   %al
    a4d9:	83 f0 01             	xor    $0x1,%eax
    a4dc:	84 c0                	test   %al,%al
    a4de:	75 5a                	jne    a53a <safe_div_func_double_f_f+0x93>
    a4e0:	66 0f ef c0          	pxor   %xmm0,%xmm0
    a4e4:	66 0f 2e 45 f0       	ucomisd -0x10(%rbp),%xmm0
    a4e9:	7a 0b                	jp     a4f6 <safe_div_func_double_f_f+0x4f>
    a4eb:	66 0f ef c0          	pxor   %xmm0,%xmm0
    a4ef:	66 0f 2e 45 f0       	ucomisd -0x10(%rbp),%xmm0
    a4f4:	74 50                	je     a546 <safe_div_func_double_f_f+0x9f>
    a4f6:	f2 0f 10 4d f8       	movsd  -0x8(%rbp),%xmm1
    a4fb:	f2 0f 10 05 25 51 01 	movsd  0x15125(%rip),%xmm0        # 1f628 <l_2376.4322+0xa8>
    a502:	00 
    a503:	f2 0f 59 c1          	mulsd  %xmm1,%xmm0
    a507:	f2 0f 10 55 f0       	movsd  -0x10(%rbp),%xmm2
    a50c:	f2 0f 10 0d 1c 51 01 	movsd  0x1511c(%rip),%xmm1        # 1f630 <l_2376.4322+0xb0>
    a513:	00 
    a514:	f2 0f 59 ca          	mulsd  %xmm2,%xmm1
    a518:	f2 0f 5e c1          	divsd  %xmm1,%xmm0
    a51c:	f3 0f 7e 0d cc 50 01 	movq   0x150cc(%rip),%xmm1        # 1f5f0 <l_2376.4322+0x70>
    a523:	00 
    a524:	66 0f 54 c1          	andpd  %xmm1,%xmm0
    a528:	66 0f 2f 05 08 51 01 	comisd 0x15108(%rip),%xmm0        # 1f638 <l_2376.4322+0xb8>
    a52f:	00 
    a530:	0f 97 c0             	seta   %al
    a533:	83 f0 01             	xor    $0x1,%eax
    a536:	84 c0                	test   %al,%al
    a538:	74 0c                	je     a546 <safe_div_func_double_f_f+0x9f>
    a53a:	f2 0f 10 45 f8       	movsd  -0x8(%rbp),%xmm0
    a53f:	f2 0f 5e 45 f0       	divsd  -0x10(%rbp),%xmm0
    a544:	eb 05                	jmp    a54b <safe_div_func_double_f_f+0xa4>
    a546:	f2 0f 10 45 f8       	movsd  -0x8(%rbp),%xmm0
    a54b:	5d                   	pop    %rbp
    a54c:	c3                   	retq   

000000000000a54d <safe_convert_func_float_to_int32_t>:
    a54d:	f3 0f 1e fa          	endbr64 
    a551:	55                   	push   %rbp
    a552:	48 89 e5             	mov    %rsp,%rbp
    a555:	f3 0f 11 45 fc       	movss  %xmm0,-0x4(%rbp)
    a55a:	f3 0f 10 05 de 50 01 	movss  0x150de(%rip),%xmm0        # 1f640 <l_2376.4322+0xc0>
    a561:	00 
    a562:	0f 2f 45 fc          	comiss -0x4(%rbp),%xmm0
    a566:	0f 93 c0             	setae  %al
    a569:	83 f0 01             	xor    $0x1,%eax
    a56c:	84 c0                	test   %al,%al
    a56e:	74 21                	je     a591 <safe_convert_func_float_to_int32_t+0x44>
    a570:	f3 0f 10 45 fc       	movss  -0x4(%rbp),%xmm0
    a575:	0f 2f 05 c8 50 01 00 	comiss 0x150c8(%rip),%xmm0        # 1f644 <l_2376.4322+0xc4>
    a57c:	0f 93 c0             	setae  %al
    a57f:	83 f0 01             	xor    $0x1,%eax
    a582:	84 c0                	test   %al,%al
    a584:	74 0b                	je     a591 <safe_convert_func_float_to_int32_t+0x44>
    a586:	f3 0f 10 45 fc       	movss  -0x4(%rbp),%xmm0
    a58b:	f3 0f 2c c0          	cvttss2si %xmm0,%eax
    a58f:	eb 05                	jmp    a596 <safe_convert_func_float_to_int32_t+0x49>
    a591:	b8 ff ff ff 7f       	mov    $0x7fffffff,%eax
    a596:	5d                   	pop    %rbp
    a597:	c3                   	retq   

000000000000a598 <crc32_gentab>:
    a598:	f3 0f 1e fa          	endbr64 
    a59c:	55                   	push   %rbp
    a59d:	48 89 e5             	mov    %rsp,%rbp
    a5a0:	c7 45 fc 20 83 b8 ed 	movl   $0xedb88320,-0x4(%rbp)
    a5a7:	c7 45 f4 00 00 00 00 	movl   $0x0,-0xc(%rbp)
    a5ae:	eb 51                	jmp    a601 <crc32_gentab+0x69>
    a5b0:	8b 45 f4             	mov    -0xc(%rbp),%eax
    a5b3:	89 45 f0             	mov    %eax,-0x10(%rbp)
    a5b6:	c7 45 f8 08 00 00 00 	movl   $0x8,-0x8(%rbp)
    a5bd:	eb 1e                	jmp    a5dd <crc32_gentab+0x45>
    a5bf:	8b 45 f0             	mov    -0x10(%rbp),%eax
    a5c2:	83 e0 01             	and    $0x1,%eax
    a5c5:	85 c0                	test   %eax,%eax
    a5c7:	74 0d                	je     a5d6 <crc32_gentab+0x3e>
    a5c9:	8b 45 f0             	mov    -0x10(%rbp),%eax
    a5cc:	d1 e8                	shr    %eax
    a5ce:	33 45 fc             	xor    -0x4(%rbp),%eax
    a5d1:	89 45 f0             	mov    %eax,-0x10(%rbp)
    a5d4:	eb 03                	jmp    a5d9 <crc32_gentab+0x41>
    a5d6:	d1 6d f0             	shrl   -0x10(%rbp)
    a5d9:	83 6d f8 01          	subl   $0x1,-0x8(%rbp)
    a5dd:	83 7d f8 00          	cmpl   $0x0,-0x8(%rbp)
    a5e1:	7f dc                	jg     a5bf <crc32_gentab+0x27>
    a5e3:	8b 45 f4             	mov    -0xc(%rbp),%eax
    a5e6:	48 98                	cltq   
    a5e8:	48 8d 0c 85 00 00 00 	lea    0x0(,%rax,4),%rcx
    a5ef:	00 
    a5f0:	48 8d 15 69 b5 01 00 	lea    0x1b569(%rip),%rdx        # 25b60 <crc32_tab>
    a5f7:	8b 45 f0             	mov    -0x10(%rbp),%eax
    a5fa:	89 04 11             	mov    %eax,(%rcx,%rdx,1)
    a5fd:	83 45 f4 01          	addl   $0x1,-0xc(%rbp)
    a601:	81 7d f4 ff 00 00 00 	cmpl   $0xff,-0xc(%rbp)
    a608:	7e a6                	jle    a5b0 <crc32_gentab+0x18>
    a60a:	90                   	nop
    a60b:	90                   	nop
    a60c:	5d                   	pop    %rbp
    a60d:	c3                   	retq   

000000000000a60e <crc32_byte>:
    a60e:	f3 0f 1e fa          	endbr64 
    a612:	55                   	push   %rbp
    a613:	48 89 e5             	mov    %rsp,%rbp
    a616:	89 f8                	mov    %edi,%eax
    a618:	88 45 fc             	mov    %al,-0x4(%rbp)
    a61b:	8b 05 ff 79 01 00    	mov    0x179ff(%rip),%eax        # 22020 <crc32_context>
    a621:	c1 e8 08             	shr    $0x8,%eax
    a624:	89 c1                	mov    %eax,%ecx
    a626:	0f b6 55 fc          	movzbl -0x4(%rbp),%edx
    a62a:	8b 05 f0 79 01 00    	mov    0x179f0(%rip),%eax        # 22020 <crc32_context>
    a630:	31 d0                	xor    %edx,%eax
    a632:	0f b6 c0             	movzbl %al,%eax
    a635:	89 c0                	mov    %eax,%eax
    a637:	48 8d 14 85 00 00 00 	lea    0x0(,%rax,4),%rdx
    a63e:	00 
    a63f:	48 8d 05 1a b5 01 00 	lea    0x1b51a(%rip),%rax        # 25b60 <crc32_tab>
    a646:	8b 04 02             	mov    (%rdx,%rax,1),%eax
    a649:	31 c8                	xor    %ecx,%eax
    a64b:	89 05 cf 79 01 00    	mov    %eax,0x179cf(%rip)        # 22020 <crc32_context>
    a651:	90                   	nop
    a652:	5d                   	pop    %rbp
    a653:	c3                   	retq   

000000000000a654 <crc32_8bytes>:
    a654:	f3 0f 1e fa          	endbr64 
    a658:	55                   	push   %rbp
    a659:	48 89 e5             	mov    %rsp,%rbp
    a65c:	48 83 ec 08          	sub    $0x8,%rsp
    a660:	48 89 7d f8          	mov    %rdi,-0x8(%rbp)
    a664:	48 8b 45 f8          	mov    -0x8(%rbp),%rax
    a668:	0f b6 c0             	movzbl %al,%eax
    a66b:	89 c7                	mov    %eax,%edi
    a66d:	e8 9c ff ff ff       	callq  a60e <crc32_byte>
    a672:	48 8b 45 f8          	mov    -0x8(%rbp),%rax
    a676:	48 c1 e8 08          	shr    $0x8,%rax
    a67a:	0f b6 c0             	movzbl %al,%eax
    a67d:	89 c7                	mov    %eax,%edi
    a67f:	e8 8a ff ff ff       	callq  a60e <crc32_byte>
    a684:	48 8b 45 f8          	mov    -0x8(%rbp),%rax
    a688:	48 c1 e8 10          	shr    $0x10,%rax
    a68c:	0f b6 c0             	movzbl %al,%eax
    a68f:	89 c7                	mov    %eax,%edi
    a691:	e8 78 ff ff ff       	callq  a60e <crc32_byte>
    a696:	48 8b 45 f8          	mov    -0x8(%rbp),%rax
    a69a:	48 c1 e8 18          	shr    $0x18,%rax
    a69e:	0f b6 c0             	movzbl %al,%eax
    a6a1:	89 c7                	mov    %eax,%edi
    a6a3:	e8 66 ff ff ff       	callq  a60e <crc32_byte>
    a6a8:	48 8b 45 f8          	mov    -0x8(%rbp),%rax
    a6ac:	48 c1 e8 20          	shr    $0x20,%rax
    a6b0:	0f b6 c0             	movzbl %al,%eax
    a6b3:	89 c7                	mov    %eax,%edi
    a6b5:	e8 54 ff ff ff       	callq  a60e <crc32_byte>
    a6ba:	48 8b 45 f8          	mov    -0x8(%rbp),%rax
    a6be:	48 c1 e8 28          	shr    $0x28,%rax
    a6c2:	0f b6 c0             	movzbl %al,%eax
    a6c5:	89 c7                	mov    %eax,%edi
    a6c7:	e8 42 ff ff ff       	callq  a60e <crc32_byte>
    a6cc:	48 8b 45 f8          	mov    -0x8(%rbp),%rax
    a6d0:	48 c1 e8 30          	shr    $0x30,%rax
    a6d4:	0f b6 c0             	movzbl %al,%eax
    a6d7:	89 c7                	mov    %eax,%edi
    a6d9:	e8 30 ff ff ff       	callq  a60e <crc32_byte>
    a6de:	48 8b 45 f8          	mov    -0x8(%rbp),%rax
    a6e2:	48 c1 e8 38          	shr    $0x38,%rax
    a6e6:	0f b6 c0             	movzbl %al,%eax
    a6e9:	89 c7                	mov    %eax,%edi
    a6eb:	e8 1e ff ff ff       	callq  a60e <crc32_byte>
    a6f0:	90                   	nop
    a6f1:	c9                   	leaveq 
    a6f2:	c3                   	retq   

000000000000a6f3 <transparent_crc>:
    a6f3:	f3 0f 1e fa          	endbr64 
    a6f7:	55                   	push   %rbp
    a6f8:	48 89 e5             	mov    %rsp,%rbp
    a6fb:	48 83 ec 20          	sub    $0x20,%rsp
    a6ff:	48 89 7d f8          	mov    %rdi,-0x8(%rbp)
    a703:	48 89 75 f0          	mov    %rsi,-0x10(%rbp)
    a707:	89 55 ec             	mov    %edx,-0x14(%rbp)
    a70a:	48 8b 45 f8          	mov    -0x8(%rbp),%rax
    a70e:	48 89 c7             	mov    %rax,%rdi
    a711:	e8 3e ff ff ff       	callq  a654 <crc32_8bytes>
    a716:	83 7d ec 00          	cmpl   $0x0,-0x14(%rbp)
    a71a:	74 22                	je     a73e <transparent_crc+0x4b>
    a71c:	8b 05 fe 78 01 00    	mov    0x178fe(%rip),%eax        # 22020 <crc32_context>
    a722:	f7 d0                	not    %eax
    a724:	89 c2                	mov    %eax,%edx
    a726:	48 8b 45 f0          	mov    -0x10(%rbp),%rax
    a72a:	48 89 c6             	mov    %rax,%rsi
    a72d:	48 8d 3d fc 38 01 00 	lea    0x138fc(%rip),%rdi        # 1e030 <_IO_stdin_used+0x30>
    a734:	b8 00 00 00 00       	mov    $0x0,%eax
    a739:	e8 42 e9 ff ff       	callq  9080 <printf@plt>
    a73e:	90                   	nop
    a73f:	c9                   	leaveq 
    a740:	c3                   	retq   

000000000000a741 <transparent_crc_bytes>:
    a741:	f3 0f 1e fa          	endbr64 
    a745:	55                   	push   %rbp
    a746:	48 89 e5             	mov    %rsp,%rbp
    a749:	48 83 ec 30          	sub    $0x30,%rsp
    a74d:	48 89 7d e8          	mov    %rdi,-0x18(%rbp)
    a751:	89 75 e4             	mov    %esi,-0x1c(%rbp)
    a754:	48 89 55 d8          	mov    %rdx,-0x28(%rbp)
    a758:	89 4d e0             	mov    %ecx,-0x20(%rbp)
    a75b:	c7 45 fc 00 00 00 00 	movl   $0x0,-0x4(%rbp)
    a762:	eb 1e                	jmp    a782 <transparent_crc_bytes+0x41>
    a764:	8b 45 fc             	mov    -0x4(%rbp),%eax
    a767:	48 63 d0             	movslq %eax,%rdx
    a76a:	48 8b 45 e8          	mov    -0x18(%rbp),%rax
    a76e:	48 01 d0             	add    %rdx,%rax
    a771:	0f b6 00             	movzbl (%rax),%eax
    a774:	0f b6 c0             	movzbl %al,%eax
    a777:	89 c7                	mov    %eax,%edi
    a779:	e8 90 fe ff ff       	callq  a60e <crc32_byte>
    a77e:	83 45 fc 01          	addl   $0x1,-0x4(%rbp)
    a782:	8b 45 fc             	mov    -0x4(%rbp),%eax
    a785:	3b 45 e4             	cmp    -0x1c(%rbp),%eax
    a788:	7c da                	jl     a764 <transparent_crc_bytes+0x23>
    a78a:	83 7d e0 00          	cmpl   $0x0,-0x20(%rbp)
    a78e:	74 22                	je     a7b2 <transparent_crc_bytes+0x71>
    a790:	8b 05 8a 78 01 00    	mov    0x1788a(%rip),%eax        # 22020 <crc32_context>
    a796:	f7 d0                	not    %eax
    a798:	89 c2                	mov    %eax,%edx
    a79a:	48 8b 45 d8          	mov    -0x28(%rbp),%rax
    a79e:	48 89 c6             	mov    %rax,%rsi
    a7a1:	48 8d 3d 88 38 01 00 	lea    0x13888(%rip),%rdi        # 1e030 <_IO_stdin_used+0x30>
    a7a8:	b8 00 00 00 00       	mov    $0x0,%eax
    a7ad:	e8 ce e8 ff ff       	callq  9080 <printf@plt>
    a7b2:	90                   	nop
    a7b3:	c9                   	leaveq 
    a7b4:	c3                   	retq   

000000000000a7b5 <func_1>:
    a7b5:	f3 0f 1e fa          	endbr64 
    a7b9:	55                   	push   %rbp
    a7ba:	48 89 e5             	mov    %rsp,%rbp
    a7bd:	53                   	push   %rbx
    a7be:	48 83 ec 28          	sub    $0x28,%rsp
    a7c2:	c6 45 d3 01          	movb   $0x1,-0x2d(%rbp)
    a7c6:	c7 45 d4 00 00 00 00 	movl   $0x0,-0x2c(%rbp)
    a7cd:	48 8d 05 bc 78 01 00 	lea    0x178bc(%rip),%rax        # 22090 <g_50>
    a7d4:	48 89 45 d8          	mov    %rax,-0x28(%rbp)
    a7d8:	48 8d 05 8a b7 01 00 	lea    0x1b78a(%rip),%rax        # 25f69 <g_43+0x1>
    a7df:	48 89 45 e0          	mov    %rax,-0x20(%rbp)
    a7e3:	48 8d 05 84 b7 01 00 	lea    0x1b784(%rip),%rax        # 25f6e <g_432>
    a7ea:	48 89 45 e8          	mov    %rax,-0x18(%rbp)
    a7ee:	c6 45 d2 7a          	movb   $0x7a,-0x2e(%rbp)
    a7f2:	8b 05 48 78 01 00    	mov    0x17848(%rip),%eax        # 22040 <g_2+0x10>
    a7f8:	88 45 d3             	mov    %al,-0x2d(%rbp)
    a7fb:	8b 05 3f 78 01 00    	mov    0x1783f(%rip),%eax        # 22040 <g_2+0x10>
    a801:	89 c7                	mov    %eax,%edi
    a803:	e8 5b 01 00 00       	callq  a963 <func_4>
    a808:	32 45 d3             	xor    -0x2d(%rbp),%al
    a80b:	0f be c0             	movsbl %al,%eax
    a80e:	89 45 d4             	mov    %eax,-0x2c(%rbp)
    a811:	48 8b 05 d8 a2 01 00 	mov    0x1a2d8(%rip),%rax        # 24af0 <g_655>
    a818:	48 8b 05 a1 b0 01 00 	mov    0x1b0a1(%rip),%rax        # 258c0 <g_2227>
    a81f:	48 8b 00             	mov    (%rax),%rax
    a822:	48 8b 00             	mov    (%rax),%rax
    a825:	48 8b 00             	mov    (%rax),%rax
    a828:	0f b7 00             	movzwl (%rax),%eax
    a82b:	98                   	cwtl   
    a82c:	89 c6                	mov    %eax,%esi
    a82e:	bf 6f 81 00 00       	mov    $0x816f,%edi
    a833:	e8 10 f6 ff ff       	callq  9e48 <safe_rshift_func_uint16_t_u_s>
    a838:	8b 45 d4             	mov    -0x2c(%rbp),%eax
    a83b:	48 63 d8             	movslq %eax,%rbx
    a83e:	0f be 55 d3          	movsbl -0x2d(%rbp),%edx
    a842:	8b 45 d4             	mov    -0x2c(%rbp),%eax
    a845:	0f be c0             	movsbl %al,%eax
    a848:	89 d6                	mov    %edx,%esi
    a84a:	89 c7                	mov    %eax,%edi
    a84c:	e8 c1 e9 ff ff       	callq  9212 <safe_mul_func_int8_t_s_s>
    a851:	80 7d d3 00          	cmpb   $0x0,-0x2d(%rbp)
    a855:	0f 94 c2             	sete   %dl
    a858:	09 c2                	or     %eax,%edx
    a85a:	48 8b 05 97 a2 01 00 	mov    0x1a297(%rip),%rax        # 24af8 <g_654>
    a861:	48 8b 00             	mov    (%rax),%rax
    a864:	88 10                	mov    %dl,(%rax)
    a866:	81 7d d4 78 9d 00 00 	cmpl   $0x9d78,-0x2c(%rbp)
    a86d:	0f 95 c0             	setne  %al
    a870:	0f b6 d0             	movzbl %al,%edx
    a873:	48 8b 45 d8          	mov    -0x28(%rbp),%rax
    a877:	0f b7 00             	movzwl (%rax),%eax
    a87a:	31 c2                	xor    %eax,%edx
    a87c:	48 8b 45 d8          	mov    -0x28(%rbp),%rax
    a880:	66 89 10             	mov    %dx,(%rax)
    a883:	48 8b 45 d8          	mov    -0x28(%rbp),%rax
    a887:	0f b7 00             	movzwl (%rax),%eax
    a88a:	66 83 f8 ff          	cmp    $0xffff,%ax
    a88e:	0f 95 c0             	setne  %al
    a891:	0f b6 c0             	movzbl %al,%eax
    a894:	48 89 de             	mov    %rbx,%rsi
    a897:	48 89 c7             	mov    %rax,%rdi
    a89a:	e8 e1 f7 ff ff       	callq  a080 <safe_mod_func_uint64_t_u_u>
    a89f:	89 c2                	mov    %eax,%edx
    a8a1:	48 8b 45 e0          	mov    -0x20(%rbp),%rax
    a8a5:	88 10                	mov    %dl,(%rax)
    a8a7:	48 8b 45 e0          	mov    -0x20(%rbp),%rax
    a8ab:	0f b6 00             	movzbl (%rax),%eax
    a8ae:	38 45 d3             	cmp    %al,-0x2d(%rbp)
    a8b1:	0f 9e c0             	setle  %al
    a8b4:	0f b6 c0             	movzbl %al,%eax
    a8b7:	39 45 d4             	cmp    %eax,-0x2c(%rbp)
    a8ba:	0f 9e c2             	setle  %dl
    a8bd:	48 8b 05 44 a2 01 00 	mov    0x1a244(%rip),%rax        # 24b08 <g_714>
    a8c4:	48 8b 00             	mov    (%rax),%rax
    a8c7:	0f b6 d2             	movzbl %dl,%edx
    a8ca:	66 89 10             	mov    %dx,(%rax)
    a8cd:	0f be 45 d3          	movsbl -0x2d(%rbp),%eax
    a8d1:	89 c6                	mov    %eax,%esi
    a8d3:	bf ff ff 00 00       	mov    $0xffff,%edi
    a8d8:	e8 9d f5 ff ff       	callq  9e7a <safe_rshift_func_uint16_t_u_u>
    a8dd:	0f b7 c0             	movzwl %ax,%eax
    a8e0:	be 04 00 00 00       	mov    $0x4,%esi
    a8e5:	48 89 c7             	mov    %rax,%rdi
    a8e8:	e8 93 f7 ff ff       	callq  a080 <safe_mod_func_uint64_t_u_u>
    a8ed:	89 c2                	mov    %eax,%edx
    a8ef:	48 8b 45 e8          	mov    -0x18(%rbp),%rax
    a8f3:	88 10                	mov    %dl,(%rax)
    a8f5:	48 8b 05 fc a1 01 00 	mov    0x1a1fc(%rip),%rax        # 24af8 <g_654>
    a8fc:	48 8b 00             	mov    (%rax),%rax
    a8ff:	0f b6 00             	movzbl (%rax),%eax
    a902:	0f b6 c0             	movzbl %al,%eax
    a905:	be 01 00 00 00       	mov    $0x1,%esi
    a90a:	89 c7                	mov    %eax,%edi
    a90c:	e8 3b f3 ff ff       	callq  9c4c <safe_lshift_func_uint8_t_u_u>
    a911:	0f b6 c0             	movzbl %al,%eax
    a914:	be a6 5a 00 00       	mov    $0x5aa6,%esi
    a919:	89 c7                	mov    %eax,%edi
    a91b:	e8 df f3 ff ff       	callq  9cff <safe_add_func_uint16_t_u_u>
    a920:	83 c8 fb             	or     $0xfffffffb,%eax
    a923:	0f be c0             	movsbl %al,%eax
    a926:	be 06 00 00 00       	mov    $0x6,%esi
    a92b:	89 c7                	mov    %eax,%edi
    a92d:	e8 bc e9 ff ff       	callq  92ee <safe_lshift_func_int8_t_s_u>
    a932:	48 0f be d0          	movsbq %al,%rdx
    a936:	8b 45 d4             	mov    -0x2c(%rbp),%eax
    a939:	48 98                	cltq   
    a93b:	48 89 d6             	mov    %rdx,%rsi
    a93e:	48 89 c7             	mov    %rax,%rdi
    a941:	e8 69 f7 ff ff       	callq  a0af <safe_div_func_uint64_t_u_u>
    a946:	8b 55 d4             	mov    -0x2c(%rbp),%edx
    a949:	48 63 d2             	movslq %edx,%rdx
    a94c:	48 39 d0             	cmp    %rdx,%rax
    a94f:	0f 97 c0             	seta   %al
    a952:	0f b6 c0             	movzbl %al,%eax
    a955:	89 45 d4             	mov    %eax,-0x2c(%rbp)
    a958:	0f b6 45 d2          	movzbl -0x2e(%rbp),%eax
    a95c:	48 83 c4 28          	add    $0x28,%rsp
    a960:	5b                   	pop    %rbx
    a961:	5d                   	pop    %rbp
    a962:	c3                   	retq   

000000000000a963 <func_4>:
    a963:	f3 0f 1e fa          	endbr64 
    a967:	55                   	push   %rbp
    a968:	48 89 e5             	mov    %rsp,%rbp
    a96b:	41 57                	push   %r15
    a96d:	41 56                	push   %r14
    a96f:	41 55                	push   %r13
    a971:	41 54                	push   %r12
    a973:	53                   	push   %rbx
    a974:	48 81 ec 00 10 00 00 	sub    $0x1000,%rsp
    a97b:	48 83 0c 24 00       	orq    $0x0,(%rsp)
    a980:	48 81 ec 48 01 00 00 	sub    $0x148,%rsp
    a987:	89 bd ac ee ff ff    	mov    %edi,-0x1154(%rbp)
    a98d:	64 48 8b 04 25 28 00 	mov    %fs:0x28,%rax
    a994:	00 00 
    a996:	48 89 45 c8          	mov    %rax,-0x38(%rbp)
    a99a:	31 c0                	xor    %eax,%eax
    a99c:	c7 85 e8 ee ff ff fc 	movl   $0xfffffffc,-0x1118(%rbp)
    a9a3:	ff ff ff 
    a9a6:	48 c7 85 58 ef ff ff 	movq   $0x0,-0x10a8(%rbp)
    a9ad:	00 00 00 00 
    a9b1:	48 8d 05 8c 76 01 00 	lea    0x1768c(%rip),%rax        # 22044 <g_39>
    a9b8:	48 89 85 c8 ef ff ff 	mov    %rax,-0x1038(%rbp)
    a9bf:	48 c7 85 d0 ef ff ff 	movq   $0x0,-0x1030(%rbp)
    a9c6:	00 00 00 00 
    a9ca:	48 8d 05 b7 76 01 00 	lea    0x176b7(%rip),%rax        # 22088 <g_49>
    a9d1:	48 89 85 60 ef ff ff 	mov    %rax,-0x10a0(%rbp)
    a9d8:	48 8d 05 b3 76 01 00 	lea    0x176b3(%rip),%rax        # 22092 <g_52>
    a9df:	48 89 85 d8 ef ff ff 	mov    %rax,-0x1028(%rbp)
    a9e6:	48 8d 05 e3 76 01 00 	lea    0x176e3(%rip),%rax        # 220d0 <g_164>
    a9ed:	48 89 85 e0 ef ff ff 	mov    %rax,-0x1020(%rbp)
    a9f4:	48 c7 85 68 ef ff ff 	movq   $0x0,-0x1098(%rbp)
    a9fb:	00 00 00 00 
    a9ff:	48 8d 85 68 ef ff ff 	lea    -0x1098(%rbp),%rax
    aa06:	48 89 85 70 ef ff ff 	mov    %rax,-0x1090(%rbp)
    aa0d:	48 c7 85 78 ef ff ff 	movq   $0x0,-0x1088(%rbp)
    aa14:	00 00 00 00 
    aa18:	48 8d 85 78 ef ff ff 	lea    -0x1088(%rbp),%rax
    aa1f:	48 89 85 80 ef ff ff 	mov    %rax,-0x1080(%rbp)
    aa26:	48 8d 85 80 ef ff ff 	lea    -0x1080(%rbp),%rax
    aa2d:	48 89 85 88 ef ff ff 	mov    %rax,-0x1078(%rbp)
    aa34:	c7 85 ec ee ff ff 00 	movl   $0x0,-0x1114(%rbp)
    aa3b:	00 00 00 
    aa3e:	48 c7 85 e8 ef ff ff 	movq   $0x0,-0x1018(%rbp)
    aa45:	00 00 00 00 
    aa49:	c7 85 d0 ee ff ff 52 	movl   $0x6e6ff752,-0x1130(%rbp)
    aa50:	f7 6f 6e 
    aa53:	c6 85 c1 ee ff ff 41 	movb   $0x41,-0x113f(%rbp)
    aa5a:	48 8d 05 cf b5 01 00 	lea    0x1b5cf(%rip),%rax        # 26030 <g_1740>
    aa61:	48 89 85 f0 ef ff ff 	mov    %rax,-0x1010(%rbp)
    aa68:	66 c7 85 c6 ee ff ff 	movw   $0x1,-0x113a(%rbp)
    aa6f:	01 00 
    aa71:	c7 85 f0 ee ff ff 03 	movl   $0x3,-0x1110(%rbp)
    aa78:	00 00 00 
    aa7b:	48 c7 85 90 ef ff ff 	movq   $0x0,-0x1070(%rbp)
    aa82:	00 00 00 00 
    aa86:	48 8d 85 90 ef ff ff 	lea    -0x1070(%rbp),%rax
    aa8d:	48 89 85 98 ef ff ff 	mov    %rax,-0x1068(%rbp)
    aa94:	c7 85 f4 ee ff ff ff 	movl   $0xffffffff,-0x110c(%rbp)
    aa9b:	ff ff ff 
    aa9e:	c7 85 f8 ee ff ff 02 	movl   $0x2,-0x1108(%rbp)
    aaa5:	00 00 00 
    aaa8:	c7 85 f0 f2 ff ff bc 	movl   $0xbea271bc,-0xd10(%rbp)
    aaaf:	71 a2 be 
    aab2:	c7 85 f4 f2 ff ff 53 	movl   $0x1804c953,-0xd0c(%rbp)
    aab9:	c9 04 18 
    aabc:	c7 85 f8 f2 ff ff e2 	movl   $0x83eb5ae2,-0xd08(%rbp)
    aac3:	5a eb 83 
    aac6:	c7 85 fc f2 ff ff 68 	movl   $0x937f0668,-0xd04(%rbp)
    aacd:	06 7f 93 
    aad0:	c7 85 00 f3 ff ff e2 	movl   $0x83eb5ae2,-0xd00(%rbp)
    aad7:	5a eb 83 
    aada:	c7 85 04 f3 ff ff 53 	movl   $0x1804c953,-0xcfc(%rbp)
    aae1:	c9 04 18 
    aae4:	c7 85 08 f3 ff ff bc 	movl   $0xbea271bc,-0xcf8(%rbp)
    aaeb:	71 a2 be 
    aaee:	c7 85 0c f3 ff ff bd 	movl   $0xffdccdbd,-0xcf4(%rbp)
    aaf5:	cd dc ff 
    aaf8:	c7 85 10 f3 ff ff 01 	movl   $0x1,-0xcf0(%rbp)
    aaff:	00 00 00 
    ab02:	c7 85 14 f3 ff ff f7 	movl   $0xfffffff7,-0xcec(%rbp)
    ab09:	ff ff ff 
    ab0c:	c7 85 18 f3 ff ff 5d 	movl   $0xe4de045d,-0xce8(%rbp)
    ab13:	04 de e4 
    ab16:	c7 85 1c f3 ff ff b1 	movl   $0x4d83c9b1,-0xce4(%rbp)
    ab1d:	c9 83 4d 
    ab20:	c7 85 20 f3 ff ff 6c 	movl   $0x5484956c,-0xce0(%rbp)
    ab27:	95 84 54 
    ab2a:	c7 85 24 f3 ff ff 0b 	movl   $0xfd991b0b,-0xcdc(%rbp)
    ab31:	1b 99 fd 
    ab34:	c7 85 28 f3 ff ff fd 	movl   $0xfffffffd,-0xcd8(%rbp)
    ab3b:	ff ff ff 
    ab3e:	c7 85 2c f3 ff ff 25 	movl   $0x194f4325,-0xcd4(%rbp)
    ab45:	43 4f 19 
    ab48:	c7 85 30 f3 ff ff ff 	movl   $0xffffffff,-0xcd0(%rbp)
    ab4f:	ff ff ff 
    ab52:	c7 85 34 f3 ff ff fd 	movl   $0xfffffffd,-0xccc(%rbp)
    ab59:	ff ff ff 
    ab5c:	c7 85 38 f3 ff ff b1 	movl   $0x4d83c9b1,-0xcc8(%rbp)
    ab63:	c9 83 4d 
    ab66:	c7 85 3c f3 ff ff 5b 	movl   $0xba0bd75b,-0xcc4(%rbp)
    ab6d:	d7 0b ba 
    ab70:	c7 85 40 f3 ff ff 6c 	movl   $0x5484956c,-0xcc0(%rbp)
    ab77:	95 84 54 
    ab7a:	c7 85 44 f3 ff ff 6a 	movl   $0x5b85c36a,-0xcbc(%rbp)
    ab81:	c3 85 5b 
    ab84:	c7 85 48 f3 ff ff 68 	movl   $0x937f0668,-0xcb8(%rbp)
    ab8b:	06 7f 93 
    ab8e:	c7 85 4c f3 ff ff 68 	movl   $0x937f0668,-0xcb4(%rbp)
    ab95:	06 7f 93 
    ab98:	c7 85 50 f3 ff ff 01 	movl   $0x1,-0xcb0(%rbp)
    ab9f:	00 00 00 
    aba2:	c7 85 54 f3 ff ff e2 	movl   $0x83eb5ae2,-0xcac(%rbp)
    aba9:	5a eb 83 
    abac:	c7 85 58 f3 ff ff 25 	movl   $0x194f4325,-0xca8(%rbp)
    abb3:	43 4f 19 
    abb6:	c7 85 5c f3 ff ff 25 	movl   $0x194f4325,-0xca4(%rbp)
    abbd:	43 4f 19 
    abc0:	c7 85 60 f3 ff ff e2 	movl   $0x83eb5ae2,-0xca0(%rbp)
    abc7:	5a eb 83 
    abca:	c7 85 64 f3 ff ff 01 	movl   $0x1,-0xc9c(%rbp)
    abd1:	00 00 00 
    abd4:	c7 85 68 f3 ff ff fa 	movl   $0x97bcfffa,-0xc98(%rbp)
    abdb:	ff bc 97 
    abde:	c7 85 6c f3 ff ff ff 	movl   $0xffffffff,-0xc94(%rbp)
    abe5:	ff ff ff 
    abe8:	c7 85 70 f3 ff ff bc 	movl   $0xbea271bc,-0xc90(%rbp)
    abef:	71 a2 be 
    abf2:	c7 85 74 f3 ff ff 5d 	movl   $0xe4de045d,-0xc8c(%rbp)
    abf9:	04 de e4 
    abfc:	c7 85 78 f3 ff ff ff 	movl   $0xffffffff,-0xc88(%rbp)
    ac03:	ff ff ff 
    ac06:	c7 85 7c f3 ff ff 53 	movl   $0x1804c953,-0xc84(%rbp)
    ac0d:	c9 04 18 
    ac10:	c7 85 80 f3 ff ff 0b 	movl   $0xc919ab0b,-0xc80(%rbp)
    ac17:	ab 19 c9 
    ac1a:	c7 85 84 f3 ff ff c9 	movl   $0xb40077c9,-0xc7c(%rbp)
    ac21:	77 00 b4 
    ac24:	c7 85 88 f3 ff ff 0b 	movl   $0xfd991b0b,-0xc78(%rbp)
    ac2b:	1b 99 fd 
    ac2e:	c7 85 8c f3 ff ff 0e 	movl   $0x4b368a0e,-0xc74(%rbp)
    ac35:	8a 36 4b 
    ac38:	c7 85 90 f3 ff ff f7 	movl   $0xfffffff7,-0xc70(%rbp)
    ac3f:	ff ff ff 
    ac42:	c7 85 94 f3 ff ff b1 	movl   $0x4d83c9b1,-0xc6c(%rbp)
    ac49:	c9 83 4d 
    ac4c:	c7 85 98 f3 ff ff fa 	movl   $0x97bcfffa,-0xc68(%rbp)
    ac53:	ff bc 97 
    ac56:	c7 85 9c f3 ff ff 53 	movl   $0x1804c953,-0xc64(%rbp)
    ac5d:	c9 04 18 
    ac60:	c7 85 a0 f3 ff ff 25 	movl   $0x194f4325,-0xc60(%rbp)
    ac67:	43 4f 19 
    ac6a:	c7 85 a4 f3 ff ff ff 	movl   $0xffffffff,-0xc5c(%rbp)
    ac71:	ff ff ff 
    ac74:	c7 85 a8 f3 ff ff f9 	movl   $0xdba743f9,-0xc58(%rbp)
    ac7b:	43 a7 db 
    ac7e:	c7 85 ac f3 ff ff ff 	movl   $0xffffffff,-0xc54(%rbp)
    ac85:	ff ff ff 
    ac88:	c7 85 b0 f3 ff ff 6a 	movl   $0x5b85c36a,-0xc50(%rbp)
    ac8f:	c3 85 5b 
    ac92:	c7 85 b4 f3 ff ff 25 	movl   $0x194f4325,-0xc4c(%rbp)
    ac99:	43 4f 19 
    ac9c:	c7 85 b8 f3 ff ff 6f 	movl   $0x4cfcc16f,-0xc48(%rbp)
    aca3:	c1 fc 4c 
    aca6:	c7 85 bc f3 ff ff 25 	movl   $0x194f4325,-0xc44(%rbp)
    acad:	43 4f 19 
    acb0:	c7 85 c0 f3 ff ff 6a 	movl   $0x5b85c36a,-0xc40(%rbp)
    acb7:	c3 85 5b 
    acba:	c7 85 c4 f3 ff ff fd 	movl   $0xfffffffd,-0xc3c(%rbp)
    acc1:	ff ff ff 
    acc4:	c7 85 c8 f3 ff ff 0b 	movl   $0xc919ab0b,-0xc38(%rbp)
    accb:	ab 19 c9 
    acce:	c7 85 cc f3 ff ff 68 	movl   $0x937f0668,-0xc34(%rbp)
    acd5:	06 7f 93 
    acd8:	c7 85 d0 f3 ff ff 0b 	movl   $0xc919ab0b,-0xc30(%rbp)
    acdf:	ab 19 c9 
    ace2:	c7 85 d4 f3 ff ff ff 	movl   $0xffffffff,-0xc2c(%rbp)
    ace9:	ff ff ff 
    acec:	c7 85 d8 f3 ff ff c9 	movl   $0xb40077c9,-0xc28(%rbp)
    acf3:	77 00 b4 
    acf6:	c7 85 dc f3 ff ff 5b 	movl   $0xba0bd75b,-0xc24(%rbp)
    acfd:	d7 0b ba 
    ad00:	c7 85 e0 f3 ff ff 68 	movl   $0x937f0668,-0xc20(%rbp)
    ad07:	06 7f 93 
    ad0a:	c7 85 e4 f3 ff ff 5d 	movl   $0xe4de045d,-0xc1c(%rbp)
    ad11:	04 de e4 
    ad14:	c7 85 e8 f3 ff ff 01 	movl   $0x1,-0xc18(%rbp)
    ad1b:	00 00 00 
    ad1e:	c7 85 ec f3 ff ff 25 	movl   $0x194f4325,-0xc14(%rbp)
    ad25:	43 4f 19 
    ad28:	48 8d 05 c1 b2 01 00 	lea    0x1b2c1(%rip),%rax        # 25ff0 <g_713+0x30>
    ad2f:	48 89 85 a0 ef ff ff 	mov    %rax,-0x1060(%rbp)
    ad36:	c7 85 fc ee ff ff 0a 	movl   $0xe928910a,-0x1104(%rbp)
    ad3d:	91 28 e9 
    ad40:	48 8d 05 26 b2 01 00 	lea    0x1b226(%rip),%rax        # 25f6d <g_43+0x5>
    ad47:	48 89 85 f8 ef ff ff 	mov    %rax,-0x1008(%rbp)
    ad4e:	48 8d 05 5f 73 01 00 	lea    0x1735f(%rip),%rax        # 220b4 <g_127>
    ad55:	48 89 85 00 f0 ff ff 	mov    %rax,-0x1000(%rbp)
    ad5c:	c6 85 bf ee ff ff 2a 	movb   $0x2a,-0x1141(%rbp)
    ad63:	48 c7 85 08 f0 ff ff 	movq   $0x0,-0xff8(%rbp)
    ad6a:	00 00 00 00 
    ad6e:	48 8d 05 25 73 01 00 	lea    0x17325(%rip),%rax        # 2209a <g_63+0x2>
    ad75:	48 89 85 10 f0 ff ff 	mov    %rax,-0xff0(%rbp)
    ad7c:	66 c7 85 c8 ee ff ff 	movw   $0x4191,-0x1138(%rbp)
    ad83:	91 41 
    ad85:	c7 85 00 ef ff ff 05 	movl   $0x93554605,-0x1100(%rbp)
    ad8c:	46 55 93 
    ad8f:	c7 85 e4 ee ff ff 00 	movl   $0x0,-0x111c(%rbp)
    ad96:	00 00 00 
    ad99:	eb 1b                	jmp    adb6 <func_4+0x453>
    ad9b:	8b 85 e4 ee ff ff    	mov    -0x111c(%rbp),%eax
    ada1:	48 98                	cltq   
    ada3:	48 c7 84 c5 40 f1 ff 	movq   $0x0,-0xec0(%rbp,%rax,8)
    adaa:	ff 00 00 00 00 
    adaf:	83 85 e4 ee ff ff 01 	addl   $0x1,-0x111c(%rbp)
    adb6:	83 bd e4 ee ff ff 06 	cmpl   $0x6,-0x111c(%rbp)
    adbd:	7e dc                	jle    ad9b <func_4+0x438>
    adbf:	c7 85 e4 ee ff ff 00 	movl   $0x0,-0x111c(%rbp)
    adc6:	00 00 00 
    adc9:	eb 1e                	jmp    ade9 <func_4+0x486>
    adcb:	8b 85 e4 ee ff ff    	mov    -0x111c(%rbp),%eax
    add1:	48 98                	cltq   
    add3:	48 8d 95 88 ef ff ff 	lea    -0x1078(%rbp),%rdx
    adda:	48 89 94 c5 80 f1 ff 	mov    %rdx,-0xe80(%rbp,%rax,8)
    ade1:	ff 
    ade2:	83 85 e4 ee ff ff 01 	addl   $0x1,-0x111c(%rbp)
    ade9:	83 bd e4 ee ff ff 06 	cmpl   $0x6,-0x111c(%rbp)
    adf0:	7e d9                	jle    adcb <func_4+0x468>
    adf2:	c7 85 e4 ee ff ff 00 	movl   $0x0,-0x111c(%rbp)
    adf9:	00 00 00 
    adfc:	eb 1a                	jmp    ae18 <func_4+0x4b5>
    adfe:	8b 85 e4 ee ff ff    	mov    -0x111c(%rbp),%eax
    ae04:	48 98                	cltq   
    ae06:	c7 84 85 d0 f0 ff ff 	movl   $0x2cc7162e,-0xf30(%rbp,%rax,4)
    ae0d:	2e 16 c7 2c 
    ae11:	83 85 e4 ee ff ff 01 	addl   $0x1,-0x111c(%rbp)
    ae18:	83 bd e4 ee ff ff 06 	cmpl   $0x6,-0x111c(%rbp)
    ae1f:	7e dd                	jle    adfe <func_4+0x49b>
    ae21:	8b 85 ac ee ff ff    	mov    -0x1154(%rbp),%eax
    ae27:	44 0f b7 e8          	movzwl %ax,%r13d
    ae2b:	8b 85 ac ee ff ff    	mov    -0x1154(%rbp),%eax
    ae31:	44 0f be e0          	movsbl %al,%r12d
    ae35:	48 8b 05 8c 9c 01 00 	mov    0x19c8c(%rip),%rax        # 24ac8 <g_411>
    ae3c:	0f b7 00             	movzwl (%rax),%eax
    ae3f:	44 0f bf f0          	movswl %ax,%r14d
    ae43:	48 8b 05 ae 72 01 00 	mov    0x172ae(%rip),%rax        # 220f8 <g_462>
    ae4a:	89 85 a8 ee ff ff    	mov    %eax,-0x1158(%rbp)
    ae50:	8b 85 ac ee ff ff    	mov    -0x1154(%rbp),%eax
    ae56:	89 85 a4 ee ff ff    	mov    %eax,-0x115c(%rbp)
    ae5c:	8b 85 ac ee ff ff    	mov    -0x1154(%rbp),%eax
    ae62:	44 0f b6 f8          	movzbl %al,%r15d
    ae66:	be 03 00 00 00       	mov    $0x3,%esi
    ae6b:	bf 02 fc 00 00       	mov    $0xfc02,%edi
    ae70:	e8 d3 ef ff ff       	callq  9e48 <safe_rshift_func_uint16_t_u_s>
    ae75:	66 85 c0             	test   %ax,%ax
    ae78:	0f 85 fc 00 00 00    	jne    af7a <func_4+0x617>
    ae7e:	8b 85 ac ee ff ff    	mov    -0x1154(%rbp),%eax
    ae84:	0f b7 d8             	movzwl %ax,%ebx
    ae87:	8b 05 b3 71 01 00    	mov    0x171b3(%rip),%eax        # 22040 <g_2+0x10>
    ae8d:	48 98                	cltq   
    ae8f:	48 89 85 98 ee ff ff 	mov    %rax,-0x1168(%rbp)
    ae96:	48 8b 85 c8 ef ff ff 	mov    -0x1038(%rbp),%rax
    ae9d:	8b 00                	mov    (%rax),%eax
    ae9f:	83 c8 01             	or     $0x1,%eax
    aea2:	89 c2                	mov    %eax,%edx
    aea4:	48 8b 85 c8 ef ff ff 	mov    -0x1038(%rbp),%rax
    aeab:	89 10                	mov    %edx,(%rax)
    aead:	48 8b 85 c8 ef ff ff 	mov    -0x1038(%rbp),%rax
    aeb4:	8b 10                	mov    (%rax),%edx
    aeb6:	8b 05 a8 71 01 00    	mov    0x171a8(%rip),%eax        # 22064 <g_41+0x4>
    aebc:	21 d0                	and    %edx,%eax
    aebe:	89 05 a0 71 01 00    	mov    %eax,0x171a0(%rip)        # 22064 <g_41+0x4>
    aec4:	8b 05 6e 71 01 00    	mov    0x1716e(%rip),%eax        # 22038 <g_2+0x8>
    aeca:	85 c0                	test   %eax,%eax
    aecc:	0f 95 c0             	setne  %al
    aecf:	0f b6 d0             	movzbl %al,%edx
    aed2:	0f b6 05 94 b0 01 00 	movzbl 0x1b094(%rip),%eax        # 25f6d <g_43+0x5>
    aed9:	21 d0                	and    %edx,%eax
    aedb:	88 05 8c b0 01 00    	mov    %al,0x1b08c(%rip)        # 25f6d <g_43+0x5>
    aee1:	0f b6 05 85 b0 01 00 	movzbl 0x1b085(%rip),%eax        # 25f6d <g_43+0x5>
    aee8:	0f be c0             	movsbl %al,%eax
    aeeb:	89 c7                	mov    %eax,%edi
    aeed:	e8 20 a5 00 00       	callq  15412 <func_35>
    aef2:	85 c0                	test   %eax,%eax
    aef4:	74 07                	je     aefd <func_4+0x59a>
    aef6:	ba 01 00 00 00       	mov    $0x1,%edx
    aefb:	eb 05                	jmp    af02 <func_4+0x59f>
    aefd:	ba 00 00 00 00       	mov    $0x0,%edx
    af02:	8b 85 ac ee ff ff    	mov    -0x1154(%rbp),%eax
    af08:	39 c2                	cmp    %eax,%edx
    af0a:	0f 9e c0             	setle  %al
    af0d:	0f b6 c0             	movzbl %al,%eax
    af10:	89 c7                	mov    %eax,%edi
    af12:	e8 8f ef ff ff       	callq  9ea6 <safe_unary_minus_func_uint32_t_u>
    af17:	8b 15 23 71 01 00    	mov    0x17123(%rip),%edx        # 22040 <g_2+0x10>
    af1d:	09 d0                	or     %edx,%eax
    af1f:	89 c1                	mov    %eax,%ecx
    af21:	48 8b 85 60 ef ff ff 	mov    -0x10a0(%rbp),%rax
    af28:	48 8b 10             	mov    (%rax),%rdx
    af2b:	89 c9                	mov    %ecx,%ecx
    af2d:	48 8b 85 60 ef ff ff 	mov    -0x10a0(%rbp),%rax
    af34:	48 31 ca             	xor    %rcx,%rdx
    af37:	48 89 10             	mov    %rdx,(%rax)
    af3a:	48 8b 00             	mov    (%rax),%rax
    af3d:	48 8b b5 98 ee ff ff 	mov    -0x1168(%rbp),%rsi
    af44:	48 89 c7             	mov    %rax,%rdi
    af47:	e8 ab ea ff ff       	callq  99f7 <safe_div_func_int64_t_s_s>
    af4c:	66 89 05 3d 71 01 00 	mov    %ax,0x1713d(%rip)        # 22090 <g_50>
    af53:	48 8b 85 d8 ef ff ff 	mov    -0x1028(%rbp),%rax
    af5a:	66 c7 00 04 00       	movw   $0x4,(%rax)
    af5f:	48 8b 85 d8 ef ff ff 	mov    -0x1028(%rbp),%rax
    af66:	0f b7 00             	movzwl (%rax),%eax
    af69:	0f b7 c0             	movzwl %ax,%eax
    af6c:	89 de                	mov    %ebx,%esi
    af6e:	89 c7                	mov    %eax,%edi
    af70:	e8 c8 ed ff ff       	callq  9d3d <safe_mul_func_uint16_t_u_u>
    af75:	66 85 c0             	test   %ax,%ax
    af78:	74 07                	je     af81 <func_4+0x61e>
    af7a:	b8 01 00 00 00       	mov    $0x1,%eax
    af7f:	eb 05                	jmp    af86 <func_4+0x623>
    af81:	b8 00 00 00 00       	mov    $0x0,%eax
    af86:	89 c2                	mov    %eax,%edx
    af88:	8b 05 b2 70 01 00    	mov    0x170b2(%rip),%eax        # 22040 <g_2+0x10>
    af8e:	09 d0                	or     %edx,%eax
    af90:	98                   	cwtl   
    af91:	48 8b 15 70 9b 01 00 	mov    0x19b70(%rip),%rdx        # 24b08 <g_714>
    af98:	48 8b 1a             	mov    (%rdx),%rbx
    af9b:	89 c7                	mov    %eax,%edi
    af9d:	e8 d3 68 00 00       	callq  11875 <func_25>
    afa2:	66 89 03             	mov    %ax,(%rbx)
    afa5:	0f b7 13             	movzwl (%rbx),%edx
    afa8:	48 8b 85 d8 ef ff ff 	mov    -0x1028(%rbp),%rax
    afaf:	66 89 10             	mov    %dx,(%rax)
    afb2:	48 8b 85 d8 ef ff ff 	mov    -0x1028(%rbp),%rax
    afb9:	0f b7 00             	movzwl (%rax),%eax
    afbc:	0f b7 c0             	movzwl %ax,%eax
    afbf:	44 89 fe             	mov    %r15d,%esi
    afc2:	89 c7                	mov    %eax,%edi
    afc4:	e8 40 3f 00 00       	callq  ef09 <func_22>
    afc9:	be 09 00 00 00       	mov    $0x9,%esi
    afce:	bf 00 00 00 00       	mov    $0x0,%edi
    afd3:	e8 2e ee ff ff       	callq  9e06 <safe_lshift_func_uint16_t_u_u>
    afd8:	0f be c0             	movsbl %al,%eax
    afdb:	8b b5 a4 ee ff ff    	mov    -0x115c(%rbp),%esi
    afe1:	89 c7                	mov    %eax,%edi
    afe3:	e8 84 e3 ff ff       	callq  936c <safe_rshift_func_int8_t_s_u>
    afe8:	8b 85 ac ee ff ff    	mov    -0x1154(%rbp),%eax
    afee:	48 63 d0             	movslq %eax,%rdx
    aff1:	48 8b 85 e0 ef ff ff 	mov    -0x1020(%rbp),%rax
    aff8:	48 89 10             	mov    %rdx,(%rax)
    affb:	48 8b 85 e0 ef ff ff 	mov    -0x1020(%rbp),%rax
    b002:	48 8b 00             	mov    (%rax),%rax
    b005:	89 c2                	mov    %eax,%edx
    b007:	8b 85 ac ee ff ff    	mov    -0x1154(%rbp),%eax
    b00d:	31 d0                	xor    %edx,%eax
    b00f:	0f b7 c0             	movzwl %ax,%eax
    b012:	8b b5 a8 ee ff ff    	mov    -0x1158(%rbp),%esi
    b018:	89 c7                	mov    %eax,%edi
    b01a:	e8 ab 3a 00 00       	callq  eaca <func_14>
    b01f:	0f b7 c0             	movzwl %ax,%eax
    b022:	be 05 00 00 00       	mov    $0x5,%esi
    b027:	89 c7                	mov    %eax,%edi
    b029:	e8 1a ee ff ff       	callq  9e48 <safe_rshift_func_uint16_t_u_s>
    b02e:	89 c2                	mov    %eax,%edx
    b030:	8b 85 ac ee ff ff    	mov    -0x1154(%rbp),%eax
    b036:	21 d0                	and    %edx,%eax
    b038:	98                   	cwtl   
    b039:	44 89 f6             	mov    %r14d,%esi
    b03c:	89 c7                	mov    %eax,%edi
    b03e:	e8 e7 e4 ff ff       	callq  952a <safe_rshift_func_int16_t_s_s>
    b043:	48 8b 05 b6 92 01 00 	mov    0x192b6(%rip),%rax        # 24300 <g_147>
    b04a:	8b 00                	mov    (%rax),%eax
    b04c:	44 89 ea             	mov    %r13d,%edx
    b04f:	44 89 e6             	mov    %r12d,%esi
    b052:	89 c7                	mov    %eax,%edi
    b054:	e8 30 2a 00 00       	callq  da89 <func_6>
    b059:	85 c0                	test   %eax,%eax
    b05b:	0f 84 9e 03 00 00    	je     b3ff <func_4+0xa9c>
    b061:	48 8d 05 30 74 01 00 	lea    0x17430(%rip),%rax        # 22498 <g_779>
    b068:	48 89 85 68 f0 ff ff 	mov    %rax,-0xf98(%rbp)
    b06f:	48 c7 85 c0 ef ff ff 	movq   $0x9,-0x1040(%rbp)
    b076:	09 00 00 00 
    b07a:	48 c7 85 70 f0 ff ff 	movq   $0x0,-0xf90(%rbp)
    b081:	00 00 00 00 
    b085:	c7 85 44 ef ff ff e0 	movl   $0xa3e3a0e0,-0x10bc(%rbp)
    b08c:	a0 e3 a3 
    b08f:	c7 85 48 ef ff ff 84 	movl   $0xcb069c84,-0x10b8(%rbp)
    b096:	9c 06 cb 
    b099:	c7 85 d4 ee ff ff 57 	movl   $0x8895f157,-0x112c(%rbp)
    b0a0:	f1 95 88 
    b0a3:	c7 85 4c ef ff ff 9a 	movl   $0xe9b36d9a,-0x10b4(%rbp)
    b0aa:	6d b3 e9 
    b0ad:	8b 85 ac ee ff ff    	mov    -0x1154(%rbp),%eax
    b0b3:	0f b7 c0             	movzwl %ax,%eax
    b0b6:	be 07 00 00 00       	mov    $0x7,%esi
    b0bb:	89 c7                	mov    %eax,%edi
    b0bd:	e8 86 ed ff ff       	callq  9e48 <safe_rshift_func_uint16_t_u_s>
    b0c2:	0f b7 d0             	movzwl %ax,%edx
    b0c5:	48 8b 85 c8 ef ff ff 	mov    -0x1038(%rbp),%rax
    b0cc:	89 10                	mov    %edx,(%rax)
    b0ce:	48 c7 05 af 6f 01 00 	movq   $0x0,0x16faf(%rip)        # 22088 <g_49>
    b0d5:	00 00 00 00 
    b0d9:	e9 e3 00 00 00       	jmpq   b1c1 <func_4+0x85e>
    b0de:	48 8d 05 33 74 01 00 	lea    0x17433(%rip),%rax        # 22518 <g_2108>
    b0e5:	48 89 85 a0 f0 ff ff 	mov    %rax,-0xf60(%rbp)
    b0ec:	48 c7 85 a8 f0 ff ff 	movq   $0x0,-0xf58(%rbp)
    b0f3:	00 00 00 00 
    b0f7:	48 8d 85 70 ef ff ff 	lea    -0x1090(%rbp),%rax
    b0fe:	48 89 85 b0 f0 ff ff 	mov    %rax,-0xf50(%rbp)
    b105:	c7 85 54 ef ff ff 08 	movl   $0x8,-0x10ac(%rbp)
    b10c:	00 00 00 
    b10f:	48 8b 05 d2 a7 01 00 	mov    0x1a7d2(%rip),%rax        # 258e8 <g_2255>
    b116:	48 8b 95 68 f0 ff ff 	mov    -0xf98(%rbp),%rdx
    b11d:	48 89 10             	mov    %rdx,(%rax)
    b120:	8b 85 54 ef ff ff    	mov    -0x10ac(%rbp),%eax
    b126:	48 63 d0             	movslq %eax,%rdx
    b129:	48 8b 05 c8 99 01 00 	mov    0x199c8(%rip),%rax        # 24af8 <g_654>
    b130:	48 8b 00             	mov    (%rax),%rax
    b133:	c6 00 ff             	movb   $0xff,(%rax)
    b136:	be 01 00 00 00       	mov    $0x1,%esi
    b13b:	48 8b 85 b0 f1 ff ff 	mov    -0xe50(%rbp),%rax
    b142:	48 89 05 57 a9 01 00 	mov    %rax,0x1a957(%rip)        # 25aa0 <g_2272>
    b149:	48 8b 05 50 a9 01 00 	mov    0x1a950(%rip),%rax        # 25aa0 <g_2272>
    b150:	48 8d 0d 41 a9 01 00 	lea    0x1a941(%rip),%rcx        # 25a98 <g_2273>
    b157:	48 39 c8             	cmp    %rcx,%rax
    b15a:	0f 95 c0             	setne  %al
    b15d:	0f b6 c0             	movzbl %al,%eax
    b160:	f7 d0                	not    %eax
    b162:	39 c6                	cmp    %eax,%esi
    b164:	0f 95 c0             	setne  %al
    b167:	0f b6 c0             	movzbl %al,%eax
    b16a:	48 89 d6             	mov    %rdx,%rsi
    b16d:	48 89 c7             	mov    %rax,%rdi
    b170:	e8 0b ef ff ff       	callq  a080 <safe_mod_func_uint64_t_u_u>
    b175:	89 85 ac ee ff ff    	mov    %eax,-0x1154(%rbp)
    b17b:	8b 05 a3 73 01 00    	mov    0x173a3(%rip),%eax        # 22524 <g_2147>
    b181:	85 c0                	test   %eax,%eax
    b183:	74 05                	je     b18a <func_4+0x827>
    b185:	e9 23 ff ff ff       	jmpq   b0ad <func_4+0x74a>
    b18a:	48 8b 05 7f a9 01 00 	mov    0x1a97f(%rip),%rax        # 25b10 <g_2283>
    b191:	48 89 85 e8 ef ff ff 	mov    %rax,-0x1018(%rbp)
    b198:	48 83 bd e8 ef ff ff 	cmpq   $0x0,-0x1018(%rbp)
    b19f:	00 
    b1a0:	0f 95 c0             	setne  %al
    b1a3:	0f b6 d0             	movzbl %al,%edx
    b1a6:	48 8b 85 c8 ef ff ff 	mov    -0x1038(%rbp),%rax
    b1ad:	89 10                	mov    %edx,(%rax)
    b1af:	48 8b 05 d2 6e 01 00 	mov    0x16ed2(%rip),%rax        # 22088 <g_49>
    b1b6:	48 83 e8 01          	sub    $0x1,%rax
    b1ba:	48 89 05 c7 6e 01 00 	mov    %rax,0x16ec7(%rip)        # 22088 <g_49>
    b1c1:	48 8b 05 c0 6e 01 00 	mov    0x16ec0(%rip),%rax        # 22088 <g_49>
    b1c8:	48 83 f8 ff          	cmp    $0xffffffffffffffff,%rax
    b1cc:	0f 85 0c ff ff ff    	jne    b0de <func_4+0x77b>
    b1d2:	66 c7 05 ed 72 01 00 	movw   $0x0,0x172ed(%rip)        # 224c8 <g_1199>
    b1d9:	00 00 
    b1db:	e9 09 02 00 00       	jmpq   b3e9 <func_4+0xa86>
    b1e0:	48 8d 05 bd 6e 01 00 	lea    0x16ebd(%rip),%rax        # 220a4 <g_88>
    b1e7:	48 89 85 78 f0 ff ff 	mov    %rax,-0xf88(%rbp)
    b1ee:	48 8d 05 fb 72 01 00 	lea    0x172fb(%rip),%rax        # 224f0 <g_1782>
    b1f5:	48 89 85 80 f0 ff ff 	mov    %rax,-0xf80(%rbp)
    b1fc:	48 8d 05 ed 72 01 00 	lea    0x172ed(%rip),%rax        # 224f0 <g_1782>
    b203:	48 89 85 88 f0 ff ff 	mov    %rax,-0xf78(%rbp)
    b20a:	48 8d 05 93 6e 01 00 	lea    0x16e93(%rip),%rax        # 220a4 <g_88>
    b211:	48 89 85 90 f0 ff ff 	mov    %rax,-0xf70(%rbp)
    b218:	48 8d 85 f0 f7 ff ff 	lea    -0x810(%rbp),%rax
    b21f:	48 8d 15 1a 73 01 00 	lea    0x1731a(%rip),%rdx        # 22540 <g_2474+0x16>
    b226:	b9 31 00 00 00       	mov    $0x31,%ecx
    b22b:	48 89 c7             	mov    %rax,%rdi
    b22e:	48 89 d6             	mov    %rdx,%rsi
    b231:	f3 48 a5             	rep movsq %ds:(%rsi),%es:(%rdi)
    b234:	48 b8 a8 cc f9 b3 ce 	movabs $0x930248ceb3f9cca8,%rax
    b23b:	48 02 93 
    b23e:	48 89 85 f0 f3 ff ff 	mov    %rax,-0xc10(%rbp)
    b245:	48 89 85 f8 f3 ff ff 	mov    %rax,-0xc08(%rbp)
    b24c:	48 89 85 00 f4 ff ff 	mov    %rax,-0xc00(%rbp)
    b253:	48 89 85 08 f4 ff ff 	mov    %rax,-0xbf8(%rbp)
    b25a:	48 89 85 10 f4 ff ff 	mov    %rax,-0xbf0(%rbp)
    b261:	48 89 85 18 f4 ff ff 	mov    %rax,-0xbe8(%rbp)
    b268:	48 8b 05 a9 a8 01 00 	mov    0x1a8a9(%rip),%rax        # 25b18 <g_2288>
    b26f:	48 8d 95 ac ee ff ff 	lea    -0x1154(%rbp),%rdx
    b276:	48 89 10             	mov    %rdx,(%rax)
    b279:	c7 05 c1 6d 01 00 03 	movl   $0x3,0x16dc1(%rip)        # 22044 <g_39>
    b280:	00 00 00 
    b283:	90                   	nop
    b284:	8b 05 ba 6d 01 00    	mov    0x16dba(%rip),%eax        # 22044 <g_39>
    b28a:	83 f8 09             	cmp    $0x9,%eax
    b28d:	7f 0b                	jg     b29a <func_4+0x937>
    b28f:	8b 85 ac ee ff ff    	mov    -0x1154(%rbp),%eax
    b295:	e9 c9 27 00 00       	jmpq   da63 <func_4+0x3100>
    b29a:	48 8b 85 10 f4 ff ff 	mov    -0xbf0(%rbp),%rax
    b2a1:	48 83 c0 01          	add    $0x1,%rax
    b2a5:	48 89 85 10 f4 ff ff 	mov    %rax,-0xbf0(%rbp)
    b2ac:	c6 05 31 72 01 00 00 	movb   $0x0,0x17231(%rip)        # 224e4 <g_1434>
    b2b3:	e9 0e 01 00 00       	jmpq   b3c6 <func_4+0xa63>
    b2b8:	48 8b 85 88 f0 ff ff 	mov    -0xf78(%rbp),%rax
    b2bf:	8b 00                	mov    (%rax),%eax
    b2c1:	85 c0                	test   %eax,%eax
    b2c3:	0f 85 0e 01 00 00    	jne    b3d7 <func_4+0xa74>
    b2c9:	48 c7 85 c0 ef ff ff 	movq   $0x1,-0x1040(%rbp)
    b2d0:	01 00 00 00 
    b2d4:	e9 ae 00 00 00       	jmpq   b387 <func_4+0xa24>
    b2d9:	48 c7 85 98 f0 ff ff 	movq   $0xfffffffffffffffd,-0xf68(%rbp)
    b2e0:	fd ff ff ff 
    b2e4:	83 bd d4 ee ff ff 00 	cmpl   $0x0,-0x112c(%rbp)
    b2eb:	0f 85 a6 00 00 00    	jne    b397 <func_4+0xa34>
    b2f1:	48 8b 85 c0 ef ff ff 	mov    -0x1040(%rbp),%rax
    b2f8:	48 8d 50 02          	lea    0x2(%rax),%rdx
    b2fc:	48 8b 05 1d a8 01 00 	mov    0x1a81d(%rip),%rax        # 25b20 <g_2305>
    b303:	48 8b 94 d5 40 f1 ff 	mov    -0xec0(%rbp,%rdx,8),%rdx
    b30a:	ff 
    b30b:	48 89 10             	mov    %rdx,(%rax)
    b30e:	c7 85 d4 ee ff ff 00 	movl   $0x0,-0x112c(%rbp)
    b315:	00 00 00 
    b318:	eb 35                	jmp    b34f <func_4+0x9ec>
    b31a:	c7 85 50 ef ff ff a6 	movl   $0x1a2d26a6,-0x10b0(%rbp)
    b321:	26 2d 1a 
    b324:	83 bd 50 ef ff ff 00 	cmpl   $0x0,-0x10b0(%rbp)
    b32b:	75 2d                	jne    b35a <func_4+0x9f7>
    b32d:	8b 85 ac ee ff ff    	mov    -0x1154(%rbp),%eax
    b333:	85 c0                	test   %eax,%eax
    b335:	75 26                	jne    b35d <func_4+0x9fa>
    b337:	48 8b 05 ea a7 01 00 	mov    0x1a7ea(%rip),%rax        # 25b28 <g_2307>
    b33e:	48 8d 95 ac ee ff ff 	lea    -0x1154(%rbp),%rdx
    b345:	48 89 10             	mov    %rdx,(%rax)
    b348:	83 85 d4 ee ff ff 01 	addl   $0x1,-0x112c(%rbp)
    b34f:	83 bd d4 ee ff ff 04 	cmpl   $0x4,-0x112c(%rbp)
    b356:	7e c2                	jle    b31a <func_4+0x9b7>
    b358:	eb 04                	jmp    b35e <func_4+0x9fb>
    b35a:	90                   	nop
    b35b:	eb 01                	jmp    b35e <func_4+0x9fb>
    b35d:	90                   	nop
    b35e:	8b 85 e8 f0 ff ff    	mov    -0xf18(%rbp),%eax
    b364:	89 c1                	mov    %eax,%ecx
    b366:	48 8b 85 c0 ef ff ff 	mov    -0x1040(%rbp),%rax
    b36d:	48 8d 14 85 00 00 00 	lea    0x0(,%rax,4),%rdx
    b374:	00 
    b375:	48 8d 05 54 71 01 00 	lea    0x17154(%rip),%rax        # 224d0 <g_1287>
    b37c:	89 0c 02             	mov    %ecx,(%rdx,%rax,1)
    b37f:	48 83 85 c0 ef ff ff 	addq   $0x1,-0x1040(%rbp)
    b386:	01 
    b387:	48 83 bd c0 ef ff ff 	cmpq   $0x4,-0x1040(%rbp)
    b38e:	04 
    b38f:	0f 8e 44 ff ff ff    	jle    b2d9 <func_4+0x976>
    b395:	eb 01                	jmp    b398 <func_4+0xa35>
    b397:	90                   	nop
    b398:	48 8b 15 09 a5 01 00 	mov    0x1a509(%rip),%rdx        # 258a8 <g_2055>
    b39f:	48 8b 05 92 ac 01 00 	mov    0x1ac92(%rip),%rax        # 26038 <g_1746>
    b3a6:	8b 12                	mov    (%rdx),%edx
    b3a8:	89 10                	mov    %edx,(%rax)
    b3aa:	0f b6 05 33 71 01 00 	movzbl 0x17133(%rip),%eax        # 224e4 <g_1434>
    b3b1:	0f b6 c0             	movzbl %al,%eax
    b3b4:	be 04 00 00 00       	mov    $0x4,%esi
    b3b9:	89 c7                	mov    %eax,%edi
    b3bb:	e8 f3 df ff ff       	callq  93b3 <safe_add_func_int16_t_s_s>
    b3c0:	88 05 1e 71 01 00    	mov    %al,0x1711e(%rip)        # 224e4 <g_1434>
    b3c6:	0f b6 05 17 71 01 00 	movzbl 0x17117(%rip),%eax        # 224e4 <g_1434>
    b3cd:	3c 2f                	cmp    $0x2f,%al
    b3cf:	0f 86 e3 fe ff ff    	jbe    b2b8 <func_4+0x955>
    b3d5:	eb 01                	jmp    b3d8 <func_4+0xa75>
    b3d7:	90                   	nop
    b3d8:	0f b7 05 e9 70 01 00 	movzwl 0x170e9(%rip),%eax        # 224c8 <g_1199>
    b3df:	83 c0 01             	add    $0x1,%eax
    b3e2:	66 89 05 df 70 01 00 	mov    %ax,0x170df(%rip)        # 224c8 <g_1199>
    b3e9:	0f b7 05 d8 70 01 00 	movzwl 0x170d8(%rip),%eax        # 224c8 <g_1199>
    b3f0:	66 83 f8 02          	cmp    $0x2,%ax
    b3f4:	0f 8e e6 fd ff ff    	jle    b1e0 <func_4+0x87d>
    b3fa:	e9 54 23 00 00       	jmpq   d753 <func_4+0x2df0>
    b3ff:	48 c7 85 18 f0 ff ff 	movq   $0x1,-0xfe8(%rbp)
    b406:	01 00 00 00 
    b40a:	48 b8 37 e8 73 54 9f 	movabs $0x5e4cc89f5473e837,%rax
    b411:	c8 4c 5e 
    b414:	48 89 85 20 f0 ff ff 	mov    %rax,-0xfe0(%rbp)
    b41b:	c7 85 04 ef ff ff 03 	movl   $0x3,-0x10fc(%rbp)
    b422:	00 00 00 
    b425:	c7 85 08 ef ff ff c8 	movl   $0x7e306dc8,-0x10f8(%rbp)
    b42c:	6d 30 7e 
    b42f:	48 c7 85 28 f0 ff ff 	movq   $0x0,-0xfd8(%rbp)
    b436:	00 00 00 00 
    b43a:	c6 85 c0 ee ff ff 9c 	movb   $0x9c,-0x1140(%rbp)
    b441:	c7 85 0c ef ff ff ff 	movl   $0xffffffff,-0x10f4(%rbp)
    b448:	ff ff ff 
    b44b:	48 c7 85 30 f0 ff ff 	movq   $0xfffffffffffffff9,-0xfd0(%rbp)
    b452:	f9 ff ff ff 
    b456:	48 c7 85 f0 f3 ff ff 	movq   $0x0,-0xc10(%rbp)
    b45d:	00 00 00 00 
    b461:	48 8d 85 88 ef ff ff 	lea    -0x1078(%rbp),%rax
    b468:	48 89 85 f8 f3 ff ff 	mov    %rax,-0xc08(%rbp)
    b46f:	48 8d 85 88 ef ff ff 	lea    -0x1078(%rbp),%rax
    b476:	48 89 85 00 f4 ff ff 	mov    %rax,-0xc00(%rbp)
    b47d:	48 c7 85 08 f4 ff ff 	movq   $0x0,-0xbf8(%rbp)
    b484:	00 00 00 00 
    b488:	48 8d 05 09 a6 01 00 	lea    0x1a609(%rip),%rax        # 25a98 <g_2273>
    b48f:	48 89 85 10 f4 ff ff 	mov    %rax,-0xbf0(%rbp)
    b496:	48 8d 05 fb a5 01 00 	lea    0x1a5fb(%rip),%rax        # 25a98 <g_2273>
    b49d:	48 89 85 18 f4 ff ff 	mov    %rax,-0xbe8(%rbp)
    b4a4:	48 8d 85 88 ef ff ff 	lea    -0x1078(%rbp),%rax
    b4ab:	48 89 85 20 f4 ff ff 	mov    %rax,-0xbe0(%rbp)
    b4b2:	48 8d 05 df a5 01 00 	lea    0x1a5df(%rip),%rax        # 25a98 <g_2273>
    b4b9:	48 89 85 28 f4 ff ff 	mov    %rax,-0xbd8(%rbp)
    b4c0:	48 8d 05 d1 a5 01 00 	lea    0x1a5d1(%rip),%rax        # 25a98 <g_2273>
    b4c7:	48 89 85 30 f4 ff ff 	mov    %rax,-0xbd0(%rbp)
    b4ce:	48 c7 85 38 f4 ff ff 	movq   $0x0,-0xbc8(%rbp)
    b4d5:	00 00 00 00 
    b4d9:	48 c7 85 40 f4 ff ff 	movq   $0x0,-0xbc0(%rbp)
    b4e0:	00 00 00 00 
    b4e4:	48 c7 85 48 f4 ff ff 	movq   $0x0,-0xbb8(%rbp)
    b4eb:	00 00 00 00 
    b4ef:	48 8d 05 a2 a5 01 00 	lea    0x1a5a2(%rip),%rax        # 25a98 <g_2273>
    b4f6:	48 89 85 50 f4 ff ff 	mov    %rax,-0xbb0(%rbp)
    b4fd:	48 c7 85 58 f4 ff ff 	movq   $0x0,-0xba8(%rbp)
    b504:	00 00 00 00 
    b508:	48 8d 05 89 a5 01 00 	lea    0x1a589(%rip),%rax        # 25a98 <g_2273>
    b50f:	48 89 85 60 f4 ff ff 	mov    %rax,-0xba0(%rbp)
    b516:	48 c7 85 68 f4 ff ff 	movq   $0x0,-0xb98(%rbp)
    b51d:	00 00 00 00 
    b521:	48 8d 85 88 ef ff ff 	lea    -0x1078(%rbp),%rax
    b528:	48 89 85 70 f4 ff ff 	mov    %rax,-0xb90(%rbp)
    b52f:	48 c7 85 78 f4 ff ff 	movq   $0x0,-0xb88(%rbp)
    b536:	00 00 00 00 
    b53a:	48 8d 85 88 ef ff ff 	lea    -0x1078(%rbp),%rax
    b541:	48 89 85 80 f4 ff ff 	mov    %rax,-0xb80(%rbp)
    b548:	48 8d 05 49 a5 01 00 	lea    0x1a549(%rip),%rax        # 25a98 <g_2273>
    b54f:	48 89 85 88 f4 ff ff 	mov    %rax,-0xb78(%rbp)
    b556:	48 8d 85 88 ef ff ff 	lea    -0x1078(%rbp),%rax
    b55d:	48 89 85 90 f4 ff ff 	mov    %rax,-0xb70(%rbp)
    b564:	48 8d 05 2d a5 01 00 	lea    0x1a52d(%rip),%rax        # 25a98 <g_2273>
    b56b:	48 89 85 98 f4 ff ff 	mov    %rax,-0xb68(%rbp)
    b572:	48 8d 85 88 ef ff ff 	lea    -0x1078(%rbp),%rax
    b579:	48 89 85 a0 f4 ff ff 	mov    %rax,-0xb60(%rbp)
    b580:	48 c7 85 a8 f4 ff ff 	movq   $0x0,-0xb58(%rbp)
    b587:	00 00 00 00 
    b58b:	48 8d 85 88 ef ff ff 	lea    -0x1078(%rbp),%rax
    b592:	48 89 85 b0 f4 ff ff 	mov    %rax,-0xb50(%rbp)
    b599:	48 8d 85 88 ef ff ff 	lea    -0x1078(%rbp),%rax
    b5a0:	48 89 85 b8 f4 ff ff 	mov    %rax,-0xb48(%rbp)
    b5a7:	48 c7 85 c0 f4 ff ff 	movq   $0x0,-0xb40(%rbp)
    b5ae:	00 00 00 00 
    b5b2:	48 8d 05 df a4 01 00 	lea    0x1a4df(%rip),%rax        # 25a98 <g_2273>
    b5b9:	48 89 85 c8 f4 ff ff 	mov    %rax,-0xb38(%rbp)
    b5c0:	48 8d 85 88 ef ff ff 	lea    -0x1078(%rbp),%rax
    b5c7:	48 89 85 d0 f4 ff ff 	mov    %rax,-0xb30(%rbp)
    b5ce:	48 8d 85 88 ef ff ff 	lea    -0x1078(%rbp),%rax
    b5d5:	48 89 85 d8 f4 ff ff 	mov    %rax,-0xb28(%rbp)
    b5dc:	48 8d 85 88 ef ff ff 	lea    -0x1078(%rbp),%rax
    b5e3:	48 89 85 e0 f4 ff ff 	mov    %rax,-0xb20(%rbp)
    b5ea:	48 c7 85 e8 f4 ff ff 	movq   $0x0,-0xb18(%rbp)
    b5f1:	00 00 00 00 
    b5f5:	48 8d 05 9c a4 01 00 	lea    0x1a49c(%rip),%rax        # 25a98 <g_2273>
    b5fc:	48 89 85 f0 f4 ff ff 	mov    %rax,-0xb10(%rbp)
    b603:	48 8d 85 88 ef ff ff 	lea    -0x1078(%rbp),%rax
    b60a:	48 89 85 f8 f4 ff ff 	mov    %rax,-0xb08(%rbp)
    b611:	48 c7 85 00 f5 ff ff 	movq   $0x0,-0xb00(%rbp)
    b618:	00 00 00 00 
    b61c:	48 8d 85 88 ef ff ff 	lea    -0x1078(%rbp),%rax
    b623:	48 89 85 08 f5 ff ff 	mov    %rax,-0xaf8(%rbp)
    b62a:	48 c7 85 10 f5 ff ff 	movq   $0x0,-0xaf0(%rbp)
    b631:	00 00 00 00 
    b635:	48 8d 05 5c a4 01 00 	lea    0x1a45c(%rip),%rax        # 25a98 <g_2273>
    b63c:	48 89 85 18 f5 ff ff 	mov    %rax,-0xae8(%rbp)
    b643:	48 8d 85 88 ef ff ff 	lea    -0x1078(%rbp),%rax
    b64a:	48 89 85 20 f5 ff ff 	mov    %rax,-0xae0(%rbp)
    b651:	48 c7 85 28 f5 ff ff 	movq   $0x0,-0xad8(%rbp)
    b658:	00 00 00 00 
    b65c:	48 8d 05 35 a4 01 00 	lea    0x1a435(%rip),%rax        # 25a98 <g_2273>
    b663:	48 89 85 30 f5 ff ff 	mov    %rax,-0xad0(%rbp)
    b66a:	48 8d 05 27 a4 01 00 	lea    0x1a427(%rip),%rax        # 25a98 <g_2273>
    b671:	48 89 85 38 f5 ff ff 	mov    %rax,-0xac8(%rbp)
    b678:	48 8d 05 19 a4 01 00 	lea    0x1a419(%rip),%rax        # 25a98 <g_2273>
    b67f:	48 89 85 40 f5 ff ff 	mov    %rax,-0xac0(%rbp)
    b686:	48 c7 85 48 f5 ff ff 	movq   $0x0,-0xab8(%rbp)
    b68d:	00 00 00 00 
    b691:	48 8d 05 00 a4 01 00 	lea    0x1a400(%rip),%rax        # 25a98 <g_2273>
    b698:	48 89 85 50 f5 ff ff 	mov    %rax,-0xab0(%rbp)
    b69f:	48 8d 85 88 ef ff ff 	lea    -0x1078(%rbp),%rax
    b6a6:	48 89 85 58 f5 ff ff 	mov    %rax,-0xaa8(%rbp)
    b6ad:	48 8d 85 88 ef ff ff 	lea    -0x1078(%rbp),%rax
    b6b4:	48 89 85 60 f5 ff ff 	mov    %rax,-0xaa0(%rbp)
    b6bb:	48 8d 85 88 ef ff ff 	lea    -0x1078(%rbp),%rax
    b6c2:	48 89 85 68 f5 ff ff 	mov    %rax,-0xa98(%rbp)
    b6c9:	48 8d 85 88 ef ff ff 	lea    -0x1078(%rbp),%rax
    b6d0:	48 89 85 70 f5 ff ff 	mov    %rax,-0xa90(%rbp)
    b6d7:	48 8d 85 88 ef ff ff 	lea    -0x1078(%rbp),%rax
    b6de:	48 89 85 78 f5 ff ff 	mov    %rax,-0xa88(%rbp)
    b6e5:	48 8d 85 88 ef ff ff 	lea    -0x1078(%rbp),%rax
    b6ec:	48 89 85 80 f5 ff ff 	mov    %rax,-0xa80(%rbp)
    b6f3:	48 8d 85 88 ef ff ff 	lea    -0x1078(%rbp),%rax
    b6fa:	48 89 85 88 f5 ff ff 	mov    %rax,-0xa78(%rbp)
    b701:	48 c7 85 90 f5 ff ff 	movq   $0x0,-0xa70(%rbp)
    b708:	00 00 00 00 
    b70c:	48 c7 85 98 f5 ff ff 	movq   $0x0,-0xa68(%rbp)
    b713:	00 00 00 00 
    b717:	48 8d 85 88 ef ff ff 	lea    -0x1078(%rbp),%rax
    b71e:	48 89 85 a0 f5 ff ff 	mov    %rax,-0xa60(%rbp)
    b725:	48 c7 85 a8 f5 ff ff 	movq   $0x0,-0xa58(%rbp)
    b72c:	00 00 00 00 
    b730:	48 8d 85 88 ef ff ff 	lea    -0x1078(%rbp),%rax
    b737:	48 89 85 b0 f5 ff ff 	mov    %rax,-0xa50(%rbp)
    b73e:	48 8d 85 88 ef ff ff 	lea    -0x1078(%rbp),%rax
    b745:	48 89 85 b8 f5 ff ff 	mov    %rax,-0xa48(%rbp)
    b74c:	48 8d 85 88 ef ff ff 	lea    -0x1078(%rbp),%rax
    b753:	48 89 85 c0 f5 ff ff 	mov    %rax,-0xa40(%rbp)
    b75a:	48 c7 85 c8 f5 ff ff 	movq   $0x0,-0xa38(%rbp)
    b761:	00 00 00 00 
    b765:	48 8d 05 2c a3 01 00 	lea    0x1a32c(%rip),%rax        # 25a98 <g_2273>
    b76c:	48 89 85 d0 f5 ff ff 	mov    %rax,-0xa30(%rbp)
    b773:	48 8d 05 1e a3 01 00 	lea    0x1a31e(%rip),%rax        # 25a98 <g_2273>
    b77a:	48 89 85 d8 f5 ff ff 	mov    %rax,-0xa28(%rbp)
    b781:	48 8d 05 10 a3 01 00 	lea    0x1a310(%rip),%rax        # 25a98 <g_2273>
    b788:	48 89 85 e0 f5 ff ff 	mov    %rax,-0xa20(%rbp)
    b78f:	48 c7 85 e8 f5 ff ff 	movq   $0x0,-0xa18(%rbp)
    b796:	00 00 00 00 
    b79a:	48 8d 05 f7 a2 01 00 	lea    0x1a2f7(%rip),%rax        # 25a98 <g_2273>
    b7a1:	48 89 85 f0 f5 ff ff 	mov    %rax,-0xa10(%rbp)
    b7a8:	48 c7 85 f8 f5 ff ff 	movq   $0x0,-0xa08(%rbp)
    b7af:	00 00 00 00 
    b7b3:	48 8d 85 88 ef ff ff 	lea    -0x1078(%rbp),%rax
    b7ba:	48 89 85 00 f6 ff ff 	mov    %rax,-0xa00(%rbp)
    b7c1:	48 8d 85 88 ef ff ff 	lea    -0x1078(%rbp),%rax
    b7c8:	48 89 85 08 f6 ff ff 	mov    %rax,-0x9f8(%rbp)
    b7cf:	48 c7 85 10 f6 ff ff 	movq   $0x0,-0x9f0(%rbp)
    b7d6:	00 00 00 00 
    b7da:	48 8d 85 88 ef ff ff 	lea    -0x1078(%rbp),%rax
    b7e1:	48 89 85 18 f6 ff ff 	mov    %rax,-0x9e8(%rbp)
    b7e8:	48 c7 85 20 f6 ff ff 	movq   $0x0,-0x9e0(%rbp)
    b7ef:	00 00 00 00 
    b7f3:	48 c7 85 28 f6 ff ff 	movq   $0x0,-0x9d8(%rbp)
    b7fa:	00 00 00 00 
    b7fe:	48 8d 05 93 a2 01 00 	lea    0x1a293(%rip),%rax        # 25a98 <g_2273>
    b805:	48 89 85 30 f6 ff ff 	mov    %rax,-0x9d0(%rbp)
    b80c:	48 c7 85 38 f6 ff ff 	movq   $0x0,-0x9c8(%rbp)
    b813:	00 00 00 00 
    b817:	48 8d 85 88 ef ff ff 	lea    -0x1078(%rbp),%rax
    b81e:	48 89 85 40 f6 ff ff 	mov    %rax,-0x9c0(%rbp)
    b825:	48 8d 85 88 ef ff ff 	lea    -0x1078(%rbp),%rax
    b82c:	48 89 85 48 f6 ff ff 	mov    %rax,-0x9b8(%rbp)
    b833:	48 8d 85 88 ef ff ff 	lea    -0x1078(%rbp),%rax
    b83a:	48 89 85 50 f6 ff ff 	mov    %rax,-0x9b0(%rbp)
    b841:	48 c7 85 58 f6 ff ff 	movq   $0x0,-0x9a8(%rbp)
    b848:	00 00 00 00 
    b84c:	48 c7 85 60 f6 ff ff 	movq   $0x0,-0x9a0(%rbp)
    b853:	00 00 00 00 
    b857:	48 c7 85 68 f6 ff ff 	movq   $0x0,-0x998(%rbp)
    b85e:	00 00 00 00 
    b862:	48 c7 85 70 f6 ff ff 	movq   $0x0,-0x990(%rbp)
    b869:	00 00 00 00 
    b86d:	48 c7 85 78 f6 ff ff 	movq   $0x0,-0x988(%rbp)
    b874:	00 00 00 00 
    b878:	48 8d 05 19 a2 01 00 	lea    0x1a219(%rip),%rax        # 25a98 <g_2273>
    b87f:	48 89 85 80 f6 ff ff 	mov    %rax,-0x980(%rbp)
    b886:	48 8d 85 88 ef ff ff 	lea    -0x1078(%rbp),%rax
    b88d:	48 89 85 88 f6 ff ff 	mov    %rax,-0x978(%rbp)
    b894:	48 8d 05 fd a1 01 00 	lea    0x1a1fd(%rip),%rax        # 25a98 <g_2273>
    b89b:	48 89 85 90 f6 ff ff 	mov    %rax,-0x970(%rbp)
    b8a2:	48 c7 85 98 f6 ff ff 	movq   $0x0,-0x968(%rbp)
    b8a9:	00 00 00 00 
    b8ad:	48 8d 85 88 ef ff ff 	lea    -0x1078(%rbp),%rax
    b8b4:	48 89 85 a0 f6 ff ff 	mov    %rax,-0x960(%rbp)
    b8bb:	48 8d 85 88 ef ff ff 	lea    -0x1078(%rbp),%rax
    b8c2:	48 89 85 a8 f6 ff ff 	mov    %rax,-0x958(%rbp)
    b8c9:	48 8d 85 88 ef ff ff 	lea    -0x1078(%rbp),%rax
    b8d0:	48 89 85 b0 f6 ff ff 	mov    %rax,-0x950(%rbp)
    b8d7:	48 8d 05 ba a1 01 00 	lea    0x1a1ba(%rip),%rax        # 25a98 <g_2273>
    b8de:	48 89 85 b8 f6 ff ff 	mov    %rax,-0x948(%rbp)
    b8e5:	48 8d 85 88 ef ff ff 	lea    -0x1078(%rbp),%rax
    b8ec:	48 89 85 c0 f6 ff ff 	mov    %rax,-0x940(%rbp)
    b8f3:	48 8d 85 88 ef ff ff 	lea    -0x1078(%rbp),%rax
    b8fa:	48 89 85 c8 f6 ff ff 	mov    %rax,-0x938(%rbp)
    b901:	48 c7 85 d0 f6 ff ff 	movq   $0x0,-0x930(%rbp)
    b908:	00 00 00 00 
    b90c:	48 8d 05 85 a1 01 00 	lea    0x1a185(%rip),%rax        # 25a98 <g_2273>
    b913:	48 89 85 d8 f6 ff ff 	mov    %rax,-0x928(%rbp)
    b91a:	48 8d 05 77 a1 01 00 	lea    0x1a177(%rip),%rax        # 25a98 <g_2273>
    b921:	48 89 85 e0 f6 ff ff 	mov    %rax,-0x920(%rbp)
    b928:	48 8d 85 88 ef ff ff 	lea    -0x1078(%rbp),%rax
    b92f:	48 89 85 e8 f6 ff ff 	mov    %rax,-0x918(%rbp)
    b936:	48 8d 05 5b a1 01 00 	lea    0x1a15b(%rip),%rax        # 25a98 <g_2273>
    b93d:	48 89 85 f0 f6 ff ff 	mov    %rax,-0x910(%rbp)
    b944:	48 c7 85 f8 f6 ff ff 	movq   $0x0,-0x908(%rbp)
    b94b:	00 00 00 00 
    b94f:	48 8d 05 42 a1 01 00 	lea    0x1a142(%rip),%rax        # 25a98 <g_2273>
    b956:	48 89 85 00 f7 ff ff 	mov    %rax,-0x900(%rbp)
    b95d:	48 8d 85 88 ef ff ff 	lea    -0x1078(%rbp),%rax
    b964:	48 89 85 08 f7 ff ff 	mov    %rax,-0x8f8(%rbp)
    b96b:	48 c7 85 10 f7 ff ff 	movq   $0x0,-0x8f0(%rbp)
    b972:	00 00 00 00 
    b976:	48 c7 85 18 f7 ff ff 	movq   $0x0,-0x8e8(%rbp)
    b97d:	00 00 00 00 
    b981:	48 8d 85 88 ef ff ff 	lea    -0x1078(%rbp),%rax
    b988:	48 89 85 20 f7 ff ff 	mov    %rax,-0x8e0(%rbp)
    b98f:	48 c7 85 28 f7 ff ff 	movq   $0x0,-0x8d8(%rbp)
    b996:	00 00 00 00 
    b99a:	48 8d 85 88 ef ff ff 	lea    -0x1078(%rbp),%rax
    b9a1:	48 89 85 30 f7 ff ff 	mov    %rax,-0x8d0(%rbp)
    b9a8:	48 c7 85 38 f7 ff ff 	movq   $0x0,-0x8c8(%rbp)
    b9af:	00 00 00 00 
    b9b3:	48 c7 85 40 f7 ff ff 	movq   $0x0,-0x8c0(%rbp)
    b9ba:	00 00 00 00 
    b9be:	48 8d 85 88 ef ff ff 	lea    -0x1078(%rbp),%rax
    b9c5:	48 89 85 48 f7 ff ff 	mov    %rax,-0x8b8(%rbp)
    b9cc:	48 8d 85 88 ef ff ff 	lea    -0x1078(%rbp),%rax
    b9d3:	48 89 85 50 f7 ff ff 	mov    %rax,-0x8b0(%rbp)
    b9da:	48 c7 85 58 f7 ff ff 	movq   $0x0,-0x8a8(%rbp)
    b9e1:	00 00 00 00 
    b9e5:	48 8d 05 ac a0 01 00 	lea    0x1a0ac(%rip),%rax        # 25a98 <g_2273>
    b9ec:	48 89 85 60 f7 ff ff 	mov    %rax,-0x8a0(%rbp)
    b9f3:	48 c7 85 68 f7 ff ff 	movq   $0x0,-0x898(%rbp)
    b9fa:	00 00 00 00 
    b9fe:	48 8d 05 93 a0 01 00 	lea    0x1a093(%rip),%rax        # 25a98 <g_2273>
    ba05:	48 89 85 70 f7 ff ff 	mov    %rax,-0x890(%rbp)
    ba0c:	48 8d 85 88 ef ff ff 	lea    -0x1078(%rbp),%rax
    ba13:	48 89 85 78 f7 ff ff 	mov    %rax,-0x888(%rbp)
    ba1a:	48 8d 05 77 a0 01 00 	lea    0x1a077(%rip),%rax        # 25a98 <g_2273>
    ba21:	48 89 85 80 f7 ff ff 	mov    %rax,-0x880(%rbp)
    ba28:	48 8d 85 88 ef ff ff 	lea    -0x1078(%rbp),%rax
    ba2f:	48 89 85 88 f7 ff ff 	mov    %rax,-0x878(%rbp)
    ba36:	48 c7 85 90 f7 ff ff 	movq   $0x0,-0x870(%rbp)
    ba3d:	00 00 00 00 
    ba41:	48 c7 85 98 f7 ff ff 	movq   $0x0,-0x868(%rbp)
    ba48:	00 00 00 00 
    ba4c:	48 8d 85 88 ef ff ff 	lea    -0x1078(%rbp),%rax
    ba53:	48 89 85 a0 f7 ff ff 	mov    %rax,-0x860(%rbp)
    ba5a:	48 c7 85 a8 f7 ff ff 	movq   $0x0,-0x858(%rbp)
    ba61:	00 00 00 00 
    ba65:	48 c7 85 b0 f7 ff ff 	movq   $0x0,-0x850(%rbp)
    ba6c:	00 00 00 00 
    ba70:	48 8d 05 21 a0 01 00 	lea    0x1a021(%rip),%rax        # 25a98 <g_2273>
    ba77:	48 89 85 b8 f7 ff ff 	mov    %rax,-0x848(%rbp)
    ba7e:	48 8d 85 88 ef ff ff 	lea    -0x1078(%rbp),%rax
    ba85:	48 89 85 c0 f7 ff ff 	mov    %rax,-0x840(%rbp)
    ba8c:	48 c7 85 c8 f7 ff ff 	movq   $0x0,-0x838(%rbp)
    ba93:	00 00 00 00 
    ba97:	48 c7 85 d0 f7 ff ff 	movq   $0x0,-0x830(%rbp)
    ba9e:	00 00 00 00 
    baa2:	48 8d 85 88 ef ff ff 	lea    -0x1078(%rbp),%rax
    baa9:	48 89 85 d8 f7 ff ff 	mov    %rax,-0x828(%rbp)
    bab0:	48 8d 85 88 ef ff ff 	lea    -0x1078(%rbp),%rax
    bab7:	48 89 85 e0 f7 ff ff 	mov    %rax,-0x820(%rbp)
    babe:	48 c7 85 e8 f7 ff ff 	movq   $0x0,-0x818(%rbp)
    bac5:	00 00 00 00 
    bac9:	c7 85 d8 ee ff ff 00 	movl   $0x0,-0x1128(%rbp)
    bad0:	00 00 00 
    bad3:	eb 1a                	jmp    baef <func_4+0x118c>
    bad5:	8b 85 d8 ee ff ff    	mov    -0x1128(%rbp),%eax
    badb:	48 98                	cltq   
    badd:	c7 84 85 10 f1 ff ff 	movl   $0xffffffff,-0xef0(%rbp,%rax,4)
    bae4:	ff ff ff ff 
    bae8:	83 85 d8 ee ff ff 01 	addl   $0x1,-0x1128(%rbp)
    baef:	83 bd d8 ee ff ff 09 	cmpl   $0x9,-0x1128(%rbp)
    baf6:	7e dd                	jle    bad5 <func_4+0x1172>
    baf8:	c7 85 ac ee ff ff 00 	movl   $0x0,-0x1154(%rbp)
    baff:	00 00 00 
    bb02:	e9 de 1a 00 00       	jmpq   d5e5 <func_4+0x2c82>
    bb07:	66 c7 85 ca ee ff ff 	movw   $0xcc99,-0x1136(%rbp)
    bb0e:	99 cc 
    bb10:	48 c7 85 f0 f7 ff ff 	movq   $0x0,-0x810(%rbp)
    bb17:	00 00 00 00 
    bb1b:	48 8d 85 b8 f0 ff ff 	lea    -0xf48(%rbp),%rax
    bb22:	48 89 85 f8 f7 ff ff 	mov    %rax,-0x808(%rbp)
    bb29:	48 c7 85 00 f8 ff ff 	movq   $0x0,-0x800(%rbp)
    bb30:	00 00 00 00 
    bb34:	48 c7 85 08 f8 ff ff 	movq   $0x0,-0x7f8(%rbp)
    bb3b:	00 00 00 00 
    bb3f:	48 8d 85 b8 f0 ff ff 	lea    -0xf48(%rbp),%rax
    bb46:	48 89 85 10 f8 ff ff 	mov    %rax,-0x7f0(%rbp)
    bb4d:	48 8d 85 b8 f0 ff ff 	lea    -0xf48(%rbp),%rax
    bb54:	48 89 85 18 f8 ff ff 	mov    %rax,-0x7e8(%rbp)
    bb5b:	48 8d 85 b8 f0 ff ff 	lea    -0xf48(%rbp),%rax
    bb62:	48 89 85 20 f8 ff ff 	mov    %rax,-0x7e0(%rbp)
    bb69:	48 8d 85 b8 f0 ff ff 	lea    -0xf48(%rbp),%rax
    bb70:	48 89 85 28 f8 ff ff 	mov    %rax,-0x7d8(%rbp)
    bb77:	48 c7 85 30 f8 ff ff 	movq   $0x0,-0x7d0(%rbp)
    bb7e:	00 00 00 00 
    bb82:	48 c7 85 38 f8 ff ff 	movq   $0x0,-0x7c8(%rbp)
    bb89:	00 00 00 00 
    bb8d:	48 8d 85 b8 f0 ff ff 	lea    -0xf48(%rbp),%rax
    bb94:	48 89 85 40 f8 ff ff 	mov    %rax,-0x7c0(%rbp)
    bb9b:	48 c7 85 48 f8 ff ff 	movq   $0x0,-0x7b8(%rbp)
    bba2:	00 00 00 00 
    bba6:	48 8d 85 b8 f0 ff ff 	lea    -0xf48(%rbp),%rax
    bbad:	48 89 85 50 f8 ff ff 	mov    %rax,-0x7b0(%rbp)
    bbb4:	48 c7 85 58 f8 ff ff 	movq   $0x0,-0x7a8(%rbp)
    bbbb:	00 00 00 00 
    bbbf:	48 8d 85 b8 f0 ff ff 	lea    -0xf48(%rbp),%rax
    bbc6:	48 89 85 60 f8 ff ff 	mov    %rax,-0x7a0(%rbp)
    bbcd:	48 c7 85 68 f8 ff ff 	movq   $0x0,-0x798(%rbp)
    bbd4:	00 00 00 00 
    bbd8:	48 8d 85 b8 f0 ff ff 	lea    -0xf48(%rbp),%rax
    bbdf:	48 89 85 70 f8 ff ff 	mov    %rax,-0x790(%rbp)
    bbe6:	48 8d 85 b8 f0 ff ff 	lea    -0xf48(%rbp),%rax
    bbed:	48 89 85 78 f8 ff ff 	mov    %rax,-0x788(%rbp)
    bbf4:	48 c7 85 80 f8 ff ff 	movq   $0x0,-0x780(%rbp)
    bbfb:	00 00 00 00 
    bbff:	48 c7 85 88 f8 ff ff 	movq   $0x0,-0x778(%rbp)
    bc06:	00 00 00 00 
    bc0a:	48 8d 85 b8 f0 ff ff 	lea    -0xf48(%rbp),%rax
    bc11:	48 89 85 90 f8 ff ff 	mov    %rax,-0x770(%rbp)
    bc18:	48 c7 85 98 f8 ff ff 	movq   $0x0,-0x768(%rbp)
    bc1f:	00 00 00 00 
    bc23:	48 8d 85 b8 f0 ff ff 	lea    -0xf48(%rbp),%rax
    bc2a:	48 89 85 a0 f8 ff ff 	mov    %rax,-0x760(%rbp)
    bc31:	48 8d 85 b8 f0 ff ff 	lea    -0xf48(%rbp),%rax
    bc38:	48 89 85 a8 f8 ff ff 	mov    %rax,-0x758(%rbp)
    bc3f:	48 8d 85 b8 f0 ff ff 	lea    -0xf48(%rbp),%rax
    bc46:	48 89 85 b0 f8 ff ff 	mov    %rax,-0x750(%rbp)
    bc4d:	48 c7 85 b8 f8 ff ff 	movq   $0x0,-0x748(%rbp)
    bc54:	00 00 00 00 
    bc58:	48 8d 85 b8 f0 ff ff 	lea    -0xf48(%rbp),%rax
    bc5f:	48 89 85 c0 f8 ff ff 	mov    %rax,-0x740(%rbp)
    bc66:	48 8d 85 b8 f0 ff ff 	lea    -0xf48(%rbp),%rax
    bc6d:	48 89 85 c8 f8 ff ff 	mov    %rax,-0x738(%rbp)
    bc74:	48 8d 85 b8 f0 ff ff 	lea    -0xf48(%rbp),%rax
    bc7b:	48 89 85 d0 f8 ff ff 	mov    %rax,-0x730(%rbp)
    bc82:	48 8d 85 b8 f0 ff ff 	lea    -0xf48(%rbp),%rax
    bc89:	48 89 85 d8 f8 ff ff 	mov    %rax,-0x728(%rbp)
    bc90:	48 8d 85 b8 f0 ff ff 	lea    -0xf48(%rbp),%rax
    bc97:	48 89 85 e0 f8 ff ff 	mov    %rax,-0x720(%rbp)
    bc9e:	48 8d 85 b8 f0 ff ff 	lea    -0xf48(%rbp),%rax
    bca5:	48 89 85 e8 f8 ff ff 	mov    %rax,-0x718(%rbp)
    bcac:	48 8d 85 b8 f0 ff ff 	lea    -0xf48(%rbp),%rax
    bcb3:	48 89 85 f0 f8 ff ff 	mov    %rax,-0x710(%rbp)
    bcba:	48 8d 85 b8 f0 ff ff 	lea    -0xf48(%rbp),%rax
    bcc1:	48 89 85 f8 f8 ff ff 	mov    %rax,-0x708(%rbp)
    bcc8:	48 c7 85 00 f9 ff ff 	movq   $0x0,-0x700(%rbp)
    bccf:	00 00 00 00 
    bcd3:	48 8d 85 b8 f0 ff ff 	lea    -0xf48(%rbp),%rax
    bcda:	48 89 85 08 f9 ff ff 	mov    %rax,-0x6f8(%rbp)
    bce1:	48 8d 85 b8 f0 ff ff 	lea    -0xf48(%rbp),%rax
    bce8:	48 89 85 10 f9 ff ff 	mov    %rax,-0x6f0(%rbp)
    bcef:	48 8d 85 b8 f0 ff ff 	lea    -0xf48(%rbp),%rax
    bcf6:	48 89 85 18 f9 ff ff 	mov    %rax,-0x6e8(%rbp)
    bcfd:	48 8d 85 b8 f0 ff ff 	lea    -0xf48(%rbp),%rax
    bd04:	48 89 85 20 f9 ff ff 	mov    %rax,-0x6e0(%rbp)
    bd0b:	48 8d 85 b8 f0 ff ff 	lea    -0xf48(%rbp),%rax
    bd12:	48 89 85 28 f9 ff ff 	mov    %rax,-0x6d8(%rbp)
    bd19:	48 c7 85 30 f9 ff ff 	movq   $0x0,-0x6d0(%rbp)
    bd20:	00 00 00 00 
    bd24:	48 8d 85 b8 f0 ff ff 	lea    -0xf48(%rbp),%rax
    bd2b:	48 89 85 38 f9 ff ff 	mov    %rax,-0x6c8(%rbp)
    bd32:	48 8d 85 b8 f0 ff ff 	lea    -0xf48(%rbp),%rax
    bd39:	48 89 85 40 f9 ff ff 	mov    %rax,-0x6c0(%rbp)
    bd40:	48 c7 85 48 f9 ff ff 	movq   $0x0,-0x6b8(%rbp)
    bd47:	00 00 00 00 
    bd4b:	48 8d 85 b8 f0 ff ff 	lea    -0xf48(%rbp),%rax
    bd52:	48 89 85 50 f9 ff ff 	mov    %rax,-0x6b0(%rbp)
    bd59:	48 8d 85 b8 f0 ff ff 	lea    -0xf48(%rbp),%rax
    bd60:	48 89 85 58 f9 ff ff 	mov    %rax,-0x6a8(%rbp)
    bd67:	48 8d 85 b8 f0 ff ff 	lea    -0xf48(%rbp),%rax
    bd6e:	48 89 85 60 f9 ff ff 	mov    %rax,-0x6a0(%rbp)
    bd75:	48 8d 85 b8 f0 ff ff 	lea    -0xf48(%rbp),%rax
    bd7c:	48 89 85 68 f9 ff ff 	mov    %rax,-0x698(%rbp)
    bd83:	48 8d 85 b8 f0 ff ff 	lea    -0xf48(%rbp),%rax
    bd8a:	48 89 85 70 f9 ff ff 	mov    %rax,-0x690(%rbp)
    bd91:	48 c7 85 78 f9 ff ff 	movq   $0x0,-0x688(%rbp)
    bd98:	00 00 00 00 
    bd9c:	48 c7 85 80 f9 ff ff 	movq   $0x0,-0x680(%rbp)
    bda3:	00 00 00 00 
    bda7:	48 8d 85 b8 f0 ff ff 	lea    -0xf48(%rbp),%rax
    bdae:	48 89 85 88 f9 ff ff 	mov    %rax,-0x678(%rbp)
    bdb5:	48 c7 85 90 f9 ff ff 	movq   $0x0,-0x670(%rbp)
    bdbc:	00 00 00 00 
    bdc0:	48 8d 85 b8 f0 ff ff 	lea    -0xf48(%rbp),%rax
    bdc7:	48 89 85 98 f9 ff ff 	mov    %rax,-0x668(%rbp)
    bdce:	48 c7 85 a0 f9 ff ff 	movq   $0x0,-0x660(%rbp)
    bdd5:	00 00 00 00 
    bdd9:	48 c7 85 a8 f9 ff ff 	movq   $0x0,-0x658(%rbp)
    bde0:	00 00 00 00 
    bde4:	48 8d 85 b8 f0 ff ff 	lea    -0xf48(%rbp),%rax
    bdeb:	48 89 85 b0 f9 ff ff 	mov    %rax,-0x650(%rbp)
    bdf2:	48 8d 85 b8 f0 ff ff 	lea    -0xf48(%rbp),%rax
    bdf9:	48 89 85 b8 f9 ff ff 	mov    %rax,-0x648(%rbp)
    be00:	48 8d 85 b8 f0 ff ff 	lea    -0xf48(%rbp),%rax
    be07:	48 89 85 c0 f9 ff ff 	mov    %rax,-0x640(%rbp)
    be0e:	48 c7 85 c8 f9 ff ff 	movq   $0x0,-0x638(%rbp)
    be15:	00 00 00 00 
    be19:	48 8d 85 b8 f0 ff ff 	lea    -0xf48(%rbp),%rax
    be20:	48 89 85 d0 f9 ff ff 	mov    %rax,-0x630(%rbp)
    be27:	48 c7 85 d8 f9 ff ff 	movq   $0x0,-0x628(%rbp)
    be2e:	00 00 00 00 
    be32:	48 8d 85 b8 f0 ff ff 	lea    -0xf48(%rbp),%rax
    be39:	48 89 85 e0 f9 ff ff 	mov    %rax,-0x620(%rbp)
    be40:	48 8d 85 b8 f0 ff ff 	lea    -0xf48(%rbp),%rax
    be47:	48 89 85 e8 f9 ff ff 	mov    %rax,-0x618(%rbp)
    be4e:	48 8d 85 b8 f0 ff ff 	lea    -0xf48(%rbp),%rax
    be55:	48 89 85 f0 f9 ff ff 	mov    %rax,-0x610(%rbp)
    be5c:	48 8d 85 b8 f0 ff ff 	lea    -0xf48(%rbp),%rax
    be63:	48 89 85 f8 f9 ff ff 	mov    %rax,-0x608(%rbp)
    be6a:	48 8d 85 b8 f0 ff ff 	lea    -0xf48(%rbp),%rax
    be71:	48 89 85 00 fa ff ff 	mov    %rax,-0x600(%rbp)
    be78:	48 8d 85 b8 f0 ff ff 	lea    -0xf48(%rbp),%rax
    be7f:	48 89 85 08 fa ff ff 	mov    %rax,-0x5f8(%rbp)
    be86:	48 8d 85 b8 f0 ff ff 	lea    -0xf48(%rbp),%rax
    be8d:	48 89 85 10 fa ff ff 	mov    %rax,-0x5f0(%rbp)
    be94:	48 8d 85 b8 f0 ff ff 	lea    -0xf48(%rbp),%rax
    be9b:	48 89 85 18 fa ff ff 	mov    %rax,-0x5e8(%rbp)
    bea2:	48 c7 85 20 fa ff ff 	movq   $0x0,-0x5e0(%rbp)
    bea9:	00 00 00 00 
    bead:	48 c7 85 28 fa ff ff 	movq   $0x0,-0x5d8(%rbp)
    beb4:	00 00 00 00 
    beb8:	48 c7 85 30 fa ff ff 	movq   $0x0,-0x5d0(%rbp)
    bebf:	00 00 00 00 
    bec3:	48 c7 85 38 fa ff ff 	movq   $0x0,-0x5c8(%rbp)
    beca:	00 00 00 00 
    bece:	48 8d 85 b8 f0 ff ff 	lea    -0xf48(%rbp),%rax
    bed5:	48 89 85 40 fa ff ff 	mov    %rax,-0x5c0(%rbp)
    bedc:	48 8d 85 b8 f0 ff ff 	lea    -0xf48(%rbp),%rax
    bee3:	48 89 85 48 fa ff ff 	mov    %rax,-0x5b8(%rbp)
    beea:	48 8d 85 b8 f0 ff ff 	lea    -0xf48(%rbp),%rax
    bef1:	48 89 85 50 fa ff ff 	mov    %rax,-0x5b0(%rbp)
    bef8:	48 8d 85 b8 f0 ff ff 	lea    -0xf48(%rbp),%rax
    beff:	48 89 85 58 fa ff ff 	mov    %rax,-0x5a8(%rbp)
    bf06:	48 c7 85 60 fa ff ff 	movq   $0x0,-0x5a0(%rbp)
    bf0d:	00 00 00 00 
    bf11:	48 c7 85 68 fa ff ff 	movq   $0x0,-0x598(%rbp)
    bf18:	00 00 00 00 
    bf1c:	48 8d 85 b8 f0 ff ff 	lea    -0xf48(%rbp),%rax
    bf23:	48 89 85 70 fa ff ff 	mov    %rax,-0x590(%rbp)
    bf2a:	48 8d 85 b8 f0 ff ff 	lea    -0xf48(%rbp),%rax
    bf31:	48 89 85 78 fa ff ff 	mov    %rax,-0x588(%rbp)
    bf38:	48 8d 85 b8 f0 ff ff 	lea    -0xf48(%rbp),%rax
    bf3f:	48 89 85 80 fa ff ff 	mov    %rax,-0x580(%rbp)
    bf46:	48 8d 85 b8 f0 ff ff 	lea    -0xf48(%rbp),%rax
    bf4d:	48 89 85 88 fa ff ff 	mov    %rax,-0x578(%rbp)
    bf54:	48 c7 85 90 fa ff ff 	movq   $0x0,-0x570(%rbp)
    bf5b:	00 00 00 00 
    bf5f:	48 c7 85 98 fa ff ff 	movq   $0x0,-0x568(%rbp)
    bf66:	00 00 00 00 
    bf6a:	48 8d 85 b8 f0 ff ff 	lea    -0xf48(%rbp),%rax
    bf71:	48 89 85 a0 fa ff ff 	mov    %rax,-0x560(%rbp)
    bf78:	48 8d 85 b8 f0 ff ff 	lea    -0xf48(%rbp),%rax
    bf7f:	48 89 85 a8 fa ff ff 	mov    %rax,-0x558(%rbp)
    bf86:	48 c7 85 b0 fa ff ff 	movq   $0x0,-0x550(%rbp)
    bf8d:	00 00 00 00 
    bf91:	48 8d 85 b8 f0 ff ff 	lea    -0xf48(%rbp),%rax
    bf98:	48 89 85 b8 fa ff ff 	mov    %rax,-0x548(%rbp)
    bf9f:	48 8d 85 b8 f0 ff ff 	lea    -0xf48(%rbp),%rax
    bfa6:	48 89 85 c0 fa ff ff 	mov    %rax,-0x540(%rbp)
    bfad:	48 c7 85 c8 fa ff ff 	movq   $0x0,-0x538(%rbp)
    bfb4:	00 00 00 00 
    bfb8:	48 8d 85 b8 f0 ff ff 	lea    -0xf48(%rbp),%rax
    bfbf:	48 89 85 d0 fa ff ff 	mov    %rax,-0x530(%rbp)
    bfc6:	48 c7 85 d8 fa ff ff 	movq   $0x0,-0x528(%rbp)
    bfcd:	00 00 00 00 
    bfd1:	48 8d 85 b8 f0 ff ff 	lea    -0xf48(%rbp),%rax
    bfd8:	48 89 85 e0 fa ff ff 	mov    %rax,-0x520(%rbp)
    bfdf:	48 c7 85 e8 fa ff ff 	movq   $0x0,-0x518(%rbp)
    bfe6:	00 00 00 00 
    bfea:	48 8d 85 b8 f0 ff ff 	lea    -0xf48(%rbp),%rax
    bff1:	48 89 85 f0 fa ff ff 	mov    %rax,-0x510(%rbp)
    bff8:	48 8d 85 b8 f0 ff ff 	lea    -0xf48(%rbp),%rax
    bfff:	48 89 85 f8 fa ff ff 	mov    %rax,-0x508(%rbp)
    c006:	48 8d 85 b8 f0 ff ff 	lea    -0xf48(%rbp),%rax
    c00d:	48 89 85 00 fb ff ff 	mov    %rax,-0x500(%rbp)
    c014:	48 8d 85 b8 f0 ff ff 	lea    -0xf48(%rbp),%rax
    c01b:	48 89 85 08 fb ff ff 	mov    %rax,-0x4f8(%rbp)
    c022:	48 8d 85 b8 f0 ff ff 	lea    -0xf48(%rbp),%rax
    c029:	48 89 85 10 fb ff ff 	mov    %rax,-0x4f0(%rbp)
    c030:	48 c7 85 18 fb ff ff 	movq   $0x0,-0x4e8(%rbp)
    c037:	00 00 00 00 
    c03b:	48 8d 85 b8 f0 ff ff 	lea    -0xf48(%rbp),%rax
    c042:	48 89 85 20 fb ff ff 	mov    %rax,-0x4e0(%rbp)
    c049:	48 8d 85 b8 f0 ff ff 	lea    -0xf48(%rbp),%rax
    c050:	48 89 85 28 fb ff ff 	mov    %rax,-0x4d8(%rbp)
    c057:	48 8d 85 b8 f0 ff ff 	lea    -0xf48(%rbp),%rax
    c05e:	48 89 85 30 fb ff ff 	mov    %rax,-0x4d0(%rbp)
    c065:	48 8d 85 b8 f0 ff ff 	lea    -0xf48(%rbp),%rax
    c06c:	48 89 85 38 fb ff ff 	mov    %rax,-0x4c8(%rbp)
    c073:	48 8d 85 b8 f0 ff ff 	lea    -0xf48(%rbp),%rax
    c07a:	48 89 85 40 fb ff ff 	mov    %rax,-0x4c0(%rbp)
    c081:	48 c7 85 48 fb ff ff 	movq   $0x0,-0x4b8(%rbp)
    c088:	00 00 00 00 
    c08c:	48 8d 85 b8 f0 ff ff 	lea    -0xf48(%rbp),%rax
    c093:	48 89 85 50 fb ff ff 	mov    %rax,-0x4b0(%rbp)
    c09a:	48 8d 85 b8 f0 ff ff 	lea    -0xf48(%rbp),%rax
    c0a1:	48 89 85 58 fb ff ff 	mov    %rax,-0x4a8(%rbp)
    c0a8:	48 c7 85 60 fb ff ff 	movq   $0x0,-0x4a0(%rbp)
    c0af:	00 00 00 00 
    c0b3:	48 8d 85 b8 f0 ff ff 	lea    -0xf48(%rbp),%rax
    c0ba:	48 89 85 68 fb ff ff 	mov    %rax,-0x498(%rbp)
    c0c1:	48 8d 85 b8 f0 ff ff 	lea    -0xf48(%rbp),%rax
    c0c8:	48 89 85 70 fb ff ff 	mov    %rax,-0x490(%rbp)
    c0cf:	48 8d 85 b8 f0 ff ff 	lea    -0xf48(%rbp),%rax
    c0d6:	48 89 85 78 fb ff ff 	mov    %rax,-0x488(%rbp)
    c0dd:	48 8d 85 b8 f0 ff ff 	lea    -0xf48(%rbp),%rax
    c0e4:	48 89 85 80 fb ff ff 	mov    %rax,-0x480(%rbp)
    c0eb:	48 8d 85 b8 f0 ff ff 	lea    -0xf48(%rbp),%rax
    c0f2:	48 89 85 88 fb ff ff 	mov    %rax,-0x478(%rbp)
    c0f9:	48 8d 85 b8 f0 ff ff 	lea    -0xf48(%rbp),%rax
    c100:	48 89 85 90 fb ff ff 	mov    %rax,-0x470(%rbp)
    c107:	48 8d 85 b8 f0 ff ff 	lea    -0xf48(%rbp),%rax
    c10e:	48 89 85 98 fb ff ff 	mov    %rax,-0x468(%rbp)
    c115:	48 8d 85 b8 f0 ff ff 	lea    -0xf48(%rbp),%rax
    c11c:	48 89 85 a0 fb ff ff 	mov    %rax,-0x460(%rbp)
    c123:	48 8d 85 b8 f0 ff ff 	lea    -0xf48(%rbp),%rax
    c12a:	48 89 85 a8 fb ff ff 	mov    %rax,-0x458(%rbp)
    c131:	48 8d 85 b8 f0 ff ff 	lea    -0xf48(%rbp),%rax
    c138:	48 89 85 b0 fb ff ff 	mov    %rax,-0x450(%rbp)
    c13f:	48 8d 85 b8 f0 ff ff 	lea    -0xf48(%rbp),%rax
    c146:	48 89 85 b8 fb ff ff 	mov    %rax,-0x448(%rbp)
    c14d:	48 8d 85 b8 f0 ff ff 	lea    -0xf48(%rbp),%rax
    c154:	48 89 85 c0 fb ff ff 	mov    %rax,-0x440(%rbp)
    c15b:	48 8d 85 b8 f0 ff ff 	lea    -0xf48(%rbp),%rax
    c162:	48 89 85 c8 fb ff ff 	mov    %rax,-0x438(%rbp)
    c169:	48 8d 85 b8 f0 ff ff 	lea    -0xf48(%rbp),%rax
    c170:	48 89 85 d0 fb ff ff 	mov    %rax,-0x430(%rbp)
    c177:	48 8d 85 b8 f0 ff ff 	lea    -0xf48(%rbp),%rax
    c17e:	48 89 85 d8 fb ff ff 	mov    %rax,-0x428(%rbp)
    c185:	48 8d 85 b8 f0 ff ff 	lea    -0xf48(%rbp),%rax
    c18c:	48 89 85 e0 fb ff ff 	mov    %rax,-0x420(%rbp)
    c193:	48 8d 85 b8 f0 ff ff 	lea    -0xf48(%rbp),%rax
    c19a:	48 89 85 e8 fb ff ff 	mov    %rax,-0x418(%rbp)
    c1a1:	48 8d 85 b8 f0 ff ff 	lea    -0xf48(%rbp),%rax
    c1a8:	48 89 85 f0 fb ff ff 	mov    %rax,-0x410(%rbp)
    c1af:	48 8d 85 b8 f0 ff ff 	lea    -0xf48(%rbp),%rax
    c1b6:	48 89 85 f8 fb ff ff 	mov    %rax,-0x408(%rbp)
    c1bd:	48 8d 85 b8 f0 ff ff 	lea    -0xf48(%rbp),%rax
    c1c4:	48 89 85 00 fc ff ff 	mov    %rax,-0x400(%rbp)
    c1cb:	48 c7 85 08 fc ff ff 	movq   $0x0,-0x3f8(%rbp)
    c1d2:	00 00 00 00 
    c1d6:	48 c7 85 10 fc ff ff 	movq   $0x0,-0x3f0(%rbp)
    c1dd:	00 00 00 00 
    c1e1:	48 8d 85 b8 f0 ff ff 	lea    -0xf48(%rbp),%rax
    c1e8:	48 89 85 18 fc ff ff 	mov    %rax,-0x3e8(%rbp)
    c1ef:	48 c7 85 20 fc ff ff 	movq   $0x0,-0x3e0(%rbp)
    c1f6:	00 00 00 00 
    c1fa:	48 8d 85 b8 f0 ff ff 	lea    -0xf48(%rbp),%rax
    c201:	48 89 85 28 fc ff ff 	mov    %rax,-0x3d8(%rbp)
    c208:	48 8d 85 b8 f0 ff ff 	lea    -0xf48(%rbp),%rax
    c20f:	48 89 85 30 fc ff ff 	mov    %rax,-0x3d0(%rbp)
    c216:	48 8d 85 b8 f0 ff ff 	lea    -0xf48(%rbp),%rax
    c21d:	48 89 85 38 fc ff ff 	mov    %rax,-0x3c8(%rbp)
    c224:	48 c7 85 40 fc ff ff 	movq   $0x0,-0x3c0(%rbp)
    c22b:	00 00 00 00 
    c22f:	48 8d 85 b8 f0 ff ff 	lea    -0xf48(%rbp),%rax
    c236:	48 89 85 48 fc ff ff 	mov    %rax,-0x3b8(%rbp)
    c23d:	48 c7 85 50 fc ff ff 	movq   $0x0,-0x3b0(%rbp)
    c244:	00 00 00 00 
    c248:	48 8d 85 b8 f0 ff ff 	lea    -0xf48(%rbp),%rax
    c24f:	48 89 85 58 fc ff ff 	mov    %rax,-0x3a8(%rbp)
    c256:	48 c7 85 60 fc ff ff 	movq   $0x0,-0x3a0(%rbp)
    c25d:	00 00 00 00 
    c261:	48 c7 85 68 fc ff ff 	movq   $0x0,-0x398(%rbp)
    c268:	00 00 00 00 
    c26c:	48 8d 85 b8 f0 ff ff 	lea    -0xf48(%rbp),%rax
    c273:	48 89 85 70 fc ff ff 	mov    %rax,-0x390(%rbp)
    c27a:	48 8d 85 b8 f0 ff ff 	lea    -0xf48(%rbp),%rax
    c281:	48 89 85 78 fc ff ff 	mov    %rax,-0x388(%rbp)
    c288:	48 8d 85 b8 f0 ff ff 	lea    -0xf48(%rbp),%rax
    c28f:	48 89 85 80 fc ff ff 	mov    %rax,-0x380(%rbp)
    c296:	48 8d 85 b8 f0 ff ff 	lea    -0xf48(%rbp),%rax
    c29d:	48 89 85 88 fc ff ff 	mov    %rax,-0x378(%rbp)
    c2a4:	48 8d 85 b8 f0 ff ff 	lea    -0xf48(%rbp),%rax
    c2ab:	48 89 85 90 fc ff ff 	mov    %rax,-0x370(%rbp)
    c2b2:	48 8d 85 b8 f0 ff ff 	lea    -0xf48(%rbp),%rax
    c2b9:	48 89 85 98 fc ff ff 	mov    %rax,-0x368(%rbp)
    c2c0:	48 8d 85 b8 f0 ff ff 	lea    -0xf48(%rbp),%rax
    c2c7:	48 89 85 a0 fc ff ff 	mov    %rax,-0x360(%rbp)
    c2ce:	48 8d 85 b8 f0 ff ff 	lea    -0xf48(%rbp),%rax
    c2d5:	48 89 85 a8 fc ff ff 	mov    %rax,-0x358(%rbp)
    c2dc:	48 c7 85 b0 fc ff ff 	movq   $0x0,-0x350(%rbp)
    c2e3:	00 00 00 00 
    c2e7:	48 8d 85 b8 f0 ff ff 	lea    -0xf48(%rbp),%rax
    c2ee:	48 89 85 b8 fc ff ff 	mov    %rax,-0x348(%rbp)
    c2f5:	48 8d 85 b8 f0 ff ff 	lea    -0xf48(%rbp),%rax
    c2fc:	48 89 85 c0 fc ff ff 	mov    %rax,-0x340(%rbp)
    c303:	48 c7 85 c8 fc ff ff 	movq   $0x0,-0x338(%rbp)
    c30a:	00 00 00 00 
    c30e:	48 8d 85 b8 f0 ff ff 	lea    -0xf48(%rbp),%rax
    c315:	48 89 85 d0 fc ff ff 	mov    %rax,-0x330(%rbp)
    c31c:	48 c7 85 d8 fc ff ff 	movq   $0x0,-0x328(%rbp)
    c323:	00 00 00 00 
    c327:	48 8d 85 b8 f0 ff ff 	lea    -0xf48(%rbp),%rax
    c32e:	48 89 85 e0 fc ff ff 	mov    %rax,-0x320(%rbp)
    c335:	48 8d 85 b8 f0 ff ff 	lea    -0xf48(%rbp),%rax
    c33c:	48 89 85 e8 fc ff ff 	mov    %rax,-0x318(%rbp)
    c343:	48 8d 85 b8 f0 ff ff 	lea    -0xf48(%rbp),%rax
    c34a:	48 89 85 f0 fc ff ff 	mov    %rax,-0x310(%rbp)
    c351:	48 c7 85 f8 fc ff ff 	movq   $0x0,-0x308(%rbp)
    c358:	00 00 00 00 
    c35c:	48 8d 85 b8 f0 ff ff 	lea    -0xf48(%rbp),%rax
    c363:	48 89 85 00 fd ff ff 	mov    %rax,-0x300(%rbp)
    c36a:	48 c7 85 08 fd ff ff 	movq   $0x0,-0x2f8(%rbp)
    c371:	00 00 00 00 
    c375:	48 8d 85 b8 f0 ff ff 	lea    -0xf48(%rbp),%rax
    c37c:	48 89 85 10 fd ff ff 	mov    %rax,-0x2f0(%rbp)
    c383:	48 c7 85 18 fd ff ff 	movq   $0x0,-0x2e8(%rbp)
    c38a:	00 00 00 00 
    c38e:	48 8d 85 b8 f0 ff ff 	lea    -0xf48(%rbp),%rax
    c395:	48 89 85 20 fd ff ff 	mov    %rax,-0x2e0(%rbp)
    c39c:	48 8d 85 b8 f0 ff ff 	lea    -0xf48(%rbp),%rax
    c3a3:	48 89 85 28 fd ff ff 	mov    %rax,-0x2d8(%rbp)
    c3aa:	48 c7 85 30 fd ff ff 	movq   $0x0,-0x2d0(%rbp)
    c3b1:	00 00 00 00 
    c3b5:	48 8d 85 b8 f0 ff ff 	lea    -0xf48(%rbp),%rax
    c3bc:	48 89 85 38 fd ff ff 	mov    %rax,-0x2c8(%rbp)
    c3c3:	48 c7 85 40 fd ff ff 	movq   $0x0,-0x2c0(%rbp)
    c3ca:	00 00 00 00 
    c3ce:	48 8d 85 b8 f0 ff ff 	lea    -0xf48(%rbp),%rax
    c3d5:	48 89 85 48 fd ff ff 	mov    %rax,-0x2b8(%rbp)
    c3dc:	48 8d 85 b8 f0 ff ff 	lea    -0xf48(%rbp),%rax
    c3e3:	48 89 85 50 fd ff ff 	mov    %rax,-0x2b0(%rbp)
    c3ea:	48 8d 85 b8 f0 ff ff 	lea    -0xf48(%rbp),%rax
    c3f1:	48 89 85 58 fd ff ff 	mov    %rax,-0x2a8(%rbp)
    c3f8:	48 8d 85 b8 f0 ff ff 	lea    -0xf48(%rbp),%rax
    c3ff:	48 89 85 60 fd ff ff 	mov    %rax,-0x2a0(%rbp)
    c406:	48 8d 85 b8 f0 ff ff 	lea    -0xf48(%rbp),%rax
    c40d:	48 89 85 68 fd ff ff 	mov    %rax,-0x298(%rbp)
    c414:	48 8d 85 b8 f0 ff ff 	lea    -0xf48(%rbp),%rax
    c41b:	48 89 85 70 fd ff ff 	mov    %rax,-0x290(%rbp)
    c422:	48 c7 85 78 fd ff ff 	movq   $0x0,-0x288(%rbp)
    c429:	00 00 00 00 
    c42d:	48 8d 85 b8 f0 ff ff 	lea    -0xf48(%rbp),%rax
    c434:	48 89 85 80 fd ff ff 	mov    %rax,-0x280(%rbp)
    c43b:	48 8d 85 b8 f0 ff ff 	lea    -0xf48(%rbp),%rax
    c442:	48 89 85 88 fd ff ff 	mov    %rax,-0x278(%rbp)
    c449:	48 c7 85 90 fd ff ff 	movq   $0x0,-0x270(%rbp)
    c450:	00 00 00 00 
    c454:	48 8d 85 b8 f0 ff ff 	lea    -0xf48(%rbp),%rax
    c45b:	48 89 85 98 fd ff ff 	mov    %rax,-0x268(%rbp)
    c462:	48 c7 85 a0 fd ff ff 	movq   $0x0,-0x260(%rbp)
    c469:	00 00 00 00 
    c46d:	48 8d 85 b8 f0 ff ff 	lea    -0xf48(%rbp),%rax
    c474:	48 89 85 a8 fd ff ff 	mov    %rax,-0x258(%rbp)
    c47b:	48 8d 85 b8 f0 ff ff 	lea    -0xf48(%rbp),%rax
    c482:	48 89 85 b0 fd ff ff 	mov    %rax,-0x250(%rbp)
    c489:	48 8d 85 b8 f0 ff ff 	lea    -0xf48(%rbp),%rax
    c490:	48 89 85 b8 fd ff ff 	mov    %rax,-0x248(%rbp)
    c497:	48 8d 85 b8 f0 ff ff 	lea    -0xf48(%rbp),%rax
    c49e:	48 89 85 c0 fd ff ff 	mov    %rax,-0x240(%rbp)
    c4a5:	48 8d 85 b8 f0 ff ff 	lea    -0xf48(%rbp),%rax
    c4ac:	48 89 85 c8 fd ff ff 	mov    %rax,-0x238(%rbp)
    c4b3:	48 c7 85 d0 fd ff ff 	movq   $0x0,-0x230(%rbp)
    c4ba:	00 00 00 00 
    c4be:	48 8d 85 b8 f0 ff ff 	lea    -0xf48(%rbp),%rax
    c4c5:	48 89 85 d8 fd ff ff 	mov    %rax,-0x228(%rbp)
    c4cc:	48 8d 85 b8 f0 ff ff 	lea    -0xf48(%rbp),%rax
    c4d3:	48 89 85 e0 fd ff ff 	mov    %rax,-0x220(%rbp)
    c4da:	48 c7 85 e8 fd ff ff 	movq   $0x0,-0x218(%rbp)
    c4e1:	00 00 00 00 
    c4e5:	48 c7 85 f0 fd ff ff 	movq   $0x0,-0x210(%rbp)
    c4ec:	00 00 00 00 
    c4f0:	48 8d 85 b8 f0 ff ff 	lea    -0xf48(%rbp),%rax
    c4f7:	48 89 85 f8 fd ff ff 	mov    %rax,-0x208(%rbp)
    c4fe:	48 8d 85 b8 f0 ff ff 	lea    -0xf48(%rbp),%rax
    c505:	48 89 85 00 fe ff ff 	mov    %rax,-0x200(%rbp)
    c50c:	48 8d 85 b8 f0 ff ff 	lea    -0xf48(%rbp),%rax
    c513:	48 89 85 08 fe ff ff 	mov    %rax,-0x1f8(%rbp)
    c51a:	48 8d 85 b8 f0 ff ff 	lea    -0xf48(%rbp),%rax
    c521:	48 89 85 10 fe ff ff 	mov    %rax,-0x1f0(%rbp)
    c528:	48 8d 85 b8 f0 ff ff 	lea    -0xf48(%rbp),%rax
    c52f:	48 89 85 18 fe ff ff 	mov    %rax,-0x1e8(%rbp)
    c536:	48 8d 85 b8 f0 ff ff 	lea    -0xf48(%rbp),%rax
    c53d:	48 89 85 20 fe ff ff 	mov    %rax,-0x1e0(%rbp)
    c544:	48 8d 85 b8 f0 ff ff 	lea    -0xf48(%rbp),%rax
    c54b:	48 89 85 28 fe ff ff 	mov    %rax,-0x1d8(%rbp)
    c552:	48 c7 85 30 fe ff ff 	movq   $0x0,-0x1d0(%rbp)
    c559:	00 00 00 00 
    c55d:	48 c7 85 38 fe ff ff 	movq   $0x0,-0x1c8(%rbp)
    c564:	00 00 00 00 
    c568:	48 c7 85 40 fe ff ff 	movq   $0x0,-0x1c0(%rbp)
    c56f:	00 00 00 00 
    c573:	48 8d 85 b8 f0 ff ff 	lea    -0xf48(%rbp),%rax
    c57a:	48 89 85 48 fe ff ff 	mov    %rax,-0x1b8(%rbp)
    c581:	48 8d 85 b8 f0 ff ff 	lea    -0xf48(%rbp),%rax
    c588:	48 89 85 50 fe ff ff 	mov    %rax,-0x1b0(%rbp)
    c58f:	48 8d 85 b8 f0 ff ff 	lea    -0xf48(%rbp),%rax
    c596:	48 89 85 58 fe ff ff 	mov    %rax,-0x1a8(%rbp)
    c59d:	48 8d 85 b8 f0 ff ff 	lea    -0xf48(%rbp),%rax
    c5a4:	48 89 85 60 fe ff ff 	mov    %rax,-0x1a0(%rbp)
    c5ab:	48 8d 85 b8 f0 ff ff 	lea    -0xf48(%rbp),%rax
    c5b2:	48 89 85 68 fe ff ff 	mov    %rax,-0x198(%rbp)
    c5b9:	48 c7 85 70 fe ff ff 	movq   $0x0,-0x190(%rbp)
    c5c0:	00 00 00 00 
    c5c4:	48 8d 85 b8 f0 ff ff 	lea    -0xf48(%rbp),%rax
    c5cb:	48 89 85 78 fe ff ff 	mov    %rax,-0x188(%rbp)
    c5d2:	48 c7 85 80 fe ff ff 	movq   $0x0,-0x180(%rbp)
    c5d9:	00 00 00 00 
    c5dd:	48 8d 85 b8 f0 ff ff 	lea    -0xf48(%rbp),%rax
    c5e4:	48 89 85 88 fe ff ff 	mov    %rax,-0x178(%rbp)
    c5eb:	48 8d 85 b8 f0 ff ff 	lea    -0xf48(%rbp),%rax
    c5f2:	48 89 85 90 fe ff ff 	mov    %rax,-0x170(%rbp)
    c5f9:	48 c7 85 98 fe ff ff 	movq   $0x0,-0x168(%rbp)
    c600:	00 00 00 00 
    c604:	48 8d 85 b8 f0 ff ff 	lea    -0xf48(%rbp),%rax
    c60b:	48 89 85 a0 fe ff ff 	mov    %rax,-0x160(%rbp)
    c612:	48 8d 85 b8 f0 ff ff 	lea    -0xf48(%rbp),%rax
    c619:	48 89 85 a8 fe ff ff 	mov    %rax,-0x158(%rbp)
    c620:	48 c7 85 b0 fe ff ff 	movq   $0x0,-0x150(%rbp)
    c627:	00 00 00 00 
    c62b:	48 8d 85 b8 f0 ff ff 	lea    -0xf48(%rbp),%rax
    c632:	48 89 85 b8 fe ff ff 	mov    %rax,-0x148(%rbp)
    c639:	48 8d 85 b8 f0 ff ff 	lea    -0xf48(%rbp),%rax
    c640:	48 89 85 c0 fe ff ff 	mov    %rax,-0x140(%rbp)
    c647:	48 8d 85 b8 f0 ff ff 	lea    -0xf48(%rbp),%rax
    c64e:	48 89 85 c8 fe ff ff 	mov    %rax,-0x138(%rbp)
    c655:	48 8d 85 b8 f0 ff ff 	lea    -0xf48(%rbp),%rax
    c65c:	48 89 85 d0 fe ff ff 	mov    %rax,-0x130(%rbp)
    c663:	48 c7 85 d8 fe ff ff 	movq   $0x0,-0x128(%rbp)
    c66a:	00 00 00 00 
    c66e:	48 8d 85 b8 f0 ff ff 	lea    -0xf48(%rbp),%rax
    c675:	48 89 85 e0 fe ff ff 	mov    %rax,-0x120(%rbp)
    c67c:	48 8d 85 b8 f0 ff ff 	lea    -0xf48(%rbp),%rax
    c683:	48 89 85 e8 fe ff ff 	mov    %rax,-0x118(%rbp)
    c68a:	48 8d 85 b8 f0 ff ff 	lea    -0xf48(%rbp),%rax
    c691:	48 89 85 f0 fe ff ff 	mov    %rax,-0x110(%rbp)
    c698:	48 c7 85 f8 fe ff ff 	movq   $0x0,-0x108(%rbp)
    c69f:	00 00 00 00 
    c6a3:	48 8d 85 b8 f0 ff ff 	lea    -0xf48(%rbp),%rax
    c6aa:	48 89 85 00 ff ff ff 	mov    %rax,-0x100(%rbp)
    c6b1:	48 c7 85 08 ff ff ff 	movq   $0x0,-0xf8(%rbp)
    c6b8:	00 00 00 00 
    c6bc:	48 8d 85 b8 f0 ff ff 	lea    -0xf48(%rbp),%rax
    c6c3:	48 89 85 10 ff ff ff 	mov    %rax,-0xf0(%rbp)
    c6ca:	48 8d 85 b8 f0 ff ff 	lea    -0xf48(%rbp),%rax
    c6d1:	48 89 85 18 ff ff ff 	mov    %rax,-0xe8(%rbp)
    c6d8:	48 8d 85 b8 f0 ff ff 	lea    -0xf48(%rbp),%rax
    c6df:	48 89 85 20 ff ff ff 	mov    %rax,-0xe0(%rbp)
    c6e6:	48 c7 85 28 ff ff ff 	movq   $0x0,-0xd8(%rbp)
    c6ed:	00 00 00 00 
    c6f1:	48 8d 85 b8 f0 ff ff 	lea    -0xf48(%rbp),%rax
    c6f8:	48 89 85 30 ff ff ff 	mov    %rax,-0xd0(%rbp)
    c6ff:	48 c7 85 38 ff ff ff 	movq   $0x0,-0xc8(%rbp)
    c706:	00 00 00 00 
    c70a:	48 8d 85 b8 f0 ff ff 	lea    -0xf48(%rbp),%rax
    c711:	48 89 85 40 ff ff ff 	mov    %rax,-0xc0(%rbp)
    c718:	48 c7 85 48 ff ff ff 	movq   $0x0,-0xb8(%rbp)
    c71f:	00 00 00 00 
    c723:	48 8d 85 b8 f0 ff ff 	lea    -0xf48(%rbp),%rax
    c72a:	48 89 85 50 ff ff ff 	mov    %rax,-0xb0(%rbp)
    c731:	48 8d 85 b8 f0 ff ff 	lea    -0xf48(%rbp),%rax
    c738:	48 89 85 58 ff ff ff 	mov    %rax,-0xa8(%rbp)
    c73f:	48 c7 85 60 ff ff ff 	movq   $0x0,-0xa0(%rbp)
    c746:	00 00 00 00 
    c74a:	48 8d 85 b8 f0 ff ff 	lea    -0xf48(%rbp),%rax
    c751:	48 89 85 68 ff ff ff 	mov    %rax,-0x98(%rbp)
    c758:	48 8d 85 b8 f0 ff ff 	lea    -0xf48(%rbp),%rax
    c75f:	48 89 85 70 ff ff ff 	mov    %rax,-0x90(%rbp)
    c766:	48 8d 85 b8 f0 ff ff 	lea    -0xf48(%rbp),%rax
    c76d:	48 89 85 78 ff ff ff 	mov    %rax,-0x88(%rbp)
    c774:	48 8d 85 b8 f0 ff ff 	lea    -0xf48(%rbp),%rax
    c77b:	48 89 45 80          	mov    %rax,-0x80(%rbp)
    c77f:	48 8d 85 b8 f0 ff ff 	lea    -0xf48(%rbp),%rax
    c786:	48 89 45 88          	mov    %rax,-0x78(%rbp)
    c78a:	48 8d 85 b8 f0 ff ff 	lea    -0xf48(%rbp),%rax
    c791:	48 89 45 90          	mov    %rax,-0x70(%rbp)
    c795:	48 8d 85 b8 f0 ff ff 	lea    -0xf48(%rbp),%rax
    c79c:	48 89 45 98          	mov    %rax,-0x68(%rbp)
    c7a0:	48 8d 85 b8 f0 ff ff 	lea    -0xf48(%rbp),%rax
    c7a7:	48 89 45 a0          	mov    %rax,-0x60(%rbp)
    c7ab:	48 c7 45 a8 00 00 00 	movq   $0x0,-0x58(%rbp)
    c7b2:	00 
    c7b3:	48 8d 85 b8 f0 ff ff 	lea    -0xf48(%rbp),%rax
    c7ba:	48 89 45 b0          	mov    %rax,-0x50(%rbp)
    c7be:	48 8d 85 b8 f0 ff ff 	lea    -0xf48(%rbp),%rax
    c7c5:	48 89 45 b8          	mov    %rax,-0x48(%rbp)
    c7c9:	c7 85 10 ef ff ff 01 	movl   $0x1,-0x10f0(%rbp)
    c7d0:	00 00 00 
    c7d3:	c6 85 c2 ee ff ff 02 	movb   $0x2,-0x113e(%rbp)
    c7da:	66 c7 85 cc ee ff ff 	movw   $0xffff,-0x1134(%rbp)
    c7e1:	ff ff 
    c7e3:	c7 85 dc ee ff ff 00 	movl   $0x0,-0x1124(%rbp)
    c7ea:	00 00 00 
    c7ed:	eb 1e                	jmp    c80d <func_4+0x1eaa>
    c7ef:	8b 85 dc ee ff ff    	mov    -0x1124(%rbp),%eax
    c7f5:	48 98                	cltq   
    c7f7:	48 8d 95 58 ef ff ff 	lea    -0x10a8(%rbp),%rdx
    c7fe:	48 89 94 c5 b8 f0 ff 	mov    %rdx,-0xf48(%rbp,%rax,8)
    c805:	ff 
    c806:	83 85 dc ee ff ff 01 	addl   $0x1,-0x1124(%rbp)
    c80d:	83 bd dc ee ff ff 00 	cmpl   $0x0,-0x1124(%rbp)
    c814:	7e d9                	jle    c7ef <func_4+0x1e8c>
    c816:	8b 85 ac ee ff ff    	mov    -0x1154(%rbp),%eax
    c81c:	85 c0                	test   %eax,%eax
    c81e:	0f 9f c0             	setg   %al
    c821:	0f b6 d8             	movzbl %al,%ebx
    c824:	be 01 00 00 00       	mov    $0x1,%esi
    c829:	bf 01 00 00 00       	mov    $0x1,%edi
    c82e:	e8 ae cc ff ff       	callq  94e1 <safe_lshift_func_int16_t_s_u>
    c833:	98                   	cwtl   
    c834:	89 de                	mov    %ebx,%esi
    c836:	89 c7                	mov    %eax,%edi
    c838:	e8 96 cb ff ff       	callq  93d3 <safe_sub_func_int16_t_s_s>
    c83d:	98                   	cwtl   
    c83e:	be fc ff ff ff       	mov    $0xfffffffc,%esi
    c843:	89 c7                	mov    %eax,%edi
    c845:	e8 cc cb ff ff       	callq  9416 <safe_mod_func_int16_t_s_s>
    c84a:	66 83 f8 f8          	cmp    $0xfff8,%ax
    c84e:	0f 9c c0             	setl   %al
    c851:	0f b6 d0             	movzbl %al,%edx
    c854:	48 8b 05 95 84 01 00 	mov    0x18495(%rip),%rax        # 24cf0 <g_1216>
    c85b:	48 8b 00             	mov    (%rax),%rax
    c85e:	0f b7 00             	movzwl (%rax),%eax
    c861:	98                   	cwtl   
    c862:	39 c2                	cmp    %eax,%edx
    c864:	0f 95 c2             	setne  %dl
    c867:	48 8b 05 4a 90 01 00 	mov    0x1904a(%rip),%rax        # 258b8 <g_2228>
    c86e:	48 8b 00             	mov    (%rax),%rax
    c871:	48 8b 00             	mov    (%rax),%rax
    c874:	0f b6 d2             	movzbl %dl,%edx
    c877:	66 89 10             	mov    %dx,(%rax)
    c87a:	0f b7 00             	movzwl (%rax),%eax
    c87d:	0f bf d0             	movswl %ax,%edx
    c880:	8b 85 ac ee ff ff    	mov    -0x1154(%rbp),%eax
    c886:	39 c2                	cmp    %eax,%edx
    c888:	48 8b 85 c8 ef ff ff 	mov    -0x1038(%rbp),%rax
    c88f:	8b 00                	mov    (%rax),%eax
    c891:	0f b6 d8             	movzbl %al,%ebx
    c894:	0f b6 95 c1 ee ff ff 	movzbl -0x113f(%rbp),%edx
    c89b:	8b 05 33 59 01 00    	mov    0x15933(%rip),%eax        # 221d4 <g_546+0xb4>
    c8a1:	89 d6                	mov    %edx,%esi
    c8a3:	89 c7                	mov    %eax,%edi
    c8a5:	e8 7b d6 ff ff       	callq  9f25 <safe_div_func_uint32_t_u_u>
    c8aa:	0f b6 c0             	movzbl %al,%eax
    c8ad:	89 de                	mov    %ebx,%esi
    c8af:	89 c7                	mov    %eax,%edi
    c8b1:	e8 f8 d2 ff ff       	callq  9bae <safe_mod_func_uint8_t_u_u>
    c8b6:	8b 85 ac ee ff ff    	mov    -0x1154(%rbp),%eax
    c8bc:	0f be c0             	movsbl %al,%eax
    c8bf:	89 c7                	mov    %eax,%edi
    c8c1:	e8 f9 c8 ff ff       	callq  91bf <safe_unary_minus_func_int8_t_s>
    c8c6:	3c 02                	cmp    $0x2,%al
    c8c8:	0f 97 c0             	seta   %al
    c8cb:	0f b6 d0             	movzbl %al,%edx
    c8ce:	8b 85 ac ee ff ff    	mov    -0x1154(%rbp),%eax
    c8d4:	39 c2                	cmp    %eax,%edx
    c8d6:	0f 95 c0             	setne  %al
    c8d9:	0f b6 c0             	movzbl %al,%eax
    c8dc:	48 39 85 18 f0 ff ff 	cmp    %rax,-0xfe8(%rbp)
    c8e3:	0f 96 c0             	setbe  %al
    c8e6:	0f b6 d0             	movzbl %al,%edx
    c8e9:	0f b7 05 9a 5b 01 00 	movzwl 0x15b9a(%rip),%eax        # 2248a <g_615+0x2>
    c8f0:	21 d0                	and    %edx,%eax
    c8f2:	66 89 05 91 5b 01 00 	mov    %ax,0x15b91(%rip)        # 2248a <g_615+0x2>
    c8f9:	0f b7 05 8a 5b 01 00 	movzwl 0x15b8a(%rip),%eax        # 2248a <g_615+0x2>
    c900:	66 85 c0             	test   %ax,%ax
    c903:	0f 94 c0             	sete   %al
    c906:	0f b6 c0             	movzbl %al,%eax
    c909:	48 c7 c6 f9 ff ff ff 	mov    $0xfffffffffffffff9,%rsi
    c910:	48 89 c7             	mov    %rax,%rdi
    c913:	e8 16 d7 ff ff       	callq  a02e <safe_add_func_uint64_t_u_u>
    c918:	48 85 c0             	test   %rax,%rax
    c91b:	0f 84 f1 03 00 00    	je     cd12 <func_4+0x23af>
    c921:	48 b8 a2 fa a2 83 83 	movabs $0xa2faa28383a2faa2,%rax
    c928:	a2 fa a2 
    c92b:	48 89 85 c0 f1 ff ff 	mov    %rax,-0xe40(%rbp)
    c932:	66 c7 85 c8 f1 ff ff 	movw   $0x8383,-0xe38(%rbp)
    c939:	83 83 
    c93b:	48 89 85 ca f1 ff ff 	mov    %rax,-0xe36(%rbp)
    c942:	66 c7 85 d2 f1 ff ff 	movw   $0x8383,-0xe2e(%rbp)
    c949:	83 83 
    c94b:	48 8d 05 8e 8f 01 00 	lea    0x18f8e(%rip),%rax        # 258e0 <g_2256>
    c952:	48 89 85 a8 ef ff ff 	mov    %rax,-0x1058(%rbp)
    c959:	48 8d 85 a8 ef ff ff 	lea    -0x1058(%rbp),%rax
    c960:	48 89 85 38 f0 ff ff 	mov    %rax,-0xfc8(%rbp)
    c967:	66 c7 85 30 f2 ff ff 	movw   $0x3faf,-0xdd0(%rbp)
    c96e:	af 3f 
    c970:	66 c7 85 32 f2 ff ff 	movw   $0xd34c,-0xdce(%rbp)
    c977:	4c d3 
    c979:	66 c7 85 34 f2 ff ff 	movw   $0x1,-0xdcc(%rbp)
    c980:	01 00 
    c982:	66 c7 85 36 f2 ff ff 	movw   $0xf443,-0xdca(%rbp)
    c989:	43 f4 
    c98b:	66 c7 85 38 f2 ff ff 	movw   $0xfff9,-0xdc8(%rbp)
    c992:	f9 ff 
    c994:	66 c7 85 3a f2 ff ff 	movw   $0x6bdf,-0xdc6(%rbp)
    c99b:	df 6b 
    c99d:	66 c7 85 3c f2 ff ff 	movw   $0xfff9,-0xdc4(%rbp)
    c9a4:	f9 ff 
    c9a6:	66 c7 85 3e f2 ff ff 	movw   $0xffff,-0xdc2(%rbp)
    c9ad:	ff ff 
    c9af:	66 c7 85 40 f2 ff ff 	movw   $0x7,-0xdc0(%rbp)
    c9b6:	07 00 
    c9b8:	66 c7 85 42 f2 ff ff 	movw   $0x7,-0xdbe(%rbp)
    c9bf:	07 00 
    c9c1:	66 c7 85 44 f2 ff ff 	movw   $0xffff,-0xdbc(%rbp)
    c9c8:	ff ff 
    c9ca:	66 c7 85 46 f2 ff ff 	movw   $0x8eb5,-0xdba(%rbp)
    c9d1:	b5 8e 
    c9d3:	66 c7 85 48 f2 ff ff 	movw   $0xea58,-0xdb8(%rbp)
    c9da:	58 ea 
    c9dc:	66 c7 85 4a f2 ff ff 	movw   $0x8670,-0xdb6(%rbp)
    c9e3:	70 86 
    c9e5:	66 c7 85 4c f2 ff ff 	movw   $0x0,-0xdb4(%rbp)
    c9ec:	00 00 
    c9ee:	66 c7 85 4e f2 ff ff 	movw   $0x6bdf,-0xdb2(%rbp)
    c9f5:	df 6b 
    c9f7:	66 c7 85 50 f2 ff ff 	movw   $0xeb02,-0xdb0(%rbp)
    c9fe:	02 eb 
    ca00:	66 c7 85 52 f2 ff ff 	movw   $0xd34c,-0xdae(%rbp)
    ca07:	4c d3 
    ca09:	66 c7 85 54 f2 ff ff 	movw   $0xd34c,-0xdac(%rbp)
    ca10:	4c d3 
    ca12:	66 c7 85 56 f2 ff ff 	movw   $0xeb02,-0xdaa(%rbp)
    ca19:	02 eb 
    ca1b:	66 c7 85 58 f2 ff ff 	movw   $0x6bdf,-0xda8(%rbp)
    ca22:	df 6b 
    ca24:	66 c7 85 5a f2 ff ff 	movw   $0xdd85,-0xda6(%rbp)
    ca2b:	85 dd 
    ca2d:	66 c7 85 5c f2 ff ff 	movw   $0xffff,-0xda4(%rbp)
    ca34:	ff ff 
    ca36:	66 c7 85 5e f2 ff ff 	movw   $0xfffc,-0xda2(%rbp)
    ca3d:	fc ff 
    ca3f:	66 c7 85 60 f2 ff ff 	movw   $0xffff,-0xda0(%rbp)
    ca46:	ff ff 
    ca48:	66 c7 85 62 f2 ff ff 	movw   $0x8670,-0xd9e(%rbp)
    ca4f:	70 86 
    ca51:	66 c7 85 64 f2 ff ff 	movw   $0x1,-0xd9c(%rbp)
    ca58:	01 00 
    ca5a:	66 c7 85 66 f2 ff ff 	movw   $0x1,-0xd9a(%rbp)
    ca61:	01 00 
    ca63:	66 c7 85 68 f2 ff ff 	movw   $0x1,-0xd98(%rbp)
    ca6a:	01 00 
    ca6c:	66 c7 85 6a f2 ff ff 	movw   $0x0,-0xd96(%rbp)
    ca73:	00 00 
    ca75:	66 c7 85 6c f2 ff ff 	movw   $0xd34c,-0xd94(%rbp)
    ca7c:	4c d3 
    ca7e:	66 c7 85 6e f2 ff ff 	movw   $0x0,-0xd92(%rbp)
    ca85:	00 00 
    ca87:	66 c7 85 70 f2 ff ff 	movw   $0x1,-0xd90(%rbp)
    ca8e:	01 00 
    ca90:	66 c7 85 72 f2 ff ff 	movw   $0x3faf,-0xd8e(%rbp)
    ca97:	af 3f 
    ca99:	66 c7 85 74 f2 ff ff 	movw   $0x6e60,-0xd8c(%rbp)
    caa0:	60 6e 
    caa2:	66 c7 85 76 f2 ff ff 	movw   $0x8eb5,-0xd8a(%rbp)
    caa9:	b5 8e 
    caab:	66 c7 85 78 f2 ff ff 	movw   $0xfffb,-0xd88(%rbp)
    cab2:	fb ff 
    cab4:	66 c7 85 7a f2 ff ff 	movw   $0xffff,-0xd86(%rbp)
    cabb:	ff ff 
    cabd:	66 c7 85 7c f2 ff ff 	movw   $0xffff,-0xd84(%rbp)
    cac4:	ff ff 
    cac6:	66 c7 85 7e f2 ff ff 	movw   $0xea58,-0xd82(%rbp)
    cacd:	58 ea 
    cacf:	66 c7 85 80 f2 ff ff 	movw   $0xffff,-0xd80(%rbp)
    cad6:	ff ff 
    cad8:	66 c7 85 82 f2 ff ff 	movw   $0xffff,-0xd7e(%rbp)
    cadf:	ff ff 
    cae1:	66 c7 85 84 f2 ff ff 	movw   $0x6e60,-0xd7c(%rbp)
    cae8:	60 6e 
    caea:	66 c7 85 86 f2 ff ff 	movw   $0x6e60,-0xd7a(%rbp)
    caf1:	60 6e 
    caf3:	66 c7 85 88 f2 ff ff 	movw   $0xfff9,-0xd78(%rbp)
    cafa:	f9 ff 
    cafc:	66 c7 85 8a f2 ff ff 	movw   $0xd34c,-0xd76(%rbp)
    cb03:	4c d3 
    cb05:	66 c7 85 8c f2 ff ff 	movw   $0x6bdf,-0xd74(%rbp)
    cb0c:	df 6b 
    cb0e:	66 c7 85 8e f2 ff ff 	movw   $0x1,-0xd72(%rbp)
    cb15:	01 00 
    cb17:	66 c7 85 90 f2 ff ff 	movw   $0xeb02,-0xd70(%rbp)
    cb1e:	02 eb 
    cb20:	66 c7 05 67 55 01 00 	movw   $0x7,0x15567(%rip)        # 22090 <g_50>
    cb27:	07 00 
    cb29:	e9 ee 00 00 00       	jmpq   cc1c <func_4+0x22b9>
    cb2e:	48 c7 85 58 f0 ff ff 	movq   $0x0,-0xfa8(%rbp)
    cb35:	00 00 00 00 
    cb39:	48 c7 85 b0 ef ff ff 	movq   $0x0,-0x1050(%rbp)
    cb40:	00 00 00 00 
    cb44:	48 8d 85 b0 ef ff ff 	lea    -0x1050(%rbp),%rax
    cb4b:	48 89 85 b8 ef ff ff 	mov    %rax,-0x1048(%rbp)
    cb52:	48 8d 85 b8 ef ff ff 	lea    -0x1048(%rbp),%rax
    cb59:	48 89 85 60 f0 ff ff 	mov    %rax,-0xfa0(%rbp)
    cb60:	48 c7 85 60 f0 ff ff 	movq   $0x0,-0xfa0(%rbp)
    cb67:	00 00 00 00 
    cb6b:	66 c7 05 72 59 01 00 	movw   $0x0,0x15972(%rip)        # 224e6 <g_1654>
    cb72:	00 00 
    cb74:	eb 45                	jmp    cbbb <func_4+0x2258>
    cb76:	0f b7 05 69 59 01 00 	movzwl 0x15969(%rip),%eax        # 224e6 <g_1654>
    cb7d:	98                   	cwtl   
    cb7e:	83 c0 03             	add    $0x3,%eax
    cb81:	48 98                	cltq   
    cb83:	48 8d 15 de 93 01 00 	lea    0x193de(%rip),%rdx        # 25f68 <g_43>
    cb8a:	0f b6 04 10          	movzbl (%rax,%rdx,1),%eax
    cb8e:	48 0f be c0          	movsbq %al,%rax
    cb92:	48 89 c6             	mov    %rax,%rsi
    cb95:	bf 01 00 00 00       	mov    $0x1,%edi
    cb9a:	e8 58 ce ff ff       	callq  99f7 <safe_div_func_int64_t_s_s>
    cb9f:	89 c2                	mov    %eax,%edx
    cba1:	48 8b 85 c8 ef ff ff 	mov    -0x1038(%rbp),%rax
    cba8:	89 10                	mov    %edx,(%rax)
    cbaa:	0f b7 05 35 59 01 00 	movzwl 0x15935(%rip),%eax        # 224e6 <g_1654>
    cbb1:	83 c0 01             	add    $0x1,%eax
    cbb4:	66 89 05 2b 59 01 00 	mov    %ax,0x1592b(%rip)        # 224e6 <g_1654>
    cbbb:	0f b7 05 24 59 01 00 	movzwl 0x15924(%rip),%eax        # 224e6 <g_1654>
    cbc2:	66 85 c0             	test   %ax,%ax
    cbc5:	7e af                	jle    cb76 <func_4+0x2213>
    cbc7:	48 c7 05 36 59 01 00 	movq   $0xffffffffffffffee,0x15936(%rip)        # 22508 <g_1889>
    cbce:	ee ff ff ff 
    cbd2:	eb 2a                	jmp    cbfe <func_4+0x229b>
    cbd4:	0f b6 85 ca f1 ff ff 	movzbl -0xe36(%rbp),%eax
    cbdb:	83 e0 84             	and    $0xffffff84,%eax
    cbde:	88 85 ca f1 ff ff    	mov    %al,-0xe36(%rbp)
    cbe4:	8b 85 ac ee ff ff    	mov    -0x1154(%rbp),%eax
    cbea:	85 c0                	test   %eax,%eax
    cbec:	48 8b 05 15 59 01 00 	mov    0x15915(%rip),%rax        # 22508 <g_1889>
    cbf3:	48 83 e8 01          	sub    $0x1,%rax
    cbf7:	48 89 05 0a 59 01 00 	mov    %rax,0x1590a(%rip)        # 22508 <g_1889>
    cbfe:	48 8b 05 03 59 01 00 	mov    0x15903(%rip),%rax        # 22508 <g_1889>
    cc05:	48 83 f8 ed          	cmp    $0xffffffffffffffed,%rax
    cc09:	75 c9                	jne    cbd4 <func_4+0x2271>
    cc0b:	0f b7 05 7e 54 01 00 	movzwl 0x1547e(%rip),%eax        # 22090 <g_50>
    cc12:	83 e8 01             	sub    $0x1,%eax
    cc15:	66 89 05 74 54 01 00 	mov    %ax,0x15474(%rip)        # 22090 <g_50>
    cc1c:	0f b7 05 6d 54 01 00 	movzwl 0x1546d(%rip),%eax        # 22090 <g_50>
    cc23:	66 83 f8 fa          	cmp    $0xfffa,%ax
    cc27:	0f 8d 01 ff ff ff    	jge    cb2e <func_4+0x21cb>
    cc2d:	8b 85 ac ee ff ff    	mov    -0x1154(%rbp),%eax
    cc33:	85 c0                	test   %eax,%eax
    cc35:	0f 85 b9 09 00 00    	jne    d5f4 <func_4+0x2c91>
    cc3b:	48 8b 05 7e 8c 01 00 	mov    0x18c7e(%rip),%rax        # 258c0 <g_2227>
    cc42:	48 8b 00             	mov    (%rax),%rax
    cc45:	48 8b 00             	mov    (%rax),%rax
    cc48:	48 8b 00             	mov    (%rax),%rax
    cc4b:	0f b7 00             	movzwl (%rax),%eax
    cc4e:	98                   	cwtl   
    cc4f:	be 00 00 00 00       	mov    $0x0,%esi
    cc54:	89 c7                	mov    %eax,%edi
    cc56:	e8 37 c8 ff ff       	callq  9492 <safe_lshift_func_int16_t_s_s>
    cc5b:	89 c3                	mov    %eax,%ebx
    cc5d:	8b 85 ac ee ff ff    	mov    -0x1154(%rbp),%eax
    cc63:	85 c0                	test   %eax,%eax
    cc65:	74 1a                	je     cc81 <func_4+0x231e>
    cc67:	48 8b 15 32 8e 01 00 	mov    0x18e32(%rip),%rdx        # 25aa0 <g_2272>
    cc6e:	48 8b 05 2b 8e 01 00 	mov    0x18e2b(%rip),%rax        # 25aa0 <g_2272>
    cc75:	48 8b 12             	mov    (%rdx),%rdx
    cc78:	48 89 10             	mov    %rdx,(%rax)
    cc7b:	48 8b 00             	mov    (%rax),%rax
    cc7e:	48 85 c0             	test   %rax,%rax
    cc81:	48 83 bd 20 f0 ff ff 	cmpq   $0x0,-0xfe0(%rbp)
    cc88:	00 
    cc89:	74 07                	je     cc92 <func_4+0x232f>
    cc8b:	b8 01 00 00 00       	mov    $0x1,%eax
    cc90:	eb 05                	jmp    cc97 <func_4+0x2334>
    cc92:	b8 00 00 00 00       	mov    $0x0,%eax
    cc97:	0f bf d0             	movswl %ax,%edx
    cc9a:	48 8b 85 38 f0 ff ff 	mov    -0xfc8(%rbp),%rax
    cca1:	48 3b 85 f0 ef ff ff 	cmp    -0x1010(%rbp),%rax
    cca8:	0f 95 c0             	setne  %al
    ccab:	0f b6 c0             	movzbl %al,%eax
    ccae:	89 d6                	mov    %edx,%esi
    ccb0:	89 c7                	mov    %eax,%edi
    ccb2:	e8 fc c6 ff ff       	callq  93b3 <safe_add_func_int16_t_s_s>
    ccb7:	8b 85 ac ee ff ff    	mov    -0x1154(%rbp),%eax
    ccbd:	85 c0                	test   %eax,%eax
    ccbf:	0f 9e c0             	setle  %al
    ccc2:	0f b6 d0             	movzbl %al,%edx
    ccc5:	48 8b 05 8c 88 01 00 	mov    0x1888c(%rip),%rax        # 25558 <g_1909>
    cccc:	0f b6 00             	movzbl (%rax),%eax
    cccf:	0f be c0             	movsbl %al,%eax
    ccd2:	89 d6                	mov    %edx,%esi
    ccd4:	89 c7                	mov    %eax,%edi
    ccd6:	e8 13 c6 ff ff       	callq  92ee <safe_lshift_func_int8_t_s_u>
    ccdb:	66 98                	cbtw   
    ccdd:	66 39 c3             	cmp    %ax,%bx
    cce0:	0f 95 c0             	setne  %al
    cce3:	0f b6 c0             	movzbl %al,%eax
    cce6:	89 85 04 ef ff ff    	mov    %eax,-0x10fc(%rbp)
    ccec:	8b 85 04 ef ff ff    	mov    -0x10fc(%rbp),%eax
    ccf2:	0d 24 e9 44 92       	or     $0x9244e924,%eax
    ccf7:	89 c2                	mov    %eax,%edx
    ccf9:	48 8b 85 c8 ef ff ff 	mov    -0x1038(%rbp),%rax
    cd00:	89 10                	mov    %edx,(%rax)
    cd02:	48 c7 05 fb 57 01 00 	movq   $0x0,0x157fb(%rip)        # 22508 <g_1889>
    cd09:	00 00 00 00 
    cd0d:	e9 a7 08 00 00       	jmpq   d5b9 <func_4+0x2c56>
    cd12:	66 c7 85 ce ee ff ff 	movw   $0xfffe,-0x1132(%rbp)
    cd19:	fe ff 
    cd1b:	c7 85 14 ef ff ff 00 	movl   $0x0,-0x10ec(%rbp)
    cd22:	00 00 00 
    cd25:	48 c7 05 c0 53 01 00 	movq   $0x0,0x153c0(%rip)        # 220f0 <g_247>
    cd2c:	00 00 00 00 
    cd30:	e9 a1 01 00 00       	jmpq   ced6 <func_4+0x2573>
    cd35:	c6 85 c3 ee ff ff fb 	movb   $0xfb,-0x113d(%rbp)
    cd3c:	c6 05 71 53 01 00 06 	movb   $0x6,0x15371(%rip)        # 220b4 <g_127>
    cd43:	e9 6d 01 00 00       	jmpq   ceb5 <func_4+0x2552>
    cd48:	48 b8 31 00 08 e9 00 	movabs $0x10100e9080031,%rax
    cd4f:	01 01 00 
    cd52:	48 89 85 30 f2 ff ff 	mov    %rax,-0xdd0(%rbp)
    cd59:	66 c7 85 38 f2 ff ff 	movw   $0x8e9,-0xdc8(%rbp)
    cd60:	e9 08 
    cd62:	48 b8 01 01 00 e9 08 	movabs $0x6310008e9000101,%rax
    cd69:	00 31 06 
    cd6c:	48 89 85 3a f2 ff ff 	mov    %rax,-0xdc6(%rbp)
    cd73:	66 c7 85 42 f2 ff ff 	movw   $0x31,-0xdbe(%rbp)
    cd7a:	31 00 
    cd7c:	48 b8 2b 00 ff 00 2b 	movabs $0x131a82b00ff002b,%rax
    cd83:	a8 31 01 
    cd86:	48 89 85 44 f2 ff ff 	mov    %rax,-0xdbc(%rbp)
    cd8d:	66 c7 85 4c f2 ff ff 	movw   $0x101,-0xdb4(%rbp)
    cd94:	01 01 
    cd96:	48 b8 e9 01 ff 00 00 	movabs $0xe901ff0000ff01e9,%rax
    cd9d:	ff 01 e9 
    cda0:	48 89 85 4e f2 ff ff 	mov    %rax,-0xdb2(%rbp)
    cda7:	66 c7 85 56 f2 ff ff 	movw   $0x1ff,-0xdaa(%rbp)
    cdae:	ff 01 
    cdb0:	8b 85 ac ee ff ff    	mov    -0x1154(%rbp),%eax
    cdb6:	41 89 c6             	mov    %eax,%r14d
    cdb9:	66 83 bd c6 ee ff ff 	cmpw   $0x0,-0x113a(%rbp)
    cdc0:	00 
    cdc1:	75 0a                	jne    cdcd <func_4+0x246a>
    cdc3:	66 83 bd ce ee ff ff 	cmpw   $0x0,-0x1132(%rbp)
    cdca:	00 
    cdcb:	74 07                	je     cdd4 <func_4+0x2471>
    cdcd:	b8 01 00 00 00       	mov    $0x1,%eax
    cdd2:	eb 05                	jmp    cdd9 <func_4+0x2476>
    cdd4:	b8 00 00 00 00       	mov    $0x0,%eax
    cdd9:	89 c3                	mov    %eax,%ebx
    cddb:	83 e3 01             	and    $0x1,%ebx
    cdde:	44 0f b7 ad ce ee ff 	movzwl -0x1132(%rbp),%r13d
    cde5:	ff 
    cde6:	8b 85 ac ee ff ff    	mov    -0x1154(%rbp),%eax
    cdec:	44 0f be e0          	movsbl %al,%r12d
    cdf0:	0f b7 05 a3 56 01 00 	movzwl 0x156a3(%rip),%eax        # 2249a <g_860>
    cdf7:	66 85 c0             	test   %ax,%ax
    cdfa:	0f 95 c0             	setne  %al
    cdfd:	0f b6 d0             	movzbl %al,%edx
    ce00:	48 8b 85 c8 ef ff ff 	mov    -0x1038(%rbp),%rax
    ce07:	89 10                	mov    %edx,(%rax)
    ce09:	48 8b 85 c8 ef ff ff 	mov    -0x1038(%rbp),%rax
    ce10:	8b 00                	mov    (%rax),%eax
    ce12:	be 01 00 00 00       	mov    $0x1,%esi
    ce17:	89 c7                	mov    %eax,%edi
    ce19:	e8 e7 c7 ff ff       	callq  9605 <safe_sub_func_int32_t_s_s>
    ce1e:	0f be c0             	movsbl %al,%eax
    ce21:	44 89 e6             	mov    %r12d,%esi
    ce24:	89 c7                	mov    %eax,%edi
    ce26:	e8 a9 c3 ff ff       	callq  91d4 <safe_add_func_int8_t_s_s>
    ce2b:	0f be d0             	movsbl %al,%edx
    ce2e:	8b 85 ac ee ff ff    	mov    -0x1154(%rbp),%eax
    ce34:	21 d0                	and    %edx,%eax
    ce36:	41 39 c5             	cmp    %eax,%r13d
    ce39:	0f 9d c0             	setge  %al
    ce3c:	31 d8                	xor    %ebx,%eax
    ce3e:	0f b6 d0             	movzbl %al,%edx
    ce41:	0f b6 85 42 f2 ff ff 	movzbl -0xdbe(%rbp),%eax
    ce48:	66 98                	cbtw   
    ce4a:	21 d0                	and    %edx,%eax
    ce4c:	0f bf d0             	movswl %ax,%edx
    ce4f:	0f b6 8d c3 ee ff ff 	movzbl -0x113d(%rbp),%ecx
    ce56:	8b 85 ac ee ff ff    	mov    -0x1154(%rbp),%eax
    ce5c:	39 c1                	cmp    %eax,%ecx
    ce5e:	0f 9c c0             	setl   %al
    ce61:	0f b6 c0             	movzbl %al,%eax
    ce64:	89 d6                	mov    %edx,%esi
    ce66:	89 c7                	mov    %eax,%edi
    ce68:	e8 88 c5 ff ff       	callq  93f5 <safe_mul_func_int16_t_s_s>
    ce6d:	48 0f bf c0          	movswq %ax,%rax
    ce71:	48 be 8b b5 7a 03 3d 	movabs $0xd9caf03d037ab58b,%rsi
    ce78:	f0 ca d9 
    ce7b:	48 89 c7             	mov    %rax,%rdi
    ce7e:	e8 25 ca ff ff       	callq  98a8 <safe_sub_func_int64_t_s_s>
    ce83:	0f b7 c0             	movzwl %ax,%eax
    ce86:	44 89 f6             	mov    %r14d,%esi
    ce89:	89 c7                	mov    %eax,%edi
    ce8b:	e8 76 cf ff ff       	callq  9e06 <safe_lshift_func_uint16_t_u_u>
    ce90:	0f b7 c0             	movzwl %ax,%eax
    ce93:	89 85 04 ef ff ff    	mov    %eax,-0x10fc(%rbp)
    ce99:	8b 85 04 ef ff ff    	mov    -0x10fc(%rbp),%eax
    ce9f:	89 85 14 ef ff ff    	mov    %eax,-0x10ec(%rbp)
    cea5:	0f b6 05 08 52 01 00 	movzbl 0x15208(%rip),%eax        # 220b4 <g_127>
    ceac:	83 e8 01             	sub    $0x1,%eax
    ceaf:	88 05 ff 51 01 00    	mov    %al,0x151ff(%rip)        # 220b4 <g_127>
    ceb5:	0f b6 05 f8 51 01 00 	movzbl 0x151f8(%rip),%eax        # 220b4 <g_127>
    cebc:	84 c0                	test   %al,%al
    cebe:	0f 89 84 fe ff ff    	jns    cd48 <func_4+0x23e5>
    cec4:	48 8b 05 25 52 01 00 	mov    0x15225(%rip),%rax        # 220f0 <g_247>
    cecb:	48 83 c0 01          	add    $0x1,%rax
    cecf:	48 89 05 1a 52 01 00 	mov    %rax,0x1521a(%rip)        # 220f0 <g_247>
    ced6:	48 8b 05 13 52 01 00 	mov    0x15213(%rip),%rax        # 220f0 <g_247>
    cedd:	48 83 f8 06          	cmp    $0x6,%rax
    cee1:	0f 8e 4e fe ff ff    	jle    cd35 <func_4+0x23d2>
    cee7:	8b 85 ac ee ff ff    	mov    -0x1154(%rbp),%eax
    ceed:	89 85 14 ef ff ff    	mov    %eax,-0x10ec(%rbp)
    cef3:	8b 85 ac ee ff ff    	mov    -0x1154(%rbp),%eax
    cef9:	e9 65 0b 00 00       	jmpq   da63 <func_4+0x3100>
    cefe:	48 8d 05 b3 55 01 00 	lea    0x155b3(%rip),%rax        # 224b8 <g_1012>
    cf05:	48 89 85 40 f0 ff ff 	mov    %rax,-0xfc0(%rbp)
    cf0c:	48 8d 05 5b 90 01 00 	lea    0x1905b(%rip),%rax        # 25f6e <g_432>
    cf13:	48 89 85 30 f2 ff ff 	mov    %rax,-0xdd0(%rbp)
    cf1a:	48 8d 05 4d 90 01 00 	lea    0x1904d(%rip),%rax        # 25f6e <g_432>
    cf21:	48 89 85 38 f2 ff ff 	mov    %rax,-0xdc8(%rbp)
    cf28:	48 8d 05 9a 51 01 00 	lea    0x1519a(%rip),%rax        # 220c9 <g_155+0x9>
    cf2f:	48 89 85 40 f2 ff ff 	mov    %rax,-0xdc0(%rbp)
    cf36:	48 8d 05 84 51 01 00 	lea    0x15184(%rip),%rax        # 220c1 <g_155+0x1>
    cf3d:	48 89 85 48 f2 ff ff 	mov    %rax,-0xdb8(%rbp)
    cf44:	48 8d 05 76 51 01 00 	lea    0x15176(%rip),%rax        # 220c1 <g_155+0x1>
    cf4b:	48 89 85 50 f2 ff ff 	mov    %rax,-0xdb0(%rbp)
    cf52:	48 c7 85 58 f2 ff ff 	movq   $0x0,-0xda8(%rbp)
    cf59:	00 00 00 00 
    cf5d:	48 8d 05 50 51 01 00 	lea    0x15150(%rip),%rax        # 220b4 <g_127>
    cf64:	48 89 85 60 f2 ff ff 	mov    %rax,-0xda0(%rbp)
    cf6b:	48 8d 05 57 51 01 00 	lea    0x15157(%rip),%rax        # 220c9 <g_155+0x9>
    cf72:	48 89 85 68 f2 ff ff 	mov    %rax,-0xd98(%rbp)
    cf79:	48 8d 05 ee 8f 01 00 	lea    0x18fee(%rip),%rax        # 25f6e <g_432>
    cf80:	48 89 85 70 f2 ff ff 	mov    %rax,-0xd90(%rbp)
    cf87:	48 c7 85 78 f2 ff ff 	movq   $0x0,-0xd88(%rbp)
    cf8e:	00 00 00 00 
    cf92:	48 8d 05 d5 8f 01 00 	lea    0x18fd5(%rip),%rax        # 25f6e <g_432>
    cf99:	48 89 85 80 f2 ff ff 	mov    %rax,-0xd80(%rbp)
    cfa0:	48 8d 05 22 51 01 00 	lea    0x15122(%rip),%rax        # 220c9 <g_155+0x9>
    cfa7:	48 89 85 88 f2 ff ff 	mov    %rax,-0xd78(%rbp)
    cfae:	48 8d 05 0c 51 01 00 	lea    0x1510c(%rip),%rax        # 220c1 <g_155+0x1>
    cfb5:	48 89 85 90 f2 ff ff 	mov    %rax,-0xd70(%rbp)
    cfbc:	48 8d 05 f1 50 01 00 	lea    0x150f1(%rip),%rax        # 220b4 <g_127>
    cfc3:	48 89 85 98 f2 ff ff 	mov    %rax,-0xd68(%rbp)
    cfca:	48 8d 05 9d 8f 01 00 	lea    0x18f9d(%rip),%rax        # 25f6e <g_432>
    cfd1:	48 89 85 a0 f2 ff ff 	mov    %rax,-0xd60(%rbp)
    cfd8:	48 8d 05 d5 50 01 00 	lea    0x150d5(%rip),%rax        # 220b4 <g_127>
    cfdf:	48 89 85 a8 f2 ff ff 	mov    %rax,-0xd58(%rbp)
    cfe6:	48 8d 05 81 8f 01 00 	lea    0x18f81(%rip),%rax        # 25f6e <g_432>
    cfed:	48 89 85 b0 f2 ff ff 	mov    %rax,-0xd50(%rbp)
    cff4:	48 c7 85 b8 f2 ff ff 	movq   $0x0,-0xd48(%rbp)
    cffb:	00 00 00 00 
    cfff:	48 8d 05 bf 50 01 00 	lea    0x150bf(%rip),%rax        # 220c5 <g_155+0x5>
    d006:	48 89 85 c0 f2 ff ff 	mov    %rax,-0xd40(%rbp)
    d00d:	48 8d 05 a0 50 01 00 	lea    0x150a0(%rip),%rax        # 220b4 <g_127>
    d014:	48 89 85 c8 f2 ff ff 	mov    %rax,-0xd38(%rbp)
    d01b:	48 8d 05 a7 50 01 00 	lea    0x150a7(%rip),%rax        # 220c9 <g_155+0x9>
    d022:	48 89 85 d0 f2 ff ff 	mov    %rax,-0xd30(%rbp)
    d029:	48 8d 05 99 50 01 00 	lea    0x15099(%rip),%rax        # 220c9 <g_155+0x9>
    d030:	48 89 85 d8 f2 ff ff 	mov    %rax,-0xd28(%rbp)
    d037:	48 8d 05 76 50 01 00 	lea    0x15076(%rip),%rax        # 220b4 <g_127>
    d03e:	48 89 85 e0 f2 ff ff 	mov    %rax,-0xd20(%rbp)
    d045:	48 8d 05 79 50 01 00 	lea    0x15079(%rip),%rax        # 220c5 <g_155+0x5>
    d04c:	48 89 85 e8 f2 ff ff 	mov    %rax,-0xd18(%rbp)
    d053:	c7 85 18 ef ff ff ff 	movl   $0xffffffff,-0x10e8(%rbp)
    d05a:	ff ff ff 
    d05d:	c7 85 f0 f0 ff ff da 	movl   $0x75451eda,-0xf10(%rbp)
    d064:	1e 45 75 
    d067:	c7 85 f4 f0 ff ff da 	movl   $0x75451eda,-0xf0c(%rbp)
    d06e:	1e 45 75 
    d071:	c7 85 f8 f0 ff ff da 	movl   $0x75451eda,-0xf08(%rbp)
    d078:	1e 45 75 
    d07b:	c7 85 fc f0 ff ff da 	movl   $0x75451eda,-0xf04(%rbp)
    d082:	1e 45 75 
    d085:	c7 85 00 f1 ff ff da 	movl   $0x75451eda,-0xf00(%rbp)
    d08c:	1e 45 75 
    d08f:	c7 85 04 f1 ff ff da 	movl   $0x75451eda,-0xefc(%rbp)
    d096:	1e 45 75 
    d099:	c7 85 08 f1 ff ff da 	movl   $0x75451eda,-0xef8(%rbp)
    d0a0:	1e 45 75 
    d0a3:	c7 85 e0 ee ff ff 01 	movl   $0x1,-0x1120(%rbp)
    d0aa:	00 00 00 
    d0ad:	48 8d 85 d0 ee ff ff 	lea    -0x1130(%rbp),%rax
    d0b4:	48 89 85 48 f0 ff ff 	mov    %rax,-0xfb8(%rbp)
    d0bb:	8b 05 ff 53 01 00    	mov    0x153ff(%rip),%eax        # 224c0 <g_1164>
    d0c1:	88 85 c2 ee ff ff    	mov    %al,-0x113e(%rbp)
    d0c7:	0f b6 95 c2 ee ff ff 	movzbl -0x113e(%rbp),%edx
    d0ce:	48 8b 85 40 f0 ff ff 	mov    -0xfc0(%rbp),%rax
    d0d5:	89 10                	mov    %edx,(%rax)
    d0d7:	48 8b 85 40 f0 ff ff 	mov    -0xfc0(%rbp),%rax
    d0de:	8b 00                	mov    (%rax),%eax
    d0e0:	89 c0                	mov    %eax,%eax
    d0e2:	48 39 85 18 f0 ff ff 	cmp    %rax,-0xfe8(%rbp)
    d0e9:	75 5e                	jne    d149 <func_4+0x27e6>
    d0eb:	8b 85 08 ef ff ff    	mov    -0x10f8(%rbp),%eax
    d0f1:	0f bf d0             	movswl %ax,%edx
    d0f4:	8b 05 92 24 01 00    	mov    0x12492(%rip),%eax        # 1f58c <l_2376.4322+0xc>
    d0fa:	39 85 f0 ee ff ff    	cmp    %eax,-0x1110(%rbp)
    d100:	0f 9d c1             	setge  %cl
    d103:	8b 85 ac ee ff ff    	mov    -0x1154(%rbp),%eax
    d109:	85 c0                	test   %eax,%eax
    d10b:	0f 95 c0             	setne  %al
    d10e:	09 c8                	or     %ecx,%eax
    d110:	0f b6 c0             	movzbl %al,%eax
    d113:	8b 8d ac ee ff ff    	mov    -0x1154(%rbp),%ecx
    d119:	21 c8                	and    %ecx,%eax
    d11b:	98                   	cwtl   
    d11c:	89 d6                	mov    %edx,%esi
    d11e:	89 c7                	mov    %eax,%edi
    d120:	e8 d0 c2 ff ff       	callq  93f5 <safe_mul_func_int16_t_s_s>
    d125:	48 8b 85 c8 ef ff ff 	mov    -0x1038(%rbp),%rax
    d12c:	c7 00 01 00 00 00    	movl   $0x1,(%rax)
    d132:	48 8b 85 c8 ef ff ff 	mov    -0x1038(%rbp),%rax
    d139:	8b 10                	mov    (%rax),%edx
    d13b:	8b 85 ac ee ff ff    	mov    -0x1154(%rbp),%eax
    d141:	39 c2                	cmp    %eax,%edx
    d143:	0f 8d 86 02 00 00    	jge    d3cf <func_4+0x2a6c>
    d149:	66 c7 85 c6 f0 ff ff 	movw   $0xfffa,-0xf3a(%rbp)
    d150:	fa ff 
    d152:	66 c7 85 c8 f0 ff ff 	movw   $0xfffa,-0xf38(%rbp)
    d159:	fa ff 
    d15b:	66 c7 85 ca f0 ff ff 	movw   $0xfffa,-0xf36(%rbp)
    d162:	fa ff 
    d164:	66 c7 85 cc f0 ff ff 	movw   $0xfffa,-0xf34(%rbp)
    d16b:	fa ff 
    d16d:	66 c7 85 ce f0 ff ff 	movw   $0xfffa,-0xf32(%rbp)
    d174:	fa ff 
    d176:	c7 85 1c ef ff ff 87 	movl   $0x74d0f287,-0x10e4(%rbp)
    d17d:	f2 d0 74 
    d180:	c7 85 20 ef ff ff ff 	movl   $0xffffffff,-0x10e0(%rbp)
    d187:	ff ff ff 
    d18a:	c7 85 24 ef ff ff 00 	movl   $0x0,-0x10dc(%rbp)
    d191:	00 00 00 
    d194:	c7 85 28 ef ff ff fb 	movl   $0xfffffffb,-0x10d8(%rbp)
    d19b:	ff ff ff 
    d19e:	c7 85 c0 f1 ff ff 01 	movl   $0x1,-0xe40(%rbp)
    d1a5:	00 00 00 
    d1a8:	c7 85 c4 f1 ff ff 01 	movl   $0x1,-0xe3c(%rbp)
    d1af:	00 00 00 
    d1b2:	c7 85 c8 f1 ff ff 01 	movl   $0x1,-0xe38(%rbp)
    d1b9:	00 00 00 
    d1bc:	c7 85 cc f1 ff ff 01 	movl   $0x1,-0xe34(%rbp)
    d1c3:	00 00 00 
    d1c6:	c6 85 c4 ee ff ff 01 	movb   $0x1,-0x113c(%rbp)
    d1cd:	c7 85 2c ef ff ff f2 	movl   $0x426568f2,-0x10d4(%rbp)
    d1d4:	68 65 42 
    d1d7:	66 c7 85 cc f0 ff ff 	movw   $0xa,-0xf34(%rbp)
    d1de:	0a 00 
    d1e0:	48 8b 05 11 79 01 00 	mov    0x17911(%rip),%rax        # 24af8 <g_654>
    d1e7:	48 8b 00             	mov    (%rax),%rax
    d1ea:	0f b6 00             	movzbl (%rax),%eax
    d1ed:	0f b6 c0             	movzbl %al,%eax
    d1f0:	83 e0 44             	and    $0x44,%eax
    d1f3:	48 85 c0             	test   %rax,%rax
    d1f6:	74 1c                	je     d214 <func_4+0x28b1>
    d1f8:	c6 85 c5 ee ff ff 06 	movb   $0x6,-0x113b(%rbp)
    d1ff:	0f b6 85 c5 ee ff ff 	movzbl -0x113b(%rbp),%eax
    d206:	83 c0 01             	add    $0x1,%eax
    d209:	88 85 c5 ee ff ff    	mov    %al,-0x113b(%rbp)
    d20f:	e9 5f 01 00 00       	jmpq   d373 <func_4+0x2a10>
    d214:	48 8d 85 98 ef ff ff 	lea    -0x1068(%rbp),%rax
    d21b:	48 89 85 50 f0 ff ff 	mov    %rax,-0xfb0(%rbp)
    d222:	48 8b 05 27 83 01 00 	mov    0x18327(%rip),%rax        # 25550 <g_1787>
    d229:	48 8d 95 ac ee ff ff 	lea    -0x1154(%rbp),%rdx
    d230:	48 89 10             	mov    %rdx,(%rax)
    d233:	48 8b 05 6e 86 01 00 	mov    0x1866e(%rip),%rax        # 258a8 <g_2055>
    d23a:	8b 00                	mov    (%rax),%eax
    d23c:	85 c0                	test   %eax,%eax
    d23e:	0f 85 88 03 00 00    	jne    d5cc <func_4+0x2c69>
    d244:	0f b7 85 cc f0 ff ff 	movzwl -0xf34(%rbp),%eax
    d24b:	0f bf d0             	movswl %ax,%edx
    d24e:	48 83 bd 28 f0 ff ff 	cmpq   $0x0,-0xfd8(%rbp)
    d255:	00 
    d256:	0f 95 c0             	setne  %al
    d259:	0f b6 c0             	movzbl %al,%eax
    d25c:	39 c2                	cmp    %eax,%edx
    d25e:	0f 9c c0             	setl   %al
    d261:	0f b6 c8             	movzbl %al,%ecx
    d264:	48 8b 05 85 7a 01 00 	mov    0x17a85(%rip),%rax        # 24cf0 <g_1216>
    d26b:	48 8b 10             	mov    (%rax),%rdx
    d26e:	48 8b 05 73 7a 01 00 	mov    0x17a73(%rip),%rax        # 24ce8 <g_1217>
    d275:	0f b7 12             	movzwl (%rdx),%edx
    d278:	66 89 10             	mov    %dx,(%rax)
    d27b:	0f b7 00             	movzwl (%rax),%eax
    d27e:	98                   	cwtl   
    d27f:	31 c1                	xor    %eax,%ecx
    d281:	89 ce                	mov    %ecx,%esi
    d283:	48 8b 05 3e 86 01 00 	mov    0x1863e(%rip),%rax        # 258c8 <g_2226>
    d28a:	48 8b 00             	mov    (%rax),%rax
    d28d:	48 8b 08             	mov    (%rax),%rcx
    d290:	48 8b 95 98 ef ff ff 	mov    -0x1068(%rbp),%rdx
    d297:	48 8b 85 50 f0 ff ff 	mov    -0xfb0(%rbp),%rax
    d29e:	48 89 10             	mov    %rdx,(%rax)
    d2a1:	48 8b 85 50 f0 ff ff 	mov    -0xfb0(%rbp),%rax
    d2a8:	48 8b 00             	mov    (%rax),%rax
    d2ab:	48 39 c1             	cmp    %rax,%rcx
    d2ae:	0f 95 c0             	setne  %al
    d2b1:	0f b6 c0             	movzbl %al,%eax
    d2b4:	39 c6                	cmp    %eax,%esi
    d2b6:	0f 85 a2 00 00 00    	jne    d35e <func_4+0x29fb>
    d2bc:	8b 85 ac ee ff ff    	mov    -0x1154(%rbp),%eax
    d2c2:	0f b6 d8             	movzbl %al,%ebx
    d2c5:	44 0f b7 a5 cc ee ff 	movzwl -0x1134(%rbp),%r12d
    d2cc:	ff 
    d2cd:	8b 05 b9 22 01 00    	mov    0x122b9(%rip),%eax        # 1f58c <l_2376.4322+0xc>
    d2d3:	0f b6 d0             	movzbl %al,%edx
    d2d6:	48 8b 05 eb 85 01 00 	mov    0x185eb(%rip),%rax        # 258c8 <g_2226>
    d2dd:	48 8b 00             	mov    (%rax),%rax
    d2e0:	48 8b 00             	mov    (%rax),%rax
    d2e3:	48 8b 00             	mov    (%rax),%rax
    d2e6:	48 8b 00             	mov    (%rax),%rax
    d2e9:	0f b7 00             	movzwl (%rax),%eax
    d2ec:	98                   	cwtl   
    d2ed:	0b 85 1c ef ff ff    	or     -0x10e4(%rbp),%eax
    d2f3:	89 c1                	mov    %eax,%ecx
    d2f5:	0f b6 85 c0 ee ff ff 	movzbl -0x1140(%rbp),%eax
    d2fc:	0f b6 c0             	movzbl %al,%eax
    d2ff:	39 c1                	cmp    %eax,%ecx
    d301:	0f 9d c0             	setge  %al
    d304:	0f b6 c0             	movzbl %al,%eax
    d307:	89 d6                	mov    %edx,%esi
    d309:	89 c7                	mov    %eax,%edi
    d30b:	e8 cb c8 ff ff       	callq  9bdb <safe_div_func_uint8_t_u_u>
    d310:	48 8b 05 a1 85 01 00 	mov    0x185a1(%rip),%rax        # 258b8 <g_2228>
    d317:	48 8b 00             	mov    (%rax),%rax
    d31a:	48 8b 00             	mov    (%rax),%rax
    d31d:	0f b7 00             	movzwl (%rax),%eax
    d320:	98                   	cwtl   
    d321:	44 89 e6             	mov    %r12d,%esi
    d324:	89 c7                	mov    %eax,%edi
    d326:	e8 67 c1 ff ff       	callq  9492 <safe_lshift_func_int16_t_s_s>
    d32b:	bf 01 00 00 00       	mov    $0x1,%edi
    d330:	e8 8a be ff ff       	callq  91bf <safe_unary_minus_func_int8_t_s>
    d335:	84 c0                	test   %al,%al
    d337:	74 07                	je     d340 <func_4+0x29dd>
    d339:	b8 01 00 00 00       	mov    $0x1,%eax
    d33e:	eb 05                	jmp    d345 <func_4+0x29e2>
    d340:	b8 00 00 00 00       	mov    $0x0,%eax
    d345:	0f b6 c0             	movzbl %al,%eax
    d348:	89 de                	mov    %ebx,%esi
    d34a:	89 c7                	mov    %eax,%edi
    d34c:	e8 42 c8 ff ff       	callq  9b93 <safe_mul_func_uint8_t_u_u>
    d351:	0f b6 d0             	movzbl %al,%edx
    d354:	8b 85 ac ee ff ff    	mov    -0x1154(%rbp),%eax
    d35a:	39 c2                	cmp    %eax,%edx
    d35c:	7f 07                	jg     d365 <func_4+0x2a02>
    d35e:	ba 01 00 00 00       	mov    $0x1,%edx
    d363:	eb 05                	jmp    d36a <func_4+0x2a07>
    d365:	ba 00 00 00 00       	mov    $0x0,%edx
    d36a:	48 8b 85 c8 ef ff ff 	mov    -0x1038(%rbp),%rax
    d371:	89 10                	mov    %edx,(%rax)
    d373:	66 c7 05 14 4d 01 00 	movw   $0x2,0x14d14(%rip)        # 22090 <g_50>
    d37a:	02 00 
    d37c:	eb 40                	jmp    d3be <func_4+0x2a5b>
    d37e:	c7 85 30 ef ff ff 00 	movl   $0x0,-0x10d0(%rbp)
    d385:	00 00 00 
    d388:	c7 85 34 ef ff ff 00 	movl   $0x0,-0x10cc(%rbp)
    d38f:	00 00 00 
    d392:	c7 85 38 ef ff ff 29 	movl   $0x72cb0c29,-0x10c8(%rbp)
    d399:	0c cb 72 
    d39c:	c7 85 3c ef ff ff 01 	movl   $0x1,-0x10c4(%rbp)
    d3a3:	00 00 00 
    d3a6:	83 85 e0 ee ff ff 01 	addl   $0x1,-0x1120(%rbp)
    d3ad:	0f b7 05 dc 4c 01 00 	movzwl 0x14cdc(%rip),%eax        # 22090 <g_50>
    d3b4:	83 e8 01             	sub    $0x1,%eax
    d3b7:	66 89 05 d2 4c 01 00 	mov    %ax,0x14cd2(%rip)        # 22090 <g_50>
    d3be:	0f b7 05 cb 4c 01 00 	movzwl 0x14ccb(%rip),%eax        # 22090 <g_50>
    d3c5:	66 85 c0             	test   %ax,%ax
    d3c8:	79 b4                	jns    d37e <func_4+0x2a1b>
    d3ca:	e9 cb 01 00 00       	jmpq   d59a <func_4+0x2c37>
    d3cf:	c7 85 c0 f1 ff ff ef 	movl   $0xc8a626ef,-0xe40(%rbp)
    d3d6:	26 a6 c8 
    d3d9:	c7 85 c4 f1 ff ff 89 	movl   $0x46e9e289,-0xe3c(%rbp)
    d3e0:	e2 e9 46 
    d3e3:	c7 85 c8 f1 ff ff ef 	movl   $0xc8a626ef,-0xe38(%rbp)
    d3ea:	26 a6 c8 
    d3ed:	c7 85 cc f1 ff ff ef 	movl   $0xc8a626ef,-0xe34(%rbp)
    d3f4:	26 a6 c8 
    d3f7:	c7 85 d0 f1 ff ff 89 	movl   $0x46e9e289,-0xe30(%rbp)
    d3fe:	e2 e9 46 
    d401:	c7 85 d4 f1 ff ff ef 	movl   $0xc8a626ef,-0xe2c(%rbp)
    d408:	26 a6 c8 
    d40b:	c7 85 d8 f1 ff ff ef 	movl   $0xc8a626ef,-0xe28(%rbp)
    d412:	26 a6 c8 
    d415:	c7 85 dc f1 ff ff 89 	movl   $0x46e9e289,-0xe24(%rbp)
    d41c:	e2 e9 46 
    d41f:	c7 85 e0 f1 ff ff ef 	movl   $0xc8a626ef,-0xe20(%rbp)
    d426:	26 a6 c8 
    d429:	c7 85 e4 f1 ff ff ef 	movl   $0xc8a626ef,-0xe1c(%rbp)
    d430:	26 a6 c8 
    d433:	c7 85 e8 f1 ff ff 89 	movl   $0x46e9e289,-0xe18(%rbp)
    d43a:	e2 e9 46 
    d43d:	c7 85 ec f1 ff ff ef 	movl   $0xc8a626ef,-0xe14(%rbp)
    d444:	26 a6 c8 
    d447:	c7 85 f0 f1 ff ff ef 	movl   $0xc8a626ef,-0xe10(%rbp)
    d44e:	26 a6 c8 
    d451:	c7 85 f4 f1 ff ff 89 	movl   $0x46e9e289,-0xe0c(%rbp)
    d458:	e2 e9 46 
    d45b:	c7 85 f8 f1 ff ff ef 	movl   $0xc8a626ef,-0xe08(%rbp)
    d462:	26 a6 c8 
    d465:	c7 85 fc f1 ff ff ef 	movl   $0xc8a626ef,-0xe04(%rbp)
    d46c:	26 a6 c8 
    d46f:	c7 85 00 f2 ff ff 89 	movl   $0x46e9e289,-0xe00(%rbp)
    d476:	e2 e9 46 
    d479:	c7 85 04 f2 ff ff ef 	movl   $0xc8a626ef,-0xdfc(%rbp)
    d480:	26 a6 c8 
    d483:	c7 85 08 f2 ff ff ef 	movl   $0xc8a626ef,-0xdf8(%rbp)
    d48a:	26 a6 c8 
    d48d:	c7 85 0c f2 ff ff 89 	movl   $0x46e9e289,-0xdf4(%rbp)
    d494:	e2 e9 46 
    d497:	c7 85 10 f2 ff ff ef 	movl   $0xc8a626ef,-0xdf0(%rbp)
    d49e:	26 a6 c8 
    d4a1:	c7 85 14 f2 ff ff ef 	movl   $0xc8a626ef,-0xdec(%rbp)
    d4a8:	26 a6 c8 
    d4ab:	c7 85 18 f2 ff ff 89 	movl   $0x46e9e289,-0xde8(%rbp)
    d4b2:	e2 e9 46 
    d4b5:	c7 85 1c f2 ff ff ef 	movl   $0xc8a626ef,-0xde4(%rbp)
    d4bc:	26 a6 c8 
    d4bf:	c7 85 20 f2 ff ff ef 	movl   $0xc8a626ef,-0xde0(%rbp)
    d4c6:	26 a6 c8 
    d4c9:	c7 85 24 f2 ff ff 89 	movl   $0x46e9e289,-0xddc(%rbp)
    d4d0:	e2 e9 46 
    d4d3:	c7 85 28 f2 ff ff ef 	movl   $0xc8a626ef,-0xdd8(%rbp)
    d4da:	26 a6 c8 
    d4dd:	48 c7 05 e8 4b 01 00 	movq   $0x0,0x14be8(%rip)        # 220d0 <g_164>
    d4e4:	00 00 00 00 
    d4e8:	eb 3a                	jmp    d524 <func_4+0x2bc1>
    d4ea:	be 0a 00 00 00       	mov    $0xa,%esi
    d4ef:	bf 00 00 00 00       	mov    $0x0,%edi
    d4f4:	e8 e8 bf ff ff       	callq  94e1 <safe_lshift_func_int16_t_s_u>
    d4f9:	0f bf d0             	movswl %ax,%edx
    d4fc:	48 8b 85 c8 ef ff ff 	mov    -0x1038(%rbp),%rax
    d503:	89 10                	mov    %edx,(%rax)
    d505:	48 8b 05 c4 4b 01 00 	mov    0x14bc4(%rip),%rax        # 220d0 <g_164>
    d50c:	98                   	cwtl   
    d50d:	be 09 00 00 00       	mov    $0x9,%esi
    d512:	89 c7                	mov    %eax,%edi
    d514:	e8 9a be ff ff       	callq  93b3 <safe_add_func_int16_t_s_s>
    d519:	48 0f bf c0          	movswq %ax,%rax
    d51d:	48 89 05 ac 4b 01 00 	mov    %rax,0x14bac(%rip)        # 220d0 <g_164>
    d524:	48 8b 05 a5 4b 01 00 	mov    0x14ba5(%rip),%rax        # 220d0 <g_164>
    d52b:	48 83 f8 1a          	cmp    $0x1a,%rax
    d52f:	76 b9                	jbe    d4ea <func_4+0x2b87>
    d531:	c7 05 7d 4f 01 00 fa 	movl   $0xfffffffa,0x14f7d(%rip)        # 224b8 <g_1012>
    d538:	ff ff ff 
    d53b:	eb 4f                	jmp    d58c <func_4+0x2c29>
    d53d:	0f b7 05 e4 4f 01 00 	movzwl 0x14fe4(%rip),%eax        # 22528 <g_2426>
    d544:	83 c0 01             	add    $0x1,%eax
    d547:	66 89 05 da 4f 01 00 	mov    %ax,0x14fda(%rip)        # 22528 <g_2426>
    d54e:	48 8b 05 cb 85 01 00 	mov    0x185cb(%rip),%rax        # 25b20 <g_2305>
    d555:	48 8d 95 f0 f2 ff ff 	lea    -0xd10(%rbp),%rdx
    d55c:	48 83 c2 40          	add    $0x40,%rdx
    d560:	48 89 10             	mov    %rdx,(%rax)
    d563:	83 bd 18 ef ff ff 00 	cmpl   $0x0,-0x10e8(%rbp)
    d56a:	75 2d                	jne    d599 <func_4+0x2c36>
    d56c:	48 8b 05 2d 76 01 00 	mov    0x1762d(%rip),%rax        # 24ba0 <g_1046>
    d573:	48 8b 00             	mov    (%rax),%rax
    d576:	48 89 85 48 f0 ff ff 	mov    %rax,-0xfb8(%rbp)
    d57d:	8b 05 35 4f 01 00    	mov    0x14f35(%rip),%eax        # 224b8 <g_1012>
    d583:	83 c0 01             	add    $0x1,%eax
    d586:	89 05 2c 4f 01 00    	mov    %eax,0x14f2c(%rip)        # 224b8 <g_1012>
    d58c:	8b 05 26 4f 01 00    	mov    0x14f26(%rip),%eax        # 224b8 <g_1012>
    d592:	83 f8 22             	cmp    $0x22,%eax
    d595:	75 a6                	jne    d53d <func_4+0x2bda>
    d597:	eb 01                	jmp    d59a <func_4+0x2c37>
    d599:	90                   	nop
    d59a:	48 8b 05 67 4f 01 00 	mov    0x14f67(%rip),%rax        # 22508 <g_1889>
    d5a1:	98                   	cwtl   
    d5a2:	be 02 00 00 00       	mov    $0x2,%esi
    d5a7:	89 c7                	mov    %eax,%edi
    d5a9:	e8 05 be ff ff       	callq  93b3 <safe_add_func_int16_t_s_s>
    d5ae:	48 0f bf c0          	movswq %ax,%rax
    d5b2:	48 89 05 4f 4f 01 00 	mov    %rax,0x14f4f(%rip)        # 22508 <g_1889>
    d5b9:	48 8b 05 48 4f 01 00 	mov    0x14f48(%rip),%rax        # 22508 <g_1889>
    d5c0:	48 83 f8 10          	cmp    $0x10,%rax
    d5c4:	0f 85 34 f9 ff ff    	jne    cefe <func_4+0x259b>
    d5ca:	eb 01                	jmp    d5cd <func_4+0x2c6a>
    d5cc:	90                   	nop
    d5cd:	8b 85 ac ee ff ff    	mov    -0x1154(%rbp),%eax
    d5d3:	be 05 00 00 00       	mov    $0x5,%esi
    d5d8:	89 c7                	mov    %eax,%edi
    d5da:	e8 f1 c8 ff ff       	callq  9ed0 <safe_sub_func_uint32_t_u_u>
    d5df:	89 85 ac ee ff ff    	mov    %eax,-0x1154(%rbp)
    d5e5:	8b 85 ac ee ff ff    	mov    -0x1154(%rbp),%eax
    d5eb:	85 c0                	test   %eax,%eax
    d5ed:	0f 89 14 e5 ff ff    	jns    bb07 <func_4+0x11a4>
    d5f3:	90                   	nop
    d5f4:	48 8b 05 cd 74 01 00 	mov    0x174cd(%rip),%rax        # 24ac8 <g_411>
    d5fb:	0f b7 18             	movzwl (%rax),%ebx
    d5fe:	48 8d 05 93 84 01 00 	lea    0x18493(%rip),%rax        # 25a98 <g_2273>
    d605:	48 89 85 30 f7 ff ff 	mov    %rax,-0x8d0(%rbp)
    d60c:	48 8b 05 f5 74 01 00 	mov    0x174f5(%rip),%rax        # 24b08 <g_714>
    d613:	48 8b 00             	mov    (%rax),%rax
    d616:	0f b7 00             	movzwl (%rax),%eax
    d619:	0f b7 d0             	movzwl %ax,%edx
    d61c:	48 8b 05 e5 6c 01 00 	mov    0x16ce5(%rip),%rax        # 24308 <g_198>
    d623:	0f b7 00             	movzwl (%rax),%eax
    d626:	0f b7 c0             	movzwl %ax,%eax
    d629:	89 d6                	mov    %edx,%esi
    d62b:	89 c7                	mov    %eax,%edi
    d62d:	e8 0b c7 ff ff       	callq  9d3d <safe_mul_func_uint16_t_u_u>
    d632:	0f b7 d0             	movzwl %ax,%edx
    d635:	48 8b 05 c4 74 01 00 	mov    0x174c4(%rip),%rax        # 24b00 <g_715>
    d63c:	0f b7 00             	movzwl (%rax),%eax
    d63f:	0f b7 c0             	movzwl %ax,%eax
    d642:	89 d6                	mov    %edx,%esi
    d644:	89 c7                	mov    %eax,%edi
    d646:	e8 b4 c6 ff ff       	callq  9cff <safe_add_func_uint16_t_u_u>
    d64b:	0f b7 c0             	movzwl %ax,%eax
    d64e:	be 0c 00 00 00       	mov    $0xc,%esi
    d653:	89 c7                	mov    %eax,%edi
    d655:	e8 ac c7 ff ff       	callq  9e06 <safe_lshift_func_uint16_t_u_u>
    d65a:	c7 85 10 f1 ff ff 00 	movl   $0x0,-0xef0(%rbp)
    d661:	00 00 00 
    d664:	8b 85 10 f1 ff ff    	mov    -0xef0(%rbp),%eax
    d66a:	83 f8 74             	cmp    $0x74,%eax
    d66d:	0f 9e c0             	setle  %al
    d670:	0f b6 c0             	movzbl %al,%eax
    d673:	be fe bb 00 00       	mov    $0xbbfe,%esi
    d678:	89 c7                	mov    %eax,%edi
    d67a:	e8 0f c7 ff ff       	callq  9d8e <safe_div_func_uint16_t_u_u>
    d67f:	0f b7 c0             	movzwl %ax,%eax
    d682:	48 39 85 18 f0 ff ff 	cmp    %rax,-0xfe8(%rbp)
    d689:	0f 92 c0             	setb   %al
    d68c:	0f b6 d0             	movzbl %al,%edx
    d68f:	48 8b 85 c8 ef ff ff 	mov    -0x1038(%rbp),%rax
    d696:	8b 00                	mov    (%rax),%eax
    d698:	21 d0                	and    %edx,%eax
    d69a:	85 c0                	test   %eax,%eax
    d69c:	74 07                	je     d6a5 <func_4+0x2d42>
    d69e:	b8 01 00 00 00       	mov    $0x1,%eax
    d6a3:	eb 05                	jmp    d6aa <func_4+0x2d47>
    d6a5:	b8 00 00 00 00       	mov    $0x0,%eax
    d6aa:	83 f8 01             	cmp    $0x1,%eax
    d6ad:	7e 07                	jle    d6b6 <func_4+0x2d53>
    d6af:	ba 01 00 00 00       	mov    $0x1,%edx
    d6b4:	eb 05                	jmp    d6bb <func_4+0x2d58>
    d6b6:	ba 00 00 00 00       	mov    $0x0,%edx
    d6bb:	48 8b 05 26 76 01 00 	mov    0x17626(%rip),%rax        # 24ce8 <g_1217>
    d6c2:	66 89 10             	mov    %dx,(%rax)
    d6c5:	0f b7 00             	movzwl (%rax),%eax
    d6c8:	66 39 c3             	cmp    %ax,%bx
    d6cb:	0f 9f c0             	setg   %al
    d6ce:	0f b6 d0             	movzbl %al,%edx
    d6d1:	8b 05 cd 49 01 00    	mov    0x149cd(%rip),%eax        # 220a4 <g_88>
    d6d7:	31 d0                	xor    %edx,%eax
    d6d9:	89 05 c5 49 01 00    	mov    %eax,0x149c5(%rip)        # 220a4 <g_88>
    d6df:	66 c7 05 fe 4d 01 00 	movw   $0x0,0x14dfe(%rip)        # 224e6 <g_1654>
    d6e6:	00 00 
    d6e8:	90                   	nop
    d6e9:	0f b7 05 f6 4d 01 00 	movzwl 0x14df6(%rip),%eax        # 224e6 <g_1654>
    d6f0:	66 83 f8 04          	cmp    $0x4,%ax
    d6f4:	7f 26                	jg     d71c <func_4+0x2db9>
    d6f6:	c7 85 40 ef ff ff 48 	movl   $0x132ef348,-0x10c0(%rbp)
    d6fd:	f3 2e 13 
    d700:	0f b7 05 93 4d 01 00 	movzwl 0x14d93(%rip),%eax        # 2249a <g_860>
    d707:	66 85 c0             	test   %ax,%ax
    d70a:	74 05                	je     d711 <func_4+0x2dae>
    d70c:	e9 e3 fe ff ff       	jmpq   d5f4 <func_4+0x2c91>
    d711:	8b 85 40 ef ff ff    	mov    -0x10c0(%rbp),%eax
    d717:	e9 47 03 00 00       	jmpq   da63 <func_4+0x3100>
    d71c:	48 8b 05 fd 6b 01 00 	mov    0x16bfd(%rip),%rax        # 24320 <g_214>
    d723:	48 8b 00             	mov    (%rax),%rax
    d726:	8b 10                	mov    (%rax),%edx
    d728:	48 8b 85 c8 ef ff ff 	mov    -0x1038(%rbp),%rax
    d72f:	8b 00                	mov    (%rax),%eax
    d731:	09 c2                	or     %eax,%edx
    d733:	48 8b 85 c8 ef ff ff 	mov    -0x1038(%rbp),%rax
    d73a:	89 10                	mov    %edx,(%rax)
    d73c:	48 8b 85 c8 ef ff ff 	mov    -0x1038(%rbp),%rax
    d743:	8b 10                	mov    (%rax),%edx
    d745:	8b 05 a5 4d 01 00    	mov    0x14da5(%rip),%eax        # 224f0 <g_1782>
    d74b:	31 d0                	xor    %edx,%eax
    d74d:	89 05 9d 4d 01 00    	mov    %eax,0x14d9d(%rip)        # 224f0 <g_1782>
    d753:	8b 85 ac ee ff ff    	mov    -0x1154(%rbp),%eax
    d759:	0f bf d8             	movswl %ax,%ebx
    d75c:	48 8b 85 a0 ef ff ff 	mov    -0x1060(%rbp),%rax
    d763:	48 85 c0             	test   %rax,%rax
    d766:	0f 95 c0             	setne  %al
    d769:	44 0f b6 e0          	movzbl %al,%r12d
    d76d:	8b 85 ac ee ff ff    	mov    -0x1154(%rbp),%eax
    d773:	98                   	cwtl   
    d774:	be d6 98 ff ff       	mov    $0xffff98d6,%esi
    d779:	89 c7                	mov    %eax,%edi
    d77b:	e8 53 bc ff ff       	callq  93d3 <safe_sub_func_int16_t_s_s>
    d780:	98                   	cwtl   
    d781:	41 39 c4             	cmp    %eax,%r12d
    d784:	0f 95 c0             	setne  %al
    d787:	0f b6 d0             	movzbl %al,%edx
    d78a:	8b 85 ac ee ff ff    	mov    -0x1154(%rbp),%eax
    d790:	39 c2                	cmp    %eax,%edx
    d792:	74 14                	je     d7a8 <func_4+0x2e45>
    d794:	48 8b 85 c8 ef ff ff 	mov    -0x1038(%rbp),%rax
    d79b:	8b 00                	mov    (%rax),%eax
    d79d:	85 c0                	test   %eax,%eax
    d79f:	74 07                	je     d7a8 <func_4+0x2e45>
    d7a1:	b8 01 00 00 00       	mov    $0x1,%eax
    d7a6:	eb 05                	jmp    d7ad <func_4+0x2e4a>
    d7a8:	b8 00 00 00 00       	mov    $0x0,%eax
    d7ad:	83 f8 ff             	cmp    $0xffffffff,%eax
    d7b0:	0f 95 c0             	setne  %al
    d7b3:	0f b6 d0             	movzbl %al,%edx
    d7b6:	8b 85 ac ee ff ff    	mov    -0x1154(%rbp),%eax
    d7bc:	0f be c0             	movsbl %al,%eax
    d7bf:	89 d6                	mov    %edx,%esi
    d7c1:	89 c7                	mov    %eax,%edi
    d7c3:	e8 2a ba ff ff       	callq  91f2 <safe_sub_func_int8_t_s_s>
    d7c8:	0f be d0             	movsbl %al,%edx
    d7cb:	8b 85 ac ee ff ff    	mov    -0x1154(%rbp),%eax
    d7d1:	39 c2                	cmp    %eax,%edx
    d7d3:	0f 9d c0             	setge  %al
    d7d6:	0f b6 d0             	movzbl %al,%edx
    d7d9:	8b 85 ac ee ff ff    	mov    -0x1154(%rbp),%eax
    d7df:	39 c2                	cmp    %eax,%edx
    d7e1:	0f 9c c0             	setl   %al
    d7e4:	0f b6 d0             	movzbl %al,%edx
    d7e7:	48 8b 05 22 6b 01 00 	mov    0x16b22(%rip),%rax        # 24310 <g_197>
    d7ee:	48 8b 00             	mov    (%rax),%rax
    d7f1:	0f b7 00             	movzwl (%rax),%eax
    d7f4:	0f b7 c0             	movzwl %ax,%eax
    d7f7:	31 d0                	xor    %edx,%eax
    d7f9:	83 f8 f6             	cmp    $0xfffffff6,%eax
    d7fc:	0f 95 c0             	setne  %al
    d7ff:	0f b6 c0             	movzbl %al,%eax
    d802:	89 de                	mov    %ebx,%esi
    d804:	89 c7                	mov    %eax,%edi
    d806:	e8 c8 bb ff ff       	callq  93d3 <safe_sub_func_int16_t_s_s>
    d80b:	98                   	cwtl   
    d80c:	89 85 fc ee ff ff    	mov    %eax,-0x1104(%rbp)
    d812:	48 8b 85 c8 ef ff ff 	mov    -0x1038(%rbp),%rax
    d819:	8b 00                	mov    (%rax),%eax
    d81b:	85 c0                	test   %eax,%eax
    d81d:	74 13                	je     d832 <func_4+0x2ecf>
    d81f:	0f b7 05 62 4c 01 00 	movzwl 0x14c62(%rip),%eax        # 22488 <g_615>
    d826:	66 85 c0             	test   %ax,%ax
    d829:	74 07                	je     d832 <func_4+0x2ecf>
    d82b:	ba 01 00 00 00       	mov    $0x1,%edx
    d830:	eb 05                	jmp    d837 <func_4+0x2ed4>
    d832:	ba 00 00 00 00       	mov    $0x0,%edx
    d837:	8b 85 ac ee ff ff    	mov    -0x1154(%rbp),%eax
    d83d:	39 c2                	cmp    %eax,%edx
    d83f:	0f 9e c0             	setle  %al
    d842:	0f b6 d0             	movzbl %al,%edx
    d845:	48 8b 85 c8 ef ff ff 	mov    -0x1038(%rbp),%rax
    d84c:	8b 00                	mov    (%rax),%eax
    d84e:	31 d0                	xor    %edx,%eax
    d850:	83 f8 7c             	cmp    $0x7c,%eax
    d853:	0f 9e c0             	setle  %al
    d856:	0f b6 d0             	movzbl %al,%edx
    d859:	48 8b 05 88 74 01 00 	mov    0x17488(%rip),%rax        # 24ce8 <g_1217>
    d860:	0f b7 00             	movzwl (%rax),%eax
    d863:	98                   	cwtl   
    d864:	39 c2                	cmp    %eax,%edx
    d866:	0f 9d c0             	setge  %al
    d869:	0f b6 d0             	movzbl %al,%edx
    d86c:	48 8b 05 7d 74 01 00 	mov    0x1747d(%rip),%rax        # 24cf0 <g_1216>
    d873:	48 8b 00             	mov    (%rax),%rax
    d876:	0f b7 00             	movzwl (%rax),%eax
    d879:	98                   	cwtl   
    d87a:	89 d6                	mov    %edx,%esi
    d87c:	89 c7                	mov    %eax,%edi
    d87e:	e8 5e bc ff ff       	callq  94e1 <safe_lshift_func_int16_t_s_u>
    d883:	48 8b 85 f8 ef ff ff 	mov    -0x1008(%rbp),%rax
    d88a:	c6 00 02             	movb   $0x2,(%rax)
    d88d:	48 8b 85 f8 ef ff ff 	mov    -0x1008(%rbp),%rax
    d894:	0f b6 10             	movzbl (%rax),%edx
    d897:	48 8b 85 00 f0 ff ff 	mov    -0x1000(%rbp),%rax
    d89e:	88 10                	mov    %dl,(%rax)
    d8a0:	48 8b 85 00 f0 ff ff 	mov    -0x1000(%rbp),%rax
    d8a7:	0f b6 00             	movzbl (%rax),%eax
    d8aa:	0f be c0             	movsbl %al,%eax
    d8ad:	be 08 00 00 00       	mov    $0x8,%esi
    d8b2:	89 c7                	mov    %eax,%edi
    d8b4:	e8 39 b9 ff ff       	callq  91f2 <safe_sub_func_int8_t_s_s>
    d8b9:	48 8b 85 c8 ef ff ff 	mov    -0x1038(%rbp),%rax
    d8c0:	8b 10                	mov    (%rax),%edx
    d8c2:	48 8b 85 c8 ef ff ff 	mov    -0x1038(%rbp),%rax
    d8c9:	8b 00                	mov    (%rax),%eax
    d8cb:	83 e0 01             	and    $0x1,%eax
    d8ce:	39 c2                	cmp    %eax,%edx
    d8d0:	0f 95 c0             	setne  %al
    d8d3:	0f b6 c0             	movzbl %al,%eax
    d8d6:	89 85 ac ee ff ff    	mov    %eax,-0x1154(%rbp)
    d8dc:	8b 85 ac ee ff ff    	mov    -0x1154(%rbp),%eax
    d8e2:	48 63 d8             	movslq %eax,%rbx
    d8e5:	8b 85 ac ee ff ff    	mov    -0x1154(%rbp),%eax
    d8eb:	85 c0                	test   %eax,%eax
    d8ed:	0f 95 c0             	setne  %al
    d8f0:	0f b6 d0             	movzbl %al,%edx
    d8f3:	48 8b 85 c8 ef ff ff 	mov    -0x1038(%rbp),%rax
    d8fa:	c7 00 00 00 00 00    	movl   $0x0,(%rax)
    d900:	48 8b 85 c8 ef ff ff 	mov    -0x1038(%rbp),%rax
    d907:	8b 00                	mov    (%rax),%eax
    d909:	39 c2                	cmp    %eax,%edx
    d90b:	0f 9e c2             	setle  %dl
    d90e:	48 8b 05 f3 71 01 00 	mov    0x171f3(%rip),%rax        # 24b08 <g_714>
    d915:	48 8b 00             	mov    (%rax),%rax
    d918:	0f b6 d2             	movzbl %dl,%edx
    d91b:	66 89 10             	mov    %dx,(%rax)
    d91e:	0f b7 00             	movzwl (%rax),%eax
    d921:	44 0f b7 f0          	movzwl %ax,%r14d
    d925:	8b 85 ac ee ff ff    	mov    -0x1154(%rbp),%eax
    d92b:	44 0f b7 e0          	movzwl %ax,%r12d
    d92f:	48 8b 05 92 7f 01 00 	mov    0x17f92(%rip),%rax        # 258c8 <g_2226>
    d936:	48 8b 00             	mov    (%rax),%rax
    d939:	48 8b 00             	mov    (%rax),%rax
    d93c:	48 8b 00             	mov    (%rax),%rax
    d93f:	48 8b 00             	mov    (%rax),%rax
    d942:	0f b7 00             	movzwl (%rax),%eax
    d945:	44 0f bf e8          	movswl %ax,%r13d
    d949:	48 8b 85 10 f0 ff ff 	mov    -0xff0(%rbp),%rax
    d950:	0f b6 95 bf ee ff ff 	movzbl -0x1141(%rbp),%edx
    d957:	88 10                	mov    %dl,(%rax)
    d959:	48 8b 05 58 7f 01 00 	mov    0x17f58(%rip),%rax        # 258b8 <g_2228>
    d960:	48 8b 00             	mov    (%rax),%rax
    d963:	48 8b 00             	mov    (%rax),%rax
    d966:	0f b7 00             	movzwl (%rax),%eax
    d969:	0f bf d0             	movswl %ax,%edx
    d96c:	8b 85 ac ee ff ff    	mov    -0x1154(%rbp),%eax
    d972:	39 c2                	cmp    %eax,%edx
    d974:	0f 9f c0             	setg   %al
    d977:	0f b6 d0             	movzbl %al,%edx
    d97a:	8b 85 ac ee ff ff    	mov    -0x1154(%rbp),%eax
    d980:	39 c2                	cmp    %eax,%edx
    d982:	0f 9e c0             	setle  %al
    d985:	0f b6 d0             	movzbl %al,%edx
    d988:	8b 85 ac ee ff ff    	mov    -0x1154(%rbp),%eax
    d98e:	0f b6 c0             	movzbl %al,%eax
    d991:	89 d6                	mov    %edx,%esi
    d993:	89 c7                	mov    %eax,%edi
    d995:	e8 f9 c1 ff ff       	callq  9b93 <safe_mul_func_uint8_t_u_u>
    d99a:	89 c2                	mov    %eax,%edx
    d99c:	48 8b 85 00 f0 ff ff 	mov    -0x1000(%rbp),%rax
    d9a3:	88 10                	mov    %dl,(%rax)
    d9a5:	48 c7 05 98 71 01 00 	movq   $0x0,0x17198(%rip)        # 24b48 <g_711+0x28>
    d9ac:	00 00 00 00 
    d9b0:	48 8b 15 91 71 01 00 	mov    0x17191(%rip),%rdx        # 24b48 <g_711+0x28>
    d9b7:	48 8d 85 a0 ef ff ff 	lea    -0x1060(%rbp),%rax
    d9be:	48 39 c2             	cmp    %rax,%rdx
    d9c1:	0f 95 c0             	setne  %al
    d9c4:	0f b6 d0             	movzbl %al,%edx
    d9c7:	0f b7 85 c6 ee ff ff 	movzwl -0x113a(%rbp),%eax
    d9ce:	09 d0                	or     %edx,%eax
    d9d0:	98                   	cwtl   
    d9d1:	44 89 ee             	mov    %r13d,%esi
    d9d4:	89 c7                	mov    %eax,%edi
    d9d6:	e8 1a ba ff ff       	callq  93f5 <safe_mul_func_int16_t_s_s>
    d9db:	0f bf d0             	movswl %ax,%edx
    d9de:	0f b7 85 c8 ee ff ff 	movzwl -0x1138(%rbp),%eax
    d9e5:	39 c2                	cmp    %eax,%edx
    d9e7:	0f 9f c0             	setg   %al
    d9ea:	0f b6 d0             	movzbl %al,%edx
    d9ed:	8b 85 ac ee ff ff    	mov    -0x1154(%rbp),%eax
    d9f3:	39 c2                	cmp    %eax,%edx
    d9f5:	7d 09                	jge    da00 <func_4+0x309d>
    d9f7:	83 bd 00 ef ff ff 00 	cmpl   $0x0,-0x1100(%rbp)
    d9fe:	74 07                	je     da07 <func_4+0x30a4>
    da00:	b8 01 00 00 00       	mov    $0x1,%eax
    da05:	eb 05                	jmp    da0c <func_4+0x30a9>
    da07:	b8 00 00 00 00       	mov    $0x0,%eax
    da0c:	98                   	cwtl   
    da0d:	be 0a 00 00 00       	mov    $0xa,%esi
    da12:	89 c7                	mov    %eax,%edi
    da14:	e8 c8 ba ff ff       	callq  94e1 <safe_lshift_func_int16_t_s_u>
    da19:	98                   	cwtl   
    da1a:	be 02 00 00 00       	mov    $0x2,%esi
    da1f:	89 c7                	mov    %eax,%edi
    da21:	e8 6c ba ff ff       	callq  9492 <safe_lshift_func_int16_t_s_s>
    da26:	44 89 e6             	mov    %r12d,%esi
    da29:	bf bb c2 00 00       	mov    $0xc2bb,%edi
    da2e:	e8 0a c3 ff ff       	callq  9d3d <safe_mul_func_uint16_t_u_u>
    da33:	0f b7 c0             	movzwl %ax,%eax
    da36:	f7 d0                	not    %eax
    da38:	48 98                	cltq   
    da3a:	25 06 af 00 00       	and    $0xaf06,%eax
    da3f:	4c 09 f0             	or     %r14,%rax
    da42:	48 89 de             	mov    %rbx,%rsi
    da45:	48 89 c7             	mov    %rax,%rdi
    da48:	e8 62 c6 ff ff       	callq  a0af <safe_div_func_uint64_t_u_u>
    da4d:	48 8b 05 dc 80 01 00 	mov    0x180dc(%rip),%rax        # 25b30 <g_2477>
    da54:	c7 00 01 00 00 00    	movl   $0x1,(%rax)
    da5a:	48 8b 85 c8 ef ff ff 	mov    -0x1038(%rbp),%rax
    da61:	8b 00                	mov    (%rax),%eax
    da63:	48 8b 5d c8          	mov    -0x38(%rbp),%rbx
    da67:	64 48 33 1c 25 28 00 	xor    %fs:0x28,%rbx
    da6e:	00 00 
    da70:	74 05                	je     da77 <func_4+0x3114>
    da72:	e8 f9 b5 ff ff       	callq  9070 <__stack_chk_fail@plt>
    da77:	48 81 c4 48 11 00 00 	add    $0x1148,%rsp
    da7e:	5b                   	pop    %rbx
    da7f:	41 5c                	pop    %r12
    da81:	41 5d                	pop    %r13
    da83:	41 5e                	pop    %r14
    da85:	41 5f                	pop    %r15
    da87:	5d                   	pop    %rbp
    da88:	c3                   	retq   

000000000000da89 <func_6>:
    da89:	f3 0f 1e fa          	endbr64 
    da8d:	55                   	push   %rbp
    da8e:	48 89 e5             	mov    %rsp,%rbp
    da91:	41 57                	push   %r15
    da93:	41 56                	push   %r14
    da95:	41 55                	push   %r13
    da97:	41 54                	push   %r12
    da99:	53                   	push   %rbx
    da9a:	48 81 ec 68 06 00 00 	sub    $0x668,%rsp
    daa1:	89 bd 7c f9 ff ff    	mov    %edi,-0x684(%rbp)
    daa7:	89 f1                	mov    %esi,%ecx
    daa9:	89 d0                	mov    %edx,%eax
    daab:	89 ca                	mov    %ecx,%edx
    daad:	88 95 78 f9 ff ff    	mov    %dl,-0x688(%rbp)
    dab3:	66 89 85 74 f9 ff ff 	mov    %ax,-0x68c(%rbp)
    daba:	64 48 8b 04 25 28 00 	mov    %fs:0x28,%rax
    dac1:	00 00 
    dac3:	48 89 45 c8          	mov    %rax,-0x38(%rbp)
    dac7:	31 c0                	xor    %eax,%eax
    dac9:	48 8d 05 c8 49 01 00 	lea    0x149c8(%rip),%rax        # 22498 <g_779>
    dad0:	48 89 85 c0 f9 ff ff 	mov    %rax,-0x640(%rbp)
    dad7:	48 8d 85 c0 f9 ff ff 	lea    -0x640(%rbp),%rax
    dade:	48 89 85 e8 f9 ff ff 	mov    %rax,-0x618(%rbp)
    dae5:	c6 85 86 f9 ff ff fb 	movb   $0xfb,-0x67a(%rbp)
    daec:	c7 85 90 f9 ff ff 00 	movl   $0x41515400,-0x670(%rbp)
    daf3:	54 51 41 
    daf6:	48 c7 85 f0 f9 ff ff 	movq   $0x0,-0x610(%rbp)
    dafd:	00 00 00 00 
    db01:	c7 85 94 f9 ff ff ff 	movl   $0xffffffff,-0x66c(%rbp)
    db08:	ff ff ff 
    db0b:	66 c7 85 8a f9 ff ff 	movw   $0x5,-0x676(%rbp)
    db12:	05 00 
    db14:	48 8d 05 fd 49 01 00 	lea    0x149fd(%rip),%rax        # 22518 <g_2108>
    db1b:	48 89 85 f8 f9 ff ff 	mov    %rax,-0x608(%rbp)
    db22:	48 8d 05 e7 6f 01 00 	lea    0x16fe7(%rip),%rax        # 24b10 <g_712>
    db29:	48 89 85 00 fa ff ff 	mov    %rax,-0x600(%rbp)
    db30:	48 8d 05 d9 6f 01 00 	lea    0x16fd9(%rip),%rax        # 24b10 <g_712>
    db37:	48 89 85 08 fa ff ff 	mov    %rax,-0x5f8(%rbp)
    db3e:	48 8d 05 d3 79 01 00 	lea    0x179d3(%rip),%rax        # 25518 <g_1549>
    db45:	48 89 85 10 fa ff ff 	mov    %rax,-0x5f0(%rbp)
    db4c:	48 8d 05 35 45 01 00 	lea    0x14535(%rip),%rax        # 22088 <g_49>
    db53:	48 89 85 18 fa ff ff 	mov    %rax,-0x5e8(%rbp)
    db5a:	66 c7 85 8c f9 ff ff 	movw   $0x4433,-0x674(%rbp)
    db61:	33 44 
    db63:	48 8d 05 6e 49 01 00 	lea    0x1496e(%rip),%rax        # 224d8 <g_1287+0x8>
    db6a:	48 89 85 20 fa ff ff 	mov    %rax,-0x5e0(%rbp)
    db71:	48 c7 85 c8 f9 ff ff 	movq   $0x0,-0x638(%rbp)
    db78:	00 00 00 00 
    db7c:	48 8d 85 c8 f9 ff ff 	lea    -0x638(%rbp),%rax
    db83:	48 89 85 28 fa ff ff 	mov    %rax,-0x5d8(%rbp)
    db8a:	48 8d 05 2f 49 01 00 	lea    0x1492f(%rip),%rax        # 224c0 <g_1164>
    db91:	48 89 85 30 fa ff ff 	mov    %rax,-0x5d0(%rbp)
    db98:	48 8d 05 31 79 01 00 	lea    0x17931(%rip),%rax        # 254d0 <g_1395+0x30>
    db9f:	48 89 85 d0 f9 ff ff 	mov    %rax,-0x630(%rbp)
    dba6:	48 8d 85 d0 f9 ff ff 	lea    -0x630(%rbp),%rax
    dbad:	48 89 85 38 fa ff ff 	mov    %rax,-0x5c8(%rbp)
    dbb4:	c7 85 98 f9 ff ff 00 	movl   $0x0,-0x668(%rbp)
    dbbb:	00 00 00 
    dbbe:	eb 1b                	jmp    dbdb <func_6+0x152>
    dbc0:	8b 85 98 f9 ff ff    	mov    -0x668(%rbp),%eax
    dbc6:	48 98                	cltq   
    dbc8:	48 c7 84 c5 20 fb ff 	movq   $0x0,-0x4e0(%rbp,%rax,8)
    dbcf:	ff 00 00 00 00 
    dbd4:	83 85 98 f9 ff ff 01 	addl   $0x1,-0x668(%rbp)
    dbdb:	83 bd 98 f9 ff ff 04 	cmpl   $0x4,-0x668(%rbp)
    dbe2:	7e dc                	jle    dbc0 <func_6+0x137>
    dbe4:	c7 05 d6 48 01 00 00 	movl   $0x0,0x148d6(%rip)        # 224c4 <g_1167>
    dbeb:	00 00 00 
    dbee:	e9 85 0a 00 00       	jmpq   e678 <func_6+0xbef>
    dbf3:	66 c7 85 88 f9 ff ff 	movw   $0xfffb,-0x678(%rbp)
    dbfa:	fb ff 
    dbfc:	48 8d 05 3d 84 01 00 	lea    0x1843d(%rip),%rax        # 26040 <g_1783>
    dc03:	48 89 85 40 fa ff ff 	mov    %rax,-0x5c0(%rbp)
    dc0a:	48 8d 95 90 fb ff ff 	lea    -0x470(%rbp),%rdx
    dc11:	b8 00 00 00 00       	mov    $0x0,%eax
    dc16:	b9 12 00 00 00       	mov    $0x12,%ecx
    dc1b:	48 89 d7             	mov    %rdx,%rdi
    dc1e:	f3 48 ab             	rep stos %rax,%es:(%rdi)
    dc21:	48 8d 85 90 fb ff ff 	lea    -0x470(%rbp),%rax
    dc28:	48 83 c0 60          	add    $0x60,%rax
    dc2c:	48 89 85 48 fa ff ff 	mov    %rax,-0x5b8(%rbp)
    dc33:	48 8d 05 9e 78 01 00 	lea    0x1789e(%rip),%rax        # 254d8 <g_1395+0x38>
    dc3a:	48 89 85 50 fa ff ff 	mov    %rax,-0x5b0(%rbp)
    dc41:	48 8d 05 50 48 01 00 	lea    0x14850(%rip),%rax        # 22498 <g_779>
    dc48:	48 89 85 58 fa ff ff 	mov    %rax,-0x5a8(%rbp)
    dc4f:	48 8d 05 aa 6e 01 00 	lea    0x16eaa(%rip),%rax        # 24b00 <g_715>
    dc56:	48 89 85 d8 f9 ff ff 	mov    %rax,-0x628(%rbp)
    dc5d:	48 8d 05 9c 6e 01 00 	lea    0x16e9c(%rip),%rax        # 24b00 <g_715>
    dc64:	48 89 85 60 fa ff ff 	mov    %rax,-0x5a0(%rbp)
    dc6b:	48 c7 85 68 fa ff ff 	movq   $0x0,-0x598(%rbp)
    dc72:	00 00 00 00 
    dc76:	48 8d 05 27 44 01 00 	lea    0x14427(%rip),%rax        # 220a4 <g_88>
    dc7d:	48 89 85 70 fa ff ff 	mov    %rax,-0x590(%rbp)
    dc84:	48 c7 85 e0 f9 ff ff 	movq   $0x0,-0x620(%rbp)
    dc8b:	00 00 00 00 
    dc8f:	c7 85 9c f9 ff ff 00 	movl   $0x0,-0x664(%rbp)
    dc96:	00 00 00 
    dc99:	eb 1e                	jmp    dcb9 <func_6+0x230>
    dc9b:	8b 85 9c f9 ff ff    	mov    -0x664(%rbp),%eax
    dca1:	48 98                	cltq   
    dca3:	48 8d 95 e0 f9 ff ff 	lea    -0x620(%rbp),%rdx
    dcaa:	48 89 94 c5 50 fb ff 	mov    %rdx,-0x4b0(%rbp,%rax,8)
    dcb1:	ff 
    dcb2:	83 85 9c f9 ff ff 01 	addl   $0x1,-0x664(%rbp)
    dcb9:	83 bd 9c f9 ff ff 06 	cmpl   $0x6,-0x664(%rbp)
    dcc0:	7e d9                	jle    dc9b <func_6+0x212>
    dcc2:	0f b7 85 74 f9 ff ff 	movzwl -0x68c(%rbp),%eax
    dcc9:	48 89 c6             	mov    %rax,%rsi
    dccc:	48 bf 8e b6 5c 50 11 	movabs $0x76a03c11505cb68e,%rdi
    dcd3:	3c a0 76 
    dcd6:	e8 cd bb ff ff       	callq  98a8 <safe_sub_func_int64_t_s_s>
    dcdb:	48 89 c2             	mov    %rax,%rdx
    dcde:	48 8b 05 c3 7b 01 00 	mov    0x17bc3(%rip),%rax        # 258a8 <g_2055>
    dce5:	8b 08                	mov    (%rax),%ecx
    dce7:	21 ca                	and    %ecx,%edx
    dce9:	89 10                	mov    %edx,(%rax)
    dceb:	48 8b 05 06 6e 01 00 	mov    0x16e06(%rip),%rax        # 24af8 <g_654>
    dcf2:	48 8b 00             	mov    (%rax),%rax
    dcf5:	0f b6 00             	movzbl (%rax),%eax
    dcf8:	0f b6 d0             	movzbl %al,%edx
    dcfb:	48 8b 85 50 fa ff ff 	mov    -0x5b0(%rbp),%rax
    dd02:	48 8b 00             	mov    (%rax),%rax
    dd05:	0f b6 08             	movzbl (%rax),%ecx
    dd08:	48 8b 85 50 fa ff ff 	mov    -0x5b0(%rbp),%rax
    dd0f:	48 8b 00             	mov    (%rax),%rax
    dd12:	22 8d 78 f9 ff ff    	and    -0x688(%rbp),%cl
    dd18:	88 08                	mov    %cl,(%rax)
    dd1a:	0f b6 00             	movzbl (%rax),%eax
    dd1d:	0f be c0             	movsbl %al,%eax
    dd20:	89 d6                	mov    %edx,%esi
    dd22:	89 c7                	mov    %eax,%edi
    dd24:	e8 43 b6 ff ff       	callq  936c <safe_rshift_func_int8_t_s_u>
    dd29:	0f be d0             	movsbl %al,%edx
    dd2c:	48 8b 85 58 fa ff ff 	mov    -0x5a8(%rbp),%rax
    dd33:	0f b6 8d 86 f9 ff ff 	movzbl -0x67a(%rbp),%ecx
    dd3a:	88 08                	mov    %cl,(%rax)
    dd3c:	0f b7 b5 88 f9 ff ff 	movzwl -0x678(%rbp),%esi
    dd43:	48 8b 8d 10 fc ff ff 	mov    -0x3f0(%rbp),%rcx
    dd4a:	48 8b 85 48 fa ff ff 	mov    -0x5b8(%rbp),%rax
    dd51:	48 89 08             	mov    %rcx,(%rax)
    dd54:	48 8b 85 48 fa ff ff 	mov    -0x5b8(%rbp),%rax
    dd5b:	48 8b 00             	mov    (%rax),%rax
    dd5e:	48 39 85 e8 f9 ff ff 	cmp    %rax,-0x618(%rbp)
    dd65:	0f 95 c0             	setne  %al
    dd68:	0f b6 c0             	movzbl %al,%eax
    dd6b:	89 f1                	mov    %esi,%ecx
    dd6d:	09 c1                	or     %eax,%ecx
    dd6f:	48 8b 85 d8 f9 ff ff 	mov    -0x628(%rbp),%rax
    dd76:	48 39 85 60 fa ff ff 	cmp    %rax,-0x5a0(%rbp)
    dd7d:	0f 95 c0             	setne  %al
    dd80:	0f b6 c0             	movzbl %al,%eax
    dd83:	39 c1                	cmp    %eax,%ecx
    dd85:	0f 9d c0             	setge  %al
    dd88:	0f b6 c0             	movzbl %al,%eax
    dd8b:	89 d6                	mov    %edx,%esi
    dd8d:	89 c7                	mov    %eax,%edi
    dd8f:	e8 7e b4 ff ff       	callq  9212 <safe_mul_func_int8_t_s_s>
    dd94:	38 85 78 f9 ff ff    	cmp    %al,-0x688(%rbp)
    dd9a:	0f 95 c0             	setne  %al
    dd9d:	0f b6 d0             	movzbl %al,%edx
    dda0:	48 8b 85 70 fa ff ff 	mov    -0x590(%rbp),%rax
    dda7:	89 10                	mov    %edx,(%rax)
    dda9:	48 8b 85 70 fa ff ff 	mov    -0x590(%rbp),%rax
    ddb0:	8b 08                	mov    (%rax),%ecx
    ddb2:	48 8b 05 2f 6f 01 00 	mov    0x16f2f(%rip),%rax        # 24ce8 <g_1217>
    ddb9:	0f b7 10             	movzwl (%rax),%edx
    ddbc:	48 8b 05 25 6f 01 00 	mov    0x16f25(%rip),%rax        # 24ce8 <g_1217>
    ddc3:	31 ca                	xor    %ecx,%edx
    ddc5:	66 89 10             	mov    %dx,(%rax)
    ddc8:	0f b7 00             	movzwl (%rax),%eax
    ddcb:	66 85 c0             	test   %ax,%ax
    ddce:	74 08                	je     ddd8 <func_6+0x34f>
    ddd0:	66 83 bd 74 f9 ff ff 	cmpw   $0x0,-0x68c(%rbp)
    ddd7:	00 
    ddd8:	48 c7 85 78 fa ff ff 	movq   $0x1,-0x588(%rbp)
    dddf:	01 00 00 00 
    dde3:	c6 85 87 f9 ff ff de 	movb   $0xde,-0x679(%rbp)
    ddea:	48 8d 85 d8 f9 ff ff 	lea    -0x628(%rbp),%rax
    ddf1:	48 89 85 80 fa ff ff 	mov    %rax,-0x580(%rbp)
    ddf8:	48 c7 85 88 fa ff ff 	movq   $0x0,-0x578(%rbp)
    ddff:	00 00 00 00 
    de03:	48 c7 85 90 fa ff ff 	movq   $0x0,-0x570(%rbp)
    de0a:	00 00 00 00 
    de0e:	48 8d 85 40 fd ff ff 	lea    -0x2c0(%rbp),%rax
    de15:	48 8d 15 c4 48 01 00 	lea    0x148c4(%rip),%rdx        # 226e0 <g_2474+0x1b6>
    de1c:	b9 51 00 00 00       	mov    $0x51,%ecx
    de21:	48 89 c7             	mov    %rax,%rdi
    de24:	48 89 d6             	mov    %rdx,%rsi
    de27:	f3 48 a5             	rep movsq %ds:(%rsi),%es:(%rdi)
    de2a:	c7 85 b0 f9 ff ff 01 	movl   $0x1,-0x650(%rbp)
    de31:	00 00 00 
    de34:	48 c7 85 98 fa ff ff 	movq   $0x0,-0x568(%rbp)
    de3b:	00 00 00 00 
    de3f:	c7 85 a0 f9 ff ff 00 	movl   $0x0,-0x660(%rbp)
    de46:	00 00 00 
    de49:	eb 1b                	jmp    de66 <func_6+0x3dd>
    de4b:	8b 85 a0 f9 ff ff    	mov    -0x660(%rbp),%eax
    de51:	48 98                	cltq   
    de53:	48 c7 84 c5 00 fb ff 	movq   $0x0,-0x500(%rbp,%rax,8)
    de5a:	ff 00 00 00 00 
    de5f:	83 85 a0 f9 ff ff 01 	addl   $0x1,-0x660(%rbp)
    de66:	83 bd a0 f9 ff ff 02 	cmpl   $0x2,-0x660(%rbp)
    de6d:	7e dc                	jle    de4b <func_6+0x3c2>
    de6f:	48 8b 85 f0 f9 ff ff 	mov    -0x610(%rbp),%rax
    de76:	41 89 c4             	mov    %eax,%r12d
    de79:	48 8b 85 70 fa ff ff 	mov    -0x590(%rbp),%rax
    de80:	8b 00                	mov    (%rax),%eax
    de82:	0f b6 d8             	movzbl %al,%ebx
    de85:	48 8b 85 80 fa ff ff 	mov    -0x580(%rbp),%rax
    de8c:	48 89 85 50 fb ff ff 	mov    %rax,-0x4b0(%rbp)
    de93:	48 8b 85 50 fb ff ff 	mov    -0x4b0(%rbp),%rax
    de9a:	48 85 c0             	test   %rax,%rax
    de9d:	0f 95 c0             	setne  %al
    dea0:	0f b6 c0             	movzbl %al,%eax
    dea3:	23 85 7c f9 ff ff    	and    -0x684(%rbp),%eax
    dea9:	85 c0                	test   %eax,%eax
    deab:	75 07                	jne    deb4 <func_6+0x42b>
    dead:	83 bd 7c f9 ff ff 00 	cmpl   $0x0,-0x684(%rbp)
    deb4:	48 83 bd 90 fa ff ff 	cmpq   $0x0,-0x570(%rbp)
    debb:	00 
    debc:	0f 95 c0             	setne  %al
    debf:	0f b6 c8             	movzbl %al,%ecx
    dec2:	48 8b 05 1f 6e 01 00 	mov    0x16e1f(%rip),%rax        # 24ce8 <g_1217>
    dec9:	0f b7 10             	movzwl (%rax),%edx
    decc:	48 8b 05 15 6e 01 00 	mov    0x16e15(%rip),%rax        # 24ce8 <g_1217>
    ded3:	09 ca                	or     %ecx,%edx
    ded5:	66 89 10             	mov    %dx,(%rax)
    ded8:	0f b7 00             	movzwl (%rax),%eax
    dedb:	98                   	cwtl   
    dedc:	89 85 90 f9 ff ff    	mov    %eax,-0x670(%rbp)
    dee2:	0f b6 85 78 f9 ff ff 	movzbl -0x688(%rbp),%eax
    dee9:	0f b6 d0             	movzbl %al,%edx
    deec:	8b 85 7c f9 ff ff    	mov    -0x684(%rbp),%eax
    def2:	0f b6 c0             	movzbl %al,%eax
    def5:	89 d6                	mov    %edx,%esi
    def7:	89 c7                	mov    %eax,%edi
    def9:	e8 b0 bc ff ff       	callq  9bae <safe_mod_func_uint8_t_u_u>
    defe:	3c 09                	cmp    $0x9,%al
    df00:	0f 95 c0             	setne  %al
    df03:	0f b6 d0             	movzbl %al,%edx
    df06:	48 8b 85 70 fa ff ff 	mov    -0x590(%rbp),%rax
    df0d:	8b 00                	mov    (%rax),%eax
    df0f:	39 c2                	cmp    %eax,%edx
    df11:	0f 9f c0             	setg   %al
    df14:	0f b6 d0             	movzbl %al,%edx
    df17:	0f be 85 78 f9 ff ff 	movsbl -0x688(%rbp),%eax
    df1e:	39 c2                	cmp    %eax,%edx
    df20:	0f 95 c0             	setne  %al
    df23:	0f b6 c0             	movzbl %al,%eax
    df26:	89 c6                	mov    %eax,%esi
    df28:	bf dc 4c 00 00       	mov    $0x4cdc,%edi
    df2d:	e8 cd bd ff ff       	callq  9cff <safe_add_func_uint16_t_u_u>
    df32:	be 08 00 00 00       	mov    $0x8,%esi
    df37:	bf 00 00 00 00       	mov    $0x0,%edi
    df3c:	e8 19 bc ff ff       	callq  9b5a <safe_add_func_uint8_t_u_u>
    df41:	0f b6 c0             	movzbl %al,%eax
    df44:	89 de                	mov    %ebx,%esi
    df46:	89 c7                	mov    %eax,%edi
    df48:	e8 61 bc ff ff       	callq  9bae <safe_mod_func_uint8_t_u_u>
    df4d:	48 8b 05 bc 63 01 00 	mov    0x163bc(%rip),%rax        # 24310 <g_197>
    df54:	48 8b 00             	mov    (%rax),%rax
    df57:	0f b7 00             	movzwl (%rax),%eax
    df5a:	0f b6 85 86 f9 ff ff 	movzbl -0x67a(%rbp),%eax
    df61:	0f b6 c0             	movzbl %al,%eax
    df64:	be 50 cf ff ff       	mov    $0xffffcf50,%esi
    df69:	89 c7                	mov    %eax,%edi
    df6b:	e8 a6 b4 ff ff       	callq  9416 <safe_mod_func_int16_t_s_s>
    df70:	80 bd 78 f9 ff ff 00 	cmpb   $0x0,-0x688(%rbp)
    df77:	74 10                	je     df89 <func_6+0x500>
    df79:	83 bd 7c f9 ff ff 00 	cmpl   $0x0,-0x684(%rbp)
    df80:	74 07                	je     df89 <func_6+0x500>
    df82:	b8 01 00 00 00       	mov    $0x1,%eax
    df87:	eb 05                	jmp    df8e <func_6+0x505>
    df89:	b8 00 00 00 00       	mov    $0x0,%eax
    df8e:	48 98                	cltq   
    df90:	48 39 85 78 fa ff ff 	cmp    %rax,-0x588(%rbp)
    df97:	0f 95 c0             	setne  %al
    df9a:	0f b6 d0             	movzbl %al,%edx
    df9d:	0f be 85 78 f9 ff ff 	movsbl -0x688(%rbp),%eax
    dfa4:	39 c2                	cmp    %eax,%edx
    dfa6:	0f 9f c0             	setg   %al
    dfa9:	0f b6 c0             	movzbl %al,%eax
    dfac:	89 c7                	mov    %eax,%edi
    dfae:	e8 92 bb ff ff       	callq  9b45 <safe_unary_minus_func_uint8_t_u>
    dfb3:	89 c2                	mov    %eax,%edx
    dfb5:	48 8b 85 50 fa ff ff 	mov    -0x5b0(%rbp),%rax
    dfbc:	48 8b 00             	mov    (%rax),%rax
    dfbf:	88 10                	mov    %dl,(%rax)
    dfc1:	0f b6 00             	movzbl (%rax),%eax
    dfc4:	0f be c0             	movsbl %al,%eax
    dfc7:	48 8b 95 78 fa ff ff 	mov    -0x588(%rbp),%rdx
    dfce:	21 d0                	and    %edx,%eax
    dfd0:	44 89 e6             	mov    %r12d,%esi
    dfd3:	89 c7                	mov    %eax,%edi
    dfd5:	e8 f2 b6 ff ff       	callq  96cc <safe_mod_func_int32_t_s_s>
    dfda:	85 c0                	test   %eax,%eax
    dfdc:	75 0a                	jne    dfe8 <func_6+0x55f>
    dfde:	66 83 bd 74 f9 ff ff 	cmpw   $0x0,-0x68c(%rbp)
    dfe5:	00 
    dfe6:	74 07                	je     dfef <func_6+0x566>
    dfe8:	b8 01 00 00 00       	mov    $0x1,%eax
    dfed:	eb 05                	jmp    dff4 <func_6+0x56b>
    dfef:	b8 00 00 00 00       	mov    $0x0,%eax
    dff4:	31 85 94 f9 ff ff    	xor    %eax,-0x66c(%rbp)
    dffa:	66 c7 05 e3 44 01 00 	movw   $0xfff2,0x144e3(%rip)        # 224e6 <g_1654>
    e001:	f2 ff 
    e003:	e9 41 06 00 00       	jmpq   e649 <func_6+0xbc0>
    e008:	48 c7 85 a0 fa ff ff 	movq   $0xfffffffffffffffd,-0x560(%rbp)
    e00f:	fd ff ff ff 
    e013:	48 8d 05 d6 40 01 00 	lea    0x140d6(%rip),%rax        # 220f0 <g_247>
    e01a:	48 89 85 a8 fa ff ff 	mov    %rax,-0x558(%rbp)
    e021:	c7 85 a4 f9 ff ff f7 	movl   $0xfffffff7,-0x65c(%rbp)
    e028:	ff ff ff 
    e02b:	c7 85 a8 f9 ff ff 21 	movl   $0x6be52621,-0x658(%rbp)
    e032:	26 e5 6b 
    e035:	44 0f be ad 78 f9 ff 	movsbl -0x688(%rbp),%r13d
    e03c:	ff 
    e03d:	8b 85 7c f9 ff ff    	mov    -0x684(%rbp),%eax
    e043:	0f b7 c0             	movzwl %ax,%eax
    e046:	be 05 00 00 00       	mov    $0x5,%esi
    e04b:	89 c7                	mov    %eax,%edi
    e04d:	e8 28 be ff ff       	callq  9e7a <safe_rshift_func_uint16_t_u_u>
    e052:	66 85 c0             	test   %ax,%ax
    e055:	41 0f 94 c6          	sete   %r14b
    e059:	8b 05 b9 44 01 00    	mov    0x144b9(%rip),%eax        # 22518 <g_2108>
    e05f:	41 89 c7             	mov    %eax,%r15d
    e062:	66 0f be 85 78 f9 ff 	movsbw -0x688(%rbp),%ax
    e069:	ff 
    e06a:	0f b7 d8             	movzwl %ax,%ebx
    e06d:	0f b7 85 74 f9 ff ff 	movzwl -0x68c(%rbp),%eax
    e074:	44 0f be e0          	movsbl %al,%r12d
    e078:	48 8b 05 71 6a 01 00 	mov    0x16a71(%rip),%rax        # 24af0 <g_655>
    e07f:	48 8b 85 a0 fa ff ff 	mov    -0x560(%rbp),%rax
    e086:	48 83 f8 01          	cmp    $0x1,%rax
    e08a:	0f 97 c0             	seta   %al
    e08d:	0f b6 c0             	movzbl %al,%eax
    e090:	be 4e 45 96 55       	mov    $0x5596454e,%esi
    e095:	89 c7                	mov    %eax,%edi
    e097:	e8 1c be ff ff       	callq  9eb8 <safe_add_func_uint32_t_u_u>
    e09c:	0f be c0             	movsbl %al,%eax
    e09f:	44 89 e6             	mov    %r12d,%esi
    e0a2:	89 c7                	mov    %eax,%edi
    e0a4:	e8 88 b1 ff ff       	callq  9231 <safe_mod_func_int8_t_s_s>
    e0a9:	48 0f be d0          	movsbq %al,%rdx
    e0ad:	48 8b 85 a8 fa ff ff 	mov    -0x558(%rbp),%rax
    e0b4:	48 89 10             	mov    %rdx,(%rax)
    e0b7:	48 8b 85 a8 fa ff ff 	mov    -0x558(%rbp),%rax
    e0be:	48 8b 00             	mov    (%rax),%rax
    e0c1:	be 09 00 00 00       	mov    $0x9,%esi
    e0c6:	48 89 c7             	mov    %rax,%rdi
    e0c9:	e8 73 b7 ff ff       	callq  9841 <safe_add_func_int64_t_s_s>
    e0ce:	48 85 c0             	test   %rax,%rax
    e0d1:	74 19                	je     e0ec <func_6+0x663>
    e0d3:	48 8b 05 2e 6a 01 00 	mov    0x16a2e(%rip),%rax        # 24b08 <g_714>
    e0da:	48 8b 00             	mov    (%rax),%rax
    e0dd:	0f b7 00             	movzwl (%rax),%eax
    e0e0:	66 85 c0             	test   %ax,%ax
    e0e3:	74 07                	je     e0ec <func_6+0x663>
    e0e5:	b8 01 00 00 00       	mov    $0x1,%eax
    e0ea:	eb 05                	jmp    e0f1 <func_6+0x668>
    e0ec:	b8 00 00 00 00       	mov    $0x0,%eax
    e0f1:	0f b7 c0             	movzwl %ax,%eax
    e0f4:	89 de                	mov    %ebx,%esi
    e0f6:	89 c7                	mov    %eax,%edi
    e0f8:	e8 22 bc ff ff       	callq  9d1f <safe_sub_func_uint16_t_u_u>
    e0fd:	0f b7 d0             	movzwl %ax,%edx
    e100:	0f be 85 78 f9 ff ff 	movsbl -0x688(%rbp),%eax
    e107:	39 c2                	cmp    %eax,%edx
    e109:	0f 95 c0             	setne  %al
    e10c:	0f b6 c0             	movzbl %al,%eax
    e10f:	49 39 c7             	cmp    %rax,%r15
    e112:	7f 11                	jg     e125 <func_6+0x69c>
    e114:	48 8b 05 dd 69 01 00 	mov    0x169dd(%rip),%rax        # 24af8 <g_654>
    e11b:	48 8b 00             	mov    (%rax),%rax
    e11e:	0f b6 00             	movzbl (%rax),%eax
    e121:	84 c0                	test   %al,%al
    e123:	75 07                	jne    e12c <func_6+0x6a3>
    e125:	b8 01 00 00 00       	mov    $0x1,%eax
    e12a:	eb 05                	jmp    e131 <func_6+0x6a8>
    e12c:	b8 00 00 00 00       	mov    $0x0,%eax
    e131:	83 e0 01             	and    $0x1,%eax
    e134:	44 31 f0             	xor    %r14d,%eax
    e137:	0f b6 c0             	movzbl %al,%eax
    e13a:	41 39 c5             	cmp    %eax,%r13d
    e13d:	0f 8f 88 00 00 00    	jg     e1cb <func_6+0x742>
    e143:	66 c7 05 7c 43 01 00 	movw   $0x1,0x1437c(%rip)        # 224c8 <g_1199>
    e14a:	01 00 
    e14c:	90                   	nop
    e14d:	0f b7 05 74 43 01 00 	movzwl 0x14374(%rip),%eax        # 224c8 <g_1199>
    e154:	66 83 f8 04          	cmp    $0x4,%ax
    e158:	0f 8f 15 04 00 00    	jg     e573 <func_6+0xaea>
    e15e:	48 c7 85 c8 fa ff ff 	movq   $0x0,-0x538(%rbp)
    e165:	00 00 00 00 
    e169:	48 8d 05 10 7e 01 00 	lea    0x17e10(%rip),%rax        # 25f80 <g_622>
    e170:	48 89 85 d0 fa ff ff 	mov    %rax,-0x530(%rbp)
    e177:	48 c7 85 d8 fa ff ff 	movq   $0x0,-0x528(%rbp)
    e17e:	00 00 00 00 
    e182:	48 c7 85 e0 fa ff ff 	movq   $0x0,-0x520(%rbp)
    e189:	00 00 00 00 
    e18d:	48 8b 85 a0 fa ff ff 	mov    -0x560(%rbp),%rax
    e194:	31 85 94 f9 ff ff    	xor    %eax,-0x66c(%rbp)
    e19a:	48 8b 85 d0 fa ff ff 	mov    -0x530(%rbp),%rax
    e1a1:	48 8b 95 c8 fa ff ff 	mov    -0x538(%rbp),%rdx
    e1a8:	48 89 10             	mov    %rdx,(%rax)
    e1ab:	48 8b 05 fe 76 01 00 	mov    0x176fe(%rip),%rax        # 258b0 <g_2124>
    e1b2:	48 8b 95 d0 fa ff ff 	mov    -0x530(%rbp),%rdx
    e1b9:	48 8b 12             	mov    (%rdx),%rdx
    e1bc:	48 89 10             	mov    %rdx,(%rax)
    e1bf:	48 8b 85 78 fa ff ff 	mov    -0x588(%rbp),%rax
    e1c6:	e9 d9 08 00 00       	jmpq   eaa4 <func_6+0x101b>
    e1cb:	48 c7 85 b0 fa ff ff 	movq   $0x0,-0x550(%rbp)
    e1d2:	00 00 00 00 
    e1d6:	48 8d 85 20 fc ff ff 	lea    -0x3e0(%rbp),%rax
    e1dd:	48 8d 15 9c fe 00 00 	lea    0xfe9c(%rip),%rdx        # 1e080 <g_431+0x2>
    e1e4:	b9 24 00 00 00       	mov    $0x24,%ecx
    e1e9:	48 89 c7             	mov    %rax,%rdi
    e1ec:	48 89 d6             	mov    %rdx,%rsi
    e1ef:	f3 48 a5             	rep movsq %ds:(%rsi),%es:(%rdi)
    e1f2:	66 c7 05 05 3f 01 00 	movw   $0xd,0x13f05(%rip)        # 22100 <g_486>
    e1f9:	0d 00 
    e1fb:	e9 62 02 00 00       	jmpq   e462 <func_6+0x9d9>
    e200:	66 c7 85 8e f9 ff ff 	movw   $0x4,-0x672(%rbp)
    e207:	04 00 
    e209:	c7 85 b4 f9 ff ff fd 	movl   $0x625c7cfd,-0x64c(%rbp)
    e210:	7c 5c 62 
    e213:	c7 85 b8 f9 ff ff d1 	movl   $0x7a0d91d1,-0x648(%rbp)
    e21a:	91 0d 7a 
    e21d:	48 8d 05 f4 42 01 00 	lea    0x142f4(%rip),%rax        # 22518 <g_2108>
    e224:	48 89 85 b8 fa ff ff 	mov    %rax,-0x548(%rbp)
    e22b:	c7 85 ac f9 ff ff 00 	movl   $0x0,-0x654(%rbp)
    e232:	00 00 00 
    e235:	eb 1e                	jmp    e255 <func_6+0x7cc>
    e237:	8b 85 ac f9 ff ff    	mov    -0x654(%rbp),%eax
    e23d:	48 98                	cltq   
    e23f:	48 8d 15 7c 3e 01 00 	lea    0x13e7c(%rip),%rdx        # 220c2 <g_155+0x2>
    e246:	48 89 94 c5 f0 fa ff 	mov    %rdx,-0x510(%rbp,%rax,8)
    e24d:	ff 
    e24e:	83 85 ac f9 ff ff 01 	addl   $0x1,-0x654(%rbp)
    e255:	83 bd ac f9 ff ff 01 	cmpl   $0x1,-0x654(%rbp)
    e25c:	7e d9                	jle    e237 <func_6+0x7ae>
    e25e:	0f b7 9d 74 f9 ff ff 	movzwl -0x68c(%rbp),%ebx
    e265:	8b 85 c8 fc ff ff    	mov    -0x338(%rbp),%eax
    e26b:	44 0f b6 e0          	movzbl %al,%r12d
    e26f:	44 0f be ad 78 f9 ff 	movsbl -0x688(%rbp),%r13d
    e276:	ff 
    e277:	66 83 bd 74 f9 ff ff 	cmpw   $0x0,-0x68c(%rbp)
    e27e:	00 
    e27f:	75 5a                	jne    e2db <func_6+0x852>
    e281:	c7 85 a4 f9 ff ff ff 	movl   $0xffffffff,-0x65c(%rbp)
    e288:	ff ff ff 
    e28b:	48 83 bd b0 fa ff ff 	cmpq   $0x0,-0x550(%rbp)
    e292:	00 
    e293:	0f 95 c0             	setne  %al
    e296:	0f b6 c0             	movzbl %al,%eax
    e299:	48 39 85 a0 fa ff ff 	cmp    %rax,-0x560(%rbp)
    e2a0:	0f 9c c0             	setl   %al
    e2a3:	0f b6 c0             	movzbl %al,%eax
    e2a6:	48 be ae 60 4f 03 4e 	movabs $0xb9babc4e034f60ae,%rsi
    e2ad:	bc ba b9 
    e2b0:	48 89 c7             	mov    %rax,%rdi
    e2b3:	e8 3f b7 ff ff       	callq  99f7 <safe_div_func_int64_t_s_s>
    e2b8:	8b 95 f8 fc ff ff    	mov    -0x308(%rbp),%edx
    e2be:	48 63 d2             	movslq %edx,%rdx
    e2c1:	48 39 d0             	cmp    %rdx,%rax
    e2c4:	0f 9c c0             	setl   %al
    e2c7:	0f b6 c0             	movzbl %al,%eax
    e2ca:	66 89 85 8e f9 ff ff 	mov    %ax,-0x672(%rbp)
    e2d1:	66 83 bd 8e f9 ff ff 	cmpw   $0x0,-0x672(%rbp)
    e2d8:	00 
    e2d9:	74 07                	je     e2e2 <func_6+0x859>
    e2db:	b8 01 00 00 00       	mov    $0x1,%eax
    e2e0:	eb 05                	jmp    e2e7 <func_6+0x85e>
    e2e2:	b8 00 00 00 00       	mov    $0x0,%eax
    e2e7:	48 98                	cltq   
    e2e9:	48 39 85 78 fa ff ff 	cmp    %rax,-0x588(%rbp)
    e2f0:	0f 9e c0             	setle  %al
    e2f3:	0f b6 d0             	movzbl %al,%edx
    e2f6:	0f b7 85 8a f9 ff ff 	movzwl -0x676(%rbp),%eax
    e2fd:	39 c2                	cmp    %eax,%edx
    e2ff:	8b 05 7f 41 01 00    	mov    0x1417f(%rip),%eax        # 22484 <g_612>
    e305:	b8 01 00 00 00       	mov    $0x1,%eax
    e30a:	48 98                	cltq   
    e30c:	48 39 85 78 fa ff ff 	cmp    %rax,-0x588(%rbp)
    e313:	0f 9c c2             	setl   %dl
    e316:	48 8b 85 50 fa ff ff 	mov    -0x5b0(%rbp),%rax
    e31d:	48 8b 00             	mov    (%rax),%rax
    e320:	88 10                	mov    %dl,(%rax)
    e322:	0f b6 00             	movzbl (%rax),%eax
    e325:	0f be c0             	movsbl %al,%eax
    e328:	89 85 b4 f9 ff ff    	mov    %eax,-0x64c(%rbp)
    e32e:	8b 85 b4 f9 ff ff    	mov    -0x64c(%rbp),%eax
    e334:	0f be c0             	movsbl %al,%eax
    e337:	44 89 ee             	mov    %r13d,%esi
    e33a:	89 c7                	mov    %eax,%edi
    e33c:	e8 d1 ae ff ff       	callq  9212 <safe_mul_func_int8_t_s_s>
    e341:	66 98                	cbtw   
    e343:	0f b7 c0             	movzwl %ax,%eax
    e346:	be 06 00 00 00       	mov    $0x6,%esi
    e34b:	89 c7                	mov    %eax,%edi
    e34d:	e8 f6 ba ff ff       	callq  9e48 <safe_rshift_func_uint16_t_u_s>
    e352:	66 85 c0             	test   %ax,%ax
    e355:	74 07                	je     e35e <func_6+0x8d5>
    e357:	b8 01 00 00 00       	mov    $0x1,%eax
    e35c:	eb 05                	jmp    e363 <func_6+0x8da>
    e35e:	b8 00 00 00 00       	mov    $0x0,%eax
    e363:	0f b6 c0             	movzbl %al,%eax
    e366:	44 89 e6             	mov    %r12d,%esi
    e369:	89 c7                	mov    %eax,%edi
    e36b:	e8 6b b8 ff ff       	callq  9bdb <safe_div_func_uint8_t_u_u>
    e370:	66 83 bd 74 f9 ff ff 	cmpw   $0x0,-0x68c(%rbp)
    e377:	00 
    e378:	74 07                	je     e381 <func_6+0x8f8>
    e37a:	b8 01 00 00 00       	mov    $0x1,%eax
    e37f:	eb 05                	jmp    e386 <func_6+0x8fd>
    e381:	b8 00 00 00 00       	mov    $0x0,%eax
    e386:	0f b7 d0             	movzwl %ax,%edx
    e389:	48 8b 05 38 67 01 00 	mov    0x16738(%rip),%rax        # 24ac8 <g_411>
    e390:	0f b7 00             	movzwl (%rax),%eax
    e393:	66 85 c0             	test   %ax,%ax
    e396:	75 0a                	jne    e3a2 <func_6+0x919>
    e398:	66 83 bd 74 f9 ff ff 	cmpw   $0x0,-0x68c(%rbp)
    e39f:	00 
    e3a0:	74 07                	je     e3a9 <func_6+0x920>
    e3a2:	b8 01 00 00 00       	mov    $0x1,%eax
    e3a7:	eb 05                	jmp    e3ae <func_6+0x925>
    e3a9:	b8 00 00 00 00       	mov    $0x0,%eax
    e3ae:	0f b7 c0             	movzwl %ax,%eax
    e3b1:	89 d6                	mov    %edx,%esi
    e3b3:	89 c7                	mov    %eax,%edi
    e3b5:	e8 d4 b9 ff ff       	callq  9d8e <safe_div_func_uint16_t_u_u>
    e3ba:	8b 95 7c f9 ff ff    	mov    -0x684(%rbp),%edx
    e3c0:	48 8b 85 b8 fa ff ff 	mov    -0x548(%rbp),%rax
    e3c7:	8b 00                	mov    (%rax),%eax
    e3c9:	31 c2                	xor    %eax,%edx
    e3cb:	48 8b 85 b8 fa ff ff 	mov    -0x548(%rbp),%rax
    e3d2:	89 10                	mov    %edx,(%rax)
    e3d4:	48 8b 85 b8 fa ff ff 	mov    -0x548(%rbp),%rax
    e3db:	8b 00                	mov    (%rax),%eax
    e3dd:	8b 95 8c fc ff ff    	mov    -0x374(%rbp),%edx
    e3e3:	39 d0                	cmp    %edx,%eax
    e3e5:	0f 95 c0             	setne  %al
    e3e8:	0f b6 c0             	movzbl %al,%eax
    e3eb:	8b 95 7c f9 ff ff    	mov    -0x684(%rbp),%edx
    e3f1:	89 d6                	mov    %edx,%esi
    e3f3:	89 c7                	mov    %eax,%edi
    e3f5:	e8 d6 ba ff ff       	callq  9ed0 <safe_sub_func_uint32_t_u_u>
    e3fa:	89 de                	mov    %ebx,%esi
    e3fc:	bf 01 00 00 00       	mov    $0x1,%edi
    e401:	e8 db b0 ff ff       	callq  94e1 <safe_lshift_func_int16_t_s_u>
    e406:	66 85 c0             	test   %ax,%ax
    e409:	78 10                	js     e41b <func_6+0x992>
    e40b:	83 bd b8 f9 ff ff 00 	cmpl   $0x0,-0x648(%rbp)
    e412:	74 07                	je     e41b <func_6+0x992>
    e414:	ba 01 00 00 00       	mov    $0x1,%edx
    e419:	eb 05                	jmp    e420 <func_6+0x997>
    e41b:	ba 00 00 00 00       	mov    $0x0,%edx
    e420:	48 8b 85 70 fa ff ff 	mov    -0x590(%rbp),%rax
    e427:	8b 00                	mov    (%rax),%eax
    e429:	09 c2                	or     %eax,%edx
    e42b:	48 8b 85 70 fa ff ff 	mov    -0x590(%rbp),%rax
    e432:	89 10                	mov    %edx,(%rax)
    e434:	83 bd a4 f9 ff ff 00 	cmpl   $0x0,-0x65c(%rbp)
    e43b:	75 38                	jne    e475 <func_6+0x9ec>
    e43d:	48 8b 05 3c 70 01 00 	mov    0x1703c(%rip),%rax        # 25480 <g_1346>
    e444:	8b 00                	mov    (%rax),%eax
    e446:	85 c0                	test   %eax,%eax
    e448:	75 2e                	jne    e478 <func_6+0x9ef>
    e44a:	83 bd 7c f9 ff ff 00 	cmpl   $0x0,-0x684(%rbp)
    e451:	0f b7 05 a8 3c 01 00 	movzwl 0x13ca8(%rip),%eax        # 22100 <g_486>
    e458:	83 c0 01             	add    $0x1,%eax
    e45b:	66 89 05 9e 3c 01 00 	mov    %ax,0x13c9e(%rip)        # 22100 <g_486>
    e462:	0f b7 05 97 3c 01 00 	movzwl 0x13c97(%rip),%eax        # 22100 <g_486>
    e469:	66 83 f8 0d          	cmp    $0xd,%ax
    e46d:	0f 87 8d fd ff ff    	ja     e200 <func_6+0x777>
    e473:	eb 04                	jmp    e479 <func_6+0x9f0>
    e475:	90                   	nop
    e476:	eb 01                	jmp    e479 <func_6+0x9f0>
    e478:	90                   	nop
    e479:	c7 05 c1 3b 01 00 00 	movl   $0x0,0x13bc1(%rip)        # 22044 <g_39>
    e480:	00 00 00 
    e483:	e9 b7 00 00 00       	jmpq   e53f <func_6+0xab6>
    e488:	48 8d 05 0b 3c 01 00 	lea    0x13c0b(%rip),%rax        # 2209a <g_63+0x2>
    e48f:	48 89 85 c0 fa ff ff 	mov    %rax,-0x540(%rbp)
    e496:	83 ad a8 f9 ff ff 01 	subl   $0x1,-0x658(%rbp)
    e49d:	48 8b 05 04 74 01 00 	mov    0x17404(%rip),%rax        # 258a8 <g_2055>
    e4a4:	8b 00                	mov    (%rax),%eax
    e4a6:	85 c0                	test   %eax,%eax
    e4a8:	75 7a                	jne    e524 <func_6+0xa9b>
    e4aa:	83 bd 7c f9 ff ff 00 	cmpl   $0x0,-0x684(%rbp)
    e4b1:	0f 85 99 00 00 00    	jne    e550 <func_6+0xac7>
    e4b7:	48 8b 05 0a 66 01 00 	mov    0x1660a(%rip),%rax        # 24ac8 <g_411>
    e4be:	0f b7 00             	movzwl (%rax),%eax
    e4c1:	0f bf d8             	movswl %ax,%ebx
    e4c4:	48 83 bd c0 fa ff ff 	cmpq   $0x0,-0x540(%rbp)
    e4cb:	00 
    e4cc:	0f 95 c0             	setne  %al
    e4cf:	0f b6 d0             	movzbl %al,%edx
    e4d2:	0f be 85 78 f9 ff ff 	movsbl -0x688(%rbp),%eax
    e4d9:	89 d6                	mov    %edx,%esi
    e4db:	89 c7                	mov    %eax,%edi
    e4dd:	e8 f2 ac ff ff       	callq  91d4 <safe_add_func_int8_t_s_s>
    e4e2:	66 98                	cbtw   
    e4e4:	0f b7 c0             	movzwl %ax,%eax
    e4e7:	89 de                	mov    %ebx,%esi
    e4e9:	89 c7                	mov    %eax,%edi
    e4eb:	e8 ce b8 ff ff       	callq  9dbe <safe_lshift_func_uint16_t_u_s>
    e4f0:	0f be d0             	movsbl %al,%edx
    e4f3:	8b 85 7c f9 ff ff    	mov    -0x684(%rbp),%eax
    e4f9:	0f be c0             	movsbl %al,%eax
    e4fc:	89 d6                	mov    %edx,%esi
    e4fe:	89 c7                	mov    %eax,%edi
    e500:	e8 2c ad ff ff       	callq  9231 <safe_mod_func_int8_t_s_s>
    e505:	66 98                	cbtw   
    e507:	0f b7 c0             	movzwl %ax,%eax
    e50a:	be 01 00 00 00       	mov    $0x1,%esi
    e50f:	89 c7                	mov    %eax,%edi
    e511:	e8 e9 b7 ff ff       	callq  9cff <safe_add_func_uint16_t_u_u>
    e516:	0f b7 d0             	movzwl %ax,%edx
    e519:	48 8b 85 70 fa ff ff 	mov    -0x590(%rbp),%rax
    e520:	89 10                	mov    %edx,(%rax)
    e522:	eb 01                	jmp    e525 <func_6+0xa9c>
    e524:	90                   	nop
    e525:	8b 05 19 3b 01 00    	mov    0x13b19(%rip),%eax        # 22044 <g_39>
    e52b:	98                   	cwtl   
    e52c:	be 01 00 00 00       	mov    $0x1,%esi
    e531:	89 c7                	mov    %eax,%edi
    e533:	e8 9b ae ff ff       	callq  93d3 <safe_sub_func_int16_t_s_s>
    e538:	98                   	cwtl   
    e539:	89 05 05 3b 01 00    	mov    %eax,0x13b05(%rip)        # 22044 <g_39>
    e53f:	8b 05 ff 3a 01 00    	mov    0x13aff(%rip),%eax        # 22044 <g_39>
    e545:	83 f8 ed             	cmp    $0xffffffed,%eax
    e548:	0f 8c 3a ff ff ff    	jl     e488 <func_6+0x9ff>
    e54e:	eb 01                	jmp    e551 <func_6+0xac8>
    e550:	90                   	nop
    e551:	66 c7 05 26 3f 01 00 	movw   $0x18,0x13f26(%rip)        # 22480 <g_570>
    e558:	18 00 
    e55a:	90                   	nop
    e55b:	0f b7 05 1e 3f 01 00 	movzwl 0x13f1e(%rip),%eax        # 22480 <g_570>
    e562:	66 83 f8 0f          	cmp    $0xf,%ax
    e566:	77 0b                	ja     e573 <func_6+0xaea>
    e568:	8b 85 f8 fc ff ff    	mov    -0x308(%rbp),%eax
    e56e:	e9 31 05 00 00       	jmpq   eaa4 <func_6+0x101b>
    e573:	48 c7 85 98 fa ff ff 	movq   $0x0,-0x568(%rbp)
    e57a:	00 00 00 00 
    e57e:	66 c7 05 0b 3b 01 00 	movw   $0xd,0x13b0b(%rip)        # 22092 <g_52>
    e585:	0d 00 
    e587:	e9 91 00 00 00       	jmpq   e61d <func_6+0xb94>
    e58c:	c7 85 bc f9 ff ff ff 	movl   $0xffffffff,-0x644(%rbp)
    e593:	ff ff ff 
    e596:	66 c7 85 88 f9 ff ff 	movw   $0x0,-0x678(%rbp)
    e59d:	00 00 
    e59f:	eb 2d                	jmp    e5ce <func_6+0xb45>
    e5a1:	48 8d 05 d8 79 01 00 	lea    0x179d8(%rip),%rax        # 25f80 <g_622>
    e5a8:	48 89 85 e8 fa ff ff 	mov    %rax,-0x518(%rbp)
    e5af:	48 8b 85 e8 fa ff ff 	mov    -0x518(%rbp),%rax
    e5b6:	48 c7 00 00 00 00 00 	movq   $0x0,(%rax)
    e5bd:	0f b7 85 88 f9 ff ff 	movzwl -0x678(%rbp),%eax
    e5c4:	83 c0 01             	add    $0x1,%eax
    e5c7:	66 89 85 88 f9 ff ff 	mov    %ax,-0x678(%rbp)
    e5ce:	66 83 bd 88 f9 ff ff 	cmpw   $0x38,-0x678(%rbp)
    e5d5:	38 
    e5d6:	77 c9                	ja     e5a1 <func_6+0xb18>
    e5d8:	83 bd 7c f9 ff ff 00 	cmpl   $0x0,-0x684(%rbp)
    e5df:	75 27                	jne    e608 <func_6+0xb7f>
    e5e1:	83 bd bc f9 ff ff 00 	cmpl   $0x0,-0x644(%rbp)
    e5e8:	75 21                	jne    e60b <func_6+0xb82>
    e5ea:	c7 85 7c f9 ff ff 00 	movl   $0x0,-0x684(%rbp)
    e5f1:	00 00 00 
    e5f4:	83 bd 7c f9 ff ff 12 	cmpl   $0x12,-0x684(%rbp)
    e5fb:	74 0f                	je     e60c <func_6+0xb83>
    e5fd:	8b 85 a8 f9 ff ff    	mov    -0x658(%rbp),%eax
    e603:	e9 9c 04 00 00       	jmpq   eaa4 <func_6+0x101b>
    e608:	90                   	nop
    e609:	eb 01                	jmp    e60c <func_6+0xb83>
    e60b:	90                   	nop
    e60c:	0f b7 05 7f 3a 01 00 	movzwl 0x13a7f(%rip),%eax        # 22092 <g_52>
    e613:	83 c0 01             	add    $0x1,%eax
    e616:	66 89 05 75 3a 01 00 	mov    %ax,0x13a75(%rip)        # 22092 <g_52>
    e61d:	0f b7 05 6e 3a 01 00 	movzwl 0x13a6e(%rip),%eax        # 22092 <g_52>
    e624:	66 83 f8 18          	cmp    $0x18,%ax
    e628:	0f 87 5e ff ff ff    	ja     e58c <func_6+0xb03>
    e62e:	0f b7 05 b1 3e 01 00 	movzwl 0x13eb1(%rip),%eax        # 224e6 <g_1654>
    e635:	98                   	cwtl   
    e636:	be 05 00 00 00       	mov    $0x5,%esi
    e63b:	89 c7                	mov    %eax,%edi
    e63d:	e8 71 ad ff ff       	callq  93b3 <safe_add_func_int16_t_s_s>
    e642:	66 89 05 9d 3e 01 00 	mov    %ax,0x13e9d(%rip)        # 224e6 <g_1654>
    e649:	0f b7 05 96 3e 01 00 	movzwl 0x13e96(%rip),%eax        # 224e6 <g_1654>
    e650:	66 83 f8 18          	cmp    $0x18,%ax
    e654:	0f 8f ae f9 ff ff    	jg     e008 <func_6+0x57f>
    e65a:	8b 05 64 3e 01 00    	mov    0x13e64(%rip),%eax        # 224c4 <g_1167>
    e660:	0f b6 c0             	movzbl %al,%eax
    e663:	be 06 00 00 00       	mov    $0x6,%esi
    e668:	89 c7                	mov    %eax,%edi
    e66a:	e8 09 b5 ff ff       	callq  9b78 <safe_sub_func_uint8_t_u_u>
    e66f:	0f b6 c0             	movzbl %al,%eax
    e672:	89 05 4c 3e 01 00    	mov    %eax,0x13e4c(%rip)        # 224c4 <g_1167>
    e678:	8b 05 46 3e 01 00    	mov    0x13e46(%rip),%eax        # 224c4 <g_1167>
    e67e:	85 c0                	test   %eax,%eax
    e680:	0f 89 6d f5 ff ff    	jns    dbf3 <func_6+0x16a>
    e686:	48 8b 85 f8 f9 ff ff 	mov    -0x608(%rbp),%rax
    e68d:	8b 00                	mov    (%rax),%eax
    e68f:	8d 50 01             	lea    0x1(%rax),%edx
    e692:	48 8b 85 f8 f9 ff ff 	mov    -0x608(%rbp),%rax
    e699:	89 10                	mov    %edx,(%rax)
    e69b:	0f b7 85 74 f9 ff ff 	movzwl -0x68c(%rbp),%eax
    e6a2:	0f be d8             	movsbl %al,%ebx
    e6a5:	0f b6 85 86 f9 ff ff 	movzbl -0x67a(%rbp),%eax
    e6ac:	44 0f b6 e0          	movzbl %al,%r12d
    e6b0:	8b 85 7c f9 ff ff    	mov    -0x684(%rbp),%eax
    e6b6:	44 0f be e8          	movsbl %al,%r13d
    e6ba:	48 8b 85 00 fa ff ff 	mov    -0x600(%rbp),%rax
    e6c1:	48 3b 85 08 fa ff ff 	cmp    -0x5f8(%rbp),%rax
    e6c8:	0f 95 c0             	setne  %al
    e6cb:	0f b6 c0             	movzbl %al,%eax
    e6ce:	be 04 00 00 00       	mov    $0x4,%esi
    e6d3:	89 c7                	mov    %eax,%edi
    e6d5:	e8 50 ae ff ff       	callq  952a <safe_rshift_func_int16_t_s_s>
    e6da:	98                   	cwtl   
    e6db:	be 02 00 00 00       	mov    $0x2,%esi
    e6e0:	89 c7                	mov    %eax,%edi
    e6e2:	e8 43 ae ff ff       	callq  952a <safe_rshift_func_int16_t_s_s>
    e6e7:	0f b6 c0             	movzbl %al,%eax
    e6ea:	25 b2 00 00 00       	and    $0xb2,%eax
    e6ef:	41 89 c6             	mov    %eax,%r14d
    e6f2:	8b 85 90 f9 ff ff    	mov    -0x670(%rbp),%eax
    e6f8:	0f bf d0             	movswl %ax,%edx
    e6fb:	0f b7 85 74 f9 ff ff 	movzwl -0x68c(%rbp),%eax
    e702:	98                   	cwtl   
    e703:	89 d6                	mov    %edx,%esi
    e705:	89 c7                	mov    %eax,%edi
    e707:	e8 49 ad ff ff       	callq  9455 <safe_div_func_int16_t_s_s>
    e70c:	0f b6 c0             	movzbl %al,%eax
    e70f:	44 89 f6             	mov    %r14d,%esi
    e712:	89 c7                	mov    %eax,%edi
    e714:	e8 95 b4 ff ff       	callq  9bae <safe_mod_func_uint8_t_u_u>
    e719:	44 0f b6 f0          	movzbl %al,%r14d
    e71d:	0f b7 85 8c f9 ff ff 	movzwl -0x674(%rbp),%eax
    e724:	0f b7 c0             	movzwl %ax,%eax
    e727:	48 8b 15 1a 6e 01 00 	mov    0x16e1a(%rip),%rdx        # 25548 <g_1739>
    e72e:	48 8b 12             	mov    (%rdx),%rdx
    e731:	48 39 95 10 fa ff ff 	cmp    %rdx,-0x5f0(%rbp)
    e738:	0f 95 c2             	setne  %dl
    e73b:	0f b6 ca             	movzbl %dl,%ecx
    e73e:	48 8b 95 18 fa ff ff 	mov    -0x5e8(%rbp),%rdx
    e745:	48 89 0a             	mov    %rcx,(%rdx)
    e748:	89 c6                	mov    %eax,%esi
    e74a:	bf 01 00 00 00       	mov    $0x1,%edi
    e74f:	e8 08 b6 ff ff       	callq  9d5c <safe_mod_func_uint16_t_u_u>
    e754:	66 41 39 c6          	cmp    %ax,%r14w
    e758:	76 0b                	jbe    e765 <func_6+0xcdc>
    e75a:	0f b6 05 b4 3d 01 00 	movzbl 0x13db4(%rip),%eax        # 22515 <g_2024+0x5>
    e761:	84 c0                	test   %al,%al
    e763:	74 07                	je     e76c <func_6+0xce3>
    e765:	b8 01 00 00 00       	mov    $0x1,%eax
    e76a:	eb 05                	jmp    e771 <func_6+0xce8>
    e76c:	b8 00 00 00 00       	mov    $0x0,%eax
    e771:	83 f8 fb             	cmp    $0xfffffffb,%eax
    e774:	0f 97 c0             	seta   %al
    e777:	0f b6 c0             	movzbl %al,%eax
    e77a:	44 89 ee             	mov    %r13d,%esi
    e77d:	89 c7                	mov    %eax,%edi
    e77f:	e8 ad aa ff ff       	callq  9231 <safe_mod_func_int8_t_s_s>
    e784:	0f be c0             	movsbl %al,%eax
    e787:	44 89 e6             	mov    %r12d,%esi
    e78a:	89 c7                	mov    %eax,%edi
    e78c:	e8 3b af ff ff       	callq  96cc <safe_mod_func_int32_t_s_s>
    e791:	0f be c0             	movsbl %al,%eax
    e794:	89 de                	mov    %ebx,%esi
    e796:	89 c7                	mov    %eax,%edi
    e798:	e8 55 aa ff ff       	callq  91f2 <safe_sub_func_int8_t_s_s>
    e79d:	0f be d0             	movsbl %al,%edx
    e7a0:	8b 85 7c f9 ff ff    	mov    -0x684(%rbp),%eax
    e7a6:	0f be c0             	movsbl %al,%eax
    e7a9:	89 d6                	mov    %edx,%esi
    e7ab:	89 c7                	mov    %eax,%edi
    e7ad:	e8 40 aa ff ff       	callq  91f2 <safe_sub_func_int8_t_s_s>
    e7b2:	0f be c0             	movsbl %al,%eax
    e7b5:	39 85 7c f9 ff ff    	cmp    %eax,-0x684(%rbp)
    e7bb:	0f 93 c0             	setae  %al
    e7be:	0f b6 c0             	movzbl %al,%eax
    e7c1:	39 85 7c f9 ff ff    	cmp    %eax,-0x684(%rbp)
    e7c7:	0f 95 c0             	setne  %al
    e7ca:	0f b6 d0             	movzbl %al,%edx
    e7cd:	48 8b 85 20 fa ff ff 	mov    -0x5e0(%rbp),%rax
    e7d4:	89 10                	mov    %edx,(%rax)
    e7d6:	0f b7 9d 74 f9 ff ff 	movzwl -0x68c(%rbp),%ebx
    e7dd:	48 8b 85 20 fa ff ff 	mov    -0x5e0(%rbp),%rax
    e7e4:	8b 10                	mov    (%rax),%edx
    e7e6:	48 8b 05 1b 63 01 00 	mov    0x1631b(%rip),%rax        # 24b08 <g_714>
    e7ed:	48 8b 00             	mov    (%rax),%rax
    e7f0:	66 89 10             	mov    %dx,(%rax)
    e7f3:	0f b7 00             	movzwl (%rax),%eax
    e7f6:	0f b7 d0             	movzwl %ax,%edx
    e7f9:	48 8b 85 20 fa ff ff 	mov    -0x5e0(%rbp),%rax
    e800:	89 10                	mov    %edx,(%rax)
    e802:	66 83 bd 74 f9 ff ff 	cmpw   $0x0,-0x68c(%rbp)
    e809:	00 
    e80a:	0f 84 b1 00 00 00    	je     e8c1 <func_6+0xe38>
    e810:	be 04 00 00 00       	mov    $0x4,%esi
    e815:	bf 00 00 00 00       	mov    $0x0,%edi
    e81a:	e8 4d ab ff ff       	callq  936c <safe_rshift_func_int8_t_s_u>
    e81f:	83 f0 fa             	xor    $0xfffffffa,%eax
    e822:	89 c2                	mov    %eax,%edx
    e824:	48 8b 05 9d 70 01 00 	mov    0x1709d(%rip),%rax        # 258c8 <g_2226>
    e82b:	48 89 05 96 70 01 00 	mov    %rax,0x17096(%rip)        # 258c8 <g_2226>
    e832:	48 8b 05 8f 70 01 00 	mov    0x1708f(%rip),%rax        # 258c8 <g_2226>
    e839:	48 39 85 28 fa ff ff 	cmp    %rax,-0x5d8(%rbp)
    e840:	0f 95 c0             	setne  %al
    e843:	21 d0                	and    %edx,%eax
    e845:	0f be c0             	movsbl %al,%eax
    e848:	be 00 00 00 00       	mov    $0x0,%esi
    e84d:	89 c7                	mov    %eax,%edi
    e84f:	e8 e1 aa ff ff       	callq  9335 <safe_rshift_func_int8_t_s_s>
    e854:	48 0f be d0          	movsbq %al,%rdx
    e858:	48 8b 85 f8 f9 ff ff 	mov    -0x608(%rbp),%rax
    e85f:	8b 00                	mov    (%rax),%eax
    e861:	8d 70 01             	lea    0x1(%rax),%esi
    e864:	48 8b 8d f8 f9 ff ff 	mov    -0x608(%rbp),%rcx
    e86b:	89 31                	mov    %esi,(%rcx)
    e86d:	85 c0                	test   %eax,%eax
    e86f:	0f 94 c0             	sete   %al
    e872:	0f b6 c0             	movzbl %al,%eax
    e875:	48 89 d6             	mov    %rdx,%rsi
    e878:	48 89 c7             	mov    %rax,%rdi
    e87b:	e8 28 b0 ff ff       	callq  98a8 <safe_sub_func_int64_t_s_s>
    e880:	48 89 c2             	mov    %rax,%rdx
    e883:	48 b8 a3 85 33 5e dd 	movabs $0xdfa096dd5e3385a3,%rax
    e88a:	96 a0 df 
    e88d:	48 39 c2             	cmp    %rax,%rdx
    e890:	0f 96 c0             	setbe  %al
    e893:	0f b6 d0             	movzbl %al,%edx
    e896:	48 8b 85 30 fa ff ff 	mov    -0x5d0(%rbp),%rax
    e89d:	89 10                	mov    %edx,(%rax)
    e89f:	48 8b 85 30 fa ff ff 	mov    -0x5d0(%rbp),%rax
    e8a6:	8b 10                	mov    (%rax),%edx
    e8a8:	48 83 bd 38 fa ff ff 	cmpq   $0x0,-0x5c8(%rbp)
    e8af:	00 
    e8b0:	0f 95 c0             	setne  %al
    e8b3:	0f b6 c0             	movzbl %al,%eax
    e8b6:	39 c2                	cmp    %eax,%edx
    e8b8:	74 07                	je     e8c1 <func_6+0xe38>
    e8ba:	b8 01 00 00 00       	mov    $0x1,%eax
    e8bf:	eb 05                	jmp    e8c6 <func_6+0xe3d>
    e8c1:	b8 00 00 00 00       	mov    $0x0,%eax
    e8c6:	3d 85 00 00 00       	cmp    $0x85,%eax
    e8cb:	0f 9f c0             	setg   %al
    e8ce:	0f b6 c0             	movzbl %al,%eax
    e8d1:	89 de                	mov    %ebx,%esi
    e8d3:	89 c7                	mov    %eax,%edi
    e8d5:	e8 f2 ad ff ff       	callq  96cc <safe_mod_func_int32_t_s_s>
    e8da:	31 85 90 f9 ff ff    	xor    %eax,-0x670(%rbp)
    e8e0:	8b 85 90 f9 ff ff    	mov    -0x670(%rbp),%eax
    e8e6:	31 85 94 f9 ff ff    	xor    %eax,-0x66c(%rbp)
    e8ec:	48 8b 05 dd 6f 01 00 	mov    0x16fdd(%rip),%rax        # 258d0 <g_2232>
    e8f3:	8b 95 94 f9 ff ff    	mov    -0x66c(%rbp),%edx
    e8f9:	89 10                	mov    %edx,(%rax)
    e8fb:	0f be 85 78 f9 ff ff 	movsbl -0x688(%rbp),%eax
    e902:	89 85 70 f9 ff ff    	mov    %eax,-0x690(%rbp)
    e908:	48 8b 05 f9 61 01 00 	mov    0x161f9(%rip),%rax        # 24b08 <g_714>
    e90f:	48 8b 00             	mov    (%rax),%rax
    e912:	0f b7 00             	movzwl (%rax),%eax
    e915:	0f b7 d8             	movzwl %ax,%ebx
    e918:	44 8b a5 7c f9 ff ff 	mov    -0x684(%rbp),%r12d
    e91f:	48 8b 85 20 fa ff ff 	mov    -0x5e0(%rbp),%rax
    e926:	44 8b 28             	mov    (%rax),%r13d
    e929:	48 8b 85 38 fa ff ff 	mov    -0x5c8(%rbp),%rax
    e930:	48 8b 00             	mov    (%rax),%rax
    e933:	48 8b 00             	mov    (%rax),%rax
    e936:	0f b6 10             	movzbl (%rax),%edx
    e939:	48 8b 85 20 fa ff ff 	mov    -0x5e0(%rbp),%rax
    e940:	8b 00                	mov    (%rax),%eax
    e942:	89 c1                	mov    %eax,%ecx
    e944:	48 8b 85 38 fa ff ff 	mov    -0x5c8(%rbp),%rax
    e94b:	48 8b 00             	mov    (%rax),%rax
    e94e:	48 8b 00             	mov    (%rax),%rax
    e951:	31 ca                	xor    %ecx,%edx
    e953:	88 10                	mov    %dl,(%rax)
    e955:	48 8b 85 20 fa ff ff 	mov    -0x5e0(%rbp),%rax
    e95c:	44 8b 30             	mov    (%rax),%r14d
    e95f:	44 0f b7 bd 74 f9 ff 	movzwl -0x68c(%rbp),%r15d
    e966:	ff 
    e967:	81 bd 7c f9 ff ff db 	cmpl   $0xcf1e47db,-0x684(%rbp)
    e96e:	47 1e cf 
    e971:	0f 95 c0             	setne  %al
    e974:	0f b6 d0             	movzbl %al,%edx
    e977:	48 8b 05 4a 61 01 00 	mov    0x1614a(%rip),%rax        # 24ac8 <g_411>
    e97e:	0f b7 00             	movzwl (%rax),%eax
    e981:	98                   	cwtl   
    e982:	89 d6                	mov    %edx,%esi
    e984:	89 c7                	mov    %eax,%edi
    e986:	e8 28 aa ff ff       	callq  93b3 <safe_add_func_int16_t_s_s>
    e98b:	0f bf d0             	movswl %ax,%edx
    e98e:	48 8b 85 20 fa ff ff 	mov    -0x5e0(%rbp),%rax
    e995:	8b 00                	mov    (%rax),%eax
    e997:	39 c2                	cmp    %eax,%edx
    e999:	0f 9c c0             	setl   %al
    e99c:	0f b6 d0             	movzbl %al,%edx
    e99f:	48 8b 85 f8 f9 ff ff 	mov    -0x608(%rbp),%rax
    e9a6:	89 10                	mov    %edx,(%rax)
    e9a8:	48 8b 85 f8 f9 ff ff 	mov    -0x608(%rbp),%rax
    e9af:	8b 00                	mov    (%rax),%eax
    e9b1:	44 89 fe             	mov    %r15d,%esi
    e9b4:	89 c7                	mov    %eax,%edi
    e9b6:	e8 6a b5 ff ff       	callq  9f25 <safe_div_func_uint32_t_u_u>
    e9bb:	48 8b 95 20 fa ff ff 	mov    -0x5e0(%rbp),%rdx
    e9c2:	8b 12                	mov    (%rdx),%edx
    e9c4:	39 d0                	cmp    %edx,%eax
    e9c6:	0f 96 c0             	setbe  %al
    e9c9:	0f b6 c0             	movzbl %al,%eax
    e9cc:	be ff df ff ff       	mov    $0xffffdfff,%esi
    e9d1:	89 c7                	mov    %eax,%edi
    e9d3:	e8 3e aa ff ff       	callq  9416 <safe_mod_func_int16_t_s_s>
    e9d8:	0f be 85 78 f9 ff ff 	movsbl -0x688(%rbp),%eax
    e9df:	44 89 f6             	mov    %r14d,%esi
    e9e2:	89 c7                	mov    %eax,%edi
    e9e4:	e8 4c a9 ff ff       	callq  9335 <safe_rshift_func_int8_t_s_s>
    e9e9:	48 8b 85 20 fa ff ff 	mov    -0x5e0(%rbp),%rax
    e9f0:	8b 00                	mov    (%rax),%eax
    e9f2:	83 c8 01             	or     $0x1,%eax
    e9f5:	44 89 ee             	mov    %r13d,%esi
    e9f8:	89 c7                	mov    %eax,%edi
    e9fa:	e8 cd ac ff ff       	callq  96cc <safe_mod_func_int32_t_s_s>
    e9ff:	48 8b 95 20 fa ff ff 	mov    -0x5e0(%rbp),%rdx
    ea06:	89 02                	mov    %eax,(%rdx)
    ea08:	48 8b 85 20 fa ff ff 	mov    -0x5e0(%rbp),%rax
    ea0f:	8b 00                	mov    (%rax),%eax
    ea11:	48 98                	cltq   
    ea13:	4c 89 e6             	mov    %r12,%rsi
    ea16:	48 89 c7             	mov    %rax,%rdi
    ea19:	e8 23 ae ff ff       	callq  9841 <safe_add_func_int64_t_s_s>
    ea1e:	0f b6 c0             	movzbl %al,%eax
    ea21:	89 c6                	mov    %eax,%esi
    ea23:	bf fc 00 00 00       	mov    $0xfc,%edi
    ea28:	e8 2d b1 ff ff       	callq  9b5a <safe_add_func_uint8_t_u_u>
    ea2d:	48 8b 95 30 fa ff ff 	mov    -0x5d0(%rbp),%rdx
    ea34:	8b 12                	mov    (%rdx),%edx
    ea36:	0f b6 c0             	movzbl %al,%eax
    ea39:	09 c2                	or     %eax,%edx
    ea3b:	48 8b 85 30 fa ff ff 	mov    -0x5d0(%rbp),%rax
    ea42:	89 10                	mov    %edx,(%rax)
    ea44:	0f b7 85 74 f9 ff ff 	movzwl -0x68c(%rbp),%eax
    ea4b:	98                   	cwtl   
    ea4c:	89 de                	mov    %ebx,%esi
    ea4e:	89 c7                	mov    %eax,%edi
    ea50:	e8 0e ab ff ff       	callq  9563 <safe_rshift_func_int16_t_s_u>
    ea55:	0f bf d0             	movswl %ax,%edx
    ea58:	0f b7 85 74 f9 ff ff 	movzwl -0x68c(%rbp),%eax
    ea5f:	21 d0                	and    %edx,%eax
    ea61:	39 85 70 f9 ff ff    	cmp    %eax,-0x690(%rbp)
    ea67:	7e 0b                	jle    ea74 <func_6+0xfeb>
    ea69:	48 8b 85 20 fa ff ff 	mov    -0x5e0(%rbp),%rax
    ea70:	8b 00                	mov    (%rax),%eax
    ea72:	85 c0                	test   %eax,%eax
    ea74:	0f b6 85 78 f9 ff ff 	movzbl -0x688(%rbp),%eax
    ea7b:	f7 d0                	not    %eax
    ea7d:	c0 e8 07             	shr    $0x7,%al
    ea80:	0f b6 d0             	movzbl %al,%edx
    ea83:	0f bf 85 8c f9 ff ff 	movswl -0x674(%rbp),%eax
    ea8a:	39 c2                	cmp    %eax,%edx
    ea8c:	0f 9c c2             	setl   %dl
    ea8f:	48 8b 05 42 6e 01 00 	mov    0x16e42(%rip),%rax        # 258d8 <g_2249>
    ea96:	0f b6 d2             	movzbl %dl,%edx
    ea99:	89 10                	mov    %edx,(%rax)
    ea9b:	48 8b 85 20 fa ff ff 	mov    -0x5e0(%rbp),%rax
    eaa2:	8b 00                	mov    (%rax),%eax
    eaa4:	48 8b 5d c8          	mov    -0x38(%rbp),%rbx
    eaa8:	64 48 33 1c 25 28 00 	xor    %fs:0x28,%rbx
    eaaf:	00 00 
    eab1:	74 05                	je     eab8 <func_6+0x102f>
    eab3:	e8 b8 a5 ff ff       	callq  9070 <__stack_chk_fail@plt>
    eab8:	48 81 c4 68 06 00 00 	add    $0x668,%rsp
    eabf:	5b                   	pop    %rbx
    eac0:	41 5c                	pop    %r12
    eac2:	41 5d                	pop    %r13
    eac4:	41 5e                	pop    %r14
    eac6:	41 5f                	pop    %r15
    eac8:	5d                   	pop    %rbp
    eac9:	c3                   	retq   

000000000000eaca <func_14>:
    eaca:	f3 0f 1e fa          	endbr64 
    eace:	55                   	push   %rbp
    eacf:	48 89 e5             	mov    %rsp,%rbp
    ead2:	48 81 ec e0 03 00 00 	sub    $0x3e0,%rsp
    ead9:	89 f8                	mov    %edi,%eax
    eadb:	89 b5 28 fc ff ff    	mov    %esi,-0x3d8(%rbp)
    eae1:	66 89 85 2c fc ff ff 	mov    %ax,-0x3d4(%rbp)
    eae8:	64 48 8b 04 25 28 00 	mov    %fs:0x28,%rax
    eaef:	00 00 
    eaf1:	48 89 45 f8          	mov    %rax,-0x8(%rbp)
    eaf5:	31 c0                	xor    %eax,%eax
    eaf7:	48 8d 05 a6 35 01 00 	lea    0x135a6(%rip),%rax        # 220a4 <g_88>
    eafe:	48 89 85 60 fc ff ff 	mov    %rax,-0x3a0(%rbp)
    eb05:	c7 85 38 fc ff ff 02 	movl   $0x2,-0x3c8(%rbp)
    eb0c:	00 00 00 
    eb0f:	48 8d 05 da 39 01 00 	lea    0x139da(%rip),%rax        # 224f0 <g_1782>
    eb16:	48 89 85 68 fc ff ff 	mov    %rax,-0x398(%rbp)
    eb1d:	48 8d 05 cc 39 01 00 	lea    0x139cc(%rip),%rax        # 224f0 <g_1782>
    eb24:	48 89 85 70 fc ff ff 	mov    %rax,-0x390(%rbp)
    eb2b:	48 8d 05 b6 39 01 00 	lea    0x139b6(%rip),%rax        # 224e8 <g_1655>
    eb32:	48 89 85 78 fc ff ff 	mov    %rax,-0x388(%rbp)
    eb39:	48 8d 05 b4 39 01 00 	lea    0x139b4(%rip),%rax        # 224f4 <g_1782+0x4>
    eb40:	48 89 85 80 fc ff ff 	mov    %rax,-0x380(%rbp)
    eb47:	c7 85 40 fc ff ff 00 	movl   $0x0,-0x3c0(%rbp)
    eb4e:	00 00 00 
    eb51:	48 8d 05 88 39 01 00 	lea    0x13988(%rip),%rax        # 224e0 <g_1287+0x10>
    eb58:	48 89 85 88 fc ff ff 	mov    %rax,-0x378(%rbp)
    eb5f:	48 8d 05 76 39 01 00 	lea    0x13976(%rip),%rax        # 224dc <g_1287+0xc>
    eb66:	48 89 85 90 fc ff ff 	mov    %rax,-0x370(%rbp)
    eb6d:	48 8d 05 d0 34 01 00 	lea    0x134d0(%rip),%rax        # 22044 <g_39>
    eb74:	48 89 85 98 fc ff ff 	mov    %rax,-0x368(%rbp)
    eb7b:	48 8d 85 38 fc ff ff 	lea    -0x3c8(%rbp),%rax
    eb82:	48 89 85 a0 fc ff ff 	mov    %rax,-0x360(%rbp)
    eb89:	c7 85 44 fc ff ff e9 	movl   $0x2d1619e9,-0x3bc(%rbp)
    eb90:	19 16 2d 
    eb93:	48 8d 85 30 fe ff ff 	lea    -0x1d0(%rbp),%rax
    eb9a:	48 8d 15 ff f5 00 00 	lea    0xf5ff(%rip),%rdx        # 1e1a0 <g_431+0x122>
    eba1:	b9 38 00 00 00       	mov    $0x38,%ecx
    eba6:	48 89 c7             	mov    %rax,%rdi
    eba9:	48 89 d6             	mov    %rdx,%rsi
    ebac:	f3 48 a5             	rep movsq %ds:(%rsi),%es:(%rdi)
    ebaf:	48 8d 05 1a 74 01 00 	lea    0x1741a(%rip),%rax        # 25fd0 <g_713+0x10>
    ebb6:	48 89 85 f0 fc ff ff 	mov    %rax,-0x310(%rbp)
    ebbd:	48 8d 05 24 74 01 00 	lea    0x17424(%rip),%rax        # 25fe8 <g_713+0x28>
    ebc4:	48 89 85 f8 fc ff ff 	mov    %rax,-0x308(%rbp)
    ebcb:	48 8d 05 16 74 01 00 	lea    0x17416(%rip),%rax        # 25fe8 <g_713+0x28>
    ebd2:	48 89 85 00 fd ff ff 	mov    %rax,-0x300(%rbp)
    ebd9:	48 8d 05 f0 73 01 00 	lea    0x173f0(%rip),%rax        # 25fd0 <g_713+0x10>
    ebe0:	48 89 85 08 fd ff ff 	mov    %rax,-0x2f8(%rbp)
    ebe7:	48 8d 05 fa 73 01 00 	lea    0x173fa(%rip),%rax        # 25fe8 <g_713+0x28>
    ebee:	48 89 85 10 fd ff ff 	mov    %rax,-0x2f0(%rbp)
    ebf5:	48 8d 05 ec 73 01 00 	lea    0x173ec(%rip),%rax        # 25fe8 <g_713+0x28>
    ebfc:	48 89 85 18 fd ff ff 	mov    %rax,-0x2e8(%rbp)
    ec03:	48 8d 05 c6 73 01 00 	lea    0x173c6(%rip),%rax        # 25fd0 <g_713+0x10>
    ec0a:	48 89 85 20 fd ff ff 	mov    %rax,-0x2e0(%rbp)
    ec11:	48 8d 05 d0 73 01 00 	lea    0x173d0(%rip),%rax        # 25fe8 <g_713+0x28>
    ec18:	48 89 85 28 fd ff ff 	mov    %rax,-0x2d8(%rbp)
    ec1f:	48 8d 05 c2 73 01 00 	lea    0x173c2(%rip),%rax        # 25fe8 <g_713+0x28>
    ec26:	48 89 85 30 fd ff ff 	mov    %rax,-0x2d0(%rbp)
    ec2d:	48 8d 05 9c 73 01 00 	lea    0x1739c(%rip),%rax        # 25fd0 <g_713+0x10>
    ec34:	48 89 85 38 fd ff ff 	mov    %rax,-0x2c8(%rbp)
    ec3b:	48 8d 05 a6 73 01 00 	lea    0x173a6(%rip),%rax        # 25fe8 <g_713+0x28>
    ec42:	48 89 85 40 fd ff ff 	mov    %rax,-0x2c0(%rbp)
    ec49:	48 8d 05 98 73 01 00 	lea    0x17398(%rip),%rax        # 25fe8 <g_713+0x28>
    ec50:	48 89 85 48 fd ff ff 	mov    %rax,-0x2b8(%rbp)
    ec57:	c6 85 34 fc ff ff 62 	movb   $0x62,-0x3cc(%rbp)
    ec5e:	48 8d 05 8b 60 01 00 	lea    0x1608b(%rip),%rax        # 24cf0 <g_1216>
    ec65:	48 89 85 58 fc ff ff 	mov    %rax,-0x3a8(%rbp)
    ec6c:	48 8d 85 58 fc ff ff 	lea    -0x3a8(%rbp),%rax
    ec73:	48 89 85 50 fd ff ff 	mov    %rax,-0x2b0(%rbp)
    ec7a:	48 c7 85 58 fd ff ff 	movq   $0x0,-0x2a8(%rbp)
    ec81:	00 00 00 00 
    ec85:	48 8d 85 58 fc ff ff 	lea    -0x3a8(%rbp),%rax
    ec8c:	48 89 85 60 fd ff ff 	mov    %rax,-0x2a0(%rbp)
    ec93:	48 8d 85 58 fc ff ff 	lea    -0x3a8(%rbp),%rax
    ec9a:	48 89 85 68 fd ff ff 	mov    %rax,-0x298(%rbp)
    eca1:	48 8d 85 58 fc ff ff 	lea    -0x3a8(%rbp),%rax
    eca8:	48 89 85 70 fd ff ff 	mov    %rax,-0x290(%rbp)
    ecaf:	48 c7 85 78 fd ff ff 	movq   $0x0,-0x288(%rbp)
    ecb6:	00 00 00 00 
    ecba:	48 8d 85 58 fc ff ff 	lea    -0x3a8(%rbp),%rax
    ecc1:	48 89 85 80 fd ff ff 	mov    %rax,-0x280(%rbp)
    ecc8:	48 8d 85 58 fc ff ff 	lea    -0x3a8(%rbp),%rax
    eccf:	48 89 85 88 fd ff ff 	mov    %rax,-0x278(%rbp)
    ecd6:	48 8d 85 58 fc ff ff 	lea    -0x3a8(%rbp),%rax
    ecdd:	48 89 85 90 fd ff ff 	mov    %rax,-0x270(%rbp)
    ece4:	48 8d 85 58 fc ff ff 	lea    -0x3a8(%rbp),%rax
    eceb:	48 89 85 98 fd ff ff 	mov    %rax,-0x268(%rbp)
    ecf2:	48 8d 85 58 fc ff ff 	lea    -0x3a8(%rbp),%rax
    ecf9:	48 89 85 a0 fd ff ff 	mov    %rax,-0x260(%rbp)
    ed00:	48 8d 85 58 fc ff ff 	lea    -0x3a8(%rbp),%rax
    ed07:	48 89 85 a8 fd ff ff 	mov    %rax,-0x258(%rbp)
    ed0e:	48 8d 85 58 fc ff ff 	lea    -0x3a8(%rbp),%rax
    ed15:	48 89 85 b0 fd ff ff 	mov    %rax,-0x250(%rbp)
    ed1c:	48 8d 85 58 fc ff ff 	lea    -0x3a8(%rbp),%rax
    ed23:	48 89 85 b8 fd ff ff 	mov    %rax,-0x248(%rbp)
    ed2a:	48 8d 85 58 fc ff ff 	lea    -0x3a8(%rbp),%rax
    ed31:	48 89 85 c0 fd ff ff 	mov    %rax,-0x240(%rbp)
    ed38:	48 c7 85 c8 fd ff ff 	movq   $0x0,-0x238(%rbp)
    ed3f:	00 00 00 00 
    ed43:	48 8d 85 58 fc ff ff 	lea    -0x3a8(%rbp),%rax
    ed4a:	48 89 85 d0 fd ff ff 	mov    %rax,-0x230(%rbp)
    ed51:	48 8d 85 58 fc ff ff 	lea    -0x3a8(%rbp),%rax
    ed58:	48 89 85 d8 fd ff ff 	mov    %rax,-0x228(%rbp)
    ed5f:	48 8d 85 58 fc ff ff 	lea    -0x3a8(%rbp),%rax
    ed66:	48 89 85 e0 fd ff ff 	mov    %rax,-0x220(%rbp)
    ed6d:	48 8d 85 58 fc ff ff 	lea    -0x3a8(%rbp),%rax
    ed74:	48 89 85 e8 fd ff ff 	mov    %rax,-0x218(%rbp)
    ed7b:	48 8d 85 58 fc ff ff 	lea    -0x3a8(%rbp),%rax
    ed82:	48 89 85 f0 fd ff ff 	mov    %rax,-0x210(%rbp)
    ed89:	48 8d 85 58 fc ff ff 	lea    -0x3a8(%rbp),%rax
    ed90:	48 89 85 f8 fd ff ff 	mov    %rax,-0x208(%rbp)
    ed97:	48 8d 85 58 fc ff ff 	lea    -0x3a8(%rbp),%rax
    ed9e:	48 89 85 00 fe ff ff 	mov    %rax,-0x200(%rbp)
    eda5:	48 8d 85 58 fc ff ff 	lea    -0x3a8(%rbp),%rax
    edac:	48 89 85 08 fe ff ff 	mov    %rax,-0x1f8(%rbp)
    edb3:	48 8d 85 58 fc ff ff 	lea    -0x3a8(%rbp),%rax
    edba:	48 89 85 10 fe ff ff 	mov    %rax,-0x1f0(%rbp)
    edc1:	48 8d 85 58 fc ff ff 	lea    -0x3a8(%rbp),%rax
    edc8:	48 89 85 18 fe ff ff 	mov    %rax,-0x1e8(%rbp)
    edcf:	48 c7 85 20 fe ff ff 	movq   $0x0,-0x1e0(%rbp)
    edd6:	00 00 00 00 
    edda:	c6 85 35 fc ff ff df 	movb   $0xdf,-0x3cb(%rbp)
    ede1:	c7 85 3c fc ff ff 00 	movl   $0x0,-0x3c4(%rbp)
    ede8:	00 00 00 
    edeb:	eb 1e                	jmp    ee0b <func_14+0x341>
    eded:	8b 85 3c fc ff ff    	mov    -0x3c4(%rbp),%eax
    edf3:	48 98                	cltq   
    edf5:	48 8d 15 48 32 01 00 	lea    0x13248(%rip),%rdx        # 22044 <g_39>
    edfc:	48 89 94 c5 d0 fc ff 	mov    %rdx,-0x330(%rbp,%rax,8)
    ee03:	ff 
    ee04:	83 85 3c fc ff ff 01 	addl   $0x1,-0x3c4(%rbp)
    ee0b:	83 bd 3c fc ff ff 02 	cmpl   $0x2,-0x3c4(%rbp)
    ee12:	7e d9                	jle    eded <func_14+0x323>
    ee14:	48 8b 15 05 55 01 00 	mov    0x15505(%rip),%rdx        # 24320 <g_214>
    ee1b:	48 8b 05 2e 67 01 00 	mov    0x1672e(%rip),%rax        # 25550 <g_1787>
    ee22:	48 8b 12             	mov    (%rdx),%rdx
    ee25:	48 89 10             	mov    %rdx,(%rax)
    ee28:	83 ad 44 fc ff ff 01 	subl   $0x1,-0x3bc(%rbp)
    ee2f:	0f b7 85 70 ff ff ff 	movzwl -0x90(%rbp),%eax
    ee36:	83 c0 01             	add    $0x1,%eax
    ee39:	66 89 85 70 ff ff ff 	mov    %ax,-0x90(%rbp)
    ee40:	c6 05 51 36 01 00 f8 	movb   $0xf8,0x13651(%rip)        # 22498 <g_779>
    ee47:	e9 92 00 00 00       	jmpq   eede <func_14+0x414>
    ee4c:	48 8d 85 f0 fc ff ff 	lea    -0x310(%rbp),%rax
    ee53:	48 83 c0 18          	add    $0x18,%rax
    ee57:	48 89 85 a8 fc ff ff 	mov    %rax,-0x358(%rbp)
    ee5e:	66 c7 85 36 fc ff ff 	movw   $0x2a32,-0x3ca(%rbp)
    ee65:	32 2a 
    ee67:	c7 85 48 fc ff ff ff 	movl   $0xffffffff,-0x3b8(%rbp)
    ee6e:	ff ff ff 
    ee71:	48 8d 05 c0 55 01 00 	lea    0x155c0(%rip),%rax        # 24438 <g_310+0xf8>
    ee78:	48 89 85 b0 fc ff ff 	mov    %rax,-0x350(%rbp)
    ee7f:	48 8d 05 52 66 01 00 	lea    0x16652(%rip),%rax        # 254d8 <g_1395+0x38>
    ee86:	48 89 85 b8 fc ff ff 	mov    %rax,-0x348(%rbp)
    ee8d:	48 8d 05 ec 35 01 00 	lea    0x135ec(%rip),%rax        # 22480 <g_570>
    ee94:	48 89 85 c0 fc ff ff 	mov    %rax,-0x340(%rbp)
    ee9b:	c7 85 4c fc ff ff a7 	movl   $0xb0e751a7,-0x3b4(%rbp)
    eea2:	51 e7 b0 
    eea5:	c7 85 50 fc ff ff fe 	movl   $0xfffffffe,-0x3b0(%rbp)
    eeac:	ff ff ff 
    eeaf:	c7 85 54 fc ff ff 00 	movl   $0x0,-0x3ac(%rbp)
    eeb6:	00 00 00 
    eeb9:	48 8d 05 00 5c 01 00 	lea    0x15c00(%rip),%rax        # 24ac0 <g_332>
    eec0:	48 89 85 c8 fc ff ff 	mov    %rax,-0x338(%rbp)
    eec7:	c6 85 33 fc ff ff 00 	movb   $0x0,-0x3cd(%rbp)
    eece:	0f b6 05 c3 35 01 00 	movzbl 0x135c3(%rip),%eax        # 22498 <g_779>
    eed5:	83 c0 01             	add    $0x1,%eax
    eed8:	88 05 ba 35 01 00    	mov    %al,0x135ba(%rip)        # 22498 <g_779>
    eede:	0f b6 05 b3 35 01 00 	movzbl 0x135b3(%rip),%eax        # 22498 <g_779>
    eee5:	3c 01                	cmp    $0x1,%al
    eee7:	0f 85 5f ff ff ff    	jne    ee4c <func_14+0x382>
    eeed:	8b 85 28 fc ff ff    	mov    -0x3d8(%rbp),%eax
    eef3:	48 8b 4d f8          	mov    -0x8(%rbp),%rcx
    eef7:	64 48 33 0c 25 28 00 	xor    %fs:0x28,%rcx
    eefe:	00 00 
    ef00:	74 05                	je     ef07 <func_14+0x43d>
    ef02:	e8 69 a1 ff ff       	callq  9070 <__stack_chk_fail@plt>
    ef07:	c9                   	leaveq 
    ef08:	c3                   	retq   

000000000000ef09 <func_22>:
    ef09:	f3 0f 1e fa          	endbr64 
    ef0d:	55                   	push   %rbp
    ef0e:	48 89 e5             	mov    %rsp,%rbp
    ef11:	41 55                	push   %r13
    ef13:	41 54                	push   %r12
    ef15:	53                   	push   %rbx
    ef16:	48 81 ec e8 0d 00 00 	sub    $0xde8,%rsp
    ef1d:	89 f8                	mov    %edi,%eax
    ef1f:	89 f2                	mov    %esi,%edx
    ef21:	66 89 85 0c f2 ff ff 	mov    %ax,-0xdf4(%rbp)
    ef28:	89 d0                	mov    %edx,%eax
    ef2a:	88 85 08 f2 ff ff    	mov    %al,-0xdf8(%rbp)
    ef30:	64 48 8b 04 25 28 00 	mov    %fs:0x28,%rax
    ef37:	00 00 
    ef39:	48 89 45 d8          	mov    %rax,-0x28(%rbp)
    ef3d:	31 c0                	xor    %eax,%eax
    ef3f:	c7 85 90 f2 ff ff 03 	movl   $0x3,-0xd70(%rbp)
    ef46:	00 00 00 
    ef49:	c7 85 94 f2 ff ff 0d 	movl   $0x7266280d,-0xd6c(%rbp)
    ef50:	28 66 72 
    ef53:	c7 85 30 f2 ff ff 34 	movl   $0x1aa0ab34,-0xdd0(%rbp)
    ef5a:	ab a0 1a 
    ef5d:	c7 85 98 f2 ff ff fa 	movl   $0x61211cfa,-0xd68(%rbp)
    ef64:	1c 21 61 
    ef67:	c7 85 34 f2 ff ff 04 	movl   $0x4,-0xdcc(%rbp)
    ef6e:	00 00 00 
    ef71:	c7 85 38 f2 ff ff ff 	movl   $0xffffffff,-0xdc8(%rbp)
    ef78:	ff ff ff 
    ef7b:	c7 85 3c f2 ff ff 43 	movl   $0xdc112543,-0xdc4(%rbp)
    ef82:	25 11 dc 
    ef85:	c7 85 40 f2 ff ff 93 	movl   $0xa006b293,-0xdc0(%rbp)
    ef8c:	b2 06 a0 
    ef8f:	48 c7 85 e0 f4 ff ff 	movq   $0x0,-0xb20(%rbp)
    ef96:	00 00 00 00 
    ef9a:	48 c7 85 e8 f4 ff ff 	movq   $0x0,-0xb18(%rbp)
    efa1:	00 00 00 00 
    efa5:	c7 85 f0 f4 ff ff 00 	movl   $0x0,-0xb10(%rbp)
    efac:	00 00 00 
    efaf:	c7 85 44 f2 ff ff b9 	movl   $0xa9ccb8b9,-0xdbc(%rbp)
    efb6:	b8 cc a9 
    efb9:	48 c7 85 68 f3 ff ff 	movq   $0xffffffffffffffff,-0xc98(%rbp)
    efc0:	ff ff ff ff 
    efc4:	c7 85 9c f2 ff ff 8f 	movl   $0x74de918f,-0xd64(%rbp)
    efcb:	91 de 74 
    efce:	c6 85 20 f8 ff ff 07 	movb   $0x7,-0x7e0(%rbp)
    efd5:	c6 85 21 f8 ff ff 06 	movb   $0x6,-0x7df(%rbp)
    efdc:	c6 85 22 f8 ff ff e5 	movb   $0xe5,-0x7de(%rbp)
    efe3:	c6 85 23 f8 ff ff 09 	movb   $0x9,-0x7dd(%rbp)
    efea:	c6 85 24 f8 ff ff d2 	movb   $0xd2,-0x7dc(%rbp)
    eff1:	c6 85 25 f8 ff ff c7 	movb   $0xc7,-0x7db(%rbp)
    eff8:	c6 85 26 f8 ff ff 9e 	movb   $0x9e,-0x7da(%rbp)
    efff:	c6 85 27 f8 ff ff e5 	movb   $0xe5,-0x7d9(%rbp)
    f006:	c6 85 28 f8 ff ff f7 	movb   $0xf7,-0x7d8(%rbp)
    f00d:	c6 85 29 f8 ff ff d2 	movb   $0xd2,-0x7d7(%rbp)
    f014:	c6 85 2a f8 ff ff 00 	movb   $0x0,-0x7d6(%rbp)
    f01b:	c6 85 2b f8 ff ff ff 	movb   $0xff,-0x7d5(%rbp)
    f022:	c6 85 2c f8 ff ff 09 	movb   $0x9,-0x7d4(%rbp)
    f029:	c6 85 2d f8 ff ff c7 	movb   $0xc7,-0x7d3(%rbp)
    f030:	c6 85 2e f8 ff ff 07 	movb   $0x7,-0x7d2(%rbp)
    f037:	c6 85 2f f8 ff ff d9 	movb   $0xd9,-0x7d1(%rbp)
    f03e:	c6 85 30 f8 ff ff 00 	movb   $0x0,-0x7d0(%rbp)
    f045:	c6 85 31 f8 ff ff 06 	movb   $0x6,-0x7cf(%rbp)
    f04c:	c6 85 32 f8 ff ff d9 	movb   $0xd9,-0x7ce(%rbp)
    f053:	c6 85 33 f8 ff ff cc 	movb   $0xcc,-0x7cd(%rbp)
    f05a:	c6 85 34 f8 ff ff 9e 	movb   $0x9e,-0x7cc(%rbp)
    f061:	c6 85 35 f8 ff ff cc 	movb   $0xcc,-0x7cb(%rbp)
    f068:	c6 85 36 f8 ff ff d9 	movb   $0xd9,-0x7ca(%rbp)
    f06f:	c6 85 37 f8 ff ff 06 	movb   $0x6,-0x7c9(%rbp)
    f076:	c6 85 38 f8 ff ff d9 	movb   $0xd9,-0x7c8(%rbp)
    f07d:	c6 85 39 f8 ff ff 08 	movb   $0x8,-0x7c7(%rbp)
    f084:	c6 85 3a f8 ff ff 66 	movb   $0x66,-0x7c6(%rbp)
    f08b:	c6 85 3b f8 ff ff e5 	movb   $0xe5,-0x7c5(%rbp)
    f092:	c6 85 3c f8 ff ff 01 	movb   $0x1,-0x7c4(%rbp)
    f099:	c6 85 3d f8 ff ff d9 	movb   $0xd9,-0x7c3(%rbp)
    f0a0:	c6 85 3e f8 ff ff 38 	movb   $0x38,-0x7c2(%rbp)
    f0a7:	c6 85 3f f8 ff ff ff 	movb   $0xff,-0x7c1(%rbp)
    f0ae:	c6 85 40 f8 ff ff 07 	movb   $0x7,-0x7c0(%rbp)
    f0b5:	c6 85 41 f8 ff ff 38 	movb   $0x38,-0x7bf(%rbp)
    f0bc:	c6 85 42 f8 ff ff cc 	movb   $0xcc,-0x7be(%rbp)
    f0c3:	c6 85 43 f8 ff ff 00 	movb   $0x0,-0x7bd(%rbp)
    f0ca:	c6 85 44 f8 ff ff d9 	movb   $0xd9,-0x7bc(%rbp)
    f0d1:	c6 85 45 f8 ff ff 07 	movb   $0x7,-0x7bb(%rbp)
    f0d8:	c6 85 46 f8 ff ff 38 	movb   $0x38,-0x7ba(%rbp)
    f0df:	c6 85 47 f8 ff ff 01 	movb   $0x1,-0x7b9(%rbp)
    f0e6:	c6 85 48 f8 ff ff 00 	movb   $0x0,-0x7b8(%rbp)
    f0ed:	c6 85 49 f8 ff ff 00 	movb   $0x0,-0x7b7(%rbp)
    f0f4:	c6 85 4a f8 ff ff 66 	movb   $0x66,-0x7b6(%rbp)
    f0fb:	c6 85 4b f8 ff ff d9 	movb   $0xd9,-0x7b5(%rbp)
    f102:	c6 85 4c f8 ff ff d2 	movb   $0xd2,-0x7b4(%rbp)
    f109:	c6 85 4d f8 ff ff d2 	movb   $0xd2,-0x7b3(%rbp)
    f110:	c6 85 4e f8 ff ff d9 	movb   $0xd9,-0x7b2(%rbp)
    f117:	c6 85 4f f8 ff ff 66 	movb   $0x66,-0x7b1(%rbp)
    f11e:	c6 85 50 f8 ff ff d2 	movb   $0xd2,-0x7b0(%rbp)
    f125:	c6 85 51 f8 ff ff d2 	movb   $0xd2,-0x7af(%rbp)
    f12c:	c6 85 52 f8 ff ff d9 	movb   $0xd9,-0x7ae(%rbp)
    f133:	c6 85 53 f8 ff ff 66 	movb   $0x66,-0x7ad(%rbp)
    f13a:	c6 85 54 f8 ff ff 00 	movb   $0x0,-0x7ac(%rbp)
    f141:	c6 85 55 f8 ff ff 00 	movb   $0x0,-0x7ab(%rbp)
    f148:	c6 85 56 f8 ff ff 07 	movb   $0x7,-0x7aa(%rbp)
    f14f:	c6 85 57 f8 ff ff 09 	movb   $0x9,-0x7a9(%rbp)
    f156:	c6 85 58 f8 ff ff 07 	movb   $0x7,-0x7a8(%rbp)
    f15d:	c6 85 59 f8 ff ff d9 	movb   $0xd9,-0x7a7(%rbp)
    f164:	c6 85 5a f8 ff ff 00 	movb   $0x0,-0x7a6(%rbp)
    f16b:	c6 85 5b f8 ff ff cc 	movb   $0xcc,-0x7a5(%rbp)
    f172:	c6 85 5c f8 ff ff 38 	movb   $0x38,-0x7a4(%rbp)
    f179:	c6 85 5d f8 ff ff 07 	movb   $0x7,-0x7a3(%rbp)
    f180:	c6 85 5e f8 ff ff 9e 	movb   $0x9e,-0x7a2(%rbp)
    f187:	c6 85 5f f8 ff ff 09 	movb   $0x9,-0x7a1(%rbp)
    f18e:	c6 85 60 f8 ff ff d9 	movb   $0xd9,-0x7a0(%rbp)
    f195:	c6 85 61 f8 ff ff 01 	movb   $0x1,-0x79f(%rbp)
    f19c:	c6 85 62 f8 ff ff e5 	movb   $0xe5,-0x79e(%rbp)
    f1a3:	c6 85 63 f8 ff ff 66 	movb   $0x66,-0x79d(%rbp)
    f1aa:	c6 85 64 f8 ff ff 08 	movb   $0x8,-0x79c(%rbp)
    f1b1:	c6 85 65 f8 ff ff d9 	movb   $0xd9,-0x79b(%rbp)
    f1b8:	c6 85 66 f8 ff ff 08 	movb   $0x8,-0x79a(%rbp)
    f1bf:	c6 85 67 f8 ff ff 66 	movb   $0x66,-0x799(%rbp)
    f1c6:	c6 85 68 f8 ff ff cc 	movb   $0xcc,-0x798(%rbp)
    f1cd:	c6 85 69 f8 ff ff 9e 	movb   $0x9e,-0x797(%rbp)
    f1d4:	c6 85 6a f8 ff ff cc 	movb   $0xcc,-0x796(%rbp)
    f1db:	c6 85 6b f8 ff ff d9 	movb   $0xd9,-0x795(%rbp)
    f1e2:	c6 85 6c f8 ff ff 06 	movb   $0x6,-0x794(%rbp)
    f1e9:	c6 85 6d f8 ff ff 00 	movb   $0x0,-0x793(%rbp)
    f1f0:	c6 85 6e f8 ff ff 9e 	movb   $0x9e,-0x792(%rbp)
    f1f7:	c6 85 6f f8 ff ff 01 	movb   $0x1,-0x791(%rbp)
    f1fe:	c6 85 70 f8 ff ff c7 	movb   $0xc7,-0x790(%rbp)
    f205:	c6 85 71 f8 ff ff 09 	movb   $0x9,-0x78f(%rbp)
    f20c:	c6 85 72 f8 ff ff ff 	movb   $0xff,-0x78e(%rbp)
    f213:	c6 85 73 f8 ff ff 00 	movb   $0x0,-0x78d(%rbp)
    f21a:	c6 85 74 f8 ff ff d2 	movb   $0xd2,-0x78c(%rbp)
    f221:	c6 85 75 f8 ff ff f7 	movb   $0xf7,-0x78b(%rbp)
    f228:	c6 85 76 f8 ff ff 06 	movb   $0x6,-0x78a(%rbp)
    f22f:	c6 85 77 f8 ff ff ff 	movb   $0xff,-0x789(%rbp)
    f236:	c6 85 78 f8 ff ff c7 	movb   $0xc7,-0x788(%rbp)
    f23d:	c6 85 79 f8 ff ff d2 	movb   $0xd2,-0x787(%rbp)
    f244:	c6 85 7a f8 ff ff 09 	movb   $0x9,-0x786(%rbp)
    f24b:	c6 85 7b f8 ff ff e5 	movb   $0xe5,-0x785(%rbp)
    f252:	c6 85 7c f8 ff ff 06 	movb   $0x6,-0x784(%rbp)
    f259:	c6 85 7d f8 ff ff 07 	movb   $0x7,-0x783(%rbp)
    f260:	c6 85 7e f8 ff ff 07 	movb   $0x7,-0x782(%rbp)
    f267:	c6 85 7f f8 ff ff 06 	movb   $0x6,-0x781(%rbp)
    f26e:	c6 85 80 f8 ff ff cc 	movb   $0xcc,-0x780(%rbp)
    f275:	c6 85 81 f8 ff ff 9e 	movb   $0x9e,-0x77f(%rbp)
    f27c:	c6 85 82 f8 ff ff 9e 	movb   $0x9e,-0x77e(%rbp)
    f283:	c6 85 83 f8 ff ff cc 	movb   $0xcc,-0x77d(%rbp)
    f28a:	c6 85 84 f8 ff ff 08 	movb   $0x8,-0x77c(%rbp)
    f291:	c6 85 85 f8 ff ff 01 	movb   $0x1,-0x77b(%rbp)
    f298:	c6 85 86 f8 ff ff 09 	movb   $0x9,-0x77a(%rbp)
    f29f:	c6 85 87 f8 ff ff d9 	movb   $0xd9,-0x779(%rbp)
    f2a6:	c6 85 88 f8 ff ff d9 	movb   $0xd9,-0x778(%rbp)
    f2ad:	c6 85 89 f8 ff ff fa 	movb   $0xfa,-0x777(%rbp)
    f2b4:	c6 85 8a f8 ff ff 09 	movb   $0x9,-0x776(%rbp)
    f2bb:	c6 85 8b f8 ff ff ff 	movb   $0xff,-0x775(%rbp)
    f2c2:	c6 85 8c f8 ff ff 38 	movb   $0x38,-0x774(%rbp)
    f2c9:	c6 85 8d f8 ff ff d9 	movb   $0xd9,-0x773(%rbp)
    f2d0:	c6 85 8e f8 ff ff 01 	movb   $0x1,-0x772(%rbp)
    f2d7:	c6 85 8f f8 ff ff e5 	movb   $0xe5,-0x771(%rbp)
    f2de:	c6 85 90 f8 ff ff 07 	movb   $0x7,-0x770(%rbp)
    f2e5:	c6 85 91 f8 ff ff fa 	movb   $0xfa,-0x76f(%rbp)
    f2ec:	c6 85 92 f8 ff ff cc 	movb   $0xcc,-0x76e(%rbp)
    f2f3:	c6 85 93 f8 ff ff 09 	movb   $0x9,-0x76d(%rbp)
    f2fa:	c6 85 94 f8 ff ff 00 	movb   $0x0,-0x76c(%rbp)
    f301:	c6 85 95 f8 ff ff 01 	movb   $0x1,-0x76b(%rbp)
    f308:	c6 85 96 f8 ff ff fa 	movb   $0xfa,-0x76a(%rbp)
    f30f:	c6 85 97 f8 ff ff 01 	movb   $0x1,-0x769(%rbp)
    f316:	c6 85 98 f8 ff ff d2 	movb   $0xd2,-0x768(%rbp)
    f31d:	c6 85 99 f8 ff ff 9e 	movb   $0x9e,-0x767(%rbp)
    f324:	c6 85 9a f8 ff ff 03 	movb   $0x3,-0x766(%rbp)
    f32b:	c6 85 9b f8 ff ff 9e 	movb   $0x9e,-0x765(%rbp)
    f332:	c6 85 9c f8 ff ff d2 	movb   $0xd2,-0x764(%rbp)
    f339:	c6 85 9d f8 ff ff 07 	movb   $0x7,-0x763(%rbp)
    f340:	c6 85 9e f8 ff ff 00 	movb   $0x0,-0x762(%rbp)
    f347:	c6 85 9f f8 ff ff 03 	movb   $0x3,-0x761(%rbp)
    f34e:	c6 85 a0 f8 ff ff 00 	movb   $0x0,-0x760(%rbp)
    f355:	c6 85 a1 f8 ff ff d2 	movb   $0xd2,-0x75f(%rbp)
    f35c:	c6 85 a2 f8 ff ff 06 	movb   $0x6,-0x75e(%rbp)
    f363:	c6 85 a3 f8 ff ff 09 	movb   $0x9,-0x75d(%rbp)
    f36a:	c6 85 a4 f8 ff ff d9 	movb   $0xd9,-0x75c(%rbp)
    f371:	c6 85 a5 f8 ff ff f7 	movb   $0xf7,-0x75b(%rbp)
    f378:	c6 85 a6 f8 ff ff 07 	movb   $0x7,-0x75a(%rbp)
    f37f:	c6 85 a7 f8 ff ff 9e 	movb   $0x9e,-0x759(%rbp)
    f386:	c6 85 a8 f8 ff ff 07 	movb   $0x7,-0x758(%rbp)
    f38d:	c6 85 a9 f8 ff ff 09 	movb   $0x9,-0x757(%rbp)
    f394:	c6 85 aa f8 ff ff 06 	movb   $0x6,-0x756(%rbp)
    f39b:	c6 85 ab f8 ff ff cc 	movb   $0xcc,-0x755(%rbp)
    f3a2:	c6 85 ac f8 ff ff 01 	movb   $0x1,-0x754(%rbp)
    f3a9:	c6 85 ad f8 ff ff 00 	movb   $0x0,-0x753(%rbp)
    f3b0:	c6 85 ae f8 ff ff 00 	movb   $0x0,-0x752(%rbp)
    f3b7:	c6 85 af f8 ff ff 00 	movb   $0x0,-0x751(%rbp)
    f3be:	c6 85 b0 f8 ff ff d9 	movb   $0xd9,-0x750(%rbp)
    f3c5:	c6 85 b1 f8 ff ff 9e 	movb   $0x9e,-0x74f(%rbp)
    f3cc:	c6 85 b2 f8 ff ff 03 	movb   $0x3,-0x74e(%rbp)
    f3d3:	c6 85 b3 f8 ff ff 03 	movb   $0x3,-0x74d(%rbp)
    f3da:	c6 85 b4 f8 ff ff 9e 	movb   $0x9e,-0x74c(%rbp)
    f3e1:	c6 85 b5 f8 ff ff d9 	movb   $0xd9,-0x74b(%rbp)
    f3e8:	c6 85 b6 f8 ff ff fa 	movb   $0xfa,-0x74a(%rbp)
    f3ef:	c6 85 b7 f8 ff ff 09 	movb   $0x9,-0x749(%rbp)
    f3f6:	c6 85 b8 f8 ff ff 00 	movb   $0x0,-0x748(%rbp)
    f3fd:	c6 85 b9 f8 ff ff 01 	movb   $0x1,-0x747(%rbp)
    f404:	c6 85 ba f8 ff ff cc 	movb   $0xcc,-0x746(%rbp)
    f40b:	c6 85 bb f8 ff ff 06 	movb   $0x6,-0x745(%rbp)
    f412:	c6 85 bc f8 ff ff 09 	movb   $0x9,-0x744(%rbp)
    f419:	c6 85 bd f8 ff ff 07 	movb   $0x7,-0x743(%rbp)
    f420:	c6 85 be f8 ff ff 01 	movb   $0x1,-0x742(%rbp)
    f427:	c6 85 bf f8 ff ff 01 	movb   $0x1,-0x741(%rbp)
    f42e:	c6 85 c0 f8 ff ff f7 	movb   $0xf7,-0x740(%rbp)
    f435:	c6 85 c1 f8 ff ff d9 	movb   $0xd9,-0x73f(%rbp)
    f43c:	c6 85 c2 f8 ff ff 09 	movb   $0x9,-0x73e(%rbp)
    f443:	c6 85 c3 f8 ff ff 06 	movb   $0x6,-0x73d(%rbp)
    f44a:	c6 85 c4 f8 ff ff d2 	movb   $0xd2,-0x73c(%rbp)
    f451:	c6 85 c5 f8 ff ff 00 	movb   $0x0,-0x73b(%rbp)
    f458:	c6 85 c6 f8 ff ff 09 	movb   $0x9,-0x73a(%rbp)
    f45f:	c6 85 c7 f8 ff ff 09 	movb   $0x9,-0x739(%rbp)
    f466:	c6 85 c8 f8 ff ff 06 	movb   $0x6,-0x738(%rbp)
    f46d:	c6 85 c9 f8 ff ff d9 	movb   $0xd9,-0x737(%rbp)
    f474:	c6 85 ca f8 ff ff cc 	movb   $0xcc,-0x736(%rbp)
    f47b:	c6 85 cb f8 ff ff 9e 	movb   $0x9e,-0x735(%rbp)
    f482:	c6 85 cc f8 ff ff cc 	movb   $0xcc,-0x734(%rbp)
    f489:	c6 85 cd f8 ff ff d9 	movb   $0xd9,-0x733(%rbp)
    f490:	c6 85 ce f8 ff ff 06 	movb   $0x6,-0x732(%rbp)
    f497:	c6 85 cf f8 ff ff 00 	movb   $0x0,-0x731(%rbp)
    f49e:	c6 85 d0 f8 ff ff e5 	movb   $0xe5,-0x730(%rbp)
    f4a5:	c6 85 d1 f8 ff ff 00 	movb   $0x0,-0x72f(%rbp)
    f4ac:	c6 85 d2 f8 ff ff 07 	movb   $0x7,-0x72e(%rbp)
    f4b3:	c6 85 d3 f8 ff ff ff 	movb   $0xff,-0x72d(%rbp)
    f4ba:	c6 85 d4 f8 ff ff c7 	movb   $0xc7,-0x72c(%rbp)
    f4c1:	c6 85 d5 f8 ff ff 03 	movb   $0x3,-0x72b(%rbp)
    f4c8:	c6 85 d6 f8 ff ff 01 	movb   $0x1,-0x72a(%rbp)
    f4cf:	c6 85 d7 f8 ff ff cc 	movb   $0xcc,-0x729(%rbp)
    f4d6:	c6 85 d8 f8 ff ff 07 	movb   $0x7,-0x728(%rbp)
    f4dd:	c6 85 d9 f8 ff ff f7 	movb   $0xf7,-0x727(%rbp)
    f4e4:	c6 85 da f8 ff ff 08 	movb   $0x8,-0x726(%rbp)
    f4eb:	c6 85 db f8 ff ff 01 	movb   $0x1,-0x725(%rbp)
    f4f2:	c6 85 dc f8 ff ff c7 	movb   $0xc7,-0x724(%rbp)
    f4f9:	c6 85 dd f8 ff ff 07 	movb   $0x7,-0x723(%rbp)
    f500:	c6 85 de f8 ff ff d2 	movb   $0xd2,-0x722(%rbp)
    f507:	c6 85 df f8 ff ff 9e 	movb   $0x9e,-0x721(%rbp)
    f50e:	c6 85 e0 f8 ff ff e5 	movb   $0xe5,-0x720(%rbp)
    f515:	c6 85 e1 f8 ff ff 07 	movb   $0x7,-0x71f(%rbp)
    f51c:	c6 85 e2 f8 ff ff ff 	movb   $0xff,-0x71e(%rbp)
    f523:	c6 85 e3 f8 ff ff cc 	movb   $0xcc,-0x71d(%rbp)
    f52a:	c6 85 e4 f8 ff ff cc 	movb   $0xcc,-0x71c(%rbp)
    f531:	c6 85 e5 f8 ff ff ff 	movb   $0xff,-0x71b(%rbp)
    f538:	c6 85 e6 f8 ff ff 07 	movb   $0x7,-0x71a(%rbp)
    f53f:	c6 85 e7 f8 ff ff e5 	movb   $0xe5,-0x719(%rbp)
    f546:	c6 85 e8 f8 ff ff 06 	movb   $0x6,-0x718(%rbp)
    f54d:	c6 85 e9 f8 ff ff 01 	movb   $0x1,-0x717(%rbp)
    f554:	c6 85 ea f8 ff ff 38 	movb   $0x38,-0x716(%rbp)
    f55b:	c6 85 eb f8 ff ff 07 	movb   $0x7,-0x715(%rbp)
    f562:	c6 85 ec f8 ff ff d9 	movb   $0xd9,-0x714(%rbp)
    f569:	c6 85 ed f8 ff ff 00 	movb   $0x0,-0x713(%rbp)
    f570:	c6 85 ee f8 ff ff cc 	movb   $0xcc,-0x712(%rbp)
    f577:	c6 85 ef f8 ff ff 38 	movb   $0x38,-0x711(%rbp)
    f57e:	c6 85 f0 f8 ff ff 09 	movb   $0x9,-0x710(%rbp)
    f585:	c6 85 f1 f8 ff ff d9 	movb   $0xd9,-0x70f(%rbp)
    f58c:	c6 85 f2 f8 ff ff 00 	movb   $0x0,-0x70e(%rbp)
    f593:	c6 85 f3 f8 ff ff 08 	movb   $0x8,-0x70d(%rbp)
    f59a:	c6 85 f4 f8 ff ff 07 	movb   $0x7,-0x70c(%rbp)
    f5a1:	c6 85 f5 f8 ff ff 00 	movb   $0x0,-0x70b(%rbp)
    f5a8:	c6 85 f6 f8 ff ff 06 	movb   $0x6,-0x70a(%rbp)
    f5af:	c6 85 f7 f8 ff ff 07 	movb   $0x7,-0x709(%rbp)
    f5b6:	c6 85 f8 f8 ff ff 09 	movb   $0x9,-0x708(%rbp)
    f5bd:	c6 85 f9 f8 ff ff 01 	movb   $0x1,-0x707(%rbp)
    f5c4:	c6 85 fa f8 ff ff 07 	movb   $0x7,-0x706(%rbp)
    f5cb:	c6 85 fb f8 ff ff ff 	movb   $0xff,-0x705(%rbp)
    f5d2:	c6 85 fc f8 ff ff d2 	movb   $0xd2,-0x704(%rbp)
    f5d9:	c6 85 fd f8 ff ff ff 	movb   $0xff,-0x703(%rbp)
    f5e0:	c6 85 fe f8 ff ff 07 	movb   $0x7,-0x702(%rbp)
    f5e7:	c6 85 ff f8 ff ff 01 	movb   $0x1,-0x701(%rbp)
    f5ee:	c6 85 00 f9 ff ff 07 	movb   $0x7,-0x700(%rbp)
    f5f5:	c6 85 01 f9 ff ff 07 	movb   $0x7,-0x6ff(%rbp)
    f5fc:	c6 85 02 f9 ff ff fa 	movb   $0xfa,-0x6fe(%rbp)
    f603:	c6 85 03 f9 ff ff 38 	movb   $0x38,-0x6fd(%rbp)
    f60a:	c6 85 04 f9 ff ff 00 	movb   $0x0,-0x6fc(%rbp)
    f611:	c6 85 05 f9 ff ff 07 	movb   $0x7,-0x6fb(%rbp)
    f618:	c6 85 06 f9 ff ff f7 	movb   $0xf7,-0x6fa(%rbp)
    f61f:	c6 85 07 f9 ff ff 08 	movb   $0x8,-0x6f9(%rbp)
    f626:	c6 85 08 f9 ff ff 66 	movb   $0x66,-0x6f8(%rbp)
    f62d:	c6 85 09 f9 ff ff f7 	movb   $0xf7,-0x6f7(%rbp)
    f634:	c6 85 0a f9 ff ff ff 	movb   $0xff,-0x6f6(%rbp)
    f63b:	c6 85 0b f9 ff ff 00 	movb   $0x0,-0x6f5(%rbp)
    f642:	c6 85 0c f9 ff ff 07 	movb   $0x7,-0x6f4(%rbp)
    f649:	c6 85 0d f9 ff ff 03 	movb   $0x3,-0x6f3(%rbp)
    f650:	c6 85 0e f9 ff ff f7 	movb   $0xf7,-0x6f2(%rbp)
    f657:	c6 85 0f f9 ff ff e5 	movb   $0xe5,-0x6f1(%rbp)
    f65e:	c7 85 a0 f2 ff ff 01 	movl   $0x1,-0xd60(%rbp)
    f665:	00 00 00 
    f668:	48 b8 53 0a de fa 25 	movabs $0x515ec825fade0a53,%rax
    f66f:	c8 5e 51 
    f672:	48 89 85 60 f3 ff ff 	mov    %rax,-0xca0(%rbp)
    f679:	c7 85 a4 f2 ff ff ff 	movl   $0xffffffff,-0xd5c(%rbp)
    f680:	ff ff ff 
    f683:	c7 85 a8 f2 ff ff 00 	movl   $0x0,-0xd58(%rbp)
    f68a:	00 00 00 
    f68d:	48 8d 05 ec 68 01 00 	lea    0x168ec(%rip),%rax        # 25f80 <g_622>
    f694:	48 89 85 70 f3 ff ff 	mov    %rax,-0xc90(%rbp)
    f69b:	48 c7 85 78 f3 ff ff 	movq   $0x0,-0xc88(%rbp)
    f6a2:	00 00 00 00 
    f6a6:	48 8d 85 30 f2 ff ff 	lea    -0xdd0(%rbp),%rax
    f6ad:	48 89 85 80 f3 ff ff 	mov    %rax,-0xc80(%rbp)
    f6b4:	48 8d 85 c8 f4 ff ff 	lea    -0xb38(%rbp),%rax
    f6bb:	48 89 85 88 f3 ff ff 	mov    %rax,-0xc78(%rbp)
    f6c2:	48 8d 85 40 f2 ff ff 	lea    -0xdc0(%rbp),%rax
    f6c9:	48 89 85 f0 f5 ff ff 	mov    %rax,-0xa10(%rbp)
    f6d0:	48 8d 85 3c f2 ff ff 	lea    -0xdc4(%rbp),%rax
    f6d7:	48 89 85 f8 f5 ff ff 	mov    %rax,-0xa08(%rbp)
    f6de:	48 8d 85 40 f2 ff ff 	lea    -0xdc0(%rbp),%rax
    f6e5:	48 89 85 00 f6 ff ff 	mov    %rax,-0xa00(%rbp)
    f6ec:	48 8d 85 40 f2 ff ff 	lea    -0xdc0(%rbp),%rax
    f6f3:	48 89 85 08 f6 ff ff 	mov    %rax,-0x9f8(%rbp)
    f6fa:	48 8d 85 3c f2 ff ff 	lea    -0xdc4(%rbp),%rax
    f701:	48 89 85 10 f6 ff ff 	mov    %rax,-0x9f0(%rbp)
    f708:	48 8d 85 40 f2 ff ff 	lea    -0xdc0(%rbp),%rax
    f70f:	48 89 85 18 f6 ff ff 	mov    %rax,-0x9e8(%rbp)
    f716:	48 8d 85 40 f2 ff ff 	lea    -0xdc0(%rbp),%rax
    f71d:	48 89 85 20 f6 ff ff 	mov    %rax,-0x9e0(%rbp)
    f724:	48 8d 85 3c f2 ff ff 	lea    -0xdc4(%rbp),%rax
    f72b:	48 89 85 28 f6 ff ff 	mov    %rax,-0x9d8(%rbp)
    f732:	66 c7 85 28 f2 ff ff 	movw   $0x70ef,-0xdd8(%rbp)
    f739:	ef 70 
    f73b:	c7 85 58 f2 ff ff 00 	movl   $0x0,-0xda8(%rbp)
    f742:	00 00 00 
    f745:	eb 45                	jmp    f78c <func_22+0x883>
    f747:	c7 85 5c f2 ff ff 00 	movl   $0x0,-0xda4(%rbp)
    f74e:	00 00 00 
    f751:	eb 29                	jmp    f77c <func_22+0x873>
    f753:	8b 85 5c f2 ff ff    	mov    -0xda4(%rbp),%eax
    f759:	48 98                	cltq   
    f75b:	8b 95 58 f2 ff ff    	mov    -0xda8(%rbp),%edx
    f761:	48 63 d2             	movslq %edx,%rdx
    f764:	48 01 d2             	add    %rdx,%rdx
    f767:	48 01 d0             	add    %rdx,%rax
    f76a:	c7 84 85 d0 f4 ff ff 	movl   $0xf069f65c,-0xb30(%rbp,%rax,4)
    f771:	5c f6 69 f0 
    f775:	83 85 5c f2 ff ff 01 	addl   $0x1,-0xda4(%rbp)
    f77c:	83 bd 5c f2 ff ff 01 	cmpl   $0x1,-0xda4(%rbp)
    f783:	7e ce                	jle    f753 <func_22+0x84a>
    f785:	83 85 58 f2 ff ff 01 	addl   $0x1,-0xda8(%rbp)
    f78c:	83 bd 58 f2 ff ff 01 	cmpl   $0x1,-0xda8(%rbp)
    f793:	7e b2                	jle    f747 <func_22+0x83e>
    f795:	c7 85 58 f2 ff ff 00 	movl   $0x0,-0xda8(%rbp)
    f79c:	00 00 00 
    f79f:	eb 1a                	jmp    f7bb <func_22+0x8b2>
    f7a1:	8b 85 58 f2 ff ff    	mov    -0xda8(%rbp),%eax
    f7a7:	48 98                	cltq   
    f7a9:	c7 84 85 c8 f4 ff ff 	movl   $0x1af1d642,-0xb38(%rbp,%rax,4)
    f7b0:	42 d6 f1 1a 
    f7b4:	83 85 58 f2 ff ff 01 	addl   $0x1,-0xda8(%rbp)
    f7bb:	83 bd 58 f2 ff ff 01 	cmpl   $0x1,-0xda8(%rbp)
    f7c2:	7e dd                	jle    f7a1 <func_22+0x898>
    f7c4:	90                   	nop
    f7c5:	c7 05 d5 28 01 00 f7 	movl   $0xfffffff7,0x128d5(%rip)        # 220a4 <g_88>
    f7cc:	ff ff ff 
    f7cf:	e9 59 11 00 00       	jmpq   1092d <func_22+0x1a24>
    f7d4:	c7 85 bc f2 ff ff 7b 	movl   $0xde336e7b,-0xd44(%rbp)
    f7db:	6e 33 de 
    f7de:	c7 85 c0 f2 ff ff ff 	movl   $0xffffffff,-0xd40(%rbp)
    f7e5:	ff ff ff 
    f7e8:	c7 85 c4 f2 ff ff 75 	movl   $0x454c6a75,-0xd3c(%rbp)
    f7ef:	6a 4c 45 
    f7f2:	c7 85 c8 f2 ff ff a5 	movl   $0xdd8781a5,-0xd38(%rbp)
    f7f9:	81 87 dd 
    f7fc:	c7 85 48 f2 ff ff ff 	movl   $0xffffffff,-0xdb8(%rbp)
    f803:	ff ff ff 
    f806:	c7 85 cc f2 ff ff b9 	movl   $0x920ff2b9,-0xd34(%rbp)
    f80d:	f2 0f 92 
    f810:	c7 85 d0 f2 ff ff db 	movl   $0xe2b957db,-0xd30(%rbp)
    f817:	57 b9 e2 
    f81a:	c7 85 4c f2 ff ff ff 	movl   $0xffffffff,-0xdb4(%rbp)
    f821:	ff ff ff 
    f824:	c7 85 d4 f2 ff ff ff 	movl   $0xffffffff,-0xd2c(%rbp)
    f82b:	ff ff ff 
    f82e:	48 c7 85 00 f5 ff ff 	movq   $0x0,-0xb00(%rbp)
    f835:	00 00 00 00 
    f839:	48 c7 85 08 f5 ff ff 	movq   $0x0,-0xaf8(%rbp)
    f840:	00 00 00 00 
    f844:	48 c7 85 10 f5 ff ff 	movq   $0x0,-0xaf0(%rbp)
    f84b:	00 00 00 00 
    f84f:	c7 85 18 f5 ff ff 00 	movl   $0x0,-0xae8(%rbp)
    f856:	00 00 00 
    f859:	48 c7 85 80 f5 ff ff 	movq   $0x0,-0xa80(%rbp)
    f860:	00 00 00 00 
    f864:	48 8d 05 1d 53 01 00 	lea    0x1531d(%rip),%rax        # 24b88 <g_974>
    f86b:	48 89 85 88 f5 ff ff 	mov    %rax,-0xa78(%rbp)
    f872:	48 c7 85 90 f5 ff ff 	movq   $0x0,-0xa70(%rbp)
    f879:	00 00 00 00 
    f87d:	48 8d 05 04 53 01 00 	lea    0x15304(%rip),%rax        # 24b88 <g_974>
    f884:	48 89 85 98 f5 ff ff 	mov    %rax,-0xa68(%rbp)
    f88b:	48 c7 85 a0 f5 ff ff 	movq   $0x0,-0xa60(%rbp)
    f892:	00 00 00 00 
    f896:	48 8d 85 80 f5 ff ff 	lea    -0xa80(%rbp),%rax
    f89d:	48 83 c0 10          	add    $0x10,%rax
    f8a1:	48 89 85 40 f3 ff ff 	mov    %rax,-0xcc0(%rbp)
    f8a8:	48 8d 05 be 66 01 00 	lea    0x166be(%rip),%rax        # 25f6d <g_43+0x5>
    f8af:	48 89 85 48 f3 ff ff 	mov    %rax,-0xcb8(%rbp)
    f8b6:	48 8d 85 10 f9 ff ff 	lea    -0x6f0(%rbp),%rax
    f8bd:	48 8d 15 bc 30 01 00 	lea    0x130bc(%rip),%rdx        # 22980 <g_2474+0x456>
    f8c4:	b9 23 00 00 00       	mov    $0x23,%ecx
    f8c9:	48 89 c7             	mov    %rax,%rdi
    f8cc:	48 89 d6             	mov    %rdx,%rsi
    f8cf:	f3 48 a5             	rep movsq %ds:(%rsi),%es:(%rdi)
    f8d2:	48 8d 85 10 f9 ff ff 	lea    -0x6f0(%rbp),%rax
    f8d9:	48 05 d0 00 00 00    	add    $0xd0,%rax
    f8df:	48 89 85 50 f3 ff ff 	mov    %rax,-0xcb0(%rbp)
    f8e6:	48 8d 85 50 f3 ff ff 	lea    -0xcb0(%rbp),%rax
    f8ed:	48 89 85 b0 f5 ff ff 	mov    %rax,-0xa50(%rbp)
    f8f4:	48 8d 85 50 f3 ff ff 	lea    -0xcb0(%rbp),%rax
    f8fb:	48 89 85 b8 f5 ff ff 	mov    %rax,-0xa48(%rbp)
    f902:	48 8d 85 50 f3 ff ff 	lea    -0xcb0(%rbp),%rax
    f909:	48 89 85 c0 f5 ff ff 	mov    %rax,-0xa40(%rbp)
    f910:	48 8d 85 50 f3 ff ff 	lea    -0xcb0(%rbp),%rax
    f917:	48 89 85 c8 f5 ff ff 	mov    %rax,-0xa38(%rbp)
    f91e:	48 8d 85 50 f3 ff ff 	lea    -0xcb0(%rbp),%rax
    f925:	48 89 85 d0 f5 ff ff 	mov    %rax,-0xa30(%rbp)
    f92c:	48 8d 85 50 f3 ff ff 	lea    -0xcb0(%rbp),%rax
    f933:	48 89 85 d8 f5 ff ff 	mov    %rax,-0xa28(%rbp)
    f93a:	48 8d 85 50 f3 ff ff 	lea    -0xcb0(%rbp),%rax
    f941:	48 89 85 e0 f5 ff ff 	mov    %rax,-0xa20(%rbp)
    f948:	c7 85 d8 f2 ff ff 42 	movl   $0xe83f8f42,-0xd28(%rbp)
    f94f:	8f 3f e8 
    f952:	66 c7 05 a5 27 01 00 	movw   $0xfff6,0x127a5(%rip)        # 22100 <g_486>
    f959:	f6 ff 
    f95b:	e9 ad 0f 00 00       	jmpq   1090d <func_22+0x1a04>
    f960:	c6 85 1f f2 ff ff f7 	movb   $0xf7,-0xde1(%rbp)
    f967:	c7 85 dc f2 ff ff 64 	movl   $0xd6e08864,-0xd24(%rbp)
    f96e:	88 e0 d6 
    f971:	c7 85 50 f2 ff ff 01 	movl   $0x1,-0xdb0(%rbp)
    f978:	00 00 00 
    f97b:	c7 85 e0 f2 ff ff f8 	movl   $0xfffffff8,-0xd20(%rbp)
    f982:	ff ff ff 
    f985:	c7 85 e4 f2 ff ff ff 	movl   $0xffffffff,-0xd1c(%rbp)
    f98c:	ff ff ff 
    f98f:	66 c7 85 2e f2 ff ff 	movw   $0xef74,-0xdd2(%rbp)
    f996:	74 ef 
    f998:	c7 85 60 f2 ff ff ff 	movl   $0xffffffff,-0xda0(%rbp)
    f99f:	ff ff ff 
    f9a2:	66 c7 85 26 f2 ff ff 	movw   $0x7,-0xdda(%rbp)
    f9a9:	07 00 
    f9ab:	48 8d 85 40 f3 ff ff 	lea    -0xcc0(%rbp),%rax
    f9b2:	48 89 85 20 f4 ff ff 	mov    %rax,-0xbe0(%rbp)
    f9b9:	c7 85 e8 f2 ff ff 01 	movl   $0x1,-0xd18(%rbp)
    f9c0:	00 00 00 
    f9c3:	c7 85 ec f2 ff ff 01 	movl   $0x1,-0xd14(%rbp)
    f9ca:	00 00 00 
    f9cd:	c7 85 f0 f2 ff ff 04 	movl   $0x4,-0xd10(%rbp)
    f9d4:	00 00 00 
    f9d7:	c7 85 f4 f2 ff ff f6 	movl   $0xfffffff6,-0xd0c(%rbp)
    f9de:	ff ff ff 
    f9e1:	48 8d 85 30 fa ff ff 	lea    -0x5d0(%rbp),%rax
    f9e8:	48 8d 15 71 e9 00 00 	lea    0xe971(%rip),%rdx        # 1e360 <g_431+0x2e2>
    f9ef:	b9 23 00 00 00       	mov    $0x23,%ecx
    f9f4:	48 89 c7             	mov    %rax,%rdi
    f9f7:	48 89 d6             	mov    %rdx,%rsi
    f9fa:	f3 48 a5             	rep movsq %ds:(%rsi),%es:(%rdi)
    f9fd:	c7 85 64 f2 ff ff 00 	movl   $0x0,-0xd9c(%rbp)
    fa04:	00 00 00 
    fa07:	eb 14                	jmp    fa1d <func_22+0xb14>
    fa09:	8b 85 64 f2 ff ff    	mov    -0xd9c(%rbp),%eax
    fa0f:	48 98                	cltq   
    fa11:	c6 44 05 d5 84       	movb   $0x84,-0x2b(%rbp,%rax,1)
    fa16:	83 85 64 f2 ff ff 01 	addl   $0x1,-0xd9c(%rbp)
    fa1d:	83 bd 64 f2 ff ff 02 	cmpl   $0x2,-0xd9c(%rbp)
    fa24:	7e e3                	jle    fa09 <func_22+0xb00>
    fa26:	48 c7 05 bf 26 01 00 	movq   $0x8,0x126bf(%rip)        # 220f0 <g_247>
    fa2d:	08 00 00 00 
    fa31:	e9 b5 0e 00 00       	jmpq   108eb <func_22+0x19e2>
    fa36:	c6 85 20 f2 ff ff 01 	movb   $0x1,-0xde0(%rbp)
    fa3d:	48 8d 05 44 51 01 00 	lea    0x15144(%rip),%rax        # 24b88 <g_974>
    fa44:	48 89 85 20 f5 ff ff 	mov    %rax,-0xae0(%rbp)
    fa4b:	48 8d 05 36 51 01 00 	lea    0x15136(%rip),%rax        # 24b88 <g_974>
    fa52:	48 89 85 28 f5 ff ff 	mov    %rax,-0xad8(%rbp)
    fa59:	48 8d 05 28 51 01 00 	lea    0x15128(%rip),%rax        # 24b88 <g_974>
    fa60:	48 89 85 30 f5 ff ff 	mov    %rax,-0xad0(%rbp)
    fa67:	48 8d 05 1a 51 01 00 	lea    0x1511a(%rip),%rax        # 24b88 <g_974>
    fa6e:	48 89 85 38 f5 ff ff 	mov    %rax,-0xac8(%rbp)
    fa75:	48 8d 85 80 f6 ff ff 	lea    -0x980(%rbp),%rax
    fa7c:	48 83 c0 10          	add    $0x10,%rax
    fa80:	48 89 85 30 f6 ff ff 	mov    %rax,-0x9d0(%rbp)
    fa87:	48 8d 85 80 f6 ff ff 	lea    -0x980(%rbp),%rax
    fa8e:	48 83 c0 10          	add    $0x10,%rax
    fa92:	48 89 85 38 f6 ff ff 	mov    %rax,-0x9c8(%rbp)
    fa99:	48 8d 85 80 f6 ff ff 	lea    -0x980(%rbp),%rax
    faa0:	48 83 c0 40          	add    $0x40,%rax
    faa4:	48 89 85 40 f6 ff ff 	mov    %rax,-0x9c0(%rbp)
    faab:	48 8d 85 80 f6 ff ff 	lea    -0x980(%rbp),%rax
    fab2:	48 83 c0 10          	add    $0x10,%rax
    fab6:	48 89 85 48 f6 ff ff 	mov    %rax,-0x9b8(%rbp)
    fabd:	48 8d 85 80 f6 ff ff 	lea    -0x980(%rbp),%rax
    fac4:	48 83 c0 10          	add    $0x10,%rax
    fac8:	48 89 85 50 f6 ff ff 	mov    %rax,-0x9b0(%rbp)
    facf:	48 8d 85 80 f6 ff ff 	lea    -0x980(%rbp),%rax
    fad6:	48 83 c0 40          	add    $0x40,%rax
    fada:	48 89 85 58 f6 ff ff 	mov    %rax,-0x9a8(%rbp)
    fae1:	48 8d 85 80 f6 ff ff 	lea    -0x980(%rbp),%rax
    fae8:	48 83 c0 10          	add    $0x10,%rax
    faec:	48 89 85 60 f6 ff ff 	mov    %rax,-0x9a0(%rbp)
    faf3:	48 8d 85 80 f6 ff ff 	lea    -0x980(%rbp),%rax
    fafa:	48 83 c0 10          	add    $0x10,%rax
    fafe:	48 89 85 68 f6 ff ff 	mov    %rax,-0x998(%rbp)
    fb05:	48 8d 85 80 f6 ff ff 	lea    -0x980(%rbp),%rax
    fb0c:	48 83 c0 40          	add    $0x40,%rax
    fb10:	48 89 85 70 f6 ff ff 	mov    %rax,-0x990(%rbp)
    fb17:	48 8d 85 30 f6 ff ff 	lea    -0x9d0(%rbp),%rax
    fb1e:	48 83 c0 28          	add    $0x28,%rax
    fb22:	48 89 85 50 fb ff ff 	mov    %rax,-0x4b0(%rbp)
    fb29:	48 8d 85 30 f6 ff ff 	lea    -0x9d0(%rbp),%rax
    fb30:	48 83 c0 30          	add    $0x30,%rax
    fb34:	48 89 85 58 fb ff ff 	mov    %rax,-0x4a8(%rbp)
    fb3b:	48 8d 85 30 f6 ff ff 	lea    -0x9d0(%rbp),%rax
    fb42:	48 83 c0 30          	add    $0x30,%rax
    fb46:	48 89 85 60 fb ff ff 	mov    %rax,-0x4a0(%rbp)
    fb4d:	48 8d 85 30 f6 ff ff 	lea    -0x9d0(%rbp),%rax
    fb54:	48 83 c0 28          	add    $0x28,%rax
    fb58:	48 89 85 68 fb ff ff 	mov    %rax,-0x498(%rbp)
    fb5f:	48 8d 85 30 f6 ff ff 	lea    -0x9d0(%rbp),%rax
    fb66:	48 83 c0 18          	add    $0x18,%rax
    fb6a:	48 89 85 70 fb ff ff 	mov    %rax,-0x490(%rbp)
    fb71:	48 8d 85 30 f6 ff ff 	lea    -0x9d0(%rbp),%rax
    fb78:	48 83 c0 38          	add    $0x38,%rax
    fb7c:	48 89 85 78 fb ff ff 	mov    %rax,-0x488(%rbp)
    fb83:	48 8d 85 30 f6 ff ff 	lea    -0x9d0(%rbp),%rax
    fb8a:	48 83 c0 08          	add    $0x8,%rax
    fb8e:	48 89 85 80 fb ff ff 	mov    %rax,-0x480(%rbp)
    fb95:	48 8d 85 30 f6 ff ff 	lea    -0x9d0(%rbp),%rax
    fb9c:	48 83 c0 08          	add    $0x8,%rax
    fba0:	48 89 85 88 fb ff ff 	mov    %rax,-0x478(%rbp)
    fba7:	48 c7 85 90 fb ff ff 	movq   $0x0,-0x470(%rbp)
    fbae:	00 00 00 00 
    fbb2:	48 8d 85 30 f6 ff ff 	lea    -0x9d0(%rbp),%rax
    fbb9:	48 83 c0 30          	add    $0x30,%rax
    fbbd:	48 89 85 98 fb ff ff 	mov    %rax,-0x468(%rbp)
    fbc4:	48 8d 85 30 f6 ff ff 	lea    -0x9d0(%rbp),%rax
    fbcb:	48 83 c0 08          	add    $0x8,%rax
    fbcf:	48 89 85 a0 fb ff ff 	mov    %rax,-0x460(%rbp)
    fbd6:	48 8d 85 30 f6 ff ff 	lea    -0x9d0(%rbp),%rax
    fbdd:	48 83 c0 30          	add    $0x30,%rax
    fbe1:	48 89 85 a8 fb ff ff 	mov    %rax,-0x458(%rbp)
    fbe8:	48 8d 85 30 f6 ff ff 	lea    -0x9d0(%rbp),%rax
    fbef:	48 83 c0 30          	add    $0x30,%rax
    fbf3:	48 89 85 b0 fb ff ff 	mov    %rax,-0x450(%rbp)
    fbfa:	48 8d 85 30 f6 ff ff 	lea    -0x9d0(%rbp),%rax
    fc01:	48 83 c0 30          	add    $0x30,%rax
    fc05:	48 89 85 b8 fb ff ff 	mov    %rax,-0x448(%rbp)
    fc0c:	48 8d 85 30 f6 ff ff 	lea    -0x9d0(%rbp),%rax
    fc13:	48 83 c0 30          	add    $0x30,%rax
    fc17:	48 89 85 c0 fb ff ff 	mov    %rax,-0x440(%rbp)
    fc1e:	48 8d 85 30 f6 ff ff 	lea    -0x9d0(%rbp),%rax
    fc25:	48 83 c0 08          	add    $0x8,%rax
    fc29:	48 89 85 c8 fb ff ff 	mov    %rax,-0x438(%rbp)
    fc30:	48 8d 85 30 f6 ff ff 	lea    -0x9d0(%rbp),%rax
    fc37:	48 83 c0 30          	add    $0x30,%rax
    fc3b:	48 89 85 d0 fb ff ff 	mov    %rax,-0x430(%rbp)
    fc42:	48 8d 85 30 f6 ff ff 	lea    -0x9d0(%rbp),%rax
    fc49:	48 83 c0 30          	add    $0x30,%rax
    fc4d:	48 89 85 d8 fb ff ff 	mov    %rax,-0x428(%rbp)
    fc54:	48 8d 85 30 f6 ff ff 	lea    -0x9d0(%rbp),%rax
    fc5b:	48 83 c0 10          	add    $0x10,%rax
    fc5f:	48 89 85 e0 fb ff ff 	mov    %rax,-0x420(%rbp)
    fc66:	48 8d 85 30 f6 ff ff 	lea    -0x9d0(%rbp),%rax
    fc6d:	48 83 c0 30          	add    $0x30,%rax
    fc71:	48 89 85 e8 fb ff ff 	mov    %rax,-0x418(%rbp)
    fc78:	48 c7 85 f0 fb ff ff 	movq   $0x0,-0x410(%rbp)
    fc7f:	00 00 00 00 
    fc83:	48 8d 85 30 f6 ff ff 	lea    -0x9d0(%rbp),%rax
    fc8a:	48 83 c0 30          	add    $0x30,%rax
    fc8e:	48 89 85 f8 fb ff ff 	mov    %rax,-0x408(%rbp)
    fc95:	48 8d 85 30 f6 ff ff 	lea    -0x9d0(%rbp),%rax
    fc9c:	48 83 c0 18          	add    $0x18,%rax
    fca0:	48 89 85 00 fc ff ff 	mov    %rax,-0x400(%rbp)
    fca7:	48 8d 85 30 f6 ff ff 	lea    -0x9d0(%rbp),%rax
    fcae:	48 83 c0 08          	add    $0x8,%rax
    fcb2:	48 89 85 08 fc ff ff 	mov    %rax,-0x3f8(%rbp)
    fcb9:	48 8d 85 30 f6 ff ff 	lea    -0x9d0(%rbp),%rax
    fcc0:	48 83 c0 08          	add    $0x8,%rax
    fcc4:	48 89 85 10 fc ff ff 	mov    %rax,-0x3f0(%rbp)
    fccb:	48 8d 85 30 f6 ff ff 	lea    -0x9d0(%rbp),%rax
    fcd2:	48 83 c0 18          	add    $0x18,%rax
    fcd6:	48 89 85 18 fc ff ff 	mov    %rax,-0x3e8(%rbp)
    fcdd:	48 8d 85 30 f6 ff ff 	lea    -0x9d0(%rbp),%rax
    fce4:	48 83 c0 30          	add    $0x30,%rax
    fce8:	48 89 85 20 fc ff ff 	mov    %rax,-0x3e0(%rbp)
    fcef:	48 8d 85 30 f6 ff ff 	lea    -0x9d0(%rbp),%rax
    fcf6:	48 83 c0 28          	add    $0x28,%rax
    fcfa:	48 89 85 28 fc ff ff 	mov    %rax,-0x3d8(%rbp)
    fd01:	48 8d 85 30 f6 ff ff 	lea    -0x9d0(%rbp),%rax
    fd08:	48 83 c0 10          	add    $0x10,%rax
    fd0c:	48 89 85 30 fc ff ff 	mov    %rax,-0x3d0(%rbp)
    fd13:	48 8d 85 30 f6 ff ff 	lea    -0x9d0(%rbp),%rax
    fd1a:	48 83 c0 28          	add    $0x28,%rax
    fd1e:	48 89 85 38 fc ff ff 	mov    %rax,-0x3c8(%rbp)
    fd25:	48 8d 85 30 f6 ff ff 	lea    -0x9d0(%rbp),%rax
    fd2c:	48 83 c0 38          	add    $0x38,%rax
    fd30:	48 89 85 40 fc ff ff 	mov    %rax,-0x3c0(%rbp)
    fd37:	48 8d 85 30 f6 ff ff 	lea    -0x9d0(%rbp),%rax
    fd3e:	48 83 c0 08          	add    $0x8,%rax
    fd42:	48 89 85 48 fc ff ff 	mov    %rax,-0x3b8(%rbp)
    fd49:	48 8d 85 30 f6 ff ff 	lea    -0x9d0(%rbp),%rax
    fd50:	48 83 c0 30          	add    $0x30,%rax
    fd54:	48 89 85 50 fc ff ff 	mov    %rax,-0x3b0(%rbp)
    fd5b:	48 8d 85 30 f6 ff ff 	lea    -0x9d0(%rbp),%rax
    fd62:	48 83 c0 08          	add    $0x8,%rax
    fd66:	48 89 85 58 fc ff ff 	mov    %rax,-0x3a8(%rbp)
    fd6d:	48 8d 85 30 f6 ff ff 	lea    -0x9d0(%rbp),%rax
    fd74:	48 83 c0 30          	add    $0x30,%rax
    fd78:	48 89 85 60 fc ff ff 	mov    %rax,-0x3a0(%rbp)
    fd7f:	48 8d 85 30 f6 ff ff 	lea    -0x9d0(%rbp),%rax
    fd86:	48 83 c0 30          	add    $0x30,%rax
    fd8a:	48 89 85 68 fc ff ff 	mov    %rax,-0x398(%rbp)
    fd91:	c7 85 f8 f2 ff ff 1c 	movl   $0x3e3421c,-0xd08(%rbp)
    fd98:	42 e3 03 
    fd9b:	c7 85 fc f2 ff ff ff 	movl   $0xffffffff,-0xd04(%rbp)
    fda2:	ff ff ff 
    fda5:	c7 85 68 f2 ff ff fa 	movl   $0xfffffffa,-0xd98(%rbp)
    fdac:	ff ff ff 
    fdaf:	c7 85 00 f3 ff ff 40 	movl   $0xc79bcc40,-0xd00(%rbp)
    fdb6:	cc 9b c7 
    fdb9:	c7 85 54 f2 ff ff 01 	movl   $0x1,-0xdac(%rbp)
    fdc0:	00 00 00 
    fdc3:	c7 85 38 f3 ff ff 2b 	movl   $0x161cc82b,-0xcc8(%rbp)
    fdca:	c8 1c 16 
    fdcd:	48 8d 85 70 fc ff ff 	lea    -0x390(%rbp),%rax
    fdd4:	48 8d 15 a5 e6 00 00 	lea    0xe6a5(%rip),%rdx        # 1e480 <g_431+0x402>
    fddb:	b9 24 00 00 00       	mov    $0x24,%ecx
    fde0:	48 89 c7             	mov    %rax,%rdi
    fde3:	48 89 d6             	mov    %rdx,%rsi
    fde6:	f3 48 a5             	rep movsq %ds:(%rsi),%es:(%rdi)
    fde9:	c7 85 04 f3 ff ff 00 	movl   $0x0,-0xcfc(%rbp)
    fdf0:	00 00 00 
    fdf3:	48 c7 85 28 f4 ff ff 	movq   $0x0,-0xbd8(%rbp)
    fdfa:	00 00 00 00 
    fdfe:	48 8d 85 48 f3 ff ff 	lea    -0xcb8(%rbp),%rax
    fe05:	48 89 85 30 f4 ff ff 	mov    %rax,-0xbd0(%rbp)
    fe0c:	48 8d 05 5b 61 01 00 	lea    0x1615b(%rip),%rax        # 25f6e <g_432>
    fe13:	48 89 85 38 f4 ff ff 	mov    %rax,-0xbc8(%rbp)
    fe1a:	c7 85 6c f2 ff ff 00 	movl   $0x0,-0xd94(%rbp)
    fe21:	00 00 00 
    fe24:	eb 58                	jmp    fe7e <func_22+0xf75>
    fe26:	c7 85 70 f2 ff ff 00 	movl   $0x0,-0xd90(%rbp)
    fe2d:	00 00 00 
    fe30:	eb 3c                	jmp    fe6e <func_22+0xf65>
    fe32:	8b 85 70 f2 ff ff    	mov    -0xd90(%rbp),%eax
    fe38:	48 63 c8             	movslq %eax,%rcx
    fe3b:	8b 85 6c f2 ff ff    	mov    -0xd94(%rbp),%eax
    fe41:	48 63 d0             	movslq %eax,%rdx
    fe44:	48 89 d0             	mov    %rdx,%rax
    fe47:	48 c1 e0 02          	shl    $0x2,%rax
    fe4b:	48 01 d0             	add    %rdx,%rax
    fe4e:	48 01 c0             	add    %rax,%rax
    fe51:	48 01 c8             	add    %rcx,%rax
    fe54:	48 8d 95 20 f5 ff ff 	lea    -0xae0(%rbp),%rdx
    fe5b:	48 83 c2 08          	add    $0x8,%rdx
    fe5f:	48 89 94 c5 80 f6 ff 	mov    %rdx,-0x980(%rbp,%rax,8)
    fe66:	ff 
    fe67:	83 85 70 f2 ff ff 01 	addl   $0x1,-0xd90(%rbp)
    fe6e:	83 bd 70 f2 ff ff 09 	cmpl   $0x9,-0xd90(%rbp)
    fe75:	7e bb                	jle    fe32 <func_22+0xf29>
    fe77:	83 85 6c f2 ff ff 01 	addl   $0x1,-0xd94(%rbp)
    fe7e:	83 bd 6c f2 ff ff 00 	cmpl   $0x0,-0xd94(%rbp)
    fe85:	7e 9f                	jle    fe26 <func_22+0xf1d>
    fe87:	8b 95 bc f2 ff ff    	mov    -0xd44(%rbp),%edx
    fe8d:	0f b7 85 0c f2 ff ff 	movzwl -0xdf4(%rbp),%eax
    fe94:	0f b7 c0             	movzwl %ax,%eax
    fe97:	48 89 d6             	mov    %rdx,%rsi
    fe9a:	48 89 c7             	mov    %rax,%rdi
    fe9d:	e8 0d a2 ff ff       	callq  a0af <safe_div_func_uint64_t_u_u>
    fea2:	48 85 c0             	test   %rax,%rax
    fea5:	74 0b                	je     feb2 <func_22+0xfa9>
    fea7:	8b 85 bc f2 ff ff    	mov    -0xd44(%rbp),%eax
    fead:	e9 a1 19 00 00       	jmpq   11853 <func_22+0x294a>
    feb2:	48 c7 85 40 f4 ff ff 	movq   $0x6,-0xbc0(%rbp)
    feb9:	06 00 00 00 
    febd:	48 c7 85 48 f4 ff ff 	movq   $0x0,-0xbb8(%rbp)
    fec4:	00 00 00 00 
    fec8:	48 8d 05 bb 25 01 00 	lea    0x125bb(%rip),%rax        # 2248a <g_615+0x2>
    fecf:	48 89 85 50 f4 ff ff 	mov    %rax,-0xbb0(%rbp)
    fed6:	48 c7 85 58 f4 ff ff 	movq   $0x0,-0xba8(%rbp)
    fedd:	00 00 00 00 
    fee1:	48 8d 85 1f f2 ff ff 	lea    -0xde1(%rbp),%rax
    fee8:	48 89 85 d0 f6 ff ff 	mov    %rax,-0x930(%rbp)
    feef:	48 8d 05 78 60 01 00 	lea    0x16078(%rip),%rax        # 25f6e <g_432>
    fef6:	48 89 85 d8 f6 ff ff 	mov    %rax,-0x928(%rbp)
    fefd:	48 8d 85 1f f2 ff ff 	lea    -0xde1(%rbp),%rax
    ff04:	48 89 85 e0 f6 ff ff 	mov    %rax,-0x920(%rbp)
    ff0b:	48 8d 05 5c 60 01 00 	lea    0x1605c(%rip),%rax        # 25f6e <g_432>
    ff12:	48 89 85 e8 f6 ff ff 	mov    %rax,-0x918(%rbp)
    ff19:	48 8d 85 1f f2 ff ff 	lea    -0xde1(%rbp),%rax
    ff20:	48 89 85 f0 f6 ff ff 	mov    %rax,-0x910(%rbp)
    ff27:	48 8d 05 40 60 01 00 	lea    0x16040(%rip),%rax        # 25f6e <g_432>
    ff2e:	48 89 85 f8 f6 ff ff 	mov    %rax,-0x908(%rbp)
    ff35:	48 8d 85 1f f2 ff ff 	lea    -0xde1(%rbp),%rax
    ff3c:	48 89 85 00 f7 ff ff 	mov    %rax,-0x900(%rbp)
    ff43:	48 8d 05 24 60 01 00 	lea    0x16024(%rip),%rax        # 25f6e <g_432>
    ff4a:	48 89 85 08 f7 ff ff 	mov    %rax,-0x8f8(%rbp)
    ff51:	48 8d 85 1f f2 ff ff 	lea    -0xde1(%rbp),%rax
    ff58:	48 89 85 10 f7 ff ff 	mov    %rax,-0x8f0(%rbp)
    ff5f:	48 8d 05 08 60 01 00 	lea    0x16008(%rip),%rax        # 25f6e <g_432>
    ff66:	48 89 85 18 f7 ff ff 	mov    %rax,-0x8e8(%rbp)
    ff6d:	48 8d 85 1f f2 ff ff 	lea    -0xde1(%rbp),%rax
    ff74:	48 89 85 20 f7 ff ff 	mov    %rax,-0x8e0(%rbp)
    ff7b:	48 8d 05 ec 5f 01 00 	lea    0x15fec(%rip),%rax        # 25f6e <g_432>
    ff82:	48 89 85 28 f7 ff ff 	mov    %rax,-0x8d8(%rbp)
    ff89:	48 8d 85 1f f2 ff ff 	lea    -0xde1(%rbp),%rax
    ff90:	48 89 85 30 f7 ff ff 	mov    %rax,-0x8d0(%rbp)
    ff97:	48 8d 05 d0 5f 01 00 	lea    0x15fd0(%rip),%rax        # 25f6e <g_432>
    ff9e:	48 89 85 38 f7 ff ff 	mov    %rax,-0x8c8(%rbp)
    ffa5:	48 8d 85 1f f2 ff ff 	lea    -0xde1(%rbp),%rax
    ffac:	48 89 85 40 f7 ff ff 	mov    %rax,-0x8c0(%rbp)
    ffb3:	48 8d 05 b4 5f 01 00 	lea    0x15fb4(%rip),%rax        # 25f6e <g_432>
    ffba:	48 89 85 48 f7 ff ff 	mov    %rax,-0x8b8(%rbp)
    ffc1:	c7 85 08 f3 ff ff ff 	movl   $0xffffffff,-0xcf8(%rbp)
    ffc8:	ff ff ff 
    ffcb:	c7 85 0c f3 ff ff 00 	movl   $0x0,-0xcf4(%rbp)
    ffd2:	00 00 00 
    ffd5:	c7 85 10 f3 ff ff b5 	movl   $0x9b1692b5,-0xcf0(%rbp)
    ffdc:	92 16 9b 
    ffdf:	c7 85 14 f3 ff ff 7d 	movl   $0x3f73e87d,-0xcec(%rbp)
    ffe6:	e8 73 3f 
    ffe9:	c7 85 18 f3 ff ff f7 	movl   $0xfffffff7,-0xce8(%rbp)
    fff0:	ff ff ff 
    fff3:	c7 85 1c f3 ff ff 9f 	movl   $0x1878b79f,-0xce4(%rbp)
    fffa:	b7 78 18 
    fffd:	c7 85 20 f3 ff ff 01 	movl   $0x1,-0xce0(%rbp)
   10004:	00 00 00 
   10007:	c7 85 50 f7 ff ff fa 	movl   $0xfffffffa,-0x8b0(%rbp)
   1000e:	ff ff ff 
   10011:	c7 85 54 f7 ff ff 05 	movl   $0x5,-0x8ac(%rbp)
   10018:	00 00 00 
   1001b:	c7 85 58 f7 ff ff fa 	movl   $0xfffffffa,-0x8a8(%rbp)
   10022:	ff ff ff 
   10025:	c7 85 5c f7 ff ff b4 	movl   $0xafd025b4,-0x8a4(%rbp)
   1002c:	25 d0 af 
   1002f:	c7 85 60 f7 ff ff 1f 	movl   $0xda886d1f,-0x8a0(%rbp)
   10036:	6d 88 da 
   10039:	c7 85 64 f7 ff ff 98 	movl   $0x801d4a98,-0x89c(%rbp)
   10040:	4a 1d 80 
   10043:	c7 85 68 f7 ff ff f8 	movl   $0xfffffff8,-0x898(%rbp)
   1004a:	ff ff ff 
   1004d:	c7 85 6c f7 ff ff 07 	movl   $0x7,-0x894(%rbp)
   10054:	00 00 00 
   10057:	c7 85 70 f7 ff ff f8 	movl   $0xfffffff8,-0x890(%rbp)
   1005e:	ff ff ff 
   10061:	c7 85 74 f7 ff ff 98 	movl   $0x801d4a98,-0x88c(%rbp)
   10068:	4a 1d 80 
   1006b:	c7 85 78 f7 ff ff fa 	movl   $0xfffffffa,-0x888(%rbp)
   10072:	ff ff ff 
   10075:	c7 85 7c f7 ff ff 4c 	movl   $0x39374d4c,-0x884(%rbp)
   1007c:	4d 37 39 
   1007f:	c7 85 80 f7 ff ff 05 	movl   $0x5,-0x880(%rbp)
   10086:	00 00 00 
   10089:	c7 85 84 f7 ff ff eb 	movl   $0x5d793aeb,-0x87c(%rbp)
   10090:	3a 79 5d 
   10093:	c7 85 88 f7 ff ff 05 	movl   $0x5,-0x878(%rbp)
   1009a:	00 00 00 
   1009d:	c7 85 8c f7 ff ff fb 	movl   $0xfffffffb,-0x874(%rbp)
   100a4:	ff ff ff 
   100a7:	c7 85 90 f7 ff ff fb 	movl   $0xfffffffb,-0x870(%rbp)
   100ae:	ff ff ff 
   100b1:	c7 85 94 f7 ff ff 07 	movl   $0x7,-0x86c(%rbp)
   100b8:	00 00 00 
   100bb:	c7 85 98 f7 ff ff 98 	movl   $0x801d4a98,-0x868(%rbp)
   100c2:	4a 1d 80 
   100c5:	c7 85 9c f7 ff ff fc 	movl   $0xfffffffc,-0x864(%rbp)
   100cc:	ff ff ff 
   100cf:	c7 85 a0 f7 ff ff 4c 	movl   $0x39374d4c,-0x860(%rbp)
   100d6:	4d 37 39 
   100d9:	c7 85 a4 f7 ff ff fa 	movl   $0xfffffffa,-0x85c(%rbp)
   100e0:	ff ff ff 
   100e3:	c7 85 a8 f7 ff ff fa 	movl   $0xfffffffa,-0x858(%rbp)
   100ea:	ff ff ff 
   100ed:	c7 85 ac f7 ff ff 4c 	movl   $0x39374d4c,-0x854(%rbp)
   100f4:	4d 37 39 
   100f7:	c7 85 b0 f7 ff ff 05 	movl   $0x5,-0x850(%rbp)
   100fe:	00 00 00 
   10101:	c7 85 b4 f7 ff ff f8 	movl   $0xfffffff8,-0x84c(%rbp)
   10108:	ff ff ff 
   1010b:	c7 85 b8 f7 ff ff 98 	movl   $0x801d4a98,-0x848(%rbp)
   10112:	4a 1d 80 
   10115:	c7 85 bc f7 ff ff ff 	movl   $0xffffffff,-0x844(%rbp)
   1011c:	ff ff ff 
   1011f:	c7 85 c0 f7 ff ff ff 	movl   $0xffffffff,-0x840(%rbp)
   10126:	ff ff ff 
   10129:	c7 85 c4 f7 ff ff 98 	movl   $0x801d4a98,-0x83c(%rbp)
   10130:	4a 1d 80 
   10133:	c7 85 c8 f7 ff ff 05 	movl   $0x5,-0x838(%rbp)
   1013a:	00 00 00 
   1013d:	c7 85 cc f7 ff ff fa 	movl   $0xfffffffa,-0x834(%rbp)
   10144:	ff ff ff 
   10147:	c7 85 d0 f7 ff ff b4 	movl   $0xafd025b4,-0x830(%rbp)
   1014e:	25 d0 af 
   10151:	c7 85 d4 f7 ff ff 1f 	movl   $0xda886d1f,-0x82c(%rbp)
   10158:	6d 88 da 
   1015b:	c7 85 d8 f7 ff ff 1f 	movl   $0xda886d1f,-0x828(%rbp)
   10162:	6d 88 da 
   10165:	c7 85 dc f7 ff ff b3 	movl   $0x52cbc1b3,-0x824(%rbp)
   1016c:	c1 cb 52 
   1016f:	c7 85 e0 f7 ff ff fb 	movl   $0xfffffffb,-0x820(%rbp)
   10176:	ff ff ff 
   10179:	c7 85 e4 f7 ff ff b3 	movl   $0x52cbc1b3,-0x81c(%rbp)
   10180:	c1 cb 52 
   10183:	c7 85 e8 f7 ff ff ff 	movl   $0xffffffff,-0x818(%rbp)
   1018a:	ff ff ff 
   1018d:	c7 85 ec f7 ff ff 07 	movl   $0x7,-0x814(%rbp)
   10194:	00 00 00 
   10197:	c7 85 f0 f7 ff ff eb 	movl   $0x5d793aeb,-0x810(%rbp)
   1019e:	3a 79 5d 
   101a1:	c7 85 f4 f7 ff ff fa 	movl   $0xfffffffa,-0x80c(%rbp)
   101a8:	ff ff ff 
   101ab:	c7 85 f8 f7 ff ff 05 	movl   $0x5,-0x808(%rbp)
   101b2:	00 00 00 
   101b5:	c7 85 fc f7 ff ff fa 	movl   $0xfffffffa,-0x804(%rbp)
   101bc:	ff ff ff 
   101bf:	c7 85 00 f8 ff ff b4 	movl   $0xafd025b4,-0x800(%rbp)
   101c6:	25 d0 af 
   101c9:	c7 85 04 f8 ff ff 98 	movl   $0x801d4a98,-0x7fc(%rbp)
   101d0:	4a 1d 80 
   101d3:	c7 85 08 f8 ff ff b3 	movl   $0x52cbc1b3,-0x7f8(%rbp)
   101da:	c1 cb 52 
   101dd:	c7 85 0c f8 ff ff fc 	movl   $0xfffffffc,-0x7f4(%rbp)
   101e4:	ff ff ff 
   101e7:	c7 85 10 f8 ff ff ff 	movl   $0xffffffff,-0x7f0(%rbp)
   101ee:	ff ff ff 
   101f1:	c7 85 14 f8 ff ff fc 	movl   $0xfffffffc,-0x7ec(%rbp)
   101f8:	ff ff ff 
   101fb:	48 c7 85 60 f4 ff ff 	movq   $0x0,-0xba0(%rbp)
   10202:	00 00 00 00 
   10206:	48 8d 85 48 f2 ff ff 	lea    -0xdb8(%rbp),%rax
   1020d:	48 89 85 68 f4 ff ff 	mov    %rax,-0xb98(%rbp)
   10214:	c7 85 74 f2 ff ff 00 	movl   $0x0,-0xd8c(%rbp)
   1021b:	00 00 00 
   1021e:	eb 1e                	jmp    1023e <func_22+0x1335>
   10220:	8b 85 74 f2 ff ff    	mov    -0xd8c(%rbp),%eax
   10226:	48 98                	cltq   
   10228:	48 8d 15 a1 1e 01 00 	lea    0x11ea1(%rip),%rdx        # 220d0 <g_164>
   1022f:	48 89 94 c5 40 f5 ff 	mov    %rdx,-0xac0(%rbp,%rax,8)
   10236:	ff 
   10237:	83 85 74 f2 ff ff 01 	addl   $0x1,-0xd8c(%rbp)
   1023e:	83 bd 74 f2 ff ff 03 	cmpl   $0x3,-0xd8c(%rbp)
   10245:	7e d9                	jle    10220 <func_22+0x1317>
   10247:	c7 85 74 f2 ff ff 00 	movl   $0x0,-0xd8c(%rbp)
   1024e:	00 00 00 
   10251:	eb 46                	jmp    10299 <func_22+0x1390>
   10253:	c7 85 78 f2 ff ff 00 	movl   $0x0,-0xd88(%rbp)
   1025a:	00 00 00 
   1025d:	eb 2a                	jmp    10289 <func_22+0x1380>
   1025f:	8b 85 78 f2 ff ff    	mov    -0xd88(%rbp),%eax
   10265:	48 63 d0             	movslq %eax,%rdx
   10268:	8b 85 74 f2 ff ff    	mov    -0xd8c(%rbp),%eax
   1026e:	48 98                	cltq   
   10270:	48 01 d0             	add    %rdx,%rax
   10273:	48 8d 15 20 1e 01 00 	lea    0x11e20(%rip),%rdx        # 2209a <g_63+0x2>
   1027a:	48 89 94 c5 60 f5 ff 	mov    %rdx,-0xaa0(%rbp,%rax,8)
   10281:	ff 
   10282:	83 85 78 f2 ff ff 01 	addl   $0x1,-0xd88(%rbp)
   10289:	83 bd 78 f2 ff ff 00 	cmpl   $0x0,-0xd88(%rbp)
   10290:	7e cd                	jle    1025f <func_22+0x1356>
   10292:	83 85 74 f2 ff ff 01 	addl   $0x1,-0xd8c(%rbp)
   10299:	83 bd 74 f2 ff ff 03 	cmpl   $0x3,-0xd8c(%rbp)
   102a0:	7e b1                	jle    10253 <func_22+0x134a>
   102a2:	0f b6 85 08 f2 ff ff 	movzbl -0xdf8(%rbp),%eax
   102a9:	0f b6 d8             	movzbl %al,%ebx
   102ac:	48 8b 05 1d 48 01 00 	mov    0x1481d(%rip),%rax        # 24ad0 <g_464>
   102b3:	48 8b 00             	mov    (%rax),%rax
   102b6:	49 89 c4             	mov    %rax,%r12
   102b9:	be 1a 65 00 00       	mov    $0x651a,%esi
   102be:	bf 01 00 00 00       	mov    $0x1,%edi
   102c3:	e8 0b 91 ff ff       	callq  93d3 <safe_sub_func_int16_t_s_s>
   102c8:	be fe ff ff ff       	mov    $0xfffffffe,%esi
   102cd:	bf 00 00 00 00       	mov    $0x0,%edi
   102d2:	e8 5a 8f ff ff       	callq  9231 <safe_mod_func_int8_t_s_s>
   102d7:	48 0f be c0          	movsbq %al,%rax
   102db:	4c 89 e6             	mov    %r12,%rsi
   102de:	48 89 c7             	mov    %rax,%rdi
   102e1:	e8 9a 9d ff ff       	callq  a080 <safe_mod_func_uint64_t_u_u>
   102e6:	89 c2                	mov    %eax,%edx
   102e8:	0f b6 85 1f f2 ff ff 	movzbl -0xde1(%rbp),%eax
   102ef:	0f be c0             	movsbl %al,%eax
   102f2:	21 c2                	and    %eax,%edx
   102f4:	0f b7 85 0c f2 ff ff 	movzwl -0xdf4(%rbp),%eax
   102fb:	0f b7 c0             	movzwl %ax,%eax
   102fe:	21 d0                	and    %edx,%eax
   10300:	89 de                	mov    %ebx,%esi
   10302:	89 c7                	mov    %eax,%edi
   10304:	e8 f4 9b ff ff       	callq  9efd <safe_mod_func_uint32_t_u_u>
   10309:	83 f8 06             	cmp    $0x6,%eax
   1030c:	0f 97 c0             	seta   %al
   1030f:	0f b6 d0             	movzbl %al,%edx
   10312:	48 8b 05 b7 47 01 00 	mov    0x147b7(%rip),%rax        # 24ad0 <g_464>
   10319:	48 8b 00             	mov    (%rax),%rax
   1031c:	48 39 c2             	cmp    %rax,%rdx
   1031f:	7e 57                	jle    10378 <func_22+0x146f>
   10321:	48 c7 85 70 f4 ff ff 	movq   $0x0,-0xb90(%rbp)
   10328:	00 00 00 00 
   1032c:	48 8d 05 11 1d 01 00 	lea    0x11d11(%rip),%rax        # 22044 <g_39>
   10333:	48 89 85 78 f4 ff ff 	mov    %rax,-0xb88(%rbp)
   1033a:	48 8d 05 9b 21 01 00 	lea    0x1219b(%rip),%rax        # 224dc <g_1287+0xc>
   10341:	48 89 85 80 f4 ff ff 	mov    %rax,-0xb80(%rbp)
   10348:	48 c7 85 88 f4 ff ff 	movq   $0x0,-0xb78(%rbp)
   1034f:	00 00 00 00 
   10353:	48 8d 85 90 fd ff ff 	lea    -0x270(%rbp),%rax
   1035a:	48 8d 15 3f 27 01 00 	lea    0x1273f(%rip),%rdx        # 22aa0 <g_2474+0x576>
   10361:	b9 36 00 00 00       	mov    $0x36,%ecx
   10366:	48 89 c7             	mov    %rax,%rdi
   10369:	48 89 d6             	mov    %rdx,%rsi
   1036c:	f3 48 a5             	rep movsq %ds:(%rsi),%es:(%rdi)
   1036f:	83 ad 60 f2 ff ff 01 	subl   $0x1,-0xda0(%rbp)
   10376:	eb 0f                	jmp    10387 <func_22+0x147e>
   10378:	48 8b 05 01 51 01 00 	mov    0x15101(%rip),%rax        # 25480 <g_1346>
   1037f:	8b 00                	mov    (%rax),%eax
   10381:	89 85 d4 f2 ff ff    	mov    %eax,-0xd2c(%rbp)
   10387:	c7 85 e0 f2 ff ff 06 	movl   $0x6,-0xd20(%rbp)
   1038e:	00 00 00 
   10391:	be 00 00 00 00       	mov    $0x0,%esi
   10396:	bf ff ff 00 00       	mov    $0xffff,%edi
   1039b:	e8 a8 9a ff ff       	callq  9e48 <safe_rshift_func_uint16_t_u_s>
   103a0:	48 8b 05 61 47 01 00 	mov    0x14761(%rip),%rax        # 24b08 <g_714>
   103a7:	48 8b 00             	mov    (%rax),%rax
   103aa:	0f b7 10             	movzwl (%rax),%edx
   103ad:	83 c2 01             	add    $0x1,%edx
   103b0:	66 89 10             	mov    %dx,(%rax)
   103b3:	0f b7 00             	movzwl (%rax),%eax
   103b6:	0f b7 c0             	movzwl %ax,%eax
   103b9:	be 00 00 00 00       	mov    $0x0,%esi
   103be:	89 c7                	mov    %eax,%edi
   103c0:	e8 78 99 ff ff       	callq  9d3d <safe_mul_func_uint16_t_u_u>
   103c5:	0f be c0             	movsbl %al,%eax
   103c8:	be 00 00 00 00       	mov    $0x0,%esi
   103cd:	89 c7                	mov    %eax,%edi
   103cf:	e8 98 8f ff ff       	callq  936c <safe_rshift_func_int8_t_s_u>
   103d4:	84 c0                	test   %al,%al
   103d6:	74 33                	je     1040b <func_22+0x1502>
   103d8:	48 8b 85 68 f4 ff ff 	mov    -0xb98(%rbp),%rax
   103df:	8b 10                	mov    (%rax),%edx
   103e1:	48 8b 85 40 f3 ff ff 	mov    -0xcc0(%rbp),%rax
   103e8:	48 85 c0             	test   %rax,%rax
   103eb:	0f 95 c0             	setne  %al
   103ee:	0f b6 c0             	movzbl %al,%eax
   103f1:	21 c2                	and    %eax,%edx
   103f3:	48 8b 85 68 f4 ff ff 	mov    -0xb98(%rbp),%rax
   103fa:	89 10                	mov    %edx,(%rax)
   103fc:	0f b6 85 08 f2 ff ff 	movzbl -0xdf8(%rbp),%eax
   10403:	0f b6 c0             	movzbl %al,%eax
   10406:	e9 48 14 00 00       	jmpq   11853 <func_22+0x294a>
   1040b:	48 c7 85 90 f4 ff ff 	movq   $0x0,-0xb70(%rbp)
   10412:	00 00 00 00 
   10416:	48 8d 05 63 5b 01 00 	lea    0x15b63(%rip),%rax        # 25f80 <g_622>
   1041d:	48 89 85 98 f4 ff ff 	mov    %rax,-0xb68(%rbp)
   10424:	48 8b 85 98 f4 ff ff 	mov    -0xb68(%rbp),%rax
   1042b:	48 8d 95 4c f2 ff ff 	lea    -0xdb4(%rbp),%rdx
   10432:	48 89 10             	mov    %rdx,(%rax)
   10435:	48 8b 15 dc 3e 01 00 	mov    0x13edc(%rip),%rdx        # 24318 <g_215>
   1043c:	48 8b 05 3d 5b 01 00 	mov    0x15b3d(%rip),%rax        # 25f80 <g_622>
   10443:	8b 12                	mov    (%rdx),%edx
   10445:	89 10                	mov    %edx,(%rax)
   10447:	48 8b 05 d2 50 01 00 	mov    0x150d2(%rip),%rax        # 25520 <g_1548>
   1044e:	48 8b 95 78 f5 ff ff 	mov    -0xa88(%rbp),%rdx
   10455:	48 89 10             	mov    %rdx,(%rax)
   10458:	48 8b 05 c9 50 01 00 	mov    0x150c9(%rip),%rax        # 25528 <g_1550>
   1045f:	48 8b 95 78 f5 ff ff 	mov    -0xa88(%rbp),%rdx
   10466:	48 89 10             	mov    %rdx,(%rax)
   10469:	c7 85 68 f2 ff ff 00 	movl   $0x0,-0xd98(%rbp)
   10470:	00 00 00 
   10473:	e9 36 03 00 00       	jmpq   107ae <func_22+0x18a5>
   10478:	c6 85 23 f2 ff ff 00 	movb   $0x0,-0xddd(%rbp)
   1047f:	c7 85 24 f3 ff ff 01 	movl   $0x1,-0xcdc(%rbp)
   10486:	00 00 00 
   10489:	48 8d 85 80 f6 ff ff 	lea    -0x980(%rbp),%rax
   10490:	48 83 c0 38          	add    $0x38,%rax
   10494:	48 89 85 90 fd ff ff 	mov    %rax,-0x270(%rbp)
   1049b:	48 8d 85 80 f6 ff ff 	lea    -0x980(%rbp),%rax
   104a2:	48 83 c0 38          	add    $0x38,%rax
   104a6:	48 89 85 98 fd ff ff 	mov    %rax,-0x268(%rbp)
   104ad:	48 8d 85 80 f6 ff ff 	lea    -0x980(%rbp),%rax
   104b4:	48 83 c0 38          	add    $0x38,%rax
   104b8:	48 89 85 a0 fd ff ff 	mov    %rax,-0x260(%rbp)
   104bf:	48 8d 85 80 f6 ff ff 	lea    -0x980(%rbp),%rax
   104c6:	48 83 c0 38          	add    $0x38,%rax
   104ca:	48 89 85 a8 fd ff ff 	mov    %rax,-0x258(%rbp)
   104d1:	48 8d 85 80 f6 ff ff 	lea    -0x980(%rbp),%rax
   104d8:	48 83 c0 38          	add    $0x38,%rax
   104dc:	48 89 85 b0 fd ff ff 	mov    %rax,-0x250(%rbp)
   104e3:	48 8d 85 80 f6 ff ff 	lea    -0x980(%rbp),%rax
   104ea:	48 83 c0 38          	add    $0x38,%rax
   104ee:	48 89 85 b8 fd ff ff 	mov    %rax,-0x248(%rbp)
   104f5:	48 8d 85 80 f6 ff ff 	lea    -0x980(%rbp),%rax
   104fc:	48 83 c0 38          	add    $0x38,%rax
   10500:	48 89 85 c0 fd ff ff 	mov    %rax,-0x240(%rbp)
   10507:	48 8d 85 80 f6 ff ff 	lea    -0x980(%rbp),%rax
   1050e:	48 83 c0 38          	add    $0x38,%rax
   10512:	48 89 85 c8 fd ff ff 	mov    %rax,-0x238(%rbp)
   10519:	48 8d 85 80 f6 ff ff 	lea    -0x980(%rbp),%rax
   10520:	48 83 c0 38          	add    $0x38,%rax
   10524:	48 89 85 d0 fd ff ff 	mov    %rax,-0x230(%rbp)
   1052b:	48 8d 85 80 f6 ff ff 	lea    -0x980(%rbp),%rax
   10532:	48 83 c0 38          	add    $0x38,%rax
   10536:	48 89 85 d8 fd ff ff 	mov    %rax,-0x228(%rbp)
   1053d:	48 8d 85 80 f6 ff ff 	lea    -0x980(%rbp),%rax
   10544:	48 83 c0 38          	add    $0x38,%rax
   10548:	48 89 85 e0 fd ff ff 	mov    %rax,-0x220(%rbp)
   1054f:	48 8d 85 80 f6 ff ff 	lea    -0x980(%rbp),%rax
   10556:	48 83 c0 38          	add    $0x38,%rax
   1055a:	48 89 85 e8 fd ff ff 	mov    %rax,-0x218(%rbp)
   10561:	48 8d 85 80 f6 ff ff 	lea    -0x980(%rbp),%rax
   10568:	48 83 c0 38          	add    $0x38,%rax
   1056c:	48 89 85 f0 fd ff ff 	mov    %rax,-0x210(%rbp)
   10573:	48 8d 85 80 f6 ff ff 	lea    -0x980(%rbp),%rax
   1057a:	48 83 c0 38          	add    $0x38,%rax
   1057e:	48 89 85 f8 fd ff ff 	mov    %rax,-0x208(%rbp)
   10585:	48 8d 85 80 f6 ff ff 	lea    -0x980(%rbp),%rax
   1058c:	48 83 c0 38          	add    $0x38,%rax
   10590:	48 89 85 00 fe ff ff 	mov    %rax,-0x200(%rbp)
   10597:	48 8d 85 80 f6 ff ff 	lea    -0x980(%rbp),%rax
   1059e:	48 83 c0 38          	add    $0x38,%rax
   105a2:	48 89 85 08 fe ff ff 	mov    %rax,-0x1f8(%rbp)
   105a9:	c7 85 28 f3 ff ff 65 	movl   $0xa4258465,-0xcd8(%rbp)
   105b0:	84 25 a4 
   105b3:	c7 85 2c f3 ff ff 03 	movl   $0x3,-0xcd4(%rbp)
   105ba:	00 00 00 
   105bd:	c7 85 30 f3 ff ff 01 	movl   $0x1,-0xcd0(%rbp)
   105c4:	00 00 00 
   105c7:	c7 85 d0 f6 ff ff 3b 	movl   $0x9235b43b,-0x930(%rbp)
   105ce:	b4 35 92 
   105d1:	c7 85 d4 f6 ff ff 9b 	movl   $0xa70e1f9b,-0x92c(%rbp)
   105d8:	1f 0e a7 
   105db:	c7 85 d8 f6 ff ff 9b 	movl   $0xa70e1f9b,-0x928(%rbp)
   105e2:	1f 0e a7 
   105e5:	c7 85 dc f6 ff ff 3b 	movl   $0x9235b43b,-0x924(%rbp)
   105ec:	b4 35 92 
   105ef:	c7 85 e0 f6 ff ff 9b 	movl   $0xa70e1f9b,-0x920(%rbp)
   105f6:	1f 0e a7 
   105f9:	c7 85 e4 f6 ff ff 9b 	movl   $0xa70e1f9b,-0x91c(%rbp)
   10600:	1f 0e a7 
   10603:	8b 85 c8 f4 ff ff    	mov    -0xb38(%rbp),%eax
   10609:	85 c0                	test   %eax,%eax
   1060b:	74 68                	je     10675 <func_22+0x176c>
   1060d:	c6 85 25 f2 ff ff 00 	movb   $0x0,-0xddb(%rbp)
   10614:	c7 85 7c f2 ff ff 00 	movl   $0x0,-0xd84(%rbp)
   1061b:	00 00 00 
   1061e:	eb 1e                	jmp    1063e <func_22+0x1735>
   10620:	8b 85 7c f2 ff ff    	mov    -0xd84(%rbp),%eax
   10626:	48 98                	cltq   
   10628:	48 8d 95 54 f2 ff ff 	lea    -0xdac(%rbp),%rdx
   1062f:	48 89 94 c5 50 f7 ff 	mov    %rdx,-0x8b0(%rbp,%rax,8)
   10636:	ff 
   10637:	83 85 7c f2 ff ff 01 	addl   $0x1,-0xd84(%rbp)
   1063e:	83 bd 7c f2 ff ff 04 	cmpl   $0x4,-0xd84(%rbp)
   10645:	7e d9                	jle    10620 <func_22+0x1717>
   10647:	0f b6 85 23 f2 ff ff 	movzbl -0xddd(%rbp),%eax
   1064e:	83 e8 01             	sub    $0x1,%eax
   10651:	88 85 23 f2 ff ff    	mov    %al,-0xddd(%rbp)
   10657:	66 83 85 26 f2 ff ff 	addw   $0x1,-0xdda(%rbp)
   1065e:	01 
   1065f:	48 8b 05 ba 4e 01 00 	mov    0x14eba(%rip),%rax        # 25520 <g_1548>
   10666:	48 8d 95 20 f2 ff ff 	lea    -0xde0(%rbp),%rdx
   1066d:	48 89 10             	mov    %rdx,(%rax)
   10670:	e9 32 01 00 00       	jmpq   107a7 <func_22+0x189e>
   10675:	48 c7 85 58 f3 ff ff 	movq   $0x0,-0xca8(%rbp)
   1067c:	00 00 00 00 
   10680:	48 8d 85 58 f3 ff ff 	lea    -0xca8(%rbp),%rax
   10687:	48 89 85 a0 f4 ff ff 	mov    %rax,-0xb60(%rbp)
   1068e:	48 8d 85 38 f3 ff ff 	lea    -0xcc8(%rbp),%rax
   10695:	48 89 85 a8 f4 ff ff 	mov    %rax,-0xb58(%rbp)
   1069c:	48 8d 85 50 f2 ff ff 	lea    -0xdb0(%rbp),%rax
   106a3:	48 89 85 b0 f4 ff ff 	mov    %rax,-0xb50(%rbp)
   106aa:	48 8d 85 44 f2 ff ff 	lea    -0xdbc(%rbp),%rax
   106b1:	48 89 85 b8 f4 ff ff 	mov    %rax,-0xb48(%rbp)
   106b8:	48 8d 85 70 fc ff ff 	lea    -0x390(%rbp),%rax
   106bf:	48 05 ec 00 00 00    	add    $0xec,%rax
   106c5:	48 89 85 50 f7 ff ff 	mov    %rax,-0x8b0(%rbp)
   106cc:	48 c7 85 58 f7 ff ff 	movq   $0x0,-0x8a8(%rbp)
   106d3:	00 00 00 00 
   106d7:	48 c7 85 60 f7 ff ff 	movq   $0x0,-0x8a0(%rbp)
   106de:	00 00 00 00 
   106e2:	48 8d 85 70 fc ff ff 	lea    -0x390(%rbp),%rax
   106e9:	48 05 ec 00 00 00    	add    $0xec,%rax
   106ef:	48 89 85 68 f7 ff ff 	mov    %rax,-0x898(%rbp)
   106f6:	48 c7 85 70 f7 ff ff 	movq   $0x0,-0x890(%rbp)
   106fd:	00 00 00 00 
   10701:	48 c7 85 78 f7 ff ff 	movq   $0x0,-0x888(%rbp)
   10708:	00 00 00 00 
   1070c:	48 8d 85 70 fc ff ff 	lea    -0x390(%rbp),%rax
   10713:	48 05 ec 00 00 00    	add    $0xec,%rax
   10719:	48 89 85 80 f7 ff ff 	mov    %rax,-0x880(%rbp)
   10720:	48 c7 85 88 f7 ff ff 	movq   $0x0,-0x878(%rbp)
   10727:	00 00 00 00 
   1072b:	48 c7 85 90 f7 ff ff 	movq   $0x0,-0x870(%rbp)
   10732:	00 00 00 00 
   10736:	c7 85 34 f3 ff ff b4 	movl   $0x2c93b6b4,-0xccc(%rbp)
   1073d:	b6 93 2c 
   10740:	c6 85 24 f2 ff ff ff 	movb   $0xff,-0xddc(%rbp)
   10747:	48 b8 f3 8c 68 d9 f7 	movabs $0x38c0f8f7d9688cf3,%rax
   1074e:	f8 c0 38 
   10751:	48 89 85 c0 f4 ff ff 	mov    %rax,-0xb40(%rbp)
   10758:	48 8b 85 a0 f4 ff ff 	mov    -0xb60(%rbp),%rax
   1075f:	48 8d 15 8a 45 01 00 	lea    0x1458a(%rip),%rdx        # 24cf0 <g_1216>
   10766:	48 89 10             	mov    %rdx,(%rax)
   10769:	8b 85 bc f2 ff ff    	mov    -0xd44(%rbp),%eax
   1076f:	0f b7 d0             	movzwl %ax,%edx
   10772:	48 8b 85 90 fd ff ff 	mov    -0x270(%rbp),%rax
   10779:	48 39 85 20 f4 ff ff 	cmp    %rax,-0xbe0(%rbp)
   10780:	0f 95 c0             	setne  %al
   10783:	0f b6 c0             	movzbl %al,%eax
   10786:	89 d6                	mov    %edx,%esi
   10788:	89 c7                	mov    %eax,%edi
   1078a:	e8 ff 95 ff ff       	callq  9d8e <safe_div_func_uint16_t_u_u>
   1078f:	89 c2                	mov    %eax,%edx
   10791:	48 8b 05 e8 57 01 00 	mov    0x157e8(%rip),%rax        # 25f80 <g_622>
   10798:	0f b7 d2             	movzwl %dx,%edx
   1079b:	89 10                	mov    %edx,(%rax)
   1079d:	0f b6 45 d6          	movzbl -0x2a(%rbp),%eax
   107a1:	83 c0 01             	add    $0x1,%eax
   107a4:	88 45 d6             	mov    %al,-0x2a(%rbp)
   107a7:	83 85 68 f2 ff ff 01 	addl   $0x1,-0xd98(%rbp)
   107ae:	83 bd 68 f2 ff ff 07 	cmpl   $0x7,-0xd98(%rbp)
   107b5:	0f 8e bd fc ff ff    	jle    10478 <func_22+0x156f>
   107bb:	0f b6 85 08 f2 ff ff 	movzbl -0xdf8(%rbp),%eax
   107c2:	0f b6 d8             	movzbl %al,%ebx
   107c5:	0f b6 85 20 f2 ff ff 	movzbl -0xde0(%rbp),%eax
   107cc:	44 0f b6 e0          	movzbl %al,%r12d
   107d0:	0f b6 85 08 f2 ff ff 	movzbl -0xdf8(%rbp),%eax
   107d7:	44 0f b6 e8          	movzbl %al,%r13d
   107db:	0f b7 85 0c f2 ff ff 	movzwl -0xdf4(%rbp),%eax
   107e2:	0f b7 c0             	movzwl %ax,%eax
   107e5:	89 85 c4 f2 ff ff    	mov    %eax,-0xd3c(%rbp)
   107eb:	83 bd c4 f2 ff ff 00 	cmpl   $0x0,-0xd3c(%rbp)
   107f2:	74 11                	je     10805 <func_22+0x18fc>
   107f4:	8b 85 04 f5 ff ff    	mov    -0xafc(%rbp),%eax
   107fa:	85 c0                	test   %eax,%eax
   107fc:	74 07                	je     10805 <func_22+0x18fc>
   107fe:	b8 01 00 00 00       	mov    $0x1,%eax
   10803:	eb 05                	jmp    1080a <func_22+0x1901>
   10805:	b8 00 00 00 00       	mov    $0x0,%eax
   1080a:	89 c2                	mov    %eax,%edx
   1080c:	0f b7 85 0c f2 ff ff 	movzwl -0xdf4(%rbp),%eax
   10813:	0f b6 c0             	movzbl %al,%eax
   10816:	89 d6                	mov    %edx,%esi
   10818:	89 c7                	mov    %eax,%edi
   1081a:	e8 9f 94 ff ff       	callq  9cbe <safe_rshift_func_uint8_t_u_u>
   1081f:	48 8b 05 d2 42 01 00 	mov    0x142d2(%rip),%rax        # 24af8 <g_654>
   10826:	48 8b 00             	mov    (%rax),%rax
   10829:	0f b6 10             	movzbl (%rax),%edx
   1082c:	83 c2 01             	add    $0x1,%edx
   1082f:	88 10                	mov    %dl,(%rax)
   10831:	0f b7 85 0c f2 ff ff 	movzwl -0xdf4(%rbp),%eax
   10838:	89 c2                	mov    %eax,%edx
   1083a:	48 8b 85 38 f4 ff ff 	mov    -0xbc8(%rbp),%rax
   10841:	88 10                	mov    %dl,(%rax)
   10843:	b8 01 00 00 00       	mov    $0x1,%eax
   10848:	89 c2                	mov    %eax,%edx
   1084a:	8b 85 d0 f2 ff ff    	mov    -0xd30(%rbp),%eax
   10850:	89 d1                	mov    %edx,%ecx
   10852:	31 c1                	xor    %eax,%ecx
   10854:	0f b6 85 08 f2 ff ff 	movzbl -0xdf8(%rbp),%eax
   1085b:	83 c8 01             	or     $0x1,%eax
   1085e:	89 c2                	mov    %eax,%edx
   10860:	8b 85 98 f2 ff ff    	mov    -0xd68(%rbp),%eax
   10866:	21 d0                	and    %edx,%eax
   10868:	09 c8                	or     %ecx,%eax
   1086a:	0f b6 c0             	movzbl %al,%eax
   1086d:	44 89 ee             	mov    %r13d,%esi
   10870:	89 c7                	mov    %eax,%edi
   10872:	e8 37 93 ff ff       	callq  9bae <safe_mod_func_uint8_t_u_u>
   10877:	0f b6 d0             	movzbl %al,%edx
   1087a:	0f b7 85 0c f2 ff ff 	movzwl -0xdf4(%rbp),%eax
   10881:	66 39 c2             	cmp    %ax,%dx
   10884:	0f 97 c0             	seta   %al
   10887:	0f b6 c0             	movzbl %al,%eax
   1088a:	44 89 e6             	mov    %r12d,%esi
   1088d:	89 c7                	mov    %eax,%edi
   1088f:	e8 1f 8b ff ff       	callq  93b3 <safe_add_func_int16_t_s_s>
   10894:	48 8b 95 48 f3 ff ff 	mov    -0xcb8(%rbp),%rdx
   1089b:	48 8b 85 30 f4 ff ff 	mov    -0xbd0(%rbp),%rax
   108a2:	48 89 10             	mov    %rdx,(%rax)
   108a5:	48 8b 85 30 f4 ff ff 	mov    -0xbd0(%rbp),%rax
   108ac:	48 8b 00             	mov    (%rax),%rax
   108af:	48 85 c0             	test   %rax,%rax
   108b2:	0f 95 c0             	setne  %al
   108b5:	0f b6 c0             	movzbl %al,%eax
   108b8:	89 de                	mov    %ebx,%esi
   108ba:	89 c7                	mov    %eax,%edi
   108bc:	e8 7c 94 ff ff       	callq  9d3d <safe_mul_func_uint16_t_u_u>
   108c1:	89 c2                	mov    %eax,%edx
   108c3:	48 8b 05 b6 56 01 00 	mov    0x156b6(%rip),%rax        # 25f80 <g_622>
   108ca:	0f b7 d2             	movzwl %dx,%edx
   108cd:	89 10                	mov    %edx,(%rax)
   108cf:	48 8b 05 1a 18 01 00 	mov    0x1181a(%rip),%rax        # 220f0 <g_247>
   108d6:	be 06 00 00 00       	mov    $0x6,%esi
   108db:	89 c7                	mov    %eax,%edi
   108dd:	e8 23 8d ff ff       	callq  9605 <safe_sub_func_int32_t_s_s>
   108e2:	48 98                	cltq   
   108e4:	48 89 05 05 18 01 00 	mov    %rax,0x11805(%rip)        # 220f0 <g_247>
   108eb:	48 8b 05 fe 17 01 00 	mov    0x117fe(%rip),%rax        # 220f0 <g_247>
   108f2:	48 83 f8 05          	cmp    $0x5,%rax
   108f6:	0f 8f 3a f1 ff ff    	jg     fa36 <func_22+0xb2d>
   108fc:	0f b7 05 fd 17 01 00 	movzwl 0x117fd(%rip),%eax        # 22100 <g_486>
   10903:	83 c0 01             	add    $0x1,%eax
   10906:	66 89 05 f3 17 01 00 	mov    %ax,0x117f3(%rip)        # 22100 <g_486>
   1090d:	0f b7 05 ec 17 01 00 	movzwl 0x117ec(%rip),%eax        # 22100 <g_486>
   10914:	66 83 f8 17          	cmp    $0x17,%ax
   10918:	0f 85 42 f0 ff ff    	jne    f960 <func_22+0xa57>
   1091e:	8b 05 80 17 01 00    	mov    0x11780(%rip),%eax        # 220a4 <g_88>
   10924:	83 c0 01             	add    $0x1,%eax
   10927:	89 05 77 17 01 00    	mov    %eax,0x11777(%rip)        # 220a4 <g_88>
   1092d:	8b 05 71 17 01 00    	mov    0x11771(%rip),%eax        # 220a4 <g_88>
   10933:	85 c0                	test   %eax,%eax
   10935:	0f 88 99 ee ff ff    	js     f7d4 <func_22+0x8cb>
   1093b:	c6 05 a2 1b 01 00 00 	movb   $0x0,0x11ba2(%rip)        # 224e4 <g_1434>
   10942:	e9 d2 0e 00 00       	jmpq   11819 <func_22+0x2910>
   10947:	c6 85 21 f2 ff ff 08 	movb   $0x8,-0xddf(%rbp)
   1094e:	c7 85 50 f2 ff ff fd 	movl   $0xfffffffd,-0xdb0(%rbp)
   10955:	ff ff ff 
   10958:	66 c7 85 2a f2 ff ff 	movw   $0x6,-0xdd6(%rbp)
   1095f:	06 00 
   10961:	48 8d 85 20 f8 ff ff 	lea    -0x7e0(%rbp),%rax
   10968:	48 05 c2 00 00 00    	add    $0xc2,%rax
   1096e:	48 89 85 90 f3 ff ff 	mov    %rax,-0xc70(%rbp)
   10975:	48 8d 05 14 17 01 00 	lea    0x11714(%rip),%rax        # 22090 <g_50>
   1097c:	48 89 85 98 f3 ff ff 	mov    %rax,-0xc68(%rbp)
   10983:	c7 85 ac f2 ff ff 00 	movl   $0x0,-0xd54(%rbp)
   1098a:	00 00 00 
   1098d:	c7 85 54 f2 ff ff 0c 	movl   $0x8badd30c,-0xdac(%rbp)
   10994:	d3 ad 8b 
   10997:	c7 85 80 f2 ff ff 00 	movl   $0x0,-0xd80(%rbp)
   1099e:	00 00 00 
   109a1:	eb 1b                	jmp    109be <func_22+0x1ab5>
   109a3:	8b 85 80 f2 ff ff    	mov    -0xd80(%rbp),%eax
   109a9:	48 98                	cltq   
   109ab:	48 c7 84 c5 50 f7 ff 	movq   $0x0,-0x8b0(%rbp,%rax,8)
   109b2:	ff 00 00 00 00 
   109b7:	83 85 80 f2 ff ff 01 	addl   $0x1,-0xd80(%rbp)
   109be:	83 bd 80 f2 ff ff 00 	cmpl   $0x0,-0xd80(%rbp)
   109c5:	7e dc                	jle    109a3 <func_22+0x1a9a>
   109c7:	66 83 85 2a f2 ff ff 	addw   $0x1,-0xdd6(%rbp)
   109ce:	01 
   109cf:	48 c7 85 60 f3 ff ff 	movq   $0xffffffffffffffed,-0xca0(%rbp)
   109d6:	ed ff ff ff 
   109da:	e9 00 0e 00 00       	jmpq   117df <func_22+0x28d6>
   109df:	48 c7 85 a0 f3 ff ff 	movq   $0x0,-0xc60(%rbp)
   109e6:	00 00 00 00 
   109ea:	c7 85 70 fc ff ff fa 	movl   $0xfffffffa,-0x390(%rbp)
   109f1:	ff ff ff 
   109f4:	c7 85 74 fc ff ff fa 	movl   $0xfffffffa,-0x38c(%rbp)
   109fb:	ff ff ff 
   109fe:	c7 85 78 fc ff ff fa 	movl   $0xfffffffa,-0x388(%rbp)
   10a05:	ff ff ff 
   10a08:	c7 85 7c fc ff ff fa 	movl   $0xfffffffa,-0x384(%rbp)
   10a0f:	ff ff ff 
   10a12:	c7 85 80 fc ff ff fa 	movl   $0xfffffffa,-0x380(%rbp)
   10a19:	ff ff ff 
   10a1c:	c7 85 84 fc ff ff fa 	movl   $0xfffffffa,-0x37c(%rbp)
   10a23:	ff ff ff 
   10a26:	c7 85 88 fc ff ff fa 	movl   $0xfffffffa,-0x378(%rbp)
   10a2d:	ff ff ff 
   10a30:	c7 85 8c fc ff ff fa 	movl   $0xfffffffa,-0x374(%rbp)
   10a37:	ff ff ff 
   10a3a:	c7 85 90 fc ff ff fa 	movl   $0xfffffffa,-0x370(%rbp)
   10a41:	ff ff ff 
   10a44:	c7 85 94 fc ff ff fa 	movl   $0xfffffffa,-0x36c(%rbp)
   10a4b:	ff ff ff 
   10a4e:	c7 85 98 fc ff ff fa 	movl   $0xfffffffa,-0x368(%rbp)
   10a55:	ff ff ff 
   10a58:	c7 85 9c fc ff ff fa 	movl   $0xfffffffa,-0x364(%rbp)
   10a5f:	ff ff ff 
   10a62:	c7 85 a0 fc ff ff fa 	movl   $0xfffffffa,-0x360(%rbp)
   10a69:	ff ff ff 
   10a6c:	c7 85 a4 fc ff ff fa 	movl   $0xfffffffa,-0x35c(%rbp)
   10a73:	ff ff ff 
   10a76:	c7 85 a8 fc ff ff fa 	movl   $0xfffffffa,-0x358(%rbp)
   10a7d:	ff ff ff 
   10a80:	c7 85 ac fc ff ff fa 	movl   $0xfffffffa,-0x354(%rbp)
   10a87:	ff ff ff 
   10a8a:	c7 85 b0 fc ff ff fa 	movl   $0xfffffffa,-0x350(%rbp)
   10a91:	ff ff ff 
   10a94:	c7 85 b4 fc ff ff fa 	movl   $0xfffffffa,-0x34c(%rbp)
   10a9b:	ff ff ff 
   10a9e:	48 8d 05 cb 15 01 00 	lea    0x115cb(%rip),%rax        # 22070 <g_41+0x10>
   10aa5:	48 89 85 38 f3 ff ff 	mov    %rax,-0xcc8(%rbp)
   10aac:	48 8d 85 38 f3 ff ff 	lea    -0xcc8(%rbp),%rax
   10ab3:	48 89 85 40 f3 ff ff 	mov    %rax,-0xcc0(%rbp)
   10aba:	48 8d 85 50 f7 ff ff 	lea    -0x8b0(%rbp),%rax
   10ac1:	48 89 85 48 f3 ff ff 	mov    %rax,-0xcb8(%rbp)
   10ac8:	c6 85 48 f2 ff ff 38 	movb   $0x38,-0xdb8(%rbp)
   10acf:	c7 85 84 f2 ff ff 00 	movl   $0x0,-0xd7c(%rbp)
   10ad6:	00 00 00 
   10ad9:	eb 19                	jmp    10af4 <func_22+0x1beb>
   10adb:	8b 85 84 f2 ff ff    	mov    -0xd7c(%rbp),%eax
   10ae1:	48 98                	cltq   
   10ae3:	66 c7 84 45 d0 f6 ff 	movw   $0x1,-0x930(%rbp,%rax,2)
   10aea:	ff 01 00 
   10aed:	83 85 84 f2 ff ff 01 	addl   $0x1,-0xd7c(%rbp)
   10af4:	83 bd 84 f2 ff ff 00 	cmpl   $0x0,-0xd7c(%rbp)
   10afb:	7e de                	jle    10adb <func_22+0x1bd2>
   10afd:	c7 05 9d 15 01 00 00 	movl   $0x0,0x1159d(%rip)        # 220a4 <g_88>
   10b04:	00 00 00 
   10b07:	e9 1a 0c 00 00       	jmpq   11726 <func_22+0x281d>
   10b0c:	c7 85 88 f2 ff ff fd 	movl   $0xfffffffd,-0xd78(%rbp)
   10b13:	ff ff ff 
   10b16:	c7 85 b0 f2 ff ff fd 	movl   $0xfffffffd,-0xd50(%rbp)
   10b1d:	ff ff ff 
   10b20:	66 c7 85 4c f2 ff ff 	movw   $0x5213,-0xdb4(%rbp)
   10b27:	13 52 
   10b29:	c6 85 22 f2 ff ff f6 	movb   $0xf6,-0xdde(%rbp)
   10b30:	48 c7 85 a8 f3 ff ff 	movq   $0x0,-0xc58(%rbp)
   10b37:	00 00 00 00 
   10b3b:	48 c7 85 b0 f3 ff ff 	movq   $0x0,-0xc50(%rbp)
   10b42:	00 00 00 00 
   10b46:	48 c7 85 b8 f3 ff ff 	movq   $0x0,-0xc48(%rbp)
   10b4d:	00 00 00 00 
   10b51:	c7 85 8c f2 ff ff 00 	movl   $0x0,-0xd74(%rbp)
   10b58:	00 00 00 
   10b5b:	eb 1a                	jmp    10b77 <func_22+0x1c6e>
   10b5d:	8b 85 8c f2 ff ff    	mov    -0xd74(%rbp),%eax
   10b63:	48 98                	cltq   
   10b65:	c7 84 85 50 fb ff ff 	movl   $0xfffffff9,-0x4b0(%rbp,%rax,4)
   10b6c:	f9 ff ff ff 
   10b70:	83 85 8c f2 ff ff 01 	addl   $0x1,-0xd74(%rbp)
   10b77:	83 bd 8c f2 ff ff 04 	cmpl   $0x4,-0xd74(%rbp)
   10b7e:	7e dd                	jle    10b5d <func_22+0x1c54>
   10b80:	c7 85 8c f2 ff ff 00 	movl   $0x0,-0xd74(%rbp)
   10b87:	00 00 00 
   10b8a:	eb 1a                	jmp    10ba6 <func_22+0x1c9d>
   10b8c:	8b 85 8c f2 ff ff    	mov    -0xd74(%rbp),%eax
   10b92:	48 98                	cltq   
   10b94:	c7 84 85 10 f9 ff ff 	movl   $0x1,-0x6f0(%rbp,%rax,4)
   10b9b:	01 00 00 00 
   10b9f:	83 85 8c f2 ff ff 01 	addl   $0x1,-0xd74(%rbp)
   10ba6:	83 bd 8c f2 ff ff 01 	cmpl   $0x1,-0xd74(%rbp)
   10bad:	7e dd                	jle    10b8c <func_22+0x1c83>
   10baf:	8b 05 ef 14 01 00    	mov    0x114ef(%rip),%eax        # 220a4 <g_88>
   10bb5:	8d 48 04             	lea    0x4(%rax),%ecx
   10bb8:	8b 05 e6 14 01 00    	mov    0x114e6(%rip),%eax        # 220a4 <g_88>
   10bbe:	8b 15 e0 14 01 00    	mov    0x114e0(%rip),%edx        # 220a4 <g_88>
   10bc4:	48 63 f2             	movslq %edx,%rsi
   10bc7:	48 63 d1             	movslq %ecx,%rdx
   10bca:	48 63 c8             	movslq %eax,%rcx
   10bcd:	48 89 d0             	mov    %rdx,%rax
   10bd0:	48 01 c0             	add    %rax,%rax
   10bd3:	48 01 d0             	add    %rdx,%rax
   10bd6:	48 c1 e0 03          	shl    $0x3,%rax
   10bda:	48 89 ca             	mov    %rcx,%rdx
   10bdd:	48 01 d2             	add    %rdx,%rdx
   10be0:	48 01 ca             	add    %rcx,%rdx
   10be3:	48 01 d0             	add    %rdx,%rax
   10be6:	48 01 f0             	add    %rsi,%rax
   10be9:	48 8d 14 85 00 00 00 	lea    0x0(,%rax,4),%rdx
   10bf0:	00 
   10bf1:	48 8d 05 28 15 01 00 	lea    0x11528(%rip),%rax        # 22120 <g_546>
   10bf8:	8b 04 02             	mov    (%rdx,%rax,1),%eax
   10bfb:	89 c0                	mov    %eax,%eax
   10bfd:	48 89 85 a0 f3 ff ff 	mov    %rax,-0xc60(%rbp)
   10c04:	48 83 bd a0 f3 ff ff 	cmpq   $0x0,-0xc60(%rbp)
   10c0b:	00 
   10c0c:	0f 84 9e 02 00 00    	je     10eb0 <func_22+0x1fa7>
   10c12:	66 c7 85 30 fa ff ff 	movw   $0xfff8,-0x5d0(%rbp)
   10c19:	f8 ff 
   10c1b:	66 c7 85 32 fa ff ff 	movw   $0xfff8,-0x5ce(%rbp)
   10c22:	f8 ff 
   10c24:	66 c7 85 34 fa ff ff 	movw   $0xfff8,-0x5cc(%rbp)
   10c2b:	f8 ff 
   10c2d:	66 c7 85 36 fa ff ff 	movw   $0xfff8,-0x5ca(%rbp)
   10c34:	f8 ff 
   10c36:	c7 85 b4 f2 ff ff 01 	movl   $0x1,-0xd4c(%rbp)
   10c3d:	00 00 00 
   10c40:	c7 85 b8 f2 ff ff d0 	movl   $0xa5df11d0,-0xd48(%rbp)
   10c47:	11 df a5 
   10c4a:	48 8b 05 a7 3e 01 00 	mov    0x13ea7(%rip),%rax        # 24af8 <g_654>
   10c51:	48 8b 00             	mov    (%rax),%rax
   10c54:	48 39 85 90 f3 ff ff 	cmp    %rax,-0xc70(%rbp)
   10c5b:	0f 95 c0             	setne  %al
   10c5e:	0f b6 c0             	movzbl %al,%eax
   10c61:	89 85 88 f2 ff ff    	mov    %eax,-0xd78(%rbp)
   10c67:	83 bd 88 f2 ff ff 00 	cmpl   $0x0,-0xd78(%rbp)
   10c6e:	0f 84 98 00 00 00    	je     10d0c <func_22+0x1e03>
   10c74:	48 8d 85 38 f2 ff ff 	lea    -0xdc8(%rbp),%rax
   10c7b:	48 89 85 d0 f3 ff ff 	mov    %rax,-0xc30(%rbp)
   10c82:	c7 85 90 fd ff ff fe 	movl   $0x40da6bfe,-0x270(%rbp)
   10c89:	6b da 40 
   10c8c:	c7 85 94 fd ff ff fe 	movl   $0x40da6bfe,-0x26c(%rbp)
   10c93:	6b da 40 
   10c96:	c7 85 98 fd ff ff fe 	movl   $0x40da6bfe,-0x268(%rbp)
   10c9d:	6b da 40 
   10ca0:	c7 85 9c fd ff ff fe 	movl   $0x40da6bfe,-0x264(%rbp)
   10ca7:	6b da 40 
   10caa:	c7 85 a0 fd ff ff fe 	movl   $0x40da6bfe,-0x260(%rbp)
   10cb1:	6b da 40 
   10cb4:	c7 85 a4 fd ff ff fe 	movl   $0x40da6bfe,-0x25c(%rbp)
   10cbb:	6b da 40 
   10cbe:	c7 85 a8 fd ff ff fe 	movl   $0x40da6bfe,-0x258(%rbp)
   10cc5:	6b da 40 
   10cc8:	c7 85 ac fd ff ff fe 	movl   $0x40da6bfe,-0x254(%rbp)
   10ccf:	6b da 40 
   10cd2:	c7 85 b0 fd ff ff fe 	movl   $0x40da6bfe,-0x250(%rbp)
   10cd9:	6b da 40 
   10cdc:	48 8b 05 5d 48 01 00 	mov    0x1485d(%rip),%rax        # 25540 <g_1673>
   10ce3:	48 8b 95 d0 f3 ff ff 	mov    -0xc30(%rbp),%rdx
   10cea:	48 89 10             	mov    %rdx,(%rax)
   10ced:	0f b6 85 22 f2 ff ff 	movzbl -0xdde(%rbp),%eax
   10cf4:	83 c0 01             	add    $0x1,%eax
   10cf7:	88 85 22 f2 ff ff    	mov    %al,-0xdde(%rbp)
   10cfd:	c7 05 ad 17 01 00 00 	movl   $0x0,0x117ad(%rip)        # 224b4 <g_946>
   10d04:	00 00 00 
   10d07:	e9 72 01 00 00       	jmpq   10e7e <func_22+0x1f75>
   10d0c:	48 8b 05 85 3e 01 00 	mov    0x13e85(%rip),%rax        # 24b98 <g_1030>
   10d13:	48 8b 00             	mov    (%rax),%rax
   10d16:	8b 00                	mov    (%rax),%eax
   10d18:	85 c0                	test   %eax,%eax
   10d1a:	0f 85 15 0a 00 00    	jne    11735 <func_22+0x282c>
   10d20:	48 8b 85 a0 f3 ff ff 	mov    -0xc60(%rbp),%rax
   10d27:	e9 27 0b 00 00       	jmpq   11853 <func_22+0x294a>
   10d2c:	48 c7 85 d8 f3 ff ff 	movq   $0x0,-0xc28(%rbp)
   10d33:	00 00 00 00 
   10d37:	48 8d 85 40 f3 ff ff 	lea    -0xcc0(%rbp),%rax
   10d3e:	48 89 85 e0 f3 ff ff 	mov    %rax,-0xc20(%rbp)
   10d45:	48 8d 85 48 f3 ff ff 	lea    -0xcb8(%rbp),%rax
   10d4c:	48 89 85 e8 f3 ff ff 	mov    %rax,-0xc18(%rbp)
   10d53:	48 8d 85 50 f7 ff ff 	lea    -0x8b0(%rbp),%rax
   10d5a:	48 89 85 f0 f3 ff ff 	mov    %rax,-0xc10(%rbp)
   10d61:	48 8b 95 40 f3 ff ff 	mov    -0xcc0(%rbp),%rdx
   10d68:	48 8b 85 e0 f3 ff ff 	mov    -0xc20(%rbp),%rax
   10d6f:	48 89 10             	mov    %rdx,(%rax)
   10d72:	48 8d 85 38 f3 ff ff 	lea    -0xcc8(%rbp),%rax
   10d79:	48 89 85 a8 f3 ff ff 	mov    %rax,-0xc58(%rbp)
   10d80:	48 8b 95 48 f3 ff ff 	mov    -0xcb8(%rbp),%rdx
   10d87:	48 8b 85 e8 f3 ff ff 	mov    -0xc18(%rbp),%rax
   10d8e:	48 89 10             	mov    %rdx,(%rax)
   10d91:	48 8b 85 e8 f3 ff ff 	mov    -0xc18(%rbp),%rax
   10d98:	48 8b 00             	mov    (%rax),%rax
   10d9b:	48 8d 15 de 51 01 00 	lea    0x151de(%rip),%rdx        # 25f80 <g_622>
   10da2:	48 39 d0             	cmp    %rdx,%rax
   10da5:	75 6c                	jne    10e13 <func_22+0x1f0a>
   10da7:	0f b7 85 0c f2 ff ff 	movzwl -0xdf4(%rbp),%eax
   10dae:	66 85 c0             	test   %ax,%ax
   10db1:	75 48                	jne    10dfb <func_22+0x1ef2>
   10db3:	48 8b 05 5e 35 01 00 	mov    0x1355e(%rip),%rax        # 24318 <g_215>
   10dba:	8b 10                	mov    (%rax),%edx
   10dbc:	48 8d 85 0c f2 ff ff 	lea    -0xdf4(%rbp),%rax
   10dc3:	48 39 85 b0 f3 ff ff 	cmp    %rax,-0xc50(%rbp)
   10dca:	0f 95 c0             	setne  %al
   10dcd:	0f b6 c0             	movzbl %al,%eax
   10dd0:	39 c2                	cmp    %eax,%edx
   10dd2:	0f 9f c0             	setg   %al
   10dd5:	0f b6 d0             	movzbl %al,%edx
   10dd8:	0f b7 85 0c f2 ff ff 	movzwl -0xdf4(%rbp),%eax
   10ddf:	0f b7 c0             	movzwl %ax,%eax
   10de2:	39 c2                	cmp    %eax,%edx
   10de4:	0f 9d c0             	setge  %al
   10de7:	0f b6 c0             	movzbl %al,%eax
   10dea:	be f0 8e ff ff       	mov    $0xffff8ef0,%esi
   10def:	89 c7                	mov    %eax,%edi
   10df1:	e8 ff 85 ff ff       	callq  93f5 <safe_mul_func_int16_t_s_s>
   10df6:	66 85 c0             	test   %ax,%ax
   10df9:	74 07                	je     10e02 <func_22+0x1ef9>
   10dfb:	ba 01 00 00 00       	mov    $0x1,%edx
   10e00:	eb 05                	jmp    10e07 <func_22+0x1efe>
   10e02:	ba 00 00 00 00       	mov    $0x0,%edx
   10e07:	0f b7 85 32 fa ff ff 	movzwl -0x5ce(%rbp),%eax
   10e0e:	98                   	cwtl   
   10e0f:	39 c2                	cmp    %eax,%edx
   10e11:	74 07                	je     10e1a <func_22+0x1f11>
   10e13:	b8 01 00 00 00       	mov    $0x1,%eax
   10e18:	eb 05                	jmp    10e1f <func_22+0x1f16>
   10e1a:	b8 00 00 00 00       	mov    $0x0,%eax
   10e1f:	0f b7 d8             	movzwl %ax,%ebx
   10e22:	48 8b 05 cf 3c 01 00 	mov    0x13ccf(%rip),%rax        # 24af8 <g_654>
   10e29:	48 8b 00             	mov    (%rax),%rax
   10e2c:	0f b6 10             	movzbl (%rax),%edx
   10e2f:	83 f2 30             	xor    $0x30,%edx
   10e32:	88 10                	mov    %dl,(%rax)
   10e34:	0f b6 00             	movzbl (%rax),%eax
   10e37:	0f b6 c0             	movzbl %al,%eax
   10e3a:	be 01 00 00 00       	mov    $0x1,%esi
   10e3f:	89 c7                	mov    %eax,%edi
   10e41:	e8 78 8e ff ff       	callq  9cbe <safe_rshift_func_uint8_t_u_u>
   10e46:	0f b6 c0             	movzbl %al,%eax
   10e49:	be 09 00 00 00       	mov    $0x9,%esi
   10e4e:	89 c7                	mov    %eax,%edi
   10e50:	e8 d5 86 ff ff       	callq  952a <safe_rshift_func_int16_t_s_s>
   10e55:	0f b7 c0             	movzwl %ax,%eax
   10e58:	89 de                	mov    %ebx,%esi
   10e5a:	89 c7                	mov    %eax,%edi
   10e5c:	e8 fb 8e ff ff       	callq  9d5c <safe_mod_func_uint16_t_u_u>
   10e61:	48 8b 85 f0 f3 ff ff 	mov    -0xc10(%rbp),%rax
   10e68:	48 c7 00 00 00 00 00 	movq   $0x0,(%rax)
   10e6f:	8b 05 3f 16 01 00    	mov    0x1163f(%rip),%eax        # 224b4 <g_946>
   10e75:	83 c0 01             	add    $0x1,%eax
   10e78:	89 05 36 16 01 00    	mov    %eax,0x11636(%rip)        # 224b4 <g_946>
   10e7e:	8b 05 30 16 01 00    	mov    0x11630(%rip),%eax        # 224b4 <g_946>
   10e84:	83 f8 01             	cmp    $0x1,%eax
   10e87:	0f 86 9f fe ff ff    	jbe    10d2c <func_22+0x1e23>
   10e8d:	48 8b 05 ec 50 01 00 	mov    0x150ec(%rip),%rax        # 25f80 <g_622>
   10e94:	8b 08                	mov    (%rax),%ecx
   10e96:	0f b7 85 0c f2 ff ff 	movzwl -0xdf4(%rbp),%eax
   10e9d:	0f b7 d0             	movzwl %ax,%edx
   10ea0:	48 8b 05 d9 50 01 00 	mov    0x150d9(%rip),%rax        # 25f80 <g_622>
   10ea7:	09 ca                	or     %ecx,%edx
   10ea9:	89 10                	mov    %edx,(%rax)
   10eab:	e9 5d 05 00 00       	jmpq   1140d <func_22+0x2504>
   10eb0:	48 8d 85 4c f2 ff ff 	lea    -0xdb4(%rbp),%rax
   10eb7:	48 89 85 90 fd ff ff 	mov    %rax,-0x270(%rbp)
   10ebe:	48 8d 05 cb 11 01 00 	lea    0x111cb(%rip),%rax        # 22090 <g_50>
   10ec5:	48 89 85 98 fd ff ff 	mov    %rax,-0x268(%rbp)
   10ecc:	48 8d 05 b5 15 01 00 	lea    0x115b5(%rip),%rax        # 22488 <g_615>
   10ed3:	48 89 85 a0 fd ff ff 	mov    %rax,-0x260(%rbp)
   10eda:	48 8d 05 af 11 01 00 	lea    0x111af(%rip),%rax        # 22090 <g_50>
   10ee1:	48 89 85 a8 fd ff ff 	mov    %rax,-0x258(%rbp)
   10ee8:	48 8d 85 4c f2 ff ff 	lea    -0xdb4(%rbp),%rax
   10eef:	48 89 85 b0 fd ff ff 	mov    %rax,-0x250(%rbp)
   10ef6:	48 8d 05 cb 15 01 00 	lea    0x115cb(%rip),%rax        # 224c8 <g_1199>
   10efd:	48 89 85 b8 fd ff ff 	mov    %rax,-0x248(%rbp)
   10f04:	48 8d 05 85 11 01 00 	lea    0x11185(%rip),%rax        # 22090 <g_50>
   10f0b:	48 89 85 c0 fd ff ff 	mov    %rax,-0x240(%rbp)
   10f12:	48 8d 85 4c f2 ff ff 	lea    -0xdb4(%rbp),%rax
   10f19:	48 89 85 c8 fd ff ff 	mov    %rax,-0x238(%rbp)
   10f20:	48 8d 05 a1 15 01 00 	lea    0x115a1(%rip),%rax        # 224c8 <g_1199>
   10f27:	48 89 85 d0 fd ff ff 	mov    %rax,-0x230(%rbp)
   10f2e:	48 8d 05 93 15 01 00 	lea    0x11593(%rip),%rax        # 224c8 <g_1199>
   10f35:	48 89 85 d8 fd ff ff 	mov    %rax,-0x228(%rbp)
   10f3c:	48 8d 85 4c f2 ff ff 	lea    -0xdb4(%rbp),%rax
   10f43:	48 89 85 e0 fd ff ff 	mov    %rax,-0x220(%rbp)
   10f4a:	48 8d 05 3f 11 01 00 	lea    0x1113f(%rip),%rax        # 22090 <g_50>
   10f51:	48 89 85 e8 fd ff ff 	mov    %rax,-0x218(%rbp)
   10f58:	48 c7 85 f0 fd ff ff 	movq   $0x0,-0x210(%rbp)
   10f5f:	00 00 00 00 
   10f63:	48 8d 05 26 11 01 00 	lea    0x11126(%rip),%rax        # 22090 <g_50>
   10f6a:	48 89 85 f8 fd ff ff 	mov    %rax,-0x208(%rbp)
   10f71:	48 8d 05 6e 15 01 00 	lea    0x1156e(%rip),%rax        # 224e6 <g_1654>
   10f78:	48 89 85 00 fe ff ff 	mov    %rax,-0x200(%rbp)
   10f7f:	48 8d 85 4c f2 ff ff 	lea    -0xdb4(%rbp),%rax
   10f86:	48 89 85 08 fe ff ff 	mov    %rax,-0x1f8(%rbp)
   10f8d:	48 8d 05 52 15 01 00 	lea    0x11552(%rip),%rax        # 224e6 <g_1654>
   10f94:	48 89 85 10 fe ff ff 	mov    %rax,-0x1f0(%rbp)
   10f9b:	48 8d 05 ee 10 01 00 	lea    0x110ee(%rip),%rax        # 22090 <g_50>
   10fa2:	48 89 85 18 fe ff ff 	mov    %rax,-0x1e8(%rbp)
   10fa9:	48 8d 05 36 15 01 00 	lea    0x11536(%rip),%rax        # 224e6 <g_1654>
   10fb0:	48 89 85 20 fe ff ff 	mov    %rax,-0x1e0(%rbp)
   10fb7:	48 c7 85 28 fe ff ff 	movq   $0x0,-0x1d8(%rbp)
   10fbe:	00 00 00 00 
   10fc2:	48 8d 05 ff 14 01 00 	lea    0x114ff(%rip),%rax        # 224c8 <g_1199>
   10fc9:	48 89 85 30 fe ff ff 	mov    %rax,-0x1d0(%rbp)
   10fd0:	48 8d 05 b1 14 01 00 	lea    0x114b1(%rip),%rax        # 22488 <g_615>
   10fd7:	48 89 85 38 fe ff ff 	mov    %rax,-0x1c8(%rbp)
   10fde:	48 8d 05 a3 14 01 00 	lea    0x114a3(%rip),%rax        # 22488 <g_615>
   10fe5:	48 89 85 40 fe ff ff 	mov    %rax,-0x1c0(%rbp)
   10fec:	48 8d 05 d5 14 01 00 	lea    0x114d5(%rip),%rax        # 224c8 <g_1199>
   10ff3:	48 89 85 48 fe ff ff 	mov    %rax,-0x1b8(%rbp)
   10ffa:	48 8d 05 e5 14 01 00 	lea    0x114e5(%rip),%rax        # 224e6 <g_1654>
   11001:	48 89 85 50 fe ff ff 	mov    %rax,-0x1b0(%rbp)
   11008:	48 8d 05 d7 14 01 00 	lea    0x114d7(%rip),%rax        # 224e6 <g_1654>
   1100f:	48 89 85 58 fe ff ff 	mov    %rax,-0x1a8(%rbp)
   11016:	48 8d 05 6b 14 01 00 	lea    0x1146b(%rip),%rax        # 22488 <g_615>
   1101d:	48 89 85 60 fe ff ff 	mov    %rax,-0x1a0(%rbp)
   11024:	48 8d 85 4c f2 ff ff 	lea    -0xdb4(%rbp),%rax
   1102b:	48 89 85 68 fe ff ff 	mov    %rax,-0x198(%rbp)
   11032:	48 8d 05 8f 14 01 00 	lea    0x1148f(%rip),%rax        # 224c8 <g_1199>
   11039:	48 89 85 70 fe ff ff 	mov    %rax,-0x190(%rbp)
   11040:	48 8d 85 4c f2 ff ff 	lea    -0xdb4(%rbp),%rax
   11047:	48 89 85 78 fe ff ff 	mov    %rax,-0x188(%rbp)
   1104e:	48 c7 85 80 fe ff ff 	movq   $0x0,-0x180(%rbp)
   11055:	00 00 00 00 
   11059:	48 8d 05 86 14 01 00 	lea    0x11486(%rip),%rax        # 224e6 <g_1654>
   11060:	48 89 85 88 fe ff ff 	mov    %rax,-0x178(%rbp)
   11067:	48 c7 85 90 fe ff ff 	movq   $0x0,-0x170(%rbp)
   1106e:	00 00 00 00 
   11072:	48 8d 05 4f 14 01 00 	lea    0x1144f(%rip),%rax        # 224c8 <g_1199>
   11079:	48 89 85 98 fe ff ff 	mov    %rax,-0x168(%rbp)
   11080:	48 8d 05 01 14 01 00 	lea    0x11401(%rip),%rax        # 22488 <g_615>
   11087:	48 89 85 a0 fe ff ff 	mov    %rax,-0x160(%rbp)
   1108e:	48 8d 05 f3 13 01 00 	lea    0x113f3(%rip),%rax        # 22488 <g_615>
   11095:	48 89 85 a8 fe ff ff 	mov    %rax,-0x158(%rbp)
   1109c:	48 8d 05 ed 0f 01 00 	lea    0x10fed(%rip),%rax        # 22090 <g_50>
   110a3:	48 89 85 b0 fe ff ff 	mov    %rax,-0x150(%rbp)
   110aa:	48 c7 85 b8 fe ff ff 	movq   $0x0,-0x148(%rbp)
   110b1:	00 00 00 00 
   110b5:	48 c7 85 c0 fe ff ff 	movq   $0x0,-0x140(%rbp)
   110bc:	00 00 00 00 
   110c0:	48 8d 05 c9 0f 01 00 	lea    0x10fc9(%rip),%rax        # 22090 <g_50>
   110c7:	48 89 85 c8 fe ff ff 	mov    %rax,-0x138(%rbp)
   110ce:	48 8d 05 11 14 01 00 	lea    0x11411(%rip),%rax        # 224e6 <g_1654>
   110d5:	48 89 85 d0 fe ff ff 	mov    %rax,-0x130(%rbp)
   110dc:	48 8d 85 4c f2 ff ff 	lea    -0xdb4(%rbp),%rax
   110e3:	48 89 85 d8 fe ff ff 	mov    %rax,-0x128(%rbp)
   110ea:	48 8d 85 4c f2 ff ff 	lea    -0xdb4(%rbp),%rax
   110f1:	48 89 85 e0 fe ff ff 	mov    %rax,-0x120(%rbp)
   110f8:	48 8d 05 91 0f 01 00 	lea    0x10f91(%rip),%rax        # 22090 <g_50>
   110ff:	48 89 85 e8 fe ff ff 	mov    %rax,-0x118(%rbp)
   11106:	48 8d 05 7b 13 01 00 	lea    0x1137b(%rip),%rax        # 22488 <g_615>
   1110d:	48 89 85 f0 fe ff ff 	mov    %rax,-0x110(%rbp)
   11114:	48 8d 05 75 0f 01 00 	lea    0x10f75(%rip),%rax        # 22090 <g_50>
   1111b:	48 89 85 f8 fe ff ff 	mov    %rax,-0x108(%rbp)
   11122:	48 8d 85 4c f2 ff ff 	lea    -0xdb4(%rbp),%rax
   11129:	48 89 85 00 ff ff ff 	mov    %rax,-0x100(%rbp)
   11130:	48 8d 05 91 13 01 00 	lea    0x11391(%rip),%rax        # 224c8 <g_1199>
   11137:	48 89 85 08 ff ff ff 	mov    %rax,-0xf8(%rbp)
   1113e:	48 8d 05 4b 0f 01 00 	lea    0x10f4b(%rip),%rax        # 22090 <g_50>
   11145:	48 89 85 10 ff ff ff 	mov    %rax,-0xf0(%rbp)
   1114c:	48 8d 85 4c f2 ff ff 	lea    -0xdb4(%rbp),%rax
   11153:	48 89 85 18 ff ff ff 	mov    %rax,-0xe8(%rbp)
   1115a:	48 8d 05 67 13 01 00 	lea    0x11367(%rip),%rax        # 224c8 <g_1199>
   11161:	48 89 85 20 ff ff ff 	mov    %rax,-0xe0(%rbp)
   11168:	48 8d 05 59 13 01 00 	lea    0x11359(%rip),%rax        # 224c8 <g_1199>
   1116f:	48 89 85 28 ff ff ff 	mov    %rax,-0xd8(%rbp)
   11176:	48 8d 85 4c f2 ff ff 	lea    -0xdb4(%rbp),%rax
   1117d:	48 89 85 30 ff ff ff 	mov    %rax,-0xd0(%rbp)
   11184:	48 8d 05 05 0f 01 00 	lea    0x10f05(%rip),%rax        # 22090 <g_50>
   1118b:	48 89 85 38 ff ff ff 	mov    %rax,-0xc8(%rbp)
   11192:	48 c7 85 40 ff ff ff 	movq   $0x0,-0xc0(%rbp)
   11199:	00 00 00 00 
   1119d:	48 8d 05 ec 0e 01 00 	lea    0x10eec(%rip),%rax        # 22090 <g_50>
   111a4:	48 89 85 48 ff ff ff 	mov    %rax,-0xb8(%rbp)
   111ab:	48 8d 05 34 13 01 00 	lea    0x11334(%rip),%rax        # 224e6 <g_1654>
   111b2:	48 89 85 50 ff ff ff 	mov    %rax,-0xb0(%rbp)
   111b9:	48 8d 85 4c f2 ff ff 	lea    -0xdb4(%rbp),%rax
   111c0:	48 89 85 58 ff ff ff 	mov    %rax,-0xa8(%rbp)
   111c7:	48 8d 05 18 13 01 00 	lea    0x11318(%rip),%rax        # 224e6 <g_1654>
   111ce:	48 89 85 60 ff ff ff 	mov    %rax,-0xa0(%rbp)
   111d5:	48 8d 05 b4 0e 01 00 	lea    0x10eb4(%rip),%rax        # 22090 <g_50>
   111dc:	48 89 85 68 ff ff ff 	mov    %rax,-0x98(%rbp)
   111e3:	48 8d 05 fc 12 01 00 	lea    0x112fc(%rip),%rax        # 224e6 <g_1654>
   111ea:	48 89 85 70 ff ff ff 	mov    %rax,-0x90(%rbp)
   111f1:	48 c7 85 78 ff ff ff 	movq   $0x0,-0x88(%rbp)
   111f8:	00 00 00 00 
   111fc:	48 8d 05 c5 12 01 00 	lea    0x112c5(%rip),%rax        # 224c8 <g_1199>
   11203:	48 89 45 80          	mov    %rax,-0x80(%rbp)
   11207:	48 8d 05 7a 12 01 00 	lea    0x1127a(%rip),%rax        # 22488 <g_615>
   1120e:	48 89 45 88          	mov    %rax,-0x78(%rbp)
   11212:	48 8d 05 6f 12 01 00 	lea    0x1126f(%rip),%rax        # 22488 <g_615>
   11219:	48 89 45 90          	mov    %rax,-0x70(%rbp)
   1121d:	48 8d 05 a4 12 01 00 	lea    0x112a4(%rip),%rax        # 224c8 <g_1199>
   11224:	48 89 45 98          	mov    %rax,-0x68(%rbp)
   11228:	48 8d 05 99 12 01 00 	lea    0x11299(%rip),%rax        # 224c8 <g_1199>
   1122f:	48 89 45 a0          	mov    %rax,-0x60(%rbp)
   11233:	48 8d 05 8e 12 01 00 	lea    0x1128e(%rip),%rax        # 224c8 <g_1199>
   1123a:	48 89 45 a8          	mov    %rax,-0x58(%rbp)
   1123e:	48 8d 05 a1 12 01 00 	lea    0x112a1(%rip),%rax        # 224e6 <g_1654>
   11245:	48 89 45 b0          	mov    %rax,-0x50(%rbp)
   11249:	48 8d 05 78 12 01 00 	lea    0x11278(%rip),%rax        # 224c8 <g_1199>
   11250:	48 89 45 b8          	mov    %rax,-0x48(%rbp)
   11254:	48 8d 05 35 0e 01 00 	lea    0x10e35(%rip),%rax        # 22090 <g_50>
   1125b:	48 89 45 c0          	mov    %rax,-0x40(%rbp)
   1125f:	48 8d 05 62 12 01 00 	lea    0x11262(%rip),%rax        # 224c8 <g_1199>
   11266:	48 89 45 c8          	mov    %rax,-0x38(%rbp)
   1126a:	c7 85 3c f2 ff ff 01 	movl   $0x1,-0xdc4(%rbp)
   11271:	00 00 00 
   11274:	e9 80 01 00 00       	jmpq   113f9 <func_22+0x24f0>
   11279:	48 c7 85 c0 f3 ff ff 	movq   $0x0,-0xc40(%rbp)
   11280:	00 00 00 00 
   11284:	48 8d 05 15 12 01 00 	lea    0x11215(%rip),%rax        # 224a0 <g_890>
   1128b:	48 89 85 c8 f3 ff ff 	mov    %rax,-0xc38(%rbp)
   11292:	0f b6 85 08 f2 ff ff 	movzbl -0xdf8(%rbp),%eax
   11299:	0f b6 d8             	movzbl %al,%ebx
   1129c:	8b 85 c8 f4 ff ff    	mov    -0xb38(%rbp),%eax
   112a2:	4c 63 e0             	movslq %eax,%r12
   112a5:	0f b6 85 08 f2 ff ff 	movzbl -0xdf8(%rbp),%eax
   112ac:	0f b6 d0             	movzbl %al,%edx
   112af:	48 8b 05 62 30 01 00 	mov    0x13062(%rip),%rax        # 24318 <g_215>
   112b6:	8b 00                	mov    (%rax),%eax
   112b8:	09 d0                	or     %edx,%eax
   112ba:	48 63 d0             	movslq %eax,%rdx
   112bd:	48 8b 05 14 38 01 00 	mov    0x13814(%rip),%rax        # 24ad8 <g_463>
   112c4:	0f b7 b5 4c f2 ff ff 	movzwl -0xdb4(%rbp),%esi
   112cb:	8b 85 3c f2 ff ff    	mov    -0xdc4(%rbp),%eax
   112d1:	48 98                	cltq   
   112d3:	8b 8c 85 c8 f4 ff ff 	mov    -0xb38(%rbp,%rax,4),%ecx
   112da:	48 8b 85 90 f3 ff ff 	mov    -0xc70(%rbp),%rax
   112e1:	0f b6 00             	movzbl (%rax),%eax
   112e4:	89 c7                	mov    %eax,%edi
   112e6:	89 f0                	mov    %esi,%eax
   112e8:	09 f8                	or     %edi,%eax
   112ea:	89 c6                	mov    %eax,%esi
   112ec:	48 8b 85 90 f3 ff ff 	mov    -0xc70(%rbp),%rax
   112f3:	40 88 30             	mov    %sil,(%rax)
   112f6:	48 8b 85 90 f3 ff ff 	mov    -0xc70(%rbp),%rax
   112fd:	0f b6 00             	movzbl (%rax),%eax
   11300:	0f b6 c0             	movzbl %al,%eax
   11303:	39 c1                	cmp    %eax,%ecx
   11305:	0f 9e c0             	setle  %al
   11308:	0f b6 c0             	movzbl %al,%eax
   1130b:	48 89 d6             	mov    %rdx,%rsi
   1130e:	48 89 c7             	mov    %rax,%rdi
   11311:	e8 99 8d ff ff       	callq  a0af <safe_div_func_uint64_t_u_u>
   11316:	48 8b 85 d8 fd ff ff 	mov    -0x228(%rbp),%rax
   1131d:	48 39 85 98 f3 ff ff 	cmp    %rax,-0xc68(%rbp)
   11324:	0f 95 c0             	setne  %al
   11327:	0f b6 c0             	movzbl %al,%eax
   1132a:	4c 89 e6             	mov    %r12,%rsi
   1132d:	48 89 c7             	mov    %rax,%rdi
   11330:	e8 73 85 ff ff       	callq  98a8 <safe_sub_func_int64_t_s_s>
   11335:	0f b6 d0             	movzbl %al,%edx
   11338:	8b 85 3c f2 ff ff    	mov    -0xdc4(%rbp),%eax
   1133e:	48 98                	cltq   
   11340:	8b 84 85 c8 f4 ff ff 	mov    -0xb38(%rbp,%rax,4),%eax
   11347:	0f b6 c0             	movzbl %al,%eax
   1134a:	89 d6                	mov    %edx,%esi
   1134c:	89 c7                	mov    %eax,%edi
   1134e:	e8 5b 88 ff ff       	callq  9bae <safe_mod_func_uint8_t_u_u>
   11353:	0f be c0             	movsbl %al,%eax
   11356:	89 c6                	mov    %eax,%esi
   11358:	bf 87 ff ff ff       	mov    $0xffffff87,%edi
   1135d:	e8 b0 7e ff ff       	callq  9212 <safe_mul_func_int8_t_s_s>
   11362:	0f be d0             	movsbl %al,%edx
   11365:	0f b7 85 0c f2 ff ff 	movzwl -0xdf4(%rbp),%eax
   1136c:	0f b7 c0             	movzwl %ax,%eax
   1136f:	39 c2                	cmp    %eax,%edx
   11371:	0f 9d c0             	setge  %al
   11374:	0f b6 c0             	movzbl %al,%eax
   11377:	89 de                	mov    %ebx,%esi
   11379:	89 c7                	mov    %eax,%edi
   1137b:	e8 2e 88 ff ff       	callq  9bae <safe_mod_func_uint8_t_u_u>
   11380:	48 8b 85 c8 f3 ff ff 	mov    -0xc38(%rbp),%rax
   11387:	48 c7 00 00 00 00 00 	movq   $0x0,(%rax)
   1138e:	48 8b 85 c8 f3 ff ff 	mov    -0xc38(%rbp),%rax
   11395:	48 8b 00             	mov    (%rax),%rax
   11398:	48 89 c7             	mov    %rax,%rdi
   1139b:	e8 79 8c ff ff       	callq  a019 <safe_unary_minus_func_uint64_t_u>
   113a0:	48 85 c0             	test   %rax,%rax
   113a3:	74 12                	je     113b7 <func_22+0x24ae>
   113a5:	0f b6 85 08 f2 ff ff 	movzbl -0xdf8(%rbp),%eax
   113ac:	84 c0                	test   %al,%al
   113ae:	74 07                	je     113b7 <func_22+0x24ae>
   113b0:	ba 01 00 00 00       	mov    $0x1,%edx
   113b5:	eb 05                	jmp    113bc <func_22+0x24b3>
   113b7:	ba 00 00 00 00       	mov    $0x0,%edx
   113bc:	8b 85 3c f2 ff ff    	mov    -0xdc4(%rbp),%eax
   113c2:	48 98                	cltq   
   113c4:	89 94 85 c8 f4 ff ff 	mov    %edx,-0xb38(%rbp,%rax,4)
   113cb:	83 bd ac f2 ff ff 00 	cmpl   $0x0,-0xd54(%rbp)
   113d2:	75 35                	jne    11409 <func_22+0x2500>
   113d4:	48 8b 05 3d 2f 01 00 	mov    0x12f3d(%rip),%rax        # 24318 <g_215>
   113db:	8b 00                	mov    (%rax),%eax
   113dd:	85 c0                	test   %eax,%eax
   113df:	75 2b                	jne    1140c <func_22+0x2503>
   113e1:	0f b6 85 08 f2 ff ff 	movzbl -0xdf8(%rbp),%eax
   113e8:	84 c0                	test   %al,%al
   113ea:	8b 85 3c f2 ff ff    	mov    -0xdc4(%rbp),%eax
   113f0:	83 e8 01             	sub    $0x1,%eax
   113f3:	89 85 3c f2 ff ff    	mov    %eax,-0xdc4(%rbp)
   113f9:	8b 85 3c f2 ff ff    	mov    -0xdc4(%rbp),%eax
   113ff:	85 c0                	test   %eax,%eax
   11401:	0f 89 72 fe ff ff    	jns    11279 <func_22+0x2370>
   11407:	eb 04                	jmp    1140d <func_22+0x2504>
   11409:	90                   	nop
   1140a:	eb 01                	jmp    1140d <func_22+0x2504>
   1140c:	90                   	nop
   1140d:	0f b7 85 0c f2 ff ff 	movzwl -0xdf4(%rbp),%eax
   11414:	66 85 c0             	test   %ax,%ax
   11417:	75 15                	jne    1142e <func_22+0x2525>
   11419:	8b 85 b0 f2 ff ff    	mov    -0xd50(%rbp),%eax
   1141f:	0f b6 c0             	movzbl %al,%eax
   11422:	be 06 00 00 00       	mov    $0x6,%esi
   11427:	89 c7                	mov    %eax,%edi
   11429:	e8 d7 87 ff ff       	callq  9c05 <safe_lshift_func_uint8_t_u_s>
   1142e:	0f b7 85 0c f2 ff ff 	movzwl -0xdf4(%rbp),%eax
   11435:	0f bf d0             	movswl %ax,%edx
   11438:	48 83 bd b8 f3 ff ff 	cmpq   $0x5f,-0xc48(%rbp)
   1143f:	5f 
   11440:	0f 95 c0             	setne  %al
   11443:	0f b6 c0             	movzbl %al,%eax
   11446:	89 d6                	mov    %edx,%esi
   11448:	89 c7                	mov    %eax,%edi
   1144a:	e8 a6 7f ff ff       	callq  93f5 <safe_mul_func_int16_t_s_s>
   1144f:	0f bf d0             	movswl %ax,%edx
   11452:	8b 85 54 f2 ff ff    	mov    -0xdac(%rbp),%eax
   11458:	31 c2                	xor    %eax,%edx
   1145a:	0f b6 85 08 f2 ff ff 	movzbl -0xdf8(%rbp),%eax
   11461:	0f b6 c0             	movzbl %al,%eax
   11464:	21 c2                	and    %eax,%edx
   11466:	0f b7 85 0c f2 ff ff 	movzwl -0xdf4(%rbp),%eax
   1146d:	0f b7 c0             	movzwl %ax,%eax
   11470:	39 c2                	cmp    %eax,%edx
   11472:	0f 95 c0             	setne  %al
   11475:	0f b6 d0             	movzbl %al,%edx
   11478:	48 8b 05 71 38 01 00 	mov    0x13871(%rip),%rax        # 24cf0 <g_1216>
   1147f:	48 8b 00             	mov    (%rax),%rax
   11482:	0f b7 00             	movzwl (%rax),%eax
   11485:	98                   	cwtl   
   11486:	39 c2                	cmp    %eax,%edx
   11488:	0f 95 c0             	setne  %al
   1148b:	0f b6 c0             	movzbl %al,%eax
   1148e:	89 c6                	mov    %eax,%esi
   11490:	bf ff ff ff ff       	mov    $0xffffffff,%edi
   11495:	e8 58 7d ff ff       	callq  91f2 <safe_sub_func_int8_t_s_s>
   1149a:	84 c0                	test   %al,%al
   1149c:	79 13                	jns    114b1 <func_22+0x25a8>
   1149e:	0f b7 05 23 10 01 00 	movzwl 0x11023(%rip),%eax        # 224c8 <g_1199>
   114a5:	66 85 c0             	test   %ax,%ax
   114a8:	74 07                	je     114b1 <func_22+0x25a8>
   114aa:	b8 01 00 00 00       	mov    $0x1,%eax
   114af:	eb 05                	jmp    114b6 <func_22+0x25ad>
   114b1:	b8 00 00 00 00       	mov    $0x0,%eax
   114b6:	89 85 94 f2 ff ff    	mov    %eax,-0xd6c(%rbp)
   114bc:	be 01 00 00 00       	mov    $0x1,%esi
   114c1:	bf 01 00 00 00       	mov    $0x1,%edi
   114c6:	e8 08 7f ff ff       	callq  93d3 <safe_sub_func_int16_t_s_s>
   114cb:	66 83 f8 2d          	cmp    $0x2d,%ax
   114cf:	0f 9e c0             	setle  %al
   114d2:	0f b6 c0             	movzbl %al,%eax
   114d5:	be fd ff 00 00       	mov    $0xfffd,%esi
   114da:	89 c7                	mov    %eax,%edi
   114dc:	e8 5c 88 ff ff       	callq  9d3d <safe_mul_func_uint16_t_u_u>
   114e1:	0f be c0             	movsbl %al,%eax
   114e4:	be 2a 00 00 00       	mov    $0x2a,%esi
   114e9:	89 c7                	mov    %eax,%edi
   114eb:	e8 41 7d ff ff       	callq  9231 <safe_mod_func_int8_t_s_s>
   114f0:	0f b7 85 0c f2 ff ff 	movzwl -0xdf4(%rbp),%eax
   114f7:	0f be c0             	movsbl %al,%eax
   114fa:	be f6 ff ff ff       	mov    $0xfffffff6,%esi
   114ff:	89 c7                	mov    %eax,%edi
   11501:	e8 2b 7d ff ff       	callq  9231 <safe_mod_func_int8_t_s_s>
   11506:	84 c0                	test   %al,%al
   11508:	0f 84 ce 00 00 00    	je     115dc <func_22+0x26d3>
   1150e:	48 8d 05 bb 0b 01 00 	lea    0x10bbb(%rip),%rax        # 220d0 <g_164>
   11515:	48 89 85 08 f4 ff ff 	mov    %rax,-0xbf8(%rbp)
   1151c:	48 c7 85 50 f3 ff ff 	movq   $0x0,-0xcb0(%rbp)
   11523:	00 00 00 00 
   11527:	48 8d 85 50 f3 ff ff 	lea    -0xcb0(%rbp),%rax
   1152e:	48 89 85 58 f3 ff ff 	mov    %rax,-0xca8(%rbp)
   11535:	48 8d 85 58 f3 ff ff 	lea    -0xca8(%rbp),%rax
   1153c:	48 89 85 10 f4 ff ff 	mov    %rax,-0xbf0(%rbp)
   11543:	48 8d 85 54 f2 ff ff 	lea    -0xdac(%rbp),%rax
   1154a:	48 89 85 18 f4 ff ff 	mov    %rax,-0xbe8(%rbp)
   11551:	0f b6 85 08 f2 ff ff 	movzbl -0xdf8(%rbp),%eax
   11558:	0f b6 c0             	movzbl %al,%eax
   1155b:	23 85 b0 f2 ff ff    	and    -0xd50(%rbp),%eax
   11561:	89 c1                	mov    %eax,%ecx
   11563:	0f b6 85 08 f2 ff ff 	movzbl -0xdf8(%rbp),%eax
   1156a:	84 c0                	test   %al,%al
   1156c:	0f 95 c0             	setne  %al
   1156f:	0f b6 d0             	movzbl %al,%edx
   11572:	0f b6 85 08 f2 ff ff 	movzbl -0xdf8(%rbp),%eax
   11579:	0f b6 c0             	movzbl %al,%eax
   1157c:	31 c2                	xor    %eax,%edx
   1157e:	48 8b 05 5b 37 01 00 	mov    0x1375b(%rip),%rax        # 24ce0 <g_1125>
   11585:	8b 00                	mov    (%rax),%eax
   11587:	39 c2                	cmp    %eax,%edx
   11589:	0f 9f c0             	setg   %al
   1158c:	0f b6 d0             	movzbl %al,%edx
   1158f:	48 8b 85 08 f4 ff ff 	mov    -0xbf8(%rbp),%rax
   11596:	48 89 10             	mov    %rdx,(%rax)
   11599:	48 8b 85 08 f4 ff ff 	mov    -0xbf8(%rbp),%rax
   115a0:	48 8b 10             	mov    (%rax),%rdx
   115a3:	48 8b 05 9e 3f 01 00 	mov    0x13f9e(%rip),%rax        # 25548 <g_1739>
   115aa:	48 39 85 10 f4 ff ff 	cmp    %rax,-0xbf0(%rbp)
   115b1:	0f 95 c0             	setne  %al
   115b4:	0f b6 c0             	movzbl %al,%eax
   115b7:	48 39 c2             	cmp    %rax,%rdx
   115ba:	0f 93 c0             	setae  %al
   115bd:	0f b6 c0             	movzbl %al,%eax
   115c0:	09 c8                	or     %ecx,%eax
   115c2:	89 c2                	mov    %eax,%edx
   115c4:	48 8b 85 18 f4 ff ff 	mov    -0xbe8(%rbp),%rax
   115cb:	89 10                	mov    %edx,(%rax)
   115cd:	c7 85 a8 f2 ff ff 01 	movl   $0x1,-0xd58(%rbp)
   115d4:	00 00 00 
   115d7:	e9 15 01 00 00       	jmpq   116f1 <func_22+0x27e8>
   115dc:	66 c7 85 2c f2 ff ff 	movw   $0xb562,-0xdd4(%rbp)
   115e3:	62 b5 
   115e5:	48 c7 85 f8 f3 ff ff 	movq   $0x0,-0xc08(%rbp)
   115ec:	00 00 00 00 
   115f0:	48 8d 05 ca 0a 01 00 	lea    0x10aca(%rip),%rax        # 220c1 <g_155+0x1>
   115f7:	48 89 85 00 f4 ff ff 	mov    %rax,-0xc00(%rbp)
   115fe:	48 8d 85 50 f2 ff ff 	lea    -0xdb0(%rbp),%rax
   11605:	48 89 05 2c 4a 01 00 	mov    %rax,0x14a2c(%rip)        # 26038 <g_1746>
   1160c:	0f b7 85 2c f2 ff ff 	movzwl -0xdd4(%rbp),%eax
   11613:	83 e8 01             	sub    $0x1,%eax
   11616:	66 89 85 2c f2 ff ff 	mov    %ax,-0xdd4(%rbp)
   1161d:	8b 85 54 f2 ff ff    	mov    -0xdac(%rbp),%eax
   11623:	85 c0                	test   %eax,%eax
   11625:	0f 85 e9 00 00 00    	jne    11714 <func_22+0x280b>
   1162b:	0f b6 85 08 f2 ff ff 	movzbl -0xdf8(%rbp),%eax
   11632:	0f b6 d8             	movzbl %al,%ebx
   11635:	0f b6 85 08 f2 ff ff 	movzbl -0xdf8(%rbp),%eax
   1163c:	0f b6 c0             	movzbl %al,%eax
   1163f:	48 89 c6             	mov    %rax,%rsi
   11642:	bf 00 00 00 00       	mov    $0x0,%edi
   11647:	e8 68 83 ff ff       	callq  99b4 <safe_mod_func_int64_t_s_s>
   1164c:	48 8b 15 cd 2c 01 00 	mov    0x12ccd(%rip),%rdx        # 24320 <g_214>
   11653:	48 8b 12             	mov    (%rdx),%rdx
   11656:	8b 12                	mov    (%rdx),%edx
   11658:	48 63 d2             	movslq %edx,%rdx
   1165b:	48 39 d0             	cmp    %rdx,%rax
   1165e:	0f 95 c0             	setne  %al
   11661:	0f b6 c0             	movzbl %al,%eax
   11664:	09 d8                	or     %ebx,%eax
   11666:	be 66 20 1f 84       	mov    $0x841f2066,%esi
   1166b:	89 c7                	mov    %eax,%edi
   1166d:	e8 8b 88 ff ff       	callq  9efd <safe_mod_func_uint32_t_u_u>
   11672:	85 c0                	test   %eax,%eax
   11674:	75 0b                	jne    11681 <func_22+0x2778>
   11676:	0f b6 85 08 f2 ff ff 	movzbl -0xdf8(%rbp),%eax
   1167d:	84 c0                	test   %al,%al
   1167f:	74 07                	je     11688 <func_22+0x277f>
   11681:	b8 01 00 00 00       	mov    $0x1,%eax
   11686:	eb 05                	jmp    1168d <func_22+0x2784>
   11688:	b8 00 00 00 00       	mov    $0x0,%eax
   1168d:	3b 85 88 f2 ff ff    	cmp    -0xd78(%rbp),%eax
   11693:	0f 9f c2             	setg   %dl
   11696:	48 8b 05 4b 36 01 00 	mov    0x1364b(%rip),%rax        # 24ce8 <g_1217>
   1169d:	0f b6 d2             	movzbl %dl,%edx
   116a0:	66 89 10             	mov    %dx,(%rax)
   116a3:	0f b7 00             	movzwl (%rax),%eax
   116a6:	48 0f bf c0          	movswq %ax,%rax
   116aa:	48 0d 06 b0 00 00    	or     $0xb006,%rax
   116b0:	48 89 c2             	mov    %rax,%rdx
   116b3:	0f b6 85 08 f2 ff ff 	movzbl -0xdf8(%rbp),%eax
   116ba:	0f b6 c0             	movzbl %al,%eax
   116bd:	48 39 c2             	cmp    %rax,%rdx
   116c0:	0f 95 c0             	setne  %al
   116c3:	89 c2                	mov    %eax,%edx
   116c5:	48 8b 85 00 f4 ff ff 	mov    -0xc00(%rbp),%rax
   116cc:	88 10                	mov    %dl,(%rax)
   116ce:	48 8b 85 00 f4 ff ff 	mov    -0xc00(%rbp),%rax
   116d5:	0f b6 00             	movzbl (%rax),%eax
   116d8:	3c 45                	cmp    $0x45,%al
   116da:	7e 07                	jle    116e3 <func_22+0x27da>
   116dc:	ba 01 00 00 00       	mov    $0x1,%edx
   116e1:	eb 05                	jmp    116e8 <func_22+0x27df>
   116e3:	ba 00 00 00 00       	mov    $0x0,%edx
   116e8:	48 8b 05 49 49 01 00 	mov    0x14949(%rip),%rax        # 26038 <g_1746>
   116ef:	89 10                	mov    %edx,(%rax)
   116f1:	83 bd 98 f2 ff ff 00 	cmpl   $0x0,-0xd68(%rbp)
   116f8:	75 20                	jne    1171a <func_22+0x2811>
   116fa:	83 bd b0 f2 ff ff 00 	cmpl   $0x0,-0xd50(%rbp)
   11701:	75 1d                	jne    11720 <func_22+0x2817>
   11703:	8b 05 9b 09 01 00    	mov    0x1099b(%rip),%eax        # 220a4 <g_88>
   11709:	83 c0 01             	add    $0x1,%eax
   1170c:	89 05 92 09 01 00    	mov    %eax,0x10992(%rip)        # 220a4 <g_88>
   11712:	eb 12                	jmp    11726 <func_22+0x281d>
   11714:	90                   	nop
   11715:	e9 ab e0 ff ff       	jmpq   f7c5 <func_22+0x8bc>
   1171a:	90                   	nop
   1171b:	e9 a5 e0 ff ff       	jmpq   f7c5 <func_22+0x8bc>
   11720:	90                   	nop
   11721:	e9 9f e0 ff ff       	jmpq   f7c5 <func_22+0x8bc>
   11726:	8b 05 78 09 01 00    	mov    0x10978(%rip),%eax        # 220a4 <g_88>
   1172c:	83 f8 02             	cmp    $0x2,%eax
   1172f:	0f 8e d7 f3 ff ff    	jle    10b0c <func_22+0x1c03>
   11735:	48 8b 05 c4 33 01 00 	mov    0x133c4(%rip),%rax        # 24b00 <g_715>
   1173c:	0f b7 00             	movzwl (%rax),%eax
   1173f:	0f b7 d8             	movzwl %ax,%ebx
   11742:	48 81 bd 60 f3 ff ff 	cmpq   $0x9d,-0xca0(%rbp)
   11749:	9d 00 00 00 
   1174d:	0f 95 c0             	setne  %al
   11750:	0f b6 d0             	movzbl %al,%edx
   11753:	48 8b 05 76 33 01 00 	mov    0x13376(%rip),%rax        # 24ad0 <g_464>
   1175a:	48 8b 00             	mov    (%rax),%rax
   1175d:	48 39 c2             	cmp    %rax,%rdx
   11760:	0f 95 c0             	setne  %al
   11763:	0f b6 d0             	movzbl %al,%edx
   11766:	0f b6 85 08 f2 ff ff 	movzbl -0xdf8(%rbp),%eax
   1176d:	0f b6 c0             	movzbl %al,%eax
   11770:	89 d6                	mov    %edx,%esi
   11772:	89 c7                	mov    %eax,%edi
   11774:	e8 1a 84 ff ff       	callq  9b93 <safe_mul_func_uint8_t_u_u>
   11779:	0f b6 c0             	movzbl %al,%eax
   1177c:	89 c6                	mov    %eax,%esi
   1177e:	bf 70 7c b7 be       	mov    $0xbeb77c70,%edi
   11783:	e8 2e 7e ff ff       	callq  95b6 <safe_add_func_int32_t_s_s>
   11788:	48 8b 05 a9 3d 01 00 	mov    0x13da9(%rip),%rax        # 25538 <g_1608>
   1178f:	8b 00                	mov    (%rax),%eax
   11791:	be 01 00 00 00       	mov    $0x1,%esi
   11796:	89 c7                	mov    %eax,%edi
   11798:	e8 62 7f ff ff       	callq  96ff <safe_div_func_int32_t_s_s>
   1179d:	0f be c0             	movsbl %al,%eax
   117a0:	89 c7                	mov    %eax,%edi
   117a2:	e8 18 7a ff ff       	callq  91bf <safe_unary_minus_func_int8_t_s>
   117a7:	0f be c0             	movsbl %al,%eax
   117aa:	39 c3                	cmp    %eax,%ebx
   117ac:	0f 95 c0             	setne  %al
   117af:	0f b6 d0             	movzbl %al,%edx
   117b2:	8b 05 30 0d 01 00    	mov    0x10d30(%rip),%eax        # 224e8 <g_1655>
   117b8:	09 d0                	or     %edx,%eax
   117ba:	89 05 28 0d 01 00    	mov    %eax,0x10d28(%rip)        # 224e8 <g_1655>
   117c0:	48 8b 85 60 f3 ff ff 	mov    -0xca0(%rbp),%rax
   117c7:	98                   	cwtl   
   117c8:	be 02 00 00 00       	mov    $0x2,%esi
   117cd:	89 c7                	mov    %eax,%edi
   117cf:	e8 df 7b ff ff       	callq  93b3 <safe_add_func_int16_t_s_s>
   117d4:	48 0f bf c0          	movswq %ax,%rax
   117d8:	48 89 85 60 f3 ff ff 	mov    %rax,-0xca0(%rbp)
   117df:	48 83 bd 60 f3 ff ff 	cmpq   $0xffffffffffffffff,-0xca0(%rbp)
   117e6:	ff 
   117e7:	0f 85 f2 f1 ff ff    	jne    109df <func_22+0x1ad6>
   117ed:	48 8b 05 f4 32 01 00 	mov    0x132f4(%rip),%rax        # 24ae8 <g_646>
   117f4:	48 8d 95 50 f2 ff ff 	lea    -0xdb0(%rbp),%rdx
   117fb:	48 89 10             	mov    %rdx,(%rax)
   117fe:	0f b6 85 08 f2 ff ff 	movzbl -0xdf8(%rbp),%eax
   11805:	84 c0                	test   %al,%al
   11807:	75 21                	jne    1182a <func_22+0x2921>
   11809:	0f b6 05 d4 0c 01 00 	movzbl 0x10cd4(%rip),%eax        # 224e4 <g_1434>
   11810:	83 c0 01             	add    $0x1,%eax
   11813:	88 05 cb 0c 01 00    	mov    %al,0x10ccb(%rip)        # 224e4 <g_1434>
   11819:	0f b6 05 c4 0c 01 00 	movzbl 0x10cc4(%rip),%eax        # 224e4 <g_1434>
   11820:	3c 19                	cmp    $0x19,%al
   11822:	0f 86 1f f1 ff ff    	jbe    10947 <func_22+0x1a3e>
   11828:	eb 01                	jmp    1182b <func_22+0x2922>
   1182a:	90                   	nop
   1182b:	48 8b 85 70 f3 ff ff 	mov    -0xc90(%rbp),%rax
   11832:	48 8d 95 34 f2 ff ff 	lea    -0xdcc(%rbp),%rdx
   11839:	48 89 10             	mov    %rdx,(%rax)
   1183c:	0f b6 05 fd 47 01 00 	movzbl 0x147fd(%rip),%eax        # 26040 <g_1783>
   11843:	83 e8 01             	sub    $0x1,%eax
   11846:	88 05 f4 47 01 00    	mov    %al,0x147f4(%rip)        # 26040 <g_1783>
   1184c:	0f b7 85 0c f2 ff ff 	movzwl -0xdf4(%rbp),%eax
   11853:	48 8b 5d d8          	mov    -0x28(%rbp),%rbx
   11857:	64 48 33 1c 25 28 00 	xor    %fs:0x28,%rbx
   1185e:	00 00 
   11860:	74 05                	je     11867 <func_22+0x295e>
   11862:	e8 09 78 ff ff       	callq  9070 <__stack_chk_fail@plt>
   11867:	48 81 c4 e8 0d 00 00 	add    $0xde8,%rsp
   1186e:	5b                   	pop    %rbx
   1186f:	41 5c                	pop    %r12
   11871:	41 5d                	pop    %r13
   11873:	5d                   	pop    %rbp
   11874:	c3                   	retq   

0000000000011875 <func_25>:
   11875:	f3 0f 1e fa          	endbr64 
   11879:	55                   	push   %rbp
   1187a:	48 89 e5             	mov    %rsp,%rbp
   1187d:	41 56                	push   %r14
   1187f:	41 55                	push   %r13
   11881:	41 54                	push   %r12
   11883:	53                   	push   %rbx
   11884:	48 81 ec 00 10 00 00 	sub    $0x1000,%rsp
   1188b:	48 83 0c 24 00       	orq    $0x0,(%rsp)
   11890:	48 81 ec 80 01 00 00 	sub    $0x180,%rsp
   11897:	89 f8                	mov    %edi,%eax
   11899:	66 89 85 6c ee ff ff 	mov    %ax,-0x1194(%rbp)
   118a0:	64 48 8b 04 25 28 00 	mov    %fs:0x28,%rax
   118a7:	00 00 
   118a9:	48 89 45 d8          	mov    %rax,-0x28(%rbp)
   118ad:	31 c0                	xor    %eax,%eax
   118af:	c6 85 80 ee ff ff ec 	movb   $0xec,-0x1180(%rbp)
   118b6:	48 8d 05 e7 07 01 00 	lea    0x107e7(%rip),%rax        # 220a4 <g_88>
   118bd:	48 89 85 10 ef ff ff 	mov    %rax,-0x10f0(%rbp)
   118c4:	c7 85 8c ee ff ff cd 	movl   $0x78cfa3cd,-0x1174(%rbp)
   118cb:	a3 cf 78 
   118ce:	48 c7 85 78 ef ff ff 	movq   $0x0,-0x1088(%rbp)
   118d5:	00 00 00 00 
   118d9:	48 c7 85 80 ef ff ff 	movq   $0x0,-0x1080(%rbp)
   118e0:	00 00 00 00 
   118e4:	48 8d 05 ad 0b 01 00 	lea    0x10bad(%rip),%rax        # 22498 <g_779>
   118eb:	48 89 85 88 ef ff ff 	mov    %rax,-0x1078(%rbp)
   118f2:	48 c7 85 90 ef ff ff 	movq   $0x0,-0x1070(%rbp)
   118f9:	00 00 00 00 
   118fd:	48 8d 05 c4 3b 01 00 	lea    0x13bc4(%rip),%rax        # 254c8 <g_1395+0x28>
   11904:	48 89 85 98 ef ff ff 	mov    %rax,-0x1068(%rbp)
   1190b:	48 8d 05 c2 0b 01 00 	lea    0x10bc2(%rip),%rax        # 224d4 <g_1287+0x4>
   11912:	48 89 85 a0 ef ff ff 	mov    %rax,-0x1060(%rbp)
   11919:	48 c7 85 a8 ef ff ff 	movq   $0x0,-0x1058(%rbp)
   11920:	00 00 00 00 
   11924:	48 8d 05 b1 0b 01 00 	lea    0x10bb1(%rip),%rax        # 224dc <g_1287+0xc>
   1192b:	48 89 85 b0 ef ff ff 	mov    %rax,-0x1050(%rbp)
   11932:	c7 85 a8 ee ff ff 00 	movl   $0x0,-0x1158(%rbp)
   11939:	00 00 00 
   1193c:	eb 1e                	jmp    1195c <func_25+0xe7>
   1193e:	8b 85 a8 ee ff ff    	mov    -0x1158(%rbp),%eax
   11944:	48 98                	cltq   
   11946:	48 8d 15 4d 07 01 00 	lea    0x1074d(%rip),%rdx        # 2209a <g_63+0x2>
   1194d:	48 89 94 c5 00 f3 ff 	mov    %rdx,-0xd00(%rbp,%rax,8)
   11954:	ff 
   11955:	83 85 a8 ee ff ff 01 	addl   $0x1,-0x1158(%rbp)
   1195c:	83 bd a8 ee ff ff 08 	cmpl   $0x8,-0x1158(%rbp)
   11963:	7e d9                	jle    1193e <func_25+0xc9>
   11965:	c7 85 a8 ee ff ff 00 	movl   $0x0,-0x1158(%rbp)
   1196c:	00 00 00 
   1196f:	eb 1a                	jmp    1198b <func_25+0x116>
   11971:	8b 85 a8 ee ff ff    	mov    -0x1158(%rbp),%eax
   11977:	48 98                	cltq   
   11979:	c7 84 85 60 f2 ff ff 	movl   $0xc46a0cc5,-0xda0(%rbp,%rax,4)
   11980:	c5 0c 6a c4 
   11984:	83 85 a8 ee ff ff 01 	addl   $0x1,-0x1158(%rbp)
   1198b:	83 bd a8 ee ff ff 09 	cmpl   $0x9,-0x1158(%rbp)
   11992:	7e dd                	jle    11971 <func_25+0xfc>
   11994:	66 c7 05 f5 06 01 00 	movw   $0x0,0x106f5(%rip)        # 22092 <g_52>
   1199b:	00 00 
   1199d:	e9 e0 2e 00 00       	jmpq   14882 <func_25+0x300d>
   119a2:	48 8d 05 ef 0a 01 00 	lea    0x10aef(%rip),%rax        # 22498 <g_779>
   119a9:	48 89 85 18 ef ff ff 	mov    %rax,-0x10e8(%rbp)
   119b0:	48 8d 85 18 ef ff ff 	lea    -0x10e8(%rbp),%rax
   119b7:	48 89 85 b8 ef ff ff 	mov    %rax,-0x1048(%rbp)
   119be:	c7 85 90 ee ff ff 0f 	movl   $0xbb7c9d0f,-0x1170(%rbp)
   119c5:	9d 7c bb 
   119c8:	48 8d 05 41 2d 01 00 	lea    0x12d41(%rip),%rax        # 24710 <g_310+0x3d0>
   119cf:	48 89 85 90 f2 ff ff 	mov    %rax,-0xd70(%rbp)
   119d6:	48 8d 05 33 2d 01 00 	lea    0x12d33(%rip),%rax        # 24710 <g_310+0x3d0>
   119dd:	48 89 85 98 f2 ff ff 	mov    %rax,-0xd68(%rbp)
   119e4:	48 8d 05 25 2d 01 00 	lea    0x12d25(%rip),%rax        # 24710 <g_310+0x3d0>
   119eb:	48 89 85 a0 f2 ff ff 	mov    %rax,-0xd60(%rbp)
   119f2:	48 8d 05 17 2d 01 00 	lea    0x12d17(%rip),%rax        # 24710 <g_310+0x3d0>
   119f9:	48 89 85 a8 f2 ff ff 	mov    %rax,-0xd58(%rbp)
   11a00:	48 8d 05 09 2d 01 00 	lea    0x12d09(%rip),%rax        # 24710 <g_310+0x3d0>
   11a07:	48 89 85 b0 f2 ff ff 	mov    %rax,-0xd50(%rbp)
   11a0e:	48 8d 05 fb 2c 01 00 	lea    0x12cfb(%rip),%rax        # 24710 <g_310+0x3d0>
   11a15:	48 89 85 b8 f2 ff ff 	mov    %rax,-0xd48(%rbp)
   11a1c:	c7 85 ac ee ff ff fb 	movl   $0xfffffffb,-0x1154(%rbp)
   11a23:	ff ff ff 
   11a26:	48 8d 05 db 30 01 00 	lea    0x130db(%rip),%rax        # 24b08 <g_714>
   11a2d:	48 89 85 20 ef ff ff 	mov    %rax,-0x10e0(%rbp)
   11a34:	c7 85 b0 ee ff ff 8c 	movl   $0x223ed48c,-0x1150(%rbp)
   11a3b:	d4 3e 22 
   11a3e:	66 c7 85 86 ee ff ff 	movw   $0xf709,-0x117a(%rbp)
   11a45:	09 f7 
   11a47:	48 8d 05 52 06 01 00 	lea    0x10652(%rip),%rax        # 220a0 <g_63+0x8>
   11a4e:	48 89 85 c0 ef ff ff 	mov    %rax,-0x1040(%rbp)
   11a55:	c7 85 e0 ee ff ff 09 	movl   $0x9,-0x1120(%rbp)
   11a5c:	00 00 00 
   11a5f:	c7 85 94 ee ff ff 5e 	movl   $0xe363cc5e,-0x116c(%rbp)
   11a66:	cc 63 e3 
   11a69:	c7 85 b4 ee ff ff 00 	movl   $0x0,-0x114c(%rbp)
   11a70:	00 00 00 
   11a73:	eb 1e                	jmp    11a93 <func_25+0x21e>
   11a75:	8b 85 b4 ee ff ff    	mov    -0x114c(%rbp),%eax
   11a7b:	48 98                	cltq   
   11a7d:	48 8d 95 20 ef ff ff 	lea    -0x10e0(%rbp),%rdx
   11a84:	48 89 94 c5 20 f2 ff 	mov    %rdx,-0xde0(%rbp,%rax,8)
   11a8b:	ff 
   11a8c:	83 85 b4 ee ff ff 01 	addl   $0x1,-0x114c(%rbp)
   11a93:	83 bd b4 ee ff ff 02 	cmpl   $0x2,-0x114c(%rbp)
   11a9a:	7e d9                	jle    11a75 <func_25+0x200>
   11a9c:	48 c7 05 e1 05 01 00 	movq   $0xffffffffffffffe3,0x105e1(%rip)        # 22088 <g_49>
   11aa3:	e3 ff ff ff 
   11aa7:	e9 97 2d 00 00       	jmpq   14843 <func_25+0x2fce>
   11aac:	48 c7 85 28 ef ff ff 	movq   $0x0,-0x10d8(%rbp)
   11ab3:	00 00 00 00 
   11ab7:	48 8d 05 02 30 01 00 	lea    0x13002(%rip),%rax        # 24ac0 <g_332>
   11abe:	48 89 85 30 ef ff ff 	mov    %rax,-0x10d0(%rbp)
   11ac5:	48 8d 05 cc 09 01 00 	lea    0x109cc(%rip),%rax        # 22498 <g_779>
   11acc:	48 89 85 c8 ef ff ff 	mov    %rax,-0x1038(%rbp)
   11ad3:	48 8d 05 6a 05 01 00 	lea    0x1056a(%rip),%rax        # 22044 <g_39>
   11ada:	48 89 85 38 ef ff ff 	mov    %rax,-0x10c8(%rbp)
   11ae1:	48 8d 05 b2 05 01 00 	lea    0x105b2(%rip),%rax        # 2209a <g_63+0x2>
   11ae8:	48 89 85 40 ef ff ff 	mov    %rax,-0x10c0(%rbp)
   11aef:	c7 85 e4 ee ff ff be 	movl   $0x8a9417be,-0x111c(%rbp)
   11af6:	17 94 8a 
   11af9:	c7 85 98 ee ff ff 3c 	movl   $0x1af13a3c,-0x1168(%rbp)
   11b00:	3a f1 1a 
   11b03:	48 c7 85 48 ef ff ff 	movq   $0x0,-0x10b8(%rbp)
   11b0a:	00 00 00 00 
   11b0e:	48 8d 85 48 ef ff ff 	lea    -0x10b8(%rbp),%rax
   11b15:	48 89 85 d0 ef ff ff 	mov    %rax,-0x1030(%rbp)
   11b1c:	48 8d 05 e5 2f 01 00 	lea    0x12fe5(%rip),%rax        # 24b08 <g_714>
   11b23:	48 89 85 d8 ef ff ff 	mov    %rax,-0x1028(%rbp)
   11b2a:	c7 85 b8 ee ff ff ff 	movl   $0xa631c8ff,-0x1148(%rbp)
   11b31:	c8 31 a6 
   11b34:	c7 85 e8 ee ff ff f9 	movl   $0x6729f9,-0x1118(%rbp)
   11b3b:	29 67 00 
   11b3e:	c7 85 a0 f3 ff ff 37 	movl   $0x56bc9537,-0xc60(%rbp)
   11b45:	95 bc 56 
   11b48:	c7 85 a4 f3 ff ff ff 	movl   $0xffffffff,-0xc5c(%rbp)
   11b4f:	ff ff ff 
   11b52:	c7 85 a8 f3 ff ff 37 	movl   $0x56bc9537,-0xc58(%rbp)
   11b59:	95 bc 56 
   11b5c:	c7 85 ac f3 ff ff ff 	movl   $0xffffffff,-0xc54(%rbp)
   11b63:	ff ff ff 
   11b66:	c7 85 b0 f3 ff ff 37 	movl   $0x56bc9537,-0xc50(%rbp)
   11b6d:	95 bc 56 
   11b70:	c7 85 b4 f3 ff ff ff 	movl   $0xffffffff,-0xc4c(%rbp)
   11b77:	ff ff ff 
   11b7a:	c7 85 b8 f3 ff ff 37 	movl   $0x56bc9537,-0xc48(%rbp)
   11b81:	95 bc 56 
   11b84:	c7 85 bc f3 ff ff ff 	movl   $0xffffffff,-0xc44(%rbp)
   11b8b:	ff ff ff 
   11b8e:	c7 85 c0 f3 ff ff 37 	movl   $0x56bc9537,-0xc40(%rbp)
   11b95:	95 bc 56 
   11b98:	c7 85 c4 f3 ff ff ff 	movl   $0xffffffff,-0xc3c(%rbp)
   11b9f:	ff ff ff 
   11ba2:	c7 85 c8 f3 ff ff 37 	movl   $0x56bc9537,-0xc38(%rbp)
   11ba9:	95 bc 56 
   11bac:	c7 85 cc f3 ff ff ff 	movl   $0xffffffff,-0xc34(%rbp)
   11bb3:	ff ff ff 
   11bb6:	c7 85 d0 f3 ff ff 37 	movl   $0x56bc9537,-0xc30(%rbp)
   11bbd:	95 bc 56 
   11bc0:	c7 85 d4 f3 ff ff ff 	movl   $0xffffffff,-0xc2c(%rbp)
   11bc7:	ff ff ff 
   11bca:	c7 85 d8 f3 ff ff 37 	movl   $0x56bc9537,-0xc28(%rbp)
   11bd1:	95 bc 56 
   11bd4:	c7 85 dc f3 ff ff ff 	movl   $0xffffffff,-0xc24(%rbp)
   11bdb:	ff ff ff 
   11bde:	c7 85 e0 f3 ff ff 37 	movl   $0x56bc9537,-0xc20(%rbp)
   11be5:	95 bc 56 
   11be8:	c7 85 e4 f3 ff ff ff 	movl   $0xffffffff,-0xc1c(%rbp)
   11bef:	ff ff ff 
   11bf2:	c7 85 e8 f3 ff ff 37 	movl   $0x56bc9537,-0xc18(%rbp)
   11bf9:	95 bc 56 
   11bfc:	c7 85 ec f3 ff ff ff 	movl   $0xffffffff,-0xc14(%rbp)
   11c03:	ff ff ff 
   11c06:	c7 85 f0 f3 ff ff 37 	movl   $0x56bc9537,-0xc10(%rbp)
   11c0d:	95 bc 56 
   11c10:	c7 85 f4 f3 ff ff ff 	movl   $0xffffffff,-0xc0c(%rbp)
   11c17:	ff ff ff 
   11c1a:	c7 85 f8 f3 ff ff 37 	movl   $0x56bc9537,-0xc08(%rbp)
   11c21:	95 bc 56 
   11c24:	c7 85 fc f3 ff ff ff 	movl   $0xffffffff,-0xc04(%rbp)
   11c2b:	ff ff ff 
   11c2e:	48 b8 ea 2b 5f 98 63 	movabs $0x5a817f63985f2bea,%rax
   11c35:	7f 81 5a 
   11c38:	48 89 85 50 ef ff ff 	mov    %rax,-0x10b0(%rbp)
   11c3f:	c7 85 bc ee ff ff 00 	movl   $0x0,-0x1144(%rbp)
   11c46:	00 00 00 
   11c49:	eb 1a                	jmp    11c65 <func_25+0x3f0>
   11c4b:	8b 85 bc ee ff ff    	mov    -0x1144(%rbp),%eax
   11c51:	48 98                	cltq   
   11c53:	c7 84 85 10 f2 ff ff 	movl   $0xf43a2404,-0xdf0(%rbp,%rax,4)
   11c5a:	04 24 3a f4 
   11c5e:	83 85 bc ee ff ff 01 	addl   $0x1,-0x1144(%rbp)
   11c65:	83 bd bc ee ff ff 03 	cmpl   $0x3,-0x1144(%rbp)
   11c6c:	7e dd                	jle    11c4b <func_25+0x3d6>
   11c6e:	c7 85 bc ee ff ff 00 	movl   $0x0,-0x1144(%rbp)
   11c75:	00 00 00 
   11c78:	eb 1a                	jmp    11c94 <func_25+0x41f>
   11c7a:	8b 85 bc ee ff ff    	mov    -0x1144(%rbp),%eax
   11c80:	48 98                	cltq   
   11c82:	c7 84 85 08 f2 ff ff 	movl   $0xffffffff,-0xdf8(%rbp,%rax,4)
   11c89:	ff ff ff ff 
   11c8d:	83 85 bc ee ff ff 01 	addl   $0x1,-0x1144(%rbp)
   11c94:	83 bd bc ee ff ff 01 	cmpl   $0x1,-0x1144(%rbp)
   11c9b:	7e dd                	jle    11c7a <func_25+0x405>
   11c9d:	c7 85 bc ee ff ff 00 	movl   $0x0,-0x1144(%rbp)
   11ca4:	00 00 00 
   11ca7:	eb 22                	jmp    11ccb <func_25+0x456>
   11ca9:	8b 85 bc ee ff ff    	mov    -0x1144(%rbp),%eax
   11caf:	48 98                	cltq   
   11cb1:	48 8d 95 08 f2 ff ff 	lea    -0xdf8(%rbp),%rdx
   11cb8:	48 83 c2 04          	add    $0x4,%rdx
   11cbc:	48 89 94 c5 50 f3 ff 	mov    %rdx,-0xcb0(%rbp,%rax,8)
   11cc3:	ff 
   11cc4:	83 85 bc ee ff ff 01 	addl   $0x1,-0x1144(%rbp)
   11ccb:	83 bd bc ee ff ff 08 	cmpl   $0x8,-0x1144(%rbp)
   11cd2:	7e d5                	jle    11ca9 <func_25+0x434>
   11cd4:	0f bf 9d 6c ee ff ff 	movswl -0x1194(%rbp),%ebx
   11cdb:	4c 0f bf a5 6c ee ff 	movswq -0x1194(%rbp),%r12
   11ce2:	ff 
   11ce3:	0f b6 05 b0 03 01 00 	movzbl 0x103b0(%rip),%eax        # 2209a <g_63+0x2>
   11cea:	89 c7                	mov    %eax,%edi
   11cec:	e8 86 37 00 00       	callq  15477 <func_61>
   11cf1:	41 89 c5             	mov    %eax,%r13d
   11cf4:	48 8b 05 cd 2d 01 00 	mov    0x12dcd(%rip),%rax        # 24ac8 <g_411>
   11cfb:	0f b7 00             	movzwl (%rax),%eax
   11cfe:	66 85 c0             	test   %ax,%ax
   11d01:	75 2c                	jne    11d2f <func_25+0x4ba>
   11d03:	48 8b 05 d6 2e 01 00 	mov    0x12ed6(%rip),%rax        # 24be0 <g_1081+0x20>
   11d0a:	48 85 c0             	test   %rax,%rax
   11d0d:	0f 95 c0             	setne  %al
   11d10:	0f b6 c0             	movzbl %al,%eax
   11d13:	be 05 00 00 00       	mov    $0x5,%esi
   11d18:	89 c7                	mov    %eax,%edi
   11d1a:	e8 4d 76 ff ff       	callq  936c <safe_rshift_func_int8_t_s_u>
   11d1f:	48 8b 05 d2 2d 01 00 	mov    0x12dd2(%rip),%rax        # 24af8 <g_654>
   11d26:	48 39 85 b8 ef ff ff 	cmp    %rax,-0x1048(%rbp)
   11d2d:	74 07                	je     11d36 <func_25+0x4c1>
   11d2f:	b8 01 00 00 00       	mov    $0x1,%eax
   11d34:	eb 05                	jmp    11d3b <func_25+0x4c6>
   11d36:	b8 00 00 00 00       	mov    $0x0,%eax
   11d3b:	0f be d0             	movsbl %al,%edx
   11d3e:	48 8b 85 28 ef ff ff 	mov    -0x10d8(%rbp),%rax
   11d45:	0f be c0             	movsbl %al,%eax
   11d48:	89 d6                	mov    %edx,%esi
   11d4a:	89 c7                	mov    %eax,%edi
   11d4c:	e8 e0 74 ff ff       	callq  9231 <safe_mod_func_int8_t_s_s>
   11d51:	48 0f be d0          	movsbq %al,%rdx
   11d55:	48 8b 85 28 ef ff ff 	mov    -0x10d8(%rbp),%rax
   11d5c:	48 39 c2             	cmp    %rax,%rdx
   11d5f:	0f 9f c0             	setg   %al
   11d62:	0f b6 d0             	movzbl %al,%edx
   11d65:	48 8b 85 28 ef ff ff 	mov    -0x10d8(%rbp),%rax
   11d6c:	48 09 c2             	or     %rax,%rdx
   11d6f:	48 8b 85 28 ef ff ff 	mov    -0x10d8(%rbp),%rax
   11d76:	48 39 c2             	cmp    %rax,%rdx
   11d79:	0f 95 c0             	setne  %al
   11d7c:	0f b6 d0             	movzbl %al,%edx
   11d7f:	0f b7 85 6c ee ff ff 	movzwl -0x1194(%rbp),%eax
   11d86:	0f b6 c0             	movzbl %al,%eax
   11d89:	89 d6                	mov    %edx,%esi
   11d8b:	89 c7                	mov    %eax,%edi
   11d8d:	e8 e6 7d ff ff       	callq  9b78 <safe_sub_func_uint8_t_u_u>
   11d92:	0f b6 d0             	movzbl %al,%edx
   11d95:	48 8b 05 2c 2d 01 00 	mov    0x12d2c(%rip),%rax        # 24ac8 <g_411>
   11d9c:	0f b7 00             	movzwl (%rax),%eax
   11d9f:	98                   	cwtl   
   11da0:	39 c2                	cmp    %eax,%edx
   11da2:	0f 9d c0             	setge  %al
   11da5:	44 21 e8             	and    %r13d,%eax
   11da8:	88 85 80 ee ff ff    	mov    %al,-0x1180(%rbp)
   11dae:	4c 89 e6             	mov    %r12,%rsi
   11db1:	bf 00 00 00 00       	mov    $0x0,%edi
   11db6:	e8 90 82 ff ff       	callq  a04b <safe_sub_func_uint64_t_u_u>
   11dbb:	48 3d 93 39 7b 5c    	cmp    $0x5c7b3993,%rax
   11dc1:	0f 97 c0             	seta   %al
   11dc4:	0f b6 c0             	movzbl %al,%eax
   11dc7:	89 de                	mov    %ebx,%esi
   11dc9:	89 c7                	mov    %eax,%edi
   11dcb:	e8 00 81 ff ff       	callq  9ed0 <safe_sub_func_uint32_t_u_u>
   11dd0:	85 c0                	test   %eax,%eax
   11dd2:	0f 84 01 14 00 00    	je     131d9 <func_25+0x1964>
   11dd8:	48 8d 05 bb 02 01 00 	lea    0x102bb(%rip),%rax        # 2209a <g_63+0x2>
   11ddf:	48 89 85 60 ef ff ff 	mov    %rax,-0x10a0(%rbp)
   11de6:	48 8d 85 60 ef ff ff 	lea    -0x10a0(%rbp),%rax
   11ded:	48 89 85 68 ef ff ff 	mov    %rax,-0x1098(%rbp)
   11df4:	48 8d 85 68 ef ff ff 	lea    -0x1098(%rbp),%rax
   11dfb:	48 89 85 38 f0 ff ff 	mov    %rax,-0xfc8(%rbp)
   11e02:	48 8d 05 7f 06 01 00 	lea    0x1067f(%rip),%rax        # 22488 <g_615>
   11e09:	48 89 85 40 f0 ff ff 	mov    %rax,-0xfc0(%rbp)
   11e10:	c6 85 82 ee ff ff 50 	movb   $0x50,-0x117e(%rbp)
   11e17:	c7 85 a4 ee ff ff 3d 	movl   $0x6f41de3d,-0x115c(%rbp)
   11e1e:	de 41 6f 
   11e21:	48 8d 05 98 2c 01 00 	lea    0x12c98(%rip),%rax        # 24ac0 <g_332>
   11e28:	48 89 85 48 f0 ff ff 	mov    %rax,-0xfb8(%rbp)
   11e2f:	48 8d 05 0a 02 01 00 	lea    0x1020a(%rip),%rax        # 22040 <g_2+0x10>
   11e36:	48 89 85 90 f5 ff ff 	mov    %rax,-0xa70(%rbp)
   11e3d:	48 8d 05 00 02 01 00 	lea    0x10200(%rip),%rax        # 22044 <g_39>
   11e44:	48 89 85 98 f5 ff ff 	mov    %rax,-0xa68(%rbp)
   11e4b:	48 8d 85 98 ee ff ff 	lea    -0x1168(%rbp),%rax
   11e52:	48 89 85 a0 f5 ff ff 	mov    %rax,-0xa60(%rbp)
   11e59:	48 8d 05 e4 01 01 00 	lea    0x101e4(%rip),%rax        # 22044 <g_39>
   11e60:	48 89 85 a8 f5 ff ff 	mov    %rax,-0xa58(%rbp)
   11e67:	48 8d 05 d2 01 01 00 	lea    0x101d2(%rip),%rax        # 22040 <g_2+0x10>
   11e6e:	48 89 85 b0 f5 ff ff 	mov    %rax,-0xa50(%rbp)
   11e75:	48 8d 05 c4 01 01 00 	lea    0x101c4(%rip),%rax        # 22040 <g_2+0x10>
   11e7c:	48 89 85 b8 f5 ff ff 	mov    %rax,-0xa48(%rbp)
   11e83:	48 8d 05 ba 01 01 00 	lea    0x101ba(%rip),%rax        # 22044 <g_39>
   11e8a:	48 89 85 c0 f5 ff ff 	mov    %rax,-0xa40(%rbp)
   11e91:	48 8d 85 98 ee ff ff 	lea    -0x1168(%rbp),%rax
   11e98:	48 89 85 c8 f5 ff ff 	mov    %rax,-0xa38(%rbp)
   11e9f:	48 8d 05 9e 01 01 00 	lea    0x1019e(%rip),%rax        # 22044 <g_39>
   11ea6:	48 89 85 d0 f5 ff ff 	mov    %rax,-0xa30(%rbp)
   11ead:	48 8d 05 8c 01 01 00 	lea    0x1018c(%rip),%rax        # 22040 <g_2+0x10>
   11eb4:	48 89 85 d8 f5 ff ff 	mov    %rax,-0xa28(%rbp)
   11ebb:	48 8d 85 30 ef ff ff 	lea    -0x10d0(%rbp),%rax
   11ec2:	48 89 85 50 f0 ff ff 	mov    %rax,-0xfb0(%rbp)
   11ec9:	48 8b 95 68 ef ff ff 	mov    -0x1098(%rbp),%rdx
   11ed0:	48 8b 85 38 f0 ff ff 	mov    -0xfc8(%rbp),%rax
   11ed7:	48 89 10             	mov    %rdx,(%rax)
   11eda:	48 8b 85 08 f3 ff ff 	mov    -0xcf8(%rbp),%rax
   11ee1:	48 39 85 c8 ef ff ff 	cmp    %rax,-0x1038(%rbp)
   11ee8:	0f 95 c0             	setne  %al
   11eeb:	0f b6 d0             	movzbl %al,%edx
   11eee:	0f bf 85 6c ee ff ff 	movswl -0x1194(%rbp),%eax
   11ef5:	31 c2                	xor    %eax,%edx
   11ef7:	48 8b 85 28 ef ff ff 	mov    -0x10d8(%rbp),%rax
   11efe:	89 d3                	mov    %edx,%ebx
   11f00:	21 c3                	and    %eax,%ebx
   11f02:	8b 05 3c 01 01 00    	mov    0x1013c(%rip),%eax        # 22044 <g_39>
   11f08:	89 c2                	mov    %eax,%edx
   11f0a:	48 8b 85 40 f0 ff ff 	mov    -0xfc0(%rbp),%rax
   11f11:	66 89 10             	mov    %dx,(%rax)
   11f14:	48 8b 85 40 f0 ff ff 	mov    -0xfc0(%rbp),%rax
   11f1b:	0f b7 00             	movzwl (%rax),%eax
   11f1e:	0f b7 d0             	movzwl %ax,%edx
   11f21:	48 8b 85 28 ef ff ff 	mov    -0x10d8(%rbp),%rax
   11f28:	48 85 c0             	test   %rax,%rax
   11f2b:	74 16                	je     11f43 <func_25+0x6ce>
   11f2d:	48 8b 05 94 2b 01 00 	mov    0x12b94(%rip),%rax        # 24ac8 <g_411>
   11f34:	0f b7 00             	movzwl (%rax),%eax
   11f37:	66 85 c0             	test   %ax,%ax
   11f3a:	74 07                	je     11f43 <func_25+0x6ce>
   11f3c:	b8 01 00 00 00       	mov    $0x1,%eax
   11f41:	eb 05                	jmp    11f48 <func_25+0x6d3>
   11f43:	b8 00 00 00 00       	mov    $0x0,%eax
   11f48:	0f b7 c0             	movzwl %ax,%eax
   11f4b:	89 d6                	mov    %edx,%esi
   11f4d:	89 c7                	mov    %eax,%edi
   11f4f:	e8 cb 7d ff ff       	callq  9d1f <safe_sub_func_uint16_t_u_u>
   11f54:	0f b6 85 82 ee ff ff 	movzbl -0x117e(%rbp),%eax
   11f5b:	89 de                	mov    %ebx,%esi
   11f5d:	89 c7                	mov    %eax,%edi
   11f5f:	e8 2e 75 ff ff       	callq  9492 <safe_lshift_func_int16_t_s_s>
   11f64:	48 0f bf 95 6c ee ff 	movswq -0x1194(%rbp),%rdx
   11f6b:	ff 
   11f6c:	48 8b 85 28 ef ff ff 	mov    -0x10d8(%rbp),%rax
   11f73:	48 39 c2             	cmp    %rax,%rdx
   11f76:	0f 8d 34 06 00 00    	jge    125b0 <func_25+0xd3b>
   11f7c:	c6 85 83 ee ff ff 00 	movb   $0x0,-0x117d(%rbp)
   11f83:	48 c7 85 70 ef ff ff 	movq   $0x0,-0x1090(%rbp)
   11f8a:	00 00 00 00 
   11f8e:	48 8d 85 70 ef ff ff 	lea    -0x1090(%rbp),%rax
   11f95:	48 89 85 b0 f0 ff ff 	mov    %rax,-0xf50(%rbp)
   11f9c:	48 8d 85 90 ee ff ff 	lea    -0x1170(%rbp),%rax
   11fa3:	48 89 85 b8 f0 ff ff 	mov    %rax,-0xf48(%rbp)
   11faa:	c7 85 50 f8 ff ff 83 	movl   $0x54564c83,-0x7b0(%rbp)
   11fb1:	4c 56 54 
   11fb4:	c7 85 54 f8 ff ff 24 	movl   $0xb620a524,-0x7ac(%rbp)
   11fbb:	a5 20 b6 
   11fbe:	c7 85 58 f8 ff ff 07 	movl   $0xa91c5607,-0x7a8(%rbp)
   11fc5:	56 1c a9 
   11fc8:	c7 85 5c f8 ff ff 24 	movl   $0xb620a524,-0x7a4(%rbp)
   11fcf:	a5 20 b6 
   11fd2:	c7 85 60 f8 ff ff 83 	movl   $0x54564c83,-0x7a0(%rbp)
   11fd9:	4c 56 54 
   11fdc:	c7 85 64 f8 ff ff fb 	movl   $0xfffffffb,-0x79c(%rbp)
   11fe3:	ff ff ff 
   11fe6:	c7 85 68 f8 ff ff fb 	movl   $0xfffffffb,-0x798(%rbp)
   11fed:	ff ff ff 
   11ff0:	c7 85 6c f8 ff ff 83 	movl   $0x54564c83,-0x794(%rbp)
   11ff7:	4c 56 54 
   11ffa:	c7 85 70 f8 ff ff 24 	movl   $0xb620a524,-0x790(%rbp)
   12001:	a5 20 b6 
   12004:	c7 85 74 f8 ff ff 07 	movl   $0xa91c5607,-0x78c(%rbp)
   1200b:	56 1c a9 
   1200e:	c7 85 78 f8 ff ff fe 	movl   $0xfffffffe,-0x788(%rbp)
   12015:	ff ff ff 
   12018:	c7 85 7c f8 ff ff fe 	movl   $0xfffffffe,-0x784(%rbp)
   1201f:	ff ff ff 
   12022:	c7 85 80 f8 ff ff 07 	movl   $0xa91c5607,-0x780(%rbp)
   12029:	56 1c a9 
   1202c:	c7 85 84 f8 ff ff 83 	movl   $0x54564c83,-0x77c(%rbp)
   12033:	4c 56 54 
   12036:	c7 85 88 f8 ff ff f9 	movl   $0xfffffff9,-0x778(%rbp)
   1203d:	ff ff ff 
   12040:	c7 85 8c f8 ff ff 83 	movl   $0x54564c83,-0x774(%rbp)
   12047:	4c 56 54 
   1204a:	c7 85 90 f8 ff ff 07 	movl   $0xa91c5607,-0x770(%rbp)
   12051:	56 1c a9 
   12054:	c7 85 94 f8 ff ff fe 	movl   $0xfffffffe,-0x76c(%rbp)
   1205b:	ff ff ff 
   1205e:	c7 85 98 f8 ff ff fe 	movl   $0xfffffffe,-0x768(%rbp)
   12065:	ff ff ff 
   12068:	c7 85 9c f8 ff ff 07 	movl   $0xa91c5607,-0x764(%rbp)
   1206f:	56 1c a9 
   12072:	c7 85 a0 f8 ff ff 24 	movl   $0xb620a524,-0x760(%rbp)
   12079:	a5 20 b6 
   1207c:	c7 85 a4 f8 ff ff 83 	movl   $0x54564c83,-0x75c(%rbp)
   12083:	4c 56 54 
   12086:	c7 85 a8 f8 ff ff fb 	movl   $0xfffffffb,-0x758(%rbp)
   1208d:	ff ff ff 
   12090:	c7 85 ac f8 ff ff fb 	movl   $0xfffffffb,-0x754(%rbp)
   12097:	ff ff ff 
   1209a:	c7 85 b0 f8 ff ff 83 	movl   $0x54564c83,-0x750(%rbp)
   120a1:	4c 56 54 
   120a4:	c7 85 b4 f8 ff ff 24 	movl   $0xb620a524,-0x74c(%rbp)
   120ab:	a5 20 b6 
   120ae:	c7 85 b8 f8 ff ff 07 	movl   $0xa91c5607,-0x748(%rbp)
   120b5:	56 1c a9 
   120b8:	c7 85 bc f8 ff ff 24 	movl   $0xb620a524,-0x744(%rbp)
   120bf:	a5 20 b6 
   120c2:	c7 85 c0 f8 ff ff 83 	movl   $0x54564c83,-0x740(%rbp)
   120c9:	4c 56 54 
   120cc:	c7 85 c4 f8 ff ff fb 	movl   $0xfffffffb,-0x73c(%rbp)
   120d3:	ff ff ff 
   120d6:	c7 85 c8 f8 ff ff 01 	movl   $0x1,-0x738(%rbp)
   120dd:	00 00 00 
   120e0:	c7 85 cc f8 ff ff fe 	movl   $0xfffffffe,-0x734(%rbp)
   120e7:	ff ff ff 
   120ea:	c7 85 d0 f8 ff ff 01 	movl   $0x1,-0x730(%rbp)
   120f1:	00 00 00 
   120f4:	c7 85 d4 f8 ff ff fb 	movl   $0xfffffffb,-0x72c(%rbp)
   120fb:	ff ff ff 
   120fe:	c7 85 d8 f8 ff ff 07 	movl   $0xa91c5607,-0x728(%rbp)
   12105:	56 1c a9 
   12108:	c7 85 dc f8 ff ff 07 	movl   $0xa91c5607,-0x724(%rbp)
   1210f:	56 1c a9 
   12112:	c7 85 e0 f8 ff ff fb 	movl   $0xfffffffb,-0x720(%rbp)
   12119:	ff ff ff 
   1211c:	c7 85 e4 f8 ff ff 01 	movl   $0x1,-0x71c(%rbp)
   12123:	00 00 00 
   12126:	c7 85 e8 f8 ff ff fe 	movl   $0xfffffffe,-0x718(%rbp)
   1212d:	ff ff ff 
   12130:	c7 85 ec f8 ff ff 01 	movl   $0x1,-0x714(%rbp)
   12137:	00 00 00 
   1213a:	48 8d 85 10 ef ff ff 	lea    -0x10f0(%rbp),%rax
   12141:	48 89 85 c0 f0 ff ff 	mov    %rax,-0xf40(%rbp)
   12148:	be 01 00 00 00       	mov    $0x1,%esi
   1214d:	bf 45 00 00 00       	mov    $0x45,%edi
   12152:	e8 84 7a ff ff       	callq  9bdb <safe_div_func_uint8_t_u_u>
   12157:	84 c0                	test   %al,%al
   12159:	0f 85 56 01 00 00    	jne    122b5 <func_25+0xa40>
   1215f:	48 8b 05 62 29 01 00 	mov    0x12962(%rip),%rax        # 24ac8 <g_411>
   12166:	0f b7 00             	movzwl (%rax),%eax
   12169:	0f bf d8             	movswl %ax,%ebx
   1216c:	44 0f be a5 80 ee ff 	movsbl -0x1180(%rbp),%r12d
   12173:	ff 
   12174:	8b 85 90 ee ff ff    	mov    -0x1170(%rbp),%eax
   1217a:	85 c0                	test   %eax,%eax
   1217c:	74 69                	je     121e7 <func_25+0x972>
   1217e:	80 bd 83 ee ff ff 00 	cmpb   $0x0,-0x117d(%rbp)
   12185:	74 41                	je     121c8 <func_25+0x953>
   12187:	48 8b 95 70 ef ff ff 	mov    -0x1090(%rbp),%rdx
   1218e:	48 8b 85 b0 f0 ff ff 	mov    -0xf50(%rbp),%rax
   12195:	48 89 10             	mov    %rdx,(%rax)
   12198:	8b 85 90 ee ff ff    	mov    -0x1170(%rbp),%eax
   1219e:	0f be c0             	movsbl %al,%eax
   121a1:	be f7 ff ff ff       	mov    $0xfffffff7,%esi
   121a6:	89 c7                	mov    %eax,%edi
   121a8:	e8 45 70 ff ff       	callq  91f2 <safe_sub_func_int8_t_s_s>
   121ad:	48 0f bf 95 6c ee ff 	movswq -0x1194(%rbp),%rdx
   121b4:	ff 
   121b5:	48 8b 05 34 ff 00 00 	mov    0xff34(%rip),%rax        # 220f0 <g_247>
   121bc:	48 39 c2             	cmp    %rax,%rdx
   121bf:	74 07                	je     121c8 <func_25+0x953>
   121c1:	b8 01 00 00 00       	mov    $0x1,%eax
   121c6:	eb 05                	jmp    121cd <func_25+0x958>
   121c8:	b8 00 00 00 00       	mov    $0x0,%eax
   121cd:	f7 d0                	not    %eax
   121cf:	89 c2                	mov    %eax,%edx
   121d1:	48 8b 05 f0 28 01 00 	mov    0x128f0(%rip),%rax        # 24ac8 <g_411>
   121d8:	0f b7 00             	movzwl (%rax),%eax
   121db:	98                   	cwtl   
   121dc:	39 c2                	cmp    %eax,%edx
   121de:	74 07                	je     121e7 <func_25+0x972>
   121e0:	ba 01 00 00 00       	mov    $0x1,%edx
   121e5:	eb 05                	jmp    121ec <func_25+0x977>
   121e7:	ba 00 00 00 00       	mov    $0x0,%edx
   121ec:	0f bf 85 6c ee ff ff 	movswl -0x1194(%rbp),%eax
   121f3:	39 c2                	cmp    %eax,%edx
   121f5:	7d 11                	jge    12208 <func_25+0x993>
   121f7:	8b 85 90 ee ff ff    	mov    -0x1170(%rbp),%eax
   121fd:	85 c0                	test   %eax,%eax
   121ff:	74 07                	je     12208 <func_25+0x993>
   12201:	b9 01 00 00 00       	mov    $0x1,%ecx
   12206:	eb 05                	jmp    1220d <func_25+0x998>
   12208:	b9 00 00 00 00       	mov    $0x0,%ecx
   1220d:	48 8b 85 18 ef ff ff 	mov    -0x10e8(%rbp),%rax
   12214:	0f b6 00             	movzbl (%rax),%eax
   12217:	89 c2                	mov    %eax,%edx
   12219:	89 c8                	mov    %ecx,%eax
   1221b:	21 c2                	and    %eax,%edx
   1221d:	48 8b 85 18 ef ff ff 	mov    -0x10e8(%rbp),%rax
   12224:	88 10                	mov    %dl,(%rax)
   12226:	0f b6 10             	movzbl (%rax),%edx
   12229:	48 8b 05 c0 28 01 00 	mov    0x128c0(%rip),%rax        # 24af0 <g_655>
   12230:	0f b6 00             	movzbl (%rax),%eax
   12233:	38 c2                	cmp    %al,%dl
   12235:	0f 95 c0             	setne  %al
   12238:	0f b6 c0             	movzbl %al,%eax
   1223b:	44 89 e6             	mov    %r12d,%esi
   1223e:	89 c7                	mov    %eax,%edi
   12240:	e8 1e 73 ff ff       	callq  9563 <safe_rshift_func_int16_t_s_u>
   12245:	66 85 c0             	test   %ax,%ax
   12248:	75 10                	jne    1225a <func_25+0x9e5>
   1224a:	48 8b 05 bf 20 01 00 	mov    0x120bf(%rip),%rax        # 24310 <g_197>
   12251:	48 8b 00             	mov    (%rax),%rax
   12254:	0f b7 00             	movzwl (%rax),%eax
   12257:	66 85 c0             	test   %ax,%ax
   1225a:	0f b7 85 6c ee ff ff 	movzwl -0x1194(%rbp),%eax
   12261:	66 c1 e8 0f          	shr    $0xf,%ax
   12265:	0f b6 c0             	movzbl %al,%eax
   12268:	be 03 3b 00 00       	mov    $0x3b03,%esi
   1226d:	89 c7                	mov    %eax,%edi
   1226f:	e8 8b 7a ff ff       	callq  9cff <safe_add_func_uint16_t_u_u>
   12274:	0f b7 d0             	movzwl %ax,%edx
   12277:	0f bf 85 6c ee ff ff 	movswl -0x1194(%rbp),%eax
   1227e:	39 c2                	cmp    %eax,%edx
   12280:	0f 9d c0             	setge  %al
   12283:	0f b6 d0             	movzbl %al,%edx
   12286:	48 8b 85 b8 f0 ff ff 	mov    -0xf48(%rbp),%rax
   1228d:	89 10                	mov    %edx,(%rax)
   1228f:	48 8b 85 b8 f0 ff ff 	mov    -0xf48(%rbp),%rax
   12296:	8b 00                	mov    (%rax),%eax
   12298:	89 c7                	mov    %eax,%edi
   1229a:	e8 f7 72 ff ff       	callq  9596 <safe_unary_minus_func_int32_t_s>
   1229f:	c1 e8 1f             	shr    $0x1f,%eax
   122a2:	0f b6 c0             	movzbl %al,%eax
   122a5:	89 de                	mov    %ebx,%esi
   122a7:	89 c7                	mov    %eax,%edi
   122a9:	e8 10 7b ff ff       	callq  9dbe <safe_lshift_func_uint16_t_u_s>
   122ae:	ba 00 00 00 00       	mov    $0x0,%edx
   122b3:	eb 05                	jmp    122ba <func_25+0xa45>
   122b5:	ba 01 00 00 00       	mov    $0x1,%edx
   122ba:	48 8b 05 cf 28 01 00 	mov    0x128cf(%rip),%rax        # 24b90 <g_972>
   122c1:	48 8b 00             	mov    (%rax),%rax
   122c4:	48 8b 00             	mov    (%rax),%rax
   122c7:	48 63 d2             	movslq %edx,%rdx
   122ca:	48 89 10             	mov    %rdx,(%rax)
   122cd:	48 8b 00             	mov    (%rax),%rax
   122d0:	48 c7 c6 ff ff ff ff 	mov    $0xffffffffffffffff,%rsi
   122d7:	48 89 c7             	mov    %rax,%rdi
   122da:	e8 d5 76 ff ff       	callq  99b4 <safe_mod_func_int64_t_s_s>
   122df:	0f b7 d0             	movzwl %ax,%edx
   122e2:	0f b7 85 6c ee ff ff 	movzwl -0x1194(%rbp),%eax
   122e9:	0f b7 c0             	movzwl %ax,%eax
   122ec:	89 d6                	mov    %edx,%esi
   122ee:	89 c7                	mov    %eax,%edi
   122f0:	e8 67 7a ff ff       	callq  9d5c <safe_mod_func_uint16_t_u_u>
   122f5:	0f b7 c0             	movzwl %ax,%eax
   122f8:	48 be b3 fa 6d c6 57 	movabs $0x41062057c66dfab3,%rsi
   122ff:	20 06 41 
   12302:	48 89 c7             	mov    %rax,%rdi
   12305:	e8 76 7d ff ff       	callq  a080 <safe_mod_func_uint64_t_u_u>
   1230a:	48 89 c2             	mov    %rax,%rdx
   1230d:	48 8b 05 cc 29 01 00 	mov    0x129cc(%rip),%rax        # 24ce0 <g_1125>
   12314:	89 10                	mov    %edx,(%rax)
   12316:	48 8b 85 b8 f0 ff ff 	mov    -0xf48(%rbp),%rax
   1231d:	8b 10                	mov    (%rax),%edx
   1231f:	48 8b 05 d2 27 01 00 	mov    0x127d2(%rip),%rax        # 24af8 <g_654>
   12326:	48 8b 00             	mov    (%rax),%rax
   12329:	88 10                	mov    %dl,(%rax)
   1232b:	0f b6 00             	movzbl (%rax),%eax
   1232e:	84 c0                	test   %al,%al
   12330:	0f 84 09 01 00 00    	je     1243f <func_25+0xbca>
   12336:	66 83 bd 6c ee ff ff 	cmpw   $0x0,-0x1194(%rbp)
   1233d:	00 
   1233e:	0f 88 9f 00 00 00    	js     123e3 <func_25+0xb6e>
   12344:	c7 85 90 ee ff ff 07 	movl   $0x7,-0x1170(%rbp)
   1234b:	00 00 00 
   1234e:	8b 85 90 ee ff ff    	mov    -0x1170(%rbp),%eax
   12354:	48 63 c8             	movslq %eax,%rcx
   12357:	48 8b 85 98 f2 ff ff 	mov    -0xd68(%rbp),%rax
   1235e:	48 85 c0             	test   %rax,%rax
   12361:	0f 95 c2             	setne  %dl
   12364:	80 bd 80 ee ff ff 00 	cmpb   $0x0,-0x1180(%rbp)
   1236b:	0f 94 c0             	sete   %al
   1236e:	09 c2                	or     %eax,%edx
   12370:	48 8b 05 19 28 01 00 	mov    0x12819(%rip),%rax        # 24b90 <g_972>
   12377:	48 8b 00             	mov    (%rax),%rax
   1237a:	48 8b 00             	mov    (%rax),%rax
   1237d:	0f b6 d2             	movzbl %dl,%edx
   12380:	48 89 10             	mov    %rdx,(%rax)
   12383:	48 8b 00             	mov    (%rax),%rax
   12386:	48 39 c1             	cmp    %rax,%rcx
   12389:	0f 9f c0             	setg   %al
   1238c:	0f b6 c0             	movzbl %al,%eax
   1238f:	f7 d0                	not    %eax
   12391:	21 85 ac ee ff ff    	and    %eax,-0x1154(%rbp)
   12397:	83 bd ac ee ff ff 00 	cmpl   $0x0,-0x1154(%rbp)
   1239e:	75 0a                	jne    123aa <func_25+0xb35>
   123a0:	8b 85 a4 ee ff ff    	mov    -0x115c(%rbp),%eax
   123a6:	85 c0                	test   %eax,%eax
   123a8:	74 07                	je     123b1 <func_25+0xb3c>
   123aa:	b8 01 00 00 00       	mov    $0x1,%eax
   123af:	eb 05                	jmp    123b6 <func_25+0xb41>
   123b1:	b8 00 00 00 00       	mov    $0x0,%eax
   123b6:	48 63 d0             	movslq %eax,%rdx
   123b9:	48 8b 05 10 fd 00 00 	mov    0xfd10(%rip),%rax        # 220d0 <g_164>
   123c0:	48 39 c2             	cmp    %rax,%rdx
   123c3:	0f 95 c2             	setne  %dl
   123c6:	48 8b 85 b8 ef ff ff 	mov    -0x1048(%rbp),%rax
   123cd:	48 8b 00             	mov    (%rax),%rax
   123d0:	88 10                	mov    %dl,(%rax)
   123d2:	0f b6 08             	movzbl (%rax),%ecx
   123d5:	48 8b 05 14 27 01 00 	mov    0x12714(%rip),%rax        # 24af0 <g_655>
   123dc:	0f b6 10             	movzbl (%rax),%edx
   123df:	09 ca                	or     %ecx,%edx
   123e1:	88 10                	mov    %dl,(%rax)
   123e3:	b8 01 00 00 00       	mov    $0x1,%eax
   123e8:	83 c8 05             	or     $0x5,%eax
   123eb:	98                   	cwtl   
   123ec:	be 74 a3 ff ff       	mov    $0xffffa374,%esi
   123f1:	89 c7                	mov    %eax,%edi
   123f3:	e8 5d 70 ff ff       	callq  9455 <safe_div_func_int16_t_s_s>
   123f8:	66 85 c0             	test   %ax,%ax
   123fb:	74 42                	je     1243f <func_25+0xbca>
   123fd:	48 8d 05 40 fc 00 00 	lea    0xfc40(%rip),%rax        # 22044 <g_39>
   12404:	48 89 85 c8 f0 ff ff 	mov    %rax,-0xf38(%rbp)
   1240b:	48 8b 85 c8 f0 ff ff 	mov    -0xf38(%rbp),%rax
   12412:	8b 10                	mov    (%rax),%edx
   12414:	48 8b 85 b8 f0 ff ff 	mov    -0xf48(%rbp),%rax
   1241b:	8b 00                	mov    (%rax),%eax
   1241d:	31 c2                	xor    %eax,%edx
   1241f:	48 8b 85 c8 f0 ff ff 	mov    -0xf38(%rbp),%rax
   12426:	89 10                	mov    %edx,(%rax)
   12428:	90                   	nop
   12429:	48 8b 95 10 ef ff ff 	mov    -0x10f0(%rbp),%rdx
   12430:	48 8b 85 c0 f0 ff ff 	mov    -0xf40(%rbp),%rax
   12437:	48 89 10             	mov    %rdx,(%rax)
   1243a:	e9 3e 0c 00 00       	jmpq   1307d <func_25+0x1808>
   1243f:	48 8d 85 a4 ee ff ff 	lea    -0x115c(%rbp),%rax
   12446:	48 89 85 d0 f0 ff ff 	mov    %rax,-0xf30(%rbp)
   1244d:	48 c7 85 d8 f0 ff ff 	movq   $0x0,-0xf28(%rbp)
   12454:	00 00 00 00 
   12458:	48 8d 05 45 fc 00 00 	lea    0xfc45(%rip),%rax        # 220a4 <g_88>
   1245f:	48 89 85 e0 f0 ff ff 	mov    %rax,-0xf20(%rbp)
   12466:	48 8d 05 d3 fb 00 00 	lea    0xfbd3(%rip),%rax        # 22040 <g_2+0x10>
   1246d:	48 89 85 40 f2 ff ff 	mov    %rax,-0xdc0(%rbp)
   12474:	48 8d 05 c5 fb 00 00 	lea    0xfbc5(%rip),%rax        # 22040 <g_2+0x10>
   1247b:	48 89 85 48 f2 ff ff 	mov    %rax,-0xdb8(%rbp)
   12482:	48 8d 05 b7 fb 00 00 	lea    0xfbb7(%rip),%rax        # 22040 <g_2+0x10>
   12489:	48 89 85 50 f2 ff ff 	mov    %rax,-0xdb0(%rbp)
   12490:	48 8d 05 a9 fb 00 00 	lea    0xfba9(%rip),%rax        # 22040 <g_2+0x10>
   12497:	48 89 85 58 f2 ff ff 	mov    %rax,-0xda8(%rbp)
   1249e:	66 c7 85 c0 f2 ff ff 	movw   $0x2f2d,-0xd40(%rbp)
   124a5:	2d 2f 
   124a7:	66 c7 85 c2 f2 ff ff 	movw   $0xffff,-0xd3e(%rbp)
   124ae:	ff ff 
   124b0:	66 c7 85 c4 f2 ff ff 	movw   $0xffff,-0xd3c(%rbp)
   124b7:	ff ff 
   124b9:	66 c7 85 c6 f2 ff ff 	movw   $0x2f2d,-0xd3a(%rbp)
   124c0:	2d 2f 
   124c2:	66 c7 85 c8 f2 ff ff 	movw   $0xfff8,-0xd38(%rbp)
   124c9:	f8 ff 
   124cb:	66 c7 85 ca f2 ff ff 	movw   $0x2f2d,-0xd36(%rbp)
   124d2:	2d 2f 
   124d4:	66 c7 85 cc f2 ff ff 	movw   $0xffff,-0xd34(%rbp)
   124db:	ff ff 
   124dd:	66 c7 85 ce f2 ff ff 	movw   $0xffff,-0xd32(%rbp)
   124e4:	ff ff 
   124e6:	66 c7 85 d0 f2 ff ff 	movw   $0x2f2d,-0xd30(%rbp)
   124ed:	2d 2f 
   124ef:	66 c7 85 d2 f2 ff ff 	movw   $0xfff8,-0xd2e(%rbp)
   124f6:	f8 ff 
   124f8:	66 c7 85 d4 f2 ff ff 	movw   $0x2f2d,-0xd2c(%rbp)
   124ff:	2d 2f 
   12501:	66 c7 85 d6 f2 ff ff 	movw   $0xffff,-0xd2a(%rbp)
   12508:	ff ff 
   1250a:	66 c7 85 d8 f2 ff ff 	movw   $0xffff,-0xd28(%rbp)
   12511:	ff ff 
   12513:	66 c7 85 da f2 ff ff 	movw   $0x2f2d,-0xd26(%rbp)
   1251a:	2d 2f 
   1251c:	66 c7 85 dc f2 ff ff 	movw   $0xfff8,-0xd24(%rbp)
   12523:	f8 ff 
   12525:	66 c7 85 de f2 ff ff 	movw   $0x2f2d,-0xd22(%rbp)
   1252c:	2d 2f 
   1252e:	66 c7 85 e0 f2 ff ff 	movw   $0xffff,-0xd20(%rbp)
   12535:	ff ff 
   12537:	66 c7 85 e2 f2 ff ff 	movw   $0xffff,-0xd1e(%rbp)
   1253e:	ff ff 
   12540:	66 c7 85 e4 f2 ff ff 	movw   $0x2f2d,-0xd1c(%rbp)
   12547:	2d 2f 
   12549:	66 c7 85 e6 f2 ff ff 	movw   $0xfff8,-0xd1a(%rbp)
   12550:	f8 ff 
   12552:	c7 85 c0 ee ff ff 00 	movl   $0x0,-0x1140(%rbp)
   12559:	00 00 00 
   1255c:	eb 1e                	jmp    1257c <func_25+0xd07>
   1255e:	8b 85 c0 ee ff ff    	mov    -0x1140(%rbp),%eax
   12564:	48 98                	cltq   
   12566:	48 8d 95 38 ef ff ff 	lea    -0x10c8(%rbp),%rdx
   1256d:	48 89 94 c5 00 f4 ff 	mov    %rdx,-0xc00(%rbp,%rax,8)
   12574:	ff 
   12575:	83 85 c0 ee ff ff 01 	addl   $0x1,-0x1140(%rbp)
   1257c:	83 bd c0 ee ff ff 08 	cmpl   $0x8,-0x1140(%rbp)
   12583:	7e d9                	jle    1255e <func_25+0xce9>
   12585:	0f b7 85 d0 f2 ff ff 	movzwl -0xd30(%rbp),%eax
   1258c:	83 c0 01             	add    $0x1,%eax
   1258f:	66 89 85 d0 f2 ff ff 	mov    %ax,-0xd30(%rbp)
   12596:	48 8b 85 38 ef ff ff 	mov    -0x10c8(%rbp),%rax
   1259d:	48 89 85 38 ef ff ff 	mov    %rax,-0x10c8(%rbp)
   125a4:	0f b7 85 6c ee ff ff 	movzwl -0x1194(%rbp),%eax
   125ab:	e9 3e 2e 00 00       	jmpq   153ee <func_25+0x3b79>
   125b0:	48 c7 85 70 ef ff ff 	movq   $0x0,-0x1090(%rbp)
   125b7:	00 00 00 00 
   125bb:	48 8d 85 70 ef ff ff 	lea    -0x1090(%rbp),%rax
   125c2:	48 89 85 58 f0 ff ff 	mov    %rax,-0xfa8(%rbp)
   125c9:	c7 85 58 ef ff ff ff 	movl   $0xffffffff,-0x10a8(%rbp)
   125d0:	ff ff ff 
   125d3:	c7 85 00 f4 ff ff 00 	movl   $0xfb00fb00,-0xc00(%rbp)
   125da:	fb 00 fb 
   125dd:	c6 85 04 f4 ff ff 00 	movb   $0x0,-0xbfc(%rbp)
   125e4:	c7 85 05 f4 ff ff 33 	movl   $0x33333333,-0xbfb(%rbp)
   125eb:	33 33 33 
   125ee:	c6 85 09 f4 ff ff 33 	movb   $0x33,-0xbf7(%rbp)
   125f5:	c7 85 0a f4 ff ff 00 	movl   $0xfb00fb00,-0xbf6(%rbp)
   125fc:	fb 00 fb 
   125ff:	c6 85 0e f4 ff ff 00 	movb   $0x0,-0xbf2(%rbp)
   12606:	c7 85 0f f4 ff ff 33 	movl   $0x33333333,-0xbf1(%rbp)
   1260d:	33 33 33 
   12610:	c6 85 13 f4 ff ff 33 	movb   $0x33,-0xbed(%rbp)
   12617:	c7 85 40 f2 ff ff ff 	movl   $0xffffffff,-0xdc0(%rbp)
   1261e:	ff ff ff 
   12621:	c7 85 44 f2 ff ff ff 	movl   $0xffffffff,-0xdbc(%rbp)
   12628:	ff ff ff 
   1262b:	c7 85 48 f2 ff ff ff 	movl   $0xffffffff,-0xdb8(%rbp)
   12632:	ff ff ff 
   12635:	c7 85 4c f2 ff ff ff 	movl   $0xffffffff,-0xdb4(%rbp)
   1263c:	ff ff ff 
   1263f:	48 8d 05 72 fe 00 00 	lea    0xfe72(%rip),%rax        # 224b8 <g_1012>
   12646:	48 89 85 60 f0 ff ff 	mov    %rax,-0xfa0(%rbp)
   1264d:	48 8d 05 9c 26 01 00 	lea    0x1269c(%rip),%rax        # 24cf0 <g_1216>
   12654:	48 89 85 68 f0 ff ff 	mov    %rax,-0xf98(%rbp)
   1265b:	48 c7 85 70 f0 ff ff 	movq   $0x0,-0xf90(%rbp)
   12662:	00 00 00 00 
   12666:	48 8d 85 58 ef ff ff 	lea    -0x10a8(%rbp),%rax
   1266d:	48 89 85 78 f0 ff ff 	mov    %rax,-0xf88(%rbp)
   12674:	48 8b 85 20 f2 ff ff 	mov    -0xde0(%rbp),%rax
   1267b:	48 39 85 58 f0 ff ff 	cmp    %rax,-0xfa8(%rbp)
   12682:	0f 95 c2             	setne  %dl
   12685:	48 8b 05 54 26 01 00 	mov    0x12654(%rip),%rax        # 24ce0 <g_1125>
   1268c:	0f b6 d2             	movzbl %dl,%edx
   1268f:	89 10                	mov    %edx,(%rax)
   12691:	8b 00                	mov    (%rax),%eax
   12693:	85 c0                	test   %eax,%eax
   12695:	0f 84 81 02 00 00    	je     1291c <func_25+0x10a7>
   1269b:	48 8d 05 16 fe 00 00 	lea    0xfe16(%rip),%rax        # 224b8 <g_1012>
   126a2:	48 89 85 88 f0 ff ff 	mov    %rax,-0xf78(%rbp)
   126a9:	48 c7 85 90 f0 ff ff 	movq   $0x0,-0xf70(%rbp)
   126b0:	00 00 00 00 
   126b4:	48 8d 05 05 fe 00 00 	lea    0xfe05(%rip),%rax        # 224c0 <g_1164>
   126bb:	48 89 85 98 f0 ff ff 	mov    %rax,-0xf68(%rbp)
   126c2:	48 8d 05 cf fd 00 00 	lea    0xfdcf(%rip),%rax        # 22498 <g_779>
   126c9:	48 89 85 50 f8 ff ff 	mov    %rax,-0x7b0(%rbp)
   126d0:	48 8d 05 c1 fd 00 00 	lea    0xfdc1(%rip),%rax        # 22498 <g_779>
   126d7:	48 89 85 58 f8 ff ff 	mov    %rax,-0x7a8(%rbp)
   126de:	48 8d 05 b3 fd 00 00 	lea    0xfdb3(%rip),%rax        # 22498 <g_779>
   126e5:	48 89 85 60 f8 ff ff 	mov    %rax,-0x7a0(%rbp)
   126ec:	48 8d 05 a5 fd 00 00 	lea    0xfda5(%rip),%rax        # 22498 <g_779>
   126f3:	48 89 85 68 f8 ff ff 	mov    %rax,-0x798(%rbp)
   126fa:	48 8d 05 97 fd 00 00 	lea    0xfd97(%rip),%rax        # 22498 <g_779>
   12701:	48 89 85 70 f8 ff ff 	mov    %rax,-0x790(%rbp)
   12708:	48 8d 05 89 fd 00 00 	lea    0xfd89(%rip),%rax        # 22498 <g_779>
   1270f:	48 89 85 78 f8 ff ff 	mov    %rax,-0x788(%rbp)
   12716:	48 8d 05 7b fd 00 00 	lea    0xfd7b(%rip),%rax        # 22498 <g_779>
   1271d:	48 89 85 80 f8 ff ff 	mov    %rax,-0x780(%rbp)
   12724:	48 8d 05 6d fd 00 00 	lea    0xfd6d(%rip),%rax        # 22498 <g_779>
   1272b:	48 89 85 88 f8 ff ff 	mov    %rax,-0x778(%rbp)
   12732:	48 8d 05 5f fd 00 00 	lea    0xfd5f(%rip),%rax        # 22498 <g_779>
   12739:	48 89 85 90 f8 ff ff 	mov    %rax,-0x770(%rbp)
   12740:	48 8d 05 51 fd 00 00 	lea    0xfd51(%rip),%rax        # 22498 <g_779>
   12747:	48 89 85 98 f8 ff ff 	mov    %rax,-0x768(%rbp)
   1274e:	48 c7 85 a0 f0 ff ff 	movq   $0x0,-0xf60(%rbp)
   12755:	00 00 00 00 
   12759:	48 8d 05 0a 38 01 00 	lea    0x1380a(%rip),%rax        # 25f6a <g_43+0x2>
   12760:	48 89 85 a8 f0 ff ff 	mov    %rax,-0xf58(%rbp)
   12767:	48 8b 05 2a 24 01 00 	mov    0x1242a(%rip),%rax        # 24b98 <g_1030>
   1276e:	48 8b 00             	mov    (%rax),%rax
   12771:	8b 00                	mov    (%rax),%eax
   12773:	85 c0                	test   %eax,%eax
   12775:	74 2a                	je     127a1 <func_25+0xf2c>
   12777:	48 8b 85 88 f0 ff ff 	mov    -0xf78(%rbp),%rax
   1277e:	8b 00                	mov    (%rax),%eax
   12780:	8d 50 ff             	lea    -0x1(%rax),%edx
   12783:	48 8b 85 88 f0 ff ff 	mov    -0xf78(%rbp),%rax
   1278a:	89 10                	mov    %edx,(%rax)
   1278c:	48 8b 85 88 f0 ff ff 	mov    -0xf78(%rbp),%rax
   12793:	8b 00                	mov    (%rax),%eax
   12795:	85 c0                	test   %eax,%eax
   12797:	74 08                	je     127a1 <func_25+0xf2c>
   12799:	41 bd 01 00 00 00    	mov    $0x1,%r13d
   1279f:	eb 06                	jmp    127a7 <func_25+0xf32>
   127a1:	41 bd 00 00 00 00    	mov    $0x0,%r13d
   127a7:	0f b7 85 6c ee ff ff 	movzwl -0x1194(%rbp),%eax
   127ae:	44 0f b6 e0          	movzbl %al,%r12d
   127b2:	48 8b 85 98 f0 ff ff 	mov    -0xf68(%rbp),%rax
   127b9:	8b 00                	mov    (%rax),%eax
   127bb:	8d 50 01             	lea    0x1(%rax),%edx
   127be:	48 8b 85 98 f0 ff ff 	mov    -0xf68(%rbp),%rax
   127c5:	89 10                	mov    %edx,(%rax)
   127c7:	48 8b 85 98 f0 ff ff 	mov    -0xf68(%rbp),%rax
   127ce:	8b 00                	mov    (%rax),%eax
   127d0:	89 05 ee fc 00 00    	mov    %eax,0xfcee(%rip)        # 224c4 <g_1167>
   127d6:	8b 05 e8 fc 00 00    	mov    0xfce8(%rip),%eax        # 224c4 <g_1167>
   127dc:	89 c2                	mov    %eax,%edx
   127de:	0f b7 85 6c ee ff ff 	movzwl -0x1194(%rbp),%eax
   127e5:	66 83 f8 01          	cmp    $0x1,%ax
   127e9:	0f 96 c0             	setbe  %al
   127ec:	0f b6 c0             	movzbl %al,%eax
   127ef:	89 d6                	mov    %edx,%esi
   127f1:	89 c7                	mov    %eax,%edi
   127f3:	e8 05 77 ff ff       	callq  9efd <safe_mod_func_uint32_t_u_u>
   127f8:	0f b7 c0             	movzwl %ax,%eax
   127fb:	85 c0                	test   %eax,%eax
   127fd:	75 0d                	jne    1280c <func_25+0xf97>
   127ff:	48 8b 85 10 ef ff ff 	mov    -0x10f0(%rbp),%rax
   12806:	8b 00                	mov    (%rax),%eax
   12808:	85 c0                	test   %eax,%eax
   1280a:	74 07                	je     12813 <func_25+0xf9e>
   1280c:	b8 01 00 00 00       	mov    $0x1,%eax
   12811:	eb 05                	jmp    12818 <func_25+0xfa3>
   12813:	b8 00 00 00 00       	mov    $0x0,%eax
   12818:	89 c3                	mov    %eax,%ebx
   1281a:	83 e3 01             	and    $0x1,%ebx
   1281d:	48 8b 95 98 f8 ff ff 	mov    -0x768(%rbp),%rdx
   12824:	48 8b 85 40 ef ff ff 	mov    -0x10c0(%rbp),%rax
   1282b:	48 39 c2             	cmp    %rax,%rdx
   1282e:	75 54                	jne    12884 <func_25+0x100f>
   12830:	0f b7 05 63 fc 00 00 	movzwl 0xfc63(%rip),%eax        # 2249a <g_860>
   12837:	0f b6 d0             	movzbl %al,%edx
   1283a:	0f b7 85 6c ee ff ff 	movzwl -0x1194(%rbp),%eax
   12841:	0f b6 c0             	movzbl %al,%eax
   12844:	89 d6                	mov    %edx,%esi
   12846:	89 c7                	mov    %eax,%edi
   12848:	e8 46 73 ff ff       	callq  9b93 <safe_mul_func_uint8_t_u_u>
   1284d:	0f b6 d0             	movzbl %al,%edx
   12850:	0f b7 05 43 fc 00 00 	movzwl 0xfc43(%rip),%eax        # 2249a <g_860>
   12857:	66 39 c2             	cmp    %ax,%dx
   1285a:	0f 96 c0             	setbe  %al
   1285d:	0f b6 d0             	movzbl %al,%edx
   12860:	48 8b 85 40 f0 ff ff 	mov    -0xfc0(%rbp),%rax
   12867:	66 89 10             	mov    %dx,(%rax)
   1286a:	48 8b 05 7f f8 00 00 	mov    0xf87f(%rip),%rax        # 220f0 <g_247>
   12871:	0f be c0             	movsbl %al,%eax
   12874:	be 07 00 00 00       	mov    $0x7,%esi
   12879:	89 c7                	mov    %eax,%edi
   1287b:	e8 6e 6a ff ff       	callq  92ee <safe_lshift_func_int8_t_s_u>
   12880:	84 c0                	test   %al,%al
   12882:	74 07                	je     1288b <func_25+0x1016>
   12884:	b8 01 00 00 00       	mov    $0x1,%eax
   12889:	eb 05                	jmp    12890 <func_25+0x101b>
   1288b:	b8 00 00 00 00       	mov    $0x0,%eax
   12890:	83 e0 01             	and    $0x1,%eax
   12893:	21 d8                	and    %ebx,%eax
   12895:	0f b6 c0             	movzbl %al,%eax
   12898:	44 89 e6             	mov    %r12d,%esi
   1289b:	89 c7                	mov    %eax,%edi
   1289d:	e8 39 73 ff ff       	callq  9bdb <safe_div_func_uint8_t_u_u>
   128a2:	0f b6 d0             	movzbl %al,%edx
   128a5:	0f bf 85 6c ee ff ff 	movswl -0x1194(%rbp),%eax
   128ac:	39 c2                	cmp    %eax,%edx
   128ae:	0f 95 c0             	setne  %al
   128b1:	0f b6 d0             	movzbl %al,%edx
   128b4:	0f b7 85 6c ee ff ff 	movzwl -0x1194(%rbp),%eax
   128bb:	0f b7 c0             	movzwl %ax,%eax
   128be:	89 d6                	mov    %edx,%esi
   128c0:	89 c7                	mov    %eax,%edi
   128c2:	e8 58 74 ff ff       	callq  9d1f <safe_sub_func_uint16_t_u_u>
   128c7:	0f b7 d0             	movzwl %ax,%edx
   128ca:	48 8b 85 10 ef ff ff 	mov    -0x10f0(%rbp),%rax
   128d1:	8b 00                	mov    (%rax),%eax
   128d3:	39 c2                	cmp    %eax,%edx
   128d5:	0f 9e c0             	setle  %al
   128d8:	89 c2                	mov    %eax,%edx
   128da:	48 8b 85 a8 f0 ff ff 	mov    -0xf58(%rbp),%rax
   128e1:	88 10                	mov    %dl,(%rax)
   128e3:	48 8b 85 a8 f0 ff ff 	mov    -0xf58(%rbp),%rax
   128ea:	0f b6 00             	movzbl (%rax),%eax
   128ed:	0f be c0             	movsbl %al,%eax
   128f0:	44 09 e8             	or     %r13d,%eax
   128f3:	89 85 90 ee ff ff    	mov    %eax,-0x1170(%rbp)
   128f9:	48 8b 85 38 ef ff ff 	mov    -0x10c8(%rbp),%rax
   12900:	8b 00                	mov    (%rax),%eax
   12902:	85 c0                	test   %eax,%eax
   12904:	0f 85 4c 1f 00 00    	jne    14856 <func_25+0x2fe1>
   1290a:	83 bd e4 ee ff ff 00 	cmpl   $0x0,-0x111c(%rbp)
   12911:	0f 84 62 06 00 00    	je     12f79 <func_25+0x1704>
   12917:	e9 15 1f 00 00       	jmpq   14831 <func_25+0x2fbc>
   1291c:	48 c7 85 80 f0 ff ff 	movq   $0x0,-0xf80(%rbp)
   12923:	00 00 00 00 
   12927:	48 8d 85 a4 ee ff ff 	lea    -0x115c(%rbp),%rax
   1292e:	48 89 85 50 f8 ff ff 	mov    %rax,-0x7b0(%rbp)
   12935:	48 8d 85 a4 ee ff ff 	lea    -0x115c(%rbp),%rax
   1293c:	48 89 85 58 f8 ff ff 	mov    %rax,-0x7a8(%rbp)
   12943:	48 c7 85 60 f8 ff ff 	movq   $0x0,-0x7a0(%rbp)
   1294a:	00 00 00 00 
   1294e:	48 8d 85 a4 ee ff ff 	lea    -0x115c(%rbp),%rax
   12955:	48 89 85 68 f8 ff ff 	mov    %rax,-0x798(%rbp)
   1295c:	48 8d 85 a4 ee ff ff 	lea    -0x115c(%rbp),%rax
   12963:	48 89 85 70 f8 ff ff 	mov    %rax,-0x790(%rbp)
   1296a:	48 8d 85 a4 ee ff ff 	lea    -0x115c(%rbp),%rax
   12971:	48 89 85 78 f8 ff ff 	mov    %rax,-0x788(%rbp)
   12978:	48 8d 85 a4 ee ff ff 	lea    -0x115c(%rbp),%rax
   1297f:	48 89 85 80 f8 ff ff 	mov    %rax,-0x780(%rbp)
   12986:	48 c7 85 88 f8 ff ff 	movq   $0x0,-0x778(%rbp)
   1298d:	00 00 00 00 
   12991:	48 8d 85 a4 ee ff ff 	lea    -0x115c(%rbp),%rax
   12998:	48 89 85 90 f8 ff ff 	mov    %rax,-0x770(%rbp)
   1299f:	48 8d 85 a4 ee ff ff 	lea    -0x115c(%rbp),%rax
   129a6:	48 89 85 98 f8 ff ff 	mov    %rax,-0x768(%rbp)
   129ad:	48 8d 05 f0 f6 00 00 	lea    0xf6f0(%rip),%rax        # 220a4 <g_88>
   129b4:	48 89 85 a0 f8 ff ff 	mov    %rax,-0x760(%rbp)
   129bb:	48 c7 85 a8 f8 ff ff 	movq   $0x0,-0x758(%rbp)
   129c2:	00 00 00 00 
   129c6:	48 c7 85 b0 f8 ff ff 	movq   $0x0,-0x750(%rbp)
   129cd:	00 00 00 00 
   129d1:	48 8d 05 cc f6 00 00 	lea    0xf6cc(%rip),%rax        # 220a4 <g_88>
   129d8:	48 89 85 b8 f8 ff ff 	mov    %rax,-0x748(%rbp)
   129df:	48 8d 85 a4 ee ff ff 	lea    -0x115c(%rbp),%rax
   129e6:	48 89 85 c0 f8 ff ff 	mov    %rax,-0x740(%rbp)
   129ed:	48 8d 05 b0 f6 00 00 	lea    0xf6b0(%rip),%rax        # 220a4 <g_88>
   129f4:	48 89 85 c8 f8 ff ff 	mov    %rax,-0x738(%rbp)
   129fb:	48 c7 85 d0 f8 ff ff 	movq   $0x0,-0x730(%rbp)
   12a02:	00 00 00 00 
   12a06:	48 c7 85 d8 f8 ff ff 	movq   $0x0,-0x728(%rbp)
   12a0d:	00 00 00 00 
   12a11:	48 8d 85 a4 ee ff ff 	lea    -0x115c(%rbp),%rax
   12a18:	48 89 85 e0 f8 ff ff 	mov    %rax,-0x720(%rbp)
   12a1f:	48 8d 85 a4 ee ff ff 	lea    -0x115c(%rbp),%rax
   12a26:	48 89 85 e8 f8 ff ff 	mov    %rax,-0x718(%rbp)
   12a2d:	48 8d 85 a4 ee ff ff 	lea    -0x115c(%rbp),%rax
   12a34:	48 89 85 f0 f8 ff ff 	mov    %rax,-0x710(%rbp)
   12a3b:	48 c7 85 f8 f8 ff ff 	movq   $0x0,-0x708(%rbp)
   12a42:	00 00 00 00 
   12a46:	48 8d 85 a4 ee ff ff 	lea    -0x115c(%rbp),%rax
   12a4d:	48 89 85 00 f9 ff ff 	mov    %rax,-0x700(%rbp)
   12a54:	48 8d 85 a4 ee ff ff 	lea    -0x115c(%rbp),%rax
   12a5b:	48 89 85 08 f9 ff ff 	mov    %rax,-0x6f8(%rbp)
   12a62:	48 8d 85 a4 ee ff ff 	lea    -0x115c(%rbp),%rax
   12a69:	48 89 85 10 f9 ff ff 	mov    %rax,-0x6f0(%rbp)
   12a70:	48 8d 85 a4 ee ff ff 	lea    -0x115c(%rbp),%rax
   12a77:	48 89 85 18 f9 ff ff 	mov    %rax,-0x6e8(%rbp)
   12a7e:	48 c7 85 20 f9 ff ff 	movq   $0x0,-0x6e0(%rbp)
   12a85:	00 00 00 00 
   12a89:	48 8d 85 90 ee ff ff 	lea    -0x1170(%rbp),%rax
   12a90:	48 89 85 28 f9 ff ff 	mov    %rax,-0x6d8(%rbp)
   12a97:	48 8d 05 06 f6 00 00 	lea    0xf606(%rip),%rax        # 220a4 <g_88>
   12a9e:	48 89 85 30 f9 ff ff 	mov    %rax,-0x6d0(%rbp)
   12aa5:	48 8d 85 90 ee ff ff 	lea    -0x1170(%rbp),%rax
   12aac:	48 89 85 38 f9 ff ff 	mov    %rax,-0x6c8(%rbp)
   12ab3:	48 8d 85 a4 ee ff ff 	lea    -0x115c(%rbp),%rax
   12aba:	48 89 85 40 f9 ff ff 	mov    %rax,-0x6c0(%rbp)
   12ac1:	48 8d 85 a4 ee ff ff 	lea    -0x115c(%rbp),%rax
   12ac8:	48 89 85 48 f9 ff ff 	mov    %rax,-0x6b8(%rbp)
   12acf:	48 8d 85 90 ee ff ff 	lea    -0x1170(%rbp),%rax
   12ad6:	48 89 85 50 f9 ff ff 	mov    %rax,-0x6b0(%rbp)
   12add:	48 8d 05 c0 f5 00 00 	lea    0xf5c0(%rip),%rax        # 220a4 <g_88>
   12ae4:	48 89 85 58 f9 ff ff 	mov    %rax,-0x6a8(%rbp)
   12aeb:	48 8d 85 90 ee ff ff 	lea    -0x1170(%rbp),%rax
   12af2:	48 89 85 60 f9 ff ff 	mov    %rax,-0x6a0(%rbp)
   12af9:	48 8d 85 a4 ee ff ff 	lea    -0x115c(%rbp),%rax
   12b00:	48 89 85 68 f9 ff ff 	mov    %rax,-0x698(%rbp)
   12b07:	48 8d 85 90 ee ff ff 	lea    -0x1170(%rbp),%rax
   12b0e:	48 89 85 70 f9 ff ff 	mov    %rax,-0x690(%rbp)
   12b15:	48 8d 85 a4 ee ff ff 	lea    -0x115c(%rbp),%rax
   12b1c:	48 89 85 78 f9 ff ff 	mov    %rax,-0x688(%rbp)
   12b23:	48 8d 85 a4 ee ff ff 	lea    -0x115c(%rbp),%rax
   12b2a:	48 89 85 80 f9 ff ff 	mov    %rax,-0x680(%rbp)
   12b31:	48 8d 85 90 ee ff ff 	lea    -0x1170(%rbp),%rax
   12b38:	48 89 85 88 f9 ff ff 	mov    %rax,-0x678(%rbp)
   12b3f:	48 8d 05 5e f5 00 00 	lea    0xf55e(%rip),%rax        # 220a4 <g_88>
   12b46:	48 89 85 90 f9 ff ff 	mov    %rax,-0x670(%rbp)
   12b4d:	48 8d 85 90 ee ff ff 	lea    -0x1170(%rbp),%rax
   12b54:	48 89 85 98 f9 ff ff 	mov    %rax,-0x668(%rbp)
   12b5b:	48 8d 85 a4 ee ff ff 	lea    -0x115c(%rbp),%rax
   12b62:	48 89 85 a0 f9 ff ff 	mov    %rax,-0x660(%rbp)
   12b69:	48 8d 85 a4 ee ff ff 	lea    -0x115c(%rbp),%rax
   12b70:	48 89 85 a8 f9 ff ff 	mov    %rax,-0x658(%rbp)
   12b77:	48 8d 85 90 ee ff ff 	lea    -0x1170(%rbp),%rax
   12b7e:	48 89 85 b0 f9 ff ff 	mov    %rax,-0x650(%rbp)
   12b85:	48 8d 85 a4 ee ff ff 	lea    -0x115c(%rbp),%rax
   12b8c:	48 89 85 b8 f9 ff ff 	mov    %rax,-0x648(%rbp)
   12b93:	48 8d 85 90 ee ff ff 	lea    -0x1170(%rbp),%rax
   12b9a:	48 89 85 c0 f9 ff ff 	mov    %rax,-0x640(%rbp)
   12ba1:	48 8d 05 fc f4 00 00 	lea    0xf4fc(%rip),%rax        # 220a4 <g_88>
   12ba8:	48 89 85 c8 f9 ff ff 	mov    %rax,-0x638(%rbp)
   12baf:	48 8d 85 90 ee ff ff 	lea    -0x1170(%rbp),%rax
   12bb6:	48 89 85 d0 f9 ff ff 	mov    %rax,-0x630(%rbp)
   12bbd:	48 8d 85 a4 ee ff ff 	lea    -0x115c(%rbp),%rax
   12bc4:	48 89 85 d8 f9 ff ff 	mov    %rax,-0x628(%rbp)
   12bcb:	48 8d 85 a4 ee ff ff 	lea    -0x115c(%rbp),%rax
   12bd2:	48 89 85 e0 f9 ff ff 	mov    %rax,-0x620(%rbp)
   12bd9:	48 8d 85 90 ee ff ff 	lea    -0x1170(%rbp),%rax
   12be0:	48 89 85 e8 f9 ff ff 	mov    %rax,-0x618(%rbp)
   12be7:	48 8d 05 b6 f4 00 00 	lea    0xf4b6(%rip),%rax        # 220a4 <g_88>
   12bee:	48 89 85 f0 f9 ff ff 	mov    %rax,-0x610(%rbp)
   12bf5:	48 8d 85 90 ee ff ff 	lea    -0x1170(%rbp),%rax
   12bfc:	48 89 85 f8 f9 ff ff 	mov    %rax,-0x608(%rbp)
   12c03:	48 8d 85 90 ee ff ff 	lea    -0x1170(%rbp),%rax
   12c0a:	48 89 85 00 fa ff ff 	mov    %rax,-0x600(%rbp)
   12c11:	48 8d 85 a4 ee ff ff 	lea    -0x115c(%rbp),%rax
   12c18:	48 89 85 08 fa ff ff 	mov    %rax,-0x5f8(%rbp)
   12c1f:	48 8d 05 7e f4 00 00 	lea    0xf47e(%rip),%rax        # 220a4 <g_88>
   12c26:	48 89 85 10 fa ff ff 	mov    %rax,-0x5f0(%rbp)
   12c2d:	48 8d 05 70 f4 00 00 	lea    0xf470(%rip),%rax        # 220a4 <g_88>
   12c34:	48 89 85 18 fa ff ff 	mov    %rax,-0x5e8(%rbp)
   12c3b:	48 8d 85 a4 ee ff ff 	lea    -0x115c(%rbp),%rax
   12c42:	48 89 85 20 fa ff ff 	mov    %rax,-0x5e0(%rbp)
   12c49:	48 8d 85 90 ee ff ff 	lea    -0x1170(%rbp),%rax
   12c50:	48 89 85 28 fa ff ff 	mov    %rax,-0x5d8(%rbp)
   12c57:	48 8d 85 a4 ee ff ff 	lea    -0x115c(%rbp),%rax
   12c5e:	48 89 85 30 fa ff ff 	mov    %rax,-0x5d0(%rbp)
   12c65:	48 8d 05 38 f4 00 00 	lea    0xf438(%rip),%rax        # 220a4 <g_88>
   12c6c:	48 89 85 38 fa ff ff 	mov    %rax,-0x5c8(%rbp)
   12c73:	48 8d 05 2a f4 00 00 	lea    0xf42a(%rip),%rax        # 220a4 <g_88>
   12c7a:	48 89 85 40 fa ff ff 	mov    %rax,-0x5c0(%rbp)
   12c81:	48 8d 85 a4 ee ff ff 	lea    -0x115c(%rbp),%rax
   12c88:	48 89 85 48 fa ff ff 	mov    %rax,-0x5b8(%rbp)
   12c8f:	48 8d 85 a4 ee ff ff 	lea    -0x115c(%rbp),%rax
   12c96:	48 89 85 50 fa ff ff 	mov    %rax,-0x5b0(%rbp)
   12c9d:	48 8d 85 90 ee ff ff 	lea    -0x1170(%rbp),%rax
   12ca4:	48 89 85 58 fa ff ff 	mov    %rax,-0x5a8(%rbp)
   12cab:	48 8d 05 f2 f3 00 00 	lea    0xf3f2(%rip),%rax        # 220a4 <g_88>
   12cb2:	48 89 85 60 fa ff ff 	mov    %rax,-0x5a0(%rbp)
   12cb9:	48 8d 85 90 ee ff ff 	lea    -0x1170(%rbp),%rax
   12cc0:	48 89 85 68 fa ff ff 	mov    %rax,-0x598(%rbp)
   12cc7:	48 8d 85 a4 ee ff ff 	lea    -0x115c(%rbp),%rax
   12cce:	48 89 85 70 fa ff ff 	mov    %rax,-0x590(%rbp)
   12cd5:	48 8d 85 a4 ee ff ff 	lea    -0x115c(%rbp),%rax
   12cdc:	48 89 85 78 fa ff ff 	mov    %rax,-0x588(%rbp)
   12ce3:	48 8d 85 90 ee ff ff 	lea    -0x1170(%rbp),%rax
   12cea:	48 89 85 80 fa ff ff 	mov    %rax,-0x580(%rbp)
   12cf1:	48 8d 05 ac f3 00 00 	lea    0xf3ac(%rip),%rax        # 220a4 <g_88>
   12cf8:	48 89 85 88 fa ff ff 	mov    %rax,-0x578(%rbp)
   12cff:	c7 85 c4 ee ff ff 00 	movl   $0x0,-0x113c(%rbp)
   12d06:	00 00 00 
   12d09:	eb 1b                	jmp    12d26 <func_25+0x14b1>
   12d0b:	8b 85 c4 ee ff ff    	mov    -0x113c(%rbp),%eax
   12d11:	48 98                	cltq   
   12d13:	48 c7 84 c5 c0 f2 ff 	movq   $0x0,-0xd40(%rbp,%rax,8)
   12d1a:	ff 00 00 00 00 
   12d1f:	83 85 c4 ee ff ff 01 	addl   $0x1,-0x113c(%rbp)
   12d26:	83 bd c4 ee ff ff 01 	cmpl   $0x1,-0x113c(%rbp)
   12d2d:	7e dc                	jle    12d0b <func_25+0x1496>
   12d2f:	c7 85 8c ee ff ff 17 	movl   $0xebb45417,-0x1174(%rbp)
   12d36:	54 b4 eb 
   12d39:	48 8b 85 10 ef ff ff 	mov    -0x10f0(%rbp),%rax
   12d40:	8b 18                	mov    (%rax),%ebx
   12d42:	44 0f bf a5 6c ee ff 	movswl -0x1194(%rbp),%r12d
   12d49:	ff 
   12d4a:	48 8b 85 38 f0 ff ff 	mov    -0xfc8(%rbp),%rax
   12d51:	48 8b 00             	mov    (%rax),%rax
   12d54:	48 8d 15 3f f3 00 00 	lea    0xf33f(%rip),%rdx        # 2209a <g_63+0x2>
   12d5b:	48 89 10             	mov    %rdx,(%rax)
   12d5e:	48 8b 00             	mov    (%rax),%rax
   12d61:	48 8d 15 30 f7 00 00 	lea    0xf730(%rip),%rdx        # 22498 <g_779>
   12d68:	48 39 d0             	cmp    %rdx,%rax
   12d6b:	0f 84 49 01 00 00    	je     12eba <func_25+0x1645>
   12d71:	44 0f bf ad 6c ee ff 	movswl -0x1194(%rbp),%r13d
   12d78:	ff 
   12d79:	48 8b 85 10 ef ff ff 	mov    -0x10f0(%rbp),%rax
   12d80:	8b 00                	mov    (%rax),%eax
   12d82:	4c 63 f0             	movslq %eax,%r14
   12d85:	48 8d 05 fc 1d 01 00 	lea    0x11dfc(%rip),%rax        # 24b88 <g_974>
   12d8c:	48 8b 00             	mov    (%rax),%rax
   12d8f:	48 8b 00             	mov    (%rax),%rax
   12d92:	89 c1                	mov    %eax,%ecx
   12d94:	0f b7 05 2d f7 00 00 	movzwl 0xf72d(%rip),%eax        # 224c8 <g_1199>
   12d9b:	66 85 c0             	test   %ax,%ax
   12d9e:	0f 95 c0             	setne  %al
   12da1:	89 c2                	mov    %eax,%edx
   12da3:	48 8b 85 c8 ef ff ff 	mov    -0x1038(%rbp),%rax
   12daa:	88 10                	mov    %dl,(%rax)
   12dac:	48 8b 85 c8 ef ff ff 	mov    -0x1038(%rbp),%rax
   12db3:	0f b6 00             	movzbl (%rax),%eax
   12db6:	0f b6 c0             	movzbl %al,%eax
   12db9:	89 85 58 ef ff ff    	mov    %eax,-0x10a8(%rbp)
   12dbf:	8b 85 58 ef ff ff    	mov    -0x10a8(%rbp),%eax
   12dc5:	89 85 98 ee ff ff    	mov    %eax,-0x1168(%rbp)
   12dcb:	8b 85 98 ee ff ff    	mov    -0x1168(%rbp),%eax
   12dd1:	89 c2                	mov    %eax,%edx
   12dd3:	8b 05 eb f6 00 00    	mov    0xf6eb(%rip),%eax        # 224c4 <g_1167>
   12dd9:	09 d0                	or     %edx,%eax
   12ddb:	09 c8                	or     %ecx,%eax
   12ddd:	66 35 73 2f          	xor    $0x2f73,%ax
   12de1:	98                   	cwtl   
   12de2:	be 02 00 00 00       	mov    $0x2,%esi
   12de7:	89 c7                	mov    %eax,%edi
   12de9:	e8 f3 66 ff ff       	callq  94e1 <safe_lshift_func_int16_t_s_u>
   12dee:	0f b7 85 6c ee ff ff 	movzwl -0x1194(%rbp),%eax
   12df5:	88 85 11 f4 ff ff    	mov    %al,-0xbef(%rbp)
   12dfb:	0f b7 85 6c ee ff ff 	movzwl -0x1194(%rbp),%eax
   12e02:	0f be c0             	movsbl %al,%eax
   12e05:	89 c7                	mov    %eax,%edi
   12e07:	e8 b3 63 ff ff       	callq  91bf <safe_unary_minus_func_int8_t_s>
   12e0c:	66 0f be d0          	movsbw %al,%dx
   12e10:	48 8b 85 40 f0 ff ff 	mov    -0xfc0(%rbp),%rax
   12e17:	66 89 10             	mov    %dx,(%rax)
   12e1a:	48 8b 85 40 f0 ff ff 	mov    -0xfc0(%rbp),%rax
   12e21:	0f b7 00             	movzwl (%rax),%eax
   12e24:	98                   	cwtl   
   12e25:	09 85 b0 ee ff ff    	or     %eax,-0x1150(%rbp)
   12e2b:	48 8b 05 46 31 01 00 	mov    0x13146(%rip),%rax        # 25f78 <g_545>
   12e32:	8b 85 90 ee ff ff    	mov    -0x1170(%rbp),%eax
   12e38:	98                   	cwtl   
   12e39:	be 01 00 00 00       	mov    $0x1,%esi
   12e3e:	89 c7                	mov    %eax,%edi
   12e40:	e8 6e 65 ff ff       	callq  93b3 <safe_add_func_int16_t_s_s>
   12e45:	48 0f bf c0          	movswq %ax,%rax
   12e49:	4c 89 f6             	mov    %r14,%rsi
   12e4c:	48 89 c7             	mov    %rax,%rdi
   12e4f:	e8 a3 6b ff ff       	callq  99f7 <safe_div_func_int64_t_s_s>
   12e54:	0f b7 c0             	movzwl %ax,%eax
   12e57:	89 c6                	mov    %eax,%esi
   12e59:	bf 03 00 00 00       	mov    $0x3,%edi
   12e5e:	e8 bc 6e ff ff       	callq  9d1f <safe_sub_func_uint16_t_u_u>
   12e63:	66 85 c0             	test   %ax,%ax
   12e66:	75 13                	jne    12e7b <func_25+0x1606>
   12e68:	66 83 bd 6c ee ff ff 	cmpw   $0x0,-0x1194(%rbp)
   12e6f:	00 
   12e70:	75 09                	jne    12e7b <func_25+0x1606>
   12e72:	80 bd 82 ee ff ff 00 	cmpb   $0x0,-0x117e(%rbp)
   12e79:	74 07                	je     12e82 <func_25+0x160d>
   12e7b:	b8 01 00 00 00       	mov    $0x1,%eax
   12e80:	eb 05                	jmp    12e87 <func_25+0x1612>
   12e82:	b8 00 00 00 00       	mov    $0x0,%eax
   12e87:	0f b6 c0             	movzbl %al,%eax
   12e8a:	44 89 ee             	mov    %r13d,%esi
   12e8d:	89 c7                	mov    %eax,%edi
   12e8f:	e8 2a 6e ff ff       	callq  9cbe <safe_rshift_func_uint8_t_u_u>
   12e94:	0f b6 d0             	movzbl %al,%edx
   12e97:	48 8b 85 38 ef ff ff 	mov    -0x10c8(%rbp),%rax
   12e9e:	8b 00                	mov    (%rax),%eax
   12ea0:	39 c2                	cmp    %eax,%edx
   12ea2:	0f 95 c0             	setne  %al
   12ea5:	0f b6 d0             	movzbl %al,%edx
   12ea8:	0f bf 85 6c ee ff ff 	movswl -0x1194(%rbp),%eax
   12eaf:	39 c2                	cmp    %eax,%edx
   12eb1:	74 07                	je     12eba <func_25+0x1645>
   12eb3:	b8 01 00 00 00       	mov    $0x1,%eax
   12eb8:	eb 05                	jmp    12ebf <func_25+0x164a>
   12eba:	b8 00 00 00 00       	mov    $0x0,%eax
   12ebf:	66 0b 85 6c ee ff ff 	or     -0x1194(%rbp),%ax
   12ec6:	98                   	cwtl   
   12ec7:	44 89 e6             	mov    %r12d,%esi
   12eca:	89 c7                	mov    %eax,%edi
   12ecc:	e8 e2 64 ff ff       	callq  93b3 <safe_add_func_int16_t_s_s>
   12ed1:	98                   	cwtl   
   12ed2:	89 de                	mov    %ebx,%esi
   12ed4:	89 c7                	mov    %eax,%edi
   12ed6:	e8 2a 67 ff ff       	callq  9605 <safe_sub_func_int32_t_s_s>
   12edb:	3d 47 56 cf 21       	cmp    $0x21cf5647,%eax
   12ee0:	0f 9e c0             	setle  %al
   12ee3:	0f b6 d0             	movzbl %al,%edx
   12ee6:	8b 85 a4 ee ff ff    	mov    -0x115c(%rbp),%eax
   12eec:	39 c2                	cmp    %eax,%edx
   12eee:	0f 9f c0             	setg   %al
   12ef1:	0f b6 c0             	movzbl %al,%eax
   12ef4:	be 52 00 00 00       	mov    $0x52,%esi
   12ef9:	89 c7                	mov    %eax,%edi
   12efb:	e8 12 63 ff ff       	callq  9212 <safe_mul_func_int8_t_s_s>
   12f00:	48 0f be c0          	movsbq %al,%rax
   12f04:	48 89 c7             	mov    %rax,%rdi
   12f07:	e8 0d 71 ff ff       	callq  a019 <safe_unary_minus_func_uint64_t_u>
   12f0c:	89 85 14 f2 ff ff    	mov    %eax,-0xdec(%rbp)
   12f12:	8b 85 a4 ee ff ff    	mov    -0x115c(%rbp),%eax
   12f18:	0f b6 c0             	movzbl %al,%eax
   12f1b:	be 02 00 00 00       	mov    $0x2,%esi
   12f20:	89 c7                	mov    %eax,%edi
   12f22:	e8 25 6d ff ff       	callq  9c4c <safe_lshift_func_uint8_t_u_u>
   12f27:	8b 95 40 f2 ff ff    	mov    -0xdc0(%rbp),%edx
   12f2d:	8b 85 58 ef ff ff    	mov    -0x10a8(%rbp),%eax
   12f33:	31 d0                	xor    %edx,%eax
   12f35:	89 85 40 f2 ff ff    	mov    %eax,-0xdc0(%rbp)
   12f3b:	8b 85 40 f2 ff ff    	mov    -0xdc0(%rbp),%eax
   12f41:	89 85 8c ee ff ff    	mov    %eax,-0x1174(%rbp)
   12f47:	48 8b 05 aa 1b 01 00 	mov    0x11baa(%rip),%rax        # 24af8 <g_654>
   12f4e:	48 8b 10             	mov    (%rax),%rdx
   12f51:	48 8b 85 b8 ef ff ff 	mov    -0x1048(%rbp),%rax
   12f58:	48 8b 00             	mov    (%rax),%rax
   12f5b:	48 39 c2             	cmp    %rax,%rdx
   12f5e:	0f 95 c0             	setne  %al
   12f61:	0f b6 c0             	movzbl %al,%eax
   12f64:	be 01 00 00 00       	mov    $0x1,%esi
   12f69:	89 c7                	mov    %eax,%edi
   12f6b:	e8 7e 63 ff ff       	callq  92ee <safe_lshift_func_int8_t_s_u>
   12f70:	0f be c0             	movsbl %al,%eax
   12f73:	89 85 a4 ee ff ff    	mov    %eax,-0x115c(%rbp)
   12f79:	66 83 bd 6c ee ff ff 	cmpw   $0x0,-0x1194(%rbp)
   12f80:	00 
   12f81:	0f 85 d2 18 00 00    	jne    14859 <func_25+0x2fe4>
   12f87:	0f b6 9d 82 ee ff ff 	movzbl -0x117e(%rbp),%ebx
   12f8e:	48 8b 85 38 f0 ff ff 	mov    -0xfc8(%rbp),%rax
   12f95:	48 c7 00 00 00 00 00 	movq   $0x0,(%rax)
   12f9c:	48 8b 05 4d 1b 01 00 	mov    0x11b4d(%rip),%rax        # 24af0 <g_655>
   12fa3:	0f b6 00             	movzbl (%rax),%eax
   12fa6:	0f be d0             	movsbl %al,%edx
   12fa9:	48 8b 0d 40 1d 01 00 	mov    0x11d40(%rip),%rcx        # 24cf0 <g_1216>
   12fb0:	48 8b 85 68 f0 ff ff 	mov    -0xf98(%rbp),%rax
   12fb7:	48 89 08             	mov    %rcx,(%rax)
   12fba:	48 8b 85 68 f0 ff ff 	mov    -0xf98(%rbp),%rax
   12fc1:	48 8b 00             	mov    (%rax),%rax
   12fc4:	48 8d 0d fd 1a 01 00 	lea    0x11afd(%rip),%rcx        # 24ac8 <g_411>
   12fcb:	48 39 c8             	cmp    %rcx,%rax
   12fce:	0f 95 c0             	setne  %al
   12fd1:	0f b6 c0             	movzbl %al,%eax
   12fd4:	89 d6                	mov    %edx,%esi
   12fd6:	89 c7                	mov    %eax,%edi
   12fd8:	e8 35 62 ff ff       	callq  9212 <safe_mul_func_int8_t_s_s>
   12fdd:	48 8b 05 44 30 01 00 	mov    0x13044(%rip),%rax        # 26028 <g_1219>
   12fe4:	48 85 c0             	test   %rax,%rax
   12fe7:	0f 95 c0             	setne  %al
   12fea:	89 c2                	mov    %eax,%edx
   12fec:	8b 85 a4 ee ff ff    	mov    -0x115c(%rbp),%eax
   12ff2:	31 c2                	xor    %eax,%edx
   12ff4:	48 8b 05 f5 1a 01 00 	mov    0x11af5(%rip),%rax        # 24af0 <g_655>
   12ffb:	88 10                	mov    %dl,(%rax)
   12ffd:	0f b6 00             	movzbl (%rax),%eax
   13000:	0f b6 c0             	movzbl %al,%eax
   13003:	83 e0 30             	and    $0x30,%eax
   13006:	48 85 c0             	test   %rax,%rax
   13009:	74 0b                	je     13016 <func_25+0x17a1>
   1300b:	48 8b 85 10 ef ff ff 	mov    -0x10f0(%rbp),%rax
   13012:	8b 00                	mov    (%rax),%eax
   13014:	85 c0                	test   %eax,%eax
   13016:	48 8b 85 b8 ef ff ff 	mov    -0x1048(%rbp),%rax
   1301d:	48 8b 00             	mov    (%rax),%rax
   13020:	0f b7 95 6c ee ff ff 	movzwl -0x1194(%rbp),%edx
   13027:	88 10                	mov    %dl,(%rax)
   13029:	0f b6 10             	movzbl (%rax),%edx
   1302c:	48 8b 05 c5 1a 01 00 	mov    0x11ac5(%rip),%rax        # 24af8 <g_654>
   13033:	48 8b 00             	mov    (%rax),%rax
   13036:	0f b6 00             	movzbl (%rax),%eax
   13039:	09 c2                	or     %eax,%edx
   1303b:	48 8b 05 46 1b 01 00 	mov    0x11b46(%rip),%rax        # 24b88 <g_974>
   13042:	0f b6 d2             	movzbl %dl,%edx
   13045:	48 89 10             	mov    %rdx,(%rax)
   13048:	48 8b 05 79 1a 01 00 	mov    0x11a79(%rip),%rax        # 24ac8 <g_411>
   1304f:	0f b7 00             	movzwl (%rax),%eax
   13052:	66 39 85 6c ee ff ff 	cmp    %ax,-0x1194(%rbp)
   13059:	0f 95 c0             	setne  %al
   1305c:	0f b6 c0             	movzbl %al,%eax
   1305f:	89 de                	mov    %ebx,%esi
   13061:	89 c7                	mov    %eax,%edi
   13063:	e8 4b 63 ff ff       	callq  93b3 <safe_add_func_int16_t_s_s>
   13068:	48 8b 95 78 f0 ff ff 	mov    -0xf88(%rbp),%rdx
   1306f:	8b 12                	mov    (%rdx),%edx
   13071:	98                   	cwtl   
   13072:	31 c2                	xor    %eax,%edx
   13074:	48 8b 85 78 f0 ff ff 	mov    -0xf88(%rbp),%rax
   1307b:	89 10                	mov    %edx,(%rax)
   1307d:	48 8b 85 38 ef ff ff 	mov    -0x10c8(%rbp),%rax
   13084:	8b 00                	mov    (%rax),%eax
   13086:	85 c0                	test   %eax,%eax
   13088:	0f 85 a2 17 00 00    	jne    14830 <func_25+0x2fbb>
   1308e:	48 8b 05 fb 1a 01 00 	mov    0x11afb(%rip),%rax        # 24b90 <g_972>
   13095:	48 8b 00             	mov    (%rax),%rax
   13098:	48 8b 10             	mov    (%rax),%rdx
   1309b:	48 8d 85 28 ef ff ff 	lea    -0x10d8(%rbp),%rax
   130a2:	48 39 c2             	cmp    %rax,%rdx
   130a5:	0f 95 c0             	setne  %al
   130a8:	44 0f b6 f0          	movzbl %al,%r14d
   130ac:	48 8b 85 38 ef ff ff 	mov    -0x10c8(%rbp),%rax
   130b3:	8b 00                	mov    (%rax),%eax
   130b5:	0f b7 d8             	movzwl %ax,%ebx
   130b8:	48 8b 05 31 1c 01 00 	mov    0x11c31(%rip),%rax        # 24cf0 <g_1216>
   130bf:	48 8b 00             	mov    (%rax),%rax
   130c2:	0f b7 00             	movzwl (%rax),%eax
   130c5:	44 0f b7 e0          	movzwl %ax,%r12d
   130c9:	48 8b 05 38 f0 00 00 	mov    0xf038(%rip),%rax        # 22108 <g_538>
   130d0:	44 0f b6 e8          	movzbl %al,%r13d
   130d4:	66 83 bd 6c ee ff ff 	cmpw   $0x0,-0x1194(%rbp)
   130db:	00 
   130dc:	75 35                	jne    13113 <func_25+0x189e>
   130de:	0f b7 85 6c ee ff ff 	movzwl -0x1194(%rbp),%eax
   130e5:	0f b6 d0             	movzbl %al,%edx
   130e8:	48 8d 05 99 1a 01 00 	lea    0x11a99(%rip),%rax        # 24b88 <g_974>
   130ef:	48 8b 00             	mov    (%rax),%rax
   130f2:	48 8b 00             	mov    (%rax),%rax
   130f5:	48 85 c0             	test   %rax,%rax
   130f8:	0f 95 c0             	setne  %al
   130fb:	0f b6 c0             	movzbl %al,%eax
   130fe:	89 d6                	mov    %edx,%esi
   13100:	89 c7                	mov    %eax,%edi
   13102:	e8 a7 6a ff ff       	callq  9bae <safe_mod_func_uint8_t_u_u>
   13107:	0f b6 d0             	movzbl %al,%edx
   1310a:	0f bf 85 6c ee ff ff 	movswl -0x1194(%rbp),%eax
   13111:	39 c2                	cmp    %eax,%edx
   13113:	44 89 ee             	mov    %r13d,%esi
   13116:	bf ff 00 00 00       	mov    $0xff,%edi
   1311b:	e8 73 6a ff ff       	callq  9b93 <safe_mul_func_uint8_t_u_u>
   13120:	44 89 e6             	mov    %r12d,%esi
   13123:	bf 01 00 00 00       	mov    $0x1,%edi
   13128:	e8 10 6c ff ff       	callq  9d3d <safe_mul_func_uint16_t_u_u>
   1312d:	0f b7 c0             	movzwl %ax,%eax
   13130:	89 de                	mov    %ebx,%esi
   13132:	89 c7                	mov    %eax,%edi
   13134:	e8 04 6c ff ff       	callq  9d3d <safe_mul_func_uint16_t_u_u>
   13139:	0f b7 d0             	movzwl %ax,%edx
   1313c:	48 8b 05 9d 1b 01 00 	mov    0x11b9d(%rip),%rax        # 24ce0 <g_1125>
   13143:	44 09 f2             	or     %r14d,%edx
   13146:	89 10                	mov    %edx,(%rax)
   13148:	48 8b 95 30 ef ff ff 	mov    -0x10d0(%rbp),%rdx
   1314f:	48 8b 85 50 f0 ff ff 	mov    -0xfb0(%rbp),%rax
   13156:	48 89 10             	mov    %rdx,(%rax)
   13159:	48 8b 05 78 19 01 00 	mov    0x11978(%rip),%rax        # 24ad8 <g_463>
   13160:	48 8b 00             	mov    (%rax),%rax
   13163:	48 8b 00             	mov    (%rax),%rax
   13166:	48 85 c0             	test   %rax,%rax
   13169:	75 07                	jne    13172 <func_25+0x18fd>
   1316b:	83 bd b0 ee ff ff 00 	cmpl   $0x0,-0x1150(%rbp)
   13172:	66 83 bd 86 ee ff ff 	cmpw   $0x0,-0x117a(%rbp)
   13179:	00 
   1317a:	74 07                	je     13183 <func_25+0x190e>
   1317c:	b8 01 00 00 00       	mov    $0x1,%eax
   13181:	eb 05                	jmp    13188 <func_25+0x1913>
   13183:	b8 00 00 00 00       	mov    $0x0,%eax
   13188:	85 c0                	test   %eax,%eax
   1318a:	75 0b                	jne    13197 <func_25+0x1922>
   1318c:	48 8b 85 38 ef ff ff 	mov    -0x10c8(%rbp),%rax
   13193:	8b 00                	mov    (%rax),%eax
   13195:	85 c0                	test   %eax,%eax
   13197:	c7 85 8c ee ff ff fd 	movl   $0xfffffffd,-0x1174(%rbp)
   1319e:	ff ff ff 
   131a1:	8b 85 8c ee ff ff    	mov    -0x1174(%rbp),%eax
   131a7:	48 63 d0             	movslq %eax,%rdx
   131aa:	48 8b 05 d7 19 01 00 	mov    0x119d7(%rip),%rax        # 24b88 <g_974>
   131b1:	48 8b 00             	mov    (%rax),%rax
   131b4:	48 39 c2             	cmp    %rax,%rdx
   131b7:	0f 9f c0             	setg   %al
   131ba:	0f b6 d0             	movzbl %al,%edx
   131bd:	48 8b 85 10 ef ff ff 	mov    -0x10f0(%rbp),%rax
   131c4:	8b 00                	mov    (%rax),%eax
   131c6:	39 c2                	cmp    %eax,%edx
   131c8:	0f 95 c0             	setne  %al
   131cb:	0f b6 c0             	movzbl %al,%eax
   131ce:	89 85 b0 ee ff ff    	mov    %eax,-0x1150(%rbp)
   131d4:	e9 d5 15 00 00       	jmpq   147ae <func_25+0x2f39>
   131d9:	c6 85 7f ee ff ff 09 	movb   $0x9,-0x1181(%rbp)
   131e0:	c7 85 9c ee ff ff 69 	movl   $0x189f8c69,-0x1164(%rbp)
   131e7:	8c 9f 18 
   131ea:	c7 85 a0 ee ff ff f6 	movl   $0xfffffff6,-0x1160(%rbp)
   131f1:	ff ff ff 
   131f4:	c7 85 a4 ee ff ff ff 	movl   $0xffffffff,-0x115c(%rbp)
   131fb:	ff ff ff 
   131fe:	c7 85 ec ee ff ff ff 	movl   $0xffffffff,-0x1114(%rbp)
   13205:	ff ff ff 
   13208:	48 8b 85 38 ef ff ff 	mov    -0x10c8(%rbp),%rax
   1320f:	8b 00                	mov    (%rax),%eax
   13211:	98                   	cwtl   
   13212:	89 c6                	mov    %eax,%esi
   13214:	bf 2c 0d 00 00       	mov    $0xd2c,%edi
   13219:	e8 b5 61 ff ff       	callq  93d3 <safe_sub_func_int16_t_s_s>
   1321e:	48 8b 05 cb 18 01 00 	mov    0x118cb(%rip),%rax        # 24af0 <g_655>
   13225:	0f b6 00             	movzbl (%rax),%eax
   13228:	0f b6 d0             	movzbl %al,%edx
   1322b:	0f bf 85 6c ee ff ff 	movswl -0x1194(%rbp),%eax
   13232:	89 85 98 ee ff ff    	mov    %eax,-0x1168(%rbp)
   13238:	8b 85 98 ee ff ff    	mov    -0x1168(%rbp),%eax
   1323e:	39 c2                	cmp    %eax,%edx
   13240:	48 8b 85 90 f2 ff ff 	mov    -0xd70(%rbp),%rax
   13247:	48 85 c0             	test   %rax,%rax
   1324a:	48 8b 85 78 ef ff ff 	mov    -0x1088(%rbp),%rax
   13251:	48 3b 85 d8 ef ff ff 	cmp    -0x1028(%rbp),%rax
   13258:	48 0f bf 85 6c ee ff 	movswq -0x1194(%rbp),%rax
   1325f:	ff 
   13260:	48 ba e1 ec f8 ec e2 	movabs $0xaa42dce2ecf8ece1,%rdx
   13267:	dc 42 aa 
   1326a:	48 39 d0             	cmp    %rdx,%rax
   1326d:	0f 87 99 00 00 00    	ja     1330c <func_25+0x1a97>
   13273:	48 8d 85 40 ef ff ff 	lea    -0x10c0(%rbp),%rax
   1327a:	48 89 85 08 f0 ff ff 	mov    %rax,-0xff8(%rbp)
   13281:	48 8d 05 18 ee 00 00 	lea    0xee18(%rip),%rax        # 220a0 <g_63+0x8>
   13288:	48 89 85 10 f0 ff ff 	mov    %rax,-0xff0(%rbp)
   1328f:	48 8d 05 7a 14 01 00 	lea    0x1147a(%rip),%rax        # 24710 <g_310+0x3d0>
   13296:	48 39 85 80 ef ff ff 	cmp    %rax,-0x1080(%rbp)
   1329d:	0f 95 c0             	setne  %al
   132a0:	0f b6 d0             	movzbl %al,%edx
   132a3:	48 8b 85 08 f0 ff ff 	mov    -0xff8(%rbp),%rax
   132aa:	48 8b 8d c0 ef ff ff 	mov    -0x1040(%rbp),%rcx
   132b1:	48 89 08             	mov    %rcx,(%rax)
   132b4:	48 8b 85 08 f0 ff ff 	mov    -0xff8(%rbp),%rax
   132bb:	48 8b 00             	mov    (%rax),%rax
   132be:	48 39 85 10 f0 ff ff 	cmp    %rax,-0xff0(%rbp)
   132c5:	0f 95 c0             	setne  %al
   132c8:	0f b6 c0             	movzbl %al,%eax
   132cb:	89 d6                	mov    %edx,%esi
   132cd:	89 c7                	mov    %eax,%edi
   132cf:	e8 00 5f ff ff       	callq  91d4 <safe_add_func_int8_t_s_s>
   132d4:	0f be d0             	movsbl %al,%edx
   132d7:	8b 85 8c ee ff ff    	mov    -0x1174(%rbp),%eax
   132dd:	09 d0                	or     %edx,%eax
   132df:	89 85 8c ee ff ff    	mov    %eax,-0x1174(%rbp)
   132e5:	66 83 bd 6c ee ff ff 	cmpw   $0x0,-0x1194(%rbp)
   132ec:	00 
   132ed:	0f 85 69 15 00 00    	jne    1485c <func_25+0x2fe7>
   132f3:	48 8b 05 9e 18 01 00 	mov    0x1189e(%rip),%rax        # 24b98 <g_1030>
   132fa:	48 8b 00             	mov    (%rax),%rax
   132fd:	8b 00                	mov    (%rax),%eax
   132ff:	85 c0                	test   %eax,%eax
   13301:	0f 84 2a 02 00 00    	je     13531 <func_25+0x1cbc>
   13307:	e9 51 15 00 00       	jmpq   1485d <func_25+0x2fe8>
   1330c:	48 8d 05 87 ed 00 00 	lea    0xed87(%rip),%rax        # 2209a <g_63+0x2>
   13313:	48 89 85 e0 ef ff ff 	mov    %rax,-0x1020(%rbp)
   1331a:	48 c7 85 e8 ef ff ff 	movq   $0x0,-0x1018(%rbp)
   13321:	00 00 00 00 
   13325:	48 8d 05 78 ed 00 00 	lea    0xed78(%rip),%rax        # 220a4 <g_88>
   1332c:	48 89 85 f0 ef ff ff 	mov    %rax,-0x1010(%rbp)
   13333:	48 8d 85 90 ee ff ff 	lea    -0x1170(%rbp),%rax
   1333a:	48 89 85 f8 ef ff ff 	mov    %rax,-0x1008(%rbp)
   13341:	48 8d 85 9c ee ff ff 	lea    -0x1164(%rbp),%rax
   13348:	48 89 85 00 f0 ff ff 	mov    %rax,-0x1000(%rbp)
   1334f:	c7 85 c8 ee ff ff 00 	movl   $0x0,-0x1138(%rbp)
   13356:	00 00 00 
   13359:	eb 1e                	jmp    13379 <func_25+0x1b04>
   1335b:	8b 85 c8 ee ff ff    	mov    -0x1138(%rbp),%eax
   13361:	48 98                	cltq   
   13363:	48 8d 95 8c ee ff ff 	lea    -0x1174(%rbp),%rdx
   1336a:	48 89 94 c5 50 f8 ff 	mov    %rdx,-0x7b0(%rbp,%rax,8)
   13371:	ff 
   13372:	83 85 c8 ee ff ff 01 	addl   $0x1,-0x1138(%rbp)
   13379:	83 bd c8 ee ff ff 01 	cmpl   $0x1,-0x1138(%rbp)
   13380:	7e d9                	jle    1335b <func_25+0x1ae6>
   13382:	8b 85 90 ee ff ff    	mov    -0x1170(%rbp),%eax
   13388:	0f be d8             	movsbl %al,%ebx
   1338b:	48 8b 85 88 ef ff ff 	mov    -0x1078(%rbp),%rax
   13392:	48 3b 85 e0 ef ff ff 	cmp    -0x1020(%rbp),%rax
   13399:	0f 95 c0             	setne  %al
   1339c:	0f b6 c0             	movzbl %al,%eax
   1339f:	be 08 00 00 00       	mov    $0x8,%esi
   133a4:	89 c7                	mov    %eax,%edi
   133a6:	e8 03 68 ff ff       	callq  9bae <safe_mod_func_uint8_t_u_u>
   133ab:	0f be c0             	movsbl %al,%eax
   133ae:	89 de                	mov    %ebx,%esi
   133b0:	89 c7                	mov    %eax,%edi
   133b2:	e8 7a 5e ff ff       	callq  9231 <safe_mod_func_int8_t_s_s>
   133b7:	0f b6 c0             	movzbl %al,%eax
   133ba:	25 88 00 00 00       	and    $0x88,%eax
   133bf:	89 c2                	mov    %eax,%edx
   133c1:	83 bd b8 ee ff ff 00 	cmpl   $0x0,-0x1148(%rbp)
   133c8:	74 18                	je     133e2 <func_25+0x1b6d>
   133ca:	48 8b 05 27 17 01 00 	mov    0x11727(%rip),%rax        # 24af8 <g_654>
   133d1:	48 8b 00             	mov    (%rax),%rax
   133d4:	0f b6 00             	movzbl (%rax),%eax
   133d7:	84 c0                	test   %al,%al
   133d9:	74 07                	je     133e2 <func_25+0x1b6d>
   133db:	b8 01 00 00 00       	mov    $0x1,%eax
   133e0:	eb 05                	jmp    133e7 <func_25+0x1b72>
   133e2:	b8 00 00 00 00       	mov    $0x0,%eax
   133e7:	48 63 c8             	movslq %eax,%rcx
   133ea:	48 8b 05 ff ec 00 00 	mov    0xecff(%rip),%rax        # 220f0 <g_247>
   133f1:	48 39 c1             	cmp    %rax,%rcx
   133f4:	0f 9f c0             	setg   %al
   133f7:	89 c1                	mov    %eax,%ecx
   133f9:	0f b7 85 6c ee ff ff 	movzwl -0x1194(%rbp),%eax
   13400:	31 c8                	xor    %ecx,%eax
   13402:	0f b6 c0             	movzbl %al,%eax
   13405:	89 d6                	mov    %edx,%esi
   13407:	89 c7                	mov    %eax,%edi
   13409:	e8 6a 67 ff ff       	callq  9b78 <safe_sub_func_uint8_t_u_u>
   1340e:	0f b6 c0             	movzbl %al,%eax
   13411:	48 89 c6             	mov    %rax,%rsi
   13414:	bf 03 00 00 00       	mov    $0x3,%edi
   13419:	e8 8a 64 ff ff       	callq  98a8 <safe_sub_func_int64_t_s_s>
   1341e:	89 c2                	mov    %eax,%edx
   13420:	8b 05 1e ec 00 00    	mov    0xec1e(%rip),%eax        # 22044 <g_39>
   13426:	09 d0                	or     %edx,%eax
   13428:	89 05 16 ec 00 00    	mov    %eax,0xec16(%rip)        # 22044 <g_39>
   1342e:	66 83 bd 6c ee ff ff 	cmpw   $0x0,-0x1194(%rbp)
   13435:	00 
   13436:	75 13                	jne    1344b <func_25+0x1bd6>
   13438:	48 8b 05 a9 18 01 00 	mov    0x118a9(%rip),%rax        # 24ce8 <g_1217>
   1343f:	66 c7 00 00 00       	movw   $0x0,(%rax)
   13444:	bb 00 00 00 00       	mov    $0x0,%ebx
   13449:	eb 05                	jmp    13450 <func_25+0x1bdb>
   1344b:	bb 01 00 00 00       	mov    $0x1,%ebx
   13450:	0f b6 85 7f ee ff ff 	movzbl -0x1181(%rbp),%eax
   13457:	0f b6 c0             	movzbl %al,%eax
   1345a:	89 c6                	mov    %eax,%esi
   1345c:	bf b3 00 00 00       	mov    $0xb3,%edi
   13461:	e8 48 67 ff ff       	callq  9bae <safe_mod_func_uint8_t_u_u>
   13466:	0f b6 c0             	movzbl %al,%eax
   13469:	89 de                	mov    %ebx,%esi
   1346b:	89 c7                	mov    %eax,%edi
   1346d:	e8 93 67 ff ff       	callq  9c05 <safe_lshift_func_uint8_t_u_s>
   13472:	8b 05 c8 eb 00 00    	mov    0xebc8(%rip),%eax        # 22040 <g_2+0x10>
   13478:	0f be c0             	movsbl %al,%eax
   1347b:	be 03 00 00 00       	mov    $0x3,%esi
   13480:	89 c7                	mov    %eax,%edi
   13482:	e8 1a 5e ff ff       	callq  92a1 <safe_lshift_func_int8_t_s_s>
   13487:	8b 05 4f ef 00 00    	mov    0xef4f(%rip),%eax        # 223dc <g_546+0x2bc>
   1348d:	85 c0                	test   %eax,%eax
   1348f:	0f 95 c0             	setne  %al
   13492:	0f b6 d0             	movzbl %al,%edx
   13495:	48 8b 05 84 0e 01 00 	mov    0x10e84(%rip),%rax        # 24320 <g_214>
   1349c:	48 8b 00             	mov    (%rax),%rax
   1349f:	8b 00                	mov    (%rax),%eax
   134a1:	89 d6                	mov    %edx,%esi
   134a3:	89 c7                	mov    %eax,%edi
   134a5:	e8 5b 61 ff ff       	callq  9605 <safe_sub_func_int32_t_s_s>
   134aa:	66 83 bd 6c ee ff ff 	cmpw   $0x0,-0x1194(%rbp)
   134b1:	00 
   134b2:	0f 95 c2             	setne  %dl
   134b5:	48 8d 05 cc 16 01 00 	lea    0x116cc(%rip),%rax        # 24b88 <g_974>
   134bc:	48 8b 00             	mov    (%rax),%rax
   134bf:	0f b6 d2             	movzbl %dl,%edx
   134c2:	48 89 10             	mov    %rdx,(%rax)
   134c5:	48 8b 00             	mov    (%rax),%rax
   134c8:	48 be 64 2c f3 03 ad 	movabs $0x8b2ccdad03f32c64,%rsi
   134cf:	cd 2c 8b 
   134d2:	48 89 c7             	mov    %rax,%rdi
   134d5:	e8 67 63 ff ff       	callq  9841 <safe_add_func_int64_t_s_s>
   134da:	98                   	cwtl   
   134db:	be ff ff ff ff       	mov    $0xffffffff,%esi
   134e0:	89 c7                	mov    %eax,%edi
   134e2:	e8 6e 5f ff ff       	callq  9455 <safe_div_func_int16_t_s_s>
   134e7:	66 85 c0             	test   %ax,%ax
   134ea:	75 0b                	jne    134f7 <func_25+0x1c82>
   134ec:	0f b6 85 7f ee ff ff 	movzbl -0x1181(%rbp),%eax
   134f3:	84 c0                	test   %al,%al
   134f5:	74 07                	je     134fe <func_25+0x1c89>
   134f7:	b8 01 00 00 00       	mov    $0x1,%eax
   134fc:	eb 05                	jmp    13503 <func_25+0x1c8e>
   134fe:	b8 00 00 00 00       	mov    $0x0,%eax
   13503:	83 f8 01             	cmp    $0x1,%eax
   13506:	0f 97 c2             	seta   %dl
   13509:	48 8b 05 d0 17 01 00 	mov    0x117d0(%rip),%rax        # 24ce0 <g_1125>
   13510:	0f b6 d2             	movzbl %dl,%edx
   13513:	89 10                	mov    %edx,(%rax)
   13515:	48 8b 85 f0 ef ff ff 	mov    -0x1010(%rbp),%rax
   1351c:	c7 00 ff ff ff ff    	movl   $0xffffffff,(%rax)
   13522:	8b 85 dc f3 ff ff    	mov    -0xc24(%rbp),%eax
   13528:	83 c0 01             	add    $0x1,%eax
   1352b:	89 85 dc f3 ff ff    	mov    %eax,-0xc24(%rbp)
   13531:	66 c7 05 60 ef 00 00 	movw   $0x0,0xef60(%rip)        # 2249a <g_860>
   13538:	00 00 
   1353a:	e9 be 00 00 00       	jmpq   135fd <func_25+0x1d88>
   1353f:	48 8d 05 fe ea 00 00 	lea    0xeafe(%rip),%rax        # 22044 <g_39>
   13546:	48 89 85 18 f0 ff ff 	mov    %rax,-0xfe8(%rbp)
   1354d:	48 8d 85 90 ee ff ff 	lea    -0x1170(%rbp),%rax
   13554:	48 89 85 20 f0 ff ff 	mov    %rax,-0xfe0(%rbp)
   1355b:	48 8d 85 90 ee ff ff 	lea    -0x1170(%rbp),%rax
   13562:	48 89 85 28 f0 ff ff 	mov    %rax,-0xfd8(%rbp)
   13569:	48 8d 85 90 ee ff ff 	lea    -0x1170(%rbp),%rax
   13570:	48 89 85 30 f0 ff ff 	mov    %rax,-0xfd0(%rbp)
   13577:	48 8d 85 a4 ee ff ff 	lea    -0x115c(%rbp),%rax
   1357e:	48 89 85 50 f8 ff ff 	mov    %rax,-0x7b0(%rbp)
   13585:	48 8d 85 a4 ee ff ff 	lea    -0x115c(%rbp),%rax
   1358c:	48 89 85 58 f8 ff ff 	mov    %rax,-0x7a8(%rbp)
   13593:	48 8d 85 a4 ee ff ff 	lea    -0x115c(%rbp),%rax
   1359a:	48 89 85 60 f8 ff ff 	mov    %rax,-0x7a0(%rbp)
   135a1:	48 8d 85 a4 ee ff ff 	lea    -0x115c(%rbp),%rax
   135a8:	48 89 85 68 f8 ff ff 	mov    %rax,-0x798(%rbp)
   135af:	48 8d 85 a4 ee ff ff 	lea    -0x115c(%rbp),%rax
   135b6:	48 89 85 70 f8 ff ff 	mov    %rax,-0x790(%rbp)
   135bd:	48 8d 85 a4 ee ff ff 	lea    -0x115c(%rbp),%rax
   135c4:	48 89 85 78 f8 ff ff 	mov    %rax,-0x788(%rbp)
   135cb:	48 8b 85 50 ef ff ff 	mov    -0x10b0(%rbp),%rax
   135d2:	48 83 e8 01          	sub    $0x1,%rax
   135d6:	48 89 85 50 ef ff ff 	mov    %rax,-0x10b0(%rbp)
   135dd:	0f b6 05 b4 ee 00 00 	movzbl 0xeeb4(%rip),%eax        # 22498 <g_779>
   135e4:	84 c0                	test   %al,%al
   135e6:	0f 85 a8 12 00 00    	jne    14894 <func_25+0x301f>
   135ec:	0f b7 05 a7 ee 00 00 	movzwl 0xeea7(%rip),%eax        # 2249a <g_860>
   135f3:	83 c0 01             	add    $0x1,%eax
   135f6:	66 89 05 9d ee 00 00 	mov    %ax,0xee9d(%rip)        # 2249a <g_860>
   135fd:	0f b7 05 96 ee 00 00 	movzwl 0xee96(%rip),%eax        # 2249a <g_860>
   13604:	66 83 f8 06          	cmp    $0x6,%ax
   13608:	0f 86 31 ff ff ff    	jbe    1353f <func_25+0x1cca>
   1360e:	48 c7 05 b7 ea 00 00 	movq   $0xfffffffffffffff4,0xeab7(%rip)        # 220d0 <g_164>
   13615:	f4 ff ff ff 
   13619:	e9 7f 11 00 00       	jmpq   1479d <func_25+0x2f28>
   1361e:	48 c7 85 58 ef ff ff 	movq   $0x0,-0x10a8(%rbp)
   13625:	00 00 00 00 
   13629:	48 8d 05 ac ee 00 00 	lea    0xeeac(%rip),%rax        # 224dc <g_1287+0xc>
   13630:	48 89 85 60 ef ff ff 	mov    %rax,-0x10a0(%rbp)
   13637:	48 8d 85 90 f5 ff ff 	lea    -0xa70(%rbp),%rax
   1363e:	48 8d 15 5b af 00 00 	lea    0xaf5b(%rip),%rdx        # 1e5a0 <g_431+0x522>
   13645:	b9 57 00 00 00       	mov    $0x57,%ecx
   1364a:	48 89 c7             	mov    %rax,%rdi
   1364d:	48 89 d6             	mov    %rdx,%rsi
   13650:	f3 48 a5             	rep movsq %ds:(%rsi),%es:(%rdi)
   13653:	48 89 f2             	mov    %rsi,%rdx
   13656:	48 89 f8             	mov    %rdi,%rax
   13659:	8b 0a                	mov    (%rdx),%ecx
   1365b:	89 08                	mov    %ecx,(%rax)
   1365d:	48 8d 40 04          	lea    0x4(%rax),%rax
   13661:	48 8d 52 04          	lea    0x4(%rdx),%rdx
   13665:	48 c7 85 68 ef ff ff 	movq   $0x0,-0x1098(%rbp)
   1366c:	00 00 00 00 
   13670:	48 8d 85 a0 ee ff ff 	lea    -0x1160(%rbp),%rax
   13677:	48 89 85 70 ef ff ff 	mov    %rax,-0x1090(%rbp)
   1367e:	48 8d 85 90 f5 ff ff 	lea    -0xa70(%rbp),%rax
   13685:	48 05 b0 01 00 00    	add    $0x1b0,%rax
   1368b:	48 89 85 00 f4 ff ff 	mov    %rax,-0xc00(%rbp)
   13692:	48 8d 85 8c ee ff ff 	lea    -0x1174(%rbp),%rax
   13699:	48 89 85 08 f4 ff ff 	mov    %rax,-0xbf8(%rbp)
   136a0:	48 8d 85 8c ee ff ff 	lea    -0x1174(%rbp),%rax
   136a7:	48 89 85 10 f4 ff ff 	mov    %rax,-0xbf0(%rbp)
   136ae:	48 8d 85 90 f5 ff ff 	lea    -0xa70(%rbp),%rax
   136b5:	48 05 b0 01 00 00    	add    $0x1b0,%rax
   136bb:	48 89 85 18 f4 ff ff 	mov    %rax,-0xbe8(%rbp)
   136c2:	48 8d 85 94 ee ff ff 	lea    -0x116c(%rbp),%rax
   136c9:	48 89 85 20 f4 ff ff 	mov    %rax,-0xbe0(%rbp)
   136d0:	48 c7 85 28 f4 ff ff 	movq   $0x0,-0xbd8(%rbp)
   136d7:	00 00 00 00 
   136db:	48 8d 85 94 ee ff ff 	lea    -0x116c(%rbp),%rax
   136e2:	48 89 85 30 f4 ff ff 	mov    %rax,-0xbd0(%rbp)
   136e9:	48 8d 85 90 f5 ff ff 	lea    -0xa70(%rbp),%rax
   136f0:	48 05 b0 01 00 00    	add    $0x1b0,%rax
   136f6:	48 89 85 38 f4 ff ff 	mov    %rax,-0xbc8(%rbp)
   136fd:	48 8d 85 8c ee ff ff 	lea    -0x1174(%rbp),%rax
   13704:	48 89 85 40 f4 ff ff 	mov    %rax,-0xbc0(%rbp)
   1370b:	48 8d 85 8c ee ff ff 	lea    -0x1174(%rbp),%rax
   13712:	48 89 85 48 f4 ff ff 	mov    %rax,-0xbb8(%rbp)
   13719:	48 8d 85 94 ee ff ff 	lea    -0x116c(%rbp),%rax
   13720:	48 89 85 50 f4 ff ff 	mov    %rax,-0xbb0(%rbp)
   13727:	48 8d 85 8c ee ff ff 	lea    -0x1174(%rbp),%rax
   1372e:	48 89 85 58 f4 ff ff 	mov    %rax,-0xba8(%rbp)
   13735:	48 8d 85 a0 ee ff ff 	lea    -0x1160(%rbp),%rax
   1373c:	48 89 85 60 f4 ff ff 	mov    %rax,-0xba0(%rbp)
   13743:	48 c7 85 68 f4 ff ff 	movq   $0x0,-0xb98(%rbp)
   1374a:	00 00 00 00 
   1374e:	48 c7 85 70 f4 ff ff 	movq   $0x0,-0xb90(%rbp)
   13755:	00 00 00 00 
   13759:	48 8d 85 a0 ee ff ff 	lea    -0x1160(%rbp),%rax
   13760:	48 89 85 78 f4 ff ff 	mov    %rax,-0xb88(%rbp)
   13767:	48 8d 85 8c ee ff ff 	lea    -0x1174(%rbp),%rax
   1376e:	48 89 85 80 f4 ff ff 	mov    %rax,-0xb80(%rbp)
   13775:	48 8d 85 94 ee ff ff 	lea    -0x116c(%rbp),%rax
   1377c:	48 89 85 88 f4 ff ff 	mov    %rax,-0xb78(%rbp)
   13783:	48 8d 85 8c ee ff ff 	lea    -0x1174(%rbp),%rax
   1378a:	48 89 85 90 f4 ff ff 	mov    %rax,-0xb70(%rbp)
   13791:	48 8d 85 a0 ee ff ff 	lea    -0x1160(%rbp),%rax
   13798:	48 89 85 98 f4 ff ff 	mov    %rax,-0xb68(%rbp)
   1379f:	48 c7 85 a0 f4 ff ff 	movq   $0x0,-0xb60(%rbp)
   137a6:	00 00 00 00 
   137aa:	48 8d 85 90 f5 ff ff 	lea    -0xa70(%rbp),%rax
   137b1:	48 05 b0 01 00 00    	add    $0x1b0,%rax
   137b7:	48 89 85 a8 f4 ff ff 	mov    %rax,-0xb58(%rbp)
   137be:	48 c7 85 b0 f4 ff ff 	movq   $0x0,-0xb50(%rbp)
   137c5:	00 00 00 00 
   137c9:	48 8d 85 90 f5 ff ff 	lea    -0xa70(%rbp),%rax
   137d0:	48 05 b0 01 00 00    	add    $0x1b0,%rax
   137d6:	48 89 85 b8 f4 ff ff 	mov    %rax,-0xb48(%rbp)
   137dd:	48 c7 85 c0 f4 ff ff 	movq   $0x0,-0xb40(%rbp)
   137e4:	00 00 00 00 
   137e8:	48 8d 85 a0 ee ff ff 	lea    -0x1160(%rbp),%rax
   137ef:	48 89 85 c8 f4 ff ff 	mov    %rax,-0xb38(%rbp)
   137f6:	48 8d 85 a0 ee ff ff 	lea    -0x1160(%rbp),%rax
   137fd:	48 89 85 d0 f4 ff ff 	mov    %rax,-0xb30(%rbp)
   13804:	48 c7 85 d8 f4 ff ff 	movq   $0x0,-0xb28(%rbp)
   1380b:	00 00 00 00 
   1380f:	48 8d 85 90 f5 ff ff 	lea    -0xa70(%rbp),%rax
   13816:	48 05 b0 01 00 00    	add    $0x1b0,%rax
   1381c:	48 89 85 e0 f4 ff ff 	mov    %rax,-0xb20(%rbp)
   13823:	48 c7 85 e8 f4 ff ff 	movq   $0x0,-0xb18(%rbp)
   1382a:	00 00 00 00 
   1382e:	48 8d 85 94 ee ff ff 	lea    -0x116c(%rbp),%rax
   13835:	48 89 85 f0 f4 ff ff 	mov    %rax,-0xb10(%rbp)
   1383c:	48 8d 85 94 ee ff ff 	lea    -0x116c(%rbp),%rax
   13843:	48 89 85 f8 f4 ff ff 	mov    %rax,-0xb08(%rbp)
   1384a:	48 c7 85 00 f5 ff ff 	movq   $0x0,-0xb00(%rbp)
   13851:	00 00 00 00 
   13855:	48 c7 85 08 f5 ff ff 	movq   $0x0,-0xaf8(%rbp)
   1385c:	00 00 00 00 
   13860:	48 c7 85 10 f5 ff ff 	movq   $0x0,-0xaf0(%rbp)
   13867:	00 00 00 00 
   1386b:	48 c7 85 18 f5 ff ff 	movq   $0x0,-0xae8(%rbp)
   13872:	00 00 00 00 
   13876:	48 c7 85 20 f5 ff ff 	movq   $0x0,-0xae0(%rbp)
   1387d:	00 00 00 00 
   13881:	48 8d 85 94 ee ff ff 	lea    -0x116c(%rbp),%rax
   13888:	48 89 85 28 f5 ff ff 	mov    %rax,-0xad8(%rbp)
   1388f:	48 8d 85 94 ee ff ff 	lea    -0x116c(%rbp),%rax
   13896:	48 89 85 30 f5 ff ff 	mov    %rax,-0xad0(%rbp)
   1389d:	48 c7 85 38 f5 ff ff 	movq   $0x0,-0xac8(%rbp)
   138a4:	00 00 00 00 
   138a8:	48 8d 85 90 f5 ff ff 	lea    -0xa70(%rbp),%rax
   138af:	48 05 b0 01 00 00    	add    $0x1b0,%rax
   138b5:	48 89 85 40 f5 ff ff 	mov    %rax,-0xac0(%rbp)
   138bc:	48 c7 85 48 f5 ff ff 	movq   $0x0,-0xab8(%rbp)
   138c3:	00 00 00 00 
   138c7:	48 8d 85 a0 ee ff ff 	lea    -0x1160(%rbp),%rax
   138ce:	48 89 85 50 f5 ff ff 	mov    %rax,-0xab0(%rbp)
   138d5:	48 8d 85 a0 ee ff ff 	lea    -0x1160(%rbp),%rax
   138dc:	48 89 85 58 f5 ff ff 	mov    %rax,-0xaa8(%rbp)
   138e3:	48 c7 85 60 f5 ff ff 	movq   $0x0,-0xaa0(%rbp)
   138ea:	00 00 00 00 
   138ee:	48 8d 85 90 f5 ff ff 	lea    -0xa70(%rbp),%rax
   138f5:	48 05 b0 01 00 00    	add    $0x1b0,%rax
   138fb:	48 89 85 68 f5 ff ff 	mov    %rax,-0xa98(%rbp)
   13902:	48 c7 85 70 f5 ff ff 	movq   $0x0,-0xa90(%rbp)
   13909:	00 00 00 00 
   1390d:	48 8d 85 90 f5 ff ff 	lea    -0xa70(%rbp),%rax
   13914:	48 05 b0 01 00 00    	add    $0x1b0,%rax
   1391a:	48 89 85 78 f5 ff ff 	mov    %rax,-0xa88(%rbp)
   13921:	48 c7 85 80 f5 ff ff 	movq   $0x0,-0xa80(%rbp)
   13928:	00 00 00 00 
   1392c:	48 8d 85 a0 ee ff ff 	lea    -0x1160(%rbp),%rax
   13933:	48 89 85 88 f5 ff ff 	mov    %rax,-0xa78(%rbp)
   1393a:	48 c7 85 c0 f2 ff ff 	movq   $0xfffffffffffffff8,-0xd40(%rbp)
   13941:	f8 ff ff ff 
   13945:	48 c7 85 c8 f2 ff ff 	movq   $0xfffffffffffffff8,-0xd38(%rbp)
   1394c:	f8 ff ff ff 
   13950:	48 c7 85 d0 f2 ff ff 	movq   $0xfffffffffffffff8,-0xd30(%rbp)
   13957:	f8 ff ff ff 
   1395b:	48 c7 85 d8 f2 ff ff 	movq   $0xfffffffffffffff8,-0xd28(%rbp)
   13962:	f8 ff ff ff 
   13966:	48 c7 85 e0 f2 ff ff 	movq   $0xfffffffffffffff8,-0xd20(%rbp)
   1396d:	f8 ff ff ff 
   13971:	48 c7 85 e8 f2 ff ff 	movq   $0xfffffffffffffff8,-0xd18(%rbp)
   13978:	f8 ff ff ff 
   1397c:	48 c7 85 f0 f2 ff ff 	movq   $0xfffffffffffffff8,-0xd10(%rbp)
   13983:	f8 ff ff ff 
   13987:	48 c7 85 f8 f2 ff ff 	movq   $0xfffffffffffffff8,-0xd08(%rbp)
   1398e:	f8 ff ff ff 
   13992:	48 8d 85 58 ef ff ff 	lea    -0x10a8(%rbp),%rax
   13999:	48 89 85 50 f8 ff ff 	mov    %rax,-0x7b0(%rbp)
   139a0:	48 8d 85 58 ef ff ff 	lea    -0x10a8(%rbp),%rax
   139a7:	48 89 85 58 f8 ff ff 	mov    %rax,-0x7a8(%rbp)
   139ae:	48 8d 85 68 ef ff ff 	lea    -0x1098(%rbp),%rax
   139b5:	48 89 85 60 f8 ff ff 	mov    %rax,-0x7a0(%rbp)
   139bc:	48 8d 85 58 ef ff ff 	lea    -0x10a8(%rbp),%rax
   139c3:	48 89 85 68 f8 ff ff 	mov    %rax,-0x798(%rbp)
   139ca:	48 c7 85 70 f8 ff ff 	movq   $0x0,-0x790(%rbp)
   139d1:	00 00 00 00 
   139d5:	48 8d 85 00 f4 ff ff 	lea    -0xc00(%rbp),%rax
   139dc:	48 83 c0 48          	add    $0x48,%rax
   139e0:	48 89 85 78 f8 ff ff 	mov    %rax,-0x788(%rbp)
   139e7:	48 8d 85 60 ef ff ff 	lea    -0x10a0(%rbp),%rax
   139ee:	48 89 85 80 f8 ff ff 	mov    %rax,-0x780(%rbp)
   139f5:	48 8d 05 84 25 01 00 	lea    0x12584(%rip),%rax        # 25f80 <g_622>
   139fc:	48 89 85 88 f8 ff ff 	mov    %rax,-0x778(%rbp)
   13a03:	48 c7 85 90 f8 ff ff 	movq   $0x0,-0x770(%rbp)
   13a0a:	00 00 00 00 
   13a0e:	48 c7 85 98 f8 ff ff 	movq   $0x0,-0x768(%rbp)
   13a15:	00 00 00 00 
   13a19:	48 8d 85 68 ef ff ff 	lea    -0x1098(%rbp),%rax
   13a20:	48 89 85 a0 f8 ff ff 	mov    %rax,-0x760(%rbp)
   13a27:	48 8d 85 60 ef ff ff 	lea    -0x10a0(%rbp),%rax
   13a2e:	48 89 85 a8 f8 ff ff 	mov    %rax,-0x758(%rbp)
   13a35:	48 8d 85 60 ef ff ff 	lea    -0x10a0(%rbp),%rax
   13a3c:	48 89 85 b0 f8 ff ff 	mov    %rax,-0x750(%rbp)
   13a43:	48 8d 85 68 ef ff ff 	lea    -0x1098(%rbp),%rax
   13a4a:	48 89 85 b8 f8 ff ff 	mov    %rax,-0x748(%rbp)
   13a51:	48 c7 85 c0 f8 ff ff 	movq   $0x0,-0x740(%rbp)
   13a58:	00 00 00 00 
   13a5c:	48 c7 85 c8 f8 ff ff 	movq   $0x0,-0x738(%rbp)
   13a63:	00 00 00 00 
   13a67:	48 8d 85 00 f4 ff ff 	lea    -0xc00(%rbp),%rax
   13a6e:	48 83 c0 70          	add    $0x70,%rax
   13a72:	48 89 85 d0 f8 ff ff 	mov    %rax,-0x730(%rbp)
   13a79:	48 8d 85 00 f4 ff ff 	lea    -0xc00(%rbp),%rax
   13a80:	48 05 60 01 00 00    	add    $0x160,%rax
   13a86:	48 89 85 d8 f8 ff ff 	mov    %rax,-0x728(%rbp)
   13a8d:	48 8d 85 58 ef ff ff 	lea    -0x10a8(%rbp),%rax
   13a94:	48 89 85 e0 f8 ff ff 	mov    %rax,-0x720(%rbp)
   13a9b:	48 8d 05 de 24 01 00 	lea    0x124de(%rip),%rax        # 25f80 <g_622>
   13aa2:	48 89 85 e8 f8 ff ff 	mov    %rax,-0x718(%rbp)
   13aa9:	48 8d 85 58 ef ff ff 	lea    -0x10a8(%rbp),%rax
   13ab0:	48 89 85 f0 f8 ff ff 	mov    %rax,-0x710(%rbp)
   13ab7:	48 8d 85 58 ef ff ff 	lea    -0x10a8(%rbp),%rax
   13abe:	48 89 85 f8 f8 ff ff 	mov    %rax,-0x708(%rbp)
   13ac5:	48 8d 85 00 f4 ff ff 	lea    -0xc00(%rbp),%rax
   13acc:	48 83 c0 70          	add    $0x70,%rax
   13ad0:	48 89 85 00 f9 ff ff 	mov    %rax,-0x700(%rbp)
   13ad7:	48 8d 05 a2 24 01 00 	lea    0x124a2(%rip),%rax        # 25f80 <g_622>
   13ade:	48 89 85 08 f9 ff ff 	mov    %rax,-0x6f8(%rbp)
   13ae5:	48 8d 85 70 ef ff ff 	lea    -0x1090(%rbp),%rax
   13aec:	48 89 85 10 f9 ff ff 	mov    %rax,-0x6f0(%rbp)
   13af3:	48 8d 85 00 f4 ff ff 	lea    -0xc00(%rbp),%rax
   13afa:	48 83 c0 48          	add    $0x48,%rax
   13afe:	48 89 85 18 f9 ff ff 	mov    %rax,-0x6e8(%rbp)
   13b05:	48 8d 85 70 ef ff ff 	lea    -0x1090(%rbp),%rax
   13b0c:	48 89 85 20 f9 ff ff 	mov    %rax,-0x6e0(%rbp)
   13b13:	48 8d 05 66 24 01 00 	lea    0x12466(%rip),%rax        # 25f80 <g_622>
   13b1a:	48 89 85 28 f9 ff ff 	mov    %rax,-0x6d8(%rbp)
   13b21:	48 8d 05 58 24 01 00 	lea    0x12458(%rip),%rax        # 25f80 <g_622>
   13b28:	48 89 85 30 f9 ff ff 	mov    %rax,-0x6d0(%rbp)
   13b2f:	48 8d 85 58 ef ff ff 	lea    -0x10a8(%rbp),%rax
   13b36:	48 89 85 38 f9 ff ff 	mov    %rax,-0x6c8(%rbp)
   13b3d:	48 8d 85 00 f4 ff ff 	lea    -0xc00(%rbp),%rax
   13b44:	48 05 28 01 00 00    	add    $0x128,%rax
   13b4a:	48 89 85 40 f9 ff ff 	mov    %rax,-0x6c0(%rbp)
   13b51:	48 c7 85 48 f9 ff ff 	movq   $0x0,-0x6b8(%rbp)
   13b58:	00 00 00 00 
   13b5c:	48 8d 85 58 ef ff ff 	lea    -0x10a8(%rbp),%rax
   13b63:	48 89 85 50 f9 ff ff 	mov    %rax,-0x6b0(%rbp)
   13b6a:	48 8d 85 00 f4 ff ff 	lea    -0xc00(%rbp),%rax
   13b71:	48 05 60 01 00 00    	add    $0x160,%rax
   13b77:	48 89 85 58 f9 ff ff 	mov    %rax,-0x6a8(%rbp)
   13b7e:	48 8d 85 00 f4 ff ff 	lea    -0xc00(%rbp),%rax
   13b85:	48 05 68 01 00 00    	add    $0x168,%rax
   13b8b:	48 89 85 60 f9 ff ff 	mov    %rax,-0x6a0(%rbp)
   13b92:	48 8d 85 00 f4 ff ff 	lea    -0xc00(%rbp),%rax
   13b99:	48 83 c0 70          	add    $0x70,%rax
   13b9d:	48 89 85 68 f9 ff ff 	mov    %rax,-0x698(%rbp)
   13ba4:	48 8d 85 68 ef ff ff 	lea    -0x1098(%rbp),%rax
   13bab:	48 89 85 70 f9 ff ff 	mov    %rax,-0x690(%rbp)
   13bb2:	48 8d 85 68 ef ff ff 	lea    -0x1098(%rbp),%rax
   13bb9:	48 89 85 78 f9 ff ff 	mov    %rax,-0x688(%rbp)
   13bc0:	48 8d 05 b9 23 01 00 	lea    0x123b9(%rip),%rax        # 25f80 <g_622>
   13bc7:	48 89 85 80 f9 ff ff 	mov    %rax,-0x680(%rbp)
   13bce:	48 c7 85 88 f9 ff ff 	movq   $0x0,-0x678(%rbp)
   13bd5:	00 00 00 00 
   13bd9:	48 c7 85 90 f9 ff ff 	movq   $0x0,-0x670(%rbp)
   13be0:	00 00 00 00 
   13be4:	48 c7 85 98 f9 ff ff 	movq   $0x0,-0x668(%rbp)
   13beb:	00 00 00 00 
   13bef:	48 8d 85 00 f4 ff ff 	lea    -0xc00(%rbp),%rax
   13bf6:	48 83 c0 70          	add    $0x70,%rax
   13bfa:	48 89 85 a0 f9 ff ff 	mov    %rax,-0x660(%rbp)
   13c01:	48 8d 85 58 ef ff ff 	lea    -0x10a8(%rbp),%rax
   13c08:	48 89 85 a8 f9 ff ff 	mov    %rax,-0x658(%rbp)
   13c0f:	48 c7 85 b0 f9 ff ff 	movq   $0x0,-0x650(%rbp)
   13c16:	00 00 00 00 
   13c1a:	48 8d 85 00 f4 ff ff 	lea    -0xc00(%rbp),%rax
   13c21:	48 83 c0 48          	add    $0x48,%rax
   13c25:	48 89 85 b8 f9 ff ff 	mov    %rax,-0x648(%rbp)
   13c2c:	48 8d 85 58 ef ff ff 	lea    -0x10a8(%rbp),%rax
   13c33:	48 89 85 c0 f9 ff ff 	mov    %rax,-0x640(%rbp)
   13c3a:	48 8d 85 00 f4 ff ff 	lea    -0xc00(%rbp),%rax
   13c41:	48 83 c0 70          	add    $0x70,%rax
   13c45:	48 89 85 c8 f9 ff ff 	mov    %rax,-0x638(%rbp)
   13c4c:	48 c7 85 d0 f9 ff ff 	movq   $0x0,-0x630(%rbp)
   13c53:	00 00 00 00 
   13c57:	48 8d 85 58 ef ff ff 	lea    -0x10a8(%rbp),%rax
   13c5e:	48 89 85 d8 f9 ff ff 	mov    %rax,-0x628(%rbp)
   13c65:	48 8d 85 00 f4 ff ff 	lea    -0xc00(%rbp),%rax
   13c6c:	48 83 c0 70          	add    $0x70,%rax
   13c70:	48 89 85 e0 f9 ff ff 	mov    %rax,-0x620(%rbp)
   13c77:	48 8d 85 58 ef ff ff 	lea    -0x10a8(%rbp),%rax
   13c7e:	48 89 85 e8 f9 ff ff 	mov    %rax,-0x618(%rbp)
   13c85:	48 8d 85 68 ef ff ff 	lea    -0x1098(%rbp),%rax
   13c8c:	48 89 85 f0 f9 ff ff 	mov    %rax,-0x610(%rbp)
   13c93:	48 8d 85 60 ef ff ff 	lea    -0x10a0(%rbp),%rax
   13c9a:	48 89 85 f8 f9 ff ff 	mov    %rax,-0x608(%rbp)
   13ca1:	48 8d 85 58 ef ff ff 	lea    -0x10a8(%rbp),%rax
   13ca8:	48 89 85 00 fa ff ff 	mov    %rax,-0x600(%rbp)
   13caf:	48 8d 85 00 f4 ff ff 	lea    -0xc00(%rbp),%rax
   13cb6:	48 83 c0 70          	add    $0x70,%rax
   13cba:	48 89 85 08 fa ff ff 	mov    %rax,-0x5f8(%rbp)
   13cc1:	48 c7 85 10 fa ff ff 	movq   $0x0,-0x5f0(%rbp)
   13cc8:	00 00 00 00 
   13ccc:	48 c7 85 18 fa ff ff 	movq   $0x0,-0x5e8(%rbp)
   13cd3:	00 00 00 00 
   13cd7:	48 8d 85 00 f4 ff ff 	lea    -0xc00(%rbp),%rax
   13cde:	48 05 68 01 00 00    	add    $0x168,%rax
   13ce4:	48 89 85 20 fa ff ff 	mov    %rax,-0x5e0(%rbp)
   13ceb:	48 8d 85 68 ef ff ff 	lea    -0x1098(%rbp),%rax
   13cf2:	48 89 85 28 fa ff ff 	mov    %rax,-0x5d8(%rbp)
   13cf9:	48 8d 85 00 f4 ff ff 	lea    -0xc00(%rbp),%rax
   13d00:	48 83 c0 70          	add    $0x70,%rax
   13d04:	48 89 85 30 fa ff ff 	mov    %rax,-0x5d0(%rbp)
   13d0b:	48 c7 85 38 fa ff ff 	movq   $0x0,-0x5c8(%rbp)
   13d12:	00 00 00 00 
   13d16:	48 8d 85 60 ef ff ff 	lea    -0x10a0(%rbp),%rax
   13d1d:	48 89 85 40 fa ff ff 	mov    %rax,-0x5c0(%rbp)
   13d24:	48 8d 85 58 ef ff ff 	lea    -0x10a8(%rbp),%rax
   13d2b:	48 89 85 48 fa ff ff 	mov    %rax,-0x5b8(%rbp)
   13d32:	48 8d 05 47 22 01 00 	lea    0x12247(%rip),%rax        # 25f80 <g_622>
   13d39:	48 89 85 50 fa ff ff 	mov    %rax,-0x5b0(%rbp)
   13d40:	48 8d 05 39 22 01 00 	lea    0x12239(%rip),%rax        # 25f80 <g_622>
   13d47:	48 89 85 58 fa ff ff 	mov    %rax,-0x5a8(%rbp)
   13d4e:	48 8d 85 68 ef ff ff 	lea    -0x1098(%rbp),%rax
   13d55:	48 89 85 60 fa ff ff 	mov    %rax,-0x5a0(%rbp)
   13d5c:	48 8d 85 68 ef ff ff 	lea    -0x1098(%rbp),%rax
   13d63:	48 89 85 68 fa ff ff 	mov    %rax,-0x598(%rbp)
   13d6a:	48 8d 85 00 f4 ff ff 	lea    -0xc00(%rbp),%rax
   13d71:	48 05 28 01 00 00    	add    $0x128,%rax
   13d77:	48 89 85 70 fa ff ff 	mov    %rax,-0x590(%rbp)
   13d7e:	48 8d 85 70 ef ff ff 	lea    -0x1090(%rbp),%rax
   13d85:	48 89 85 78 fa ff ff 	mov    %rax,-0x588(%rbp)
   13d8c:	48 8d 85 00 f4 ff ff 	lea    -0xc00(%rbp),%rax
   13d93:	48 83 c0 70          	add    $0x70,%rax
   13d97:	48 89 85 80 fa ff ff 	mov    %rax,-0x580(%rbp)
   13d9e:	48 c7 85 88 fa ff ff 	movq   $0x0,-0x578(%rbp)
   13da5:	00 00 00 00 
   13da9:	48 8d 05 d0 21 01 00 	lea    0x121d0(%rip),%rax        # 25f80 <g_622>
   13db0:	48 89 85 90 fa ff ff 	mov    %rax,-0x570(%rbp)
   13db7:	48 8d 85 00 f4 ff ff 	lea    -0xc00(%rbp),%rax
   13dbe:	48 83 c0 70          	add    $0x70,%rax
   13dc2:	48 89 85 98 fa ff ff 	mov    %rax,-0x568(%rbp)
   13dc9:	48 8d 85 60 ef ff ff 	lea    -0x10a0(%rbp),%rax
   13dd0:	48 89 85 a0 fa ff ff 	mov    %rax,-0x560(%rbp)
   13dd7:	48 8d 85 58 ef ff ff 	lea    -0x10a8(%rbp),%rax
   13dde:	48 89 85 a8 fa ff ff 	mov    %rax,-0x558(%rbp)
   13de5:	48 8d 85 60 ef ff ff 	lea    -0x10a0(%rbp),%rax
   13dec:	48 89 85 b0 fa ff ff 	mov    %rax,-0x550(%rbp)
   13df3:	48 8d 85 00 f4 ff ff 	lea    -0xc00(%rbp),%rax
   13dfa:	48 83 c0 70          	add    $0x70,%rax
   13dfe:	48 89 85 b8 fa ff ff 	mov    %rax,-0x548(%rbp)
   13e05:	48 8d 05 74 21 01 00 	lea    0x12174(%rip),%rax        # 25f80 <g_622>
   13e0c:	48 89 85 c0 fa ff ff 	mov    %rax,-0x540(%rbp)
   13e13:	48 8d 85 00 f4 ff ff 	lea    -0xc00(%rbp),%rax
   13e1a:	48 83 c0 70          	add    $0x70,%rax
   13e1e:	48 89 85 c8 fa ff ff 	mov    %rax,-0x538(%rbp)
   13e25:	48 8d 85 70 ef ff ff 	lea    -0x1090(%rbp),%rax
   13e2c:	48 89 85 d0 fa ff ff 	mov    %rax,-0x530(%rbp)
   13e33:	48 c7 85 d8 fa ff ff 	movq   $0x0,-0x528(%rbp)
   13e3a:	00 00 00 00 
   13e3e:	48 8d 85 68 ef ff ff 	lea    -0x1098(%rbp),%rax
   13e45:	48 89 85 e0 fa ff ff 	mov    %rax,-0x520(%rbp)
   13e4c:	48 8d 85 70 ef ff ff 	lea    -0x1090(%rbp),%rax
   13e53:	48 89 85 e8 fa ff ff 	mov    %rax,-0x518(%rbp)
   13e5a:	48 8d 85 58 ef ff ff 	lea    -0x10a8(%rbp),%rax
   13e61:	48 89 85 f0 fa ff ff 	mov    %rax,-0x510(%rbp)
   13e68:	48 8d 85 58 ef ff ff 	lea    -0x10a8(%rbp),%rax
   13e6f:	48 89 85 f8 fa ff ff 	mov    %rax,-0x508(%rbp)
   13e76:	48 c7 85 00 fb ff ff 	movq   $0x0,-0x500(%rbp)
   13e7d:	00 00 00 00 
   13e81:	48 8d 85 70 ef ff ff 	lea    -0x1090(%rbp),%rax
   13e88:	48 89 85 08 fb ff ff 	mov    %rax,-0x4f8(%rbp)
   13e8f:	48 8d 85 00 f4 ff ff 	lea    -0xc00(%rbp),%rax
   13e96:	48 83 c0 28          	add    $0x28,%rax
   13e9a:	48 89 85 10 fb ff ff 	mov    %rax,-0x4f0(%rbp)
   13ea1:	48 8d 85 00 f4 ff ff 	lea    -0xc00(%rbp),%rax
   13ea8:	48 05 60 01 00 00    	add    $0x160,%rax
   13eae:	48 89 85 18 fb ff ff 	mov    %rax,-0x4e8(%rbp)
   13eb5:	48 8d 85 70 ef ff ff 	lea    -0x1090(%rbp),%rax
   13ebc:	48 89 85 20 fb ff ff 	mov    %rax,-0x4e0(%rbp)
   13ec3:	48 8d 85 58 ef ff ff 	lea    -0x10a8(%rbp),%rax
   13eca:	48 89 85 28 fb ff ff 	mov    %rax,-0x4d8(%rbp)
   13ed1:	48 8d 85 58 ef ff ff 	lea    -0x10a8(%rbp),%rax
   13ed8:	48 89 85 30 fb ff ff 	mov    %rax,-0x4d0(%rbp)
   13edf:	48 8d 85 68 ef ff ff 	lea    -0x1098(%rbp),%rax
   13ee6:	48 89 85 38 fb ff ff 	mov    %rax,-0x4c8(%rbp)
   13eed:	48 8d 05 8c 20 01 00 	lea    0x1208c(%rip),%rax        # 25f80 <g_622>
   13ef4:	48 89 85 40 fb ff ff 	mov    %rax,-0x4c0(%rbp)
   13efb:	48 8d 85 58 ef ff ff 	lea    -0x10a8(%rbp),%rax
   13f02:	48 89 85 48 fb ff ff 	mov    %rax,-0x4b8(%rbp)
   13f09:	48 8d 85 70 ef ff ff 	lea    -0x1090(%rbp),%rax
   13f10:	48 89 85 50 fb ff ff 	mov    %rax,-0x4b0(%rbp)
   13f17:	48 8d 85 00 f4 ff ff 	lea    -0xc00(%rbp),%rax
   13f1e:	48 83 c0 70          	add    $0x70,%rax
   13f22:	48 89 85 58 fb ff ff 	mov    %rax,-0x4a8(%rbp)
   13f29:	48 8d 85 00 f4 ff ff 	lea    -0xc00(%rbp),%rax
   13f30:	48 83 c0 70          	add    $0x70,%rax
   13f34:	48 89 85 60 fb ff ff 	mov    %rax,-0x4a0(%rbp)
   13f3b:	48 8d 85 70 ef ff ff 	lea    -0x1090(%rbp),%rax
   13f42:	48 89 85 68 fb ff ff 	mov    %rax,-0x498(%rbp)
   13f49:	48 8d 85 60 ef ff ff 	lea    -0x10a0(%rbp),%rax
   13f50:	48 89 85 70 fb ff ff 	mov    %rax,-0x490(%rbp)
   13f57:	48 8d 05 22 20 01 00 	lea    0x12022(%rip),%rax        # 25f80 <g_622>
   13f5e:	48 89 85 78 fb ff ff 	mov    %rax,-0x488(%rbp)
   13f65:	48 c7 85 80 fb ff ff 	movq   $0x0,-0x480(%rbp)
   13f6c:	00 00 00 00 
   13f70:	48 c7 85 88 fb ff ff 	movq   $0x0,-0x478(%rbp)
   13f77:	00 00 00 00 
   13f7b:	48 8d 05 fe 1f 01 00 	lea    0x11ffe(%rip),%rax        # 25f80 <g_622>
   13f82:	48 89 85 90 fb ff ff 	mov    %rax,-0x470(%rbp)
   13f89:	48 8d 85 58 ef ff ff 	lea    -0x10a8(%rbp),%rax
   13f90:	48 89 85 98 fb ff ff 	mov    %rax,-0x468(%rbp)
   13f97:	48 c7 85 a0 fb ff ff 	movq   $0x0,-0x460(%rbp)
   13f9e:	00 00 00 00 
   13fa2:	48 8d 85 58 ef ff ff 	lea    -0x10a8(%rbp),%rax
   13fa9:	48 89 85 a8 fb ff ff 	mov    %rax,-0x458(%rbp)
   13fb0:	48 8d 85 00 f4 ff ff 	lea    -0xc00(%rbp),%rax
   13fb7:	48 05 28 01 00 00    	add    $0x128,%rax
   13fbd:	48 89 85 b0 fb ff ff 	mov    %rax,-0x450(%rbp)
   13fc4:	48 8d 85 00 f4 ff ff 	lea    -0xc00(%rbp),%rax
   13fcb:	48 05 68 01 00 00    	add    $0x168,%rax
   13fd1:	48 89 85 b8 fb ff ff 	mov    %rax,-0x448(%rbp)
   13fd8:	48 8d 05 a1 1f 01 00 	lea    0x11fa1(%rip),%rax        # 25f80 <g_622>
   13fdf:	48 89 85 c0 fb ff ff 	mov    %rax,-0x440(%rbp)
   13fe6:	48 c7 85 c8 fb ff ff 	movq   $0x0,-0x438(%rbp)
   13fed:	00 00 00 00 
   13ff1:	48 8d 05 88 1f 01 00 	lea    0x11f88(%rip),%rax        # 25f80 <g_622>
   13ff8:	48 89 85 d0 fb ff ff 	mov    %rax,-0x430(%rbp)
   13fff:	48 c7 85 d8 fb ff ff 	movq   $0x0,-0x428(%rbp)
   14006:	00 00 00 00 
   1400a:	48 8d 85 60 ef ff ff 	lea    -0x10a0(%rbp),%rax
   14011:	48 89 85 e0 fb ff ff 	mov    %rax,-0x420(%rbp)
   14018:	48 8d 05 61 1f 01 00 	lea    0x11f61(%rip),%rax        # 25f80 <g_622>
   1401f:	48 89 85 e8 fb ff ff 	mov    %rax,-0x418(%rbp)
   14026:	48 8d 85 00 f4 ff ff 	lea    -0xc00(%rbp),%rax
   1402d:	48 83 c0 70          	add    $0x70,%rax
   14031:	48 89 85 f0 fb ff ff 	mov    %rax,-0x410(%rbp)
   14038:	48 8d 85 68 ef ff ff 	lea    -0x1098(%rbp),%rax
   1403f:	48 89 85 f8 fb ff ff 	mov    %rax,-0x408(%rbp)
   14046:	48 8d 85 60 ef ff ff 	lea    -0x10a0(%rbp),%rax
   1404d:	48 89 85 00 fc ff ff 	mov    %rax,-0x400(%rbp)
   14054:	48 8d 85 58 ef ff ff 	lea    -0x10a8(%rbp),%rax
   1405b:	48 89 85 08 fc ff ff 	mov    %rax,-0x3f8(%rbp)
   14062:	48 8d 85 58 ef ff ff 	lea    -0x10a8(%rbp),%rax
   14069:	48 89 85 10 fc ff ff 	mov    %rax,-0x3f0(%rbp)
   14070:	48 c7 85 18 fc ff ff 	movq   $0x0,-0x3e8(%rbp)
   14077:	00 00 00 00 
   1407b:	48 8d 85 00 f4 ff ff 	lea    -0xc00(%rbp),%rax
   14082:	48 05 68 01 00 00    	add    $0x168,%rax
   14088:	48 89 85 20 fc ff ff 	mov    %rax,-0x3e0(%rbp)
   1408f:	48 8d 85 58 ef ff ff 	lea    -0x10a8(%rbp),%rax
   14096:	48 89 85 28 fc ff ff 	mov    %rax,-0x3d8(%rbp)
   1409d:	48 8d 05 dc 1e 01 00 	lea    0x11edc(%rip),%rax        # 25f80 <g_622>
   140a4:	48 89 85 30 fc ff ff 	mov    %rax,-0x3d0(%rbp)
   140ab:	48 c7 85 38 fc ff ff 	movq   $0x0,-0x3c8(%rbp)
   140b2:	00 00 00 00 
   140b6:	48 8d 85 00 f4 ff ff 	lea    -0xc00(%rbp),%rax
   140bd:	48 83 c0 48          	add    $0x48,%rax
   140c1:	48 89 85 40 fc ff ff 	mov    %rax,-0x3c0(%rbp)
   140c8:	48 8d 05 b1 1e 01 00 	lea    0x11eb1(%rip),%rax        # 25f80 <g_622>
   140cf:	48 89 85 48 fc ff ff 	mov    %rax,-0x3b8(%rbp)
   140d6:	48 8d 85 00 f4 ff ff 	lea    -0xc00(%rbp),%rax
   140dd:	48 83 c0 48          	add    $0x48,%rax
   140e1:	48 89 85 50 fc ff ff 	mov    %rax,-0x3b0(%rbp)
   140e8:	48 c7 85 58 fc ff ff 	movq   $0x0,-0x3a8(%rbp)
   140ef:	00 00 00 00 
   140f3:	48 8d 85 68 ef ff ff 	lea    -0x1098(%rbp),%rax
   140fa:	48 89 85 60 fc ff ff 	mov    %rax,-0x3a0(%rbp)
   14101:	48 8d 85 68 ef ff ff 	lea    -0x1098(%rbp),%rax
   14108:	48 89 85 68 fc ff ff 	mov    %rax,-0x398(%rbp)
   1410f:	48 8d 85 58 ef ff ff 	lea    -0x10a8(%rbp),%rax
   14116:	48 89 85 70 fc ff ff 	mov    %rax,-0x390(%rbp)
   1411d:	48 8d 05 5c 1e 01 00 	lea    0x11e5c(%rip),%rax        # 25f80 <g_622>
   14124:	48 89 85 78 fc ff ff 	mov    %rax,-0x388(%rbp)
   1412b:	48 8d 85 00 f4 ff ff 	lea    -0xc00(%rbp),%rax
   14132:	48 83 c0 28          	add    $0x28,%rax
   14136:	48 89 85 80 fc ff ff 	mov    %rax,-0x380(%rbp)
   1413d:	48 8d 85 00 f4 ff ff 	lea    -0xc00(%rbp),%rax
   14144:	48 83 c0 28          	add    $0x28,%rax
   14148:	48 89 85 88 fc ff ff 	mov    %rax,-0x378(%rbp)
   1414f:	48 8d 85 58 ef ff ff 	lea    -0x10a8(%rbp),%rax
   14156:	48 89 85 90 fc ff ff 	mov    %rax,-0x370(%rbp)
   1415d:	48 8d 85 68 ef ff ff 	lea    -0x1098(%rbp),%rax
   14164:	48 89 85 98 fc ff ff 	mov    %rax,-0x368(%rbp)
   1416b:	48 8d 85 70 ef ff ff 	lea    -0x1090(%rbp),%rax
   14172:	48 89 85 a0 fc ff ff 	mov    %rax,-0x360(%rbp)
   14179:	48 8d 85 70 ef ff ff 	lea    -0x1090(%rbp),%rax
   14180:	48 89 85 a8 fc ff ff 	mov    %rax,-0x358(%rbp)
   14187:	48 8d 85 68 ef ff ff 	lea    -0x1098(%rbp),%rax
   1418e:	48 89 85 b0 fc ff ff 	mov    %rax,-0x350(%rbp)
   14195:	48 8d 85 58 ef ff ff 	lea    -0x10a8(%rbp),%rax
   1419c:	48 89 85 b8 fc ff ff 	mov    %rax,-0x348(%rbp)
   141a3:	48 8d 85 60 ef ff ff 	lea    -0x10a0(%rbp),%rax
   141aa:	48 89 85 c0 fc ff ff 	mov    %rax,-0x340(%rbp)
   141b1:	48 c7 85 c8 fc ff ff 	movq   $0x0,-0x338(%rbp)
   141b8:	00 00 00 00 
   141bc:	48 8d 85 70 ef ff ff 	lea    -0x1090(%rbp),%rax
   141c3:	48 89 85 d0 fc ff ff 	mov    %rax,-0x330(%rbp)
   141ca:	48 c7 85 d8 fc ff ff 	movq   $0x0,-0x328(%rbp)
   141d1:	00 00 00 00 
   141d5:	48 8d 05 a4 1d 01 00 	lea    0x11da4(%rip),%rax        # 25f80 <g_622>
   141dc:	48 89 85 e0 fc ff ff 	mov    %rax,-0x320(%rbp)
   141e3:	48 8d 85 00 f4 ff ff 	lea    -0xc00(%rbp),%rax
   141ea:	48 83 c0 70          	add    $0x70,%rax
   141ee:	48 89 85 e8 fc ff ff 	mov    %rax,-0x318(%rbp)
   141f5:	48 c7 85 f0 fc ff ff 	movq   $0x0,-0x310(%rbp)
   141fc:	00 00 00 00 
   14200:	48 8d 85 00 f4 ff ff 	lea    -0xc00(%rbp),%rax
   14207:	48 05 68 01 00 00    	add    $0x168,%rax
   1420d:	48 89 85 f8 fc ff ff 	mov    %rax,-0x308(%rbp)
   14214:	48 8d 85 60 ef ff ff 	lea    -0x10a0(%rbp),%rax
   1421b:	48 89 85 00 fd ff ff 	mov    %rax,-0x300(%rbp)
   14222:	48 8d 05 57 1d 01 00 	lea    0x11d57(%rip),%rax        # 25f80 <g_622>
   14229:	48 89 85 08 fd ff ff 	mov    %rax,-0x2f8(%rbp)
   14230:	48 c7 85 10 fd ff ff 	movq   $0x0,-0x2f0(%rbp)
   14237:	00 00 00 00 
   1423b:	48 8d 85 00 f4 ff ff 	lea    -0xc00(%rbp),%rax
   14242:	48 83 c0 48          	add    $0x48,%rax
   14246:	48 89 85 18 fd ff ff 	mov    %rax,-0x2e8(%rbp)
   1424d:	48 8d 85 58 ef ff ff 	lea    -0x10a8(%rbp),%rax
   14254:	48 89 85 20 fd ff ff 	mov    %rax,-0x2e0(%rbp)
   1425b:	48 8d 85 00 f4 ff ff 	lea    -0xc00(%rbp),%rax
   14262:	48 83 c0 70          	add    $0x70,%rax
   14266:	48 89 85 28 fd ff ff 	mov    %rax,-0x2d8(%rbp)
   1426d:	48 8d 05 0c 1d 01 00 	lea    0x11d0c(%rip),%rax        # 25f80 <g_622>
   14274:	48 89 85 30 fd ff ff 	mov    %rax,-0x2d0(%rbp)
   1427b:	48 8d 85 70 ef ff ff 	lea    -0x1090(%rbp),%rax
   14282:	48 89 85 38 fd ff ff 	mov    %rax,-0x2c8(%rbp)
   14289:	48 8d 85 58 ef ff ff 	lea    -0x10a8(%rbp),%rax
   14290:	48 89 85 40 fd ff ff 	mov    %rax,-0x2c0(%rbp)
   14297:	48 c7 85 48 fd ff ff 	movq   $0x0,-0x2b8(%rbp)
   1429e:	00 00 00 00 
   142a2:	48 8d 85 00 f4 ff ff 	lea    -0xc00(%rbp),%rax
   142a9:	48 05 f0 00 00 00    	add    $0xf0,%rax
   142af:	48 89 85 50 fd ff ff 	mov    %rax,-0x2b0(%rbp)
   142b6:	48 8d 05 c3 1c 01 00 	lea    0x11cc3(%rip),%rax        # 25f80 <g_622>
   142bd:	48 89 85 58 fd ff ff 	mov    %rax,-0x2a8(%rbp)
   142c4:	48 c7 85 60 fd ff ff 	movq   $0x0,-0x2a0(%rbp)
   142cb:	00 00 00 00 
   142cf:	48 8d 85 70 ef ff ff 	lea    -0x1090(%rbp),%rax
   142d6:	48 89 85 68 fd ff ff 	mov    %rax,-0x298(%rbp)
   142dd:	48 8d 05 9c 1c 01 00 	lea    0x11c9c(%rip),%rax        # 25f80 <g_622>
   142e4:	48 89 85 70 fd ff ff 	mov    %rax,-0x290(%rbp)
   142eb:	48 8d 05 8e 1c 01 00 	lea    0x11c8e(%rip),%rax        # 25f80 <g_622>
   142f2:	48 89 85 78 fd ff ff 	mov    %rax,-0x288(%rbp)
   142f9:	48 8d 85 00 f4 ff ff 	lea    -0xc00(%rbp),%rax
   14300:	48 05 68 01 00 00    	add    $0x168,%rax
   14306:	48 89 85 80 fd ff ff 	mov    %rax,-0x280(%rbp)
   1430d:	48 8d 85 00 f4 ff ff 	lea    -0xc00(%rbp),%rax
   14314:	48 83 c0 28          	add    $0x28,%rax
   14318:	48 89 85 88 fd ff ff 	mov    %rax,-0x278(%rbp)
   1431f:	48 c7 85 90 fd ff ff 	movq   $0x0,-0x270(%rbp)
   14326:	00 00 00 00 
   1432a:	48 8d 85 70 ef ff ff 	lea    -0x1090(%rbp),%rax
   14331:	48 89 85 98 fd ff ff 	mov    %rax,-0x268(%rbp)
   14338:	48 c7 85 a0 fd ff ff 	movq   $0x0,-0x260(%rbp)
   1433f:	00 00 00 00 
   14343:	48 8d 85 68 ef ff ff 	lea    -0x1098(%rbp),%rax
   1434a:	48 89 85 a8 fd ff ff 	mov    %rax,-0x258(%rbp)
   14351:	48 8d 85 00 f4 ff ff 	lea    -0xc00(%rbp),%rax
   14358:	48 83 c0 28          	add    $0x28,%rax
   1435c:	48 89 85 b0 fd ff ff 	mov    %rax,-0x250(%rbp)
   14363:	48 c7 85 b8 fd ff ff 	movq   $0x0,-0x248(%rbp)
   1436a:	00 00 00 00 
   1436e:	48 8d 85 60 ef ff ff 	lea    -0x10a0(%rbp),%rax
   14375:	48 89 85 c0 fd ff ff 	mov    %rax,-0x240(%rbp)
   1437c:	48 8d 05 fd 1b 01 00 	lea    0x11bfd(%rip),%rax        # 25f80 <g_622>
   14383:	48 89 85 c8 fd ff ff 	mov    %rax,-0x238(%rbp)
   1438a:	48 8d 05 ef 1b 01 00 	lea    0x11bef(%rip),%rax        # 25f80 <g_622>
   14391:	48 89 85 d0 fd ff ff 	mov    %rax,-0x230(%rbp)
   14398:	48 8d 85 00 f4 ff ff 	lea    -0xc00(%rbp),%rax
   1439f:	48 83 c0 28          	add    $0x28,%rax
   143a3:	48 89 85 d8 fd ff ff 	mov    %rax,-0x228(%rbp)
   143aa:	48 8d 85 60 ef ff ff 	lea    -0x10a0(%rbp),%rax
   143b1:	48 89 85 e0 fd ff ff 	mov    %rax,-0x220(%rbp)
   143b8:	48 8d 85 58 ef ff ff 	lea    -0x10a8(%rbp),%rax
   143bf:	48 89 85 e8 fd ff ff 	mov    %rax,-0x218(%rbp)
   143c6:	48 8d 85 60 ef ff ff 	lea    -0x10a0(%rbp),%rax
   143cd:	48 89 85 f0 fd ff ff 	mov    %rax,-0x210(%rbp)
   143d4:	48 8d 85 60 ef ff ff 	lea    -0x10a0(%rbp),%rax
   143db:	48 89 85 f8 fd ff ff 	mov    %rax,-0x208(%rbp)
   143e2:	48 8d 05 97 1b 01 00 	lea    0x11b97(%rip),%rax        # 25f80 <g_622>
   143e9:	48 89 85 00 fe ff ff 	mov    %rax,-0x200(%rbp)
   143f0:	48 8d 85 58 ef ff ff 	lea    -0x10a8(%rbp),%rax
   143f7:	48 89 85 08 fe ff ff 	mov    %rax,-0x1f8(%rbp)
   143fe:	48 8d 85 00 f4 ff ff 	lea    -0xc00(%rbp),%rax
   14405:	48 05 f0 00 00 00    	add    $0xf0,%rax
   1440b:	48 89 85 10 fe ff ff 	mov    %rax,-0x1f0(%rbp)
   14412:	48 8d 85 00 f4 ff ff 	lea    -0xc00(%rbp),%rax
   14419:	48 83 c0 70          	add    $0x70,%rax
   1441d:	48 89 85 18 fe ff ff 	mov    %rax,-0x1e8(%rbp)
   14424:	48 8d 05 55 1b 01 00 	lea    0x11b55(%rip),%rax        # 25f80 <g_622>
   1442b:	48 89 85 20 fe ff ff 	mov    %rax,-0x1e0(%rbp)
   14432:	48 c7 85 28 fe ff ff 	movq   $0x0,-0x1d8(%rbp)
   14439:	00 00 00 00 
   1443d:	48 8d 85 58 ef ff ff 	lea    -0x10a8(%rbp),%rax
   14444:	48 89 85 30 fe ff ff 	mov    %rax,-0x1d0(%rbp)
   1444b:	48 c7 85 38 fe ff ff 	movq   $0x0,-0x1c8(%rbp)
   14452:	00 00 00 00 
   14456:	48 c7 85 40 fe ff ff 	movq   $0x0,-0x1c0(%rbp)
   1445d:	00 00 00 00 
   14461:	48 8d 85 00 f4 ff ff 	lea    -0xc00(%rbp),%rax
   14468:	48 83 c0 48          	add    $0x48,%rax
   1446c:	48 89 85 48 fe ff ff 	mov    %rax,-0x1b8(%rbp)
   14473:	48 8d 85 00 f4 ff ff 	lea    -0xc00(%rbp),%rax
   1447a:	48 83 c0 70          	add    $0x70,%rax
   1447e:	48 89 85 50 fe ff ff 	mov    %rax,-0x1b0(%rbp)
   14485:	48 8d 85 68 ef ff ff 	lea    -0x1098(%rbp),%rax
   1448c:	48 89 85 58 fe ff ff 	mov    %rax,-0x1a8(%rbp)
   14493:	48 8d 85 00 f4 ff ff 	lea    -0xc00(%rbp),%rax
   1449a:	48 05 68 01 00 00    	add    $0x168,%rax
   144a0:	48 89 85 60 fe ff ff 	mov    %rax,-0x1a0(%rbp)
   144a7:	48 8d 85 70 ef ff ff 	lea    -0x1090(%rbp),%rax
   144ae:	48 89 85 68 fe ff ff 	mov    %rax,-0x198(%rbp)
   144b5:	48 c7 85 70 fe ff ff 	movq   $0x0,-0x190(%rbp)
   144bc:	00 00 00 00 
   144c0:	48 8d 85 58 ef ff ff 	lea    -0x10a8(%rbp),%rax
   144c7:	48 89 85 78 fe ff ff 	mov    %rax,-0x188(%rbp)
   144ce:	48 8d 85 58 ef ff ff 	lea    -0x10a8(%rbp),%rax
   144d5:	48 89 85 80 fe ff ff 	mov    %rax,-0x180(%rbp)
   144dc:	48 8d 85 58 ef ff ff 	lea    -0x10a8(%rbp),%rax
   144e3:	48 89 85 88 fe ff ff 	mov    %rax,-0x178(%rbp)
   144ea:	48 8d 05 8f 1a 01 00 	lea    0x11a8f(%rip),%rax        # 25f80 <g_622>
   144f1:	48 89 85 90 fe ff ff 	mov    %rax,-0x170(%rbp)
   144f8:	48 c7 85 98 fe ff ff 	movq   $0x0,-0x168(%rbp)
   144ff:	00 00 00 00 
   14503:	48 8d 85 58 ef ff ff 	lea    -0x10a8(%rbp),%rax
   1450a:	48 89 85 a0 fe ff ff 	mov    %rax,-0x160(%rbp)
   14511:	48 c7 85 a8 fe ff ff 	movq   $0x0,-0x158(%rbp)
   14518:	00 00 00 00 
   1451c:	48 8d 05 5d 1a 01 00 	lea    0x11a5d(%rip),%rax        # 25f80 <g_622>
   14523:	48 89 85 b0 fe ff ff 	mov    %rax,-0x150(%rbp)
   1452a:	48 8d 85 60 ef ff ff 	lea    -0x10a0(%rbp),%rax
   14531:	48 89 85 b8 fe ff ff 	mov    %rax,-0x148(%rbp)
   14538:	48 8d 85 60 ef ff ff 	lea    -0x10a0(%rbp),%rax
   1453f:	48 89 85 c0 fe ff ff 	mov    %rax,-0x140(%rbp)
   14546:	48 8d 85 70 ef ff ff 	lea    -0x1090(%rbp),%rax
   1454d:	48 89 85 c8 fe ff ff 	mov    %rax,-0x138(%rbp)
   14554:	48 8d 85 58 ef ff ff 	lea    -0x10a8(%rbp),%rax
   1455b:	48 89 85 d0 fe ff ff 	mov    %rax,-0x130(%rbp)
   14562:	48 8d 05 17 1a 01 00 	lea    0x11a17(%rip),%rax        # 25f80 <g_622>
   14569:	48 89 85 d8 fe ff ff 	mov    %rax,-0x128(%rbp)
   14570:	48 8d 05 09 1a 01 00 	lea    0x11a09(%rip),%rax        # 25f80 <g_622>
   14577:	48 89 85 e0 fe ff ff 	mov    %rax,-0x120(%rbp)
   1457e:	48 8d 85 70 ef ff ff 	lea    -0x1090(%rbp),%rax
   14585:	48 89 85 e8 fe ff ff 	mov    %rax,-0x118(%rbp)
   1458c:	48 c7 85 f0 fe ff ff 	movq   $0x0,-0x110(%rbp)
   14593:	00 00 00 00 
   14597:	48 8d 05 e2 19 01 00 	lea    0x119e2(%rip),%rax        # 25f80 <g_622>
   1459e:	48 89 85 f8 fe ff ff 	mov    %rax,-0x108(%rbp)
   145a5:	48 8d 85 70 ef ff ff 	lea    -0x1090(%rbp),%rax
   145ac:	48 89 85 00 ff ff ff 	mov    %rax,-0x100(%rbp)
   145b3:	48 c7 85 08 ff ff ff 	movq   $0x0,-0xf8(%rbp)
   145ba:	00 00 00 00 
   145be:	48 8d 85 00 f4 ff ff 	lea    -0xc00(%rbp),%rax
   145c5:	48 83 c0 28          	add    $0x28,%rax
   145c9:	48 89 85 10 ff ff ff 	mov    %rax,-0xf0(%rbp)
   145d0:	48 8d 85 70 ef ff ff 	lea    -0x1090(%rbp),%rax
   145d7:	48 89 85 18 ff ff ff 	mov    %rax,-0xe8(%rbp)
   145de:	48 8d 05 9b 19 01 00 	lea    0x1199b(%rip),%rax        # 25f80 <g_622>
   145e5:	48 89 85 20 ff ff ff 	mov    %rax,-0xe0(%rbp)
   145ec:	48 8d 85 60 ef ff ff 	lea    -0x10a0(%rbp),%rax
   145f3:	48 89 85 28 ff ff ff 	mov    %rax,-0xd8(%rbp)
   145fa:	48 8d 05 7f 19 01 00 	lea    0x1197f(%rip),%rax        # 25f80 <g_622>
   14601:	48 89 85 30 ff ff ff 	mov    %rax,-0xd0(%rbp)
   14608:	48 8d 85 60 ef ff ff 	lea    -0x10a0(%rbp),%rax
   1460f:	48 89 85 38 ff ff ff 	mov    %rax,-0xc8(%rbp)
   14616:	48 8d 85 60 ef ff ff 	lea    -0x10a0(%rbp),%rax
   1461d:	48 89 85 40 ff ff ff 	mov    %rax,-0xc0(%rbp)
   14624:	48 8d 85 00 f4 ff ff 	lea    -0xc00(%rbp),%rax
   1462b:	48 05 f0 00 00 00    	add    $0xf0,%rax
   14631:	48 89 85 48 ff ff ff 	mov    %rax,-0xb8(%rbp)
   14638:	48 c7 85 50 ff ff ff 	movq   $0x0,-0xb0(%rbp)
   1463f:	00 00 00 00 
   14643:	48 8d 85 58 ef ff ff 	lea    -0x10a8(%rbp),%rax
   1464a:	48 89 85 58 ff ff ff 	mov    %rax,-0xa8(%rbp)
   14651:	48 8d 85 58 ef ff ff 	lea    -0x10a8(%rbp),%rax
   14658:	48 89 85 60 ff ff ff 	mov    %rax,-0xa0(%rbp)
   1465f:	48 8d 85 70 ef ff ff 	lea    -0x1090(%rbp),%rax
   14666:	48 89 85 68 ff ff ff 	mov    %rax,-0x98(%rbp)
   1466d:	48 c7 85 70 ff ff ff 	movq   $0x0,-0x90(%rbp)
   14674:	00 00 00 00 
   14678:	48 8d 85 70 ef ff ff 	lea    -0x1090(%rbp),%rax
   1467f:	48 89 85 78 ff ff ff 	mov    %rax,-0x88(%rbp)
   14686:	48 8d 85 58 ef ff ff 	lea    -0x10a8(%rbp),%rax
   1468d:	48 89 45 80          	mov    %rax,-0x80(%rbp)
   14691:	48 c7 45 88 00 00 00 	movq   $0x0,-0x78(%rbp)
   14698:	00 
   14699:	48 8d 05 e0 18 01 00 	lea    0x118e0(%rip),%rax        # 25f80 <g_622>
   146a0:	48 89 45 90          	mov    %rax,-0x70(%rbp)
   146a4:	48 8d 85 00 f4 ff ff 	lea    -0xc00(%rbp),%rax
   146ab:	48 83 c0 28          	add    $0x28,%rax
   146af:	48 89 45 98          	mov    %rax,-0x68(%rbp)
   146b3:	48 8d 85 00 f4 ff ff 	lea    -0xc00(%rbp),%rax
   146ba:	48 05 68 01 00 00    	add    $0x168,%rax
   146c0:	48 89 45 a0          	mov    %rax,-0x60(%rbp)
   146c4:	48 8d 05 b5 18 01 00 	lea    0x118b5(%rip),%rax        # 25f80 <g_622>
   146cb:	48 89 45 a8          	mov    %rax,-0x58(%rbp)
   146cf:	48 8d 05 aa 18 01 00 	lea    0x118aa(%rip),%rax        # 25f80 <g_622>
   146d6:	48 89 45 b0          	mov    %rax,-0x50(%rbp)
   146da:	48 8d 85 70 ef ff ff 	lea    -0x1090(%rbp),%rax
   146e1:	48 89 45 b8          	mov    %rax,-0x48(%rbp)
   146e5:	48 c7 45 c0 00 00 00 	movq   $0x0,-0x40(%rbp)
   146ec:	00 
   146ed:	48 8d 05 8c 18 01 00 	lea    0x1188c(%rip),%rax        # 25f80 <g_622>
   146f4:	48 89 45 c8          	mov    %rax,-0x38(%rbp)
   146f8:	c7 85 f0 ee ff ff 01 	movl   $0x1,-0x1110(%rbp)
   146ff:	00 00 00 
   14702:	48 8b 85 d8 f2 ff ff 	mov    -0xd28(%rbp),%rax
   14709:	48 83 c0 01          	add    $0x1,%rax
   1470d:	48 89 85 d8 f2 ff ff 	mov    %rax,-0xd28(%rbp)
   14714:	48 8d 85 60 f2 ff ff 	lea    -0xda0(%rbp),%rax
   1471b:	48 83 c0 18          	add    $0x18,%rax
   1471f:	48 89 85 10 ef ff ff 	mov    %rax,-0x10f0(%rbp)
   14726:	c7 85 b8 ee ff ff 04 	movl   $0x4,-0x1148(%rbp)
   1472d:	00 00 00 
   14730:	eb 3c                	jmp    1476e <func_25+0x2ef9>
   14732:	48 8b 85 60 ef ff ff 	mov    -0x10a0(%rbp),%rax
   14739:	8b 10                	mov    (%rax),%edx
   1473b:	48 8b 85 60 ef ff ff 	mov    -0x10a0(%rbp),%rax
   14742:	81 f2 12 33 7b 5d    	xor    $0x5d7b3312,%edx
   14748:	89 10                	mov    %edx,(%rax)
   1474a:	48 8b 85 60 ef ff ff 	mov    -0x10a0(%rbp),%rax
   14751:	0f bf 95 6c ee ff ff 	movswl -0x1194(%rbp),%edx
   14758:	89 10                	mov    %edx,(%rax)
   1475a:	48 8b 85 70 ef ff ff 	mov    -0x1090(%rbp),%rax
   14761:	c7 00 fa ff ff ff    	movl   $0xfffffffa,(%rax)
   14767:	83 85 b8 ee ff ff 01 	addl   $0x1,-0x1148(%rbp)
   1476e:	83 bd b8 ee ff ff 1f 	cmpl   $0x1f,-0x1148(%rbp)
   14775:	77 bb                	ja     14732 <func_25+0x2ebd>
   14777:	83 85 f0 ee ff ff 01 	addl   $0x1,-0x1110(%rbp)
   1477e:	48 8b 05 4b d9 00 00 	mov    0xd94b(%rip),%rax        # 220d0 <g_164>
   14785:	98                   	cwtl   
   14786:	be 01 00 00 00       	mov    $0x1,%esi
   1478b:	89 c7                	mov    %eax,%edi
   1478d:	e8 21 4c ff ff       	callq  93b3 <safe_add_func_int16_t_s_s>
   14792:	48 0f bf c0          	movswq %ax,%rax
   14796:	48 89 05 33 d9 00 00 	mov    %rax,0xd933(%rip)        # 220d0 <g_164>
   1479d:	48 8b 05 2c d9 00 00 	mov    0xd92c(%rip),%rax        # 220d0 <g_164>
   147a4:	48 83 f8 1b          	cmp    $0x1b,%rax
   147a8:	0f 87 70 ee ff ff    	ja     1361e <func_25+0x1da9>
   147ae:	0f b7 85 6c ee ff ff 	movzwl -0x1194(%rbp),%eax
   147b5:	0f be c0             	movsbl %al,%eax
   147b8:	be 00 00 00 00       	mov    $0x0,%esi
   147bd:	89 c7                	mov    %eax,%edi
   147bf:	e8 71 4b ff ff       	callq  9335 <safe_rshift_func_int8_t_s_s>
   147c4:	83 c8 f8             	or     $0xfffffff8,%eax
   147c7:	66 0f be d8          	movsbw %al,%bx
   147cb:	48 8b 05 1e 05 01 00 	mov    0x1051e(%rip),%rax        # 24cf0 <g_1216>
   147d2:	48 8b 00             	mov    (%rax),%rax
   147d5:	66 c7 00 00 00       	movw   $0x0,(%rax)
   147da:	be 0b 00 00 00       	mov    $0xb,%esi
   147df:	bf 00 00 00 00       	mov    $0x0,%edi
   147e4:	e8 7a 4d ff ff       	callq  9563 <safe_rshift_func_int16_t_s_u>
   147e9:	66 39 c3             	cmp    %ax,%bx
   147ec:	0f 95 c0             	setne  %al
   147ef:	0f b6 c0             	movzbl %al,%eax
   147f2:	89 c6                	mov    %eax,%esi
   147f4:	bf 01 00 00 00       	mov    $0x1,%edi
   147f9:	e8 7c 56 ff ff       	callq  9e7a <safe_rshift_func_uint16_t_u_u>
   147fe:	0f b7 d0             	movzwl %ax,%edx
   14801:	48 8b 05 80 d8 00 00 	mov    0xd880(%rip),%rax        # 22088 <g_49>
   14808:	48 39 c2             	cmp    %rax,%rdx
   1480b:	0f 9e c0             	setle  %al
   1480e:	0f b6 d0             	movzbl %al,%edx
   14811:	8b 85 90 ee ff ff    	mov    -0x1170(%rbp),%eax
   14817:	09 d0                	or     %edx,%eax
   14819:	89 85 90 ee ff ff    	mov    %eax,-0x1170(%rbp)
   1481f:	48 8b 05 ba 04 01 00 	mov    0x104ba(%rip),%rax        # 24ce0 <g_1125>
   14826:	8b 95 90 ee ff ff    	mov    -0x1170(%rbp),%edx
   1482c:	89 10                	mov    %edx,(%rax)
   1482e:	eb 01                	jmp    14831 <func_25+0x2fbc>
   14830:	90                   	nop
   14831:	48 8b 05 50 d8 00 00 	mov    0xd850(%rip),%rax        # 22088 <g_49>
   14838:	48 83 c0 01          	add    $0x1,%rax
   1483c:	48 89 05 45 d8 00 00 	mov    %rax,0xd845(%rip)        # 22088 <g_49>
   14843:	48 8b 05 3e d8 00 00 	mov    0xd83e(%rip),%rax        # 22088 <g_49>
   1484a:	48 83 f8 11          	cmp    $0x11,%rax
   1484e:	0f 8e 58 d2 ff ff    	jle    11aac <func_25+0x237>
   14854:	eb 07                	jmp    1485d <func_25+0x2fe8>
   14856:	90                   	nop
   14857:	eb 04                	jmp    1485d <func_25+0x2fe8>
   14859:	90                   	nop
   1485a:	eb 01                	jmp    1485d <func_25+0x2fe8>
   1485c:	90                   	nop
   1485d:	66 83 bd 6c ee ff ff 	cmpw   $0x0,-0x1194(%rbp)
   14864:	00 
   14865:	0f b7 05 26 d8 00 00 	movzwl 0xd826(%rip),%eax        # 22092 <g_52>
   1486c:	0f b7 c0             	movzwl %ax,%eax
   1486f:	be 02 00 00 00       	mov    $0x2,%esi
   14874:	89 c7                	mov    %eax,%edi
   14876:	e8 3d 56 ff ff       	callq  9eb8 <safe_add_func_uint32_t_u_u>
   1487b:	66 89 05 10 d8 00 00 	mov    %ax,0xd810(%rip)        # 22092 <g_52>
   14882:	0f b7 05 09 d8 00 00 	movzwl 0xd809(%rip),%eax        # 22092 <g_52>
   14889:	66 83 f8 04          	cmp    $0x4,%ax
   1488d:	0f 86 0f d1 ff ff    	jbe    119a2 <func_25+0x12d>
   14893:	90                   	nop
   14894:	c7 05 26 dc 00 00 e8 	movl   $0xffffffe8,0xdc26(%rip)        # 224c4 <g_1167>
   1489b:	ff ff ff 
   1489e:	e9 1f 0b 00 00       	jmpq   153c2 <func_25+0x3b4d>
   148a3:	66 c7 85 88 ee ff ff 	movw   $0x78b6,-0x1178(%rbp)
   148aa:	b6 78 
   148ac:	48 8d 05 cd 16 01 00 	lea    0x116cd(%rip),%rax        # 25f80 <g_622>
   148b3:	48 89 85 e8 f0 ff ff 	mov    %rax,-0xf18(%rbp)
   148ba:	48 8d 05 c7 02 01 00 	lea    0x102c7(%rip),%rax        # 24b88 <g_974>
   148c1:	48 89 85 60 ef ff ff 	mov    %rax,-0x10a0(%rbp)
   148c8:	48 8d 85 60 ef ff ff 	lea    -0x10a0(%rbp),%rax
   148cf:	48 89 85 68 ef ff ff 	mov    %rax,-0x1098(%rbp)
   148d6:	48 8d 85 68 ef ff ff 	lea    -0x1098(%rbp),%rax
   148dd:	48 89 85 f0 f0 ff ff 	mov    %rax,-0xf10(%rbp)
   148e4:	48 8d 85 60 ef ff ff 	lea    -0x10a0(%rbp),%rax
   148eb:	48 89 85 50 f3 ff ff 	mov    %rax,-0xcb0(%rbp)
   148f2:	48 8d 85 60 ef ff ff 	lea    -0x10a0(%rbp),%rax
   148f9:	48 89 85 58 f3 ff ff 	mov    %rax,-0xca8(%rbp)
   14900:	48 8d 85 60 ef ff ff 	lea    -0x10a0(%rbp),%rax
   14907:	48 89 85 60 f3 ff ff 	mov    %rax,-0xca0(%rbp)
   1490e:	48 8d 85 60 ef ff ff 	lea    -0x10a0(%rbp),%rax
   14915:	48 89 85 68 f3 ff ff 	mov    %rax,-0xc98(%rbp)
   1491c:	48 8d 85 50 f3 ff ff 	lea    -0xcb0(%rbp),%rax
   14923:	48 83 c0 10          	add    $0x10,%rax
   14927:	48 89 85 70 ef ff ff 	mov    %rax,-0x1090(%rbp)
   1492e:	48 c7 85 f8 f0 ff ff 	movq   $0x0,-0xf08(%rbp)
   14935:	00 00 00 00 
   14939:	c7 85 f4 ee ff ff f7 	movl   $0xcd2c01f7,-0x110c(%rbp)
   14940:	01 2c cd 
   14943:	c7 85 90 f5 ff ff 01 	movl   $0x1,-0xa70(%rbp)
   1494a:	00 00 00 
   1494d:	c7 85 94 f5 ff ff b8 	movl   $0x60273bb8,-0xa6c(%rbp)
   14954:	3b 27 60 
   14957:	c7 85 98 f5 ff ff 01 	movl   $0x1,-0xa68(%rbp)
   1495e:	00 00 00 
   14961:	c7 85 9c f5 ff ff 2b 	movl   $0x64f3692b,-0xa64(%rbp)
   14968:	69 f3 64 
   1496b:	c7 85 a0 f5 ff ff 11 	movl   $0xfca92e11,-0xa60(%rbp)
   14972:	2e a9 fc 
   14975:	c7 85 a4 f5 ff ff 00 	movl   $0x0,-0xa5c(%rbp)
   1497c:	00 00 00 
   1497f:	c7 85 a8 f5 ff ff 3a 	movl   $0x86cd623a,-0xa58(%rbp)
   14986:	62 cd 86 
   14989:	c7 85 ac f5 ff ff 01 	movl   $0x1,-0xa54(%rbp)
   14990:	00 00 00 
   14993:	c7 85 b0 f5 ff ff 01 	movl   $0x1,-0xa50(%rbp)
   1499a:	00 00 00 
   1499d:	c7 85 b4 f5 ff ff 00 	movl   $0x0,-0xa4c(%rbp)
   149a4:	00 00 00 
   149a7:	c7 85 b8 f5 ff ff 2b 	movl   $0x64f3692b,-0xa48(%rbp)
   149ae:	69 f3 64 
   149b1:	c7 85 bc f5 ff ff 9b 	movl   $0x9456e19b,-0xa44(%rbp)
   149b8:	e1 56 94 
   149bb:	c7 85 c0 f5 ff ff 00 	movl   $0x0,-0xa40(%rbp)
   149c2:	00 00 00 
   149c5:	c7 85 c4 f5 ff ff 3a 	movl   $0x86cd623a,-0xa3c(%rbp)
   149cc:	62 cd 86 
   149cf:	c7 85 c8 f5 ff ff 26 	movl   $0x87879226,-0xa38(%rbp)
   149d6:	92 87 87 
   149d9:	c7 85 cc f5 ff ff 00 	movl   $0x0,-0xa34(%rbp)
   149e0:	00 00 00 
   149e3:	c7 85 d0 f5 ff ff 00 	movl   $0x0,-0xa30(%rbp)
   149ea:	00 00 00 
   149ed:	c7 85 d4 f5 ff ff ff 	movl   $0xffffffff,-0xa2c(%rbp)
   149f4:	ff ff ff 
   149f7:	c7 85 d8 f5 ff ff 3a 	movl   $0x86cd623a,-0xa28(%rbp)
   149fe:	62 cd 86 
   14a01:	c7 85 dc f5 ff ff 00 	movl   $0x0,-0xa24(%rbp)
   14a08:	00 00 00 
   14a0b:	c7 85 e0 f5 ff ff fc 	movl   $0xfffffffc,-0xa20(%rbp)
   14a12:	ff ff ff 
   14a15:	c7 85 e4 f5 ff ff 2b 	movl   $0x64f3692b,-0xa1c(%rbp)
   14a1c:	69 f3 64 
   14a1f:	c7 85 e8 f5 ff ff 00 	movl   $0x0,-0xa18(%rbp)
   14a26:	00 00 00 
   14a29:	c7 85 ec f5 ff ff 2b 	movl   $0x64f3692b,-0xa14(%rbp)
   14a30:	69 f3 64 
   14a33:	c7 85 f0 f5 ff ff 01 	movl   $0x1,-0xa10(%rbp)
   14a3a:	00 00 00 
   14a3d:	c7 85 f4 f5 ff ff 3a 	movl   $0x86cd623a,-0xa0c(%rbp)
   14a44:	62 cd 86 
   14a47:	c7 85 f8 f5 ff ff b8 	movl   $0x60273bb8,-0xa08(%rbp)
   14a4e:	3b 27 60 
   14a51:	c7 85 fc f5 ff ff 11 	movl   $0xfca92e11,-0xa04(%rbp)
   14a58:	2e a9 fc 
   14a5b:	c7 85 00 f6 ff ff 2b 	movl   $0x64f3692b,-0xa00(%rbp)
   14a62:	69 f3 64 
   14a65:	c7 85 04 f6 ff ff 2b 	movl   $0x64f3692b,-0x9fc(%rbp)
   14a6c:	69 f3 64 
   14a6f:	c7 85 08 f6 ff ff b8 	movl   $0x60273bb8,-0x9f8(%rbp)
   14a76:	3b 27 60 
   14a79:	c7 85 0c f6 ff ff 01 	movl   $0x1,-0x9f4(%rbp)
   14a80:	00 00 00 
   14a83:	c7 85 10 f6 ff ff fc 	movl   $0xfffffffc,-0x9f0(%rbp)
   14a8a:	ff ff ff 
   14a8d:	c7 85 14 f6 ff ff 68 	movl   $0xe9322768,-0x9ec(%rbp)
   14a94:	27 32 e9 
   14a97:	c7 85 18 f6 ff ff 11 	movl   $0xfca92e11,-0x9e8(%rbp)
   14a9e:	2e a9 fc 
   14aa1:	c7 85 1c f6 ff ff ff 	movl   $0xffffffff,-0x9e4(%rbp)
   14aa8:	ff ff ff 
   14aab:	c7 85 20 f6 ff ff b8 	movl   $0x60273bb8,-0x9e0(%rbp)
   14ab2:	3b 27 60 
   14ab5:	c7 85 24 f6 ff ff b8 	movl   $0x60273bb8,-0x9dc(%rbp)
   14abc:	3b 27 60 
   14abf:	c7 85 28 f6 ff ff 26 	movl   $0x87879226,-0x9d8(%rbp)
   14ac6:	92 87 87 
   14ac9:	c7 85 2c f6 ff ff 11 	movl   $0xfca92e11,-0x9d4(%rbp)
   14ad0:	2e a9 fc 
   14ad3:	c7 85 30 f6 ff ff 68 	movl   $0xe9322768,-0x9d0(%rbp)
   14ada:	27 32 e9 
   14add:	c7 85 34 f6 ff ff 9b 	movl   $0x9456e19b,-0x9cc(%rbp)
   14ae4:	e1 56 94 
   14ae7:	c7 85 38 f6 ff ff 01 	movl   $0x1,-0x9c8(%rbp)
   14aee:	00 00 00 
   14af1:	c7 85 3c f6 ff ff b8 	movl   $0x60273bb8,-0x9c4(%rbp)
   14af8:	3b 27 60 
   14afb:	c7 85 40 f6 ff ff 01 	movl   $0x1,-0x9c0(%rbp)
   14b02:	00 00 00 
   14b05:	c7 85 44 f6 ff ff 2b 	movl   $0x64f3692b,-0x9bc(%rbp)
   14b0c:	69 f3 64 
   14b0f:	c7 85 48 f6 ff ff 11 	movl   $0xfca92e11,-0x9b8(%rbp)
   14b16:	2e a9 fc 
   14b19:	c7 85 4c f6 ff ff 00 	movl   $0x0,-0x9b4(%rbp)
   14b20:	00 00 00 
   14b23:	c6 85 80 ee ff ff f1 	movb   $0xf1,-0x1180(%rbp)
   14b2a:	e9 68 08 00 00       	jmpq   15397 <func_25+0x3b22>
   14b2f:	48 8d 05 4a 14 01 00 	lea    0x1144a(%rip),%rax        # 25f80 <g_622>
   14b36:	48 89 85 00 f1 ff ff 	mov    %rax,-0xf00(%rbp)
   14b3d:	48 c7 85 08 f1 ff ff 	movq   $0x1,-0xef8(%rbp)
   14b44:	01 00 00 00 
   14b48:	48 c7 85 10 f1 ff ff 	movq   $0x0,-0xef0(%rbp)
   14b4f:	00 00 00 00 
   14b53:	48 8d 05 14 14 01 00 	lea    0x11414(%rip),%rax        # 25f6e <g_432>
   14b5a:	48 89 85 18 f1 ff ff 	mov    %rax,-0xee8(%rbp)
   14b61:	48 8d 05 05 14 01 00 	lea    0x11405(%rip),%rax        # 25f6d <g_43+0x5>
   14b68:	48 89 85 00 f4 ff ff 	mov    %rax,-0xc00(%rbp)
   14b6f:	48 8d 05 f7 13 01 00 	lea    0x113f7(%rip),%rax        # 25f6d <g_43+0x5>
   14b76:	48 89 85 08 f4 ff ff 	mov    %rax,-0xbf8(%rbp)
   14b7d:	48 8d 05 e9 13 01 00 	lea    0x113e9(%rip),%rax        # 25f6d <g_43+0x5>
   14b84:	48 89 85 10 f4 ff ff 	mov    %rax,-0xbf0(%rbp)
   14b8b:	48 c7 85 18 f4 ff ff 	movq   $0x0,-0xbe8(%rbp)
   14b92:	00 00 00 00 
   14b96:	48 c7 85 20 f4 ff ff 	movq   $0x0,-0xbe0(%rbp)
   14b9d:	00 00 00 00 
   14ba1:	48 c7 85 28 f4 ff ff 	movq   $0x0,-0xbd8(%rbp)
   14ba8:	00 00 00 00 
   14bac:	48 8d 05 ba 13 01 00 	lea    0x113ba(%rip),%rax        # 25f6d <g_43+0x5>
   14bb3:	48 89 85 30 f4 ff ff 	mov    %rax,-0xbd0(%rbp)
   14bba:	48 8d 05 ac 13 01 00 	lea    0x113ac(%rip),%rax        # 25f6d <g_43+0x5>
   14bc1:	48 89 85 38 f4 ff ff 	mov    %rax,-0xbc8(%rbp)
   14bc8:	48 8d 05 9e 13 01 00 	lea    0x1139e(%rip),%rax        # 25f6d <g_43+0x5>
   14bcf:	48 89 85 40 f4 ff ff 	mov    %rax,-0xbc0(%rbp)
   14bd6:	48 c7 85 48 f4 ff ff 	movq   $0x0,-0xbb8(%rbp)
   14bdd:	00 00 00 00 
   14be1:	48 c7 85 50 f4 ff ff 	movq   $0x0,-0xbb0(%rbp)
   14be8:	00 00 00 00 
   14bec:	48 c7 85 58 f4 ff ff 	movq   $0x0,-0xba8(%rbp)
   14bf3:	00 00 00 00 
   14bf7:	48 8d 05 6f 13 01 00 	lea    0x1136f(%rip),%rax        # 25f6d <g_43+0x5>
   14bfe:	48 89 85 60 f4 ff ff 	mov    %rax,-0xba0(%rbp)
   14c05:	48 8d 05 61 13 01 00 	lea    0x11361(%rip),%rax        # 25f6d <g_43+0x5>
   14c0c:	48 89 85 68 f4 ff ff 	mov    %rax,-0xb98(%rbp)
   14c13:	48 8d 05 53 13 01 00 	lea    0x11353(%rip),%rax        # 25f6d <g_43+0x5>
   14c1a:	48 89 85 70 f4 ff ff 	mov    %rax,-0xb90(%rbp)
   14c21:	c7 85 58 ef ff ff 01 	movl   $0x1,-0x10a8(%rbp)
   14c28:	00 00 00 
   14c2b:	66 c7 85 8a ee ff ff 	movw   $0x1,-0x1176(%rbp)
   14c32:	01 00 
   14c34:	c7 85 f8 ee ff ff ce 	movl   $0x31420cce,-0x1108(%rbp)
   14c3b:	0c 42 31 
   14c3e:	c7 85 fc ee ff ff 82 	movl   $0xb290c82,-0x1104(%rbp)
   14c45:	0c 29 0b 
   14c48:	c7 85 00 ef ff ff fa 	movl   $0xfffffffa,-0x1100(%rbp)
   14c4f:	ff ff ff 
   14c52:	c7 85 04 ef ff ff 27 	movl   $0x948f2127,-0x10fc(%rbp)
   14c59:	21 8f 94 
   14c5c:	c6 85 81 ee ff ff 31 	movb   $0x31,-0x117f(%rbp)
   14c63:	c7 85 cc ee ff ff 00 	movl   $0x0,-0x1134(%rbp)
   14c6a:	00 00 00 
   14c6d:	eb 1a                	jmp    14c89 <func_25+0x3414>
   14c6f:	8b 85 cc ee ff ff    	mov    -0x1134(%rbp),%eax
   14c75:	48 98                	cltq   
   14c77:	c7 84 85 c0 f2 ff ff 	movl   $0xd353e49c,-0xd40(%rbp,%rax,4)
   14c7e:	9c e4 53 d3 
   14c82:	83 85 cc ee ff ff 01 	addl   $0x1,-0x1134(%rbp)
   14c89:	83 bd cc ee ff ff 02 	cmpl   $0x2,-0x1134(%rbp)
   14c90:	7e dd                	jle    14c6f <func_25+0x33fa>
   14c92:	48 8b 85 10 ef ff ff 	mov    -0x10f0(%rbp),%rax
   14c99:	8b 00                	mov    (%rax),%eax
   14c9b:	85 c0                	test   %eax,%eax
   14c9d:	0f 84 dd 00 00 00    	je     14d80 <func_25+0x350b>
   14ca3:	0f bf 9d 6c ee ff ff 	movswl -0x1194(%rbp),%ebx
   14caa:	48 8b 05 37 00 01 00 	mov    0x10037(%rip),%rax        # 24ce8 <g_1217>
   14cb1:	0f b7 08             	movzwl (%rax),%ecx
   14cb4:	48 8d 05 5d 13 01 00 	lea    0x1135d(%rip),%rax        # 26018 <g_1134>
   14cbb:	48 39 85 00 f1 ff ff 	cmp    %rax,-0xf00(%rbp)
   14cc2:	0f 95 c0             	setne  %al
   14cc5:	0f b6 d0             	movzbl %al,%edx
   14cc8:	48 8b 05 19 00 01 00 	mov    0x10019(%rip),%rax        # 24ce8 <g_1217>
   14ccf:	31 ca                	xor    %ecx,%edx
   14cd1:	66 89 10             	mov    %dx,(%rax)
   14cd4:	0f b7 85 6c ee ff ff 	movzwl -0x1194(%rbp),%eax
   14cdb:	83 c8 c2             	or     $0xffffffc2,%eax
   14cde:	89 c2                	mov    %eax,%edx
   14ce0:	48 8b 85 18 f1 ff ff 	mov    -0xee8(%rbp),%rax
   14ce7:	88 10                	mov    %dl,(%rax)
   14ce9:	48 8b 85 18 f1 ff ff 	mov    -0xee8(%rbp),%rax
   14cf0:	0f b6 00             	movzbl (%rax),%eax
   14cf3:	0f be c0             	movsbl %al,%eax
   14cf6:	89 85 8c ee ff ff    	mov    %eax,-0x1174(%rbp)
   14cfc:	8b 85 8c ee ff ff    	mov    -0x1174(%rbp),%eax
   14d02:	0f be c0             	movsbl %al,%eax
   14d05:	be 55 00 00 00       	mov    $0x55,%esi
   14d0a:	89 c7                	mov    %eax,%edi
   14d0c:	e8 e1 44 ff ff       	callq  91f2 <safe_sub_func_int8_t_s_s>
   14d11:	83 f0 57             	xor    $0x57,%eax
   14d14:	66 98                	cbtw   
   14d16:	0f b7 d0             	movzwl %ax,%edx
   14d19:	0f b7 85 6c ee ff ff 	movzwl -0x1194(%rbp),%eax
   14d20:	0f b7 c0             	movzwl %ax,%eax
   14d23:	89 d6                	mov    %edx,%esi
   14d25:	89 c7                	mov    %eax,%edi
   14d27:	e8 30 50 ff ff       	callq  9d5c <safe_mod_func_uint16_t_u_u>
   14d2c:	0f b6 c0             	movzbl %al,%eax
   14d2f:	83 e0 3c             	and    $0x3c,%eax
   14d32:	89 de                	mov    %ebx,%esi
   14d34:	89 c7                	mov    %eax,%edi
   14d36:	e8 11 4f ff ff       	callq  9c4c <safe_lshift_func_uint8_t_u_u>
   14d3b:	84 c0                	test   %al,%al
   14d3d:	0f 94 c0             	sete   %al
   14d40:	0f b6 d0             	movzbl %al,%edx
   14d43:	0f bf 85 6c ee ff ff 	movswl -0x1194(%rbp),%eax
   14d4a:	89 d6                	mov    %edx,%esi
   14d4c:	89 c7                	mov    %eax,%edi
   14d4e:	e8 80 46 ff ff       	callq  93d3 <safe_sub_func_int16_t_s_s>
   14d53:	0f bf d0             	movswl %ax,%edx
   14d56:	8b 05 1c d6 00 00    	mov    0xd61c(%rip),%eax        # 22378 <g_546+0x258>
   14d5c:	39 c2                	cmp    %eax,%edx
   14d5e:	48 83 bd e8 f0 ff ff 	cmpq   $0x0,-0xf18(%rbp)
   14d65:	00 
   14d66:	0f 95 c0             	setne  %al
   14d69:	0f b6 d0             	movzbl %al,%edx
   14d6c:	0f bf 85 6c ee ff ff 	movswl -0x1194(%rbp),%eax
   14d73:	21 d0                	and    %edx,%eax
   14d75:	85 c0                	test   %eax,%eax
   14d77:	74 07                	je     14d80 <func_25+0x350b>
   14d79:	ba 01 00 00 00       	mov    $0x1,%edx
   14d7e:	eb 05                	jmp    14d85 <func_25+0x3510>
   14d80:	ba 00 00 00 00       	mov    $0x0,%edx
   14d85:	48 8b 05 f4 06 01 00 	mov    0x106f4(%rip),%rax        # 25480 <g_1346>
   14d8c:	89 10                	mov    %edx,(%rax)
   14d8e:	0f bf 95 6c ee ff ff 	movswl -0x1194(%rbp),%edx
   14d95:	0f bf 85 6c ee ff ff 	movswl -0x1194(%rbp),%eax
   14d9c:	89 d6                	mov    %edx,%esi
   14d9e:	89 c7                	mov    %eax,%edi
   14da0:	e8 3c 47 ff ff       	callq  94e1 <safe_lshift_func_int16_t_s_u>
   14da5:	66 85 c0             	test   %ax,%ax
   14da8:	74 19                	je     14dc3 <func_25+0x354e>
   14daa:	48 8b 05 e7 fd 00 00 	mov    0xfde7(%rip),%rax        # 24b98 <g_1030>
   14db1:	48 8b 00             	mov    (%rax),%rax
   14db4:	8b 00                	mov    (%rax),%eax
   14db6:	85 c0                	test   %eax,%eax
   14db8:	0f 84 53 03 00 00    	je     15111 <func_25+0x389c>
   14dbe:	e9 e1 05 00 00       	jmpq   153a4 <func_25+0x3b2f>
   14dc3:	66 c7 85 84 ee ff ff 	movw   $0x0,-0x117c(%rbp)
   14dca:	00 00 
   14dcc:	48 b8 11 4d 24 5a 81 	movabs $0xe7380815a244d11,%rax
   14dd3:	80 73 0e 
   14dd6:	48 89 85 20 f1 ff ff 	mov    %rax,-0xee0(%rbp)
   14ddd:	c7 85 08 ef ff ff fc 	movl   $0xfffffffc,-0x10f8(%rbp)
   14de4:	ff ff ff 
   14de7:	c7 05 cf d6 00 00 0c 	movl   $0xc,0xd6cf(%rip)        # 224c0 <g_1164>
   14dee:	00 00 00 
   14df1:	e9 0c 03 00 00       	jmpq   15102 <func_25+0x388d>
   14df6:	48 8d 85 70 ef ff ff 	lea    -0x1090(%rbp),%rax
   14dfd:	48 89 85 28 f1 ff ff 	mov    %rax,-0xed8(%rbp)
   14e04:	c7 85 0c ef ff ff 00 	movl   $0x0,-0x10f4(%rbp)
   14e0b:	00 00 00 
   14e0e:	48 8d 05 73 d6 00 00 	lea    0xd673(%rip),%rax        # 22488 <g_615>
   14e15:	48 89 85 30 f1 ff ff 	mov    %rax,-0xed0(%rbp)
   14e1c:	48 8d 85 8c ee ff ff 	lea    -0x1174(%rbp),%rax
   14e23:	48 89 85 38 f1 ff ff 	mov    %rax,-0xec8(%rbp)
   14e2a:	c7 85 d0 ee ff ff 00 	movl   $0x0,-0x1130(%rbp)
   14e31:	00 00 00 
   14e34:	eb 46                	jmp    14e7c <func_25+0x3607>
   14e36:	c7 85 d4 ee ff ff 00 	movl   $0x0,-0x112c(%rbp)
   14e3d:	00 00 00 
   14e40:	eb 2a                	jmp    14e6c <func_25+0x35f7>
   14e42:	8b 85 d4 ee ff ff    	mov    -0x112c(%rbp),%eax
   14e48:	48 63 d0             	movslq %eax,%rdx
   14e4b:	8b 85 d0 ee ff ff    	mov    -0x1130(%rbp),%eax
   14e51:	48 98                	cltq   
   14e53:	48 01 d0             	add    %rdx,%rax
   14e56:	48 8d 15 5b d6 00 00 	lea    0xd65b(%rip),%rdx        # 224b8 <g_1012>
   14e5d:	48 89 94 c5 50 f8 ff 	mov    %rdx,-0x7b0(%rbp,%rax,8)
   14e64:	ff 
   14e65:	83 85 d4 ee ff ff 01 	addl   $0x1,-0x112c(%rbp)
   14e6c:	83 bd d4 ee ff ff 00 	cmpl   $0x0,-0x112c(%rbp)
   14e73:	7e cd                	jle    14e42 <func_25+0x35cd>
   14e75:	83 85 d0 ee ff ff 01 	addl   $0x1,-0x1130(%rbp)
   14e7c:	83 bd d0 ee ff ff 01 	cmpl   $0x1,-0x1130(%rbp)
   14e83:	7e b1                	jle    14e36 <func_25+0x35c1>
   14e85:	66 c7 05 f2 d5 00 00 	movw   $0xffe3,0xd5f2(%rip)        # 22480 <g_570>
   14e8c:	e3 ff 
   14e8e:	e9 85 00 00 00       	jmpq   14f18 <func_25+0x36a3>
   14e93:	48 c7 85 40 f1 ff ff 	movq   $0x0,-0xec0(%rbp)
   14e9a:	00 00 00 00 
   14e9e:	48 c7 85 48 f1 ff ff 	movq   $0x0,-0xeb8(%rbp)
   14ea5:	00 00 00 00 
   14ea9:	48 8d 05 28 d6 00 00 	lea    0xd628(%rip),%rax        # 224d8 <g_1287+0x8>
   14eb0:	48 89 85 50 f1 ff ff 	mov    %rax,-0xeb0(%rbp)
   14eb7:	48 8d 05 1e d6 00 00 	lea    0xd61e(%rip),%rax        # 224dc <g_1287+0xc>
   14ebe:	48 89 85 58 f1 ff ff 	mov    %rax,-0xea8(%rbp)
   14ec5:	48 8d 05 78 d1 00 00 	lea    0xd178(%rip),%rax        # 22044 <g_39>
   14ecc:	48 89 85 60 f1 ff ff 	mov    %rax,-0xea0(%rbp)
   14ed3:	48 c7 85 68 f1 ff ff 	movq   $0x0,-0xe98(%rbp)
   14eda:	00 00 00 00 
   14ede:	48 8d 85 60 f2 ff ff 	lea    -0xda0(%rbp),%rax
   14ee5:	48 89 85 70 f1 ff ff 	mov    %rax,-0xe90(%rbp)
   14eec:	0f b7 85 84 ee ff ff 	movzwl -0x117c(%rbp),%eax
   14ef3:	83 e8 01             	sub    $0x1,%eax
   14ef6:	66 89 85 84 ee ff ff 	mov    %ax,-0x117c(%rbp)
   14efd:	0f b7 05 7c d5 00 00 	movzwl 0xd57c(%rip),%eax        # 22480 <g_570>
   14f04:	98                   	cwtl   
   14f05:	be 01 00 00 00       	mov    $0x1,%esi
   14f0a:	89 c7                	mov    %eax,%edi
   14f0c:	e8 a2 44 ff ff       	callq  93b3 <safe_add_func_int16_t_s_s>
   14f11:	66 89 05 68 d5 00 00 	mov    %ax,0xd568(%rip)        # 22480 <g_570>
   14f18:	0f b7 05 61 d5 00 00 	movzwl 0xd561(%rip),%eax        # 22480 <g_570>
   14f1f:	66 83 f8 15          	cmp    $0x15,%ax
   14f23:	0f 86 6a ff ff ff    	jbe    14e93 <func_25+0x361e>
   14f29:	48 8b 9d 20 f1 ff ff 	mov    -0xee0(%rbp),%rbx
   14f30:	48 8b 05 b1 fd 00 00 	mov    0xfdb1(%rip),%rax        # 24ce8 <g_1217>
   14f37:	0f b7 00             	movzwl (%rax),%eax
   14f3a:	44 0f bf e0          	movswl %ax,%r12d
   14f3e:	48 8b 95 70 ef ff ff 	mov    -0x1090(%rbp),%rdx
   14f45:	48 8b 85 28 f1 ff ff 	mov    -0xed8(%rbp),%rax
   14f4c:	48 89 10             	mov    %rdx,(%rax)
   14f4f:	48 8b 85 28 f1 ff ff 	mov    -0xed8(%rbp),%rax
   14f56:	48 8b 00             	mov    (%rax),%rax
   14f59:	48 39 85 f0 f0 ff ff 	cmp    %rax,-0xf10(%rbp)
   14f60:	48 8b 05 31 fc 00 00 	mov    0xfc31(%rip),%rax        # 24b98 <g_1030>
   14f67:	48 8b 00             	mov    (%rax),%rax
   14f6a:	44 8b 28             	mov    (%rax),%r13d
   14f6d:	48 8b 85 30 f1 ff ff 	mov    -0xed0(%rbp),%rax
   14f74:	0f b7 10             	movzwl (%rax),%edx
   14f77:	48 8b 05 72 fd 00 00 	mov    0xfd72(%rip),%rax        # 24cf0 <g_1216>
   14f7e:	48 8b 00             	mov    (%rax),%rax
   14f81:	0f b7 00             	movzwl (%rax),%eax
   14f84:	21 c2                	and    %eax,%edx
   14f86:	48 8b 85 30 f1 ff ff 	mov    -0xed0(%rbp),%rax
   14f8d:	66 89 10             	mov    %dx,(%rax)
   14f90:	48 8b 85 30 f1 ff ff 	mov    -0xed0(%rbp),%rax
   14f97:	0f b7 00             	movzwl (%rax),%eax
   14f9a:	0f bf d0             	movswl %ax,%edx
   14f9d:	0f b7 85 84 ee ff ff 	movzwl -0x117c(%rbp),%eax
   14fa4:	98                   	cwtl   
   14fa5:	89 d6                	mov    %edx,%esi
   14fa7:	89 c7                	mov    %eax,%edi
   14fa9:	e8 68 44 ff ff       	callq  9416 <safe_mod_func_int16_t_s_s>
   14fae:	8b 85 0c ef ff ff    	mov    -0x10f4(%rbp),%eax
   14fb4:	44 89 ee             	mov    %r13d,%esi
   14fb7:	89 c7                	mov    %eax,%edi
   14fb9:	e8 0e 47 ff ff       	callq  96cc <safe_mod_func_int32_t_s_s>
   14fbe:	44 89 e6             	mov    %r12d,%esi
   14fc1:	bf 00 00 00 00       	mov    $0x0,%edi
   14fc6:	e8 08 44 ff ff       	callq  93d3 <safe_sub_func_int16_t_s_s>
   14fcb:	0f bf 95 6c ee ff ff 	movswl -0x1194(%rbp),%edx
   14fd2:	48 8b 85 38 f1 ff ff 	mov    -0xec8(%rbp),%rax
   14fd9:	89 10                	mov    %edx,(%rax)
   14fdb:	48 8b 85 38 f1 ff ff 	mov    -0xec8(%rbp),%rax
   14fe2:	8b 10                	mov    (%rax),%edx
   14fe4:	48 8b 85 10 ef ff ff 	mov    -0x10f0(%rbp),%rax
   14feb:	8b 00                	mov    (%rax),%eax
   14fed:	0f bf 8d 6c ee ff ff 	movswl -0x1194(%rbp),%ecx
   14ff4:	f7 d1                	not    %ecx
   14ff6:	39 c8                	cmp    %ecx,%eax
   14ff8:	0f 95 c0             	setne  %al
   14ffb:	0f b6 c0             	movzbl %al,%eax
   14ffe:	89 d6                	mov    %edx,%esi
   15000:	89 c7                	mov    %eax,%edi
   15002:	e8 f8 46 ff ff       	callq  96ff <safe_div_func_int32_t_s_s>
   15007:	85 c0                	test   %eax,%eax
   15009:	74 07                	je     15012 <func_25+0x379d>
   1500b:	b8 01 00 00 00       	mov    $0x1,%eax
   15010:	eb 05                	jmp    15017 <func_25+0x37a2>
   15012:	b8 00 00 00 00       	mov    $0x0,%eax
   15017:	48 98                	cltq   
   15019:	48 89 de             	mov    %rbx,%rsi
   1501c:	48 89 c7             	mov    %rax,%rdi
   1501f:	e8 90 49 ff ff       	callq  99b4 <safe_mod_func_int64_t_s_s>
   15024:	48 83 f8 ff          	cmp    $0xffffffffffffffff,%rax
   15028:	0f 95 c0             	setne  %al
   1502b:	0f b6 d0             	movzbl %al,%edx
   1502e:	8b 05 10 d0 00 00    	mov    0xd010(%rip),%eax        # 22044 <g_39>
   15034:	21 d0                	and    %edx,%eax
   15036:	89 05 08 d0 00 00    	mov    %eax,0xd008(%rip)        # 22044 <g_39>
   1503c:	48 8b 05 a5 fc 00 00 	mov    0xfca5(%rip),%rax        # 24ce8 <g_1217>
   15043:	0f b7 00             	movzwl (%rax),%eax
   15046:	0f b7 d8             	movzwl %ax,%ebx
   15049:	66 83 bd 6c ee ff ff 	cmpw   $0x0,-0x1194(%rbp)
   15050:	00 
   15051:	75 7e                	jne    150d1 <func_25+0x385c>
   15053:	48 8b 05 96 fc 00 00 	mov    0xfc96(%rip),%rax        # 24cf0 <g_1216>
   1505a:	48 8b 00             	mov    (%rax),%rax
   1505d:	48 39 85 30 f1 ff ff 	cmp    %rax,-0xed0(%rbp)
   15064:	0f 95 c0             	setne  %al
   15067:	0f b6 c0             	movzbl %al,%eax
   1506a:	89 c6                	mov    %eax,%esi
   1506c:	bf 6d 00 00 00       	mov    $0x6d,%edi
   15071:	e8 e4 4a ff ff       	callq  9b5a <safe_add_func_uint8_t_u_u>
   15076:	48 8d 05 0b fb 00 00 	lea    0xfb0b(%rip),%rax        # 24b88 <g_974>
   1507d:	48 8b 95 90 ef ff ff 	mov    -0x1070(%rbp),%rdx
   15084:	48 89 10             	mov    %rdx,(%rax)
   15087:	48 8b 00             	mov    (%rax),%rax
   1508a:	48 39 85 f8 f0 ff ff 	cmp    %rax,-0xf08(%rbp)
   15091:	0f 95 c0             	setne  %al
   15094:	0f b6 c0             	movzbl %al,%eax
   15097:	89 05 1b d4 00 00    	mov    %eax,0xd41b(%rip)        # 224b8 <g_1012>
   1509d:	48 8b 05 44 04 01 00 	mov    0x10444(%rip),%rax        # 254e8 <g_1394+0x8>
   150a4:	48 85 c0             	test   %rax,%rax
   150a7:	74 15                	je     150be <func_25+0x3849>
   150a9:	48 8b 05 40 fa 00 00 	mov    0xfa40(%rip),%rax        # 24af0 <g_655>
   150b0:	0f b6 00             	movzbl (%rax),%eax
   150b3:	84 c0                	test   %al,%al
   150b5:	74 07                	je     150be <func_25+0x3849>
   150b7:	b8 01 00 00 00       	mov    $0x1,%eax
   150bc:	eb 05                	jmp    150c3 <func_25+0x384e>
   150be:	b8 00 00 00 00       	mov    $0x0,%eax
   150c3:	89 85 8c ee ff ff    	mov    %eax,-0x1174(%rbp)
   150c9:	8b 85 8c ee ff ff    	mov    -0x1174(%rbp),%eax
   150cf:	85 c0                	test   %eax,%eax
   150d1:	89 de                	mov    %ebx,%esi
   150d3:	bf 00 00 00 00       	mov    $0x0,%edi
   150d8:	e8 60 4c ff ff       	callq  9d3d <safe_mul_func_uint16_t_u_u>
   150dd:	0f b7 85 8a ee ff ff 	movzwl -0x1176(%rbp),%eax
   150e4:	8b 95 78 f2 ff ff    	mov    -0xd88(%rbp),%edx
   150ea:	98                   	cwtl   
   150eb:	21 d0                	and    %edx,%eax
   150ed:	89 85 78 f2 ff ff    	mov    %eax,-0xd88(%rbp)
   150f3:	8b 05 c7 d3 00 00    	mov    0xd3c7(%rip),%eax        # 224c0 <g_1164>
   150f9:	83 c0 01             	add    $0x1,%eax
   150fc:	89 05 be d3 00 00    	mov    %eax,0xd3be(%rip)        # 224c0 <g_1164>
   15102:	8b 05 b8 d3 00 00    	mov    0xd3b8(%rip),%eax        # 224c0 <g_1164>
   15108:	83 f8 33             	cmp    $0x33,%eax
   1510b:	0f 85 e5 fc ff ff    	jne    14df6 <func_25+0x3581>
   15111:	66 c7 05 66 d3 00 00 	movw   $0xffe5,0xd366(%rip)        # 22480 <g_570>
   15118:	e5 ff 
   1511a:	e9 4c 02 00 00       	jmpq   1536b <func_25+0x3af6>
   1511f:	48 c7 85 78 f1 ff ff 	movq   $0x0,-0xe88(%rbp)
   15126:	00 00 00 00 
   1512a:	48 8d 05 af d3 00 00 	lea    0xd3af(%rip),%rax        # 224e0 <g_1287+0x10>
   15131:	48 89 85 80 f1 ff ff 	mov    %rax,-0xe80(%rbp)
   15138:	48 8d 85 60 f2 ff ff 	lea    -0xda0(%rbp),%rax
   1513f:	48 89 85 88 f1 ff ff 	mov    %rax,-0xe78(%rbp)
   15146:	48 8d 05 f7 ce 00 00 	lea    0xcef7(%rip),%rax        # 22044 <g_39>
   1514d:	48 89 85 90 f1 ff ff 	mov    %rax,-0xe70(%rbp)
   15154:	48 8d 85 60 f2 ff ff 	lea    -0xda0(%rbp),%rax
   1515b:	48 83 c0 10          	add    $0x10,%rax
   1515f:	48 89 85 98 f1 ff ff 	mov    %rax,-0xe68(%rbp)
   15166:	48 8d 85 58 ef ff ff 	lea    -0x10a8(%rbp),%rax
   1516d:	48 89 85 a0 f1 ff ff 	mov    %rax,-0xe60(%rbp)
   15174:	48 8d 05 61 d3 00 00 	lea    0xd361(%rip),%rax        # 224dc <g_1287+0xc>
   1517b:	48 89 85 a8 f1 ff ff 	mov    %rax,-0xe58(%rbp)
   15182:	48 8d 05 53 d3 00 00 	lea    0xd353(%rip),%rax        # 224dc <g_1287+0xc>
   15189:	48 89 85 b0 f1 ff ff 	mov    %rax,-0xe50(%rbp)
   15190:	48 8d 05 0d cf 00 00 	lea    0xcf0d(%rip),%rax        # 220a4 <g_88>
   15197:	48 89 85 b8 f1 ff ff 	mov    %rax,-0xe48(%rbp)
   1519e:	48 8d 85 60 f2 ff ff 	lea    -0xda0(%rbp),%rax
   151a5:	48 89 85 c0 f1 ff ff 	mov    %rax,-0xe40(%rbp)
   151ac:	48 c7 85 c8 f1 ff ff 	movq   $0x0,-0xe38(%rbp)
   151b3:	00 00 00 00 
   151b7:	48 8d 05 1e d3 00 00 	lea    0xd31e(%rip),%rax        # 224dc <g_1287+0xc>
   151be:	48 89 85 d0 f1 ff ff 	mov    %rax,-0xe30(%rbp)
   151c5:	48 8d 85 60 f2 ff ff 	lea    -0xda0(%rbp),%rax
   151cc:	48 83 c0 14          	add    $0x14,%rax
   151d0:	48 89 85 d8 f1 ff ff 	mov    %rax,-0xe28(%rbp)
   151d7:	48 8d 05 f6 d2 00 00 	lea    0xd2f6(%rip),%rax        # 224d4 <g_1287+0x4>
   151de:	48 89 85 e0 f1 ff ff 	mov    %rax,-0xe20(%rbp)
   151e5:	48 8d 85 58 ef ff ff 	lea    -0x10a8(%rbp),%rax
   151ec:	48 89 85 e8 f1 ff ff 	mov    %rax,-0xe18(%rbp)
   151f3:	48 8d 85 60 f2 ff ff 	lea    -0xda0(%rbp),%rax
   151fa:	48 83 c0 20          	add    $0x20,%rax
   151fe:	48 89 85 f0 f1 ff ff 	mov    %rax,-0xe10(%rbp)
   15205:	48 8d 85 8c ee ff ff 	lea    -0x1174(%rbp),%rax
   1520c:	48 89 85 f8 f1 ff ff 	mov    %rax,-0xe08(%rbp)
   15213:	48 8d 05 2a ce 00 00 	lea    0xce2a(%rip),%rax        # 22044 <g_39>
   1521a:	48 89 85 00 f2 ff ff 	mov    %rax,-0xe00(%rbp)
   15221:	48 c7 85 a0 f3 ff ff 	movq   $0x0,-0xc60(%rbp)
   15228:	00 00 00 00 
   1522c:	48 c7 85 a8 f3 ff ff 	movq   $0x0,-0xc58(%rbp)
   15233:	00 00 00 00 
   15237:	48 8d 05 66 ce 00 00 	lea    0xce66(%rip),%rax        # 220a4 <g_88>
   1523e:	48 89 85 b0 f3 ff ff 	mov    %rax,-0xc50(%rbp)
   15245:	48 8d 05 f8 cd 00 00 	lea    0xcdf8(%rip),%rax        # 22044 <g_39>
   1524c:	48 89 85 b8 f3 ff ff 	mov    %rax,-0xc48(%rbp)
   15253:	48 8d 05 4a ce 00 00 	lea    0xce4a(%rip),%rax        # 220a4 <g_88>
   1525a:	48 89 85 c0 f3 ff ff 	mov    %rax,-0xc40(%rbp)
   15261:	48 c7 85 c8 f3 ff ff 	movq   $0x0,-0xc38(%rbp)
   15268:	00 00 00 00 
   1526c:	48 8d 05 31 ce 00 00 	lea    0xce31(%rip),%rax        # 220a4 <g_88>
   15273:	48 89 85 d0 f3 ff ff 	mov    %rax,-0xc30(%rbp)
   1527a:	48 8d 85 60 f2 ff ff 	lea    -0xda0(%rbp),%rax
   15281:	48 83 c0 18          	add    $0x18,%rax
   15285:	48 89 85 d8 f3 ff ff 	mov    %rax,-0xc28(%rbp)
   1528c:	48 8d 05 b1 cd 00 00 	lea    0xcdb1(%rip),%rax        # 22044 <g_39>
   15293:	48 89 85 e0 f3 ff ff 	mov    %rax,-0xc20(%rbp)
   1529a:	48 8d 05 a3 cd 00 00 	lea    0xcda3(%rip),%rax        # 22044 <g_39>
   152a1:	48 89 85 e8 f3 ff ff 	mov    %rax,-0xc18(%rbp)
   152a8:	48 8d 85 60 f2 ff ff 	lea    -0xda0(%rbp),%rax
   152af:	48 83 c0 18          	add    $0x18,%rax
   152b3:	48 89 85 f0 f3 ff ff 	mov    %rax,-0xc10(%rbp)
   152ba:	48 8d 05 e3 cd 00 00 	lea    0xcde3(%rip),%rax        # 220a4 <g_88>
   152c1:	48 89 85 f8 f3 ff ff 	mov    %rax,-0xc08(%rbp)
   152c8:	c7 85 d8 ee ff ff 00 	movl   $0x0,-0x1128(%rbp)
   152cf:	00 00 00 
   152d2:	eb 54                	jmp    15328 <func_25+0x3ab3>
   152d4:	c7 85 dc ee ff ff 00 	movl   $0x0,-0x1124(%rbp)
   152db:	00 00 00 
   152de:	eb 38                	jmp    15318 <func_25+0x3aa3>
   152e0:	8b 85 dc ee ff ff    	mov    -0x1124(%rbp),%eax
   152e6:	48 63 c8             	movslq %eax,%rcx
   152e9:	8b 85 d8 ee ff ff    	mov    -0x1128(%rbp),%eax
   152ef:	48 63 d0             	movslq %eax,%rdx
   152f2:	48 89 d0             	mov    %rdx,%rax
   152f5:	48 c1 e0 02          	shl    $0x2,%rax
   152f9:	48 01 d0             	add    %rdx,%rax
   152fc:	48 01 c0             	add    %rax,%rax
   152ff:	48 01 c8             	add    %rcx,%rax
   15302:	48 8d 15 df 01 01 00 	lea    0x101df(%rip),%rdx        # 254e8 <g_1394+0x8>
   15309:	48 89 94 c5 50 f8 ff 	mov    %rdx,-0x7b0(%rbp,%rax,8)
   15310:	ff 
   15311:	83 85 dc ee ff ff 01 	addl   $0x1,-0x1124(%rbp)
   15318:	83 bd dc ee ff ff 09 	cmpl   $0x9,-0x1124(%rbp)
   1531f:	7e bf                	jle    152e0 <func_25+0x3a6b>
   15321:	83 85 d8 ee ff ff 01 	addl   $0x1,-0x1128(%rbp)
   15328:	83 bd d8 ee ff ff 03 	cmpl   $0x3,-0x1128(%rbp)
   1532f:	7e a3                	jle    152d4 <func_25+0x3a5f>
   15331:	48 c7 85 98 ef ff ff 	movq   $0x0,-0x1068(%rbp)
   15338:	00 00 00 00 
   1533c:	48 8b 85 98 ef ff ff 	mov    -0x1068(%rbp),%rax
   15343:	48 89 05 9e 01 01 00 	mov    %rax,0x1019e(%rip)        # 254e8 <g_1394+0x8>
   1534a:	0f b6 85 81 ee ff ff 	movzbl -0x117f(%rbp),%eax
   15351:	83 c0 01             	add    $0x1,%eax
   15354:	88 85 81 ee ff ff    	mov    %al,-0x117f(%rbp)
   1535a:	0f b7 05 1f d1 00 00 	movzwl 0xd11f(%rip),%eax        # 22480 <g_570>
   15361:	83 c0 01             	add    $0x1,%eax
   15364:	66 89 05 15 d1 00 00 	mov    %ax,0xd115(%rip)        # 22480 <g_570>
   1536b:	0f b7 05 0e d1 00 00 	movzwl 0xd10e(%rip),%eax        # 22480 <g_570>
   15372:	66 83 f8 1e          	cmp    $0x1e,%ax
   15376:	0f 86 a3 fd ff ff    	jbe    1511f <func_25+0x38aa>
   1537c:	48 0f be 85 80 ee ff 	movsbq -0x1180(%rbp),%rax
   15383:	ff 
   15384:	be 09 00 00 00       	mov    $0x9,%esi
   15389:	48 89 c7             	mov    %rax,%rdi
   1538c:	e8 b0 44 ff ff       	callq  9841 <safe_add_func_int64_t_s_s>
   15391:	88 85 80 ee ff ff    	mov    %al,-0x1180(%rbp)
   15397:	80 bd 80 ee ff ff 0c 	cmpb   $0xc,-0x1180(%rbp)
   1539e:	0f 85 8b f7 ff ff    	jne    14b2f <func_25+0x32ba>
   153a4:	8b 05 1a d1 00 00    	mov    0xd11a(%rip),%eax        # 224c4 <g_1167>
   153aa:	0f b7 c0             	movzwl %ax,%eax
   153ad:	be 06 00 00 00       	mov    $0x6,%esi
   153b2:	89 c7                	mov    %eax,%edi
   153b4:	e8 46 49 ff ff       	callq  9cff <safe_add_func_uint16_t_u_u>
   153b9:	0f b7 c0             	movzwl %ax,%eax
   153bc:	89 05 02 d1 00 00    	mov    %eax,0xd102(%rip)        # 224c4 <g_1167>
   153c2:	8b 05 fc d0 00 00    	mov    0xd0fc(%rip),%eax        # 224c4 <g_1167>
   153c8:	83 f8 f9             	cmp    $0xfffffff9,%eax
   153cb:	0f 85 d2 f4 ff ff    	jne    148a3 <func_25+0x302e>
   153d1:	0f b6 05 0c d1 00 00 	movzbl 0xd10c(%rip),%eax        # 224e4 <g_1434>
   153d8:	83 e8 01             	sub    $0x1,%eax
   153db:	88 05 03 d1 00 00    	mov    %al,0xd103(%rip)        # 224e4 <g_1434>
   153e1:	48 8b 05 28 ef 00 00 	mov    0xef28(%rip),%rax        # 24310 <g_197>
   153e8:	48 8b 00             	mov    (%rax),%rax
   153eb:	0f b7 00             	movzwl (%rax),%eax
   153ee:	48 8b 4d d8          	mov    -0x28(%rbp),%rcx
   153f2:	64 48 33 0c 25 28 00 	xor    %fs:0x28,%rcx
   153f9:	00 00 
   153fb:	74 05                	je     15402 <func_25+0x3b8d>
   153fd:	e8 6e 3c ff ff       	callq  9070 <__stack_chk_fail@plt>
   15402:	48 81 c4 80 11 00 00 	add    $0x1180,%rsp
   15409:	5b                   	pop    %rbx
   1540a:	41 5c                	pop    %r12
   1540c:	41 5d                	pop    %r13
   1540e:	41 5e                	pop    %r14
   15410:	5d                   	pop    %rbp
   15411:	c3                   	retq   

0000000000015412 <func_35>:
   15412:	f3 0f 1e fa          	endbr64 
   15416:	55                   	push   %rbp
   15417:	48 89 e5             	mov    %rsp,%rbp
   1541a:	48 83 ec 40          	sub    $0x40,%rsp
   1541e:	89 7d cc             	mov    %edi,-0x34(%rbp)
   15421:	64 48 8b 04 25 28 00 	mov    %fs:0x28,%rax
   15428:	00 00 
   1542a:	48 89 45 f8          	mov    %rax,-0x8(%rbp)
   1542e:	31 c0                	xor    %eax,%eax
   15430:	48 8d 05 09 cc 00 00 	lea    0xcc09(%rip),%rax        # 22040 <g_2+0x10>
   15437:	48 89 45 d8          	mov    %rax,-0x28(%rbp)
   1543b:	48 c7 45 e0 00 00 00 	movq   $0x0,-0x20(%rbp)
   15442:	00 
   15443:	48 c7 45 e8 00 00 00 	movq   $0x0,-0x18(%rbp)
   1544a:	00 
   1544b:	48 8d 45 d8          	lea    -0x28(%rbp),%rax
   1544f:	48 89 45 f0          	mov    %rax,-0x10(%rbp)
   15453:	48 8b 55 d8          	mov    -0x28(%rbp),%rdx
   15457:	48 8b 45 f0          	mov    -0x10(%rbp),%rax
   1545b:	48 89 10             	mov    %rdx,(%rax)
   1545e:	8b 45 cc             	mov    -0x34(%rbp),%eax
   15461:	48 8b 4d f8          	mov    -0x8(%rbp),%rcx
   15465:	64 48 33 0c 25 28 00 	xor    %fs:0x28,%rcx
   1546c:	00 00 
   1546e:	74 05                	je     15475 <func_35+0x63>
   15470:	e8 fb 3b ff ff       	callq  9070 <__stack_chk_fail@plt>
   15475:	c9                   	leaveq 
   15476:	c3                   	retq   

0000000000015477 <func_61>:
   15477:	f3 0f 1e fa          	endbr64 
   1547b:	55                   	push   %rbp
   1547c:	48 89 e5             	mov    %rsp,%rbp
   1547f:	41 56                	push   %r14
   15481:	41 55                	push   %r13
   15483:	41 54                	push   %r12
   15485:	53                   	push   %rbx
   15486:	48 81 ec 30 03 00 00 	sub    $0x330,%rsp
   1548d:	40 88 bd bf fc ff ff 	mov    %dil,-0x341(%rbp)
   15494:	64 48 8b 04 25 28 00 	mov    %fs:0x28,%rax
   1549b:	00 00 
   1549d:	48 89 45 d8          	mov    %rax,-0x28(%rbp)
   154a1:	31 c0                	xor    %eax,%eax
   154a3:	66 c7 85 ce fc ff ff 	movw   $0xf8da,-0x332(%rbp)
   154aa:	da f8 
   154ac:	48 8d 05 89 cb 00 00 	lea    0xcb89(%rip),%rax        # 2203c <g_2+0xc>
   154b3:	48 89 85 20 fd ff ff 	mov    %rax,-0x2e0(%rbp)
   154ba:	66 c7 85 d0 fc ff ff 	movw   $0xffff,-0x330(%rbp)
   154c1:	ff ff 
   154c3:	c7 85 d8 fc ff ff 32 	movl   $0x59e75832,-0x328(%rbp)
   154ca:	58 e7 59 
   154cd:	48 8d 05 ec f5 00 00 	lea    0xf5ec(%rip),%rax        # 24ac0 <g_332>
   154d4:	48 89 85 e8 fc ff ff 	mov    %rax,-0x318(%rbp)
   154db:	48 8d 85 e8 fc ff ff 	lea    -0x318(%rbp),%rax
   154e2:	48 89 85 28 fd ff ff 	mov    %rax,-0x2d8(%rbp)
   154e9:	48 b8 05 4f 05 05 4f 	movabs $0x4f05054f05054f05,%rax
   154f0:	05 05 4f 
   154f3:	48 89 45 cf          	mov    %rax,-0x31(%rbp)
   154f7:	c6 45 d7 05          	movb   $0x5,-0x29(%rbp)
   154fb:	48 8d 05 96 cf 00 00 	lea    0xcf96(%rip),%rax        # 22498 <g_779>
   15502:	48 89 85 f0 fc ff ff 	mov    %rax,-0x310(%rbp)
   15509:	48 8d 85 f0 fc ff ff 	lea    -0x310(%rbp),%rax
   15510:	48 89 85 30 fd ff ff 	mov    %rax,-0x2d0(%rbp)
   15517:	48 b8 9e 4b 83 7a cc 	movabs $0xbd36c6cc7a834b9e,%rax
   1551e:	c6 36 bd 
   15521:	48 89 85 38 fd ff ff 	mov    %rax,-0x2c8(%rbp)
   15528:	48 8d 85 b0 fe ff ff 	lea    -0x150(%rbp),%rax
   1552f:	48 8d 15 2a d7 00 00 	lea    0xd72a(%rip),%rdx        # 22c60 <g_2474+0x736>
   15536:	b9 23 00 00 00       	mov    $0x23,%ecx
   1553b:	48 89 c7             	mov    %rax,%rdi
   1553e:	48 89 d6             	mov    %rdx,%rsi
   15541:	f3 48 a5             	rep movsq %ds:(%rsi),%es:(%rdi)
   15544:	48 8d 05 3d f6 00 00 	lea    0xf63d(%rip),%rax        # 24b88 <g_974>
   1554b:	48 89 85 f8 fc ff ff 	mov    %rax,-0x308(%rbp)
   15552:	48 8d 85 f8 fc ff ff 	lea    -0x308(%rbp),%rax
   15559:	48 89 85 00 fd ff ff 	mov    %rax,-0x300(%rbp)
   15560:	48 8d 85 00 fd ff ff 	lea    -0x300(%rbp),%rax
   15567:	48 89 85 40 fd ff ff 	mov    %rax,-0x2c0(%rbp)
   1556e:	48 8d 05 43 cf 00 00 	lea    0xcf43(%rip),%rax        # 224b8 <g_1012>
   15575:	48 89 85 48 fd ff ff 	mov    %rax,-0x2b8(%rbp)
   1557c:	48 8d 05 05 cf 00 00 	lea    0xcf05(%rip),%rax        # 22488 <g_615>
   15583:	48 89 85 50 fd ff ff 	mov    %rax,-0x2b0(%rbp)
   1558a:	c7 85 dc fc ff ff 01 	movl   $0x1,-0x324(%rbp)
   15591:	00 00 00 
   15594:	c7 85 d4 fc ff ff 00 	movl   $0x0,-0x32c(%rbp)
   1559b:	00 00 00 
   1559e:	eb 1a                	jmp    155ba <func_61+0x143>
   155a0:	8b 85 d4 fc ff ff    	mov    -0x32c(%rbp),%eax
   155a6:	48 98                	cltq   
   155a8:	c7 84 85 c0 fd ff ff 	movl   $0xef599fda,-0x240(%rbp,%rax,4)
   155af:	da 9f 59 ef 
   155b3:	83 85 d4 fc ff ff 01 	addl   $0x1,-0x32c(%rbp)
   155ba:	83 bd d4 fc ff ff 06 	cmpl   $0x6,-0x32c(%rbp)
   155c1:	7e dd                	jle    155a0 <func_61+0x129>
   155c3:	c7 05 77 ca 00 00 ea 	movl   $0xffffffea,0xca77(%rip)        # 22044 <g_39>
   155ca:	ff ff ff 
   155cd:	e9 50 01 00 00       	jmpq   15722 <func_61+0x2ab>
   155d2:	48 8d 05 8f 09 01 00 	lea    0x1098f(%rip),%rax        # 25f68 <g_43>
   155d9:	48 89 85 70 fd ff ff 	mov    %rax,-0x290(%rbp)
   155e0:	48 8d 05 ab ca 00 00 	lea    0xcaab(%rip),%rax        # 22092 <g_52>
   155e7:	48 89 85 e0 fd ff ff 	mov    %rax,-0x220(%rbp)
   155ee:	48 8d 05 9d ca 00 00 	lea    0xca9d(%rip),%rax        # 22092 <g_52>
   155f5:	48 89 85 e8 fd ff ff 	mov    %rax,-0x218(%rbp)
   155fc:	48 8d 05 8f ca 00 00 	lea    0xca8f(%rip),%rax        # 22092 <g_52>
   15603:	48 89 85 f0 fd ff ff 	mov    %rax,-0x210(%rbp)
   1560a:	48 8d 05 81 ca 00 00 	lea    0xca81(%rip),%rax        # 22092 <g_52>
   15611:	48 89 85 f8 fd ff ff 	mov    %rax,-0x208(%rbp)
   15618:	48 8d 05 73 ca 00 00 	lea    0xca73(%rip),%rax        # 22092 <g_52>
   1561f:	48 89 85 00 fe ff ff 	mov    %rax,-0x200(%rbp)
   15626:	48 8d 05 65 ca 00 00 	lea    0xca65(%rip),%rax        # 22092 <g_52>
   1562d:	48 89 85 08 fe ff ff 	mov    %rax,-0x1f8(%rbp)
   15634:	48 8d 05 57 ca 00 00 	lea    0xca57(%rip),%rax        # 22092 <g_52>
   1563b:	48 89 85 10 fe ff ff 	mov    %rax,-0x1f0(%rbp)
   15642:	48 8d 85 e0 fd ff ff 	lea    -0x220(%rbp),%rax
   15649:	48 83 c0 30          	add    $0x30,%rax
   1564d:	48 89 85 78 fd ff ff 	mov    %rax,-0x288(%rbp)
   15654:	48 8d 05 49 ca 00 00 	lea    0xca49(%rip),%rax        # 220a4 <g_88>
   1565b:	48 89 85 80 fd ff ff 	mov    %rax,-0x280(%rbp)
   15662:	48 8d 05 57 f4 00 00 	lea    0xf457(%rip),%rax        # 24ac0 <g_332>
   15669:	48 89 85 88 fd ff ff 	mov    %rax,-0x278(%rbp)
   15670:	48 8d 05 49 f4 00 00 	lea    0xf449(%rip),%rax        # 24ac0 <g_332>
   15677:	48 89 85 08 fd ff ff 	mov    %rax,-0x2f8(%rbp)
   1567e:	c6 85 cd fc ff ff fd 	movb   $0xfd,-0x333(%rbp)
   15685:	48 8d 85 08 fd ff ff 	lea    -0x2f8(%rbp),%rax
   1568c:	48 89 85 90 fd ff ff 	mov    %rax,-0x270(%rbp)
   15693:	c6 85 cc fc ff ff fb 	movb   $0xfb,-0x334(%rbp)
   1569a:	66 c7 85 d2 fc ff ff 	movw   $0x3626,-0x32e(%rbp)
   156a1:	26 36 
   156a3:	c7 85 e0 fc ff ff 97 	movl   $0x38ef7e97,-0x320(%rbp)
   156aa:	7e ef 38 
   156ad:	c7 85 e4 fc ff ff f8 	movl   $0xfffffff8,-0x31c(%rbp)
   156b4:	ff ff ff 
   156b7:	c7 85 a0 fd ff ff f1 	movl   $0x28f48af1,-0x260(%rbp)
   156be:	8a f4 28 
   156c1:	c7 85 a4 fd ff ff f1 	movl   $0x28f48af1,-0x25c(%rbp)
   156c8:	8a f4 28 
   156cb:	c7 85 a8 fd ff ff f1 	movl   $0x28f48af1,-0x258(%rbp)
   156d2:	8a f4 28 
   156d5:	c7 85 ac fd ff ff f1 	movl   $0x28f48af1,-0x254(%rbp)
   156dc:	8a f4 28 
   156df:	c7 85 b0 fd ff ff f1 	movl   $0x28f48af1,-0x250(%rbp)
   156e6:	8a f4 28 
   156e9:	48 8d 05 c4 cd 00 00 	lea    0xcdc4(%rip),%rax        # 224b4 <g_946>
   156f0:	48 89 85 10 fd ff ff 	mov    %rax,-0x2f0(%rbp)
   156f7:	48 8d 85 10 fd ff ff 	lea    -0x2f0(%rbp),%rax
   156fe:	48 89 85 18 fd ff ff 	mov    %rax,-0x2e8(%rbp)
   15705:	48 8d 85 18 fd ff ff 	lea    -0x2e8(%rbp),%rax
   1570c:	48 89 85 98 fd ff ff 	mov    %rax,-0x268(%rbp)
   15713:	8b 05 2b c9 00 00    	mov    0xc92b(%rip),%eax        # 22044 <g_39>
   15719:	83 c0 01             	add    $0x1,%eax
   1571c:	89 05 22 c9 00 00    	mov    %eax,0xc922(%rip)        # 22044 <g_39>
   15722:	8b 05 1c c9 00 00    	mov    0xc91c(%rip),%eax        # 22044 <g_39>
   15728:	83 f8 f8             	cmp    $0xfffffff8,%eax
   1572b:	0f 8d a1 fe ff ff    	jge    155d2 <func_61+0x15b>
   15731:	48 8b 05 c0 f3 00 00 	mov    0xf3c0(%rip),%rax        # 24af8 <g_654>
   15738:	48 8b 00             	mov    (%rax),%rax
   1573b:	48 8d 05 4e f4 00 00 	lea    0xf44e(%rip),%rax        # 24b90 <g_972>
   15742:	48 39 85 40 fd ff ff 	cmp    %rax,-0x2c0(%rbp)
   15749:	0f 95 c0             	setne  %al
   1574c:	44 0f b6 e0          	movzbl %al,%r12d
   15750:	48 8b 85 20 fd ff ff 	mov    -0x2e0(%rbp),%rax
   15757:	8b 00                	mov    (%rax),%eax
   15759:	41 89 c6             	mov    %eax,%r14d
   1575c:	0f b6 85 bf fc ff ff 	movzbl -0x341(%rbp),%eax
   15763:	0f b6 d8             	movzbl %al,%ebx
   15766:	0f b6 85 bf fc ff ff 	movzbl -0x341(%rbp),%eax
   1576d:	0f b6 c0             	movzbl %al,%eax
   15770:	89 85 c4 fd ff ff    	mov    %eax,-0x23c(%rbp)
   15776:	8b 85 c4 fd ff ff    	mov    -0x23c(%rbp),%eax
   1577c:	4c 63 e8             	movslq %eax,%r13
   1577f:	48 8b 85 20 fd ff ff 	mov    -0x2e0(%rbp),%rax
   15786:	8b 10                	mov    (%rax),%edx
   15788:	48 8b 85 48 fd ff ff 	mov    -0x2b8(%rbp),%rax
   1578f:	c7 00 fe ff ff ff    	movl   $0xfffffffe,(%rax)
   15795:	48 8b 85 48 fd ff ff 	mov    -0x2b8(%rbp),%rax
   1579c:	8b 08                	mov    (%rax),%ecx
   1579e:	48 8b 85 20 fd ff ff 	mov    -0x2e0(%rbp),%rax
   157a5:	8b 00                	mov    (%rax),%eax
   157a7:	39 c1                	cmp    %eax,%ecx
   157a9:	72 0b                	jb     157b6 <func_61+0x33f>
   157ab:	0f b6 85 bf fc ff ff 	movzbl -0x341(%rbp),%eax
   157b2:	84 c0                	test   %al,%al
   157b4:	74 07                	je     157bd <func_61+0x346>
   157b6:	b9 01 00 00 00       	mov    $0x1,%ecx
   157bb:	eb 05                	jmp    157c2 <func_61+0x34b>
   157bd:	b9 00 00 00 00       	mov    $0x0,%ecx
   157c2:	48 8b 85 20 fd ff ff 	mov    -0x2e0(%rbp),%rax
   157c9:	8b 00                	mov    (%rax),%eax
   157cb:	39 c1                	cmp    %eax,%ecx
   157cd:	0f 9e c0             	setle  %al
   157d0:	0f b6 c0             	movzbl %al,%eax
   157d3:	21 d0                	and    %edx,%eax
   157d5:	48 98                	cltq   
   157d7:	89 c1                	mov    %eax,%ecx
   157d9:	48 8b 85 40 fd ff ff 	mov    -0x2c0(%rbp),%rax
   157e0:	48 8b 00             	mov    (%rax),%rax
   157e3:	48 8d 15 b6 c4 00 00 	lea    0xc4b6(%rip),%rdx        # 21ca0 <g_973>
   157ea:	48 39 d0             	cmp    %rdx,%rax
   157ed:	0f 95 c0             	setne  %al
   157f0:	0f b6 c0             	movzbl %al,%eax
   157f3:	48 89 ce             	mov    %rcx,%rsi
   157f6:	48 89 c7             	mov    %rax,%rdi
   157f9:	e8 f9 41 ff ff       	callq  99f7 <safe_div_func_int64_t_s_s>
   157fe:	49 39 c5             	cmp    %rax,%r13
   15801:	0f 9e c0             	setle  %al
   15804:	0f b6 c0             	movzbl %al,%eax
   15807:	48 89 de             	mov    %rbx,%rsi
   1580a:	48 89 c7             	mov    %rax,%rdi
   1580d:	e8 1c 48 ff ff       	callq  a02e <safe_add_func_uint64_t_u_u>
   15812:	0f be c0             	movsbl %al,%eax
   15815:	89 c7                	mov    %eax,%edi
   15817:	e8 a3 39 ff ff       	callq  91bf <safe_unary_minus_func_int8_t_s>
   1581c:	84 c0                	test   %al,%al
   1581e:	75 0f                	jne    1582f <func_61+0x3b8>
   15820:	48 8b 05 a9 f2 00 00 	mov    0xf2a9(%rip),%rax        # 24ad0 <g_464>
   15827:	48 8b 00             	mov    (%rax),%rax
   1582a:	48 85 c0             	test   %rax,%rax
   1582d:	74 07                	je     15836 <func_61+0x3bf>
   1582f:	b8 01 00 00 00       	mov    $0x1,%eax
   15834:	eb 05                	jmp    1583b <func_61+0x3c4>
   15836:	b8 00 00 00 00       	mov    $0x0,%eax
   1583b:	48 98                	cltq   
   1583d:	48 c7 c6 f9 ff ff ff 	mov    $0xfffffffffffffff9,%rsi
   15844:	48 89 c7             	mov    %rax,%rdi
   15847:	e8 34 48 ff ff       	callq  a080 <safe_mod_func_uint64_t_u_u>
   1584c:	ba 00 00 00 00       	mov    $0x0,%edx
   15851:	48 63 d2             	movslq %edx,%rdx
   15854:	48 39 d0             	cmp    %rdx,%rax
   15857:	0f 95 c0             	setne  %al
   1585a:	0f b6 c0             	movzbl %al,%eax
   1585d:	44 89 f6             	mov    %r14d,%esi
   15860:	89 c7                	mov    %eax,%edi
   15862:	e8 13 46 ff ff       	callq  9e7a <safe_rshift_func_uint16_t_u_u>
   15867:	89 c2                	mov    %eax,%edx
   15869:	48 8b 85 50 fd ff ff 	mov    -0x2b0(%rbp),%rax
   15870:	66 89 10             	mov    %dx,(%rax)
   15873:	48 8b 85 50 fd ff ff 	mov    -0x2b0(%rbp),%rax
   1587a:	0f b7 00             	movzwl (%rax),%eax
   1587d:	98                   	cwtl   
   1587e:	44 09 e0             	or     %r12d,%eax
   15881:	89 85 dc fc ff ff    	mov    %eax,-0x324(%rbp)
   15887:	c7 85 dc fc ff ff 05 	movl   $0x5,-0x324(%rbp)
   1588e:	00 00 00 
   15891:	83 bd dc fc ff ff 08 	cmpl   $0x8,-0x324(%rbp)
   15898:	0f 8f b6 02 00 00    	jg     15b54 <func_61+0x6dd>
   1589e:	48 8d 05 13 c8 00 00 	lea    0xc813(%rip),%rax        # 220b8 <g_148>
   158a5:	48 89 85 58 fd ff ff 	mov    %rax,-0x2a8(%rbp)
   158ac:	c7 85 e0 fd ff ff 5a 	movl   $0x7f68b15a,-0x220(%rbp)
   158b3:	b1 68 7f 
   158b6:	c7 85 e4 fd ff ff f1 	movl   $0xe0b3ecf1,-0x21c(%rbp)
   158bd:	ec b3 e0 
   158c0:	c7 85 e8 fd ff ff 5a 	movl   $0x7f68b15a,-0x218(%rbp)
   158c7:	b1 68 7f 
   158ca:	c7 85 ec fd ff ff f1 	movl   $0xe0b3ecf1,-0x214(%rbp)
   158d1:	ec b3 e0 
   158d4:	c7 85 f0 fd ff ff 5a 	movl   $0x7f68b15a,-0x210(%rbp)
   158db:	b1 68 7f 
   158de:	c7 85 f4 fd ff ff f1 	movl   $0xe0b3ecf1,-0x20c(%rbp)
   158e5:	ec b3 e0 
   158e8:	c7 85 f8 fd ff ff 5a 	movl   $0x7f68b15a,-0x208(%rbp)
   158ef:	b1 68 7f 
   158f2:	c7 85 fc fd ff ff f1 	movl   $0xe0b3ecf1,-0x204(%rbp)
   158f9:	ec b3 e0 
   158fc:	c7 85 00 fe ff ff 5a 	movl   $0x7f68b15a,-0x200(%rbp)
   15903:	b1 68 7f 
   15906:	c7 85 04 fe ff ff f1 	movl   $0xe0b3ecf1,-0x1fc(%rbp)
   1590d:	ec b3 e0 
   15910:	c7 85 08 fe ff ff 5a 	movl   $0x7f68b15a,-0x1f8(%rbp)
   15917:	b1 68 7f 
   1591a:	c7 85 0c fe ff ff f1 	movl   $0xe0b3ecf1,-0x1f4(%rbp)
   15921:	ec b3 e0 
   15924:	c7 85 10 fe ff ff 5a 	movl   $0x7f68b15a,-0x1f0(%rbp)
   1592b:	b1 68 7f 
   1592e:	c7 85 14 fe ff ff f1 	movl   $0xe0b3ecf1,-0x1ec(%rbp)
   15935:	ec b3 e0 
   15938:	c7 85 18 fe ff ff 5a 	movl   $0x7f68b15a,-0x1e8(%rbp)
   1593f:	b1 68 7f 
   15942:	c7 85 1c fe ff ff f1 	movl   $0xe0b3ecf1,-0x1e4(%rbp)
   15949:	ec b3 e0 
   1594c:	c7 85 20 fe ff ff 5a 	movl   $0x7f68b15a,-0x1e0(%rbp)
   15953:	b1 68 7f 
   15956:	c7 85 24 fe ff ff f1 	movl   $0xe0b3ecf1,-0x1dc(%rbp)
   1595d:	ec b3 e0 
   15960:	c7 85 28 fe ff ff 5a 	movl   $0x7f68b15a,-0x1d8(%rbp)
   15967:	b1 68 7f 
   1596a:	c7 85 2c fe ff ff f1 	movl   $0xe0b3ecf1,-0x1d4(%rbp)
   15971:	ec b3 e0 
   15974:	c7 85 30 fe ff ff 5a 	movl   $0x7f68b15a,-0x1d0(%rbp)
   1597b:	b1 68 7f 
   1597e:	c7 85 34 fe ff ff f1 	movl   $0xe0b3ecf1,-0x1cc(%rbp)
   15985:	ec b3 e0 
   15988:	c7 85 38 fe ff ff 5a 	movl   $0x7f68b15a,-0x1c8(%rbp)
   1598f:	b1 68 7f 
   15992:	c7 85 3c fe ff ff f1 	movl   $0xe0b3ecf1,-0x1c4(%rbp)
   15999:	ec b3 e0 
   1599c:	c7 85 40 fe ff ff 5a 	movl   $0x7f68b15a,-0x1c0(%rbp)
   159a3:	b1 68 7f 
   159a6:	c7 85 44 fe ff ff f1 	movl   $0xe0b3ecf1,-0x1bc(%rbp)
   159ad:	ec b3 e0 
   159b0:	c7 85 48 fe ff ff 5a 	movl   $0x7f68b15a,-0x1b8(%rbp)
   159b7:	b1 68 7f 
   159ba:	c7 85 4c fe ff ff f1 	movl   $0xe0b3ecf1,-0x1b4(%rbp)
   159c1:	ec b3 e0 
   159c4:	c7 85 50 fe ff ff 5a 	movl   $0x7f68b15a,-0x1b0(%rbp)
   159cb:	b1 68 7f 
   159ce:	c7 85 54 fe ff ff f1 	movl   $0xe0b3ecf1,-0x1ac(%rbp)
   159d5:	ec b3 e0 
   159d8:	c7 85 58 fe ff ff 5a 	movl   $0x7f68b15a,-0x1a8(%rbp)
   159df:	b1 68 7f 
   159e2:	c7 85 5c fe ff ff f1 	movl   $0xe0b3ecf1,-0x1a4(%rbp)
   159e9:	ec b3 e0 
   159ec:	c7 85 60 fe ff ff 5a 	movl   $0x7f68b15a,-0x1a0(%rbp)
   159f3:	b1 68 7f 
   159f6:	c7 85 64 fe ff ff f1 	movl   $0xe0b3ecf1,-0x19c(%rbp)
   159fd:	ec b3 e0 
   15a00:	c7 85 68 fe ff ff 5a 	movl   $0x7f68b15a,-0x198(%rbp)
   15a07:	b1 68 7f 
   15a0a:	c7 85 6c fe ff ff f1 	movl   $0xe0b3ecf1,-0x194(%rbp)
   15a11:	ec b3 e0 
   15a14:	c7 85 70 fe ff ff 5a 	movl   $0x7f68b15a,-0x190(%rbp)
   15a1b:	b1 68 7f 
   15a1e:	c7 85 74 fe ff ff f1 	movl   $0xe0b3ecf1,-0x18c(%rbp)
   15a25:	ec b3 e0 
   15a28:	c7 85 78 fe ff ff 5a 	movl   $0x7f68b15a,-0x188(%rbp)
   15a2f:	b1 68 7f 
   15a32:	c7 85 7c fe ff ff f1 	movl   $0xe0b3ecf1,-0x184(%rbp)
   15a39:	ec b3 e0 
   15a3c:	c7 85 80 fe ff ff 5a 	movl   $0x7f68b15a,-0x180(%rbp)
   15a43:	b1 68 7f 
   15a46:	c7 85 84 fe ff ff f1 	movl   $0xe0b3ecf1,-0x17c(%rbp)
   15a4d:	ec b3 e0 
   15a50:	c7 85 88 fe ff ff 5a 	movl   $0x7f68b15a,-0x178(%rbp)
   15a57:	b1 68 7f 
   15a5a:	c7 85 8c fe ff ff f1 	movl   $0xe0b3ecf1,-0x174(%rbp)
   15a61:	ec b3 e0 
   15a64:	c7 85 90 fe ff ff 5a 	movl   $0x7f68b15a,-0x170(%rbp)
   15a6b:	b1 68 7f 
   15a6e:	c7 85 94 fe ff ff f1 	movl   $0xe0b3ecf1,-0x16c(%rbp)
   15a75:	ec b3 e0 
   15a78:	c7 85 98 fe ff ff 5a 	movl   $0x7f68b15a,-0x168(%rbp)
   15a7f:	b1 68 7f 
   15a82:	c7 85 9c fe ff ff f1 	movl   $0xe0b3ecf1,-0x164(%rbp)
   15a89:	ec b3 e0 
   15a8c:	c7 85 a0 fe ff ff 5a 	movl   $0x7f68b15a,-0x160(%rbp)
   15a93:	b1 68 7f 
   15a96:	c7 85 a4 fe ff ff f1 	movl   $0xe0b3ecf1,-0x15c(%rbp)
   15a9d:	ec b3 e0 
   15aa0:	c7 05 fa c5 00 00 00 	movl   $0x0,0xc5fa(%rip)        # 220a4 <g_88>
   15aa7:	00 00 00 
   15aaa:	e9 8e 00 00 00       	jmpq   15b3d <func_61+0x6c6>
   15aaf:	48 8d 05 fe c9 00 00 	lea    0xc9fe(%rip),%rax        # 224b4 <g_946>
   15ab6:	48 89 85 18 fd ff ff 	mov    %rax,-0x2e8(%rbp)
   15abd:	48 8d 85 18 fd ff ff 	lea    -0x2e8(%rbp),%rax
   15ac4:	48 89 85 60 fd ff ff 	mov    %rax,-0x2a0(%rbp)
   15acb:	48 8d 05 72 c5 00 00 	lea    0xc572(%rip),%rax        # 22044 <g_39>
   15ad2:	48 89 85 68 fd ff ff 	mov    %rax,-0x298(%rbp)
   15ad9:	48 8b 85 e8 fc ff ff 	mov    -0x318(%rbp),%rax
   15ae0:	48 8b 95 58 fd ff ff 	mov    -0x2a8(%rbp),%rdx
   15ae7:	48 89 10             	mov    %rdx,(%rax)
   15aea:	48 8b 08             	mov    (%rax),%rcx
   15aed:	48 8b 85 60 fd ff ff 	mov    -0x2a0(%rbp),%rax
   15af4:	48 8b 95 58 fd ff ff 	mov    -0x2a8(%rbp),%rdx
   15afb:	48 89 10             	mov    %rdx,(%rax)
   15afe:	48 8b 85 60 fd ff ff 	mov    -0x2a0(%rbp),%rax
   15b05:	48 8b 00             	mov    (%rax),%rax
   15b08:	48 39 c1             	cmp    %rax,%rcx
   15b0b:	0f 95 c0             	setne  %al
   15b0e:	0f b6 d0             	movzbl %al,%edx
   15b11:	48 8b 85 68 fd ff ff 	mov    -0x298(%rbp),%rax
   15b18:	8b 00                	mov    (%rax),%eax
   15b1a:	31 c2                	xor    %eax,%edx
   15b1c:	48 8b 85 68 fd ff ff 	mov    -0x298(%rbp),%rax
   15b23:	89 10                	mov    %edx,(%rax)
   15b25:	8b 05 79 c5 00 00    	mov    0xc579(%rip),%eax        # 220a4 <g_88>
   15b2b:	be 06 00 00 00       	mov    $0x6,%esi
   15b30:	89 c7                	mov    %eax,%edi
   15b32:	e8 7f 3a ff ff       	callq  95b6 <safe_add_func_int32_t_s_s>
   15b37:	89 05 67 c5 00 00    	mov    %eax,0xc567(%rip)        # 220a4 <g_88>
   15b3d:	8b 05 61 c5 00 00    	mov    0xc561(%rip),%eax        # 220a4 <g_88>
   15b43:	83 f8 06             	cmp    $0x6,%eax
   15b46:	0f 85 63 ff ff ff    	jne    15aaf <func_61+0x638>
   15b4c:	8b 85 88 fe ff ff    	mov    -0x178(%rbp),%eax
   15b52:	eb 0a                	jmp    15b5e <func_61+0x6e7>
   15b54:	48 8b 05 95 ef 00 00 	mov    0xef95(%rip),%rax        # 24af0 <g_655>
   15b5b:	0f b6 00             	movzbl (%rax),%eax
   15b5e:	48 8b 5d d8          	mov    -0x28(%rbp),%rbx
   15b62:	64 48 33 1c 25 28 00 	xor    %fs:0x28,%rbx
   15b69:	00 00 
   15b6b:	74 05                	je     15b72 <func_61+0x6fb>
   15b6d:	e8 fe 34 ff ff       	callq  9070 <__stack_chk_fail@plt>
   15b72:	48 81 c4 30 03 00 00 	add    $0x330,%rsp
   15b79:	5b                   	pop    %rbx
   15b7a:	41 5c                	pop    %r12
   15b7c:	41 5d                	pop    %r13
   15b7e:	41 5e                	pop    %r14
   15b80:	5d                   	pop    %rbp
   15b81:	c3                   	retq   

0000000000015b82 <func_72>:
   15b82:	f3 0f 1e fa          	endbr64 
   15b86:	55                   	push   %rbp
   15b87:	48 89 e5             	mov    %rsp,%rbp
   15b8a:	41 57                	push   %r15
   15b8c:	41 56                	push   %r14
   15b8e:	41 55                	push   %r13
   15b90:	41 54                	push   %r12
   15b92:	53                   	push   %rbx
   15b93:	48 81 ec 00 10 00 00 	sub    $0x1000,%rsp
   15b9a:	48 83 0c 24 00       	orq    $0x0,(%rsp)
   15b9f:	48 81 ec 08 02 00 00 	sub    $0x208,%rsp
   15ba6:	89 f9                	mov    %edi,%ecx
   15ba8:	89 f0                	mov    %esi,%eax
   15baa:	48 89 95 d0 ed ff ff 	mov    %rdx,-0x1230(%rbp)
   15bb1:	89 ca                	mov    %ecx,%edx
   15bb3:	88 95 dc ed ff ff    	mov    %dl,-0x1224(%rbp)
   15bb9:	66 89 85 d8 ed ff ff 	mov    %ax,-0x1228(%rbp)
   15bc0:	64 48 8b 04 25 28 00 	mov    %fs:0x28,%rax
   15bc7:	00 00 
   15bc9:	48 89 45 c8          	mov    %rax,-0x38(%rbp)
   15bcd:	31 c0                	xor    %eax,%eax
   15bcf:	48 c7 85 d0 f0 ff ff 	movq   $0x0,-0xf30(%rbp)
   15bd6:	00 00 00 00 
   15bda:	48 c7 85 d8 f0 ff ff 	movq   $0x0,-0xf28(%rbp)
   15be1:	00 00 00 00 
   15be5:	48 8d 05 c2 c4 00 00 	lea    0xc4c2(%rip),%rax        # 220ae <g_98+0x6>
   15bec:	48 89 85 e0 f0 ff ff 	mov    %rax,-0xf20(%rbp)
   15bf3:	48 c7 85 e8 f0 ff ff 	movq   $0x0,-0xf18(%rbp)
   15bfa:	00 00 00 00 
   15bfe:	48 c7 85 f0 f0 ff ff 	movq   $0x0,-0xf10(%rbp)
   15c05:	00 00 00 00 
   15c09:	48 8d 05 9e c4 00 00 	lea    0xc49e(%rip),%rax        # 220ae <g_98+0x6>
   15c10:	48 89 85 f8 f0 ff ff 	mov    %rax,-0xf08(%rbp)
   15c17:	48 c7 85 00 f1 ff ff 	movq   $0x0,-0xf00(%rbp)
   15c1e:	00 00 00 00 
   15c22:	48 c7 85 08 f1 ff ff 	movq   $0x0,-0xef8(%rbp)
   15c29:	00 00 00 00 
   15c2d:	48 8d 05 7a c4 00 00 	lea    0xc47a(%rip),%rax        # 220ae <g_98+0x6>
   15c34:	48 89 85 10 f1 ff ff 	mov    %rax,-0xef0(%rbp)
   15c3b:	48 c7 85 18 f1 ff ff 	movq   $0x0,-0xee8(%rbp)
   15c42:	00 00 00 00 
   15c46:	48 c7 85 20 f1 ff ff 	movq   $0x0,-0xee0(%rbp)
   15c4d:	00 00 00 00 
   15c51:	48 8d 05 56 c4 00 00 	lea    0xc456(%rip),%rax        # 220ae <g_98+0x6>
   15c58:	48 89 85 28 f1 ff ff 	mov    %rax,-0xed8(%rbp)
   15c5f:	c7 85 f0 ed ff ff 4b 	movl   $0x48eb874b,-0x1210(%rbp)
   15c66:	87 eb 48 
   15c69:	c7 85 f4 ed ff ff ff 	movl   $0xffffffff,-0x120c(%rbp)
   15c70:	ff ff ff 
   15c73:	c7 85 f8 ed ff ff 00 	movl   $0x0,-0x1208(%rbp)
   15c7a:	00 00 00 
   15c7d:	48 8d 05 20 c4 00 00 	lea    0xc420(%rip),%rax        # 220a4 <g_88>
   15c84:	48 89 85 48 ee ff ff 	mov    %rax,-0x11b8(%rbp)
   15c8b:	48 8d 05 fe c3 00 00 	lea    0xc3fe(%rip),%rax        # 22090 <g_50>
   15c92:	48 89 85 90 ee ff ff 	mov    %rax,-0x1170(%rbp)
   15c99:	48 8d 05 24 c4 00 00 	lea    0xc424(%rip),%rax        # 220c4 <g_155+0x4>
   15ca0:	48 89 85 50 ee ff ff 	mov    %rax,-0x11b0(%rbp)
   15ca7:	c7 85 fc ed ff ff ee 	movl   $0x6d9e01ee,-0x1204(%rbp)
   15cae:	01 9e 6d 
   15cb1:	48 c7 85 58 ee ff ff 	movq   $0x0,-0x11a8(%rbp)
   15cb8:	00 00 00 00 
   15cbc:	c7 85 10 f0 ff ff 3d 	movl   $0x30df4a3d,-0xff0(%rbp)
   15cc3:	4a df 30 
   15cc6:	c7 85 14 f0 ff ff 3d 	movl   $0x30df4a3d,-0xfec(%rbp)
   15ccd:	4a df 30 
   15cd0:	c7 85 18 f0 ff ff 6f 	movl   $0x45b0a76f,-0xfe8(%rbp)
   15cd7:	a7 b0 45 
   15cda:	c7 85 1c f0 ff ff f7 	movl   $0xfffffff7,-0xfe4(%rbp)
   15ce1:	ff ff ff 
   15ce4:	c7 85 20 f0 ff ff 6f 	movl   $0x45b0a76f,-0xfe0(%rbp)
   15ceb:	a7 b0 45 
   15cee:	c7 85 24 f0 ff ff 3d 	movl   $0x30df4a3d,-0xfdc(%rbp)
   15cf5:	4a df 30 
   15cf8:	c7 85 28 f0 ff ff 3d 	movl   $0x30df4a3d,-0xfd8(%rbp)
   15cff:	4a df 30 
   15d02:	c7 85 2c f0 ff ff 6f 	movl   $0x45b0a76f,-0xfd4(%rbp)
   15d09:	a7 b0 45 
   15d0c:	c7 85 30 f0 ff ff f7 	movl   $0xfffffff7,-0xfd0(%rbp)
   15d13:	ff ff ff 
   15d16:	c7 85 34 f0 ff ff 6f 	movl   $0x45b0a76f,-0xfcc(%rbp)
   15d1d:	a7 b0 45 
   15d20:	c7 85 28 ee ff ff 05 	movl   $0x5,-0x11d8(%rbp)
   15d27:	00 00 00 
   15d2a:	66 c7 85 ec ed ff ff 	movw   $0xaa26,-0x1214(%rbp)
   15d31:	26 aa 
   15d33:	c6 85 e7 ed ff ff 07 	movb   $0x7,-0x1219(%rbp)
   15d3a:	c7 85 0c ee ff ff 00 	movl   $0x0,-0x11f4(%rbp)
   15d41:	00 00 00 
   15d44:	eb 1a                	jmp    15d60 <func_72+0x1de>
   15d46:	8b 85 0c ee ff ff    	mov    -0x11f4(%rbp),%eax
   15d4c:	48 98                	cltq   
   15d4e:	c7 84 85 e0 ef ff ff 	movl   $0x7881b9d3,-0x1020(%rbp,%rax,4)
   15d55:	d3 b9 81 78 
   15d59:	83 85 0c ee ff ff 01 	addl   $0x1,-0x11f4(%rbp)
   15d60:	83 bd 0c ee ff ff 00 	cmpl   $0x0,-0x11f4(%rbp)
   15d67:	7e dd                	jle    15d46 <func_72+0x1c4>
   15d69:	0f b7 85 d8 ed ff ff 	movzwl -0x1228(%rbp),%eax
   15d70:	0f b6 d8             	movzbl %al,%ebx
   15d73:	0f b7 05 34 c3 00 00 	movzwl 0xc334(%rip),%eax        # 220ae <g_98+0x6>
   15d7a:	0f b7 d0             	movzwl %ax,%edx
   15d7d:	8b 85 f4 ed ff ff    	mov    -0x120c(%rbp),%eax
   15d83:	0f b6 c0             	movzbl %al,%eax
   15d86:	89 d6                	mov    %edx,%esi
   15d88:	89 c7                	mov    %eax,%edi
   15d8a:	e8 fe 3e ff ff       	callq  9c8d <safe_rshift_func_uint8_t_u_s>
   15d8f:	0f b6 c0             	movzbl %al,%eax
   15d92:	89 85 f8 ed ff ff    	mov    %eax,-0x1208(%rbp)
   15d98:	8b 85 f8 ed ff ff    	mov    -0x1208(%rbp),%eax
   15d9e:	0f b7 c0             	movzwl %ax,%eax
   15da1:	89 c6                	mov    %eax,%esi
   15da3:	bf 01 00 00 00       	mov    $0x1,%edi
   15da8:	e8 52 3f ff ff       	callq  9cff <safe_add_func_uint16_t_u_u>
   15dad:	0f b7 d0             	movzwl %ax,%edx
   15db0:	8b 85 f4 ed ff ff    	mov    -0x120c(%rbp),%eax
   15db6:	89 d1                	mov    %edx,%ecx
   15db8:	31 c1                	xor    %eax,%ecx
   15dba:	8b 05 a4 c2 00 00    	mov    0xc2a4(%rip),%eax        # 22064 <g_41+0x4>
   15dc0:	89 c2                	mov    %eax,%edx
   15dc2:	48 8b 85 90 ee ff ff 	mov    -0x1170(%rbp),%rax
   15dc9:	66 89 10             	mov    %dx,(%rax)
   15dcc:	48 8b 85 48 ee ff ff 	mov    -0x11b8(%rbp),%rax
   15dd3:	8b 10                	mov    (%rax),%edx
   15dd5:	48 8b 85 48 ee ff ff 	mov    -0x11b8(%rbp),%rax
   15ddc:	21 ca                	and    %ecx,%edx
   15dde:	89 10                	mov    %edx,(%rax)
   15de0:	be 01 00 00 00       	mov    $0x1,%esi
   15de5:	bf 00 00 00 00       	mov    $0x0,%edi
   15dea:	e8 16 38 ff ff       	callq  9605 <safe_sub_func_int32_t_s_s>
   15def:	be 06 00 00 00       	mov    $0x6,%esi
   15df4:	bf fc ff ff ff       	mov    $0xfffffffc,%edi
   15df9:	e8 65 37 ff ff       	callq  9563 <safe_rshift_func_int16_t_s_u>
   15dfe:	98                   	cwtl   
   15dff:	89 85 f0 ed ff ff    	mov    %eax,-0x1210(%rbp)
   15e05:	8b 85 f0 ed ff ff    	mov    -0x1210(%rbp),%eax
   15e0b:	83 f8 01             	cmp    $0x1,%eax
   15e0e:	74 14                	je     15e24 <func_72+0x2a2>
   15e10:	48 8b 85 48 ee ff ff 	mov    -0x11b8(%rbp),%rax
   15e17:	8b 00                	mov    (%rax),%eax
   15e19:	85 c0                	test   %eax,%eax
   15e1b:	74 07                	je     15e24 <func_72+0x2a2>
   15e1d:	ba 01 00 00 00       	mov    $0x1,%edx
   15e22:	eb 05                	jmp    15e29 <func_72+0x2a7>
   15e24:	ba 00 00 00 00       	mov    $0x0,%edx
   15e29:	0f b6 05 6a c2 00 00 	movzbl 0xc26a(%rip),%eax        # 2209a <g_63+0x2>
   15e30:	0f b6 c0             	movzbl %al,%eax
   15e33:	31 d0                	xor    %edx,%eax
   15e35:	89 c2                	mov    %eax,%edx
   15e37:	48 8d 85 48 ee ff ff 	lea    -0x11b8(%rbp),%rax
   15e3e:	48 89 c6             	mov    %rax,%rsi
   15e41:	89 d7                	mov    %edx,%edi
   15e43:	e8 41 29 00 00       	callq  18789 <func_92>
   15e48:	66 85 c0             	test   %ax,%ax
   15e4b:	74 0d                	je     15e5a <func_72+0x2d8>
   15e4d:	48 8b 05 74 ec 00 00 	mov    0xec74(%rip),%rax        # 24ac8 <g_411>
   15e54:	0f b7 00             	movzwl (%rax),%eax
   15e57:	66 85 c0             	test   %ax,%ax
   15e5a:	bf 00 00 00 00       	mov    $0x0,%edi
   15e5f:	e8 ae f5 ff ff       	callq  15412 <func_35>
   15e64:	0f b7 85 d8 ed ff ff 	movzwl -0x1228(%rbp),%eax
   15e6b:	0f b6 c0             	movzbl %al,%eax
   15e6e:	89 de                	mov    %ebx,%esi
   15e70:	89 c7                	mov    %eax,%edi
   15e72:	e8 64 3d ff ff       	callq  9bdb <safe_div_func_uint8_t_u_u>
   15e77:	84 c0                	test   %al,%al
   15e79:	0f 84 c8 11 00 00    	je     17047 <func_72+0x14c5>
   15e7f:	48 8d 05 4a c2 00 00 	lea    0xc24a(%rip),%rax        # 220d0 <g_164>
   15e86:	48 89 85 80 ef ff ff 	mov    %rax,-0x1080(%rbp)
   15e8d:	c7 85 80 ee ff ff fa 	movl   $0xfffffffa,-0x1180(%rbp)
   15e94:	ff ff ff 
   15e97:	48 8d 85 f8 ed ff ff 	lea    -0x1208(%rbp),%rax
   15e9e:	48 89 85 88 ef ff ff 	mov    %rax,-0x1078(%rbp)
   15ea5:	48 8d 85 80 f4 ff ff 	lea    -0xb80(%rbp),%rax
   15eac:	48 8d 15 ad 89 00 00 	lea    0x89ad(%rip),%rdx        # 1e860 <g_431+0x7e2>
   15eb3:	b9 28 00 00 00       	mov    $0x28,%ecx
   15eb8:	48 89 c7             	mov    %rax,%rdi
   15ebb:	48 89 d6             	mov    %rdx,%rsi
   15ebe:	f3 48 a5             	rep movsq %ds:(%rsi),%es:(%rdi)
   15ec1:	c6 85 eb ed ff ff 7b 	movb   $0x7b,-0x1215(%rbp)
   15ec8:	c7 85 10 ee ff ff 00 	movl   $0x0,-0x11f0(%rbp)
   15ecf:	00 00 00 
   15ed2:	eb 1e                	jmp    15ef2 <func_72+0x370>
   15ed4:	8b 85 10 ee ff ff    	mov    -0x11f0(%rbp),%eax
   15eda:	48 98                	cltq   
   15edc:	48 8d 15 b7 c1 00 00 	lea    0xc1b7(%rip),%rdx        # 2209a <g_63+0x2>
   15ee3:	48 89 94 c5 70 f0 ff 	mov    %rdx,-0xf90(%rbp,%rax,8)
   15eea:	ff 
   15eeb:	83 85 10 ee ff ff 01 	addl   $0x1,-0x11f0(%rbp)
   15ef2:	83 bd 10 ee ff ff 04 	cmpl   $0x4,-0x11f0(%rbp)
   15ef9:	7e d9                	jle    15ed4 <func_72+0x352>
   15efb:	8b 15 63 c1 00 00    	mov    0xc163(%rip),%edx        # 22064 <g_41+0x4>
   15f01:	48 8b 05 18 e4 00 00 	mov    0xe418(%rip),%rax        # 24320 <g_214>
   15f08:	48 8b 00             	mov    (%rax),%rax
   15f0b:	8b 08                	mov    (%rax),%ecx
   15f0d:	48 8b 85 88 ef ff ff 	mov    -0x1078(%rbp),%rax
   15f14:	89 08                	mov    %ecx,(%rax)
   15f16:	48 8b 85 88 ef ff ff 	mov    -0x1078(%rbp),%rax
   15f1d:	8b 00                	mov    (%rax),%eax
   15f1f:	89 d6                	mov    %edx,%esi
   15f21:	89 c7                	mov    %eax,%edi
   15f23:	e8 d7 37 ff ff       	callq  96ff <safe_div_func_int32_t_s_s>
   15f28:	48 63 d8             	movslq %eax,%rbx
   15f2b:	be 06 00 00 00       	mov    $0x6,%esi
   15f30:	bf f6 ff 00 00       	mov    $0xfff6,%edi
   15f35:	e8 40 3f ff ff       	callq  9e7a <safe_rshift_func_uint16_t_u_u>
   15f3a:	0f b7 c0             	movzwl %ax,%eax
   15f3d:	48 89 de             	mov    %rbx,%rsi
   15f40:	48 89 c7             	mov    %rax,%rdi
   15f43:	e8 f9 38 ff ff       	callq  9841 <safe_add_func_int64_t_s_s>
   15f48:	89 c6                	mov    %eax,%esi
   15f4a:	bf 9f a5 65 46       	mov    $0x4665a59f,%edi
   15f4f:	e8 ab 37 ff ff       	callq  96ff <safe_div_func_int32_t_s_s>
   15f54:	0f b7 d8             	movzwl %ax,%ebx
   15f57:	0f b6 85 dc ed ff ff 	movzbl -0x1224(%rbp),%eax
   15f5e:	84 c0                	test   %al,%al
   15f60:	75 2a                	jne    15f8c <func_72+0x40a>
   15f62:	48 8b 85 80 ef ff ff 	mov    -0x1080(%rbp),%rax
   15f69:	48 8b 00             	mov    (%rax),%rax
   15f6c:	48 83 e0 fe          	and    $0xfffffffffffffffe,%rax
   15f70:	48 89 c2             	mov    %rax,%rdx
   15f73:	48 8b 85 80 ef ff ff 	mov    -0x1080(%rbp),%rax
   15f7a:	48 89 10             	mov    %rdx,(%rax)
   15f7d:	48 8b 85 80 ef ff ff 	mov    -0x1080(%rbp),%rax
   15f84:	48 8b 00             	mov    (%rax),%rax
   15f87:	48 85 c0             	test   %rax,%rax
   15f8a:	74 07                	je     15f93 <func_72+0x411>
   15f8c:	ba 01 00 00 00       	mov    $0x1,%edx
   15f91:	eb 05                	jmp    15f98 <func_72+0x416>
   15f93:	ba 00 00 00 00       	mov    $0x0,%edx
   15f98:	8b 85 80 ee ff ff    	mov    -0x1180(%rbp),%eax
   15f9e:	31 d0                	xor    %edx,%eax
   15fa0:	89 85 80 ee ff ff    	mov    %eax,-0x1180(%rbp)
   15fa6:	8b 85 80 ee ff ff    	mov    -0x1180(%rbp),%eax
   15fac:	0f b6 c0             	movzbl %al,%eax
   15faf:	be 07 00 00 00       	mov    $0x7,%esi
   15fb4:	89 c7                	mov    %eax,%edi
   15fb6:	e8 4a 3c ff ff       	callq  9c05 <safe_lshift_func_uint8_t_u_s>
   15fbb:	48 8b 85 50 ee ff ff 	mov    -0x11b0(%rbp),%rax
   15fc2:	48 85 c0             	test   %rax,%rax
   15fc5:	0f 95 c0             	setne  %al
   15fc8:	0f b6 c0             	movzbl %al,%eax
   15fcb:	f7 d0                	not    %eax
   15fcd:	c1 e8 1f             	shr    $0x1f,%eax
   15fd0:	0f b6 c0             	movzbl %al,%eax
   15fd3:	89 de                	mov    %ebx,%esi
   15fd5:	89 c7                	mov    %eax,%edi
   15fd7:	e8 b2 3d ff ff       	callq  9d8e <safe_div_func_uint16_t_u_u>
   15fdc:	0f b7 c0             	movzwl %ax,%eax
   15fdf:	89 05 bf c0 00 00    	mov    %eax,0xc0bf(%rip)        # 220a4 <g_88>
   15fe5:	66 c7 85 d8 ed ff ff 	movw   $0x0,-0x1228(%rbp)
   15fec:	00 00 
   15fee:	e9 37 10 00 00       	jmpq   1702a <func_72+0x14a8>
   15ff3:	48 8d 85 f4 ed ff ff 	lea    -0x120c(%rbp),%rax
   15ffa:	48 89 85 90 ef ff ff 	mov    %rax,-0x1070(%rbp)
   16001:	48 8d 85 f4 ed ff ff 	lea    -0x120c(%rbp),%rax
   16008:	48 89 85 98 ef ff ff 	mov    %rax,-0x1068(%rbp)
   1600f:	48 8d 85 f8 ed ff ff 	lea    -0x1208(%rbp),%rax
   16016:	48 89 85 a0 ef ff ff 	mov    %rax,-0x1060(%rbp)
   1601d:	48 c7 85 a8 ef ff ff 	movq   $0x0,-0x1058(%rbp)
   16024:	00 00 00 00 
   16028:	48 8d 85 f8 ed ff ff 	lea    -0x1208(%rbp),%rax
   1602f:	48 89 85 b0 ef ff ff 	mov    %rax,-0x1050(%rbp)
   16036:	48 8d 85 f4 ed ff ff 	lea    -0x120c(%rbp),%rax
   1603d:	48 89 85 b8 ef ff ff 	mov    %rax,-0x1048(%rbp)
   16044:	48 8d 05 f5 bf 00 00 	lea    0xbff5(%rip),%rax        # 22040 <g_2+0x10>
   1604b:	48 89 85 40 f8 ff ff 	mov    %rax,-0x7c0(%rbp)
   16052:	48 8d 85 80 ee ff ff 	lea    -0x1180(%rbp),%rax
   16059:	48 89 85 48 f8 ff ff 	mov    %rax,-0x7b8(%rbp)
   16060:	48 8d 85 f8 ed ff ff 	lea    -0x1208(%rbp),%rax
   16067:	48 89 85 50 f8 ff ff 	mov    %rax,-0x7b0(%rbp)
   1606e:	48 c7 85 58 f8 ff ff 	movq   $0x0,-0x7a8(%rbp)
   16075:	00 00 00 00 
   16079:	48 8d 05 24 c0 00 00 	lea    0xc024(%rip),%rax        # 220a4 <g_88>
   16080:	48 89 85 60 f8 ff ff 	mov    %rax,-0x7a0(%rbp)
   16087:	48 c7 85 68 f8 ff ff 	movq   $0x0,-0x798(%rbp)
   1608e:	00 00 00 00 
   16092:	48 8d 05 0b c0 00 00 	lea    0xc00b(%rip),%rax        # 220a4 <g_88>
   16099:	48 89 85 70 f8 ff ff 	mov    %rax,-0x790(%rbp)
   160a0:	48 8d 05 99 bf 00 00 	lea    0xbf99(%rip),%rax        # 22040 <g_2+0x10>
   160a7:	48 89 85 78 f8 ff ff 	mov    %rax,-0x788(%rbp)
   160ae:	48 8d 05 ef bf 00 00 	lea    0xbfef(%rip),%rax        # 220a4 <g_88>
   160b5:	48 89 85 80 f8 ff ff 	mov    %rax,-0x780(%rbp)
   160bc:	48 8d 05 e1 bf 00 00 	lea    0xbfe1(%rip),%rax        # 220a4 <g_88>
   160c3:	48 89 85 88 f8 ff ff 	mov    %rax,-0x778(%rbp)
   160ca:	48 8d 85 80 ee ff ff 	lea    -0x1180(%rbp),%rax
   160d1:	48 89 85 90 f8 ff ff 	mov    %rax,-0x770(%rbp)
   160d8:	48 c7 85 98 f8 ff ff 	movq   $0x0,-0x768(%rbp)
   160df:	00 00 00 00 
   160e3:	48 c7 85 a0 f8 ff ff 	movq   $0x0,-0x760(%rbp)
   160ea:	00 00 00 00 
   160ee:	48 8d 85 80 ee ff ff 	lea    -0x1180(%rbp),%rax
   160f5:	48 89 85 a8 f8 ff ff 	mov    %rax,-0x758(%rbp)
   160fc:	48 8d 05 a1 bf 00 00 	lea    0xbfa1(%rip),%rax        # 220a4 <g_88>
   16103:	48 89 85 b0 f8 ff ff 	mov    %rax,-0x750(%rbp)
   1610a:	48 8d 85 80 ee ff ff 	lea    -0x1180(%rbp),%rax
   16111:	48 89 85 b8 f8 ff ff 	mov    %rax,-0x748(%rbp)
   16118:	48 8d 85 f4 ed ff ff 	lea    -0x120c(%rbp),%rax
   1611f:	48 89 85 c0 f8 ff ff 	mov    %rax,-0x740(%rbp)
   16126:	48 8d 85 f0 ed ff ff 	lea    -0x1210(%rbp),%rax
   1612d:	48 89 85 c8 f8 ff ff 	mov    %rax,-0x738(%rbp)
   16134:	48 8d 85 f0 ed ff ff 	lea    -0x1210(%rbp),%rax
   1613b:	48 89 85 d0 f8 ff ff 	mov    %rax,-0x730(%rbp)
   16142:	48 8d 85 f4 ed ff ff 	lea    -0x120c(%rbp),%rax
   16149:	48 89 85 d8 f8 ff ff 	mov    %rax,-0x728(%rbp)
   16150:	48 8d 05 4d bf 00 00 	lea    0xbf4d(%rip),%rax        # 220a4 <g_88>
   16157:	48 89 85 e0 f8 ff ff 	mov    %rax,-0x720(%rbp)
   1615e:	48 8d 05 db be 00 00 	lea    0xbedb(%rip),%rax        # 22040 <g_2+0x10>
   16165:	48 89 85 e8 f8 ff ff 	mov    %rax,-0x718(%rbp)
   1616c:	48 8d 85 f4 ed ff ff 	lea    -0x120c(%rbp),%rax
   16173:	48 89 85 f0 f8 ff ff 	mov    %rax,-0x710(%rbp)
   1617a:	48 8d 85 f4 ed ff ff 	lea    -0x120c(%rbp),%rax
   16181:	48 89 85 f8 f8 ff ff 	mov    %rax,-0x708(%rbp)
   16188:	48 8d 05 ad be 00 00 	lea    0xbead(%rip),%rax        # 2203c <g_2+0xc>
   1618f:	48 89 85 00 f9 ff ff 	mov    %rax,-0x700(%rbp)
   16196:	48 8d 85 f0 ed ff ff 	lea    -0x1210(%rbp),%rax
   1619d:	48 89 85 08 f9 ff ff 	mov    %rax,-0x6f8(%rbp)
   161a4:	48 c7 85 10 f9 ff ff 	movq   $0x0,-0x6f0(%rbp)
   161ab:	00 00 00 00 
   161af:	48 8d 05 ee be 00 00 	lea    0xbeee(%rip),%rax        # 220a4 <g_88>
   161b6:	48 89 85 18 f9 ff ff 	mov    %rax,-0x6e8(%rbp)
   161bd:	48 8d 85 f0 ed ff ff 	lea    -0x1210(%rbp),%rax
   161c4:	48 89 85 20 f9 ff ff 	mov    %rax,-0x6e0(%rbp)
   161cb:	48 8d 05 6e be 00 00 	lea    0xbe6e(%rip),%rax        # 22040 <g_2+0x10>
   161d2:	48 89 85 28 f9 ff ff 	mov    %rax,-0x6d8(%rbp)
   161d9:	48 c7 85 30 f9 ff ff 	movq   $0x0,-0x6d0(%rbp)
   161e0:	00 00 00 00 
   161e4:	48 8d 85 80 ee ff ff 	lea    -0x1180(%rbp),%rax
   161eb:	48 89 85 38 f9 ff ff 	mov    %rax,-0x6c8(%rbp)
   161f2:	48 8d 85 f8 ed ff ff 	lea    -0x1208(%rbp),%rax
   161f9:	48 89 85 40 f9 ff ff 	mov    %rax,-0x6c0(%rbp)
   16200:	48 8d 85 80 ee ff ff 	lea    -0x1180(%rbp),%rax
   16207:	48 89 85 48 f9 ff ff 	mov    %rax,-0x6b8(%rbp)
   1620e:	48 c7 85 50 f9 ff ff 	movq   $0x0,-0x6b0(%rbp)
   16215:	00 00 00 00 
   16219:	48 8d 05 84 be 00 00 	lea    0xbe84(%rip),%rax        # 220a4 <g_88>
   16220:	48 89 85 58 f9 ff ff 	mov    %rax,-0x6a8(%rbp)
   16227:	48 8d 85 80 ee ff ff 	lea    -0x1180(%rbp),%rax
   1622e:	48 89 85 60 f9 ff ff 	mov    %rax,-0x6a0(%rbp)
   16235:	48 c7 85 68 f9 ff ff 	movq   $0x0,-0x698(%rbp)
   1623c:	00 00 00 00 
   16240:	48 8d 05 5d be 00 00 	lea    0xbe5d(%rip),%rax        # 220a4 <g_88>
   16247:	48 89 85 70 f9 ff ff 	mov    %rax,-0x690(%rbp)
   1624e:	48 8d 05 4f be 00 00 	lea    0xbe4f(%rip),%rax        # 220a4 <g_88>
   16255:	48 89 85 78 f9 ff ff 	mov    %rax,-0x688(%rbp)
   1625c:	48 8d 05 41 be 00 00 	lea    0xbe41(%rip),%rax        # 220a4 <g_88>
   16263:	48 89 85 80 f9 ff ff 	mov    %rax,-0x680(%rbp)
   1626a:	48 8d 05 33 be 00 00 	lea    0xbe33(%rip),%rax        # 220a4 <g_88>
   16271:	48 89 85 88 f9 ff ff 	mov    %rax,-0x678(%rbp)
   16278:	48 8d 85 f4 ed ff ff 	lea    -0x120c(%rbp),%rax
   1627f:	48 89 85 90 f9 ff ff 	mov    %rax,-0x670(%rbp)
   16286:	48 c7 85 98 f9 ff ff 	movq   $0x0,-0x668(%rbp)
   1628d:	00 00 00 00 
   16291:	48 c7 85 a0 f9 ff ff 	movq   $0x0,-0x660(%rbp)
   16298:	00 00 00 00 
   1629c:	48 8d 85 80 ee ff ff 	lea    -0x1180(%rbp),%rax
   162a3:	48 89 85 a8 f9 ff ff 	mov    %rax,-0x658(%rbp)
   162aa:	48 8d 85 f0 ed ff ff 	lea    -0x1210(%rbp),%rax
   162b1:	48 89 85 b0 f9 ff ff 	mov    %rax,-0x650(%rbp)
   162b8:	48 8d 85 f4 ed ff ff 	lea    -0x120c(%rbp),%rax
   162bf:	48 89 85 b8 f9 ff ff 	mov    %rax,-0x648(%rbp)
   162c6:	48 8d 85 80 ee ff ff 	lea    -0x1180(%rbp),%rax
   162cd:	48 89 85 c0 f9 ff ff 	mov    %rax,-0x640(%rbp)
   162d4:	48 8d 05 c9 bd 00 00 	lea    0xbdc9(%rip),%rax        # 220a4 <g_88>
   162db:	48 89 85 c8 f9 ff ff 	mov    %rax,-0x638(%rbp)
   162e2:	48 8d 05 bb bd 00 00 	lea    0xbdbb(%rip),%rax        # 220a4 <g_88>
   162e9:	48 89 85 d0 f9 ff ff 	mov    %rax,-0x630(%rbp)
   162f0:	48 c7 85 d8 f9 ff ff 	movq   $0x0,-0x628(%rbp)
   162f7:	00 00 00 00 
   162fb:	48 8d 85 f4 ed ff ff 	lea    -0x120c(%rbp),%rax
   16302:	48 89 85 e0 f9 ff ff 	mov    %rax,-0x620(%rbp)
   16309:	48 8d 85 f4 ed ff ff 	lea    -0x120c(%rbp),%rax
   16310:	48 89 85 e8 f9 ff ff 	mov    %rax,-0x618(%rbp)
   16317:	48 c7 85 f0 f9 ff ff 	movq   $0x0,-0x610(%rbp)
   1631e:	00 00 00 00 
   16322:	48 8d 05 7b bd 00 00 	lea    0xbd7b(%rip),%rax        # 220a4 <g_88>
   16329:	48 89 85 f8 f9 ff ff 	mov    %rax,-0x608(%rbp)
   16330:	48 8d 05 6d bd 00 00 	lea    0xbd6d(%rip),%rax        # 220a4 <g_88>
   16337:	48 89 85 00 fa ff ff 	mov    %rax,-0x600(%rbp)
   1633e:	48 8d 05 fb bc 00 00 	lea    0xbcfb(%rip),%rax        # 22040 <g_2+0x10>
   16345:	48 89 85 08 fa ff ff 	mov    %rax,-0x5f8(%rbp)
   1634c:	48 8d 05 51 bd 00 00 	lea    0xbd51(%rip),%rax        # 220a4 <g_88>
   16353:	48 89 85 10 fa ff ff 	mov    %rax,-0x5f0(%rbp)
   1635a:	48 8d 05 df bc 00 00 	lea    0xbcdf(%rip),%rax        # 22040 <g_2+0x10>
   16361:	48 89 85 18 fa ff ff 	mov    %rax,-0x5e8(%rbp)
   16368:	48 8d 05 d1 bc 00 00 	lea    0xbcd1(%rip),%rax        # 22040 <g_2+0x10>
   1636f:	48 89 85 20 fa ff ff 	mov    %rax,-0x5e0(%rbp)
   16376:	48 8d 05 27 bd 00 00 	lea    0xbd27(%rip),%rax        # 220a4 <g_88>
   1637d:	48 89 85 28 fa ff ff 	mov    %rax,-0x5d8(%rbp)
   16384:	48 8d 05 b5 bc 00 00 	lea    0xbcb5(%rip),%rax        # 22040 <g_2+0x10>
   1638b:	48 89 85 30 fa ff ff 	mov    %rax,-0x5d0(%rbp)
   16392:	48 8d 05 9b bc 00 00 	lea    0xbc9b(%rip),%rax        # 22034 <g_2+0x4>
   16399:	48 89 85 38 fa ff ff 	mov    %rax,-0x5c8(%rbp)
   163a0:	48 8d 05 95 bc 00 00 	lea    0xbc95(%rip),%rax        # 2203c <g_2+0xc>
   163a7:	48 89 85 40 fa ff ff 	mov    %rax,-0x5c0(%rbp)
   163ae:	48 8d 05 ef bc 00 00 	lea    0xbcef(%rip),%rax        # 220a4 <g_88>
   163b5:	48 89 85 48 fa ff ff 	mov    %rax,-0x5b8(%rbp)
   163bc:	48 8d 85 80 ee ff ff 	lea    -0x1180(%rbp),%rax
   163c3:	48 89 85 50 fa ff ff 	mov    %rax,-0x5b0(%rbp)
   163ca:	48 8d 05 6f bc 00 00 	lea    0xbc6f(%rip),%rax        # 22040 <g_2+0x10>
   163d1:	48 89 85 58 fa ff ff 	mov    %rax,-0x5a8(%rbp)
   163d8:	48 8d 85 f0 ed ff ff 	lea    -0x1210(%rbp),%rax
   163df:	48 89 85 60 fa ff ff 	mov    %rax,-0x5a0(%rbp)
   163e6:	48 8d 85 f4 ed ff ff 	lea    -0x120c(%rbp),%rax
   163ed:	48 89 85 68 fa ff ff 	mov    %rax,-0x598(%rbp)
   163f4:	48 8d 05 45 bc 00 00 	lea    0xbc45(%rip),%rax        # 22040 <g_2+0x10>
   163fb:	48 89 85 70 fa ff ff 	mov    %rax,-0x590(%rbp)
   16402:	48 8d 05 9b bc 00 00 	lea    0xbc9b(%rip),%rax        # 220a4 <g_88>
   16409:	48 89 85 78 fa ff ff 	mov    %rax,-0x588(%rbp)
   16410:	48 8d 05 8d bc 00 00 	lea    0xbc8d(%rip),%rax        # 220a4 <g_88>
   16417:	48 89 85 80 fa ff ff 	mov    %rax,-0x580(%rbp)
   1641e:	48 c7 85 88 fa ff ff 	movq   $0x0,-0x578(%rbp)
   16425:	00 00 00 00 
   16429:	48 8d 05 74 bc 00 00 	lea    0xbc74(%rip),%rax        # 220a4 <g_88>
   16430:	48 89 85 90 fa ff ff 	mov    %rax,-0x570(%rbp)
   16437:	48 8d 05 66 bc 00 00 	lea    0xbc66(%rip),%rax        # 220a4 <g_88>
   1643e:	48 89 85 98 fa ff ff 	mov    %rax,-0x568(%rbp)
   16445:	48 8d 05 58 bc 00 00 	lea    0xbc58(%rip),%rax        # 220a4 <g_88>
   1644c:	48 89 85 a0 fa ff ff 	mov    %rax,-0x560(%rbp)
   16453:	48 8d 05 4a bc 00 00 	lea    0xbc4a(%rip),%rax        # 220a4 <g_88>
   1645a:	48 89 85 a8 fa ff ff 	mov    %rax,-0x558(%rbp)
   16461:	48 8d 85 f4 ed ff ff 	lea    -0x120c(%rbp),%rax
   16468:	48 89 85 b0 fa ff ff 	mov    %rax,-0x550(%rbp)
   1646f:	48 8d 05 2e bc 00 00 	lea    0xbc2e(%rip),%rax        # 220a4 <g_88>
   16476:	48 89 85 b8 fa ff ff 	mov    %rax,-0x548(%rbp)
   1647d:	48 8d 05 20 bc 00 00 	lea    0xbc20(%rip),%rax        # 220a4 <g_88>
   16484:	48 89 85 c0 fa ff ff 	mov    %rax,-0x540(%rbp)
   1648b:	48 8d 05 ae bb 00 00 	lea    0xbbae(%rip),%rax        # 22040 <g_2+0x10>
   16492:	48 89 85 c8 fa ff ff 	mov    %rax,-0x538(%rbp)
   16499:	48 c7 85 d0 fa ff ff 	movq   $0x0,-0x530(%rbp)
   164a0:	00 00 00 00 
   164a4:	48 8d 05 f9 bb 00 00 	lea    0xbbf9(%rip),%rax        # 220a4 <g_88>
   164ab:	48 89 85 d8 fa ff ff 	mov    %rax,-0x528(%rbp)
   164b2:	48 8d 05 eb bb 00 00 	lea    0xbbeb(%rip),%rax        # 220a4 <g_88>
   164b9:	48 89 85 e0 fa ff ff 	mov    %rax,-0x520(%rbp)
   164c0:	48 8d 85 80 ee ff ff 	lea    -0x1180(%rbp),%rax
   164c7:	48 89 85 e8 fa ff ff 	mov    %rax,-0x518(%rbp)
   164ce:	48 8d 05 cf bb 00 00 	lea    0xbbcf(%rip),%rax        # 220a4 <g_88>
   164d5:	48 89 85 f0 fa ff ff 	mov    %rax,-0x510(%rbp)
   164dc:	48 8d 05 5d bb 00 00 	lea    0xbb5d(%rip),%rax        # 22040 <g_2+0x10>
   164e3:	48 89 85 f8 fa ff ff 	mov    %rax,-0x508(%rbp)
   164ea:	48 8d 85 f0 ed ff ff 	lea    -0x1210(%rbp),%rax
   164f1:	48 89 85 00 fb ff ff 	mov    %rax,-0x500(%rbp)
   164f8:	48 8d 05 a5 bb 00 00 	lea    0xbba5(%rip),%rax        # 220a4 <g_88>
   164ff:	48 89 85 08 fb ff ff 	mov    %rax,-0x4f8(%rbp)
   16506:	48 8d 05 97 bb 00 00 	lea    0xbb97(%rip),%rax        # 220a4 <g_88>
   1650d:	48 89 85 10 fb ff ff 	mov    %rax,-0x4f0(%rbp)
   16514:	48 8d 05 25 bb 00 00 	lea    0xbb25(%rip),%rax        # 22040 <g_2+0x10>
   1651b:	48 89 85 18 fb ff ff 	mov    %rax,-0x4e8(%rbp)
   16522:	48 c7 85 20 fb ff ff 	movq   $0x0,-0x4e0(%rbp)
   16529:	00 00 00 00 
   1652d:	48 8d 05 08 bb 00 00 	lea    0xbb08(%rip),%rax        # 2203c <g_2+0xc>
   16534:	48 89 85 28 fb ff ff 	mov    %rax,-0x4d8(%rbp)
   1653b:	48 8d 05 fa ba 00 00 	lea    0xbafa(%rip),%rax        # 2203c <g_2+0xc>
   16542:	48 89 85 30 fb ff ff 	mov    %rax,-0x4d0(%rbp)
   16549:	48 8d 05 54 bb 00 00 	lea    0xbb54(%rip),%rax        # 220a4 <g_88>
   16550:	48 89 85 38 fb ff ff 	mov    %rax,-0x4c8(%rbp)
   16557:	48 8d 05 46 bb 00 00 	lea    0xbb46(%rip),%rax        # 220a4 <g_88>
   1655e:	48 89 85 40 fb ff ff 	mov    %rax,-0x4c0(%rbp)
   16565:	48 8d 05 38 bb 00 00 	lea    0xbb38(%rip),%rax        # 220a4 <g_88>
   1656c:	48 89 85 48 fb ff ff 	mov    %rax,-0x4b8(%rbp)
   16573:	48 8d 05 c6 ba 00 00 	lea    0xbac6(%rip),%rax        # 22040 <g_2+0x10>
   1657a:	48 89 85 50 fb ff ff 	mov    %rax,-0x4b0(%rbp)
   16581:	48 8d 05 1c bb 00 00 	lea    0xbb1c(%rip),%rax        # 220a4 <g_88>
   16588:	48 89 85 58 fb ff ff 	mov    %rax,-0x4a8(%rbp)
   1658f:	48 c7 85 60 fb ff ff 	movq   $0x0,-0x4a0(%rbp)
   16596:	00 00 00 00 
   1659a:	48 8d 05 03 bb 00 00 	lea    0xbb03(%rip),%rax        # 220a4 <g_88>
   165a1:	48 89 85 68 fb ff ff 	mov    %rax,-0x498(%rbp)
   165a8:	48 8d 85 f4 ed ff ff 	lea    -0x120c(%rbp),%rax
   165af:	48 89 85 70 fb ff ff 	mov    %rax,-0x490(%rbp)
   165b6:	48 8d 85 80 ee ff ff 	lea    -0x1180(%rbp),%rax
   165bd:	48 89 85 78 fb ff ff 	mov    %rax,-0x488(%rbp)
   165c4:	48 8d 85 f0 ed ff ff 	lea    -0x1210(%rbp),%rax
   165cb:	48 89 85 80 fb ff ff 	mov    %rax,-0x480(%rbp)
   165d2:	48 8d 85 f0 ed ff ff 	lea    -0x1210(%rbp),%rax
   165d9:	48 89 85 88 fb ff ff 	mov    %rax,-0x478(%rbp)
   165e0:	48 8d 85 80 ee ff ff 	lea    -0x1180(%rbp),%rax
   165e7:	48 89 85 90 fb ff ff 	mov    %rax,-0x470(%rbp)
   165ee:	48 8d 85 80 ee ff ff 	lea    -0x1180(%rbp),%rax
   165f5:	48 89 85 98 fb ff ff 	mov    %rax,-0x468(%rbp)
   165fc:	48 8d 85 f4 ed ff ff 	lea    -0x120c(%rbp),%rax
   16603:	48 89 85 a0 fb ff ff 	mov    %rax,-0x460(%rbp)
   1660a:	48 8d 05 93 ba 00 00 	lea    0xba93(%rip),%rax        # 220a4 <g_88>
   16611:	48 89 85 a8 fb ff ff 	mov    %rax,-0x458(%rbp)
   16618:	48 8d 05 85 ba 00 00 	lea    0xba85(%rip),%rax        # 220a4 <g_88>
   1661f:	48 89 85 b0 fb ff ff 	mov    %rax,-0x450(%rbp)
   16626:	48 8d 05 77 ba 00 00 	lea    0xba77(%rip),%rax        # 220a4 <g_88>
   1662d:	48 89 85 b8 fb ff ff 	mov    %rax,-0x448(%rbp)
   16634:	48 8d 85 f4 ed ff ff 	lea    -0x120c(%rbp),%rax
   1663b:	48 89 85 c0 fb ff ff 	mov    %rax,-0x440(%rbp)
   16642:	48 8d 85 f0 ed ff ff 	lea    -0x1210(%rbp),%rax
   16649:	48 89 85 c8 fb ff ff 	mov    %rax,-0x438(%rbp)
   16650:	48 8d 85 f0 ed ff ff 	lea    -0x1210(%rbp),%rax
   16657:	48 89 85 d0 fb ff ff 	mov    %rax,-0x430(%rbp)
   1665e:	48 8d 85 80 ee ff ff 	lea    -0x1180(%rbp),%rax
   16665:	48 89 85 d8 fb ff ff 	mov    %rax,-0x428(%rbp)
   1666c:	48 8d 05 31 ba 00 00 	lea    0xba31(%rip),%rax        # 220a4 <g_88>
   16673:	48 89 85 e0 fb ff ff 	mov    %rax,-0x420(%rbp)
   1667a:	48 8d 05 23 ba 00 00 	lea    0xba23(%rip),%rax        # 220a4 <g_88>
   16681:	48 89 85 e8 fb ff ff 	mov    %rax,-0x418(%rbp)
   16688:	48 8d 85 80 ee ff ff 	lea    -0x1180(%rbp),%rax
   1668f:	48 89 85 f0 fb ff ff 	mov    %rax,-0x410(%rbp)
   16696:	48 c7 85 f8 fb ff ff 	movq   $0x0,-0x408(%rbp)
   1669d:	00 00 00 00 
   166a1:	48 8d 85 80 ee ff ff 	lea    -0x1180(%rbp),%rax
   166a8:	48 89 85 00 fc ff ff 	mov    %rax,-0x400(%rbp)
   166af:	48 c7 85 08 fc ff ff 	movq   $0x0,-0x3f8(%rbp)
   166b6:	00 00 00 00 
   166ba:	48 c7 85 10 fc ff ff 	movq   $0x0,-0x3f0(%rbp)
   166c1:	00 00 00 00 
   166c5:	48 8d 05 68 b9 00 00 	lea    0xb968(%rip),%rax        # 22034 <g_2+0x4>
   166cc:	48 89 85 18 fc ff ff 	mov    %rax,-0x3e8(%rbp)
   166d3:	48 c7 85 20 fc ff ff 	movq   $0x0,-0x3e0(%rbp)
   166da:	00 00 00 00 
   166de:	48 c7 85 28 fc ff ff 	movq   $0x0,-0x3d8(%rbp)
   166e5:	00 00 00 00 
   166e9:	48 8d 85 f0 ed ff ff 	lea    -0x1210(%rbp),%rax
   166f0:	48 89 85 30 fc ff ff 	mov    %rax,-0x3d0(%rbp)
   166f7:	48 8d 05 42 b9 00 00 	lea    0xb942(%rip),%rax        # 22040 <g_2+0x10>
   166fe:	48 89 85 38 fc ff ff 	mov    %rax,-0x3c8(%rbp)
   16705:	48 8d 05 34 b9 00 00 	lea    0xb934(%rip),%rax        # 22040 <g_2+0x10>
   1670c:	48 89 85 40 fc ff ff 	mov    %rax,-0x3c0(%rbp)
   16713:	48 8d 05 8a b9 00 00 	lea    0xb98a(%rip),%rax        # 220a4 <g_88>
   1671a:	48 89 85 48 fc ff ff 	mov    %rax,-0x3b8(%rbp)
   16721:	48 8d 05 18 b9 00 00 	lea    0xb918(%rip),%rax        # 22040 <g_2+0x10>
   16728:	48 89 85 50 fc ff ff 	mov    %rax,-0x3b0(%rbp)
   1672f:	48 8d 05 6e b9 00 00 	lea    0xb96e(%rip),%rax        # 220a4 <g_88>
   16736:	48 89 85 58 fc ff ff 	mov    %rax,-0x3a8(%rbp)
   1673d:	48 c7 85 60 fc ff ff 	movq   $0x0,-0x3a0(%rbp)
   16744:	00 00 00 00 
   16748:	48 8d 05 e5 b8 00 00 	lea    0xb8e5(%rip),%rax        # 22034 <g_2+0x4>
   1674f:	48 89 85 68 fc ff ff 	mov    %rax,-0x398(%rbp)
   16756:	48 8d 85 f4 ed ff ff 	lea    -0x120c(%rbp),%rax
   1675d:	48 89 85 70 fc ff ff 	mov    %rax,-0x390(%rbp)
   16764:	48 8d 85 f4 ed ff ff 	lea    -0x120c(%rbp),%rax
   1676b:	48 89 85 78 fc ff ff 	mov    %rax,-0x388(%rbp)
   16772:	48 8d 85 80 ee ff ff 	lea    -0x1180(%rbp),%rax
   16779:	48 89 85 80 fc ff ff 	mov    %rax,-0x380(%rbp)
   16780:	48 8d 05 1d b9 00 00 	lea    0xb91d(%rip),%rax        # 220a4 <g_88>
   16787:	48 89 85 88 fc ff ff 	mov    %rax,-0x378(%rbp)
   1678e:	48 8d 85 80 ee ff ff 	lea    -0x1180(%rbp),%rax
   16795:	48 89 85 90 fc ff ff 	mov    %rax,-0x370(%rbp)
   1679c:	48 8d 85 f4 ed ff ff 	lea    -0x120c(%rbp),%rax
   167a3:	48 89 85 98 fc ff ff 	mov    %rax,-0x368(%rbp)
   167aa:	48 c7 85 a0 fc ff ff 	movq   $0x0,-0x360(%rbp)
   167b1:	00 00 00 00 
   167b5:	48 8d 85 80 ee ff ff 	lea    -0x1180(%rbp),%rax
   167bc:	48 89 85 a8 fc ff ff 	mov    %rax,-0x358(%rbp)
   167c3:	48 8d 05 da b8 00 00 	lea    0xb8da(%rip),%rax        # 220a4 <g_88>
   167ca:	48 89 85 b0 fc ff ff 	mov    %rax,-0x350(%rbp)
   167d1:	48 8d 85 f0 ed ff ff 	lea    -0x1210(%rbp),%rax
   167d8:	48 89 85 b8 fc ff ff 	mov    %rax,-0x348(%rbp)
   167df:	48 8d 05 be b8 00 00 	lea    0xb8be(%rip),%rax        # 220a4 <g_88>
   167e6:	48 89 85 c0 fc ff ff 	mov    %rax,-0x340(%rbp)
   167ed:	48 8d 05 b0 b8 00 00 	lea    0xb8b0(%rip),%rax        # 220a4 <g_88>
   167f4:	48 89 85 c8 fc ff ff 	mov    %rax,-0x338(%rbp)
   167fb:	48 c7 85 d0 fc ff ff 	movq   $0x0,-0x330(%rbp)
   16802:	00 00 00 00 
   16806:	48 8d 05 33 b8 00 00 	lea    0xb833(%rip),%rax        # 22040 <g_2+0x10>
   1680d:	48 89 85 d8 fc ff ff 	mov    %rax,-0x328(%rbp)
   16814:	48 8d 85 f4 ed ff ff 	lea    -0x120c(%rbp),%rax
   1681b:	48 89 85 e0 fc ff ff 	mov    %rax,-0x320(%rbp)
   16822:	48 8d 05 1b b8 00 00 	lea    0xb81b(%rip),%rax        # 22044 <g_39>
   16829:	48 89 85 e8 fc ff ff 	mov    %rax,-0x318(%rbp)
   16830:	48 8d 85 80 ee ff ff 	lea    -0x1180(%rbp),%rax
   16837:	48 89 85 f0 fc ff ff 	mov    %rax,-0x310(%rbp)
   1683e:	48 8d 05 fb b7 00 00 	lea    0xb7fb(%rip),%rax        # 22040 <g_2+0x10>
   16845:	48 89 85 f8 fc ff ff 	mov    %rax,-0x308(%rbp)
   1684c:	48 8d 05 ed b7 00 00 	lea    0xb7ed(%rip),%rax        # 22040 <g_2+0x10>
   16853:	48 89 85 00 fd ff ff 	mov    %rax,-0x300(%rbp)
   1685a:	48 8d 85 80 ee ff ff 	lea    -0x1180(%rbp),%rax
   16861:	48 89 85 08 fd ff ff 	mov    %rax,-0x2f8(%rbp)
   16868:	48 8d 05 35 b8 00 00 	lea    0xb835(%rip),%rax        # 220a4 <g_88>
   1686f:	48 89 85 10 fd ff ff 	mov    %rax,-0x2f0(%rbp)
   16876:	48 8d 85 f0 ed ff ff 	lea    -0x1210(%rbp),%rax
   1687d:	48 89 85 18 fd ff ff 	mov    %rax,-0x2e8(%rbp)
   16884:	48 8d 85 f4 ed ff ff 	lea    -0x120c(%rbp),%rax
   1688b:	48 89 85 20 fd ff ff 	mov    %rax,-0x2e0(%rbp)
   16892:	48 8d 05 a7 b7 00 00 	lea    0xb7a7(%rip),%rax        # 22040 <g_2+0x10>
   16899:	48 89 85 28 fd ff ff 	mov    %rax,-0x2d8(%rbp)
   168a0:	48 8d 05 99 b7 00 00 	lea    0xb799(%rip),%rax        # 22040 <g_2+0x10>
   168a7:	48 89 85 30 fd ff ff 	mov    %rax,-0x2d0(%rbp)
   168ae:	48 8d 85 f4 ed ff ff 	lea    -0x120c(%rbp),%rax
   168b5:	48 89 85 38 fd ff ff 	mov    %rax,-0x2c8(%rbp)
   168bc:	48 8d 05 e1 b7 00 00 	lea    0xb7e1(%rip),%rax        # 220a4 <g_88>
   168c3:	48 89 85 40 fd ff ff 	mov    %rax,-0x2c0(%rbp)
   168ca:	48 c7 85 48 fd ff ff 	movq   $0x0,-0x2b8(%rbp)
   168d1:	00 00 00 00 
   168d5:	48 8d 85 f8 ed ff ff 	lea    -0x1208(%rbp),%rax
   168dc:	48 89 85 50 fd ff ff 	mov    %rax,-0x2b0(%rbp)
   168e3:	48 8d 05 ba b7 00 00 	lea    0xb7ba(%rip),%rax        # 220a4 <g_88>
   168ea:	48 89 85 58 fd ff ff 	mov    %rax,-0x2a8(%rbp)
   168f1:	48 8d 85 f8 ed ff ff 	lea    -0x1208(%rbp),%rax
   168f8:	48 89 85 60 fd ff ff 	mov    %rax,-0x2a0(%rbp)
   168ff:	48 8d 05 9e b7 00 00 	lea    0xb79e(%rip),%rax        # 220a4 <g_88>
   16906:	48 89 85 68 fd ff ff 	mov    %rax,-0x298(%rbp)
   1690d:	48 8d 05 30 b7 00 00 	lea    0xb730(%rip),%rax        # 22044 <g_39>
   16914:	48 89 85 70 fd ff ff 	mov    %rax,-0x290(%rbp)
   1691b:	48 8d 85 f4 ed ff ff 	lea    -0x120c(%rbp),%rax
   16922:	48 89 85 78 fd ff ff 	mov    %rax,-0x288(%rbp)
   16929:	48 8d 05 10 b7 00 00 	lea    0xb710(%rip),%rax        # 22040 <g_2+0x10>
   16930:	48 89 85 80 fd ff ff 	mov    %rax,-0x280(%rbp)
   16937:	48 c7 85 88 fd ff ff 	movq   $0x0,-0x278(%rbp)
   1693e:	00 00 00 00 
   16942:	48 c7 85 90 fd ff ff 	movq   $0x0,-0x270(%rbp)
   16949:	00 00 00 00 
   1694d:	48 c7 85 98 fd ff ff 	movq   $0x0,-0x268(%rbp)
   16954:	00 00 00 00 
   16958:	48 8d 85 f8 ed ff ff 	lea    -0x1208(%rbp),%rax
   1695f:	48 89 85 a0 fd ff ff 	mov    %rax,-0x260(%rbp)
   16966:	48 8d 05 d3 b6 00 00 	lea    0xb6d3(%rip),%rax        # 22040 <g_2+0x10>
   1696d:	48 89 85 a8 fd ff ff 	mov    %rax,-0x258(%rbp)
   16974:	48 8d 85 f4 ed ff ff 	lea    -0x120c(%rbp),%rax
   1697b:	48 89 85 b0 fd ff ff 	mov    %rax,-0x250(%rbp)
   16982:	48 8d 05 1b b7 00 00 	lea    0xb71b(%rip),%rax        # 220a4 <g_88>
   16989:	48 89 85 b8 fd ff ff 	mov    %rax,-0x248(%rbp)
   16990:	48 8d 85 f4 ed ff ff 	lea    -0x120c(%rbp),%rax
   16997:	48 89 85 c0 fd ff ff 	mov    %rax,-0x240(%rbp)
   1699e:	48 c7 85 c8 fd ff ff 	movq   $0x0,-0x238(%rbp)
   169a5:	00 00 00 00 
   169a9:	48 8d 05 90 b6 00 00 	lea    0xb690(%rip),%rax        # 22040 <g_2+0x10>
   169b0:	48 89 85 d0 fd ff ff 	mov    %rax,-0x230(%rbp)
   169b7:	48 c7 85 d8 fd ff ff 	movq   $0x0,-0x228(%rbp)
   169be:	00 00 00 00 
   169c2:	48 c7 85 e0 fd ff ff 	movq   $0x0,-0x220(%rbp)
   169c9:	00 00 00 00 
   169cd:	48 c7 85 e8 fd ff ff 	movq   $0x0,-0x218(%rbp)
   169d4:	00 00 00 00 
   169d8:	48 8d 05 c5 b6 00 00 	lea    0xb6c5(%rip),%rax        # 220a4 <g_88>
   169df:	48 89 85 f0 fd ff ff 	mov    %rax,-0x210(%rbp)
   169e6:	48 8d 85 f4 ed ff ff 	lea    -0x120c(%rbp),%rax
   169ed:	48 89 85 f8 fd ff ff 	mov    %rax,-0x208(%rbp)
   169f4:	48 8d 05 a9 b6 00 00 	lea    0xb6a9(%rip),%rax        # 220a4 <g_88>
   169fb:	48 89 85 00 fe ff ff 	mov    %rax,-0x200(%rbp)
   16a02:	48 8d 85 f4 ed ff ff 	lea    -0x120c(%rbp),%rax
   16a09:	48 89 85 08 fe ff ff 	mov    %rax,-0x1f8(%rbp)
   16a10:	48 8d 05 8d b6 00 00 	lea    0xb68d(%rip),%rax        # 220a4 <g_88>
   16a17:	48 89 85 10 fe ff ff 	mov    %rax,-0x1f0(%rbp)
   16a1e:	48 8d 85 f0 ed ff ff 	lea    -0x1210(%rbp),%rax
   16a25:	48 89 85 18 fe ff ff 	mov    %rax,-0x1e8(%rbp)
   16a2c:	48 8d 85 f4 ed ff ff 	lea    -0x120c(%rbp),%rax
   16a33:	48 89 85 20 fe ff ff 	mov    %rax,-0x1e0(%rbp)
   16a3a:	48 8d 05 03 b6 00 00 	lea    0xb603(%rip),%rax        # 22044 <g_39>
   16a41:	48 89 85 28 fe ff ff 	mov    %rax,-0x1d8(%rbp)
   16a48:	48 c7 85 30 fe ff ff 	movq   $0x0,-0x1d0(%rbp)
   16a4f:	00 00 00 00 
   16a53:	48 c7 85 38 fe ff ff 	movq   $0x0,-0x1c8(%rbp)
   16a5a:	00 00 00 00 
   16a5e:	48 8d 85 f8 ed ff ff 	lea    -0x1208(%rbp),%rax
   16a65:	48 89 85 40 fe ff ff 	mov    %rax,-0x1c0(%rbp)
   16a6c:	48 8d 85 f4 ed ff ff 	lea    -0x120c(%rbp),%rax
   16a73:	48 89 85 48 fe ff ff 	mov    %rax,-0x1b8(%rbp)
   16a7a:	48 c7 85 50 fe ff ff 	movq   $0x0,-0x1b0(%rbp)
   16a81:	00 00 00 00 
   16a85:	48 8d 05 b8 b5 00 00 	lea    0xb5b8(%rip),%rax        # 22044 <g_39>
   16a8c:	48 89 85 58 fe ff ff 	mov    %rax,-0x1a8(%rbp)
   16a93:	48 8d 05 0a b6 00 00 	lea    0xb60a(%rip),%rax        # 220a4 <g_88>
   16a9a:	48 89 85 60 fe ff ff 	mov    %rax,-0x1a0(%rbp)
   16aa1:	48 8d 05 fc b5 00 00 	lea    0xb5fc(%rip),%rax        # 220a4 <g_88>
   16aa8:	48 89 85 68 fe ff ff 	mov    %rax,-0x198(%rbp)
   16aaf:	48 c7 85 70 fe ff ff 	movq   $0x0,-0x190(%rbp)
   16ab6:	00 00 00 00 
   16aba:	48 c7 85 78 fe ff ff 	movq   $0x0,-0x188(%rbp)
   16ac1:	00 00 00 00 
   16ac5:	48 8d 05 78 b5 00 00 	lea    0xb578(%rip),%rax        # 22044 <g_39>
   16acc:	48 89 85 80 fe ff ff 	mov    %rax,-0x180(%rbp)
   16ad3:	48 c7 85 88 fe ff ff 	movq   $0x0,-0x178(%rbp)
   16ada:	00 00 00 00 
   16ade:	48 8d 05 5f b5 00 00 	lea    0xb55f(%rip),%rax        # 22044 <g_39>
   16ae5:	48 89 85 90 fe ff ff 	mov    %rax,-0x170(%rbp)
   16aec:	48 8d 85 f8 ed ff ff 	lea    -0x1208(%rbp),%rax
   16af3:	48 89 85 98 fe ff ff 	mov    %rax,-0x168(%rbp)
   16afa:	48 8d 05 a3 b5 00 00 	lea    0xb5a3(%rip),%rax        # 220a4 <g_88>
   16b01:	48 89 85 a0 fe ff ff 	mov    %rax,-0x160(%rbp)
   16b08:	48 8d 05 31 b5 00 00 	lea    0xb531(%rip),%rax        # 22040 <g_2+0x10>
   16b0f:	48 89 85 a8 fe ff ff 	mov    %rax,-0x158(%rbp)
   16b16:	48 8d 85 f4 ed ff ff 	lea    -0x120c(%rbp),%rax
   16b1d:	48 89 85 b0 fe ff ff 	mov    %rax,-0x150(%rbp)
   16b24:	48 8d 85 80 ee ff ff 	lea    -0x1180(%rbp),%rax
   16b2b:	48 89 85 b8 fe ff ff 	mov    %rax,-0x148(%rbp)
   16b32:	48 8d 05 6b b5 00 00 	lea    0xb56b(%rip),%rax        # 220a4 <g_88>
   16b39:	48 89 85 c0 fe ff ff 	mov    %rax,-0x140(%rbp)
   16b40:	48 8d 85 f0 ed ff ff 	lea    -0x1210(%rbp),%rax
   16b47:	48 89 85 c8 fe ff ff 	mov    %rax,-0x138(%rbp)
   16b4e:	48 8d 85 f0 ed ff ff 	lea    -0x1210(%rbp),%rax
   16b55:	48 89 85 d0 fe ff ff 	mov    %rax,-0x130(%rbp)
   16b5c:	48 c7 85 d8 fe ff ff 	movq   $0x0,-0x128(%rbp)
   16b63:	00 00 00 00 
   16b67:	48 8d 85 f0 ed ff ff 	lea    -0x1210(%rbp),%rax
   16b6e:	48 89 85 e0 fe ff ff 	mov    %rax,-0x120(%rbp)
   16b75:	48 8d 85 f4 ed ff ff 	lea    -0x120c(%rbp),%rax
   16b7c:	48 89 85 e8 fe ff ff 	mov    %rax,-0x118(%rbp)
   16b83:	48 c7 85 f0 fe ff ff 	movq   $0x0,-0x110(%rbp)
   16b8a:	00 00 00 00 
   16b8e:	48 c7 85 f8 fe ff ff 	movq   $0x0,-0x108(%rbp)
   16b95:	00 00 00 00 
   16b99:	48 8d 05 a4 b4 00 00 	lea    0xb4a4(%rip),%rax        # 22044 <g_39>
   16ba0:	48 89 85 00 ff ff ff 	mov    %rax,-0x100(%rbp)
   16ba7:	48 8d 85 80 ee ff ff 	lea    -0x1180(%rbp),%rax
   16bae:	48 89 85 08 ff ff ff 	mov    %rax,-0xf8(%rbp)
   16bb5:	48 8d 85 f0 ed ff ff 	lea    -0x1210(%rbp),%rax
   16bbc:	48 89 85 10 ff ff ff 	mov    %rax,-0xf0(%rbp)
   16bc3:	48 8d 85 f0 ed ff ff 	lea    -0x1210(%rbp),%rax
   16bca:	48 89 85 18 ff ff ff 	mov    %rax,-0xe8(%rbp)
   16bd1:	48 c7 85 20 ff ff ff 	movq   $0x0,-0xe0(%rbp)
   16bd8:	00 00 00 00 
   16bdc:	48 8d 05 61 b4 00 00 	lea    0xb461(%rip),%rax        # 22044 <g_39>
   16be3:	48 89 85 28 ff ff ff 	mov    %rax,-0xd8(%rbp)
   16bea:	48 8d 05 53 b4 00 00 	lea    0xb453(%rip),%rax        # 22044 <g_39>
   16bf1:	48 89 85 30 ff ff ff 	mov    %rax,-0xd0(%rbp)
   16bf8:	48 c7 85 38 ff ff ff 	movq   $0x0,-0xc8(%rbp)
   16bff:	00 00 00 00 
   16c03:	48 c7 85 40 ff ff ff 	movq   $0x0,-0xc0(%rbp)
   16c0a:	00 00 00 00 
   16c0e:	48 8d 05 8f b4 00 00 	lea    0xb48f(%rip),%rax        # 220a4 <g_88>
   16c15:	48 89 85 48 ff ff ff 	mov    %rax,-0xb8(%rbp)
   16c1c:	48 8d 05 1d b4 00 00 	lea    0xb41d(%rip),%rax        # 22040 <g_2+0x10>
   16c23:	48 89 85 50 ff ff ff 	mov    %rax,-0xb0(%rbp)
   16c2a:	48 8d 05 73 b4 00 00 	lea    0xb473(%rip),%rax        # 220a4 <g_88>
   16c31:	48 89 85 58 ff ff ff 	mov    %rax,-0xa8(%rbp)
   16c38:	48 8d 05 01 b4 00 00 	lea    0xb401(%rip),%rax        # 22040 <g_2+0x10>
   16c3f:	48 89 85 60 ff ff ff 	mov    %rax,-0xa0(%rbp)
   16c46:	48 8d 05 f3 b3 00 00 	lea    0xb3f3(%rip),%rax        # 22040 <g_2+0x10>
   16c4d:	48 89 85 68 ff ff ff 	mov    %rax,-0x98(%rbp)
   16c54:	48 c7 85 70 ff ff ff 	movq   $0x0,-0x90(%rbp)
   16c5b:	00 00 00 00 
   16c5f:	48 8d 85 f0 ed ff ff 	lea    -0x1210(%rbp),%rax
   16c66:	48 89 85 78 ff ff ff 	mov    %rax,-0x88(%rbp)
   16c6d:	48 8d 85 f8 ed ff ff 	lea    -0x1208(%rbp),%rax
   16c74:	48 89 45 80          	mov    %rax,-0x80(%rbp)
   16c78:	48 8d 85 f8 ed ff ff 	lea    -0x1208(%rbp),%rax
   16c7f:	48 89 45 88          	mov    %rax,-0x78(%rbp)
   16c83:	48 8d 05 1a b4 00 00 	lea    0xb41a(%rip),%rax        # 220a4 <g_88>
   16c8a:	48 89 45 90          	mov    %rax,-0x70(%rbp)
   16c8e:	48 8d 05 0f b4 00 00 	lea    0xb40f(%rip),%rax        # 220a4 <g_88>
   16c95:	48 89 45 98          	mov    %rax,-0x68(%rbp)
   16c99:	48 c7 45 a0 00 00 00 	movq   $0x0,-0x60(%rbp)
   16ca0:	00 
   16ca1:	48 8d 85 f0 ed ff ff 	lea    -0x1210(%rbp),%rax
   16ca8:	48 89 45 a8          	mov    %rax,-0x58(%rbp)
   16cac:	48 8d 05 8d b3 00 00 	lea    0xb38d(%rip),%rax        # 22040 <g_2+0x10>
   16cb3:	48 89 45 b0          	mov    %rax,-0x50(%rbp)
   16cb7:	48 8d 85 80 ee ff ff 	lea    -0x1180(%rbp),%rax
   16cbe:	48 89 45 b8          	mov    %rax,-0x48(%rbp)
   16cc2:	48 c7 85 c0 ef ff ff 	movq   $0x0,-0x1040(%rbp)
   16cc9:	00 00 00 00 
   16ccd:	48 c7 85 c8 ef ff ff 	movq   $0x0,-0x1038(%rbp)
   16cd4:	00 00 00 00 
   16cd8:	c7 85 14 ee ff ff 00 	movl   $0x0,-0x11ec(%rbp)
   16cdf:	00 00 00 
   16ce2:	eb 21                	jmp    16d05 <func_72+0x1183>
   16ce4:	8b 85 14 ee ff ff    	mov    -0x11ec(%rbp),%eax
   16cea:	48 98                	cltq   
   16cec:	48 bb 31 3d 22 cd 57 	movabs $0x6e26e957cd223d31,%rbx
   16cf3:	e9 26 6e 
   16cf6:	48 89 9c c5 30 f1 ff 	mov    %rbx,-0xed0(%rbp,%rax,8)
   16cfd:	ff 
   16cfe:	83 85 14 ee ff ff 01 	addl   $0x1,-0x11ec(%rbp)
   16d05:	83 bd 14 ee ff ff 06 	cmpl   $0x6,-0x11ec(%rbp)
   16d0c:	7e d6                	jle    16ce4 <func_72+0x1162>
   16d0e:	8b 05 7c b7 00 00    	mov    0xb77c(%rip),%eax        # 22490 <g_616>
   16d14:	83 e8 01             	sub    $0x1,%eax
   16d17:	89 05 73 b7 00 00    	mov    %eax,0xb773(%rip)        # 22490 <g_616>
   16d1d:	48 8b 05 bc dd 00 00 	mov    0xddbc(%rip),%rax        # 24ae0 <g_621>
   16d24:	48 8b 95 d0 ed ff ff 	mov    -0x1230(%rbp),%rdx
   16d2b:	48 89 10             	mov    %rdx,(%rax)
   16d2e:	c7 85 fc ed ff ff 14 	movl   $0x14,-0x1204(%rbp)
   16d35:	00 00 00 
   16d38:	e9 b8 02 00 00       	jmpq   16ff5 <func_72+0x1473>
   16d3d:	48 c7 85 d0 ef ff ff 	movq   $0x0,-0x1030(%rbp)
   16d44:	00 00 00 00 
   16d48:	48 c7 85 d8 ef ff ff 	movq   $0x0,-0x1028(%rbp)
   16d4f:	00 00 00 00 
   16d53:	c7 85 18 ee ff ff 00 	movl   $0x0,-0x11e8(%rbp)
   16d5a:	00 00 00 
   16d5d:	eb 1e                	jmp    16d7d <func_72+0x11fb>
   16d5f:	8b 85 18 ee ff ff    	mov    -0x11e8(%rbp),%eax
   16d65:	48 98                	cltq   
   16d67:	48 8d 95 48 ee ff ff 	lea    -0x11b8(%rbp),%rdx
   16d6e:	48 89 94 c5 50 f2 ff 	mov    %rdx,-0xdb0(%rbp,%rax,8)
   16d75:	ff 
   16d76:	83 85 18 ee ff ff 01 	addl   $0x1,-0x11e8(%rbp)
   16d7d:	83 bd 18 ee ff ff 07 	cmpl   $0x7,-0x11e8(%rbp)
   16d84:	7e d9                	jle    16d5f <func_72+0x11dd>
   16d86:	c7 85 f0 ed ff ff 06 	movl   $0x6,-0x1210(%rbp)
   16d8d:	00 00 00 
   16d90:	e9 b0 01 00 00       	jmpq   16f45 <func_72+0x13c3>
   16d95:	c7 85 44 ee ff ff 04 	movl   $0x4,-0x11bc(%rbp)
   16d9c:	00 00 00 
   16d9f:	c7 85 f4 ed ff ff 00 	movl   $0x0,-0x120c(%rbp)
   16da6:	00 00 00 
   16da9:	e9 6b 01 00 00       	jmpq   16f19 <func_72+0x1397>
   16dae:	c7 85 1c ee ff ff 00 	movl   $0x0,-0x11e4(%rbp)
   16db5:	00 00 00 
   16db8:	eb 1a                	jmp    16dd4 <func_72+0x1252>
   16dba:	8b 85 1c ee ff ff    	mov    -0x11e4(%rbp),%eax
   16dc0:	48 98                	cltq   
   16dc2:	c7 84 85 40 f0 ff ff 	movl   $0x72a32b87,-0xfc0(%rbp,%rax,4)
   16dc9:	87 2b a3 72 
   16dcd:	83 85 1c ee ff ff 01 	addl   $0x1,-0x11e4(%rbp)
   16dd4:	83 bd 1c ee ff ff 06 	cmpl   $0x6,-0x11e4(%rbp)
   16ddb:	7e dd                	jle    16dba <func_72+0x1238>
   16ddd:	0f b6 85 dc ed ff ff 	movzbl -0x1224(%rbp),%eax
   16de4:	44 0f be e0          	movsbl %al,%r12d
   16de8:	48 8b 05 29 d5 00 00 	mov    0xd529(%rip),%rax        # 24318 <g_215>
   16def:	8b 00                	mov    (%rax),%eax
   16df1:	41 89 c7             	mov    %eax,%r15d
   16df4:	0f b6 05 cc b2 00 00 	movzbl 0xb2cc(%rip),%eax        # 220c7 <g_155+0x7>
   16dfb:	0f be d8             	movsbl %al,%ebx
   16dfe:	48 8b 05 0b d5 00 00 	mov    0xd50b(%rip),%rax        # 24310 <g_197>
   16e05:	48 8b 00             	mov    (%rax),%rax
   16e08:	0f b7 00             	movzwl (%rax),%eax
   16e0b:	44 0f b7 e8          	movzwl %ax,%r13d
   16e0f:	48 8d 85 80 ee ff ff 	lea    -0x1180(%rbp),%rax
   16e16:	48 89 05 63 f1 00 00 	mov    %rax,0xf163(%rip)        # 25f80 <g_622>
   16e1d:	0f b7 85 d8 ed ff ff 	movzwl -0x1228(%rbp),%eax
   16e24:	0f b6 c0             	movzbl %al,%eax
   16e27:	be 04 00 00 00       	mov    $0x4,%esi
   16e2c:	89 c7                	mov    %eax,%edi
   16e2e:	e8 8b 2e ff ff       	callq  9cbe <safe_rshift_func_uint8_t_u_u>
   16e33:	44 0f b6 f0          	movzbl %al,%r14d
   16e37:	8b 85 44 f0 ff ff    	mov    -0xfbc(%rbp),%eax
   16e3d:	89 c2                	mov    %eax,%edx
   16e3f:	8b 85 44 ee ff ff    	mov    -0x11bc(%rbp),%eax
   16e45:	89 d6                	mov    %edx,%esi
   16e47:	89 c7                	mov    %eax,%edi
   16e49:	e8 82 30 ff ff       	callq  9ed0 <safe_sub_func_uint32_t_u_u>
   16e4e:	44 09 f0             	or     %r14d,%eax
   16e51:	41 39 c5             	cmp    %eax,%r13d
   16e54:	0f 95 c0             	setne  %al
   16e57:	0f b6 c0             	movzbl %al,%eax
   16e5a:	be 5d 00 00 00       	mov    $0x5d,%esi
   16e5f:	89 c7                	mov    %eax,%edi
   16e61:	e8 6e 23 ff ff       	callq  91d4 <safe_add_func_int8_t_s_s>
   16e66:	0f be c0             	movsbl %al,%eax
   16e69:	89 de                	mov    %ebx,%esi
   16e6b:	89 c7                	mov    %eax,%edi
   16e6d:	e8 46 30 ff ff       	callq  9eb8 <safe_add_func_uint32_t_u_u>
   16e72:	48 8b 95 98 ef ff ff 	mov    -0x1068(%rbp),%rdx
   16e79:	8b 12                	mov    (%rdx),%edx
   16e7b:	39 d0                	cmp    %edx,%eax
   16e7d:	0f 95 c0             	setne  %al
   16e80:	0f b6 d0             	movzbl %al,%edx
   16e83:	48 8b 85 48 ee ff ff 	mov    -0x11b8(%rbp),%rax
   16e8a:	8b 00                	mov    (%rax),%eax
   16e8c:	39 c2                	cmp    %eax,%edx
   16e8e:	0f 9c c0             	setl   %al
   16e91:	0f b6 c0             	movzbl %al,%eax
   16e94:	44 89 fe             	mov    %r15d,%esi
   16e97:	89 c7                	mov    %eax,%edi
   16e99:	e8 5f 30 ff ff       	callq  9efd <safe_mod_func_uint32_t_u_u>
   16e9e:	41 39 c4             	cmp    %eax,%r12d
   16ea1:	0f 95 c0             	setne  %al
   16ea4:	0f b6 d0             	movzbl %al,%edx
   16ea7:	0f b6 85 dc ed ff ff 	movzbl -0x1224(%rbp),%eax
   16eae:	0f be c0             	movsbl %al,%eax
   16eb1:	89 d6                	mov    %edx,%esi
   16eb3:	89 c7                	mov    %eax,%edi
   16eb5:	e8 3b 25 ff ff       	callq  93f5 <safe_mul_func_int16_t_s_s>
   16eba:	0f be d8             	movsbl %al,%ebx
   16ebd:	0f b7 85 d8 ed ff ff 	movzwl -0x1228(%rbp),%eax
   16ec4:	0f be c0             	movsbl %al,%eax
   16ec7:	be 05 00 00 00       	mov    $0x5,%esi
   16ecc:	89 c7                	mov    %eax,%edi
   16ece:	e8 ce 23 ff ff       	callq  92a1 <safe_lshift_func_int8_t_s_s>
   16ed3:	0f be c0             	movsbl %al,%eax
   16ed6:	89 de                	mov    %ebx,%esi
   16ed8:	89 c7                	mov    %eax,%edi
   16eda:	e8 33 23 ff ff       	callq  9212 <safe_mul_func_int8_t_s_s>
   16edf:	48 8b 95 88 ef ff ff 	mov    -0x1078(%rbp),%rdx
   16ee6:	8b 12                	mov    (%rdx),%edx
   16ee8:	0f be c0             	movsbl %al,%eax
   16eeb:	09 c2                	or     %eax,%edx
   16eed:	48 8b 85 88 ef ff ff 	mov    -0x1078(%rbp),%rax
   16ef4:	89 10                	mov    %edx,(%rax)
   16ef6:	48 8b 15 e3 db 00 00 	mov    0xdbe3(%rip),%rdx        # 24ae0 <g_621>
   16efd:	48 8b 05 e4 db 00 00 	mov    0xdbe4(%rip),%rax        # 24ae8 <g_646>
   16f04:	48 8b 12             	mov    (%rdx),%rdx
   16f07:	48 89 10             	mov    %rdx,(%rax)
   16f0a:	8b 85 f4 ed ff ff    	mov    -0x120c(%rbp),%eax
   16f10:	83 c0 01             	add    $0x1,%eax
   16f13:	89 85 f4 ed ff ff    	mov    %eax,-0x120c(%rbp)
   16f19:	8b 85 f4 ed ff ff    	mov    -0x120c(%rbp),%eax
   16f1f:	83 f8 03             	cmp    $0x3,%eax
   16f22:	0f 8e 86 fe ff ff    	jle    16dae <func_72+0x122c>
   16f28:	48 8b 85 d0 ed ff ff 	mov    -0x1230(%rbp),%rax
   16f2f:	48 89 85 d0 ef ff ff 	mov    %rax,-0x1030(%rbp)
   16f36:	8b 85 f0 ed ff ff    	mov    -0x1210(%rbp),%eax
   16f3c:	83 c0 01             	add    $0x1,%eax
   16f3f:	89 85 f0 ed ff ff    	mov    %eax,-0x1210(%rbp)
   16f45:	8b 85 f0 ed ff ff    	mov    -0x1210(%rbp),%eax
   16f4b:	83 f8 16             	cmp    $0x16,%eax
   16f4e:	0f 85 41 fe ff ff    	jne    16d95 <func_72+0x1213>
   16f54:	0f b7 85 d8 ed ff ff 	movzwl -0x1228(%rbp),%eax
   16f5b:	0f bf d8             	movswl %ax,%ebx
   16f5e:	0f b7 85 d8 ed ff ff 	movzwl -0x1228(%rbp),%eax
   16f65:	0f b7 d0             	movzwl %ax,%edx
   16f68:	0f b7 85 d8 ed ff ff 	movzwl -0x1228(%rbp),%eax
   16f6f:	48 0f bf c0          	movswq %ax,%rax
   16f73:	48 b9 c4 4f cf 63 ad 	movabs $0xdb4479ad63cf4fc4,%rcx
   16f7a:	79 44 db 
   16f7d:	48 39 c8             	cmp    %rcx,%rax
   16f80:	75 30                	jne    16fb2 <func_72+0x1430>
   16f82:	48 8b 05 3f db 00 00 	mov    0xdb3f(%rip),%rax        # 24ac8 <g_411>
   16f89:	0f b7 00             	movzwl (%rax),%eax
   16f8c:	66 85 c0             	test   %ax,%ax
   16f8f:	74 28                	je     16fb9 <func_72+0x1437>
   16f91:	48 8b 0d 50 db 00 00 	mov    0xdb50(%rip),%rcx        # 24ae8 <g_646>
   16f98:	48 8b 05 41 db 00 00 	mov    0xdb41(%rip),%rax        # 24ae0 <g_621>
   16f9f:	48 8b 09             	mov    (%rcx),%rcx
   16fa2:	48 89 08             	mov    %rcx,(%rax)
   16fa5:	48 8b 08             	mov    (%rax),%rcx
   16fa8:	48 8d 85 fc ed ff ff 	lea    -0x1204(%rbp),%rax
   16faf:	48 39 c1             	cmp    %rax,%rcx
   16fb2:	b8 01 00 00 00       	mov    $0x1,%eax
   16fb7:	eb 05                	jmp    16fbe <func_72+0x143c>
   16fb9:	b8 00 00 00 00       	mov    $0x0,%eax
   16fbe:	3d f1 6c 00 00       	cmp    $0x6cf1,%eax
   16fc3:	0f 9e c0             	setle  %al
   16fc6:	0f b6 c0             	movzbl %al,%eax
   16fc9:	89 d6                	mov    %edx,%esi
   16fcb:	89 c7                	mov    %eax,%edi
   16fcd:	e8 8a 2d ff ff       	callq  9d5c <safe_mod_func_uint16_t_u_u>
   16fd2:	0f b7 c0             	movzwl %ax,%eax
   16fd5:	39 c3                	cmp    %eax,%ebx
   16fd7:	0f 9d c0             	setge  %al
   16fda:	0f b6 d0             	movzbl %al,%edx
   16fdd:	48 8b 85 88 ef ff ff 	mov    -0x1078(%rbp),%rax
   16fe4:	89 10                	mov    %edx,(%rax)
   16fe6:	8b 85 fc ed ff ff    	mov    -0x1204(%rbp),%eax
   16fec:	83 c0 01             	add    $0x1,%eax
   16fef:	89 85 fc ed ff ff    	mov    %eax,-0x1204(%rbp)
   16ff5:	8b 85 fc ed ff ff    	mov    -0x1204(%rbp),%eax
   16ffb:	83 f8 1b             	cmp    $0x1b,%eax
   16ffe:	0f 85 39 fd ff ff    	jne    16d3d <func_72+0x11bb>
   17004:	48 8b 85 48 ee ff ff 	mov    -0x11b8(%rbp),%rax
   1700b:	8b 00                	mov    (%rax),%eax
   1700d:	85 c0                	test   %eax,%eax
   1700f:	0f b7 85 d8 ed ff ff 	movzwl -0x1228(%rbp),%eax
   17016:	98                   	cwtl   
   17017:	be 08 00 00 00       	mov    $0x8,%esi
   1701c:	89 c7                	mov    %eax,%edi
   1701e:	e8 e2 25 ff ff       	callq  9605 <safe_sub_func_int32_t_s_s>
   17023:	66 89 85 d8 ed ff ff 	mov    %ax,-0x1228(%rbp)
   1702a:	0f b7 85 d8 ed ff ff 	movzwl -0x1228(%rbp),%eax
   17031:	66 83 f8 e7          	cmp    $0xffe7,%ax
   17035:	0f 8d b8 ef ff ff    	jge    15ff3 <func_72+0x471>
   1703b:	48 8b 05 b6 b0 00 00 	mov    0xb0b6(%rip),%rax        # 220f8 <g_462>
   17042:	e9 1c 17 00 00       	jmpq   18763 <func_72+0x2be1>
   17047:	48 b8 08 f5 02 92 02 	movabs $0x808f5029202f508,%rax
   1704e:	f5 08 08 
   17051:	48 89 85 70 f0 ff ff 	mov    %rax,-0xf90(%rbp)
   17058:	c6 85 78 f0 ff ff e4 	movb   $0xe4,-0xf88(%rbp)
   1705f:	48 b8 ab ec 00 ce 34 	movabs $0x5f64c34ce00ecab,%rax
   17066:	4c f6 05 
   17069:	48 89 85 79 f0 ff ff 	mov    %rax,-0xf87(%rbp)
   17070:	c6 85 81 f0 ff ff f6 	movb   $0xf6,-0xf7f(%rbp)
   17077:	48 b8 ff 8a 41 41 8a 	movabs $0x8e4ff8a41418aff,%rax
   1707e:	ff e4 08 
   17081:	48 89 85 82 f0 ff ff 	mov    %rax,-0xf7e(%rbp)
   17088:	c6 85 8a f0 ff ff 08 	movb   $0x8,-0xf76(%rbp)
   1708f:	48 b8 05 bc 01 4c ab 	movabs $0x343400ab4c01bc05,%rax
   17096:	00 34 34 
   17099:	48 89 85 8b f0 ff ff 	mov    %rax,-0xf75(%rbp)
   170a0:	c6 85 93 f0 ff ff 00 	movb   $0x0,-0xf6d(%rbp)
   170a7:	48 b8 41 09 08 09 41 	movabs $0x92e4024109080941,%rax
   170ae:	02 e4 92 
   170b1:	48 89 85 94 f0 ff ff 	mov    %rax,-0xf6c(%rbp)
   170b8:	c6 85 9c f0 ff ff 76 	movb   $0x76,-0xf64(%rbp)
   170bf:	48 b8 01 34 05 00 bc 	movabs $0xecf6ecbc00053401,%rax
   170c6:	ec f6 ec 
   170c9:	48 89 85 9d f0 ff ff 	mov    %rax,-0xf63(%rbp)
   170d0:	c6 85 a5 f0 ff ff bc 	movb   $0xbc,-0xf5b(%rbp)
   170d7:	48 b8 e4 06 06 e4 c8 	movabs $0xff0802c8e40606e4,%rax
   170de:	02 08 ff 
   170e1:	48 89 85 a6 f0 ff ff 	mov    %rax,-0xf5a(%rbp)
   170e8:	c6 85 ae f0 ff ff 0b 	movb   $0xb,-0xf52(%rbp)
   170ef:	48 b8 7a f9 ab 05 91 	movabs $0x9100009105abf97a,%rax
   170f6:	00 00 91 
   170f9:	48 89 85 af f0 ff ff 	mov    %rax,-0xf51(%rbp)
   17100:	c6 85 b7 f0 ff ff 05 	movb   $0x5,-0xf49(%rbp)
   17107:	48 b8 f5 8d f5 50 c8 	movabs $0x76ffc850f58df5,%rax
   1710e:	ff 76 00 
   17111:	48 89 85 b8 f0 ff ff 	mov    %rax,-0xf48(%rbp)
   17118:	c6 85 c0 f0 ff ff 02 	movb   $0x2,-0xf40(%rbp)
   1711f:	c7 85 00 ee ff ff 0e 	movl   $0x28db5a0e,-0x1200(%rbp)
   17126:	5a db 28 
   17129:	48 8d 85 40 f8 ff ff 	lea    -0x7c0(%rbp),%rax
   17130:	48 8d 15 49 bc 00 00 	lea    0xbc49(%rip),%rdx        # 22d80 <g_2474+0x856>
   17137:	b9 b4 00 00 00       	mov    $0xb4,%ecx
   1713c:	48 89 c7             	mov    %rax,%rdi
   1713f:	48 89 d6             	mov    %rdx,%rsi
   17142:	f3 48 a5             	rep movsq %ds:(%rsi),%es:(%rdi)
   17145:	c6 85 e8 ed ff ff f5 	movb   $0xf5,-0x1218(%rbp)
   1714c:	48 8d 85 58 ee ff ff 	lea    -0x11a8(%rbp),%rax
   17153:	48 89 85 98 ee ff ff 	mov    %rax,-0x1168(%rbp)
   1715a:	c7 85 08 ee ff ff 00 	movl   $0x0,-0x11f8(%rbp)
   17161:	00 00 00 
   17164:	eb 1a                	jmp    17180 <func_72+0x15fe>
   17166:	8b 85 08 ee ff ff    	mov    -0x11f8(%rbp),%eax
   1716c:	48 98                	cltq   
   1716e:	c7 84 85 e4 ef ff ff 	movl   $0xc3a8edf4,-0x101c(%rbp,%rax,4)
   17175:	f4 ed a8 c3 
   17179:	83 85 08 ee ff ff 01 	addl   $0x1,-0x11f8(%rbp)
   17180:	83 bd 08 ee ff ff 02 	cmpl   $0x2,-0x11f8(%rbp)
   17187:	7e dd                	jle    17166 <func_72+0x15e4>
   17189:	c7 85 fc ed ff ff 1d 	movl   $0x1d,-0x1204(%rbp)
   17190:	00 00 00 
   17193:	90                   	nop
   17194:	8b 85 fc ed ff ff    	mov    -0x1204(%rbp),%eax
   1719a:	83 f8 f5             	cmp    $0xfffffff5,%eax
   1719d:	0f 84 b9 15 00 00    	je     1875c <func_72+0x2bda>
   171a3:	c6 85 e9 ed ff ff 8c 	movb   $0x8c,-0x1217(%rbp)
   171aa:	48 8d 05 5f b2 00 00 	lea    0xb25f(%rip),%rax        # 22410 <g_546+0x2f0>
   171b1:	48 89 85 a0 ee ff ff 	mov    %rax,-0x1160(%rbp)
   171b8:	66 c7 85 ee ed ff ff 	movw   $0xfffb,-0x1212(%rbp)
   171bf:	fb ff 
   171c1:	48 8d 05 fd ae 00 00 	lea    0xaefd(%rip),%rax        # 220c5 <g_155+0x5>
   171c8:	48 89 85 a8 ee ff ff 	mov    %rax,-0x1158(%rbp)
   171cf:	48 8d 05 eb ae 00 00 	lea    0xaeeb(%rip),%rax        # 220c1 <g_155+0x1>
   171d6:	48 89 85 88 ee ff ff 	mov    %rax,-0x1178(%rbp)
   171dd:	c7 85 2c ee ff ff 01 	movl   $0x1,-0x11d4(%rbp)
   171e4:	00 00 00 
   171e7:	48 8d 85 40 f0 ff ff 	lea    -0xfc0(%rbp),%rax
   171ee:	48 83 c0 18          	add    $0x18,%rax
   171f2:	48 89 85 f0 ef ff ff 	mov    %rax,-0x1010(%rbp)
   171f9:	48 8d 85 40 f0 ff ff 	lea    -0xfc0(%rbp),%rax
   17200:	48 83 c0 18          	add    $0x18,%rax
   17204:	48 89 85 f8 ef ff ff 	mov    %rax,-0x1008(%rbp)
   1720b:	48 8d 85 40 f0 ff ff 	lea    -0xfc0(%rbp),%rax
   17212:	48 83 c0 18          	add    $0x18,%rax
   17216:	48 89 85 00 f0 ff ff 	mov    %rax,-0x1000(%rbp)
   1721d:	48 8d 85 40 f0 ff ff 	lea    -0xfc0(%rbp),%rax
   17224:	48 83 c0 18          	add    $0x18,%rax
   17228:	48 89 85 08 f0 ff ff 	mov    %rax,-0xff8(%rbp)
   1722f:	48 8d 85 f0 ef ff ff 	lea    -0x1010(%rbp),%rax
   17236:	48 89 85 60 ee ff ff 	mov    %rax,-0x11a0(%rbp)
   1723d:	48 8d 85 60 ee ff ff 	lea    -0x11a0(%rbp),%rax
   17244:	48 89 85 b0 ee ff ff 	mov    %rax,-0x1150(%rbp)
   1724b:	c7 85 04 ee ff ff 01 	movl   $0x1,-0x11fc(%rbp)
   17252:	00 00 00 
   17255:	48 8d 05 0c d6 00 00 	lea    0xd60c(%rip),%rax        # 24868 <g_310+0x528>
   1725c:	48 89 85 b8 ee ff ff 	mov    %rax,-0x1148(%rbp)
   17263:	48 8d 85 80 f4 ff ff 	lea    -0xb80(%rbp),%rax
   1726a:	48 8d 15 2f 77 00 00 	lea    0x772f(%rip),%rdx        # 1e9a0 <g_431+0x922>
   17271:	b9 78 00 00 00       	mov    $0x78,%ecx
   17276:	48 89 c7             	mov    %rax,%rdi
   17279:	48 89 d6             	mov    %rdx,%rsi
   1727c:	f3 48 a5             	rep movsq %ds:(%rsi),%es:(%rdi)
   1727f:	c7 85 20 ee ff ff 00 	movl   $0x0,-0x11e0(%rbp)
   17286:	00 00 00 
   17289:	eb 22                	jmp    172ad <func_72+0x172b>
   1728b:	8b 85 20 ee ff ff    	mov    -0x11e0(%rbp),%eax
   17291:	48 98                	cltq   
   17293:	48 8d 95 d0 f0 ff ff 	lea    -0xf30(%rbp),%rdx
   1729a:	48 83 c2 18          	add    $0x18,%rdx
   1729e:	48 89 94 c5 40 f0 ff 	mov    %rdx,-0xfc0(%rbp,%rax,8)
   172a5:	ff 
   172a6:	83 85 20 ee ff ff 01 	addl   $0x1,-0x11e0(%rbp)
   172ad:	83 bd 20 ee ff ff 05 	cmpl   $0x5,-0x11e0(%rbp)
   172b4:	7e d5                	jle    1728b <func_72+0x1709>
   172b6:	48 8b 85 48 ee ff ff 	mov    -0x11b8(%rbp),%rax
   172bd:	8b 10                	mov    (%rax),%edx
   172bf:	48 8b 85 48 ee ff ff 	mov    -0x11b8(%rbp),%rax
   172c6:	81 f2 b3 2c 36 27    	xor    $0x27362cb3,%edx
   172cc:	89 10                	mov    %edx,(%rax)
   172ce:	66 c7 05 a9 b1 00 00 	movw   $0x0,0xb1a9(%rip)        # 22480 <g_570>
   172d5:	00 00 
   172d7:	e9 6e 0c 00 00       	jmpq   17f4a <func_72+0x23c8>
   172dc:	c7 85 40 ee ff ff d0 	movl   $0x4b9680d0,-0x11c0(%rbp)
   172e3:	80 96 4b 
   172e6:	c6 85 68 ee ff ff 8c 	movb   $0x8c,-0x1198(%rbp)
   172ed:	48 8d 05 cc ad 00 00 	lea    0xadcc(%rip),%rax        # 220c0 <g_155>
   172f4:	48 89 85 30 ef ff ff 	mov    %rax,-0x10d0(%rbp)
   172fb:	48 8b 05 f6 d7 00 00 	mov    0xd7f6(%rip),%rax        # 24af8 <g_654>
   17302:	48 85 c0             	test   %rax,%rax
   17305:	0f 95 c0             	setne  %al
   17308:	0f b6 d0             	movzbl %al,%edx
   1730b:	0f b7 05 6e b1 00 00 	movzwl 0xb16e(%rip),%eax        # 22480 <g_570>
   17312:	0f b7 c0             	movzwl %ax,%eax
   17315:	48 98                	cltq   
   17317:	48 8d 0c 85 00 00 00 	lea    0x0(,%rax,4),%rcx
   1731e:	00 
   1731f:	48 8d 05 ba ad 00 00 	lea    0xadba(%rip),%rax        # 220e0 <g_211>
   17326:	8b 04 01             	mov    (%rcx,%rax,1),%eax
   17329:	39 c2                	cmp    %eax,%edx
   1732b:	0f 96 c0             	setbe  %al
   1732e:	0f b6 d0             	movzbl %al,%edx
   17331:	0f b6 85 e9 ed ff ff 	movzbl -0x1217(%rbp),%eax
   17338:	39 c2                	cmp    %eax,%edx
   1733a:	0f 9e c0             	setle  %al
   1733d:	44 0f b6 e8          	movzbl %al,%r13d
   17341:	0f b6 85 dc ed ff ff 	movzbl -0x1224(%rbp),%eax
   17348:	0f be d8             	movsbl %al,%ebx
   1734b:	0f b7 05 ae ad 00 00 	movzwl 0xadae(%rip),%eax        # 22100 <g_486>
   17352:	44 0f b7 e0          	movzwl %ax,%r12d
   17356:	0f b6 85 dc ed ff ff 	movzbl -0x1224(%rbp),%eax
   1735d:	84 c0                	test   %al,%al
   1735f:	74 36                	je     17397 <func_72+0x1815>
   17361:	48 be f8 47 1a 2b 3a 	movabs $0x4858963a2b1a47f8,%rsi
   17368:	96 58 48 
   1736b:	bf 01 00 00 00       	mov    $0x1,%edi
   17370:	e8 33 25 ff ff       	callq  98a8 <safe_sub_func_int64_t_s_s>
   17375:	8b 85 40 ee ff ff    	mov    -0x11c0(%rbp),%eax
   1737b:	48 63 d0             	movslq %eax,%rdx
   1737e:	0f b6 85 dc ed ff ff 	movzbl -0x1224(%rbp),%eax
   17385:	48 0f be c0          	movsbq %al,%rax
   17389:	48 89 d6             	mov    %rdx,%rsi
   1738c:	48 89 c7             	mov    %rax,%rdi
   1738f:	e8 63 26 ff ff       	callq  99f7 <safe_div_func_int64_t_s_s>
   17394:	48 85 c0             	test   %rax,%rax
   17397:	44 89 e6             	mov    %r12d,%esi
   1739a:	bf fa 00 00 00       	mov    $0xfa,%edi
   1739f:	e8 e9 28 ff ff       	callq  9c8d <safe_rshift_func_uint8_t_u_s>
   173a4:	0f be c0             	movsbl %al,%eax
   173a7:	89 de                	mov    %ebx,%esi
   173a9:	89 c7                	mov    %eax,%edi
   173ab:	e8 81 1e ff ff       	callq  9231 <safe_mod_func_int8_t_s_s>
   173b0:	0f be c0             	movsbl %al,%eax
   173b3:	41 39 c5             	cmp    %eax,%r13d
   173b6:	0f 8e 6b 03 00 00    	jle    17727 <func_72+0x1ba5>
   173bc:	48 c7 85 38 ef ff ff 	movq   $0x0,-0x10c8(%rbp)
   173c3:	00 00 00 00 
   173c7:	48 8d 85 f4 ed ff ff 	lea    -0x120c(%rbp),%rax
   173ce:	48 89 85 40 ef ff ff 	mov    %rax,-0x10c0(%rbp)
   173d5:	48 c7 85 48 ef ff ff 	movq   $0x0,-0x10b8(%rbp)
   173dc:	00 00 00 00 
   173e0:	48 c7 85 50 ef ff ff 	movq   $0x0,-0x10b0(%rbp)
   173e7:	00 00 00 00 
   173eb:	48 8d 85 f4 ed ff ff 	lea    -0x120c(%rbp),%rax
   173f2:	48 89 85 58 ef ff ff 	mov    %rax,-0x10a8(%rbp)
   173f9:	48 8d 85 f8 ed ff ff 	lea    -0x1208(%rbp),%rax
   17400:	48 89 85 50 f2 ff ff 	mov    %rax,-0xdb0(%rbp)
   17407:	48 8d 85 f8 ed ff ff 	lea    -0x1208(%rbp),%rax
   1740e:	48 89 85 58 f2 ff ff 	mov    %rax,-0xda8(%rbp)
   17415:	48 8d 85 f8 ed ff ff 	lea    -0x1208(%rbp),%rax
   1741c:	48 89 85 60 f2 ff ff 	mov    %rax,-0xda0(%rbp)
   17423:	48 8d 85 f8 ed ff ff 	lea    -0x1208(%rbp),%rax
   1742a:	48 89 85 68 f2 ff ff 	mov    %rax,-0xd98(%rbp)
   17431:	48 8d 85 f8 ed ff ff 	lea    -0x1208(%rbp),%rax
   17438:	48 89 85 70 f2 ff ff 	mov    %rax,-0xd90(%rbp)
   1743f:	48 8d 85 f8 ed ff ff 	lea    -0x1208(%rbp),%rax
   17446:	48 89 85 78 f2 ff ff 	mov    %rax,-0xd88(%rbp)
   1744d:	48 8d 85 f8 ed ff ff 	lea    -0x1208(%rbp),%rax
   17454:	48 89 85 80 f2 ff ff 	mov    %rax,-0xd80(%rbp)
   1745b:	48 8d 85 f8 ed ff ff 	lea    -0x1208(%rbp),%rax
   17462:	48 89 85 88 f2 ff ff 	mov    %rax,-0xd78(%rbp)
   17469:	48 8d 85 f8 ed ff ff 	lea    -0x1208(%rbp),%rax
   17470:	48 89 85 90 f2 ff ff 	mov    %rax,-0xd70(%rbp)
   17477:	48 8d 85 f8 ed ff ff 	lea    -0x1208(%rbp),%rax
   1747e:	48 89 85 98 f2 ff ff 	mov    %rax,-0xd68(%rbp)
   17485:	48 8d 85 f8 ed ff ff 	lea    -0x1208(%rbp),%rax
   1748c:	48 89 85 a0 f2 ff ff 	mov    %rax,-0xd60(%rbp)
   17493:	48 8d 85 f8 ed ff ff 	lea    -0x1208(%rbp),%rax
   1749a:	48 89 85 a8 f2 ff ff 	mov    %rax,-0xd58(%rbp)
   174a1:	48 8d 85 f8 ed ff ff 	lea    -0x1208(%rbp),%rax
   174a8:	48 89 85 b0 f2 ff ff 	mov    %rax,-0xd50(%rbp)
   174af:	48 8d 85 f8 ed ff ff 	lea    -0x1208(%rbp),%rax
   174b6:	48 89 85 b8 f2 ff ff 	mov    %rax,-0xd48(%rbp)
   174bd:	48 8d 85 f8 ed ff ff 	lea    -0x1208(%rbp),%rax
   174c4:	48 89 85 c0 f2 ff ff 	mov    %rax,-0xd40(%rbp)
   174cb:	48 8d 85 f8 ed ff ff 	lea    -0x1208(%rbp),%rax
   174d2:	48 89 85 c8 f2 ff ff 	mov    %rax,-0xd38(%rbp)
   174d9:	48 8d 85 f8 ed ff ff 	lea    -0x1208(%rbp),%rax
   174e0:	48 89 85 d0 f2 ff ff 	mov    %rax,-0xd30(%rbp)
   174e7:	48 8d 85 f8 ed ff ff 	lea    -0x1208(%rbp),%rax
   174ee:	48 89 85 d8 f2 ff ff 	mov    %rax,-0xd28(%rbp)
   174f5:	48 8d 85 f8 ed ff ff 	lea    -0x1208(%rbp),%rax
   174fc:	48 89 85 e0 f2 ff ff 	mov    %rax,-0xd20(%rbp)
   17503:	48 8d 85 f8 ed ff ff 	lea    -0x1208(%rbp),%rax
   1750a:	48 89 85 e8 f2 ff ff 	mov    %rax,-0xd18(%rbp)
   17511:	48 8d 85 f8 ed ff ff 	lea    -0x1208(%rbp),%rax
   17518:	48 89 85 f0 f2 ff ff 	mov    %rax,-0xd10(%rbp)
   1751f:	48 8d 85 f8 ed ff ff 	lea    -0x1208(%rbp),%rax
   17526:	48 89 85 f8 f2 ff ff 	mov    %rax,-0xd08(%rbp)
   1752d:	48 8d 85 f8 ed ff ff 	lea    -0x1208(%rbp),%rax
   17534:	48 89 85 00 f3 ff ff 	mov    %rax,-0xd00(%rbp)
   1753b:	48 8d 85 f8 ed ff ff 	lea    -0x1208(%rbp),%rax
   17542:	48 89 85 08 f3 ff ff 	mov    %rax,-0xcf8(%rbp)
   17549:	48 8d 85 f8 ed ff ff 	lea    -0x1208(%rbp),%rax
   17550:	48 89 85 10 f3 ff ff 	mov    %rax,-0xcf0(%rbp)
   17557:	48 8d 85 f8 ed ff ff 	lea    -0x1208(%rbp),%rax
   1755e:	48 89 85 18 f3 ff ff 	mov    %rax,-0xce8(%rbp)
   17565:	48 8d 85 f8 ed ff ff 	lea    -0x1208(%rbp),%rax
   1756c:	48 89 85 20 f3 ff ff 	mov    %rax,-0xce0(%rbp)
   17573:	48 8d 85 f8 ed ff ff 	lea    -0x1208(%rbp),%rax
   1757a:	48 89 85 28 f3 ff ff 	mov    %rax,-0xcd8(%rbp)
   17581:	48 8d 85 f8 ed ff ff 	lea    -0x1208(%rbp),%rax
   17588:	48 89 85 30 f3 ff ff 	mov    %rax,-0xcd0(%rbp)
   1758f:	48 8d 85 f8 ed ff ff 	lea    -0x1208(%rbp),%rax
   17596:	48 89 85 38 f3 ff ff 	mov    %rax,-0xcc8(%rbp)
   1759d:	48 8d 85 f8 ed ff ff 	lea    -0x1208(%rbp),%rax
   175a4:	48 89 85 40 f3 ff ff 	mov    %rax,-0xcc0(%rbp)
   175ab:	48 8d 85 f8 ed ff ff 	lea    -0x1208(%rbp),%rax
   175b2:	48 89 85 48 f3 ff ff 	mov    %rax,-0xcb8(%rbp)
   175b9:	48 8d 85 f8 ed ff ff 	lea    -0x1208(%rbp),%rax
   175c0:	48 89 85 50 f3 ff ff 	mov    %rax,-0xcb0(%rbp)
   175c7:	48 8d 85 f8 ed ff ff 	lea    -0x1208(%rbp),%rax
   175ce:	48 89 85 58 f3 ff ff 	mov    %rax,-0xca8(%rbp)
   175d5:	48 8d 85 f8 ed ff ff 	lea    -0x1208(%rbp),%rax
   175dc:	48 89 85 60 f3 ff ff 	mov    %rax,-0xca0(%rbp)
   175e3:	48 8d 85 f8 ed ff ff 	lea    -0x1208(%rbp),%rax
   175ea:	48 89 85 68 f3 ff ff 	mov    %rax,-0xc98(%rbp)
   175f1:	48 8d 85 f8 ed ff ff 	lea    -0x1208(%rbp),%rax
   175f8:	48 89 85 70 f3 ff ff 	mov    %rax,-0xc90(%rbp)
   175ff:	48 8d 85 f8 ed ff ff 	lea    -0x1208(%rbp),%rax
   17606:	48 89 85 78 f3 ff ff 	mov    %rax,-0xc88(%rbp)
   1760d:	48 8d 85 f8 ed ff ff 	lea    -0x1208(%rbp),%rax
   17614:	48 89 85 80 f3 ff ff 	mov    %rax,-0xc80(%rbp)
   1761b:	48 8d 85 f8 ed ff ff 	lea    -0x1208(%rbp),%rax
   17622:	48 89 85 88 f3 ff ff 	mov    %rax,-0xc78(%rbp)
   17629:	48 8d 85 f8 ed ff ff 	lea    -0x1208(%rbp),%rax
   17630:	48 89 85 90 f3 ff ff 	mov    %rax,-0xc70(%rbp)
   17637:	48 8d 85 f8 ed ff ff 	lea    -0x1208(%rbp),%rax
   1763e:	48 89 85 98 f3 ff ff 	mov    %rax,-0xc68(%rbp)
   17645:	48 8d 85 f8 ed ff ff 	lea    -0x1208(%rbp),%rax
   1764c:	48 89 85 a0 f3 ff ff 	mov    %rax,-0xc60(%rbp)
   17653:	48 8d 85 f8 ed ff ff 	lea    -0x1208(%rbp),%rax
   1765a:	48 89 85 a8 f3 ff ff 	mov    %rax,-0xc58(%rbp)
   17661:	48 8d 85 f8 ed ff ff 	lea    -0x1208(%rbp),%rax
   17668:	48 89 85 b0 f3 ff ff 	mov    %rax,-0xc50(%rbp)
   1766f:	48 8d 85 f8 ed ff ff 	lea    -0x1208(%rbp),%rax
   17676:	48 89 85 b8 f3 ff ff 	mov    %rax,-0xc48(%rbp)
   1767d:	48 8d 85 f8 ed ff ff 	lea    -0x1208(%rbp),%rax
   17684:	48 89 85 c0 f3 ff ff 	mov    %rax,-0xc40(%rbp)
   1768b:	48 8d 85 f8 ed ff ff 	lea    -0x1208(%rbp),%rax
   17692:	48 89 85 c8 f3 ff ff 	mov    %rax,-0xc38(%rbp)
   17699:	48 8d 85 f8 ed ff ff 	lea    -0x1208(%rbp),%rax
   176a0:	48 89 85 d0 f3 ff ff 	mov    %rax,-0xc30(%rbp)
   176a7:	48 8d 85 f8 ed ff ff 	lea    -0x1208(%rbp),%rax
   176ae:	48 89 85 d8 f3 ff ff 	mov    %rax,-0xc28(%rbp)
   176b5:	48 8d 85 f8 ed ff ff 	lea    -0x1208(%rbp),%rax
   176bc:	48 89 85 e0 f3 ff ff 	mov    %rax,-0xc20(%rbp)
   176c3:	48 8d 85 f8 ed ff ff 	lea    -0x1208(%rbp),%rax
   176ca:	48 89 85 e8 f3 ff ff 	mov    %rax,-0xc18(%rbp)
   176d1:	48 8d 85 f8 ed ff ff 	lea    -0x1208(%rbp),%rax
   176d8:	48 89 85 f0 f3 ff ff 	mov    %rax,-0xc10(%rbp)
   176df:	48 8d 85 f8 ed ff ff 	lea    -0x1208(%rbp),%rax
   176e6:	48 89 85 f8 f3 ff ff 	mov    %rax,-0xc08(%rbp)
   176ed:	0f b6 85 aa f0 ff ff 	movzbl -0xf56(%rbp),%eax
   176f4:	83 e8 01             	sub    $0x1,%eax
   176f7:	88 85 aa f0 ff ff    	mov    %al,-0xf56(%rbp)
   176fd:	48 8b 85 48 ee ff ff 	mov    -0x11b8(%rbp),%rax
   17704:	8b 08                	mov    (%rax),%ecx
   17706:	0f b6 85 b7 f0 ff ff 	movzbl -0xf49(%rbp),%eax
   1770d:	0f b6 d0             	movzbl %al,%edx
   17710:	48 8b 85 48 ee ff ff 	mov    -0x11b8(%rbp),%rax
   17717:	09 ca                	or     %ecx,%edx
   17719:	89 10                	mov    %edx,(%rax)
   1771b:	c6 05 4c e8 00 00 00 	movb   $0x0,0xe84c(%rip)        # 25f6e <g_432>
   17722:	e9 00 08 00 00       	jmpq   17f27 <func_72+0x23a5>
   17727:	0f b7 85 ee ed ff ff 	movzwl -0x1212(%rbp),%eax
   1772e:	e9 30 10 00 00       	jmpq   18763 <func_72+0x2be1>
   17733:	c6 85 70 ee ff ff b3 	movb   $0xb3,-0x1190(%rbp)
   1773a:	48 8b 85 d0 ed ff ff 	mov    -0x1230(%rbp),%rax
   17741:	8b 00                	mov    (%rax),%eax
   17743:	85 c0                	test   %eax,%eax
   17745:	74 17                	je     1775e <func_72+0x1bdc>
   17747:	48 8b 95 48 ee ff ff 	mov    -0x11b8(%rbp),%rdx
   1774e:	48 8b 85 48 ee ff ff 	mov    -0x11b8(%rbp),%rax
   17755:	8b 12                	mov    (%rdx),%edx
   17757:	89 10                	mov    %edx,(%rax)
   17759:	e9 93 01 00 00       	jmpq   178f1 <func_72+0x1d6f>
   1775e:	48 c7 85 50 f2 ff ff 	movq   $0x0,-0xdb0(%rbp)
   17765:	00 00 00 00 
   17769:	48 8d 85 50 ee ff ff 	lea    -0x11b0(%rbp),%rax
   17770:	48 89 85 58 f2 ff ff 	mov    %rax,-0xda8(%rbp)
   17777:	48 c7 85 60 f2 ff ff 	movq   $0x0,-0xda0(%rbp)
   1777e:	00 00 00 00 
   17782:	48 8d 85 50 ee ff ff 	lea    -0x11b0(%rbp),%rax
   17789:	48 89 85 68 f2 ff ff 	mov    %rax,-0xd98(%rbp)
   17790:	48 c7 85 70 f2 ff ff 	movq   $0x0,-0xd90(%rbp)
   17797:	00 00 00 00 
   1779b:	48 8d 85 50 ee ff ff 	lea    -0x11b0(%rbp),%rax
   177a2:	48 89 85 78 f2 ff ff 	mov    %rax,-0xd88(%rbp)
   177a9:	48 c7 85 80 f2 ff ff 	movq   $0x0,-0xd80(%rbp)
   177b0:	00 00 00 00 
   177b4:	48 8d 85 50 ee ff ff 	lea    -0x11b0(%rbp),%rax
   177bb:	48 89 85 88 f2 ff ff 	mov    %rax,-0xd78(%rbp)
   177c2:	8b 85 2c ee ff ff    	mov    -0x11d4(%rbp),%eax
   177c8:	0f b7 c0             	movzwl %ax,%eax
   177cb:	be 0c 00 00 00       	mov    $0xc,%esi
   177d0:	89 c7                	mov    %eax,%edi
   177d2:	e8 e7 25 ff ff       	callq  9dbe <safe_lshift_func_uint16_t_u_s>
   177d7:	0f b7 d8             	movzwl %ax,%ebx
   177da:	0f b6 85 a6 f0 ff ff 	movzbl -0xf5a(%rbp),%eax
   177e1:	0f b6 d0             	movzbl %al,%edx
   177e4:	48 8d 05 d9 a8 00 00 	lea    0xa8d9(%rip),%rax        # 220c4 <g_155+0x4>
   177eb:	48 89 85 30 ef ff ff 	mov    %rax,-0x10d0(%rbp)
   177f2:	48 8d 85 dc ed ff ff 	lea    -0x1224(%rbp),%rax
   177f9:	48 89 85 a8 ee ff ff 	mov    %rax,-0x1158(%rbp)
   17800:	48 8b 85 a8 ee ff ff 	mov    -0x1158(%rbp),%rax
   17807:	48 89 85 88 ee ff ff 	mov    %rax,-0x1178(%rbp)
   1780e:	48 8b 85 30 ef ff ff 	mov    -0x10d0(%rbp),%rax
   17815:	48 3b 85 88 ee ff ff 	cmp    -0x1178(%rbp),%rax
   1781c:	0f 95 c0             	setne  %al
   1781f:	0f b6 c0             	movzbl %al,%eax
   17822:	89 d6                	mov    %edx,%esi
   17824:	89 c7                	mov    %eax,%edi
   17826:	e8 88 1b ff ff       	callq  93b3 <safe_add_func_int16_t_s_s>
   1782b:	0f b7 95 d8 ed ff ff 	movzwl -0x1228(%rbp),%edx
   17832:	21 d0                	and    %edx,%eax
   17834:	0f b7 c0             	movzwl %ax,%eax
   17837:	89 de                	mov    %ebx,%esi
   17839:	89 c7                	mov    %eax,%edi
   1783b:	e8 08 26 ff ff       	callq  9e48 <safe_rshift_func_uint16_t_u_s>
   17840:	8b 05 72 e7 00 00    	mov    0xe772(%rip),%eax        # 25fb8 <g_698+0x18>
   17846:	83 c0 01             	add    $0x1,%eax
   17849:	89 05 69 e7 00 00    	mov    %eax,0xe769(%rip)        # 25fb8 <g_698+0x18>
   1784f:	44 8b 25 62 e7 00 00 	mov    0xe762(%rip),%r12d        # 25fb8 <g_698+0x18>
   17856:	0f b6 85 dc ed ff ff 	movzbl -0x1224(%rbp),%eax
   1785d:	0f be d8             	movsbl %al,%ebx
   17860:	0f b7 85 d8 ed ff ff 	movzwl -0x1228(%rbp),%eax
   17867:	0f be d0             	movsbl %al,%edx
   1786a:	0f b7 85 d8 ed ff ff 	movzwl -0x1228(%rbp),%eax
   17871:	0f be c0             	movsbl %al,%eax
   17874:	89 d6                	mov    %edx,%esi
   17876:	89 c7                	mov    %eax,%edi
   17878:	e8 b4 19 ff ff       	callq  9231 <safe_mod_func_int8_t_s_s>
   1787d:	66 98                	cbtw   
   1787f:	0f b7 c0             	movzwl %ax,%eax
   17882:	89 de                	mov    %ebx,%esi
   17884:	89 c7                	mov    %eax,%edi
   17886:	e8 ef 25 ff ff       	callq  9e7a <safe_rshift_func_uint16_t_u_u>
   1788b:	48 8b 05 76 ca 00 00 	mov    0xca76(%rip),%rax        # 24308 <g_198>
   17892:	0f b7 00             	movzwl (%rax),%eax
   17895:	0f b7 c0             	movzwl %ax,%eax
   17898:	be 43 7b 00 00       	mov    $0x7b43,%esi
   1789d:	89 c7                	mov    %eax,%edi
   1789f:	e8 ea 24 ff ff       	callq  9d8e <safe_div_func_uint16_t_u_u>
   178a4:	0f b7 c0             	movzwl %ax,%eax
   178a7:	44 89 e2             	mov    %r12d,%edx
   178aa:	31 c2                	xor    %eax,%edx
   178ac:	0f b6 85 e9 ed ff ff 	movzbl -0x1217(%rbp),%eax
   178b3:	39 c2                	cmp    %eax,%edx
   178b5:	0f 95 c0             	setne  %al
   178b8:	89 c2                	mov    %eax,%edx
   178ba:	0f b6 85 70 ee ff ff 	movzbl -0x1190(%rbp),%eax
   178c1:	09 d0                	or     %edx,%eax
   178c3:	f7 d0                	not    %eax
   178c5:	0f b6 c0             	movzbl %al,%eax
   178c8:	be b7 00 00 00       	mov    $0xb7,%esi
   178cd:	89 c7                	mov    %eax,%edi
   178cf:	e8 a4 22 ff ff       	callq  9b78 <safe_sub_func_uint8_t_u_u>
   178d4:	0f be c0             	movsbl %al,%eax
   178d7:	be 05 00 00 00       	mov    $0x5,%esi
   178dc:	89 c7                	mov    %eax,%edi
   178de:	e8 0b 1a ff ff       	callq  92ee <safe_lshift_func_int8_t_s_u>
   178e3:	89 c2                	mov    %eax,%edx
   178e5:	48 8b 85 48 ee ff ff 	mov    -0x11b8(%rbp),%rax
   178ec:	0f be d2             	movsbl %dl,%edx
   178ef:	89 10                	mov    %edx,(%rax)
   178f1:	0f b6 85 70 ee ff ff 	movzbl -0x1190(%rbp),%eax
   178f8:	84 c0                	test   %al,%al
   178fa:	0f 85 38 06 00 00    	jne    17f38 <func_72+0x23b6>
   17900:	48 8b 85 b0 ee ff ff 	mov    -0x1150(%rbp),%rax
   17907:	48 89 05 3a d2 00 00 	mov    %rax,0xd23a(%rip)        # 24b48 <g_711+0x28>
   1790e:	48 8b 05 33 d2 00 00 	mov    0xd233(%rip),%rax        # 24b48 <g_711+0x28>
   17915:	48 85 c0             	test   %rax,%rax
   17918:	0f 95 c0             	setne  %al
   1791b:	0f b6 d0             	movzbl %al,%edx
   1791e:	8b 05 b8 a7 00 00    	mov    0xa7b8(%rip),%eax        # 220dc <g_210>
   17924:	39 c2                	cmp    %eax,%edx
   17926:	7e 0a                	jle    17932 <func_72+0x1db0>
   17928:	b8 00 00 00 00       	mov    $0x0,%eax
   1792d:	e9 31 0e 00 00       	jmpq   18763 <func_72+0x2be1>
   17932:	48 8d 85 58 ee ff ff 	lea    -0x11a8(%rbp),%rax
   17939:	48 89 85 60 ef ff ff 	mov    %rax,-0x10a0(%rbp)
   17940:	48 8b 95 58 ee ff ff 	mov    -0x11a8(%rbp),%rdx
   17947:	48 8b 85 60 ef ff ff 	mov    -0x10a0(%rbp),%rax
   1794e:	48 89 10             	mov    %rdx,(%rax)
   17951:	66 c7 05 a6 a7 00 00 	movw   $0x0,0xa7a6(%rip)        # 22100 <g_486>
   17958:	00 00 
   1795a:	90                   	nop
   1795b:	0f b7 05 9e a7 00 00 	movzwl 0xa79e(%rip),%eax        # 22100 <g_486>
   17962:	66 83 f8 05          	cmp    $0x5,%ax
   17966:	0f 87 9f 05 00 00    	ja     17f0b <func_72+0x2389>
   1796c:	48 c7 85 78 ee ff ff 	movq   $0xffffffffffffffff,-0x1188(%rbp)
   17973:	ff ff ff ff 
   17977:	48 8d 85 78 ee ff ff 	lea    -0x1188(%rbp),%rax
   1797e:	48 89 85 68 ef ff ff 	mov    %rax,-0x1098(%rbp)
   17985:	48 8d 85 70 f0 ff ff 	lea    -0xf90(%rbp),%rax
   1798c:	48 83 c0 3a          	add    $0x3a,%rax
   17990:	48 89 85 70 ef ff ff 	mov    %rax,-0x1090(%rbp)
   17997:	48 8d 85 f0 ed ff ff 	lea    -0x1210(%rbp),%rax
   1799e:	48 89 85 80 ee ff ff 	mov    %rax,-0x1180(%rbp)
   179a5:	48 8d 85 f4 ed ff ff 	lea    -0x120c(%rbp),%rax
   179ac:	48 89 85 50 f2 ff ff 	mov    %rax,-0xdb0(%rbp)
   179b3:	48 8d 85 f8 ed ff ff 	lea    -0x1208(%rbp),%rax
   179ba:	48 89 85 58 f2 ff ff 	mov    %rax,-0xda8(%rbp)
   179c1:	48 c7 85 60 f2 ff ff 	movq   $0x0,-0xda0(%rbp)
   179c8:	00 00 00 00 
   179cc:	48 8d 05 65 a6 00 00 	lea    0xa665(%rip),%rax        # 22038 <g_2+0x8>
   179d3:	48 89 85 68 f2 ff ff 	mov    %rax,-0xd98(%rbp)
   179da:	48 8d 05 57 a6 00 00 	lea    0xa657(%rip),%rax        # 22038 <g_2+0x8>
   179e1:	48 89 85 70 f2 ff ff 	mov    %rax,-0xd90(%rbp)
   179e8:	48 c7 85 78 f2 ff ff 	movq   $0x0,-0xd88(%rbp)
   179ef:	00 00 00 00 
   179f3:	48 8d 85 f8 ed ff ff 	lea    -0x1208(%rbp),%rax
   179fa:	48 89 85 80 f2 ff ff 	mov    %rax,-0xd80(%rbp)
   17a01:	48 8d 85 f4 ed ff ff 	lea    -0x120c(%rbp),%rax
   17a08:	48 89 85 88 f2 ff ff 	mov    %rax,-0xd78(%rbp)
   17a0f:	48 8d 85 f4 ed ff ff 	lea    -0x120c(%rbp),%rax
   17a16:	48 89 85 90 f2 ff ff 	mov    %rax,-0xd70(%rbp)
   17a1d:	48 8d 85 f8 ed ff ff 	lea    -0x1208(%rbp),%rax
   17a24:	48 89 85 98 f2 ff ff 	mov    %rax,-0xd68(%rbp)
   17a2b:	48 8d 85 f4 ed ff ff 	lea    -0x120c(%rbp),%rax
   17a32:	48 89 85 a0 f2 ff ff 	mov    %rax,-0xd60(%rbp)
   17a39:	48 8d 05 f8 a5 00 00 	lea    0xa5f8(%rip),%rax        # 22038 <g_2+0x8>
   17a40:	48 89 85 a8 f2 ff ff 	mov    %rax,-0xd58(%rbp)
   17a47:	48 8d 85 f8 ed ff ff 	lea    -0x1208(%rbp),%rax
   17a4e:	48 89 85 b0 f2 ff ff 	mov    %rax,-0xd50(%rbp)
   17a55:	48 8d 85 f8 ed ff ff 	lea    -0x1208(%rbp),%rax
   17a5c:	48 89 85 b8 f2 ff ff 	mov    %rax,-0xd48(%rbp)
   17a63:	48 8d 05 ce a5 00 00 	lea    0xa5ce(%rip),%rax        # 22038 <g_2+0x8>
   17a6a:	48 89 85 c0 f2 ff ff 	mov    %rax,-0xd40(%rbp)
   17a71:	48 8d 85 f4 ed ff ff 	lea    -0x120c(%rbp),%rax
   17a78:	48 89 85 c8 f2 ff ff 	mov    %rax,-0xd38(%rbp)
   17a7f:	48 c7 85 d0 f2 ff ff 	movq   $0x0,-0xd30(%rbp)
   17a86:	00 00 00 00 
   17a8a:	48 c7 85 d8 f2 ff ff 	movq   $0x0,-0xd28(%rbp)
   17a91:	00 00 00 00 
   17a95:	48 8d 85 f4 ed ff ff 	lea    -0x120c(%rbp),%rax
   17a9c:	48 89 85 e0 f2 ff ff 	mov    %rax,-0xd20(%rbp)
   17aa3:	48 8d 05 8e a5 00 00 	lea    0xa58e(%rip),%rax        # 22038 <g_2+0x8>
   17aaa:	48 89 85 e8 f2 ff ff 	mov    %rax,-0xd18(%rbp)
   17ab1:	48 8d 05 80 a5 00 00 	lea    0xa580(%rip),%rax        # 22038 <g_2+0x8>
   17ab8:	48 89 85 f0 f2 ff ff 	mov    %rax,-0xd10(%rbp)
   17abf:	48 8d 85 f8 ed ff ff 	lea    -0x1208(%rbp),%rax
   17ac6:	48 89 85 f8 f2 ff ff 	mov    %rax,-0xd08(%rbp)
   17acd:	48 8d 85 f8 ed ff ff 	lea    -0x1208(%rbp),%rax
   17ad4:	48 89 85 00 f3 ff ff 	mov    %rax,-0xd00(%rbp)
   17adb:	48 8d 05 56 a5 00 00 	lea    0xa556(%rip),%rax        # 22038 <g_2+0x8>
   17ae2:	48 89 85 08 f3 ff ff 	mov    %rax,-0xcf8(%rbp)
   17ae9:	48 8d 85 f4 ed ff ff 	lea    -0x120c(%rbp),%rax
   17af0:	48 89 85 10 f3 ff ff 	mov    %rax,-0xcf0(%rbp)
   17af7:	48 c7 85 18 f3 ff ff 	movq   $0x0,-0xce8(%rbp)
   17afe:	00 00 00 00 
   17b02:	48 c7 85 20 f3 ff ff 	movq   $0x0,-0xce0(%rbp)
   17b09:	00 00 00 00 
   17b0d:	48 8d 85 f4 ed ff ff 	lea    -0x120c(%rbp),%rax
   17b14:	48 89 85 28 f3 ff ff 	mov    %rax,-0xcd8(%rbp)
   17b1b:	48 8d 05 16 a5 00 00 	lea    0xa516(%rip),%rax        # 22038 <g_2+0x8>
   17b22:	48 89 85 30 f3 ff ff 	mov    %rax,-0xcd0(%rbp)
   17b29:	48 8d 85 f8 ed ff ff 	lea    -0x1208(%rbp),%rax
   17b30:	48 89 85 38 f3 ff ff 	mov    %rax,-0xcc8(%rbp)
   17b37:	48 8d 05 fa a4 00 00 	lea    0xa4fa(%rip),%rax        # 22038 <g_2+0x8>
   17b3e:	48 89 85 40 f3 ff ff 	mov    %rax,-0xcc0(%rbp)
   17b45:	48 8d 05 ec a4 00 00 	lea    0xa4ec(%rip),%rax        # 22038 <g_2+0x8>
   17b4c:	48 89 85 48 f3 ff ff 	mov    %rax,-0xcb8(%rbp)
   17b53:	48 c7 85 50 f3 ff ff 	movq   $0x0,-0xcb0(%rbp)
   17b5a:	00 00 00 00 
   17b5e:	48 8d 85 f8 ed ff ff 	lea    -0x1208(%rbp),%rax
   17b65:	48 89 85 58 f3 ff ff 	mov    %rax,-0xca8(%rbp)
   17b6c:	48 8d 85 f4 ed ff ff 	lea    -0x120c(%rbp),%rax
   17b73:	48 89 85 60 f3 ff ff 	mov    %rax,-0xca0(%rbp)
   17b7a:	48 8d 85 f4 ed ff ff 	lea    -0x120c(%rbp),%rax
   17b81:	48 89 85 68 f3 ff ff 	mov    %rax,-0xc98(%rbp)
   17b88:	48 8d 85 f8 ed ff ff 	lea    -0x1208(%rbp),%rax
   17b8f:	48 89 85 70 f3 ff ff 	mov    %rax,-0xc90(%rbp)
   17b96:	48 c7 85 78 f3 ff ff 	movq   $0x0,-0xc88(%rbp)
   17b9d:	00 00 00 00 
   17ba1:	48 8d 05 90 a4 00 00 	lea    0xa490(%rip),%rax        # 22038 <g_2+0x8>
   17ba8:	48 89 85 80 f3 ff ff 	mov    %rax,-0xc80(%rbp)
   17baf:	48 8d 05 82 a4 00 00 	lea    0xa482(%rip),%rax        # 22038 <g_2+0x8>
   17bb6:	48 89 85 88 f3 ff ff 	mov    %rax,-0xc78(%rbp)
   17bbd:	48 8d 85 f4 ed ff ff 	lea    -0x120c(%rbp),%rax
   17bc4:	48 89 85 90 f3 ff ff 	mov    %rax,-0xc70(%rbp)
   17bcb:	48 8d 85 f8 ed ff ff 	lea    -0x1208(%rbp),%rax
   17bd2:	48 89 85 98 f3 ff ff 	mov    %rax,-0xc68(%rbp)
   17bd9:	48 c7 85 a0 f3 ff ff 	movq   $0x0,-0xc60(%rbp)
   17be0:	00 00 00 00 
   17be4:	48 8d 05 4d a4 00 00 	lea    0xa44d(%rip),%rax        # 22038 <g_2+0x8>
   17beb:	48 89 85 a8 f3 ff ff 	mov    %rax,-0xc58(%rbp)
   17bf2:	48 8d 05 3f a4 00 00 	lea    0xa43f(%rip),%rax        # 22038 <g_2+0x8>
   17bf9:	48 89 85 b0 f3 ff ff 	mov    %rax,-0xc50(%rbp)
   17c00:	48 c7 85 b8 f3 ff ff 	movq   $0x0,-0xc48(%rbp)
   17c07:	00 00 00 00 
   17c0b:	48 8d 85 f8 ed ff ff 	lea    -0x1208(%rbp),%rax
   17c12:	48 89 85 c0 f3 ff ff 	mov    %rax,-0xc40(%rbp)
   17c19:	48 8d 85 f4 ed ff ff 	lea    -0x120c(%rbp),%rax
   17c20:	48 89 85 c8 f3 ff ff 	mov    %rax,-0xc38(%rbp)
   17c27:	48 8d 85 f4 ed ff ff 	lea    -0x120c(%rbp),%rax
   17c2e:	48 89 85 d0 f3 ff ff 	mov    %rax,-0xc30(%rbp)
   17c35:	48 8d 85 f8 ed ff ff 	lea    -0x1208(%rbp),%rax
   17c3c:	48 89 85 d8 f3 ff ff 	mov    %rax,-0xc28(%rbp)
   17c43:	48 8d 85 f4 ed ff ff 	lea    -0x120c(%rbp),%rax
   17c4a:	48 89 85 e0 f3 ff ff 	mov    %rax,-0xc20(%rbp)
   17c51:	48 8d 05 e0 a3 00 00 	lea    0xa3e0(%rip),%rax        # 22038 <g_2+0x8>
   17c58:	48 89 85 e8 f3 ff ff 	mov    %rax,-0xc18(%rbp)
   17c5f:	48 8d 85 f8 ed ff ff 	lea    -0x1208(%rbp),%rax
   17c66:	48 89 85 f0 f3 ff ff 	mov    %rax,-0xc10(%rbp)
   17c6d:	48 8d 85 f8 ed ff ff 	lea    -0x1208(%rbp),%rax
   17c74:	48 89 85 f8 f3 ff ff 	mov    %rax,-0xc08(%rbp)
   17c7b:	48 8d 05 b6 a3 00 00 	lea    0xa3b6(%rip),%rax        # 22038 <g_2+0x8>
   17c82:	48 89 85 00 f4 ff ff 	mov    %rax,-0xc00(%rbp)
   17c89:	48 8d 85 f4 ed ff ff 	lea    -0x120c(%rbp),%rax
   17c90:	48 89 85 08 f4 ff ff 	mov    %rax,-0xbf8(%rbp)
   17c97:	48 c7 85 10 f4 ff ff 	movq   $0x0,-0xbf0(%rbp)
   17c9e:	00 00 00 00 
   17ca2:	48 c7 85 18 f4 ff ff 	movq   $0x0,-0xbe8(%rbp)
   17ca9:	00 00 00 00 
   17cad:	48 8d 85 f4 ed ff ff 	lea    -0x120c(%rbp),%rax
   17cb4:	48 89 85 20 f4 ff ff 	mov    %rax,-0xbe0(%rbp)
   17cbb:	48 8d 05 76 a3 00 00 	lea    0xa376(%rip),%rax        # 22038 <g_2+0x8>
   17cc2:	48 89 85 28 f4 ff ff 	mov    %rax,-0xbd8(%rbp)
   17cc9:	48 8d 05 68 a3 00 00 	lea    0xa368(%rip),%rax        # 22038 <g_2+0x8>
   17cd0:	48 89 85 30 f4 ff ff 	mov    %rax,-0xbd0(%rbp)
   17cd7:	48 8d 85 f8 ed ff ff 	lea    -0x1208(%rbp),%rax
   17cde:	48 89 85 38 f4 ff ff 	mov    %rax,-0xbc8(%rbp)
   17ce5:	48 8d 85 f8 ed ff ff 	lea    -0x1208(%rbp),%rax
   17cec:	48 89 85 40 f4 ff ff 	mov    %rax,-0xbc0(%rbp)
   17cf3:	48 8d 05 3e a3 00 00 	lea    0xa33e(%rip),%rax        # 22038 <g_2+0x8>
   17cfa:	48 89 85 48 f4 ff ff 	mov    %rax,-0xbb8(%rbp)
   17d01:	48 8d 85 f4 ed ff ff 	lea    -0x120c(%rbp),%rax
   17d08:	48 89 85 50 f4 ff ff 	mov    %rax,-0xbb0(%rbp)
   17d0f:	48 c7 85 58 f4 ff ff 	movq   $0x0,-0xba8(%rbp)
   17d16:	00 00 00 00 
   17d1a:	48 c7 85 60 f4 ff ff 	movq   $0x0,-0xba0(%rbp)
   17d21:	00 00 00 00 
   17d25:	48 8d 85 f4 ed ff ff 	lea    -0x120c(%rbp),%rax
   17d2c:	48 89 85 68 f4 ff ff 	mov    %rax,-0xb98(%rbp)
   17d33:	48 8d 05 fe a2 00 00 	lea    0xa2fe(%rip),%rax        # 22038 <g_2+0x8>
   17d3a:	48 89 85 70 f4 ff ff 	mov    %rax,-0xb90(%rbp)
   17d41:	48 8d 85 f8 ed ff ff 	lea    -0x1208(%rbp),%rax
   17d48:	48 89 85 78 f4 ff ff 	mov    %rax,-0xb88(%rbp)
   17d4f:	48 8d 85 80 ee ff ff 	lea    -0x1180(%rbp),%rax
   17d56:	48 89 85 78 ef ff ff 	mov    %rax,-0x1088(%rbp)
   17d5d:	0f b7 85 d8 ed ff ff 	movzwl -0x1228(%rbp),%eax
   17d64:	0f bf d8             	movswl %ax,%ebx
   17d67:	48 8b 05 82 cd 00 00 	mov    0xcd82(%rip),%rax        # 24af0 <g_655>
   17d6e:	0f b6 00             	movzbl (%rax),%eax
   17d71:	44 0f b6 f8          	movzbl %al,%r15d
   17d75:	0f b6 05 47 a3 00 00 	movzbl 0xa347(%rip),%eax        # 220c3 <g_155+0x3>
   17d7c:	44 0f be e0          	movsbl %al,%r12d
   17d80:	0f b7 85 d8 ed ff ff 	movzwl -0x1228(%rbp),%eax
   17d87:	44 0f b7 e8          	movzwl %ax,%r13d
   17d8b:	48 8b 05 86 c5 00 00 	mov    0xc586(%rip),%rax        # 24318 <g_215>
   17d92:	44 8b 30             	mov    (%rax),%r14d
   17d95:	48 8b 85 d0 ed ff ff 	mov    -0x1230(%rbp),%rax
   17d9c:	8b 00                	mov    (%rax),%eax
   17d9e:	8b 0d c4 a2 00 00    	mov    0xa2c4(%rip),%ecx        # 22068 <g_41+0x8>
   17da4:	48 8b 15 6d c5 00 00 	mov    0xc56d(%rip),%rdx        # 24318 <g_215>
   17dab:	8b 12                	mov    (%rdx),%edx
   17dad:	31 ca                	xor    %ecx,%edx
   17daf:	89 c6                	mov    %eax,%esi
   17db1:	89 d7                	mov    %edx,%edi
   17db3:	e8 14 19 ff ff       	callq  96cc <safe_mod_func_int32_t_s_s>
   17db8:	48 63 d0             	movslq %eax,%rdx
   17dbb:	48 8b 85 68 ef ff ff 	mov    -0x1098(%rbp),%rax
   17dc2:	48 89 10             	mov    %rdx,(%rax)
   17dc5:	48 8b 85 68 ef ff ff 	mov    -0x1098(%rbp),%rax
   17dcc:	48 8b 00             	mov    (%rax),%rax
   17dcf:	48 be 0f 74 6f 3c 98 	movabs $0xbb986c983c6f740f,%rsi
   17dd6:	6c 98 bb 
   17dd9:	48 89 c7             	mov    %rax,%rdi
   17ddc:	e8 6a 22 ff ff       	callq  a04b <safe_sub_func_uint64_t_u_u>
   17de1:	44 89 f6             	mov    %r14d,%esi
   17de4:	bf 01 00 00 00       	mov    $0x1,%edi
   17de9:	e8 11 19 ff ff       	callq  96ff <safe_div_func_int32_t_s_s>
   17dee:	48 8b 95 48 ee ff ff 	mov    -0x11b8(%rbp),%rdx
   17df5:	8b 12                	mov    (%rdx),%edx
   17df7:	39 d0                	cmp    %edx,%eax
   17df9:	0f 95 c0             	setne  %al
   17dfc:	0f b6 c0             	movzbl %al,%eax
   17dff:	be fd 00 00 00       	mov    $0xfd,%esi
   17e04:	89 c7                	mov    %eax,%edi
   17e06:	e8 88 1d ff ff       	callq  9b93 <safe_mul_func_uint8_t_u_u>
   17e0b:	0f b6 c0             	movzbl %al,%eax
   17e0e:	44 89 ee             	mov    %r13d,%esi
   17e11:	89 c7                	mov    %eax,%edi
   17e13:	e8 44 1f ff ff       	callq  9d5c <safe_mod_func_uint16_t_u_u>
   17e18:	0f b7 c0             	movzwl %ax,%eax
   17e1b:	44 89 e6             	mov    %r12d,%esi
   17e1e:	89 c7                	mov    %eax,%edi
   17e20:	e8 e0 17 ff ff       	callq  9605 <safe_sub_func_int32_t_s_s>
   17e25:	89 c2                	mov    %eax,%edx
   17e27:	48 8b 85 70 ef ff ff 	mov    -0x1090(%rbp),%rax
   17e2e:	88 10                	mov    %dl,(%rax)
   17e30:	48 8b 85 70 ef ff ff 	mov    -0x1090(%rbp),%rax
   17e37:	0f b6 00             	movzbl (%rax),%eax
   17e3a:	0f be c0             	movsbl %al,%eax
   17e3d:	89 c6                	mov    %eax,%esi
   17e3f:	bf 8d ff ff ff       	mov    $0xffffff8d,%edi
   17e44:	e8 21 14 ff ff       	callq  926a <safe_div_func_int8_t_s_s>
   17e49:	66 0f be d0          	movsbw %al,%dx
   17e4d:	0f b7 85 d8 ed ff ff 	movzwl -0x1228(%rbp),%eax
   17e54:	31 d0                	xor    %edx,%eax
   17e56:	98                   	cwtl   
   17e57:	be 01 00 00 00       	mov    $0x1,%esi
   17e5c:	89 c7                	mov    %eax,%edi
   17e5e:	e8 c7 16 ff ff       	callq  952a <safe_rshift_func_int16_t_s_s>
   17e63:	98                   	cwtl   
   17e64:	41 39 c7             	cmp    %eax,%r15d
   17e67:	0f 95 c0             	setne  %al
   17e6a:	0f b6 c8             	movzbl %al,%ecx
   17e6d:	48 8b 85 80 ee ff ff 	mov    -0x1180(%rbp),%rax
   17e74:	8b 10                	mov    (%rax),%edx
   17e76:	48 8b 85 80 ee ff ff 	mov    -0x1180(%rbp),%rax
   17e7d:	21 ca                	and    %ecx,%edx
   17e7f:	89 10                	mov    %edx,(%rax)
   17e81:	8b 10                	mov    (%rax),%edx
   17e83:	0f b6 85 dc ed ff ff 	movzbl -0x1224(%rbp),%eax
   17e8a:	0f be c0             	movsbl %al,%eax
   17e8d:	39 c2                	cmp    %eax,%edx
   17e8f:	0f 9e c0             	setle  %al
   17e92:	0f b6 c0             	movzbl %al,%eax
   17e95:	be 00 00 00 00       	mov    $0x0,%esi
   17e9a:	89 c7                	mov    %eax,%edi
   17e9c:	e8 15 17 ff ff       	callq  95b6 <safe_add_func_int32_t_s_s>
   17ea1:	8b 85 e0 ef ff ff    	mov    -0x1020(%rbp),%eax
   17ea7:	89 c6                	mov    %eax,%esi
   17ea9:	bf 09 00 00 00       	mov    $0x9,%edi
   17eae:	e8 1d 20 ff ff       	callq  9ed0 <safe_sub_func_uint32_t_u_u>
   17eb3:	89 c2                	mov    %eax,%edx
   17eb5:	0f b6 05 05 a2 00 00 	movzbl 0xa205(%rip),%eax        # 220c1 <g_155+0x1>
   17ebc:	66 98                	cbtw   
   17ebe:	09 d0                	or     %edx,%eax
   17ec0:	0f b7 c0             	movzwl %ax,%eax
   17ec3:	89 de                	mov    %ebx,%esi
   17ec5:	89 c7                	mov    %eax,%edi
   17ec7:	e8 ae 1f ff ff       	callq  9e7a <safe_rshift_func_uint16_t_u_u>
   17ecc:	0f b7 d0             	movzwl %ax,%edx
   17ecf:	0f b6 85 dc ed ff ff 	movzbl -0x1224(%rbp),%eax
   17ed6:	0f be c0             	movsbl %al,%eax
   17ed9:	39 c2                	cmp    %eax,%edx
   17edb:	0f 9e c0             	setle  %al
   17ede:	0f b6 d0             	movzbl %al,%edx
   17ee1:	8b 85 00 ee ff ff    	mov    -0x1200(%rbp),%eax
   17ee7:	09 d0                	or     %edx,%eax
   17ee9:	89 85 00 ee ff ff    	mov    %eax,-0x1200(%rbp)
   17eef:	48 8b 85 78 ef ff ff 	mov    -0x1088(%rbp),%rax
   17ef6:	48 8b 95 d0 ed ff ff 	mov    -0x1230(%rbp),%rdx
   17efd:	48 89 10             	mov    %rdx,(%rax)
   17f00:	8b 05 72 a4 00 00    	mov    0xa472(%rip),%eax        # 22378 <g_546+0x258>
   17f06:	e9 58 08 00 00       	jmpq   18763 <func_72+0x2be1>
   17f0b:	0f b6 05 5c e0 00 00 	movzbl 0xe05c(%rip),%eax        # 25f6e <g_432>
   17f12:	0f b6 c0             	movzbl %al,%eax
   17f15:	be 07 00 00 00       	mov    $0x7,%esi
   17f1a:	89 c7                	mov    %eax,%edi
   17f1c:	e8 39 1c ff ff       	callq  9b5a <safe_add_func_uint8_t_u_u>
   17f21:	88 05 47 e0 00 00    	mov    %al,0xe047(%rip)        # 25f6e <g_432>
   17f27:	0f b6 05 40 e0 00 00 	movzbl 0xe040(%rip),%eax        # 25f6e <g_432>
   17f2e:	3c 0d                	cmp    $0xd,%al
   17f30:	0f 8f fd f7 ff ff    	jg     17733 <func_72+0x1bb1>
   17f36:	eb 01                	jmp    17f39 <func_72+0x23b7>
   17f38:	90                   	nop
   17f39:	0f b7 05 40 a5 00 00 	movzwl 0xa540(%rip),%eax        # 22480 <g_570>
   17f40:	83 c0 01             	add    $0x1,%eax
   17f43:	66 89 05 36 a5 00 00 	mov    %ax,0xa536(%rip)        # 22480 <g_570>
   17f4a:	0f b7 05 2f a5 00 00 	movzwl 0xa52f(%rip),%eax        # 22480 <g_570>
   17f51:	66 83 f8 03          	cmp    $0x3,%ax
   17f55:	0f 86 81 f3 ff ff    	jbe    172dc <func_72+0x175a>
   17f5b:	0f b7 85 d8 ed ff ff 	movzwl -0x1228(%rbp),%eax
   17f62:	98                   	cwtl   
   17f63:	89 c6                	mov    %eax,%esi
   17f65:	bf 03 00 00 00       	mov    $0x3,%edi
   17f6a:	e8 90 17 ff ff       	callq  96ff <safe_div_func_int32_t_s_s>
   17f6f:	0f b7 95 d8 ed ff ff 	movzwl -0x1228(%rbp),%edx
   17f76:	0f bf d2             	movswl %dx,%edx
   17f79:	09 d0                	or     %edx,%eax
   17f7b:	85 c0                	test   %eax,%eax
   17f7d:	74 37                	je     17fb6 <func_72+0x2434>
   17f7f:	48 8b 05 82 cb 00 00 	mov    0xcb82(%rip),%rax        # 24b08 <g_714>
   17f86:	48 8b 00             	mov    (%rax),%rax
   17f89:	0f b7 00             	movzwl (%rax),%eax
   17f8c:	0f b7 c0             	movzwl %ax,%eax
   17f8f:	be 04 00 00 00       	mov    $0x4,%esi
   17f94:	89 c7                	mov    %eax,%edi
   17f96:	e8 23 1e ff ff       	callq  9dbe <safe_lshift_func_uint16_t_u_s>
   17f9b:	0f b7 c0             	movzwl %ax,%eax
   17f9e:	be f7 31 00 00       	mov    $0x31f7,%esi
   17fa3:	89 c7                	mov    %eax,%edi
   17fa5:	e8 93 1d ff ff       	callq  9d3d <safe_mul_func_uint16_t_u_u>
   17faa:	66 85 c0             	test   %ax,%ax
   17fad:	74 07                	je     17fb6 <func_72+0x2434>
   17faf:	b8 01 00 00 00       	mov    $0x1,%eax
   17fb4:	eb 05                	jmp    17fbb <func_72+0x2439>
   17fb6:	b8 00 00 00 00       	mov    $0x0,%eax
   17fbb:	0f be c0             	movsbl %al,%eax
   17fbe:	be 01 00 00 00       	mov    $0x1,%esi
   17fc3:	89 c7                	mov    %eax,%edi
   17fc5:	e8 24 13 ff ff       	callq  92ee <safe_lshift_func_int8_t_s_u>
   17fca:	84 c0                	test   %al,%al
   17fcc:	0f 84 36 01 00 00    	je     18108 <func_72+0x2586>
   17fd2:	48 8d 85 f4 ed ff ff 	lea    -0x120c(%rbp),%rax
   17fd9:	48 89 85 e8 ee ff ff 	mov    %rax,-0x1118(%rbp)
   17fe0:	48 8d 85 00 ee ff ff 	lea    -0x1200(%rbp),%rax
   17fe7:	48 89 85 f0 ee ff ff 	mov    %rax,-0x1110(%rbp)
   17fee:	48 8d 05 af a0 00 00 	lea    0xa0af(%rip),%rax        # 220a4 <g_88>
   17ff5:	48 89 85 f8 ee ff ff 	mov    %rax,-0x1108(%rbp)
   17ffc:	48 8d 85 00 ee ff ff 	lea    -0x1200(%rbp),%rax
   18003:	48 89 85 00 ef ff ff 	mov    %rax,-0x1100(%rbp)
   1800a:	48 8d 85 00 ee ff ff 	lea    -0x1200(%rbp),%rax
   18011:	48 89 85 08 ef ff ff 	mov    %rax,-0x10f8(%rbp)
   18018:	48 c7 85 10 ef ff ff 	movq   $0x0,-0x10f0(%rbp)
   1801f:	00 00 00 00 
   18023:	48 c7 85 18 ef ff ff 	movq   $0x0,-0x10e8(%rbp)
   1802a:	00 00 00 00 
   1802e:	48 c7 85 20 ef ff ff 	movq   $0x0,-0x10e0(%rbp)
   18035:	00 00 00 00 
   18039:	48 c7 85 28 ef ff ff 	movq   $0x0,-0x10d8(%rbp)
   18040:	00 00 00 00 
   18044:	48 8d 85 f4 ed ff ff 	lea    -0x120c(%rbp),%rax
   1804b:	48 89 85 50 f2 ff ff 	mov    %rax,-0xdb0(%rbp)
   18052:	48 8d 05 e7 9f 00 00 	lea    0x9fe7(%rip),%rax        # 22040 <g_2+0x10>
   18059:	48 89 85 58 f2 ff ff 	mov    %rax,-0xda8(%rbp)
   18060:	48 8d 05 d9 9f 00 00 	lea    0x9fd9(%rip),%rax        # 22040 <g_2+0x10>
   18067:	48 89 85 60 f2 ff ff 	mov    %rax,-0xda0(%rbp)
   1806e:	48 8d 85 f4 ed ff ff 	lea    -0x120c(%rbp),%rax
   18075:	48 89 85 68 f2 ff ff 	mov    %rax,-0xd98(%rbp)
   1807c:	48 8d 05 bd 9f 00 00 	lea    0x9fbd(%rip),%rax        # 22040 <g_2+0x10>
   18083:	48 89 85 70 f2 ff ff 	mov    %rax,-0xd90(%rbp)
   1808a:	48 8d 05 af 9f 00 00 	lea    0x9faf(%rip),%rax        # 22040 <g_2+0x10>
   18091:	48 89 85 78 f2 ff ff 	mov    %rax,-0xd88(%rbp)
   18098:	48 8d 85 f4 ed ff ff 	lea    -0x120c(%rbp),%rax
   1809f:	48 89 85 80 f2 ff ff 	mov    %rax,-0xd80(%rbp)
   180a6:	c7 85 3c ee ff ff 73 	movl   $0xec2b2573,-0x11c4(%rbp)
   180ad:	25 2b ec 
   180b0:	c7 85 00 ee ff ff 00 	movl   $0x0,-0x1200(%rbp)
   180b7:	00 00 00 
   180ba:	eb 22                	jmp    180de <func_72+0x255c>
   180bc:	8b 85 00 ee ff ff    	mov    -0x1200(%rbp),%eax
   180c2:	48 98                	cltq   
   180c4:	8b 84 85 e0 ef ff ff 	mov    -0x1020(%rbp,%rax,4),%eax
   180cb:	85 c0                	test   %eax,%eax
   180cd:	75 1b                	jne    180ea <func_72+0x2568>
   180cf:	8b 85 00 ee ff ff    	mov    -0x1200(%rbp),%eax
   180d5:	83 e8 01             	sub    $0x1,%eax
   180d8:	89 85 00 ee ff ff    	mov    %eax,-0x1200(%rbp)
   180de:	8b 85 00 ee ff ff    	mov    -0x1200(%rbp),%eax
   180e4:	85 c0                	test   %eax,%eax
   180e6:	79 d4                	jns    180bc <func_72+0x253a>
   180e8:	eb 01                	jmp    180eb <func_72+0x2569>
   180ea:	90                   	nop
   180eb:	83 ad 3c ee ff ff 01 	subl   $0x1,-0x11c4(%rbp)
   180f2:	48 8b 05 e7 c9 00 00 	mov    0xc9e7(%rip),%rax        # 24ae0 <g_621>
   180f9:	48 8b 00             	mov    (%rax),%rax
   180fc:	48 89 85 d0 ed ff ff 	mov    %rax,-0x1230(%rbp)
   18103:	e9 48 06 00 00       	jmpq   18750 <func_72+0x2bce>
   18108:	48 8d 85 50 f2 ff ff 	lea    -0xdb0(%rbp),%rax
   1810f:	48 8d 15 0a b2 00 00 	lea    0xb20a(%rip),%rdx        # 23320 <g_2474+0xdf6>
   18116:	b9 46 00 00 00       	mov    $0x46,%ecx
   1811b:	48 89 c7             	mov    %rax,%rdi
   1811e:	48 89 d6             	mov    %rdx,%rsi
   18121:	f3 48 a5             	rep movsq %ds:(%rsi),%es:(%rdi)
   18124:	48 b8 d7 ab a1 3e 82 	movabs $0x4a047f823ea1abd7,%rax
   1812b:	7f 04 4a 
   1812e:	48 89 85 c0 ee ff ff 	mov    %rax,-0x1140(%rbp)
   18135:	c6 85 ea ed ff ff 78 	movb   $0x78,-0x1216(%rbp)
   1813c:	48 8d 05 6b 9f 00 00 	lea    0x9f6b(%rip),%rax        # 220ae <g_98+0x6>
   18143:	48 89 85 68 ee ff ff 	mov    %rax,-0x1198(%rbp)
   1814a:	48 8d 85 68 ee ff ff 	lea    -0x1198(%rbp),%rax
   18151:	48 89 85 70 ee ff ff 	mov    %rax,-0x1190(%rbp)
   18158:	48 8d 85 70 ee ff ff 	lea    -0x1190(%rbp),%rax
   1815f:	48 89 85 78 ee ff ff 	mov    %rax,-0x1188(%rbp)
   18166:	48 8d 85 78 ee ff ff 	lea    -0x1188(%rbp),%rax
   1816d:	48 89 85 80 ee ff ff 	mov    %rax,-0x1180(%rbp)
   18174:	48 8d 85 80 ee ff ff 	lea    -0x1180(%rbp),%rax
   1817b:	48 89 85 c8 ee ff ff 	mov    %rax,-0x1138(%rbp)
   18182:	c7 85 30 ee ff ff b8 	movl   $0x5d9550b8,-0x11d0(%rbp)
   18189:	50 95 5d 
   1818c:	c7 85 34 ee ff ff fe 	movl   $0xfffffffe,-0x11cc(%rbp)
   18193:	ff ff ff 
   18196:	48 8b 85 d0 ed ff ff 	mov    -0x1230(%rbp),%rax
   1819d:	8b 00                	mov    (%rax),%eax
   1819f:	85 c0                	test   %eax,%eax
   181a1:	0f 85 b1 05 00 00    	jne    18758 <func_72+0x2bd6>
   181a7:	48 8b 05 5a c1 00 00 	mov    0xc15a(%rip),%rax        # 24308 <g_198>
   181ae:	0f b7 00             	movzwl (%rax),%eax
   181b1:	0f b6 05 e2 9e 00 00 	movzbl 0x9ee2(%rip),%eax        # 2209a <g_63+0x2>
   181b8:	88 85 e8 ed ff ff    	mov    %al,-0x1218(%rbp)
   181be:	0f b7 85 d8 ed ff ff 	movzwl -0x1228(%rbp),%eax
   181c5:	0f be d0             	movsbl %al,%edx
   181c8:	48 83 bd 98 ee ff ff 	cmpq   $0x0,-0x1168(%rbp)
   181cf:	00 
   181d0:	0f 95 c0             	setne  %al
   181d3:	0f b6 c0             	movzbl %al,%eax
   181d6:	89 d6                	mov    %edx,%esi
   181d8:	89 c7                	mov    %eax,%edi
   181da:	e8 f5 0f ff ff       	callq  91d4 <safe_add_func_int8_t_s_s>
   181df:	0f b7 85 ee ed ff ff 	movzwl -0x1212(%rbp),%eax
   181e6:	83 c8 01             	or     $0x1,%eax
   181e9:	89 c2                	mov    %eax,%edx
   181eb:	48 8b 85 88 ee ff ff 	mov    -0x1178(%rbp),%rax
   181f2:	88 10                	mov    %dl,(%rax)
   181f4:	48 8b 85 88 ee ff ff 	mov    -0x1178(%rbp),%rax
   181fb:	0f b6 00             	movzbl (%rax),%eax
   181fe:	0f be c0             	movsbl %al,%eax
   18201:	be 06 00 00 00       	mov    $0x6,%esi
   18206:	89 c7                	mov    %eax,%edi
   18208:	e8 c7 0f ff ff       	callq  91d4 <safe_add_func_int8_t_s_s>
   1820d:	8b 85 24 f0 ff ff    	mov    -0xfdc(%rbp),%eax
   18213:	48 98                	cltq   
   18215:	48 21 85 c0 ee ff ff 	and    %rax,-0x1140(%rbp)
   1821c:	48 b8 b5 7a a0 7b 78 	movabs $0xcbe802787ba07ab5,%rax
   18223:	02 e8 cb 
   18226:	48 39 85 c0 ee ff ff 	cmp    %rax,-0x1140(%rbp)
   1822d:	74 09                	je     18238 <func_72+0x26b6>
   1822f:	0f b6 85 dc ed ff ff 	movzbl -0x1224(%rbp),%eax
   18236:	84 c0                	test   %al,%al
   18238:	48 8b 05 b9 c8 00 00 	mov    0xc8b9(%rip),%rax        # 24af8 <g_654>
   1823f:	48 8b 00             	mov    (%rax),%rax
   18242:	0f b6 00             	movzbl (%rax),%eax
   18245:	0f b6 c0             	movzbl %al,%eax
   18248:	be 00 00 00 00       	mov    $0x0,%esi
   1824d:	89 c7                	mov    %eax,%edi
   1824f:	e8 b1 19 ff ff       	callq  9c05 <safe_lshift_func_uint8_t_u_s>
   18254:	48 8b 85 48 ee ff ff 	mov    -0x11b8(%rbp),%rax
   1825b:	8b 00                	mov    (%rax),%eax
   1825d:	83 f8 fa             	cmp    $0xfffffffa,%eax
   18260:	0f 97 c0             	seta   %al
   18263:	0f b6 d0             	movzbl %al,%edx
   18266:	48 8b 85 a0 ee ff ff 	mov    -0x1160(%rbp),%rax
   1826d:	89 10                	mov    %edx,(%rax)
   1826f:	8b 85 28 ee ff ff    	mov    -0x11d8(%rbp),%eax
   18275:	0f b6 d0             	movzbl %al,%edx
   18278:	48 8b 85 78 f9 ff ff 	mov    -0x688(%rbp),%rax
   1827f:	48 85 c0             	test   %rax,%rax
   18282:	0f 95 c0             	setne  %al
   18285:	0f b6 c0             	movzbl %al,%eax
   18288:	89 d6                	mov    %edx,%esi
   1828a:	89 c7                	mov    %eax,%edi
   1828c:	e8 02 19 ff ff       	callq  9b93 <safe_mul_func_uint8_t_u_u>
   18291:	84 c0                	test   %al,%al
   18293:	74 10                	je     182a5 <func_72+0x2723>
   18295:	80 bd ea ed ff ff 00 	cmpb   $0x0,-0x1216(%rbp)
   1829c:	74 07                	je     182a5 <func_72+0x2723>
   1829e:	b8 01 00 00 00       	mov    $0x1,%eax
   182a3:	eb 05                	jmp    182aa <func_72+0x2728>
   182a5:	b8 00 00 00 00       	mov    $0x0,%eax
   182aa:	89 85 e4 ef ff ff    	mov    %eax,-0x101c(%rbp)
   182b0:	66 83 bd ec ed ff ff 	cmpw   $0x0,-0x1214(%rbp)
   182b7:	00 
   182b8:	0f 84 43 03 00 00    	je     18601 <func_72+0x2a7f>
   182be:	48 c7 85 d8 ee ff ff 	movq   $0x0,-0x1128(%rbp)
   182c5:	00 00 00 00 
   182c9:	c7 85 38 ee ff ff 00 	movl   $0x0,-0x11c8(%rbp)
   182d0:	00 00 00 
   182d3:	48 c7 05 9a dc 00 00 	movq   $0x0,0xdc9a(%rip)        # 25f78 <g_545>
   182da:	00 00 00 00 
   182de:	eb 2a                	jmp    1830a <func_72+0x2788>
   182e0:	48 8b 05 91 dc 00 00 	mov    0xdc91(%rip),%rax        # 25f78 <g_545>
   182e7:	48 8d 14 00          	lea    (%rax,%rax,1),%rdx
   182eb:	48 8d 05 96 a1 00 00 	lea    0xa196(%rip),%rax        # 22488 <g_615>
   182f2:	66 c7 04 02 d9 f3    	movw   $0xf3d9,(%rdx,%rax,1)
   182f8:	48 8b 05 79 dc 00 00 	mov    0xdc79(%rip),%rax        # 25f78 <g_545>
   182ff:	48 83 c0 01          	add    $0x1,%rax
   18303:	48 89 05 6e dc 00 00 	mov    %rax,0xdc6e(%rip)        # 25f78 <g_545>
   1830a:	48 8b 05 67 dc 00 00 	mov    0xdc67(%rip),%rax        # 25f78 <g_545>
   18311:	48 83 f8 01          	cmp    $0x1,%rax
   18315:	7e c9                	jle    182e0 <func_72+0x275e>
   18317:	48 8b 85 48 ee ff ff 	mov    -0x11b8(%rbp),%rax
   1831e:	8b 00                	mov    (%rax),%eax
   18320:	0f bf d8             	movswl %ax,%ebx
   18323:	48 c7 85 c8 ee ff ff 	movq   $0x0,-0x1138(%rbp)
   1832a:	00 00 00 00 
   1832e:	be 00 00 00 00       	mov    $0x0,%esi
   18333:	bf f7 ff ff ff       	mov    $0xfffffff7,%edi
   18338:	e8 97 0e ff ff       	callq  91d4 <safe_add_func_int8_t_s_s>
   1833d:	66 44 0f be e0       	movsbw %al,%r12w
   18342:	0f b6 85 dc ed ff ff 	movzbl -0x1224(%rbp),%eax
   18349:	48 0f be d0          	movsbq %al,%rdx
   1834d:	48 83 bd d8 ee ff ff 	cmpq   $0x0,-0x1128(%rbp)
   18354:	00 
   18355:	0f 95 c0             	setne  %al
   18358:	0f b6 c0             	movzbl %al,%eax
   1835b:	48 89 d6             	mov    %rdx,%rsi
   1835e:	48 89 c7             	mov    %rax,%rdi
   18361:	e8 4e 16 ff ff       	callq  99b4 <safe_mod_func_int64_t_s_s>
   18366:	44 21 e0             	and    %r12d,%eax
   18369:	98                   	cwtl   
   1836a:	89 de                	mov    %ebx,%esi
   1836c:	89 c7                	mov    %eax,%edi
   1836e:	e8 40 10 ff ff       	callq  93b3 <safe_add_func_int16_t_s_s>
   18373:	66 85 c0             	test   %ax,%ax
   18376:	74 22                	je     1839a <func_72+0x2818>
   18378:	48 8b 15 69 c7 00 00 	mov    0xc769(%rip),%rdx        # 24ae8 <g_646>
   1837f:	48 8b 05 fa c7 00 00 	mov    0xc7fa(%rip),%rax        # 24b80 <g_805>
   18386:	48 8b 12             	mov    (%rdx),%rdx
   18389:	48 89 10             	mov    %rdx,(%rax)
   1838c:	48 8b 85 48 ee ff ff 	mov    -0x11b8(%rbp),%rax
   18393:	8b 00                	mov    (%rax),%eax
   18395:	e9 c9 03 00 00       	jmpq   18763 <func_72+0x2be1>
   1839a:	48 8d 85 48 ee ff ff 	lea    -0x11b8(%rbp),%rax
   183a1:	48 89 85 e0 ee ff ff 	mov    %rax,-0x1120(%rbp)
   183a8:	83 bd 30 ee ff ff 00 	cmpl   $0x0,-0x11d0(%rbp)
   183af:	0f 85 a6 03 00 00    	jne    1875b <func_72+0x2bd9>
   183b5:	48 8b 85 e0 ee ff ff 	mov    -0x1120(%rbp),%rax
   183bc:	48 8b 95 d0 ed ff ff 	mov    -0x1230(%rbp),%rdx
   183c3:	48 89 10             	mov    %rdx,(%rax)
   183c6:	c6 05 cb a0 00 00 00 	movb   $0x0,0xa0cb(%rip)        # 22498 <g_779>
   183cd:	e9 1b 02 00 00       	jmpq   185ed <func_72+0x2a6b>
   183d2:	48 8d 85 04 ee ff ff 	lea    -0x11fc(%rbp),%rax
   183d9:	48 89 85 30 f1 ff ff 	mov    %rax,-0xed0(%rbp)
   183e0:	48 8d 85 04 ee ff ff 	lea    -0x11fc(%rbp),%rax
   183e7:	48 89 85 38 f1 ff ff 	mov    %rax,-0xec8(%rbp)
   183ee:	48 8d 85 04 ee ff ff 	lea    -0x11fc(%rbp),%rax
   183f5:	48 89 85 40 f1 ff ff 	mov    %rax,-0xec0(%rbp)
   183fc:	48 8d 85 04 ee ff ff 	lea    -0x11fc(%rbp),%rax
   18403:	48 89 85 48 f1 ff ff 	mov    %rax,-0xeb8(%rbp)
   1840a:	48 8d 85 04 ee ff ff 	lea    -0x11fc(%rbp),%rax
   18411:	48 89 85 50 f1 ff ff 	mov    %rax,-0xeb0(%rbp)
   18418:	48 8d 85 04 ee ff ff 	lea    -0x11fc(%rbp),%rax
   1841f:	48 89 85 58 f1 ff ff 	mov    %rax,-0xea8(%rbp)
   18426:	48 8d 85 04 ee ff ff 	lea    -0x11fc(%rbp),%rax
   1842d:	48 89 85 60 f1 ff ff 	mov    %rax,-0xea0(%rbp)
   18434:	48 8d 85 04 ee ff ff 	lea    -0x11fc(%rbp),%rax
   1843b:	48 89 85 68 f1 ff ff 	mov    %rax,-0xe98(%rbp)
   18442:	48 8d 85 04 ee ff ff 	lea    -0x11fc(%rbp),%rax
   18449:	48 89 85 70 f1 ff ff 	mov    %rax,-0xe90(%rbp)
   18450:	48 8d 85 04 ee ff ff 	lea    -0x11fc(%rbp),%rax
   18457:	48 89 85 78 f1 ff ff 	mov    %rax,-0xe88(%rbp)
   1845e:	48 8d 85 04 ee ff ff 	lea    -0x11fc(%rbp),%rax
   18465:	48 89 85 80 f1 ff ff 	mov    %rax,-0xe80(%rbp)
   1846c:	48 8d 85 04 ee ff ff 	lea    -0x11fc(%rbp),%rax
   18473:	48 89 85 88 f1 ff ff 	mov    %rax,-0xe78(%rbp)
   1847a:	48 8d 85 04 ee ff ff 	lea    -0x11fc(%rbp),%rax
   18481:	48 89 85 90 f1 ff ff 	mov    %rax,-0xe70(%rbp)
   18488:	48 8d 85 04 ee ff ff 	lea    -0x11fc(%rbp),%rax
   1848f:	48 89 85 98 f1 ff ff 	mov    %rax,-0xe68(%rbp)
   18496:	48 8d 85 04 ee ff ff 	lea    -0x11fc(%rbp),%rax
   1849d:	48 89 85 a0 f1 ff ff 	mov    %rax,-0xe60(%rbp)
   184a4:	48 8d 85 04 ee ff ff 	lea    -0x11fc(%rbp),%rax
   184ab:	48 89 85 a8 f1 ff ff 	mov    %rax,-0xe58(%rbp)
   184b2:	48 8d 85 04 ee ff ff 	lea    -0x11fc(%rbp),%rax
   184b9:	48 89 85 b0 f1 ff ff 	mov    %rax,-0xe50(%rbp)
   184c0:	48 8d 85 04 ee ff ff 	lea    -0x11fc(%rbp),%rax
   184c7:	48 89 85 b8 f1 ff ff 	mov    %rax,-0xe48(%rbp)
   184ce:	48 8d 85 04 ee ff ff 	lea    -0x11fc(%rbp),%rax
   184d5:	48 89 85 c0 f1 ff ff 	mov    %rax,-0xe40(%rbp)
   184dc:	48 8d 85 04 ee ff ff 	lea    -0x11fc(%rbp),%rax
   184e3:	48 89 85 c8 f1 ff ff 	mov    %rax,-0xe38(%rbp)
   184ea:	48 8d 85 04 ee ff ff 	lea    -0x11fc(%rbp),%rax
   184f1:	48 89 85 d0 f1 ff ff 	mov    %rax,-0xe30(%rbp)
   184f8:	48 8d 85 04 ee ff ff 	lea    -0x11fc(%rbp),%rax
   184ff:	48 89 85 d8 f1 ff ff 	mov    %rax,-0xe28(%rbp)
   18506:	48 8d 85 04 ee ff ff 	lea    -0x11fc(%rbp),%rax
   1850d:	48 89 85 e0 f1 ff ff 	mov    %rax,-0xe20(%rbp)
   18514:	48 8d 85 04 ee ff ff 	lea    -0x11fc(%rbp),%rax
   1851b:	48 89 85 e8 f1 ff ff 	mov    %rax,-0xe18(%rbp)
   18522:	48 8d 85 04 ee ff ff 	lea    -0x11fc(%rbp),%rax
   18529:	48 89 85 f0 f1 ff ff 	mov    %rax,-0xe10(%rbp)
   18530:	48 8d 85 04 ee ff ff 	lea    -0x11fc(%rbp),%rax
   18537:	48 89 85 f8 f1 ff ff 	mov    %rax,-0xe08(%rbp)
   1853e:	48 8d 85 04 ee ff ff 	lea    -0x11fc(%rbp),%rax
   18545:	48 89 85 00 f2 ff ff 	mov    %rax,-0xe00(%rbp)
   1854c:	48 8d 85 04 ee ff ff 	lea    -0x11fc(%rbp),%rax
   18553:	48 89 85 08 f2 ff ff 	mov    %rax,-0xdf8(%rbp)
   1855a:	48 8d 85 04 ee ff ff 	lea    -0x11fc(%rbp),%rax
   18561:	48 89 85 10 f2 ff ff 	mov    %rax,-0xdf0(%rbp)
   18568:	48 8d 85 04 ee ff ff 	lea    -0x11fc(%rbp),%rax
   1856f:	48 89 85 18 f2 ff ff 	mov    %rax,-0xde8(%rbp)
   18576:	48 8d 85 04 ee ff ff 	lea    -0x11fc(%rbp),%rax
   1857d:	48 89 85 20 f2 ff ff 	mov    %rax,-0xde0(%rbp)
   18584:	48 8d 85 04 ee ff ff 	lea    -0x11fc(%rbp),%rax
   1858b:	48 89 85 28 f2 ff ff 	mov    %rax,-0xdd8(%rbp)
   18592:	48 8d 85 04 ee ff ff 	lea    -0x11fc(%rbp),%rax
   18599:	48 89 85 30 f2 ff ff 	mov    %rax,-0xdd0(%rbp)
   185a0:	48 8d 85 04 ee ff ff 	lea    -0x11fc(%rbp),%rax
   185a7:	48 89 85 38 f2 ff ff 	mov    %rax,-0xdc8(%rbp)
   185ae:	48 8d 85 04 ee ff ff 	lea    -0x11fc(%rbp),%rax
   185b5:	48 89 85 40 f2 ff ff 	mov    %rax,-0xdc0(%rbp)
   185bc:	48 8d 85 04 ee ff ff 	lea    -0x11fc(%rbp),%rax
   185c3:	48 89 85 48 f2 ff ff 	mov    %rax,-0xdb8(%rbp)
   185ca:	8b 85 38 ee ff ff    	mov    -0x11c8(%rbp),%eax
   185d0:	89 85 f0 ed ff ff    	mov    %eax,-0x1210(%rbp)
   185d6:	83 bd 2c ee ff ff 00 	cmpl   $0x0,-0x11d4(%rbp)
   185dd:	0f b6 05 b4 9e 00 00 	movzbl 0x9eb4(%rip),%eax        # 22498 <g_779>
   185e4:	83 c0 01             	add    $0x1,%eax
   185e7:	88 05 ab 9e 00 00    	mov    %al,0x9eab(%rip)        # 22498 <g_779>
   185ed:	0f b6 05 a4 9e 00 00 	movzbl 0x9ea4(%rip),%eax        # 22498 <g_779>
   185f4:	3c 09                	cmp    $0x9,%al
   185f6:	0f 87 d6 fd ff ff    	ja     183d2 <func_72+0x2850>
   185fc:	e9 4f 01 00 00       	jmpq   18750 <func_72+0x2bce>
   18601:	48 8d 85 60 ee ff ff 	lea    -0x11a0(%rbp),%rax
   18608:	48 89 85 d0 ee ff ff 	mov    %rax,-0x1130(%rbp)
   1860f:	c7 85 24 ee ff ff 00 	movl   $0x0,-0x11dc(%rbp)
   18616:	00 00 00 
   18619:	eb 1e                	jmp    18639 <func_72+0x2ab7>
   1861b:	8b 85 24 ee ff ff    	mov    -0x11dc(%rbp),%eax
   18621:	48 98                	cltq   
   18623:	48 8d 15 56 d9 00 00 	lea    0xd956(%rip),%rdx        # 25f80 <g_622>
   1862a:	48 89 94 c5 30 f1 ff 	mov    %rdx,-0xed0(%rbp,%rax,8)
   18631:	ff 
   18632:	83 85 24 ee ff ff 01 	addl   $0x1,-0x11dc(%rbp)
   18639:	83 bd 24 ee ff ff 02 	cmpl   $0x2,-0x11dc(%rbp)
   18640:	7e d9                	jle    1861b <func_72+0x2a99>
   18642:	48 c7 85 d0 ed ff ff 	movq   $0x0,-0x1230(%rbp)
   18649:	00 00 00 00 
   1864d:	0f b6 85 dc ed ff ff 	movzbl -0x1224(%rbp),%eax
   18654:	0f b6 d8             	movzbl %al,%ebx
   18657:	0f b6 85 dc ed ff ff 	movzbl -0x1224(%rbp),%eax
   1865e:	66 98                	cbtw   
   18660:	44 0f b7 e0          	movzwl %ax,%r12d
   18664:	48 8d 85 80 ee ff ff 	lea    -0x1180(%rbp),%rax
   1866b:	48 39 85 d0 ee ff ff 	cmp    %rax,-0x1130(%rbp)
   18672:	0f 95 c0             	setne  %al
   18675:	0f b6 d0             	movzbl %al,%edx
   18678:	0f b7 85 d8 ed ff ff 	movzwl -0x1228(%rbp),%eax
   1867f:	0f b7 c0             	movzwl %ax,%eax
   18682:	89 d6                	mov    %edx,%esi
   18684:	89 c7                	mov    %eax,%edi
   18686:	e8 b2 16 ff ff       	callq  9d3d <safe_mul_func_uint16_t_u_u>
   1868b:	0f b7 c0             	movzwl %ax,%eax
   1868e:	44 89 e6             	mov    %r12d,%esi
   18691:	89 c7                	mov    %eax,%edi
   18693:	e8 87 16 ff ff       	callq  9d1f <safe_sub_func_uint16_t_u_u>
   18698:	66 85 c0             	test   %ax,%ax
   1869b:	74 16                	je     186b3 <func_72+0x2b31>
   1869d:	48 8b 05 2c c4 00 00 	mov    0xc42c(%rip),%rax        # 24ad0 <g_464>
   186a4:	48 8b 00             	mov    (%rax),%rax
   186a7:	48 85 c0             	test   %rax,%rax
   186aa:	74 07                	je     186b3 <func_72+0x2b31>
   186ac:	b8 01 00 00 00       	mov    $0x1,%eax
   186b1:	eb 05                	jmp    186b8 <func_72+0x2b36>
   186b3:	b8 00 00 00 00       	mov    $0x0,%eax
   186b8:	41 89 c4             	mov    %eax,%r12d
   186bb:	48 8b 85 50 ee ff ff 	mov    -0x11b0(%rbp),%rax
   186c2:	c6 00 dd             	movb   $0xdd,(%rax)
   186c5:	48 8b 05 24 c4 00 00 	mov    0xc424(%rip),%rax        # 24af0 <g_655>
   186cc:	be cf 00 00 00       	mov    $0xcf,%esi
   186d1:	bf 00 00 00 00       	mov    $0x0,%edi
   186d6:	e8 d3 14 ff ff       	callq  9bae <safe_mod_func_uint8_t_u_u>
   186db:	0f b6 c0             	movzbl %al,%eax
   186de:	44 89 e6             	mov    %r12d,%esi
   186e1:	89 c7                	mov    %eax,%edi
   186e3:	e8 7b 0e ff ff       	callq  9563 <safe_rshift_func_int16_t_s_u>
   186e8:	0f bf d0             	movswl %ax,%edx
   186eb:	0f b6 85 e9 ed ff ff 	movzbl -0x1217(%rbp),%eax
   186f2:	39 c2                	cmp    %eax,%edx
   186f4:	0f 9f c0             	setg   %al
   186f7:	0f b6 c0             	movzbl %al,%eax
   186fa:	89 de                	mov    %ebx,%esi
   186fc:	89 c7                	mov    %eax,%edi
   186fe:	e8 d8 14 ff ff       	callq  9bdb <safe_div_func_uint8_t_u_u>
   18703:	0f b6 c0             	movzbl %al,%eax
   18706:	21 85 34 ee ff ff    	and    %eax,-0x11cc(%rbp)
   1870c:	c7 85 f4 ed ff ff f1 	movl   $0xfffffff1,-0x120c(%rbp)
   18713:	ff ff ff 
   18716:	eb 2a                	jmp    18742 <func_72+0x2bc0>
   18718:	48 8b 05 01 bc 00 00 	mov    0xbc01(%rip),%rax        # 24320 <g_214>
   1871f:	48 8d 95 00 ee ff ff 	lea    -0x1200(%rbp),%rdx
   18726:	48 89 10             	mov    %rdx,(%rax)
   18729:	8b 85 14 f7 ff ff    	mov    -0x8ec(%rbp),%eax
   1872f:	85 c0                	test   %eax,%eax
   18731:	75 1c                	jne    1874f <func_72+0x2bcd>
   18733:	8b 85 f4 ed ff ff    	mov    -0x120c(%rbp),%eax
   18739:	83 c0 01             	add    $0x1,%eax
   1873c:	89 85 f4 ed ff ff    	mov    %eax,-0x120c(%rbp)
   18742:	8b 85 f4 ed ff ff    	mov    -0x120c(%rbp),%eax
   18748:	83 f8 02             	cmp    $0x2,%eax
   1874b:	7e cb                	jle    18718 <func_72+0x2b96>
   1874d:	eb 01                	jmp    18750 <func_72+0x2bce>
   1874f:	90                   	nop
   18750:	8b 85 ec ef ff ff    	mov    -0x1014(%rbp),%eax
   18756:	eb 0b                	jmp    18763 <func_72+0x2be1>
   18758:	90                   	nop
   18759:	eb 01                	jmp    1875c <func_72+0x2bda>
   1875b:	90                   	nop
   1875c:	48 8b 05 25 99 00 00 	mov    0x9925(%rip),%rax        # 22088 <g_49>
   18763:	48 8b 5d c8          	mov    -0x38(%rbp),%rbx
   18767:	64 48 33 1c 25 28 00 	xor    %fs:0x28,%rbx
   1876e:	00 00 
   18770:	74 05                	je     18777 <func_72+0x2bf5>
   18772:	e8 f9 08 ff ff       	callq  9070 <__stack_chk_fail@plt>
   18777:	48 81 c4 08 12 00 00 	add    $0x1208,%rsp
   1877e:	5b                   	pop    %rbx
   1877f:	41 5c                	pop    %r12
   18781:	41 5d                	pop    %r13
   18783:	41 5e                	pop    %r14
   18785:	41 5f                	pop    %r15
   18787:	5d                   	pop    %rbp
   18788:	c3                   	retq   

0000000000018789 <func_92>:
   18789:	f3 0f 1e fa          	endbr64 
   1878d:	55                   	push   %rbp
   1878e:	48 89 e5             	mov    %rsp,%rbp
   18791:	41 57                	push   %r15
   18793:	41 56                	push   %r14
   18795:	41 55                	push   %r13
   18797:	41 54                	push   %r12
   18799:	53                   	push   %rbx
   1879a:	48 81 ec 00 10 00 00 	sub    $0x1000,%rsp
   187a1:	48 83 0c 24 00       	orq    $0x0,(%rsp)
   187a6:	48 81 ec 88 09 00 00 	sub    $0x988,%rsp
   187ad:	89 bd 7c e6 ff ff    	mov    %edi,-0x1984(%rbp)
   187b3:	48 89 b5 70 e6 ff ff 	mov    %rsi,-0x1990(%rbp)
   187ba:	64 48 8b 04 25 28 00 	mov    %fs:0x28,%rax
   187c1:	00 00 
   187c3:	48 89 45 c8          	mov    %rax,-0x38(%rbp)
   187c7:	31 c0                	xor    %eax,%eax
   187c9:	66 c7 85 e0 e8 ff ff 	movw   $0x76a4,-0x1720(%rbp)
   187d0:	a4 76 
   187d2:	66 c7 85 e2 e8 ff ff 	movw   $0x76a4,-0x171e(%rbp)
   187d9:	a4 76 
   187db:	66 c7 85 e4 e8 ff ff 	movw   $0x6,-0x171c(%rbp)
   187e2:	06 00 
   187e4:	66 c7 85 e6 e8 ff ff 	movw   $0x76a4,-0x171a(%rbp)
   187eb:	a4 76 
   187ed:	66 c7 85 e8 e8 ff ff 	movw   $0x76a4,-0x1718(%rbp)
   187f4:	a4 76 
   187f6:	66 c7 85 ea e8 ff ff 	movw   $0x6,-0x1716(%rbp)
   187fd:	06 00 
   187ff:	66 c7 85 ec e8 ff ff 	movw   $0x76a4,-0x1714(%rbp)
   18806:	a4 76 
   18808:	66 c7 85 ee e8 ff ff 	movw   $0x76a4,-0x1712(%rbp)
   1880f:	a4 76 
   18811:	66 c7 85 f0 e8 ff ff 	movw   $0x6,-0x1710(%rbp)
   18818:	06 00 
   1881a:	48 8d 05 6f 98 00 00 	lea    0x986f(%rip),%rax        # 22090 <g_50>
   18821:	48 89 85 80 e9 ff ff 	mov    %rax,-0x1680(%rbp)
   18828:	48 8d 05 61 98 00 00 	lea    0x9861(%rip),%rax        # 22090 <g_50>
   1882f:	48 89 85 88 e9 ff ff 	mov    %rax,-0x1678(%rbp)
   18836:	48 8d 05 53 98 00 00 	lea    0x9853(%rip),%rax        # 22090 <g_50>
   1883d:	48 89 85 90 e9 ff ff 	mov    %rax,-0x1670(%rbp)
   18844:	48 8d 05 45 98 00 00 	lea    0x9845(%rip),%rax        # 22090 <g_50>
   1884b:	48 89 85 98 e9 ff ff 	mov    %rax,-0x1668(%rbp)
   18852:	48 8d 05 37 98 00 00 	lea    0x9837(%rip),%rax        # 22090 <g_50>
   18859:	48 89 85 a0 e9 ff ff 	mov    %rax,-0x1660(%rbp)
   18860:	48 8d 05 29 98 00 00 	lea    0x9829(%rip),%rax        # 22090 <g_50>
   18867:	48 89 85 a8 e9 ff ff 	mov    %rax,-0x1658(%rbp)
   1886e:	48 8d 05 1b 98 00 00 	lea    0x981b(%rip),%rax        # 22090 <g_50>
   18875:	48 89 85 b0 e9 ff ff 	mov    %rax,-0x1650(%rbp)
   1887c:	48 8d 05 0d 98 00 00 	lea    0x980d(%rip),%rax        # 22090 <g_50>
   18883:	48 89 85 b8 e9 ff ff 	mov    %rax,-0x1648(%rbp)
   1888a:	48 8d 05 01 98 00 00 	lea    0x9801(%rip),%rax        # 22092 <g_52>
   18891:	48 89 85 c8 e6 ff ff 	mov    %rax,-0x1938(%rbp)
   18898:	c7 85 90 e6 ff ff 05 	movl   $0x5,-0x1970(%rbp)
   1889f:	00 00 00 
   188a2:	66 c7 85 8c e6 ff ff 	movw   $0xfff8,-0x1974(%rbp)
   188a9:	f8 ff 
   188ab:	48 8d 05 1e 98 00 00 	lea    0x981e(%rip),%rax        # 220d0 <g_164>
   188b2:	48 89 85 30 e7 ff ff 	mov    %rax,-0x18d0(%rbp)
   188b9:	48 8d 05 f8 97 00 00 	lea    0x97f8(%rip),%rax        # 220b8 <g_148>
   188c0:	48 89 85 d0 e6 ff ff 	mov    %rax,-0x1930(%rbp)
   188c7:	48 c7 85 38 e7 ff ff 	movq   $0x9,-0x18c8(%rbp)
   188ce:	09 00 00 00 
   188d2:	c7 85 94 e6 ff ff b4 	movl   $0x40dd74b4,-0x196c(%rbp)
   188d9:	74 dd 40 
   188dc:	c7 85 98 e6 ff ff ff 	movl   $0xffffffff,-0x1968(%rbp)
   188e3:	ff ff ff 
   188e6:	c7 05 b4 97 00 00 00 	movl   $0x0,0x97b4(%rip)        # 220a4 <g_88>
   188ed:	00 00 00 
   188f0:	e9 71 28 00 00       	jmpq   1b166 <func_92+0x29dd>
   188f5:	48 8d 05 b2 97 00 00 	lea    0x97b2(%rip),%rax        # 220ae <g_98+0x6>
   188fc:	48 89 85 d0 e7 ff ff 	mov    %rax,-0x1830(%rbp)
   18903:	48 8d 05 aa 97 00 00 	lea    0x97aa(%rip),%rax        # 220b4 <g_127>
   1890a:	48 89 85 d8 e7 ff ff 	mov    %rax,-0x1828(%rbp)
   18911:	c7 85 9c e6 ff ff f7 	movl   $0xfffffff7,-0x1964(%rbp)
   18918:	ff ff ff 
   1891b:	48 8d 85 b0 ed ff ff 	lea    -0x1250(%rbp),%rax
   18922:	48 8d 15 37 64 00 00 	lea    0x6437(%rip),%rdx        # 1ed60 <g_431+0xce2>
   18929:	b9 2a 00 00 00       	mov    $0x2a,%ecx
   1892e:	48 89 c7             	mov    %rax,%rdi
   18931:	48 89 d6             	mov    %rdx,%rsi
   18934:	f3 48 a5             	rep movsq %ds:(%rsi),%es:(%rdi)
   18937:	48 8d 85 c8 e6 ff ff 	lea    -0x1938(%rbp),%rax
   1893e:	48 89 85 d8 e6 ff ff 	mov    %rax,-0x1928(%rbp)
   18945:	48 8d 85 d8 e6 ff ff 	lea    -0x1928(%rbp),%rax
   1894c:	48 89 85 e0 e6 ff ff 	mov    %rax,-0x1920(%rbp)
   18953:	48 8d 05 76 97 00 00 	lea    0x9776(%rip),%rax        # 220d0 <g_164>
   1895a:	48 89 85 e8 e6 ff ff 	mov    %rax,-0x1918(%rbp)
   18961:	48 8d 85 e8 e6 ff ff 	lea    -0x1918(%rbp),%rax
   18968:	48 89 85 e0 e7 ff ff 	mov    %rax,-0x1820(%rbp)
   1896f:	48 8d 85 70 ec ff ff 	lea    -0x1390(%rbp),%rax
   18976:	48 8d 15 e3 ab 00 00 	lea    0xabe3(%rip),%rdx        # 23560 <g_2474+0x1036>
   1897d:	b9 28 00 00 00       	mov    $0x28,%ecx
   18982:	48 89 c7             	mov    %rax,%rdi
   18985:	48 89 d6             	mov    %rdx,%rsi
   18988:	f3 48 a5             	rep movsq %ds:(%rsi),%es:(%rdi)
   1898b:	48 c7 85 e8 e7 ff ff 	movq   $0x3,-0x1818(%rbp)
   18992:	03 00 00 00 
   18996:	c6 85 81 e6 ff ff 58 	movb   $0x58,-0x197f(%rbp)
   1899d:	8b 85 7c e6 ff ff    	mov    -0x1984(%rbp),%eax
   189a3:	0f b6 d8             	movzbl %al,%ebx
   189a6:	8b 05 b8 96 00 00    	mov    0x96b8(%rip),%eax        # 22064 <g_41+0x4>
   189ac:	44 0f bf e0          	movswl %ax,%r12d
   189b0:	8b 85 7c e6 ff ff    	mov    -0x1984(%rbp),%eax
   189b6:	0f b7 c0             	movzwl %ax,%eax
   189b9:	be 03 00 00 00       	mov    $0x3,%esi
   189be:	89 c7                	mov    %eax,%edi
   189c0:	e8 41 14 ff ff       	callq  9e06 <safe_lshift_func_uint16_t_u_u>
   189c5:	48 8b 85 98 e9 ff ff 	mov    -0x1668(%rbp),%rax
   189cc:	48 85 c0             	test   %rax,%rax
   189cf:	0f 95 c0             	setne  %al
   189d2:	0f b6 d0             	movzbl %al,%edx
   189d5:	48 8b 05 ac 96 00 00 	mov    0x96ac(%rip),%rax        # 22088 <g_49>
   189dc:	48 09 d0             	or     %rdx,%rax
   189df:	48 83 f0 01          	xor    $0x1,%rax
   189e3:	48 89 c2             	mov    %rax,%rdx
   189e6:	8b 05 b8 96 00 00    	mov    0x96b8(%rip),%eax        # 220a4 <g_88>
   189ec:	48 98                	cltq   
   189ee:	48 39 c2             	cmp    %rax,%rdx
   189f1:	0f 9e c0             	setle  %al
   189f4:	f7 d0                	not    %eax
   189f6:	89 c2                	mov    %eax,%edx
   189f8:	48 8b 85 d8 e7 ff ff 	mov    -0x1828(%rbp),%rax
   189ff:	88 10                	mov    %dl,(%rax)
   18a01:	48 8b 85 d8 e7 ff ff 	mov    -0x1828(%rbp),%rax
   18a08:	0f b6 00             	movzbl (%rax),%eax
   18a0b:	0f b6 d0             	movzbl %al,%edx
   18a0e:	0f b7 85 e0 e8 ff ff 	movzwl -0x1720(%rbp),%eax
   18a15:	0f b7 c0             	movzwl %ax,%eax
   18a18:	39 85 7c e6 ff ff    	cmp    %eax,-0x1984(%rbp)
   18a1e:	0f 95 c0             	setne  %al
   18a21:	0f b6 c0             	movzbl %al,%eax
   18a24:	89 d6                	mov    %edx,%esi
   18a26:	89 c7                	mov    %eax,%edi
   18a28:	e8 66 11 ff ff       	callq  9b93 <safe_mul_func_uint8_t_u_u>
   18a2d:	0f b6 c0             	movzbl %al,%eax
   18a30:	66 89 05 59 96 00 00 	mov    %ax,0x9659(%rip)        # 22090 <g_50>
   18a37:	0f b7 05 52 96 00 00 	movzwl 0x9652(%rip),%eax        # 22090 <g_50>
   18a3e:	98                   	cwtl   
   18a3f:	44 89 e6             	mov    %r12d,%esi
   18a42:	89 c7                	mov    %eax,%edi
   18a44:	e8 8a 09 ff ff       	callq  93d3 <safe_sub_func_int16_t_s_s>
   18a49:	0f bf d0             	movswl %ax,%edx
   18a4c:	8b 85 7c e6 ff ff    	mov    -0x1984(%rbp),%eax
   18a52:	89 c1                	mov    %eax,%ecx
   18a54:	48 8b 85 d0 e7 ff ff 	mov    -0x1830(%rbp),%rax
   18a5b:	66 89 08             	mov    %cx,(%rax)
   18a5e:	48 8b 85 d0 e7 ff ff 	mov    -0x1830(%rbp),%rax
   18a65:	0f b7 00             	movzwl (%rax),%eax
   18a68:	0f b7 c0             	movzwl %ax,%eax
   18a6b:	89 d6                	mov    %edx,%esi
   18a6d:	89 c7                	mov    %eax,%edi
   18a6f:	e8 06 14 ff ff       	callq  9e7a <safe_rshift_func_uint16_t_u_u>
   18a74:	0f b6 c0             	movzbl %al,%eax
   18a77:	89 de                	mov    %ebx,%esi
   18a79:	89 c7                	mov    %eax,%edi
   18a7b:	e8 da 10 ff ff       	callq  9b5a <safe_add_func_uint8_t_u_u>
   18a80:	84 c0                	test   %al,%al
   18a82:	74 0b                	je     18a8f <func_92+0x306>
   18a84:	8b 85 7c e6 ff ff    	mov    -0x1984(%rbp),%eax
   18a8a:	e9 18 42 00 00       	jmpq   1cca7 <func_92+0x451e>
   18a8f:	66 c7 85 8a e6 ff ff 	movw   $0x1,-0x1976(%rbp)
   18a96:	01 00 
   18a98:	c7 85 a0 e6 ff ff 00 	movl   $0x0,-0x1960(%rbp)
   18a9f:	00 00 00 
   18aa2:	c6 85 85 e6 ff ff 01 	movb   $0x1,-0x197b(%rbp)
   18aa9:	48 8d 05 20 96 00 00 	lea    0x9620(%rip),%rax        # 220d0 <g_164>
   18ab0:	48 89 85 f0 e7 ff ff 	mov    %rax,-0x1810(%rbp)
   18ab7:	c6 85 82 e6 ff ff ff 	movb   $0xff,-0x197e(%rbp)
   18abe:	48 b8 c0 4b 5a 64 11 	movabs $0x98d92e11645a4bc0,%rax
   18ac5:	2e d9 98 
   18ac8:	48 89 85 f8 e7 ff ff 	mov    %rax,-0x1808(%rbp)
   18acf:	c6 05 de 95 00 00 e4 	movb   $0xe4,0x95de(%rip)        # 220b4 <g_127>
   18ad6:	e9 6d 26 00 00       	jmpq   1b148 <func_92+0x29bf>
   18adb:	48 8d 85 e0 e8 ff ff 	lea    -0x1720(%rbp),%rax
   18ae2:	48 83 c0 0c          	add    $0xc,%rax
   18ae6:	48 89 85 f0 e6 ff ff 	mov    %rax,-0x1910(%rbp)
   18aed:	c6 85 83 e6 ff ff e8 	movb   $0xe8,-0x197d(%rbp)
   18af4:	48 8d 85 50 f2 ff ff 	lea    -0xdb0(%rbp),%rax
   18afb:	48 8d 15 be 63 00 00 	lea    0x63be(%rip),%rdx        # 1eec0 <g_431+0xe42>
   18b02:	b9 6c 00 00 00       	mov    $0x6c,%ecx
   18b07:	48 89 c7             	mov    %rax,%rdi
   18b0a:	48 89 d6             	mov    %rdx,%rsi
   18b0d:	f3 48 a5             	rep movsq %ds:(%rsi),%es:(%rdi)
   18b10:	c7 85 a4 e6 ff ff 00 	movl   $0x0,-0x195c(%rbp)
   18b17:	00 00 00 
   18b1a:	48 8d 85 00 ef ff ff 	lea    -0x1100(%rbp),%rax
   18b21:	48 8d 15 78 ab 00 00 	lea    0xab78(%rip),%rdx        # 236a0 <g_2474+0x1176>
   18b28:	b9 32 00 00 00       	mov    $0x32,%ecx
   18b2d:	48 89 c7             	mov    %rax,%rdi
   18b30:	48 89 d6             	mov    %rdx,%rsi
   18b33:	f3 48 a5             	rep movsq %ds:(%rsi),%es:(%rdi)
   18b36:	48 8d 85 00 ef ff ff 	lea    -0x1100(%rbp),%rax
   18b3d:	48 05 88 01 00 00    	add    $0x188,%rax
   18b43:	48 89 85 00 e8 ff ff 	mov    %rax,-0x1800(%rbp)
   18b4a:	66 c7 85 88 e6 ff ff 	movw   $0x1,-0x1978(%rbp)
   18b51:	01 00 
   18b53:	48 8d 05 ea 94 00 00 	lea    0x94ea(%rip),%rax        # 22044 <g_39>
   18b5a:	48 89 85 f8 e6 ff ff 	mov    %rax,-0x1908(%rbp)
   18b61:	48 c7 85 90 f0 ff ff 	movq   $0x0,-0xf70(%rbp)
   18b68:	00 00 00 00 
   18b6c:	48 8d 85 f8 e6 ff ff 	lea    -0x1908(%rbp),%rax
   18b73:	48 89 85 98 f0 ff ff 	mov    %rax,-0xf68(%rbp)
   18b7a:	48 8d 85 f8 e6 ff ff 	lea    -0x1908(%rbp),%rax
   18b81:	48 89 85 a0 f0 ff ff 	mov    %rax,-0xf60(%rbp)
   18b88:	48 8d 85 f8 e6 ff ff 	lea    -0x1908(%rbp),%rax
   18b8f:	48 89 85 a8 f0 ff ff 	mov    %rax,-0xf58(%rbp)
   18b96:	48 c7 85 b0 f0 ff ff 	movq   $0x0,-0xf50(%rbp)
   18b9d:	00 00 00 00 
   18ba1:	48 8d 85 f8 e6 ff ff 	lea    -0x1908(%rbp),%rax
   18ba8:	48 89 85 b8 f0 ff ff 	mov    %rax,-0xf48(%rbp)
   18baf:	48 8d 85 f8 e6 ff ff 	lea    -0x1908(%rbp),%rax
   18bb6:	48 89 85 c0 f0 ff ff 	mov    %rax,-0xf40(%rbp)
   18bbd:	48 8d 85 f8 e6 ff ff 	lea    -0x1908(%rbp),%rax
   18bc4:	48 89 85 c8 f0 ff ff 	mov    %rax,-0xf38(%rbp)
   18bcb:	48 8d 85 f8 e6 ff ff 	lea    -0x1908(%rbp),%rax
   18bd2:	48 89 85 d0 f0 ff ff 	mov    %rax,-0xf30(%rbp)
   18bd9:	48 c7 85 d8 f0 ff ff 	movq   $0x0,-0xf28(%rbp)
   18be0:	00 00 00 00 
   18be4:	48 8d 85 f8 e6 ff ff 	lea    -0x1908(%rbp),%rax
   18beb:	48 89 85 e0 f0 ff ff 	mov    %rax,-0xf20(%rbp)
   18bf2:	48 8d 85 f8 e6 ff ff 	lea    -0x1908(%rbp),%rax
   18bf9:	48 89 85 e8 f0 ff ff 	mov    %rax,-0xf18(%rbp)
   18c00:	48 c7 85 f0 f0 ff ff 	movq   $0x0,-0xf10(%rbp)
   18c07:	00 00 00 00 
   18c0b:	48 8d 85 f8 e6 ff ff 	lea    -0x1908(%rbp),%rax
   18c12:	48 89 85 f8 f0 ff ff 	mov    %rax,-0xf08(%rbp)
   18c19:	48 c7 85 00 f1 ff ff 	movq   $0x0,-0xf00(%rbp)
   18c20:	00 00 00 00 
   18c24:	48 8d 85 f8 e6 ff ff 	lea    -0x1908(%rbp),%rax
   18c2b:	48 89 85 08 f1 ff ff 	mov    %rax,-0xef8(%rbp)
   18c32:	48 8d 85 f8 e6 ff ff 	lea    -0x1908(%rbp),%rax
   18c39:	48 89 85 10 f1 ff ff 	mov    %rax,-0xef0(%rbp)
   18c40:	48 c7 85 18 f1 ff ff 	movq   $0x0,-0xee8(%rbp)
   18c47:	00 00 00 00 
   18c4b:	48 8d 85 f8 e6 ff ff 	lea    -0x1908(%rbp),%rax
   18c52:	48 89 85 20 f1 ff ff 	mov    %rax,-0xee0(%rbp)
   18c59:	48 c7 85 28 f1 ff ff 	movq   $0x0,-0xed8(%rbp)
   18c60:	00 00 00 00 
   18c64:	48 8d 85 f8 e6 ff ff 	lea    -0x1908(%rbp),%rax
   18c6b:	48 89 85 30 f1 ff ff 	mov    %rax,-0xed0(%rbp)
   18c72:	48 8d 85 f8 e6 ff ff 	lea    -0x1908(%rbp),%rax
   18c79:	48 89 85 38 f1 ff ff 	mov    %rax,-0xec8(%rbp)
   18c80:	48 8d 85 f8 e6 ff ff 	lea    -0x1908(%rbp),%rax
   18c87:	48 89 85 40 f1 ff ff 	mov    %rax,-0xec0(%rbp)
   18c8e:	48 8d 85 f8 e6 ff ff 	lea    -0x1908(%rbp),%rax
   18c95:	48 89 85 48 f1 ff ff 	mov    %rax,-0xeb8(%rbp)
   18c9c:	48 c7 85 50 f1 ff ff 	movq   $0x0,-0xeb0(%rbp)
   18ca3:	00 00 00 00 
   18ca7:	48 c7 85 58 f1 ff ff 	movq   $0x0,-0xea8(%rbp)
   18cae:	00 00 00 00 
   18cb2:	48 8d 85 f8 e6 ff ff 	lea    -0x1908(%rbp),%rax
   18cb9:	48 89 85 60 f1 ff ff 	mov    %rax,-0xea0(%rbp)
   18cc0:	48 8d 85 f8 e6 ff ff 	lea    -0x1908(%rbp),%rax
   18cc7:	48 89 85 68 f1 ff ff 	mov    %rax,-0xe98(%rbp)
   18cce:	48 8d 85 f8 e6 ff ff 	lea    -0x1908(%rbp),%rax
   18cd5:	48 89 85 70 f1 ff ff 	mov    %rax,-0xe90(%rbp)
   18cdc:	48 c7 85 78 f1 ff ff 	movq   $0x0,-0xe88(%rbp)
   18ce3:	00 00 00 00 
   18ce7:	48 8d 85 f8 e6 ff ff 	lea    -0x1908(%rbp),%rax
   18cee:	48 89 85 80 f1 ff ff 	mov    %rax,-0xe80(%rbp)
   18cf5:	48 8d 85 f8 e6 ff ff 	lea    -0x1908(%rbp),%rax
   18cfc:	48 89 85 88 f1 ff ff 	mov    %rax,-0xe78(%rbp)
   18d03:	48 8d 85 f8 e6 ff ff 	lea    -0x1908(%rbp),%rax
   18d0a:	48 89 85 90 f1 ff ff 	mov    %rax,-0xe70(%rbp)
   18d11:	48 8d 85 f8 e6 ff ff 	lea    -0x1908(%rbp),%rax
   18d18:	48 89 85 98 f1 ff ff 	mov    %rax,-0xe68(%rbp)
   18d1f:	48 c7 85 a0 f1 ff ff 	movq   $0x0,-0xe60(%rbp)
   18d26:	00 00 00 00 
   18d2a:	48 8d 85 f8 e6 ff ff 	lea    -0x1908(%rbp),%rax
   18d31:	48 89 85 a8 f1 ff ff 	mov    %rax,-0xe58(%rbp)
   18d38:	48 8d 85 f8 e6 ff ff 	lea    -0x1908(%rbp),%rax
   18d3f:	48 89 85 b0 f1 ff ff 	mov    %rax,-0xe50(%rbp)
   18d46:	48 c7 85 b8 f1 ff ff 	movq   $0x0,-0xe48(%rbp)
   18d4d:	00 00 00 00 
   18d51:	48 8d 85 f8 e6 ff ff 	lea    -0x1908(%rbp),%rax
   18d58:	48 89 85 c0 f1 ff ff 	mov    %rax,-0xe40(%rbp)
   18d5f:	48 c7 85 c8 f1 ff ff 	movq   $0x0,-0xe38(%rbp)
   18d66:	00 00 00 00 
   18d6a:	48 8d 85 f8 e6 ff ff 	lea    -0x1908(%rbp),%rax
   18d71:	48 89 85 d0 f1 ff ff 	mov    %rax,-0xe30(%rbp)
   18d78:	48 8d 85 f8 e6 ff ff 	lea    -0x1908(%rbp),%rax
   18d7f:	48 89 85 d8 f1 ff ff 	mov    %rax,-0xe28(%rbp)
   18d86:	48 c7 85 e0 f1 ff ff 	movq   $0x0,-0xe20(%rbp)
   18d8d:	00 00 00 00 
   18d91:	48 8d 85 f8 e6 ff ff 	lea    -0x1908(%rbp),%rax
   18d98:	48 89 85 e8 f1 ff ff 	mov    %rax,-0xe18(%rbp)
   18d9f:	48 c7 85 f0 f1 ff ff 	movq   $0x0,-0xe10(%rbp)
   18da6:	00 00 00 00 
   18daa:	48 8d 85 f8 e6 ff ff 	lea    -0x1908(%rbp),%rax
   18db1:	48 89 85 f8 f1 ff ff 	mov    %rax,-0xe08(%rbp)
   18db8:	48 8d 85 f8 e6 ff ff 	lea    -0x1908(%rbp),%rax
   18dbf:	48 89 85 00 f2 ff ff 	mov    %rax,-0xe00(%rbp)
   18dc6:	48 8d 85 f8 e6 ff ff 	lea    -0x1908(%rbp),%rax
   18dcd:	48 89 85 08 f2 ff ff 	mov    %rax,-0xdf8(%rbp)
   18dd4:	48 8d 85 f8 e6 ff ff 	lea    -0x1908(%rbp),%rax
   18ddb:	48 89 85 10 f2 ff ff 	mov    %rax,-0xdf0(%rbp)
   18de2:	48 c7 85 18 f2 ff ff 	movq   $0x0,-0xde8(%rbp)
   18de9:	00 00 00 00 
   18ded:	48 c7 85 08 e8 ff ff 	movq   $0x0,-0x17f8(%rbp)
   18df4:	00 00 00 00 
   18df8:	48 8d 05 d1 92 00 00 	lea    0x92d1(%rip),%rax        # 220d0 <g_164>
   18dff:	48 89 85 00 e7 ff ff 	mov    %rax,-0x1900(%rbp)
   18e06:	48 8d 85 00 e7 ff ff 	lea    -0x1900(%rbp),%rax
   18e0d:	48 89 85 c0 e9 ff ff 	mov    %rax,-0x1640(%rbp)
   18e14:	48 8d 85 00 e7 ff ff 	lea    -0x1900(%rbp),%rax
   18e1b:	48 89 85 c8 e9 ff ff 	mov    %rax,-0x1638(%rbp)
   18e22:	48 8d 85 00 e7 ff ff 	lea    -0x1900(%rbp),%rax
   18e29:	48 89 85 d0 e9 ff ff 	mov    %rax,-0x1630(%rbp)
   18e30:	48 8d 85 00 e7 ff ff 	lea    -0x1900(%rbp),%rax
   18e37:	48 89 85 d8 e9 ff ff 	mov    %rax,-0x1628(%rbp)
   18e3e:	48 8d 85 00 e7 ff ff 	lea    -0x1900(%rbp),%rax
   18e45:	48 89 85 e0 e9 ff ff 	mov    %rax,-0x1620(%rbp)
   18e4c:	48 8d 85 00 e7 ff ff 	lea    -0x1900(%rbp),%rax
   18e53:	48 89 85 e8 e9 ff ff 	mov    %rax,-0x1618(%rbp)
   18e5a:	48 8d 85 00 e7 ff ff 	lea    -0x1900(%rbp),%rax
   18e61:	48 89 85 f0 e9 ff ff 	mov    %rax,-0x1610(%rbp)
   18e68:	48 8d 85 00 e7 ff ff 	lea    -0x1900(%rbp),%rax
   18e6f:	48 89 85 f8 e9 ff ff 	mov    %rax,-0x1608(%rbp)
   18e76:	48 8d 05 73 92 00 00 	lea    0x9273(%rip),%rax        # 220f0 <g_247>
   18e7d:	48 89 85 00 e9 ff ff 	mov    %rax,-0x1700(%rbp)
   18e84:	48 8d 05 65 92 00 00 	lea    0x9265(%rip),%rax        # 220f0 <g_247>
   18e8b:	48 89 85 08 e9 ff ff 	mov    %rax,-0x16f8(%rbp)
   18e92:	48 8d 05 57 92 00 00 	lea    0x9257(%rip),%rax        # 220f0 <g_247>
   18e99:	48 89 85 10 e9 ff ff 	mov    %rax,-0x16f0(%rbp)
   18ea0:	48 8d 05 49 92 00 00 	lea    0x9249(%rip),%rax        # 220f0 <g_247>
   18ea7:	48 89 85 18 e9 ff ff 	mov    %rax,-0x16e8(%rbp)
   18eae:	c6 85 84 e6 ff ff 45 	movb   $0x45,-0x197c(%rbp)
   18eb5:	48 8d 85 f0 e6 ff ff 	lea    -0x1910(%rbp),%rax
   18ebc:	48 89 85 08 e7 ff ff 	mov    %rax,-0x18f8(%rbp)
   18ec3:	48 8d 85 08 e7 ff ff 	lea    -0x18f8(%rbp),%rax
   18eca:	48 89 85 10 e8 ff ff 	mov    %rax,-0x17f0(%rbp)
   18ed1:	48 8d 05 a6 51 00 00 	lea    0x51a6(%rip),%rax        # 1e07e <g_431>
   18ed8:	48 89 85 18 e8 ff ff 	mov    %rax,-0x17e8(%rbp)
   18edf:	c7 85 a8 e6 ff ff 00 	movl   $0x0,-0x1958(%rbp)
   18ee6:	00 00 00 
   18ee9:	eb 1a                	jmp    18f05 <func_92+0x77c>
   18eeb:	8b 85 a8 e6 ff ff    	mov    -0x1958(%rbp),%eax
   18ef1:	48 98                	cltq   
   18ef3:	c7 84 85 20 e9 ff ff 	movl   $0xfffffffb,-0x16e0(%rbp,%rax,4)
   18efa:	fb ff ff ff 
   18efe:	83 85 a8 e6 ff ff 01 	addl   $0x1,-0x1958(%rbp)
   18f05:	83 bd a8 e6 ff ff 09 	cmpl   $0x9,-0x1958(%rbp)
   18f0c:	7e dd                	jle    18eeb <func_92+0x762>
   18f0e:	c7 85 a8 e6 ff ff 00 	movl   $0x0,-0x1958(%rbp)
   18f15:	00 00 00 
   18f18:	eb 1a                	jmp    18f34 <func_92+0x7ab>
   18f1a:	8b 85 a8 e6 ff ff    	mov    -0x1958(%rbp),%eax
   18f20:	48 98                	cltq   
   18f22:	c7 84 85 50 e9 ff ff 	movl   $0x0,-0x16b0(%rbp,%rax,4)
   18f29:	00 00 00 00 
   18f2d:	83 85 a8 e6 ff ff 01 	addl   $0x1,-0x1958(%rbp)
   18f34:	83 bd a8 e6 ff ff 09 	cmpl   $0x9,-0x1958(%rbp)
   18f3b:	7e dd                	jle    18f1a <func_92+0x791>
   18f3d:	8b 85 7c e6 ff ff    	mov    -0x1984(%rbp),%eax
   18f43:	0f b6 d0             	movzbl %al,%edx
   18f46:	8b 85 7c e6 ff ff    	mov    -0x1984(%rbp),%eax
   18f4c:	0f b6 c0             	movzbl %al,%eax
   18f4f:	89 d6                	mov    %edx,%esi
   18f51:	89 c7                	mov    %eax,%edi
   18f53:	e8 02 0c ff ff       	callq  9b5a <safe_add_func_uint8_t_u_u>
   18f58:	48 8d 85 e0 e8 ff ff 	lea    -0x1720(%rbp),%rax
   18f5f:	48 89 85 20 e8 ff ff 	mov    %rax,-0x17e0(%rbp)
   18f66:	48 8d 05 d7 90 00 00 	lea    0x90d7(%rip),%rax        # 22044 <g_39>
   18f6d:	48 89 85 28 e8 ff ff 	mov    %rax,-0x17d8(%rbp)
   18f74:	48 8d 85 d8 e6 ff ff 	lea    -0x1928(%rbp),%rax
   18f7b:	48 89 85 40 f8 ff ff 	mov    %rax,-0x7c0(%rbp)
   18f82:	48 8d 85 d8 e6 ff ff 	lea    -0x1928(%rbp),%rax
   18f89:	48 89 85 48 f8 ff ff 	mov    %rax,-0x7b8(%rbp)
   18f90:	48 8d 85 d8 e6 ff ff 	lea    -0x1928(%rbp),%rax
   18f97:	48 89 85 50 f8 ff ff 	mov    %rax,-0x7b0(%rbp)
   18f9e:	48 8d 85 d8 e6 ff ff 	lea    -0x1928(%rbp),%rax
   18fa5:	48 89 85 58 f8 ff ff 	mov    %rax,-0x7a8(%rbp)
   18fac:	48 8d 85 d8 e6 ff ff 	lea    -0x1928(%rbp),%rax
   18fb3:	48 89 85 60 f8 ff ff 	mov    %rax,-0x7a0(%rbp)
   18fba:	48 8d 85 d8 e6 ff ff 	lea    -0x1928(%rbp),%rax
   18fc1:	48 89 85 68 f8 ff ff 	mov    %rax,-0x798(%rbp)
   18fc8:	48 8d 85 d8 e6 ff ff 	lea    -0x1928(%rbp),%rax
   18fcf:	48 89 85 70 f8 ff ff 	mov    %rax,-0x790(%rbp)
   18fd6:	48 8d 85 d8 e6 ff ff 	lea    -0x1928(%rbp),%rax
   18fdd:	48 89 85 78 f8 ff ff 	mov    %rax,-0x788(%rbp)
   18fe4:	48 8d 85 d8 e6 ff ff 	lea    -0x1928(%rbp),%rax
   18feb:	48 89 85 80 f8 ff ff 	mov    %rax,-0x780(%rbp)
   18ff2:	48 8d 85 d8 e6 ff ff 	lea    -0x1928(%rbp),%rax
   18ff9:	48 89 85 88 f8 ff ff 	mov    %rax,-0x778(%rbp)
   19000:	48 c7 85 90 f8 ff ff 	movq   $0x0,-0x770(%rbp)
   19007:	00 00 00 00 
   1900b:	48 8d 85 d8 e6 ff ff 	lea    -0x1928(%rbp),%rax
   19012:	48 89 85 98 f8 ff ff 	mov    %rax,-0x768(%rbp)
   19019:	48 8d 85 d8 e6 ff ff 	lea    -0x1928(%rbp),%rax
   19020:	48 89 85 a0 f8 ff ff 	mov    %rax,-0x760(%rbp)
   19027:	48 8d 85 d8 e6 ff ff 	lea    -0x1928(%rbp),%rax
   1902e:	48 89 85 a8 f8 ff ff 	mov    %rax,-0x758(%rbp)
   19035:	48 8d 85 d8 e6 ff ff 	lea    -0x1928(%rbp),%rax
   1903c:	48 89 85 b0 f8 ff ff 	mov    %rax,-0x750(%rbp)
   19043:	48 c7 85 b8 f8 ff ff 	movq   $0x0,-0x748(%rbp)
   1904a:	00 00 00 00 
   1904e:	48 8d 85 a4 e6 ff ff 	lea    -0x195c(%rbp),%rax
   19055:	48 89 85 30 e8 ff ff 	mov    %rax,-0x17d0(%rbp)
   1905c:	48 8d 85 a4 e6 ff ff 	lea    -0x195c(%rbp),%rax
   19063:	48 89 85 f0 ea ff ff 	mov    %rax,-0x1510(%rbp)
   1906a:	48 8d 85 a4 e6 ff ff 	lea    -0x195c(%rbp),%rax
   19071:	48 89 85 f8 ea ff ff 	mov    %rax,-0x1508(%rbp)
   19078:	48 8d 85 a4 e6 ff ff 	lea    -0x195c(%rbp),%rax
   1907f:	48 89 85 00 eb ff ff 	mov    %rax,-0x1500(%rbp)
   19086:	48 8d 85 a4 e6 ff ff 	lea    -0x195c(%rbp),%rax
   1908d:	48 89 85 08 eb ff ff 	mov    %rax,-0x14f8(%rbp)
   19094:	48 8d 85 a4 e6 ff ff 	lea    -0x195c(%rbp),%rax
   1909b:	48 89 85 10 eb ff ff 	mov    %rax,-0x14f0(%rbp)
   190a2:	c6 85 86 e6 ff ff d8 	movb   $0xd8,-0x197a(%rbp)
   190a9:	c7 85 7c e6 ff ff 00 	movl   $0x0,-0x1984(%rbp)
   190b0:	00 00 00 
   190b3:	e9 64 04 00 00       	jmpq   1951c <func_92+0xd93>
   190b8:	c7 85 c4 e6 ff ff ff 	movl   $0xffffffff,-0x193c(%rbp)
   190bf:	ff ff ff 
   190c2:	48 8d 05 f8 8f 00 00 	lea    0x8ff8(%rip),%rax        # 220c1 <g_155+0x1>
   190c9:	48 89 85 a8 e8 ff ff 	mov    %rax,-0x1758(%rbp)
   190d0:	48 8d 85 a0 e6 ff ff 	lea    -0x1960(%rbp),%rax
   190d7:	48 89 85 b0 e8 ff ff 	mov    %rax,-0x1750(%rbp)
   190de:	48 8d 05 eb 8f 00 00 	lea    0x8feb(%rip),%rax        # 220d0 <g_164>
   190e5:	48 89 85 b8 e8 ff ff 	mov    %rax,-0x1748(%rbp)
   190ec:	48 8d 05 81 4f 00 00 	lea    0x4f81(%rip),%rax        # 1e074 <g_171+0x14>
   190f3:	48 89 85 28 e7 ff ff 	mov    %rax,-0x18d8(%rbp)
   190fa:	48 8d 85 28 e7 ff ff 	lea    -0x18d8(%rbp),%rax
   19101:	48 89 85 c0 e8 ff ff 	mov    %rax,-0x1740(%rbp)
   19108:	48 c7 85 c8 e8 ff ff 	movq   $0x0,-0x1738(%rbp)
   1910f:	00 00 00 00 
   19113:	48 8d 85 83 e6 ff ff 	lea    -0x197d(%rbp),%rax
   1911a:	48 89 85 d0 e8 ff ff 	mov    %rax,-0x1730(%rbp)
   19121:	48 8d 85 9c e6 ff ff 	lea    -0x1964(%rbp),%rax
   19128:	48 89 85 d8 e8 ff ff 	mov    %rax,-0x1728(%rbp)
   1912f:	48 8d 85 e0 e6 ff ff 	lea    -0x1920(%rbp),%rax
   19136:	48 89 85 b0 eb ff ff 	mov    %rax,-0x1450(%rbp)
   1913d:	48 8d 85 e0 e6 ff ff 	lea    -0x1920(%rbp),%rax
   19144:	48 89 85 b8 eb ff ff 	mov    %rax,-0x1448(%rbp)
   1914b:	48 8d 85 e0 e6 ff ff 	lea    -0x1920(%rbp),%rax
   19152:	48 89 85 c0 eb ff ff 	mov    %rax,-0x1440(%rbp)
   19159:	48 8d 85 e0 e6 ff ff 	lea    -0x1920(%rbp),%rax
   19160:	48 89 85 c8 eb ff ff 	mov    %rax,-0x1438(%rbp)
   19167:	48 8d 85 e0 e6 ff ff 	lea    -0x1920(%rbp),%rax
   1916e:	48 89 85 d0 eb ff ff 	mov    %rax,-0x1430(%rbp)
   19175:	48 8d 85 e0 e6 ff ff 	lea    -0x1920(%rbp),%rax
   1917c:	48 89 85 d8 eb ff ff 	mov    %rax,-0x1428(%rbp)
   19183:	48 8b 85 70 e6 ff ff 	mov    -0x1990(%rbp),%rax
   1918a:	48 8b 00             	mov    (%rax),%rax
   1918d:	8b 18                	mov    (%rax),%ebx
   1918f:	44 8b 25 ee 8e 00 00 	mov    0x8eee(%rip),%r12d        # 22084 <g_41+0x24>
   19196:	8b 85 7c e6 ff ff    	mov    -0x1984(%rbp),%eax
   1919c:	66 21 85 8a e6 ff ff 	and    %ax,-0x1976(%rbp)
   191a3:	44 0f b7 ad 8a e6 ff 	movzwl -0x1976(%rbp),%r13d
   191aa:	ff 
   191ab:	44 8b 35 8e 8e 00 00 	mov    0x8e8e(%rip),%r14d        # 22040 <g_2+0x10>
   191b2:	8b 95 9c e6 ff ff    	mov    -0x1964(%rbp),%edx
   191b8:	48 8b 85 f0 e6 ff ff 	mov    -0x1910(%rbp),%rax
   191bf:	48 89 85 20 e8 ff ff 	mov    %rax,-0x17e0(%rbp)
   191c6:	48 8d 05 e1 8e 00 00 	lea    0x8ee1(%rip),%rax        # 220ae <g_98+0x6>
   191cd:	48 39 85 20 e8 ff ff 	cmp    %rax,-0x17e0(%rbp)
   191d4:	0f 95 c0             	setne  %al
   191d7:	0f b6 c0             	movzbl %al,%eax
   191da:	89 d6                	mov    %edx,%esi
   191dc:	89 c7                	mov    %eax,%edi
   191de:	e8 22 04 ff ff       	callq  9605 <safe_sub_func_int32_t_s_s>
   191e3:	0f b6 d0             	movzbl %al,%edx
   191e6:	48 8b 05 13 b1 00 00 	mov    0xb113(%rip),%rax        # 24300 <g_147>
   191ed:	48 85 c0             	test   %rax,%rax
   191f0:	0f 95 c0             	setne  %al
   191f3:	0f b6 c0             	movzbl %al,%eax
   191f6:	89 d6                	mov    %edx,%esi
   191f8:	89 c7                	mov    %eax,%edi
   191fa:	e8 79 09 ff ff       	callq  9b78 <safe_sub_func_uint8_t_u_u>
   191ff:	0f b6 c0             	movzbl %al,%eax
   19202:	89 85 9c e6 ff ff    	mov    %eax,-0x1964(%rbp)
   19208:	8b 85 9c e6 ff ff    	mov    -0x1964(%rbp),%eax
   1920e:	41 39 c6             	cmp    %eax,%r14d
   19211:	0f 95 c0             	setne  %al
   19214:	0f b6 c0             	movzbl %al,%eax
   19217:	41 39 c5             	cmp    %eax,%r13d
   1921a:	0f 95 c0             	setne  %al
   1921d:	0f b6 c0             	movzbl %al,%eax
   19220:	be 00 00 00 00       	mov    $0x0,%esi
   19225:	89 c7                	mov    %eax,%edi
   19227:	e8 a7 01 ff ff       	callq  93d3 <safe_sub_func_int16_t_s_s>
   1922c:	98                   	cwtl   
   1922d:	41 39 c4             	cmp    %eax,%r12d
   19230:	0f 9d c0             	setge  %al
   19233:	89 c2                	mov    %eax,%edx
   19235:	48 8b 85 a8 e8 ff ff 	mov    -0x1758(%rbp),%rax
   1923c:	88 10                	mov    %dl,(%rax)
   1923e:	48 8b 85 a8 e8 ff ff 	mov    -0x1758(%rbp),%rax
   19245:	0f b6 00             	movzbl (%rax),%eax
   19248:	0f be c0             	movsbl %al,%eax
   1924b:	0b 85 7c e6 ff ff    	or     -0x1984(%rbp),%eax
   19251:	be 35 c4 94 4e       	mov    $0x4e94c435,%esi
   19256:	89 c7                	mov    %eax,%edi
   19258:	e8 c8 0c ff ff       	callq  9f25 <safe_div_func_uint32_t_u_u>
   1925d:	85 c0                	test   %eax,%eax
   1925f:	75 09                	jne    1926a <func_92+0xae1>
   19261:	83 bd 7c e6 ff ff 00 	cmpl   $0x0,-0x1984(%rbp)
   19268:	74 07                	je     19271 <func_92+0xae8>
   1926a:	b8 01 00 00 00       	mov    $0x1,%eax
   1926f:	eb 05                	jmp    19276 <func_92+0xaed>
   19271:	b8 00 00 00 00       	mov    $0x0,%eax
   19276:	89 de                	mov    %ebx,%esi
   19278:	89 c7                	mov    %eax,%edi
   1927a:	e8 86 03 ff ff       	callq  9605 <safe_sub_func_int32_t_s_s>
   1927f:	89 85 a0 e6 ff ff    	mov    %eax,-0x1960(%rbp)
   19285:	48 8b 85 b0 e8 ff ff 	mov    -0x1750(%rbp),%rax
   1928c:	c7 00 02 00 00 00    	movl   $0x2,(%rax)
   19292:	8b 85 7c e6 ff ff    	mov    -0x1984(%rbp),%eax
   19298:	0f bf d8             	movswl %ax,%ebx
   1929b:	0f b7 05 06 8e 00 00 	movzwl 0x8e06(%rip),%eax        # 220a8 <g_98>
   192a2:	0f b7 c0             	movzwl %ax,%eax
   192a5:	48 89 85 68 e6 ff ff 	mov    %rax,-0x1998(%rbp)
   192ac:	8b 05 b2 8d 00 00    	mov    0x8db2(%rip),%eax        # 22064 <g_41+0x4>
   192b2:	48 63 d0             	movslq %eax,%rdx
   192b5:	48 8b 85 b8 e8 ff ff 	mov    -0x1748(%rbp),%rax
   192bc:	48 89 10             	mov    %rdx,(%rax)
   192bf:	48 8b 85 b8 e8 ff ff 	mov    -0x1748(%rbp),%rax
   192c6:	48 8b 00             	mov    (%rax),%rax
   192c9:	48 89 85 60 e6 ff ff 	mov    %rax,-0x19a0(%rbp)
   192d0:	0f b7 05 d5 8d 00 00 	movzwl 0x8dd5(%rip),%eax        # 220ac <g_98+0x4>
   192d7:	44 0f b7 e0          	movzwl %ax,%r12d
   192db:	48 8b 85 c8 e6 ff ff 	mov    -0x1938(%rbp),%rax
   192e2:	48 85 c0             	test   %rax,%rax
   192e5:	0f 95 c0             	setne  %al
   192e8:	0f b6 c0             	movzbl %al,%eax
   192eb:	89 85 78 e6 ff ff    	mov    %eax,-0x1988(%rbp)
   192f1:	8b 85 7c e6 ff ff    	mov    -0x1984(%rbp),%eax
   192f7:	44 0f be e8          	movsbl %al,%r13d
   192fb:	0f b7 85 8a e6 ff ff 	movzwl -0x1976(%rbp),%eax
   19302:	44 0f be f0          	movsbl %al,%r14d
   19306:	0f b6 05 b4 8d 00 00 	movzbl 0x8db4(%rip),%eax        # 220c1 <g_155+0x1>
   1930d:	4c 0f be f8          	movsbq %al,%r15
   19311:	0f b7 05 92 8d 00 00 	movzwl 0x8d92(%rip),%eax        # 220aa <g_98+0x2>
   19318:	0f b6 c0             	movzbl %al,%eax
   1931b:	89 85 5c e6 ff ff    	mov    %eax,-0x19a4(%rbp)
   19321:	8b 85 7c e6 ff ff    	mov    -0x1984(%rbp),%eax
   19327:	0f b7 c0             	movzwl %ax,%eax
   1932a:	89 c6                	mov    %eax,%esi
   1932c:	bf 00 00 00 00       	mov    $0x0,%edi
   19331:	e8 c9 09 ff ff       	callq  9cff <safe_add_func_uint16_t_u_u>
   19336:	48 8b 85 d0 e8 ff ff 	mov    -0x1730(%rbp),%rax
   1933d:	c6 00 01             	movb   $0x1,(%rax)
   19340:	48 8b 85 d0 e8 ff ff 	mov    -0x1730(%rbp),%rax
   19347:	0f b6 00             	movzbl (%rax),%eax
   1934a:	0f b6 c0             	movzbl %al,%eax
   1934d:	ba 00 00 00 00       	mov    $0x0,%edx
   19352:	39 d0                	cmp    %edx,%eax
   19354:	7d 09                	jge    1935f <func_92+0xbd6>
   19356:	83 bd 7c e6 ff ff 00 	cmpl   $0x0,-0x1984(%rbp)
   1935d:	74 07                	je     19366 <func_92+0xbdd>
   1935f:	b8 01 00 00 00       	mov    $0x1,%eax
   19364:	eb 05                	jmp    1936b <func_92+0xbe2>
   19366:	b8 00 00 00 00       	mov    $0x0,%eax
   1936b:	89 85 1c f5 ff ff    	mov    %eax,-0xae4(%rbp)
   19371:	8b 85 1c f5 ff ff    	mov    -0xae4(%rbp),%eax
   19377:	0f b6 c0             	movzbl %al,%eax
   1937a:	8b b5 5c e6 ff ff    	mov    -0x19a4(%rbp),%esi
   19380:	89 c7                	mov    %eax,%edi
   19382:	e8 27 08 ff ff       	callq  9bae <safe_mod_func_uint8_t_u_u>
   19387:	0f b7 85 e0 e8 ff ff 	movzwl -0x1720(%rbp),%eax
   1938e:	0f b7 c0             	movzwl %ax,%eax
   19391:	4c 89 fe             	mov    %r15,%rsi
   19394:	48 89 c7             	mov    %rax,%rdi
   19397:	e8 92 0c ff ff       	callq  a02e <safe_add_func_uint64_t_u_u>
   1939c:	98                   	cwtl   
   1939d:	be 02 00 00 00       	mov    $0x2,%esi
   193a2:	89 c7                	mov    %eax,%edi
   193a4:	e8 2a 00 ff ff       	callq  93d3 <safe_sub_func_int16_t_s_s>
   193a9:	89 c2                	mov    %eax,%edx
   193ab:	48 8b 85 a8 e8 ff ff 	mov    -0x1758(%rbp),%rax
   193b2:	88 10                	mov    %dl,(%rax)
   193b4:	48 8b 85 a8 e8 ff ff 	mov    -0x1758(%rbp),%rax
   193bb:	0f b6 00             	movzbl (%rax),%eax
   193be:	0f be c0             	movsbl %al,%eax
   193c1:	44 89 f6             	mov    %r14d,%esi
   193c4:	89 c7                	mov    %eax,%edi
   193c6:	e8 47 fe fe ff       	callq  9212 <safe_mul_func_int8_t_s_s>
   193cb:	0f be d0             	movsbl %al,%edx
   193ce:	48 8b 85 70 e6 ff ff 	mov    -0x1990(%rbp),%rax
   193d5:	48 8b 00             	mov    (%rax),%rax
   193d8:	8b 00                	mov    (%rax),%eax
   193da:	39 c2                	cmp    %eax,%edx
   193dc:	0f 95 c0             	setne  %al
   193df:	0f b6 c0             	movzbl %al,%eax
   193e2:	be 00 00 00 00       	mov    $0x0,%esi
   193e7:	89 c7                	mov    %eax,%edi
   193e9:	e8 e5 ff fe ff       	callq  93d3 <safe_sub_func_int16_t_s_s>
   193ee:	0f be c0             	movsbl %al,%eax
   193f1:	44 89 ee             	mov    %r13d,%esi
   193f4:	89 c7                	mov    %eax,%edi
   193f6:	e8 6f fe fe ff       	callq  926a <safe_div_func_int8_t_s_s>
   193fb:	0f be c0             	movsbl %al,%eax
   193fe:	39 85 78 e6 ff ff    	cmp    %eax,-0x1988(%rbp)
   19404:	0f 9e c0             	setle  %al
   19407:	0f b6 c0             	movzbl %al,%eax
   1940a:	44 89 e6             	mov    %r12d,%esi
   1940d:	89 c7                	mov    %eax,%edi
   1940f:	e8 f1 01 ff ff       	callq  9605 <safe_sub_func_int32_t_s_s>
   19414:	0f b7 c0             	movzwl %ax,%eax
   19417:	be fc 23 00 00       	mov    $0x23fc,%esi
   1941c:	89 c7                	mov    %eax,%edi
   1941e:	e8 fc 08 ff ff       	callq  9d1f <safe_sub_func_uint16_t_u_u>
   19423:	48 8b 85 70 e6 ff ff 	mov    -0x1990(%rbp),%rax
   1942a:	48 8b 10             	mov    (%rax),%rdx
   1942d:	48 8b 85 c0 e8 ff ff 	mov    -0x1740(%rbp),%rax
   19434:	48 89 10             	mov    %rdx,(%rax)
   19437:	48 8b 85 c0 e8 ff ff 	mov    -0x1740(%rbp),%rax
   1943e:	48 8b 00             	mov    (%rax),%rax
   19441:	48 85 c0             	test   %rax,%rax
   19444:	0f 95 c0             	setne  %al
   19447:	0f b6 c0             	movzbl %al,%eax
   1944a:	48 be ed 61 3e bb 6c 	movabs $0x972a186cbb3e61ed,%rsi
   19451:	18 2a 97 
   19454:	48 89 c7             	mov    %rax,%rdi
   19457:	e8 9b 05 ff ff       	callq  99f7 <safe_div_func_int64_t_s_s>
   1945c:	48 85 c0             	test   %rax,%rax
   1945f:	74 07                	je     19468 <func_92+0xcdf>
   19461:	83 bd 7c e6 ff ff 00 	cmpl   $0x0,-0x1984(%rbp)
   19468:	8b 85 c8 ed ff ff    	mov    -0x1238(%rbp),%eax
   1946e:	8b 95 a0 e6 ff ff    	mov    -0x1960(%rbp),%edx
   19474:	39 d0                	cmp    %edx,%eax
   19476:	0f 93 c0             	setae  %al
   19479:	0f b6 d0             	movzbl %al,%edx
   1947c:	8b 05 22 8c 00 00    	mov    0x8c22(%rip),%eax        # 220a4 <g_88>
   19482:	31 d0                	xor    %edx,%eax
   19484:	48 98                	cltq   
   19486:	48 89 c6             	mov    %rax,%rsi
   19489:	bf 09 00 00 00       	mov    $0x9,%edi
   1948e:	e8 ed 0b ff ff       	callq  a080 <safe_mod_func_uint64_t_u_u>
   19493:	48 23 85 60 e6 ff ff 	and    -0x19a0(%rbp),%rax
   1949a:	48 39 85 68 e6 ff ff 	cmp    %rax,-0x1998(%rbp)
   194a1:	0f 97 c0             	seta   %al
   194a4:	0f b6 c0             	movzbl %al,%eax
   194a7:	be 00 00 00 00       	mov    $0x0,%esi
   194ac:	89 c7                	mov    %eax,%edi
   194ae:	e8 3f fd fe ff       	callq  91f2 <safe_sub_func_int8_t_s_s>
   194b3:	0f be c0             	movsbl %al,%eax
   194b6:	89 de                	mov    %ebx,%esi
   194b8:	89 c7                	mov    %eax,%edi
   194ba:	e8 36 ff fe ff       	callq  93f5 <safe_mul_func_int16_t_s_s>
   194bf:	48 8b 05 4a ae 00 00 	mov    0xae4a(%rip),%rax        # 24310 <g_197>
   194c6:	48 8b 85 70 e6 ff ff 	mov    -0x1990(%rbp),%rax
   194cd:	48 8b 00             	mov    (%rax),%rax
   194d0:	8b 10                	mov    (%rax),%edx
   194d2:	48 8b 85 d8 e8 ff ff 	mov    -0x1728(%rbp),%rax
   194d9:	8b 00                	mov    (%rax),%eax
   194db:	31 c2                	xor    %eax,%edx
   194dd:	48 8b 85 d8 e8 ff ff 	mov    -0x1728(%rbp),%rax
   194e4:	89 10                	mov    %edx,(%rax)
   194e6:	48 8b 85 d8 e8 ff ff 	mov    -0x1728(%rbp),%rax
   194ed:	8b 10                	mov    (%rax),%edx
   194ef:	48 8b 85 b0 e8 ff ff 	mov    -0x1750(%rbp),%rax
   194f6:	89 10                	mov    %edx,(%rax)
   194f8:	48 8b 85 b0 e8 ff ff 	mov    -0x1750(%rbp),%rax
   194ff:	8b 00                	mov    (%rax),%eax
   19501:	89 85 a4 e6 ff ff    	mov    %eax,-0x195c(%rbp)
   19507:	48 8b 85 e0 e6 ff ff 	mov    -0x1920(%rbp),%rax
   1950e:	48 89 85 98 f8 ff ff 	mov    %rax,-0x768(%rbp)
   19515:	83 85 7c e6 ff ff 01 	addl   $0x1,-0x1984(%rbp)
   1951c:	83 bd 7c e6 ff ff 3a 	cmpl   $0x3a,-0x1984(%rbp)
   19523:	0f 85 8f fb ff ff    	jne    190b8 <func_92+0x92f>
   19529:	8b 05 b9 8b 00 00    	mov    0x8bb9(%rip),%eax        # 220e8 <g_211+0x8>
   1952f:	83 e8 01             	sub    $0x1,%eax
   19532:	89 05 b0 8b 00 00    	mov    %eax,0x8bb0(%rip)        # 220e8 <g_211+0x8>
   19538:	48 8b 05 e1 ad 00 00 	mov    0xade1(%rip),%rax        # 24320 <g_214>
   1953f:	48 8d 15 32 4b 00 00 	lea    0x4b32(%rip),%rdx        # 1e078 <g_171+0x18>
   19546:	48 89 10             	mov    %rdx,(%rax)
   19549:	48 8b 05 c8 ad 00 00 	mov    0xadc8(%rip),%rax        # 24318 <g_215>
   19550:	8b 00                	mov    (%rax),%eax
   19552:	85 c0                	test   %eax,%eax
   19554:	0f 84 eb 00 00 00    	je     19645 <func_92+0xebc>
   1955a:	48 b8 0e 49 2c fd d9 	movabs $0x3d0c7cd9fd2c490e,%rax
   19561:	7c 0c 3d 
   19564:	48 89 85 40 e8 ff ff 	mov    %rax,-0x17c0(%rbp)
   1956b:	48 8d 05 28 8b 00 00 	lea    0x8b28(%rip),%rax        # 2209a <g_63+0x2>
   19572:	48 89 85 48 e8 ff ff 	mov    %rax,-0x17b8(%rbp)
   19579:	66 0f be 85 85 e6 ff 	movsbw -0x197b(%rbp),%ax
   19580:	ff 
   19581:	0f b7 c0             	movzwl %ax,%eax
   19584:	89 c6                	mov    %eax,%esi
   19586:	bf fc ff 00 00       	mov    $0xfffc,%edi
   1958b:	e8 ad 07 ff ff       	callq  9d3d <safe_mul_func_uint16_t_u_u>
   19590:	0f b7 c0             	movzwl %ax,%eax
   19593:	89 85 94 f4 ff ff    	mov    %eax,-0xb6c(%rbp)
   19599:	8b 9d 94 f4 ff ff    	mov    -0xb6c(%rbp),%ebx
   1959f:	83 bd 7c e6 ff ff 00 	cmpl   $0x0,-0x1984(%rbp)
   195a6:	41 0f 94 c5          	sete   %r13b
   195aa:	8b 85 a4 e6 ff ff    	mov    -0x195c(%rbp),%eax
   195b0:	4c 63 e0             	movslq %eax,%r12
   195b3:	8b 85 a0 e6 ff ff    	mov    -0x1960(%rbp),%eax
   195b9:	48 98                	cltq   
   195bb:	48 89 c6             	mov    %rax,%rsi
   195be:	bf 00 00 00 00       	mov    $0x0,%edi
   195c3:	e8 79 02 ff ff       	callq  9841 <safe_add_func_int64_t_s_s>
   195c8:	48 0b 85 40 e8 ff ff 	or     -0x17c0(%rbp),%rax
   195cf:	49 39 c4             	cmp    %rax,%r12
   195d2:	0f 96 c0             	setbe  %al
   195d5:	0f b6 c0             	movzbl %al,%eax
   195d8:	be 04 00 00 00       	mov    $0x4,%esi
   195dd:	89 c7                	mov    %eax,%edi
   195df:	e8 0a fd fe ff       	callq  92ee <safe_lshift_func_int8_t_s_u>
   195e4:	48 8b 05 1d ad 00 00 	mov    0xad1d(%rip),%rax        # 24308 <g_198>
   195eb:	0f b7 00             	movzwl (%rax),%eax
   195ee:	b8 01 00 00 00       	mov    $0x1,%eax
   195f3:	83 e0 01             	and    $0x1,%eax
   195f6:	44 31 e8             	xor    %r13d,%eax
   195f9:	84 c0                	test   %al,%al
   195fb:	74 10                	je     1960d <func_92+0xe84>
   195fd:	83 bd 7c e6 ff ff 00 	cmpl   $0x0,-0x1984(%rbp)
   19604:	74 07                	je     1960d <func_92+0xe84>
   19606:	ba 01 00 00 00       	mov    $0x1,%edx
   1960b:	eb 05                	jmp    19612 <func_92+0xe89>
   1960d:	ba 00 00 00 00       	mov    $0x0,%edx
   19612:	0f b7 85 8c e6 ff ff 	movzwl -0x1974(%rbp),%eax
   19619:	39 c2                	cmp    %eax,%edx
   1961b:	0f 95 c0             	setne  %al
   1961e:	0f b6 c0             	movzbl %al,%eax
   19621:	39 c3                	cmp    %eax,%ebx
   19623:	0f 9c c0             	setl   %al
   19626:	0f b6 d0             	movzbl %al,%edx
   19629:	48 8b 85 30 e8 ff ff 	mov    -0x17d0(%rbp),%rax
   19630:	89 10                	mov    %edx,(%rax)
   19632:	48 8b 85 00 e8 ff ff 	mov    -0x1800(%rbp),%rax
   19639:	48 89 85 e0 e7 ff ff 	mov    %rax,-0x1820(%rbp)
   19640:	e9 33 01 00 00       	jmpq   19778 <func_92+0xfef>
   19645:	48 8d 05 a4 8a 00 00 	lea    0x8aa4(%rip),%rax        # 220f0 <g_247>
   1964c:	48 89 85 38 e8 ff ff 	mov    %rax,-0x17c8(%rbp)
   19653:	c7 85 b4 e6 ff ff 05 	movl   $0x5,-0x194c(%rbp)
   1965a:	00 00 00 
   1965d:	8b 05 dd 89 00 00    	mov    0x89dd(%rip),%eax        # 22040 <g_2+0x10>
   19663:	0f b6 d8             	movzbl %al,%ebx
   19666:	0f b7 05 41 8a 00 00 	movzwl 0x8a41(%rip),%eax        # 220ae <g_98+0x6>
   1966d:	0f b7 d0             	movzwl %ax,%edx
   19670:	0f b7 05 1b 8a 00 00 	movzwl 0x8a1b(%rip),%eax        # 22092 <g_52>
   19677:	0f b7 c8             	movzwl %ax,%ecx
   1967a:	48 8b 85 38 e8 ff ff 	mov    -0x17c8(%rbp),%rax
   19681:	48 89 08             	mov    %rcx,(%rax)
   19684:	48 8b 85 38 e8 ff ff 	mov    -0x17c8(%rbp),%rax
   1968b:	48 8b 00             	mov    (%rax),%rax
   1968e:	48 83 f8 03          	cmp    $0x3,%rax
   19692:	8b 8d 44 e9 ff ff    	mov    -0x16bc(%rbp),%ecx
   19698:	0f b7 85 8c e6 ff ff 	movzwl -0x1974(%rbp),%eax
   1969f:	39 c1                	cmp    %eax,%ecx
   196a1:	0f 95 c0             	setne  %al
   196a4:	0f b6 c0             	movzbl %al,%eax
   196a7:	48 89 d6             	mov    %rdx,%rsi
   196aa:	48 89 c7             	mov    %rax,%rdi
   196ad:	e8 45 03 ff ff       	callq  99f7 <safe_div_func_int64_t_s_s>
   196b2:	0f b6 c0             	movzbl %al,%eax
   196b5:	89 de                	mov    %ebx,%esi
   196b7:	89 c7                	mov    %eax,%edi
   196b9:	e8 d5 04 ff ff       	callq  9b93 <safe_mul_func_uint8_t_u_u>
   196be:	0f b6 c0             	movzbl %al,%eax
   196c1:	be ca 00 00 00       	mov    $0xca,%esi
   196c6:	89 c7                	mov    %eax,%edi
   196c8:	e8 8d 04 ff ff       	callq  9b5a <safe_add_func_uint8_t_u_u>
   196cd:	48 8b 05 3c ac 00 00 	mov    0xac3c(%rip),%rax        # 24310 <g_197>
   196d4:	48 8b 00             	mov    (%rax),%rax
   196d7:	0f b7 00             	movzwl (%rax),%eax
   196da:	98                   	cwtl   
   196db:	89 c6                	mov    %eax,%esi
   196dd:	bf 01 00 00 00       	mov    $0x1,%edi
   196e2:	e8 0e fd fe ff       	callq  93f5 <safe_mul_func_int16_t_s_s>
   196e7:	0f be 95 86 e6 ff ff 	movsbl -0x197a(%rbp),%edx
   196ee:	8b 85 64 ee ff ff    	mov    -0x119c(%rbp),%eax
   196f4:	39 c2                	cmp    %eax,%edx
   196f6:	0f 92 c0             	setb   %al
   196f9:	0f b6 c0             	movzbl %al,%eax
   196fc:	39 85 b4 e6 ff ff    	cmp    %eax,-0x194c(%rbp)
   19702:	0f 9d c0             	setge  %al
   19705:	0f b6 c0             	movzbl %al,%eax
   19708:	0b 85 7c e6 ff ff    	or     -0x1984(%rbp),%eax
   1970e:	85 c0                	test   %eax,%eax
   19710:	74 13                	je     19725 <func_92+0xf9c>
   19712:	0f b7 05 79 89 00 00 	movzwl 0x8979(%rip),%eax        # 22092 <g_52>
   19719:	66 85 c0             	test   %ax,%ax
   1971c:	74 07                	je     19725 <func_92+0xf9c>
   1971e:	b8 01 00 00 00       	mov    $0x1,%eax
   19723:	eb 05                	jmp    1972a <func_92+0xfa1>
   19725:	b8 00 00 00 00       	mov    $0x0,%eax
   1972a:	0f be c0             	movsbl %al,%eax
   1972d:	be 01 00 00 00       	mov    $0x1,%esi
   19732:	89 c7                	mov    %eax,%edi
   19734:	e8 31 fb fe ff       	callq  926a <safe_div_func_int8_t_s_s>
   19739:	48 0f be c0          	movsbq %al,%rax
   1973d:	8b 95 c0 ed ff ff    	mov    -0x1240(%rbp),%edx
   19743:	89 d2                	mov    %edx,%edx
   19745:	48 89 c6             	mov    %rax,%rsi
   19748:	48 89 d7             	mov    %rdx,%rdi
   1974b:	e8 30 09 ff ff       	callq  a080 <safe_mod_func_uint64_t_u_u>
   19750:	48 83 f8 01          	cmp    $0x1,%rax
   19754:	0f 97 c0             	seta   %al
   19757:	0f b6 c0             	movzbl %al,%eax
   1975a:	be 02 00 00 00       	mov    $0x2,%esi
   1975f:	89 c7                	mov    %eax,%edi
   19761:	e8 88 fb fe ff       	callq  92ee <safe_lshift_func_int8_t_s_u>
   19766:	48 8b 85 70 e6 ff ff 	mov    -0x1990(%rbp),%rax
   1976d:	48 8b 00             	mov    (%rax),%rax
   19770:	8b 00                	mov    (%rax),%eax
   19772:	89 85 5c e9 ff ff    	mov    %eax,-0x16a4(%rbp)
   19778:	c7 85 68 e6 ff ff 00 	movl   $0x0,-0x1998(%rbp)
   1977f:	00 00 00 
   19782:	0f b7 85 e0 e8 ff ff 	movzwl -0x1720(%rbp),%eax
   19789:	0f bf d8             	movswl %ax,%ebx
   1978c:	44 0f b7 a5 8a e6 ff 	movzwl -0x1976(%rbp),%r12d
   19793:	ff 
   19794:	0f b6 05 27 89 00 00 	movzbl 0x8927(%rip),%eax        # 220c2 <g_155+0x2>
   1979b:	44 0f be e8          	movsbl %al,%r13d
   1979f:	8b 05 43 89 00 00    	mov    0x8943(%rip),%eax        # 220e8 <g_211+0x8>
   197a5:	0f b7 85 e0 e8 ff ff 	movzwl -0x1720(%rbp),%eax
   197ac:	44 0f b7 f0          	movzwl %ax,%r14d
   197b0:	44 0f be bd 85 e6 ff 	movsbl -0x197b(%rbp),%r15d
   197b7:	ff 
   197b8:	48 8b 85 70 e6 ff ff 	mov    -0x1990(%rbp),%rax
   197bf:	48 89 85 30 f1 ff ff 	mov    %rax,-0xed0(%rbp)
   197c6:	48 8b 85 30 f1 ff ff 	mov    -0xed0(%rbp),%rax
   197cd:	48 85 c0             	test   %rax,%rax
   197d0:	48 8b 85 f8 e6 ff ff 	mov    -0x1908(%rbp),%rax
   197d7:	8b 00                	mov    (%rax),%eax
   197d9:	98                   	cwtl   
   197da:	83 e0 01             	and    $0x1,%eax
   197dd:	be 04 00 00 00       	mov    $0x4,%esi
   197e2:	89 c7                	mov    %eax,%edi
   197e4:	e8 a9 fc fe ff       	callq  9492 <safe_lshift_func_int16_t_s_s>
   197e9:	66 83 f8 07          	cmp    $0x7,%ax
   197ed:	0f 95 c0             	setne  %al
   197f0:	0f b6 d0             	movzbl %al,%edx
   197f3:	48 8b 85 30 e7 ff ff 	mov    -0x18d0(%rbp),%rax
   197fa:	48 89 10             	mov    %rdx,(%rax)
   197fd:	48 8b 85 30 e7 ff ff 	mov    -0x18d0(%rbp),%rax
   19804:	48 8b 00             	mov    (%rax),%rax
   19807:	48 89 c2             	mov    %rax,%rdx
   1980a:	8b 85 90 e6 ff ff    	mov    -0x1970(%rbp),%eax
   19810:	48 98                	cltq   
   19812:	48 89 d6             	mov    %rdx,%rsi
   19815:	48 89 c7             	mov    %rax,%rdi
   19818:	e8 24 00 ff ff       	callq  9841 <safe_add_func_int64_t_s_s>
   1981d:	48 85 c0             	test   %rax,%rax
   19820:	74 08                	je     1982a <func_92+0x10a1>
   19822:	8b 85 a0 e6 ff ff    	mov    -0x1960(%rbp),%eax
   19828:	85 c0                	test   %eax,%eax
   1982a:	44 89 fe             	mov    %r15d,%esi
   1982d:	bf 00 00 00 00       	mov    $0x0,%edi
   19832:	e8 35 fb fe ff       	callq  936c <safe_rshift_func_int8_t_s_u>
   19837:	66 98                	cbtw   
   19839:	34 eb                	xor    $0xeb,%al
   1983b:	0f b7 c0             	movzwl %ax,%eax
   1983e:	be 08 00 00 00       	mov    $0x8,%esi
   19843:	89 c7                	mov    %eax,%edi
   19845:	e8 74 05 ff ff       	callq  9dbe <safe_lshift_func_uint16_t_u_s>
   1984a:	0f b7 15 41 88 00 00 	movzwl 0x8841(%rip),%edx        # 22092 <g_52>
   19851:	66 39 d0             	cmp    %dx,%ax
   19854:	0f 96 c0             	setbe  %al
   19857:	0f b6 c0             	movzbl %al,%eax
   1985a:	44 89 f6             	mov    %r14d,%esi
   1985d:	89 c7                	mov    %eax,%edi
   1985f:	e8 8a fa fe ff       	callq  92ee <safe_lshift_func_int8_t_s_u>
   19864:	0f b6 05 5e 88 00 00 	movzbl 0x885e(%rip),%eax        # 220c9 <g_155+0x9>
   1986b:	0f be c0             	movsbl %al,%eax
   1986e:	44 89 ee             	mov    %r13d,%esi
   19871:	89 c7                	mov    %eax,%edi
   19873:	e8 40 06 ff ff       	callq  9eb8 <safe_add_func_uint32_t_u_u>
   19878:	0f be c0             	movsbl %al,%eax
   1987b:	be 01 00 00 00       	mov    $0x1,%esi
   19880:	89 c7                	mov    %eax,%edi
   19882:	e8 e5 fa fe ff       	callq  936c <safe_rshift_func_int8_t_s_u>
   19887:	66 98                	cbtw   
   19889:	0f b7 c0             	movzwl %ax,%eax
   1988c:	44 89 e6             	mov    %r12d,%esi
   1988f:	89 c7                	mov    %eax,%edi
   19891:	e8 89 04 ff ff       	callq  9d1f <safe_sub_func_uint16_t_u_u>
   19896:	98                   	cwtl   
   19897:	89 de                	mov    %ebx,%esi
   19899:	89 c7                	mov    %eax,%edi
   1989b:	e8 55 fb fe ff       	callq  93f5 <safe_mul_func_int16_t_s_s>
   198a0:	48 8b 85 70 e6 ff ff 	mov    -0x1990(%rbp),%rax
   198a7:	48 8d 15 f6 87 00 00 	lea    0x87f6(%rip),%rdx        # 220a4 <g_88>
   198ae:	48 89 10             	mov    %rdx,(%rax)
   198b1:	48 8b 85 70 e6 ff ff 	mov    -0x1990(%rbp),%rax
   198b8:	48 8b 00             	mov    (%rax),%rax
   198bb:	48 8d 15 b2 47 00 00 	lea    0x47b2(%rip),%rdx        # 1e074 <g_171+0x14>
   198c2:	48 39 d0             	cmp    %rdx,%rax
   198c5:	0f 95 c0             	setne  %al
   198c8:	0f b6 d0             	movzbl %al,%edx
   198cb:	0f b7 85 e0 e8 ff ff 	movzwl -0x1720(%rbp),%eax
   198d2:	89 c1                	mov    %eax,%ecx
   198d4:	8b 85 7c e6 ff ff    	mov    -0x1984(%rbp),%eax
   198da:	09 c8                	or     %ecx,%eax
   198dc:	0f b6 c0             	movzbl %al,%eax
   198df:	89 d6                	mov    %edx,%esi
   198e1:	89 c7                	mov    %eax,%edi
   198e3:	e8 ab 02 ff ff       	callq  9b93 <safe_mul_func_uint8_t_u_u>
   198e8:	0f b6 c0             	movzbl %al,%eax
   198eb:	33 85 68 e6 ff ff    	xor    -0x1998(%rbp),%eax
   198f1:	89 85 a0 e6 ff ff    	mov    %eax,-0x1960(%rbp)
   198f7:	8b 85 a0 e6 ff ff    	mov    -0x1960(%rbp),%eax
   198fd:	89 85 90 e6 ff ff    	mov    %eax,-0x1970(%rbp)
   19903:	8b 85 90 e6 ff ff    	mov    -0x1970(%rbp),%eax
   19909:	83 f8 ff             	cmp    $0xffffffff,%eax
   1990c:	75 0e                	jne    1991c <func_92+0x1193>
   1990e:	48 83 bd e8 e7 ff ff 	cmpq   $0x0,-0x1818(%rbp)
   19915:	00 
   19916:	0f 84 ee 08 00 00    	je     1a20a <func_92+0x1a81>
   1991c:	48 8d 85 40 f8 ff ff 	lea    -0x7c0(%rbp),%rax
   19923:	48 8d 15 16 9f 00 00 	lea    0x9f16(%rip),%rdx        # 23840 <g_2474+0x1316>
   1992a:	b9 2d 00 00 00       	mov    $0x2d,%ecx
   1992f:	48 89 c7             	mov    %rax,%rdi
   19932:	48 89 d6             	mov    %rdx,%rsi
   19935:	f3 48 a5             	rep movsq %ds:(%rsi),%es:(%rdi)
   19938:	48 c7 85 10 e7 ff ff 	movq   $0x0,-0x18f0(%rbp)
   1993f:	00 00 00 00 
   19943:	48 8d 85 10 e7 ff ff 	lea    -0x18f0(%rbp),%rax
   1994a:	48 89 85 f0 ea ff ff 	mov    %rax,-0x1510(%rbp)
   19951:	48 8d 85 10 e7 ff ff 	lea    -0x18f0(%rbp),%rax
   19958:	48 89 85 f8 ea ff ff 	mov    %rax,-0x1508(%rbp)
   1995f:	48 8d 85 10 e7 ff ff 	lea    -0x18f0(%rbp),%rax
   19966:	48 89 85 00 eb ff ff 	mov    %rax,-0x1500(%rbp)
   1996d:	48 8d 85 10 e7 ff ff 	lea    -0x18f0(%rbp),%rax
   19974:	48 89 85 08 eb ff ff 	mov    %rax,-0x14f8(%rbp)
   1997b:	48 8d 85 10 e7 ff ff 	lea    -0x18f0(%rbp),%rax
   19982:	48 89 85 10 eb ff ff 	mov    %rax,-0x14f0(%rbp)
   19989:	48 8d 85 10 e7 ff ff 	lea    -0x18f0(%rbp),%rax
   19990:	48 89 85 18 eb ff ff 	mov    %rax,-0x14e8(%rbp)
   19997:	48 8d 85 10 e7 ff ff 	lea    -0x18f0(%rbp),%rax
   1999e:	48 89 85 20 eb ff ff 	mov    %rax,-0x14e0(%rbp)
   199a5:	48 8d 85 10 e7 ff ff 	lea    -0x18f0(%rbp),%rax
   199ac:	48 89 85 28 eb ff ff 	mov    %rax,-0x14d8(%rbp)
   199b3:	48 8d 85 10 e7 ff ff 	lea    -0x18f0(%rbp),%rax
   199ba:	48 89 85 30 eb ff ff 	mov    %rax,-0x14d0(%rbp)
   199c1:	48 8d 85 10 e7 ff ff 	lea    -0x18f0(%rbp),%rax
   199c8:	48 89 85 38 eb ff ff 	mov    %rax,-0x14c8(%rbp)
   199cf:	48 c7 85 40 eb ff ff 	movq   $0x0,-0x14c0(%rbp)
   199d6:	00 00 00 00 
   199da:	48 c7 85 48 eb ff ff 	movq   $0x0,-0x14b8(%rbp)
   199e1:	00 00 00 00 
   199e5:	48 8d 85 10 e7 ff ff 	lea    -0x18f0(%rbp),%rax
   199ec:	48 89 85 50 eb ff ff 	mov    %rax,-0x14b0(%rbp)
   199f3:	48 8d 85 10 e7 ff ff 	lea    -0x18f0(%rbp),%rax
   199fa:	48 89 85 58 eb ff ff 	mov    %rax,-0x14a8(%rbp)
   19a01:	48 8d 85 10 e7 ff ff 	lea    -0x18f0(%rbp),%rax
   19a08:	48 89 85 60 eb ff ff 	mov    %rax,-0x14a0(%rbp)
   19a0f:	48 c7 85 68 eb ff ff 	movq   $0x0,-0x1498(%rbp)
   19a16:	00 00 00 00 
   19a1a:	48 8d 85 10 e7 ff ff 	lea    -0x18f0(%rbp),%rax
   19a21:	48 89 85 70 eb ff ff 	mov    %rax,-0x1490(%rbp)
   19a28:	48 8d 85 10 e7 ff ff 	lea    -0x18f0(%rbp),%rax
   19a2f:	48 89 85 78 eb ff ff 	mov    %rax,-0x1488(%rbp)
   19a36:	48 8d 85 10 e7 ff ff 	lea    -0x18f0(%rbp),%rax
   19a3d:	48 89 85 80 eb ff ff 	mov    %rax,-0x1480(%rbp)
   19a44:	48 8d 85 10 e7 ff ff 	lea    -0x18f0(%rbp),%rax
   19a4b:	48 89 85 88 eb ff ff 	mov    %rax,-0x1478(%rbp)
   19a52:	48 8d 85 10 e7 ff ff 	lea    -0x18f0(%rbp),%rax
   19a59:	48 89 85 90 eb ff ff 	mov    %rax,-0x1470(%rbp)
   19a60:	48 8d 85 10 e7 ff ff 	lea    -0x18f0(%rbp),%rax
   19a67:	48 89 85 98 eb ff ff 	mov    %rax,-0x1468(%rbp)
   19a6e:	48 8d 85 10 e7 ff ff 	lea    -0x18f0(%rbp),%rax
   19a75:	48 89 85 a0 eb ff ff 	mov    %rax,-0x1460(%rbp)
   19a7c:	48 8d 85 10 e7 ff ff 	lea    -0x18f0(%rbp),%rax
   19a83:	48 89 85 a8 eb ff ff 	mov    %rax,-0x1458(%rbp)
   19a8a:	c6 85 87 e6 ff ff 90 	movb   $0x90,-0x1979(%rbp)
   19a91:	48 c7 85 18 e7 ff ff 	movq   $0x0,-0x18e8(%rbp)
   19a98:	00 00 00 00 
   19a9c:	48 8d 85 18 e7 ff ff 	lea    -0x18e8(%rbp),%rax
   19aa3:	48 89 85 88 e8 ff ff 	mov    %rax,-0x1778(%rbp)
   19aaa:	48 c7 85 20 e7 ff ff 	movq   $0x0,-0x18e0(%rbp)
   19ab1:	00 00 00 00 
   19ab5:	48 8d 85 20 e7 ff ff 	lea    -0x18e0(%rbp),%rax
   19abc:	48 89 85 90 e8 ff ff 	mov    %rax,-0x1770(%rbp)
   19ac3:	48 c7 85 28 e7 ff ff 	movq   $0x0,-0x18d8(%rbp)
   19aca:	00 00 00 00 
   19ace:	48 8d 85 28 e7 ff ff 	lea    -0x18d8(%rbp),%rax
   19ad5:	48 89 85 98 e8 ff ff 	mov    %rax,-0x1768(%rbp)
   19adc:	48 c7 85 a0 e8 ff ff 	movq   $0x1,-0x1760(%rbp)
   19ae3:	01 00 00 00 
   19ae7:	c7 85 c0 e6 ff ff f6 	movl   $0xfffffff6,-0x1940(%rbp)
   19aee:	ff ff ff 
   19af1:	c7 85 40 ea ff ff 01 	movl   $0x1,-0x15c0(%rbp)
   19af8:	00 00 00 
   19afb:	c7 85 44 ea ff ff e5 	movl   $0x810e84e5,-0x15bc(%rbp)
   19b02:	84 0e 81 
   19b05:	c7 85 48 ea ff ff fb 	movl   $0xfffffffb,-0x15b8(%rbp)
   19b0c:	ff ff ff 
   19b0f:	c7 85 4c ea ff ff fb 	movl   $0xfffffffb,-0x15b4(%rbp)
   19b16:	ff ff ff 
   19b19:	c7 85 50 ea ff ff e5 	movl   $0x810e84e5,-0x15b0(%rbp)
   19b20:	84 0e 81 
   19b23:	c7 85 54 ea ff ff 01 	movl   $0x1,-0x15ac(%rbp)
   19b2a:	00 00 00 
   19b2d:	c7 85 58 ea ff ff ff 	movl   $0xffffffff,-0x15a8(%rbp)
   19b34:	ff ff ff 
   19b37:	c7 85 5c ea ff ff 01 	movl   $0x1,-0x15a4(%rbp)
   19b3e:	00 00 00 
   19b41:	c7 85 60 ea ff ff 01 	movl   $0x1,-0x15a0(%rbp)
   19b48:	00 00 00 
   19b4b:	c7 85 64 ea ff ff e5 	movl   $0x810e84e5,-0x159c(%rbp)
   19b52:	84 0e 81 
   19b55:	c7 85 68 ea ff ff 01 	movl   $0x1,-0x1598(%rbp)
   19b5c:	00 00 00 
   19b5f:	c7 85 6c ea ff ff 01 	movl   $0x1,-0x1594(%rbp)
   19b66:	00 00 00 
   19b69:	c7 85 70 ea ff ff 01 	movl   $0x1,-0x1590(%rbp)
   19b70:	00 00 00 
   19b73:	c7 85 74 ea ff ff ff 	movl   $0xffffffff,-0x158c(%rbp)
   19b7a:	ff ff ff 
   19b7d:	c7 85 78 ea ff ff fb 	movl   $0xfffffffb,-0x1588(%rbp)
   19b84:	ff ff ff 
   19b87:	c7 85 7c ea ff ff fe 	movl   $0xfffffffe,-0x1584(%rbp)
   19b8e:	ff ff ff 
   19b91:	c7 85 80 ea ff ff fe 	movl   $0xfffffffe,-0x1580(%rbp)
   19b98:	ff ff ff 
   19b9b:	c7 85 84 ea ff ff fb 	movl   $0xfffffffb,-0x157c(%rbp)
   19ba2:	ff ff ff 
   19ba5:	c7 85 88 ea ff ff 01 	movl   $0x1,-0x1578(%rbp)
   19bac:	00 00 00 
   19baf:	c7 85 8c ea ff ff 01 	movl   $0x1,-0x1574(%rbp)
   19bb6:	00 00 00 
   19bb9:	c7 85 90 ea ff ff fe 	movl   $0xfffffffe,-0x1570(%rbp)
   19bc0:	ff ff ff 
   19bc3:	c7 85 94 ea ff ff e5 	movl   $0x810e84e5,-0x156c(%rbp)
   19bca:	84 0e 81 
   19bcd:	c7 85 98 ea ff ff 07 	movl   $0x7,-0x1568(%rbp)
   19bd4:	00 00 00 
   19bd7:	c7 85 9c ea ff ff e5 	movl   $0x810e84e5,-0x1564(%rbp)
   19bde:	84 0e 81 
   19be1:	c7 85 a0 ea ff ff ff 	movl   $0xffffffff,-0x1560(%rbp)
   19be8:	ff ff ff 
   19beb:	c7 85 a4 ea ff ff 01 	movl   $0x1,-0x155c(%rbp)
   19bf2:	00 00 00 
   19bf5:	c7 85 a8 ea ff ff ff 	movl   $0xffffffff,-0x1558(%rbp)
   19bfc:	ff ff ff 
   19bff:	c7 85 ac ea ff ff fb 	movl   $0xfffffffb,-0x1554(%rbp)
   19c06:	ff ff ff 
   19c09:	c7 85 b0 ea ff ff fe 	movl   $0xfffffffe,-0x1550(%rbp)
   19c10:	ff ff ff 
   19c13:	c7 85 b4 ea ff ff fe 	movl   $0xfffffffe,-0x154c(%rbp)
   19c1a:	ff ff ff 
   19c1d:	c7 85 b8 ea ff ff 01 	movl   $0x1,-0x1548(%rbp)
   19c24:	00 00 00 
   19c27:	c7 85 bc ea ff ff ff 	movl   $0xffffffff,-0x1544(%rbp)
   19c2e:	ff ff ff 
   19c31:	c7 85 c0 ea ff ff ff 	movl   $0xffffffff,-0x1540(%rbp)
   19c38:	ff ff ff 
   19c3b:	c7 85 c4 ea ff ff 01 	movl   $0x1,-0x153c(%rbp)
   19c42:	00 00 00 
   19c45:	c7 85 c8 ea ff ff 01 	movl   $0x1,-0x1538(%rbp)
   19c4c:	00 00 00 
   19c4f:	c7 85 cc ea ff ff e5 	movl   $0x810e84e5,-0x1534(%rbp)
   19c56:	84 0e 81 
   19c59:	c7 85 d0 ea ff ff e5 	movl   $0x810e84e5,-0x1530(%rbp)
   19c60:	84 0e 81 
   19c63:	c7 85 d4 ea ff ff 01 	movl   $0x1,-0x152c(%rbp)
   19c6a:	00 00 00 
   19c6d:	c7 85 d8 ea ff ff fe 	movl   $0xfffffffe,-0x1528(%rbp)
   19c74:	ff ff ff 
   19c77:	c7 85 dc ea ff ff 01 	movl   $0x1,-0x1524(%rbp)
   19c7e:	00 00 00 
   19c81:	c7 85 e0 ea ff ff e5 	movl   $0x810e84e5,-0x1520(%rbp)
   19c88:	84 0e 81 
   19c8b:	c7 85 e4 ea ff ff fb 	movl   $0xfffffffb,-0x151c(%rbp)
   19c92:	ff ff ff 
   19c95:	0f b6 05 25 84 00 00 	movzbl 0x8425(%rip),%eax        # 220c1 <g_155+0x1>
   19c9c:	0f be d0             	movsbl %al,%edx
   19c9f:	48 8b 05 6a a6 00 00 	mov    0xa66a(%rip),%rax        # 24310 <g_197>
   19ca6:	48 8b 00             	mov    (%rax),%rax
   19ca9:	0f b7 00             	movzwl (%rax),%eax
   19cac:	0f b7 c0             	movzwl %ax,%eax
   19caf:	89 d6                	mov    %edx,%esi
   19cb1:	89 c7                	mov    %eax,%edi
   19cb3:	e8 90 01 ff ff       	callq  9e48 <safe_rshift_func_uint16_t_u_s>
   19cb8:	66 85 c0             	test   %ax,%ax
   19cbb:	0f 84 8d 00 00 00    	je     19d4e <func_92+0x15c5>
   19cc1:	48 8b 05 c0 83 00 00 	mov    0x83c0(%rip),%rax        # 22088 <g_49>
   19cc8:	89 c3                	mov    %eax,%ebx
   19cca:	48 8b 85 70 e6 ff ff 	mov    -0x1990(%rbp),%rax
   19cd1:	48 89 85 30 f1 ff ff 	mov    %rax,-0xed0(%rbp)
   19cd8:	48 8b 05 29 a6 00 00 	mov    0xa629(%rip),%rax        # 24308 <g_198>
   19cdf:	0f b7 00             	movzwl (%rax),%eax
   19ce2:	89 c2                	mov    %eax,%edx
   19ce4:	0f b6 05 da 83 00 00 	movzbl 0x83da(%rip),%eax        # 220c5 <g_155+0x5>
   19ceb:	66 98                	cbtw   
   19ced:	31 d0                	xor    %edx,%eax
   19cef:	0f b7 c0             	movzwl %ax,%eax
   19cf2:	be 0e 00 00 00       	mov    $0xe,%esi
   19cf7:	89 c7                	mov    %eax,%edi
   19cf9:	e8 7c 01 ff ff       	callq  9e7a <safe_rshift_func_uint16_t_u_u>
   19cfe:	48 8d 05 b3 83 00 00 	lea    0x83b3(%rip),%rax        # 220b8 <g_148>
   19d05:	48 89 05 b4 ad 00 00 	mov    %rax,0xadb4(%rip)        # 24ac0 <g_332>
   19d0c:	48 8b 85 50 f8 ff ff 	mov    -0x7b0(%rbp),%rax
   19d13:	48 85 c0             	test   %rax,%rax
   19d16:	0f 94 c0             	sete   %al
   19d19:	0f b6 c0             	movzbl %al,%eax
   19d1c:	be 9e 00 00 00       	mov    $0x9e,%esi
   19d21:	89 c7                	mov    %eax,%edi
   19d23:	e8 86 fe fe ff       	callq  9bae <safe_mod_func_uint8_t_u_u>
   19d28:	0f b6 c0             	movzbl %al,%eax
   19d2b:	89 c6                	mov    %eax,%esi
   19d2d:	bf fc ff 00 00       	mov    $0xfffc,%edi
   19d32:	e8 57 00 ff ff       	callq  9d8e <safe_div_func_uint16_t_u_u>
   19d37:	0f b7 c0             	movzwl %ax,%eax
   19d3a:	89 de                	mov    %ebx,%esi
   19d3c:	89 c7                	mov    %eax,%edi
   19d3e:	e8 ba 01 ff ff       	callq  9efd <safe_mod_func_uint32_t_u_u>
   19d43:	85 c0                	test   %eax,%eax
   19d45:	74 07                	je     19d4e <func_92+0x15c5>
   19d47:	ba 01 00 00 00       	mov    $0x1,%edx
   19d4c:	eb 05                	jmp    19d53 <func_92+0x15ca>
   19d4e:	ba 00 00 00 00       	mov    $0x0,%edx
   19d53:	0f b6 85 87 e6 ff ff 	movzbl -0x1979(%rbp),%eax
   19d5a:	39 c2                	cmp    %eax,%edx
   19d5c:	0f b6 85 84 e6 ff ff 	movzbl -0x197c(%rbp),%eax
   19d63:	0f b6 d0             	movzbl %al,%edx
   19d66:	48 8b 85 d0 e7 ff ff 	mov    -0x1830(%rbp),%rax
   19d6d:	66 89 10             	mov    %dx,(%rax)
   19d70:	48 8b 85 d0 e7 ff ff 	mov    -0x1830(%rbp),%rax
   19d77:	0f b7 10             	movzwl (%rax),%edx
   19d7a:	0f b7 85 e0 e8 ff ff 	movzwl -0x1720(%rbp),%eax
   19d81:	66 39 c2             	cmp    %ax,%dx
   19d84:	0f 97 c0             	seta   %al
   19d87:	0f b6 d0             	movzbl %al,%edx
   19d8a:	8b 85 9c e6 ff ff    	mov    -0x1964(%rbp),%eax
   19d90:	31 d0                	xor    %edx,%eax
   19d92:	89 85 9c e6 ff ff    	mov    %eax,-0x1964(%rbp)
   19d98:	0f b6 9d 87 e6 ff ff 	movzbl -0x1979(%rbp),%ebx
   19d9f:	44 8b a5 7c e6 ff ff 	mov    -0x1984(%rbp),%r12d
   19da6:	8b 85 7c e6 ff ff    	mov    -0x1984(%rbp),%eax
   19dac:	44 0f b7 e8          	movzwl %ax,%r13d
   19db0:	0f b6 95 87 e6 ff ff 	movzbl -0x1979(%rbp),%edx
   19db7:	48 8b 05 52 a5 00 00 	mov    0xa552(%rip),%rax        # 24310 <g_197>
   19dbe:	48 8b 85 f8 e6 ff ff 	mov    -0x1908(%rbp),%rax
   19dc5:	8b 00                	mov    (%rax),%eax
   19dc7:	83 c8 01             	or     $0x1,%eax
   19dca:	48 98                	cltq   
   19dcc:	83 e0 06             	and    $0x6,%eax
   19dcf:	48 89 c1             	mov    %rax,%rcx
   19dd2:	8b 85 7c e6 ff ff    	mov    -0x1984(%rbp),%eax
   19dd8:	48 39 c1             	cmp    %rax,%rcx
   19ddb:	0f 95 c0             	setne  %al
   19dde:	0f b6 c0             	movzbl %al,%eax
   19de1:	89 d6                	mov    %edx,%esi
   19de3:	89 c7                	mov    %eax,%edi
   19de5:	e8 a9 fd fe ff       	callq  9b93 <safe_mul_func_uint8_t_u_u>
   19dea:	0f b6 c0             	movzbl %al,%eax
   19ded:	44 89 ee             	mov    %r13d,%esi
   19df0:	89 c7                	mov    %eax,%edi
   19df2:	e8 46 ff fe ff       	callq  9d3d <safe_mul_func_uint16_t_u_u>
   19df7:	0f b7 d0             	movzwl %ax,%edx
   19dfa:	48 8b 85 00 e7 ff ff 	mov    -0x1900(%rbp),%rax
   19e01:	48 8b 08             	mov    (%rax),%rcx
   19e04:	48 8b 85 00 e7 ff ff 	mov    -0x1900(%rbp),%rax
   19e0b:	48 be f8 dc 6d aa 24 	movabs $0x97c5824aa6ddcf8,%rsi
   19e12:	58 7c 09 
   19e15:	48 21 f1             	and    %rsi,%rcx
   19e18:	48 89 08             	mov    %rcx,(%rax)
   19e1b:	48 8b 00             	mov    (%rax),%rax
   19e1e:	48 89 d6             	mov    %rdx,%rsi
   19e21:	48 89 c7             	mov    %rax,%rdi
   19e24:	e8 22 02 ff ff       	callq  a04b <safe_sub_func_uint64_t_u_u>
   19e29:	4c 89 e6             	mov    %r12,%rsi
   19e2c:	48 89 c7             	mov    %rax,%rdi
   19e2f:	e8 4c 02 ff ff       	callq  a080 <safe_mod_func_uint64_t_u_u>
   19e34:	0f b7 85 e0 e8 ff ff 	movzwl -0x1720(%rbp),%eax
   19e3b:	98                   	cwtl   
   19e3c:	89 de                	mov    %ebx,%esi
   19e3e:	89 c7                	mov    %eax,%edi
   19e40:	e8 e5 f6 fe ff       	callq  952a <safe_rshift_func_int16_t_s_s>
   19e45:	0f b6 85 87 e6 ff ff 	movzbl -0x1979(%rbp),%eax
   19e4c:	89 c6                	mov    %eax,%esi
   19e4e:	bf 00 00 00 00       	mov    $0x0,%edi
   19e53:	e8 be f5 fe ff       	callq  9416 <safe_mod_func_int16_t_s_s>
   19e58:	48 8b 85 88 e8 ff ff 	mov    -0x1778(%rbp),%rax
   19e5f:	48 8d 15 22 82 00 00 	lea    0x8222(%rip),%rdx        # 22088 <g_49>
   19e66:	48 89 10             	mov    %rdx,(%rax)
   19e69:	48 8b 85 88 e8 ff ff 	mov    -0x1778(%rbp),%rax
   19e70:	48 8b 10             	mov    (%rax),%rdx
   19e73:	48 8b 85 90 e8 ff ff 	mov    -0x1770(%rbp),%rax
   19e7a:	48 89 10             	mov    %rdx,(%rax)
   19e7d:	48 8b 85 90 e8 ff ff 	mov    -0x1770(%rbp),%rax
   19e84:	48 8b 10             	mov    (%rax),%rdx
   19e87:	48 8b 85 98 e8 ff ff 	mov    -0x1768(%rbp),%rax
   19e8e:	48 89 10             	mov    %rdx,(%rax)
   19e91:	48 8b 85 98 e8 ff ff 	mov    -0x1768(%rbp),%rax
   19e98:	48 8b 10             	mov    (%rax),%rdx
   19e9b:	48 8b 85 80 ed ff ff 	mov    -0x1280(%rbp),%rax
   19ea2:	48 39 c2             	cmp    %rax,%rdx
   19ea5:	0f 95 c0             	setne  %al
   19ea8:	0f b6 c0             	movzbl %al,%eax
   19eab:	be 00 00 00 00       	mov    $0x0,%esi
   19eb0:	89 c7                	mov    %eax,%edi
   19eb2:	e8 4f ff fe ff       	callq  9e06 <safe_lshift_func_uint16_t_u_u>
   19eb7:	0f b7 c0             	movzwl %ax,%eax
   19eba:	25 12 c9 66 10       	and    $0x1066c912,%eax
   19ebf:	48 85 c0             	test   %rax,%rax
   19ec2:	74 10                	je     19ed4 <func_92+0x174b>
   19ec4:	83 bd 7c e6 ff ff 00 	cmpl   $0x0,-0x1984(%rbp)
   19ecb:	74 07                	je     19ed4 <func_92+0x174b>
   19ecd:	ba 01 00 00 00       	mov    $0x1,%edx
   19ed2:	eb 05                	jmp    19ed9 <func_92+0x1750>
   19ed4:	ba 00 00 00 00       	mov    $0x0,%edx
   19ed9:	0f be 85 85 e6 ff ff 	movsbl -0x197b(%rbp),%eax
   19ee0:	39 c2                	cmp    %eax,%edx
   19ee2:	74 19                	je     19efd <func_92+0x1774>
   19ee4:	48 8b 85 70 e6 ff ff 	mov    -0x1990(%rbp),%rax
   19eeb:	48 8b 10             	mov    (%rax),%rdx
   19eee:	48 8b 85 70 e6 ff ff 	mov    -0x1990(%rbp),%rax
   19ef5:	48 89 10             	mov    %rdx,(%rax)
   19ef8:	e9 fb 02 00 00       	jmpq   1a1f8 <func_92+0x1a6f>
   19efd:	48 8d 85 84 e6 ff ff 	lea    -0x197c(%rbp),%rax
   19f04:	48 89 85 b0 eb ff ff 	mov    %rax,-0x1450(%rbp)
   19f0b:	48 8d 85 84 e6 ff ff 	lea    -0x197c(%rbp),%rax
   19f12:	48 89 85 b8 eb ff ff 	mov    %rax,-0x1448(%rbp)
   19f19:	48 8d 85 84 e6 ff ff 	lea    -0x197c(%rbp),%rax
   19f20:	48 89 85 c0 eb ff ff 	mov    %rax,-0x1440(%rbp)
   19f27:	48 8d 85 84 e6 ff ff 	lea    -0x197c(%rbp),%rax
   19f2e:	48 89 85 c8 eb ff ff 	mov    %rax,-0x1438(%rbp)
   19f35:	48 8d 85 84 e6 ff ff 	lea    -0x197c(%rbp),%rax
   19f3c:	48 89 85 d0 eb ff ff 	mov    %rax,-0x1430(%rbp)
   19f43:	48 8d 85 84 e6 ff ff 	lea    -0x197c(%rbp),%rax
   19f4a:	48 89 85 d8 eb ff ff 	mov    %rax,-0x1428(%rbp)
   19f51:	48 8d 85 84 e6 ff ff 	lea    -0x197c(%rbp),%rax
   19f58:	48 89 85 e0 eb ff ff 	mov    %rax,-0x1420(%rbp)
   19f5f:	48 8d 85 84 e6 ff ff 	lea    -0x197c(%rbp),%rax
   19f66:	48 89 85 e8 eb ff ff 	mov    %rax,-0x1418(%rbp)
   19f6d:	48 8d 85 84 e6 ff ff 	lea    -0x197c(%rbp),%rax
   19f74:	48 89 85 f0 eb ff ff 	mov    %rax,-0x1410(%rbp)
   19f7b:	48 8d 85 84 e6 ff ff 	lea    -0x197c(%rbp),%rax
   19f82:	48 89 85 f8 eb ff ff 	mov    %rax,-0x1408(%rbp)
   19f89:	48 8d 85 84 e6 ff ff 	lea    -0x197c(%rbp),%rax
   19f90:	48 89 85 00 ec ff ff 	mov    %rax,-0x1400(%rbp)
   19f97:	48 8d 85 84 e6 ff ff 	lea    -0x197c(%rbp),%rax
   19f9e:	48 89 85 08 ec ff ff 	mov    %rax,-0x13f8(%rbp)
   19fa5:	48 8d 85 84 e6 ff ff 	lea    -0x197c(%rbp),%rax
   19fac:	48 89 85 10 ec ff ff 	mov    %rax,-0x13f0(%rbp)
   19fb3:	48 8d 85 84 e6 ff ff 	lea    -0x197c(%rbp),%rax
   19fba:	48 89 85 18 ec ff ff 	mov    %rax,-0x13e8(%rbp)
   19fc1:	48 8d 85 84 e6 ff ff 	lea    -0x197c(%rbp),%rax
   19fc8:	48 89 85 20 ec ff ff 	mov    %rax,-0x13e0(%rbp)
   19fcf:	48 8d 85 84 e6 ff ff 	lea    -0x197c(%rbp),%rax
   19fd6:	48 89 85 28 ec ff ff 	mov    %rax,-0x13d8(%rbp)
   19fdd:	48 8d 85 84 e6 ff ff 	lea    -0x197c(%rbp),%rax
   19fe4:	48 89 85 30 ec ff ff 	mov    %rax,-0x13d0(%rbp)
   19feb:	48 8d 85 84 e6 ff ff 	lea    -0x197c(%rbp),%rax
   19ff2:	48 89 85 38 ec ff ff 	mov    %rax,-0x13c8(%rbp)
   19ff9:	48 8d 85 84 e6 ff ff 	lea    -0x197c(%rbp),%rax
   1a000:	48 89 85 40 ec ff ff 	mov    %rax,-0x13c0(%rbp)
   1a007:	48 8d 85 84 e6 ff ff 	lea    -0x197c(%rbp),%rax
   1a00e:	48 89 85 48 ec ff ff 	mov    %rax,-0x13b8(%rbp)
   1a015:	48 8d 85 84 e6 ff ff 	lea    -0x197c(%rbp),%rax
   1a01c:	48 89 85 50 ec ff ff 	mov    %rax,-0x13b0(%rbp)
   1a023:	48 8d 85 84 e6 ff ff 	lea    -0x197c(%rbp),%rax
   1a02a:	48 89 85 58 ec ff ff 	mov    %rax,-0x13a8(%rbp)
   1a031:	48 8d 85 84 e6 ff ff 	lea    -0x197c(%rbp),%rax
   1a038:	48 89 85 60 ec ff ff 	mov    %rax,-0x13a0(%rbp)
   1a03f:	48 8d 85 84 e6 ff ff 	lea    -0x197c(%rbp),%rax
   1a046:	48 89 85 68 ec ff ff 	mov    %rax,-0x1398(%rbp)
   1a04d:	c7 85 00 ea ff ff 6a 	movl   $0xcc43486a,-0x1600(%rbp)
   1a054:	48 43 cc 
   1a057:	c7 85 04 ea ff ff c3 	movl   $0x40d570c3,-0x15fc(%rbp)
   1a05e:	70 d5 40 
   1a061:	c7 85 08 ea ff ff 6a 	movl   $0xcc43486a,-0x15f8(%rbp)
   1a068:	48 43 cc 
   1a06b:	c7 85 0c ea ff ff fa 	movl   $0xfffffffa,-0x15f4(%rbp)
   1a072:	ff ff ff 
   1a075:	c7 85 10 ea ff ff 00 	movl   $0x0,-0x15f0(%rbp)
   1a07c:	00 00 00 
   1a07f:	c7 85 14 ea ff ff 00 	movl   $0x0,-0x15ec(%rbp)
   1a086:	00 00 00 
   1a089:	c7 85 18 ea ff ff fa 	movl   $0xfffffffa,-0x15e8(%rbp)
   1a090:	ff ff ff 
   1a093:	c7 85 1c ea ff ff 6a 	movl   $0xcc43486a,-0x15e4(%rbp)
   1a09a:	48 43 cc 
   1a09d:	c7 85 20 ea ff ff c3 	movl   $0x40d570c3,-0x15e0(%rbp)
   1a0a4:	70 d5 40 
   1a0a7:	c7 85 24 ea ff ff c3 	movl   $0x40d570c3,-0x15dc(%rbp)
   1a0ae:	70 d5 40 
   1a0b1:	c7 85 28 ea ff ff 00 	movl   $0x0,-0x15d8(%rbp)
   1a0b8:	00 00 00 
   1a0bb:	c7 85 2c ea ff ff bd 	movl   $0x119678bd,-0x15d4(%rbp)
   1a0c2:	78 96 11 
   1a0c5:	c7 85 30 ea ff ff be 	movl   $0xce28c6be,-0x15d0(%rbp)
   1a0cc:	c6 28 ce 
   1a0cf:	c7 85 34 ea ff ff bd 	movl   $0x119678bd,-0x15cc(%rbp)
   1a0d6:	78 96 11 
   1a0d9:	c7 85 38 ea ff ff 00 	movl   $0x0,-0x15c8(%rbp)
   1a0e0:	00 00 00 
   1a0e3:	c7 85 3c ea ff ff c3 	movl   $0x40d570c3,-0x15c4(%rbp)
   1a0ea:	70 d5 40 
   1a0ed:	48 8b 85 e8 e7 ff ff 	mov    -0x1818(%rbp),%rax
   1a0f4:	41 89 c4             	mov    %eax,%r12d
   1a0f7:	48 8b 05 d2 7f 00 00 	mov    0x7fd2(%rip),%rax        # 220d0 <g_164>
   1a0fe:	0f be d0             	movsbl %al,%edx
   1a101:	48 8b 85 f8 e6 ff ff 	mov    -0x1908(%rbp),%rax
   1a108:	8b 00                	mov    (%rax),%eax
   1a10a:	0f be c0             	movsbl %al,%eax
   1a10d:	89 d6                	mov    %edx,%esi
   1a10f:	89 c7                	mov    %eax,%edi
   1a111:	e8 fc f0 fe ff       	callq  9212 <safe_mul_func_int8_t_s_s>
   1a116:	0f be d8             	movsbl %al,%ebx
   1a119:	8b 85 7c e6 ff ff    	mov    -0x1984(%rbp),%eax
   1a11f:	0f be c0             	movsbl %al,%eax
   1a122:	be 03 00 00 00       	mov    $0x3,%esi
   1a127:	89 c7                	mov    %eax,%edi
   1a129:	e8 73 f1 fe ff       	callq  92a1 <safe_lshift_func_int8_t_s_s>
   1a12e:	0f be d0             	movsbl %al,%edx
   1a131:	48 8b 05 e0 a1 00 00 	mov    0xa1e0(%rip),%rax        # 24318 <g_215>
   1a138:	8b 00                	mov    (%rax),%eax
   1a13a:	39 c2                	cmp    %eax,%edx
   1a13c:	0f 95 c2             	setne  %dl
   1a13f:	48 83 bd 10 e8 ff ff 	cmpq   $0x0,-0x17f0(%rbp)
   1a146:	00 
   1a147:	0f 95 c0             	setne  %al
   1a14a:	31 d0                	xor    %edx,%eax
   1a14c:	0f b6 c0             	movzbl %al,%eax
   1a14f:	be 05 00 00 00       	mov    $0x5,%esi
   1a154:	89 c7                	mov    %eax,%edi
   1a156:	e8 f1 fa fe ff       	callq  9c4c <safe_lshift_func_uint8_t_u_u>
   1a15b:	0f b6 c0             	movzbl %al,%eax
   1a15e:	89 de                	mov    %ebx,%esi
   1a160:	89 c7                	mov    %eax,%edi
   1a162:	e8 8e f2 fe ff       	callq  93f5 <safe_mul_func_int16_t_s_s>
   1a167:	48 8b 15 a2 a1 00 00 	mov    0xa1a2(%rip),%rdx        # 24310 <g_197>
   1a16e:	48 8b 0a             	mov    (%rdx),%rcx
   1a171:	48 8d 95 88 e6 ff ff 	lea    -0x1978(%rbp),%rdx
   1a178:	48 39 d1             	cmp    %rdx,%rcx
   1a17b:	0f 95 c2             	setne  %dl
   1a17e:	0f b6 d2             	movzbl %dl,%edx
   1a181:	48 39 95 a0 e8 ff ff 	cmp    %rdx,-0x1760(%rbp)
   1a188:	98                   	cwtl   
   1a189:	31 85 c0 e6 ff ff    	xor    %eax,-0x1940(%rbp)
   1a18f:	48 8b 85 70 e6 ff ff 	mov    -0x1990(%rbp),%rax
   1a196:	48 8b 00             	mov    (%rax),%rax
   1a199:	8b 00                	mov    (%rax),%eax
   1a19b:	85 c0                	test   %eax,%eax
   1a19d:	0f 95 c0             	setne  %al
   1a1a0:	0f b6 c0             	movzbl %al,%eax
   1a1a3:	89 85 a0 e6 ff ff    	mov    %eax,-0x1960(%rbp)
   1a1a9:	ba 01 00 00 00       	mov    $0x1,%edx
   1a1ae:	8b 85 3c ea ff ff    	mov    -0x15c4(%rbp),%eax
   1a1b4:	21 d0                	and    %edx,%eax
   1a1b6:	89 85 3c ea ff ff    	mov    %eax,-0x15c4(%rbp)
   1a1bc:	8b 85 3c ea ff ff    	mov    -0x15c4(%rbp),%eax
   1a1c2:	0f b6 c0             	movzbl %al,%eax
   1a1c5:	44 89 e6             	mov    %r12d,%esi
   1a1c8:	89 c7                	mov    %eax,%edi
   1a1ca:	e8 be fa fe ff       	callq  9c8d <safe_rshift_func_uint8_t_u_s>
   1a1cf:	be 00 00 00 00       	mov    $0x0,%esi
   1a1d4:	bf 00 00 00 00       	mov    $0x0,%edi
   1a1d9:	e8 10 f1 fe ff       	callq  92ee <safe_lshift_func_int8_t_s_u>
   1a1de:	0f be c0             	movsbl %al,%eax
   1a1e1:	0b 85 7c e6 ff ff    	or     -0x1984(%rbp),%eax
   1a1e7:	3d e2 00 00 00       	cmp    $0xe2,%eax
   1a1ec:	0f 95 c0             	setne  %al
   1a1ef:	0f b6 c0             	movzbl %al,%eax
   1a1f2:	89 85 8c ea ff ff    	mov    %eax,-0x1574(%rbp)
   1a1f8:	48 8b 05 11 a1 00 00 	mov    0xa111(%rip),%rax        # 24310 <g_197>
   1a1ff:	48 8b 00             	mov    (%rax),%rax
   1a202:	0f b7 00             	movzwl (%rax),%eax
   1a205:	e9 9d 2a 00 00       	jmpq   1cca7 <func_92+0x451e>
   1a20a:	66 c7 85 8e e6 ff ff 	movw   $0x6,-0x1972(%rbp)
   1a211:	06 00 
   1a213:	48 8d 05 9e 7e 00 00 	lea    0x7e9e(%rip),%rax        # 220b8 <g_148>
   1a21a:	48 89 85 50 e8 ff ff 	mov    %rax,-0x17b0(%rbp)
   1a221:	48 8d 85 81 e6 ff ff 	lea    -0x197f(%rbp),%rax
   1a228:	48 89 85 40 f8 ff ff 	mov    %rax,-0x7c0(%rbp)
   1a22f:	48 c7 85 48 f8 ff ff 	movq   $0x0,-0x7b8(%rbp)
   1a236:	00 00 00 00 
   1a23a:	48 8d 85 83 e6 ff ff 	lea    -0x197d(%rbp),%rax
   1a241:	48 89 85 50 f8 ff ff 	mov    %rax,-0x7b0(%rbp)
   1a248:	48 8d 85 83 e6 ff ff 	lea    -0x197d(%rbp),%rax
   1a24f:	48 89 85 58 f8 ff ff 	mov    %rax,-0x7a8(%rbp)
   1a256:	48 c7 85 60 f8 ff ff 	movq   $0x0,-0x7a0(%rbp)
   1a25d:	00 00 00 00 
   1a261:	48 8d 85 83 e6 ff ff 	lea    -0x197d(%rbp),%rax
   1a268:	48 89 85 68 f8 ff ff 	mov    %rax,-0x798(%rbp)
   1a26f:	48 8d 85 81 e6 ff ff 	lea    -0x197f(%rbp),%rax
   1a276:	48 89 85 70 f8 ff ff 	mov    %rax,-0x790(%rbp)
   1a27d:	48 8d 85 83 e6 ff ff 	lea    -0x197d(%rbp),%rax
   1a284:	48 89 85 78 f8 ff ff 	mov    %rax,-0x788(%rbp)
   1a28b:	48 8d 85 83 e6 ff ff 	lea    -0x197d(%rbp),%rax
   1a292:	48 89 85 80 f8 ff ff 	mov    %rax,-0x780(%rbp)
   1a299:	48 8d 85 84 e6 ff ff 	lea    -0x197c(%rbp),%rax
   1a2a0:	48 89 85 88 f8 ff ff 	mov    %rax,-0x778(%rbp)
   1a2a7:	48 c7 85 90 f8 ff ff 	movq   $0x0,-0x770(%rbp)
   1a2ae:	00 00 00 00 
   1a2b2:	48 8d 85 81 e6 ff ff 	lea    -0x197f(%rbp),%rax
   1a2b9:	48 89 85 98 f8 ff ff 	mov    %rax,-0x768(%rbp)
   1a2c0:	48 8d 85 83 e6 ff ff 	lea    -0x197d(%rbp),%rax
   1a2c7:	48 89 85 a0 f8 ff ff 	mov    %rax,-0x760(%rbp)
   1a2ce:	48 8d 85 83 e6 ff ff 	lea    -0x197d(%rbp),%rax
   1a2d5:	48 89 85 a8 f8 ff ff 	mov    %rax,-0x758(%rbp)
   1a2dc:	48 8d 85 84 e6 ff ff 	lea    -0x197c(%rbp),%rax
   1a2e3:	48 89 85 b0 f8 ff ff 	mov    %rax,-0x750(%rbp)
   1a2ea:	48 8d 85 83 e6 ff ff 	lea    -0x197d(%rbp),%rax
   1a2f1:	48 89 85 b8 f8 ff ff 	mov    %rax,-0x748(%rbp)
   1a2f8:	48 8d 85 81 e6 ff ff 	lea    -0x197f(%rbp),%rax
   1a2ff:	48 89 85 c0 f8 ff ff 	mov    %rax,-0x740(%rbp)
   1a306:	48 8d 05 8d 7d 00 00 	lea    0x7d8d(%rip),%rax        # 2209a <g_63+0x2>
   1a30d:	48 89 85 c8 f8 ff ff 	mov    %rax,-0x738(%rbp)
   1a314:	48 8d 85 84 e6 ff ff 	lea    -0x197c(%rbp),%rax
   1a31b:	48 89 85 d0 f8 ff ff 	mov    %rax,-0x730(%rbp)
   1a322:	48 8d 85 81 e6 ff ff 	lea    -0x197f(%rbp),%rax
   1a329:	48 89 85 d8 f8 ff ff 	mov    %rax,-0x728(%rbp)
   1a330:	48 8d 85 84 e6 ff ff 	lea    -0x197c(%rbp),%rax
   1a337:	48 89 85 e0 f8 ff ff 	mov    %rax,-0x720(%rbp)
   1a33e:	48 8d 85 84 e6 ff ff 	lea    -0x197c(%rbp),%rax
   1a345:	48 89 85 e8 f8 ff ff 	mov    %rax,-0x718(%rbp)
   1a34c:	48 8d 05 47 7d 00 00 	lea    0x7d47(%rip),%rax        # 2209a <g_63+0x2>
   1a353:	48 89 85 f0 f8 ff ff 	mov    %rax,-0x710(%rbp)
   1a35a:	48 8d 85 84 e6 ff ff 	lea    -0x197c(%rbp),%rax
   1a361:	48 89 85 f8 f8 ff ff 	mov    %rax,-0x708(%rbp)
   1a368:	48 8d 85 83 e6 ff ff 	lea    -0x197d(%rbp),%rax
   1a36f:	48 89 85 00 f9 ff ff 	mov    %rax,-0x700(%rbp)
   1a376:	48 8d 05 1d 7d 00 00 	lea    0x7d1d(%rip),%rax        # 2209a <g_63+0x2>
   1a37d:	48 89 85 08 f9 ff ff 	mov    %rax,-0x6f8(%rbp)
   1a384:	48 8d 85 84 e6 ff ff 	lea    -0x197c(%rbp),%rax
   1a38b:	48 89 85 10 f9 ff ff 	mov    %rax,-0x6f0(%rbp)
   1a392:	48 c7 85 18 f9 ff ff 	movq   $0x0,-0x6e8(%rbp)
   1a399:	00 00 00 00 
   1a39d:	48 8d 85 83 e6 ff ff 	lea    -0x197d(%rbp),%rax
   1a3a4:	48 89 85 20 f9 ff ff 	mov    %rax,-0x6e0(%rbp)
   1a3ab:	48 8d 85 84 e6 ff ff 	lea    -0x197c(%rbp),%rax
   1a3b2:	48 89 85 28 f9 ff ff 	mov    %rax,-0x6d8(%rbp)
   1a3b9:	48 8d 05 da 7c 00 00 	lea    0x7cda(%rip),%rax        # 2209a <g_63+0x2>
   1a3c0:	48 89 85 30 f9 ff ff 	mov    %rax,-0x6d0(%rbp)
   1a3c7:	48 c7 85 38 f9 ff ff 	movq   $0x0,-0x6c8(%rbp)
   1a3ce:	00 00 00 00 
   1a3d2:	48 8d 85 84 e6 ff ff 	lea    -0x197c(%rbp),%rax
   1a3d9:	48 89 85 40 f9 ff ff 	mov    %rax,-0x6c0(%rbp)
   1a3e0:	48 c7 85 48 f9 ff ff 	movq   $0x0,-0x6b8(%rbp)
   1a3e7:	00 00 00 00 
   1a3eb:	48 8d 85 84 e6 ff ff 	lea    -0x197c(%rbp),%rax
   1a3f2:	48 89 85 50 f9 ff ff 	mov    %rax,-0x6b0(%rbp)
   1a3f9:	48 8d 85 81 e6 ff ff 	lea    -0x197f(%rbp),%rax
   1a400:	48 89 85 58 f9 ff ff 	mov    %rax,-0x6a8(%rbp)
   1a407:	48 8d 85 81 e6 ff ff 	lea    -0x197f(%rbp),%rax
   1a40e:	48 89 85 60 f9 ff ff 	mov    %rax,-0x6a0(%rbp)
   1a415:	48 8d 05 7e 7c 00 00 	lea    0x7c7e(%rip),%rax        # 2209a <g_63+0x2>
   1a41c:	48 89 85 68 f9 ff ff 	mov    %rax,-0x698(%rbp)
   1a423:	48 8d 85 84 e6 ff ff 	lea    -0x197c(%rbp),%rax
   1a42a:	48 89 85 70 f9 ff ff 	mov    %rax,-0x690(%rbp)
   1a431:	48 8d 85 84 e6 ff ff 	lea    -0x197c(%rbp),%rax
   1a438:	48 89 85 78 f9 ff ff 	mov    %rax,-0x688(%rbp)
   1a43f:	48 8d 85 83 e6 ff ff 	lea    -0x197d(%rbp),%rax
   1a446:	48 89 85 80 f9 ff ff 	mov    %rax,-0x680(%rbp)
   1a44d:	48 8d 85 81 e6 ff ff 	lea    -0x197f(%rbp),%rax
   1a454:	48 89 85 88 f9 ff ff 	mov    %rax,-0x678(%rbp)
   1a45b:	48 c7 85 90 f9 ff ff 	movq   $0x0,-0x670(%rbp)
   1a462:	00 00 00 00 
   1a466:	48 8d 85 81 e6 ff ff 	lea    -0x197f(%rbp),%rax
   1a46d:	48 89 85 98 f9 ff ff 	mov    %rax,-0x668(%rbp)
   1a474:	48 8d 85 81 e6 ff ff 	lea    -0x197f(%rbp),%rax
   1a47b:	48 89 85 a0 f9 ff ff 	mov    %rax,-0x660(%rbp)
   1a482:	48 8d 85 83 e6 ff ff 	lea    -0x197d(%rbp),%rax
   1a489:	48 89 85 a8 f9 ff ff 	mov    %rax,-0x658(%rbp)
   1a490:	48 8d 85 83 e6 ff ff 	lea    -0x197d(%rbp),%rax
   1a497:	48 89 85 b0 f9 ff ff 	mov    %rax,-0x650(%rbp)
   1a49e:	48 8d 85 84 e6 ff ff 	lea    -0x197c(%rbp),%rax
   1a4a5:	48 89 85 b8 f9 ff ff 	mov    %rax,-0x648(%rbp)
   1a4ac:	48 8d 85 83 e6 ff ff 	lea    -0x197d(%rbp),%rax
   1a4b3:	48 89 85 c0 f9 ff ff 	mov    %rax,-0x640(%rbp)
   1a4ba:	48 c7 85 c8 f9 ff ff 	movq   $0x0,-0x638(%rbp)
   1a4c1:	00 00 00 00 
   1a4c5:	48 8d 85 84 e6 ff ff 	lea    -0x197c(%rbp),%rax
   1a4cc:	48 89 85 d0 f9 ff ff 	mov    %rax,-0x630(%rbp)
   1a4d3:	48 c7 85 d8 f9 ff ff 	movq   $0x0,-0x628(%rbp)
   1a4da:	00 00 00 00 
   1a4de:	48 8d 85 83 e6 ff ff 	lea    -0x197d(%rbp),%rax
   1a4e5:	48 89 85 e0 f9 ff ff 	mov    %rax,-0x620(%rbp)
   1a4ec:	48 8d 85 84 e6 ff ff 	lea    -0x197c(%rbp),%rax
   1a4f3:	48 89 85 e8 f9 ff ff 	mov    %rax,-0x618(%rbp)
   1a4fa:	48 8d 85 84 e6 ff ff 	lea    -0x197c(%rbp),%rax
   1a501:	48 89 85 f0 f9 ff ff 	mov    %rax,-0x610(%rbp)
   1a508:	48 8d 85 83 e6 ff ff 	lea    -0x197d(%rbp),%rax
   1a50f:	48 89 85 f8 f9 ff ff 	mov    %rax,-0x608(%rbp)
   1a516:	48 8d 85 84 e6 ff ff 	lea    -0x197c(%rbp),%rax
   1a51d:	48 89 85 00 fa ff ff 	mov    %rax,-0x600(%rbp)
   1a524:	48 8d 85 84 e6 ff ff 	lea    -0x197c(%rbp),%rax
   1a52b:	48 89 85 08 fa ff ff 	mov    %rax,-0x5f8(%rbp)
   1a532:	48 8d 85 83 e6 ff ff 	lea    -0x197d(%rbp),%rax
   1a539:	48 89 85 10 fa ff ff 	mov    %rax,-0x5f0(%rbp)
   1a540:	48 c7 85 18 fa ff ff 	movq   $0x0,-0x5e8(%rbp)
   1a547:	00 00 00 00 
   1a54b:	48 8d 85 81 e6 ff ff 	lea    -0x197f(%rbp),%rax
   1a552:	48 89 85 20 fa ff ff 	mov    %rax,-0x5e0(%rbp)
   1a559:	48 c7 85 28 fa ff ff 	movq   $0x0,-0x5d8(%rbp)
   1a560:	00 00 00 00 
   1a564:	48 8d 85 81 e6 ff ff 	lea    -0x197f(%rbp),%rax
   1a56b:	48 89 85 30 fa ff ff 	mov    %rax,-0x5d0(%rbp)
   1a572:	48 8d 85 84 e6 ff ff 	lea    -0x197c(%rbp),%rax
   1a579:	48 89 85 38 fa ff ff 	mov    %rax,-0x5c8(%rbp)
   1a580:	48 8d 85 84 e6 ff ff 	lea    -0x197c(%rbp),%rax
   1a587:	48 89 85 40 fa ff ff 	mov    %rax,-0x5c0(%rbp)
   1a58e:	48 8d 85 83 e6 ff ff 	lea    -0x197d(%rbp),%rax
   1a595:	48 89 85 48 fa ff ff 	mov    %rax,-0x5b8(%rbp)
   1a59c:	48 8d 85 83 e6 ff ff 	lea    -0x197d(%rbp),%rax
   1a5a3:	48 89 85 50 fa ff ff 	mov    %rax,-0x5b0(%rbp)
   1a5aa:	48 8d 85 81 e6 ff ff 	lea    -0x197f(%rbp),%rax
   1a5b1:	48 89 85 58 fa ff ff 	mov    %rax,-0x5a8(%rbp)
   1a5b8:	48 8d 85 83 e6 ff ff 	lea    -0x197d(%rbp),%rax
   1a5bf:	48 89 85 60 fa ff ff 	mov    %rax,-0x5a0(%rbp)
   1a5c6:	48 8d 85 83 e6 ff ff 	lea    -0x197d(%rbp),%rax
   1a5cd:	48 89 85 68 fa ff ff 	mov    %rax,-0x598(%rbp)
   1a5d4:	48 8d 85 84 e6 ff ff 	lea    -0x197c(%rbp),%rax
   1a5db:	48 89 85 70 fa ff ff 	mov    %rax,-0x590(%rbp)
   1a5e2:	48 8d 05 b1 7a 00 00 	lea    0x7ab1(%rip),%rax        # 2209a <g_63+0x2>
   1a5e9:	48 89 85 78 fa ff ff 	mov    %rax,-0x588(%rbp)
   1a5f0:	48 8d 85 84 e6 ff ff 	lea    -0x197c(%rbp),%rax
   1a5f7:	48 89 85 80 fa ff ff 	mov    %rax,-0x580(%rbp)
   1a5fe:	48 8d 05 95 7a 00 00 	lea    0x7a95(%rip),%rax        # 2209a <g_63+0x2>
   1a605:	48 89 85 88 fa ff ff 	mov    %rax,-0x578(%rbp)
   1a60c:	48 8d 85 84 e6 ff ff 	lea    -0x197c(%rbp),%rax
   1a613:	48 89 85 90 fa ff ff 	mov    %rax,-0x570(%rbp)
   1a61a:	48 8d 85 83 e6 ff ff 	lea    -0x197d(%rbp),%rax
   1a621:	48 89 85 98 fa ff ff 	mov    %rax,-0x568(%rbp)
   1a628:	48 8d 85 81 e6 ff ff 	lea    -0x197f(%rbp),%rax
   1a62f:	48 89 85 a0 fa ff ff 	mov    %rax,-0x560(%rbp)
   1a636:	48 8d 05 5d 7a 00 00 	lea    0x7a5d(%rip),%rax        # 2209a <g_63+0x2>
   1a63d:	48 89 85 a8 fa ff ff 	mov    %rax,-0x558(%rbp)
   1a644:	48 8d 05 4f 7a 00 00 	lea    0x7a4f(%rip),%rax        # 2209a <g_63+0x2>
   1a64b:	48 89 85 b0 fa ff ff 	mov    %rax,-0x550(%rbp)
   1a652:	48 8d 85 84 e6 ff ff 	lea    -0x197c(%rbp),%rax
   1a659:	48 89 85 b8 fa ff ff 	mov    %rax,-0x548(%rbp)
   1a660:	48 8d 85 84 e6 ff ff 	lea    -0x197c(%rbp),%rax
   1a667:	48 89 85 c0 fa ff ff 	mov    %rax,-0x540(%rbp)
   1a66e:	48 8d 85 81 e6 ff ff 	lea    -0x197f(%rbp),%rax
   1a675:	48 89 85 c8 fa ff ff 	mov    %rax,-0x538(%rbp)
   1a67c:	48 8d 85 81 e6 ff ff 	lea    -0x197f(%rbp),%rax
   1a683:	48 89 85 d0 fa ff ff 	mov    %rax,-0x530(%rbp)
   1a68a:	48 8d 05 09 7a 00 00 	lea    0x7a09(%rip),%rax        # 2209a <g_63+0x2>
   1a691:	48 89 85 d8 fa ff ff 	mov    %rax,-0x528(%rbp)
   1a698:	48 8d 85 81 e6 ff ff 	lea    -0x197f(%rbp),%rax
   1a69f:	48 89 85 e0 fa ff ff 	mov    %rax,-0x520(%rbp)
   1a6a6:	48 8d 85 84 e6 ff ff 	lea    -0x197c(%rbp),%rax
   1a6ad:	48 89 85 e8 fa ff ff 	mov    %rax,-0x518(%rbp)
   1a6b4:	48 8d 85 81 e6 ff ff 	lea    -0x197f(%rbp),%rax
   1a6bb:	48 89 85 f0 fa ff ff 	mov    %rax,-0x510(%rbp)
   1a6c2:	48 8d 85 81 e6 ff ff 	lea    -0x197f(%rbp),%rax
   1a6c9:	48 89 85 f8 fa ff ff 	mov    %rax,-0x508(%rbp)
   1a6d0:	48 8d 85 84 e6 ff ff 	lea    -0x197c(%rbp),%rax
   1a6d7:	48 89 85 00 fb ff ff 	mov    %rax,-0x500(%rbp)
   1a6de:	48 8d 85 84 e6 ff ff 	lea    -0x197c(%rbp),%rax
   1a6e5:	48 89 85 08 fb ff ff 	mov    %rax,-0x4f8(%rbp)
   1a6ec:	48 8d 05 a7 79 00 00 	lea    0x79a7(%rip),%rax        # 2209a <g_63+0x2>
   1a6f3:	48 89 85 10 fb ff ff 	mov    %rax,-0x4f0(%rbp)
   1a6fa:	48 8d 05 99 79 00 00 	lea    0x7999(%rip),%rax        # 2209a <g_63+0x2>
   1a701:	48 89 85 18 fb ff ff 	mov    %rax,-0x4e8(%rbp)
   1a708:	48 8d 85 81 e6 ff ff 	lea    -0x197f(%rbp),%rax
   1a70f:	48 89 85 20 fb ff ff 	mov    %rax,-0x4e0(%rbp)
   1a716:	48 c7 85 28 fb ff ff 	movq   $0x0,-0x4d8(%rbp)
   1a71d:	00 00 00 00 
   1a721:	48 8d 85 84 e6 ff ff 	lea    -0x197c(%rbp),%rax
   1a728:	48 89 85 30 fb ff ff 	mov    %rax,-0x4d0(%rbp)
   1a72f:	48 8d 05 64 79 00 00 	lea    0x7964(%rip),%rax        # 2209a <g_63+0x2>
   1a736:	48 89 85 38 fb ff ff 	mov    %rax,-0x4c8(%rbp)
   1a73d:	48 8d 85 84 e6 ff ff 	lea    -0x197c(%rbp),%rax
   1a744:	48 89 85 40 fb ff ff 	mov    %rax,-0x4c0(%rbp)
   1a74b:	48 8d 05 48 79 00 00 	lea    0x7948(%rip),%rax        # 2209a <g_63+0x2>
   1a752:	48 89 85 48 fb ff ff 	mov    %rax,-0x4b8(%rbp)
   1a759:	48 8d 85 84 e6 ff ff 	lea    -0x197c(%rbp),%rax
   1a760:	48 89 85 50 fb ff ff 	mov    %rax,-0x4b0(%rbp)
   1a767:	48 8d 85 84 e6 ff ff 	lea    -0x197c(%rbp),%rax
   1a76e:	48 89 85 58 fb ff ff 	mov    %rax,-0x4a8(%rbp)
   1a775:	48 8d 85 83 e6 ff ff 	lea    -0x197d(%rbp),%rax
   1a77c:	48 89 85 60 fb ff ff 	mov    %rax,-0x4a0(%rbp)
   1a783:	48 8d 85 81 e6 ff ff 	lea    -0x197f(%rbp),%rax
   1a78a:	48 89 85 68 fb ff ff 	mov    %rax,-0x498(%rbp)
   1a791:	48 8d 85 83 e6 ff ff 	lea    -0x197d(%rbp),%rax
   1a798:	48 89 85 70 fb ff ff 	mov    %rax,-0x490(%rbp)
   1a79f:	48 c7 85 78 fb ff ff 	movq   $0x0,-0x488(%rbp)
   1a7a6:	00 00 00 00 
   1a7aa:	48 8d 85 84 e6 ff ff 	lea    -0x197c(%rbp),%rax
   1a7b1:	48 89 85 80 fb ff ff 	mov    %rax,-0x480(%rbp)
   1a7b8:	48 c7 85 88 fb ff ff 	movq   $0x0,-0x478(%rbp)
   1a7bf:	00 00 00 00 
   1a7c3:	48 8d 85 81 e6 ff ff 	lea    -0x197f(%rbp),%rax
   1a7ca:	48 89 85 90 fb ff ff 	mov    %rax,-0x470(%rbp)
   1a7d1:	48 8d 85 81 e6 ff ff 	lea    -0x197f(%rbp),%rax
   1a7d8:	48 89 85 98 fb ff ff 	mov    %rax,-0x468(%rbp)
   1a7df:	48 8d 85 81 e6 ff ff 	lea    -0x197f(%rbp),%rax
   1a7e6:	48 89 85 a0 fb ff ff 	mov    %rax,-0x460(%rbp)
   1a7ed:	48 8d 85 81 e6 ff ff 	lea    -0x197f(%rbp),%rax
   1a7f4:	48 89 85 a8 fb ff ff 	mov    %rax,-0x458(%rbp)
   1a7fb:	48 8d 85 83 e6 ff ff 	lea    -0x197d(%rbp),%rax
   1a802:	48 89 85 b0 fb ff ff 	mov    %rax,-0x450(%rbp)
   1a809:	48 c7 85 b8 fb ff ff 	movq   $0x0,-0x448(%rbp)
   1a810:	00 00 00 00 
   1a814:	48 8d 85 84 e6 ff ff 	lea    -0x197c(%rbp),%rax
   1a81b:	48 89 85 c0 fb ff ff 	mov    %rax,-0x440(%rbp)
   1a822:	48 8d 85 81 e6 ff ff 	lea    -0x197f(%rbp),%rax
   1a829:	48 89 85 c8 fb ff ff 	mov    %rax,-0x438(%rbp)
   1a830:	48 8d 85 84 e6 ff ff 	lea    -0x197c(%rbp),%rax
   1a837:	48 89 85 d0 fb ff ff 	mov    %rax,-0x430(%rbp)
   1a83e:	48 c7 85 d8 fb ff ff 	movq   $0x0,-0x428(%rbp)
   1a845:	00 00 00 00 
   1a849:	48 8d 85 83 e6 ff ff 	lea    -0x197d(%rbp),%rax
   1a850:	48 89 85 e0 fb ff ff 	mov    %rax,-0x420(%rbp)
   1a857:	48 8d 85 81 e6 ff ff 	lea    -0x197f(%rbp),%rax
   1a85e:	48 89 85 e8 fb ff ff 	mov    %rax,-0x418(%rbp)
   1a865:	48 8d 85 84 e6 ff ff 	lea    -0x197c(%rbp),%rax
   1a86c:	48 89 85 f0 fb ff ff 	mov    %rax,-0x410(%rbp)
   1a873:	48 8d 85 81 e6 ff ff 	lea    -0x197f(%rbp),%rax
   1a87a:	48 89 85 f8 fb ff ff 	mov    %rax,-0x408(%rbp)
   1a881:	48 8d 85 83 e6 ff ff 	lea    -0x197d(%rbp),%rax
   1a888:	48 89 85 00 fc ff ff 	mov    %rax,-0x400(%rbp)
   1a88f:	48 c7 85 08 fc ff ff 	movq   $0x0,-0x3f8(%rbp)
   1a896:	00 00 00 00 
   1a89a:	48 8d 85 83 e6 ff ff 	lea    -0x197d(%rbp),%rax
   1a8a1:	48 89 85 10 fc ff ff 	mov    %rax,-0x3f0(%rbp)
   1a8a8:	48 c7 85 18 fc ff ff 	movq   $0x0,-0x3e8(%rbp)
   1a8af:	00 00 00 00 
   1a8b3:	48 8d 85 81 e6 ff ff 	lea    -0x197f(%rbp),%rax
   1a8ba:	48 89 85 20 fc ff ff 	mov    %rax,-0x3e0(%rbp)
   1a8c1:	48 8d 85 81 e6 ff ff 	lea    -0x197f(%rbp),%rax
   1a8c8:	48 89 85 28 fc ff ff 	mov    %rax,-0x3d8(%rbp)
   1a8cf:	48 8d 85 81 e6 ff ff 	lea    -0x197f(%rbp),%rax
   1a8d6:	48 89 85 30 fc ff ff 	mov    %rax,-0x3d0(%rbp)
   1a8dd:	48 8d 85 84 e6 ff ff 	lea    -0x197c(%rbp),%rax
   1a8e4:	48 89 85 38 fc ff ff 	mov    %rax,-0x3c8(%rbp)
   1a8eb:	48 8d 05 a8 77 00 00 	lea    0x77a8(%rip),%rax        # 2209a <g_63+0x2>
   1a8f2:	48 89 85 40 fc ff ff 	mov    %rax,-0x3c0(%rbp)
   1a8f9:	48 8d 05 9a 77 00 00 	lea    0x779a(%rip),%rax        # 2209a <g_63+0x2>
   1a900:	48 89 85 48 fc ff ff 	mov    %rax,-0x3b8(%rbp)
   1a907:	48 c7 85 50 fc ff ff 	movq   $0x0,-0x3b0(%rbp)
   1a90e:	00 00 00 00 
   1a912:	48 8d 05 81 77 00 00 	lea    0x7781(%rip),%rax        # 2209a <g_63+0x2>
   1a919:	48 89 85 58 fc ff ff 	mov    %rax,-0x3a8(%rbp)
   1a920:	48 8d 85 81 e6 ff ff 	lea    -0x197f(%rbp),%rax
   1a927:	48 89 85 60 fc ff ff 	mov    %rax,-0x3a0(%rbp)
   1a92e:	48 c7 85 68 fc ff ff 	movq   $0x0,-0x398(%rbp)
   1a935:	00 00 00 00 
   1a939:	48 8d 85 83 e6 ff ff 	lea    -0x197d(%rbp),%rax
   1a940:	48 89 85 70 fc ff ff 	mov    %rax,-0x390(%rbp)
   1a947:	48 8d 05 4c 77 00 00 	lea    0x774c(%rip),%rax        # 2209a <g_63+0x2>
   1a94e:	48 89 85 78 fc ff ff 	mov    %rax,-0x388(%rbp)
   1a955:	48 c7 85 80 fc ff ff 	movq   $0x0,-0x380(%rbp)
   1a95c:	00 00 00 00 
   1a960:	48 8d 85 84 e6 ff ff 	lea    -0x197c(%rbp),%rax
   1a967:	48 89 85 88 fc ff ff 	mov    %rax,-0x378(%rbp)
   1a96e:	48 8d 85 84 e6 ff ff 	lea    -0x197c(%rbp),%rax
   1a975:	48 89 85 90 fc ff ff 	mov    %rax,-0x370(%rbp)
   1a97c:	48 8d 85 81 e6 ff ff 	lea    -0x197f(%rbp),%rax
   1a983:	48 89 85 98 fc ff ff 	mov    %rax,-0x368(%rbp)
   1a98a:	48 8d 05 09 77 00 00 	lea    0x7709(%rip),%rax        # 2209a <g_63+0x2>
   1a991:	48 89 85 a0 fc ff ff 	mov    %rax,-0x360(%rbp)
   1a998:	48 8d 85 84 e6 ff ff 	lea    -0x197c(%rbp),%rax
   1a99f:	48 89 85 a8 fc ff ff 	mov    %rax,-0x358(%rbp)
   1a9a6:	48 8d 85 83 e6 ff ff 	lea    -0x197d(%rbp),%rax
   1a9ad:	48 89 85 b0 fc ff ff 	mov    %rax,-0x350(%rbp)
   1a9b4:	48 8d 05 df 76 00 00 	lea    0x76df(%rip),%rax        # 2209a <g_63+0x2>
   1a9bb:	48 89 85 b8 fc ff ff 	mov    %rax,-0x348(%rbp)
   1a9c2:	48 8d 05 d1 76 00 00 	lea    0x76d1(%rip),%rax        # 2209a <g_63+0x2>
   1a9c9:	48 89 85 c0 fc ff ff 	mov    %rax,-0x340(%rbp)
   1a9d0:	48 8d 85 81 e6 ff ff 	lea    -0x197f(%rbp),%rax
   1a9d7:	48 89 85 c8 fc ff ff 	mov    %rax,-0x338(%rbp)
   1a9de:	48 8d 85 84 e6 ff ff 	lea    -0x197c(%rbp),%rax
   1a9e5:	48 89 85 d0 fc ff ff 	mov    %rax,-0x330(%rbp)
   1a9ec:	48 8d 85 84 e6 ff ff 	lea    -0x197c(%rbp),%rax
   1a9f3:	48 89 85 d8 fc ff ff 	mov    %rax,-0x328(%rbp)
   1a9fa:	48 c7 85 e0 fc ff ff 	movq   $0x0,-0x320(%rbp)
   1aa01:	00 00 00 00 
   1aa05:	48 8d 05 8e 76 00 00 	lea    0x768e(%rip),%rax        # 2209a <g_63+0x2>
   1aa0c:	48 89 85 e8 fc ff ff 	mov    %rax,-0x318(%rbp)
   1aa13:	48 8d 85 83 e6 ff ff 	lea    -0x197d(%rbp),%rax
   1aa1a:	48 89 85 f0 fc ff ff 	mov    %rax,-0x310(%rbp)
   1aa21:	48 8d 85 83 e6 ff ff 	lea    -0x197d(%rbp),%rax
   1aa28:	48 89 85 f8 fc ff ff 	mov    %rax,-0x308(%rbp)
   1aa2f:	48 8d 85 81 e6 ff ff 	lea    -0x197f(%rbp),%rax
   1aa36:	48 89 85 00 fd ff ff 	mov    %rax,-0x300(%rbp)
   1aa3d:	48 8d 05 56 76 00 00 	lea    0x7656(%rip),%rax        # 2209a <g_63+0x2>
   1aa44:	48 89 85 08 fd ff ff 	mov    %rax,-0x2f8(%rbp)
   1aa4b:	48 c7 85 10 fd ff ff 	movq   $0x0,-0x2f0(%rbp)
   1aa52:	00 00 00 00 
   1aa56:	48 8d 05 3d 76 00 00 	lea    0x763d(%rip),%rax        # 2209a <g_63+0x2>
   1aa5d:	48 89 85 18 fd ff ff 	mov    %rax,-0x2e8(%rbp)
   1aa64:	48 8d 05 2f 76 00 00 	lea    0x762f(%rip),%rax        # 2209a <g_63+0x2>
   1aa6b:	48 89 85 20 fd ff ff 	mov    %rax,-0x2e0(%rbp)
   1aa72:	48 8d 85 83 e6 ff ff 	lea    -0x197d(%rbp),%rax
   1aa79:	48 89 85 28 fd ff ff 	mov    %rax,-0x2d8(%rbp)
   1aa80:	48 8d 85 81 e6 ff ff 	lea    -0x197f(%rbp),%rax
   1aa87:	48 89 85 30 fd ff ff 	mov    %rax,-0x2d0(%rbp)
   1aa8e:	48 8d 85 81 e6 ff ff 	lea    -0x197f(%rbp),%rax
   1aa95:	48 89 85 38 fd ff ff 	mov    %rax,-0x2c8(%rbp)
   1aa9c:	48 8d 85 81 e6 ff ff 	lea    -0x197f(%rbp),%rax
   1aaa3:	48 89 85 40 fd ff ff 	mov    %rax,-0x2c0(%rbp)
   1aaaa:	48 8d 85 83 e6 ff ff 	lea    -0x197d(%rbp),%rax
   1aab1:	48 89 85 48 fd ff ff 	mov    %rax,-0x2b8(%rbp)
   1aab8:	48 8d 85 83 e6 ff ff 	lea    -0x197d(%rbp),%rax
   1aabf:	48 89 85 50 fd ff ff 	mov    %rax,-0x2b0(%rbp)
   1aac6:	48 8d 85 84 e6 ff ff 	lea    -0x197c(%rbp),%rax
   1aacd:	48 89 85 58 fd ff ff 	mov    %rax,-0x2a8(%rbp)
   1aad4:	48 8d 85 83 e6 ff ff 	lea    -0x197d(%rbp),%rax
   1aadb:	48 89 85 60 fd ff ff 	mov    %rax,-0x2a0(%rbp)
   1aae2:	48 c7 85 68 fd ff ff 	movq   $0x0,-0x298(%rbp)
   1aae9:	00 00 00 00 
   1aaed:	48 8d 85 84 e6 ff ff 	lea    -0x197c(%rbp),%rax
   1aaf4:	48 89 85 70 fd ff ff 	mov    %rax,-0x290(%rbp)
   1aafb:	48 c7 85 78 fd ff ff 	movq   $0x0,-0x288(%rbp)
   1ab02:	00 00 00 00 
   1ab06:	48 8d 85 83 e6 ff ff 	lea    -0x197d(%rbp),%rax
   1ab0d:	48 89 85 80 fd ff ff 	mov    %rax,-0x280(%rbp)
   1ab14:	48 8d 85 84 e6 ff ff 	lea    -0x197c(%rbp),%rax
   1ab1b:	48 89 85 88 fd ff ff 	mov    %rax,-0x278(%rbp)
   1ab22:	48 8d 85 84 e6 ff ff 	lea    -0x197c(%rbp),%rax
   1ab29:	48 89 85 90 fd ff ff 	mov    %rax,-0x270(%rbp)
   1ab30:	48 8d 85 83 e6 ff ff 	lea    -0x197d(%rbp),%rax
   1ab37:	48 89 85 98 fd ff ff 	mov    %rax,-0x268(%rbp)
   1ab3e:	48 8d 85 84 e6 ff ff 	lea    -0x197c(%rbp),%rax
   1ab45:	48 89 85 a0 fd ff ff 	mov    %rax,-0x260(%rbp)
   1ab4c:	48 8d 85 84 e6 ff ff 	lea    -0x197c(%rbp),%rax
   1ab53:	48 89 85 a8 fd ff ff 	mov    %rax,-0x258(%rbp)
   1ab5a:	48 8d 85 83 e6 ff ff 	lea    -0x197d(%rbp),%rax
   1ab61:	48 89 85 b0 fd ff ff 	mov    %rax,-0x250(%rbp)
   1ab68:	48 c7 85 b8 fd ff ff 	movq   $0x0,-0x248(%rbp)
   1ab6f:	00 00 00 00 
   1ab73:	48 8d 85 81 e6 ff ff 	lea    -0x197f(%rbp),%rax
   1ab7a:	48 89 85 c0 fd ff ff 	mov    %rax,-0x240(%rbp)
   1ab81:	48 c7 85 c8 fd ff ff 	movq   $0x0,-0x238(%rbp)
   1ab88:	00 00 00 00 
   1ab8c:	48 8d 85 81 e6 ff ff 	lea    -0x197f(%rbp),%rax
   1ab93:	48 89 85 d0 fd ff ff 	mov    %rax,-0x230(%rbp)
   1ab9a:	48 8d 85 84 e6 ff ff 	lea    -0x197c(%rbp),%rax
   1aba1:	48 89 85 d8 fd ff ff 	mov    %rax,-0x228(%rbp)
   1aba8:	48 8d 85 84 e6 ff ff 	lea    -0x197c(%rbp),%rax
   1abaf:	48 89 85 e0 fd ff ff 	mov    %rax,-0x220(%rbp)
   1abb6:	48 8d 85 83 e6 ff ff 	lea    -0x197d(%rbp),%rax
   1abbd:	48 89 85 e8 fd ff ff 	mov    %rax,-0x218(%rbp)
   1abc4:	48 8d 85 83 e6 ff ff 	lea    -0x197d(%rbp),%rax
   1abcb:	48 89 85 f0 fd ff ff 	mov    %rax,-0x210(%rbp)
   1abd2:	48 8d 85 81 e6 ff ff 	lea    -0x197f(%rbp),%rax
   1abd9:	48 89 85 f8 fd ff ff 	mov    %rax,-0x208(%rbp)
   1abe0:	48 8d 85 83 e6 ff ff 	lea    -0x197d(%rbp),%rax
   1abe7:	48 89 85 00 fe ff ff 	mov    %rax,-0x200(%rbp)
   1abee:	48 8d 85 83 e6 ff ff 	lea    -0x197d(%rbp),%rax
   1abf5:	48 89 85 08 fe ff ff 	mov    %rax,-0x1f8(%rbp)
   1abfc:	48 8d 85 84 e6 ff ff 	lea    -0x197c(%rbp),%rax
   1ac03:	48 89 85 10 fe ff ff 	mov    %rax,-0x1f0(%rbp)
   1ac0a:	48 8d 05 89 74 00 00 	lea    0x7489(%rip),%rax        # 2209a <g_63+0x2>
   1ac11:	48 89 85 18 fe ff ff 	mov    %rax,-0x1e8(%rbp)
   1ac18:	48 8d 85 84 e6 ff ff 	lea    -0x197c(%rbp),%rax
   1ac1f:	48 89 85 20 fe ff ff 	mov    %rax,-0x1e0(%rbp)
   1ac26:	48 8d 05 6d 74 00 00 	lea    0x746d(%rip),%rax        # 2209a <g_63+0x2>
   1ac2d:	48 89 85 28 fe ff ff 	mov    %rax,-0x1d8(%rbp)
   1ac34:	48 8d 85 84 e6 ff ff 	lea    -0x197c(%rbp),%rax
   1ac3b:	48 89 85 30 fe ff ff 	mov    %rax,-0x1d0(%rbp)
   1ac42:	48 8d 85 83 e6 ff ff 	lea    -0x197d(%rbp),%rax
   1ac49:	48 89 85 38 fe ff ff 	mov    %rax,-0x1c8(%rbp)
   1ac50:	48 8d 85 81 e6 ff ff 	lea    -0x197f(%rbp),%rax
   1ac57:	48 89 85 40 fe ff ff 	mov    %rax,-0x1c0(%rbp)
   1ac5e:	48 8d 05 35 74 00 00 	lea    0x7435(%rip),%rax        # 2209a <g_63+0x2>
   1ac65:	48 89 85 48 fe ff ff 	mov    %rax,-0x1b8(%rbp)
   1ac6c:	48 8d 05 27 74 00 00 	lea    0x7427(%rip),%rax        # 2209a <g_63+0x2>
   1ac73:	48 89 85 50 fe ff ff 	mov    %rax,-0x1b0(%rbp)
   1ac7a:	48 8d 85 84 e6 ff ff 	lea    -0x197c(%rbp),%rax
   1ac81:	48 89 85 58 fe ff ff 	mov    %rax,-0x1a8(%rbp)
   1ac88:	48 8d 85 84 e6 ff ff 	lea    -0x197c(%rbp),%rax
   1ac8f:	48 89 85 60 fe ff ff 	mov    %rax,-0x1a0(%rbp)
   1ac96:	48 8d 85 81 e6 ff ff 	lea    -0x197f(%rbp),%rax
   1ac9d:	48 89 85 68 fe ff ff 	mov    %rax,-0x198(%rbp)
   1aca4:	48 8d 85 81 e6 ff ff 	lea    -0x197f(%rbp),%rax
   1acab:	48 89 85 70 fe ff ff 	mov    %rax,-0x190(%rbp)
   1acb2:	48 8d 05 e1 73 00 00 	lea    0x73e1(%rip),%rax        # 2209a <g_63+0x2>
   1acb9:	48 89 85 78 fe ff ff 	mov    %rax,-0x188(%rbp)
   1acc0:	48 8d 85 81 e6 ff ff 	lea    -0x197f(%rbp),%rax
   1acc7:	48 89 85 80 fe ff ff 	mov    %rax,-0x180(%rbp)
   1acce:	48 8d 85 84 e6 ff ff 	lea    -0x197c(%rbp),%rax
   1acd5:	48 89 85 88 fe ff ff 	mov    %rax,-0x178(%rbp)
   1acdc:	48 8d 85 81 e6 ff ff 	lea    -0x197f(%rbp),%rax
   1ace3:	48 89 85 90 fe ff ff 	mov    %rax,-0x170(%rbp)
   1acea:	48 8d 85 81 e6 ff ff 	lea    -0x197f(%rbp),%rax
   1acf1:	48 89 85 98 fe ff ff 	mov    %rax,-0x168(%rbp)
   1acf8:	48 8d 85 84 e6 ff ff 	lea    -0x197c(%rbp),%rax
   1acff:	48 89 85 a0 fe ff ff 	mov    %rax,-0x160(%rbp)
   1ad06:	48 8d 85 84 e6 ff ff 	lea    -0x197c(%rbp),%rax
   1ad0d:	48 89 85 a8 fe ff ff 	mov    %rax,-0x158(%rbp)
   1ad14:	48 8d 05 7f 73 00 00 	lea    0x737f(%rip),%rax        # 2209a <g_63+0x2>
   1ad1b:	48 89 85 b0 fe ff ff 	mov    %rax,-0x150(%rbp)
   1ad22:	48 8d 05 71 73 00 00 	lea    0x7371(%rip),%rax        # 2209a <g_63+0x2>
   1ad29:	48 89 85 b8 fe ff ff 	mov    %rax,-0x148(%rbp)
   1ad30:	48 8d 85 81 e6 ff ff 	lea    -0x197f(%rbp),%rax
   1ad37:	48 89 85 c0 fe ff ff 	mov    %rax,-0x140(%rbp)
   1ad3e:	48 c7 85 c8 fe ff ff 	movq   $0x0,-0x138(%rbp)
   1ad45:	00 00 00 00 
   1ad49:	48 8d 85 84 e6 ff ff 	lea    -0x197c(%rbp),%rax
   1ad50:	48 89 85 d0 fe ff ff 	mov    %rax,-0x130(%rbp)
   1ad57:	48 8d 05 3c 73 00 00 	lea    0x733c(%rip),%rax        # 2209a <g_63+0x2>
   1ad5e:	48 89 85 d8 fe ff ff 	mov    %rax,-0x128(%rbp)
   1ad65:	48 8d 85 84 e6 ff ff 	lea    -0x197c(%rbp),%rax
   1ad6c:	48 89 85 e0 fe ff ff 	mov    %rax,-0x120(%rbp)
   1ad73:	48 8d 05 20 73 00 00 	lea    0x7320(%rip),%rax        # 2209a <g_63+0x2>
   1ad7a:	48 89 85 e8 fe ff ff 	mov    %rax,-0x118(%rbp)
   1ad81:	48 8d 85 84 e6 ff ff 	lea    -0x197c(%rbp),%rax
   1ad88:	48 89 85 f0 fe ff ff 	mov    %rax,-0x110(%rbp)
   1ad8f:	48 8d 85 84 e6 ff ff 	lea    -0x197c(%rbp),%rax
   1ad96:	48 89 85 f8 fe ff ff 	mov    %rax,-0x108(%rbp)
   1ad9d:	48 8d 85 83 e6 ff ff 	lea    -0x197d(%rbp),%rax
   1ada4:	48 89 85 00 ff ff ff 	mov    %rax,-0x100(%rbp)
   1adab:	48 8d 85 81 e6 ff ff 	lea    -0x197f(%rbp),%rax
   1adb2:	48 89 85 08 ff ff ff 	mov    %rax,-0xf8(%rbp)
   1adb9:	48 8d 85 83 e6 ff ff 	lea    -0x197d(%rbp),%rax
   1adc0:	48 89 85 10 ff ff ff 	mov    %rax,-0xf0(%rbp)
   1adc7:	48 c7 85 18 ff ff ff 	movq   $0x0,-0xe8(%rbp)
   1adce:	00 00 00 00 
   1add2:	48 8d 85 84 e6 ff ff 	lea    -0x197c(%rbp),%rax
   1add9:	48 89 85 20 ff ff ff 	mov    %rax,-0xe0(%rbp)
   1ade0:	48 c7 85 28 ff ff ff 	movq   $0x0,-0xd8(%rbp)
   1ade7:	00 00 00 00 
   1adeb:	48 8d 85 81 e6 ff ff 	lea    -0x197f(%rbp),%rax
   1adf2:	48 89 85 30 ff ff ff 	mov    %rax,-0xd0(%rbp)
   1adf9:	48 8d 85 81 e6 ff ff 	lea    -0x197f(%rbp),%rax
   1ae00:	48 89 85 38 ff ff ff 	mov    %rax,-0xc8(%rbp)
   1ae07:	48 8d 85 81 e6 ff ff 	lea    -0x197f(%rbp),%rax
   1ae0e:	48 89 85 40 ff ff ff 	mov    %rax,-0xc0(%rbp)
   1ae15:	48 8d 85 81 e6 ff ff 	lea    -0x197f(%rbp),%rax
   1ae1c:	48 89 85 48 ff ff ff 	mov    %rax,-0xb8(%rbp)
   1ae23:	48 8d 85 83 e6 ff ff 	lea    -0x197d(%rbp),%rax
   1ae2a:	48 89 85 50 ff ff ff 	mov    %rax,-0xb0(%rbp)
   1ae31:	48 c7 85 58 ff ff ff 	movq   $0x0,-0xa8(%rbp)
   1ae38:	00 00 00 00 
   1ae3c:	48 8d 85 84 e6 ff ff 	lea    -0x197c(%rbp),%rax
   1ae43:	48 89 85 60 ff ff ff 	mov    %rax,-0xa0(%rbp)
   1ae4a:	48 8d 85 81 e6 ff ff 	lea    -0x197f(%rbp),%rax
   1ae51:	48 89 85 68 ff ff ff 	mov    %rax,-0x98(%rbp)
   1ae58:	48 8d 85 84 e6 ff ff 	lea    -0x197c(%rbp),%rax
   1ae5f:	48 89 85 70 ff ff ff 	mov    %rax,-0x90(%rbp)
   1ae66:	48 c7 85 78 ff ff ff 	movq   $0x0,-0x88(%rbp)
   1ae6d:	00 00 00 00 
   1ae71:	48 8d 85 83 e6 ff ff 	lea    -0x197d(%rbp),%rax
   1ae78:	48 89 45 80          	mov    %rax,-0x80(%rbp)
   1ae7c:	48 8d 85 81 e6 ff ff 	lea    -0x197f(%rbp),%rax
   1ae83:	48 89 45 88          	mov    %rax,-0x78(%rbp)
   1ae87:	48 8d 85 83 e6 ff ff 	lea    -0x197d(%rbp),%rax
   1ae8e:	48 89 45 90          	mov    %rax,-0x70(%rbp)
   1ae92:	48 8d 05 01 72 00 00 	lea    0x7201(%rip),%rax        # 2209a <g_63+0x2>
   1ae99:	48 89 45 98          	mov    %rax,-0x68(%rbp)
   1ae9d:	48 8d 05 f6 71 00 00 	lea    0x71f6(%rip),%rax        # 2209a <g_63+0x2>
   1aea4:	48 89 45 a0          	mov    %rax,-0x60(%rbp)
   1aea8:	48 8d 85 83 e6 ff ff 	lea    -0x197d(%rbp),%rax
   1aeaf:	48 89 45 a8          	mov    %rax,-0x58(%rbp)
   1aeb3:	48 8d 05 e0 71 00 00 	lea    0x71e0(%rip),%rax        # 2209a <g_63+0x2>
   1aeba:	48 89 45 b0          	mov    %rax,-0x50(%rbp)
   1aebe:	48 8d 85 81 e6 ff ff 	lea    -0x197f(%rbp),%rax
   1aec5:	48 89 45 b8          	mov    %rax,-0x48(%rbp)
   1aec9:	c7 85 b8 e6 ff ff fe 	movl   $0xc17e4ffe,-0x1948(%rbp)
   1aed0:	4f 7e c1 
   1aed3:	be 00 00 00 00       	mov    $0x0,%esi
   1aed8:	bf 00 00 00 00       	mov    $0x0,%edi
   1aedd:	e8 0c e4 fe ff       	callq  92ee <safe_lshift_func_int8_t_s_u>
   1aee2:	0f be d8             	movsbl %al,%ebx
   1aee5:	48 8b 05 2c 94 00 00 	mov    0x942c(%rip),%rax        # 24318 <g_215>
   1aeec:	8b 00                	mov    (%rax),%eax
   1aeee:	39 85 7c e6 ff ff    	cmp    %eax,-0x1984(%rbp)
   1aef4:	0f 95 c0             	setne  %al
   1aef7:	0f b6 c0             	movzbl %al,%eax
   1aefa:	66 89 85 8e e6 ff ff 	mov    %ax,-0x1972(%rbp)
   1af01:	48 0f bf 85 8e e6 ff 	movswq -0x1972(%rbp),%rax
   1af08:	ff 
   1af09:	83 e0 01             	and    $0x1,%eax
   1af0c:	48 89 c6             	mov    %rax,%rsi
   1af0f:	bf 01 00 00 00       	mov    $0x1,%edi
   1af14:	e8 28 e9 fe ff       	callq  9841 <safe_add_func_int64_t_s_s>
   1af19:	48 8b 05 f0 93 00 00 	mov    0x93f0(%rip),%rax        # 24310 <g_197>
   1af20:	48 8b 00             	mov    (%rax),%rax
   1af23:	0f b7 00             	movzwl (%rax),%eax
   1af26:	0f b7 c0             	movzwl %ax,%eax
   1af29:	89 de                	mov    %ebx,%esi
   1af2b:	89 c7                	mov    %eax,%edi
   1af2d:	e8 8c ee fe ff       	callq  9dbe <safe_lshift_func_uint16_t_u_s>
   1af32:	48 8b 85 10 e8 ff ff 	mov    -0x17f0(%rbp),%rax
   1af39:	48 8b 00             	mov    (%rax),%rax
   1af3c:	48 8b 00             	mov    (%rax),%rax
   1af3f:	66 0f be 95 85 e6 ff 	movsbw -0x197b(%rbp),%dx
   1af46:	ff 
   1af47:	66 89 10             	mov    %dx,(%rax)
   1af4a:	0f b7 10             	movzwl (%rax),%edx
   1af4d:	48 8b 85 d0 e7 ff ff 	mov    -0x1830(%rbp),%rax
   1af54:	0f b7 00             	movzwl (%rax),%eax
   1af57:	09 c2                	or     %eax,%edx
   1af59:	48 8b 85 d0 e7 ff ff 	mov    -0x1830(%rbp),%rax
   1af60:	66 89 10             	mov    %dx,(%rax)
   1af63:	48 8b 85 d0 e7 ff ff 	mov    -0x1830(%rbp),%rax
   1af6a:	0f b7 00             	movzwl (%rax),%eax
   1af6d:	0f b7 c0             	movzwl %ax,%eax
   1af70:	89 c7                	mov    %eax,%edi
   1af72:	e8 72 ed fe ff       	callq  9ce9 <safe_unary_minus_func_uint16_t_u>
   1af77:	0f b7 c0             	movzwl %ax,%eax
   1af7a:	be 01 00 00 00       	mov    $0x1,%esi
   1af7f:	89 c7                	mov    %eax,%edi
   1af81:	e8 4a ef fe ff       	callq  9ed0 <safe_sub_func_uint32_t_u_u>
   1af86:	48 8b 95 e8 e7 ff ff 	mov    -0x1818(%rbp),%rdx
   1af8d:	0f b6 05 06 71 00 00 	movzbl 0x7106(%rip),%eax        # 2209a <g_63+0x2>
   1af94:	0f b6 c0             	movzbl %al,%eax
   1af97:	48 89 d6             	mov    %rdx,%rsi
   1af9a:	48 89 c7             	mov    %rax,%rdi
   1af9d:	e8 06 e9 fe ff       	callq  98a8 <safe_sub_func_int64_t_s_s>
   1afa2:	48 85 c0             	test   %rax,%rax
   1afa5:	75 0a                	jne    1afb1 <func_92+0x2828>
   1afa7:	8b 05 8f 70 00 00    	mov    0x708f(%rip),%eax        # 2203c <g_2+0xc>
   1afad:	85 c0                	test   %eax,%eax
   1afaf:	74 07                	je     1afb8 <func_92+0x282f>
   1afb1:	b8 01 00 00 00       	mov    $0x1,%eax
   1afb6:	eb 05                	jmp    1afbd <func_92+0x2834>
   1afb8:	b8 00 00 00 00       	mov    $0x0,%eax
   1afbd:	89 85 a0 e6 ff ff    	mov    %eax,-0x1960(%rbp)
   1afc3:	c7 85 9c e6 ff ff 00 	movl   $0x0,-0x1964(%rbp)
   1afca:	00 00 00 
   1afcd:	e9 ca 00 00 00       	jmpq   1b09c <func_92+0x2913>
   1afd2:	48 8d 85 80 e9 ff ff 	lea    -0x1680(%rbp),%rax
   1afd9:	48 83 c0 28          	add    $0x28,%rax
   1afdd:	48 89 85 58 e8 ff ff 	mov    %rax,-0x17a8(%rbp)
   1afe4:	48 c7 85 60 e8 ff ff 	movq   $0x0,-0x17a0(%rbp)
   1afeb:	00 00 00 00 
   1afef:	48 8d 05 86 30 00 00 	lea    0x3086(%rip),%rax        # 1e07c <g_412>
   1aff6:	48 89 85 20 e7 ff ff 	mov    %rax,-0x18e0(%rbp)
   1affd:	48 8d 85 20 e7 ff ff 	lea    -0x18e0(%rbp),%rax
   1b004:	48 89 85 68 e8 ff ff 	mov    %rax,-0x1798(%rbp)
   1b00b:	48 8d 85 b0 ed ff ff 	lea    -0x1250(%rbp),%rax
   1b012:	48 83 c0 18          	add    $0x18,%rax
   1b016:	48 89 85 70 e8 ff ff 	mov    %rax,-0x1790(%rbp)
   1b01d:	48 c7 85 78 e8 ff ff 	movq   $0x0,-0x1788(%rbp)
   1b024:	00 00 00 00 
   1b028:	48 c7 85 28 e7 ff ff 	movq   $0x0,-0x18d8(%rbp)
   1b02f:	00 00 00 00 
   1b033:	48 8d 85 28 e7 ff ff 	lea    -0x18d8(%rbp),%rax
   1b03a:	48 89 85 80 e8 ff ff 	mov    %rax,-0x1780(%rbp)
   1b041:	c7 85 bc e6 ff ff 02 	movl   $0x2,-0x1944(%rbp)
   1b048:	00 00 00 
   1b04b:	c7 85 ac e6 ff ff 00 	movl   $0x0,-0x1954(%rbp)
   1b052:	00 00 00 
   1b055:	eb 1e                	jmp    1b075 <func_92+0x28ec>
   1b057:	8b 85 ac e6 ff ff    	mov    -0x1954(%rbp),%eax
   1b05d:	48 98                	cltq   
   1b05f:	48 8d 95 d0 e6 ff ff 	lea    -0x1930(%rbp),%rdx
   1b066:	48 89 94 c5 b0 eb ff 	mov    %rdx,-0x1450(%rbp,%rax,8)
   1b06d:	ff 
   1b06e:	83 85 ac e6 ff ff 01 	addl   $0x1,-0x1954(%rbp)
   1b075:	83 bd ac e6 ff ff 00 	cmpl   $0x0,-0x1954(%rbp)
   1b07c:	7e d9                	jle    1b057 <func_92+0x28ce>
   1b07e:	8b 85 9c e6 ff ff    	mov    -0x1964(%rbp),%eax
   1b084:	0f be c0             	movsbl %al,%eax
   1b087:	be 05 00 00 00       	mov    $0x5,%esi
   1b08c:	89 c7                	mov    %eax,%edi
   1b08e:	e8 5f e1 fe ff       	callq  91f2 <safe_sub_func_int8_t_s_s>
   1b093:	0f be c0             	movsbl %al,%eax
   1b096:	89 85 9c e6 ff ff    	mov    %eax,-0x1964(%rbp)
   1b09c:	8b 85 9c e6 ff ff    	mov    -0x1964(%rbp),%eax
   1b0a2:	83 f8 ea             	cmp    $0xffffffea,%eax
   1b0a5:	0f 8d 27 ff ff ff    	jge    1afd2 <func_92+0x2849>
   1b0ab:	48 8b 05 66 92 00 00 	mov    0x9266(%rip),%rax        # 24318 <g_215>
   1b0b2:	8b 00                	mov    (%rax),%eax
   1b0b4:	89 c3                	mov    %eax,%ebx
   1b0b6:	0f bf 95 8e e6 ff ff 	movswl -0x1972(%rbp),%edx
   1b0bd:	0f b6 05 f0 6f 00 00 	movzbl 0x6ff0(%rip),%eax        # 220b4 <g_127>
   1b0c4:	84 c0                	test   %al,%al
   1b0c6:	75 0c                	jne    1b0d4 <func_92+0x294b>
   1b0c8:	48 8b 05 b9 6f 00 00 	mov    0x6fb9(%rip),%rax        # 22088 <g_49>
   1b0cf:	48 85 c0             	test   %rax,%rax
   1b0d2:	74 07                	je     1b0db <func_92+0x2952>
   1b0d4:	b8 01 00 00 00       	mov    $0x1,%eax
   1b0d9:	eb 05                	jmp    1b0e0 <func_92+0x2957>
   1b0db:	b8 00 00 00 00       	mov    $0x0,%eax
   1b0e0:	89 85 7c e6 ff ff    	mov    %eax,-0x1984(%rbp)
   1b0e6:	0f bf 85 8e e6 ff ff 	movswl -0x1972(%rbp),%eax
   1b0ed:	89 d6                	mov    %edx,%esi
   1b0ef:	89 c7                	mov    %eax,%edi
   1b0f1:	e8 6d e4 fe ff       	callq  9563 <safe_rshift_func_int16_t_s_u>
   1b0f6:	98                   	cwtl   
   1b0f7:	89 de                	mov    %ebx,%esi
   1b0f9:	89 c7                	mov    %eax,%edi
   1b0fb:	e8 25 ee fe ff       	callq  9f25 <safe_div_func_uint32_t_u_u>
   1b100:	0f b6 95 81 e6 ff ff 	movzbl -0x197f(%rbp),%edx
   1b107:	0f b6 d2             	movzbl %dl,%edx
   1b10a:	39 d0                	cmp    %edx,%eax
   1b10c:	0f 96 c0             	setbe  %al
   1b10f:	88 05 85 6f 00 00    	mov    %al,0x6f85(%rip)        # 2209a <g_63+0x2>
   1b115:	0f b6 05 7e 6f 00 00 	movzbl 0x6f7e(%rip),%eax        # 2209a <g_63+0x2>
   1b11c:	0f b6 c0             	movzbl %al,%eax
   1b11f:	48 23 85 e8 e7 ff ff 	and    -0x1818(%rbp),%rax
   1b126:	31 85 b8 e6 ff ff    	xor    %eax,-0x1948(%rbp)
   1b12c:	0f b6 05 81 6f 00 00 	movzbl 0x6f81(%rip),%eax        # 220b4 <g_127>
   1b133:	0f be c0             	movsbl %al,%eax
   1b136:	be 08 00 00 00       	mov    $0x8,%esi
   1b13b:	89 c7                	mov    %eax,%edi
   1b13d:	e8 92 e0 fe ff       	callq  91d4 <safe_add_func_int8_t_s_s>
   1b142:	88 05 6c 6f 00 00    	mov    %al,0x6f6c(%rip)        # 220b4 <g_127>
   1b148:	0f b6 05 65 6f 00 00 	movzbl 0x6f65(%rip),%eax        # 220b4 <g_127>
   1b14f:	3c 15                	cmp    $0x15,%al
   1b151:	0f 8f 84 d9 ff ff    	jg     18adb <func_92+0x352>
   1b157:	8b 05 47 6f 00 00    	mov    0x6f47(%rip),%eax        # 220a4 <g_88>
   1b15d:	83 e8 01             	sub    $0x1,%eax
   1b160:	89 05 3e 6f 00 00    	mov    %eax,0x6f3e(%rip)        # 220a4 <g_88>
   1b166:	8b 05 38 6f 00 00    	mov    0x6f38(%rip),%eax        # 220a4 <g_88>
   1b16c:	83 f8 f9             	cmp    $0xfffffff9,%eax
   1b16f:	0f 85 80 d7 ff ff    	jne    188f5 <func_92+0x16c>
   1b175:	66 c7 05 12 6f 00 00 	movw   $0x3,0x6f12(%rip)        # 22090 <g_50>
   1b17c:	03 00 
   1b17e:	eb 2b                	jmp    1b1ab <func_92+0x2a22>
   1b180:	48 8d 05 bd 6e 00 00 	lea    0x6ebd(%rip),%rax        # 22044 <g_39>
   1b187:	48 89 85 c8 e7 ff ff 	mov    %rax,-0x1838(%rbp)
   1b18e:	0f b7 05 fb 6e 00 00 	movzwl 0x6efb(%rip),%eax        # 22090 <g_50>
   1b195:	0f b7 c0             	movzwl %ax,%eax
   1b198:	be 01 00 00 00       	mov    $0x1,%esi
   1b19d:	89 c7                	mov    %eax,%edi
   1b19f:	e8 7b eb fe ff       	callq  9d1f <safe_sub_func_uint16_t_u_u>
   1b1a4:	66 89 05 e5 6e 00 00 	mov    %ax,0x6ee5(%rip)        # 22090 <g_50>
   1b1ab:	0f b7 05 de 6e 00 00 	movzwl 0x6ede(%rip),%eax        # 22090 <g_50>
   1b1b2:	66 83 f8 e8          	cmp    $0xffe8,%ax
   1b1b6:	7c c8                	jl     1b180 <func_92+0x29f7>
   1b1b8:	48 c7 05 2d 6f 00 00 	movq   $0x0,0x6f2d(%rip)        # 220f0 <g_247>
   1b1bf:	00 00 00 00 
   1b1c3:	e9 c8 1a 00 00       	jmpq   1cc90 <func_92+0x4507>
   1b1c8:	c7 85 b0 ed ff ff 04 	movl   $0x4,-0x1250(%rbp)
   1b1cf:	00 00 00 
   1b1d2:	c7 85 b4 ed ff ff 04 	movl   $0x4,-0x124c(%rbp)
   1b1d9:	00 00 00 
   1b1dc:	c7 85 b8 ed ff ff 62 	movl   $0x35608262,-0x1248(%rbp)
   1b1e3:	82 60 35 
   1b1e6:	c7 85 bc ed ff ff 04 	movl   $0x4,-0x1244(%rbp)
   1b1ed:	00 00 00 
   1b1f0:	c7 85 c0 ed ff ff 04 	movl   $0x4,-0x1240(%rbp)
   1b1f7:	00 00 00 
   1b1fa:	c7 85 c4 ed ff ff 62 	movl   $0x35608262,-0x123c(%rbp)
   1b201:	82 60 35 
   1b204:	c7 85 c8 ed ff ff 04 	movl   $0x4,-0x1238(%rbp)
   1b20b:	00 00 00 
   1b20e:	c7 85 cc ed ff ff 04 	movl   $0x4,-0x1234(%rbp)
   1b215:	00 00 00 
   1b218:	c7 85 d0 ed ff ff 62 	movl   $0x35608262,-0x1230(%rbp)
   1b21f:	82 60 35 
   1b222:	c6 85 e8 e6 ff ff 01 	movb   $0x1,-0x1918(%rbp)
   1b229:	48 c7 85 08 e7 ff ff 	movq   $0x0,-0x18f8(%rbp)
   1b230:	00 00 00 00 
   1b234:	48 8d 05 25 72 00 00 	lea    0x7225(%rip),%rax        # 22460 <g_546+0x340>
   1b23b:	48 89 85 40 e7 ff ff 	mov    %rax,-0x18c0(%rbp)
   1b242:	48 8d 05 78 6e 00 00 	lea    0x6e78(%rip),%rax        # 220c1 <g_155+0x1>
   1b249:	48 89 85 48 e7 ff ff 	mov    %rax,-0x18b8(%rbp)
   1b250:	48 8d 05 0d 6e 00 00 	lea    0x6e0d(%rip),%rax        # 22064 <g_41+0x4>
   1b257:	48 89 85 50 e7 ff ff 	mov    %rax,-0x18b0(%rbp)
   1b25e:	48 c7 85 58 e7 ff ff 	movq   $0x4,-0x18a8(%rbp)
   1b265:	04 00 00 00 
   1b269:	c7 85 b0 e6 ff ff 00 	movl   $0x0,-0x1950(%rbp)
   1b270:	00 00 00 
   1b273:	eb 1e                	jmp    1b293 <func_92+0x2b0a>
   1b275:	8b 85 b0 e6 ff ff    	mov    -0x1950(%rbp),%eax
   1b27b:	48 98                	cltq   
   1b27d:	48 8d 95 08 e7 ff ff 	lea    -0x18f8(%rbp),%rdx
   1b284:	48 89 94 c5 70 ec ff 	mov    %rdx,-0x1390(%rbp,%rax,8)
   1b28b:	ff 
   1b28c:	83 85 b0 e6 ff ff 01 	addl   $0x1,-0x1950(%rbp)
   1b293:	83 bd b0 e6 ff ff 01 	cmpl   $0x1,-0x1950(%rbp)
   1b29a:	7e d9                	jle    1b275 <func_92+0x2aec>
   1b29c:	c7 05 12 6e 00 00 00 	movl   $0x0,0x6e12(%rip)        # 220b8 <g_148>
   1b2a3:	00 00 00 
   1b2a6:	e9 e5 12 00 00       	jmpq   1c590 <func_92+0x3e07>
   1b2ab:	c6 85 f0 e6 ff ff ff 	movb   $0xff,-0x1910(%rbp)
   1b2b2:	48 c7 85 60 e7 ff ff 	movq   $0x0,-0x18a0(%rbp)
   1b2b9:	00 00 00 00 
   1b2bd:	48 8d 05 34 6e 00 00 	lea    0x6e34(%rip),%rax        # 220f8 <g_462>
   1b2c4:	48 89 85 68 e7 ff ff 	mov    %rax,-0x1898(%rbp)
   1b2cb:	c7 85 00 e7 ff ff 01 	movl   $0x1,-0x1900(%rbp)
   1b2d2:	00 00 00 
   1b2d5:	48 c7 85 70 e7 ff ff 	movq   $0x0,-0x1890(%rbp)
   1b2dc:	00 00 00 00 
   1b2e0:	48 c7 85 78 e7 ff ff 	movq   $0x0,-0x1888(%rbp)
   1b2e7:	00 00 00 00 
   1b2eb:	48 8d 85 b0 ed ff ff 	lea    -0x1250(%rbp),%rax
   1b2f2:	48 83 c0 1c          	add    $0x1c,%rax
   1b2f6:	48 89 85 80 e7 ff ff 	mov    %rax,-0x1880(%rbp)
   1b2fd:	48 8d 85 b0 ed ff ff 	lea    -0x1250(%rbp),%rax
   1b304:	48 83 c0 08          	add    $0x8,%rax
   1b308:	48 89 85 50 f2 ff ff 	mov    %rax,-0xdb0(%rbp)
   1b30f:	48 8d 85 90 e6 ff ff 	lea    -0x1970(%rbp),%rax
   1b316:	48 89 85 58 f2 ff ff 	mov    %rax,-0xda8(%rbp)
   1b31d:	48 8d 85 90 e6 ff ff 	lea    -0x1970(%rbp),%rax
   1b324:	48 89 85 60 f2 ff ff 	mov    %rax,-0xda0(%rbp)
   1b32b:	48 8d 85 b0 ed ff ff 	lea    -0x1250(%rbp),%rax
   1b332:	48 83 c0 08          	add    $0x8,%rax
   1b336:	48 89 85 68 f2 ff ff 	mov    %rax,-0xd98(%rbp)
   1b33d:	48 8d 85 b0 ed ff ff 	lea    -0x1250(%rbp),%rax
   1b344:	48 83 c0 08          	add    $0x8,%rax
   1b348:	48 89 85 70 f2 ff ff 	mov    %rax,-0xd90(%rbp)
   1b34f:	48 8d 85 b0 ed ff ff 	lea    -0x1250(%rbp),%rax
   1b356:	48 83 c0 04          	add    $0x4,%rax
   1b35a:	48 89 85 78 f2 ff ff 	mov    %rax,-0xd88(%rbp)
   1b361:	48 8d 85 90 e6 ff ff 	lea    -0x1970(%rbp),%rax
   1b368:	48 89 85 80 f2 ff ff 	mov    %rax,-0xd80(%rbp)
   1b36f:	48 8d 85 90 e6 ff ff 	lea    -0x1970(%rbp),%rax
   1b376:	48 89 85 88 f2 ff ff 	mov    %rax,-0xd78(%rbp)
   1b37d:	48 8d 85 b0 ed ff ff 	lea    -0x1250(%rbp),%rax
   1b384:	48 83 c0 08          	add    $0x8,%rax
   1b388:	48 89 85 90 f2 ff ff 	mov    %rax,-0xd70(%rbp)
   1b38f:	48 c7 85 98 f2 ff ff 	movq   $0x0,-0xd68(%rbp)
   1b396:	00 00 00 00 
   1b39a:	48 8d 05 03 6d 00 00 	lea    0x6d03(%rip),%rax        # 220a4 <g_88>
   1b3a1:	48 89 85 a0 f2 ff ff 	mov    %rax,-0xd60(%rbp)
   1b3a8:	48 c7 85 a8 f2 ff ff 	movq   $0x0,-0xd58(%rbp)
   1b3af:	00 00 00 00 
   1b3b3:	48 8d 85 b0 ed ff ff 	lea    -0x1250(%rbp),%rax
   1b3ba:	48 83 c0 08          	add    $0x8,%rax
   1b3be:	48 89 85 b0 f2 ff ff 	mov    %rax,-0xd50(%rbp)
   1b3c5:	48 8d 85 90 e6 ff ff 	lea    -0x1970(%rbp),%rax
   1b3cc:	48 89 85 b8 f2 ff ff 	mov    %rax,-0xd48(%rbp)
   1b3d3:	48 8d 85 90 e6 ff ff 	lea    -0x1970(%rbp),%rax
   1b3da:	48 89 85 c0 f2 ff ff 	mov    %rax,-0xd40(%rbp)
   1b3e1:	48 8d 85 90 e6 ff ff 	lea    -0x1970(%rbp),%rax
   1b3e8:	48 89 85 c8 f2 ff ff 	mov    %rax,-0xd38(%rbp)
   1b3ef:	48 c7 85 d0 f2 ff ff 	movq   $0x0,-0xd30(%rbp)
   1b3f6:	00 00 00 00 
   1b3fa:	48 8d 05 3f 6c 00 00 	lea    0x6c3f(%rip),%rax        # 22040 <g_2+0x10>
   1b401:	48 89 85 d8 f2 ff ff 	mov    %rax,-0xd28(%rbp)
   1b408:	48 8d 85 b0 ed ff ff 	lea    -0x1250(%rbp),%rax
   1b40f:	48 83 c0 08          	add    $0x8,%rax
   1b413:	48 89 85 e0 f2 ff ff 	mov    %rax,-0xd20(%rbp)
   1b41a:	48 8d 85 90 e6 ff ff 	lea    -0x1970(%rbp),%rax
   1b421:	48 89 85 e8 f2 ff ff 	mov    %rax,-0xd18(%rbp)
   1b428:	48 8d 05 11 6c 00 00 	lea    0x6c11(%rip),%rax        # 22040 <g_2+0x10>
   1b42f:	48 89 85 f0 f2 ff ff 	mov    %rax,-0xd10(%rbp)
   1b436:	48 c7 85 f8 f2 ff ff 	movq   $0x0,-0xd08(%rbp)
   1b43d:	00 00 00 00 
   1b441:	48 8d 85 b0 ed ff ff 	lea    -0x1250(%rbp),%rax
   1b448:	48 83 c0 20          	add    $0x20,%rax
   1b44c:	48 89 85 00 f3 ff ff 	mov    %rax,-0xd00(%rbp)
   1b453:	48 8d 05 da 6b 00 00 	lea    0x6bda(%rip),%rax        # 22034 <g_2+0x4>
   1b45a:	48 89 85 08 f3 ff ff 	mov    %rax,-0xcf8(%rbp)
   1b461:	48 8d 85 00 e7 ff ff 	lea    -0x1900(%rbp),%rax
   1b468:	48 89 85 10 f3 ff ff 	mov    %rax,-0xcf0(%rbp)
   1b46f:	48 8d 85 00 e7 ff ff 	lea    -0x1900(%rbp),%rax
   1b476:	48 89 85 18 f3 ff ff 	mov    %rax,-0xce8(%rbp)
   1b47d:	48 8d 05 b0 6b 00 00 	lea    0x6bb0(%rip),%rax        # 22034 <g_2+0x4>
   1b484:	48 89 85 20 f3 ff ff 	mov    %rax,-0xce0(%rbp)
   1b48b:	48 8d 85 b0 ed ff ff 	lea    -0x1250(%rbp),%rax
   1b492:	48 83 c0 20          	add    $0x20,%rax
   1b496:	48 89 85 28 f3 ff ff 	mov    %rax,-0xcd8(%rbp)
   1b49d:	48 8d 85 90 e6 ff ff 	lea    -0x1970(%rbp),%rax
   1b4a4:	48 89 85 30 f3 ff ff 	mov    %rax,-0xcd0(%rbp)
   1b4ab:	48 8d 85 b0 ed ff ff 	lea    -0x1250(%rbp),%rax
   1b4b2:	48 83 c0 20          	add    $0x20,%rax
   1b4b6:	48 89 85 38 f3 ff ff 	mov    %rax,-0xcc8(%rbp)
   1b4bd:	48 c7 85 40 f3 ff ff 	movq   $0x0,-0xcc0(%rbp)
   1b4c4:	00 00 00 00 
   1b4c8:	48 8d 85 b0 ed ff ff 	lea    -0x1250(%rbp),%rax
   1b4cf:	48 83 c0 08          	add    $0x8,%rax
   1b4d3:	48 89 85 48 f3 ff ff 	mov    %rax,-0xcb8(%rbp)
   1b4da:	48 8d 85 b0 ed ff ff 	lea    -0x1250(%rbp),%rax
   1b4e1:	48 83 c0 20          	add    $0x20,%rax
   1b4e5:	48 89 85 50 f3 ff ff 	mov    %rax,-0xcb0(%rbp)
   1b4ec:	48 8d 05 4d 6b 00 00 	lea    0x6b4d(%rip),%rax        # 22040 <g_2+0x10>
   1b4f3:	48 89 85 58 f3 ff ff 	mov    %rax,-0xca8(%rbp)
   1b4fa:	48 8d 85 b0 ed ff ff 	lea    -0x1250(%rbp),%rax
   1b501:	48 83 c0 08          	add    $0x8,%rax
   1b505:	48 89 85 60 f3 ff ff 	mov    %rax,-0xca0(%rbp)
   1b50c:	48 8d 85 b0 ed ff ff 	lea    -0x1250(%rbp),%rax
   1b513:	48 83 c0 08          	add    $0x8,%rax
   1b517:	48 89 85 68 f3 ff ff 	mov    %rax,-0xc98(%rbp)
   1b51e:	48 8d 85 00 e7 ff ff 	lea    -0x1900(%rbp),%rax
   1b525:	48 89 85 70 f3 ff ff 	mov    %rax,-0xc90(%rbp)
   1b52c:	48 c7 85 78 f3 ff ff 	movq   $0x0,-0xc88(%rbp)
   1b533:	00 00 00 00 
   1b537:	48 8d 85 b0 ed ff ff 	lea    -0x1250(%rbp),%rax
   1b53e:	48 83 c0 08          	add    $0x8,%rax
   1b542:	48 89 85 80 f3 ff ff 	mov    %rax,-0xc80(%rbp)
   1b549:	48 8d 85 b0 ed ff ff 	lea    -0x1250(%rbp),%rax
   1b550:	48 83 c0 20          	add    $0x20,%rax
   1b554:	48 89 85 88 f3 ff ff 	mov    %rax,-0xc78(%rbp)
   1b55b:	48 8d 85 b0 ed ff ff 	lea    -0x1250(%rbp),%rax
   1b562:	48 83 c0 08          	add    $0x8,%rax
   1b566:	48 89 85 90 f3 ff ff 	mov    %rax,-0xc70(%rbp)
   1b56d:	48 c7 85 98 f3 ff ff 	movq   $0x0,-0xc68(%rbp)
   1b574:	00 00 00 00 
   1b578:	48 8d 85 b0 ed ff ff 	lea    -0x1250(%rbp),%rax
   1b57f:	48 83 c0 08          	add    $0x8,%rax
   1b583:	48 89 85 a0 f3 ff ff 	mov    %rax,-0xc60(%rbp)
   1b58a:	48 8d 85 b0 ed ff ff 	lea    -0x1250(%rbp),%rax
   1b591:	48 83 c0 08          	add    $0x8,%rax
   1b595:	48 89 85 a8 f3 ff ff 	mov    %rax,-0xc58(%rbp)
   1b59c:	48 8d 85 90 e6 ff ff 	lea    -0x1970(%rbp),%rax
   1b5a3:	48 89 85 b0 f3 ff ff 	mov    %rax,-0xc50(%rbp)
   1b5aa:	48 8d 85 b0 ed ff ff 	lea    -0x1250(%rbp),%rax
   1b5b1:	48 83 c0 08          	add    $0x8,%rax
   1b5b5:	48 89 85 b8 f3 ff ff 	mov    %rax,-0xc48(%rbp)
   1b5bc:	48 8d 85 90 e6 ff ff 	lea    -0x1970(%rbp),%rax
   1b5c3:	48 89 85 c0 f3 ff ff 	mov    %rax,-0xc40(%rbp)
   1b5ca:	48 8d 85 b0 ed ff ff 	lea    -0x1250(%rbp),%rax
   1b5d1:	48 83 c0 08          	add    $0x8,%rax
   1b5d5:	48 89 85 c8 f3 ff ff 	mov    %rax,-0xc38(%rbp)
   1b5dc:	48 8d 85 b0 ed ff ff 	lea    -0x1250(%rbp),%rax
   1b5e3:	48 83 c0 08          	add    $0x8,%rax
   1b5e7:	48 89 85 d0 f3 ff ff 	mov    %rax,-0xc30(%rbp)
   1b5ee:	48 8d 85 90 e6 ff ff 	lea    -0x1970(%rbp),%rax
   1b5f5:	48 89 85 d8 f3 ff ff 	mov    %rax,-0xc28(%rbp)
   1b5fc:	48 c7 85 e0 f3 ff ff 	movq   $0x0,-0xc20(%rbp)
   1b603:	00 00 00 00 
   1b607:	48 8d 85 00 e7 ff ff 	lea    -0x1900(%rbp),%rax
   1b60e:	48 89 85 e8 f3 ff ff 	mov    %rax,-0xc18(%rbp)
   1b615:	48 8d 85 00 e7 ff ff 	lea    -0x1900(%rbp),%rax
   1b61c:	48 89 85 f0 f3 ff ff 	mov    %rax,-0xc10(%rbp)
   1b623:	48 8d 85 b0 ed ff ff 	lea    -0x1250(%rbp),%rax
   1b62a:	48 83 c0 08          	add    $0x8,%rax
   1b62e:	48 89 85 f8 f3 ff ff 	mov    %rax,-0xc08(%rbp)
   1b635:	48 8d 85 b0 ed ff ff 	lea    -0x1250(%rbp),%rax
   1b63c:	48 83 c0 08          	add    $0x8,%rax
   1b640:	48 89 85 00 f4 ff ff 	mov    %rax,-0xc00(%rbp)
   1b647:	48 8d 85 00 e7 ff ff 	lea    -0x1900(%rbp),%rax
   1b64e:	48 89 85 08 f4 ff ff 	mov    %rax,-0xbf8(%rbp)
   1b655:	48 8d 85 90 e6 ff ff 	lea    -0x1970(%rbp),%rax
   1b65c:	48 89 85 10 f4 ff ff 	mov    %rax,-0xbf0(%rbp)
   1b663:	48 8d 85 b0 ed ff ff 	lea    -0x1250(%rbp),%rax
   1b66a:	48 83 c0 08          	add    $0x8,%rax
   1b66e:	48 89 85 18 f4 ff ff 	mov    %rax,-0xbe8(%rbp)
   1b675:	48 8d 85 90 e6 ff ff 	lea    -0x1970(%rbp),%rax
   1b67c:	48 89 85 20 f4 ff ff 	mov    %rax,-0xbe0(%rbp)
   1b683:	48 8d 05 b6 69 00 00 	lea    0x69b6(%rip),%rax        # 22040 <g_2+0x10>
   1b68a:	48 89 85 28 f4 ff ff 	mov    %rax,-0xbd8(%rbp)
   1b691:	48 8d 85 90 e6 ff ff 	lea    -0x1970(%rbp),%rax
   1b698:	48 89 85 30 f4 ff ff 	mov    %rax,-0xbd0(%rbp)
   1b69f:	48 8d 85 90 e6 ff ff 	lea    -0x1970(%rbp),%rax
   1b6a6:	48 89 85 38 f4 ff ff 	mov    %rax,-0xbc8(%rbp)
   1b6ad:	48 8d 85 b0 ed ff ff 	lea    -0x1250(%rbp),%rax
   1b6b4:	48 83 c0 20          	add    $0x20,%rax
   1b6b8:	48 89 85 40 f4 ff ff 	mov    %rax,-0xbc0(%rbp)
   1b6bf:	48 8d 85 00 e7 ff ff 	lea    -0x1900(%rbp),%rax
   1b6c6:	48 89 85 48 f4 ff ff 	mov    %rax,-0xbb8(%rbp)
   1b6cd:	48 8d 85 b0 ed ff ff 	lea    -0x1250(%rbp),%rax
   1b6d4:	48 83 c0 20          	add    $0x20,%rax
   1b6d8:	48 89 85 50 f4 ff ff 	mov    %rax,-0xbb0(%rbp)
   1b6df:	48 8d 85 90 e6 ff ff 	lea    -0x1970(%rbp),%rax
   1b6e6:	48 89 85 58 f4 ff ff 	mov    %rax,-0xba8(%rbp)
   1b6ed:	48 8d 05 b0 69 00 00 	lea    0x69b0(%rip),%rax        # 220a4 <g_88>
   1b6f4:	48 89 85 60 f4 ff ff 	mov    %rax,-0xba0(%rbp)
   1b6fb:	48 8d 85 b0 ed ff ff 	lea    -0x1250(%rbp),%rax
   1b702:	48 83 c0 20          	add    $0x20,%rax
   1b706:	48 89 85 68 f4 ff ff 	mov    %rax,-0xb98(%rbp)
   1b70d:	48 8d 05 20 69 00 00 	lea    0x6920(%rip),%rax        # 22034 <g_2+0x4>
   1b714:	48 89 85 70 f4 ff ff 	mov    %rax,-0xb90(%rbp)
   1b71b:	48 8d 85 b0 ed ff ff 	lea    -0x1250(%rbp),%rax
   1b722:	48 83 c0 20          	add    $0x20,%rax
   1b726:	48 89 85 78 f4 ff ff 	mov    %rax,-0xb88(%rbp)
   1b72d:	48 8d 85 b0 ed ff ff 	lea    -0x1250(%rbp),%rax
   1b734:	48 83 c0 08          	add    $0x8,%rax
   1b738:	48 89 85 80 f4 ff ff 	mov    %rax,-0xb80(%rbp)
   1b73f:	48 8d 05 fa 68 00 00 	lea    0x68fa(%rip),%rax        # 22040 <g_2+0x10>
   1b746:	48 89 85 88 f4 ff ff 	mov    %rax,-0xb78(%rbp)
   1b74d:	48 8d 05 ec 68 00 00 	lea    0x68ec(%rip),%rax        # 22040 <g_2+0x10>
   1b754:	48 89 85 90 f4 ff ff 	mov    %rax,-0xb70(%rbp)
   1b75b:	48 8d 85 b0 ed ff ff 	lea    -0x1250(%rbp),%rax
   1b762:	48 83 c0 08          	add    $0x8,%rax
   1b766:	48 89 85 98 f4 ff ff 	mov    %rax,-0xb68(%rbp)
   1b76d:	48 8d 85 b0 ed ff ff 	lea    -0x1250(%rbp),%rax
   1b774:	48 83 c0 20          	add    $0x20,%rax
   1b778:	48 89 85 a0 f4 ff ff 	mov    %rax,-0xb60(%rbp)
   1b77f:	48 8d 85 90 e6 ff ff 	lea    -0x1970(%rbp),%rax
   1b786:	48 89 85 a8 f4 ff ff 	mov    %rax,-0xb58(%rbp)
   1b78d:	48 8d 85 90 e6 ff ff 	lea    -0x1970(%rbp),%rax
   1b794:	48 89 85 b0 f4 ff ff 	mov    %rax,-0xb50(%rbp)
   1b79b:	48 8d 85 b0 ed ff ff 	lea    -0x1250(%rbp),%rax
   1b7a2:	48 83 c0 08          	add    $0x8,%rax
   1b7a6:	48 89 85 b8 f4 ff ff 	mov    %rax,-0xb48(%rbp)
   1b7ad:	48 8d 85 90 e6 ff ff 	lea    -0x1970(%rbp),%rax
   1b7b4:	48 89 85 c0 f4 ff ff 	mov    %rax,-0xb40(%rbp)
   1b7bb:	48 c7 85 c8 f4 ff ff 	movq   $0x0,-0xb38(%rbp)
   1b7c2:	00 00 00 00 
   1b7c6:	48 8d 85 00 e7 ff ff 	lea    -0x1900(%rbp),%rax
   1b7cd:	48 89 85 d0 f4 ff ff 	mov    %rax,-0xb30(%rbp)
   1b7d4:	48 8d 85 00 e7 ff ff 	lea    -0x1900(%rbp),%rax
   1b7db:	48 89 85 d8 f4 ff ff 	mov    %rax,-0xb28(%rbp)
   1b7e2:	48 8d 85 b0 ed ff ff 	lea    -0x1250(%rbp),%rax
   1b7e9:	48 83 c0 08          	add    $0x8,%rax
   1b7ed:	48 89 85 e0 f4 ff ff 	mov    %rax,-0xb20(%rbp)
   1b7f4:	48 8d 85 b0 ed ff ff 	lea    -0x1250(%rbp),%rax
   1b7fb:	48 83 c0 08          	add    $0x8,%rax
   1b7ff:	48 89 85 e8 f4 ff ff 	mov    %rax,-0xb18(%rbp)
   1b806:	48 8d 85 b0 ed ff ff 	lea    -0x1250(%rbp),%rax
   1b80d:	48 83 c0 08          	add    $0x8,%rax
   1b811:	48 89 85 f0 f4 ff ff 	mov    %rax,-0xb10(%rbp)
   1b818:	48 8d 85 90 e6 ff ff 	lea    -0x1970(%rbp),%rax
   1b81f:	48 89 85 f8 f4 ff ff 	mov    %rax,-0xb08(%rbp)
   1b826:	48 8d 85 90 e6 ff ff 	lea    -0x1970(%rbp),%rax
   1b82d:	48 89 85 00 f5 ff ff 	mov    %rax,-0xb00(%rbp)
   1b834:	48 8d 85 90 e6 ff ff 	lea    -0x1970(%rbp),%rax
   1b83b:	48 89 85 08 f5 ff ff 	mov    %rax,-0xaf8(%rbp)
   1b842:	48 8d 85 b0 ed ff ff 	lea    -0x1250(%rbp),%rax
   1b849:	48 83 c0 08          	add    $0x8,%rax
   1b84d:	48 89 85 10 f5 ff ff 	mov    %rax,-0xaf0(%rbp)
   1b854:	48 8d 85 b0 ed ff ff 	lea    -0x1250(%rbp),%rax
   1b85b:	48 83 c0 08          	add    $0x8,%rax
   1b85f:	48 89 85 18 f5 ff ff 	mov    %rax,-0xae8(%rbp)
   1b866:	48 8d 85 90 e6 ff ff 	lea    -0x1970(%rbp),%rax
   1b86d:	48 89 85 20 f5 ff ff 	mov    %rax,-0xae0(%rbp)
   1b874:	48 c7 85 28 f5 ff ff 	movq   $0x0,-0xad8(%rbp)
   1b87b:	00 00 00 00 
   1b87f:	48 8d 85 90 e6 ff ff 	lea    -0x1970(%rbp),%rax
   1b886:	48 89 85 30 f5 ff ff 	mov    %rax,-0xad0(%rbp)
   1b88d:	48 8d 85 b0 ed ff ff 	lea    -0x1250(%rbp),%rax
   1b894:	48 83 c0 08          	add    $0x8,%rax
   1b898:	48 89 85 38 f5 ff ff 	mov    %rax,-0xac8(%rbp)
   1b89f:	48 8d 85 00 e7 ff ff 	lea    -0x1900(%rbp),%rax
   1b8a6:	48 89 85 40 f5 ff ff 	mov    %rax,-0xac0(%rbp)
   1b8ad:	48 c7 85 48 f5 ff ff 	movq   $0x0,-0xab8(%rbp)
   1b8b4:	00 00 00 00 
   1b8b8:	48 8d 85 b0 ed ff ff 	lea    -0x1250(%rbp),%rax
   1b8bf:	48 83 c0 08          	add    $0x8,%rax
   1b8c3:	48 89 85 50 f5 ff ff 	mov    %rax,-0xab0(%rbp)
   1b8ca:	48 8d 85 b0 ed ff ff 	lea    -0x1250(%rbp),%rax
   1b8d1:	48 83 c0 20          	add    $0x20,%rax
   1b8d5:	48 89 85 58 f5 ff ff 	mov    %rax,-0xaa8(%rbp)
   1b8dc:	48 8d 05 5d 67 00 00 	lea    0x675d(%rip),%rax        # 22040 <g_2+0x10>
   1b8e3:	48 89 85 60 f5 ff ff 	mov    %rax,-0xaa0(%rbp)
   1b8ea:	48 8d 85 b0 ed ff ff 	lea    -0x1250(%rbp),%rax
   1b8f1:	48 83 c0 08          	add    $0x8,%rax
   1b8f5:	48 89 85 68 f5 ff ff 	mov    %rax,-0xa98(%rbp)
   1b8fc:	48 c7 85 70 f5 ff ff 	movq   $0x0,-0xa90(%rbp)
   1b903:	00 00 00 00 
   1b907:	48 c7 85 78 f5 ff ff 	movq   $0x0,-0xa88(%rbp)
   1b90e:	00 00 00 00 
   1b912:	48 8d 85 b0 ed ff ff 	lea    -0x1250(%rbp),%rax
   1b919:	48 83 c0 08          	add    $0x8,%rax
   1b91d:	48 89 85 80 f5 ff ff 	mov    %rax,-0xa80(%rbp)
   1b924:	48 8d 05 15 67 00 00 	lea    0x6715(%rip),%rax        # 22040 <g_2+0x10>
   1b92b:	48 89 85 88 f5 ff ff 	mov    %rax,-0xa78(%rbp)
   1b932:	48 8d 85 b0 ed ff ff 	lea    -0x1250(%rbp),%rax
   1b939:	48 83 c0 20          	add    $0x20,%rax
   1b93d:	48 89 85 90 f5 ff ff 	mov    %rax,-0xa70(%rbp)
   1b944:	48 c7 85 98 f5 ff ff 	movq   $0x0,-0xa68(%rbp)
   1b94b:	00 00 00 00 
   1b94f:	48 8d 85 00 e7 ff ff 	lea    -0x1900(%rbp),%rax
   1b956:	48 89 85 a0 f5 ff ff 	mov    %rax,-0xa60(%rbp)
   1b95d:	48 8d 05 d0 66 00 00 	lea    0x66d0(%rip),%rax        # 22034 <g_2+0x4>
   1b964:	48 89 85 a8 f5 ff ff 	mov    %rax,-0xa58(%rbp)
   1b96b:	48 c7 85 b0 f5 ff ff 	movq   $0x0,-0xa50(%rbp)
   1b972:	00 00 00 00 
   1b976:	48 8d 85 b0 ed ff ff 	lea    -0x1250(%rbp),%rax
   1b97d:	48 83 c0 20          	add    $0x20,%rax
   1b981:	48 89 85 b8 f5 ff ff 	mov    %rax,-0xa48(%rbp)
   1b988:	48 8d 05 a5 66 00 00 	lea    0x66a5(%rip),%rax        # 22034 <g_2+0x4>
   1b98f:	48 89 85 c0 f5 ff ff 	mov    %rax,-0xa40(%rbp)
   1b996:	48 8d 85 00 e7 ff ff 	lea    -0x1900(%rbp),%rax
   1b99d:	48 89 85 c8 f5 ff ff 	mov    %rax,-0xa38(%rbp)
   1b9a4:	48 8d 85 b0 ed ff ff 	lea    -0x1250(%rbp),%rax
   1b9ab:	48 83 c0 08          	add    $0x8,%rax
   1b9af:	48 89 85 d0 f5 ff ff 	mov    %rax,-0xa30(%rbp)
   1b9b6:	48 8d 85 90 e6 ff ff 	lea    -0x1970(%rbp),%rax
   1b9bd:	48 89 85 d8 f5 ff ff 	mov    %rax,-0xa28(%rbp)
   1b9c4:	48 8d 05 75 66 00 00 	lea    0x6675(%rip),%rax        # 22040 <g_2+0x10>
   1b9cb:	48 89 85 e0 f5 ff ff 	mov    %rax,-0xa20(%rbp)
   1b9d2:	48 8d 85 b0 ed ff ff 	lea    -0x1250(%rbp),%rax
   1b9d9:	48 83 c0 08          	add    $0x8,%rax
   1b9dd:	48 89 85 e8 f5 ff ff 	mov    %rax,-0xa18(%rbp)
   1b9e4:	48 8d 05 55 66 00 00 	lea    0x6655(%rip),%rax        # 22040 <g_2+0x10>
   1b9eb:	48 89 85 f0 f5 ff ff 	mov    %rax,-0xa10(%rbp)
   1b9f2:	48 8d 85 90 e6 ff ff 	lea    -0x1970(%rbp),%rax
   1b9f9:	48 89 85 f8 f5 ff ff 	mov    %rax,-0xa08(%rbp)
   1ba00:	48 8d 85 b0 ed ff ff 	lea    -0x1250(%rbp),%rax
   1ba07:	48 83 c0 08          	add    $0x8,%rax
   1ba0b:	48 89 85 00 f6 ff ff 	mov    %rax,-0xa00(%rbp)
   1ba12:	48 8d 85 b0 ed ff ff 	lea    -0x1250(%rbp),%rax
   1ba19:	48 83 c0 08          	add    $0x8,%rax
   1ba1d:	48 89 85 08 f6 ff ff 	mov    %rax,-0x9f8(%rbp)
   1ba24:	48 8d 85 00 e7 ff ff 	lea    -0x1900(%rbp),%rax
   1ba2b:	48 89 85 10 f6 ff ff 	mov    %rax,-0x9f0(%rbp)
   1ba32:	48 8d 85 00 e7 ff ff 	lea    -0x1900(%rbp),%rax
   1ba39:	48 89 85 18 f6 ff ff 	mov    %rax,-0x9e8(%rbp)
   1ba40:	48 c7 85 20 f6 ff ff 	movq   $0x0,-0x9e0(%rbp)
   1ba47:	00 00 00 00 
   1ba4b:	48 8d 85 90 e6 ff ff 	lea    -0x1970(%rbp),%rax
   1ba52:	48 89 85 28 f6 ff ff 	mov    %rax,-0x9d8(%rbp)
   1ba59:	48 8d 85 b0 ed ff ff 	lea    -0x1250(%rbp),%rax
   1ba60:	48 83 c0 08          	add    $0x8,%rax
   1ba64:	48 89 85 30 f6 ff ff 	mov    %rax,-0x9d0(%rbp)
   1ba6b:	48 c7 85 38 f6 ff ff 	movq   $0x0,-0x9c8(%rbp)
   1ba72:	00 00 00 00 
   1ba76:	48 8d 85 b0 ed ff ff 	lea    -0x1250(%rbp),%rax
   1ba7d:	48 83 c0 08          	add    $0x8,%rax
   1ba81:	48 89 85 40 f6 ff ff 	mov    %rax,-0x9c0(%rbp)
   1ba88:	48 8d 85 b0 ed ff ff 	lea    -0x1250(%rbp),%rax
   1ba8f:	48 83 c0 08          	add    $0x8,%rax
   1ba93:	48 89 85 48 f6 ff ff 	mov    %rax,-0x9b8(%rbp)
   1ba9a:	48 8d 85 b0 ed ff ff 	lea    -0x1250(%rbp),%rax
   1baa1:	48 83 c0 04          	add    $0x4,%rax
   1baa5:	48 89 85 50 f6 ff ff 	mov    %rax,-0x9b0(%rbp)
   1baac:	48 8d 85 90 e6 ff ff 	lea    -0x1970(%rbp),%rax
   1bab3:	48 89 85 58 f6 ff ff 	mov    %rax,-0x9a8(%rbp)
   1baba:	48 8d 85 90 e6 ff ff 	lea    -0x1970(%rbp),%rax
   1bac1:	48 89 85 60 f6 ff ff 	mov    %rax,-0x9a0(%rbp)
   1bac8:	48 8d 85 b0 ed ff ff 	lea    -0x1250(%rbp),%rax
   1bacf:	48 83 c0 04          	add    $0x4,%rax
   1bad3:	48 89 85 68 f6 ff ff 	mov    %rax,-0x998(%rbp)
   1bada:	48 8d 85 b0 ed ff ff 	lea    -0x1250(%rbp),%rax
   1bae1:	48 83 c0 08          	add    $0x8,%rax
   1bae5:	48 89 85 70 f6 ff ff 	mov    %rax,-0x990(%rbp)
   1baec:	48 8d 85 00 e7 ff ff 	lea    -0x1900(%rbp),%rax
   1baf3:	48 89 85 78 f6 ff ff 	mov    %rax,-0x988(%rbp)
   1bafa:	48 8d 85 90 e6 ff ff 	lea    -0x1970(%rbp),%rax
   1bb01:	48 89 85 80 f6 ff ff 	mov    %rax,-0x980(%rbp)
   1bb08:	48 8d 85 00 e7 ff ff 	lea    -0x1900(%rbp),%rax
   1bb0f:	48 89 85 88 f6 ff ff 	mov    %rax,-0x978(%rbp)
   1bb16:	48 8d 05 87 65 00 00 	lea    0x6587(%rip),%rax        # 220a4 <g_88>
   1bb1d:	48 89 85 90 f6 ff ff 	mov    %rax,-0x970(%rbp)
   1bb24:	48 8d 85 90 e6 ff ff 	lea    -0x1970(%rbp),%rax
   1bb2b:	48 89 85 98 f6 ff ff 	mov    %rax,-0x968(%rbp)
   1bb32:	48 c7 85 a0 f6 ff ff 	movq   $0x0,-0x960(%rbp)
   1bb39:	00 00 00 00 
   1bb3d:	48 8d 85 b0 ed ff ff 	lea    -0x1250(%rbp),%rax
   1bb44:	48 83 c0 20          	add    $0x20,%rax
   1bb48:	48 89 85 a8 f6 ff ff 	mov    %rax,-0x958(%rbp)
   1bb4f:	48 8d 85 90 e6 ff ff 	lea    -0x1970(%rbp),%rax
   1bb56:	48 89 85 b0 f6 ff ff 	mov    %rax,-0x950(%rbp)
   1bb5d:	48 8d 85 90 e6 ff ff 	lea    -0x1970(%rbp),%rax
   1bb64:	48 89 85 b8 f6 ff ff 	mov    %rax,-0x948(%rbp)
   1bb6b:	48 8d 05 ce 64 00 00 	lea    0x64ce(%rip),%rax        # 22040 <g_2+0x10>
   1bb72:	48 89 85 c0 f6 ff ff 	mov    %rax,-0x940(%rbp)
   1bb79:	48 8d 85 90 e6 ff ff 	lea    -0x1970(%rbp),%rax
   1bb80:	48 89 85 c8 f6 ff ff 	mov    %rax,-0x938(%rbp)
   1bb87:	48 8d 85 b0 ed ff ff 	lea    -0x1250(%rbp),%rax
   1bb8e:	48 83 c0 08          	add    $0x8,%rax
   1bb92:	48 89 85 d0 f6 ff ff 	mov    %rax,-0x930(%rbp)
   1bb99:	48 8d 85 90 e6 ff ff 	lea    -0x1970(%rbp),%rax
   1bba0:	48 89 85 d8 f6 ff ff 	mov    %rax,-0x928(%rbp)
   1bba7:	48 8d 05 92 64 00 00 	lea    0x6492(%rip),%rax        # 22040 <g_2+0x10>
   1bbae:	48 89 85 e0 f6 ff ff 	mov    %rax,-0x920(%rbp)
   1bbb5:	48 8d 85 90 e6 ff ff 	lea    -0x1970(%rbp),%rax
   1bbbc:	48 89 85 e8 f6 ff ff 	mov    %rax,-0x918(%rbp)
   1bbc3:	48 8d 85 90 e6 ff ff 	lea    -0x1970(%rbp),%rax
   1bbca:	48 89 85 f0 f6 ff ff 	mov    %rax,-0x910(%rbp)
   1bbd1:	48 8d 05 5c 64 00 00 	lea    0x645c(%rip),%rax        # 22034 <g_2+0x4>
   1bbd8:	48 89 85 f8 f6 ff ff 	mov    %rax,-0x908(%rbp)
   1bbdf:	48 8d 05 be 64 00 00 	lea    0x64be(%rip),%rax        # 220a4 <g_88>
   1bbe6:	48 89 85 00 f7 ff ff 	mov    %rax,-0x900(%rbp)
   1bbed:	48 8d 85 00 e7 ff ff 	lea    -0x1900(%rbp),%rax
   1bbf4:	48 89 85 08 f7 ff ff 	mov    %rax,-0x8f8(%rbp)
   1bbfb:	48 8d 85 00 e7 ff ff 	lea    -0x1900(%rbp),%rax
   1bc02:	48 89 85 10 f7 ff ff 	mov    %rax,-0x8f0(%rbp)
   1bc09:	48 8d 85 90 e6 ff ff 	lea    -0x1970(%rbp),%rax
   1bc10:	48 89 85 18 f7 ff ff 	mov    %rax,-0x8e8(%rbp)
   1bc17:	48 8d 85 b0 ed ff ff 	lea    -0x1250(%rbp),%rax
   1bc1e:	48 83 c0 08          	add    $0x8,%rax
   1bc22:	48 89 85 20 f7 ff ff 	mov    %rax,-0x8e0(%rbp)
   1bc29:	48 8d 05 10 64 00 00 	lea    0x6410(%rip),%rax        # 22040 <g_2+0x10>
   1bc30:	48 89 85 28 f7 ff ff 	mov    %rax,-0x8d8(%rbp)
   1bc37:	48 c7 85 30 f7 ff ff 	movq   $0x0,-0x8d0(%rbp)
   1bc3e:	00 00 00 00 
   1bc42:	48 8d 85 90 e6 ff ff 	lea    -0x1970(%rbp),%rax
   1bc49:	48 89 85 38 f7 ff ff 	mov    %rax,-0x8c8(%rbp)
   1bc50:	48 8d 85 90 e6 ff ff 	lea    -0x1970(%rbp),%rax
   1bc57:	48 89 85 40 f7 ff ff 	mov    %rax,-0x8c0(%rbp)
   1bc5e:	48 8d 85 90 e6 ff ff 	lea    -0x1970(%rbp),%rax
   1bc65:	48 89 85 48 f7 ff ff 	mov    %rax,-0x8b8(%rbp)
   1bc6c:	48 8d 85 90 e6 ff ff 	lea    -0x1970(%rbp),%rax
   1bc73:	48 89 85 50 f7 ff ff 	mov    %rax,-0x8b0(%rbp)
   1bc7a:	48 8d 85 b0 ed ff ff 	lea    -0x1250(%rbp),%rax
   1bc81:	48 83 c0 08          	add    $0x8,%rax
   1bc85:	48 89 85 58 f7 ff ff 	mov    %rax,-0x8a8(%rbp)
   1bc8c:	48 8d 85 b0 ed ff ff 	lea    -0x1250(%rbp),%rax
   1bc93:	48 83 c0 20          	add    $0x20,%rax
   1bc97:	48 89 85 60 f7 ff ff 	mov    %rax,-0x8a0(%rbp)
   1bc9e:	48 8d 85 b0 ed ff ff 	lea    -0x1250(%rbp),%rax
   1bca5:	48 83 c0 08          	add    $0x8,%rax
   1bca9:	48 89 85 68 f7 ff ff 	mov    %rax,-0x898(%rbp)
   1bcb0:	48 c7 85 70 f7 ff ff 	movq   $0x0,-0x890(%rbp)
   1bcb7:	00 00 00 00 
   1bcbb:	48 8d 85 00 e7 ff ff 	lea    -0x1900(%rbp),%rax
   1bcc2:	48 89 85 78 f7 ff ff 	mov    %rax,-0x888(%rbp)
   1bcc9:	48 8d 85 b0 ed ff ff 	lea    -0x1250(%rbp),%rax
   1bcd0:	48 83 c0 08          	add    $0x8,%rax
   1bcd4:	48 89 85 80 f7 ff ff 	mov    %rax,-0x880(%rbp)
   1bcdb:	48 8d 85 90 e6 ff ff 	lea    -0x1970(%rbp),%rax
   1bce2:	48 89 85 88 f7 ff ff 	mov    %rax,-0x878(%rbp)
   1bce9:	48 8d 85 90 e6 ff ff 	lea    -0x1970(%rbp),%rax
   1bcf0:	48 89 85 90 f7 ff ff 	mov    %rax,-0x870(%rbp)
   1bcf7:	48 8d 85 b0 ed ff ff 	lea    -0x1250(%rbp),%rax
   1bcfe:	48 83 c0 08          	add    $0x8,%rax
   1bd02:	48 89 85 98 f7 ff ff 	mov    %rax,-0x868(%rbp)
   1bd09:	48 8d 85 90 e6 ff ff 	lea    -0x1970(%rbp),%rax
   1bd10:	48 89 85 a0 f7 ff ff 	mov    %rax,-0x860(%rbp)
   1bd17:	48 8d 85 b0 ed ff ff 	lea    -0x1250(%rbp),%rax
   1bd1e:	48 83 c0 08          	add    $0x8,%rax
   1bd22:	48 89 85 a8 f7 ff ff 	mov    %rax,-0x858(%rbp)
   1bd29:	48 8d 85 b0 ed ff ff 	lea    -0x1250(%rbp),%rax
   1bd30:	48 83 c0 08          	add    $0x8,%rax
   1bd34:	48 89 85 b0 f7 ff ff 	mov    %rax,-0x850(%rbp)
   1bd3b:	48 8d 85 90 e6 ff ff 	lea    -0x1970(%rbp),%rax
   1bd42:	48 89 85 b8 f7 ff ff 	mov    %rax,-0x848(%rbp)
   1bd49:	48 8d 85 b0 ed ff ff 	lea    -0x1250(%rbp),%rax
   1bd50:	48 83 c0 08          	add    $0x8,%rax
   1bd54:	48 89 85 c0 f7 ff ff 	mov    %rax,-0x840(%rbp)
   1bd5b:	48 8d 85 00 e7 ff ff 	lea    -0x1900(%rbp),%rax
   1bd62:	48 89 85 c8 f7 ff ff 	mov    %rax,-0x838(%rbp)
   1bd69:	48 8d 05 c4 62 00 00 	lea    0x62c4(%rip),%rax        # 22034 <g_2+0x4>
   1bd70:	48 89 85 d0 f7 ff ff 	mov    %rax,-0x830(%rbp)
   1bd77:	48 8d 05 b6 62 00 00 	lea    0x62b6(%rip),%rax        # 22034 <g_2+0x4>
   1bd7e:	48 89 85 d8 f7 ff ff 	mov    %rax,-0x828(%rbp)
   1bd85:	48 8d 85 00 e7 ff ff 	lea    -0x1900(%rbp),%rax
   1bd8c:	48 89 85 e0 f7 ff ff 	mov    %rax,-0x820(%rbp)
   1bd93:	48 8d 85 00 e7 ff ff 	lea    -0x1900(%rbp),%rax
   1bd9a:	48 89 85 e8 f7 ff ff 	mov    %rax,-0x818(%rbp)
   1bda1:	48 8d 85 90 e6 ff ff 	lea    -0x1970(%rbp),%rax
   1bda8:	48 89 85 f0 f7 ff ff 	mov    %rax,-0x810(%rbp)
   1bdaf:	48 8d 85 b0 ed ff ff 	lea    -0x1250(%rbp),%rax
   1bdb6:	48 83 c0 08          	add    $0x8,%rax
   1bdba:	48 89 85 f8 f7 ff ff 	mov    %rax,-0x808(%rbp)
   1bdc1:	48 8d 85 90 e6 ff ff 	lea    -0x1970(%rbp),%rax
   1bdc8:	48 89 85 00 f8 ff ff 	mov    %rax,-0x800(%rbp)
   1bdcf:	48 8d 05 6a 62 00 00 	lea    0x626a(%rip),%rax        # 22040 <g_2+0x10>
   1bdd6:	48 89 85 08 f8 ff ff 	mov    %rax,-0x7f8(%rbp)
   1bddd:	48 8d 85 b0 ed ff ff 	lea    -0x1250(%rbp),%rax
   1bde4:	48 83 c0 04          	add    $0x4,%rax
   1bde8:	48 89 85 10 f8 ff ff 	mov    %rax,-0x7f0(%rbp)
   1bdef:	48 8d 85 00 e7 ff ff 	lea    -0x1900(%rbp),%rax
   1bdf6:	48 89 85 18 f8 ff ff 	mov    %rax,-0x7e8(%rbp)
   1bdfd:	48 8d 85 90 e6 ff ff 	lea    -0x1970(%rbp),%rax
   1be04:	48 89 85 20 f8 ff ff 	mov    %rax,-0x7e0(%rbp)
   1be0b:	48 8d 85 90 e6 ff ff 	lea    -0x1970(%rbp),%rax
   1be12:	48 89 85 28 f8 ff ff 	mov    %rax,-0x7d8(%rbp)
   1be19:	48 8d 85 90 e6 ff ff 	lea    -0x1970(%rbp),%rax
   1be20:	48 89 85 30 f8 ff ff 	mov    %rax,-0x7d0(%rbp)
   1be27:	8b 85 7c e6 ff ff    	mov    -0x1984(%rbp),%eax
   1be2d:	0f b6 d8             	movzbl %al,%ebx
   1be30:	8b 05 82 62 00 00    	mov    0x6282(%rip),%eax        # 220b8 <g_148>
   1be36:	83 c0 02             	add    $0x2,%eax
   1be39:	89 c0                	mov    %eax,%eax
   1be3b:	48 8d 14 00          	lea    (%rax,%rax,1),%rdx
   1be3f:	48 8d 05 62 62 00 00 	lea    0x6262(%rip),%rax        # 220a8 <g_98>
   1be46:	0f b7 04 02          	movzwl (%rdx,%rax,1),%eax
   1be4a:	0f b7 c0             	movzwl %ax,%eax
   1be4d:	48 ba eb 11 31 53 29 	movabs $0xa0813f29533111eb,%rdx
   1be54:	3f 81 a0 
   1be57:	48 31 d0             	xor    %rdx,%rax
   1be5a:	48 89 c1             	mov    %rax,%rcx
   1be5d:	8b 05 55 62 00 00    	mov    0x6255(%rip),%eax        # 220b8 <g_148>
   1be63:	83 c0 03             	add    $0x3,%eax
   1be66:	89 c0                	mov    %eax,%eax
   1be68:	48 8d 14 85 00 00 00 	lea    0x0(,%rax,4),%rdx
   1be6f:	00 
   1be70:	48 8d 05 69 62 00 00 	lea    0x6269(%rip),%rax        # 220e0 <g_211>
   1be77:	8b 04 02             	mov    (%rdx,%rax,1),%eax
   1be7a:	89 c0                	mov    %eax,%eax
   1be7c:	48 09 c1             	or     %rax,%rcx
   1be7f:	48 89 ca             	mov    %rcx,%rdx
   1be82:	48 8b 05 3f 8c 00 00 	mov    0x8c3f(%rip),%rax        # 24ac8 <g_411>
   1be89:	0f b7 00             	movzwl (%rax),%eax
   1be8c:	48 0f bf c0          	movswq %ax,%rax
   1be90:	48 39 c2             	cmp    %rax,%rdx
   1be93:	0f 95 c0             	setne  %al
   1be96:	0f b6 c0             	movzbl %al,%eax
   1be99:	48 be d5 75 70 5a 01 	movabs $0x15691e015a7075d5,%rsi
   1bea0:	1e 69 15 
   1bea3:	48 89 c7             	mov    %rax,%rdi
   1bea6:	e8 d5 e1 fe ff       	callq  a080 <safe_mod_func_uint64_t_u_u>
   1beab:	8b 85 b8 ed ff ff    	mov    -0x1248(%rbp),%eax
   1beb1:	0f be c0             	movsbl %al,%eax
   1beb4:	be ff ff ff ff       	mov    $0xffffffff,%esi
   1beb9:	89 c7                	mov    %eax,%edi
   1bebb:	e8 32 d3 fe ff       	callq  91f2 <safe_sub_func_int8_t_s_s>
   1bec0:	0f be d0             	movsbl %al,%edx
   1bec3:	8b 85 b8 ed ff ff    	mov    -0x1248(%rbp),%eax
   1bec9:	39 c2                	cmp    %eax,%edx
   1becb:	0f 9f c0             	setg   %al
   1bece:	0f b6 d0             	movzbl %al,%edx
   1bed1:	48 8b 05 18 62 00 00 	mov    0x6218(%rip),%rax        # 220f0 <g_247>
   1bed8:	48 21 c2             	and    %rax,%rdx
   1bedb:	48 8b 85 68 e7 ff ff 	mov    -0x1898(%rbp),%rax
   1bee2:	48 89 10             	mov    %rdx,(%rax)
   1bee5:	83 bd 7c e6 ff ff 05 	cmpl   $0x5,-0x1984(%rbp)
   1beec:	0f 97 c2             	seta   %dl
   1beef:	8b 05 c3 61 00 00    	mov    0x61c3(%rip),%eax        # 220b8 <g_148>
   1bef5:	8d 70 01             	lea    0x1(%rax),%esi
   1bef8:	0f b6 c2             	movzbl %dl,%eax
   1befb:	89 f2                	mov    %esi,%edx
   1befd:	48 8d 0c 12          	lea    (%rdx,%rdx,1),%rcx
   1bf01:	48 8d 15 a0 61 00 00 	lea    0x61a0(%rip),%rdx        # 220a8 <g_98>
   1bf08:	66 89 04 11          	mov    %ax,(%rcx,%rdx,1)
   1bf0c:	89 f0                	mov    %esi,%eax
   1bf0e:	48 8d 14 00          	lea    (%rax,%rax,1),%rdx
   1bf12:	48 8d 05 8f 61 00 00 	lea    0x618f(%rip),%rax        # 220a8 <g_98>
   1bf19:	0f b7 04 02          	movzwl (%rdx,%rax,1),%eax
   1bf1d:	0f b7 d0             	movzwl %ax,%edx
   1bf20:	8b 85 b8 ed ff ff    	mov    -0x1248(%rbp),%eax
   1bf26:	39 c2                	cmp    %eax,%edx
   1bf28:	0f 9c c0             	setl   %al
   1bf2b:	0f b6 c0             	movzbl %al,%eax
   1bf2e:	be 06 00 00 00       	mov    $0x6,%esi
   1bf33:	89 c7                	mov    %eax,%edi
   1bf35:	e8 29 d6 fe ff       	callq  9563 <safe_rshift_func_int16_t_s_u>
   1bf3a:	48 8b 05 97 8b 00 00 	mov    0x8b97(%rip),%rax        # 24ad8 <g_463>
   1bf41:	48 85 c0             	test   %rax,%rax
   1bf44:	0f 95 c0             	setne  %al
   1bf47:	0f b6 c0             	movzbl %al,%eax
   1bf4a:	89 de                	mov    %ebx,%esi
   1bf4c:	89 c7                	mov    %eax,%edi
   1bf4e:	e8 40 dc fe ff       	callq  9b93 <safe_mul_func_uint8_t_u_u>
   1bf53:	0f be c0             	movsbl %al,%eax
   1bf56:	89 c6                	mov    %eax,%esi
   1bf58:	bf 4d 00 00 00       	mov    $0x4d,%edi
   1bf5d:	e8 cf d2 fe ff       	callq  9231 <safe_mod_func_int8_t_s_s>
   1bf62:	48 0f be c0          	movsbq %al,%rax
   1bf66:	25 62 f0 20 b5       	and    $0xb520f062,%eax
   1bf6b:	48 83 f8 4b          	cmp    $0x4b,%rax
   1bf6f:	0f 84 02 02 00 00    	je     1c177 <func_92+0x39ee>
   1bf75:	48 8d 85 40 f8 ff ff 	lea    -0x7c0(%rbp),%rax
   1bf7c:	48 8d 15 9d 32 00 00 	lea    0x329d(%rip),%rdx        # 1f220 <g_431+0x11a2>
   1bf83:	b9 2d 00 00 00       	mov    $0x2d,%ecx
   1bf88:	48 89 c7             	mov    %rax,%rdi
   1bf8b:	48 89 d6             	mov    %rdx,%rsi
   1bf8e:	f3 48 a5             	rep movsq %ds:(%rsi),%es:(%rdi)
   1bf91:	48 8d 05 2d 61 00 00 	lea    0x612d(%rip),%rax        # 220c5 <g_155+0x5>
   1bf98:	48 89 85 b8 e7 ff ff 	mov    %rax,-0x1848(%rbp)
   1bf9f:	0f b6 05 0e 61 00 00 	movzbl 0x610e(%rip),%eax        # 220b4 <g_127>
   1bfa6:	0f b6 d8             	movzbl %al,%ebx
   1bfa9:	4c 8b a5 e0 f8 ff ff 	mov    -0x720(%rbp),%r12
   1bfb0:	8b 05 02 61 00 00    	mov    0x6102(%rip),%eax        # 220b8 <g_148>
   1bfb6:	83 c0 03             	add    $0x3,%eax
   1bfb9:	89 c0                	mov    %eax,%eax
   1bfbb:	48 8d 14 85 00 00 00 	lea    0x0(,%rax,4),%rdx
   1bfc2:	00 
   1bfc3:	48 8d 05 16 61 00 00 	lea    0x6116(%rip),%rax        # 220e0 <g_211>
   1bfca:	44 8b 2c 02          	mov    (%rdx,%rax,1),%r13d
   1bfce:	b8 21 97 ff ff       	mov    $0xffff9721,%eax
   1bfd3:	98                   	cwtl   
   1bfd4:	be 00 00 00 00       	mov    $0x0,%esi
   1bfd9:	89 c7                	mov    %eax,%edi
   1bfdb:	e8 f0 de fe ff       	callq  9ed0 <safe_sub_func_uint32_t_u_u>
   1bfe0:	8b 85 7c e6 ff ff    	mov    -0x1984(%rbp),%eax
   1bfe6:	89 c6                	mov    %eax,%esi
   1bfe8:	bf 01 00 00 00       	mov    $0x1,%edi
   1bfed:	e8 33 df fe ff       	callq  9f25 <safe_div_func_uint32_t_u_u>
   1bff2:	b9 01 00 00 00       	mov    $0x1,%ecx
   1bff7:	8b 05 bb 60 00 00    	mov    0x60bb(%rip),%eax        # 220b8 <g_148>
   1bffd:	83 c0 02             	add    $0x2,%eax
   1c000:	89 c0                	mov    %eax,%eax
   1c002:	48 8d 14 00          	lea    (%rax,%rax,1),%rdx
   1c006:	48 8d 05 9b 60 00 00 	lea    0x609b(%rip),%rax        # 220a8 <g_98>
   1c00d:	0f b7 04 02          	movzwl (%rdx,%rax,1),%eax
   1c011:	0f b7 c0             	movzwl %ax,%eax
   1c014:	39 c1                	cmp    %eax,%ecx
   1c016:	0f 9f c0             	setg   %al
   1c019:	0f b6 c0             	movzbl %al,%eax
   1c01c:	39 85 7c e6 ff ff    	cmp    %eax,-0x1984(%rbp)
   1c022:	0f 95 c0             	setne  %al
   1c025:	0f b6 c0             	movzbl %al,%eax
   1c028:	41 39 c5             	cmp    %eax,%r13d
   1c02b:	0f 97 c0             	seta   %al
   1c02e:	0f b6 c0             	movzbl %al,%eax
   1c031:	4c 89 e6             	mov    %r12,%rsi
   1c034:	48 89 c7             	mov    %rax,%rdi
   1c037:	e8 f2 df fe ff       	callq  a02e <safe_add_func_uint64_t_u_u>
   1c03c:	8b 05 76 60 00 00    	mov    0x6076(%rip),%eax        # 220b8 <g_148>
   1c042:	83 c0 01             	add    $0x1,%eax
   1c045:	89 c0                	mov    %eax,%eax
   1c047:	48 8d 14 00          	lea    (%rax,%rax,1),%rdx
   1c04b:	48 8d 05 56 60 00 00 	lea    0x6056(%rip),%rax        # 220a8 <g_98>
   1c052:	0f b7 04 02          	movzwl (%rdx,%rax,1),%eax
   1c056:	0f b7 c0             	movzwl %ax,%eax
   1c059:	be 0c 46 00 00       	mov    $0x460c,%esi
   1c05e:	89 c7                	mov    %eax,%edi
   1c060:	e8 d8 dc fe ff       	callq  9d3d <safe_mul_func_uint16_t_u_u>
   1c065:	8b 05 4d 60 00 00    	mov    0x604d(%rip),%eax        # 220b8 <g_148>
   1c06b:	0f b6 c0             	movzbl %al,%eax
   1c06e:	89 de                	mov    %ebx,%esi
   1c070:	89 c7                	mov    %eax,%edi
   1c072:	e8 01 db fe ff       	callq  9b78 <safe_sub_func_uint8_t_u_u>
   1c077:	0f b6 c0             	movzbl %al,%eax
   1c07a:	39 85 7c e6 ff ff    	cmp    %eax,-0x1984(%rbp)
   1c080:	0f 97 c2             	seta   %dl
   1c083:	48 8b 85 70 e6 ff ff 	mov    -0x1990(%rbp),%rax
   1c08a:	48 8b 00             	mov    (%rax),%rax
   1c08d:	0f b6 d2             	movzbl %dl,%edx
   1c090:	89 10                	mov    %edx,(%rax)
   1c092:	48 8b 9d e0 f8 ff ff 	mov    -0x720(%rbp),%rbx
   1c099:	8b 05 19 60 00 00    	mov    0x6019(%rip),%eax        # 220b8 <g_148>
   1c09f:	83 c0 01             	add    $0x1,%eax
   1c0a2:	89 c0                	mov    %eax,%eax
   1c0a4:	48 8d 14 00          	lea    (%rax,%rax,1),%rdx
   1c0a8:	48 8d 05 f9 5f 00 00 	lea    0x5ff9(%rip),%rax        # 220a8 <g_98>
   1c0af:	0f b7 04 02          	movzwl (%rdx,%rax,1),%eax
   1c0b3:	66 3d f7 00          	cmp    $0xf7,%ax
   1c0b7:	8b 85 7c e6 ff ff    	mov    -0x1984(%rbp),%eax
   1c0bd:	0f be d0             	movsbl %al,%edx
   1c0c0:	48 8b 85 e0 f8 ff ff 	mov    -0x720(%rbp),%rax
   1c0c7:	89 c1                	mov    %eax,%ecx
   1c0c9:	48 8b 85 b8 e7 ff ff 	mov    -0x1848(%rbp),%rax
   1c0d0:	88 08                	mov    %cl,(%rax)
   1c0d2:	48 8b 85 b8 e7 ff ff 	mov    -0x1848(%rbp),%rax
   1c0d9:	0f b6 00             	movzbl (%rax),%eax
   1c0dc:	0f be c0             	movsbl %al,%eax
   1c0df:	89 d6                	mov    %edx,%esi
   1c0e1:	89 c7                	mov    %eax,%edi
   1c0e3:	e8 49 d1 fe ff       	callq  9231 <safe_mod_func_int8_t_s_s>
   1c0e8:	0f b7 95 e0 e8 ff ff 	movzwl -0x1720(%rbp),%edx
   1c0ef:	48 8b 85 70 e6 ff ff 	mov    -0x1990(%rbp),%rax
   1c0f6:	48 8b 00             	mov    (%rax),%rax
   1c0f9:	0f b7 d2             	movzwl %dx,%edx
   1c0fc:	89 10                	mov    %edx,(%rax)
   1c0fe:	8b 10                	mov    (%rax),%edx
   1c100:	48 8b 05 19 82 00 00 	mov    0x8219(%rip),%rax        # 24320 <g_214>
   1c107:	48 8b 00             	mov    (%rax),%rax
   1c10a:	8b 00                	mov    (%rax),%eax
   1c10c:	39 c2                	cmp    %eax,%edx
   1c10e:	0f 9d c0             	setge  %al
   1c111:	0f b6 c0             	movzbl %al,%eax
   1c114:	48 39 c3             	cmp    %rax,%rbx
   1c117:	0f 95 c0             	setne  %al
   1c11a:	0f b6 c0             	movzbl %al,%eax
   1c11d:	39 85 7c e6 ff ff    	cmp    %eax,-0x1984(%rbp)
   1c123:	73 0c                	jae    1c131 <func_92+0x39a8>
   1c125:	0f b7 85 e0 e8 ff ff 	movzwl -0x1720(%rbp),%eax
   1c12c:	e9 76 0b 00 00       	jmpq   1cca7 <func_92+0x451e>
   1c131:	48 8b 95 e0 f8 ff ff 	mov    -0x720(%rbp),%rdx
   1c138:	48 8b 85 70 e6 ff ff 	mov    -0x1990(%rbp),%rax
   1c13f:	48 8b 00             	mov    (%rax),%rax
   1c142:	89 10                	mov    %edx,(%rax)
   1c144:	48 8b 85 70 e6 ff ff 	mov    -0x1990(%rbp),%rax
   1c14b:	48 8b 00             	mov    (%rax),%rax
   1c14e:	8b 00                	mov    (%rax),%eax
   1c150:	85 c0                	test   %eax,%eax
   1c152:	0f 85 46 04 00 00    	jne    1c59e <func_92+0x3e15>
   1c158:	48 8b 85 70 e6 ff ff 	mov    -0x1990(%rbp),%rax
   1c15f:	48 8b 00             	mov    (%rax),%rax
   1c162:	8b 00                	mov    (%rax),%eax
   1c164:	85 c0                	test   %eax,%eax
   1c166:	0f 85 15 04 00 00    	jne    1c581 <func_92+0x3df8>
   1c16c:	8b 85 7c e6 ff ff    	mov    -0x1984(%rbp),%eax
   1c172:	e9 30 0b 00 00       	jmpq   1cca7 <func_92+0x451e>
   1c177:	48 c7 85 88 e7 ff ff 	movq   $0x0,-0x1878(%rbp)
   1c17e:	00 00 00 00 
   1c182:	48 8d 85 b0 ed ff ff 	lea    -0x1250(%rbp),%rax
   1c189:	48 89 85 90 e7 ff ff 	mov    %rax,-0x1870(%rbp)
   1c190:	48 8d 85 b0 ed ff ff 	lea    -0x1250(%rbp),%rax
   1c197:	48 83 c0 08          	add    $0x8,%rax
   1c19b:	48 89 85 98 e7 ff ff 	mov    %rax,-0x1868(%rbp)
   1c1a2:	48 8d 85 90 f0 ff ff 	lea    -0xf70(%rbp),%rax
   1c1a9:	48 8d 15 10 78 00 00 	lea    0x7810(%rip),%rdx        # 239c0 <g_2474+0x1496>
   1c1b0:	b9 38 00 00 00       	mov    $0x38,%ecx
   1c1b5:	48 89 c7             	mov    %rax,%rdi
   1c1b8:	48 89 d6             	mov    %rdx,%rsi
   1c1bb:	f3 48 a5             	rep movsq %ds:(%rsi),%es:(%rdi)
   1c1be:	48 c7 85 10 e7 ff ff 	movq   $0x0,-0x18f0(%rbp)
   1c1c5:	00 00 00 00 
   1c1c9:	48 8d 85 10 e7 ff ff 	lea    -0x18f0(%rbp),%rax
   1c1d0:	48 89 85 a0 e7 ff ff 	mov    %rax,-0x1860(%rbp)
   1c1d7:	c6 85 f8 e6 ff ff 96 	movb   $0x96,-0x1908(%rbp)
   1c1de:	48 8d 05 b5 5e 00 00 	lea    0x5eb5(%rip),%rax        # 2209a <g_63+0x2>
   1c1e5:	48 89 85 a8 e7 ff ff 	mov    %rax,-0x1858(%rbp)
   1c1ec:	48 8d 85 e0 e8 ff ff 	lea    -0x1720(%rbp),%rax
   1c1f3:	48 83 c0 04          	add    $0x4,%rax
   1c1f7:	48 89 85 18 e7 ff ff 	mov    %rax,-0x18e8(%rbp)
   1c1fe:	48 8d 85 18 e7 ff ff 	lea    -0x18e8(%rbp),%rax
   1c205:	48 89 85 00 ef ff ff 	mov    %rax,-0x1100(%rbp)
   1c20c:	48 8d 85 18 e7 ff ff 	lea    -0x18e8(%rbp),%rax
   1c213:	48 89 85 08 ef ff ff 	mov    %rax,-0x10f8(%rbp)
   1c21a:	48 8d 85 18 e7 ff ff 	lea    -0x18e8(%rbp),%rax
   1c221:	48 89 85 10 ef ff ff 	mov    %rax,-0x10f0(%rbp)
   1c228:	48 8d 85 18 e7 ff ff 	lea    -0x18e8(%rbp),%rax
   1c22f:	48 89 85 18 ef ff ff 	mov    %rax,-0x10e8(%rbp)
   1c236:	48 8d 85 18 e7 ff ff 	lea    -0x18e8(%rbp),%rax
   1c23d:	48 89 85 20 ef ff ff 	mov    %rax,-0x10e0(%rbp)
   1c244:	48 8d 85 18 e7 ff ff 	lea    -0x18e8(%rbp),%rax
   1c24b:	48 89 85 28 ef ff ff 	mov    %rax,-0x10d8(%rbp)
   1c252:	48 8d 85 00 ef ff ff 	lea    -0x1100(%rbp),%rax
   1c259:	48 83 c0 28          	add    $0x28,%rax
   1c25d:	48 89 85 20 e7 ff ff 	mov    %rax,-0x18e0(%rbp)
   1c264:	48 8d 85 20 e7 ff ff 	lea    -0x18e0(%rbp),%rax
   1c26b:	48 89 85 28 e7 ff ff 	mov    %rax,-0x18d8(%rbp)
   1c272:	0f b7 05 87 5e 00 00 	movzwl 0x5e87(%rip),%eax        # 22100 <g_486>
   1c279:	83 e8 01             	sub    $0x1,%eax
   1c27c:	66 89 05 7d 5e 00 00 	mov    %ax,0x5e7d(%rip)        # 22100 <g_486>
   1c283:	48 8b 05 3e 88 00 00 	mov    0x883e(%rip),%rax        # 24ac8 <g_411>
   1c28a:	0f b7 00             	movzwl (%rax),%eax
   1c28d:	0f bf d8             	movswl %ax,%ebx
   1c290:	8b 85 d0 ed ff ff    	mov    -0x1230(%rbp),%eax
   1c296:	44 0f b6 e0          	movzbl %al,%r12d
   1c29a:	8b 85 7c e6 ff ff    	mov    -0x1984(%rbp),%eax
   1c2a0:	44 0f b6 e8          	movzbl %al,%r13d
   1c2a4:	b8 21 97 ff ff       	mov    $0xffff9721,%eax
   1c2a9:	44 0f bf f8          	movswl %ax,%r15d
   1c2ad:	8b 85 7c e6 ff ff    	mov    -0x1984(%rbp),%eax
   1c2b3:	44 0f bf f0          	movswl %ax,%r14d
   1c2b7:	8b 85 b8 ed ff ff    	mov    -0x1248(%rbp),%eax
   1c2bd:	48 63 d0             	movslq %eax,%rdx
   1c2c0:	48 8b 85 a0 e7 ff ff 	mov    -0x1860(%rbp),%rax
   1c2c7:	48 c7 00 00 00 00 00 	movq   $0x0,(%rax)
   1c2ce:	48 8b 85 a0 e7 ff ff 	mov    -0x1860(%rbp),%rax
   1c2d5:	48 8b 00             	mov    (%rax),%rax
   1c2d8:	48 85 c0             	test   %rax,%rax
   1c2db:	0f 95 c0             	setne  %al
   1c2de:	0f b6 c0             	movzbl %al,%eax
   1c2e1:	48 89 d6             	mov    %rdx,%rsi
   1c2e4:	48 89 c7             	mov    %rax,%rdi
   1c2e7:	e8 c8 d6 fe ff       	callq  99b4 <safe_mod_func_int64_t_s_s>
   1c2ec:	98                   	cwtl   
   1c2ed:	44 89 f6             	mov    %r14d,%esi
   1c2f0:	89 c7                	mov    %eax,%edi
   1c2f2:	e8 1f d1 fe ff       	callq  9416 <safe_mod_func_int16_t_s_s>
   1c2f7:	44 0f bf f0          	movswl %ax,%r14d
   1c2fb:	0f b7 85 e0 e8 ff ff 	movzwl -0x1720(%rbp),%eax
   1c302:	0f b7 c0             	movzwl %ax,%eax
   1c305:	48 8b 15 0c 80 00 00 	mov    0x800c(%rip),%rdx        # 24318 <g_215>
   1c30c:	8b 0a                	mov    (%rdx),%ecx
   1c30e:	48 8b 95 70 e6 ff ff 	mov    -0x1990(%rbp),%rdx
   1c315:	48 8b 12             	mov    (%rdx),%rdx
   1c318:	8b 12                	mov    (%rdx),%edx
   1c31a:	21 ca                	and    %ecx,%edx
   1c31c:	85 d2                	test   %edx,%edx
   1c31e:	75 1f                	jne    1c33f <func_92+0x3bb6>
   1c320:	8b 15 b6 5d 00 00    	mov    0x5db6(%rip),%edx        # 220dc <g_210>
   1c326:	85 d2                	test   %edx,%edx
   1c328:	0f 9f c2             	setg   %dl
   1c32b:	0f b6 ca             	movzbl %dl,%ecx
   1c32e:	48 8b 15 93 87 00 00 	mov    0x8793(%rip),%rdx        # 24ac8 <g_411>
   1c335:	0f b7 12             	movzwl (%rdx),%edx
   1c338:	0f bf d2             	movswl %dx,%edx
   1c33b:	39 d1                	cmp    %edx,%ecx
   1c33d:	7c 07                	jl     1c346 <func_92+0x3bbd>
   1c33f:	ba 01 00 00 00       	mov    $0x1,%edx
   1c344:	eb 05                	jmp    1c34b <func_92+0x3bc2>
   1c346:	ba 00 00 00 00       	mov    $0x0,%edx
   1c34b:	89 c6                	mov    %eax,%esi
   1c34d:	89 d7                	mov    %edx,%edi
   1c34f:	e8 62 d2 fe ff       	callq  95b6 <safe_add_func_int32_t_s_s>
   1c354:	39 85 7c e6 ff ff    	cmp    %eax,-0x1984(%rbp)
   1c35a:	0f 97 c0             	seta   %al
   1c35d:	0f b6 c0             	movzbl %al,%eax
   1c360:	41 39 c6             	cmp    %eax,%r14d
   1c363:	0f 9d c0             	setge  %al
   1c366:	89 c2                	mov    %eax,%edx
   1c368:	48 8b 85 a8 e7 ff ff 	mov    -0x1858(%rbp),%rax
   1c36f:	88 10                	mov    %dl,(%rax)
   1c371:	48 8b 85 a8 e7 ff ff 	mov    -0x1858(%rbp),%rax
   1c378:	0f b6 00             	movzbl (%rax),%eax
   1c37b:	0f b6 c0             	movzbl %al,%eax
   1c37e:	41 39 c7             	cmp    %eax,%r15d
   1c381:	0f 9c c0             	setl   %al
   1c384:	0f b6 d0             	movzbl %al,%edx
   1c387:	48 8b 05 3a 87 00 00 	mov    0x873a(%rip),%rax        # 24ac8 <g_411>
   1c38e:	0f b7 00             	movzwl (%rax),%eax
   1c391:	98                   	cwtl   
   1c392:	31 d0                	xor    %edx,%eax
   1c394:	83 f8 ff             	cmp    $0xffffffff,%eax
   1c397:	0f 95 c0             	setne  %al
   1c39a:	0f b6 c0             	movzbl %al,%eax
   1c39d:	44 89 ee             	mov    %r13d,%esi
   1c3a0:	89 c7                	mov    %eax,%edi
   1c3a2:	e8 ec d7 fe ff       	callq  9b93 <safe_mul_func_uint8_t_u_u>
   1c3a7:	0f b6 d0             	movzbl %al,%edx
   1c3aa:	8b 05 08 5d 00 00    	mov    0x5d08(%rip),%eax        # 220b8 <g_148>
   1c3b0:	83 c0 02             	add    $0x2,%eax
   1c3b3:	89 c0                	mov    %eax,%eax
   1c3b5:	48 8d 0c 00          	lea    (%rax,%rax,1),%rcx
   1c3b9:	48 8d 05 e8 5c 00 00 	lea    0x5ce8(%rip),%rax        # 220a8 <g_98>
   1c3c0:	0f b7 04 01          	movzwl (%rcx,%rax,1),%eax
   1c3c4:	66 39 c2             	cmp    %ax,%dx
   1c3c7:	0f 95 c0             	setne  %al
   1c3ca:	0f b6 c0             	movzbl %al,%eax
   1c3cd:	be 00 b0 ff ff       	mov    $0xffffb000,%esi
   1c3d2:	89 c7                	mov    %eax,%edi
   1c3d4:	e8 1c d0 fe ff       	callq  93f5 <safe_mul_func_int16_t_s_s>
   1c3d9:	66 85 c0             	test   %ax,%ax
   1c3dc:	0f 9e c0             	setle  %al
   1c3df:	0f b6 c0             	movzbl %al,%eax
   1c3e2:	44 89 e6             	mov    %r12d,%esi
   1c3e5:	89 c7                	mov    %eax,%edi
   1c3e7:	e8 8c d7 fe ff       	callq  9b78 <safe_sub_func_uint8_t_u_u>
   1c3ec:	48 be ad fe 2d 43 1d 	movabs $0x2911801d432dfead,%rsi
   1c3f3:	80 11 29 
   1c3f6:	48 c7 c7 ff ff ff ff 	mov    $0xffffffffffffffff,%rdi
   1c3fd:	e8 49 dc fe ff       	callq  a04b <safe_sub_func_uint64_t_u_u>
   1c402:	be c2 6b b1 2e       	mov    $0x2eb16bc2,%esi
   1c407:	89 c7                	mov    %eax,%edi
   1c409:	e8 aa da fe ff       	callq  9eb8 <safe_add_func_uint32_t_u_u>
   1c40e:	83 c8 01             	or     $0x1,%eax
   1c411:	0f b7 c0             	movzwl %ax,%eax
   1c414:	be 00 00 00 00       	mov    $0x0,%esi
   1c419:	89 c7                	mov    %eax,%edi
   1c41b:	e8 5a da fe ff       	callq  9e7a <safe_rshift_func_uint16_t_u_u>
   1c420:	98                   	cwtl   
   1c421:	89 de                	mov    %ebx,%esi
   1c423:	89 c7                	mov    %eax,%edi
   1c425:	e8 cb cf fe ff       	callq  93f5 <safe_mul_func_int16_t_s_s>
   1c42a:	b8 0a 77 1e a3       	mov    $0xa31e770a,%eax
   1c42f:	89 c2                	mov    %eax,%edx
   1c431:	8b 85 90 e6 ff ff    	mov    -0x1970(%rbp),%eax
   1c437:	31 d0                	xor    %edx,%eax
   1c439:	89 85 90 e6 ff ff    	mov    %eax,-0x1970(%rbp)
   1c43f:	c6 85 f0 e6 ff ff 00 	movb   $0x0,-0x1910(%rbp)
   1c446:	e9 e1 00 00 00       	jmpq   1c52c <func_92+0x3da3>
   1c44b:	48 8d 85 40 f8 ff ff 	lea    -0x7c0(%rbp),%rax
   1c452:	48 8d 15 27 77 00 00 	lea    0x7727(%rip),%rdx        # 23b80 <g_2474+0x1656>
   1c459:	b9 f0 00 00 00       	mov    $0xf0,%ecx
   1c45e:	48 89 c7             	mov    %rax,%rdi
   1c461:	48 89 d6             	mov    %rdx,%rsi
   1c464:	f3 48 a5             	rep movsq %ds:(%rsi),%es:(%rdi)
   1c467:	48 c7 05 5e 5c 00 00 	movq   $0x0,0x5c5e(%rip)        # 220d0 <g_164>
   1c46e:	00 00 00 00 
   1c472:	e9 94 00 00 00       	jmpq   1c50b <func_92+0x3d82>
   1c477:	48 8b 05 52 5c 00 00 	mov    0x5c52(%rip),%rax        # 220d0 <g_164>
   1c47e:	48 8d 50 04          	lea    0x4(%rax),%rdx
   1c482:	8b 05 30 5c 00 00    	mov    0x5c30(%rip),%eax        # 220b8 <g_148>
   1c488:	8d 70 01             	lea    0x1(%rax),%esi
   1c48b:	8b 05 27 5c 00 00    	mov    0x5c27(%rip),%eax        # 220b8 <g_148>
   1c491:	8d 48 03             	lea    0x3(%rax),%ecx
   1c494:	48 8b 85 70 e6 ff ff 	mov    -0x1990(%rbp),%rax
   1c49b:	48 8b 00             	mov    (%rax),%rax
   1c49e:	89 c9                	mov    %ecx,%ecx
   1c4a0:	89 f6                	mov    %esi,%esi
   1c4a2:	48 01 d2             	add    %rdx,%rdx
   1c4a5:	48 01 f2             	add    %rsi,%rdx
   1c4a8:	48 c1 e2 02          	shl    $0x2,%rdx
   1c4ac:	48 01 ca             	add    %rcx,%rdx
   1c4af:	48 89 84 d5 90 f0 ff 	mov    %rax,-0xf70(%rbp,%rdx,8)
   1c4b6:	ff 
   1c4b7:	8b 05 fb 5b 00 00    	mov    0x5bfb(%rip),%eax        # 220b8 <g_148>
   1c4bd:	83 c0 01             	add    $0x1,%eax
   1c4c0:	89 c0                	mov    %eax,%eax
   1c4c2:	48 8d 14 00          	lea    (%rax,%rax,1),%rdx
   1c4c6:	48 8d 05 db 5b 00 00 	lea    0x5bdb(%rip),%rax        # 220a8 <g_98>
   1c4cd:	0f b7 04 02          	movzwl (%rdx,%rax,1),%eax
   1c4d1:	0f b7 d0             	movzwl %ax,%edx
   1c4d4:	48 8b 85 80 f9 ff ff 	mov    -0x680(%rbp),%rax
   1c4db:	48 39 85 68 e7 ff ff 	cmp    %rax,-0x1898(%rbp)
   1c4e2:	0f 95 c0             	setne  %al
   1c4e5:	0f b6 c0             	movzbl %al,%eax
   1c4e8:	39 c2                	cmp    %eax,%edx
   1c4ea:	0f 9c c0             	setl   %al
   1c4ed:	0f b6 d0             	movzbl %al,%edx
   1c4f0:	48 8b 85 98 e7 ff ff 	mov    -0x1868(%rbp),%rax
   1c4f7:	89 10                	mov    %edx,(%rax)
   1c4f9:	48 8b 05 d0 5b 00 00 	mov    0x5bd0(%rip),%rax        # 220d0 <g_164>
   1c500:	48 83 c0 01          	add    $0x1,%rax
   1c504:	48 89 05 c5 5b 00 00 	mov    %rax,0x5bc5(%rip)        # 220d0 <g_164>
   1c50b:	48 8b 05 be 5b 00 00 	mov    0x5bbe(%rip),%rax        # 220d0 <g_164>
   1c512:	48 83 f8 01          	cmp    $0x1,%rax
   1c516:	0f 86 5b ff ff ff    	jbe    1c477 <func_92+0x3cee>
   1c51c:	0f b6 85 f0 e6 ff ff 	movzbl -0x1910(%rbp),%eax
   1c523:	83 c0 01             	add    $0x1,%eax
   1c526:	88 85 f0 e6 ff ff    	mov    %al,-0x1910(%rbp)
   1c52c:	0f b6 85 f0 e6 ff ff 	movzbl -0x1910(%rbp),%eax
   1c533:	3c 01                	cmp    $0x1,%al
   1c535:	0f 86 10 ff ff ff    	jbe    1c44b <func_92+0x3cc2>
   1c53b:	66 c7 05 bc 5b 00 00 	movw   $0x0,0x5bbc(%rip)        # 22100 <g_486>
   1c542:	00 00 
   1c544:	eb 1f                	jmp    1c565 <func_92+0x3ddc>
   1c546:	48 8d 85 28 e7 ff ff 	lea    -0x18d8(%rbp),%rax
   1c54d:	48 89 85 b0 e7 ff ff 	mov    %rax,-0x1850(%rbp)
   1c554:	0f b7 05 a5 5b 00 00 	movzwl 0x5ba5(%rip),%eax        # 22100 <g_486>
   1c55b:	83 c0 01             	add    $0x1,%eax
   1c55e:	66 89 05 9b 5b 00 00 	mov    %ax,0x5b9b(%rip)        # 22100 <g_486>
   1c565:	0f b7 05 94 5b 00 00 	movzwl 0x5b94(%rip),%eax        # 22100 <g_486>
   1c56c:	66 83 f8 04          	cmp    $0x4,%ax
   1c570:	76 d4                	jbe    1c546 <func_92+0x3dbd>
   1c572:	8b 85 98 e6 ff ff    	mov    -0x1968(%rbp),%eax
   1c578:	83 e8 01             	sub    $0x1,%eax
   1c57b:	89 85 98 e6 ff ff    	mov    %eax,-0x1968(%rbp)
   1c581:	8b 05 31 5b 00 00    	mov    0x5b31(%rip),%eax        # 220b8 <g_148>
   1c587:	83 c0 01             	add    $0x1,%eax
   1c58a:	89 05 28 5b 00 00    	mov    %eax,0x5b28(%rip)        # 220b8 <g_148>
   1c590:	8b 05 22 5b 00 00    	mov    0x5b22(%rip),%eax        # 220b8 <g_148>
   1c596:	85 c0                	test   %eax,%eax
   1c598:	0f 84 0d ed ff ff    	je     1b2ab <func_92+0x2b22>
   1c59e:	66 c7 05 59 5b 00 00 	movw   $0x0,0x5b59(%rip)        # 22100 <g_486>
   1c5a5:	00 00 
   1c5a7:	90                   	nop
   1c5a8:	0f b7 05 51 5b 00 00 	movzwl 0x5b51(%rip),%eax        # 22100 <g_486>
   1c5af:	66 83 f8 03          	cmp    $0x3,%ax
   1c5b3:	0f 87 ee 05 00 00    	ja     1cba7 <func_92+0x441e>
   1c5b9:	48 8d 85 b0 ed ff ff 	lea    -0x1250(%rbp),%rax
   1c5c0:	48 83 c0 08          	add    $0x8,%rax
   1c5c4:	48 89 85 40 f8 ff ff 	mov    %rax,-0x7c0(%rbp)
   1c5cb:	48 8d 05 72 5a 00 00 	lea    0x5a72(%rip),%rax        # 22044 <g_39>
   1c5d2:	48 89 85 48 f8 ff ff 	mov    %rax,-0x7b8(%rbp)
   1c5d9:	48 8d 85 b0 ed ff ff 	lea    -0x1250(%rbp),%rax
   1c5e0:	48 83 c0 08          	add    $0x8,%rax
   1c5e4:	48 89 85 50 f8 ff ff 	mov    %rax,-0x7b0(%rbp)
   1c5eb:	48 8d 05 4e 5a 00 00 	lea    0x5a4e(%rip),%rax        # 22040 <g_2+0x10>
   1c5f2:	48 89 85 58 f8 ff ff 	mov    %rax,-0x7a8(%rbp)
   1c5f9:	48 8d 85 94 e6 ff ff 	lea    -0x196c(%rbp),%rax
   1c600:	48 89 85 60 f8 ff ff 	mov    %rax,-0x7a0(%rbp)
   1c607:	48 8d 85 b0 ed ff ff 	lea    -0x1250(%rbp),%rax
   1c60e:	48 83 c0 08          	add    $0x8,%rax
   1c612:	48 89 85 68 f8 ff ff 	mov    %rax,-0x798(%rbp)
   1c619:	48 8d 05 24 5a 00 00 	lea    0x5a24(%rip),%rax        # 22044 <g_39>
   1c620:	48 89 85 70 f8 ff ff 	mov    %rax,-0x790(%rbp)
   1c627:	48 8d 85 b0 ed ff ff 	lea    -0x1250(%rbp),%rax
   1c62e:	48 83 c0 08          	add    $0x8,%rax
   1c632:	48 89 85 78 f8 ff ff 	mov    %rax,-0x788(%rbp)
   1c639:	48 8d 05 00 5a 00 00 	lea    0x5a00(%rip),%rax        # 22040 <g_2+0x10>
   1c640:	48 89 85 80 f8 ff ff 	mov    %rax,-0x780(%rbp)
   1c647:	48 8d 05 f2 59 00 00 	lea    0x59f2(%rip),%rax        # 22040 <g_2+0x10>
   1c64e:	48 89 85 88 f8 ff ff 	mov    %rax,-0x778(%rbp)
   1c655:	48 8d 85 b0 ed ff ff 	lea    -0x1250(%rbp),%rax
   1c65c:	48 83 c0 08          	add    $0x8,%rax
   1c660:	48 89 85 90 f8 ff ff 	mov    %rax,-0x770(%rbp)
   1c667:	48 8d 05 d6 59 00 00 	lea    0x59d6(%rip),%rax        # 22044 <g_39>
   1c66e:	48 89 85 98 f8 ff ff 	mov    %rax,-0x768(%rbp)
   1c675:	48 8d 05 bc 59 00 00 	lea    0x59bc(%rip),%rax        # 22038 <g_2+0x8>
   1c67c:	48 89 85 a0 f8 ff ff 	mov    %rax,-0x760(%rbp)
   1c683:	48 8d 85 94 e6 ff ff 	lea    -0x196c(%rbp),%rax
   1c68a:	48 89 85 a8 f8 ff ff 	mov    %rax,-0x758(%rbp)
   1c691:	48 8d 85 94 e6 ff ff 	lea    -0x196c(%rbp),%rax
   1c698:	48 89 85 b0 f8 ff ff 	mov    %rax,-0x750(%rbp)
   1c69f:	48 8d 05 92 59 00 00 	lea    0x5992(%rip),%rax        # 22038 <g_2+0x8>
   1c6a6:	48 89 85 b8 f8 ff ff 	mov    %rax,-0x748(%rbp)
   1c6ad:	48 8d 05 90 59 00 00 	lea    0x5990(%rip),%rax        # 22044 <g_39>
   1c6b4:	48 89 85 c0 f8 ff ff 	mov    %rax,-0x740(%rbp)
   1c6bb:	48 8d 85 b0 ed ff ff 	lea    -0x1250(%rbp),%rax
   1c6c2:	48 83 c0 08          	add    $0x8,%rax
   1c6c6:	48 89 85 c8 f8 ff ff 	mov    %rax,-0x738(%rbp)
   1c6cd:	48 8d 05 6c 59 00 00 	lea    0x596c(%rip),%rax        # 22040 <g_2+0x10>
   1c6d4:	48 89 85 d0 f8 ff ff 	mov    %rax,-0x730(%rbp)
   1c6db:	48 8d 85 94 e6 ff ff 	lea    -0x196c(%rbp),%rax
   1c6e2:	48 89 85 d8 f8 ff ff 	mov    %rax,-0x728(%rbp)
   1c6e9:	48 c7 85 e0 f8 ff ff 	movq   $0x0,-0x720(%rbp)
   1c6f0:	00 00 00 00 
   1c6f4:	48 8d 85 90 e6 ff ff 	lea    -0x1970(%rbp),%rax
   1c6fb:	48 89 85 e8 f8 ff ff 	mov    %rax,-0x718(%rbp)
   1c702:	48 c7 85 f0 f8 ff ff 	movq   $0x0,-0x710(%rbp)
   1c709:	00 00 00 00 
   1c70d:	48 8d 85 b0 ed ff ff 	lea    -0x1250(%rbp),%rax
   1c714:	48 83 c0 08          	add    $0x8,%rax
   1c718:	48 89 85 f8 f8 ff ff 	mov    %rax,-0x708(%rbp)
   1c71f:	48 8d 05 12 59 00 00 	lea    0x5912(%rip),%rax        # 22038 <g_2+0x8>
   1c726:	48 89 85 00 f9 ff ff 	mov    %rax,-0x700(%rbp)
   1c72d:	48 c7 85 08 f9 ff ff 	movq   $0x0,-0x6f8(%rbp)
   1c734:	00 00 00 00 
   1c738:	48 8d 05 05 59 00 00 	lea    0x5905(%rip),%rax        # 22044 <g_39>
   1c73f:	48 89 85 10 f9 ff ff 	mov    %rax,-0x6f0(%rbp)
   1c746:	48 c7 85 18 f9 ff ff 	movq   $0x0,-0x6e8(%rbp)
   1c74d:	00 00 00 00 
   1c751:	48 8d 05 e0 58 00 00 	lea    0x58e0(%rip),%rax        # 22038 <g_2+0x8>
   1c758:	48 89 85 20 f9 ff ff 	mov    %rax,-0x6e0(%rbp)
   1c75f:	48 8d 85 b0 ed ff ff 	lea    -0x1250(%rbp),%rax
   1c766:	48 83 c0 08          	add    $0x8,%rax
   1c76a:	48 89 85 28 f9 ff ff 	mov    %rax,-0x6d8(%rbp)
   1c771:	48 c7 85 30 f9 ff ff 	movq   $0x0,-0x6d0(%rbp)
   1c778:	00 00 00 00 
   1c77c:	48 8d 05 c1 58 00 00 	lea    0x58c1(%rip),%rax        # 22044 <g_39>
   1c783:	48 89 85 38 f9 ff ff 	mov    %rax,-0x6c8(%rbp)
   1c78a:	48 c7 85 40 f9 ff ff 	movq   $0x0,-0x6c0(%rbp)
   1c791:	00 00 00 00 
   1c795:	48 8d 05 9c 58 00 00 	lea    0x589c(%rip),%rax        # 22038 <g_2+0x8>
   1c79c:	48 89 85 48 f9 ff ff 	mov    %rax,-0x6b8(%rbp)
   1c7a3:	48 8d 85 b0 ed ff ff 	lea    -0x1250(%rbp),%rax
   1c7aa:	48 83 c0 08          	add    $0x8,%rax
   1c7ae:	48 89 85 50 f9 ff ff 	mov    %rax,-0x6b0(%rbp)
   1c7b5:	48 c7 85 58 f9 ff ff 	movq   $0x0,-0x6a8(%rbp)
   1c7bc:	00 00 00 00 
   1c7c0:	48 8d 85 90 e6 ff ff 	lea    -0x1970(%rbp),%rax
   1c7c7:	48 89 85 60 f9 ff ff 	mov    %rax,-0x6a0(%rbp)
   1c7ce:	48 c7 85 68 f9 ff ff 	movq   $0x0,-0x698(%rbp)
   1c7d5:	00 00 00 00 
   1c7d9:	48 8d 05 58 58 00 00 	lea    0x5858(%rip),%rax        # 22038 <g_2+0x8>
   1c7e0:	48 89 85 70 f9 ff ff 	mov    %rax,-0x690(%rbp)
   1c7e7:	48 8d 05 4a 58 00 00 	lea    0x584a(%rip),%rax        # 22038 <g_2+0x8>
   1c7ee:	48 89 85 78 f9 ff ff 	mov    %rax,-0x688(%rbp)
   1c7f5:	48 c7 85 80 f9 ff ff 	movq   $0x0,-0x680(%rbp)
   1c7fc:	00 00 00 00 
   1c800:	48 8d 05 3d 58 00 00 	lea    0x583d(%rip),%rax        # 22044 <g_39>
   1c807:	48 89 85 88 f9 ff ff 	mov    %rax,-0x678(%rbp)
   1c80e:	48 8d 85 b0 ed ff ff 	lea    -0x1250(%rbp),%rax
   1c815:	48 83 c0 08          	add    $0x8,%rax
   1c819:	48 89 85 90 f9 ff ff 	mov    %rax,-0x670(%rbp)
   1c820:	48 8d 85 b0 ed ff ff 	lea    -0x1250(%rbp),%rax
   1c827:	48 83 c0 08          	add    $0x8,%rax
   1c82b:	48 89 85 98 f9 ff ff 	mov    %rax,-0x668(%rbp)
   1c832:	48 8d 85 b0 ed ff ff 	lea    -0x1250(%rbp),%rax
   1c839:	48 83 c0 08          	add    $0x8,%rax
   1c83d:	48 89 85 a0 f9 ff ff 	mov    %rax,-0x660(%rbp)
   1c844:	48 8d 85 b0 ed ff ff 	lea    -0x1250(%rbp),%rax
   1c84b:	48 83 c0 08          	add    $0x8,%rax
   1c84f:	48 89 85 a8 f9 ff ff 	mov    %rax,-0x658(%rbp)
   1c856:	48 8d 05 e7 57 00 00 	lea    0x57e7(%rip),%rax        # 22044 <g_39>
   1c85d:	48 89 85 b0 f9 ff ff 	mov    %rax,-0x650(%rbp)
   1c864:	48 c7 85 b8 f9 ff ff 	movq   $0x0,-0x648(%rbp)
   1c86b:	00 00 00 00 
   1c86f:	48 8d 85 b0 ed ff ff 	lea    -0x1250(%rbp),%rax
   1c876:	48 83 c0 08          	add    $0x8,%rax
   1c87a:	48 89 85 c0 f9 ff ff 	mov    %rax,-0x640(%rbp)
   1c881:	48 8d 85 b0 ed ff ff 	lea    -0x1250(%rbp),%rax
   1c888:	48 83 c0 08          	add    $0x8,%rax
   1c88c:	48 89 85 c8 f9 ff ff 	mov    %rax,-0x638(%rbp)
   1c893:	48 c7 85 d0 f9 ff ff 	movq   $0x0,-0x630(%rbp)
   1c89a:	00 00 00 00 
   1c89e:	48 8d 85 90 e6 ff ff 	lea    -0x1970(%rbp),%rax
   1c8a5:	48 89 85 d8 f9 ff ff 	mov    %rax,-0x628(%rbp)
   1c8ac:	48 c7 85 e0 f9 ff ff 	movq   $0x0,-0x620(%rbp)
   1c8b3:	00 00 00 00 
   1c8b7:	48 8d 85 b0 ed ff ff 	lea    -0x1250(%rbp),%rax
   1c8be:	48 83 c0 08          	add    $0x8,%rax
   1c8c2:	48 89 85 e8 f9 ff ff 	mov    %rax,-0x618(%rbp)
   1c8c9:	48 8d 05 68 57 00 00 	lea    0x5768(%rip),%rax        # 22038 <g_2+0x8>
   1c8d0:	48 89 85 f0 f9 ff ff 	mov    %rax,-0x610(%rbp)
   1c8d7:	48 c7 85 f8 f9 ff ff 	movq   $0x0,-0x608(%rbp)
   1c8de:	00 00 00 00 
   1c8e2:	48 8d 05 5b 57 00 00 	lea    0x575b(%rip),%rax        # 22044 <g_39>
   1c8e9:	48 89 85 00 fa ff ff 	mov    %rax,-0x600(%rbp)
   1c8f0:	48 c7 85 08 fa ff ff 	movq   $0x0,-0x5f8(%rbp)
   1c8f7:	00 00 00 00 
   1c8fb:	48 8d 05 36 57 00 00 	lea    0x5736(%rip),%rax        # 22038 <g_2+0x8>
   1c902:	48 89 85 10 fa ff ff 	mov    %rax,-0x5f0(%rbp)
   1c909:	48 8d 85 b0 ed ff ff 	lea    -0x1250(%rbp),%rax
   1c910:	48 83 c0 08          	add    $0x8,%rax
   1c914:	48 89 85 18 fa ff ff 	mov    %rax,-0x5e8(%rbp)
   1c91b:	48 c7 85 20 fa ff ff 	movq   $0x0,-0x5e0(%rbp)
   1c922:	00 00 00 00 
   1c926:	48 8d 05 17 57 00 00 	lea    0x5717(%rip),%rax        # 22044 <g_39>
   1c92d:	48 89 85 28 fa ff ff 	mov    %rax,-0x5d8(%rbp)
   1c934:	48 c7 85 30 fa ff ff 	movq   $0x0,-0x5d0(%rbp)
   1c93b:	00 00 00 00 
   1c93f:	48 8d 05 f2 56 00 00 	lea    0x56f2(%rip),%rax        # 22038 <g_2+0x8>
   1c946:	48 89 85 38 fa ff ff 	mov    %rax,-0x5c8(%rbp)
   1c94d:	48 8d 85 b0 ed ff ff 	lea    -0x1250(%rbp),%rax
   1c954:	48 83 c0 08          	add    $0x8,%rax
   1c958:	48 89 85 40 fa ff ff 	mov    %rax,-0x5c0(%rbp)
   1c95f:	48 c7 85 48 fa ff ff 	movq   $0x0,-0x5b8(%rbp)
   1c966:	00 00 00 00 
   1c96a:	48 8d 85 90 e6 ff ff 	lea    -0x1970(%rbp),%rax
   1c971:	48 89 85 50 fa ff ff 	mov    %rax,-0x5b0(%rbp)
   1c978:	48 c7 85 58 fa ff ff 	movq   $0x0,-0x5a8(%rbp)
   1c97f:	00 00 00 00 
   1c983:	48 8d 05 ae 56 00 00 	lea    0x56ae(%rip),%rax        # 22038 <g_2+0x8>
   1c98a:	48 89 85 60 fa ff ff 	mov    %rax,-0x5a0(%rbp)
   1c991:	48 8d 05 a0 56 00 00 	lea    0x56a0(%rip),%rax        # 22038 <g_2+0x8>
   1c998:	48 89 85 68 fa ff ff 	mov    %rax,-0x598(%rbp)
   1c99f:	48 c7 85 70 fa ff ff 	movq   $0x0,-0x590(%rbp)
   1c9a6:	00 00 00 00 
   1c9aa:	48 8d 05 93 56 00 00 	lea    0x5693(%rip),%rax        # 22044 <g_39>
   1c9b1:	48 89 85 78 fa ff ff 	mov    %rax,-0x588(%rbp)
   1c9b8:	48 8d 85 b0 ed ff ff 	lea    -0x1250(%rbp),%rax
   1c9bf:	48 83 c0 08          	add    $0x8,%rax
   1c9c3:	48 89 85 80 fa ff ff 	mov    %rax,-0x580(%rbp)
   1c9ca:	48 8d 85 b0 ed ff ff 	lea    -0x1250(%rbp),%rax
   1c9d1:	48 83 c0 08          	add    $0x8,%rax
   1c9d5:	48 89 85 88 fa ff ff 	mov    %rax,-0x578(%rbp)
   1c9dc:	48 8d 85 b0 ed ff ff 	lea    -0x1250(%rbp),%rax
   1c9e3:	48 83 c0 08          	add    $0x8,%rax
   1c9e7:	48 89 85 90 fa ff ff 	mov    %rax,-0x570(%rbp)
   1c9ee:	48 8d 85 b0 ed ff ff 	lea    -0x1250(%rbp),%rax
   1c9f5:	48 83 c0 08          	add    $0x8,%rax
   1c9f9:	48 89 85 98 fa ff ff 	mov    %rax,-0x568(%rbp)
   1ca00:	48 8d 05 3d 56 00 00 	lea    0x563d(%rip),%rax        # 22044 <g_39>
   1ca07:	48 89 85 a0 fa ff ff 	mov    %rax,-0x560(%rbp)
   1ca0e:	48 c7 85 a8 fa ff ff 	movq   $0x0,-0x558(%rbp)
   1ca15:	00 00 00 00 
   1ca19:	48 8d 85 b0 ed ff ff 	lea    -0x1250(%rbp),%rax
   1ca20:	48 83 c0 08          	add    $0x8,%rax
   1ca24:	48 89 85 b0 fa ff ff 	mov    %rax,-0x550(%rbp)
   1ca2b:	48 8d 85 b0 ed ff ff 	lea    -0x1250(%rbp),%rax
   1ca32:	48 83 c0 08          	add    $0x8,%rax
   1ca36:	48 89 85 b8 fa ff ff 	mov    %rax,-0x548(%rbp)
   1ca3d:	48 8d 85 98 e6 ff ff 	lea    -0x1968(%rbp),%rax
   1ca44:	48 89 85 c0 e7 ff ff 	mov    %rax,-0x1840(%rbp)
   1ca4b:	8b 05 27 59 00 00    	mov    0x5927(%rip),%eax        # 22378 <g_546+0x258>
   1ca51:	83 e8 01             	sub    $0x1,%eax
   1ca54:	89 05 1e 59 00 00    	mov    %eax,0x591e(%rip)        # 22378 <g_546+0x258>
   1ca5a:	8b 95 7c e6 ff ff    	mov    -0x1984(%rbp),%edx
   1ca60:	8b 85 7c e6 ff ff    	mov    -0x1984(%rbp),%eax
   1ca66:	0f b7 c0             	movzwl %ax,%eax
   1ca69:	89 d6                	mov    %edx,%esi
   1ca6b:	89 c7                	mov    %eax,%edi
   1ca6d:	e8 4c d3 fe ff       	callq  9dbe <safe_lshift_func_uint16_t_u_s>
   1ca72:	48 8b 05 57 80 00 00 	mov    0x8057(%rip),%rax        # 24ad0 <g_464>
   1ca79:	48 8b 18             	mov    (%rax),%rbx
   1ca7c:	8b 85 7c e6 ff ff    	mov    -0x1984(%rbp),%eax
   1ca82:	89 c6                	mov    %eax,%esi
   1ca84:	bf 00 00 00 00       	mov    $0x0,%edi
   1ca89:	e8 de c8 fe ff       	callq  936c <safe_rshift_func_int8_t_s_u>
   1ca8e:	48 0f be d0          	movsbq %al,%rdx
   1ca92:	48 8b 05 37 80 00 00 	mov    0x8037(%rip),%rax        # 24ad0 <g_464>
   1ca99:	48 8b 00             	mov    (%rax),%rax
   1ca9c:	48 09 c2             	or     %rax,%rdx
   1ca9f:	48 8b 05 22 80 00 00 	mov    0x8022(%rip),%rax        # 24ac8 <g_411>
   1caa6:	0f b7 00             	movzwl (%rax),%eax
   1caa9:	98                   	cwtl   
   1caaa:	39 85 7c e6 ff ff    	cmp    %eax,-0x1984(%rbp)
   1cab0:	0f 97 c0             	seta   %al
   1cab3:	0f b6 c0             	movzbl %al,%eax
   1cab6:	48 89 d6             	mov    %rdx,%rsi
   1cab9:	48 89 c7             	mov    %rax,%rdi
   1cabc:	e8 f3 ce fe ff       	callq  99b4 <safe_mod_func_int64_t_s_s>
   1cac1:	0f b7 c0             	movzwl %ax,%eax
   1cac4:	be 03 00 00 00       	mov    $0x3,%esi
   1cac9:	89 c7                	mov    %eax,%edi
   1cacb:	e8 ee d2 fe ff       	callq  9dbe <safe_lshift_func_uint16_t_u_s>
   1cad0:	0f b7 c0             	movzwl %ax,%eax
   1cad3:	0b 85 7c e6 ff ff    	or     -0x1984(%rbp),%eax
   1cad9:	89 c0                	mov    %eax,%eax
   1cadb:	48 39 c3             	cmp    %rax,%rbx
   1cade:	0f 95 c0             	setne  %al
   1cae1:	0f b6 d8             	movzbl %al,%ebx
   1cae4:	8b 05 56 55 00 00    	mov    0x5556(%rip),%eax        # 22040 <g_2+0x10>
   1caea:	0f b7 c0             	movzwl %ax,%eax
   1caed:	be 0b 00 00 00       	mov    $0xb,%esi
   1caf2:	89 c7                	mov    %eax,%edi
   1caf4:	e8 c5 d2 fe ff       	callq  9dbe <safe_lshift_func_uint16_t_u_s>
   1caf9:	0f be c0             	movsbl %al,%eax
   1cafc:	89 de                	mov    %ebx,%esi
   1cafe:	89 c7                	mov    %eax,%edi
   1cb00:	e8 ed c6 fe ff       	callq  91f2 <safe_sub_func_int8_t_s_s>
   1cb05:	66 98                	cbtw   
   1cb07:	0f b7 c0             	movzwl %ax,%eax
   1cb0a:	be 07 00 00 00       	mov    $0x7,%esi
   1cb0f:	89 c7                	mov    %eax,%edi
   1cb11:	e8 32 d3 fe ff       	callq  9e48 <safe_rshift_func_uint16_t_u_s>
   1cb16:	0f be d8             	movsbl %al,%ebx
   1cb19:	48 8b 05 f8 77 00 00 	mov    0x77f8(%rip),%rax        # 24318 <g_215>
   1cb20:	8b 00                	mov    (%rax),%eax
   1cb22:	89 c6                	mov    %eax,%esi
   1cb24:	48 8b 85 c0 e7 ff ff 	mov    -0x1840(%rbp),%rax
   1cb2b:	8b 00                	mov    (%rax),%eax
   1cb2d:	8d 48 ff             	lea    -0x1(%rax),%ecx
   1cb30:	48 8b 95 c0 e7 ff ff 	mov    -0x1840(%rbp),%rdx
   1cb37:	89 0a                	mov    %ecx,(%rdx)
   1cb39:	39 c6                	cmp    %eax,%esi
   1cb3b:	0f 97 c0             	seta   %al
   1cb3e:	0f b6 d0             	movzbl %al,%edx
   1cb41:	0f b7 05 b8 55 00 00 	movzwl 0x55b8(%rip),%eax        # 22100 <g_486>
   1cb48:	0f b7 c0             	movzwl %ax,%eax
   1cb4b:	48 98                	cltq   
   1cb4d:	48 8d 0c 85 00 00 00 	lea    0x0(,%rax,4),%rcx
   1cb54:	00 
   1cb55:	48 8d 05 84 55 00 00 	lea    0x5584(%rip),%rax        # 220e0 <g_211>
   1cb5c:	8b 04 01             	mov    (%rcx,%rax,1),%eax
   1cb5f:	0f b7 c0             	movzwl %ax,%eax
   1cb62:	89 d6                	mov    %edx,%esi
   1cb64:	89 c7                	mov    %eax,%edi
   1cb66:	e8 d2 d1 fe ff       	callq  9d3d <safe_mul_func_uint16_t_u_u>
   1cb6b:	0f be c0             	movsbl %al,%eax
   1cb6e:	89 de                	mov    %ebx,%esi
   1cb70:	89 c7                	mov    %eax,%edi
   1cb72:	e8 ba c6 fe ff       	callq  9231 <safe_mod_func_int8_t_s_s>
   1cb77:	89 c2                	mov    %eax,%edx
   1cb79:	48 8b 85 70 e6 ff ff 	mov    -0x1990(%rbp),%rax
   1cb80:	48 8b 00             	mov    (%rax),%rax
   1cb83:	0f be d2             	movsbl %dl,%edx
   1cb86:	89 10                	mov    %edx,(%rax)
   1cb88:	8b 00                	mov    (%rax),%eax
   1cb8a:	89 c2                	mov    %eax,%edx
   1cb8c:	0f b7 05 ed 58 00 00 	movzwl 0x58ed(%rip),%eax        # 22480 <g_570>
   1cb93:	31 d0                	xor    %edx,%eax
   1cb95:	66 89 05 e4 58 00 00 	mov    %ax,0x58e4(%rip)        # 22480 <g_570>
   1cb9c:	8b 85 7c e6 ff ff    	mov    -0x1984(%rbp),%eax
   1cba2:	e9 00 01 00 00       	jmpq   1cca7 <func_92+0x451e>
   1cba7:	8b 85 90 e6 ff ff    	mov    -0x1970(%rbp),%eax
   1cbad:	89 c2                	mov    %eax,%edx
   1cbaf:	8b 85 7c e6 ff ff    	mov    -0x1984(%rbp),%eax
   1cbb5:	89 d6                	mov    %edx,%esi
   1cbb7:	89 c7                	mov    %eax,%edi
   1cbb9:	e8 12 d3 fe ff       	callq  9ed0 <safe_sub_func_uint32_t_u_u>
   1cbbe:	8b 85 7c e6 ff ff    	mov    -0x1984(%rbp),%eax
   1cbc4:	89 85 94 e6 ff ff    	mov    %eax,-0x196c(%rbp)
   1cbca:	48 83 bd 40 e7 ff ff 	cmpq   $0x0,-0x18c0(%rbp)
   1cbd1:	00 
   1cbd2:	0f b6 85 e8 e6 ff ff 	movzbl -0x1918(%rbp),%eax
   1cbd9:	0f b6 c0             	movzbl %al,%eax
   1cbdc:	be 01 00 00 00       	mov    $0x1,%esi
   1cbe1:	89 c7                	mov    %eax,%edi
   1cbe3:	e8 0d c8 fe ff       	callq  93f5 <safe_mul_func_int16_t_s_s>
   1cbe8:	0f bf d0             	movswl %ax,%edx
   1cbeb:	48 8b 05 16 77 00 00 	mov    0x7716(%rip),%rax        # 24308 <g_198>
   1cbf2:	0f b7 00             	movzwl (%rax),%eax
   1cbf5:	0f b7 c0             	movzwl %ax,%eax
   1cbf8:	89 d6                	mov    %edx,%esi
   1cbfa:	89 c7                	mov    %eax,%edi
   1cbfc:	e8 bd d1 fe ff       	callq  9dbe <safe_lshift_func_uint16_t_u_s>
   1cc01:	89 c2                	mov    %eax,%edx
   1cc03:	48 8b 85 48 e7 ff ff 	mov    -0x18b8(%rbp),%rax
   1cc0a:	0f b6 00             	movzbl (%rax),%eax
   1cc0d:	31 c2                	xor    %eax,%edx
   1cc0f:	48 8b 85 48 e7 ff ff 	mov    -0x18b8(%rbp),%rax
   1cc16:	88 10                	mov    %dl,(%rax)
   1cc18:	48 8b 85 48 e7 ff ff 	mov    -0x18b8(%rbp),%rax
   1cc1f:	0f b6 00             	movzbl (%rax),%eax
   1cc22:	0f be c0             	movsbl %al,%eax
   1cc25:	be 01 00 00 00       	mov    $0x1,%esi
   1cc2a:	89 c7                	mov    %eax,%edi
   1cc2c:	e8 00 c6 fe ff       	callq  9231 <safe_mod_func_int8_t_s_s>
   1cc31:	8b 95 b0 ed ff ff    	mov    -0x1250(%rbp),%edx
   1cc37:	0f b6 85 e8 e6 ff ff 	movzbl -0x1918(%rbp),%eax
   1cc3e:	0f b6 c0             	movzbl %al,%eax
   1cc41:	39 c2                	cmp    %eax,%edx
   1cc43:	0f 95 c0             	setne  %al
   1cc46:	0f b6 d0             	movzbl %al,%edx
   1cc49:	48 8b 85 50 e7 ff ff 	mov    -0x18b0(%rbp),%rax
   1cc50:	8b 00                	mov    (%rax),%eax
   1cc52:	09 c2                	or     %eax,%edx
   1cc54:	48 8b 85 50 e7 ff ff 	mov    -0x18b0(%rbp),%rax
   1cc5b:	89 10                	mov    %edx,(%rax)
   1cc5d:	0f b7 85 ee e8 ff ff 	movzwl -0x1712(%rbp),%eax
   1cc64:	0f b7 d0             	movzwl %ax,%edx
   1cc67:	8b 05 37 54 00 00    	mov    0x5437(%rip),%eax        # 220a4 <g_88>
   1cc6d:	21 d0                	and    %edx,%eax
   1cc6f:	89 05 2f 54 00 00    	mov    %eax,0x542f(%rip)        # 220a4 <g_88>
   1cc75:	48 8b 05 74 54 00 00 	mov    0x5474(%rip),%rax        # 220f0 <g_247>
   1cc7c:	be 04 00 00 00       	mov    $0x4,%esi
   1cc81:	48 89 c7             	mov    %rax,%rdi
   1cc84:	e8 c2 d3 fe ff       	callq  a04b <safe_sub_func_uint64_t_u_u>
   1cc89:	48 89 05 60 54 00 00 	mov    %rax,0x5460(%rip)        # 220f0 <g_247>
   1cc90:	48 8b 05 59 54 00 00 	mov    0x5459(%rip),%rax        # 220f0 <g_247>
   1cc97:	48 83 f8 e5          	cmp    $0xffffffffffffffe5,%rax
   1cc9b:	0f 8c 27 e5 ff ff    	jl     1b1c8 <func_92+0x2a3f>
   1cca1:	8b 85 7c e6 ff ff    	mov    -0x1984(%rbp),%eax
   1cca7:	48 8b 5d c8          	mov    -0x38(%rbp),%rbx
   1ccab:	64 48 33 1c 25 28 00 	xor    %fs:0x28,%rbx
   1ccb2:	00 00 
   1ccb4:	74 05                	je     1ccbb <func_92+0x4532>
   1ccb6:	e8 b5 c3 fe ff       	callq  9070 <__stack_chk_fail@plt>
   1ccbb:	48 81 c4 88 19 00 00 	add    $0x1988,%rsp
   1ccc2:	5b                   	pop    %rbx
   1ccc3:	41 5c                	pop    %r12
   1ccc5:	41 5d                	pop    %r13
   1ccc7:	41 5e                	pop    %r14
   1ccc9:	41 5f                	pop    %r15
   1cccb:	5d                   	pop    %rbp
   1cccc:	c3                   	retq   

000000000001cccd <main>:
   1cccd:	f3 0f 1e fa          	endbr64 
   1ccd1:	55                   	push   %rbp
   1ccd2:	48 89 e5             	mov    %rsp,%rbp
   1ccd5:	48 83 ec 20          	sub    $0x20,%rsp
   1ccd9:	89 7d ec             	mov    %edi,-0x14(%rbp)
   1ccdc:	48 89 75 e0          	mov    %rsi,-0x20(%rbp)
   1cce0:	c7 45 fc 00 00 00 00 	movl   $0x0,-0x4(%rbp)
   1cce7:	83 7d ec 02          	cmpl   $0x2,-0x14(%rbp)
   1cceb:	74 25                	je     1cd12 <main+0x45>
   1cced:	48 8b 45 e0          	mov    -0x20(%rbp),%rax
   1ccf1:	48 83 c0 08          	add    $0x8,%rax
   1ccf5:	48 8b 00             	mov    (%rax),%rax
   1ccf8:	48 8d 35 89 26 00 00 	lea    0x2689(%rip),%rsi        # 1f388 <g_431+0x130a>
   1ccff:	48 89 c7             	mov    %rax,%rdi
   1cd02:	e8 89 c3 fe ff       	callq  9090 <strcmp@plt>
   1cd07:	85 c0                	test   %eax,%eax
   1cd09:	74 07                	je     1cd12 <main+0x45>
   1cd0b:	c7 45 fc 01 00 00 00 	movl   $0x1,-0x4(%rbp)
   1cd12:	e8 72 c4 fe ff       	callq  9189 <platform_main_begin>
   1cd17:	e8 7c d8 fe ff       	callq  a598 <crc32_gentab>
   1cd1c:	e8 94 da fe ff       	callq  a7b5 <func_1>
   1cd21:	c7 45 f0 00 00 00 00 	movl   $0x0,-0x10(%rbp)
   1cd28:	eb 4b                	jmp    1cd75 <main+0xa8>
   1cd2a:	8b 45 f0             	mov    -0x10(%rbp),%eax
   1cd2d:	48 98                	cltq   
   1cd2f:	48 8d 14 85 00 00 00 	lea    0x0(,%rax,4),%rdx
   1cd36:	00 
   1cd37:	48 8d 05 f2 52 00 00 	lea    0x52f2(%rip),%rax        # 22030 <g_2>
   1cd3e:	8b 04 02             	mov    (%rdx,%rax,1),%eax
   1cd41:	48 98                	cltq   
   1cd43:	8b 55 fc             	mov    -0x4(%rbp),%edx
   1cd46:	48 8d 35 3d 26 00 00 	lea    0x263d(%rip),%rsi        # 1f38a <g_431+0x130c>
   1cd4d:	48 89 c7             	mov    %rax,%rdi
   1cd50:	e8 9e d9 fe ff       	callq  a6f3 <transparent_crc>
   1cd55:	83 7d fc 00          	cmpl   $0x0,-0x4(%rbp)
   1cd59:	74 16                	je     1cd71 <main+0xa4>
   1cd5b:	8b 45 f0             	mov    -0x10(%rbp),%eax
   1cd5e:	89 c6                	mov    %eax,%esi
   1cd60:	48 8d 3d 2a 26 00 00 	lea    0x262a(%rip),%rdi        # 1f391 <g_431+0x1313>
   1cd67:	b8 00 00 00 00       	mov    $0x0,%eax
   1cd6c:	e8 0f c3 fe ff       	callq  9080 <printf@plt>
   1cd71:	83 45 f0 01          	addl   $0x1,-0x10(%rbp)
   1cd75:	83 7d f0 04          	cmpl   $0x4,-0x10(%rbp)
   1cd79:	7e af                	jle    1cd2a <main+0x5d>
   1cd7b:	8b 05 c3 52 00 00    	mov    0x52c3(%rip),%eax        # 22044 <g_39>
   1cd81:	48 98                	cltq   
   1cd83:	8b 55 fc             	mov    -0x4(%rbp),%edx
   1cd86:	48 8d 35 12 26 00 00 	lea    0x2612(%rip),%rsi        # 1f39f <g_431+0x1321>
   1cd8d:	48 89 c7             	mov    %rax,%rdi
   1cd90:	e8 5e d9 fe ff       	callq  a6f3 <transparent_crc>
   1cd95:	c7 45 f0 00 00 00 00 	movl   $0x0,-0x10(%rbp)
   1cd9c:	eb 78                	jmp    1ce16 <main+0x149>
   1cd9e:	c7 45 f4 00 00 00 00 	movl   $0x0,-0xc(%rbp)
   1cda5:	eb 65                	jmp    1ce0c <main+0x13f>
   1cda7:	8b 45 f4             	mov    -0xc(%rbp),%eax
   1cdaa:	48 63 c8             	movslq %eax,%rcx
   1cdad:	8b 45 f0             	mov    -0x10(%rbp),%eax
   1cdb0:	48 63 d0             	movslq %eax,%rdx
   1cdb3:	48 89 d0             	mov    %rdx,%rax
   1cdb6:	48 c1 e0 02          	shl    $0x2,%rax
   1cdba:	48 01 d0             	add    %rdx,%rax
   1cdbd:	48 01 c0             	add    %rax,%rax
   1cdc0:	48 01 c8             	add    %rcx,%rax
   1cdc3:	48 8d 14 85 00 00 00 	lea    0x0(,%rax,4),%rdx
   1cdca:	00 
   1cdcb:	48 8d 05 8e 52 00 00 	lea    0x528e(%rip),%rax        # 22060 <g_41>
   1cdd2:	8b 04 02             	mov    (%rdx,%rax,1),%eax
   1cdd5:	48 98                	cltq   
   1cdd7:	8b 55 fc             	mov    -0x4(%rbp),%edx
   1cdda:	48 8d 35 c3 25 00 00 	lea    0x25c3(%rip),%rsi        # 1f3a4 <g_431+0x1326>
   1cde1:	48 89 c7             	mov    %rax,%rdi
   1cde4:	e8 0a d9 fe ff       	callq  a6f3 <transparent_crc>
   1cde9:	83 7d fc 00          	cmpl   $0x0,-0x4(%rbp)
   1cded:	74 19                	je     1ce08 <main+0x13b>
   1cdef:	8b 55 f4             	mov    -0xc(%rbp),%edx
   1cdf2:	8b 45 f0             	mov    -0x10(%rbp),%eax
   1cdf5:	89 c6                	mov    %eax,%esi
   1cdf7:	48 8d 3d b1 25 00 00 	lea    0x25b1(%rip),%rdi        # 1f3af <g_431+0x1331>
   1cdfe:	b8 00 00 00 00       	mov    $0x0,%eax
   1ce03:	e8 78 c2 fe ff       	callq  9080 <printf@plt>
   1ce08:	83 45 f4 01          	addl   $0x1,-0xc(%rbp)
   1ce0c:	83 7d f4 09          	cmpl   $0x9,-0xc(%rbp)
   1ce10:	7e 95                	jle    1cda7 <main+0xda>
   1ce12:	83 45 f0 01          	addl   $0x1,-0x10(%rbp)
   1ce16:	83 7d f0 00          	cmpl   $0x0,-0x10(%rbp)
   1ce1a:	7e 82                	jle    1cd9e <main+0xd1>
   1ce1c:	c7 45 f0 00 00 00 00 	movl   $0x0,-0x10(%rbp)
   1ce23:	eb 46                	jmp    1ce6b <main+0x19e>
   1ce25:	8b 45 f0             	mov    -0x10(%rbp),%eax
   1ce28:	48 98                	cltq   
   1ce2a:	48 8d 15 37 91 00 00 	lea    0x9137(%rip),%rdx        # 25f68 <g_43>
   1ce31:	0f b6 04 10          	movzbl (%rax,%rdx,1),%eax
   1ce35:	48 0f be c0          	movsbq %al,%rax
   1ce39:	8b 55 fc             	mov    -0x4(%rbp),%edx
   1ce3c:	48 8d 35 7e 25 00 00 	lea    0x257e(%rip),%rsi        # 1f3c1 <g_431+0x1343>
   1ce43:	48 89 c7             	mov    %rax,%rdi
   1ce46:	e8 a8 d8 fe ff       	callq  a6f3 <transparent_crc>
   1ce4b:	83 7d fc 00          	cmpl   $0x0,-0x4(%rbp)
   1ce4f:	74 16                	je     1ce67 <main+0x19a>
   1ce51:	8b 45 f0             	mov    -0x10(%rbp),%eax
   1ce54:	89 c6                	mov    %eax,%esi
   1ce56:	48 8d 3d 34 25 00 00 	lea    0x2534(%rip),%rdi        # 1f391 <g_431+0x1313>
   1ce5d:	b8 00 00 00 00       	mov    $0x0,%eax
   1ce62:	e8 19 c2 fe ff       	callq  9080 <printf@plt>
   1ce67:	83 45 f0 01          	addl   $0x1,-0x10(%rbp)
   1ce6b:	83 7d f0 05          	cmpl   $0x5,-0x10(%rbp)
   1ce6f:	7e b4                	jle    1ce25 <main+0x158>
   1ce71:	48 8b 05 10 52 00 00 	mov    0x5210(%rip),%rax        # 22088 <g_49>
   1ce78:	48 89 c1             	mov    %rax,%rcx
   1ce7b:	8b 45 fc             	mov    -0x4(%rbp),%eax
   1ce7e:	89 c2                	mov    %eax,%edx
   1ce80:	48 8d 35 42 25 00 00 	lea    0x2542(%rip),%rsi        # 1f3c9 <g_431+0x134b>
   1ce87:	48 89 cf             	mov    %rcx,%rdi
   1ce8a:	e8 64 d8 fe ff       	callq  a6f3 <transparent_crc>
   1ce8f:	0f b7 05 fa 51 00 00 	movzwl 0x51fa(%rip),%eax        # 22090 <g_50>
   1ce96:	48 0f bf c0          	movswq %ax,%rax
   1ce9a:	8b 55 fc             	mov    -0x4(%rbp),%edx
   1ce9d:	48 8d 35 2a 25 00 00 	lea    0x252a(%rip),%rsi        # 1f3ce <g_431+0x1350>
   1cea4:	48 89 c7             	mov    %rax,%rdi
   1cea7:	e8 47 d8 fe ff       	callq  a6f3 <transparent_crc>
   1ceac:	0f b7 05 df 51 00 00 	movzwl 0x51df(%rip),%eax        # 22092 <g_52>
   1ceb3:	0f b7 c0             	movzwl %ax,%eax
   1ceb6:	8b 55 fc             	mov    -0x4(%rbp),%edx
   1ceb9:	48 8d 35 13 25 00 00 	lea    0x2513(%rip),%rsi        # 1f3d3 <g_431+0x1355>
   1cec0:	48 89 c7             	mov    %rax,%rdi
   1cec3:	e8 2b d8 fe ff       	callq  a6f3 <transparent_crc>
   1cec8:	c7 45 f0 00 00 00 00 	movl   $0x0,-0x10(%rbp)
   1cecf:	eb 45                	jmp    1cf16 <main+0x249>
   1ced1:	8b 45 f0             	mov    -0x10(%rbp),%eax
   1ced4:	48 98                	cltq   
   1ced6:	48 8d 15 bb 51 00 00 	lea    0x51bb(%rip),%rdx        # 22098 <g_63>
   1cedd:	0f b6 04 10          	movzbl (%rax,%rdx,1),%eax
   1cee1:	0f b6 c0             	movzbl %al,%eax
   1cee4:	8b 55 fc             	mov    -0x4(%rbp),%edx
   1cee7:	48 8d 35 ea 24 00 00 	lea    0x24ea(%rip),%rsi        # 1f3d8 <g_431+0x135a>
   1ceee:	48 89 c7             	mov    %rax,%rdi
   1cef1:	e8 fd d7 fe ff       	callq  a6f3 <transparent_crc>
   1cef6:	83 7d fc 00          	cmpl   $0x0,-0x4(%rbp)
   1cefa:	74 16                	je     1cf12 <main+0x245>
   1cefc:	8b 45 f0             	mov    -0x10(%rbp),%eax
   1ceff:	89 c6                	mov    %eax,%esi
   1cf01:	48 8d 3d 89 24 00 00 	lea    0x2489(%rip),%rdi        # 1f391 <g_431+0x1313>
   1cf08:	b8 00 00 00 00       	mov    $0x0,%eax
   1cf0d:	e8 6e c1 fe ff       	callq  9080 <printf@plt>
   1cf12:	83 45 f0 01          	addl   $0x1,-0x10(%rbp)
   1cf16:	83 7d f0 09          	cmpl   $0x9,-0x10(%rbp)
   1cf1a:	7e b5                	jle    1ced1 <main+0x204>
   1cf1c:	8b 05 82 51 00 00    	mov    0x5182(%rip),%eax        # 220a4 <g_88>
   1cf22:	48 98                	cltq   
   1cf24:	8b 55 fc             	mov    -0x4(%rbp),%edx
   1cf27:	48 8d 35 b5 24 00 00 	lea    0x24b5(%rip),%rsi        # 1f3e3 <g_431+0x1365>
   1cf2e:	48 89 c7             	mov    %rax,%rdi
   1cf31:	e8 bd d7 fe ff       	callq  a6f3 <transparent_crc>
   1cf36:	c7 45 f0 00 00 00 00 	movl   $0x0,-0x10(%rbp)
   1cf3d:	eb 49                	jmp    1cf88 <main+0x2bb>
   1cf3f:	8b 45 f0             	mov    -0x10(%rbp),%eax
   1cf42:	48 98                	cltq   
   1cf44:	48 8d 14 00          	lea    (%rax,%rax,1),%rdx
   1cf48:	48 8d 05 59 51 00 00 	lea    0x5159(%rip),%rax        # 220a8 <g_98>
   1cf4f:	0f b7 04 02          	movzwl (%rdx,%rax,1),%eax
   1cf53:	0f b7 c0             	movzwl %ax,%eax
   1cf56:	8b 55 fc             	mov    -0x4(%rbp),%edx
   1cf59:	48 8d 35 88 24 00 00 	lea    0x2488(%rip),%rsi        # 1f3e8 <g_431+0x136a>
   1cf60:	48 89 c7             	mov    %rax,%rdi
   1cf63:	e8 8b d7 fe ff       	callq  a6f3 <transparent_crc>
   1cf68:	83 7d fc 00          	cmpl   $0x0,-0x4(%rbp)
   1cf6c:	74 16                	je     1cf84 <main+0x2b7>
   1cf6e:	8b 45 f0             	mov    -0x10(%rbp),%eax
   1cf71:	89 c6                	mov    %eax,%esi
   1cf73:	48 8d 3d 17 24 00 00 	lea    0x2417(%rip),%rdi        # 1f391 <g_431+0x1313>
   1cf7a:	b8 00 00 00 00       	mov    $0x0,%eax
   1cf7f:	e8 fc c0 fe ff       	callq  9080 <printf@plt>
   1cf84:	83 45 f0 01          	addl   $0x1,-0x10(%rbp)
   1cf88:	83 7d f0 05          	cmpl   $0x5,-0x10(%rbp)
   1cf8c:	7e b1                	jle    1cf3f <main+0x272>
   1cf8e:	0f b6 05 1f 51 00 00 	movzbl 0x511f(%rip),%eax        # 220b4 <g_127>
   1cf95:	48 0f be c0          	movsbq %al,%rax
   1cf99:	8b 55 fc             	mov    -0x4(%rbp),%edx
   1cf9c:	48 8d 35 4d 24 00 00 	lea    0x244d(%rip),%rsi        # 1f3f0 <g_431+0x1372>
   1cfa3:	48 89 c7             	mov    %rax,%rdi
   1cfa6:	e8 48 d7 fe ff       	callq  a6f3 <transparent_crc>
   1cfab:	8b 05 07 51 00 00    	mov    0x5107(%rip),%eax        # 220b8 <g_148>
   1cfb1:	89 c1                	mov    %eax,%ecx
   1cfb3:	8b 45 fc             	mov    -0x4(%rbp),%eax
   1cfb6:	89 c2                	mov    %eax,%edx
   1cfb8:	48 8d 35 37 24 00 00 	lea    0x2437(%rip),%rsi        # 1f3f6 <g_431+0x1378>
   1cfbf:	48 89 cf             	mov    %rcx,%rdi
   1cfc2:	e8 2c d7 fe ff       	callq  a6f3 <transparent_crc>
   1cfc7:	c7 45 f0 00 00 00 00 	movl   $0x0,-0x10(%rbp)
   1cfce:	eb 73                	jmp    1d043 <main+0x376>
   1cfd0:	c7 45 f4 00 00 00 00 	movl   $0x0,-0xc(%rbp)
   1cfd7:	eb 60                	jmp    1d039 <main+0x36c>
   1cfd9:	8b 45 f4             	mov    -0xc(%rbp),%eax
   1cfdc:	48 63 c8             	movslq %eax,%rcx
   1cfdf:	8b 45 f0             	mov    -0x10(%rbp),%eax
   1cfe2:	48 63 d0             	movslq %eax,%rdx
   1cfe5:	48 89 d0             	mov    %rdx,%rax
   1cfe8:	48 c1 e0 02          	shl    $0x2,%rax
   1cfec:	48 01 d0             	add    %rdx,%rax
   1cfef:	48 8d 14 08          	lea    (%rax,%rcx,1),%rdx
   1cff3:	48 8d 05 c6 50 00 00 	lea    0x50c6(%rip),%rax        # 220c0 <g_155>
   1cffa:	48 01 d0             	add    %rdx,%rax
   1cffd:	0f b6 00             	movzbl (%rax),%eax
   1d000:	48 0f be c0          	movsbq %al,%rax
   1d004:	8b 55 fc             	mov    -0x4(%rbp),%edx
   1d007:	48 8d 35 ee 23 00 00 	lea    0x23ee(%rip),%rsi        # 1f3fc <g_431+0x137e>
   1d00e:	48 89 c7             	mov    %rax,%rdi
   1d011:	e8 dd d6 fe ff       	callq  a6f3 <transparent_crc>
   1d016:	83 7d fc 00          	cmpl   $0x0,-0x4(%rbp)
   1d01a:	74 19                	je     1d035 <main+0x368>
   1d01c:	8b 55 f4             	mov    -0xc(%rbp),%edx
   1d01f:	8b 45 f0             	mov    -0x10(%rbp),%eax
   1d022:	89 c6                	mov    %eax,%esi
   1d024:	48 8d 3d 84 23 00 00 	lea    0x2384(%rip),%rdi        # 1f3af <g_431+0x1331>
   1d02b:	b8 00 00 00 00       	mov    $0x0,%eax
   1d030:	e8 4b c0 fe ff       	callq  9080 <printf@plt>
   1d035:	83 45 f4 01          	addl   $0x1,-0xc(%rbp)
   1d039:	83 7d f4 04          	cmpl   $0x4,-0xc(%rbp)
   1d03d:	7e 9a                	jle    1cfd9 <main+0x30c>
   1d03f:	83 45 f0 01          	addl   $0x1,-0x10(%rbp)
   1d043:	83 7d f0 01          	cmpl   $0x1,-0x10(%rbp)
   1d047:	7e 87                	jle    1cfd0 <main+0x303>
   1d049:	48 8b 05 80 50 00 00 	mov    0x5080(%rip),%rax        # 220d0 <g_164>
   1d050:	8b 55 fc             	mov    -0x4(%rbp),%edx
   1d053:	48 8d 35 ae 23 00 00 	lea    0x23ae(%rip),%rsi        # 1f408 <g_431+0x138a>
   1d05a:	48 89 c7             	mov    %rax,%rdi
   1d05d:	e8 91 d6 fe ff       	callq  a6f3 <transparent_crc>
   1d062:	c7 45 f0 00 00 00 00 	movl   $0x0,-0x10(%rbp)
   1d069:	eb 4b                	jmp    1d0b6 <main+0x3e9>
   1d06b:	8b 45 f0             	mov    -0x10(%rbp),%eax
   1d06e:	48 98                	cltq   
   1d070:	48 8d 14 85 00 00 00 	lea    0x0(,%rax,4),%rdx
   1d077:	00 
   1d078:	48 8d 05 e1 0f 00 00 	lea    0xfe1(%rip),%rax        # 1e060 <g_171>
   1d07f:	8b 04 02             	mov    (%rdx,%rax,1),%eax
   1d082:	48 98                	cltq   
   1d084:	8b 55 fc             	mov    -0x4(%rbp),%edx
   1d087:	48 8d 35 80 23 00 00 	lea    0x2380(%rip),%rsi        # 1f40e <g_431+0x1390>
   1d08e:	48 89 c7             	mov    %rax,%rdi
   1d091:	e8 5d d6 fe ff       	callq  a6f3 <transparent_crc>
   1d096:	83 7d fc 00          	cmpl   $0x0,-0x4(%rbp)
   1d09a:	74 16                	je     1d0b2 <main+0x3e5>
   1d09c:	8b 45 f0             	mov    -0x10(%rbp),%eax
   1d09f:	89 c6                	mov    %eax,%esi
   1d0a1:	48 8d 3d e9 22 00 00 	lea    0x22e9(%rip),%rdi        # 1f391 <g_431+0x1313>
   1d0a8:	b8 00 00 00 00       	mov    $0x0,%eax
   1d0ad:	e8 ce bf fe ff       	callq  9080 <printf@plt>
   1d0b2:	83 45 f0 01          	addl   $0x1,-0x10(%rbp)
   1d0b6:	83 7d f0 06          	cmpl   $0x6,-0x10(%rbp)
   1d0ba:	7e af                	jle    1d06b <main+0x39e>
   1d0bc:	0f b7 05 15 50 00 00 	movzwl 0x5015(%rip),%eax        # 220d8 <g_199>
   1d0c3:	0f b7 c0             	movzwl %ax,%eax
   1d0c6:	8b 55 fc             	mov    -0x4(%rbp),%edx
   1d0c9:	48 8d 35 47 23 00 00 	lea    0x2347(%rip),%rsi        # 1f417 <g_431+0x1399>
   1d0d0:	48 89 c7             	mov    %rax,%rdi
   1d0d3:	e8 1b d6 fe ff       	callq  a6f3 <transparent_crc>
   1d0d8:	8b 05 fe 4f 00 00    	mov    0x4ffe(%rip),%eax        # 220dc <g_210>
   1d0de:	48 98                	cltq   
   1d0e0:	8b 55 fc             	mov    -0x4(%rbp),%edx
   1d0e3:	48 8d 35 33 23 00 00 	lea    0x2333(%rip),%rsi        # 1f41d <g_431+0x139f>
   1d0ea:	48 89 c7             	mov    %rax,%rdi
   1d0ed:	e8 01 d6 fe ff       	callq  a6f3 <transparent_crc>
   1d0f2:	c7 45 f0 00 00 00 00 	movl   $0x0,-0x10(%rbp)
   1d0f9:	eb 4d                	jmp    1d148 <main+0x47b>
   1d0fb:	8b 45 f0             	mov    -0x10(%rbp),%eax
   1d0fe:	48 98                	cltq   
   1d100:	48 8d 14 85 00 00 00 	lea    0x0(,%rax,4),%rdx
   1d107:	00 
   1d108:	48 8d 05 d1 4f 00 00 	lea    0x4fd1(%rip),%rax        # 220e0 <g_211>
   1d10f:	8b 04 02             	mov    (%rdx,%rax,1),%eax
   1d112:	89 c1                	mov    %eax,%ecx
   1d114:	8b 45 fc             	mov    -0x4(%rbp),%eax
   1d117:	89 c2                	mov    %eax,%edx
   1d119:	48 8d 35 03 23 00 00 	lea    0x2303(%rip),%rsi        # 1f423 <g_431+0x13a5>
   1d120:	48 89 cf             	mov    %rcx,%rdi
   1d123:	e8 cb d5 fe ff       	callq  a6f3 <transparent_crc>
   1d128:	83 7d fc 00          	cmpl   $0x0,-0x4(%rbp)
   1d12c:	74 16                	je     1d144 <main+0x477>
   1d12e:	8b 45 f0             	mov    -0x10(%rbp),%eax
   1d131:	89 c6                	mov    %eax,%esi
   1d133:	48 8d 3d 57 22 00 00 	lea    0x2257(%rip),%rdi        # 1f391 <g_431+0x1313>
   1d13a:	b8 00 00 00 00       	mov    $0x0,%eax
   1d13f:	e8 3c bf fe ff       	callq  9080 <printf@plt>
   1d144:	83 45 f0 01          	addl   $0x1,-0x10(%rbp)
   1d148:	83 7d f0 03          	cmpl   $0x3,-0x10(%rbp)
   1d14c:	7e ad                	jle    1d0fb <main+0x42e>
   1d14e:	48 8b 05 9b 4f 00 00 	mov    0x4f9b(%rip),%rax        # 220f0 <g_247>
   1d155:	48 89 c1             	mov    %rax,%rcx
   1d158:	8b 45 fc             	mov    -0x4(%rbp),%eax
   1d15b:	89 c2                	mov    %eax,%edx
   1d15d:	48 8d 35 c8 22 00 00 	lea    0x22c8(%rip),%rsi        # 1f42c <g_431+0x13ae>
   1d164:	48 89 cf             	mov    %rcx,%rdi
   1d167:	e8 87 d5 fe ff       	callq  a6f3 <transparent_crc>
   1d16c:	b8 21 97 ff ff       	mov    $0xffff9721,%eax
   1d171:	48 0f bf c0          	movswq %ax,%rax
   1d175:	8b 55 fc             	mov    -0x4(%rbp),%edx
   1d178:	48 8d 35 b3 22 00 00 	lea    0x22b3(%rip),%rsi        # 1f432 <g_431+0x13b4>
   1d17f:	48 89 c7             	mov    %rax,%rdi
   1d182:	e8 6c d5 fe ff       	callq  a6f3 <transparent_crc>
   1d187:	b8 d6 ff ff ff       	mov    $0xffffffd6,%eax
   1d18c:	0f b6 c0             	movzbl %al,%eax
   1d18f:	8b 55 fc             	mov    -0x4(%rbp),%edx
   1d192:	48 8d 35 9f 22 00 00 	lea    0x229f(%rip),%rsi        # 1f438 <g_431+0x13ba>
   1d199:	48 89 c7             	mov    %rax,%rdi
   1d19c:	e8 52 d5 fe ff       	callq  a6f3 <transparent_crc>
   1d1a1:	0f b6 05 c6 8d 00 00 	movzbl 0x8dc6(%rip),%eax        # 25f6e <g_432>
   1d1a8:	48 0f be c0          	movsbq %al,%rax
   1d1ac:	8b 55 fc             	mov    -0x4(%rbp),%edx
   1d1af:	48 8d 35 88 22 00 00 	lea    0x2288(%rip),%rsi        # 1f43e <g_431+0x13c0>
   1d1b6:	48 89 c7             	mov    %rax,%rdi
   1d1b9:	e8 35 d5 fe ff       	callq  a6f3 <transparent_crc>
   1d1be:	48 8b 05 33 4f 00 00 	mov    0x4f33(%rip),%rax        # 220f8 <g_462>
   1d1c5:	48 89 c1             	mov    %rax,%rcx
   1d1c8:	8b 45 fc             	mov    -0x4(%rbp),%eax
   1d1cb:	89 c2                	mov    %eax,%edx
   1d1cd:	48 8d 35 70 22 00 00 	lea    0x2270(%rip),%rsi        # 1f444 <g_431+0x13c6>
   1d1d4:	48 89 cf             	mov    %rcx,%rdi
   1d1d7:	e8 17 d5 fe ff       	callq  a6f3 <transparent_crc>
   1d1dc:	0f b7 05 1d 4f 00 00 	movzwl 0x4f1d(%rip),%eax        # 22100 <g_486>
   1d1e3:	0f b7 c0             	movzwl %ax,%eax
   1d1e6:	8b 55 fc             	mov    -0x4(%rbp),%edx
   1d1e9:	48 8d 35 5a 22 00 00 	lea    0x225a(%rip),%rsi        # 1f44a <g_431+0x13cc>
   1d1f0:	48 89 c7             	mov    %rax,%rdi
   1d1f3:	e8 fb d4 fe ff       	callq  a6f3 <transparent_crc>
   1d1f8:	48 8b 05 09 4f 00 00 	mov    0x4f09(%rip),%rax        # 22108 <g_538>
   1d1ff:	48 89 c1             	mov    %rax,%rcx
   1d202:	8b 45 fc             	mov    -0x4(%rbp),%eax
   1d205:	89 c2                	mov    %eax,%edx
   1d207:	48 8d 35 42 22 00 00 	lea    0x2242(%rip),%rsi        # 1f450 <g_431+0x13d2>
   1d20e:	48 89 cf             	mov    %rcx,%rdi
   1d211:	e8 dd d4 fe ff       	callq  a6f3 <transparent_crc>
   1d216:	8b 05 54 8d 00 00    	mov    0x8d54(%rip),%eax        # 25f70 <g_540>
   1d21c:	48 98                	cltq   
   1d21e:	8b 55 fc             	mov    -0x4(%rbp),%edx
   1d221:	48 8d 35 2e 22 00 00 	lea    0x222e(%rip),%rsi        # 1f456 <g_431+0x13d8>
   1d228:	48 89 c7             	mov    %rax,%rdi
   1d22b:	e8 c3 d4 fe ff       	callq  a6f3 <transparent_crc>
   1d230:	48 8b 05 41 8d 00 00 	mov    0x8d41(%rip),%rax        # 25f78 <g_545>
   1d237:	48 89 c1             	mov    %rax,%rcx
   1d23a:	8b 45 fc             	mov    -0x4(%rbp),%eax
   1d23d:	89 c2                	mov    %eax,%edx
   1d23f:	48 8d 35 16 22 00 00 	lea    0x2216(%rip),%rsi        # 1f45c <g_431+0x13de>
   1d246:	48 89 cf             	mov    %rcx,%rdi
   1d249:	e8 a5 d4 fe ff       	callq  a6f3 <transparent_crc>
   1d24e:	c7 45 f0 00 00 00 00 	movl   $0x0,-0x10(%rbp)
   1d255:	e9 ad 00 00 00       	jmpq   1d307 <main+0x63a>
   1d25a:	c7 45 f4 00 00 00 00 	movl   $0x0,-0xc(%rbp)
   1d261:	e9 93 00 00 00       	jmpq   1d2f9 <main+0x62c>
   1d266:	c7 45 f8 00 00 00 00 	movl   $0x0,-0x8(%rbp)
   1d26d:	eb 7c                	jmp    1d2eb <main+0x61e>
   1d26f:	8b 45 f8             	mov    -0x8(%rbp),%eax
   1d272:	48 63 f0             	movslq %eax,%rsi
   1d275:	8b 45 f0             	mov    -0x10(%rbp),%eax
   1d278:	48 63 d0             	movslq %eax,%rdx
   1d27b:	8b 45 f4             	mov    -0xc(%rbp),%eax
   1d27e:	48 63 c8             	movslq %eax,%rcx
   1d281:	48 89 d0             	mov    %rdx,%rax
   1d284:	48 01 c0             	add    %rax,%rax
   1d287:	48 01 d0             	add    %rdx,%rax
   1d28a:	48 c1 e0 03          	shl    $0x3,%rax
   1d28e:	48 89 ca             	mov    %rcx,%rdx
   1d291:	48 01 d2             	add    %rdx,%rdx
   1d294:	48 01 ca             	add    %rcx,%rdx
   1d297:	48 01 d0             	add    %rdx,%rax
   1d29a:	48 01 f0             	add    %rsi,%rax
   1d29d:	48 8d 14 85 00 00 00 	lea    0x0(,%rax,4),%rdx
   1d2a4:	00 
   1d2a5:	48 8d 05 74 4e 00 00 	lea    0x4e74(%rip),%rax        # 22120 <g_546>
   1d2ac:	8b 04 02             	mov    (%rdx,%rax,1),%eax
   1d2af:	89 c1                	mov    %eax,%ecx
   1d2b1:	8b 45 fc             	mov    -0x4(%rbp),%eax
   1d2b4:	89 c2                	mov    %eax,%edx
   1d2b6:	48 8d 35 a5 21 00 00 	lea    0x21a5(%rip),%rsi        # 1f462 <g_431+0x13e4>
   1d2bd:	48 89 cf             	mov    %rcx,%rdi
   1d2c0:	e8 2e d4 fe ff       	callq  a6f3 <transparent_crc>
   1d2c5:	83 7d fc 00          	cmpl   $0x0,-0x4(%rbp)
   1d2c9:	74 1c                	je     1d2e7 <main+0x61a>
   1d2cb:	8b 4d f8             	mov    -0x8(%rbp),%ecx
   1d2ce:	8b 55 f4             	mov    -0xc(%rbp),%edx
   1d2d1:	8b 45 f0             	mov    -0x10(%rbp),%eax
   1d2d4:	89 c6                	mov    %eax,%esi
   1d2d6:	48 8d 3d 94 21 00 00 	lea    0x2194(%rip),%rdi        # 1f471 <g_431+0x13f3>
   1d2dd:	b8 00 00 00 00       	mov    $0x0,%eax
   1d2e2:	e8 99 bd fe ff       	callq  9080 <printf@plt>
   1d2e7:	83 45 f8 01          	addl   $0x1,-0x8(%rbp)
   1d2eb:	83 7d f8 02          	cmpl   $0x2,-0x8(%rbp)
   1d2ef:	0f 8e 7a ff ff ff    	jle    1d26f <main+0x5a2>
   1d2f5:	83 45 f4 01          	addl   $0x1,-0xc(%rbp)
   1d2f9:	83 7d f4 07          	cmpl   $0x7,-0xc(%rbp)
   1d2fd:	0f 8e 63 ff ff ff    	jle    1d266 <main+0x599>
   1d303:	83 45 f0 01          	addl   $0x1,-0x10(%rbp)
   1d307:	83 7d f0 08          	cmpl   $0x8,-0x10(%rbp)
   1d30b:	0f 8e 49 ff ff ff    	jle    1d25a <main+0x58d>
   1d311:	0f b7 05 68 51 00 00 	movzwl 0x5168(%rip),%eax        # 22480 <g_570>
   1d318:	0f b7 c0             	movzwl %ax,%eax
   1d31b:	8b 55 fc             	mov    -0x4(%rbp),%edx
   1d31e:	48 8d 35 62 21 00 00 	lea    0x2162(%rip),%rsi        # 1f487 <g_431+0x1409>
   1d325:	48 89 c7             	mov    %rax,%rdi
   1d328:	e8 c6 d3 fe ff       	callq  a6f3 <transparent_crc>
   1d32d:	8b 05 51 51 00 00    	mov    0x5151(%rip),%eax        # 22484 <g_612>
   1d333:	48 98                	cltq   
   1d335:	8b 55 fc             	mov    -0x4(%rbp),%edx
   1d338:	48 8d 35 4e 21 00 00 	lea    0x214e(%rip),%rsi        # 1f48d <g_431+0x140f>
   1d33f:	48 89 c7             	mov    %rax,%rdi
   1d342:	e8 ac d3 fe ff       	callq  a6f3 <transparent_crc>
   1d347:	c7 45 f0 00 00 00 00 	movl   $0x0,-0x10(%rbp)
   1d34e:	eb 4a                	jmp    1d39a <main+0x6cd>
   1d350:	8b 45 f0             	mov    -0x10(%rbp),%eax
   1d353:	48 98                	cltq   
   1d355:	48 8d 14 00          	lea    (%rax,%rax,1),%rdx
   1d359:	48 8d 05 28 51 00 00 	lea    0x5128(%rip),%rax        # 22488 <g_615>
   1d360:	0f b7 04 02          	movzwl (%rdx,%rax,1),%eax
   1d364:	48 0f bf c0          	movswq %ax,%rax
   1d368:	8b 55 fc             	mov    -0x4(%rbp),%edx
   1d36b:	48 8d 35 21 21 00 00 	lea    0x2121(%rip),%rsi        # 1f493 <g_431+0x1415>
   1d372:	48 89 c7             	mov    %rax,%rdi
   1d375:	e8 79 d3 fe ff       	callq  a6f3 <transparent_crc>
   1d37a:	83 7d fc 00          	cmpl   $0x0,-0x4(%rbp)
   1d37e:	74 16                	je     1d396 <main+0x6c9>
   1d380:	8b 45 f0             	mov    -0x10(%rbp),%eax
   1d383:	89 c6                	mov    %eax,%esi
   1d385:	48 8d 3d 05 20 00 00 	lea    0x2005(%rip),%rdi        # 1f391 <g_431+0x1313>
   1d38c:	b8 00 00 00 00       	mov    $0x0,%eax
   1d391:	e8 ea bc fe ff       	callq  9080 <printf@plt>
   1d396:	83 45 f0 01          	addl   $0x1,-0x10(%rbp)
   1d39a:	83 7d f0 01          	cmpl   $0x1,-0x10(%rbp)
   1d39e:	7e b0                	jle    1d350 <main+0x683>
   1d3a0:	c7 45 f0 00 00 00 00 	movl   $0x0,-0x10(%rbp)
   1d3a7:	eb 4d                	jmp    1d3f6 <main+0x729>
   1d3a9:	8b 45 f0             	mov    -0x10(%rbp),%eax
   1d3ac:	48 98                	cltq   
   1d3ae:	48 8d 14 85 00 00 00 	lea    0x0(,%rax,4),%rdx
   1d3b5:	00 
   1d3b6:	48 8d 05 d3 50 00 00 	lea    0x50d3(%rip),%rax        # 22490 <g_616>
   1d3bd:	8b 04 02             	mov    (%rdx,%rax,1),%eax
   1d3c0:	89 c1                	mov    %eax,%ecx
   1d3c2:	8b 45 fc             	mov    -0x4(%rbp),%eax
   1d3c5:	89 c2                	mov    %eax,%edx
   1d3c7:	48 8d 35 ce 20 00 00 	lea    0x20ce(%rip),%rsi        # 1f49c <g_431+0x141e>
   1d3ce:	48 89 cf             	mov    %rcx,%rdi
   1d3d1:	e8 1d d3 fe ff       	callq  a6f3 <transparent_crc>
   1d3d6:	83 7d fc 00          	cmpl   $0x0,-0x4(%rbp)
   1d3da:	74 16                	je     1d3f2 <main+0x725>
   1d3dc:	8b 45 f0             	mov    -0x10(%rbp),%eax
   1d3df:	89 c6                	mov    %eax,%esi
   1d3e1:	48 8d 3d a9 1f 00 00 	lea    0x1fa9(%rip),%rdi        # 1f391 <g_431+0x1313>
   1d3e8:	b8 00 00 00 00       	mov    $0x0,%eax
   1d3ed:	e8 8e bc fe ff       	callq  9080 <printf@plt>
   1d3f2:	83 45 f0 01          	addl   $0x1,-0x10(%rbp)
   1d3f6:	83 7d f0 01          	cmpl   $0x1,-0x10(%rbp)
   1d3fa:	7e ad                	jle    1d3a9 <main+0x6dc>
   1d3fc:	c7 45 f0 00 00 00 00 	movl   $0x0,-0x10(%rbp)
   1d403:	eb 4d                	jmp    1d452 <main+0x785>
   1d405:	8b 45 f0             	mov    -0x10(%rbp),%eax
   1d408:	48 98                	cltq   
   1d40a:	48 8d 14 85 00 00 00 	lea    0x0(,%rax,4),%rdx
   1d411:	00 
   1d412:	48 8d 05 87 8b 00 00 	lea    0x8b87(%rip),%rax        # 25fa0 <g_698>
   1d419:	8b 04 02             	mov    (%rdx,%rax,1),%eax
   1d41c:	89 c1                	mov    %eax,%ecx
   1d41e:	8b 45 fc             	mov    -0x4(%rbp),%eax
   1d421:	89 c2                	mov    %eax,%edx
   1d423:	48 8d 35 7b 20 00 00 	lea    0x207b(%rip),%rsi        # 1f4a5 <g_431+0x1427>
   1d42a:	48 89 cf             	mov    %rcx,%rdi
   1d42d:	e8 c1 d2 fe ff       	callq  a6f3 <transparent_crc>
   1d432:	83 7d fc 00          	cmpl   $0x0,-0x4(%rbp)
   1d436:	74 16                	je     1d44e <main+0x781>
   1d438:	8b 45 f0             	mov    -0x10(%rbp),%eax
   1d43b:	89 c6                	mov    %eax,%esi
   1d43d:	48 8d 3d 4d 1f 00 00 	lea    0x1f4d(%rip),%rdi        # 1f391 <g_431+0x1313>
   1d444:	b8 00 00 00 00       	mov    $0x0,%eax
   1d449:	e8 32 bc fe ff       	callq  9080 <printf@plt>
   1d44e:	83 45 f0 01          	addl   $0x1,-0x10(%rbp)
   1d452:	83 7d f0 07          	cmpl   $0x7,-0x10(%rbp)
   1d456:	7e ad                	jle    1d405 <main+0x738>
   1d458:	0f b6 05 39 50 00 00 	movzbl 0x5039(%rip),%eax        # 22498 <g_779>
   1d45f:	0f b6 c0             	movzbl %al,%eax
   1d462:	8b 55 fc             	mov    -0x4(%rbp),%edx
   1d465:	48 8d 35 42 20 00 00 	lea    0x2042(%rip),%rsi        # 1f4ae <g_431+0x1430>
   1d46c:	48 89 c7             	mov    %rax,%rdi
   1d46f:	e8 7f d2 fe ff       	callq  a6f3 <transparent_crc>
   1d474:	0f b7 05 1f 50 00 00 	movzwl 0x501f(%rip),%eax        # 2249a <g_860>
   1d47b:	0f b7 c0             	movzwl %ax,%eax
   1d47e:	8b 55 fc             	mov    -0x4(%rbp),%edx
   1d481:	48 8d 35 2f 20 00 00 	lea    0x202f(%rip),%rsi        # 1f4b7 <g_431+0x1439>
   1d488:	48 89 c7             	mov    %rax,%rdi
   1d48b:	e8 63 d2 fe ff       	callq  a6f3 <transparent_crc>
   1d490:	48 8b 05 09 50 00 00 	mov    0x5009(%rip),%rax        # 224a0 <g_890>
   1d497:	8b 55 fc             	mov    -0x4(%rbp),%edx
   1d49a:	48 8d 35 1c 20 00 00 	lea    0x201c(%rip),%rsi        # 1f4bd <g_431+0x143f>
   1d4a1:	48 89 c7             	mov    %rax,%rdi
   1d4a4:	e8 4a d2 fe ff       	callq  a6f3 <transparent_crc>
   1d4a9:	48 8b 05 f8 4f 00 00 	mov    0x4ff8(%rip),%rax        # 224a8 <g_905>
   1d4b0:	48 89 c1             	mov    %rax,%rcx
   1d4b3:	8b 45 fc             	mov    -0x4(%rbp),%eax
   1d4b6:	89 c2                	mov    %eax,%edx
   1d4b8:	48 8d 35 04 20 00 00 	lea    0x2004(%rip),%rsi        # 1f4c3 <g_431+0x1445>
   1d4bf:	48 89 cf             	mov    %rcx,%rdi
   1d4c2:	e8 2c d2 fe ff       	callq  a6f3 <transparent_crc>
   1d4c7:	8b 05 e3 4f 00 00    	mov    0x4fe3(%rip),%eax        # 224b0 <g_907>
   1d4cd:	89 c1                	mov    %eax,%ecx
   1d4cf:	8b 45 fc             	mov    -0x4(%rbp),%eax
   1d4d2:	89 c2                	mov    %eax,%edx
   1d4d4:	48 8d 35 ee 1f 00 00 	lea    0x1fee(%rip),%rsi        # 1f4c9 <g_431+0x144b>
   1d4db:	48 89 cf             	mov    %rcx,%rdi
   1d4de:	e8 10 d2 fe ff       	callq  a6f3 <transparent_crc>
   1d4e3:	8b 05 cb 4f 00 00    	mov    0x4fcb(%rip),%eax        # 224b4 <g_946>
   1d4e9:	89 c1                	mov    %eax,%ecx
   1d4eb:	8b 45 fc             	mov    -0x4(%rbp),%eax
   1d4ee:	89 c2                	mov    %eax,%edx
   1d4f0:	48 8d 35 d8 1f 00 00 	lea    0x1fd8(%rip),%rsi        # 1f4cf <g_431+0x1451>
   1d4f7:	48 89 cf             	mov    %rcx,%rdi
   1d4fa:	e8 f4 d1 fe ff       	callq  a6f3 <transparent_crc>
   1d4ff:	8b 05 b3 4f 00 00    	mov    0x4fb3(%rip),%eax        # 224b8 <g_1012>
   1d505:	89 c1                	mov    %eax,%ecx
   1d507:	8b 45 fc             	mov    -0x4(%rbp),%eax
   1d50a:	89 c2                	mov    %eax,%edx
   1d50c:	48 8d 35 c2 1f 00 00 	lea    0x1fc2(%rip),%rsi        # 1f4d5 <g_431+0x1457>
   1d513:	48 89 cf             	mov    %rcx,%rdi
   1d516:	e8 d8 d1 fe ff       	callq  a6f3 <transparent_crc>
   1d51b:	8b 05 9b 4f 00 00    	mov    0x4f9b(%rip),%eax        # 224bc <g_1047>
   1d521:	89 c1                	mov    %eax,%ecx
   1d523:	8b 45 fc             	mov    -0x4(%rbp),%eax
   1d526:	89 c2                	mov    %eax,%edx
   1d528:	48 8d 35 ad 1f 00 00 	lea    0x1fad(%rip),%rsi        # 1f4dc <g_431+0x145e>
   1d52f:	48 89 cf             	mov    %rcx,%rdi
   1d532:	e8 bc d1 fe ff       	callq  a6f3 <transparent_crc>
   1d537:	8b 05 d3 8a 00 00    	mov    0x8ad3(%rip),%eax        # 26010 <g_1083>
   1d53d:	48 98                	cltq   
   1d53f:	8b 55 fc             	mov    -0x4(%rbp),%edx
   1d542:	48 8d 35 9a 1f 00 00 	lea    0x1f9a(%rip),%rsi        # 1f4e3 <g_431+0x1465>
   1d549:	48 89 c7             	mov    %rax,%rdi
   1d54c:	e8 a2 d1 fe ff       	callq  a6f3 <transparent_crc>
   1d551:	8b 05 69 4f 00 00    	mov    0x4f69(%rip),%eax        # 224c0 <g_1164>
   1d557:	89 c1                	mov    %eax,%ecx
   1d559:	8b 45 fc             	mov    -0x4(%rbp),%eax
   1d55c:	89 c2                	mov    %eax,%edx
   1d55e:	48 8d 35 85 1f 00 00 	lea    0x1f85(%rip),%rsi        # 1f4ea <g_431+0x146c>
   1d565:	48 89 cf             	mov    %rcx,%rdi
   1d568:	e8 86 d1 fe ff       	callq  a6f3 <transparent_crc>
   1d56d:	8b 05 51 4f 00 00    	mov    0x4f51(%rip),%eax        # 224c4 <g_1167>
   1d573:	48 98                	cltq   
   1d575:	8b 55 fc             	mov    -0x4(%rbp),%edx
   1d578:	48 8d 35 72 1f 00 00 	lea    0x1f72(%rip),%rsi        # 1f4f1 <g_431+0x1473>
   1d57f:	48 89 c7             	mov    %rax,%rdi
   1d582:	e8 6c d1 fe ff       	callq  a6f3 <transparent_crc>
   1d587:	0f b7 05 3a 4f 00 00 	movzwl 0x4f3a(%rip),%eax        # 224c8 <g_1199>
   1d58e:	48 0f bf c0          	movswq %ax,%rax
   1d592:	8b 55 fc             	mov    -0x4(%rbp),%edx
   1d595:	48 8d 35 5c 1f 00 00 	lea    0x1f5c(%rip),%rsi        # 1f4f8 <g_431+0x147a>
   1d59c:	48 89 c7             	mov    %rax,%rdi
   1d59f:	e8 4f d1 fe ff       	callq  a6f3 <transparent_crc>
   1d5a4:	c7 45 f0 00 00 00 00 	movl   $0x0,-0x10(%rbp)
   1d5ab:	eb 4b                	jmp    1d5f8 <main+0x92b>
   1d5ad:	8b 45 f0             	mov    -0x10(%rbp),%eax
   1d5b0:	48 98                	cltq   
   1d5b2:	48 8d 14 85 00 00 00 	lea    0x0(,%rax,4),%rdx
   1d5b9:	00 
   1d5ba:	48 8d 05 0f 4f 00 00 	lea    0x4f0f(%rip),%rax        # 224d0 <g_1287>
   1d5c1:	8b 04 02             	mov    (%rdx,%rax,1),%eax
   1d5c4:	48 98                	cltq   
   1d5c6:	8b 55 fc             	mov    -0x4(%rbp),%edx
   1d5c9:	48 8d 35 2f 1f 00 00 	lea    0x1f2f(%rip),%rsi        # 1f4ff <g_431+0x1481>
   1d5d0:	48 89 c7             	mov    %rax,%rdi
   1d5d3:	e8 1b d1 fe ff       	callq  a6f3 <transparent_crc>
   1d5d8:	83 7d fc 00          	cmpl   $0x0,-0x4(%rbp)
   1d5dc:	74 16                	je     1d5f4 <main+0x927>
   1d5de:	8b 45 f0             	mov    -0x10(%rbp),%eax
   1d5e1:	89 c6                	mov    %eax,%esi
   1d5e3:	48 8d 3d a7 1d 00 00 	lea    0x1da7(%rip),%rdi        # 1f391 <g_431+0x1313>
   1d5ea:	b8 00 00 00 00       	mov    $0x0,%eax
   1d5ef:	e8 8c ba fe ff       	callq  9080 <printf@plt>
   1d5f4:	83 45 f0 01          	addl   $0x1,-0x10(%rbp)
   1d5f8:	83 7d f0 04          	cmpl   $0x4,-0x10(%rbp)
   1d5fc:	7e af                	jle    1d5ad <main+0x8e0>
   1d5fe:	0f b6 05 df 4e 00 00 	movzbl 0x4edf(%rip),%eax        # 224e4 <g_1434>
   1d605:	0f b6 c0             	movzbl %al,%eax
   1d608:	8b 55 fc             	mov    -0x4(%rbp),%edx
   1d60b:	48 8d 35 f7 1e 00 00 	lea    0x1ef7(%rip),%rsi        # 1f509 <g_431+0x148b>
   1d612:	48 89 c7             	mov    %rax,%rdi
   1d615:	e8 d9 d0 fe ff       	callq  a6f3 <transparent_crc>
   1d61a:	0f b6 05 c4 4e 00 00 	movzbl 0x4ec4(%rip),%eax        # 224e5 <g_1555>
   1d621:	48 0f be c0          	movsbq %al,%rax
   1d625:	8b 55 fc             	mov    -0x4(%rbp),%edx
   1d628:	48 8d 35 e1 1e 00 00 	lea    0x1ee1(%rip),%rsi        # 1f510 <g_431+0x1492>
   1d62f:	48 89 c7             	mov    %rax,%rdi
   1d632:	e8 bc d0 fe ff       	callq  a6f3 <transparent_crc>
   1d637:	0f b7 05 a8 4e 00 00 	movzwl 0x4ea8(%rip),%eax        # 224e6 <g_1654>
   1d63e:	48 0f bf c0          	movswq %ax,%rax
   1d642:	8b 55 fc             	mov    -0x4(%rbp),%edx
   1d645:	48 8d 35 cb 1e 00 00 	lea    0x1ecb(%rip),%rsi        # 1f517 <g_431+0x1499>
   1d64c:	48 89 c7             	mov    %rax,%rdi
   1d64f:	e8 9f d0 fe ff       	callq  a6f3 <transparent_crc>
   1d654:	8b 05 8e 4e 00 00    	mov    0x4e8e(%rip),%eax        # 224e8 <g_1655>
   1d65a:	48 98                	cltq   
   1d65c:	8b 55 fc             	mov    -0x4(%rbp),%edx
   1d65f:	48 8d 35 b8 1e 00 00 	lea    0x1eb8(%rip),%rsi        # 1f51e <g_431+0x14a0>
   1d666:	48 89 c7             	mov    %rax,%rdi
   1d669:	e8 85 d0 fe ff       	callq  a6f3 <transparent_crc>
   1d66e:	c7 45 f0 00 00 00 00 	movl   $0x0,-0x10(%rbp)
   1d675:	eb 4b                	jmp    1d6c2 <main+0x9f5>
   1d677:	8b 45 f0             	mov    -0x10(%rbp),%eax
   1d67a:	48 98                	cltq   
   1d67c:	48 8d 14 85 00 00 00 	lea    0x0(,%rax,4),%rdx
   1d683:	00 
   1d684:	48 8d 05 65 4e 00 00 	lea    0x4e65(%rip),%rax        # 224f0 <g_1782>
   1d68b:	8b 04 02             	mov    (%rdx,%rax,1),%eax
   1d68e:	48 98                	cltq   
   1d690:	8b 55 fc             	mov    -0x4(%rbp),%edx
   1d693:	48 8d 35 8b 1e 00 00 	lea    0x1e8b(%rip),%rsi        # 1f525 <g_431+0x14a7>
   1d69a:	48 89 c7             	mov    %rax,%rdi
   1d69d:	e8 51 d0 fe ff       	callq  a6f3 <transparent_crc>
   1d6a2:	83 7d fc 00          	cmpl   $0x0,-0x4(%rbp)
   1d6a6:	74 16                	je     1d6be <main+0x9f1>
   1d6a8:	8b 45 f0             	mov    -0x10(%rbp),%eax
   1d6ab:	89 c6                	mov    %eax,%esi
   1d6ad:	48 8d 3d dd 1c 00 00 	lea    0x1cdd(%rip),%rdi        # 1f391 <g_431+0x1313>
   1d6b4:	b8 00 00 00 00       	mov    $0x0,%eax
   1d6b9:	e8 c2 b9 fe ff       	callq  9080 <printf@plt>
   1d6be:	83 45 f0 01          	addl   $0x1,-0x10(%rbp)
   1d6c2:	83 7d f0 04          	cmpl   $0x4,-0x10(%rbp)
   1d6c6:	7e af                	jle    1d677 <main+0x9aa>
   1d6c8:	0f b6 05 71 89 00 00 	movzbl 0x8971(%rip),%eax        # 26040 <g_1783>
   1d6cf:	0f b6 c0             	movzbl %al,%eax
   1d6d2:	8b 55 fc             	mov    -0x4(%rbp),%edx
   1d6d5:	48 8d 35 53 1e 00 00 	lea    0x1e53(%rip),%rsi        # 1f52f <g_431+0x14b1>
   1d6dc:	48 89 c7             	mov    %rax,%rdi
   1d6df:	e8 0f d0 fe ff       	callq  a6f3 <transparent_crc>
   1d6e4:	0f b6 05 19 4e 00 00 	movzbl 0x4e19(%rip),%eax        # 22504 <g_1865>
   1d6eb:	0f b6 c0             	movzbl %al,%eax
   1d6ee:	8b 55 fc             	mov    -0x4(%rbp),%edx
   1d6f1:	48 8d 35 3e 1e 00 00 	lea    0x1e3e(%rip),%rsi        # 1f536 <g_431+0x14b8>
   1d6f8:	48 89 c7             	mov    %rax,%rdi
   1d6fb:	e8 f3 cf fe ff       	callq  a6f3 <transparent_crc>
   1d700:	48 8b 05 01 4e 00 00 	mov    0x4e01(%rip),%rax        # 22508 <g_1889>
   1d707:	48 89 c1             	mov    %rax,%rcx
   1d70a:	8b 45 fc             	mov    -0x4(%rbp),%eax
   1d70d:	89 c2                	mov    %eax,%edx
   1d70f:	48 8d 35 27 1e 00 00 	lea    0x1e27(%rip),%rsi        # 1f53d <g_431+0x14bf>
   1d716:	48 89 cf             	mov    %rcx,%rdi
   1d719:	e8 d5 cf fe ff       	callq  a6f3 <transparent_crc>
   1d71e:	c7 45 f0 00 00 00 00 	movl   $0x0,-0x10(%rbp)
   1d725:	eb 45                	jmp    1d76c <main+0xa9f>
   1d727:	8b 45 f0             	mov    -0x10(%rbp),%eax
   1d72a:	48 98                	cltq   
   1d72c:	48 8d 15 dd 4d 00 00 	lea    0x4ddd(%rip),%rdx        # 22510 <g_2024>
   1d733:	0f b6 04 10          	movzbl (%rax,%rdx,1),%eax
   1d737:	0f b6 c0             	movzbl %al,%eax
   1d73a:	8b 55 fc             	mov    -0x4(%rbp),%edx
   1d73d:	48 8d 35 00 1e 00 00 	lea    0x1e00(%rip),%rsi        # 1f544 <g_431+0x14c6>
   1d744:	48 89 c7             	mov    %rax,%rdi
   1d747:	e8 a7 cf fe ff       	callq  a6f3 <transparent_crc>
   1d74c:	83 7d fc 00          	cmpl   $0x0,-0x4(%rbp)
   1d750:	74 16                	je     1d768 <main+0xa9b>
   1d752:	8b 45 f0             	mov    -0x10(%rbp),%eax
   1d755:	89 c6                	mov    %eax,%esi
   1d757:	48 8d 3d 33 1c 00 00 	lea    0x1c33(%rip),%rdi        # 1f391 <g_431+0x1313>
   1d75e:	b8 00 00 00 00       	mov    $0x0,%eax
   1d763:	e8 18 b9 fe ff       	callq  9080 <printf@plt>
   1d768:	83 45 f0 01          	addl   $0x1,-0x10(%rbp)
   1d76c:	83 7d f0 07          	cmpl   $0x7,-0x10(%rbp)
   1d770:	7e b5                	jle    1d727 <main+0xa5a>
   1d772:	c7 45 f0 00 00 00 00 	movl   $0x0,-0x10(%rbp)
   1d779:	eb 4d                	jmp    1d7c8 <main+0xafb>
   1d77b:	8b 45 f0             	mov    -0x10(%rbp),%eax
   1d77e:	48 98                	cltq   
   1d780:	48 8d 14 85 00 00 00 	lea    0x0(,%rax,4),%rdx
   1d787:	00 
   1d788:	48 8d 05 89 4d 00 00 	lea    0x4d89(%rip),%rax        # 22518 <g_2108>
   1d78f:	8b 04 02             	mov    (%rdx,%rax,1),%eax
   1d792:	89 c1                	mov    %eax,%ecx
   1d794:	8b 45 fc             	mov    -0x4(%rbp),%eax
   1d797:	89 c2                	mov    %eax,%edx
   1d799:	48 8d 35 ae 1d 00 00 	lea    0x1dae(%rip),%rsi        # 1f54e <g_431+0x14d0>
   1d7a0:	48 89 cf             	mov    %rcx,%rdi
   1d7a3:	e8 4b cf fe ff       	callq  a6f3 <transparent_crc>
   1d7a8:	83 7d fc 00          	cmpl   $0x0,-0x4(%rbp)
   1d7ac:	74 16                	je     1d7c4 <main+0xaf7>
   1d7ae:	8b 45 f0             	mov    -0x10(%rbp),%eax
   1d7b1:	89 c6                	mov    %eax,%esi
   1d7b3:	48 8d 3d d7 1b 00 00 	lea    0x1bd7(%rip),%rdi        # 1f391 <g_431+0x1313>
   1d7ba:	b8 00 00 00 00       	mov    $0x0,%eax
   1d7bf:	e8 bc b8 fe ff       	callq  9080 <printf@plt>
   1d7c4:	83 45 f0 01          	addl   $0x1,-0x10(%rbp)
   1d7c8:	83 7d f0 02          	cmpl   $0x2,-0x10(%rbp)
   1d7cc:	7e ad                	jle    1d77b <main+0xaae>
   1d7ce:	8b 05 50 4d 00 00    	mov    0x4d50(%rip),%eax        # 22524 <g_2147>
   1d7d4:	89 c1                	mov    %eax,%ecx
   1d7d6:	8b 45 fc             	mov    -0x4(%rbp),%eax
   1d7d9:	89 c2                	mov    %eax,%edx
   1d7db:	48 8d 35 76 1d 00 00 	lea    0x1d76(%rip),%rsi        # 1f558 <g_431+0x14da>
   1d7e2:	48 89 cf             	mov    %rcx,%rdi
   1d7e5:	e8 09 cf fe ff       	callq  a6f3 <transparent_crc>
   1d7ea:	0f b7 05 37 4d 00 00 	movzwl 0x4d37(%rip),%eax        # 22528 <g_2426>
   1d7f1:	0f b7 c0             	movzwl %ax,%eax
   1d7f4:	8b 55 fc             	mov    -0x4(%rbp),%edx
   1d7f7:	48 8d 35 61 1d 00 00 	lea    0x1d61(%rip),%rsi        # 1f55f <g_431+0x14e1>
   1d7fe:	48 89 c7             	mov    %rax,%rdi
   1d801:	e8 ed ce fe ff       	callq  a6f3 <transparent_crc>
   1d806:	0f b7 05 1d 4d 00 00 	movzwl 0x4d1d(%rip),%eax        # 2252a <g_2474>
   1d80d:	0f b7 c0             	movzwl %ax,%eax
   1d810:	8b 55 fc             	mov    -0x4(%rbp),%edx
   1d813:	48 8d 35 4c 1d 00 00 	lea    0x1d4c(%rip),%rsi        # 1f566 <g_431+0x14e8>
   1d81a:	48 89 c7             	mov    %rax,%rdi
   1d81d:	e8 d1 ce fe ff       	callq  a6f3 <transparent_crc>
   1d822:	8b 05 f8 47 00 00    	mov    0x47f8(%rip),%eax        # 22020 <crc32_context>
   1d828:	f7 d0                	not    %eax
   1d82a:	89 c2                	mov    %eax,%edx
   1d82c:	8b 45 fc             	mov    -0x4(%rbp),%eax
   1d82f:	89 c6                	mov    %eax,%esi
   1d831:	89 d7                	mov    %edx,%edi
   1d833:	e8 5c b9 fe ff       	callq  9194 <platform_main_end>
   1d838:	b8 00 00 00 00       	mov    $0x0,%eax
   1d83d:	c9                   	leaveq 
   1d83e:	c3                   	retq   
   1d83f:	90                   	nop

000000000001d840 <__libc_csu_init>:
   1d840:	f3 0f 1e fa          	endbr64 
   1d844:	41 57                	push   %r15
   1d846:	4c 8d 3d 43 44 00 00 	lea    0x4443(%rip),%r15        # 21c90 <__frame_dummy_init_array_entry>
   1d84d:	41 56                	push   %r14
   1d84f:	49 89 d6             	mov    %rdx,%r14
   1d852:	41 55                	push   %r13
   1d854:	49 89 f5             	mov    %rsi,%r13
   1d857:	41 54                	push   %r12
   1d859:	41 89 fc             	mov    %edi,%r12d
   1d85c:	55                   	push   %rbp
   1d85d:	48 8d 2d 34 44 00 00 	lea    0x4434(%rip),%rbp        # 21c98 <__do_global_dtors_aux_fini_array_entry>
   1d864:	53                   	push   %rbx
   1d865:	4c 29 fd             	sub    %r15,%rbp
   1d868:	48 83 ec 08          	sub    $0x8,%rsp
   1d86c:	e8 8f b7 fe ff       	callq  9000 <_init>
   1d871:	48 c1 fd 03          	sar    $0x3,%rbp
   1d875:	74 1f                	je     1d896 <__libc_csu_init+0x56>
   1d877:	31 db                	xor    %ebx,%ebx
   1d879:	0f 1f 80 00 00 00 00 	nopl   0x0(%rax)
   1d880:	4c 89 f2             	mov    %r14,%rdx
   1d883:	4c 89 ee             	mov    %r13,%rsi
   1d886:	44 89 e7             	mov    %r12d,%edi
   1d889:	41 ff 14 df          	callq  *(%r15,%rbx,8)
   1d88d:	48 83 c3 01          	add    $0x1,%rbx
   1d891:	48 39 dd             	cmp    %rbx,%rbp
   1d894:	75 ea                	jne    1d880 <__libc_csu_init+0x40>
   1d896:	48 83 c4 08          	add    $0x8,%rsp
   1d89a:	5b                   	pop    %rbx
   1d89b:	5d                   	pop    %rbp
   1d89c:	41 5c                	pop    %r12
   1d89e:	41 5d                	pop    %r13
   1d8a0:	41 5e                	pop    %r14
   1d8a2:	41 5f                	pop    %r15
   1d8a4:	c3                   	retq   
   1d8a5:	66 66 2e 0f 1f 84 00 	data16 nopw %cs:0x0(%rax,%rax,1)
   1d8ac:	00 00 00 00 

000000000001d8b0 <__libc_csu_fini>:
   1d8b0:	f3 0f 1e fa          	endbr64 
   1d8b4:	c3                   	retq   
