


Disassembly of section .text:

00000000000090a0 <_start>:
    90a0:	f3 0f 1e fa          	endbr64 
    90a4:	31 ed                	xor    %ebp,%ebp
    90a6:	49 89 d1             	mov    %rdx,%r9
    90a9:	5e                   	pop    %rsi
    90aa:	48 89 e2             	mov    %rsp,%rdx
    90ad:	48 83 e4 f0          	and    $0xfffffffffffffff0,%rsp
    90b1:	50                   	push   %rax
    90b2:	54                   	push   %rsp
    90b3:	4c 8d 05 e6 cf 00 00 	lea    0xcfe6(%rip),%r8        # 160a0 <__libc_csu_fini>
    90ba:	48 8d 0d 6f cf 00 00 	lea    0xcf6f(%rip),%rcx        # 16030 <__libc_csu_init>
    90c1:	48 8d 3d 96 bd 00 00 	lea    0xbd96(%rip),%rdi        # 14e5e <main>
    90c8:	ff 15 0a 2f 01 00    	callq  *0x12f0a(%rip)        # 1bfd8 <__libc_start_main@GLIBC_2.2.5>
    90ce:	f4                   	hlt    
    90cf:	90                   	nop

00000000000090d0 <deregister_tm_clones>:
    90d0:	48 8d 3d 49 76 01 00 	lea    0x17649(%rip),%rdi        # 20720 <__TMC_END__>
    90d7:	48 8d 05 42 76 01 00 	lea    0x17642(%rip),%rax        # 20720 <__TMC_END__>
    90de:	48 39 f8             	cmp    %rdi,%rax
    90e1:	74 15                	je     90f8 <deregister_tm_clones+0x28>
    90e3:	48 8b 05 e6 2e 01 00 	mov    0x12ee6(%rip),%rax        # 1bfd0 <_ITM_deregisterTMCloneTable>
    90ea:	48 85 c0             	test   %rax,%rax
    90ed:	74 09                	je     90f8 <deregister_tm_clones+0x28>
    90ef:	ff e0                	jmpq   *%rax
    90f1:	0f 1f 80 00 00 00 00 	nopl   0x0(%rax)
    90f8:	c3                   	retq   
    90f9:	0f 1f 80 00 00 00 00 	nopl   0x0(%rax)

0000000000009100 <register_tm_clones>:
    9100:	48 8d 3d 19 76 01 00 	lea    0x17619(%rip),%rdi        # 20720 <__TMC_END__>
    9107:	48 8d 35 12 76 01 00 	lea    0x17612(%rip),%rsi        # 20720 <__TMC_END__>
    910e:	48 29 fe             	sub    %rdi,%rsi
    9111:	48 89 f0             	mov    %rsi,%rax
    9114:	48 c1 ee 3f          	shr    $0x3f,%rsi
    9118:	48 c1 f8 03          	sar    $0x3,%rax
    911c:	48 01 c6             	add    %rax,%rsi
    911f:	48 d1 fe             	sar    %rsi
    9122:	74 14                	je     9138 <register_tm_clones+0x38>
    9124:	48 8b 05 bd 2e 01 00 	mov    0x12ebd(%rip),%rax        # 1bfe8 <_ITM_registerTMCloneTable>
    912b:	48 85 c0             	test   %rax,%rax
    912e:	74 08                	je     9138 <register_tm_clones+0x38>
    9130:	ff e0                	jmpq   *%rax
    9132:	66 0f 1f 44 00 00    	nopw   0x0(%rax,%rax,1)
    9138:	c3                   	retq   
    9139:	0f 1f 80 00 00 00 00 	nopl   0x0(%rax)

0000000000009140 <__do_global_dtors_aux>:
    9140:	f3 0f 1e fa          	endbr64 
    9144:	80 3d d5 75 01 00 00 	cmpb   $0x0,0x175d5(%rip)        # 20720 <__TMC_END__>
    914b:	75 2b                	jne    9178 <__do_global_dtors_aux+0x38>
    914d:	55                   	push   %rbp
    914e:	48 83 3d 9a 2e 01 00 	cmpq   $0x0,0x12e9a(%rip)        # 1bff0 <__cxa_finalize@GLIBC_2.2.5>
    9155:	00 
    9156:	48 89 e5             	mov    %rsp,%rbp
    9159:	74 0c                	je     9167 <__do_global_dtors_aux+0x27>
    915b:	48 8b 3d a6 2e 01 00 	mov    0x12ea6(%rip),%rdi        # 1c008 <__dso_handle>
    9162:	e8 f9 fe ff ff       	callq  9060 <__cxa_finalize@plt>
    9167:	e8 64 ff ff ff       	callq  90d0 <deregister_tm_clones>
    916c:	c6 05 ad 75 01 00 01 	movb   $0x1,0x175ad(%rip)        # 20720 <__TMC_END__>
    9173:	5d                   	pop    %rbp
    9174:	c3                   	retq   
    9175:	0f 1f 00             	nopl   (%rax)
    9178:	c3                   	retq   
    9179:	0f 1f 80 00 00 00 00 	nopl   0x0(%rax)

0000000000009180 <frame_dummy>:
    9180:	f3 0f 1e fa          	endbr64 
    9184:	e9 77 ff ff ff       	jmpq   9100 <register_tm_clones>

0000000000009189 <platform_main_begin>:
    9189:	f3 0f 1e fa          	endbr64 
    918d:	55                   	push   %rbp
    918e:	48 89 e5             	mov    %rsp,%rbp
    9191:	90                   	nop
    9192:	5d                   	pop    %rbp
    9193:	c3                   	retq   

0000000000009194 <platform_main_end>:
    9194:	f3 0f 1e fa          	endbr64 
    9198:	55                   	push   %rbp
    9199:	48 89 e5             	mov    %rsp,%rbp
    919c:	48 83 ec 10          	sub    $0x10,%rsp
    91a0:	89 7d fc             	mov    %edi,-0x4(%rbp)
    91a3:	89 75 f8             	mov    %esi,-0x8(%rbp)
    91a6:	8b 45 fc             	mov    -0x4(%rbp),%eax
    91a9:	89 c6                	mov    %eax,%esi
    91ab:	48 8d 3d 6e de 00 00 	lea    0xde6e(%rip),%rdi        # 17020 <_IO_stdin_used+0x20>
    91b2:	b8 00 00 00 00       	mov    $0x0,%eax
    91b7:	e8 c4 fe ff ff       	callq  9080 <printf@plt>
    91bc:	90                   	nop
    91bd:	c9                   	leaveq 
    91be:	c3                   	retq   

00000000000091bf <safe_unary_minus_func_int8_t_s>:
    91bf:	f3 0f 1e fa          	endbr64 
    91c3:	55                   	push   %rbp
    91c4:	48 89 e5             	mov    %rsp,%rbp
    91c7:	89 f8                	mov    %edi,%eax
    91c9:	88 45 fc             	mov    %al,-0x4(%rbp)
    91cc:	0f b6 45 fc          	movzbl -0x4(%rbp),%eax
    91d0:	f7 d8                	neg    %eax
    91d2:	5d                   	pop    %rbp
    91d3:	c3                   	retq   

00000000000091d4 <safe_add_func_int8_t_s_s>:
    91d4:	f3 0f 1e fa          	endbr64 
    91d8:	55                   	push   %rbp
    91d9:	48 89 e5             	mov    %rsp,%rbp
    91dc:	89 fa                	mov    %edi,%edx
    91de:	89 f0                	mov    %esi,%eax
    91e0:	88 55 fc             	mov    %dl,-0x4(%rbp)
    91e3:	88 45 f8             	mov    %al,-0x8(%rbp)
    91e6:	0f b6 55 fc          	movzbl -0x4(%rbp),%edx
    91ea:	0f b6 45 f8          	movzbl -0x8(%rbp),%eax
    91ee:	01 d0                	add    %edx,%eax
    91f0:	5d                   	pop    %rbp
    91f1:	c3                   	retq   

00000000000091f2 <safe_sub_func_int8_t_s_s>:
    91f2:	f3 0f 1e fa          	endbr64 
    91f6:	55                   	push   %rbp
    91f7:	48 89 e5             	mov    %rsp,%rbp
    91fa:	89 fa                	mov    %edi,%edx
    91fc:	89 f0                	mov    %esi,%eax
    91fe:	88 55 fc             	mov    %dl,-0x4(%rbp)
    9201:	88 45 f8             	mov    %al,-0x8(%rbp)
    9204:	0f b6 55 fc          	movzbl -0x4(%rbp),%edx
    9208:	0f b6 45 f8          	movzbl -0x8(%rbp),%eax
    920c:	29 c2                	sub    %eax,%edx
    920e:	89 d0                	mov    %edx,%eax
    9210:	5d                   	pop    %rbp
    9211:	c3                   	retq   

0000000000009212 <safe_mul_func_int8_t_s_s>:
    9212:	f3 0f 1e fa          	endbr64 
    9216:	55                   	push   %rbp
    9217:	48 89 e5             	mov    %rsp,%rbp
    921a:	89 fa                	mov    %edi,%edx
    921c:	89 f0                	mov    %esi,%eax
    921e:	88 55 fc             	mov    %dl,-0x4(%rbp)
    9221:	88 45 f8             	mov    %al,-0x8(%rbp)
    9224:	0f b6 45 fc          	movzbl -0x4(%rbp),%eax
    9228:	0f b6 55 f8          	movzbl -0x8(%rbp),%edx
    922c:	0f af c2             	imul   %edx,%eax
    922f:	5d                   	pop    %rbp
    9230:	c3                   	retq   

0000000000009231 <safe_mod_func_int8_t_s_s>:
    9231:	f3 0f 1e fa          	endbr64 
    9235:	55                   	push   %rbp
    9236:	48 89 e5             	mov    %rsp,%rbp
    9239:	89 fa                	mov    %edi,%edx
    923b:	89 f0                	mov    %esi,%eax
    923d:	88 55 fc             	mov    %dl,-0x4(%rbp)
    9240:	88 45 f8             	mov    %al,-0x8(%rbp)
    9243:	80 7d f8 00          	cmpb   $0x0,-0x8(%rbp)
    9247:	74 1b                	je     9264 <safe_mod_func_int8_t_s_s+0x33>
    9249:	80 7d fc 80          	cmpb   $0x80,-0x4(%rbp)
    924d:	75 06                	jne    9255 <safe_mod_func_int8_t_s_s+0x24>
    924f:	80 7d f8 ff          	cmpb   $0xff,-0x8(%rbp)
    9253:	74 0f                	je     9264 <safe_mod_func_int8_t_s_s+0x33>
    9255:	0f be 45 fc          	movsbl -0x4(%rbp),%eax
    9259:	0f be 4d f8          	movsbl -0x8(%rbp),%ecx
    925d:	99                   	cltd   
    925e:	f7 f9                	idiv   %ecx
    9260:	89 d0                	mov    %edx,%eax
    9262:	eb 04                	jmp    9268 <safe_mod_func_int8_t_s_s+0x37>
    9264:	0f b6 45 fc          	movzbl -0x4(%rbp),%eax
    9268:	5d                   	pop    %rbp
    9269:	c3                   	retq   

000000000000926a <safe_div_func_int8_t_s_s>:
    926a:	f3 0f 1e fa          	endbr64 
    926e:	55                   	push   %rbp
    926f:	48 89 e5             	mov    %rsp,%rbp
    9272:	89 fa                	mov    %edi,%edx
    9274:	89 f0                	mov    %esi,%eax
    9276:	88 55 fc             	mov    %dl,-0x4(%rbp)
    9279:	88 45 f8             	mov    %al,-0x8(%rbp)
    927c:	80 7d f8 00          	cmpb   $0x0,-0x8(%rbp)
    9280:	74 19                	je     929b <safe_div_func_int8_t_s_s+0x31>
    9282:	80 7d fc 80          	cmpb   $0x80,-0x4(%rbp)
    9286:	75 06                	jne    928e <safe_div_func_int8_t_s_s+0x24>
    9288:	80 7d f8 ff          	cmpb   $0xff,-0x8(%rbp)
    928c:	74 0d                	je     929b <safe_div_func_int8_t_s_s+0x31>
    928e:	0f be 45 fc          	movsbl -0x4(%rbp),%eax
    9292:	0f be 4d f8          	movsbl -0x8(%rbp),%ecx
    9296:	99                   	cltd   
    9297:	f7 f9                	idiv   %ecx
    9299:	eb 04                	jmp    929f <safe_div_func_int8_t_s_s+0x35>
    929b:	0f b6 45 fc          	movzbl -0x4(%rbp),%eax
    929f:	5d                   	pop    %rbp
    92a0:	c3                   	retq   

00000000000092a1 <safe_lshift_func_int8_t_s_s>:
    92a1:	f3 0f 1e fa          	endbr64 
    92a5:	55                   	push   %rbp
    92a6:	48 89 e5             	mov    %rsp,%rbp
    92a9:	89 f8                	mov    %edi,%eax
    92ab:	89 75 f8             	mov    %esi,-0x8(%rbp)
    92ae:	88 45 fc             	mov    %al,-0x4(%rbp)
    92b1:	80 7d fc 00          	cmpb   $0x0,-0x4(%rbp)
    92b5:	78 31                	js     92e8 <safe_lshift_func_int8_t_s_s+0x47>
    92b7:	83 7d f8 00          	cmpl   $0x0,-0x8(%rbp)
    92bb:	78 2b                	js     92e8 <safe_lshift_func_int8_t_s_s+0x47>
    92bd:	83 7d f8 1f          	cmpl   $0x1f,-0x8(%rbp)
    92c1:	7f 25                	jg     92e8 <safe_lshift_func_int8_t_s_s+0x47>
    92c3:	0f be 55 fc          	movsbl -0x4(%rbp),%edx
    92c7:	8b 45 f8             	mov    -0x8(%rbp),%eax
    92ca:	be 7f 00 00 00       	mov    $0x7f,%esi
    92cf:	89 c1                	mov    %eax,%ecx
    92d1:	d3 fe                	sar    %cl,%esi
    92d3:	89 f0                	mov    %esi,%eax
    92d5:	39 c2                	cmp    %eax,%edx
    92d7:	7f 0f                	jg     92e8 <safe_lshift_func_int8_t_s_s+0x47>
    92d9:	0f be 55 fc          	movsbl -0x4(%rbp),%edx
    92dd:	8b 45 f8             	mov    -0x8(%rbp),%eax
    92e0:	89 c1                	mov    %eax,%ecx
    92e2:	d3 e2                	shl    %cl,%edx
    92e4:	89 d0                	mov    %edx,%eax
    92e6:	eb 04                	jmp    92ec <safe_lshift_func_int8_t_s_s+0x4b>
    92e8:	0f b6 45 fc          	movzbl -0x4(%rbp),%eax
    92ec:	5d                   	pop    %rbp
    92ed:	c3                   	retq   

00000000000092ee <safe_lshift_func_int8_t_s_u>:
    92ee:	f3 0f 1e fa          	endbr64 
    92f2:	55                   	push   %rbp
    92f3:	48 89 e5             	mov    %rsp,%rbp
    92f6:	89 f8                	mov    %edi,%eax
    92f8:	89 75 f8             	mov    %esi,-0x8(%rbp)
    92fb:	88 45 fc             	mov    %al,-0x4(%rbp)
    92fe:	80 7d fc 00          	cmpb   $0x0,-0x4(%rbp)
    9302:	78 2b                	js     932f <safe_lshift_func_int8_t_s_u+0x41>
    9304:	83 7d f8 1f          	cmpl   $0x1f,-0x8(%rbp)
    9308:	77 25                	ja     932f <safe_lshift_func_int8_t_s_u+0x41>
    930a:	0f be 55 fc          	movsbl -0x4(%rbp),%edx
    930e:	8b 45 f8             	mov    -0x8(%rbp),%eax
    9311:	be 7f 00 00 00       	mov    $0x7f,%esi
    9316:	89 c1                	mov    %eax,%ecx
    9318:	d3 fe                	sar    %cl,%esi
    931a:	89 f0                	mov    %esi,%eax
    931c:	39 c2                	cmp    %eax,%edx
    931e:	7f 0f                	jg     932f <safe_lshift_func_int8_t_s_u+0x41>
    9320:	0f be 55 fc          	movsbl -0x4(%rbp),%edx
    9324:	8b 45 f8             	mov    -0x8(%rbp),%eax
    9327:	89 c1                	mov    %eax,%ecx
    9329:	d3 e2                	shl    %cl,%edx
    932b:	89 d0                	mov    %edx,%eax
    932d:	eb 04                	jmp    9333 <safe_lshift_func_int8_t_s_u+0x45>
    932f:	0f b6 45 fc          	movzbl -0x4(%rbp),%eax
    9333:	5d                   	pop    %rbp
    9334:	c3                   	retq   

0000000000009335 <safe_rshift_func_int8_t_s_s>:
    9335:	f3 0f 1e fa          	endbr64 
    9339:	55                   	push   %rbp
    933a:	48 89 e5             	mov    %rsp,%rbp
    933d:	89 f8                	mov    %edi,%eax
    933f:	89 75 f8             	mov    %esi,-0x8(%rbp)
    9342:	88 45 fc             	mov    %al,-0x4(%rbp)
    9345:	80 7d fc 00          	cmpb   $0x0,-0x4(%rbp)
    9349:	78 1b                	js     9366 <safe_rshift_func_int8_t_s_s+0x31>
    934b:	83 7d f8 00          	cmpl   $0x0,-0x8(%rbp)
    934f:	78 15                	js     9366 <safe_rshift_func_int8_t_s_s+0x31>
    9351:	83 7d f8 1f          	cmpl   $0x1f,-0x8(%rbp)
    9355:	7f 0f                	jg     9366 <safe_rshift_func_int8_t_s_s+0x31>
    9357:	0f be 55 fc          	movsbl -0x4(%rbp),%edx
    935b:	8b 45 f8             	mov    -0x8(%rbp),%eax
    935e:	89 c1                	mov    %eax,%ecx
    9360:	d3 fa                	sar    %cl,%edx
    9362:	89 d0                	mov    %edx,%eax
    9364:	eb 04                	jmp    936a <safe_rshift_func_int8_t_s_s+0x35>
    9366:	0f b6 45 fc          	movzbl -0x4(%rbp),%eax
    936a:	5d                   	pop    %rbp
    936b:	c3                   	retq   

000000000000936c <safe_rshift_func_int8_t_s_u>:
    936c:	f3 0f 1e fa          	endbr64 
    9370:	55                   	push   %rbp
    9371:	48 89 e5             	mov    %rsp,%rbp
    9374:	89 f8                	mov    %edi,%eax
    9376:	89 75 f8             	mov    %esi,-0x8(%rbp)
    9379:	88 45 fc             	mov    %al,-0x4(%rbp)
    937c:	80 7d fc 00          	cmpb   $0x0,-0x4(%rbp)
    9380:	78 15                	js     9397 <safe_rshift_func_int8_t_s_u+0x2b>
    9382:	83 7d f8 1f          	cmpl   $0x1f,-0x8(%rbp)
    9386:	77 0f                	ja     9397 <safe_rshift_func_int8_t_s_u+0x2b>
    9388:	0f be 55 fc          	movsbl -0x4(%rbp),%edx
    938c:	8b 45 f8             	mov    -0x8(%rbp),%eax
    938f:	89 c1                	mov    %eax,%ecx
    9391:	d3 fa                	sar    %cl,%edx
    9393:	89 d0                	mov    %edx,%eax
    9395:	eb 04                	jmp    939b <safe_rshift_func_int8_t_s_u+0x2f>
    9397:	0f b6 45 fc          	movzbl -0x4(%rbp),%eax
    939b:	5d                   	pop    %rbp
    939c:	c3                   	retq   

000000000000939d <safe_unary_minus_func_int16_t_s>:
    939d:	f3 0f 1e fa          	endbr64 
    93a1:	55                   	push   %rbp
    93a2:	48 89 e5             	mov    %rsp,%rbp
    93a5:	89 f8                	mov    %edi,%eax
    93a7:	66 89 45 fc          	mov    %ax,-0x4(%rbp)
    93ab:	0f b7 45 fc          	movzwl -0x4(%rbp),%eax
    93af:	f7 d8                	neg    %eax
    93b1:	5d                   	pop    %rbp
    93b2:	c3                   	retq   

00000000000093b3 <safe_add_func_int16_t_s_s>:
    93b3:	f3 0f 1e fa          	endbr64 
    93b7:	55                   	push   %rbp
    93b8:	48 89 e5             	mov    %rsp,%rbp
    93bb:	89 fa                	mov    %edi,%edx
    93bd:	89 f0                	mov    %esi,%eax
    93bf:	66 89 55 fc          	mov    %dx,-0x4(%rbp)
    93c3:	66 89 45 f8          	mov    %ax,-0x8(%rbp)
    93c7:	0f b7 55 fc          	movzwl -0x4(%rbp),%edx
    93cb:	0f b7 45 f8          	movzwl -0x8(%rbp),%eax
    93cf:	01 d0                	add    %edx,%eax
    93d1:	5d                   	pop    %rbp
    93d2:	c3                   	retq   

00000000000093d3 <safe_sub_func_int16_t_s_s>:
    93d3:	f3 0f 1e fa          	endbr64 
    93d7:	55                   	push   %rbp
    93d8:	48 89 e5             	mov    %rsp,%rbp
    93db:	89 fa                	mov    %edi,%edx
    93dd:	89 f0                	mov    %esi,%eax
    93df:	66 89 55 fc          	mov    %dx,-0x4(%rbp)
    93e3:	66 89 45 f8          	mov    %ax,-0x8(%rbp)
    93e7:	0f b7 55 fc          	movzwl -0x4(%rbp),%edx
    93eb:	0f b7 45 f8          	movzwl -0x8(%rbp),%eax
    93ef:	29 c2                	sub    %eax,%edx
    93f1:	89 d0                	mov    %edx,%eax
    93f3:	5d                   	pop    %rbp
    93f4:	c3                   	retq   

00000000000093f5 <safe_mul_func_int16_t_s_s>:
    93f5:	f3 0f 1e fa          	endbr64 
    93f9:	55                   	push   %rbp
    93fa:	48 89 e5             	mov    %rsp,%rbp
    93fd:	89 fa                	mov    %edi,%edx
    93ff:	89 f0                	mov    %esi,%eax
    9401:	66 89 55 fc          	mov    %dx,-0x4(%rbp)
    9405:	66 89 45 f8          	mov    %ax,-0x8(%rbp)
    9409:	0f b7 55 fc          	movzwl -0x4(%rbp),%edx
    940d:	0f b7 45 f8          	movzwl -0x8(%rbp),%eax
    9411:	0f af c2             	imul   %edx,%eax
    9414:	5d                   	pop    %rbp
    9415:	c3                   	retq   

0000000000009416 <safe_mod_func_int16_t_s_s>:
    9416:	f3 0f 1e fa          	endbr64 
    941a:	55                   	push   %rbp
    941b:	48 89 e5             	mov    %rsp,%rbp
    941e:	89 fa                	mov    %edi,%edx
    9420:	89 f0                	mov    %esi,%eax
    9422:	66 89 55 fc          	mov    %dx,-0x4(%rbp)
    9426:	66 89 45 f8          	mov    %ax,-0x8(%rbp)
    942a:	66 83 7d f8 00       	cmpw   $0x0,-0x8(%rbp)
    942f:	74 1e                	je     944f <safe_mod_func_int16_t_s_s+0x39>
    9431:	66 81 7d fc 00 80    	cmpw   $0x8000,-0x4(%rbp)
    9437:	75 07                	jne    9440 <safe_mod_func_int16_t_s_s+0x2a>
    9439:	66 83 7d f8 ff       	cmpw   $0xffff,-0x8(%rbp)
    943e:	74 0f                	je     944f <safe_mod_func_int16_t_s_s+0x39>
    9440:	0f bf 45 fc          	movswl -0x4(%rbp),%eax
    9444:	0f bf 4d f8          	movswl -0x8(%rbp),%ecx
    9448:	99                   	cltd   
    9449:	f7 f9                	idiv   %ecx
    944b:	89 d0                	mov    %edx,%eax
    944d:	eb 04                	jmp    9453 <safe_mod_func_int16_t_s_s+0x3d>
    944f:	0f b7 45 fc          	movzwl -0x4(%rbp),%eax
    9453:	5d                   	pop    %rbp
    9454:	c3                   	retq   

0000000000009455 <safe_div_func_int16_t_s_s>:
    9455:	f3 0f 1e fa          	endbr64 
    9459:	55                   	push   %rbp
    945a:	48 89 e5             	mov    %rsp,%rbp
    945d:	89 fa                	mov    %edi,%edx
    945f:	89 f0                	mov    %esi,%eax
    9461:	66 89 55 fc          	mov    %dx,-0x4(%rbp)
    9465:	66 89 45 f8          	mov    %ax,-0x8(%rbp)
    9469:	66 83 7d f8 00       	cmpw   $0x0,-0x8(%rbp)
    946e:	74 1c                	je     948c <safe_div_func_int16_t_s_s+0x37>
    9470:	66 81 7d fc 00 80    	cmpw   $0x8000,-0x4(%rbp)
    9476:	75 07                	jne    947f <safe_div_func_int16_t_s_s+0x2a>
    9478:	66 83 7d f8 ff       	cmpw   $0xffff,-0x8(%rbp)
    947d:	74 0d                	je     948c <safe_div_func_int16_t_s_s+0x37>
    947f:	0f bf 45 fc          	movswl -0x4(%rbp),%eax
    9483:	0f bf 4d f8          	movswl -0x8(%rbp),%ecx
    9487:	99                   	cltd   
    9488:	f7 f9                	idiv   %ecx
    948a:	eb 04                	jmp    9490 <safe_div_func_int16_t_s_s+0x3b>
    948c:	0f b7 45 fc          	movzwl -0x4(%rbp),%eax
    9490:	5d                   	pop    %rbp
    9491:	c3                   	retq   

0000000000009492 <safe_lshift_func_int16_t_s_s>:
    9492:	f3 0f 1e fa          	endbr64 
    9496:	55                   	push   %rbp
    9497:	48 89 e5             	mov    %rsp,%rbp
    949a:	89 f8                	mov    %edi,%eax
    949c:	89 75 f8             	mov    %esi,-0x8(%rbp)
    949f:	66 89 45 fc          	mov    %ax,-0x4(%rbp)
    94a3:	66 83 7d fc 00       	cmpw   $0x0,-0x4(%rbp)
    94a8:	78 31                	js     94db <safe_lshift_func_int16_t_s_s+0x49>
    94aa:	83 7d f8 00          	cmpl   $0x0,-0x8(%rbp)
    94ae:	78 2b                	js     94db <safe_lshift_func_int16_t_s_s+0x49>
    94b0:	83 7d f8 1f          	cmpl   $0x1f,-0x8(%rbp)
    94b4:	7f 25                	jg     94db <safe_lshift_func_int16_t_s_s+0x49>
    94b6:	0f bf 55 fc          	movswl -0x4(%rbp),%edx
    94ba:	8b 45 f8             	mov    -0x8(%rbp),%eax
    94bd:	be ff 7f 00 00       	mov    $0x7fff,%esi
    94c2:	89 c1                	mov    %eax,%ecx
    94c4:	d3 fe                	sar    %cl,%esi
    94c6:	89 f0                	mov    %esi,%eax
    94c8:	39 c2                	cmp    %eax,%edx
    94ca:	7f 0f                	jg     94db <safe_lshift_func_int16_t_s_s+0x49>
    94cc:	0f bf 55 fc          	movswl -0x4(%rbp),%edx
    94d0:	8b 45 f8             	mov    -0x8(%rbp),%eax
    94d3:	89 c1                	mov    %eax,%ecx
    94d5:	d3 e2                	shl    %cl,%edx
    94d7:	89 d0                	mov    %edx,%eax
    94d9:	eb 04                	jmp    94df <safe_lshift_func_int16_t_s_s+0x4d>
    94db:	0f b7 45 fc          	movzwl -0x4(%rbp),%eax
    94df:	5d                   	pop    %rbp
    94e0:	c3                   	retq   

00000000000094e1 <safe_lshift_func_int16_t_s_u>:
    94e1:	f3 0f 1e fa          	endbr64 
    94e5:	55                   	push   %rbp
    94e6:	48 89 e5             	mov    %rsp,%rbp
    94e9:	89 f8                	mov    %edi,%eax
    94eb:	89 75 f8             	mov    %esi,-0x8(%rbp)
    94ee:	66 89 45 fc          	mov    %ax,-0x4(%rbp)
    94f2:	66 83 7d fc 00       	cmpw   $0x0,-0x4(%rbp)
    94f7:	78 2b                	js     9524 <safe_lshift_func_int16_t_s_u+0x43>
    94f9:	83 7d f8 1f          	cmpl   $0x1f,-0x8(%rbp)
    94fd:	77 25                	ja     9524 <safe_lshift_func_int16_t_s_u+0x43>
    94ff:	0f bf 55 fc          	movswl -0x4(%rbp),%edx
    9503:	8b 45 f8             	mov    -0x8(%rbp),%eax
    9506:	be ff 7f 00 00       	mov    $0x7fff,%esi
    950b:	89 c1                	mov    %eax,%ecx
    950d:	d3 fe                	sar    %cl,%esi
    950f:	89 f0                	mov    %esi,%eax
    9511:	39 c2                	cmp    %eax,%edx
    9513:	7f 0f                	jg     9524 <safe_lshift_func_int16_t_s_u+0x43>
    9515:	0f bf 55 fc          	movswl -0x4(%rbp),%edx
    9519:	8b 45 f8             	mov    -0x8(%rbp),%eax
    951c:	89 c1                	mov    %eax,%ecx
    951e:	d3 e2                	shl    %cl,%edx
    9520:	89 d0                	mov    %edx,%eax
    9522:	eb 04                	jmp    9528 <safe_lshift_func_int16_t_s_u+0x47>
    9524:	0f b7 45 fc          	movzwl -0x4(%rbp),%eax
    9528:	5d                   	pop    %rbp
    9529:	c3                   	retq   

000000000000952a <safe_rshift_func_int16_t_s_s>:
    952a:	f3 0f 1e fa          	endbr64 
    952e:	55                   	push   %rbp
    952f:	48 89 e5             	mov    %rsp,%rbp
    9532:	89 f8                	mov    %edi,%eax
    9534:	89 75 f8             	mov    %esi,-0x8(%rbp)
    9537:	66 89 45 fc          	mov    %ax,-0x4(%rbp)
    953b:	66 83 7d fc 00       	cmpw   $0x0,-0x4(%rbp)
    9540:	78 1b                	js     955d <safe_rshift_func_int16_t_s_s+0x33>
    9542:	83 7d f8 00          	cmpl   $0x0,-0x8(%rbp)
    9546:	78 15                	js     955d <safe_rshift_func_int16_t_s_s+0x33>
    9548:	83 7d f8 1f          	cmpl   $0x1f,-0x8(%rbp)
    954c:	7f 0f                	jg     955d <safe_rshift_func_int16_t_s_s+0x33>
    954e:	0f bf 55 fc          	movswl -0x4(%rbp),%edx
    9552:	8b 45 f8             	mov    -0x8(%rbp),%eax
    9555:	89 c1                	mov    %eax,%ecx
    9557:	d3 fa                	sar    %cl,%edx
    9559:	89 d0                	mov    %edx,%eax
    955b:	eb 04                	jmp    9561 <safe_rshift_func_int16_t_s_s+0x37>
    955d:	0f b7 45 fc          	movzwl -0x4(%rbp),%eax
    9561:	5d                   	pop    %rbp
    9562:	c3                   	retq   

0000000000009563 <safe_rshift_func_int16_t_s_u>:
    9563:	f3 0f 1e fa          	endbr64 
    9567:	55                   	push   %rbp
    9568:	48 89 e5             	mov    %rsp,%rbp
    956b:	89 f8                	mov    %edi,%eax
    956d:	89 75 f8             	mov    %esi,-0x8(%rbp)
    9570:	66 89 45 fc          	mov    %ax,-0x4(%rbp)
    9574:	66 83 7d fc 00       	cmpw   $0x0,-0x4(%rbp)
    9579:	78 15                	js     9590 <safe_rshift_func_int16_t_s_u+0x2d>
    957b:	83 7d f8 1f          	cmpl   $0x1f,-0x8(%rbp)
    957f:	77 0f                	ja     9590 <safe_rshift_func_int16_t_s_u+0x2d>
    9581:	0f bf 55 fc          	movswl -0x4(%rbp),%edx
    9585:	8b 45 f8             	mov    -0x8(%rbp),%eax
    9588:	89 c1                	mov    %eax,%ecx
    958a:	d3 fa                	sar    %cl,%edx
    958c:	89 d0                	mov    %edx,%eax
    958e:	eb 04                	jmp    9594 <safe_rshift_func_int16_t_s_u+0x31>
    9590:	0f b7 45 fc          	movzwl -0x4(%rbp),%eax
    9594:	5d                   	pop    %rbp
    9595:	c3                   	retq   

0000000000009596 <safe_unary_minus_func_int32_t_s>:
    9596:	f3 0f 1e fa          	endbr64 
    959a:	55                   	push   %rbp
    959b:	48 89 e5             	mov    %rsp,%rbp
    959e:	89 7d fc             	mov    %edi,-0x4(%rbp)
    95a1:	81 7d fc 00 00 00 80 	cmpl   $0x80000000,-0x4(%rbp)
    95a8:	74 07                	je     95b1 <safe_unary_minus_func_int32_t_s+0x1b>
    95aa:	8b 45 fc             	mov    -0x4(%rbp),%eax
    95ad:	f7 d8                	neg    %eax
    95af:	eb 03                	jmp    95b4 <safe_unary_minus_func_int32_t_s+0x1e>
    95b1:	8b 45 fc             	mov    -0x4(%rbp),%eax
    95b4:	5d                   	pop    %rbp
    95b5:	c3                   	retq   

00000000000095b6 <safe_add_func_int32_t_s_s>:
    95b6:	f3 0f 1e fa          	endbr64 
    95ba:	55                   	push   %rbp
    95bb:	48 89 e5             	mov    %rsp,%rbp
    95be:	89 7d fc             	mov    %edi,-0x4(%rbp)
    95c1:	89 75 f8             	mov    %esi,-0x8(%rbp)
    95c4:	83 7d fc 00          	cmpl   $0x0,-0x4(%rbp)
    95c8:	7e 13                	jle    95dd <safe_add_func_int32_t_s_s+0x27>
    95ca:	83 7d f8 00          	cmpl   $0x0,-0x8(%rbp)
    95ce:	7e 0d                	jle    95dd <safe_add_func_int32_t_s_s+0x27>
    95d0:	b8 ff ff ff 7f       	mov    $0x7fffffff,%eax
    95d5:	2b 45 f8             	sub    -0x8(%rbp),%eax
    95d8:	39 45 fc             	cmp    %eax,-0x4(%rbp)
    95db:	7f 23                	jg     9600 <safe_add_func_int32_t_s_s+0x4a>
    95dd:	83 7d fc 00          	cmpl   $0x0,-0x4(%rbp)
    95e1:	79 13                	jns    95f6 <safe_add_func_int32_t_s_s+0x40>
    95e3:	83 7d f8 00          	cmpl   $0x0,-0x8(%rbp)
    95e7:	79 0d                	jns    95f6 <safe_add_func_int32_t_s_s+0x40>
    95e9:	b8 00 00 00 80       	mov    $0x80000000,%eax
    95ee:	2b 45 f8             	sub    -0x8(%rbp),%eax
    95f1:	39 45 fc             	cmp    %eax,-0x4(%rbp)
    95f4:	7c 0a                	jl     9600 <safe_add_func_int32_t_s_s+0x4a>
    95f6:	8b 55 fc             	mov    -0x4(%rbp),%edx
    95f9:	8b 45 f8             	mov    -0x8(%rbp),%eax
    95fc:	01 d0                	add    %edx,%eax
    95fe:	eb 03                	jmp    9603 <safe_add_func_int32_t_s_s+0x4d>
    9600:	8b 45 fc             	mov    -0x4(%rbp),%eax
    9603:	5d                   	pop    %rbp
    9604:	c3                   	retq   

0000000000009605 <safe_sub_func_int32_t_s_s>:
    9605:	f3 0f 1e fa          	endbr64 
    9609:	55                   	push   %rbp
    960a:	48 89 e5             	mov    %rsp,%rbp
    960d:	89 7d fc             	mov    %edi,-0x4(%rbp)
    9610:	89 75 f8             	mov    %esi,-0x8(%rbp)
    9613:	8b 45 fc             	mov    -0x4(%rbp),%eax
    9616:	33 45 f8             	xor    -0x8(%rbp),%eax
    9619:	89 c2                	mov    %eax,%edx
    961b:	8b 45 fc             	mov    -0x4(%rbp),%eax
    961e:	33 45 f8             	xor    -0x8(%rbp),%eax
    9621:	25 00 00 00 80       	and    $0x80000000,%eax
    9626:	33 45 fc             	xor    -0x4(%rbp),%eax
    9629:	2b 45 f8             	sub    -0x8(%rbp),%eax
    962c:	33 45 f8             	xor    -0x8(%rbp),%eax
    962f:	21 d0                	and    %edx,%eax
    9631:	85 c0                	test   %eax,%eax
    9633:	78 08                	js     963d <safe_sub_func_int32_t_s_s+0x38>
    9635:	8b 45 fc             	mov    -0x4(%rbp),%eax
    9638:	2b 45 f8             	sub    -0x8(%rbp),%eax
    963b:	eb 03                	jmp    9640 <safe_sub_func_int32_t_s_s+0x3b>
    963d:	8b 45 fc             	mov    -0x4(%rbp),%eax
    9640:	5d                   	pop    %rbp
    9641:	c3                   	retq   

0000000000009642 <safe_mul_func_int32_t_s_s>:
    9642:	f3 0f 1e fa          	endbr64 
    9646:	55                   	push   %rbp
    9647:	48 89 e5             	mov    %rsp,%rbp
    964a:	89 7d fc             	mov    %edi,-0x4(%rbp)
    964d:	89 75 f8             	mov    %esi,-0x8(%rbp)
    9650:	83 7d fc 00          	cmpl   $0x0,-0x4(%rbp)
    9654:	7e 14                	jle    966a <safe_mul_func_int32_t_s_s+0x28>
    9656:	83 7d f8 00          	cmpl   $0x0,-0x8(%rbp)
    965a:	7e 0e                	jle    966a <safe_mul_func_int32_t_s_s+0x28>
    965c:	b8 ff ff ff 7f       	mov    $0x7fffffff,%eax
    9661:	99                   	cltd   
    9662:	f7 7d f8             	idivl  -0x8(%rbp)
    9665:	39 45 fc             	cmp    %eax,-0x4(%rbp)
    9668:	7f 5d                	jg     96c7 <safe_mul_func_int32_t_s_s+0x85>
    966a:	83 7d fc 00          	cmpl   $0x0,-0x4(%rbp)
    966e:	7e 14                	jle    9684 <safe_mul_func_int32_t_s_s+0x42>
    9670:	83 7d f8 00          	cmpl   $0x0,-0x8(%rbp)
    9674:	7f 0e                	jg     9684 <safe_mul_func_int32_t_s_s+0x42>
    9676:	b8 00 00 00 80       	mov    $0x80000000,%eax
    967b:	99                   	cltd   
    967c:	f7 7d fc             	idivl  -0x4(%rbp)
    967f:	39 45 f8             	cmp    %eax,-0x8(%rbp)
    9682:	7c 43                	jl     96c7 <safe_mul_func_int32_t_s_s+0x85>
    9684:	83 7d fc 00          	cmpl   $0x0,-0x4(%rbp)
    9688:	7f 14                	jg     969e <safe_mul_func_int32_t_s_s+0x5c>
    968a:	83 7d f8 00          	cmpl   $0x0,-0x8(%rbp)
    968e:	7e 0e                	jle    969e <safe_mul_func_int32_t_s_s+0x5c>
    9690:	b8 00 00 00 80       	mov    $0x80000000,%eax
    9695:	99                   	cltd   
    9696:	f7 7d f8             	idivl  -0x8(%rbp)
    9699:	39 45 fc             	cmp    %eax,-0x4(%rbp)
    969c:	7c 29                	jl     96c7 <safe_mul_func_int32_t_s_s+0x85>
    969e:	83 7d fc 00          	cmpl   $0x0,-0x4(%rbp)
    96a2:	7f 1a                	jg     96be <safe_mul_func_int32_t_s_s+0x7c>
    96a4:	83 7d f8 00          	cmpl   $0x0,-0x8(%rbp)
    96a8:	7f 14                	jg     96be <safe_mul_func_int32_t_s_s+0x7c>
    96aa:	83 7d fc 00          	cmpl   $0x0,-0x4(%rbp)
    96ae:	74 0e                	je     96be <safe_mul_func_int32_t_s_s+0x7c>
    96b0:	b8 ff ff ff 7f       	mov    $0x7fffffff,%eax
    96b5:	99                   	cltd   
    96b6:	f7 7d fc             	idivl  -0x4(%rbp)
    96b9:	39 45 f8             	cmp    %eax,-0x8(%rbp)
    96bc:	7c 09                	jl     96c7 <safe_mul_func_int32_t_s_s+0x85>
    96be:	8b 45 fc             	mov    -0x4(%rbp),%eax
    96c1:	0f af 45 f8          	imul   -0x8(%rbp),%eax
    96c5:	eb 03                	jmp    96ca <safe_mul_func_int32_t_s_s+0x88>
    96c7:	8b 45 fc             	mov    -0x4(%rbp),%eax
    96ca:	5d                   	pop    %rbp
    96cb:	c3                   	retq   

00000000000096cc <safe_mod_func_int32_t_s_s>:
    96cc:	f3 0f 1e fa          	endbr64 
    96d0:	55                   	push   %rbp
    96d1:	48 89 e5             	mov    %rsp,%rbp
    96d4:	89 7d fc             	mov    %edi,-0x4(%rbp)
    96d7:	89 75 f8             	mov    %esi,-0x8(%rbp)
    96da:	83 7d f8 00          	cmpl   $0x0,-0x8(%rbp)
    96de:	74 1a                	je     96fa <safe_mod_func_int32_t_s_s+0x2e>
    96e0:	81 7d fc 00 00 00 80 	cmpl   $0x80000000,-0x4(%rbp)
    96e7:	75 06                	jne    96ef <safe_mod_func_int32_t_s_s+0x23>
    96e9:	83 7d f8 ff          	cmpl   $0xffffffff,-0x8(%rbp)
    96ed:	74 0b                	je     96fa <safe_mod_func_int32_t_s_s+0x2e>
    96ef:	8b 45 fc             	mov    -0x4(%rbp),%eax
    96f2:	99                   	cltd   
    96f3:	f7 7d f8             	idivl  -0x8(%rbp)
    96f6:	89 d0                	mov    %edx,%eax
    96f8:	eb 03                	jmp    96fd <safe_mod_func_int32_t_s_s+0x31>
    96fa:	8b 45 fc             	mov    -0x4(%rbp),%eax
    96fd:	5d                   	pop    %rbp
    96fe:	c3                   	retq   

00000000000096ff <safe_div_func_int32_t_s_s>:
    96ff:	f3 0f 1e fa          	endbr64 
    9703:	55                   	push   %rbp
    9704:	48 89 e5             	mov    %rsp,%rbp
    9707:	89 7d fc             	mov    %edi,-0x4(%rbp)
    970a:	89 75 f8             	mov    %esi,-0x8(%rbp)
    970d:	83 7d f8 00          	cmpl   $0x0,-0x8(%rbp)
    9711:	74 18                	je     972b <safe_div_func_int32_t_s_s+0x2c>
    9713:	81 7d fc 00 00 00 80 	cmpl   $0x80000000,-0x4(%rbp)
    971a:	75 06                	jne    9722 <safe_div_func_int32_t_s_s+0x23>
    971c:	83 7d f8 ff          	cmpl   $0xffffffff,-0x8(%rbp)
    9720:	74 09                	je     972b <safe_div_func_int32_t_s_s+0x2c>
    9722:	8b 45 fc             	mov    -0x4(%rbp),%eax
    9725:	99                   	cltd   
    9726:	f7 7d f8             	idivl  -0x8(%rbp)
    9729:	eb 03                	jmp    972e <safe_div_func_int32_t_s_s+0x2f>
    972b:	8b 45 fc             	mov    -0x4(%rbp),%eax
    972e:	5d                   	pop    %rbp
    972f:	c3                   	retq   

0000000000009730 <safe_lshift_func_int32_t_s_s>:
    9730:	f3 0f 1e fa          	endbr64 
    9734:	55                   	push   %rbp
    9735:	48 89 e5             	mov    %rsp,%rbp
    9738:	89 7d fc             	mov    %edi,-0x4(%rbp)
    973b:	89 75 f8             	mov    %esi,-0x8(%rbp)
    973e:	83 7d fc 00          	cmpl   $0x0,-0x4(%rbp)
    9742:	78 2d                	js     9771 <safe_lshift_func_int32_t_s_s+0x41>
    9744:	83 7d f8 00          	cmpl   $0x0,-0x8(%rbp)
    9748:	78 27                	js     9771 <safe_lshift_func_int32_t_s_s+0x41>
    974a:	83 7d f8 1f          	cmpl   $0x1f,-0x8(%rbp)
    974e:	7f 21                	jg     9771 <safe_lshift_func_int32_t_s_s+0x41>
    9750:	8b 45 f8             	mov    -0x8(%rbp),%eax
    9753:	ba ff ff ff 7f       	mov    $0x7fffffff,%edx
    9758:	89 c1                	mov    %eax,%ecx
    975a:	d3 fa                	sar    %cl,%edx
    975c:	89 d0                	mov    %edx,%eax
    975e:	39 45 fc             	cmp    %eax,-0x4(%rbp)
    9761:	7f 0e                	jg     9771 <safe_lshift_func_int32_t_s_s+0x41>
    9763:	8b 45 f8             	mov    -0x8(%rbp),%eax
    9766:	8b 55 fc             	mov    -0x4(%rbp),%edx
    9769:	89 c1                	mov    %eax,%ecx
    976b:	d3 e2                	shl    %cl,%edx
    976d:	89 d0                	mov    %edx,%eax
    976f:	eb 03                	jmp    9774 <safe_lshift_func_int32_t_s_s+0x44>
    9771:	8b 45 fc             	mov    -0x4(%rbp),%eax
    9774:	5d                   	pop    %rbp
    9775:	c3                   	retq   

0000000000009776 <safe_lshift_func_int32_t_s_u>:
    9776:	f3 0f 1e fa          	endbr64 
    977a:	55                   	push   %rbp
    977b:	48 89 e5             	mov    %rsp,%rbp
    977e:	89 7d fc             	mov    %edi,-0x4(%rbp)
    9781:	89 75 f8             	mov    %esi,-0x8(%rbp)
    9784:	83 7d fc 00          	cmpl   $0x0,-0x4(%rbp)
    9788:	78 27                	js     97b1 <safe_lshift_func_int32_t_s_u+0x3b>
    978a:	83 7d f8 1f          	cmpl   $0x1f,-0x8(%rbp)
    978e:	77 21                	ja     97b1 <safe_lshift_func_int32_t_s_u+0x3b>
    9790:	8b 45 f8             	mov    -0x8(%rbp),%eax
    9793:	ba ff ff ff 7f       	mov    $0x7fffffff,%edx
    9798:	89 c1                	mov    %eax,%ecx
    979a:	d3 fa                	sar    %cl,%edx
    979c:	89 d0                	mov    %edx,%eax
    979e:	39 45 fc             	cmp    %eax,-0x4(%rbp)
    97a1:	7f 0e                	jg     97b1 <safe_lshift_func_int32_t_s_u+0x3b>
    97a3:	8b 45 f8             	mov    -0x8(%rbp),%eax
    97a6:	8b 55 fc             	mov    -0x4(%rbp),%edx
    97a9:	89 c1                	mov    %eax,%ecx
    97ab:	d3 e2                	shl    %cl,%edx
    97ad:	89 d0                	mov    %edx,%eax
    97af:	eb 03                	jmp    97b4 <safe_lshift_func_int32_t_s_u+0x3e>
    97b1:	8b 45 fc             	mov    -0x4(%rbp),%eax
    97b4:	5d                   	pop    %rbp
    97b5:	c3                   	retq   

00000000000097b6 <safe_rshift_func_int32_t_s_s>:
    97b6:	f3 0f 1e fa          	endbr64 
    97ba:	55                   	push   %rbp
    97bb:	48 89 e5             	mov    %rsp,%rbp
    97be:	89 7d fc             	mov    %edi,-0x4(%rbp)
    97c1:	89 75 f8             	mov    %esi,-0x8(%rbp)
    97c4:	83 7d fc 00          	cmpl   $0x0,-0x4(%rbp)
    97c8:	78 1a                	js     97e4 <safe_rshift_func_int32_t_s_s+0x2e>
    97ca:	83 7d f8 00          	cmpl   $0x0,-0x8(%rbp)
    97ce:	78 14                	js     97e4 <safe_rshift_func_int32_t_s_s+0x2e>
    97d0:	83 7d f8 1f          	cmpl   $0x1f,-0x8(%rbp)
    97d4:	7f 0e                	jg     97e4 <safe_rshift_func_int32_t_s_s+0x2e>
    97d6:	8b 45 f8             	mov    -0x8(%rbp),%eax
    97d9:	8b 55 fc             	mov    -0x4(%rbp),%edx
    97dc:	89 c1                	mov    %eax,%ecx
    97de:	d3 fa                	sar    %cl,%edx
    97e0:	89 d0                	mov    %edx,%eax
    97e2:	eb 03                	jmp    97e7 <safe_rshift_func_int32_t_s_s+0x31>
    97e4:	8b 45 fc             	mov    -0x4(%rbp),%eax
    97e7:	5d                   	pop    %rbp
    97e8:	c3                   	retq   

00000000000097e9 <safe_rshift_func_int32_t_s_u>:
    97e9:	f3 0f 1e fa          	endbr64 
    97ed:	55                   	push   %rbp
    97ee:	48 89 e5             	mov    %rsp,%rbp
    97f1:	89 7d fc             	mov    %edi,-0x4(%rbp)
    97f4:	89 75 f8             	mov    %esi,-0x8(%rbp)
    97f7:	83 7d fc 00          	cmpl   $0x0,-0x4(%rbp)
    97fb:	78 14                	js     9811 <safe_rshift_func_int32_t_s_u+0x28>
    97fd:	83 7d f8 1f          	cmpl   $0x1f,-0x8(%rbp)
    9801:	77 0e                	ja     9811 <safe_rshift_func_int32_t_s_u+0x28>
    9803:	8b 45 f8             	mov    -0x8(%rbp),%eax
    9806:	8b 55 fc             	mov    -0x4(%rbp),%edx
    9809:	89 c1                	mov    %eax,%ecx
    980b:	d3 fa                	sar    %cl,%edx
    980d:	89 d0                	mov    %edx,%eax
    980f:	eb 03                	jmp    9814 <safe_rshift_func_int32_t_s_u+0x2b>
    9811:	8b 45 fc             	mov    -0x4(%rbp),%eax
    9814:	5d                   	pop    %rbp
    9815:	c3                   	retq   

0000000000009816 <safe_unary_minus_func_int64_t_s>:
    9816:	f3 0f 1e fa          	endbr64 
    981a:	55                   	push   %rbp
    981b:	48 89 e5             	mov    %rsp,%rbp
    981e:	48 89 7d f8          	mov    %rdi,-0x8(%rbp)
    9822:	48 b8 00 00 00 00 00 	movabs $0x8000000000000000,%rax
    9829:	00 00 80 
    982c:	48 39 45 f8          	cmp    %rax,-0x8(%rbp)
    9830:	74 09                	je     983b <safe_unary_minus_func_int64_t_s+0x25>
    9832:	48 8b 45 f8          	mov    -0x8(%rbp),%rax
    9836:	48 f7 d8             	neg    %rax
    9839:	eb 04                	jmp    983f <safe_unary_minus_func_int64_t_s+0x29>
    983b:	48 8b 45 f8          	mov    -0x8(%rbp),%rax
    983f:	5d                   	pop    %rbp
    9840:	c3                   	retq   

0000000000009841 <safe_add_func_int64_t_s_s>:
    9841:	f3 0f 1e fa          	endbr64 
    9845:	55                   	push   %rbp
    9846:	48 89 e5             	mov    %rsp,%rbp
    9849:	48 89 7d f8          	mov    %rdi,-0x8(%rbp)
    984d:	48 89 75 f0          	mov    %rsi,-0x10(%rbp)
    9851:	48 83 7d f8 00       	cmpq   $0x0,-0x8(%rbp)
    9856:	7e 1b                	jle    9873 <safe_add_func_int64_t_s_s+0x32>
    9858:	48 83 7d f0 00       	cmpq   $0x0,-0x10(%rbp)
    985d:	7e 14                	jle    9873 <safe_add_func_int64_t_s_s+0x32>
    985f:	48 b8 ff ff ff ff ff 	movabs $0x7fffffffffffffff,%rax
    9866:	ff ff 7f 
    9869:	48 2b 45 f0          	sub    -0x10(%rbp),%rax
    986d:	48 39 45 f8          	cmp    %rax,-0x8(%rbp)
    9871:	7f 2f                	jg     98a2 <safe_add_func_int64_t_s_s+0x61>
    9873:	48 83 7d f8 00       	cmpq   $0x0,-0x8(%rbp)
    9878:	79 1b                	jns    9895 <safe_add_func_int64_t_s_s+0x54>
    987a:	48 83 7d f0 00       	cmpq   $0x0,-0x10(%rbp)
    987f:	79 14                	jns    9895 <safe_add_func_int64_t_s_s+0x54>
    9881:	48 b8 00 00 00 00 00 	movabs $0x8000000000000000,%rax
    9888:	00 00 80 
    988b:	48 2b 45 f0          	sub    -0x10(%rbp),%rax
    988f:	48 39 45 f8          	cmp    %rax,-0x8(%rbp)
    9893:	7c 0d                	jl     98a2 <safe_add_func_int64_t_s_s+0x61>
    9895:	48 8b 55 f8          	mov    -0x8(%rbp),%rdx
    9899:	48 8b 45 f0          	mov    -0x10(%rbp),%rax
    989d:	48 01 d0             	add    %rdx,%rax
    98a0:	eb 04                	jmp    98a6 <safe_add_func_int64_t_s_s+0x65>
    98a2:	48 8b 45 f8          	mov    -0x8(%rbp),%rax
    98a6:	5d                   	pop    %rbp
    98a7:	c3                   	retq   

00000000000098a8 <safe_sub_func_int64_t_s_s>:
    98a8:	f3 0f 1e fa          	endbr64 
    98ac:	55                   	push   %rbp
    98ad:	48 89 e5             	mov    %rsp,%rbp
    98b0:	48 89 7d f8          	mov    %rdi,-0x8(%rbp)
    98b4:	48 89 75 f0          	mov    %rsi,-0x10(%rbp)
    98b8:	48 8b 45 f8          	mov    -0x8(%rbp),%rax
    98bc:	48 33 45 f0          	xor    -0x10(%rbp),%rax
    98c0:	48 89 c2             	mov    %rax,%rdx
    98c3:	48 8b 45 f8          	mov    -0x8(%rbp),%rax
    98c7:	48 33 45 f0          	xor    -0x10(%rbp),%rax
    98cb:	48 b9 00 00 00 00 00 	movabs $0x8000000000000000,%rcx
    98d2:	00 00 80 
    98d5:	48 21 c8             	and    %rcx,%rax
    98d8:	48 33 45 f8          	xor    -0x8(%rbp),%rax
    98dc:	48 2b 45 f0          	sub    -0x10(%rbp),%rax
    98e0:	48 33 45 f0          	xor    -0x10(%rbp),%rax
    98e4:	48 21 d0             	and    %rdx,%rax
    98e7:	48 85 c0             	test   %rax,%rax
    98ea:	78 0a                	js     98f6 <safe_sub_func_int64_t_s_s+0x4e>
    98ec:	48 8b 45 f8          	mov    -0x8(%rbp),%rax
    98f0:	48 2b 45 f0          	sub    -0x10(%rbp),%rax
    98f4:	eb 04                	jmp    98fa <safe_sub_func_int64_t_s_s+0x52>
    98f6:	48 8b 45 f8          	mov    -0x8(%rbp),%rax
    98fa:	5d                   	pop    %rbp
    98fb:	c3                   	retq   

00000000000098fc <safe_mul_func_int64_t_s_s>:
    98fc:	f3 0f 1e fa          	endbr64 
    9900:	55                   	push   %rbp
    9901:	48 89 e5             	mov    %rsp,%rbp
    9904:	48 89 7d f8          	mov    %rdi,-0x8(%rbp)
    9908:	48 89 75 f0          	mov    %rsi,-0x10(%rbp)
    990c:	48 83 7d f8 00       	cmpq   $0x0,-0x8(%rbp)
    9911:	7e 1d                	jle    9930 <safe_mul_func_int64_t_s_s+0x34>
    9913:	48 83 7d f0 00       	cmpq   $0x0,-0x10(%rbp)
    9918:	7e 16                	jle    9930 <safe_mul_func_int64_t_s_s+0x34>
    991a:	48 b8 ff ff ff ff ff 	movabs $0x7fffffffffffffff,%rax
    9921:	ff ff 7f 
    9924:	48 99                	cqto   
    9926:	48 f7 7d f0          	idivq  -0x10(%rbp)
    992a:	48 39 45 f8          	cmp    %rax,-0x8(%rbp)
    992e:	7f 7e                	jg     99ae <safe_mul_func_int64_t_s_s+0xb2>
    9930:	48 83 7d f8 00       	cmpq   $0x0,-0x8(%rbp)
    9935:	7e 1d                	jle    9954 <safe_mul_func_int64_t_s_s+0x58>
    9937:	48 83 7d f0 00       	cmpq   $0x0,-0x10(%rbp)
    993c:	7f 16                	jg     9954 <safe_mul_func_int64_t_s_s+0x58>
    993e:	48 b8 00 00 00 00 00 	movabs $0x8000000000000000,%rax
    9945:	00 00 80 
    9948:	48 99                	cqto   
    994a:	48 f7 7d f8          	idivq  -0x8(%rbp)
    994e:	48 39 45 f0          	cmp    %rax,-0x10(%rbp)
    9952:	7c 5a                	jl     99ae <safe_mul_func_int64_t_s_s+0xb2>
    9954:	48 83 7d f8 00       	cmpq   $0x0,-0x8(%rbp)
    9959:	7f 1d                	jg     9978 <safe_mul_func_int64_t_s_s+0x7c>
    995b:	48 83 7d f0 00       	cmpq   $0x0,-0x10(%rbp)
    9960:	7e 16                	jle    9978 <safe_mul_func_int64_t_s_s+0x7c>
    9962:	48 b8 00 00 00 00 00 	movabs $0x8000000000000000,%rax
    9969:	00 00 80 
    996c:	48 99                	cqto   
    996e:	48 f7 7d f0          	idivq  -0x10(%rbp)
    9972:	48 39 45 f8          	cmp    %rax,-0x8(%rbp)
    9976:	7c 36                	jl     99ae <safe_mul_func_int64_t_s_s+0xb2>
    9978:	48 83 7d f8 00       	cmpq   $0x0,-0x8(%rbp)
    997d:	7f 24                	jg     99a3 <safe_mul_func_int64_t_s_s+0xa7>
    997f:	48 83 7d f0 00       	cmpq   $0x0,-0x10(%rbp)
    9984:	7f 1d                	jg     99a3 <safe_mul_func_int64_t_s_s+0xa7>
    9986:	48 83 7d f8 00       	cmpq   $0x0,-0x8(%rbp)
    998b:	74 16                	je     99a3 <safe_mul_func_int64_t_s_s+0xa7>
    998d:	48 b8 ff ff ff ff ff 	movabs $0x7fffffffffffffff,%rax
    9994:	ff ff 7f 
    9997:	48 99                	cqto   
    9999:	48 f7 7d f8          	idivq  -0x8(%rbp)
    999d:	48 39 45 f0          	cmp    %rax,-0x10(%rbp)
    99a1:	7c 0b                	jl     99ae <safe_mul_func_int64_t_s_s+0xb2>
    99a3:	48 8b 45 f8          	mov    -0x8(%rbp),%rax
    99a7:	48 0f af 45 f0       	imul   -0x10(%rbp),%rax
    99ac:	eb 04                	jmp    99b2 <safe_mul_func_int64_t_s_s+0xb6>
    99ae:	48 8b 45 f8          	mov    -0x8(%rbp),%rax
    99b2:	5d                   	pop    %rbp
    99b3:	c3                   	retq   

00000000000099b4 <safe_mod_func_int64_t_s_s>:
    99b4:	f3 0f 1e fa          	endbr64 
    99b8:	55                   	push   %rbp
    99b9:	48 89 e5             	mov    %rsp,%rbp
    99bc:	48 89 7d f8          	mov    %rdi,-0x8(%rbp)
    99c0:	48 89 75 f0          	mov    %rsi,-0x10(%rbp)
    99c4:	48 83 7d f0 00       	cmpq   $0x0,-0x10(%rbp)
    99c9:	74 26                	je     99f1 <safe_mod_func_int64_t_s_s+0x3d>
    99cb:	48 b8 00 00 00 00 00 	movabs $0x8000000000000000,%rax
    99d2:	00 00 80 
    99d5:	48 39 45 f8          	cmp    %rax,-0x8(%rbp)
    99d9:	75 07                	jne    99e2 <safe_mod_func_int64_t_s_s+0x2e>
    99db:	48 83 7d f0 ff       	cmpq   $0xffffffffffffffff,-0x10(%rbp)
    99e0:	74 0f                	je     99f1 <safe_mod_func_int64_t_s_s+0x3d>
    99e2:	48 8b 45 f8          	mov    -0x8(%rbp),%rax
    99e6:	48 99                	cqto   
    99e8:	48 f7 7d f0          	idivq  -0x10(%rbp)
    99ec:	48 89 d0             	mov    %rdx,%rax
    99ef:	eb 04                	jmp    99f5 <safe_mod_func_int64_t_s_s+0x41>
    99f1:	48 8b 45 f8          	mov    -0x8(%rbp),%rax
    99f5:	5d                   	pop    %rbp
    99f6:	c3                   	retq   

00000000000099f7 <safe_div_func_int64_t_s_s>:
    99f7:	f3 0f 1e fa          	endbr64 
    99fb:	55                   	push   %rbp
    99fc:	48 89 e5             	mov    %rsp,%rbp
    99ff:	48 89 7d f8          	mov    %rdi,-0x8(%rbp)
    9a03:	48 89 75 f0          	mov    %rsi,-0x10(%rbp)
    9a07:	48 83 7d f0 00       	cmpq   $0x0,-0x10(%rbp)
    9a0c:	74 23                	je     9a31 <safe_div_func_int64_t_s_s+0x3a>
    9a0e:	48 b8 00 00 00 00 00 	movabs $0x8000000000000000,%rax
    9a15:	00 00 80 
    9a18:	48 39 45 f8          	cmp    %rax,-0x8(%rbp)
    9a1c:	75 07                	jne    9a25 <safe_div_func_int64_t_s_s+0x2e>
    9a1e:	48 83 7d f0 ff       	cmpq   $0xffffffffffffffff,-0x10(%rbp)
    9a23:	74 0c                	je     9a31 <safe_div_func_int64_t_s_s+0x3a>
    9a25:	48 8b 45 f8          	mov    -0x8(%rbp),%rax
    9a29:	48 99                	cqto   
    9a2b:	48 f7 7d f0          	idivq  -0x10(%rbp)
    9a2f:	eb 04                	jmp    9a35 <safe_div_func_int64_t_s_s+0x3e>
    9a31:	48 8b 45 f8          	mov    -0x8(%rbp),%rax
    9a35:	5d                   	pop    %rbp
    9a36:	c3                   	retq   

0000000000009a37 <safe_lshift_func_int64_t_s_s>:
    9a37:	f3 0f 1e fa          	endbr64 
    9a3b:	55                   	push   %rbp
    9a3c:	48 89 e5             	mov    %rsp,%rbp
    9a3f:	48 89 7d f8          	mov    %rdi,-0x8(%rbp)
    9a43:	89 75 f4             	mov    %esi,-0xc(%rbp)
    9a46:	48 83 7d f8 00       	cmpq   $0x0,-0x8(%rbp)
    9a4b:	78 38                	js     9a85 <safe_lshift_func_int64_t_s_s+0x4e>
    9a4d:	83 7d f4 00          	cmpl   $0x0,-0xc(%rbp)
    9a51:	78 32                	js     9a85 <safe_lshift_func_int64_t_s_s+0x4e>
    9a53:	83 7d f4 1f          	cmpl   $0x1f,-0xc(%rbp)
    9a57:	7f 2c                	jg     9a85 <safe_lshift_func_int64_t_s_s+0x4e>
    9a59:	8b 45 f4             	mov    -0xc(%rbp),%eax
    9a5c:	48 ba ff ff ff ff ff 	movabs $0x7fffffffffffffff,%rdx
    9a63:	ff ff 7f 
    9a66:	89 c1                	mov    %eax,%ecx
    9a68:	48 d3 fa             	sar    %cl,%rdx
    9a6b:	48 89 d0             	mov    %rdx,%rax
    9a6e:	48 39 45 f8          	cmp    %rax,-0x8(%rbp)
    9a72:	7f 11                	jg     9a85 <safe_lshift_func_int64_t_s_s+0x4e>
    9a74:	8b 45 f4             	mov    -0xc(%rbp),%eax
    9a77:	48 8b 55 f8          	mov    -0x8(%rbp),%rdx
    9a7b:	89 c1                	mov    %eax,%ecx
    9a7d:	48 d3 e2             	shl    %cl,%rdx
    9a80:	48 89 d0             	mov    %rdx,%rax
    9a83:	eb 04                	jmp    9a89 <safe_lshift_func_int64_t_s_s+0x52>
    9a85:	48 8b 45 f8          	mov    -0x8(%rbp),%rax
    9a89:	5d                   	pop    %rbp
    9a8a:	c3                   	retq   

0000000000009a8b <safe_lshift_func_int64_t_s_u>:
    9a8b:	f3 0f 1e fa          	endbr64 
    9a8f:	55                   	push   %rbp
    9a90:	48 89 e5             	mov    %rsp,%rbp
    9a93:	48 89 7d f8          	mov    %rdi,-0x8(%rbp)
    9a97:	89 75 f4             	mov    %esi,-0xc(%rbp)
    9a9a:	48 83 7d f8 00       	cmpq   $0x0,-0x8(%rbp)
    9a9f:	78 32                	js     9ad3 <safe_lshift_func_int64_t_s_u+0x48>
    9aa1:	83 7d f4 1f          	cmpl   $0x1f,-0xc(%rbp)
    9aa5:	77 2c                	ja     9ad3 <safe_lshift_func_int64_t_s_u+0x48>
    9aa7:	8b 45 f4             	mov    -0xc(%rbp),%eax
    9aaa:	48 ba ff ff ff ff ff 	movabs $0x7fffffffffffffff,%rdx
    9ab1:	ff ff 7f 
    9ab4:	89 c1                	mov    %eax,%ecx
    9ab6:	48 d3 fa             	sar    %cl,%rdx
    9ab9:	48 89 d0             	mov    %rdx,%rax
    9abc:	48 39 45 f8          	cmp    %rax,-0x8(%rbp)
    9ac0:	7f 11                	jg     9ad3 <safe_lshift_func_int64_t_s_u+0x48>
    9ac2:	8b 45 f4             	mov    -0xc(%rbp),%eax
    9ac5:	48 8b 55 f8          	mov    -0x8(%rbp),%rdx
    9ac9:	89 c1                	mov    %eax,%ecx
    9acb:	48 d3 e2             	shl    %cl,%rdx
    9ace:	48 89 d0             	mov    %rdx,%rax
    9ad1:	eb 04                	jmp    9ad7 <safe_lshift_func_int64_t_s_u+0x4c>
    9ad3:	48 8b 45 f8          	mov    -0x8(%rbp),%rax
    9ad7:	5d                   	pop    %rbp
    9ad8:	c3                   	retq   

0000000000009ad9 <safe_rshift_func_int64_t_s_s>:
    9ad9:	f3 0f 1e fa          	endbr64 
    9add:	55                   	push   %rbp
    9ade:	48 89 e5             	mov    %rsp,%rbp
    9ae1:	48 89 7d f8          	mov    %rdi,-0x8(%rbp)
    9ae5:	89 75 f4             	mov    %esi,-0xc(%rbp)
    9ae8:	48 83 7d f8 00       	cmpq   $0x0,-0x8(%rbp)
    9aed:	78 1d                	js     9b0c <safe_rshift_func_int64_t_s_s+0x33>
    9aef:	83 7d f4 00          	cmpl   $0x0,-0xc(%rbp)
    9af3:	78 17                	js     9b0c <safe_rshift_func_int64_t_s_s+0x33>
    9af5:	83 7d f4 1f          	cmpl   $0x1f,-0xc(%rbp)
    9af9:	7f 11                	jg     9b0c <safe_rshift_func_int64_t_s_s+0x33>
    9afb:	8b 45 f4             	mov    -0xc(%rbp),%eax
    9afe:	48 8b 55 f8          	mov    -0x8(%rbp),%rdx
    9b02:	89 c1                	mov    %eax,%ecx
    9b04:	48 d3 fa             	sar    %cl,%rdx
    9b07:	48 89 d0             	mov    %rdx,%rax
    9b0a:	eb 04                	jmp    9b10 <safe_rshift_func_int64_t_s_s+0x37>
    9b0c:	48 8b 45 f8          	mov    -0x8(%rbp),%rax
    9b10:	5d                   	pop    %rbp
    9b11:	c3                   	retq   

0000000000009b12 <safe_rshift_func_int64_t_s_u>:
    9b12:	f3 0f 1e fa          	endbr64 
    9b16:	55                   	push   %rbp
    9b17:	48 89 e5             	mov    %rsp,%rbp
    9b1a:	48 89 7d f8          	mov    %rdi,-0x8(%rbp)
    9b1e:	89 75 f4             	mov    %esi,-0xc(%rbp)
    9b21:	48 83 7d f8 00       	cmpq   $0x0,-0x8(%rbp)
    9b26:	78 17                	js     9b3f <safe_rshift_func_int64_t_s_u+0x2d>
    9b28:	83 7d f4 1f          	cmpl   $0x1f,-0xc(%rbp)
    9b2c:	77 11                	ja     9b3f <safe_rshift_func_int64_t_s_u+0x2d>
    9b2e:	8b 45 f4             	mov    -0xc(%rbp),%eax
    9b31:	48 8b 55 f8          	mov    -0x8(%rbp),%rdx
    9b35:	89 c1                	mov    %eax,%ecx
    9b37:	48 d3 fa             	sar    %cl,%rdx
    9b3a:	48 89 d0             	mov    %rdx,%rax
    9b3d:	eb 04                	jmp    9b43 <safe_rshift_func_int64_t_s_u+0x31>
    9b3f:	48 8b 45 f8          	mov    -0x8(%rbp),%rax
    9b43:	5d                   	pop    %rbp
    9b44:	c3                   	retq   

0000000000009b45 <safe_unary_minus_func_uint8_t_u>:
    9b45:	f3 0f 1e fa          	endbr64 
    9b49:	55                   	push   %rbp
    9b4a:	48 89 e5             	mov    %rsp,%rbp
    9b4d:	89 f8                	mov    %edi,%eax
    9b4f:	88 45 fc             	mov    %al,-0x4(%rbp)
    9b52:	0f b6 45 fc          	movzbl -0x4(%rbp),%eax
    9b56:	f7 d8                	neg    %eax
    9b58:	5d                   	pop    %rbp
    9b59:	c3                   	retq   

0000000000009b5a <safe_add_func_uint8_t_u_u>:
    9b5a:	f3 0f 1e fa          	endbr64 
    9b5e:	55                   	push   %rbp
    9b5f:	48 89 e5             	mov    %rsp,%rbp
    9b62:	89 fa                	mov    %edi,%edx
    9b64:	89 f0                	mov    %esi,%eax
    9b66:	88 55 fc             	mov    %dl,-0x4(%rbp)
    9b69:	88 45 f8             	mov    %al,-0x8(%rbp)
    9b6c:	0f b6 55 fc          	movzbl -0x4(%rbp),%edx
    9b70:	0f b6 45 f8          	movzbl -0x8(%rbp),%eax
    9b74:	01 d0                	add    %edx,%eax
    9b76:	5d                   	pop    %rbp
    9b77:	c3                   	retq   

0000000000009b78 <safe_sub_func_uint8_t_u_u>:
    9b78:	f3 0f 1e fa          	endbr64 
    9b7c:	55                   	push   %rbp
    9b7d:	48 89 e5             	mov    %rsp,%rbp
    9b80:	89 fa                	mov    %edi,%edx
    9b82:	89 f0                	mov    %esi,%eax
    9b84:	88 55 fc             	mov    %dl,-0x4(%rbp)
    9b87:	88 45 f8             	mov    %al,-0x8(%rbp)
    9b8a:	0f b6 45 fc          	movzbl -0x4(%rbp),%eax
    9b8e:	2a 45 f8             	sub    -0x8(%rbp),%al
    9b91:	5d                   	pop    %rbp
    9b92:	c3                   	retq   

0000000000009b93 <safe_mul_func_uint8_t_u_u>:
    9b93:	f3 0f 1e fa          	endbr64 
    9b97:	55                   	push   %rbp
    9b98:	48 89 e5             	mov    %rsp,%rbp
    9b9b:	89 fa                	mov    %edi,%edx
    9b9d:	89 f0                	mov    %esi,%eax
    9b9f:	88 55 fc             	mov    %dl,-0x4(%rbp)
    9ba2:	88 45 f8             	mov    %al,-0x8(%rbp)
    9ba5:	0f b6 45 fc          	movzbl -0x4(%rbp),%eax
    9ba9:	f6 65 f8             	mulb   -0x8(%rbp)
    9bac:	5d                   	pop    %rbp
    9bad:	c3                   	retq   

0000000000009bae <safe_mod_func_uint8_t_u_u>:
    9bae:	f3 0f 1e fa          	endbr64 
    9bb2:	55                   	push   %rbp
    9bb3:	48 89 e5             	mov    %rsp,%rbp
    9bb6:	89 fa                	mov    %edi,%edx
    9bb8:	89 f0                	mov    %esi,%eax
    9bba:	88 55 fc             	mov    %dl,-0x4(%rbp)
    9bbd:	88 45 f8             	mov    %al,-0x8(%rbp)
    9bc0:	80 7d f8 00          	cmpb   $0x0,-0x8(%rbp)
    9bc4:	74 0f                	je     9bd5 <safe_mod_func_uint8_t_u_u+0x27>
    9bc6:	0f b6 45 fc          	movzbl -0x4(%rbp),%eax
    9bca:	0f b6 c0             	movzbl %al,%eax
    9bcd:	f6 75 f8             	divb   -0x8(%rbp)
    9bd0:	0f b6 c4             	movzbl %ah,%eax
    9bd3:	eb 04                	jmp    9bd9 <safe_mod_func_uint8_t_u_u+0x2b>
    9bd5:	0f b6 45 fc          	movzbl -0x4(%rbp),%eax
    9bd9:	5d                   	pop    %rbp
    9bda:	c3                   	retq   

0000000000009bdb <safe_div_func_uint8_t_u_u>:
    9bdb:	f3 0f 1e fa          	endbr64 
    9bdf:	55                   	push   %rbp
    9be0:	48 89 e5             	mov    %rsp,%rbp
    9be3:	89 fa                	mov    %edi,%edx
    9be5:	89 f0                	mov    %esi,%eax
    9be7:	88 55 fc             	mov    %dl,-0x4(%rbp)
    9bea:	88 45 f8             	mov    %al,-0x8(%rbp)
    9bed:	80 7d f8 00          	cmpb   $0x0,-0x8(%rbp)
    9bf1:	74 0c                	je     9bff <safe_div_func_uint8_t_u_u+0x24>
    9bf3:	0f b6 45 fc          	movzbl -0x4(%rbp),%eax
    9bf7:	0f b6 c0             	movzbl %al,%eax
    9bfa:	f6 75 f8             	divb   -0x8(%rbp)
    9bfd:	eb 04                	jmp    9c03 <safe_div_func_uint8_t_u_u+0x28>
    9bff:	0f b6 45 fc          	movzbl -0x4(%rbp),%eax
    9c03:	5d                   	pop    %rbp
    9c04:	c3                   	retq   

0000000000009c05 <safe_lshift_func_uint8_t_u_s>:
    9c05:	f3 0f 1e fa          	endbr64 
    9c09:	55                   	push   %rbp
    9c0a:	48 89 e5             	mov    %rsp,%rbp
    9c0d:	89 f8                	mov    %edi,%eax
    9c0f:	89 75 f8             	mov    %esi,-0x8(%rbp)
    9c12:	88 45 fc             	mov    %al,-0x4(%rbp)
    9c15:	83 7d f8 00          	cmpl   $0x0,-0x8(%rbp)
    9c19:	78 2b                	js     9c46 <safe_lshift_func_uint8_t_u_s+0x41>
    9c1b:	83 7d f8 1f          	cmpl   $0x1f,-0x8(%rbp)
    9c1f:	7f 25                	jg     9c46 <safe_lshift_func_uint8_t_u_s+0x41>
    9c21:	0f b6 55 fc          	movzbl -0x4(%rbp),%edx
    9c25:	8b 45 f8             	mov    -0x8(%rbp),%eax
    9c28:	be ff 00 00 00       	mov    $0xff,%esi
    9c2d:	89 c1                	mov    %eax,%ecx
    9c2f:	d3 fe                	sar    %cl,%esi
    9c31:	89 f0                	mov    %esi,%eax
    9c33:	39 c2                	cmp    %eax,%edx
    9c35:	7f 0f                	jg     9c46 <safe_lshift_func_uint8_t_u_s+0x41>
    9c37:	0f b6 55 fc          	movzbl -0x4(%rbp),%edx
    9c3b:	8b 45 f8             	mov    -0x8(%rbp),%eax
    9c3e:	89 c1                	mov    %eax,%ecx
    9c40:	d3 e2                	shl    %cl,%edx
    9c42:	89 d0                	mov    %edx,%eax
    9c44:	eb 04                	jmp    9c4a <safe_lshift_func_uint8_t_u_s+0x45>
    9c46:	0f b6 45 fc          	movzbl -0x4(%rbp),%eax
    9c4a:	5d                   	pop    %rbp
    9c4b:	c3                   	retq   

0000000000009c4c <safe_lshift_func_uint8_t_u_u>:
    9c4c:	f3 0f 1e fa          	endbr64 
    9c50:	55                   	push   %rbp
    9c51:	48 89 e5             	mov    %rsp,%rbp
    9c54:	89 f8                	mov    %edi,%eax
    9c56:	89 75 f8             	mov    %esi,-0x8(%rbp)
    9c59:	88 45 fc             	mov    %al,-0x4(%rbp)
    9c5c:	83 7d f8 1f          	cmpl   $0x1f,-0x8(%rbp)
    9c60:	77 25                	ja     9c87 <safe_lshift_func_uint8_t_u_u+0x3b>
    9c62:	0f b6 55 fc          	movzbl -0x4(%rbp),%edx
    9c66:	8b 45 f8             	mov    -0x8(%rbp),%eax
    9c69:	be ff 00 00 00       	mov    $0xff,%esi
    9c6e:	89 c1                	mov    %eax,%ecx
    9c70:	d3 fe                	sar    %cl,%esi
    9c72:	89 f0                	mov    %esi,%eax
    9c74:	39 c2                	cmp    %eax,%edx
    9c76:	7f 0f                	jg     9c87 <safe_lshift_func_uint8_t_u_u+0x3b>
    9c78:	0f b6 55 fc          	movzbl -0x4(%rbp),%edx
    9c7c:	8b 45 f8             	mov    -0x8(%rbp),%eax
    9c7f:	89 c1                	mov    %eax,%ecx
    9c81:	d3 e2                	shl    %cl,%edx
    9c83:	89 d0                	mov    %edx,%eax
    9c85:	eb 04                	jmp    9c8b <safe_lshift_func_uint8_t_u_u+0x3f>
    9c87:	0f b6 45 fc          	movzbl -0x4(%rbp),%eax
    9c8b:	5d                   	pop    %rbp
    9c8c:	c3                   	retq   

0000000000009c8d <safe_rshift_func_uint8_t_u_s>:
    9c8d:	f3 0f 1e fa          	endbr64 
    9c91:	55                   	push   %rbp
    9c92:	48 89 e5             	mov    %rsp,%rbp
    9c95:	89 f8                	mov    %edi,%eax
    9c97:	89 75 f8             	mov    %esi,-0x8(%rbp)
    9c9a:	88 45 fc             	mov    %al,-0x4(%rbp)
    9c9d:	83 7d f8 00          	cmpl   $0x0,-0x8(%rbp)
    9ca1:	78 15                	js     9cb8 <safe_rshift_func_uint8_t_u_s+0x2b>
    9ca3:	83 7d f8 1f          	cmpl   $0x1f,-0x8(%rbp)
    9ca7:	7f 0f                	jg     9cb8 <safe_rshift_func_uint8_t_u_s+0x2b>
    9ca9:	0f b6 55 fc          	movzbl -0x4(%rbp),%edx
    9cad:	8b 45 f8             	mov    -0x8(%rbp),%eax
    9cb0:	89 c1                	mov    %eax,%ecx
    9cb2:	d3 fa                	sar    %cl,%edx
    9cb4:	89 d0                	mov    %edx,%eax
    9cb6:	eb 04                	jmp    9cbc <safe_rshift_func_uint8_t_u_s+0x2f>
    9cb8:	0f b6 45 fc          	movzbl -0x4(%rbp),%eax
    9cbc:	5d                   	pop    %rbp
    9cbd:	c3                   	retq   

0000000000009cbe <safe_rshift_func_uint8_t_u_u>:
    9cbe:	f3 0f 1e fa          	endbr64 
    9cc2:	55                   	push   %rbp
    9cc3:	48 89 e5             	mov    %rsp,%rbp
    9cc6:	89 f8                	mov    %edi,%eax
    9cc8:	89 75 f8             	mov    %esi,-0x8(%rbp)
    9ccb:	88 45 fc             	mov    %al,-0x4(%rbp)
    9cce:	83 7d f8 1f          	cmpl   $0x1f,-0x8(%rbp)
    9cd2:	77 0f                	ja     9ce3 <safe_rshift_func_uint8_t_u_u+0x25>
    9cd4:	0f b6 55 fc          	movzbl -0x4(%rbp),%edx
    9cd8:	8b 45 f8             	mov    -0x8(%rbp),%eax
    9cdb:	89 c1                	mov    %eax,%ecx
    9cdd:	d3 fa                	sar    %cl,%edx
    9cdf:	89 d0                	mov    %edx,%eax
    9ce1:	eb 04                	jmp    9ce7 <safe_rshift_func_uint8_t_u_u+0x29>
    9ce3:	0f b6 45 fc          	movzbl -0x4(%rbp),%eax
    9ce7:	5d                   	pop    %rbp
    9ce8:	c3                   	retq   

0000000000009ce9 <safe_unary_minus_func_uint16_t_u>:
    9ce9:	f3 0f 1e fa          	endbr64 
    9ced:	55                   	push   %rbp
    9cee:	48 89 e5             	mov    %rsp,%rbp
    9cf1:	89 f8                	mov    %edi,%eax
    9cf3:	66 89 45 fc          	mov    %ax,-0x4(%rbp)
    9cf7:	0f b7 45 fc          	movzwl -0x4(%rbp),%eax
    9cfb:	f7 d8                	neg    %eax
    9cfd:	5d                   	pop    %rbp
    9cfe:	c3                   	retq   

0000000000009cff <safe_add_func_uint16_t_u_u>:
    9cff:	f3 0f 1e fa          	endbr64 
    9d03:	55                   	push   %rbp
    9d04:	48 89 e5             	mov    %rsp,%rbp
    9d07:	89 fa                	mov    %edi,%edx
    9d09:	89 f0                	mov    %esi,%eax
    9d0b:	66 89 55 fc          	mov    %dx,-0x4(%rbp)
    9d0f:	66 89 45 f8          	mov    %ax,-0x8(%rbp)
    9d13:	0f b7 55 fc          	movzwl -0x4(%rbp),%edx
    9d17:	0f b7 45 f8          	movzwl -0x8(%rbp),%eax
    9d1b:	01 d0                	add    %edx,%eax
    9d1d:	5d                   	pop    %rbp
    9d1e:	c3                   	retq   

0000000000009d1f <safe_sub_func_uint16_t_u_u>:
    9d1f:	f3 0f 1e fa          	endbr64 
    9d23:	55                   	push   %rbp
    9d24:	48 89 e5             	mov    %rsp,%rbp
    9d27:	89 fa                	mov    %edi,%edx
    9d29:	89 f0                	mov    %esi,%eax
    9d2b:	66 89 55 fc          	mov    %dx,-0x4(%rbp)
    9d2f:	66 89 45 f8          	mov    %ax,-0x8(%rbp)
    9d33:	0f b7 45 fc          	movzwl -0x4(%rbp),%eax
    9d37:	66 2b 45 f8          	sub    -0x8(%rbp),%ax
    9d3b:	5d                   	pop    %rbp
    9d3c:	c3                   	retq   

0000000000009d3d <safe_mul_func_uint16_t_u_u>:
    9d3d:	f3 0f 1e fa          	endbr64 
    9d41:	55                   	push   %rbp
    9d42:	48 89 e5             	mov    %rsp,%rbp
    9d45:	89 fa                	mov    %edi,%edx
    9d47:	89 f0                	mov    %esi,%eax
    9d49:	66 89 55 fc          	mov    %dx,-0x4(%rbp)
    9d4d:	66 89 45 f8          	mov    %ax,-0x8(%rbp)
    9d51:	0f b7 45 fc          	movzwl -0x4(%rbp),%eax
    9d55:	66 0f af 45 f8       	imul   -0x8(%rbp),%ax
    9d5a:	5d                   	pop    %rbp
    9d5b:	c3                   	retq   

0000000000009d5c <safe_mod_func_uint16_t_u_u>:
    9d5c:	f3 0f 1e fa          	endbr64 
    9d60:	55                   	push   %rbp
    9d61:	48 89 e5             	mov    %rsp,%rbp
    9d64:	89 fa                	mov    %edi,%edx
    9d66:	89 f0                	mov    %esi,%eax
    9d68:	66 89 55 fc          	mov    %dx,-0x4(%rbp)
    9d6c:	66 89 45 f8          	mov    %ax,-0x8(%rbp)
    9d70:	66 83 7d f8 00       	cmpw   $0x0,-0x8(%rbp)
    9d75:	74 11                	je     9d88 <safe_mod_func_uint16_t_u_u+0x2c>
    9d77:	0f b7 45 fc          	movzwl -0x4(%rbp),%eax
    9d7b:	ba 00 00 00 00       	mov    $0x0,%edx
    9d80:	66 f7 75 f8          	divw   -0x8(%rbp)
    9d84:	89 d0                	mov    %edx,%eax
    9d86:	eb 04                	jmp    9d8c <safe_mod_func_uint16_t_u_u+0x30>
    9d88:	0f b7 45 fc          	movzwl -0x4(%rbp),%eax
    9d8c:	5d                   	pop    %rbp
    9d8d:	c3                   	retq   

0000000000009d8e <safe_div_func_uint16_t_u_u>:
    9d8e:	f3 0f 1e fa          	endbr64 
    9d92:	55                   	push   %rbp
    9d93:	48 89 e5             	mov    %rsp,%rbp
    9d96:	89 fa                	mov    %edi,%edx
    9d98:	89 f0                	mov    %esi,%eax
    9d9a:	66 89 55 fc          	mov    %dx,-0x4(%rbp)
    9d9e:	66 89 45 f8          	mov    %ax,-0x8(%rbp)
    9da2:	66 83 7d f8 00       	cmpw   $0x0,-0x8(%rbp)
    9da7:	74 0f                	je     9db8 <safe_div_func_uint16_t_u_u+0x2a>
    9da9:	0f b7 45 fc          	movzwl -0x4(%rbp),%eax
    9dad:	ba 00 00 00 00       	mov    $0x0,%edx
    9db2:	66 f7 75 f8          	divw   -0x8(%rbp)
    9db6:	eb 04                	jmp    9dbc <safe_div_func_uint16_t_u_u+0x2e>
    9db8:	0f b7 45 fc          	movzwl -0x4(%rbp),%eax
    9dbc:	5d                   	pop    %rbp
    9dbd:	c3                   	retq   

0000000000009dbe <safe_lshift_func_uint16_t_u_s>:
    9dbe:	f3 0f 1e fa          	endbr64 
    9dc2:	55                   	push   %rbp
    9dc3:	48 89 e5             	mov    %rsp,%rbp
    9dc6:	89 f8                	mov    %edi,%eax
    9dc8:	89 75 f8             	mov    %esi,-0x8(%rbp)
    9dcb:	66 89 45 fc          	mov    %ax,-0x4(%rbp)
    9dcf:	83 7d f8 00          	cmpl   $0x0,-0x8(%rbp)
    9dd3:	78 2b                	js     9e00 <safe_lshift_func_uint16_t_u_s+0x42>
    9dd5:	83 7d f8 1f          	cmpl   $0x1f,-0x8(%rbp)
    9dd9:	7f 25                	jg     9e00 <safe_lshift_func_uint16_t_u_s+0x42>
    9ddb:	0f b7 55 fc          	movzwl -0x4(%rbp),%edx
    9ddf:	8b 45 f8             	mov    -0x8(%rbp),%eax
    9de2:	be ff ff 00 00       	mov    $0xffff,%esi
    9de7:	89 c1                	mov    %eax,%ecx
    9de9:	d3 fe                	sar    %cl,%esi
    9deb:	89 f0                	mov    %esi,%eax
    9ded:	39 c2                	cmp    %eax,%edx
    9def:	7f 0f                	jg     9e00 <safe_lshift_func_uint16_t_u_s+0x42>
    9df1:	0f b7 55 fc          	movzwl -0x4(%rbp),%edx
    9df5:	8b 45 f8             	mov    -0x8(%rbp),%eax
    9df8:	89 c1                	mov    %eax,%ecx
    9dfa:	d3 e2                	shl    %cl,%edx
    9dfc:	89 d0                	mov    %edx,%eax
    9dfe:	eb 04                	jmp    9e04 <safe_lshift_func_uint16_t_u_s+0x46>
    9e00:	0f b7 45 fc          	movzwl -0x4(%rbp),%eax
    9e04:	5d                   	pop    %rbp
    9e05:	c3                   	retq   

0000000000009e06 <safe_lshift_func_uint16_t_u_u>:
    9e06:	f3 0f 1e fa          	endbr64 
    9e0a:	55                   	push   %rbp
    9e0b:	48 89 e5             	mov    %rsp,%rbp
    9e0e:	89 f8                	mov    %edi,%eax
    9e10:	89 75 f8             	mov    %esi,-0x8(%rbp)
    9e13:	66 89 45 fc          	mov    %ax,-0x4(%rbp)
    9e17:	83 7d f8 1f          	cmpl   $0x1f,-0x8(%rbp)
    9e1b:	77 25                	ja     9e42 <safe_lshift_func_uint16_t_u_u+0x3c>
    9e1d:	0f b7 55 fc          	movzwl -0x4(%rbp),%edx
    9e21:	8b 45 f8             	mov    -0x8(%rbp),%eax
    9e24:	be ff ff 00 00       	mov    $0xffff,%esi
    9e29:	89 c1                	mov    %eax,%ecx
    9e2b:	d3 fe                	sar    %cl,%esi
    9e2d:	89 f0                	mov    %esi,%eax
    9e2f:	39 c2                	cmp    %eax,%edx
    9e31:	7f 0f                	jg     9e42 <safe_lshift_func_uint16_t_u_u+0x3c>
    9e33:	0f b7 55 fc          	movzwl -0x4(%rbp),%edx
    9e37:	8b 45 f8             	mov    -0x8(%rbp),%eax
    9e3a:	89 c1                	mov    %eax,%ecx
    9e3c:	d3 e2                	shl    %cl,%edx
    9e3e:	89 d0                	mov    %edx,%eax
    9e40:	eb 04                	jmp    9e46 <safe_lshift_func_uint16_t_u_u+0x40>
    9e42:	0f b7 45 fc          	movzwl -0x4(%rbp),%eax
    9e46:	5d                   	pop    %rbp
    9e47:	c3                   	retq   

0000000000009e48 <safe_rshift_func_uint16_t_u_s>:
    9e48:	f3 0f 1e fa          	endbr64 
    9e4c:	55                   	push   %rbp
    9e4d:	48 89 e5             	mov    %rsp,%rbp
    9e50:	89 f8                	mov    %edi,%eax
    9e52:	89 75 f8             	mov    %esi,-0x8(%rbp)
    9e55:	66 89 45 fc          	mov    %ax,-0x4(%rbp)
    9e59:	83 7d f8 00          	cmpl   $0x0,-0x8(%rbp)
    9e5d:	78 15                	js     9e74 <safe_rshift_func_uint16_t_u_s+0x2c>
    9e5f:	83 7d f8 1f          	cmpl   $0x1f,-0x8(%rbp)
    9e63:	7f 0f                	jg     9e74 <safe_rshift_func_uint16_t_u_s+0x2c>
    9e65:	0f b7 55 fc          	movzwl -0x4(%rbp),%edx
    9e69:	8b 45 f8             	mov    -0x8(%rbp),%eax
    9e6c:	89 c1                	mov    %eax,%ecx
    9e6e:	d3 fa                	sar    %cl,%edx
    9e70:	89 d0                	mov    %edx,%eax
    9e72:	eb 04                	jmp    9e78 <safe_rshift_func_uint16_t_u_s+0x30>
    9e74:	0f b7 45 fc          	movzwl -0x4(%rbp),%eax
    9e78:	5d                   	pop    %rbp
    9e79:	c3                   	retq   

0000000000009e7a <safe_rshift_func_uint16_t_u_u>:
    9e7a:	f3 0f 1e fa          	endbr64 
    9e7e:	55                   	push   %rbp
    9e7f:	48 89 e5             	mov    %rsp,%rbp
    9e82:	89 f8                	mov    %edi,%eax
    9e84:	89 75 f8             	mov    %esi,-0x8(%rbp)
    9e87:	66 89 45 fc          	mov    %ax,-0x4(%rbp)
    9e8b:	83 7d f8 1f          	cmpl   $0x1f,-0x8(%rbp)
    9e8f:	77 0f                	ja     9ea0 <safe_rshift_func_uint16_t_u_u+0x26>
    9e91:	0f b7 55 fc          	movzwl -0x4(%rbp),%edx
    9e95:	8b 45 f8             	mov    -0x8(%rbp),%eax
    9e98:	89 c1                	mov    %eax,%ecx
    9e9a:	d3 fa                	sar    %cl,%edx
    9e9c:	89 d0                	mov    %edx,%eax
    9e9e:	eb 04                	jmp    9ea4 <safe_rshift_func_uint16_t_u_u+0x2a>
    9ea0:	0f b7 45 fc          	movzwl -0x4(%rbp),%eax
    9ea4:	5d                   	pop    %rbp
    9ea5:	c3                   	retq   

0000000000009ea6 <safe_unary_minus_func_uint32_t_u>:
    9ea6:	f3 0f 1e fa          	endbr64 
    9eaa:	55                   	push   %rbp
    9eab:	48 89 e5             	mov    %rsp,%rbp
    9eae:	89 7d fc             	mov    %edi,-0x4(%rbp)
    9eb1:	8b 45 fc             	mov    -0x4(%rbp),%eax
    9eb4:	f7 d8                	neg    %eax
    9eb6:	5d                   	pop    %rbp
    9eb7:	c3                   	retq   

0000000000009eb8 <safe_add_func_uint32_t_u_u>:
    9eb8:	f3 0f 1e fa          	endbr64 
    9ebc:	55                   	push   %rbp
    9ebd:	48 89 e5             	mov    %rsp,%rbp
    9ec0:	89 7d fc             	mov    %edi,-0x4(%rbp)
    9ec3:	89 75 f8             	mov    %esi,-0x8(%rbp)
    9ec6:	8b 55 fc             	mov    -0x4(%rbp),%edx
    9ec9:	8b 45 f8             	mov    -0x8(%rbp),%eax
    9ecc:	01 d0                	add    %edx,%eax
    9ece:	5d                   	pop    %rbp
    9ecf:	c3                   	retq   

0000000000009ed0 <safe_sub_func_uint32_t_u_u>:
    9ed0:	f3 0f 1e fa          	endbr64 
    9ed4:	55                   	push   %rbp
    9ed5:	48 89 e5             	mov    %rsp,%rbp
    9ed8:	89 7d fc             	mov    %edi,-0x4(%rbp)
    9edb:	89 75 f8             	mov    %esi,-0x8(%rbp)
    9ede:	8b 45 fc             	mov    -0x4(%rbp),%eax
    9ee1:	2b 45 f8             	sub    -0x8(%rbp),%eax
    9ee4:	5d                   	pop    %rbp
    9ee5:	c3                   	retq   

0000000000009ee6 <safe_mul_func_uint32_t_u_u>:
    9ee6:	f3 0f 1e fa          	endbr64 
    9eea:	55                   	push   %rbp
    9eeb:	48 89 e5             	mov    %rsp,%rbp
    9eee:	89 7d fc             	mov    %edi,-0x4(%rbp)
    9ef1:	89 75 f8             	mov    %esi,-0x8(%rbp)
    9ef4:	8b 45 fc             	mov    -0x4(%rbp),%eax
    9ef7:	0f af 45 f8          	imul   -0x8(%rbp),%eax
    9efb:	5d                   	pop    %rbp
    9efc:	c3                   	retq   

0000000000009efd <safe_mod_func_uint32_t_u_u>:
    9efd:	f3 0f 1e fa          	endbr64 
    9f01:	55                   	push   %rbp
    9f02:	48 89 e5             	mov    %rsp,%rbp
    9f05:	89 7d fc             	mov    %edi,-0x4(%rbp)
    9f08:	89 75 f8             	mov    %esi,-0x8(%rbp)
    9f0b:	83 7d f8 00          	cmpl   $0x0,-0x8(%rbp)
    9f0f:	74 0f                	je     9f20 <safe_mod_func_uint32_t_u_u+0x23>
    9f11:	8b 45 fc             	mov    -0x4(%rbp),%eax
    9f14:	ba 00 00 00 00       	mov    $0x0,%edx
    9f19:	f7 75 f8             	divl   -0x8(%rbp)
    9f1c:	89 d0                	mov    %edx,%eax
    9f1e:	eb 03                	jmp    9f23 <safe_mod_func_uint32_t_u_u+0x26>
    9f20:	8b 45 fc             	mov    -0x4(%rbp),%eax
    9f23:	5d                   	pop    %rbp
    9f24:	c3                   	retq   

0000000000009f25 <safe_div_func_uint32_t_u_u>:
    9f25:	f3 0f 1e fa          	endbr64 
    9f29:	55                   	push   %rbp
    9f2a:	48 89 e5             	mov    %rsp,%rbp
    9f2d:	89 7d fc             	mov    %edi,-0x4(%rbp)
    9f30:	89 75 f8             	mov    %esi,-0x8(%rbp)
    9f33:	83 7d f8 00          	cmpl   $0x0,-0x8(%rbp)
    9f37:	74 0d                	je     9f46 <safe_div_func_uint32_t_u_u+0x21>
    9f39:	8b 45 fc             	mov    -0x4(%rbp),%eax
    9f3c:	ba 00 00 00 00       	mov    $0x0,%edx
    9f41:	f7 75 f8             	divl   -0x8(%rbp)
    9f44:	eb 03                	jmp    9f49 <safe_div_func_uint32_t_u_u+0x24>
    9f46:	8b 45 fc             	mov    -0x4(%rbp),%eax
    9f49:	5d                   	pop    %rbp
    9f4a:	c3                   	retq   

0000000000009f4b <safe_lshift_func_uint32_t_u_s>:
    9f4b:	f3 0f 1e fa          	endbr64 
    9f4f:	55                   	push   %rbp
    9f50:	48 89 e5             	mov    %rsp,%rbp
    9f53:	89 7d fc             	mov    %edi,-0x4(%rbp)
    9f56:	89 75 f8             	mov    %esi,-0x8(%rbp)
    9f59:	83 7d f8 00          	cmpl   $0x0,-0x8(%rbp)
    9f5d:	78 27                	js     9f86 <safe_lshift_func_uint32_t_u_s+0x3b>
    9f5f:	83 7d f8 1f          	cmpl   $0x1f,-0x8(%rbp)
    9f63:	7f 21                	jg     9f86 <safe_lshift_func_uint32_t_u_s+0x3b>
    9f65:	8b 45 f8             	mov    -0x8(%rbp),%eax
    9f68:	ba ff ff ff ff       	mov    $0xffffffff,%edx
    9f6d:	89 c1                	mov    %eax,%ecx
    9f6f:	d3 ea                	shr    %cl,%edx
    9f71:	89 d0                	mov    %edx,%eax
    9f73:	39 45 fc             	cmp    %eax,-0x4(%rbp)
    9f76:	77 0e                	ja     9f86 <safe_lshift_func_uint32_t_u_s+0x3b>
    9f78:	8b 45 f8             	mov    -0x8(%rbp),%eax
    9f7b:	8b 55 fc             	mov    -0x4(%rbp),%edx
    9f7e:	89 c1                	mov    %eax,%ecx
    9f80:	d3 e2                	shl    %cl,%edx
    9f82:	89 d0                	mov    %edx,%eax
    9f84:	eb 03                	jmp    9f89 <safe_lshift_func_uint32_t_u_s+0x3e>
    9f86:	8b 45 fc             	mov    -0x4(%rbp),%eax
    9f89:	5d                   	pop    %rbp
    9f8a:	c3                   	retq   

0000000000009f8b <safe_lshift_func_uint32_t_u_u>:
    9f8b:	f3 0f 1e fa          	endbr64 
    9f8f:	55                   	push   %rbp
    9f90:	48 89 e5             	mov    %rsp,%rbp
    9f93:	89 7d fc             	mov    %edi,-0x4(%rbp)
    9f96:	89 75 f8             	mov    %esi,-0x8(%rbp)
    9f99:	83 7d f8 1f          	cmpl   $0x1f,-0x8(%rbp)
    9f9d:	77 21                	ja     9fc0 <safe_lshift_func_uint32_t_u_u+0x35>
    9f9f:	8b 45 f8             	mov    -0x8(%rbp),%eax
    9fa2:	ba ff ff ff ff       	mov    $0xffffffff,%edx
    9fa7:	89 c1                	mov    %eax,%ecx
    9fa9:	d3 ea                	shr    %cl,%edx
    9fab:	89 d0                	mov    %edx,%eax
    9fad:	39 45 fc             	cmp    %eax,-0x4(%rbp)
    9fb0:	77 0e                	ja     9fc0 <safe_lshift_func_uint32_t_u_u+0x35>
    9fb2:	8b 45 f8             	mov    -0x8(%rbp),%eax
    9fb5:	8b 55 fc             	mov    -0x4(%rbp),%edx
    9fb8:	89 c1                	mov    %eax,%ecx
    9fba:	d3 e2                	shl    %cl,%edx
    9fbc:	89 d0                	mov    %edx,%eax
    9fbe:	eb 03                	jmp    9fc3 <safe_lshift_func_uint32_t_u_u+0x38>
    9fc0:	8b 45 fc             	mov    -0x4(%rbp),%eax
    9fc3:	5d                   	pop    %rbp
    9fc4:	c3                   	retq   

0000000000009fc5 <safe_rshift_func_uint32_t_u_s>:
    9fc5:	f3 0f 1e fa          	endbr64 
    9fc9:	55                   	push   %rbp
    9fca:	48 89 e5             	mov    %rsp,%rbp
    9fcd:	89 7d fc             	mov    %edi,-0x4(%rbp)
    9fd0:	89 75 f8             	mov    %esi,-0x8(%rbp)
    9fd3:	83 7d f8 00          	cmpl   $0x0,-0x8(%rbp)
    9fd7:	78 14                	js     9fed <safe_rshift_func_uint32_t_u_s+0x28>
    9fd9:	83 7d f8 1f          	cmpl   $0x1f,-0x8(%rbp)
    9fdd:	7f 0e                	jg     9fed <safe_rshift_func_uint32_t_u_s+0x28>
    9fdf:	8b 45 f8             	mov    -0x8(%rbp),%eax
    9fe2:	8b 55 fc             	mov    -0x4(%rbp),%edx
    9fe5:	89 c1                	mov    %eax,%ecx
    9fe7:	d3 ea                	shr    %cl,%edx
    9fe9:	89 d0                	mov    %edx,%eax
    9feb:	eb 03                	jmp    9ff0 <safe_rshift_func_uint32_t_u_s+0x2b>
    9fed:	8b 45 fc             	mov    -0x4(%rbp),%eax
    9ff0:	5d                   	pop    %rbp
    9ff1:	c3                   	retq   

0000000000009ff2 <safe_rshift_func_uint32_t_u_u>:
    9ff2:	f3 0f 1e fa          	endbr64 
    9ff6:	55                   	push   %rbp
    9ff7:	48 89 e5             	mov    %rsp,%rbp
    9ffa:	89 7d fc             	mov    %edi,-0x4(%rbp)
    9ffd:	89 75 f8             	mov    %esi,-0x8(%rbp)
    a000:	83 7d f8 1f          	cmpl   $0x1f,-0x8(%rbp)
    a004:	77 0e                	ja     a014 <safe_rshift_func_uint32_t_u_u+0x22>
    a006:	8b 45 f8             	mov    -0x8(%rbp),%eax
    a009:	8b 55 fc             	mov    -0x4(%rbp),%edx
    a00c:	89 c1                	mov    %eax,%ecx
    a00e:	d3 ea                	shr    %cl,%edx
    a010:	89 d0                	mov    %edx,%eax
    a012:	eb 03                	jmp    a017 <safe_rshift_func_uint32_t_u_u+0x25>
    a014:	8b 45 fc             	mov    -0x4(%rbp),%eax
    a017:	5d                   	pop    %rbp
    a018:	c3                   	retq   

000000000000a019 <safe_unary_minus_func_uint64_t_u>:
    a019:	f3 0f 1e fa          	endbr64 
    a01d:	55                   	push   %rbp
    a01e:	48 89 e5             	mov    %rsp,%rbp
    a021:	48 89 7d f8          	mov    %rdi,-0x8(%rbp)
    a025:	48 8b 45 f8          	mov    -0x8(%rbp),%rax
    a029:	48 f7 d8             	neg    %rax
    a02c:	5d                   	pop    %rbp
    a02d:	c3                   	retq   

000000000000a02e <safe_add_func_uint64_t_u_u>:
    a02e:	f3 0f 1e fa          	endbr64 
    a032:	55                   	push   %rbp
    a033:	48 89 e5             	mov    %rsp,%rbp
    a036:	48 89 7d f8          	mov    %rdi,-0x8(%rbp)
    a03a:	48 89 75 f0          	mov    %rsi,-0x10(%rbp)
    a03e:	48 8b 55 f8          	mov    -0x8(%rbp),%rdx
    a042:	48 8b 45 f0          	mov    -0x10(%rbp),%rax
    a046:	48 01 d0             	add    %rdx,%rax
    a049:	5d                   	pop    %rbp
    a04a:	c3                   	retq   

000000000000a04b <safe_sub_func_uint64_t_u_u>:
    a04b:	f3 0f 1e fa          	endbr64 
    a04f:	55                   	push   %rbp
    a050:	48 89 e5             	mov    %rsp,%rbp
    a053:	48 89 7d f8          	mov    %rdi,-0x8(%rbp)
    a057:	48 89 75 f0          	mov    %rsi,-0x10(%rbp)
    a05b:	48 8b 45 f8          	mov    -0x8(%rbp),%rax
    a05f:	48 2b 45 f0          	sub    -0x10(%rbp),%rax
    a063:	5d                   	pop    %rbp
    a064:	c3                   	retq   

000000000000a065 <safe_mul_func_uint64_t_u_u>:
    a065:	f3 0f 1e fa          	endbr64 
    a069:	55                   	push   %rbp
    a06a:	48 89 e5             	mov    %rsp,%rbp
    a06d:	48 89 7d f8          	mov    %rdi,-0x8(%rbp)
    a071:	48 89 75 f0          	mov    %rsi,-0x10(%rbp)
    a075:	48 8b 45 f8          	mov    -0x8(%rbp),%rax
    a079:	48 0f af 45 f0       	imul   -0x10(%rbp),%rax
    a07e:	5d                   	pop    %rbp
    a07f:	c3                   	retq   

000000000000a080 <safe_mod_func_uint64_t_u_u>:
    a080:	f3 0f 1e fa          	endbr64 
    a084:	55                   	push   %rbp
    a085:	48 89 e5             	mov    %rsp,%rbp
    a088:	48 89 7d f8          	mov    %rdi,-0x8(%rbp)
    a08c:	48 89 75 f0          	mov    %rsi,-0x10(%rbp)
    a090:	48 83 7d f0 00       	cmpq   $0x0,-0x10(%rbp)
    a095:	74 12                	je     a0a9 <safe_mod_func_uint64_t_u_u+0x29>
    a097:	48 8b 45 f8          	mov    -0x8(%rbp),%rax
    a09b:	ba 00 00 00 00       	mov    $0x0,%edx
    a0a0:	48 f7 75 f0          	divq   -0x10(%rbp)
    a0a4:	48 89 d0             	mov    %rdx,%rax
    a0a7:	eb 04                	jmp    a0ad <safe_mod_func_uint64_t_u_u+0x2d>
    a0a9:	48 8b 45 f8          	mov    -0x8(%rbp),%rax
    a0ad:	5d                   	pop    %rbp
    a0ae:	c3                   	retq   

000000000000a0af <safe_div_func_uint64_t_u_u>:
    a0af:	f3 0f 1e fa          	endbr64 
    a0b3:	55                   	push   %rbp
    a0b4:	48 89 e5             	mov    %rsp,%rbp
    a0b7:	48 89 7d f8          	mov    %rdi,-0x8(%rbp)
    a0bb:	48 89 75 f0          	mov    %rsi,-0x10(%rbp)
    a0bf:	48 83 7d f0 00       	cmpq   $0x0,-0x10(%rbp)
    a0c4:	74 0f                	je     a0d5 <safe_div_func_uint64_t_u_u+0x26>
    a0c6:	48 8b 45 f8          	mov    -0x8(%rbp),%rax
    a0ca:	ba 00 00 00 00       	mov    $0x0,%edx
    a0cf:	48 f7 75 f0          	divq   -0x10(%rbp)
    a0d3:	eb 04                	jmp    a0d9 <safe_div_func_uint64_t_u_u+0x2a>
    a0d5:	48 8b 45 f8          	mov    -0x8(%rbp),%rax
    a0d9:	5d                   	pop    %rbp
    a0da:	c3                   	retq   

000000000000a0db <safe_lshift_func_uint64_t_u_s>:
    a0db:	f3 0f 1e fa          	endbr64 
    a0df:	55                   	push   %rbp
    a0e0:	48 89 e5             	mov    %rsp,%rbp
    a0e3:	48 89 7d f8          	mov    %rdi,-0x8(%rbp)
    a0e7:	89 75 f4             	mov    %esi,-0xc(%rbp)
    a0ea:	83 7d f4 00          	cmpl   $0x0,-0xc(%rbp)
    a0ee:	78 2f                	js     a11f <safe_lshift_func_uint64_t_u_s+0x44>
    a0f0:	83 7d f4 1f          	cmpl   $0x1f,-0xc(%rbp)
    a0f4:	7f 29                	jg     a11f <safe_lshift_func_uint64_t_u_s+0x44>
    a0f6:	8b 45 f4             	mov    -0xc(%rbp),%eax
    a0f9:	48 c7 c2 ff ff ff ff 	mov    $0xffffffffffffffff,%rdx
    a100:	89 c1                	mov    %eax,%ecx
    a102:	48 d3 ea             	shr    %cl,%rdx
    a105:	48 89 d0             	mov    %rdx,%rax
    a108:	48 39 45 f8          	cmp    %rax,-0x8(%rbp)
    a10c:	77 11                	ja     a11f <safe_lshift_func_uint64_t_u_s+0x44>
    a10e:	8b 45 f4             	mov    -0xc(%rbp),%eax
    a111:	48 8b 55 f8          	mov    -0x8(%rbp),%rdx
    a115:	89 c1                	mov    %eax,%ecx
    a117:	48 d3 e2             	shl    %cl,%rdx
    a11a:	48 89 d0             	mov    %rdx,%rax
    a11d:	eb 04                	jmp    a123 <safe_lshift_func_uint64_t_u_s+0x48>
    a11f:	48 8b 45 f8          	mov    -0x8(%rbp),%rax
    a123:	5d                   	pop    %rbp
    a124:	c3                   	retq   

000000000000a125 <safe_lshift_func_uint64_t_u_u>:
    a125:	f3 0f 1e fa          	endbr64 
    a129:	55                   	push   %rbp
    a12a:	48 89 e5             	mov    %rsp,%rbp
    a12d:	48 89 7d f8          	mov    %rdi,-0x8(%rbp)
    a131:	89 75 f4             	mov    %esi,-0xc(%rbp)
    a134:	83 7d f4 1f          	cmpl   $0x1f,-0xc(%rbp)
    a138:	77 29                	ja     a163 <safe_lshift_func_uint64_t_u_u+0x3e>
    a13a:	8b 45 f4             	mov    -0xc(%rbp),%eax
    a13d:	48 c7 c2 ff ff ff ff 	mov    $0xffffffffffffffff,%rdx
    a144:	89 c1                	mov    %eax,%ecx
    a146:	48 d3 ea             	shr    %cl,%rdx
    a149:	48 89 d0             	mov    %rdx,%rax
    a14c:	48 39 45 f8          	cmp    %rax,-0x8(%rbp)
    a150:	77 11                	ja     a163 <safe_lshift_func_uint64_t_u_u+0x3e>
    a152:	8b 45 f4             	mov    -0xc(%rbp),%eax
    a155:	48 8b 55 f8          	mov    -0x8(%rbp),%rdx
    a159:	89 c1                	mov    %eax,%ecx
    a15b:	48 d3 e2             	shl    %cl,%rdx
    a15e:	48 89 d0             	mov    %rdx,%rax
    a161:	eb 04                	jmp    a167 <safe_lshift_func_uint64_t_u_u+0x42>
    a163:	48 8b 45 f8          	mov    -0x8(%rbp),%rax
    a167:	5d                   	pop    %rbp
    a168:	c3                   	retq   

000000000000a169 <safe_rshift_func_uint64_t_u_s>:
    a169:	f3 0f 1e fa          	endbr64 
    a16d:	55                   	push   %rbp
    a16e:	48 89 e5             	mov    %rsp,%rbp
    a171:	48 89 7d f8          	mov    %rdi,-0x8(%rbp)
    a175:	89 75 f4             	mov    %esi,-0xc(%rbp)
    a178:	83 7d f4 00          	cmpl   $0x0,-0xc(%rbp)
    a17c:	78 17                	js     a195 <safe_rshift_func_uint64_t_u_s+0x2c>
    a17e:	83 7d f4 1f          	cmpl   $0x1f,-0xc(%rbp)
    a182:	7f 11                	jg     a195 <safe_rshift_func_uint64_t_u_s+0x2c>
    a184:	8b 45 f4             	mov    -0xc(%rbp),%eax
    a187:	48 8b 55 f8          	mov    -0x8(%rbp),%rdx
    a18b:	89 c1                	mov    %eax,%ecx
    a18d:	48 d3 ea             	shr    %cl,%rdx
    a190:	48 89 d0             	mov    %rdx,%rax
    a193:	eb 04                	jmp    a199 <safe_rshift_func_uint64_t_u_s+0x30>
    a195:	48 8b 45 f8          	mov    -0x8(%rbp),%rax
    a199:	5d                   	pop    %rbp
    a19a:	c3                   	retq   

000000000000a19b <safe_rshift_func_uint64_t_u_u>:
    a19b:	f3 0f 1e fa          	endbr64 
    a19f:	55                   	push   %rbp
    a1a0:	48 89 e5             	mov    %rsp,%rbp
    a1a3:	48 89 7d f8          	mov    %rdi,-0x8(%rbp)
    a1a7:	89 75 f4             	mov    %esi,-0xc(%rbp)
    a1aa:	83 7d f4 1f          	cmpl   $0x1f,-0xc(%rbp)
    a1ae:	77 11                	ja     a1c1 <safe_rshift_func_uint64_t_u_u+0x26>
    a1b0:	8b 45 f4             	mov    -0xc(%rbp),%eax
    a1b3:	48 8b 55 f8          	mov    -0x8(%rbp),%rdx
    a1b7:	89 c1                	mov    %eax,%ecx
    a1b9:	48 d3 ea             	shr    %cl,%rdx
    a1bc:	48 89 d0             	mov    %rdx,%rax
    a1bf:	eb 04                	jmp    a1c5 <safe_rshift_func_uint64_t_u_u+0x2a>
    a1c1:	48 8b 45 f8          	mov    -0x8(%rbp),%rax
    a1c5:	5d                   	pop    %rbp
    a1c6:	c3                   	retq   

000000000000a1c7 <safe_add_func_float_f_f>:
    a1c7:	f3 0f 1e fa          	endbr64 
    a1cb:	55                   	push   %rbp
    a1cc:	48 89 e5             	mov    %rsp,%rbp
    a1cf:	f3 0f 11 45 fc       	movss  %xmm0,-0x4(%rbp)
    a1d4:	f3 0f 11 4d f8       	movss  %xmm1,-0x8(%rbp)
    a1d9:	f3 0f 10 4d fc       	movss  -0x4(%rbp),%xmm1
    a1de:	f3 0f 10 05 ea ea 00 	movss  0xeaea(%rip),%xmm0        # 18cd0 <l_363.4781+0x2d0>
    a1e5:	00 
    a1e6:	f3 0f 59 c8          	mulss  %xmm0,%xmm1
    a1ea:	f3 0f 10 55 f8       	movss  -0x8(%rbp),%xmm2
    a1ef:	f3 0f 10 05 d9 ea 00 	movss  0xead9(%rip),%xmm0        # 18cd0 <l_363.4781+0x2d0>
    a1f6:	00 
    a1f7:	f3 0f 59 c2          	mulss  %xmm2,%xmm0
    a1fb:	f3 0f 58 c1          	addss  %xmm1,%xmm0
    a1ff:	f3 0f 10 0d d9 ea 00 	movss  0xead9(%rip),%xmm1        # 18ce0 <l_363.4781+0x2e0>
    a206:	00 
    a207:	0f 54 c1             	andps  %xmm1,%xmm0
    a20a:	0f 2f 05 df ea 00 00 	comiss 0xeadf(%rip),%xmm0        # 18cf0 <l_363.4781+0x2f0>
    a211:	76 07                	jbe    a21a <safe_add_func_float_f_f+0x53>
    a213:	f3 0f 10 45 fc       	movss  -0x4(%rbp),%xmm0
    a218:	eb 0a                	jmp    a224 <safe_add_func_float_f_f+0x5d>
    a21a:	f3 0f 10 45 fc       	movss  -0x4(%rbp),%xmm0
    a21f:	f3 0f 58 45 f8       	addss  -0x8(%rbp),%xmm0
    a224:	5d                   	pop    %rbp
    a225:	c3                   	retq   

000000000000a226 <safe_sub_func_float_f_f>:
    a226:	f3 0f 1e fa          	endbr64 
    a22a:	55                   	push   %rbp
    a22b:	48 89 e5             	mov    %rsp,%rbp
    a22e:	f3 0f 11 45 fc       	movss  %xmm0,-0x4(%rbp)
    a233:	f3 0f 11 4d f8       	movss  %xmm1,-0x8(%rbp)
    a238:	f3 0f 10 4d fc       	movss  -0x4(%rbp),%xmm1
    a23d:	f3 0f 10 05 8b ea 00 	movss  0xea8b(%rip),%xmm0        # 18cd0 <l_363.4781+0x2d0>
    a244:	00 
    a245:	f3 0f 59 c1          	mulss  %xmm1,%xmm0
    a249:	f3 0f 10 55 f8       	movss  -0x8(%rbp),%xmm2
    a24e:	f3 0f 10 0d 7a ea 00 	movss  0xea7a(%rip),%xmm1        # 18cd0 <l_363.4781+0x2d0>
    a255:	00 
    a256:	f3 0f 59 ca          	mulss  %xmm2,%xmm1
    a25a:	f3 0f 5c c1          	subss  %xmm1,%xmm0
    a25e:	f3 0f 10 0d 7a ea 00 	movss  0xea7a(%rip),%xmm1        # 18ce0 <l_363.4781+0x2e0>
    a265:	00 
    a266:	0f 54 c1             	andps  %xmm1,%xmm0
    a269:	0f 2f 05 80 ea 00 00 	comiss 0xea80(%rip),%xmm0        # 18cf0 <l_363.4781+0x2f0>
    a270:	76 07                	jbe    a279 <safe_sub_func_float_f_f+0x53>
    a272:	f3 0f 10 45 fc       	movss  -0x4(%rbp),%xmm0
    a277:	eb 0a                	jmp    a283 <safe_sub_func_float_f_f+0x5d>
    a279:	f3 0f 10 45 fc       	movss  -0x4(%rbp),%xmm0
    a27e:	f3 0f 5c 45 f8       	subss  -0x8(%rbp),%xmm0
    a283:	5d                   	pop    %rbp
    a284:	c3                   	retq   

000000000000a285 <safe_mul_func_float_f_f>:
    a285:	f3 0f 1e fa          	endbr64 
    a289:	55                   	push   %rbp
    a28a:	48 89 e5             	mov    %rsp,%rbp
    a28d:	f3 0f 11 45 fc       	movss  %xmm0,-0x4(%rbp)
    a292:	f3 0f 11 4d f8       	movss  %xmm1,-0x8(%rbp)
    a297:	f3 0f 10 4d fc       	movss  -0x4(%rbp),%xmm1
    a29c:	f3 0f 10 05 50 ea 00 	movss  0xea50(%rip),%xmm0        # 18cf4 <l_363.4781+0x2f4>
    a2a3:	00 
    a2a4:	f3 0f 59 c8          	mulss  %xmm0,%xmm1
    a2a8:	f3 0f 10 55 f8       	movss  -0x8(%rbp),%xmm2
    a2ad:	f3 0f 10 05 43 ea 00 	movss  0xea43(%rip),%xmm0        # 18cf8 <l_363.4781+0x2f8>
    a2b4:	00 
    a2b5:	f3 0f 59 c2          	mulss  %xmm2,%xmm0
    a2b9:	f3 0f 59 c1          	mulss  %xmm1,%xmm0
    a2bd:	f3 0f 10 0d 1b ea 00 	movss  0xea1b(%rip),%xmm1        # 18ce0 <l_363.4781+0x2e0>
    a2c4:	00 
    a2c5:	0f 54 c1             	andps  %xmm1,%xmm0
    a2c8:	0f 2f 05 2d ea 00 00 	comiss 0xea2d(%rip),%xmm0        # 18cfc <l_363.4781+0x2fc>
    a2cf:	76 07                	jbe    a2d8 <safe_mul_func_float_f_f+0x53>
    a2d1:	f3 0f 10 45 fc       	movss  -0x4(%rbp),%xmm0
    a2d6:	eb 0a                	jmp    a2e2 <safe_mul_func_float_f_f+0x5d>
    a2d8:	f3 0f 10 45 fc       	movss  -0x4(%rbp),%xmm0
    a2dd:	f3 0f 59 45 f8       	mulss  -0x8(%rbp),%xmm0
    a2e2:	5d                   	pop    %rbp
    a2e3:	c3                   	retq   

000000000000a2e4 <safe_div_func_float_f_f>:
    a2e4:	f3 0f 1e fa          	endbr64 
    a2e8:	55                   	push   %rbp
    a2e9:	48 89 e5             	mov    %rsp,%rbp
    a2ec:	f3 0f 11 45 fc       	movss  %xmm0,-0x4(%rbp)
    a2f1:	f3 0f 11 4d f8       	movss  %xmm1,-0x8(%rbp)
    a2f6:	f3 0f 10 45 f8       	movss  -0x8(%rbp),%xmm0
    a2fb:	f3 0f 10 0d dd e9 00 	movss  0xe9dd(%rip),%xmm1        # 18ce0 <l_363.4781+0x2e0>
    a302:	00 
    a303:	0f 54 c8             	andps  %xmm0,%xmm1
    a306:	f3 0f 10 05 f2 e9 00 	movss  0xe9f2(%rip),%xmm0        # 18d00 <l_363.4781+0x300>
    a30d:	00 
    a30e:	0f 2f c1             	comiss %xmm1,%xmm0
    a311:	0f 97 c0             	seta   %al
    a314:	83 f0 01             	xor    $0x1,%eax
    a317:	84 c0                	test   %al,%al
    a319:	75 56                	jne    a371 <safe_div_func_float_f_f+0x8d>
    a31b:	66 0f ef c0          	pxor   %xmm0,%xmm0
    a31f:	0f 2e 45 f8          	ucomiss -0x8(%rbp),%xmm0
    a323:	7a 0a                	jp     a32f <safe_div_func_float_f_f+0x4b>
    a325:	66 0f ef c0          	pxor   %xmm0,%xmm0
    a329:	0f 2e 45 f8          	ucomiss -0x8(%rbp),%xmm0
    a32d:	74 4e                	je     a37d <safe_div_func_float_f_f+0x99>
    a32f:	f3 0f 10 4d fc       	movss  -0x4(%rbp),%xmm1
    a334:	f3 0f 10 05 c8 e9 00 	movss  0xe9c8(%rip),%xmm0        # 18d04 <l_363.4781+0x304>
    a33b:	00 
    a33c:	f3 0f 59 c1          	mulss  %xmm1,%xmm0
    a340:	f3 0f 10 55 f8       	movss  -0x8(%rbp),%xmm2
    a345:	f3 0f 10 0d bb e9 00 	movss  0xe9bb(%rip),%xmm1        # 18d08 <l_363.4781+0x308>
    a34c:	00 
    a34d:	f3 0f 59 ca          	mulss  %xmm2,%xmm1
    a351:	f3 0f 5e c1          	divss  %xmm1,%xmm0
    a355:	f3 0f 10 0d 83 e9 00 	movss  0xe983(%rip),%xmm1        # 18ce0 <l_363.4781+0x2e0>
    a35c:	00 
    a35d:	0f 54 c1             	andps  %xmm1,%xmm0
    a360:	0f 2f 05 a5 e9 00 00 	comiss 0xe9a5(%rip),%xmm0        # 18d0c <l_363.4781+0x30c>
    a367:	0f 97 c0             	seta   %al
    a36a:	83 f0 01             	xor    $0x1,%eax
    a36d:	84 c0                	test   %al,%al
    a36f:	74 0c                	je     a37d <safe_div_func_float_f_f+0x99>
    a371:	f3 0f 10 45 fc       	movss  -0x4(%rbp),%xmm0
    a376:	f3 0f 5e 45 f8       	divss  -0x8(%rbp),%xmm0
    a37b:	eb 05                	jmp    a382 <safe_div_func_float_f_f+0x9e>
    a37d:	f3 0f 10 45 fc       	movss  -0x4(%rbp),%xmm0
    a382:	5d                   	pop    %rbp
    a383:	c3                   	retq   

000000000000a384 <safe_add_func_double_f_f>:
    a384:	f3 0f 1e fa          	endbr64 
    a388:	55                   	push   %rbp
    a389:	48 89 e5             	mov    %rsp,%rbp
    a38c:	f2 0f 11 45 f8       	movsd  %xmm0,-0x8(%rbp)
    a391:	f2 0f 11 4d f0       	movsd  %xmm1,-0x10(%rbp)
    a396:	f2 0f 10 4d f8       	movsd  -0x8(%rbp),%xmm1
    a39b:	f2 0f 10 05 6d e9 00 	movsd  0xe96d(%rip),%xmm0        # 18d10 <l_363.4781+0x310>
    a3a2:	00 
    a3a3:	f2 0f 59 c8          	mulsd  %xmm0,%xmm1
    a3a7:	f2 0f 10 55 f0       	movsd  -0x10(%rbp),%xmm2
    a3ac:	f2 0f 10 05 5c e9 00 	movsd  0xe95c(%rip),%xmm0        # 18d10 <l_363.4781+0x310>
    a3b3:	00 
    a3b4:	f2 0f 59 c2          	mulsd  %xmm2,%xmm0
    a3b8:	f2 0f 58 c1          	addsd  %xmm1,%xmm0
    a3bc:	f3 0f 7e 0d 5c e9 00 	movq   0xe95c(%rip),%xmm1        # 18d20 <l_363.4781+0x320>
    a3c3:	00 
    a3c4:	66 0f 54 c1          	andpd  %xmm1,%xmm0
    a3c8:	66 0f 2f 05 60 e9 00 	comisd 0xe960(%rip),%xmm0        # 18d30 <l_363.4781+0x330>
    a3cf:	00 
    a3d0:	76 07                	jbe    a3d9 <safe_add_func_double_f_f+0x55>
    a3d2:	f2 0f 10 45 f8       	movsd  -0x8(%rbp),%xmm0
    a3d7:	eb 0a                	jmp    a3e3 <safe_add_func_double_f_f+0x5f>
    a3d9:	f2 0f 10 45 f8       	movsd  -0x8(%rbp),%xmm0
    a3de:	f2 0f 58 45 f0       	addsd  -0x10(%rbp),%xmm0
    a3e3:	5d                   	pop    %rbp
    a3e4:	c3                   	retq   

000000000000a3e5 <safe_sub_func_double_f_f>:
    a3e5:	f3 0f 1e fa          	endbr64 
    a3e9:	55                   	push   %rbp
    a3ea:	48 89 e5             	mov    %rsp,%rbp
    a3ed:	f2 0f 11 45 f8       	movsd  %xmm0,-0x8(%rbp)
    a3f2:	f2 0f 11 4d f0       	movsd  %xmm1,-0x10(%rbp)
    a3f7:	f2 0f 10 4d f8       	movsd  -0x8(%rbp),%xmm1
    a3fc:	f2 0f 10 05 0c e9 00 	movsd  0xe90c(%rip),%xmm0        # 18d10 <l_363.4781+0x310>
    a403:	00 
    a404:	f2 0f 59 c1          	mulsd  %xmm1,%xmm0
    a408:	f2 0f 10 55 f0       	movsd  -0x10(%rbp),%xmm2
    a40d:	f2 0f 10 0d fb e8 00 	movsd  0xe8fb(%rip),%xmm1        # 18d10 <l_363.4781+0x310>
    a414:	00 
    a415:	f2 0f 59 ca          	mulsd  %xmm2,%xmm1
    a419:	f2 0f 5c c1          	subsd  %xmm1,%xmm0
    a41d:	f3 0f 7e 0d fb e8 00 	movq   0xe8fb(%rip),%xmm1        # 18d20 <l_363.4781+0x320>
    a424:	00 
    a425:	66 0f 54 c1          	andpd  %xmm1,%xmm0
    a429:	66 0f 2f 05 ff e8 00 	comisd 0xe8ff(%rip),%xmm0        # 18d30 <l_363.4781+0x330>
    a430:	00 
    a431:	76 07                	jbe    a43a <safe_sub_func_double_f_f+0x55>
    a433:	f2 0f 10 45 f8       	movsd  -0x8(%rbp),%xmm0
    a438:	eb 0a                	jmp    a444 <safe_sub_func_double_f_f+0x5f>
    a43a:	f2 0f 10 45 f8       	movsd  -0x8(%rbp),%xmm0
    a43f:	f2 0f 5c 45 f0       	subsd  -0x10(%rbp),%xmm0
    a444:	5d                   	pop    %rbp
    a445:	c3                   	retq   

000000000000a446 <safe_mul_func_double_f_f>:
    a446:	f3 0f 1e fa          	endbr64 
    a44a:	55                   	push   %rbp
    a44b:	48 89 e5             	mov    %rsp,%rbp
    a44e:	f2 0f 11 45 f8       	movsd  %xmm0,-0x8(%rbp)
    a453:	f2 0f 11 4d f0       	movsd  %xmm1,-0x10(%rbp)
    a458:	f2 0f 10 4d f8       	movsd  -0x8(%rbp),%xmm1
    a45d:	f2 0f 10 05 d3 e8 00 	movsd  0xe8d3(%rip),%xmm0        # 18d38 <l_363.4781+0x338>
    a464:	00 
    a465:	f2 0f 59 c8          	mulsd  %xmm0,%xmm1
    a469:	f2 0f 10 55 f0       	movsd  -0x10(%rbp),%xmm2
    a46e:	f2 0f 10 05 ca e8 00 	movsd  0xe8ca(%rip),%xmm0        # 18d40 <l_363.4781+0x340>
    a475:	00 
    a476:	f2 0f 59 c2          	mulsd  %xmm2,%xmm0
    a47a:	f2 0f 59 c1          	mulsd  %xmm1,%xmm0
    a47e:	f3 0f 7e 0d 9a e8 00 	movq   0xe89a(%rip),%xmm1        # 18d20 <l_363.4781+0x320>
    a485:	00 
    a486:	66 0f 54 c1          	andpd  %xmm1,%xmm0
    a48a:	66 0f 2f 05 b6 e8 00 	comisd 0xe8b6(%rip),%xmm0        # 18d48 <l_363.4781+0x348>
    a491:	00 
    a492:	76 07                	jbe    a49b <safe_mul_func_double_f_f+0x55>
    a494:	f2 0f 10 45 f8       	movsd  -0x8(%rbp),%xmm0
    a499:	eb 0a                	jmp    a4a5 <safe_mul_func_double_f_f+0x5f>
    a49b:	f2 0f 10 45 f8       	movsd  -0x8(%rbp),%xmm0
    a4a0:	f2 0f 59 45 f0       	mulsd  -0x10(%rbp),%xmm0
    a4a5:	5d                   	pop    %rbp
    a4a6:	c3                   	retq   

000000000000a4a7 <safe_div_func_double_f_f>:
    a4a7:	f3 0f 1e fa          	endbr64 
    a4ab:	55                   	push   %rbp
    a4ac:	48 89 e5             	mov    %rsp,%rbp
    a4af:	f2 0f 11 45 f8       	movsd  %xmm0,-0x8(%rbp)
    a4b4:	f2 0f 11 4d f0       	movsd  %xmm1,-0x10(%rbp)
    a4b9:	f2 0f 10 45 f0       	movsd  -0x10(%rbp),%xmm0
    a4be:	f3 0f 7e 0d 5a e8 00 	movq   0xe85a(%rip),%xmm1        # 18d20 <l_363.4781+0x320>
    a4c5:	00 
    a4c6:	66 0f 54 c8          	andpd  %xmm0,%xmm1
    a4ca:	f2 0f 10 05 7e e8 00 	movsd  0xe87e(%rip),%xmm0        # 18d50 <l_363.4781+0x350>
    a4d1:	00 
    a4d2:	66 0f 2f c1          	comisd %xmm1,%xmm0
    a4d6:	0f 97 c0             	seta   %al
    a4d9:	83 f0 01             	xor    $0x1,%eax
    a4dc:	84 c0                	test   %al,%al
    a4de:	75 5a                	jne    a53a <safe_div_func_double_f_f+0x93>
    a4e0:	66 0f ef c0          	pxor   %xmm0,%xmm0
    a4e4:	66 0f 2e 45 f0       	ucomisd -0x10(%rbp),%xmm0
    a4e9:	7a 0b                	jp     a4f6 <safe_div_func_double_f_f+0x4f>
    a4eb:	66 0f ef c0          	pxor   %xmm0,%xmm0
    a4ef:	66 0f 2e 45 f0       	ucomisd -0x10(%rbp),%xmm0
    a4f4:	74 50                	je     a546 <safe_div_func_double_f_f+0x9f>
    a4f6:	f2 0f 10 4d f8       	movsd  -0x8(%rbp),%xmm1
    a4fb:	f2 0f 10 05 55 e8 00 	movsd  0xe855(%rip),%xmm0        # 18d58 <l_363.4781+0x358>
    a502:	00 
    a503:	f2 0f 59 c1          	mulsd  %xmm1,%xmm0
    a507:	f2 0f 10 55 f0       	movsd  -0x10(%rbp),%xmm2
    a50c:	f2 0f 10 0d 4c e8 00 	movsd  0xe84c(%rip),%xmm1        # 18d60 <l_363.4781+0x360>
    a513:	00 
    a514:	f2 0f 59 ca          	mulsd  %xmm2,%xmm1
    a518:	f2 0f 5e c1          	divsd  %xmm1,%xmm0
    a51c:	f3 0f 7e 0d fc e7 00 	movq   0xe7fc(%rip),%xmm1        # 18d20 <l_363.4781+0x320>
    a523:	00 
    a524:	66 0f 54 c1          	andpd  %xmm1,%xmm0
    a528:	66 0f 2f 05 38 e8 00 	comisd 0xe838(%rip),%xmm0        # 18d68 <l_363.4781+0x368>
    a52f:	00 
    a530:	0f 97 c0             	seta   %al
    a533:	83 f0 01             	xor    $0x1,%eax
    a536:	84 c0                	test   %al,%al
    a538:	74 0c                	je     a546 <safe_div_func_double_f_f+0x9f>
    a53a:	f2 0f 10 45 f8       	movsd  -0x8(%rbp),%xmm0
    a53f:	f2 0f 5e 45 f0       	divsd  -0x10(%rbp),%xmm0
    a544:	eb 05                	jmp    a54b <safe_div_func_double_f_f+0xa4>
    a546:	f2 0f 10 45 f8       	movsd  -0x8(%rbp),%xmm0
    a54b:	5d                   	pop    %rbp
    a54c:	c3                   	retq   

000000000000a54d <safe_convert_func_float_to_int32_t>:
    a54d:	f3 0f 1e fa          	endbr64 
    a551:	55                   	push   %rbp
    a552:	48 89 e5             	mov    %rsp,%rbp
    a555:	f3 0f 11 45 fc       	movss  %xmm0,-0x4(%rbp)
    a55a:	f3 0f 10 05 0e e8 00 	movss  0xe80e(%rip),%xmm0        # 18d70 <l_363.4781+0x370>
    a561:	00 
    a562:	0f 2f 45 fc          	comiss -0x4(%rbp),%xmm0
    a566:	0f 93 c0             	setae  %al
    a569:	83 f0 01             	xor    $0x1,%eax
    a56c:	84 c0                	test   %al,%al
    a56e:	74 21                	je     a591 <safe_convert_func_float_to_int32_t+0x44>
    a570:	f3 0f 10 45 fc       	movss  -0x4(%rbp),%xmm0
    a575:	0f 2f 05 f8 e7 00 00 	comiss 0xe7f8(%rip),%xmm0        # 18d74 <l_363.4781+0x374>
    a57c:	0f 93 c0             	setae  %al
    a57f:	83 f0 01             	xor    $0x1,%eax
    a582:	84 c0                	test   %al,%al
    a584:	74 0b                	je     a591 <safe_convert_func_float_to_int32_t+0x44>
    a586:	f3 0f 10 45 fc       	movss  -0x4(%rbp),%xmm0
    a58b:	f3 0f 2c c0          	cvttss2si %xmm0,%eax
    a58f:	eb 05                	jmp    a596 <safe_convert_func_float_to_int32_t+0x49>
    a591:	b8 ff ff ff 7f       	mov    $0x7fffffff,%eax
    a596:	5d                   	pop    %rbp
    a597:	c3                   	retq   

000000000000a598 <crc32_gentab>:
    a598:	f3 0f 1e fa          	endbr64 
    a59c:	55                   	push   %rbp
    a59d:	48 89 e5             	mov    %rsp,%rbp
    a5a0:	c7 45 fc 20 83 b8 ed 	movl   $0xedb88320,-0x4(%rbp)
    a5a7:	c7 45 f4 00 00 00 00 	movl   $0x0,-0xc(%rbp)
    a5ae:	eb 51                	jmp    a601 <crc32_gentab+0x69>
    a5b0:	8b 45 f4             	mov    -0xc(%rbp),%eax
    a5b3:	89 45 f0             	mov    %eax,-0x10(%rbp)
    a5b6:	c7 45 f8 08 00 00 00 	movl   $0x8,-0x8(%rbp)
    a5bd:	eb 1e                	jmp    a5dd <crc32_gentab+0x45>
    a5bf:	8b 45 f0             	mov    -0x10(%rbp),%eax
    a5c2:	83 e0 01             	and    $0x1,%eax
    a5c5:	85 c0                	test   %eax,%eax
    a5c7:	74 0d                	je     a5d6 <crc32_gentab+0x3e>
    a5c9:	8b 45 f0             	mov    -0x10(%rbp),%eax
    a5cc:	d1 e8                	shr    %eax
    a5ce:	33 45 fc             	xor    -0x4(%rbp),%eax
    a5d1:	89 45 f0             	mov    %eax,-0x10(%rbp)
    a5d4:	eb 03                	jmp    a5d9 <crc32_gentab+0x41>
    a5d6:	d1 6d f0             	shrl   -0x10(%rbp)
    a5d9:	83 6d f8 01          	subl   $0x1,-0x8(%rbp)
    a5dd:	83 7d f8 00          	cmpl   $0x0,-0x8(%rbp)
    a5e1:	7f dc                	jg     a5bf <crc32_gentab+0x27>
    a5e3:	8b 45 f4             	mov    -0xc(%rbp),%eax
    a5e6:	48 98                	cltq   
    a5e8:	48 8d 0c 85 00 00 00 	lea    0x0(,%rax,4),%rcx
    a5ef:	00 
    a5f0:	48 8d 15 49 61 01 00 	lea    0x16149(%rip),%rdx        # 20740 <crc32_tab>
    a5f7:	8b 45 f0             	mov    -0x10(%rbp),%eax
    a5fa:	89 04 11             	mov    %eax,(%rcx,%rdx,1)
    a5fd:	83 45 f4 01          	addl   $0x1,-0xc(%rbp)
    a601:	81 7d f4 ff 00 00 00 	cmpl   $0xff,-0xc(%rbp)
    a608:	7e a6                	jle    a5b0 <crc32_gentab+0x18>
    a60a:	90                   	nop
    a60b:	90                   	nop
    a60c:	5d                   	pop    %rbp
    a60d:	c3                   	retq   

000000000000a60e <crc32_byte>:
    a60e:	f3 0f 1e fa          	endbr64 
    a612:	55                   	push   %rbp
    a613:	48 89 e5             	mov    %rsp,%rbp
    a616:	89 f8                	mov    %edi,%eax
    a618:	88 45 fc             	mov    %al,-0x4(%rbp)
    a61b:	8b 05 ff 19 01 00    	mov    0x119ff(%rip),%eax        # 1c020 <crc32_context>
    a621:	c1 e8 08             	shr    $0x8,%eax
    a624:	89 c1                	mov    %eax,%ecx
    a626:	0f b6 55 fc          	movzbl -0x4(%rbp),%edx
    a62a:	8b 05 f0 19 01 00    	mov    0x119f0(%rip),%eax        # 1c020 <crc32_context>
    a630:	31 d0                	xor    %edx,%eax
    a632:	0f b6 c0             	movzbl %al,%eax
    a635:	89 c0                	mov    %eax,%eax
    a637:	48 8d 14 85 00 00 00 	lea    0x0(,%rax,4),%rdx
    a63e:	00 
    a63f:	48 8d 05 fa 60 01 00 	lea    0x160fa(%rip),%rax        # 20740 <crc32_tab>
    a646:	8b 04 02             	mov    (%rdx,%rax,1),%eax
    a649:	31 c8                	xor    %ecx,%eax
    a64b:	89 05 cf 19 01 00    	mov    %eax,0x119cf(%rip)        # 1c020 <crc32_context>
    a651:	90                   	nop
    a652:	5d                   	pop    %rbp
    a653:	c3                   	retq   

000000000000a654 <crc32_8bytes>:
    a654:	f3 0f 1e fa          	endbr64 
    a658:	55                   	push   %rbp
    a659:	48 89 e5             	mov    %rsp,%rbp
    a65c:	48 83 ec 08          	sub    $0x8,%rsp
    a660:	48 89 7d f8          	mov    %rdi,-0x8(%rbp)
    a664:	48 8b 45 f8          	mov    -0x8(%rbp),%rax
    a668:	0f b6 c0             	movzbl %al,%eax
    a66b:	89 c7                	mov    %eax,%edi
    a66d:	e8 9c ff ff ff       	callq  a60e <crc32_byte>
    a672:	48 8b 45 f8          	mov    -0x8(%rbp),%rax
    a676:	48 c1 e8 08          	shr    $0x8,%rax
    a67a:	0f b6 c0             	movzbl %al,%eax
    a67d:	89 c7                	mov    %eax,%edi
    a67f:	e8 8a ff ff ff       	callq  a60e <crc32_byte>
    a684:	48 8b 45 f8          	mov    -0x8(%rbp),%rax
    a688:	48 c1 e8 10          	shr    $0x10,%rax
    a68c:	0f b6 c0             	movzbl %al,%eax
    a68f:	89 c7                	mov    %eax,%edi
    a691:	e8 78 ff ff ff       	callq  a60e <crc32_byte>
    a696:	48 8b 45 f8          	mov    -0x8(%rbp),%rax
    a69a:	48 c1 e8 18          	shr    $0x18,%rax
    a69e:	0f b6 c0             	movzbl %al,%eax
    a6a1:	89 c7                	mov    %eax,%edi
    a6a3:	e8 66 ff ff ff       	callq  a60e <crc32_byte>
    a6a8:	48 8b 45 f8          	mov    -0x8(%rbp),%rax
    a6ac:	48 c1 e8 20          	shr    $0x20,%rax
    a6b0:	0f b6 c0             	movzbl %al,%eax
    a6b3:	89 c7                	mov    %eax,%edi
    a6b5:	e8 54 ff ff ff       	callq  a60e <crc32_byte>
    a6ba:	48 8b 45 f8          	mov    -0x8(%rbp),%rax
    a6be:	48 c1 e8 28          	shr    $0x28,%rax
    a6c2:	0f b6 c0             	movzbl %al,%eax
    a6c5:	89 c7                	mov    %eax,%edi
    a6c7:	e8 42 ff ff ff       	callq  a60e <crc32_byte>
    a6cc:	48 8b 45 f8          	mov    -0x8(%rbp),%rax
    a6d0:	48 c1 e8 30          	shr    $0x30,%rax
    a6d4:	0f b6 c0             	movzbl %al,%eax
    a6d7:	89 c7                	mov    %eax,%edi
    a6d9:	e8 30 ff ff ff       	callq  a60e <crc32_byte>
    a6de:	48 8b 45 f8          	mov    -0x8(%rbp),%rax
    a6e2:	48 c1 e8 38          	shr    $0x38,%rax
    a6e6:	0f b6 c0             	movzbl %al,%eax
    a6e9:	89 c7                	mov    %eax,%edi
    a6eb:	e8 1e ff ff ff       	callq  a60e <crc32_byte>
    a6f0:	90                   	nop
    a6f1:	c9                   	leaveq 
    a6f2:	c3                   	retq   

000000000000a6f3 <transparent_crc>:
    a6f3:	f3 0f 1e fa          	endbr64 
    a6f7:	55                   	push   %rbp
    a6f8:	48 89 e5             	mov    %rsp,%rbp
    a6fb:	48 83 ec 20          	sub    $0x20,%rsp
    a6ff:	48 89 7d f8          	mov    %rdi,-0x8(%rbp)
    a703:	48 89 75 f0          	mov    %rsi,-0x10(%rbp)
    a707:	89 55 ec             	mov    %edx,-0x14(%rbp)
    a70a:	48 8b 45 f8          	mov    -0x8(%rbp),%rax
    a70e:	48 89 c7             	mov    %rax,%rdi
    a711:	e8 3e ff ff ff       	callq  a654 <crc32_8bytes>
    a716:	83 7d ec 00          	cmpl   $0x0,-0x14(%rbp)
    a71a:	74 22                	je     a73e <transparent_crc+0x4b>
    a71c:	8b 05 fe 18 01 00    	mov    0x118fe(%rip),%eax        # 1c020 <crc32_context>
    a722:	f7 d0                	not    %eax
    a724:	89 c2                	mov    %eax,%edx
    a726:	48 8b 45 f0          	mov    -0x10(%rbp),%rax
    a72a:	48 89 c6             	mov    %rax,%rsi
    a72d:	48 8d 3d fc c8 00 00 	lea    0xc8fc(%rip),%rdi        # 17030 <_IO_stdin_used+0x30>
    a734:	b8 00 00 00 00       	mov    $0x0,%eax
    a739:	e8 42 e9 ff ff       	callq  9080 <printf@plt>
    a73e:	90                   	nop
    a73f:	c9                   	leaveq 
    a740:	c3                   	retq   

000000000000a741 <transparent_crc_bytes>:
    a741:	f3 0f 1e fa          	endbr64 
    a745:	55                   	push   %rbp
    a746:	48 89 e5             	mov    %rsp,%rbp
    a749:	48 83 ec 30          	sub    $0x30,%rsp
    a74d:	48 89 7d e8          	mov    %rdi,-0x18(%rbp)
    a751:	89 75 e4             	mov    %esi,-0x1c(%rbp)
    a754:	48 89 55 d8          	mov    %rdx,-0x28(%rbp)
    a758:	89 4d e0             	mov    %ecx,-0x20(%rbp)
    a75b:	c7 45 fc 00 00 00 00 	movl   $0x0,-0x4(%rbp)
    a762:	eb 1e                	jmp    a782 <transparent_crc_bytes+0x41>
    a764:	8b 45 fc             	mov    -0x4(%rbp),%eax
    a767:	48 63 d0             	movslq %eax,%rdx
    a76a:	48 8b 45 e8          	mov    -0x18(%rbp),%rax
    a76e:	48 01 d0             	add    %rdx,%rax
    a771:	0f b6 00             	movzbl (%rax),%eax
    a774:	0f b6 c0             	movzbl %al,%eax
    a777:	89 c7                	mov    %eax,%edi
    a779:	e8 90 fe ff ff       	callq  a60e <crc32_byte>
    a77e:	83 45 fc 01          	addl   $0x1,-0x4(%rbp)
    a782:	8b 45 fc             	mov    -0x4(%rbp),%eax
    a785:	3b 45 e4             	cmp    -0x1c(%rbp),%eax
    a788:	7c da                	jl     a764 <transparent_crc_bytes+0x23>
    a78a:	83 7d e0 00          	cmpl   $0x0,-0x20(%rbp)
    a78e:	74 22                	je     a7b2 <transparent_crc_bytes+0x71>
    a790:	8b 05 8a 18 01 00    	mov    0x1188a(%rip),%eax        # 1c020 <crc32_context>
    a796:	f7 d0                	not    %eax
    a798:	89 c2                	mov    %eax,%edx
    a79a:	48 8b 45 d8          	mov    -0x28(%rbp),%rax
    a79e:	48 89 c6             	mov    %rax,%rsi
    a7a1:	48 8d 3d 88 c8 00 00 	lea    0xc888(%rip),%rdi        # 17030 <_IO_stdin_used+0x30>
    a7a8:	b8 00 00 00 00       	mov    $0x0,%eax
    a7ad:	e8 ce e8 ff ff       	callq  9080 <printf@plt>
    a7b2:	90                   	nop
    a7b3:	c9                   	leaveq 
    a7b4:	c3                   	retq   

000000000000a7b5 <func_1>:
    a7b5:	f3 0f 1e fa          	endbr64 
    a7b9:	55                   	push   %rbp
    a7ba:	48 89 e5             	mov    %rsp,%rbp
    a7bd:	48 81 ec e0 01 00 00 	sub    $0x1e0,%rsp
    a7c4:	64 48 8b 04 25 28 00 	mov    %fs:0x28,%rax
    a7cb:	00 00 
    a7cd:	48 89 45 f8          	mov    %rax,-0x8(%rbp)
    a7d1:	31 c0                	xor    %eax,%eax
    a7d3:	c7 85 30 ff ff ff 3d 	movl   $0x1e42a43d,-0xd0(%rbp)
    a7da:	a4 42 1e 
    a7dd:	c7 85 34 ff ff ff 35 	movl   $0x25a80e35,-0xcc(%rbp)
    a7e4:	0e a8 25 
    a7e7:	c7 85 38 ff ff ff 01 	movl   $0x1,-0xc8(%rbp)
    a7ee:	00 00 00 
    a7f1:	c7 85 3c ff ff ff ff 	movl   $0xffffffff,-0xc4(%rbp)
    a7f8:	ff ff ff 
    a7fb:	c7 85 40 ff ff ff 3d 	movl   $0x1e42a43d,-0xc0(%rbp)
    a802:	a4 42 1e 
    a805:	c7 85 44 ff ff ff 3d 	movl   $0x1e42a43d,-0xbc(%rbp)
    a80c:	a4 42 1e 
    a80f:	c7 85 48 ff ff ff 1a 	movl   $0x532bb11a,-0xb8(%rbp)
    a816:	b1 2b 53 
    a819:	c7 85 4c ff ff ff fe 	movl   $0xfffffffe,-0xb4(%rbp)
    a820:	ff ff ff 
    a823:	c7 85 50 ff ff ff 3d 	movl   $0x1e42a43d,-0xb0(%rbp)
    a82a:	a4 42 1e 
    a82d:	c7 85 54 ff ff ff e5 	movl   $0xcbad86e5,-0xac(%rbp)
    a834:	86 ad cb 
    a837:	c7 85 58 ff ff ff ff 	movl   $0xffffffff,-0xa8(%rbp)
    a83e:	ff ff ff 
    a841:	c7 85 5c ff ff ff 3d 	movl   $0x1e42a43d,-0xa4(%rbp)
    a848:	a4 42 1e 
    a84b:	c7 85 60 ff ff ff fb 	movl   $0xfffffffb,-0xa0(%rbp)
    a852:	ff ff ff 
    a855:	c7 85 64 ff ff ff fe 	movl   $0xfffffffe,-0x9c(%rbp)
    a85c:	ff ff ff 
    a85f:	c7 85 68 ff ff ff fb 	movl   $0xfffffffb,-0x98(%rbp)
    a866:	ff ff ff 
    a869:	c7 85 6c ff ff ff ff 	movl   $0xffffffff,-0x94(%rbp)
    a870:	ff ff ff 
    a873:	c7 85 70 ff ff ff 01 	movl   $0x1,-0x90(%rbp)
    a87a:	00 00 00 
    a87d:	c7 85 74 ff ff ff fe 	movl   $0xfffffffe,-0x8c(%rbp)
    a884:	ff ff ff 
    a887:	c7 85 78 ff ff ff 1a 	movl   $0x532bb11a,-0x88(%rbp)
    a88e:	b1 2b 53 
    a891:	c7 85 7c ff ff ff 3d 	movl   $0x1e42a43d,-0x84(%rbp)
    a898:	a4 42 1e 
    a89b:	c7 45 80 fe ff ff ff 	movl   $0xfffffffe,-0x80(%rbp)
    a8a2:	c7 45 84 e5 86 ad cb 	movl   $0xcbad86e5,-0x7c(%rbp)
    a8a9:	c7 45 88 e5 86 ad cb 	movl   $0xcbad86e5,-0x78(%rbp)
    a8b0:	c7 45 8c fe ff ff ff 	movl   $0xfffffffe,-0x74(%rbp)
    a8b7:	c7 45 90 fb ff ff ff 	movl   $0xfffffffb,-0x70(%rbp)
    a8be:	c7 45 94 3d a4 42 1e 	movl   $0x1e42a43d,-0x6c(%rbp)
    a8c5:	c7 45 98 e5 86 ad cb 	movl   $0xcbad86e5,-0x68(%rbp)
    a8cc:	c7 45 9c ff ff ff ff 	movl   $0xffffffff,-0x64(%rbp)
    a8d3:	c7 45 a0 fe ff ff ff 	movl   $0xfffffffe,-0x60(%rbp)
    a8da:	c7 45 a4 01 00 00 00 	movl   $0x1,-0x5c(%rbp)
    a8e1:	c7 45 a8 1a b1 2b 53 	movl   $0x532bb11a,-0x58(%rbp)
    a8e8:	c7 45 ac 01 00 00 00 	movl   $0x1,-0x54(%rbp)
    a8ef:	c7 45 b0 01 00 00 00 	movl   $0x1,-0x50(%rbp)
    a8f6:	c7 45 b4 e5 86 ad cb 	movl   $0xcbad86e5,-0x4c(%rbp)
    a8fd:	c7 45 b8 fb ff ff ff 	movl   $0xfffffffb,-0x48(%rbp)
    a904:	c7 45 bc 01 00 00 00 	movl   $0x1,-0x44(%rbp)
    a90b:	c7 45 c0 fb ff ff ff 	movl   $0xfffffffb,-0x40(%rbp)
    a912:	c7 45 c4 01 00 00 00 	movl   $0x1,-0x3c(%rbp)
    a919:	c7 45 c8 ff ff ff ff 	movl   $0xffffffff,-0x38(%rbp)
    a920:	c7 45 cc ff ff ff ff 	movl   $0xffffffff,-0x34(%rbp)
    a927:	c7 45 d0 3d a4 42 1e 	movl   $0x1e42a43d,-0x30(%rbp)
    a92e:	c7 45 d4 3d a4 42 1e 	movl   $0x1e42a43d,-0x2c(%rbp)
    a935:	c7 45 d8 1a b1 2b 53 	movl   $0x532bb11a,-0x28(%rbp)
    a93c:	c7 45 dc fe ff ff ff 	movl   $0xfffffffe,-0x24(%rbp)
    a943:	c7 45 e0 3d a4 42 1e 	movl   $0x1e42a43d,-0x20(%rbp)
    a94a:	c7 45 e4 e5 86 ad cb 	movl   $0xcbad86e5,-0x1c(%rbp)
    a951:	c7 45 e8 ff ff ff ff 	movl   $0xffffffff,-0x18(%rbp)
    a958:	c7 45 ec 3d a4 42 1e 	movl   $0x1e42a43d,-0x14(%rbp)
    a95f:	48 c7 85 48 fe ff ff 	movq   $0x0,-0x1b8(%rbp)
    a966:	00 00 00 00 
    a96a:	66 c7 85 24 fe ff ff 	movw   $0x160b,-0x1dc(%rbp)
    a971:	0b 16 
    a973:	48 8d 05 e6 4a 01 00 	lea    0x14ae6(%rip),%rax        # 1f460 <g_1341>
    a97a:	48 89 85 50 fe ff ff 	mov    %rax,-0x1b0(%rbp)
    a981:	c7 85 d0 fe ff ff ff 	movl   $0xffffffff,-0x130(%rbp)
    a988:	ff ff ff 
    a98b:	c7 85 d4 fe ff ff ff 	movl   $0xffffffff,-0x12c(%rbp)
    a992:	ff ff ff 
    a995:	c7 85 d8 fe ff ff ff 	movl   $0xffffffff,-0x128(%rbp)
    a99c:	ff ff ff 
    a99f:	c7 85 dc fe ff ff e1 	movl   $0x2c51b0e1,-0x124(%rbp)
    a9a6:	b0 51 2c 
    a9a9:	c7 85 e0 fe ff ff e1 	movl   $0x2c51b0e1,-0x120(%rbp)
    a9b0:	b0 51 2c 
    a9b3:	c7 85 e4 fe ff ff ff 	movl   $0xffffffff,-0x11c(%rbp)
    a9ba:	ff ff ff 
    a9bd:	c7 85 e8 fe ff ff ff 	movl   $0xffffffff,-0x118(%rbp)
    a9c4:	ff ff ff 
    a9c7:	c7 85 ec fe ff ff ff 	movl   $0xffffffff,-0x114(%rbp)
    a9ce:	ff ff ff 
    a9d1:	c7 85 f0 fe ff ff e1 	movl   $0x2c51b0e1,-0x110(%rbp)
    a9d8:	b0 51 2c 
    a9db:	c7 85 f4 fe ff ff e1 	movl   $0x2c51b0e1,-0x10c(%rbp)
    a9e2:	b0 51 2c 
    a9e5:	48 c7 85 58 fe ff ff 	movq   $0x0,-0x1a8(%rbp)
    a9ec:	00 00 00 00 
    a9f0:	c7 85 28 fe ff ff ba 	movl   $0x633d74ba,-0x1d8(%rbp)
    a9f7:	74 3d 63 
    a9fa:	c6 85 21 fe ff ff 01 	movb   $0x1,-0x1df(%rbp)
    aa01:	c6 85 22 fe ff ff 01 	movb   $0x1,-0x1de(%rbp)
    aa08:	48 8d 05 b9 4a 01 00 	lea    0x14ab9(%rip),%rax        # 1f4c8 <g_1390>
    aa0f:	48 89 85 60 fe ff ff 	mov    %rax,-0x1a0(%rbp)
    aa16:	48 8d 05 13 4f 01 00 	lea    0x14f13(%rip),%rax        # 1f930 <g_2127+0x10>
    aa1d:	48 89 85 98 fe ff ff 	mov    %rax,-0x168(%rbp)
    aa24:	48 8d 85 98 fe ff ff 	lea    -0x168(%rbp),%rax
    aa2b:	48 89 85 40 fe ff ff 	mov    %rax,-0x1c0(%rbp)
    aa32:	48 8d 85 40 fe ff ff 	lea    -0x1c0(%rbp),%rax
    aa39:	48 89 85 68 fe ff ff 	mov    %rax,-0x198(%rbp)
    aa40:	48 8d 05 61 61 01 00 	lea    0x16161(%rip),%rax        # 20ba8 <g_1342>
    aa47:	48 89 85 70 fe ff ff 	mov    %rax,-0x190(%rbp)
    aa4e:	c7 85 2c fe ff ff 08 	movl   $0xa9c2df08,-0x1d4(%rbp)
    aa55:	df c2 a9 
    aa58:	c7 85 a0 fe ff ff ff 	movl   $0xffffffff,-0x160(%rbp)
    aa5f:	ff ff ff 
    aa62:	c7 85 a4 fe ff ff ff 	movl   $0xffffffff,-0x15c(%rbp)
    aa69:	ff ff ff 
    aa6c:	c7 85 a8 fe ff ff ff 	movl   $0xffffffff,-0x158(%rbp)
    aa73:	ff ff ff 
    aa76:	c7 85 ac fe ff ff ff 	movl   $0xffffffff,-0x154(%rbp)
    aa7d:	ff ff ff 
    aa80:	c7 85 b0 fe ff ff ff 	movl   $0xffffffff,-0x150(%rbp)
    aa87:	ff ff ff 
    aa8a:	c7 85 b4 fe ff ff ff 	movl   $0xffffffff,-0x14c(%rbp)
    aa91:	ff ff ff 
    aa94:	c7 85 b8 fe ff ff ff 	movl   $0xffffffff,-0x148(%rbp)
    aa9b:	ff ff ff 
    aa9e:	c7 85 bc fe ff ff ff 	movl   $0xffffffff,-0x144(%rbp)
    aaa5:	ff ff ff 
    aaa8:	c7 85 c0 fe ff ff ff 	movl   $0xffffffff,-0x140(%rbp)
    aaaf:	ff ff ff 
    aab2:	c7 05 8c 18 01 00 01 	movl   $0x1,0x1188c(%rip)        # 1c348 <g_4+0x308>
    aab9:	00 00 00 
    aabc:	e9 e9 00 00 00       	jmpq   abaa <func_1+0x3f5>
    aac1:	c7 85 30 fe ff ff ff 	movl   $0xffffffff,-0x1d0(%rbp)
    aac8:	ff ff ff 
    aacb:	48 8d 05 96 20 01 00 	lea    0x12096(%rip),%rax        # 1cb68 <g_113>
    aad2:	48 89 85 78 fe ff ff 	mov    %rax,-0x188(%rbp)
    aad9:	c6 85 23 fe ff ff 56 	movb   $0x56,-0x1dd(%rbp)
    aae0:	48 8d 05 79 49 01 00 	lea    0x14979(%rip),%rax        # 1f460 <g_1341>
    aae7:	48 89 85 80 fe ff ff 	mov    %rax,-0x180(%rbp)
    aaee:	66 c7 85 26 fe ff ff 	movw   $0xfffd,-0x1da(%rbp)
    aaf5:	fd ff 
    aaf7:	c7 85 34 fe ff ff ff 	movl   $0xffffffff,-0x1cc(%rbp)
    aafe:	ff ff ff 
    ab01:	c7 85 38 fe ff ff 60 	movl   $0x8e29b160,-0x1c8(%rbp)
    ab08:	b1 29 8e 
    ab0b:	c7 85 00 ff ff ff ff 	movl   $0xffffffff,-0x100(%rbp)
    ab12:	ff ff ff 
    ab15:	c7 85 04 ff ff ff 2c 	movl   $0x68b7632c,-0xfc(%rbp)
    ab1c:	63 b7 68 
    ab1f:	c7 85 08 ff ff ff ff 	movl   $0xffffffff,-0xf8(%rbp)
    ab26:	ff ff ff 
    ab29:	c7 85 0c ff ff ff ff 	movl   $0xb1f40dff,-0xf4(%rbp)
    ab30:	0d f4 b1 
    ab33:	c7 85 10 ff ff ff ff 	movl   $0xb1f40dff,-0xf0(%rbp)
    ab3a:	0d f4 b1 
    ab3d:	c7 85 14 ff ff ff ff 	movl   $0xffffffff,-0xec(%rbp)
    ab44:	ff ff ff 
    ab47:	c7 85 18 ff ff ff 2c 	movl   $0x68b7632c,-0xe8(%rbp)
    ab4e:	63 b7 68 
    ab51:	c7 85 1c ff ff ff ff 	movl   $0xffffffff,-0xe4(%rbp)
    ab58:	ff ff ff 
    ab5b:	c7 85 20 ff ff ff ff 	movl   $0xb1f40dff,-0xe0(%rbp)
    ab62:	0d f4 b1 
    ab65:	c7 85 24 ff ff ff ff 	movl   $0xb1f40dff,-0xdc(%rbp)
    ab6c:	0d f4 b1 
    ab6f:	c7 85 3c fe ff ff 91 	movl   $0x16c2d691,-0x1c4(%rbp)
    ab76:	d6 c2 16 
    ab79:	48 8d 05 28 60 01 00 	lea    0x16028(%rip),%rax        # 20ba8 <g_1342>
    ab80:	48 89 85 88 fe ff ff 	mov    %rax,-0x178(%rbp)
    ab87:	48 c7 85 90 fe ff ff 	movq   $0x0,-0x170(%rbp)
    ab8e:	00 00 00 00 
    ab92:	83 bd 30 fe ff ff 00 	cmpl   $0x0,-0x1d0(%rbp)
    ab99:	75 1f                	jne    abba <func_1+0x405>
    ab9b:	8b 05 a7 17 01 00    	mov    0x117a7(%rip),%eax        # 1c348 <g_4+0x308>
    aba1:	83 e8 01             	sub    $0x1,%eax
    aba4:	89 05 9e 17 01 00    	mov    %eax,0x1179e(%rip)        # 1c348 <g_4+0x308>
    abaa:	8b 05 98 17 01 00    	mov    0x11798(%rip),%eax        # 1c348 <g_4+0x308>
    abb0:	85 c0                	test   %eax,%eax
    abb2:	0f 89 09 ff ff ff    	jns    aac1 <func_1+0x30c>
    abb8:	eb 01                	jmp    abbb <func_1+0x406>
    abba:	90                   	nop
    abbb:	0f b6 85 21 fe ff ff 	movzbl -0x1df(%rbp),%eax
    abc2:	48 8b 55 f8          	mov    -0x8(%rbp),%rdx
    abc6:	64 48 33 14 25 28 00 	xor    %fs:0x28,%rdx
    abcd:	00 00 
    abcf:	74 05                	je     abd6 <func_1+0x421>
    abd1:	e8 9a e4 ff ff       	callq  9070 <__stack_chk_fail@plt>
    abd6:	c9                   	leaveq 
    abd7:	c3                   	retq   

000000000000abd8 <func_10>:
    abd8:	f3 0f 1e fa          	endbr64 
    abdc:	55                   	push   %rbp
    abdd:	48 89 e5             	mov    %rsp,%rbp
    abe0:	41 57                	push   %r15
    abe2:	41 56                	push   %r14
    abe4:	41 55                	push   %r13
    abe6:	41 54                	push   %r12
    abe8:	53                   	push   %rbx
    abe9:	48 81 ec 00 10 00 00 	sub    $0x1000,%rsp
    abf0:	48 83 0c 24 00       	orq    $0x0,(%rsp)
    abf5:	48 81 ec b8 00 00 00 	sub    $0xb8,%rsp
    abfc:	89 f9                	mov    %edi,%ecx
    abfe:	89 b5 38 ef ff ff    	mov    %esi,-0x10c8(%rbp)
    ac04:	89 d0                	mov    %edx,%eax
    ac06:	89 ca                	mov    %ecx,%edx
    ac08:	88 95 3c ef ff ff    	mov    %dl,-0x10c4(%rbp)
    ac0e:	66 89 85 34 ef ff ff 	mov    %ax,-0x10cc(%rbp)
    ac15:	64 48 8b 04 25 28 00 	mov    %fs:0x28,%rax
    ac1c:	00 00 
    ac1e:	48 89 45 c8          	mov    %rax,-0x38(%rbp)
    ac22:	31 c0                	xor    %eax,%eax
    ac24:	48 8d 05 75 17 01 00 	lea    0x11775(%rip),%rax        # 1c3a0 <g_34>
    ac2b:	48 89 85 38 f0 ff ff 	mov    %rax,-0xfc8(%rbp)
    ac32:	48 c7 85 40 f0 ff ff 	movq   $0x0,-0xfc0(%rbp)
    ac39:	00 00 00 00 
    ac3d:	c7 85 80 ef ff ff fa 	movl   $0xfffffffa,-0x1080(%rbp)
    ac44:	ff ff ff 
    ac47:	c7 85 50 ef ff ff 0b 	movl   $0xb4428b0b,-0x10b0(%rbp)
    ac4e:	8b 42 b4 
    ac51:	c7 85 54 ef ff ff 01 	movl   $0x1,-0x10ac(%rbp)
    ac58:	00 00 00 
    ac5b:	48 c7 85 48 f0 ff ff 	movq   $0x0,-0xfb8(%rbp)
    ac62:	00 00 00 00 
    ac66:	c7 85 a0 ef ff ff 97 	movl   $0x881aff97,-0x1060(%rbp)
    ac6d:	ff 1a 88 
    ac70:	48 8d 05 69 5f 01 00 	lea    0x15f69(%rip),%rax        # 20be0 <g_2239>
    ac77:	48 89 85 50 f0 ff ff 	mov    %rax,-0xfb0(%rbp)
    ac7e:	48 8d 05 43 48 01 00 	lea    0x14843(%rip),%rax        # 1f4c8 <g_1390>
    ac85:	48 89 85 58 f0 ff ff 	mov    %rax,-0xfa8(%rbp)
    ac8c:	48 8d 05 15 4f 01 00 	lea    0x14f15(%rip),%rax        # 1fba8 <g_2397>
    ac93:	48 89 85 00 f0 ff ff 	mov    %rax,-0x1000(%rbp)
    ac9a:	48 8d 05 f7 1e 01 00 	lea    0x11ef7(%rip),%rax        # 1cb98 <g_740>
    aca1:	48 89 85 60 f0 ff ff 	mov    %rax,-0xfa0(%rbp)
    aca8:	48 c7 85 08 f0 ff ff 	movq   $0x0,-0xff8(%rbp)
    acaf:	00 00 00 00 
    acb3:	48 8d 85 08 f0 ff ff 	lea    -0xff8(%rbp),%rax
    acba:	48 89 85 70 f2 ff ff 	mov    %rax,-0xd90(%rbp)
    acc1:	48 8d 85 08 f0 ff ff 	lea    -0xff8(%rbp),%rax
    acc8:	48 89 85 78 f2 ff ff 	mov    %rax,-0xd88(%rbp)
    accf:	48 8d 85 08 f0 ff ff 	lea    -0xff8(%rbp),%rax
    acd6:	48 89 85 80 f2 ff ff 	mov    %rax,-0xd80(%rbp)
    acdd:	48 8d 85 08 f0 ff ff 	lea    -0xff8(%rbp),%rax
    ace4:	48 89 85 88 f2 ff ff 	mov    %rax,-0xd78(%rbp)
    aceb:	48 8d 85 08 f0 ff ff 	lea    -0xff8(%rbp),%rax
    acf2:	48 89 85 90 f2 ff ff 	mov    %rax,-0xd70(%rbp)
    acf9:	48 8d 85 08 f0 ff ff 	lea    -0xff8(%rbp),%rax
    ad00:	48 89 85 98 f2 ff ff 	mov    %rax,-0xd68(%rbp)
    ad07:	48 8d 85 08 f0 ff ff 	lea    -0xff8(%rbp),%rax
    ad0e:	48 89 85 a0 f2 ff ff 	mov    %rax,-0xd60(%rbp)
    ad15:	48 8d 85 08 f0 ff ff 	lea    -0xff8(%rbp),%rax
    ad1c:	48 89 85 a8 f2 ff ff 	mov    %rax,-0xd58(%rbp)
    ad23:	c7 85 00 f2 ff ff 57 	movl   $0xf444df57,-0xe00(%rbp)
    ad2a:	df 44 f4 
    ad2d:	c7 85 04 f2 ff ff 57 	movl   $0xf444df57,-0xdfc(%rbp)
    ad34:	df 44 f4 
    ad37:	c7 85 08 f2 ff ff 57 	movl   $0xf444df57,-0xdf8(%rbp)
    ad3e:	df 44 f4 
    ad41:	c7 85 0c f2 ff ff 57 	movl   $0xf444df57,-0xdf4(%rbp)
    ad48:	df 44 f4 
    ad4b:	c7 85 10 f2 ff ff 57 	movl   $0xf444df57,-0xdf0(%rbp)
    ad52:	df 44 f4 
    ad55:	c7 85 14 f2 ff ff 57 	movl   $0xf444df57,-0xdec(%rbp)
    ad5c:	df 44 f4 
    ad5f:	c7 85 18 f2 ff ff 57 	movl   $0xf444df57,-0xde8(%rbp)
    ad66:	df 44 f4 
    ad69:	c7 85 1c f2 ff ff 57 	movl   $0xf444df57,-0xde4(%rbp)
    ad70:	df 44 f4 
    ad73:	c7 85 20 f2 ff ff 57 	movl   $0xf444df57,-0xde0(%rbp)
    ad7a:	df 44 f4 
    ad7d:	48 c7 85 68 f0 ff ff 	movq   $0x0,-0xf98(%rbp)
    ad84:	00 00 00 00 
    ad88:	c7 85 a4 ef ff ff ff 	movl   $0xffffffff,-0x105c(%rbp)
    ad8f:	ff ff ff 
    ad92:	c6 85 48 ef ff ff 01 	movb   $0x1,-0x10b8(%rbp)
    ad99:	c7 85 7c ef ff ff 7f 	movl   $0x2f52fc7f,-0x1084(%rbp)
    ada0:	fc 52 2f 
    ada3:	48 8d 05 06 16 01 00 	lea    0x11606(%rip),%rax        # 1c3b0 <g_38>
    adaa:	48 89 85 70 f0 ff ff 	mov    %rax,-0xf90(%rbp)
    adb1:	48 8d 85 b0 f4 ff ff 	lea    -0xb50(%rbp),%rax
    adb8:	48 8d 15 61 28 01 00 	lea    0x12861(%rip),%rdx        # 1d620 <g_3397+0x1f>
    adbf:	b9 2a 00 00 00       	mov    $0x2a,%ecx
    adc4:	48 89 c7             	mov    %rax,%rdi
    adc7:	48 89 d6             	mov    %rdx,%rsi
    adca:	f3 48 a5             	rep movsq %ds:(%rsi),%es:(%rdi)
    adcd:	48 8d 05 8c 46 01 00 	lea    0x1468c(%rip),%rax        # 1f460 <g_1341>
    add4:	48 89 85 78 f0 ff ff 	mov    %rax,-0xf88(%rbp)
    addb:	48 8d 05 1e 4b 01 00 	lea    0x14b1e(%rip),%rax        # 1f900 <g_1952>
    ade2:	48 89 85 10 f0 ff ff 	mov    %rax,-0xff0(%rbp)
    ade9:	48 8d 85 10 f0 ff ff 	lea    -0xff0(%rbp),%rax
    adf0:	48 89 85 18 f0 ff ff 	mov    %rax,-0xfe8(%rbp)
    adf7:	48 8d 85 18 f0 ff ff 	lea    -0xfe8(%rbp),%rax
    adfe:	48 89 85 80 f0 ff ff 	mov    %rax,-0xf80(%rbp)
    ae05:	48 c7 85 30 f2 ff ff 	movq   $0x0,-0xdd0(%rbp)
    ae0c:	00 00 00 00 
    ae10:	48 8d 05 49 1d 01 00 	lea    0x11d49(%rip),%rax        # 1cb60 <g_79>
    ae17:	48 89 85 38 f2 ff ff 	mov    %rax,-0xdc8(%rbp)
    ae1e:	48 8d 05 3b 1d 01 00 	lea    0x11d3b(%rip),%rax        # 1cb60 <g_79>
    ae25:	48 89 85 40 f2 ff ff 	mov    %rax,-0xdc0(%rbp)
    ae2c:	48 c7 85 48 f2 ff ff 	movq   $0x0,-0xdb8(%rbp)
    ae33:	00 00 00 00 
    ae37:	48 8d 05 22 1d 01 00 	lea    0x11d22(%rip),%rax        # 1cb60 <g_79>
    ae3e:	48 89 85 50 f2 ff ff 	mov    %rax,-0xdb0(%rbp)
    ae45:	48 8d 05 14 1d 01 00 	lea    0x11d14(%rip),%rax        # 1cb60 <g_79>
    ae4c:	48 89 85 58 f2 ff ff 	mov    %rax,-0xda8(%rbp)
    ae53:	48 c7 85 60 f2 ff ff 	movq   $0x0,-0xda0(%rbp)
    ae5a:	00 00 00 00 
    ae5e:	48 b8 d7 9e b8 1b 8b 	movabs $0xba42fc8b1bb89ed7,%rax
    ae65:	fc 42 ba 
    ae68:	48 89 85 88 f0 ff ff 	mov    %rax,-0xf78(%rbp)
    ae6f:	c7 85 a8 ef ff ff c2 	movl   $0x85a753c2,-0x1058(%rbp)
    ae76:	53 a7 85 
    ae79:	c7 85 74 ef ff ff 00 	movl   $0x0,-0x108c(%rbp)
    ae80:	00 00 00 
    ae83:	eb 1a                	jmp    ae9f <func_10+0x2c7>
    ae85:	8b 85 74 ef ff ff    	mov    -0x108c(%rbp),%eax
    ae8b:	48 98                	cltq   
    ae8d:	c7 84 85 e0 f1 ff ff 	movl   $0x394ddc96,-0xe20(%rbp,%rax,4)
    ae94:	96 dc 4d 39 
    ae98:	83 85 74 ef ff ff 01 	addl   $0x1,-0x108c(%rbp)
    ae9f:	83 bd 74 ef ff ff 03 	cmpl   $0x3,-0x108c(%rbp)
    aea6:	7e dd                	jle    ae85 <func_10+0x2ad>
    aea8:	90                   	nop
    aea9:	66 c7 05 c0 1c 01 00 	movw   $0x0,0x11cc0(%rip)        # 1cb72 <g_146>
    aeb0:	00 00 
    aeb2:	e9 4b 03 00 00       	jmpq   b202 <func_10+0x62a>
    aeb7:	c7 85 e4 ef ff ff ff 	movl   $0xffffffff,-0x101c(%rbp)
    aebe:	ff ff ff 
    aec1:	c7 85 e8 ef ff ff 07 	movl   $0x5ed4ea07,-0x1018(%rbp)
    aec8:	ea d4 5e 
    aecb:	c7 85 ec ef ff ff a0 	movl   $0xb2b78ba0,-0x1014(%rbp)
    aed2:	8b b7 b2 
    aed5:	c7 85 f0 ef ff ff 6f 	movl   $0x44abeb6f,-0x1010(%rbp)
    aedc:	eb ab 44 
    aedf:	c7 85 d0 f3 ff ff fc 	movl   $0xfffffffc,-0xc30(%rbp)
    aee6:	ff ff ff 
    aee9:	c7 85 d4 f3 ff ff fc 	movl   $0xfffffffc,-0xc2c(%rbp)
    aef0:	ff ff ff 
    aef3:	c7 85 d8 f3 ff ff fc 	movl   $0xfffffffc,-0xc28(%rbp)
    aefa:	ff ff ff 
    aefd:	c7 85 dc f3 ff ff fc 	movl   $0xfffffffc,-0xc24(%rbp)
    af04:	ff ff ff 
    af07:	c7 85 e0 f3 ff ff fc 	movl   $0xfffffffc,-0xc20(%rbp)
    af0e:	ff ff ff 
    af11:	c7 85 e4 f3 ff ff fc 	movl   $0xfffffffc,-0xc1c(%rbp)
    af18:	ff ff ff 
    af1b:	c7 85 e8 f3 ff ff fc 	movl   $0xfffffffc,-0xc18(%rbp)
    af22:	ff ff ff 
    af25:	c7 85 ec f3 ff ff fc 	movl   $0xfffffffc,-0xc14(%rbp)
    af2c:	ff ff ff 
    af2f:	48 b8 01 23 27 ca 3d 	movabs $0x1fe31a3dca272301,%rax
    af36:	1a e3 1f 
    af39:	48 89 85 b0 f1 ff ff 	mov    %rax,-0xe50(%rbp)
    af40:	66 c7 85 4e ef ff ff 	movw   $0x0,-0x10b2(%rbp)
    af47:	00 00 
    af49:	48 8d 05 10 43 01 00 	lea    0x14310(%rip),%rax        # 1f260 <g_447>
    af50:	48 89 85 b8 f1 ff ff 	mov    %rax,-0xe48(%rbp)
    af57:	48 8d 05 ca 1a 01 00 	lea    0x11aca(%rip),%rax        # 1ca28 <g_77+0x648>
    af5e:	48 89 85 c0 f1 ff ff 	mov    %rax,-0xe40(%rbp)
    af65:	48 c7 85 00 f6 ff ff 	movq   $0x0,-0xa00(%rbp)
    af6c:	00 00 00 00 
    af70:	48 8d 05 21 1c 01 00 	lea    0x11c21(%rip),%rax        # 1cb98 <g_740>
    af77:	48 89 85 08 f6 ff ff 	mov    %rax,-0x9f8(%rbp)
    af7e:	48 c7 85 10 f6 ff ff 	movq   $0x0,-0x9f0(%rbp)
    af85:	00 00 00 00 
    af89:	48 c7 85 18 f6 ff ff 	movq   $0x0,-0x9e8(%rbp)
    af90:	00 00 00 00 
    af94:	48 8d 05 fd 1b 01 00 	lea    0x11bfd(%rip),%rax        # 1cb98 <g_740>
    af9b:	48 89 85 20 f6 ff ff 	mov    %rax,-0x9e0(%rbp)
    afa2:	48 c7 85 28 f6 ff ff 	movq   $0x0,-0x9d8(%rbp)
    afa9:	00 00 00 00 
    afad:	48 c7 85 30 f6 ff ff 	movq   $0x0,-0x9d0(%rbp)
    afb4:	00 00 00 00 
    afb8:	48 8d 05 d9 1b 01 00 	lea    0x11bd9(%rip),%rax        # 1cb98 <g_740>
    afbf:	48 89 85 38 f6 ff ff 	mov    %rax,-0x9c8(%rbp)
    afc6:	c7 85 f4 ef ff ff bc 	movl   $0x4db3edbc,-0x100c(%rbp)
    afcd:	ed b3 4d 
    afd0:	48 8d 05 81 49 01 00 	lea    0x14981(%rip),%rax        # 1f958 <g_2127+0x38>
    afd7:	48 89 85 c0 f7 ff ff 	mov    %rax,-0x840(%rbp)
    afde:	48 8d 05 43 49 01 00 	lea    0x14943(%rip),%rax        # 1f928 <g_2127+0x8>
    afe5:	48 89 85 c8 f7 ff ff 	mov    %rax,-0x838(%rbp)
    afec:	48 8d 05 45 49 01 00 	lea    0x14945(%rip),%rax        # 1f938 <g_2127+0x18>
    aff3:	48 89 85 d0 f7 ff ff 	mov    %rax,-0x830(%rbp)
    affa:	48 8d 05 67 49 01 00 	lea    0x14967(%rip),%rax        # 1f968 <g_2138>
    b001:	48 89 85 d8 f7 ff ff 	mov    %rax,-0x828(%rbp)
    b008:	48 8d 05 59 49 01 00 	lea    0x14959(%rip),%rax        # 1f968 <g_2138>
    b00f:	48 89 85 e0 f7 ff ff 	mov    %rax,-0x820(%rbp)
    b016:	48 8d 05 3b 49 01 00 	lea    0x1493b(%rip),%rax        # 1f958 <g_2127+0x38>
    b01d:	48 89 85 e8 f7 ff ff 	mov    %rax,-0x818(%rbp)
    b024:	48 8d 05 2d 49 01 00 	lea    0x1492d(%rip),%rax        # 1f958 <g_2127+0x38>
    b02b:	48 89 85 f0 f7 ff ff 	mov    %rax,-0x810(%rbp)
    b032:	48 8d 05 1f 49 01 00 	lea    0x1491f(%rip),%rax        # 1f958 <g_2127+0x38>
    b039:	48 89 85 f8 f7 ff ff 	mov    %rax,-0x808(%rbp)
    b040:	48 8d 05 11 49 01 00 	lea    0x14911(%rip),%rax        # 1f958 <g_2127+0x38>
    b047:	48 89 85 00 f8 ff ff 	mov    %rax,-0x800(%rbp)
    b04e:	48 8d 05 13 49 01 00 	lea    0x14913(%rip),%rax        # 1f968 <g_2138>
    b055:	48 89 85 08 f8 ff ff 	mov    %rax,-0x7f8(%rbp)
    b05c:	48 8d 05 05 49 01 00 	lea    0x14905(%rip),%rax        # 1f968 <g_2138>
    b063:	48 89 85 10 f8 ff ff 	mov    %rax,-0x7f0(%rbp)
    b06a:	48 8d 05 c7 48 01 00 	lea    0x148c7(%rip),%rax        # 1f938 <g_2127+0x18>
    b071:	48 89 85 18 f8 ff ff 	mov    %rax,-0x7e8(%rbp)
    b078:	48 8d 05 a9 48 01 00 	lea    0x148a9(%rip),%rax        # 1f928 <g_2127+0x8>
    b07f:	48 89 85 20 f8 ff ff 	mov    %rax,-0x7e0(%rbp)
    b086:	48 8d 05 cb 48 01 00 	lea    0x148cb(%rip),%rax        # 1f958 <g_2127+0x38>
    b08d:	48 89 85 28 f8 ff ff 	mov    %rax,-0x7d8(%rbp)
    b094:	48 8d 05 8d 48 01 00 	lea    0x1488d(%rip),%rax        # 1f928 <g_2127+0x8>
    b09b:	48 89 85 30 f8 ff ff 	mov    %rax,-0x7d0(%rbp)
    b0a2:	48 8d 05 7f 48 01 00 	lea    0x1487f(%rip),%rax        # 1f928 <g_2127+0x8>
    b0a9:	48 89 85 38 f8 ff ff 	mov    %rax,-0x7c8(%rbp)
    b0b0:	48 8d 05 b1 48 01 00 	lea    0x148b1(%rip),%rax        # 1f968 <g_2138>
    b0b7:	48 89 85 40 f8 ff ff 	mov    %rax,-0x7c0(%rbp)
    b0be:	48 8d 05 93 48 01 00 	lea    0x14893(%rip),%rax        # 1f958 <g_2127+0x38>
    b0c5:	48 89 85 48 f8 ff ff 	mov    %rax,-0x7b8(%rbp)
    b0cc:	48 8d 05 95 48 01 00 	lea    0x14895(%rip),%rax        # 1f968 <g_2138>
    b0d3:	48 89 85 50 f8 ff ff 	mov    %rax,-0x7b0(%rbp)
    b0da:	48 8d 05 47 48 01 00 	lea    0x14847(%rip),%rax        # 1f928 <g_2127+0x8>
    b0e1:	48 89 85 58 f8 ff ff 	mov    %rax,-0x7a8(%rbp)
    b0e8:	48 8d 05 39 48 01 00 	lea    0x14839(%rip),%rax        # 1f928 <g_2127+0x8>
    b0ef:	48 89 85 60 f8 ff ff 	mov    %rax,-0x7a0(%rbp)
    b0f6:	48 8d 85 c0 f7 ff ff 	lea    -0x840(%rbp),%rax
    b0fd:	48 83 c0 30          	add    $0x30,%rax
    b101:	48 89 85 c8 f1 ff ff 	mov    %rax,-0xe38(%rbp)
    b108:	48 8b 05 79 40 01 00 	mov    0x14079(%rip),%rax        # 1f188 <g_267>
    b10f:	8b 08                	mov    (%rax),%ecx
    b111:	0f b7 05 5a 1a 01 00 	movzwl 0x11a5a(%rip),%eax        # 1cb72 <g_146>
    b118:	0f b7 c0             	movzwl %ax,%eax
    b11b:	48 98                	cltq   
    b11d:	48 8d 14 85 00 00 00 	lea    0x0(,%rax,4),%rdx
    b124:	00 
    b125:	48 8d 05 84 12 01 00 	lea    0x11284(%rip),%rax        # 1c3b0 <g_38>
    b12c:	8b 14 02             	mov    (%rdx,%rax,1),%edx
    b12f:	48 8b 05 52 40 01 00 	mov    0x14052(%rip),%rax        # 1f188 <g_267>
    b136:	09 ca                	or     %ecx,%edx
    b138:	89 10                	mov    %edx,(%rax)
    b13a:	66 c7 05 2d 1a 01 00 	movw   $0x0,0x11a2d(%rip)        # 1cb70 <g_134>
    b141:	00 00 
    b143:	e9 98 00 00 00       	jmpq   b1e0 <func_10+0x608>
    b148:	c6 85 4b ef ff ff 3a 	movb   $0x3a,-0x10b5(%rbp)
    b14f:	c7 85 f8 ef ff ff 01 	movl   $0x1,-0x1008(%rbp)
    b156:	00 00 00 
    b159:	c7 85 fc ef ff ff 6e 	movl   $0x5acd0a6e,-0x1004(%rbp)
    b160:	0a cd 5a 
    b163:	c7 85 30 f0 ff ff 0c 	movl   $0x4e30d80c,-0xfd0(%rbp)
    b16a:	d8 30 4e 
    b16d:	48 c7 85 d0 f1 ff ff 	movq   $0x0,-0xe30(%rbp)
    b174:	00 00 00 00 
    b178:	c7 85 78 ef ff ff 00 	movl   $0x0,-0x1088(%rbp)
    b17f:	00 00 00 
    b182:	eb 42                	jmp    b1c6 <func_10+0x5ee>
    b184:	c7 85 70 ef ff ff 00 	movl   $0x0,-0x1090(%rbp)
    b18b:	00 00 00 
    b18e:	eb 26                	jmp    b1b6 <func_10+0x5de>
    b190:	8b 85 70 ef ff ff    	mov    -0x1090(%rbp),%eax
    b196:	48 63 d0             	movslq %eax,%rdx
    b199:	8b 85 78 ef ff ff    	mov    -0x1088(%rbp),%eax
    b19f:	48 98                	cltq   
    b1a1:	48 01 d0             	add    %rdx,%rax
    b1a4:	c7 84 85 30 f3 ff ff 	movl   $0xd49ad832,-0xcd0(%rbp,%rax,4)
    b1ab:	32 d8 9a d4 
    b1af:	83 85 70 ef ff ff 01 	addl   $0x1,-0x1090(%rbp)
    b1b6:	83 bd 70 ef ff ff 00 	cmpl   $0x0,-0x1090(%rbp)
    b1bd:	7e d1                	jle    b190 <func_10+0x5b8>
    b1bf:	83 85 78 ef ff ff 01 	addl   $0x1,-0x1088(%rbp)
    b1c6:	83 bd 78 ef ff ff 01 	cmpl   $0x1,-0x1088(%rbp)
    b1cd:	7e b5                	jle    b184 <func_10+0x5ac>
    b1cf:	0f b7 05 9a 19 01 00 	movzwl 0x1199a(%rip),%eax        # 1cb70 <g_134>
    b1d6:	83 c0 01             	add    $0x1,%eax
    b1d9:	66 89 05 90 19 01 00 	mov    %ax,0x11990(%rip)        # 1cb70 <g_134>
    b1e0:	0f b7 05 89 19 01 00 	movzwl 0x11989(%rip),%eax        # 1cb70 <g_134>
    b1e7:	66 83 f8 07          	cmp    $0x7,%ax
    b1eb:	0f 8e 57 ff ff ff    	jle    b148 <func_10+0x570>
    b1f1:	0f b7 05 7a 19 01 00 	movzwl 0x1197a(%rip),%eax        # 1cb72 <g_146>
    b1f8:	83 c0 01             	add    $0x1,%eax
    b1fb:	66 89 05 70 19 01 00 	mov    %ax,0x11970(%rip)        # 1cb72 <g_146>
    b202:	0f b7 05 69 19 01 00 	movzwl 0x11969(%rip),%eax        # 1cb72 <g_146>
    b209:	66 83 f8 03          	cmp    $0x3,%ax
    b20d:	0f 86 a4 fc ff ff    	jbe    aeb7 <func_10+0x2df>
    b213:	66 c7 05 2c 20 01 00 	movw   $0x14,0x1202c(%rip)        # 1d248 <g_1968>
    b21a:	14 00 
    b21c:	90                   	nop
    b21d:	0f b7 05 24 20 01 00 	movzwl 0x12024(%rip),%eax        # 1d248 <g_1968>
    b224:	66 85 c0             	test   %ax,%ax
    b227:	0f 89 90 1b 00 00    	jns    cdbd <func_10+0x21e5>
    b22d:	c7 85 58 ef ff ff 00 	movl   $0x0,-0x10a8(%rbp)
    b234:	00 00 00 
    b237:	48 8d 05 3a 19 01 00 	lea    0x1193a(%rip),%rax        # 1cb78 <g_254>
    b23e:	48 89 85 20 f0 ff ff 	mov    %rax,-0xfe0(%rbp)
    b245:	48 8d 85 20 f0 ff ff 	lea    -0xfe0(%rbp),%rax
    b24c:	48 89 85 28 f0 ff ff 	mov    %rax,-0xfd8(%rbp)
    b253:	48 8d 85 28 f0 ff ff 	lea    -0xfd8(%rbp),%rax
    b25a:	48 89 85 90 f0 ff ff 	mov    %rax,-0xf70(%rbp)
    b261:	c7 85 ac ef ff ff 75 	movl   $0x908c8e75,-0x1054(%rbp)
    b268:	8e 8c 90 
    b26b:	c7 85 f0 f1 ff ff 00 	movl   $0x0,-0xe10(%rbp)
    b272:	00 00 00 
    b275:	c7 85 f4 f1 ff ff 00 	movl   $0x0,-0xe0c(%rbp)
    b27c:	00 00 00 
    b27f:	c7 85 f8 f1 ff ff 00 	movl   $0x0,-0xe08(%rbp)
    b286:	00 00 00 
    b289:	c7 85 fc f1 ff ff 00 	movl   $0x0,-0xe04(%rbp)
    b290:	00 00 00 
    b293:	c6 85 47 ef ff ff 3c 	movb   $0x3c,-0x10b9(%rbp)
    b29a:	c7 85 b0 ef ff ff 01 	movl   $0x1,-0x1050(%rbp)
    b2a1:	00 00 00 
    b2a4:	c7 85 6c ef ff ff 5d 	movl   $0xdead4e5d,-0x1094(%rbp)
    b2ab:	4e ad de 
    b2ae:	c6 85 49 ef ff ff 44 	movb   $0x44,-0x10b7(%rbp)
    b2b5:	c7 85 b4 ef ff ff 00 	movl   $0x0,-0x104c(%rbp)
    b2bc:	00 00 00 
    b2bf:	c7 85 b8 ef ff ff 8b 	movl   $0x9ea2aa8b,-0x1048(%rbp)
    b2c6:	aa a2 9e 
    b2c9:	48 8d 05 88 45 01 00 	lea    0x14588(%rip),%rax        # 1f858 <g_1494>
    b2d0:	48 89 85 98 f0 ff ff 	mov    %rax,-0xf68(%rbp)
    b2d7:	48 8d 05 ba 18 01 00 	lea    0x118ba(%rip),%rax        # 1cb98 <g_740>
    b2de:	48 89 85 a0 f0 ff ff 	mov    %rax,-0xf60(%rbp)
    b2e5:	48 c7 85 a8 f0 ff ff 	movq   $0x0,-0xf58(%rbp)
    b2ec:	00 00 00 00 
    b2f0:	48 b8 68 c1 e3 45 a0 	movabs $0xbe3bc8a045e3c168,%rax
    b2f7:	c8 3b be 
    b2fa:	48 89 85 b0 f0 ff ff 	mov    %rax,-0xf50(%rbp)
    b301:	c7 85 84 ef ff ff 00 	movl   $0x0,-0x107c(%rbp)
    b308:	00 00 00 
    b30b:	eb 71                	jmp    b37e <func_10+0x7a6>
    b30d:	c7 85 88 ef ff ff 00 	movl   $0x0,-0x1078(%rbp)
    b314:	00 00 00 
    b317:	eb 55                	jmp    b36e <func_10+0x796>
    b319:	c7 85 8c ef ff ff 00 	movl   $0x0,-0x1074(%rbp)
    b320:	00 00 00 
    b323:	eb 39                	jmp    b35e <func_10+0x786>
    b325:	8b 85 8c ef ff ff    	mov    -0x1074(%rbp),%eax
    b32b:	48 63 d0             	movslq %eax,%rdx
    b32e:	8b 85 88 ef ff ff    	mov    -0x1078(%rbp),%eax
    b334:	48 98                	cltq   
    b336:	8b 8d 84 ef ff ff    	mov    -0x107c(%rbp),%ecx
    b33c:	48 63 c9             	movslq %ecx,%rcx
    b33f:	48 01 c9             	add    %rcx,%rcx
    b342:	48 01 ca             	add    %rcx,%rdx
    b345:	48 01 d0             	add    %rdx,%rax
    b348:	48 8d 15 65 18 01 00 	lea    0x11865(%rip),%rdx        # 1cbb4 <g_1049+0x14>
    b34f:	48 89 94 c5 30 f3 ff 	mov    %rdx,-0xcd0(%rbp,%rax,8)
    b356:	ff 
    b357:	83 85 8c ef ff ff 01 	addl   $0x1,-0x1074(%rbp)
    b35e:	83 bd 8c ef ff ff 00 	cmpl   $0x0,-0x1074(%rbp)
    b365:	7e be                	jle    b325 <func_10+0x74d>
    b367:	83 85 88 ef ff ff 01 	addl   $0x1,-0x1078(%rbp)
    b36e:	83 bd 88 ef ff ff 01 	cmpl   $0x1,-0x1078(%rbp)
    b375:	7e a2                	jle    b319 <func_10+0x741>
    b377:	83 85 84 ef ff ff 01 	addl   $0x1,-0x107c(%rbp)
    b37e:	83 bd 84 ef ff ff 09 	cmpl   $0x9,-0x107c(%rbp)
    b385:	7e 86                	jle    b30d <func_10+0x735>
    b387:	48 8b 85 60 f0 ff ff 	mov    -0xfa0(%rbp),%rax
    b38e:	48 89 05 7b 4a 01 00 	mov    %rax,0x14a7b(%rip)        # 1fe10 <g_2840>
    b395:	48 8b 05 74 4a 01 00 	mov    0x14a74(%rip),%rax        # 1fe10 <g_2840>
    b39c:	48 39 85 38 f0 ff ff 	cmp    %rax,-0xfc8(%rbp)
    b3a3:	0f 84 ef 0d 00 00    	je     c198 <func_10+0x15c0>
    b3a9:	c7 85 c4 ef ff ff 9c 	movl   $0x1b52b39c,-0x103c(%rbp)
    b3b0:	b3 52 1b 
    b3b3:	c7 85 c8 ef ff ff 70 	movl   $0x1b95ad70,-0x1038(%rbp)
    b3ba:	ad 95 1b 
    b3bd:	48 8d 85 28 f0 ff ff 	lea    -0xfd8(%rbp),%rax
    b3c4:	48 89 85 28 f1 ff ff 	mov    %rax,-0xed8(%rbp)
    b3cb:	66 c7 85 4c ef ff ff 	movw   $0xeca2,-0x10b4(%rbp)
    b3d2:	a2 ec 
    b3d4:	c7 85 cc ef ff ff 3e 	movl   $0x8844d13e,-0x1034(%rbp)
    b3db:	d1 44 88 
    b3de:	c7 85 90 ef ff ff 00 	movl   $0x0,-0x1070(%rbp)
    b3e5:	00 00 00 
    b3e8:	eb 4c                	jmp    b436 <func_10+0x85e>
    b3ea:	c7 85 94 ef ff ff 00 	movl   $0x0,-0x106c(%rbp)
    b3f1:	00 00 00 
    b3f4:	eb 30                	jmp    b426 <func_10+0x84e>
    b3f6:	8b 85 94 ef ff ff    	mov    -0x106c(%rbp),%eax
    b3fc:	48 63 c8             	movslq %eax,%rcx
    b3ff:	8b 85 90 ef ff ff    	mov    -0x1070(%rbp),%eax
    b405:	48 63 d0             	movslq %eax,%rdx
    b408:	48 89 d0             	mov    %rdx,%rax
    b40b:	48 01 c0             	add    %rax,%rax
    b40e:	48 01 d0             	add    %rdx,%rax
    b411:	48 01 c8             	add    %rcx,%rax
    b414:	c7 84 85 b0 f2 ff ff 	movl   $0x76cf3548,-0xd50(%rbp,%rax,4)
    b41b:	48 35 cf 76 
    b41f:	83 85 94 ef ff ff 01 	addl   $0x1,-0x106c(%rbp)
    b426:	83 bd 94 ef ff ff 02 	cmpl   $0x2,-0x106c(%rbp)
    b42d:	7e c7                	jle    b3f6 <func_10+0x81e>
    b42f:	83 85 90 ef ff ff 01 	addl   $0x1,-0x1070(%rbp)
    b436:	83 bd 90 ef ff ff 00 	cmpl   $0x0,-0x1070(%rbp)
    b43d:	7e ab                	jle    b3ea <func_10+0x812>
    b43f:	c7 85 90 ef ff ff 00 	movl   $0x0,-0x1070(%rbp)
    b446:	00 00 00 
    b449:	eb 1e                	jmp    b469 <func_10+0x891>
    b44b:	8b 85 90 ef ff ff    	mov    -0x1070(%rbp),%eax
    b451:	48 98                	cltq   
    b453:	48 8d 95 08 f0 ff ff 	lea    -0xff8(%rbp),%rdx
    b45a:	48 89 94 c5 d0 f3 ff 	mov    %rdx,-0xc30(%rbp,%rax,8)
    b461:	ff 
    b462:	83 85 90 ef ff ff 01 	addl   $0x1,-0x1070(%rbp)
    b469:	83 bd 90 ef ff ff 09 	cmpl   $0x9,-0x1070(%rbp)
    b470:	7e d9                	jle    b44b <func_10+0x873>
    b472:	c7 85 80 ef ff ff 00 	movl   $0x0,-0x1080(%rbp)
    b479:	00 00 00 
    b47c:	e9 fe 0c 00 00       	jmpq   c17f <func_10+0x15a7>
    b481:	c7 85 d0 ef ff ff fd 	movl   $0x44eb37fd,-0x1030(%rbp)
    b488:	37 eb 44 
    b48b:	c7 85 5c ef ff ff 01 	movl   $0x1,-0x10a4(%rbp)
    b492:	00 00 00 
    b495:	c7 85 d4 ef ff ff 08 	movl   $0x8,-0x102c(%rbp)
    b49c:	00 00 00 
    b49f:	c7 85 60 ef ff ff fb 	movl   $0xfffffffb,-0x10a0(%rbp)
    b4a6:	ff ff ff 
    b4a9:	c7 85 64 ef ff ff ce 	movl   $0x77884ace,-0x109c(%rbp)
    b4b0:	4a 88 77 
    b4b3:	48 c7 85 30 f1 ff ff 	movq   $0x0,-0xed0(%rbp)
    b4ba:	00 00 00 00 
    b4be:	c7 85 d8 ef ff ff 87 	movl   $0x68d8c687,-0x1028(%rbp)
    b4c5:	c6 d8 68 
    b4c8:	48 8d 85 50 ef ff ff 	lea    -0x10b0(%rbp),%rax
    b4cf:	48 89 85 30 f0 ff ff 	mov    %rax,-0xfd0(%rbp)
    b4d6:	c7 85 dc ef ff ff 39 	movl   $0xd7cd7939,-0x1024(%rbp)
    b4dd:	79 cd d7 
    b4e0:	0f b7 85 34 ef ff ff 	movzwl -0x10cc(%rbp),%eax
    b4e7:	66 85 c0             	test   %ax,%ax
    b4ea:	0f 85 77 0c 00 00    	jne    c167 <func_10+0x158f>
    b4f0:	0f b7 05 51 1d 01 00 	movzwl 0x11d51(%rip),%eax        # 1d248 <g_1968>
    b4f7:	66 85 c0             	test   %ax,%ax
    b4fa:	0f 85 6d 0c 00 00    	jne    c16d <func_10+0x1595>
    b500:	48 8b 05 59 3d 01 00 	mov    0x13d59(%rip),%rax        # 1f260 <g_447>
    b507:	0f b6 00             	movzbl (%rax),%eax
    b50a:	0f be d8             	movsbl %al,%ebx
    b50d:	8b 85 38 ef ff ff    	mov    -0x10c8(%rbp),%eax
    b513:	89 85 58 ef ff ff    	mov    %eax,-0x10a8(%rbp)
    b519:	8b 85 58 ef ff ff    	mov    -0x10a8(%rbp),%eax
    b51f:	85 c0                	test   %eax,%eax
    b521:	0f 85 20 01 00 00    	jne    b647 <func_10+0xa6f>
    b527:	44 8b a5 d8 ef ff ff 	mov    -0x1028(%rbp),%r12d
    b52e:	48 8b 05 5b 3d 01 00 	mov    0x13d5b(%rip),%rax        # 1f290 <g_647>
    b535:	48 8b 00             	mov    (%rax),%rax
    b538:	8b 00                	mov    (%rax),%eax
    b53a:	41 89 c7             	mov    %eax,%r15d
    b53d:	48 8b 05 44 3c 01 00 	mov    0x13c44(%rip),%rax        # 1f188 <g_267>
    b544:	8b 95 e8 f1 ff ff    	mov    -0xe18(%rbp),%edx
    b54a:	89 10                	mov    %edx,(%rax)
    b54c:	48 8b 05 55 46 01 00 	mov    0x14655(%rip),%rax        # 1fba8 <g_2397>
    b553:	48 8b 00             	mov    (%rax),%rax
    b556:	0f b6 00             	movzbl (%rax),%eax
    b559:	44 0f b6 e8          	movzbl %al,%r13d
    b55d:	be 06 00 00 00       	mov    $0x6,%esi
    b562:	bf f6 00 00 00       	mov    $0xf6,%edi
    b567:	e8 52 e7 ff ff       	callq  9cbe <safe_rshift_func_uint8_t_u_u>
    b56c:	44 0f b6 f0          	movzbl %al,%r14d
    b570:	8b 85 58 ef ff ff    	mov    -0x10a8(%rbp),%eax
    b576:	0f b7 d0             	movzwl %ax,%edx
    b579:	66 0f be 85 3c ef ff 	movsbw -0x10c4(%rbp),%ax
    b580:	ff 
    b581:	0f b7 c0             	movzwl %ax,%eax
    b584:	89 d6                	mov    %edx,%esi
    b586:	89 c7                	mov    %eax,%edi
    b588:	e8 01 e8 ff ff       	callq  9d8e <safe_div_func_uint16_t_u_u>
    b58d:	66 41 39 c6          	cmp    %ax,%r14w
    b591:	0f 95 c0             	setne  %al
    b594:	0f b6 c0             	movzbl %al,%eax
    b597:	44 89 ee             	mov    %r13d,%esi
    b59a:	89 c7                	mov    %eax,%edi
    b59c:	e8 0d e6 ff ff       	callq  9bae <safe_mod_func_uint8_t_u_u>
    b5a1:	83 bd c4 ef ff ff 01 	cmpl   $0x1,-0x103c(%rbp)
    b5a8:	48 83 bd 90 f0 ff ff 	cmpq   $0x0,-0xf70(%rbp)
    b5af:	00 
    b5b0:	0f 95 c0             	setne  %al
    b5b3:	0f b6 c0             	movzbl %al,%eax
    b5b6:	44 89 fe             	mov    %r15d,%esi
    b5b9:	89 c7                	mov    %eax,%edi
    b5bb:	e8 3f e1 ff ff       	callq  96ff <safe_div_func_int32_t_s_s>
    b5c0:	85 c0                	test   %eax,%eax
    b5c2:	75 0a                	jne    b5ce <func_10+0x9f6>
    b5c4:	8b 85 54 ef ff ff    	mov    -0x10ac(%rbp),%eax
    b5ca:	85 c0                	test   %eax,%eax
    b5cc:	74 07                	je     b5d5 <func_10+0x9fd>
    b5ce:	b8 01 00 00 00       	mov    $0x1,%eax
    b5d3:	eb 05                	jmp    b5da <func_10+0xa02>
    b5d5:	b8 00 00 00 00       	mov    $0x0,%eax
    b5da:	89 85 c8 ef ff ff    	mov    %eax,-0x1038(%rbp)
    b5e0:	8b 95 c8 ef ff ff    	mov    -0x1038(%rbp),%edx
    b5e6:	48 8b 05 ab 3c 01 00 	mov    0x13cab(%rip),%rax        # 1f298 <g_868>
    b5ed:	0f b7 00             	movzwl (%rax),%eax
    b5f0:	89 c1                	mov    %eax,%ecx
    b5f2:	89 d0                	mov    %edx,%eax
    b5f4:	31 c1                	xor    %eax,%ecx
    b5f6:	89 ca                	mov    %ecx,%edx
    b5f8:	48 8b 05 99 3c 01 00 	mov    0x13c99(%rip),%rax        # 1f298 <g_868>
    b5ff:	66 89 10             	mov    %dx,(%rax)
    b602:	0f b7 00             	movzwl (%rax),%eax
    b605:	0f b7 c0             	movzwl %ax,%eax
    b608:	39 85 d4 ef ff ff    	cmp    %eax,-0x102c(%rbp)
    b60e:	0f 9d c0             	setge  %al
    b611:	0f b6 c0             	movzbl %al,%eax
    b614:	be f6 ff 00 00       	mov    $0xfff6,%esi
    b619:	89 c7                	mov    %eax,%edi
    b61b:	e8 3c e7 ff ff       	callq  9d5c <safe_mod_func_uint16_t_u_u>
    b620:	0f b7 d0             	movzwl %ax,%edx
    b623:	8b 85 38 ef ff ff    	mov    -0x10c8(%rbp),%eax
    b629:	39 c2                	cmp    %eax,%edx
    b62b:	0f 9c c0             	setl   %al
    b62e:	0f b6 c0             	movzbl %al,%eax
    b631:	44 89 e6             	mov    %r12d,%esi
    b634:	89 c7                	mov    %eax,%edi
    b636:	e8 7b df ff ff       	callq  95b6 <safe_add_func_int32_t_s_s>
    b63b:	f7 d0                	not    %eax
    b63d:	89 c2                	mov    %eax,%edx
    b63f:	8b 85 60 ef ff ff    	mov    -0x10a0(%rbp),%eax
    b645:	39 c2                	cmp    %eax,%edx
    b647:	48 8b 05 42 3b 01 00 	mov    0x13b42(%rip),%rax        # 1f190 <g_302>
    b64e:	48 8b 10             	mov    (%rax),%rdx
    b651:	48 8b 85 58 f0 ff ff 	mov    -0xfa8(%rbp),%rax
    b658:	48 8b 00             	mov    (%rax),%rax
    b65b:	48 8b 00             	mov    (%rax),%rax
    b65e:	48 39 c2             	cmp    %rax,%rdx
    b661:	74 0a                	je     b66d <func_10+0xa95>
    b663:	8b 85 38 ef ff ff    	mov    -0x10c8(%rbp),%eax
    b669:	85 c0                	test   %eax,%eax
    b66b:	74 07                	je     b674 <func_10+0xa9c>
    b66d:	b8 01 00 00 00       	mov    $0x1,%eax
    b672:	eb 05                	jmp    b679 <func_10+0xaa1>
    b674:	b8 00 00 00 00       	mov    $0x0,%eax
    b679:	0f be c0             	movsbl %al,%eax
    b67c:	89 de                	mov    %ebx,%esi
    b67e:	89 c7                	mov    %eax,%edi
    b680:	e8 e5 db ff ff       	callq  926a <safe_div_func_int8_t_s_s>
    b685:	0f be d0             	movsbl %al,%edx
    b688:	8b 85 e8 f1 ff ff    	mov    -0xe18(%rbp),%eax
    b68e:	39 c2                	cmp    %eax,%edx
    b690:	0f 9e c2             	setle  %dl
    b693:	48 8b 85 30 f0 ff ff 	mov    -0xfd0(%rbp),%rax
    b69a:	0f b6 d2             	movzbl %dl,%edx
    b69d:	89 10                	mov    %edx,(%rax)
    b69f:	48 c7 05 be 14 01 00 	movq   $0x0,0x114be(%rip)        # 1cb68 <g_113>
    b6a6:	00 00 00 00 
    b6aa:	eb 5b                	jmp    b707 <func_10+0xb2f>
    b6ac:	48 8d 05 2d 1c 01 00 	lea    0x11c2d(%rip),%rax        # 1d2e0 <g_2635>
    b6b3:	48 89 85 a0 f1 ff ff 	mov    %rax,-0xe60(%rbp)
    b6ba:	48 8d 85 30 f0 ff ff 	lea    -0xfd0(%rbp),%rax
    b6c1:	48 89 85 a8 f1 ff ff 	mov    %rax,-0xe58(%rbp)
    b6c8:	48 83 bd a0 f1 ff ff 	cmpq   $0x0,-0xe60(%rbp)
    b6cf:	00 
    b6d0:	0f 94 c0             	sete   %al
    b6d3:	0f b6 c0             	movzbl %al,%eax
    b6d6:	89 c7                	mov    %eax,%edi
    b6d8:	e8 c9 e7 ff ff       	callq  9ea6 <safe_unary_minus_func_uint32_t_u>
    b6dd:	0f b7 05 64 1c 01 00 	movzwl 0x11c64(%rip),%eax        # 1d348 <g_2882>
    b6e4:	48 8b 85 a8 f1 ff ff 	mov    -0xe58(%rbp),%rax
    b6eb:	48 8b 95 a0 f1 ff ff 	mov    -0xe60(%rbp),%rdx
    b6f2:	48 89 10             	mov    %rdx,(%rax)
    b6f5:	48 8b 05 6c 14 01 00 	mov    0x1146c(%rip),%rax        # 1cb68 <g_113>
    b6fc:	48 83 c0 01          	add    $0x1,%rax
    b700:	48 89 05 61 14 01 00 	mov    %rax,0x11461(%rip)        # 1cb68 <g_113>
    b707:	48 8b 05 5a 14 01 00 	mov    0x1145a(%rip),%rax        # 1cb68 <g_113>
    b70e:	48 83 f8 02          	cmp    $0x2,%rax
    b712:	76 98                	jbe    b6ac <func_10+0xad4>
    b714:	0f be 85 3c ef ff ff 	movsbl -0x10c4(%rbp),%eax
    b71b:	0f b7 95 34 ef ff ff 	movzwl -0x10cc(%rbp),%edx
    b722:	0f bf d2             	movswl %dx,%edx
    b725:	83 e2 06             	and    $0x6,%edx
    b728:	89 c6                	mov    %eax,%esi
    b72a:	89 d7                	mov    %edx,%edi
    b72c:	e8 82 dc ff ff       	callq  93b3 <safe_add_func_int16_t_s_s>
    b731:	0f bf d0             	movswl %ax,%edx
    b734:	8b 85 38 ef ff ff    	mov    -0x10c8(%rbp),%eax
    b73a:	21 d0                	and    %edx,%eax
    b73c:	89 85 38 ef ff ff    	mov    %eax,-0x10c8(%rbp)
    b742:	66 c7 85 34 ef ff ff 	movw   $0x0,-0x10cc(%rbp)
    b749:	00 00 
    b74b:	e9 fb 09 00 00       	jmpq   c14b <func_10+0x1573>
    b750:	48 8d 05 11 14 01 00 	lea    0x11411(%rip),%rax        # 1cb68 <g_113>
    b757:	48 89 85 38 f1 ff ff 	mov    %rax,-0xec8(%rbp)
    b75e:	48 8d 05 43 44 01 00 	lea    0x14443(%rip),%rax        # 1fba8 <g_2397>
    b765:	48 89 85 40 f1 ff ff 	mov    %rax,-0xec0(%rbp)
    b76c:	c7 85 68 ef ff ff 00 	movl   $0x0,-0x1098(%rbp)
    b773:	00 00 00 
    b776:	c7 85 e0 ef ff ff f7 	movl   $0xfffffff7,-0x1020(%rbp)
    b77d:	ff ff ff 
    b780:	c7 85 00 f6 ff ff ff 	movl   $0xffffffff,-0xa00(%rbp)
    b787:	ff ff ff 
    b78a:	c7 85 04 f6 ff ff ff 	movl   $0xffffffff,-0x9fc(%rbp)
    b791:	ff ff ff 
    b794:	c7 85 08 f6 ff ff ff 	movl   $0xffffffff,-0x9f8(%rbp)
    b79b:	ff ff ff 
    b79e:	c7 85 0c f6 ff ff ff 	movl   $0xffffffff,-0x9f4(%rbp)
    b7a5:	ff ff ff 
    b7a8:	c7 85 10 f6 ff ff ff 	movl   $0xffffffff,-0x9f0(%rbp)
    b7af:	ff ff ff 
    b7b2:	c7 85 14 f6 ff ff ff 	movl   $0xffffffff,-0x9ec(%rbp)
    b7b9:	ff ff ff 
    b7bc:	c7 85 18 f6 ff ff ff 	movl   $0xffffffff,-0x9e8(%rbp)
    b7c3:	ff ff ff 
    b7c6:	c7 85 1c f6 ff ff ff 	movl   $0xffffffff,-0x9e4(%rbp)
    b7cd:	ff ff ff 
    b7d0:	c7 85 20 f6 ff ff ff 	movl   $0xffffffff,-0x9e0(%rbp)
    b7d7:	ff ff ff 
    b7da:	c7 85 24 f6 ff ff ff 	movl   $0xffffffff,-0x9dc(%rbp)
    b7e1:	ff ff ff 
    b7e4:	c7 85 28 f6 ff ff ff 	movl   $0xffffffff,-0x9d8(%rbp)
    b7eb:	ff ff ff 
    b7ee:	c7 85 2c f6 ff ff ff 	movl   $0xffffffff,-0x9d4(%rbp)
    b7f5:	ff ff ff 
    b7f8:	c7 85 30 f6 ff ff ff 	movl   $0xffffffff,-0x9d0(%rbp)
    b7ff:	ff ff ff 
    b802:	c7 85 34 f6 ff ff ff 	movl   $0xffffffff,-0x9cc(%rbp)
    b809:	ff ff ff 
    b80c:	c7 85 38 f6 ff ff ff 	movl   $0xffffffff,-0x9c8(%rbp)
    b813:	ff ff ff 
    b816:	c7 85 3c f6 ff ff ff 	movl   $0xffffffff,-0x9c4(%rbp)
    b81d:	ff ff ff 
    b820:	c7 85 40 f6 ff ff ff 	movl   $0xffffffff,-0x9c0(%rbp)
    b827:	ff ff ff 
    b82a:	c7 85 44 f6 ff ff ff 	movl   $0xffffffff,-0x9bc(%rbp)
    b831:	ff ff ff 
    b834:	c7 85 48 f6 ff ff ff 	movl   $0xffffffff,-0x9b8(%rbp)
    b83b:	ff ff ff 
    b83e:	c7 85 4c f6 ff ff ff 	movl   $0xffffffff,-0x9b4(%rbp)
    b845:	ff ff ff 
    b848:	c7 85 50 f6 ff ff ff 	movl   $0xffffffff,-0x9b0(%rbp)
    b84f:	ff ff ff 
    b852:	c7 85 54 f6 ff ff ff 	movl   $0xffffffff,-0x9ac(%rbp)
    b859:	ff ff ff 
    b85c:	c7 85 58 f6 ff ff ff 	movl   $0xffffffff,-0x9a8(%rbp)
    b863:	ff ff ff 
    b866:	c7 85 5c f6 ff ff ff 	movl   $0xffffffff,-0x9a4(%rbp)
    b86d:	ff ff ff 
    b870:	c7 85 60 f6 ff ff ff 	movl   $0xffffffff,-0x9a0(%rbp)
    b877:	ff ff ff 
    b87a:	c7 85 64 f6 ff ff ff 	movl   $0xffffffff,-0x99c(%rbp)
    b881:	ff ff ff 
    b884:	c7 85 68 f6 ff ff ff 	movl   $0xffffffff,-0x998(%rbp)
    b88b:	ff ff ff 
    b88e:	c7 85 6c f6 ff ff ff 	movl   $0xffffffff,-0x994(%rbp)
    b895:	ff ff ff 
    b898:	c7 85 70 f6 ff ff ff 	movl   $0xffffffff,-0x990(%rbp)
    b89f:	ff ff ff 
    b8a2:	c7 85 74 f6 ff ff ff 	movl   $0xffffffff,-0x98c(%rbp)
    b8a9:	ff ff ff 
    b8ac:	c7 85 78 f6 ff ff ff 	movl   $0xffffffff,-0x988(%rbp)
    b8b3:	ff ff ff 
    b8b6:	c7 85 7c f6 ff ff ff 	movl   $0xffffffff,-0x984(%rbp)
    b8bd:	ff ff ff 
    b8c0:	c7 85 80 f6 ff ff ff 	movl   $0xffffffff,-0x980(%rbp)
    b8c7:	ff ff ff 
    b8ca:	c7 85 84 f6 ff ff ff 	movl   $0xffffffff,-0x97c(%rbp)
    b8d1:	ff ff ff 
    b8d4:	c7 85 88 f6 ff ff ff 	movl   $0xffffffff,-0x978(%rbp)
    b8db:	ff ff ff 
    b8de:	c7 85 8c f6 ff ff ff 	movl   $0xffffffff,-0x974(%rbp)
    b8e5:	ff ff ff 
    b8e8:	c7 85 90 f6 ff ff ff 	movl   $0xffffffff,-0x970(%rbp)
    b8ef:	ff ff ff 
    b8f2:	c7 85 94 f6 ff ff ff 	movl   $0xffffffff,-0x96c(%rbp)
    b8f9:	ff ff ff 
    b8fc:	c7 85 98 f6 ff ff ff 	movl   $0xffffffff,-0x968(%rbp)
    b903:	ff ff ff 
    b906:	c7 85 9c f6 ff ff ff 	movl   $0xffffffff,-0x964(%rbp)
    b90d:	ff ff ff 
    b910:	8b 85 ac ef ff ff    	mov    -0x1054(%rbp),%eax
    b916:	0f be d8             	movsbl %al,%ebx
    b919:	48 8b 85 38 f1 ff ff 	mov    -0xec8(%rbp),%rax
    b920:	48 8b 00             	mov    (%rax),%rax
    b923:	48 8d 50 01          	lea    0x1(%rax),%rdx
    b927:	48 8b 85 38 f1 ff ff 	mov    -0xec8(%rbp),%rax
    b92e:	48 89 10             	mov    %rdx,(%rax)
    b931:	48 8b 85 38 f1 ff ff 	mov    -0xec8(%rbp),%rax
    b938:	48 8b 10             	mov    (%rax),%rdx
    b93b:	8b 85 e8 f1 ff ff    	mov    -0xe18(%rbp),%eax
    b941:	48 98                	cltq   
    b943:	48 89 d6             	mov    %rdx,%rsi
    b946:	48 89 c7             	mov    %rax,%rdi
    b949:	e8 fd e6 ff ff       	callq  a04b <safe_sub_func_uint64_t_u_u>
    b94e:	48 89 85 28 ef ff ff 	mov    %rax,-0x10d8(%rbp)
    b955:	44 0f be a5 3c ef ff 	movsbl -0x10c4(%rbp),%r12d
    b95c:	ff 
    b95d:	0f b7 85 34 ef ff ff 	movzwl -0x10cc(%rbp),%eax
    b964:	98                   	cwtl   
    b965:	8b 95 80 ef ff ff    	mov    -0x1080(%rbp),%edx
    b96b:	48 63 d2             	movslq %edx,%rdx
    b96e:	48 98                	cltq   
    b970:	8b 8d 80 ef ff ff    	mov    -0x1080(%rbp),%ecx
    b976:	48 63 c9             	movslq %ecx,%rcx
    b979:	48 01 c9             	add    %rcx,%rcx
    b97c:	48 01 ca             	add    %rcx,%rdx
    b97f:	48 01 d0             	add    %rdx,%rax
    b982:	48 8d 14 85 00 00 00 	lea    0x0(,%rax,4),%rdx
    b989:	00 
    b98a:	48 8d 05 cf 18 01 00 	lea    0x118cf(%rip),%rax        # 1d260 <g_2246>
    b991:	c7 04 02 53 62 f9 84 	movl   $0x84f96253,(%rdx,%rax,1)
    b998:	48 8b 05 c1 38 01 00 	mov    0x138c1(%rip),%rax        # 1f260 <g_447>
    b99f:	0f b6 00             	movzbl (%rax),%eax
    b9a2:	44 0f be e8          	movsbl %al,%r13d
    b9a6:	0f b7 05 ab 51 01 00 	movzwl 0x151ab(%rip),%eax        # 20b58 <g_148>
    b9ad:	0f b7 c8             	movzwl %ax,%ecx
    b9b0:	89 8d 30 ef ff ff    	mov    %ecx,-0x10d0(%rbp)
    b9b6:	48 8b 05 93 3e 01 00 	mov    0x13e93(%rip),%rax        # 1f850 <g_1495>
    b9bd:	48 8b 00             	mov    (%rax),%rax
    b9c0:	44 8b 38             	mov    (%rax),%r15d
    b9c3:	44 0f be b5 3c ef ff 	movsbl -0x10c4(%rbp),%r14d
    b9ca:	ff 
    b9cb:	c7 85 c8 ef ff ff 01 	movl   $0x1,-0x1038(%rbp)
    b9d2:	00 00 00 
    b9d5:	8b 85 58 ef ff ff    	mov    -0x10a8(%rbp),%eax
    b9db:	0f b7 f8             	movzwl %ax,%edi
    b9de:	89 bd 24 ef ff ff    	mov    %edi,-0x10dc(%rbp)
    b9e4:	48 8b 05 75 3e 01 00 	mov    0x13e75(%rip),%rax        # 1f860 <g_1771>
    b9eb:	0f b6 00             	movzbl (%rax),%eax
    b9ee:	0f b6 c0             	movzbl %al,%eax
    b9f1:	be 00 00 00 00       	mov    $0x0,%esi
    b9f6:	89 c7                	mov    %eax,%edi
    b9f8:	e8 4f e2 ff ff       	callq  9c4c <safe_lshift_func_uint8_t_u_u>
    b9fd:	0f b6 c0             	movzbl %al,%eax
    ba00:	8b b5 24 ef ff ff    	mov    -0x10dc(%rbp),%esi
    ba06:	89 c7                	mov    %eax,%edi
    ba08:	e8 30 e3 ff ff       	callq  9d3d <safe_mul_func_uint16_t_u_u>
    ba0d:	48 8b 05 14 3e 01 00 	mov    0x13e14(%rip),%rax        # 1f828 <g_1460>
    ba14:	48 8b 00             	mov    (%rax),%rax
    ba17:	8b 10                	mov    (%rax),%edx
    ba19:	8b 85 38 ef ff ff    	mov    -0x10c8(%rbp),%eax
    ba1f:	39 c2                	cmp    %eax,%edx
    ba21:	0f 9c c0             	setl   %al
    ba24:	0f b6 d0             	movzbl %al,%edx
    ba27:	0f be 85 3c ef ff ff 	movsbl -0x10c4(%rbp),%eax
    ba2e:	39 c2                	cmp    %eax,%edx
    ba30:	8b 85 58 ef ff ff    	mov    -0x10a8(%rbp),%eax
    ba36:	48 98                	cltq   
    ba38:	48 89 c7             	mov    %rax,%rdi
    ba3b:	e8 d9 e5 ff ff       	callq  a019 <safe_unary_minus_func_uint64_t_u>
    ba40:	0f b6 c0             	movzbl %al,%eax
    ba43:	8b 8d 30 ef ff ff    	mov    -0x10d0(%rbp),%ecx
    ba49:	44 89 fa             	mov    %r15d,%edx
    ba4c:	44 89 f6             	mov    %r14d,%esi
    ba4f:	89 c7                	mov    %eax,%edi
    ba51:	e8 18 19 00 00       	callq  d36e <func_24>
    ba56:	48 8b 85 28 f1 ff ff 	mov    -0xed8(%rbp),%rax
    ba5d:	48 3b 85 40 f1 ff ff 	cmp    -0xec0(%rbp),%rax
    ba64:	0f 95 c0             	setne  %al
    ba67:	0a 85 3c ef ff ff    	or     -0x10c4(%rbp),%al
    ba6d:	0f be c0             	movsbl %al,%eax
    ba70:	44 89 ee             	mov    %r13d,%esi
    ba73:	89 c7                	mov    %eax,%edi
    ba75:	e8 f0 d7 ff ff       	callq  926a <safe_div_func_int8_t_s_s>
    ba7a:	44 89 e6             	mov    %r12d,%esi
    ba7d:	bf 00 00 00 00       	mov    $0x0,%edi
    ba82:	e8 37 e2 ff ff       	callq  9cbe <safe_rshift_func_uint8_t_u_u>
    ba87:	0f b6 d0             	movzbl %al,%edx
    ba8a:	48 8b 85 30 f0 ff ff 	mov    -0xfd0(%rbp),%rax
    ba91:	8b 00                	mov    (%rax),%eax
    ba93:	0f be c0             	movsbl %al,%eax
    ba96:	89 d6                	mov    %edx,%esi
    ba98:	89 c7                	mov    %eax,%edi
    ba9a:	e8 96 d8 ff ff       	callq  9335 <safe_rshift_func_int8_t_s_s>
    ba9f:	0f be d0             	movsbl %al,%edx
    baa2:	48 8b 05 df 37 01 00 	mov    0x137df(%rip),%rax        # 1f288 <g_648>
    baa9:	8b 00                	mov    (%rax),%eax
    baab:	39 c2                	cmp    %eax,%edx
    baad:	0f 94 c0             	sete   %al
    bab0:	0f b6 c0             	movzbl %al,%eax
    bab3:	48 39 85 28 ef ff ff 	cmp    %rax,-0x10d8(%rbp)
    baba:	72 0a                	jb     bac6 <func_10+0xeee>
    babc:	8b 85 38 ef ff ff    	mov    -0x10c8(%rbp),%eax
    bac2:	85 c0                	test   %eax,%eax
    bac4:	74 07                	je     bacd <func_10+0xef5>
    bac6:	b8 01 00 00 00       	mov    $0x1,%eax
    bacb:	eb 05                	jmp    bad2 <func_10+0xefa>
    bacd:	b8 00 00 00 00       	mov    $0x0,%eax
    bad2:	0f b6 c0             	movzbl %al,%eax
    bad5:	be ff 00 00 00       	mov    $0xff,%esi
    bada:	89 c7                	mov    %eax,%edi
    badc:	e8 fa e0 ff ff       	callq  9bdb <safe_div_func_uint8_t_u_u>
    bae1:	0f b6 d0             	movzbl %al,%edx
    bae4:	48 8b 05 9d 37 01 00 	mov    0x1379d(%rip),%rax        # 1f288 <g_648>
    baeb:	8b 00                	mov    (%rax),%eax
    baed:	39 c2                	cmp    %eax,%edx
    baef:	0f 97 c0             	seta   %al
    baf2:	0f b6 c0             	movzbl %al,%eax
    baf5:	89 de                	mov    %ebx,%esi
    baf7:	89 c7                	mov    %eax,%edi
    baf9:	e8 f4 d6 ff ff       	callq  91f2 <safe_sub_func_int8_t_s_s>
    bafe:	84 c0                	test   %al,%al
    bb00:	0f 84 97 00 00 00    	je     bb9d <func_10+0xfc5>
    bb06:	48 8d 85 60 ef ff ff 	lea    -0x10a0(%rbp),%rax
    bb0d:	48 89 85 90 f1 ff ff 	mov    %rax,-0xe70(%rbp)
    bb14:	48 8d 85 38 ef ff ff 	lea    -0x10c8(%rbp),%rax
    bb1b:	48 89 85 90 f1 ff ff 	mov    %rax,-0xe70(%rbp)
    bb22:	80 bd 3c ef ff ff 00 	cmpb   $0x0,-0x10c4(%rbp)
    bb29:	0f 85 2e 06 00 00    	jne    c15d <func_10+0x1585>
    bb2f:	0f b7 85 34 ef ff ff 	movzwl -0x10cc(%rbp),%eax
    bb36:	98                   	cwtl   
    bb37:	8b 95 80 ef ff ff    	mov    -0x1080(%rbp),%edx
    bb3d:	48 63 d2             	movslq %edx,%rdx
    bb40:	48 98                	cltq   
    bb42:	8b 8d 80 ef ff ff    	mov    -0x1080(%rbp),%ecx
    bb48:	48 63 c9             	movslq %ecx,%rcx
    bb4b:	48 01 c9             	add    %rcx,%rcx
    bb4e:	48 01 ca             	add    %rcx,%rdx
    bb51:	48 01 d0             	add    %rdx,%rax
    bb54:	48 8d 14 85 00 00 00 	lea    0x0(,%rax,4),%rdx
    bb5b:	00 
    bb5c:	48 8d 05 fd 16 01 00 	lea    0x116fd(%rip),%rax        # 1d260 <g_2246>
    bb63:	8b 04 02             	mov    (%rdx,%rax,1),%eax
    bb66:	85 c0                	test   %eax,%eax
    bb68:	0f 85 c5 05 00 00    	jne    c133 <func_10+0x155b>
    bb6e:	0f bf 95 4c ef ff ff 	movswl -0x10b4(%rbp),%edx
    bb75:	8b 85 54 ef ff ff    	mov    -0x10ac(%rbp),%eax
    bb7b:	31 d0                	xor    %edx,%eax
    bb7d:	89 85 54 ef ff ff    	mov    %eax,-0x10ac(%rbp)
    bb83:	8b 95 54 ef ff ff    	mov    -0x10ac(%rbp),%edx
    bb89:	48 8b 85 30 f0 ff ff 	mov    -0xfd0(%rbp),%rax
    bb90:	81 e2 b0 d1 20 5c    	and    $0x5c20d1b0,%edx
    bb96:	89 10                	mov    %edx,(%rax)
    bb98:	e9 f6 01 00 00       	jmpq   bd93 <func_10+0x11bb>
    bb9d:	48 b8 ab 6c 03 34 fd 	movabs $0x785277fd34036cab,%rax
    bba4:	77 52 78 
    bba7:	48 89 85 48 f1 ff ff 	mov    %rax,-0xeb8(%rbp)
    bbae:	48 8d 85 64 ef ff ff 	lea    -0x109c(%rbp),%rax
    bbb5:	48 89 85 50 f1 ff ff 	mov    %rax,-0xeb0(%rbp)
    bbbc:	48 8d 85 60 ef ff ff 	lea    -0x10a0(%rbp),%rax
    bbc3:	48 89 85 58 f1 ff ff 	mov    %rax,-0xea8(%rbp)
    bbca:	48 8d 85 60 ef ff ff 	lea    -0x10a0(%rbp),%rax
    bbd1:	48 89 85 60 f1 ff ff 	mov    %rax,-0xea0(%rbp)
    bbd8:	48 c7 85 68 f1 ff ff 	movq   $0x0,-0xe98(%rbp)
    bbdf:	00 00 00 00 
    bbe3:	48 8d 85 60 ef ff ff 	lea    -0x10a0(%rbp),%rax
    bbea:	48 89 85 70 f1 ff ff 	mov    %rax,-0xe90(%rbp)
    bbf1:	48 8d 85 64 ef ff ff 	lea    -0x109c(%rbp),%rax
    bbf8:	48 89 85 78 f1 ff ff 	mov    %rax,-0xe88(%rbp)
    bbff:	48 8d 05 b2 0f 01 00 	lea    0x10fb2(%rip),%rax        # 1cbb8 <g_1049+0x18>
    bc06:	48 89 85 80 f1 ff ff 	mov    %rax,-0xe80(%rbp)
    bc0d:	48 8d 85 5c ef ff ff 	lea    -0x10a4(%rbp),%rax
    bc14:	48 89 85 88 f1 ff ff 	mov    %rax,-0xe78(%rbp)
    bc1b:	48 c7 85 c0 f7 ff ff 	movq   $0x0,-0x840(%rbp)
    bc22:	00 00 00 00 
    bc26:	48 c7 85 c8 f7 ff ff 	movq   $0x0,-0x838(%rbp)
    bc2d:	00 00 00 00 
    bc31:	48 c7 85 d0 f7 ff ff 	movq   $0x0,-0x830(%rbp)
    bc38:	00 00 00 00 
    bc3c:	48 c7 85 d8 f7 ff ff 	movq   $0x0,-0x828(%rbp)
    bc43:	00 00 00 00 
    bc47:	48 c7 85 e0 f7 ff ff 	movq   $0x0,-0x820(%rbp)
    bc4e:	00 00 00 00 
    bc52:	48 c7 85 e8 f7 ff ff 	movq   $0x0,-0x818(%rbp)
    bc59:	00 00 00 00 
    bc5d:	48 c7 85 f0 f7 ff ff 	movq   $0x0,-0x810(%rbp)
    bc64:	00 00 00 00 
    bc68:	8b 85 c8 ef ff ff    	mov    -0x1038(%rbp),%eax
    bc6e:	0f b7 d8             	movzwl %ax,%ebx
    bc71:	48 8b 05 20 35 01 00 	mov    0x13520(%rip),%rax        # 1f198 <g_350>
    bc78:	48 8b 10             	mov    (%rax),%rdx
    bc7b:	48 0f be 85 3c ef ff 	movsbq -0x10c4(%rbp),%rax
    bc82:	ff 
    bc83:	48 39 85 48 f1 ff ff 	cmp    %rax,-0xeb8(%rbp)
    bc8a:	0f 95 c0             	setne  %al
    bc8d:	0f b6 c0             	movzbl %al,%eax
    bc90:	48 89 d6             	mov    %rdx,%rsi
    bc93:	48 89 c7             	mov    %rax,%rdi
    bc96:	e8 b0 e3 ff ff       	callq  a04b <safe_sub_func_uint64_t_u_u>
    bc9b:	89 c2                	mov    %eax,%edx
    bc9d:	8b 85 68 ef ff ff    	mov    -0x1098(%rbp),%eax
    bca3:	21 d0                	and    %edx,%eax
    bca5:	0f b7 c0             	movzwl %ax,%eax
    bca8:	89 de                	mov    %ebx,%esi
    bcaa:	89 c7                	mov    %eax,%edi
    bcac:	e8 6e e0 ff ff       	callq  9d1f <safe_sub_func_uint16_t_u_u>
    bcb1:	89 c2                	mov    %eax,%edx
    bcb3:	48 8b 05 ce 34 01 00 	mov    0x134ce(%rip),%rax        # 1f188 <g_267>
    bcba:	0f b7 d2             	movzwl %dx,%edx
    bcbd:	89 10                	mov    %edx,(%rax)
    bcbf:	8b 00                	mov    (%rax),%eax
    bcc1:	89 c2                	mov    %eax,%edx
    bcc3:	48 8b 85 30 f0 ff ff 	mov    -0xfd0(%rbp),%rax
    bcca:	8b 00                	mov    (%rax),%eax
    bccc:	31 d0                	xor    %edx,%eax
    bcce:	0f b6 c0             	movzbl %al,%eax
    bcd1:	89 c6                	mov    %eax,%esi
    bcd3:	bf 37 00 00 00       	mov    $0x37,%edi
    bcd8:	e8 b6 de ff ff       	callq  9b93 <safe_mul_func_uint8_t_u_u>
    bcdd:	0f b6 c0             	movzbl %al,%eax
    bce0:	be 7b 11 00 00       	mov    $0x117b,%esi
    bce5:	89 c7                	mov    %eax,%edi
    bce7:	e8 c7 d6 ff ff       	callq  93b3 <safe_add_func_int16_t_s_s>
    bcec:	41 bc 01 00 00 00    	mov    $0x1,%r12d
    bcf2:	48 8b 05 6f 3c 01 00 	mov    0x13c6f(%rip),%rax        # 1f968 <g_2138>
    bcf9:	0f b7 00             	movzwl (%rax),%eax
    bcfc:	0f bf d8             	movswl %ax,%ebx
    bcff:	8b 85 68 ef ff ff    	mov    -0x1098(%rbp),%eax
    bd05:	83 f8 f7             	cmp    $0xfffffff7,%eax
    bd08:	0f 96 c0             	setbe  %al
    bd0b:	0f b6 c0             	movzbl %al,%eax
    bd0e:	be 06 00 00 00       	mov    $0x6,%esi
    bd13:	89 c7                	mov    %eax,%edi
    bd15:	e8 2e e1 ff ff       	callq  9e48 <safe_rshift_func_uint16_t_u_s>
    bd1a:	98                   	cwtl   
    bd1b:	89 de                	mov    %ebx,%esi
    bd1d:	89 c7                	mov    %eax,%edi
    bd1f:	e8 8f d6 ff ff       	callq  93b3 <safe_add_func_int16_t_s_s>
    bd24:	89 c2                	mov    %eax,%edx
    bd26:	48 8b 85 40 f1 ff ff 	mov    -0xec0(%rbp),%rax
    bd2d:	48 8b 00             	mov    (%rax),%rax
    bd30:	48 8b 00             	mov    (%rax),%rax
    bd33:	f7 d2                	not    %edx
    bd35:	88 10                	mov    %dl,(%rax)
    bd37:	0f b6 00             	movzbl (%rax),%eax
    bd3a:	0f b6 d0             	movzbl %al,%edx
    bd3d:	8b 85 54 ef ff ff    	mov    -0x10ac(%rbp),%eax
    bd43:	44 21 e0             	and    %r12d,%eax
    bd46:	89 85 54 ef ff ff    	mov    %eax,-0x10ac(%rbp)
    bd4c:	8b 85 54 ef ff ff    	mov    -0x10ac(%rbp),%eax
    bd52:	39 85 80 ef ff ff    	cmp    %eax,-0x1080(%rbp)
    bd58:	0f 95 c0             	setne  %al
    bd5b:	0f b6 c8             	movzbl %al,%ecx
    bd5e:	48 8b 05 fb 34 01 00 	mov    0x134fb(%rip),%rax        # 1f260 <g_447>
    bd65:	0f b6 00             	movzbl (%rax),%eax
    bd68:	0f be c0             	movsbl %al,%eax
    bd6b:	39 c1                	cmp    %eax,%ecx
    bd6d:	0f 9c c0             	setl   %al
    bd70:	0f b6 c0             	movzbl %al,%eax
    bd73:	39 c2                	cmp    %eax,%edx
    bd75:	0f 94 c2             	sete   %dl
    bd78:	48 8b 85 30 f0 ff ff 	mov    -0xfd0(%rbp),%rax
    bd7f:	0f b6 d2             	movzbl %dl,%edx
    bd82:	89 10                	mov    %edx,(%rax)
    bd84:	8b 85 14 f2 ff ff    	mov    -0xdec(%rbp),%eax
    bd8a:	83 e8 01             	sub    $0x1,%eax
    bd8d:	89 85 14 f2 ff ff    	mov    %eax,-0xdec(%rbp)
    bd93:	8b 85 cc ef ff ff    	mov    -0x1034(%rbp),%eax
    bd99:	0f be d8             	movsbl %al,%ebx
    bd9c:	8b 85 14 f2 ff ff    	mov    -0xdec(%rbp),%eax
    bda2:	44 0f b6 e0          	movzbl %al,%r12d
    bda6:	8b 85 b4 f2 ff ff    	mov    -0xd4c(%rbp),%eax
    bdac:	4c 63 e8             	movslq %eax,%r13
    bdaf:	0f be 85 3c ef ff ff 	movsbl -0x10c4(%rbp),%eax
    bdb6:	89 c6                	mov    %eax,%esi
    bdb8:	bf 00 00 00 00       	mov    $0x0,%edi
    bdbd:	e8 63 e1 ff ff       	callq  9f25 <safe_div_func_uint32_t_u_u>
    bdc2:	89 c0                	mov    %eax,%eax
    bdc4:	4c 89 ee             	mov    %r13,%rsi
    bdc7:	48 89 c7             	mov    %rax,%rdi
    bdca:	e8 28 dc ff ff       	callq  99f7 <safe_div_func_int64_t_s_s>
    bdcf:	8b 95 fc f1 ff ff    	mov    -0xe04(%rbp),%edx
    bdd5:	48 63 d2             	movslq %edx,%rdx
    bdd8:	48 39 d0             	cmp    %rdx,%rax
    bddb:	0f 94 c0             	sete   %al
    bdde:	0f b6 c0             	movzbl %al,%eax
    bde1:	be 47 00 00 00       	mov    $0x47,%esi
    bde6:	89 c7                	mov    %eax,%edi
    bde8:	e8 a6 dd ff ff       	callq  9b93 <safe_mul_func_uint8_t_u_u>
    bded:	0f b6 c0             	movzbl %al,%eax
    bdf0:	44 89 e6             	mov    %r12d,%esi
    bdf3:	89 c7                	mov    %eax,%edi
    bdf5:	e8 7e dd ff ff       	callq  9b78 <safe_sub_func_uint8_t_u_u>
    bdfa:	0f b6 d0             	movzbl %al,%edx
    bdfd:	8b 85 58 ef ff ff    	mov    -0x10a8(%rbp),%eax
    be03:	39 c2                	cmp    %eax,%edx
    be05:	0f 9f c0             	setg   %al
    be08:	0f b6 c0             	movzbl %al,%eax
    be0b:	be 07 00 00 00       	mov    $0x7,%esi
    be10:	89 c7                	mov    %eax,%edi
    be12:	e8 13 d7 ff ff       	callq  952a <safe_rshift_func_int16_t_s_s>
    be17:	66 83 f8 01          	cmp    $0x1,%ax
    be1b:	0f 9f c0             	setg   %al
    be1e:	0f b6 c8             	movzbl %al,%ecx
    be21:	0f b7 85 34 ef ff ff 	movzwl -0x10cc(%rbp),%eax
    be28:	0f bf d0             	movswl %ax,%edx
    be2b:	0f be b5 3c ef ff ff 	movsbl -0x10c4(%rbp),%esi
    be32:	48 8b 85 30 f0 ff ff 	mov    -0xfd0(%rbp),%rax
    be39:	8b 00                	mov    (%rax),%eax
    be3b:	0f b6 c0             	movzbl %al,%eax
    be3e:	89 c7                	mov    %eax,%edi
    be40:	e8 29 15 00 00       	callq  d36e <func_24>
    be45:	0f be 85 3c ef ff ff 	movsbl -0x10c4(%rbp),%eax
    be4c:	be 04 00 00 00       	mov    $0x4,%esi
    be51:	89 c7                	mov    %eax,%edi
    be53:	e8 dd d4 ff ff       	callq  9335 <safe_rshift_func_int8_t_s_s>
    be58:	0f be c0             	movsbl %al,%eax
    be5b:	89 c6                	mov    %eax,%esi
    be5d:	bf 05 00 00 00       	mov    $0x5,%edi
    be62:	e8 96 e0 ff ff       	callq  9efd <safe_mod_func_uint32_t_u_u>
    be67:	0f b7 c0             	movzwl %ax,%eax
    be6a:	be db 07 00 00       	mov    $0x7db,%esi
    be6f:	89 c7                	mov    %eax,%edi
    be71:	e8 c7 de ff ff       	callq  9d3d <safe_mul_func_uint16_t_u_u>
    be76:	48 8b 05 e3 33 01 00 	mov    0x133e3(%rip),%rax        # 1f260 <g_447>
    be7d:	0f b6 00             	movzbl (%rax),%eax
    be80:	0f be c0             	movsbl %al,%eax
    be83:	89 de                	mov    %ebx,%esi
    be85:	89 c7                	mov    %eax,%edi
    be87:	e8 86 d3 ff ff       	callq  9212 <safe_mul_func_int8_t_s_s>
    be8c:	0f be c0             	movsbl %al,%eax
    be8f:	be 00 00 00 00       	mov    $0x0,%esi
    be94:	89 c7                	mov    %eax,%edi
    be96:	e8 53 d4 ff ff       	callq  92ee <safe_lshift_func_int8_t_s_u>
    be9b:	0f be d0             	movsbl %al,%edx
    be9e:	8b 85 38 ef ff ff    	mov    -0x10c8(%rbp),%eax
    bea4:	39 c2                	cmp    %eax,%edx
    bea6:	0f 9f c0             	setg   %al
    bea9:	0f b6 c0             	movzbl %al,%eax
    beac:	be 0b 00 00 00       	mov    $0xb,%esi
    beb1:	89 c7                	mov    %eax,%edi
    beb3:	e8 c2 df ff ff       	callq  9e7a <safe_rshift_func_uint16_t_u_u>
    beb8:	89 c2                	mov    %eax,%edx
    beba:	48 8b 05 c7 32 01 00 	mov    0x132c7(%rip),%rax        # 1f188 <g_267>
    bec1:	0f b7 d2             	movzwl %dx,%edx
    bec4:	89 10                	mov    %edx,(%rax)
    bec6:	8b 00                	mov    (%rax),%eax
    bec8:	85 c0                	test   %eax,%eax
    beca:	c7 85 48 f6 ff ff 01 	movl   $0x1,-0x9b8(%rbp)
    bed1:	00 00 00 
    bed4:	48 8b 05 65 3e 01 00 	mov    0x13e65(%rip),%rax        # 1fd40 <g_2430>
    bedb:	8b 85 38 ef ff ff    	mov    -0x10c8(%rbp),%eax
    bee1:	85 c0                	test   %eax,%eax
    bee3:	74 5e                	je     bf43 <func_10+0x136b>
    bee5:	48 8d 85 f0 f1 ff ff 	lea    -0xe10(%rbp),%rax
    beec:	48 83 c0 04          	add    $0x4,%rax
    bef0:	48 89 85 98 f1 ff ff 	mov    %rax,-0xe68(%rbp)
    bef7:	c7 85 98 ef ff ff 00 	movl   $0x0,-0x1068(%rbp)
    befe:	00 00 00 
    bf01:	eb 22                	jmp    bf25 <func_10+0x134d>
    bf03:	8b 85 98 ef ff ff    	mov    -0x1068(%rbp),%eax
    bf09:	48 98                	cltq   
    bf0b:	48 8d 95 f0 f1 ff ff 	lea    -0xe10(%rbp),%rdx
    bf12:	48 83 c2 04          	add    $0x4,%rdx
    bf16:	48 89 94 c5 c0 f7 ff 	mov    %rdx,-0x840(%rbp,%rax,8)
    bf1d:	ff 
    bf1e:	83 85 98 ef ff ff 01 	addl   $0x1,-0x1068(%rbp)
    bf25:	83 bd 98 ef ff ff 01 	cmpl   $0x1,-0x1068(%rbp)
    bf2c:	7e d5                	jle    bf03 <func_10+0x132b>
    bf2e:	0f b6 85 47 ef ff ff 	movzbl -0x10b9(%rbp),%eax
    bf35:	83 c0 01             	add    $0x1,%eax
    bf38:	88 85 47 ef ff ff    	mov    %al,-0x10b9(%rbp)
    bf3e:	e9 af 01 00 00       	jmpq   c0f2 <func_10+0x151a>
    bf43:	48 8d 85 c0 f7 ff ff 	lea    -0x840(%rbp),%rax
    bf4a:	48 8d 15 2f 18 01 00 	lea    0x1182f(%rip),%rdx        # 1d780 <g_3397+0x17f>
    bf51:	b9 28 00 00 00       	mov    $0x28,%ecx
    bf56:	48 89 c7             	mov    %rax,%rdi
    bf59:	48 89 d6             	mov    %rdx,%rsi
    bf5c:	f3 48 a5             	rep movsq %ds:(%rsi),%es:(%rdi)
    bf5f:	83 85 6c ef ff ff 01 	addl   $0x1,-0x1094(%rbp)
    bf66:	48 8b 05 f3 32 01 00 	mov    0x132f3(%rip),%rax        # 1f260 <g_447>
    bf6d:	0f b6 00             	movzbl (%rax),%eax
    bf70:	0f be c0             	movsbl %al,%eax
    bf73:	be f8 ff ff ff       	mov    $0xfffffff8,%esi
    bf78:	89 c7                	mov    %eax,%edi
    bf7a:	e8 73 d2 ff ff       	callq  91f2 <safe_sub_func_int8_t_s_s>
    bf7f:	0f be c0             	movsbl %al,%eax
    bf82:	23 85 6c ef ff ff    	and    -0x1094(%rbp),%eax
    bf88:	89 c3                	mov    %eax,%ebx
    bf8a:	0f b7 85 34 ef ff ff 	movzwl -0x10cc(%rbp),%eax
    bf91:	0f b7 d0             	movzwl %ax,%edx
    bf94:	48 8b 05 fd 32 01 00 	mov    0x132fd(%rip),%rax        # 1f298 <g_868>
    bf9b:	0f b7 00             	movzwl (%rax),%eax
    bf9e:	0f b7 c0             	movzwl %ax,%eax
    bfa1:	89 d6                	mov    %edx,%esi
    bfa3:	89 c7                	mov    %eax,%edi
    bfa5:	e8 b2 dd ff ff       	callq  9d5c <safe_mod_func_uint16_t_u_u>
    bfaa:	0f b7 c0             	movzwl %ax,%eax
    bfad:	48 ba 44 2b 44 6a f7 	movabs $0x46242ef76a442b44,%rdx
    bfb4:	2e 24 46 
    bfb7:	48 31 d0             	xor    %rdx,%rax
    bfba:	48 3d f0 00 00 00    	cmp    $0xf0,%rax
    bfc0:	0f 9f c0             	setg   %al
    bfc3:	0f b6 c0             	movzbl %al,%eax
    bfc6:	be 01 00 00 00       	mov    $0x1,%esi
    bfcb:	89 c7                	mov    %eax,%edi
    bfcd:	e8 02 d2 ff ff       	callq  91d4 <safe_add_func_int8_t_s_s>
    bfd2:	89 c2                	mov    %eax,%edx
    bfd4:	48 8b 05 8d 38 01 00 	mov    0x1388d(%rip),%rax        # 1f868 <g_1770>
    bfdb:	48 8b 00             	mov    (%rax),%rax
    bfde:	88 10                	mov    %dl,(%rax)
    bfe0:	0f b6 00             	movzbl (%rax),%eax
    bfe3:	0f b6 c0             	movzbl %al,%eax
    bfe6:	39 c3                	cmp    %eax,%ebx
    bfe8:	0f 96 c0             	setbe  %al
    bfeb:	0f b6 c0             	movzbl %al,%eax
    bfee:	89 c6                	mov    %eax,%esi
    bff0:	bf ff 00 00 00       	mov    $0xff,%edi
    bff5:	e8 52 dc ff ff       	callq  9c4c <safe_lshift_func_uint8_t_u_u>
    bffa:	89 c2                	mov    %eax,%edx
    bffc:	48 8b 05 85 31 01 00 	mov    0x13185(%rip),%rax        # 1f188 <g_267>
    c003:	0f b6 d2             	movzbl %dl,%edx
    c006:	89 10                	mov    %edx,(%rax)
    c008:	8b 00                	mov    (%rax),%eax
    c00a:	85 c0                	test   %eax,%eax
    c00c:	75 0a                	jne    c018 <func_10+0x1440>
    c00e:	8b 85 38 ef ff ff    	mov    -0x10c8(%rbp),%eax
    c014:	85 c0                	test   %eax,%eax
    c016:	74 07                	je     c01f <func_10+0x1447>
    c018:	b8 01 00 00 00       	mov    $0x1,%eax
    c01d:	eb 05                	jmp    c024 <func_10+0x144c>
    c01f:	b8 00 00 00 00       	mov    $0x0,%eax
    c024:	f7 d0                	not    %eax
    c026:	89 c2                	mov    %eax,%edx
    c028:	0f bf 85 4c ef ff ff 	movswl -0x10b4(%rbp),%eax
    c02f:	39 c2                	cmp    %eax,%edx
    c031:	0f 95 c0             	setne  %al
    c034:	0f b6 d0             	movzbl %al,%edx
    c037:	48 8b 05 02 34 01 00 	mov    0x13402(%rip),%rax        # 1f440 <g_1006>
    c03e:	48 8b 00             	mov    (%rax),%rax
    c041:	48 8b 00             	mov    (%rax),%rax
    c044:	48 8b 00             	mov    (%rax),%rax
    c047:	48 8b 00             	mov    (%rax),%rax
    c04a:	48 09 d0             	or     %rdx,%rax
    c04d:	48 85 c0             	test   %rax,%rax
    c050:	74 13                	je     c065 <func_10+0x148d>
    c052:	0f b7 85 34 ef ff ff 	movzwl -0x10cc(%rbp),%eax
    c059:	66 85 c0             	test   %ax,%ax
    c05c:	74 07                	je     c065 <func_10+0x148d>
    c05e:	b8 01 00 00 00       	mov    $0x1,%eax
    c063:	eb 05                	jmp    c06a <func_10+0x1492>
    c065:	b8 00 00 00 00       	mov    $0x0,%eax
    c06a:	0f b7 d8             	movzwl %ax,%ebx
    c06d:	80 bd 47 ef ff ff 00 	cmpb   $0x0,-0x10b9(%rbp)
    c074:	75 3a                	jne    c0b0 <func_10+0x14d8>
    c076:	8b 85 f4 f1 ff ff    	mov    -0xe0c(%rbp),%eax
    c07c:	48 63 d0             	movslq %eax,%rdx
    c07f:	48 8b 85 38 f1 ff ff 	mov    -0xec8(%rbp),%rax
    c086:	48 8b 00             	mov    (%rax),%rax
    c089:	48 8d 70 01          	lea    0x1(%rax),%rsi
    c08d:	48 8b 8d 38 f1 ff ff 	mov    -0xec8(%rbp),%rcx
    c094:	48 89 31             	mov    %rsi,(%rcx)
    c097:	48 89 d6             	mov    %rdx,%rsi
    c09a:	48 89 c7             	mov    %rax,%rdi
    c09d:	e8 a9 df ff ff       	callq  a04b <safe_sub_func_uint64_t_u_u>
    c0a2:	8b 95 b8 f2 ff ff    	mov    -0xd48(%rbp),%edx
    c0a8:	48 63 d2             	movslq %edx,%rdx
    c0ab:	48 39 d0             	cmp    %rdx,%rax
    c0ae:	73 07                	jae    c0b7 <func_10+0x14df>
    c0b0:	b8 01 00 00 00       	mov    $0x1,%eax
    c0b5:	eb 05                	jmp    c0bc <func_10+0x14e4>
    c0b7:	b8 00 00 00 00       	mov    $0x0,%eax
    c0bc:	0f b6 c0             	movzbl %al,%eax
    c0bf:	be 07 00 00 00       	mov    $0x7,%esi
    c0c4:	89 c7                	mov    %eax,%edi
    c0c6:	e8 f3 db ff ff       	callq  9cbe <safe_rshift_func_uint8_t_u_u>
    c0cb:	0f b6 c0             	movzbl %al,%eax
    c0ce:	89 de                	mov    %ebx,%esi
    c0d0:	89 c7                	mov    %eax,%edi
    c0d2:	e8 28 dc ff ff       	callq  9cff <safe_add_func_uint16_t_u_u>
    c0d7:	89 c2                	mov    %eax,%edx
    c0d9:	48 8b 85 30 f0 ff ff 	mov    -0xfd0(%rbp),%rax
    c0e0:	0f b7 d2             	movzwl %dx,%edx
    c0e3:	89 10                	mov    %edx,(%rax)
    c0e5:	80 bd 47 ef ff ff 00 	cmpb   $0x0,-0x10b9(%rbp)
    c0ec:	0f 85 81 00 00 00    	jne    c173 <func_10+0x159b>
    c0f2:	8b 85 38 ef ff ff    	mov    -0x10c8(%rbp),%eax
    c0f8:	85 c0                	test   %eax,%eax
    c0fa:	75 3a                	jne    c136 <func_10+0x155e>
    c0fc:	c7 85 58 ef ff ff 00 	movl   $0x0,-0x10a8(%rbp)
    c103:	00 00 00 
    c106:	90                   	nop
    c107:	8b 85 58 ef ff ff    	mov    -0x10a8(%rbp),%eax
    c10d:	83 f8 02             	cmp    $0x2,%eax
    c110:	7f 28                	jg     c13a <func_10+0x1562>
    c112:	0f b6 05 6f 0a 01 00 	movzbl 0x10a6f(%rip),%eax        # 1cb88 <g_448>
    c119:	84 c0                	test   %al,%al
    c11b:	75 5c                	jne    c179 <func_10+0x15a1>
    c11d:	8b 85 38 ef ff ff    	mov    -0x10c8(%rbp),%eax
    c123:	85 c0                	test   %eax,%eax
    c125:	75 12                	jne    c139 <func_10+0x1561>
    c127:	0f b7 85 34 ef ff ff 	movzwl -0x10cc(%rbp),%eax
    c12e:	e9 6d 0e 00 00       	jmpq   cfa0 <func_10+0x23c8>
    c133:	90                   	nop
    c134:	eb 04                	jmp    c13a <func_10+0x1562>
    c136:	90                   	nop
    c137:	eb 01                	jmp    c13a <func_10+0x1562>
    c139:	90                   	nop
    c13a:	0f b7 85 34 ef ff ff 	movzwl -0x10cc(%rbp),%eax
    c141:	83 e8 01             	sub    $0x1,%eax
    c144:	66 89 85 34 ef ff ff 	mov    %ax,-0x10cc(%rbp)
    c14b:	0f b7 85 34 ef ff ff 	movzwl -0x10cc(%rbp),%eax
    c152:	66 85 c0             	test   %ax,%ax
    c155:	0f 89 f5 f5 ff ff    	jns    b750 <func_10+0xb78>
    c15b:	eb 01                	jmp    c15e <func_10+0x1586>
    c15d:	90                   	nop
    c15e:	83 ad 80 ef ff ff 01 	subl   $0x1,-0x1080(%rbp)
    c165:	eb 18                	jmp    c17f <func_10+0x15a7>
    c167:	90                   	nop
    c168:	e9 3c ed ff ff       	jmpq   aea9 <func_10+0x2d1>
    c16d:	90                   	nop
    c16e:	e9 36 ed ff ff       	jmpq   aea9 <func_10+0x2d1>
    c173:	90                   	nop
    c174:	e9 30 ed ff ff       	jmpq   aea9 <func_10+0x2d1>
    c179:	90                   	nop
    c17a:	e9 2a ed ff ff       	jmpq   aea9 <func_10+0x2d1>
    c17f:	83 bd 80 ef ff ff 00 	cmpl   $0x0,-0x1080(%rbp)
    c186:	0f 89 f5 f2 ff ff    	jns    b481 <func_10+0x8a9>
    c18c:	0f b7 85 34 ef ff ff 	movzwl -0x10cc(%rbp),%eax
    c193:	e9 08 0e 00 00       	jmpq   cfa0 <func_10+0x23c8>
    c198:	48 8d 05 a9 01 01 00 	lea    0x101a9(%rip),%rax        # 1c348 <g_4+0x308>
    c19f:	48 89 85 b8 f0 ff ff 	mov    %rax,-0xf48(%rbp)
    c1a6:	48 8d 05 cb 09 01 00 	lea    0x109cb(%rip),%rax        # 1cb78 <g_254>
    c1ad:	48 89 85 c0 f0 ff ff 	mov    %rax,-0xf40(%rbp)
    c1b4:	48 8d 05 6d 32 01 00 	lea    0x1326d(%rip),%rax        # 1f428 <g_866>
    c1bb:	48 89 85 d0 f3 ff ff 	mov    %rax,-0xc30(%rbp)
    c1c2:	48 c7 85 d8 f3 ff ff 	movq   $0x0,-0xc28(%rbp)
    c1c9:	00 00 00 00 
    c1cd:	48 8d 05 54 32 01 00 	lea    0x13254(%rip),%rax        # 1f428 <g_866>
    c1d4:	48 89 85 e0 f3 ff ff 	mov    %rax,-0xc20(%rbp)
    c1db:	48 8d 05 46 32 01 00 	lea    0x13246(%rip),%rax        # 1f428 <g_866>
    c1e2:	48 89 85 e8 f3 ff ff 	mov    %rax,-0xc18(%rbp)
    c1e9:	48 c7 85 f0 f3 ff ff 	movq   $0x0,-0xc10(%rbp)
    c1f0:	00 00 00 00 
    c1f4:	48 c7 85 f8 f3 ff ff 	movq   $0x0,-0xc08(%rbp)
    c1fb:	00 00 00 00 
    c1ff:	48 c7 85 00 f4 ff ff 	movq   $0x0,-0xc00(%rbp)
    c206:	00 00 00 00 
    c20a:	48 c7 85 08 f4 ff ff 	movq   $0x0,-0xbf8(%rbp)
    c211:	00 00 00 00 
    c215:	48 c7 85 10 f4 ff ff 	movq   $0x0,-0xbf0(%rbp)
    c21c:	00 00 00 00 
    c220:	48 8d 05 01 32 01 00 	lea    0x13201(%rip),%rax        # 1f428 <g_866>
    c227:	48 89 85 18 f4 ff ff 	mov    %rax,-0xbe8(%rbp)
    c22e:	48 8d 05 f3 31 01 00 	lea    0x131f3(%rip),%rax        # 1f428 <g_866>
    c235:	48 89 85 20 f4 ff ff 	mov    %rax,-0xbe0(%rbp)
    c23c:	48 c7 85 28 f4 ff ff 	movq   $0x0,-0xbd8(%rbp)
    c243:	00 00 00 00 
    c247:	48 8d 05 da 31 01 00 	lea    0x131da(%rip),%rax        # 1f428 <g_866>
    c24e:	48 89 85 30 f4 ff ff 	mov    %rax,-0xbd0(%rbp)
    c255:	48 c7 85 38 f4 ff ff 	movq   $0x0,-0xbc8(%rbp)
    c25c:	00 00 00 00 
    c260:	48 8d 05 c1 31 01 00 	lea    0x131c1(%rip),%rax        # 1f428 <g_866>
    c267:	48 89 85 40 f4 ff ff 	mov    %rax,-0xbc0(%rbp)
    c26e:	48 8d 05 b3 31 01 00 	lea    0x131b3(%rip),%rax        # 1f428 <g_866>
    c275:	48 89 85 48 f4 ff ff 	mov    %rax,-0xbb8(%rbp)
    c27c:	48 c7 85 50 f4 ff ff 	movq   $0x0,-0xbb0(%rbp)
    c283:	00 00 00 00 
    c287:	48 c7 85 58 f4 ff ff 	movq   $0x0,-0xba8(%rbp)
    c28e:	00 00 00 00 
    c292:	48 c7 85 60 f4 ff ff 	movq   $0x0,-0xba0(%rbp)
    c299:	00 00 00 00 
    c29d:	48 c7 85 68 f4 ff ff 	movq   $0x0,-0xb98(%rbp)
    c2a4:	00 00 00 00 
    c2a8:	48 c7 85 70 f4 ff ff 	movq   $0x0,-0xb90(%rbp)
    c2af:	00 00 00 00 
    c2b3:	48 8d 05 6e 31 01 00 	lea    0x1316e(%rip),%rax        # 1f428 <g_866>
    c2ba:	48 89 85 78 f4 ff ff 	mov    %rax,-0xb88(%rbp)
    c2c1:	48 8d 05 60 31 01 00 	lea    0x13160(%rip),%rax        # 1f428 <g_866>
    c2c8:	48 89 85 80 f4 ff ff 	mov    %rax,-0xb80(%rbp)
    c2cf:	48 c7 85 88 f4 ff ff 	movq   $0x0,-0xb78(%rbp)
    c2d6:	00 00 00 00 
    c2da:	48 8d 05 47 31 01 00 	lea    0x13147(%rip),%rax        # 1f428 <g_866>
    c2e1:	48 89 85 90 f4 ff ff 	mov    %rax,-0xb70(%rbp)
    c2e8:	48 c7 85 98 f4 ff ff 	movq   $0x0,-0xb68(%rbp)
    c2ef:	00 00 00 00 
    c2f3:	48 8d 05 2e 31 01 00 	lea    0x1312e(%rip),%rax        # 1f428 <g_866>
    c2fa:	48 89 85 a0 f4 ff ff 	mov    %rax,-0xb60(%rbp)
    c301:	48 8d 05 20 31 01 00 	lea    0x13120(%rip),%rax        # 1f428 <g_866>
    c308:	48 89 85 a8 f4 ff ff 	mov    %rax,-0xb58(%rbp)
    c30f:	c7 85 bc ef ff ff be 	movl   $0xfce0bfbe,-0x1044(%rbp)
    c316:	bf e0 fc 
    c319:	c6 85 4a ef ff ff a0 	movb   $0xa0,-0x10b6(%rbp)
    c320:	48 c7 85 c8 f0 ff ff 	movq   $0x0,-0xf38(%rbp)
    c327:	00 00 00 00 
    c32b:	48 c7 85 d0 f0 ff ff 	movq   $0xffffffffffffffff,-0xf30(%rbp)
    c332:	ff ff ff ff 
    c336:	48 8d 85 c0 f7 ff ff 	lea    -0x840(%rbp),%rax
    c33d:	48 8d 15 7c 15 01 00 	lea    0x1157c(%rip),%rdx        # 1d8c0 <g_3397+0x2bf>
    c344:	b9 00 01 00 00       	mov    $0x100,%ecx
    c349:	48 89 c7             	mov    %rax,%rdi
    c34c:	48 89 d6             	mov    %rdx,%rsi
    c34f:	f3 48 a5             	rep movsq %ds:(%rsi),%es:(%rdi)
    c352:	48 8d 85 00 f0 ff ff 	lea    -0x1000(%rbp),%rax
    c359:	48 89 85 d8 f0 ff ff 	mov    %rax,-0xf28(%rbp)
    c360:	c7 85 9c ef ff ff 00 	movl   $0x0,-0x1064(%rbp)
    c367:	00 00 00 
    c36a:	eb 1a                	jmp    c386 <func_10+0x17ae>
    c36c:	8b 85 9c ef ff ff    	mov    -0x1064(%rbp),%eax
    c372:	48 98                	cltq   
    c374:	c7 84 85 d8 f1 ff ff 	movl   $0x0,-0xe28(%rbp,%rax,4)
    c37b:	00 00 00 00 
    c37f:	83 85 9c ef ff ff 01 	addl   $0x1,-0x1064(%rbp)
    c386:	83 bd 9c ef ff ff 01 	cmpl   $0x1,-0x1064(%rbp)
    c38d:	7e dd                	jle    c36c <func_10+0x1794>
    c38f:	0f b6 9d 49 ef ff ff 	movzbl -0x10b7(%rbp),%ebx
    c396:	0f b7 85 34 ef ff ff 	movzwl -0x10cc(%rbp),%eax
    c39d:	0f b7 c0             	movzwl %ax,%eax
    c3a0:	be 02 00 00 00       	mov    $0x2,%esi
    c3a5:	89 c7                	mov    %eax,%edi
    c3a7:	e8 9c da ff ff       	callq  9e48 <safe_rshift_func_uint16_t_u_s>
    c3ac:	0f b7 05 97 0f 01 00 	movzwl 0x10f97(%rip),%eax        # 1d34a <g_3002>
    c3b3:	66 85 c0             	test   %ax,%ax
    c3b6:	74 5d                	je     c415 <func_10+0x183d>
    c3b8:	8b 85 54 ef ff ff    	mov    -0x10ac(%rbp),%eax
    c3be:	44 0f b7 e0          	movzwl %ax,%r12d
    c3c2:	8b 85 54 ef ff ff    	mov    -0x10ac(%rbp),%eax
    c3c8:	89 c7                	mov    %eax,%edi
    c3ca:	8b 85 14 f2 ff ff    	mov    -0xdec(%rbp),%eax
    c3d0:	89 c6                	mov    %eax,%esi
    c3d2:	48 8b 05 8f 34 01 00 	mov    0x1348f(%rip),%rax        # 1f868 <g_1770>
    c3d9:	48 8b 00             	mov    (%rax),%rax
    c3dc:	0f b6 10             	movzbl (%rax),%edx
    c3df:	8d 4a 01             	lea    0x1(%rdx),%ecx
    c3e2:	88 08                	mov    %cl,(%rax)
    c3e4:	0f b6 c2             	movzbl %dl,%eax
    c3e7:	89 f9                	mov    %edi,%ecx
    c3e9:	ba 01 00 00 00       	mov    $0x1,%edx
    c3ee:	89 c7                	mov    %eax,%edi
    c3f0:	e8 79 0f 00 00       	callq  d36e <func_24>
    c3f5:	c7 85 50 ef ff ff 01 	movl   $0x1,-0x10b0(%rbp)
    c3fc:	00 00 00 
    c3ff:	8b 85 50 ef ff ff    	mov    -0x10b0(%rbp),%eax
    c405:	0f b7 c0             	movzwl %ax,%eax
    c408:	44 89 e6             	mov    %r12d,%esi
    c40b:	89 c7                	mov    %eax,%edi
    c40d:	e8 ed d8 ff ff       	callq  9cff <safe_add_func_uint16_t_u_u>
    c412:	66 85 c0             	test   %ax,%ax
    c415:	81 bd a0 ef ff ff ff 	cmpl   $0xffff,-0x1060(%rbp)
    c41c:	ff 00 00 
    c41f:	0f 96 c0             	setbe  %al
    c422:	0f b6 d0             	movzbl %al,%edx
    c425:	66 0f be 85 3c ef ff 	movsbw -0x10c4(%rbp),%ax
    c42c:	ff 
    c42d:	21 d0                	and    %edx,%eax
    c42f:	0f b7 c0             	movzwl %ax,%eax
    c432:	89 de                	mov    %ebx,%esi
    c434:	89 c7                	mov    %eax,%edi
    c436:	e8 02 d9 ff ff       	callq  9d3d <safe_mul_func_uint16_t_u_u>
    c43b:	0f b7 c0             	movzwl %ax,%eax
    c43e:	39 85 b4 ef ff ff    	cmp    %eax,-0x104c(%rbp)
    c444:	0f 95 c2             	setne  %dl
    c447:	48 8b 05 4a 2e 01 00 	mov    0x12e4a(%rip),%rax        # 1f298 <g_868>
    c44e:	0f b6 d2             	movzbl %dl,%edx
    c451:	66 89 10             	mov    %dx,(%rax)
    c454:	0f b7 00             	movzwl (%rax),%eax
    c457:	66 3d 87 71          	cmp    $0x7187,%ax
    c45b:	0f 96 c0             	setbe  %al
    c45e:	0f b6 c0             	movzbl %al,%eax
    c461:	be 05 00 00 00       	mov    $0x5,%esi
    c466:	89 c7                	mov    %eax,%edi
    c468:	e8 26 d7 ff ff       	callq  9b93 <safe_mul_func_uint8_t_u_u>
    c46d:	84 c0                	test   %al,%al
    c46f:	0f 84 fd 02 00 00    	je     c772 <func_10+0x1b9a>
    c475:	c6 85 68 ef ff ff 00 	movb   $0x0,-0x1098(%rbp)
    c47c:	48 8d 05 0d 2e 01 00 	lea    0x12e0d(%rip),%rax        # 1f290 <g_647>
    c483:	48 89 85 30 f0 ff ff 	mov    %rax,-0xfd0(%rbp)
    c48a:	48 8d 85 30 f0 ff ff 	lea    -0xfd0(%rbp),%rax
    c491:	48 89 85 e0 f0 ff ff 	mov    %rax,-0xf20(%rbp)
    c498:	48 8d 05 89 2f 01 00 	lea    0x12f89(%rip),%rax        # 1f428 <g_866>
    c49f:	48 89 85 e8 f0 ff ff 	mov    %rax,-0xf18(%rbp)
    c4a6:	c7 85 c0 ef ff ff ea 	movl   $0xa7a252ea,-0x1040(%rbp)
    c4ad:	52 a2 a7 
    c4b0:	48 8d 85 00 f6 ff ff 	lea    -0xa00(%rbp),%rax
    c4b7:	48 8d 15 e2 ab 00 00 	lea    0xabe2(%rip),%rdx        # 170a0 <g_1737+0xe>
    c4be:	b9 38 00 00 00       	mov    $0x38,%ecx
    c4c3:	48 89 c7             	mov    %rax,%rdi
    c4c6:	48 89 d6             	mov    %rdx,%rsi
    c4c9:	f3 48 a5             	rep movsq %ds:(%rsi),%es:(%rdi)
    c4cc:	8b 9d 38 ef ff ff    	mov    -0x10c8(%rbp),%ebx
    c4d2:	8b 95 d8 f1 ff ff    	mov    -0xe28(%rbp),%edx
    c4d8:	48 8b 85 00 f0 ff ff 	mov    -0x1000(%rbp),%rax
    c4df:	48 8b 00             	mov    (%rax),%rax
    c4e2:	48 8b 00             	mov    (%rax),%rax
    c4e5:	88 10                	mov    %dl,(%rax)
    c4e7:	0f b6 00             	movzbl (%rax),%eax
    c4ea:	84 c0                	test   %al,%al
    c4ec:	75 35                	jne    c523 <func_10+0x194b>
    c4ee:	48 8b 05 73 34 01 00 	mov    0x13473(%rip),%rax        # 1f968 <g_2138>
    c4f5:	0f b7 00             	movzwl (%rax),%eax
    c4f8:	98                   	cwtl   
    c4f9:	be 00 00 00 00       	mov    $0x0,%esi
    c4fe:	89 c7                	mov    %eax,%edi
    c500:	e8 25 d0 ff ff       	callq  952a <safe_rshift_func_int16_t_s_s>
    c505:	98                   	cwtl   
    c506:	be 01 00 00 00       	mov    $0x1,%esi
    c50b:	89 c7                	mov    %eax,%edi
    c50d:	e8 51 d0 ff ff       	callq  9563 <safe_rshift_func_int16_t_s_u>
    c512:	48 0f bf c0          	movswq %ax,%rax
    c516:	48 89 c6             	mov    %rax,%rsi
    c519:	bf ff ff 00 00       	mov    $0xffff,%edi
    c51e:	e8 1e d3 ff ff       	callq  9841 <safe_add_func_int64_t_s_s>
    c523:	b8 01 00 00 00       	mov    $0x1,%eax
    c528:	98                   	cwtl   
    c529:	89 de                	mov    %ebx,%esi
    c52b:	89 c7                	mov    %eax,%edi
    c52d:	e8 f8 cf ff ff       	callq  952a <safe_rshift_func_int16_t_s_s>
    c532:	48 8b 15 4f 2c 01 00 	mov    0x12c4f(%rip),%rdx        # 1f188 <g_267>
    c539:	8b 0a                	mov    (%rdx),%ecx
    c53b:	0f bf d0             	movswl %ax,%edx
    c53e:	48 8b 05 43 2c 01 00 	mov    0x12c43(%rip),%rax        # 1f188 <g_267>
    c545:	31 ca                	xor    %ecx,%edx
    c547:	89 10                	mov    %edx,(%rax)
    c549:	be 04 00 00 00       	mov    $0x4,%esi
    c54e:	bf 01 00 00 00       	mov    $0x1,%edi
    c553:	e8 66 d7 ff ff       	callq  9cbe <safe_rshift_func_uint8_t_u_u>
    c558:	0f b6 c0             	movzbl %al,%eax
    c55b:	be a2 00 00 00       	mov    $0xa2,%esi
    c560:	89 c7                	mov    %eax,%edi
    c562:	e8 f3 d5 ff ff       	callq  9b5a <safe_add_func_uint8_t_u_u>
    c567:	84 c0                	test   %al,%al
    c569:	0f 84 7c 01 00 00    	je     c6eb <func_10+0x1b13>
    c56f:	0f b6 85 68 ef ff ff 	movzbl -0x1098(%rbp),%eax
    c576:	0f be c0             	movsbl %al,%eax
    c579:	89 c6                	mov    %eax,%esi
    c57b:	bf 01 00 00 00       	mov    $0x1,%edi
    c580:	e8 6d cc ff ff       	callq  91f2 <safe_sub_func_int8_t_s_s>
    c585:	66 0f be d0          	movsbw %al,%dx
    c589:	0f b7 85 34 ef ff ff 	movzwl -0x10cc(%rbp),%eax
    c590:	66 39 c2             	cmp    %ax,%dx
    c593:	0f 9d c0             	setge  %al
    c596:	0f b6 c8             	movzbl %al,%ecx
    c599:	48 8b 05 e8 2b 01 00 	mov    0x12be8(%rip),%rax        # 1f188 <g_267>
    c5a0:	8b 10                	mov    (%rax),%edx
    c5a2:	48 8b 05 df 2b 01 00 	mov    0x12bdf(%rip),%rax        # 1f188 <g_267>
    c5a9:	09 ca                	or     %ecx,%edx
    c5ab:	89 10                	mov    %edx,(%rax)
    c5ad:	8b 00                	mov    (%rax),%eax
    c5af:	85 c0                	test   %eax,%eax
    c5b1:	0f 84 34 01 00 00    	je     c6eb <func_10+0x1b13>
    c5b7:	8b 85 38 ef ff ff    	mov    -0x10c8(%rbp),%eax
    c5bd:	48 63 d8             	movslq %eax,%rbx
    c5c0:	8b 85 e8 f1 ff ff    	mov    -0xe18(%rbp),%eax
    c5c6:	41 89 c7             	mov    %eax,%r15d
    c5c9:	0f b7 85 34 ef ff ff 	movzwl -0x10cc(%rbp),%eax
    c5d0:	44 0f bf e0          	movswl %ax,%r12d
    c5d4:	8b 85 38 ef ff ff    	mov    -0x10c8(%rbp),%eax
    c5da:	4c 63 e8             	movslq %eax,%r13
    c5dd:	48 8b 05 84 32 01 00 	mov    0x13284(%rip),%rax        # 1f868 <g_1770>
    c5e4:	48 8b 00             	mov    (%rax),%rax
    c5e7:	0f b6 00             	movzbl (%rax),%eax
    c5ea:	3c ff                	cmp    $0xff,%al
    c5ec:	0f 95 c0             	setne  %al
    c5ef:	44 0f b6 f0          	movzbl %al,%r14d
    c5f3:	48 8b 05 a6 2b 01 00 	mov    0x12ba6(%rip),%rax        # 1f1a0 <g_349>
    c5fa:	48 8b 00             	mov    (%rax),%rax
    c5fd:	48 8b 00             	mov    (%rax),%rax
    c600:	0f b7 85 34 ef ff ff 	movzwl -0x10cc(%rbp),%eax
    c607:	66 83 f8 01          	cmp    $0x1,%ax
    c60b:	0f 9f c0             	setg   %al
    c60e:	0f b6 d0             	movzbl %al,%edx
    c611:	48 8b 05 18 32 01 00 	mov    0x13218(%rip),%rax        # 1f830 <g_1470>
    c618:	8b 00                	mov    (%rax),%eax
    c61a:	09 d0                	or     %edx,%eax
    c61c:	48 98                	cltq   
    c61e:	48 89 c6             	mov    %rax,%rsi
    c621:	48 bf 69 b6 3e 91 b4 	movabs $0x8a0b1fb4913eb669,%rdi
    c628:	1f 0b 8a 
    c62b:	e8 c7 d3 ff ff       	callq  99f7 <safe_div_func_int64_t_s_s>
    c630:	48 f7 d0             	not    %rax
    c633:	49 39 c6             	cmp    %rax,%r14
    c636:	7e 07                	jle    c63f <func_10+0x1a67>
    c638:	b9 6c 00 00 00       	mov    $0x6c,%ecx
    c63d:	eb 05                	jmp    c644 <func_10+0x1a6c>
    c63f:	b9 6d 00 00 00       	mov    $0x6d,%ecx
    c644:	48 8b 05 45 2c 01 00 	mov    0x12c45(%rip),%rax        # 1f290 <g_647>
    c64b:	48 8b 00             	mov    (%rax),%rax
    c64e:	8b 10                	mov    (%rax),%edx
    c650:	48 8b 05 39 2c 01 00 	mov    0x12c39(%rip),%rax        # 1f290 <g_647>
    c657:	48 8b 00             	mov    (%rax),%rax
    c65a:	09 ca                	or     %ecx,%edx
    c65c:	89 10                	mov    %edx,(%rax)
    c65e:	8b 10                	mov    (%rax),%edx
    c660:	48 8b 05 21 2b 01 00 	mov    0x12b21(%rip),%rax        # 1f188 <g_267>
    c667:	8b 00                	mov    (%rax),%eax
    c669:	31 d0                	xor    %edx,%eax
    c66b:	89 c0                	mov    %eax,%eax
    c66d:	4c 89 ee             	mov    %r13,%rsi
    c670:	48 89 c7             	mov    %rax,%rdi
    c673:	e8 30 d2 ff ff       	callq  98a8 <safe_sub_func_int64_t_s_s>
    c678:	89 c6                	mov    %eax,%esi
    c67a:	0f b6 85 68 ef ff ff 	movzbl -0x1098(%rbp),%eax
    c681:	0f b6 c0             	movzbl %al,%eax
    c684:	44 89 f9             	mov    %r15d,%ecx
    c687:	44 89 e2             	mov    %r12d,%edx
    c68a:	89 c7                	mov    %eax,%edi
    c68c:	e8 dd 0c 00 00       	callq  d36e <func_24>
    c691:	0f b7 85 34 ef ff ff 	movzwl -0x10cc(%rbp),%eax
    c698:	83 c8 01             	or     $0x1,%eax
    c69b:	48 0f bf d0          	movswq %ax,%rdx
    c69f:	48 8b 85 50 f0 ff ff 	mov    -0xfb0(%rbp),%rax
    c6a6:	48 89 10             	mov    %rdx,(%rax)
    c6a9:	48 8b 85 50 f0 ff ff 	mov    -0xfb0(%rbp),%rax
    c6b0:	48 8b 00             	mov    (%rax),%rax
    c6b3:	48 89 de             	mov    %rbx,%rsi
    c6b6:	48 89 c7             	mov    %rax,%rdi
    c6b9:	e8 83 d1 ff ff       	callq  9841 <safe_add_func_int64_t_s_s>
    c6be:	8b 95 f4 f1 ff ff    	mov    -0xe0c(%rbp),%edx
    c6c4:	48 63 d2             	movslq %edx,%rdx
    c6c7:	48 39 d0             	cmp    %rdx,%rax
    c6ca:	0f 9e c2             	setle  %dl
    c6cd:	48 8b 05 b4 2a 01 00 	mov    0x12ab4(%rip),%rax        # 1f188 <g_267>
    c6d4:	0f b6 d2             	movzbl %dl,%edx
    c6d7:	89 10                	mov    %edx,(%rax)
    c6d9:	80 bd 3c ef ff ff 00 	cmpb   $0x0,-0x10c4(%rbp)
    c6e0:	0f 84 9a 00 00 00    	je     c780 <func_10+0x1ba8>
    c6e6:	e9 d2 06 00 00       	jmpq   cdbd <func_10+0x21e5>
    c6eb:	48 8d 85 54 ef ff ff 	lea    -0x10ac(%rbp),%rax
    c6f2:	48 89 85 b0 f2 ff ff 	mov    %rax,-0xd50(%rbp)
    c6f9:	48 8d 85 54 ef ff ff 	lea    -0x10ac(%rbp),%rax
    c700:	48 89 85 b8 f2 ff ff 	mov    %rax,-0xd48(%rbp)
    c707:	48 8d 85 54 ef ff ff 	lea    -0x10ac(%rbp),%rax
    c70e:	48 89 85 c0 f2 ff ff 	mov    %rax,-0xd40(%rbp)
    c715:	48 8d 85 54 ef ff ff 	lea    -0x10ac(%rbp),%rax
    c71c:	48 89 85 c8 f2 ff ff 	mov    %rax,-0xd38(%rbp)
    c723:	48 8d 85 54 ef ff ff 	lea    -0x10ac(%rbp),%rax
    c72a:	48 89 85 d0 f2 ff ff 	mov    %rax,-0xd30(%rbp)
    c731:	48 8d 85 54 ef ff ff 	lea    -0x10ac(%rbp),%rax
    c738:	48 89 85 d8 f2 ff ff 	mov    %rax,-0xd28(%rbp)
    c73f:	48 8d 85 54 ef ff ff 	lea    -0x10ac(%rbp),%rax
    c746:	48 89 85 e0 f2 ff ff 	mov    %rax,-0xd20(%rbp)
    c74d:	48 8d 85 54 ef ff ff 	lea    -0x10ac(%rbp),%rax
    c754:	48 89 85 e8 f2 ff ff 	mov    %rax,-0xd18(%rbp)
    c75b:	48 8d 85 54 ef ff ff 	lea    -0x10ac(%rbp),%rax
    c762:	48 89 85 f0 f2 ff ff 	mov    %rax,-0xd10(%rbp)
    c769:	83 85 7c ef ff ff 01 	addl   $0x1,-0x1084(%rbp)
    c770:	eb 0e                	jmp    c780 <func_10+0x1ba8>
    c772:	48 8b 85 b8 f0 ff ff 	mov    -0xf48(%rbp),%rax
    c779:	8b 00                	mov    (%rax),%eax
    c77b:	e9 20 08 00 00       	jmpq   cfa0 <func_10+0x23c8>
    c780:	48 8b 05 11 34 01 00 	mov    0x13411(%rip),%rax        # 1fb98 <g_2342>
    c787:	48 8b 00             	mov    (%rax),%rax
    c78a:	8b 00                	mov    (%rax),%eax
    c78c:	48 8b 85 b8 f0 ff ff 	mov    -0xf48(%rbp),%rax
    c793:	8b 00                	mov    (%rax),%eax
    c795:	0f b7 c0             	movzwl %ax,%eax
    c798:	be 03 00 00 00       	mov    $0x3,%esi
    c79d:	89 c7                	mov    %eax,%edi
    c79f:	e8 d6 d6 ff ff       	callq  9e7a <safe_rshift_func_uint16_t_u_u>
    c7a4:	0f b7 d8             	movzwl %ax,%ebx
    c7a7:	0f b7 85 34 ef ff ff 	movzwl -0x10cc(%rbp),%eax
    c7ae:	0f b7 c0             	movzwl %ax,%eax
    c7b1:	be 03 00 00 00       	mov    $0x3,%esi
    c7b6:	89 c7                	mov    %eax,%edi
    c7b8:	e8 8b d6 ff ff       	callq  9e48 <safe_rshift_func_uint16_t_u_s>
    c7bd:	0f b7 d0             	movzwl %ax,%edx
    c7c0:	48 8d 05 31 0a 01 00 	lea    0x10a31(%rip),%rax        # 1d1f8 <g_1480+0x38>
    c7c7:	48 39 85 98 f0 ff ff 	cmp    %rax,-0xf68(%rbp)
    c7ce:	0f 95 c0             	setne  %al
    c7d1:	0f b6 c0             	movzbl %al,%eax
    c7d4:	39 c2                	cmp    %eax,%edx
    c7d6:	0f 9d c0             	setge  %al
    c7d9:	0f b6 c0             	movzbl %al,%eax
    c7dc:	39 c3                	cmp    %eax,%ebx
    c7de:	0f 9d c0             	setge  %al
    c7e1:	0f b6 d0             	movzbl %al,%edx
    c7e4:	8b 85 58 ef ff ff    	mov    -0x10a8(%rbp),%eax
    c7ea:	39 c2                	cmp    %eax,%edx
    c7ec:	0f 95 c0             	setne  %al
    c7ef:	0f b6 d0             	movzbl %al,%edx
    c7f2:	48 8b 85 50 f0 ff ff 	mov    -0xfb0(%rbp),%rax
    c7f9:	48 89 10             	mov    %rdx,(%rax)
    c7fc:	0f b7 85 34 ef ff ff 	movzwl -0x10cc(%rbp),%eax
    c803:	0f be d0             	movsbl %al,%edx
    c806:	0f be 85 3c ef ff ff 	movsbl -0x10c4(%rbp),%eax
    c80d:	89 d6                	mov    %edx,%esi
    c80f:	89 c7                	mov    %eax,%edi
    c811:	e8 dc c9 ff ff       	callq  91f2 <safe_sub_func_int8_t_s_s>
    c816:	83 c8 01             	or     $0x1,%eax
    c819:	48 0f be d0          	movsbq %al,%rdx
    c81d:	8b 85 e0 f1 ff ff    	mov    -0xe20(%rbp),%eax
    c823:	48 98                	cltq   
    c825:	48 39 c2             	cmp    %rax,%rdx
    c828:	0f 9e c0             	setle  %al
    c82b:	0f b6 c0             	movzbl %al,%eax
    c82e:	23 85 7c ef ff ff    	and    -0x1084(%rbp),%eax
    c834:	39 85 a0 ef ff ff    	cmp    %eax,-0x1060(%rbp)
    c83a:	48 8b 05 17 30 01 00 	mov    0x13017(%rip),%rax        # 1f858 <g_1494>
    c841:	48 8b 00             	mov    (%rax),%rax
    c844:	48 8b 00             	mov    (%rax),%rax
    c847:	48 39 85 70 f0 ff ff 	cmp    %rax,-0xf90(%rbp)
    c84e:	0f 84 4e 05 00 00    	je     cda2 <func_10+0x21ca>
    c854:	48 c7 85 f0 f0 ff ff 	movq   $0x0,-0xf10(%rbp)
    c85b:	00 00 00 00 
    c85f:	48 8d 85 00 f6 ff ff 	lea    -0xa00(%rbp),%rax
    c866:	48 8d 15 53 18 01 00 	lea    0x11853(%rip),%rdx        # 1e0c0 <g_3397+0xabf>
    c86d:	b9 31 00 00 00       	mov    $0x31,%ecx
    c872:	48 89 c7             	mov    %rax,%rdi
    c875:	48 89 d6             	mov    %rdx,%rsi
    c878:	f3 48 a5             	rep movsq %ds:(%rsi),%es:(%rdi)
    c87b:	48 8d 85 00 f6 ff ff 	lea    -0xa00(%rbp),%rax
    c882:	48 83 c0 50          	add    $0x50,%rax
    c886:	48 89 85 f8 f0 ff ff 	mov    %rax,-0xf08(%rbp)
    c88d:	c7 85 30 f0 ff ff 00 	movl   $0x0,-0xfd0(%rbp)
    c894:	00 00 00 
    c897:	48 8d 05 ba 35 01 00 	lea    0x135ba(%rip),%rax        # 1fe58 <g_3105+0x38>
    c89e:	48 89 85 00 f1 ff ff 	mov    %rax,-0xf00(%rbp)
    c8a5:	48 c7 85 08 f1 ff ff 	movq   $0x0,-0xef8(%rbp)
    c8ac:	00 00 00 00 
    c8b0:	48 8d 05 e9 01 01 00 	lea    0x101e9(%rip),%rax        # 1caa0 <g_77+0x6c0>
    c8b7:	48 89 85 10 f1 ff ff 	mov    %rax,-0xef0(%rbp)
    c8be:	48 8d 05 e3 28 01 00 	lea    0x128e3(%rip),%rax        # 1f1a8 <g_359>
    c8c5:	48 89 85 b0 f2 ff ff 	mov    %rax,-0xd50(%rbp)
    c8cc:	48 8d 05 d5 28 01 00 	lea    0x128d5(%rip),%rax        # 1f1a8 <g_359>
    c8d3:	48 89 85 b8 f2 ff ff 	mov    %rax,-0xd48(%rbp)
    c8da:	48 8d 05 c7 28 01 00 	lea    0x128c7(%rip),%rax        # 1f1a8 <g_359>
    c8e1:	48 89 85 c0 f2 ff ff 	mov    %rax,-0xd40(%rbp)
    c8e8:	48 8d 05 b9 28 01 00 	lea    0x128b9(%rip),%rax        # 1f1a8 <g_359>
    c8ef:	48 89 85 c8 f2 ff ff 	mov    %rax,-0xd38(%rbp)
    c8f6:	48 8d 05 ab 28 01 00 	lea    0x128ab(%rip),%rax        # 1f1a8 <g_359>
    c8fd:	48 89 85 d0 f2 ff ff 	mov    %rax,-0xd30(%rbp)
    c904:	48 8d 05 9d 28 01 00 	lea    0x1289d(%rip),%rax        # 1f1a8 <g_359>
    c90b:	48 89 85 d8 f2 ff ff 	mov    %rax,-0xd28(%rbp)
    c912:	48 8d 05 8f 28 01 00 	lea    0x1288f(%rip),%rax        # 1f1a8 <g_359>
    c919:	48 89 85 e0 f2 ff ff 	mov    %rax,-0xd20(%rbp)
    c920:	48 8d 05 81 28 01 00 	lea    0x12881(%rip),%rax        # 1f1a8 <g_359>
    c927:	48 89 85 e8 f2 ff ff 	mov    %rax,-0xd18(%rbp)
    c92e:	48 8d 05 73 28 01 00 	lea    0x12873(%rip),%rax        # 1f1a8 <g_359>
    c935:	48 89 85 f0 f2 ff ff 	mov    %rax,-0xd10(%rbp)
    c93c:	48 8d 05 65 28 01 00 	lea    0x12865(%rip),%rax        # 1f1a8 <g_359>
    c943:	48 89 85 f8 f2 ff ff 	mov    %rax,-0xd08(%rbp)
    c94a:	48 8d 05 57 28 01 00 	lea    0x12857(%rip),%rax        # 1f1a8 <g_359>
    c951:	48 89 85 00 f3 ff ff 	mov    %rax,-0xd00(%rbp)
    c958:	48 8d 05 49 28 01 00 	lea    0x12849(%rip),%rax        # 1f1a8 <g_359>
    c95f:	48 89 85 08 f3 ff ff 	mov    %rax,-0xcf8(%rbp)
    c966:	48 8d 05 3b 28 01 00 	lea    0x1283b(%rip),%rax        # 1f1a8 <g_359>
    c96d:	48 89 85 10 f3 ff ff 	mov    %rax,-0xcf0(%rbp)
    c974:	48 8d 05 2d 28 01 00 	lea    0x1282d(%rip),%rax        # 1f1a8 <g_359>
    c97b:	48 89 85 18 f3 ff ff 	mov    %rax,-0xce8(%rbp)
    c982:	48 8d 05 1f 28 01 00 	lea    0x1281f(%rip),%rax        # 1f1a8 <g_359>
    c989:	48 89 85 20 f3 ff ff 	mov    %rax,-0xce0(%rbp)
    c990:	48 8d 05 11 28 01 00 	lea    0x12811(%rip),%rax        # 1f1a8 <g_359>
    c997:	48 89 85 28 f3 ff ff 	mov    %rax,-0xcd8(%rbp)
    c99e:	48 8d 85 38 ef ff ff 	lea    -0x10c8(%rbp),%rax
    c9a5:	48 89 85 48 f3 ff ff 	mov    %rax,-0xcb8(%rbp)
    c9ac:	0f be 9d 3c ef ff ff 	movsbl -0x10c4(%rbp),%ebx
    c9b3:	48 8b 85 b8 f0 ff ff 	mov    -0xf48(%rbp),%rax
    c9ba:	8b 00                	mov    (%rax),%eax
    c9bc:	89 85 28 ef ff ff    	mov    %eax,-0x10d8(%rbp)
    c9c2:	0f b7 85 34 ef ff ff 	movzwl -0x10cc(%rbp),%eax
    c9c9:	44 0f b6 e0          	movzbl %al,%r12d
    c9cd:	0f b7 85 34 ef ff ff 	movzwl -0x10cc(%rbp),%eax
    c9d4:	44 0f b7 e8          	movzwl %ax,%r13d
    c9d8:	0f b7 85 34 ef ff ff 	movzwl -0x10cc(%rbp),%eax
    c9df:	44 0f be f0          	movsbl %al,%r14d
    c9e3:	48 83 bd f0 f0 ff ff 	cmpq   $0x0,-0xf10(%rbp)
    c9ea:	00 
    c9eb:	0f 95 c0             	setne  %al
    c9ee:	0f b6 d0             	movzbl %al,%edx
    c9f1:	48 8b 05 70 2f 01 00 	mov    0x12f70(%rip),%rax        # 1f968 <g_2138>
    c9f8:	0f b7 00             	movzwl (%rax),%eax
    c9fb:	98                   	cwtl   
    c9fc:	39 c2                	cmp    %eax,%edx
    c9fe:	0f 9f c0             	setg   %al
    ca01:	88 85 30 ef ff ff    	mov    %al,-0x10d0(%rbp)
    ca07:	44 0f be bd 3c ef ff 	movsbl -0x10c4(%rbp),%r15d
    ca0e:	ff 
    ca0f:	0f b7 85 34 ef ff ff 	movzwl -0x10cc(%rbp),%eax
    ca16:	0f b7 d0             	movzwl %ax,%edx
    ca19:	8b 85 38 ef ff ff    	mov    -0x10c8(%rbp),%eax
    ca1f:	25 26 b9 0c 47       	and    $0x470cb926,%eax
    ca24:	89 85 38 ef ff ff    	mov    %eax,-0x10c8(%rbp)
    ca2a:	8b 85 38 ef ff ff    	mov    -0x10c8(%rbp),%eax
    ca30:	85 c0                	test   %eax,%eax
    ca32:	75 1f                	jne    ca53 <func_10+0x1e7b>
    ca34:	48 8d 05 55 28 01 00 	lea    0x12855(%rip),%rax        # 1f290 <g_647>
    ca3b:	48 89 85 a8 f0 ff ff 	mov    %rax,-0xf58(%rbp)
    ca42:	48 8b 85 f8 f0 ff ff 	mov    -0xf08(%rbp),%rax
    ca49:	48 8b 8d a8 f0 ff ff 	mov    -0xf58(%rbp),%rcx
    ca50:	48 89 08             	mov    %rcx,(%rax)
    ca53:	b8 01 00 00 00       	mov    $0x1,%eax
    ca58:	0f b7 c0             	movzwl %ax,%eax
    ca5b:	89 d6                	mov    %edx,%esi
    ca5d:	89 c7                	mov    %eax,%edi
    ca5f:	e8 2a d3 ff ff       	callq  9d8e <safe_div_func_uint16_t_u_u>
    ca64:	0f b7 d0             	movzwl %ax,%edx
    ca67:	0f be 85 3c ef ff ff 	movsbl -0x10c4(%rbp),%eax
    ca6e:	21 d0                	and    %edx,%eax
    ca70:	85 c0                	test   %eax,%eax
    ca72:	74 07                	je     ca7b <func_10+0x1ea3>
    ca74:	b8 01 00 00 00       	mov    $0x1,%eax
    ca79:	eb 05                	jmp    ca80 <func_10+0x1ea8>
    ca7b:	b8 00 00 00 00       	mov    $0x0,%eax
    ca80:	44 39 f8             	cmp    %r15d,%eax
    ca83:	0f 9e c0             	setle  %al
    ca86:	32 85 30 ef ff ff    	xor    -0x10d0(%rbp),%al
    ca8c:	0f be c0             	movsbl %al,%eax
    ca8f:	44 89 f6             	mov    %r14d,%esi
    ca92:	89 c7                	mov    %eax,%edi
    ca94:	e8 79 c7 ff ff       	callq  9212 <safe_mul_func_int8_t_s_s>
    ca99:	66 98                	cbtw   
    ca9b:	0f b7 c0             	movzwl %ax,%eax
    ca9e:	44 89 ee             	mov    %r13d,%esi
    caa1:	89 c7                	mov    %eax,%edi
    caa3:	e8 e6 d2 ff ff       	callq  9d8e <safe_div_func_uint16_t_u_u>
    caa8:	0f b7 d0             	movzwl %ax,%edx
    caab:	48 8b 85 b8 f0 ff ff 	mov    -0xf48(%rbp),%rax
    cab2:	8b 00                	mov    (%rax),%eax
    cab4:	39 c2                	cmp    %eax,%edx
    cab6:	0f 94 c0             	sete   %al
    cab9:	0f b6 c0             	movzbl %al,%eax
    cabc:	be 06 00 00 00       	mov    $0x6,%esi
    cac1:	89 c7                	mov    %eax,%edi
    cac3:	e8 26 c8 ff ff       	callq  92ee <safe_lshift_func_int8_t_s_u>
    cac8:	48 0f be c0          	movsbq %al,%rax
    cacc:	48 c7 c6 ff ff ff ff 	mov    $0xffffffffffffffff,%rsi
    cad3:	48 89 c7             	mov    %rax,%rdi
    cad6:	e8 d9 ce ff ff       	callq  99b4 <safe_mod_func_int64_t_s_s>
    cadb:	8b 95 a0 ef ff ff    	mov    -0x1060(%rbp),%edx
    cae1:	48 39 d0             	cmp    %rdx,%rax
    cae4:	0f 9f c0             	setg   %al
    cae7:	0f b6 d0             	movzbl %al,%edx
    caea:	8b 85 50 ef ff ff    	mov    -0x10b0(%rbp),%eax
    caf0:	21 d0                	and    %edx,%eax
    caf2:	89 85 50 ef ff ff    	mov    %eax,-0x10b0(%rbp)
    caf8:	8b 95 50 ef ff ff    	mov    -0x10b0(%rbp),%edx
    cafe:	0f b7 85 34 ef ff ff 	movzwl -0x10cc(%rbp),%eax
    cb05:	98                   	cwtl   
    cb06:	39 c2                	cmp    %eax,%edx
    cb08:	0f 95 c0             	setne  %al
    cb0b:	0f b6 c0             	movzbl %al,%eax
    cb0e:	44 89 e6             	mov    %r12d,%esi
    cb11:	89 c7                	mov    %eax,%edi
    cb13:	e8 7b d0 ff ff       	callq  9b93 <safe_mul_func_uint8_t_u_u>
    cb18:	0f b6 d0             	movzbl %al,%edx
    cb1b:	0f b7 85 34 ef ff ff 	movzwl -0x10cc(%rbp),%eax
    cb22:	98                   	cwtl   
    cb23:	89 d6                	mov    %edx,%esi
    cb25:	89 c7                	mov    %eax,%edi
    cb27:	e8 87 c8 ff ff       	callq  93b3 <safe_add_func_int16_t_s_s>
    cb2c:	66 85 c0             	test   %ax,%ax
    cb2f:	75 07                	jne    cb38 <func_10+0x1f60>
    cb31:	ba 01 00 00 00       	mov    $0x1,%edx
    cb36:	eb 05                	jmp    cb3d <func_10+0x1f65>
    cb38:	ba 00 00 00 00       	mov    $0x0,%edx
    cb3d:	48 8b 05 1c 27 01 00 	mov    0x1271c(%rip),%rax        # 1f260 <g_447>
    cb44:	0f b6 00             	movzbl (%rax),%eax
    cb47:	0f be c0             	movsbl %al,%eax
    cb4a:	39 c2                	cmp    %eax,%edx
    cb4c:	0f 94 c0             	sete   %al
    cb4f:	0f b6 d0             	movzbl %al,%edx
    cb52:	0f be 85 3c ef ff ff 	movsbl -0x10c4(%rbp),%eax
    cb59:	39 c2                	cmp    %eax,%edx
    cb5b:	0f 94 c0             	sete   %al
    cb5e:	0f b6 c0             	movzbl %al,%eax
    cb61:	8b b5 28 ef ff ff    	mov    -0x10d8(%rbp),%esi
    cb67:	89 c7                	mov    %eax,%edi
    cb69:	e8 62 d3 ff ff       	callq  9ed0 <safe_sub_func_uint32_t_u_u>
    cb6e:	98                   	cwtl   
    cb6f:	89 de                	mov    %ebx,%esi
    cb71:	89 c7                	mov    %eax,%edi
    cb73:	e8 eb c9 ff ff       	callq  9563 <safe_rshift_func_int16_t_s_u>
    cb78:	48 8b 05 99 32 01 00 	mov    0x13299(%rip),%rax        # 1fe18 <g_3093>
    cb7f:	48 8d 95 38 ef ff ff 	lea    -0x10c8(%rbp),%rdx
    cb86:	48 89 10             	mov    %rdx,(%rax)
    cb89:	48 8b 05 f8 25 01 00 	mov    0x125f8(%rip),%rax        # 1f188 <g_267>
    cb90:	c7 00 00 00 00 00    	movl   $0x0,(%rax)
    cb96:	8b 85 38 ef ff ff    	mov    -0x10c8(%rbp),%eax
    cb9c:	85 c0                	test   %eax,%eax
    cb9e:	0f 84 81 01 00 00    	je     cd25 <func_10+0x214d>
    cba4:	0f b7 85 34 ef ff ff 	movzwl -0x10cc(%rbp),%eax
    cbab:	66 85 c0             	test   %ax,%ax
    cbae:	0f 84 f0 00 00 00    	je     cca4 <func_10+0x20cc>
    cbb4:	8b 85 30 f0 ff ff    	mov    -0xfd0(%rbp),%eax
    cbba:	48 63 d0             	movslq %eax,%rdx
    cbbd:	48 8b 85 10 f1 ff ff 	mov    -0xef0(%rbp),%rax
    cbc4:	48 89 10             	mov    %rdx,(%rax)
    cbc7:	48 8b 85 58 f0 ff ff 	mov    -0xfa8(%rbp),%rax
    cbce:	48 8b 10             	mov    (%rax),%rdx
    cbd1:	48 8b 85 58 f0 ff ff 	mov    -0xfa8(%rbp),%rax
    cbd8:	48 8b 00             	mov    (%rax),%rax
    cbdb:	48 8b 12             	mov    (%rdx),%rdx
    cbde:	48 89 10             	mov    %rdx,(%rax)
    cbe1:	48 8b 10             	mov    (%rax),%rdx
    cbe4:	48 8b 85 b8 f2 ff ff 	mov    -0xd48(%rbp),%rax
    cbeb:	48 39 c2             	cmp    %rax,%rdx
    cbee:	0f 94 c0             	sete   %al
    cbf1:	0f b6 d8             	movzbl %al,%ebx
    cbf4:	48 8b 15 5d 32 01 00 	mov    0x1325d(%rip),%rdx        # 1fe58 <g_3105+0x38>
    cbfb:	48 8b 85 00 f1 ff ff 	mov    -0xf00(%rbp),%rax
    cc02:	48 89 10             	mov    %rdx,(%rax)
    cc05:	48 8b 85 00 f1 ff ff 	mov    -0xf00(%rbp),%rax
    cc0c:	48 8b 00             	mov    (%rax),%rax
    cc0f:	48 89 85 90 f9 ff ff 	mov    %rax,-0x670(%rbp)
    cc16:	48 8b 85 90 f9 ff ff 	mov    -0x670(%rbp),%rax
    cc1d:	48 39 85 78 f0 ff ff 	cmp    %rax,-0xf88(%rbp)
    cc24:	0f 95 c0             	setne  %al
    cc27:	0f b6 c0             	movzbl %al,%eax
    cc2a:	be 62 e6 00 00       	mov    $0xe662,%esi
    cc2f:	89 c7                	mov    %eax,%edi
    cc31:	e8 26 d1 ff ff       	callq  9d5c <safe_mod_func_uint16_t_u_u>
    cc36:	48 8b 95 50 f0 ff ff 	mov    -0xfb0(%rbp),%rdx
    cc3d:	48 8b 12             	mov    (%rdx),%rdx
    cc40:	0f b7 c0             	movzwl %ax,%eax
    cc43:	48 21 c2             	and    %rax,%rdx
    cc46:	48 8b 85 50 f0 ff ff 	mov    -0xfb0(%rbp),%rax
    cc4d:	48 89 10             	mov    %rdx,(%rax)
    cc50:	48 8b 85 50 f0 ff ff 	mov    -0xfb0(%rbp),%rax
    cc57:	48 8b 00             	mov    (%rax),%rax
    cc5a:	48 89 de             	mov    %rbx,%rsi
    cc5d:	48 89 c7             	mov    %rax,%rdi
    cc60:	e8 dc cb ff ff       	callq  9841 <safe_add_func_int64_t_s_s>
    cc65:	48 83 f8 ff          	cmp    $0xffffffffffffffff,%rax
    cc69:	0f 94 c0             	sete   %al
    cc6c:	0f b6 d0             	movzbl %al,%edx
    cc6f:	0f be 85 3c ef ff ff 	movsbl -0x10c4(%rbp),%eax
    cc76:	39 c2                	cmp    %eax,%edx
    cc78:	0f 95 c0             	setne  %al
    cc7b:	0f b6 c8             	movzbl %al,%ecx
    cc7e:	48 8b 05 db 25 01 00 	mov    0x125db(%rip),%rax        # 1f260 <g_447>
    cc85:	0f b6 10             	movzbl (%rax),%edx
    cc88:	48 8b 05 d1 25 01 00 	mov    0x125d1(%rip),%rax        # 1f260 <g_447>
    cc8f:	31 ca                	xor    %ecx,%edx
    cc91:	88 10                	mov    %dl,(%rax)
    cc93:	0f b6 00             	movzbl (%rax),%eax
    cc96:	0f be d0             	movsbl %al,%edx
    cc99:	48 8b 85 b8 f0 ff ff 	mov    -0xf48(%rbp),%rax
    cca0:	8b 00                	mov    (%rax),%eax
    cca2:	39 c2                	cmp    %eax,%edx
    cca4:	8b 85 e0 f1 ff ff    	mov    -0xe20(%rbp),%eax
    ccaa:	66 89 85 34 ef ff ff 	mov    %ax,-0x10cc(%rbp)
    ccb1:	be 23 bf 2e 10       	mov    $0x102ebf23,%esi
    ccb6:	bf 01 00 00 00       	mov    $0x1,%edi
    ccbb:	e8 3d d2 ff ff       	callq  9efd <safe_mod_func_uint32_t_u_u>
    ccc0:	85 c0                	test   %eax,%eax
    ccc2:	74 11                	je     ccd5 <func_10+0x20fd>
    ccc4:	8b 85 38 ef ff ff    	mov    -0x10c8(%rbp),%eax
    ccca:	85 c0                	test   %eax,%eax
    cccc:	74 07                	je     ccd5 <func_10+0x20fd>
    ccce:	b8 01 00 00 00       	mov    $0x1,%eax
    ccd3:	eb 05                	jmp    ccda <func_10+0x2102>
    ccd5:	b8 00 00 00 00       	mov    $0x0,%eax
    ccda:	48 63 d0             	movslq %eax,%rdx
    ccdd:	48 8b 05 4c 27 01 00 	mov    0x1274c(%rip),%rax        # 1f430 <g_1008>
    cce4:	48 8b 00             	mov    (%rax),%rax
    cce7:	48 8b 00             	mov    (%rax),%rax
    ccea:	48 21 c2             	and    %rax,%rdx
    cced:	8b 85 30 f0 ff ff    	mov    -0xfd0(%rbp),%eax
    ccf3:	48 98                	cltq   
    ccf5:	48 39 c2             	cmp    %rax,%rdx
    ccf8:	0f 92 c0             	setb   %al
    ccfb:	0f b6 c0             	movzbl %al,%eax
    ccfe:	48 0b 85 b0 f0 ff ff 	or     -0xf50(%rbp),%rax
    cd05:	48 85 c0             	test   %rax,%rax
    cd08:	48 8b 15 79 25 01 00 	mov    0x12579(%rip),%rdx        # 1f288 <g_648>
    cd0f:	8b 02                	mov    (%rdx),%eax
    cd11:	8d 48 01             	lea    0x1(%rax),%ecx
    cd14:	89 0a                	mov    %ecx,(%rdx)
    cd16:	85 c0                	test   %eax,%eax
    cd18:	0f 95 c0             	setne  %al
    cd1b:	0f b6 c0             	movzbl %al,%eax
    cd1e:	89 85 30 f0 ff ff    	mov    %eax,-0xfd0(%rbp)
    cd24:	90                   	nop
    cd25:	8b 85 ec f1 ff ff    	mov    -0xe14(%rbp),%eax
    cd2b:	85 c0                	test   %eax,%eax
    cd2d:	74 2e                	je     cd5d <func_10+0x2185>
    cd2f:	48 8d 05 3a 31 01 00 	lea    0x1313a(%rip),%rax        # 1fe70 <g_3117>
    cd36:	48 89 85 20 f1 ff ff 	mov    %rax,-0xee0(%rbp)
    cd3d:	48 8b 85 20 f1 ff ff 	mov    -0xee0(%rbp),%rax
    cd44:	48 8d 15 7d 2b 01 00 	lea    0x12b7d(%rip),%rdx        # 1f8c8 <g_1769+0x48>
    cd4b:	48 89 10             	mov    %rdx,(%rax)
    cd4e:	48 8b 05 13 2c 01 00 	mov    0x12c13(%rip),%rax        # 1f968 <g_2138>
    cd55:	0f b7 00             	movzwl (%rax),%eax
    cd58:	e9 43 02 00 00       	jmpq   cfa0 <func_10+0x23c8>
    cd5d:	48 8d 85 30 f3 ff ff 	lea    -0xcd0(%rbp),%rax
    cd64:	48 83 c0 18          	add    $0x18,%rax
    cd68:	48 89 85 18 f1 ff ff 	mov    %rax,-0xee8(%rbp)
    cd6f:	48 8b 85 18 f1 ff ff 	mov    -0xee8(%rbp),%rax
    cd76:	48 8d 95 30 f0 ff ff 	lea    -0xfd0(%rbp),%rdx
    cd7d:	48 89 10             	mov    %rdx,(%rax)
    cd80:	48 8b 05 01 24 01 00 	mov    0x12401(%rip),%rax        # 1f188 <g_267>
    cd87:	c7 00 6c cb c0 e2    	movl   $0xe2c0cb6c,(%rax)
    cd8d:	80 bd 3c ef ff ff 00 	cmpb   $0x0,-0x10c4(%rbp)
    cd94:	75 23                	jne    cdb9 <func_10+0x21e1>
    cd96:	c7 85 38 ef ff ff 00 	movl   $0x0,-0x10c8(%rbp)
    cd9d:	00 00 00 
    cda0:	eb 0c                	jmp    cdae <func_10+0x21d6>
    cda2:	0f b7 85 34 ef ff ff 	movzwl -0x10cc(%rbp),%eax
    cda9:	66 85 c0             	test   %ax,%ax
    cdac:	75 0e                	jne    cdbc <func_10+0x21e4>
    cdae:	8b 85 50 ef ff ff    	mov    -0x10b0(%rbp),%eax
    cdb4:	e9 e7 01 00 00       	jmpq   cfa0 <func_10+0x23c8>
    cdb9:	90                   	nop
    cdba:	eb 01                	jmp    cdbd <func_10+0x21e5>
    cdbc:	90                   	nop
    cdbd:	48 8b 05 fc 36 01 00 	mov    0x136fc(%rip),%rax        # 204c0 <g_3121>
    cdc4:	48 8b 95 38 f0 ff ff 	mov    -0xfc8(%rbp),%rdx
    cdcb:	48 89 10             	mov    %rdx,(%rax)
    cdce:	48 8b 05 cb 23 01 00 	mov    0x123cb(%rip),%rax        # 1f1a0 <g_349>
    cdd5:	48 8b 00             	mov    (%rax),%rax
    cdd8:	48 8b 18             	mov    (%rax),%rbx
    cddb:	8b 85 38 ef ff ff    	mov    -0x10c8(%rbp),%eax
    cde1:	44 0f b7 e0          	movzwl %ax,%r12d
    cde5:	48 c7 85 80 f0 ff ff 	movq   $0x0,-0xf80(%rbp)
    cdec:	00 00 00 00 
    cdf0:	0f b7 85 34 ef ff ff 	movzwl -0x10cc(%rbp),%eax
    cdf7:	4c 0f bf e8          	movswq %ax,%r13
    cdfb:	4c 0f be b5 3c ef ff 	movsbq -0x10c4(%rbp),%r14
    ce02:	ff 
    ce03:	48 8b 05 8e 24 01 00 	mov    0x1248e(%rip),%rax        # 1f298 <g_868>
    ce0a:	0f b7 00             	movzwl (%rax),%eax
    ce0d:	44 0f b7 f8          	movzwl %ax,%r15d
    ce11:	8b 85 e8 f1 ff ff    	mov    -0xe18(%rbp),%eax
    ce17:	85 c0                	test   %eax,%eax
    ce19:	0f 84 9b 00 00 00    	je     ceba <func_10+0x22e2>
    ce1f:	8b 85 7c ef ff ff    	mov    -0x1084(%rbp),%eax
    ce25:	0f b7 c0             	movzwl %ax,%eax
    ce28:	89 85 28 ef ff ff    	mov    %eax,-0x10d8(%rbp)
    ce2e:	8b 85 14 f2 ff ff    	mov    -0xdec(%rbp),%eax
    ce34:	0f b7 c8             	movzwl %ax,%ecx
    ce37:	89 8d 30 ef ff ff    	mov    %ecx,-0x10d0(%rbp)
    ce3d:	8b 85 38 ef ff ff    	mov    -0x10c8(%rbp),%eax
    ce43:	48 63 d0             	movslq %eax,%rdx
    ce46:	83 85 a8 ef ff ff 01 	addl   $0x1,-0x1058(%rbp)
    ce4d:	8b 85 a8 ef ff ff    	mov    -0x1058(%rbp),%eax
    ce53:	48 89 d6             	mov    %rdx,%rsi
    ce56:	48 89 c7             	mov    %rax,%rdi
    ce59:	e8 22 d2 ff ff       	callq  a080 <safe_mod_func_uint64_t_u_u>
    ce5e:	8b b5 30 ef ff ff    	mov    -0x10d0(%rbp),%esi
    ce64:	bf 01 00 00 00       	mov    $0x1,%edi
    ce69:	e8 91 ce ff ff       	callq  9cff <safe_add_func_uint16_t_u_u>
    ce6e:	8b b5 28 ef ff ff    	mov    -0x10d8(%rbp),%esi
    ce74:	bf 01 00 00 00       	mov    $0x1,%edi
    ce79:	e8 10 cf ff ff       	callq  9d8e <safe_div_func_uint16_t_u_u>
    ce7e:	0f b7 c0             	movzwl %ax,%eax
    ce81:	31 85 80 ef ff ff    	xor    %eax,-0x1080(%rbp)
    ce87:	8b 85 e8 f1 ff ff    	mov    -0xe18(%rbp),%eax
    ce8d:	39 85 80 ef ff ff    	cmp    %eax,-0x1080(%rbp)
    ce93:	0f 9c c0             	setl   %al
    ce96:	0f b6 c0             	movzbl %al,%eax
    ce99:	be 05 00 00 00       	mov    $0x5,%esi
    ce9e:	89 c7                	mov    %eax,%edi
    cea0:	e8 19 cf ff ff       	callq  9dbe <safe_lshift_func_uint16_t_u_s>
    cea5:	66 85 c0             	test   %ax,%ax
    cea8:	75 09                	jne    ceb3 <func_10+0x22db>
    ceaa:	83 bd a4 ef ff ff 00 	cmpl   $0x0,-0x105c(%rbp)
    ceb1:	74 07                	je     ceba <func_10+0x22e2>
    ceb3:	b8 01 00 00 00       	mov    $0x1,%eax
    ceb8:	eb 05                	jmp    cebf <func_10+0x22e7>
    ceba:	b8 00 00 00 00       	mov    $0x0,%eax
    cebf:	f7 d0                	not    %eax
    cec1:	0f b7 c0             	movzwl %ax,%eax
    cec4:	44 89 fe             	mov    %r15d,%esi
    cec7:	89 c7                	mov    %eax,%edi
    cec9:	e8 6f ce ff ff       	callq  9d3d <safe_mul_func_uint16_t_u_u>
    cece:	0f b7 c0             	movzwl %ax,%eax
    ced1:	4c 89 f6             	mov    %r14,%rsi
    ced4:	48 89 c7             	mov    %rax,%rdi
    ced7:	e8 a4 d1 ff ff       	callq  a080 <safe_mod_func_uint64_t_u_u>
    cedc:	8b 85 38 ef ff ff    	mov    -0x10c8(%rbp),%eax
    cee2:	39 85 a4 ef ff ff    	cmp    %eax,-0x105c(%rbp)
    cee8:	0f 93 c0             	setae  %al
    ceeb:	0f b6 c0             	movzbl %al,%eax
    ceee:	4c 89 ee             	mov    %r13,%rsi
    cef1:	48 89 c7             	mov    %rax,%rdi
    cef4:	e8 bb ca ff ff       	callq  99b4 <safe_mod_func_int64_t_s_s>
    cef9:	0f b7 c0             	movzwl %ax,%eax
    cefc:	be b2 cb 00 00       	mov    $0xcbb2,%esi
    cf01:	89 c7                	mov    %eax,%edi
    cf03:	e8 86 ce ff ff       	callq  9d8e <safe_div_func_uint16_t_u_u>
    cf08:	0f b6 85 3c ef ff ff 	movzbl -0x10c4(%rbp),%eax
    cf0f:	83 c8 01             	or     $0x1,%eax
    cf12:	66 98                	cbtw   
    cf14:	8b 95 a0 ef ff ff    	mov    -0x1060(%rbp),%edx
    cf1a:	31 d0                	xor    %edx,%eax
    cf1c:	0f b7 c0             	movzwl %ax,%eax
    cf1f:	44 89 e6             	mov    %r12d,%esi
    cf22:	89 c7                	mov    %eax,%edi
    cf24:	e8 14 ce ff ff       	callq  9d3d <safe_mul_func_uint16_t_u_u>
    cf29:	66 3d 92 1f          	cmp    $0x1f92,%ax
    cf2d:	0f 97 c0             	seta   %al
    cf30:	0f b6 c0             	movzbl %al,%eax
    cf33:	48 89 de             	mov    %rbx,%rsi
    cf36:	48 89 c7             	mov    %rax,%rdi
    cf39:	e8 f0 d0 ff ff       	callq  a02e <safe_add_func_uint64_t_u_u>
    cf3e:	48 85 c0             	test   %rax,%rax
    cf41:	75 0b                	jne    cf4e <func_10+0x2376>
    cf43:	48 8b 05 be 2e 01 00 	mov    0x12ebe(%rip),%rax        # 1fe08 <g_2836>
    cf4a:	8b 00                	mov    (%rax),%eax
    cf4c:	85 c0                	test   %eax,%eax
    cf4e:	0f be 85 3c ef ff ff 	movsbl -0x10c4(%rbp),%eax
    cf55:	89 c6                	mov    %eax,%esi
    cf57:	bf 01 00 00 00       	mov    $0x1,%edi
    cf5c:	e8 f4 c4 ff ff       	callq  9455 <safe_div_func_int16_t_s_s>
    cf61:	48 0f bf d0          	movswq %ax,%rdx
    cf65:	8b 85 ec f1 ff ff    	mov    -0xe14(%rbp),%eax
    cf6b:	48 98                	cltq   
    cf6d:	48 39 c2             	cmp    %rax,%rdx
    cf70:	0f 97 c2             	seta   %dl
    cf73:	48 8b 05 0e 23 01 00 	mov    0x1230e(%rip),%rax        # 1f288 <g_648>
    cf7a:	0f b6 d2             	movzbl %dl,%edx
    cf7d:	89 10                	mov    %edx,(%rax)
    cf7f:	8b 10                	mov    (%rax),%edx
    cf81:	0f b7 85 34 ef ff ff 	movzwl -0x10cc(%rbp),%eax
    cf88:	98                   	cwtl   
    cf89:	39 c2                	cmp    %eax,%edx
    cf8b:	0f 92 c2             	setb   %dl
    cf8e:	48 8b 05 f3 21 01 00 	mov    0x121f3(%rip),%rax        # 1f188 <g_267>
    cf95:	0f b6 d2             	movzbl %dl,%edx
    cf98:	89 10                	mov    %edx,(%rax)
    cf9a:	8b 85 7c ef ff ff    	mov    -0x1084(%rbp),%eax
    cfa0:	48 8b 5d c8          	mov    -0x38(%rbp),%rbx
    cfa4:	64 48 33 1c 25 28 00 	xor    %fs:0x28,%rbx
    cfab:	00 00 
    cfad:	74 05                	je     cfb4 <func_10+0x23dc>
    cfaf:	e8 bc c0 ff ff       	callq  9070 <__stack_chk_fail@plt>
    cfb4:	48 81 c4 b8 10 00 00 	add    $0x10b8,%rsp
    cfbb:	5b                   	pop    %rbx
    cfbc:	41 5c                	pop    %r12
    cfbe:	41 5d                	pop    %r13
    cfc0:	41 5e                	pop    %r14
    cfc2:	41 5f                	pop    %r15
    cfc4:	5d                   	pop    %rbp
    cfc5:	c3                   	retq   

000000000000cfc6 <func_16>:
    cfc6:	f3 0f 1e fa          	endbr64 
    cfca:	55                   	push   %rbp
    cfcb:	48 89 e5             	mov    %rsp,%rbp
    cfce:	48 81 ec f0 01 00 00 	sub    $0x1f0,%rsp
    cfd5:	89 bd 1c fe ff ff    	mov    %edi,-0x1e4(%rbp)
    cfdb:	64 48 8b 04 25 28 00 	mov    %fs:0x28,%rax
    cfe2:	00 00 
    cfe4:	48 89 45 f8          	mov    %rax,-0x8(%rbp)
    cfe8:	31 c0                	xor    %eax,%eax
    cfea:	48 c7 85 30 fe ff ff 	movq   $0x0,-0x1d0(%rbp)
    cff1:	00 00 00 00 
    cff5:	48 c7 85 38 fe ff ff 	movq   $0x0,-0x1c8(%rbp)
    cffc:	00 00 00 00 
    d000:	c7 85 24 fe ff ff 04 	movl   $0x4,-0x1dc(%rbp)
    d007:	00 00 00 
    d00a:	48 8d 05 37 3b 01 00 	lea    0x13b37(%rip),%rax        # 20b48 <g_41>
    d011:	48 89 85 40 fe ff ff 	mov    %rax,-0x1c0(%rbp)
    d018:	48 8d 05 d5 3b 01 00 	lea    0x13bd5(%rip),%rax        # 20bf4 <g_2598>
    d01f:	48 89 85 48 fe ff ff 	mov    %rax,-0x1b8(%rbp)
    d026:	c7 85 2c fe ff ff 52 	movl   $0xf7a1df52,-0x1d4(%rbp)
    d02d:	df a1 f7 
    d030:	c7 85 28 fe ff ff 1b 	movl   $0x8301f91b,-0x1d8(%rbp)
    d037:	f9 01 83 
    d03a:	48 8d 05 77 fb 00 00 	lea    0xfb77(%rip),%rax        # 1cbb8 <g_1049+0x18>
    d041:	48 89 85 50 fe ff ff 	mov    %rax,-0x1b0(%rbp)
    d048:	48 8d 85 24 fe ff ff 	lea    -0x1dc(%rbp),%rax
    d04f:	48 89 85 58 fe ff ff 	mov    %rax,-0x1a8(%rbp)
    d056:	c7 85 70 fe ff ff 04 	movl   $0x4,-0x190(%rbp)
    d05d:	00 00 00 
    d060:	c7 85 74 fe ff ff d3 	movl   $0x9f427dd3,-0x18c(%rbp)
    d067:	7d 42 9f 
    d06a:	c7 85 78 fe ff ff d3 	movl   $0x9f427dd3,-0x188(%rbp)
    d071:	7d 42 9f 
    d074:	c7 85 7c fe ff ff fd 	movl   $0xfffffffd,-0x184(%rbp)
    d07b:	ff ff ff 
    d07e:	c7 85 80 fe ff ff 2e 	movl   $0xba844f2e,-0x180(%rbp)
    d085:	4f 84 ba 
    d088:	c7 85 84 fe ff ff 2e 	movl   $0xba844f2e,-0x17c(%rbp)
    d08f:	4f 84 ba 
    d092:	c7 85 88 fe ff ff 04 	movl   $0x4,-0x178(%rbp)
    d099:	00 00 00 
    d09c:	c7 85 8c fe ff ff d3 	movl   $0x9f427dd3,-0x174(%rbp)
    d0a3:	7d 42 9f 
    d0a6:	c7 85 90 fe ff ff d3 	movl   $0x9f427dd3,-0x170(%rbp)
    d0ad:	7d 42 9f 
    d0b0:	c7 85 94 fe ff ff fd 	movl   $0xfffffffd,-0x16c(%rbp)
    d0b7:	ff ff ff 
    d0ba:	c7 85 98 fe ff ff 2e 	movl   $0xba844f2e,-0x168(%rbp)
    d0c1:	4f 84 ba 
    d0c4:	c7 85 9c fe ff ff 2e 	movl   $0xba844f2e,-0x164(%rbp)
    d0cb:	4f 84 ba 
    d0ce:	c7 85 a0 fe ff ff 04 	movl   $0x4,-0x160(%rbp)
    d0d5:	00 00 00 
    d0d8:	c7 85 a4 fe ff ff d3 	movl   $0x9f427dd3,-0x15c(%rbp)
    d0df:	7d 42 9f 
    d0e2:	c7 85 a8 fe ff ff d3 	movl   $0x9f427dd3,-0x158(%rbp)
    d0e9:	7d 42 9f 
    d0ec:	c7 85 ac fe ff ff fd 	movl   $0xfffffffd,-0x154(%rbp)
    d0f3:	ff ff ff 
    d0f6:	c7 85 b0 fe ff ff 2e 	movl   $0xba844f2e,-0x150(%rbp)
    d0fd:	4f 84 ba 
    d100:	c7 85 b4 fe ff ff 2e 	movl   $0xba844f2e,-0x14c(%rbp)
    d107:	4f 84 ba 
    d10a:	c7 85 b8 fe ff ff 04 	movl   $0x4,-0x148(%rbp)
    d111:	00 00 00 
    d114:	c7 85 bc fe ff ff d3 	movl   $0x9f427dd3,-0x144(%rbp)
    d11b:	7d 42 9f 
    d11e:	c7 85 c0 fe ff ff d3 	movl   $0x9f427dd3,-0x140(%rbp)
    d125:	7d 42 9f 
    d128:	c7 85 c4 fe ff ff fd 	movl   $0xfffffffd,-0x13c(%rbp)
    d12f:	ff ff ff 
    d132:	c7 85 c8 fe ff ff 2e 	movl   $0xba844f2e,-0x138(%rbp)
    d139:	4f 84 ba 
    d13c:	c7 85 cc fe ff ff 2e 	movl   $0xba844f2e,-0x134(%rbp)
    d143:	4f 84 ba 
    d146:	48 8d 05 67 fa 00 00 	lea    0xfa67(%rip),%rax        # 1cbb4 <g_1049+0x14>
    d14d:	48 89 85 60 fe ff ff 	mov    %rax,-0x1a0(%rbp)
    d154:	48 8d 85 28 fe ff ff 	lea    -0x1d8(%rbp),%rax
    d15b:	48 89 85 68 fe ff ff 	mov    %rax,-0x198(%rbp)
    d162:	48 8d 85 d0 fe ff ff 	lea    -0x130(%rbp),%rax
    d169:	48 8d 15 f0 10 01 00 	lea    0x110f0(%rip),%rdx        # 1e260 <g_3397+0xc5f>
    d170:	b9 24 00 00 00       	mov    $0x24,%ecx
    d175:	48 89 c7             	mov    %rax,%rdi
    d178:	48 89 d6             	mov    %rdx,%rsi
    d17b:	f3 48 a5             	rep movsq %ds:(%rsi),%es:(%rdi)
    d17e:	66 c7 85 22 fe ff ff 	movw   $0x9,-0x1de(%rbp)
    d185:	09 00 
    d187:	48 8b 85 30 fe ff ff 	mov    -0x1d0(%rbp),%rax
    d18e:	48 89 85 38 fe ff ff 	mov    %rax,-0x1c8(%rbp)
    d195:	0f b7 85 22 fe ff ff 	movzwl -0x1de(%rbp),%eax
    d19c:	83 e8 01             	sub    $0x1,%eax
    d19f:	66 89 85 22 fe ff ff 	mov    %ax,-0x1de(%rbp)
    d1a6:	8b 85 1c fe ff ff    	mov    -0x1e4(%rbp),%eax
    d1ac:	48 8b 55 f8          	mov    -0x8(%rbp),%rdx
    d1b0:	64 48 33 14 25 28 00 	xor    %fs:0x28,%rdx
    d1b7:	00 00 
    d1b9:	74 05                	je     d1c0 <func_16+0x1fa>
    d1bb:	e8 b0 be ff ff       	callq  9070 <__stack_chk_fail@plt>
    d1c0:	c9                   	leaveq 
    d1c1:	c3                   	retq   

000000000000d1c2 <func_18>:
    d1c2:	f3 0f 1e fa          	endbr64 
    d1c6:	55                   	push   %rbp
    d1c7:	48 89 e5             	mov    %rsp,%rbp
    d1ca:	48 81 ec c0 01 00 00 	sub    $0x1c0,%rsp
    d1d1:	89 bd 5c fe ff ff    	mov    %edi,-0x1a4(%rbp)
    d1d7:	89 b5 58 fe ff ff    	mov    %esi,-0x1a8(%rbp)
    d1dd:	89 95 54 fe ff ff    	mov    %edx,-0x1ac(%rbp)
    d1e3:	89 8d 50 fe ff ff    	mov    %ecx,-0x1b0(%rbp)
    d1e9:	44 89 85 4c fe ff ff 	mov    %r8d,-0x1b4(%rbp)
    d1f0:	64 48 8b 04 25 28 00 	mov    %fs:0x28,%rax
    d1f7:	00 00 
    d1f9:	48 89 45 f8          	mov    %rax,-0x8(%rbp)
    d1fd:	31 c0                	xor    %eax,%eax
    d1ff:	48 8d 05 c2 00 01 00 	lea    0x100c2(%rip),%rax        # 1d2c8 <g_2341+0x8>
    d206:	48 89 85 70 fe ff ff 	mov    %rax,-0x190(%rbp)
    d20d:	48 c7 85 78 fe ff ff 	movq   $0x0,-0x188(%rbp)
    d214:	00 00 00 00 
    d218:	48 8d 85 90 fe ff ff 	lea    -0x170(%rbp),%rax
    d21f:	48 8d 15 5a 11 01 00 	lea    0x1115a(%rip),%rdx        # 1e380 <g_3397+0xd7f>
    d226:	b9 2d 00 00 00       	mov    $0x2d,%ecx
    d22b:	48 89 c7             	mov    %rax,%rdi
    d22e:	48 89 d6             	mov    %rdx,%rsi
    d231:	f3 48 a5             	rep movsq %ds:(%rsi),%es:(%rdi)
    d234:	48 8d 05 8d 22 01 00 	lea    0x1228d(%rip),%rax        # 1f4c8 <g_1390>
    d23b:	48 89 85 80 fe ff ff 	mov    %rax,-0x180(%rbp)
    d242:	c7 85 6c fe ff ff ff 	movl   $0xffffffff,-0x194(%rbp)
    d249:	ff ff ff 
    d24c:	48 8d 05 51 f9 00 00 	lea    0xf951(%rip),%rax        # 1cba4 <g_1049+0x4>
    d253:	48 89 85 88 fe ff ff 	mov    %rax,-0x178(%rbp)
    d25a:	48 8b 05 07 20 01 00 	mov    0x12007(%rip),%rax        # 1f268 <g_593>
    d261:	48 8b 00             	mov    (%rax),%rax
    d264:	48 8b 95 70 fe ff ff 	mov    -0x190(%rbp),%rdx
    d26b:	48 89 10             	mov    %rdx,(%rax)
    d26e:	8b 85 58 fe ff ff    	mov    -0x1a8(%rbp),%eax
    d274:	89 c6                	mov    %eax,%esi
    d276:	bf 01 00 00 00       	mov    $0x1,%edi
    d27b:	e8 fa cb ff ff       	callq  9e7a <safe_rshift_func_uint16_t_u_u>
    d280:	0f be c0             	movsbl %al,%eax
    d283:	89 c7                	mov    %eax,%edi
    d285:	e8 35 bf ff ff       	callq  91bf <safe_unary_minus_func_int8_t_s>
    d28a:	0f be c0             	movsbl %al,%eax
    d28d:	39 85 5c fe ff ff    	cmp    %eax,-0x1a4(%rbp)
    d293:	0f 97 c0             	seta   %al
    d296:	0f b6 c0             	movzbl %al,%eax
    d299:	89 c6                	mov    %eax,%esi
    d29b:	bf 00 00 00 00       	mov    $0x0,%edi
    d2a0:	e8 7a ca ff ff       	callq  9d1f <safe_sub_func_uint16_t_u_u>
    d2a5:	0f b7 d0             	movzwl %ax,%edx
    d2a8:	48 83 bd 78 fe ff ff 	cmpq   $0x0,-0x188(%rbp)
    d2af:	00 
    d2b0:	0f 95 c0             	setne  %al
    d2b3:	0f b6 f0             	movzbl %al,%esi
    d2b6:	48 8b 85 20 ff ff ff 	mov    -0xe0(%rbp),%rax
    d2bd:	48 89 85 80 fe ff ff 	mov    %rax,-0x180(%rbp)
    d2c4:	48 83 bd 80 fe ff ff 	cmpq   $0x0,-0x180(%rbp)
    d2cb:	00 
    d2cc:	0f 95 c1             	setne  %cl
    d2cf:	48 8b 05 b2 1e 01 00 	mov    0x11eb2(%rip),%rax        # 1f188 <g_267>
    d2d6:	0f b6 c9             	movzbl %cl,%ecx
    d2d9:	89 08                	mov    %ecx,(%rax)
    d2db:	8b 00                	mov    (%rax),%eax
    d2dd:	3d fd 8d f3 3d       	cmp    $0x3df38dfd,%eax
    d2e2:	0f 9e c0             	setle  %al
    d2e5:	0f b6 c0             	movzbl %al,%eax
    d2e8:	39 c6                	cmp    %eax,%esi
    d2ea:	0f 9e c0             	setle  %al
    d2ed:	0f b6 c0             	movzbl %al,%eax
    d2f0:	39 85 5c fe ff ff    	cmp    %eax,-0x1a4(%rbp)
    d2f6:	0f 97 c0             	seta   %al
    d2f9:	f7 d0                	not    %eax
    d2fb:	0f be c0             	movsbl %al,%eax
    d2fe:	89 d6                	mov    %edx,%esi
    d300:	89 c7                	mov    %eax,%edi
    d302:	e8 2e c0 ff ff       	callq  9335 <safe_rshift_func_int8_t_s_s>
    d307:	0f be c0             	movsbl %al,%eax
    d30a:	39 85 6c fe ff ff    	cmp    %eax,-0x194(%rbp)
    d310:	77 09                	ja     d31b <func_18+0x159>
    d312:	83 bd 6c fe ff ff 00 	cmpl   $0x0,-0x194(%rbp)
    d319:	74 07                	je     d322 <func_18+0x160>
    d31b:	b8 01 00 00 00       	mov    $0x1,%eax
    d320:	eb 05                	jmp    d327 <func_18+0x165>
    d322:	b8 00 00 00 00       	mov    $0x0,%eax
    d327:	0d 82 34 39 b0       	or     $0xb0393482,%eax
    d32c:	0b 85 4c fe ff ff    	or     -0x1b4(%rbp),%eax
    d332:	89 c2                	mov    %eax,%edx
    d334:	48 8b 85 88 fe ff ff 	mov    -0x178(%rbp),%rax
    d33b:	89 10                	mov    %edx,(%rax)
    d33d:	48 8b 05 0c 2a 01 00 	mov    0x12a0c(%rip),%rax        # 1fd50 <g_2597>
    d344:	48 8b 95 88 fe ff ff 	mov    -0x178(%rbp),%rdx
    d34b:	8b 12                	mov    (%rdx),%edx
    d34d:	89 10                	mov    %edx,(%rax)
    d34f:	48 8b 85 88 fe ff ff 	mov    -0x178(%rbp),%rax
    d356:	8b 00                	mov    (%rax),%eax
    d358:	48 8b 4d f8          	mov    -0x8(%rbp),%rcx
    d35c:	64 48 33 0c 25 28 00 	xor    %fs:0x28,%rcx
    d363:	00 00 
    d365:	74 05                	je     d36c <func_18+0x1aa>
    d367:	e8 04 bd ff ff       	callq  9070 <__stack_chk_fail@plt>
    d36c:	c9                   	leaveq 
    d36d:	c3                   	retq   

000000000000d36e <func_24>:
    d36e:	f3 0f 1e fa          	endbr64 
    d372:	55                   	push   %rbp
    d373:	48 89 e5             	mov    %rsp,%rbp
    d376:	48 81 ec 20 02 00 00 	sub    $0x220,%rsp
    d37d:	89 f8                	mov    %edi,%eax
    d37f:	89 b5 e8 fd ff ff    	mov    %esi,-0x218(%rbp)
    d385:	89 95 e4 fd ff ff    	mov    %edx,-0x21c(%rbp)
    d38b:	89 8d e0 fd ff ff    	mov    %ecx,-0x220(%rbp)
    d391:	88 85 ec fd ff ff    	mov    %al,-0x214(%rbp)
    d397:	64 48 8b 04 25 28 00 	mov    %fs:0x28,%rax
    d39e:	00 00 
    d3a0:	48 89 45 f8          	mov    %rax,-0x8(%rbp)
    d3a4:	31 c0                	xor    %eax,%eax
    d3a6:	48 b8 6c f3 2b 37 05 	movabs $0x201ff205372bf36c,%rax
    d3ad:	f2 1f 20 
    d3b0:	48 89 85 28 fe ff ff 	mov    %rax,-0x1d8(%rbp)
    d3b7:	c7 85 f8 fd ff ff f9 	movl   $0xfffffff9,-0x208(%rbp)
    d3be:	ff ff ff 
    d3c1:	48 8d 05 60 20 01 00 	lea    0x12060(%rip),%rax        # 1f428 <g_866>
    d3c8:	48 89 85 30 fe ff ff 	mov    %rax,-0x1d0(%rbp)
    d3cf:	48 8d 05 d6 f7 00 00 	lea    0xf7d6(%rip),%rax        # 1cbac <g_1049+0xc>
    d3d6:	48 89 85 38 fe ff ff 	mov    %rax,-0x1c8(%rbp)
    d3dd:	48 c7 85 18 fe ff ff 	movq   $0x0,-0x1e8(%rbp)
    d3e4:	00 00 00 00 
    d3e8:	48 8d 85 18 fe ff ff 	lea    -0x1e8(%rbp),%rax
    d3ef:	48 89 85 40 fe ff ff 	mov    %rax,-0x1c0(%rbp)
    d3f6:	48 8d 05 63 20 01 00 	lea    0x12063(%rip),%rax        # 1f460 <g_1341>
    d3fd:	48 89 85 48 fe ff ff 	mov    %rax,-0x1b8(%rbp)
    d404:	48 c7 85 50 fe ff ff 	movq   $0x0,-0x1b0(%rbp)
    d40b:	00 00 00 00 
    d40f:	c7 85 fc fd ff ff f8 	movl   $0xfffffff8,-0x204(%rbp)
    d416:	ff ff ff 
    d419:	c6 85 f0 fd ff ff 21 	movb   $0x21,-0x210(%rbp)
    d420:	48 8d 05 11 f3 00 00 	lea    0xf311(%rip),%rax        # 1c738 <g_77+0x358>
    d427:	48 89 85 58 fe ff ff 	mov    %rax,-0x1a8(%rbp)
    d42e:	48 8d 05 7b f3 00 00 	lea    0xf37b(%rip),%rax        # 1c7b0 <g_77+0x3d0>
    d435:	48 89 85 60 fe ff ff 	mov    %rax,-0x1a0(%rbp)
    d43c:	48 c7 85 68 fe ff ff 	movq   $0x0,-0x198(%rbp)
    d443:	00 00 00 00 
    d447:	48 b8 03 c7 69 cf 17 	movabs $0xe5c84f17cf69c703,%rax
    d44e:	4f c8 e5 
    d451:	48 89 85 70 fe ff ff 	mov    %rax,-0x190(%rbp)
    d458:	c7 85 08 fe ff ff 6d 	movl   $0xf339126d,-0x1f8(%rbp)
    d45f:	12 39 f3 
    d462:	c7 85 40 ff ff ff ff 	movl   $0xffffffff,-0xc0(%rbp)
    d469:	ff ff ff 
    d46c:	c7 85 44 ff ff ff 6d 	movl   $0x4276c16d,-0xbc(%rbp)
    d473:	c1 76 42 
    d476:	c7 85 48 ff ff ff 01 	movl   $0x1,-0xb8(%rbp)
    d47d:	00 00 00 
    d480:	c7 85 4c ff ff ff ff 	movl   $0xffffffff,-0xb4(%rbp)
    d487:	ff ff ff 
    d48a:	c7 85 50 ff ff ff 06 	movl   $0x6,-0xb0(%rbp)
    d491:	00 00 00 
    d494:	c7 85 54 ff ff ff 06 	movl   $0x6,-0xac(%rbp)
    d49b:	00 00 00 
    d49e:	c7 85 58 ff ff ff ff 	movl   $0xffffffff,-0xa8(%rbp)
    d4a5:	ff ff ff 
    d4a8:	c7 85 5c ff ff ff 01 	movl   $0x1,-0xa4(%rbp)
    d4af:	00 00 00 
    d4b2:	c7 85 60 ff ff ff ff 	movl   $0xffffffff,-0xa0(%rbp)
    d4b9:	ff ff ff 
    d4bc:	c7 85 64 ff ff ff ff 	movl   $0xffffffff,-0x9c(%rbp)
    d4c3:	ff ff ff 
    d4c6:	c7 85 68 ff ff ff 6b 	movl   $0xdcdc626b,-0x98(%rbp)
    d4cd:	62 dc dc 
    d4d0:	c7 85 6c ff ff ff 00 	movl   $0x0,-0x94(%rbp)
    d4d7:	00 00 00 
    d4da:	c7 85 70 ff ff ff ff 	movl   $0xffffffff,-0x90(%rbp)
    d4e1:	ff ff ff 
    d4e4:	c7 85 74 ff ff ff 6b 	movl   $0xdcdc626b,-0x8c(%rbp)
    d4eb:	62 dc dc 
    d4ee:	c7 85 78 ff ff ff ff 	movl   $0xffffffff,-0x88(%rbp)
    d4f5:	ff ff ff 
    d4f8:	c7 85 7c ff ff ff 00 	movl   $0x0,-0x84(%rbp)
    d4ff:	00 00 00 
    d502:	c7 45 80 01 00 00 00 	movl   $0x1,-0x80(%rbp)
    d509:	c7 45 84 00 00 00 00 	movl   $0x0,-0x7c(%rbp)
    d510:	c7 45 88 01 00 00 00 	movl   $0x1,-0x78(%rbp)
    d517:	c7 45 8c 06 00 00 00 	movl   $0x6,-0x74(%rbp)
    d51e:	c7 45 90 00 00 00 00 	movl   $0x0,-0x70(%rbp)
    d525:	c7 45 94 6d c1 76 42 	movl   $0x4276c16d,-0x6c(%rbp)
    d52c:	c7 45 98 6d c1 76 42 	movl   $0x4276c16d,-0x68(%rbp)
    d533:	c7 45 9c 00 00 00 00 	movl   $0x0,-0x64(%rbp)
    d53a:	c7 45 a0 00 00 00 00 	movl   $0x0,-0x60(%rbp)
    d541:	c7 45 a4 6d c1 76 42 	movl   $0x4276c16d,-0x5c(%rbp)
    d548:	c7 45 a8 6d c1 76 42 	movl   $0x4276c16d,-0x58(%rbp)
    d54f:	c7 45 ac 00 00 00 00 	movl   $0x0,-0x54(%rbp)
    d556:	c7 45 b0 06 00 00 00 	movl   $0x6,-0x50(%rbp)
    d55d:	c7 45 b4 01 00 00 00 	movl   $0x1,-0x4c(%rbp)
    d564:	c7 45 b8 00 00 00 00 	movl   $0x0,-0x48(%rbp)
    d56b:	c7 45 bc 01 00 00 00 	movl   $0x1,-0x44(%rbp)
    d572:	c7 45 c0 00 00 00 00 	movl   $0x0,-0x40(%rbp)
    d579:	c7 45 c4 ff ff ff ff 	movl   $0xffffffff,-0x3c(%rbp)
    d580:	c7 45 c8 6b 62 dc dc 	movl   $0xdcdc626b,-0x38(%rbp)
    d587:	c7 45 cc ff ff ff ff 	movl   $0xffffffff,-0x34(%rbp)
    d58e:	c7 45 d0 00 00 00 00 	movl   $0x0,-0x30(%rbp)
    d595:	c7 45 d4 6b 62 dc dc 	movl   $0xdcdc626b,-0x2c(%rbp)
    d59c:	c7 45 d8 ff ff ff ff 	movl   $0xffffffff,-0x28(%rbp)
    d5a3:	c7 45 dc ff ff ff ff 	movl   $0xffffffff,-0x24(%rbp)
    d5aa:	c7 85 0c fe ff ff 27 	movl   $0x63ebc627,-0x1f4(%rbp)
    d5b1:	c6 eb 63 
    d5b4:	66 c7 85 f4 fd ff ff 	movw   $0x38a1,-0x20c(%rbp)
    d5bb:	a1 38 
    d5bd:	c6 85 f1 fd ff ff 9c 	movb   $0x9c,-0x20f(%rbp)
    d5c4:	c7 85 10 fe ff ff ab 	movl   $0xc2765cab,-0x1f0(%rbp)
    d5cb:	5c 76 c2 
    d5ce:	48 c7 85 78 fe ff ff 	movq   $0x0,-0x188(%rbp)
    d5d5:	00 00 00 00 
    d5d9:	48 8d 05 a8 1c 01 00 	lea    0x11ca8(%rip),%rax        # 1f288 <g_648>
    d5e0:	48 89 85 e0 fe ff ff 	mov    %rax,-0x120(%rbp)
    d5e7:	48 8d 05 9a 1c 01 00 	lea    0x11c9a(%rip),%rax        # 1f288 <g_648>
    d5ee:	48 89 85 e8 fe ff ff 	mov    %rax,-0x118(%rbp)
    d5f5:	48 8d 05 8c 1c 01 00 	lea    0x11c8c(%rip),%rax        # 1f288 <g_648>
    d5fc:	48 89 85 f0 fe ff ff 	mov    %rax,-0x110(%rbp)
    d603:	48 8d 05 7e 1c 01 00 	lea    0x11c7e(%rip),%rax        # 1f288 <g_648>
    d60a:	48 89 85 f8 fe ff ff 	mov    %rax,-0x108(%rbp)
    d611:	48 8d 05 70 1c 01 00 	lea    0x11c70(%rip),%rax        # 1f288 <g_648>
    d618:	48 89 85 00 ff ff ff 	mov    %rax,-0x100(%rbp)
    d61f:	48 8d 05 62 1c 01 00 	lea    0x11c62(%rip),%rax        # 1f288 <g_648>
    d626:	48 89 85 08 ff ff ff 	mov    %rax,-0xf8(%rbp)
    d62d:	48 8d 05 44 35 01 00 	lea    0x13544(%rip),%rax        # 20b78 <g_348>
    d634:	48 89 85 10 ff ff ff 	mov    %rax,-0xf0(%rbp)
    d63b:	48 8d 05 36 35 01 00 	lea    0x13536(%rip),%rax        # 20b78 <g_348>
    d642:	48 89 85 18 ff ff ff 	mov    %rax,-0xe8(%rbp)
    d649:	48 8d 05 28 35 01 00 	lea    0x13528(%rip),%rax        # 20b78 <g_348>
    d650:	48 89 85 20 ff ff ff 	mov    %rax,-0xe0(%rbp)
    d657:	48 8d 05 1a 35 01 00 	lea    0x1351a(%rip),%rax        # 20b78 <g_348>
    d65e:	48 89 85 28 ff ff ff 	mov    %rax,-0xd8(%rbp)
    d665:	48 8d 05 0c 35 01 00 	lea    0x1350c(%rip),%rax        # 20b78 <g_348>
    d66c:	48 89 85 30 ff ff ff 	mov    %rax,-0xd0(%rbp)
    d673:	48 8d 05 fe 34 01 00 	lea    0x134fe(%rip),%rax        # 20b78 <g_348>
    d67a:	48 89 85 38 ff ff ff 	mov    %rax,-0xc8(%rbp)
    d681:	66 c7 85 f6 fd ff ff 	movw   $0xfffc,-0x20a(%rbp)
    d688:	fc ff 
    d68a:	c6 85 f2 fd ff ff a2 	movb   $0xa2,-0x20e(%rbp)
    d691:	48 c7 85 80 fe ff ff 	movq   $0x0,-0x180(%rbp)
    d698:	00 00 00 00 
    d69c:	48 8d 85 fc fd ff ff 	lea    -0x204(%rbp),%rax
    d6a3:	48 89 85 88 fe ff ff 	mov    %rax,-0x178(%rbp)
    d6aa:	48 b8 01 00 01 01 00 	movabs $0x1010001010001,%rax
    d6b1:	01 01 00 
    d6b4:	48 89 45 ee          	mov    %rax,-0x12(%rbp)
    d6b8:	66 c7 45 f6 01 01    	movw   $0x101,-0xa(%rbp)
    d6be:	48 b8 2a f7 ef ba 29 	movabs $0x53715829baeff72a,%rax
    d6c5:	58 71 53 
    d6c8:	48 89 85 90 fe ff ff 	mov    %rax,-0x170(%rbp)
    d6cf:	48 c7 85 20 fe ff ff 	movq   $0x0,-0x1e0(%rbp)
    d6d6:	00 00 00 00 
    d6da:	48 8d 85 20 fe ff ff 	lea    -0x1e0(%rbp),%rax
    d6e1:	48 89 85 98 fe ff ff 	mov    %rax,-0x168(%rbp)
    d6e8:	c7 85 14 fe ff ff 7c 	movl   $0xd5f4407c,-0x1ec(%rbp)
    d6ef:	40 f4 d5 
    d6f2:	48 8d 05 5f 21 01 00 	lea    0x1215f(%rip),%rax        # 1f858 <g_1494>
    d6f9:	48 89 85 a0 fe ff ff 	mov    %rax,-0x160(%rbp)
    d700:	c6 85 f3 fd ff ff 9a 	movb   $0x9a,-0x20d(%rbp)
    d707:	48 c7 85 a8 fe ff ff 	movq   $0x0,-0x158(%rbp)
    d70e:	00 00 00 00 
    d712:	c7 85 00 fe ff ff 00 	movl   $0x0,-0x200(%rbp)
    d719:	00 00 00 
    d71c:	eb 1e                	jmp    d73c <func_24+0x3ce>
    d71e:	8b 85 00 fe ff ff    	mov    -0x200(%rbp),%eax
    d724:	48 98                	cltq   
    d726:	48 8d 15 33 21 01 00 	lea    0x12133(%rip),%rdx        # 1f860 <g_1771>
    d72d:	48 89 94 c5 b8 fe ff 	mov    %rdx,-0x148(%rbp,%rax,8)
    d734:	ff 
    d735:	83 85 00 fe ff ff 01 	addl   $0x1,-0x200(%rbp)
    d73c:	83 bd 00 fe ff ff 00 	cmpl   $0x0,-0x200(%rbp)
    d743:	7e d9                	jle    d71e <func_24+0x3b0>
    d745:	c7 85 00 fe ff ff 00 	movl   $0x0,-0x200(%rbp)
    d74c:	00 00 00 
    d74f:	eb 41                	jmp    d792 <func_24+0x424>
    d751:	c7 85 04 fe ff ff 00 	movl   $0x0,-0x1fc(%rbp)
    d758:	00 00 00 
    d75b:	eb 25                	jmp    d782 <func_24+0x414>
    d75d:	8b 85 04 fe ff ff    	mov    -0x1fc(%rbp),%eax
    d763:	48 63 d0             	movslq %eax,%rdx
    d766:	8b 85 00 fe ff ff    	mov    -0x200(%rbp),%eax
    d76c:	48 98                	cltq   
    d76e:	48 01 d0             	add    %rdx,%rax
    d771:	66 c7 84 45 b4 fe ff 	movw   $0xffff,-0x14c(%rbp,%rax,2)
    d778:	ff ff ff 
    d77b:	83 85 04 fe ff ff 01 	addl   $0x1,-0x1fc(%rbp)
    d782:	83 bd 04 fe ff ff 00 	cmpl   $0x0,-0x1fc(%rbp)
    d789:	7e d2                	jle    d75d <func_24+0x3ef>
    d78b:	83 85 00 fe ff ff 01 	addl   $0x1,-0x200(%rbp)
    d792:	83 bd 00 fe ff ff 01 	cmpl   $0x1,-0x200(%rbp)
    d799:	7e b6                	jle    d751 <func_24+0x3e3>
    d79b:	c7 85 00 fe ff ff 00 	movl   $0x0,-0x200(%rbp)
    d7a2:	00 00 00 
    d7a5:	eb 1a                	jmp    d7c1 <func_24+0x453>
    d7a7:	8b 85 00 fe ff ff    	mov    -0x200(%rbp),%eax
    d7ad:	48 98                	cltq   
    d7af:	c7 84 85 c8 fe ff ff 	movl   $0xffffffff,-0x138(%rbp,%rax,4)
    d7b6:	ff ff ff ff 
    d7ba:	83 85 00 fe ff ff 01 	addl   $0x1,-0x200(%rbp)
    d7c1:	83 bd 00 fe ff ff 01 	cmpl   $0x1,-0x200(%rbp)
    d7c8:	7e dd                	jle    d7a7 <func_24+0x439>
    d7ca:	c7 85 00 fe ff ff 00 	movl   $0x0,-0x200(%rbp)
    d7d1:	00 00 00 
    d7d4:	eb 1b                	jmp    d7f1 <func_24+0x483>
    d7d6:	8b 85 00 fe ff ff    	mov    -0x200(%rbp),%eax
    d7dc:	48 98                	cltq   
    d7de:	48 c7 84 c5 c0 fe ff 	movq   $0x0,-0x140(%rbp,%rax,8)
    d7e5:	ff 00 00 00 00 
    d7ea:	83 85 00 fe ff ff 01 	addl   $0x1,-0x200(%rbp)
    d7f1:	83 bd 00 fe ff ff 00 	cmpl   $0x0,-0x200(%rbp)
    d7f8:	7e dc                	jle    d7d6 <func_24+0x468>
    d7fa:	c7 85 00 fe ff ff 00 	movl   $0x0,-0x200(%rbp)
    d801:	00 00 00 
    d804:	eb 1e                	jmp    d824 <func_24+0x4b6>
    d806:	8b 85 00 fe ff ff    	mov    -0x200(%rbp),%eax
    d80c:	48 98                	cltq   
    d80e:	48 8d 95 c0 fe ff ff 	lea    -0x140(%rbp),%rdx
    d815:	48 89 94 c5 d0 fe ff 	mov    %rdx,-0x130(%rbp,%rax,8)
    d81c:	ff 
    d81d:	83 85 00 fe ff ff 01 	addl   $0x1,-0x200(%rbp)
    d824:	83 bd 00 fe ff ff 01 	cmpl   $0x1,-0x200(%rbp)
    d82b:	7e d9                	jle    d806 <func_24+0x498>
    d82d:	c7 85 00 fe ff ff 00 	movl   $0x0,-0x200(%rbp)
    d834:	00 00 00 
    d837:	eb 19                	jmp    d852 <func_24+0x4e4>
    d839:	8b 85 00 fe ff ff    	mov    -0x200(%rbp),%eax
    d83f:	48 98                	cltq   
    d841:	66 c7 84 45 b2 fe ff 	movw   $0xe4c4,-0x14e(%rbp,%rax,2)
    d848:	ff c4 e4 
    d84b:	83 85 00 fe ff ff 01 	addl   $0x1,-0x200(%rbp)
    d852:	83 bd 00 fe ff ff 00 	cmpl   $0x0,-0x200(%rbp)
    d859:	7e de                	jle    d839 <func_24+0x4cb>
    d85b:	48 8b 05 5e 1c 01 00 	mov    0x11c5e(%rip),%rax        # 1f4c0 <g_1356>
    d862:	8b 00                	mov    (%rax),%eax
    d864:	48 8b 4d f8          	mov    -0x8(%rbp),%rcx
    d868:	64 48 33 0c 25 28 00 	xor    %fs:0x28,%rcx
    d86f:	00 00 
    d871:	74 05                	je     d878 <func_24+0x50a>
    d873:	e8 f8 b7 ff ff       	callq  9070 <__stack_chk_fail@plt>
    d878:	c9                   	leaveq 
    d879:	c3                   	retq   

000000000000d87a <func_30>:
    d87a:	f3 0f 1e fa          	endbr64 
    d87e:	55                   	push   %rbp
    d87f:	48 89 e5             	mov    %rsp,%rbp
    d882:	41 56                	push   %r14
    d884:	41 55                	push   %r13
    d886:	41 54                	push   %r12
    d888:	53                   	push   %rbx
    d889:	48 81 ec 90 06 00 00 	sub    $0x690,%rsp
    d890:	89 bd 5c f9 ff ff    	mov    %edi,-0x6a4(%rbp)
    d896:	89 b5 58 f9 ff ff    	mov    %esi,-0x6a8(%rbp)
    d89c:	89 95 54 f9 ff ff    	mov    %edx,-0x6ac(%rbp)
    d8a2:	64 48 8b 04 25 28 00 	mov    %fs:0x28,%rax
    d8a9:	00 00 
    d8ab:	48 89 45 d8          	mov    %rax,-0x28(%rbp)
    d8af:	31 c0                	xor    %eax,%eax
    d8b1:	66 c7 85 70 f9 ff ff 	movw   $0xfff8,-0x690(%rbp)
    d8b8:	f8 ff 
    d8ba:	48 8d 05 87 32 01 00 	lea    0x13287(%rip),%rax        # 20b48 <g_41>
    d8c1:	48 89 85 e0 f9 ff ff 	mov    %rax,-0x620(%rbp)
    d8c8:	c6 85 6d f9 ff ff 8b 	movb   $0x8b,-0x693(%rbp)
    d8cf:	c7 85 8c f9 ff ff 24 	movl   $0x60c3b524,-0x674(%rbp)
    d8d6:	b5 c3 60 
    d8d9:	48 8d 85 30 fd ff ff 	lea    -0x2d0(%rbp),%rax
    d8e0:	48 8d 15 79 99 00 00 	lea    0x9979(%rip),%rdx        # 17260 <g_1737+0x1ce>
    d8e7:	b9 54 00 00 00       	mov    $0x54,%ecx
    d8ec:	48 89 c7             	mov    %rax,%rdi
    d8ef:	48 89 d6             	mov    %rdx,%rsi
    d8f2:	f3 48 a5             	rep movsq %ds:(%rsi),%es:(%rdi)
    d8f5:	66 c7 85 72 f9 ff ff 	movw   $0x0,-0x68e(%rbp)
    d8fc:	00 00 
    d8fe:	48 8d 05 33 ee 00 00 	lea    0xee33(%rip),%rax        # 1c738 <g_77+0x358>
    d905:	48 89 85 e8 f9 ff ff 	mov    %rax,-0x618(%rbp)
    d90c:	48 8d 05 6d 32 01 00 	lea    0x1326d(%rip),%rax        # 20b80 <g_360>
    d913:	48 89 85 f0 f9 ff ff 	mov    %rax,-0x610(%rbp)
    d91a:	48 8d 05 3f 19 01 00 	lea    0x1193f(%rip),%rax        # 1f260 <g_447>
    d921:	48 89 85 f8 f9 ff ff 	mov    %rax,-0x608(%rbp)
    d928:	c7 85 90 f9 ff ff ca 	movl   $0x510bfcca,-0x670(%rbp)
    d92f:	fc 0b 51 
    d932:	48 8d 05 9f 1a 01 00 	lea    0x11a9f(%rip),%rax        # 1f3d8 <g_867+0x138>
    d939:	48 89 85 00 fa ff ff 	mov    %rax,-0x600(%rbp)
    d940:	48 8d 05 11 1a 01 00 	lea    0x11a11(%rip),%rax        # 1f358 <g_867+0xb8>
    d947:	48 89 85 08 fa ff ff 	mov    %rax,-0x5f8(%rbp)
    d94e:	c6 85 6e f9 ff ff 98 	movb   $0x98,-0x692(%rbp)
    d955:	48 c7 85 10 fa ff ff 	movq   $0x0,-0x5f0(%rbp)
    d95c:	00 00 00 00 
    d960:	0f bf 85 70 f9 ff ff 	movswl -0x690(%rbp),%eax
    d967:	89 c7                	mov    %eax,%edi
    d969:	e8 d1 09 00 00       	callq  e33f <func_35>
    d96e:	48 8b 95 e0 f9 ff ff 	mov    -0x620(%rbp),%rdx
    d975:	89 02                	mov    %eax,(%rdx)
    d977:	48 8b 85 e0 f9 ff ff 	mov    -0x620(%rbp),%rax
    d97e:	8b 00                	mov    (%rax),%eax
    d980:	85 c0                	test   %eax,%eax
    d982:	0f 84 6c 02 00 00    	je     dbf4 <func_30+0x37a>
    d988:	48 8d 05 f9 18 01 00 	lea    0x118f9(%rip),%rax        # 1f288 <g_648>
    d98f:	48 89 85 48 fa ff ff 	mov    %rax,-0x5b8(%rbp)
    d996:	c7 85 a0 f9 ff ff ee 	movl   $0xa1aa92ee,-0x660(%rbp)
    d99d:	92 aa a1 
    d9a0:	48 8d 05 ed f1 00 00 	lea    0xf1ed(%rip),%rax        # 1cb94 <g_698>
    d9a7:	48 89 85 50 fa ff ff 	mov    %rax,-0x5b0(%rbp)
    d9ae:	c7 85 a4 f9 ff ff e8 	movl   $0x794a68e8,-0x65c(%rbp)
    d9b5:	68 4a 79 
    d9b8:	c7 85 a8 f9 ff ff a9 	movl   $0xc98b7fa9,-0x658(%rbp)
    d9bf:	7f 8b c9 
    d9c2:	c7 85 ac f9 ff ff 9f 	movl   $0xc4d1c19f,-0x654(%rbp)
    d9c9:	c1 d1 c4 
    d9cc:	c7 85 78 f9 ff ff 00 	movl   $0x0,-0x688(%rbp)
    d9d3:	00 00 00 
    d9d6:	eb 1a                	jmp    d9f2 <func_30+0x178>
    d9d8:	8b 85 78 f9 ff ff    	mov    -0x688(%rbp),%eax
    d9de:	48 98                	cltq   
    d9e0:	c7 84 85 ac fa ff ff 	movl   $0xcd692a68,-0x554(%rbp,%rax,4)
    d9e7:	68 2a 69 cd 
    d9eb:	83 85 78 f9 ff ff 01 	addl   $0x1,-0x688(%rbp)
    d9f2:	83 bd 78 f9 ff ff 00 	cmpl   $0x0,-0x688(%rbp)
    d9f9:	7e dd                	jle    d9d8 <func_30+0x15e>
    d9fb:	66 c7 85 70 f9 ff ff 	movw   $0xffe6,-0x690(%rbp)
    da02:	e6 ff 
    da04:	e9 d8 01 00 00       	jmpq   dbe1 <func_30+0x367>
    da09:	48 c7 85 58 fa ff ff 	movq   $0x0,-0x5a8(%rbp)
    da10:	00 00 00 00 
    da14:	48 8d 05 a5 e9 00 00 	lea    0xe9a5(%rip),%rax        # 1c3c0 <g_57>
    da1b:	48 89 85 60 fa ff ff 	mov    %rax,-0x5a0(%rbp)
    da22:	48 8d 05 77 f0 00 00 	lea    0xf077(%rip),%rax        # 1caa0 <g_77+0x6c0>
    da29:	48 89 85 68 fa ff ff 	mov    %rax,-0x598(%rbp)
    da30:	48 8d 05 29 f1 00 00 	lea    0xf129(%rip),%rax        # 1cb60 <g_79>
    da37:	48 89 85 70 fb ff ff 	mov    %rax,-0x490(%rbp)
    da3e:	48 c7 85 78 fb ff ff 	movq   $0x0,-0x488(%rbp)
    da45:	00 00 00 00 
    da49:	48 8d 05 10 f1 00 00 	lea    0xf110(%rip),%rax        # 1cb60 <g_79>
    da50:	48 89 85 80 fb ff ff 	mov    %rax,-0x480(%rbp)
    da57:	48 c7 85 88 fb ff ff 	movq   $0x0,-0x478(%rbp)
    da5e:	00 00 00 00 
    da62:	48 8d 05 f7 f0 00 00 	lea    0xf0f7(%rip),%rax        # 1cb60 <g_79>
    da69:	48 89 85 90 fb ff ff 	mov    %rax,-0x470(%rbp)
    da70:	48 8d 05 e9 f0 00 00 	lea    0xf0e9(%rip),%rax        # 1cb60 <g_79>
    da77:	48 89 85 98 fb ff ff 	mov    %rax,-0x468(%rbp)
    da7e:	48 8d 05 db f0 00 00 	lea    0xf0db(%rip),%rax        # 1cb60 <g_79>
    da85:	48 89 85 a0 fb ff ff 	mov    %rax,-0x460(%rbp)
    da8c:	48 8d 05 cd f0 00 00 	lea    0xf0cd(%rip),%rax        # 1cb60 <g_79>
    da93:	48 89 85 a8 fb ff ff 	mov    %rax,-0x458(%rbp)
    da9a:	48 8d 05 bf f0 00 00 	lea    0xf0bf(%rip),%rax        # 1cb60 <g_79>
    daa1:	48 89 85 b0 fb ff ff 	mov    %rax,-0x450(%rbp)
    daa8:	48 8d 05 b1 f0 00 00 	lea    0xf0b1(%rip),%rax        # 1cb60 <g_79>
    daaf:	48 89 85 b8 fb ff ff 	mov    %rax,-0x448(%rbp)
    dab6:	48 8d 05 a3 f0 00 00 	lea    0xf0a3(%rip),%rax        # 1cb60 <g_79>
    dabd:	48 89 85 c0 fb ff ff 	mov    %rax,-0x440(%rbp)
    dac4:	48 8d 05 95 f0 00 00 	lea    0xf095(%rip),%rax        # 1cb60 <g_79>
    dacb:	48 89 85 c8 fb ff ff 	mov    %rax,-0x438(%rbp)
    dad2:	48 c7 85 d0 fb ff ff 	movq   $0x0,-0x430(%rbp)
    dad9:	00 00 00 00 
    dadd:	48 8d 05 7c f0 00 00 	lea    0xf07c(%rip),%rax        # 1cb60 <g_79>
    dae4:	48 89 85 d8 fb ff ff 	mov    %rax,-0x428(%rbp)
    daeb:	48 c7 85 e0 fb ff ff 	movq   $0x0,-0x420(%rbp)
    daf2:	00 00 00 00 
    daf6:	c7 85 b0 f9 ff ff 98 	movl   $0xe08d7298,-0x650(%rbp)
    dafd:	72 8d e0 
    db00:	c7 85 b4 f9 ff ff 83 	movl   $0x44d0b283,-0x64c(%rbp)
    db07:	b2 d0 44 
    db0a:	48 8d 85 d0 fa ff ff 	lea    -0x530(%rbp),%rax
    db11:	48 83 c0 08          	add    $0x8,%rax
    db15:	48 89 85 70 fa ff ff 	mov    %rax,-0x590(%rbp)
    db1c:	48 8d 05 65 17 01 00 	lea    0x11765(%rip),%rax        # 1f288 <g_648>
    db23:	48 89 85 78 fa ff ff 	mov    %rax,-0x588(%rbp)
    db2a:	c7 85 b8 f9 ff ff c8 	movl   $0xbb1336c8,-0x648(%rbp)
    db31:	36 13 bb 
    db34:	c7 85 bc f9 ff ff 01 	movl   $0x1,-0x644(%rbp)
    db3b:	00 00 00 
    db3e:	c7 85 c0 f9 ff ff 00 	movl   $0x0,-0x640(%rbp)
    db45:	00 00 00 
    db48:	c7 85 b0 fa ff ff fb 	movl   $0xfffffffb,-0x550(%rbp)
    db4f:	ff ff ff 
    db52:	c7 85 b4 fa ff ff fb 	movl   $0xfffffffb,-0x54c(%rbp)
    db59:	ff ff ff 
    db5c:	c7 85 b8 fa ff ff ff 	movl   $0xffffffff,-0x548(%rbp)
    db63:	ff ff ff 
    db66:	c7 85 bc fa ff ff fb 	movl   $0xfffffffb,-0x544(%rbp)
    db6d:	ff ff ff 
    db70:	c7 85 c0 fa ff ff fb 	movl   $0xfffffffb,-0x540(%rbp)
    db77:	ff ff ff 
    db7a:	c7 85 c4 fa ff ff ff 	movl   $0xffffffff,-0x53c(%rbp)
    db81:	ff ff ff 
    db84:	c7 85 c8 fa ff ff fb 	movl   $0xfffffffb,-0x538(%rbp)
    db8b:	ff ff ff 
    db8e:	c7 85 7c f9 ff ff 00 	movl   $0x0,-0x684(%rbp)
    db95:	00 00 00 
    db98:	eb 1e                	jmp    dbb8 <func_30+0x33e>
    db9a:	8b 85 7c f9 ff ff    	mov    -0x684(%rbp),%eax
    dba0:	48 98                	cltq   
    dba2:	48 8d 15 9f 2f 01 00 	lea    0x12f9f(%rip),%rdx        # 20b48 <g_41>
    dba9:	48 89 94 c5 d0 fa ff 	mov    %rdx,-0x530(%rbp,%rax,8)
    dbb0:	ff 
    dbb1:	83 85 7c f9 ff ff 01 	addl   $0x1,-0x684(%rbp)
    dbb8:	83 bd 7c f9 ff ff 05 	cmpl   $0x5,-0x684(%rbp)
    dbbf:	7e d9                	jle    db9a <func_30+0x320>
    dbc1:	0f b7 85 70 f9 ff ff 	movzwl -0x690(%rbp),%eax
    dbc8:	0f b6 c0             	movzbl %al,%eax
    dbcb:	be 04 00 00 00       	mov    $0x4,%esi
    dbd0:	89 c7                	mov    %eax,%edi
    dbd2:	e8 83 bf ff ff       	callq  9b5a <safe_add_func_uint8_t_u_u>
    dbd7:	0f b6 c0             	movzbl %al,%eax
    dbda:	66 89 85 70 f9 ff ff 	mov    %ax,-0x690(%rbp)
    dbe1:	66 83 bd 70 f9 ff ff 	cmpw   $0x1,-0x690(%rbp)
    dbe8:	01 
    dbe9:	0f 8f 1a fe ff ff    	jg     da09 <func_30+0x18f>
    dbef:	e9 7f 02 00 00       	jmpq   de73 <func_30+0x5f9>
    dbf4:	48 8d 85 6d f9 ff ff 	lea    -0x693(%rbp),%rax
    dbfb:	48 89 85 18 fa ff ff 	mov    %rax,-0x5e8(%rbp)
    dc02:	48 8d 05 c3 ef 00 00 	lea    0xefc3(%rip),%rax        # 1cbcc <g_1083>
    dc09:	48 89 85 20 fa ff ff 	mov    %rax,-0x5e0(%rbp)
    dc10:	48 8d 05 7d ef 00 00 	lea    0xef7d(%rip),%rax        # 1cb94 <g_698>
    dc17:	48 89 85 28 fa ff ff 	mov    %rax,-0x5d8(%rbp)
    dc1e:	48 8d 05 8f ef 00 00 	lea    0xef8f(%rip),%rax        # 1cbb4 <g_1049+0x14>
    dc25:	48 89 85 30 fa ff ff 	mov    %rax,-0x5d0(%rbp)
    dc2c:	c7 85 74 f9 ff ff ff 	movl   $0xffffffff,-0x68c(%rbp)
    dc33:	ff ff ff 
    dc36:	c7 85 d0 f9 ff ff 4f 	movl   $0xd461a84f,-0x630(%rbp)
    dc3d:	a8 61 d4 
    dc40:	c7 85 94 f9 ff ff 58 	movl   $0x66822758,-0x66c(%rbp)
    dc47:	27 82 66 
    dc4a:	48 b8 cb b7 43 87 3a 	movabs $0x4d22713a8743b7cb,%rax
    dc51:	71 22 4d 
    dc54:	48 89 85 38 fa ff ff 	mov    %rax,-0x5c8(%rbp)
    dc5b:	48 8d 05 06 ef 00 00 	lea    0xef06(%rip),%rax        # 1cb68 <g_113>
    dc62:	48 89 85 d8 f9 ff ff 	mov    %rax,-0x628(%rbp)
    dc69:	48 8d 85 d8 f9 ff ff 	lea    -0x628(%rbp),%rax
    dc70:	48 89 85 70 fb ff ff 	mov    %rax,-0x490(%rbp)
    dc77:	48 8d 85 d8 f9 ff ff 	lea    -0x628(%rbp),%rax
    dc7e:	48 89 85 78 fb ff ff 	mov    %rax,-0x488(%rbp)
    dc85:	48 8d 85 d8 f9 ff ff 	lea    -0x628(%rbp),%rax
    dc8c:	48 89 85 80 fb ff ff 	mov    %rax,-0x480(%rbp)
    dc93:	48 8d 85 d8 f9 ff ff 	lea    -0x628(%rbp),%rax
    dc9a:	48 89 85 88 fb ff ff 	mov    %rax,-0x478(%rbp)
    dca1:	48 8d 85 d8 f9 ff ff 	lea    -0x628(%rbp),%rax
    dca8:	48 89 85 90 fb ff ff 	mov    %rax,-0x470(%rbp)
    dcaf:	48 8d 85 d8 f9 ff ff 	lea    -0x628(%rbp),%rax
    dcb6:	48 89 85 98 fb ff ff 	mov    %rax,-0x468(%rbp)
    dcbd:	48 8d 85 d8 f9 ff ff 	lea    -0x628(%rbp),%rax
    dcc4:	48 89 85 a0 fb ff ff 	mov    %rax,-0x460(%rbp)
    dccb:	48 8d 85 d8 f9 ff ff 	lea    -0x628(%rbp),%rax
    dcd2:	48 89 85 a8 fb ff ff 	mov    %rax,-0x458(%rbp)
    dcd9:	48 8d 85 d8 f9 ff ff 	lea    -0x628(%rbp),%rax
    dce0:	48 89 85 b0 fb ff ff 	mov    %rax,-0x450(%rbp)
    dce7:	48 8d 85 d8 f9 ff ff 	lea    -0x628(%rbp),%rax
    dcee:	48 89 85 b8 fb ff ff 	mov    %rax,-0x448(%rbp)
    dcf5:	48 8d 85 d8 f9 ff ff 	lea    -0x628(%rbp),%rax
    dcfc:	48 89 85 c0 fb ff ff 	mov    %rax,-0x440(%rbp)
    dd03:	48 8d 85 d8 f9 ff ff 	lea    -0x628(%rbp),%rax
    dd0a:	48 89 85 c8 fb ff ff 	mov    %rax,-0x438(%rbp)
    dd11:	48 8d 85 d8 f9 ff ff 	lea    -0x628(%rbp),%rax
    dd18:	48 89 85 d0 fb ff ff 	mov    %rax,-0x430(%rbp)
    dd1f:	48 8d 85 d8 f9 ff ff 	lea    -0x628(%rbp),%rax
    dd26:	48 89 85 d8 fb ff ff 	mov    %rax,-0x428(%rbp)
    dd2d:	48 8d 85 d8 f9 ff ff 	lea    -0x628(%rbp),%rax
    dd34:	48 89 85 e0 fb ff ff 	mov    %rax,-0x420(%rbp)
    dd3b:	48 8d 85 d8 f9 ff ff 	lea    -0x628(%rbp),%rax
    dd42:	48 89 85 e8 fb ff ff 	mov    %rax,-0x418(%rbp)
    dd49:	48 8d 85 d8 f9 ff ff 	lea    -0x628(%rbp),%rax
    dd50:	48 89 85 f0 fb ff ff 	mov    %rax,-0x410(%rbp)
    dd57:	48 8d 85 d8 f9 ff ff 	lea    -0x628(%rbp),%rax
    dd5e:	48 89 85 f8 fb ff ff 	mov    %rax,-0x408(%rbp)
    dd65:	48 8d 85 d8 f9 ff ff 	lea    -0x628(%rbp),%rax
    dd6c:	48 89 85 00 fc ff ff 	mov    %rax,-0x400(%rbp)
    dd73:	48 8d 85 d8 f9 ff ff 	lea    -0x628(%rbp),%rax
    dd7a:	48 89 85 08 fc ff ff 	mov    %rax,-0x3f8(%rbp)
    dd81:	48 8d 85 d8 f9 ff ff 	lea    -0x628(%rbp),%rax
    dd88:	48 89 85 10 fc ff ff 	mov    %rax,-0x3f0(%rbp)
    dd8f:	48 8d 85 d8 f9 ff ff 	lea    -0x628(%rbp),%rax
    dd96:	48 89 85 18 fc ff ff 	mov    %rax,-0x3e8(%rbp)
    dd9d:	48 8d 85 d8 f9 ff ff 	lea    -0x628(%rbp),%rax
    dda4:	48 89 85 20 fc ff ff 	mov    %rax,-0x3e0(%rbp)
    ddab:	48 8d 85 d8 f9 ff ff 	lea    -0x628(%rbp),%rax
    ddb2:	48 89 85 28 fc ff ff 	mov    %rax,-0x3d8(%rbp)
    ddb9:	c6 85 6f f9 ff ff a1 	movb   $0xa1,-0x691(%rbp)
    ddc0:	c7 85 98 f9 ff ff ff 	movl   $0xffffffff,-0x668(%rbp)
    ddc7:	ff ff ff 
    ddca:	c7 85 9c f9 ff ff fa 	movl   $0xfffffffa,-0x664(%rbp)
    ddd1:	ff ff ff 
    ddd4:	48 8d 85 d0 f9 ff ff 	lea    -0x630(%rbp),%rax
    dddb:	48 89 85 40 fa ff ff 	mov    %rax,-0x5c0(%rbp)
    dde2:	c7 85 80 f9 ff ff 00 	movl   $0x0,-0x680(%rbp)
    dde9:	00 00 00 
    ddec:	eb 78                	jmp    de66 <func_30+0x5ec>
    ddee:	c7 85 84 f9 ff ff 00 	movl   $0x0,-0x67c(%rbp)
    ddf5:	00 00 00 
    ddf8:	eb 5c                	jmp    de56 <func_30+0x5dc>
    ddfa:	c7 85 88 f9 ff ff 00 	movl   $0x0,-0x678(%rbp)
    de01:	00 00 00 
    de04:	eb 40                	jmp    de46 <func_30+0x5cc>
    de06:	8b 85 88 f9 ff ff    	mov    -0x678(%rbp),%eax
    de0c:	48 63 c8             	movslq %eax,%rcx
    de0f:	8b 85 80 f9 ff ff    	mov    -0x680(%rbp),%eax
    de15:	48 63 d0             	movslq %eax,%rdx
    de18:	8b 85 84 f9 ff ff    	mov    -0x67c(%rbp),%eax
    de1e:	48 63 f0             	movslq %eax,%rsi
    de21:	48 89 d0             	mov    %rdx,%rax
    de24:	48 01 c0             	add    %rax,%rax
    de27:	48 01 d0             	add    %rdx,%rax
    de2a:	48 01 f0             	add    %rsi,%rax
    de2d:	48 c1 e0 02          	shl    $0x2,%rax
    de31:	48 01 c8             	add    %rcx,%rax
    de34:	c7 84 85 d0 fa ff ff 	movl   $0x74fe67fb,-0x530(%rbp,%rax,4)
    de3b:	fb 67 fe 74 
    de3f:	83 85 88 f9 ff ff 01 	addl   $0x1,-0x678(%rbp)
    de46:	83 bd 88 f9 ff ff 03 	cmpl   $0x3,-0x678(%rbp)
    de4d:	7e b7                	jle    de06 <func_30+0x58c>
    de4f:	83 85 84 f9 ff ff 01 	addl   $0x1,-0x67c(%rbp)
    de56:	83 bd 84 f9 ff ff 02 	cmpl   $0x2,-0x67c(%rbp)
    de5d:	7e 9b                	jle    ddfa <func_30+0x580>
    de5f:	83 85 80 f9 ff ff 01 	addl   $0x1,-0x680(%rbp)
    de66:	83 bd 80 f9 ff ff 01 	cmpl   $0x1,-0x680(%rbp)
    de6d:	0f 8e 7b ff ff ff    	jle    ddee <func_30+0x574>
    de73:	8b 05 e7 f2 00 00    	mov    0xf2e7(%rip),%eax        # 1d160 <g_1245+0x3c0>
    de79:	0f b6 d8             	movzbl %al,%ebx
    de7c:	48 8b 05 dd 13 01 00 	mov    0x113dd(%rip),%rax        # 1f260 <g_447>
    de83:	0f b6 00             	movzbl (%rax),%eax
    de86:	44 0f be e0          	movsbl %al,%r12d
    de8a:	bf 09 00 00 00       	mov    $0x9,%edi
    de8f:	e8 02 b7 ff ff       	callq  9596 <safe_unary_minus_func_int32_t_s>
    de94:	48 8b 05 b5 15 01 00 	mov    0x115b5(%rip),%rax        # 1f450 <g_1246>
    de9b:	48 8b 00             	mov    (%rax),%rax
    de9e:	c7 00 02 00 00 00    	movl   $0x2,(%rax)
    dea4:	48 8b 15 dd 13 01 00 	mov    0x113dd(%rip),%rdx        # 1f288 <g_648>
    deab:	48 8b 05 de 13 01 00 	mov    0x113de(%rip),%rax        # 1f290 <g_647>
    deb2:	48 8b 00             	mov    (%rax),%rax
    deb5:	8b 12                	mov    (%rdx),%edx
    deb7:	89 10                	mov    %edx,(%rax)
    deb9:	8b 85 90 fd ff ff    	mov    -0x270(%rbp),%eax
    debf:	44 0f bf e8          	movswl %ax,%r13d
    dec3:	48 8b 05 ce 13 01 00 	mov    0x113ce(%rip),%rax        # 1f298 <g_868>
    deca:	0f b7 00             	movzwl (%rax),%eax
    decd:	44 0f b7 f0          	movzwl %ax,%r14d
    ded1:	0f b6 05 b8 f2 00 00 	movzbl 0xf2b8(%rip),%eax        # 1d190 <g_1268>
    ded8:	0f be d0             	movsbl %al,%edx
    dedb:	8b 85 5c f9 ff ff    	mov    -0x6a4(%rbp),%eax
    dee1:	0f be c0             	movsbl %al,%eax
    dee4:	89 d6                	mov    %edx,%esi
    dee6:	89 c7                	mov    %eax,%edi
    dee8:	e8 44 b3 ff ff       	callq  9231 <safe_mod_func_int8_t_s_s>
    deed:	0f be c0             	movsbl %al,%eax
    def0:	41 39 c6             	cmp    %eax,%r14d
    def3:	0f 9d c0             	setge  %al
    def6:	0f b6 c0             	movzbl %al,%eax
    def9:	44 89 ee             	mov    %r13d,%esi
    defc:	89 c7                	mov    %eax,%edi
    defe:	e8 d0 b4 ff ff       	callq  93d3 <safe_sub_func_int16_t_s_s>
    df03:	48 8b 85 08 fa ff ff 	mov    -0x5f8(%rbp),%rax
    df0a:	48 3b 85 00 fa ff ff 	cmp    -0x600(%rbp),%rax
    df11:	0f 94 c0             	sete   %al
    df14:	0f b6 c0             	movzbl %al,%eax
    df17:	44 89 e6             	mov    %r12d,%esi
    df1a:	89 c7                	mov    %eax,%edi
    df1c:	e8 e4 bc ff ff       	callq  9c05 <safe_lshift_func_uint8_t_u_s>
    df21:	0f b6 c0             	movzbl %al,%eax
    df24:	89 de                	mov    %ebx,%esi
    df26:	89 c7                	mov    %eax,%edi
    df28:	e8 81 bc ff ff       	callq  9bae <safe_mod_func_uint8_t_u_u>
    df2d:	c6 85 6e f9 ff ff 00 	movb   $0x0,-0x692(%rbp)
    df34:	c6 05 55 f2 00 00 09 	movb   $0x9,0xf255(%rip)        # 1d190 <g_1268>
    df3b:	e9 b4 03 00 00       	jmpq   e2f4 <func_30+0xa7a>
    df40:	48 8d 85 70 fb ff ff 	lea    -0x490(%rbp),%rax
    df47:	48 8d 15 b2 05 01 00 	lea    0x105b2(%rip),%rdx        # 1e500 <g_3397+0xeff>
    df4e:	b9 38 00 00 00       	mov    $0x38,%ecx
    df53:	48 89 c7             	mov    %rax,%rdi
    df56:	48 89 d6             	mov    %rdx,%rsi
    df59:	f3 48 a5             	rep movsq %ds:(%rsi),%es:(%rdi)
    df5c:	48 8d 85 70 fb ff ff 	lea    -0x490(%rbp),%rax
    df63:	48 05 28 01 00 00    	add    $0x128,%rax
    df69:	48 89 85 d0 f9 ff ff 	mov    %rax,-0x630(%rbp)
    df70:	48 8d 85 d0 f9 ff ff 	lea    -0x630(%rbp),%rax
    df77:	48 89 85 d8 f9 ff ff 	mov    %rax,-0x628(%rbp)
    df7e:	48 8d 85 d8 f9 ff ff 	lea    -0x628(%rbp),%rax
    df85:	48 89 85 80 fa ff ff 	mov    %rax,-0x580(%rbp)
    df8c:	c7 85 c4 f9 ff ff d5 	movl   $0x681f6bd5,-0x63c(%rbp)
    df93:	6b 1f 68 
    df96:	48 c7 85 88 fa ff ff 	movq   $0x0,-0x578(%rbp)
    df9d:	00 00 00 00 
    dfa1:	66 c7 85 d0 fa ff ff 	movw   $0xfffd,-0x530(%rbp)
    dfa8:	fd ff 
    dfaa:	66 c7 85 d2 fa ff ff 	movw   $0x2892,-0x52e(%rbp)
    dfb1:	92 28 
    dfb3:	66 c7 85 d4 fa ff ff 	movw   $0x59ad,-0x52c(%rbp)
    dfba:	ad 59 
    dfbc:	66 c7 85 d6 fa ff ff 	movw   $0x1,-0x52a(%rbp)
    dfc3:	01 00 
    dfc5:	66 c7 85 d8 fa ff ff 	movw   $0x4bd3,-0x528(%rbp)
    dfcc:	d3 4b 
    dfce:	66 c7 85 da fa ff ff 	movw   $0xffff,-0x526(%rbp)
    dfd5:	ff ff 
    dfd7:	66 c7 85 dc fa ff ff 	movw   $0x4bd3,-0x524(%rbp)
    dfde:	d3 4b 
    dfe0:	66 c7 85 de fa ff ff 	movw   $0x1,-0x522(%rbp)
    dfe7:	01 00 
    dfe9:	66 c7 85 e0 fa ff ff 	movw   $0x59ad,-0x520(%rbp)
    dff0:	ad 59 
    dff2:	66 c7 85 e2 fa ff ff 	movw   $0x2892,-0x51e(%rbp)
    dff9:	92 28 
    dffb:	66 c7 85 e4 fa ff ff 	movw   $0x4bd3,-0x51c(%rbp)
    e002:	d3 4b 
    e004:	66 c7 85 e6 fa ff ff 	movw   $0x7,-0x51a(%rbp)
    e00b:	07 00 
    e00d:	66 c7 85 e8 fa ff ff 	movw   $0x1dfd,-0x518(%rbp)
    e014:	fd 1d 
    e016:	66 c7 85 ea fa ff ff 	movw   $0x1,-0x516(%rbp)
    e01d:	01 00 
    e01f:	66 c7 85 ec fa ff ff 	movw   $0x0,-0x514(%rbp)
    e026:	00 00 
    e028:	66 c7 85 ee fa ff ff 	movw   $0x890a,-0x512(%rbp)
    e02f:	0a 89 
    e031:	66 c7 85 f0 fa ff ff 	movw   $0x4bd3,-0x510(%rbp)
    e038:	d3 4b 
    e03a:	66 c7 85 f2 fa ff ff 	movw   $0xc77d,-0x50e(%rbp)
    e041:	7d c7 
    e043:	66 c7 85 f4 fa ff ff 	movw   $0x7,-0x50c(%rbp)
    e04a:	07 00 
    e04c:	66 c7 85 f6 fa ff ff 	movw   $0x1,-0x50a(%rbp)
    e053:	01 00 
    e055:	66 c7 85 f8 fa ff ff 	movw   $0x1dfd,-0x508(%rbp)
    e05c:	fd 1d 
    e05e:	66 c7 85 fa fa ff ff 	movw   $0x2892,-0x506(%rbp)
    e065:	92 28 
    e067:	66 c7 85 fc fa ff ff 	movw   $0x7,-0x504(%rbp)
    e06e:	07 00 
    e070:	66 c7 85 fe fa ff ff 	movw   $0x890a,-0x502(%rbp)
    e077:	0a 89 
    e079:	66 c7 85 00 fb ff ff 	movw   $0xfffd,-0x500(%rbp)
    e080:	fd ff 
    e082:	66 c7 85 02 fb ff ff 	movw   $0x890a,-0x4fe(%rbp)
    e089:	0a 89 
    e08b:	66 c7 85 04 fb ff ff 	movw   $0x7,-0x4fc(%rbp)
    e092:	07 00 
    e094:	66 c7 85 06 fb ff ff 	movw   $0x2892,-0x4fa(%rbp)
    e09b:	92 28 
    e09d:	66 c7 85 08 fb ff ff 	movw   $0x1dfd,-0x4f8(%rbp)
    e0a4:	fd 1d 
    e0a6:	66 c7 85 0a fb ff ff 	movw   $0xc77d,-0x4f6(%rbp)
    e0ad:	7d c7 
    e0af:	66 c7 85 0c fb ff ff 	movw   $0x4bd3,-0x4f4(%rbp)
    e0b6:	d3 4b 
    e0b8:	66 c7 85 0e fb ff ff 	movw   $0x1,-0x4f2(%rbp)
    e0bf:	01 00 
    e0c1:	66 c7 85 10 fb ff ff 	movw   $0x59ad,-0x4f0(%rbp)
    e0c8:	ad 59 
    e0ca:	66 c7 85 12 fb ff ff 	movw   $0x2892,-0x4ee(%rbp)
    e0d1:	92 28 
    e0d3:	66 c7 85 14 fb ff ff 	movw   $0xfffd,-0x4ec(%rbp)
    e0da:	fd ff 
    e0dc:	66 c7 85 16 fb ff ff 	movw   $0xffff,-0x4ea(%rbp)
    e0e3:	ff ff 
    e0e5:	66 c7 85 18 fb ff ff 	movw   $0xfdb8,-0x4e8(%rbp)
    e0ec:	b8 fd 
    e0ee:	66 c7 85 1a fb ff ff 	movw   $0x1,-0x4e6(%rbp)
    e0f5:	01 00 
    e0f7:	66 c7 85 1c fb ff ff 	movw   $0x59ad,-0x4e4(%rbp)
    e0fe:	ad 59 
    e100:	66 c7 85 1e fb ff ff 	movw   $0x1,-0x4e2(%rbp)
    e107:	01 00 
    e109:	66 c7 85 20 fb ff ff 	movw   $0xfffd,-0x4e0(%rbp)
    e110:	fd ff 
    e112:	66 c7 85 22 fb ff ff 	movw   $0x7,-0x4de(%rbp)
    e119:	07 00 
    e11b:	66 c7 85 24 fb ff ff 	movw   $0x0,-0x4dc(%rbp)
    e122:	00 00 
    e124:	66 c7 85 26 fb ff ff 	movw   $0x2892,-0x4da(%rbp)
    e12b:	92 28 
    e12d:	66 c7 85 28 fb ff ff 	movw   $0x0,-0x4d8(%rbp)
    e134:	00 00 
    e136:	66 c7 85 2a fb ff ff 	movw   $0x7,-0x4d6(%rbp)
    e13d:	07 00 
    e13f:	66 c7 85 2c fb ff ff 	movw   $0xfffd,-0x4d4(%rbp)
    e146:	fd ff 
    e148:	66 c7 85 2e fb ff ff 	movw   $0xc77d,-0x4d2(%rbp)
    e14f:	7d c7 
    e151:	66 c7 85 30 fb ff ff 	movw   $0x1dfd,-0x4d0(%rbp)
    e158:	fd 1d 
    e15a:	66 c7 85 32 fb ff ff 	movw   $0x2892,-0x4ce(%rbp)
    e161:	92 28 
    e163:	66 c7 85 34 fb ff ff 	movw   $0x1dfd,-0x4cc(%rbp)
    e16a:	fd 1d 
    e16c:	66 c7 85 36 fb ff ff 	movw   $0x1,-0x4ca(%rbp)
    e173:	01 00 
    e175:	66 c7 85 38 fb ff ff 	movw   $0x0,-0x4c8(%rbp)
    e17c:	00 00 
    e17e:	66 c7 85 3a fb ff ff 	movw   $0x890a,-0x4c6(%rbp)
    e185:	0a 89 
    e187:	66 c7 85 3c fb ff ff 	movw   $0x4bd3,-0x4c4(%rbp)
    e18e:	d3 4b 
    e190:	66 c7 85 3e fb ff ff 	movw   $0xc77d,-0x4c2(%rbp)
    e197:	7d c7 
    e199:	66 c7 85 40 fb ff ff 	movw   $0x7,-0x4c0(%rbp)
    e1a0:	07 00 
    e1a2:	66 c7 85 42 fb ff ff 	movw   $0x1,-0x4be(%rbp)
    e1a9:	01 00 
    e1ab:	66 c7 85 44 fb ff ff 	movw   $0x7,-0x4bc(%rbp)
    e1b2:	07 00 
    e1b4:	66 c7 85 46 fb ff ff 	movw   $0xc77d,-0x4ba(%rbp)
    e1bb:	7d c7 
    e1bd:	66 c7 85 48 fb ff ff 	movw   $0xfdb8,-0x4b8(%rbp)
    e1c4:	b8 fd 
    e1c6:	66 c7 85 4a fb ff ff 	movw   $0x1,-0x4b6(%rbp)
    e1cd:	01 00 
    e1cf:	66 c7 85 4c fb ff ff 	movw   $0x59ad,-0x4b4(%rbp)
    e1d6:	ad 59 
    e1d8:	66 c7 85 4e fb ff ff 	movw   $0x1,-0x4b2(%rbp)
    e1df:	01 00 
    e1e1:	66 c7 85 50 fb ff ff 	movw   $0xfdb8,-0x4b0(%rbp)
    e1e8:	b8 fd 
    e1ea:	66 c7 85 52 fb ff ff 	movw   $0xffff,-0x4ae(%rbp)
    e1f1:	ff ff 
    e1f3:	66 c7 85 54 fb ff ff 	movw   $0xfffd,-0x4ac(%rbp)
    e1fa:	fd ff 
    e1fc:	66 c7 85 56 fb ff ff 	movw   $0x2892,-0x4aa(%rbp)
    e203:	92 28 
    e205:	66 c7 85 58 fb ff ff 	movw   $0x59ad,-0x4a8(%rbp)
    e20c:	ad 59 
    e20e:	66 c7 85 5a fb ff ff 	movw   $0x1,-0x4a6(%rbp)
    e215:	01 00 
    e217:	66 c7 85 5c fb ff ff 	movw   $0xfdb8,-0x4a4(%rbp)
    e21e:	b8 fd 
    e220:	66 c7 85 5e fb ff ff 	movw   $0x7,-0x4a2(%rbp)
    e227:	07 00 
    e229:	66 c7 85 60 fb ff ff 	movw   $0x7,-0x4a0(%rbp)
    e230:	07 00 
    e232:	66 c7 85 62 fb ff ff 	movw   $0x1,-0x49e(%rbp)
    e239:	01 00 
    e23b:	66 c7 85 64 fb ff ff 	movw   $0x0,-0x49c(%rbp)
    e242:	00 00 
    e244:	66 c7 85 66 fb ff ff 	movw   $0xc77d,-0x49a(%rbp)
    e24b:	7d c7 
    e24d:	66 c7 85 68 fb ff ff 	movw   $0xfdb8,-0x498(%rbp)
    e254:	b8 fd 
    e256:	66 c7 85 6a fb ff ff 	movw   $0xc77d,-0x496(%rbp)
    e25d:	7d c7 
    e25f:	66 c7 85 6c fb ff ff 	movw   $0x0,-0x494(%rbp)
    e266:	00 00 
    e268:	66 c7 85 6e fb ff ff 	movw   $0x1,-0x492(%rbp)
    e26f:	01 00 
    e271:	66 c7 05 1a e9 00 00 	movw   $0x0,0xe91a(%rip)        # 1cb94 <g_698>
    e278:	00 00 
    e27a:	eb 5b                	jmp    e2d7 <func_30+0xa5d>
    e27c:	48 b8 43 0d 82 16 a6 	movabs $0xdabb7da616820d43,%rax
    e283:	7d bb da 
    e286:	48 89 85 90 fa ff ff 	mov    %rax,-0x570(%rbp)
    e28d:	48 b8 5c 6f ed 3f ca 	movabs $0x4ff0dcca3fed6f5c,%rax
    e294:	dc f0 4f 
    e297:	48 89 85 98 fa ff ff 	mov    %rax,-0x568(%rbp)
    e29e:	c7 85 c8 f9 ff ff f2 	movl   $0xc60629f2,-0x638(%rbp)
    e2a5:	29 06 c6 
    e2a8:	48 8d 85 70 fb ff ff 	lea    -0x490(%rbp),%rax
    e2af:	48 05 28 01 00 00    	add    $0x128,%rax
    e2b5:	48 89 85 a0 fa ff ff 	mov    %rax,-0x560(%rbp)
    e2bc:	c7 85 cc f9 ff ff d5 	movl   $0x25187dd5,-0x634(%rbp)
    e2c3:	7d 18 25 
    e2c6:	0f b7 05 c7 e8 00 00 	movzwl 0xe8c7(%rip),%eax        # 1cb94 <g_698>
    e2cd:	83 c0 01             	add    $0x1,%eax
    e2d0:	66 89 05 bd e8 00 00 	mov    %ax,0xe8bd(%rip)        # 1cb94 <g_698>
    e2d7:	0f b7 05 b6 e8 00 00 	movzwl 0xe8b6(%rip),%eax        # 1cb94 <g_698>
    e2de:	66 83 f8 03          	cmp    $0x3,%ax
    e2e2:	7e 98                	jle    e27c <func_30+0xa02>
    e2e4:	0f b6 05 a5 ee 00 00 	movzbl 0xeea5(%rip),%eax        # 1d190 <g_1268>
    e2eb:	83 e8 01             	sub    $0x1,%eax
    e2ee:	88 05 9c ee 00 00    	mov    %al,0xee9c(%rip)        # 1d190 <g_1268>
    e2f4:	0f b6 05 95 ee 00 00 	movzbl 0xee95(%rip),%eax        # 1d190 <g_1268>
    e2fb:	3c 02                	cmp    $0x2,%al
    e2fd:	0f 8f 3d fc ff ff    	jg     df40 <func_30+0x6c6>
    e303:	48 8b 05 7e 0e 01 00 	mov    0x10e7e(%rip),%rax        # 1f188 <g_267>
    e30a:	48 8b 95 e0 f9 ff ff 	mov    -0x620(%rbp),%rdx
    e311:	8b 12                	mov    (%rdx),%edx
    e313:	89 10                	mov    %edx,(%rax)
    e315:	8b 85 5c f9 ff ff    	mov    -0x6a4(%rbp),%eax
    e31b:	48 8b 5d d8          	mov    -0x28(%rbp),%rbx
    e31f:	64 48 33 1c 25 28 00 	xor    %fs:0x28,%rbx
    e326:	00 00 
    e328:	74 05                	je     e32f <func_30+0xab5>
    e32a:	e8 41 ad ff ff       	callq  9070 <__stack_chk_fail@plt>
    e32f:	48 81 c4 90 06 00 00 	add    $0x690,%rsp
    e336:	5b                   	pop    %rbx
    e337:	41 5c                	pop    %r12
    e339:	41 5d                	pop    %r13
    e33b:	41 5e                	pop    %r14
    e33d:	5d                   	pop    %rbp
    e33e:	c3                   	retq   

000000000000e33f <func_35>:
    e33f:	f3 0f 1e fa          	endbr64 
    e343:	55                   	push   %rbp
    e344:	48 89 e5             	mov    %rsp,%rbp
    e347:	48 81 ec a0 00 00 00 	sub    $0xa0,%rsp
    e34e:	89 bd 6c ff ff ff    	mov    %edi,-0x94(%rbp)
    e354:	64 48 8b 04 25 28 00 	mov    %fs:0x28,%rax
    e35b:	00 00 
    e35d:	48 89 45 f8          	mov    %rax,-0x8(%rbp)
    e361:	31 c0                	xor    %eax,%eax
    e363:	c7 45 88 10 31 f1 91 	movl   $0x91f13110,-0x78(%rbp)
    e36a:	c7 85 74 ff ff ff ff 	movl   $0xffffffff,-0x8c(%rbp)
    e371:	ff ff ff 
    e374:	c7 45 8c ff ff ff ff 	movl   $0xffffffff,-0x74(%rbp)
    e37b:	48 8d 85 74 ff ff ff 	lea    -0x8c(%rbp),%rax
    e382:	48 89 45 90          	mov    %rax,-0x70(%rbp)
    e386:	c7 85 6c ff ff ff 00 	movl   $0x0,-0x94(%rbp)
    e38d:	00 00 00 
    e390:	e9 ec 00 00 00       	jmpq   e481 <func_35+0x142>
    e395:	48 c7 45 98 00 00 00 	movq   $0x0,-0x68(%rbp)
    e39c:	00 
    e39d:	48 8d 05 a4 27 01 00 	lea    0x127a4(%rip),%rax        # 20b48 <g_41>
    e3a4:	48 89 45 a0          	mov    %rax,-0x60(%rbp)
    e3a8:	48 8d 05 99 27 01 00 	lea    0x12799(%rip),%rax        # 20b48 <g_41>
    e3af:	48 89 45 a8          	mov    %rax,-0x58(%rbp)
    e3b3:	48 8d 05 8e 27 01 00 	lea    0x1278e(%rip),%rax        # 20b48 <g_41>
    e3ba:	48 89 45 b0          	mov    %rax,-0x50(%rbp)
    e3be:	48 8d 05 83 27 01 00 	lea    0x12783(%rip),%rax        # 20b48 <g_41>
    e3c5:	48 89 45 b8          	mov    %rax,-0x48(%rbp)
    e3c9:	48 8d 05 78 27 01 00 	lea    0x12778(%rip),%rax        # 20b48 <g_41>
    e3d0:	48 89 45 c0          	mov    %rax,-0x40(%rbp)
    e3d4:	c7 85 78 ff ff ff 3e 	movl   $0x5bc6833e,-0x88(%rbp)
    e3db:	83 c6 5b 
    e3de:	48 c7 45 c8 00 00 00 	movq   $0x0,-0x38(%rbp)
    e3e5:	00 
    e3e6:	48 8d 85 78 ff ff ff 	lea    -0x88(%rbp),%rax
    e3ed:	48 89 45 d0          	mov    %rax,-0x30(%rbp)
    e3f1:	48 8d 05 50 27 01 00 	lea    0x12750(%rip),%rax        # 20b48 <g_41>
    e3f8:	48 89 45 d8          	mov    %rax,-0x28(%rbp)
    e3fc:	48 8d 05 45 27 01 00 	lea    0x12745(%rip),%rax        # 20b48 <g_41>
    e403:	48 89 45 e0          	mov    %rax,-0x20(%rbp)
    e407:	c7 85 7c ff ff ff db 	movl   $0x1fbecdb,-0x84(%rbp)
    e40e:	ec fb 01 
    e411:	c7 45 80 fb ff ff ff 	movl   $0xfffffffb,-0x80(%rbp)
    e418:	48 c7 45 e8 00 00 00 	movq   $0x0,-0x18(%rbp)
    e41f:	00 
    e420:	c7 45 84 00 00 00 00 	movl   $0x0,-0x7c(%rbp)
    e427:	eb 15                	jmp    e43e <func_35+0xff>
    e429:	8b 45 84             	mov    -0x7c(%rbp),%eax
    e42c:	48 98                	cltq   
    e42e:	48 8d 15 13 27 01 00 	lea    0x12713(%rip),%rdx        # 20b48 <g_41>
    e435:	48 89 54 c5 f0       	mov    %rdx,-0x10(%rbp,%rax,8)
    e43a:	83 45 84 01          	addl   $0x1,-0x7c(%rbp)
    e43e:	83 7d 84 00          	cmpl   $0x0,-0x7c(%rbp)
    e442:	7e e5                	jle    e429 <func_35+0xea>
    e444:	8b 05 da db 00 00    	mov    0xdbda(%rip),%eax        # 1c024 <g_3>
    e44a:	0b 85 6c ff ff ff    	or     -0x94(%rbp),%eax
    e450:	89 05 ce db 00 00    	mov    %eax,0xdbce(%rip)        # 1c024 <g_3>
    e456:	0f b6 05 6b df 00 00 	movzbl 0xdf6b(%rip),%eax        # 1c3c8 <g_59>
    e45d:	83 c0 01             	add    $0x1,%eax
    e460:	88 05 62 df 00 00    	mov    %al,0xdf62(%rip)        # 1c3c8 <g_59>
    e466:	8b 05 dc 26 01 00    	mov    0x126dc(%rip),%eax        # 20b48 <g_41>
    e46c:	85 c0                	test   %eax,%eax
    e46e:	75 20                	jne    e490 <func_35+0x151>
    e470:	48 8b 45 b0          	mov    -0x50(%rbp),%rax
    e474:	c7 00 01 00 00 00    	movl   $0x1,(%rax)
    e47a:	83 85 6c ff ff ff 01 	addl   $0x1,-0x94(%rbp)
    e481:	83 bd 6c ff ff ff 03 	cmpl   $0x3,-0x94(%rbp)
    e488:	0f 86 07 ff ff ff    	jbe    e395 <func_35+0x56>
    e48e:	eb 01                	jmp    e491 <func_35+0x152>
    e490:	90                   	nop
    e491:	8b 15 25 df 00 00    	mov    0xdf25(%rip),%edx        # 1c3bc <g_38+0xc>
    e497:	48 8b 45 90          	mov    -0x70(%rbp),%rax
    e49b:	89 10                	mov    %edx,(%rax)
    e49d:	8b 05 11 df 00 00    	mov    0xdf11(%rip),%eax        # 1c3b4 <g_38+0x4>
    e4a3:	48 8b 4d f8          	mov    -0x8(%rbp),%rcx
    e4a7:	64 48 33 0c 25 28 00 	xor    %fs:0x28,%rcx
    e4ae:	00 00 
    e4b0:	74 05                	je     e4b7 <func_35+0x178>
    e4b2:	e8 b9 ab ff ff       	callq  9070 <__stack_chk_fail@plt>
    e4b7:	c9                   	leaveq 
    e4b8:	c3                   	retq   

000000000000e4b9 <func_66>:
    e4b9:	f3 0f 1e fa          	endbr64 
    e4bd:	55                   	push   %rbp
    e4be:	48 89 e5             	mov    %rsp,%rbp
    e4c1:	41 57                	push   %r15
    e4c3:	41 56                	push   %r14
    e4c5:	41 55                	push   %r13
    e4c7:	41 54                	push   %r12
    e4c9:	53                   	push   %rbx
    e4ca:	48 81 ec 00 10 00 00 	sub    $0x1000,%rsp
    e4d1:	48 83 0c 24 00       	orq    $0x0,(%rsp)
    e4d6:	48 81 ec d8 05 00 00 	sub    $0x5d8,%rsp
    e4dd:	89 bd 0c ea ff ff    	mov    %edi,-0x15f4(%rbp)
    e4e3:	89 b5 08 ea ff ff    	mov    %esi,-0x15f8(%rbp)
    e4e9:	64 48 8b 04 25 28 00 	mov    %fs:0x28,%rax
    e4f0:	00 00 
    e4f2:	48 89 45 c8          	mov    %rax,-0x38(%rbp)
    e4f6:	31 c0                	xor    %eax,%eax
    e4f8:	48 c7 85 68 eb ff ff 	movq   $0x0,-0x1498(%rbp)
    e4ff:	00 00 00 00 
    e503:	48 c7 85 70 eb ff ff 	movq   $0xfffffffffffffff6,-0x1490(%rbp)
    e50a:	f6 ff ff ff 
    e50e:	c6 85 1b ea ff ff 68 	movb   $0x68,-0x15e5(%rbp)
    e515:	c7 85 34 ea ff ff 54 	movl   $0x2c255854,-0x15cc(%rbp)
    e51c:	58 25 2c 
    e51f:	48 8d 05 4c e6 00 00 	lea    0xe64c(%rip),%rax        # 1cb72 <g_146>
    e526:	48 89 85 78 eb ff ff 	mov    %rax,-0x1488(%rbp)
    e52d:	48 8d 05 c0 dc 00 00 	lea    0xdcc0(%rip),%rax        # 1c1f4 <g_4+0x1b4>
    e534:	48 89 85 30 ec ff ff 	mov    %rax,-0x13d0(%rbp)
    e53b:	48 8d 85 68 eb ff ff 	lea    -0x1498(%rbp),%rax
    e542:	48 89 85 38 ec ff ff 	mov    %rax,-0x13c8(%rbp)
    e549:	48 8d 05 24 e6 00 00 	lea    0xe624(%rip),%rax        # 1cb74 <g_220>
    e550:	48 89 85 80 eb ff ff 	mov    %rax,-0x1480(%rbp)
    e557:	48 8d 05 02 e6 00 00 	lea    0xe602(%rip),%rax        # 1cb60 <g_79>
    e55e:	48 89 85 88 eb ff ff 	mov    %rax,-0x1478(%rbp)
    e565:	48 b8 a2 59 2a 54 4d 	movabs $0xbe1d8a4d542a59a2,%rax
    e56c:	8a 1d be 
    e56f:	48 89 85 90 eb ff ff 	mov    %rax,-0x1470(%rbp)
    e576:	48 8d 85 34 ea ff ff 	lea    -0x15cc(%rbp),%rax
    e57d:	48 89 85 18 ec ff ff 	mov    %rax,-0x13e8(%rbp)
    e584:	c7 85 80 ea ff ff 3d 	movl   $0xdd95623d,-0x1580(%rbp)
    e58b:	62 95 dd 
    e58e:	c7 85 38 ea ff ff b6 	movl   $0x9ad552b6,-0x15c8(%rbp)
    e595:	52 d5 9a 
    e598:	48 8d 85 1b ea ff ff 	lea    -0x15e5(%rbp),%rax
    e59f:	48 89 85 40 ec ff ff 	mov    %rax,-0x13c0(%rbp)
    e5a6:	c6 85 1c ea ff ff 00 	movb   $0x0,-0x15e4(%rbp)
    e5ad:	48 8d 85 38 ea ff ff 	lea    -0x15c8(%rbp),%rax
    e5b4:	48 89 85 30 f0 ff ff 	mov    %rax,-0xfd0(%rbp)
    e5bb:	48 8d 85 38 ea ff ff 	lea    -0x15c8(%rbp),%rax
    e5c2:	48 89 85 38 f0 ff ff 	mov    %rax,-0xfc8(%rbp)
    e5c9:	48 8d 85 38 ea ff ff 	lea    -0x15c8(%rbp),%rax
    e5d0:	48 89 85 40 f0 ff ff 	mov    %rax,-0xfc0(%rbp)
    e5d7:	48 8d 85 38 ea ff ff 	lea    -0x15c8(%rbp),%rax
    e5de:	48 89 85 48 f0 ff ff 	mov    %rax,-0xfb8(%rbp)
    e5e5:	48 8d 85 38 ea ff ff 	lea    -0x15c8(%rbp),%rax
    e5ec:	48 89 85 50 f0 ff ff 	mov    %rax,-0xfb0(%rbp)
    e5f3:	48 8d 85 38 ea ff ff 	lea    -0x15c8(%rbp),%rax
    e5fa:	48 89 85 58 f0 ff ff 	mov    %rax,-0xfa8(%rbp)
    e601:	48 8d 85 38 ea ff ff 	lea    -0x15c8(%rbp),%rax
    e608:	48 89 85 60 f0 ff ff 	mov    %rax,-0xfa0(%rbp)
    e60f:	48 8d 85 38 ea ff ff 	lea    -0x15c8(%rbp),%rax
    e616:	48 89 85 68 f0 ff ff 	mov    %rax,-0xf98(%rbp)
    e61d:	48 8d 85 38 ea ff ff 	lea    -0x15c8(%rbp),%rax
    e624:	48 89 85 70 f0 ff ff 	mov    %rax,-0xf90(%rbp)
    e62b:	48 8d 85 38 ea ff ff 	lea    -0x15c8(%rbp),%rax
    e632:	48 89 85 78 f0 ff ff 	mov    %rax,-0xf88(%rbp)
    e639:	48 8d 85 38 ea ff ff 	lea    -0x15c8(%rbp),%rax
    e640:	48 89 85 80 f0 ff ff 	mov    %rax,-0xf80(%rbp)
    e647:	48 8d 85 38 ea ff ff 	lea    -0x15c8(%rbp),%rax
    e64e:	48 89 85 88 f0 ff ff 	mov    %rax,-0xf78(%rbp)
    e655:	48 8d 85 38 ea ff ff 	lea    -0x15c8(%rbp),%rax
    e65c:	48 89 85 90 f0 ff ff 	mov    %rax,-0xf70(%rbp)
    e663:	48 8d 85 38 ea ff ff 	lea    -0x15c8(%rbp),%rax
    e66a:	48 89 85 98 f0 ff ff 	mov    %rax,-0xf68(%rbp)
    e671:	48 8d 85 38 ea ff ff 	lea    -0x15c8(%rbp),%rax
    e678:	48 89 85 a0 f0 ff ff 	mov    %rax,-0xf60(%rbp)
    e67f:	48 8d 85 38 ea ff ff 	lea    -0x15c8(%rbp),%rax
    e686:	48 89 85 a8 f0 ff ff 	mov    %rax,-0xf58(%rbp)
    e68d:	48 8d 85 38 ea ff ff 	lea    -0x15c8(%rbp),%rax
    e694:	48 89 85 b0 f0 ff ff 	mov    %rax,-0xf50(%rbp)
    e69b:	48 8d 85 38 ea ff ff 	lea    -0x15c8(%rbp),%rax
    e6a2:	48 89 85 b8 f0 ff ff 	mov    %rax,-0xf48(%rbp)
    e6a9:	48 8d 85 38 ea ff ff 	lea    -0x15c8(%rbp),%rax
    e6b0:	48 89 85 c0 f0 ff ff 	mov    %rax,-0xf40(%rbp)
    e6b7:	48 8d 85 38 ea ff ff 	lea    -0x15c8(%rbp),%rax
    e6be:	48 89 85 c8 f0 ff ff 	mov    %rax,-0xf38(%rbp)
    e6c5:	48 c7 85 98 eb ff ff 	movq   $0xfffffffffffffffc,-0x1468(%rbp)
    e6cc:	fc ff ff ff 
    e6d0:	48 8d 05 e9 dc 00 00 	lea    0xdce9(%rip),%rax        # 1c3c0 <g_57>
    e6d7:	48 89 85 a0 eb ff ff 	mov    %rax,-0x1460(%rbp)
    e6de:	48 8d 85 78 eb ff ff 	lea    -0x1488(%rbp),%rax
    e6e5:	48 89 85 a8 eb ff ff 	mov    %rax,-0x1458(%rbp)
    e6ec:	48 8d 05 55 dc 00 00 	lea    0xdc55(%rip),%rax        # 1c348 <g_4+0x308>
    e6f3:	48 89 85 48 ec ff ff 	mov    %rax,-0x13b8(%rbp)
    e6fa:	48 c7 85 b0 eb ff ff 	movq   $0x0,-0x1450(%rbp)
    e701:	00 00 00 00 
    e705:	48 8d 85 b0 eb ff ff 	lea    -0x1450(%rbp),%rax
    e70c:	48 89 85 b8 eb ff ff 	mov    %rax,-0x1448(%rbp)
    e713:	48 8d 85 b8 eb ff ff 	lea    -0x1448(%rbp),%rax
    e71a:	48 89 85 50 ec ff ff 	mov    %rax,-0x13b0(%rbp)
    e721:	c7 85 84 ea ff ff b4 	movl   $0xe39b54b4,-0x157c(%rbp)
    e728:	54 9b e3 
    e72b:	c7 85 3c ea ff ff 40 	movl   $0x6a530440,-0x15c4(%rbp)
    e732:	04 53 6a 
    e735:	48 c7 85 c0 eb ff ff 	movq   $0x0,-0x1440(%rbp)
    e73c:	00 00 00 00 
    e740:	c7 85 c4 ea ff ff cd 	movl   $0xcb9197cd,-0x153c(%rbp)
    e747:	97 91 cb 
    e74a:	c6 85 1e ea ff ff 08 	movb   $0x8,-0x15e2(%rbp)
    e751:	48 8d 85 d0 f4 ff ff 	lea    -0xb30(%rbp),%rax
    e758:	48 8d 15 a1 8d 00 00 	lea    0x8da1(%rip),%rdx        # 17500 <g_1737+0x46e>
    e75f:	b9 54 00 00 00       	mov    $0x54,%ecx
    e764:	48 89 c7             	mov    %rax,%rdi
    e767:	48 89 d6             	mov    %rdx,%rsi
    e76a:	f3 48 a5             	rep movsq %ds:(%rsi),%es:(%rdi)
    e76d:	48 8d 05 20 e4 00 00 	lea    0xe420(%rip),%rax        # 1cb94 <g_698>
    e774:	48 89 85 c8 eb ff ff 	mov    %rax,-0x1438(%rbp)
    e77b:	48 c7 85 d0 f0 ff ff 	movq   $0x0,-0xf30(%rbp)
    e782:	00 00 00 00 
    e786:	48 8d 85 c8 eb ff ff 	lea    -0x1438(%rbp),%rax
    e78d:	48 89 85 d8 f0 ff ff 	mov    %rax,-0xf28(%rbp)
    e794:	48 c7 85 e0 f0 ff ff 	movq   $0x0,-0xf20(%rbp)
    e79b:	00 00 00 00 
    e79f:	48 8d 85 c8 eb ff ff 	lea    -0x1438(%rbp),%rax
    e7a6:	48 89 85 e8 f0 ff ff 	mov    %rax,-0xf18(%rbp)
    e7ad:	48 8d 85 c8 eb ff ff 	lea    -0x1438(%rbp),%rax
    e7b4:	48 89 85 f0 f0 ff ff 	mov    %rax,-0xf10(%rbp)
    e7bb:	48 c7 85 f8 f0 ff ff 	movq   $0x0,-0xf08(%rbp)
    e7c2:	00 00 00 00 
    e7c6:	48 8d 85 c8 eb ff ff 	lea    -0x1438(%rbp),%rax
    e7cd:	48 89 85 00 f1 ff ff 	mov    %rax,-0xf00(%rbp)
    e7d4:	48 c7 85 08 f1 ff ff 	movq   $0x0,-0xef8(%rbp)
    e7db:	00 00 00 00 
    e7df:	48 8d 85 c8 eb ff ff 	lea    -0x1438(%rbp),%rax
    e7e6:	48 89 85 10 f1 ff ff 	mov    %rax,-0xef0(%rbp)
    e7ed:	48 c7 85 18 f1 ff ff 	movq   $0x0,-0xee8(%rbp)
    e7f4:	00 00 00 00 
    e7f8:	48 8d 85 c8 eb ff ff 	lea    -0x1438(%rbp),%rax
    e7ff:	48 89 85 20 f1 ff ff 	mov    %rax,-0xee0(%rbp)
    e806:	48 8d 85 c8 eb ff ff 	lea    -0x1438(%rbp),%rax
    e80d:	48 89 85 28 f1 ff ff 	mov    %rax,-0xed8(%rbp)
    e814:	48 c7 85 30 f1 ff ff 	movq   $0x0,-0xed0(%rbp)
    e81b:	00 00 00 00 
    e81f:	48 8d 85 c8 eb ff ff 	lea    -0x1438(%rbp),%rax
    e826:	48 89 85 38 f1 ff ff 	mov    %rax,-0xec8(%rbp)
    e82d:	48 c7 85 40 f1 ff ff 	movq   $0x0,-0xec0(%rbp)
    e834:	00 00 00 00 
    e838:	48 8d 85 c8 eb ff ff 	lea    -0x1438(%rbp),%rax
    e83f:	48 89 85 48 f1 ff ff 	mov    %rax,-0xeb8(%rbp)
    e846:	48 8d 85 c8 eb ff ff 	lea    -0x1438(%rbp),%rax
    e84d:	48 89 85 50 f1 ff ff 	mov    %rax,-0xeb0(%rbp)
    e854:	48 c7 85 58 f1 ff ff 	movq   $0x0,-0xea8(%rbp)
    e85b:	00 00 00 00 
    e85f:	48 8d 85 c8 eb ff ff 	lea    -0x1438(%rbp),%rax
    e866:	48 89 85 60 f1 ff ff 	mov    %rax,-0xea0(%rbp)
    e86d:	48 8d 85 c8 eb ff ff 	lea    -0x1438(%rbp),%rax
    e874:	48 89 85 68 f1 ff ff 	mov    %rax,-0xe98(%rbp)
    e87b:	48 8d 85 c8 eb ff ff 	lea    -0x1438(%rbp),%rax
    e882:	48 89 85 70 f1 ff ff 	mov    %rax,-0xe90(%rbp)
    e889:	48 8d 85 c8 eb ff ff 	lea    -0x1438(%rbp),%rax
    e890:	48 89 85 78 f1 ff ff 	mov    %rax,-0xe88(%rbp)
    e897:	48 8d 85 c8 eb ff ff 	lea    -0x1438(%rbp),%rax
    e89e:	48 89 85 80 f1 ff ff 	mov    %rax,-0xe80(%rbp)
    e8a5:	48 8d 85 c8 eb ff ff 	lea    -0x1438(%rbp),%rax
    e8ac:	48 89 85 88 f1 ff ff 	mov    %rax,-0xe78(%rbp)
    e8b3:	48 8d 85 c8 eb ff ff 	lea    -0x1438(%rbp),%rax
    e8ba:	48 89 85 90 f1 ff ff 	mov    %rax,-0xe70(%rbp)
    e8c1:	48 8d 85 c8 eb ff ff 	lea    -0x1438(%rbp),%rax
    e8c8:	48 89 85 98 f1 ff ff 	mov    %rax,-0xe68(%rbp)
    e8cf:	48 8d 85 c8 eb ff ff 	lea    -0x1438(%rbp),%rax
    e8d6:	48 89 85 a0 f1 ff ff 	mov    %rax,-0xe60(%rbp)
    e8dd:	48 c7 85 58 ec ff ff 	movq   $0x0,-0x13a8(%rbp)
    e8e4:	00 00 00 00 
    e8e8:	48 8d 05 59 22 01 00 	lea    0x12259(%rip),%rax        # 20b48 <g_41>
    e8ef:	48 89 85 60 ec ff ff 	mov    %rax,-0x13a0(%rbp)
    e8f6:	48 8d 05 97 e2 00 00 	lea    0xe297(%rip),%rax        # 1cb94 <g_698>
    e8fd:	48 89 85 b0 ef ff ff 	mov    %rax,-0x1050(%rbp)
    e904:	48 8d 05 89 e2 00 00 	lea    0xe289(%rip),%rax        # 1cb94 <g_698>
    e90b:	48 89 85 b8 ef ff ff 	mov    %rax,-0x1048(%rbp)
    e912:	48 8d 05 7b e2 00 00 	lea    0xe27b(%rip),%rax        # 1cb94 <g_698>
    e919:	48 89 85 c0 ef ff ff 	mov    %rax,-0x1040(%rbp)
    e920:	48 8d 05 6d e2 00 00 	lea    0xe26d(%rip),%rax        # 1cb94 <g_698>
    e927:	48 89 85 c8 ef ff ff 	mov    %rax,-0x1038(%rbp)
    e92e:	48 8d 05 5f e2 00 00 	lea    0xe25f(%rip),%rax        # 1cb94 <g_698>
    e935:	48 89 85 d0 ef ff ff 	mov    %rax,-0x1030(%rbp)
    e93c:	48 8d 05 51 e2 00 00 	lea    0xe251(%rip),%rax        # 1cb94 <g_698>
    e943:	48 89 85 d8 ef ff ff 	mov    %rax,-0x1028(%rbp)
    e94a:	48 c7 85 68 ec ff ff 	movq   $0xffffffffffffffff,-0x1398(%rbp)
    e951:	ff ff ff ff 
    e955:	c7 85 c8 ea ff ff f1 	movl   $0x9fe805f1,-0x1538(%rbp)
    e95c:	05 e8 9f 
    e95f:	48 8d 85 70 f7 ff ff 	lea    -0x890(%rbp),%rax
    e966:	48 8d 15 33 8e 00 00 	lea    0x8e33(%rip),%rdx        # 177a0 <g_1737+0x70e>
    e96d:	b9 54 00 00 00       	mov    $0x54,%ecx
    e972:	48 89 c7             	mov    %rax,%rdi
    e975:	48 89 d6             	mov    %rdx,%rsi
    e978:	f3 48 a5             	rep movsq %ds:(%rsi),%es:(%rdi)
    e97b:	48 c7 85 70 ec ff ff 	movq   $0x1,-0x1390(%rbp)
    e982:	01 00 00 00 
    e986:	48 8d 05 eb 21 01 00 	lea    0x121eb(%rip),%rax        # 20b78 <g_348>
    e98d:	48 89 85 d0 eb ff ff 	mov    %rax,-0x1430(%rbp)
    e994:	48 8d 85 d0 eb ff ff 	lea    -0x1430(%rbp),%rax
    e99b:	48 89 85 78 ec ff ff 	mov    %rax,-0x1388(%rbp)
    e9a2:	48 c7 05 13 da 00 00 	movq   $0x3,0xda13(%rip)        # 1c3c0 <g_57>
    e9a9:	03 00 00 00 
    e9ad:	90                   	nop
    e9ae:	48 8b 05 0b da 00 00 	mov    0xda0b(%rip),%rax        # 1c3c0 <g_57>
    e9b5:	48 83 f8 e7          	cmp    $0xffffffffffffffe7,%rax
    e9b9:	0f 8d eb 25 00 00    	jge    10faa <func_66+0x2af1>
    e9bf:	c7 85 cc ea ff ff 6f 	movl   $0x7332266f,-0x1534(%rbp)
    e9c6:	26 32 73 
    e9c9:	48 8d 05 78 21 01 00 	lea    0x12178(%rip),%rax        # 20b48 <g_41>
    e9d0:	48 89 85 d8 eb ff ff 	mov    %rax,-0x1428(%rbp)
    e9d7:	48 8d 05 8a e1 00 00 	lea    0xe18a(%rip),%rax        # 1cb68 <g_113>
    e9de:	48 89 85 e0 eb ff ff 	mov    %rax,-0x1420(%rbp)
    e9e5:	48 8d 85 e0 eb ff ff 	lea    -0x1420(%rbp),%rax
    e9ec:	48 89 85 80 ec ff ff 	mov    %rax,-0x1380(%rbp)
    e9f3:	48 c7 85 e8 eb ff ff 	movq   $0x0,-0x1418(%rbp)
    e9fa:	00 00 00 00 
    e9fe:	48 8d 85 a0 f2 ff ff 	lea    -0xd60(%rbp),%rax
    ea05:	48 8d 15 b4 fc 00 00 	lea    0xfcb4(%rip),%rdx        # 1e6c0 <g_3397+0x10bf>
    ea0c:	b9 3f 00 00 00       	mov    $0x3f,%ecx
    ea11:	48 89 c7             	mov    %rax,%rdi
    ea14:	48 89 d6             	mov    %rdx,%rsi
    ea17:	f3 48 a5             	rep movsq %ds:(%rsi),%es:(%rdi)
    ea1a:	48 8d 85 1b ea ff ff 	lea    -0x15e5(%rbp),%rax
    ea21:	48 89 85 f0 eb ff ff 	mov    %rax,-0x1410(%rbp)
    ea28:	48 c7 85 80 ef ff ff 	movq   $0x0,-0x1080(%rbp)
    ea2f:	00 00 00 00 
    ea33:	48 c7 85 88 ef ff ff 	movq   $0x0,-0x1078(%rbp)
    ea3a:	00 00 00 00 
    ea3e:	48 c7 85 90 ef ff ff 	movq   $0x0,-0x1070(%rbp)
    ea45:	00 00 00 00 
    ea49:	48 c7 85 98 ef ff ff 	movq   $0x0,-0x1068(%rbp)
    ea50:	00 00 00 00 
    ea54:	48 c7 85 a0 ef ff ff 	movq   $0x0,-0x1060(%rbp)
    ea5b:	00 00 00 00 
    ea5f:	c7 85 40 ea ff ff f7 	movl   $0xfffffff7,-0x15c0(%rbp)
    ea66:	ff ff ff 
    ea69:	48 8d 05 04 e1 00 00 	lea    0xe104(%rip),%rax        # 1cb74 <g_220>
    ea70:	48 89 85 88 ec ff ff 	mov    %rax,-0x1378(%rbp)
    ea77:	c7 85 44 ea ff ff fe 	movl   $0xf4295afe,-0x15bc(%rbp)
    ea7e:	5a 29 f4 
    ea81:	48 b8 50 00 c4 fb f6 	movabs $0xba25dff6fbc40050,%rax
    ea88:	df 25 ba 
    ea8b:	48 89 85 90 ec ff ff 	mov    %rax,-0x1370(%rbp)
    ea92:	c6 85 1d ea ff ff 1b 	movb   $0x1b,-0x15e3(%rbp)
    ea99:	48 c7 85 98 ec ff ff 	movq   $0x6,-0x1368(%rbp)
    eaa0:	06 00 00 00 
    eaa4:	c7 85 88 ea ff ff 00 	movl   $0x0,-0x1578(%rbp)
    eaab:	00 00 00 
    eaae:	eb 14                	jmp    eac4 <func_66+0x60b>
    eab0:	8b 85 88 ea ff ff    	mov    -0x1578(%rbp),%eax
    eab6:	48 98                	cltq   
    eab8:	c6 44 05 bf 9b       	movb   $0x9b,-0x41(%rbp,%rax,1)
    eabd:	83 85 88 ea ff ff 01 	addl   $0x1,-0x1578(%rbp)
    eac4:	83 bd 88 ea ff ff 01 	cmpl   $0x1,-0x1578(%rbp)
    eacb:	7e e3                	jle    eab0 <func_66+0x5f7>
    eacd:	8b 85 08 ea ff ff    	mov    -0x15f8(%rbp),%eax
    ead3:	0f b7 d8             	movzwl %ax,%ebx
    ead6:	48 8b 85 68 eb ff ff 	mov    -0x1498(%rbp),%rax
    eadd:	48 8d 15 40 d5 00 00 	lea    0xd540(%rip),%rdx        # 1c024 <g_3>
    eae4:	48 39 d0             	cmp    %rdx,%rax
    eae7:	0f 95 c0             	setne  %al
    eaea:	0f b6 d0             	movzbl %al,%edx
    eaed:	8b 05 55 d8 00 00    	mov    0xd855(%rip),%eax        # 1c348 <g_4+0x308>
    eaf3:	39 c2                	cmp    %eax,%edx
    eaf5:	7f 0a                	jg     eb01 <func_66+0x648>
    eaf7:	8b 05 4b d8 00 00    	mov    0xd84b(%rip),%eax        # 1c348 <g_4+0x308>
    eafd:	85 c0                	test   %eax,%eax
    eaff:	74 0c                	je     eb0d <func_66+0x654>
    eb01:	c7 85 04 ea ff ff 01 	movl   $0x1,-0x15fc(%rbp)
    eb08:	00 00 00 
    eb0b:	eb 0a                	jmp    eb17 <func_66+0x65e>
    eb0d:	c7 85 04 ea ff ff 00 	movl   $0x0,-0x15fc(%rbp)
    eb14:	00 00 00 
    eb17:	48 8b 05 7a db 00 00 	mov    0xdb7a(%rip),%rax        # 1c698 <g_77+0x2b8>
    eb1e:	44 0f be e8          	movsbl %al,%r13d
    eb22:	8b 85 08 ea ff ff    	mov    -0x15f8(%rbp),%eax
    eb28:	4c 63 e0             	movslq %eax,%r12
    eb2b:	48 8b 05 1e de 00 00 	mov    0xde1e(%rip),%rax        # 1c950 <g_77+0x570>
    eb32:	41 89 c7             	mov    %eax,%r15d
    eb35:	8b 05 81 d8 00 00    	mov    0xd881(%rip),%eax        # 1c3bc <g_38+0xc>
    eb3b:	41 89 c6             	mov    %eax,%r14d
    eb3e:	8b 05 5c d8 00 00    	mov    0xd85c(%rip),%eax        # 1c3a0 <g_34>
    eb44:	89 c2                	mov    %eax,%edx
    eb46:	8b 85 08 ea ff ff    	mov    -0x15f8(%rbp),%eax
    eb4c:	89 c6                	mov    %eax,%esi
    eb4e:	89 d7                	mov    %edx,%edi
    eb50:	e8 61 aa ff ff       	callq  95b6 <safe_add_func_int32_t_s_s>
    eb55:	8b 15 35 d5 00 00    	mov    0xd535(%rip),%edx        # 1c090 <g_4+0x50>
    eb5b:	39 d0                	cmp    %edx,%eax
    eb5d:	bf 00 00 00 00       	mov    $0x0,%edi
    eb62:	e8 3b 61 00 00       	callq  14ca2 <func_99>
    eb67:	8b 05 df d6 00 00    	mov    0xd6df(%rip),%eax        # 1c24c <g_4+0x20c>
    eb6d:	39 85 cc ea ff ff    	cmp    %eax,-0x1534(%rbp)
    eb73:	0f 95 c0             	setne  %al
    eb76:	0f b6 d0             	movzbl %al,%edx
    eb79:	48 8b 05 20 df 00 00 	mov    0xdf20(%rip),%rax        # 1caa0 <g_77+0x6c0>
    eb80:	0f b6 c0             	movzbl %al,%eax
    eb83:	89 d6                	mov    %edx,%esi
    eb85:	89 c7                	mov    %eax,%edi
    eb87:	e8 c0 b0 ff ff       	callq  9c4c <safe_lshift_func_uint8_t_u_u>
    eb8c:	0f b6 c0             	movzbl %al,%eax
    eb8f:	45 89 e8             	mov    %r13d,%r8d
    eb92:	4c 89 e1             	mov    %r12,%rcx
    eb95:	44 89 fa             	mov    %r15d,%edx
    eb98:	44 89 f6             	mov    %r14d,%esi
    eb9b:	89 c7                	mov    %eax,%edi
    eb9d:	e8 2a 5c 00 00       	callq  147cc <func_91>
    eba2:	39 85 08 ea ff ff    	cmp    %eax,-0x15f8(%rbp)
    eba8:	0f 9f c0             	setg   %al
    ebab:	0f b6 c0             	movzbl %al,%eax
    ebae:	39 85 04 ea ff ff    	cmp    %eax,-0x15fc(%rbp)
    ebb4:	0f 9c c0             	setl   %al
    ebb7:	0f b6 c0             	movzbl %al,%eax
    ebba:	be 01 00 00 00       	mov    $0x1,%esi
    ebbf:	89 c7                	mov    %eax,%edi
    ebc1:	e8 86 b0 ff ff       	callq  9c4c <safe_lshift_func_uint8_t_u_u>
    ebc6:	0f b6 c0             	movzbl %al,%eax
    ebc9:	89 de                	mov    %ebx,%esi
    ebcb:	89 c7                	mov    %eax,%edi
    ebcd:	e8 bc b1 ff ff       	callq  9d8e <safe_div_func_uint16_t_u_u>
    ebd2:	0f b7 c0             	movzwl %ax,%eax
    ebd5:	48 8b 9d d8 eb ff ff 	mov    -0x1428(%rbp),%rbx
    ebdc:	89 c7                	mov    %eax,%edi
    ebde:	e8 5c f7 ff ff       	callq  e33f <func_35>
    ebe3:	89 03                	mov    %eax,(%rbx)
    ebe5:	48 8b 05 7c df 00 00 	mov    0xdf7c(%rip),%rax        # 1cb68 <g_113>
    ebec:	0f b7 d8             	movzwl %ax,%ebx
    ebef:	48 8b 85 d8 eb ff ff 	mov    -0x1428(%rbp),%rax
    ebf6:	48 85 c0             	test   %rax,%rax
    ebf9:	0f 94 c0             	sete   %al
    ebfc:	44 0f b6 f8          	movzbl %al,%r15d
    ec00:	0f b7 05 69 df 00 00 	movzwl 0xdf69(%rip),%eax        # 1cb70 <g_134>
    ec07:	44 0f b7 e0          	movzwl %ax,%r12d
    ec0b:	48 8b 85 80 ec ff ff 	mov    -0x1380(%rbp),%rax
    ec12:	48 c7 00 00 00 00 00 	movq   $0x0,(%rax)
    ec19:	48 8b 85 80 ec ff ff 	mov    -0x1380(%rbp),%rax
    ec20:	48 8b 00             	mov    (%rax),%rax
    ec23:	48 8d 15 36 df 00 00 	lea    0xdf36(%rip),%rdx        # 1cb60 <g_79>
    ec2a:	48 39 d0             	cmp    %rdx,%rax
    ec2d:	0f 95 c0             	setne  %al
    ec30:	0f b6 c0             	movzbl %al,%eax
    ec33:	89 c2                	mov    %eax,%edx
    ec35:	0f b6 85 1b ea ff ff 	movzbl -0x15e5(%rbp),%eax
    ec3c:	21 d0                	and    %edx,%eax
    ec3e:	88 85 1b ea ff ff    	mov    %al,-0x15e5(%rbp)
    ec44:	44 8b ad 0c ea ff ff 	mov    -0x15f4(%rbp),%r13d
    ec4b:	48 8b 85 d8 eb ff ff 	mov    -0x1428(%rbp),%rax
    ec52:	c7 00 01 00 00 00    	movl   $0x1,(%rax)
    ec58:	44 8b b5 0c ea ff ff 	mov    -0x15f4(%rbp),%r14d
    ec5f:	48 8b 85 f0 eb ff ff 	mov    -0x1410(%rbp),%rax
    ec66:	8b 95 0c ea ff ff    	mov    -0x15f4(%rbp),%edx
    ec6c:	88 10                	mov    %dl,(%rax)
    ec6e:	be 01 00 00 00       	mov    $0x1,%esi
    ec73:	bf 16 88 ff ff       	mov    $0xffff8816,%edi
    ec78:	e8 15 a8 ff ff       	callq  9492 <safe_lshift_func_int16_t_s_s>
    ec7d:	48 0f bf c0          	movswq %ax,%rax
    ec81:	4c 89 f6             	mov    %r14,%rsi
    ec84:	48 89 c7             	mov    %rax,%rdi
    ec87:	e8 28 ad ff ff       	callq  99b4 <safe_mod_func_int64_t_s_s>
    ec8c:	89 85 34 ea ff ff    	mov    %eax,-0x15cc(%rbp)
    ec92:	8b 85 34 ea ff ff    	mov    -0x15cc(%rbp),%eax
    ec98:	23 85 0c ea ff ff    	and    -0x15f4(%rbp),%eax
    ec9e:	85 c0                	test   %eax,%eax
    eca0:	74 13                	je     ecb5 <func_66+0x7fc>
    eca2:	48 8b 05 bf de 00 00 	mov    0xdebf(%rip),%rax        # 1cb68 <g_113>
    eca9:	48 85 c0             	test   %rax,%rax
    ecac:	74 07                	je     ecb5 <func_66+0x7fc>
    ecae:	b8 01 00 00 00       	mov    $0x1,%eax
    ecb3:	eb 05                	jmp    ecba <func_66+0x801>
    ecb5:	b8 00 00 00 00       	mov    $0x0,%eax
    ecba:	23 85 0c ea ff ff    	and    -0x15f4(%rbp),%eax
    ecc0:	89 c2                	mov    %eax,%edx
    ecc2:	8b 85 08 ea ff ff    	mov    -0x15f8(%rbp),%eax
    ecc8:	31 d0                	xor    %edx,%eax
    ecca:	39 85 0c ea ff ff    	cmp    %eax,-0x15f4(%rbp)
    ecd0:	0f b6 05 f1 d6 00 00 	movzbl 0xd6f1(%rip),%eax        # 1c3c8 <g_59>
    ecd7:	4c 89 ee             	mov    %r13,%rsi
    ecda:	bf 01 00 00 00       	mov    $0x1,%edi
    ecdf:	e8 c4 ab ff ff       	callq  98a8 <safe_sub_func_int64_t_s_s>
    ece4:	83 bd 08 ea ff ff 00 	cmpl   $0x0,-0x15f8(%rbp)
    eceb:	75 0d                	jne    ecfa <func_66+0x841>
    eced:	48 8b 85 d8 eb ff ff 	mov    -0x1428(%rbp),%rax
    ecf4:	8b 00                	mov    (%rax),%eax
    ecf6:	85 c0                	test   %eax,%eax
    ecf8:	74 07                	je     ed01 <func_66+0x848>
    ecfa:	b8 01 00 00 00       	mov    $0x1,%eax
    ecff:	eb 05                	jmp    ed06 <func_66+0x84d>
    ed01:	b8 00 00 00 00       	mov    $0x0,%eax
    ed06:	3d d9 00 00 00       	cmp    $0xd9,%eax
    ed0b:	0f 9f c0             	setg   %al
    ed0e:	0f b6 c0             	movzbl %al,%eax
    ed11:	44 89 e6             	mov    %r12d,%esi
    ed14:	89 c7                	mov    %eax,%edi
    ed16:	e8 41 b0 ff ff       	callq  9d5c <safe_mod_func_uint16_t_u_u>
    ed1b:	0f b7 c0             	movzwl %ax,%eax
    ed1e:	44 21 f8             	and    %r15d,%eax
    ed21:	be 01 00 00 00       	mov    $0x1,%esi
    ed26:	89 c7                	mov    %eax,%edi
    ed28:	e8 d0 b1 ff ff       	callq  9efd <safe_mod_func_uint32_t_u_u>
    ed2d:	85 c0                	test   %eax,%eax
    ed2f:	75 0c                	jne    ed3d <func_66+0x884>
    ed31:	48 8b 05 70 d8 00 00 	mov    0xd870(%rip),%rax        # 1c5a8 <g_77+0x1c8>
    ed38:	48 85 c0             	test   %rax,%rax
    ed3b:	74 07                	je     ed44 <func_66+0x88b>
    ed3d:	b8 01 00 00 00       	mov    $0x1,%eax
    ed42:	eb 05                	jmp    ed49 <func_66+0x890>
    ed44:	b8 00 00 00 00       	mov    $0x0,%eax
    ed49:	89 c2                	mov    %eax,%edx
    ed4b:	48 8b 05 fe 1d 01 00 	mov    0x11dfe(%rip),%rax        # 20b50 <g_109>
    ed52:	48 8b 00             	mov    (%rax),%rax
    ed55:	21 d0                	and    %edx,%eax
    ed57:	0f b7 c0             	movzwl %ax,%eax
    ed5a:	89 de                	mov    %ebx,%esi
    ed5c:	89 c7                	mov    %eax,%edi
    ed5e:	e8 2b b0 ff ff       	callq  9d8e <safe_div_func_uint16_t_u_u>
    ed63:	8b 05 77 d4 00 00    	mov    0xd477(%rip),%eax        # 1c1e0 <g_4+0x1a0>
    ed69:	85 c0                	test   %eax,%eax
    ed6b:	0f 84 03 22 00 00    	je     10f74 <func_66+0x2abb>
    ed71:	48 8d 85 70 eb ff ff 	lea    -0x1490(%rbp),%rax
    ed78:	48 89 85 a8 ec ff ff 	mov    %rax,-0x1358(%rbp)
    ed7f:	c7 85 48 ea ff ff ff 	movl   $0xffffffff,-0x15b8(%rbp)
    ed86:	ff ff ff 
    ed89:	48 8d 85 68 eb ff ff 	lea    -0x1498(%rbp),%rax
    ed90:	48 89 85 b0 ec ff ff 	mov    %rax,-0x1350(%rbp)
    ed97:	48 8d 05 d6 dd 00 00 	lea    0xddd6(%rip),%rax        # 1cb74 <g_220>
    ed9e:	48 89 85 f8 eb ff ff 	mov    %rax,-0x1408(%rbp)
    eda5:	48 c7 85 b8 ec ff ff 	movq   $0x0,-0x1348(%rbp)
    edac:	00 00 00 00 
    edb0:	48 8d 85 50 ef ff ff 	lea    -0x10b0(%rbp),%rax
    edb7:	48 83 c0 18          	add    $0x18,%rax
    edbb:	48 89 85 00 ec ff ff 	mov    %rax,-0x1400(%rbp)
    edc2:	c7 85 d0 ea ff ff 01 	movl   $0x1,-0x1530(%rbp)
    edc9:	00 00 00 
    edcc:	c7 85 4c ea ff ff 01 	movl   $0x1,-0x15b4(%rbp)
    edd3:	00 00 00 
    edd6:	c7 85 7c ea ff ff 33 	movl   $0xcefe3733,-0x1584(%rbp)
    eddd:	37 fe ce 
    ede0:	66 c7 85 26 ea ff ff 	movw   $0x1,-0x15da(%rbp)
    ede7:	01 00 
    ede9:	c7 85 78 ea ff ff 00 	movl   $0x0,-0x1588(%rbp)
    edf0:	00 00 00 
    edf3:	eb 1b                	jmp    ee10 <func_66+0x957>
    edf5:	8b 85 78 ea ff ff    	mov    -0x1588(%rbp),%eax
    edfb:	48 98                	cltq   
    edfd:	48 c7 84 c5 50 ef ff 	movq   $0x0,-0x10b0(%rbp,%rax,8)
    ee04:	ff 00 00 00 00 
    ee09:	83 85 78 ea ff ff 01 	addl   $0x1,-0x1588(%rbp)
    ee10:	83 bd 78 ea ff ff 03 	cmpl   $0x3,-0x1588(%rbp)
    ee17:	7e dc                	jle    edf5 <func_66+0x93c>
    ee19:	c7 85 78 ea ff ff 00 	movl   $0x0,-0x1588(%rbp)
    ee20:	00 00 00 
    ee23:	eb 1a                	jmp    ee3f <func_66+0x986>
    ee25:	8b 85 78 ea ff ff    	mov    -0x1588(%rbp),%eax
    ee2b:	48 98                	cltq   
    ee2d:	c7 84 85 30 ef ff ff 	movl   $0xe1c824b7,-0x10d0(%rbp,%rax,4)
    ee34:	b7 24 c8 e1 
    ee38:	83 85 78 ea ff ff 01 	addl   $0x1,-0x1588(%rbp)
    ee3f:	83 bd 78 ea ff ff 04 	cmpl   $0x4,-0x1588(%rbp)
    ee46:	7e dd                	jle    ee25 <func_66+0x96c>
    ee48:	48 8b 85 d8 eb ff ff 	mov    -0x1428(%rbp),%rax
    ee4f:	c7 00 a0 2b c4 f0    	movl   $0xf0c42ba0,(%rax)
    ee55:	48 8b 05 f4 1c 01 00 	mov    0x11cf4(%rip),%rax        # 20b50 <g_109>
    ee5c:	48 8b 00             	mov    (%rax),%rax
    ee5f:	48 ba 7f 56 fb 09 69 	movabs $0x6608b6909fb567f,%rdx
    ee66:	8b 60 06 
    ee69:	48 39 d0             	cmp    %rdx,%rax
    ee6c:	0f 8f a7 00 00 00    	jg     ef19 <func_66+0xa60>
    ee72:	48 8b 85 78 eb ff ff 	mov    -0x1488(%rbp),%rax
    ee79:	48 85 c0             	test   %rax,%rax
    ee7c:	0f 95 c0             	setne  %al
    ee7f:	0f b6 d8             	movzbl %al,%ebx
    ee82:	8b 85 0c ea ff ff    	mov    -0x15f4(%rbp),%eax
    ee88:	89 c7                	mov    %eax,%edi
    ee8a:	e8 07 a7 ff ff       	callq  9596 <safe_unary_minus_func_int32_t_s>
    ee8f:	0f b7 c0             	movzwl %ax,%eax
    ee92:	89 de                	mov    %ebx,%esi
    ee94:	89 c7                	mov    %eax,%edi
    ee96:	e8 ad af ff ff       	callq  9e48 <safe_rshift_func_uint16_t_u_s>
    ee9b:	0f b7 c0             	movzwl %ax,%eax
    ee9e:	8b 95 0c ea ff ff    	mov    -0x15f4(%rbp),%edx
    eea4:	89 d6                	mov    %edx,%esi
    eea6:	89 c7                	mov    %eax,%edi
    eea8:	e8 59 af ff ff       	callq  9e06 <safe_lshift_func_uint16_t_u_u>
    eead:	66 85 c0             	test   %ax,%ax
    eeb0:	0f b7 05 b9 dc 00 00 	movzwl 0xdcb9(%rip),%eax        # 1cb70 <g_134>
    eeb7:	0f b7 c0             	movzwl %ax,%eax
    eeba:	89 c7                	mov    %eax,%edi
    eebc:	e8 28 ae ff ff       	callq  9ce9 <safe_unary_minus_func_uint16_t_u>
    eec1:	89 c2                	mov    %eax,%edx
    eec3:	48 8b 05 86 1c 01 00 	mov    0x11c86(%rip),%rax        # 20b50 <g_109>
    eeca:	0f b7 d2             	movzwl %dx,%edx
    eecd:	48 89 10             	mov    %rdx,(%rax)
    eed0:	48 8b 00             	mov    (%rax),%rax
    eed3:	48 89 c3             	mov    %rax,%rbx
    eed6:	8b 85 0c ea ff ff    	mov    -0x15f4(%rbp),%eax
    eedc:	48 be 7a 1c 40 3e 18 	movabs $0x4edfc4183e401c7a,%rsi
    eee3:	c4 df 4e 
    eee6:	48 89 c7             	mov    %rax,%rdi
    eee9:	e8 5d b1 ff ff       	callq  a04b <safe_sub_func_uint64_t_u_u>
    eeee:	48 39 c3             	cmp    %rax,%rbx
    eef1:	0f 97 c0             	seta   %al
    eef4:	0f b6 d0             	movzbl %al,%edx
    eef7:	0f b7 05 5a 1c 01 00 	movzwl 0x11c5a(%rip),%eax        # 20b58 <g_148>
    eefe:	0f b7 c0             	movzwl %ax,%eax
    ef01:	39 c2                	cmp    %eax,%edx
    ef03:	48 8b 85 80 ec ff ff 	mov    -0x1380(%rbp),%rax
    ef0a:	48 8b 00             	mov    (%rax),%rax
    ef0d:	48 8d 15 4c dc 00 00 	lea    0xdc4c(%rip),%rdx        # 1cb60 <g_79>
    ef14:	48 39 d0             	cmp    %rdx,%rax
    ef17:	75 07                	jne    ef20 <func_66+0xa67>
    ef19:	ba 01 00 00 00       	mov    $0x1,%edx
    ef1e:	eb 05                	jmp    ef25 <func_66+0xa6c>
    ef20:	ba 00 00 00 00       	mov    $0x0,%edx
    ef25:	8b 05 1d d4 00 00    	mov    0xd41d(%rip),%eax        # 1c348 <g_4+0x308>
    ef2b:	89 d6                	mov    %edx,%esi
    ef2d:	89 c7                	mov    %eax,%edi
    ef2f:	e8 98 a7 ff ff       	callq  96cc <safe_mod_func_int32_t_s_s>
    ef34:	48 63 d0             	movslq %eax,%rdx
    ef37:	48 8b 85 a8 ec ff ff 	mov    -0x1358(%rbp),%rax
    ef3e:	48 89 10             	mov    %rdx,(%rax)
    ef41:	48 8b 85 a8 ec ff ff 	mov    -0x1358(%rbp),%rax
    ef48:	48 8b 00             	mov    (%rax),%rax
    ef4b:	48 be a5 fa ce ee 3a 	movabs $0x8bdb423aeecefaa5,%rsi
    ef52:	42 db 8b 
    ef55:	48 89 c7             	mov    %rax,%rdi
    ef58:	e8 e4 a8 ff ff       	callq  9841 <safe_add_func_int64_t_s_s>
    ef5d:	48 85 c0             	test   %rax,%rax
    ef60:	75 0b                	jne    ef6d <func_66+0xab4>
    ef62:	0f b6 05 5f d4 00 00 	movzbl 0xd45f(%rip),%eax        # 1c3c8 <g_59>
    ef69:	84 c0                	test   %al,%al
    ef6b:	74 07                	je     ef74 <func_66+0xabb>
    ef6d:	b8 01 00 00 00       	mov    $0x1,%eax
    ef72:	eb 05                	jmp    ef79 <func_66+0xac0>
    ef74:	b8 00 00 00 00       	mov    $0x0,%eax
    ef79:	3d a1 2b c4 f0       	cmp    $0xf0c42ba1,%eax
    ef7e:	0f 8c 51 1a 00 00    	jl     109d5 <func_66+0x251c>
    ef84:	48 b8 01 23 df 73 c8 	movabs $0xcf8604c873df2301,%rax
    ef8b:	04 86 cf 
    ef8e:	48 89 85 c8 ec ff ff 	mov    %rax,-0x1338(%rbp)
    ef95:	66 c7 85 28 ea ff ff 	movw   $0x1e4,-0x15d8(%rbp)
    ef9c:	e4 01 
    ef9e:	48 c7 85 d0 ec ff ff 	movq   $0x0,-0x1330(%rbp)
    efa5:	00 00 00 00 
    efa9:	48 8d 05 b0 db 00 00 	lea    0xdbb0(%rip),%rax        # 1cb60 <g_79>
    efb0:	48 89 85 d8 ec ff ff 	mov    %rax,-0x1328(%rbp)
    efb7:	c7 85 50 ea ff ff a8 	movl   $0xac7da2a8,-0x15b0(%rbp)
    efbe:	a2 7d ac 
    efc1:	48 8d 85 44 ea ff ff 	lea    -0x15bc(%rbp),%rax
    efc8:	48 89 85 e0 ec ff ff 	mov    %rax,-0x1320(%rbp)
    efcf:	c7 85 70 ea ff ff 00 	movl   $0x0,-0x1590(%rbp)
    efd6:	00 00 00 
    efd9:	eb 1e                	jmp    eff9 <func_66+0xb40>
    efdb:	8b 85 70 ea ff ff    	mov    -0x1590(%rbp),%eax
    efe1:	48 98                	cltq   
    efe3:	48 8d 95 1b ea ff ff 	lea    -0x15e5(%rbp),%rdx
    efea:	48 89 94 c5 10 ef ff 	mov    %rdx,-0x10f0(%rbp,%rax,8)
    eff1:	ff 
    eff2:	83 85 70 ea ff ff 01 	addl   $0x1,-0x1590(%rbp)
    eff9:	83 bd 70 ea ff ff 00 	cmpl   $0x0,-0x1590(%rbp)
    f000:	7e d9                	jle    efdb <func_66+0xb22>
    f002:	c7 85 70 ea ff ff 00 	movl   $0x0,-0x1590(%rbp)
    f009:	00 00 00 
    f00c:	eb 1a                	jmp    f028 <func_66+0xb6f>
    f00e:	8b 85 70 ea ff ff    	mov    -0x1590(%rbp),%eax
    f014:	48 98                	cltq   
    f016:	c7 84 85 e0 ef ff ff 	movl   $0x987fc7db,-0x1020(%rbp,%rax,4)
    f01d:	db c7 7f 98 
    f021:	83 85 70 ea ff ff 01 	addl   $0x1,-0x1590(%rbp)
    f028:	83 bd 70 ea ff ff 09 	cmpl   $0x9,-0x1590(%rbp)
    f02f:	7e dd                	jle    f00e <func_66+0xb55>
    f031:	8b 05 79 d3 00 00    	mov    0xd379(%rip),%eax        # 1c3b0 <g_38>
    f037:	85 c0                	test   %eax,%eax
    f039:	0f 85 6b 1f 00 00    	jne    10faa <func_66+0x2af1>
    f03f:	48 8b 05 0a 1b 01 00 	mov    0x11b0a(%rip),%rax        # 20b50 <g_109>
    f046:	48 8b 00             	mov    (%rax),%rax
    f049:	83 e0 ca             	and    $0xffffffca,%eax
    f04c:	83 f0 1f             	xor    $0x1f,%eax
    f04f:	0f b6 c0             	movzbl %al,%eax
    f052:	be 01 00 00 00       	mov    $0x1,%esi
    f057:	89 c7                	mov    %eax,%edi
    f059:	e8 60 ac ff ff       	callq  9cbe <safe_rshift_func_uint8_t_u_u>
    f05e:	0f b6 c0             	movzbl %al,%eax
    f061:	0d 07 91 23 66       	or     $0x66239107,%eax
    f066:	89 85 48 ea ff ff    	mov    %eax,-0x15b8(%rbp)
    f06c:	8b 85 48 ea ff ff    	mov    -0x15b8(%rbp),%eax
    f072:	85 c0                	test   %eax,%eax
    f074:	75 08                	jne    f07e <func_66+0xbc5>
    f076:	66 83 bd 28 ea ff ff 	cmpw   $0x0,-0x15d8(%rbp)
    f07d:	00 
    f07e:	48 8b 85 78 eb ff ff 	mov    -0x1488(%rbp),%rax
    f085:	8b 95 08 ea ff ff    	mov    -0x15f8(%rbp),%edx
    f08b:	66 89 10             	mov    %dx,(%rax)
    f08e:	0f b7 00             	movzwl (%rax),%eax
    f091:	0f b7 d0             	movzwl %ax,%edx
    f094:	8b 85 48 ea ff ff    	mov    -0x15b8(%rbp),%eax
    f09a:	39 c2                	cmp    %eax,%edx
    f09c:	0f 95 c0             	setne  %al
    f09f:	0f b6 c8             	movzbl %al,%ecx
    f0a2:	48 8b 85 d8 ec ff ff 	mov    -0x1328(%rbp),%rax
    f0a9:	48 8b 10             	mov    (%rax),%rdx
    f0ac:	48 63 c1             	movslq %ecx,%rax
    f0af:	48 31 c2             	xor    %rax,%rdx
    f0b2:	48 8b 85 d8 ec ff ff 	mov    -0x1328(%rbp),%rax
    f0b9:	48 89 10             	mov    %rdx,(%rax)
    f0bc:	48 8b 85 d8 ec ff ff 	mov    -0x1328(%rbp),%rax
    f0c3:	48 8b 00             	mov    (%rax),%rax
    f0c6:	48 89 c2             	mov    %rax,%rdx
    f0c9:	8b 85 08 ea ff ff    	mov    -0x15f8(%rbp),%eax
    f0cf:	83 f0 16             	xor    $0x16,%eax
    f0d2:	48 98                	cltq   
    f0d4:	48 89 d6             	mov    %rdx,%rsi
    f0d7:	48 89 c7             	mov    %rax,%rdi
    f0da:	e8 18 a9 ff ff       	callq  99f7 <safe_div_func_int64_t_s_s>
    f0df:	81 bd 0c ea ff ff ff 	cmpl   $0xffff,-0x15f4(%rbp)
    f0e6:	ff 00 00 
    f0e9:	74 11                	je     f0fc <func_66+0xc43>
    f0eb:	48 83 bd c8 ec ff ff 	cmpq   $0x0,-0x1338(%rbp)
    f0f2:	00 
    f0f3:	74 07                	je     f0fc <func_66+0xc43>
    f0f5:	b8 01 00 00 00       	mov    $0x1,%eax
    f0fa:	eb 05                	jmp    f101 <func_66+0xc48>
    f0fc:	b8 00 00 00 00       	mov    $0x0,%eax
    f101:	85 c0                	test   %eax,%eax
    f103:	0f 84 90 06 00 00    	je     f799 <func_66+0x12e0>
    f109:	c7 85 54 ea ff ff 04 	movl   $0x4,-0x15ac(%rbp)
    f110:	00 00 00 
    f113:	48 8d 05 3a 7f 00 00 	lea    0x7f3a(%rip),%rax        # 17054 <g_90>
    f11a:	48 89 85 08 ec ff ff 	mov    %rax,-0x13f8(%rbp)
    f121:	48 8d 85 f8 eb ff ff 	lea    -0x1408(%rbp),%rax
    f128:	48 89 85 f0 ec ff ff 	mov    %rax,-0x1310(%rbp)
    f12f:	c7 85 58 ea ff ff 01 	movl   $0x1,-0x15a8(%rbp)
    f136:	00 00 00 
    f139:	48 8d 05 30 da 00 00 	lea    0xda30(%rip),%rax        # 1cb70 <g_134>
    f140:	48 89 85 f8 ec ff ff 	mov    %rax,-0x1308(%rbp)
    f147:	48 8d 85 10 fa ff ff 	lea    -0x5f0(%rbp),%rax
    f14e:	48 8d 15 6b f7 00 00 	lea    0xf76b(%rip),%rdx        # 1e8c0 <g_3397+0x12bf>
    f155:	b9 54 00 00 00       	mov    $0x54,%ecx
    f15a:	48 89 c7             	mov    %rax,%rdi
    f15d:	48 89 d6             	mov    %rdx,%rsi
    f160:	f3 48 a5             	rep movsq %ds:(%rsi),%es:(%rdi)
    f163:	66 c7 05 ec 19 01 00 	movw   $0x0,0x119ec(%rip)        # 20b58 <g_148>
    f16a:	00 00 
    f16c:	e9 66 02 00 00       	jmpq   f3d7 <func_66+0xf1e>
    f171:	48 8d 85 80 ef ff ff 	lea    -0x1080(%rbp),%rax
    f178:	48 83 c0 18          	add    $0x18,%rax
    f17c:	48 89 85 10 ed ff ff 	mov    %rax,-0x12f0(%rbp)
    f183:	48 8d 05 ea d9 00 00 	lea    0xd9ea(%rip),%rax        # 1cb74 <g_220>
    f18a:	48 89 85 10 ec ff ff 	mov    %rax,-0x13f0(%rbp)
    f191:	48 8d 85 10 ec ff ff 	lea    -0x13f0(%rbp),%rax
    f198:	48 89 85 18 ed ff ff 	mov    %rax,-0x12e8(%rbp)
    f19f:	48 8d 85 08 ec ff ff 	lea    -0x13f8(%rbp),%rax
    f1a6:	48 89 85 20 ed ff ff 	mov    %rax,-0x12e0(%rbp)
    f1ad:	c7 85 74 ea ff ff 00 	movl   $0x0,-0x158c(%rbp)
    f1b4:	00 00 00 
    f1b7:	eb 1e                	jmp    f1d7 <func_66+0xd1e>
    f1b9:	8b 85 74 ea ff ff    	mov    -0x158c(%rbp),%eax
    f1bf:	48 98                	cltq   
    f1c1:	48 8d 95 68 eb ff ff 	lea    -0x1498(%rbp),%rdx
    f1c8:	48 89 94 c5 b0 f1 ff 	mov    %rdx,-0xe50(%rbp,%rax,8)
    f1cf:	ff 
    f1d0:	83 85 74 ea ff ff 01 	addl   $0x1,-0x158c(%rbp)
    f1d7:	83 bd 74 ea ff ff 00 	cmpl   $0x0,-0x158c(%rbp)
    f1de:	7e d9                	jle    f1b9 <func_66+0xd00>
    f1e0:	0f b7 05 89 d9 00 00 	movzwl 0xd989(%rip),%eax        # 1cb70 <g_134>
    f1e7:	0f bf d8             	movswl %ax,%ebx
    f1ea:	44 8b a5 08 ea ff ff 	mov    -0x15f8(%rbp),%r12d
    f1f1:	48 8b 85 b0 f1 ff ff 	mov    -0xe50(%rbp),%rax
    f1f8:	48 39 85 b0 ec ff ff 	cmp    %rax,-0x1350(%rbp)
    f1ff:	0f 95 c2             	setne  %dl
    f202:	48 8b 85 d8 eb ff ff 	mov    -0x1428(%rbp),%rax
    f209:	0f b6 d2             	movzbl %dl,%edx
    f20c:	89 10                	mov    %edx,(%rax)
    f20e:	44 8b ad 54 ea ff ff 	mov    -0x15ac(%rbp),%r13d
    f215:	bf ff ff ff ff       	mov    $0xffffffff,%edi
    f21a:	e8 77 a3 ff ff       	callq  9596 <safe_unary_minus_func_int32_t_s>
    f21f:	85 c0                	test   %eax,%eax
    f221:	75 0d                	jne    f230 <func_66+0xd77>
    f223:	0f b7 05 46 d9 00 00 	movzwl 0xd946(%rip),%eax        # 1cb70 <g_134>
    f22a:	66 83 f8 01          	cmp    $0x1,%ax
    f22e:	7f 07                	jg     f237 <func_66+0xd7e>
    f230:	b8 01 00 00 00       	mov    $0x1,%eax
    f235:	eb 05                	jmp    f23c <func_66+0xd83>
    f237:	b8 00 00 00 00       	mov    $0x0,%eax
    f23c:	0f b7 c0             	movzwl %ax,%eax
    f23f:	44 89 ee             	mov    %r13d,%esi
    f242:	89 c7                	mov    %eax,%edi
    f244:	e8 31 ac ff ff       	callq  9e7a <safe_rshift_func_uint16_t_u_u>
    f249:	0f be c0             	movsbl %al,%eax
    f24c:	44 89 e6             	mov    %r12d,%esi
    f24f:	89 c7                	mov    %eax,%edi
    f251:	e8 98 a0 ff ff       	callq  92ee <safe_lshift_func_int8_t_s_u>
    f256:	0f be c0             	movsbl %al,%eax
    f259:	39 85 0c ea ff ff    	cmp    %eax,-0x15f4(%rbp)
    f25f:	72 07                	jb     f268 <func_66+0xdaf>
    f261:	b8 87 ff ff ff       	mov    $0xffffff87,%eax
    f266:	eb 05                	jmp    f26d <func_66+0xdb4>
    f268:	b8 86 ff ff ff       	mov    $0xffffff86,%eax
    f26d:	89 de                	mov    %ebx,%esi
    f26f:	89 c7                	mov    %eax,%edi
    f271:	e8 8f a3 ff ff       	callq  9605 <safe_sub_func_int32_t_s_s>
    f276:	48 98                	cltq   
    f278:	48 be 3b 9c 87 2b f8 	movabs $0xe2747af82b879c3b,%rsi
    f27f:	7a 74 e2 
    f282:	48 89 c7             	mov    %rax,%rdi
    f285:	e8 2a a7 ff ff       	callq  99b4 <safe_mod_func_int64_t_s_s>
    f28a:	48 83 f8 01          	cmp    $0x1,%rax
    f28e:	0f 95 c0             	setne  %al
    f291:	0f b6 c0             	movzbl %al,%eax
    f294:	89 85 48 ea ff ff    	mov    %eax,-0x15b8(%rbp)
    f29a:	48 8b 95 90 ef ff ff 	mov    -0x1070(%rbp),%rdx
    f2a1:	48 8b 85 10 ed ff ff 	mov    -0x12f0(%rbp),%rax
    f2a8:	48 89 10             	mov    %rdx,(%rax)
    f2ab:	48 8b 85 10 ed ff ff 	mov    -0x12f0(%rbp),%rax
    f2b2:	48 8b 10             	mov    (%rax),%rdx
    f2b5:	48 8b 85 18 ed ff ff 	mov    -0x12e8(%rbp),%rax
    f2bc:	48 89 10             	mov    %rdx,(%rax)
    f2bf:	8b 85 08 ea ff ff    	mov    -0x15f8(%rbp),%eax
    f2c5:	0f bf d8             	movswl %ax,%ebx
    f2c8:	0f b7 05 a1 d8 00 00 	movzwl 0xd8a1(%rip),%eax        # 1cb70 <g_134>
    f2cf:	44 0f b6 e0          	movzbl %al,%r12d
    f2d3:	8b 85 0c ea ff ff    	mov    -0x15f4(%rbp),%eax
    f2d9:	0f b7 d0             	movzwl %ax,%edx
    f2dc:	8b 8d 54 ea ff ff    	mov    -0x15ac(%rbp),%ecx
    f2e2:	48 8b 85 78 eb ff ff 	mov    -0x1488(%rbp),%rax
    f2e9:	66 89 08             	mov    %cx,(%rax)
    f2ec:	0f b7 00             	movzwl (%rax),%eax
    f2ef:	0f b7 c0             	movzwl %ax,%eax
    f2f2:	89 d6                	mov    %edx,%esi
    f2f4:	89 c7                	mov    %eax,%edi
    f2f6:	e8 93 aa ff ff       	callq  9d8e <safe_div_func_uint16_t_u_u>
    f2fb:	0f b7 d0             	movzwl %ax,%edx
    f2fe:	8b 85 54 ea ff ff    	mov    -0x15ac(%rbp),%eax
    f304:	09 c2                	or     %eax,%edx
    f306:	48 8b 85 d8 eb ff ff 	mov    -0x1428(%rbp),%rax
    f30d:	89 10                	mov    %edx,(%rax)
    f30f:	8b 00                	mov    (%rax),%eax
    f311:	41 89 c6             	mov    %eax,%r14d
    f314:	44 0f b7 ad 28 ea ff 	movzwl -0x15d8(%rbp),%r13d
    f31b:	ff 
    f31c:	48 8b 95 08 ec ff ff 	mov    -0x13f8(%rbp),%rdx
    f323:	48 8b 85 20 ed ff ff 	mov    -0x12e0(%rbp),%rax
    f32a:	48 89 10             	mov    %rdx,(%rax)
    f32d:	48 8b 05 2c 18 01 00 	mov    0x1182c(%rip),%rax        # 20b60 <g_222>
    f334:	8b 85 08 ea ff ff    	mov    -0x15f8(%rbp),%eax
    f33a:	98                   	cwtl   
    f33b:	89 c6                	mov    %eax,%esi
    f33d:	bf 5d 1a 00 00       	mov    $0x1a5d,%edi
    f342:	e8 6c a0 ff ff       	callq  93b3 <safe_add_func_int16_t_s_s>
    f347:	48 0f bf c0          	movswq %ax,%rax
    f34b:	4c 89 ee             	mov    %r13,%rsi
    f34e:	48 89 c7             	mov    %rax,%rdi
    f351:	e8 eb a4 ff ff       	callq  9841 <safe_add_func_int64_t_s_s>
    f356:	44 09 f0             	or     %r14d,%eax
    f359:	0f b6 c0             	movzbl %al,%eax
    f35c:	44 89 e6             	mov    %r12d,%esi
    f35f:	89 c7                	mov    %eax,%edi
    f361:	e8 75 a8 ff ff       	callq  9bdb <safe_div_func_uint8_t_u_u>
    f366:	89 c2                	mov    %eax,%edx
    f368:	8b 85 08 ea ff ff    	mov    -0x15f8(%rbp),%eax
    f36e:	09 d0                	or     %edx,%eax
    f370:	f7 d0                	not    %eax
    f372:	0f be c0             	movsbl %al,%eax
    f375:	be 06 00 00 00       	mov    $0x6,%esi
    f37a:	89 c7                	mov    %eax,%edi
    f37c:	e8 20 9f ff ff       	callq  92a1 <safe_lshift_func_int8_t_s_s>
    f381:	0f be d0             	movsbl %al,%edx
    f384:	8b 85 58 ea ff ff    	mov    -0x15a8(%rbp),%eax
    f38a:	31 d0                	xor    %edx,%eax
    f38c:	89 85 58 ea ff ff    	mov    %eax,-0x15a8(%rbp)
    f392:	48 8b 05 e7 fd 00 00 	mov    0xfde7(%rip),%rax        # 1f180 <g_246>
    f399:	48 85 c0             	test   %rax,%rax
    f39c:	0f 95 c0             	setne  %al
    f39f:	0f b6 c0             	movzbl %al,%eax
    f3a2:	89 de                	mov    %ebx,%esi
    f3a4:	89 c7                	mov    %eax,%edi
    f3a6:	e8 4a a0 ff ff       	callq  93f5 <safe_mul_func_int16_t_s_s>
    f3ab:	66 85 c0             	test   %ax,%ax
    f3ae:	0f 9f c0             	setg   %al
    f3b1:	0f b6 c0             	movzbl %al,%eax
    f3b4:	89 c2                	mov    %eax,%edx
    f3b6:	0f b7 05 ad 17 01 00 	movzwl 0x117ad(%rip),%eax        # 20b6a <g_250>
    f3bd:	21 d0                	and    %edx,%eax
    f3bf:	66 89 05 a4 17 01 00 	mov    %ax,0x117a4(%rip)        # 20b6a <g_250>
    f3c6:	0f b7 05 8b 17 01 00 	movzwl 0x1178b(%rip),%eax        # 20b58 <g_148>
    f3cd:	83 c0 01             	add    $0x1,%eax
    f3d0:	66 89 05 81 17 01 00 	mov    %ax,0x11781(%rip)        # 20b58 <g_148>
    f3d7:	0f b7 05 7a 17 01 00 	movzwl 0x1177a(%rip),%eax        # 20b58 <g_148>
    f3de:	66 83 f8 17          	cmp    $0x17,%ax
    f3e2:	0f 86 89 fd ff ff    	jbe    f171 <func_66+0xcb8>
    f3e8:	0f b7 05 81 d7 00 00 	movzwl 0xd781(%rip),%eax        # 1cb70 <g_134>
    f3ef:	66 85 c0             	test   %ax,%ax
    f3f2:	74 7e                	je     f472 <func_66+0xfb9>
    f3f4:	48 8d 85 48 ea ff ff 	lea    -0x15b8(%rbp),%rax
    f3fb:	48 89 85 b0 f1 ff ff 	mov    %rax,-0xe50(%rbp)
    f402:	48 8d 85 48 ea ff ff 	lea    -0x15b8(%rbp),%rax
    f409:	48 89 85 b8 f1 ff ff 	mov    %rax,-0xe48(%rbp)
    f410:	48 8d 05 c9 ce 00 00 	lea    0xcec9(%rip),%rax        # 1c2e0 <g_4+0x2a0>
    f417:	48 89 85 c0 f1 ff ff 	mov    %rax,-0xe40(%rbp)
    f41e:	48 8d 85 48 ea ff ff 	lea    -0x15b8(%rbp),%rax
    f425:	48 89 85 c8 f1 ff ff 	mov    %rax,-0xe38(%rbp)
    f42c:	48 8d 85 48 ea ff ff 	lea    -0x15b8(%rbp),%rax
    f433:	48 89 85 d0 f1 ff ff 	mov    %rax,-0xe30(%rbp)
    f43a:	48 8d 05 9f ce 00 00 	lea    0xce9f(%rip),%rax        # 1c2e0 <g_4+0x2a0>
    f441:	48 89 85 d8 f1 ff ff 	mov    %rax,-0xe28(%rbp)
    f448:	48 8d 85 48 ea ff ff 	lea    -0x15b8(%rbp),%rax
    f44f:	48 89 85 e0 f1 ff ff 	mov    %rax,-0xe20(%rbp)
    f456:	0f b6 05 1b d7 00 00 	movzbl 0xd71b(%rip),%eax        # 1cb78 <g_254>
    f45d:	83 c0 01             	add    $0x1,%eax
    f460:	88 05 12 d7 00 00    	mov    %al,0xd712(%rip)        # 1cb78 <g_254>
    f466:	48 8b 85 30 ec ff ff 	mov    -0x13d0(%rbp),%rax
    f46d:	e9 34 53 00 00       	jmpq   147a6 <func_66+0x62ed>
    f472:	48 8b 85 d8 eb ff ff 	mov    -0x1428(%rbp),%rax
    f479:	8b 95 0c ea ff ff    	mov    -0x15f4(%rbp),%edx
    f47f:	89 10                	mov    %edx,(%rax)
    f481:	48 8b 85 a8 ec ff ff 	mov    -0x1358(%rbp),%rax
    f488:	48 8b 00             	mov    (%rax),%rax
    f48b:	48 0b 85 c8 ec ff ff 	or     -0x1338(%rbp),%rax
    f492:	48 89 c2             	mov    %rax,%rdx
    f495:	48 8b 85 a8 ec ff ff 	mov    -0x1358(%rbp),%rax
    f49c:	48 89 10             	mov    %rdx,(%rax)
    f49f:	48 8b 85 a8 ec ff ff 	mov    -0x1358(%rbp),%rax
    f4a6:	48 8b 18             	mov    (%rax),%rbx
    f4a9:	0f b7 05 ba 16 01 00 	movzwl 0x116ba(%rip),%eax        # 20b6a <g_250>
    f4b0:	0f be d0             	movsbl %al,%edx
    f4b3:	48 8b b5 90 ef ff ff 	mov    -0x1070(%rbp),%rsi
    f4ba:	48 8b 85 f0 ec ff ff 	mov    -0x1310(%rbp),%rax
    f4c1:	48 8b 8d b8 ec ff ff 	mov    -0x1348(%rbp),%rcx
    f4c8:	48 89 08             	mov    %rcx,(%rax)
    f4cb:	48 8b 85 f0 ec ff ff 	mov    -0x1310(%rbp),%rax
    f4d2:	48 8b 00             	mov    (%rax),%rax
    f4d5:	48 39 c6             	cmp    %rax,%rsi
    f4d8:	0f 95 c0             	setne  %al
    f4db:	0f b6 c0             	movzbl %al,%eax
    f4de:	39 85 0c ea ff ff    	cmp    %eax,-0x15f4(%rbp)
    f4e4:	0f 95 c0             	setne  %al
    f4e7:	0f b6 c0             	movzbl %al,%eax
    f4ea:	89 d6                	mov    %edx,%esi
    f4ec:	89 c7                	mov    %eax,%edi
    f4ee:	e8 1f 9d ff ff       	callq  9212 <safe_mul_func_int8_t_s_s>
    f4f3:	48 0f be c0          	movsbq %al,%rax
    f4f7:	48 39 c3             	cmp    %rax,%rbx
    f4fa:	0f 9c c0             	setl   %al
    f4fd:	0f b6 c8             	movzbl %al,%ecx
    f500:	48 8b 85 d8 eb ff ff 	mov    -0x1428(%rbp),%rax
    f507:	8b 10                	mov    (%rax),%edx
    f509:	48 8b 85 d8 eb ff ff 	mov    -0x1428(%rbp),%rax
    f510:	09 ca                	or     %ecx,%edx
    f512:	89 10                	mov    %edx,(%rax)
    f514:	0f b6 05 5d d6 00 00 	movzbl 0xd65d(%rip),%eax        # 1cb78 <g_254>
    f51b:	0f be d8             	movsbl %al,%ebx
    f51e:	8b 85 08 ea ff ff    	mov    -0x15f8(%rbp),%eax
    f524:	48 63 d0             	movslq %eax,%rdx
    f527:	48 8b 85 80 ef ff ff 	mov    -0x1080(%rbp),%rax
    f52e:	48 85 c0             	test   %rax,%rax
    f531:	0f 94 c0             	sete   %al
    f534:	0f b6 c0             	movzbl %al,%eax
    f537:	48 89 d6             	mov    %rdx,%rsi
    f53a:	48 89 c7             	mov    %rax,%rdi
    f53d:	e8 09 ab ff ff       	callq  a04b <safe_sub_func_uint64_t_u_u>
    f542:	b8 00 00 00 00       	mov    $0x0,%eax
    f547:	48 39 85 38 ec ff ff 	cmp    %rax,-0x13c8(%rbp)
    f54e:	0f 94 c1             	sete   %cl
    f551:	48 8b 85 f0 ec ff ff 	mov    -0x1310(%rbp),%rax
    f558:	48 8b 95 88 ec ff ff 	mov    -0x1378(%rbp),%rdx
    f55f:	48 89 10             	mov    %rdx,(%rax)
    f562:	48 8b 85 f0 ec ff ff 	mov    -0x1310(%rbp),%rax
    f569:	48 8b 10             	mov    (%rax),%rdx
    f56c:	48 8b 85 80 eb ff ff 	mov    -0x1480(%rbp),%rax
    f573:	48 39 c2             	cmp    %rax,%rdx
    f576:	0f 94 c0             	sete   %al
    f579:	21 c8                	and    %ecx,%eax
    f57b:	84 c0                	test   %al,%al
    f57d:	83 bd 08 ea ff ff 00 	cmpl   $0x0,-0x15f8(%rbp)
    f584:	0f 9e c0             	setle  %al
    f587:	0f b6 c0             	movzbl %al,%eax
    f58a:	89 de                	mov    %ebx,%esi
    f58c:	89 c7                	mov    %eax,%edi
    f58e:	e8 7f 9c ff ff       	callq  9212 <safe_mul_func_int8_t_s_s>
    f593:	88 45 bf             	mov    %al,-0x41(%rbp)
    f596:	48 8b 85 88 eb ff ff 	mov    -0x1478(%rbp),%rax
    f59d:	48 85 c0             	test   %rax,%rax
    f5a0:	0f 95 c0             	setne  %al
    f5a3:	0f b6 c0             	movzbl %al,%eax
    f5a6:	48 89 85 90 eb ff ff 	mov    %rax,-0x1470(%rbp)
    f5ad:	48 8b 85 90 eb ff ff 	mov    -0x1470(%rbp),%rax
    f5b4:	48 83 f8 08          	cmp    $0x8,%rax
    f5b8:	41 0f 95 c4          	setne  %r12b
    f5bc:	48 8b 85 38 ec ff ff 	mov    -0x13c8(%rbp),%rax
    f5c3:	48 8b 00             	mov    (%rax),%rax
    f5c6:	48 85 c0             	test   %rax,%rax
    f5c9:	0f 94 c0             	sete   %al
    f5cc:	0f b6 d8             	movzbl %al,%ebx
    f5cf:	8b 85 0c ea ff ff    	mov    -0x15f4(%rbp),%eax
    f5d5:	8b 95 08 ea ff ff    	mov    -0x15f8(%rbp),%edx
    f5db:	48 63 d2             	movslq %edx,%rdx
    f5de:	b9 7f 5d 7f e3       	mov    $0xe37f5d7f,%ecx
    f5e3:	48 09 ca             	or     %rcx,%rdx
    f5e6:	48 89 c6             	mov    %rax,%rsi
    f5e9:	48 89 d7             	mov    %rdx,%rdi
    f5ec:	e8 8f aa ff ff       	callq  a080 <safe_mod_func_uint64_t_u_u>
    f5f1:	48 83 f0 01          	xor    $0x1,%rax
    f5f5:	48 89 c2             	mov    %rax,%rdx
    f5f8:	8b 85 0c ea ff ff    	mov    -0x15f4(%rbp),%eax
    f5fe:	48 39 c2             	cmp    %rax,%rdx
    f601:	0f 96 c0             	setbe  %al
    f604:	0f b6 c0             	movzbl %al,%eax
    f607:	48 39 85 c8 ec ff ff 	cmp    %rax,-0x1338(%rbp)
    f60e:	0f 9d c0             	setge  %al
    f611:	0f b6 c0             	movzbl %al,%eax
    f614:	39 c3                	cmp    %eax,%ebx
    f616:	0f 9e c0             	setle  %al
    f619:	44 09 e0             	or     %r12d,%eax
    f61c:	0f b6 c0             	movzbl %al,%eax
    f61f:	23 85 08 ea ff ff    	and    -0x15f8(%rbp),%eax
    f625:	83 f8 fe             	cmp    $0xfffffffe,%eax
    f628:	0f 9d c2             	setge  %dl
    f62b:	48 8b 85 78 eb ff ff 	mov    -0x1488(%rbp),%rax
    f632:	0f b6 d2             	movzbl %dl,%edx
    f635:	66 89 10             	mov    %dx,(%rax)
    f638:	0f b7 00             	movzwl (%rax),%eax
    f63b:	0f b7 c0             	movzwl %ax,%eax
    f63e:	be ff ff 00 00       	mov    $0xffff,%esi
    f643:	89 c7                	mov    %eax,%edi
    f645:	e8 44 a7 ff ff       	callq  9d8e <safe_div_func_uint16_t_u_u>
    f64a:	66 85 c0             	test   %ax,%ax
    f64d:	0f 84 22 01 00 00    	je     f775 <func_66+0x12bc>
    f653:	48 c7 85 08 ed ff ff 	movq   $0x0,-0x12f8(%rbp)
    f65a:	00 00 00 00 
    f65e:	c7 85 5c ea ff ff 00 	movl   $0x0,-0x15a4(%rbp)
    f665:	00 00 00 
    f668:	eb 1e                	jmp    f688 <func_66+0x11cf>
    f66a:	8b 85 5c ea ff ff    	mov    -0x15a4(%rbp),%eax
    f670:	48 98                	cltq   
    f672:	48 8d 95 d8 eb ff ff 	lea    -0x1428(%rbp),%rdx
    f679:	48 89 94 c5 b0 f1 ff 	mov    %rdx,-0xe50(%rbp,%rax,8)
    f680:	ff 
    f681:	83 85 5c ea ff ff 01 	addl   $0x1,-0x15a4(%rbp)
    f688:	83 bd 5c ea ff ff 02 	cmpl   $0x2,-0x15a4(%rbp)
    f68f:	7e d9                	jle    f66a <func_66+0x11b1>
    f691:	48 8b 85 d8 eb ff ff 	mov    -0x1428(%rbp),%rax
    f698:	8b 08                	mov    (%rax),%ecx
    f69a:	8b 95 58 ea ff ff    	mov    -0x15a8(%rbp),%edx
    f6a0:	48 8b 85 d8 eb ff ff 	mov    -0x1428(%rbp),%rax
    f6a7:	09 ca                	or     %ecx,%edx
    f6a9:	89 10                	mov    %edx,(%rax)
    f6ab:	48 8b 05 ee d3 00 00 	mov    0xd3ee(%rip),%rax        # 1caa0 <g_77+0x6c0>
    f6b2:	89 c6                	mov    %eax,%esi
    f6b4:	bf ff ff 00 00       	mov    $0xffff,%edi
    f6b9:	e8 8a a7 ff ff       	callq  9e48 <safe_rshift_func_uint16_t_u_s>
    f6be:	0f b7 d0             	movzwl %ax,%edx
    f6c1:	8b 05 d9 cc 00 00    	mov    0xccd9(%rip),%eax        # 1c3a0 <g_34>
    f6c7:	83 f8 08             	cmp    $0x8,%eax
    f6ca:	0f 96 c0             	setbe  %al
    f6cd:	0f b6 c0             	movzbl %al,%eax
    f6d0:	89 d6                	mov    %edx,%esi
    f6d2:	89 c7                	mov    %eax,%edi
    f6d4:	e8 2c 9f ff ff       	callq  9605 <safe_sub_func_int32_t_s_s>
    f6d9:	89 c2                	mov    %eax,%edx
    f6db:	48 8b 05 a6 fa 00 00 	mov    0xfaa6(%rip),%rax        # 1f188 <g_267>
    f6e2:	8b 08                	mov    (%rax),%ecx
    f6e4:	48 8b 05 9d fa 00 00 	mov    0xfa9d(%rip),%rax        # 1f188 <g_267>
    f6eb:	21 ca                	and    %ecx,%edx
    f6ed:	89 10                	mov    %edx,(%rax)
    f6ef:	48 8b 85 38 ec ff ff 	mov    -0x13c8(%rbp),%rax
    f6f6:	48 8d 95 58 ea ff ff 	lea    -0x15a8(%rbp),%rdx
    f6fd:	48 89 10             	mov    %rdx,(%rax)
    f700:	83 bd 08 ea ff ff 00 	cmpl   $0x0,-0x15f8(%rbp)
    f707:	75 47                	jne    f750 <func_66+0x1297>
    f709:	48 8b 85 b0 ec ff ff 	mov    -0x1350(%rbp),%rax
    f710:	48 8b 00             	mov    (%rax),%rax
    f713:	48 89 05 6e fa 00 00 	mov    %rax,0xfa6e(%rip)        # 1f188 <g_267>
    f71a:	48 8b 05 67 fa 00 00 	mov    0xfa67(%rip),%rax        # 1f188 <g_267>
    f721:	48 8d 95 40 ea ff ff 	lea    -0x15c0(%rbp),%rdx
    f728:	48 89 95 18 ec ff ff 	mov    %rdx,-0x13e8(%rbp)
    f72f:	48 39 85 18 ec ff ff 	cmp    %rax,-0x13e8(%rbp)
    f736:	0f 95 c0             	setne  %al
    f739:	0f b6 c0             	movzbl %al,%eax
    f73c:	f7 d0                	not    %eax
    f73e:	98                   	cwtl   
    f73f:	be 04 00 00 00       	mov    $0x4,%esi
    f744:	89 c7                	mov    %eax,%edi
    f746:	e8 96 9d ff ff       	callq  94e1 <safe_lshift_func_int16_t_s_u>
    f74b:	66 85 c0             	test   %ax,%ax
    f74e:	74 07                	je     f757 <func_66+0x129e>
    f750:	b9 01 00 00 00       	mov    $0x1,%ecx
    f755:	eb 05                	jmp    f75c <func_66+0x12a3>
    f757:	b9 00 00 00 00       	mov    $0x0,%ecx
    f75c:	48 8b 85 68 eb ff ff 	mov    -0x1498(%rbp),%rax
    f763:	8b 10                	mov    (%rax),%edx
    f765:	48 8b 85 68 eb ff ff 	mov    -0x1498(%rbp),%rax
    f76c:	09 ca                	or     %ecx,%edx
    f76e:	89 10                	mov    %edx,(%rax)
    f770:	e9 76 0d 00 00       	jmpq   104eb <func_66+0x2032>
    f775:	48 8d 85 00 ec ff ff 	lea    -0x1400(%rbp),%rax
    f77c:	48 89 85 00 ed ff ff 	mov    %rax,-0x1300(%rbp)
    f783:	48 8b 95 00 ec ff ff 	mov    -0x1400(%rbp),%rdx
    f78a:	48 8b 85 00 ed ff ff 	mov    -0x1300(%rbp),%rax
    f791:	48 89 10             	mov    %rdx,(%rax)
    f794:	e9 52 0d 00 00       	jmpq   104eb <func_66+0x2032>
    f799:	48 c7 85 10 fa ff ff 	movq   $0x0,-0x5f0(%rbp)
    f7a0:	00 00 00 00 
    f7a4:	48 8d 05 1d c9 00 00 	lea    0xc91d(%rip),%rax        # 1c0c8 <g_4+0x88>
    f7ab:	48 89 85 18 fa ff ff 	mov    %rax,-0x5e8(%rbp)
    f7b2:	48 c7 85 20 fa ff ff 	movq   $0x0,-0x5e0(%rbp)
    f7b9:	00 00 00 00 
    f7bd:	48 8d 85 40 ea ff ff 	lea    -0x15c0(%rbp),%rax
    f7c4:	48 89 85 28 fa ff ff 	mov    %rax,-0x5d8(%rbp)
    f7cb:	48 8d 05 76 13 01 00 	lea    0x11376(%rip),%rax        # 20b48 <g_41>
    f7d2:	48 89 85 30 fa ff ff 	mov    %rax,-0x5d0(%rbp)
    f7d9:	48 8d 85 44 ea ff ff 	lea    -0x15bc(%rbp),%rax
    f7e0:	48 89 85 38 fa ff ff 	mov    %rax,-0x5c8(%rbp)
    f7e7:	48 8d 85 34 ea ff ff 	lea    -0x15cc(%rbp),%rax
    f7ee:	48 89 85 40 fa ff ff 	mov    %rax,-0x5c0(%rbp)
    f7f5:	48 8d 05 4c 13 01 00 	lea    0x1134c(%rip),%rax        # 20b48 <g_41>
    f7fc:	48 89 85 48 fa ff ff 	mov    %rax,-0x5b8(%rbp)
    f803:	48 8d 05 3e cb 00 00 	lea    0xcb3e(%rip),%rax        # 1c348 <g_4+0x308>
    f80a:	48 89 85 50 fa ff ff 	mov    %rax,-0x5b0(%rbp)
    f811:	48 8d 05 30 13 01 00 	lea    0x11330(%rip),%rax        # 20b48 <g_41>
    f818:	48 89 85 58 fa ff ff 	mov    %rax,-0x5a8(%rbp)
    f81f:	48 8d 05 22 13 01 00 	lea    0x11322(%rip),%rax        # 20b48 <g_41>
    f826:	48 89 85 60 fa ff ff 	mov    %rax,-0x5a0(%rbp)
    f82d:	48 8d 05 14 13 01 00 	lea    0x11314(%rip),%rax        # 20b48 <g_41>
    f834:	48 89 85 68 fa ff ff 	mov    %rax,-0x598(%rbp)
    f83b:	48 8d 85 34 ea ff ff 	lea    -0x15cc(%rbp),%rax
    f842:	48 89 85 70 fa ff ff 	mov    %rax,-0x590(%rbp)
    f849:	48 8d 85 50 ea ff ff 	lea    -0x15b0(%rbp),%rax
    f850:	48 89 85 78 fa ff ff 	mov    %rax,-0x588(%rbp)
    f857:	48 8d 85 34 ea ff ff 	lea    -0x15cc(%rbp),%rax
    f85e:	48 89 85 80 fa ff ff 	mov    %rax,-0x580(%rbp)
    f865:	48 8d 05 dc 12 01 00 	lea    0x112dc(%rip),%rax        # 20b48 <g_41>
    f86c:	48 89 85 88 fa ff ff 	mov    %rax,-0x578(%rbp)
    f873:	48 8d 05 ce 12 01 00 	lea    0x112ce(%rip),%rax        # 20b48 <g_41>
    f87a:	48 89 85 90 fa ff ff 	mov    %rax,-0x570(%rbp)
    f881:	48 8d 05 c0 12 01 00 	lea    0x112c0(%rip),%rax        # 20b48 <g_41>
    f888:	48 89 85 98 fa ff ff 	mov    %rax,-0x568(%rbp)
    f88f:	48 8d 05 b2 12 01 00 	lea    0x112b2(%rip),%rax        # 20b48 <g_41>
    f896:	48 89 85 a0 fa ff ff 	mov    %rax,-0x560(%rbp)
    f89d:	48 8d 05 24 c8 00 00 	lea    0xc824(%rip),%rax        # 1c0c8 <g_4+0x88>
    f8a4:	48 89 85 a8 fa ff ff 	mov    %rax,-0x558(%rbp)
    f8ab:	48 8d 85 40 ea ff ff 	lea    -0x15c0(%rbp),%rax
    f8b2:	48 89 85 b0 fa ff ff 	mov    %rax,-0x550(%rbp)
    f8b9:	48 8d 05 88 12 01 00 	lea    0x11288(%rip),%rax        # 20b48 <g_41>
    f8c0:	48 89 85 b8 fa ff ff 	mov    %rax,-0x548(%rbp)
    f8c7:	48 c7 85 c0 fa ff ff 	movq   $0x0,-0x540(%rbp)
    f8ce:	00 00 00 00 
    f8d2:	48 8d 05 6f 12 01 00 	lea    0x1126f(%rip),%rax        # 20b48 <g_41>
    f8d9:	48 89 85 c8 fa ff ff 	mov    %rax,-0x538(%rbp)
    f8e0:	48 8d 05 61 ca 00 00 	lea    0xca61(%rip),%rax        # 1c348 <g_4+0x308>
    f8e7:	48 89 85 d0 fa ff ff 	mov    %rax,-0x530(%rbp)
    f8ee:	48 8d 85 50 ea ff ff 	lea    -0x15b0(%rbp),%rax
    f8f5:	48 89 85 d8 fa ff ff 	mov    %rax,-0x528(%rbp)
    f8fc:	48 8d 05 45 ca 00 00 	lea    0xca45(%rip),%rax        # 1c348 <g_4+0x308>
    f903:	48 89 85 e0 fa ff ff 	mov    %rax,-0x520(%rbp)
    f90a:	48 8d 05 37 12 01 00 	lea    0x11237(%rip),%rax        # 20b48 <g_41>
    f911:	48 89 85 e8 fa ff ff 	mov    %rax,-0x518(%rbp)
    f918:	48 c7 85 f0 fa ff ff 	movq   $0x0,-0x510(%rbp)
    f91f:	00 00 00 00 
    f923:	48 8d 05 1e 12 01 00 	lea    0x1121e(%rip),%rax        # 20b48 <g_41>
    f92a:	48 89 85 f8 fa ff ff 	mov    %rax,-0x508(%rbp)
    f931:	48 8d 85 34 ea ff ff 	lea    -0x15cc(%rbp),%rax
    f938:	48 89 85 00 fb ff ff 	mov    %rax,-0x500(%rbp)
    f93f:	48 8d 05 02 12 01 00 	lea    0x11202(%rip),%rax        # 20b48 <g_41>
    f946:	48 89 85 08 fb ff ff 	mov    %rax,-0x4f8(%rbp)
    f94d:	48 8d 85 50 ea ff ff 	lea    -0x15b0(%rbp),%rax
    f954:	48 89 85 10 fb ff ff 	mov    %rax,-0x4f0(%rbp)
    f95b:	48 8d 85 44 ea ff ff 	lea    -0x15bc(%rbp),%rax
    f962:	48 89 85 18 fb ff ff 	mov    %rax,-0x4e8(%rbp)
    f969:	48 8d 85 44 ea ff ff 	lea    -0x15bc(%rbp),%rax
    f970:	48 89 85 20 fb ff ff 	mov    %rax,-0x4e0(%rbp)
    f977:	48 8d 85 40 ea ff ff 	lea    -0x15c0(%rbp),%rax
    f97e:	48 89 85 28 fb ff ff 	mov    %rax,-0x4d8(%rbp)
    f985:	48 8d 05 bc 11 01 00 	lea    0x111bc(%rip),%rax        # 20b48 <g_41>
    f98c:	48 89 85 30 fb ff ff 	mov    %rax,-0x4d0(%rbp)
    f993:	48 8d 05 2e c7 00 00 	lea    0xc72e(%rip),%rax        # 1c0c8 <g_4+0x88>
    f99a:	48 89 85 38 fb ff ff 	mov    %rax,-0x4c8(%rbp)
    f9a1:	48 8d 05 a0 11 01 00 	lea    0x111a0(%rip),%rax        # 20b48 <g_41>
    f9a8:	48 89 85 40 fb ff ff 	mov    %rax,-0x4c0(%rbp)
    f9af:	48 8d 85 40 ea ff ff 	lea    -0x15c0(%rbp),%rax
    f9b6:	48 89 85 48 fb ff ff 	mov    %rax,-0x4b8(%rbp)
    f9bd:	48 8d 85 50 ea ff ff 	lea    -0x15b0(%rbp),%rax
    f9c4:	48 89 85 50 fb ff ff 	mov    %rax,-0x4b0(%rbp)
    f9cb:	48 8d 05 76 11 01 00 	lea    0x11176(%rip),%rax        # 20b48 <g_41>
    f9d2:	48 89 85 58 fb ff ff 	mov    %rax,-0x4a8(%rbp)
    f9d9:	48 8d 05 68 11 01 00 	lea    0x11168(%rip),%rax        # 20b48 <g_41>
    f9e0:	48 89 85 60 fb ff ff 	mov    %rax,-0x4a0(%rbp)
    f9e7:	48 8d 05 5a 11 01 00 	lea    0x1115a(%rip),%rax        # 20b48 <g_41>
    f9ee:	48 89 85 68 fb ff ff 	mov    %rax,-0x498(%rbp)
    f9f5:	48 8d 85 50 ea ff ff 	lea    -0x15b0(%rbp),%rax
    f9fc:	48 89 85 70 fb ff ff 	mov    %rax,-0x490(%rbp)
    fa03:	48 8d 85 40 ea ff ff 	lea    -0x15c0(%rbp),%rax
    fa0a:	48 89 85 78 fb ff ff 	mov    %rax,-0x488(%rbp)
    fa11:	48 8d 85 34 ea ff ff 	lea    -0x15cc(%rbp),%rax
    fa18:	48 89 85 80 fb ff ff 	mov    %rax,-0x480(%rbp)
    fa1f:	48 8d 85 50 ea ff ff 	lea    -0x15b0(%rbp),%rax
    fa26:	48 89 85 88 fb ff ff 	mov    %rax,-0x478(%rbp)
    fa2d:	48 8d 85 40 ea ff ff 	lea    -0x15c0(%rbp),%rax
    fa34:	48 89 85 90 fb ff ff 	mov    %rax,-0x470(%rbp)
    fa3b:	48 8d 85 44 ea ff ff 	lea    -0x15bc(%rbp),%rax
    fa42:	48 89 85 98 fb ff ff 	mov    %rax,-0x468(%rbp)
    fa49:	48 8d 85 34 ea ff ff 	lea    -0x15cc(%rbp),%rax
    fa50:	48 89 85 a0 fb ff ff 	mov    %rax,-0x460(%rbp)
    fa57:	48 8d 05 6a c6 00 00 	lea    0xc66a(%rip),%rax        # 1c0c8 <g_4+0x88>
    fa5e:	48 89 85 a8 fb ff ff 	mov    %rax,-0x458(%rbp)
    fa65:	48 8d 85 44 ea ff ff 	lea    -0x15bc(%rbp),%rax
    fa6c:	48 89 85 b0 fb ff ff 	mov    %rax,-0x450(%rbp)
    fa73:	48 8d 85 50 ea ff ff 	lea    -0x15b0(%rbp),%rax
    fa7a:	48 89 85 b8 fb ff ff 	mov    %rax,-0x448(%rbp)
    fa81:	48 8d 85 50 ea ff ff 	lea    -0x15b0(%rbp),%rax
    fa88:	48 89 85 c0 fb ff ff 	mov    %rax,-0x440(%rbp)
    fa8f:	48 8d 85 50 ea ff ff 	lea    -0x15b0(%rbp),%rax
    fa96:	48 89 85 c8 fb ff ff 	mov    %rax,-0x438(%rbp)
    fa9d:	48 8d 85 44 ea ff ff 	lea    -0x15bc(%rbp),%rax
    faa4:	48 89 85 d0 fb ff ff 	mov    %rax,-0x430(%rbp)
    faab:	48 8d 05 16 c6 00 00 	lea    0xc616(%rip),%rax        # 1c0c8 <g_4+0x88>
    fab2:	48 89 85 d8 fb ff ff 	mov    %rax,-0x428(%rbp)
    fab9:	48 8d 85 34 ea ff ff 	lea    -0x15cc(%rbp),%rax
    fac0:	48 89 85 e0 fb ff ff 	mov    %rax,-0x420(%rbp)
    fac7:	48 8d 85 44 ea ff ff 	lea    -0x15bc(%rbp),%rax
    face:	48 89 85 e8 fb ff ff 	mov    %rax,-0x418(%rbp)
    fad5:	48 8d 85 40 ea ff ff 	lea    -0x15c0(%rbp),%rax
    fadc:	48 89 85 f0 fb ff ff 	mov    %rax,-0x410(%rbp)
    fae3:	48 8d 85 50 ea ff ff 	lea    -0x15b0(%rbp),%rax
    faea:	48 89 85 f8 fb ff ff 	mov    %rax,-0x408(%rbp)
    faf1:	48 8d 85 34 ea ff ff 	lea    -0x15cc(%rbp),%rax
    faf8:	48 89 85 00 fc ff ff 	mov    %rax,-0x400(%rbp)
    faff:	48 8d 85 40 ea ff ff 	lea    -0x15c0(%rbp),%rax
    fb06:	48 89 85 08 fc ff ff 	mov    %rax,-0x3f8(%rbp)
    fb0d:	48 8d 85 50 ea ff ff 	lea    -0x15b0(%rbp),%rax
    fb14:	48 89 85 10 fc ff ff 	mov    %rax,-0x3f0(%rbp)
    fb1b:	48 8d 05 26 10 01 00 	lea    0x11026(%rip),%rax        # 20b48 <g_41>
    fb22:	48 89 85 18 fc ff ff 	mov    %rax,-0x3e8(%rbp)
    fb29:	48 8d 05 18 10 01 00 	lea    0x11018(%rip),%rax        # 20b48 <g_41>
    fb30:	48 89 85 20 fc ff ff 	mov    %rax,-0x3e0(%rbp)
    fb37:	48 8d 05 0a 10 01 00 	lea    0x1100a(%rip),%rax        # 20b48 <g_41>
    fb3e:	48 89 85 28 fc ff ff 	mov    %rax,-0x3d8(%rbp)
    fb45:	48 8d 85 50 ea ff ff 	lea    -0x15b0(%rbp),%rax
    fb4c:	48 89 85 30 fc ff ff 	mov    %rax,-0x3d0(%rbp)
    fb53:	48 8d 85 40 ea ff ff 	lea    -0x15c0(%rbp),%rax
    fb5a:	48 89 85 38 fc ff ff 	mov    %rax,-0x3c8(%rbp)
    fb61:	48 8d 05 e0 0f 01 00 	lea    0x10fe0(%rip),%rax        # 20b48 <g_41>
    fb68:	48 89 85 40 fc ff ff 	mov    %rax,-0x3c0(%rbp)
    fb6f:	48 8d 05 52 c5 00 00 	lea    0xc552(%rip),%rax        # 1c0c8 <g_4+0x88>
    fb76:	48 89 85 48 fc ff ff 	mov    %rax,-0x3b8(%rbp)
    fb7d:	48 8d 05 c4 0f 01 00 	lea    0x10fc4(%rip),%rax        # 20b48 <g_41>
    fb84:	48 89 85 50 fc ff ff 	mov    %rax,-0x3b0(%rbp)
    fb8b:	48 8d 85 40 ea ff ff 	lea    -0x15c0(%rbp),%rax
    fb92:	48 89 85 58 fc ff ff 	mov    %rax,-0x3a8(%rbp)
    fb99:	48 8d 85 44 ea ff ff 	lea    -0x15bc(%rbp),%rax
    fba0:	48 89 85 60 fc ff ff 	mov    %rax,-0x3a0(%rbp)
    fba7:	48 8d 85 44 ea ff ff 	lea    -0x15bc(%rbp),%rax
    fbae:	48 89 85 68 fc ff ff 	mov    %rax,-0x398(%rbp)
    fbb5:	48 8d 85 50 ea ff ff 	lea    -0x15b0(%rbp),%rax
    fbbc:	48 89 85 70 fc ff ff 	mov    %rax,-0x390(%rbp)
    fbc3:	48 8d 05 7e 0f 01 00 	lea    0x10f7e(%rip),%rax        # 20b48 <g_41>
    fbca:	48 89 85 78 fc ff ff 	mov    %rax,-0x388(%rbp)
    fbd1:	48 8d 85 34 ea ff ff 	lea    -0x15cc(%rbp),%rax
    fbd8:	48 89 85 80 fc ff ff 	mov    %rax,-0x380(%rbp)
    fbdf:	48 8d 05 62 0f 01 00 	lea    0x10f62(%rip),%rax        # 20b48 <g_41>
    fbe6:	48 89 85 88 fc ff ff 	mov    %rax,-0x378(%rbp)
    fbed:	48 c7 85 90 fc ff ff 	movq   $0x0,-0x370(%rbp)
    fbf4:	00 00 00 00 
    fbf8:	48 8d 05 49 0f 01 00 	lea    0x10f49(%rip),%rax        # 20b48 <g_41>
    fbff:	48 89 85 98 fc ff ff 	mov    %rax,-0x368(%rbp)
    fc06:	48 8d 05 3b c7 00 00 	lea    0xc73b(%rip),%rax        # 1c348 <g_4+0x308>
    fc0d:	48 89 85 a0 fc ff ff 	mov    %rax,-0x360(%rbp)
    fc14:	48 8d 85 50 ea ff ff 	lea    -0x15b0(%rbp),%rax
    fc1b:	48 89 85 a8 fc ff ff 	mov    %rax,-0x358(%rbp)
    fc22:	48 8d 05 1f c7 00 00 	lea    0xc71f(%rip),%rax        # 1c348 <g_4+0x308>
    fc29:	48 89 85 b0 fc ff ff 	mov    %rax,-0x350(%rbp)
    fc30:	48 8d 05 11 0f 01 00 	lea    0x10f11(%rip),%rax        # 20b48 <g_41>
    fc37:	48 89 85 b8 fc ff ff 	mov    %rax,-0x348(%rbp)
    fc3e:	48 c7 85 c0 fc ff ff 	movq   $0x0,-0x340(%rbp)
    fc45:	00 00 00 00 
    fc49:	48 8d 05 f8 0e 01 00 	lea    0x10ef8(%rip),%rax        # 20b48 <g_41>
    fc50:	48 89 85 c8 fc ff ff 	mov    %rax,-0x338(%rbp)
    fc57:	48 8d 85 40 ea ff ff 	lea    -0x15c0(%rbp),%rax
    fc5e:	48 89 85 d0 fc ff ff 	mov    %rax,-0x330(%rbp)
    fc65:	48 8d 05 5c c4 00 00 	lea    0xc45c(%rip),%rax        # 1c0c8 <g_4+0x88>
    fc6c:	48 89 85 d8 fc ff ff 	mov    %rax,-0x328(%rbp)
    fc73:	48 8d 05 ce 0e 01 00 	lea    0x10ece(%rip),%rax        # 20b48 <g_41>
    fc7a:	48 89 85 e0 fc ff ff 	mov    %rax,-0x320(%rbp)
    fc81:	48 8d 05 c0 0e 01 00 	lea    0x10ec0(%rip),%rax        # 20b48 <g_41>
    fc88:	48 89 85 e8 fc ff ff 	mov    %rax,-0x318(%rbp)
    fc8f:	48 8d 05 b2 0e 01 00 	lea    0x10eb2(%rip),%rax        # 20b48 <g_41>
    fc96:	48 89 85 f0 fc ff ff 	mov    %rax,-0x310(%rbp)
    fc9d:	48 8d 05 a4 0e 01 00 	lea    0x10ea4(%rip),%rax        # 20b48 <g_41>
    fca4:	48 89 85 f8 fc ff ff 	mov    %rax,-0x308(%rbp)
    fcab:	48 8d 85 34 ea ff ff 	lea    -0x15cc(%rbp),%rax
    fcb2:	48 89 85 00 fd ff ff 	mov    %rax,-0x300(%rbp)
    fcb9:	48 8d 85 50 ea ff ff 	lea    -0x15b0(%rbp),%rax
    fcc0:	48 89 85 08 fd ff ff 	mov    %rax,-0x2f8(%rbp)
    fcc7:	48 8d 85 34 ea ff ff 	lea    -0x15cc(%rbp),%rax
    fcce:	48 89 85 10 fd ff ff 	mov    %rax,-0x2f0(%rbp)
    fcd5:	48 8d 05 6c 0e 01 00 	lea    0x10e6c(%rip),%rax        # 20b48 <g_41>
    fcdc:	48 89 85 18 fd ff ff 	mov    %rax,-0x2e8(%rbp)
    fce3:	48 8d 05 5e 0e 01 00 	lea    0x10e5e(%rip),%rax        # 20b48 <g_41>
    fcea:	48 89 85 20 fd ff ff 	mov    %rax,-0x2e0(%rbp)
    fcf1:	48 8d 05 50 0e 01 00 	lea    0x10e50(%rip),%rax        # 20b48 <g_41>
    fcf8:	48 89 85 28 fd ff ff 	mov    %rax,-0x2d8(%rbp)
    fcff:	48 8d 05 42 c6 00 00 	lea    0xc642(%rip),%rax        # 1c348 <g_4+0x308>
    fd06:	48 89 85 30 fd ff ff 	mov    %rax,-0x2d0(%rbp)
    fd0d:	48 8d 05 34 0e 01 00 	lea    0x10e34(%rip),%rax        # 20b48 <g_41>
    fd14:	48 89 85 38 fd ff ff 	mov    %rax,-0x2c8(%rbp)
    fd1b:	48 8d 85 34 ea ff ff 	lea    -0x15cc(%rbp),%rax
    fd22:	48 89 85 40 fd ff ff 	mov    %rax,-0x2c0(%rbp)
    fd29:	48 8d 85 44 ea ff ff 	lea    -0x15bc(%rbp),%rax
    fd30:	48 89 85 48 fd ff ff 	mov    %rax,-0x2b8(%rbp)
    fd37:	48 8d 05 0a 0e 01 00 	lea    0x10e0a(%rip),%rax        # 20b48 <g_41>
    fd3e:	48 89 85 50 fd ff ff 	mov    %rax,-0x2b0(%rbp)
    fd45:	48 8d 85 40 ea ff ff 	lea    -0x15c0(%rbp),%rax
    fd4c:	48 89 85 58 fd ff ff 	mov    %rax,-0x2a8(%rbp)
    fd53:	48 c7 85 60 fd ff ff 	movq   $0x0,-0x2a0(%rbp)
    fd5a:	00 00 00 00 
    fd5e:	48 8d 05 63 c3 00 00 	lea    0xc363(%rip),%rax        # 1c0c8 <g_4+0x88>
    fd65:	48 89 85 68 fd ff ff 	mov    %rax,-0x298(%rbp)
    fd6c:	48 c7 85 70 fd ff ff 	movq   $0x0,-0x290(%rbp)
    fd73:	00 00 00 00 
    fd77:	48 8d 85 40 ea ff ff 	lea    -0x15c0(%rbp),%rax
    fd7e:	48 89 85 78 fd ff ff 	mov    %rax,-0x288(%rbp)
    fd85:	48 c7 85 80 fd ff ff 	movq   $0x0,-0x280(%rbp)
    fd8c:	00 00 00 00 
    fd90:	48 8d 05 b1 0d 01 00 	lea    0x10db1(%rip),%rax        # 20b48 <g_41>
    fd97:	48 89 85 88 fd ff ff 	mov    %rax,-0x278(%rbp)
    fd9e:	48 8d 85 44 ea ff ff 	lea    -0x15bc(%rbp),%rax
    fda5:	48 89 85 90 fd ff ff 	mov    %rax,-0x270(%rbp)
    fdac:	48 8d 05 95 0d 01 00 	lea    0x10d95(%rip),%rax        # 20b48 <g_41>
    fdb3:	48 89 85 98 fd ff ff 	mov    %rax,-0x268(%rbp)
    fdba:	48 c7 85 a0 fd ff ff 	movq   $0x0,-0x260(%rbp)
    fdc1:	00 00 00 00 
    fdc5:	48 8d 85 40 ea ff ff 	lea    -0x15c0(%rbp),%rax
    fdcc:	48 89 85 a8 fd ff ff 	mov    %rax,-0x258(%rbp)
    fdd3:	48 8d 85 50 ea ff ff 	lea    -0x15b0(%rbp),%rax
    fdda:	48 89 85 b0 fd ff ff 	mov    %rax,-0x250(%rbp)
    fde1:	48 8d 85 50 ea ff ff 	lea    -0x15b0(%rbp),%rax
    fde8:	48 89 85 b8 fd ff ff 	mov    %rax,-0x248(%rbp)
    fdef:	48 8d 05 52 0d 01 00 	lea    0x10d52(%rip),%rax        # 20b48 <g_41>
    fdf6:	48 89 85 c0 fd ff ff 	mov    %rax,-0x240(%rbp)
    fdfd:	48 8d 85 44 ea ff ff 	lea    -0x15bc(%rbp),%rax
    fe04:	48 89 85 c8 fd ff ff 	mov    %rax,-0x238(%rbp)
    fe0b:	48 8d 05 36 c5 00 00 	lea    0xc536(%rip),%rax        # 1c348 <g_4+0x308>
    fe12:	48 89 85 d0 fd ff ff 	mov    %rax,-0x230(%rbp)
    fe19:	48 8d 05 a8 c2 00 00 	lea    0xc2a8(%rip),%rax        # 1c0c8 <g_4+0x88>
    fe20:	48 89 85 d8 fd ff ff 	mov    %rax,-0x228(%rbp)
    fe27:	48 8d 05 1a 0d 01 00 	lea    0x10d1a(%rip),%rax        # 20b48 <g_41>
    fe2e:	48 89 85 e0 fd ff ff 	mov    %rax,-0x220(%rbp)
    fe35:	48 8d 85 50 ea ff ff 	lea    -0x15b0(%rbp),%rax
    fe3c:	48 89 85 e8 fd ff ff 	mov    %rax,-0x218(%rbp)
    fe43:	48 8d 85 50 ea ff ff 	lea    -0x15b0(%rbp),%rax
    fe4a:	48 89 85 f0 fd ff ff 	mov    %rax,-0x210(%rbp)
    fe51:	48 8d 85 50 ea ff ff 	lea    -0x15b0(%rbp),%rax
    fe58:	48 89 85 f8 fd ff ff 	mov    %rax,-0x208(%rbp)
    fe5f:	48 8d 05 e2 0c 01 00 	lea    0x10ce2(%rip),%rax        # 20b48 <g_41>
    fe66:	48 89 85 00 fe ff ff 	mov    %rax,-0x200(%rbp)
    fe6d:	48 8d 05 54 c2 00 00 	lea    0xc254(%rip),%rax        # 1c0c8 <g_4+0x88>
    fe74:	48 89 85 08 fe ff ff 	mov    %rax,-0x1f8(%rbp)
    fe7b:	48 8d 05 c6 c4 00 00 	lea    0xc4c6(%rip),%rax        # 1c348 <g_4+0x308>
    fe82:	48 89 85 10 fe ff ff 	mov    %rax,-0x1f0(%rbp)
    fe89:	48 8d 85 44 ea ff ff 	lea    -0x15bc(%rbp),%rax
    fe90:	48 89 85 18 fe ff ff 	mov    %rax,-0x1e8(%rbp)
    fe97:	48 8d 05 aa 0c 01 00 	lea    0x10caa(%rip),%rax        # 20b48 <g_41>
    fe9e:	48 89 85 20 fe ff ff 	mov    %rax,-0x1e0(%rbp)
    fea5:	48 8d 85 50 ea ff ff 	lea    -0x15b0(%rbp),%rax
    feac:	48 89 85 28 fe ff ff 	mov    %rax,-0x1d8(%rbp)
    feb3:	48 8d 85 50 ea ff ff 	lea    -0x15b0(%rbp),%rax
    feba:	48 89 85 30 fe ff ff 	mov    %rax,-0x1d0(%rbp)
    fec1:	48 8d 85 40 ea ff ff 	lea    -0x15c0(%rbp),%rax
    fec8:	48 89 85 38 fe ff ff 	mov    %rax,-0x1c8(%rbp)
    fecf:	48 c7 85 40 fe ff ff 	movq   $0x0,-0x1c0(%rbp)
    fed6:	00 00 00 00 
    feda:	48 8d 05 67 0c 01 00 	lea    0x10c67(%rip),%rax        # 20b48 <g_41>
    fee1:	48 89 85 48 fe ff ff 	mov    %rax,-0x1b8(%rbp)
    fee8:	48 8d 85 44 ea ff ff 	lea    -0x15bc(%rbp),%rax
    feef:	48 89 85 50 fe ff ff 	mov    %rax,-0x1b0(%rbp)
    fef6:	48 8d 05 4b 0c 01 00 	lea    0x10c4b(%rip),%rax        # 20b48 <g_41>
    fefd:	48 89 85 58 fe ff ff 	mov    %rax,-0x1a8(%rbp)
    ff04:	48 c7 85 60 fe ff ff 	movq   $0x0,-0x1a0(%rbp)
    ff0b:	00 00 00 00 
    ff0f:	48 8d 85 40 ea ff ff 	lea    -0x15c0(%rbp),%rax
    ff16:	48 89 85 68 fe ff ff 	mov    %rax,-0x198(%rbp)
    ff1d:	48 c7 85 70 fe ff ff 	movq   $0x0,-0x190(%rbp)
    ff24:	00 00 00 00 
    ff28:	48 8d 05 99 c1 00 00 	lea    0xc199(%rip),%rax        # 1c0c8 <g_4+0x88>
    ff2f:	48 89 85 78 fe ff ff 	mov    %rax,-0x188(%rbp)
    ff36:	48 c7 85 80 fe ff ff 	movq   $0x0,-0x180(%rbp)
    ff3d:	00 00 00 00 
    ff41:	48 8d 85 40 ea ff ff 	lea    -0x15c0(%rbp),%rax
    ff48:	48 89 85 88 fe ff ff 	mov    %rax,-0x178(%rbp)
    ff4f:	48 8d 05 f2 0b 01 00 	lea    0x10bf2(%rip),%rax        # 20b48 <g_41>
    ff56:	48 89 85 90 fe ff ff 	mov    %rax,-0x170(%rbp)
    ff5d:	48 8d 85 44 ea ff ff 	lea    -0x15bc(%rbp),%rax
    ff64:	48 89 85 98 fe ff ff 	mov    %rax,-0x168(%rbp)
    ff6b:	48 8d 85 34 ea ff ff 	lea    -0x15cc(%rbp),%rax
    ff72:	48 89 85 a0 fe ff ff 	mov    %rax,-0x160(%rbp)
    ff79:	48 8d 05 c8 0b 01 00 	lea    0x10bc8(%rip),%rax        # 20b48 <g_41>
    ff80:	48 89 85 a8 fe ff ff 	mov    %rax,-0x158(%rbp)
    ff87:	48 8d 05 ba c3 00 00 	lea    0xc3ba(%rip),%rax        # 1c348 <g_4+0x308>
    ff8e:	48 89 85 b0 fe ff ff 	mov    %rax,-0x150(%rbp)
    ff95:	48 8d 05 ac 0b 01 00 	lea    0x10bac(%rip),%rax        # 20b48 <g_41>
    ff9c:	48 89 85 b8 fe ff ff 	mov    %rax,-0x148(%rbp)
    ffa3:	48 8d 05 9e 0b 01 00 	lea    0x10b9e(%rip),%rax        # 20b48 <g_41>
    ffaa:	48 89 85 c0 fe ff ff 	mov    %rax,-0x140(%rbp)
    ffb1:	48 8d 05 90 0b 01 00 	lea    0x10b90(%rip),%rax        # 20b48 <g_41>
    ffb8:	48 89 85 c8 fe ff ff 	mov    %rax,-0x138(%rbp)
    ffbf:	48 8d 85 34 ea ff ff 	lea    -0x15cc(%rbp),%rax
    ffc6:	48 89 85 d0 fe ff ff 	mov    %rax,-0x130(%rbp)
    ffcd:	48 8d 85 50 ea ff ff 	lea    -0x15b0(%rbp),%rax
    ffd4:	48 89 85 d8 fe ff ff 	mov    %rax,-0x128(%rbp)
    ffdb:	48 8d 85 34 ea ff ff 	lea    -0x15cc(%rbp),%rax
    ffe2:	48 89 85 e0 fe ff ff 	mov    %rax,-0x120(%rbp)
    ffe9:	48 8d 05 58 0b 01 00 	lea    0x10b58(%rip),%rax        # 20b48 <g_41>
    fff0:	48 89 85 e8 fe ff ff 	mov    %rax,-0x118(%rbp)
    fff7:	48 8d 05 4a 0b 01 00 	lea    0x10b4a(%rip),%rax        # 20b48 <g_41>
    fffe:	48 89 85 f0 fe ff ff 	mov    %rax,-0x110(%rbp)
   10005:	48 8d 05 3c 0b 01 00 	lea    0x10b3c(%rip),%rax        # 20b48 <g_41>
   1000c:	48 89 85 f8 fe ff ff 	mov    %rax,-0x108(%rbp)
   10013:	48 8d 05 2e 0b 01 00 	lea    0x10b2e(%rip),%rax        # 20b48 <g_41>
   1001a:	48 89 85 00 ff ff ff 	mov    %rax,-0x100(%rbp)
   10021:	48 8d 85 34 ea ff ff 	lea    -0x15cc(%rbp),%rax
   10028:	48 89 85 08 ff ff ff 	mov    %rax,-0xf8(%rbp)
   1002f:	48 c7 85 10 ff ff ff 	movq   $0x0,-0xf0(%rbp)
   10036:	00 00 00 00 
   1003a:	48 8d 85 50 ea ff ff 	lea    -0x15b0(%rbp),%rax
   10041:	48 89 85 18 ff ff ff 	mov    %rax,-0xe8(%rbp)
   10048:	48 8d 85 50 ea ff ff 	lea    -0x15b0(%rbp),%rax
   1004f:	48 89 85 20 ff ff ff 	mov    %rax,-0xe0(%rbp)
   10056:	48 8d 05 eb 0a 01 00 	lea    0x10aeb(%rip),%rax        # 20b48 <g_41>
   1005d:	48 89 85 28 ff ff ff 	mov    %rax,-0xd8(%rbp)
   10064:	48 8d 85 50 ea ff ff 	lea    -0x15b0(%rbp),%rax
   1006b:	48 89 85 30 ff ff ff 	mov    %rax,-0xd0(%rbp)
   10072:	48 8d 85 40 ea ff ff 	lea    -0x15c0(%rbp),%rax
   10079:	48 89 85 38 ff ff ff 	mov    %rax,-0xc8(%rbp)
   10080:	48 8d 85 50 ea ff ff 	lea    -0x15b0(%rbp),%rax
   10087:	48 89 85 40 ff ff ff 	mov    %rax,-0xc0(%rbp)
   1008e:	48 8d 05 b3 0a 01 00 	lea    0x10ab3(%rip),%rax        # 20b48 <g_41>
   10095:	48 89 85 48 ff ff ff 	mov    %rax,-0xb8(%rbp)
   1009c:	48 8d 85 50 ea ff ff 	lea    -0x15b0(%rbp),%rax
   100a3:	48 89 85 50 ff ff ff 	mov    %rax,-0xb0(%rbp)
   100aa:	48 8d 85 50 ea ff ff 	lea    -0x15b0(%rbp),%rax
   100b1:	48 89 85 58 ff ff ff 	mov    %rax,-0xa8(%rbp)
   100b8:	48 8d 85 50 ea ff ff 	lea    -0x15b0(%rbp),%rax
   100bf:	48 89 85 60 ff ff ff 	mov    %rax,-0xa0(%rbp)
   100c6:	48 8d 85 50 ea ff ff 	lea    -0x15b0(%rbp),%rax
   100cd:	48 89 85 68 ff ff ff 	mov    %rax,-0x98(%rbp)
   100d4:	48 8d 85 44 ea ff ff 	lea    -0x15bc(%rbp),%rax
   100db:	48 89 85 70 ff ff ff 	mov    %rax,-0x90(%rbp)
   100e2:	48 8d 05 df bf 00 00 	lea    0xbfdf(%rip),%rax        # 1c0c8 <g_4+0x88>
   100e9:	48 89 85 78 ff ff ff 	mov    %rax,-0x88(%rbp)
   100f0:	48 8d 85 34 ea ff ff 	lea    -0x15cc(%rbp),%rax
   100f7:	48 89 45 80          	mov    %rax,-0x80(%rbp)
   100fb:	48 8d 85 44 ea ff ff 	lea    -0x15bc(%rbp),%rax
   10102:	48 89 45 88          	mov    %rax,-0x78(%rbp)
   10106:	48 c7 45 90 00 00 00 	movq   $0x0,-0x70(%rbp)
   1010d:	00 
   1010e:	48 8d 85 34 ea ff ff 	lea    -0x15cc(%rbp),%rax
   10115:	48 89 45 98          	mov    %rax,-0x68(%rbp)
   10119:	48 c7 45 a0 00 00 00 	movq   $0x0,-0x60(%rbp)
   10120:	00 
   10121:	48 8d 85 44 ea ff ff 	lea    -0x15bc(%rbp),%rax
   10128:	48 89 45 a8          	mov    %rax,-0x58(%rbp)
   1012c:	48 c7 85 e8 ec ff ff 	movq   $0x0,-0x1318(%rbp)
   10133:	00 00 00 00 
   10137:	8b 85 3c ef ff ff    	mov    -0x10c4(%rbp),%eax
   1013d:	83 e8 01             	sub    $0x1,%eax
   10140:	89 85 3c ef ff ff    	mov    %eax,-0x10c4(%rbp)
   10146:	48 8b 05 43 f0 00 00 	mov    0xf043(%rip),%rax        # 1f190 <g_302>
   1014d:	48 8d 95 50 ef ff ff 	lea    -0x10b0(%rbp),%rdx
   10154:	48 83 c2 08          	add    $0x8,%rdx
   10158:	48 89 10             	mov    %rdx,(%rax)
   1015b:	8b 05 53 c2 00 00    	mov    0xc253(%rip),%eax        # 1c3b4 <g_38+0x4>
   10161:	48 63 d0             	movslq %eax,%rdx
   10164:	48 8b 05 bd c9 00 00 	mov    0xc9bd(%rip),%rax        # 1cb28 <g_77+0x748>
   1016b:	48 21 d0             	and    %rdx,%rax
   1016e:	48 85 c0             	test   %rax,%rax
   10171:	0f 85 2c 01 00 00    	jne    102a3 <func_66+0x1dea>
   10177:	48 8b 05 62 c4 00 00 	mov    0xc462(%rip),%rax        # 1c5e0 <g_77+0x200>
   1017e:	0f be d8             	movsbl %al,%ebx
   10181:	48 8b 85 48 fb ff ff 	mov    -0x4b8(%rbp),%rax
   10188:	48 85 c0             	test   %rax,%rax
   1018b:	41 0f 94 c4          	sete   %r12b
   1018f:	48 8b 85 10 ef ff ff 	mov    -0x10f0(%rbp),%rax
   10196:	48 39 85 e8 ec ff ff 	cmp    %rax,-0x1318(%rbp)
   1019d:	0f 95 c0             	setne  %al
   101a0:	0f b6 c0             	movzbl %al,%eax
   101a3:	48 be e4 d4 7e a4 03 	movabs $0x3ebf2803a47ed4e4,%rsi
   101aa:	28 bf 3e 
   101ad:	48 89 c7             	mov    %rax,%rdi
   101b0:	e8 42 98 ff ff       	callq  99f7 <safe_div_func_int64_t_s_s>
   101b5:	8b 15 b1 09 01 00    	mov    0x109b1(%rip),%edx        # 20b6c <g_280>
   101bb:	89 d2                	mov    %edx,%edx
   101bd:	48 39 d0             	cmp    %rdx,%rax
   101c0:	74 0f                	je     101d1 <func_66+0x1d18>
   101c2:	48 8b 05 87 09 01 00 	mov    0x10987(%rip),%rax        # 20b50 <g_109>
   101c9:	48 8b 00             	mov    (%rax),%rax
   101cc:	48 85 c0             	test   %rax,%rax
   101cf:	74 07                	je     101d8 <func_66+0x1d1f>
   101d1:	b8 01 00 00 00       	mov    $0x1,%eax
   101d6:	eb 05                	jmp    101dd <func_66+0x1d24>
   101d8:	b8 00 00 00 00       	mov    $0x0,%eax
   101dd:	39 85 0c ea ff ff    	cmp    %eax,-0x15f4(%rbp)
   101e3:	0f 97 c0             	seta   %al
   101e6:	0f b6 d0             	movzbl %al,%edx
   101e9:	0f b7 85 28 ea ff ff 	movzwl -0x15d8(%rbp),%eax
   101f0:	21 c2                	and    %eax,%edx
   101f2:	0f b7 05 71 09 01 00 	movzwl 0x10971(%rip),%eax        # 20b6a <g_250>
   101f9:	0f b7 c0             	movzwl %ax,%eax
   101fc:	39 c2                	cmp    %eax,%edx
   101fe:	0f 94 c0             	sete   %al
   10201:	0f b6 c0             	movzbl %al,%eax
   10204:	39 85 0c ea ff ff    	cmp    %eax,-0x15f4(%rbp)
   1020a:	0f b7 05 47 09 01 00 	movzwl 0x10947(%rip),%eax        # 20b58 <g_148>
   10211:	0f be c0             	movsbl %al,%eax
   10214:	be 01 00 00 00       	mov    $0x1,%esi
   10219:	89 c7                	mov    %eax,%edi
   1021b:	e8 d2 8f ff ff       	callq  91f2 <safe_sub_func_int8_t_s_s>
   10220:	48 8b 05 69 ef 00 00 	mov    0xef69(%rip),%rax        # 1f190 <g_302>
   10227:	83 bd 0c ea ff ff 00 	cmpl   $0x0,-0x15f4(%rbp)
   1022e:	74 07                	je     10237 <func_66+0x1d7e>
   10230:	b8 01 00 00 00       	mov    $0x1,%eax
   10235:	eb 05                	jmp    1023c <func_66+0x1d83>
   10237:	b8 00 00 00 00       	mov    $0x0,%eax
   1023c:	83 f8 05             	cmp    $0x5,%eax
   1023f:	0f 97 c0             	seta   %al
   10242:	44 21 e0             	and    %r12d,%eax
   10245:	0f b6 c0             	movzbl %al,%eax
   10248:	be 0c 00 00 00       	mov    $0xc,%esi
   1024d:	89 c7                	mov    %eax,%edi
   1024f:	e8 26 9c ff ff       	callq  9e7a <safe_rshift_func_uint16_t_u_u>
   10254:	66 85 c0             	test   %ax,%ax
   10257:	75 0a                	jne    10263 <func_66+0x1daa>
   10259:	8b 05 e9 c0 00 00    	mov    0xc0e9(%rip),%eax        # 1c348 <g_4+0x308>
   1025f:	85 c0                	test   %eax,%eax
   10261:	74 07                	je     1026a <func_66+0x1db1>
   10263:	b8 01 00 00 00       	mov    $0x1,%eax
   10268:	eb 05                	jmp    1026f <func_66+0x1db6>
   1026a:	b8 00 00 00 00       	mov    $0x0,%eax
   1026f:	48 63 d0             	movslq %eax,%rdx
   10272:	48 8b 05 d7 08 01 00 	mov    0x108d7(%rip),%rax        # 20b50 <g_109>
   10279:	48 8b 00             	mov    (%rax),%rax
   1027c:	48 39 c2             	cmp    %rax,%rdx
   1027f:	0f 9e c0             	setle  %al
   10282:	0f b6 d0             	movzbl %al,%edx
   10285:	48 8b 85 30 ec ff ff 	mov    -0x13d0(%rbp),%rax
   1028c:	8b 00                	mov    (%rax),%eax
   1028e:	39 c2                	cmp    %eax,%edx
   10290:	0f 9e c0             	setle  %al
   10293:	0f b6 c0             	movzbl %al,%eax
   10296:	89 de                	mov    %ebx,%esi
   10298:	89 c7                	mov    %eax,%edi
   1029a:	e8 cb 8f ff ff       	callq  926a <safe_div_func_int8_t_s_s>
   1029f:	84 c0                	test   %al,%al
   102a1:	74 77                	je     1031a <func_66+0x1e61>
   102a3:	66 c7 85 2c ea ff ff 	movw   $0x1,-0x15d4(%rbp)
   102aa:	01 00 
   102ac:	c7 85 b0 f1 ff ff ff 	movl   $0xffffffff,-0xe50(%rbp)
   102b3:	ff ff ff 
   102b6:	c7 85 b4 f1 ff ff ff 	movl   $0xffffffff,-0xe4c(%rbp)
   102bd:	ff ff ff 
   102c0:	c7 85 b8 f1 ff ff ff 	movl   $0xffffffff,-0xe48(%rbp)
   102c7:	ff ff ff 
   102ca:	c7 85 bc f1 ff ff ff 	movl   $0xffffffff,-0xe44(%rbp)
   102d1:	ff ff ff 
   102d4:	c7 85 c0 f1 ff ff ff 	movl   $0xffffffff,-0xe40(%rbp)
   102db:	ff ff ff 
   102de:	c7 85 c4 f1 ff ff ff 	movl   $0xffffffff,-0xe3c(%rbp)
   102e5:	ff ff ff 
   102e8:	c7 85 c8 f1 ff ff ff 	movl   $0xffffffff,-0xe38(%rbp)
   102ef:	ff ff ff 
   102f2:	c7 85 cc f1 ff ff ff 	movl   $0xffffffff,-0xe34(%rbp)
   102f9:	ff ff ff 
   102fc:	48 83 ad 90 ec ff ff 	subq   $0x1,-0x1370(%rbp)
   10303:	01 
   10304:	48 8b 85 38 ec ff ff 	mov    -0x13c8(%rbp),%rax
   1030b:	48 8b 00             	mov    (%rax),%rax
   1030e:	48 89 85 48 fb ff ff 	mov    %rax,-0x4b8(%rbp)
   10315:	e9 d1 01 00 00       	jmpq   104eb <func_66+0x2032>
   1031a:	66 c7 85 2a ea ff ff 	movw   $0x5,-0x15d6(%rbp)
   10321:	05 00 
   10323:	48 8b 85 d8 eb ff ff 	mov    -0x1428(%rbp),%rax
   1032a:	8b 00                	mov    (%rax),%eax
   1032c:	0f be d8             	movsbl %al,%ebx
   1032f:	48 8b 05 32 c8 00 00 	mov    0xc832(%rip),%rax        # 1cb68 <g_113>
   10336:	48 85 c0             	test   %rax,%rax
   10339:	0f 85 99 00 00 00    	jne    103d8 <func_66+0x1f1f>
   1033f:	48 8b 05 0a 08 01 00 	mov    0x1080a(%rip),%rax        # 20b50 <g_109>
   10346:	4c 8b 20             	mov    (%rax),%r12
   10349:	0f b7 05 2a c8 00 00 	movzwl 0xc82a(%rip),%eax        # 1cb7a <g_331>
   10350:	48 8b 05 09 c8 00 00 	mov    0xc809(%rip),%rax        # 1cb60 <g_79>
   10357:	89 c2                	mov    %eax,%edx
   10359:	8b 85 0c ea ff ff    	mov    -0x15f4(%rbp),%eax
   1035f:	83 f0 8a             	xor    $0xffffff8a,%eax
   10362:	0f b6 c0             	movzbl %al,%eax
   10365:	89 d6                	mov    %edx,%esi
   10367:	89 c7                	mov    %eax,%edi
   10369:	e8 50 99 ff ff       	callq  9cbe <safe_rshift_func_uint8_t_u_u>
   1036e:	0f b7 05 fb c7 00 00 	movzwl 0xc7fb(%rip),%eax        # 1cb70 <g_134>
   10375:	0f b6 d0             	movzbl %al,%edx
   10378:	0f b6 05 f9 c7 00 00 	movzbl 0xc7f9(%rip),%eax        # 1cb78 <g_254>
   1037f:	0f b6 c0             	movzbl %al,%eax
   10382:	89 d6                	mov    %edx,%esi
   10384:	89 c7                	mov    %eax,%edi
   10386:	e8 23 98 ff ff       	callq  9bae <safe_mod_func_uint8_t_u_u>
   1038b:	84 c0                	test   %al,%al
   1038d:	0f 94 c0             	sete   %al
   10390:	0f b6 c0             	movzbl %al,%eax
   10393:	be fb ff ff ff       	mov    $0xfffffffb,%esi
   10398:	89 c7                	mov    %eax,%edi
   1039a:	e8 35 8e ff ff       	callq  91d4 <safe_add_func_int8_t_s_s>
   1039f:	84 c0                	test   %al,%al
   103a1:	0f 95 c0             	setne  %al
   103a4:	0f b6 c0             	movzbl %al,%eax
   103a7:	39 85 08 ea ff ff    	cmp    %eax,-0x15f8(%rbp)
   103ad:	0f 9e c0             	setle  %al
   103b0:	0f b6 c0             	movzbl %al,%eax
   103b3:	4c 89 e6             	mov    %r12,%rsi
   103b6:	48 89 c7             	mov    %rax,%rdi
   103b9:	e8 83 94 ff ff       	callq  9841 <safe_add_func_int64_t_s_s>
   103be:	0f b7 d0             	movzwl %ax,%edx
   103c1:	8b 85 0c ea ff ff    	mov    -0x15f4(%rbp),%eax
   103c7:	0f b7 c0             	movzwl %ax,%eax
   103ca:	89 d6                	mov    %edx,%esi
   103cc:	89 c7                	mov    %eax,%edi
   103ce:	e8 2c 99 ff ff       	callq  9cff <safe_add_func_uint16_t_u_u>
   103d3:	66 85 c0             	test   %ax,%ax
   103d6:	74 07                	je     103df <func_66+0x1f26>
   103d8:	b8 01 00 00 00       	mov    $0x1,%eax
   103dd:	eb 05                	jmp    103e4 <func_66+0x1f2b>
   103df:	b8 00 00 00 00       	mov    $0x0,%eax
   103e4:	0f be c0             	movsbl %al,%eax
   103e7:	89 de                	mov    %ebx,%esi
   103e9:	89 c7                	mov    %eax,%edi
   103eb:	e8 22 8e ff ff       	callq  9212 <safe_mul_func_int8_t_s_s>
   103f0:	0f be c0             	movsbl %al,%eax
   103f3:	39 85 08 ea ff ff    	cmp    %eax,-0x15f8(%rbp)
   103f9:	0f 94 c0             	sete   %al
   103fc:	0f b6 d0             	movzbl %al,%edx
   103ff:	8b 85 e4 ef ff ff    	mov    -0x101c(%rbp),%eax
   10405:	21 d0                	and    %edx,%eax
   10407:	89 85 e4 ef ff ff    	mov    %eax,-0x101c(%rbp)
   1040d:	0f b7 05 60 c7 00 00 	movzwl 0xc760(%rip),%eax        # 1cb74 <g_220>
   10414:	44 0f bf e0          	movswl %ax,%r12d
   10418:	0f b6 05 59 c7 00 00 	movzbl 0xc759(%rip),%eax        # 1cb78 <g_254>
   1041f:	0f b6 d8             	movzbl %al,%ebx
   10422:	0f bf 95 2a ea ff ff 	movswl -0x15d6(%rbp),%edx
   10429:	48 8d 85 88 eb ff ff 	lea    -0x1478(%rbp),%rax
   10430:	48 89 05 41 07 01 00 	mov    %rax,0x10741(%rip)        # 20b78 <g_348>
   10437:	8b 85 0c ea ff ff    	mov    -0x15f4(%rbp),%eax
   1043d:	98                   	cwtl   
   1043e:	89 d6                	mov    %edx,%esi
   10440:	89 c7                	mov    %eax,%edi
   10442:	e8 6c 8f ff ff       	callq  93b3 <safe_add_func_int16_t_s_s>
   10447:	0f be c0             	movsbl %al,%eax
   1044a:	89 c6                	mov    %eax,%esi
   1044c:	bf 6e 00 00 00       	mov    $0x6e,%edi
   10451:	e8 db 8d ff ff       	callq  9231 <safe_mod_func_int8_t_s_s>
   10456:	89 de                	mov    %ebx,%esi
   10458:	bf ff ff ff ff       	mov    $0xffffffff,%edi
   1045d:	e8 9d 92 ff ff       	callq  96ff <safe_div_func_int32_t_s_s>
   10462:	0f bf 95 2a ea ff ff 	movswl -0x15d6(%rbp),%edx
   10469:	21 d0                	and    %edx,%eax
   1046b:	41 39 c4             	cmp    %eax,%r12d
   1046e:	0f 94 c0             	sete   %al
   10471:	0f b6 c0             	movzbl %al,%eax
   10474:	48 c7 c6 f7 ff ff ff 	mov    $0xfffffffffffffff7,%rsi
   1047b:	48 89 c7             	mov    %rax,%rdi
   1047e:	e8 fd 9b ff ff       	callq  a080 <safe_mod_func_uint64_t_u_u>
   10483:	8b 15 bf be 00 00    	mov    0xbebf(%rip),%edx        # 1c348 <g_4+0x308>
   10489:	48 63 d2             	movslq %edx,%rdx
   1048c:	48 39 d0             	cmp    %rdx,%rax
   1048f:	0f 95 c0             	setne  %al
   10492:	89 c2                	mov    %eax,%edx
   10494:	8b 05 ae 06 01 00    	mov    0x106ae(%rip),%eax        # 20b48 <g_41>
   1049a:	31 d0                	xor    %edx,%eax
   1049c:	0f b6 d0             	movzbl %al,%edx
   1049f:	b8 00 00 00 00       	mov    $0x0,%eax
   104a4:	48 83 f8 37          	cmp    $0x37,%rax
   104a8:	0f 95 c0             	setne  %al
   104ab:	0f b6 c0             	movzbl %al,%eax
   104ae:	89 d6                	mov    %edx,%esi
   104b0:	89 c7                	mov    %eax,%edi
   104b2:	e8 dc 96 ff ff       	callq  9b93 <safe_mul_func_uint8_t_u_u>
   104b7:	0f b6 c0             	movzbl %al,%eax
   104ba:	48 ba 05 9f 7c ce 9d 	movabs $0x55edbe9dce7c9f05,%rdx
   104c1:	be ed 55 
   104c4:	48 31 c2             	xor    %rax,%rdx
   104c7:	48 8b 05 32 c0 00 00 	mov    0xc032(%rip),%rax        # 1c500 <g_77+0x120>
   104ce:	48 39 c2             	cmp    %rax,%rdx
   104d1:	0f 9c c2             	setl   %dl
   104d4:	48 8b 85 d8 eb ff ff 	mov    -0x1428(%rbp),%rax
   104db:	0f b6 d2             	movzbl %dl,%edx
   104de:	89 10                	mov    %edx,(%rax)
   104e0:	8b 10                	mov    (%rax),%edx
   104e2:	48 8b 85 18 ec ff ff 	mov    -0x13e8(%rbp),%rax
   104e9:	89 10                	mov    %edx,(%rax)
   104eb:	66 c7 05 7e c6 00 00 	movw   $0x0,0xc67e(%rip)        # 1cb72 <g_146>
   104f2:	00 00 
   104f4:	e9 c9 04 00 00       	jmpq   109c2 <func_66+0x2509>
   104f9:	48 c7 85 08 ec ff ff 	movq   $0x0,-0x13f8(%rbp)
   10500:	00 00 00 00 
   10504:	48 8d 85 08 ec ff ff 	lea    -0x13f8(%rbp),%rax
   1050b:	48 89 85 28 ed ff ff 	mov    %rax,-0x12d8(%rbp)
   10512:	48 8d 85 e8 eb ff ff 	lea    -0x1418(%rbp),%rax
   10519:	48 89 85 30 ed ff ff 	mov    %rax,-0x12d0(%rbp)
   10520:	c7 85 60 ea ff ff 00 	movl   $0x0,-0x15a0(%rbp)
   10527:	00 00 00 
   1052a:	eb 7e                	jmp    105aa <func_66+0x20f1>
   1052c:	c7 85 64 ea ff ff 00 	movl   $0x0,-0x159c(%rbp)
   10533:	00 00 00 
   10536:	eb 62                	jmp    1059a <func_66+0x20e1>
   10538:	c7 85 68 ea ff ff 00 	movl   $0x0,-0x1598(%rbp)
   1053f:	00 00 00 
   10542:	eb 46                	jmp    1058a <func_66+0x20d1>
   10544:	8b 85 68 ea ff ff    	mov    -0x1598(%rbp),%eax
   1054a:	48 63 f0             	movslq %eax,%rsi
   1054d:	8b 85 60 ea ff ff    	mov    -0x15a0(%rbp),%eax
   10553:	48 98                	cltq   
   10555:	8b 95 64 ea ff ff    	mov    -0x159c(%rbp),%edx
   1055b:	48 63 ca             	movslq %edx,%rcx
   1055e:	48 89 c2             	mov    %rax,%rdx
   10561:	48 c1 e2 04          	shl    $0x4,%rdx
   10565:	48 29 c2             	sub    %rax,%rdx
   10568:	48 89 c8             	mov    %rcx,%rax
   1056b:	48 01 c0             	add    %rax,%rax
   1056e:	48 01 c8             	add    %rcx,%rax
   10571:	48 01 d0             	add    %rdx,%rax
   10574:	48 01 f0             	add    %rsi,%rax
   10577:	48 c7 84 c5 10 fa ff 	movq   $0x0,-0x5f0(%rbp,%rax,8)
   1057e:	ff 00 00 00 00 
   10583:	83 85 68 ea ff ff 01 	addl   $0x1,-0x1598(%rbp)
   1058a:	83 bd 68 ea ff ff 02 	cmpl   $0x2,-0x1598(%rbp)
   10591:	7e b1                	jle    10544 <func_66+0x208b>
   10593:	83 85 64 ea ff ff 01 	addl   $0x1,-0x159c(%rbp)
   1059a:	83 bd 64 ea ff ff 04 	cmpl   $0x4,-0x159c(%rbp)
   105a1:	7e 95                	jle    10538 <func_66+0x207f>
   105a3:	83 85 60 ea ff ff 01 	addl   $0x1,-0x15a0(%rbp)
   105aa:	83 bd 60 ea ff ff 00 	cmpl   $0x0,-0x15a0(%rbp)
   105b1:	0f 8e 75 ff ff ff    	jle    1052c <func_66+0x2073>
   105b7:	48 8b 05 e2 eb 00 00 	mov    0xebe2(%rip),%rax        # 1f1a0 <g_349>
   105be:	48 8b 00             	mov    (%rax),%rax
   105c1:	48 8b 00             	mov    (%rax),%rax
   105c4:	8b 85 0c ea ff ff    	mov    -0x15f4(%rbp),%eax
   105ca:	0c d2                	or     $0xd2,%al
   105cc:	89 c2                	mov    %eax,%edx
   105ce:	48 8b 85 d8 eb ff ff 	mov    -0x1428(%rbp),%rax
   105d5:	89 10                	mov    %edx,(%rax)
   105d7:	8b 00                	mov    (%rax),%eax
   105d9:	0f be c0             	movsbl %al,%eax
   105dc:	be 00 00 00 00       	mov    $0x0,%esi
   105e1:	89 c7                	mov    %eax,%edi
   105e3:	e8 06 8d ff ff       	callq  92ee <safe_lshift_func_int8_t_s_u>
   105e8:	84 c0                	test   %al,%al
   105ea:	74 53                	je     1063f <func_66+0x2186>
   105ec:	48 8d 05 ad c4 00 00 	lea    0xc4ad(%rip),%rax        # 1caa0 <g_77+0x6c0>
   105f3:	48 89 85 50 ed ff ff 	mov    %rax,-0x12b0(%rbp)
   105fa:	48 8d 05 a7 eb 00 00 	lea    0xeba7(%rip),%rax        # 1f1a8 <g_359>
   10601:	48 89 85 58 ed ff ff 	mov    %rax,-0x12a8(%rbp)
   10608:	48 8b 85 18 ec ff ff 	mov    -0x13e8(%rbp),%rax
   1060f:	8b 10                	mov    (%rax),%edx
   10611:	83 bd 0c ea ff ff 00 	cmpl   $0x0,-0x15f4(%rbp)
   10618:	0f 95 c0             	setne  %al
   1061b:	0f b6 c0             	movzbl %al,%eax
   1061e:	31 c2                	xor    %eax,%edx
   10620:	48 8b 85 18 ec ff ff 	mov    -0x13e8(%rbp),%rax
   10627:	89 10                	mov    %edx,(%rax)
   10629:	48 8b 85 58 ed ff ff 	mov    -0x12a8(%rbp),%rax
   10630:	48 8d 95 80 eb ff ff 	lea    -0x1480(%rbp),%rdx
   10637:	48 89 10             	mov    %rdx,(%rax)
   1063a:	e9 b0 02 00 00       	jmpq   108ef <func_66+0x2436>
   1063f:	48 c7 85 38 ed ff ff 	movq   $0x0,-0x12c8(%rbp)
   10646:	00 00 00 00 
   1064a:	48 8d 05 19 05 01 00 	lea    0x10519(%rip),%rax        # 20b6a <g_250>
   10651:	48 89 85 40 ed ff ff 	mov    %rax,-0x12c0(%rbp)
   10658:	48 8d 05 49 eb 00 00 	lea    0xeb49(%rip),%rax        # 1f1a8 <g_359>
   1065f:	48 89 85 10 ec ff ff 	mov    %rax,-0x13f0(%rbp)
   10666:	48 8d 85 10 ec ff ff 	lea    -0x13f0(%rbp),%rax
   1066d:	48 89 85 48 ed ff ff 	mov    %rax,-0x12b8(%rbp)
   10674:	c7 85 d4 ea ff ff 00 	movl   $0x0,-0x152c(%rbp)
   1067b:	00 00 00 
   1067e:	8b 85 08 ea ff ff    	mov    -0x15f8(%rbp),%eax
   10684:	39 85 0c ea ff ff    	cmp    %eax,-0x15f4(%rbp)
   1068a:	0f 83 00 01 00 00    	jae    10790 <func_66+0x22d7>
   10690:	0f b7 05 d1 04 01 00 	movzwl 0x104d1(%rip),%eax        # 20b68 <g_248>
   10697:	66 85 c0             	test   %ax,%ax
   1069a:	0f 84 cc 00 00 00    	je     1076c <func_66+0x22b3>
   106a0:	48 8b 05 f9 c3 00 00 	mov    0xc3f9(%rip),%rax        # 1caa0 <g_77+0x6c0>
   106a7:	41 89 c4             	mov    %eax,%r12d
   106aa:	8b 85 08 ea ff ff    	mov    -0x15f8(%rbp),%eax
   106b0:	48 63 d8             	movslq %eax,%rbx
   106b3:	8b 85 0c ea ff ff    	mov    -0x15f4(%rbp),%eax
   106b9:	be 01 00 00 00       	mov    $0x1,%esi
   106be:	89 c7                	mov    %eax,%edi
   106c0:	e8 40 8f ff ff       	callq  9605 <safe_sub_func_int32_t_s_s>
   106c5:	48 8b 95 88 eb ff ff 	mov    -0x1478(%rbp),%rdx
   106cc:	48 8b 0a             	mov    (%rdx),%rcx
   106cf:	48 63 d0             	movslq %eax,%rdx
   106d2:	48 8b 85 88 eb ff ff 	mov    -0x1478(%rbp),%rax
   106d9:	48 09 ca             	or     %rcx,%rdx
   106dc:	48 89 10             	mov    %rdx,(%rax)
   106df:	48 8b 85 40 ed ff ff 	mov    -0x12c0(%rbp),%rax
   106e6:	0f b7 00             	movzwl (%rax),%eax
   106e9:	8d 48 ff             	lea    -0x1(%rax),%ecx
   106ec:	48 8b 95 40 ed ff ff 	mov    -0x12c0(%rbp),%rdx
   106f3:	66 89 0a             	mov    %cx,(%rdx)
   106f6:	0f b7 c0             	movzwl %ax,%eax
   106f9:	89 c6                	mov    %eax,%esi
   106fb:	bf c8 87 00 00       	mov    $0x87c8,%edi
   10700:	e8 38 96 ff ff       	callq  9d3d <safe_mul_func_uint16_t_u_u>
   10705:	0f b7 d0             	movzwl %ax,%edx
   10708:	48 83 bd 48 ed ff ff 	cmpq   $0x0,-0x12b8(%rbp)
   1070f:	00 
   10710:	0f 95 c0             	setne  %al
   10713:	0f b6 c8             	movzbl %al,%ecx
   10716:	48 8b 85 d8 eb ff ff 	mov    -0x1428(%rbp),%rax
   1071d:	8b 00                	mov    (%rax),%eax
   1071f:	39 c1                	cmp    %eax,%ecx
   10721:	0f 9d c0             	setge  %al
   10724:	0f b6 c0             	movzbl %al,%eax
   10727:	39 c2                	cmp    %eax,%edx
   10729:	0f 94 c0             	sete   %al
   1072c:	0f b6 c0             	movzbl %al,%eax
   1072f:	48 89 de             	mov    %rbx,%rsi
   10732:	48 89 c7             	mov    %rax,%rdi
   10735:	e8 7a 92 ff ff       	callq  99b4 <safe_mod_func_int64_t_s_s>
   1073a:	83 f0 6c             	xor    $0x6c,%eax
   1073d:	0f b6 c0             	movzbl %al,%eax
   10740:	89 c6                	mov    %eax,%esi
   10742:	bf ed 00 00 00       	mov    $0xed,%edi
   10747:	e8 47 94 ff ff       	callq  9b93 <safe_mul_func_uint8_t_u_u>
   1074c:	44 89 e6             	mov    %r12d,%esi
   1074f:	bf 00 00 00 00       	mov    $0x0,%edi
   10754:	e8 13 8c ff ff       	callq  936c <safe_rshift_func_int8_t_s_u>
   10759:	0f b7 05 f4 68 00 00 	movzwl 0x68f4(%rip),%eax        # 17054 <g_90>
   10760:	66 85 c0             	test   %ax,%ax
   10763:	74 07                	je     1076c <func_66+0x22b3>
   10765:	b8 01 00 00 00       	mov    $0x1,%eax
   1076a:	eb 05                	jmp    10771 <func_66+0x22b8>
   1076c:	b8 00 00 00 00       	mov    $0x0,%eax
   10771:	48 98                	cltq   
   10773:	83 e0 01             	and    $0x1,%eax
   10776:	48 89 c2             	mov    %rax,%rdx
   10779:	48 8b 85 30 ec ff ff 	mov    -0x13d0(%rbp),%rax
   10780:	8b 00                	mov    (%rax),%eax
   10782:	48 98                	cltq   
   10784:	48 39 c2             	cmp    %rax,%rdx
   10787:	75 07                	jne    10790 <func_66+0x22d7>
   10789:	ba 01 00 00 00       	mov    $0x1,%edx
   1078e:	eb 05                	jmp    10795 <func_66+0x22dc>
   10790:	ba 00 00 00 00       	mov    $0x0,%edx
   10795:	48 8b 85 18 ec ff ff 	mov    -0x13e8(%rbp),%rax
   1079c:	8b 00                	mov    (%rax),%eax
   1079e:	09 c2                	or     %eax,%edx
   107a0:	48 8b 85 18 ec ff ff 	mov    -0x13e8(%rbp),%rax
   107a7:	89 10                	mov    %edx,(%rax)
   107a9:	48 8b 85 18 ec ff ff 	mov    -0x13e8(%rbp),%rax
   107b0:	8b 00                	mov    (%rax),%eax
   107b2:	89 c3                	mov    %eax,%ebx
   107b4:	48 8b 85 c8 ec ff ff 	mov    -0x1338(%rbp),%rax
   107bb:	0f be c0             	movsbl %al,%eax
   107be:	be a6 ff ff ff       	mov    $0xffffffa6,%esi
   107c3:	89 c7                	mov    %eax,%edi
   107c5:	e8 a0 8a ff ff       	callq  926a <safe_div_func_int8_t_s_s>
   107ca:	66 98                	cbtw   
   107cc:	0f b7 d0             	movzwl %ax,%edx
   107cf:	0f b6 85 1d ea ff ff 	movzbl -0x15e3(%rbp),%eax
   107d6:	89 d6                	mov    %edx,%esi
   107d8:	89 c7                	mov    %eax,%edi
   107da:	e8 5e 95 ff ff       	callq  9d3d <safe_mul_func_uint16_t_u_u>
   107df:	48 8b 05 da bb 00 00 	mov    0xbbda(%rip),%rax        # 1c3c0 <g_57>
   107e6:	0f b6 d0             	movzbl %al,%edx
   107e9:	0f b7 05 78 03 01 00 	movzwl 0x10378(%rip),%eax        # 20b68 <g_248>
   107f0:	0f b6 c0             	movzbl %al,%eax
   107f3:	89 d6                	mov    %edx,%esi
   107f5:	89 c7                	mov    %eax,%edi
   107f7:	e8 5e 93 ff ff       	callq  9b5a <safe_add_func_uint8_t_u_u>
   107fc:	0f b6 d0             	movzbl %al,%edx
   107ff:	8b 85 0c ea ff ff    	mov    -0x15f4(%rbp),%eax
   10805:	48 89 d6             	mov    %rdx,%rsi
   10808:	48 89 c7             	mov    %rax,%rdi
   1080b:	e8 1e 98 ff ff       	callq  a02e <safe_add_func_uint64_t_u_u>
   10810:	41 89 c4             	mov    %eax,%r12d
   10813:	8b 85 0c ea ff ff    	mov    -0x15f4(%rbp),%eax
   10819:	25 e3 c5 12 91       	and    $0x9112c5e3,%eax
   1081e:	89 c2                	mov    %eax,%edx
   10820:	8b 85 7c ea ff ff    	mov    -0x1584(%rbp),%eax
   10826:	89 c6                	mov    %eax,%esi
   10828:	89 d7                	mov    %edx,%edi
   1082a:	e8 87 8d ff ff       	callq  95b6 <safe_add_func_int32_t_s_s>
   1082f:	44 89 e6             	mov    %r12d,%esi
   10832:	89 c7                	mov    %eax,%edi
   10834:	e8 97 96 ff ff       	callq  9ed0 <safe_sub_func_uint32_t_u_u>
   10839:	89 c2                	mov    %eax,%edx
   1083b:	48 8b 85 40 ed ff ff 	mov    -0x12c0(%rbp),%rax
   10842:	66 89 10             	mov    %dx,(%rax)
   10845:	48 8b 85 40 ed ff ff 	mov    -0x12c0(%rbp),%rax
   1084c:	0f b7 00             	movzwl (%rax),%eax
   1084f:	0f b7 c0             	movzwl %ax,%eax
   10852:	83 e0 04             	and    $0x4,%eax
   10855:	48 89 c2             	mov    %rax,%rdx
   10858:	8b 85 08 ea ff ff    	mov    -0x15f8(%rbp),%eax
   1085e:	48 98                	cltq   
   10860:	48 39 c2             	cmp    %rax,%rdx
   10863:	0f 93 c0             	setae  %al
   10866:	0f b6 c0             	movzbl %al,%eax
   10869:	48 8b 15 30 c2 00 00 	mov    0xc230(%rip),%rdx        # 1caa0 <g_77+0x6c0>
   10870:	09 d0                	or     %edx,%eax
   10872:	be 01 00 00 00       	mov    $0x1,%esi
   10877:	89 c7                	mov    %eax,%edi
   10879:	e8 81 8e ff ff       	callq  96ff <safe_div_func_int32_t_s_s>
   1087e:	0f be c0             	movsbl %al,%eax
   10881:	89 de                	mov    %ebx,%esi
   10883:	89 c7                	mov    %eax,%edi
   10885:	e8 64 8a ff ff       	callq  92ee <safe_lshift_func_int8_t_s_u>
   1088a:	84 c0                	test   %al,%al
   1088c:	75 0a                	jne    10898 <func_66+0x23df>
   1088e:	66 83 bd 28 ea ff ff 	cmpw   $0x0,-0x15d8(%rbp)
   10895:	00 
   10896:	74 07                	je     1089f <func_66+0x23e6>
   10898:	b8 01 00 00 00       	mov    $0x1,%eax
   1089d:	eb 05                	jmp    108a4 <func_66+0x23eb>
   1089f:	b8 00 00 00 00       	mov    $0x0,%eax
   108a4:	3d d3 00 00 00       	cmp    $0xd3,%eax
   108a9:	0f 9e c0             	setle  %al
   108ac:	0f b6 c8             	movzbl %al,%ecx
   108af:	48 8b 85 f0 eb ff ff 	mov    -0x1410(%rbp),%rax
   108b6:	0f b6 10             	movzbl (%rax),%edx
   108b9:	48 8b 85 f0 eb ff ff 	mov    -0x1410(%rbp),%rax
   108c0:	31 ca                	xor    %ecx,%edx
   108c2:	88 10                	mov    %dl,(%rax)
   108c4:	48 8d 05 a5 02 01 00 	lea    0x102a5(%rip),%rax        # 20b70 <g_303>
   108cb:	48 39 85 28 ed ff ff 	cmp    %rax,-0x12d8(%rbp)
   108d2:	0f 94 c0             	sete   %al
   108d5:	0f b6 d0             	movzbl %al,%edx
   108d8:	48 8b 85 18 ec ff ff 	mov    -0x13e8(%rbp),%rax
   108df:	89 10                	mov    %edx,(%rax)
   108e1:	48 8b 85 58 fa ff ff 	mov    -0x5a8(%rbp),%rax
   108e8:	48 89 85 e0 ec ff ff 	mov    %rax,-0x1320(%rbp)
   108ef:	c7 85 7c ea ff ff 00 	movl   $0x0,-0x1584(%rbp)
   108f6:	00 00 00 
   108f9:	e9 91 00 00 00       	jmpq   1098f <func_66+0x24d6>
   108fe:	48 c7 85 10 ec ff ff 	movq   $0x0,-0x13f0(%rbp)
   10905:	00 00 00 00 
   10909:	48 8d 85 10 ec ff ff 	lea    -0x13f0(%rbp),%rax
   10910:	48 89 85 b0 f1 ff ff 	mov    %rax,-0xe50(%rbp)
   10917:	48 8d 85 10 ec ff ff 	lea    -0x13f0(%rbp),%rax
   1091e:	48 89 85 b8 f1 ff ff 	mov    %rax,-0xe48(%rbp)
   10925:	48 8d 85 10 ec ff ff 	lea    -0x13f0(%rbp),%rax
   1092c:	48 89 85 c0 f1 ff ff 	mov    %rax,-0xe40(%rbp)
   10933:	48 8d 85 10 ec ff ff 	lea    -0x13f0(%rbp),%rax
   1093a:	48 89 85 c8 f1 ff ff 	mov    %rax,-0xe38(%rbp)
   10941:	48 8d 85 10 ec ff ff 	lea    -0x13f0(%rbp),%rax
   10948:	48 89 85 d0 f1 ff ff 	mov    %rax,-0xe30(%rbp)
   1094f:	48 8d 85 10 ec ff ff 	lea    -0x13f0(%rbp),%rax
   10956:	48 89 85 d8 f1 ff ff 	mov    %rax,-0xe28(%rbp)
   1095d:	48 8d 85 a0 f2 ff ff 	lea    -0xd60(%rbp),%rax
   10964:	48 05 78 01 00 00    	add    $0x178,%rax
   1096a:	48 89 85 30 ed ff ff 	mov    %rax,-0x12d0(%rbp)
   10971:	8b 85 7c ea ff ff    	mov    -0x1584(%rbp),%eax
   10977:	0f b6 c0             	movzbl %al,%eax
   1097a:	be 05 00 00 00       	mov    $0x5,%esi
   1097f:	89 c7                	mov    %eax,%edi
   10981:	e8 f2 91 ff ff       	callq  9b78 <safe_sub_func_uint8_t_u_u>
   10986:	0f b6 c0             	movzbl %al,%eax
   10989:	89 85 7c ea ff ff    	mov    %eax,-0x1584(%rbp)
   1098f:	83 bd 7c ea ff ff f9 	cmpl   $0xfffffff9,-0x1584(%rbp)
   10996:	0f 8c 62 ff ff ff    	jl     108fe <func_66+0x2445>
   1099c:	83 bd 08 ea ff ff 00 	cmpl   $0x0,-0x15f8(%rbp)
   109a3:	0f b7 05 c8 c1 00 00 	movzwl 0xc1c8(%rip),%eax        # 1cb72 <g_146>
   109aa:	0f be c0             	movsbl %al,%eax
   109ad:	be 05 00 00 00       	mov    $0x5,%esi
   109b2:	89 c7                	mov    %eax,%edi
   109b4:	e8 1b 88 ff ff       	callq  91d4 <safe_add_func_int8_t_s_s>
   109b9:	66 98                	cbtw   
   109bb:	66 89 05 b0 c1 00 00 	mov    %ax,0xc1b0(%rip)        # 1cb72 <g_146>
   109c2:	0f b7 05 a9 c1 00 00 	movzwl 0xc1a9(%rip),%eax        # 1cb72 <g_146>
   109c9:	66 83 f8 21          	cmp    $0x21,%ax
   109cd:	0f 86 26 fb ff ff    	jbe    104f9 <func_66+0x2040>
   109d3:	eb 4c                	jmp    10a21 <func_66+0x2568>
   109d5:	c7 85 cc ea ff ff 00 	movl   $0x0,-0x1534(%rbp)
   109dc:	00 00 00 
   109df:	83 bd cc ea ff ff 16 	cmpl   $0x16,-0x1534(%rbp)
   109e6:	76 39                	jbe    10a21 <func_66+0x2568>
   109e8:	48 8d 85 34 ea ff ff 	lea    -0x15cc(%rbp),%rax
   109ef:	48 89 85 c0 ec ff ff 	mov    %rax,-0x1340(%rbp)
   109f6:	c7 85 08 ea ff ff ec 	movl   $0xffffffec,-0x15f8(%rbp)
   109fd:	ff ff ff 
   10a00:	83 bd 08 ea ff ff 06 	cmpl   $0x6,-0x15f8(%rbp)
   10a07:	7e 0c                	jle    10a15 <func_66+0x255c>
   10a09:	48 8d 05 38 b9 00 00 	lea    0xb938(%rip),%rax        # 1c348 <g_4+0x308>
   10a10:	e9 91 3d 00 00       	jmpq   147a6 <func_66+0x62ed>
   10a15:	48 8d 05 2c 01 01 00 	lea    0x1012c(%rip),%rax        # 20b48 <g_41>
   10a1c:	e9 85 3d 00 00       	jmpq   147a6 <func_66+0x62ed>
   10a21:	c7 85 44 ea ff ff 03 	movl   $0x3,-0x15bc(%rbp)
   10a28:	00 00 00 
   10a2b:	eb 1d                	jmp    10a4a <func_66+0x2591>
   10a2d:	48 8b 85 b0 ec ff ff 	mov    -0x1350(%rbp),%rax
   10a34:	48 c7 00 00 00 00 00 	movq   $0x0,(%rax)
   10a3b:	8b 85 44 ea ff ff    	mov    -0x15bc(%rbp),%eax
   10a41:	83 e8 01             	sub    $0x1,%eax
   10a44:	89 85 44 ea ff ff    	mov    %eax,-0x15bc(%rbp)
   10a4a:	8b 85 44 ea ff ff    	mov    -0x15bc(%rbp),%eax
   10a50:	85 c0                	test   %eax,%eax
   10a52:	79 d9                	jns    10a2d <func_66+0x2574>
   10a54:	c6 85 1d ea ff ff 00 	movb   $0x0,-0x15e3(%rbp)
   10a5b:	e9 05 05 00 00       	jmpq   10f65 <func_66+0x2aac>
   10a60:	c7 85 d8 ea ff ff 00 	movl   $0x0,-0x1528(%rbp)
   10a67:	00 00 00 
   10a6a:	48 8d 05 07 c1 00 00 	lea    0xc107(%rip),%rax        # 1cb78 <g_254>
   10a71:	48 89 85 60 ed ff ff 	mov    %rax,-0x12a0(%rbp)
   10a78:	48 8b 85 d8 eb ff ff 	mov    -0x1428(%rbp),%rax
   10a7f:	8b 08                	mov    (%rax),%ecx
   10a81:	0f b6 85 1d ea ff ff 	movzbl -0x15e3(%rbp),%eax
   10a88:	48 98                	cltq   
   10a8a:	0f b6 44 05 bf       	movzbl -0x41(%rbp,%rax,1),%eax
   10a8f:	0f b6 d0             	movzbl %al,%edx
   10a92:	48 8b 85 d8 eb ff ff 	mov    -0x1428(%rbp),%rax
   10a99:	21 ca                	and    %ecx,%edx
   10a9b:	89 10                	mov    %edx,(%rax)
   10a9d:	c6 05 d4 c0 00 00 00 	movb   $0x0,0xc0d4(%rip)        # 1cb78 <g_254>
   10aa4:	e9 53 03 00 00       	jmpq   10dfc <func_66+0x2943>
   10aa9:	48 8d 85 1b ea ff ff 	lea    -0x15e5(%rbp),%rax
   10ab0:	48 89 85 68 ed ff ff 	mov    %rax,-0x1298(%rbp)
   10ab7:	c7 85 dc ea ff ff d6 	movl   $0xa70a69d6,-0x1524(%rbp)
   10abe:	69 0a a7 
   10ac1:	c7 85 e0 ea ff ff b7 	movl   $0x28be11b7,-0x1520(%rbp)
   10ac8:	11 be 28 
   10acb:	c7 85 e4 ea ff ff 6c 	movl   $0x2e1e196c,-0x151c(%rbp)
   10ad2:	19 1e 2e 
   10ad5:	c7 85 e8 ea ff ff 42 	movl   $0x93b06242,-0x1518(%rbp)
   10adc:	62 b0 93 
   10adf:	c6 85 1f ea ff ff 07 	movb   $0x7,-0x15e1(%rbp)
   10ae6:	8b 1d 1c b8 00 00    	mov    0xb81c(%rip),%ebx        # 1c308 <g_4+0x2c8>
   10aec:	0f b6 85 1d ea ff ff 	movzbl -0x15e3(%rbp),%eax
   10af3:	83 c0 02             	add    $0x2,%eax
   10af6:	48 98                	cltq   
   10af8:	48 8d 14 85 00 00 00 	lea    0x0(,%rax,4),%rdx
   10aff:	00 
   10b00:	48 8d 05 a9 b8 00 00 	lea    0xb8a9(%rip),%rax        # 1c3b0 <g_38>
   10b07:	8b 04 02             	mov    (%rdx,%rax,1),%eax
   10b0a:	44 0f be e0          	movsbl %al,%r12d
   10b0e:	48 8b 85 88 eb ff ff 	mov    -0x1478(%rbp),%rax
   10b15:	48 c7 00 01 00 00 00 	movq   $0x1,(%rax)
   10b1c:	8b 85 08 ea ff ff    	mov    -0x15f8(%rbp),%eax
   10b22:	98                   	cwtl   
   10b23:	89 c6                	mov    %eax,%esi
   10b25:	bf 00 00 00 00       	mov    $0x0,%edi
   10b2a:	e8 e7 88 ff ff       	callq  9416 <safe_mod_func_int16_t_s_s>
   10b2f:	48 8b 05 1a 00 01 00 	mov    0x1001a(%rip),%rax        # 20b50 <g_109>
   10b36:	48 8b 00             	mov    (%rax),%rax
   10b39:	48 83 f8 01          	cmp    $0x1,%rax
   10b3d:	7e 07                	jle    10b46 <func_66+0x268d>
   10b3f:	ba 97 95 00 00       	mov    $0x9597,%edx
   10b44:	eb 05                	jmp    10b4b <func_66+0x2692>
   10b46:	ba 96 95 00 00       	mov    $0x9596,%edx
   10b4b:	8b 85 08 ea ff ff    	mov    -0x15f8(%rbp),%eax
   10b51:	89 c6                	mov    %eax,%esi
   10b53:	89 d7                	mov    %edx,%edi
   10b55:	e8 ee 92 ff ff       	callq  9e48 <safe_rshift_func_uint16_t_u_s>
   10b5a:	48 8b 85 a8 ec ff ff 	mov    -0x1358(%rbp),%rax
   10b61:	48 8b 10             	mov    (%rax),%rdx
   10b64:	48 8b 05 e5 ff 00 00 	mov    0xffe5(%rip),%rax        # 20b50 <g_109>
   10b6b:	48 8b 00             	mov    (%rax),%rax
   10b6e:	48 31 c2             	xor    %rax,%rdx
   10b71:	48 8b 85 a8 ec ff ff 	mov    -0x1358(%rbp),%rax
   10b78:	48 89 10             	mov    %rdx,(%rax)
   10b7b:	48 8b 85 a8 ec ff ff 	mov    -0x1358(%rbp),%rax
   10b82:	48 8b 00             	mov    (%rax),%rax
   10b85:	48 83 f8 01          	cmp    $0x1,%rax
   10b89:	76 0a                	jbe    10b95 <func_66+0x26dc>
   10b8b:	66 83 bd 26 ea ff ff 	cmpw   $0x0,-0x15da(%rbp)
   10b92:	00 
   10b93:	74 07                	je     10b9c <func_66+0x26e3>
   10b95:	b8 01 00 00 00       	mov    $0x1,%eax
   10b9a:	eb 05                	jmp    10ba1 <func_66+0x26e8>
   10b9c:	b8 00 00 00 00       	mov    $0x0,%eax
   10ba1:	be 01 00 00 00       	mov    $0x1,%esi
   10ba6:	89 c7                	mov    %eax,%edi
   10ba8:	e8 1f 8b ff ff       	callq  96cc <safe_mod_func_int32_t_s_s>
   10bad:	39 85 0c ea ff ff    	cmp    %eax,-0x15f4(%rbp)
   10bb3:	0f 97 c0             	seta   %al
   10bb6:	0f b6 d0             	movzbl %al,%edx
   10bb9:	8b 05 89 b7 00 00    	mov    0xb789(%rip),%eax        # 1c348 <g_4+0x308>
   10bbf:	39 c2                	cmp    %eax,%edx
   10bc1:	0f 95 c0             	setne  %al
   10bc4:	0f b6 c0             	movzbl %al,%eax
   10bc7:	be 01 00 00 00       	mov    $0x1,%esi
   10bcc:	89 c7                	mov    %eax,%edi
   10bce:	e8 e0 87 ff ff       	callq  93b3 <safe_add_func_int16_t_s_s>
   10bd3:	8b 05 6f ff 00 00    	mov    0xff6f(%rip),%eax        # 20b48 <g_41>
   10bd9:	0f be c0             	movsbl %al,%eax
   10bdc:	44 89 e6             	mov    %r12d,%esi
   10bdf:	89 c7                	mov    %eax,%edi
   10be1:	e8 84 86 ff ff       	callq  926a <safe_div_func_int8_t_s_s>
   10be6:	0f b6 85 1d ea ff ff 	movzbl -0x15e3(%rbp),%eax
   10bed:	83 c0 02             	add    $0x2,%eax
   10bf0:	48 98                	cltq   
   10bf2:	48 8d 14 85 00 00 00 	lea    0x0(,%rax,4),%rdx
   10bf9:	00 
   10bfa:	48 8d 05 af b7 00 00 	lea    0xb7af(%rip),%rax        # 1c3b0 <g_38>
   10c01:	8b 04 02             	mov    (%rdx,%rax,1),%eax
   10c04:	39 85 0c ea ff ff    	cmp    %eax,-0x15f4(%rbp)
   10c0a:	0f 94 c0             	sete   %al
   10c0d:	0f b6 c0             	movzbl %al,%eax
   10c10:	89 de                	mov    %ebx,%esi
   10c12:	89 c7                	mov    %eax,%edi
   10c14:	e8 a5 91 ff ff       	callq  9dbe <safe_lshift_func_uint16_t_u_s>
   10c19:	66 85 c0             	test   %ax,%ax
   10c1c:	0f 84 70 01 00 00    	je     10d92 <func_66+0x28d9>
   10c22:	c7 85 ec ea ff ff 92 	movl   $0xb8eb0a92,-0x1514(%rbp)
   10c29:	0a eb b8 
   10c2c:	48 8d 05 39 ff 00 00 	lea    0xff39(%rip),%rax        # 20b6c <g_280>
   10c33:	48 89 85 80 ed ff ff 	mov    %rax,-0x1280(%rbp)
   10c3a:	c7 85 6c ea ff ff 00 	movl   $0x0,-0x1594(%rbp)
   10c41:	00 00 00 
   10c44:	eb 1e                	jmp    10c64 <func_66+0x27ab>
   10c46:	8b 85 6c ea ff ff    	mov    -0x1594(%rbp),%eax
   10c4c:	48 98                	cltq   
   10c4e:	48 8d 95 f0 eb ff ff 	lea    -0x1410(%rbp),%rdx
   10c55:	48 89 94 c5 10 fa ff 	mov    %rdx,-0x5f0(%rbp,%rax,8)
   10c5c:	ff 
   10c5d:	83 85 6c ea ff ff 01 	addl   $0x1,-0x1594(%rbp)
   10c64:	83 bd 6c ea ff ff 01 	cmpl   $0x1,-0x1594(%rbp)
   10c6b:	7e d9                	jle    10c46 <func_66+0x278d>
   10c6d:	48 8b 85 78 eb ff ff 	mov    -0x1488(%rbp),%rax
   10c74:	66 c7 00 3f ca       	movw   $0xca3f,(%rax)
   10c79:	48 8b 05 e0 e5 00 00 	mov    0xe5e0(%rip),%rax        # 1f260 <g_447>
   10c80:	0f b6 00             	movzbl (%rax),%eax
   10c83:	0f be d8             	movsbl %al,%ebx
   10c86:	44 8b a5 ec ea ff ff 	mov    -0x1514(%rbp),%r12d
   10c8d:	44 8b ad 08 ea ff ff 	mov    -0x15f8(%rbp),%r13d
   10c94:	0f b6 05 2d b7 00 00 	movzbl 0xb72d(%rip),%eax        # 1c3c8 <g_59>
   10c9b:	44 0f b6 f0          	movzbl %al,%r14d
   10c9f:	0f b6 85 1d ea ff ff 	movzbl -0x15e3(%rbp),%eax
   10ca6:	83 c0 02             	add    $0x2,%eax
   10ca9:	48 98                	cltq   
   10cab:	48 8d 14 85 00 00 00 	lea    0x0(,%rax,4),%rdx
   10cb2:	00 
   10cb3:	48 8d 05 f6 b6 00 00 	lea    0xb6f6(%rip),%rax        # 1c3b0 <g_38>
   10cba:	8b 04 02             	mov    (%rdx,%rax,1),%eax
   10cbd:	44 0f b6 f8          	movzbl %al,%r15d
   10cc1:	48 8d 05 c0 be 00 00 	lea    0xbec0(%rip),%rax        # 1cb88 <g_448>
   10cc8:	48 89 85 40 ec ff ff 	mov    %rax,-0x13c0(%rbp)
   10ccf:	48 8b 05 8a e5 00 00 	mov    0xe58a(%rip),%rax        # 1f260 <g_447>
   10cd6:	48 39 85 40 ec ff ff 	cmp    %rax,-0x13c0(%rbp)
   10cdd:	0f 94 c0             	sete   %al
   10ce0:	0f b6 c0             	movzbl %al,%eax
   10ce3:	be 01 00 00 00       	mov    $0x1,%esi
   10ce8:	48 89 c7             	mov    %rax,%rdi
   10ceb:	e8 90 93 ff ff       	callq  a080 <safe_mod_func_uint64_t_u_u>
   10cf0:	0f b6 c0             	movzbl %al,%eax
   10cf3:	44 89 fe             	mov    %r15d,%esi
   10cf6:	89 c7                	mov    %eax,%edi
   10cf8:	e8 96 8e ff ff       	callq  9b93 <safe_mul_func_uint8_t_u_u>
   10cfd:	48 8b 85 88 eb ff ff 	mov    -0x1478(%rbp),%rax
   10d04:	48 8b 10             	mov    (%rax),%rdx
   10d07:	48 83 ea 01          	sub    $0x1,%rdx
   10d0b:	48 89 10             	mov    %rdx,(%rax)
   10d0e:	48 c7 85 68 ed ff ff 	movq   $0x0,-0x1298(%rbp)
   10d15:	00 00 00 00 
   10d19:	48 8d 85 1b ea ff ff 	lea    -0x15e5(%rbp),%rax
   10d20:	48 39 85 68 ed ff ff 	cmp    %rax,-0x1298(%rbp)
   10d27:	74 07                	je     10d30 <func_66+0x2877>
   10d29:	b8 ab 00 00 00       	mov    $0xab,%eax
   10d2e:	eb 05                	jmp    10d35 <func_66+0x287c>
   10d30:	b8 aa 00 00 00       	mov    $0xaa,%eax
   10d35:	44 89 f6             	mov    %r14d,%esi
   10d38:	89 c7                	mov    %eax,%edi
   10d3a:	e8 c0 8f ff ff       	callq  9cff <safe_add_func_uint16_t_u_u>
   10d3f:	0f b7 c0             	movzwl %ax,%eax
   10d42:	44 89 ee             	mov    %r13d,%esi
   10d45:	89 c7                	mov    %eax,%edi
   10d47:	e8 6c 91 ff ff       	callq  9eb8 <safe_add_func_uint32_t_u_u>
   10d4c:	0f be c0             	movsbl %al,%eax
   10d4f:	44 89 e6             	mov    %r12d,%esi
   10d52:	89 c7                	mov    %eax,%edi
   10d54:	e8 95 85 ff ff       	callq  92ee <safe_lshift_func_int8_t_s_u>
   10d59:	0f be c0             	movsbl %al,%eax
   10d5c:	89 de                	mov    %ebx,%esi
   10d5e:	89 c7                	mov    %eax,%edi
   10d60:	e8 cc 84 ff ff       	callq  9231 <safe_mod_func_int8_t_s_s>
   10d65:	0f be c0             	movsbl %al,%eax
   10d68:	83 e0 3f             	and    $0x3f,%eax
   10d6b:	be 44 00 00 00       	mov    $0x44,%esi
   10d70:	89 c7                	mov    %eax,%edi
   10d72:	e8 ba 84 ff ff       	callq  9231 <safe_mod_func_int8_t_s_s>
   10d77:	0f be d0             	movsbl %al,%edx
   10d7a:	48 8b 85 80 ed ff ff 	mov    -0x1280(%rbp),%rax
   10d81:	89 10                	mov    %edx,(%rax)
   10d83:	48 8b 85 d8 eb ff ff 	mov    -0x1428(%rbp),%rax
   10d8a:	c7 00 00 00 00 00    	movl   $0x0,(%rax)
   10d90:	eb 53                	jmp    10de5 <func_66+0x292c>
   10d92:	48 8d 85 44 ea ff ff 	lea    -0x15bc(%rbp),%rax
   10d99:	48 89 85 70 ed ff ff 	mov    %rax,-0x1290(%rbp)
   10da0:	48 8d 85 38 ea ff ff 	lea    -0x15c8(%rbp),%rax
   10da7:	48 89 85 78 ed ff ff 	mov    %rax,-0x1288(%rbp)
   10dae:	c7 85 8c ea ff ff 00 	movl   $0x0,-0x1574(%rbp)
   10db5:	00 00 00 
   10db8:	eb 1b                	jmp    10dd5 <func_66+0x291c>
   10dba:	8b 85 8c ea ff ff    	mov    -0x1574(%rbp),%eax
   10dc0:	48 98                	cltq   
   10dc2:	48 c7 84 c5 10 fa ff 	movq   $0x0,-0x5f0(%rbp,%rax,8)
   10dc9:	ff 00 00 00 00 
   10dce:	83 85 8c ea ff ff 01 	addl   $0x1,-0x1574(%rbp)
   10dd5:	83 bd 8c ea ff ff 09 	cmpl   $0x9,-0x1574(%rbp)
   10ddc:	7e dc                	jle    10dba <func_66+0x2901>
   10dde:	80 85 1f ea ff ff 01 	addb   $0x1,-0x15e1(%rbp)
   10de5:	83 bd e4 ea ff ff 00 	cmpl   $0x0,-0x151c(%rbp)
   10dec:	0f b6 05 85 bd 00 00 	movzbl 0xbd85(%rip),%eax        # 1cb78 <g_254>
   10df3:	83 c0 01             	add    $0x1,%eax
   10df6:	88 05 7c bd 00 00    	mov    %al,0xbd7c(%rip)        # 1cb78 <g_254>
   10dfc:	0f b6 05 75 bd 00 00 	movzbl 0xbd75(%rip),%eax        # 1cb78 <g_254>
   10e03:	3c 01                	cmp    $0x1,%al
   10e05:	0f 86 9e fc ff ff    	jbe    10aa9 <func_66+0x25f0>
   10e0b:	8b 85 d8 ea ff ff    	mov    -0x1528(%rbp),%eax
   10e11:	44 0f b7 e0          	movzwl %ax,%r12d
   10e15:	8b 05 c5 b4 00 00    	mov    0xb4c5(%rip),%eax        # 1c2e0 <g_4+0x2a0>
   10e1b:	44 0f bf e8          	movswl %ax,%r13d
   10e1f:	8b 85 08 ea ff ff    	mov    -0x15f8(%rbp),%eax
   10e25:	83 e0 01             	and    $0x1,%eax
   10e28:	41 89 c7             	mov    %eax,%r15d
   10e2b:	8b 15 6f b5 00 00    	mov    0xb56f(%rip),%edx        # 1c3a0 <g_34>
   10e31:	48 8b 05 18 fd 00 00 	mov    0xfd18(%rip),%rax        # 20b50 <g_109>
   10e38:	48 8b 00             	mov    (%rax),%rax
   10e3b:	66 0d 4e f9          	or     $0xf94e,%ax
   10e3f:	0f b7 c0             	movzwl %ax,%eax
   10e42:	89 d6                	mov    %edx,%esi
   10e44:	89 c7                	mov    %eax,%edi
   10e46:	e8 2f 90 ff ff       	callq  9e7a <safe_rshift_func_uint16_t_u_u>
   10e4b:	89 c2                	mov    %eax,%edx
   10e4d:	0f b7 05 04 fd 00 00 	movzwl 0xfd04(%rip),%eax        # 20b58 <g_148>
   10e54:	31 d0                	xor    %edx,%eax
   10e56:	44 0f b6 f0          	movzbl %al,%r14d
   10e5a:	48 8b 85 d8 eb ff ff 	mov    -0x1428(%rbp),%rax
   10e61:	8b 00                	mov    (%rax),%eax
   10e63:	0f b6 c0             	movzbl %al,%eax
   10e66:	0f b6 9d 1d ea ff ff 	movzbl -0x15e3(%rbp),%ebx
   10e6d:	be 00 00 00 00       	mov    $0x0,%esi
   10e72:	89 c7                	mov    %eax,%edi
   10e74:	e8 62 8d ff ff       	callq  9bdb <safe_div_func_uint8_t_u_u>
   10e79:	48 63 d3             	movslq %ebx,%rdx
   10e7c:	88 44 15 bf          	mov    %al,-0x41(%rbp,%rdx,1)
   10e80:	48 63 c3             	movslq %ebx,%rax
   10e83:	0f b6 44 05 bf       	movzbl -0x41(%rbp,%rax,1),%eax
   10e88:	0f b6 c0             	movzbl %al,%eax
   10e8b:	44 89 f6             	mov    %r14d,%esi
   10e8e:	89 c7                	mov    %eax,%edi
   10e90:	e8 c5 8c ff ff       	callq  9b5a <safe_add_func_uint8_t_u_u>
   10e95:	48 8b 85 d8 eb ff ff 	mov    -0x1428(%rbp),%rax
   10e9c:	c7 00 00 00 00 00    	movl   $0x0,(%rax)
   10ea2:	8b 00                	mov    (%rax),%eax
   10ea4:	41 39 c7             	cmp    %eax,%r15d
   10ea7:	74 09                	je     10eb2 <func_66+0x29f9>
   10ea9:	83 bd 0c ea ff ff 00 	cmpl   $0x0,-0x15f4(%rbp)
   10eb0:	74 07                	je     10eb9 <func_66+0x2a00>
   10eb2:	b8 01 00 00 00       	mov    $0x1,%eax
   10eb7:	eb 05                	jmp    10ebe <func_66+0x2a05>
   10eb9:	b8 00 00 00 00       	mov    $0x0,%eax
   10ebe:	3b 85 08 ea ff ff    	cmp    -0x15f8(%rbp),%eax
   10ec4:	7d 12                	jge    10ed8 <func_66+0x2a1f>
   10ec6:	0f b6 85 1c ea ff ff 	movzbl -0x15e4(%rbp),%eax
   10ecd:	84 c0                	test   %al,%al
   10ecf:	74 07                	je     10ed8 <func_66+0x2a1f>
   10ed1:	b8 01 00 00 00       	mov    $0x1,%eax
   10ed6:	eb 05                	jmp    10edd <func_66+0x2a24>
   10ed8:	b8 00 00 00 00       	mov    $0x0,%eax
   10edd:	0f be c0             	movsbl %al,%eax
   10ee0:	89 c6                	mov    %eax,%esi
   10ee2:	bf 00 00 00 00       	mov    $0x0,%edi
   10ee7:	e8 e8 82 ff ff       	callq  91d4 <safe_add_func_int8_t_s_s>
   10eec:	3c 01                	cmp    $0x1,%al
   10eee:	0f 9e c0             	setle  %al
   10ef1:	0f b6 d0             	movzbl %al,%edx
   10ef4:	48 8b 85 60 ed ff ff 	mov    -0x12a0(%rbp),%rax
   10efb:	0f b6 00             	movzbl (%rax),%eax
   10efe:	89 c1                	mov    %eax,%ecx
   10f00:	89 d0                	mov    %edx,%eax
   10f02:	09 c8                	or     %ecx,%eax
   10f04:	89 c2                	mov    %eax,%edx
   10f06:	48 8b 85 60 ed ff ff 	mov    -0x12a0(%rbp),%rax
   10f0d:	88 10                	mov    %dl,(%rax)
   10f0f:	48 8b 05 4a e3 00 00 	mov    0xe34a(%rip),%rax        # 1f260 <g_447>
   10f16:	0f b6 00             	movzbl (%rax),%eax
   10f19:	0f be c0             	movsbl %al,%eax
   10f1c:	89 c7                	mov    %eax,%edi
   10f1e:	e8 9c 82 ff ff       	callq  91bf <safe_unary_minus_func_int8_t_s>
   10f23:	0f be c0             	movsbl %al,%eax
   10f26:	44 89 ee             	mov    %r13d,%esi
   10f29:	89 c7                	mov    %eax,%edi
   10f2b:	e8 a3 84 ff ff       	callq  93d3 <safe_sub_func_int16_t_s_s>
   10f30:	0f b7 c0             	movzwl %ax,%eax
   10f33:	44 89 e6             	mov    %r12d,%esi
   10f36:	89 c7                	mov    %eax,%edi
   10f38:	e8 c2 8d ff ff       	callq  9cff <safe_add_func_uint16_t_u_u>
   10f3d:	98                   	cwtl   
   10f3e:	89 c7                	mov    %eax,%edi
   10f40:	e8 58 84 ff ff       	callq  939d <safe_unary_minus_func_int16_t_s>
   10f45:	0f b7 15 1c fc 00 00 	movzwl 0xfc1c(%rip),%edx        # 20b68 <g_248>
   10f4c:	66 39 d0             	cmp    %dx,%ax
   10f4f:	0f 95 c0             	setne  %al
   10f52:	0f b6 d0             	movzbl %al,%edx
   10f55:	48 8b 85 18 ec ff ff 	mov    -0x13e8(%rbp),%rax
   10f5c:	89 10                	mov    %edx,(%rax)
   10f5e:	80 85 1d ea ff ff 01 	addb   $0x1,-0x15e3(%rbp)
   10f65:	80 bd 1d ea ff ff 01 	cmpb   $0x1,-0x15e3(%rbp)
   10f6c:	0f 86 ee fa ff ff    	jbe    10a60 <func_66+0x25a7>
   10f72:	eb 2a                	jmp    10f9e <func_66+0x2ae5>
   10f74:	48 8d 85 38 ea ff ff 	lea    -0x15c8(%rbp),%rax
   10f7b:	48 89 85 a0 ec ff ff 	mov    %rax,-0x1360(%rbp)
   10f82:	48 8d 05 ef b1 00 00 	lea    0xb1ef(%rip),%rax        # 1c178 <g_4+0x138>
   10f89:	48 89 85 d8 eb ff ff 	mov    %rax,-0x1428(%rbp)
   10f90:	48 8b 85 d8 eb ff ff 	mov    -0x1428(%rbp),%rax
   10f97:	48 89 85 a0 ec ff ff 	mov    %rax,-0x1360(%rbp)
   10f9e:	48 8d 05 5f b2 00 00 	lea    0xb25f(%rip),%rax        # 1c204 <g_4+0x1c4>
   10fa5:	e9 fc 37 00 00       	jmpq   147a6 <func_66+0x62ed>
   10faa:	48 8b 85 38 ec ff ff 	mov    -0x13c8(%rbp),%rax
   10fb1:	48 8b 10             	mov    (%rax),%rdx
   10fb4:	48 8b 85 38 ec ff ff 	mov    -0x13c8(%rbp),%rax
   10fbb:	48 89 10             	mov    %rdx,(%rax)
   10fbe:	48 8b 85 98 eb ff ff 	mov    -0x1468(%rbp),%rax
   10fc5:	48 83 c0 01          	add    $0x1,%rax
   10fc9:	48 89 85 98 eb ff ff 	mov    %rax,-0x1468(%rbp)
   10fd0:	48 8b 05 c1 e1 00 00 	mov    0xe1c1(%rip),%rax        # 1f198 <g_350>
   10fd7:	48 8b 00             	mov    (%rax),%rax
   10fda:	0f b6 05 a7 bb 00 00 	movzbl 0xbba7(%rip),%eax        # 1cb88 <g_448>
   10fe1:	0f be c0             	movsbl %al,%eax
   10fe4:	be 03 00 00 00       	mov    $0x3,%esi
   10fe9:	89 c7                	mov    %eax,%edi
   10feb:	e8 b1 82 ff ff       	callq  92a1 <safe_lshift_func_int8_t_s_s>
   10ff0:	89 c2                	mov    %eax,%edx
   10ff2:	48 8b 85 a0 eb ff ff 	mov    -0x1460(%rbp),%rax
   10ff9:	48 0f be d2          	movsbq %dl,%rdx
   10ffd:	48 89 10             	mov    %rdx,(%rax)
   11000:	48 8b 85 a8 eb ff ff 	mov    -0x1458(%rbp),%rax
   11007:	48 c7 00 00 00 00 00 	movq   $0x0,(%rax)
   1100e:	48 8b 00             	mov    (%rax),%rax
   11011:	48 85 c0             	test   %rax,%rax
   11014:	0f 95 c0             	setne  %al
   11017:	0f b6 c0             	movzbl %al,%eax
   1101a:	be 06 00 00 00       	mov    $0x6,%esi
   1101f:	89 c7                	mov    %eax,%edi
   11021:	e8 98 8d ff ff       	callq  9dbe <safe_lshift_func_uint16_t_u_s>
   11026:	66 85 c0             	test   %ax,%ax
   11029:	0f 84 b7 1e 00 00    	je     12ee6 <func_66+0x4a2d>
   1102f:	48 8d 85 88 eb ff ff 	lea    -0x1478(%rbp),%rax
   11036:	48 89 85 28 ee ff ff 	mov    %rax,-0x11d8(%rbp)
   1103d:	c7 85 00 ec ff ff 31 	movl   $0x6cd25131,-0x1400(%rbp)
   11044:	51 d2 6c 
   11047:	48 8d 05 44 bb 00 00 	lea    0xbb44(%rip),%rax        # 1cb92 <g_642>
   1104e:	48 89 85 30 ee ff ff 	mov    %rax,-0x11d0(%rbp)
   11055:	48 b8 19 9d 14 72 1b 	movabs $0x8149c81b72149d19,%rax
   1105c:	c8 49 81 
   1105f:	48 89 85 38 ee ff ff 	mov    %rax,-0x11c8(%rbp)
   11066:	c7 85 10 eb ff ff c5 	movl   $0x4b5bbbc5,-0x14f0(%rbp)
   1106d:	bb 5b 4b 
   11070:	c7 85 14 eb ff ff 00 	movl   $0x0,-0x14ec(%rbp)
   11077:	00 00 00 
   1107a:	48 c7 85 40 ee ff ff 	movq   $0x0,-0x11c0(%rbp)
   11081:	00 00 00 00 
   11085:	c7 85 18 eb ff ff fd 	movl   $0xfffffffd,-0x14e8(%rbp)
   1108c:	ff ff ff 
   1108f:	c7 85 50 ef ff ff e3 	movl   $0x7ece75e3,-0x10b0(%rbp)
   11096:	75 ce 7e 
   11099:	c7 85 54 ef ff ff 8f 	movl   $0x2db5e98f,-0x10ac(%rbp)
   110a0:	e9 b5 2d 
   110a3:	c7 85 58 ef ff ff e3 	movl   $0x7ece75e3,-0x10a8(%rbp)
   110aa:	75 ce 7e 
   110ad:	c7 85 5c ef ff ff 8f 	movl   $0x2db5e98f,-0x10a4(%rbp)
   110b4:	e9 b5 2d 
   110b7:	c7 85 60 ef ff ff e3 	movl   $0x7ece75e3,-0x10a0(%rbp)
   110be:	75 ce 7e 
   110c1:	c7 85 64 ef ff ff 8f 	movl   $0x2db5e98f,-0x109c(%rbp)
   110c8:	e9 b5 2d 
   110cb:	c7 85 68 ef ff ff e3 	movl   $0x7ece75e3,-0x1098(%rbp)
   110d2:	75 ce 7e 
   110d5:	c7 85 6c ef ff ff 8f 	movl   $0x2db5e98f,-0x1094(%rbp)
   110dc:	e9 b5 2d 
   110df:	66 c7 05 70 fa 00 00 	movw   $0xa,0xfa70(%rip)        # 20b58 <g_148>
   110e6:	0a 00 
   110e8:	eb 3f                	jmp    11129 <func_66+0x2c70>
   110ea:	48 8b 85 18 ec ff ff 	mov    -0x13e8(%rbp),%rax
   110f1:	8b 10                	mov    (%rax),%edx
   110f3:	48 83 bd 28 ee ff ff 	cmpq   $0x0,-0x11d8(%rbp)
   110fa:	00 
   110fb:	0f 94 c0             	sete   %al
   110fe:	0f b6 c0             	movzbl %al,%eax
   11101:	09 c2                	or     %eax,%edx
   11103:	48 8b 85 18 ec ff ff 	mov    -0x13e8(%rbp),%rax
   1110a:	89 10                	mov    %edx,(%rax)
   1110c:	0f b7 05 45 fa 00 00 	movzwl 0xfa45(%rip),%eax        # 20b58 <g_148>
   11113:	0f b7 c0             	movzwl %ax,%eax
   11116:	be 08 00 00 00       	mov    $0x8,%esi
   1111b:	89 c7                	mov    %eax,%edi
   1111d:	e8 96 8d ff ff       	callq  9eb8 <safe_add_func_uint32_t_u_u>
   11122:	66 89 05 2f fa 00 00 	mov    %ax,0xfa2f(%rip)        # 20b58 <g_148>
   11129:	0f b7 05 28 fa 00 00 	movzwl 0xfa28(%rip),%eax        # 20b58 <g_148>
   11130:	66 83 f8 15          	cmp    $0x15,%ax
   11134:	77 b4                	ja     110ea <func_66+0x2c31>
   11136:	48 c7 05 7f b2 00 00 	movq   $0xd,0xb27f(%rip)        # 1c3c0 <g_57>
   1113d:	0d 00 00 00 
   11141:	e9 b8 00 00 00       	jmpq   111fe <func_66+0x2d45>
   11146:	c7 85 64 eb ff ff ff 	movl   $0xffffffff,-0x149c(%rbp)
   1114d:	ff ff ff 
   11150:	48 8b 85 18 ec ff ff 	mov    -0x13e8(%rbp),%rax
   11157:	8b 10                	mov    (%rax),%edx
   11159:	48 8b 05 28 e0 00 00 	mov    0xe028(%rip),%rax        # 1f188 <g_267>
   11160:	8b 00                	mov    (%rax),%eax
   11162:	09 c2                	or     %eax,%edx
   11164:	48 8b 85 18 ec ff ff 	mov    -0x13e8(%rbp),%rax
   1116b:	89 10                	mov    %edx,(%rax)
   1116d:	48 8b 85 18 ec ff ff 	mov    -0x13e8(%rbp),%rax
   11174:	8b 00                	mov    (%rax),%eax
   11176:	39 85 64 eb ff ff    	cmp    %eax,-0x149c(%rbp)
   1117c:	0f 9d c0             	setge  %al
   1117f:	0f b6 d0             	movzbl %al,%edx
   11182:	83 bd 08 ea ff ff 00 	cmpl   $0x0,-0x15f8(%rbp)
   11189:	0f 95 c0             	setne  %al
   1118c:	0f b6 c0             	movzbl %al,%eax
   1118f:	39 c2                	cmp    %eax,%edx
   11191:	0f 9c c0             	setl   %al
   11194:	0f b6 c0             	movzbl %al,%eax
   11197:	be 07 00 00 00       	mov    $0x7,%esi
   1119c:	89 c7                	mov    %eax,%edi
   1119e:	e8 3e 83 ff ff       	callq  94e1 <safe_lshift_func_int16_t_s_u>
   111a3:	0f b6 c0             	movzbl %al,%eax
   111a6:	be 04 00 00 00       	mov    $0x4,%esi
   111ab:	89 c7                	mov    %eax,%edi
   111ad:	e8 53 8a ff ff       	callq  9c05 <safe_lshift_func_uint8_t_u_s>
   111b2:	3c f8                	cmp    $0xf8,%al
   111b4:	0f 94 c2             	sete   %dl
   111b7:	48 8b 05 ca df 00 00 	mov    0xdfca(%rip),%rax        # 1f188 <g_267>
   111be:	0f b6 d2             	movzbl %dl,%edx
   111c1:	89 10                	mov    %edx,(%rax)
   111c3:	c6 05 ae b9 00 00 0b 	movb   $0xb,0xb9ae(%rip)        # 1cb78 <g_254>
   111ca:	90                   	nop
   111cb:	0f b6 05 a6 b9 00 00 	movzbl 0xb9a6(%rip),%eax        # 1cb78 <g_254>
   111d2:	3c 1d                	cmp    $0x1d,%al
   111d4:	76 0c                	jbe    111e2 <func_66+0x2d29>
   111d6:	48 8b 85 48 ec ff ff 	mov    -0x13b8(%rbp),%rax
   111dd:	e9 c4 35 00 00       	jmpq   147a6 <func_66+0x62ed>
   111e2:	48 8b 05 d7 b1 00 00 	mov    0xb1d7(%rip),%rax        # 1c3c0 <g_57>
   111e9:	be 08 00 00 00       	mov    $0x8,%esi
   111ee:	89 c7                	mov    %eax,%edi
   111f0:	e8 db 8c ff ff       	callq  9ed0 <safe_sub_func_uint32_t_u_u>
   111f5:	89 c0                	mov    %eax,%eax
   111f7:	48 89 05 c2 b1 00 00 	mov    %rax,0xb1c2(%rip)        # 1c3c0 <g_57>
   111fe:	48 8b 05 bb b1 00 00 	mov    0xb1bb(%rip),%rax        # 1c3c0 <g_57>
   11205:	48 83 f8 fe          	cmp    $0xfffffffffffffffe,%rax
   11209:	0f 8c 37 ff ff ff    	jl     11146 <func_66+0x2c8d>
   1120f:	48 8b 85 38 ec ff ff 	mov    -0x13c8(%rbp),%rax
   11216:	48 8b 10             	mov    (%rax),%rdx
   11219:	48 8b 85 38 ec ff ff 	mov    -0x13c8(%rbp),%rax
   11220:	48 89 10             	mov    %rdx,(%rax)
   11223:	48 8b 05 5e df 00 00 	mov    0xdf5e(%rip),%rax        # 1f188 <g_267>
   1122a:	8b 00                	mov    (%rax),%eax
   1122c:	85 c0                	test   %eax,%eax
   1122e:	0f 84 69 0f 00 00    	je     1219d <func_66+0x3ce4>
   11234:	48 8d 85 1c ea ff ff 	lea    -0x15e4(%rbp),%rax
   1123b:	48 89 85 78 ee ff ff 	mov    %rax,-0x1188(%rbp)
   11242:	48 8d 05 43 b9 00 00 	lea    0xb943(%rip),%rax        # 1cb8c <g_540>
   11249:	48 89 85 80 ee ff ff 	mov    %rax,-0x1180(%rbp)
   11250:	48 8d 05 21 b9 00 00 	lea    0xb921(%rip),%rax        # 1cb78 <g_254>
   11257:	48 89 85 88 ee ff ff 	mov    %rax,-0x1178(%rbp)
   1125e:	c6 85 22 ea ff ff 28 	movb   $0x28,-0x15de(%rbp)
   11265:	66 c7 85 32 ea ff ff 	movw   $0x4,-0x15ce(%rbp)
   1126c:	04 00 
   1126e:	c7 85 e0 ef ff ff 1f 	movl   $0x3e30681f,-0x1020(%rbp)
   11275:	68 30 3e 
   11278:	c7 85 e4 ef ff ff f6 	movl   $0xfffffff6,-0x101c(%rbp)
   1127f:	ff ff ff 
   11282:	c7 85 e8 ef ff ff 1f 	movl   $0x3e30681f,-0x1018(%rbp)
   11289:	68 30 3e 
   1128c:	c7 85 ec ef ff ff 1f 	movl   $0x3e30681f,-0x1014(%rbp)
   11293:	68 30 3e 
   11296:	c7 85 f0 ef ff ff f6 	movl   $0xfffffff6,-0x1010(%rbp)
   1129d:	ff ff ff 
   112a0:	c7 85 f4 ef ff ff 1f 	movl   $0x3e30681f,-0x100c(%rbp)
   112a7:	68 30 3e 
   112aa:	c7 85 f8 ef ff ff 1f 	movl   $0x3e30681f,-0x1008(%rbp)
   112b1:	68 30 3e 
   112b4:	c7 85 fc ef ff ff f6 	movl   $0xfffffff6,-0x1004(%rbp)
   112bb:	ff ff ff 
   112be:	c7 85 50 eb ff ff 8c 	movl   $0xa40f358c,-0x14b0(%rbp)
   112c5:	35 0f a4 
   112c8:	c7 85 90 ea ff ff 00 	movl   $0x0,-0x1570(%rbp)
   112cf:	00 00 00 
   112d2:	eb 1a                	jmp    112ee <func_66+0x2e35>
   112d4:	8b 85 90 ea ff ff    	mov    -0x1570(%rbp),%eax
   112da:	48 98                	cltq   
   112dc:	c7 84 85 10 ef ff ff 	movl   $0xf6fefb23,-0x10f0(%rbp,%rax,4)
   112e3:	23 fb fe f6 
   112e7:	83 85 90 ea ff ff 01 	addl   $0x1,-0x1570(%rbp)
   112ee:	83 bd 90 ea ff ff 03 	cmpl   $0x3,-0x1570(%rbp)
   112f5:	7e dd                	jle    112d4 <func_66+0x2e1b>
   112f7:	c7 85 90 ea ff ff 00 	movl   $0x0,-0x1570(%rbp)
   112fe:	00 00 00 
   11301:	eb 1e                	jmp    11321 <func_66+0x2e68>
   11303:	8b 85 90 ea ff ff    	mov    -0x1570(%rbp),%eax
   11309:	48 98                	cltq   
   1130b:	48 8d 95 88 eb ff ff 	lea    -0x1478(%rbp),%rdx
   11312:	48 89 94 c5 30 ef ff 	mov    %rdx,-0x10d0(%rbp,%rax,8)
   11319:	ff 
   1131a:	83 85 90 ea ff ff 01 	addl   $0x1,-0x1570(%rbp)
   11321:	83 bd 90 ea ff ff 01 	cmpl   $0x1,-0x1570(%rbp)
   11328:	7e d9                	jle    11303 <func_66+0x2e4a>
   1132a:	48 8b 85 18 ec ff ff 	mov    -0x13e8(%rbp),%rax
   11331:	8b 00                	mov    (%rax),%eax
   11333:	83 c8 04             	or     $0x4,%eax
   11336:	89 c2                	mov    %eax,%edx
   11338:	48 8b 85 18 ec ff ff 	mov    -0x13e8(%rbp),%rax
   1133f:	89 10                	mov    %edx,(%rax)
   11341:	48 8b 85 38 ec ff ff 	mov    -0x13c8(%rbp),%rax
   11348:	48 8b 10             	mov    (%rax),%rdx
   1134b:	48 8b 85 38 ec ff ff 	mov    -0x13c8(%rbp),%rax
   11352:	48 89 10             	mov    %rdx,(%rax)
   11355:	8b 85 14 ef ff ff    	mov    -0x10ec(%rbp),%eax
   1135b:	83 e8 01             	sub    $0x1,%eax
   1135e:	89 85 14 ef ff ff    	mov    %eax,-0x10ec(%rbp)
   11364:	4c 8b 35 35 b7 00 00 	mov    0xb735(%rip),%r14        # 1caa0 <g_77+0x6c0>
   1136b:	8b 05 fb f7 00 00    	mov    0xf7fb(%rip),%eax        # 20b6c <g_280>
   11371:	83 c0 01             	add    $0x1,%eax
   11374:	89 05 f2 f7 00 00    	mov    %eax,0xf7f2(%rip)        # 20b6c <g_280>
   1137a:	44 8b 3d eb f7 00 00 	mov    0xf7eb(%rip),%r15d        # 20b6c <g_280>
   11381:	8b 9d 0c ea ff ff    	mov    -0x15f4(%rbp),%ebx
   11387:	8b 85 14 ef ff ff    	mov    -0x10ec(%rbp),%eax
   1138d:	89 85 04 ea ff ff    	mov    %eax,-0x15fc(%rbp)
   11393:	0f b7 05 be f7 00 00 	movzwl 0xf7be(%rip),%eax        # 20b58 <g_148>
   1139a:	44 0f be e0          	movsbl %al,%r12d
   1139e:	48 8b 05 fb b6 00 00 	mov    0xb6fb(%rip),%rax        # 1caa0 <g_77+0x6c0>
   113a5:	89 85 00 ea ff ff    	mov    %eax,-0x1600(%rbp)
   113ab:	48 8b 05 d6 dd 00 00 	mov    0xddd6(%rip),%rax        # 1f188 <g_267>
   113b2:	48 8b 95 18 ec ff ff 	mov    -0x13e8(%rbp),%rdx
   113b9:	8b 12                	mov    (%rdx),%edx
   113bb:	89 10                	mov    %edx,(%rax)
   113bd:	44 8b ad 14 ef ff ff 	mov    -0x10ec(%rbp),%r13d
   113c4:	8b 85 08 ea ff ff    	mov    -0x15f8(%rbp),%eax
   113ca:	0f b6 d0             	movzbl %al,%edx
   113cd:	8b 85 0c ea ff ff    	mov    -0x15f4(%rbp),%eax
   113d3:	89 c6                	mov    %eax,%esi
   113d5:	48 83 bd 80 ee ff ff 	cmpq   $0x0,-0x1180(%rbp)
   113dc:	00 
   113dd:	0f 94 c1             	sete   %cl
   113e0:	48 8b 85 88 eb ff ff 	mov    -0x1478(%rbp),%rax
   113e7:	0f b6 c9             	movzbl %cl,%ecx
   113ea:	48 89 08             	mov    %rcx,(%rax)
   113ed:	48 8b 00             	mov    (%rax),%rax
   113f0:	89 f1                	mov    %esi,%ecx
   113f2:	21 c1                	and    %eax,%ecx
   113f4:	48 8b 85 88 ee ff ff 	mov    -0x1178(%rbp),%rax
   113fb:	88 08                	mov    %cl,(%rax)
   113fd:	48 8b 85 88 ee ff ff 	mov    -0x1178(%rbp),%rax
   11404:	0f b6 00             	movzbl (%rax),%eax
   11407:	0f b6 c0             	movzbl %al,%eax
   1140a:	89 d6                	mov    %edx,%esi
   1140c:	89 c7                	mov    %eax,%edi
   1140e:	e8 80 87 ff ff       	callq  9b93 <safe_mul_func_uint8_t_u_u>
   11413:	0f b7 05 3a 5c 00 00 	movzwl 0x5c3a(%rip),%eax        # 17054 <g_90>
   1141a:	48 83 bd 50 ec ff ff 	cmpq   $0x0,-0x13b0(%rbp)
   11421:	00 
   11422:	0f 95 c0             	setne  %al
   11425:	0f b6 c0             	movzbl %al,%eax
   11428:	44 89 ee             	mov    %r13d,%esi
   1142b:	89 c7                	mov    %eax,%edi
   1142d:	e8 af 80 ff ff       	callq  94e1 <safe_lshift_func_int16_t_s_u>
   11432:	44 0f bf e8          	movswl %ax,%r13d
   11436:	48 8b 15 23 de 00 00 	mov    0xde23(%rip),%rdx        # 1f260 <g_447>
   1143d:	48 8b 05 1c de 00 00 	mov    0xde1c(%rip),%rax        # 1f260 <g_447>
   11444:	0f b6 12             	movzbl (%rdx),%edx
   11447:	88 10                	mov    %dl,(%rax)
   11449:	0f b6 00             	movzbl (%rax),%eax
   1144c:	0f be c0             	movsbl %al,%eax
   1144f:	be 01 00 00 00       	mov    $0x1,%esi
   11454:	89 c7                	mov    %eax,%edi
   11456:	e8 11 7f ff ff       	callq  936c <safe_rshift_func_int8_t_s_u>
   1145b:	0f be c0             	movsbl %al,%eax
   1145e:	44 89 ee             	mov    %r13d,%esi
   11461:	89 c7                	mov    %eax,%edi
   11463:	e8 79 80 ff ff       	callq  94e1 <safe_lshift_func_int16_t_s_u>
   11468:	8b 85 08 ea ff ff    	mov    -0x15f8(%rbp),%eax
   1146e:	98                   	cwtl   
   1146f:	89 c7                	mov    %eax,%edi
   11471:	e8 27 7f ff ff       	callq  939d <safe_unary_minus_func_int16_t_s>
   11476:	98                   	cwtl   
   11477:	8b b5 00 ea ff ff    	mov    -0x1600(%rbp),%esi
   1147d:	89 c7                	mov    %eax,%edi
   1147f:	e8 81 81 ff ff       	callq  9605 <safe_sub_func_int32_t_s_s>
   11484:	0f be c0             	movsbl %al,%eax
   11487:	44 89 e6             	mov    %r12d,%esi
   1148a:	89 c7                	mov    %eax,%edi
   1148c:	e8 43 7d ff ff       	callq  91d4 <safe_add_func_int8_t_s_s>
   11491:	48 8b 95 40 ec ff ff 	mov    -0x13c0(%rbp),%rdx
   11498:	88 02                	mov    %al,(%rdx)
   1149a:	48 8b 85 40 ec ff ff 	mov    -0x13c0(%rbp),%rax
   114a1:	0f b6 00             	movzbl (%rax),%eax
   114a4:	0f be c0             	movsbl %al,%eax
   114a7:	39 85 04 ea ff ff    	cmp    %eax,-0x15fc(%rbp)
   114ad:	0f 92 c2             	setb   %dl
   114b0:	48 8b 85 a0 eb ff ff 	mov    -0x1460(%rbp),%rax
   114b7:	0f b6 d2             	movzbl %dl,%edx
   114ba:	48 89 10             	mov    %rdx,(%rax)
   114bd:	48 8b 00             	mov    (%rax),%rax
   114c0:	48 89 de             	mov    %rbx,%rsi
   114c3:	48 89 c7             	mov    %rax,%rdi
   114c6:	e8 2c 85 ff ff       	callq  99f7 <safe_div_func_int64_t_s_s>
   114cb:	48 3d 18 48 57 53    	cmp    $0x53574818,%rax
   114d1:	0f 94 c0             	sete   %al
   114d4:	0f b6 c0             	movzbl %al,%eax
   114d7:	41 39 c7             	cmp    %eax,%r15d
   114da:	0f 93 c0             	setae  %al
   114dd:	0f b6 c0             	movzbl %al,%eax
   114e0:	49 39 c6             	cmp    %rax,%r14
   114e3:	0f 9f c0             	setg   %al
   114e6:	0f b6 d8             	movzbl %al,%ebx
   114e9:	48 8b 85 78 ee ff ff 	mov    -0x1188(%rbp),%rax
   114f0:	0f b6 00             	movzbl (%rax),%eax
   114f3:	8d 50 01             	lea    0x1(%rax),%edx
   114f6:	48 8b 85 78 ee ff ff 	mov    -0x1188(%rbp),%rax
   114fd:	88 10                	mov    %dl,(%rax)
   114ff:	48 8b 85 78 ee ff ff 	mov    -0x1188(%rbp),%rax
   11506:	0f b6 00             	movzbl (%rax),%eax
   11509:	0f b6 c0             	movzbl %al,%eax
   1150c:	be fa 00 00 00       	mov    $0xfa,%esi
   11511:	89 c7                	mov    %eax,%edi
   11513:	e8 60 86 ff ff       	callq  9b78 <safe_sub_func_uint8_t_u_u>
   11518:	0f b6 c0             	movzbl %al,%eax
   1151b:	89 de                	mov    %ebx,%esi
   1151d:	89 c7                	mov    %eax,%edi
   1151f:	e8 6f 86 ff ff       	callq  9b93 <safe_mul_func_uint8_t_u_u>
   11524:	84 c0                	test   %al,%al
   11526:	0f 84 c2 01 00 00    	je     116ee <func_66+0x3235>
   1152c:	c7 85 60 eb ff ff 3a 	movl   $0xa51e853a,-0x14a0(%rbp)
   11533:	85 1e a5 
   11536:	48 8d 05 2d f6 00 00 	lea    0xf62d(%rip),%rax        # 20b6a <g_250>
   1153d:	48 89 85 d8 ee ff ff 	mov    %rax,-0x1128(%rbp)
   11544:	48 8d 85 10 fa ff ff 	lea    -0x5f0(%rbp),%rax
   1154b:	48 8d 15 ee 64 00 00 	lea    0x64ee(%rip),%rdx        # 17a40 <g_1737+0x9ae>
   11552:	b9 78 00 00 00       	mov    $0x78,%ecx
   11557:	48 89 c7             	mov    %rax,%rdi
   1155a:	48 89 d6             	mov    %rdx,%rsi
   1155d:	f3 48 a5             	rep movsq %ds:(%rsi),%es:(%rdi)
   11560:	48 c7 85 a0 f2 ff ff 	movq   $0x0,-0xd60(%rbp)
   11567:	00 00 00 00 
   1156b:	48 8d 85 34 ea ff ff 	lea    -0x15cc(%rbp),%rax
   11572:	48 89 85 a8 f2 ff ff 	mov    %rax,-0xd58(%rbp)
   11579:	48 c7 85 b0 f2 ff ff 	movq   $0x0,-0xd50(%rbp)
   11580:	00 00 00 00 
   11584:	48 c7 85 b8 f2 ff ff 	movq   $0x0,-0xd48(%rbp)
   1158b:	00 00 00 00 
   1158f:	48 c7 85 c0 f2 ff ff 	movq   $0x0,-0xd40(%rbp)
   11596:	00 00 00 00 
   1159a:	48 c7 85 c8 f2 ff ff 	movq   $0x0,-0xd38(%rbp)
   115a1:	00 00 00 00 
   115a5:	48 8d 85 34 ea ff ff 	lea    -0x15cc(%rbp),%rax
   115ac:	48 89 85 d0 f2 ff ff 	mov    %rax,-0xd30(%rbp)
   115b3:	48 c7 85 d8 f2 ff ff 	movq   $0x0,-0xd28(%rbp)
   115ba:	00 00 00 00 
   115be:	48 c7 85 e0 f2 ff ff 	movq   $0x0,-0xd20(%rbp)
   115c5:	00 00 00 00 
   115c9:	48 c7 85 e8 f2 ff ff 	movq   $0x0,-0xd18(%rbp)
   115d0:	00 00 00 00 
   115d4:	48 8b 05 a5 b5 00 00 	mov    0xb5a5(%rip),%rax        # 1cb80 <g_351>
   115db:	89 c3                	mov    %eax,%ebx
   115dd:	8b 85 14 ef ff ff    	mov    -0x10ec(%rbp),%eax
   115e3:	41 89 c4             	mov    %eax,%r12d
   115e6:	be 0d 00 00 00       	mov    $0xd,%esi
   115eb:	bf 50 20 00 00       	mov    $0x2050,%edi
   115f0:	e8 c9 87 ff ff       	callq  9dbe <safe_lshift_func_uint16_t_u_s>
   115f5:	66 85 c0             	test   %ax,%ax
   115f8:	75 1f                	jne    11619 <func_66+0x3160>
   115fa:	48 c7 c6 ff ff ff ff 	mov    $0xffffffffffffffff,%rsi
   11601:	48 c7 c7 ff ff ff ff 	mov    $0xffffffffffffffff,%rdi
   11608:	e8 3e 8a ff ff       	callq  a04b <safe_sub_func_uint64_t_u_u>
   1160d:	48 8b 95 50 fb ff ff 	mov    -0x4b0(%rbp),%rdx
   11614:	48 39 d0             	cmp    %rdx,%rax
   11617:	72 07                	jb     11620 <func_66+0x3167>
   11619:	b8 01 00 00 00       	mov    $0x1,%eax
   1161e:	eb 05                	jmp    11625 <func_66+0x316c>
   11620:	b8 00 00 00 00       	mov    $0x0,%eax
   11625:	0c a2                	or     $0xa2,%al
   11627:	0f b7 d0             	movzwl %ax,%edx
   1162a:	48 8b 85 d8 ee ff ff 	mov    -0x1128(%rbp),%rax
   11631:	0f b7 00             	movzwl (%rax),%eax
   11634:	83 c8 04             	or     $0x4,%eax
   11637:	89 c1                	mov    %eax,%ecx
   11639:	48 8b 85 d8 ee ff ff 	mov    -0x1128(%rbp),%rax
   11640:	66 89 08             	mov    %cx,(%rax)
   11643:	48 8b 85 d8 ee ff ff 	mov    -0x1128(%rbp),%rax
   1164a:	0f b7 00             	movzwl (%rax),%eax
   1164d:	0f b7 c0             	movzwl %ax,%eax
   11650:	89 d6                	mov    %edx,%esi
   11652:	89 c7                	mov    %eax,%edi
   11654:	e8 c6 86 ff ff       	callq  9d1f <safe_sub_func_uint16_t_u_u>
   11659:	0f b7 c0             	movzwl %ax,%eax
   1165c:	4c 89 e6             	mov    %r12,%rsi
   1165f:	48 89 c7             	mov    %rax,%rdi
   11662:	e8 48 8a ff ff       	callq  a0af <safe_div_func_uint64_t_u_u>
   11667:	0f b6 c0             	movzbl %al,%eax
   1166a:	89 de                	mov    %ebx,%esi
   1166c:	89 c7                	mov    %eax,%edi
   1166e:	e8 d9 85 ff ff       	callq  9c4c <safe_lshift_func_uint8_t_u_u>
   11673:	0f be c0             	movsbl %al,%eax
   11676:	be 01 00 00 00       	mov    $0x1,%esi
   1167b:	89 c7                	mov    %eax,%edi
   1167d:	e8 b3 7c ff ff       	callq  9335 <safe_rshift_func_int8_t_s_s>
   11682:	48 8d 05 cf f4 00 00 	lea    0xf4cf(%rip),%rax        # 20b58 <g_148>
   11689:	48 39 85 d8 ee ff ff 	cmp    %rax,-0x1128(%rbp)
   11690:	0f 95 c0             	setne  %al
   11693:	0f b6 c0             	movzbl %al,%eax
   11696:	39 85 0c ea ff ff    	cmp    %eax,-0x15f4(%rbp)
   1169c:	75 07                	jne    116a5 <func_66+0x31ec>
   1169e:	ba 01 00 00 00       	mov    $0x1,%edx
   116a3:	eb 05                	jmp    116aa <func_66+0x31f1>
   116a5:	ba 00 00 00 00       	mov    $0x0,%edx
   116aa:	48 8b 85 18 ec ff ff 	mov    -0x13e8(%rbp),%rax
   116b1:	8b 00                	mov    (%rax),%eax
   116b3:	09 c2                	or     %eax,%edx
   116b5:	48 8b 85 18 ec ff ff 	mov    -0x13e8(%rbp),%rax
   116bc:	89 10                	mov    %edx,(%rax)
   116be:	48 8b 85 18 ec ff ff 	mov    -0x13e8(%rbp),%rax
   116c5:	8b 00                	mov    (%rax),%eax
   116c7:	33 85 0c ea ff ff    	xor    -0x15f4(%rbp),%eax
   116cd:	89 c2                	mov    %eax,%edx
   116cf:	48 8b 85 18 ec ff ff 	mov    -0x13e8(%rbp),%rax
   116d6:	89 10                	mov    %edx,(%rax)
   116d8:	48 8b 95 b0 f2 ff ff 	mov    -0xd50(%rbp),%rdx
   116df:	48 8b 85 38 ec ff ff 	mov    -0x13c8(%rbp),%rax
   116e6:	48 89 10             	mov    %rdx,(%rax)
   116e9:	e9 b1 30 00 00       	jmpq   1479f <func_66+0x62e6>
   116ee:	48 8d 05 97 a9 00 00 	lea    0xa997(%rip),%rax        # 1c08c <g_4+0x4c>
   116f5:	48 89 85 20 ec ff ff 	mov    %rax,-0x13e0(%rbp)
   116fc:	c7 85 94 ea ff ff 02 	movl   $0x2,-0x156c(%rbp)
   11703:	00 00 00 
   11706:	48 c7 85 90 ee ff ff 	movq   $0x0,-0x1170(%rbp)
   1170d:	00 00 00 00 
   11711:	c7 85 54 eb ff ff 8c 	movl   $0xd671cd8c,-0x14ac(%rbp)
   11718:	cd 71 d6 
   1171b:	48 c7 85 98 ee ff ff 	movq   $0x0,-0x1168(%rbp)
   11722:	00 00 00 00 
   11726:	48 c7 85 a0 ee ff ff 	movq   $0x0,-0x1160(%rbp)
   1172d:	00 00 00 00 
   11731:	48 8d 05 18 f4 00 00 	lea    0xf418(%rip),%rax        # 20b50 <g_109>
   11738:	48 89 85 10 fa ff ff 	mov    %rax,-0x5f0(%rbp)
   1173f:	48 8d 05 0a f4 00 00 	lea    0xf40a(%rip),%rax        # 20b50 <g_109>
   11746:	48 89 85 18 fa ff ff 	mov    %rax,-0x5e8(%rbp)
   1174d:	48 8d 85 a0 eb ff ff 	lea    -0x1460(%rbp),%rax
   11754:	48 89 85 20 fa ff ff 	mov    %rax,-0x5e0(%rbp)
   1175b:	48 8d 05 ee f3 00 00 	lea    0xf3ee(%rip),%rax        # 20b50 <g_109>
   11762:	48 89 85 28 fa ff ff 	mov    %rax,-0x5d8(%rbp)
   11769:	48 8d 85 a0 eb ff ff 	lea    -0x1460(%rbp),%rax
   11770:	48 89 85 30 fa ff ff 	mov    %rax,-0x5d0(%rbp)
   11777:	48 8d 05 d2 f3 00 00 	lea    0xf3d2(%rip),%rax        # 20b50 <g_109>
   1177e:	48 89 85 38 fa ff ff 	mov    %rax,-0x5c8(%rbp)
   11785:	48 8d 85 a0 eb ff ff 	lea    -0x1460(%rbp),%rax
   1178c:	48 89 85 40 fa ff ff 	mov    %rax,-0x5c0(%rbp)
   11793:	48 8d 85 a0 eb ff ff 	lea    -0x1460(%rbp),%rax
   1179a:	48 89 85 48 fa ff ff 	mov    %rax,-0x5b8(%rbp)
   117a1:	48 8d 05 a8 f3 00 00 	lea    0xf3a8(%rip),%rax        # 20b50 <g_109>
   117a8:	48 89 85 50 fa ff ff 	mov    %rax,-0x5b0(%rbp)
   117af:	48 8d 05 9a f3 00 00 	lea    0xf39a(%rip),%rax        # 20b50 <g_109>
   117b6:	48 89 85 58 fa ff ff 	mov    %rax,-0x5a8(%rbp)
   117bd:	48 c7 85 60 fa ff ff 	movq   $0x0,-0x5a0(%rbp)
   117c4:	00 00 00 00 
   117c8:	48 c7 85 68 fa ff ff 	movq   $0x0,-0x598(%rbp)
   117cf:	00 00 00 00 
   117d3:	48 8d 05 76 f3 00 00 	lea    0xf376(%rip),%rax        # 20b50 <g_109>
   117da:	48 89 85 70 fa ff ff 	mov    %rax,-0x590(%rbp)
   117e1:	48 8d 05 68 f3 00 00 	lea    0xf368(%rip),%rax        # 20b50 <g_109>
   117e8:	48 89 85 78 fa ff ff 	mov    %rax,-0x588(%rbp)
   117ef:	48 8d 05 5a f3 00 00 	lea    0xf35a(%rip),%rax        # 20b50 <g_109>
   117f6:	48 89 85 80 fa ff ff 	mov    %rax,-0x580(%rbp)
   117fd:	48 8d 05 4c f3 00 00 	lea    0xf34c(%rip),%rax        # 20b50 <g_109>
   11804:	48 89 85 88 fa ff ff 	mov    %rax,-0x578(%rbp)
   1180b:	c7 85 98 ea ff ff 00 	movl   $0x0,-0x1568(%rbp)
   11812:	00 00 00 
   11815:	eb 1e                	jmp    11835 <func_66+0x337c>
   11817:	8b 85 98 ea ff ff    	mov    -0x1568(%rbp),%eax
   1181d:	48 98                	cltq   
   1181f:	48 8d 15 4a b3 00 00 	lea    0xb34a(%rip),%rdx        # 1cb70 <g_134>
   11826:	48 89 94 c5 b0 f1 ff 	mov    %rdx,-0xe50(%rbp,%rax,8)
   1182d:	ff 
   1182e:	83 85 98 ea ff ff 01 	addl   $0x1,-0x1568(%rbp)
   11835:	83 bd 98 ea ff ff 09 	cmpl   $0x9,-0x1568(%rbp)
   1183c:	7e d9                	jle    11817 <func_66+0x335e>
   1183e:	c7 05 00 f3 00 00 03 	movl   $0x3,0xf300(%rip)        # 20b48 <g_41>
   11845:	00 00 00 
   11848:	e9 1a 06 00 00       	jmpq   11e67 <func_66+0x39ae>
   1184d:	66 c7 85 80 ef ff ff 	movw   $0xffff,-0x1080(%rbp)
   11854:	ff ff 
   11856:	66 c7 85 82 ef ff ff 	movw   $0x9467,-0x107e(%rbp)
   1185d:	67 94 
   1185f:	66 c7 85 84 ef ff ff 	movw   $0xffff,-0x107c(%rbp)
   11866:	ff ff 
   11868:	66 c7 85 86 ef ff ff 	movw   $0x9467,-0x107a(%rbp)
   1186f:	67 94 
   11871:	66 c7 85 88 ef ff ff 	movw   $0xffff,-0x1078(%rbp)
   11878:	ff ff 
   1187a:	66 c7 85 8a ef ff ff 	movw   $0x9467,-0x1076(%rbp)
   11881:	67 94 
   11883:	66 c7 85 8c ef ff ff 	movw   $0xffff,-0x1074(%rbp)
   1188a:	ff ff 
   1188c:	66 c7 85 8e ef ff ff 	movw   $0x9467,-0x1072(%rbp)
   11893:	67 94 
   11895:	66 c7 85 90 ef ff ff 	movw   $0xffff,-0x1070(%rbp)
   1189c:	ff ff 
   1189e:	48 8d 05 cd b2 00 00 	lea    0xb2cd(%rip),%rax        # 1cb72 <g_146>
   118a5:	48 89 85 a0 f2 ff ff 	mov    %rax,-0xd60(%rbp)
   118ac:	48 8d 05 bf b2 00 00 	lea    0xb2bf(%rip),%rax        # 1cb72 <g_146>
   118b3:	48 89 85 a8 f2 ff ff 	mov    %rax,-0xd58(%rbp)
   118ba:	48 8d 05 b1 b2 00 00 	lea    0xb2b1(%rip),%rax        # 1cb72 <g_146>
   118c1:	48 89 85 b0 f2 ff ff 	mov    %rax,-0xd50(%rbp)
   118c8:	48 8d 05 a3 b2 00 00 	lea    0xb2a3(%rip),%rax        # 1cb72 <g_146>
   118cf:	48 89 85 b8 f2 ff ff 	mov    %rax,-0xd48(%rbp)
   118d6:	c6 85 23 ea ff ff fe 	movb   $0xfe,-0x15dd(%rbp)
   118dd:	48 c7 85 a8 ee ff ff 	movq   $0x0,-0x1158(%rbp)
   118e4:	00 00 00 00 
   118e8:	48 c7 85 b0 ee ff ff 	movq   $0x0,-0x1150(%rbp)
   118ef:	00 00 00 00 
   118f3:	48 8d 85 80 ef ff ff 	lea    -0x1080(%rbp),%rax
   118fa:	48 83 c0 02          	add    $0x2,%rax
   118fe:	48 89 85 b8 ee ff ff 	mov    %rax,-0x1148(%rbp)
   11905:	c7 85 58 eb ff ff 01 	movl   $0x1,-0x14a8(%rbp)
   1190c:	00 00 00 
   1190f:	48 8b 85 80 ee ff ff 	mov    -0x1180(%rbp),%rax
   11916:	8b 00                	mov    (%rax),%eax
   11918:	8d 50 01             	lea    0x1(%rax),%edx
   1191b:	48 8b 85 80 ee ff ff 	mov    -0x1180(%rbp),%rax
   11922:	89 10                	mov    %edx,(%rax)
   11924:	48 8b 85 20 ec ff ff 	mov    -0x13e0(%rbp),%rax
   1192b:	48 3b 85 80 ee ff ff 	cmp    -0x1180(%rbp),%rax
   11932:	0f 95 c0             	setne  %al
   11935:	0f b6 c0             	movzbl %al,%eax
   11938:	21 85 94 ea ff ff    	and    %eax,-0x156c(%rbp)
   1193e:	8b 85 08 ea ff ff    	mov    -0x15f8(%rbp),%eax
   11944:	0f bf d8             	movswl %ax,%ebx
   11947:	0f b7 85 82 ef ff ff 	movzwl -0x107e(%rbp),%eax
   1194e:	0f b6 c0             	movzbl %al,%eax
   11951:	be 02 00 00 00       	mov    $0x2,%esi
   11956:	89 c7                	mov    %eax,%edi
   11958:	e8 36 82 ff ff       	callq  9b93 <safe_mul_func_uint8_t_u_u>
   1195d:	44 0f b6 f0          	movzbl %al,%r14d
   11961:	44 0f b6 a5 23 ea ff 	movzbl -0x15dd(%rbp),%r12d
   11968:	ff 
   11969:	0f b7 85 8c ef ff ff 	movzwl -0x1074(%rbp),%eax
   11970:	44 0f bf f8          	movswl %ax,%r15d
   11974:	8b 85 00 ec ff ff    	mov    -0x1400(%rbp),%eax
   1197a:	44 0f b7 e8          	movzwl %ax,%r13d
   1197e:	be 0a 00 00 00       	mov    $0xa,%esi
   11983:	bf 12 02 00 00       	mov    $0x212,%edi
   11988:	e8 d6 7b ff ff       	callq  9563 <safe_rshift_func_int16_t_s_u>
   1198d:	98                   	cwtl   
   1198e:	09 85 84 ea ff ff    	or     %eax,-0x157c(%rbp)
   11994:	48 8b 85 88 eb ff ff 	mov    -0x1478(%rbp),%rax
   1199b:	48 c7 00 f9 ff ff ff 	movq   $0xfffffffffffffff9,(%rax)
   119a2:	48 8b 85 38 ef ff ff 	mov    -0x10c8(%rbp),%rax
   119a9:	48 39 85 28 ee ff ff 	cmp    %rax,-0x11d8(%rbp)
   119b0:	0f 95 c0             	setne  %al
   119b3:	0f b6 c0             	movzbl %al,%eax
   119b6:	66 89 85 04 ea ff ff 	mov    %ax,-0x15fc(%rbp)
   119bd:	48 8b 85 18 ec ff ff 	mov    -0x13e8(%rbp),%rax
   119c4:	8b 00                	mov    (%rax),%eax
   119c6:	48 63 d0             	movslq %eax,%rdx
   119c9:	0f b7 85 82 ef ff ff 	movzwl -0x107e(%rbp),%eax
   119d0:	48 0f bf c0          	movswq %ax,%rax
   119d4:	48 89 d6             	mov    %rdx,%rsi
   119d7:	48 89 c7             	mov    %rax,%rdi
   119da:	e8 d5 7f ff ff       	callq  99b4 <safe_mod_func_int64_t_s_s>
   119df:	48 8b 95 20 ec ff ff 	mov    -0x13e0(%rbp),%rdx
   119e6:	8b 12                	mov    (%rdx),%edx
   119e8:	48 63 d2             	movslq %edx,%rdx
   119eb:	48 39 d0             	cmp    %rdx,%rax
   119ee:	7c 07                	jl     119f7 <func_66+0x353e>
   119f0:	ba f8 ff ff ff       	mov    $0xfffffff8,%edx
   119f5:	eb 05                	jmp    119fc <func_66+0x3543>
   119f7:	ba f9 ff ff ff       	mov    $0xfffffff9,%edx
   119fc:	8b 05 b6 a9 00 00    	mov    0xa9b6(%rip),%eax        # 1c3b8 <g_38+0x8>
   11a02:	31 c2                	xor    %eax,%edx
   11a04:	8b 85 0c ea ff ff    	mov    -0x15f4(%rbp),%eax
   11a0a:	31 d0                	xor    %edx,%eax
   11a0c:	66 33 85 04 ea ff ff 	xor    -0x15fc(%rbp),%ax
   11a13:	0f b7 c0             	movzwl %ax,%eax
   11a16:	44 89 ee             	mov    %r13d,%esi
   11a19:	89 c7                	mov    %eax,%edi
   11a1b:	e8 1d 83 ff ff       	callq  9d3d <safe_mul_func_uint16_t_u_u>
   11a20:	0f b7 c0             	movzwl %ax,%eax
   11a23:	44 09 f8             	or     %r15d,%eax
   11a26:	85 c0                	test   %eax,%eax
   11a28:	74 08                	je     11a32 <func_66+0x3579>
   11a2a:	8b 85 00 ec ff ff    	mov    -0x1400(%rbp),%eax
   11a30:	85 c0                	test   %eax,%eax
   11a32:	44 89 e6             	mov    %r12d,%esi
   11a35:	bf 47 93 ff ff       	mov    $0xffff9347,%edi
   11a3a:	e8 53 7a ff ff       	callq  9492 <safe_lshift_func_int16_t_s_s>
   11a3f:	0f bf d0             	movswl %ax,%edx
   11a42:	8b 85 14 ef ff ff    	mov    -0x10ec(%rbp),%eax
   11a48:	39 c2                	cmp    %eax,%edx
   11a4a:	0f 93 c0             	setae  %al
   11a4d:	0f b6 c0             	movzbl %al,%eax
   11a50:	41 39 c6             	cmp    %eax,%r14d
   11a53:	0f 9e c0             	setle  %al
   11a56:	0f b6 c0             	movzbl %al,%eax
   11a59:	33 85 0c ea ff ff    	xor    -0x15f4(%rbp),%eax
   11a5f:	89 c2                	mov    %eax,%edx
   11a61:	b8 00 00 00 00       	mov    $0x0,%eax
   11a66:	48 39 c2             	cmp    %rax,%rdx
   11a69:	0f 97 c0             	seta   %al
   11a6c:	0f b6 d0             	movzbl %al,%edx
   11a6f:	0f b7 85 82 ef ff ff 	movzwl -0x107e(%rbp),%eax
   11a76:	98                   	cwtl   
   11a77:	39 c2                	cmp    %eax,%edx
   11a79:	0f 9f c0             	setg   %al
   11a7c:	0f b6 c0             	movzbl %al,%eax
   11a7f:	be 88 00 00 00       	mov    $0x88,%esi
   11a84:	89 c7                	mov    %eax,%edi
   11a86:	e8 ed 80 ff ff       	callq  9b78 <safe_sub_func_uint8_t_u_u>
   11a8b:	0f b6 d0             	movzbl %al,%edx
   11a8e:	48 8b 85 b8 ee ff ff 	mov    -0x1148(%rbp),%rax
   11a95:	66 89 10             	mov    %dx,(%rax)
   11a98:	48 8b 85 b8 ee ff ff 	mov    -0x1148(%rbp),%rax
   11a9f:	0f b7 00             	movzwl (%rax),%eax
   11aa2:	98                   	cwtl   
   11aa3:	89 de                	mov    %ebx,%esi
   11aa5:	89 c7                	mov    %eax,%edi
   11aa7:	e8 49 79 ff ff       	callq  93f5 <safe_mul_func_int16_t_s_s>
   11aac:	0f be c0             	movsbl %al,%eax
   11aaf:	be 05 00 00 00       	mov    $0x5,%esi
   11ab4:	89 c7                	mov    %eax,%edi
   11ab6:	e8 b1 78 ff ff       	callq  936c <safe_rshift_func_int8_t_s_u>
   11abb:	84 c0                	test   %al,%al
   11abd:	74 5f                	je     11b1e <func_66+0x3665>
   11abf:	48 8d 05 e2 d6 00 00 	lea    0xd6e2(%rip),%rax        # 1f1a8 <g_359>
   11ac6:	48 89 85 c0 ee ff ff 	mov    %rax,-0x1140(%rbp)
   11acd:	48 c7 85 10 ec ff ff 	movq   $0x0,-0x13f0(%rbp)
   11ad4:	00 00 00 00 
   11ad8:	48 8d 85 10 ec ff ff 	lea    -0x13f0(%rbp),%rax
   11adf:	48 89 85 c8 ee ff ff 	mov    %rax,-0x1138(%rbp)
   11ae6:	48 8b 85 38 ec ff ff 	mov    -0x13c8(%rbp),%rax
   11aed:	48 8b 95 80 ee ff ff 	mov    -0x1180(%rbp),%rdx
   11af4:	48 89 10             	mov    %rdx,(%rax)
   11af7:	48 8b 05 72 d7 00 00 	mov    0xd772(%rip),%rax        # 1f270 <g_592>
   11afe:	48 8b 95 c0 ee ff ff 	mov    -0x1140(%rbp),%rdx
   11b05:	48 89 10             	mov    %rdx,(%rax)
   11b08:	48 8b 85 c8 ee ff ff 	mov    -0x1138(%rbp),%rax
   11b0f:	48 8d 15 62 f0 00 00 	lea    0xf062(%rip),%rdx        # 20b78 <g_348>
   11b16:	48 89 10             	mov    %rdx,(%rax)
   11b19:	e9 51 01 00 00       	jmpq   11c6f <func_66+0x37b6>
   11b1e:	48 8b 05 53 d7 00 00 	mov    0xd753(%rip),%rax        # 1f278 <g_597>
   11b25:	48 8b 15 6c a2 00 00 	mov    0xa26c(%rip),%rdx        # 1bd98 <l_596.4988+0x18>
   11b2c:	48 89 10             	mov    %rdx,(%rax)
   11b2f:	8b 05 13 a8 00 00    	mov    0xa813(%rip),%eax        # 1c348 <g_4+0x308>
   11b35:	41 89 c4             	mov    %eax,%r12d
   11b38:	83 bd 08 ea ff ff 00 	cmpl   $0x0,-0x15f8(%rbp)
   11b3f:	0f 84 e8 00 00 00    	je     11c2d <func_66+0x3774>
   11b45:	48 8b 85 88 ee ff ff 	mov    -0x1178(%rbp),%rax
   11b4c:	c6 00 01             	movb   $0x1,(%rax)
   11b4f:	be 02 00 00 00       	mov    $0x2,%esi
   11b54:	bf 01 00 00 00       	mov    $0x1,%edi
   11b59:	e8 a7 80 ff ff       	callq  9c05 <safe_lshift_func_uint8_t_u_s>
   11b5e:	84 c0                	test   %al,%al
   11b60:	0f 85 c0 00 00 00    	jne    11c26 <func_66+0x376d>
   11b66:	0f b7 05 03 b0 00 00 	movzwl 0xb003(%rip),%eax        # 1cb70 <g_134>
   11b6d:	0f be d8             	movsbl %al,%ebx
   11b70:	48 8b 05 11 d6 00 00 	mov    0xd611(%rip),%rax        # 1f188 <g_267>
   11b77:	8b 00                	mov    (%rax),%eax
   11b79:	41 89 c5             	mov    %eax,%r13d
   11b7c:	48 8b 05 05 d6 00 00 	mov    0xd605(%rip),%rax        # 1f188 <g_267>
   11b83:	8b 00                	mov    (%rax),%eax
   11b85:	41 89 c6             	mov    %eax,%r14d
   11b88:	0f bf 95 32 ea ff ff 	movswl -0x15ce(%rbp),%edx
   11b8f:	48 8b 05 f2 d5 00 00 	mov    0xd5f2(%rip),%rax        # 1f188 <g_267>
   11b96:	8b 00                	mov    (%rax),%eax
   11b98:	23 85 08 ea ff ff    	and    -0x15f8(%rbp),%eax
   11b9e:	85 c0                	test   %eax,%eax
   11ba0:	74 10                	je     11bb2 <func_66+0x36f9>
   11ba2:	83 bd 54 eb ff ff 00 	cmpl   $0x0,-0x14ac(%rbp)
   11ba9:	74 07                	je     11bb2 <func_66+0x36f9>
   11bab:	b9 01 00 00 00       	mov    $0x1,%ecx
   11bb0:	eb 05                	jmp    11bb7 <func_66+0x36fe>
   11bb2:	b9 00 00 00 00       	mov    $0x0,%ecx
   11bb7:	0f b6 85 22 ea ff ff 	movzbl -0x15de(%rbp),%eax
   11bbe:	39 c1                	cmp    %eax,%ecx
   11bc0:	0f 9f c0             	setg   %al
   11bc3:	0f b6 c0             	movzbl %al,%eax
   11bc6:	89 d6                	mov    %edx,%esi
   11bc8:	89 c7                	mov    %eax,%edi
   11bca:	e8 01 83 ff ff       	callq  9ed0 <safe_sub_func_uint32_t_u_u>
   11bcf:	44 89 f6             	mov    %r14d,%esi
   11bd2:	89 c7                	mov    %eax,%edi
   11bd4:	e8 df 82 ff ff       	callq  9eb8 <safe_add_func_uint32_t_u_u>
   11bd9:	83 bd 0c ea ff ff 00 	cmpl   $0x0,-0x15f4(%rbp)
   11be0:	74 10                	je     11bf2 <func_66+0x3739>
   11be2:	83 bd 0c ea ff ff 00 	cmpl   $0x0,-0x15f4(%rbp)
   11be9:	74 07                	je     11bf2 <func_66+0x3739>
   11beb:	ba 01 00 00 00       	mov    $0x1,%edx
   11bf0:	eb 05                	jmp    11bf7 <func_66+0x373e>
   11bf2:	ba 00 00 00 00       	mov    $0x0,%edx
   11bf7:	0f b7 05 76 af 00 00 	movzwl 0xaf76(%rip),%eax        # 1cb74 <g_220>
   11bfe:	98                   	cwtl   
   11bff:	21 d0                	and    %edx,%eax
   11c01:	3d ba e2 00 00       	cmp    $0xe2ba,%eax
   11c06:	0f 94 c0             	sete   %al
   11c09:	0f b6 c0             	movzbl %al,%eax
   11c0c:	44 89 ee             	mov    %r13d,%esi
   11c0f:	89 c7                	mov    %eax,%edi
   11c11:	e8 0f 83 ff ff       	callq  9f25 <safe_div_func_uint32_t_u_u>
   11c16:	0f be c0             	movsbl %al,%eax
   11c19:	89 de                	mov    %ebx,%esi
   11c1b:	89 c7                	mov    %eax,%edi
   11c1d:	e8 d0 75 ff ff       	callq  91f2 <safe_sub_func_int8_t_s_s>
   11c22:	84 c0                	test   %al,%al
   11c24:	74 07                	je     11c2d <func_66+0x3774>
   11c26:	b8 01 00 00 00       	mov    $0x1,%eax
   11c2b:	eb 05                	jmp    11c32 <func_66+0x3779>
   11c2d:	b8 00 00 00 00       	mov    $0x0,%eax
   11c32:	98                   	cwtl   
   11c33:	44 89 e6             	mov    %r12d,%esi
   11c36:	89 c7                	mov    %eax,%edi
   11c38:	e8 26 79 ff ff       	callq  9563 <safe_rshift_func_int16_t_s_u>
   11c3d:	0f bf d0             	movswl %ax,%edx
   11c40:	8b 05 02 a7 00 00    	mov    0xa702(%rip),%eax        # 1c348 <g_4+0x308>
   11c46:	39 c2                	cmp    %eax,%edx
   11c48:	0f 9e c0             	setle  %al
   11c4b:	0f b6 c0             	movzbl %al,%eax
   11c4e:	89 85 94 ea ff ff    	mov    %eax,-0x156c(%rbp)
   11c54:	48 8b 85 18 ec ff ff 	mov    -0x13e8(%rbp),%rax
   11c5b:	8b 10                	mov    (%rax),%edx
   11c5d:	0f b6 85 22 ea ff ff 	movzbl -0x15de(%rbp),%eax
   11c64:	31 c2                	xor    %eax,%edx
   11c66:	48 8b 85 18 ec ff ff 	mov    -0x13e8(%rbp),%rax
   11c6d:	89 10                	mov    %edx,(%rax)
   11c6f:	48 8b 85 18 ec ff ff 	mov    -0x13e8(%rbp),%rax
   11c76:	8b 18                	mov    (%rax),%ebx
   11c78:	8b 85 00 ec ff ff    	mov    -0x1400(%rbp),%eax
   11c7e:	88 85 04 ea ff ff    	mov    %al,-0x15fc(%rbp)
   11c84:	44 8b a5 0c ea ff ff 	mov    -0x15f4(%rbp),%r12d
   11c8b:	8b 85 14 ef ff ff    	mov    -0x10ec(%rbp),%eax
   11c91:	44 0f be e8          	movsbl %al,%r13d
   11c95:	48 8b 05 c4 ae 00 00 	mov    0xaec4(%rip),%rax        # 1cb60 <g_79>
   11c9c:	41 89 c7             	mov    %eax,%r15d
   11c9f:	8b 05 c7 ee 00 00    	mov    0xeec7(%rip),%eax        # 20b6c <g_280>
   11ca5:	44 0f bf f0          	movswl %ax,%r14d
   11ca9:	48 8b 85 b8 eb ff ff 	mov    -0x1448(%rbp),%rax
   11cb0:	48 8b 95 30 ee ff ff 	mov    -0x11d0(%rbp),%rdx
   11cb7:	48 89 10             	mov    %rdx,(%rax)
   11cba:	48 8b 00             	mov    (%rax),%rax
   11cbd:	48 89 05 bc d5 00 00 	mov    %rax,0xd5bc(%rip)        # 1f280 <g_643>
   11cc4:	48 8b 05 b5 d5 00 00 	mov    0xd5b5(%rip),%rax        # 1f280 <g_643>
   11ccb:	48 85 c0             	test   %rax,%rax
   11cce:	0f 95 c0             	setne  %al
   11cd1:	0f b6 c0             	movzbl %al,%eax
   11cd4:	be 06 00 00 00       	mov    $0x6,%esi
   11cd9:	89 c7                	mov    %eax,%edi
   11cdb:	e8 25 7f ff ff       	callq  9c05 <safe_lshift_func_uint8_t_u_s>
   11ce0:	8b 85 0c ea ff ff    	mov    -0x15f4(%rbp),%eax
   11ce6:	98                   	cwtl   
   11ce7:	be 0f 00 00 00       	mov    $0xf,%esi
   11cec:	89 c7                	mov    %eax,%edi
   11cee:	e8 70 78 ff ff       	callq  9563 <safe_rshift_func_int16_t_s_u>
   11cf3:	89 c2                	mov    %eax,%edx
   11cf5:	48 8b 05 64 d5 00 00 	mov    0xd564(%rip),%rax        # 1f260 <g_447>
   11cfc:	88 10                	mov    %dl,(%rax)
   11cfe:	0f b6 00             	movzbl (%rax),%eax
   11d01:	0f be c0             	movsbl %al,%eax
   11d04:	be 04 00 00 00       	mov    $0x4,%esi
   11d09:	89 c7                	mov    %eax,%edi
   11d0b:	e8 25 76 ff ff       	callq  9335 <safe_rshift_func_int8_t_s_s>
   11d10:	0f be c0             	movsbl %al,%eax
   11d13:	0b 85 0c ea ff ff    	or     -0x15f4(%rbp),%eax
   11d19:	85 c0                	test   %eax,%eax
   11d1b:	74 07                	je     11d24 <func_66+0x386b>
   11d1d:	b8 01 00 00 00       	mov    $0x1,%eax
   11d22:	eb 05                	jmp    11d29 <func_66+0x3870>
   11d24:	b8 00 00 00 00       	mov    $0x0,%eax
   11d29:	be f2 fb 8a 94       	mov    $0x948afbf2,%esi
   11d2e:	89 c7                	mov    %eax,%edi
   11d30:	e8 81 78 ff ff       	callq  95b6 <safe_add_func_int32_t_s_s>
   11d35:	98                   	cwtl   
   11d36:	44 89 f6             	mov    %r14d,%esi
   11d39:	89 c7                	mov    %eax,%edi
   11d3b:	e8 93 76 ff ff       	callq  93d3 <safe_sub_func_int16_t_s_s>
   11d40:	48 8b 85 20 ec ff ff 	mov    -0x13e0(%rbp),%rax
   11d47:	8b 00                	mov    (%rax),%eax
   11d49:	be 75 ea f7 b5       	mov    $0xb5f7ea75,%esi
   11d4e:	89 c7                	mov    %eax,%edi
   11d50:	e8 61 78 ff ff       	callq  95b6 <safe_add_func_int32_t_s_s>
   11d55:	44 89 fe             	mov    %r15d,%esi
   11d58:	bf 01 00 00 00       	mov    $0x1,%edi
   11d5d:	e8 01 78 ff ff       	callq  9563 <safe_rshift_func_int16_t_s_u>
   11d62:	48 8b 05 17 ae 00 00 	mov    0xae17(%rip),%rax        # 1cb80 <g_351>
   11d69:	48 85 c0             	test   %rax,%rax
   11d6c:	0f 95 c0             	setne  %al
   11d6f:	0f b6 c0             	movzbl %al,%eax
   11d72:	be 01 00 00 00       	mov    $0x1,%esi
   11d77:	89 c7                	mov    %eax,%edi
   11d79:	e8 d7 76 ff ff       	callq  9455 <safe_div_func_int16_t_s_s>
   11d7e:	66 85 c0             	test   %ax,%ax
   11d81:	0f 94 c0             	sete   %al
   11d84:	0f b6 c0             	movzbl %al,%eax
   11d87:	44 89 ee             	mov    %r13d,%esi
   11d8a:	89 c7                	mov    %eax,%edi
   11d8c:	e8 81 74 ff ff       	callq  9212 <safe_mul_func_int8_t_s_s>
   11d91:	0f be c0             	movsbl %al,%eax
   11d94:	83 e0 06             	and    $0x6,%eax
   11d97:	44 89 e6             	mov    %r12d,%esi
   11d9a:	89 c7                	mov    %eax,%edi
   11d9c:	e8 2b 79 ff ff       	callq  96cc <safe_mod_func_int32_t_s_s>
   11da1:	0f b6 95 04 ea ff ff 	movzbl -0x15fc(%rbp),%edx
   11da8:	21 c2                	and    %eax,%edx
   11daa:	8b 05 98 ed 00 00    	mov    0xed98(%rip),%eax        # 20b48 <g_41>
   11db0:	09 d0                	or     %edx,%eax
   11db2:	83 f0 66             	xor    $0x66,%eax
   11db5:	0f b6 c0             	movzbl %al,%eax
   11db8:	89 de                	mov    %ebx,%esi
   11dba:	89 c7                	mov    %eax,%edi
   11dbc:	e8 44 7e ff ff       	callq  9c05 <safe_lshift_func_uint8_t_u_s>
   11dc1:	ba 01 00 00 00       	mov    $0x1,%edx
   11dc6:	48 8b 85 80 ee ff ff 	mov    -0x1180(%rbp),%rax
   11dcd:	8b 00                	mov    (%rax),%eax
   11dcf:	09 c2                	or     %eax,%edx
   11dd1:	48 8b 85 80 ee ff ff 	mov    -0x1180(%rbp),%rax
   11dd8:	89 10                	mov    %edx,(%rax)
   11dda:	48 8b 85 80 ee ff ff 	mov    -0x1180(%rbp),%rax
   11de1:	8b 00                	mov    (%rax),%eax
   11de3:	83 f0 01             	xor    $0x1,%eax
   11de6:	89 c0                	mov    %eax,%eax
   11de8:	31 85 58 eb ff ff    	xor    %eax,-0x14a8(%rbp)
   11dee:	c6 85 1b ea ff ff 00 	movb   $0x0,-0x15e5(%rbp)
   11df5:	eb 53                	jmp    11e4a <func_66+0x3991>
   11df7:	48 8d 05 92 d4 00 00 	lea    0xd492(%rip),%rax        # 1f290 <g_647>
   11dfe:	48 89 85 d0 ee ff ff 	mov    %rax,-0x1130(%rbp)
   11e05:	c7 85 5c eb ff ff a3 	movl   $0xa88494a3,-0x14a4(%rbp)
   11e0c:	94 84 a8 
   11e0f:	48 8b 15 7a d4 00 00 	mov    0xd47a(%rip),%rdx        # 1f290 <g_647>
   11e16:	48 8b 85 d0 ee ff ff 	mov    -0x1130(%rbp),%rax
   11e1d:	48 89 10             	mov    %rdx,(%rax)
   11e20:	48 8b 85 d0 ee ff ff 	mov    -0x1130(%rbp),%rax
   11e27:	48 8b 00             	mov    (%rax),%rax
   11e2a:	48 89 85 98 ee ff ff 	mov    %rax,-0x1168(%rbp)
   11e31:	83 bd 5c eb ff ff 00 	cmpl   $0x0,-0x14a4(%rbp)
   11e38:	75 1d                	jne    11e57 <func_66+0x399e>
   11e3a:	0f b6 85 1b ea ff ff 	movzbl -0x15e5(%rbp),%eax
   11e41:	83 c0 01             	add    $0x1,%eax
   11e44:	88 85 1b ea ff ff    	mov    %al,-0x15e5(%rbp)
   11e4a:	0f b6 85 1b ea ff ff 	movzbl -0x15e5(%rbp),%eax
   11e51:	3c 03                	cmp    $0x3,%al
   11e53:	7e a2                	jle    11df7 <func_66+0x393e>
   11e55:	eb 01                	jmp    11e58 <func_66+0x399f>
   11e57:	90                   	nop
   11e58:	8b 05 ea ec 00 00    	mov    0xecea(%rip),%eax        # 20b48 <g_41>
   11e5e:	83 e8 01             	sub    $0x1,%eax
   11e61:	89 05 e1 ec 00 00    	mov    %eax,0xece1(%rip)        # 20b48 <g_41>
   11e67:	8b 05 db ec 00 00    	mov    0xecdb(%rip),%eax        # 20b48 <g_41>
   11e6d:	85 c0                	test   %eax,%eax
   11e6f:	0f 89 d8 f9 ff ff    	jns    1184d <func_66+0x3394>
   11e75:	c7 85 80 ea ff ff 00 	movl   $0x0,-0x1580(%rbp)
   11e7c:	00 00 00 
   11e7f:	e9 d2 00 00 00       	jmpq   11f56 <func_66+0x3a9d>
   11e84:	48 8d 85 34 ea ff ff 	lea    -0x15cc(%rbp),%rax
   11e8b:	48 89 85 a0 f2 ff ff 	mov    %rax,-0xd60(%rbp)
   11e92:	48 8d 85 34 ea ff ff 	lea    -0x15cc(%rbp),%rax
   11e99:	48 89 85 a8 f2 ff ff 	mov    %rax,-0xd58(%rbp)
   11ea0:	48 8d 85 34 ea ff ff 	lea    -0x15cc(%rbp),%rax
   11ea7:	48 89 85 b0 f2 ff ff 	mov    %rax,-0xd50(%rbp)
   11eae:	48 8d 85 34 ea ff ff 	lea    -0x15cc(%rbp),%rax
   11eb5:	48 89 85 b8 f2 ff ff 	mov    %rax,-0xd48(%rbp)
   11ebc:	48 8d 85 34 ea ff ff 	lea    -0x15cc(%rbp),%rax
   11ec3:	48 89 85 c0 f2 ff ff 	mov    %rax,-0xd40(%rbp)
   11eca:	48 8d 85 34 ea ff ff 	lea    -0x15cc(%rbp),%rax
   11ed1:	48 89 85 c8 f2 ff ff 	mov    %rax,-0xd38(%rbp)
   11ed8:	48 8d 85 34 ea ff ff 	lea    -0x15cc(%rbp),%rax
   11edf:	48 89 85 d0 f2 ff ff 	mov    %rax,-0xd30(%rbp)
   11ee6:	48 8d 85 34 ea ff ff 	lea    -0x15cc(%rbp),%rax
   11eed:	48 89 85 d8 f2 ff ff 	mov    %rax,-0xd28(%rbp)
   11ef4:	48 8d 85 34 ea ff ff 	lea    -0x15cc(%rbp),%rax
   11efb:	48 89 85 e0 f2 ff ff 	mov    %rax,-0xd20(%rbp)
   11f02:	48 8d 85 34 ea ff ff 	lea    -0x15cc(%rbp),%rax
   11f09:	48 89 85 e8 f2 ff ff 	mov    %rax,-0xd18(%rbp)
   11f10:	48 8b 85 18 ec ff ff 	mov    -0x13e8(%rbp),%rax
   11f17:	8b 10                	mov    (%rax),%edx
   11f19:	48 8b 05 68 d2 00 00 	mov    0xd268(%rip),%rax        # 1f188 <g_267>
   11f20:	8b 00                	mov    (%rax),%eax
   11f22:	09 c2                	or     %eax,%edx
   11f24:	48 8b 85 18 ec ff ff 	mov    -0x13e8(%rbp),%rax
   11f2b:	89 10                	mov    %edx,(%rax)
   11f2d:	c7 85 34 ea ff ff 00 	movl   $0x0,-0x15cc(%rbp)
   11f34:	00 00 00 
   11f37:	90                   	nop
   11f38:	8b 85 34 ea ff ff    	mov    -0x15cc(%rbp),%eax
   11f3e:	83 f8 1c             	cmp    $0x1c,%eax
   11f41:	7e 0c                	jle    11f4f <func_66+0x3a96>
   11f43:	48 8d 05 fe eb 00 00 	lea    0xebfe(%rip),%rax        # 20b48 <g_41>
   11f4a:	e9 57 28 00 00       	jmpq   147a6 <func_66+0x62ed>
   11f4f:	83 85 80 ea ff ff 01 	addl   $0x1,-0x1580(%rbp)
   11f56:	83 bd 80 ea ff ff 16 	cmpl   $0x16,-0x1580(%rbp)
   11f5d:	0f 8e 21 ff ff ff    	jle    11e84 <func_66+0x39cb>
   11f63:	8b 85 08 ea ff ff    	mov    -0x15f8(%rbp),%eax
   11f69:	48 63 d8             	movslq %eax,%rbx
   11f6c:	44 8b a5 08 ea ff ff 	mov    -0x15f8(%rbp),%r12d
   11f73:	8b 85 14 ef ff ff    	mov    -0x10ec(%rbp),%eax
   11f79:	89 c1                	mov    %eax,%ecx
   11f7b:	48 8b 85 20 ec ff ff 	mov    -0x13e0(%rbp),%rax
   11f82:	8b 00                	mov    (%rax),%eax
   11f84:	48 63 d0             	movslq %eax,%rdx
   11f87:	48 8b 85 20 ec ff ff 	mov    -0x13e0(%rbp),%rax
   11f8e:	8b 00                	mov    (%rax),%eax
   11f90:	48 98                	cltq   
   11f92:	48 23 85 38 ee ff ff 	and    -0x11c8(%rbp),%rax
   11f99:	48 39 c2             	cmp    %rax,%rdx
   11f9c:	0f 9e c0             	setle  %al
   11f9f:	0f b6 c0             	movzbl %al,%eax
   11fa2:	48 89 ce             	mov    %rcx,%rsi
   11fa5:	48 89 c7             	mov    %rax,%rdi
   11fa8:	e8 d3 80 ff ff       	callq  a080 <safe_mod_func_uint64_t_u_u>
   11fad:	0f b7 05 b4 eb 00 00 	movzwl 0xebb4(%rip),%eax        # 20b68 <g_248>
   11fb4:	98                   	cwtl   
   11fb5:	39 85 0c ea ff ff    	cmp    %eax,-0x15f4(%rbp)
   11fbb:	0f 92 c0             	setb   %al
   11fbe:	0f b6 c0             	movzbl %al,%eax
   11fc1:	be 0f 00 00 00       	mov    $0xf,%esi
   11fc6:	89 c7                	mov    %eax,%edi
   11fc8:	e8 5d 75 ff ff       	callq  952a <safe_rshift_func_int16_t_s_s>
   11fcd:	0f b6 95 22 ea ff ff 	movzbl -0x15de(%rbp),%edx
   11fd4:	31 d0                	xor    %edx,%eax
   11fd6:	98                   	cwtl   
   11fd7:	44 89 e6             	mov    %r12d,%esi
   11fda:	89 c7                	mov    %eax,%edi
   11fdc:	e8 00 75 ff ff       	callq  94e1 <safe_lshift_func_int16_t_s_u>
   11fe1:	48 8b 05 a8 d2 00 00 	mov    0xd2a8(%rip),%rax        # 1f290 <g_647>
   11fe8:	48 8b 00             	mov    (%rax),%rax
   11feb:	8b 00                	mov    (%rax),%eax
   11fed:	83 f8 01             	cmp    $0x1,%eax
   11ff0:	0f 97 c0             	seta   %al
   11ff3:	0f b6 c0             	movzbl %al,%eax
   11ff6:	be 04 00 00 00       	mov    $0x4,%esi
   11ffb:	89 c7                	mov    %eax,%edi
   11ffd:	e8 bc 7d ff ff       	callq  9dbe <safe_lshift_func_uint16_t_u_s>
   12002:	48 89 de             	mov    %rbx,%rsi
   12005:	bf 01 00 00 00       	mov    $0x1,%edi
   1200a:	e8 32 78 ff ff       	callq  9841 <safe_add_func_int64_t_s_s>
   1200f:	48 8b 15 72 d1 00 00 	mov    0xd172(%rip),%rdx        # 1f188 <g_267>
   12016:	8b 12                	mov    (%rdx),%edx
   12018:	89 c1                	mov    %eax,%ecx
   1201a:	48 8b 05 67 d1 00 00 	mov    0xd167(%rip),%rax        # 1f188 <g_267>
   12021:	31 ca                	xor    %ecx,%edx
   12023:	89 10                	mov    %edx,(%rax)
   12025:	8b 85 00 ec ff ff    	mov    -0x1400(%rbp),%eax
   1202b:	0f be d8             	movsbl %al,%ebx
   1202e:	48 c7 05 17 eb 00 00 	movq   $0x0,0xeb17(%rip)        # 20b50 <g_109>
   12035:	00 00 00 00 
   12039:	c7 85 50 eb ff ff 04 	movl   $0x4,-0x14b0(%rbp)
   12040:	00 00 00 
   12043:	8b 05 ff a2 00 00    	mov    0xa2ff(%rip),%eax        # 1c348 <g_4+0x308>
   12049:	44 0f bf e0          	movswl %ax,%r12d
   1204d:	be 90 00 00 00       	mov    $0x90,%esi
   12052:	bf 01 00 00 00       	mov    $0x1,%edi
   12057:	e8 c3 7c ff ff       	callq  9d1f <safe_sub_func_uint16_t_u_u>
   1205c:	89 c2                	mov    %eax,%edx
   1205e:	8b 85 08 ea ff ff    	mov    -0x15f8(%rbp),%eax
   12064:	21 d0                	and    %edx,%eax
   12066:	66 35 fe 5f          	xor    $0x5ffe,%ax
   1206a:	0f b7 c0             	movzwl %ax,%eax
   1206d:	89 c6                	mov    %eax,%esi
   1206f:	bf f5 5a 00 00       	mov    $0x5af5,%edi
   12074:	e8 15 7d ff ff       	callq  9d8e <safe_div_func_uint16_t_u_u>
   12079:	98                   	cwtl   
   1207a:	44 89 e6             	mov    %r12d,%esi
   1207d:	89 c7                	mov    %eax,%edi
   1207f:	e8 2f 73 ff ff       	callq  93b3 <safe_add_func_int16_t_s_s>
   12084:	8b 85 08 ea ff ff    	mov    -0x15f8(%rbp),%eax
   1208a:	39 85 0c ea ff ff    	cmp    %eax,-0x15f4(%rbp)
   12090:	74 10                	je     120a2 <func_66+0x3be9>
   12092:	83 bd 0c ea ff ff 00 	cmpl   $0x0,-0x15f4(%rbp)
   12099:	74 07                	je     120a2 <func_66+0x3be9>
   1209b:	b8 01 00 00 00       	mov    $0x1,%eax
   120a0:	eb 05                	jmp    120a7 <func_66+0x3bee>
   120a2:	b8 00 00 00 00       	mov    $0x0,%eax
   120a7:	48 98                	cltq   
   120a9:	48 39 85 38 ee ff ff 	cmp    %rax,-0x11c8(%rbp)
   120b0:	0f 9f c0             	setg   %al
   120b3:	0f b6 c0             	movzbl %al,%eax
   120b6:	0b 85 c4 ea ff ff    	or     -0x153c(%rbp),%eax
   120bc:	89 c2                	mov    %eax,%edx
   120be:	0f b7 05 b1 aa 00 00 	movzwl 0xaab1(%rip),%eax        # 1cb76 <g_249>
   120c5:	98                   	cwtl   
   120c6:	21 c2                	and    %eax,%edx
   120c8:	8b 85 10 ef ff ff    	mov    -0x10f0(%rbp),%eax
   120ce:	39 c2                	cmp    %eax,%edx
   120d0:	0f 94 c0             	sete   %al
   120d3:	0f b6 d0             	movzbl %al,%edx
   120d6:	48 8b 85 40 ec ff ff 	mov    -0x13c0(%rbp),%rax
   120dd:	0f b6 00             	movzbl (%rax),%eax
   120e0:	31 c2                	xor    %eax,%edx
   120e2:	48 8b 85 40 ec ff ff 	mov    -0x13c0(%rbp),%rax
   120e9:	88 10                	mov    %dl,(%rax)
   120eb:	48 8b 85 40 ec ff ff 	mov    -0x13c0(%rbp),%rax
   120f2:	0f b6 00             	movzbl (%rax),%eax
   120f5:	0f be d0             	movsbl %al,%edx
   120f8:	8b 05 5e a1 00 00    	mov    0xa15e(%rip),%eax        # 1c25c <g_4+0x21c>
   120fe:	39 c2                	cmp    %eax,%edx
   12100:	0f 9d c0             	setge  %al
   12103:	0f b6 c0             	movzbl %al,%eax
   12106:	89 c2                	mov    %eax,%edx
   12108:	0f b7 05 61 aa 00 00 	movzwl 0xaa61(%rip),%eax        # 1cb70 <g_134>
   1210f:	31 d0                	xor    %edx,%eax
   12111:	66 89 05 58 aa 00 00 	mov    %ax,0xaa58(%rip)        # 1cb70 <g_134>
   12118:	0f b7 05 51 aa 00 00 	movzwl 0xaa51(%rip),%eax        # 1cb70 <g_134>
   1211f:	83 f0 f9             	xor    $0xfffffff9,%eax
   12122:	0f be c0             	movsbl %al,%eax
   12125:	89 de                	mov    %ebx,%esi
   12127:	89 c7                	mov    %eax,%edi
   12129:	e8 e4 70 ff ff       	callq  9212 <safe_mul_func_int8_t_s_s>
   1212e:	84 c0                	test   %al,%al
   12130:	74 14                	je     12146 <func_66+0x3c8d>
   12132:	48 8b 85 30 ec ff ff 	mov    -0x13d0(%rbp),%rax
   12139:	8b 00                	mov    (%rax),%eax
   1213b:	85 c0                	test   %eax,%eax
   1213d:	74 07                	je     12146 <func_66+0x3c8d>
   1213f:	b8 01 00 00 00       	mov    $0x1,%eax
   12144:	eb 05                	jmp    1214b <func_66+0x3c92>
   12146:	b8 00 00 00 00       	mov    $0x0,%eax
   1214b:	98                   	cwtl   
   1214c:	be 0d 00 00 00       	mov    $0xd,%esi
   12151:	89 c7                	mov    %eax,%edi
   12153:	e8 89 73 ff ff       	callq  94e1 <safe_lshift_func_int16_t_s_u>
   12158:	66 85 c0             	test   %ax,%ax
   1215b:	0f 95 c2             	setne  %dl
   1215e:	48 8b 05 2b d1 00 00 	mov    0xd12b(%rip),%rax        # 1f290 <g_647>
   12165:	48 8b 00             	mov    (%rax),%rax
   12168:	0f b6 d2             	movzbl %dl,%edx
   1216b:	89 10                	mov    %edx,(%rax)
   1216d:	ba 00 00 00 00       	mov    $0x0,%edx
   12172:	48 8b 85 18 ec ff ff 	mov    -0x13e8(%rbp),%rax
   12179:	8b 00                	mov    (%rax),%eax
   1217b:	31 c2                	xor    %eax,%edx
   1217d:	48 8b 85 18 ec ff ff 	mov    -0x13e8(%rbp),%rax
   12184:	89 10                	mov    %edx,(%rax)
   12186:	48 8b 05 fb cf 00 00 	mov    0xcffb(%rip),%rax        # 1f188 <g_267>
   1218d:	48 8b 95 18 ec ff ff 	mov    -0x13e8(%rbp),%rdx
   12194:	8b 12                	mov    (%rdx),%edx
   12196:	89 10                	mov    %edx,(%rax)
   12198:	e9 02 26 00 00       	jmpq   1479f <func_66+0x62e6>
   1219d:	c7 85 9c ea ff ff 3e 	movl   $0x5f9a243e,-0x1564(%rbp)
   121a4:	24 9a 5f 
   121a7:	c7 85 1c eb ff ff 08 	movl   $0x8,-0x14e4(%rbp)
   121ae:	00 00 00 
   121b1:	c7 85 e0 ef ff ff bb 	movl   $0x2023bb,-0x1020(%rbp)
   121b8:	23 20 00 
   121bb:	c7 85 e4 ef ff ff bb 	movl   $0x2023bb,-0x101c(%rbp)
   121c2:	23 20 00 
   121c5:	c7 85 e8 ef ff ff bb 	movl   $0x2023bb,-0x1018(%rbp)
   121cc:	23 20 00 
   121cf:	c7 85 ec ef ff ff bb 	movl   $0x2023bb,-0x1014(%rbp)
   121d6:	23 20 00 
   121d9:	c7 85 f0 ef ff ff bb 	movl   $0x2023bb,-0x1010(%rbp)
   121e0:	23 20 00 
   121e3:	c7 85 f4 ef ff ff bb 	movl   $0x2023bb,-0x100c(%rbp)
   121ea:	23 20 00 
   121ed:	c7 85 f8 ef ff ff bb 	movl   $0x2023bb,-0x1008(%rbp)
   121f4:	23 20 00 
   121f7:	c7 85 fc ef ff ff bb 	movl   $0x2023bb,-0x1004(%rbp)
   121fe:	23 20 00 
   12201:	c7 85 00 f0 ff ff bb 	movl   $0x2023bb,-0x1000(%rbp)
   12208:	23 20 00 
   1220b:	c7 85 a0 ea ff ff 00 	movl   $0x0,-0x1560(%rbp)
   12212:	00 00 00 
   12215:	eb 1e                	jmp    12235 <func_66+0x3d7c>
   12217:	8b 85 a0 ea ff ff    	mov    -0x1560(%rbp),%eax
   1221d:	48 98                	cltq   
   1221f:	48 8d 95 70 eb ff ff 	lea    -0x1490(%rbp),%rdx
   12226:	48 89 94 c5 80 ef ff 	mov    %rdx,-0x1080(%rbp,%rax,8)
   1222d:	ff 
   1222e:	83 85 a0 ea ff ff 01 	addl   $0x1,-0x1560(%rbp)
   12235:	83 bd a0 ea ff ff 03 	cmpl   $0x3,-0x1560(%rbp)
   1223c:	7e d9                	jle    12217 <func_66+0x3d5e>
   1223e:	90                   	nop
   1223f:	48 c7 05 16 a9 00 00 	movq   $0x0,0xa916(%rip)        # 1cb60 <g_79>
   12246:	00 00 00 00 
   1224a:	90                   	nop
   1224b:	48 8b 05 0e a9 00 00 	mov    0xa90e(%rip),%rax        # 1cb60 <g_79>
   12252:	48 83 f8 0c          	cmp    $0xc,%rax
   12256:	0f 87 5d 0c 00 00    	ja     12eb9 <func_66+0x4a00>
   1225c:	c6 85 21 ea ff ff 6e 	movb   $0x6e,-0x15df(%rbp)
   12263:	48 8d 05 06 a9 00 00 	lea    0xa906(%rip),%rax        # 1cb70 <g_134>
   1226a:	48 89 85 08 ec ff ff 	mov    %rax,-0x13f8(%rbp)
   12271:	c7 85 a4 ea ff ff aa 	movl   $0xa30cc4aa,-0x155c(%rbp)
   12278:	c4 0c a3 
   1227b:	c7 85 20 eb ff ff 16 	movl   $0xb41cea16,-0x14e0(%rbp)
   12282:	ea 1c b4 
   12285:	c7 85 a8 ea ff ff 7d 	movl   $0x4324bf7d,-0x1558(%rbp)
   1228c:	bf 24 43 
   1228f:	c7 85 24 eb ff ff ec 	movl   $0xf0559aec,-0x14dc(%rbp)
   12296:	9a 55 f0 
   12299:	c7 85 28 eb ff ff 8f 	movl   $0x6d14558f,-0x14d8(%rbp)
   122a0:	55 14 6d 
   122a3:	c7 85 2c eb ff ff 07 	movl   $0x1248b607,-0x14d4(%rbp)
   122aa:	b6 48 12 
   122ad:	c7 85 30 eb ff ff 62 	movl   $0x7cc22e62,-0x14d0(%rbp)
   122b4:	2e c2 7c 
   122b7:	83 bd 0c ea ff ff 00 	cmpl   $0x0,-0x15f4(%rbp)
   122be:	0f 84 64 01 00 00    	je     12428 <func_66+0x3f6f>
   122c4:	48 c7 85 48 ee ff ff 	movq   $0x1,-0x11b8(%rbp)
   122cb:	01 00 00 00 
   122cf:	48 c7 85 50 ee ff ff 	movq   $0x0,-0x11b0(%rbp)
   122d6:	00 00 00 00 
   122da:	48 8d 05 b3 a8 00 00 	lea    0xa8b3(%rip),%rax        # 1cb94 <g_698>
   122e1:	48 89 85 58 ee ff ff 	mov    %rax,-0x11a8(%rbp)
   122e8:	48 8d 85 10 fa ff ff 	lea    -0x5f0(%rbp),%rax
   122ef:	48 8d 15 6a c8 00 00 	lea    0xc86a(%rip),%rdx        # 1eb60 <g_3397+0x155f>
   122f6:	b9 6c 00 00 00       	mov    $0x6c,%ecx
   122fb:	48 89 c7             	mov    %rax,%rdi
   122fe:	48 89 d6             	mov    %rdx,%rsi
   12301:	f3 48 a5             	rep movsq %ds:(%rsi),%es:(%rdi)
   12304:	48 83 85 48 ee ff ff 	addq   $0x1,-0x11b8(%rbp)
   1230b:	01 
   1230c:	8b 95 0c ea ff ff    	mov    -0x15f4(%rbp),%edx
   12312:	48 8b 05 4f a8 00 00 	mov    0xa84f(%rip),%rax        # 1cb68 <g_113>
   12319:	48 39 c2             	cmp    %rax,%rdx
   1231c:	0f 92 c2             	setb   %dl
   1231f:	83 bd 0c ea ff ff 00 	cmpl   $0x0,-0x15f4(%rbp)
   12326:	75 10                	jne    12338 <func_66+0x3e7f>
   12328:	48 8b 05 61 cf 00 00 	mov    0xcf61(%rip),%rax        # 1f290 <g_647>
   1232f:	48 8b 00             	mov    (%rax),%rax
   12332:	8b 00                	mov    (%rax),%eax
   12334:	85 c0                	test   %eax,%eax
   12336:	74 07                	je     1233f <func_66+0x3e86>
   12338:	b8 01 00 00 00       	mov    $0x1,%eax
   1233d:	eb 05                	jmp    12344 <func_66+0x3e8b>
   1233f:	b8 00 00 00 00       	mov    $0x0,%eax
   12344:	83 e0 01             	and    $0x1,%eax
   12347:	31 c2                	xor    %eax,%edx
   12349:	48 8b 05 40 cf 00 00 	mov    0xcf40(%rip),%rax        # 1f290 <g_647>
   12350:	48 8b 00             	mov    (%rax),%rax
   12353:	0f b6 d2             	movzbl %dl,%edx
   12356:	89 10                	mov    %edx,(%rax)
   12358:	8b 18                	mov    (%rax),%ebx
   1235a:	48 8b 85 48 ee ff ff 	mov    -0x11b8(%rbp),%rax
   12361:	41 89 c4             	mov    %eax,%r12d
   12364:	0f b7 05 ff e7 00 00 	movzwl 0xe7ff(%rip),%eax        # 20b6a <g_250>
   1236b:	83 c0 01             	add    $0x1,%eax
   1236e:	66 89 05 f5 e7 00 00 	mov    %ax,0xe7f5(%rip)        # 20b6a <g_250>
   12375:	0f b7 05 16 a8 00 00 	movzwl 0xa816(%rip),%eax        # 1cb92 <g_642>
   1237c:	66 0f be 95 21 ea ff 	movsbw -0x15df(%rbp),%dx
   12383:	ff 
   12384:	48 8b 85 58 ee ff ff 	mov    -0x11a8(%rbp),%rax
   1238b:	0f b7 08             	movzwl (%rax),%ecx
   1238e:	0f b7 05 db a7 00 00 	movzwl 0xa7db(%rip),%eax        # 1cb70 <g_134>
   12395:	31 c1                	xor    %eax,%ecx
   12397:	48 8b 85 58 ee ff ff 	mov    -0x11a8(%rbp),%rax
   1239e:	66 89 08             	mov    %cx,(%rax)
   123a1:	48 8b 85 58 ee ff ff 	mov    -0x11a8(%rbp),%rax
   123a8:	0f b7 00             	movzwl (%rax),%eax
   123ab:	66 39 c2             	cmp    %ax,%dx
   123ae:	0f 94 c0             	sete   %al
   123b1:	0f b6 c0             	movzbl %al,%eax
   123b4:	48 39 85 38 ee ff ff 	cmp    %rax,-0x11c8(%rbp)
   123bb:	0f 9f c0             	setg   %al
   123be:	0f b6 c0             	movzbl %al,%eax
   123c1:	8b 95 0c ea ff ff    	mov    -0x15f4(%rbp),%edx
   123c7:	89 d6                	mov    %edx,%esi
   123c9:	89 c7                	mov    %eax,%edi
   123cb:	e8 e8 7a ff ff       	callq  9eb8 <safe_add_func_uint32_t_u_u>
   123d0:	80 bd 21 ea ff ff 00 	cmpb   $0x0,-0x15df(%rbp)
   123d7:	75 0d                	jne    123e6 <func_66+0x3f2d>
   123d9:	48 8b 85 48 ec ff ff 	mov    -0x13b8(%rbp),%rax
   123e0:	8b 00                	mov    (%rax),%eax
   123e2:	85 c0                	test   %eax,%eax
   123e4:	74 07                	je     123ed <func_66+0x3f34>
   123e6:	b8 01 00 00 00       	mov    $0x1,%eax
   123eb:	eb 05                	jmp    123f2 <func_66+0x3f39>
   123ed:	b8 00 00 00 00       	mov    $0x0,%eax
   123f2:	98                   	cwtl   
   123f3:	44 89 e6             	mov    %r12d,%esi
   123f6:	89 c7                	mov    %eax,%edi
   123f8:	e8 95 70 ff ff       	callq  9492 <safe_lshift_func_int16_t_s_s>
   123fd:	0f bf d0             	movswl %ax,%edx
   12400:	0f b7 05 6b a7 00 00 	movzwl 0xa76b(%rip),%eax        # 1cb72 <g_146>
   12407:	0f b7 c0             	movzwl %ax,%eax
   1240a:	39 c2                	cmp    %eax,%edx
   1240c:	0f 9d c0             	setge  %al
   1240f:	0f b6 c0             	movzbl %al,%eax
   12412:	39 c3                	cmp    %eax,%ebx
   12414:	0f 93 c0             	setae  %al
   12417:	0f b6 d0             	movzbl %al,%edx
   1241a:	48 8b 85 18 ec ff ff 	mov    -0x13e8(%rbp),%rax
   12421:	89 10                	mov    %edx,(%rax)
   12423:	e9 98 04 00 00       	jmpq   128c0 <func_66+0x4407>
   12428:	48 b8 3f 72 f3 66 d4 	movabs $0x9c2fa4d466f3723f,%rax
   1242f:	a4 2f 9c 
   12432:	48 89 85 10 ec ff ff 	mov    %rax,-0x13f0(%rbp)
   12439:	48 8b 85 18 ec ff ff 	mov    -0x13e8(%rbp),%rax
   12440:	8b 00                	mov    (%rax),%eax
   12442:	89 c2                	mov    %eax,%edx
   12444:	8b 05 0a 65 00 00    	mov    0x650a(%rip),%eax        # 18954 <l_699.5029+0x14>
   1244a:	31 d0                	xor    %edx,%eax
   1244c:	89 c2                	mov    %eax,%edx
   1244e:	48 8b 85 18 ec ff ff 	mov    -0x13e8(%rbp),%rax
   12455:	89 10                	mov    %edx,(%rax)
   12457:	48 8b 85 18 ec ff ff 	mov    -0x13e8(%rbp),%rax
   1245e:	8b 00                	mov    (%rax),%eax
   12460:	85 c0                	test   %eax,%eax
   12462:	0f 84 2a 04 00 00    	je     12892 <func_66+0x43d9>
   12468:	48 8d 85 98 eb ff ff 	lea    -0x1468(%rbp),%rax
   1246f:	48 89 85 10 fa ff ff 	mov    %rax,-0x5f0(%rbp)
   12476:	48 c7 85 18 fa ff ff 	movq   $0x0,-0x5e8(%rbp)
   1247d:	00 00 00 00 
   12481:	48 8d 85 98 eb ff ff 	lea    -0x1468(%rbp),%rax
   12488:	48 89 85 20 fa ff ff 	mov    %rax,-0x5e0(%rbp)
   1248f:	48 8d 85 10 ec ff ff 	lea    -0x13f0(%rbp),%rax
   12496:	48 89 85 28 fa ff ff 	mov    %rax,-0x5d8(%rbp)
   1249d:	48 8d 85 10 ec ff ff 	lea    -0x13f0(%rbp),%rax
   124a4:	48 89 85 30 fa ff ff 	mov    %rax,-0x5d0(%rbp)
   124ab:	48 8d 85 98 eb ff ff 	lea    -0x1468(%rbp),%rax
   124b2:	48 89 85 38 fa ff ff 	mov    %rax,-0x5c8(%rbp)
   124b9:	48 c7 85 40 fa ff ff 	movq   $0x0,-0x5c0(%rbp)
   124c0:	00 00 00 00 
   124c4:	48 8d 85 98 eb ff ff 	lea    -0x1468(%rbp),%rax
   124cb:	48 89 85 48 fa ff ff 	mov    %rax,-0x5b8(%rbp)
   124d2:	48 c7 85 50 fa ff ff 	movq   $0x0,-0x5b0(%rbp)
   124d9:	00 00 00 00 
   124dd:	48 8d 85 90 eb ff ff 	lea    -0x1470(%rbp),%rax
   124e4:	48 89 85 58 fa ff ff 	mov    %rax,-0x5a8(%rbp)
   124eb:	48 8d 85 10 ec ff ff 	lea    -0x13f0(%rbp),%rax
   124f2:	48 89 85 60 fa ff ff 	mov    %rax,-0x5a0(%rbp)
   124f9:	48 8d 85 90 eb ff ff 	lea    -0x1470(%rbp),%rax
   12500:	48 89 85 68 fa ff ff 	mov    %rax,-0x598(%rbp)
   12507:	48 8d 85 90 eb ff ff 	lea    -0x1470(%rbp),%rax
   1250e:	48 89 85 70 fa ff ff 	mov    %rax,-0x590(%rbp)
   12515:	48 c7 85 78 fa ff ff 	movq   $0x0,-0x588(%rbp)
   1251c:	00 00 00 00 
   12520:	48 8d 85 10 ec ff ff 	lea    -0x13f0(%rbp),%rax
   12527:	48 89 85 80 fa ff ff 	mov    %rax,-0x580(%rbp)
   1252e:	48 c7 85 88 fa ff ff 	movq   $0x0,-0x578(%rbp)
   12535:	00 00 00 00 
   12539:	48 8d 85 90 eb ff ff 	lea    -0x1470(%rbp),%rax
   12540:	48 89 85 90 fa ff ff 	mov    %rax,-0x570(%rbp)
   12547:	48 8d 85 90 eb ff ff 	lea    -0x1470(%rbp),%rax
   1254e:	48 89 85 98 fa ff ff 	mov    %rax,-0x568(%rbp)
   12555:	48 8d 85 10 ec ff ff 	lea    -0x13f0(%rbp),%rax
   1255c:	48 89 85 a0 fa ff ff 	mov    %rax,-0x560(%rbp)
   12563:	48 8d 85 90 eb ff ff 	lea    -0x1470(%rbp),%rax
   1256a:	48 89 85 a8 fa ff ff 	mov    %rax,-0x558(%rbp)
   12571:	48 c7 85 b0 fa ff ff 	movq   $0x0,-0x550(%rbp)
   12578:	00 00 00 00 
   1257c:	c7 85 a0 f2 ff ff 00 	movl   $0x0,-0xd60(%rbp)
   12583:	00 00 00 
   12586:	c7 85 a4 f2 ff ff 04 	movl   $0x4,-0xd5c(%rbp)
   1258d:	00 00 00 
   12590:	c7 85 a8 f2 ff ff 00 	movl   $0x0,-0xd58(%rbp)
   12597:	00 00 00 
   1259a:	c7 85 ac f2 ff ff 00 	movl   $0x0,-0xd54(%rbp)
   125a1:	00 00 00 
   125a4:	c7 85 b0 f2 ff ff 04 	movl   $0x4,-0xd50(%rbp)
   125ab:	00 00 00 
   125ae:	c7 85 b4 f2 ff ff 00 	movl   $0x0,-0xd4c(%rbp)
   125b5:	00 00 00 
   125b8:	c7 85 b8 f2 ff ff 00 	movl   $0x0,-0xd48(%rbp)
   125bf:	00 00 00 
   125c2:	c7 85 bc f2 ff ff 04 	movl   $0x4,-0xd44(%rbp)
   125c9:	00 00 00 
   125cc:	c7 85 c0 f2 ff ff 00 	movl   $0x0,-0xd40(%rbp)
   125d3:	00 00 00 
   125d6:	c7 85 c4 f2 ff ff 00 	movl   $0x0,-0xd3c(%rbp)
   125dd:	00 00 00 
   125e0:	0f b7 05 ad a5 00 00 	movzwl 0xa5ad(%rip),%eax        # 1cb94 <g_698>
   125e7:	98                   	cwtl   
   125e8:	48 8b 95 10 ec ff ff 	mov    -0x13f0(%rbp),%rdx
   125ef:	31 d0                	xor    %edx,%eax
   125f1:	f7 d0                	not    %eax
   125f3:	89 c2                	mov    %eax,%edx
   125f5:	48 8b 05 8c cb 00 00 	mov    0xcb8c(%rip),%rax        # 1f188 <g_267>
   125fc:	89 10                	mov    %edx,(%rax)
   125fe:	8b 85 14 eb ff ff    	mov    -0x14ec(%rbp),%eax
   12604:	0f be d8             	movsbl %al,%ebx
   12607:	48 8b 85 38 ee ff ff 	mov    -0x11c8(%rbp),%rax
   1260e:	41 89 c7             	mov    %eax,%r15d
   12611:	48 8b 85 48 ec ff ff 	mov    -0x13b8(%rbp),%rax
   12618:	8b 00                	mov    (%rax),%eax
   1261a:	89 85 04 ea ff ff    	mov    %eax,-0x15fc(%rbp)
   12620:	48 8b 05 39 a5 00 00 	mov    0xa539(%rip),%rax        # 1cb60 <g_79>
   12627:	44 0f b7 e0          	movzwl %ax,%r12d
   1262b:	8b 05 23 63 00 00    	mov    0x6323(%rip),%eax        # 18954 <l_699.5029+0x14>
   12631:	89 85 00 ea ff ff    	mov    %eax,-0x1600(%rbp)
   12637:	48 8b 05 22 cc 00 00 	mov    0xcc22(%rip),%rax        # 1f260 <g_447>
   1263e:	0f b6 00             	movzbl (%rax),%eax
   12641:	44 0f be e8          	movsbl %al,%r13d
   12645:	44 8b b5 08 ea ff ff 	mov    -0x15f8(%rbp),%r14d
   1264c:	8b 85 00 ec ff ff    	mov    -0x1400(%rbp),%eax
   12652:	89 c0                	mov    %eax,%eax
   12654:	48 89 c7             	mov    %rax,%rdi
   12657:	e8 ba 71 ff ff       	callq  9816 <safe_unary_minus_func_int64_t_s>
   1265c:	48 8b 05 05 a5 00 00 	mov    0xa505(%rip),%rax        # 1cb68 <g_113>
   12663:	48 83 e8 01          	sub    $0x1,%rax
   12667:	48 89 05 fa a4 00 00 	mov    %rax,0xa4fa(%rip)        # 1cb68 <g_113>
   1266e:	48 b8 af 8f 3b 88 da 	movabs $0x174573da883b8faf,%rax
   12675:	73 45 17 
   12678:	48 39 85 38 ee ff ff 	cmp    %rax,-0x11c8(%rbp)
   1267f:	48 8b 05 da cb 00 00 	mov    0xcbda(%rip),%rax        # 1f260 <g_447>
   12686:	0f b6 00             	movzbl (%rax),%eax
   12689:	0f be c0             	movsbl %al,%eax
   1268c:	83 e0 01             	and    $0x1,%eax
   1268f:	be f8 ff ff ff       	mov    $0xfffffff8,%esi
   12694:	89 c7                	mov    %eax,%edi
   12696:	e8 77 6b ff ff       	callq  9212 <safe_mul_func_int8_t_s_s>
   1269b:	0f be c0             	movsbl %al,%eax
   1269e:	44 89 f6             	mov    %r14d,%esi
   126a1:	89 c7                	mov    %eax,%edi
   126a3:	e8 c4 6c ff ff       	callq  936c <safe_rshift_func_int8_t_s_u>
   126a8:	84 c0                	test   %al,%al
   126aa:	74 11                	je     126bd <func_66+0x4204>
   126ac:	8b 85 a4 f2 ff ff    	mov    -0xd5c(%rbp),%eax
   126b2:	85 c0                	test   %eax,%eax
   126b4:	74 07                	je     126bd <func_66+0x4204>
   126b6:	b8 01 00 00 00       	mov    $0x1,%eax
   126bb:	eb 05                	jmp    126c2 <func_66+0x4209>
   126bd:	b8 00 00 00 00       	mov    $0x0,%eax
   126c2:	89 c2                	mov    %eax,%edx
   126c4:	8b 85 00 ec ff ff    	mov    -0x1400(%rbp),%eax
   126ca:	39 c2                	cmp    %eax,%edx
   126cc:	0f 97 c2             	seta   %dl
   126cf:	48 8b 85 08 ec ff ff 	mov    -0x13f8(%rbp),%rax
   126d6:	0f b6 d2             	movzbl %dl,%edx
   126d9:	66 89 10             	mov    %dx,(%rax)
   126dc:	0f b7 00             	movzwl (%rax),%eax
   126df:	98                   	cwtl   
   126e0:	be e3 3f 00 00       	mov    $0x3fe3,%esi
   126e5:	89 c7                	mov    %eax,%edi
   126e7:	e8 2a 6d ff ff       	callq  9416 <safe_mod_func_int16_t_s_s>
   126ec:	8b 85 08 ea ff ff    	mov    -0x15f8(%rbp),%eax
   126f2:	89 c6                	mov    %eax,%esi
   126f4:	bf 00 00 00 00       	mov    $0x0,%edi
   126f9:	e8 2c 6e ff ff       	callq  952a <safe_rshift_func_int16_t_s_s>
   126fe:	83 bd 08 ea ff ff 00 	cmpl   $0x0,-0x15f8(%rbp)
   12705:	74 07                	je     1270e <func_66+0x4255>
   12707:	b8 01 00 00 00       	mov    $0x1,%eax
   1270c:	eb 05                	jmp    12713 <func_66+0x425a>
   1270e:	b8 00 00 00 00       	mov    $0x0,%eax
   12713:	0f be c0             	movsbl %al,%eax
   12716:	44 89 ee             	mov    %r13d,%esi
   12719:	89 c7                	mov    %eax,%edi
   1271b:	e8 d2 6a ff ff       	callq  91f2 <safe_sub_func_int8_t_s_s>
   12720:	0f be c0             	movsbl %al,%eax
   12723:	39 85 08 ea ff ff    	cmp    %eax,-0x15f8(%rbp)
   12729:	0f 9f c0             	setg   %al
   1272c:	0f b6 c0             	movzbl %al,%eax
   1272f:	8b b5 00 ea ff ff    	mov    -0x1600(%rbp),%esi
   12735:	89 c7                	mov    %eax,%edi
   12737:	e8 f9 6b ff ff       	callq  9335 <safe_rshift_func_int8_t_s_s>
   1273c:	66 98                	cbtw   
   1273e:	0f b7 c0             	movzwl %ax,%eax
   12741:	44 89 e6             	mov    %r12d,%esi
   12744:	89 c7                	mov    %eax,%edi
   12746:	e8 f2 75 ff ff       	callq  9d3d <safe_mul_func_uint16_t_u_u>
   1274b:	8b 85 08 ea ff ff    	mov    -0x15f8(%rbp),%eax
   12751:	98                   	cwtl   
   12752:	89 c7                	mov    %eax,%edi
   12754:	e8 44 6c ff ff       	callq  939d <safe_unary_minus_func_int16_t_s>
   12759:	8b 05 e9 e3 00 00    	mov    0xe3e9(%rip),%eax        # 20b48 <g_41>
   1275f:	85 c0                	test   %eax,%eax
   12761:	74 07                	je     1276a <func_66+0x42b1>
   12763:	80 bd 1e ea ff ff 00 	cmpb   $0x0,-0x15e2(%rbp)
   1276a:	48 8b 85 38 ee ff ff 	mov    -0x11c8(%rbp),%rax
   12771:	48 89 c6             	mov    %rax,%rsi
   12774:	bf 03 00 00 00       	mov    $0x3,%edi
   12779:	e8 b0 78 ff ff       	callq  a02e <safe_add_func_uint64_t_u_u>
   1277e:	0f b7 c0             	movzwl %ax,%eax
   12781:	be 05 00 00 00       	mov    $0x5,%esi
   12786:	89 c7                	mov    %eax,%edi
   12788:	e8 79 76 ff ff       	callq  9e06 <safe_lshift_func_uint16_t_u_u>
   1278d:	0f be c0             	movsbl %al,%eax
   12790:	89 c6                	mov    %eax,%esi
   12792:	bf f8 ff ff ff       	mov    $0xfffffff8,%edi
   12797:	e8 76 6a ff ff       	callq  9212 <safe_mul_func_int8_t_s_s>
   1279c:	0f be c0             	movsbl %al,%eax
   1279f:	8b b5 04 ea ff ff    	mov    -0x15fc(%rbp),%esi
   127a5:	89 c7                	mov    %eax,%edi
   127a7:	e8 79 77 ff ff       	callq  9f25 <safe_div_func_uint32_t_u_u>
   127ac:	98                   	cwtl   
   127ad:	be 06 00 00 00       	mov    $0x6,%esi
   127b2:	89 c7                	mov    %eax,%edi
   127b4:	e8 d9 6c ff ff       	callq  9492 <safe_lshift_func_int16_t_s_s>
   127b9:	0f b6 c0             	movzbl %al,%eax
   127bc:	be 03 00 00 00       	mov    $0x3,%esi
   127c1:	89 c7                	mov    %eax,%edi
   127c3:	e8 c5 74 ff ff       	callq  9c8d <safe_rshift_func_uint8_t_u_s>
   127c8:	0f b6 c0             	movzbl %al,%eax
   127cb:	39 85 a4 ea ff ff    	cmp    %eax,-0x155c(%rbp)
   127d1:	0f 97 c0             	seta   %al
   127d4:	0f b6 c0             	movzbl %al,%eax
   127d7:	39 85 9c ea ff ff    	cmp    %eax,-0x1564(%rbp)
   127dd:	0f 92 c0             	setb   %al
   127e0:	0f b6 d0             	movzbl %al,%edx
   127e3:	0f b7 05 80 e3 00 00 	movzwl 0xe380(%rip),%eax        # 20b6a <g_250>
   127ea:	0f b7 c0             	movzwl %ax,%eax
   127ed:	39 c2                	cmp    %eax,%edx
   127ef:	0f 94 c0             	sete   %al
   127f2:	0f b6 c0             	movzbl %al,%eax
   127f5:	44 89 fe             	mov    %r15d,%esi
   127f8:	89 c7                	mov    %eax,%edi
   127fa:	e8 b9 76 ff ff       	callq  9eb8 <safe_add_func_uint32_t_u_u>
   127ff:	89 c2                	mov    %eax,%edx
   12801:	48 8b 05 98 a2 00 00 	mov    0xa298(%rip),%rax        # 1caa0 <g_77+0x6c0>
   12808:	48 39 c2             	cmp    %rax,%rdx
   1280b:	48 8b 05 4e ca 00 00 	mov    0xca4e(%rip),%rax        # 1f260 <g_447>
   12812:	0f b6 00             	movzbl (%rax),%eax
   12815:	0f be c0             	movsbl %al,%eax
   12818:	25 83 00 00 00       	and    $0x83,%eax
   1281d:	89 85 10 eb ff ff    	mov    %eax,-0x14f0(%rbp)
   12823:	8b 85 08 ea ff ff    	mov    -0x15f8(%rbp),%eax
   12829:	48 98                	cltq   
   1282b:	8b 95 9c ea ff ff    	mov    -0x1564(%rbp),%edx
   12831:	48 83 f2 f9          	xor    $0xfffffffffffffff9,%rdx
   12835:	48 39 d0             	cmp    %rdx,%rax
   12838:	0f 9e c0             	setle  %al
   1283b:	f7 d0                	not    %eax
   1283d:	89 c2                	mov    %eax,%edx
   1283f:	48 8b 05 1a ca 00 00 	mov    0xca1a(%rip),%rax        # 1f260 <g_447>
   12846:	88 10                	mov    %dl,(%rax)
   12848:	0f b6 00             	movzbl (%rax),%eax
   1284b:	0f be c0             	movsbl %al,%eax
   1284e:	89 de                	mov    %ebx,%esi
   12850:	89 c7                	mov    %eax,%edi
   12852:	e8 7d 69 ff ff       	callq  91d4 <safe_add_func_int8_t_s_s>
   12857:	0f b7 05 18 a3 00 00 	movzwl 0xa318(%rip),%eax        # 1cb76 <g_249>
   1285e:	ba 00 00 00 00       	mov    $0x0,%edx
   12863:	48 8b 85 18 ec ff ff 	mov    -0x13e8(%rbp),%rax
   1286a:	8b 00                	mov    (%rax),%eax
   1286c:	31 c2                	xor    %eax,%edx
   1286e:	48 8b 85 18 ec ff ff 	mov    -0x13e8(%rbp),%rax
   12875:	89 10                	mov    %edx,(%rax)
   12877:	8b 05 23 9b 00 00    	mov    0x9b23(%rip),%eax        # 1c3a0 <g_34>
   1287d:	85 c0                	test   %eax,%eax
   1287f:	74 05                	je     12886 <func_66+0x43cd>
   12881:	e9 b9 f9 ff ff       	jmpq   1223f <func_66+0x3d86>
   12886:	c7 85 1c eb ff ff fe 	movl   $0xfffffffe,-0x14e4(%rbp)
   1288d:	ff ff ff 
   12890:	eb 2e                	jmp    128c0 <func_66+0x4407>
   12892:	48 8d 05 af 9a 00 00 	lea    0x9aaf(%rip),%rax        # 1c348 <g_4+0x308>
   12899:	48 89 05 e8 c8 00 00 	mov    %rax,0xc8e8(%rip)        # 1f188 <g_267>
   128a0:	48 8b 15 e1 c8 00 00 	mov    0xc8e1(%rip),%rdx        # 1f188 <g_267>
   128a7:	48 8b 85 38 ec ff ff 	mov    -0x13c8(%rbp),%rax
   128ae:	48 89 10             	mov    %rdx,(%rax)
   128b1:	48 8b 85 18 ec ff ff 	mov    -0x13e8(%rbp),%rax
   128b8:	8b 95 08 ea ff ff    	mov    -0x15f8(%rbp),%edx
   128be:	89 10                	mov    %edx,(%rax)
   128c0:	c7 05 7e e2 00 00 03 	movl   $0x3,0xe27e(%rip)        # 20b48 <g_41>
   128c7:	00 00 00 
   128ca:	e9 d0 05 00 00       	jmpq   12e9f <func_66+0x49e6>
   128cf:	48 b8 eb f2 56 2e 35 	movabs $0xcff68f352e56f2eb,%rax
   128d6:	8f f6 cf 
   128d9:	48 89 85 60 ee ff ff 	mov    %rax,-0x11a0(%rbp)
   128e0:	48 8d 85 10 fa ff ff 	lea    -0x5f0(%rbp),%rax
   128e7:	48 8d 15 12 55 00 00 	lea    0x5512(%rip),%rdx        # 17e00 <g_1737+0xd6e>
   128ee:	b9 7a 00 00 00       	mov    $0x7a,%ecx
   128f3:	48 89 c7             	mov    %rax,%rdi
   128f6:	48 89 d6             	mov    %rdx,%rsi
   128f9:	f3 48 a5             	rep movsq %ds:(%rsi),%es:(%rdi)
   128fc:	48 89 f2             	mov    %rsi,%rdx
   128ff:	48 89 f8             	mov    %rdi,%rax
   12902:	8b 0a                	mov    (%rdx),%ecx
   12904:	89 08                	mov    %ecx,(%rax)
   12906:	c7 85 ac ea ff ff 00 	movl   $0x0,-0x1554(%rbp)
   1290d:	00 00 00 
   12910:	eb 14                	jmp    12926 <func_66+0x446d>
   12912:	8b 85 ac ea ff ff    	mov    -0x1554(%rbp),%eax
   12918:	48 98                	cltq   
   1291a:	c6 44 05 bf 4f       	movb   $0x4f,-0x41(%rbp,%rax,1)
   1291f:	83 85 ac ea ff ff 01 	addl   $0x1,-0x1554(%rbp)
   12926:	83 bd ac ea ff ff 00 	cmpl   $0x0,-0x1554(%rbp)
   1292d:	7e e3                	jle    12912 <func_66+0x4459>
   1292f:	c7 85 9c ea ff ff 00 	movl   $0x0,-0x1564(%rbp)
   12936:	00 00 00 
   12939:	e9 5d 02 00 00       	jmpq   12b9b <func_66+0x46e2>
   1293e:	48 8d 85 08 ec ff ff 	lea    -0x13f8(%rbp),%rax
   12945:	48 89 85 68 ee ff ff 	mov    %rax,-0x1198(%rbp)
   1294c:	48 8d 05 1f a2 00 00 	lea    0xa21f(%rip),%rax        # 1cb72 <g_146>
   12953:	48 89 85 70 ee ff ff 	mov    %rax,-0x1190(%rbp)
   1295a:	c7 85 4c eb ff ff 00 	movl   $0x0,-0x14b4(%rbp)
   12961:	00 00 00 
   12964:	48 c7 85 a0 f2 ff ff 	movq   $0x0,-0xd60(%rbp)
   1296b:	00 00 00 00 
   1296f:	48 c7 85 a8 f2 ff ff 	movq   $0x0,-0xd58(%rbp)
   12976:	00 00 00 00 
   1297a:	48 c7 85 b0 f2 ff ff 	movq   $0x0,-0xd50(%rbp)
   12981:	00 00 00 00 
   12985:	48 c7 85 b8 f2 ff ff 	movq   $0x0,-0xd48(%rbp)
   1298c:	00 00 00 00 
   12990:	48 c7 85 c0 f2 ff ff 	movq   $0x0,-0xd40(%rbp)
   12997:	00 00 00 00 
   1299b:	48 c7 85 c8 f2 ff ff 	movq   $0x0,-0xd38(%rbp)
   129a2:	00 00 00 00 
   129a6:	48 c7 85 d0 f2 ff ff 	movq   $0x0,-0xd30(%rbp)
   129ad:	00 00 00 00 
   129b1:	48 c7 85 d8 f2 ff ff 	movq   $0x0,-0xd28(%rbp)
   129b8:	00 00 00 00 
   129bc:	48 c7 85 e0 f2 ff ff 	movq   $0x0,-0xd20(%rbp)
   129c3:	00 00 00 00 
   129c7:	48 8b 85 60 ee ff ff 	mov    -0x11a0(%rbp),%rax
   129ce:	0f be d8             	movsbl %al,%ebx
   129d1:	8b 05 c1 a1 00 00    	mov    0xa1c1(%rip),%eax        # 1cb98 <g_740>
   129d7:	44 0f bf e0          	movswl %ax,%r12d
   129db:	44 8b ad 4c eb ff ff 	mov    -0x14b4(%rbp),%r13d
   129e2:	8b 85 08 ea ff ff    	mov    -0x15f8(%rbp),%eax
   129e8:	89 85 20 eb ff ff    	mov    %eax,-0x14e0(%rbp)
   129ee:	8b 85 20 eb ff ff    	mov    -0x14e0(%rbp),%eax
   129f4:	3b 85 4c eb ff ff    	cmp    -0x14b4(%rbp),%eax
   129fa:	0f 95 c0             	setne  %al
   129fd:	44 0f b6 f8          	movzbl %al,%r15d
   12a01:	0f b7 05 88 46 00 00 	movzwl 0x4688(%rip),%eax        # 17090 <g_644>
   12a08:	44 0f bf f0          	movswl %ax,%r14d
   12a0c:	8b 85 0c ea ff ff    	mov    -0x15f4(%rbp),%eax
   12a12:	0f be c0             	movsbl %al,%eax
   12a15:	be 65 00 00 00       	mov    $0x65,%esi
   12a1a:	89 c7                	mov    %eax,%edi
   12a1c:	e8 b3 67 ff ff       	callq  91d4 <safe_add_func_int8_t_s_s>
   12a21:	0f be c0             	movsbl %al,%eax
   12a24:	44 89 f6             	mov    %r14d,%esi
   12a27:	89 c7                	mov    %eax,%edi
   12a29:	e8 3e 69 ff ff       	callq  936c <safe_rshift_func_int8_t_s_u>
   12a2e:	48 0f be c0          	movsbq %al,%rax
   12a32:	48 39 85 60 ee ff ff 	cmp    %rax,-0x11a0(%rbp)
   12a39:	0f 9e c0             	setle  %al
   12a3c:	0f b6 c0             	movzbl %al,%eax
   12a3f:	41 39 c7             	cmp    %eax,%r15d
   12a42:	7e 0a                	jle    12a4e <func_66+0x4595>
   12a44:	48 83 bd 60 ee ff ff 	cmpq   $0x0,-0x11a0(%rbp)
   12a4b:	00 
   12a4c:	74 07                	je     12a55 <func_66+0x459c>
   12a4e:	b8 01 00 00 00       	mov    $0x1,%eax
   12a53:	eb 05                	jmp    12a5a <func_66+0x45a1>
   12a55:	b8 00 00 00 00       	mov    $0x0,%eax
   12a5a:	0f b7 d0             	movzwl %ax,%edx
   12a5d:	48 8b 85 70 ee ff ff 	mov    -0x1190(%rbp),%rax
   12a64:	0f b7 00             	movzwl (%rax),%eax
   12a67:	8d 48 ff             	lea    -0x1(%rax),%ecx
   12a6a:	48 8b 85 70 ee ff ff 	mov    -0x1190(%rbp),%rax
   12a71:	66 89 08             	mov    %cx,(%rax)
   12a74:	48 8b 85 70 ee ff ff 	mov    -0x1190(%rbp),%rax
   12a7b:	0f b7 00             	movzwl (%rax),%eax
   12a7e:	0f b7 c0             	movzwl %ax,%eax
   12a81:	89 d6                	mov    %edx,%esi
   12a83:	89 c7                	mov    %eax,%edi
   12a85:	e8 95 72 ff ff       	callq  9d1f <safe_sub_func_uint16_t_u_u>
   12a8a:	0f b7 d0             	movzwl %ax,%edx
   12a8d:	48 8b 05 cc c7 00 00 	mov    0xc7cc(%rip),%rax        # 1f260 <g_447>
   12a94:	0f b6 00             	movzbl (%rax),%eax
   12a97:	0f be c0             	movsbl %al,%eax
   12a9a:	39 c2                	cmp    %eax,%edx
   12a9c:	0f 9e c0             	setle  %al
   12a9f:	0f b6 c0             	movzbl %al,%eax
   12aa2:	44 89 ee             	mov    %r13d,%esi
   12aa5:	89 c7                	mov    %eax,%edi
   12aa7:	e8 42 68 ff ff       	callq  92ee <safe_lshift_func_int8_t_s_u>
   12aac:	84 c0                	test   %al,%al
   12aae:	48 8b 85 60 ee ff ff 	mov    -0x11a0(%rbp),%rax
   12ab5:	0f be c0             	movsbl %al,%eax
   12ab8:	be 00 00 00 00       	mov    $0x0,%esi
   12abd:	89 c7                	mov    %eax,%edi
   12abf:	e8 10 67 ff ff       	callq  91d4 <safe_add_func_int8_t_s_s>
   12ac4:	48 8b 85 68 ee ff ff 	mov    -0x1198(%rbp),%rax
   12acb:	48 8b 95 40 ee ff ff 	mov    -0x11c0(%rbp),%rdx
   12ad2:	48 89 10             	mov    %rdx,(%rax)
   12ad5:	48 8b 85 68 ee ff ff 	mov    -0x1198(%rbp),%rax
   12adc:	48 8b 00             	mov    (%rax),%rax
   12adf:	48 85 c0             	test   %rax,%rax
   12ae2:	0f 95 c0             	setne  %al
   12ae5:	0f b6 c0             	movzbl %al,%eax
   12ae8:	39 85 0c ea ff ff    	cmp    %eax,-0x15f4(%rbp)
   12aee:	0f 93 c0             	setae  %al
   12af1:	0f b6 d0             	movzbl %al,%edx
   12af4:	8b 85 0c ea ff ff    	mov    -0x15f4(%rbp),%eax
   12afa:	0f b7 c0             	movzwl %ax,%eax
   12afd:	89 d6                	mov    %edx,%esi
   12aff:	89 c7                	mov    %eax,%edi
   12b01:	e8 37 72 ff ff       	callq  9d3d <safe_mul_func_uint16_t_u_u>
   12b06:	0f b7 c0             	movzwl %ax,%eax
   12b09:	39 85 9c ea ff ff    	cmp    %eax,-0x1564(%rbp)
   12b0f:	74 13                	je     12b24 <func_66+0x466b>
   12b11:	0f b7 05 78 a0 00 00 	movzwl 0xa078(%rip),%eax        # 1cb90 <g_561>
   12b18:	66 85 c0             	test   %ax,%ax
   12b1b:	74 07                	je     12b24 <func_66+0x466b>
   12b1d:	b8 01 00 00 00       	mov    $0x1,%eax
   12b22:	eb 05                	jmp    12b29 <func_66+0x4670>
   12b24:	b8 00 00 00 00       	mov    $0x0,%eax
   12b29:	98                   	cwtl   
   12b2a:	44 89 e6             	mov    %r12d,%esi
   12b2d:	89 c7                	mov    %eax,%edi
   12b2f:	e8 21 69 ff ff       	callq  9455 <safe_div_func_int16_t_s_s>
   12b34:	8b 85 00 ec ff ff    	mov    -0x1400(%rbp),%eax
   12b3a:	85 c0                	test   %eax,%eax
   12b3c:	0f 95 c0             	setne  %al
   12b3f:	0f b6 c0             	movzbl %al,%eax
   12b42:	89 de                	mov    %ebx,%esi
   12b44:	89 c7                	mov    %eax,%edi
   12b46:	e8 c7 66 ff ff       	callq  9212 <safe_mul_func_int8_t_s_s>
   12b4b:	0f be c0             	movsbl %al,%eax
   12b4e:	31 85 a8 ea ff ff    	xor    %eax,-0x1558(%rbp)
   12b54:	8b 85 a8 ea ff ff    	mov    -0x1558(%rbp),%eax
   12b5a:	66 89 05 0f a0 00 00 	mov    %ax,0xa00f(%rip)        # 1cb70 <g_134>
   12b61:	8b 05 bd 94 00 00    	mov    0x94bd(%rip),%eax        # 1c024 <g_3>
   12b67:	85 c0                	test   %eax,%eax
   12b69:	74 10                	je     12b7b <func_66+0x46c2>
   12b6b:	83 bd 08 ea ff ff 00 	cmpl   $0x0,-0x15f8(%rbp)
   12b72:	74 07                	je     12b7b <func_66+0x46c2>
   12b74:	ba 01 00 00 00       	mov    $0x1,%edx
   12b79:	eb 05                	jmp    12b80 <func_66+0x46c7>
   12b7b:	ba 00 00 00 00       	mov    $0x0,%edx
   12b80:	48 8b 85 18 ec ff ff 	mov    -0x13e8(%rbp),%rax
   12b87:	8b 00                	mov    (%rax),%eax
   12b89:	31 c2                	xor    %eax,%edx
   12b8b:	48 8b 85 18 ec ff ff 	mov    -0x13e8(%rbp),%rax
   12b92:	89 10                	mov    %edx,(%rax)
   12b94:	83 85 9c ea ff ff 01 	addl   $0x1,-0x1564(%rbp)
   12b9b:	83 bd 9c ea ff ff 01 	cmpl   $0x1,-0x1564(%rbp)
   12ba2:	0f 86 96 fd ff ff    	jbe    1293e <func_66+0x4485>
   12ba8:	48 8b 85 18 ec ff ff 	mov    -0x13e8(%rbp),%rax
   12baf:	8b 00                	mov    (%rax),%eax
   12bb1:	33 85 0c ea ff ff    	xor    -0x15f4(%rbp),%eax
   12bb7:	89 c2                	mov    %eax,%edx
   12bb9:	48 8b 85 18 ec ff ff 	mov    -0x13e8(%rbp),%rax
   12bc0:	89 10                	mov    %edx,(%rax)
   12bc2:	c7 85 a4 ea ff ff 00 	movl   $0x0,-0x155c(%rbp)
   12bc9:	00 00 00 
   12bcc:	e9 b2 02 00 00       	jmpq   12e83 <func_66+0x49ca>
   12bd1:	48 8d 85 a0 eb ff ff 	lea    -0x1460(%rbp),%rax
   12bd8:	48 89 85 b0 f1 ff ff 	mov    %rax,-0xe50(%rbp)
   12bdf:	48 8d 85 a0 eb ff ff 	lea    -0x1460(%rbp),%rax
   12be6:	48 89 85 b8 f1 ff ff 	mov    %rax,-0xe48(%rbp)
   12bed:	48 8d 85 a0 eb ff ff 	lea    -0x1460(%rbp),%rax
   12bf4:	48 89 85 c0 f1 ff ff 	mov    %rax,-0xe40(%rbp)
   12bfb:	48 8d 85 a0 eb ff ff 	lea    -0x1460(%rbp),%rax
   12c02:	48 89 85 c8 f1 ff ff 	mov    %rax,-0xe38(%rbp)
   12c09:	48 8d 85 a0 eb ff ff 	lea    -0x1460(%rbp),%rax
   12c10:	48 89 85 d0 f1 ff ff 	mov    %rax,-0xe30(%rbp)
   12c17:	48 8d 85 a0 eb ff ff 	lea    -0x1460(%rbp),%rax
   12c1e:	48 89 85 d8 f1 ff ff 	mov    %rax,-0xe28(%rbp)
   12c25:	48 8d 85 a0 eb ff ff 	lea    -0x1460(%rbp),%rax
   12c2c:	48 89 85 e0 f1 ff ff 	mov    %rax,-0xe20(%rbp)
   12c33:	48 8d 85 a0 eb ff ff 	lea    -0x1460(%rbp),%rax
   12c3a:	48 89 85 e8 f1 ff ff 	mov    %rax,-0xe18(%rbp)
   12c41:	48 8d 85 a0 eb ff ff 	lea    -0x1460(%rbp),%rax
   12c48:	48 89 85 f0 f1 ff ff 	mov    %rax,-0xe10(%rbp)
   12c4f:	c7 85 34 eb ff ff 5f 	movl   $0xd72e725f,-0x14cc(%rbp)
   12c56:	72 2e d7 
   12c59:	c7 85 38 eb ff ff 13 	movl   $0xf4e2df13,-0x14c8(%rbp)
   12c60:	df e2 f4 
   12c63:	c7 85 3c eb ff ff 32 	movl   $0x503f8132,-0x14c4(%rbp)
   12c6a:	81 3f 50 
   12c6d:	c7 85 40 eb ff ff 05 	movl   $0x5,-0x14c0(%rbp)
   12c74:	00 00 00 
   12c77:	c7 85 44 eb ff ff 0a 	movl   $0xfc2ef80a,-0x14bc(%rbp)
   12c7e:	f8 2e fc 
   12c81:	c7 85 48 eb ff ff ff 	movl   $0xffffffff,-0x14b8(%rbp)
   12c88:	ff ff ff 
   12c8b:	c7 85 a0 f2 ff ff f0 	movl   $0xc8281f0,-0xd60(%rbp)
   12c92:	81 82 0c 
   12c95:	c7 85 a4 f2 ff ff 08 	movl   $0x8,-0xd5c(%rbp)
   12c9c:	00 00 00 
   12c9f:	c7 85 a8 f2 ff ff a1 	movl   $0x4127baa1,-0xd58(%rbp)
   12ca6:	ba 27 41 
   12ca9:	c7 85 ac f2 ff ff e4 	movl   $0x5a9a47e4,-0xd54(%rbp)
   12cb0:	47 9a 5a 
   12cb3:	c7 85 b0 f2 ff ff e4 	movl   $0x5a9a47e4,-0xd50(%rbp)
   12cba:	47 9a 5a 
   12cbd:	c7 85 b4 f2 ff ff fa 	movl   $0xfffffffa,-0xd4c(%rbp)
   12cc4:	ff ff ff 
   12cc7:	c7 85 b8 f2 ff ff 8b 	movl   $0x680a9d8b,-0xd48(%rbp)
   12cce:	9d 0a 68 
   12cd1:	c7 85 bc f2 ff ff fa 	movl   $0xfffffffa,-0xd44(%rbp)
   12cd8:	ff ff ff 
   12cdb:	c7 85 c0 f2 ff ff 8f 	movl   $0x59467a8f,-0xd40(%rbp)
   12ce2:	7a 46 59 
   12ce5:	c7 85 c4 f2 ff ff 08 	movl   $0x8,-0xd3c(%rbp)
   12cec:	00 00 00 
   12cef:	c7 85 c8 f2 ff ff ff 	movl   $0xffffffff,-0xd38(%rbp)
   12cf6:	ff ff ff 
   12cf9:	c7 85 cc f2 ff ff e4 	movl   $0x5a9a47e4,-0xd34(%rbp)
   12d00:	47 9a 5a 
   12d03:	c7 85 d0 f2 ff ff 08 	movl   $0x8,-0xd30(%rbp)
   12d0a:	00 00 00 
   12d0d:	c7 85 d4 f2 ff ff 8f 	movl   $0x59467a8f,-0xd2c(%rbp)
   12d14:	7a 46 59 
   12d17:	c7 85 d8 f2 ff ff fa 	movl   $0xfffffffa,-0xd28(%rbp)
   12d1e:	ff ff ff 
   12d21:	c7 85 dc f2 ff ff 08 	movl   $0x8,-0xd24(%rbp)
   12d28:	00 00 00 
   12d2b:	c7 85 e0 f2 ff ff a1 	movl   $0x4127baa1,-0xd20(%rbp)
   12d32:	ba 27 41 
   12d35:	c7 85 e4 f2 ff ff e4 	movl   $0x5a9a47e4,-0xd1c(%rbp)
   12d3c:	47 9a 5a 
   12d3f:	c7 85 e8 f2 ff ff e4 	movl   $0x5a9a47e4,-0xd18(%rbp)
   12d46:	47 9a 5a 
   12d49:	c7 85 ec f2 ff ff a1 	movl   $0x4127baa1,-0xd14(%rbp)
   12d50:	ba 27 41 
   12d53:	c7 85 f0 f2 ff ff a1 	movl   $0x4127baa1,-0xd10(%rbp)
   12d5a:	ba 27 41 
   12d5d:	c7 85 f4 f2 ff ff f8 	movl   $0xfffffff8,-0xd0c(%rbp)
   12d64:	ff ff ff 
   12d67:	c7 85 f8 f2 ff ff 08 	movl   $0x8,-0xd08(%rbp)
   12d6e:	00 00 00 
   12d71:	c7 85 fc f2 ff ff fa 	movl   $0xfffffffa,-0xd04(%rbp)
   12d78:	ff ff ff 
   12d7b:	c7 85 00 f3 ff ff 04 	movl   $0x4,-0xd00(%rbp)
   12d82:	00 00 00 
   12d85:	c7 85 04 f3 ff ff 8b 	movl   $0x680a9d8b,-0xcfc(%rbp)
   12d8c:	9d 0a 68 
   12d8f:	c7 85 08 f3 ff ff f8 	movl   $0xfffffff8,-0xcf8(%rbp)
   12d96:	ff ff ff 
   12d99:	c7 85 0c f3 ff ff fa 	movl   $0xfffffffa,-0xcf4(%rbp)
   12da0:	ff ff ff 
   12da3:	c7 85 10 f3 ff ff fe 	movl   $0xfffffffe,-0xcf0(%rbp)
   12daa:	ff ff ff 
   12dad:	c7 85 14 f3 ff ff 6e 	movl   $0x93c4496e,-0xcec(%rbp)
   12db4:	49 c4 93 
   12db7:	83 bd 08 ea ff ff 00 	cmpl   $0x0,-0x15f8(%rbp)
   12dbe:	0f 94 c0             	sete   %al
   12dc1:	0f b6 c0             	movzbl %al,%eax
   12dc4:	89 85 1c eb ff ff    	mov    %eax,-0x14e4(%rbp)
   12dca:	48 8d 05 cf 9c 00 00 	lea    0x9ccf(%rip),%rax        # 1caa0 <g_77+0x6c0>
   12dd1:	48 89 85 90 ef ff ff 	mov    %rax,-0x1070(%rbp)
   12dd8:	48 8b 85 60 ee ff ff 	mov    -0x11a0(%rbp),%rax
   12ddf:	83 e0 01             	and    $0x1,%eax
   12de2:	48 be f3 75 b2 77 df 	movabs $0x63816df77b275f3,%rsi
   12de9:	16 38 06 
   12dec:	48 89 c7             	mov    %rax,%rdi
   12def:	e8 bb 72 ff ff       	callq  a0af <safe_div_func_uint64_t_u_u>
   12df4:	89 c2                	mov    %eax,%edx
   12df6:	8b 85 0c ea ff ff    	mov    -0x15f4(%rbp),%eax
   12dfc:	89 d6                	mov    %edx,%esi
   12dfe:	89 c7                	mov    %eax,%edi
   12e00:	e8 f8 70 ff ff       	callq  9efd <safe_mod_func_uint32_t_u_u>
   12e05:	0f be c0             	movsbl %al,%eax
   12e08:	be c6 ff ff ff       	mov    $0xffffffc6,%esi
   12e0d:	89 c7                	mov    %eax,%edi
   12e0f:	e8 c0 63 ff ff       	callq  91d4 <safe_add_func_int8_t_s_s>
   12e14:	0f be c0             	movsbl %al,%eax
   12e17:	89 c6                	mov    %eax,%esi
   12e19:	bf e3 c6 ff ff       	mov    $0xffffc6e3,%edi
   12e1e:	e8 6f 66 ff ff       	callq  9492 <safe_lshift_func_int16_t_s_s>
   12e23:	98                   	cwtl   
   12e24:	be 19 d7 ff ff       	mov    $0xffffd719,%esi
   12e29:	89 c7                	mov    %eax,%edi
   12e2b:	e8 25 66 ff ff       	callq  9455 <safe_div_func_int16_t_s_s>
   12e30:	0f b7 d0             	movzwl %ax,%edx
   12e33:	48 8b 05 2e 9d 00 00 	mov    0x9d2e(%rip),%rax        # 1cb68 <g_113>
   12e3a:	0f b7 c0             	movzwl %ax,%eax
   12e3d:	89 d6                	mov    %edx,%esi
   12e3f:	89 c7                	mov    %eax,%edi
   12e41:	e8 f7 6e ff ff       	callq  9d3d <safe_mul_func_uint16_t_u_u>
   12e46:	0f b7 c0             	movzwl %ax,%eax
   12e49:	f7 d0                	not    %eax
   12e4b:	48 98                	cltq   
   12e4d:	25 3b 74 15 c6       	and    $0xc615743b,%eax
   12e52:	48 89 c2             	mov    %rax,%rdx
   12e55:	8b 85 0c ea ff ff    	mov    -0x15f4(%rbp),%eax
   12e5b:	48 21 c2             	and    %rax,%rdx
   12e5e:	48 8b 85 18 ec ff ff 	mov    -0x13e8(%rbp),%rax
   12e65:	8b 00                	mov    (%rax),%eax
   12e67:	21 c2                	and    %eax,%edx
   12e69:	48 8b 85 18 ec ff ff 	mov    -0x13e8(%rbp),%rax
   12e70:	89 10                	mov    %edx,(%rax)
   12e72:	0f b6 45 bf          	movzbl -0x41(%rbp),%eax
   12e76:	83 c0 01             	add    $0x1,%eax
   12e79:	88 45 bf             	mov    %al,-0x41(%rbp)
   12e7c:	83 85 a4 ea ff ff 01 	addl   $0x1,-0x155c(%rbp)
   12e83:	83 bd a4 ea ff ff 03 	cmpl   $0x3,-0x155c(%rbp)
   12e8a:	0f 86 41 fd ff ff    	jbe    12bd1 <func_66+0x4718>
   12e90:	8b 05 b2 dc 00 00    	mov    0xdcb2(%rip),%eax        # 20b48 <g_41>
   12e96:	83 e8 01             	sub    $0x1,%eax
   12e99:	89 05 a9 dc 00 00    	mov    %eax,0xdca9(%rip)        # 20b48 <g_41>
   12e9f:	8b 05 a3 dc 00 00    	mov    0xdca3(%rip),%eax        # 20b48 <g_41>
   12ea5:	85 c0                	test   %eax,%eax
   12ea7:	0f 89 22 fa ff ff    	jns    128cf <func_66+0x4416>
   12ead:	48 8d 05 14 92 00 00 	lea    0x9214(%rip),%rax        # 1c0c8 <g_4+0x88>
   12eb4:	e9 ed 18 00 00       	jmpq   147a6 <func_66+0x62ed>
   12eb9:	83 bd 80 ea ff ff 00 	cmpl   $0x0,-0x1580(%rbp)
   12ec0:	74 05                	je     12ec7 <func_66+0x4a0e>
   12ec2:	e9 f7 e0 ff ff       	jmpq   10fbe <func_66+0x2b05>
   12ec7:	48 8b 05 ba c2 00 00 	mov    0xc2ba(%rip),%rax        # 1f188 <g_267>
   12ece:	8b 00                	mov    (%rax),%eax
   12ed0:	0b 85 0c ea ff ff    	or     -0x15f4(%rbp),%eax
   12ed6:	89 c2                	mov    %eax,%edx
   12ed8:	48 8b 05 a9 c2 00 00 	mov    0xc2a9(%rip),%rax        # 1f188 <g_267>
   12edf:	89 10                	mov    %edx,(%rax)
   12ee1:	e9 b9 18 00 00       	jmpq   1479f <func_66+0x62e6>
   12ee6:	48 8d 05 5b 94 00 00 	lea    0x945b(%rip),%rax        # 1c348 <g_4+0x308>
   12eed:	48 89 85 88 ed ff ff 	mov    %rax,-0x1278(%rbp)
   12ef4:	c6 85 58 ea ff ff ff 	movb   $0xff,-0x15a8(%rbp)
   12efb:	48 8d 85 a8 eb ff ff 	lea    -0x1458(%rbp),%rax
   12f02:	48 89 85 10 ef ff ff 	mov    %rax,-0x10f0(%rbp)
   12f09:	48 8d 85 a8 eb ff ff 	lea    -0x1458(%rbp),%rax
   12f10:	48 89 85 18 ef ff ff 	mov    %rax,-0x10e8(%rbp)
   12f17:	48 8d 85 a8 eb ff ff 	lea    -0x1458(%rbp),%rax
   12f1e:	48 89 85 20 ef ff ff 	mov    %rax,-0x10e0(%rbp)
   12f25:	48 8d 85 a8 eb ff ff 	lea    -0x1458(%rbp),%rax
   12f2c:	48 89 85 28 ef ff ff 	mov    %rax,-0x10d8(%rbp)
   12f33:	48 8d 85 88 eb ff ff 	lea    -0x1478(%rbp),%rax
   12f3a:	48 89 85 e8 eb ff ff 	mov    %rax,-0x1418(%rbp)
   12f41:	48 8d 85 e8 eb ff ff 	lea    -0x1418(%rbp),%rax
   12f48:	48 89 85 90 ed ff ff 	mov    %rax,-0x1270(%rbp)
   12f4f:	c7 85 d8 eb ff ff 24 	movl   $0x3ff33624,-0x1428(%rbp)
   12f56:	36 f3 3f 
   12f59:	c7 85 b0 ea ff ff ff 	movl   $0xffffffff,-0x1550(%rbp)
   12f60:	ff ff ff 
   12f63:	c7 85 f0 ea ff ff ff 	movl   $0xffffffff,-0x1510(%rbp)
   12f6a:	ff ff ff 
   12f6d:	c7 85 f4 ea ff ff ff 	movl   $0xffffffff,-0x150c(%rbp)
   12f74:	ff ff ff 
   12f77:	c7 85 50 ef ff ff fa 	movl   $0xfffffffa,-0x10b0(%rbp)
   12f7e:	ff ff ff 
   12f81:	c7 85 54 ef ff ff fa 	movl   $0xfffffffa,-0x10ac(%rbp)
   12f88:	ff ff ff 
   12f8b:	c7 85 58 ef ff ff b8 	movl   $0xb361feb8,-0x10a8(%rbp)
   12f92:	fe 61 b3 
   12f95:	c7 85 5c ef ff ff fa 	movl   $0xfffffffa,-0x10a4(%rbp)
   12f9c:	ff ff ff 
   12f9f:	c7 85 60 ef ff ff fa 	movl   $0xfffffffa,-0x10a0(%rbp)
   12fa6:	ff ff ff 
   12fa9:	c7 85 64 ef ff ff b8 	movl   $0xb361feb8,-0x109c(%rbp)
   12fb0:	fe 61 b3 
   12fb3:	c7 85 68 ef ff ff fa 	movl   $0xfffffffa,-0x1098(%rbp)
   12fba:	ff ff ff 
   12fbd:	c7 85 6c ef ff ff fa 	movl   $0xfffffffa,-0x1094(%rbp)
   12fc4:	ff ff ff 
   12fc7:	c7 85 70 ef ff ff b8 	movl   $0xb361feb8,-0x1090(%rbp)
   12fce:	fe 61 b3 
   12fd1:	c7 85 74 ef ff ff fa 	movl   $0xfffffffa,-0x108c(%rbp)
   12fd8:	ff ff ff 
   12fdb:	48 8d 85 10 fa ff ff 	lea    -0x5f0(%rbp),%rax
   12fe2:	48 8d 15 f7 51 00 00 	lea    0x51f7(%rip),%rdx        # 181e0 <g_1737+0x114e>
   12fe9:	b9 5e 00 00 00       	mov    $0x5e,%ecx
   12fee:	48 89 c7             	mov    %rax,%rdi
   12ff1:	48 89 d6             	mov    %rdx,%rsi
   12ff4:	f3 48 a5             	rep movsq %ds:(%rsi),%es:(%rdi)
   12ff7:	48 89 f2             	mov    %rsi,%rdx
   12ffa:	48 89 f8             	mov    %rdi,%rax
   12ffd:	8b 0a                	mov    (%rdx),%ecx
   12fff:	89 08                	mov    %ecx,(%rax)
   13001:	48 8d 85 c0 eb ff ff 	lea    -0x1440(%rbp),%rax
   13008:	48 89 85 98 ed ff ff 	mov    %rax,-0x1268(%rbp)
   1300f:	48 8b 05 72 c1 00 00 	mov    0xc172(%rip),%rax        # 1f188 <g_267>
   13016:	8b 00                	mov    (%rax),%eax
   13018:	85 c0                	test   %eax,%eax
   1301a:	74 61                	je     1307d <func_66+0x4bc4>
   1301c:	48 b8 e7 a7 a7 e7 a7 	movabs $0xa7e7a7a7e7a7a7e7,%rax
   13023:	a7 e7 a7 
   13026:	48 89 45 bf          	mov    %rax,-0x41(%rbp)
   1302a:	c6 45 c7 a7          	movb   $0xa7,-0x39(%rbp)
   1302e:	c6 85 1b ea ff ff 00 	movb   $0x0,-0x15e5(%rbp)
   13035:	eb 2f                	jmp    13066 <func_66+0x4bad>
   13037:	66 c7 85 30 ea ff ff 	movw   $0x5e50,-0x15d0(%rbp)
   1303e:	50 5e 
   13040:	66 83 ad 30 ea ff ff 	subw   $0x1,-0x15d0(%rbp)
   13047:	01 
   13048:	0f b6 85 1b ea ff ff 	movzbl -0x15e5(%rbp),%eax
   1304f:	66 98                	cbtw   
   13051:	0f b7 c0             	movzwl %ax,%eax
   13054:	be 01 00 00 00       	mov    $0x1,%esi
   13059:	89 c7                	mov    %eax,%edi
   1305b:	e8 9f 6c ff ff       	callq  9cff <safe_add_func_uint16_t_u_u>
   13060:	88 85 1b ea ff ff    	mov    %al,-0x15e5(%rbp)
   13066:	0f b6 85 1b ea ff ff 	movzbl -0x15e5(%rbp),%eax
   1306d:	3c 11                	cmp    $0x11,%al
   1306f:	74 c6                	je     13037 <func_66+0x4b7e>
   13071:	48 8b 85 88 ed ff ff 	mov    -0x1278(%rbp),%rax
   13078:	e9 29 17 00 00       	jmpq   147a6 <func_66+0x62ed>
   1307d:	66 c7 85 24 ea ff ff 	movw   $0x444d,-0x15dc(%rbp)
   13084:	4d 44 
   13086:	c7 85 f8 ea ff ff 6e 	movl   $0x3df4076e,-0x1508(%rbp)
   1308d:	07 f4 3d 
   13090:	c7 85 b4 ea ff ff f7 	movl   $0xfffffff7,-0x154c(%rbp)
   13097:	ff ff ff 
   1309a:	48 8d 05 ef c2 00 00 	lea    0xc2ef(%rip),%rax        # 1f390 <g_867+0xf0>
   130a1:	48 89 85 a0 ed ff ff 	mov    %rax,-0x1260(%rbp)
   130a8:	48 8d 05 c1 9a 00 00 	lea    0x9ac1(%rip),%rax        # 1cb70 <g_134>
   130af:	48 89 85 e0 ef ff ff 	mov    %rax,-0x1020(%rbp)
   130b6:	48 8d 05 d7 9a 00 00 	lea    0x9ad7(%rip),%rax        # 1cb94 <g_698>
   130bd:	48 89 85 e8 ef ff ff 	mov    %rax,-0x1018(%rbp)
   130c4:	48 8d 05 a5 9a 00 00 	lea    0x9aa5(%rip),%rax        # 1cb70 <g_134>
   130cb:	48 89 85 f0 ef ff ff 	mov    %rax,-0x1010(%rbp)
   130d2:	48 8d 05 bb 9a 00 00 	lea    0x9abb(%rip),%rax        # 1cb94 <g_698>
   130d9:	48 89 85 f8 ef ff ff 	mov    %rax,-0x1008(%rbp)
   130e0:	48 8d 05 89 9a 00 00 	lea    0x9a89(%rip),%rax        # 1cb70 <g_134>
   130e7:	48 89 85 00 f0 ff ff 	mov    %rax,-0x1000(%rbp)
   130ee:	48 8d 05 9f 9a 00 00 	lea    0x9a9f(%rip),%rax        # 1cb94 <g_698>
   130f5:	48 89 85 08 f0 ff ff 	mov    %rax,-0xff8(%rbp)
   130fc:	48 8d 05 6d 9a 00 00 	lea    0x9a6d(%rip),%rax        # 1cb70 <g_134>
   13103:	48 89 85 10 f0 ff ff 	mov    %rax,-0xff0(%rbp)
   1310a:	48 8d 05 83 9a 00 00 	lea    0x9a83(%rip),%rax        # 1cb94 <g_698>
   13111:	48 89 85 18 f0 ff ff 	mov    %rax,-0xfe8(%rbp)
   13118:	48 8d 05 51 9a 00 00 	lea    0x9a51(%rip),%rax        # 1cb70 <g_134>
   1311f:	48 89 85 20 f0 ff ff 	mov    %rax,-0xfe0(%rbp)
   13126:	48 8d 05 67 9a 00 00 	lea    0x9a67(%rip),%rax        # 1cb94 <g_698>
   1312d:	48 89 85 28 ec ff ff 	mov    %rax,-0x13d8(%rbp)
   13134:	48 b8 77 ca 7c 2f 2f 	movabs $0xe4692e2f2f7cca77,%rax
   1313b:	2e 69 e4 
   1313e:	48 89 85 a8 ed ff ff 	mov    %rax,-0x1258(%rbp)
   13145:	48 c7 85 b0 ed ff ff 	movq   $0x1,-0x1250(%rbp)
   1314c:	01 00 00 00 
   13150:	48 8d 05 61 92 00 00 	lea    0x9261(%rip),%rax        # 1c3b8 <g_38+0x8>
   13157:	48 89 85 b8 ed ff ff 	mov    %rax,-0x1248(%rbp)
   1315e:	c7 85 f0 ee ff ff 13 	movl   $0x5d4d1f13,-0x1110(%rbp)
   13165:	1f 4d 5d 
   13168:	c7 85 f4 ee ff ff 13 	movl   $0x5d4d1f13,-0x110c(%rbp)
   1316f:	1f 4d 5d 
   13172:	c7 85 f8 ee ff ff 13 	movl   $0x5d4d1f13,-0x1108(%rbp)
   13179:	1f 4d 5d 
   1317c:	c7 85 fc ee ff ff 13 	movl   $0x5d4d1f13,-0x1104(%rbp)
   13183:	1f 4d 5d 
   13186:	66 c7 85 2e ea ff ff 	movw   $0x5,-0x15d2(%rbp)
   1318d:	05 00 
   1318f:	48 8d 05 e2 d9 00 00 	lea    0xd9e2(%rip),%rax        # 20b78 <g_348>
   13196:	48 89 85 30 ef ff ff 	mov    %rax,-0x10d0(%rbp)
   1319d:	48 8d 05 d4 d9 00 00 	lea    0xd9d4(%rip),%rax        # 20b78 <g_348>
   131a4:	48 89 85 38 ef ff ff 	mov    %rax,-0x10c8(%rbp)
   131ab:	48 8d 05 c6 d9 00 00 	lea    0xd9c6(%rip),%rax        # 20b78 <g_348>
   131b2:	48 89 85 40 ef ff ff 	mov    %rax,-0x10c0(%rbp)
   131b9:	48 8d 05 b8 d9 00 00 	lea    0xd9b8(%rip),%rax        # 20b78 <g_348>
   131c0:	48 89 85 48 ef ff ff 	mov    %rax,-0x10b8(%rbp)
   131c7:	c7 85 b8 ea ff ff 00 	movl   $0x0,-0x1548(%rbp)
   131ce:	00 00 00 
   131d1:	eb 22                	jmp    131f5 <func_66+0x4d3c>
   131d3:	8b 85 b8 ea ff ff    	mov    -0x1548(%rbp),%eax
   131d9:	48 98                	cltq   
   131db:	48 8d 95 30 ef ff ff 	lea    -0x10d0(%rbp),%rdx
   131e2:	48 83 c2 10          	add    $0x10,%rdx
   131e6:	48 89 94 c5 00 ef ff 	mov    %rdx,-0x1100(%rbp,%rax,8)
   131ed:	ff 
   131ee:	83 85 b8 ea ff ff 01 	addl   $0x1,-0x1548(%rbp)
   131f5:	83 bd b8 ea ff ff 01 	cmpl   $0x1,-0x1548(%rbp)
   131fc:	7e d5                	jle    131d3 <func_66+0x4d1a>
   131fe:	c7 05 84 99 00 00 00 	movl   $0x0,0x9984(%rip)        # 1cb8c <g_540>
   13205:	00 00 00 
   13208:	e9 e2 13 00 00       	jmpq   145ef <func_66+0x6136>
   1320d:	48 8d 05 7c 99 00 00 	lea    0x997c(%rip),%rax        # 1cb90 <g_561>
   13214:	48 89 85 c0 ed ff ff 	mov    %rax,-0x1240(%rbp)
   1321b:	c7 85 e0 ee ff ff 01 	movl   $0x1,-0x1120(%rbp)
   13222:	00 00 00 
   13225:	48 8d 05 8c 91 00 00 	lea    0x918c(%rip),%rax        # 1c3b8 <g_38+0x8>
   1322c:	48 89 85 c8 ed ff ff 	mov    %rax,-0x1238(%rbp)
   13233:	48 8d 85 98 eb ff ff 	lea    -0x1468(%rbp),%rax
   1323a:	48 89 85 f0 eb ff ff 	mov    %rax,-0x1410(%rbp)
   13241:	48 8d 85 f0 eb ff ff 	lea    -0x1410(%rbp),%rax
   13248:	48 89 85 f8 eb ff ff 	mov    %rax,-0x1408(%rbp)
   1324f:	c7 85 e0 eb ff ff ff 	movl   $0xffffffff,-0x1420(%rbp)
   13256:	ff ff ff 
   13259:	c7 85 fc ea ff ff 25 	movl   $0xfaa80825,-0x1504(%rbp)
   13260:	08 a8 fa 
   13263:	c7 85 bc ea ff ff 00 	movl   $0x0,-0x1544(%rbp)
   1326a:	00 00 00 
   1326d:	eb 1e                	jmp    1328d <func_66+0x4dd4>
   1326f:	8b 85 bc ea ff ff    	mov    -0x1544(%rbp),%eax
   13275:	48 98                	cltq   
   13277:	48 8d 95 f8 eb ff ff 	lea    -0x1408(%rbp),%rdx
   1327e:	48 89 94 c5 80 ef ff 	mov    %rdx,-0x1080(%rbp,%rax,8)
   13285:	ff 
   13286:	83 85 bc ea ff ff 01 	addl   $0x1,-0x1544(%rbp)
   1328d:	83 bd bc ea ff ff 04 	cmpl   $0x4,-0x1544(%rbp)
   13294:	7e d9                	jle    1326f <func_66+0x4db6>
   13296:	c6 05 eb 98 00 00 00 	movb   $0x0,0x98eb(%rip)        # 1cb88 <g_448>
   1329d:	e9 df 09 00 00       	jmpq   13c81 <func_66+0x57c8>
   132a2:	48 8d 85 58 ea ff ff 	lea    -0x15a8(%rbp),%rax
   132a9:	48 89 85 08 ee ff ff 	mov    %rax,-0x11f8(%rbp)
   132b0:	48 c7 85 10 ee ff ff 	movq   $0x0,-0x11f0(%rbp)
   132b7:	00 00 00 00 
   132bb:	48 8d 05 aa d8 00 00 	lea    0xd8aa(%rip),%rax        # 20b6c <g_280>
   132c2:	48 89 85 18 ee ff ff 	mov    %rax,-0x11e8(%rbp)
   132c9:	48 8d 85 1c ea ff ff 	lea    -0x15e4(%rbp),%rax
   132d0:	48 89 85 20 ee ff ff 	mov    %rax,-0x11e0(%rbp)
   132d7:	c7 85 04 eb ff ff 8f 	movl   $0x5098e78f,-0x14fc(%rbp)
   132de:	e7 98 50 
   132e1:	c7 85 08 eb ff ff a1 	movl   $0x5ebb90a1,-0x14f8(%rbp)
   132e8:	90 bb 5e 
   132eb:	c7 85 b0 f1 ff ff 4b 	movl   $0x5983c84b,-0xe50(%rbp)
   132f2:	c8 83 59 
   132f5:	c7 85 b4 f1 ff ff 40 	movl   $0x836b4d40,-0xe4c(%rbp)
   132fc:	4d 6b 83 
   132ff:	c7 85 b8 f1 ff ff 40 	movl   $0x836b4d40,-0xe48(%rbp)
   13306:	4d 6b 83 
   13309:	c7 85 bc f1 ff ff 4b 	movl   $0x5983c84b,-0xe44(%rbp)
   13310:	c8 83 59 
   13313:	c7 85 c0 f1 ff ff 40 	movl   $0x836b4d40,-0xe40(%rbp)
   1331a:	4d 6b 83 
   1331d:	c7 85 c4 f1 ff ff 40 	movl   $0x836b4d40,-0xe3c(%rbp)
   13324:	4d 6b 83 
   13327:	c7 85 c8 f1 ff ff 4b 	movl   $0x5983c84b,-0xe38(%rbp)
   1332e:	c8 83 59 
   13331:	c7 85 cc f1 ff ff 40 	movl   $0x836b4d40,-0xe34(%rbp)
   13338:	4d 6b 83 
   1333b:	c7 85 d0 f1 ff ff 40 	movl   $0x836b4d40,-0xe30(%rbp)
   13342:	4d 6b 83 
   13345:	c7 85 d4 f1 ff ff 4b 	movl   $0x5983c84b,-0xe2c(%rbp)
   1334c:	c8 83 59 
   1334f:	c7 85 d8 f1 ff ff 40 	movl   $0x836b4d40,-0xe28(%rbp)
   13356:	4d 6b 83 
   13359:	c7 85 dc f1 ff ff 4b 	movl   $0x5983c84b,-0xe24(%rbp)
   13360:	c8 83 59 
   13363:	c7 85 e0 f1 ff ff 40 	movl   $0x836b4d40,-0xe20(%rbp)
   1336a:	4d 6b 83 
   1336d:	c7 85 e4 f1 ff ff b5 	movl   $0x4f57ceb5,-0xe1c(%rbp)
   13374:	ce 57 4f 
   13377:	c7 85 e8 f1 ff ff 40 	movl   $0x836b4d40,-0xe18(%rbp)
   1337e:	4d 6b 83 
   13381:	c7 85 ec f1 ff ff b5 	movl   $0x4f57ceb5,-0xe14(%rbp)
   13388:	ce 57 4f 
   1338b:	c7 85 f0 f1 ff ff b5 	movl   $0x4f57ceb5,-0xe10(%rbp)
   13392:	ce 57 4f 
   13395:	c7 85 f4 f1 ff ff 40 	movl   $0x836b4d40,-0xe0c(%rbp)
   1339c:	4d 6b 83 
   1339f:	c7 85 f8 f1 ff ff b5 	movl   $0x4f57ceb5,-0xe08(%rbp)
   133a6:	ce 57 4f 
   133a9:	c7 85 fc f1 ff ff b5 	movl   $0x4f57ceb5,-0xe04(%rbp)
   133b0:	ce 57 4f 
   133b3:	c7 85 00 f2 ff ff 40 	movl   $0x836b4d40,-0xe00(%rbp)
   133ba:	4d 6b 83 
   133bd:	c7 85 04 f2 ff ff 40 	movl   $0x836b4d40,-0xdfc(%rbp)
   133c4:	4d 6b 83 
   133c7:	c7 85 08 f2 ff ff 4b 	movl   $0x5983c84b,-0xdf8(%rbp)
   133ce:	c8 83 59 
   133d1:	c7 85 0c f2 ff ff 40 	movl   $0x836b4d40,-0xdf4(%rbp)
   133d8:	4d 6b 83 
   133db:	c7 85 10 f2 ff ff 40 	movl   $0x836b4d40,-0xdf0(%rbp)
   133e2:	4d 6b 83 
   133e5:	c7 85 14 f2 ff ff 4b 	movl   $0x5983c84b,-0xdec(%rbp)
   133ec:	c8 83 59 
   133ef:	c7 85 18 f2 ff ff 40 	movl   $0x836b4d40,-0xde8(%rbp)
   133f6:	4d 6b 83 
   133f9:	c7 85 1c f2 ff ff 40 	movl   $0x836b4d40,-0xde4(%rbp)
   13400:	4d 6b 83 
   13403:	c7 85 20 f2 ff ff 4b 	movl   $0x5983c84b,-0xde0(%rbp)
   1340a:	c8 83 59 
   1340d:	c7 85 24 f2 ff ff 40 	movl   $0x836b4d40,-0xddc(%rbp)
   13414:	4d 6b 83 
   13417:	c7 85 28 f2 ff ff 40 	movl   $0x836b4d40,-0xdd8(%rbp)
   1341e:	4d 6b 83 
   13421:	c7 85 2c f2 ff ff b5 	movl   $0x4f57ceb5,-0xdd4(%rbp)
   13428:	ce 57 4f 
   1342b:	c7 85 30 f2 ff ff b5 	movl   $0x4f57ceb5,-0xdd0(%rbp)
   13432:	ce 57 4f 
   13435:	c7 85 34 f2 ff ff 40 	movl   $0x836b4d40,-0xdcc(%rbp)
   1343c:	4d 6b 83 
   1343f:	c7 85 38 f2 ff ff b5 	movl   $0x4f57ceb5,-0xdc8(%rbp)
   13446:	ce 57 4f 
   13449:	c7 85 3c f2 ff ff b5 	movl   $0x4f57ceb5,-0xdc4(%rbp)
   13450:	ce 57 4f 
   13453:	c7 85 40 f2 ff ff 40 	movl   $0x836b4d40,-0xdc0(%rbp)
   1345a:	4d 6b 83 
   1345d:	c7 85 44 f2 ff ff b5 	movl   $0x4f57ceb5,-0xdbc(%rbp)
   13464:	ce 57 4f 
   13467:	c7 85 48 f2 ff ff b5 	movl   $0x4f57ceb5,-0xdb8(%rbp)
   1346e:	ce 57 4f 
   13471:	c7 85 4c f2 ff ff 40 	movl   $0x836b4d40,-0xdb4(%rbp)
   13478:	4d 6b 83 
   1347b:	c7 85 50 f2 ff ff b5 	movl   $0x4f57ceb5,-0xdb0(%rbp)
   13482:	ce 57 4f 
   13485:	c7 85 54 f2 ff ff 40 	movl   $0x836b4d40,-0xdac(%rbp)
   1348c:	4d 6b 83 
   1348f:	c7 85 58 f2 ff ff b5 	movl   $0x4f57ceb5,-0xda8(%rbp)
   13496:	ce 57 4f 
   13499:	c7 85 5c f2 ff ff b5 	movl   $0x4f57ceb5,-0xda4(%rbp)
   134a0:	ce 57 4f 
   134a3:	c7 85 60 f2 ff ff 40 	movl   $0x836b4d40,-0xda0(%rbp)
   134aa:	4d 6b 83 
   134ad:	c7 85 64 f2 ff ff b5 	movl   $0x4f57ceb5,-0xd9c(%rbp)
   134b4:	ce 57 4f 
   134b7:	c7 85 68 f2 ff ff b5 	movl   $0x4f57ceb5,-0xd98(%rbp)
   134be:	ce 57 4f 
   134c1:	c7 85 6c f2 ff ff 40 	movl   $0x836b4d40,-0xd94(%rbp)
   134c8:	4d 6b 83 
   134cb:	c7 85 70 f2 ff ff b5 	movl   $0x4f57ceb5,-0xd90(%rbp)
   134d2:	ce 57 4f 
   134d5:	c7 85 74 f2 ff ff b5 	movl   $0x4f57ceb5,-0xd8c(%rbp)
   134dc:	ce 57 4f 
   134df:	c7 85 78 f2 ff ff 40 	movl   $0x836b4d40,-0xd88(%rbp)
   134e6:	4d 6b 83 
   134e9:	c7 85 7c f2 ff ff 40 	movl   $0x836b4d40,-0xd84(%rbp)
   134f0:	4d 6b 83 
   134f3:	c7 85 80 f2 ff ff 4b 	movl   $0x5983c84b,-0xd80(%rbp)
   134fa:	c8 83 59 
   134fd:	c7 85 84 f2 ff ff 40 	movl   $0x836b4d40,-0xd7c(%rbp)
   13504:	4d 6b 83 
   13507:	c7 85 88 f2 ff ff 40 	movl   $0x836b4d40,-0xd78(%rbp)
   1350e:	4d 6b 83 
   13511:	c7 85 8c f2 ff ff 4b 	movl   $0x5983c84b,-0xd74(%rbp)
   13518:	c8 83 59 
   1351b:	c7 85 90 f2 ff ff 40 	movl   $0x836b4d40,-0xd70(%rbp)
   13522:	4d 6b 83 
   13525:	c7 85 94 f2 ff ff 40 	movl   $0x836b4d40,-0xd6c(%rbp)
   1352c:	4d 6b 83 
   1352f:	c7 85 98 f2 ff ff 4b 	movl   $0x5983c84b,-0xd68(%rbp)
   13536:	c8 83 59 
   13539:	c7 85 9c f2 ff ff 40 	movl   $0x836b4d40,-0xd64(%rbp)
   13540:	4d 6b 83 
   13543:	8b 05 43 96 00 00    	mov    0x9643(%rip),%eax        # 1cb8c <g_540>
   13549:	89 c0                	mov    %eax,%eax
   1354b:	48 8d 14 85 00 00 00 	lea    0x0(,%rax,4),%rdx
   13552:	00 
   13553:	48 8d 05 56 8e 00 00 	lea    0x8e56(%rip),%rax        # 1c3b0 <g_38>
   1355a:	8b 04 02             	mov    (%rdx,%rax,1),%eax
   1355d:	48 98                	cltq   
   1355f:	48 89 c7             	mov    %rax,%rdi
   13562:	e8 af 62 ff ff       	callq  9816 <safe_unary_minus_func_int64_t_s>
   13567:	48 83 f8 ff          	cmp    $0xffffffffffffffff,%rax
   1356b:	0f 9d c0             	setge  %al
   1356e:	0f b6 d0             	movzbl %al,%edx
   13571:	48 8b 85 18 ec ff ff 	mov    -0x13e8(%rbp),%rax
   13578:	89 10                	mov    %edx,(%rax)
   1357a:	48 8b 05 1f bc 00 00 	mov    0xbc1f(%rip),%rax        # 1f1a0 <g_349>
   13581:	48 8b 00             	mov    (%rax),%rax
   13584:	48 8b 00             	mov    (%rax),%rax
   13587:	48 85 c0             	test   %rax,%rax
   1358a:	0f 84 a7 01 00 00    	je     13737 <func_66+0x527e>
   13590:	48 8b 05 09 bc 00 00 	mov    0xbc09(%rip),%rax        # 1f1a0 <g_349>
   13597:	48 8b 00             	mov    (%rax),%rax
   1359a:	48 8b 00             	mov    (%rax),%rax
   1359d:	8b 9d 08 ea ff ff    	mov    -0x15f8(%rbp),%ebx
   135a3:	8b 05 e3 95 00 00    	mov    0x95e3(%rip),%eax        # 1cb8c <g_540>
   135a9:	89 c0                	mov    %eax,%eax
   135ab:	48 8d 14 85 00 00 00 	lea    0x0(,%rax,4),%rdx
   135b2:	00 
   135b3:	48 8d 05 f6 8d 00 00 	lea    0x8df6(%rip),%rax        # 1c3b0 <g_38>
   135ba:	8b 04 02             	mov    (%rdx,%rax,1),%eax
   135bd:	44 0f b6 e0          	movzbl %al,%r12d
   135c1:	0f b6 85 58 ea ff ff 	movzbl -0x15a8(%rbp),%eax
   135c8:	84 c0                	test   %al,%al
   135ca:	75 0d                	jne    135d9 <func_66+0x5120>
   135cc:	48 8b 85 88 ed ff ff 	mov    -0x1278(%rbp),%rax
   135d3:	8b 00                	mov    (%rax),%eax
   135d5:	85 c0                	test   %eax,%eax
   135d7:	74 07                	je     135e0 <func_66+0x5127>
   135d9:	b8 01 00 00 00       	mov    $0x1,%eax
   135de:	eb 05                	jmp    135e5 <func_66+0x512c>
   135e0:	b8 00 00 00 00       	mov    $0x0,%eax
   135e5:	4c 63 e8             	movslq %eax,%r13
   135e8:	48 8b 05 a1 bc 00 00 	mov    0xbca1(%rip),%rax        # 1f290 <g_647>
   135ef:	48 8b 00             	mov    (%rax),%rax
   135f2:	8b 00                	mov    (%rax),%eax
   135f4:	41 89 c6             	mov    %eax,%r14d
   135f7:	48 8b 85 a0 eb ff ff 	mov    -0x1460(%rbp),%rax
   135fe:	48 b9 4a f7 f0 24 db 	movabs $0xfd2583db24f0f74a,%rcx
   13605:	83 25 fd 
   13608:	48 89 08             	mov    %rcx,(%rax)
   1360b:	48 8b 05 86 bb 00 00 	mov    0xbb86(%rip),%rax        # 1f198 <g_350>
   13612:	48 8b 00             	mov    (%rax),%rax
   13615:	48 85 c0             	test   %rax,%rax
   13618:	74 07                	je     13621 <func_66+0x5168>
   1361a:	b8 01 00 00 00       	mov    $0x1,%eax
   1361f:	eb 05                	jmp    13626 <func_66+0x516d>
   13621:	b8 00 00 00 00       	mov    $0x0,%eax
   13626:	48 98                	cltq   
   13628:	be 09 00 00 00       	mov    $0x9,%esi
   1362d:	48 89 c7             	mov    %rax,%rdi
   13630:	e8 7f 63 ff ff       	callq  99b4 <safe_mod_func_int64_t_s_s>
   13635:	4c 09 f0             	or     %r14,%rax
   13638:	49 39 c5             	cmp    %rax,%r13
   1363b:	0f 9e c0             	setle  %al
   1363e:	89 c2                	mov    %eax,%edx
   13640:	48 8b 85 08 ee ff ff 	mov    -0x11f8(%rbp),%rax
   13647:	88 10                	mov    %dl,(%rax)
   13649:	48 8b 85 08 ee ff ff 	mov    -0x11f8(%rbp),%rax
   13650:	0f b6 00             	movzbl (%rax),%eax
   13653:	0f b6 c0             	movzbl %al,%eax
   13656:	44 89 e6             	mov    %r12d,%esi
   13659:	89 c7                	mov    %eax,%edi
   1365b:	e8 4e 65 ff ff       	callq  9bae <safe_mod_func_uint8_t_u_u>
   13660:	0f b6 d0             	movzbl %al,%edx
   13663:	8b 05 23 95 00 00    	mov    0x9523(%rip),%eax        # 1cb8c <g_540>
   13669:	89 c0                	mov    %eax,%eax
   1366b:	48 8d 0c 85 00 00 00 	lea    0x0(,%rax,4),%rcx
   13672:	00 
   13673:	48 8d 05 36 8d 00 00 	lea    0x8d36(%rip),%rax        # 1c3b0 <g_38>
   1367a:	8b 04 01             	mov    (%rcx,%rax,1),%eax
   1367d:	39 c2                	cmp    %eax,%edx
   1367f:	0f 9e c0             	setle  %al
   13682:	0f b6 c0             	movzbl %al,%eax
   13685:	89 de                	mov    %ebx,%esi
   13687:	89 c7                	mov    %eax,%edi
   13689:	e8 be 65 ff ff       	callq  9c4c <safe_lshift_func_uint8_t_u_u>
   1368e:	be 02 00 00 00       	mov    $0x2,%esi
   13693:	bf 01 00 00 00       	mov    $0x1,%edi
   13698:	e8 f0 65 ff ff       	callq  9c8d <safe_rshift_func_uint8_t_u_s>
   1369d:	0f b6 c0             	movzbl %al,%eax
   136a0:	be 0c 00 00 00       	mov    $0xc,%esi
   136a5:	89 c7                	mov    %eax,%edi
   136a7:	e8 9c 67 ff ff       	callq  9e48 <safe_rshift_func_uint16_t_u_s>
   136ac:	0f b7 d0             	movzwl %ax,%edx
   136af:	48 8b 85 18 ee ff ff 	mov    -0x11e8(%rbp),%rax
   136b6:	89 10                	mov    %edx,(%rax)
   136b8:	48 8b 85 18 ee ff ff 	mov    -0x11e8(%rbp),%rax
   136bf:	8b 00                	mov    (%rax),%eax
   136c1:	83 c8 c7             	or     $0xffffffc7,%eax
   136c4:	89 c2                	mov    %eax,%edx
   136c6:	0f b7 05 a3 94 00 00 	movzwl 0x94a3(%rip),%eax        # 1cb70 <g_134>
   136cd:	31 d0                	xor    %edx,%eax
   136cf:	89 c2                	mov    %eax,%edx
   136d1:	48 8b 85 20 ee ff ff 	mov    -0x11e0(%rbp),%rax
   136d8:	88 10                	mov    %dl,(%rax)
   136da:	48 8b 85 20 ee ff ff 	mov    -0x11e0(%rbp),%rax
   136e1:	0f b6 00             	movzbl (%rax),%eax
   136e4:	0f b6 d0             	movzbl %al,%edx
   136e7:	48 8b 85 90 f1 ff ff 	mov    -0xe70(%rbp),%rax
   136ee:	48 85 c0             	test   %rax,%rax
   136f1:	0f 94 c0             	sete   %al
   136f4:	0f b6 c0             	movzbl %al,%eax
   136f7:	89 d6                	mov    %edx,%esi
   136f9:	89 c7                	mov    %eax,%edi
   136fb:	e8 ee 5b ff ff       	callq  92ee <safe_lshift_func_int8_t_s_u>
   13700:	0f be c0             	movsbl %al,%eax
   13703:	be 06 00 00 00       	mov    $0x6,%esi
   13708:	89 c7                	mov    %eax,%edi
   1370a:	e8 d2 5d ff ff       	callq  94e1 <safe_lshift_func_int16_t_s_u>
   1370f:	0f b6 c0             	movzbl %al,%eax
   13712:	be 02 00 00 00       	mov    $0x2,%esi
   13717:	89 c7                	mov    %eax,%edi
   13719:	e8 6f 65 ff ff       	callq  9c8d <safe_rshift_func_uint8_t_u_s>
   1371e:	0f b6 d0             	movzbl %al,%edx
   13721:	48 8b 05 68 bb 00 00 	mov    0xbb68(%rip),%rax        # 1f290 <g_647>
   13728:	48 8b 00             	mov    (%rax),%rax
   1372b:	8b 00                	mov    (%rax),%eax
   1372d:	89 d6                	mov    %edx,%esi
   1372f:	89 c7                	mov    %eax,%edi
   13731:	e8 9a 67 ff ff       	callq  9ed0 <safe_sub_func_uint32_t_u_u>
   13736:	90                   	nop
   13737:	48 8b 05 6a ba 00 00 	mov    0xba6a(%rip),%rax        # 1f1a8 <g_359>
   1373e:	48 8b 95 c0 ed ff ff 	mov    -0x1240(%rbp),%rdx
   13745:	48 89 10             	mov    %rdx,(%rax)
   13748:	48 8b 00             	mov    (%rax),%rax
   1374b:	48 89 85 58 ec ff ff 	mov    %rax,-0x13a8(%rbp)
   13752:	48 8b 05 2f ba 00 00 	mov    0xba2f(%rip),%rax        # 1f188 <g_267>
   13759:	c7 00 91 10 49 4a    	movl   $0x4a491091,(%rax)
   1375f:	66 83 ad 24 ea ff ff 	subw   $0x1,-0x15dc(%rbp)
   13766:	01 
   13767:	c7 85 38 ea ff ff 00 	movl   $0x0,-0x15c8(%rbp)
   1376e:	00 00 00 
   13771:	e9 ec 04 00 00       	jmpq   13c62 <func_66+0x57a9>
   13776:	c7 85 0c eb ff ff ff 	movl   $0x7f141bff,-0x14f4(%rbp)
   1377d:	1b 14 7f 
   13780:	48 8d 85 10 ef ff ff 	lea    -0x10f0(%rbp),%rax
   13787:	48 83 c0 18          	add    $0x18,%rax
   1378b:	48 89 85 a0 f2 ff ff 	mov    %rax,-0xd60(%rbp)
   13792:	48 8d 85 10 ef ff ff 	lea    -0x10f0(%rbp),%rax
   13799:	48 83 c0 08          	add    $0x8,%rax
   1379d:	48 89 85 a8 f2 ff ff 	mov    %rax,-0xd58(%rbp)
   137a4:	48 8d 85 10 ef ff ff 	lea    -0x10f0(%rbp),%rax
   137ab:	48 83 c0 08          	add    $0x8,%rax
   137af:	48 89 85 b0 f2 ff ff 	mov    %rax,-0xd50(%rbp)
   137b6:	48 8d 85 10 ef ff ff 	lea    -0x10f0(%rbp),%rax
   137bd:	48 83 c0 08          	add    $0x8,%rax
   137c1:	48 89 85 b8 f2 ff ff 	mov    %rax,-0xd48(%rbp)
   137c8:	48 8d 85 10 ef ff ff 	lea    -0x10f0(%rbp),%rax
   137cf:	48 83 c0 18          	add    $0x18,%rax
   137d3:	48 89 85 c0 f2 ff ff 	mov    %rax,-0xd40(%rbp)
   137da:	48 8d 85 10 ef ff ff 	lea    -0x10f0(%rbp),%rax
   137e1:	48 83 c0 08          	add    $0x8,%rax
   137e5:	48 89 85 c8 f2 ff ff 	mov    %rax,-0xd38(%rbp)
   137ec:	48 8d 85 10 ef ff ff 	lea    -0x10f0(%rbp),%rax
   137f3:	48 83 c0 08          	add    $0x8,%rax
   137f7:	48 89 85 d0 f2 ff ff 	mov    %rax,-0xd30(%rbp)
   137fe:	48 8d 85 10 ef ff ff 	lea    -0x10f0(%rbp),%rax
   13805:	48 83 c0 08          	add    $0x8,%rax
   13809:	48 89 85 d8 f2 ff ff 	mov    %rax,-0xd28(%rbp)
   13810:	48 8d 85 10 ef ff ff 	lea    -0x10f0(%rbp),%rax
   13817:	48 83 c0 18          	add    $0x18,%rax
   1381b:	48 89 85 e0 f2 ff ff 	mov    %rax,-0xd20(%rbp)
   13822:	48 8d 85 10 ef ff ff 	lea    -0x10f0(%rbp),%rax
   13829:	48 83 c0 08          	add    $0x8,%rax
   1382d:	48 89 85 e8 f2 ff ff 	mov    %rax,-0xd18(%rbp)
   13834:	48 8d 85 10 ef ff ff 	lea    -0x10f0(%rbp),%rax
   1383b:	48 89 85 f0 f2 ff ff 	mov    %rax,-0xd10(%rbp)
   13842:	48 8d 85 10 ef ff ff 	lea    -0x10f0(%rbp),%rax
   13849:	48 83 c0 08          	add    $0x8,%rax
   1384d:	48 89 85 f8 f2 ff ff 	mov    %rax,-0xd08(%rbp)
   13854:	48 8d 85 10 ef ff ff 	lea    -0x10f0(%rbp),%rax
   1385b:	48 89 85 00 f3 ff ff 	mov    %rax,-0xd00(%rbp)
   13862:	48 8d 85 10 ef ff ff 	lea    -0x10f0(%rbp),%rax
   13869:	48 83 c0 18          	add    $0x18,%rax
   1386d:	48 89 85 08 f3 ff ff 	mov    %rax,-0xcf8(%rbp)
   13874:	48 8d 85 10 ef ff ff 	lea    -0x10f0(%rbp),%rax
   1387b:	48 89 85 10 f3 ff ff 	mov    %rax,-0xcf0(%rbp)
   13882:	48 8d 85 10 ef ff ff 	lea    -0x10f0(%rbp),%rax
   13889:	48 83 c0 08          	add    $0x8,%rax
   1388d:	48 89 85 18 f3 ff ff 	mov    %rax,-0xce8(%rbp)
   13894:	48 8d 85 10 ef ff ff 	lea    -0x10f0(%rbp),%rax
   1389b:	48 89 85 20 f3 ff ff 	mov    %rax,-0xce0(%rbp)
   138a2:	48 8d 85 10 ef ff ff 	lea    -0x10f0(%rbp),%rax
   138a9:	48 83 c0 18          	add    $0x18,%rax
   138ad:	48 89 85 28 f3 ff ff 	mov    %rax,-0xcd8(%rbp)
   138b4:	48 8d 85 10 ef ff ff 	lea    -0x10f0(%rbp),%rax
   138bb:	48 89 85 30 f3 ff ff 	mov    %rax,-0xcd0(%rbp)
   138c2:	48 8d 85 10 ef ff ff 	lea    -0x10f0(%rbp),%rax
   138c9:	48 83 c0 08          	add    $0x8,%rax
   138cd:	48 89 85 38 f3 ff ff 	mov    %rax,-0xcc8(%rbp)
   138d4:	48 8d 85 10 ef ff ff 	lea    -0x10f0(%rbp),%rax
   138db:	48 83 c0 18          	add    $0x18,%rax
   138df:	48 89 85 40 f3 ff ff 	mov    %rax,-0xcc0(%rbp)
   138e6:	48 8d 85 10 ef ff ff 	lea    -0x10f0(%rbp),%rax
   138ed:	48 83 c0 18          	add    $0x18,%rax
   138f1:	48 89 85 48 f3 ff ff 	mov    %rax,-0xcb8(%rbp)
   138f8:	48 8d 85 10 ef ff ff 	lea    -0x10f0(%rbp),%rax
   138ff:	48 83 c0 08          	add    $0x8,%rax
   13903:	48 89 85 50 f3 ff ff 	mov    %rax,-0xcb0(%rbp)
   1390a:	48 8d 85 10 ef ff ff 	lea    -0x10f0(%rbp),%rax
   13911:	48 83 c0 18          	add    $0x18,%rax
   13915:	48 89 85 58 f3 ff ff 	mov    %rax,-0xca8(%rbp)
   1391c:	48 8d 85 10 ef ff ff 	lea    -0x10f0(%rbp),%rax
   13923:	48 83 c0 18          	add    $0x18,%rax
   13927:	48 89 85 60 f3 ff ff 	mov    %rax,-0xca0(%rbp)
   1392e:	48 8d 85 10 ef ff ff 	lea    -0x10f0(%rbp),%rax
   13935:	48 83 c0 18          	add    $0x18,%rax
   13939:	48 89 85 68 f3 ff ff 	mov    %rax,-0xc98(%rbp)
   13940:	48 8d 85 10 ef ff ff 	lea    -0x10f0(%rbp),%rax
   13947:	48 83 c0 08          	add    $0x8,%rax
   1394b:	48 89 85 70 f3 ff ff 	mov    %rax,-0xc90(%rbp)
   13952:	48 8d 85 10 ef ff ff 	lea    -0x10f0(%rbp),%rax
   13959:	48 83 c0 18          	add    $0x18,%rax
   1395d:	48 89 85 78 f3 ff ff 	mov    %rax,-0xc88(%rbp)
   13964:	48 8d 85 10 ef ff ff 	lea    -0x10f0(%rbp),%rax
   1396b:	48 83 c0 18          	add    $0x18,%rax
   1396f:	48 89 85 80 f3 ff ff 	mov    %rax,-0xc80(%rbp)
   13976:	48 8d 85 10 ef ff ff 	lea    -0x10f0(%rbp),%rax
   1397d:	48 83 c0 18          	add    $0x18,%rax
   13981:	48 89 85 88 f3 ff ff 	mov    %rax,-0xc78(%rbp)
   13988:	48 8d 85 10 ef ff ff 	lea    -0x10f0(%rbp),%rax
   1398f:	48 89 85 90 f3 ff ff 	mov    %rax,-0xc70(%rbp)
   13996:	48 8d 85 10 ef ff ff 	lea    -0x10f0(%rbp),%rax
   1399d:	48 83 c0 18          	add    $0x18,%rax
   139a1:	48 89 85 98 f3 ff ff 	mov    %rax,-0xc68(%rbp)
   139a8:	48 8d 85 10 ef ff ff 	lea    -0x10f0(%rbp),%rax
   139af:	48 89 85 a0 f3 ff ff 	mov    %rax,-0xc60(%rbp)
   139b6:	48 8d 85 10 ef ff ff 	lea    -0x10f0(%rbp),%rax
   139bd:	48 83 c0 08          	add    $0x8,%rax
   139c1:	48 89 85 a8 f3 ff ff 	mov    %rax,-0xc58(%rbp)
   139c8:	48 8d 85 10 ef ff ff 	lea    -0x10f0(%rbp),%rax
   139cf:	48 89 85 b0 f3 ff ff 	mov    %rax,-0xc50(%rbp)
   139d6:	48 8d 85 10 ef ff ff 	lea    -0x10f0(%rbp),%rax
   139dd:	48 83 c0 18          	add    $0x18,%rax
   139e1:	48 89 85 b8 f3 ff ff 	mov    %rax,-0xc48(%rbp)
   139e8:	48 8d 85 10 ef ff ff 	lea    -0x10f0(%rbp),%rax
   139ef:	48 89 85 c0 f3 ff ff 	mov    %rax,-0xc40(%rbp)
   139f6:	48 8d 85 10 ef ff ff 	lea    -0x10f0(%rbp),%rax
   139fd:	48 83 c0 08          	add    $0x8,%rax
   13a01:	48 89 85 c8 f3 ff ff 	mov    %rax,-0xc38(%rbp)
   13a08:	48 8d 85 10 ef ff ff 	lea    -0x10f0(%rbp),%rax
   13a0f:	48 89 85 d0 f3 ff ff 	mov    %rax,-0xc30(%rbp)
   13a16:	48 8d 85 10 ef ff ff 	lea    -0x10f0(%rbp),%rax
   13a1d:	48 83 c0 18          	add    $0x18,%rax
   13a21:	48 89 85 d8 f3 ff ff 	mov    %rax,-0xc28(%rbp)
   13a28:	48 8d 85 10 ef ff ff 	lea    -0x10f0(%rbp),%rax
   13a2f:	48 83 c0 18          	add    $0x18,%rax
   13a33:	48 89 85 e0 f3 ff ff 	mov    %rax,-0xc20(%rbp)
   13a3a:	48 8d 85 10 ef ff ff 	lea    -0x10f0(%rbp),%rax
   13a41:	48 83 c0 08          	add    $0x8,%rax
   13a45:	48 89 85 e8 f3 ff ff 	mov    %rax,-0xc18(%rbp)
   13a4c:	48 8d 85 10 ef ff ff 	lea    -0x10f0(%rbp),%rax
   13a53:	48 83 c0 08          	add    $0x8,%rax
   13a57:	48 89 85 f0 f3 ff ff 	mov    %rax,-0xc10(%rbp)
   13a5e:	48 8d 85 10 ef ff ff 	lea    -0x10f0(%rbp),%rax
   13a65:	48 83 c0 08          	add    $0x8,%rax
   13a69:	48 89 85 f8 f3 ff ff 	mov    %rax,-0xc08(%rbp)
   13a70:	48 8d 85 10 ef ff ff 	lea    -0x10f0(%rbp),%rax
   13a77:	48 83 c0 18          	add    $0x18,%rax
   13a7b:	48 89 85 00 f4 ff ff 	mov    %rax,-0xc00(%rbp)
   13a82:	48 8d 85 10 ef ff ff 	lea    -0x10f0(%rbp),%rax
   13a89:	48 83 c0 08          	add    $0x8,%rax
   13a8d:	48 89 85 08 f4 ff ff 	mov    %rax,-0xbf8(%rbp)
   13a94:	48 8d 85 10 ef ff ff 	lea    -0x10f0(%rbp),%rax
   13a9b:	48 83 c0 08          	add    $0x8,%rax
   13a9f:	48 89 85 10 f4 ff ff 	mov    %rax,-0xbf0(%rbp)
   13aa6:	48 8d 85 10 ef ff ff 	lea    -0x10f0(%rbp),%rax
   13aad:	48 83 c0 08          	add    $0x8,%rax
   13ab1:	48 89 85 18 f4 ff ff 	mov    %rax,-0xbe8(%rbp)
   13ab8:	48 8d 85 10 ef ff ff 	lea    -0x10f0(%rbp),%rax
   13abf:	48 83 c0 18          	add    $0x18,%rax
   13ac3:	48 89 85 20 f4 ff ff 	mov    %rax,-0xbe0(%rbp)
   13aca:	48 8d 85 10 ef ff ff 	lea    -0x10f0(%rbp),%rax
   13ad1:	48 83 c0 08          	add    $0x8,%rax
   13ad5:	48 89 85 28 f4 ff ff 	mov    %rax,-0xbd8(%rbp)
   13adc:	48 8d 85 10 ef ff ff 	lea    -0x10f0(%rbp),%rax
   13ae3:	48 89 85 30 f4 ff ff 	mov    %rax,-0xbd0(%rbp)
   13aea:	48 8d 85 10 ef ff ff 	lea    -0x10f0(%rbp),%rax
   13af1:	48 83 c0 08          	add    $0x8,%rax
   13af5:	48 89 85 38 f4 ff ff 	mov    %rax,-0xbc8(%rbp)
   13afc:	48 8d 85 10 ef ff ff 	lea    -0x10f0(%rbp),%rax
   13b03:	48 89 85 40 f4 ff ff 	mov    %rax,-0xbc0(%rbp)
   13b0a:	48 8d 85 10 ef ff ff 	lea    -0x10f0(%rbp),%rax
   13b11:	48 83 c0 18          	add    $0x18,%rax
   13b15:	48 89 85 48 f4 ff ff 	mov    %rax,-0xbb8(%rbp)
   13b1c:	48 8d 85 10 ef ff ff 	lea    -0x10f0(%rbp),%rax
   13b23:	48 89 85 50 f4 ff ff 	mov    %rax,-0xbb0(%rbp)
   13b2a:	48 8d 85 10 ef ff ff 	lea    -0x10f0(%rbp),%rax
   13b31:	48 83 c0 08          	add    $0x8,%rax
   13b35:	48 89 85 58 f4 ff ff 	mov    %rax,-0xba8(%rbp)
   13b3c:	48 8d 85 10 ef ff ff 	lea    -0x10f0(%rbp),%rax
   13b43:	48 89 85 60 f4 ff ff 	mov    %rax,-0xba0(%rbp)
   13b4a:	48 8d 85 10 ef ff ff 	lea    -0x10f0(%rbp),%rax
   13b51:	48 83 c0 18          	add    $0x18,%rax
   13b55:	48 89 85 68 f4 ff ff 	mov    %rax,-0xb98(%rbp)
   13b5c:	48 8d 85 10 ef ff ff 	lea    -0x10f0(%rbp),%rax
   13b63:	48 89 85 70 f4 ff ff 	mov    %rax,-0xb90(%rbp)
   13b6a:	48 8d 85 10 ef ff ff 	lea    -0x10f0(%rbp),%rax
   13b71:	48 83 c0 08          	add    $0x8,%rax
   13b75:	48 89 85 78 f4 ff ff 	mov    %rax,-0xb88(%rbp)
   13b7c:	48 8d 85 10 ef ff ff 	lea    -0x10f0(%rbp),%rax
   13b83:	48 83 c0 18          	add    $0x18,%rax
   13b87:	48 89 85 80 f4 ff ff 	mov    %rax,-0xb80(%rbp)
   13b8e:	48 8d 85 10 ef ff ff 	lea    -0x10f0(%rbp),%rax
   13b95:	48 83 c0 18          	add    $0x18,%rax
   13b99:	48 89 85 88 f4 ff ff 	mov    %rax,-0xb78(%rbp)
   13ba0:	48 8d 85 10 ef ff ff 	lea    -0x10f0(%rbp),%rax
   13ba7:	48 83 c0 08          	add    $0x8,%rax
   13bab:	48 89 85 90 f4 ff ff 	mov    %rax,-0xb70(%rbp)
   13bb2:	48 8d 85 10 ef ff ff 	lea    -0x10f0(%rbp),%rax
   13bb9:	48 83 c0 18          	add    $0x18,%rax
   13bbd:	48 89 85 98 f4 ff ff 	mov    %rax,-0xb68(%rbp)
   13bc4:	48 8d 85 10 ef ff ff 	lea    -0x10f0(%rbp),%rax
   13bcb:	48 83 c0 18          	add    $0x18,%rax
   13bcf:	48 89 85 a0 f4 ff ff 	mov    %rax,-0xb60(%rbp)
   13bd6:	48 8d 85 10 ef ff ff 	lea    -0x10f0(%rbp),%rax
   13bdd:	48 83 c0 18          	add    $0x18,%rax
   13be1:	48 89 85 a8 f4 ff ff 	mov    %rax,-0xb58(%rbp)
   13be8:	48 8d 85 10 ef ff ff 	lea    -0x10f0(%rbp),%rax
   13bef:	48 83 c0 08          	add    $0x8,%rax
   13bf3:	48 89 85 b0 f4 ff ff 	mov    %rax,-0xb50(%rbp)
   13bfa:	48 8d 85 10 ef ff ff 	lea    -0x10f0(%rbp),%rax
   13c01:	48 83 c0 18          	add    $0x18,%rax
   13c05:	48 89 85 b8 f4 ff ff 	mov    %rax,-0xb48(%rbp)
   13c0c:	48 8d 85 10 ef ff ff 	lea    -0x10f0(%rbp),%rax
   13c13:	48 83 c0 18          	add    $0x18,%rax
   13c17:	48 89 85 c0 f4 ff ff 	mov    %rax,-0xb40(%rbp)
   13c1e:	48 8d 85 10 ef ff ff 	lea    -0x10f0(%rbp),%rax
   13c25:	48 83 c0 18          	add    $0x18,%rax
   13c29:	48 89 85 c8 f4 ff ff 	mov    %rax,-0xb38(%rbp)
   13c30:	83 85 0c eb ff ff 01 	addl   $0x1,-0x14f4(%rbp)
   13c37:	48 8b 85 28 ef ff ff 	mov    -0x10d8(%rbp),%rax
   13c3e:	48 89 05 e3 b7 00 00 	mov    %rax,0xb7e3(%rip)        # 1f428 <g_866>
   13c45:	48 8b 05 dc b7 00 00 	mov    0xb7dc(%rip),%rax        # 1f428 <g_866>
   13c4c:	48 89 85 a0 ed ff ff 	mov    %rax,-0x1260(%rbp)
   13c53:	8b 85 38 ea ff ff    	mov    -0x15c8(%rbp),%eax
   13c59:	83 c0 01             	add    $0x1,%eax
   13c5c:	89 85 38 ea ff ff    	mov    %eax,-0x15c8(%rbp)
   13c62:	8b 85 38 ea ff ff    	mov    -0x15c8(%rbp),%eax
   13c68:	83 f8 03             	cmp    $0x3,%eax
   13c6b:	0f 8e 05 fb ff ff    	jle    13776 <func_66+0x52bd>
   13c71:	0f b6 05 10 8f 00 00 	movzbl 0x8f10(%rip),%eax        # 1cb88 <g_448>
   13c78:	83 c0 01             	add    $0x1,%eax
   13c7b:	88 05 07 8f 00 00    	mov    %al,0x8f07(%rip)        # 1cb88 <g_448>
   13c81:	0f b6 05 00 8f 00 00 	movzbl 0x8f00(%rip),%eax        # 1cb88 <g_448>
   13c88:	3c 03                	cmp    $0x3,%al
   13c8a:	0f 8e 12 f6 ff ff    	jle    132a2 <func_66+0x4de9>
   13c90:	48 8b 85 60 ec ff ff 	mov    -0x13a0(%rbp),%rax
   13c97:	8b 18                	mov    (%rax),%ebx
   13c99:	8b 85 e0 ee ff ff    	mov    -0x1120(%rbp),%eax
   13c9f:	83 f8 fe             	cmp    $0xfffffffe,%eax
   13ca2:	75 6e                	jne    13d12 <func_66+0x5859>
   13ca4:	48 8b 85 08 f0 ff ff 	mov    -0xff8(%rbp),%rax
   13cab:	48 8d 15 e2 8e 00 00 	lea    0x8ee2(%rip),%rdx        # 1cb94 <g_698>
   13cb2:	48 39 d0             	cmp    %rdx,%rax
   13cb5:	0f 95 c0             	setne  %al
   13cb8:	89 c2                	mov    %eax,%edx
   13cba:	48 8b 85 40 ec ff ff 	mov    -0x13c0(%rbp),%rax
   13cc1:	88 10                	mov    %dl,(%rax)
   13cc3:	be 81 9e 00 00       	mov    $0x9e81,%esi
   13cc8:	bf 00 00 00 00       	mov    $0x0,%edi
   13ccd:	e8 bc 60 ff ff       	callq  9d8e <safe_div_func_uint16_t_u_u>
   13cd2:	8b 85 08 ea ff ff    	mov    -0x15f8(%rbp),%eax
   13cd8:	0f b7 c0             	movzwl %ax,%eax
   13cdb:	be 22 31 00 00       	mov    $0x3122,%esi
   13ce0:	89 c7                	mov    %eax,%edi
   13ce2:	e8 75 60 ff ff       	callq  9d5c <safe_mod_func_uint16_t_u_u>
   13ce7:	0f b7 15 7c ce 00 00 	movzwl 0xce7c(%rip),%edx        # 20b6a <g_250>
   13cee:	66 39 d0             	cmp    %dx,%ax
   13cf1:	0f 92 c0             	setb   %al
   13cf4:	0f b6 d0             	movzbl %al,%edx
   13cf7:	48 83 bd 60 ec ff ff 	cmpq   $0x0,-0x13a0(%rbp)
   13cfe:	00 
   13cff:	0f 95 c0             	setne  %al
   13d02:	0f b6 c0             	movzbl %al,%eax
   13d05:	89 d6                	mov    %edx,%esi
   13d07:	89 c7                	mov    %eax,%edi
   13d09:	e8 85 5e ff ff       	callq  9b93 <safe_mul_func_uint8_t_u_u>
   13d0e:	84 c0                	test   %al,%al
   13d10:	74 07                	je     13d19 <func_66+0x5860>
   13d12:	b8 01 00 00 00       	mov    $0x1,%eax
   13d17:	eb 05                	jmp    13d1e <func_66+0x5865>
   13d19:	b8 00 00 00 00       	mov    $0x0,%eax
   13d1e:	0f b6 c0             	movzbl %al,%eax
   13d21:	be 06 00 00 00       	mov    $0x6,%esi
   13d26:	89 c7                	mov    %eax,%edi
   13d28:	e8 d8 5e ff ff       	callq  9c05 <safe_lshift_func_uint8_t_u_s>
   13d2d:	81 bd 0c ea ff ff 91 	cmpl   $0x96a47d91,-0x15f4(%rbp)
   13d34:	7d a4 96 
   13d37:	0f 96 c0             	setbe  %al
   13d3a:	0f b6 c0             	movzbl %al,%eax
   13d3d:	89 de                	mov    %ebx,%esi
   13d3f:	89 c7                	mov    %eax,%edi
   13d41:	e8 02 61 ff ff       	callq  9e48 <safe_rshift_func_uint16_t_u_s>
   13d46:	0f b7 d0             	movzwl %ax,%edx
   13d49:	48 8b 85 c8 ed ff ff 	mov    -0x1238(%rbp),%rax
   13d50:	89 10                	mov    %edx,(%rax)
   13d52:	48 c7 c1 f8 ff ff ff 	mov    $0xfffffffffffffff8,%rcx
   13d59:	48 8b 05 00 b5 00 00 	mov    0xb500(%rip),%rax        # 1f260 <g_447>
   13d60:	0f b6 10             	movzbl (%rax),%edx
   13d63:	48 8b 05 f6 b4 00 00 	mov    0xb4f6(%rip),%rax        # 1f260 <g_447>
   13d6a:	31 ca                	xor    %ecx,%edx
   13d6c:	88 10                	mov    %dl,(%rax)
   13d6e:	0f b6 00             	movzbl (%rax),%eax
   13d71:	0f be c0             	movsbl %al,%eax
   13d74:	be 1a 00 00 00       	mov    $0x1a,%esi
   13d79:	89 c7                	mov    %eax,%edi
   13d7b:	e8 92 54 ff ff       	callq  9212 <safe_mul_func_int8_t_s_s>
   13d80:	0f be d0             	movsbl %al,%edx
   13d83:	0f b7 85 24 ea ff ff 	movzwl -0x15dc(%rbp),%eax
   13d8a:	98                   	cwtl   
   13d8b:	89 d6                	mov    %edx,%esi
   13d8d:	89 c7                	mov    %eax,%edi
   13d8f:	e8 82 56 ff ff       	callq  9416 <safe_mod_func_int16_t_s_s>
   13d94:	48 8b 95 18 ec ff ff 	mov    -0x13e8(%rbp),%rdx
   13d9b:	8b 12                	mov    (%rdx),%edx
   13d9d:	98                   	cwtl   
   13d9e:	31 c2                	xor    %eax,%edx
   13da0:	48 8b 85 18 ec ff ff 	mov    -0x13e8(%rbp),%rax
   13da7:	89 10                	mov    %edx,(%rax)
   13da9:	8b 85 b4 ea ff ff    	mov    -0x154c(%rbp),%eax
   13daf:	98                   	cwtl   
   13db0:	be 06 00 00 00       	mov    $0x6,%esi
   13db5:	89 c7                	mov    %eax,%edi
   13db7:	e8 25 57 ff ff       	callq  94e1 <safe_lshift_func_int16_t_s_u>
   13dbc:	66 85 c0             	test   %ax,%ax
   13dbf:	0f 84 ee 01 00 00    	je     13fb3 <func_66+0x5afa>
   13dc5:	48 c7 85 00 ec ff ff 	movq   $0x0,-0x1400(%rbp)
   13dcc:	00 00 00 00 
   13dd0:	48 8d 85 00 ec ff ff 	lea    -0x1400(%rbp),%rax
   13dd7:	48 89 85 f8 ed ff ff 	mov    %rax,-0x1208(%rbp)
   13dde:	48 8d 85 88 eb ff ff 	lea    -0x1478(%rbp),%rax
   13de5:	48 89 85 08 ec ff ff 	mov    %rax,-0x13f8(%rbp)
   13dec:	48 8d 85 08 ec ff ff 	lea    -0x13f8(%rbp),%rax
   13df3:	48 89 85 10 ec ff ff 	mov    %rax,-0x13f0(%rbp)
   13dfa:	48 8d 85 10 ec ff ff 	lea    -0x13f0(%rbp),%rax
   13e01:	48 89 85 00 ee ff ff 	mov    %rax,-0x1200(%rbp)
   13e08:	c7 85 00 eb ff ff 07 	movl   $0x7,-0x1500(%rbp)
   13e0f:	00 00 00 
   13e12:	48 8b 85 b0 ef ff ff 	mov    -0x1050(%rbp),%rax
   13e19:	48 39 85 28 ec ff ff 	cmp    %rax,-0x13d8(%rbp)
   13e20:	0f 94 c0             	sete   %al
   13e23:	0f b6 d0             	movzbl %al,%edx
   13e26:	48 8b 85 60 ec ff ff 	mov    -0x13a0(%rbp),%rax
   13e2d:	8b 00                	mov    (%rax),%eax
   13e2f:	21 c2                	and    %eax,%edx
   13e31:	48 8b 85 60 ec ff ff 	mov    -0x13a0(%rbp),%rax
   13e38:	89 10                	mov    %edx,(%rax)
   13e3a:	81 bd 08 ea ff ff a3 	cmpl   $0xbaa3,-0x15f8(%rbp)
   13e41:	ba 00 00 
   13e44:	0f 9f c0             	setg   %al
   13e47:	0f b6 c0             	movzbl %al,%eax
   13e4a:	33 85 b4 ea ff ff    	xor    -0x154c(%rbp),%eax
   13e50:	41 89 c4             	mov    %eax,%r12d
   13e53:	8b 05 47 85 00 00    	mov    0x8547(%rip),%eax        # 1c3a0 <g_34>
   13e59:	f7 d0                	not    %eax
   13e5b:	0f b7 c0             	movzwl %ax,%eax
   13e5e:	be 00 00 00 00       	mov    $0x0,%esi
   13e63:	89 c7                	mov    %eax,%edi
   13e65:	e8 de 5f ff ff       	callq  9e48 <safe_rshift_func_uint16_t_u_s>
   13e6a:	89 c2                	mov    %eax,%edx
   13e6c:	48 8b 85 88 eb ff ff 	mov    -0x1478(%rbp),%rax
   13e73:	0f b7 d2             	movzwl %dx,%edx
   13e76:	48 89 10             	mov    %rdx,(%rax)
   13e79:	4c 8b 28             	mov    (%rax),%r13
   13e7c:	8b 9d 0c ea ff ff    	mov    -0x15f4(%rbp),%ebx
   13e82:	48 8b 85 f8 ed ff ff 	mov    -0x1208(%rbp),%rax
   13e89:	48 c7 00 00 00 00 00 	movq   $0x0,(%rax)
   13e90:	48 8b 85 68 ec ff ff 	mov    -0x1398(%rbp),%rax
   13e97:	41 89 c6             	mov    %eax,%r14d
   13e9a:	8b 85 08 ea ff ff    	mov    -0x15f8(%rbp),%eax
   13ea0:	48 8b 95 88 ed ff ff 	mov    -0x1278(%rbp),%rdx
   13ea7:	8b 12                	mov    (%rdx),%edx
   13ea9:	89 c6                	mov    %eax,%esi
   13eab:	89 d7                	mov    %edx,%edi
   13ead:	e8 1e 60 ff ff       	callq  9ed0 <safe_sub_func_uint32_t_u_u>
   13eb2:	0f be c0             	movsbl %al,%eax
   13eb5:	44 89 f6             	mov    %r14d,%esi
   13eb8:	89 c7                	mov    %eax,%edi
   13eba:	e8 2f 54 ff ff       	callq  92ee <safe_lshift_func_int8_t_s_u>
   13ebf:	84 c0                	test   %al,%al
   13ec1:	74 08                	je     13ecb <func_66+0x5a12>
   13ec3:	8b 85 e0 ee ff ff    	mov    -0x1120(%rbp),%eax
   13ec9:	85 c0                	test   %eax,%eax
   13ecb:	48 8b 85 40 ec ff ff 	mov    -0x13c0(%rbp),%rax
   13ed2:	c6 00 00             	movb   $0x0,(%rax)
   13ed5:	8b 8d 0c ea ff ff    	mov    -0x15f4(%rbp),%ecx
   13edb:	48 8b 85 a0 eb ff ff 	mov    -0x1460(%rbp),%rax
   13ee2:	48 8b 10             	mov    (%rax),%rdx
   13ee5:	89 c9                	mov    %ecx,%ecx
   13ee7:	48 8b 85 a0 eb ff ff 	mov    -0x1460(%rbp),%rax
   13eee:	48 21 ca             	and    %rcx,%rdx
   13ef1:	48 89 10             	mov    %rdx,(%rax)
   13ef4:	48 8b 85 88 ef ff ff 	mov    -0x1078(%rbp),%rax
   13efb:	48 85 c0             	test   %rax,%rax
   13efe:	41 0f 95 c6          	setne  %r14b
   13f02:	48 8b 85 00 ee ff ff 	mov    -0x1200(%rbp),%rax
   13f09:	48 c7 00 00 00 00 00 	movq   $0x0,(%rax)
   13f10:	48 8b 85 00 ee ff ff 	mov    -0x1200(%rbp),%rax
   13f17:	48 8b 00             	mov    (%rax),%rax
   13f1a:	48 39 85 90 ed ff ff 	cmp    %rax,-0x1270(%rbp)
   13f21:	0f 94 c0             	sete   %al
   13f24:	0f b6 c0             	movzbl %al,%eax
   13f27:	89 c7                	mov    %eax,%edi
   13f29:	e8 17 5c ff ff       	callq  9b45 <safe_unary_minus_func_uint8_t_u>
   13f2e:	3c 01                	cmp    $0x1,%al
   13f30:	0f 95 c0             	setne  %al
   13f33:	44 31 f0             	xor    %r14d,%eax
   13f36:	0f b6 c0             	movzbl %al,%eax
   13f39:	48 89 de             	mov    %rbx,%rsi
   13f3c:	48 89 c7             	mov    %rax,%rdi
   13f3f:	e8 b3 5a ff ff       	callq  99f7 <safe_div_func_int64_t_s_s>
   13f44:	8b 95 e0 ee ff ff    	mov    -0x1120(%rbp),%edx
   13f4a:	48 63 d2             	movslq %edx,%rdx
   13f4d:	48 09 d0             	or     %rdx,%rax
   13f50:	48 89 c2             	mov    %rax,%rdx
   13f53:	48 8b 85 a8 ed ff ff 	mov    -0x1258(%rbp),%rax
   13f5a:	48 89 c6             	mov    %rax,%rsi
   13f5d:	48 89 d7             	mov    %rdx,%rdi
   13f60:	e8 e6 60 ff ff       	callq  a04b <safe_sub_func_uint64_t_u_u>
   13f65:	48 85 c0             	test   %rax,%rax
   13f68:	74 11                	je     13f7b <func_66+0x5ac2>
   13f6a:	8b 85 e0 ee ff ff    	mov    -0x1120(%rbp),%eax
   13f70:	85 c0                	test   %eax,%eax
   13f72:	74 07                	je     13f7b <func_66+0x5ac2>
   13f74:	b8 01 00 00 00       	mov    $0x1,%eax
   13f79:	eb 05                	jmp    13f80 <func_66+0x5ac7>
   13f7b:	b8 00 00 00 00       	mov    $0x0,%eax
   13f80:	48 98                	cltq   
   13f82:	49 39 c5             	cmp    %rax,%r13
   13f85:	0f 92 c0             	setb   %al
   13f88:	0f b6 c0             	movzbl %al,%eax
   13f8b:	44 09 e0             	or     %r12d,%eax
   13f8e:	be 88 0f 85 ed       	mov    $0xed850f88,%esi
   13f93:	89 c7                	mov    %eax,%edi
   13f95:	e8 65 57 ff ff       	callq  96ff <safe_div_func_int32_t_s_s>
   13f9a:	8b 95 00 eb ff ff    	mov    -0x1500(%rbp),%edx
   13fa0:	8b 85 d8 eb ff ff    	mov    -0x1428(%rbp),%eax
   13fa6:	21 d0                	and    %edx,%eax
   13fa8:	89 85 d8 eb ff ff    	mov    %eax,-0x1428(%rbp)
   13fae:	e9 a5 05 00 00       	jmpq   14558 <func_66+0x609f>
   13fb3:	48 8d 05 b2 cb 00 00 	lea    0xcbb2(%rip),%rax        # 20b6c <g_280>
   13fba:	48 89 85 b0 f1 ff ff 	mov    %rax,-0xe50(%rbp)
   13fc1:	48 8d 05 a4 cb 00 00 	lea    0xcba4(%rip),%rax        # 20b6c <g_280>
   13fc8:	48 89 85 b8 f1 ff ff 	mov    %rax,-0xe48(%rbp)
   13fcf:	48 8d 05 96 cb 00 00 	lea    0xcb96(%rip),%rax        # 20b6c <g_280>
   13fd6:	48 89 85 c0 f1 ff ff 	mov    %rax,-0xe40(%rbp)
   13fdd:	48 8d 05 88 cb 00 00 	lea    0xcb88(%rip),%rax        # 20b6c <g_280>
   13fe4:	48 89 85 c8 f1 ff ff 	mov    %rax,-0xe38(%rbp)
   13feb:	48 8d 05 7a cb 00 00 	lea    0xcb7a(%rip),%rax        # 20b6c <g_280>
   13ff2:	48 89 85 d0 f1 ff ff 	mov    %rax,-0xe30(%rbp)
   13ff9:	48 8d 85 a0 f2 ff ff 	lea    -0xd60(%rbp),%rax
   14000:	48 8d 15 d9 44 00 00 	lea    0x44d9(%rip),%rdx        # 184e0 <g_1737+0x144e>
   14007:	b9 1f 00 00 00       	mov    $0x1f,%ecx
   1400c:	48 89 c7             	mov    %rax,%rdi
   1400f:	48 89 d6             	mov    %rdx,%rsi
   14012:	f3 48 a5             	rep movsq %ds:(%rsi),%es:(%rdi)
   14015:	48 89 f2             	mov    %rsi,%rdx
   14018:	48 89 f8             	mov    %rdi,%rax
   1401b:	8b 0a                	mov    (%rdx),%ecx
   1401d:	89 08                	mov    %ecx,(%rax)
   1401f:	48 8d 85 70 eb ff ff 	lea    -0x1490(%rbp),%rax
   14026:	48 89 85 d0 ed ff ff 	mov    %rax,-0x1230(%rbp)
   1402d:	48 c7 85 d8 ed ff ff 	movq   $0x0,-0x1228(%rbp)
   14034:	00 00 00 00 
   14038:	48 8d 85 38 ea ff ff 	lea    -0x15c8(%rbp),%rax
   1403f:	48 89 85 e0 ed ff ff 	mov    %rax,-0x1220(%rbp)
   14046:	48 8b 05 3b b2 00 00 	mov    0xb23b(%rip),%rax        # 1f288 <g_648>
   1404d:	8b 00                	mov    (%rax),%eax
   1404f:	41 89 c6             	mov    %eax,%r14d
   14052:	48 8b 05 67 83 00 00 	mov    0x8367(%rip),%rax        # 1c3c0 <g_57>
   14059:	0f bf d8             	movswl %ax,%ebx
   1405c:	8b 85 a4 f2 ff ff    	mov    -0xd5c(%rbp),%eax
   14062:	44 0f bf e0          	movswl %ax,%r12d
   14066:	8b 85 e0 ee ff ff    	mov    -0x1120(%rbp),%eax
   1406c:	4c 63 e8             	movslq %eax,%r13
   1406f:	48 8b 05 4a 83 00 00 	mov    0x834a(%rip),%rax        # 1c3c0 <g_57>
   14076:	48 85 c0             	test   %rax,%rax
   14079:	74 20                	je     1409b <func_66+0x5be2>
   1407b:	8b 05 eb ca 00 00    	mov    0xcaeb(%rip),%eax        # 20b6c <g_280>
   14081:	8d 50 ff             	lea    -0x1(%rax),%edx
   14084:	89 15 e2 ca 00 00    	mov    %edx,0xcae2(%rip)        # 20b6c <g_280>
   1408a:	85 c0                	test   %eax,%eax
   1408c:	74 0d                	je     1409b <func_66+0x5be2>
   1408e:	48 8b 05 f3 b0 00 00 	mov    0xb0f3(%rip),%rax        # 1f188 <g_267>
   14095:	8b 00                	mov    (%rax),%eax
   14097:	85 c0                	test   %eax,%eax
   14099:	75 19                	jne    140b4 <func_66+0x5bfb>
   1409b:	8b 85 0c ea ff ff    	mov    -0x15f4(%rbp),%eax
   140a1:	0f b6 c0             	movzbl %al,%eax
   140a4:	be 01 00 00 00       	mov    $0x1,%esi
   140a9:	89 c7                	mov    %eax,%edi
   140ab:	e8 c8 5a ff ff       	callq  9b78 <safe_sub_func_uint8_t_u_u>
   140b0:	84 c0                	test   %al,%al
   140b2:	74 07                	je     140bb <func_66+0x5c02>
   140b4:	b8 01 00 00 00       	mov    $0x1,%eax
   140b9:	eb 05                	jmp    140c0 <func_66+0x5c07>
   140bb:	b8 00 00 00 00       	mov    $0x0,%eax
   140c0:	0f b7 c0             	movzwl %ax,%eax
   140c3:	89 c6                	mov    %eax,%esi
   140c5:	bf fc ff 00 00       	mov    $0xfffc,%edi
   140ca:	e8 6e 5c ff ff       	callq  9d3d <safe_mul_func_uint16_t_u_u>
   140cf:	8b 85 e0 ee ff ff    	mov    -0x1120(%rbp),%eax
   140d5:	83 f8 01             	cmp    $0x1,%eax
   140d8:	48 8b 05 c1 b0 00 00 	mov    0xb0c1(%rip),%rax        # 1f1a0 <g_349>
   140df:	48 8b 00             	mov    (%rax),%rax
   140e2:	48 8b 00             	mov    (%rax),%rax
   140e5:	4c 89 ee             	mov    %r13,%rsi
   140e8:	48 89 c7             	mov    %rax,%rdi
   140eb:	e8 3e 5f ff ff       	callq  a02e <safe_add_func_uint64_t_u_u>
   140f0:	44 89 e6             	mov    %r12d,%esi
   140f3:	bf 01 00 00 00       	mov    $0x1,%edi
   140f8:	e8 19 53 ff ff       	callq  9416 <safe_mod_func_int16_t_s_s>
   140fd:	98                   	cwtl   
   140fe:	89 de                	mov    %ebx,%esi
   14100:	89 c7                	mov    %eax,%edi
   14102:	e8 cc 52 ff ff       	callq  93d3 <safe_sub_func_int16_t_s_s>
   14107:	ba 00 00 00 00       	mov    $0x0,%edx
   1410c:	48 8b 85 18 ec ff ff 	mov    -0x13e8(%rbp),%rax
   14113:	8b 00                	mov    (%rax),%eax
   14115:	31 c2                	xor    %eax,%edx
   14117:	48 8b 85 18 ec ff ff 	mov    -0x13e8(%rbp),%rax
   1411e:	89 10                	mov    %edx,(%rax)
   14120:	48 8b 85 18 ec ff ff 	mov    -0x13e8(%rbp),%rax
   14127:	8b 00                	mov    (%rax),%eax
   14129:	48 8b 1d 58 b0 00 00 	mov    0xb058(%rip),%rbx        # 1f188 <g_267>
   14130:	44 89 f6             	mov    %r14d,%esi
   14133:	89 c7                	mov    %eax,%edi
   14135:	e8 7c 54 ff ff       	callq  95b6 <safe_add_func_int32_t_s_s>
   1413a:	89 03                	mov    %eax,(%rbx)
   1413c:	8b 13                	mov    (%rbx),%edx
   1413e:	8b 85 e0 ee ff ff    	mov    -0x1120(%rbp),%eax
   14144:	21 d0                	and    %edx,%eax
   14146:	89 c6                	mov    %eax,%esi
   14148:	bf 05 00 00 00       	mov    $0x5,%edi
   1414d:	e8 b4 5c ff ff       	callq  9e06 <safe_lshift_func_uint16_t_u_u>
   14152:	48 8b 95 d0 ed ff ff 	mov    -0x1230(%rbp),%rdx
   14159:	48 8b 12             	mov    (%rdx),%rdx
   1415c:	0f b7 c0             	movzwl %ax,%eax
   1415f:	48 09 c2             	or     %rax,%rdx
   14162:	48 8b 85 d0 ed ff ff 	mov    -0x1230(%rbp),%rax
   14169:	48 89 10             	mov    %rdx,(%rax)
   1416c:	c7 85 c8 ea ff ff 01 	movl   $0x1,-0x1538(%rbp)
   14173:	00 00 00 
   14176:	66 c7 85 24 ea ff ff 	movw   $0x0,-0x15dc(%rbp)
   1417d:	00 00 
   1417f:	eb 19                	jmp    1419a <func_66+0x5ce1>
   14181:	48 8b 85 38 ec ff ff 	mov    -0x13c8(%rbp),%rax
   14188:	48 8d 95 d8 eb ff ff 	lea    -0x1428(%rbp),%rdx
   1418f:	48 89 10             	mov    %rdx,(%rax)
   14192:	66 83 85 24 ea ff ff 	addw   $0x1,-0x15dc(%rbp)
   14199:	01 
   1419a:	66 83 bd 24 ea ff ff 	cmpw   $0x6,-0x15dc(%rbp)
   141a1:	06 
   141a2:	76 dd                	jbe    14181 <func_66+0x5cc8>
   141a4:	48 c7 05 11 82 00 00 	movq   $0x0,0x8211(%rip)        # 1c3c0 <g_57>
   141ab:	00 00 00 00 
   141af:	e9 83 03 00 00       	jmpq   14537 <func_66+0x607e>
   141b4:	48 c7 85 e8 ed ff ff 	movq   $0x0,-0x1218(%rbp)
   141bb:	00 00 00 00 
   141bf:	48 8d 85 98 eb ff ff 	lea    -0x1468(%rbp),%rax
   141c6:	48 89 85 f0 ed ff ff 	mov    %rax,-0x1210(%rbp)
   141cd:	c7 85 c0 ea ff ff 00 	movl   $0x0,-0x1540(%rbp)
   141d4:	00 00 00 
   141d7:	eb 1e                	jmp    141f7 <func_66+0x5d3e>
   141d9:	8b 85 c0 ea ff ff    	mov    -0x1540(%rbp),%eax
   141df:	48 98                	cltq   
   141e1:	48 8d 15 68 c9 00 00 	lea    0xc968(%rip),%rdx        # 20b50 <g_109>
   141e8:	48 89 94 c5 e8 ee ff 	mov    %rdx,-0x1118(%rbp,%rax,8)
   141ef:	ff 
   141f0:	83 85 c0 ea ff ff 01 	addl   $0x1,-0x1540(%rbp)
   141f7:	83 bd c0 ea ff ff 00 	cmpl   $0x0,-0x1540(%rbp)
   141fe:	7e d9                	jle    141d9 <func_66+0x5d20>
   14200:	c7 85 c0 ea ff ff 00 	movl   $0x0,-0x1540(%rbp)
   14207:	00 00 00 
   1420a:	eb 1a                	jmp    14226 <func_66+0x5d6d>
   1420c:	8b 85 c0 ea ff ff    	mov    -0x1540(%rbp),%eax
   14212:	48 98                	cltq   
   14214:	c7 84 85 e4 ee ff ff 	movl   $0x259ea23f,-0x111c(%rbp,%rax,4)
   1421b:	3f a2 9e 25 
   1421f:	83 85 c0 ea ff ff 01 	addl   $0x1,-0x1540(%rbp)
   14226:	83 bd c0 ea ff ff 00 	cmpl   $0x0,-0x1540(%rbp)
   1422d:	7e dd                	jle    1420c <func_66+0x5d53>
   1422f:	0f b7 05 34 c9 00 00 	movzwl 0xc934(%rip),%eax        # 20b6a <g_250>
   14236:	0f b7 d8             	movzwl %ax,%ebx
   14239:	8b 95 08 ea ff ff    	mov    -0x15f8(%rbp),%edx
   1423f:	8b 85 08 ea ff ff    	mov    -0x15f8(%rbp),%eax
   14245:	89 d6                	mov    %edx,%esi
   14247:	89 c7                	mov    %eax,%edi
   14249:	e8 af 5c ff ff       	callq  9efd <safe_mod_func_uint32_t_u_u>
   1424e:	89 85 f8 ea ff ff    	mov    %eax,-0x1508(%rbp)
   14254:	8b 85 f8 ea ff ff    	mov    -0x1508(%rbp),%eax
   1425a:	be f8 3c 65 02       	mov    $0x2653cf8,%esi
   1425f:	89 c7                	mov    %eax,%edi
   14261:	e8 66 54 ff ff       	callq  96cc <safe_mod_func_int32_t_s_s>
   14266:	83 f8 ff             	cmp    $0xffffffff,%eax
   14269:	0f 95 c0             	setne  %al
   1426c:	0f b6 d0             	movzbl %al,%edx
   1426f:	48 8b 85 18 ec ff ff 	mov    -0x13e8(%rbp),%rax
   14276:	89 10                	mov    %edx,(%rax)
   14278:	48 8b 85 18 ec ff ff 	mov    -0x13e8(%rbp),%rax
   1427f:	8b 10                	mov    (%rax),%edx
   14281:	0f b7 85 24 ea ff ff 	movzwl -0x15dc(%rbp),%eax
   14288:	39 c2                	cmp    %eax,%edx
   1428a:	0f 9c c0             	setl   %al
   1428d:	0f b6 c0             	movzbl %al,%eax
   14290:	48 39 85 a8 ed ff ff 	cmp    %rax,-0x1258(%rbp)
   14297:	0f 96 c0             	setbe  %al
   1429a:	0f b6 d0             	movzbl %al,%edx
   1429d:	8b 85 a4 f2 ff ff    	mov    -0xd5c(%rbp),%eax
   142a3:	21 c2                	and    %eax,%edx
   142a5:	8b 85 e4 ee ff ff    	mov    -0x111c(%rbp),%eax
   142ab:	31 d0                	xor    %edx,%eax
   142ad:	89 85 e4 ee ff ff    	mov    %eax,-0x111c(%rbp)
   142b3:	8b 85 e4 ee ff ff    	mov    -0x111c(%rbp),%eax
   142b9:	39 85 08 ea ff ff    	cmp    %eax,-0x15f8(%rbp)
   142bf:	0f 9d c0             	setge  %al
   142c2:	0f b6 c0             	movzbl %al,%eax
   142c5:	8b 15 29 7f 00 00    	mov    0x7f29(%rip),%edx        # 1c1f4 <g_4+0x1b4>
   142cb:	09 c2                	or     %eax,%edx
   142cd:	8b 05 d9 7f 00 00    	mov    0x7fd9(%rip),%eax        # 1c2ac <g_4+0x26c>
   142d3:	09 d0                	or     %edx,%eax
   142d5:	0f bf d0             	movswl %ax,%edx
   142d8:	48 83 bd d8 ed ff ff 	cmpq   $0x0,-0x1228(%rbp)
   142df:	00 
   142e0:	0f 95 c0             	setne  %al
   142e3:	0f b6 c0             	movzbl %al,%eax
   142e6:	89 d6                	mov    %edx,%esi
   142e8:	89 c7                	mov    %eax,%edi
   142ea:	e8 06 51 ff ff       	callq  93f5 <safe_mul_func_int16_t_s_s>
   142ef:	0f b7 c0             	movzwl %ax,%eax
   142f2:	89 de                	mov    %ebx,%esi
   142f4:	89 c7                	mov    %eax,%edi
   142f6:	e8 93 5a ff ff       	callq  9d8e <safe_div_func_uint16_t_u_u>
   142fb:	48 83 bd e8 ed ff ff 	cmpq   $0x0,-0x1218(%rbp)
   14302:	00 
   14303:	0f 95 c0             	setne  %al
   14306:	0f b6 d0             	movzbl %al,%edx
   14309:	48 8b 85 e8 ee ff ff 	mov    -0x1118(%rbp),%rax
   14310:	48 8d 0d 39 c8 00 00 	lea    0xc839(%rip),%rcx        # 20b50 <g_109>
   14317:	48 39 c8             	cmp    %rcx,%rax
   1431a:	0f 94 c1             	sete   %cl
   1431d:	48 8b 85 c8 eb ff ff 	mov    -0x1438(%rbp),%rax
   14324:	0f b6 c9             	movzbl %cl,%ecx
   14327:	66 89 08             	mov    %cx,(%rax)
   1432a:	0f b7 00             	movzwl (%rax),%eax
   1432d:	0f bf c8             	movswl %ax,%ecx
   14330:	48 8b 85 60 ec ff ff 	mov    -0x13a0(%rbp),%rax
   14337:	89 08                	mov    %ecx,(%rax)
   14339:	48 8b 85 60 ec ff ff 	mov    -0x13a0(%rbp),%rax
   14340:	8b 08                	mov    (%rax),%ecx
   14342:	8b 85 e0 eb ff ff    	mov    -0x1420(%rbp),%eax
   14348:	09 c8                	or     %ecx,%eax
   1434a:	89 85 e0 eb ff ff    	mov    %eax,-0x1420(%rbp)
   14350:	8b 85 e0 eb ff ff    	mov    -0x1420(%rbp),%eax
   14356:	98                   	cwtl   
   14357:	89 d6                	mov    %edx,%esi
   14359:	89 c7                	mov    %eax,%edi
   1435b:	e8 53 50 ff ff       	callq  93b3 <safe_add_func_int16_t_s_s>
   14360:	f7 d0                	not    %eax
   14362:	66 c1 e8 0f          	shr    $0xf,%ax
   14366:	0f b6 c0             	movzbl %al,%eax
   14369:	89 85 fc ea ff ff    	mov    %eax,-0x1504(%rbp)
   1436f:	8b 85 fc ea ff ff    	mov    -0x1504(%rbp),%eax
   14375:	48 98                	cltq   
   14377:	48 23 85 b0 ed ff ff 	and    -0x1250(%rbp),%rax
   1437e:	48 89 c2             	mov    %rax,%rdx
   14381:	0f b7 05 d0 c7 00 00 	movzwl 0xc7d0(%rip),%eax        # 20b58 <g_148>
   14388:	0f b7 c0             	movzwl %ax,%eax
   1438b:	48 39 c2             	cmp    %rax,%rdx
   1438e:	0f 9f c0             	setg   %al
   14391:	0f b6 c0             	movzbl %al,%eax
   14394:	89 85 b4 ea ff ff    	mov    %eax,-0x154c(%rbp)
   1439a:	48 c7 85 e0 ed ff ff 	movq   $0x0,-0x1220(%rbp)
   143a1:	00 00 00 00 
   143a5:	48 8b 85 d0 ed ff ff 	mov    -0x1230(%rbp),%rax
   143ac:	48 8b 00             	mov    (%rax),%rax
   143af:	48 f7 d0             	not    %rax
   143b2:	48 89 c2             	mov    %rax,%rdx
   143b5:	48 8b 85 d0 ed ff ff 	mov    -0x1230(%rbp),%rax
   143bc:	48 89 10             	mov    %rdx,(%rax)
   143bf:	48 8b 85 d0 ed ff ff 	mov    -0x1230(%rbp),%rax
   143c6:	48 8b 00             	mov    (%rax),%rax
   143c9:	48 85 c0             	test   %rax,%rax
   143cc:	75 1c                	jne    143ea <func_66+0x5f31>
   143ce:	48 8b 85 e8 eb ff ff 	mov    -0x1418(%rbp),%rax
   143d5:	48 8b 00             	mov    (%rax),%rax
   143d8:	48 8b 10             	mov    (%rax),%rdx
   143db:	48 83 ea 01          	sub    $0x1,%rdx
   143df:	48 89 10             	mov    %rdx,(%rax)
   143e2:	48 8b 00             	mov    (%rax),%rax
   143e5:	48 85 c0             	test   %rax,%rax
   143e8:	74 07                	je     143f1 <func_66+0x5f38>
   143ea:	b8 01 00 00 00       	mov    $0x1,%eax
   143ef:	eb 05                	jmp    143f6 <func_66+0x5f3d>
   143f1:	b8 00 00 00 00       	mov    $0x0,%eax
   143f6:	4c 63 f0             	movslq %eax,%r14
   143f9:	8b 9d 0c ea ff ff    	mov    -0x15f4(%rbp),%ebx
   143ff:	48 83 bd b8 ed ff ff 	cmpq   $0x0,-0x1248(%rbp)
   14406:	00 
   14407:	0f 94 c0             	sete   %al
   1440a:	0f b6 c0             	movzbl %al,%eax
   1440d:	89 c7                	mov    %eax,%edi
   1440f:	e8 31 57 ff ff       	callq  9b45 <safe_unary_minus_func_uint8_t_u>
   14414:	48 8b 85 88 ed ff ff 	mov    -0x1278(%rbp),%rax
   1441b:	8b 00                	mov    (%rax),%eax
   1441d:	85 c0                	test   %eax,%eax
   1441f:	0f 84 c8 00 00 00    	je     144ed <func_66+0x6034>
   14425:	44 8b a5 08 ea ff ff 	mov    -0x15f8(%rbp),%r12d
   1442c:	48 8b 05 55 ad 00 00 	mov    0xad55(%rip),%rax        # 1f188 <g_267>
   14433:	8b 00                	mov    (%rax),%eax
   14435:	4c 63 f8             	movslq %eax,%r15
   14438:	44 8b ad 08 ea ff ff 	mov    -0x15f8(%rbp),%r13d
   1443f:	83 bd 08 ea ff ff 00 	cmpl   $0x0,-0x15f8(%rbp)
   14446:	75 0a                	jne    14452 <func_66+0x5f99>
   14448:	8b 85 e4 ee ff ff    	mov    -0x111c(%rbp),%eax
   1444e:	85 c0                	test   %eax,%eax
   14450:	75 07                	jne    14459 <func_66+0x5fa0>
   14452:	b8 01 00 00 00       	mov    $0x1,%eax
   14457:	eb 05                	jmp    1445e <func_66+0x5fa5>
   14459:	b8 00 00 00 00       	mov    $0x0,%eax
   1445e:	48 63 d0             	movslq %eax,%rdx
   14461:	48 8b 85 f0 ed ff ff 	mov    -0x1210(%rbp),%rax
   14468:	48 89 10             	mov    %rdx,(%rax)
   1446b:	48 8b 85 f0 ed ff ff 	mov    -0x1210(%rbp),%rax
   14472:	48 8b 00             	mov    (%rax),%rax
   14475:	be 06 00 00 00       	mov    $0x6,%esi
   1447a:	48 89 c7             	mov    %rax,%rdi
   1447d:	e8 fe 5b ff ff       	callq  a080 <safe_mod_func_uint64_t_u_u>
   14482:	8b 95 e4 ee ff ff    	mov    -0x111c(%rbp),%edx
   14488:	48 63 d2             	movslq %edx,%rdx
   1448b:	48 39 d0             	cmp    %rdx,%rax
   1448e:	0f b7 05 09 87 00 00 	movzwl 0x8709(%rip),%eax        # 1cb9e <g_981>
   14495:	48 8b 05 c4 ad 00 00 	mov    0xadc4(%rip),%rax        # 1f260 <g_447>
   1449c:	0f b6 00             	movzbl (%rax),%eax
   1449f:	0f be c0             	movsbl %al,%eax
   144a2:	44 89 ee             	mov    %r13d,%esi
   144a5:	89 c7                	mov    %eax,%edi
   144a7:	e8 c0 4e ff ff       	callq  936c <safe_rshift_func_int8_t_s_u>
   144ac:	0f be c0             	movsbl %al,%eax
   144af:	89 85 d8 eb ff ff    	mov    %eax,-0x1428(%rbp)
   144b5:	be 02 00 00 00       	mov    $0x2,%esi
   144ba:	48 bf b0 6b 38 d9 7b 	movabs $0xeda8267bd9386bb0,%rdi
   144c1:	26 a8 ed 
   144c4:	e8 eb 54 ff ff       	callq  99b4 <safe_mod_func_int64_t_s_s>
   144c9:	49 39 c7             	cmp    %rax,%r15
   144cc:	0f 9f c0             	setg   %al
   144cf:	0f b6 c0             	movzbl %al,%eax
   144d2:	44 89 e6             	mov    %r12d,%esi
   144d5:	89 c7                	mov    %eax,%edi
   144d7:	e8 2a 59 ff ff       	callq  9e06 <safe_lshift_func_uint16_t_u_u>
   144dc:	8b 85 e4 ee ff ff    	mov    -0x111c(%rbp),%eax
   144e2:	85 c0                	test   %eax,%eax
   144e4:	74 07                	je     144ed <func_66+0x6034>
   144e6:	b8 01 00 00 00       	mov    $0x1,%eax
   144eb:	eb 05                	jmp    144f2 <func_66+0x6039>
   144ed:	b8 00 00 00 00       	mov    $0x0,%eax
   144f2:	48 98                	cltq   
   144f4:	48 89 de             	mov    %rbx,%rsi
   144f7:	48 89 c7             	mov    %rax,%rdi
   144fa:	e8 2f 5b ff ff       	callq  a02e <safe_add_func_uint64_t_u_u>
   144ff:	49 39 c6             	cmp    %rax,%r14
   14502:	0f 92 c0             	setb   %al
   14505:	0f b6 d0             	movzbl %al,%edx
   14508:	48 8b 85 18 ec ff ff 	mov    -0x13e8(%rbp),%rax
   1450f:	8b 00                	mov    (%rax),%eax
   14511:	31 c2                	xor    %eax,%edx
   14513:	48 8b 85 18 ec ff ff 	mov    -0x13e8(%rbp),%rax
   1451a:	89 10                	mov    %edx,(%rax)
   1451c:	83 bd 0c ea ff ff 00 	cmpl   $0x0,-0x15f4(%rbp)
   14523:	75 25                	jne    1454a <func_66+0x6091>
   14525:	48 8b 05 94 7e 00 00 	mov    0x7e94(%rip),%rax        # 1c3c0 <g_57>
   1452c:	48 83 c0 01          	add    $0x1,%rax
   14530:	48 89 05 89 7e 00 00 	mov    %rax,0x7e89(%rip)        # 1c3c0 <g_57>
   14537:	48 8b 05 82 7e 00 00 	mov    0x7e82(%rip),%rax        # 1c3c0 <g_57>
   1453e:	48 83 f8 01          	cmp    $0x1,%rax
   14542:	0f 8e 6c fc ff ff    	jle    141b4 <func_66+0x5cfb>
   14548:	eb 01                	jmp    1454b <func_66+0x6092>
   1454a:	90                   	nop
   1454b:	83 bd 08 ea ff ff 00 	cmpl   $0x0,-0x15f8(%rbp)
   14552:	0f 85 a6 00 00 00    	jne    145fe <func_66+0x6145>
   14558:	c7 85 b4 ea ff ff 00 	movl   $0x0,-0x154c(%rbp)
   1455f:	00 00 00 
   14562:	eb 70                	jmp    145d4 <func_66+0x611b>
   14564:	c6 85 20 ea ff ff 07 	movb   $0x7,-0x15e0(%rbp)
   1456b:	80 ad 20 ea ff ff 01 	subb   $0x1,-0x15e0(%rbp)
   14572:	48 8b 85 38 ec ff ff 	mov    -0x13c8(%rbp),%rax
   14579:	48 8d 95 e0 eb ff ff 	lea    -0x1420(%rbp),%rdx
   14580:	48 89 10             	mov    %rdx,(%rax)
   14583:	66 c7 05 e4 85 00 00 	movw   $0x1,0x85e4(%rip)        # 1cb70 <g_134>
   1458a:	01 00 
   1458c:	90                   	nop
   1458d:	0f b7 05 dc 85 00 00 	movzwl 0x85dc(%rip),%eax        # 1cb70 <g_134>
   14594:	66 85 c0             	test   %ax,%ax
   14597:	78 0c                	js     145a5 <func_66+0x60ec>
   14599:	48 8d 05 a8 7d 00 00 	lea    0x7da8(%rip),%rax        # 1c348 <g_4+0x308>
   145a0:	e9 01 02 00 00       	jmpq   147a6 <func_66+0x62ed>
   145a5:	83 bd 08 ea ff ff 00 	cmpl   $0x0,-0x15f8(%rbp)
   145ac:	75 31                	jne    145df <func_66+0x6126>
   145ae:	66 c7 85 24 ea ff ff 	movw   $0x0,-0x15dc(%rbp)
   145b5:	00 00 
   145b7:	66 83 bd 24 ea ff ff 	cmpw   $0x1,-0x15dc(%rbp)
   145be:	01 
   145bf:	77 0c                	ja     145cd <func_66+0x6114>
   145c1:	48 8d 05 80 c5 00 00 	lea    0xc580(%rip),%rax        # 20b48 <g_41>
   145c8:	e9 d9 01 00 00       	jmpq   147a6 <func_66+0x62ed>
   145cd:	83 85 b4 ea ff ff 01 	addl   $0x1,-0x154c(%rbp)
   145d4:	83 bd b4 ea ff ff 03 	cmpl   $0x3,-0x154c(%rbp)
   145db:	7e 87                	jle    14564 <func_66+0x60ab>
   145dd:	eb 01                	jmp    145e0 <func_66+0x6127>
   145df:	90                   	nop
   145e0:	8b 05 a6 85 00 00    	mov    0x85a6(%rip),%eax        # 1cb8c <g_540>
   145e6:	83 c0 01             	add    $0x1,%eax
   145e9:	89 05 9d 85 00 00    	mov    %eax,0x859d(%rip)        # 1cb8c <g_540>
   145ef:	8b 05 97 85 00 00    	mov    0x8597(%rip),%eax        # 1cb8c <g_540>
   145f5:	83 f8 03             	cmp    $0x3,%eax
   145f8:	0f 86 0f ec ff ff    	jbe    1320d <func_66+0x4d54>
   145fe:	66 83 85 2e ea ff ff 	addw   $0x1,-0x15d2(%rbp)
   14605:	01 
   14606:	48 83 85 70 ec ff ff 	addq   $0x1,-0x1390(%rbp)
   1460d:	01 
   1460e:	c7 85 b0 ea ff ff 00 	movl   $0x0,-0x1550(%rbp)
   14615:	00 00 00 
   14618:	e9 96 00 00 00       	jmpq   146b3 <func_66+0x61fa>
   1461d:	8b 85 b4 ea ff ff    	mov    -0x154c(%rbp),%eax
   14623:	0f b7 c0             	movzwl %ax,%eax
   14626:	be 07 00 00 00       	mov    $0x7,%esi
   1462b:	89 c7                	mov    %eax,%edi
   1462d:	e8 48 58 ff ff       	callq  9e7a <safe_rshift_func_uint16_t_u_u>
   14632:	0f b6 c0             	movzbl %al,%eax
   14635:	89 c6                	mov    %eax,%esi
   14637:	bf f4 00 00 00       	mov    $0xf4,%edi
   1463c:	e8 9a 55 ff ff       	callq  9bdb <safe_div_func_uint8_t_u_u>
   14641:	84 c0                	test   %al,%al
   14643:	74 24                	je     14669 <func_66+0x61b0>
   14645:	0f b7 95 2e ea ff ff 	movzwl -0x15d2(%rbp),%edx
   1464c:	48 c7 05 89 ac 00 00 	movq   $0x0,0xac89(%rip)        # 1f2e0 <g_867+0x40>
   14653:	00 00 00 00 
   14657:	48 8b 05 82 ac 00 00 	mov    0xac82(%rip),%rax        # 1f2e0 <g_867+0x40>
   1465e:	48 85 c0             	test   %rax,%rax
   14661:	0f 94 c0             	sete   %al
   14664:	0f b6 c0             	movzbl %al,%eax
   14667:	39 c2                	cmp    %eax,%edx
   14669:	8b 95 94 fc ff ff    	mov    -0x36c(%rbp),%edx
   1466f:	48 8b 85 00 ef ff ff 	mov    -0x1100(%rbp),%rax
   14676:	48 89 85 78 ec ff ff 	mov    %rax,-0x1388(%rbp)
   1467d:	48 8b 05 bc ad 00 00 	mov    0xadbc(%rip),%rax        # 1f440 <g_1006>
   14684:	48 39 85 78 ec ff ff 	cmp    %rax,-0x1388(%rbp)
   1468b:	0f 95 c0             	setne  %al
   1468e:	0f b6 c0             	movzbl %al,%eax
   14691:	39 c2                	cmp    %eax,%edx
   14693:	0f 97 c0             	seta   %al
   14696:	0f b6 c0             	movzbl %al,%eax
   14699:	39 85 0c ea ff ff    	cmp    %eax,-0x15f4(%rbp)
   1469f:	48 8b 85 18 ec ff ff 	mov    -0x13e8(%rbp),%rax
   146a6:	c7 00 00 00 00 00    	movl   $0x0,(%rax)
   146ac:	83 85 b0 ea ff ff 01 	addl   $0x1,-0x1550(%rbp)
   146b3:	83 bd b0 ea ff ff 05 	cmpl   $0x5,-0x1550(%rbp)
   146ba:	0f 85 5d ff ff ff    	jne    1461d <func_66+0x6164>
   146c0:	48 8b 05 c1 ab 00 00 	mov    0xabc1(%rip),%rax        # 1f288 <g_648>
   146c7:	8b 10                	mov    (%rax),%edx
   146c9:	83 c2 01             	add    $0x1,%edx
   146cc:	89 10                	mov    %edx,(%rax)
   146ce:	48 8b 05 c3 aa 00 00 	mov    0xaac3(%rip),%rax        # 1f198 <g_350>
   146d5:	48 8b 00             	mov    (%rax),%rax
   146d8:	be 01 00 00 00       	mov    $0x1,%esi
   146dd:	48 89 c7             	mov    %rax,%rdi
   146e0:	e8 49 59 ff ff       	callq  a02e <safe_add_func_uint64_t_u_u>
   146e5:	89 c1                	mov    %eax,%ecx
   146e7:	48 8b 85 60 ec ff ff 	mov    -0x13a0(%rbp),%rax
   146ee:	8b 10                	mov    (%rax),%edx
   146f0:	48 83 bd 98 ed ff ff 	cmpq   $0x0,-0x1268(%rbp)
   146f7:	00 
   146f8:	0f 94 c0             	sete   %al
   146fb:	0f b6 c0             	movzbl %al,%eax
   146fe:	09 d0                	or     %edx,%eax
   14700:	89 ce                	mov    %ecx,%esi
   14702:	89 c7                	mov    %eax,%edi
   14704:	e8 c3 4f ff ff       	callq  96cc <safe_mod_func_int32_t_s_s>
   14709:	85 c0                	test   %eax,%eax
   1470b:	0f 8f 85 00 00 00    	jg     14796 <func_66+0x62dd>
   14711:	c7 85 0c ea ff ff 08 	movl   $0x8,-0x15f4(%rbp)
   14718:	00 00 00 
   1471b:	eb 54                	jmp    14771 <func_66+0x62b8>
   1471d:	48 c7 85 90 eb ff ff 	movq   $0x0,-0x1470(%rbp)
   14724:	00 00 00 00 
   14728:	eb 33                	jmp    1475d <func_66+0x62a4>
   1472a:	48 8b 95 b8 eb ff ff 	mov    -0x1448(%rbp),%rdx
   14731:	48 8b 85 b8 eb ff ff 	mov    -0x1448(%rbp),%rax
   14738:	48 8b 12             	mov    (%rdx),%rdx
   1473b:	48 89 10             	mov    %rdx,(%rax)
   1473e:	48 8b 85 90 eb ff ff 	mov    -0x1470(%rbp),%rax
   14745:	98                   	cwtl   
   14746:	be 01 00 00 00       	mov    $0x1,%esi
   1474b:	89 c7                	mov    %eax,%edi
   1474d:	e8 61 4c ff ff       	callq  93b3 <safe_add_func_int16_t_s_s>
   14752:	48 0f bf c0          	movswq %ax,%rax
   14756:	48 89 85 90 eb ff ff 	mov    %rax,-0x1470(%rbp)
   1475d:	48 8b 85 90 eb ff ff 	mov    -0x1470(%rbp),%rax
   14764:	48 83 f8 17          	cmp    $0x17,%rax
   14768:	76 c0                	jbe    1472a <func_66+0x6271>
   1476a:	83 85 0c ea ff ff 01 	addl   $0x1,-0x15f4(%rbp)
   14771:	83 bd 0c ea ff ff 34 	cmpl   $0x34,-0x15f4(%rbp)
   14778:	75 a3                	jne    1471d <func_66+0x6264>
   1477a:	48 8b 85 60 ec ff ff 	mov    -0x13a0(%rbp),%rax
   14781:	8b 00                	mov    (%rax),%eax
   14783:	33 85 0c ea ff ff    	xor    -0x15f4(%rbp),%eax
   14789:	89 c2                	mov    %eax,%edx
   1478b:	48 8b 85 60 ec ff ff 	mov    -0x13a0(%rbp),%rax
   14792:	89 10                	mov    %edx,(%rax)
   14794:	eb 09                	jmp    1479f <func_66+0x62e6>
   14796:	48 8d 05 db 79 00 00 	lea    0x79db(%rip),%rax        # 1c178 <g_4+0x138>
   1479d:	eb 07                	jmp    147a6 <func_66+0x62ed>
   1479f:	48 8d 05 a2 c3 00 00 	lea    0xc3a2(%rip),%rax        # 20b48 <g_41>
   147a6:	48 8b 5d c8          	mov    -0x38(%rbp),%rbx
   147aa:	64 48 33 1c 25 28 00 	xor    %fs:0x28,%rbx
   147b1:	00 00 
   147b3:	74 05                	je     147ba <func_66+0x6301>
   147b5:	e8 b6 48 ff ff       	callq  9070 <__stack_chk_fail@plt>
   147ba:	48 81 c4 d8 15 00 00 	add    $0x15d8,%rsp
   147c1:	5b                   	pop    %rbx
   147c2:	41 5c                	pop    %r12
   147c4:	41 5d                	pop    %r13
   147c6:	41 5e                	pop    %r14
   147c8:	41 5f                	pop    %r15
   147ca:	5d                   	pop    %rbp
   147cb:	c3                   	retq   

00000000000147cc <func_91>:
   147cc:	f3 0f 1e fa          	endbr64 
   147d0:	55                   	push   %rbp
   147d1:	48 89 e5             	mov    %rsp,%rbp
   147d4:	41 55                	push   %r13
   147d6:	41 54                	push   %r12
   147d8:	53                   	push   %rbx
   147d9:	48 81 ec 48 03 00 00 	sub    $0x348,%rsp
   147e0:	89 f8                	mov    %edi,%eax
   147e2:	89 b5 b8 fc ff ff    	mov    %esi,-0x348(%rbp)
   147e8:	89 95 b4 fc ff ff    	mov    %edx,-0x34c(%rbp)
   147ee:	48 89 8d a8 fc ff ff 	mov    %rcx,-0x358(%rbp)
   147f5:	44 89 c2             	mov    %r8d,%edx
   147f8:	66 89 85 bc fc ff ff 	mov    %ax,-0x344(%rbp)
   147ff:	89 d0                	mov    %edx,%eax
   14801:	88 85 b0 fc ff ff    	mov    %al,-0x350(%rbp)
   14807:	64 48 8b 04 25 28 00 	mov    %fs:0x28,%rax
   1480e:	00 00 
   14810:	48 89 45 d8          	mov    %rax,-0x28(%rbp)
   14814:	31 c0                	xor    %eax,%eax
   14816:	48 8d 05 2b c3 00 00 	lea    0xc32b(%rip),%rax        # 20b48 <g_41>
   1481d:	48 89 85 f0 fc ff ff 	mov    %rax,-0x310(%rbp)
   14824:	48 8d 05 d5 7a 00 00 	lea    0x7ad5(%rip),%rax        # 1c300 <g_4+0x2c0>
   1482b:	48 89 85 f8 fc ff ff 	mov    %rax,-0x308(%rbp)
   14832:	48 8d 05 c7 7a 00 00 	lea    0x7ac7(%rip),%rax        # 1c300 <g_4+0x2c0>
   14839:	48 89 85 00 fd ff ff 	mov    %rax,-0x300(%rbp)
   14840:	48 8d 05 01 c3 00 00 	lea    0xc301(%rip),%rax        # 20b48 <g_41>
   14847:	48 89 85 08 fd ff ff 	mov    %rax,-0x2f8(%rbp)
   1484e:	48 8d 05 ab 7a 00 00 	lea    0x7aab(%rip),%rax        # 1c300 <g_4+0x2c0>
   14855:	48 89 85 10 fd ff ff 	mov    %rax,-0x2f0(%rbp)
   1485c:	48 8d 05 91 79 00 00 	lea    0x7991(%rip),%rax        # 1c1f4 <g_4+0x1b4>
   14863:	48 89 85 18 fd ff ff 	mov    %rax,-0x2e8(%rbp)
   1486a:	48 8d 05 8f 7a 00 00 	lea    0x7a8f(%rip),%rax        # 1c300 <g_4+0x2c0>
   14871:	48 89 85 20 fd ff ff 	mov    %rax,-0x2e0(%rbp)
   14878:	48 8d 05 75 79 00 00 	lea    0x7975(%rip),%rax        # 1c1f4 <g_4+0x1b4>
   1487f:	48 89 85 28 fd ff ff 	mov    %rax,-0x2d8(%rbp)
   14886:	48 8d 05 67 79 00 00 	lea    0x7967(%rip),%rax        # 1c1f4 <g_4+0x1b4>
   1488d:	48 89 85 30 fd ff ff 	mov    %rax,-0x2d0(%rbp)
   14894:	48 8d 05 65 7a 00 00 	lea    0x7a65(%rip),%rax        # 1c300 <g_4+0x2c0>
   1489b:	48 89 85 38 fd ff ff 	mov    %rax,-0x2c8(%rbp)
   148a2:	48 8d 05 4b 79 00 00 	lea    0x794b(%rip),%rax        # 1c1f4 <g_4+0x1b4>
   148a9:	48 89 85 40 fd ff ff 	mov    %rax,-0x2c0(%rbp)
   148b0:	48 8d 05 3d 79 00 00 	lea    0x793d(%rip),%rax        # 1c1f4 <g_4+0x1b4>
   148b7:	48 89 85 48 fd ff ff 	mov    %rax,-0x2b8(%rbp)
   148be:	48 8d 05 3b 7a 00 00 	lea    0x7a3b(%rip),%rax        # 1c300 <g_4+0x2c0>
   148c5:	48 89 85 50 fd ff ff 	mov    %rax,-0x2b0(%rbp)
   148cc:	48 8d 05 21 79 00 00 	lea    0x7921(%rip),%rax        # 1c1f4 <g_4+0x1b4>
   148d3:	48 89 85 58 fd ff ff 	mov    %rax,-0x2a8(%rbp)
   148da:	48 8d 05 13 79 00 00 	lea    0x7913(%rip),%rax        # 1c1f4 <g_4+0x1b4>
   148e1:	48 89 85 60 fd ff ff 	mov    %rax,-0x2a0(%rbp)
   148e8:	48 8d 05 11 7a 00 00 	lea    0x7a11(%rip),%rax        # 1c300 <g_4+0x2c0>
   148ef:	48 89 85 68 fd ff ff 	mov    %rax,-0x298(%rbp)
   148f6:	48 8d 05 f7 78 00 00 	lea    0x78f7(%rip),%rax        # 1c1f4 <g_4+0x1b4>
   148fd:	48 89 85 70 fd ff ff 	mov    %rax,-0x290(%rbp)
   14904:	48 8d 05 e9 78 00 00 	lea    0x78e9(%rip),%rax        # 1c1f4 <g_4+0x1b4>
   1490b:	48 89 85 78 fd ff ff 	mov    %rax,-0x288(%rbp)
   14912:	48 8d 85 f0 fc ff ff 	lea    -0x310(%rbp),%rax
   14919:	48 83 c0 18          	add    $0x18,%rax
   1491d:	48 89 85 d0 fc ff ff 	mov    %rax,-0x330(%rbp)
   14924:	66 c7 85 c2 fc ff ff 	movw   $0x8cd,-0x33e(%rbp)
   1492b:	cd 08 
   1492d:	48 8b 85 d0 fc ff ff 	mov    -0x330(%rbp),%rax
   14934:	48 8d 15 0d 7a 00 00 	lea    0x7a0d(%rip),%rdx        # 1c348 <g_4+0x308>
   1493b:	48 89 10             	mov    %rdx,(%rax)
   1493e:	48 c7 05 17 82 00 00 	movq   $0x0,0x8217(%rip)        # 1cb60 <g_79>
   14945:	00 00 00 00 
   14949:	e9 03 03 00 00       	jmpq   14c51 <func_91+0x485>
   1494e:	48 8d 85 40 fe ff ff 	lea    -0x1c0(%rbp),%rax
   14955:	48 8d 15 64 a5 00 00 	lea    0xa564(%rip),%rdx        # 1eec0 <g_3397+0x18bf>
   1495c:	b9 32 00 00 00       	mov    $0x32,%ecx
   14961:	48 89 c7             	mov    %rax,%rdi
   14964:	48 89 d6             	mov    %rdx,%rsi
   14967:	f3 48 a5             	rep movsq %ds:(%rsi),%es:(%rdi)
   1496a:	48 8d 05 e7 26 00 00 	lea    0x26e7(%rip),%rax        # 17058 <g_144>
   14971:	48 89 85 c8 fc ff ff 	mov    %rax,-0x338(%rbp)
   14978:	48 8d 85 c8 fc ff ff 	lea    -0x338(%rbp),%rax
   1497f:	48 89 85 d8 fc ff ff 	mov    %rax,-0x328(%rbp)
   14986:	48 8d 05 e5 81 00 00 	lea    0x81e5(%rip),%rax        # 1cb72 <g_146>
   1498d:	48 89 85 e0 fc ff ff 	mov    %rax,-0x320(%rbp)
   14994:	48 8d 05 bd c1 00 00 	lea    0xc1bd(%rip),%rax        # 20b58 <g_148>
   1499b:	48 89 85 80 fd ff ff 	mov    %rax,-0x280(%rbp)
   149a2:	48 8d 05 af c1 00 00 	lea    0xc1af(%rip),%rax        # 20b58 <g_148>
   149a9:	48 89 85 88 fd ff ff 	mov    %rax,-0x278(%rbp)
   149b0:	48 8d 05 a1 c1 00 00 	lea    0xc1a1(%rip),%rax        # 20b58 <g_148>
   149b7:	48 89 85 90 fd ff ff 	mov    %rax,-0x270(%rbp)
   149be:	48 8d 05 93 c1 00 00 	lea    0xc193(%rip),%rax        # 20b58 <g_148>
   149c5:	48 89 85 98 fd ff ff 	mov    %rax,-0x268(%rbp)
   149cc:	48 8d 05 85 c1 00 00 	lea    0xc185(%rip),%rax        # 20b58 <g_148>
   149d3:	48 89 85 a0 fd ff ff 	mov    %rax,-0x260(%rbp)
   149da:	48 8d 05 77 c1 00 00 	lea    0xc177(%rip),%rax        # 20b58 <g_148>
   149e1:	48 89 85 a8 fd ff ff 	mov    %rax,-0x258(%rbp)
   149e8:	48 8d 05 69 c1 00 00 	lea    0xc169(%rip),%rax        # 20b58 <g_148>
   149ef:	48 89 85 b0 fd ff ff 	mov    %rax,-0x250(%rbp)
   149f6:	48 8d 05 5b c1 00 00 	lea    0xc15b(%rip),%rax        # 20b58 <g_148>
   149fd:	48 89 85 b8 fd ff ff 	mov    %rax,-0x248(%rbp)
   14a04:	48 8d 05 4d c1 00 00 	lea    0xc14d(%rip),%rax        # 20b58 <g_148>
   14a0b:	48 89 85 c0 fd ff ff 	mov    %rax,-0x240(%rbp)
   14a12:	48 8d 05 3f c1 00 00 	lea    0xc13f(%rip),%rax        # 20b58 <g_148>
   14a19:	48 89 85 c8 fd ff ff 	mov    %rax,-0x238(%rbp)
   14a20:	48 8d 05 31 c1 00 00 	lea    0xc131(%rip),%rax        # 20b58 <g_148>
   14a27:	48 89 85 d0 fd ff ff 	mov    %rax,-0x230(%rbp)
   14a2e:	48 8d 05 23 c1 00 00 	lea    0xc123(%rip),%rax        # 20b58 <g_148>
   14a35:	48 89 85 d8 fd ff ff 	mov    %rax,-0x228(%rbp)
   14a3c:	48 8d 05 15 c1 00 00 	lea    0xc115(%rip),%rax        # 20b58 <g_148>
   14a43:	48 89 85 e0 fd ff ff 	mov    %rax,-0x220(%rbp)
   14a4a:	48 8d 05 07 c1 00 00 	lea    0xc107(%rip),%rax        # 20b58 <g_148>
   14a51:	48 89 85 e8 fd ff ff 	mov    %rax,-0x218(%rbp)
   14a58:	48 8d 05 f9 c0 00 00 	lea    0xc0f9(%rip),%rax        # 20b58 <g_148>
   14a5f:	48 89 85 f0 fd ff ff 	mov    %rax,-0x210(%rbp)
   14a66:	48 8d 05 eb c0 00 00 	lea    0xc0eb(%rip),%rax        # 20b58 <g_148>
   14a6d:	48 89 85 f8 fd ff ff 	mov    %rax,-0x208(%rbp)
   14a74:	48 8d 05 dd c0 00 00 	lea    0xc0dd(%rip),%rax        # 20b58 <g_148>
   14a7b:	48 89 85 00 fe ff ff 	mov    %rax,-0x200(%rbp)
   14a82:	48 8d 05 cf c0 00 00 	lea    0xc0cf(%rip),%rax        # 20b58 <g_148>
   14a89:	48 89 85 08 fe ff ff 	mov    %rax,-0x1f8(%rbp)
   14a90:	48 8d 05 c1 c0 00 00 	lea    0xc0c1(%rip),%rax        # 20b58 <g_148>
   14a97:	48 89 85 10 fe ff ff 	mov    %rax,-0x1f0(%rbp)
   14a9e:	48 8d 05 b3 c0 00 00 	lea    0xc0b3(%rip),%rax        # 20b58 <g_148>
   14aa5:	48 89 85 18 fe ff ff 	mov    %rax,-0x1e8(%rbp)
   14aac:	48 8d 05 a5 c0 00 00 	lea    0xc0a5(%rip),%rax        # 20b58 <g_148>
   14ab3:	48 89 85 20 fe ff ff 	mov    %rax,-0x1e0(%rbp)
   14aba:	48 8d 05 97 c0 00 00 	lea    0xc097(%rip),%rax        # 20b58 <g_148>
   14ac1:	48 89 85 28 fe ff ff 	mov    %rax,-0x1d8(%rbp)
   14ac8:	48 8d 05 89 c0 00 00 	lea    0xc089(%rip),%rax        # 20b58 <g_148>
   14acf:	48 89 85 30 fe ff ff 	mov    %rax,-0x1d0(%rbp)
   14ad6:	48 8d 05 7b c0 00 00 	lea    0xc07b(%rip),%rax        # 20b58 <g_148>
   14add:	48 89 85 38 fe ff ff 	mov    %rax,-0x1c8(%rbp)
   14ae4:	48 c7 85 e8 fc ff ff 	movq   $0x6,-0x318(%rbp)
   14aeb:	06 00 00 00 
   14aef:	c7 85 c4 fc ff ff a8 	movl   $0xc65100a8,-0x33c(%rbp)
   14af6:	00 51 c6 
   14af9:	48 8b 85 e8 fc ff ff 	mov    -0x318(%rbp),%rax
   14b00:	0f bf d8             	movswl %ax,%ebx
   14b03:	66 c7 85 bc fc ff ff 	movw   $0x1,-0x344(%rbp)
   14b0a:	01 00 
   14b0c:	8b 85 b4 fc ff ff    	mov    -0x34c(%rbp),%eax
   14b12:	83 f0 01             	xor    $0x1,%eax
   14b15:	41 89 c5             	mov    %eax,%r13d
   14b18:	be 00 00 00 00       	mov    $0x0,%esi
   14b1d:	bf 6d 09 00 00       	mov    $0x96d,%edi
   14b22:	e8 3c 4a ff ff       	callq  9563 <safe_rshift_func_int16_t_s_u>
   14b27:	41 89 c4             	mov    %eax,%r12d
   14b2a:	48 8b 85 d8 fc ff ff 	mov    -0x328(%rbp),%rax
   14b31:	48 c7 00 00 00 00 00 	movq   $0x0,(%rax)
   14b38:	48 8b 05 21 80 00 00 	mov    0x8021(%rip),%rax        # 1cb60 <g_79>
   14b3f:	98                   	cwtl   
   14b40:	be 00 00 00 00       	mov    $0x0,%esi
   14b45:	89 c7                	mov    %eax,%edi
   14b47:	e8 a9 48 ff ff       	callq  93f5 <safe_mul_func_int16_t_s_s>
   14b4c:	66 41 39 c4          	cmp    %ax,%r12w
   14b50:	0f 9c c0             	setl   %al
   14b53:	0f b6 c0             	movzbl %al,%eax
   14b56:	be 04 00 00 00       	mov    $0x4,%esi
   14b5b:	89 c7                	mov    %eax,%edi
   14b5d:	e8 ea 50 ff ff       	callq  9c4c <safe_lshift_func_uint8_t_u_u>
   14b62:	0f b6 d0             	movzbl %al,%edx
   14b65:	48 8b 85 e0 fc ff ff 	mov    -0x320(%rbp),%rax
   14b6c:	66 89 10             	mov    %dx,(%rax)
   14b6f:	48 8b 85 e0 fc ff ff 	mov    -0x320(%rbp),%rax
   14b76:	0f b7 00             	movzwl (%rax),%eax
   14b79:	0f b7 c0             	movzwl %ax,%eax
   14b7c:	83 e0 01             	and    $0x1,%eax
   14b7f:	41 39 c5             	cmp    %eax,%r13d
   14b82:	0f 97 c0             	seta   %al
   14b85:	0f b6 c8             	movzbl %al,%ecx
   14b88:	0f b7 05 c9 bf 00 00 	movzwl 0xbfc9(%rip),%eax        # 20b58 <g_148>
   14b8f:	8d 50 01             	lea    0x1(%rax),%edx
   14b92:	66 89 15 bf bf 00 00 	mov    %dx,0xbfbf(%rip)        # 20b58 <g_148>
   14b99:	0f b7 c0             	movzwl %ax,%eax
   14b9c:	39 c1                	cmp    %eax,%ecx
   14b9e:	0f 95 c0             	setne  %al
   14ba1:	0f b6 d0             	movzbl %al,%edx
   14ba4:	0f be 85 b0 fc ff ff 	movsbl -0x350(%rbp),%eax
   14bab:	89 05 97 bf 00 00    	mov    %eax,0xbf97(%rip)        # 20b48 <g_41>
   14bb1:	8b 05 91 bf 00 00    	mov    0xbf91(%rip),%eax        # 20b48 <g_41>
   14bb7:	85 c0                	test   %eax,%eax
   14bb9:	75 0a                	jne    14bc5 <func_91+0x3f9>
   14bbb:	66 83 bd c2 fc ff ff 	cmpw   $0x0,-0x33e(%rbp)
   14bc2:	00 
   14bc3:	74 07                	je     14bcc <func_91+0x400>
   14bc5:	b8 01 00 00 00       	mov    $0x1,%eax
   14bca:	eb 05                	jmp    14bd1 <func_91+0x405>
   14bcc:	b8 00 00 00 00       	mov    $0x0,%eax
   14bd1:	39 d0                	cmp    %edx,%eax
   14bd3:	0f 9d c0             	setge  %al
   14bd6:	0f b6 d0             	movzbl %al,%edx
   14bd9:	8b 05 d9 77 00 00    	mov    0x77d9(%rip),%eax        # 1c3b8 <g_38+0x8>
   14bdf:	39 c2                	cmp    %eax,%edx
   14be1:	0f 9e c0             	setle  %al
   14be4:	0f b6 c0             	movzbl %al,%eax
   14be7:	89 de                	mov    %ebx,%esi
   14be9:	89 c7                	mov    %eax,%edi
   14beb:	e8 05 48 ff ff       	callq  93f5 <safe_mul_func_int16_t_s_s>
   14bf0:	98                   	cwtl   
   14bf1:	be 02 00 00 00       	mov    $0x2,%esi
   14bf6:	89 c7                	mov    %eax,%edi
   14bf8:	e8 e4 48 ff ff       	callq  94e1 <safe_lshift_func_int16_t_s_u>
   14bfd:	48 0f bf c0          	movswq %ax,%rax
   14c01:	48 89 c7             	mov    %rax,%rdi
   14c04:	e8 10 54 ff ff       	callq  a019 <safe_unary_minus_func_uint64_t_u>
   14c09:	48 39 85 e8 fc ff ff 	cmp    %rax,-0x318(%rbp)
   14c10:	0f 93 c0             	setae  %al
   14c13:	0f b6 c0             	movzbl %al,%eax
   14c16:	be 17 01 ca 56       	mov    $0x56ca0117,%esi
   14c1b:	89 c7                	mov    %eax,%edi
   14c1d:	e8 96 52 ff ff       	callq  9eb8 <safe_add_func_uint32_t_u_u>
   14c22:	8b 95 c4 fc ff ff    	mov    -0x33c(%rbp),%edx
   14c28:	09 d0                	or     %edx,%eax
   14c2a:	89 85 c4 fc ff ff    	mov    %eax,-0x33c(%rbp)
   14c30:	66 83 bd c2 fc ff ff 	cmpw   $0x0,-0x33e(%rbp)
   14c37:	00 
   14c38:	74 05                	je     14c3f <func_91+0x473>
   14c3a:	e9 ff fc ff ff       	jmpq   1493e <func_91+0x172>
   14c3f:	48 8b 05 1a 7f 00 00 	mov    0x7f1a(%rip),%rax        # 1cb60 <g_79>
   14c46:	48 83 c0 01          	add    $0x1,%rax
   14c4a:	48 89 05 0f 7f 00 00 	mov    %rax,0x7f0f(%rip)        # 1cb60 <g_79>
   14c51:	48 8b 05 08 7f 00 00 	mov    0x7f08(%rip),%rax        # 1cb60 <g_79>
   14c58:	48 83 f8 22          	cmp    $0x22,%rax
   14c5c:	0f 87 ec fc ff ff    	ja     1494e <func_91+0x182>
   14c62:	48 8b 85 d0 fc ff ff 	mov    -0x330(%rbp),%rax
   14c69:	48 8b 10             	mov    (%rax),%rdx
   14c6c:	48 8b 85 d0 fc ff ff 	mov    -0x330(%rbp),%rax
   14c73:	48 89 10             	mov    %rdx,(%rax)
   14c76:	0f b7 05 db be 00 00 	movzwl 0xbedb(%rip),%eax        # 20b58 <g_148>
   14c7d:	0f b7 c0             	movzwl %ax,%eax
   14c80:	48 8b 5d d8          	mov    -0x28(%rbp),%rbx
   14c84:	64 48 33 1c 25 28 00 	xor    %fs:0x28,%rbx
   14c8b:	00 00 
   14c8d:	74 05                	je     14c94 <func_91+0x4c8>
   14c8f:	e8 dc 43 ff ff       	callq  9070 <__stack_chk_fail@plt>
   14c94:	48 81 c4 48 03 00 00 	add    $0x348,%rsp
   14c9b:	5b                   	pop    %rbx
   14c9c:	41 5c                	pop    %r12
   14c9e:	41 5d                	pop    %r13
   14ca0:	5d                   	pop    %rbp
   14ca1:	c3                   	retq   

0000000000014ca2 <func_99>:
   14ca2:	f3 0f 1e fa          	endbr64 
   14ca6:	55                   	push   %rbp
   14ca7:	48 89 e5             	mov    %rsp,%rbp
   14caa:	48 81 ec 90 01 00 00 	sub    $0x190,%rsp
   14cb1:	48 89 bd 78 fe ff ff 	mov    %rdi,-0x188(%rbp)
   14cb8:	64 48 8b 04 25 28 00 	mov    %fs:0x28,%rax
   14cbf:	00 00 
   14cc1:	48 89 45 f8          	mov    %rax,-0x8(%rbp)
   14cc5:	31 c0                	xor    %eax,%eax
   14cc7:	48 8d 05 f2 76 00 00 	lea    0x76f2(%rip),%rax        # 1c3c0 <g_57>
   14cce:	48 89 85 90 fe ff ff 	mov    %rax,-0x170(%rbp)
   14cd5:	48 8d 05 84 7e 00 00 	lea    0x7e84(%rip),%rax        # 1cb60 <g_79>
   14cdc:	48 89 85 98 fe ff ff 	mov    %rax,-0x168(%rbp)
   14ce3:	48 c7 85 a0 fe ff ff 	movq   $0x0,-0x160(%rbp)
   14cea:	00 00 00 00 
   14cee:	48 8d 05 73 7e 00 00 	lea    0x7e73(%rip),%rax        # 1cb68 <g_113>
   14cf5:	48 89 85 a8 fe ff ff 	mov    %rax,-0x158(%rbp)
   14cfc:	48 c7 85 80 fe ff ff 	movq   $0x0,-0x180(%rbp)
   14d03:	00 00 00 00 
   14d07:	48 8d 85 80 fe ff ff 	lea    -0x180(%rbp),%rax
   14d0e:	48 89 85 b0 fe ff ff 	mov    %rax,-0x150(%rbp)
   14d15:	48 8d 05 d0 74 00 00 	lea    0x74d0(%rip),%rax        # 1c1ec <g_4+0x1ac>
   14d1c:	48 89 85 88 fe ff ff 	mov    %rax,-0x178(%rbp)
   14d23:	48 8d 85 88 fe ff ff 	lea    -0x178(%rbp),%rax
   14d2a:	48 89 85 b8 fe ff ff 	mov    %rax,-0x148(%rbp)
   14d31:	48 c7 85 c0 fe ff ff 	movq   $0x0,-0x140(%rbp)
   14d38:	00 00 00 00 
   14d3c:	48 8d 85 d0 fe ff ff 	lea    -0x130(%rbp),%rax
   14d43:	48 8d 15 16 a3 00 00 	lea    0xa316(%rip),%rdx        # 1f060 <g_3397+0x1a5f>
   14d4a:	b9 24 00 00 00       	mov    $0x24,%ecx
   14d4f:	48 89 c7             	mov    %rax,%rdi
   14d52:	48 89 d6             	mov    %rdx,%rsi
   14d55:	f3 48 a5             	rep movsq %ds:(%rsi),%es:(%rdi)
   14d58:	48 8d 85 d0 fe ff ff 	lea    -0x130(%rbp),%rax
   14d5f:	48 05 00 01 00 00    	add    $0x100,%rax
   14d65:	48 89 85 c8 fe ff ff 	mov    %rax,-0x138(%rbp)
   14d6c:	48 8b 05 cd 7a 00 00 	mov    0x7acd(%rip),%rax        # 1c840 <g_77+0x460>
   14d73:	0f be c0             	movsbl %al,%eax
   14d76:	be 03 00 00 00       	mov    $0x3,%esi
   14d7b:	89 c7                	mov    %eax,%edi
   14d7d:	e8 6c 45 ff ff       	callq  92ee <safe_lshift_func_int8_t_s_u>
   14d82:	48 8d 05 e7 7a 00 00 	lea    0x7ae7(%rip),%rax        # 1c870 <g_77+0x490>
   14d89:	48 89 05 c0 bd 00 00 	mov    %rax,0xbdc0(%rip)        # 20b50 <g_109>
   14d90:	48 8d 05 d9 7a 00 00 	lea    0x7ad9(%rip),%rax        # 1c870 <g_77+0x490>
   14d97:	48 39 85 78 fe ff ff 	cmp    %rax,-0x188(%rbp)
   14d9e:	0f 95 c0             	setne  %al
   14da1:	0f b6 c8             	movzbl %al,%ecx
   14da4:	48 8d 05 65 7a 00 00 	lea    0x7a65(%rip),%rax        # 1c810 <g_77+0x430>
   14dab:	48 39 85 90 fe ff ff 	cmp    %rax,-0x170(%rbp)
   14db2:	48 8b 85 98 fe ff ff 	mov    -0x168(%rbp),%rax
   14db9:	48 8b 10             	mov    (%rax),%rdx
   14dbc:	48 63 c1             	movslq %ecx,%rax
   14dbf:	48 09 c2             	or     %rax,%rdx
   14dc2:	48 8b 85 98 fe ff ff 	mov    -0x168(%rbp),%rax
   14dc9:	48 89 10             	mov    %rdx,(%rax)
   14dcc:	48 8b 85 a8 fe ff ff 	mov    -0x158(%rbp),%rax
   14dd3:	48 c7 00 01 00 00 00 	movq   $0x1,(%rax)
   14dda:	48 8b 95 80 fe ff ff 	mov    -0x180(%rbp),%rdx
   14de1:	48 8b 85 b0 fe ff ff 	mov    -0x150(%rbp),%rax
   14de8:	48 89 10             	mov    %rdx,(%rax)
   14deb:	48 8b 85 b0 fe ff ff 	mov    -0x150(%rbp),%rax
   14df2:	48 8b 10             	mov    (%rax),%rdx
   14df5:	48 8b 85 b8 fe ff ff 	mov    -0x148(%rbp),%rax
   14dfc:	48 89 10             	mov    %rdx,(%rax)
   14dff:	48 8b 85 b8 fe ff ff 	mov    -0x148(%rbp),%rax
   14e06:	48 8b 10             	mov    (%rax),%rdx
   14e09:	48 8b 85 c8 fe ff ff 	mov    -0x138(%rbp),%rax
   14e10:	48 8d 0d 11 73 00 00 	lea    0x7311(%rip),%rcx        # 1c128 <g_4+0xe8>
   14e17:	48 89 08             	mov    %rcx,(%rax)
   14e1a:	48 8b 85 c8 fe ff ff 	mov    -0x138(%rbp),%rax
   14e21:	48 8b 00             	mov    (%rax),%rax
   14e24:	48 39 c2             	cmp    %rax,%rdx
   14e27:	48 8b 05 ea 76 00 00 	mov    0x76ea(%rip),%rax        # 1c518 <g_77+0x138>
   14e2e:	89 c2                	mov    %eax,%edx
   14e30:	8b 05 12 bd 00 00    	mov    0xbd12(%rip),%eax        # 20b48 <g_41>
   14e36:	21 d0                	and    %edx,%eax
   14e38:	89 05 0a bd 00 00    	mov    %eax,0xbd0a(%rip)        # 20b48 <g_41>
   14e3e:	48 8b 05 0b bd 00 00 	mov    0xbd0b(%rip),%rax        # 20b50 <g_109>
   14e45:	48 8b 00             	mov    (%rax),%rax
   14e48:	48 8b 75 f8          	mov    -0x8(%rbp),%rsi
   14e4c:	64 48 33 34 25 28 00 	xor    %fs:0x28,%rsi
   14e53:	00 00 
   14e55:	74 05                	je     14e5c <func_99+0x1ba>
   14e57:	e8 14 42 ff ff       	callq  9070 <__stack_chk_fail@plt>
   14e5c:	c9                   	leaveq 
   14e5d:	c3                   	retq   

0000000000014e5e <main>:
   14e5e:	f3 0f 1e fa          	endbr64 
   14e62:	55                   	push   %rbp
   14e63:	48 89 e5             	mov    %rsp,%rbp
   14e66:	48 83 ec 20          	sub    $0x20,%rsp
   14e6a:	89 7d ec             	mov    %edi,-0x14(%rbp)
   14e6d:	48 89 75 e0          	mov    %rsi,-0x20(%rbp)
   14e71:	c7 45 fc 00 00 00 00 	movl   $0x0,-0x4(%rbp)
   14e78:	83 7d ec 02          	cmpl   $0x2,-0x14(%rbp)
   14e7c:	75 25                	jne    14ea3 <main+0x45>
   14e7e:	48 8b 45 e0          	mov    -0x20(%rbp),%rax
   14e82:	48 83 c0 08          	add    $0x8,%rax
   14e86:	48 8b 00             	mov    (%rax),%rax
   14e89:	48 8d 35 4c 37 00 00 	lea    0x374c(%rip),%rsi        # 185dc <g_1737+0x154a>
   14e90:	48 89 c7             	mov    %rax,%rdi
   14e93:	e8 f8 41 ff ff       	callq  9090 <strcmp@plt>
   14e98:	85 c0                	test   %eax,%eax
   14e9a:	75 07                	jne    14ea3 <main+0x45>
   14e9c:	c7 45 fc 01 00 00 00 	movl   $0x1,-0x4(%rbp)
   14ea3:	e8 e1 42 ff ff       	callq  9189 <platform_main_begin>
   14ea8:	e8 eb 56 ff ff       	callq  a598 <crc32_gentab>
   14ead:	e8 03 59 ff ff       	callq  a7b5 <func_1>
   14eb2:	8b 05 6c 71 00 00    	mov    0x716c(%rip),%eax        # 1c024 <g_3>
   14eb8:	48 98                	cltq   
   14eba:	8b 55 fc             	mov    -0x4(%rbp),%edx
   14ebd:	48 8d 35 1a 37 00 00 	lea    0x371a(%rip),%rsi        # 185de <g_1737+0x154c>
   14ec4:	48 89 c7             	mov    %rax,%rdi
   14ec7:	e8 27 58 ff ff       	callq  a6f3 <transparent_crc>
   14ecc:	c7 45 f0 00 00 00 00 	movl   $0x0,-0x10(%rbp)
   14ed3:	e9 a7 00 00 00       	jmpq   14f7f <main+0x121>
   14ed8:	c7 45 f4 00 00 00 00 	movl   $0x0,-0xc(%rbp)
   14edf:	e9 8d 00 00 00       	jmpq   14f71 <main+0x113>
   14ee4:	c7 45 f8 00 00 00 00 	movl   $0x0,-0x8(%rbp)
   14eeb:	eb 7a                	jmp    14f67 <main+0x109>
   14eed:	8b 45 f8             	mov    -0x8(%rbp),%eax
   14ef0:	48 63 f0             	movslq %eax,%rsi
   14ef3:	8b 45 f0             	mov    -0x10(%rbp),%eax
   14ef6:	48 63 d0             	movslq %eax,%rdx
   14ef9:	8b 45 f4             	mov    -0xc(%rbp),%eax
   14efc:	48 63 c8             	movslq %eax,%rcx
   14eff:	48 89 d0             	mov    %rdx,%rax
   14f02:	48 01 c0             	add    %rax,%rax
   14f05:	48 01 d0             	add    %rdx,%rax
   14f08:	48 c1 e0 03          	shl    $0x3,%rax
   14f0c:	48 89 ca             	mov    %rcx,%rdx
   14f0f:	48 01 d2             	add    %rdx,%rdx
   14f12:	48 01 ca             	add    %rcx,%rdx
   14f15:	48 01 d0             	add    %rdx,%rax
   14f18:	48 01 f0             	add    %rsi,%rax
   14f1b:	48 8d 14 85 00 00 00 	lea    0x0(,%rax,4),%rdx
   14f22:	00 
   14f23:	48 8d 05 16 71 00 00 	lea    0x7116(%rip),%rax        # 1c040 <g_4>
   14f2a:	8b 04 02             	mov    (%rdx,%rax,1),%eax
   14f2d:	48 98                	cltq   
   14f2f:	8b 55 fc             	mov    -0x4(%rbp),%edx
   14f32:	48 8d 35 a9 36 00 00 	lea    0x36a9(%rip),%rsi        # 185e2 <g_1737+0x1550>
   14f39:	48 89 c7             	mov    %rax,%rdi
   14f3c:	e8 b2 57 ff ff       	callq  a6f3 <transparent_crc>
   14f41:	83 7d fc 00          	cmpl   $0x0,-0x4(%rbp)
   14f45:	74 1c                	je     14f63 <main+0x105>
   14f47:	8b 4d f8             	mov    -0x8(%rbp),%ecx
   14f4a:	8b 55 f4             	mov    -0xc(%rbp),%edx
   14f4d:	8b 45 f0             	mov    -0x10(%rbp),%eax
   14f50:	89 c6                	mov    %eax,%esi
   14f52:	48 8d 3d 96 36 00 00 	lea    0x3696(%rip),%rdi        # 185ef <g_1737+0x155d>
   14f59:	b8 00 00 00 00       	mov    $0x0,%eax
   14f5e:	e8 1d 41 ff ff       	callq  9080 <printf@plt>
   14f63:	83 45 f8 01          	addl   $0x1,-0x8(%rbp)
   14f67:	83 7d f8 02          	cmpl   $0x2,-0x8(%rbp)
   14f6b:	7e 80                	jle    14eed <main+0x8f>
   14f6d:	83 45 f4 01          	addl   $0x1,-0xc(%rbp)
   14f71:	83 7d f4 07          	cmpl   $0x7,-0xc(%rbp)
   14f75:	0f 8e 69 ff ff ff    	jle    14ee4 <main+0x86>
   14f7b:	83 45 f0 01          	addl   $0x1,-0x10(%rbp)
   14f7f:	83 7d f0 08          	cmpl   $0x8,-0x10(%rbp)
   14f83:	0f 8e 4f ff ff ff    	jle    14ed8 <main+0x7a>
   14f89:	8b 05 11 74 00 00    	mov    0x7411(%rip),%eax        # 1c3a0 <g_34>
   14f8f:	89 c1                	mov    %eax,%ecx
   14f91:	8b 45 fc             	mov    -0x4(%rbp),%eax
   14f94:	89 c2                	mov    %eax,%edx
   14f96:	48 8d 35 68 36 00 00 	lea    0x3668(%rip),%rsi        # 18605 <g_1737+0x1573>
   14f9d:	48 89 cf             	mov    %rcx,%rdi
   14fa0:	e8 4e 57 ff ff       	callq  a6f3 <transparent_crc>
   14fa5:	c7 45 f0 00 00 00 00 	movl   $0x0,-0x10(%rbp)
   14fac:	eb 4b                	jmp    14ff9 <main+0x19b>
   14fae:	8b 45 f0             	mov    -0x10(%rbp),%eax
   14fb1:	48 98                	cltq   
   14fb3:	48 8d 14 85 00 00 00 	lea    0x0(,%rax,4),%rdx
   14fba:	00 
   14fbb:	48 8d 05 ee 73 00 00 	lea    0x73ee(%rip),%rax        # 1c3b0 <g_38>
   14fc2:	8b 04 02             	mov    (%rdx,%rax,1),%eax
   14fc5:	48 98                	cltq   
   14fc7:	8b 55 fc             	mov    -0x4(%rbp),%edx
   14fca:	48 8d 35 3c 36 00 00 	lea    0x363c(%rip),%rsi        # 1860d <g_1737+0x157b>
   14fd1:	48 89 c7             	mov    %rax,%rdi
   14fd4:	e8 1a 57 ff ff       	callq  a6f3 <transparent_crc>
   14fd9:	83 7d fc 00          	cmpl   $0x0,-0x4(%rbp)
   14fdd:	74 16                	je     14ff5 <main+0x197>
   14fdf:	8b 45 f0             	mov    -0x10(%rbp),%eax
   14fe2:	89 c6                	mov    %eax,%esi
   14fe4:	48 8d 3d 2a 36 00 00 	lea    0x362a(%rip),%rdi        # 18615 <g_1737+0x1583>
   14feb:	b8 00 00 00 00       	mov    $0x0,%eax
   14ff0:	e8 8b 40 ff ff       	callq  9080 <printf@plt>
   14ff5:	83 45 f0 01          	addl   $0x1,-0x10(%rbp)
   14ff9:	83 7d f0 03          	cmpl   $0x3,-0x10(%rbp)
   14ffd:	7e af                	jle    14fae <main+0x150>
   14fff:	8b 05 43 bb 00 00    	mov    0xbb43(%rip),%eax        # 20b48 <g_41>
   15005:	48 98                	cltq   
   15007:	8b 55 fc             	mov    -0x4(%rbp),%edx
   1500a:	48 8d 35 12 36 00 00 	lea    0x3612(%rip),%rsi        # 18623 <g_1737+0x1591>
   15011:	48 89 c7             	mov    %rax,%rdi
   15014:	e8 da 56 ff ff       	callq  a6f3 <transparent_crc>
   15019:	48 8b 05 a0 73 00 00 	mov    0x73a0(%rip),%rax        # 1c3c0 <g_57>
   15020:	48 89 c1             	mov    %rax,%rcx
   15023:	8b 45 fc             	mov    -0x4(%rbp),%eax
   15026:	89 c2                	mov    %eax,%edx
   15028:	48 8d 35 f9 35 00 00 	lea    0x35f9(%rip),%rsi        # 18628 <g_1737+0x1596>
   1502f:	48 89 cf             	mov    %rcx,%rdi
   15032:	e8 bc 56 ff ff       	callq  a6f3 <transparent_crc>
   15037:	0f b6 05 8a 73 00 00 	movzbl 0x738a(%rip),%eax        # 1c3c8 <g_59>
   1503e:	0f b6 c0             	movzbl %al,%eax
   15041:	8b 55 fc             	mov    -0x4(%rbp),%edx
   15044:	48 8d 35 e2 35 00 00 	lea    0x35e2(%rip),%rsi        # 1862d <g_1737+0x159b>
   1504b:	48 89 c7             	mov    %rax,%rdi
   1504e:	e8 a0 56 ff ff       	callq  a6f3 <transparent_crc>
   15053:	c7 45 f0 00 00 00 00 	movl   $0x0,-0x10(%rbp)
   1505a:	e9 a6 00 00 00       	jmpq   15105 <main+0x2a7>
   1505f:	c7 45 f4 00 00 00 00 	movl   $0x0,-0xc(%rbp)
   15066:	e9 8c 00 00 00       	jmpq   150f7 <main+0x299>
   1506b:	c7 45 f8 00 00 00 00 	movl   $0x0,-0x8(%rbp)
   15072:	eb 79                	jmp    150ed <main+0x28f>
   15074:	8b 45 f8             	mov    -0x8(%rbp),%eax
   15077:	48 63 c8             	movslq %eax,%rcx
   1507a:	8b 45 f0             	mov    -0x10(%rbp),%eax
   1507d:	48 63 d0             	movslq %eax,%rdx
   15080:	8b 45 f4             	mov    -0xc(%rbp),%eax
   15083:	48 63 f0             	movslq %eax,%rsi
   15086:	48 89 d0             	mov    %rdx,%rax
   15089:	48 c1 e0 02          	shl    $0x2,%rax
   1508d:	48 01 d0             	add    %rdx,%rax
   15090:	48 01 c0             	add    %rax,%rax
   15093:	48 01 f0             	add    %rsi,%rax
   15096:	48 c1 e0 02          	shl    $0x2,%rax
   1509a:	48 01 c8             	add    %rcx,%rax
   1509d:	48 8d 14 c5 00 00 00 	lea    0x0(,%rax,8),%rdx
   150a4:	00 
   150a5:	48 8d 05 34 73 00 00 	lea    0x7334(%rip),%rax        # 1c3e0 <g_77>
   150ac:	48 8b 04 02          	mov    (%rdx,%rax,1),%rax
   150b0:	48 89 c1             	mov    %rax,%rcx
   150b3:	8b 45 fc             	mov    -0x4(%rbp),%eax
   150b6:	89 c2                	mov    %eax,%edx
   150b8:	48 8d 35 73 35 00 00 	lea    0x3573(%rip),%rsi        # 18632 <g_1737+0x15a0>
   150bf:	48 89 cf             	mov    %rcx,%rdi
   150c2:	e8 2c 56 ff ff       	callq  a6f3 <transparent_crc>
   150c7:	83 7d fc 00          	cmpl   $0x0,-0x4(%rbp)
   150cb:	74 1c                	je     150e9 <main+0x28b>
   150cd:	8b 4d f8             	mov    -0x8(%rbp),%ecx
   150d0:	8b 55 f4             	mov    -0xc(%rbp),%edx
   150d3:	8b 45 f0             	mov    -0x10(%rbp),%eax
   150d6:	89 c6                	mov    %eax,%esi
   150d8:	48 8d 3d 10 35 00 00 	lea    0x3510(%rip),%rdi        # 185ef <g_1737+0x155d>
   150df:	b8 00 00 00 00       	mov    $0x0,%eax
   150e4:	e8 97 3f ff ff       	callq  9080 <printf@plt>
   150e9:	83 45 f8 01          	addl   $0x1,-0x8(%rbp)
   150ed:	83 7d f8 03          	cmpl   $0x3,-0x8(%rbp)
   150f1:	7e 81                	jle    15074 <main+0x216>
   150f3:	83 45 f4 01          	addl   $0x1,-0xc(%rbp)
   150f7:	83 7d f4 09          	cmpl   $0x9,-0xc(%rbp)
   150fb:	0f 8e 6a ff ff ff    	jle    1506b <main+0x20d>
   15101:	83 45 f0 01          	addl   $0x1,-0x10(%rbp)
   15105:	83 7d f0 05          	cmpl   $0x5,-0x10(%rbp)
   15109:	0f 8e 50 ff ff ff    	jle    1505f <main+0x201>
   1510f:	48 8b 05 4a 7a 00 00 	mov    0x7a4a(%rip),%rax        # 1cb60 <g_79>
   15116:	8b 55 fc             	mov    -0x4(%rbp),%edx
   15119:	48 8d 35 20 35 00 00 	lea    0x3520(%rip),%rsi        # 18640 <g_1737+0x15ae>
   15120:	48 89 c7             	mov    %rax,%rdi
   15123:	e8 cb 55 ff ff       	callq  a6f3 <transparent_crc>
   15128:	0f b7 05 25 1f 00 00 	movzwl 0x1f25(%rip),%eax        # 17054 <g_90>
   1512f:	48 0f bf c0          	movswq %ax,%rax
   15133:	8b 55 fc             	mov    -0x4(%rbp),%edx
   15136:	48 8d 35 08 35 00 00 	lea    0x3508(%rip),%rsi        # 18645 <g_1737+0x15b3>
   1513d:	48 89 c7             	mov    %rax,%rdi
   15140:	e8 ae 55 ff ff       	callq  a6f3 <transparent_crc>
   15145:	48 8b 05 1c 7a 00 00 	mov    0x7a1c(%rip),%rax        # 1cb68 <g_113>
   1514c:	8b 55 fc             	mov    -0x4(%rbp),%edx
   1514f:	48 8d 35 f7 34 00 00 	lea    0x34f7(%rip),%rsi        # 1864d <g_1737+0x15bb>
   15156:	48 89 c7             	mov    %rax,%rdi
   15159:	e8 95 55 ff ff       	callq  a6f3 <transparent_crc>
   1515e:	0f b7 05 0b 7a 00 00 	movzwl 0x7a0b(%rip),%eax        # 1cb70 <g_134>
   15165:	48 0f bf c0          	movswq %ax,%rax
   15169:	8b 55 fc             	mov    -0x4(%rbp),%edx
   1516c:	48 8d 35 e0 34 00 00 	lea    0x34e0(%rip),%rsi        # 18653 <g_1737+0x15c1>
   15173:	48 89 c7             	mov    %rax,%rdi
   15176:	e8 78 55 ff ff       	callq  a6f3 <transparent_crc>
   1517b:	b9 00 00 00 00       	mov    $0x0,%ecx
   15180:	8b 45 fc             	mov    -0x4(%rbp),%eax
   15183:	89 c2                	mov    %eax,%edx
   15185:	48 8d 35 cd 34 00 00 	lea    0x34cd(%rip),%rsi        # 18659 <g_1737+0x15c7>
   1518c:	48 89 cf             	mov    %rcx,%rdi
   1518f:	e8 5f 55 ff ff       	callq  a6f3 <transparent_crc>
   15194:	0f b7 05 d7 79 00 00 	movzwl 0x79d7(%rip),%eax        # 1cb72 <g_146>
   1519b:	0f b7 c0             	movzwl %ax,%eax
   1519e:	8b 55 fc             	mov    -0x4(%rbp),%edx
   151a1:	48 8d 35 b7 34 00 00 	lea    0x34b7(%rip),%rsi        # 1865f <g_1737+0x15cd>
   151a8:	48 89 c7             	mov    %rax,%rdi
   151ab:	e8 43 55 ff ff       	callq  a6f3 <transparent_crc>
   151b0:	0f b7 05 a1 b9 00 00 	movzwl 0xb9a1(%rip),%eax        # 20b58 <g_148>
   151b7:	0f b7 c0             	movzwl %ax,%eax
   151ba:	8b 55 fc             	mov    -0x4(%rbp),%edx
   151bd:	48 8d 35 a1 34 00 00 	lea    0x34a1(%rip),%rsi        # 18665 <g_1737+0x15d3>
   151c4:	48 89 c7             	mov    %rax,%rdi
   151c7:	e8 27 55 ff ff       	callq  a6f3 <transparent_crc>
   151cc:	0f b7 05 a1 79 00 00 	movzwl 0x79a1(%rip),%eax        # 1cb74 <g_220>
   151d3:	48 0f bf c0          	movswq %ax,%rax
   151d7:	8b 55 fc             	mov    -0x4(%rbp),%edx
   151da:	48 8d 35 8a 34 00 00 	lea    0x348a(%rip),%rsi        # 1866b <g_1737+0x15d9>
   151e1:	48 89 c7             	mov    %rax,%rdi
   151e4:	e8 0a 55 ff ff       	callq  a6f3 <transparent_crc>
   151e9:	0f b7 05 78 b9 00 00 	movzwl 0xb978(%rip),%eax        # 20b68 <g_248>
   151f0:	48 0f bf c0          	movswq %ax,%rax
   151f4:	8b 55 fc             	mov    -0x4(%rbp),%edx
   151f7:	48 8d 35 76 34 00 00 	lea    0x3476(%rip),%rsi        # 18674 <g_1737+0x15e2>
   151fe:	48 89 c7             	mov    %rax,%rdi
   15201:	e8 ed 54 ff ff       	callq  a6f3 <transparent_crc>
   15206:	0f b7 05 69 79 00 00 	movzwl 0x7969(%rip),%eax        # 1cb76 <g_249>
   1520d:	48 0f bf c0          	movswq %ax,%rax
   15211:	8b 55 fc             	mov    -0x4(%rbp),%edx
   15214:	48 8d 35 62 34 00 00 	lea    0x3462(%rip),%rsi        # 1867d <g_1737+0x15eb>
   1521b:	48 89 c7             	mov    %rax,%rdi
   1521e:	e8 d0 54 ff ff       	callq  a6f3 <transparent_crc>
   15223:	0f b7 05 40 b9 00 00 	movzwl 0xb940(%rip),%eax        # 20b6a <g_250>
   1522a:	0f b7 c0             	movzwl %ax,%eax
   1522d:	8b 55 fc             	mov    -0x4(%rbp),%edx
   15230:	48 8d 35 4f 34 00 00 	lea    0x344f(%rip),%rsi        # 18686 <g_1737+0x15f4>
   15237:	48 89 c7             	mov    %rax,%rdi
   1523a:	e8 b4 54 ff ff       	callq  a6f3 <transparent_crc>
   1523f:	0f b6 05 32 79 00 00 	movzbl 0x7932(%rip),%eax        # 1cb78 <g_254>
   15246:	0f b6 c0             	movzbl %al,%eax
   15249:	8b 55 fc             	mov    -0x4(%rbp),%edx
   1524c:	48 8d 35 39 34 00 00 	lea    0x3439(%rip),%rsi        # 1868c <g_1737+0x15fa>
   15253:	48 89 c7             	mov    %rax,%rdi
   15256:	e8 98 54 ff ff       	callq  a6f3 <transparent_crc>
   1525b:	8b 05 0b b9 00 00    	mov    0xb90b(%rip),%eax        # 20b6c <g_280>
   15261:	89 c1                	mov    %eax,%ecx
   15263:	8b 45 fc             	mov    -0x4(%rbp),%eax
   15266:	89 c2                	mov    %eax,%edx
   15268:	48 8d 35 23 34 00 00 	lea    0x3423(%rip),%rsi        # 18692 <g_1737+0x1600>
   1526f:	48 89 cf             	mov    %rcx,%rdi
   15272:	e8 7c 54 ff ff       	callq  a6f3 <transparent_crc>
   15277:	0f b7 05 fc 78 00 00 	movzwl 0x78fc(%rip),%eax        # 1cb7a <g_331>
   1527e:	48 0f bf c0          	movswq %ax,%rax
   15282:	8b 55 fc             	mov    -0x4(%rbp),%edx
   15285:	48 8d 35 0c 34 00 00 	lea    0x340c(%rip),%rsi        # 18698 <g_1737+0x1606>
   1528c:	48 89 c7             	mov    %rax,%rdi
   1528f:	e8 5f 54 ff ff       	callq  a6f3 <transparent_crc>
   15294:	48 8b 05 e5 78 00 00 	mov    0x78e5(%rip),%rax        # 1cb80 <g_351>
   1529b:	8b 55 fc             	mov    -0x4(%rbp),%edx
   1529e:	48 8d 35 fc 33 00 00 	lea    0x33fc(%rip),%rsi        # 186a1 <g_1737+0x160f>
   152a5:	48 89 c7             	mov    %rax,%rdi
   152a8:	e8 46 54 ff ff       	callq  a6f3 <transparent_crc>
   152ad:	0f b6 05 d4 78 00 00 	movzbl 0x78d4(%rip),%eax        # 1cb88 <g_448>
   152b4:	48 0f be c0          	movsbq %al,%rax
   152b8:	8b 55 fc             	mov    -0x4(%rbp),%edx
   152bb:	48 8d 35 e5 33 00 00 	lea    0x33e5(%rip),%rsi        # 186a7 <g_1737+0x1615>
   152c2:	48 89 c7             	mov    %rax,%rdi
   152c5:	e8 29 54 ff ff       	callq  a6f3 <transparent_crc>
   152ca:	8b 05 bc 78 00 00    	mov    0x78bc(%rip),%eax        # 1cb8c <g_540>
   152d0:	89 c1                	mov    %eax,%ecx
   152d2:	8b 45 fc             	mov    -0x4(%rbp),%eax
   152d5:	89 c2                	mov    %eax,%edx
   152d7:	48 8d 35 cf 33 00 00 	lea    0x33cf(%rip),%rsi        # 186ad <g_1737+0x161b>
   152de:	48 89 cf             	mov    %rcx,%rdi
   152e1:	e8 0d 54 ff ff       	callq  a6f3 <transparent_crc>
   152e6:	0f b7 05 a3 78 00 00 	movzwl 0x78a3(%rip),%eax        # 1cb90 <g_561>
   152ed:	48 0f bf c0          	movswq %ax,%rax
   152f1:	8b 55 fc             	mov    -0x4(%rbp),%edx
   152f4:	48 8d 35 b8 33 00 00 	lea    0x33b8(%rip),%rsi        # 186b3 <g_1737+0x1621>
   152fb:	48 89 c7             	mov    %rax,%rdi
   152fe:	e8 f0 53 ff ff       	callq  a6f3 <transparent_crc>
   15303:	0f b7 05 88 78 00 00 	movzwl 0x7888(%rip),%eax        # 1cb92 <g_642>
   1530a:	48 0f bf c0          	movswq %ax,%rax
   1530e:	8b 55 fc             	mov    -0x4(%rbp),%edx
   15311:	48 8d 35 a4 33 00 00 	lea    0x33a4(%rip),%rsi        # 186bc <g_1737+0x162a>
   15318:	48 89 c7             	mov    %rax,%rdi
   1531b:	e8 d3 53 ff ff       	callq  a6f3 <transparent_crc>
   15320:	0f b7 05 69 1d 00 00 	movzwl 0x1d69(%rip),%eax        # 17090 <g_644>
   15327:	48 0f bf c0          	movswq %ax,%rax
   1532b:	8b 55 fc             	mov    -0x4(%rbp),%edx
   1532e:	48 8d 35 90 33 00 00 	lea    0x3390(%rip),%rsi        # 186c5 <g_1737+0x1633>
   15335:	48 89 c7             	mov    %rax,%rdi
   15338:	e8 b6 53 ff ff       	callq  a6f3 <transparent_crc>
   1533d:	0f b7 05 50 78 00 00 	movzwl 0x7850(%rip),%eax        # 1cb94 <g_698>
   15344:	48 0f bf c0          	movswq %ax,%rax
   15348:	8b 55 fc             	mov    -0x4(%rbp),%edx
   1534b:	48 8d 35 7c 33 00 00 	lea    0x337c(%rip),%rsi        # 186ce <g_1737+0x163c>
   15352:	48 89 c7             	mov    %rax,%rdi
   15355:	e8 99 53 ff ff       	callq  a6f3 <transparent_crc>
   1535a:	8b 05 38 78 00 00    	mov    0x7838(%rip),%eax        # 1cb98 <g_740>
   15360:	89 c1                	mov    %eax,%ecx
   15362:	8b 45 fc             	mov    -0x4(%rbp),%eax
   15365:	89 c2                	mov    %eax,%edx
   15367:	48 8d 35 66 33 00 00 	lea    0x3366(%rip),%rsi        # 186d4 <g_1737+0x1642>
   1536e:	48 89 cf             	mov    %rcx,%rdi
   15371:	e8 7d 53 ff ff       	callq  a6f3 <transparent_crc>
   15376:	0f b7 05 1f 78 00 00 	movzwl 0x781f(%rip),%eax        # 1cb9c <g_949>
   1537d:	48 0f bf c0          	movswq %ax,%rax
   15381:	8b 55 fc             	mov    -0x4(%rbp),%edx
   15384:	48 8d 35 52 33 00 00 	lea    0x3352(%rip),%rsi        # 186dd <g_1737+0x164b>
   1538b:	48 89 c7             	mov    %rax,%rdi
   1538e:	e8 60 53 ff ff       	callq  a6f3 <transparent_crc>
   15393:	0f b7 05 04 78 00 00 	movzwl 0x7804(%rip),%eax        # 1cb9e <g_981>
   1539a:	0f b7 c0             	movzwl %ax,%eax
   1539d:	8b 55 fc             	mov    -0x4(%rbp),%edx
   153a0:	48 8d 35 3f 33 00 00 	lea    0x333f(%rip),%rsi        # 186e6 <g_1737+0x1654>
   153a7:	48 89 c7             	mov    %rax,%rdi
   153aa:	e8 44 53 ff ff       	callq  a6f3 <transparent_crc>
   153af:	c7 45 f0 00 00 00 00 	movl   $0x0,-0x10(%rbp)
   153b6:	eb 4b                	jmp    15403 <main+0x5a5>
   153b8:	8b 45 f0             	mov    -0x10(%rbp),%eax
   153bb:	48 98                	cltq   
   153bd:	48 8d 14 85 00 00 00 	lea    0x0(,%rax,4),%rdx
   153c4:	00 
   153c5:	48 8d 05 d4 77 00 00 	lea    0x77d4(%rip),%rax        # 1cba0 <g_1049>
   153cc:	8b 04 02             	mov    (%rdx,%rax,1),%eax
   153cf:	48 98                	cltq   
   153d1:	8b 55 fc             	mov    -0x4(%rbp),%edx
   153d4:	48 8d 35 11 33 00 00 	lea    0x3311(%rip),%rsi        # 186ec <g_1737+0x165a>
   153db:	48 89 c7             	mov    %rax,%rdi
   153de:	e8 10 53 ff ff       	callq  a6f3 <transparent_crc>
   153e3:	83 7d fc 00          	cmpl   $0x0,-0x4(%rbp)
   153e7:	74 16                	je     153ff <main+0x5a1>
   153e9:	8b 45 f0             	mov    -0x10(%rbp),%eax
   153ec:	89 c6                	mov    %eax,%esi
   153ee:	48 8d 3d 20 32 00 00 	lea    0x3220(%rip),%rdi        # 18615 <g_1737+0x1583>
   153f5:	b8 00 00 00 00       	mov    $0x0,%eax
   153fa:	e8 81 3c ff ff       	callq  9080 <printf@plt>
   153ff:	83 45 f0 01          	addl   $0x1,-0x10(%rbp)
   15403:	83 7d f0 06          	cmpl   $0x6,-0x10(%rbp)
   15407:	7e af                	jle    153b8 <main+0x55a>
   15409:	c7 45 f0 00 00 00 00 	movl   $0x0,-0x10(%rbp)
   15410:	eb 4a                	jmp    1545c <main+0x5fe>
   15412:	8b 45 f0             	mov    -0x10(%rbp),%eax
   15415:	48 98                	cltq   
   15417:	48 8d 14 00          	lea    (%rax,%rax,1),%rdx
   1541b:	48 8d 05 9e 77 00 00 	lea    0x779e(%rip),%rax        # 1cbc0 <g_1059>
   15422:	0f b7 04 02          	movzwl (%rdx,%rax,1),%eax
   15426:	48 0f bf c0          	movswq %ax,%rax
   1542a:	8b 55 fc             	mov    -0x4(%rbp),%edx
   1542d:	48 8d 35 c2 32 00 00 	lea    0x32c2(%rip),%rsi        # 186f6 <g_1737+0x1664>
   15434:	48 89 c7             	mov    %rax,%rdi
   15437:	e8 b7 52 ff ff       	callq  a6f3 <transparent_crc>
   1543c:	83 7d fc 00          	cmpl   $0x0,-0x4(%rbp)
   15440:	74 16                	je     15458 <main+0x5fa>
   15442:	8b 45 f0             	mov    -0x10(%rbp),%eax
   15445:	89 c6                	mov    %eax,%esi
   15447:	48 8d 3d c7 31 00 00 	lea    0x31c7(%rip),%rdi        # 18615 <g_1737+0x1583>
   1544e:	b8 00 00 00 00       	mov    $0x0,%eax
   15453:	e8 28 3c ff ff       	callq  9080 <printf@plt>
   15458:	83 45 f0 01          	addl   $0x1,-0x10(%rbp)
   1545c:	83 7d f0 05          	cmpl   $0x5,-0x10(%rbp)
   15460:	7e b0                	jle    15412 <main+0x5b4>
   15462:	0f b6 05 63 77 00 00 	movzbl 0x7763(%rip),%eax        # 1cbcc <g_1083>
   15469:	48 0f be c0          	movsbq %al,%rax
   1546d:	8b 55 fc             	mov    -0x4(%rbp),%edx
   15470:	48 8d 35 8c 32 00 00 	lea    0x328c(%rip),%rsi        # 18703 <g_1737+0x1671>
   15477:	48 89 c7             	mov    %rax,%rdi
   1547a:	e8 74 52 ff ff       	callq  a6f3 <transparent_crc>
   1547f:	c7 45 f0 00 00 00 00 	movl   $0x0,-0x10(%rbp)
   15486:	e9 af 00 00 00       	jmpq   1553a <main+0x6dc>
   1548b:	c7 45 f4 00 00 00 00 	movl   $0x0,-0xc(%rbp)
   15492:	e9 95 00 00 00       	jmpq   1552c <main+0x6ce>
   15497:	c7 45 f8 00 00 00 00 	movl   $0x0,-0x8(%rbp)
   1549e:	eb 7e                	jmp    1551e <main+0x6c0>
   154a0:	8b 45 f8             	mov    -0x8(%rbp),%eax
   154a3:	48 63 f0             	movslq %eax,%rsi
   154a6:	8b 45 f0             	mov    -0x10(%rbp),%eax
   154a9:	48 63 d0             	movslq %eax,%rdx
   154ac:	8b 45 f4             	mov    -0xc(%rbp),%eax
   154af:	48 63 c8             	movslq %eax,%rcx
   154b2:	48 89 d0             	mov    %rdx,%rax
   154b5:	48 c1 e0 03          	shl    $0x3,%rax
   154b9:	48 01 d0             	add    %rdx,%rax
   154bc:	48 c1 e0 02          	shl    $0x2,%rax
   154c0:	48 29 d0             	sub    %rdx,%rax
   154c3:	48 89 ca             	mov    %rcx,%rdx
   154c6:	48 c1 e2 02          	shl    $0x2,%rdx
   154ca:	48 01 ca             	add    %rcx,%rdx
   154cd:	48 01 d0             	add    %rdx,%rax
   154d0:	48 01 f0             	add    %rsi,%rax
   154d3:	48 8d 14 00          	lea    (%rax,%rax,1),%rdx
   154d7:	48 8d 05 02 77 00 00 	lea    0x7702(%rip),%rax        # 1cbe0 <g_1152>
   154de:	0f b7 04 02          	movzwl (%rdx,%rax,1),%eax
   154e2:	48 0f bf c0          	movswq %ax,%rax
   154e6:	8b 55 fc             	mov    -0x4(%rbp),%edx
   154e9:	48 8d 35 1a 32 00 00 	lea    0x321a(%rip),%rsi        # 1870a <g_1737+0x1678>
   154f0:	48 89 c7             	mov    %rax,%rdi
   154f3:	e8 fb 51 ff ff       	callq  a6f3 <transparent_crc>
   154f8:	83 7d fc 00          	cmpl   $0x0,-0x4(%rbp)
   154fc:	74 1c                	je     1551a <main+0x6bc>
   154fe:	8b 4d f8             	mov    -0x8(%rbp),%ecx
   15501:	8b 55 f4             	mov    -0xc(%rbp),%edx
   15504:	8b 45 f0             	mov    -0x10(%rbp),%eax
   15507:	89 c6                	mov    %eax,%esi
   15509:	48 8d 3d df 30 00 00 	lea    0x30df(%rip),%rdi        # 185ef <g_1737+0x155d>
   15510:	b8 00 00 00 00       	mov    $0x0,%eax
   15515:	e8 66 3b ff ff       	callq  9080 <printf@plt>
   1551a:	83 45 f8 01          	addl   $0x1,-0x8(%rbp)
   1551e:	83 7d f8 04          	cmpl   $0x4,-0x8(%rbp)
   15522:	0f 8e 78 ff ff ff    	jle    154a0 <main+0x642>
   15528:	83 45 f4 01          	addl   $0x1,-0xc(%rbp)
   1552c:	83 7d f4 06          	cmpl   $0x6,-0xc(%rbp)
   15530:	0f 8e 61 ff ff ff    	jle    15497 <main+0x639>
   15536:	83 45 f0 01          	addl   $0x1,-0x10(%rbp)
   1553a:	83 7d f0 05          	cmpl   $0x5,-0x10(%rbp)
   1553e:	0f 8e 47 ff ff ff    	jle    1548b <main+0x62d>
   15544:	c7 45 f0 00 00 00 00 	movl   $0x0,-0x10(%rbp)
   1554b:	e9 a1 00 00 00       	jmpq   155f1 <main+0x793>
   15550:	c7 45 f4 00 00 00 00 	movl   $0x0,-0xc(%rbp)
   15557:	e9 87 00 00 00       	jmpq   155e3 <main+0x785>
   1555c:	c7 45 f8 00 00 00 00 	movl   $0x0,-0x8(%rbp)
   15563:	eb 74                	jmp    155d9 <main+0x77b>
   15565:	8b 45 f8             	mov    -0x8(%rbp),%eax
   15568:	48 63 c8             	movslq %eax,%rcx
   1556b:	8b 45 f0             	mov    -0x10(%rbp),%eax
   1556e:	48 63 d0             	movslq %eax,%rdx
   15571:	8b 45 f4             	mov    -0xc(%rbp),%eax
   15574:	48 63 f0             	movslq %eax,%rsi
   15577:	48 89 d0             	mov    %rdx,%rax
   1557a:	48 c1 e0 03          	shl    $0x3,%rax
   1557e:	48 01 d0             	add    %rdx,%rax
   15581:	48 01 f0             	add    %rsi,%rax
   15584:	48 c1 e0 02          	shl    $0x2,%rax
   15588:	48 01 c8             	add    %rcx,%rax
   1558b:	48 8d 14 85 00 00 00 	lea    0x0(,%rax,4),%rdx
   15592:	00 
   15593:	48 8d 05 06 78 00 00 	lea    0x7806(%rip),%rax        # 1cda0 <g_1245>
   1559a:	8b 04 02             	mov    (%rdx,%rax,1),%eax
   1559d:	89 c1                	mov    %eax,%ecx
   1559f:	8b 45 fc             	mov    -0x4(%rbp),%eax
   155a2:	89 c2                	mov    %eax,%edx
   155a4:	48 8d 35 72 31 00 00 	lea    0x3172(%rip),%rsi        # 1871d <g_1737+0x168b>
   155ab:	48 89 cf             	mov    %rcx,%rdi
   155ae:	e8 40 51 ff ff       	callq  a6f3 <transparent_crc>
   155b3:	83 7d fc 00          	cmpl   $0x0,-0x4(%rbp)
   155b7:	74 1c                	je     155d5 <main+0x777>
   155b9:	8b 4d f8             	mov    -0x8(%rbp),%ecx
   155bc:	8b 55 f4             	mov    -0xc(%rbp),%edx
   155bf:	8b 45 f0             	mov    -0x10(%rbp),%eax
   155c2:	89 c6                	mov    %eax,%esi
   155c4:	48 8d 3d 24 30 00 00 	lea    0x3024(%rip),%rdi        # 185ef <g_1737+0x155d>
   155cb:	b8 00 00 00 00       	mov    $0x0,%eax
   155d0:	e8 ab 3a ff ff       	callq  9080 <printf@plt>
   155d5:	83 45 f8 01          	addl   $0x1,-0x8(%rbp)
   155d9:	83 7d f8 03          	cmpl   $0x3,-0x8(%rbp)
   155dd:	7e 86                	jle    15565 <main+0x707>
   155df:	83 45 f4 01          	addl   $0x1,-0xc(%rbp)
   155e3:	83 7d f4 08          	cmpl   $0x8,-0xc(%rbp)
   155e7:	0f 8e 6f ff ff ff    	jle    1555c <main+0x6fe>
   155ed:	83 45 f0 01          	addl   $0x1,-0x10(%rbp)
   155f1:	83 7d f0 06          	cmpl   $0x6,-0x10(%rbp)
   155f5:	0f 8e 55 ff ff ff    	jle    15550 <main+0x6f2>
   155fb:	0f b6 05 8e 7b 00 00 	movzbl 0x7b8e(%rip),%eax        # 1d190 <g_1268>
   15602:	48 0f be c0          	movsbq %al,%rax
   15606:	8b 55 fc             	mov    -0x4(%rbp),%edx
   15609:	48 8d 35 1d 31 00 00 	lea    0x311d(%rip),%rsi        # 1872d <g_1737+0x169b>
   15610:	48 89 c7             	mov    %rax,%rdi
   15613:	e8 db 50 ff ff       	callq  a6f3 <transparent_crc>
   15618:	0f b6 05 72 7b 00 00 	movzbl 0x7b72(%rip),%eax        # 1d191 <g_1305>
   1561f:	0f b6 c0             	movzbl %al,%eax
   15622:	8b 55 fc             	mov    -0x4(%rbp),%edx
   15625:	48 8d 35 08 31 00 00 	lea    0x3108(%rip),%rsi        # 18734 <g_1737+0x16a2>
   1562c:	48 89 c7             	mov    %rax,%rdi
   1562f:	e8 bf 50 ff ff       	callq  a6f3 <transparent_crc>
   15634:	0f b7 05 57 7b 00 00 	movzwl 0x7b57(%rip),%eax        # 1d192 <g_1345>
   1563b:	48 0f bf c0          	movswq %ax,%rax
   1563f:	8b 55 fc             	mov    -0x4(%rbp),%edx
   15642:	48 8d 35 f2 30 00 00 	lea    0x30f2(%rip),%rsi        # 1873b <g_1737+0x16a9>
   15649:	48 89 c7             	mov    %rax,%rdi
   1564c:	e8 a2 50 ff ff       	callq  a6f3 <transparent_crc>
   15651:	0f b7 05 3c 7b 00 00 	movzwl 0x7b3c(%rip),%eax        # 1d194 <g_1354>
   15658:	48 0f bf c0          	movswq %ax,%rax
   1565c:	8b 55 fc             	mov    -0x4(%rbp),%edx
   1565f:	48 8d 35 df 30 00 00 	lea    0x30df(%rip),%rsi        # 18745 <g_1737+0x16b3>
   15666:	48 89 c7             	mov    %rax,%rdi
   15669:	e8 85 50 ff ff       	callq  a6f3 <transparent_crc>
   1566e:	8b 05 24 7b 00 00    	mov    0x7b24(%rip),%eax        # 1d198 <g_1357>
   15674:	89 c1                	mov    %eax,%ecx
   15676:	8b 45 fc             	mov    -0x4(%rbp),%eax
   15679:	89 c2                	mov    %eax,%edx
   1567b:	48 8d 35 cd 30 00 00 	lea    0x30cd(%rip),%rsi        # 1874f <g_1737+0x16bd>
   15682:	48 89 cf             	mov    %rcx,%rdi
   15685:	e8 69 50 ff ff       	callq  a6f3 <transparent_crc>
   1568a:	0f b7 05 77 7b 00 00 	movzwl 0x7b77(%rip),%eax        # 1d208 <g_1540>
   15691:	48 0f bf c0          	movswq %ax,%rax
   15695:	8b 55 fc             	mov    -0x4(%rbp),%edx
   15698:	48 8d 35 ba 30 00 00 	lea    0x30ba(%rip),%rsi        # 18759 <g_1737+0x16c7>
   1569f:	48 89 c7             	mov    %rax,%rdi
   156a2:	e8 4c 50 ff ff       	callq  a6f3 <transparent_crc>
   156a7:	c7 45 f0 00 00 00 00 	movl   $0x0,-0x10(%rbp)
   156ae:	eb 4a                	jmp    156fa <main+0x89c>
   156b0:	8b 45 f0             	mov    -0x10(%rbp),%eax
   156b3:	48 98                	cltq   
   156b5:	48 8d 14 00          	lea    (%rax,%rax,1),%rdx
   156b9:	48 8d 05 50 7b 00 00 	lea    0x7b50(%rip),%rax        # 1d210 <g_1665>
   156c0:	0f b7 04 02          	movzwl (%rdx,%rax,1),%eax
   156c4:	48 0f bf c0          	movswq %ax,%rax
   156c8:	8b 55 fc             	mov    -0x4(%rbp),%edx
   156cb:	48 8d 35 8e 30 00 00 	lea    0x308e(%rip),%rsi        # 18760 <g_1737+0x16ce>
   156d2:	48 89 c7             	mov    %rax,%rdi
   156d5:	e8 19 50 ff ff       	callq  a6f3 <transparent_crc>
   156da:	83 7d fc 00          	cmpl   $0x0,-0x4(%rbp)
   156de:	74 16                	je     156f6 <main+0x898>
   156e0:	8b 45 f0             	mov    -0x10(%rbp),%eax
   156e3:	89 c6                	mov    %eax,%esi
   156e5:	48 8d 3d 29 2f 00 00 	lea    0x2f29(%rip),%rdi        # 18615 <g_1737+0x1583>
   156ec:	b8 00 00 00 00       	mov    $0x0,%eax
   156f1:	e8 8a 39 ff ff       	callq  9080 <printf@plt>
   156f6:	83 45 f0 01          	addl   $0x1,-0x10(%rbp)
   156fa:	83 7d f0 03          	cmpl   $0x3,-0x10(%rbp)
   156fe:	7e b0                	jle    156b0 <main+0x852>
   15700:	0f b7 05 11 7b 00 00 	movzwl 0x7b11(%rip),%eax        # 1d218 <g_1674>
   15707:	48 0f bf c0          	movswq %ax,%rax
   1570b:	8b 55 fc             	mov    -0x4(%rbp),%edx
   1570e:	48 8d 35 58 30 00 00 	lea    0x3058(%rip),%rsi        # 1876d <g_1737+0x16db>
   15715:	48 89 c7             	mov    %rax,%rdi
   15718:	e8 d6 4f ff ff       	callq  a6f3 <transparent_crc>
   1571d:	c7 45 f0 00 00 00 00 	movl   $0x0,-0x10(%rbp)
   15724:	eb 4a                	jmp    15770 <main+0x912>
   15726:	8b 45 f0             	mov    -0x10(%rbp),%eax
   15729:	48 98                	cltq   
   1572b:	48 8d 14 00          	lea    (%rax,%rax,1),%rdx
   1572f:	48 8d 05 ea 7a 00 00 	lea    0x7aea(%rip),%rax        # 1d220 <g_1736>
   15736:	0f b7 04 02          	movzwl (%rdx,%rax,1),%eax
   1573a:	48 0f bf c0          	movswq %ax,%rax
   1573e:	8b 55 fc             	mov    -0x4(%rbp),%edx
   15741:	48 8d 35 2f 30 00 00 	lea    0x302f(%rip),%rsi        # 18777 <g_1737+0x16e5>
   15748:	48 89 c7             	mov    %rax,%rdi
   1574b:	e8 a3 4f ff ff       	callq  a6f3 <transparent_crc>
   15750:	83 7d fc 00          	cmpl   $0x0,-0x4(%rbp)
   15754:	74 16                	je     1576c <main+0x90e>
   15756:	8b 45 f0             	mov    -0x10(%rbp),%eax
   15759:	89 c6                	mov    %eax,%esi
   1575b:	48 8d 3d b3 2e 00 00 	lea    0x2eb3(%rip),%rdi        # 18615 <g_1737+0x1583>
   15762:	b8 00 00 00 00       	mov    $0x0,%eax
   15767:	e8 14 39 ff ff       	callq  9080 <printf@plt>
   1576c:	83 45 f0 01          	addl   $0x1,-0x10(%rbp)
   15770:	83 7d f0 07          	cmpl   $0x7,-0x10(%rbp)
   15774:	7e b0                	jle    15726 <main+0x8c8>
   15776:	0f b7 05 15 19 00 00 	movzwl 0x1915(%rip),%eax        # 17092 <g_1737>
   1577d:	48 0f bf c0          	movswq %ax,%rax
   15781:	8b 55 fc             	mov    -0x4(%rbp),%edx
   15784:	48 8d 35 f9 2f 00 00 	lea    0x2ff9(%rip),%rsi        # 18784 <g_1737+0x16f2>
   1578b:	48 89 c7             	mov    %rax,%rdi
   1578e:	e8 60 4f ff ff       	callq  a6f3 <transparent_crc>
   15793:	0f b7 05 36 b4 00 00 	movzwl 0xb436(%rip),%eax        # 20bd0 <g_1759>
   1579a:	48 0f bf c0          	movswq %ax,%rax
   1579e:	8b 55 fc             	mov    -0x4(%rbp),%edx
   157a1:	48 8d 35 e6 2f 00 00 	lea    0x2fe6(%rip),%rsi        # 1878e <g_1737+0x16fc>
   157a8:	48 89 c7             	mov    %rax,%rdi
   157ab:	e8 43 4f ff ff       	callq  a6f3 <transparent_crc>
   157b0:	0f b7 05 79 7a 00 00 	movzwl 0x7a79(%rip),%eax        # 1d230 <g_1809>
   157b7:	48 0f bf c0          	movswq %ax,%rax
   157bb:	8b 55 fc             	mov    -0x4(%rbp),%edx
   157be:	48 8d 35 d3 2f 00 00 	lea    0x2fd3(%rip),%rsi        # 18798 <g_1737+0x1706>
   157c5:	48 89 c7             	mov    %rax,%rdi
   157c8:	e8 26 4f ff ff       	callq  a6f3 <transparent_crc>
   157cd:	c7 45 f0 00 00 00 00 	movl   $0x0,-0x10(%rbp)
   157d4:	eb 4a                	jmp    15820 <main+0x9c2>
   157d6:	8b 45 f0             	mov    -0x10(%rbp),%eax
   157d9:	48 98                	cltq   
   157db:	48 8d 14 00          	lea    (%rax,%rax,1),%rdx
   157df:	48 8d 05 52 7a 00 00 	lea    0x7a52(%rip),%rax        # 1d238 <g_1830>
   157e6:	0f b7 04 02          	movzwl (%rdx,%rax,1),%eax
   157ea:	48 0f bf c0          	movswq %ax,%rax
   157ee:	8b 55 fc             	mov    -0x4(%rbp),%edx
   157f1:	48 8d 35 aa 2f 00 00 	lea    0x2faa(%rip),%rsi        # 187a2 <g_1737+0x1710>
   157f8:	48 89 c7             	mov    %rax,%rdi
   157fb:	e8 f3 4e ff ff       	callq  a6f3 <transparent_crc>
   15800:	83 7d fc 00          	cmpl   $0x0,-0x4(%rbp)
   15804:	74 16                	je     1581c <main+0x9be>
   15806:	8b 45 f0             	mov    -0x10(%rbp),%eax
   15809:	89 c6                	mov    %eax,%esi
   1580b:	48 8d 3d 03 2e 00 00 	lea    0x2e03(%rip),%rdi        # 18615 <g_1737+0x1583>
   15812:	b8 00 00 00 00       	mov    $0x0,%eax
   15817:	e8 64 38 ff ff       	callq  9080 <printf@plt>
   1581c:	83 45 f0 01          	addl   $0x1,-0x10(%rbp)
   15820:	83 7d f0 06          	cmpl   $0x6,-0x10(%rbp)
   15824:	7e b0                	jle    157d6 <main+0x978>
   15826:	0f b7 05 19 7a 00 00 	movzwl 0x7a19(%rip),%eax        # 1d246 <g_1837>
   1582d:	48 0f bf c0          	movswq %ax,%rax
   15831:	8b 55 fc             	mov    -0x4(%rbp),%edx
   15834:	48 8d 35 74 2f 00 00 	lea    0x2f74(%rip),%rsi        # 187af <g_1737+0x171d>
   1583b:	48 89 c7             	mov    %rax,%rdi
   1583e:	e8 b0 4e ff ff       	callq  a6f3 <transparent_crc>
   15843:	0f b7 05 fe 79 00 00 	movzwl 0x79fe(%rip),%eax        # 1d248 <g_1968>
   1584a:	48 0f bf c0          	movswq %ax,%rax
   1584e:	8b 55 fc             	mov    -0x4(%rbp),%edx
   15851:	48 8d 35 61 2f 00 00 	lea    0x2f61(%rip),%rsi        # 187b9 <g_1737+0x1727>
   15858:	48 89 c7             	mov    %rax,%rdi
   1585b:	e8 93 4e ff ff       	callq  a6f3 <transparent_crc>
   15860:	0f b7 05 e3 79 00 00 	movzwl 0x79e3(%rip),%eax        # 1d24a <g_2102>
   15867:	48 0f bf c0          	movswq %ax,%rax
   1586b:	8b 55 fc             	mov    -0x4(%rbp),%edx
   1586e:	48 8d 35 4b 2f 00 00 	lea    0x2f4b(%rip),%rsi        # 187c0 <g_1737+0x172e>
   15875:	48 89 c7             	mov    %rax,%rdi
   15878:	e8 76 4e ff ff       	callq  a6f3 <transparent_crc>
   1587d:	8b 05 c9 79 00 00    	mov    0x79c9(%rip),%eax        # 1d24c <g_2139>
   15883:	48 98                	cltq   
   15885:	8b 55 fc             	mov    -0x4(%rbp),%edx
   15888:	48 8d 35 3b 2f 00 00 	lea    0x2f3b(%rip),%rsi        # 187ca <g_1737+0x1738>
   1588f:	48 89 c7             	mov    %rax,%rdi
   15892:	e8 5c 4e ff ff       	callq  a6f3 <transparent_crc>
   15897:	0f b7 05 b2 79 00 00 	movzwl 0x79b2(%rip),%eax        # 1d250 <g_2180>
   1589e:	48 0f bf c0          	movswq %ax,%rax
   158a2:	8b 55 fc             	mov    -0x4(%rbp),%edx
   158a5:	48 8d 35 25 2f 00 00 	lea    0x2f25(%rip),%rsi        # 187d1 <g_1737+0x173f>
   158ac:	48 89 c7             	mov    %rax,%rdi
   158af:	e8 3f 4e ff ff       	callq  a6f3 <transparent_crc>
   158b4:	48 8b 05 25 b3 00 00 	mov    0xb325(%rip),%rax        # 20be0 <g_2239>
   158bb:	48 89 c1             	mov    %rax,%rcx
   158be:	8b 45 fc             	mov    -0x4(%rbp),%eax
   158c1:	89 c2                	mov    %eax,%edx
   158c3:	48 8d 35 11 2f 00 00 	lea    0x2f11(%rip),%rsi        # 187db <g_1737+0x1749>
   158ca:	48 89 cf             	mov    %rcx,%rdi
   158cd:	e8 21 4e ff ff       	callq  a6f3 <transparent_crc>
   158d2:	c7 45 f0 00 00 00 00 	movl   $0x0,-0x10(%rbp)
   158d9:	e9 92 00 00 00       	jmpq   15970 <main+0xb12>
   158de:	c7 45 f4 00 00 00 00 	movl   $0x0,-0xc(%rbp)
   158e5:	eb 7b                	jmp    15962 <main+0xb04>
   158e7:	c7 45 f8 00 00 00 00 	movl   $0x0,-0x8(%rbp)
   158ee:	eb 68                	jmp    15958 <main+0xafa>
   158f0:	8b 45 f8             	mov    -0x8(%rbp),%eax
   158f3:	48 63 d0             	movslq %eax,%rdx
   158f6:	8b 45 f4             	mov    -0xc(%rbp),%eax
   158f9:	48 98                	cltq   
   158fb:	8b 4d f0             	mov    -0x10(%rbp),%ecx
   158fe:	48 63 c9             	movslq %ecx,%rcx
   15901:	48 01 c9             	add    %rcx,%rcx
   15904:	48 01 ca             	add    %rcx,%rdx
   15907:	48 01 d0             	add    %rdx,%rax
   1590a:	48 8d 14 85 00 00 00 	lea    0x0(,%rax,4),%rdx
   15911:	00 
   15912:	48 8d 05 47 79 00 00 	lea    0x7947(%rip),%rax        # 1d260 <g_2246>
   15919:	8b 04 02             	mov    (%rdx,%rax,1),%eax
   1591c:	89 c1                	mov    %eax,%ecx
   1591e:	8b 45 fc             	mov    -0x4(%rbp),%eax
   15921:	89 c2                	mov    %eax,%edx
   15923:	48 8d 35 b8 2e 00 00 	lea    0x2eb8(%rip),%rsi        # 187e2 <g_1737+0x1750>
   1592a:	48 89 cf             	mov    %rcx,%rdi
   1592d:	e8 c1 4d ff ff       	callq  a6f3 <transparent_crc>
   15932:	83 7d fc 00          	cmpl   $0x0,-0x4(%rbp)
   15936:	74 1c                	je     15954 <main+0xaf6>
   15938:	8b 4d f8             	mov    -0x8(%rbp),%ecx
   1593b:	8b 55 f4             	mov    -0xc(%rbp),%edx
   1593e:	8b 45 f0             	mov    -0x10(%rbp),%eax
   15941:	89 c6                	mov    %eax,%esi
   15943:	48 8d 3d a5 2c 00 00 	lea    0x2ca5(%rip),%rdi        # 185ef <g_1737+0x155d>
   1594a:	b8 00 00 00 00       	mov    $0x0,%eax
   1594f:	e8 2c 37 ff ff       	callq  9080 <printf@plt>
   15954:	83 45 f8 01          	addl   $0x1,-0x8(%rbp)
   15958:	83 7d f8 00          	cmpl   $0x0,-0x8(%rbp)
   1595c:	7e 92                	jle    158f0 <main+0xa92>
   1595e:	83 45 f4 01          	addl   $0x1,-0xc(%rbp)
   15962:	83 7d f4 01          	cmpl   $0x1,-0xc(%rbp)
   15966:	0f 8e 7b ff ff ff    	jle    158e7 <main+0xa89>
   1596c:	83 45 f0 01          	addl   $0x1,-0x10(%rbp)
   15970:	83 7d f0 07          	cmpl   $0x7,-0x10(%rbp)
   15974:	0f 8e 64 ff ff ff    	jle    158de <main+0xa80>
   1597a:	c7 45 f0 00 00 00 00 	movl   $0x0,-0x10(%rbp)
   15981:	eb 4a                	jmp    159cd <main+0xb6f>
   15983:	8b 45 f0             	mov    -0x10(%rbp),%eax
   15986:	48 98                	cltq   
   15988:	48 8d 14 00          	lea    (%rax,%rax,1),%rdx
   1598c:	48 8d 05 0d 79 00 00 	lea    0x790d(%rip),%rax        # 1d2a0 <g_2264>
   15993:	0f b7 04 02          	movzwl (%rdx,%rax,1),%eax
   15997:	48 0f bf c0          	movswq %ax,%rax
   1599b:	8b 55 fc             	mov    -0x4(%rbp),%edx
   1599e:	48 8d 35 4d 2e 00 00 	lea    0x2e4d(%rip),%rsi        # 187f2 <g_1737+0x1760>
   159a5:	48 89 c7             	mov    %rax,%rdi
   159a8:	e8 46 4d ff ff       	callq  a6f3 <transparent_crc>
   159ad:	83 7d fc 00          	cmpl   $0x0,-0x4(%rbp)
   159b1:	74 16                	je     159c9 <main+0xb6b>
   159b3:	8b 45 f0             	mov    -0x10(%rbp),%eax
   159b6:	89 c6                	mov    %eax,%esi
   159b8:	48 8d 3d 56 2c 00 00 	lea    0x2c56(%rip),%rdi        # 18615 <g_1737+0x1583>
   159bf:	b8 00 00 00 00       	mov    $0x0,%eax
   159c4:	e8 b7 36 ff ff       	callq  9080 <printf@plt>
   159c9:	83 45 f0 01          	addl   $0x1,-0x10(%rbp)
   159cd:	83 7d f0 09          	cmpl   $0x9,-0x10(%rbp)
   159d1:	7e b0                	jle    15983 <main+0xb25>
   159d3:	0f b7 05 da 78 00 00 	movzwl 0x78da(%rip),%eax        # 1d2b4 <g_2266>
   159da:	48 0f bf c0          	movswq %ax,%rax
   159de:	8b 55 fc             	mov    -0x4(%rbp),%edx
   159e1:	48 8d 35 17 2e 00 00 	lea    0x2e17(%rip),%rsi        # 187ff <g_1737+0x176d>
   159e8:	48 89 c7             	mov    %rax,%rdi
   159eb:	e8 03 4d ff ff       	callq  a6f3 <transparent_crc>
   159f0:	0f b7 05 bf 78 00 00 	movzwl 0x78bf(%rip),%eax        # 1d2b6 <g_2307>
   159f7:	48 0f bf c0          	movswq %ax,%rax
   159fb:	8b 55 fc             	mov    -0x4(%rbp),%edx
   159fe:	48 8d 35 04 2e 00 00 	lea    0x2e04(%rip),%rsi        # 18809 <g_1737+0x1777>
   15a05:	48 89 c7             	mov    %rax,%rdi
   15a08:	e8 e6 4c ff ff       	callq  a6f3 <transparent_crc>
   15a0d:	c7 45 f0 00 00 00 00 	movl   $0x0,-0x10(%rbp)
   15a14:	eb 4a                	jmp    15a60 <main+0xc02>
   15a16:	8b 45 f0             	mov    -0x10(%rbp),%eax
   15a19:	48 98                	cltq   
   15a1b:	48 8d 14 00          	lea    (%rax,%rax,1),%rdx
   15a1f:	48 8d 05 9a 78 00 00 	lea    0x789a(%rip),%rax        # 1d2c0 <g_2341>
   15a26:	0f b7 04 02          	movzwl (%rdx,%rax,1),%eax
   15a2a:	48 0f bf c0          	movswq %ax,%rax
   15a2e:	8b 55 fc             	mov    -0x4(%rbp),%edx
   15a31:	48 8d 35 db 2d 00 00 	lea    0x2ddb(%rip),%rsi        # 18813 <g_1737+0x1781>
   15a38:	48 89 c7             	mov    %rax,%rdi
   15a3b:	e8 b3 4c ff ff       	callq  a6f3 <transparent_crc>
   15a40:	83 7d fc 00          	cmpl   $0x0,-0x4(%rbp)
   15a44:	74 16                	je     15a5c <main+0xbfe>
   15a46:	8b 45 f0             	mov    -0x10(%rbp),%eax
   15a49:	89 c6                	mov    %eax,%esi
   15a4b:	48 8d 3d c3 2b 00 00 	lea    0x2bc3(%rip),%rdi        # 18615 <g_1737+0x1583>
   15a52:	b8 00 00 00 00       	mov    $0x0,%eax
   15a57:	e8 24 36 ff ff       	callq  9080 <printf@plt>
   15a5c:	83 45 f0 01          	addl   $0x1,-0x10(%rbp)
   15a60:	83 7d f0 08          	cmpl   $0x8,-0x10(%rbp)
   15a64:	7e b0                	jle    15a16 <main+0xbb8>
   15a66:	8b 05 68 78 00 00    	mov    0x7868(%rip),%eax        # 1d2d4 <g_2344>
   15a6c:	89 c1                	mov    %eax,%ecx
   15a6e:	8b 45 fc             	mov    -0x4(%rbp),%eax
   15a71:	89 c2                	mov    %eax,%edx
   15a73:	48 8d 35 a6 2d 00 00 	lea    0x2da6(%rip),%rsi        # 18820 <g_1737+0x178e>
   15a7a:	48 89 cf             	mov    %rcx,%rdi
   15a7d:	e8 71 4c ff ff       	callq  a6f3 <transparent_crc>
   15a82:	0f b7 05 4f 78 00 00 	movzwl 0x784f(%rip),%eax        # 1d2d8 <g_2399>
   15a89:	48 0f bf c0          	movswq %ax,%rax
   15a8d:	8b 55 fc             	mov    -0x4(%rbp),%edx
   15a90:	48 8d 35 90 2d 00 00 	lea    0x2d90(%rip),%rsi        # 18827 <g_1737+0x1795>
   15a97:	48 89 c7             	mov    %rax,%rdi
   15a9a:	e8 54 4c ff ff       	callq  a6f3 <transparent_crc>
   15a9f:	0f b7 05 4a b1 00 00 	movzwl 0xb14a(%rip),%eax        # 20bf0 <g_2434>
   15aa6:	48 0f bf c0          	movswq %ax,%rax
   15aaa:	8b 55 fc             	mov    -0x4(%rbp),%edx
   15aad:	48 8d 35 7d 2d 00 00 	lea    0x2d7d(%rip),%rsi        # 18831 <g_1737+0x179f>
   15ab4:	48 89 c7             	mov    %rax,%rdi
   15ab7:	e8 37 4c ff ff       	callq  a6f3 <transparent_crc>
   15abc:	0f b7 05 17 78 00 00 	movzwl 0x7817(%rip),%eax        # 1d2da <g_2465>
   15ac3:	48 0f bf c0          	movswq %ax,%rax
   15ac7:	8b 55 fc             	mov    -0x4(%rbp),%edx
   15aca:	48 8d 35 6a 2d 00 00 	lea    0x2d6a(%rip),%rsi        # 1883b <g_1737+0x17a9>
   15ad1:	48 89 c7             	mov    %rax,%rdi
   15ad4:	e8 1a 4c ff ff       	callq  a6f3 <transparent_crc>
   15ad9:	0f b7 05 fc 77 00 00 	movzwl 0x77fc(%rip),%eax        # 1d2dc <g_2512>
   15ae0:	0f b7 c0             	movzwl %ax,%eax
   15ae3:	8b 55 fc             	mov    -0x4(%rbp),%edx
   15ae6:	48 8d 35 58 2d 00 00 	lea    0x2d58(%rip),%rsi        # 18845 <g_1737+0x17b3>
   15aed:	48 89 c7             	mov    %rax,%rdi
   15af0:	e8 fe 4b ff ff       	callq  a6f3 <transparent_crc>
   15af5:	0f b7 05 e2 77 00 00 	movzwl 0x77e2(%rip),%eax        # 1d2de <g_2555>
   15afc:	0f b7 c0             	movzwl %ax,%eax
   15aff:	8b 55 fc             	mov    -0x4(%rbp),%edx
   15b02:	48 8d 35 43 2d 00 00 	lea    0x2d43(%rip),%rsi        # 1884c <g_1737+0x17ba>
   15b09:	48 89 c7             	mov    %rax,%rdi
   15b0c:	e8 e2 4b ff ff       	callq  a6f3 <transparent_crc>
   15b11:	8b 05 dd b0 00 00    	mov    0xb0dd(%rip),%eax        # 20bf4 <g_2598>
   15b17:	48 98                	cltq   
   15b19:	8b 55 fc             	mov    -0x4(%rbp),%edx
   15b1c:	48 8d 35 30 2d 00 00 	lea    0x2d30(%rip),%rsi        # 18853 <g_1737+0x17c1>
   15b23:	48 89 c7             	mov    %rax,%rdi
   15b26:	e8 c8 4b ff ff       	callq  a6f3 <transparent_crc>
   15b2b:	8b 05 af 77 00 00    	mov    0x77af(%rip),%eax        # 1d2e0 <g_2635>
   15b31:	48 98                	cltq   
   15b33:	8b 55 fc             	mov    -0x4(%rbp),%edx
   15b36:	48 8d 35 1d 2d 00 00 	lea    0x2d1d(%rip),%rsi        # 1885a <g_1737+0x17c8>
   15b3d:	48 89 c7             	mov    %rax,%rdi
   15b40:	e8 ae 4b ff ff       	callq  a6f3 <transparent_crc>
   15b45:	8b 05 ad b0 00 00    	mov    0xb0ad(%rip),%eax        # 20bf8 <g_2641>
   15b4b:	89 c1                	mov    %eax,%ecx
   15b4d:	8b 45 fc             	mov    -0x4(%rbp),%eax
   15b50:	89 c2                	mov    %eax,%edx
   15b52:	48 8d 35 08 2d 00 00 	lea    0x2d08(%rip),%rsi        # 18861 <g_1737+0x17cf>
   15b59:	48 89 cf             	mov    %rcx,%rdi
   15b5c:	e8 92 4b ff ff       	callq  a6f3 <transparent_crc>
   15b61:	0f b6 05 7c 77 00 00 	movzbl 0x777c(%rip),%eax        # 1d2e4 <g_2700>
   15b68:	48 0f be c0          	movsbq %al,%rax
   15b6c:	8b 55 fc             	mov    -0x4(%rbp),%edx
   15b6f:	48 8d 35 f2 2c 00 00 	lea    0x2cf2(%rip),%rsi        # 18868 <g_1737+0x17d6>
   15b76:	48 89 c7             	mov    %rax,%rdi
   15b79:	e8 75 4b ff ff       	callq  a6f3 <transparent_crc>
   15b7e:	c7 45 f0 00 00 00 00 	movl   $0x0,-0x10(%rbp)
   15b85:	eb 4a                	jmp    15bd1 <main+0xd73>
   15b87:	8b 45 f0             	mov    -0x10(%rbp),%eax
   15b8a:	48 98                	cltq   
   15b8c:	48 8d 14 00          	lea    (%rax,%rax,1),%rdx
   15b90:	48 8d 05 51 77 00 00 	lea    0x7751(%rip),%rax        # 1d2e8 <g_2703>
   15b97:	0f b7 04 02          	movzwl (%rdx,%rax,1),%eax
   15b9b:	48 0f bf c0          	movswq %ax,%rax
   15b9f:	8b 55 fc             	mov    -0x4(%rbp),%edx
   15ba2:	48 8d 35 c6 2c 00 00 	lea    0x2cc6(%rip),%rsi        # 1886f <g_1737+0x17dd>
   15ba9:	48 89 c7             	mov    %rax,%rdi
   15bac:	e8 42 4b ff ff       	callq  a6f3 <transparent_crc>
   15bb1:	83 7d fc 00          	cmpl   $0x0,-0x4(%rbp)
   15bb5:	74 16                	je     15bcd <main+0xd6f>
   15bb7:	8b 45 f0             	mov    -0x10(%rbp),%eax
   15bba:	89 c6                	mov    %eax,%esi
   15bbc:	48 8d 3d 52 2a 00 00 	lea    0x2a52(%rip),%rdi        # 18615 <g_1737+0x1583>
   15bc3:	b8 00 00 00 00       	mov    $0x0,%eax
   15bc8:	e8 b3 34 ff ff       	callq  9080 <printf@plt>
   15bcd:	83 45 f0 01          	addl   $0x1,-0x10(%rbp)
   15bd1:	83 7d f0 04          	cmpl   $0x4,-0x10(%rbp)
   15bd5:	7e b0                	jle    15b87 <main+0xd29>
   15bd7:	0f b7 05 14 77 00 00 	movzwl 0x7714(%rip),%eax        # 1d2f2 <g_2742>
   15bde:	48 0f bf c0          	movswq %ax,%rax
   15be2:	8b 55 fc             	mov    -0x4(%rbp),%edx
   15be5:	48 8d 35 90 2c 00 00 	lea    0x2c90(%rip),%rsi        # 1887c <g_1737+0x17ea>
   15bec:	48 89 c7             	mov    %rax,%rdi
   15bef:	e8 ff 4a ff ff       	callq  a6f3 <transparent_crc>
   15bf4:	0f b7 05 f9 76 00 00 	movzwl 0x76f9(%rip),%eax        # 1d2f4 <g_2749>
   15bfb:	48 0f bf c0          	movswq %ax,%rax
   15bff:	8b 55 fc             	mov    -0x4(%rbp),%edx
   15c02:	48 8d 35 7d 2c 00 00 	lea    0x2c7d(%rip),%rsi        # 18886 <g_1737+0x17f4>
   15c09:	48 89 c7             	mov    %rax,%rdi
   15c0c:	e8 e2 4a ff ff       	callq  a6f3 <transparent_crc>
   15c11:	c7 45 f0 00 00 00 00 	movl   $0x0,-0x10(%rbp)
   15c18:	eb 4f                	jmp    15c69 <main+0xe0b>
   15c1a:	8b 45 f0             	mov    -0x10(%rbp),%eax
   15c1d:	48 98                	cltq   
   15c1f:	48 8d 14 c5 00 00 00 	lea    0x0(,%rax,8),%rdx
   15c26:	00 
   15c27:	48 8d 05 d2 76 00 00 	lea    0x76d2(%rip),%rax        # 1d300 <g_2779>
   15c2e:	48 8b 04 02          	mov    (%rdx,%rax,1),%rax
   15c32:	48 89 c1             	mov    %rax,%rcx
   15c35:	8b 45 fc             	mov    -0x4(%rbp),%eax
   15c38:	89 c2                	mov    %eax,%edx
   15c3a:	48 8d 35 4f 2c 00 00 	lea    0x2c4f(%rip),%rsi        # 18890 <g_1737+0x17fe>
   15c41:	48 89 cf             	mov    %rcx,%rdi
   15c44:	e8 aa 4a ff ff       	callq  a6f3 <transparent_crc>
   15c49:	83 7d fc 00          	cmpl   $0x0,-0x4(%rbp)
   15c4d:	74 16                	je     15c65 <main+0xe07>
   15c4f:	8b 45 f0             	mov    -0x10(%rbp),%eax
   15c52:	89 c6                	mov    %eax,%esi
   15c54:	48 8d 3d ba 29 00 00 	lea    0x29ba(%rip),%rdi        # 18615 <g_1737+0x1583>
   15c5b:	b8 00 00 00 00       	mov    $0x0,%eax
   15c60:	e8 1b 34 ff ff       	callq  9080 <printf@plt>
   15c65:	83 45 f0 01          	addl   $0x1,-0x10(%rbp)
   15c69:	83 7d f0 01          	cmpl   $0x1,-0x10(%rbp)
   15c6d:	7e ab                	jle    15c1a <main+0xdbc>
   15c6f:	c7 45 f0 00 00 00 00 	movl   $0x0,-0x10(%rbp)
   15c76:	eb 4d                	jmp    15cc5 <main+0xe67>
   15c78:	8b 45 f0             	mov    -0x10(%rbp),%eax
   15c7b:	48 98                	cltq   
   15c7d:	48 8d 14 85 00 00 00 	lea    0x0(,%rax,4),%rdx
   15c84:	00 
   15c85:	48 8d 05 94 76 00 00 	lea    0x7694(%rip),%rax        # 1d320 <g_2841>
   15c8c:	8b 04 02             	mov    (%rdx,%rax,1),%eax
   15c8f:	89 c1                	mov    %eax,%ecx
   15c91:	8b 45 fc             	mov    -0x4(%rbp),%eax
   15c94:	89 c2                	mov    %eax,%edx
   15c96:	48 8d 35 fd 2b 00 00 	lea    0x2bfd(%rip),%rsi        # 1889a <g_1737+0x1808>
   15c9d:	48 89 cf             	mov    %rcx,%rdi
   15ca0:	e8 4e 4a ff ff       	callq  a6f3 <transparent_crc>
   15ca5:	83 7d fc 00          	cmpl   $0x0,-0x4(%rbp)
   15ca9:	74 16                	je     15cc1 <main+0xe63>
   15cab:	8b 45 f0             	mov    -0x10(%rbp),%eax
   15cae:	89 c6                	mov    %eax,%esi
   15cb0:	48 8d 3d 5e 29 00 00 	lea    0x295e(%rip),%rdi        # 18615 <g_1737+0x1583>
   15cb7:	b8 00 00 00 00       	mov    $0x0,%eax
   15cbc:	e8 bf 33 ff ff       	callq  9080 <printf@plt>
   15cc1:	83 45 f0 01          	addl   $0x1,-0x10(%rbp)
   15cc5:	83 7d f0 09          	cmpl   $0x9,-0x10(%rbp)
   15cc9:	7e ad                	jle    15c78 <main+0xe1a>
   15ccb:	0f b7 05 76 76 00 00 	movzwl 0x7676(%rip),%eax        # 1d348 <g_2882>
   15cd2:	48 0f bf c0          	movswq %ax,%rax
   15cd6:	8b 55 fc             	mov    -0x4(%rbp),%edx
   15cd9:	48 8d 35 c7 2b 00 00 	lea    0x2bc7(%rip),%rsi        # 188a7 <g_1737+0x1815>
   15ce0:	48 89 c7             	mov    %rax,%rdi
   15ce3:	e8 0b 4a ff ff       	callq  a6f3 <transparent_crc>
   15ce8:	0f b7 05 5b 76 00 00 	movzwl 0x765b(%rip),%eax        # 1d34a <g_3002>
   15cef:	48 0f bf c0          	movswq %ax,%rax
   15cf3:	8b 55 fc             	mov    -0x4(%rbp),%edx
   15cf6:	48 8d 35 b4 2b 00 00 	lea    0x2bb4(%rip),%rsi        # 188b1 <g_1737+0x181f>
   15cfd:	48 89 c7             	mov    %rax,%rdi
   15d00:	e8 ee 49 ff ff       	callq  a6f3 <transparent_crc>
   15d05:	c7 45 f0 00 00 00 00 	movl   $0x0,-0x10(%rbp)
   15d0c:	eb 6b                	jmp    15d79 <main+0xf1b>
   15d0e:	c7 45 f4 00 00 00 00 	movl   $0x0,-0xc(%rbp)
   15d15:	eb 58                	jmp    15d6f <main+0xf11>
   15d17:	8b 45 f4             	mov    -0xc(%rbp),%eax
   15d1a:	48 98                	cltq   
   15d1c:	8b 55 f0             	mov    -0x10(%rbp),%edx
   15d1f:	48 63 d2             	movslq %edx,%rdx
   15d22:	48 c1 e2 02          	shl    $0x2,%rdx
   15d26:	48 01 c2             	add    %rax,%rdx
   15d29:	48 8d 05 30 76 00 00 	lea    0x7630(%rip),%rax        # 1d360 <g_3150>
   15d30:	48 01 d0             	add    %rdx,%rax
   15d33:	0f b6 00             	movzbl (%rax),%eax
   15d36:	48 0f be c0          	movsbq %al,%rax
   15d3a:	8b 55 fc             	mov    -0x4(%rbp),%edx
   15d3d:	48 8d 35 74 2b 00 00 	lea    0x2b74(%rip),%rsi        # 188b8 <g_1737+0x1826>
   15d44:	48 89 c7             	mov    %rax,%rdi
   15d47:	e8 a7 49 ff ff       	callq  a6f3 <transparent_crc>
   15d4c:	83 7d fc 00          	cmpl   $0x0,-0x4(%rbp)
   15d50:	74 19                	je     15d6b <main+0xf0d>
   15d52:	8b 55 f4             	mov    -0xc(%rbp),%edx
   15d55:	8b 45 f0             	mov    -0x10(%rbp),%eax
   15d58:	89 c6                	mov    %eax,%esi
   15d5a:	48 8d 3d 64 2b 00 00 	lea    0x2b64(%rip),%rdi        # 188c5 <g_1737+0x1833>
   15d61:	b8 00 00 00 00       	mov    $0x0,%eax
   15d66:	e8 15 33 ff ff       	callq  9080 <printf@plt>
   15d6b:	83 45 f4 01          	addl   $0x1,-0xc(%rbp)
   15d6f:	83 7d f4 03          	cmpl   $0x3,-0xc(%rbp)
   15d73:	7e a2                	jle    15d17 <main+0xeb9>
   15d75:	83 45 f0 01          	addl   $0x1,-0x10(%rbp)
   15d79:	83 7d f0 08          	cmpl   $0x8,-0x10(%rbp)
   15d7d:	7e 8f                	jle    15d0e <main+0xeb0>
   15d7f:	c7 45 f0 00 00 00 00 	movl   $0x0,-0x10(%rbp)
   15d86:	eb 6c                	jmp    15df4 <main+0xf96>
   15d88:	c7 45 f4 00 00 00 00 	movl   $0x0,-0xc(%rbp)
   15d8f:	eb 59                	jmp    15dea <main+0xf8c>
   15d91:	8b 45 f4             	mov    -0xc(%rbp),%eax
   15d94:	48 98                	cltq   
   15d96:	8b 55 f0             	mov    -0x10(%rbp),%edx
   15d99:	48 63 d2             	movslq %edx,%rdx
   15d9c:	48 01 d2             	add    %rdx,%rdx
   15d9f:	48 01 d0             	add    %rdx,%rax
   15da2:	48 8d 14 00          	lea    (%rax,%rax,1),%rdx
   15da6:	48 8d 05 f3 75 00 00 	lea    0x75f3(%rip),%rax        # 1d3a0 <g_3172>
   15dad:	0f b7 04 02          	movzwl (%rdx,%rax,1),%eax
   15db1:	48 0f bf c0          	movswq %ax,%rax
   15db5:	8b 55 fc             	mov    -0x4(%rbp),%edx
   15db8:	48 8d 35 18 2b 00 00 	lea    0x2b18(%rip),%rsi        # 188d7 <g_1737+0x1845>
   15dbf:	48 89 c7             	mov    %rax,%rdi
   15dc2:	e8 2c 49 ff ff       	callq  a6f3 <transparent_crc>
   15dc7:	83 7d fc 00          	cmpl   $0x0,-0x4(%rbp)
   15dcb:	74 19                	je     15de6 <main+0xf88>
   15dcd:	8b 55 f4             	mov    -0xc(%rbp),%edx
   15dd0:	8b 45 f0             	mov    -0x10(%rbp),%eax
   15dd3:	89 c6                	mov    %eax,%esi
   15dd5:	48 8d 3d e9 2a 00 00 	lea    0x2ae9(%rip),%rdi        # 188c5 <g_1737+0x1833>
   15ddc:	b8 00 00 00 00       	mov    $0x0,%eax
   15de1:	e8 9a 32 ff ff       	callq  9080 <printf@plt>
   15de6:	83 45 f4 01          	addl   $0x1,-0xc(%rbp)
   15dea:	83 7d f4 01          	cmpl   $0x1,-0xc(%rbp)
   15dee:	7e a1                	jle    15d91 <main+0xf33>
   15df0:	83 45 f0 01          	addl   $0x1,-0x10(%rbp)
   15df4:	83 7d f0 07          	cmpl   $0x7,-0x10(%rbp)
   15df8:	7e 8e                	jle    15d88 <main+0xf2a>
   15dfa:	0f b7 05 bf 75 00 00 	movzwl 0x75bf(%rip),%eax        # 1d3c0 <g_3184>
   15e01:	48 0f bf c0          	movswq %ax,%rax
   15e05:	8b 55 fc             	mov    -0x4(%rbp),%edx
   15e08:	48 8d 35 d8 2a 00 00 	lea    0x2ad8(%rip),%rsi        # 188e7 <g_1737+0x1855>
   15e0f:	48 89 c7             	mov    %rax,%rdi
   15e12:	e8 dc 48 ff ff       	callq  a6f3 <transparent_crc>
   15e17:	0f b7 05 fa ad 00 00 	movzwl 0xadfa(%rip),%eax        # 20c18 <g_3208>
   15e1e:	48 0f bf c0          	movswq %ax,%rax
   15e22:	8b 55 fc             	mov    -0x4(%rbp),%edx
   15e25:	48 8d 35 c5 2a 00 00 	lea    0x2ac5(%rip),%rsi        # 188f1 <g_1737+0x185f>
   15e2c:	48 89 c7             	mov    %rax,%rdi
   15e2f:	e8 bf 48 ff ff       	callq  a6f3 <transparent_crc>
   15e34:	c7 45 f0 00 00 00 00 	movl   $0x0,-0x10(%rbp)
   15e3b:	eb 4b                	jmp    15e88 <main+0x102a>
   15e3d:	8b 45 f0             	mov    -0x10(%rbp),%eax
   15e40:	48 98                	cltq   
   15e42:	48 8d 14 85 00 00 00 	lea    0x0(,%rax,4),%rdx
   15e49:	00 
   15e4a:	48 8d 05 8f 75 00 00 	lea    0x758f(%rip),%rax        # 1d3e0 <g_3267>
   15e51:	8b 04 02             	mov    (%rdx,%rax,1),%eax
   15e54:	48 98                	cltq   
   15e56:	8b 55 fc             	mov    -0x4(%rbp),%edx
   15e59:	48 8d 35 9b 2a 00 00 	lea    0x2a9b(%rip),%rsi        # 188fb <g_1737+0x1869>
   15e60:	48 89 c7             	mov    %rax,%rdi
   15e63:	e8 8b 48 ff ff       	callq  a6f3 <transparent_crc>
   15e68:	83 7d fc 00          	cmpl   $0x0,-0x4(%rbp)
   15e6c:	74 16                	je     15e84 <main+0x1026>
   15e6e:	8b 45 f0             	mov    -0x10(%rbp),%eax
   15e71:	89 c6                	mov    %eax,%esi
   15e73:	48 8d 3d 9b 27 00 00 	lea    0x279b(%rip),%rdi        # 18615 <g_1737+0x1583>
   15e7a:	b8 00 00 00 00       	mov    $0x0,%eax
   15e7f:	e8 fc 31 ff ff       	callq  9080 <printf@plt>
   15e84:	83 45 f0 01          	addl   $0x1,-0x10(%rbp)
   15e88:	83 7d f0 09          	cmpl   $0x9,-0x10(%rbp)
   15e8c:	7e af                	jle    15e3d <main+0xfdf>
   15e8e:	c7 45 f0 00 00 00 00 	movl   $0x0,-0x10(%rbp)
   15e95:	eb 4a                	jmp    15ee1 <main+0x1083>
   15e97:	8b 45 f0             	mov    -0x10(%rbp),%eax
   15e9a:	48 98                	cltq   
   15e9c:	48 8d 14 00          	lea    (%rax,%rax,1),%rdx
   15ea0:	48 8d 05 61 75 00 00 	lea    0x7561(%rip),%rax        # 1d408 <g_3323>
   15ea7:	0f b7 04 02          	movzwl (%rdx,%rax,1),%eax
   15eab:	48 0f bf c0          	movswq %ax,%rax
   15eaf:	8b 55 fc             	mov    -0x4(%rbp),%edx
   15eb2:	48 8d 35 4c 2a 00 00 	lea    0x2a4c(%rip),%rsi        # 18905 <g_1737+0x1873>
   15eb9:	48 89 c7             	mov    %rax,%rdi
   15ebc:	e8 32 48 ff ff       	callq  a6f3 <transparent_crc>
   15ec1:	83 7d fc 00          	cmpl   $0x0,-0x4(%rbp)
   15ec5:	74 16                	je     15edd <main+0x107f>
   15ec7:	8b 45 f0             	mov    -0x10(%rbp),%eax
   15eca:	89 c6                	mov    %eax,%esi
   15ecc:	48 8d 3d 42 27 00 00 	lea    0x2742(%rip),%rdi        # 18615 <g_1737+0x1583>
   15ed3:	b8 00 00 00 00       	mov    $0x0,%eax
   15ed8:	e8 a3 31 ff ff       	callq  9080 <printf@plt>
   15edd:	83 45 f0 01          	addl   $0x1,-0x10(%rbp)
   15ee1:	83 7d f0 05          	cmpl   $0x5,-0x10(%rbp)
   15ee5:	7e b0                	jle    15e97 <main+0x1039>
   15ee7:	c7 45 f0 00 00 00 00 	movl   $0x0,-0x10(%rbp)
   15eee:	e9 a6 00 00 00       	jmpq   15f99 <main+0x113b>
   15ef3:	c7 45 f4 00 00 00 00 	movl   $0x0,-0xc(%rbp)
   15efa:	e9 8c 00 00 00       	jmpq   15f8b <main+0x112d>
   15eff:	c7 45 f8 00 00 00 00 	movl   $0x0,-0x8(%rbp)
   15f06:	eb 79                	jmp    15f81 <main+0x1123>
   15f08:	8b 45 f8             	mov    -0x8(%rbp),%eax
   15f0b:	48 63 f0             	movslq %eax,%rsi
   15f0e:	8b 45 f0             	mov    -0x10(%rbp),%eax
   15f11:	48 63 d0             	movslq %eax,%rdx
   15f14:	8b 45 f4             	mov    -0xc(%rbp),%eax
   15f17:	48 63 c8             	movslq %eax,%rcx
   15f1a:	48 89 d0             	mov    %rdx,%rax
   15f1d:	48 c1 e0 04          	shl    $0x4,%rax
   15f21:	48 29 d0             	sub    %rdx,%rax
   15f24:	48 01 c0             	add    %rax,%rax
   15f27:	48 89 ca             	mov    %rcx,%rdx
   15f2a:	48 01 d2             	add    %rdx,%rdx
   15f2d:	48 01 ca             	add    %rcx,%rdx
   15f30:	48 01 d0             	add    %rdx,%rax
   15f33:	48 01 f0             	add    %rsi,%rax
   15f36:	48 8d 14 00          	lea    (%rax,%rax,1),%rdx
   15f3a:	48 8d 05 df 74 00 00 	lea    0x74df(%rip),%rax        # 1d420 <g_3355>
   15f41:	0f b7 04 02          	movzwl (%rdx,%rax,1),%eax
   15f45:	48 0f bf c0          	movswq %ax,%rax
   15f49:	8b 55 fc             	mov    -0x4(%rbp),%edx
   15f4c:	48 8d 35 bc 29 00 00 	lea    0x29bc(%rip),%rsi        # 1890f <g_1737+0x187d>
   15f53:	48 89 c7             	mov    %rax,%rdi
   15f56:	e8 98 47 ff ff       	callq  a6f3 <transparent_crc>
   15f5b:	83 7d fc 00          	cmpl   $0x0,-0x4(%rbp)
   15f5f:	74 1c                	je     15f7d <main+0x111f>
   15f61:	8b 4d f8             	mov    -0x8(%rbp),%ecx
   15f64:	8b 55 f4             	mov    -0xc(%rbp),%edx
   15f67:	8b 45 f0             	mov    -0x10(%rbp),%eax
   15f6a:	89 c6                	mov    %eax,%esi
   15f6c:	48 8d 3d 7c 26 00 00 	lea    0x267c(%rip),%rdi        # 185ef <g_1737+0x155d>
   15f73:	b8 00 00 00 00       	mov    $0x0,%eax
   15f78:	e8 03 31 ff ff       	callq  9080 <printf@plt>
   15f7d:	83 45 f8 01          	addl   $0x1,-0x8(%rbp)
   15f81:	83 7d f8 02          	cmpl   $0x2,-0x8(%rbp)
   15f85:	7e 81                	jle    15f08 <main+0x10aa>
   15f87:	83 45 f4 01          	addl   $0x1,-0xc(%rbp)
   15f8b:	83 7d f4 09          	cmpl   $0x9,-0xc(%rbp)
   15f8f:	0f 8e 6a ff ff ff    	jle    15eff <main+0x10a1>
   15f95:	83 45 f0 01          	addl   $0x1,-0x10(%rbp)
   15f99:	83 7d f0 07          	cmpl   $0x7,-0x10(%rbp)
   15f9d:	0f 8e 50 ff ff ff    	jle    15ef3 <main+0x1095>
   15fa3:	0f b6 05 56 76 00 00 	movzbl 0x7656(%rip),%eax        # 1d600 <g_3396>
   15faa:	0f b6 c0             	movzbl %al,%eax
   15fad:	8b 55 fc             	mov    -0x4(%rbp),%edx
   15fb0:	48 8d 35 6b 29 00 00 	lea    0x296b(%rip),%rsi        # 18922 <g_1737+0x1890>
   15fb7:	48 89 c7             	mov    %rax,%rdi
   15fba:	e8 34 47 ff ff       	callq  a6f3 <transparent_crc>
   15fbf:	c7 45 f0 00 00 00 00 	movl   $0x0,-0x10(%rbp)
   15fc6:	eb 45                	jmp    1600d <main+0x11af>
   15fc8:	8b 45 f0             	mov    -0x10(%rbp),%eax
   15fcb:	48 98                	cltq   
   15fcd:	48 8d 15 2d 76 00 00 	lea    0x762d(%rip),%rdx        # 1d601 <g_3397>
   15fd4:	0f b6 04 10          	movzbl (%rax,%rdx,1),%eax
   15fd8:	0f b6 c0             	movzbl %al,%eax
   15fdb:	8b 55 fc             	mov    -0x4(%rbp),%edx
   15fde:	48 8d 35 44 29 00 00 	lea    0x2944(%rip),%rsi        # 18929 <g_1737+0x1897>
   15fe5:	48 89 c7             	mov    %rax,%rdi
   15fe8:	e8 06 47 ff ff       	callq  a6f3 <transparent_crc>
   15fed:	83 7d fc 00          	cmpl   $0x0,-0x4(%rbp)
   15ff1:	74 16                	je     16009 <main+0x11ab>
   15ff3:	8b 45 f0             	mov    -0x10(%rbp),%eax
   15ff6:	89 c6                	mov    %eax,%esi
   15ff8:	48 8d 3d 16 26 00 00 	lea    0x2616(%rip),%rdi        # 18615 <g_1737+0x1583>
   15fff:	b8 00 00 00 00       	mov    $0x0,%eax
   16004:	e8 77 30 ff ff       	callq  9080 <printf@plt>
   16009:	83 45 f0 01          	addl   $0x1,-0x10(%rbp)
   1600d:	83 7d f0 06          	cmpl   $0x6,-0x10(%rbp)
   16011:	7e b5                	jle    15fc8 <main+0x116a>
   16013:	8b 05 07 60 00 00    	mov    0x6007(%rip),%eax        # 1c020 <crc32_context>
   16019:	f7 d0                	not    %eax
   1601b:	89 c2                	mov    %eax,%edx
   1601d:	8b 45 fc             	mov    -0x4(%rbp),%eax
   16020:	89 c6                	mov    %eax,%esi
   16022:	89 d7                	mov    %edx,%edi
   16024:	e8 6b 31 ff ff       	callq  9194 <platform_main_end>
   16029:	b8 00 00 00 00       	mov    $0x0,%eax
   1602e:	c9                   	leaveq 
   1602f:	c3                   	retq   

0000000000016030 <__libc_csu_init>:
   16030:	f3 0f 1e fa          	endbr64 
   16034:	41 57                	push   %r15
   16036:	4c 8d 3d d3 5c 00 00 	lea    0x5cd3(%rip),%r15        # 1bd10 <__frame_dummy_init_array_entry>
   1603d:	41 56                	push   %r14
   1603f:	49 89 d6             	mov    %rdx,%r14
   16042:	41 55                	push   %r13
   16044:	49 89 f5             	mov    %rsi,%r13
   16047:	41 54                	push   %r12
   16049:	41 89 fc             	mov    %edi,%r12d
   1604c:	55                   	push   %rbp
   1604d:	48 8d 2d c4 5c 00 00 	lea    0x5cc4(%rip),%rbp        # 1bd18 <__do_global_dtors_aux_fini_array_entry>
   16054:	53                   	push   %rbx
   16055:	4c 29 fd             	sub    %r15,%rbp
   16058:	48 83 ec 08          	sub    $0x8,%rsp
   1605c:	e8 9f 2f ff ff       	callq  9000 <_init>
   16061:	48 c1 fd 03          	sar    $0x3,%rbp
   16065:	74 1f                	je     16086 <__libc_csu_init+0x56>
   16067:	31 db                	xor    %ebx,%ebx
   16069:	0f 1f 80 00 00 00 00 	nopl   0x0(%rax)
   16070:	4c 89 f2             	mov    %r14,%rdx
   16073:	4c 89 ee             	mov    %r13,%rsi
   16076:	44 89 e7             	mov    %r12d,%edi
   16079:	41 ff 14 df          	callq  *(%r15,%rbx,8)
   1607d:	48 83 c3 01          	add    $0x1,%rbx
   16081:	48 39 dd             	cmp    %rbx,%rbp
   16084:	75 ea                	jne    16070 <__libc_csu_init+0x40>
   16086:	48 83 c4 08          	add    $0x8,%rsp
   1608a:	5b                   	pop    %rbx
   1608b:	5d                   	pop    %rbp
   1608c:	41 5c                	pop    %r12
   1608e:	41 5d                	pop    %r13
   16090:	41 5e                	pop    %r14
   16092:	41 5f                	pop    %r15
   16094:	c3                   	retq   
   16095:	66 66 2e 0f 1f 84 00 	data16 nopw %cs:0x0(%rax,%rax,1)
   1609c:	00 00 00 00 

00000000000160a0 <__libc_csu_fini>:
   160a0:	f3 0f 1e fa          	endbr64 
   160a4:	c3                   	retq   
