


Disassembly of section .text:

00000000000060a0 <_start>:
    60a0:	f3 0f 1e fa          	endbr64 
    60a4:	31 ed                	xor    %ebp,%ebp
    60a6:	49 89 d1             	mov    %rdx,%r9
    60a9:	5e                   	pop    %rsi
    60aa:	48 89 e2             	mov    %rsp,%rdx
    60ad:	48 83 e4 f0          	and    $0xfffffffffffffff0,%rsp
    60b1:	50                   	push   %rax
    60b2:	54                   	push   %rsp
    60b3:	4c 8d 05 a6 8e 00 00 	lea    0x8ea6(%rip),%r8        # ef60 <__libc_csu_fini>
    60ba:	48 8d 0d 2f 8e 00 00 	lea    0x8e2f(%rip),%rcx        # eef0 <__libc_csu_init>
    60c1:	48 8d 3d 27 82 00 00 	lea    0x8227(%rip),%rdi        # e2ef <main>
    60c8:	ff 15 12 bf 00 00    	callq  *0xbf12(%rip)        # 11fe0 <__libc_start_main@GLIBC_2.2.5>
    60ce:	f4                   	hlt    
    60cf:	90                   	nop

00000000000060d0 <deregister_tm_clones>:
    60d0:	48 8d 3d 31 e6 00 00 	lea    0xe631(%rip),%rdi        # 14708 <__TMC_END__>
    60d7:	48 8d 05 2a e6 00 00 	lea    0xe62a(%rip),%rax        # 14708 <__TMC_END__>
    60de:	48 39 f8             	cmp    %rdi,%rax
    60e1:	74 15                	je     60f8 <deregister_tm_clones+0x28>
    60e3:	48 8b 05 ee be 00 00 	mov    0xbeee(%rip),%rax        # 11fd8 <_ITM_deregisterTMCloneTable>
    60ea:	48 85 c0             	test   %rax,%rax
    60ed:	74 09                	je     60f8 <deregister_tm_clones+0x28>
    60ef:	ff e0                	jmpq   *%rax
    60f1:	0f 1f 80 00 00 00 00 	nopl   0x0(%rax)
    60f8:	c3                   	retq   
    60f9:	0f 1f 80 00 00 00 00 	nopl   0x0(%rax)

0000000000006100 <register_tm_clones>:
    6100:	48 8d 3d 01 e6 00 00 	lea    0xe601(%rip),%rdi        # 14708 <__TMC_END__>
    6107:	48 8d 35 fa e5 00 00 	lea    0xe5fa(%rip),%rsi        # 14708 <__TMC_END__>
    610e:	48 29 fe             	sub    %rdi,%rsi
    6111:	48 89 f0             	mov    %rsi,%rax
    6114:	48 c1 ee 3f          	shr    $0x3f,%rsi
    6118:	48 c1 f8 03          	sar    $0x3,%rax
    611c:	48 01 c6             	add    %rax,%rsi
    611f:	48 d1 fe             	sar    %rsi
    6122:	74 14                	je     6138 <register_tm_clones+0x38>
    6124:	48 8b 05 c5 be 00 00 	mov    0xbec5(%rip),%rax        # 11ff0 <_ITM_registerTMCloneTable>
    612b:	48 85 c0             	test   %rax,%rax
    612e:	74 08                	je     6138 <register_tm_clones+0x38>
    6130:	ff e0                	jmpq   *%rax
    6132:	66 0f 1f 44 00 00    	nopw   0x0(%rax,%rax,1)
    6138:	c3                   	retq   
    6139:	0f 1f 80 00 00 00 00 	nopl   0x0(%rax)

0000000000006140 <__do_global_dtors_aux>:
    6140:	f3 0f 1e fa          	endbr64 
    6144:	80 3d d5 e5 00 00 00 	cmpb   $0x0,0xe5d5(%rip)        # 14720 <completed.8061>
    614b:	75 2b                	jne    6178 <__do_global_dtors_aux+0x38>
    614d:	55                   	push   %rbp
    614e:	48 83 3d a2 be 00 00 	cmpq   $0x0,0xbea2(%rip)        # 11ff8 <__cxa_finalize@GLIBC_2.2.5>
    6155:	00 
    6156:	48 89 e5             	mov    %rsp,%rbp
    6159:	74 0c                	je     6167 <__do_global_dtors_aux+0x27>
    615b:	48 8b 3d a6 be 00 00 	mov    0xbea6(%rip),%rdi        # 12008 <__dso_handle>
    6162:	e8 f9 fe ff ff       	callq  6060 <__cxa_finalize@plt>
    6167:	e8 64 ff ff ff       	callq  60d0 <deregister_tm_clones>
    616c:	c6 05 ad e5 00 00 01 	movb   $0x1,0xe5ad(%rip)        # 14720 <completed.8061>
    6173:	5d                   	pop    %rbp
    6174:	c3                   	retq   
    6175:	0f 1f 00             	nopl   (%rax)
    6178:	c3                   	retq   
    6179:	0f 1f 80 00 00 00 00 	nopl   0x0(%rax)

0000000000006180 <frame_dummy>:
    6180:	f3 0f 1e fa          	endbr64 
    6184:	e9 77 ff ff ff       	jmpq   6100 <register_tm_clones>

0000000000006189 <platform_main_begin>:
    6189:	f3 0f 1e fa          	endbr64 
    618d:	55                   	push   %rbp
    618e:	48 89 e5             	mov    %rsp,%rbp
    6191:	90                   	nop
    6192:	5d                   	pop    %rbp
    6193:	c3                   	retq   

0000000000006194 <platform_main_end>:
    6194:	f3 0f 1e fa          	endbr64 
    6198:	55                   	push   %rbp
    6199:	48 89 e5             	mov    %rsp,%rbp
    619c:	48 83 ec 10          	sub    $0x10,%rsp
    61a0:	89 7d fc             	mov    %edi,-0x4(%rbp)
    61a3:	89 75 f8             	mov    %esi,-0x8(%rbp)
    61a6:	8b 45 fc             	mov    -0x4(%rbp),%eax
    61a9:	89 c6                	mov    %eax,%esi
    61ab:	48 8d 3d 6e 8e 00 00 	lea    0x8e6e(%rip),%rdi        # f020 <_IO_stdin_used+0x20>
    61b2:	b8 00 00 00 00       	mov    $0x0,%eax
    61b7:	e8 c4 fe ff ff       	callq  6080 <printf@plt>
    61bc:	90                   	nop
    61bd:	c9                   	leaveq 
    61be:	c3                   	retq   

00000000000061bf <safe_unary_minus_func_int8_t_s>:
    61bf:	f3 0f 1e fa          	endbr64 
    61c3:	55                   	push   %rbp
    61c4:	48 89 e5             	mov    %rsp,%rbp
    61c7:	89 f8                	mov    %edi,%eax
    61c9:	88 45 fc             	mov    %al,-0x4(%rbp)
    61cc:	0f b6 45 fc          	movzbl -0x4(%rbp),%eax
    61d0:	f7 d8                	neg    %eax
    61d2:	5d                   	pop    %rbp
    61d3:	c3                   	retq   

00000000000061d4 <safe_add_func_int8_t_s_s>:
    61d4:	f3 0f 1e fa          	endbr64 
    61d8:	55                   	push   %rbp
    61d9:	48 89 e5             	mov    %rsp,%rbp
    61dc:	89 fa                	mov    %edi,%edx
    61de:	89 f0                	mov    %esi,%eax
    61e0:	88 55 fc             	mov    %dl,-0x4(%rbp)
    61e3:	88 45 f8             	mov    %al,-0x8(%rbp)
    61e6:	0f b6 55 fc          	movzbl -0x4(%rbp),%edx
    61ea:	0f b6 45 f8          	movzbl -0x8(%rbp),%eax
    61ee:	01 d0                	add    %edx,%eax
    61f0:	5d                   	pop    %rbp
    61f1:	c3                   	retq   

00000000000061f2 <safe_sub_func_int8_t_s_s>:
    61f2:	f3 0f 1e fa          	endbr64 
    61f6:	55                   	push   %rbp
    61f7:	48 89 e5             	mov    %rsp,%rbp
    61fa:	89 fa                	mov    %edi,%edx
    61fc:	89 f0                	mov    %esi,%eax
    61fe:	88 55 fc             	mov    %dl,-0x4(%rbp)
    6201:	88 45 f8             	mov    %al,-0x8(%rbp)
    6204:	0f b6 55 fc          	movzbl -0x4(%rbp),%edx
    6208:	0f b6 45 f8          	movzbl -0x8(%rbp),%eax
    620c:	29 c2                	sub    %eax,%edx
    620e:	89 d0                	mov    %edx,%eax
    6210:	5d                   	pop    %rbp
    6211:	c3                   	retq   

0000000000006212 <safe_mul_func_int8_t_s_s>:
    6212:	f3 0f 1e fa          	endbr64 
    6216:	55                   	push   %rbp
    6217:	48 89 e5             	mov    %rsp,%rbp
    621a:	89 fa                	mov    %edi,%edx
    621c:	89 f0                	mov    %esi,%eax
    621e:	88 55 fc             	mov    %dl,-0x4(%rbp)
    6221:	88 45 f8             	mov    %al,-0x8(%rbp)
    6224:	0f b6 45 fc          	movzbl -0x4(%rbp),%eax
    6228:	0f b6 55 f8          	movzbl -0x8(%rbp),%edx
    622c:	0f af c2             	imul   %edx,%eax
    622f:	5d                   	pop    %rbp
    6230:	c3                   	retq   

0000000000006231 <safe_mod_func_int8_t_s_s>:
    6231:	f3 0f 1e fa          	endbr64 
    6235:	55                   	push   %rbp
    6236:	48 89 e5             	mov    %rsp,%rbp
    6239:	89 fa                	mov    %edi,%edx
    623b:	89 f0                	mov    %esi,%eax
    623d:	88 55 fc             	mov    %dl,-0x4(%rbp)
    6240:	88 45 f8             	mov    %al,-0x8(%rbp)
    6243:	80 7d f8 00          	cmpb   $0x0,-0x8(%rbp)
    6247:	74 1b                	je     6264 <safe_mod_func_int8_t_s_s+0x33>
    6249:	80 7d fc 80          	cmpb   $0x80,-0x4(%rbp)
    624d:	75 06                	jne    6255 <safe_mod_func_int8_t_s_s+0x24>
    624f:	80 7d f8 ff          	cmpb   $0xff,-0x8(%rbp)
    6253:	74 0f                	je     6264 <safe_mod_func_int8_t_s_s+0x33>
    6255:	0f be 45 fc          	movsbl -0x4(%rbp),%eax
    6259:	0f be 4d f8          	movsbl -0x8(%rbp),%ecx
    625d:	99                   	cltd   
    625e:	f7 f9                	idiv   %ecx
    6260:	89 d0                	mov    %edx,%eax
    6262:	eb 04                	jmp    6268 <safe_mod_func_int8_t_s_s+0x37>
    6264:	0f b6 45 fc          	movzbl -0x4(%rbp),%eax
    6268:	5d                   	pop    %rbp
    6269:	c3                   	retq   

000000000000626a <safe_div_func_int8_t_s_s>:
    626a:	f3 0f 1e fa          	endbr64 
    626e:	55                   	push   %rbp
    626f:	48 89 e5             	mov    %rsp,%rbp
    6272:	89 fa                	mov    %edi,%edx
    6274:	89 f0                	mov    %esi,%eax
    6276:	88 55 fc             	mov    %dl,-0x4(%rbp)
    6279:	88 45 f8             	mov    %al,-0x8(%rbp)
    627c:	80 7d f8 00          	cmpb   $0x0,-0x8(%rbp)
    6280:	74 19                	je     629b <safe_div_func_int8_t_s_s+0x31>
    6282:	80 7d fc 80          	cmpb   $0x80,-0x4(%rbp)
    6286:	75 06                	jne    628e <safe_div_func_int8_t_s_s+0x24>
    6288:	80 7d f8 ff          	cmpb   $0xff,-0x8(%rbp)
    628c:	74 0d                	je     629b <safe_div_func_int8_t_s_s+0x31>
    628e:	0f be 45 fc          	movsbl -0x4(%rbp),%eax
    6292:	0f be 4d f8          	movsbl -0x8(%rbp),%ecx
    6296:	99                   	cltd   
    6297:	f7 f9                	idiv   %ecx
    6299:	eb 04                	jmp    629f <safe_div_func_int8_t_s_s+0x35>
    629b:	0f b6 45 fc          	movzbl -0x4(%rbp),%eax
    629f:	5d                   	pop    %rbp
    62a0:	c3                   	retq   

00000000000062a1 <safe_lshift_func_int8_t_s_s>:
    62a1:	f3 0f 1e fa          	endbr64 
    62a5:	55                   	push   %rbp
    62a6:	48 89 e5             	mov    %rsp,%rbp
    62a9:	89 f8                	mov    %edi,%eax
    62ab:	89 75 f8             	mov    %esi,-0x8(%rbp)
    62ae:	88 45 fc             	mov    %al,-0x4(%rbp)
    62b1:	80 7d fc 00          	cmpb   $0x0,-0x4(%rbp)
    62b5:	78 31                	js     62e8 <safe_lshift_func_int8_t_s_s+0x47>
    62b7:	83 7d f8 00          	cmpl   $0x0,-0x8(%rbp)
    62bb:	78 2b                	js     62e8 <safe_lshift_func_int8_t_s_s+0x47>
    62bd:	83 7d f8 1f          	cmpl   $0x1f,-0x8(%rbp)
    62c1:	7f 25                	jg     62e8 <safe_lshift_func_int8_t_s_s+0x47>
    62c3:	0f be 55 fc          	movsbl -0x4(%rbp),%edx
    62c7:	8b 45 f8             	mov    -0x8(%rbp),%eax
    62ca:	be 7f 00 00 00       	mov    $0x7f,%esi
    62cf:	89 c1                	mov    %eax,%ecx
    62d1:	d3 fe                	sar    %cl,%esi
    62d3:	89 f0                	mov    %esi,%eax
    62d5:	39 c2                	cmp    %eax,%edx
    62d7:	7f 0f                	jg     62e8 <safe_lshift_func_int8_t_s_s+0x47>
    62d9:	0f be 55 fc          	movsbl -0x4(%rbp),%edx
    62dd:	8b 45 f8             	mov    -0x8(%rbp),%eax
    62e0:	89 c1                	mov    %eax,%ecx
    62e2:	d3 e2                	shl    %cl,%edx
    62e4:	89 d0                	mov    %edx,%eax
    62e6:	eb 04                	jmp    62ec <safe_lshift_func_int8_t_s_s+0x4b>
    62e8:	0f b6 45 fc          	movzbl -0x4(%rbp),%eax
    62ec:	5d                   	pop    %rbp
    62ed:	c3                   	retq   

00000000000062ee <safe_lshift_func_int8_t_s_u>:
    62ee:	f3 0f 1e fa          	endbr64 
    62f2:	55                   	push   %rbp
    62f3:	48 89 e5             	mov    %rsp,%rbp
    62f6:	89 f8                	mov    %edi,%eax
    62f8:	89 75 f8             	mov    %esi,-0x8(%rbp)
    62fb:	88 45 fc             	mov    %al,-0x4(%rbp)
    62fe:	80 7d fc 00          	cmpb   $0x0,-0x4(%rbp)
    6302:	78 2b                	js     632f <safe_lshift_func_int8_t_s_u+0x41>
    6304:	83 7d f8 1f          	cmpl   $0x1f,-0x8(%rbp)
    6308:	77 25                	ja     632f <safe_lshift_func_int8_t_s_u+0x41>
    630a:	0f be 55 fc          	movsbl -0x4(%rbp),%edx
    630e:	8b 45 f8             	mov    -0x8(%rbp),%eax
    6311:	be 7f 00 00 00       	mov    $0x7f,%esi
    6316:	89 c1                	mov    %eax,%ecx
    6318:	d3 fe                	sar    %cl,%esi
    631a:	89 f0                	mov    %esi,%eax
    631c:	39 c2                	cmp    %eax,%edx
    631e:	7f 0f                	jg     632f <safe_lshift_func_int8_t_s_u+0x41>
    6320:	0f be 55 fc          	movsbl -0x4(%rbp),%edx
    6324:	8b 45 f8             	mov    -0x8(%rbp),%eax
    6327:	89 c1                	mov    %eax,%ecx
    6329:	d3 e2                	shl    %cl,%edx
    632b:	89 d0                	mov    %edx,%eax
    632d:	eb 04                	jmp    6333 <safe_lshift_func_int8_t_s_u+0x45>
    632f:	0f b6 45 fc          	movzbl -0x4(%rbp),%eax
    6333:	5d                   	pop    %rbp
    6334:	c3                   	retq   

0000000000006335 <safe_rshift_func_int8_t_s_s>:
    6335:	f3 0f 1e fa          	endbr64 
    6339:	55                   	push   %rbp
    633a:	48 89 e5             	mov    %rsp,%rbp
    633d:	89 f8                	mov    %edi,%eax
    633f:	89 75 f8             	mov    %esi,-0x8(%rbp)
    6342:	88 45 fc             	mov    %al,-0x4(%rbp)
    6345:	80 7d fc 00          	cmpb   $0x0,-0x4(%rbp)
    6349:	78 1b                	js     6366 <safe_rshift_func_int8_t_s_s+0x31>
    634b:	83 7d f8 00          	cmpl   $0x0,-0x8(%rbp)
    634f:	78 15                	js     6366 <safe_rshift_func_int8_t_s_s+0x31>
    6351:	83 7d f8 1f          	cmpl   $0x1f,-0x8(%rbp)
    6355:	7f 0f                	jg     6366 <safe_rshift_func_int8_t_s_s+0x31>
    6357:	0f be 55 fc          	movsbl -0x4(%rbp),%edx
    635b:	8b 45 f8             	mov    -0x8(%rbp),%eax
    635e:	89 c1                	mov    %eax,%ecx
    6360:	d3 fa                	sar    %cl,%edx
    6362:	89 d0                	mov    %edx,%eax
    6364:	eb 04                	jmp    636a <safe_rshift_func_int8_t_s_s+0x35>
    6366:	0f b6 45 fc          	movzbl -0x4(%rbp),%eax
    636a:	5d                   	pop    %rbp
    636b:	c3                   	retq   

000000000000636c <safe_rshift_func_int8_t_s_u>:
    636c:	f3 0f 1e fa          	endbr64 
    6370:	55                   	push   %rbp
    6371:	48 89 e5             	mov    %rsp,%rbp
    6374:	89 f8                	mov    %edi,%eax
    6376:	89 75 f8             	mov    %esi,-0x8(%rbp)
    6379:	88 45 fc             	mov    %al,-0x4(%rbp)
    637c:	80 7d fc 00          	cmpb   $0x0,-0x4(%rbp)
    6380:	78 15                	js     6397 <safe_rshift_func_int8_t_s_u+0x2b>
    6382:	83 7d f8 1f          	cmpl   $0x1f,-0x8(%rbp)
    6386:	77 0f                	ja     6397 <safe_rshift_func_int8_t_s_u+0x2b>
    6388:	0f be 55 fc          	movsbl -0x4(%rbp),%edx
    638c:	8b 45 f8             	mov    -0x8(%rbp),%eax
    638f:	89 c1                	mov    %eax,%ecx
    6391:	d3 fa                	sar    %cl,%edx
    6393:	89 d0                	mov    %edx,%eax
    6395:	eb 04                	jmp    639b <safe_rshift_func_int8_t_s_u+0x2f>
    6397:	0f b6 45 fc          	movzbl -0x4(%rbp),%eax
    639b:	5d                   	pop    %rbp
    639c:	c3                   	retq   

000000000000639d <safe_unary_minus_func_int16_t_s>:
    639d:	f3 0f 1e fa          	endbr64 
    63a1:	55                   	push   %rbp
    63a2:	48 89 e5             	mov    %rsp,%rbp
    63a5:	89 f8                	mov    %edi,%eax
    63a7:	66 89 45 fc          	mov    %ax,-0x4(%rbp)
    63ab:	0f b7 45 fc          	movzwl -0x4(%rbp),%eax
    63af:	f7 d8                	neg    %eax
    63b1:	5d                   	pop    %rbp
    63b2:	c3                   	retq   

00000000000063b3 <safe_add_func_int16_t_s_s>:
    63b3:	f3 0f 1e fa          	endbr64 
    63b7:	55                   	push   %rbp
    63b8:	48 89 e5             	mov    %rsp,%rbp
    63bb:	89 fa                	mov    %edi,%edx
    63bd:	89 f0                	mov    %esi,%eax
    63bf:	66 89 55 fc          	mov    %dx,-0x4(%rbp)
    63c3:	66 89 45 f8          	mov    %ax,-0x8(%rbp)
    63c7:	0f b7 55 fc          	movzwl -0x4(%rbp),%edx
    63cb:	0f b7 45 f8          	movzwl -0x8(%rbp),%eax
    63cf:	01 d0                	add    %edx,%eax
    63d1:	5d                   	pop    %rbp
    63d2:	c3                   	retq   

00000000000063d3 <safe_sub_func_int16_t_s_s>:
    63d3:	f3 0f 1e fa          	endbr64 
    63d7:	55                   	push   %rbp
    63d8:	48 89 e5             	mov    %rsp,%rbp
    63db:	89 fa                	mov    %edi,%edx
    63dd:	89 f0                	mov    %esi,%eax
    63df:	66 89 55 fc          	mov    %dx,-0x4(%rbp)
    63e3:	66 89 45 f8          	mov    %ax,-0x8(%rbp)
    63e7:	0f b7 55 fc          	movzwl -0x4(%rbp),%edx
    63eb:	0f b7 45 f8          	movzwl -0x8(%rbp),%eax
    63ef:	29 c2                	sub    %eax,%edx
    63f1:	89 d0                	mov    %edx,%eax
    63f3:	5d                   	pop    %rbp
    63f4:	c3                   	retq   

00000000000063f5 <safe_mul_func_int16_t_s_s>:
    63f5:	f3 0f 1e fa          	endbr64 
    63f9:	55                   	push   %rbp
    63fa:	48 89 e5             	mov    %rsp,%rbp
    63fd:	89 fa                	mov    %edi,%edx
    63ff:	89 f0                	mov    %esi,%eax
    6401:	66 89 55 fc          	mov    %dx,-0x4(%rbp)
    6405:	66 89 45 f8          	mov    %ax,-0x8(%rbp)
    6409:	0f b7 55 fc          	movzwl -0x4(%rbp),%edx
    640d:	0f b7 45 f8          	movzwl -0x8(%rbp),%eax
    6411:	0f af c2             	imul   %edx,%eax
    6414:	5d                   	pop    %rbp
    6415:	c3                   	retq   

0000000000006416 <safe_mod_func_int16_t_s_s>:
    6416:	f3 0f 1e fa          	endbr64 
    641a:	55                   	push   %rbp
    641b:	48 89 e5             	mov    %rsp,%rbp
    641e:	89 fa                	mov    %edi,%edx
    6420:	89 f0                	mov    %esi,%eax
    6422:	66 89 55 fc          	mov    %dx,-0x4(%rbp)
    6426:	66 89 45 f8          	mov    %ax,-0x8(%rbp)
    642a:	66 83 7d f8 00       	cmpw   $0x0,-0x8(%rbp)
    642f:	74 1e                	je     644f <safe_mod_func_int16_t_s_s+0x39>
    6431:	66 81 7d fc 00 80    	cmpw   $0x8000,-0x4(%rbp)
    6437:	75 07                	jne    6440 <safe_mod_func_int16_t_s_s+0x2a>
    6439:	66 83 7d f8 ff       	cmpw   $0xffff,-0x8(%rbp)
    643e:	74 0f                	je     644f <safe_mod_func_int16_t_s_s+0x39>
    6440:	0f bf 45 fc          	movswl -0x4(%rbp),%eax
    6444:	0f bf 4d f8          	movswl -0x8(%rbp),%ecx
    6448:	99                   	cltd   
    6449:	f7 f9                	idiv   %ecx
    644b:	89 d0                	mov    %edx,%eax
    644d:	eb 04                	jmp    6453 <safe_mod_func_int16_t_s_s+0x3d>
    644f:	0f b7 45 fc          	movzwl -0x4(%rbp),%eax
    6453:	5d                   	pop    %rbp
    6454:	c3                   	retq   

0000000000006455 <safe_div_func_int16_t_s_s>:
    6455:	f3 0f 1e fa          	endbr64 
    6459:	55                   	push   %rbp
    645a:	48 89 e5             	mov    %rsp,%rbp
    645d:	89 fa                	mov    %edi,%edx
    645f:	89 f0                	mov    %esi,%eax
    6461:	66 89 55 fc          	mov    %dx,-0x4(%rbp)
    6465:	66 89 45 f8          	mov    %ax,-0x8(%rbp)
    6469:	66 83 7d f8 00       	cmpw   $0x0,-0x8(%rbp)
    646e:	74 1c                	je     648c <safe_div_func_int16_t_s_s+0x37>
    6470:	66 81 7d fc 00 80    	cmpw   $0x8000,-0x4(%rbp)
    6476:	75 07                	jne    647f <safe_div_func_int16_t_s_s+0x2a>
    6478:	66 83 7d f8 ff       	cmpw   $0xffff,-0x8(%rbp)
    647d:	74 0d                	je     648c <safe_div_func_int16_t_s_s+0x37>
    647f:	0f bf 45 fc          	movswl -0x4(%rbp),%eax
    6483:	0f bf 4d f8          	movswl -0x8(%rbp),%ecx
    6487:	99                   	cltd   
    6488:	f7 f9                	idiv   %ecx
    648a:	eb 04                	jmp    6490 <safe_div_func_int16_t_s_s+0x3b>
    648c:	0f b7 45 fc          	movzwl -0x4(%rbp),%eax
    6490:	5d                   	pop    %rbp
    6491:	c3                   	retq   

0000000000006492 <safe_lshift_func_int16_t_s_s>:
    6492:	f3 0f 1e fa          	endbr64 
    6496:	55                   	push   %rbp
    6497:	48 89 e5             	mov    %rsp,%rbp
    649a:	89 f8                	mov    %edi,%eax
    649c:	89 75 f8             	mov    %esi,-0x8(%rbp)
    649f:	66 89 45 fc          	mov    %ax,-0x4(%rbp)
    64a3:	66 83 7d fc 00       	cmpw   $0x0,-0x4(%rbp)
    64a8:	78 31                	js     64db <safe_lshift_func_int16_t_s_s+0x49>
    64aa:	83 7d f8 00          	cmpl   $0x0,-0x8(%rbp)
    64ae:	78 2b                	js     64db <safe_lshift_func_int16_t_s_s+0x49>
    64b0:	83 7d f8 1f          	cmpl   $0x1f,-0x8(%rbp)
    64b4:	7f 25                	jg     64db <safe_lshift_func_int16_t_s_s+0x49>
    64b6:	0f bf 55 fc          	movswl -0x4(%rbp),%edx
    64ba:	8b 45 f8             	mov    -0x8(%rbp),%eax
    64bd:	be ff 7f 00 00       	mov    $0x7fff,%esi
    64c2:	89 c1                	mov    %eax,%ecx
    64c4:	d3 fe                	sar    %cl,%esi
    64c6:	89 f0                	mov    %esi,%eax
    64c8:	39 c2                	cmp    %eax,%edx
    64ca:	7f 0f                	jg     64db <safe_lshift_func_int16_t_s_s+0x49>
    64cc:	0f bf 55 fc          	movswl -0x4(%rbp),%edx
    64d0:	8b 45 f8             	mov    -0x8(%rbp),%eax
    64d3:	89 c1                	mov    %eax,%ecx
    64d5:	d3 e2                	shl    %cl,%edx
    64d7:	89 d0                	mov    %edx,%eax
    64d9:	eb 04                	jmp    64df <safe_lshift_func_int16_t_s_s+0x4d>
    64db:	0f b7 45 fc          	movzwl -0x4(%rbp),%eax
    64df:	5d                   	pop    %rbp
    64e0:	c3                   	retq   

00000000000064e1 <safe_lshift_func_int16_t_s_u>:
    64e1:	f3 0f 1e fa          	endbr64 
    64e5:	55                   	push   %rbp
    64e6:	48 89 e5             	mov    %rsp,%rbp
    64e9:	89 f8                	mov    %edi,%eax
    64eb:	89 75 f8             	mov    %esi,-0x8(%rbp)
    64ee:	66 89 45 fc          	mov    %ax,-0x4(%rbp)
    64f2:	66 83 7d fc 00       	cmpw   $0x0,-0x4(%rbp)
    64f7:	78 2b                	js     6524 <safe_lshift_func_int16_t_s_u+0x43>
    64f9:	83 7d f8 1f          	cmpl   $0x1f,-0x8(%rbp)
    64fd:	77 25                	ja     6524 <safe_lshift_func_int16_t_s_u+0x43>
    64ff:	0f bf 55 fc          	movswl -0x4(%rbp),%edx
    6503:	8b 45 f8             	mov    -0x8(%rbp),%eax
    6506:	be ff 7f 00 00       	mov    $0x7fff,%esi
    650b:	89 c1                	mov    %eax,%ecx
    650d:	d3 fe                	sar    %cl,%esi
    650f:	89 f0                	mov    %esi,%eax
    6511:	39 c2                	cmp    %eax,%edx
    6513:	7f 0f                	jg     6524 <safe_lshift_func_int16_t_s_u+0x43>
    6515:	0f bf 55 fc          	movswl -0x4(%rbp),%edx
    6519:	8b 45 f8             	mov    -0x8(%rbp),%eax
    651c:	89 c1                	mov    %eax,%ecx
    651e:	d3 e2                	shl    %cl,%edx
    6520:	89 d0                	mov    %edx,%eax
    6522:	eb 04                	jmp    6528 <safe_lshift_func_int16_t_s_u+0x47>
    6524:	0f b7 45 fc          	movzwl -0x4(%rbp),%eax
    6528:	5d                   	pop    %rbp
    6529:	c3                   	retq   

000000000000652a <safe_rshift_func_int16_t_s_s>:
    652a:	f3 0f 1e fa          	endbr64 
    652e:	55                   	push   %rbp
    652f:	48 89 e5             	mov    %rsp,%rbp
    6532:	89 f8                	mov    %edi,%eax
    6534:	89 75 f8             	mov    %esi,-0x8(%rbp)
    6537:	66 89 45 fc          	mov    %ax,-0x4(%rbp)
    653b:	66 83 7d fc 00       	cmpw   $0x0,-0x4(%rbp)
    6540:	78 1b                	js     655d <safe_rshift_func_int16_t_s_s+0x33>
    6542:	83 7d f8 00          	cmpl   $0x0,-0x8(%rbp)
    6546:	78 15                	js     655d <safe_rshift_func_int16_t_s_s+0x33>
    6548:	83 7d f8 1f          	cmpl   $0x1f,-0x8(%rbp)
    654c:	7f 0f                	jg     655d <safe_rshift_func_int16_t_s_s+0x33>
    654e:	0f bf 55 fc          	movswl -0x4(%rbp),%edx
    6552:	8b 45 f8             	mov    -0x8(%rbp),%eax
    6555:	89 c1                	mov    %eax,%ecx
    6557:	d3 fa                	sar    %cl,%edx
    6559:	89 d0                	mov    %edx,%eax
    655b:	eb 04                	jmp    6561 <safe_rshift_func_int16_t_s_s+0x37>
    655d:	0f b7 45 fc          	movzwl -0x4(%rbp),%eax
    6561:	5d                   	pop    %rbp
    6562:	c3                   	retq   

0000000000006563 <safe_rshift_func_int16_t_s_u>:
    6563:	f3 0f 1e fa          	endbr64 
    6567:	55                   	push   %rbp
    6568:	48 89 e5             	mov    %rsp,%rbp
    656b:	89 f8                	mov    %edi,%eax
    656d:	89 75 f8             	mov    %esi,-0x8(%rbp)
    6570:	66 89 45 fc          	mov    %ax,-0x4(%rbp)
    6574:	66 83 7d fc 00       	cmpw   $0x0,-0x4(%rbp)
    6579:	78 15                	js     6590 <safe_rshift_func_int16_t_s_u+0x2d>
    657b:	83 7d f8 1f          	cmpl   $0x1f,-0x8(%rbp)
    657f:	77 0f                	ja     6590 <safe_rshift_func_int16_t_s_u+0x2d>
    6581:	0f bf 55 fc          	movswl -0x4(%rbp),%edx
    6585:	8b 45 f8             	mov    -0x8(%rbp),%eax
    6588:	89 c1                	mov    %eax,%ecx
    658a:	d3 fa                	sar    %cl,%edx
    658c:	89 d0                	mov    %edx,%eax
    658e:	eb 04                	jmp    6594 <safe_rshift_func_int16_t_s_u+0x31>
    6590:	0f b7 45 fc          	movzwl -0x4(%rbp),%eax
    6594:	5d                   	pop    %rbp
    6595:	c3                   	retq   

0000000000006596 <safe_unary_minus_func_int32_t_s>:
    6596:	f3 0f 1e fa          	endbr64 
    659a:	55                   	push   %rbp
    659b:	48 89 e5             	mov    %rsp,%rbp
    659e:	89 7d fc             	mov    %edi,-0x4(%rbp)
    65a1:	81 7d fc 00 00 00 80 	cmpl   $0x80000000,-0x4(%rbp)
    65a8:	74 07                	je     65b1 <safe_unary_minus_func_int32_t_s+0x1b>
    65aa:	8b 45 fc             	mov    -0x4(%rbp),%eax
    65ad:	f7 d8                	neg    %eax
    65af:	eb 03                	jmp    65b4 <safe_unary_minus_func_int32_t_s+0x1e>
    65b1:	8b 45 fc             	mov    -0x4(%rbp),%eax
    65b4:	5d                   	pop    %rbp
    65b5:	c3                   	retq   

00000000000065b6 <safe_add_func_int32_t_s_s>:
    65b6:	f3 0f 1e fa          	endbr64 
    65ba:	55                   	push   %rbp
    65bb:	48 89 e5             	mov    %rsp,%rbp
    65be:	89 7d fc             	mov    %edi,-0x4(%rbp)
    65c1:	89 75 f8             	mov    %esi,-0x8(%rbp)
    65c4:	83 7d fc 00          	cmpl   $0x0,-0x4(%rbp)
    65c8:	7e 13                	jle    65dd <safe_add_func_int32_t_s_s+0x27>
    65ca:	83 7d f8 00          	cmpl   $0x0,-0x8(%rbp)
    65ce:	7e 0d                	jle    65dd <safe_add_func_int32_t_s_s+0x27>
    65d0:	b8 ff ff ff 7f       	mov    $0x7fffffff,%eax
    65d5:	2b 45 f8             	sub    -0x8(%rbp),%eax
    65d8:	39 45 fc             	cmp    %eax,-0x4(%rbp)
    65db:	7f 23                	jg     6600 <safe_add_func_int32_t_s_s+0x4a>
    65dd:	83 7d fc 00          	cmpl   $0x0,-0x4(%rbp)
    65e1:	79 13                	jns    65f6 <safe_add_func_int32_t_s_s+0x40>
    65e3:	83 7d f8 00          	cmpl   $0x0,-0x8(%rbp)
    65e7:	79 0d                	jns    65f6 <safe_add_func_int32_t_s_s+0x40>
    65e9:	b8 00 00 00 80       	mov    $0x80000000,%eax
    65ee:	2b 45 f8             	sub    -0x8(%rbp),%eax
    65f1:	39 45 fc             	cmp    %eax,-0x4(%rbp)
    65f4:	7c 0a                	jl     6600 <safe_add_func_int32_t_s_s+0x4a>
    65f6:	8b 55 fc             	mov    -0x4(%rbp),%edx
    65f9:	8b 45 f8             	mov    -0x8(%rbp),%eax
    65fc:	01 d0                	add    %edx,%eax
    65fe:	eb 03                	jmp    6603 <safe_add_func_int32_t_s_s+0x4d>
    6600:	8b 45 fc             	mov    -0x4(%rbp),%eax
    6603:	5d                   	pop    %rbp
    6604:	c3                   	retq   

0000000000006605 <safe_sub_func_int32_t_s_s>:
    6605:	f3 0f 1e fa          	endbr64 
    6609:	55                   	push   %rbp
    660a:	48 89 e5             	mov    %rsp,%rbp
    660d:	89 7d fc             	mov    %edi,-0x4(%rbp)
    6610:	89 75 f8             	mov    %esi,-0x8(%rbp)
    6613:	8b 45 fc             	mov    -0x4(%rbp),%eax
    6616:	33 45 f8             	xor    -0x8(%rbp),%eax
    6619:	89 c2                	mov    %eax,%edx
    661b:	8b 45 fc             	mov    -0x4(%rbp),%eax
    661e:	33 45 f8             	xor    -0x8(%rbp),%eax
    6621:	25 00 00 00 80       	and    $0x80000000,%eax
    6626:	33 45 fc             	xor    -0x4(%rbp),%eax
    6629:	2b 45 f8             	sub    -0x8(%rbp),%eax
    662c:	33 45 f8             	xor    -0x8(%rbp),%eax
    662f:	21 d0                	and    %edx,%eax
    6631:	85 c0                	test   %eax,%eax
    6633:	78 08                	js     663d <safe_sub_func_int32_t_s_s+0x38>
    6635:	8b 45 fc             	mov    -0x4(%rbp),%eax
    6638:	2b 45 f8             	sub    -0x8(%rbp),%eax
    663b:	eb 03                	jmp    6640 <safe_sub_func_int32_t_s_s+0x3b>
    663d:	8b 45 fc             	mov    -0x4(%rbp),%eax
    6640:	5d                   	pop    %rbp
    6641:	c3                   	retq   

0000000000006642 <safe_mul_func_int32_t_s_s>:
    6642:	f3 0f 1e fa          	endbr64 
    6646:	55                   	push   %rbp
    6647:	48 89 e5             	mov    %rsp,%rbp
    664a:	89 7d fc             	mov    %edi,-0x4(%rbp)
    664d:	89 75 f8             	mov    %esi,-0x8(%rbp)
    6650:	83 7d fc 00          	cmpl   $0x0,-0x4(%rbp)
    6654:	7e 14                	jle    666a <safe_mul_func_int32_t_s_s+0x28>
    6656:	83 7d f8 00          	cmpl   $0x0,-0x8(%rbp)
    665a:	7e 0e                	jle    666a <safe_mul_func_int32_t_s_s+0x28>
    665c:	b8 ff ff ff 7f       	mov    $0x7fffffff,%eax
    6661:	99                   	cltd   
    6662:	f7 7d f8             	idivl  -0x8(%rbp)
    6665:	39 45 fc             	cmp    %eax,-0x4(%rbp)
    6668:	7f 5d                	jg     66c7 <safe_mul_func_int32_t_s_s+0x85>
    666a:	83 7d fc 00          	cmpl   $0x0,-0x4(%rbp)
    666e:	7e 14                	jle    6684 <safe_mul_func_int32_t_s_s+0x42>
    6670:	83 7d f8 00          	cmpl   $0x0,-0x8(%rbp)
    6674:	7f 0e                	jg     6684 <safe_mul_func_int32_t_s_s+0x42>
    6676:	b8 00 00 00 80       	mov    $0x80000000,%eax
    667b:	99                   	cltd   
    667c:	f7 7d fc             	idivl  -0x4(%rbp)
    667f:	39 45 f8             	cmp    %eax,-0x8(%rbp)
    6682:	7c 43                	jl     66c7 <safe_mul_func_int32_t_s_s+0x85>
    6684:	83 7d fc 00          	cmpl   $0x0,-0x4(%rbp)
    6688:	7f 14                	jg     669e <safe_mul_func_int32_t_s_s+0x5c>
    668a:	83 7d f8 00          	cmpl   $0x0,-0x8(%rbp)
    668e:	7e 0e                	jle    669e <safe_mul_func_int32_t_s_s+0x5c>
    6690:	b8 00 00 00 80       	mov    $0x80000000,%eax
    6695:	99                   	cltd   
    6696:	f7 7d f8             	idivl  -0x8(%rbp)
    6699:	39 45 fc             	cmp    %eax,-0x4(%rbp)
    669c:	7c 29                	jl     66c7 <safe_mul_func_int32_t_s_s+0x85>
    669e:	83 7d fc 00          	cmpl   $0x0,-0x4(%rbp)
    66a2:	7f 1a                	jg     66be <safe_mul_func_int32_t_s_s+0x7c>
    66a4:	83 7d f8 00          	cmpl   $0x0,-0x8(%rbp)
    66a8:	7f 14                	jg     66be <safe_mul_func_int32_t_s_s+0x7c>
    66aa:	83 7d fc 00          	cmpl   $0x0,-0x4(%rbp)
    66ae:	74 0e                	je     66be <safe_mul_func_int32_t_s_s+0x7c>
    66b0:	b8 ff ff ff 7f       	mov    $0x7fffffff,%eax
    66b5:	99                   	cltd   
    66b6:	f7 7d fc             	idivl  -0x4(%rbp)
    66b9:	39 45 f8             	cmp    %eax,-0x8(%rbp)
    66bc:	7c 09                	jl     66c7 <safe_mul_func_int32_t_s_s+0x85>
    66be:	8b 45 fc             	mov    -0x4(%rbp),%eax
    66c1:	0f af 45 f8          	imul   -0x8(%rbp),%eax
    66c5:	eb 03                	jmp    66ca <safe_mul_func_int32_t_s_s+0x88>
    66c7:	8b 45 fc             	mov    -0x4(%rbp),%eax
    66ca:	5d                   	pop    %rbp
    66cb:	c3                   	retq   

00000000000066cc <safe_mod_func_int32_t_s_s>:
    66cc:	f3 0f 1e fa          	endbr64 
    66d0:	55                   	push   %rbp
    66d1:	48 89 e5             	mov    %rsp,%rbp
    66d4:	89 7d fc             	mov    %edi,-0x4(%rbp)
    66d7:	89 75 f8             	mov    %esi,-0x8(%rbp)
    66da:	83 7d f8 00          	cmpl   $0x0,-0x8(%rbp)
    66de:	74 1a                	je     66fa <safe_mod_func_int32_t_s_s+0x2e>
    66e0:	81 7d fc 00 00 00 80 	cmpl   $0x80000000,-0x4(%rbp)
    66e7:	75 06                	jne    66ef <safe_mod_func_int32_t_s_s+0x23>
    66e9:	83 7d f8 ff          	cmpl   $0xffffffff,-0x8(%rbp)
    66ed:	74 0b                	je     66fa <safe_mod_func_int32_t_s_s+0x2e>
    66ef:	8b 45 fc             	mov    -0x4(%rbp),%eax
    66f2:	99                   	cltd   
    66f3:	f7 7d f8             	idivl  -0x8(%rbp)
    66f6:	89 d0                	mov    %edx,%eax
    66f8:	eb 03                	jmp    66fd <safe_mod_func_int32_t_s_s+0x31>
    66fa:	8b 45 fc             	mov    -0x4(%rbp),%eax
    66fd:	5d                   	pop    %rbp
    66fe:	c3                   	retq   

00000000000066ff <safe_div_func_int32_t_s_s>:
    66ff:	f3 0f 1e fa          	endbr64 
    6703:	55                   	push   %rbp
    6704:	48 89 e5             	mov    %rsp,%rbp
    6707:	89 7d fc             	mov    %edi,-0x4(%rbp)
    670a:	89 75 f8             	mov    %esi,-0x8(%rbp)
    670d:	83 7d f8 00          	cmpl   $0x0,-0x8(%rbp)
    6711:	74 18                	je     672b <safe_div_func_int32_t_s_s+0x2c>
    6713:	81 7d fc 00 00 00 80 	cmpl   $0x80000000,-0x4(%rbp)
    671a:	75 06                	jne    6722 <safe_div_func_int32_t_s_s+0x23>
    671c:	83 7d f8 ff          	cmpl   $0xffffffff,-0x8(%rbp)
    6720:	74 09                	je     672b <safe_div_func_int32_t_s_s+0x2c>
    6722:	8b 45 fc             	mov    -0x4(%rbp),%eax
    6725:	99                   	cltd   
    6726:	f7 7d f8             	idivl  -0x8(%rbp)
    6729:	eb 03                	jmp    672e <safe_div_func_int32_t_s_s+0x2f>
    672b:	8b 45 fc             	mov    -0x4(%rbp),%eax
    672e:	5d                   	pop    %rbp
    672f:	c3                   	retq   

0000000000006730 <safe_lshift_func_int32_t_s_s>:
    6730:	f3 0f 1e fa          	endbr64 
    6734:	55                   	push   %rbp
    6735:	48 89 e5             	mov    %rsp,%rbp
    6738:	89 7d fc             	mov    %edi,-0x4(%rbp)
    673b:	89 75 f8             	mov    %esi,-0x8(%rbp)
    673e:	83 7d fc 00          	cmpl   $0x0,-0x4(%rbp)
    6742:	78 2d                	js     6771 <safe_lshift_func_int32_t_s_s+0x41>
    6744:	83 7d f8 00          	cmpl   $0x0,-0x8(%rbp)
    6748:	78 27                	js     6771 <safe_lshift_func_int32_t_s_s+0x41>
    674a:	83 7d f8 1f          	cmpl   $0x1f,-0x8(%rbp)
    674e:	7f 21                	jg     6771 <safe_lshift_func_int32_t_s_s+0x41>
    6750:	8b 45 f8             	mov    -0x8(%rbp),%eax
    6753:	ba ff ff ff 7f       	mov    $0x7fffffff,%edx
    6758:	89 c1                	mov    %eax,%ecx
    675a:	d3 fa                	sar    %cl,%edx
    675c:	89 d0                	mov    %edx,%eax
    675e:	39 45 fc             	cmp    %eax,-0x4(%rbp)
    6761:	7f 0e                	jg     6771 <safe_lshift_func_int32_t_s_s+0x41>
    6763:	8b 45 f8             	mov    -0x8(%rbp),%eax
    6766:	8b 55 fc             	mov    -0x4(%rbp),%edx
    6769:	89 c1                	mov    %eax,%ecx
    676b:	d3 e2                	shl    %cl,%edx
    676d:	89 d0                	mov    %edx,%eax
    676f:	eb 03                	jmp    6774 <safe_lshift_func_int32_t_s_s+0x44>
    6771:	8b 45 fc             	mov    -0x4(%rbp),%eax
    6774:	5d                   	pop    %rbp
    6775:	c3                   	retq   

0000000000006776 <safe_lshift_func_int32_t_s_u>:
    6776:	f3 0f 1e fa          	endbr64 
    677a:	55                   	push   %rbp
    677b:	48 89 e5             	mov    %rsp,%rbp
    677e:	89 7d fc             	mov    %edi,-0x4(%rbp)
    6781:	89 75 f8             	mov    %esi,-0x8(%rbp)
    6784:	83 7d fc 00          	cmpl   $0x0,-0x4(%rbp)
    6788:	78 27                	js     67b1 <safe_lshift_func_int32_t_s_u+0x3b>
    678a:	83 7d f8 1f          	cmpl   $0x1f,-0x8(%rbp)
    678e:	77 21                	ja     67b1 <safe_lshift_func_int32_t_s_u+0x3b>
    6790:	8b 45 f8             	mov    -0x8(%rbp),%eax
    6793:	ba ff ff ff 7f       	mov    $0x7fffffff,%edx
    6798:	89 c1                	mov    %eax,%ecx
    679a:	d3 fa                	sar    %cl,%edx
    679c:	89 d0                	mov    %edx,%eax
    679e:	39 45 fc             	cmp    %eax,-0x4(%rbp)
    67a1:	7f 0e                	jg     67b1 <safe_lshift_func_int32_t_s_u+0x3b>
    67a3:	8b 45 f8             	mov    -0x8(%rbp),%eax
    67a6:	8b 55 fc             	mov    -0x4(%rbp),%edx
    67a9:	89 c1                	mov    %eax,%ecx
    67ab:	d3 e2                	shl    %cl,%edx
    67ad:	89 d0                	mov    %edx,%eax
    67af:	eb 03                	jmp    67b4 <safe_lshift_func_int32_t_s_u+0x3e>
    67b1:	8b 45 fc             	mov    -0x4(%rbp),%eax
    67b4:	5d                   	pop    %rbp
    67b5:	c3                   	retq   

00000000000067b6 <safe_rshift_func_int32_t_s_s>:
    67b6:	f3 0f 1e fa          	endbr64 
    67ba:	55                   	push   %rbp
    67bb:	48 89 e5             	mov    %rsp,%rbp
    67be:	89 7d fc             	mov    %edi,-0x4(%rbp)
    67c1:	89 75 f8             	mov    %esi,-0x8(%rbp)
    67c4:	83 7d fc 00          	cmpl   $0x0,-0x4(%rbp)
    67c8:	78 1a                	js     67e4 <safe_rshift_func_int32_t_s_s+0x2e>
    67ca:	83 7d f8 00          	cmpl   $0x0,-0x8(%rbp)
    67ce:	78 14                	js     67e4 <safe_rshift_func_int32_t_s_s+0x2e>
    67d0:	83 7d f8 1f          	cmpl   $0x1f,-0x8(%rbp)
    67d4:	7f 0e                	jg     67e4 <safe_rshift_func_int32_t_s_s+0x2e>
    67d6:	8b 45 f8             	mov    -0x8(%rbp),%eax
    67d9:	8b 55 fc             	mov    -0x4(%rbp),%edx
    67dc:	89 c1                	mov    %eax,%ecx
    67de:	d3 fa                	sar    %cl,%edx
    67e0:	89 d0                	mov    %edx,%eax
    67e2:	eb 03                	jmp    67e7 <safe_rshift_func_int32_t_s_s+0x31>
    67e4:	8b 45 fc             	mov    -0x4(%rbp),%eax
    67e7:	5d                   	pop    %rbp
    67e8:	c3                   	retq   

00000000000067e9 <safe_rshift_func_int32_t_s_u>:
    67e9:	f3 0f 1e fa          	endbr64 
    67ed:	55                   	push   %rbp
    67ee:	48 89 e5             	mov    %rsp,%rbp
    67f1:	89 7d fc             	mov    %edi,-0x4(%rbp)
    67f4:	89 75 f8             	mov    %esi,-0x8(%rbp)
    67f7:	83 7d fc 00          	cmpl   $0x0,-0x4(%rbp)
    67fb:	78 14                	js     6811 <safe_rshift_func_int32_t_s_u+0x28>
    67fd:	83 7d f8 1f          	cmpl   $0x1f,-0x8(%rbp)
    6801:	77 0e                	ja     6811 <safe_rshift_func_int32_t_s_u+0x28>
    6803:	8b 45 f8             	mov    -0x8(%rbp),%eax
    6806:	8b 55 fc             	mov    -0x4(%rbp),%edx
    6809:	89 c1                	mov    %eax,%ecx
    680b:	d3 fa                	sar    %cl,%edx
    680d:	89 d0                	mov    %edx,%eax
    680f:	eb 03                	jmp    6814 <safe_rshift_func_int32_t_s_u+0x2b>
    6811:	8b 45 fc             	mov    -0x4(%rbp),%eax
    6814:	5d                   	pop    %rbp
    6815:	c3                   	retq   

0000000000006816 <safe_unary_minus_func_int64_t_s>:
    6816:	f3 0f 1e fa          	endbr64 
    681a:	55                   	push   %rbp
    681b:	48 89 e5             	mov    %rsp,%rbp
    681e:	48 89 7d f8          	mov    %rdi,-0x8(%rbp)
    6822:	48 b8 00 00 00 00 00 	movabs $0x8000000000000000,%rax
    6829:	00 00 80 
    682c:	48 39 45 f8          	cmp    %rax,-0x8(%rbp)
    6830:	74 09                	je     683b <safe_unary_minus_func_int64_t_s+0x25>
    6832:	48 8b 45 f8          	mov    -0x8(%rbp),%rax
    6836:	48 f7 d8             	neg    %rax
    6839:	eb 04                	jmp    683f <safe_unary_minus_func_int64_t_s+0x29>
    683b:	48 8b 45 f8          	mov    -0x8(%rbp),%rax
    683f:	5d                   	pop    %rbp
    6840:	c3                   	retq   

0000000000006841 <safe_add_func_int64_t_s_s>:
    6841:	f3 0f 1e fa          	endbr64 
    6845:	55                   	push   %rbp
    6846:	48 89 e5             	mov    %rsp,%rbp
    6849:	48 89 7d f8          	mov    %rdi,-0x8(%rbp)
    684d:	48 89 75 f0          	mov    %rsi,-0x10(%rbp)
    6851:	48 83 7d f8 00       	cmpq   $0x0,-0x8(%rbp)
    6856:	7e 1b                	jle    6873 <safe_add_func_int64_t_s_s+0x32>
    6858:	48 83 7d f0 00       	cmpq   $0x0,-0x10(%rbp)
    685d:	7e 14                	jle    6873 <safe_add_func_int64_t_s_s+0x32>
    685f:	48 b8 ff ff ff ff ff 	movabs $0x7fffffffffffffff,%rax
    6866:	ff ff 7f 
    6869:	48 2b 45 f0          	sub    -0x10(%rbp),%rax
    686d:	48 39 45 f8          	cmp    %rax,-0x8(%rbp)
    6871:	7f 2f                	jg     68a2 <safe_add_func_int64_t_s_s+0x61>
    6873:	48 83 7d f8 00       	cmpq   $0x0,-0x8(%rbp)
    6878:	79 1b                	jns    6895 <safe_add_func_int64_t_s_s+0x54>
    687a:	48 83 7d f0 00       	cmpq   $0x0,-0x10(%rbp)
    687f:	79 14                	jns    6895 <safe_add_func_int64_t_s_s+0x54>
    6881:	48 b8 00 00 00 00 00 	movabs $0x8000000000000000,%rax
    6888:	00 00 80 
    688b:	48 2b 45 f0          	sub    -0x10(%rbp),%rax
    688f:	48 39 45 f8          	cmp    %rax,-0x8(%rbp)
    6893:	7c 0d                	jl     68a2 <safe_add_func_int64_t_s_s+0x61>
    6895:	48 8b 55 f8          	mov    -0x8(%rbp),%rdx
    6899:	48 8b 45 f0          	mov    -0x10(%rbp),%rax
    689d:	48 01 d0             	add    %rdx,%rax
    68a0:	eb 04                	jmp    68a6 <safe_add_func_int64_t_s_s+0x65>
    68a2:	48 8b 45 f8          	mov    -0x8(%rbp),%rax
    68a6:	5d                   	pop    %rbp
    68a7:	c3                   	retq   

00000000000068a8 <safe_sub_func_int64_t_s_s>:
    68a8:	f3 0f 1e fa          	endbr64 
    68ac:	55                   	push   %rbp
    68ad:	48 89 e5             	mov    %rsp,%rbp
    68b0:	48 89 7d f8          	mov    %rdi,-0x8(%rbp)
    68b4:	48 89 75 f0          	mov    %rsi,-0x10(%rbp)
    68b8:	48 8b 45 f8          	mov    -0x8(%rbp),%rax
    68bc:	48 33 45 f0          	xor    -0x10(%rbp),%rax
    68c0:	48 89 c2             	mov    %rax,%rdx
    68c3:	48 8b 45 f8          	mov    -0x8(%rbp),%rax
    68c7:	48 33 45 f0          	xor    -0x10(%rbp),%rax
    68cb:	48 b9 00 00 00 00 00 	movabs $0x8000000000000000,%rcx
    68d2:	00 00 80 
    68d5:	48 21 c8             	and    %rcx,%rax
    68d8:	48 33 45 f8          	xor    -0x8(%rbp),%rax
    68dc:	48 2b 45 f0          	sub    -0x10(%rbp),%rax
    68e0:	48 33 45 f0          	xor    -0x10(%rbp),%rax
    68e4:	48 21 d0             	and    %rdx,%rax
    68e7:	48 85 c0             	test   %rax,%rax
    68ea:	78 0a                	js     68f6 <safe_sub_func_int64_t_s_s+0x4e>
    68ec:	48 8b 45 f8          	mov    -0x8(%rbp),%rax
    68f0:	48 2b 45 f0          	sub    -0x10(%rbp),%rax
    68f4:	eb 04                	jmp    68fa <safe_sub_func_int64_t_s_s+0x52>
    68f6:	48 8b 45 f8          	mov    -0x8(%rbp),%rax
    68fa:	5d                   	pop    %rbp
    68fb:	c3                   	retq   

00000000000068fc <safe_mul_func_int64_t_s_s>:
    68fc:	f3 0f 1e fa          	endbr64 
    6900:	55                   	push   %rbp
    6901:	48 89 e5             	mov    %rsp,%rbp
    6904:	48 89 7d f8          	mov    %rdi,-0x8(%rbp)
    6908:	48 89 75 f0          	mov    %rsi,-0x10(%rbp)
    690c:	48 83 7d f8 00       	cmpq   $0x0,-0x8(%rbp)
    6911:	7e 1d                	jle    6930 <safe_mul_func_int64_t_s_s+0x34>
    6913:	48 83 7d f0 00       	cmpq   $0x0,-0x10(%rbp)
    6918:	7e 16                	jle    6930 <safe_mul_func_int64_t_s_s+0x34>
    691a:	48 b8 ff ff ff ff ff 	movabs $0x7fffffffffffffff,%rax
    6921:	ff ff 7f 
    6924:	48 99                	cqto   
    6926:	48 f7 7d f0          	idivq  -0x10(%rbp)
    692a:	48 39 45 f8          	cmp    %rax,-0x8(%rbp)
    692e:	7f 7e                	jg     69ae <safe_mul_func_int64_t_s_s+0xb2>
    6930:	48 83 7d f8 00       	cmpq   $0x0,-0x8(%rbp)
    6935:	7e 1d                	jle    6954 <safe_mul_func_int64_t_s_s+0x58>
    6937:	48 83 7d f0 00       	cmpq   $0x0,-0x10(%rbp)
    693c:	7f 16                	jg     6954 <safe_mul_func_int64_t_s_s+0x58>
    693e:	48 b8 00 00 00 00 00 	movabs $0x8000000000000000,%rax
    6945:	00 00 80 
    6948:	48 99                	cqto   
    694a:	48 f7 7d f8          	idivq  -0x8(%rbp)
    694e:	48 39 45 f0          	cmp    %rax,-0x10(%rbp)
    6952:	7c 5a                	jl     69ae <safe_mul_func_int64_t_s_s+0xb2>
    6954:	48 83 7d f8 00       	cmpq   $0x0,-0x8(%rbp)
    6959:	7f 1d                	jg     6978 <safe_mul_func_int64_t_s_s+0x7c>
    695b:	48 83 7d f0 00       	cmpq   $0x0,-0x10(%rbp)
    6960:	7e 16                	jle    6978 <safe_mul_func_int64_t_s_s+0x7c>
    6962:	48 b8 00 00 00 00 00 	movabs $0x8000000000000000,%rax
    6969:	00 00 80 
    696c:	48 99                	cqto   
    696e:	48 f7 7d f0          	idivq  -0x10(%rbp)
    6972:	48 39 45 f8          	cmp    %rax,-0x8(%rbp)
    6976:	7c 36                	jl     69ae <safe_mul_func_int64_t_s_s+0xb2>
    6978:	48 83 7d f8 00       	cmpq   $0x0,-0x8(%rbp)
    697d:	7f 24                	jg     69a3 <safe_mul_func_int64_t_s_s+0xa7>
    697f:	48 83 7d f0 00       	cmpq   $0x0,-0x10(%rbp)
    6984:	7f 1d                	jg     69a3 <safe_mul_func_int64_t_s_s+0xa7>
    6986:	48 83 7d f8 00       	cmpq   $0x0,-0x8(%rbp)
    698b:	74 16                	je     69a3 <safe_mul_func_int64_t_s_s+0xa7>
    698d:	48 b8 ff ff ff ff ff 	movabs $0x7fffffffffffffff,%rax
    6994:	ff ff 7f 
    6997:	48 99                	cqto   
    6999:	48 f7 7d f8          	idivq  -0x8(%rbp)
    699d:	48 39 45 f0          	cmp    %rax,-0x10(%rbp)
    69a1:	7c 0b                	jl     69ae <safe_mul_func_int64_t_s_s+0xb2>
    69a3:	48 8b 45 f8          	mov    -0x8(%rbp),%rax
    69a7:	48 0f af 45 f0       	imul   -0x10(%rbp),%rax
    69ac:	eb 04                	jmp    69b2 <safe_mul_func_int64_t_s_s+0xb6>
    69ae:	48 8b 45 f8          	mov    -0x8(%rbp),%rax
    69b2:	5d                   	pop    %rbp
    69b3:	c3                   	retq   

00000000000069b4 <safe_mod_func_int64_t_s_s>:
    69b4:	f3 0f 1e fa          	endbr64 
    69b8:	55                   	push   %rbp
    69b9:	48 89 e5             	mov    %rsp,%rbp
    69bc:	48 89 7d f8          	mov    %rdi,-0x8(%rbp)
    69c0:	48 89 75 f0          	mov    %rsi,-0x10(%rbp)
    69c4:	48 83 7d f0 00       	cmpq   $0x0,-0x10(%rbp)
    69c9:	74 26                	je     69f1 <safe_mod_func_int64_t_s_s+0x3d>
    69cb:	48 b8 00 00 00 00 00 	movabs $0x8000000000000000,%rax
    69d2:	00 00 80 
    69d5:	48 39 45 f8          	cmp    %rax,-0x8(%rbp)
    69d9:	75 07                	jne    69e2 <safe_mod_func_int64_t_s_s+0x2e>
    69db:	48 83 7d f0 ff       	cmpq   $0xffffffffffffffff,-0x10(%rbp)
    69e0:	74 0f                	je     69f1 <safe_mod_func_int64_t_s_s+0x3d>
    69e2:	48 8b 45 f8          	mov    -0x8(%rbp),%rax
    69e6:	48 99                	cqto   
    69e8:	48 f7 7d f0          	idivq  -0x10(%rbp)
    69ec:	48 89 d0             	mov    %rdx,%rax
    69ef:	eb 04                	jmp    69f5 <safe_mod_func_int64_t_s_s+0x41>
    69f1:	48 8b 45 f8          	mov    -0x8(%rbp),%rax
    69f5:	5d                   	pop    %rbp
    69f6:	c3                   	retq   

00000000000069f7 <safe_div_func_int64_t_s_s>:
    69f7:	f3 0f 1e fa          	endbr64 
    69fb:	55                   	push   %rbp
    69fc:	48 89 e5             	mov    %rsp,%rbp
    69ff:	48 89 7d f8          	mov    %rdi,-0x8(%rbp)
    6a03:	48 89 75 f0          	mov    %rsi,-0x10(%rbp)
    6a07:	48 83 7d f0 00       	cmpq   $0x0,-0x10(%rbp)
    6a0c:	74 23                	je     6a31 <safe_div_func_int64_t_s_s+0x3a>
    6a0e:	48 b8 00 00 00 00 00 	movabs $0x8000000000000000,%rax
    6a15:	00 00 80 
    6a18:	48 39 45 f8          	cmp    %rax,-0x8(%rbp)
    6a1c:	75 07                	jne    6a25 <safe_div_func_int64_t_s_s+0x2e>
    6a1e:	48 83 7d f0 ff       	cmpq   $0xffffffffffffffff,-0x10(%rbp)
    6a23:	74 0c                	je     6a31 <safe_div_func_int64_t_s_s+0x3a>
    6a25:	48 8b 45 f8          	mov    -0x8(%rbp),%rax
    6a29:	48 99                	cqto   
    6a2b:	48 f7 7d f0          	idivq  -0x10(%rbp)
    6a2f:	eb 04                	jmp    6a35 <safe_div_func_int64_t_s_s+0x3e>
    6a31:	48 8b 45 f8          	mov    -0x8(%rbp),%rax
    6a35:	5d                   	pop    %rbp
    6a36:	c3                   	retq   

0000000000006a37 <safe_lshift_func_int64_t_s_s>:
    6a37:	f3 0f 1e fa          	endbr64 
    6a3b:	55                   	push   %rbp
    6a3c:	48 89 e5             	mov    %rsp,%rbp
    6a3f:	48 89 7d f8          	mov    %rdi,-0x8(%rbp)
    6a43:	89 75 f4             	mov    %esi,-0xc(%rbp)
    6a46:	48 83 7d f8 00       	cmpq   $0x0,-0x8(%rbp)
    6a4b:	78 38                	js     6a85 <safe_lshift_func_int64_t_s_s+0x4e>
    6a4d:	83 7d f4 00          	cmpl   $0x0,-0xc(%rbp)
    6a51:	78 32                	js     6a85 <safe_lshift_func_int64_t_s_s+0x4e>
    6a53:	83 7d f4 1f          	cmpl   $0x1f,-0xc(%rbp)
    6a57:	7f 2c                	jg     6a85 <safe_lshift_func_int64_t_s_s+0x4e>
    6a59:	8b 45 f4             	mov    -0xc(%rbp),%eax
    6a5c:	48 ba ff ff ff ff ff 	movabs $0x7fffffffffffffff,%rdx
    6a63:	ff ff 7f 
    6a66:	89 c1                	mov    %eax,%ecx
    6a68:	48 d3 fa             	sar    %cl,%rdx
    6a6b:	48 89 d0             	mov    %rdx,%rax
    6a6e:	48 39 45 f8          	cmp    %rax,-0x8(%rbp)
    6a72:	7f 11                	jg     6a85 <safe_lshift_func_int64_t_s_s+0x4e>
    6a74:	8b 45 f4             	mov    -0xc(%rbp),%eax
    6a77:	48 8b 55 f8          	mov    -0x8(%rbp),%rdx
    6a7b:	89 c1                	mov    %eax,%ecx
    6a7d:	48 d3 e2             	shl    %cl,%rdx
    6a80:	48 89 d0             	mov    %rdx,%rax
    6a83:	eb 04                	jmp    6a89 <safe_lshift_func_int64_t_s_s+0x52>
    6a85:	48 8b 45 f8          	mov    -0x8(%rbp),%rax
    6a89:	5d                   	pop    %rbp
    6a8a:	c3                   	retq   

0000000000006a8b <safe_lshift_func_int64_t_s_u>:
    6a8b:	f3 0f 1e fa          	endbr64 
    6a8f:	55                   	push   %rbp
    6a90:	48 89 e5             	mov    %rsp,%rbp
    6a93:	48 89 7d f8          	mov    %rdi,-0x8(%rbp)
    6a97:	89 75 f4             	mov    %esi,-0xc(%rbp)
    6a9a:	48 83 7d f8 00       	cmpq   $0x0,-0x8(%rbp)
    6a9f:	78 32                	js     6ad3 <safe_lshift_func_int64_t_s_u+0x48>
    6aa1:	83 7d f4 1f          	cmpl   $0x1f,-0xc(%rbp)
    6aa5:	77 2c                	ja     6ad3 <safe_lshift_func_int64_t_s_u+0x48>
    6aa7:	8b 45 f4             	mov    -0xc(%rbp),%eax
    6aaa:	48 ba ff ff ff ff ff 	movabs $0x7fffffffffffffff,%rdx
    6ab1:	ff ff 7f 
    6ab4:	89 c1                	mov    %eax,%ecx
    6ab6:	48 d3 fa             	sar    %cl,%rdx
    6ab9:	48 89 d0             	mov    %rdx,%rax
    6abc:	48 39 45 f8          	cmp    %rax,-0x8(%rbp)
    6ac0:	7f 11                	jg     6ad3 <safe_lshift_func_int64_t_s_u+0x48>
    6ac2:	8b 45 f4             	mov    -0xc(%rbp),%eax
    6ac5:	48 8b 55 f8          	mov    -0x8(%rbp),%rdx
    6ac9:	89 c1                	mov    %eax,%ecx
    6acb:	48 d3 e2             	shl    %cl,%rdx
    6ace:	48 89 d0             	mov    %rdx,%rax
    6ad1:	eb 04                	jmp    6ad7 <safe_lshift_func_int64_t_s_u+0x4c>
    6ad3:	48 8b 45 f8          	mov    -0x8(%rbp),%rax
    6ad7:	5d                   	pop    %rbp
    6ad8:	c3                   	retq   

0000000000006ad9 <safe_rshift_func_int64_t_s_s>:
    6ad9:	f3 0f 1e fa          	endbr64 
    6add:	55                   	push   %rbp
    6ade:	48 89 e5             	mov    %rsp,%rbp
    6ae1:	48 89 7d f8          	mov    %rdi,-0x8(%rbp)
    6ae5:	89 75 f4             	mov    %esi,-0xc(%rbp)
    6ae8:	48 83 7d f8 00       	cmpq   $0x0,-0x8(%rbp)
    6aed:	78 1d                	js     6b0c <safe_rshift_func_int64_t_s_s+0x33>
    6aef:	83 7d f4 00          	cmpl   $0x0,-0xc(%rbp)
    6af3:	78 17                	js     6b0c <safe_rshift_func_int64_t_s_s+0x33>
    6af5:	83 7d f4 1f          	cmpl   $0x1f,-0xc(%rbp)
    6af9:	7f 11                	jg     6b0c <safe_rshift_func_int64_t_s_s+0x33>
    6afb:	8b 45 f4             	mov    -0xc(%rbp),%eax
    6afe:	48 8b 55 f8          	mov    -0x8(%rbp),%rdx
    6b02:	89 c1                	mov    %eax,%ecx
    6b04:	48 d3 fa             	sar    %cl,%rdx
    6b07:	48 89 d0             	mov    %rdx,%rax
    6b0a:	eb 04                	jmp    6b10 <safe_rshift_func_int64_t_s_s+0x37>
    6b0c:	48 8b 45 f8          	mov    -0x8(%rbp),%rax
    6b10:	5d                   	pop    %rbp
    6b11:	c3                   	retq   

0000000000006b12 <safe_rshift_func_int64_t_s_u>:
    6b12:	f3 0f 1e fa          	endbr64 
    6b16:	55                   	push   %rbp
    6b17:	48 89 e5             	mov    %rsp,%rbp
    6b1a:	48 89 7d f8          	mov    %rdi,-0x8(%rbp)
    6b1e:	89 75 f4             	mov    %esi,-0xc(%rbp)
    6b21:	48 83 7d f8 00       	cmpq   $0x0,-0x8(%rbp)
    6b26:	78 17                	js     6b3f <safe_rshift_func_int64_t_s_u+0x2d>
    6b28:	83 7d f4 1f          	cmpl   $0x1f,-0xc(%rbp)
    6b2c:	77 11                	ja     6b3f <safe_rshift_func_int64_t_s_u+0x2d>
    6b2e:	8b 45 f4             	mov    -0xc(%rbp),%eax
    6b31:	48 8b 55 f8          	mov    -0x8(%rbp),%rdx
    6b35:	89 c1                	mov    %eax,%ecx
    6b37:	48 d3 fa             	sar    %cl,%rdx
    6b3a:	48 89 d0             	mov    %rdx,%rax
    6b3d:	eb 04                	jmp    6b43 <safe_rshift_func_int64_t_s_u+0x31>
    6b3f:	48 8b 45 f8          	mov    -0x8(%rbp),%rax
    6b43:	5d                   	pop    %rbp
    6b44:	c3                   	retq   

0000000000006b45 <safe_unary_minus_func_uint8_t_u>:
    6b45:	f3 0f 1e fa          	endbr64 
    6b49:	55                   	push   %rbp
    6b4a:	48 89 e5             	mov    %rsp,%rbp
    6b4d:	89 f8                	mov    %edi,%eax
    6b4f:	88 45 fc             	mov    %al,-0x4(%rbp)
    6b52:	0f b6 45 fc          	movzbl -0x4(%rbp),%eax
    6b56:	f7 d8                	neg    %eax
    6b58:	5d                   	pop    %rbp
    6b59:	c3                   	retq   

0000000000006b5a <safe_add_func_uint8_t_u_u>:
    6b5a:	f3 0f 1e fa          	endbr64 
    6b5e:	55                   	push   %rbp
    6b5f:	48 89 e5             	mov    %rsp,%rbp
    6b62:	89 fa                	mov    %edi,%edx
    6b64:	89 f0                	mov    %esi,%eax
    6b66:	88 55 fc             	mov    %dl,-0x4(%rbp)
    6b69:	88 45 f8             	mov    %al,-0x8(%rbp)
    6b6c:	0f b6 55 fc          	movzbl -0x4(%rbp),%edx
    6b70:	0f b6 45 f8          	movzbl -0x8(%rbp),%eax
    6b74:	01 d0                	add    %edx,%eax
    6b76:	5d                   	pop    %rbp
    6b77:	c3                   	retq   

0000000000006b78 <safe_sub_func_uint8_t_u_u>:
    6b78:	f3 0f 1e fa          	endbr64 
    6b7c:	55                   	push   %rbp
    6b7d:	48 89 e5             	mov    %rsp,%rbp
    6b80:	89 fa                	mov    %edi,%edx
    6b82:	89 f0                	mov    %esi,%eax
    6b84:	88 55 fc             	mov    %dl,-0x4(%rbp)
    6b87:	88 45 f8             	mov    %al,-0x8(%rbp)
    6b8a:	0f b6 45 fc          	movzbl -0x4(%rbp),%eax
    6b8e:	2a 45 f8             	sub    -0x8(%rbp),%al
    6b91:	5d                   	pop    %rbp
    6b92:	c3                   	retq   

0000000000006b93 <safe_mul_func_uint8_t_u_u>:
    6b93:	f3 0f 1e fa          	endbr64 
    6b97:	55                   	push   %rbp
    6b98:	48 89 e5             	mov    %rsp,%rbp
    6b9b:	89 fa                	mov    %edi,%edx
    6b9d:	89 f0                	mov    %esi,%eax
    6b9f:	88 55 fc             	mov    %dl,-0x4(%rbp)
    6ba2:	88 45 f8             	mov    %al,-0x8(%rbp)
    6ba5:	0f b6 45 fc          	movzbl -0x4(%rbp),%eax
    6ba9:	f6 65 f8             	mulb   -0x8(%rbp)
    6bac:	5d                   	pop    %rbp
    6bad:	c3                   	retq   

0000000000006bae <safe_mod_func_uint8_t_u_u>:
    6bae:	f3 0f 1e fa          	endbr64 
    6bb2:	55                   	push   %rbp
    6bb3:	48 89 e5             	mov    %rsp,%rbp
    6bb6:	89 fa                	mov    %edi,%edx
    6bb8:	89 f0                	mov    %esi,%eax
    6bba:	88 55 fc             	mov    %dl,-0x4(%rbp)
    6bbd:	88 45 f8             	mov    %al,-0x8(%rbp)
    6bc0:	80 7d f8 00          	cmpb   $0x0,-0x8(%rbp)
    6bc4:	74 0f                	je     6bd5 <safe_mod_func_uint8_t_u_u+0x27>
    6bc6:	0f b6 45 fc          	movzbl -0x4(%rbp),%eax
    6bca:	0f b6 c0             	movzbl %al,%eax
    6bcd:	f6 75 f8             	divb   -0x8(%rbp)
    6bd0:	0f b6 c4             	movzbl %ah,%eax
    6bd3:	eb 04                	jmp    6bd9 <safe_mod_func_uint8_t_u_u+0x2b>
    6bd5:	0f b6 45 fc          	movzbl -0x4(%rbp),%eax
    6bd9:	5d                   	pop    %rbp
    6bda:	c3                   	retq   

0000000000006bdb <safe_div_func_uint8_t_u_u>:
    6bdb:	f3 0f 1e fa          	endbr64 
    6bdf:	55                   	push   %rbp
    6be0:	48 89 e5             	mov    %rsp,%rbp
    6be3:	89 fa                	mov    %edi,%edx
    6be5:	89 f0                	mov    %esi,%eax
    6be7:	88 55 fc             	mov    %dl,-0x4(%rbp)
    6bea:	88 45 f8             	mov    %al,-0x8(%rbp)
    6bed:	80 7d f8 00          	cmpb   $0x0,-0x8(%rbp)
    6bf1:	74 0c                	je     6bff <safe_div_func_uint8_t_u_u+0x24>
    6bf3:	0f b6 45 fc          	movzbl -0x4(%rbp),%eax
    6bf7:	0f b6 c0             	movzbl %al,%eax
    6bfa:	f6 75 f8             	divb   -0x8(%rbp)
    6bfd:	eb 04                	jmp    6c03 <safe_div_func_uint8_t_u_u+0x28>
    6bff:	0f b6 45 fc          	movzbl -0x4(%rbp),%eax
    6c03:	5d                   	pop    %rbp
    6c04:	c3                   	retq   

0000000000006c05 <safe_lshift_func_uint8_t_u_s>:
    6c05:	f3 0f 1e fa          	endbr64 
    6c09:	55                   	push   %rbp
    6c0a:	48 89 e5             	mov    %rsp,%rbp
    6c0d:	89 f8                	mov    %edi,%eax
    6c0f:	89 75 f8             	mov    %esi,-0x8(%rbp)
    6c12:	88 45 fc             	mov    %al,-0x4(%rbp)
    6c15:	83 7d f8 00          	cmpl   $0x0,-0x8(%rbp)
    6c19:	78 2b                	js     6c46 <safe_lshift_func_uint8_t_u_s+0x41>
    6c1b:	83 7d f8 1f          	cmpl   $0x1f,-0x8(%rbp)
    6c1f:	7f 25                	jg     6c46 <safe_lshift_func_uint8_t_u_s+0x41>
    6c21:	0f b6 55 fc          	movzbl -0x4(%rbp),%edx
    6c25:	8b 45 f8             	mov    -0x8(%rbp),%eax
    6c28:	be ff 00 00 00       	mov    $0xff,%esi
    6c2d:	89 c1                	mov    %eax,%ecx
    6c2f:	d3 fe                	sar    %cl,%esi
    6c31:	89 f0                	mov    %esi,%eax
    6c33:	39 c2                	cmp    %eax,%edx
    6c35:	7f 0f                	jg     6c46 <safe_lshift_func_uint8_t_u_s+0x41>
    6c37:	0f b6 55 fc          	movzbl -0x4(%rbp),%edx
    6c3b:	8b 45 f8             	mov    -0x8(%rbp),%eax
    6c3e:	89 c1                	mov    %eax,%ecx
    6c40:	d3 e2                	shl    %cl,%edx
    6c42:	89 d0                	mov    %edx,%eax
    6c44:	eb 04                	jmp    6c4a <safe_lshift_func_uint8_t_u_s+0x45>
    6c46:	0f b6 45 fc          	movzbl -0x4(%rbp),%eax
    6c4a:	5d                   	pop    %rbp
    6c4b:	c3                   	retq   

0000000000006c4c <safe_lshift_func_uint8_t_u_u>:
    6c4c:	f3 0f 1e fa          	endbr64 
    6c50:	55                   	push   %rbp
    6c51:	48 89 e5             	mov    %rsp,%rbp
    6c54:	89 f8                	mov    %edi,%eax
    6c56:	89 75 f8             	mov    %esi,-0x8(%rbp)
    6c59:	88 45 fc             	mov    %al,-0x4(%rbp)
    6c5c:	83 7d f8 1f          	cmpl   $0x1f,-0x8(%rbp)
    6c60:	77 25                	ja     6c87 <safe_lshift_func_uint8_t_u_u+0x3b>
    6c62:	0f b6 55 fc          	movzbl -0x4(%rbp),%edx
    6c66:	8b 45 f8             	mov    -0x8(%rbp),%eax
    6c69:	be ff 00 00 00       	mov    $0xff,%esi
    6c6e:	89 c1                	mov    %eax,%ecx
    6c70:	d3 fe                	sar    %cl,%esi
    6c72:	89 f0                	mov    %esi,%eax
    6c74:	39 c2                	cmp    %eax,%edx
    6c76:	7f 0f                	jg     6c87 <safe_lshift_func_uint8_t_u_u+0x3b>
    6c78:	0f b6 55 fc          	movzbl -0x4(%rbp),%edx
    6c7c:	8b 45 f8             	mov    -0x8(%rbp),%eax
    6c7f:	89 c1                	mov    %eax,%ecx
    6c81:	d3 e2                	shl    %cl,%edx
    6c83:	89 d0                	mov    %edx,%eax
    6c85:	eb 04                	jmp    6c8b <safe_lshift_func_uint8_t_u_u+0x3f>
    6c87:	0f b6 45 fc          	movzbl -0x4(%rbp),%eax
    6c8b:	5d                   	pop    %rbp
    6c8c:	c3                   	retq   

0000000000006c8d <safe_rshift_func_uint8_t_u_s>:
    6c8d:	f3 0f 1e fa          	endbr64 
    6c91:	55                   	push   %rbp
    6c92:	48 89 e5             	mov    %rsp,%rbp
    6c95:	89 f8                	mov    %edi,%eax
    6c97:	89 75 f8             	mov    %esi,-0x8(%rbp)
    6c9a:	88 45 fc             	mov    %al,-0x4(%rbp)
    6c9d:	83 7d f8 00          	cmpl   $0x0,-0x8(%rbp)
    6ca1:	78 15                	js     6cb8 <safe_rshift_func_uint8_t_u_s+0x2b>
    6ca3:	83 7d f8 1f          	cmpl   $0x1f,-0x8(%rbp)
    6ca7:	7f 0f                	jg     6cb8 <safe_rshift_func_uint8_t_u_s+0x2b>
    6ca9:	0f b6 55 fc          	movzbl -0x4(%rbp),%edx
    6cad:	8b 45 f8             	mov    -0x8(%rbp),%eax
    6cb0:	89 c1                	mov    %eax,%ecx
    6cb2:	d3 fa                	sar    %cl,%edx
    6cb4:	89 d0                	mov    %edx,%eax
    6cb6:	eb 04                	jmp    6cbc <safe_rshift_func_uint8_t_u_s+0x2f>
    6cb8:	0f b6 45 fc          	movzbl -0x4(%rbp),%eax
    6cbc:	5d                   	pop    %rbp
    6cbd:	c3                   	retq   

0000000000006cbe <safe_rshift_func_uint8_t_u_u>:
    6cbe:	f3 0f 1e fa          	endbr64 
    6cc2:	55                   	push   %rbp
    6cc3:	48 89 e5             	mov    %rsp,%rbp
    6cc6:	89 f8                	mov    %edi,%eax
    6cc8:	89 75 f8             	mov    %esi,-0x8(%rbp)
    6ccb:	88 45 fc             	mov    %al,-0x4(%rbp)
    6cce:	83 7d f8 1f          	cmpl   $0x1f,-0x8(%rbp)
    6cd2:	77 0f                	ja     6ce3 <safe_rshift_func_uint8_t_u_u+0x25>
    6cd4:	0f b6 55 fc          	movzbl -0x4(%rbp),%edx
    6cd8:	8b 45 f8             	mov    -0x8(%rbp),%eax
    6cdb:	89 c1                	mov    %eax,%ecx
    6cdd:	d3 fa                	sar    %cl,%edx
    6cdf:	89 d0                	mov    %edx,%eax
    6ce1:	eb 04                	jmp    6ce7 <safe_rshift_func_uint8_t_u_u+0x29>
    6ce3:	0f b6 45 fc          	movzbl -0x4(%rbp),%eax
    6ce7:	5d                   	pop    %rbp
    6ce8:	c3                   	retq   

0000000000006ce9 <safe_unary_minus_func_uint16_t_u>:
    6ce9:	f3 0f 1e fa          	endbr64 
    6ced:	55                   	push   %rbp
    6cee:	48 89 e5             	mov    %rsp,%rbp
    6cf1:	89 f8                	mov    %edi,%eax
    6cf3:	66 89 45 fc          	mov    %ax,-0x4(%rbp)
    6cf7:	0f b7 45 fc          	movzwl -0x4(%rbp),%eax
    6cfb:	f7 d8                	neg    %eax
    6cfd:	5d                   	pop    %rbp
    6cfe:	c3                   	retq   

0000000000006cff <safe_add_func_uint16_t_u_u>:
    6cff:	f3 0f 1e fa          	endbr64 
    6d03:	55                   	push   %rbp
    6d04:	48 89 e5             	mov    %rsp,%rbp
    6d07:	89 fa                	mov    %edi,%edx
    6d09:	89 f0                	mov    %esi,%eax
    6d0b:	66 89 55 fc          	mov    %dx,-0x4(%rbp)
    6d0f:	66 89 45 f8          	mov    %ax,-0x8(%rbp)
    6d13:	0f b7 55 fc          	movzwl -0x4(%rbp),%edx
    6d17:	0f b7 45 f8          	movzwl -0x8(%rbp),%eax
    6d1b:	01 d0                	add    %edx,%eax
    6d1d:	5d                   	pop    %rbp
    6d1e:	c3                   	retq   

0000000000006d1f <safe_sub_func_uint16_t_u_u>:
    6d1f:	f3 0f 1e fa          	endbr64 
    6d23:	55                   	push   %rbp
    6d24:	48 89 e5             	mov    %rsp,%rbp
    6d27:	89 fa                	mov    %edi,%edx
    6d29:	89 f0                	mov    %esi,%eax
    6d2b:	66 89 55 fc          	mov    %dx,-0x4(%rbp)
    6d2f:	66 89 45 f8          	mov    %ax,-0x8(%rbp)
    6d33:	0f b7 45 fc          	movzwl -0x4(%rbp),%eax
    6d37:	66 2b 45 f8          	sub    -0x8(%rbp),%ax
    6d3b:	5d                   	pop    %rbp
    6d3c:	c3                   	retq   

0000000000006d3d <safe_mul_func_uint16_t_u_u>:
    6d3d:	f3 0f 1e fa          	endbr64 
    6d41:	55                   	push   %rbp
    6d42:	48 89 e5             	mov    %rsp,%rbp
    6d45:	89 fa                	mov    %edi,%edx
    6d47:	89 f0                	mov    %esi,%eax
    6d49:	66 89 55 fc          	mov    %dx,-0x4(%rbp)
    6d4d:	66 89 45 f8          	mov    %ax,-0x8(%rbp)
    6d51:	0f b7 45 fc          	movzwl -0x4(%rbp),%eax
    6d55:	66 0f af 45 f8       	imul   -0x8(%rbp),%ax
    6d5a:	5d                   	pop    %rbp
    6d5b:	c3                   	retq   

0000000000006d5c <safe_mod_func_uint16_t_u_u>:
    6d5c:	f3 0f 1e fa          	endbr64 
    6d60:	55                   	push   %rbp
    6d61:	48 89 e5             	mov    %rsp,%rbp
    6d64:	89 fa                	mov    %edi,%edx
    6d66:	89 f0                	mov    %esi,%eax
    6d68:	66 89 55 fc          	mov    %dx,-0x4(%rbp)
    6d6c:	66 89 45 f8          	mov    %ax,-0x8(%rbp)
    6d70:	66 83 7d f8 00       	cmpw   $0x0,-0x8(%rbp)
    6d75:	74 11                	je     6d88 <safe_mod_func_uint16_t_u_u+0x2c>
    6d77:	0f b7 45 fc          	movzwl -0x4(%rbp),%eax
    6d7b:	ba 00 00 00 00       	mov    $0x0,%edx
    6d80:	66 f7 75 f8          	divw   -0x8(%rbp)
    6d84:	89 d0                	mov    %edx,%eax
    6d86:	eb 04                	jmp    6d8c <safe_mod_func_uint16_t_u_u+0x30>
    6d88:	0f b7 45 fc          	movzwl -0x4(%rbp),%eax
    6d8c:	5d                   	pop    %rbp
    6d8d:	c3                   	retq   

0000000000006d8e <safe_div_func_uint16_t_u_u>:
    6d8e:	f3 0f 1e fa          	endbr64 
    6d92:	55                   	push   %rbp
    6d93:	48 89 e5             	mov    %rsp,%rbp
    6d96:	89 fa                	mov    %edi,%edx
    6d98:	89 f0                	mov    %esi,%eax
    6d9a:	66 89 55 fc          	mov    %dx,-0x4(%rbp)
    6d9e:	66 89 45 f8          	mov    %ax,-0x8(%rbp)
    6da2:	66 83 7d f8 00       	cmpw   $0x0,-0x8(%rbp)
    6da7:	74 0f                	je     6db8 <safe_div_func_uint16_t_u_u+0x2a>
    6da9:	0f b7 45 fc          	movzwl -0x4(%rbp),%eax
    6dad:	ba 00 00 00 00       	mov    $0x0,%edx
    6db2:	66 f7 75 f8          	divw   -0x8(%rbp)
    6db6:	eb 04                	jmp    6dbc <safe_div_func_uint16_t_u_u+0x2e>
    6db8:	0f b7 45 fc          	movzwl -0x4(%rbp),%eax
    6dbc:	5d                   	pop    %rbp
    6dbd:	c3                   	retq   

0000000000006dbe <safe_lshift_func_uint16_t_u_s>:
    6dbe:	f3 0f 1e fa          	endbr64 
    6dc2:	55                   	push   %rbp
    6dc3:	48 89 e5             	mov    %rsp,%rbp
    6dc6:	89 f8                	mov    %edi,%eax
    6dc8:	89 75 f8             	mov    %esi,-0x8(%rbp)
    6dcb:	66 89 45 fc          	mov    %ax,-0x4(%rbp)
    6dcf:	83 7d f8 00          	cmpl   $0x0,-0x8(%rbp)
    6dd3:	78 2b                	js     6e00 <safe_lshift_func_uint16_t_u_s+0x42>
    6dd5:	83 7d f8 1f          	cmpl   $0x1f,-0x8(%rbp)
    6dd9:	7f 25                	jg     6e00 <safe_lshift_func_uint16_t_u_s+0x42>
    6ddb:	0f b7 55 fc          	movzwl -0x4(%rbp),%edx
    6ddf:	8b 45 f8             	mov    -0x8(%rbp),%eax
    6de2:	be ff ff 00 00       	mov    $0xffff,%esi
    6de7:	89 c1                	mov    %eax,%ecx
    6de9:	d3 fe                	sar    %cl,%esi
    6deb:	89 f0                	mov    %esi,%eax
    6ded:	39 c2                	cmp    %eax,%edx
    6def:	7f 0f                	jg     6e00 <safe_lshift_func_uint16_t_u_s+0x42>
    6df1:	0f b7 55 fc          	movzwl -0x4(%rbp),%edx
    6df5:	8b 45 f8             	mov    -0x8(%rbp),%eax
    6df8:	89 c1                	mov    %eax,%ecx
    6dfa:	d3 e2                	shl    %cl,%edx
    6dfc:	89 d0                	mov    %edx,%eax
    6dfe:	eb 04                	jmp    6e04 <safe_lshift_func_uint16_t_u_s+0x46>
    6e00:	0f b7 45 fc          	movzwl -0x4(%rbp),%eax
    6e04:	5d                   	pop    %rbp
    6e05:	c3                   	retq   

0000000000006e06 <safe_lshift_func_uint16_t_u_u>:
    6e06:	f3 0f 1e fa          	endbr64 
    6e0a:	55                   	push   %rbp
    6e0b:	48 89 e5             	mov    %rsp,%rbp
    6e0e:	89 f8                	mov    %edi,%eax
    6e10:	89 75 f8             	mov    %esi,-0x8(%rbp)
    6e13:	66 89 45 fc          	mov    %ax,-0x4(%rbp)
    6e17:	83 7d f8 1f          	cmpl   $0x1f,-0x8(%rbp)
    6e1b:	77 25                	ja     6e42 <safe_lshift_func_uint16_t_u_u+0x3c>
    6e1d:	0f b7 55 fc          	movzwl -0x4(%rbp),%edx
    6e21:	8b 45 f8             	mov    -0x8(%rbp),%eax
    6e24:	be ff ff 00 00       	mov    $0xffff,%esi
    6e29:	89 c1                	mov    %eax,%ecx
    6e2b:	d3 fe                	sar    %cl,%esi
    6e2d:	89 f0                	mov    %esi,%eax
    6e2f:	39 c2                	cmp    %eax,%edx
    6e31:	7f 0f                	jg     6e42 <safe_lshift_func_uint16_t_u_u+0x3c>
    6e33:	0f b7 55 fc          	movzwl -0x4(%rbp),%edx
    6e37:	8b 45 f8             	mov    -0x8(%rbp),%eax
    6e3a:	89 c1                	mov    %eax,%ecx
    6e3c:	d3 e2                	shl    %cl,%edx
    6e3e:	89 d0                	mov    %edx,%eax
    6e40:	eb 04                	jmp    6e46 <safe_lshift_func_uint16_t_u_u+0x40>
    6e42:	0f b7 45 fc          	movzwl -0x4(%rbp),%eax
    6e46:	5d                   	pop    %rbp
    6e47:	c3                   	retq   

0000000000006e48 <safe_rshift_func_uint16_t_u_s>:
    6e48:	f3 0f 1e fa          	endbr64 
    6e4c:	55                   	push   %rbp
    6e4d:	48 89 e5             	mov    %rsp,%rbp
    6e50:	89 f8                	mov    %edi,%eax
    6e52:	89 75 f8             	mov    %esi,-0x8(%rbp)
    6e55:	66 89 45 fc          	mov    %ax,-0x4(%rbp)
    6e59:	83 7d f8 00          	cmpl   $0x0,-0x8(%rbp)
    6e5d:	78 15                	js     6e74 <safe_rshift_func_uint16_t_u_s+0x2c>
    6e5f:	83 7d f8 1f          	cmpl   $0x1f,-0x8(%rbp)
    6e63:	7f 0f                	jg     6e74 <safe_rshift_func_uint16_t_u_s+0x2c>
    6e65:	0f b7 55 fc          	movzwl -0x4(%rbp),%edx
    6e69:	8b 45 f8             	mov    -0x8(%rbp),%eax
    6e6c:	89 c1                	mov    %eax,%ecx
    6e6e:	d3 fa                	sar    %cl,%edx
    6e70:	89 d0                	mov    %edx,%eax
    6e72:	eb 04                	jmp    6e78 <safe_rshift_func_uint16_t_u_s+0x30>
    6e74:	0f b7 45 fc          	movzwl -0x4(%rbp),%eax
    6e78:	5d                   	pop    %rbp
    6e79:	c3                   	retq   

0000000000006e7a <safe_rshift_func_uint16_t_u_u>:
    6e7a:	f3 0f 1e fa          	endbr64 
    6e7e:	55                   	push   %rbp
    6e7f:	48 89 e5             	mov    %rsp,%rbp
    6e82:	89 f8                	mov    %edi,%eax
    6e84:	89 75 f8             	mov    %esi,-0x8(%rbp)
    6e87:	66 89 45 fc          	mov    %ax,-0x4(%rbp)
    6e8b:	83 7d f8 1f          	cmpl   $0x1f,-0x8(%rbp)
    6e8f:	77 0f                	ja     6ea0 <safe_rshift_func_uint16_t_u_u+0x26>
    6e91:	0f b7 55 fc          	movzwl -0x4(%rbp),%edx
    6e95:	8b 45 f8             	mov    -0x8(%rbp),%eax
    6e98:	89 c1                	mov    %eax,%ecx
    6e9a:	d3 fa                	sar    %cl,%edx
    6e9c:	89 d0                	mov    %edx,%eax
    6e9e:	eb 04                	jmp    6ea4 <safe_rshift_func_uint16_t_u_u+0x2a>
    6ea0:	0f b7 45 fc          	movzwl -0x4(%rbp),%eax
    6ea4:	5d                   	pop    %rbp
    6ea5:	c3                   	retq   

0000000000006ea6 <safe_unary_minus_func_uint32_t_u>:
    6ea6:	f3 0f 1e fa          	endbr64 
    6eaa:	55                   	push   %rbp
    6eab:	48 89 e5             	mov    %rsp,%rbp
    6eae:	89 7d fc             	mov    %edi,-0x4(%rbp)
    6eb1:	8b 45 fc             	mov    -0x4(%rbp),%eax
    6eb4:	f7 d8                	neg    %eax
    6eb6:	5d                   	pop    %rbp
    6eb7:	c3                   	retq   

0000000000006eb8 <safe_add_func_uint32_t_u_u>:
    6eb8:	f3 0f 1e fa          	endbr64 
    6ebc:	55                   	push   %rbp
    6ebd:	48 89 e5             	mov    %rsp,%rbp
    6ec0:	89 7d fc             	mov    %edi,-0x4(%rbp)
    6ec3:	89 75 f8             	mov    %esi,-0x8(%rbp)
    6ec6:	8b 55 fc             	mov    -0x4(%rbp),%edx
    6ec9:	8b 45 f8             	mov    -0x8(%rbp),%eax
    6ecc:	01 d0                	add    %edx,%eax
    6ece:	5d                   	pop    %rbp
    6ecf:	c3                   	retq   

0000000000006ed0 <safe_sub_func_uint32_t_u_u>:
    6ed0:	f3 0f 1e fa          	endbr64 
    6ed4:	55                   	push   %rbp
    6ed5:	48 89 e5             	mov    %rsp,%rbp
    6ed8:	89 7d fc             	mov    %edi,-0x4(%rbp)
    6edb:	89 75 f8             	mov    %esi,-0x8(%rbp)
    6ede:	8b 45 fc             	mov    -0x4(%rbp),%eax
    6ee1:	2b 45 f8             	sub    -0x8(%rbp),%eax
    6ee4:	5d                   	pop    %rbp
    6ee5:	c3                   	retq   

0000000000006ee6 <safe_mul_func_uint32_t_u_u>:
    6ee6:	f3 0f 1e fa          	endbr64 
    6eea:	55                   	push   %rbp
    6eeb:	48 89 e5             	mov    %rsp,%rbp
    6eee:	89 7d fc             	mov    %edi,-0x4(%rbp)
    6ef1:	89 75 f8             	mov    %esi,-0x8(%rbp)
    6ef4:	8b 45 fc             	mov    -0x4(%rbp),%eax
    6ef7:	0f af 45 f8          	imul   -0x8(%rbp),%eax
    6efb:	5d                   	pop    %rbp
    6efc:	c3                   	retq   

0000000000006efd <safe_mod_func_uint32_t_u_u>:
    6efd:	f3 0f 1e fa          	endbr64 
    6f01:	55                   	push   %rbp
    6f02:	48 89 e5             	mov    %rsp,%rbp
    6f05:	89 7d fc             	mov    %edi,-0x4(%rbp)
    6f08:	89 75 f8             	mov    %esi,-0x8(%rbp)
    6f0b:	83 7d f8 00          	cmpl   $0x0,-0x8(%rbp)
    6f0f:	74 0f                	je     6f20 <safe_mod_func_uint32_t_u_u+0x23>
    6f11:	8b 45 fc             	mov    -0x4(%rbp),%eax
    6f14:	ba 00 00 00 00       	mov    $0x0,%edx
    6f19:	f7 75 f8             	divl   -0x8(%rbp)
    6f1c:	89 d0                	mov    %edx,%eax
    6f1e:	eb 03                	jmp    6f23 <safe_mod_func_uint32_t_u_u+0x26>
    6f20:	8b 45 fc             	mov    -0x4(%rbp),%eax
    6f23:	5d                   	pop    %rbp
    6f24:	c3                   	retq   

0000000000006f25 <safe_div_func_uint32_t_u_u>:
    6f25:	f3 0f 1e fa          	endbr64 
    6f29:	55                   	push   %rbp
    6f2a:	48 89 e5             	mov    %rsp,%rbp
    6f2d:	89 7d fc             	mov    %edi,-0x4(%rbp)
    6f30:	89 75 f8             	mov    %esi,-0x8(%rbp)
    6f33:	83 7d f8 00          	cmpl   $0x0,-0x8(%rbp)
    6f37:	74 0d                	je     6f46 <safe_div_func_uint32_t_u_u+0x21>
    6f39:	8b 45 fc             	mov    -0x4(%rbp),%eax
    6f3c:	ba 00 00 00 00       	mov    $0x0,%edx
    6f41:	f7 75 f8             	divl   -0x8(%rbp)
    6f44:	eb 03                	jmp    6f49 <safe_div_func_uint32_t_u_u+0x24>
    6f46:	8b 45 fc             	mov    -0x4(%rbp),%eax
    6f49:	5d                   	pop    %rbp
    6f4a:	c3                   	retq   

0000000000006f4b <safe_lshift_func_uint32_t_u_s>:
    6f4b:	f3 0f 1e fa          	endbr64 
    6f4f:	55                   	push   %rbp
    6f50:	48 89 e5             	mov    %rsp,%rbp
    6f53:	89 7d fc             	mov    %edi,-0x4(%rbp)
    6f56:	89 75 f8             	mov    %esi,-0x8(%rbp)
    6f59:	83 7d f8 00          	cmpl   $0x0,-0x8(%rbp)
    6f5d:	78 27                	js     6f86 <safe_lshift_func_uint32_t_u_s+0x3b>
    6f5f:	83 7d f8 1f          	cmpl   $0x1f,-0x8(%rbp)
    6f63:	7f 21                	jg     6f86 <safe_lshift_func_uint32_t_u_s+0x3b>
    6f65:	8b 45 f8             	mov    -0x8(%rbp),%eax
    6f68:	ba ff ff ff ff       	mov    $0xffffffff,%edx
    6f6d:	89 c1                	mov    %eax,%ecx
    6f6f:	d3 ea                	shr    %cl,%edx
    6f71:	89 d0                	mov    %edx,%eax
    6f73:	39 45 fc             	cmp    %eax,-0x4(%rbp)
    6f76:	77 0e                	ja     6f86 <safe_lshift_func_uint32_t_u_s+0x3b>
    6f78:	8b 45 f8             	mov    -0x8(%rbp),%eax
    6f7b:	8b 55 fc             	mov    -0x4(%rbp),%edx
    6f7e:	89 c1                	mov    %eax,%ecx
    6f80:	d3 e2                	shl    %cl,%edx
    6f82:	89 d0                	mov    %edx,%eax
    6f84:	eb 03                	jmp    6f89 <safe_lshift_func_uint32_t_u_s+0x3e>
    6f86:	8b 45 fc             	mov    -0x4(%rbp),%eax
    6f89:	5d                   	pop    %rbp
    6f8a:	c3                   	retq   

0000000000006f8b <safe_lshift_func_uint32_t_u_u>:
    6f8b:	f3 0f 1e fa          	endbr64 
    6f8f:	55                   	push   %rbp
    6f90:	48 89 e5             	mov    %rsp,%rbp
    6f93:	89 7d fc             	mov    %edi,-0x4(%rbp)
    6f96:	89 75 f8             	mov    %esi,-0x8(%rbp)
    6f99:	83 7d f8 1f          	cmpl   $0x1f,-0x8(%rbp)
    6f9d:	77 21                	ja     6fc0 <safe_lshift_func_uint32_t_u_u+0x35>
    6f9f:	8b 45 f8             	mov    -0x8(%rbp),%eax
    6fa2:	ba ff ff ff ff       	mov    $0xffffffff,%edx
    6fa7:	89 c1                	mov    %eax,%ecx
    6fa9:	d3 ea                	shr    %cl,%edx
    6fab:	89 d0                	mov    %edx,%eax
    6fad:	39 45 fc             	cmp    %eax,-0x4(%rbp)
    6fb0:	77 0e                	ja     6fc0 <safe_lshift_func_uint32_t_u_u+0x35>
    6fb2:	8b 45 f8             	mov    -0x8(%rbp),%eax
    6fb5:	8b 55 fc             	mov    -0x4(%rbp),%edx
    6fb8:	89 c1                	mov    %eax,%ecx
    6fba:	d3 e2                	shl    %cl,%edx
    6fbc:	89 d0                	mov    %edx,%eax
    6fbe:	eb 03                	jmp    6fc3 <safe_lshift_func_uint32_t_u_u+0x38>
    6fc0:	8b 45 fc             	mov    -0x4(%rbp),%eax
    6fc3:	5d                   	pop    %rbp
    6fc4:	c3                   	retq   

0000000000006fc5 <safe_rshift_func_uint32_t_u_s>:
    6fc5:	f3 0f 1e fa          	endbr64 
    6fc9:	55                   	push   %rbp
    6fca:	48 89 e5             	mov    %rsp,%rbp
    6fcd:	89 7d fc             	mov    %edi,-0x4(%rbp)
    6fd0:	89 75 f8             	mov    %esi,-0x8(%rbp)
    6fd3:	83 7d f8 00          	cmpl   $0x0,-0x8(%rbp)
    6fd7:	78 14                	js     6fed <safe_rshift_func_uint32_t_u_s+0x28>
    6fd9:	83 7d f8 1f          	cmpl   $0x1f,-0x8(%rbp)
    6fdd:	7f 0e                	jg     6fed <safe_rshift_func_uint32_t_u_s+0x28>
    6fdf:	8b 45 f8             	mov    -0x8(%rbp),%eax
    6fe2:	8b 55 fc             	mov    -0x4(%rbp),%edx
    6fe5:	89 c1                	mov    %eax,%ecx
    6fe7:	d3 ea                	shr    %cl,%edx
    6fe9:	89 d0                	mov    %edx,%eax
    6feb:	eb 03                	jmp    6ff0 <safe_rshift_func_uint32_t_u_s+0x2b>
    6fed:	8b 45 fc             	mov    -0x4(%rbp),%eax
    6ff0:	5d                   	pop    %rbp
    6ff1:	c3                   	retq   

0000000000006ff2 <safe_rshift_func_uint32_t_u_u>:
    6ff2:	f3 0f 1e fa          	endbr64 
    6ff6:	55                   	push   %rbp
    6ff7:	48 89 e5             	mov    %rsp,%rbp
    6ffa:	89 7d fc             	mov    %edi,-0x4(%rbp)
    6ffd:	89 75 f8             	mov    %esi,-0x8(%rbp)
    7000:	83 7d f8 1f          	cmpl   $0x1f,-0x8(%rbp)
    7004:	77 0e                	ja     7014 <safe_rshift_func_uint32_t_u_u+0x22>
    7006:	8b 45 f8             	mov    -0x8(%rbp),%eax
    7009:	8b 55 fc             	mov    -0x4(%rbp),%edx
    700c:	89 c1                	mov    %eax,%ecx
    700e:	d3 ea                	shr    %cl,%edx
    7010:	89 d0                	mov    %edx,%eax
    7012:	eb 03                	jmp    7017 <safe_rshift_func_uint32_t_u_u+0x25>
    7014:	8b 45 fc             	mov    -0x4(%rbp),%eax
    7017:	5d                   	pop    %rbp
    7018:	c3                   	retq   

0000000000007019 <safe_unary_minus_func_uint64_t_u>:
    7019:	f3 0f 1e fa          	endbr64 
    701d:	55                   	push   %rbp
    701e:	48 89 e5             	mov    %rsp,%rbp
    7021:	48 89 7d f8          	mov    %rdi,-0x8(%rbp)
    7025:	48 8b 45 f8          	mov    -0x8(%rbp),%rax
    7029:	48 f7 d8             	neg    %rax
    702c:	5d                   	pop    %rbp
    702d:	c3                   	retq   

000000000000702e <safe_add_func_uint64_t_u_u>:
    702e:	f3 0f 1e fa          	endbr64 
    7032:	55                   	push   %rbp
    7033:	48 89 e5             	mov    %rsp,%rbp
    7036:	48 89 7d f8          	mov    %rdi,-0x8(%rbp)
    703a:	48 89 75 f0          	mov    %rsi,-0x10(%rbp)
    703e:	48 8b 55 f8          	mov    -0x8(%rbp),%rdx
    7042:	48 8b 45 f0          	mov    -0x10(%rbp),%rax
    7046:	48 01 d0             	add    %rdx,%rax
    7049:	5d                   	pop    %rbp
    704a:	c3                   	retq   

000000000000704b <safe_sub_func_uint64_t_u_u>:
    704b:	f3 0f 1e fa          	endbr64 
    704f:	55                   	push   %rbp
    7050:	48 89 e5             	mov    %rsp,%rbp
    7053:	48 89 7d f8          	mov    %rdi,-0x8(%rbp)
    7057:	48 89 75 f0          	mov    %rsi,-0x10(%rbp)
    705b:	48 8b 45 f8          	mov    -0x8(%rbp),%rax
    705f:	48 2b 45 f0          	sub    -0x10(%rbp),%rax
    7063:	5d                   	pop    %rbp
    7064:	c3                   	retq   

0000000000007065 <safe_mul_func_uint64_t_u_u>:
    7065:	f3 0f 1e fa          	endbr64 
    7069:	55                   	push   %rbp
    706a:	48 89 e5             	mov    %rsp,%rbp
    706d:	48 89 7d f8          	mov    %rdi,-0x8(%rbp)
    7071:	48 89 75 f0          	mov    %rsi,-0x10(%rbp)
    7075:	48 8b 45 f8          	mov    -0x8(%rbp),%rax
    7079:	48 0f af 45 f0       	imul   -0x10(%rbp),%rax
    707e:	5d                   	pop    %rbp
    707f:	c3                   	retq   

0000000000007080 <safe_mod_func_uint64_t_u_u>:
    7080:	f3 0f 1e fa          	endbr64 
    7084:	55                   	push   %rbp
    7085:	48 89 e5             	mov    %rsp,%rbp
    7088:	48 89 7d f8          	mov    %rdi,-0x8(%rbp)
    708c:	48 89 75 f0          	mov    %rsi,-0x10(%rbp)
    7090:	48 83 7d f0 00       	cmpq   $0x0,-0x10(%rbp)
    7095:	74 12                	je     70a9 <safe_mod_func_uint64_t_u_u+0x29>
    7097:	48 8b 45 f8          	mov    -0x8(%rbp),%rax
    709b:	ba 00 00 00 00       	mov    $0x0,%edx
    70a0:	48 f7 75 f0          	divq   -0x10(%rbp)
    70a4:	48 89 d0             	mov    %rdx,%rax
    70a7:	eb 04                	jmp    70ad <safe_mod_func_uint64_t_u_u+0x2d>
    70a9:	48 8b 45 f8          	mov    -0x8(%rbp),%rax
    70ad:	5d                   	pop    %rbp
    70ae:	c3                   	retq   

00000000000070af <safe_div_func_uint64_t_u_u>:
    70af:	f3 0f 1e fa          	endbr64 
    70b3:	55                   	push   %rbp
    70b4:	48 89 e5             	mov    %rsp,%rbp
    70b7:	48 89 7d f8          	mov    %rdi,-0x8(%rbp)
    70bb:	48 89 75 f0          	mov    %rsi,-0x10(%rbp)
    70bf:	48 83 7d f0 00       	cmpq   $0x0,-0x10(%rbp)
    70c4:	74 0f                	je     70d5 <safe_div_func_uint64_t_u_u+0x26>
    70c6:	48 8b 45 f8          	mov    -0x8(%rbp),%rax
    70ca:	ba 00 00 00 00       	mov    $0x0,%edx
    70cf:	48 f7 75 f0          	divq   -0x10(%rbp)
    70d3:	eb 04                	jmp    70d9 <safe_div_func_uint64_t_u_u+0x2a>
    70d5:	48 8b 45 f8          	mov    -0x8(%rbp),%rax
    70d9:	5d                   	pop    %rbp
    70da:	c3                   	retq   

00000000000070db <safe_lshift_func_uint64_t_u_s>:
    70db:	f3 0f 1e fa          	endbr64 
    70df:	55                   	push   %rbp
    70e0:	48 89 e5             	mov    %rsp,%rbp
    70e3:	48 89 7d f8          	mov    %rdi,-0x8(%rbp)
    70e7:	89 75 f4             	mov    %esi,-0xc(%rbp)
    70ea:	83 7d f4 00          	cmpl   $0x0,-0xc(%rbp)
    70ee:	78 2f                	js     711f <safe_lshift_func_uint64_t_u_s+0x44>
    70f0:	83 7d f4 1f          	cmpl   $0x1f,-0xc(%rbp)
    70f4:	7f 29                	jg     711f <safe_lshift_func_uint64_t_u_s+0x44>
    70f6:	8b 45 f4             	mov    -0xc(%rbp),%eax
    70f9:	48 c7 c2 ff ff ff ff 	mov    $0xffffffffffffffff,%rdx
    7100:	89 c1                	mov    %eax,%ecx
    7102:	48 d3 ea             	shr    %cl,%rdx
    7105:	48 89 d0             	mov    %rdx,%rax
    7108:	48 39 45 f8          	cmp    %rax,-0x8(%rbp)
    710c:	77 11                	ja     711f <safe_lshift_func_uint64_t_u_s+0x44>
    710e:	8b 45 f4             	mov    -0xc(%rbp),%eax
    7111:	48 8b 55 f8          	mov    -0x8(%rbp),%rdx
    7115:	89 c1                	mov    %eax,%ecx
    7117:	48 d3 e2             	shl    %cl,%rdx
    711a:	48 89 d0             	mov    %rdx,%rax
    711d:	eb 04                	jmp    7123 <safe_lshift_func_uint64_t_u_s+0x48>
    711f:	48 8b 45 f8          	mov    -0x8(%rbp),%rax
    7123:	5d                   	pop    %rbp
    7124:	c3                   	retq   

0000000000007125 <safe_lshift_func_uint64_t_u_u>:
    7125:	f3 0f 1e fa          	endbr64 
    7129:	55                   	push   %rbp
    712a:	48 89 e5             	mov    %rsp,%rbp
    712d:	48 89 7d f8          	mov    %rdi,-0x8(%rbp)
    7131:	89 75 f4             	mov    %esi,-0xc(%rbp)
    7134:	83 7d f4 1f          	cmpl   $0x1f,-0xc(%rbp)
    7138:	77 29                	ja     7163 <safe_lshift_func_uint64_t_u_u+0x3e>
    713a:	8b 45 f4             	mov    -0xc(%rbp),%eax
    713d:	48 c7 c2 ff ff ff ff 	mov    $0xffffffffffffffff,%rdx
    7144:	89 c1                	mov    %eax,%ecx
    7146:	48 d3 ea             	shr    %cl,%rdx
    7149:	48 89 d0             	mov    %rdx,%rax
    714c:	48 39 45 f8          	cmp    %rax,-0x8(%rbp)
    7150:	77 11                	ja     7163 <safe_lshift_func_uint64_t_u_u+0x3e>
    7152:	8b 45 f4             	mov    -0xc(%rbp),%eax
    7155:	48 8b 55 f8          	mov    -0x8(%rbp),%rdx
    7159:	89 c1                	mov    %eax,%ecx
    715b:	48 d3 e2             	shl    %cl,%rdx
    715e:	48 89 d0             	mov    %rdx,%rax
    7161:	eb 04                	jmp    7167 <safe_lshift_func_uint64_t_u_u+0x42>
    7163:	48 8b 45 f8          	mov    -0x8(%rbp),%rax
    7167:	5d                   	pop    %rbp
    7168:	c3                   	retq   

0000000000007169 <safe_rshift_func_uint64_t_u_s>:
    7169:	f3 0f 1e fa          	endbr64 
    716d:	55                   	push   %rbp
    716e:	48 89 e5             	mov    %rsp,%rbp
    7171:	48 89 7d f8          	mov    %rdi,-0x8(%rbp)
    7175:	89 75 f4             	mov    %esi,-0xc(%rbp)
    7178:	83 7d f4 00          	cmpl   $0x0,-0xc(%rbp)
    717c:	78 17                	js     7195 <safe_rshift_func_uint64_t_u_s+0x2c>
    717e:	83 7d f4 1f          	cmpl   $0x1f,-0xc(%rbp)
    7182:	7f 11                	jg     7195 <safe_rshift_func_uint64_t_u_s+0x2c>
    7184:	8b 45 f4             	mov    -0xc(%rbp),%eax
    7187:	48 8b 55 f8          	mov    -0x8(%rbp),%rdx
    718b:	89 c1                	mov    %eax,%ecx
    718d:	48 d3 ea             	shr    %cl,%rdx
    7190:	48 89 d0             	mov    %rdx,%rax
    7193:	eb 04                	jmp    7199 <safe_rshift_func_uint64_t_u_s+0x30>
    7195:	48 8b 45 f8          	mov    -0x8(%rbp),%rax
    7199:	5d                   	pop    %rbp
    719a:	c3                   	retq   

000000000000719b <safe_rshift_func_uint64_t_u_u>:
    719b:	f3 0f 1e fa          	endbr64 
    719f:	55                   	push   %rbp
    71a0:	48 89 e5             	mov    %rsp,%rbp
    71a3:	48 89 7d f8          	mov    %rdi,-0x8(%rbp)
    71a7:	89 75 f4             	mov    %esi,-0xc(%rbp)
    71aa:	83 7d f4 1f          	cmpl   $0x1f,-0xc(%rbp)
    71ae:	77 11                	ja     71c1 <safe_rshift_func_uint64_t_u_u+0x26>
    71b0:	8b 45 f4             	mov    -0xc(%rbp),%eax
    71b3:	48 8b 55 f8          	mov    -0x8(%rbp),%rdx
    71b7:	89 c1                	mov    %eax,%ecx
    71b9:	48 d3 ea             	shr    %cl,%rdx
    71bc:	48 89 d0             	mov    %rdx,%rax
    71bf:	eb 04                	jmp    71c5 <safe_rshift_func_uint64_t_u_u+0x2a>
    71c1:	48 8b 45 f8          	mov    -0x8(%rbp),%rax
    71c5:	5d                   	pop    %rbp
    71c6:	c3                   	retq   

00000000000071c7 <safe_add_func_float_f_f>:
    71c7:	f3 0f 1e fa          	endbr64 
    71cb:	55                   	push   %rbp
    71cc:	48 89 e5             	mov    %rsp,%rbp
    71cf:	f3 0f 11 45 fc       	movss  %xmm0,-0x4(%rbp)
    71d4:	f3 0f 11 4d f8       	movss  %xmm1,-0x8(%rbp)
    71d9:	f3 0f 10 4d fc       	movss  -0x4(%rbp),%xmm1
    71de:	f3 0f 10 05 9e 83 00 	movss  0x839e(%rip),%xmm0        # f584 <l_732.4564+0x24>
    71e5:	00 
    71e6:	f3 0f 59 c8          	mulss  %xmm0,%xmm1
    71ea:	f3 0f 10 55 f8       	movss  -0x8(%rbp),%xmm2
    71ef:	f3 0f 10 05 8d 83 00 	movss  0x838d(%rip),%xmm0        # f584 <l_732.4564+0x24>
    71f6:	00 
    71f7:	f3 0f 59 c2          	mulss  %xmm2,%xmm0
    71fb:	f3 0f 58 c1          	addss  %xmm1,%xmm0
    71ff:	f3 0f 10 0d 89 83 00 	movss  0x8389(%rip),%xmm1        # f590 <l_732.4564+0x30>
    7206:	00 
    7207:	0f 54 c1             	andps  %xmm1,%xmm0
    720a:	0f 2f 05 8f 83 00 00 	comiss 0x838f(%rip),%xmm0        # f5a0 <l_732.4564+0x40>
    7211:	76 07                	jbe    721a <safe_add_func_float_f_f+0x53>
    7213:	f3 0f 10 45 fc       	movss  -0x4(%rbp),%xmm0
    7218:	eb 0a                	jmp    7224 <safe_add_func_float_f_f+0x5d>
    721a:	f3 0f 10 45 fc       	movss  -0x4(%rbp),%xmm0
    721f:	f3 0f 58 45 f8       	addss  -0x8(%rbp),%xmm0
    7224:	5d                   	pop    %rbp
    7225:	c3                   	retq   

0000000000007226 <safe_sub_func_float_f_f>:
    7226:	f3 0f 1e fa          	endbr64 
    722a:	55                   	push   %rbp
    722b:	48 89 e5             	mov    %rsp,%rbp
    722e:	f3 0f 11 45 fc       	movss  %xmm0,-0x4(%rbp)
    7233:	f3 0f 11 4d f8       	movss  %xmm1,-0x8(%rbp)
    7238:	f3 0f 10 4d fc       	movss  -0x4(%rbp),%xmm1
    723d:	f3 0f 10 05 3f 83 00 	movss  0x833f(%rip),%xmm0        # f584 <l_732.4564+0x24>
    7244:	00 
    7245:	f3 0f 59 c1          	mulss  %xmm1,%xmm0
    7249:	f3 0f 10 55 f8       	movss  -0x8(%rbp),%xmm2
    724e:	f3 0f 10 0d 2e 83 00 	movss  0x832e(%rip),%xmm1        # f584 <l_732.4564+0x24>
    7255:	00 
    7256:	f3 0f 59 ca          	mulss  %xmm2,%xmm1
    725a:	f3 0f 5c c1          	subss  %xmm1,%xmm0
    725e:	f3 0f 10 0d 2a 83 00 	movss  0x832a(%rip),%xmm1        # f590 <l_732.4564+0x30>
    7265:	00 
    7266:	0f 54 c1             	andps  %xmm1,%xmm0
    7269:	0f 2f 05 30 83 00 00 	comiss 0x8330(%rip),%xmm0        # f5a0 <l_732.4564+0x40>
    7270:	76 07                	jbe    7279 <safe_sub_func_float_f_f+0x53>
    7272:	f3 0f 10 45 fc       	movss  -0x4(%rbp),%xmm0
    7277:	eb 0a                	jmp    7283 <safe_sub_func_float_f_f+0x5d>
    7279:	f3 0f 10 45 fc       	movss  -0x4(%rbp),%xmm0
    727e:	f3 0f 5c 45 f8       	subss  -0x8(%rbp),%xmm0
    7283:	5d                   	pop    %rbp
    7284:	c3                   	retq   

0000000000007285 <safe_mul_func_float_f_f>:
    7285:	f3 0f 1e fa          	endbr64 
    7289:	55                   	push   %rbp
    728a:	48 89 e5             	mov    %rsp,%rbp
    728d:	f3 0f 11 45 fc       	movss  %xmm0,-0x4(%rbp)
    7292:	f3 0f 11 4d f8       	movss  %xmm1,-0x8(%rbp)
    7297:	f3 0f 10 4d fc       	movss  -0x4(%rbp),%xmm1
    729c:	f3 0f 10 05 00 83 00 	movss  0x8300(%rip),%xmm0        # f5a4 <l_732.4564+0x44>
    72a3:	00 
    72a4:	f3 0f 59 c8          	mulss  %xmm0,%xmm1
    72a8:	f3 0f 10 55 f8       	movss  -0x8(%rbp),%xmm2
    72ad:	f3 0f 10 05 f3 82 00 	movss  0x82f3(%rip),%xmm0        # f5a8 <l_732.4564+0x48>
    72b4:	00 
    72b5:	f3 0f 59 c2          	mulss  %xmm2,%xmm0
    72b9:	f3 0f 59 c1          	mulss  %xmm1,%xmm0
    72bd:	f3 0f 10 0d cb 82 00 	movss  0x82cb(%rip),%xmm1        # f590 <l_732.4564+0x30>
    72c4:	00 
    72c5:	0f 54 c1             	andps  %xmm1,%xmm0
    72c8:	0f 2f 05 dd 82 00 00 	comiss 0x82dd(%rip),%xmm0        # f5ac <l_732.4564+0x4c>
    72cf:	76 07                	jbe    72d8 <safe_mul_func_float_f_f+0x53>
    72d1:	f3 0f 10 45 fc       	movss  -0x4(%rbp),%xmm0
    72d6:	eb 0a                	jmp    72e2 <safe_mul_func_float_f_f+0x5d>
    72d8:	f3 0f 10 45 fc       	movss  -0x4(%rbp),%xmm0
    72dd:	f3 0f 59 45 f8       	mulss  -0x8(%rbp),%xmm0
    72e2:	5d                   	pop    %rbp
    72e3:	c3                   	retq   

00000000000072e4 <safe_div_func_float_f_f>:
    72e4:	f3 0f 1e fa          	endbr64 
    72e8:	55                   	push   %rbp
    72e9:	48 89 e5             	mov    %rsp,%rbp
    72ec:	f3 0f 11 45 fc       	movss  %xmm0,-0x4(%rbp)
    72f1:	f3 0f 11 4d f8       	movss  %xmm1,-0x8(%rbp)
    72f6:	f3 0f 10 45 f8       	movss  -0x8(%rbp),%xmm0
    72fb:	f3 0f 10 0d 8d 82 00 	movss  0x828d(%rip),%xmm1        # f590 <l_732.4564+0x30>
    7302:	00 
    7303:	0f 54 c8             	andps  %xmm0,%xmm1
    7306:	f3 0f 10 05 a2 82 00 	movss  0x82a2(%rip),%xmm0        # f5b0 <l_732.4564+0x50>
    730d:	00 
    730e:	0f 2f c1             	comiss %xmm1,%xmm0
    7311:	0f 97 c0             	seta   %al
    7314:	83 f0 01             	xor    $0x1,%eax
    7317:	84 c0                	test   %al,%al
    7319:	75 56                	jne    7371 <safe_div_func_float_f_f+0x8d>
    731b:	66 0f ef c0          	pxor   %xmm0,%xmm0
    731f:	0f 2e 45 f8          	ucomiss -0x8(%rbp),%xmm0
    7323:	7a 0a                	jp     732f <safe_div_func_float_f_f+0x4b>
    7325:	66 0f ef c0          	pxor   %xmm0,%xmm0
    7329:	0f 2e 45 f8          	ucomiss -0x8(%rbp),%xmm0
    732d:	74 4e                	je     737d <safe_div_func_float_f_f+0x99>
    732f:	f3 0f 10 4d fc       	movss  -0x4(%rbp),%xmm1
    7334:	f3 0f 10 05 78 82 00 	movss  0x8278(%rip),%xmm0        # f5b4 <l_732.4564+0x54>
    733b:	00 
    733c:	f3 0f 59 c1          	mulss  %xmm1,%xmm0
    7340:	f3 0f 10 55 f8       	movss  -0x8(%rbp),%xmm2
    7345:	f3 0f 10 0d 6b 82 00 	movss  0x826b(%rip),%xmm1        # f5b8 <l_732.4564+0x58>
    734c:	00 
    734d:	f3 0f 59 ca          	mulss  %xmm2,%xmm1
    7351:	f3 0f 5e c1          	divss  %xmm1,%xmm0
    7355:	f3 0f 10 0d 33 82 00 	movss  0x8233(%rip),%xmm1        # f590 <l_732.4564+0x30>
    735c:	00 
    735d:	0f 54 c1             	andps  %xmm1,%xmm0
    7360:	0f 2f 05 55 82 00 00 	comiss 0x8255(%rip),%xmm0        # f5bc <l_732.4564+0x5c>
    7367:	0f 97 c0             	seta   %al
    736a:	83 f0 01             	xor    $0x1,%eax
    736d:	84 c0                	test   %al,%al
    736f:	74 0c                	je     737d <safe_div_func_float_f_f+0x99>
    7371:	f3 0f 10 45 fc       	movss  -0x4(%rbp),%xmm0
    7376:	f3 0f 5e 45 f8       	divss  -0x8(%rbp),%xmm0
    737b:	eb 05                	jmp    7382 <safe_div_func_float_f_f+0x9e>
    737d:	f3 0f 10 45 fc       	movss  -0x4(%rbp),%xmm0
    7382:	5d                   	pop    %rbp
    7383:	c3                   	retq   

0000000000007384 <safe_add_func_double_f_f>:
    7384:	f3 0f 1e fa          	endbr64 
    7388:	55                   	push   %rbp
    7389:	48 89 e5             	mov    %rsp,%rbp
    738c:	f2 0f 11 45 f8       	movsd  %xmm0,-0x8(%rbp)
    7391:	f2 0f 11 4d f0       	movsd  %xmm1,-0x10(%rbp)
    7396:	f2 0f 10 4d f8       	movsd  -0x8(%rbp),%xmm1
    739b:	f2 0f 10 05 1d 82 00 	movsd  0x821d(%rip),%xmm0        # f5c0 <l_732.4564+0x60>
    73a2:	00 
    73a3:	f2 0f 59 c8          	mulsd  %xmm0,%xmm1
    73a7:	f2 0f 10 55 f0       	movsd  -0x10(%rbp),%xmm2
    73ac:	f2 0f 10 05 0c 82 00 	movsd  0x820c(%rip),%xmm0        # f5c0 <l_732.4564+0x60>
    73b3:	00 
    73b4:	f2 0f 59 c2          	mulsd  %xmm2,%xmm0
    73b8:	f2 0f 58 c1          	addsd  %xmm1,%xmm0
    73bc:	f3 0f 7e 0d 0c 82 00 	movq   0x820c(%rip),%xmm1        # f5d0 <l_732.4564+0x70>
    73c3:	00 
    73c4:	66 0f 54 c1          	andpd  %xmm1,%xmm0
    73c8:	66 0f 2f 05 10 82 00 	comisd 0x8210(%rip),%xmm0        # f5e0 <l_732.4564+0x80>
    73cf:	00 
    73d0:	76 07                	jbe    73d9 <safe_add_func_double_f_f+0x55>
    73d2:	f2 0f 10 45 f8       	movsd  -0x8(%rbp),%xmm0
    73d7:	eb 0a                	jmp    73e3 <safe_add_func_double_f_f+0x5f>
    73d9:	f2 0f 10 45 f8       	movsd  -0x8(%rbp),%xmm0
    73de:	f2 0f 58 45 f0       	addsd  -0x10(%rbp),%xmm0
    73e3:	5d                   	pop    %rbp
    73e4:	c3                   	retq   

00000000000073e5 <safe_sub_func_double_f_f>:
    73e5:	f3 0f 1e fa          	endbr64 
    73e9:	55                   	push   %rbp
    73ea:	48 89 e5             	mov    %rsp,%rbp
    73ed:	f2 0f 11 45 f8       	movsd  %xmm0,-0x8(%rbp)
    73f2:	f2 0f 11 4d f0       	movsd  %xmm1,-0x10(%rbp)
    73f7:	f2 0f 10 4d f8       	movsd  -0x8(%rbp),%xmm1
    73fc:	f2 0f 10 05 bc 81 00 	movsd  0x81bc(%rip),%xmm0        # f5c0 <l_732.4564+0x60>
    7403:	00 
    7404:	f2 0f 59 c1          	mulsd  %xmm1,%xmm0
    7408:	f2 0f 10 55 f0       	movsd  -0x10(%rbp),%xmm2
    740d:	f2 0f 10 0d ab 81 00 	movsd  0x81ab(%rip),%xmm1        # f5c0 <l_732.4564+0x60>
    7414:	00 
    7415:	f2 0f 59 ca          	mulsd  %xmm2,%xmm1
    7419:	f2 0f 5c c1          	subsd  %xmm1,%xmm0
    741d:	f3 0f 7e 0d ab 81 00 	movq   0x81ab(%rip),%xmm1        # f5d0 <l_732.4564+0x70>
    7424:	00 
    7425:	66 0f 54 c1          	andpd  %xmm1,%xmm0
    7429:	66 0f 2f 05 af 81 00 	comisd 0x81af(%rip),%xmm0        # f5e0 <l_732.4564+0x80>
    7430:	00 
    7431:	76 07                	jbe    743a <safe_sub_func_double_f_f+0x55>
    7433:	f2 0f 10 45 f8       	movsd  -0x8(%rbp),%xmm0
    7438:	eb 0a                	jmp    7444 <safe_sub_func_double_f_f+0x5f>
    743a:	f2 0f 10 45 f8       	movsd  -0x8(%rbp),%xmm0
    743f:	f2 0f 5c 45 f0       	subsd  -0x10(%rbp),%xmm0
    7444:	5d                   	pop    %rbp
    7445:	c3                   	retq   

0000000000007446 <safe_mul_func_double_f_f>:
    7446:	f3 0f 1e fa          	endbr64 
    744a:	55                   	push   %rbp
    744b:	48 89 e5             	mov    %rsp,%rbp
    744e:	f2 0f 11 45 f8       	movsd  %xmm0,-0x8(%rbp)
    7453:	f2 0f 11 4d f0       	movsd  %xmm1,-0x10(%rbp)
    7458:	f2 0f 10 4d f8       	movsd  -0x8(%rbp),%xmm1
    745d:	f2 0f 10 05 83 81 00 	movsd  0x8183(%rip),%xmm0        # f5e8 <l_732.4564+0x88>
    7464:	00 
    7465:	f2 0f 59 c8          	mulsd  %xmm0,%xmm1
    7469:	f2 0f 10 55 f0       	movsd  -0x10(%rbp),%xmm2
    746e:	f2 0f 10 05 7a 81 00 	movsd  0x817a(%rip),%xmm0        # f5f0 <l_732.4564+0x90>
    7475:	00 
    7476:	f2 0f 59 c2          	mulsd  %xmm2,%xmm0
    747a:	f2 0f 59 c1          	mulsd  %xmm1,%xmm0
    747e:	f3 0f 7e 0d 4a 81 00 	movq   0x814a(%rip),%xmm1        # f5d0 <l_732.4564+0x70>
    7485:	00 
    7486:	66 0f 54 c1          	andpd  %xmm1,%xmm0
    748a:	66 0f 2f 05 66 81 00 	comisd 0x8166(%rip),%xmm0        # f5f8 <l_732.4564+0x98>
    7491:	00 
    7492:	76 07                	jbe    749b <safe_mul_func_double_f_f+0x55>
    7494:	f2 0f 10 45 f8       	movsd  -0x8(%rbp),%xmm0
    7499:	eb 0a                	jmp    74a5 <safe_mul_func_double_f_f+0x5f>
    749b:	f2 0f 10 45 f8       	movsd  -0x8(%rbp),%xmm0
    74a0:	f2 0f 59 45 f0       	mulsd  -0x10(%rbp),%xmm0
    74a5:	5d                   	pop    %rbp
    74a6:	c3                   	retq   

00000000000074a7 <safe_div_func_double_f_f>:
    74a7:	f3 0f 1e fa          	endbr64 
    74ab:	55                   	push   %rbp
    74ac:	48 89 e5             	mov    %rsp,%rbp
    74af:	f2 0f 11 45 f8       	movsd  %xmm0,-0x8(%rbp)
    74b4:	f2 0f 11 4d f0       	movsd  %xmm1,-0x10(%rbp)
    74b9:	f2 0f 10 45 f0       	movsd  -0x10(%rbp),%xmm0
    74be:	f3 0f 7e 0d 0a 81 00 	movq   0x810a(%rip),%xmm1        # f5d0 <l_732.4564+0x70>
    74c5:	00 
    74c6:	66 0f 54 c8          	andpd  %xmm0,%xmm1
    74ca:	f2 0f 10 05 2e 81 00 	movsd  0x812e(%rip),%xmm0        # f600 <l_732.4564+0xa0>
    74d1:	00 
    74d2:	66 0f 2f c1          	comisd %xmm1,%xmm0
    74d6:	0f 97 c0             	seta   %al
    74d9:	83 f0 01             	xor    $0x1,%eax
    74dc:	84 c0                	test   %al,%al
    74de:	75 5a                	jne    753a <safe_div_func_double_f_f+0x93>
    74e0:	66 0f ef c0          	pxor   %xmm0,%xmm0
    74e4:	66 0f 2e 45 f0       	ucomisd -0x10(%rbp),%xmm0
    74e9:	7a 0b                	jp     74f6 <safe_div_func_double_f_f+0x4f>
    74eb:	66 0f ef c0          	pxor   %xmm0,%xmm0
    74ef:	66 0f 2e 45 f0       	ucomisd -0x10(%rbp),%xmm0
    74f4:	74 50                	je     7546 <safe_div_func_double_f_f+0x9f>
    74f6:	f2 0f 10 4d f8       	movsd  -0x8(%rbp),%xmm1
    74fb:	f2 0f 10 05 05 81 00 	movsd  0x8105(%rip),%xmm0        # f608 <l_732.4564+0xa8>
    7502:	00 
    7503:	f2 0f 59 c1          	mulsd  %xmm1,%xmm0
    7507:	f2 0f 10 55 f0       	movsd  -0x10(%rbp),%xmm2
    750c:	f2 0f 10 0d fc 80 00 	movsd  0x80fc(%rip),%xmm1        # f610 <l_732.4564+0xb0>
    7513:	00 
    7514:	f2 0f 59 ca          	mulsd  %xmm2,%xmm1
    7518:	f2 0f 5e c1          	divsd  %xmm1,%xmm0
    751c:	f3 0f 7e 0d ac 80 00 	movq   0x80ac(%rip),%xmm1        # f5d0 <l_732.4564+0x70>
    7523:	00 
    7524:	66 0f 54 c1          	andpd  %xmm1,%xmm0
    7528:	66 0f 2f 05 e8 80 00 	comisd 0x80e8(%rip),%xmm0        # f618 <l_732.4564+0xb8>
    752f:	00 
    7530:	0f 97 c0             	seta   %al
    7533:	83 f0 01             	xor    $0x1,%eax
    7536:	84 c0                	test   %al,%al
    7538:	74 0c                	je     7546 <safe_div_func_double_f_f+0x9f>
    753a:	f2 0f 10 45 f8       	movsd  -0x8(%rbp),%xmm0
    753f:	f2 0f 5e 45 f0       	divsd  -0x10(%rbp),%xmm0
    7544:	eb 05                	jmp    754b <safe_div_func_double_f_f+0xa4>
    7546:	f2 0f 10 45 f8       	movsd  -0x8(%rbp),%xmm0
    754b:	5d                   	pop    %rbp
    754c:	c3                   	retq   

000000000000754d <safe_convert_func_float_to_int32_t>:
    754d:	f3 0f 1e fa          	endbr64 
    7551:	55                   	push   %rbp
    7552:	48 89 e5             	mov    %rsp,%rbp
    7555:	f3 0f 11 45 fc       	movss  %xmm0,-0x4(%rbp)
    755a:	f3 0f 10 05 be 80 00 	movss  0x80be(%rip),%xmm0        # f620 <l_732.4564+0xc0>
    7561:	00 
    7562:	0f 2f 45 fc          	comiss -0x4(%rbp),%xmm0
    7566:	0f 93 c0             	setae  %al
    7569:	83 f0 01             	xor    $0x1,%eax
    756c:	84 c0                	test   %al,%al
    756e:	74 21                	je     7591 <safe_convert_func_float_to_int32_t+0x44>
    7570:	f3 0f 10 45 fc       	movss  -0x4(%rbp),%xmm0
    7575:	0f 2f 05 a8 80 00 00 	comiss 0x80a8(%rip),%xmm0        # f624 <l_732.4564+0xc4>
    757c:	0f 93 c0             	setae  %al
    757f:	83 f0 01             	xor    $0x1,%eax
    7582:	84 c0                	test   %al,%al
    7584:	74 0b                	je     7591 <safe_convert_func_float_to_int32_t+0x44>
    7586:	f3 0f 10 45 fc       	movss  -0x4(%rbp),%xmm0
    758b:	f3 0f 2c c0          	cvttss2si %xmm0,%eax
    758f:	eb 05                	jmp    7596 <safe_convert_func_float_to_int32_t+0x49>
    7591:	b8 ff ff ff 7f       	mov    $0x7fffffff,%eax
    7596:	5d                   	pop    %rbp
    7597:	c3                   	retq   

0000000000007598 <crc32_gentab>:
    7598:	f3 0f 1e fa          	endbr64 
    759c:	55                   	push   %rbp
    759d:	48 89 e5             	mov    %rsp,%rbp
    75a0:	c7 45 fc 20 83 b8 ed 	movl   $0xedb88320,-0x4(%rbp)
    75a7:	c7 45 f4 00 00 00 00 	movl   $0x0,-0xc(%rbp)
    75ae:	eb 51                	jmp    7601 <crc32_gentab+0x69>
    75b0:	8b 45 f4             	mov    -0xc(%rbp),%eax
    75b3:	89 45 f0             	mov    %eax,-0x10(%rbp)
    75b6:	c7 45 f8 08 00 00 00 	movl   $0x8,-0x8(%rbp)
    75bd:	eb 1e                	jmp    75dd <crc32_gentab+0x45>
    75bf:	8b 45 f0             	mov    -0x10(%rbp),%eax
    75c2:	83 e0 01             	and    $0x1,%eax
    75c5:	85 c0                	test   %eax,%eax
    75c7:	74 0d                	je     75d6 <crc32_gentab+0x3e>
    75c9:	8b 45 f0             	mov    -0x10(%rbp),%eax
    75cc:	d1 e8                	shr    %eax
    75ce:	33 45 fc             	xor    -0x4(%rbp),%eax
    75d1:	89 45 f0             	mov    %eax,-0x10(%rbp)
    75d4:	eb 03                	jmp    75d9 <crc32_gentab+0x41>
    75d6:	d1 6d f0             	shrl   -0x10(%rbp)
    75d9:	83 6d f8 01          	subl   $0x1,-0x8(%rbp)
    75dd:	83 7d f8 00          	cmpl   $0x0,-0x8(%rbp)
    75e1:	7f dc                	jg     75bf <crc32_gentab+0x27>
    75e3:	8b 45 f4             	mov    -0xc(%rbp),%eax
    75e6:	48 98                	cltq   
    75e8:	48 8d 0c 85 00 00 00 	lea    0x0(,%rax,4),%rcx
    75ef:	00 
    75f0:	48 8d 15 49 d1 00 00 	lea    0xd149(%rip),%rdx        # 14740 <crc32_tab>
    75f7:	8b 45 f0             	mov    -0x10(%rbp),%eax
    75fa:	89 04 11             	mov    %eax,(%rcx,%rdx,1)
    75fd:	83 45 f4 01          	addl   $0x1,-0xc(%rbp)
    7601:	81 7d f4 ff 00 00 00 	cmpl   $0xff,-0xc(%rbp)
    7608:	7e a6                	jle    75b0 <crc32_gentab+0x18>
    760a:	90                   	nop
    760b:	90                   	nop
    760c:	5d                   	pop    %rbp
    760d:	c3                   	retq   

000000000000760e <crc32_byte>:
    760e:	f3 0f 1e fa          	endbr64 
    7612:	55                   	push   %rbp
    7613:	48 89 e5             	mov    %rsp,%rbp
    7616:	89 f8                	mov    %edi,%eax
    7618:	88 45 fc             	mov    %al,-0x4(%rbp)
    761b:	8b 05 ff a9 00 00    	mov    0xa9ff(%rip),%eax        # 12020 <crc32_context>
    7621:	c1 e8 08             	shr    $0x8,%eax
    7624:	89 c1                	mov    %eax,%ecx
    7626:	0f b6 55 fc          	movzbl -0x4(%rbp),%edx
    762a:	8b 05 f0 a9 00 00    	mov    0xa9f0(%rip),%eax        # 12020 <crc32_context>
    7630:	31 d0                	xor    %edx,%eax
    7632:	0f b6 c0             	movzbl %al,%eax
    7635:	89 c0                	mov    %eax,%eax
    7637:	48 8d 14 85 00 00 00 	lea    0x0(,%rax,4),%rdx
    763e:	00 
    763f:	48 8d 05 fa d0 00 00 	lea    0xd0fa(%rip),%rax        # 14740 <crc32_tab>
    7646:	8b 04 02             	mov    (%rdx,%rax,1),%eax
    7649:	31 c8                	xor    %ecx,%eax
    764b:	89 05 cf a9 00 00    	mov    %eax,0xa9cf(%rip)        # 12020 <crc32_context>
    7651:	90                   	nop
    7652:	5d                   	pop    %rbp
    7653:	c3                   	retq   

0000000000007654 <crc32_8bytes>:
    7654:	f3 0f 1e fa          	endbr64 
    7658:	55                   	push   %rbp
    7659:	48 89 e5             	mov    %rsp,%rbp
    765c:	48 83 ec 08          	sub    $0x8,%rsp
    7660:	48 89 7d f8          	mov    %rdi,-0x8(%rbp)
    7664:	48 8b 45 f8          	mov    -0x8(%rbp),%rax
    7668:	0f b6 c0             	movzbl %al,%eax
    766b:	89 c7                	mov    %eax,%edi
    766d:	e8 9c ff ff ff       	callq  760e <crc32_byte>
    7672:	48 8b 45 f8          	mov    -0x8(%rbp),%rax
    7676:	48 c1 e8 08          	shr    $0x8,%rax
    767a:	0f b6 c0             	movzbl %al,%eax
    767d:	89 c7                	mov    %eax,%edi
    767f:	e8 8a ff ff ff       	callq  760e <crc32_byte>
    7684:	48 8b 45 f8          	mov    -0x8(%rbp),%rax
    7688:	48 c1 e8 10          	shr    $0x10,%rax
    768c:	0f b6 c0             	movzbl %al,%eax
    768f:	89 c7                	mov    %eax,%edi
    7691:	e8 78 ff ff ff       	callq  760e <crc32_byte>
    7696:	48 8b 45 f8          	mov    -0x8(%rbp),%rax
    769a:	48 c1 e8 18          	shr    $0x18,%rax
    769e:	0f b6 c0             	movzbl %al,%eax
    76a1:	89 c7                	mov    %eax,%edi
    76a3:	e8 66 ff ff ff       	callq  760e <crc32_byte>
    76a8:	48 8b 45 f8          	mov    -0x8(%rbp),%rax
    76ac:	48 c1 e8 20          	shr    $0x20,%rax
    76b0:	0f b6 c0             	movzbl %al,%eax
    76b3:	89 c7                	mov    %eax,%edi
    76b5:	e8 54 ff ff ff       	callq  760e <crc32_byte>
    76ba:	48 8b 45 f8          	mov    -0x8(%rbp),%rax
    76be:	48 c1 e8 28          	shr    $0x28,%rax
    76c2:	0f b6 c0             	movzbl %al,%eax
    76c5:	89 c7                	mov    %eax,%edi
    76c7:	e8 42 ff ff ff       	callq  760e <crc32_byte>
    76cc:	48 8b 45 f8          	mov    -0x8(%rbp),%rax
    76d0:	48 c1 e8 30          	shr    $0x30,%rax
    76d4:	0f b6 c0             	movzbl %al,%eax
    76d7:	89 c7                	mov    %eax,%edi
    76d9:	e8 30 ff ff ff       	callq  760e <crc32_byte>
    76de:	48 8b 45 f8          	mov    -0x8(%rbp),%rax
    76e2:	48 c1 e8 38          	shr    $0x38,%rax
    76e6:	0f b6 c0             	movzbl %al,%eax
    76e9:	89 c7                	mov    %eax,%edi
    76eb:	e8 1e ff ff ff       	callq  760e <crc32_byte>
    76f0:	90                   	nop
    76f1:	c9                   	leaveq 
    76f2:	c3                   	retq   

00000000000076f3 <transparent_crc>:
    76f3:	f3 0f 1e fa          	endbr64 
    76f7:	55                   	push   %rbp
    76f8:	48 89 e5             	mov    %rsp,%rbp
    76fb:	48 83 ec 20          	sub    $0x20,%rsp
    76ff:	48 89 7d f8          	mov    %rdi,-0x8(%rbp)
    7703:	48 89 75 f0          	mov    %rsi,-0x10(%rbp)
    7707:	89 55 ec             	mov    %edx,-0x14(%rbp)
    770a:	48 8b 45 f8          	mov    -0x8(%rbp),%rax
    770e:	48 89 c7             	mov    %rax,%rdi
    7711:	e8 3e ff ff ff       	callq  7654 <crc32_8bytes>
    7716:	83 7d ec 00          	cmpl   $0x0,-0x14(%rbp)
    771a:	74 22                	je     773e <transparent_crc+0x4b>
    771c:	8b 05 fe a8 00 00    	mov    0xa8fe(%rip),%eax        # 12020 <crc32_context>
    7722:	f7 d0                	not    %eax
    7724:	89 c2                	mov    %eax,%edx
    7726:	48 8b 45 f0          	mov    -0x10(%rbp),%rax
    772a:	48 89 c6             	mov    %rax,%rsi
    772d:	48 8d 3d fc 78 00 00 	lea    0x78fc(%rip),%rdi        # f030 <_IO_stdin_used+0x30>
    7734:	b8 00 00 00 00       	mov    $0x0,%eax
    7739:	e8 42 e9 ff ff       	callq  6080 <printf@plt>
    773e:	90                   	nop
    773f:	c9                   	leaveq 
    7740:	c3                   	retq   

0000000000007741 <transparent_crc_bytes>:
    7741:	f3 0f 1e fa          	endbr64 
    7745:	55                   	push   %rbp
    7746:	48 89 e5             	mov    %rsp,%rbp
    7749:	48 83 ec 30          	sub    $0x30,%rsp
    774d:	48 89 7d e8          	mov    %rdi,-0x18(%rbp)
    7751:	89 75 e4             	mov    %esi,-0x1c(%rbp)
    7754:	48 89 55 d8          	mov    %rdx,-0x28(%rbp)
    7758:	89 4d e0             	mov    %ecx,-0x20(%rbp)
    775b:	c7 45 fc 00 00 00 00 	movl   $0x0,-0x4(%rbp)
    7762:	eb 1e                	jmp    7782 <transparent_crc_bytes+0x41>
    7764:	8b 45 fc             	mov    -0x4(%rbp),%eax
    7767:	48 63 d0             	movslq %eax,%rdx
    776a:	48 8b 45 e8          	mov    -0x18(%rbp),%rax
    776e:	48 01 d0             	add    %rdx,%rax
    7771:	0f b6 00             	movzbl (%rax),%eax
    7774:	0f b6 c0             	movzbl %al,%eax
    7777:	89 c7                	mov    %eax,%edi
    7779:	e8 90 fe ff ff       	callq  760e <crc32_byte>
    777e:	83 45 fc 01          	addl   $0x1,-0x4(%rbp)
    7782:	8b 45 fc             	mov    -0x4(%rbp),%eax
    7785:	3b 45 e4             	cmp    -0x1c(%rbp),%eax
    7788:	7c da                	jl     7764 <transparent_crc_bytes+0x23>
    778a:	83 7d e0 00          	cmpl   $0x0,-0x20(%rbp)
    778e:	74 22                	je     77b2 <transparent_crc_bytes+0x71>
    7790:	8b 05 8a a8 00 00    	mov    0xa88a(%rip),%eax        # 12020 <crc32_context>
    7796:	f7 d0                	not    %eax
    7798:	89 c2                	mov    %eax,%edx
    779a:	48 8b 45 d8          	mov    -0x28(%rbp),%rax
    779e:	48 89 c6             	mov    %rax,%rsi
    77a1:	48 8d 3d 88 78 00 00 	lea    0x7888(%rip),%rdi        # f030 <_IO_stdin_used+0x30>
    77a8:	b8 00 00 00 00       	mov    $0x0,%eax
    77ad:	e8 ce e8 ff ff       	callq  6080 <printf@plt>
    77b2:	90                   	nop
    77b3:	c9                   	leaveq 
    77b4:	c3                   	retq   

00000000000077b5 <func_1>:
    77b5:	f3 0f 1e fa          	endbr64 
    77b9:	55                   	push   %rbp
    77ba:	48 89 e5             	mov    %rsp,%rbp
    77bd:	41 57                	push   %r15
    77bf:	41 56                	push   %r14
    77c1:	41 55                	push   %r13
    77c3:	41 54                	push   %r12
    77c5:	53                   	push   %rbx
    77c6:	48 83 ec 68          	sub    $0x68,%rsp
    77ca:	64 48 8b 04 25 28 00 	mov    %fs:0x28,%rax
    77d1:	00 00 
    77d3:	48 89 45 c8          	mov    %rax,-0x38(%rbp)
    77d7:	31 c0                	xor    %eax,%eax
    77d9:	48 8d 05 44 a8 00 00 	lea    0xa844(%rip),%rax        # 12024 <g_21>
    77e0:	48 89 45 88          	mov    %rax,-0x78(%rbp)
    77e4:	48 8d 05 3d a8 00 00 	lea    0xa83d(%rip),%rax        # 12028 <g_23>
    77eb:	48 89 45 90          	mov    %rax,-0x70(%rbp)
    77ef:	c7 45 80 f9 ff ff ff 	movl   $0xfffffff9,-0x80(%rbp)
    77f6:	48 8d 05 57 d3 00 00 	lea    0xd357(%rip),%rax        # 14b54 <g_67>
    77fd:	48 89 45 98          	mov    %rax,-0x68(%rbp)
    7801:	66 c7 45 b6 36 cb    	movw   $0xcb36,-0x4a(%rbp)
    7807:	66 c7 45 b8 36 cb    	movw   $0xcb36,-0x48(%rbp)
    780d:	66 c7 45 ba 36 cb    	movw   $0xcb36,-0x46(%rbp)
    7813:	66 c7 45 bc 36 cb    	movw   $0xcb36,-0x44(%rbp)
    7819:	66 c7 45 be 36 cb    	movw   $0xcb36,-0x42(%rbp)
    781f:	c7 45 84 ff ff ff ff 	movl   $0xffffffff,-0x7c(%rbp)
    7826:	48 b8 ef ad 8e dd 83 	movabs $0x226b6e83dd8eadef,%rax
    782d:	6e 6b 22 
    7830:	48 89 45 a0          	mov    %rax,-0x60(%rbp)
    7834:	48 8d 05 f5 c2 00 00 	lea    0xc2f5(%rip),%rax        # 13b30 <g_93+0x110>
    783b:	48 89 45 a8          	mov    %rax,-0x58(%rbp)
    783f:	c7 45 c1 fd fd fd fd 	movl   $0xfdfdfdfd,-0x3f(%rbp)
    7846:	66 c7 45 c5 fd fd    	movw   $0xfdfd,-0x3b(%rbp)
    784c:	c6 45 c7 fd          	movb   $0xfd,-0x39(%rbp)
    7850:	c6 85 7f ff ff ff 00 	movb   $0x0,-0x81(%rbp)
    7857:	48 8d 05 ec d2 00 00 	lea    0xd2ec(%rip),%rax        # 14b4a <g_19+0x2>
    785e:	0f b7 00             	movzwl (%rax),%eax
    7861:	0f bf d8             	movswl %ax,%ebx
    7864:	48 8b 05 c5 cc 00 00 	mov    0xccc5(%rip),%rax        # 14530 <g_654>
    786b:	44 8b 30             	mov    (%rax),%r14d
    786e:	48 8b 05 73 ce 00 00 	mov    0xce73(%rip),%rax        # 146e8 <g_1071>
    7875:	48 8b 00             	mov    (%rax),%rax
    7878:	48 8b 00             	mov    (%rax),%rax
    787b:	0f b7 00             	movzwl (%rax),%eax
    787e:	44 0f b7 e8          	movzwl %ax,%r13d
    7882:	48 8b 05 a7 cc 00 00 	mov    0xcca7(%rip),%rax        # 14530 <g_654>
    7889:	44 8b 20             	mov    (%rax),%r12d
    788c:	0f b7 45 b6          	movzwl -0x4a(%rbp),%eax
    7890:	44 0f b7 f8          	movzwl %ax,%r15d
    7894:	8b 45 80             	mov    -0x80(%rbp),%eax
    7897:	0f bf f8             	movswl %ax,%edi
    789a:	48 8b 45 98          	mov    -0x68(%rbp),%rax
    789e:	0f b6 00             	movzbl (%rax),%eax
    78a1:	8b 55 80             	mov    -0x80(%rbp),%edx
    78a4:	09 c2                	or     %eax,%edx
    78a6:	48 8b 45 98          	mov    -0x68(%rbp),%rax
    78aa:	88 10                	mov    %dl,(%rax)
    78ac:	48 8b 45 98          	mov    -0x68(%rbp),%rax
    78b0:	0f b6 00             	movzbl (%rax),%eax
    78b3:	0f be c8             	movsbl %al,%ecx
    78b6:	8b 75 80             	mov    -0x80(%rbp),%esi
    78b9:	8b 45 80             	mov    -0x80(%rbp),%eax
    78bc:	98                   	cwtl   
    78bd:	48 8b 55 90          	mov    -0x70(%rbp),%rdx
    78c1:	41 89 f8             	mov    %edi,%r8d
    78c4:	89 c7                	mov    %eax,%edi
    78c6:	e8 55 07 00 00       	callq  8020 <func_59>
    78cb:	48 83 7d 90 00       	cmpq   $0x0,-0x70(%rbp)
    78d0:	0f 95 c2             	setne  %dl
    78d3:	48 8b 05 a6 c3 00 00 	mov    0xc3a6(%rip),%rax        # 13c80 <g_109>
    78da:	8b 00                	mov    (%rax),%eax
    78dc:	39 45 80             	cmp    %eax,-0x80(%rbp)
    78df:	0f 9f c0             	setg   %al
    78e2:	31 d0                	xor    %edx,%eax
    78e4:	84 c0                	test   %al,%al
    78e6:	75 06                	jne    78ee <func_1+0x139>
    78e8:	83 7d 80 00          	cmpl   $0x0,-0x80(%rbp)
    78ec:	74 07                	je     78f5 <func_1+0x140>
    78ee:	b8 01 00 00 00       	mov    $0x1,%eax
    78f3:	eb 05                	jmp    78fa <func_1+0x145>
    78f5:	b8 00 00 00 00       	mov    $0x0,%eax
    78fa:	44 89 fe             	mov    %r15d,%esi
    78fd:	89 c7                	mov    %eax,%edi
    78ff:	e8 dd 03 00 00       	callq  7ce1 <func_56>
    7904:	8b 45 80             	mov    -0x80(%rbp),%eax
    7907:	89 45 84             	mov    %eax,-0x7c(%rbp)
    790a:	44 8b 7d 84          	mov    -0x7c(%rbp),%r15d
    790e:	0f b7 05 39 d2 00 00 	movzwl 0xd239(%rip),%eax        # 14b4e <g_19+0x6>
    7915:	0f bf d0             	movswl %ax,%edx
    7918:	48 8b 45 88          	mov    -0x78(%rbp),%rax
    791c:	89 10                	mov    %edx,(%rax)
    791e:	48 8b 45 88          	mov    -0x78(%rbp),%rax
    7922:	8b 00                	mov    (%rax),%eax
    7924:	89 c7                	mov    %eax,%edi
    7926:	e8 6b ec ff ff       	callq  6596 <safe_unary_minus_func_int32_t_s>
    792b:	0f b7 0d 1c d2 00 00 	movzwl 0xd21c(%rip),%ecx        # 14b4e <g_19+0x6>
    7932:	48 8b 55 90          	mov    -0x70(%rbp),%rdx
    7936:	66 89 0a             	mov    %cx,(%rdx)
    7939:	48 8b 55 90          	mov    -0x70(%rbp),%rdx
    793d:	0f b7 12             	movzwl (%rdx),%edx
    7940:	0f bf d2             	movswl %dx,%edx
    7943:	39 d0                	cmp    %edx,%eax
    7945:	0f 94 c0             	sete   %al
    7948:	0f b6 c0             	movzbl %al,%eax
    794b:	89 c7                	mov    %eax,%edi
    794d:	e8 c4 01 00 00       	callq  7b16 <func_16>
    7952:	4c 89 fe             	mov    %r15,%rsi
    7955:	48 89 c7             	mov    %rax,%rdi
    7958:	e8 52 f7 ff ff       	callq  70af <safe_div_func_uint64_t_u_u>
    795d:	0f b7 c0             	movzwl %ax,%eax
    7960:	be 00 00 00 00       	mov    $0x0,%esi
    7965:	89 c7                	mov    %eax,%edi
    7967:	e8 93 f3 ff ff       	callq  6cff <safe_add_func_uint16_t_u_u>
    796c:	66 85 c0             	test   %ax,%ax
    796f:	74 0e                	je     797f <func_1+0x1ca>
    7971:	48 83 7d a0 00       	cmpq   $0x0,-0x60(%rbp)
    7976:	74 07                	je     797f <func_1+0x1ca>
    7978:	b8 01 00 00 00       	mov    $0x1,%eax
    797d:	eb 05                	jmp    7984 <func_1+0x1cf>
    797f:	b8 00 00 00 00       	mov    $0x0,%eax
    7984:	0f b6 c0             	movzbl %al,%eax
    7987:	44 89 f1             	mov    %r14d,%ecx
    798a:	44 89 ea             	mov    %r13d,%edx
    798d:	44 89 e6             	mov    %r12d,%esi
    7990:	89 c7                	mov    %eax,%edi
    7992:	e8 19 01 00 00       	callq  7ab0 <func_7>
    7997:	0f b7 c0             	movzwl %ax,%eax
    799a:	89 de                	mov    %ebx,%esi
    799c:	89 c7                	mov    %eax,%edi
    799e:	e8 a5 f4 ff ff       	callq  6e48 <safe_rshift_func_uint16_t_u_s>
    79a3:	bf 00 00 00 00       	mov    $0x0,%edi
    79a8:	e8 3c f3 ff ff       	callq  6ce9 <safe_unary_minus_func_uint16_t_u>
    79ad:	0f b7 d0             	movzwl %ax,%edx
    79b0:	48 8b 45 88          	mov    -0x78(%rbp),%rax
    79b4:	89 10                	mov    %edx,(%rax)
    79b6:	48 8b 45 88          	mov    -0x78(%rbp),%rax
    79ba:	8b 10                	mov    (%rax),%edx
    79bc:	48 8b 45 88          	mov    -0x78(%rbp),%rax
    79c0:	89 10                	mov    %edx,(%rax)
    79c2:	48 8b 45 88          	mov    -0x78(%rbp),%rax
    79c6:	8b 00                	mov    (%rax),%eax
    79c8:	0f b7 d0             	movzwl %ax,%edx
    79cb:	48 83 7d a8 00       	cmpq   $0x0,-0x58(%rbp)
    79d0:	0f 94 c0             	sete   %al
    79d3:	0f b6 c0             	movzbl %al,%eax
    79d6:	89 d6                	mov    %edx,%esi
    79d8:	89 c7                	mov    %eax,%edi
    79da:	e8 5e f3 ff ff       	callq  6d3d <safe_mul_func_uint16_t_u_u>
    79df:	89 c2                	mov    %eax,%edx
    79e1:	48 8b 45 88          	mov    -0x78(%rbp),%rax
    79e5:	8b 00                	mov    (%rax),%eax
    79e7:	09 d0                	or     %edx,%eax
    79e9:	0f bf d0             	movswl %ax,%edx
    79ec:	48 8b 45 88          	mov    -0x78(%rbp),%rax
    79f0:	8b 00                	mov    (%rax),%eax
    79f2:	98                   	cwtl   
    79f3:	89 d6                	mov    %edx,%esi
    79f5:	89 c7                	mov    %eax,%edi
    79f7:	e8 f9 e9 ff ff       	callq  63f5 <safe_mul_func_int16_t_s_s>
    79fc:	0f be 9d 7f ff ff ff 	movsbl -0x81(%rbp),%ebx
    7a03:	48 8b 45 88          	mov    -0x78(%rbp),%rax
    7a07:	8b 00                	mov    (%rax),%eax
    7a09:	85 c0                	test   %eax,%eax
    7a0b:	75 24                	jne    7a31 <func_1+0x27c>
    7a0d:	48 8b 05 f4 bf 00 00 	mov    0xbff4(%rip),%rax        # 13a08 <g_54>
    7a14:	0f b7 10             	movzwl (%rax),%edx
    7a17:	48 8b 45 88          	mov    -0x78(%rbp),%rax
    7a1b:	8b 00                	mov    (%rax),%eax
    7a1d:	89 c1                	mov    %eax,%ecx
    7a1f:	48 8b 05 e2 bf 00 00 	mov    0xbfe2(%rip),%rax        # 13a08 <g_54>
    7a26:	21 ca                	and    %ecx,%edx
    7a28:	66 89 10             	mov    %dx,(%rax)
    7a2b:	0f b7 00             	movzwl (%rax),%eax
    7a2e:	66 85 c0             	test   %ax,%ax
    7a31:	48 8b 05 a0 c2 00 00 	mov    0xc2a0(%rip),%rax        # 13cd8 <g_531>
    7a38:	48 8b 00             	mov    (%rax),%rax
    7a3b:	48 8b 38             	mov    (%rax),%rdi
    7a3e:	48 8b 45 88          	mov    -0x78(%rbp),%rax
    7a42:	8b 00                	mov    (%rax),%eax
    7a44:	0f be c8             	movsbl %al,%ecx
    7a47:	48 8b 45 88          	mov    -0x78(%rbp),%rax
    7a4b:	8b 00                	mov    (%rax),%eax
    7a4d:	48 63 d0             	movslq %eax,%rdx
    7a50:	0f b6 45 c1          	movzbl -0x3f(%rbp),%eax
    7a54:	0f be f0             	movsbl %al,%esi
    7a57:	48 8b 45 88          	mov    -0x78(%rbp),%rax
    7a5b:	8b 00                	mov    (%rax),%eax
    7a5d:	49 89 f8             	mov    %rdi,%r8
    7a60:	89 c7                	mov    %eax,%edi
    7a62:	e8 cc 01 00 00       	callq  7c33 <func_31>
    7a67:	48 89 c1             	mov    %rax,%rcx
    7a6a:	4c 8b 25 8f cc 00 00 	mov    0xcc8f(%rip),%r12        # 14700 <g_1329>
    7a71:	8b 45 84             	mov    -0x7c(%rbp),%eax
    7a74:	89 c2                	mov    %eax,%edx
    7a76:	89 de                	mov    %ebx,%esi
    7a78:	48 89 cf             	mov    %rcx,%rdi
    7a7b:	e8 7d 66 00 00       	callq  e0fd <func_82>
    7a80:	49 89 04 24          	mov    %rax,(%r12)
    7a84:	48 8b 05 a5 ca 00 00 	mov    0xcaa5(%rip),%rax        # 14530 <g_654>
    7a8b:	8b 00                	mov    (%rax),%eax
    7a8d:	48 8b 5d c8          	mov    -0x38(%rbp),%rbx
    7a91:	64 48 33 1c 25 28 00 	xor    %fs:0x28,%rbx
    7a98:	00 00 
    7a9a:	74 05                	je     7aa1 <func_1+0x2ec>
    7a9c:	e8 cf e5 ff ff       	callq  6070 <__stack_chk_fail@plt>
    7aa1:	48 83 c4 68          	add    $0x68,%rsp
    7aa5:	5b                   	pop    %rbx
    7aa6:	41 5c                	pop    %r12
    7aa8:	41 5d                	pop    %r13
    7aaa:	41 5e                	pop    %r14
    7aac:	41 5f                	pop    %r15
    7aae:	5d                   	pop    %rbp
    7aaf:	c3                   	retq   

0000000000007ab0 <func_7>:
    7ab0:	f3 0f 1e fa          	endbr64 
    7ab4:	55                   	push   %rbp
    7ab5:	48 89 e5             	mov    %rsp,%rbp
    7ab8:	48 83 ec 30          	sub    $0x30,%rsp
    7abc:	89 75 d8             	mov    %esi,-0x28(%rbp)
    7abf:	89 d0                	mov    %edx,%eax
    7ac1:	89 4d d0             	mov    %ecx,-0x30(%rbp)
    7ac4:	89 fa                	mov    %edi,%edx
    7ac6:	88 55 dc             	mov    %dl,-0x24(%rbp)
    7ac9:	66 89 45 d4          	mov    %ax,-0x2c(%rbp)
    7acd:	64 48 8b 04 25 28 00 	mov    %fs:0x28,%rax
    7ad4:	00 00 
    7ad6:	48 89 45 f8          	mov    %rax,-0x8(%rbp)
    7ada:	31 c0                	xor    %eax,%eax
    7adc:	c7 45 ec 00 00 00 00 	movl   $0x0,-0x14(%rbp)
    7ae3:	eb 0e                	jmp    7af3 <func_7+0x43>
    7ae5:	8b 45 ec             	mov    -0x14(%rbp),%eax
    7ae8:	48 98                	cltq   
    7aea:	c6 44 05 f3 01       	movb   $0x1,-0xd(%rbp,%rax,1)
    7aef:	83 45 ec 01          	addl   $0x1,-0x14(%rbp)
    7af3:	83 7d ec 04          	cmpl   $0x4,-0x14(%rbp)
    7af7:	7e ec                	jle    7ae5 <func_7+0x35>
    7af9:	0f b6 45 f3          	movzbl -0xd(%rbp),%eax
    7afd:	0f b6 c0             	movzbl %al,%eax
    7b00:	48 8b 4d f8          	mov    -0x8(%rbp),%rcx
    7b04:	64 48 33 0c 25 28 00 	xor    %fs:0x28,%rcx
    7b0b:	00 00 
    7b0d:	74 05                	je     7b14 <func_7+0x64>
    7b0f:	e8 5c e5 ff ff       	callq  6070 <__stack_chk_fail@plt>
    7b14:	c9                   	leaveq 
    7b15:	c3                   	retq   

0000000000007b16 <func_16>:
    7b16:	f3 0f 1e fa          	endbr64 
    7b1a:	55                   	push   %rbp
    7b1b:	48 89 e5             	mov    %rsp,%rbp
    7b1e:	41 57                	push   %r15
    7b20:	41 56                	push   %r14
    7b22:	41 55                	push   %r13
    7b24:	41 54                	push   %r12
    7b26:	53                   	push   %rbx
    7b27:	48 83 ec 48          	sub    $0x48,%rsp
    7b2b:	89 7d 9c             	mov    %edi,-0x64(%rbp)
    7b2e:	48 c7 45 b0 00 00 00 	movq   $0x0,-0x50(%rbp)
    7b35:	00 
    7b36:	48 8d 05 f3 a4 00 00 	lea    0xa4f3(%rip),%rax        # 12030 <g_30>
    7b3d:	48 89 45 b8          	mov    %rax,-0x48(%rbp)
    7b41:	c7 45 ac 01 00 00 00 	movl   $0x1,-0x54(%rbp)
    7b48:	48 8d 05 d9 a4 00 00 	lea    0xa4d9(%rip),%rax        # 12028 <g_23>
    7b4f:	48 89 45 c0          	mov    %rax,-0x40(%rbp)
    7b53:	48 8d 05 b6 be 00 00 	lea    0xbeb6(%rip),%rax        # 13a10 <g_53>
    7b5a:	48 89 45 c8          	mov    %rax,-0x38(%rbp)
    7b5e:	0f b7 05 c3 a4 00 00 	movzwl 0xa4c3(%rip),%eax        # 12028 <g_23>
    7b65:	0f bf d8             	movswl %ax,%ebx
    7b68:	8b 45 9c             	mov    -0x64(%rbp),%eax
    7b6b:	0f b6 c0             	movzbl %al,%eax
    7b6e:	be 06 00 00 00       	mov    $0x6,%esi
    7b73:	89 c7                	mov    %eax,%edi
    7b75:	e8 44 f1 ff ff       	callq  6cbe <safe_rshift_func_uint8_t_u_u>
    7b7a:	0f b6 d0             	movzbl %al,%edx
    7b7d:	0f b7 05 ca cf 00 00 	movzwl 0xcfca(%rip),%eax        # 14b4e <g_19+0x6>
    7b84:	98                   	cwtl   
    7b85:	39 c2                	cmp    %eax,%edx
    7b87:	0f 9c c0             	setl   %al
    7b8a:	0f b6 c0             	movzbl %al,%eax
    7b8d:	39 c3                	cmp    %eax,%ebx
    7b8f:	0f 9d c0             	setge  %al
    7b92:	0f b6 d0             	movzbl %al,%edx
    7b95:	48 8b 45 b8          	mov    -0x48(%rbp),%rax
    7b99:	48 89 10             	mov    %rdx,(%rax)
    7b9c:	8b 45 9c             	mov    -0x64(%rbp),%eax
    7b9f:	4c 63 f8             	movslq %eax,%r15
    7ba2:	48 8b 05 87 a4 00 00 	mov    0xa487(%rip),%rax        # 12030 <g_30>
    7ba9:	44 0f be e8          	movsbl %al,%r13d
    7bad:	0f b7 05 9a cf 00 00 	movzwl 0xcf9a(%rip),%eax        # 14b4e <g_19+0x6>
    7bb4:	4c 0f bf e0          	movswq %ax,%r12
    7bb8:	0f b7 05 69 a4 00 00 	movzwl 0xa469(%rip),%eax        # 12028 <g_23>
    7bbf:	0f bf d8             	movswl %ax,%ebx
    7bc2:	4c 8b 35 1f be 00 00 	mov    0xbe1f(%rip),%r14        # 139e8 <g_49+0x8>
    7bc9:	8b 45 9c             	mov    -0x64(%rbp),%eax
    7bcc:	0f b7 c0             	movzwl %ax,%eax
    7bcf:	be 01 00 00 00       	mov    $0x1,%esi
    7bd4:	89 c7                	mov    %eax,%edi
    7bd6:	e8 2b f2 ff ff       	callq  6e06 <safe_lshift_func_uint16_t_u_u>
    7bdb:	0f b6 c0             	movzbl %al,%eax
    7bde:	be 00 00 00 00       	mov    $0x0,%esi
    7be3:	89 c7                	mov    %eax,%edi
    7be5:	e8 a9 ef ff ff       	callq  6b93 <safe_mul_func_uint8_t_u_u>
    7bea:	0f b6 f0             	movzbl %al,%esi
    7bed:	48 8b 55 c0          	mov    -0x40(%rbp),%rdx
    7bf1:	48 8b 45 b0          	mov    -0x50(%rbp),%rax
    7bf5:	4c 89 f1             	mov    %r14,%rcx
    7bf8:	48 89 c7             	mov    %rax,%rdi
    7bfb:	e8 b1 00 00 00       	callq  7cb1 <func_37>
    7c00:	4d 89 f8             	mov    %r15,%r8
    7c03:	44 89 e9             	mov    %r13d,%ecx
    7c06:	4c 89 e2             	mov    %r12,%rdx
    7c09:	89 de                	mov    %ebx,%esi
    7c0b:	89 c7                	mov    %eax,%edi
    7c0d:	e8 21 00 00 00       	callq  7c33 <func_31>
    7c12:	48 8b 55 c8          	mov    -0x38(%rbp),%rdx
    7c16:	48 89 02             	mov    %rax,(%rdx)
    7c19:	0f b7 05 08 a4 00 00 	movzwl 0xa408(%rip),%eax        # 12028 <g_23>
    7c20:	48 0f bf c0          	movswq %ax,%rax
    7c24:	48 83 c4 48          	add    $0x48,%rsp
    7c28:	5b                   	pop    %rbx
    7c29:	41 5c                	pop    %r12
    7c2b:	41 5d                	pop    %r13
    7c2d:	41 5e                	pop    %r14
    7c2f:	41 5f                	pop    %r15
    7c31:	5d                   	pop    %rbp
    7c32:	c3                   	retq   

0000000000007c33 <func_31>:
    7c33:	f3 0f 1e fa          	endbr64 
    7c37:	55                   	push   %rbp
    7c38:	48 89 e5             	mov    %rsp,%rbp
    7c3b:	48 83 ec 50          	sub    $0x50,%rsp
    7c3f:	89 7d cc             	mov    %edi,-0x34(%rbp)
    7c42:	89 75 c8             	mov    %esi,-0x38(%rbp)
    7c45:	48 89 55 c0          	mov    %rdx,-0x40(%rbp)
    7c49:	89 c8                	mov    %ecx,%eax
    7c4b:	4c 89 45 b0          	mov    %r8,-0x50(%rbp)
    7c4f:	88 45 bc             	mov    %al,-0x44(%rbp)
    7c52:	64 48 8b 04 25 28 00 	mov    %fs:0x28,%rax
    7c59:	00 00 
    7c5b:	48 89 45 f8          	mov    %rax,-0x8(%rbp)
    7c5f:	31 c0                	xor    %eax,%eax
    7c61:	c7 45 dc 00 00 00 00 	movl   $0x0,-0x24(%rbp)
    7c68:	eb 15                	jmp    7c7f <func_31+0x4c>
    7c6a:	8b 45 dc             	mov    -0x24(%rbp),%eax
    7c6d:	48 98                	cltq   
    7c6f:	48 8d 15 ae a3 00 00 	lea    0xa3ae(%rip),%rdx        # 12024 <g_21>
    7c76:	48 89 54 c5 e0       	mov    %rdx,-0x20(%rbp,%rax,8)
    7c7b:	83 45 dc 01          	addl   $0x1,-0x24(%rbp)
    7c7f:	83 7d dc 02          	cmpl   $0x2,-0x24(%rbp)
    7c83:	7e e5                	jle    7c6a <func_31+0x37>
    7c85:	8b 05 99 a3 00 00    	mov    0xa399(%rip),%eax        # 12024 <g_21>
    7c8b:	23 45 c8             	and    -0x38(%rbp),%eax
    7c8e:	89 05 90 a3 00 00    	mov    %eax,0xa390(%rip)        # 12024 <g_21>
    7c94:	48 8b 05 75 bd 00 00 	mov    0xbd75(%rip),%rax        # 13a10 <g_53>
    7c9b:	48 8b 4d f8          	mov    -0x8(%rbp),%rcx
    7c9f:	64 48 33 0c 25 28 00 	xor    %fs:0x28,%rcx
    7ca6:	00 00 
    7ca8:	74 05                	je     7caf <func_31+0x7c>
    7caa:	e8 c1 e3 ff ff       	callq  6070 <__stack_chk_fail@plt>
    7caf:	c9                   	leaveq 
    7cb0:	c3                   	retq   

0000000000007cb1 <func_37>:
    7cb1:	f3 0f 1e fa          	endbr64 
    7cb5:	55                   	push   %rbp
    7cb6:	48 89 e5             	mov    %rsp,%rbp
    7cb9:	48 89 7d f8          	mov    %rdi,-0x8(%rbp)
    7cbd:	89 75 f4             	mov    %esi,-0xc(%rbp)
    7cc0:	48 89 55 e8          	mov    %rdx,-0x18(%rbp)
    7cc4:	48 89 4d e0          	mov    %rcx,-0x20(%rbp)
    7cc8:	8b 05 56 a3 00 00    	mov    0xa356(%rip),%eax        # 12024 <g_21>
    7cce:	83 c8 07             	or     $0x7,%eax
    7cd1:	89 05 4d a3 00 00    	mov    %eax,0xa34d(%rip)        # 12024 <g_21>
    7cd7:	0f b7 05 4a a3 00 00 	movzwl 0xa34a(%rip),%eax        # 12028 <g_23>
    7cde:	98                   	cwtl   
    7cdf:	5d                   	pop    %rbp
    7ce0:	c3                   	retq   

0000000000007ce1 <func_56>:
    7ce1:	f3 0f 1e fa          	endbr64 
    7ce5:	55                   	push   %rbp
    7ce6:	48 89 e5             	mov    %rsp,%rbp
    7ce9:	41 55                	push   %r13
    7ceb:	41 54                	push   %r12
    7ced:	53                   	push   %rbx
    7cee:	48 81 ec 58 02 00 00 	sub    $0x258,%rsp
    7cf5:	89 bd 9c fd ff ff    	mov    %edi,-0x264(%rbp)
    7cfb:	89 b5 98 fd ff ff    	mov    %esi,-0x268(%rbp)
    7d01:	64 48 8b 04 25 28 00 	mov    %fs:0x28,%rax
    7d08:	00 00 
    7d0a:	48 89 45 d8          	mov    %rax,-0x28(%rbp)
    7d0e:	31 c0                	xor    %eax,%eax
    7d10:	48 8d 05 19 ab 00 00 	lea    0xab19(%rip),%rax        # 12830 <g_1120>
    7d17:	48 89 85 c0 fd ff ff 	mov    %rax,-0x240(%rbp)
    7d1e:	48 8d 05 a7 aa 00 00 	lea    0xaaa7(%rip),%rax        # 127cc <g_878+0x2c>
    7d25:	48 89 85 c8 fd ff ff 	mov    %rax,-0x238(%rbp)
    7d2c:	48 c7 85 f0 fd ff ff 	movq   $0x0,-0x210(%rbp)
    7d33:	00 00 00 00 
    7d37:	48 c7 85 f8 fd ff ff 	movq   $0x0,-0x208(%rbp)
    7d3e:	00 00 00 00 
    7d42:	48 c7 85 00 fe ff ff 	movq   $0x0,-0x200(%rbp)
    7d49:	00 00 00 00 
    7d4d:	48 c7 85 08 fe ff ff 	movq   $0x0,-0x1f8(%rbp)
    7d54:	00 00 00 00 
    7d58:	c7 85 ac fd ff ff ff 	movl   $0xffffffff,-0x254(%rbp)
    7d5f:	ff ff ff 
    7d62:	66 c7 85 a4 fd ff ff 	movw   $0xfff6,-0x25c(%rbp)
    7d69:	f6 ff 
    7d6b:	66 c7 85 a6 fd ff ff 	movw   $0x2f33,-0x25a(%rbp)
    7d72:	33 2f 
    7d74:	c6 85 a3 fd ff ff 29 	movb   $0x29,-0x25d(%rbp)
    7d7b:	c7 85 10 fe ff ff bb 	movl   $0x6fc7dabb,-0x1f0(%rbp)
    7d82:	da c7 6f 
    7d85:	c7 85 14 fe ff ff bb 	movl   $0x6fc7dabb,-0x1ec(%rbp)
    7d8c:	da c7 6f 
    7d8f:	c7 85 18 fe ff ff bb 	movl   $0x6fc7dabb,-0x1e8(%rbp)
    7d96:	da c7 6f 
    7d99:	c7 85 1c fe ff ff bb 	movl   $0x6fc7dabb,-0x1e4(%rbp)
    7da0:	da c7 6f 
    7da3:	c7 85 20 fe ff ff bb 	movl   $0x6fc7dabb,-0x1e0(%rbp)
    7daa:	da c7 6f 
    7dad:	c7 85 24 fe ff ff bb 	movl   $0x6fc7dabb,-0x1dc(%rbp)
    7db4:	da c7 6f 
    7db7:	c7 85 28 fe ff ff bb 	movl   $0x6fc7dabb,-0x1d8(%rbp)
    7dbe:	da c7 6f 
    7dc1:	c7 85 2c fe ff ff bb 	movl   $0x6fc7dabb,-0x1d4(%rbp)
    7dc8:	da c7 6f 
    7dcb:	c7 85 30 fe ff ff bb 	movl   $0x6fc7dabb,-0x1d0(%rbp)
    7dd2:	da c7 6f 
    7dd5:	c7 85 34 fe ff ff bb 	movl   $0x6fc7dabb,-0x1cc(%rbp)
    7ddc:	da c7 6f 
    7ddf:	c7 85 b0 fd ff ff 25 	movl   $0x21972a25,-0x250(%rbp)
    7de6:	2a 97 21 
    7de9:	48 8d 05 88 be 00 00 	lea    0xbe88(%rip),%rax        # 13c78 <g_92+0x18>
    7df0:	48 89 85 b8 fd ff ff 	mov    %rax,-0x248(%rbp)
    7df7:	48 8d 85 b8 fd ff ff 	lea    -0x248(%rbp),%rax
    7dfe:	48 89 85 d0 fd ff ff 	mov    %rax,-0x230(%rbp)
    7e05:	48 8d 85 70 fe ff ff 	lea    -0x190(%rbp),%rax
    7e0c:	48 8d 15 6d 72 00 00 	lea    0x726d(%rip),%rdx        # f080 <g_1028+0x20>
    7e13:	b9 2d 00 00 00       	mov    $0x2d,%ecx
    7e18:	48 89 c7             	mov    %rax,%rdi
    7e1b:	48 89 d6             	mov    %rdx,%rsi
    7e1e:	f3 48 a5             	rep movsq %ds:(%rsi),%es:(%rdi)
    7e21:	48 c7 85 d8 fd ff ff 	movq   $0xffffffffffffffff,-0x228(%rbp)
    7e28:	ff ff ff ff 
    7e2c:	48 c7 85 e0 fd ff ff 	movq   $0x0,-0x220(%rbp)
    7e33:	00 00 00 00 
    7e37:	48 8d 05 c2 a6 00 00 	lea    0xa6c2(%rip),%rax        # 12500 <g_592>
    7e3e:	48 89 85 e8 fd ff ff 	mov    %rax,-0x218(%rbp)
    7e45:	c7 85 b4 fd ff ff 17 	movl   $0xac3617,-0x24c(%rbp)
    7e4c:	36 ac 00 
    7e4f:	c7 85 a8 fd ff ff 00 	movl   $0x0,-0x258(%rbp)
    7e56:	00 00 00 
    7e59:	eb 1e                	jmp    7e79 <func_56+0x198>
    7e5b:	8b 85 a8 fd ff ff    	mov    -0x258(%rbp),%eax
    7e61:	48 98                	cltq   
    7e63:	48 8d 15 f2 a5 00 00 	lea    0xa5f2(%rip),%rdx        # 1245c <g_382>
    7e6a:	48 89 94 c5 40 fe ff 	mov    %rdx,-0x1c0(%rbp,%rax,8)
    7e71:	ff 
    7e72:	83 85 a8 fd ff ff 01 	addl   $0x1,-0x258(%rbp)
    7e79:	83 bd a8 fd ff ff 05 	cmpl   $0x5,-0x258(%rbp)
    7e80:	7e d9                	jle    7e5b <func_56+0x17a>
    7e82:	83 85 b0 fd ff ff 01 	addl   $0x1,-0x250(%rbp)
    7e89:	48 8b 85 f0 fd ff ff 	mov    -0x210(%rbp),%rax
    7e90:	48 85 c0             	test   %rax,%rax
    7e93:	0f 95 c0             	setne  %al
    7e96:	44 0f b6 e0          	movzbl %al,%r12d
    7e9a:	48 8b 05 37 c8 00 00 	mov    0xc837(%rip),%rax        # 146d8 <g_1073>
    7ea1:	44 0f b7 28          	movzwl (%rax),%r13d
    7ea5:	48 8b 85 d0 fd ff ff 	mov    -0x230(%rbp),%rax
    7eac:	48 8d 15 bd bd 00 00 	lea    0xbdbd(%rip),%rdx        # 13c70 <g_92+0x10>
    7eb3:	48 89 10             	mov    %rdx,(%rax)
    7eb6:	48 8b 05 23 c8 00 00 	mov    0xc823(%rip),%rax        # 146e0 <g_1072>
    7ebd:	48 8b 00             	mov    (%rax),%rax
    7ec0:	0f b7 00             	movzwl (%rax),%eax
    7ec3:	0f b7 d8             	movzwl %ax,%ebx
    7ec6:	8b 85 98 fd ff ff    	mov    -0x268(%rbp),%eax
    7ecc:	89 85 a8 fe ff ff    	mov    %eax,-0x158(%rbp)
    7ed2:	83 bd 98 fd ff ff 00 	cmpl   $0x0,-0x268(%rbp)
    7ed9:	0f 9f c0             	setg   %al
    7edc:	0f b6 c0             	movzbl %al,%eax
    7edf:	33 85 98 fd ff ff    	xor    -0x268(%rbp),%eax
    7ee5:	89 c2                	mov    %eax,%edx
    7ee7:	48 8b 85 c0 fd ff ff 	mov    -0x240(%rbp),%rax
    7eee:	8b 00                	mov    (%rax),%eax
    7ef0:	21 c2                	and    %eax,%edx
    7ef2:	48 8b 85 c8 fd ff ff 	mov    -0x238(%rbp),%rax
    7ef9:	89 10                	mov    %edx,(%rax)
    7efb:	48 8b 85 c8 fd ff ff 	mov    -0x238(%rbp),%rax
    7f02:	8b 10                	mov    (%rax),%edx
    7f04:	48 8b 85 c0 fd ff ff 	mov    -0x240(%rbp),%rax
    7f0b:	8b 00                	mov    (%rax),%eax
    7f0d:	39 c2                	cmp    %eax,%edx
    7f0f:	0f 9e c0             	setle  %al
    7f12:	0f b6 c0             	movzbl %al,%eax
    7f15:	8b 95 98 fd ff ff    	mov    -0x268(%rbp),%edx
    7f1b:	89 d6                	mov    %edx,%esi
    7f1d:	89 c7                	mov    %eax,%edi
    7f1f:	e8 7d e3 ff ff       	callq  62a1 <safe_lshift_func_int8_t_s_s>
    7f24:	48 0f be c0          	movsbq %al,%rax
    7f28:	be 00 00 00 00       	mov    $0x0,%esi
    7f2d:	48 89 c7             	mov    %rax,%rdi
    7f30:	e8 0c e9 ff ff       	callq  6841 <safe_add_func_int64_t_s_s>
    7f35:	89 c2                	mov    %eax,%edx
    7f37:	48 8b 85 c0 fd ff ff 	mov    -0x240(%rbp),%rax
    7f3e:	89 10                	mov    %edx,(%rax)
    7f40:	48 8b 85 c0 fd ff ff 	mov    -0x240(%rbp),%rax
    7f47:	8b 00                	mov    (%rax),%eax
    7f49:	0f b7 c0             	movzwl %ax,%eax
    7f4c:	89 de                	mov    %ebx,%esi
    7f4e:	89 c7                	mov    %eax,%edi
    7f50:	e8 25 ef ff ff       	callq  6e7a <safe_rshift_func_uint16_t_u_u>
    7f55:	48 8b 15 34 bd 00 00 	mov    0xbd34(%rip),%rdx        # 13c90 <g_318>
    7f5c:	48 8b 0a             	mov    (%rdx),%rcx
    7f5f:	0f b7 d0             	movzwl %ax,%edx
    7f62:	48 8b 05 27 bd 00 00 	mov    0xbd27(%rip),%rax        # 13c90 <g_318>
    7f69:	48 31 ca             	xor    %rcx,%rdx
    7f6c:	48 89 10             	mov    %rdx,(%rax)
    7f6f:	48 8b 10             	mov    (%rax),%rdx
    7f72:	8b 85 9c fd ff ff    	mov    -0x264(%rbp),%eax
    7f78:	48 98                	cltq   
    7f7a:	48 39 c2             	cmp    %rax,%rdx
    7f7d:	0f 93 c0             	setae  %al
    7f80:	0f b6 c0             	movzbl %al,%eax
    7f83:	89 c6                	mov    %eax,%esi
    7f85:	bf e1 00 00 00       	mov    $0xe1,%edi
    7f8a:	e8 2f ed ff ff       	callq  6cbe <safe_rshift_func_uint8_t_u_u>
    7f8f:	48 8b 05 2a bd 00 00 	mov    0xbd2a(%rip),%rax        # 13cc0 <g_388>
    7f96:	48 8b 00             	mov    (%rax),%rax
    7f99:	0f b7 00             	movzwl (%rax),%eax
    7f9c:	48 8b 05 2d bd 00 00 	mov    0xbd2d(%rip),%rax        # 13cd0 <g_458>
    7fa3:	48 8b 00             	mov    (%rax),%rax
    7fa6:	48 85 c0             	test   %rax,%rax
    7fa9:	0f 95 c0             	setne  %al
    7fac:	0f b6 d0             	movzbl %al,%edx
    7faf:	48 8b 85 e8 fd ff ff 	mov    -0x218(%rbp),%rax
    7fb6:	66 89 10             	mov    %dx,(%rax)
    7fb9:	48 8b 85 e8 fd ff ff 	mov    -0x218(%rbp),%rax
    7fc0:	0f b7 00             	movzwl (%rax),%eax
    7fc3:	44 21 e8             	and    %r13d,%eax
    7fc6:	66 85 c0             	test   %ax,%ax
    7fc9:	75 09                	jne    7fd4 <func_56+0x2f3>
    7fcb:	83 bd 9c fd ff ff 00 	cmpl   $0x0,-0x264(%rbp)
    7fd2:	74 07                	je     7fdb <func_56+0x2fa>
    7fd4:	b8 01 00 00 00       	mov    $0x1,%eax
    7fd9:	eb 05                	jmp    7fe0 <func_56+0x2ff>
    7fdb:	b8 00 00 00 00       	mov    $0x0,%eax
    7fe0:	33 85 98 fd ff ff    	xor    -0x268(%rbp),%eax
    7fe6:	41 39 c4             	cmp    %eax,%r12d
    7fe9:	0f 94 c0             	sete   %al
    7fec:	0f b6 c0             	movzbl %al,%eax
    7fef:	31 85 b4 fd ff ff    	xor    %eax,-0x24c(%rbp)
    7ff5:	48 8b 85 c0 fd ff ff 	mov    -0x240(%rbp),%rax
    7ffc:	8b 00                	mov    (%rax),%eax
    7ffe:	48 8b 5d d8          	mov    -0x28(%rbp),%rbx
    8002:	64 48 33 1c 25 28 00 	xor    %fs:0x28,%rbx
    8009:	00 00 
    800b:	74 05                	je     8012 <func_56+0x331>
    800d:	e8 5e e0 ff ff       	callq  6070 <__stack_chk_fail@plt>
    8012:	48 81 c4 58 02 00 00 	add    $0x258,%rsp
    8019:	5b                   	pop    %rbx
    801a:	41 5c                	pop    %r12
    801c:	41 5d                	pop    %r13
    801e:	5d                   	pop    %rbp
    801f:	c3                   	retq   

0000000000008020 <func_59>:
    8020:	f3 0f 1e fa          	endbr64 
    8024:	55                   	push   %rbp
    8025:	48 89 e5             	mov    %rsp,%rbp
    8028:	48 81 ec b0 04 00 00 	sub    $0x4b0,%rsp
    802f:	89 f8                	mov    %edi,%eax
    8031:	89 b5 68 fb ff ff    	mov    %esi,-0x498(%rbp)
    8037:	48 89 95 60 fb ff ff 	mov    %rdx,-0x4a0(%rbp)
    803e:	44 89 c2             	mov    %r8d,%edx
    8041:	66 89 85 6c fb ff ff 	mov    %ax,-0x494(%rbp)
    8048:	89 c8                	mov    %ecx,%eax
    804a:	88 85 5c fb ff ff    	mov    %al,-0x4a4(%rbp)
    8050:	89 d0                	mov    %edx,%eax
    8052:	66 89 85 58 fb ff ff 	mov    %ax,-0x4a8(%rbp)
    8059:	64 48 8b 04 25 28 00 	mov    %fs:0x28,%rax
    8060:	00 00 
    8062:	48 89 45 f8          	mov    %rax,-0x8(%rbp)
    8066:	31 c0                	xor    %eax,%eax
    8068:	48 c7 85 80 fb ff ff 	movq   $0x0,-0x480(%rbp)
    806f:	00 00 00 00 
    8073:	48 b8 3e e7 f1 f2 f7 	movabs $0x904418f7f2f1e73e,%rax
    807a:	18 44 90 
    807d:	48 89 85 88 fb ff ff 	mov    %rax,-0x478(%rbp)
    8084:	48 8d 85 20 fd ff ff 	lea    -0x2e0(%rbp),%rax
    808b:	48 8d 15 ae a7 00 00 	lea    0xa7ae(%rip),%rdx        # 12840 <g_1184+0x4>
    8092:	b9 5a 00 00 00       	mov    $0x5a,%ecx
    8097:	48 89 c7             	mov    %rax,%rdi
    809a:	48 89 d6             	mov    %rdx,%rsi
    809d:	f3 48 a5             	rep movsq %ds:(%rsi),%es:(%rdi)
    80a0:	48 8d 85 20 fd ff ff 	lea    -0x2e0(%rbp),%rax
    80a7:	48 05 c0 01 00 00    	add    $0x1c0,%rax
    80ad:	48 89 85 90 fb ff ff 	mov    %rax,-0x470(%rbp)
    80b4:	48 8d 85 e0 fb ff ff 	lea    -0x420(%rbp),%rax
    80bb:	48 8d 15 5e aa 00 00 	lea    0xaa5e(%rip),%rdx        # 12b20 <g_1184+0x2e4>
    80c2:	b9 28 00 00 00       	mov    $0x28,%ecx
    80c7:	48 89 c7             	mov    %rax,%rdi
    80ca:	48 89 d6             	mov    %rdx,%rsi
    80cd:	f3 48 a5             	rep movsq %ds:(%rsi),%es:(%rdi)
    80d0:	c7 85 78 fb ff ff d3 	movl   $0x72fe88d3,-0x488(%rbp)
    80d7:	88 fe 72 
    80da:	c7 85 7c fb ff ff 00 	movl   $0x0,-0x484(%rbp)
    80e1:	00 00 00 
    80e4:	48 8d 85 a8 fb ff ff 	lea    -0x458(%rbp),%rax
    80eb:	48 89 85 98 fb ff ff 	mov    %rax,-0x468(%rbp)
    80f2:	c6 85 71 fb ff ff 01 	movb   $0x1,-0x48f(%rbp)
    80f9:	c7 45 f1 fa fa fa fa 	movl   $0xfafafafa,-0xf(%rbp)
    8100:	66 c7 45 f5 fa fa    	movw   $0xfafa,-0xb(%rbp)
    8106:	c6 45 f7 fa          	movb   $0xfa,-0x9(%rbp)
    810a:	66 c7 85 72 fb ff ff 	movw   $0x55d1,-0x48e(%rbp)
    8111:	d1 55 
    8113:	48 b8 ba 5e e5 60 d8 	movabs $0xe86c86d860e55eba,%rax
    811a:	86 6c e8 
    811d:	48 89 85 a0 fb ff ff 	mov    %rax,-0x460(%rbp)
    8124:	c7 85 b0 fb ff ff f8 	movl   $0xfffffff8,-0x450(%rbp)
    812b:	ff ff ff 
    812e:	c7 85 b4 fb ff ff f8 	movl   $0xfffffff8,-0x44c(%rbp)
    8135:	ff ff ff 
    8138:	c7 85 b8 fb ff ff f8 	movl   $0xfffffff8,-0x448(%rbp)
    813f:	ff ff ff 
    8142:	c7 85 bc fb ff ff f8 	movl   $0xfffffff8,-0x444(%rbp)
    8149:	ff ff ff 
    814c:	c7 85 c0 fb ff ff f8 	movl   $0xfffffff8,-0x440(%rbp)
    8153:	ff ff ff 
    8156:	c7 85 c4 fb ff ff f8 	movl   $0xfffffff8,-0x43c(%rbp)
    815d:	ff ff ff 
    8160:	c7 85 c8 fb ff ff f8 	movl   $0xfffffff8,-0x438(%rbp)
    8167:	ff ff ff 
    816a:	c7 85 cc fb ff ff f8 	movl   $0xfffffff8,-0x434(%rbp)
    8171:	ff ff ff 
    8174:	c7 85 d0 fb ff ff f8 	movl   $0xfffffff8,-0x430(%rbp)
    817b:	ff ff ff 
    817e:	c7 85 74 fb ff ff 00 	movl   $0x0,-0x48c(%rbp)
    8185:	00 00 00 
    8188:	eb 1b                	jmp    81a5 <func_59+0x185>
    818a:	8b 85 74 fb ff ff    	mov    -0x48c(%rbp),%eax
    8190:	48 98                	cltq   
    8192:	48 c7 84 c5 a8 fb ff 	movq   $0x0,-0x458(%rbp,%rax,8)
    8199:	ff 00 00 00 00 
    819e:	83 85 74 fb ff ff 01 	addl   $0x1,-0x48c(%rbp)
    81a5:	83 bd 74 fb ff ff 00 	cmpl   $0x0,-0x48c(%rbp)
    81ac:	7e dc                	jle    818a <func_59+0x16a>
    81ae:	48 0f bf 85 6c fb ff 	movswq -0x494(%rbp),%rax
    81b5:	ff 
    81b6:	48 8b 75 f8          	mov    -0x8(%rbp),%rsi
    81ba:	64 48 33 34 25 28 00 	xor    %fs:0x28,%rsi
    81c1:	00 00 
    81c3:	74 05                	je     81ca <func_59+0x1aa>
    81c5:	e8 a6 de ff ff       	callq  6070 <__stack_chk_fail@plt>
    81ca:	c9                   	leaveq 
    81cb:	c3                   	retq   

00000000000081cc <func_70>:
    81cc:	f3 0f 1e fa          	endbr64 
    81d0:	55                   	push   %rbp
    81d1:	48 89 e5             	mov    %rsp,%rbp
    81d4:	41 57                	push   %r15
    81d6:	41 56                	push   %r14
    81d8:	41 55                	push   %r13
    81da:	41 54                	push   %r12
    81dc:	53                   	push   %rbx
    81dd:	48 81 ec 00 10 00 00 	sub    $0x1000,%rsp
    81e4:	48 83 0c 24 00       	orq    $0x0,(%rsp)
    81e9:	48 81 ec 00 10 00 00 	sub    $0x1000,%rsp
    81f0:	48 83 0c 24 00       	orq    $0x0,(%rsp)
    81f5:	48 83 ec 08          	sub    $0x8,%rsp
    81f9:	48 89 bd f8 df ff ff 	mov    %rdi,-0x2008(%rbp)
    8200:	89 b5 f4 df ff ff    	mov    %esi,-0x200c(%rbp)
    8206:	89 95 f0 df ff ff    	mov    %edx,-0x2010(%rbp)
    820c:	89 8d ec df ff ff    	mov    %ecx,-0x2014(%rbp)
    8212:	64 48 8b 04 25 28 00 	mov    %fs:0x28,%rax
    8219:	00 00 
    821b:	48 89 45 c8          	mov    %rax,-0x38(%rbp)
    821f:	31 c0                	xor    %eax,%eax
    8221:	c7 85 18 e0 ff ff 00 	movl   $0x0,-0x1fe8(%rbp)
    8228:	00 00 00 
    822b:	48 8d 05 fe b8 00 00 	lea    0xb8fe(%rip),%rax        # 13b30 <g_93+0x110>
    8232:	48 89 85 f0 e4 ff ff 	mov    %rax,-0x1b10(%rbp)
    8239:	48 8d 05 f0 b8 00 00 	lea    0xb8f0(%rip),%rax        # 13b30 <g_93+0x110>
    8240:	48 89 85 f8 e4 ff ff 	mov    %rax,-0x1b08(%rbp)
    8247:	48 8d 05 e2 b8 00 00 	lea    0xb8e2(%rip),%rax        # 13b30 <g_93+0x110>
    824e:	48 89 85 00 e5 ff ff 	mov    %rax,-0x1b00(%rbp)
    8255:	48 8d 05 d4 b8 00 00 	lea    0xb8d4(%rip),%rax        # 13b30 <g_93+0x110>
    825c:	48 89 85 08 e5 ff ff 	mov    %rax,-0x1af8(%rbp)
    8263:	48 8d 05 c6 b8 00 00 	lea    0xb8c6(%rip),%rax        # 13b30 <g_93+0x110>
    826a:	48 89 85 10 e5 ff ff 	mov    %rax,-0x1af0(%rbp)
    8271:	48 8d 05 b8 b8 00 00 	lea    0xb8b8(%rip),%rax        # 13b30 <g_93+0x110>
    8278:	48 89 85 18 e5 ff ff 	mov    %rax,-0x1ae8(%rbp)
    827f:	48 8d 05 aa b8 00 00 	lea    0xb8aa(%rip),%rax        # 13b30 <g_93+0x110>
    8286:	48 89 85 20 e5 ff ff 	mov    %rax,-0x1ae0(%rbp)
    828d:	48 8d 05 9c b8 00 00 	lea    0xb89c(%rip),%rax        # 13b30 <g_93+0x110>
    8294:	48 89 85 28 e5 ff ff 	mov    %rax,-0x1ad8(%rbp)
    829b:	48 8d 05 8e b8 00 00 	lea    0xb88e(%rip),%rax        # 13b30 <g_93+0x110>
    82a2:	48 89 85 30 e5 ff ff 	mov    %rax,-0x1ad0(%rbp)
    82a9:	48 8d 05 8c 9d 00 00 	lea    0x9d8c(%rip),%rax        # 1203c <g_99>
    82b0:	48 89 85 18 e1 ff ff 	mov    %rax,-0x1ee8(%rbp)
    82b7:	48 8d 85 a0 e8 ff ff 	lea    -0x1760(%rbp),%rax
    82be:	48 8d 15 3b 6f 00 00 	lea    0x6f3b(%rip),%rdx        # f200 <g_1028+0x1a0>
    82c5:	b9 2d 00 00 00       	mov    $0x2d,%ecx
    82ca:	48 89 c7             	mov    %rax,%rdi
    82cd:	48 89 d6             	mov    %rdx,%rsi
    82d0:	f3 48 a5             	rep movsq %ds:(%rsi),%es:(%rdi)
    82d3:	c6 85 04 e0 ff ff 39 	movb   $0x39,-0x1ffc(%rbp)
    82da:	c7 85 1c e0 ff ff 01 	movl   $0x1,-0x1fe4(%rbp)
    82e1:	00 00 00 
    82e4:	c7 85 a2 e3 ff ff fb 	movl   $0x2b689fb,-0x1c5e(%rbp)
    82eb:	89 b6 02 
    82ee:	66 c7 85 a6 e3 ff ff 	movw   $0xb602,-0x1c5a(%rbp)
    82f5:	02 b6 
    82f7:	c6 85 a8 e3 ff ff 89 	movb   $0x89,-0x1c58(%rbp)
    82fe:	c7 85 a9 e3 ff ff fb 	movl   $0x2b689fb,-0x1c57(%rbp)
    8305:	89 b6 02 
    8308:	66 c7 85 ad e3 ff ff 	movw   $0xb602,-0x1c53(%rbp)
    830f:	02 b6 
    8311:	c6 85 af e3 ff ff 89 	movb   $0x89,-0x1c51(%rbp)
    8318:	48 8d 05 a5 a1 00 00 	lea    0xa1a5(%rip),%rax        # 124c4 <g_413+0x44>
    831f:	48 89 85 20 e1 ff ff 	mov    %rax,-0x1ee0(%rbp)
    8326:	48 8d 85 20 e1 ff ff 	lea    -0x1ee0(%rbp),%rax
    832d:	48 89 85 10 ea ff ff 	mov    %rax,-0x15f0(%rbp)
    8334:	48 8d 85 20 e1 ff ff 	lea    -0x1ee0(%rbp),%rax
    833b:	48 89 85 18 ea ff ff 	mov    %rax,-0x15e8(%rbp)
    8342:	48 8d 85 20 e1 ff ff 	lea    -0x1ee0(%rbp),%rax
    8349:	48 89 85 20 ea ff ff 	mov    %rax,-0x15e0(%rbp)
    8350:	48 8d 85 20 e1 ff ff 	lea    -0x1ee0(%rbp),%rax
    8357:	48 89 85 28 ea ff ff 	mov    %rax,-0x15d8(%rbp)
    835e:	48 8d 85 20 e1 ff ff 	lea    -0x1ee0(%rbp),%rax
    8365:	48 89 85 30 ea ff ff 	mov    %rax,-0x15d0(%rbp)
    836c:	48 8d 85 20 e1 ff ff 	lea    -0x1ee0(%rbp),%rax
    8373:	48 89 85 38 ea ff ff 	mov    %rax,-0x15c8(%rbp)
    837a:	48 8d 85 20 e1 ff ff 	lea    -0x1ee0(%rbp),%rax
    8381:	48 89 85 40 ea ff ff 	mov    %rax,-0x15c0(%rbp)
    8388:	48 c7 85 48 ea ff ff 	movq   $0x0,-0x15b8(%rbp)
    838f:	00 00 00 00 
    8393:	48 c7 85 50 ea ff ff 	movq   $0x0,-0x15b0(%rbp)
    839a:	00 00 00 00 
    839e:	48 8d 85 20 e1 ff ff 	lea    -0x1ee0(%rbp),%rax
    83a5:	48 89 85 58 ea ff ff 	mov    %rax,-0x15a8(%rbp)
    83ac:	48 c7 85 60 ea ff ff 	movq   $0x0,-0x15a0(%rbp)
    83b3:	00 00 00 00 
    83b7:	48 c7 85 68 ea ff ff 	movq   $0x0,-0x1598(%rbp)
    83be:	00 00 00 00 
    83c2:	48 8d 85 20 e1 ff ff 	lea    -0x1ee0(%rbp),%rax
    83c9:	48 89 85 70 ea ff ff 	mov    %rax,-0x1590(%rbp)
    83d0:	48 8d 85 20 e1 ff ff 	lea    -0x1ee0(%rbp),%rax
    83d7:	48 89 85 78 ea ff ff 	mov    %rax,-0x1588(%rbp)
    83de:	48 8d 85 20 e1 ff ff 	lea    -0x1ee0(%rbp),%rax
    83e5:	48 89 85 80 ea ff ff 	mov    %rax,-0x1580(%rbp)
    83ec:	48 8d 85 20 e1 ff ff 	lea    -0x1ee0(%rbp),%rax
    83f3:	48 89 85 88 ea ff ff 	mov    %rax,-0x1578(%rbp)
    83fa:	48 8d 85 20 e1 ff ff 	lea    -0x1ee0(%rbp),%rax
    8401:	48 89 85 90 ea ff ff 	mov    %rax,-0x1570(%rbp)
    8408:	48 8d 85 20 e1 ff ff 	lea    -0x1ee0(%rbp),%rax
    840f:	48 89 85 98 ea ff ff 	mov    %rax,-0x1568(%rbp)
    8416:	48 8d 85 20 e1 ff ff 	lea    -0x1ee0(%rbp),%rax
    841d:	48 89 85 a0 ea ff ff 	mov    %rax,-0x1560(%rbp)
    8424:	48 8d 85 20 e1 ff ff 	lea    -0x1ee0(%rbp),%rax
    842b:	48 89 85 a8 ea ff ff 	mov    %rax,-0x1558(%rbp)
    8432:	48 8d 85 20 e1 ff ff 	lea    -0x1ee0(%rbp),%rax
    8439:	48 89 85 b0 ea ff ff 	mov    %rax,-0x1550(%rbp)
    8440:	48 8d 85 20 e1 ff ff 	lea    -0x1ee0(%rbp),%rax
    8447:	48 89 85 b8 ea ff ff 	mov    %rax,-0x1548(%rbp)
    844e:	48 8d 85 20 e1 ff ff 	lea    -0x1ee0(%rbp),%rax
    8455:	48 89 85 c0 ea ff ff 	mov    %rax,-0x1540(%rbp)
    845c:	48 8d 85 20 e1 ff ff 	lea    -0x1ee0(%rbp),%rax
    8463:	48 89 85 c8 ea ff ff 	mov    %rax,-0x1538(%rbp)
    846a:	48 8d 85 20 e1 ff ff 	lea    -0x1ee0(%rbp),%rax
    8471:	48 89 85 d0 ea ff ff 	mov    %rax,-0x1530(%rbp)
    8478:	48 c7 85 d8 ea ff ff 	movq   $0x0,-0x1528(%rbp)
    847f:	00 00 00 00 
    8483:	48 c7 85 e0 ea ff ff 	movq   $0x0,-0x1520(%rbp)
    848a:	00 00 00 00 
    848e:	48 8d 85 20 e1 ff ff 	lea    -0x1ee0(%rbp),%rax
    8495:	48 89 85 e8 ea ff ff 	mov    %rax,-0x1518(%rbp)
    849c:	48 c7 85 f0 ea ff ff 	movq   $0x0,-0x1510(%rbp)
    84a3:	00 00 00 00 
    84a7:	48 c7 85 f8 ea ff ff 	movq   $0x0,-0x1508(%rbp)
    84ae:	00 00 00 00 
    84b2:	48 8d 85 20 e1 ff ff 	lea    -0x1ee0(%rbp),%rax
    84b9:	48 89 85 00 eb ff ff 	mov    %rax,-0x1500(%rbp)
    84c0:	48 8d 85 20 e1 ff ff 	lea    -0x1ee0(%rbp),%rax
    84c7:	48 89 85 08 eb ff ff 	mov    %rax,-0x14f8(%rbp)
    84ce:	48 8d 85 20 e1 ff ff 	lea    -0x1ee0(%rbp),%rax
    84d5:	48 89 85 10 eb ff ff 	mov    %rax,-0x14f0(%rbp)
    84dc:	48 8d 85 20 e1 ff ff 	lea    -0x1ee0(%rbp),%rax
    84e3:	48 89 85 18 eb ff ff 	mov    %rax,-0x14e8(%rbp)
    84ea:	48 8d 85 20 e1 ff ff 	lea    -0x1ee0(%rbp),%rax
    84f1:	48 89 85 20 eb ff ff 	mov    %rax,-0x14e0(%rbp)
    84f8:	48 8d 85 20 e1 ff ff 	lea    -0x1ee0(%rbp),%rax
    84ff:	48 89 85 28 eb ff ff 	mov    %rax,-0x14d8(%rbp)
    8506:	48 8d 85 20 e1 ff ff 	lea    -0x1ee0(%rbp),%rax
    850d:	48 89 85 30 eb ff ff 	mov    %rax,-0x14d0(%rbp)
    8514:	48 8d 85 20 e1 ff ff 	lea    -0x1ee0(%rbp),%rax
    851b:	48 89 85 38 eb ff ff 	mov    %rax,-0x14c8(%rbp)
    8522:	48 8d 85 20 e1 ff ff 	lea    -0x1ee0(%rbp),%rax
    8529:	48 89 85 40 eb ff ff 	mov    %rax,-0x14c0(%rbp)
    8530:	48 8d 85 20 e1 ff ff 	lea    -0x1ee0(%rbp),%rax
    8537:	48 89 85 48 eb ff ff 	mov    %rax,-0x14b8(%rbp)
    853e:	48 8d 85 20 e1 ff ff 	lea    -0x1ee0(%rbp),%rax
    8545:	48 89 85 50 eb ff ff 	mov    %rax,-0x14b0(%rbp)
    854c:	48 8d 85 20 e1 ff ff 	lea    -0x1ee0(%rbp),%rax
    8553:	48 89 85 58 eb ff ff 	mov    %rax,-0x14a8(%rbp)
    855a:	48 8d 85 20 e1 ff ff 	lea    -0x1ee0(%rbp),%rax
    8561:	48 89 85 60 eb ff ff 	mov    %rax,-0x14a0(%rbp)
    8568:	48 c7 85 68 eb ff ff 	movq   $0x0,-0x1498(%rbp)
    856f:	00 00 00 00 
    8573:	48 c7 85 70 eb ff ff 	movq   $0x0,-0x1490(%rbp)
    857a:	00 00 00 00 
    857e:	48 8d 85 20 e1 ff ff 	lea    -0x1ee0(%rbp),%rax
    8585:	48 89 85 78 eb ff ff 	mov    %rax,-0x1488(%rbp)
    858c:	48 c7 85 80 eb ff ff 	movq   $0x0,-0x1480(%rbp)
    8593:	00 00 00 00 
    8597:	48 c7 85 88 eb ff ff 	movq   $0x0,-0x1478(%rbp)
    859e:	00 00 00 00 
    85a2:	48 8d 85 20 e1 ff ff 	lea    -0x1ee0(%rbp),%rax
    85a9:	48 89 85 90 eb ff ff 	mov    %rax,-0x1470(%rbp)
    85b0:	48 8d 85 20 e1 ff ff 	lea    -0x1ee0(%rbp),%rax
    85b7:	48 89 85 98 eb ff ff 	mov    %rax,-0x1468(%rbp)
    85be:	48 8d 85 20 e1 ff ff 	lea    -0x1ee0(%rbp),%rax
    85c5:	48 89 85 a0 eb ff ff 	mov    %rax,-0x1460(%rbp)
    85cc:	48 8d 85 20 e1 ff ff 	lea    -0x1ee0(%rbp),%rax
    85d3:	48 89 85 a8 eb ff ff 	mov    %rax,-0x1458(%rbp)
    85da:	48 8d 85 20 e1 ff ff 	lea    -0x1ee0(%rbp),%rax
    85e1:	48 89 85 b0 eb ff ff 	mov    %rax,-0x1450(%rbp)
    85e8:	48 8d 85 20 e1 ff ff 	lea    -0x1ee0(%rbp),%rax
    85ef:	48 89 85 b8 eb ff ff 	mov    %rax,-0x1448(%rbp)
    85f6:	48 8d 85 20 e1 ff ff 	lea    -0x1ee0(%rbp),%rax
    85fd:	48 89 85 c0 eb ff ff 	mov    %rax,-0x1440(%rbp)
    8604:	48 8d 85 20 e1 ff ff 	lea    -0x1ee0(%rbp),%rax
    860b:	48 89 85 c8 eb ff ff 	mov    %rax,-0x1438(%rbp)
    8612:	48 8d 85 20 e1 ff ff 	lea    -0x1ee0(%rbp),%rax
    8619:	48 89 85 d0 eb ff ff 	mov    %rax,-0x1430(%rbp)
    8620:	48 8d 85 20 e1 ff ff 	lea    -0x1ee0(%rbp),%rax
    8627:	48 89 85 d8 eb ff ff 	mov    %rax,-0x1428(%rbp)
    862e:	48 8d 85 20 e1 ff ff 	lea    -0x1ee0(%rbp),%rax
    8635:	48 89 85 e0 eb ff ff 	mov    %rax,-0x1420(%rbp)
    863c:	48 c7 85 e8 eb ff ff 	movq   $0x0,-0x1418(%rbp)
    8643:	00 00 00 00 
    8647:	48 8d 85 20 e1 ff ff 	lea    -0x1ee0(%rbp),%rax
    864e:	48 89 85 f0 eb ff ff 	mov    %rax,-0x1410(%rbp)
    8655:	48 8d 85 20 e1 ff ff 	lea    -0x1ee0(%rbp),%rax
    865c:	48 89 85 f8 eb ff ff 	mov    %rax,-0x1408(%rbp)
    8663:	48 8d 85 20 e1 ff ff 	lea    -0x1ee0(%rbp),%rax
    866a:	48 89 85 00 ec ff ff 	mov    %rax,-0x1400(%rbp)
    8671:	48 8d 85 20 e1 ff ff 	lea    -0x1ee0(%rbp),%rax
    8678:	48 89 85 08 ec ff ff 	mov    %rax,-0x13f8(%rbp)
    867f:	48 8d 85 20 e1 ff ff 	lea    -0x1ee0(%rbp),%rax
    8686:	48 89 85 10 ec ff ff 	mov    %rax,-0x13f0(%rbp)
    868d:	48 8d 85 20 e1 ff ff 	lea    -0x1ee0(%rbp),%rax
    8694:	48 89 85 18 ec ff ff 	mov    %rax,-0x13e8(%rbp)
    869b:	48 8d 85 20 e1 ff ff 	lea    -0x1ee0(%rbp),%rax
    86a2:	48 89 85 20 ec ff ff 	mov    %rax,-0x13e0(%rbp)
    86a9:	48 c7 85 28 ec ff ff 	movq   $0x0,-0x13d8(%rbp)
    86b0:	00 00 00 00 
    86b4:	48 8d 85 20 e1 ff ff 	lea    -0x1ee0(%rbp),%rax
    86bb:	48 89 85 30 ec ff ff 	mov    %rax,-0x13d0(%rbp)
    86c2:	48 8d 85 20 e1 ff ff 	lea    -0x1ee0(%rbp),%rax
    86c9:	48 89 85 38 ec ff ff 	mov    %rax,-0x13c8(%rbp)
    86d0:	48 8d 85 20 e1 ff ff 	lea    -0x1ee0(%rbp),%rax
    86d7:	48 89 85 40 ec ff ff 	mov    %rax,-0x13c0(%rbp)
    86de:	48 8d 85 20 e1 ff ff 	lea    -0x1ee0(%rbp),%rax
    86e5:	48 89 85 48 ec ff ff 	mov    %rax,-0x13b8(%rbp)
    86ec:	48 8d 85 20 e1 ff ff 	lea    -0x1ee0(%rbp),%rax
    86f3:	48 89 85 50 ec ff ff 	mov    %rax,-0x13b0(%rbp)
    86fa:	48 8d 85 20 e1 ff ff 	lea    -0x1ee0(%rbp),%rax
    8701:	48 89 85 58 ec ff ff 	mov    %rax,-0x13a8(%rbp)
    8708:	48 8d 85 20 e1 ff ff 	lea    -0x1ee0(%rbp),%rax
    870f:	48 89 85 60 ec ff ff 	mov    %rax,-0x13a0(%rbp)
    8716:	48 8d 85 20 e1 ff ff 	lea    -0x1ee0(%rbp),%rax
    871d:	48 89 85 68 ec ff ff 	mov    %rax,-0x1398(%rbp)
    8724:	48 8d 85 20 e1 ff ff 	lea    -0x1ee0(%rbp),%rax
    872b:	48 89 85 70 ec ff ff 	mov    %rax,-0x1390(%rbp)
    8732:	48 c7 85 78 ec ff ff 	movq   $0x0,-0x1388(%rbp)
    8739:	00 00 00 00 
    873d:	48 8d 85 20 e1 ff ff 	lea    -0x1ee0(%rbp),%rax
    8744:	48 89 85 80 ec ff ff 	mov    %rax,-0x1380(%rbp)
    874b:	48 8d 85 20 e1 ff ff 	lea    -0x1ee0(%rbp),%rax
    8752:	48 89 85 88 ec ff ff 	mov    %rax,-0x1378(%rbp)
    8759:	48 8d 85 20 e1 ff ff 	lea    -0x1ee0(%rbp),%rax
    8760:	48 89 85 90 ec ff ff 	mov    %rax,-0x1370(%rbp)
    8767:	48 8d 85 20 e1 ff ff 	lea    -0x1ee0(%rbp),%rax
    876e:	48 89 85 98 ec ff ff 	mov    %rax,-0x1368(%rbp)
    8775:	48 8d 85 20 e1 ff ff 	lea    -0x1ee0(%rbp),%rax
    877c:	48 89 85 a0 ec ff ff 	mov    %rax,-0x1360(%rbp)
    8783:	48 8d 85 20 e1 ff ff 	lea    -0x1ee0(%rbp),%rax
    878a:	48 89 85 a8 ec ff ff 	mov    %rax,-0x1358(%rbp)
    8791:	48 8d 85 20 e1 ff ff 	lea    -0x1ee0(%rbp),%rax
    8798:	48 89 85 b0 ec ff ff 	mov    %rax,-0x1350(%rbp)
    879f:	48 c7 85 b8 ec ff ff 	movq   $0x0,-0x1348(%rbp)
    87a6:	00 00 00 00 
    87aa:	48 8d 85 20 e1 ff ff 	lea    -0x1ee0(%rbp),%rax
    87b1:	48 89 85 c0 ec ff ff 	mov    %rax,-0x1340(%rbp)
    87b8:	48 8d 85 20 e1 ff ff 	lea    -0x1ee0(%rbp),%rax
    87bf:	48 89 85 c8 ec ff ff 	mov    %rax,-0x1338(%rbp)
    87c6:	48 8d 85 20 e1 ff ff 	lea    -0x1ee0(%rbp),%rax
    87cd:	48 89 85 d0 ec ff ff 	mov    %rax,-0x1330(%rbp)
    87d4:	48 8d 85 20 e1 ff ff 	lea    -0x1ee0(%rbp),%rax
    87db:	48 89 85 d8 ec ff ff 	mov    %rax,-0x1328(%rbp)
    87e2:	48 8d 85 20 e1 ff ff 	lea    -0x1ee0(%rbp),%rax
    87e9:	48 89 85 e0 ec ff ff 	mov    %rax,-0x1320(%rbp)
    87f0:	48 8d 85 20 e1 ff ff 	lea    -0x1ee0(%rbp),%rax
    87f7:	48 89 85 e8 ec ff ff 	mov    %rax,-0x1318(%rbp)
    87fe:	48 8d 85 20 e1 ff ff 	lea    -0x1ee0(%rbp),%rax
    8805:	48 89 85 f0 ec ff ff 	mov    %rax,-0x1310(%rbp)
    880c:	48 8d 85 20 e1 ff ff 	lea    -0x1ee0(%rbp),%rax
    8813:	48 89 85 f8 ec ff ff 	mov    %rax,-0x1308(%rbp)
    881a:	48 8d 85 20 e1 ff ff 	lea    -0x1ee0(%rbp),%rax
    8821:	48 89 85 00 ed ff ff 	mov    %rax,-0x1300(%rbp)
    8828:	48 c7 85 08 ed ff ff 	movq   $0x0,-0x12f8(%rbp)
    882f:	00 00 00 00 
    8833:	48 8d 85 20 e1 ff ff 	lea    -0x1ee0(%rbp),%rax
    883a:	48 89 85 10 ed ff ff 	mov    %rax,-0x12f0(%rbp)
    8841:	48 8d 85 20 e1 ff ff 	lea    -0x1ee0(%rbp),%rax
    8848:	48 89 85 18 ed ff ff 	mov    %rax,-0x12e8(%rbp)
    884f:	48 8d 85 20 e1 ff ff 	lea    -0x1ee0(%rbp),%rax
    8856:	48 89 85 20 ed ff ff 	mov    %rax,-0x12e0(%rbp)
    885d:	48 8d 85 20 e1 ff ff 	lea    -0x1ee0(%rbp),%rax
    8864:	48 89 85 28 ed ff ff 	mov    %rax,-0x12d8(%rbp)
    886b:	48 8d 85 20 e1 ff ff 	lea    -0x1ee0(%rbp),%rax
    8872:	48 89 85 30 ed ff ff 	mov    %rax,-0x12d0(%rbp)
    8879:	48 8d 85 20 e1 ff ff 	lea    -0x1ee0(%rbp),%rax
    8880:	48 89 85 38 ed ff ff 	mov    %rax,-0x12c8(%rbp)
    8887:	48 8d 85 20 e1 ff ff 	lea    -0x1ee0(%rbp),%rax
    888e:	48 89 85 40 ed ff ff 	mov    %rax,-0x12c0(%rbp)
    8895:	48 c7 85 48 ed ff ff 	movq   $0x0,-0x12b8(%rbp)
    889c:	00 00 00 00 
    88a0:	48 8d 85 20 e1 ff ff 	lea    -0x1ee0(%rbp),%rax
    88a7:	48 89 85 50 ed ff ff 	mov    %rax,-0x12b0(%rbp)
    88ae:	48 8d 85 20 e1 ff ff 	lea    -0x1ee0(%rbp),%rax
    88b5:	48 89 85 58 ed ff ff 	mov    %rax,-0x12a8(%rbp)
    88bc:	48 8d 85 20 e1 ff ff 	lea    -0x1ee0(%rbp),%rax
    88c3:	48 89 85 60 ed ff ff 	mov    %rax,-0x12a0(%rbp)
    88ca:	48 8d 85 20 e1 ff ff 	lea    -0x1ee0(%rbp),%rax
    88d1:	48 89 85 68 ed ff ff 	mov    %rax,-0x1298(%rbp)
    88d8:	48 8d 85 20 e1 ff ff 	lea    -0x1ee0(%rbp),%rax
    88df:	48 89 85 70 ed ff ff 	mov    %rax,-0x1290(%rbp)
    88e6:	48 8d 85 20 e1 ff ff 	lea    -0x1ee0(%rbp),%rax
    88ed:	48 89 85 78 ed ff ff 	mov    %rax,-0x1288(%rbp)
    88f4:	48 8d 85 20 e1 ff ff 	lea    -0x1ee0(%rbp),%rax
    88fb:	48 89 85 80 ed ff ff 	mov    %rax,-0x1280(%rbp)
    8902:	48 8d 85 20 e1 ff ff 	lea    -0x1ee0(%rbp),%rax
    8909:	48 89 85 88 ed ff ff 	mov    %rax,-0x1278(%rbp)
    8910:	48 8d 85 20 e1 ff ff 	lea    -0x1ee0(%rbp),%rax
    8917:	48 89 85 90 ed ff ff 	mov    %rax,-0x1270(%rbp)
    891e:	48 c7 85 98 ed ff ff 	movq   $0x0,-0x1268(%rbp)
    8925:	00 00 00 00 
    8929:	48 8d 85 20 e1 ff ff 	lea    -0x1ee0(%rbp),%rax
    8930:	48 89 85 a0 ed ff ff 	mov    %rax,-0x1260(%rbp)
    8937:	48 8d 85 20 e1 ff ff 	lea    -0x1ee0(%rbp),%rax
    893e:	48 89 85 a8 ed ff ff 	mov    %rax,-0x1258(%rbp)
    8945:	48 8d 85 20 e1 ff ff 	lea    -0x1ee0(%rbp),%rax
    894c:	48 89 85 b0 ed ff ff 	mov    %rax,-0x1250(%rbp)
    8953:	48 8d 85 20 e1 ff ff 	lea    -0x1ee0(%rbp),%rax
    895a:	48 89 85 b8 ed ff ff 	mov    %rax,-0x1248(%rbp)
    8961:	48 8d 85 20 e1 ff ff 	lea    -0x1ee0(%rbp),%rax
    8968:	48 89 85 c0 ed ff ff 	mov    %rax,-0x1240(%rbp)
    896f:	48 8d 85 20 e1 ff ff 	lea    -0x1ee0(%rbp),%rax
    8976:	48 89 85 c8 ed ff ff 	mov    %rax,-0x1238(%rbp)
    897d:	48 8d 85 20 e1 ff ff 	lea    -0x1ee0(%rbp),%rax
    8984:	48 89 85 d0 ed ff ff 	mov    %rax,-0x1230(%rbp)
    898b:	48 c7 85 d8 ed ff ff 	movq   $0x0,-0x1228(%rbp)
    8992:	00 00 00 00 
    8996:	48 8d 85 20 e1 ff ff 	lea    -0x1ee0(%rbp),%rax
    899d:	48 89 85 e0 ed ff ff 	mov    %rax,-0x1220(%rbp)
    89a4:	48 8d 85 20 e1 ff ff 	lea    -0x1ee0(%rbp),%rax
    89ab:	48 89 85 e8 ed ff ff 	mov    %rax,-0x1218(%rbp)
    89b2:	48 8d 85 20 e1 ff ff 	lea    -0x1ee0(%rbp),%rax
    89b9:	48 89 85 f0 ed ff ff 	mov    %rax,-0x1210(%rbp)
    89c0:	48 8d 85 20 e1 ff ff 	lea    -0x1ee0(%rbp),%rax
    89c7:	48 89 85 f8 ed ff ff 	mov    %rax,-0x1208(%rbp)
    89ce:	48 8d 85 20 e1 ff ff 	lea    -0x1ee0(%rbp),%rax
    89d5:	48 89 85 00 ee ff ff 	mov    %rax,-0x1200(%rbp)
    89dc:	48 8d 85 20 e1 ff ff 	lea    -0x1ee0(%rbp),%rax
    89e3:	48 89 85 08 ee ff ff 	mov    %rax,-0x11f8(%rbp)
    89ea:	48 8d 85 20 e1 ff ff 	lea    -0x1ee0(%rbp),%rax
    89f1:	48 89 85 10 ee ff ff 	mov    %rax,-0x11f0(%rbp)
    89f8:	48 8d 85 20 e1 ff ff 	lea    -0x1ee0(%rbp),%rax
    89ff:	48 89 85 18 ee ff ff 	mov    %rax,-0x11e8(%rbp)
    8a06:	48 8d 85 20 e1 ff ff 	lea    -0x1ee0(%rbp),%rax
    8a0d:	48 89 85 20 ee ff ff 	mov    %rax,-0x11e0(%rbp)
    8a14:	48 c7 85 28 ee ff ff 	movq   $0x0,-0x11d8(%rbp)
    8a1b:	00 00 00 00 
    8a1f:	48 8d 85 20 e1 ff ff 	lea    -0x1ee0(%rbp),%rax
    8a26:	48 89 85 30 ee ff ff 	mov    %rax,-0x11d0(%rbp)
    8a2d:	48 8d 85 20 e1 ff ff 	lea    -0x1ee0(%rbp),%rax
    8a34:	48 89 85 38 ee ff ff 	mov    %rax,-0x11c8(%rbp)
    8a3b:	48 8d 85 20 e1 ff ff 	lea    -0x1ee0(%rbp),%rax
    8a42:	48 89 85 40 ee ff ff 	mov    %rax,-0x11c0(%rbp)
    8a49:	48 8d 85 20 e1 ff ff 	lea    -0x1ee0(%rbp),%rax
    8a50:	48 89 85 48 ee ff ff 	mov    %rax,-0x11b8(%rbp)
    8a57:	48 8d 85 20 e1 ff ff 	lea    -0x1ee0(%rbp),%rax
    8a5e:	48 89 85 50 ee ff ff 	mov    %rax,-0x11b0(%rbp)
    8a65:	48 8d 85 20 e1 ff ff 	lea    -0x1ee0(%rbp),%rax
    8a6c:	48 89 85 58 ee ff ff 	mov    %rax,-0x11a8(%rbp)
    8a73:	48 8d 85 20 e1 ff ff 	lea    -0x1ee0(%rbp),%rax
    8a7a:	48 89 85 60 ee ff ff 	mov    %rax,-0x11a0(%rbp)
    8a81:	48 c7 85 68 ee ff ff 	movq   $0x0,-0x1198(%rbp)
    8a88:	00 00 00 00 
    8a8c:	48 8d 85 20 e1 ff ff 	lea    -0x1ee0(%rbp),%rax
    8a93:	48 89 85 70 ee ff ff 	mov    %rax,-0x1190(%rbp)
    8a9a:	48 8d 85 20 e1 ff ff 	lea    -0x1ee0(%rbp),%rax
    8aa1:	48 89 85 78 ee ff ff 	mov    %rax,-0x1188(%rbp)
    8aa8:	48 8d 85 20 e1 ff ff 	lea    -0x1ee0(%rbp),%rax
    8aaf:	48 89 85 80 ee ff ff 	mov    %rax,-0x1180(%rbp)
    8ab6:	48 8d 85 20 e1 ff ff 	lea    -0x1ee0(%rbp),%rax
    8abd:	48 89 85 88 ee ff ff 	mov    %rax,-0x1178(%rbp)
    8ac4:	48 8d 85 20 e1 ff ff 	lea    -0x1ee0(%rbp),%rax
    8acb:	48 89 85 90 ee ff ff 	mov    %rax,-0x1170(%rbp)
    8ad2:	48 8d 85 20 e1 ff ff 	lea    -0x1ee0(%rbp),%rax
    8ad9:	48 89 85 98 ee ff ff 	mov    %rax,-0x1168(%rbp)
    8ae0:	48 8d 85 20 e1 ff ff 	lea    -0x1ee0(%rbp),%rax
    8ae7:	48 89 85 a0 ee ff ff 	mov    %rax,-0x1160(%rbp)
    8aee:	48 8d 85 20 e1 ff ff 	lea    -0x1ee0(%rbp),%rax
    8af5:	48 89 85 a8 ee ff ff 	mov    %rax,-0x1158(%rbp)
    8afc:	48 8d 85 20 e1 ff ff 	lea    -0x1ee0(%rbp),%rax
    8b03:	48 89 85 b0 ee ff ff 	mov    %rax,-0x1150(%rbp)
    8b0a:	48 c7 85 b8 ee ff ff 	movq   $0x0,-0x1148(%rbp)
    8b11:	00 00 00 00 
    8b15:	48 8d 85 20 e1 ff ff 	lea    -0x1ee0(%rbp),%rax
    8b1c:	48 89 85 c0 ee ff ff 	mov    %rax,-0x1140(%rbp)
    8b23:	48 8d 85 20 e1 ff ff 	lea    -0x1ee0(%rbp),%rax
    8b2a:	48 89 85 c8 ee ff ff 	mov    %rax,-0x1138(%rbp)
    8b31:	48 8d 85 20 e1 ff ff 	lea    -0x1ee0(%rbp),%rax
    8b38:	48 89 85 d0 ee ff ff 	mov    %rax,-0x1130(%rbp)
    8b3f:	48 8d 85 20 e1 ff ff 	lea    -0x1ee0(%rbp),%rax
    8b46:	48 89 85 d8 ee ff ff 	mov    %rax,-0x1128(%rbp)
    8b4d:	48 8d 85 20 e1 ff ff 	lea    -0x1ee0(%rbp),%rax
    8b54:	48 89 85 e0 ee ff ff 	mov    %rax,-0x1120(%rbp)
    8b5b:	48 8d 85 20 e1 ff ff 	lea    -0x1ee0(%rbp),%rax
    8b62:	48 89 85 e8 ee ff ff 	mov    %rax,-0x1118(%rbp)
    8b69:	48 8d 85 20 e1 ff ff 	lea    -0x1ee0(%rbp),%rax
    8b70:	48 89 85 f0 ee ff ff 	mov    %rax,-0x1110(%rbp)
    8b77:	48 c7 85 f8 ee ff ff 	movq   $0x0,-0x1108(%rbp)
    8b7e:	00 00 00 00 
    8b82:	48 8d 85 20 e1 ff ff 	lea    -0x1ee0(%rbp),%rax
    8b89:	48 89 85 00 ef ff ff 	mov    %rax,-0x1100(%rbp)
    8b90:	48 8d 85 20 e1 ff ff 	lea    -0x1ee0(%rbp),%rax
    8b97:	48 89 85 08 ef ff ff 	mov    %rax,-0x10f8(%rbp)
    8b9e:	48 8d 85 20 e1 ff ff 	lea    -0x1ee0(%rbp),%rax
    8ba5:	48 89 85 10 ef ff ff 	mov    %rax,-0x10f0(%rbp)
    8bac:	48 8d 85 20 e1 ff ff 	lea    -0x1ee0(%rbp),%rax
    8bb3:	48 89 85 18 ef ff ff 	mov    %rax,-0x10e8(%rbp)
    8bba:	48 8d 85 20 e1 ff ff 	lea    -0x1ee0(%rbp),%rax
    8bc1:	48 89 85 20 ef ff ff 	mov    %rax,-0x10e0(%rbp)
    8bc8:	48 8d 85 20 e1 ff ff 	lea    -0x1ee0(%rbp),%rax
    8bcf:	48 89 85 28 ef ff ff 	mov    %rax,-0x10d8(%rbp)
    8bd6:	48 8d 85 20 e1 ff ff 	lea    -0x1ee0(%rbp),%rax
    8bdd:	48 89 85 30 ef ff ff 	mov    %rax,-0x10d0(%rbp)
    8be4:	48 8d 85 20 e1 ff ff 	lea    -0x1ee0(%rbp),%rax
    8beb:	48 89 85 38 ef ff ff 	mov    %rax,-0x10c8(%rbp)
    8bf2:	48 8d 85 20 e1 ff ff 	lea    -0x1ee0(%rbp),%rax
    8bf9:	48 89 85 40 ef ff ff 	mov    %rax,-0x10c0(%rbp)
    8c00:	48 c7 85 48 ef ff ff 	movq   $0x0,-0x10b8(%rbp)
    8c07:	00 00 00 00 
    8c0b:	48 8d 85 20 e1 ff ff 	lea    -0x1ee0(%rbp),%rax
    8c12:	48 89 85 50 ef ff ff 	mov    %rax,-0x10b0(%rbp)
    8c19:	48 8d 85 20 e1 ff ff 	lea    -0x1ee0(%rbp),%rax
    8c20:	48 89 85 58 ef ff ff 	mov    %rax,-0x10a8(%rbp)
    8c27:	48 8d 85 20 e1 ff ff 	lea    -0x1ee0(%rbp),%rax
    8c2e:	48 89 85 60 ef ff ff 	mov    %rax,-0x10a0(%rbp)
    8c35:	48 8d 85 20 e1 ff ff 	lea    -0x1ee0(%rbp),%rax
    8c3c:	48 89 85 68 ef ff ff 	mov    %rax,-0x1098(%rbp)
    8c43:	48 8d 85 20 e1 ff ff 	lea    -0x1ee0(%rbp),%rax
    8c4a:	48 89 85 70 ef ff ff 	mov    %rax,-0x1090(%rbp)
    8c51:	48 8d 85 20 e1 ff ff 	lea    -0x1ee0(%rbp),%rax
    8c58:	48 89 85 78 ef ff ff 	mov    %rax,-0x1088(%rbp)
    8c5f:	48 8d 85 20 e1 ff ff 	lea    -0x1ee0(%rbp),%rax
    8c66:	48 89 85 80 ef ff ff 	mov    %rax,-0x1080(%rbp)
    8c6d:	48 c7 85 88 ef ff ff 	movq   $0x0,-0x1078(%rbp)
    8c74:	00 00 00 00 
    8c78:	48 8d 85 20 e1 ff ff 	lea    -0x1ee0(%rbp),%rax
    8c7f:	48 89 85 90 ef ff ff 	mov    %rax,-0x1070(%rbp)
    8c86:	48 8d 85 20 e1 ff ff 	lea    -0x1ee0(%rbp),%rax
    8c8d:	48 89 85 98 ef ff ff 	mov    %rax,-0x1068(%rbp)
    8c94:	48 8d 85 20 e1 ff ff 	lea    -0x1ee0(%rbp),%rax
    8c9b:	48 89 85 a0 ef ff ff 	mov    %rax,-0x1060(%rbp)
    8ca2:	48 8d 85 20 e1 ff ff 	lea    -0x1ee0(%rbp),%rax
    8ca9:	48 89 85 a8 ef ff ff 	mov    %rax,-0x1058(%rbp)
    8cb0:	48 8d 85 20 e1 ff ff 	lea    -0x1ee0(%rbp),%rax
    8cb7:	48 89 85 b0 ef ff ff 	mov    %rax,-0x1050(%rbp)
    8cbe:	48 8d 85 20 e1 ff ff 	lea    -0x1ee0(%rbp),%rax
    8cc5:	48 89 85 b8 ef ff ff 	mov    %rax,-0x1048(%rbp)
    8ccc:	48 8d 85 20 e1 ff ff 	lea    -0x1ee0(%rbp),%rax
    8cd3:	48 89 85 c0 ef ff ff 	mov    %rax,-0x1040(%rbp)
    8cda:	48 8d 85 20 e1 ff ff 	lea    -0x1ee0(%rbp),%rax
    8ce1:	48 89 85 c8 ef ff ff 	mov    %rax,-0x1038(%rbp)
    8ce8:	48 8d 85 20 e1 ff ff 	lea    -0x1ee0(%rbp),%rax
    8cef:	48 89 85 d0 ef ff ff 	mov    %rax,-0x1030(%rbp)
    8cf6:	48 c7 85 d8 ef ff ff 	movq   $0x0,-0x1028(%rbp)
    8cfd:	00 00 00 00 
    8d01:	48 8d 85 20 e1 ff ff 	lea    -0x1ee0(%rbp),%rax
    8d08:	48 89 85 e0 ef ff ff 	mov    %rax,-0x1020(%rbp)
    8d0f:	48 8d 85 20 e1 ff ff 	lea    -0x1ee0(%rbp),%rax
    8d16:	48 89 85 e8 ef ff ff 	mov    %rax,-0x1018(%rbp)
    8d1d:	48 8d 85 20 e1 ff ff 	lea    -0x1ee0(%rbp),%rax
    8d24:	48 89 85 f0 ef ff ff 	mov    %rax,-0x1010(%rbp)
    8d2b:	48 8d 85 20 e1 ff ff 	lea    -0x1ee0(%rbp),%rax
    8d32:	48 89 85 f8 ef ff ff 	mov    %rax,-0x1008(%rbp)
    8d39:	48 8d 85 20 e1 ff ff 	lea    -0x1ee0(%rbp),%rax
    8d40:	48 89 85 00 f0 ff ff 	mov    %rax,-0x1000(%rbp)
    8d47:	48 8d 85 20 e1 ff ff 	lea    -0x1ee0(%rbp),%rax
    8d4e:	48 89 85 08 f0 ff ff 	mov    %rax,-0xff8(%rbp)
    8d55:	48 8d 85 20 e1 ff ff 	lea    -0x1ee0(%rbp),%rax
    8d5c:	48 89 85 10 f0 ff ff 	mov    %rax,-0xff0(%rbp)
    8d63:	48 c7 85 18 f0 ff ff 	movq   $0x0,-0xfe8(%rbp)
    8d6a:	00 00 00 00 
    8d6e:	48 8d 85 20 e1 ff ff 	lea    -0x1ee0(%rbp),%rax
    8d75:	48 89 85 20 f0 ff ff 	mov    %rax,-0xfe0(%rbp)
    8d7c:	48 8d 85 20 e1 ff ff 	lea    -0x1ee0(%rbp),%rax
    8d83:	48 89 85 28 f0 ff ff 	mov    %rax,-0xfd8(%rbp)
    8d8a:	48 8d 85 20 e1 ff ff 	lea    -0x1ee0(%rbp),%rax
    8d91:	48 89 85 30 f0 ff ff 	mov    %rax,-0xfd0(%rbp)
    8d98:	48 8d 85 20 e1 ff ff 	lea    -0x1ee0(%rbp),%rax
    8d9f:	48 89 85 38 f0 ff ff 	mov    %rax,-0xfc8(%rbp)
    8da6:	48 8d 85 20 e1 ff ff 	lea    -0x1ee0(%rbp),%rax
    8dad:	48 89 85 40 f0 ff ff 	mov    %rax,-0xfc0(%rbp)
    8db4:	48 8d 85 20 e1 ff ff 	lea    -0x1ee0(%rbp),%rax
    8dbb:	48 89 85 48 f0 ff ff 	mov    %rax,-0xfb8(%rbp)
    8dc2:	48 c7 85 70 e1 ff ff 	movq   $0x0,-0x1e90(%rbp)
    8dc9:	00 00 00 00 
    8dcd:	c7 85 20 e0 ff ff 60 	movl   $0xd8878160,-0x1fe0(%rbp)
    8dd4:	81 87 d8 
    8dd7:	c7 85 30 e0 ff ff 28 	movl   $0x89a70a28,-0x1fd0(%rbp)
    8dde:	0a a7 89 
    8de1:	48 8d 85 a0 e8 ff ff 	lea    -0x1760(%rbp),%rax
    8de8:	48 05 0c 01 00 00    	add    $0x10c,%rax
    8dee:	48 89 85 78 e1 ff ff 	mov    %rax,-0x1e88(%rbp)
    8df5:	48 8d 05 5c 92 00 00 	lea    0x925c(%rip),%rax        # 12058 <g_132>
    8dfc:	48 89 85 80 e1 ff ff 	mov    %rax,-0x1e80(%rbp)
    8e03:	48 8d 85 a0 e8 ff ff 	lea    -0x1760(%rbp),%rax
    8e0a:	48 05 38 01 00 00    	add    $0x138,%rax
    8e10:	48 89 85 88 e1 ff ff 	mov    %rax,-0x1e78(%rbp)
    8e17:	48 c7 85 90 e1 ff ff 	movq   $0x0,-0x1e70(%rbp)
    8e1e:	00 00 00 00 
    8e22:	48 8d 85 a0 e8 ff ff 	lea    -0x1760(%rbp),%rax
    8e29:	48 05 38 01 00 00    	add    $0x138,%rax
    8e2f:	48 89 85 f0 f7 ff ff 	mov    %rax,-0x810(%rbp)
    8e36:	48 8d 05 1b 92 00 00 	lea    0x921b(%rip),%rax        # 12058 <g_132>
    8e3d:	48 89 85 f8 f7 ff ff 	mov    %rax,-0x808(%rbp)
    8e44:	48 8d 05 0d 92 00 00 	lea    0x920d(%rip),%rax        # 12058 <g_132>
    8e4b:	48 89 85 00 f8 ff ff 	mov    %rax,-0x800(%rbp)
    8e52:	48 8d 05 ff 91 00 00 	lea    0x91ff(%rip),%rax        # 12058 <g_132>
    8e59:	48 89 85 08 f8 ff ff 	mov    %rax,-0x7f8(%rbp)
    8e60:	48 8d 05 f1 91 00 00 	lea    0x91f1(%rip),%rax        # 12058 <g_132>
    8e67:	48 89 85 10 f8 ff ff 	mov    %rax,-0x7f0(%rbp)
    8e6e:	48 8d 85 a0 e8 ff ff 	lea    -0x1760(%rbp),%rax
    8e75:	48 05 04 01 00 00    	add    $0x104,%rax
    8e7b:	48 89 85 18 f8 ff ff 	mov    %rax,-0x7e8(%rbp)
    8e82:	48 8d 85 a0 e8 ff ff 	lea    -0x1760(%rbp),%rax
    8e89:	48 05 04 01 00 00    	add    $0x104,%rax
    8e8f:	48 89 85 20 f8 ff ff 	mov    %rax,-0x7e0(%rbp)
    8e96:	48 8d 05 b3 91 00 00 	lea    0x91b3(%rip),%rax        # 12050 <g_110>
    8e9d:	48 89 85 28 f8 ff ff 	mov    %rax,-0x7d8(%rbp)
    8ea4:	48 8d 05 ad 91 00 00 	lea    0x91ad(%rip),%rax        # 12058 <g_132>
    8eab:	48 89 85 30 f8 ff ff 	mov    %rax,-0x7d0(%rbp)
    8eb2:	48 8d 85 a0 e8 ff ff 	lea    -0x1760(%rbp),%rax
    8eb9:	48 05 04 01 00 00    	add    $0x104,%rax
    8ebf:	48 89 85 38 f8 ff ff 	mov    %rax,-0x7c8(%rbp)
    8ec6:	48 8d 05 83 91 00 00 	lea    0x9183(%rip),%rax        # 12050 <g_110>
    8ecd:	48 89 85 40 f8 ff ff 	mov    %rax,-0x7c0(%rbp)
    8ed4:	48 8d 05 7d 91 00 00 	lea    0x917d(%rip),%rax        # 12058 <g_132>
    8edb:	48 89 85 48 f8 ff ff 	mov    %rax,-0x7b8(%rbp)
    8ee2:	48 8d 85 20 e0 ff ff 	lea    -0x1fe0(%rbp),%rax
    8ee9:	48 89 85 50 f8 ff ff 	mov    %rax,-0x7b0(%rbp)
    8ef0:	48 8d 85 a0 e8 ff ff 	lea    -0x1760(%rbp),%rax
    8ef7:	48 05 38 01 00 00    	add    $0x138,%rax
    8efd:	48 89 85 58 f8 ff ff 	mov    %rax,-0x7a8(%rbp)
    8f04:	48 c7 85 60 f8 ff ff 	movq   $0x0,-0x7a0(%rbp)
    8f0b:	00 00 00 00 
    8f0f:	48 8d 85 a0 e8 ff ff 	lea    -0x1760(%rbp),%rax
    8f16:	48 05 38 01 00 00    	add    $0x138,%rax
    8f1c:	48 89 85 68 f8 ff ff 	mov    %rax,-0x798(%rbp)
    8f23:	48 8d 05 2e 91 00 00 	lea    0x912e(%rip),%rax        # 12058 <g_132>
    8f2a:	48 89 85 70 f8 ff ff 	mov    %rax,-0x790(%rbp)
    8f31:	48 c7 85 78 f8 ff ff 	movq   $0x0,-0x788(%rbp)
    8f38:	00 00 00 00 
    8f3c:	48 8d 85 20 e0 ff ff 	lea    -0x1fe0(%rbp),%rax
    8f43:	48 89 85 80 f8 ff ff 	mov    %rax,-0x780(%rbp)
    8f4a:	48 8d 85 a0 e8 ff ff 	lea    -0x1760(%rbp),%rax
    8f51:	48 05 c4 00 00 00    	add    $0xc4,%rax
    8f57:	48 89 85 88 f8 ff ff 	mov    %rax,-0x778(%rbp)
    8f5e:	48 8d 85 a0 e8 ff ff 	lea    -0x1760(%rbp),%rax
    8f65:	48 83 c0 40          	add    $0x40,%rax
    8f69:	48 89 85 90 f8 ff ff 	mov    %rax,-0x770(%rbp)
    8f70:	48 8d 05 e1 90 00 00 	lea    0x90e1(%rip),%rax        # 12058 <g_132>
    8f77:	48 89 85 98 f8 ff ff 	mov    %rax,-0x768(%rbp)
    8f7e:	48 8d 05 d3 90 00 00 	lea    0x90d3(%rip),%rax        # 12058 <g_132>
    8f85:	48 89 85 a0 f8 ff ff 	mov    %rax,-0x760(%rbp)
    8f8c:	48 8d 05 bd 90 00 00 	lea    0x90bd(%rip),%rax        # 12050 <g_110>
    8f93:	48 89 85 a8 f8 ff ff 	mov    %rax,-0x758(%rbp)
    8f9a:	48 8d 85 20 e0 ff ff 	lea    -0x1fe0(%rbp),%rax
    8fa1:	48 89 85 b0 f8 ff ff 	mov    %rax,-0x750(%rbp)
    8fa8:	48 c7 85 b8 f8 ff ff 	movq   $0x0,-0x748(%rbp)
    8faf:	00 00 00 00 
    8fb3:	48 8d 85 a0 e8 ff ff 	lea    -0x1760(%rbp),%rax
    8fba:	48 05 04 01 00 00    	add    $0x104,%rax
    8fc0:	48 89 85 c0 f8 ff ff 	mov    %rax,-0x740(%rbp)
    8fc7:	48 8d 85 a0 e8 ff ff 	lea    -0x1760(%rbp),%rax
    8fce:	48 05 38 01 00 00    	add    $0x138,%rax
    8fd4:	48 89 85 c8 f8 ff ff 	mov    %rax,-0x738(%rbp)
    8fdb:	48 8d 85 a0 e8 ff ff 	lea    -0x1760(%rbp),%rax
    8fe2:	48 05 60 01 00 00    	add    $0x160,%rax
    8fe8:	48 89 85 d0 f8 ff ff 	mov    %rax,-0x730(%rbp)
    8fef:	48 c7 85 d8 f8 ff ff 	movq   $0x0,-0x728(%rbp)
    8ff6:	00 00 00 00 
    8ffa:	48 8d 85 a0 e8 ff ff 	lea    -0x1760(%rbp),%rax
    9001:	48 05 38 01 00 00    	add    $0x138,%rax
    9007:	48 89 85 e0 f8 ff ff 	mov    %rax,-0x720(%rbp)
    900e:	48 8d 05 43 90 00 00 	lea    0x9043(%rip),%rax        # 12058 <g_132>
    9015:	48 89 85 e8 f8 ff ff 	mov    %rax,-0x718(%rbp)
    901c:	48 8d 85 a0 e8 ff ff 	lea    -0x1760(%rbp),%rax
    9023:	48 05 60 01 00 00    	add    $0x160,%rax
    9029:	48 89 85 f0 f8 ff ff 	mov    %rax,-0x710(%rbp)
    9030:	48 8d 05 19 90 00 00 	lea    0x9019(%rip),%rax        # 12050 <g_110>
    9037:	48 89 85 f8 f8 ff ff 	mov    %rax,-0x708(%rbp)
    903e:	48 8d 05 13 90 00 00 	lea    0x9013(%rip),%rax        # 12058 <g_132>
    9045:	48 89 85 00 f9 ff ff 	mov    %rax,-0x700(%rbp)
    904c:	48 c7 85 08 f9 ff ff 	movq   $0x0,-0x6f8(%rbp)
    9053:	00 00 00 00 
    9057:	48 8d 85 20 e0 ff ff 	lea    -0x1fe0(%rbp),%rax
    905e:	48 89 85 10 f9 ff ff 	mov    %rax,-0x6f0(%rbp)
    9065:	48 8d 85 a0 e8 ff ff 	lea    -0x1760(%rbp),%rax
    906c:	48 05 38 01 00 00    	add    $0x138,%rax
    9072:	48 89 85 18 f9 ff ff 	mov    %rax,-0x6e8(%rbp)
    9079:	48 8d 05 d0 8f 00 00 	lea    0x8fd0(%rip),%rax        # 12050 <g_110>
    9080:	48 89 85 20 f9 ff ff 	mov    %rax,-0x6e0(%rbp)
    9087:	48 8d 85 a0 e8 ff ff 	lea    -0x1760(%rbp),%rax
    908e:	48 83 c0 40          	add    $0x40,%rax
    9092:	48 89 85 28 f9 ff ff 	mov    %rax,-0x6d8(%rbp)
    9099:	48 8d 05 b8 8f 00 00 	lea    0x8fb8(%rip),%rax        # 12058 <g_132>
    90a0:	48 89 85 30 f9 ff ff 	mov    %rax,-0x6d0(%rbp)
    90a7:	48 8d 05 aa 8f 00 00 	lea    0x8faa(%rip),%rax        # 12058 <g_132>
    90ae:	48 89 85 38 f9 ff ff 	mov    %rax,-0x6c8(%rbp)
    90b5:	48 c7 85 40 f9 ff ff 	movq   $0x0,-0x6c0(%rbp)
    90bc:	00 00 00 00 
    90c0:	48 8d 85 20 e0 ff ff 	lea    -0x1fe0(%rbp),%rax
    90c7:	48 89 85 48 f9 ff ff 	mov    %rax,-0x6b8(%rbp)
    90ce:	48 8d 05 7b 8f 00 00 	lea    0x8f7b(%rip),%rax        # 12050 <g_110>
    90d5:	48 89 85 50 f9 ff ff 	mov    %rax,-0x6b0(%rbp)
    90dc:	48 8d 85 a0 e8 ff ff 	lea    -0x1760(%rbp),%rax
    90e3:	48 05 04 01 00 00    	add    $0x104,%rax
    90e9:	48 89 85 58 f9 ff ff 	mov    %rax,-0x6a8(%rbp)
    90f0:	48 c7 85 60 f9 ff ff 	movq   $0x0,-0x6a0(%rbp)
    90f7:	00 00 00 00 
    90fb:	48 c7 85 68 f9 ff ff 	movq   $0x0,-0x698(%rbp)
    9102:	00 00 00 00 
    9106:	48 8d 05 4b 8f 00 00 	lea    0x8f4b(%rip),%rax        # 12058 <g_132>
    910d:	48 89 85 70 f9 ff ff 	mov    %rax,-0x690(%rbp)
    9114:	48 8d 05 35 8f 00 00 	lea    0x8f35(%rip),%rax        # 12050 <g_110>
    911b:	48 89 85 78 f9 ff ff 	mov    %rax,-0x688(%rbp)
    9122:	48 c7 85 80 f9 ff ff 	movq   $0x0,-0x680(%rbp)
    9129:	00 00 00 00 
    912d:	48 8d 85 20 e0 ff ff 	lea    -0x1fe0(%rbp),%rax
    9134:	48 89 85 88 f9 ff ff 	mov    %rax,-0x678(%rbp)
    913b:	48 c7 85 90 f9 ff ff 	movq   $0x0,-0x670(%rbp)
    9142:	00 00 00 00 
    9146:	48 8d 85 a0 e8 ff ff 	lea    -0x1760(%rbp),%rax
    914d:	48 05 38 01 00 00    	add    $0x138,%rax
    9153:	48 89 85 98 f9 ff ff 	mov    %rax,-0x668(%rbp)
    915a:	48 c7 85 a0 f9 ff ff 	movq   $0x0,-0x660(%rbp)
    9161:	00 00 00 00 
    9165:	48 8d 85 20 e0 ff ff 	lea    -0x1fe0(%rbp),%rax
    916c:	48 89 85 a8 f9 ff ff 	mov    %rax,-0x658(%rbp)
    9173:	48 8d 85 a0 e8 ff ff 	lea    -0x1760(%rbp),%rax
    917a:	48 05 60 01 00 00    	add    $0x160,%rax
    9180:	48 89 85 b0 f9 ff ff 	mov    %rax,-0x650(%rbp)
    9187:	48 8d 85 20 e0 ff ff 	lea    -0x1fe0(%rbp),%rax
    918e:	48 89 85 b8 f9 ff ff 	mov    %rax,-0x648(%rbp)
    9195:	48 8d 85 a0 e8 ff ff 	lea    -0x1760(%rbp),%rax
    919c:	48 05 38 01 00 00    	add    $0x138,%rax
    91a2:	48 89 85 c0 f9 ff ff 	mov    %rax,-0x640(%rbp)
    91a9:	48 8d 85 20 e0 ff ff 	lea    -0x1fe0(%rbp),%rax
    91b0:	48 89 85 c8 f9 ff ff 	mov    %rax,-0x638(%rbp)
    91b7:	48 8d 05 9a 8e 00 00 	lea    0x8e9a(%rip),%rax        # 12058 <g_132>
    91be:	48 89 85 d0 f9 ff ff 	mov    %rax,-0x630(%rbp)
    91c5:	48 8d 85 a0 e8 ff ff 	lea    -0x1760(%rbp),%rax
    91cc:	48 05 38 01 00 00    	add    $0x138,%rax
    91d2:	48 89 85 d8 f9 ff ff 	mov    %rax,-0x628(%rbp)
    91d9:	48 8d 85 20 e0 ff ff 	lea    -0x1fe0(%rbp),%rax
    91e0:	48 89 85 e0 f9 ff ff 	mov    %rax,-0x620(%rbp)
    91e7:	48 8d 85 20 e0 ff ff 	lea    -0x1fe0(%rbp),%rax
    91ee:	48 89 85 e8 f9 ff ff 	mov    %rax,-0x618(%rbp)
    91f5:	48 8d 85 20 e0 ff ff 	lea    -0x1fe0(%rbp),%rax
    91fc:	48 89 85 f0 f9 ff ff 	mov    %rax,-0x610(%rbp)
    9203:	48 8d 05 46 8e 00 00 	lea    0x8e46(%rip),%rax        # 12050 <g_110>
    920a:	48 89 85 f8 f9 ff ff 	mov    %rax,-0x608(%rbp)
    9211:	48 8d 85 a0 e8 ff ff 	lea    -0x1760(%rbp),%rax
    9218:	48 05 38 01 00 00    	add    $0x138,%rax
    921e:	48 89 85 00 fa ff ff 	mov    %rax,-0x600(%rbp)
    9225:	48 c7 85 08 fa ff ff 	movq   $0x0,-0x5f8(%rbp)
    922c:	00 00 00 00 
    9230:	48 8d 85 20 e0 ff ff 	lea    -0x1fe0(%rbp),%rax
    9237:	48 89 85 10 fa ff ff 	mov    %rax,-0x5f0(%rbp)
    923e:	48 8d 85 a0 e8 ff ff 	lea    -0x1760(%rbp),%rax
    9245:	48 05 c4 00 00 00    	add    $0xc4,%rax
    924b:	48 89 85 18 fa ff ff 	mov    %rax,-0x5e8(%rbp)
    9252:	48 8d 85 a0 e8 ff ff 	lea    -0x1760(%rbp),%rax
    9259:	48 05 38 01 00 00    	add    $0x138,%rax
    925f:	48 89 85 20 fa ff ff 	mov    %rax,-0x5e0(%rbp)
    9266:	48 8d 05 eb 8d 00 00 	lea    0x8deb(%rip),%rax        # 12058 <g_132>
    926d:	48 89 85 28 fa ff ff 	mov    %rax,-0x5d8(%rbp)
    9274:	48 c7 85 30 fa ff ff 	movq   $0x0,-0x5d0(%rbp)
    927b:	00 00 00 00 
    927f:	48 8d 05 d2 8d 00 00 	lea    0x8dd2(%rip),%rax        # 12058 <g_132>
    9286:	48 89 85 38 fa ff ff 	mov    %rax,-0x5c8(%rbp)
    928d:	48 c7 85 40 fa ff ff 	movq   $0x0,-0x5c0(%rbp)
    9294:	00 00 00 00 
    9298:	48 8d 05 b9 8d 00 00 	lea    0x8db9(%rip),%rax        # 12058 <g_132>
    929f:	48 89 85 48 fa ff ff 	mov    %rax,-0x5b8(%rbp)
    92a6:	48 8d 05 a3 8d 00 00 	lea    0x8da3(%rip),%rax        # 12050 <g_110>
    92ad:	48 89 85 50 fa ff ff 	mov    %rax,-0x5b0(%rbp)
    92b4:	48 8d 85 a0 e8 ff ff 	lea    -0x1760(%rbp),%rax
    92bb:	48 83 c0 34          	add    $0x34,%rax
    92bf:	48 89 85 58 fa ff ff 	mov    %rax,-0x5a8(%rbp)
    92c6:	48 8d 85 a0 e8 ff ff 	lea    -0x1760(%rbp),%rax
    92cd:	48 05 38 01 00 00    	add    $0x138,%rax
    92d3:	48 89 85 60 fa ff ff 	mov    %rax,-0x5a0(%rbp)
    92da:	48 8d 05 6f 8d 00 00 	lea    0x8d6f(%rip),%rax        # 12050 <g_110>
    92e1:	48 89 85 68 fa ff ff 	mov    %rax,-0x598(%rbp)
    92e8:	48 8d 85 a0 e8 ff ff 	lea    -0x1760(%rbp),%rax
    92ef:	48 05 38 01 00 00    	add    $0x138,%rax
    92f5:	48 89 85 70 fa ff ff 	mov    %rax,-0x590(%rbp)
    92fc:	48 8d 05 55 8d 00 00 	lea    0x8d55(%rip),%rax        # 12058 <g_132>
    9303:	48 89 85 78 fa ff ff 	mov    %rax,-0x588(%rbp)
    930a:	48 8d 85 a0 e8 ff ff 	lea    -0x1760(%rbp),%rax
    9311:	48 05 04 01 00 00    	add    $0x104,%rax
    9317:	48 89 85 80 fa ff ff 	mov    %rax,-0x580(%rbp)
    931e:	48 8d 85 a0 e8 ff ff 	lea    -0x1760(%rbp),%rax
    9325:	48 05 c4 00 00 00    	add    $0xc4,%rax
    932b:	48 89 85 88 fa ff ff 	mov    %rax,-0x578(%rbp)
    9332:	48 8d 05 1f 8d 00 00 	lea    0x8d1f(%rip),%rax        # 12058 <g_132>
    9339:	48 89 85 90 fa ff ff 	mov    %rax,-0x570(%rbp)
    9340:	48 8d 05 09 8d 00 00 	lea    0x8d09(%rip),%rax        # 12050 <g_110>
    9347:	48 89 85 98 fa ff ff 	mov    %rax,-0x568(%rbp)
    934e:	48 8d 05 03 8d 00 00 	lea    0x8d03(%rip),%rax        # 12058 <g_132>
    9355:	48 89 85 a0 fa ff ff 	mov    %rax,-0x560(%rbp)
    935c:	48 8d 05 f5 8c 00 00 	lea    0x8cf5(%rip),%rax        # 12058 <g_132>
    9363:	48 89 85 a8 fa ff ff 	mov    %rax,-0x558(%rbp)
    936a:	48 c7 85 b0 fa ff ff 	movq   $0x0,-0x550(%rbp)
    9371:	00 00 00 00 
    9375:	48 8d 85 20 e0 ff ff 	lea    -0x1fe0(%rbp),%rax
    937c:	48 89 85 b8 fa ff ff 	mov    %rax,-0x548(%rbp)
    9383:	48 8d 05 ce 8c 00 00 	lea    0x8cce(%rip),%rax        # 12058 <g_132>
    938a:	48 89 85 c0 fa ff ff 	mov    %rax,-0x540(%rbp)
    9391:	48 8d 85 20 e0 ff ff 	lea    -0x1fe0(%rbp),%rax
    9398:	48 89 85 c8 fa ff ff 	mov    %rax,-0x538(%rbp)
    939f:	48 8d 85 20 e0 ff ff 	lea    -0x1fe0(%rbp),%rax
    93a6:	48 89 85 d0 fa ff ff 	mov    %rax,-0x530(%rbp)
    93ad:	48 8d 05 a4 8c 00 00 	lea    0x8ca4(%rip),%rax        # 12058 <g_132>
    93b4:	48 89 85 d8 fa ff ff 	mov    %rax,-0x528(%rbp)
    93bb:	48 8d 85 a0 e8 ff ff 	lea    -0x1760(%rbp),%rax
    93c2:	48 05 38 01 00 00    	add    $0x138,%rax
    93c8:	48 89 85 e0 fa ff ff 	mov    %rax,-0x520(%rbp)
    93cf:	48 8d 85 a0 e8 ff ff 	lea    -0x1760(%rbp),%rax
    93d6:	48 05 38 01 00 00    	add    $0x138,%rax
    93dc:	48 89 85 e8 fa ff ff 	mov    %rax,-0x518(%rbp)
    93e3:	48 8d 05 6e 8c 00 00 	lea    0x8c6e(%rip),%rax        # 12058 <g_132>
    93ea:	48 89 85 f0 fa ff ff 	mov    %rax,-0x510(%rbp)
    93f1:	48 8d 05 60 8c 00 00 	lea    0x8c60(%rip),%rax        # 12058 <g_132>
    93f8:	48 89 85 f8 fa ff ff 	mov    %rax,-0x508(%rbp)
    93ff:	48 8d 85 a0 e8 ff ff 	lea    -0x1760(%rbp),%rax
    9406:	48 05 38 01 00 00    	add    $0x138,%rax
    940c:	48 89 85 00 fb ff ff 	mov    %rax,-0x500(%rbp)
    9413:	48 c7 85 08 fb ff ff 	movq   $0x0,-0x4f8(%rbp)
    941a:	00 00 00 00 
    941e:	48 8d 05 33 8c 00 00 	lea    0x8c33(%rip),%rax        # 12058 <g_132>
    9425:	48 89 85 10 fb ff ff 	mov    %rax,-0x4f0(%rbp)
    942c:	48 c7 85 18 fb ff ff 	movq   $0x0,-0x4e8(%rbp)
    9433:	00 00 00 00 
    9437:	48 8d 85 a0 e8 ff ff 	lea    -0x1760(%rbp),%rax
    943e:	48 05 38 01 00 00    	add    $0x138,%rax
    9444:	48 89 85 20 fb ff ff 	mov    %rax,-0x4e0(%rbp)
    944b:	48 8d 85 a0 e8 ff ff 	lea    -0x1760(%rbp),%rax
    9452:	48 05 38 01 00 00    	add    $0x138,%rax
    9458:	48 89 85 28 fb ff ff 	mov    %rax,-0x4d8(%rbp)
    945f:	48 c7 85 30 fb ff ff 	movq   $0x0,-0x4d0(%rbp)
    9466:	00 00 00 00 
    946a:	48 c7 85 38 fb ff ff 	movq   $0x0,-0x4c8(%rbp)
    9471:	00 00 00 00 
    9475:	48 8d 05 dc 8b 00 00 	lea    0x8bdc(%rip),%rax        # 12058 <g_132>
    947c:	48 89 85 40 fb ff ff 	mov    %rax,-0x4c0(%rbp)
    9483:	48 c7 85 48 fb ff ff 	movq   $0x0,-0x4b8(%rbp)
    948a:	00 00 00 00 
    948e:	48 8d 85 a0 e8 ff ff 	lea    -0x1760(%rbp),%rax
    9495:	48 05 38 01 00 00    	add    $0x138,%rax
    949b:	48 89 85 50 fb ff ff 	mov    %rax,-0x4b0(%rbp)
    94a2:	48 8d 85 a0 e8 ff ff 	lea    -0x1760(%rbp),%rax
    94a9:	48 05 38 01 00 00    	add    $0x138,%rax
    94af:	48 89 85 58 fb ff ff 	mov    %rax,-0x4a8(%rbp)
    94b6:	48 8d 05 9b 8b 00 00 	lea    0x8b9b(%rip),%rax        # 12058 <g_132>
    94bd:	48 89 85 60 fb ff ff 	mov    %rax,-0x4a0(%rbp)
    94c4:	48 8d 85 a0 e8 ff ff 	lea    -0x1760(%rbp),%rax
    94cb:	48 05 38 01 00 00    	add    $0x138,%rax
    94d1:	48 89 85 68 fb ff ff 	mov    %rax,-0x498(%rbp)
    94d8:	48 8d 85 a0 e8 ff ff 	lea    -0x1760(%rbp),%rax
    94df:	48 05 38 01 00 00    	add    $0x138,%rax
    94e5:	48 89 85 70 fb ff ff 	mov    %rax,-0x490(%rbp)
    94ec:	48 8d 05 65 8b 00 00 	lea    0x8b65(%rip),%rax        # 12058 <g_132>
    94f3:	48 89 85 78 fb ff ff 	mov    %rax,-0x488(%rbp)
    94fa:	48 8d 05 4f 8b 00 00 	lea    0x8b4f(%rip),%rax        # 12050 <g_110>
    9501:	48 89 85 80 fb ff ff 	mov    %rax,-0x480(%rbp)
    9508:	48 8d 85 20 e0 ff ff 	lea    -0x1fe0(%rbp),%rax
    950f:	48 89 85 88 fb ff ff 	mov    %rax,-0x478(%rbp)
    9516:	48 8d 85 20 e0 ff ff 	lea    -0x1fe0(%rbp),%rax
    951d:	48 89 85 90 fb ff ff 	mov    %rax,-0x470(%rbp)
    9524:	48 8d 85 a0 e8 ff ff 	lea    -0x1760(%rbp),%rax
    952b:	48 05 38 01 00 00    	add    $0x138,%rax
    9531:	48 89 85 98 fb ff ff 	mov    %rax,-0x468(%rbp)
    9538:	48 c7 85 a0 fb ff ff 	movq   $0x0,-0x460(%rbp)
    953f:	00 00 00 00 
    9543:	48 c7 85 a8 fb ff ff 	movq   $0x0,-0x458(%rbp)
    954a:	00 00 00 00 
    954e:	48 8d 85 20 e0 ff ff 	lea    -0x1fe0(%rbp),%rax
    9555:	48 89 85 b0 fb ff ff 	mov    %rax,-0x450(%rbp)
    955c:	48 c7 85 b8 fb ff ff 	movq   $0x0,-0x448(%rbp)
    9563:	00 00 00 00 
    9567:	48 8d 85 20 e0 ff ff 	lea    -0x1fe0(%rbp),%rax
    956e:	48 89 85 c0 fb ff ff 	mov    %rax,-0x440(%rbp)
    9575:	48 8d 85 a0 e8 ff ff 	lea    -0x1760(%rbp),%rax
    957c:	48 05 c4 00 00 00    	add    $0xc4,%rax
    9582:	48 89 85 c8 fb ff ff 	mov    %rax,-0x438(%rbp)
    9589:	48 c7 85 d0 fb ff ff 	movq   $0x0,-0x430(%rbp)
    9590:	00 00 00 00 
    9594:	48 8d 05 bd 8a 00 00 	lea    0x8abd(%rip),%rax        # 12058 <g_132>
    959b:	48 89 85 d8 fb ff ff 	mov    %rax,-0x428(%rbp)
    95a2:	48 8d 85 20 e0 ff ff 	lea    -0x1fe0(%rbp),%rax
    95a9:	48 89 85 e0 fb ff ff 	mov    %rax,-0x420(%rbp)
    95b0:	48 8d 85 a0 e8 ff ff 	lea    -0x1760(%rbp),%rax
    95b7:	48 05 38 01 00 00    	add    $0x138,%rax
    95bd:	48 89 85 e8 fb ff ff 	mov    %rax,-0x418(%rbp)
    95c4:	48 8d 85 a0 e8 ff ff 	lea    -0x1760(%rbp),%rax
    95cb:	48 05 38 01 00 00    	add    $0x138,%rax
    95d1:	48 89 85 f0 fb ff ff 	mov    %rax,-0x410(%rbp)
    95d8:	48 8d 85 20 e0 ff ff 	lea    -0x1fe0(%rbp),%rax
    95df:	48 89 85 f8 fb ff ff 	mov    %rax,-0x408(%rbp)
    95e6:	48 c7 85 00 fc ff ff 	movq   $0x0,-0x400(%rbp)
    95ed:	00 00 00 00 
    95f1:	48 8d 05 60 8a 00 00 	lea    0x8a60(%rip),%rax        # 12058 <g_132>
    95f8:	48 89 85 08 fc ff ff 	mov    %rax,-0x3f8(%rbp)
    95ff:	48 c7 85 10 fc ff ff 	movq   $0x0,-0x3f0(%rbp)
    9606:	00 00 00 00 
    960a:	48 8d 05 47 8a 00 00 	lea    0x8a47(%rip),%rax        # 12058 <g_132>
    9611:	48 89 85 18 fc ff ff 	mov    %rax,-0x3e8(%rbp)
    9618:	48 8d 05 31 8a 00 00 	lea    0x8a31(%rip),%rax        # 12050 <g_110>
    961f:	48 89 85 20 fc ff ff 	mov    %rax,-0x3e0(%rbp)
    9626:	48 c7 85 28 fc ff ff 	movq   $0x0,-0x3d8(%rbp)
    962d:	00 00 00 00 
    9631:	48 8d 85 a0 e8 ff ff 	lea    -0x1760(%rbp),%rax
    9638:	48 05 38 01 00 00    	add    $0x138,%rax
    963e:	48 89 85 30 fc ff ff 	mov    %rax,-0x3d0(%rbp)
    9645:	48 8d 85 a0 e8 ff ff 	lea    -0x1760(%rbp),%rax
    964c:	48 05 38 01 00 00    	add    $0x138,%rax
    9652:	48 89 85 38 fc ff ff 	mov    %rax,-0x3c8(%rbp)
    9659:	48 8d 85 20 e0 ff ff 	lea    -0x1fe0(%rbp),%rax
    9660:	48 89 85 40 fc ff ff 	mov    %rax,-0x3c0(%rbp)
    9667:	48 8d 05 e2 89 00 00 	lea    0x89e2(%rip),%rax        # 12050 <g_110>
    966e:	48 89 85 48 fc ff ff 	mov    %rax,-0x3b8(%rbp)
    9675:	48 8d 85 a0 e8 ff ff 	lea    -0x1760(%rbp),%rax
    967c:	48 05 38 01 00 00    	add    $0x138,%rax
    9682:	48 89 85 50 fc ff ff 	mov    %rax,-0x3b0(%rbp)
    9689:	48 8d 05 c0 89 00 00 	lea    0x89c0(%rip),%rax        # 12050 <g_110>
    9690:	48 89 85 58 fc ff ff 	mov    %rax,-0x3a8(%rbp)
    9697:	48 8d 05 b2 89 00 00 	lea    0x89b2(%rip),%rax        # 12050 <g_110>
    969e:	48 89 85 60 fc ff ff 	mov    %rax,-0x3a0(%rbp)
    96a5:	48 8d 85 20 e0 ff ff 	lea    -0x1fe0(%rbp),%rax
    96ac:	48 89 85 68 fc ff ff 	mov    %rax,-0x398(%rbp)
    96b3:	48 8d 05 9e 89 00 00 	lea    0x899e(%rip),%rax        # 12058 <g_132>
    96ba:	48 89 85 70 fc ff ff 	mov    %rax,-0x390(%rbp)
    96c1:	48 8d 85 a0 e8 ff ff 	lea    -0x1760(%rbp),%rax
    96c8:	48 83 c0 34          	add    $0x34,%rax
    96cc:	48 89 85 78 fc ff ff 	mov    %rax,-0x388(%rbp)
    96d3:	48 8d 05 76 89 00 00 	lea    0x8976(%rip),%rax        # 12050 <g_110>
    96da:	48 89 85 80 fc ff ff 	mov    %rax,-0x380(%rbp)
    96e1:	48 8d 85 a0 e8 ff ff 	lea    -0x1760(%rbp),%rax
    96e8:	48 05 38 01 00 00    	add    $0x138,%rax
    96ee:	48 89 85 88 fc ff ff 	mov    %rax,-0x378(%rbp)
    96f5:	48 8d 85 a0 e8 ff ff 	lea    -0x1760(%rbp),%rax
    96fc:	48 05 38 01 00 00    	add    $0x138,%rax
    9702:	48 89 85 90 fc ff ff 	mov    %rax,-0x370(%rbp)
    9709:	48 8d 05 48 89 00 00 	lea    0x8948(%rip),%rax        # 12058 <g_132>
    9710:	48 89 85 98 fc ff ff 	mov    %rax,-0x368(%rbp)
    9717:	48 8d 85 a0 e8 ff ff 	lea    -0x1760(%rbp),%rax
    971e:	48 05 c4 00 00 00    	add    $0xc4,%rax
    9724:	48 89 85 a0 fc ff ff 	mov    %rax,-0x360(%rbp)
    972b:	48 8d 05 1e 89 00 00 	lea    0x891e(%rip),%rax        # 12050 <g_110>
    9732:	48 89 85 a8 fc ff ff 	mov    %rax,-0x358(%rbp)
    9739:	48 8d 05 18 89 00 00 	lea    0x8918(%rip),%rax        # 12058 <g_132>
    9740:	48 89 85 b0 fc ff ff 	mov    %rax,-0x350(%rbp)
    9747:	48 8d 85 a0 e8 ff ff 	lea    -0x1760(%rbp),%rax
    974e:	48 05 38 01 00 00    	add    $0x138,%rax
    9754:	48 89 85 b8 fc ff ff 	mov    %rax,-0x348(%rbp)
    975b:	48 8d 05 ee 88 00 00 	lea    0x88ee(%rip),%rax        # 12050 <g_110>
    9762:	48 89 85 c0 fc ff ff 	mov    %rax,-0x340(%rbp)
    9769:	48 8d 85 a0 e8 ff ff 	lea    -0x1760(%rbp),%rax
    9770:	48 05 38 01 00 00    	add    $0x138,%rax
    9776:	48 89 85 c8 fc ff ff 	mov    %rax,-0x338(%rbp)
    977d:	48 8d 85 a0 e8 ff ff 	lea    -0x1760(%rbp),%rax
    9784:	48 05 38 01 00 00    	add    $0x138,%rax
    978a:	48 89 85 d0 fc ff ff 	mov    %rax,-0x330(%rbp)
    9791:	48 8d 85 20 e0 ff ff 	lea    -0x1fe0(%rbp),%rax
    9798:	48 89 85 d8 fc ff ff 	mov    %rax,-0x328(%rbp)
    979f:	48 8d 05 b2 88 00 00 	lea    0x88b2(%rip),%rax        # 12058 <g_132>
    97a6:	48 89 85 e0 fc ff ff 	mov    %rax,-0x320(%rbp)
    97ad:	48 8d 05 9c 88 00 00 	lea    0x889c(%rip),%rax        # 12050 <g_110>
    97b4:	48 89 85 e8 fc ff ff 	mov    %rax,-0x318(%rbp)
    97bb:	48 8d 05 96 88 00 00 	lea    0x8896(%rip),%rax        # 12058 <g_132>
    97c2:	48 89 85 f0 fc ff ff 	mov    %rax,-0x310(%rbp)
    97c9:	48 8d 05 88 88 00 00 	lea    0x8888(%rip),%rax        # 12058 <g_132>
    97d0:	48 89 85 f8 fc ff ff 	mov    %rax,-0x308(%rbp)
    97d7:	48 8d 85 a0 e8 ff ff 	lea    -0x1760(%rbp),%rax
    97de:	48 05 38 01 00 00    	add    $0x138,%rax
    97e4:	48 89 85 00 fd ff ff 	mov    %rax,-0x300(%rbp)
    97eb:	48 c7 85 08 fd ff ff 	movq   $0x0,-0x2f8(%rbp)
    97f2:	00 00 00 00 
    97f6:	48 8d 85 20 e0 ff ff 	lea    -0x1fe0(%rbp),%rax
    97fd:	48 89 85 10 fd ff ff 	mov    %rax,-0x2f0(%rbp)
    9804:	48 8d 85 20 e0 ff ff 	lea    -0x1fe0(%rbp),%rax
    980b:	48 89 85 18 fd ff ff 	mov    %rax,-0x2e8(%rbp)
    9812:	48 c7 85 20 fd ff ff 	movq   $0x0,-0x2e0(%rbp)
    9819:	00 00 00 00 
    981d:	48 8d 85 20 e0 ff ff 	lea    -0x1fe0(%rbp),%rax
    9824:	48 89 85 28 fd ff ff 	mov    %rax,-0x2d8(%rbp)
    982b:	48 8d 85 20 e0 ff ff 	lea    -0x1fe0(%rbp),%rax
    9832:	48 89 85 30 fd ff ff 	mov    %rax,-0x2d0(%rbp)
    9839:	48 c7 85 38 fd ff ff 	movq   $0x0,-0x2c8(%rbp)
    9840:	00 00 00 00 
    9844:	48 8d 05 05 88 00 00 	lea    0x8805(%rip),%rax        # 12050 <g_110>
    984b:	48 89 85 40 fd ff ff 	mov    %rax,-0x2c0(%rbp)
    9852:	48 8d 85 a0 e8 ff ff 	lea    -0x1760(%rbp),%rax
    9859:	48 05 c4 00 00 00    	add    $0xc4,%rax
    985f:	48 89 85 48 fd ff ff 	mov    %rax,-0x2b8(%rbp)
    9866:	48 c7 85 50 fd ff ff 	movq   $0x0,-0x2b0(%rbp)
    986d:	00 00 00 00 
    9871:	48 c7 85 58 fd ff ff 	movq   $0x0,-0x2a8(%rbp)
    9878:	00 00 00 00 
    987c:	48 c7 85 60 fd ff ff 	movq   $0x0,-0x2a0(%rbp)
    9883:	00 00 00 00 
    9887:	48 8d 85 20 e0 ff ff 	lea    -0x1fe0(%rbp),%rax
    988e:	48 89 85 68 fd ff ff 	mov    %rax,-0x298(%rbp)
    9895:	48 8d 05 b4 87 00 00 	lea    0x87b4(%rip),%rax        # 12050 <g_110>
    989c:	48 89 85 70 fd ff ff 	mov    %rax,-0x290(%rbp)
    98a3:	48 8d 05 ae 87 00 00 	lea    0x87ae(%rip),%rax        # 12058 <g_132>
    98aa:	48 89 85 78 fd ff ff 	mov    %rax,-0x288(%rbp)
    98b1:	48 8d 05 a0 87 00 00 	lea    0x87a0(%rip),%rax        # 12058 <g_132>
    98b8:	48 89 85 80 fd ff ff 	mov    %rax,-0x280(%rbp)
    98bf:	48 8d 05 8a 87 00 00 	lea    0x878a(%rip),%rax        # 12050 <g_110>
    98c6:	48 89 85 88 fd ff ff 	mov    %rax,-0x278(%rbp)
    98cd:	48 8d 05 7c 87 00 00 	lea    0x877c(%rip),%rax        # 12050 <g_110>
    98d4:	48 89 85 90 fd ff ff 	mov    %rax,-0x270(%rbp)
    98db:	48 c7 85 98 fd ff ff 	movq   $0x0,-0x268(%rbp)
    98e2:	00 00 00 00 
    98e6:	48 c7 85 a0 fd ff ff 	movq   $0x0,-0x260(%rbp)
    98ed:	00 00 00 00 
    98f1:	48 8d 85 20 e0 ff ff 	lea    -0x1fe0(%rbp),%rax
    98f8:	48 89 85 a8 fd ff ff 	mov    %rax,-0x258(%rbp)
    98ff:	48 8d 85 a0 e8 ff ff 	lea    -0x1760(%rbp),%rax
    9906:	48 05 38 01 00 00    	add    $0x138,%rax
    990c:	48 89 85 b0 fd ff ff 	mov    %rax,-0x250(%rbp)
    9913:	48 c7 85 b8 fd ff ff 	movq   $0x0,-0x248(%rbp)
    991a:	00 00 00 00 
    991e:	48 8d 05 33 87 00 00 	lea    0x8733(%rip),%rax        # 12058 <g_132>
    9925:	48 89 85 c0 fd ff ff 	mov    %rax,-0x240(%rbp)
    992c:	48 8d 05 25 87 00 00 	lea    0x8725(%rip),%rax        # 12058 <g_132>
    9933:	48 89 85 c8 fd ff ff 	mov    %rax,-0x238(%rbp)
    993a:	48 8d 05 0f 87 00 00 	lea    0x870f(%rip),%rax        # 12050 <g_110>
    9941:	48 89 85 d0 fd ff ff 	mov    %rax,-0x230(%rbp)
    9948:	48 c7 85 d8 fd ff ff 	movq   $0x0,-0x228(%rbp)
    994f:	00 00 00 00 
    9953:	48 8d 05 f6 86 00 00 	lea    0x86f6(%rip),%rax        # 12050 <g_110>
    995a:	48 89 85 e0 fd ff ff 	mov    %rax,-0x220(%rbp)
    9961:	48 8d 05 f0 86 00 00 	lea    0x86f0(%rip),%rax        # 12058 <g_132>
    9968:	48 89 85 e8 fd ff ff 	mov    %rax,-0x218(%rbp)
    996f:	48 c7 85 f0 fd ff ff 	movq   $0x0,-0x210(%rbp)
    9976:	00 00 00 00 
    997a:	48 8d 85 20 e0 ff ff 	lea    -0x1fe0(%rbp),%rax
    9981:	48 89 85 f8 fd ff ff 	mov    %rax,-0x208(%rbp)
    9988:	48 c7 85 00 fe ff ff 	movq   $0x0,-0x200(%rbp)
    998f:	00 00 00 00 
    9993:	48 c7 85 08 fe ff ff 	movq   $0x0,-0x1f8(%rbp)
    999a:	00 00 00 00 
    999e:	48 8d 85 20 e0 ff ff 	lea    -0x1fe0(%rbp),%rax
    99a5:	48 89 85 10 fe ff ff 	mov    %rax,-0x1f0(%rbp)
    99ac:	48 8d 85 a0 e8 ff ff 	lea    -0x1760(%rbp),%rax
    99b3:	48 05 38 01 00 00    	add    $0x138,%rax
    99b9:	48 89 85 18 fe ff ff 	mov    %rax,-0x1e8(%rbp)
    99c0:	48 8d 85 a0 e8 ff ff 	lea    -0x1760(%rbp),%rax
    99c7:	48 05 38 01 00 00    	add    $0x138,%rax
    99cd:	48 89 85 20 fe ff ff 	mov    %rax,-0x1e0(%rbp)
    99d4:	48 8d 85 a0 e8 ff ff 	lea    -0x1760(%rbp),%rax
    99db:	48 05 38 01 00 00    	add    $0x138,%rax
    99e1:	48 89 85 28 fe ff ff 	mov    %rax,-0x1d8(%rbp)
    99e8:	48 8d 05 61 86 00 00 	lea    0x8661(%rip),%rax        # 12050 <g_110>
    99ef:	48 89 85 30 fe ff ff 	mov    %rax,-0x1d0(%rbp)
    99f6:	48 8d 85 a0 e8 ff ff 	lea    -0x1760(%rbp),%rax
    99fd:	48 05 60 01 00 00    	add    $0x160,%rax
    9a03:	48 89 85 38 fe ff ff 	mov    %rax,-0x1c8(%rbp)
    9a0a:	48 8d 85 a0 e8 ff ff 	lea    -0x1760(%rbp),%rax
    9a11:	48 05 e4 00 00 00    	add    $0xe4,%rax
    9a17:	48 89 85 40 fe ff ff 	mov    %rax,-0x1c0(%rbp)
    9a1e:	48 8d 85 a0 e8 ff ff 	lea    -0x1760(%rbp),%rax
    9a25:	48 05 38 01 00 00    	add    $0x138,%rax
    9a2b:	48 89 85 48 fe ff ff 	mov    %rax,-0x1b8(%rbp)
    9a32:	48 8d 85 20 e0 ff ff 	lea    -0x1fe0(%rbp),%rax
    9a39:	48 89 85 50 fe ff ff 	mov    %rax,-0x1b0(%rbp)
    9a40:	48 8d 85 20 e0 ff ff 	lea    -0x1fe0(%rbp),%rax
    9a47:	48 89 85 58 fe ff ff 	mov    %rax,-0x1a8(%rbp)
    9a4e:	48 8d 85 20 e0 ff ff 	lea    -0x1fe0(%rbp),%rax
    9a55:	48 89 85 60 fe ff ff 	mov    %rax,-0x1a0(%rbp)
    9a5c:	48 8d 85 20 e0 ff ff 	lea    -0x1fe0(%rbp),%rax
    9a63:	48 89 85 68 fe ff ff 	mov    %rax,-0x198(%rbp)
    9a6a:	48 8d 85 a0 e8 ff ff 	lea    -0x1760(%rbp),%rax
    9a71:	48 05 38 01 00 00    	add    $0x138,%rax
    9a77:	48 89 85 70 fe ff ff 	mov    %rax,-0x190(%rbp)
    9a7e:	48 8d 05 d3 85 00 00 	lea    0x85d3(%rip),%rax        # 12058 <g_132>
    9a85:	48 89 85 78 fe ff ff 	mov    %rax,-0x188(%rbp)
    9a8c:	48 8d 05 bd 85 00 00 	lea    0x85bd(%rip),%rax        # 12050 <g_110>
    9a93:	48 89 85 80 fe ff ff 	mov    %rax,-0x180(%rbp)
    9a9a:	48 8d 85 20 e0 ff ff 	lea    -0x1fe0(%rbp),%rax
    9aa1:	48 89 85 88 fe ff ff 	mov    %rax,-0x178(%rbp)
    9aa8:	48 8d 85 a0 e8 ff ff 	lea    -0x1760(%rbp),%rax
    9aaf:	48 05 38 01 00 00    	add    $0x138,%rax
    9ab5:	48 89 85 90 fe ff ff 	mov    %rax,-0x170(%rbp)
    9abc:	48 8d 85 20 e0 ff ff 	lea    -0x1fe0(%rbp),%rax
    9ac3:	48 89 85 98 fe ff ff 	mov    %rax,-0x168(%rbp)
    9aca:	48 8d 05 7f 85 00 00 	lea    0x857f(%rip),%rax        # 12050 <g_110>
    9ad1:	48 89 85 a0 fe ff ff 	mov    %rax,-0x160(%rbp)
    9ad8:	48 8d 85 20 e0 ff ff 	lea    -0x1fe0(%rbp),%rax
    9adf:	48 89 85 a8 fe ff ff 	mov    %rax,-0x158(%rbp)
    9ae6:	48 8d 05 6b 85 00 00 	lea    0x856b(%rip),%rax        # 12058 <g_132>
    9aed:	48 89 85 b0 fe ff ff 	mov    %rax,-0x150(%rbp)
    9af4:	48 8d 85 a0 e8 ff ff 	lea    -0x1760(%rbp),%rax
    9afb:	48 83 c0 4c          	add    $0x4c,%rax
    9aff:	48 89 85 b8 fe ff ff 	mov    %rax,-0x148(%rbp)
    9b06:	48 8d 05 4b 85 00 00 	lea    0x854b(%rip),%rax        # 12058 <g_132>
    9b0d:	48 89 85 c0 fe ff ff 	mov    %rax,-0x140(%rbp)
    9b14:	48 c7 85 c8 fe ff ff 	movq   $0x0,-0x138(%rbp)
    9b1b:	00 00 00 00 
    9b1f:	48 8d 05 32 85 00 00 	lea    0x8532(%rip),%rax        # 12058 <g_132>
    9b26:	48 89 85 d0 fe ff ff 	mov    %rax,-0x130(%rbp)
    9b2d:	48 c7 85 d8 fe ff ff 	movq   $0x0,-0x128(%rbp)
    9b34:	00 00 00 00 
    9b38:	48 8d 85 a0 e8 ff ff 	lea    -0x1760(%rbp),%rax
    9b3f:	48 83 c0 34          	add    $0x34,%rax
    9b43:	48 89 85 e0 fe ff ff 	mov    %rax,-0x120(%rbp)
    9b4a:	48 8d 85 20 e0 ff ff 	lea    -0x1fe0(%rbp),%rax
    9b51:	48 89 85 e8 fe ff ff 	mov    %rax,-0x118(%rbp)
    9b58:	48 8d 85 a0 e8 ff ff 	lea    -0x1760(%rbp),%rax
    9b5f:	48 05 c4 00 00 00    	add    $0xc4,%rax
    9b65:	48 89 85 f0 fe ff ff 	mov    %rax,-0x110(%rbp)
    9b6c:	48 8d 85 a0 e8 ff ff 	lea    -0x1760(%rbp),%rax
    9b73:	48 05 38 01 00 00    	add    $0x138,%rax
    9b79:	48 89 85 f8 fe ff ff 	mov    %rax,-0x108(%rbp)
    9b80:	48 8d 05 d1 84 00 00 	lea    0x84d1(%rip),%rax        # 12058 <g_132>
    9b87:	48 89 85 00 ff ff ff 	mov    %rax,-0x100(%rbp)
    9b8e:	48 c7 85 08 ff ff ff 	movq   $0x0,-0xf8(%rbp)
    9b95:	00 00 00 00 
    9b99:	48 8d 85 a0 e8 ff ff 	lea    -0x1760(%rbp),%rax
    9ba0:	48 05 c4 00 00 00    	add    $0xc4,%rax
    9ba6:	48 89 85 10 ff ff ff 	mov    %rax,-0xf0(%rbp)
    9bad:	48 8d 85 20 e0 ff ff 	lea    -0x1fe0(%rbp),%rax
    9bb4:	48 89 85 18 ff ff ff 	mov    %rax,-0xe8(%rbp)
    9bbb:	48 8d 85 a0 e8 ff ff 	lea    -0x1760(%rbp),%rax
    9bc2:	48 05 c4 00 00 00    	add    $0xc4,%rax
    9bc8:	48 89 85 20 ff ff ff 	mov    %rax,-0xe0(%rbp)
    9bcf:	48 8d 05 82 84 00 00 	lea    0x8482(%rip),%rax        # 12058 <g_132>
    9bd6:	48 89 85 28 ff ff ff 	mov    %rax,-0xd8(%rbp)
    9bdd:	48 8d 05 6c 84 00 00 	lea    0x846c(%rip),%rax        # 12050 <g_110>
    9be4:	48 89 85 30 ff ff ff 	mov    %rax,-0xd0(%rbp)
    9beb:	48 c7 85 38 ff ff ff 	movq   $0x0,-0xc8(%rbp)
    9bf2:	00 00 00 00 
    9bf6:	48 8d 85 20 e0 ff ff 	lea    -0x1fe0(%rbp),%rax
    9bfd:	48 89 85 40 ff ff ff 	mov    %rax,-0xc0(%rbp)
    9c04:	48 8d 85 a0 e8 ff ff 	lea    -0x1760(%rbp),%rax
    9c0b:	48 83 c0 34          	add    $0x34,%rax
    9c0f:	48 89 85 48 ff ff ff 	mov    %rax,-0xb8(%rbp)
    9c16:	48 8d 05 3b 84 00 00 	lea    0x843b(%rip),%rax        # 12058 <g_132>
    9c1d:	48 89 85 50 ff ff ff 	mov    %rax,-0xb0(%rbp)
    9c24:	48 8d 85 20 e0 ff ff 	lea    -0x1fe0(%rbp),%rax
    9c2b:	48 89 85 58 ff ff ff 	mov    %rax,-0xa8(%rbp)
    9c32:	48 8d 85 20 e0 ff ff 	lea    -0x1fe0(%rbp),%rax
    9c39:	48 89 85 60 ff ff ff 	mov    %rax,-0xa0(%rbp)
    9c40:	48 8d 85 a0 e8 ff ff 	lea    -0x1760(%rbp),%rax
    9c47:	48 05 38 01 00 00    	add    $0x138,%rax
    9c4d:	48 89 85 68 ff ff ff 	mov    %rax,-0x98(%rbp)
    9c54:	48 c7 85 70 ff ff ff 	movq   $0x0,-0x90(%rbp)
    9c5b:	00 00 00 00 
    9c5f:	48 c7 85 78 ff ff ff 	movq   $0x0,-0x88(%rbp)
    9c66:	00 00 00 00 
    9c6a:	48 c7 45 80 00 00 00 	movq   $0x0,-0x80(%rbp)
    9c71:	00 
    9c72:	48 8d 85 20 e0 ff ff 	lea    -0x1fe0(%rbp),%rax
    9c79:	48 89 45 88          	mov    %rax,-0x78(%rbp)
    9c7d:	48 8d 85 a0 e8 ff ff 	lea    -0x1760(%rbp),%rax
    9c84:	48 05 38 01 00 00    	add    $0x138,%rax
    9c8a:	48 89 45 90          	mov    %rax,-0x70(%rbp)
    9c8e:	48 8d 85 20 e0 ff ff 	lea    -0x1fe0(%rbp),%rax
    9c95:	48 89 45 98          	mov    %rax,-0x68(%rbp)
    9c99:	48 8d 05 b8 83 00 00 	lea    0x83b8(%rip),%rax        # 12058 <g_132>
    9ca0:	48 89 45 a0          	mov    %rax,-0x60(%rbp)
    9ca4:	48 8d 05 ad 83 00 00 	lea    0x83ad(%rip),%rax        # 12058 <g_132>
    9cab:	48 89 45 a8          	mov    %rax,-0x58(%rbp)
    9caf:	48 8d 85 a0 e8 ff ff 	lea    -0x1760(%rbp),%rax
    9cb6:	48 83 c0 34          	add    $0x34,%rax
    9cba:	48 89 45 b0          	mov    %rax,-0x50(%rbp)
    9cbe:	48 8d 05 93 83 00 00 	lea    0x8393(%rip),%rax        # 12058 <g_132>
    9cc5:	48 89 45 b8          	mov    %rax,-0x48(%rbp)
    9cc9:	c6 85 05 e0 ff ff 01 	movb   $0x1,-0x1ffb(%rbp)
    9cd0:	66 c7 85 08 e0 ff ff 	movw   $0x93d8,-0x1ff8(%rbp)
    9cd7:	d8 93 
    9cd9:	48 8d 05 88 ae 00 00 	lea    0xae88(%rip),%rax        # 14b68 <g_319>
    9ce0:	48 89 85 98 e1 ff ff 	mov    %rax,-0x1e68(%rbp)
    9ce7:	c7 85 80 e0 ff ff fd 	movl   $0x9fb792fd,-0x1f80(%rbp)
    9cee:	92 b7 9f 
    9cf1:	c7 85 84 e0 ff ff ff 	movl   $0xffffffff,-0x1f7c(%rbp)
    9cf8:	ff ff ff 
    9cfb:	66 c7 85 0a e0 ff ff 	movw   $0xbd8b,-0x1ff6(%rbp)
    9d02:	8b bd 
    9d04:	8b 85 18 e0 ff ff    	mov    -0x1fe8(%rbp),%eax
    9d0a:	89 c1                	mov    %eax,%ecx
    9d0c:	48 8b 95 18 e5 ff ff 	mov    -0x1ae8(%rbp),%rdx
    9d13:	48 8b 85 10 e5 ff ff 	mov    -0x1af0(%rbp),%rax
    9d1a:	48 39 c2             	cmp    %rax,%rdx
    9d1d:	0f 94 c0             	sete   %al
    9d20:	0f b6 c0             	movzbl %al,%eax
    9d23:	89 ce                	mov    %ecx,%esi
    9d25:	89 c7                	mov    %eax,%edi
    9d27:	e8 92 cf ff ff       	callq  6cbe <safe_rshift_func_uint8_t_u_u>
    9d2c:	89 c2                	mov    %eax,%edx
    9d2e:	48 8b 85 18 e1 ff ff 	mov    -0x1ee8(%rbp),%rax
    9d35:	0f b6 d2             	movzbl %dl,%edx
    9d38:	89 10                	mov    %edx,(%rax)
    9d3a:	bb 01 00 00 00       	mov    $0x1,%ebx
    9d3f:	8b 85 ec df ff ff    	mov    -0x2014(%rbp),%eax
    9d45:	0f b7 d0             	movzwl %ax,%edx
    9d48:	8b 05 ea 82 00 00    	mov    0x82ea(%rip),%eax        # 12038 <g_86>
    9d4e:	8b 85 18 e0 ff ff    	mov    -0x1fe8(%rbp),%eax
    9d54:	f7 d0                	not    %eax
    9d56:	c1 e8 1f             	shr    $0x1f,%eax
    9d59:	0f b6 c0             	movzbl %al,%eax
    9d5c:	89 d6                	mov    %edx,%esi
    9d5e:	89 c7                	mov    %eax,%edi
    9d60:	e8 9a cf ff ff       	callq  6cff <safe_add_func_uint16_t_u_u>
    9d65:	48 63 d3             	movslq %ebx,%rdx
    9d68:	48 8b 05 d9 82 00 00 	mov    0x82d9(%rip),%rax        # 12048 <g_106>
    9d6f:	48 31 d0             	xor    %rdx,%rax
    9d72:	48 89 05 cf 82 00 00 	mov    %rax,0x82cf(%rip)        # 12048 <g_106>
    9d79:	48 8b 05 c8 82 00 00 	mov    0x82c8(%rip),%rax        # 12048 <g_106>
    9d80:	48 8b 15 b9 82 00 00 	mov    0x82b9(%rip),%rdx        # 12040 <g_102>
    9d87:	48 21 d0             	and    %rdx,%rax
    9d8a:	48 85 c0             	test   %rax,%rax
    9d8d:	74 07                	je     9d96 <func_70+0x1bca>
    9d8f:	b8 01 00 00 00       	mov    $0x1,%eax
    9d94:	eb 05                	jmp    9d9b <func_70+0x1bcf>
    9d96:	b8 00 00 00 00       	mov    $0x0,%eax
    9d9b:	48 98                	cltq   
    9d9d:	be 00 00 00 00       	mov    $0x0,%esi
    9da2:	48 89 c7             	mov    %rax,%rdi
    9da5:	e8 84 d2 ff ff       	callq  702e <safe_add_func_uint64_t_u_u>
    9daa:	89 c2                	mov    %eax,%edx
    9dac:	8b 85 18 e0 ff ff    	mov    -0x1fe8(%rbp),%eax
    9db2:	85 c0                	test   %eax,%eax
    9db4:	75 0a                	jne    9dc0 <func_70+0x1bf4>
    9db6:	8b 85 18 e0 ff ff    	mov    -0x1fe8(%rbp),%eax
    9dbc:	85 c0                	test   %eax,%eax
    9dbe:	74 07                	je     9dc7 <func_70+0x1bfb>
    9dc0:	b8 01 00 00 00       	mov    $0x1,%eax
    9dc5:	eb 05                	jmp    9dcc <func_70+0x1c00>
    9dc7:	b8 00 00 00 00       	mov    $0x0,%eax
    9dcc:	89 d6                	mov    %edx,%esi
    9dce:	89 c7                	mov    %eax,%edi
    9dd0:	e8 2a c9 ff ff       	callq  66ff <safe_div_func_int32_t_s_s>
    9dd5:	85 c0                	test   %eax,%eax
    9dd7:	0f 84 7a 2d 00 00    	je     cb57 <func_70+0x498b>
    9ddd:	48 b8 01 05 01 01 05 	movabs $0x501010501010501,%rax
    9de4:	01 01 05 
    9de7:	48 89 85 10 e4 ff ff 	mov    %rax,-0x1bf0(%rbp)
    9dee:	c6 85 18 e4 ff ff 01 	movb   $0x1,-0x1be8(%rbp)
    9df5:	48 bb cf 00 cf cf 00 	movabs $0xcfcf00cfcf00cf,%rbx
    9dfc:	cf cf 00 
    9dff:	48 89 9d 19 e4 ff ff 	mov    %rbx,-0x1be7(%rbp)
    9e06:	c6 85 21 e4 ff ff cf 	movb   $0xcf,-0x1bdf(%rbp)
    9e0d:	48 89 85 22 e4 ff ff 	mov    %rax,-0x1bde(%rbp)
    9e14:	c6 85 2a e4 ff ff 01 	movb   $0x1,-0x1bd6(%rbp)
    9e1b:	48 89 9d 2b e4 ff ff 	mov    %rbx,-0x1bd5(%rbp)
    9e22:	c6 85 33 e4 ff ff cf 	movb   $0xcf,-0x1bcd(%rbp)
    9e29:	48 89 85 34 e4 ff ff 	mov    %rax,-0x1bcc(%rbp)
    9e30:	c6 85 3c e4 ff ff 01 	movb   $0x1,-0x1bc4(%rbp)
    9e37:	c7 85 90 e0 ff ff f9 	movl   $0xfffffff9,-0x1f70(%rbp)
    9e3e:	ff ff ff 
    9e41:	c7 85 24 e0 ff ff a6 	movl   $0xc9c96ba6,-0x1fdc(%rbp)
    9e48:	6b c9 c9 
    9e4b:	48 8d 05 ee 81 00 00 	lea    0x81ee(%rip),%rax        # 12040 <g_102>
    9e52:	48 89 85 30 e2 ff ff 	mov    %rax,-0x1dd0(%rbp)
    9e59:	48 c7 85 28 e1 ff ff 	movq   $0xffffffffffffffff,-0x1ed8(%rbp)
    9e60:	ff ff ff ff 
    9e64:	48 8d 05 07 83 00 00 	lea    0x8307(%rip),%rax        # 12172 <g_200>
    9e6b:	48 89 85 38 e2 ff ff 	mov    %rax,-0x1dc8(%rbp)
    9e72:	c7 85 94 e0 ff ff 02 	movl   $0x2,-0x1f6c(%rbp)
    9e79:	00 00 00 
    9e7c:	48 8d 85 10 e4 ff ff 	lea    -0x1bf0(%rbp),%rax
    9e83:	48 83 c0 12          	add    $0x12,%rax
    9e87:	48 89 85 40 e2 ff ff 	mov    %rax,-0x1dc0(%rbp)
    9e8e:	48 8d 85 a0 e8 ff ff 	lea    -0x1760(%rbp),%rax
    9e95:	48 05 28 01 00 00    	add    $0x128,%rax
    9e9b:	48 89 85 30 e1 ff ff 	mov    %rax,-0x1ed0(%rbp)
    9ea2:	48 8d 85 30 e1 ff ff 	lea    -0x1ed0(%rbp),%rax
    9ea9:	48 89 85 48 e2 ff ff 	mov    %rax,-0x1db8(%rbp)
    9eb0:	48 c7 85 68 e1 ff ff 	movq   $0x0,-0x1e98(%rbp)
    9eb7:	00 00 00 00 
    9ebb:	48 c7 85 50 e2 ff ff 	movq   $0xfffffffffffffffd,-0x1db0(%rbp)
    9ec2:	fd ff ff ff 
    9ec6:	48 8d 05 93 85 00 00 	lea    0x8593(%rip),%rax        # 12460 <g_389>
    9ecd:	48 89 85 58 e2 ff ff 	mov    %rax,-0x1da8(%rbp)
    9ed4:	c7 85 ec df ff ff 00 	movl   $0x0,-0x2014(%rbp)
    9edb:	00 00 00 
    9ede:	e9 60 2c 00 00       	jmpq   cb43 <func_70+0x4977>
    9ee3:	48 8d 05 64 ac 00 00 	lea    0xac64(%rip),%rax        # 14b4e <g_19+0x6>
    9eea:	48 89 85 38 e1 ff ff 	mov    %rax,-0x1ec8(%rbp)
    9ef1:	c7 85 98 e0 ff ff ff 	movl   $0xffffffff,-0x1f68(%rbp)
    9ef8:	ff ff ff 
    9efb:	48 8d 05 56 ac 00 00 	lea    0xac56(%rip),%rax        # 14b58 <g_104>
    9f02:	48 89 85 40 e1 ff ff 	mov    %rax,-0x1ec0(%rbp)
    9f09:	48 8d 05 48 ac 00 00 	lea    0xac48(%rip),%rax        # 14b58 <g_104>
    9f10:	48 89 85 80 e7 ff ff 	mov    %rax,-0x1880(%rbp)
    9f17:	48 8d 85 28 e1 ff ff 	lea    -0x1ed8(%rbp),%rax
    9f1e:	48 89 85 88 e7 ff ff 	mov    %rax,-0x1878(%rbp)
    9f25:	48 8d 05 2c ac 00 00 	lea    0xac2c(%rip),%rax        # 14b58 <g_104>
    9f2c:	48 89 85 90 e7 ff ff 	mov    %rax,-0x1870(%rbp)
    9f33:	48 8d 05 06 81 00 00 	lea    0x8106(%rip),%rax        # 12040 <g_102>
    9f3a:	48 89 85 98 e7 ff ff 	mov    %rax,-0x1868(%rbp)
    9f41:	48 8d 05 f8 80 00 00 	lea    0x80f8(%rip),%rax        # 12040 <g_102>
    9f48:	48 89 85 a0 e7 ff ff 	mov    %rax,-0x1860(%rbp)
    9f4f:	48 8d 05 ea 80 00 00 	lea    0x80ea(%rip),%rax        # 12040 <g_102>
    9f56:	48 89 85 a8 e7 ff ff 	mov    %rax,-0x1858(%rbp)
    9f5d:	48 8d 05 dc 80 00 00 	lea    0x80dc(%rip),%rax        # 12040 <g_102>
    9f64:	48 89 85 b0 e7 ff ff 	mov    %rax,-0x1850(%rbp)
    9f6b:	48 8d 05 e6 ab 00 00 	lea    0xabe6(%rip),%rax        # 14b58 <g_104>
    9f72:	48 89 85 b8 e7 ff ff 	mov    %rax,-0x1848(%rbp)
    9f79:	48 8d 85 28 e1 ff ff 	lea    -0x1ed8(%rbp),%rax
    9f80:	48 89 85 c0 e7 ff ff 	mov    %rax,-0x1840(%rbp)
    9f87:	48 8d 05 ca ab 00 00 	lea    0xabca(%rip),%rax        # 14b58 <g_104>
    9f8e:	48 89 85 c8 e7 ff ff 	mov    %rax,-0x1838(%rbp)
    9f95:	48 8d 05 a4 80 00 00 	lea    0x80a4(%rip),%rax        # 12040 <g_102>
    9f9c:	48 89 85 d0 e7 ff ff 	mov    %rax,-0x1830(%rbp)
    9fa3:	48 8d 05 96 80 00 00 	lea    0x8096(%rip),%rax        # 12040 <g_102>
    9faa:	48 89 85 d8 e7 ff ff 	mov    %rax,-0x1828(%rbp)
    9fb1:	48 8d 05 88 80 00 00 	lea    0x8088(%rip),%rax        # 12040 <g_102>
    9fb8:	48 89 85 e0 e7 ff ff 	mov    %rax,-0x1820(%rbp)
    9fbf:	48 8d 05 7a 80 00 00 	lea    0x807a(%rip),%rax        # 12040 <g_102>
    9fc6:	48 89 85 e8 e7 ff ff 	mov    %rax,-0x1818(%rbp)
    9fcd:	48 8d 05 84 ab 00 00 	lea    0xab84(%rip),%rax        # 14b58 <g_104>
    9fd4:	48 89 85 f0 e7 ff ff 	mov    %rax,-0x1810(%rbp)
    9fdb:	48 8d 85 28 e1 ff ff 	lea    -0x1ed8(%rbp),%rax
    9fe2:	48 89 85 f8 e7 ff ff 	mov    %rax,-0x1808(%rbp)
    9fe9:	48 8d 05 68 ab 00 00 	lea    0xab68(%rip),%rax        # 14b58 <g_104>
    9ff0:	48 89 85 00 e8 ff ff 	mov    %rax,-0x1800(%rbp)
    9ff7:	48 8d 05 42 80 00 00 	lea    0x8042(%rip),%rax        # 12040 <g_102>
    9ffe:	48 89 85 08 e8 ff ff 	mov    %rax,-0x17f8(%rbp)
    a005:	48 8d 05 34 80 00 00 	lea    0x8034(%rip),%rax        # 12040 <g_102>
    a00c:	48 89 85 10 e8 ff ff 	mov    %rax,-0x17f0(%rbp)
    a013:	48 8d 05 26 80 00 00 	lea    0x8026(%rip),%rax        # 12040 <g_102>
    a01a:	48 89 85 18 e8 ff ff 	mov    %rax,-0x17e8(%rbp)
    a021:	48 8d 05 18 80 00 00 	lea    0x8018(%rip),%rax        # 12040 <g_102>
    a028:	48 89 85 20 e8 ff ff 	mov    %rax,-0x17e0(%rbp)
    a02f:	48 8d 05 22 ab 00 00 	lea    0xab22(%rip),%rax        # 14b58 <g_104>
    a036:	48 89 85 28 e8 ff ff 	mov    %rax,-0x17d8(%rbp)
    a03d:	48 8d 85 28 e1 ff ff 	lea    -0x1ed8(%rbp),%rax
    a044:	48 89 85 30 e8 ff ff 	mov    %rax,-0x17d0(%rbp)
    a04b:	48 8d 05 06 ab 00 00 	lea    0xab06(%rip),%rax        # 14b58 <g_104>
    a052:	48 89 85 38 e8 ff ff 	mov    %rax,-0x17c8(%rbp)
    a059:	48 8d 05 e0 7f 00 00 	lea    0x7fe0(%rip),%rax        # 12040 <g_102>
    a060:	48 89 85 40 e8 ff ff 	mov    %rax,-0x17c0(%rbp)
    a067:	48 8d 05 d2 7f 00 00 	lea    0x7fd2(%rip),%rax        # 12040 <g_102>
    a06e:	48 89 85 48 e8 ff ff 	mov    %rax,-0x17b8(%rbp)
    a075:	48 8d 05 c4 7f 00 00 	lea    0x7fc4(%rip),%rax        # 12040 <g_102>
    a07c:	48 89 85 50 e8 ff ff 	mov    %rax,-0x17b0(%rbp)
    a083:	48 8d 05 b6 7f 00 00 	lea    0x7fb6(%rip),%rax        # 12040 <g_102>
    a08a:	48 89 85 58 e8 ff ff 	mov    %rax,-0x17a8(%rbp)
    a091:	48 8d 05 c0 aa 00 00 	lea    0xaac0(%rip),%rax        # 14b58 <g_104>
    a098:	48 89 85 60 e8 ff ff 	mov    %rax,-0x17a0(%rbp)
    a09f:	48 8d 85 28 e1 ff ff 	lea    -0x1ed8(%rbp),%rax
    a0a6:	48 89 85 68 e8 ff ff 	mov    %rax,-0x1798(%rbp)
    a0ad:	48 8d 05 a4 aa 00 00 	lea    0xaaa4(%rip),%rax        # 14b58 <g_104>
    a0b4:	48 89 85 70 e8 ff ff 	mov    %rax,-0x1790(%rbp)
    a0bb:	48 8d 05 7e 7f 00 00 	lea    0x7f7e(%rip),%rax        # 12040 <g_102>
    a0c2:	48 89 85 78 e8 ff ff 	mov    %rax,-0x1788(%rbp)
    a0c9:	48 8d 05 70 7f 00 00 	lea    0x7f70(%rip),%rax        # 12040 <g_102>
    a0d0:	48 89 85 80 e8 ff ff 	mov    %rax,-0x1780(%rbp)
    a0d7:	48 8d 05 62 7f 00 00 	lea    0x7f62(%rip),%rax        # 12040 <g_102>
    a0de:	48 89 85 88 e8 ff ff 	mov    %rax,-0x1778(%rbp)
    a0e5:	48 8d 05 54 7f 00 00 	lea    0x7f54(%rip),%rax        # 12040 <g_102>
    a0ec:	48 89 85 90 e8 ff ff 	mov    %rax,-0x1770(%rbp)
    a0f3:	c7 85 70 e4 ff ff 01 	movl   $0x1,-0x1b90(%rbp)
    a0fa:	00 00 00 
    a0fd:	c7 85 74 e4 ff ff 43 	movl   $0x38d42343,-0x1b8c(%rbp)
    a104:	23 d4 38 
    a107:	c7 85 78 e4 ff ff 43 	movl   $0x38d42343,-0x1b88(%rbp)
    a10e:	23 d4 38 
    a111:	c7 85 7c e4 ff ff 01 	movl   $0x1,-0x1b84(%rbp)
    a118:	00 00 00 
    a11b:	c7 85 80 e4 ff ff 43 	movl   $0x38d42343,-0x1b80(%rbp)
    a122:	23 d4 38 
    a125:	c7 85 84 e4 ff ff 43 	movl   $0x38d42343,-0x1b7c(%rbp)
    a12c:	23 d4 38 
    a12f:	c7 85 88 e4 ff ff 01 	movl   $0x1,-0x1b78(%rbp)
    a136:	00 00 00 
    a139:	c7 85 8c e4 ff ff 16 	movl   $0x6fffe616,-0x1b74(%rbp)
    a140:	e6 ff 6f 
    a143:	c7 85 90 e4 ff ff 07 	movl   $0x7,-0x1b70(%rbp)
    a14a:	00 00 00 
    a14d:	c7 85 94 e4 ff ff 16 	movl   $0x6fffe616,-0x1b6c(%rbp)
    a154:	e6 ff 6f 
    a157:	c7 85 98 e4 ff ff 16 	movl   $0x6fffe616,-0x1b68(%rbp)
    a15e:	e6 ff 6f 
    a161:	c7 85 9c e4 ff ff 07 	movl   $0x7,-0x1b64(%rbp)
    a168:	00 00 00 
    a16b:	c7 85 a0 e4 ff ff 16 	movl   $0x6fffe616,-0x1b60(%rbp)
    a172:	e6 ff 6f 
    a175:	c7 85 a4 e4 ff ff 16 	movl   $0x6fffe616,-0x1b5c(%rbp)
    a17c:	e6 ff 6f 
    a17f:	48 c7 85 48 e1 ff ff 	movq   $0x1,-0x1eb8(%rbp)
    a186:	01 00 00 00 
    a18a:	48 8d 85 40 e4 ff ff 	lea    -0x1bc0(%rbp),%rax
    a191:	48 83 c0 20          	add    $0x20,%rax
    a195:	48 89 85 60 e2 ff ff 	mov    %rax,-0x1da0(%rbp)
    a19c:	48 8d 05 b1 a9 00 00 	lea    0xa9b1(%rip),%rax        # 14b54 <g_67>
    a1a3:	48 89 85 68 e2 ff ff 	mov    %rax,-0x1d98(%rbp)
    a1aa:	48 c7 85 70 e2 ff ff 	movq   $0xffffffffffffffff,-0x1d90(%rbp)
    a1b1:	ff ff ff ff 
    a1b5:	48 8d 85 04 e0 ff ff 	lea    -0x1ffc(%rbp),%rax
    a1bc:	48 89 85 78 e2 ff ff 	mov    %rax,-0x1d88(%rbp)
    a1c3:	c7 85 34 e0 ff ff 00 	movl   $0x0,-0x1fcc(%rbp)
    a1ca:	00 00 00 
    a1cd:	eb 1e                	jmp    a1ed <func_70+0x2021>
    a1cf:	8b 85 34 e0 ff ff    	mov    -0x1fcc(%rbp),%eax
    a1d5:	48 98                	cltq   
    a1d7:	48 8d 15 7a 7e 00 00 	lea    0x7e7a(%rip),%rdx        # 12058 <g_132>
    a1de:	48 89 94 c5 40 e4 ff 	mov    %rdx,-0x1bc0(%rbp,%rax,8)
    a1e5:	ff 
    a1e6:	83 85 34 e0 ff ff 01 	addl   $0x1,-0x1fcc(%rbp)
    a1ed:	83 bd 34 e0 ff ff 05 	cmpl   $0x5,-0x1fcc(%rbp)
    a1f4:	7e d9                	jle    a1cf <func_70+0x2003>
    a1f6:	48 c7 05 47 7e 00 00 	movq   $0x0,0x7e47(%rip)        # 12048 <g_106>
    a1fd:	00 00 00 00 
    a201:	eb 6b                	jmp    a26e <func_70+0x20a2>
    a203:	c7 85 58 e1 ff ff b8 	movl   $0x512995b8,-0x1ea8(%rbp)
    a20a:	95 29 51 
    a20d:	48 8d 85 58 e1 ff ff 	lea    -0x1ea8(%rbp),%rax
    a214:	48 89 85 60 e1 ff ff 	mov    %rax,-0x1ea0(%rbp)
    a21b:	c7 85 38 e0 ff ff 00 	movl   $0x0,-0x1fc8(%rbp)
    a222:	00 00 00 
    a225:	eb 1e                	jmp    a245 <func_70+0x2079>
    a227:	8b 85 38 e0 ff ff    	mov    -0x1fc8(%rbp),%eax
    a22d:	48 98                	cltq   
    a22f:	48 8d 95 60 e1 ff ff 	lea    -0x1ea0(%rbp),%rdx
    a236:	48 89 94 c5 50 f0 ff 	mov    %rdx,-0xfb0(%rbp,%rax,8)
    a23d:	ff 
    a23e:	83 85 38 e0 ff ff 01 	addl   $0x1,-0x1fc8(%rbp)
    a245:	83 bd 38 e0 ff ff 02 	cmpl   $0x2,-0x1fc8(%rbp)
    a24c:	7e d9                	jle    a227 <func_70+0x205b>
    a24e:	48 8d 05 03 7e 00 00 	lea    0x7e03(%rip),%rax        # 12058 <g_132>
    a255:	48 89 85 f8 df ff ff 	mov    %rax,-0x2008(%rbp)
    a25c:	48 8b 05 e5 7d 00 00 	mov    0x7de5(%rip),%rax        # 12048 <g_106>
    a263:	48 83 c0 01          	add    $0x1,%rax
    a267:	48 89 05 da 7d 00 00 	mov    %rax,0x7dda(%rip)        # 12048 <g_106>
    a26e:	48 8b 05 d3 7d 00 00 	mov    0x7dd3(%rip),%rax        # 12048 <g_106>
    a275:	48 83 f8 07          	cmp    $0x7,%rax
    a279:	76 88                	jbe    a203 <func_70+0x2037>
    a27b:	48 8b 85 38 e1 ff ff 	mov    -0x1ec8(%rbp),%rax
    a282:	48 85 c0             	test   %rax,%rax
    a285:	0f 85 cc 02 00 00    	jne    a557 <func_70+0x238b>
    a28b:	48 8d 05 be 7d 00 00 	lea    0x7dbe(%rip),%rax        # 12050 <g_110>
    a292:	48 89 85 60 e1 ff ff 	mov    %rax,-0x1ea0(%rbp)
    a299:	48 8d 85 60 e1 ff ff 	lea    -0x1ea0(%rbp),%rax
    a2a0:	48 89 85 10 e3 ff ff 	mov    %rax,-0x1cf0(%rbp)
    a2a7:	48 8d 05 a2 7d 00 00 	lea    0x7da2(%rip),%rax        # 12050 <g_110>
    a2ae:	48 89 85 18 e3 ff ff 	mov    %rax,-0x1ce8(%rbp)
    a2b5:	48 8d 95 50 f0 ff ff 	lea    -0xfb0(%rbp),%rdx
    a2bc:	b8 00 00 00 00       	mov    $0x0,%eax
    a2c1:	b9 10 00 00 00       	mov    $0x10,%ecx
    a2c6:	48 89 d7             	mov    %rdx,%rdi
    a2c9:	f3 48 ab             	rep stos %rax,%es:(%rdi)
    a2cc:	48 8b 85 10 e3 ff ff 	mov    -0x1cf0(%rbp),%rax
    a2d3:	48 c7 00 00 00 00 00 	movq   $0x0,(%rax)
    a2da:	0f b6 85 04 e0 ff ff 	movzbl -0x1ffc(%rbp),%eax
    a2e1:	83 e8 01             	sub    $0x1,%eax
    a2e4:	88 85 04 e0 ff ff    	mov    %al,-0x1ffc(%rbp)
    a2ea:	48 8b 05 8f 99 00 00 	mov    0x998f(%rip),%rax        # 13c80 <g_109>
    a2f1:	c7 00 38 bb e3 bf    	movl   $0xbfe3bb38,(%rax)
    a2f7:	48 c7 05 46 7d 00 00 	movq   $0x0,0x7d46(%rip)        # 12048 <g_106>
    a2fe:	00 00 00 00 
    a302:	e9 3a 02 00 00       	jmpq   a541 <func_70+0x2375>
    a307:	48 8d 05 52 7d 00 00 	lea    0x7d52(%rip),%rax        # 12060 <g_169>
    a30e:	48 89 85 20 e3 ff ff 	mov    %rax,-0x1ce0(%rbp)
    a315:	48 8d 85 04 e0 ff ff 	lea    -0x1ffc(%rbp),%rax
    a31c:	48 89 85 28 e3 ff ff 	mov    %rax,-0x1cd8(%rbp)
    a323:	c7 85 3c e0 ff ff 00 	movl   $0x0,-0x1fc4(%rbp)
    a32a:	00 00 00 
    a32d:	eb 51                	jmp    a380 <func_70+0x21b4>
    a32f:	c7 85 40 e0 ff ff 00 	movl   $0x0,-0x1fc0(%rbp)
    a336:	00 00 00 
    a339:	eb 35                	jmp    a370 <func_70+0x21a4>
    a33b:	8b 85 40 e0 ff ff    	mov    -0x1fc0(%rbp),%eax
    a341:	48 63 c8             	movslq %eax,%rcx
    a344:	8b 85 3c e0 ff ff    	mov    -0x1fc4(%rbp),%eax
    a34a:	48 63 d0             	movslq %eax,%rdx
    a34d:	48 89 d0             	mov    %rdx,%rax
    a350:	48 01 c0             	add    %rax,%rax
    a353:	48 01 d0             	add    %rdx,%rax
    a356:	48 8d 14 08          	lea    (%rax,%rcx,1),%rdx
    a35a:	48 8d 85 40 e1 ff ff 	lea    -0x1ec0(%rbp),%rax
    a361:	48 89 84 d5 90 e6 ff 	mov    %rax,-0x1970(%rbp,%rdx,8)
    a368:	ff 
    a369:	83 85 40 e0 ff ff 01 	addl   $0x1,-0x1fc0(%rbp)
    a370:	83 bd 40 e0 ff ff 02 	cmpl   $0x2,-0x1fc0(%rbp)
    a377:	7e c2                	jle    a33b <func_70+0x216f>
    a379:	83 85 3c e0 ff ff 01 	addl   $0x1,-0x1fc4(%rbp)
    a380:	83 bd 3c e0 ff ff 00 	cmpl   $0x0,-0x1fc4(%rbp)
    a387:	7e a6                	jle    a32f <func_70+0x2163>
    a389:	8b 85 f0 df ff ff    	mov    -0x2010(%rbp),%eax
    a38f:	0f b7 d8             	movzwl %ax,%ebx
    a392:	0f b6 85 04 e0 ff ff 	movzbl -0x1ffc(%rbp),%eax
    a399:	0f b6 c0             	movzbl %al,%eax
    a39c:	be 01 00 00 00       	mov    $0x1,%esi
    a3a1:	89 c7                	mov    %eax,%edi
    a3a3:	e8 5d c8 ff ff       	callq  6c05 <safe_lshift_func_uint8_t_u_s>
    a3a8:	0f b6 05 a5 a7 00 00 	movzbl 0xa7a5(%rip),%eax        # 14b54 <g_67>
    a3af:	44 0f be e0          	movsbl %al,%r12d
    a3b3:	0f b6 05 9a a7 00 00 	movzbl 0xa79a(%rip),%eax        # 14b54 <g_67>
    a3ba:	44 0f be e8          	movsbl %al,%r13d
    a3be:	8b 05 74 7c 00 00    	mov    0x7c74(%rip),%eax        # 12038 <g_86>
    a3c4:	c1 e0 05             	shl    $0x5,%eax
    a3c7:	66 c1 f8 05          	sar    $0x5,%ax
    a3cb:	0f b7 c0             	movzwl %ax,%eax
    a3ce:	be 01 00 00 00       	mov    $0x1,%esi
    a3d3:	89 c7                	mov    %eax,%edi
    a3d5:	e8 b4 c9 ff ff       	callq  6d8e <safe_div_func_uint16_t_u_u>
    a3da:	48 8d 85 ec df ff ff 	lea    -0x2014(%rbp),%rax
    a3e1:	48 39 85 20 e3 ff ff 	cmp    %rax,-0x1ce0(%rbp)
    a3e8:	0f 94 c0             	sete   %al
    a3eb:	0f b6 d0             	movzbl %al,%edx
    a3ee:	48 8b 05 53 7c 00 00 	mov    0x7c53(%rip),%rax        # 12048 <g_106>
    a3f5:	48 39 c2             	cmp    %rax,%rdx
    a3f8:	0f 97 c0             	seta   %al
    a3fb:	0f b6 c0             	movzbl %al,%eax
    a3fe:	be fb 00 00 00       	mov    $0xfb,%esi
    a403:	89 c7                	mov    %eax,%edi
    a405:	e8 50 c7 ff ff       	callq  6b5a <safe_add_func_uint8_t_u_u>
    a40a:	48 8b 85 40 e1 ff ff 	mov    -0x1ec0(%rbp),%rax
    a411:	48 89 85 30 e2 ff ff 	mov    %rax,-0x1dd0(%rbp)
    a418:	48 8b 85 50 e8 ff ff 	mov    -0x17b0(%rbp),%rax
    a41f:	48 39 85 30 e2 ff ff 	cmp    %rax,-0x1dd0(%rbp)
    a426:	0f 94 c0             	sete   %al
    a429:	0f b6 c0             	movzbl %al,%eax
    a42c:	44 89 ee             	mov    %r13d,%esi
    a42f:	89 c7                	mov    %eax,%edi
    a431:	e8 6b be ff ff       	callq  62a1 <safe_lshift_func_int8_t_s_s>
    a436:	3c 03                	cmp    $0x3,%al
    a438:	0f 97 c0             	seta   %al
    a43b:	0f b6 d0             	movzbl %al,%edx
    a43e:	8b 85 98 e0 ff ff    	mov    -0x1f68(%rbp),%eax
    a444:	89 d6                	mov    %edx,%esi
    a446:	89 c7                	mov    %eax,%edi
    a448:	e8 b8 c1 ff ff       	callq  6605 <safe_sub_func_int32_t_s_s>
    a44d:	0f b6 c0             	movzbl %al,%eax
    a450:	44 89 e6             	mov    %r12d,%esi
    a453:	89 c7                	mov    %eax,%edi
    a455:	e8 33 c8 ff ff       	callq  6c8d <safe_rshift_func_uint8_t_u_s>
    a45a:	0f b6 c0             	movzbl %al,%eax
    a45d:	89 de                	mov    %ebx,%esi
    a45f:	89 c7                	mov    %eax,%edi
    a461:	e8 d7 c8 ff ff       	callq  6d3d <safe_mul_func_uint16_t_u_u>
    a466:	66 3d fc ea          	cmp    $0xeafc,%ax
    a46a:	0f 96 c0             	setbe  %al
    a46d:	0f b6 d0             	movzbl %al,%edx
    a470:	8b 85 f0 df ff ff    	mov    -0x2010(%rbp),%eax
    a476:	98                   	cwtl   
    a477:	89 d6                	mov    %edx,%esi
    a479:	89 c7                	mov    %eax,%edi
    a47b:	e8 12 c0 ff ff       	callq  6492 <safe_lshift_func_int16_t_s_s>
    a480:	66 85 c0             	test   %ax,%ax
    a483:	74 08                	je     a48d <func_70+0x22c1>
    a485:	8b 85 f0 df ff ff    	mov    -0x2010(%rbp),%eax
    a48b:	85 c0                	test   %eax,%eax
    a48d:	b8 b0 45 3e 98       	mov    $0x983e45b0,%eax
    a492:	89 c2                	mov    %eax,%edx
    a494:	8b 05 b6 7b 00 00    	mov    0x7bb6(%rip),%eax        # 12050 <g_110>
    a49a:	31 d0                	xor    %edx,%eax
    a49c:	89 05 ae 7b 00 00    	mov    %eax,0x7bae(%rip)        # 12050 <g_110>
    a4a2:	48 8b 85 28 e3 ff ff 	mov    -0x1cd8(%rbp),%rax
    a4a9:	0f b6 00             	movzbl (%rax),%eax
    a4ac:	8d 50 01             	lea    0x1(%rax),%edx
    a4af:	48 8b 85 28 e3 ff ff 	mov    -0x1cd8(%rbp),%rax
    a4b6:	88 10                	mov    %dl,(%rax)
    a4b8:	48 8b 85 10 e3 ff ff 	mov    -0x1cf0(%rbp),%rax
    a4bf:	48 8b 10             	mov    (%rax),%rdx
    a4c2:	48 8b 85 10 e3 ff ff 	mov    -0x1cf0(%rbp),%rax
    a4c9:	48 89 10             	mov    %rdx,(%rax)
    a4cc:	c7 05 7a 7b 00 00 00 	movl   $0x0,0x7b7a(%rip)        # 12050 <g_110>
    a4d3:	00 00 00 
    a4d6:	eb 4a                	jmp    a522 <func_70+0x2356>
    a4d8:	0f b6 85 35 e4 ff ff 	movzbl -0x1bcb(%rbp),%eax
    a4df:	0f b6 c0             	movzbl %al,%eax
    a4e2:	89 05 70 7b 00 00    	mov    %eax,0x7b70(%rip)        # 12058 <g_132>
    a4e8:	48 8b 85 10 e3 ff ff 	mov    -0x1cf0(%rbp),%rax
    a4ef:	48 8b 95 f8 df ff ff 	mov    -0x2008(%rbp),%rdx
    a4f6:	48 89 10             	mov    %rdx,(%rax)
    a4f9:	48 8b 05 80 97 00 00 	mov    0x9780(%rip),%rax        # 13c80 <g_109>
    a500:	8b 00                	mov    (%rax),%eax
    a502:	85 c0                	test   %eax,%eax
    a504:	75 0c                	jne    a512 <func_70+0x2346>
    a506:	8b 85 f4 df ff ff    	mov    -0x200c(%rbp),%eax
    a50c:	85 c0                	test   %eax,%eax
    a50e:	75 1e                	jne    a52e <func_70+0x2362>
    a510:	eb 01                	jmp    a513 <func_70+0x2347>
    a512:	90                   	nop
    a513:	8b 05 37 7b 00 00    	mov    0x7b37(%rip),%eax        # 12050 <g_110>
    a519:	83 e8 01             	sub    $0x1,%eax
    a51c:	89 05 2e 7b 00 00    	mov    %eax,0x7b2e(%rip)        # 12050 <g_110>
    a522:	8b 05 28 7b 00 00    	mov    0x7b28(%rip),%eax        # 12050 <g_110>
    a528:	85 c0                	test   %eax,%eax
    a52a:	79 ac                	jns    a4d8 <func_70+0x230c>
    a52c:	eb 01                	jmp    a52f <func_70+0x2363>
    a52e:	90                   	nop
    a52f:	48 8b 05 12 7b 00 00 	mov    0x7b12(%rip),%rax        # 12048 <g_106>
    a536:	48 83 c0 01          	add    $0x1,%rax
    a53a:	48 89 05 07 7b 00 00 	mov    %rax,0x7b07(%rip)        # 12048 <g_106>
    a541:	48 8b 05 00 7b 00 00 	mov    0x7b00(%rip),%rax        # 12048 <g_106>
    a548:	48 83 f8 07          	cmp    $0x7,%rax
    a54c:	0f 86 b5 fd ff ff    	jbe    a307 <func_70+0x213b>
    a552:	e9 24 1e 00 00       	jmpq   c37b <func_70+0x41af>
    a557:	48 8d 05 f2 7a 00 00 	lea    0x7af2(%rip),%rax        # 12050 <g_110>
    a55e:	48 89 85 80 e2 ff ff 	mov    %rax,-0x1d80(%rbp)
    a565:	48 8d 05 b0 7b 00 00 	lea    0x7bb0(%rip),%rax        # 1211c <g_180+0x9c>
    a56c:	48 89 85 88 e2 ff ff 	mov    %rax,-0x1d78(%rbp)
    a573:	48 b8 93 01 0f d0 5e 	movabs $0x9d9afa5ed00f0193,%rax
    a57a:	fa 9a 9d 
    a57d:	48 89 85 90 e2 ff ff 	mov    %rax,-0x1d70(%rbp)
    a584:	c7 85 40 e5 ff ff 77 	movl   $0xcb152677,-0x1ac0(%rbp)
    a58b:	26 15 cb 
    a58e:	c7 85 44 e5 ff ff 77 	movl   $0xcb152677,-0x1abc(%rbp)
    a595:	26 15 cb 
    a598:	c7 85 48 e5 ff ff 77 	movl   $0xcb152677,-0x1ab8(%rbp)
    a59f:	26 15 cb 
    a5a2:	c7 85 4c e5 ff ff 77 	movl   $0xcb152677,-0x1ab4(%rbp)
    a5a9:	26 15 cb 
    a5ac:	c7 85 50 e5 ff ff 77 	movl   $0xcb152677,-0x1ab0(%rbp)
    a5b3:	26 15 cb 
    a5b6:	c7 85 54 e5 ff ff 77 	movl   $0xcb152677,-0x1aac(%rbp)
    a5bd:	26 15 cb 
    a5c0:	c7 85 58 e5 ff ff 77 	movl   $0xcb152677,-0x1aa8(%rbp)
    a5c7:	26 15 cb 
    a5ca:	c7 85 5c e5 ff ff 77 	movl   $0xcb152677,-0x1aa4(%rbp)
    a5d1:	26 15 cb 
    a5d4:	c7 85 60 e5 ff ff 77 	movl   $0xcb152677,-0x1aa0(%rbp)
    a5db:	26 15 cb 
    a5de:	c7 85 64 e5 ff ff 77 	movl   $0xcb152677,-0x1a9c(%rbp)
    a5e5:	26 15 cb 
    a5e8:	48 8d 85 04 e0 ff ff 	lea    -0x1ffc(%rbp),%rax
    a5ef:	48 89 85 50 e1 ff ff 	mov    %rax,-0x1eb0(%rbp)
    a5f6:	48 8b 85 80 e2 ff ff 	mov    -0x1d80(%rbp),%rax
    a5fd:	c7 00 d0 a9 5b 6e    	movl   $0x6e5ba9d0,(%rax)
    a603:	48 8b 85 88 e2 ff ff 	mov    -0x1d78(%rbp),%rax
    a60a:	0f b7 00             	movzwl (%rax),%eax
    a60d:	66 25 8e 78          	and    $0x788e,%ax
    a611:	89 c2                	mov    %eax,%edx
    a613:	48 8b 85 88 e2 ff ff 	mov    -0x1d78(%rbp),%rax
    a61a:	66 89 10             	mov    %dx,(%rax)
    a61d:	48 8b 85 88 e2 ff ff 	mov    -0x1d78(%rbp),%rax
    a624:	0f b7 00             	movzwl (%rax),%eax
    a627:	44 0f b7 e0          	movzwl %ax,%r12d
    a62b:	8b 9d 98 e0 ff ff    	mov    -0x1f68(%rbp),%ebx
    a631:	8b 85 f4 df ff ff    	mov    -0x200c(%rbp),%eax
    a637:	85 c0                	test   %eax,%eax
    a639:	75 5a                	jne    a695 <func_70+0x24c9>
    a63b:	8b 85 f4 df ff ff    	mov    -0x200c(%rbp),%eax
    a641:	85 c0                	test   %eax,%eax
    a643:	75 23                	jne    a668 <func_70+0x249c>
    a645:	48 8d 85 04 e0 ff ff 	lea    -0x1ffc(%rbp),%rax
    a64c:	48 89 05 35 96 00 00 	mov    %rax,0x9635(%rip)        # 13c88 <g_191>
    a653:	8b 85 f0 df ff ff    	mov    -0x2010(%rbp),%eax
    a659:	83 f8 01             	cmp    $0x1,%eax
    a65c:	75 0a                	jne    a668 <func_70+0x249c>
    a65e:	8b 85 f0 df ff ff    	mov    -0x2010(%rbp),%eax
    a664:	85 c0                	test   %eax,%eax
    a666:	74 07                	je     a66f <func_70+0x24a3>
    a668:	b8 01 00 00 00       	mov    $0x1,%eax
    a66d:	eb 05                	jmp    a674 <func_70+0x24a8>
    a66f:	b8 00 00 00 00       	mov    $0x0,%eax
    a674:	89 c6                	mov    %eax,%esi
    a676:	bf 74 01 00 00       	mov    $0x174,%edi
    a67b:	e8 e3 be ff ff       	callq  6563 <safe_rshift_func_int16_t_s_u>
    a680:	89 c2                	mov    %eax,%edx
    a682:	0f b7 05 d3 79 00 00 	movzwl 0x79d3(%rip),%eax        # 1205c <g_135>
    a689:	c1 e0 05             	shl    $0x5,%eax
    a68c:	66 c1 f8 05          	sar    $0x5,%ax
    a690:	66 39 c2             	cmp    %ax,%dx
    a693:	7c 07                	jl     a69c <func_70+0x24d0>
    a695:	b8 01 00 00 00       	mov    $0x1,%eax
    a69a:	eb 05                	jmp    a6a1 <func_70+0x24d5>
    a69c:	b8 00 00 00 00       	mov    $0x0,%eax
    a6a1:	89 c6                	mov    %eax,%esi
    a6a3:	bf 92 86 00 00       	mov    $0x8692,%edi
    a6a8:	e8 11 c7 ff ff       	callq  6dbe <safe_lshift_func_uint16_t_u_s>
    a6ad:	0f b7 c0             	movzwl %ax,%eax
    a6b0:	89 de                	mov    %ebx,%esi
    a6b2:	89 c7                	mov    %eax,%edi
    a6b4:	e8 17 c8 ff ff       	callq  6ed0 <safe_sub_func_uint32_t_u_u>
    a6b9:	89 c7                	mov    %eax,%edi
    a6bb:	e8 e6 c7 ff ff       	callq  6ea6 <safe_unary_minus_func_uint32_t_u>
    a6c0:	0f b6 c0             	movzbl %al,%eax
    a6c3:	be f7 00 00 00       	mov    $0xf7,%esi
    a6c8:	89 c7                	mov    %eax,%edi
    a6ca:	e8 df c4 ff ff       	callq  6bae <safe_mod_func_uint8_t_u_u>
    a6cf:	c7 85 d8 e9 ff ff 00 	movl   $0x0,-0x1628(%rbp)
    a6d6:	00 00 00 
    a6d9:	8b 85 d8 e9 ff ff    	mov    -0x1628(%rbp),%eax
    a6df:	44 21 e0             	and    %r12d,%eax
    a6e2:	85 c0                	test   %eax,%eax
    a6e4:	0f 84 a9 19 00 00    	je     c093 <func_70+0x3ec7>
    a6ea:	48 c7 85 58 e1 ff ff 	movq   $0xfffffffffffffff8,-0x1ea8(%rbp)
    a6f1:	f8 ff ff ff 
    a6f5:	48 8d 05 4c 79 00 00 	lea    0x794c(%rip),%rax        # 12048 <g_106>
    a6fc:	48 89 85 60 e1 ff ff 	mov    %rax,-0x1ea0(%rbp)
    a703:	c7 85 28 e0 ff ff aa 	movl   $0xe9decbaa,-0x1fd8(%rbp)
    a70a:	cb de e9 
    a70d:	c7 85 2c e0 ff ff 79 	movl   $0x54994f79,-0x1fd4(%rbp)
    a714:	4f 99 54 
    a717:	48 c7 85 a0 e5 ff ff 	movq   $0x6,-0x1a60(%rbp)
    a71e:	06 00 00 00 
    a722:	48 c7 85 a8 e5 ff ff 	movq   $0xffffffffffffffff,-0x1a58(%rbp)
    a729:	ff ff ff ff 
    a72d:	48 c7 85 b0 e5 ff ff 	movq   $0x6,-0x1a50(%rbp)
    a734:	06 00 00 00 
    a738:	48 c7 85 b8 e5 ff ff 	movq   $0xffffffffffffffff,-0x1a48(%rbp)
    a73f:	ff ff ff ff 
    a743:	48 c7 85 c0 e5 ff ff 	movq   $0x6,-0x1a40(%rbp)
    a74a:	06 00 00 00 
    a74e:	48 c7 85 c8 e5 ff ff 	movq   $0xffffffffffffffff,-0x1a38(%rbp)
    a755:	ff ff ff ff 
    a759:	48 c7 85 d0 e5 ff ff 	movq   $0x6,-0x1a30(%rbp)
    a760:	06 00 00 00 
    a764:	48 c7 85 a8 e2 ff ff 	movq   $0x0,-0x1d58(%rbp)
    a76b:	00 00 00 00 
    a76f:	48 c7 85 b0 e2 ff ff 	movq   $0x0,-0x1d50(%rbp)
    a776:	00 00 00 00 
    a77a:	48 8d 05 df 78 00 00 	lea    0x78df(%rip),%rax        # 12060 <g_169>
    a781:	48 89 85 b8 e2 ff ff 	mov    %rax,-0x1d48(%rbp)
    a788:	48 b8 34 c2 cc 97 c6 	movabs $0xd732f0c697ccc234,%rax
    a78f:	f0 32 d7 
    a792:	48 89 85 c0 e2 ff ff 	mov    %rax,-0x1d40(%rbp)
    a799:	48 c7 85 90 e6 ff ff 	movq   $0x0,-0x1970(%rbp)
    a7a0:	00 00 00 00 
    a7a4:	48 c7 85 98 e6 ff ff 	movq   $0x0,-0x1968(%rbp)
    a7ab:	00 00 00 00 
    a7af:	48 8d 85 60 e1 ff ff 	lea    -0x1ea0(%rbp),%rax
    a7b6:	48 89 85 a0 e6 ff ff 	mov    %rax,-0x1960(%rbp)
    a7bd:	48 c7 85 a8 e6 ff ff 	movq   $0x0,-0x1958(%rbp)
    a7c4:	00 00 00 00 
    a7c8:	48 c7 85 b0 e6 ff ff 	movq   $0x0,-0x1950(%rbp)
    a7cf:	00 00 00 00 
    a7d3:	48 8d 85 60 e1 ff ff 	lea    -0x1ea0(%rbp),%rax
    a7da:	48 89 85 b8 e6 ff ff 	mov    %rax,-0x1948(%rbp)
    a7e1:	48 c7 85 c0 e6 ff ff 	movq   $0x0,-0x1940(%rbp)
    a7e8:	00 00 00 00 
    a7ec:	48 c7 85 c8 e6 ff ff 	movq   $0x0,-0x1938(%rbp)
    a7f3:	00 00 00 00 
    a7f7:	c7 85 44 e0 ff ff 00 	movl   $0x0,-0x1fbc(%rbp)
    a7fe:	00 00 00 
    a801:	eb 1e                	jmp    a821 <func_70+0x2655>
    a803:	8b 85 44 e0 ff ff    	mov    -0x1fbc(%rbp),%eax
    a809:	48 98                	cltq   
    a80b:	48 8d 15 4a 78 00 00 	lea    0x784a(%rip),%rdx        # 1205c <g_135>
    a812:	48 89 94 c5 b0 e4 ff 	mov    %rdx,-0x1b50(%rbp,%rax,8)
    a819:	ff 
    a81a:	83 85 44 e0 ff ff 01 	addl   $0x1,-0x1fbc(%rbp)
    a821:	83 bd 44 e0 ff ff 00 	cmpl   $0x0,-0x1fbc(%rbp)
    a828:	7e d9                	jle    a803 <func_70+0x2637>
    a82a:	0f b7 05 eb 78 00 00 	movzwl 0x78eb(%rip),%eax        # 1211c <g_180+0x9c>
    a831:	66 85 c0             	test   %ax,%ax
    a834:	0f 95 c0             	setne  %al
    a837:	44 0f b6 e0          	movzbl %al,%r12d
    a83b:	48 8b 85 80 e2 ff ff 	mov    -0x1d80(%rbp),%rax
    a842:	8b 18                	mov    (%rax),%ebx
    a844:	48 8b 85 90 e2 ff ff 	mov    -0x1d70(%rbp),%rax
    a84b:	41 89 c5             	mov    %eax,%r13d
    a84e:	48 8b 85 80 e2 ff ff 	mov    -0x1d80(%rbp),%rax
    a855:	8b 00                	mov    (%rax),%eax
    a857:	85 c0                	test   %eax,%eax
    a859:	75 62                	jne    a8bd <func_70+0x26f1>
    a85b:	0f b6 85 ac e3 ff ff 	movzbl -0x1c54(%rbp),%eax
    a862:	0f b6 d0             	movzbl %al,%edx
    a865:	8b 05 cd 77 00 00    	mov    0x77cd(%rip),%eax        # 12038 <g_86>
    a86b:	c1 e0 05             	shl    $0x5,%eax
    a86e:	66 c1 f8 05          	sar    $0x5,%ax
    a872:	98                   	cwtl   
    a873:	39 c2                	cmp    %eax,%edx
    a875:	0f 9c c0             	setl   %al
    a878:	0f b6 d0             	movzbl %al,%edx
    a87b:	8b 85 ec df ff ff    	mov    -0x2014(%rbp),%eax
    a881:	09 d0                	or     %edx,%eax
    a883:	be fe ff ff ff       	mov    $0xfffffffe,%esi
    a888:	89 c7                	mov    %eax,%edi
    a88a:	e8 96 c6 ff ff       	callq  6f25 <safe_div_func_uint32_t_u_u>
    a88f:	89 c0                	mov    %eax,%eax
    a891:	48 83 c8 f6          	or     $0xfffffffffffffff6,%rax
    a895:	48 3d 92 00 00 00    	cmp    $0x92,%rax
    a89b:	0f 97 c0             	seta   %al
    a89e:	0f b6 c0             	movzbl %al,%eax
    a8a1:	f7 d0                	not    %eax
    a8a3:	89 c2                	mov    %eax,%edx
    a8a5:	8b 85 18 e0 ff ff    	mov    -0x1fe8(%rbp),%eax
    a8ab:	39 c2                	cmp    %eax,%edx
    a8ad:	0f 9d c2             	setge  %dl
    a8b0:	48 8b 85 60 e1 ff ff 	mov    -0x1ea0(%rbp),%rax
    a8b7:	0f b6 d2             	movzbl %dl,%edx
    a8ba:	48 89 10             	mov    %rdx,(%rax)
    a8bd:	b8 01 00 00 00       	mov    $0x1,%eax
    a8c2:	98                   	cwtl   
    a8c3:	be 0c 00 00 00       	mov    $0xc,%esi
    a8c8:	89 c7                	mov    %eax,%edi
    a8ca:	e8 12 bc ff ff       	callq  64e1 <safe_lshift_func_int16_t_s_u>
    a8cf:	0f bf d0             	movswl %ax,%edx
    a8d2:	48 8b 85 58 e1 ff ff 	mov    -0x1ea8(%rbp),%rax
    a8d9:	98                   	cwtl   
    a8da:	89 d6                	mov    %edx,%esi
    a8dc:	89 c7                	mov    %eax,%edi
    a8de:	e8 47 bc ff ff       	callq  652a <safe_rshift_func_int16_t_s_s>
    a8e3:	48 8b 85 38 e1 ff ff 	mov    -0x1ec8(%rbp),%rax
    a8ea:	48 89 85 38 e2 ff ff 	mov    %rax,-0x1dc8(%rbp)
    a8f1:	48 8b 85 38 e2 ff ff 	mov    -0x1dc8(%rbp),%rax
    a8f8:	48 3b 85 88 e2 ff ff 	cmp    -0x1d78(%rbp),%rax
    a8ff:	0f 95 c0             	setne  %al
    a902:	0f b6 d0             	movzbl %al,%edx
    a905:	8b 85 ec df ff ff    	mov    -0x2014(%rbp),%eax
    a90b:	21 d0                	and    %edx,%eax
    a90d:	44 89 ee             	mov    %r13d,%esi
    a910:	89 c7                	mov    %eax,%edi
    a912:	e8 a1 c5 ff ff       	callq  6eb8 <safe_add_func_uint32_t_u_u>
    a917:	98                   	cwtl   
    a918:	89 de                	mov    %ebx,%esi
    a91a:	89 c7                	mov    %eax,%edi
    a91c:	e8 09 bc ff ff       	callq  652a <safe_rshift_func_int16_t_s_s>
    a921:	98                   	cwtl   
    a922:	44 09 e0             	or     %r12d,%eax
    a925:	48 98                	cltq   
    a927:	48 89 c6             	mov    %rax,%rsi
    a92a:	48 c7 c7 ff ff ff ff 	mov    $0xffffffffffffffff,%rdi
    a931:	e8 72 bf ff ff       	callq  68a8 <safe_sub_func_int64_t_s_s>
    a936:	48 85 c0             	test   %rax,%rax
    a939:	75 0e                	jne    a949 <func_70+0x277d>
    a93b:	8b 85 d8 e9 ff ff    	mov    -0x1628(%rbp),%eax
    a941:	85 c0                	test   %eax,%eax
    a943:	0f 84 e4 01 00 00    	je     ab2d <func_70+0x2961>
    a949:	48 b8 0a d3 cc 64 d5 	movabs $0x6e8acdd564ccd30a,%rax
    a950:	cd 8a 6e 
    a953:	48 89 85 e8 e2 ff ff 	mov    %rax,-0x1d18(%rbp)
    a95a:	48 8d 85 24 e0 ff ff 	lea    -0x1fdc(%rbp),%rax
    a961:	48 89 85 f0 e2 ff ff 	mov    %rax,-0x1d10(%rbp)
    a968:	48 8d 85 24 e0 ff ff 	lea    -0x1fdc(%rbp),%rax
    a96f:	48 89 85 f8 e2 ff ff 	mov    %rax,-0x1d08(%rbp)
    a976:	c7 85 a0 e0 ff ff 2e 	movl   $0xb734962e,-0x1f60(%rbp)
    a97d:	96 34 b7 
    a980:	48 8d 05 d5 76 00 00 	lea    0x76d5(%rip),%rax        # 1205c <g_135>
    a987:	48 89 85 00 e3 ff ff 	mov    %rax,-0x1d00(%rbp)
    a98e:	48 8d 05 cb 76 00 00 	lea    0x76cb(%rip),%rax        # 12060 <g_169>
    a995:	48 89 85 08 e3 ff ff 	mov    %rax,-0x1cf8(%rbp)
    a99c:	c7 85 48 e0 ff ff 00 	movl   $0x0,-0x1fb8(%rbp)
    a9a3:	00 00 00 
    a9a6:	eb 4a                	jmp    a9f2 <func_70+0x2826>
    a9a8:	c7 85 4c e0 ff ff 00 	movl   $0x0,-0x1fb4(%rbp)
    a9af:	00 00 00 
    a9b2:	eb 2e                	jmp    a9e2 <func_70+0x2816>
    a9b4:	8b 85 4c e0 ff ff    	mov    -0x1fb4(%rbp),%eax
    a9ba:	48 98                	cltq   
    a9bc:	8b 95 48 e0 ff ff    	mov    -0x1fb8(%rbp),%edx
    a9c2:	48 63 d2             	movslq %edx,%rdx
    a9c5:	48 c1 e2 02          	shl    $0x2,%rdx
    a9c9:	48 01 d0             	add    %rdx,%rax
    a9cc:	48 8d 15 85 76 00 00 	lea    0x7685(%rip),%rdx        # 12058 <g_132>
    a9d3:	48 89 94 c5 50 f0 ff 	mov    %rdx,-0xfb0(%rbp,%rax,8)
    a9da:	ff 
    a9db:	83 85 4c e0 ff ff 01 	addl   $0x1,-0x1fb4(%rbp)
    a9e2:	83 bd 4c e0 ff ff 03 	cmpl   $0x3,-0x1fb4(%rbp)
    a9e9:	7e c9                	jle    a9b4 <func_70+0x27e8>
    a9eb:	83 85 48 e0 ff ff 01 	addl   $0x1,-0x1fb8(%rbp)
    a9f2:	83 bd 48 e0 ff ff 01 	cmpl   $0x1,-0x1fb8(%rbp)
    a9f9:	7e ad                	jle    a9a8 <func_70+0x27dc>
    a9fb:	48 8b 05 8e 78 00 00 	mov    0x788e(%rip),%rax        # 12290 <g_226>
    aa02:	48 83 e8 01          	sub    $0x1,%rax
    aa06:	48 89 05 83 78 00 00 	mov    %rax,0x7883(%rip)        # 12290 <g_226>
    aa0d:	83 bd 98 e0 ff ff 00 	cmpl   $0x0,-0x1f68(%rbp)
    aa14:	0f 85 77 2e 00 00    	jne    d891 <func_70+0x56c5>
    aa1a:	48 8b 85 08 e3 ff ff 	mov    -0x1cf8(%rbp),%rax
    aa21:	8b 00                	mov    (%rax),%eax
    aa23:	8d 50 01             	lea    0x1(%rax),%edx
    aa26:	48 8b 85 08 e3 ff ff 	mov    -0x1cf8(%rbp),%rax
    aa2d:	89 10                	mov    %edx,(%rax)
    aa2f:	48 8b 85 08 e3 ff ff 	mov    -0x1cf8(%rbp),%rax
    aa36:	8b 00                	mov    (%rax),%eax
    aa38:	83 f0 f4             	xor    $0xfffffff4,%eax
    aa3b:	0f b6 c0             	movzbl %al,%eax
    aa3e:	89 c6                	mov    %eax,%esi
    aa40:	bf 01 00 00 00       	mov    $0x1,%edi
    aa45:	e8 91 c1 ff ff       	callq  6bdb <safe_div_func_uint8_t_u_u>
    aa4a:	0f b6 d8             	movzbl %al,%ebx
    aa4d:	8b 85 ec df ff ff    	mov    -0x2014(%rbp),%eax
    aa53:	3d 67 0d 00 00       	cmp    $0xd67,%eax
    aa58:	0f 97 c0             	seta   %al
    aa5b:	44 0f b6 e0          	movzbl %al,%r12d
    aa5f:	8b 05 6b 79 00 00    	mov    0x796b(%rip),%eax        # 123d0 <g_237+0x130>
    aa65:	48 8b 05 1c 92 00 00 	mov    0x921c(%rip),%rax        # 13c88 <g_191>
    aa6c:	0f b6 10             	movzbl (%rax),%edx
    aa6f:	8d 4a ff             	lea    -0x1(%rdx),%ecx
    aa72:	88 08                	mov    %cl,(%rax)
    aa74:	0f b6 c2             	movzbl %dl,%eax
    aa77:	be 07 00 00 00       	mov    $0x7,%esi
    aa7c:	89 c7                	mov    %eax,%edi
    aa7e:	e8 c9 c1 ff ff       	callq  6c4c <safe_lshift_func_uint8_t_u_u>
    aa83:	0f be c0             	movsbl %al,%eax
    aa86:	be f7 ff ff ff       	mov    $0xfffffff7,%esi
    aa8b:	89 c7                	mov    %eax,%edi
    aa8d:	e8 80 b7 ff ff       	callq  6212 <safe_mul_func_int8_t_s_s>
    aa92:	89 c2                	mov    %eax,%edx
    aa94:	48 8b 85 60 e1 ff ff 	mov    -0x1ea0(%rbp),%rax
    aa9b:	48 0f be d2          	movsbq %dl,%rdx
    aa9f:	48 89 10             	mov    %rdx,(%rax)
    aaa2:	48 8b 00             	mov    (%rax),%rax
    aaa5:	49 39 c4             	cmp    %rax,%r12
    aaa8:	0f 94 c0             	sete   %al
    aaab:	0f b6 d0             	movzbl %al,%edx
    aaae:	8b 85 f0 df ff ff    	mov    -0x2010(%rbp),%eax
    aab4:	39 c2                	cmp    %eax,%edx
    aab6:	75 0c                	jne    aac4 <func_70+0x28f8>
    aab8:	0f b7 05 b3 76 00 00 	movzwl 0x76b3(%rip),%eax        # 12172 <g_200>
    aabf:	66 85 c0             	test   %ax,%ax
    aac2:	74 07                	je     aacb <func_70+0x28ff>
    aac4:	b8 01 00 00 00       	mov    $0x1,%eax
    aac9:	eb 05                	jmp    aad0 <func_70+0x2904>
    aacb:	b8 00 00 00 00       	mov    $0x0,%eax
    aad0:	48 63 d0             	movslq %eax,%rdx
    aad3:	48 8b 05 ae 77 00 00 	mov    0x77ae(%rip),%rax        # 12288 <g_225>
    aada:	48 39 c2             	cmp    %rax,%rdx
    aadd:	0f 95 c0             	setne  %al
    aae0:	0f b6 c0             	movzbl %al,%eax
    aae3:	39 c3                	cmp    %eax,%ebx
    aae5:	0f 94 c0             	sete   %al
    aae8:	0f b6 d0             	movzbl %al,%edx
    aaeb:	0f b7 05 6e a0 00 00 	movzwl 0xa06e(%rip),%eax        # 14b60 <g_222>
    aaf2:	98                   	cwtl   
    aaf3:	39 c2                	cmp    %eax,%edx
    aaf5:	0f 94 c0             	sete   %al
    aaf8:	0f b6 d0             	movzbl %al,%edx
    aafb:	0f b6 05 52 a0 00 00 	movzbl 0xa052(%rip),%eax        # 14b54 <g_67>
    ab02:	0f be c0             	movsbl %al,%eax
    ab05:	39 c2                	cmp    %eax,%edx
    ab07:	0f 95 c0             	setne  %al
    ab0a:	0f b6 d0             	movzbl %al,%edx
    ab0d:	48 8b 85 f8 e2 ff ff 	mov    -0x1d08(%rbp),%rax
    ab14:	8b 00                	mov    (%rax),%eax
    ab16:	31 c2                	xor    %eax,%edx
    ab18:	48 8b 85 f8 e2 ff ff 	mov    -0x1d08(%rbp),%rax
    ab1f:	89 10                	mov    %edx,(%rax)
    ab21:	0f b7 05 4a 76 00 00 	movzwl 0x764a(%rip),%eax        # 12172 <g_200>
    ab28:	e9 89 35 00 00       	jmpq   e0b6 <func_70+0x5eea>
    ab2d:	48 8d 85 2c e0 ff ff 	lea    -0x1fd4(%rbp),%rax
    ab34:	48 89 85 c8 e2 ff ff 	mov    %rax,-0x1d38(%rbp)
    ab3b:	48 8d 05 16 75 00 00 	lea    0x7516(%rip),%rax        # 12058 <g_132>
    ab42:	48 89 85 50 f0 ff ff 	mov    %rax,-0xfb0(%rbp)
    ab49:	48 8d 85 70 e4 ff ff 	lea    -0x1b90(%rbp),%rax
    ab50:	48 83 c0 10          	add    $0x10,%rax
    ab54:	48 89 85 58 f0 ff ff 	mov    %rax,-0xfa8(%rbp)
    ab5b:	48 c7 85 60 f0 ff ff 	movq   $0x0,-0xfa0(%rbp)
    ab62:	00 00 00 00 
    ab66:	48 8d 05 e3 74 00 00 	lea    0x74e3(%rip),%rax        # 12050 <g_110>
    ab6d:	48 89 85 68 f0 ff ff 	mov    %rax,-0xf98(%rbp)
    ab74:	48 8d 85 a0 e8 ff ff 	lea    -0x1760(%rbp),%rax
    ab7b:	48 05 38 01 00 00    	add    $0x138,%rax
    ab81:	48 89 85 70 f0 ff ff 	mov    %rax,-0xf90(%rbp)
    ab88:	48 c7 85 78 f0 ff ff 	movq   $0x0,-0xf88(%rbp)
    ab8f:	00 00 00 00 
    ab93:	48 8d 85 28 e0 ff ff 	lea    -0x1fd8(%rbp),%rax
    ab9a:	48 89 85 80 f0 ff ff 	mov    %rax,-0xf80(%rbp)
    aba1:	48 8d 85 70 e4 ff ff 	lea    -0x1b90(%rbp),%rax
    aba8:	48 83 c0 10          	add    $0x10,%rax
    abac:	48 89 85 88 f0 ff ff 	mov    %rax,-0xf78(%rbp)
    abb3:	48 8d 85 70 e4 ff ff 	lea    -0x1b90(%rbp),%rax
    abba:	48 83 c0 14          	add    $0x14,%rax
    abbe:	48 89 85 90 f0 ff ff 	mov    %rax,-0xf70(%rbp)
    abc5:	48 8d 85 70 e4 ff ff 	lea    -0x1b90(%rbp),%rax
    abcc:	48 83 c0 10          	add    $0x10,%rax
    abd0:	48 89 85 98 f0 ff ff 	mov    %rax,-0xf68(%rbp)
    abd7:	48 8d 85 a0 e8 ff ff 	lea    -0x1760(%rbp),%rax
    abde:	48 05 38 01 00 00    	add    $0x138,%rax
    abe4:	48 89 85 a0 f0 ff ff 	mov    %rax,-0xf60(%rbp)
    abeb:	48 8d 85 a0 e8 ff ff 	lea    -0x1760(%rbp),%rax
    abf2:	48 05 38 01 00 00    	add    $0x138,%rax
    abf8:	48 89 85 a8 f0 ff ff 	mov    %rax,-0xf58(%rbp)
    abff:	48 8d 85 28 e0 ff ff 	lea    -0x1fd8(%rbp),%rax
    ac06:	48 89 85 b0 f0 ff ff 	mov    %rax,-0xf50(%rbp)
    ac0d:	48 8d 85 70 e4 ff ff 	lea    -0x1b90(%rbp),%rax
    ac14:	48 83 c0 14          	add    $0x14,%rax
    ac18:	48 89 85 b8 f0 ff ff 	mov    %rax,-0xf48(%rbp)
    ac1f:	48 8d 85 2c e0 ff ff 	lea    -0x1fd4(%rbp),%rax
    ac26:	48 89 85 c0 f0 ff ff 	mov    %rax,-0xf40(%rbp)
    ac2d:	48 8d 05 1c 74 00 00 	lea    0x741c(%rip),%rax        # 12050 <g_110>
    ac34:	48 89 85 c8 f0 ff ff 	mov    %rax,-0xf38(%rbp)
    ac3b:	48 8d 85 70 e4 ff ff 	lea    -0x1b90(%rbp),%rax
    ac42:	48 83 c0 10          	add    $0x10,%rax
    ac46:	48 89 85 d0 f0 ff ff 	mov    %rax,-0xf30(%rbp)
    ac4d:	48 c7 85 d8 f0 ff ff 	movq   $0x0,-0xf28(%rbp)
    ac54:	00 00 00 00 
    ac58:	48 8d 05 f9 73 00 00 	lea    0x73f9(%rip),%rax        # 12058 <g_132>
    ac5f:	48 89 85 e0 f0 ff ff 	mov    %rax,-0xf20(%rbp)
    ac66:	48 8d 85 2c e0 ff ff 	lea    -0x1fd4(%rbp),%rax
    ac6d:	48 89 85 e8 f0 ff ff 	mov    %rax,-0xf18(%rbp)
    ac74:	48 8d 85 28 e0 ff ff 	lea    -0x1fd8(%rbp),%rax
    ac7b:	48 89 85 f0 f0 ff ff 	mov    %rax,-0xf10(%rbp)
    ac82:	48 8d 85 24 e0 ff ff 	lea    -0x1fdc(%rbp),%rax
    ac89:	48 89 85 f8 f0 ff ff 	mov    %rax,-0xf08(%rbp)
    ac90:	48 c7 85 00 f1 ff ff 	movq   $0x0,-0xf00(%rbp)
    ac97:	00 00 00 00 
    ac9b:	48 8d 85 a0 e8 ff ff 	lea    -0x1760(%rbp),%rax
    aca2:	48 83 c0 2c          	add    $0x2c,%rax
    aca6:	48 89 85 08 f1 ff ff 	mov    %rax,-0xef8(%rbp)
    acad:	48 8d 85 2c e0 ff ff 	lea    -0x1fd4(%rbp),%rax
    acb4:	48 89 85 10 f1 ff ff 	mov    %rax,-0xef0(%rbp)
    acbb:	48 8d 85 2c e0 ff ff 	lea    -0x1fd4(%rbp),%rax
    acc2:	48 89 85 18 f1 ff ff 	mov    %rax,-0xee8(%rbp)
    acc9:	48 8d 85 2c e0 ff ff 	lea    -0x1fd4(%rbp),%rax
    acd0:	48 89 85 20 f1 ff ff 	mov    %rax,-0xee0(%rbp)
    acd7:	48 8d 05 7a 73 00 00 	lea    0x737a(%rip),%rax        # 12058 <g_132>
    acde:	48 89 85 28 f1 ff ff 	mov    %rax,-0xed8(%rbp)
    ace5:	48 8d 85 70 e4 ff ff 	lea    -0x1b90(%rbp),%rax
    acec:	48 83 c0 10          	add    $0x10,%rax
    acf0:	48 89 85 30 f1 ff ff 	mov    %rax,-0xed0(%rbp)
    acf7:	48 8d 85 28 e0 ff ff 	lea    -0x1fd8(%rbp),%rax
    acfe:	48 89 85 38 f1 ff ff 	mov    %rax,-0xec8(%rbp)
    ad05:	48 8d 85 70 e4 ff ff 	lea    -0x1b90(%rbp),%rax
    ad0c:	48 83 c0 10          	add    $0x10,%rax
    ad10:	48 89 85 40 f1 ff ff 	mov    %rax,-0xec0(%rbp)
    ad17:	48 8d 85 70 e4 ff ff 	lea    -0x1b90(%rbp),%rax
    ad1e:	48 83 c0 14          	add    $0x14,%rax
    ad22:	48 89 85 48 f1 ff ff 	mov    %rax,-0xeb8(%rbp)
    ad29:	48 8d 85 2c e0 ff ff 	lea    -0x1fd4(%rbp),%rax
    ad30:	48 89 85 50 f1 ff ff 	mov    %rax,-0xeb0(%rbp)
    ad37:	48 c7 85 58 f1 ff ff 	movq   $0x0,-0xea8(%rbp)
    ad3e:	00 00 00 00 
    ad42:	48 8d 85 a0 e8 ff ff 	lea    -0x1760(%rbp),%rax
    ad49:	48 05 38 01 00 00    	add    $0x138,%rax
    ad4f:	48 89 85 60 f1 ff ff 	mov    %rax,-0xea0(%rbp)
    ad56:	48 8d 85 70 e4 ff ff 	lea    -0x1b90(%rbp),%rax
    ad5d:	48 83 c0 10          	add    $0x10,%rax
    ad61:	48 89 85 68 f1 ff ff 	mov    %rax,-0xe98(%rbp)
    ad68:	48 8d 85 2c e0 ff ff 	lea    -0x1fd4(%rbp),%rax
    ad6f:	48 89 85 70 f1 ff ff 	mov    %rax,-0xe90(%rbp)
    ad76:	48 8d 85 70 e4 ff ff 	lea    -0x1b90(%rbp),%rax
    ad7d:	48 83 c0 10          	add    $0x10,%rax
    ad81:	48 89 85 78 f1 ff ff 	mov    %rax,-0xe88(%rbp)
    ad88:	48 8d 85 2c e0 ff ff 	lea    -0x1fd4(%rbp),%rax
    ad8f:	48 89 85 80 f1 ff ff 	mov    %rax,-0xe80(%rbp)
    ad96:	48 c7 85 88 f1 ff ff 	movq   $0x0,-0xe78(%rbp)
    ad9d:	00 00 00 00 
    ada1:	48 8d 85 a0 e8 ff ff 	lea    -0x1760(%rbp),%rax
    ada8:	48 05 38 01 00 00    	add    $0x138,%rax
    adae:	48 89 85 90 f1 ff ff 	mov    %rax,-0xe70(%rbp)
    adb5:	48 8d 85 28 e0 ff ff 	lea    -0x1fd8(%rbp),%rax
    adbc:	48 89 85 98 f1 ff ff 	mov    %rax,-0xe68(%rbp)
    adc3:	48 8d 85 28 e0 ff ff 	lea    -0x1fd8(%rbp),%rax
    adca:	48 89 85 a0 f1 ff ff 	mov    %rax,-0xe60(%rbp)
    add1:	48 8d 85 70 e4 ff ff 	lea    -0x1b90(%rbp),%rax
    add8:	48 83 c0 10          	add    $0x10,%rax
    addc:	48 89 85 a8 f1 ff ff 	mov    %rax,-0xe58(%rbp)
    ade3:	48 8d 85 70 e4 ff ff 	lea    -0x1b90(%rbp),%rax
    adea:	48 83 c0 10          	add    $0x10,%rax
    adee:	48 89 85 b0 f1 ff ff 	mov    %rax,-0xe50(%rbp)
    adf5:	48 8d 85 70 e4 ff ff 	lea    -0x1b90(%rbp),%rax
    adfc:	48 83 c0 10          	add    $0x10,%rax
    ae00:	48 89 85 b8 f1 ff ff 	mov    %rax,-0xe48(%rbp)
    ae07:	48 c7 85 c0 f1 ff ff 	movq   $0x0,-0xe40(%rbp)
    ae0e:	00 00 00 00 
    ae12:	48 8d 05 37 72 00 00 	lea    0x7237(%rip),%rax        # 12050 <g_110>
    ae19:	48 89 85 c8 f1 ff ff 	mov    %rax,-0xe38(%rbp)
    ae20:	48 8d 85 2c e0 ff ff 	lea    -0x1fd4(%rbp),%rax
    ae27:	48 89 85 d0 f1 ff ff 	mov    %rax,-0xe30(%rbp)
    ae2e:	48 8d 85 a0 e8 ff ff 	lea    -0x1760(%rbp),%rax
    ae35:	48 05 38 01 00 00    	add    $0x138,%rax
    ae3b:	48 89 85 d8 f1 ff ff 	mov    %rax,-0xe28(%rbp)
    ae42:	48 8d 85 a0 e8 ff ff 	lea    -0x1760(%rbp),%rax
    ae49:	48 05 38 01 00 00    	add    $0x138,%rax
    ae4f:	48 89 85 e0 f1 ff ff 	mov    %rax,-0xe20(%rbp)
    ae56:	48 8d 85 70 e4 ff ff 	lea    -0x1b90(%rbp),%rax
    ae5d:	48 83 c0 10          	add    $0x10,%rax
    ae61:	48 89 85 e8 f1 ff ff 	mov    %rax,-0xe18(%rbp)
    ae68:	48 8d 85 28 e0 ff ff 	lea    -0x1fd8(%rbp),%rax
    ae6f:	48 89 85 f0 f1 ff ff 	mov    %rax,-0xe10(%rbp)
    ae76:	48 c7 85 f8 f1 ff ff 	movq   $0x0,-0xe08(%rbp)
    ae7d:	00 00 00 00 
    ae81:	48 8d 85 2c e0 ff ff 	lea    -0x1fd4(%rbp),%rax
    ae88:	48 89 85 00 f2 ff ff 	mov    %rax,-0xe00(%rbp)
    ae8f:	48 8d 85 28 e0 ff ff 	lea    -0x1fd8(%rbp),%rax
    ae96:	48 89 85 08 f2 ff ff 	mov    %rax,-0xdf8(%rbp)
    ae9d:	48 8d 85 2c e0 ff ff 	lea    -0x1fd4(%rbp),%rax
    aea4:	48 89 85 10 f2 ff ff 	mov    %rax,-0xdf0(%rbp)
    aeab:	48 8d 85 a0 e8 ff ff 	lea    -0x1760(%rbp),%rax
    aeb2:	48 05 38 01 00 00    	add    $0x138,%rax
    aeb8:	48 89 85 18 f2 ff ff 	mov    %rax,-0xde8(%rbp)
    aebf:	48 c7 85 20 f2 ff ff 	movq   $0x0,-0xde0(%rbp)
    aec6:	00 00 00 00 
    aeca:	48 8d 85 70 e4 ff ff 	lea    -0x1b90(%rbp),%rax
    aed1:	48 83 c0 10          	add    $0x10,%rax
    aed5:	48 89 85 28 f2 ff ff 	mov    %rax,-0xdd8(%rbp)
    aedc:	48 8d 85 2c e0 ff ff 	lea    -0x1fd4(%rbp),%rax
    aee3:	48 89 85 30 f2 ff ff 	mov    %rax,-0xdd0(%rbp)
    aeea:	48 8d 85 70 e4 ff ff 	lea    -0x1b90(%rbp),%rax
    aef1:	48 83 c0 10          	add    $0x10,%rax
    aef5:	48 89 85 38 f2 ff ff 	mov    %rax,-0xdc8(%rbp)
    aefc:	48 8d 85 28 e0 ff ff 	lea    -0x1fd8(%rbp),%rax
    af03:	48 89 85 40 f2 ff ff 	mov    %rax,-0xdc0(%rbp)
    af0a:	48 c7 85 48 f2 ff ff 	movq   $0x0,-0xdb8(%rbp)
    af11:	00 00 00 00 
    af15:	48 c7 85 50 f2 ff ff 	movq   $0x0,-0xdb0(%rbp)
    af1c:	00 00 00 00 
    af20:	48 8d 05 31 71 00 00 	lea    0x7131(%rip),%rax        # 12058 <g_132>
    af27:	48 89 85 58 f2 ff ff 	mov    %rax,-0xda8(%rbp)
    af2e:	48 8d 05 23 71 00 00 	lea    0x7123(%rip),%rax        # 12058 <g_132>
    af35:	48 89 85 60 f2 ff ff 	mov    %rax,-0xda0(%rbp)
    af3c:	48 8d 85 28 e0 ff ff 	lea    -0x1fd8(%rbp),%rax
    af43:	48 89 85 68 f2 ff ff 	mov    %rax,-0xd98(%rbp)
    af4a:	48 8d 85 70 e4 ff ff 	lea    -0x1b90(%rbp),%rax
    af51:	48 83 c0 14          	add    $0x14,%rax
    af55:	48 89 85 70 f2 ff ff 	mov    %rax,-0xd90(%rbp)
    af5c:	48 c7 85 78 f2 ff ff 	movq   $0x0,-0xd88(%rbp)
    af63:	00 00 00 00 
    af67:	48 8d 85 28 e0 ff ff 	lea    -0x1fd8(%rbp),%rax
    af6e:	48 89 85 80 f2 ff ff 	mov    %rax,-0xd80(%rbp)
    af75:	48 8d 85 70 e4 ff ff 	lea    -0x1b90(%rbp),%rax
    af7c:	48 83 c0 10          	add    $0x10,%rax
    af80:	48 89 85 88 f2 ff ff 	mov    %rax,-0xd78(%rbp)
    af87:	48 8d 85 2c e0 ff ff 	lea    -0x1fd4(%rbp),%rax
    af8e:	48 89 85 90 f2 ff ff 	mov    %rax,-0xd70(%rbp)
    af95:	48 8d 85 a0 e8 ff ff 	lea    -0x1760(%rbp),%rax
    af9c:	48 05 38 01 00 00    	add    $0x138,%rax
    afa2:	48 89 85 98 f2 ff ff 	mov    %rax,-0xd68(%rbp)
    afa9:	48 8d 85 28 e0 ff ff 	lea    -0x1fd8(%rbp),%rax
    afb0:	48 89 85 a0 f2 ff ff 	mov    %rax,-0xd60(%rbp)
    afb7:	48 8d 85 70 e4 ff ff 	lea    -0x1b90(%rbp),%rax
    afbe:	48 83 c0 10          	add    $0x10,%rax
    afc2:	48 89 85 a8 f2 ff ff 	mov    %rax,-0xd58(%rbp)
    afc9:	48 c7 85 b0 f2 ff ff 	movq   $0x0,-0xd50(%rbp)
    afd0:	00 00 00 00 
    afd4:	48 8d 85 70 e4 ff ff 	lea    -0x1b90(%rbp),%rax
    afdb:	48 83 c0 10          	add    $0x10,%rax
    afdf:	48 89 85 b8 f2 ff ff 	mov    %rax,-0xd48(%rbp)
    afe6:	48 8d 85 70 e4 ff ff 	lea    -0x1b90(%rbp),%rax
    afed:	48 83 c0 10          	add    $0x10,%rax
    aff1:	48 89 85 c0 f2 ff ff 	mov    %rax,-0xd40(%rbp)
    aff8:	48 8d 85 70 e4 ff ff 	lea    -0x1b90(%rbp),%rax
    afff:	48 83 c0 14          	add    $0x14,%rax
    b003:	48 89 85 c8 f2 ff ff 	mov    %rax,-0xd38(%rbp)
    b00a:	48 8d 85 70 e4 ff ff 	lea    -0x1b90(%rbp),%rax
    b011:	48 83 c0 14          	add    $0x14,%rax
    b015:	48 89 85 d0 f2 ff ff 	mov    %rax,-0xd30(%rbp)
    b01c:	48 8d 85 24 e0 ff ff 	lea    -0x1fdc(%rbp),%rax
    b023:	48 89 85 d8 f2 ff ff 	mov    %rax,-0xd28(%rbp)
    b02a:	48 8d 85 24 e0 ff ff 	lea    -0x1fdc(%rbp),%rax
    b031:	48 89 85 e0 f2 ff ff 	mov    %rax,-0xd20(%rbp)
    b038:	48 8d 05 19 70 00 00 	lea    0x7019(%rip),%rax        # 12058 <g_132>
    b03f:	48 89 85 e8 f2 ff ff 	mov    %rax,-0xd18(%rbp)
    b046:	48 8d 85 a0 e8 ff ff 	lea    -0x1760(%rbp),%rax
    b04d:	48 05 38 01 00 00    	add    $0x138,%rax
    b053:	48 89 85 f0 f2 ff ff 	mov    %rax,-0xd10(%rbp)
    b05a:	48 8d 05 f7 6f 00 00 	lea    0x6ff7(%rip),%rax        # 12058 <g_132>
    b061:	48 89 85 f8 f2 ff ff 	mov    %rax,-0xd08(%rbp)
    b068:	48 8d 85 28 e0 ff ff 	lea    -0x1fd8(%rbp),%rax
    b06f:	48 89 85 00 f3 ff ff 	mov    %rax,-0xd00(%rbp)
    b076:	48 c7 85 08 f3 ff ff 	movq   $0x0,-0xcf8(%rbp)
    b07d:	00 00 00 00 
    b081:	48 8d 85 70 e4 ff ff 	lea    -0x1b90(%rbp),%rax
    b088:	48 83 c0 10          	add    $0x10,%rax
    b08c:	48 89 85 10 f3 ff ff 	mov    %rax,-0xcf0(%rbp)
    b093:	48 8d 85 70 e4 ff ff 	lea    -0x1b90(%rbp),%rax
    b09a:	48 83 c0 10          	add    $0x10,%rax
    b09e:	48 89 85 18 f3 ff ff 	mov    %rax,-0xce8(%rbp)
    b0a5:	48 8d 85 a0 e8 ff ff 	lea    -0x1760(%rbp),%rax
    b0ac:	48 05 38 01 00 00    	add    $0x138,%rax
    b0b2:	48 89 85 20 f3 ff ff 	mov    %rax,-0xce0(%rbp)
    b0b9:	48 c7 85 28 f3 ff ff 	movq   $0x0,-0xcd8(%rbp)
    b0c0:	00 00 00 00 
    b0c4:	48 8d 85 2c e0 ff ff 	lea    -0x1fd4(%rbp),%rax
    b0cb:	48 89 85 30 f3 ff ff 	mov    %rax,-0xcd0(%rbp)
    b0d2:	48 8d 85 24 e0 ff ff 	lea    -0x1fdc(%rbp),%rax
    b0d9:	48 89 85 38 f3 ff ff 	mov    %rax,-0xcc8(%rbp)
    b0e0:	48 8d 85 a0 e8 ff ff 	lea    -0x1760(%rbp),%rax
    b0e7:	48 05 38 01 00 00    	add    $0x138,%rax
    b0ed:	48 89 85 40 f3 ff ff 	mov    %rax,-0xcc0(%rbp)
    b0f4:	48 c7 85 48 f3 ff ff 	movq   $0x0,-0xcb8(%rbp)
    b0fb:	00 00 00 00 
    b0ff:	48 8d 85 70 e4 ff ff 	lea    -0x1b90(%rbp),%rax
    b106:	48 83 c0 10          	add    $0x10,%rax
    b10a:	48 89 85 50 f3 ff ff 	mov    %rax,-0xcb0(%rbp)
    b111:	48 8d 85 2c e0 ff ff 	lea    -0x1fd4(%rbp),%rax
    b118:	48 89 85 58 f3 ff ff 	mov    %rax,-0xca8(%rbp)
    b11f:	48 8d 85 a0 e8 ff ff 	lea    -0x1760(%rbp),%rax
    b126:	48 05 38 01 00 00    	add    $0x138,%rax
    b12c:	48 89 85 60 f3 ff ff 	mov    %rax,-0xca0(%rbp)
    b133:	48 8d 85 70 e4 ff ff 	lea    -0x1b90(%rbp),%rax
    b13a:	48 83 c0 10          	add    $0x10,%rax
    b13e:	48 89 85 68 f3 ff ff 	mov    %rax,-0xc98(%rbp)
    b145:	48 8d 05 0c 6f 00 00 	lea    0x6f0c(%rip),%rax        # 12058 <g_132>
    b14c:	48 89 85 70 f3 ff ff 	mov    %rax,-0xc90(%rbp)
    b153:	48 8d 05 f6 6e 00 00 	lea    0x6ef6(%rip),%rax        # 12050 <g_110>
    b15a:	48 89 85 78 f3 ff ff 	mov    %rax,-0xc88(%rbp)
    b161:	48 8d 85 2c e0 ff ff 	lea    -0x1fd4(%rbp),%rax
    b168:	48 89 85 80 f3 ff ff 	mov    %rax,-0xc80(%rbp)
    b16f:	48 8d 85 2c e0 ff ff 	lea    -0x1fd4(%rbp),%rax
    b176:	48 89 85 88 f3 ff ff 	mov    %rax,-0xc78(%rbp)
    b17d:	48 8d 85 70 e4 ff ff 	lea    -0x1b90(%rbp),%rax
    b184:	48 83 c0 10          	add    $0x10,%rax
    b188:	48 89 85 90 f3 ff ff 	mov    %rax,-0xc70(%rbp)
    b18f:	48 c7 85 98 f3 ff ff 	movq   $0x0,-0xc68(%rbp)
    b196:	00 00 00 00 
    b19a:	48 8d 85 a0 e8 ff ff 	lea    -0x1760(%rbp),%rax
    b1a1:	48 05 38 01 00 00    	add    $0x138,%rax
    b1a7:	48 89 85 a0 f3 ff ff 	mov    %rax,-0xc60(%rbp)
    b1ae:	48 8d 85 a0 e8 ff ff 	lea    -0x1760(%rbp),%rax
    b1b5:	48 83 c0 2c          	add    $0x2c,%rax
    b1b9:	48 89 85 a8 f3 ff ff 	mov    %rax,-0xc58(%rbp)
    b1c0:	48 8d 05 91 6e 00 00 	lea    0x6e91(%rip),%rax        # 12058 <g_132>
    b1c7:	48 89 85 b0 f3 ff ff 	mov    %rax,-0xc50(%rbp)
    b1ce:	48 c7 85 b8 f3 ff ff 	movq   $0x0,-0xc48(%rbp)
    b1d5:	00 00 00 00 
    b1d9:	48 8d 85 2c e0 ff ff 	lea    -0x1fd4(%rbp),%rax
    b1e0:	48 89 85 c0 f3 ff ff 	mov    %rax,-0xc40(%rbp)
    b1e7:	48 c7 85 c8 f3 ff ff 	movq   $0x0,-0xc38(%rbp)
    b1ee:	00 00 00 00 
    b1f2:	48 8d 85 70 e4 ff ff 	lea    -0x1b90(%rbp),%rax
    b1f9:	48 83 c0 10          	add    $0x10,%rax
    b1fd:	48 89 85 d0 f3 ff ff 	mov    %rax,-0xc30(%rbp)
    b204:	48 8d 85 a0 e8 ff ff 	lea    -0x1760(%rbp),%rax
    b20b:	48 05 38 01 00 00    	add    $0x138,%rax
    b211:	48 89 85 d8 f3 ff ff 	mov    %rax,-0xc28(%rbp)
    b218:	48 8d 85 2c e0 ff ff 	lea    -0x1fd4(%rbp),%rax
    b21f:	48 89 85 e0 f3 ff ff 	mov    %rax,-0xc20(%rbp)
    b226:	48 8d 05 2b 6e 00 00 	lea    0x6e2b(%rip),%rax        # 12058 <g_132>
    b22d:	48 89 85 e8 f3 ff ff 	mov    %rax,-0xc18(%rbp)
    b234:	48 8d 85 2c e0 ff ff 	lea    -0x1fd4(%rbp),%rax
    b23b:	48 89 85 f0 f3 ff ff 	mov    %rax,-0xc10(%rbp)
    b242:	48 8d 85 a0 e8 ff ff 	lea    -0x1760(%rbp),%rax
    b249:	48 05 38 01 00 00    	add    $0x138,%rax
    b24f:	48 89 85 f8 f3 ff ff 	mov    %rax,-0xc08(%rbp)
    b256:	48 8d 85 24 e0 ff ff 	lea    -0x1fdc(%rbp),%rax
    b25d:	48 89 85 00 f4 ff ff 	mov    %rax,-0xc00(%rbp)
    b264:	48 8d 85 a0 e8 ff ff 	lea    -0x1760(%rbp),%rax
    b26b:	48 83 c0 2c          	add    $0x2c,%rax
    b26f:	48 89 85 08 f4 ff ff 	mov    %rax,-0xbf8(%rbp)
    b276:	48 8d 85 2c e0 ff ff 	lea    -0x1fd4(%rbp),%rax
    b27d:	48 89 85 10 f4 ff ff 	mov    %rax,-0xbf0(%rbp)
    b284:	48 8d 85 70 e4 ff ff 	lea    -0x1b90(%rbp),%rax
    b28b:	48 83 c0 14          	add    $0x14,%rax
    b28f:	48 89 85 18 f4 ff ff 	mov    %rax,-0xbe8(%rbp)
    b296:	48 8d 85 70 e4 ff ff 	lea    -0x1b90(%rbp),%rax
    b29d:	48 83 c0 10          	add    $0x10,%rax
    b2a1:	48 89 85 20 f4 ff ff 	mov    %rax,-0xbe0(%rbp)
    b2a8:	48 8d 85 70 e4 ff ff 	lea    -0x1b90(%rbp),%rax
    b2af:	48 83 c0 10          	add    $0x10,%rax
    b2b3:	48 89 85 28 f4 ff ff 	mov    %rax,-0xbd8(%rbp)
    b2ba:	48 c7 85 30 f4 ff ff 	movq   $0x0,-0xbd0(%rbp)
    b2c1:	00 00 00 00 
    b2c5:	48 8d 05 84 6d 00 00 	lea    0x6d84(%rip),%rax        # 12050 <g_110>
    b2cc:	48 89 85 38 f4 ff ff 	mov    %rax,-0xbc8(%rbp)
    b2d3:	48 8d 85 2c e0 ff ff 	lea    -0x1fd4(%rbp),%rax
    b2da:	48 89 85 40 f4 ff ff 	mov    %rax,-0xbc0(%rbp)
    b2e1:	48 8d 85 a0 e8 ff ff 	lea    -0x1760(%rbp),%rax
    b2e8:	48 05 38 01 00 00    	add    $0x138,%rax
    b2ee:	48 89 85 48 f4 ff ff 	mov    %rax,-0xbb8(%rbp)
    b2f5:	48 8d 85 a0 e8 ff ff 	lea    -0x1760(%rbp),%rax
    b2fc:	48 05 38 01 00 00    	add    $0x138,%rax
    b302:	48 89 85 50 f4 ff ff 	mov    %rax,-0xbb0(%rbp)
    b309:	48 8d 85 70 e4 ff ff 	lea    -0x1b90(%rbp),%rax
    b310:	48 83 c0 10          	add    $0x10,%rax
    b314:	48 89 85 58 f4 ff ff 	mov    %rax,-0xba8(%rbp)
    b31b:	48 8d 85 28 e0 ff ff 	lea    -0x1fd8(%rbp),%rax
    b322:	48 89 85 60 f4 ff ff 	mov    %rax,-0xba0(%rbp)
    b329:	48 c7 85 68 f4 ff ff 	movq   $0x0,-0xb98(%rbp)
    b330:	00 00 00 00 
    b334:	48 8d 85 2c e0 ff ff 	lea    -0x1fd4(%rbp),%rax
    b33b:	48 89 85 70 f4 ff ff 	mov    %rax,-0xb90(%rbp)
    b342:	48 8d 85 28 e0 ff ff 	lea    -0x1fd8(%rbp),%rax
    b349:	48 89 85 78 f4 ff ff 	mov    %rax,-0xb88(%rbp)
    b350:	48 8d 85 2c e0 ff ff 	lea    -0x1fd4(%rbp),%rax
    b357:	48 89 85 80 f4 ff ff 	mov    %rax,-0xb80(%rbp)
    b35e:	48 8d 85 a0 e8 ff ff 	lea    -0x1760(%rbp),%rax
    b365:	48 05 38 01 00 00    	add    $0x138,%rax
    b36b:	48 89 85 88 f4 ff ff 	mov    %rax,-0xb78(%rbp)
    b372:	48 c7 85 90 f4 ff ff 	movq   $0x0,-0xb70(%rbp)
    b379:	00 00 00 00 
    b37d:	48 8d 85 70 e4 ff ff 	lea    -0x1b90(%rbp),%rax
    b384:	48 83 c0 10          	add    $0x10,%rax
    b388:	48 89 85 98 f4 ff ff 	mov    %rax,-0xb68(%rbp)
    b38f:	48 8d 85 2c e0 ff ff 	lea    -0x1fd4(%rbp),%rax
    b396:	48 89 85 a0 f4 ff ff 	mov    %rax,-0xb60(%rbp)
    b39d:	48 8d 85 70 e4 ff ff 	lea    -0x1b90(%rbp),%rax
    b3a4:	48 83 c0 10          	add    $0x10,%rax
    b3a8:	48 89 85 a8 f4 ff ff 	mov    %rax,-0xb58(%rbp)
    b3af:	48 8d 85 28 e0 ff ff 	lea    -0x1fd8(%rbp),%rax
    b3b6:	48 89 85 b0 f4 ff ff 	mov    %rax,-0xb50(%rbp)
    b3bd:	48 c7 85 b8 f4 ff ff 	movq   $0x0,-0xb48(%rbp)
    b3c4:	00 00 00 00 
    b3c8:	48 c7 85 c0 f4 ff ff 	movq   $0x0,-0xb40(%rbp)
    b3cf:	00 00 00 00 
    b3d3:	48 8d 05 7e 6c 00 00 	lea    0x6c7e(%rip),%rax        # 12058 <g_132>
    b3da:	48 89 85 c8 f4 ff ff 	mov    %rax,-0xb38(%rbp)
    b3e1:	48 8d 05 70 6c 00 00 	lea    0x6c70(%rip),%rax        # 12058 <g_132>
    b3e8:	48 89 85 d0 f4 ff ff 	mov    %rax,-0xb30(%rbp)
    b3ef:	48 8d 85 28 e0 ff ff 	lea    -0x1fd8(%rbp),%rax
    b3f6:	48 89 85 d8 f4 ff ff 	mov    %rax,-0xb28(%rbp)
    b3fd:	48 8d 85 70 e4 ff ff 	lea    -0x1b90(%rbp),%rax
    b404:	48 83 c0 14          	add    $0x14,%rax
    b408:	48 89 85 e0 f4 ff ff 	mov    %rax,-0xb20(%rbp)
    b40f:	48 c7 85 e8 f4 ff ff 	movq   $0x0,-0xb18(%rbp)
    b416:	00 00 00 00 
    b41a:	48 8d 85 28 e0 ff ff 	lea    -0x1fd8(%rbp),%rax
    b421:	48 89 85 f0 f4 ff ff 	mov    %rax,-0xb10(%rbp)
    b428:	48 8d 85 70 e4 ff ff 	lea    -0x1b90(%rbp),%rax
    b42f:	48 83 c0 10          	add    $0x10,%rax
    b433:	48 89 85 f8 f4 ff ff 	mov    %rax,-0xb08(%rbp)
    b43a:	48 8d 85 2c e0 ff ff 	lea    -0x1fd4(%rbp),%rax
    b441:	48 89 85 00 f5 ff ff 	mov    %rax,-0xb00(%rbp)
    b448:	48 8d 85 a0 e8 ff ff 	lea    -0x1760(%rbp),%rax
    b44f:	48 05 38 01 00 00    	add    $0x138,%rax
    b455:	48 89 85 08 f5 ff ff 	mov    %rax,-0xaf8(%rbp)
    b45c:	48 8d 85 28 e0 ff ff 	lea    -0x1fd8(%rbp),%rax
    b463:	48 89 85 10 f5 ff ff 	mov    %rax,-0xaf0(%rbp)
    b46a:	48 8d 85 70 e4 ff ff 	lea    -0x1b90(%rbp),%rax
    b471:	48 83 c0 10          	add    $0x10,%rax
    b475:	48 89 85 18 f5 ff ff 	mov    %rax,-0xae8(%rbp)
    b47c:	48 c7 85 20 f5 ff ff 	movq   $0x0,-0xae0(%rbp)
    b483:	00 00 00 00 
    b487:	48 8d 85 70 e4 ff ff 	lea    -0x1b90(%rbp),%rax
    b48e:	48 83 c0 10          	add    $0x10,%rax
    b492:	48 89 85 28 f5 ff ff 	mov    %rax,-0xad8(%rbp)
    b499:	48 8d 85 70 e4 ff ff 	lea    -0x1b90(%rbp),%rax
    b4a0:	48 83 c0 10          	add    $0x10,%rax
    b4a4:	48 89 85 30 f5 ff ff 	mov    %rax,-0xad0(%rbp)
    b4ab:	48 8d 85 70 e4 ff ff 	lea    -0x1b90(%rbp),%rax
    b4b2:	48 83 c0 14          	add    $0x14,%rax
    b4b6:	48 89 85 38 f5 ff ff 	mov    %rax,-0xac8(%rbp)
    b4bd:	48 8d 85 70 e4 ff ff 	lea    -0x1b90(%rbp),%rax
    b4c4:	48 83 c0 14          	add    $0x14,%rax
    b4c8:	48 89 85 40 f5 ff ff 	mov    %rax,-0xac0(%rbp)
    b4cf:	48 8d 85 24 e0 ff ff 	lea    -0x1fdc(%rbp),%rax
    b4d6:	48 89 85 48 f5 ff ff 	mov    %rax,-0xab8(%rbp)
    b4dd:	48 8d 85 24 e0 ff ff 	lea    -0x1fdc(%rbp),%rax
    b4e4:	48 89 85 50 f5 ff ff 	mov    %rax,-0xab0(%rbp)
    b4eb:	48 8d 05 66 6b 00 00 	lea    0x6b66(%rip),%rax        # 12058 <g_132>
    b4f2:	48 89 85 58 f5 ff ff 	mov    %rax,-0xaa8(%rbp)
    b4f9:	48 8d 85 a0 e8 ff ff 	lea    -0x1760(%rbp),%rax
    b500:	48 05 38 01 00 00    	add    $0x138,%rax
    b506:	48 89 85 60 f5 ff ff 	mov    %rax,-0xaa0(%rbp)
    b50d:	48 8d 05 44 6b 00 00 	lea    0x6b44(%rip),%rax        # 12058 <g_132>
    b514:	48 89 85 68 f5 ff ff 	mov    %rax,-0xa98(%rbp)
    b51b:	48 8d 85 28 e0 ff ff 	lea    -0x1fd8(%rbp),%rax
    b522:	48 89 85 70 f5 ff ff 	mov    %rax,-0xa90(%rbp)
    b529:	48 c7 85 78 f5 ff ff 	movq   $0x0,-0xa88(%rbp)
    b530:	00 00 00 00 
    b534:	48 8d 85 70 e4 ff ff 	lea    -0x1b90(%rbp),%rax
    b53b:	48 83 c0 10          	add    $0x10,%rax
    b53f:	48 89 85 80 f5 ff ff 	mov    %rax,-0xa80(%rbp)
    b546:	48 8d 85 70 e4 ff ff 	lea    -0x1b90(%rbp),%rax
    b54d:	48 83 c0 10          	add    $0x10,%rax
    b551:	48 89 85 88 f5 ff ff 	mov    %rax,-0xa78(%rbp)
    b558:	48 8d 85 a0 e8 ff ff 	lea    -0x1760(%rbp),%rax
    b55f:	48 05 38 01 00 00    	add    $0x138,%rax
    b565:	48 89 85 90 f5 ff ff 	mov    %rax,-0xa70(%rbp)
    b56c:	48 c7 85 98 f5 ff ff 	movq   $0x0,-0xa68(%rbp)
    b573:	00 00 00 00 
    b577:	48 8d 85 2c e0 ff ff 	lea    -0x1fd4(%rbp),%rax
    b57e:	48 89 85 a0 f5 ff ff 	mov    %rax,-0xa60(%rbp)
    b585:	48 8d 85 24 e0 ff ff 	lea    -0x1fdc(%rbp),%rax
    b58c:	48 89 85 a8 f5 ff ff 	mov    %rax,-0xa58(%rbp)
    b593:	48 8d 85 a0 e8 ff ff 	lea    -0x1760(%rbp),%rax
    b59a:	48 05 38 01 00 00    	add    $0x138,%rax
    b5a0:	48 89 85 b0 f5 ff ff 	mov    %rax,-0xa50(%rbp)
    b5a7:	48 c7 85 b8 f5 ff ff 	movq   $0x0,-0xa48(%rbp)
    b5ae:	00 00 00 00 
    b5b2:	48 8d 85 70 e4 ff ff 	lea    -0x1b90(%rbp),%rax
    b5b9:	48 83 c0 10          	add    $0x10,%rax
    b5bd:	48 89 85 c0 f5 ff ff 	mov    %rax,-0xa40(%rbp)
    b5c4:	48 8d 85 2c e0 ff ff 	lea    -0x1fd4(%rbp),%rax
    b5cb:	48 89 85 c8 f5 ff ff 	mov    %rax,-0xa38(%rbp)
    b5d2:	48 8d 85 a0 e8 ff ff 	lea    -0x1760(%rbp),%rax
    b5d9:	48 05 38 01 00 00    	add    $0x138,%rax
    b5df:	48 89 85 d0 f5 ff ff 	mov    %rax,-0xa30(%rbp)
    b5e6:	48 8d 85 70 e4 ff ff 	lea    -0x1b90(%rbp),%rax
    b5ed:	48 83 c0 10          	add    $0x10,%rax
    b5f1:	48 89 85 d8 f5 ff ff 	mov    %rax,-0xa28(%rbp)
    b5f8:	48 8d 05 59 6a 00 00 	lea    0x6a59(%rip),%rax        # 12058 <g_132>
    b5ff:	48 89 85 e0 f5 ff ff 	mov    %rax,-0xa20(%rbp)
    b606:	48 8d 05 43 6a 00 00 	lea    0x6a43(%rip),%rax        # 12050 <g_110>
    b60d:	48 89 85 e8 f5 ff ff 	mov    %rax,-0xa18(%rbp)
    b614:	48 8d 85 2c e0 ff ff 	lea    -0x1fd4(%rbp),%rax
    b61b:	48 89 85 f0 f5 ff ff 	mov    %rax,-0xa10(%rbp)
    b622:	48 8d 85 2c e0 ff ff 	lea    -0x1fd4(%rbp),%rax
    b629:	48 89 85 f8 f5 ff ff 	mov    %rax,-0xa08(%rbp)
    b630:	48 8d 85 70 e4 ff ff 	lea    -0x1b90(%rbp),%rax
    b637:	48 83 c0 10          	add    $0x10,%rax
    b63b:	48 89 85 00 f6 ff ff 	mov    %rax,-0xa00(%rbp)
    b642:	48 c7 85 08 f6 ff ff 	movq   $0x0,-0x9f8(%rbp)
    b649:	00 00 00 00 
    b64d:	48 8d 85 a0 e8 ff ff 	lea    -0x1760(%rbp),%rax
    b654:	48 05 38 01 00 00    	add    $0x138,%rax
    b65a:	48 89 85 10 f6 ff ff 	mov    %rax,-0x9f0(%rbp)
    b661:	48 8d 85 a0 e8 ff ff 	lea    -0x1760(%rbp),%rax
    b668:	48 83 c0 2c          	add    $0x2c,%rax
    b66c:	48 89 85 18 f6 ff ff 	mov    %rax,-0x9e8(%rbp)
    b673:	48 8d 05 de 69 00 00 	lea    0x69de(%rip),%rax        # 12058 <g_132>
    b67a:	48 89 85 20 f6 ff ff 	mov    %rax,-0x9e0(%rbp)
    b681:	48 c7 85 28 f6 ff ff 	movq   $0x0,-0x9d8(%rbp)
    b688:	00 00 00 00 
    b68c:	48 8d 85 2c e0 ff ff 	lea    -0x1fd4(%rbp),%rax
    b693:	48 89 85 30 f6 ff ff 	mov    %rax,-0x9d0(%rbp)
    b69a:	48 c7 85 38 f6 ff ff 	movq   $0x0,-0x9c8(%rbp)
    b6a1:	00 00 00 00 
    b6a5:	48 8d 85 70 e4 ff ff 	lea    -0x1b90(%rbp),%rax
    b6ac:	48 83 c0 10          	add    $0x10,%rax
    b6b0:	48 89 85 40 f6 ff ff 	mov    %rax,-0x9c0(%rbp)
    b6b7:	48 8d 85 a0 e8 ff ff 	lea    -0x1760(%rbp),%rax
    b6be:	48 05 38 01 00 00    	add    $0x138,%rax
    b6c4:	48 89 85 48 f6 ff ff 	mov    %rax,-0x9b8(%rbp)
    b6cb:	48 8d 85 2c e0 ff ff 	lea    -0x1fd4(%rbp),%rax
    b6d2:	48 89 85 50 f6 ff ff 	mov    %rax,-0x9b0(%rbp)
    b6d9:	48 8d 05 78 69 00 00 	lea    0x6978(%rip),%rax        # 12058 <g_132>
    b6e0:	48 89 85 58 f6 ff ff 	mov    %rax,-0x9a8(%rbp)
    b6e7:	48 8d 85 2c e0 ff ff 	lea    -0x1fd4(%rbp),%rax
    b6ee:	48 89 85 60 f6 ff ff 	mov    %rax,-0x9a0(%rbp)
    b6f5:	48 8d 85 a0 e8 ff ff 	lea    -0x1760(%rbp),%rax
    b6fc:	48 05 38 01 00 00    	add    $0x138,%rax
    b702:	48 89 85 68 f6 ff ff 	mov    %rax,-0x998(%rbp)
    b709:	48 8d 85 24 e0 ff ff 	lea    -0x1fdc(%rbp),%rax
    b710:	48 89 85 70 f6 ff ff 	mov    %rax,-0x990(%rbp)
    b717:	48 8d 85 a0 e8 ff ff 	lea    -0x1760(%rbp),%rax
    b71e:	48 83 c0 2c          	add    $0x2c,%rax
    b722:	48 89 85 78 f6 ff ff 	mov    %rax,-0x988(%rbp)
    b729:	48 8d 85 2c e0 ff ff 	lea    -0x1fd4(%rbp),%rax
    b730:	48 89 85 80 f6 ff ff 	mov    %rax,-0x980(%rbp)
    b737:	48 8d 85 70 e4 ff ff 	lea    -0x1b90(%rbp),%rax
    b73e:	48 83 c0 14          	add    $0x14,%rax
    b742:	48 89 85 88 f6 ff ff 	mov    %rax,-0x978(%rbp)
    b749:	48 8d 85 70 e4 ff ff 	lea    -0x1b90(%rbp),%rax
    b750:	48 83 c0 10          	add    $0x10,%rax
    b754:	48 89 85 90 f6 ff ff 	mov    %rax,-0x970(%rbp)
    b75b:	48 8d 85 70 e4 ff ff 	lea    -0x1b90(%rbp),%rax
    b762:	48 83 c0 10          	add    $0x10,%rax
    b766:	48 89 85 98 f6 ff ff 	mov    %rax,-0x968(%rbp)
    b76d:	48 c7 85 a0 f6 ff ff 	movq   $0x0,-0x960(%rbp)
    b774:	00 00 00 00 
    b778:	48 8d 05 d1 68 00 00 	lea    0x68d1(%rip),%rax        # 12050 <g_110>
    b77f:	48 89 85 a8 f6 ff ff 	mov    %rax,-0x958(%rbp)
    b786:	48 8d 85 2c e0 ff ff 	lea    -0x1fd4(%rbp),%rax
    b78d:	48 89 85 b0 f6 ff ff 	mov    %rax,-0x950(%rbp)
    b794:	48 8d 85 a0 e8 ff ff 	lea    -0x1760(%rbp),%rax
    b79b:	48 05 38 01 00 00    	add    $0x138,%rax
    b7a1:	48 89 85 b8 f6 ff ff 	mov    %rax,-0x948(%rbp)
    b7a8:	48 8d 85 a0 e8 ff ff 	lea    -0x1760(%rbp),%rax
    b7af:	48 05 38 01 00 00    	add    $0x138,%rax
    b7b5:	48 89 85 c0 f6 ff ff 	mov    %rax,-0x940(%rbp)
    b7bc:	48 8d 85 70 e4 ff ff 	lea    -0x1b90(%rbp),%rax
    b7c3:	48 83 c0 10          	add    $0x10,%rax
    b7c7:	48 89 85 c8 f6 ff ff 	mov    %rax,-0x938(%rbp)
    b7ce:	48 8d 85 28 e0 ff ff 	lea    -0x1fd8(%rbp),%rax
    b7d5:	48 89 85 d0 f6 ff ff 	mov    %rax,-0x930(%rbp)
    b7dc:	48 c7 85 d8 f6 ff ff 	movq   $0x0,-0x928(%rbp)
    b7e3:	00 00 00 00 
    b7e7:	48 8d 85 2c e0 ff ff 	lea    -0x1fd4(%rbp),%rax
    b7ee:	48 89 85 e0 f6 ff ff 	mov    %rax,-0x920(%rbp)
    b7f5:	48 8d 85 28 e0 ff ff 	lea    -0x1fd8(%rbp),%rax
    b7fc:	48 89 85 e8 f6 ff ff 	mov    %rax,-0x918(%rbp)
    b803:	48 8d 85 2c e0 ff ff 	lea    -0x1fd4(%rbp),%rax
    b80a:	48 89 85 f0 f6 ff ff 	mov    %rax,-0x910(%rbp)
    b811:	48 8d 85 a0 e8 ff ff 	lea    -0x1760(%rbp),%rax
    b818:	48 05 38 01 00 00    	add    $0x138,%rax
    b81e:	48 89 85 f8 f6 ff ff 	mov    %rax,-0x908(%rbp)
    b825:	48 c7 85 00 f7 ff ff 	movq   $0x0,-0x900(%rbp)
    b82c:	00 00 00 00 
    b830:	48 8d 85 70 e4 ff ff 	lea    -0x1b90(%rbp),%rax
    b837:	48 83 c0 10          	add    $0x10,%rax
    b83b:	48 89 85 08 f7 ff ff 	mov    %rax,-0x8f8(%rbp)
    b842:	48 8d 85 2c e0 ff ff 	lea    -0x1fd4(%rbp),%rax
    b849:	48 89 85 10 f7 ff ff 	mov    %rax,-0x8f0(%rbp)
    b850:	48 8d 85 70 e4 ff ff 	lea    -0x1b90(%rbp),%rax
    b857:	48 83 c0 10          	add    $0x10,%rax
    b85b:	48 89 85 18 f7 ff ff 	mov    %rax,-0x8e8(%rbp)
    b862:	48 8d 85 28 e0 ff ff 	lea    -0x1fd8(%rbp),%rax
    b869:	48 89 85 20 f7 ff ff 	mov    %rax,-0x8e0(%rbp)
    b870:	48 c7 85 28 f7 ff ff 	movq   $0x0,-0x8d8(%rbp)
    b877:	00 00 00 00 
    b87b:	48 c7 85 30 f7 ff ff 	movq   $0x0,-0x8d0(%rbp)
    b882:	00 00 00 00 
    b886:	48 8d 05 cb 67 00 00 	lea    0x67cb(%rip),%rax        # 12058 <g_132>
    b88d:	48 89 85 38 f7 ff ff 	mov    %rax,-0x8c8(%rbp)
    b894:	48 8d 05 bd 67 00 00 	lea    0x67bd(%rip),%rax        # 12058 <g_132>
    b89b:	48 89 85 40 f7 ff ff 	mov    %rax,-0x8c0(%rbp)
    b8a2:	48 8d 85 28 e0 ff ff 	lea    -0x1fd8(%rbp),%rax
    b8a9:	48 89 85 48 f7 ff ff 	mov    %rax,-0x8b8(%rbp)
    b8b0:	48 8d 85 70 e4 ff ff 	lea    -0x1b90(%rbp),%rax
    b8b7:	48 83 c0 14          	add    $0x14,%rax
    b8bb:	48 89 85 50 f7 ff ff 	mov    %rax,-0x8b0(%rbp)
    b8c2:	48 c7 85 58 f7 ff ff 	movq   $0x0,-0x8a8(%rbp)
    b8c9:	00 00 00 00 
    b8cd:	48 8d 85 28 e0 ff ff 	lea    -0x1fd8(%rbp),%rax
    b8d4:	48 89 85 60 f7 ff ff 	mov    %rax,-0x8a0(%rbp)
    b8db:	48 8d 85 70 e4 ff ff 	lea    -0x1b90(%rbp),%rax
    b8e2:	48 83 c0 10          	add    $0x10,%rax
    b8e6:	48 89 85 68 f7 ff ff 	mov    %rax,-0x898(%rbp)
    b8ed:	48 8d 85 2c e0 ff ff 	lea    -0x1fd4(%rbp),%rax
    b8f4:	48 89 85 70 f7 ff ff 	mov    %rax,-0x890(%rbp)
    b8fb:	48 8d 85 a0 e8 ff ff 	lea    -0x1760(%rbp),%rax
    b902:	48 05 38 01 00 00    	add    $0x138,%rax
    b908:	48 89 85 78 f7 ff ff 	mov    %rax,-0x888(%rbp)
    b90f:	48 8d 85 28 e0 ff ff 	lea    -0x1fd8(%rbp),%rax
    b916:	48 89 85 80 f7 ff ff 	mov    %rax,-0x880(%rbp)
    b91d:	48 8d 85 70 e4 ff ff 	lea    -0x1b90(%rbp),%rax
    b924:	48 83 c0 10          	add    $0x10,%rax
    b928:	48 89 85 88 f7 ff ff 	mov    %rax,-0x878(%rbp)
    b92f:	48 c7 85 90 f7 ff ff 	movq   $0x0,-0x870(%rbp)
    b936:	00 00 00 00 
    b93a:	48 8d 85 70 e4 ff ff 	lea    -0x1b90(%rbp),%rax
    b941:	48 83 c0 10          	add    $0x10,%rax
    b945:	48 89 85 98 f7 ff ff 	mov    %rax,-0x868(%rbp)
    b94c:	48 8d 85 70 e4 ff ff 	lea    -0x1b90(%rbp),%rax
    b953:	48 83 c0 14          	add    $0x14,%rax
    b957:	48 89 85 a0 f7 ff ff 	mov    %rax,-0x860(%rbp)
    b95e:	48 c7 85 a8 f7 ff ff 	movq   $0x0,-0x858(%rbp)
    b965:	00 00 00 00 
    b969:	48 8d 85 28 e0 ff ff 	lea    -0x1fd8(%rbp),%rax
    b970:	48 89 85 b0 f7 ff ff 	mov    %rax,-0x850(%rbp)
    b977:	48 8d 85 70 e4 ff ff 	lea    -0x1b90(%rbp),%rax
    b97e:	48 83 c0 10          	add    $0x10,%rax
    b982:	48 89 85 b8 f7 ff ff 	mov    %rax,-0x848(%rbp)
    b989:	48 8d 85 28 e0 ff ff 	lea    -0x1fd8(%rbp),%rax
    b990:	48 89 85 c0 f7 ff ff 	mov    %rax,-0x840(%rbp)
    b997:	48 c7 85 c8 f7 ff ff 	movq   $0x0,-0x838(%rbp)
    b99e:	00 00 00 00 
    b9a2:	48 8d 85 2c e0 ff ff 	lea    -0x1fd4(%rbp),%rax
    b9a9:	48 89 85 d0 f7 ff ff 	mov    %rax,-0x830(%rbp)
    b9b0:	48 8d 85 70 e4 ff ff 	lea    -0x1b90(%rbp),%rax
    b9b7:	48 83 c0 10          	add    $0x10,%rax
    b9bb:	48 89 85 d8 f7 ff ff 	mov    %rax,-0x828(%rbp)
    b9c2:	48 8d 85 2c e0 ff ff 	lea    -0x1fd4(%rbp),%rax
    b9c9:	48 89 85 e0 f7 ff ff 	mov    %rax,-0x820(%rbp)
    b9d0:	48 8b 05 31 6a 00 00 	mov    0x6a31(%rip),%rax        # 12408 <g_246+0x28>
    b9d7:	48 83 c0 01          	add    $0x1,%rax
    b9db:	48 89 05 26 6a 00 00 	mov    %rax,0x6a26(%rip)        # 12408 <g_246+0x28>
    b9e2:	c7 85 28 e0 ff ff ff 	movl   $0xffffffff,-0x1fd8(%rbp)
    b9e9:	ff ff ff 
    b9ec:	0f b6 05 61 91 00 00 	movzbl 0x9161(%rip),%eax        # 14b54 <g_67>
    b9f3:	0f be d8             	movsbl %al,%ebx
    b9f6:	48 8b 85 28 e1 ff ff 	mov    -0x1ed8(%rbp),%rax
    b9fd:	41 89 c7             	mov    %eax,%r15d
    ba00:	8b 85 ec df ff ff    	mov    -0x2014(%rbp),%eax
    ba06:	44 0f be e0          	movsbl %al,%r12d
    ba0a:	48 8b 05 27 68 00 00 	mov    0x6827(%rip),%rax        # 12238 <g_223+0xb8>
    ba11:	48 85 c0             	test   %rax,%rax
    ba14:	0f 94 c0             	sete   %al
    ba17:	88 85 eb df ff ff    	mov    %al,-0x2015(%rbp)
    ba1d:	8b 85 ec df ff ff    	mov    -0x2014(%rbp),%eax
    ba23:	89 85 e4 df ff ff    	mov    %eax,-0x201c(%rbp)
    ba29:	8b 85 ec df ff ff    	mov    -0x2014(%rbp),%eax
    ba2f:	89 85 e0 df ff ff    	mov    %eax,-0x2020(%rbp)
    ba35:	48 8b 85 80 e2 ff ff 	mov    -0x1d80(%rbp),%rax
    ba3c:	44 8b 28             	mov    (%rax),%r13d
    ba3f:	48 8b 05 4a 68 00 00 	mov    0x684a(%rip),%rax        # 12290 <g_226>
    ba46:	89 85 dc df ff ff    	mov    %eax,-0x2024(%rbp)
    ba4c:	0f b6 85 ac e3 ff ff 	movzbl -0x1c54(%rbp),%eax
    ba53:	44 0f b6 f0          	movzbl %al,%r14d
    ba57:	48 8b 05 aa 69 00 00 	mov    0x69aa(%rip),%rax        # 12408 <g_246+0x28>
    ba5e:	89 c2                	mov    %eax,%edx
    ba60:	48 8b 85 b8 e2 ff ff 	mov    -0x1d48(%rbp),%rax
    ba67:	89 10                	mov    %edx,(%rax)
    ba69:	48 8b 85 b8 e2 ff ff 	mov    -0x1d48(%rbp),%rax
    ba70:	8b 00                	mov    (%rax),%eax
    ba72:	89 05 e4 65 00 00    	mov    %eax,0x65e4(%rip)        # 1205c <g_135>
    ba78:	8b 05 de 65 00 00    	mov    0x65de(%rip),%eax        # 1205c <g_135>
    ba7e:	be 00 00 00 00       	mov    $0x0,%esi
    ba83:	89 c7                	mov    %eax,%edi
    ba85:	e8 2e b4 ff ff       	callq  6eb8 <safe_add_func_uint32_t_u_u>
    ba8a:	0f b7 05 8b 66 00 00 	movzwl 0x668b(%rip),%eax        # 1211c <g_180+0x9c>
    ba91:	0f b7 c0             	movzwl %ax,%eax
    ba94:	4c 89 f6             	mov    %r14,%rsi
    ba97:	48 89 c7             	mov    %rax,%rdi
    ba9a:	e8 58 af ff ff       	callq  69f7 <safe_div_func_int64_t_s_s>
    ba9f:	98                   	cwtl   
    baa0:	8b b5 dc df ff ff    	mov    -0x2024(%rbp),%esi
    baa6:	89 c7                	mov    %eax,%edi
    baa8:	e8 34 aa ff ff       	callq  64e1 <safe_lshift_func_int16_t_s_u>
    baad:	0f b6 c0             	movzbl %al,%eax
    bab0:	be 01 00 00 00       	mov    $0x1,%esi
    bab5:	89 c7                	mov    %eax,%edi
    bab7:	e8 9e b0 ff ff       	callq  6b5a <safe_add_func_uint8_t_u_u>
    babc:	0f b6 c0             	movzbl %al,%eax
    babf:	44 89 ee             	mov    %r13d,%esi
    bac2:	89 c7                	mov    %eax,%edi
    bac4:	e8 61 aa ff ff       	callq  652a <safe_rshift_func_int16_t_s_s>
    bac9:	98                   	cwtl   
    baca:	8b b5 e0 df ff ff    	mov    -0x2020(%rbp),%esi
    bad0:	89 c7                	mov    %eax,%edi
    bad2:	e8 f5 ab ff ff       	callq  66cc <safe_mod_func_int32_t_s_s>
    bad7:	be ad a1 ea 11       	mov    $0x11eaa1ad,%esi
    badc:	89 c7                	mov    %eax,%edi
    bade:	e8 1a b4 ff ff       	callq  6efd <safe_mod_func_uint32_t_u_u>
    bae3:	0f b7 c0             	movzwl %ax,%eax
    bae6:	8b b5 e4 df ff ff    	mov    -0x201c(%rbp),%esi
    baec:	89 c7                	mov    %eax,%edi
    baee:	e8 cb b2 ff ff       	callq  6dbe <safe_lshift_func_uint16_t_u_s>
    baf3:	0f b7 c0             	movzwl %ax,%eax
    baf6:	89 85 d8 e9 ff ff    	mov    %eax,-0x1628(%rbp)
    bafc:	8b 85 d8 e9 ff ff    	mov    -0x1628(%rbp),%eax
    bb02:	89 c2                	mov    %eax,%edx
    bb04:	8b 85 ec df ff ff    	mov    -0x2014(%rbp),%eax
    bb0a:	39 c2                	cmp    %eax,%edx
    bb0c:	0f 95 c0             	setne  %al
    bb0f:	0f b6 c0             	movzbl %al,%eax
    bb12:	be 03 00 00 00       	mov    $0x3,%esi
    bb17:	89 c7                	mov    %eax,%edi
    bb19:	e8 1f b2 ff ff       	callq  6d3d <safe_mul_func_uint16_t_u_u>
    bb1e:	22 85 eb df ff ff    	and    -0x2015(%rbp),%al
    bb24:	0f be c0             	movsbl %al,%eax
    bb27:	44 89 e6             	mov    %r12d,%esi
    bb2a:	89 c7                	mov    %eax,%edi
    bb2c:	e8 39 a7 ff ff       	callq  626a <safe_div_func_int8_t_s_s>
    bb31:	44 89 fe             	mov    %r15d,%esi
    bb34:	bf 01 00 00 00       	mov    $0x1,%edi
    bb39:	e8 c7 b0 ff ff       	callq  6c05 <safe_lshift_func_uint8_t_u_s>
    bb3e:	0f b6 d0             	movzbl %al,%edx
    bb41:	8b 85 2c e0 ff ff    	mov    -0x1fd4(%rbp),%eax
    bb47:	31 d0                	xor    %edx,%eax
    bb49:	89 85 2c e0 ff ff    	mov    %eax,-0x1fd4(%rbp)
    bb4f:	8b 85 2c e0 ff ff    	mov    -0x1fd4(%rbp),%eax
    bb55:	39 85 90 e0 ff ff    	cmp    %eax,-0x1f70(%rbp)
    bb5b:	0f 9f c0             	setg   %al
    bb5e:	0f b6 c0             	movzbl %al,%eax
    bb61:	89 de                	mov    %ebx,%esi
    bb63:	89 c7                	mov    %eax,%edi
    bb65:	e8 66 b3 ff ff       	callq  6ed0 <safe_sub_func_uint32_t_u_u>
    bb6a:	89 c3                	mov    %eax,%ebx
    bb6c:	be 00 00 00 00       	mov    $0x0,%esi
    bb71:	bf 75 c4 00 00       	mov    $0xc475,%edi
    bb76:	e8 43 b2 ff ff       	callq  6dbe <safe_lshift_func_uint16_t_u_s>
    bb7b:	0f b7 c0             	movzwl %ax,%eax
    bb7e:	48 89 de             	mov    %rbx,%rsi
    bb81:	48 89 c7             	mov    %rax,%rdi
    bb84:	e8 1f ad ff ff       	callq  68a8 <safe_sub_func_int64_t_s_s>
    bb89:	0f be c0             	movsbl %al,%eax
    bb8c:	be fe ff ff ff       	mov    $0xfffffffe,%esi
    bb91:	89 c7                	mov    %eax,%edi
    bb93:	e8 7a a6 ff ff       	callq  6212 <safe_mul_func_int8_t_s_s>
    bb98:	f7 d0                	not    %eax
    bb9a:	c0 e8 07             	shr    $0x7,%al
    bb9d:	0f b6 c0             	movzbl %al,%eax
    bba0:	89 c6                	mov    %eax,%esi
    bba2:	bf c1 00 00 00       	mov    $0xc1,%edi
    bba7:	e8 cc af ff ff       	callq  6b78 <safe_sub_func_uint8_t_u_u>
    bbac:	84 c0                	test   %al,%al
    bbae:	74 71                	je     bc21 <func_70+0x3a55>
    bbb0:	48 8d 85 70 e4 ff ff 	lea    -0x1b90(%rbp),%rax
    bbb7:	48 83 c0 10          	add    $0x10,%rax
    bbbb:	48 89 85 d0 e2 ff ff 	mov    %rax,-0x1d30(%rbp)
    bbc2:	48 8d 85 70 e4 ff ff 	lea    -0x1b90(%rbp),%rax
    bbc9:	48 83 c0 1c          	add    $0x1c,%rax
    bbcd:	48 89 85 50 f0 ff ff 	mov    %rax,-0xfb0(%rbp)
    bbd4:	48 8d 85 70 e4 ff ff 	lea    -0x1b90(%rbp),%rax
    bbdb:	48 83 c0 1c          	add    $0x1c,%rax
    bbdf:	48 89 85 58 f0 ff ff 	mov    %rax,-0xfa8(%rbp)
    bbe6:	48 8d 85 70 e4 ff ff 	lea    -0x1b90(%rbp),%rax
    bbed:	48 83 c0 1c          	add    $0x1c,%rax
    bbf1:	48 89 85 60 f0 ff ff 	mov    %rax,-0xfa0(%rbp)
    bbf8:	48 8d 85 70 e4 ff ff 	lea    -0x1b90(%rbp),%rax
    bbff:	48 83 c0 1c          	add    $0x1c,%rax
    bc03:	48 89 85 68 f0 ff ff 	mov    %rax,-0xf98(%rbp)
    bc0a:	48 8b 05 3f 68 00 00 	mov    0x683f(%rip),%rax        # 12450 <g_290>
    bc11:	48 83 c0 01          	add    $0x1,%rax
    bc15:	48 89 05 34 68 00 00 	mov    %rax,0x6834(%rip)        # 12450 <g_290>
    bc1c:	e9 46 01 00 00       	jmpq   bd67 <func_70+0x3b9b>
    bc21:	66 c7 85 0e e0 ff ff 	movw   $0xfff9,-0x1ff2(%rbp)
    bc28:	f9 ff 
    bc2a:	8b 85 f4 df ff ff    	mov    -0x200c(%rbp),%eax
    bc30:	0f bf d0             	movswl %ax,%edx
    bc33:	8b 85 f4 df ff ff    	mov    -0x200c(%rbp),%eax
    bc39:	98                   	cwtl   
    bc3a:	89 d6                	mov    %edx,%esi
    bc3c:	89 c7                	mov    %eax,%edi
    bc3e:	e8 d3 a7 ff ff       	callq  6416 <safe_mod_func_int16_t_s_s>
    bc43:	0f bf d0             	movswl %ax,%edx
    bc46:	8b 85 78 e4 ff ff    	mov    -0x1b88(%rbp),%eax
    bc4c:	39 c2                	cmp    %eax,%edx
    bc4e:	0f 9d c0             	setge  %al
    bc51:	0f b6 c0             	movzbl %al,%eax
    bc54:	89 85 d8 e9 ff ff    	mov    %eax,-0x1628(%rbp)
    bc5a:	48 0f bf 9d 0e e0 ff 	movswq -0x1ff2(%rbp),%rbx
    bc61:	ff 
    bc62:	48 8b 05 1f 80 00 00 	mov    0x801f(%rip),%rax        # 13c88 <g_191>
    bc69:	0f b6 10             	movzbl (%rax),%edx
    bc6c:	83 ea 01             	sub    $0x1,%edx
    bc6f:	88 10                	mov    %dl,(%rax)
    bc71:	48 8b 05 e0 8e 00 00 	mov    0x8ee0(%rip),%rax        # 14b58 <g_104>
    bc78:	49 89 c4             	mov    %rax,%r12
    bc7b:	8b 85 f0 df ff ff    	mov    -0x2010(%rbp),%eax
    bc81:	98                   	cwtl   
    bc82:	be 00 00 00 00       	mov    $0x0,%esi
    bc87:	89 c7                	mov    %eax,%edi
    bc89:	e8 53 a8 ff ff       	callq  64e1 <safe_lshift_func_int16_t_s_u>
    bc8e:	0f b7 c0             	movzwl %ax,%eax
    bc91:	be 0f 00 00 00       	mov    $0xf,%esi
    bc96:	89 c7                	mov    %eax,%edi
    bc98:	e8 69 b1 ff ff       	callq  6e06 <safe_lshift_func_uint16_t_u_u>
    bc9d:	0f b7 d0             	movzwl %ax,%edx
    bca0:	48 8b 85 80 e2 ff ff 	mov    -0x1d80(%rbp),%rax
    bca7:	8b 00                	mov    (%rax),%eax
    bca9:	21 c2                	and    %eax,%edx
    bcab:	48 8b 85 60 e1 ff ff 	mov    -0x1ea0(%rbp),%rax
    bcb2:	48 8b 08             	mov    (%rax),%rcx
    bcb5:	48 63 d2             	movslq %edx,%rdx
    bcb8:	48 8b 85 60 e1 ff ff 	mov    -0x1ea0(%rbp),%rax
    bcbf:	48 21 ca             	and    %rcx,%rdx
    bcc2:	48 89 10             	mov    %rdx,(%rax)
    bcc5:	48 8b 00             	mov    (%rax),%rax
    bcc8:	4c 89 e6             	mov    %r12,%rsi
    bccb:	48 89 c7             	mov    %rax,%rdi
    bcce:	e8 5b b3 ff ff       	callq  702e <safe_add_func_uint64_t_u_u>
    bcd3:	8b 85 ec df ff ff    	mov    -0x2014(%rbp),%eax
    bcd9:	0f b7 d0             	movzwl %ax,%edx
    bcdc:	8b 05 76 67 00 00    	mov    0x6776(%rip),%eax        # 12458 <g_300>
    bce2:	48 8d 05 97 7f 00 00 	lea    0x7f97(%rip),%rax        # 13c80 <g_109>
    bce9:	48 39 85 60 e2 ff ff 	cmp    %rax,-0x1da0(%rbp)
    bcf0:	0f 95 c0             	setne  %al
    bcf3:	0f b6 c0             	movzbl %al,%eax
    bcf6:	89 d6                	mov    %edx,%esi
    bcf8:	89 c7                	mov    %eax,%edi
    bcfa:	e8 20 b0 ff ff       	callq  6d1f <safe_sub_func_uint16_t_u_u>
    bcff:	0f b7 c0             	movzwl %ax,%eax
    bd02:	83 e0 17             	and    $0x17,%eax
    bd05:	48 09 c3             	or     %rax,%rbx
    bd08:	48 89 da             	mov    %rbx,%rdx
    bd0b:	48 8b 85 80 e2 ff ff 	mov    -0x1d80(%rbp),%rax
    bd12:	8b 00                	mov    (%rax),%eax
    bd14:	48 98                	cltq   
    bd16:	48 39 c2             	cmp    %rax,%rdx
    bd19:	0f 9c c0             	setl   %al
    bd1c:	0f b6 d0             	movzbl %al,%edx
    bd1f:	48 8b 85 80 e2 ff ff 	mov    -0x1d80(%rbp),%rax
    bd26:	89 10                	mov    %edx,(%rax)
    bd28:	48 8b 85 80 e2 ff ff 	mov    -0x1d80(%rbp),%rax
    bd2f:	8b 00                	mov    (%rax),%eax
    bd31:	89 85 d8 e9 ff ff    	mov    %eax,-0x1628(%rbp)
    bd37:	48 8b 85 80 e2 ff ff 	mov    -0x1d80(%rbp),%rax
    bd3e:	c7 00 06 00 00 00    	movl   $0x6,(%rax)
    bd44:	48 8b 85 80 e2 ff ff 	mov    -0x1d80(%rbp),%rax
    bd4b:	8b 08                	mov    (%rax),%ecx
    bd4d:	48 8b 85 60 e2 ff ff 	mov    -0x1da0(%rbp),%rax
    bd54:	48 8b 00             	mov    (%rax),%rax
    bd57:	8b 10                	mov    (%rax),%edx
    bd59:	48 8b 85 60 e2 ff ff 	mov    -0x1da0(%rbp),%rax
    bd60:	48 8b 00             	mov    (%rax),%rax
    bd63:	31 ca                	xor    %ecx,%edx
    bd65:	89 10                	mov    %edx,(%rax)
    bd67:	48 8b 05 d2 62 00 00 	mov    0x62d2(%rip),%rax        # 12040 <g_102>
    bd6e:	0f be d8             	movsbl %al,%ebx
    bd71:	48 8b 85 d0 e5 ff ff 	mov    -0x1a30(%rbp),%rax
    bd78:	48 83 f8 49          	cmp    $0x49,%rax
    bd7c:	0f 94 c0             	sete   %al
    bd7f:	44 0f b6 e8          	movzbl %al,%r13d
    bd83:	8b 05 cb 62 00 00    	mov    0x62cb(%rip),%eax        # 12054 <g_114>
    bd89:	41 89 c6             	mov    %eax,%r14d
    bd8c:	8b 85 ec df ff ff    	mov    -0x2014(%rbp),%eax
    bd92:	44 0f b6 e0          	movzbl %al,%r12d
    bd96:	8b 85 ec df ff ff    	mov    -0x2014(%rbp),%eax
    bd9c:	98                   	cwtl   
    bd9d:	be 07 00 00 00       	mov    $0x7,%esi
    bda2:	89 c7                	mov    %eax,%edi
    bda4:	e8 ac a6 ff ff       	callq  6455 <safe_div_func_int16_t_s_s>
    bda9:	0f b6 c0             	movzbl %al,%eax
    bdac:	44 89 e6             	mov    %r12d,%esi
    bdaf:	89 c7                	mov    %eax,%edi
    bdb1:	e8 a4 ad ff ff       	callq  6b5a <safe_add_func_uint8_t_u_u>
    bdb6:	48 8b 05 cb 64 00 00 	mov    0x64cb(%rip),%rax        # 12288 <g_225>
    bdbd:	0f be c0             	movsbl %al,%eax
    bdc0:	be 02 00 00 00       	mov    $0x2,%esi
    bdc5:	89 c7                	mov    %eax,%edi
    bdc7:	e8 46 a4 ff ff       	callq  6212 <safe_mul_func_int8_t_s_s>
    bdcc:	0f be d0             	movsbl %al,%edx
    bdcf:	48 8b 85 b8 e2 ff ff 	mov    -0x1d48(%rbp),%rax
    bdd6:	89 10                	mov    %edx,(%rax)
    bdd8:	48 8b 85 b8 e2 ff ff 	mov    -0x1d48(%rbp),%rax
    bddf:	8b 00                	mov    (%rax),%eax
    bde1:	89 c1                	mov    %eax,%ecx
    bde3:	48 8d 85 58 e1 ff ff 	lea    -0x1ea8(%rbp),%rax
    bdea:	48 89 05 9f 7e 00 00 	mov    %rax,0x7e9f(%rip)        # 13c90 <g_318>
    bdf1:	48 8b 05 98 7e 00 00 	mov    0x7e98(%rip),%rax        # 13c90 <g_318>
    bdf8:	48 89 05 69 8d 00 00 	mov    %rax,0x8d69(%rip)        # 14b68 <g_319>
    bdff:	48 8b 15 62 8d 00 00 	mov    0x8d62(%rip),%rdx        # 14b68 <g_319>
    be06:	48 8d 85 48 e1 ff ff 	lea    -0x1eb8(%rbp),%rax
    be0d:	48 39 c2             	cmp    %rax,%rdx
    be10:	0f 94 c0             	sete   %al
    be13:	0f b6 d0             	movzbl %al,%edx
    be16:	48 8b 85 80 e2 ff ff 	mov    -0x1d80(%rbp),%rax
    be1d:	89 10                	mov    %edx,(%rax)
    be1f:	48 8b 85 80 e2 ff ff 	mov    -0x1d80(%rbp),%rax
    be26:	8b 00                	mov    (%rax),%eax
    be28:	89 ce                	mov    %ecx,%esi
    be2a:	89 c7                	mov    %eax,%edi
    be2c:	e8 9b a8 ff ff       	callq  66cc <safe_mod_func_int32_t_s_s>
    be31:	0f b7 c0             	movzwl %ax,%eax
    be34:	44 89 f6             	mov    %r14d,%esi
    be37:	89 c7                	mov    %eax,%edi
    be39:	e8 c8 af ff ff       	callq  6e06 <safe_lshift_func_uint16_t_u_u>
    be3e:	0f b7 c0             	movzwl %ax,%eax
    be41:	41 39 c5             	cmp    %eax,%r13d
    be44:	0f 94 c2             	sete   %dl
    be47:	48 8b 85 40 e1 ff ff 	mov    -0x1ec0(%rbp),%rax
    be4e:	0f b6 d2             	movzbl %dl,%edx
    be51:	48 89 10             	mov    %rdx,(%rax)
    be54:	48 8b 00             	mov    (%rax),%rax
    be57:	48 89 c7             	mov    %rax,%rdi
    be5a:	e8 b7 a9 ff ff       	callq  6816 <safe_unary_minus_func_int64_t_s>
    be5f:	8b 85 24 e0 ff ff    	mov    -0x1fdc(%rbp),%eax
    be65:	3d dd 3a 00 00       	cmp    $0x3add,%eax
    be6a:	0f 9f c0             	setg   %al
    be6d:	0f b6 c0             	movzbl %al,%eax
    be70:	89 de                	mov    %ebx,%esi
    be72:	89 c7                	mov    %eax,%edi
    be74:	e8 5b a3 ff ff       	callq  61d4 <safe_add_func_int8_t_s_s>
    be79:	84 c0                	test   %al,%al
    be7b:	0f 84 f9 01 00 00    	je     c07a <func_70+0x3eae>
    be81:	48 8d 85 a2 e3 ff ff 	lea    -0x1c5e(%rbp),%rax
    be88:	48 83 c0 0b          	add    $0xb,%rax
    be8c:	48 89 85 d8 e2 ff ff 	mov    %rax,-0x1d28(%rbp)
    be93:	c7 85 9c e0 ff ff 68 	movl   $0xe0e3cd68,-0x1f64(%rbp)
    be9a:	cd e3 e0 
    be9d:	48 8d 85 18 e1 ff ff 	lea    -0x1ee8(%rbp),%rax
    bea4:	48 89 85 e0 e2 ff ff 	mov    %rax,-0x1d20(%rbp)
    beab:	8b 85 18 e0 ff ff    	mov    -0x1fe8(%rbp),%eax
    beb1:	41 89 c5             	mov    %eax,%r13d
    beb4:	48 8b 05 cd 7d 00 00 	mov    0x7dcd(%rip),%rax        # 13c88 <g_191>
    bebb:	0f b6 00             	movzbl (%rax),%eax
    bebe:	0f be d8             	movsbl %al,%ebx
    bec1:	be 08 00 00 00       	mov    $0x8,%esi
    bec6:	bf bf ef 00 00       	mov    $0xefbf,%edi
    becb:	e8 ee ae ff ff       	callq  6dbe <safe_lshift_func_uint16_t_u_s>
    bed0:	0f be c0             	movsbl %al,%eax
    bed3:	89 de                	mov    %ebx,%esi
    bed5:	89 c7                	mov    %eax,%edi
    bed7:	e8 55 a3 ff ff       	callq  6231 <safe_mod_func_int8_t_s_s>
    bedc:	66 44 0f be e0       	movsbw %al,%r12w
    bee1:	8b 15 75 61 00 00    	mov    0x6175(%rip),%edx        # 1205c <g_135>
    bee7:	48 8b 05 92 7d 00 00 	mov    0x7d92(%rip),%rax        # 13c80 <g_109>
    beee:	8b 00                	mov    (%rax),%eax
    bef0:	89 85 2c e0 ff ff    	mov    %eax,-0x1fd4(%rbp)
    bef6:	8b 85 2c e0 ff ff    	mov    -0x1fd4(%rbp),%eax
    befc:	85 c0                	test   %eax,%eax
    befe:	75 17                	jne    bf17 <func_70+0x3d4b>
    bf00:	48 8b 85 b8 e2 ff ff 	mov    -0x1d48(%rbp),%rax
    bf07:	8b 00                	mov    (%rax),%eax
    bf09:	8d 70 ff             	lea    -0x1(%rax),%esi
    bf0c:	48 8b 8d b8 e2 ff ff 	mov    -0x1d48(%rbp),%rcx
    bf13:	89 31                	mov    %esi,(%rcx)
    bf15:	85 c0                	test   %eax,%eax
    bf17:	48 8d 85 a2 e3 ff ff 	lea    -0x1c5e(%rbp),%rax
    bf1e:	48 39 85 d8 e2 ff ff 	cmp    %rax,-0x1d28(%rbp)
    bf25:	0f 95 c0             	setne  %al
    bf28:	0f b6 c8             	movzbl %al,%ecx
    bf2b:	0f b7 05 16 8c 00 00 	movzwl 0x8c16(%rip),%eax        # 14b48 <g_19>
    bf32:	98                   	cwtl   
    bf33:	39 c1                	cmp    %eax,%ecx
    bf35:	8b 85 94 e0 ff ff    	mov    -0x1f6c(%rbp),%eax
    bf3b:	98                   	cwtl   
    bf3c:	89 d6                	mov    %edx,%esi
    bf3e:	89 c7                	mov    %eax,%edi
    bf40:	e8 9c a5 ff ff       	callq  64e1 <safe_lshift_func_int16_t_s_u>
    bf45:	98                   	cwtl   
    bf46:	89 85 28 e0 ff ff    	mov    %eax,-0x1fd8(%rbp)
    bf4c:	8b 85 28 e0 ff ff    	mov    -0x1fd8(%rbp),%eax
    bf52:	0f bf d8             	movswl %ax,%ebx
    bf55:	48 8b 85 38 e1 ff ff 	mov    -0x1ec8(%rbp),%rax
    bf5c:	48 39 85 88 e2 ff ff 	cmp    %rax,-0x1d78(%rbp)
    bf63:	0f 94 c0             	sete   %al
    bf66:	0f b6 c0             	movzbl %al,%eax
    bf69:	89 c7                	mov    %eax,%edi
    bf6b:	e8 26 a6 ff ff       	callq  6596 <safe_unary_minus_func_int32_t_s>
    bf70:	0f b7 c0             	movzwl %ax,%eax
    bf73:	be 05 00 00 00       	mov    $0x5,%esi
    bf78:	89 c7                	mov    %eax,%edi
    bf7a:	e8 87 ae ff ff       	callq  6e06 <safe_lshift_func_uint16_t_u_u>
    bf7f:	98                   	cwtl   
    bf80:	89 de                	mov    %ebx,%esi
    bf82:	89 c7                	mov    %eax,%edi
    bf84:	e8 2a a4 ff ff       	callq  63b3 <safe_add_func_int16_t_s_s>
    bf89:	66 41 39 c4          	cmp    %ax,%r12w
    bf8d:	7e 0a                	jle    bf99 <func_70+0x3dcd>
    bf8f:	8b 85 f4 df ff ff    	mov    -0x200c(%rbp),%eax
    bf95:	85 c0                	test   %eax,%eax
    bf97:	74 07                	je     bfa0 <func_70+0x3dd4>
    bf99:	b8 01 00 00 00       	mov    $0x1,%eax
    bf9e:	eb 05                	jmp    bfa5 <func_70+0x3dd9>
    bfa0:	b8 00 00 00 00       	mov    $0x0,%eax
    bfa5:	89 c2                	mov    %eax,%edx
    bfa7:	48 8b 85 80 e2 ff ff 	mov    -0x1d80(%rbp),%rax
    bfae:	8b 00                	mov    (%rax),%eax
    bfb0:	21 d0                	and    %edx,%eax
    bfb2:	0f be c0             	movsbl %al,%eax
    bfb5:	44 89 ee             	mov    %r13d,%esi
    bfb8:	89 c7                	mov    %eax,%edi
    bfba:	e8 ad a3 ff ff       	callq  636c <safe_rshift_func_int8_t_s_u>
    bfbf:	0f be d0             	movsbl %al,%edx
    bfc2:	8b 85 1c e0 ff ff    	mov    -0x1fe4(%rbp),%eax
    bfc8:	39 c2                	cmp    %eax,%edx
    bfca:	0f 9e c0             	setle  %al
    bfcd:	0f b6 d0             	movzbl %al,%edx
    bfd0:	48 8b 85 60 e2 ff ff 	mov    -0x1da0(%rbp),%rax
    bfd7:	48 8b 00             	mov    (%rax),%rax
    bfda:	8b 00                	mov    (%rax),%eax
    bfdc:	31 d0                	xor    %edx,%eax
    bfde:	83 f8 07             	cmp    $0x7,%eax
    bfe1:	0f 96 c0             	setbe  %al
    bfe4:	0f b6 d0             	movzbl %al,%edx
    bfe7:	8b 85 24 e0 ff ff    	mov    -0x1fdc(%rbp),%eax
    bfed:	09 d0                	or     %edx,%eax
    bfef:	89 85 24 e0 ff ff    	mov    %eax,-0x1fdc(%rbp)
    bff5:	48 8b 85 60 e2 ff ff 	mov    -0x1da0(%rbp),%rax
    bffc:	48 8b 00             	mov    (%rax),%rax
    bfff:	8b 18                	mov    (%rax),%ebx
    c001:	48 8b 85 70 e2 ff ff 	mov    -0x1d90(%rbp),%rax
    c008:	0f b6 d0             	movzbl %al,%edx
    c00b:	48 8b 85 68 e2 ff ff 	mov    -0x1d98(%rbp),%rax
    c012:	48 89 05 97 7c 00 00 	mov    %rax,0x7c97(%rip)        # 13cb0 <g_349+0x10>
    c019:	48 8b b5 60 e4 ff ff 	mov    -0x1ba0(%rbp),%rsi
    c020:	48 8b 85 e0 e2 ff ff 	mov    -0x1d20(%rbp),%rax
    c027:	48 8d 8d f4 df ff ff 	lea    -0x200c(%rbp),%rcx
    c02e:	48 89 08             	mov    %rcx,(%rax)
    c031:	48 8b 85 e0 e2 ff ff 	mov    -0x1d20(%rbp),%rax
    c038:	48 8b 00             	mov    (%rax),%rax
    c03b:	48 39 c6             	cmp    %rax,%rsi
    c03e:	0f 95 c0             	setne  %al
    c041:	0f b6 c0             	movzbl %al,%eax
    c044:	89 d6                	mov    %edx,%esi
    c046:	89 c7                	mov    %eax,%edi
    c048:	e8 8e ab ff ff       	callq  6bdb <safe_div_func_uint8_t_u_u>
    c04d:	3c 04                	cmp    $0x4,%al
    c04f:	0f 96 c0             	setbe  %al
    c052:	0f b6 c0             	movzbl %al,%eax
    c055:	89 de                	mov    %ebx,%esi
    c057:	89 c7                	mov    %eax,%edi
    c059:	e8 2f ac ff ff       	callq  6c8d <safe_rshift_func_uint8_t_u_s>
    c05e:	89 c2                	mov    %eax,%edx
    c060:	48 8b 85 60 e2 ff ff 	mov    -0x1da0(%rbp),%rax
    c067:	48 8b 00             	mov    (%rax),%rax
    c06a:	0f b6 d2             	movzbl %dl,%edx
    c06d:	89 10                	mov    %edx,(%rax)
    c06f:	8b 05 e7 5f 00 00    	mov    0x5fe7(%rip),%eax        # 1205c <g_135>
    c075:	e9 3c 20 00 00       	jmpq   e0b6 <func_70+0x5eea>
    c07a:	8b 85 28 e0 ff ff    	mov    -0x1fd8(%rbp),%eax
    c080:	85 c0                	test   %eax,%eax
    c082:	0f 85 0c 18 00 00    	jne    d894 <func_70+0x56c8>
    c088:	8b 85 f4 df ff ff    	mov    -0x200c(%rbp),%eax
    c08e:	e9 23 20 00 00       	jmpq   e0b6 <func_70+0x5eea>
    c093:	48 8d 85 50 e1 ff ff 	lea    -0x1eb0(%rbp),%rax
    c09a:	48 89 85 98 e2 ff ff 	mov    %rax,-0x1d68(%rbp)
    c0a1:	48 8d 05 b8 5f 00 00 	lea    0x5fb8(%rip),%rax        # 12060 <g_169>
    c0a8:	48 89 85 60 e1 ff ff 	mov    %rax,-0x1ea0(%rbp)
    c0af:	48 8d 85 60 e1 ff ff 	lea    -0x1ea0(%rbp),%rax
    c0b6:	48 89 85 a0 e2 ff ff 	mov    %rax,-0x1d60(%rbp)
    c0bd:	c7 85 50 e0 ff ff 00 	movl   $0x0,-0x1fb0(%rbp)
    c0c4:	00 00 00 
    c0c7:	eb 1a                	jmp    c0e3 <func_70+0x3f17>
    c0c9:	8b 85 50 e0 ff ff    	mov    -0x1fb0(%rbp),%eax
    c0cf:	48 98                	cltq   
    c0d1:	c7 84 85 90 e6 ff ff 	movl   $0xfffffffc,-0x1970(%rbp,%rax,4)
    c0d8:	fc ff ff ff 
    c0dc:	83 85 50 e0 ff ff 01 	addl   $0x1,-0x1fb0(%rbp)
    c0e3:	83 bd 50 e0 ff ff 07 	cmpl   $0x7,-0x1fb0(%rbp)
    c0ea:	7e dd                	jle    c0c9 <func_70+0x3efd>
    c0ec:	48 8b 95 50 e1 ff ff 	mov    -0x1eb0(%rbp),%rdx
    c0f3:	48 8b 85 98 e2 ff ff 	mov    -0x1d68(%rbp),%rax
    c0fa:	48 89 10             	mov    %rdx,(%rax)
    c0fd:	48 8b 85 98 e2 ff ff 	mov    -0x1d68(%rbp),%rax
    c104:	48 8b 00             	mov    (%rax),%rax
    c107:	48 39 85 40 e2 ff ff 	cmp    %rax,-0x1dc0(%rbp)
    c10e:	0f 95 c0             	setne  %al
    c111:	0f b6 c8             	movzbl %al,%ecx
    c114:	48 8b 85 a0 e2 ff ff 	mov    -0x1d60(%rbp),%rax
    c11b:	48 8d 95 ec df ff ff 	lea    -0x2014(%rbp),%rdx
    c122:	48 89 10             	mov    %rdx,(%rax)
    c125:	48 8b 85 a0 e2 ff ff 	mov    -0x1d60(%rbp),%rax
    c12c:	48 8b 10             	mov    (%rax),%rdx
    c12f:	48 8d 85 ec df ff ff 	lea    -0x2014(%rbp),%rax
    c136:	48 39 c2             	cmp    %rax,%rdx
    c139:	0f 94 c0             	sete   %al
    c13c:	0f b6 c0             	movzbl %al,%eax
    c13f:	39 c1                	cmp    %eax,%ecx
    c141:	8b 85 ec df ff ff    	mov    -0x2014(%rbp),%eax
    c147:	41 89 c4             	mov    %eax,%r12d
    c14a:	48 8b 85 80 e2 ff ff 	mov    -0x1d80(%rbp),%rax
    c151:	8b 00                	mov    (%rax),%eax
    c153:	0f bf d8             	movswl %ax,%ebx
    c156:	8b 95 90 e6 ff ff    	mov    -0x1970(%rbp),%edx
    c15c:	8b 85 94 e0 ff ff    	mov    -0x1f6c(%rbp),%eax
    c162:	89 d6                	mov    %edx,%esi
    c164:	89 c7                	mov    %eax,%edi
    c166:	e8 4b a4 ff ff       	callq  65b6 <safe_add_func_int32_t_s_s>
    c16b:	0f b7 c0             	movzwl %ax,%eax
    c16e:	be 0d 00 00 00       	mov    $0xd,%esi
    c173:	89 c7                	mov    %eax,%edi
    c175:	e8 44 ac ff ff       	callq  6dbe <safe_lshift_func_uint16_t_u_s>
    c17a:	98                   	cwtl   
    c17b:	89 de                	mov    %ebx,%esi
    c17d:	89 c7                	mov    %eax,%edi
    c17f:	e8 71 a2 ff ff       	callq  63f5 <safe_mul_func_int16_t_s_s>
    c184:	0f b6 c0             	movzbl %al,%eax
    c187:	44 89 e6             	mov    %r12d,%esi
    c18a:	89 c7                	mov    %eax,%edi
    c18c:	e8 74 aa ff ff       	callq  6c05 <safe_lshift_func_uint8_t_u_s>
    c191:	8b 85 f4 df ff ff    	mov    -0x200c(%rbp),%eax
    c197:	0f b6 c0             	movzbl %al,%eax
    c19a:	be 01 00 00 00       	mov    $0x1,%esi
    c19f:	89 c7                	mov    %eax,%edi
    c1a1:	e8 b4 a9 ff ff       	callq  6b5a <safe_add_func_uint8_t_u_u>
    c1a6:	0f b6 d0             	movzbl %al,%edx
    c1a9:	8b 85 f4 df ff ff    	mov    -0x200c(%rbp),%eax
    c1af:	85 c0                	test   %eax,%eax
    c1b1:	0f 95 c0             	setne  %al
    c1b4:	0f b6 c0             	movzbl %al,%eax
    c1b7:	39 c2                	cmp    %eax,%edx
    c1b9:	0f 9f c0             	setg   %al
    c1bc:	0f b6 d0             	movzbl %al,%edx
    c1bf:	48 8b 05 c2 7a 00 00 	mov    0x7ac2(%rip),%rax        # 13c88 <g_191>
    c1c6:	0f b6 00             	movzbl (%rax),%eax
    c1c9:	0f b6 c0             	movzbl %al,%eax
    c1cc:	31 c2                	xor    %eax,%edx
    c1ce:	8b 85 90 e6 ff ff    	mov    -0x1970(%rbp),%eax
    c1d4:	39 c2                	cmp    %eax,%edx
    c1d6:	0f 94 c2             	sete   %dl
    c1d9:	48 8b 85 60 e2 ff ff 	mov    -0x1da0(%rbp),%rax
    c1e0:	48 8b 00             	mov    (%rax),%rax
    c1e3:	0f b6 d2             	movzbl %dl,%edx
    c1e6:	89 10                	mov    %edx,(%rax)
    c1e8:	8b 00                	mov    (%rax),%eax
    c1ea:	85 c0                	test   %eax,%eax
    c1ec:	0f 84 3a 01 00 00    	je     c32c <func_70+0x4160>
    c1f2:	8b 85 f4 df ff ff    	mov    -0x200c(%rbp),%eax
    c1f8:	85 c0                	test   %eax,%eax
    c1fa:	0f 85 97 16 00 00    	jne    d897 <func_70+0x56cb>
    c200:	48 8b 05 e1 61 00 00 	mov    0x61e1(%rip),%rax        # 123e8 <g_246+0x8>
    c207:	48 85 c0             	test   %rax,%rax
    c20a:	48 8b 05 6f 7a 00 00 	mov    0x7a6f(%rip),%rax        # 13c80 <g_109>
    c211:	8b 00                	mov    (%rax),%eax
    c213:	83 f8 05             	cmp    $0x5,%eax
    c216:	48 c7 85 48 e2 ff ff 	movq   $0x0,-0x1db8(%rbp)
    c21d:	00 00 00 00 
    c221:	8b 85 ec df ff ff    	mov    -0x2014(%rbp),%eax
    c227:	0f b6 d8             	movzbl %al,%ebx
    c22a:	48 8d 05 19 89 00 00 	lea    0x8919(%rip),%rax        # 14b4a <g_19+0x2>
    c231:	0f b7 00             	movzwl (%rax),%eax
    c234:	0f b7 d0             	movzwl %ax,%edx
    c237:	48 8b 85 60 e2 ff ff 	mov    -0x1da0(%rbp),%rax
    c23e:	48 8b 00             	mov    (%rax),%rax
    c241:	c7 00 ff ff ff ff    	movl   $0xffffffff,(%rax)
    c247:	8b 00                	mov    (%rax),%eax
    c249:	89 c1                	mov    %eax,%ecx
    c24b:	8b 05 0f 5e 00 00    	mov    0x5e0f(%rip),%eax        # 12060 <g_169>
    c251:	31 c1                	xor    %eax,%ecx
    c253:	8b 85 f4 df ff ff    	mov    -0x200c(%rbp),%eax
    c259:	39 c1                	cmp    %eax,%ecx
    c25b:	0f 95 c0             	setne  %al
    c25e:	0f b6 c8             	movzbl %al,%ecx
    c261:	48 8b 05 20 7a 00 00 	mov    0x7a20(%rip),%rax        # 13c88 <g_191>
    c268:	0f b6 00             	movzbl (%rax),%eax
    c26b:	0f b6 c0             	movzbl %al,%eax
    c26e:	09 c1                	or     %eax,%ecx
    c270:	8b 85 d8 e9 ff ff    	mov    -0x1628(%rbp),%eax
    c276:	39 c1                	cmp    %eax,%ecx
    c278:	0f 9d c0             	setge  %al
    c27b:	0f b6 c0             	movzbl %al,%eax
    c27e:	89 d6                	mov    %edx,%esi
    c280:	89 c7                	mov    %eax,%edi
    c282:	e8 78 aa ff ff       	callq  6cff <safe_add_func_uint16_t_u_u>
    c287:	0f b6 c0             	movzbl %al,%eax
    c28a:	89 de                	mov    %ebx,%esi
    c28c:	89 c7                	mov    %eax,%edi
    c28e:	e8 e5 a8 ff ff       	callq  6b78 <safe_sub_func_uint8_t_u_u>
    c293:	0f b6 c0             	movzbl %al,%eax
    c296:	83 e0 01             	and    $0x1,%eax
    c299:	48 83 f8 02          	cmp    $0x2,%rax
    c29d:	0f 97 c0             	seta   %al
    c2a0:	0f b6 c0             	movzbl %al,%eax
    c2a3:	be 00 00 00 00       	mov    $0x0,%esi
    c2a8:	89 c7                	mov    %eax,%edi
    c2aa:	e8 24 a1 ff ff       	callq  63d3 <safe_sub_func_int16_t_s_s>
    c2af:	66 85 c0             	test   %ax,%ax
    c2b2:	74 11                	je     c2c5 <func_70+0x40f9>
    c2b4:	8b 85 f4 df ff ff    	mov    -0x200c(%rbp),%eax
    c2ba:	85 c0                	test   %eax,%eax
    c2bc:	74 07                	je     c2c5 <func_70+0x40f9>
    c2be:	b8 01 00 00 00       	mov    $0x1,%eax
    c2c3:	eb 05                	jmp    c2ca <func_70+0x40fe>
    c2c5:	b8 00 00 00 00       	mov    $0x0,%eax
    c2ca:	0f be c0             	movsbl %al,%eax
    c2cd:	be 06 00 00 00       	mov    $0x6,%esi
    c2d2:	89 c7                	mov    %eax,%edi
    c2d4:	e8 93 a0 ff ff       	callq  636c <safe_rshift_func_int8_t_s_u>
    c2d9:	3c fb                	cmp    $0xfb,%al
    c2db:	0f 9d c0             	setge  %al
    c2de:	0f b6 d0             	movzbl %al,%edx
    c2e1:	8b 85 ec df ff ff    	mov    -0x2014(%rbp),%eax
    c2e7:	39 c2                	cmp    %eax,%edx
    c2e9:	0f 95 c0             	setne  %al
    c2ec:	0f b6 c0             	movzbl %al,%eax
    c2ef:	48 c7 c6 ff ff ff ff 	mov    $0xffffffffffffffff,%rsi
    c2f6:	48 89 c7             	mov    %rax,%rdi
    c2f9:	e8 f9 a6 ff ff       	callq  69f7 <safe_div_func_int64_t_s_s>
    c2fe:	48 85 c0             	test   %rax,%rax
    c301:	0f 94 c0             	sete   %al
    c304:	0f b6 c0             	movzbl %al,%eax
    c307:	89 c2                	mov    %eax,%edx
    c309:	0f b6 05 4c 61 00 00 	movzbl 0x614c(%rip),%eax        # 1245c <g_382>
    c310:	31 d0                	xor    %edx,%eax
    c312:	88 05 44 61 00 00    	mov    %al,0x6144(%rip)        # 1245c <g_382>
    c318:	48 8b 05 61 79 00 00 	mov    0x7961(%rip),%rax        # 13c80 <g_109>
    c31f:	8b 10                	mov    (%rax),%edx
    c321:	48 8b 85 80 e2 ff ff 	mov    -0x1d80(%rbp),%rax
    c328:	89 10                	mov    %edx,(%rax)
    c32a:	eb 41                	jmp    c36d <func_70+0x41a1>
    c32c:	c7 85 54 e0 ff ff 00 	movl   $0x0,-0x1fac(%rbp)
    c333:	00 00 00 
    c336:	eb 1b                	jmp    c353 <func_70+0x4187>
    c338:	8b 85 54 e0 ff ff    	mov    -0x1fac(%rbp),%eax
    c33e:	48 98                	cltq   
    c340:	48 c7 84 c5 50 f0 ff 	movq   $0x0,-0xfb0(%rbp,%rax,8)
    c347:	ff 00 00 00 00 
    c34c:	83 85 54 e0 ff ff 01 	addl   $0x1,-0x1fac(%rbp)
    c353:	83 bd 54 e0 ff ff 07 	cmpl   $0x7,-0x1fac(%rbp)
    c35a:	7e dc                	jle    c338 <func_70+0x416c>
    c35c:	48 8b 05 65 79 00 00 	mov    0x7965(%rip),%rax        # 13cc8 <g_387>
    c363:	48 8d 15 4e 79 00 00 	lea    0x794e(%rip),%rdx        # 13cb8 <g_384>
    c36a:	48 89 10             	mov    %rdx,(%rax)
    c36d:	8b 85 f0 df ff ff    	mov    -0x2010(%rbp),%eax
    c373:	85 c0                	test   %eax,%eax
    c375:	0f 85 b9 07 00 00    	jne    cb34 <func_70+0x4968>
    c37b:	8b 05 e3 60 00 00    	mov    0x60e3(%rip),%eax        # 12464 <g_390>
    c381:	83 e8 01             	sub    $0x1,%eax
    c384:	89 05 da 60 00 00    	mov    %eax,0x60da(%rip)        # 12464 <g_390>
    c38a:	48 c7 05 eb 5e 00 00 	movq   $0x0,0x5eeb(%rip)        # 12280 <g_224>
    c391:	00 00 00 00 
    c395:	e9 89 07 00 00       	jmpq   cb23 <func_70+0x4957>
    c39a:	48 c7 85 b0 e4 ff ff 	movq   $0x0,-0x1b50(%rbp)
    c3a1:	00 00 00 00 
    c3a5:	48 c7 85 b8 e4 ff ff 	movq   $0x0,-0x1b48(%rbp)
    c3ac:	00 00 00 00 
    c3b0:	48 c7 85 c0 e4 ff ff 	movq   $0x0,-0x1b40(%rbp)
    c3b7:	00 00 00 00 
    c3bb:	48 c7 85 c8 e4 ff ff 	movq   $0x0,-0x1b38(%rbp)
    c3c2:	00 00 00 00 
    c3c6:	48 c7 85 d0 e4 ff ff 	movq   $0x0,-0x1b30(%rbp)
    c3cd:	00 00 00 00 
    c3d1:	48 c7 85 d8 e4 ff ff 	movq   $0x0,-0x1b28(%rbp)
    c3d8:	00 00 00 00 
    c3dc:	48 c7 85 e0 e4 ff ff 	movq   $0x0,-0x1b20(%rbp)
    c3e3:	00 00 00 00 
    c3e7:	48 c7 85 e8 e4 ff ff 	movq   $0x0,-0x1b18(%rbp)
    c3ee:	00 00 00 00 
    c3f2:	c7 85 a4 e0 ff ff 53 	movl   $0x4e482c53,-0x1f5c(%rbp)
    c3f9:	2c 48 4e 
    c3fc:	66 c7 85 10 e0 ff ff 	movw   $0xfffd,-0x1ff0(%rbp)
    c403:	fd ff 
    c405:	c7 85 a8 e0 ff ff a4 	movl   $0xd7d036a4,-0x1f58(%rbp)
    c40c:	36 d0 d7 
    c40f:	48 8d 05 f2 75 00 00 	lea    0x75f2(%rip),%rax        # 13a08 <g_54>
    c416:	48 89 85 30 e3 ff ff 	mov    %rax,-0x1cd0(%rbp)
    c41d:	48 8d 05 3c 78 00 00 	lea    0x783c(%rip),%rax        # 13c60 <g_92>
    c424:	48 89 85 a0 e5 ff ff 	mov    %rax,-0x1a60(%rbp)
    c42b:	48 8d 05 36 78 00 00 	lea    0x7836(%rip),%rax        # 13c68 <g_92+0x8>
    c432:	48 89 85 a8 e5 ff ff 	mov    %rax,-0x1a58(%rbp)
    c439:	48 8d 85 f0 e4 ff ff 	lea    -0x1b10(%rbp),%rax
    c440:	48 83 c0 28          	add    $0x28,%rax
    c444:	48 89 85 b0 e5 ff ff 	mov    %rax,-0x1a50(%rbp)
    c44b:	48 8d 85 f0 e4 ff ff 	lea    -0x1b10(%rbp),%rax
    c452:	48 83 c0 28          	add    $0x28,%rax
    c456:	48 89 85 b8 e5 ff ff 	mov    %rax,-0x1a48(%rbp)
    c45d:	48 8d 05 04 78 00 00 	lea    0x7804(%rip),%rax        # 13c68 <g_92+0x8>
    c464:	48 89 85 c0 e5 ff ff 	mov    %rax,-0x1a40(%rbp)
    c46b:	48 8d 05 ee 77 00 00 	lea    0x77ee(%rip),%rax        # 13c60 <g_92>
    c472:	48 89 85 c8 e5 ff ff 	mov    %rax,-0x1a38(%rbp)
    c479:	48 8d 05 e8 77 00 00 	lea    0x77e8(%rip),%rax        # 13c68 <g_92+0x8>
    c480:	48 89 85 d0 e5 ff ff 	mov    %rax,-0x1a30(%rbp)
    c487:	48 8d 85 f0 e4 ff ff 	lea    -0x1b10(%rbp),%rax
    c48e:	48 83 c0 28          	add    $0x28,%rax
    c492:	48 89 85 d8 e5 ff ff 	mov    %rax,-0x1a28(%rbp)
    c499:	48 8d 85 f0 e4 ff ff 	lea    -0x1b10(%rbp),%rax
    c4a0:	48 83 c0 28          	add    $0x28,%rax
    c4a4:	48 89 85 e0 e5 ff ff 	mov    %rax,-0x1a20(%rbp)
    c4ab:	48 8d 05 b6 77 00 00 	lea    0x77b6(%rip),%rax        # 13c68 <g_92+0x8>
    c4b2:	48 89 85 e8 e5 ff ff 	mov    %rax,-0x1a18(%rbp)
    c4b9:	48 8d 05 a0 77 00 00 	lea    0x77a0(%rip),%rax        # 13c60 <g_92>
    c4c0:	48 89 85 f0 e5 ff ff 	mov    %rax,-0x1a10(%rbp)
    c4c7:	48 8d 05 9a 77 00 00 	lea    0x779a(%rip),%rax        # 13c68 <g_92+0x8>
    c4ce:	48 89 85 f8 e5 ff ff 	mov    %rax,-0x1a08(%rbp)
    c4d5:	48 8d 85 f0 e4 ff ff 	lea    -0x1b10(%rbp),%rax
    c4dc:	48 83 c0 28          	add    $0x28,%rax
    c4e0:	48 89 85 00 e6 ff ff 	mov    %rax,-0x1a00(%rbp)
    c4e7:	48 8d 85 f0 e4 ff ff 	lea    -0x1b10(%rbp),%rax
    c4ee:	48 83 c0 28          	add    $0x28,%rax
    c4f2:	48 89 85 08 e6 ff ff 	mov    %rax,-0x19f8(%rbp)
    c4f9:	48 8d 05 68 77 00 00 	lea    0x7768(%rip),%rax        # 13c68 <g_92+0x8>
    c500:	48 89 85 10 e6 ff ff 	mov    %rax,-0x19f0(%rbp)
    c507:	48 8d 05 52 77 00 00 	lea    0x7752(%rip),%rax        # 13c60 <g_92>
    c50e:	48 89 85 18 e6 ff ff 	mov    %rax,-0x19e8(%rbp)
    c515:	48 8d 05 4c 77 00 00 	lea    0x774c(%rip),%rax        # 13c68 <g_92+0x8>
    c51c:	48 89 85 20 e6 ff ff 	mov    %rax,-0x19e0(%rbp)
    c523:	48 8d 85 f0 e4 ff ff 	lea    -0x1b10(%rbp),%rax
    c52a:	48 83 c0 28          	add    $0x28,%rax
    c52e:	48 89 85 28 e6 ff ff 	mov    %rax,-0x19d8(%rbp)
    c535:	48 8d 85 f0 e4 ff ff 	lea    -0x1b10(%rbp),%rax
    c53c:	48 83 c0 28          	add    $0x28,%rax
    c540:	48 89 85 30 e6 ff ff 	mov    %rax,-0x19d0(%rbp)
    c547:	48 8d 05 1a 77 00 00 	lea    0x771a(%rip),%rax        # 13c68 <g_92+0x8>
    c54e:	48 89 85 38 e6 ff ff 	mov    %rax,-0x19c8(%rbp)
    c555:	48 8d 05 04 77 00 00 	lea    0x7704(%rip),%rax        # 13c60 <g_92>
    c55c:	48 89 85 40 e6 ff ff 	mov    %rax,-0x19c0(%rbp)
    c563:	48 8d 05 fe 76 00 00 	lea    0x76fe(%rip),%rax        # 13c68 <g_92+0x8>
    c56a:	48 89 85 48 e6 ff ff 	mov    %rax,-0x19b8(%rbp)
    c571:	48 8d 85 f0 e4 ff ff 	lea    -0x1b10(%rbp),%rax
    c578:	48 83 c0 28          	add    $0x28,%rax
    c57c:	48 89 85 50 e6 ff ff 	mov    %rax,-0x19b0(%rbp)
    c583:	48 8d 85 f0 e4 ff ff 	lea    -0x1b10(%rbp),%rax
    c58a:	48 83 c0 28          	add    $0x28,%rax
    c58e:	48 89 85 58 e6 ff ff 	mov    %rax,-0x19a8(%rbp)
    c595:	48 8d 05 cc 76 00 00 	lea    0x76cc(%rip),%rax        # 13c68 <g_92+0x8>
    c59c:	48 89 85 60 e6 ff ff 	mov    %rax,-0x19a0(%rbp)
    c5a3:	48 8d 05 b6 76 00 00 	lea    0x76b6(%rip),%rax        # 13c60 <g_92>
    c5aa:	48 89 85 68 e6 ff ff 	mov    %rax,-0x1998(%rbp)
    c5b1:	48 8d 05 b0 76 00 00 	lea    0x76b0(%rip),%rax        # 13c68 <g_92+0x8>
    c5b8:	48 89 85 70 e6 ff ff 	mov    %rax,-0x1990(%rbp)
    c5bf:	48 8d 85 f0 e4 ff ff 	lea    -0x1b10(%rbp),%rax
    c5c6:	48 83 c0 28          	add    $0x28,%rax
    c5ca:	48 89 85 78 e6 ff ff 	mov    %rax,-0x1988(%rbp)
    c5d1:	48 8d 85 f0 e4 ff ff 	lea    -0x1b10(%rbp),%rax
    c5d8:	48 83 c0 28          	add    $0x28,%rax
    c5dc:	48 89 85 80 e6 ff ff 	mov    %rax,-0x1980(%rbp)
    c5e3:	48 8d 05 7e 76 00 00 	lea    0x767e(%rip),%rax        # 13c68 <g_92+0x8>
    c5ea:	48 89 85 88 e6 ff ff 	mov    %rax,-0x1978(%rbp)
    c5f1:	66 c7 05 66 85 00 00 	movw   $0x7,0x8566(%rip)        # 14b60 <g_222>
    c5f8:	07 00 
    c5fa:	e9 ed 04 00 00       	jmpq   caec <func_70+0x4920>
    c5ff:	48 b8 fd 84 e4 5d 30 	movabs $0xf3253305de484fd,%rax
    c606:	53 32 0f 
    c609:	48 89 85 38 e3 ff ff 	mov    %rax,-0x1cc8(%rbp)
    c610:	c7 85 ac e0 ff ff 00 	movl   $0x0,-0x1f54(%rbp)
    c617:	00 00 00 
    c61a:	c7 85 b0 e0 ff ff f6 	movl   $0xfffffff6,-0x1f50(%rbp)
    c621:	ff ff ff 
    c624:	c7 85 b0 e3 ff ff b0 	movl   $0x782050b0,-0x1c50(%rbp)
    c62b:	50 20 78 
    c62e:	c7 85 b4 e3 ff ff b0 	movl   $0x782050b0,-0x1c4c(%rbp)
    c635:	50 20 78 
    c638:	c7 85 b8 e3 ff ff b0 	movl   $0x782050b0,-0x1c48(%rbp)
    c63f:	50 20 78 
    c642:	c7 85 bc e3 ff ff b0 	movl   $0x782050b0,-0x1c44(%rbp)
    c649:	50 20 78 
    c64c:	48 c7 85 40 e3 ff ff 	movq   $0x0,-0x1cc0(%rbp)
    c653:	00 00 00 00 
    c657:	48 c7 85 48 e3 ff ff 	movq   $0x0,-0x1cb8(%rbp)
    c65e:	00 00 00 00 
    c662:	48 8d 85 50 f0 ff ff 	lea    -0xfb0(%rbp),%rax
    c669:	48 8d 15 f0 65 00 00 	lea    0x65f0(%rip),%rdx        # 12c60 <g_1184+0x424>
    c670:	b9 2d 00 00 00       	mov    $0x2d,%ecx
    c675:	48 89 c7             	mov    %rax,%rdi
    c678:	48 89 d6             	mov    %rdx,%rsi
    c67b:	f3 48 a5             	rep movsq %ds:(%rsi),%es:(%rdi)
    c67e:	c7 85 b4 e0 ff ff 00 	movl   $0x0,-0x1f4c(%rbp)
    c685:	00 00 00 
    c688:	48 c7 85 40 e5 ff ff 	movq   $0x0,-0x1ac0(%rbp)
    c68f:	00 00 00 00 
    c693:	48 8d 05 ee 75 00 00 	lea    0x75ee(%rip),%rax        # 13c88 <g_191>
    c69a:	48 89 85 48 e5 ff ff 	mov    %rax,-0x1ab8(%rbp)
    c6a1:	48 c7 85 50 e5 ff ff 	movq   $0x0,-0x1ab0(%rbp)
    c6a8:	00 00 00 00 
    c6ac:	48 8d 05 d5 75 00 00 	lea    0x75d5(%rip),%rax        # 13c88 <g_191>
    c6b3:	48 89 85 58 e5 ff ff 	mov    %rax,-0x1aa8(%rbp)
    c6ba:	48 c7 85 60 e5 ff ff 	movq   $0x0,-0x1aa0(%rbp)
    c6c1:	00 00 00 00 
    c6c5:	48 8d 05 bc 75 00 00 	lea    0x75bc(%rip),%rax        # 13c88 <g_191>
    c6cc:	48 89 85 68 e5 ff ff 	mov    %rax,-0x1a98(%rbp)
    c6d3:	48 c7 85 70 e5 ff ff 	movq   $0x0,-0x1a90(%rbp)
    c6da:	00 00 00 00 
    c6de:	48 8d 05 a3 75 00 00 	lea    0x75a3(%rip),%rax        # 13c88 <g_191>
    c6e5:	48 89 85 78 e5 ff ff 	mov    %rax,-0x1a88(%rbp)
    c6ec:	48 c7 85 80 e5 ff ff 	movq   $0x0,-0x1a80(%rbp)
    c6f3:	00 00 00 00 
    c6f7:	48 8d 05 8a 75 00 00 	lea    0x758a(%rip),%rax        # 13c88 <g_191>
    c6fe:	48 89 85 88 e5 ff ff 	mov    %rax,-0x1a78(%rbp)
    c705:	48 c7 85 90 e5 ff ff 	movq   $0x0,-0x1a70(%rbp)
    c70c:	00 00 00 00 
    c710:	48 8d 05 71 75 00 00 	lea    0x7571(%rip),%rax        # 13c88 <g_191>
    c717:	48 89 85 98 e5 ff ff 	mov    %rax,-0x1a68(%rbp)
    c71e:	48 8d 85 f0 e4 ff ff 	lea    -0x1b10(%rbp),%rax
    c725:	48 83 c0 28          	add    $0x28,%rax
    c729:	48 89 85 90 e6 ff ff 	mov    %rax,-0x1970(%rbp)
    c730:	48 8d 85 f0 e4 ff ff 	lea    -0x1b10(%rbp),%rax
    c737:	48 83 c0 28          	add    $0x28,%rax
    c73b:	48 89 85 98 e6 ff ff 	mov    %rax,-0x1968(%rbp)
    c742:	48 8d 85 f0 e4 ff ff 	lea    -0x1b10(%rbp),%rax
    c749:	48 83 c0 28          	add    $0x28,%rax
    c74d:	48 89 85 a0 e6 ff ff 	mov    %rax,-0x1960(%rbp)
    c754:	48 c7 85 a8 e6 ff ff 	movq   $0x0,-0x1958(%rbp)
    c75b:	00 00 00 00 
    c75f:	48 8d 05 0a 75 00 00 	lea    0x750a(%rip),%rax        # 13c70 <g_92+0x10>
    c766:	48 89 85 b0 e6 ff ff 	mov    %rax,-0x1950(%rbp)
    c76d:	48 8d 85 f0 e4 ff ff 	lea    -0x1b10(%rbp),%rax
    c774:	48 83 c0 18          	add    $0x18,%rax
    c778:	48 89 85 b8 e6 ff ff 	mov    %rax,-0x1948(%rbp)
    c77f:	48 8d 85 f0 e4 ff ff 	lea    -0x1b10(%rbp),%rax
    c786:	48 83 c0 18          	add    $0x18,%rax
    c78a:	48 89 85 c0 e6 ff ff 	mov    %rax,-0x1940(%rbp)
    c791:	48 8d 85 f0 e4 ff ff 	lea    -0x1b10(%rbp),%rax
    c798:	48 83 c0 18          	add    $0x18,%rax
    c79c:	48 89 85 c8 e6 ff ff 	mov    %rax,-0x1938(%rbp)
    c7a3:	48 8d 85 f0 e4 ff ff 	lea    -0x1b10(%rbp),%rax
    c7aa:	48 83 c0 18          	add    $0x18,%rax
    c7ae:	48 89 85 d0 e6 ff ff 	mov    %rax,-0x1930(%rbp)
    c7b5:	48 8d 05 b4 74 00 00 	lea    0x74b4(%rip),%rax        # 13c70 <g_92+0x10>
    c7bc:	48 89 85 d8 e6 ff ff 	mov    %rax,-0x1928(%rbp)
    c7c3:	48 c7 85 e0 e6 ff ff 	movq   $0x0,-0x1920(%rbp)
    c7ca:	00 00 00 00 
    c7ce:	48 8d 05 93 74 00 00 	lea    0x7493(%rip),%rax        # 13c68 <g_92+0x8>
    c7d5:	48 89 85 e8 e6 ff ff 	mov    %rax,-0x1918(%rbp)
    c7dc:	48 8d 05 85 74 00 00 	lea    0x7485(%rip),%rax        # 13c68 <g_92+0x8>
    c7e3:	48 89 85 f0 e6 ff ff 	mov    %rax,-0x1910(%rbp)
    c7ea:	48 c7 85 f8 e6 ff ff 	movq   $0x0,-0x1908(%rbp)
    c7f1:	00 00 00 00 
    c7f5:	48 8d 85 f0 e4 ff ff 	lea    -0x1b10(%rbp),%rax
    c7fc:	48 83 c0 28          	add    $0x28,%rax
    c800:	48 89 85 00 e7 ff ff 	mov    %rax,-0x1900(%rbp)
    c807:	48 8d 85 f0 e4 ff ff 	lea    -0x1b10(%rbp),%rax
    c80e:	48 83 c0 30          	add    $0x30,%rax
    c812:	48 89 85 08 e7 ff ff 	mov    %rax,-0x18f8(%rbp)
    c819:	48 c7 85 10 e7 ff ff 	movq   $0x0,-0x18f0(%rbp)
    c820:	00 00 00 00 
    c824:	48 8d 85 f0 e4 ff ff 	lea    -0x1b10(%rbp),%rax
    c82b:	48 83 c0 18          	add    $0x18,%rax
    c82f:	48 89 85 18 e7 ff ff 	mov    %rax,-0x18e8(%rbp)
    c836:	48 c7 85 20 e7 ff ff 	movq   $0x0,-0x18e0(%rbp)
    c83d:	00 00 00 00 
    c841:	48 8d 85 f0 e4 ff ff 	lea    -0x1b10(%rbp),%rax
    c848:	48 83 c0 30          	add    $0x30,%rax
    c84c:	48 89 85 28 e7 ff ff 	mov    %rax,-0x18d8(%rbp)
    c853:	48 8d 85 f0 e4 ff ff 	lea    -0x1b10(%rbp),%rax
    c85a:	48 83 c0 18          	add    $0x18,%rax
    c85e:	48 89 85 30 e7 ff ff 	mov    %rax,-0x18d0(%rbp)
    c865:	48 8d 05 0c 74 00 00 	lea    0x740c(%rip),%rax        # 13c78 <g_92+0x18>
    c86c:	48 89 85 38 e7 ff ff 	mov    %rax,-0x18c8(%rbp)
    c873:	48 8d 85 f0 e4 ff ff 	lea    -0x1b10(%rbp),%rax
    c87a:	48 83 c0 28          	add    $0x28,%rax
    c87e:	48 89 85 40 e7 ff ff 	mov    %rax,-0x18c0(%rbp)
    c885:	48 8d 05 ec 73 00 00 	lea    0x73ec(%rip),%rax        # 13c78 <g_92+0x18>
    c88c:	48 89 85 48 e7 ff ff 	mov    %rax,-0x18b8(%rbp)
    c893:	48 8d 85 f0 e4 ff ff 	lea    -0x1b10(%rbp),%rax
    c89a:	48 83 c0 18          	add    $0x18,%rax
    c89e:	48 89 85 50 e7 ff ff 	mov    %rax,-0x18b0(%rbp)
    c8a5:	48 c7 85 58 e7 ff ff 	movq   $0x0,-0x18a8(%rbp)
    c8ac:	00 00 00 00 
    c8b0:	48 8d 05 b1 73 00 00 	lea    0x73b1(%rip),%rax        # 13c68 <g_92+0x8>
    c8b7:	48 89 85 60 e7 ff ff 	mov    %rax,-0x18a0(%rbp)
    c8be:	48 c7 85 68 e7 ff ff 	movq   $0x0,-0x1898(%rbp)
    c8c5:	00 00 00 00 
    c8c9:	48 c7 85 70 e7 ff ff 	movq   $0x0,-0x1890(%rbp)
    c8d0:	00 00 00 00 
    c8d4:	48 8d 05 8d 73 00 00 	lea    0x738d(%rip),%rax        # 13c68 <g_92+0x8>
    c8db:	48 89 85 78 e7 ff ff 	mov    %rax,-0x1888(%rbp)
    c8e2:	48 8d 85 c0 e3 ff ff 	lea    -0x1c40(%rbp),%rax
    c8e9:	48 83 c0 08          	add    $0x8,%rax
    c8ed:	48 89 85 50 e3 ff ff 	mov    %rax,-0x1cb0(%rbp)
    c8f4:	c7 85 58 e0 ff ff 00 	movl   $0x0,-0x1fa8(%rbp)
    c8fb:	00 00 00 
    c8fe:	eb 25                	jmp    c925 <func_70+0x4759>
    c900:	8b 85 58 e0 ff ff    	mov    -0x1fa8(%rbp),%eax
    c906:	48 98                	cltq   
    c908:	48 8d 95 80 e7 ff ff 	lea    -0x1880(%rbp),%rdx
    c90f:	48 81 c2 f0 00 00 00 	add    $0xf0,%rdx
    c916:	48 89 94 c5 c0 e3 ff 	mov    %rdx,-0x1c40(%rbp,%rax,8)
    c91d:	ff 
    c91e:	83 85 58 e0 ff ff 01 	addl   $0x1,-0x1fa8(%rbp)
    c925:	83 bd 58 e0 ff ff 02 	cmpl   $0x2,-0x1fa8(%rbp)
    c92c:	7e d2                	jle    c900 <func_70+0x4734>
    c92e:	48 8b 85 b0 e4 ff ff 	mov    -0x1b50(%rbp),%rax
    c935:	48 8d 15 6c 54 00 00 	lea    0x546c(%rip),%rdx        # 11da8 <g_383>
    c93c:	48 39 d0             	cmp    %rdx,%rax
    c93f:	0f 95 c0             	setne  %al
    c942:	0f b6 d8             	movzbl %al,%ebx
    c945:	48 8b 85 38 e3 ff ff 	mov    -0x1cc8(%rbp),%rax
    c94c:	98                   	cwtl   
    c94d:	be a7 ec ff ff       	mov    $0xffffeca7,%esi
    c952:	89 c7                	mov    %eax,%edi
    c954:	e8 5a 9a ff ff       	callq  63b3 <safe_add_func_int16_t_s_s>
    c959:	98                   	cwtl   
    c95a:	89 de                	mov    %ebx,%esi
    c95c:	89 c7                	mov    %eax,%edi
    c95e:	e8 2f 9b ff ff       	callq  6492 <safe_lshift_func_int16_t_s_s>
    c963:	66 85 c0             	test   %ax,%ax
    c966:	74 22                	je     c98a <func_70+0x47be>
    c968:	48 c7 85 58 e3 ff ff 	movq   $0x0,-0x1ca8(%rbp)
    c96f:	00 00 00 00 
    c973:	c7 85 c4 e0 ff ff 2b 	movl   $0x8643db2b,-0x1f3c(%rbp)
    c97a:	db 43 86 
    c97d:	48 83 85 68 e1 ff ff 	addq   $0x1,-0x1e98(%rbp)
    c984:	01 
    c985:	e9 51 01 00 00       	jmpq   cadb <func_70+0x490f>
    c98a:	c7 85 b8 e0 ff ff 13 	movl   $0xc1360313,-0x1f48(%rbp)
    c991:	03 36 c1 
    c994:	c7 85 bc e0 ff ff fe 	movl   $0xfffffffe,-0x1f44(%rbp)
    c99b:	ff ff ff 
    c99e:	c7 85 c0 e0 ff ff 00 	movl   $0x0,-0x1f40(%rbp)
    c9a5:	00 00 00 
    c9a8:	c7 85 e0 e3 ff ff ff 	movl   $0xffffffff,-0x1c20(%rbp)
    c9af:	ff ff ff 
    c9b2:	c7 85 e4 e3 ff ff ff 	movl   $0xffffffff,-0x1c1c(%rbp)
    c9b9:	ff ff ff 
    c9bc:	c7 85 e8 e3 ff ff fc 	movl   $0x919e4cfc,-0x1c18(%rbp)
    c9c3:	4c 9e 91 
    c9c6:	c7 85 ec e3 ff ff ff 	movl   $0xffffffff,-0x1c14(%rbp)
    c9cd:	ff ff ff 
    c9d0:	c7 85 f0 e3 ff ff ff 	movl   $0xffffffff,-0x1c10(%rbp)
    c9d7:	ff ff ff 
    c9da:	c7 85 f4 e3 ff ff fc 	movl   $0x919e4cfc,-0x1c0c(%rbp)
    c9e1:	4c 9e 91 
    c9e4:	c7 85 f8 e3 ff ff ff 	movl   $0xffffffff,-0x1c08(%rbp)
    c9eb:	ff ff ff 
    c9ee:	c7 85 fc e3 ff ff ff 	movl   $0xffffffff,-0x1c04(%rbp)
    c9f5:	ff ff ff 
    c9f8:	c7 85 00 e4 ff ff fc 	movl   $0x919e4cfc,-0x1c00(%rbp)
    c9ff:	4c 9e 91 
    ca02:	8b 05 c0 5a 00 00    	mov    0x5ac0(%rip),%eax        # 124c8 <g_413+0x48>
    ca08:	83 e8 01             	sub    $0x1,%eax
    ca0b:	89 05 b7 5a 00 00    	mov    %eax,0x5ab7(%rip)        # 124c8 <g_413+0x48>
    ca11:	8b 85 f0 df ff ff    	mov    -0x2010(%rbp),%eax
    ca17:	0f bf d0             	movswl %ax,%edx
    ca1a:	48 8b 85 b0 ec ff ff 	mov    -0x1350(%rbp),%rax
    ca21:	48 85 c0             	test   %rax,%rax
    ca24:	0f 95 c0             	setne  %al
    ca27:	0f b6 c0             	movzbl %al,%eax
    ca2a:	89 d6                	mov    %edx,%esi
    ca2c:	89 c7                	mov    %eax,%edi
    ca2e:	e8 c2 99 ff ff       	callq  63f5 <safe_mul_func_int16_t_s_s>
    ca33:	b9 ff 00 00 00       	mov    $0xff,%ecx
    ca38:	48 8b 05 51 72 00 00 	mov    0x7251(%rip),%rax        # 13c90 <g_318>
    ca3f:	48 8b 10             	mov    (%rax),%rdx
    ca42:	48 8b 05 47 72 00 00 	mov    0x7247(%rip),%rax        # 13c90 <g_318>
    ca49:	48 09 ca             	or     %rcx,%rdx
    ca4c:	48 89 10             	mov    %rdx,(%rax)
    ca4f:	48 8b 05 62 72 00 00 	mov    0x7262(%rip),%rax        # 13cb8 <g_384>
    ca56:	0f b7 00             	movzwl (%rax),%eax
    ca59:	0f b7 d0             	movzwl %ax,%edx
    ca5c:	8b 85 f0 df ff ff    	mov    -0x2010(%rbp),%eax
    ca62:	83 f8 01             	cmp    $0x1,%eax
    ca65:	0f 95 c0             	setne  %al
    ca68:	0f b6 c0             	movzbl %al,%eax
    ca6b:	39 c2                	cmp    %eax,%edx
    ca6d:	0f 95 c0             	setne  %al
    ca70:	0f b6 d0             	movzbl %al,%edx
    ca73:	0f b7 05 c6 56 00 00 	movzwl 0x56c6(%rip),%eax        # 12140 <g_180+0xc0>
    ca7a:	83 c0 01             	add    $0x1,%eax
    ca7d:	66 89 05 bc 56 00 00 	mov    %ax,0x56bc(%rip)        # 12140 <g_180+0xc0>
    ca84:	0f b7 05 b5 56 00 00 	movzwl 0x56b5(%rip),%eax        # 12140 <g_180+0xc0>
    ca8b:	89 c6                	mov    %eax,%esi
    ca8d:	48 8b 0d 74 59 00 00 	mov    0x5974(%rip),%rcx        # 12408 <g_246+0x28>
    ca94:	8b 85 1c e0 ff ff    	mov    -0x1fe4(%rbp),%eax
    ca9a:	48 98                	cltq   
    ca9c:	48 39 c1             	cmp    %rax,%rcx
    ca9f:	0f 94 c0             	sete   %al
    caa2:	0f b6 c0             	movzbl %al,%eax
    caa5:	09 f0                	or     %esi,%eax
    caa7:	0f b7 c0             	movzwl %ax,%eax
    caaa:	89 d6                	mov    %edx,%esi
    caac:	89 c7                	mov    %eax,%edi
    caae:	e8 c7 a3 ff ff       	callq  6e7a <safe_rshift_func_uint16_t_u_u>
    cab3:	48 8b 95 60 e2 ff ff 	mov    -0x1da0(%rbp),%rdx
    caba:	48 8b 12             	mov    (%rdx),%rdx
    cabd:	8b 0a                	mov    (%rdx),%ecx
    cabf:	0f b7 d0             	movzwl %ax,%edx
    cac2:	48 8b 85 60 e2 ff ff 	mov    -0x1da0(%rbp),%rax
    cac9:	48 8b 00             	mov    (%rax),%rax
    cacc:	09 ca                	or     %ecx,%edx
    cace:	89 10                	mov    %edx,(%rax)
    cad0:	48 8b 05 a9 71 00 00 	mov    0x71a9(%rip),%rax        # 13c80 <g_109>
    cad7:	8b 00                	mov    (%rax),%eax
    cad9:	85 c0                	test   %eax,%eax
    cadb:	0f b7 05 7e 80 00 00 	movzwl 0x807e(%rip),%eax        # 14b60 <g_222>
    cae2:	83 e8 01             	sub    $0x1,%eax
    cae5:	66 89 05 74 80 00 00 	mov    %ax,0x8074(%rip)        # 14b60 <g_222>
    caec:	0f b7 05 6d 80 00 00 	movzwl 0x806d(%rip),%eax        # 14b60 <g_222>
    caf3:	66 85 c0             	test   %ax,%ax
    caf6:	0f 8f 03 fb ff ff    	jg     c5ff <func_70+0x4433>
    cafc:	48 8b 95 30 e1 ff ff 	mov    -0x1ed0(%rbp),%rdx
    cb03:	48 8b 85 60 e2 ff ff 	mov    -0x1da0(%rbp),%rax
    cb0a:	48 8b 00             	mov    (%rax),%rax
    cb0d:	8b 12                	mov    (%rdx),%edx
    cb0f:	89 10                	mov    %edx,(%rax)
    cb11:	48 8b 05 68 57 00 00 	mov    0x5768(%rip),%rax        # 12280 <g_224>
    cb18:	48 83 c0 01          	add    $0x1,%rax
    cb1c:	48 89 05 5d 57 00 00 	mov    %rax,0x575d(%rip)        # 12280 <g_224>
    cb23:	48 8b 05 56 57 00 00 	mov    0x5756(%rip),%rax        # 12280 <g_224>
    cb2a:	48 83 f8 07          	cmp    $0x7,%rax
    cb2e:	0f 8e 66 f8 ff ff    	jle    c39a <func_70+0x41ce>
    cb34:	8b 85 ec df ff ff    	mov    -0x2014(%rbp),%eax
    cb3a:	83 c0 01             	add    $0x1,%eax
    cb3d:	89 85 ec df ff ff    	mov    %eax,-0x2014(%rbp)
    cb43:	8b 85 ec df ff ff    	mov    -0x2014(%rbp),%eax
    cb49:	83 f8 07             	cmp    $0x7,%eax
    cb4c:	0f 86 91 d3 ff ff    	jbe    9ee3 <func_70+0x1d17>
    cb52:	e9 41 0d 00 00       	jmpq   d898 <func_70+0x56cc>
    cb57:	c6 85 06 e0 ff ff 03 	movb   $0x3,-0x1ffa(%rbp)
    cb5e:	48 8d 05 b7 55 00 00 	lea    0x55b7(%rip),%rax        # 1211c <g_180+0x9c>
    cb65:	48 89 85 a0 e1 ff ff 	mov    %rax,-0x1e60(%rbp)
    cb6c:	48 8d 85 04 e0 ff ff 	lea    -0x1ffc(%rbp),%rax
    cb73:	48 89 85 a8 e1 ff ff 	mov    %rax,-0x1e58(%rbp)
    cb7a:	c7 85 48 e1 ff ff fe 	movl   $0xfffffffe,-0x1eb8(%rbp)
    cb81:	ff ff ff 
    cb84:	48 8d 85 1c e0 ff ff 	lea    -0x1fe4(%rbp),%rax
    cb8b:	48 89 85 90 e6 ff ff 	mov    %rax,-0x1970(%rbp)
    cb92:	48 8d 85 1c e0 ff ff 	lea    -0x1fe4(%rbp),%rax
    cb99:	48 89 85 98 e6 ff ff 	mov    %rax,-0x1968(%rbp)
    cba0:	48 8d 85 1c e0 ff ff 	lea    -0x1fe4(%rbp),%rax
    cba7:	48 89 85 a0 e6 ff ff 	mov    %rax,-0x1960(%rbp)
    cbae:	48 8d 85 1c e0 ff ff 	lea    -0x1fe4(%rbp),%rax
    cbb5:	48 89 85 a8 e6 ff ff 	mov    %rax,-0x1958(%rbp)
    cbbc:	48 8d 85 1c e0 ff ff 	lea    -0x1fe4(%rbp),%rax
    cbc3:	48 89 85 b0 e6 ff ff 	mov    %rax,-0x1950(%rbp)
    cbca:	48 8d 85 18 e0 ff ff 	lea    -0x1fe8(%rbp),%rax
    cbd1:	48 89 85 b8 e6 ff ff 	mov    %rax,-0x1948(%rbp)
    cbd8:	48 8d 85 1c e0 ff ff 	lea    -0x1fe4(%rbp),%rax
    cbdf:	48 89 85 c0 e6 ff ff 	mov    %rax,-0x1940(%rbp)
    cbe6:	48 8d 85 1c e0 ff ff 	lea    -0x1fe4(%rbp),%rax
    cbed:	48 89 85 c8 e6 ff ff 	mov    %rax,-0x1938(%rbp)
    cbf4:	48 8d 85 1c e0 ff ff 	lea    -0x1fe4(%rbp),%rax
    cbfb:	48 89 85 d0 e6 ff ff 	mov    %rax,-0x1930(%rbp)
    cc02:	48 8d 85 1c e0 ff ff 	lea    -0x1fe4(%rbp),%rax
    cc09:	48 89 85 d8 e6 ff ff 	mov    %rax,-0x1928(%rbp)
    cc10:	48 8d 85 1c e0 ff ff 	lea    -0x1fe4(%rbp),%rax
    cc17:	48 89 85 e0 e6 ff ff 	mov    %rax,-0x1920(%rbp)
    cc1e:	48 8d 85 18 e0 ff ff 	lea    -0x1fe8(%rbp),%rax
    cc25:	48 89 85 e8 e6 ff ff 	mov    %rax,-0x1918(%rbp)
    cc2c:	48 8d 85 1c e0 ff ff 	lea    -0x1fe4(%rbp),%rax
    cc33:	48 89 85 f0 e6 ff ff 	mov    %rax,-0x1910(%rbp)
    cc3a:	48 8d 85 1c e0 ff ff 	lea    -0x1fe4(%rbp),%rax
    cc41:	48 89 85 f8 e6 ff ff 	mov    %rax,-0x1908(%rbp)
    cc48:	48 8d 85 1c e0 ff ff 	lea    -0x1fe4(%rbp),%rax
    cc4f:	48 89 85 00 e7 ff ff 	mov    %rax,-0x1900(%rbp)
    cc56:	48 8d 85 1c e0 ff ff 	lea    -0x1fe4(%rbp),%rax
    cc5d:	48 89 85 08 e7 ff ff 	mov    %rax,-0x18f8(%rbp)
    cc64:	48 8d 85 1c e0 ff ff 	lea    -0x1fe4(%rbp),%rax
    cc6b:	48 89 85 10 e7 ff ff 	mov    %rax,-0x18f0(%rbp)
    cc72:	48 8d 85 18 e0 ff ff 	lea    -0x1fe8(%rbp),%rax
    cc79:	48 89 85 18 e7 ff ff 	mov    %rax,-0x18e8(%rbp)
    cc80:	48 8d 85 1c e0 ff ff 	lea    -0x1fe4(%rbp),%rax
    cc87:	48 89 85 20 e7 ff ff 	mov    %rax,-0x18e0(%rbp)
    cc8e:	48 8d 85 1c e0 ff ff 	lea    -0x1fe4(%rbp),%rax
    cc95:	48 89 85 28 e7 ff ff 	mov    %rax,-0x18d8(%rbp)
    cc9c:	48 8d 85 1c e0 ff ff 	lea    -0x1fe4(%rbp),%rax
    cca3:	48 89 85 30 e7 ff ff 	mov    %rax,-0x18d0(%rbp)
    ccaa:	48 8d 85 1c e0 ff ff 	lea    -0x1fe4(%rbp),%rax
    ccb1:	48 89 85 38 e7 ff ff 	mov    %rax,-0x18c8(%rbp)
    ccb8:	48 8d 85 1c e0 ff ff 	lea    -0x1fe4(%rbp),%rax
    ccbf:	48 89 85 40 e7 ff ff 	mov    %rax,-0x18c0(%rbp)
    ccc6:	48 8d 85 18 e0 ff ff 	lea    -0x1fe8(%rbp),%rax
    cccd:	48 89 85 48 e7 ff ff 	mov    %rax,-0x18b8(%rbp)
    ccd4:	48 c7 85 80 e7 ff ff 	movq   $0x0,-0x1880(%rbp)
    ccdb:	00 00 00 00 
    ccdf:	48 c7 85 88 e7 ff ff 	movq   $0x0,-0x1878(%rbp)
    cce6:	00 00 00 00 
    ccea:	48 8d 85 18 e1 ff ff 	lea    -0x1ee8(%rbp),%rax
    ccf1:	48 89 85 90 e7 ff ff 	mov    %rax,-0x1870(%rbp)
    ccf8:	48 c7 85 98 e7 ff ff 	movq   $0x0,-0x1868(%rbp)
    ccff:	00 00 00 00 
    cd03:	48 c7 85 a0 e7 ff ff 	movq   $0x0,-0x1860(%rbp)
    cd0a:	00 00 00 00 
    cd0e:	48 8d 85 18 e1 ff ff 	lea    -0x1ee8(%rbp),%rax
    cd15:	48 89 85 a8 e7 ff ff 	mov    %rax,-0x1858(%rbp)
    cd1c:	48 c7 85 b0 e7 ff ff 	movq   $0x0,-0x1850(%rbp)
    cd23:	00 00 00 00 
    cd27:	48 c7 85 b8 e7 ff ff 	movq   $0x0,-0x1848(%rbp)
    cd2e:	00 00 00 00 
    cd32:	48 8d 85 18 e1 ff ff 	lea    -0x1ee8(%rbp),%rax
    cd39:	48 89 85 c0 e7 ff ff 	mov    %rax,-0x1840(%rbp)
    cd40:	48 c7 85 c8 e7 ff ff 	movq   $0x0,-0x1838(%rbp)
    cd47:	00 00 00 00 
    cd4b:	48 c7 85 d0 e7 ff ff 	movq   $0x0,-0x1830(%rbp)
    cd52:	00 00 00 00 
    cd56:	48 8d 85 18 e1 ff ff 	lea    -0x1ee8(%rbp),%rax
    cd5d:	48 89 85 d8 e7 ff ff 	mov    %rax,-0x1828(%rbp)
    cd64:	48 c7 85 e0 e7 ff ff 	movq   $0x0,-0x1820(%rbp)
    cd6b:	00 00 00 00 
    cd6f:	48 c7 85 e8 e7 ff ff 	movq   $0x0,-0x1818(%rbp)
    cd76:	00 00 00 00 
    cd7a:	48 8d 85 18 e1 ff ff 	lea    -0x1ee8(%rbp),%rax
    cd81:	48 89 85 f0 e7 ff ff 	mov    %rax,-0x1810(%rbp)
    cd88:	48 c7 85 f8 e7 ff ff 	movq   $0x0,-0x1808(%rbp)
    cd8f:	00 00 00 00 
    cd93:	48 8d 85 18 e1 ff ff 	lea    -0x1ee8(%rbp),%rax
    cd9a:	48 89 85 00 e8 ff ff 	mov    %rax,-0x1800(%rbp)
    cda1:	48 8d 85 18 e1 ff ff 	lea    -0x1ee8(%rbp),%rax
    cda8:	48 89 85 08 e8 ff ff 	mov    %rax,-0x17f8(%rbp)
    cdaf:	48 8d 85 18 e1 ff ff 	lea    -0x1ee8(%rbp),%rax
    cdb6:	48 89 85 10 e8 ff ff 	mov    %rax,-0x17f0(%rbp)
    cdbd:	48 8d 85 18 e1 ff ff 	lea    -0x1ee8(%rbp),%rax
    cdc4:	48 89 85 18 e8 ff ff 	mov    %rax,-0x17e8(%rbp)
    cdcb:	48 8d 85 18 e1 ff ff 	lea    -0x1ee8(%rbp),%rax
    cdd2:	48 89 85 20 e8 ff ff 	mov    %rax,-0x17e0(%rbp)
    cdd9:	48 8d 85 18 e1 ff ff 	lea    -0x1ee8(%rbp),%rax
    cde0:	48 89 85 28 e8 ff ff 	mov    %rax,-0x17d8(%rbp)
    cde7:	48 8d 85 18 e1 ff ff 	lea    -0x1ee8(%rbp),%rax
    cdee:	48 89 85 30 e8 ff ff 	mov    %rax,-0x17d0(%rbp)
    cdf5:	48 8d 85 18 e1 ff ff 	lea    -0x1ee8(%rbp),%rax
    cdfc:	48 89 85 38 e8 ff ff 	mov    %rax,-0x17c8(%rbp)
    ce03:	48 8d 85 18 e1 ff ff 	lea    -0x1ee8(%rbp),%rax
    ce0a:	48 89 85 40 e8 ff ff 	mov    %rax,-0x17c0(%rbp)
    ce11:	48 8d 85 18 e1 ff ff 	lea    -0x1ee8(%rbp),%rax
    ce18:	48 89 85 48 e8 ff ff 	mov    %rax,-0x17b8(%rbp)
    ce1f:	48 8d 85 18 e1 ff ff 	lea    -0x1ee8(%rbp),%rax
    ce26:	48 89 85 50 e8 ff ff 	mov    %rax,-0x17b0(%rbp)
    ce2d:	48 8d 85 18 e1 ff ff 	lea    -0x1ee8(%rbp),%rax
    ce34:	48 89 85 58 e8 ff ff 	mov    %rax,-0x17a8(%rbp)
    ce3b:	48 8d 85 18 e1 ff ff 	lea    -0x1ee8(%rbp),%rax
    ce42:	48 89 85 60 e8 ff ff 	mov    %rax,-0x17a0(%rbp)
    ce49:	48 8d 85 18 e1 ff ff 	lea    -0x1ee8(%rbp),%rax
    ce50:	48 89 85 68 e8 ff ff 	mov    %rax,-0x1798(%rbp)
    ce57:	48 8d 85 18 e1 ff ff 	lea    -0x1ee8(%rbp),%rax
    ce5e:	48 89 85 70 e8 ff ff 	mov    %rax,-0x1790(%rbp)
    ce65:	48 8d 85 18 e1 ff ff 	lea    -0x1ee8(%rbp),%rax
    ce6c:	48 89 85 78 e8 ff ff 	mov    %rax,-0x1788(%rbp)
    ce73:	48 8d 05 d6 51 00 00 	lea    0x51d6(%rip),%rax        # 12050 <g_110>
    ce7a:	48 89 85 b0 e1 ff ff 	mov    %rax,-0x1e50(%rbp)
    ce81:	8b 85 f0 df ff ff    	mov    -0x2010(%rbp),%eax
    ce87:	0f bf d8             	movswl %ax,%ebx
    ce8a:	0f b6 95 06 e0 ff ff 	movzbl -0x1ffa(%rbp),%edx
    ce91:	48 8b 05 e8 6d 00 00 	mov    0x6de8(%rip),%rax        # 13c80 <g_109>
    ce98:	8b 00                	mov    (%rax),%eax
    ce9a:	21 c2                	and    %eax,%edx
    ce9c:	41 89 d5             	mov    %edx,%r13d
    ce9f:	48 8b 05 ea 6d 00 00 	mov    0x6dea(%rip),%rax        # 13c90 <g_318>
    cea6:	48 8b 00             	mov    (%rax),%rax
    cea9:	0f b6 95 a7 e3 ff ff 	movzbl -0x1c59(%rbp),%edx
    ceb0:	0f b6 ca             	movzbl %dl,%ecx
    ceb3:	8b 95 f4 df ff ff    	mov    -0x200c(%rbp),%edx
    ceb9:	31 ca                	xor    %ecx,%edx
    cebb:	89 d2                	mov    %edx,%edx
    cebd:	48 89 c6             	mov    %rax,%rsi
    cec0:	48 89 d7             	mov    %rdx,%rdi
    cec3:	e8 b8 a1 ff ff       	callq  7080 <safe_mod_func_uint64_t_u_u>
    cec8:	48 8b 85 a0 e1 ff ff 	mov    -0x1e60(%rbp),%rax
    cecf:	66 c7 00 f2 78       	movw   $0x78f2,(%rax)
    ced4:	48 8b 85 a0 e1 ff ff 	mov    -0x1e60(%rbp),%rax
    cedb:	0f b7 00             	movzwl (%rax),%eax
    cede:	0f b7 c0             	movzwl %ax,%eax
    cee1:	be 96 de 00 00       	mov    $0xde96,%esi
    cee6:	89 c7                	mov    %eax,%edi
    cee8:	e8 50 9e ff ff       	callq  6d3d <safe_mul_func_uint16_t_u_u>
    ceed:	48 8b 85 18 e1 ff ff 	mov    -0x1ee8(%rbp),%rax
    cef4:	c7 00 08 45 6e cf    	movl   $0xcf6e4508,(%rax)
    cefa:	0f b7 05 5b 51 00 00 	movzwl 0x515b(%rip),%eax        # 1205c <g_135>
    cf01:	66 25 ff 07          	and    $0x7ff,%ax
    cf05:	66 83 f8 01          	cmp    $0x1,%ax
    cf09:	0f 95 c0             	setne  %al
    cf0c:	44 0f b6 e0          	movzbl %al,%r12d
    cf10:	83 bd 30 e0 ff ff 00 	cmpl   $0x0,-0x1fd0(%rbp)
    cf17:	0f 95 c0             	setne  %al
    cf1a:	0f b6 c0             	movzbl %al,%eax
    cf1d:	89 c7                	mov    %eax,%edi
    cf1f:	e8 82 9f ff ff       	callq  6ea6 <safe_unary_minus_func_uint32_t_u>
    cf24:	89 c2                	mov    %eax,%edx
    cf26:	48 8b 05 5b 6d 00 00 	mov    0x6d5b(%rip),%rax        # 13c88 <g_191>
    cf2d:	88 10                	mov    %dl,(%rax)
    cf2f:	0f b6 00             	movzbl (%rax),%eax
    cf32:	0f b6 c0             	movzbl %al,%eax
    cf35:	44 89 e6             	mov    %r12d,%esi
    cf38:	89 c7                	mov    %eax,%edi
    cf3a:	e8 0d 9d ff ff       	callq  6c4c <safe_lshift_func_uint8_t_u_u>
    cf3f:	0f b6 d0             	movzbl %al,%edx
    cf42:	8b 85 ec df ff ff    	mov    -0x2014(%rbp),%eax
    cf48:	39 c2                	cmp    %eax,%edx
    cf4a:	0f 97 c0             	seta   %al
    cf4d:	0f b6 d0             	movzbl %al,%edx
    cf50:	0f b6 85 06 e0 ff ff 	movzbl -0x1ffa(%rbp),%eax
    cf57:	39 c2                	cmp    %eax,%edx
    cf59:	0f 9d c0             	setge  %al
    cf5c:	0f b6 d0             	movzbl %al,%edx
    cf5f:	8b 85 ec df ff ff    	mov    -0x2014(%rbp),%eax
    cf65:	98                   	cwtl   
    cf66:	89 d6                	mov    %edx,%esi
    cf68:	89 c7                	mov    %eax,%edi
    cf6a:	e8 72 95 ff ff       	callq  64e1 <safe_lshift_func_int16_t_s_u>
    cf6f:	0f bf d0             	movswl %ax,%edx
    cf72:	0f b6 85 a7 e3 ff ff 	movzbl -0x1c59(%rbp),%eax
    cf79:	0f b6 c0             	movzbl %al,%eax
    cf7c:	09 d0                	or     %edx,%eax
    cf7e:	85 c0                	test   %eax,%eax
    cf80:	74 12                	je     cf94 <func_70+0x4dc8>
    cf82:	0f b6 85 ac e3 ff ff 	movzbl -0x1c54(%rbp),%eax
    cf89:	84 c0                	test   %al,%al
    cf8b:	74 07                	je     cf94 <func_70+0x4dc8>
    cf8d:	b8 01 00 00 00       	mov    $0x1,%eax
    cf92:	eb 05                	jmp    cf99 <func_70+0x4dcd>
    cf94:	b8 00 00 00 00       	mov    $0x0,%eax
    cf99:	44 39 e8             	cmp    %r13d,%eax
    cf9c:	7f 11                	jg     cfaf <func_70+0x4de3>
    cf9e:	8b 85 f0 df ff ff    	mov    -0x2010(%rbp),%eax
    cfa4:	85 c0                	test   %eax,%eax
    cfa6:	74 07                	je     cfaf <func_70+0x4de3>
    cfa8:	b8 01 00 00 00       	mov    $0x1,%eax
    cfad:	eb 05                	jmp    cfb4 <func_70+0x4de8>
    cfaf:	b8 00 00 00 00       	mov    $0x0,%eax
    cfb4:	be 10 30 0e bb       	mov    $0xbb0e3010,%esi
    cfb9:	89 c7                	mov    %eax,%edi
    cfbb:	e8 3f 97 ff ff       	callq  66ff <safe_div_func_int32_t_s_s>
    cfc0:	89 c2                	mov    %eax,%edx
    cfc2:	8b 85 ec df ff ff    	mov    -0x2014(%rbp),%eax
    cfc8:	39 c2                	cmp    %eax,%edx
    cfca:	0f 92 c0             	setb   %al
    cfcd:	89 c2                	mov    %eax,%edx
    cfcf:	48 8b 85 a8 e1 ff ff 	mov    -0x1e58(%rbp),%rax
    cfd6:	88 10                	mov    %dl,(%rax)
    cfd8:	8b 05 1a 55 00 00    	mov    0x551a(%rip),%eax        # 124f8 <g_554>
    cfde:	85 c0                	test   %eax,%eax
    cfe0:	89 de                	mov    %ebx,%esi
    cfe2:	bf 00 00 00 00       	mov    $0x0,%edi
    cfe7:	e8 69 94 ff ff       	callq  6455 <safe_div_func_int16_t_s_s>
    cfec:	89 c2                	mov    %eax,%edx
    cfee:	48 8b 05 8b 6c 00 00 	mov    0x6c8b(%rip),%rax        # 13c80 <g_109>
    cff5:	0f bf d2             	movswl %dx,%edx
    cff8:	89 10                	mov    %edx,(%rax)
    cffa:	c7 05 54 50 00 00 00 	movl   $0x0,0x5054(%rip)        # 12058 <g_132>
    d001:	00 00 00 
    d004:	e9 1f 04 00 00       	jmpq   d428 <func_70+0x525c>
    d009:	48 c7 85 e0 e1 ff ff 	movq   $0x0,-0x1e20(%rbp)
    d010:	00 00 00 00 
    d014:	c7 85 88 e0 ff ff f7 	movl   $0xfffffff7,-0x1f78(%rbp)
    d01b:	ff ff ff 
    d01e:	c7 85 5c e0 ff ff 00 	movl   $0x0,-0x1fa4(%rbp)
    d025:	00 00 00 
    d028:	eb 1a                	jmp    d044 <func_70+0x4e78>
    d02a:	8b 85 5c e0 ff ff    	mov    -0x1fa4(%rbp),%eax
    d030:	48 98                	cltq   
    d032:	c7 84 85 b0 e4 ff ff 	movl   $0xfffffff6,-0x1b50(%rbp,%rax,4)
    d039:	f6 ff ff ff 
    d03d:	83 85 5c e0 ff ff 01 	addl   $0x1,-0x1fa4(%rbp)
    d044:	83 bd 5c e0 ff ff 01 	cmpl   $0x1,-0x1fa4(%rbp)
    d04b:	7e dd                	jle    d02a <func_70+0x4e5e>
    d04d:	0f b6 05 a8 54 00 00 	movzbl 0x54a8(%rip),%eax        # 124fc <g_559>
    d054:	0f b6 c0             	movzbl %al,%eax
    d057:	48 89 c6             	mov    %rax,%rsi
    d05a:	48 bf 33 7d eb f6 f4 	movabs $0x4ff05af4f6eb7d33,%rdi
    d061:	5a f0 4f 
    d064:	e8 17 a0 ff ff       	callq  7080 <safe_mod_func_uint64_t_u_u>
    d069:	89 85 48 e1 ff ff    	mov    %eax,-0x1eb8(%rbp)
    d06f:	c7 85 30 e0 ff ff 15 	movl   $0x15,-0x1fd0(%rbp)
    d076:	00 00 00 
    d079:	e9 7c 03 00 00       	jmpq   d3fa <func_70+0x522e>
    d07e:	48 8d 85 50 f0 ff ff 	lea    -0xfb0(%rbp),%rax
    d085:	48 8d 15 54 5d 00 00 	lea    0x5d54(%rip),%rdx        # 12de0 <g_1184+0x5a4>
    d08c:	b9 30 00 00 00       	mov    $0x30,%ecx
    d091:	48 89 c7             	mov    %rax,%rdi
    d094:	48 89 d6             	mov    %rdx,%rsi
    d097:	f3 48 a5             	rep movsq %ds:(%rsi),%es:(%rdi)
    d09a:	c7 85 8c e0 ff ff 00 	movl   $0x0,-0x1f74(%rbp)
    d0a1:	00 00 00 
    d0a4:	48 c7 85 e8 e1 ff ff 	movq   $0x0,-0x1e18(%rbp)
    d0ab:	00 00 00 00 
    d0af:	48 8d 05 7a 6a 00 00 	lea    0x6a7a(%rip),%rax        # 13b30 <g_93+0x110>
    d0b6:	48 89 85 f0 e1 ff ff 	mov    %rax,-0x1e10(%rbp)
    d0bd:	66 c7 85 0c e0 ff ff 	movw   $0x36e0,-0x1ff4(%rbp)
    d0c4:	e0 36 
    d0c6:	c7 85 60 e0 ff ff 00 	movl   $0x0,-0x1fa0(%rbp)
    d0cd:	00 00 00 
    d0d0:	eb 21                	jmp    d0f3 <func_70+0x4f27>
    d0d2:	8b 85 60 e0 ff ff    	mov    -0x1fa0(%rbp),%eax
    d0d8:	48 98                	cltq   
    d0da:	48 bb 68 34 f4 d0 15 	movabs $0xdefeb815d0f43468,%rbx
    d0e1:	b8 fe de 
    d0e4:	48 89 9c c5 a0 e5 ff 	mov    %rbx,-0x1a60(%rbp,%rax,8)
    d0eb:	ff 
    d0ec:	83 85 60 e0 ff ff 01 	addl   $0x1,-0x1fa0(%rbp)
    d0f3:	83 bd 60 e0 ff ff 04 	cmpl   $0x4,-0x1fa0(%rbp)
    d0fa:	7e d6                	jle    d0d2 <func_70+0x4f06>
    d0fc:	8b 9d 8c e0 ff ff    	mov    -0x1f74(%rbp),%ebx
    d102:	0f b6 8d 06 e0 ff ff 	movzbl -0x1ffa(%rbp),%ecx
    d109:	48 8d 05 60 50 00 00 	lea    0x5060(%rip),%rax        # 12170 <g_192>
    d110:	48 39 85 e0 e1 ff ff 	cmp    %rax,-0x1e20(%rbp)
    d117:	0f 95 c2             	setne  %dl
    d11a:	48 8b 85 20 e1 ff ff 	mov    -0x1ee0(%rbp),%rax
    d121:	0f b6 d2             	movzbl %dl,%edx
    d124:	89 10                	mov    %edx,(%rax)
    d126:	8b 00                	mov    (%rax),%eax
    d128:	83 f0 f6             	xor    $0xfffffff6,%eax
    d12b:	39 c1                	cmp    %eax,%ecx
    d12d:	0f 93 c0             	setae  %al
    d130:	44 0f b6 e0          	movzbl %al,%r12d
    d134:	8b 85 ec df ff ff    	mov    -0x2014(%rbp),%eax
    d13a:	85 c0                	test   %eax,%eax
    d13c:	0f 95 c0             	setne  %al
    d13f:	0f b6 c0             	movzbl %al,%eax
    d142:	be 02 00 00 00       	mov    $0x2,%esi
    d147:	89 c7                	mov    %eax,%edi
    d149:	e8 b7 9a ff ff       	callq  6c05 <safe_lshift_func_uint8_t_u_s>
    d14e:	0f b6 c0             	movzbl %al,%eax
    d151:	44 89 e6             	mov    %r12d,%esi
    d154:	89 c7                	mov    %eax,%edi
    d156:	e8 aa 9a ff ff       	callq  6c05 <safe_lshift_func_uint8_t_u_s>
    d15b:	41 89 c4             	mov    %eax,%r12d
    d15e:	48 8b 05 73 6b 00 00 	mov    0x6b73(%rip),%rax        # 13cd8 <g_531>
    d165:	48 8b 00             	mov    (%rax),%rax
    d168:	48 8b 00             	mov    (%rax),%rax
    d16b:	48 89 c6             	mov    %rax,%rsi
    d16e:	48 c7 c7 ff ff ff ff 	mov    $0xffffffffffffffff,%rdi
    d175:	e8 3a 98 ff ff       	callq  69b4 <safe_mod_func_int64_t_s_s>
    d17a:	48 83 f8 ff          	cmp    $0xffffffffffffffff,%rax
    d17e:	0f 94 c0             	sete   %al
    d181:	0f b6 c0             	movzbl %al,%eax
    d184:	41 0f b6 cc          	movzbl %r12b,%ecx
    d188:	48 8b 15 c9 79 00 00 	mov    0x79c9(%rip),%rdx        # 14b58 <g_104>
    d18f:	48 31 ca             	xor    %rcx,%rdx
    d192:	48 89 15 bf 79 00 00 	mov    %rdx,0x79bf(%rip)        # 14b58 <g_104>
    d199:	48 8b 15 b8 79 00 00 	mov    0x79b8(%rip),%rdx        # 14b58 <g_104>
    d1a0:	31 d0                	xor    %edx,%eax
    d1a2:	98                   	cwtl   
    d1a3:	89 de                	mov    %ebx,%esi
    d1a5:	89 c7                	mov    %eax,%edi
    d1a7:	e8 35 93 ff ff       	callq  64e1 <safe_lshift_func_int16_t_s_u>
    d1ac:	98                   	cwtl   
    d1ad:	39 85 8c e0 ff ff    	cmp    %eax,-0x1f74(%rbp)
    d1b3:	0f 84 71 01 00 00    	je     d32a <func_70+0x515e>
    d1b9:	48 8d 05 a8 79 00 00 	lea    0x79a8(%rip),%rax        # 14b68 <g_319>
    d1c0:	48 89 85 18 e2 ff ff 	mov    %rax,-0x1de8(%rbp)
    d1c7:	c6 05 2e 53 00 00 00 	movb   $0x0,0x532e(%rip)        # 124fc <g_559>
    d1ce:	e9 3d 01 00 00       	jmpq   d310 <func_70+0x5144>
    d1d3:	48 8d 05 7e 1e 00 00 	lea    0x1e7e(%rip),%rax        # f058 <g_583>
    d1da:	48 89 85 50 e1 ff ff 	mov    %rax,-0x1eb0(%rbp)
    d1e1:	48 8d 85 50 e1 ff ff 	lea    -0x1eb0(%rbp),%rax
    d1e8:	48 89 85 58 e1 ff ff 	mov    %rax,-0x1ea8(%rbp)
    d1ef:	48 8d 85 58 e1 ff ff 	lea    -0x1ea8(%rbp),%rax
    d1f6:	48 89 85 20 e2 ff ff 	mov    %rax,-0x1de0(%rbp)
    d1fd:	48 8d 05 58 52 00 00 	lea    0x5258(%rip),%rax        # 1245c <g_382>
    d204:	48 89 85 40 e5 ff ff 	mov    %rax,-0x1ac0(%rbp)
    d20b:	48 8d 05 4a 52 00 00 	lea    0x524a(%rip),%rax        # 1245c <g_382>
    d212:	48 89 85 48 e5 ff ff 	mov    %rax,-0x1ab8(%rbp)
    d219:	48 8d 05 3c 52 00 00 	lea    0x523c(%rip),%rax        # 1245c <g_382>
    d220:	48 89 85 50 e5 ff ff 	mov    %rax,-0x1ab0(%rbp)
    d227:	48 8d 05 2e 52 00 00 	lea    0x522e(%rip),%rax        # 1245c <g_382>
    d22e:	48 89 85 58 e5 ff ff 	mov    %rax,-0x1aa8(%rbp)
    d235:	48 8d 05 14 4e 00 00 	lea    0x4e14(%rip),%rax        # 12050 <g_110>
    d23c:	48 89 85 60 e1 ff ff 	mov    %rax,-0x1ea0(%rbp)
    d243:	48 8d 85 60 e1 ff ff 	lea    -0x1ea0(%rbp),%rax
    d24a:	48 89 85 28 e2 ff ff 	mov    %rax,-0x1dd8(%rbp)
    d251:	48 8b 85 20 e2 ff ff 	mov    -0x1de0(%rbp),%rax
    d258:	48 c7 00 00 00 00 00 	movq   $0x0,(%rax)
    d25f:	48 83 bd 18 e2 ff ff 	cmpq   $0x0,-0x1de8(%rbp)
    d266:	00 
    d267:	0f 94 c0             	sete   %al
    d26a:	0f b6 c0             	movzbl %al,%eax
    d26d:	89 c7                	mov    %eax,%edi
    d26f:	e8 32 9c ff ff       	callq  6ea6 <safe_unary_minus_func_uint32_t_u>
    d274:	48 8b 05 0d 6a 00 00 	mov    0x6a0d(%rip),%rax        # 13c88 <g_191>
    d27b:	0f b6 00             	movzbl (%rax),%eax
    d27e:	0f b6 d0             	movzbl %al,%edx
    d281:	48 8b 05 00 6a 00 00 	mov    0x6a00(%rip),%rax        # 13c88 <g_191>
    d288:	0f b6 00             	movzbl (%rax),%eax
    d28b:	0f b6 c0             	movzbl %al,%eax
    d28e:	89 d6                	mov    %edx,%esi
    d290:	89 c7                	mov    %eax,%edi
    d292:	e8 27 9a ff ff       	callq  6cbe <safe_rshift_func_uint8_t_u_u>
    d297:	0f b6 d0             	movzbl %al,%edx
    d29a:	48 83 bd e8 e1 ff ff 	cmpq   $0x0,-0x1e18(%rbp)
    d2a1:	00 
    d2a2:	0f 95 c0             	setne  %al
    d2a5:	0f b6 c0             	movzbl %al,%eax
    d2a8:	48 89 d6             	mov    %rdx,%rsi
    d2ab:	48 89 c7             	mov    %rax,%rdi
    d2ae:	e8 01 97 ff ff       	callq  69b4 <safe_mod_func_int64_t_s_s>
    d2b3:	8b 95 f4 df ff ff    	mov    -0x200c(%rbp),%edx
    d2b9:	89 d2                	mov    %edx,%edx
    d2bb:	48 39 d0             	cmp    %rdx,%rax
    d2be:	0f 9e c0             	setle  %al
    d2c1:	0f b6 c0             	movzbl %al,%eax
    d2c4:	89 85 b4 e4 ff ff    	mov    %eax,-0x1b4c(%rbp)
    d2ca:	48 8b 05 af 69 00 00 	mov    0x69af(%rip),%rax        # 13c80 <g_109>
    d2d1:	8b 00                	mov    (%rax),%eax
    d2d3:	0f b7 15 28 52 00 00 	movzwl 0x5228(%rip),%edx        # 12502 <g_592+0x2>
    d2da:	21 d0                	and    %edx,%eax
    d2dc:	66 89 05 1f 52 00 00 	mov    %ax,0x521f(%rip)        # 12502 <g_592+0x2>
    d2e3:	48 8b 85 28 e2 ff ff 	mov    -0x1dd8(%rbp),%rax
    d2ea:	48 8d 15 5f 4d 00 00 	lea    0x4d5f(%rip),%rdx        # 12050 <g_110>
    d2f1:	48 89 10             	mov    %rdx,(%rax)
    d2f4:	0f b6 05 01 52 00 00 	movzbl 0x5201(%rip),%eax        # 124fc <g_559>
    d2fb:	0f b6 c0             	movzbl %al,%eax
    d2fe:	be 08 00 00 00       	mov    $0x8,%esi
    d303:	89 c7                	mov    %eax,%edi
    d305:	e8 a9 90 ff ff       	callq  63b3 <safe_add_func_int16_t_s_s>
    d30a:	88 05 ec 51 00 00    	mov    %al,0x51ec(%rip)        # 124fc <g_559>
    d310:	0f b6 05 e5 51 00 00 	movzbl 0x51e5(%rip),%eax        # 124fc <g_559>
    d317:	3c 36                	cmp    $0x36,%al
    d319:	0f 84 b4 fe ff ff    	je     d1d3 <func_70+0x5007>
    d31f:	8b 85 f0 df ff ff    	mov    -0x2010(%rbp),%eax
    d325:	e9 8c 0d 00 00       	jmpq   e0b6 <func_70+0x5eea>
    d32a:	c7 05 08 4d 00 00 00 	movl   $0x0,0x4d08(%rip)        # 1203c <g_99>
    d331:	00 00 00 
    d334:	e9 a1 00 00 00       	jmpq   d3da <func_70+0x520e>
    d339:	48 c7 85 f8 e1 ff ff 	movq   $0x0,-0x1e08(%rbp)
    d340:	00 00 00 00 
    d344:	48 c7 85 00 e2 ff ff 	movq   $0x0,-0x1e00(%rbp)
    d34b:	00 00 00 00 
    d34f:	48 c7 85 08 e2 ff ff 	movq   $0x0,-0x1df8(%rbp)
    d356:	00 00 00 00 
    d35a:	48 8d 85 b0 e4 ff ff 	lea    -0x1b50(%rbp),%rax
    d361:	48 83 c0 04          	add    $0x4,%rax
    d365:	48 89 85 10 e2 ff ff 	mov    %rax,-0x1df0(%rbp)
    d36c:	c7 85 64 e0 ff ff 00 	movl   $0x0,-0x1f9c(%rbp)
    d373:	00 00 00 
    d376:	eb 1e                	jmp    d396 <func_70+0x51ca>
    d378:	8b 85 64 e0 ff ff    	mov    -0x1f9c(%rbp),%eax
    d37e:	48 98                	cltq   
    d380:	48 8d 95 48 e1 ff ff 	lea    -0x1eb8(%rbp),%rdx
    d387:	48 89 94 c5 40 e5 ff 	mov    %rdx,-0x1ac0(%rbp,%rax,8)
    d38e:	ff 
    d38f:	83 85 64 e0 ff ff 01 	addl   $0x1,-0x1f9c(%rbp)
    d396:	83 bd 64 e0 ff ff 00 	cmpl   $0x0,-0x1f9c(%rbp)
    d39d:	7e d9                	jle    d378 <func_70+0x51ac>
    d39f:	48 8b 05 42 69 00 00 	mov    0x6942(%rip),%rax        # 13ce8 <g_598>
    d3a6:	48 8b 95 f0 e1 ff ff 	mov    -0x1e10(%rbp),%rdx
    d3ad:	48 89 10             	mov    %rdx,(%rax)
    d3b0:	48 8b 85 a8 e5 ff ff 	mov    -0x1a58(%rbp),%rax
    d3b7:	48 83 e8 01          	sub    $0x1,%rax
    d3bb:	48 89 85 a8 e5 ff ff 	mov    %rax,-0x1a58(%rbp)
    d3c2:	8b 05 74 4c 00 00    	mov    0x4c74(%rip),%eax        # 1203c <g_99>
    d3c8:	be 05 00 00 00       	mov    $0x5,%esi
    d3cd:	89 c7                	mov    %eax,%edi
    d3cf:	e8 e4 9a ff ff       	callq  6eb8 <safe_add_func_uint32_t_u_u>
    d3d4:	89 05 62 4c 00 00    	mov    %eax,0x4c62(%rip)        # 1203c <g_99>
    d3da:	8b 05 5c 4c 00 00    	mov    0x4c5c(%rip),%eax        # 1203c <g_99>
    d3e0:	83 f8 1e             	cmp    $0x1e,%eax
    d3e3:	0f 85 50 ff ff ff    	jne    d339 <func_70+0x516d>
    d3e9:	66 83 bd 0c e0 ff ff 	cmpw   $0x0,-0x1ff4(%rbp)
    d3f0:	00 
    d3f1:	75 16                	jne    d409 <func_70+0x523d>
    d3f3:	83 85 30 e0 ff ff 01 	addl   $0x1,-0x1fd0(%rbp)
    d3fa:	83 bd 30 e0 ff ff 27 	cmpl   $0x27,-0x1fd0(%rbp)
    d401:	0f 84 77 fc ff ff    	je     d07e <func_70+0x4eb2>
    d407:	eb 01                	jmp    d40a <func_70+0x523e>
    d409:	90                   	nop
    d40a:	8b 05 48 4c 00 00    	mov    0x4c48(%rip),%eax        # 12058 <g_132>
    d410:	0f b6 c0             	movzbl %al,%eax
    d413:	be 01 00 00 00       	mov    $0x1,%esi
    d418:	89 c7                	mov    %eax,%edi
    d41a:	e8 3b 97 ff ff       	callq  6b5a <safe_add_func_uint8_t_u_u>
    d41f:	0f b6 c0             	movzbl %al,%eax
    d422:	89 05 30 4c 00 00    	mov    %eax,0x4c30(%rip)        # 12058 <g_132>
    d428:	8b 05 2a 4c 00 00    	mov    0x4c2a(%rip),%eax        # 12058 <g_132>
    d42e:	83 f8 17             	cmp    $0x17,%eax
    d431:	0f 8e d2 fb ff ff    	jle    d009 <func_70+0x4e3d>
    d437:	48 c7 05 46 4e 00 00 	movq   $0x17,0x4e46(%rip)        # 12288 <g_225>
    d43e:	17 00 00 00 
    d442:	e9 83 03 00 00       	jmpq   d7ca <func_70+0x55fe>
    d447:	48 c7 85 b8 e1 ff ff 	movq   $0x0,-0x1e48(%rbp)
    d44e:	00 00 00 00 
    d452:	48 c7 85 c0 e1 ff ff 	movq   $0x0,-0x1e40(%rbp)
    d459:	00 00 00 00 
    d45d:	48 8d 05 f0 76 00 00 	lea    0x76f0(%rip),%rax        # 14b54 <g_67>
    d464:	48 89 85 c8 e1 ff ff 	mov    %rax,-0x1e38(%rbp)
    d46b:	48 8d 05 96 65 00 00 	lea    0x6596(%rip),%rax        # 13a08 <g_54>
    d472:	48 89 85 d0 e1 ff ff 	mov    %rax,-0x1e30(%rbp)
    d479:	c7 85 68 e0 ff ff 00 	movl   $0x0,-0x1f98(%rbp)
    d480:	00 00 00 
    d483:	eb 1a                	jmp    d49f <func_70+0x52d3>
    d485:	8b 85 68 e0 ff ff    	mov    -0x1f98(%rbp),%eax
    d48b:	48 98                	cltq   
    d48d:	c7 84 85 a0 e5 ff ff 	movl   $0x6326bfe0,-0x1a60(%rbp,%rax,4)
    d494:	e0 bf 26 63 
    d498:	83 85 68 e0 ff ff 01 	addl   $0x1,-0x1f98(%rbp)
    d49f:	83 bd 68 e0 ff ff 00 	cmpl   $0x0,-0x1f98(%rbp)
    d4a6:	7e dd                	jle    d485 <func_70+0x52b9>
    d4a8:	8b 85 f4 df ff ff    	mov    -0x200c(%rbp),%eax
    d4ae:	0f b6 d8             	movzbl %al,%ebx
    d4b1:	48 8d 05 9c 76 00 00 	lea    0x769c(%rip),%rax        # 14b54 <g_67>
    d4b8:	48 39 85 a8 e1 ff ff 	cmp    %rax,-0x1e58(%rbp)
    d4bf:	41 0f 94 c4          	sete   %r12b
    d4c3:	48 8b 85 10 e7 ff ff 	mov    -0x18f0(%rbp),%rax
    d4ca:	48 85 c0             	test   %rax,%rax
    d4cd:	74 58                	je     d527 <func_70+0x535b>
    d4cf:	8b 85 f4 df ff ff    	mov    -0x200c(%rbp),%eax
    d4d5:	0f be c0             	movsbl %al,%eax
    d4d8:	be 00 00 00 00       	mov    $0x0,%esi
    d4dd:	89 c7                	mov    %eax,%edi
    d4df:	e8 2e 8d ff ff       	callq  6212 <safe_mul_func_int8_t_s_s>
    d4e4:	48 8b 95 c8 e1 ff ff 	mov    -0x1e38(%rbp),%rdx
    d4eb:	88 02                	mov    %al,(%rdx)
    d4ed:	48 8b 85 c8 e1 ff ff 	mov    -0x1e38(%rbp),%rax
    d4f4:	0f b6 00             	movzbl (%rax),%eax
    d4f7:	0f be d0             	movsbl %al,%edx
    d4fa:	8b 85 f0 df ff ff    	mov    -0x2010(%rbp),%eax
    d500:	39 c2                	cmp    %eax,%edx
    d502:	0f 9e c0             	setle  %al
    d505:	0f b6 d0             	movzbl %al,%edx
    d508:	8b 85 48 e1 ff ff    	mov    -0x1eb8(%rbp),%eax
    d50e:	39 c2                	cmp    %eax,%edx
    d510:	0f 95 c0             	setne  %al
    d513:	0f b6 d0             	movzbl %al,%edx
    d516:	8b 85 ec df ff ff    	mov    -0x2014(%rbp),%eax
    d51c:	39 c2                	cmp    %eax,%edx
    d51e:	74 07                	je     d527 <func_70+0x535b>
    d520:	b8 01 00 00 00       	mov    $0x1,%eax
    d525:	eb 05                	jmp    d52c <func_70+0x5360>
    d527:	b8 00 00 00 00       	mov    $0x0,%eax
    d52c:	83 e0 01             	and    $0x1,%eax
    d52f:	44 21 e0             	and    %r12d,%eax
    d532:	0f b6 c0             	movzbl %al,%eax
    d535:	89 de                	mov    %ebx,%esi
    d537:	89 c7                	mov    %eax,%edi
    d539:	e8 70 96 ff ff       	callq  6bae <safe_mod_func_uint8_t_u_u>
    d53e:	84 c0                	test   %al,%al
    d540:	74 08                	je     d54a <func_70+0x537e>
    d542:	8b 85 a0 e5 ff ff    	mov    -0x1a60(%rbp),%eax
    d548:	85 c0                	test   %eax,%eax
    d54a:	48 8b 05 2f 67 00 00 	mov    0x672f(%rip),%rax        # 13c80 <g_109>
    d551:	8b 00                	mov    (%rax),%eax
    d553:	85 c0                	test   %eax,%eax
    d555:	0f 84 1c 02 00 00    	je     d777 <func_70+0x55ab>
    d55b:	48 8d 05 fa 4e 00 00 	lea    0x4efa(%rip),%rax        # 1245c <g_382>
    d562:	48 89 85 d8 e1 ff ff 	mov    %rax,-0x1e28(%rbp)
    d569:	c7 85 6c e0 ff ff 00 	movl   $0x0,-0x1f94(%rbp)
    d570:	00 00 00 
    d573:	eb 1e                	jmp    d593 <func_70+0x53c7>
    d575:	8b 85 6c e0 ff ff    	mov    -0x1f94(%rbp),%eax
    d57b:	48 98                	cltq   
    d57d:	48 8d 95 a0 e5 ff ff 	lea    -0x1a60(%rbp),%rdx
    d584:	48 89 94 c5 50 f0 ff 	mov    %rdx,-0xfb0(%rbp,%rax,8)
    d58b:	ff 
    d58c:	83 85 6c e0 ff ff 01 	addl   $0x1,-0x1f94(%rbp)
    d593:	83 bd 6c e0 ff ff 00 	cmpl   $0x0,-0x1f94(%rbp)
    d59a:	7e d9                	jle    d575 <func_70+0x53a9>
    d59c:	48 8b 05 dd 4c 00 00 	mov    0x4cdd(%rip),%rax        # 12280 <g_224>
    d5a3:	41 89 c6             	mov    %eax,%r14d
    d5a6:	48 8b 05 8b 4c 00 00 	mov    0x4c8b(%rip),%rax        # 12238 <g_223+0xb8>
    d5ad:	89 c1                	mov    %eax,%ecx
    d5af:	8b 85 ec df ff ff    	mov    -0x2014(%rbp),%eax
    d5b5:	89 c2                	mov    %eax,%edx
    d5b7:	48 8b 05 c2 66 00 00 	mov    0x66c2(%rip),%rax        # 13c80 <g_109>
    d5be:	21 ca                	and    %ecx,%edx
    d5c0:	89 10                	mov    %edx,(%rax)
    d5c2:	8b 00                	mov    (%rax),%eax
    d5c4:	85 c0                	test   %eax,%eax
    d5c6:	0f 84 8b 01 00 00    	je     d757 <func_70+0x558b>
    d5cc:	8b 85 ec df ff ff    	mov    -0x2014(%rbp),%eax
    d5d2:	41 89 c7             	mov    %eax,%r15d
    d5d5:	0f b6 85 04 e0 ff ff 	movzbl -0x1ffc(%rbp),%eax
    d5dc:	0f be c0             	movsbl %al,%eax
    d5df:	be 01 00 00 00       	mov    $0x1,%esi
    d5e4:	89 c7                	mov    %eax,%edi
    d5e6:	e8 03 8d ff ff       	callq  62ee <safe_lshift_func_int8_t_s_u>
    d5eb:	44 0f be e8          	movsbl %al,%r13d
    d5ef:	0f b6 05 06 4f 00 00 	movzbl 0x4f06(%rip),%eax        # 124fc <g_559>
    d5f6:	0f b6 d8             	movzbl %al,%ebx
    d5f9:	8b 85 f0 df ff ff    	mov    -0x2010(%rbp),%eax
    d5ff:	4c 63 e0             	movslq %eax,%r12
    d602:	48 83 bd d8 e1 ff ff 	cmpq   $0x0,-0x1e28(%rbp)
    d609:	00 
    d60a:	0f 95 c0             	setne  %al
    d60d:	89 c2                	mov    %eax,%edx
    d60f:	0f b7 05 e4 4f 00 00 	movzwl 0x4fe4(%rip),%eax        # 125fa <g_641+0xda>
    d616:	21 d0                	and    %edx,%eax
    d618:	0f be c0             	movsbl %al,%eax
    d61b:	be 02 00 00 00       	mov    $0x2,%esi
    d620:	89 c7                	mov    %eax,%edi
    d622:	e8 c7 8c ff ff       	callq  62ee <safe_lshift_func_int8_t_s_u>
    d627:	0f b6 85 06 e0 ff ff 	movzbl -0x1ffa(%rbp),%eax
    d62e:	4c 89 e6             	mov    %r12,%rsi
    d631:	48 89 c7             	mov    %rax,%rdi
    d634:	e8 6f 92 ff ff       	callq  68a8 <safe_sub_func_int64_t_s_s>
    d639:	be bc be d1 23       	mov    $0x23d1bebc,%esi
    d63e:	89 c7                	mov    %eax,%edi
    d640:	e8 71 8f ff ff       	callq  65b6 <safe_add_func_int32_t_s_s>
    d645:	48 63 d0             	movslq %eax,%rdx
    d648:	48 8b 05 89 66 00 00 	mov    0x6689(%rip),%rax        # 13cd8 <g_531>
    d64f:	48 8b 00             	mov    (%rax),%rax
    d652:	48 8b 00             	mov    (%rax),%rax
    d655:	48 39 c2             	cmp    %rax,%rdx
    d658:	0f 94 c0             	sete   %al
    d65b:	0f b6 c0             	movzbl %al,%eax
    d65e:	89 de                	mov    %ebx,%esi
    d660:	89 c7                	mov    %eax,%edi
    d662:	e8 65 90 ff ff       	callq  66cc <safe_mod_func_int32_t_s_s>
    d667:	48 63 d0             	movslq %eax,%rdx
    d66a:	48 8b 05 67 66 00 00 	mov    0x6667(%rip),%rax        # 13cd8 <g_531>
    d671:	48 8b 00             	mov    (%rax),%rax
    d674:	48 8b 00             	mov    (%rax),%rax
    d677:	48 39 c2             	cmp    %rax,%rdx
    d67a:	0f 9d c0             	setge  %al
    d67d:	0f b6 d0             	movzbl %al,%edx
    d680:	8b 85 f4 df ff ff    	mov    -0x200c(%rbp),%eax
    d686:	39 c2                	cmp    %eax,%edx
    d688:	0f 96 c0             	setbe  %al
    d68b:	0f b6 d0             	movzbl %al,%edx
    d68e:	48 8b 05 fb 65 00 00 	mov    0x65fb(%rip),%rax        # 13c90 <g_318>
    d695:	48 8b 00             	mov    (%rax),%rax
    d698:	48 39 c2             	cmp    %rax,%rdx
    d69b:	74 07                	je     d6a4 <func_70+0x54d8>
    d69d:	b8 01 00 00 00       	mov    $0x1,%eax
    d6a2:	eb 05                	jmp    d6a9 <func_70+0x54dd>
    d6a4:	b8 00 00 00 00       	mov    $0x0,%eax
    d6a9:	44 39 e8             	cmp    %r13d,%eax
    d6ac:	0f 9d c0             	setge  %al
    d6af:	0f b6 d0             	movzbl %al,%edx
    d6b2:	8b 85 a0 e5 ff ff    	mov    -0x1a60(%rbp),%eax
    d6b8:	21 c2                	and    %eax,%edx
    d6ba:	8b 05 94 49 00 00    	mov    0x4994(%rip),%eax        # 12054 <g_114>
    d6c0:	21 d0                	and    %edx,%eax
    d6c2:	89 05 8c 49 00 00    	mov    %eax,0x498c(%rip)        # 12054 <g_114>
    d6c8:	8b 05 86 49 00 00    	mov    0x4986(%rip),%eax        # 12054 <g_114>
    d6ce:	89 85 f0 df ff ff    	mov    %eax,-0x2010(%rbp)
    d6d4:	48 8b 05 ed 65 00 00 	mov    0x65ed(%rip),%rax        # 13cc8 <g_387>
    d6db:	48 8b 00             	mov    (%rax),%rax
    d6de:	48 8b 00             	mov    (%rax),%rax
    d6e1:	0f b7 00             	movzwl (%rax),%eax
    d6e4:	0f b7 c0             	movzwl %ax,%eax
    d6e7:	44 89 fe             	mov    %r15d,%esi
    d6ea:	89 c7                	mov    %eax,%edi
    d6ec:	e8 57 97 ff ff       	callq  6e48 <safe_rshift_func_uint16_t_u_s>
    d6f1:	48 8b 95 a0 e1 ff ff 	mov    -0x1e60(%rbp),%rdx
    d6f8:	66 89 02             	mov    %ax,(%rdx)
    d6fb:	48 8b 85 a0 e1 ff ff 	mov    -0x1e60(%rbp),%rax
    d702:	0f b7 00             	movzwl (%rax),%eax
    d705:	0f b7 d0             	movzwl %ax,%edx
    d708:	8b 85 f4 df ff ff    	mov    -0x200c(%rbp),%eax
    d70e:	39 c2                	cmp    %eax,%edx
    d710:	74 16                	je     d728 <func_70+0x555c>
    d712:	48 8d 05 31 74 00 00 	lea    0x7431(%rip),%rax        # 14b4a <g_19+0x2>
    d719:	0f b7 00             	movzwl (%rax),%eax
    d71c:	66 85 c0             	test   %ax,%ax
    d71f:	74 07                	je     d728 <func_70+0x555c>
    d721:	b8 01 00 00 00       	mov    $0x1,%eax
    d726:	eb 05                	jmp    d72d <func_70+0x5561>
    d728:	b8 00 00 00 00       	mov    $0x0,%eax
    d72d:	0f be d8             	movsbl %al,%ebx
    d730:	8b 85 ec df ff ff    	mov    -0x2014(%rbp),%eax
    d736:	98                   	cwtl   
    d737:	be 04 00 00 00       	mov    $0x4,%esi
    d73c:	89 c7                	mov    %eax,%edi
    d73e:	e8 e7 8d ff ff       	callq  652a <safe_rshift_func_int16_t_s_s>
    d743:	0f be c0             	movsbl %al,%eax
    d746:	89 de                	mov    %ebx,%esi
    d748:	89 c7                	mov    %eax,%edi
    d74a:	e8 e2 8a ff ff       	callq  6231 <safe_mod_func_int8_t_s_s>
    d74f:	b8 01 00 00 00       	mov    $0x1,%eax
    d754:	83 f8 05             	cmp    $0x5,%eax
    d757:	48 8b 85 d0 e1 ff ff 	mov    -0x1e30(%rbp),%rax
    d75e:	44 89 f2             	mov    %r14d,%edx
    d761:	be 00 00 00 00       	mov    $0x0,%esi
    d766:	48 89 c7             	mov    %rax,%rdi
    d769:	e8 8f 09 00 00       	callq  e0fd <func_82>
    d76e:	48 89 85 f8 df ff ff 	mov    %rax,-0x2008(%rbp)
    d775:	eb 41                	jmp    d7b8 <func_70+0x55ec>
    d777:	c7 85 70 e0 ff ff 00 	movl   $0x0,-0x1f90(%rbp)
    d77e:	00 00 00 
    d781:	eb 1b                	jmp    d79e <func_70+0x55d2>
    d783:	8b 85 70 e0 ff ff    	mov    -0x1f90(%rbp),%eax
    d789:	48 98                	cltq   
    d78b:	48 c7 84 c5 50 f0 ff 	movq   $0x0,-0xfb0(%rbp,%rax,8)
    d792:	ff 00 00 00 00 
    d797:	83 85 70 e0 ff ff 01 	addl   $0x1,-0x1f90(%rbp)
    d79e:	83 bd 70 e0 ff ff 02 	cmpl   $0x2,-0x1f90(%rbp)
    d7a5:	7e dc                	jle    d783 <func_70+0x55b7>
    d7a7:	48 8b 05 92 65 00 00 	mov    0x6592(%rip),%rax        # 13d40 <g_643>
    d7ae:	48 8b 95 58 f0 ff ff 	mov    -0xfa8(%rbp),%rdx
    d7b5:	48 89 10             	mov    %rdx,(%rax)
    d7b8:	48 8b 05 c9 4a 00 00 	mov    0x4ac9(%rip),%rax        # 12288 <g_225>
    d7bf:	48 83 e8 01          	sub    $0x1,%rax
    d7c3:	48 89 05 be 4a 00 00 	mov    %rax,0x4abe(%rip)        # 12288 <g_225>
    d7ca:	48 8b 05 b7 4a 00 00 	mov    0x4ab7(%rip),%rax        # 12288 <g_225>
    d7d1:	48 83 f8 e7          	cmp    $0xffffffffffffffe7,%rax
    d7d5:	0f 8c 6c fc ff ff    	jl     d447 <func_70+0x527b>
    d7db:	48 8b 05 a6 64 00 00 	mov    0x64a6(%rip),%rax        # 13c88 <g_191>
    d7e2:	0f b6 18             	movzbl (%rax),%ebx
    d7e5:	48 8b 05 b4 68 00 00 	mov    0x68b4(%rip),%rax        # 140a0 <g_649+0x340>
    d7ec:	48 85 c0             	test   %rax,%rax
    d7ef:	41 0f 94 c4          	sete   %r12b
    d7f3:	48 c7 05 32 6d 00 00 	movq   $0x0,0x6d32(%rip)        # 14530 <g_654>
    d7fa:	00 00 00 00 
    d7fe:	48 8b 05 2b 6d 00 00 	mov    0x6d2b(%rip),%rax        # 14530 <g_654>
    d805:	48 8d 15 30 48 00 00 	lea    0x4830(%rip),%rdx        # 1203c <g_99>
    d80c:	48 39 d0             	cmp    %rdx,%rax
    d80f:	0f 95 c0             	setne  %al
    d812:	0f b6 c0             	movzbl %al,%eax
    d815:	89 85 48 e1 ff ff    	mov    %eax,-0x1eb8(%rbp)
    d81b:	8b 85 ec df ff ff    	mov    -0x2014(%rbp),%eax
    d821:	0f b7 c0             	movzwl %ax,%eax
    d824:	be 67 c8 00 00       	mov    $0xc867,%esi
    d829:	89 c7                	mov    %eax,%edi
    d82b:	e8 0d 95 ff ff       	callq  6d3d <safe_mul_func_uint16_t_u_u>
    d830:	0f b6 95 06 e0 ff ff 	movzbl -0x1ffa(%rbp),%edx
    d837:	66 39 d0             	cmp    %dx,%ax
    d83a:	0f 97 c0             	seta   %al
    d83d:	44 09 e0             	or     %r12d,%eax
    d840:	38 c3                	cmp    %al,%bl
    d842:	0f 92 c0             	setb   %al
    d845:	0f b6 c0             	movzbl %al,%eax
    d848:	89 c6                	mov    %eax,%esi
    d84a:	bf 01 00 00 00       	mov    $0x1,%edi
    d84f:	e8 7c 96 ff ff       	callq  6ed0 <safe_sub_func_uint32_t_u_u>
    d854:	48 8d 05 ef 72 00 00 	lea    0x72ef(%rip),%rax        # 14b4a <g_19+0x2>
    d85b:	0f b7 00             	movzwl (%rax),%eax
    d85e:	66 85 c0             	test   %ax,%ax
    d861:	75 13                	jne    d876 <func_70+0x56aa>
    d863:	48 8b 05 5e 64 00 00 	mov    0x645e(%rip),%rax        # 13cc8 <g_387>
    d86a:	48 8b 00             	mov    (%rax),%rax
    d86d:	48 8b 00             	mov    (%rax),%rax
    d870:	0f b7 00             	movzwl (%rax),%eax
    d873:	66 85 c0             	test   %ax,%ax
    d876:	ba 00 00 00 00       	mov    $0x0,%edx
    d87b:	48 8b 85 b0 e1 ff ff 	mov    -0x1e50(%rbp),%rax
    d882:	8b 00                	mov    (%rax),%eax
    d884:	21 c2                	and    %eax,%edx
    d886:	48 8b 85 b0 e1 ff ff 	mov    -0x1e50(%rbp),%rax
    d88d:	89 10                	mov    %edx,(%rax)
    d88f:	eb 07                	jmp    d898 <func_70+0x56cc>
    d891:	90                   	nop
    d892:	eb 04                	jmp    d898 <func_70+0x56cc>
    d894:	90                   	nop
    d895:	eb 01                	jmp    d898 <func_70+0x56cc>
    d897:	90                   	nop
    d898:	c7 85 20 e0 ff ff 00 	movl   $0x0,-0x1fe0(%rbp)
    d89f:	00 00 00 
    d8a2:	e9 88 06 00 00       	jmpq   df2f <func_70+0x5d63>
    d8a7:	c7 85 c8 e0 ff ff fc 	movl   $0x95bf54fc,-0x1f38(%rbp)
    d8ae:	54 bf 95 
    d8b1:	c7 85 74 e0 ff ff 09 	movl   $0x9,-0x1f8c(%rbp)
    d8b8:	00 00 00 
    d8bb:	c7 85 40 e5 ff ff ff 	movl   $0xffffffff,-0x1ac0(%rbp)
    d8c2:	ff ff ff 
    d8c5:	c7 85 44 e5 ff ff ff 	movl   $0xffffffff,-0x1abc(%rbp)
    d8cc:	ff ff ff 
    d8cf:	c7 85 48 e5 ff ff ff 	movl   $0xffffffff,-0x1ab8(%rbp)
    d8d6:	ff ff ff 
    d8d9:	c7 85 4c e5 ff ff ff 	movl   $0xffffffff,-0x1ab4(%rbp)
    d8e0:	ff ff ff 
    d8e3:	48 c7 85 60 e3 ff ff 	movq   $0x0,-0x1ca0(%rbp)
    d8ea:	00 00 00 00 
    d8ee:	8b 85 ec df ff ff    	mov    -0x2014(%rbp),%eax
    d8f4:	85 c0                	test   %eax,%eax
    d8f6:	0f 85 44 06 00 00    	jne    df40 <func_70+0x5d74>
    d8fc:	c7 05 36 47 00 00 00 	movl   $0x0,0x4736(%rip)        # 1203c <g_99>
    d903:	00 00 00 
    d906:	e9 06 06 00 00       	jmpq   df11 <func_70+0x5d45>
    d90b:	48 8d 85 20 e1 ff ff 	lea    -0x1ee0(%rbp),%rax
    d912:	48 89 85 50 e1 ff ff 	mov    %rax,-0x1eb0(%rbp)
    d919:	48 8d 85 50 e1 ff ff 	lea    -0x1eb0(%rbp),%rax
    d920:	48 89 85 68 e3 ff ff 	mov    %rax,-0x1c98(%rbp)
    d927:	48 8d 05 5a 4d 00 00 	lea    0x4d5a(%rip),%rax        # 12688 <g_665>
    d92e:	48 89 85 58 e1 ff ff 	mov    %rax,-0x1ea8(%rbp)
    d935:	48 8d 85 58 e1 ff ff 	lea    -0x1ea8(%rbp),%rax
    d93c:	48 89 85 60 e1 ff ff 	mov    %rax,-0x1ea0(%rbp)
    d943:	48 8d 85 60 e1 ff ff 	lea    -0x1ea0(%rbp),%rax
    d94a:	48 89 85 70 e3 ff ff 	mov    %rax,-0x1c90(%rbp)
    d951:	c7 85 cc e0 ff ff 05 	movl   $0x5,-0x1f34(%rbp)
    d958:	00 00 00 
    d95b:	c7 85 d0 e0 ff ff 06 	movl   $0x6,-0x1f30(%rbp)
    d962:	00 00 00 
    d965:	c7 85 d4 e0 ff ff a6 	movl   $0x9177b9a6,-0x1f2c(%rbp)
    d96c:	b9 77 91 
    d96f:	c7 85 d8 e0 ff ff fc 	movl   $0xfffffffc,-0x1f28(%rbp)
    d976:	ff ff ff 
    d979:	c7 85 dc e0 ff ff 06 	movl   $0x6,-0x1f24(%rbp)
    d980:	00 00 00 
    d983:	c7 85 e0 e0 ff ff ff 	movl   $0xffffffff,-0x1f20(%rbp)
    d98a:	ff ff ff 
    d98d:	8b 85 ec df ff ff    	mov    -0x2014(%rbp),%eax
    d993:	34 ab                	xor    $0xab,%al
    d995:	41 89 c7             	mov    %eax,%r15d
    d998:	8b 85 ec df ff ff    	mov    -0x2014(%rbp),%eax
    d99e:	0f be d0             	movsbl %al,%edx
    d9a1:	8b 85 18 e0 ff ff    	mov    -0x1fe8(%rbp),%eax
    d9a7:	0f be c0             	movsbl %al,%eax
    d9aa:	89 d6                	mov    %edx,%esi
    d9ac:	89 c7                	mov    %eax,%edi
    d9ae:	e8 21 88 ff ff       	callq  61d4 <safe_add_func_int8_t_s_s>
    d9b3:	41 89 c5             	mov    %eax,%r13d
    d9b6:	48 8b 95 50 e1 ff ff 	mov    -0x1eb0(%rbp),%rdx
    d9bd:	48 8b 85 68 e3 ff ff 	mov    -0x1c98(%rbp),%rax
    d9c4:	48 89 10             	mov    %rdx,(%rax)
    d9c7:	48 8b 85 68 e3 ff ff 	mov    -0x1c98(%rbp),%rax
    d9ce:	48 8b 08             	mov    (%rax),%rcx
    d9d1:	48 8b 85 70 e3 ff ff 	mov    -0x1c90(%rbp),%rax
    d9d8:	48 8d 95 20 e1 ff ff 	lea    -0x1ee0(%rbp),%rdx
    d9df:	48 89 10             	mov    %rdx,(%rax)
    d9e2:	48 8b 85 70 e3 ff ff 	mov    -0x1c90(%rbp),%rax
    d9e9:	48 8b 00             	mov    (%rax),%rax
    d9ec:	48 39 c1             	cmp    %rax,%rcx
    d9ef:	0f 95 c0             	setne  %al
    d9f2:	44 0f b6 e0          	movzbl %al,%r12d
    d9f6:	8b 9d f0 df ff ff    	mov    -0x2010(%rbp),%ebx
    d9fc:	8b 85 f0 df ff ff    	mov    -0x2010(%rbp),%eax
    da02:	41 89 c6             	mov    %eax,%r14d
    da05:	c7 85 c8 e0 ff ff 1b 	movl   $0xbd0ab41b,-0x1f38(%rbp)
    da0c:	b4 0a bd 
    da0f:	8b 95 c8 e0 ff ff    	mov    -0x1f38(%rbp),%edx
    da15:	8b 85 ec df ff ff    	mov    -0x2014(%rbp),%eax
    da1b:	39 c2                	cmp    %eax,%edx
    da1d:	0f 96 c0             	setbe  %al
    da20:	0f b6 c0             	movzbl %al,%eax
    da23:	be 06 00 00 00       	mov    $0x6,%esi
    da28:	89 c7                	mov    %eax,%edi
    da2a:	e8 d0 92 ff ff       	callq  6cff <safe_add_func_uint16_t_u_u>
    da2f:	0f b7 c0             	movzwl %ax,%eax
    da32:	89 c6                	mov    %eax,%esi
    da34:	bf 01 00 00 00       	mov    $0x1,%edi
    da39:	e8 25 8b ff ff       	callq  6563 <safe_rshift_func_int16_t_s_u>
    da3e:	0f bf d0             	movswl %ax,%edx
    da41:	0f b6 85 ac e3 ff ff 	movzbl -0x1c54(%rbp),%eax
    da48:	0f b6 c0             	movzbl %al,%eax
    da4b:	39 c2                	cmp    %eax,%edx
    da4d:	0f 9d c0             	setge  %al
    da50:	0f b6 c0             	movzbl %al,%eax
    da53:	be 00 00 00 00       	mov    $0x0,%esi
    da58:	89 c7                	mov    %eax,%edi
    da5a:	e8 b3 87 ff ff       	callq  6212 <safe_mul_func_int8_t_s_s>
    da5f:	48 8b 15 6a 62 00 00 	mov    0x626a(%rip),%rdx        # 13cd0 <g_458>
    da66:	48 8b 0a             	mov    (%rdx),%rcx
    da69:	48 0f be d0          	movsbq %al,%rdx
    da6d:	48 8b 05 5c 62 00 00 	mov    0x625c(%rip),%rax        # 13cd0 <g_458>
    da74:	48 31 ca             	xor    %rcx,%rdx
    da77:	48 89 10             	mov    %rdx,(%rax)
    da7a:	8b 85 ec df ff ff    	mov    -0x2014(%rbp),%eax
    da80:	83 f8 01             	cmp    $0x1,%eax
    da83:	0f 94 c0             	sete   %al
    da86:	0f b6 c0             	movzbl %al,%eax
    da89:	44 89 f6             	mov    %r14d,%esi
    da8c:	89 c7                	mov    %eax,%edi
    da8e:	e8 73 93 ff ff       	callq  6e06 <safe_lshift_func_uint16_t_u_u>
    da93:	98                   	cwtl   
    da94:	89 de                	mov    %ebx,%esi
    da96:	89 c7                	mov    %eax,%edi
    da98:	e8 f5 89 ff ff       	callq  6492 <safe_lshift_func_int16_t_s_s>
    da9d:	98                   	cwtl   
    da9e:	41 39 c4             	cmp    %eax,%r12d
    daa1:	0f 94 c0             	sete   %al
    daa4:	0f b6 c0             	movzbl %al,%eax
    daa7:	be 03 00 00 00       	mov    $0x3,%esi
    daac:	89 c7                	mov    %eax,%edi
    daae:	e8 82 88 ff ff       	callq  6335 <safe_rshift_func_int8_t_s_s>
    dab3:	44 09 e8             	or     %r13d,%eax
    dab6:	0f be c0             	movsbl %al,%eax
    dab9:	44 21 f8             	and    %r15d,%eax
    dabc:	89 85 d8 e9 ff ff    	mov    %eax,-0x1628(%rbp)
    dac2:	48 8b 05 77 62 00 00 	mov    0x6277(%rip),%rax        # 13d40 <g_643>
    dac9:	48 8b 95 58 e1 ff ff 	mov    -0x1ea8(%rbp),%rdx
    dad0:	48 89 10             	mov    %rdx,(%rax)
    dad3:	48 c7 05 6a 45 00 00 	movq   $0x0,0x456a(%rip)        # 12048 <g_106>
    dada:	00 00 00 00 
    dade:	e9 0e 04 00 00       	jmpq   def1 <func_70+0x5d25>
    dae3:	48 8d 05 66 45 00 00 	lea    0x4566(%rip),%rax        # 12050 <g_110>
    daea:	48 89 85 90 e6 ff ff 	mov    %rax,-0x1970(%rbp)
    daf1:	48 c7 85 98 e6 ff ff 	movq   $0x0,-0x1968(%rbp)
    daf8:	00 00 00 00 
    dafc:	48 c7 85 a0 e6 ff ff 	movq   $0x0,-0x1960(%rbp)
    db03:	00 00 00 00 
    db07:	48 8d 05 42 45 00 00 	lea    0x4542(%rip),%rax        # 12050 <g_110>
    db0e:	48 89 85 a8 e6 ff ff 	mov    %rax,-0x1958(%rbp)
    db15:	48 c7 85 b0 e6 ff ff 	movq   $0x0,-0x1950(%rbp)
    db1c:	00 00 00 00 
    db20:	48 c7 85 b8 e6 ff ff 	movq   $0x0,-0x1948(%rbp)
    db27:	00 00 00 00 
    db2b:	48 8d 05 1e 45 00 00 	lea    0x451e(%rip),%rax        # 12050 <g_110>
    db32:	48 89 85 c0 e6 ff ff 	mov    %rax,-0x1940(%rbp)
    db39:	48 c7 85 c8 e6 ff ff 	movq   $0x0,-0x1938(%rbp)
    db40:	00 00 00 00 
    db44:	8b 85 f0 df ff ff    	mov    -0x2010(%rbp),%eax
    db4a:	0f be c0             	movsbl %al,%eax
    db4d:	89 c7                	mov    %eax,%edi
    db4f:	e8 6b 86 ff ff       	callq  61bf <safe_unary_minus_func_int8_t_s>
    db54:	be 08 00 00 00       	mov    $0x8,%esi
    db59:	bf a5 65 00 00       	mov    $0x65a5,%edi
    db5e:	e8 17 93 ff ff       	callq  6e7a <safe_rshift_func_uint16_t_u_u>
    db63:	66 85 c0             	test   %ax,%ax
    db66:	74 62                	je     dbca <func_70+0x59fe>
    db68:	8b 05 ce 44 00 00    	mov    0x44ce(%rip),%eax        # 1203c <g_99>
    db6e:	8d 48 01             	lea    0x1(%rax),%ecx
    db71:	8b 85 20 e0 ff ff    	mov    -0x1fe0(%rbp),%eax
    db77:	48 8b 15 ca 44 00 00 	mov    0x44ca(%rip),%rdx        # 12048 <g_106>
    db7e:	48 8d 72 05          	lea    0x5(%rdx),%rsi
    db82:	48 98                	cltq   
    db84:	89 c9                	mov    %ecx,%ecx
    db86:	48 89 c2             	mov    %rax,%rdx
    db89:	48 c1 e2 03          	shl    $0x3,%rdx
    db8d:	48 01 c2             	add    %rax,%rdx
    db90:	48 89 c8             	mov    %rcx,%rax
    db93:	48 c1 e0 03          	shl    $0x3,%rax
    db97:	48 01 c8             	add    %rcx,%rax
    db9a:	48 01 c0             	add    %rax,%rax
    db9d:	48 01 d0             	add    %rdx,%rax
    dba0:	48 01 f0             	add    %rsi,%rax
    dba3:	8b 84 85 a0 e8 ff ff 	mov    -0x1760(%rbp,%rax,4),%eax
    dbaa:	48 98                	cltq   
    dbac:	48 be 6d 47 55 2f 4c 	movabs $0x19beae4c2f55476d,%rsi
    dbb3:	ae be 19 
    dbb6:	48 89 c7             	mov    %rax,%rdi
    dbb9:	e8 ea 8c ff ff       	callq  68a8 <safe_sub_func_int64_t_s_s>
    dbbe:	48 85 c0             	test   %rax,%rax
    dbc1:	74 07                	je     dbca <func_70+0x59fe>
    dbc3:	b8 01 00 00 00       	mov    $0x1,%eax
    dbc8:	eb 05                	jmp    dbcf <func_70+0x5a03>
    dbca:	b8 00 00 00 00       	mov    $0x0,%eax
    dbcf:	0f b7 c8             	movzwl %ax,%ecx
    dbd2:	8b 05 64 44 00 00    	mov    0x4464(%rip),%eax        # 1203c <g_99>
    dbd8:	8d 70 01             	lea    0x1(%rax),%esi
    dbdb:	8b 85 20 e0 ff ff    	mov    -0x1fe0(%rbp),%eax
    dbe1:	48 8b 15 60 44 00 00 	mov    0x4460(%rip),%rdx        # 12048 <g_106>
    dbe8:	48 8d 7a 05          	lea    0x5(%rdx),%rdi
    dbec:	48 98                	cltq   
    dbee:	89 f6                	mov    %esi,%esi
    dbf0:	48 89 c2             	mov    %rax,%rdx
    dbf3:	48 c1 e2 03          	shl    $0x3,%rdx
    dbf7:	48 01 c2             	add    %rax,%rdx
    dbfa:	48 89 f0             	mov    %rsi,%rax
    dbfd:	48 c1 e0 03          	shl    $0x3,%rax
    dc01:	48 01 f0             	add    %rsi,%rax
    dc04:	48 01 c0             	add    %rax,%rax
    dc07:	48 01 d0             	add    %rdx,%rax
    dc0a:	48 01 f8             	add    %rdi,%rax
    dc0d:	8b 84 85 a0 e8 ff ff 	mov    -0x1760(%rbp,%rax,4),%eax
    dc14:	0f b7 c0             	movzwl %ax,%eax
    dc17:	89 ce                	mov    %ecx,%esi
    dc19:	89 c7                	mov    %eax,%edi
    dc1b:	e8 ff 90 ff ff       	callq  6d1f <safe_sub_func_uint16_t_u_u>
    dc20:	0f b7 c0             	movzwl %ax,%eax
    dc23:	09 85 74 e0 ff ff    	or     %eax,-0x1f8c(%rbp)
    dc29:	c7 05 41 6f 00 00 00 	movl   $0x0,0x6f41(%rip)        # 14b74 <g_615>
    dc30:	00 00 00 
    dc33:	e9 98 02 00 00       	jmpq   ded0 <func_70+0x5d04>
    dc38:	48 8d 85 50 f0 ff ff 	lea    -0xfb0(%rbp),%rax
    dc3f:	48 8d 15 1a 53 00 00 	lea    0x531a(%rip),%rdx        # 12f60 <g_1184+0x724>
    dc46:	b9 90 00 00 00       	mov    $0x90,%ecx
    dc4b:	48 89 c7             	mov    %rax,%rdi
    dc4e:	48 89 d6             	mov    %rdx,%rsi
    dc51:	f3 48 a5             	rep movsq %ds:(%rsi),%es:(%rdi)
    dc54:	48 8d 05 ab 48 00 00 	lea    0x48ab(%rip),%rax        # 12506 <g_592+0x6>
    dc5b:	48 89 85 78 e3 ff ff 	mov    %rax,-0x1c88(%rbp)
    dc62:	48 8d 05 59 44 00 00 	lea    0x4459(%rip),%rax        # 120c2 <g_180+0x42>
    dc69:	48 89 85 80 e7 ff ff 	mov    %rax,-0x1880(%rbp)
    dc70:	48 8d 05 4b 44 00 00 	lea    0x444b(%rip),%rax        # 120c2 <g_180+0x42>
    dc77:	48 89 85 88 e7 ff ff 	mov    %rax,-0x1878(%rbp)
    dc7e:	48 c7 85 90 e7 ff ff 	movq   $0x0,-0x1870(%rbp)
    dc85:	00 00 00 00 
    dc89:	48 8d 05 32 44 00 00 	lea    0x4432(%rip),%rax        # 120c2 <g_180+0x42>
    dc90:	48 89 85 98 e7 ff ff 	mov    %rax,-0x1868(%rbp)
    dc97:	48 8d 05 24 44 00 00 	lea    0x4424(%rip),%rax        # 120c2 <g_180+0x42>
    dc9e:	48 89 85 a0 e7 ff ff 	mov    %rax,-0x1860(%rbp)
    dca5:	48 c7 85 a8 e7 ff ff 	movq   $0x0,-0x1858(%rbp)
    dcac:	00 00 00 00 
    dcb0:	48 8d 05 0b 44 00 00 	lea    0x440b(%rip),%rax        # 120c2 <g_180+0x42>
    dcb7:	48 89 85 b0 e7 ff ff 	mov    %rax,-0x1850(%rbp)
    dcbe:	48 8d 05 fd 43 00 00 	lea    0x43fd(%rip),%rax        # 120c2 <g_180+0x42>
    dcc5:	48 89 85 b8 e7 ff ff 	mov    %rax,-0x1848(%rbp)
    dccc:	c7 85 e4 e0 ff ff b6 	movl   $0x5cc6ecb6,-0x1f1c(%rbp)
    dcd3:	ec c6 5c 
    dcd6:	c7 85 e8 e0 ff ff 82 	movl   $0x54ab5682,-0x1f18(%rbp)
    dcdd:	56 ab 54 
    dce0:	c7 85 78 e0 ff ff 00 	movl   $0x0,-0x1f88(%rbp)
    dce7:	00 00 00 
    dcea:	eb 1a                	jmp    dd06 <func_70+0x5b3a>
    dcec:	8b 85 78 e0 ff ff    	mov    -0x1f88(%rbp),%eax
    dcf2:	48 98                	cltq   
    dcf4:	c7 84 85 a0 e5 ff ff 	movl   $0x1,-0x1a60(%rbp,%rax,4)
    dcfb:	01 00 00 00 
    dcff:	83 85 78 e0 ff ff 01 	addl   $0x1,-0x1f88(%rbp)
    dd06:	83 bd 78 e0 ff ff 07 	cmpl   $0x7,-0x1f88(%rbp)
    dd0d:	7e dd                	jle    dcec <func_70+0x5b20>
    dd0f:	8b 85 f4 df ff ff    	mov    -0x200c(%rbp),%eax
    dd15:	0f be d8             	movsbl %al,%ebx
    dd18:	48 8b 05 b1 5f 00 00 	mov    0x5fb1(%rip),%rax        # 13cd0 <g_458>
    dd1f:	48 8b 00             	mov    (%rax),%rax
    dd22:	41 89 c5             	mov    %eax,%r13d
    dd25:	8b 85 ec df ff ff    	mov    -0x2014(%rbp),%eax
    dd2b:	44 0f b7 e0          	movzwl %ax,%r12d
    dd2f:	48 8b 85 e0 f3 ff ff 	mov    -0xc20(%rbp),%rax
    dd36:	48 85 c0             	test   %rax,%rax
    dd39:	0f 95 c0             	setne  %al
    dd3c:	0f b6 d0             	movzbl %al,%edx
    dd3f:	48 8b 85 78 e3 ff ff 	mov    -0x1c88(%rbp),%rax
    dd46:	66 89 10             	mov    %dx,(%rax)
    dd49:	48 8b 85 78 e3 ff ff 	mov    -0x1c88(%rbp),%rax
    dd50:	0f b7 00             	movzwl (%rax),%eax
    dd53:	0f b7 d0             	movzwl %ax,%edx
    dd56:	8b 85 f0 df ff ff    	mov    -0x2010(%rbp),%eax
    dd5c:	39 c2                	cmp    %eax,%edx
    dd5e:	0f 9f c0             	setg   %al
    dd61:	0f b6 c0             	movzbl %al,%eax
    dd64:	31 85 74 e0 ff ff    	xor    %eax,-0x1f8c(%rbp)
    dd6a:	83 bd 74 e0 ff ff 00 	cmpl   $0x0,-0x1f8c(%rbp)
    dd71:	75 1d                	jne    dd90 <func_70+0x5bc4>
    dd73:	48 8b 05 4e 5f 00 00 	mov    0x5f4e(%rip),%rax        # 13cc8 <g_387>
    dd7a:	48 8b 00             	mov    (%rax),%rax
    dd7d:	48 8b 00             	mov    (%rax),%rax
    dd80:	0f b7 00             	movzwl (%rax),%eax
    dd83:	0f b7 d0             	movzwl %ax,%edx
    dd86:	8b 85 f4 df ff ff    	mov    -0x200c(%rbp),%eax
    dd8c:	39 c2                	cmp    %eax,%edx
    dd8e:	74 07                	je     dd97 <func_70+0x5bcb>
    dd90:	ba 01 00 00 00       	mov    $0x1,%edx
    dd95:	eb 05                	jmp    dd9c <func_70+0x5bd0>
    dd97:	ba 00 00 00 00       	mov    $0x0,%edx
    dd9c:	48 8b 05 35 5f 00 00 	mov    0x5f35(%rip),%rax        # 13cd8 <g_531>
    dda3:	48 8b 00             	mov    (%rax),%rax
    dda6:	48 8b 00             	mov    (%rax),%rax
    dda9:	48 85 c0             	test   %rax,%rax
    ddac:	75 0a                	jne    ddb8 <func_70+0x5bec>
    ddae:	8b 85 f4 df ff ff    	mov    -0x200c(%rbp),%eax
    ddb4:	85 c0                	test   %eax,%eax
    ddb6:	74 07                	je     ddbf <func_70+0x5bf3>
    ddb8:	b8 01 00 00 00       	mov    $0x1,%eax
    ddbd:	eb 05                	jmp    ddc4 <func_70+0x5bf8>
    ddbf:	b8 00 00 00 00       	mov    $0x0,%eax
    ddc4:	39 c2                	cmp    %eax,%edx
    ddc6:	7c 30                	jl     ddf8 <func_70+0x5c2c>
    ddc8:	8b 85 f4 df ff ff    	mov    -0x200c(%rbp),%eax
    ddce:	89 c2                	mov    %eax,%edx
    ddd0:	48 83 bd f8 df ff ff 	cmpq   $0x0,-0x2008(%rbp)
    ddd7:	00 
    ddd8:	0f 95 c0             	setne  %al
    dddb:	0f b6 c0             	movzbl %al,%eax
    ddde:	48 89 d6             	mov    %rdx,%rsi
    dde1:	48 89 c7             	mov    %rax,%rdi
    dde4:	e8 cb 8b ff ff       	callq  69b4 <safe_mod_func_int64_t_s_s>
    dde9:	89 85 cc e0 ff ff    	mov    %eax,-0x1f34(%rbp)
    ddef:	83 bd cc e0 ff ff 00 	cmpl   $0x0,-0x1f34(%rbp)
    ddf6:	74 07                	je     ddff <func_70+0x5c33>
    ddf8:	b8 01 00 00 00       	mov    $0x1,%eax
    ddfd:	eb 05                	jmp    de04 <func_70+0x5c38>
    ddff:	b8 00 00 00 00       	mov    $0x0,%eax
    de04:	0f be c0             	movsbl %al,%eax
    de07:	be 03 00 00 00       	mov    $0x3,%esi
    de0c:	89 c7                	mov    %eax,%edi
    de0e:	e8 1e 84 ff ff       	callq  6231 <safe_mod_func_int8_t_s_s>
    de13:	66 98                	cbtw   
    de15:	0f b7 c0             	movzwl %ax,%eax
    de18:	44 89 e6             	mov    %r12d,%esi
    de1b:	89 c7                	mov    %eax,%edi
    de1d:	e8 fd 8e ff ff       	callq  6d1f <safe_sub_func_uint16_t_u_u>
    de22:	44 09 e8             	or     %r13d,%eax
    de25:	0f be c0             	movsbl %al,%eax
    de28:	89 de                	mov    %ebx,%esi
    de2a:	89 c7                	mov    %eax,%edi
    de2c:	e8 39 84 ff ff       	callq  626a <safe_div_func_int8_t_s_s>
    de31:	66 0f be d0          	movsbw %al,%dx
    de35:	0f b7 05 b8 46 00 00 	movzwl 0x46b8(%rip),%eax        # 124f4 <g_479>
    de3c:	c1 e0 05             	shl    $0x5,%eax
    de3f:	66 c1 f8 05          	sar    $0x5,%ax
    de43:	21 d0                	and    %edx,%eax
    de45:	66 89 05 5a 42 00 00 	mov    %ax,0x425a(%rip)        # 120a6 <g_180+0x26>
    de4c:	48 8d 85 90 e6 ff ff 	lea    -0x1970(%rbp),%rax
    de53:	48 83 c0 20          	add    $0x20,%rax
    de57:	48 89 85 80 e3 ff ff 	mov    %rax,-0x1c80(%rbp)
    de5e:	48 8b 05 db 5e 00 00 	mov    0x5edb(%rip),%rax        # 13d40 <g_643>
    de65:	48 8b 10             	mov    (%rax),%rdx
    de68:	48 8b 85 80 e3 ff ff 	mov    -0x1c80(%rbp),%rax
    de6f:	48 89 10             	mov    %rdx,(%rax)
    de72:	c6 85 04 e0 ff ff 00 	movb   $0x0,-0x1ffc(%rbp)
    de79:	eb 32                	jmp    dead <func_70+0x5ce1>
    de7b:	66 c7 85 12 e0 ff ff 	movw   $0x6,-0x1fee(%rbp)
    de82:	06 00 
    de84:	66 83 85 12 e0 ff ff 	addw   $0x1,-0x1fee(%rbp)
    de8b:	01 
    de8c:	48 8b 85 70 e3 ff ff 	mov    -0x1c90(%rbp),%rax
    de93:	48 8b 95 60 e3 ff ff 	mov    -0x1ca0(%rbp),%rdx
    de9a:	48 89 10             	mov    %rdx,(%rax)
    de9d:	0f b6 85 04 e0 ff ff 	movzbl -0x1ffc(%rbp),%eax
    dea4:	83 c0 01             	add    $0x1,%eax
    dea7:	88 85 04 e0 ff ff    	mov    %al,-0x1ffc(%rbp)
    dead:	0f b6 85 04 e0 ff ff 	movzbl -0x1ffc(%rbp),%eax
    deb4:	3c 29                	cmp    $0x29,%al
    deb6:	75 c3                	jne    de7b <func_70+0x5caf>
    deb8:	8b 05 b6 6c 00 00    	mov    0x6cb6(%rip),%eax        # 14b74 <g_615>
    debe:	be 02 00 00 00       	mov    $0x2,%esi
    dec3:	89 c7                	mov    %eax,%edi
    dec5:	e8 ec 86 ff ff       	callq  65b6 <safe_add_func_int32_t_s_s>
    deca:	89 05 a4 6c 00 00    	mov    %eax,0x6ca4(%rip)        # 14b74 <g_615>
    ded0:	8b 05 9e 6c 00 00    	mov    0x6c9e(%rip),%eax        # 14b74 <g_615>
    ded6:	83 f8 02             	cmp    $0x2,%eax
    ded9:	0f 86 59 fd ff ff    	jbe    dc38 <func_70+0x5a6c>
    dedf:	48 8b 05 62 41 00 00 	mov    0x4162(%rip),%rax        # 12048 <g_106>
    dee6:	48 83 c0 01          	add    $0x1,%rax
    deea:	48 89 05 57 41 00 00 	mov    %rax,0x4157(%rip)        # 12048 <g_106>
    def1:	48 8b 05 50 41 00 00 	mov    0x4150(%rip),%rax        # 12048 <g_106>
    def8:	48 83 f8 01          	cmp    $0x1,%rax
    defc:	0f 86 e1 fb ff ff    	jbe    dae3 <func_70+0x5917>
    df02:	8b 05 34 41 00 00    	mov    0x4134(%rip),%eax        # 1203c <g_99>
    df08:	83 c0 01             	add    $0x1,%eax
    df0b:	89 05 2b 41 00 00    	mov    %eax,0x412b(%rip)        # 1203c <g_99>
    df11:	8b 05 25 41 00 00    	mov    0x4125(%rip),%eax        # 1203c <g_99>
    df17:	83 f8 01             	cmp    $0x1,%eax
    df1a:	0f 86 eb f9 ff ff    	jbe    d90b <func_70+0x573f>
    df20:	8b 85 20 e0 ff ff    	mov    -0x1fe0(%rbp),%eax
    df26:	83 c0 01             	add    $0x1,%eax
    df29:	89 85 20 e0 ff ff    	mov    %eax,-0x1fe0(%rbp)
    df2f:	8b 85 20 e0 ff ff    	mov    -0x1fe0(%rbp),%eax
    df35:	83 f8 01             	cmp    $0x1,%eax
    df38:	0f 8e 69 f9 ff ff    	jle    d8a7 <func_70+0x56db>
    df3e:	eb 01                	jmp    df41 <func_70+0x5d75>
    df40:	90                   	nop
    df41:	0f b7 85 08 e0 ff ff 	movzwl -0x1ff8(%rbp),%eax
    df48:	83 c0 01             	add    $0x1,%eax
    df4b:	66 89 85 08 e0 ff ff 	mov    %ax,-0x1ff8(%rbp)
    df52:	c6 05 a3 45 00 00 00 	movb   $0x0,0x45a3(%rip)        # 124fc <g_559>
    df59:	e9 39 01 00 00       	jmpq   e097 <func_70+0x5ecb>
    df5e:	66 c7 85 14 e0 ff ff 	movw   $0x1,-0x1fec(%rbp)
    df65:	01 00 
    df67:	66 c7 85 16 e0 ff ff 	movw   $0x6,-0x1fea(%rbp)
    df6e:	06 00 
    df70:	48 8d 85 05 e0 ff ff 	lea    -0x1ffb(%rbp),%rax
    df77:	48 89 85 88 e3 ff ff 	mov    %rax,-0x1c78(%rbp)
    df7e:	48 8d 85 20 e1 ff ff 	lea    -0x1ee0(%rbp),%rax
    df85:	48 89 85 60 e1 ff ff 	mov    %rax,-0x1ea0(%rbp)
    df8c:	48 8d 85 60 e1 ff ff 	lea    -0x1ea0(%rbp),%rax
    df93:	48 89 85 90 e3 ff ff 	mov    %rax,-0x1c70(%rbp)
    df9a:	c7 85 ec e0 ff ff fb 	movl   $0xfffffffb,-0x1f14(%rbp)
    dfa1:	ff ff ff 
    dfa4:	c7 85 f0 e0 ff ff ff 	movl   $0xffffffff,-0x1f10(%rbp)
    dfab:	ff ff ff 
    dfae:	c6 85 07 e0 ff ff fc 	movb   $0xfc,-0x1ff9(%rbp)
    dfb5:	c7 85 f4 e0 ff ff bb 	movl   $0x92a79bbb,-0x1f0c(%rbp)
    dfbc:	9b a7 92 
    dfbf:	c7 85 f8 e0 ff ff 00 	movl   $0x0,-0x1f08(%rbp)
    dfc6:	00 00 00 
    dfc9:	c7 85 fc e0 ff ff 04 	movl   $0x4,-0x1f04(%rbp)
    dfd0:	00 00 00 
    dfd3:	c7 85 00 e1 ff ff 22 	movl   $0xd40e1222,-0x1f00(%rbp)
    dfda:	12 0e d4 
    dfdd:	c7 85 04 e1 ff ff 01 	movl   $0x1,-0x1efc(%rbp)
    dfe4:	00 00 00 
    dfe7:	c7 85 08 e1 ff ff 00 	movl   $0x0,-0x1ef8(%rbp)
    dfee:	00 00 00 
    dff1:	c7 85 0c e1 ff ff f7 	movl   $0xfffffff7,-0x1ef4(%rbp)
    dff8:	ff ff ff 
    dffb:	c7 85 10 e1 ff ff 23 	movl   $0xf757ee23,-0x1ef0(%rbp)
    e002:	ee 57 f7 
    e005:	c7 85 14 e1 ff ff 00 	movl   $0x0,-0x1eec(%rbp)
    e00c:	00 00 00 
    e00f:	48 8d 85 50 f0 ff ff 	lea    -0xfb0(%rbp),%rax
    e016:	48 83 c0 08          	add    $0x8,%rax
    e01a:	48 89 85 98 e3 ff ff 	mov    %rax,-0x1c68(%rbp)
    e021:	c7 85 7c e0 ff ff 00 	movl   $0x0,-0x1f84(%rbp)
    e028:	00 00 00 
    e02b:	eb 1e                	jmp    e04b <func_70+0x5e7f>
    e02d:	8b 85 7c e0 ff ff    	mov    -0x1f84(%rbp),%eax
    e033:	48 98                	cltq   
    e035:	48 8d 15 20 44 00 00 	lea    0x4420(%rip),%rdx        # 1245c <g_382>
    e03c:	48 89 94 c5 80 e7 ff 	mov    %rdx,-0x1880(%rbp,%rax,8)
    e043:	ff 
    e044:	83 85 7c e0 ff ff 01 	addl   $0x1,-0x1f84(%rbp)
    e04b:	83 bd 7c e0 ff ff 00 	cmpl   $0x0,-0x1f84(%rbp)
    e052:	7e d9                	jle    e02d <func_70+0x5e61>
    e054:	c7 85 7c e0 ff ff 00 	movl   $0x0,-0x1f84(%rbp)
    e05b:	00 00 00 
    e05e:	eb 1e                	jmp    e07e <func_70+0x5eb2>
    e060:	8b 85 7c e0 ff ff    	mov    -0x1f84(%rbp),%eax
    e066:	48 98                	cltq   
    e068:	48 8d 15 e9 6a 00 00 	lea    0x6ae9(%rip),%rdx        # 14b58 <g_104>
    e06f:	48 89 94 c5 50 f0 ff 	mov    %rdx,-0xfb0(%rbp,%rax,8)
    e076:	ff 
    e077:	83 85 7c e0 ff ff 01 	addl   $0x1,-0x1f84(%rbp)
    e07e:	83 bd 7c e0 ff ff 01 	cmpl   $0x1,-0x1f84(%rbp)
    e085:	7e d9                	jle    e060 <func_70+0x5e94>
    e087:	0f b6 05 6e 44 00 00 	movzbl 0x446e(%rip),%eax        # 124fc <g_559>
    e08e:	83 c0 01             	add    $0x1,%eax
    e091:	88 05 65 44 00 00    	mov    %al,0x4465(%rip)        # 124fc <g_559>
    e097:	0f b6 05 5e 44 00 00 	movzbl 0x445e(%rip),%eax        # 124fc <g_559>
    e09e:	84 c0                	test   %al,%al
    e0a0:	0f 84 b8 fe ff ff    	je     df5e <func_70+0x5d92>
    e0a6:	48 8b 05 1b 5c 00 00 	mov    0x5c1b(%rip),%rax        # 13cc8 <g_387>
    e0ad:	48 8b 00             	mov    (%rax),%rax
    e0b0:	48 8b 00             	mov    (%rax),%rax
    e0b3:	0f b7 00             	movzwl (%rax),%eax
    e0b6:	48 8b 5d c8          	mov    -0x38(%rbp),%rbx
    e0ba:	64 48 33 1c 25 28 00 	xor    %fs:0x28,%rbx
    e0c1:	00 00 
    e0c3:	74 05                	je     e0ca <func_70+0x5efe>
    e0c5:	e8 a6 7f ff ff       	callq  6070 <__stack_chk_fail@plt>
    e0ca:	48 81 c4 08 20 00 00 	add    $0x2008,%rsp
    e0d1:	5b                   	pop    %rbx
    e0d2:	41 5c                	pop    %r12
    e0d4:	41 5d                	pop    %r13
    e0d6:	41 5e                	pop    %r14
    e0d8:	41 5f                	pop    %r15
    e0da:	5d                   	pop    %rbp
    e0db:	c3                   	retq   

000000000000e0dc <func_76>:
    e0dc:	f3 0f 1e fa          	endbr64 
    e0e0:	55                   	push   %rbp
    e0e1:	48 89 e5             	mov    %rsp,%rbp
    e0e4:	48 89 7d f8          	mov    %rdi,-0x8(%rbp)
    e0e8:	48 89 75 f0          	mov    %rsi,-0x10(%rbp)
    e0ec:	48 89 55 e8          	mov    %rdx,-0x18(%rbp)
    e0f0:	48 89 4d e0          	mov    %rcx,-0x20(%rbp)
    e0f4:	48 8b 05 4d 3f 00 00 	mov    0x3f4d(%rip),%rax        # 12048 <g_106>
    e0fb:	5d                   	pop    %rbp
    e0fc:	c3                   	retq   

000000000000e0fd <func_82>:
    e0fd:	f3 0f 1e fa          	endbr64 
    e101:	55                   	push   %rbp
    e102:	48 89 e5             	mov    %rsp,%rbp
    e105:	53                   	push   %rbx
    e106:	48 81 ec 98 06 00 00 	sub    $0x698,%rsp
    e10d:	48 89 bd 68 f9 ff ff 	mov    %rdi,-0x698(%rbp)
    e114:	89 f0                	mov    %esi,%eax
    e116:	89 95 60 f9 ff ff    	mov    %edx,-0x6a0(%rbp)
    e11c:	66 89 85 64 f9 ff ff 	mov    %ax,-0x69c(%rbp)
    e123:	64 48 8b 04 25 28 00 	mov    %fs:0x28,%rax
    e12a:	00 00 
    e12c:	48 89 45 e8          	mov    %rax,-0x18(%rbp)
    e130:	31 c0                	xor    %eax,%eax
    e132:	48 8d 05 cf 58 00 00 	lea    0x58cf(%rip),%rax        # 13a08 <g_54>
    e139:	48 89 85 88 f9 ff ff 	mov    %rax,-0x678(%rbp)
    e140:	48 8d 85 88 f9 ff ff 	lea    -0x678(%rbp),%rax
    e147:	48 89 85 90 f9 ff ff 	mov    %rax,-0x670(%rbp)
    e14e:	48 c7 85 98 f9 ff ff 	movq   $0x0,-0x668(%rbp)
    e155:	00 00 00 00 
    e159:	48 c7 85 a0 f9 ff ff 	movq   $0x0,-0x660(%rbp)
    e160:	00 00 00 00 
    e164:	48 8d 05 d5 3e 00 00 	lea    0x3ed5(%rip),%rax        # 12040 <g_102>
    e16b:	48 89 85 a8 f9 ff ff 	mov    %rax,-0x658(%rbp)
    e172:	48 8d 85 f0 fb ff ff 	lea    -0x410(%rbp),%rax
    e179:	48 8d 15 60 52 00 00 	lea    0x5260(%rip),%rdx        # 133e0 <g_1184+0xba4>
    e180:	b9 7e 00 00 00       	mov    $0x7e,%ecx
    e185:	48 89 c7             	mov    %rax,%rdi
    e188:	48 89 d6             	mov    %rdx,%rsi
    e18b:	f3 48 a5             	rep movsq %ds:(%rsi),%es:(%rdi)
    e18e:	48 8d 85 f0 f9 ff ff 	lea    -0x610(%rbp),%rax
    e195:	48 8d 15 44 56 00 00 	lea    0x5644(%rip),%rdx        # 137e0 <g_1184+0xfa4>
    e19c:	b9 3f 00 00 00       	mov    $0x3f,%ecx
    e1a1:	48 89 c7             	mov    %rax,%rdi
    e1a4:	48 89 d6             	mov    %rdx,%rsi
    e1a7:	f3 48 a5             	rep movsq %ds:(%rsi),%es:(%rdi)
    e1aa:	c7 85 80 f9 ff ff f9 	movl   $0xfffffff9,-0x680(%rbp)
    e1b1:	ff ff ff 
    e1b4:	c7 85 84 f9 ff ff fa 	movl   $0xfffffffa,-0x67c(%rbp)
    e1bb:	ff ff ff 
    e1be:	c7 85 7c f9 ff ff 00 	movl   $0x0,-0x684(%rbp)
    e1c5:	00 00 00 
    e1c8:	eb 1b                	jmp    e1e5 <func_82+0xe8>
    e1ca:	8b 85 7c f9 ff ff    	mov    -0x684(%rbp),%eax
    e1d0:	48 98                	cltq   
    e1d2:	48 c7 84 c5 b0 f9 ff 	movq   $0x0,-0x650(%rbp,%rax,8)
    e1d9:	ff 00 00 00 00 
    e1de:	83 85 7c f9 ff ff 01 	addl   $0x1,-0x684(%rbp)
    e1e5:	83 bd 7c f9 ff ff 06 	cmpl   $0x6,-0x684(%rbp)
    e1ec:	7e dc                	jle    e1ca <func_82+0xcd>
    e1ee:	8b 05 44 3e 00 00    	mov    0x3e44(%rip),%eax        # 12038 <g_86>
    e1f4:	8b 85 60 f9 ff ff    	mov    -0x6a0(%rbp),%eax
    e1fa:	0f b6 d8             	movzbl %al,%ebx
    e1fd:	0f b7 05 4a 69 00 00 	movzwl 0x694a(%rip),%eax        # 14b4e <g_19+0x6>
    e204:	0f b6 d0             	movzbl %al,%edx
    e207:	8b 05 2b 3e 00 00    	mov    0x3e2b(%rip),%eax        # 12038 <g_86>
    e20d:	c1 e0 05             	shl    $0x5,%eax
    e210:	66 c1 f8 05          	sar    $0x5,%ax
    e214:	98                   	cwtl   
    e215:	89 05 21 3e 00 00    	mov    %eax,0x3e21(%rip)        # 1203c <g_99>
    e21b:	48 8b 85 a8 f9 ff ff 	mov    -0x658(%rbp),%rax
    e222:	48 b9 1e d1 15 ee 11 	movabs $0xb43c6211ee15d11e,%rcx
    e229:	62 3c b4 
    e22c:	48 89 08             	mov    %rcx,(%rax)
    e22f:	48 8b 85 a8 f9 ff ff 	mov    -0x658(%rbp),%rax
    e236:	48 8b 08             	mov    (%rax),%rcx
    e239:	83 8d 80 f9 ff ff 01 	orl    $0x1,-0x680(%rbp)
    e240:	8b 85 80 f9 ff ff    	mov    -0x680(%rbp),%eax
    e246:	48 98                	cltq   
    e248:	48 39 c1             	cmp    %rax,%rcx
    e24b:	0f 9e c0             	setle  %al
    e24e:	0f b6 c0             	movzbl %al,%eax
    e251:	89 d6                	mov    %edx,%esi
    e253:	89 c7                	mov    %eax,%edi
    e255:	e8 81 89 ff ff       	callq  6bdb <safe_div_func_uint8_t_u_u>
    e25a:	0f b6 d0             	movzbl %al,%edx
    e25d:	48 8b 85 68 f9 ff ff 	mov    -0x698(%rbp),%rax
    e264:	48 8b 00             	mov    (%rax),%rax
    e267:	0f b7 00             	movzwl (%rax),%eax
    e26a:	98                   	cwtl   
    e26b:	39 c2                	cmp    %eax,%edx
    e26d:	0f 9d c0             	setge  %al
    e270:	0f b6 c0             	movzbl %al,%eax
    e273:	89 de                	mov    %ebx,%esi
    e275:	89 c7                	mov    %eax,%edi
    e277:	e8 de 88 ff ff       	callq  6b5a <safe_add_func_uint8_t_u_u>
    e27c:	0f b7 05 cb 68 00 00 	movzwl 0x68cb(%rip),%eax        # 14b4e <g_19+0x6>
    e283:	0f bf d0             	movswl %ax,%edx
    e286:	48 8b 85 90 f9 ff ff 	mov    -0x670(%rbp),%rax
    e28d:	48 89 05 e4 59 00 00 	mov    %rax,0x59e4(%rip)        # 13c78 <g_92+0x18>
    e294:	48 8b 0d dd 59 00 00 	mov    0x59dd(%rip),%rcx        # 13c78 <g_92+0x18>
    e29b:	48 8d 85 68 f9 ff ff 	lea    -0x698(%rbp),%rax
    e2a2:	48 39 c1             	cmp    %rax,%rcx
    e2a5:	0f 94 c0             	sete   %al
    e2a8:	0f b6 c0             	movzbl %al,%eax
    e2ab:	89 d6                	mov    %edx,%esi
    e2ad:	89 c7                	mov    %eax,%edi
    e2af:	e8 41 81 ff ff       	callq  63f5 <safe_mul_func_int16_t_s_s>
    e2b4:	98                   	cwtl   
    e2b5:	39 85 60 f9 ff ff    	cmp    %eax,-0x6a0(%rbp)
    e2bb:	0f 97 c2             	seta   %dl
    e2be:	48 8b 05 bb 59 00 00 	mov    0x59bb(%rip),%rax        # 13c80 <g_109>
    e2c5:	0f b6 d2             	movzbl %dl,%edx
    e2c8:	89 10                	mov    %edx,(%rax)
    e2ca:	48 8d 05 7f 3d 00 00 	lea    0x3d7f(%rip),%rax        # 12050 <g_110>
    e2d1:	48 8b 5d e8          	mov    -0x18(%rbp),%rbx
    e2d5:	64 48 33 1c 25 28 00 	xor    %fs:0x28,%rbx
    e2dc:	00 00 
    e2de:	74 05                	je     e2e5 <func_82+0x1e8>
    e2e0:	e8 8b 7d ff ff       	callq  6070 <__stack_chk_fail@plt>
    e2e5:	48 81 c4 98 06 00 00 	add    $0x698,%rsp
    e2ec:	5b                   	pop    %rbx
    e2ed:	5d                   	pop    %rbp
    e2ee:	c3                   	retq   

000000000000e2ef <main>:
    e2ef:	f3 0f 1e fa          	endbr64 
    e2f3:	55                   	push   %rbp
    e2f4:	48 89 e5             	mov    %rsp,%rbp
    e2f7:	48 83 ec 20          	sub    $0x20,%rsp
    e2fb:	89 7d ec             	mov    %edi,-0x14(%rbp)
    e2fe:	48 89 75 e0          	mov    %rsi,-0x20(%rbp)
    e302:	c7 45 fc 00 00 00 00 	movl   $0x0,-0x4(%rbp)
    e309:	83 7d ec 02          	cmpl   $0x2,-0x14(%rbp)
    e30d:	75 25                	jne    e334 <main+0x45>
    e30f:	48 8b 45 e0          	mov    -0x20(%rbp),%rax
    e313:	48 83 c0 08          	add    $0x8,%rax
    e317:	48 8b 00             	mov    (%rax),%rax
    e31a:	48 8d 35 47 10 00 00 	lea    0x1047(%rip),%rsi        # f368 <g_1028+0x308>
    e321:	48 89 c7             	mov    %rax,%rdi
    e324:	e8 67 7d ff ff       	callq  6090 <strcmp@plt>
    e329:	85 c0                	test   %eax,%eax
    e32b:	75 07                	jne    e334 <main+0x45>
    e32d:	c7 45 fc 01 00 00 00 	movl   $0x1,-0x4(%rbp)
    e334:	e8 50 7e ff ff       	callq  6189 <platform_main_begin>
    e339:	e8 5a 92 ff ff       	callq  7598 <crc32_gentab>
    e33e:	e8 72 94 ff ff       	callq  77b5 <func_1>
    e343:	c7 45 f0 00 00 00 00 	movl   $0x0,-0x10(%rbp)
    e34a:	eb 4a                	jmp    e396 <main+0xa7>
    e34c:	8b 45 f0             	mov    -0x10(%rbp),%eax
    e34f:	48 98                	cltq   
    e351:	48 8d 14 00          	lea    (%rax,%rax,1),%rdx
    e355:	48 8d 05 ec 67 00 00 	lea    0x67ec(%rip),%rax        # 14b48 <g_19>
    e35c:	0f b7 04 02          	movzwl (%rdx,%rax,1),%eax
    e360:	48 0f bf c0          	movswq %ax,%rax
    e364:	8b 55 fc             	mov    -0x4(%rbp),%edx
    e367:	48 8d 35 fc 0f 00 00 	lea    0xffc(%rip),%rsi        # f36a <g_1028+0x30a>
    e36e:	48 89 c7             	mov    %rax,%rdi
    e371:	e8 7d 93 ff ff       	callq  76f3 <transparent_crc>
    e376:	83 7d fc 00          	cmpl   $0x0,-0x4(%rbp)
    e37a:	74 16                	je     e392 <main+0xa3>
    e37c:	8b 45 f0             	mov    -0x10(%rbp),%eax
    e37f:	89 c6                	mov    %eax,%esi
    e381:	48 8d 3d ea 0f 00 00 	lea    0xfea(%rip),%rdi        # f372 <g_1028+0x312>
    e388:	b8 00 00 00 00       	mov    $0x0,%eax
    e38d:	e8 ee 7c ff ff       	callq  6080 <printf@plt>
    e392:	83 45 f0 01          	addl   $0x1,-0x10(%rbp)
    e396:	83 7d f0 05          	cmpl   $0x5,-0x10(%rbp)
    e39a:	7e b0                	jle    e34c <main+0x5d>
    e39c:	8b 05 82 3c 00 00    	mov    0x3c82(%rip),%eax        # 12024 <g_21>
    e3a2:	48 98                	cltq   
    e3a4:	8b 55 fc             	mov    -0x4(%rbp),%edx
    e3a7:	48 8d 35 d2 0f 00 00 	lea    0xfd2(%rip),%rsi        # f380 <g_1028+0x320>
    e3ae:	48 89 c7             	mov    %rax,%rdi
    e3b1:	e8 3d 93 ff ff       	callq  76f3 <transparent_crc>
    e3b6:	0f b7 05 6b 3c 00 00 	movzwl 0x3c6b(%rip),%eax        # 12028 <g_23>
    e3bd:	48 0f bf c0          	movswq %ax,%rax
    e3c1:	8b 55 fc             	mov    -0x4(%rbp),%edx
    e3c4:	48 8d 35 ba 0f 00 00 	lea    0xfba(%rip),%rsi        # f385 <g_1028+0x325>
    e3cb:	48 89 c7             	mov    %rax,%rdi
    e3ce:	e8 20 93 ff ff       	callq  76f3 <transparent_crc>
    e3d3:	48 8b 05 56 3c 00 00 	mov    0x3c56(%rip),%rax        # 12030 <g_30>
    e3da:	48 89 c1             	mov    %rax,%rcx
    e3dd:	8b 45 fc             	mov    -0x4(%rbp),%eax
    e3e0:	89 c2                	mov    %eax,%edx
    e3e2:	48 8d 35 a1 0f 00 00 	lea    0xfa1(%rip),%rsi        # f38a <g_1028+0x32a>
    e3e9:	48 89 cf             	mov    %rcx,%rdi
    e3ec:	e8 02 93 ff ff       	callq  76f3 <transparent_crc>
    e3f1:	0f b6 05 5c 67 00 00 	movzbl 0x675c(%rip),%eax        # 14b54 <g_67>
    e3f8:	48 0f be c0          	movsbq %al,%rax
    e3fc:	8b 55 fc             	mov    -0x4(%rbp),%edx
    e3ff:	48 8d 35 89 0f 00 00 	lea    0xf89(%rip),%rsi        # f38f <g_1028+0x32f>
    e406:	48 89 c7             	mov    %rax,%rdi
    e409:	e8 e5 92 ff ff       	callq  76f3 <transparent_crc>
    e40e:	8b 05 24 3c 00 00    	mov    0x3c24(%rip),%eax        # 12038 <g_86>
    e414:	c1 e0 05             	shl    $0x5,%eax
    e417:	66 c1 f8 05          	sar    $0x5,%ax
    e41b:	48 0f bf c0          	movswq %ax,%rax
    e41f:	8b 55 fc             	mov    -0x4(%rbp),%edx
    e422:	48 8d 35 6b 0f 00 00 	lea    0xf6b(%rip),%rsi        # f394 <g_1028+0x334>
    e429:	48 89 c7             	mov    %rax,%rdi
    e42c:	e8 c2 92 ff ff       	callq  76f3 <transparent_crc>
    e431:	8b 05 05 3c 00 00    	mov    0x3c05(%rip),%eax        # 1203c <g_99>
    e437:	89 c1                	mov    %eax,%ecx
    e439:	8b 45 fc             	mov    -0x4(%rbp),%eax
    e43c:	89 c2                	mov    %eax,%edx
    e43e:	48 8d 35 57 0f 00 00 	lea    0xf57(%rip),%rsi        # f39c <g_1028+0x33c>
    e445:	48 89 cf             	mov    %rcx,%rdi
    e448:	e8 a6 92 ff ff       	callq  76f3 <transparent_crc>
    e44d:	48 8b 05 ec 3b 00 00 	mov    0x3bec(%rip),%rax        # 12040 <g_102>
    e454:	48 89 c1             	mov    %rax,%rcx
    e457:	8b 45 fc             	mov    -0x4(%rbp),%eax
    e45a:	89 c2                	mov    %eax,%edx
    e45c:	48 8d 35 3e 0f 00 00 	lea    0xf3e(%rip),%rsi        # f3a1 <g_1028+0x341>
    e463:	48 89 cf             	mov    %rcx,%rdi
    e466:	e8 88 92 ff ff       	callq  76f3 <transparent_crc>
    e46b:	48 8b 05 e6 66 00 00 	mov    0x66e6(%rip),%rax        # 14b58 <g_104>
    e472:	48 89 c1             	mov    %rax,%rcx
    e475:	8b 45 fc             	mov    -0x4(%rbp),%eax
    e478:	89 c2                	mov    %eax,%edx
    e47a:	48 8d 35 26 0f 00 00 	lea    0xf26(%rip),%rsi        # f3a7 <g_1028+0x347>
    e481:	48 89 cf             	mov    %rcx,%rdi
    e484:	e8 6a 92 ff ff       	callq  76f3 <transparent_crc>
    e489:	48 8b 05 b8 3b 00 00 	mov    0x3bb8(%rip),%rax        # 12048 <g_106>
    e490:	8b 55 fc             	mov    -0x4(%rbp),%edx
    e493:	48 8d 35 13 0f 00 00 	lea    0xf13(%rip),%rsi        # f3ad <g_1028+0x34d>
    e49a:	48 89 c7             	mov    %rax,%rdi
    e49d:	e8 51 92 ff ff       	callq  76f3 <transparent_crc>
    e4a2:	8b 05 a8 3b 00 00    	mov    0x3ba8(%rip),%eax        # 12050 <g_110>
    e4a8:	48 98                	cltq   
    e4aa:	8b 55 fc             	mov    -0x4(%rbp),%edx
    e4ad:	48 8d 35 ff 0e 00 00 	lea    0xeff(%rip),%rsi        # f3b3 <g_1028+0x353>
    e4b4:	48 89 c7             	mov    %rax,%rdi
    e4b7:	e8 37 92 ff ff       	callq  76f3 <transparent_crc>
    e4bc:	8b 05 92 3b 00 00    	mov    0x3b92(%rip),%eax        # 12054 <g_114>
    e4c2:	48 98                	cltq   
    e4c4:	8b 55 fc             	mov    -0x4(%rbp),%edx
    e4c7:	48 8d 35 eb 0e 00 00 	lea    0xeeb(%rip),%rsi        # f3b9 <g_1028+0x359>
    e4ce:	48 89 c7             	mov    %rax,%rdi
    e4d1:	e8 1d 92 ff ff       	callq  76f3 <transparent_crc>
    e4d6:	8b 05 7c 3b 00 00    	mov    0x3b7c(%rip),%eax        # 12058 <g_132>
    e4dc:	48 98                	cltq   
    e4de:	8b 55 fc             	mov    -0x4(%rbp),%edx
    e4e1:	48 8d 35 d7 0e 00 00 	lea    0xed7(%rip),%rsi        # f3bf <g_1028+0x35f>
    e4e8:	48 89 c7             	mov    %rax,%rdi
    e4eb:	e8 03 92 ff ff       	callq  76f3 <transparent_crc>
    e4f0:	0f b7 05 65 3b 00 00 	movzwl 0x3b65(%rip),%eax        # 1205c <g_135>
    e4f7:	c1 e0 05             	shl    $0x5,%eax
    e4fa:	66 c1 f8 05          	sar    $0x5,%ax
    e4fe:	48 0f bf c0          	movswq %ax,%rax
    e502:	8b 55 fc             	mov    -0x4(%rbp),%edx
    e505:	48 8d 35 b9 0e 00 00 	lea    0xeb9(%rip),%rsi        # f3c5 <g_1028+0x365>
    e50c:	48 89 c7             	mov    %rax,%rdi
    e50f:	e8 df 91 ff ff       	callq  76f3 <transparent_crc>
    e514:	8b 05 46 3b 00 00    	mov    0x3b46(%rip),%eax        # 12060 <g_169>
    e51a:	89 c1                	mov    %eax,%ecx
    e51c:	8b 45 fc             	mov    -0x4(%rbp),%eax
    e51f:	89 c2                	mov    %eax,%edx
    e521:	48 8d 35 a6 0e 00 00 	lea    0xea6(%rip),%rsi        # f3ce <g_1028+0x36e>
    e528:	48 89 cf             	mov    %rcx,%rdi
    e52b:	e8 c3 91 ff ff       	callq  76f3 <transparent_crc>
    e530:	c7 45 f0 00 00 00 00 	movl   $0x0,-0x10(%rbp)
    e537:	e9 9d 00 00 00       	jmpq   e5d9 <main+0x2ea>
    e53c:	c7 45 f4 00 00 00 00 	movl   $0x0,-0xc(%rbp)
    e543:	e9 83 00 00 00       	jmpq   e5cb <main+0x2dc>
    e548:	c7 45 f8 00 00 00 00 	movl   $0x0,-0x8(%rbp)
    e54f:	eb 70                	jmp    e5c1 <main+0x2d2>
    e551:	8b 45 f8             	mov    -0x8(%rbp),%eax
    e554:	48 63 c8             	movslq %eax,%rcx
    e557:	8b 45 f0             	mov    -0x10(%rbp),%eax
    e55a:	48 63 d0             	movslq %eax,%rdx
    e55d:	8b 45 f4             	mov    -0xc(%rbp),%eax
    e560:	48 63 f0             	movslq %eax,%rsi
    e563:	48 89 d0             	mov    %rdx,%rax
    e566:	48 c1 e0 02          	shl    $0x2,%rax
    e56a:	48 01 d0             	add    %rdx,%rax
    e56d:	48 01 f0             	add    %rsi,%rax
    e570:	48 c1 e0 03          	shl    $0x3,%rax
    e574:	48 01 c8             	add    %rcx,%rax
    e577:	48 8d 14 00          	lea    (%rax,%rax,1),%rdx
    e57b:	48 8d 05 fe 3a 00 00 	lea    0x3afe(%rip),%rax        # 12080 <g_180>
    e582:	0f b7 04 02          	movzwl (%rdx,%rax,1),%eax
    e586:	0f b7 c0             	movzwl %ax,%eax
    e589:	8b 55 fc             	mov    -0x4(%rbp),%edx
    e58c:	48 8d 35 41 0e 00 00 	lea    0xe41(%rip),%rsi        # f3d4 <g_1028+0x374>
    e593:	48 89 c7             	mov    %rax,%rdi
    e596:	e8 58 91 ff ff       	callq  76f3 <transparent_crc>
    e59b:	83 7d fc 00          	cmpl   $0x0,-0x4(%rbp)
    e59f:	74 1c                	je     e5bd <main+0x2ce>
    e5a1:	8b 4d f8             	mov    -0x8(%rbp),%ecx
    e5a4:	8b 55 f4             	mov    -0xc(%rbp),%edx
    e5a7:	8b 45 f0             	mov    -0x10(%rbp),%eax
    e5aa:	89 c6                	mov    %eax,%esi
    e5ac:	48 8d 3d 30 0e 00 00 	lea    0xe30(%rip),%rdi        # f3e3 <g_1028+0x383>
    e5b3:	b8 00 00 00 00       	mov    $0x0,%eax
    e5b8:	e8 c3 7a ff ff       	callq  6080 <printf@plt>
    e5bd:	83 45 f8 01          	addl   $0x1,-0x8(%rbp)
    e5c1:	83 7d f8 07          	cmpl   $0x7,-0x8(%rbp)
    e5c5:	7e 8a                	jle    e551 <main+0x262>
    e5c7:	83 45 f4 01          	addl   $0x1,-0xc(%rbp)
    e5cb:	83 7d f4 04          	cmpl   $0x4,-0xc(%rbp)
    e5cf:	0f 8e 73 ff ff ff    	jle    e548 <main+0x259>
    e5d5:	83 45 f0 01          	addl   $0x1,-0x10(%rbp)
    e5d9:	83 7d f0 02          	cmpl   $0x2,-0x10(%rbp)
    e5dd:	0f 8e 59 ff ff ff    	jle    e53c <main+0x24d>
    e5e3:	0f b6 05 86 3b 00 00 	movzbl 0x3b86(%rip),%eax        # 12170 <g_192>
    e5ea:	0f b6 c0             	movzbl %al,%eax
    e5ed:	8b 55 fc             	mov    -0x4(%rbp),%edx
    e5f0:	48 8d 35 02 0e 00 00 	lea    0xe02(%rip),%rsi        # f3f9 <g_1028+0x399>
    e5f7:	48 89 c7             	mov    %rax,%rdi
    e5fa:	e8 f4 90 ff ff       	callq  76f3 <transparent_crc>
    e5ff:	0f b7 05 6c 3b 00 00 	movzwl 0x3b6c(%rip),%eax        # 12172 <g_200>
    e606:	48 0f bf c0          	movswq %ax,%rax
    e60a:	8b 55 fc             	mov    -0x4(%rbp),%edx
    e60d:	48 8d 35 eb 0d 00 00 	lea    0xdeb(%rip),%rsi        # f3ff <g_1028+0x39f>
    e614:	48 89 c7             	mov    %rax,%rdi
    e617:	e8 d7 90 ff ff       	callq  76f3 <transparent_crc>
    e61c:	0f b7 05 3d 65 00 00 	movzwl 0x653d(%rip),%eax        # 14b60 <g_222>
    e623:	48 0f bf c0          	movswq %ax,%rax
    e627:	8b 55 fc             	mov    -0x4(%rbp),%edx
    e62a:	48 8d 35 d4 0d 00 00 	lea    0xdd4(%rip),%rsi        # f405 <g_1028+0x3a5>
    e631:	48 89 c7             	mov    %rax,%rdi
    e634:	e8 ba 90 ff ff       	callq  76f3 <transparent_crc>
    e639:	c7 45 f0 00 00 00 00 	movl   $0x0,-0x10(%rbp)
    e640:	eb 72                	jmp    e6b4 <main+0x3c5>
    e642:	c7 45 f4 00 00 00 00 	movl   $0x0,-0xc(%rbp)
    e649:	eb 5f                	jmp    e6aa <main+0x3bb>
    e64b:	8b 45 f4             	mov    -0xc(%rbp),%eax
    e64e:	48 98                	cltq   
    e650:	8b 55 f0             	mov    -0x10(%rbp),%edx
    e653:	48 63 d2             	movslq %edx,%rdx
    e656:	48 c1 e2 02          	shl    $0x2,%rdx
    e65a:	48 01 d0             	add    %rdx,%rax
    e65d:	48 8d 14 c5 00 00 00 	lea    0x0(,%rax,8),%rdx
    e664:	00 
    e665:	48 8d 05 14 3b 00 00 	lea    0x3b14(%rip),%rax        # 12180 <g_223>
    e66c:	48 8b 04 02          	mov    (%rdx,%rax,1),%rax
    e670:	48 89 c1             	mov    %rax,%rcx
    e673:	8b 45 fc             	mov    -0x4(%rbp),%eax
    e676:	89 c2                	mov    %eax,%edx
    e678:	48 8d 35 8c 0d 00 00 	lea    0xd8c(%rip),%rsi        # f40b <g_1028+0x3ab>
    e67f:	48 89 cf             	mov    %rcx,%rdi
    e682:	e8 6c 90 ff ff       	callq  76f3 <transparent_crc>
    e687:	83 7d fc 00          	cmpl   $0x0,-0x4(%rbp)
    e68b:	74 19                	je     e6a6 <main+0x3b7>
    e68d:	8b 55 f4             	mov    -0xc(%rbp),%edx
    e690:	8b 45 f0             	mov    -0x10(%rbp),%eax
    e693:	89 c6                	mov    %eax,%esi
    e695:	48 8d 3d 7b 0d 00 00 	lea    0xd7b(%rip),%rdi        # f417 <g_1028+0x3b7>
    e69c:	b8 00 00 00 00       	mov    $0x0,%eax
    e6a1:	e8 da 79 ff ff       	callq  6080 <printf@plt>
    e6a6:	83 45 f4 01          	addl   $0x1,-0xc(%rbp)
    e6aa:	83 7d f4 03          	cmpl   $0x3,-0xc(%rbp)
    e6ae:	7e 9b                	jle    e64b <main+0x35c>
    e6b0:	83 45 f0 01          	addl   $0x1,-0x10(%rbp)
    e6b4:	83 7d f0 07          	cmpl   $0x7,-0x10(%rbp)
    e6b8:	7e 88                	jle    e642 <main+0x353>
    e6ba:	48 8b 05 bf 3b 00 00 	mov    0x3bbf(%rip),%rax        # 12280 <g_224>
    e6c1:	48 89 c1             	mov    %rax,%rcx
    e6c4:	8b 45 fc             	mov    -0x4(%rbp),%eax
    e6c7:	89 c2                	mov    %eax,%edx
    e6c9:	48 8d 35 59 0d 00 00 	lea    0xd59(%rip),%rsi        # f429 <g_1028+0x3c9>
    e6d0:	48 89 cf             	mov    %rcx,%rdi
    e6d3:	e8 1b 90 ff ff       	callq  76f3 <transparent_crc>
    e6d8:	48 8b 05 a9 3b 00 00 	mov    0x3ba9(%rip),%rax        # 12288 <g_225>
    e6df:	48 89 c1             	mov    %rax,%rcx
    e6e2:	8b 45 fc             	mov    -0x4(%rbp),%eax
    e6e5:	89 c2                	mov    %eax,%edx
    e6e7:	48 8d 35 41 0d 00 00 	lea    0xd41(%rip),%rsi        # f42f <g_1028+0x3cf>
    e6ee:	48 89 cf             	mov    %rcx,%rdi
    e6f1:	e8 fd 8f ff ff       	callq  76f3 <transparent_crc>
    e6f6:	48 8b 05 93 3b 00 00 	mov    0x3b93(%rip),%rax        # 12290 <g_226>
    e6fd:	8b 55 fc             	mov    -0x4(%rbp),%edx
    e700:	48 8d 35 2e 0d 00 00 	lea    0xd2e(%rip),%rsi        # f435 <g_1028+0x3d5>
    e707:	48 89 c7             	mov    %rax,%rdi
    e70a:	e8 e4 8f ff ff       	callq  76f3 <transparent_crc>
    e70f:	c7 45 f0 00 00 00 00 	movl   $0x0,-0x10(%rbp)
    e716:	eb 77                	jmp    e78f <main+0x4a0>
    e718:	c7 45 f4 00 00 00 00 	movl   $0x0,-0xc(%rbp)
    e71f:	eb 64                	jmp    e785 <main+0x496>
    e721:	8b 45 f4             	mov    -0xc(%rbp),%eax
    e724:	48 98                	cltq   
    e726:	8b 55 f0             	mov    -0x10(%rbp),%edx
    e729:	48 63 d2             	movslq %edx,%rdx
    e72c:	48 c1 e2 03          	shl    $0x3,%rdx
    e730:	48 01 d0             	add    %rdx,%rax
    e733:	48 8d 14 85 00 00 00 	lea    0x0(,%rax,4),%rdx
    e73a:	00 
    e73b:	48 8d 05 5e 3b 00 00 	lea    0x3b5e(%rip),%rax        # 122a0 <g_237>
    e742:	8b 04 02             	mov    (%rdx,%rax,1),%eax
    e745:	c1 e0 05             	shl    $0x5,%eax
    e748:	66 c1 f8 05          	sar    $0x5,%ax
    e74c:	48 0f bf c0          	movswq %ax,%rax
    e750:	8b 55 fc             	mov    -0x4(%rbp),%edx
    e753:	48 8d 35 e1 0c 00 00 	lea    0xce1(%rip),%rsi        # f43b <g_1028+0x3db>
    e75a:	48 89 c7             	mov    %rax,%rdi
    e75d:	e8 91 8f ff ff       	callq  76f3 <transparent_crc>
    e762:	83 7d fc 00          	cmpl   $0x0,-0x4(%rbp)
    e766:	74 19                	je     e781 <main+0x492>
    e768:	8b 55 f4             	mov    -0xc(%rbp),%edx
    e76b:	8b 45 f0             	mov    -0x10(%rbp),%eax
    e76e:	89 c6                	mov    %eax,%esi
    e770:	48 8d 3d a0 0c 00 00 	lea    0xca0(%rip),%rdi        # f417 <g_1028+0x3b7>
    e777:	b8 00 00 00 00       	mov    $0x0,%eax
    e77c:	e8 ff 78 ff ff       	callq  6080 <printf@plt>
    e781:	83 45 f4 01          	addl   $0x1,-0xc(%rbp)
    e785:	83 7d f4 07          	cmpl   $0x7,-0xc(%rbp)
    e789:	7e 96                	jle    e721 <main+0x432>
    e78b:	83 45 f0 01          	addl   $0x1,-0x10(%rbp)
    e78f:	83 7d f0 09          	cmpl   $0x9,-0x10(%rbp)
    e793:	7e 83                	jle    e718 <main+0x429>
    e795:	c7 45 f0 00 00 00 00 	movl   $0x0,-0x10(%rbp)
    e79c:	e9 96 00 00 00       	jmpq   e837 <main+0x548>
    e7a1:	c7 45 f4 00 00 00 00 	movl   $0x0,-0xc(%rbp)
    e7a8:	eb 7f                	jmp    e829 <main+0x53a>
    e7aa:	c7 45 f8 00 00 00 00 	movl   $0x0,-0x8(%rbp)
    e7b1:	eb 6c                	jmp    e81f <main+0x530>
    e7b3:	8b 45 f8             	mov    -0x8(%rbp),%eax
    e7b6:	48 63 c8             	movslq %eax,%rcx
    e7b9:	8b 45 f0             	mov    -0x10(%rbp),%eax
    e7bc:	48 63 d0             	movslq %eax,%rdx
    e7bf:	8b 45 f4             	mov    -0xc(%rbp),%eax
    e7c2:	48 98                	cltq   
    e7c4:	48 01 c2             	add    %rax,%rdx
    e7c7:	48 89 d0             	mov    %rdx,%rax
    e7ca:	48 c1 e0 03          	shl    $0x3,%rax
    e7ce:	48 29 d0             	sub    %rdx,%rax
    e7d1:	48 01 c8             	add    %rcx,%rax
    e7d4:	48 8d 14 c5 00 00 00 	lea    0x0(,%rax,8),%rdx
    e7db:	00 
    e7dc:	48 8d 05 fd 3b 00 00 	lea    0x3bfd(%rip),%rax        # 123e0 <g_246>
    e7e3:	48 8b 04 02          	mov    (%rdx,%rax,1),%rax
    e7e7:	8b 55 fc             	mov    -0x4(%rbp),%edx
    e7ea:	48 8d 35 59 0c 00 00 	lea    0xc59(%rip),%rsi        # f44a <g_1028+0x3ea>
    e7f1:	48 89 c7             	mov    %rax,%rdi
    e7f4:	e8 fa 8e ff ff       	callq  76f3 <transparent_crc>
    e7f9:	83 7d fc 00          	cmpl   $0x0,-0x4(%rbp)
    e7fd:	74 1c                	je     e81b <main+0x52c>
    e7ff:	8b 4d f8             	mov    -0x8(%rbp),%ecx
    e802:	8b 55 f4             	mov    -0xc(%rbp),%edx
    e805:	8b 45 f0             	mov    -0x10(%rbp),%eax
    e808:	89 c6                	mov    %eax,%esi
    e80a:	48 8d 3d d2 0b 00 00 	lea    0xbd2(%rip),%rdi        # f3e3 <g_1028+0x383>
    e811:	b8 00 00 00 00       	mov    $0x0,%eax
    e816:	e8 65 78 ff ff       	callq  6080 <printf@plt>
    e81b:	83 45 f8 01          	addl   $0x1,-0x8(%rbp)
    e81f:	83 7d f8 06          	cmpl   $0x6,-0x8(%rbp)
    e823:	7e 8e                	jle    e7b3 <main+0x4c4>
    e825:	83 45 f4 01          	addl   $0x1,-0xc(%rbp)
    e829:	83 7d f4 00          	cmpl   $0x0,-0xc(%rbp)
    e82d:	0f 8e 77 ff ff ff    	jle    e7aa <main+0x4bb>
    e833:	83 45 f0 01          	addl   $0x1,-0x10(%rbp)
    e837:	83 7d f0 01          	cmpl   $0x1,-0x10(%rbp)
    e83b:	0f 8e 60 ff ff ff    	jle    e7a1 <main+0x4b2>
    e841:	48 8b 05 08 3c 00 00 	mov    0x3c08(%rip),%rax        # 12450 <g_290>
    e848:	8b 55 fc             	mov    -0x4(%rbp),%edx
    e84b:	48 8d 35 07 0c 00 00 	lea    0xc07(%rip),%rsi        # f459 <g_1028+0x3f9>
    e852:	48 89 c7             	mov    %rax,%rdi
    e855:	e8 99 8e ff ff       	callq  76f3 <transparent_crc>
    e85a:	8b 05 f8 3b 00 00    	mov    0x3bf8(%rip),%eax        # 12458 <g_300>
    e860:	c1 e0 05             	shl    $0x5,%eax
    e863:	66 c1 f8 05          	sar    $0x5,%ax
    e867:	48 0f bf c0          	movswq %ax,%rax
    e86b:	8b 55 fc             	mov    -0x4(%rbp),%edx
    e86e:	48 8d 35 ea 0b 00 00 	lea    0xbea(%rip),%rsi        # f45f <g_1028+0x3ff>
    e875:	48 89 c7             	mov    %rax,%rdi
    e878:	e8 76 8e ff ff       	callq  76f3 <transparent_crc>
    e87d:	0f b6 05 d8 3b 00 00 	movzbl 0x3bd8(%rip),%eax        # 1245c <g_382>
    e884:	48 0f be c0          	movsbq %al,%rax
    e888:	8b 55 fc             	mov    -0x4(%rbp),%edx
    e88b:	48 8d 35 d6 0b 00 00 	lea    0xbd6(%rip),%rsi        # f468 <g_1028+0x408>
    e892:	48 89 c7             	mov    %rax,%rdi
    e895:	e8 59 8e ff ff       	callq  76f3 <transparent_crc>
    e89a:	0f b7 05 bd 3b 00 00 	movzwl 0x3bbd(%rip),%eax        # 1245e <g_385>
    e8a1:	0f b7 c0             	movzwl %ax,%eax
    e8a4:	8b 55 fc             	mov    -0x4(%rbp),%edx
    e8a7:	48 8d 35 c0 0b 00 00 	lea    0xbc0(%rip),%rsi        # f46e <g_1028+0x40e>
    e8ae:	48 89 c7             	mov    %rax,%rdi
    e8b1:	e8 3d 8e ff ff       	callq  76f3 <transparent_crc>
    e8b6:	8b 05 a4 3b 00 00    	mov    0x3ba4(%rip),%eax        # 12460 <g_389>
    e8bc:	48 98                	cltq   
    e8be:	8b 55 fc             	mov    -0x4(%rbp),%edx
    e8c1:	48 8d 35 ac 0b 00 00 	lea    0xbac(%rip),%rsi        # f474 <g_1028+0x414>
    e8c8:	48 89 c7             	mov    %rax,%rdi
    e8cb:	e8 23 8e ff ff       	callq  76f3 <transparent_crc>
    e8d0:	8b 05 8e 3b 00 00    	mov    0x3b8e(%rip),%eax        # 12464 <g_390>
    e8d6:	89 c1                	mov    %eax,%ecx
    e8d8:	8b 45 fc             	mov    -0x4(%rbp),%eax
    e8db:	89 c2                	mov    %eax,%edx
    e8dd:	48 8d 35 96 0b 00 00 	lea    0xb96(%rip),%rsi        # f47a <g_1028+0x41a>
    e8e4:	48 89 cf             	mov    %rcx,%rdi
    e8e7:	e8 07 8e ff ff       	callq  76f3 <transparent_crc>
    e8ec:	c7 45 f0 00 00 00 00 	movl   $0x0,-0x10(%rbp)
    e8f3:	eb 70                	jmp    e965 <main+0x676>
    e8f5:	c7 45 f4 00 00 00 00 	movl   $0x0,-0xc(%rbp)
    e8fc:	eb 5d                	jmp    e95b <main+0x66c>
    e8fe:	8b 45 f4             	mov    -0xc(%rbp),%eax
    e901:	48 98                	cltq   
    e903:	8b 55 f0             	mov    -0x10(%rbp),%edx
    e906:	48 63 d2             	movslq %edx,%rdx
    e909:	48 c1 e2 02          	shl    $0x2,%rdx
    e90d:	48 01 d0             	add    %rdx,%rax
    e910:	48 8d 14 85 00 00 00 	lea    0x0(,%rax,4),%rdx
    e917:	00 
    e918:	48 8d 05 61 3b 00 00 	lea    0x3b61(%rip),%rax        # 12480 <g_413>
    e91f:	8b 04 02             	mov    (%rdx,%rax,1),%eax
    e922:	89 c1                	mov    %eax,%ecx
    e924:	8b 45 fc             	mov    -0x4(%rbp),%eax
    e927:	89 c2                	mov    %eax,%edx
    e929:	48 8d 35 50 0b 00 00 	lea    0xb50(%rip),%rsi        # f480 <g_1028+0x420>
    e930:	48 89 cf             	mov    %rcx,%rdi
    e933:	e8 bb 8d ff ff       	callq  76f3 <transparent_crc>
    e938:	83 7d fc 00          	cmpl   $0x0,-0x4(%rbp)
    e93c:	74 19                	je     e957 <main+0x668>
    e93e:	8b 55 f4             	mov    -0xc(%rbp),%edx
    e941:	8b 45 f0             	mov    -0x10(%rbp),%eax
    e944:	89 c6                	mov    %eax,%esi
    e946:	48 8d 3d ca 0a 00 00 	lea    0xaca(%rip),%rdi        # f417 <g_1028+0x3b7>
    e94d:	b8 00 00 00 00       	mov    $0x0,%eax
    e952:	e8 29 77 ff ff       	callq  6080 <printf@plt>
    e957:	83 45 f4 01          	addl   $0x1,-0xc(%rbp)
    e95b:	83 7d f4 03          	cmpl   $0x3,-0xc(%rbp)
    e95f:	7e 9d                	jle    e8fe <main+0x60f>
    e961:	83 45 f0 01          	addl   $0x1,-0x10(%rbp)
    e965:	83 7d f0 06          	cmpl   $0x6,-0x10(%rbp)
    e969:	7e 8a                	jle    e8f5 <main+0x606>
    e96b:	8b 05 7f 3b 00 00    	mov    0x3b7f(%rip),%eax        # 124f0 <g_427>
    e971:	c1 e0 05             	shl    $0x5,%eax
    e974:	66 c1 f8 05          	sar    $0x5,%ax
    e978:	48 0f bf c0          	movswq %ax,%rax
    e97c:	8b 55 fc             	mov    -0x4(%rbp),%edx
    e97f:	48 8d 35 06 0b 00 00 	lea    0xb06(%rip),%rsi        # f48c <g_1028+0x42c>
    e986:	48 89 c7             	mov    %rax,%rdi
    e989:	e8 65 8d ff ff       	callq  76f3 <transparent_crc>
    e98e:	0f b7 05 5f 3b 00 00 	movzwl 0x3b5f(%rip),%eax        # 124f4 <g_479>
    e995:	c1 e0 05             	shl    $0x5,%eax
    e998:	66 c1 f8 05          	sar    $0x5,%ax
    e99c:	48 0f bf c0          	movswq %ax,%rax
    e9a0:	8b 55 fc             	mov    -0x4(%rbp),%edx
    e9a3:	48 8d 35 eb 0a 00 00 	lea    0xaeb(%rip),%rsi        # f495 <g_1028+0x435>
    e9aa:	48 89 c7             	mov    %rax,%rdi
    e9ad:	e8 41 8d ff ff       	callq  76f3 <transparent_crc>
    e9b2:	8b 05 b8 61 00 00    	mov    0x61b8(%rip),%eax        # 14b70 <g_532>
    e9b8:	48 98                	cltq   
    e9ba:	8b 55 fc             	mov    -0x4(%rbp),%edx
    e9bd:	48 8d 35 da 0a 00 00 	lea    0xada(%rip),%rsi        # f49e <g_1028+0x43e>
    e9c4:	48 89 c7             	mov    %rax,%rdi
    e9c7:	e8 27 8d ff ff       	callq  76f3 <transparent_crc>
    e9cc:	8b 05 26 3b 00 00    	mov    0x3b26(%rip),%eax        # 124f8 <g_554>
    e9d2:	48 98                	cltq   
    e9d4:	8b 55 fc             	mov    -0x4(%rbp),%edx
    e9d7:	48 8d 35 c6 0a 00 00 	lea    0xac6(%rip),%rsi        # f4a4 <g_1028+0x444>
    e9de:	48 89 c7             	mov    %rax,%rdi
    e9e1:	e8 0d 8d ff ff       	callq  76f3 <transparent_crc>
    e9e6:	0f b6 05 0f 3b 00 00 	movzbl 0x3b0f(%rip),%eax        # 124fc <g_559>
    e9ed:	0f b6 c0             	movzbl %al,%eax
    e9f0:	8b 55 fc             	mov    -0x4(%rbp),%edx
    e9f3:	48 8d 35 b0 0a 00 00 	lea    0xab0(%rip),%rsi        # f4aa <g_1028+0x44a>
    e9fa:	48 89 c7             	mov    %rax,%rdi
    e9fd:	e8 f1 8c ff ff       	callq  76f3 <transparent_crc>
    ea02:	48 c7 c1 ff ff ff ff 	mov    $0xffffffffffffffff,%rcx
    ea09:	8b 45 fc             	mov    -0x4(%rbp),%eax
    ea0c:	89 c2                	mov    %eax,%edx
    ea0e:	48 8d 35 9b 0a 00 00 	lea    0xa9b(%rip),%rsi        # f4b0 <g_1028+0x450>
    ea15:	48 89 cf             	mov    %rcx,%rdi
    ea18:	e8 d6 8c ff ff       	callq  76f3 <transparent_crc>
    ea1d:	c7 45 f0 00 00 00 00 	movl   $0x0,-0x10(%rbp)
    ea24:	eb 49                	jmp    ea6f <main+0x780>
    ea26:	8b 45 f0             	mov    -0x10(%rbp),%eax
    ea29:	48 98                	cltq   
    ea2b:	48 8d 14 00          	lea    (%rax,%rax,1),%rdx
    ea2f:	48 8d 05 ca 3a 00 00 	lea    0x3aca(%rip),%rax        # 12500 <g_592>
    ea36:	0f b7 04 02          	movzwl (%rdx,%rax,1),%eax
    ea3a:	0f b7 c0             	movzwl %ax,%eax
    ea3d:	8b 55 fc             	mov    -0x4(%rbp),%edx
    ea40:	48 8d 35 6f 0a 00 00 	lea    0xa6f(%rip),%rsi        # f4b6 <g_1028+0x456>
    ea47:	48 89 c7             	mov    %rax,%rdi
    ea4a:	e8 a4 8c ff ff       	callq  76f3 <transparent_crc>
    ea4f:	83 7d fc 00          	cmpl   $0x0,-0x4(%rbp)
    ea53:	74 16                	je     ea6b <main+0x77c>
    ea55:	8b 45 f0             	mov    -0x10(%rbp),%eax
    ea58:	89 c6                	mov    %eax,%esi
    ea5a:	48 8d 3d 11 09 00 00 	lea    0x911(%rip),%rdi        # f372 <g_1028+0x312>
    ea61:	b8 00 00 00 00       	mov    $0x0,%eax
    ea66:	e8 15 76 ff ff       	callq  6080 <printf@plt>
    ea6b:	83 45 f0 01          	addl   $0x1,-0x10(%rbp)
    ea6f:	83 7d f0 04          	cmpl   $0x4,-0x10(%rbp)
    ea73:	7e b1                	jle    ea26 <main+0x737>
    ea75:	0f b7 05 90 3a 00 00 	movzwl 0x3a90(%rip),%eax        # 1250c <g_613>
    ea7c:	c1 e0 05             	shl    $0x5,%eax
    ea7f:	66 c1 f8 05          	sar    $0x5,%ax
    ea83:	48 0f bf c0          	movswq %ax,%rax
    ea87:	8b 55 fc             	mov    -0x4(%rbp),%edx
    ea8a:	48 8d 35 2e 0a 00 00 	lea    0xa2e(%rip),%rsi        # f4bf <g_1028+0x45f>
    ea91:	48 89 c7             	mov    %rax,%rdi
    ea94:	e8 5a 8c ff ff       	callq  76f3 <transparent_crc>
    ea99:	0f b7 05 d4 60 00 00 	movzwl 0x60d4(%rip),%eax        # 14b74 <g_615>
    eaa0:	c1 e0 05             	shl    $0x5,%eax
    eaa3:	66 c1 f8 05          	sar    $0x5,%ax
    eaa7:	48 0f bf c0          	movswq %ax,%rax
    eaab:	8b 55 fc             	mov    -0x4(%rbp),%edx
    eaae:	48 8d 35 13 0a 00 00 	lea    0xa13(%rip),%rsi        # f4c8 <g_1028+0x468>
    eab5:	48 89 c7             	mov    %rax,%rdi
    eab8:	e8 36 8c ff ff       	callq  76f3 <transparent_crc>
    eabd:	c7 45 f0 00 00 00 00 	movl   $0x0,-0x10(%rbp)
    eac4:	e9 b6 00 00 00       	jmpq   eb7f <main+0x890>
    eac9:	c7 45 f4 00 00 00 00 	movl   $0x0,-0xc(%rbp)
    ead0:	e9 9c 00 00 00       	jmpq   eb71 <main+0x882>
    ead5:	c7 45 f8 00 00 00 00 	movl   $0x0,-0x8(%rbp)
    eadc:	e9 82 00 00 00       	jmpq   eb63 <main+0x874>
    eae1:	8b 45 f8             	mov    -0x8(%rbp),%eax
    eae4:	48 63 f0             	movslq %eax,%rsi
    eae7:	8b 45 f0             	mov    -0x10(%rbp),%eax
    eaea:	48 98                	cltq   
    eaec:	8b 55 f4             	mov    -0xc(%rbp),%edx
    eaef:	48 63 ca             	movslq %edx,%rcx
    eaf2:	48 89 c2             	mov    %rax,%rdx
    eaf5:	48 c1 e2 04          	shl    $0x4,%rdx
    eaf9:	48 29 c2             	sub    %rax,%rdx
    eafc:	48 8d 04 95 00 00 00 	lea    0x0(,%rdx,4),%rax
    eb03:	00 
    eb04:	48 89 c2             	mov    %rax,%rdx
    eb07:	48 89 c8             	mov    %rcx,%rax
    eb0a:	48 01 c0             	add    %rax,%rax
    eb0d:	48 01 c8             	add    %rcx,%rax
    eb10:	48 01 c0             	add    %rax,%rax
    eb13:	48 01 d0             	add    %rdx,%rax
    eb16:	48 01 f0             	add    %rsi,%rax
    eb19:	48 8d 14 00          	lea    (%rax,%rax,1),%rdx
    eb1d:	48 8d 05 fc 39 00 00 	lea    0x39fc(%rip),%rax        # 12520 <g_641>
    eb24:	0f b7 04 02          	movzwl (%rdx,%rax,1),%eax
    eb28:	0f b7 c0             	movzwl %ax,%eax
    eb2b:	8b 55 fc             	mov    -0x4(%rbp),%edx
    eb2e:	48 8d 35 9c 09 00 00 	lea    0x99c(%rip),%rsi        # f4d1 <g_1028+0x471>
    eb35:	48 89 c7             	mov    %rax,%rdi
    eb38:	e8 b6 8b ff ff       	callq  76f3 <transparent_crc>
    eb3d:	83 7d fc 00          	cmpl   $0x0,-0x4(%rbp)
    eb41:	74 1c                	je     eb5f <main+0x870>
    eb43:	8b 4d f8             	mov    -0x8(%rbp),%ecx
    eb46:	8b 55 f4             	mov    -0xc(%rbp),%edx
    eb49:	8b 45 f0             	mov    -0x10(%rbp),%eax
    eb4c:	89 c6                	mov    %eax,%esi
    eb4e:	48 8d 3d 8e 08 00 00 	lea    0x88e(%rip),%rdi        # f3e3 <g_1028+0x383>
    eb55:	b8 00 00 00 00       	mov    $0x0,%eax
    eb5a:	e8 21 75 ff ff       	callq  6080 <printf@plt>
    eb5f:	83 45 f8 01          	addl   $0x1,-0x8(%rbp)
    eb63:	83 7d f8 05          	cmpl   $0x5,-0x8(%rbp)
    eb67:	0f 8e 74 ff ff ff    	jle    eae1 <main+0x7f2>
    eb6d:	83 45 f4 01          	addl   $0x1,-0xc(%rbp)
    eb71:	83 7d f4 09          	cmpl   $0x9,-0xc(%rbp)
    eb75:	0f 8e 5a ff ff ff    	jle    ead5 <main+0x7e6>
    eb7b:	83 45 f0 01          	addl   $0x1,-0x10(%rbp)
    eb7f:	83 7d f0 02          	cmpl   $0x2,-0x10(%rbp)
    eb83:	0f 8e 40 ff ff ff    	jle    eac9 <main+0x7da>
    eb89:	8b 05 f9 3a 00 00    	mov    0x3af9(%rip),%eax        # 12688 <g_665>
    eb8f:	89 c1                	mov    %eax,%ecx
    eb91:	8b 45 fc             	mov    -0x4(%rbp),%eax
    eb94:	89 c2                	mov    %eax,%edx
    eb96:	48 8d 35 43 09 00 00 	lea    0x943(%rip),%rsi        # f4e0 <g_1028+0x480>
    eb9d:	48 89 cf             	mov    %rcx,%rdi
    eba0:	e8 4e 8b ff ff       	callq  76f3 <transparent_crc>
    eba5:	c7 45 f0 00 00 00 00 	movl   $0x0,-0x10(%rbp)
    ebac:	e9 9d 00 00 00       	jmpq   ec4e <main+0x95f>
    ebb1:	c7 45 f4 00 00 00 00 	movl   $0x0,-0xc(%rbp)
    ebb8:	e9 83 00 00 00       	jmpq   ec40 <main+0x951>
    ebbd:	c7 45 f8 00 00 00 00 	movl   $0x0,-0x8(%rbp)
    ebc4:	eb 70                	jmp    ec36 <main+0x947>
    ebc6:	8b 45 f8             	mov    -0x8(%rbp),%eax
    ebc9:	48 63 c8             	movslq %eax,%rcx
    ebcc:	8b 45 f0             	mov    -0x10(%rbp),%eax
    ebcf:	48 63 d0             	movslq %eax,%rdx
    ebd2:	8b 45 f4             	mov    -0xc(%rbp),%eax
    ebd5:	48 63 f0             	movslq %eax,%rsi
    ebd8:	48 89 d0             	mov    %rdx,%rax
    ebdb:	48 c1 e0 03          	shl    $0x3,%rax
    ebdf:	48 29 d0             	sub    %rdx,%rax
    ebe2:	48 01 f0             	add    %rsi,%rax
    ebe5:	48 c1 e0 02          	shl    $0x2,%rax
    ebe9:	48 8d 14 08          	lea    (%rax,%rcx,1),%rdx
    ebed:	48 8d 05 ac 3a 00 00 	lea    0x3aac(%rip),%rax        # 126a0 <g_771>
    ebf4:	48 01 d0             	add    %rdx,%rax
    ebf7:	0f b6 00             	movzbl (%rax),%eax
    ebfa:	48 0f be c0          	movsbq %al,%rax
    ebfe:	8b 55 fc             	mov    -0x4(%rbp),%edx
    ec01:	48 8d 35 de 08 00 00 	lea    0x8de(%rip),%rsi        # f4e6 <g_1028+0x486>
    ec08:	48 89 c7             	mov    %rax,%rdi
    ec0b:	e8 e3 8a ff ff       	callq  76f3 <transparent_crc>
    ec10:	83 7d fc 00          	cmpl   $0x0,-0x4(%rbp)
    ec14:	74 1c                	je     ec32 <main+0x943>
    ec16:	8b 4d f8             	mov    -0x8(%rbp),%ecx
    ec19:	8b 55 f4             	mov    -0xc(%rbp),%edx
    ec1c:	8b 45 f0             	mov    -0x10(%rbp),%eax
    ec1f:	89 c6                	mov    %eax,%esi
    ec21:	48 8d 3d bb 07 00 00 	lea    0x7bb(%rip),%rdi        # f3e3 <g_1028+0x383>
    ec28:	b8 00 00 00 00       	mov    $0x0,%eax
    ec2d:	e8 4e 74 ff ff       	callq  6080 <printf@plt>
    ec32:	83 45 f8 01          	addl   $0x1,-0x8(%rbp)
    ec36:	83 7d f8 03          	cmpl   $0x3,-0x8(%rbp)
    ec3a:	7e 8a                	jle    ebc6 <main+0x8d7>
    ec3c:	83 45 f4 01          	addl   $0x1,-0xc(%rbp)
    ec40:	83 7d f4 06          	cmpl   $0x6,-0xc(%rbp)
    ec44:	0f 8e 73 ff ff ff    	jle    ebbd <main+0x8ce>
    ec4a:	83 45 f0 01          	addl   $0x1,-0x10(%rbp)
    ec4e:	83 7d f0 08          	cmpl   $0x8,-0x10(%rbp)
    ec52:	0f 8e 59 ff ff ff    	jle    ebb1 <main+0x8c2>
    ec58:	8b 05 3e 3b 00 00    	mov    0x3b3e(%rip),%eax        # 1279c <g_851>
    ec5e:	c1 e0 05             	shl    $0x5,%eax
    ec61:	66 c1 f8 05          	sar    $0x5,%ax
    ec65:	48 0f bf c0          	movswq %ax,%rax
    ec69:	8b 55 fc             	mov    -0x4(%rbp),%edx
    ec6c:	48 8d 35 82 08 00 00 	lea    0x882(%rip),%rsi        # f4f5 <g_1028+0x495>
    ec73:	48 89 c7             	mov    %rax,%rdi
    ec76:	e8 78 8a ff ff       	callq  76f3 <transparent_crc>
    ec7b:	c7 45 f0 00 00 00 00 	movl   $0x0,-0x10(%rbp)
    ec82:	e9 9d 00 00 00       	jmpq   ed24 <main+0xa35>
    ec87:	c7 45 f4 00 00 00 00 	movl   $0x0,-0xc(%rbp)
    ec8e:	e9 83 00 00 00       	jmpq   ed16 <main+0xa27>
    ec93:	c7 45 f8 00 00 00 00 	movl   $0x0,-0x8(%rbp)
    ec9a:	eb 70                	jmp    ed0c <main+0xa1d>
    ec9c:	8b 45 f8             	mov    -0x8(%rbp),%eax
    ec9f:	48 63 f0             	movslq %eax,%rsi
    eca2:	8b 45 f4             	mov    -0xc(%rbp),%eax
    eca5:	48 63 c8             	movslq %eax,%rcx
    eca8:	8b 45 f0             	mov    -0x10(%rbp),%eax
    ecab:	48 63 d0             	movslq %eax,%rdx
    ecae:	48 89 d0             	mov    %rdx,%rax
    ecb1:	48 01 c0             	add    %rax,%rax
    ecb4:	48 01 d0             	add    %rdx,%rax
    ecb7:	48 01 c0             	add    %rax,%rax
    ecba:	48 01 f0             	add    %rsi,%rax
    ecbd:	48 01 c8             	add    %rcx,%rax
    ecc0:	48 8d 14 85 00 00 00 	lea    0x0(,%rax,4),%rdx
    ecc7:	00 
    ecc8:	48 8d 05 d1 3a 00 00 	lea    0x3ad1(%rip),%rax        # 127a0 <g_878>
    eccf:	8b 04 02             	mov    (%rdx,%rax,1),%eax
    ecd2:	48 98                	cltq   
    ecd4:	8b 55 fc             	mov    -0x4(%rbp),%edx
    ecd7:	48 8d 35 20 08 00 00 	lea    0x820(%rip),%rsi        # f4fe <g_1028+0x49e>
    ecde:	48 89 c7             	mov    %rax,%rdi
    ece1:	e8 0d 8a ff ff       	callq  76f3 <transparent_crc>
    ece6:	83 7d fc 00          	cmpl   $0x0,-0x4(%rbp)
    ecea:	74 1c                	je     ed08 <main+0xa19>
    ecec:	8b 4d f8             	mov    -0x8(%rbp),%ecx
    ecef:	8b 55 f4             	mov    -0xc(%rbp),%edx
    ecf2:	8b 45 f0             	mov    -0x10(%rbp),%eax
    ecf5:	89 c6                	mov    %eax,%esi
    ecf7:	48 8d 3d e5 06 00 00 	lea    0x6e5(%rip),%rdi        # f3e3 <g_1028+0x383>
    ecfe:	b8 00 00 00 00       	mov    $0x0,%eax
    ed03:	e8 78 73 ff ff       	callq  6080 <printf@plt>
    ed08:	83 45 f8 01          	addl   $0x1,-0x8(%rbp)
    ed0c:	83 7d f8 00          	cmpl   $0x0,-0x8(%rbp)
    ed10:	7e 8a                	jle    ec9c <main+0x9ad>
    ed12:	83 45 f4 01          	addl   $0x1,-0xc(%rbp)
    ed16:	83 7d f4 05          	cmpl   $0x5,-0xc(%rbp)
    ed1a:	0f 8e 73 ff ff ff    	jle    ec93 <main+0x9a4>
    ed20:	83 45 f0 01          	addl   $0x1,-0x10(%rbp)
    ed24:	83 7d f0 01          	cmpl   $0x1,-0x10(%rbp)
    ed28:	0f 8e 59 ff ff ff    	jle    ec87 <main+0x998>
    ed2e:	0f b7 05 9b 3a 00 00 	movzwl 0x3a9b(%rip),%eax        # 127d0 <g_898>
    ed35:	c1 e0 05             	shl    $0x5,%eax
    ed38:	66 c1 f8 05          	sar    $0x5,%ax
    ed3c:	48 0f bf c0          	movswq %ax,%rax
    ed40:	8b 55 fc             	mov    -0x4(%rbp),%edx
    ed43:	48 8d 35 c3 07 00 00 	lea    0x7c3(%rip),%rsi        # f50d <g_1028+0x4ad>
    ed4a:	48 89 c7             	mov    %rax,%rdi
    ed4d:	e8 a1 89 ff ff       	callq  76f3 <transparent_crc>
    ed52:	0f b6 05 7b 3a 00 00 	movzbl 0x3a7b(%rip),%eax        # 127d4 <g_938>
    ed59:	48 0f be c0          	movsbq %al,%rax
    ed5d:	8b 55 fc             	mov    -0x4(%rbp),%edx
    ed60:	48 8d 35 af 07 00 00 	lea    0x7af(%rip),%rsi        # f516 <g_1028+0x4b6>
    ed67:	48 89 c7             	mov    %rax,%rdi
    ed6a:	e8 84 89 ff ff       	callq  76f3 <transparent_crc>
    ed6f:	b8 43 5e 8a cf       	mov    $0xcf8a5e43,%eax
    ed74:	48 98                	cltq   
    ed76:	8b 55 fc             	mov    -0x4(%rbp),%edx
    ed79:	48 8d 35 9c 07 00 00 	lea    0x79c(%rip),%rsi        # f51c <g_1028+0x4bc>
    ed80:	48 89 c7             	mov    %rax,%rdi
    ed83:	e8 6b 89 ff ff       	callq  76f3 <transparent_crc>
    ed88:	c7 45 f0 00 00 00 00 	movl   $0x0,-0x10(%rbp)
    ed8f:	e9 ac 00 00 00       	jmpq   ee40 <main+0xb51>
    ed94:	c7 45 f4 00 00 00 00 	movl   $0x0,-0xc(%rbp)
    ed9b:	e9 92 00 00 00       	jmpq   ee32 <main+0xb43>
    eda0:	c7 45 f8 00 00 00 00 	movl   $0x0,-0x8(%rbp)
    eda7:	eb 7b                	jmp    ee24 <main+0xb35>
    eda9:	8b 45 f8             	mov    -0x8(%rbp),%eax
    edac:	48 63 f0             	movslq %eax,%rsi
    edaf:	8b 45 f4             	mov    -0xc(%rbp),%eax
    edb2:	48 63 c8             	movslq %eax,%rcx
    edb5:	8b 45 f0             	mov    -0x10(%rbp),%eax
    edb8:	48 63 d0             	movslq %eax,%rdx
    edbb:	48 89 d0             	mov    %rdx,%rax
    edbe:	48 c1 e0 02          	shl    $0x2,%rax
    edc2:	48 01 d0             	add    %rdx,%rax
    edc5:	48 01 c0             	add    %rax,%rax
    edc8:	48 01 f0             	add    %rsi,%rax
    edcb:	48 01 c8             	add    %rcx,%rax
    edce:	48 8d 14 85 00 00 00 	lea    0x0(,%rax,4),%rdx
    edd5:	00 
    edd6:	48 8d 05 03 3a 00 00 	lea    0x3a03(%rip),%rax        # 127e0 <g_1037>
    eddd:	0f b7 04 02          	movzwl (%rdx,%rax,1),%eax
    ede1:	c1 e0 05             	shl    $0x5,%eax
    ede4:	66 c1 f8 05          	sar    $0x5,%ax
    ede8:	48 0f bf c0          	movswq %ax,%rax
    edec:	8b 55 fc             	mov    -0x4(%rbp),%edx
    edef:	48 8d 35 2d 07 00 00 	lea    0x72d(%rip),%rsi        # f523 <g_1028+0x4c3>
    edf6:	48 89 c7             	mov    %rax,%rdi
    edf9:	e8 f5 88 ff ff       	callq  76f3 <transparent_crc>
    edfe:	83 7d fc 00          	cmpl   $0x0,-0x4(%rbp)
    ee02:	74 1c                	je     ee20 <main+0xb31>
    ee04:	8b 4d f8             	mov    -0x8(%rbp),%ecx
    ee07:	8b 55 f4             	mov    -0xc(%rbp),%edx
    ee0a:	8b 45 f0             	mov    -0x10(%rbp),%eax
    ee0d:	89 c6                	mov    %eax,%esi
    ee0f:	48 8d 3d cd 05 00 00 	lea    0x5cd(%rip),%rdi        # f3e3 <g_1028+0x383>
    ee16:	b8 00 00 00 00       	mov    $0x0,%eax
    ee1b:	e8 60 72 ff ff       	callq  6080 <printf@plt>
    ee20:	83 45 f8 01          	addl   $0x1,-0x8(%rbp)
    ee24:	83 7d f8 00          	cmpl   $0x0,-0x8(%rbp)
    ee28:	0f 8e 7b ff ff ff    	jle    eda9 <main+0xaba>
    ee2e:	83 45 f4 01          	addl   $0x1,-0xc(%rbp)
    ee32:	83 7d f4 09          	cmpl   $0x9,-0xc(%rbp)
    ee36:	0f 8e 64 ff ff ff    	jle    eda0 <main+0xab1>
    ee3c:	83 45 f0 01          	addl   $0x1,-0x10(%rbp)
    ee40:	83 7d f0 01          	cmpl   $0x1,-0x10(%rbp)
    ee44:	0f 8e 4a ff ff ff    	jle    ed94 <main+0xaa5>
    ee4a:	8b 05 e0 39 00 00    	mov    0x39e0(%rip),%eax        # 12830 <g_1120>
    ee50:	48 98                	cltq   
    ee52:	8b 55 fc             	mov    -0x4(%rbp),%edx
    ee55:	48 8d 35 da 06 00 00 	lea    0x6da(%rip),%rsi        # f536 <g_1028+0x4d6>
    ee5c:	48 89 c7             	mov    %rax,%rdi
    ee5f:	e8 8f 88 ff ff       	callq  76f3 <transparent_crc>
    ee64:	8b 05 ca 39 00 00    	mov    0x39ca(%rip),%eax        # 12834 <g_1164>
    ee6a:	c1 e0 05             	shl    $0x5,%eax
    ee6d:	66 c1 f8 05          	sar    $0x5,%ax
    ee71:	48 0f bf c0          	movswq %ax,%rax
    ee75:	8b 55 fc             	mov    -0x4(%rbp),%edx
    ee78:	48 8d 35 be 06 00 00 	lea    0x6be(%rip),%rsi        # f53d <g_1028+0x4dd>
    ee7f:	48 89 c7             	mov    %rax,%rdi
    ee82:	e8 6c 88 ff ff       	callq  76f3 <transparent_crc>
    ee87:	0f b7 05 aa 39 00 00 	movzwl 0x39aa(%rip),%eax        # 12838 <g_1165>
    ee8e:	c1 e0 05             	shl    $0x5,%eax
    ee91:	66 c1 f8 05          	sar    $0x5,%ax
    ee95:	48 0f bf c0          	movswq %ax,%rax
    ee99:	8b 55 fc             	mov    -0x4(%rbp),%edx
    ee9c:	48 8d 35 a4 06 00 00 	lea    0x6a4(%rip),%rsi        # f547 <g_1028+0x4e7>
    eea3:	48 89 c7             	mov    %rax,%rdi
    eea6:	e8 48 88 ff ff       	callq  76f3 <transparent_crc>
    eeab:	8b 05 8b 39 00 00    	mov    0x398b(%rip),%eax        # 1283c <g_1184>
    eeb1:	c1 e0 05             	shl    $0x5,%eax
    eeb4:	66 c1 f8 05          	sar    $0x5,%ax
    eeb8:	48 0f bf c0          	movswq %ax,%rax
    eebc:	8b 55 fc             	mov    -0x4(%rbp),%edx
    eebf:	48 8d 35 8b 06 00 00 	lea    0x68b(%rip),%rsi        # f551 <g_1028+0x4f1>
    eec6:	48 89 c7             	mov    %rax,%rdi
    eec9:	e8 25 88 ff ff       	callq  76f3 <transparent_crc>
    eece:	8b 05 4c 31 00 00    	mov    0x314c(%rip),%eax        # 12020 <crc32_context>
    eed4:	f7 d0                	not    %eax
    eed6:	89 c2                	mov    %eax,%edx
    eed8:	8b 45 fc             	mov    -0x4(%rbp),%eax
    eedb:	89 c6                	mov    %eax,%esi
    eedd:	89 d7                	mov    %edx,%edi
    eedf:	e8 b0 72 ff ff       	callq  6194 <platform_main_end>
    eee4:	b8 00 00 00 00       	mov    $0x0,%eax
    eee9:	c9                   	leaveq 
    eeea:	c3                   	retq   
    eeeb:	0f 1f 44 00 00       	nopl   0x0(%rax,%rax,1)

000000000000eef0 <__libc_csu_init>:
    eef0:	f3 0f 1e fa          	endbr64 
    eef4:	41 57                	push   %r15
    eef6:	4c 8d 3d 93 2e 00 00 	lea    0x2e93(%rip),%r15        # 11d90 <__frame_dummy_init_array_entry>
    eefd:	41 56                	push   %r14
    eeff:	49 89 d6             	mov    %rdx,%r14
    ef02:	41 55                	push   %r13
    ef04:	49 89 f5             	mov    %rsi,%r13
    ef07:	41 54                	push   %r12
    ef09:	41 89 fc             	mov    %edi,%r12d
    ef0c:	55                   	push   %rbp
    ef0d:	48 8d 2d 84 2e 00 00 	lea    0x2e84(%rip),%rbp        # 11d98 <__do_global_dtors_aux_fini_array_entry>
    ef14:	53                   	push   %rbx
    ef15:	4c 29 fd             	sub    %r15,%rbp
    ef18:	48 83 ec 08          	sub    $0x8,%rsp
    ef1c:	e8 df 70 ff ff       	callq  6000 <_init>
    ef21:	48 c1 fd 03          	sar    $0x3,%rbp
    ef25:	74 1f                	je     ef46 <__libc_csu_init+0x56>
    ef27:	31 db                	xor    %ebx,%ebx
    ef29:	0f 1f 80 00 00 00 00 	nopl   0x0(%rax)
    ef30:	4c 89 f2             	mov    %r14,%rdx
    ef33:	4c 89 ee             	mov    %r13,%rsi
    ef36:	44 89 e7             	mov    %r12d,%edi
    ef39:	41 ff 14 df          	callq  *(%r15,%rbx,8)
    ef3d:	48 83 c3 01          	add    $0x1,%rbx
    ef41:	48 39 dd             	cmp    %rbx,%rbp
    ef44:	75 ea                	jne    ef30 <__libc_csu_init+0x40>
    ef46:	48 83 c4 08          	add    $0x8,%rsp
    ef4a:	5b                   	pop    %rbx
    ef4b:	5d                   	pop    %rbp
    ef4c:	41 5c                	pop    %r12
    ef4e:	41 5d                	pop    %r13
    ef50:	41 5e                	pop    %r14
    ef52:	41 5f                	pop    %r15
    ef54:	c3                   	retq   
    ef55:	66 66 2e 0f 1f 84 00 	data16 nopw %cs:0x0(%rax,%rax,1)
    ef5c:	00 00 00 00 

000000000000ef60 <__libc_csu_fini>:
    ef60:	f3 0f 1e fa          	endbr64 
    ef64:	c3                   	retq   
