


Disassembly of section .text:

000000000000b0a0 <_start>:
    b0a0:	f3 0f 1e fa          	endbr64 
    b0a4:	31 ed                	xor    %ebp,%ebp
    b0a6:	49 89 d1             	mov    %rdx,%r9
    b0a9:	5e                   	pop    %rsi
    b0aa:	48 89 e2             	mov    %rsp,%rdx
    b0ad:	48 83 e4 f0          	and    $0xfffffffffffffff0,%rsp
    b0b1:	50                   	push   %rax
    b0b2:	54                   	push   %rsp
    b0b3:	4c 8d 05 06 1a 01 00 	lea    0x11a06(%rip),%r8        # 1cac0 <__libc_csu_fini>
    b0ba:	48 8d 0d 8f 19 01 00 	lea    0x1198f(%rip),%rcx        # 1ca50 <__libc_csu_init>
    b0c1:	48 8d 3d b9 10 01 00 	lea    0x110b9(%rip),%rdi        # 1c181 <main>
    b0c8:	ff 15 fa 7e 01 00    	callq  *0x17efa(%rip)        # 22fc8 <__libc_start_main@GLIBC_2.2.5>
    b0ce:	f4                   	hlt    
    b0cf:	90                   	nop

000000000000b0d0 <deregister_tm_clones>:
    b0d0:	48 8d 3d c9 c8 01 00 	lea    0x1c8c9(%rip),%rdi        # 279a0 <__TMC_END__>
    b0d7:	48 8d 05 c2 c8 01 00 	lea    0x1c8c2(%rip),%rax        # 279a0 <__TMC_END__>
    b0de:	48 39 f8             	cmp    %rdi,%rax
    b0e1:	74 15                	je     b0f8 <deregister_tm_clones+0x28>
    b0e3:	48 8b 05 d6 7e 01 00 	mov    0x17ed6(%rip),%rax        # 22fc0 <_ITM_deregisterTMCloneTable>
    b0ea:	48 85 c0             	test   %rax,%rax
    b0ed:	74 09                	je     b0f8 <deregister_tm_clones+0x28>
    b0ef:	ff e0                	jmpq   *%rax
    b0f1:	0f 1f 80 00 00 00 00 	nopl   0x0(%rax)
    b0f8:	c3                   	retq   
    b0f9:	0f 1f 80 00 00 00 00 	nopl   0x0(%rax)

000000000000b100 <register_tm_clones>:
    b100:	48 8d 3d 99 c8 01 00 	lea    0x1c899(%rip),%rdi        # 279a0 <__TMC_END__>
    b107:	48 8d 35 92 c8 01 00 	lea    0x1c892(%rip),%rsi        # 279a0 <__TMC_END__>
    b10e:	48 29 fe             	sub    %rdi,%rsi
    b111:	48 89 f0             	mov    %rsi,%rax
    b114:	48 c1 ee 3f          	shr    $0x3f,%rsi
    b118:	48 c1 f8 03          	sar    $0x3,%rax
    b11c:	48 01 c6             	add    %rax,%rsi
    b11f:	48 d1 fe             	sar    %rsi
    b122:	74 14                	je     b138 <register_tm_clones+0x38>
    b124:	48 8b 05 ad 7e 01 00 	mov    0x17ead(%rip),%rax        # 22fd8 <_ITM_registerTMCloneTable>
    b12b:	48 85 c0             	test   %rax,%rax
    b12e:	74 08                	je     b138 <register_tm_clones+0x38>
    b130:	ff e0                	jmpq   *%rax
    b132:	66 0f 1f 44 00 00    	nopw   0x0(%rax,%rax,1)
    b138:	c3                   	retq   
    b139:	0f 1f 80 00 00 00 00 	nopl   0x0(%rax)

000000000000b140 <__do_global_dtors_aux>:
    b140:	f3 0f 1e fa          	endbr64 
    b144:	80 3d 55 c8 01 00 00 	cmpb   $0x0,0x1c855(%rip)        # 279a0 <__TMC_END__>
    b14b:	75 2b                	jne    b178 <__do_global_dtors_aux+0x38>
    b14d:	55                   	push   %rbp
    b14e:	48 83 3d 8a 7e 01 00 	cmpq   $0x0,0x17e8a(%rip)        # 22fe0 <__cxa_finalize@GLIBC_2.2.5>
    b155:	00 
    b156:	48 89 e5             	mov    %rsp,%rbp
    b159:	74 0c                	je     b167 <__do_global_dtors_aux+0x27>
    b15b:	48 8b 3d a6 7e 01 00 	mov    0x17ea6(%rip),%rdi        # 23008 <__dso_handle>
    b162:	e8 f9 fe ff ff       	callq  b060 <__cxa_finalize@plt>
    b167:	e8 64 ff ff ff       	callq  b0d0 <deregister_tm_clones>
    b16c:	c6 05 2d c8 01 00 01 	movb   $0x1,0x1c82d(%rip)        # 279a0 <__TMC_END__>
    b173:	5d                   	pop    %rbp
    b174:	c3                   	retq   
    b175:	0f 1f 00             	nopl   (%rax)
    b178:	c3                   	retq   
    b179:	0f 1f 80 00 00 00 00 	nopl   0x0(%rax)

000000000000b180 <frame_dummy>:
    b180:	f3 0f 1e fa          	endbr64 
    b184:	e9 77 ff ff ff       	jmpq   b100 <register_tm_clones>

000000000000b189 <platform_main_begin>:
    b189:	f3 0f 1e fa          	endbr64 
    b18d:	55                   	push   %rbp
    b18e:	48 89 e5             	mov    %rsp,%rbp
    b191:	90                   	nop
    b192:	5d                   	pop    %rbp
    b193:	c3                   	retq   

000000000000b194 <platform_main_end>:
    b194:	f3 0f 1e fa          	endbr64 
    b198:	55                   	push   %rbp
    b199:	48 89 e5             	mov    %rsp,%rbp
    b19c:	48 83 ec 10          	sub    $0x10,%rsp
    b1a0:	89 7d fc             	mov    %edi,-0x4(%rbp)
    b1a3:	89 75 f8             	mov    %esi,-0x8(%rbp)
    b1a6:	8b 45 fc             	mov    -0x4(%rbp),%eax
    b1a9:	89 c6                	mov    %eax,%esi
    b1ab:	48 8d 3d 6e 1e 01 00 	lea    0x11e6e(%rip),%rdi        # 1d020 <_IO_stdin_used+0x20>
    b1b2:	b8 00 00 00 00       	mov    $0x0,%eax
    b1b7:	e8 c4 fe ff ff       	callq  b080 <printf@plt>
    b1bc:	90                   	nop
    b1bd:	c9                   	leaveq 
    b1be:	c3                   	retq   

000000000000b1bf <safe_unary_minus_func_int8_t_s>:
    b1bf:	f3 0f 1e fa          	endbr64 
    b1c3:	55                   	push   %rbp
    b1c4:	48 89 e5             	mov    %rsp,%rbp
    b1c7:	89 f8                	mov    %edi,%eax
    b1c9:	88 45 fc             	mov    %al,-0x4(%rbp)
    b1cc:	0f b6 45 fc          	movzbl -0x4(%rbp),%eax
    b1d0:	f7 d8                	neg    %eax
    b1d2:	5d                   	pop    %rbp
    b1d3:	c3                   	retq   

000000000000b1d4 <safe_add_func_int8_t_s_s>:
    b1d4:	f3 0f 1e fa          	endbr64 
    b1d8:	55                   	push   %rbp
    b1d9:	48 89 e5             	mov    %rsp,%rbp
    b1dc:	89 fa                	mov    %edi,%edx
    b1de:	89 f0                	mov    %esi,%eax
    b1e0:	88 55 fc             	mov    %dl,-0x4(%rbp)
    b1e3:	88 45 f8             	mov    %al,-0x8(%rbp)
    b1e6:	0f b6 55 fc          	movzbl -0x4(%rbp),%edx
    b1ea:	0f b6 45 f8          	movzbl -0x8(%rbp),%eax
    b1ee:	01 d0                	add    %edx,%eax
    b1f0:	5d                   	pop    %rbp
    b1f1:	c3                   	retq   

000000000000b1f2 <safe_sub_func_int8_t_s_s>:
    b1f2:	f3 0f 1e fa          	endbr64 
    b1f6:	55                   	push   %rbp
    b1f7:	48 89 e5             	mov    %rsp,%rbp
    b1fa:	89 fa                	mov    %edi,%edx
    b1fc:	89 f0                	mov    %esi,%eax
    b1fe:	88 55 fc             	mov    %dl,-0x4(%rbp)
    b201:	88 45 f8             	mov    %al,-0x8(%rbp)
    b204:	0f b6 55 fc          	movzbl -0x4(%rbp),%edx
    b208:	0f b6 45 f8          	movzbl -0x8(%rbp),%eax
    b20c:	29 c2                	sub    %eax,%edx
    b20e:	89 d0                	mov    %edx,%eax
    b210:	5d                   	pop    %rbp
    b211:	c3                   	retq   

000000000000b212 <safe_mul_func_int8_t_s_s>:
    b212:	f3 0f 1e fa          	endbr64 
    b216:	55                   	push   %rbp
    b217:	48 89 e5             	mov    %rsp,%rbp
    b21a:	89 fa                	mov    %edi,%edx
    b21c:	89 f0                	mov    %esi,%eax
    b21e:	88 55 fc             	mov    %dl,-0x4(%rbp)
    b221:	88 45 f8             	mov    %al,-0x8(%rbp)
    b224:	0f b6 45 fc          	movzbl -0x4(%rbp),%eax
    b228:	0f b6 55 f8          	movzbl -0x8(%rbp),%edx
    b22c:	0f af c2             	imul   %edx,%eax
    b22f:	5d                   	pop    %rbp
    b230:	c3                   	retq   

000000000000b231 <safe_mod_func_int8_t_s_s>:
    b231:	f3 0f 1e fa          	endbr64 
    b235:	55                   	push   %rbp
    b236:	48 89 e5             	mov    %rsp,%rbp
    b239:	89 fa                	mov    %edi,%edx
    b23b:	89 f0                	mov    %esi,%eax
    b23d:	88 55 fc             	mov    %dl,-0x4(%rbp)
    b240:	88 45 f8             	mov    %al,-0x8(%rbp)
    b243:	80 7d f8 00          	cmpb   $0x0,-0x8(%rbp)
    b247:	74 1b                	je     b264 <safe_mod_func_int8_t_s_s+0x33>
    b249:	80 7d fc 80          	cmpb   $0x80,-0x4(%rbp)
    b24d:	75 06                	jne    b255 <safe_mod_func_int8_t_s_s+0x24>
    b24f:	80 7d f8 ff          	cmpb   $0xff,-0x8(%rbp)
    b253:	74 0f                	je     b264 <safe_mod_func_int8_t_s_s+0x33>
    b255:	0f be 45 fc          	movsbl -0x4(%rbp),%eax
    b259:	0f be 4d f8          	movsbl -0x8(%rbp),%ecx
    b25d:	99                   	cltd   
    b25e:	f7 f9                	idiv   %ecx
    b260:	89 d0                	mov    %edx,%eax
    b262:	eb 04                	jmp    b268 <safe_mod_func_int8_t_s_s+0x37>
    b264:	0f b6 45 fc          	movzbl -0x4(%rbp),%eax
    b268:	5d                   	pop    %rbp
    b269:	c3                   	retq   

000000000000b26a <safe_div_func_int8_t_s_s>:
    b26a:	f3 0f 1e fa          	endbr64 
    b26e:	55                   	push   %rbp
    b26f:	48 89 e5             	mov    %rsp,%rbp
    b272:	89 fa                	mov    %edi,%edx
    b274:	89 f0                	mov    %esi,%eax
    b276:	88 55 fc             	mov    %dl,-0x4(%rbp)
    b279:	88 45 f8             	mov    %al,-0x8(%rbp)
    b27c:	80 7d f8 00          	cmpb   $0x0,-0x8(%rbp)
    b280:	74 19                	je     b29b <safe_div_func_int8_t_s_s+0x31>
    b282:	80 7d fc 80          	cmpb   $0x80,-0x4(%rbp)
    b286:	75 06                	jne    b28e <safe_div_func_int8_t_s_s+0x24>
    b288:	80 7d f8 ff          	cmpb   $0xff,-0x8(%rbp)
    b28c:	74 0d                	je     b29b <safe_div_func_int8_t_s_s+0x31>
    b28e:	0f be 45 fc          	movsbl -0x4(%rbp),%eax
    b292:	0f be 4d f8          	movsbl -0x8(%rbp),%ecx
    b296:	99                   	cltd   
    b297:	f7 f9                	idiv   %ecx
    b299:	eb 04                	jmp    b29f <safe_div_func_int8_t_s_s+0x35>
    b29b:	0f b6 45 fc          	movzbl -0x4(%rbp),%eax
    b29f:	5d                   	pop    %rbp
    b2a0:	c3                   	retq   

000000000000b2a1 <safe_lshift_func_int8_t_s_s>:
    b2a1:	f3 0f 1e fa          	endbr64 
    b2a5:	55                   	push   %rbp
    b2a6:	48 89 e5             	mov    %rsp,%rbp
    b2a9:	89 f8                	mov    %edi,%eax
    b2ab:	89 75 f8             	mov    %esi,-0x8(%rbp)
    b2ae:	88 45 fc             	mov    %al,-0x4(%rbp)
    b2b1:	80 7d fc 00          	cmpb   $0x0,-0x4(%rbp)
    b2b5:	78 31                	js     b2e8 <safe_lshift_func_int8_t_s_s+0x47>
    b2b7:	83 7d f8 00          	cmpl   $0x0,-0x8(%rbp)
    b2bb:	78 2b                	js     b2e8 <safe_lshift_func_int8_t_s_s+0x47>
    b2bd:	83 7d f8 1f          	cmpl   $0x1f,-0x8(%rbp)
    b2c1:	7f 25                	jg     b2e8 <safe_lshift_func_int8_t_s_s+0x47>
    b2c3:	0f be 55 fc          	movsbl -0x4(%rbp),%edx
    b2c7:	8b 45 f8             	mov    -0x8(%rbp),%eax
    b2ca:	be 7f 00 00 00       	mov    $0x7f,%esi
    b2cf:	89 c1                	mov    %eax,%ecx
    b2d1:	d3 fe                	sar    %cl,%esi
    b2d3:	89 f0                	mov    %esi,%eax
    b2d5:	39 c2                	cmp    %eax,%edx
    b2d7:	7f 0f                	jg     b2e8 <safe_lshift_func_int8_t_s_s+0x47>
    b2d9:	0f be 55 fc          	movsbl -0x4(%rbp),%edx
    b2dd:	8b 45 f8             	mov    -0x8(%rbp),%eax
    b2e0:	89 c1                	mov    %eax,%ecx
    b2e2:	d3 e2                	shl    %cl,%edx
    b2e4:	89 d0                	mov    %edx,%eax
    b2e6:	eb 04                	jmp    b2ec <safe_lshift_func_int8_t_s_s+0x4b>
    b2e8:	0f b6 45 fc          	movzbl -0x4(%rbp),%eax
    b2ec:	5d                   	pop    %rbp
    b2ed:	c3                   	retq   

000000000000b2ee <safe_lshift_func_int8_t_s_u>:
    b2ee:	f3 0f 1e fa          	endbr64 
    b2f2:	55                   	push   %rbp
    b2f3:	48 89 e5             	mov    %rsp,%rbp
    b2f6:	89 f8                	mov    %edi,%eax
    b2f8:	89 75 f8             	mov    %esi,-0x8(%rbp)
    b2fb:	88 45 fc             	mov    %al,-0x4(%rbp)
    b2fe:	80 7d fc 00          	cmpb   $0x0,-0x4(%rbp)
    b302:	78 2b                	js     b32f <safe_lshift_func_int8_t_s_u+0x41>
    b304:	83 7d f8 1f          	cmpl   $0x1f,-0x8(%rbp)
    b308:	77 25                	ja     b32f <safe_lshift_func_int8_t_s_u+0x41>
    b30a:	0f be 55 fc          	movsbl -0x4(%rbp),%edx
    b30e:	8b 45 f8             	mov    -0x8(%rbp),%eax
    b311:	be 7f 00 00 00       	mov    $0x7f,%esi
    b316:	89 c1                	mov    %eax,%ecx
    b318:	d3 fe                	sar    %cl,%esi
    b31a:	89 f0                	mov    %esi,%eax
    b31c:	39 c2                	cmp    %eax,%edx
    b31e:	7f 0f                	jg     b32f <safe_lshift_func_int8_t_s_u+0x41>
    b320:	0f be 55 fc          	movsbl -0x4(%rbp),%edx
    b324:	8b 45 f8             	mov    -0x8(%rbp),%eax
    b327:	89 c1                	mov    %eax,%ecx
    b329:	d3 e2                	shl    %cl,%edx
    b32b:	89 d0                	mov    %edx,%eax
    b32d:	eb 04                	jmp    b333 <safe_lshift_func_int8_t_s_u+0x45>
    b32f:	0f b6 45 fc          	movzbl -0x4(%rbp),%eax
    b333:	5d                   	pop    %rbp
    b334:	c3                   	retq   

000000000000b335 <safe_rshift_func_int8_t_s_s>:
    b335:	f3 0f 1e fa          	endbr64 
    b339:	55                   	push   %rbp
    b33a:	48 89 e5             	mov    %rsp,%rbp
    b33d:	89 f8                	mov    %edi,%eax
    b33f:	89 75 f8             	mov    %esi,-0x8(%rbp)
    b342:	88 45 fc             	mov    %al,-0x4(%rbp)
    b345:	80 7d fc 00          	cmpb   $0x0,-0x4(%rbp)
    b349:	78 1b                	js     b366 <safe_rshift_func_int8_t_s_s+0x31>
    b34b:	83 7d f8 00          	cmpl   $0x0,-0x8(%rbp)
    b34f:	78 15                	js     b366 <safe_rshift_func_int8_t_s_s+0x31>
    b351:	83 7d f8 1f          	cmpl   $0x1f,-0x8(%rbp)
    b355:	7f 0f                	jg     b366 <safe_rshift_func_int8_t_s_s+0x31>
    b357:	0f be 55 fc          	movsbl -0x4(%rbp),%edx
    b35b:	8b 45 f8             	mov    -0x8(%rbp),%eax
    b35e:	89 c1                	mov    %eax,%ecx
    b360:	d3 fa                	sar    %cl,%edx
    b362:	89 d0                	mov    %edx,%eax
    b364:	eb 04                	jmp    b36a <safe_rshift_func_int8_t_s_s+0x35>
    b366:	0f b6 45 fc          	movzbl -0x4(%rbp),%eax
    b36a:	5d                   	pop    %rbp
    b36b:	c3                   	retq   

000000000000b36c <safe_rshift_func_int8_t_s_u>:
    b36c:	f3 0f 1e fa          	endbr64 
    b370:	55                   	push   %rbp
    b371:	48 89 e5             	mov    %rsp,%rbp
    b374:	89 f8                	mov    %edi,%eax
    b376:	89 75 f8             	mov    %esi,-0x8(%rbp)
    b379:	88 45 fc             	mov    %al,-0x4(%rbp)
    b37c:	80 7d fc 00          	cmpb   $0x0,-0x4(%rbp)
    b380:	78 15                	js     b397 <safe_rshift_func_int8_t_s_u+0x2b>
    b382:	83 7d f8 1f          	cmpl   $0x1f,-0x8(%rbp)
    b386:	77 0f                	ja     b397 <safe_rshift_func_int8_t_s_u+0x2b>
    b388:	0f be 55 fc          	movsbl -0x4(%rbp),%edx
    b38c:	8b 45 f8             	mov    -0x8(%rbp),%eax
    b38f:	89 c1                	mov    %eax,%ecx
    b391:	d3 fa                	sar    %cl,%edx
    b393:	89 d0                	mov    %edx,%eax
    b395:	eb 04                	jmp    b39b <safe_rshift_func_int8_t_s_u+0x2f>
    b397:	0f b6 45 fc          	movzbl -0x4(%rbp),%eax
    b39b:	5d                   	pop    %rbp
    b39c:	c3                   	retq   

000000000000b39d <safe_unary_minus_func_int16_t_s>:
    b39d:	f3 0f 1e fa          	endbr64 
    b3a1:	55                   	push   %rbp
    b3a2:	48 89 e5             	mov    %rsp,%rbp
    b3a5:	89 f8                	mov    %edi,%eax
    b3a7:	66 89 45 fc          	mov    %ax,-0x4(%rbp)
    b3ab:	0f b7 45 fc          	movzwl -0x4(%rbp),%eax
    b3af:	f7 d8                	neg    %eax
    b3b1:	5d                   	pop    %rbp
    b3b2:	c3                   	retq   

000000000000b3b3 <safe_add_func_int16_t_s_s>:
    b3b3:	f3 0f 1e fa          	endbr64 
    b3b7:	55                   	push   %rbp
    b3b8:	48 89 e5             	mov    %rsp,%rbp
    b3bb:	89 fa                	mov    %edi,%edx
    b3bd:	89 f0                	mov    %esi,%eax
    b3bf:	66 89 55 fc          	mov    %dx,-0x4(%rbp)
    b3c3:	66 89 45 f8          	mov    %ax,-0x8(%rbp)
    b3c7:	0f b7 55 fc          	movzwl -0x4(%rbp),%edx
    b3cb:	0f b7 45 f8          	movzwl -0x8(%rbp),%eax
    b3cf:	01 d0                	add    %edx,%eax
    b3d1:	5d                   	pop    %rbp
    b3d2:	c3                   	retq   

000000000000b3d3 <safe_sub_func_int16_t_s_s>:
    b3d3:	f3 0f 1e fa          	endbr64 
    b3d7:	55                   	push   %rbp
    b3d8:	48 89 e5             	mov    %rsp,%rbp
    b3db:	89 fa                	mov    %edi,%edx
    b3dd:	89 f0                	mov    %esi,%eax
    b3df:	66 89 55 fc          	mov    %dx,-0x4(%rbp)
    b3e3:	66 89 45 f8          	mov    %ax,-0x8(%rbp)
    b3e7:	0f b7 55 fc          	movzwl -0x4(%rbp),%edx
    b3eb:	0f b7 45 f8          	movzwl -0x8(%rbp),%eax
    b3ef:	29 c2                	sub    %eax,%edx
    b3f1:	89 d0                	mov    %edx,%eax
    b3f3:	5d                   	pop    %rbp
    b3f4:	c3                   	retq   

000000000000b3f5 <safe_mul_func_int16_t_s_s>:
    b3f5:	f3 0f 1e fa          	endbr64 
    b3f9:	55                   	push   %rbp
    b3fa:	48 89 e5             	mov    %rsp,%rbp
    b3fd:	89 fa                	mov    %edi,%edx
    b3ff:	89 f0                	mov    %esi,%eax
    b401:	66 89 55 fc          	mov    %dx,-0x4(%rbp)
    b405:	66 89 45 f8          	mov    %ax,-0x8(%rbp)
    b409:	0f b7 55 fc          	movzwl -0x4(%rbp),%edx
    b40d:	0f b7 45 f8          	movzwl -0x8(%rbp),%eax
    b411:	0f af c2             	imul   %edx,%eax
    b414:	5d                   	pop    %rbp
    b415:	c3                   	retq   

000000000000b416 <safe_mod_func_int16_t_s_s>:
    b416:	f3 0f 1e fa          	endbr64 
    b41a:	55                   	push   %rbp
    b41b:	48 89 e5             	mov    %rsp,%rbp
    b41e:	89 fa                	mov    %edi,%edx
    b420:	89 f0                	mov    %esi,%eax
    b422:	66 89 55 fc          	mov    %dx,-0x4(%rbp)
    b426:	66 89 45 f8          	mov    %ax,-0x8(%rbp)
    b42a:	66 83 7d f8 00       	cmpw   $0x0,-0x8(%rbp)
    b42f:	74 1e                	je     b44f <safe_mod_func_int16_t_s_s+0x39>
    b431:	66 81 7d fc 00 80    	cmpw   $0x8000,-0x4(%rbp)
    b437:	75 07                	jne    b440 <safe_mod_func_int16_t_s_s+0x2a>
    b439:	66 83 7d f8 ff       	cmpw   $0xffff,-0x8(%rbp)
    b43e:	74 0f                	je     b44f <safe_mod_func_int16_t_s_s+0x39>
    b440:	0f bf 45 fc          	movswl -0x4(%rbp),%eax
    b444:	0f bf 4d f8          	movswl -0x8(%rbp),%ecx
    b448:	99                   	cltd   
    b449:	f7 f9                	idiv   %ecx
    b44b:	89 d0                	mov    %edx,%eax
    b44d:	eb 04                	jmp    b453 <safe_mod_func_int16_t_s_s+0x3d>
    b44f:	0f b7 45 fc          	movzwl -0x4(%rbp),%eax
    b453:	5d                   	pop    %rbp
    b454:	c3                   	retq   

000000000000b455 <safe_div_func_int16_t_s_s>:
    b455:	f3 0f 1e fa          	endbr64 
    b459:	55                   	push   %rbp
    b45a:	48 89 e5             	mov    %rsp,%rbp
    b45d:	89 fa                	mov    %edi,%edx
    b45f:	89 f0                	mov    %esi,%eax
    b461:	66 89 55 fc          	mov    %dx,-0x4(%rbp)
    b465:	66 89 45 f8          	mov    %ax,-0x8(%rbp)
    b469:	66 83 7d f8 00       	cmpw   $0x0,-0x8(%rbp)
    b46e:	74 1c                	je     b48c <safe_div_func_int16_t_s_s+0x37>
    b470:	66 81 7d fc 00 80    	cmpw   $0x8000,-0x4(%rbp)
    b476:	75 07                	jne    b47f <safe_div_func_int16_t_s_s+0x2a>
    b478:	66 83 7d f8 ff       	cmpw   $0xffff,-0x8(%rbp)
    b47d:	74 0d                	je     b48c <safe_div_func_int16_t_s_s+0x37>
    b47f:	0f bf 45 fc          	movswl -0x4(%rbp),%eax
    b483:	0f bf 4d f8          	movswl -0x8(%rbp),%ecx
    b487:	99                   	cltd   
    b488:	f7 f9                	idiv   %ecx
    b48a:	eb 04                	jmp    b490 <safe_div_func_int16_t_s_s+0x3b>
    b48c:	0f b7 45 fc          	movzwl -0x4(%rbp),%eax
    b490:	5d                   	pop    %rbp
    b491:	c3                   	retq   

000000000000b492 <safe_lshift_func_int16_t_s_s>:
    b492:	f3 0f 1e fa          	endbr64 
    b496:	55                   	push   %rbp
    b497:	48 89 e5             	mov    %rsp,%rbp
    b49a:	89 f8                	mov    %edi,%eax
    b49c:	89 75 f8             	mov    %esi,-0x8(%rbp)
    b49f:	66 89 45 fc          	mov    %ax,-0x4(%rbp)
    b4a3:	66 83 7d fc 00       	cmpw   $0x0,-0x4(%rbp)
    b4a8:	78 31                	js     b4db <safe_lshift_func_int16_t_s_s+0x49>
    b4aa:	83 7d f8 00          	cmpl   $0x0,-0x8(%rbp)
    b4ae:	78 2b                	js     b4db <safe_lshift_func_int16_t_s_s+0x49>
    b4b0:	83 7d f8 1f          	cmpl   $0x1f,-0x8(%rbp)
    b4b4:	7f 25                	jg     b4db <safe_lshift_func_int16_t_s_s+0x49>
    b4b6:	0f bf 55 fc          	movswl -0x4(%rbp),%edx
    b4ba:	8b 45 f8             	mov    -0x8(%rbp),%eax
    b4bd:	be ff 7f 00 00       	mov    $0x7fff,%esi
    b4c2:	89 c1                	mov    %eax,%ecx
    b4c4:	d3 fe                	sar    %cl,%esi
    b4c6:	89 f0                	mov    %esi,%eax
    b4c8:	39 c2                	cmp    %eax,%edx
    b4ca:	7f 0f                	jg     b4db <safe_lshift_func_int16_t_s_s+0x49>
    b4cc:	0f bf 55 fc          	movswl -0x4(%rbp),%edx
    b4d0:	8b 45 f8             	mov    -0x8(%rbp),%eax
    b4d3:	89 c1                	mov    %eax,%ecx
    b4d5:	d3 e2                	shl    %cl,%edx
    b4d7:	89 d0                	mov    %edx,%eax
    b4d9:	eb 04                	jmp    b4df <safe_lshift_func_int16_t_s_s+0x4d>
    b4db:	0f b7 45 fc          	movzwl -0x4(%rbp),%eax
    b4df:	5d                   	pop    %rbp
    b4e0:	c3                   	retq   

000000000000b4e1 <safe_lshift_func_int16_t_s_u>:
    b4e1:	f3 0f 1e fa          	endbr64 
    b4e5:	55                   	push   %rbp
    b4e6:	48 89 e5             	mov    %rsp,%rbp
    b4e9:	89 f8                	mov    %edi,%eax
    b4eb:	89 75 f8             	mov    %esi,-0x8(%rbp)
    b4ee:	66 89 45 fc          	mov    %ax,-0x4(%rbp)
    b4f2:	66 83 7d fc 00       	cmpw   $0x0,-0x4(%rbp)
    b4f7:	78 2b                	js     b524 <safe_lshift_func_int16_t_s_u+0x43>
    b4f9:	83 7d f8 1f          	cmpl   $0x1f,-0x8(%rbp)
    b4fd:	77 25                	ja     b524 <safe_lshift_func_int16_t_s_u+0x43>
    b4ff:	0f bf 55 fc          	movswl -0x4(%rbp),%edx
    b503:	8b 45 f8             	mov    -0x8(%rbp),%eax
    b506:	be ff 7f 00 00       	mov    $0x7fff,%esi
    b50b:	89 c1                	mov    %eax,%ecx
    b50d:	d3 fe                	sar    %cl,%esi
    b50f:	89 f0                	mov    %esi,%eax
    b511:	39 c2                	cmp    %eax,%edx
    b513:	7f 0f                	jg     b524 <safe_lshift_func_int16_t_s_u+0x43>
    b515:	0f bf 55 fc          	movswl -0x4(%rbp),%edx
    b519:	8b 45 f8             	mov    -0x8(%rbp),%eax
    b51c:	89 c1                	mov    %eax,%ecx
    b51e:	d3 e2                	shl    %cl,%edx
    b520:	89 d0                	mov    %edx,%eax
    b522:	eb 04                	jmp    b528 <safe_lshift_func_int16_t_s_u+0x47>
    b524:	0f b7 45 fc          	movzwl -0x4(%rbp),%eax
    b528:	5d                   	pop    %rbp
    b529:	c3                   	retq   

000000000000b52a <safe_rshift_func_int16_t_s_s>:
    b52a:	f3 0f 1e fa          	endbr64 
    b52e:	55                   	push   %rbp
    b52f:	48 89 e5             	mov    %rsp,%rbp
    b532:	89 f8                	mov    %edi,%eax
    b534:	89 75 f8             	mov    %esi,-0x8(%rbp)
    b537:	66 89 45 fc          	mov    %ax,-0x4(%rbp)
    b53b:	66 83 7d fc 00       	cmpw   $0x0,-0x4(%rbp)
    b540:	78 1b                	js     b55d <safe_rshift_func_int16_t_s_s+0x33>
    b542:	83 7d f8 00          	cmpl   $0x0,-0x8(%rbp)
    b546:	78 15                	js     b55d <safe_rshift_func_int16_t_s_s+0x33>
    b548:	83 7d f8 1f          	cmpl   $0x1f,-0x8(%rbp)
    b54c:	7f 0f                	jg     b55d <safe_rshift_func_int16_t_s_s+0x33>
    b54e:	0f bf 55 fc          	movswl -0x4(%rbp),%edx
    b552:	8b 45 f8             	mov    -0x8(%rbp),%eax
    b555:	89 c1                	mov    %eax,%ecx
    b557:	d3 fa                	sar    %cl,%edx
    b559:	89 d0                	mov    %edx,%eax
    b55b:	eb 04                	jmp    b561 <safe_rshift_func_int16_t_s_s+0x37>
    b55d:	0f b7 45 fc          	movzwl -0x4(%rbp),%eax
    b561:	5d                   	pop    %rbp
    b562:	c3                   	retq   

000000000000b563 <safe_rshift_func_int16_t_s_u>:
    b563:	f3 0f 1e fa          	endbr64 
    b567:	55                   	push   %rbp
    b568:	48 89 e5             	mov    %rsp,%rbp
    b56b:	89 f8                	mov    %edi,%eax
    b56d:	89 75 f8             	mov    %esi,-0x8(%rbp)
    b570:	66 89 45 fc          	mov    %ax,-0x4(%rbp)
    b574:	66 83 7d fc 00       	cmpw   $0x0,-0x4(%rbp)
    b579:	78 15                	js     b590 <safe_rshift_func_int16_t_s_u+0x2d>
    b57b:	83 7d f8 1f          	cmpl   $0x1f,-0x8(%rbp)
    b57f:	77 0f                	ja     b590 <safe_rshift_func_int16_t_s_u+0x2d>
    b581:	0f bf 55 fc          	movswl -0x4(%rbp),%edx
    b585:	8b 45 f8             	mov    -0x8(%rbp),%eax
    b588:	89 c1                	mov    %eax,%ecx
    b58a:	d3 fa                	sar    %cl,%edx
    b58c:	89 d0                	mov    %edx,%eax
    b58e:	eb 04                	jmp    b594 <safe_rshift_func_int16_t_s_u+0x31>
    b590:	0f b7 45 fc          	movzwl -0x4(%rbp),%eax
    b594:	5d                   	pop    %rbp
    b595:	c3                   	retq   

000000000000b596 <safe_unary_minus_func_int32_t_s>:
    b596:	f3 0f 1e fa          	endbr64 
    b59a:	55                   	push   %rbp
    b59b:	48 89 e5             	mov    %rsp,%rbp
    b59e:	89 7d fc             	mov    %edi,-0x4(%rbp)
    b5a1:	81 7d fc 00 00 00 80 	cmpl   $0x80000000,-0x4(%rbp)
    b5a8:	74 07                	je     b5b1 <safe_unary_minus_func_int32_t_s+0x1b>
    b5aa:	8b 45 fc             	mov    -0x4(%rbp),%eax
    b5ad:	f7 d8                	neg    %eax
    b5af:	eb 03                	jmp    b5b4 <safe_unary_minus_func_int32_t_s+0x1e>
    b5b1:	8b 45 fc             	mov    -0x4(%rbp),%eax
    b5b4:	5d                   	pop    %rbp
    b5b5:	c3                   	retq   

000000000000b5b6 <safe_add_func_int32_t_s_s>:
    b5b6:	f3 0f 1e fa          	endbr64 
    b5ba:	55                   	push   %rbp
    b5bb:	48 89 e5             	mov    %rsp,%rbp
    b5be:	89 7d fc             	mov    %edi,-0x4(%rbp)
    b5c1:	89 75 f8             	mov    %esi,-0x8(%rbp)
    b5c4:	83 7d fc 00          	cmpl   $0x0,-0x4(%rbp)
    b5c8:	7e 13                	jle    b5dd <safe_add_func_int32_t_s_s+0x27>
    b5ca:	83 7d f8 00          	cmpl   $0x0,-0x8(%rbp)
    b5ce:	7e 0d                	jle    b5dd <safe_add_func_int32_t_s_s+0x27>
    b5d0:	b8 ff ff ff 7f       	mov    $0x7fffffff,%eax
    b5d5:	2b 45 f8             	sub    -0x8(%rbp),%eax
    b5d8:	39 45 fc             	cmp    %eax,-0x4(%rbp)
    b5db:	7f 23                	jg     b600 <safe_add_func_int32_t_s_s+0x4a>
    b5dd:	83 7d fc 00          	cmpl   $0x0,-0x4(%rbp)
    b5e1:	79 13                	jns    b5f6 <safe_add_func_int32_t_s_s+0x40>
    b5e3:	83 7d f8 00          	cmpl   $0x0,-0x8(%rbp)
    b5e7:	79 0d                	jns    b5f6 <safe_add_func_int32_t_s_s+0x40>
    b5e9:	b8 00 00 00 80       	mov    $0x80000000,%eax
    b5ee:	2b 45 f8             	sub    -0x8(%rbp),%eax
    b5f1:	39 45 fc             	cmp    %eax,-0x4(%rbp)
    b5f4:	7c 0a                	jl     b600 <safe_add_func_int32_t_s_s+0x4a>
    b5f6:	8b 55 fc             	mov    -0x4(%rbp),%edx
    b5f9:	8b 45 f8             	mov    -0x8(%rbp),%eax
    b5fc:	01 d0                	add    %edx,%eax
    b5fe:	eb 03                	jmp    b603 <safe_add_func_int32_t_s_s+0x4d>
    b600:	8b 45 fc             	mov    -0x4(%rbp),%eax
    b603:	5d                   	pop    %rbp
    b604:	c3                   	retq   

000000000000b605 <safe_sub_func_int32_t_s_s>:
    b605:	f3 0f 1e fa          	endbr64 
    b609:	55                   	push   %rbp
    b60a:	48 89 e5             	mov    %rsp,%rbp
    b60d:	89 7d fc             	mov    %edi,-0x4(%rbp)
    b610:	89 75 f8             	mov    %esi,-0x8(%rbp)
    b613:	8b 45 fc             	mov    -0x4(%rbp),%eax
    b616:	33 45 f8             	xor    -0x8(%rbp),%eax
    b619:	89 c2                	mov    %eax,%edx
    b61b:	8b 45 fc             	mov    -0x4(%rbp),%eax
    b61e:	33 45 f8             	xor    -0x8(%rbp),%eax
    b621:	25 00 00 00 80       	and    $0x80000000,%eax
    b626:	33 45 fc             	xor    -0x4(%rbp),%eax
    b629:	2b 45 f8             	sub    -0x8(%rbp),%eax
    b62c:	33 45 f8             	xor    -0x8(%rbp),%eax
    b62f:	21 d0                	and    %edx,%eax
    b631:	85 c0                	test   %eax,%eax
    b633:	78 08                	js     b63d <safe_sub_func_int32_t_s_s+0x38>
    b635:	8b 45 fc             	mov    -0x4(%rbp),%eax
    b638:	2b 45 f8             	sub    -0x8(%rbp),%eax
    b63b:	eb 03                	jmp    b640 <safe_sub_func_int32_t_s_s+0x3b>
    b63d:	8b 45 fc             	mov    -0x4(%rbp),%eax
    b640:	5d                   	pop    %rbp
    b641:	c3                   	retq   

000000000000b642 <safe_mul_func_int32_t_s_s>:
    b642:	f3 0f 1e fa          	endbr64 
    b646:	55                   	push   %rbp
    b647:	48 89 e5             	mov    %rsp,%rbp
    b64a:	89 7d fc             	mov    %edi,-0x4(%rbp)
    b64d:	89 75 f8             	mov    %esi,-0x8(%rbp)
    b650:	83 7d fc 00          	cmpl   $0x0,-0x4(%rbp)
    b654:	7e 14                	jle    b66a <safe_mul_func_int32_t_s_s+0x28>
    b656:	83 7d f8 00          	cmpl   $0x0,-0x8(%rbp)
    b65a:	7e 0e                	jle    b66a <safe_mul_func_int32_t_s_s+0x28>
    b65c:	b8 ff ff ff 7f       	mov    $0x7fffffff,%eax
    b661:	99                   	cltd   
    b662:	f7 7d f8             	idivl  -0x8(%rbp)
    b665:	39 45 fc             	cmp    %eax,-0x4(%rbp)
    b668:	7f 5d                	jg     b6c7 <safe_mul_func_int32_t_s_s+0x85>
    b66a:	83 7d fc 00          	cmpl   $0x0,-0x4(%rbp)
    b66e:	7e 14                	jle    b684 <safe_mul_func_int32_t_s_s+0x42>
    b670:	83 7d f8 00          	cmpl   $0x0,-0x8(%rbp)
    b674:	7f 0e                	jg     b684 <safe_mul_func_int32_t_s_s+0x42>
    b676:	b8 00 00 00 80       	mov    $0x80000000,%eax
    b67b:	99                   	cltd   
    b67c:	f7 7d fc             	idivl  -0x4(%rbp)
    b67f:	39 45 f8             	cmp    %eax,-0x8(%rbp)
    b682:	7c 43                	jl     b6c7 <safe_mul_func_int32_t_s_s+0x85>
    b684:	83 7d fc 00          	cmpl   $0x0,-0x4(%rbp)
    b688:	7f 14                	jg     b69e <safe_mul_func_int32_t_s_s+0x5c>
    b68a:	83 7d f8 00          	cmpl   $0x0,-0x8(%rbp)
    b68e:	7e 0e                	jle    b69e <safe_mul_func_int32_t_s_s+0x5c>
    b690:	b8 00 00 00 80       	mov    $0x80000000,%eax
    b695:	99                   	cltd   
    b696:	f7 7d f8             	idivl  -0x8(%rbp)
    b699:	39 45 fc             	cmp    %eax,-0x4(%rbp)
    b69c:	7c 29                	jl     b6c7 <safe_mul_func_int32_t_s_s+0x85>
    b69e:	83 7d fc 00          	cmpl   $0x0,-0x4(%rbp)
    b6a2:	7f 1a                	jg     b6be <safe_mul_func_int32_t_s_s+0x7c>
    b6a4:	83 7d f8 00          	cmpl   $0x0,-0x8(%rbp)
    b6a8:	7f 14                	jg     b6be <safe_mul_func_int32_t_s_s+0x7c>
    b6aa:	83 7d fc 00          	cmpl   $0x0,-0x4(%rbp)
    b6ae:	74 0e                	je     b6be <safe_mul_func_int32_t_s_s+0x7c>
    b6b0:	b8 ff ff ff 7f       	mov    $0x7fffffff,%eax
    b6b5:	99                   	cltd   
    b6b6:	f7 7d fc             	idivl  -0x4(%rbp)
    b6b9:	39 45 f8             	cmp    %eax,-0x8(%rbp)
    b6bc:	7c 09                	jl     b6c7 <safe_mul_func_int32_t_s_s+0x85>
    b6be:	8b 45 fc             	mov    -0x4(%rbp),%eax
    b6c1:	0f af 45 f8          	imul   -0x8(%rbp),%eax
    b6c5:	eb 03                	jmp    b6ca <safe_mul_func_int32_t_s_s+0x88>
    b6c7:	8b 45 fc             	mov    -0x4(%rbp),%eax
    b6ca:	5d                   	pop    %rbp
    b6cb:	c3                   	retq   

000000000000b6cc <safe_mod_func_int32_t_s_s>:
    b6cc:	f3 0f 1e fa          	endbr64 
    b6d0:	55                   	push   %rbp
    b6d1:	48 89 e5             	mov    %rsp,%rbp
    b6d4:	89 7d fc             	mov    %edi,-0x4(%rbp)
    b6d7:	89 75 f8             	mov    %esi,-0x8(%rbp)
    b6da:	83 7d f8 00          	cmpl   $0x0,-0x8(%rbp)
    b6de:	74 1a                	je     b6fa <safe_mod_func_int32_t_s_s+0x2e>
    b6e0:	81 7d fc 00 00 00 80 	cmpl   $0x80000000,-0x4(%rbp)
    b6e7:	75 06                	jne    b6ef <safe_mod_func_int32_t_s_s+0x23>
    b6e9:	83 7d f8 ff          	cmpl   $0xffffffff,-0x8(%rbp)
    b6ed:	74 0b                	je     b6fa <safe_mod_func_int32_t_s_s+0x2e>
    b6ef:	8b 45 fc             	mov    -0x4(%rbp),%eax
    b6f2:	99                   	cltd   
    b6f3:	f7 7d f8             	idivl  -0x8(%rbp)
    b6f6:	89 d0                	mov    %edx,%eax
    b6f8:	eb 03                	jmp    b6fd <safe_mod_func_int32_t_s_s+0x31>
    b6fa:	8b 45 fc             	mov    -0x4(%rbp),%eax
    b6fd:	5d                   	pop    %rbp
    b6fe:	c3                   	retq   

000000000000b6ff <safe_div_func_int32_t_s_s>:
    b6ff:	f3 0f 1e fa          	endbr64 
    b703:	55                   	push   %rbp
    b704:	48 89 e5             	mov    %rsp,%rbp
    b707:	89 7d fc             	mov    %edi,-0x4(%rbp)
    b70a:	89 75 f8             	mov    %esi,-0x8(%rbp)
    b70d:	83 7d f8 00          	cmpl   $0x0,-0x8(%rbp)
    b711:	74 18                	je     b72b <safe_div_func_int32_t_s_s+0x2c>
    b713:	81 7d fc 00 00 00 80 	cmpl   $0x80000000,-0x4(%rbp)
    b71a:	75 06                	jne    b722 <safe_div_func_int32_t_s_s+0x23>
    b71c:	83 7d f8 ff          	cmpl   $0xffffffff,-0x8(%rbp)
    b720:	74 09                	je     b72b <safe_div_func_int32_t_s_s+0x2c>
    b722:	8b 45 fc             	mov    -0x4(%rbp),%eax
    b725:	99                   	cltd   
    b726:	f7 7d f8             	idivl  -0x8(%rbp)
    b729:	eb 03                	jmp    b72e <safe_div_func_int32_t_s_s+0x2f>
    b72b:	8b 45 fc             	mov    -0x4(%rbp),%eax
    b72e:	5d                   	pop    %rbp
    b72f:	c3                   	retq   

000000000000b730 <safe_lshift_func_int32_t_s_s>:
    b730:	f3 0f 1e fa          	endbr64 
    b734:	55                   	push   %rbp
    b735:	48 89 e5             	mov    %rsp,%rbp
    b738:	89 7d fc             	mov    %edi,-0x4(%rbp)
    b73b:	89 75 f8             	mov    %esi,-0x8(%rbp)
    b73e:	83 7d fc 00          	cmpl   $0x0,-0x4(%rbp)
    b742:	78 2d                	js     b771 <safe_lshift_func_int32_t_s_s+0x41>
    b744:	83 7d f8 00          	cmpl   $0x0,-0x8(%rbp)
    b748:	78 27                	js     b771 <safe_lshift_func_int32_t_s_s+0x41>
    b74a:	83 7d f8 1f          	cmpl   $0x1f,-0x8(%rbp)
    b74e:	7f 21                	jg     b771 <safe_lshift_func_int32_t_s_s+0x41>
    b750:	8b 45 f8             	mov    -0x8(%rbp),%eax
    b753:	ba ff ff ff 7f       	mov    $0x7fffffff,%edx
    b758:	89 c1                	mov    %eax,%ecx
    b75a:	d3 fa                	sar    %cl,%edx
    b75c:	89 d0                	mov    %edx,%eax
    b75e:	39 45 fc             	cmp    %eax,-0x4(%rbp)
    b761:	7f 0e                	jg     b771 <safe_lshift_func_int32_t_s_s+0x41>
    b763:	8b 45 f8             	mov    -0x8(%rbp),%eax
    b766:	8b 55 fc             	mov    -0x4(%rbp),%edx
    b769:	89 c1                	mov    %eax,%ecx
    b76b:	d3 e2                	shl    %cl,%edx
    b76d:	89 d0                	mov    %edx,%eax
    b76f:	eb 03                	jmp    b774 <safe_lshift_func_int32_t_s_s+0x44>
    b771:	8b 45 fc             	mov    -0x4(%rbp),%eax
    b774:	5d                   	pop    %rbp
    b775:	c3                   	retq   

000000000000b776 <safe_lshift_func_int32_t_s_u>:
    b776:	f3 0f 1e fa          	endbr64 
    b77a:	55                   	push   %rbp
    b77b:	48 89 e5             	mov    %rsp,%rbp
    b77e:	89 7d fc             	mov    %edi,-0x4(%rbp)
    b781:	89 75 f8             	mov    %esi,-0x8(%rbp)
    b784:	83 7d fc 00          	cmpl   $0x0,-0x4(%rbp)
    b788:	78 27                	js     b7b1 <safe_lshift_func_int32_t_s_u+0x3b>
    b78a:	83 7d f8 1f          	cmpl   $0x1f,-0x8(%rbp)
    b78e:	77 21                	ja     b7b1 <safe_lshift_func_int32_t_s_u+0x3b>
    b790:	8b 45 f8             	mov    -0x8(%rbp),%eax
    b793:	ba ff ff ff 7f       	mov    $0x7fffffff,%edx
    b798:	89 c1                	mov    %eax,%ecx
    b79a:	d3 fa                	sar    %cl,%edx
    b79c:	89 d0                	mov    %edx,%eax
    b79e:	39 45 fc             	cmp    %eax,-0x4(%rbp)
    b7a1:	7f 0e                	jg     b7b1 <safe_lshift_func_int32_t_s_u+0x3b>
    b7a3:	8b 45 f8             	mov    -0x8(%rbp),%eax
    b7a6:	8b 55 fc             	mov    -0x4(%rbp),%edx
    b7a9:	89 c1                	mov    %eax,%ecx
    b7ab:	d3 e2                	shl    %cl,%edx
    b7ad:	89 d0                	mov    %edx,%eax
    b7af:	eb 03                	jmp    b7b4 <safe_lshift_func_int32_t_s_u+0x3e>
    b7b1:	8b 45 fc             	mov    -0x4(%rbp),%eax
    b7b4:	5d                   	pop    %rbp
    b7b5:	c3                   	retq   

000000000000b7b6 <safe_rshift_func_int32_t_s_s>:
    b7b6:	f3 0f 1e fa          	endbr64 
    b7ba:	55                   	push   %rbp
    b7bb:	48 89 e5             	mov    %rsp,%rbp
    b7be:	89 7d fc             	mov    %edi,-0x4(%rbp)
    b7c1:	89 75 f8             	mov    %esi,-0x8(%rbp)
    b7c4:	83 7d fc 00          	cmpl   $0x0,-0x4(%rbp)
    b7c8:	78 1a                	js     b7e4 <safe_rshift_func_int32_t_s_s+0x2e>
    b7ca:	83 7d f8 00          	cmpl   $0x0,-0x8(%rbp)
    b7ce:	78 14                	js     b7e4 <safe_rshift_func_int32_t_s_s+0x2e>
    b7d0:	83 7d f8 1f          	cmpl   $0x1f,-0x8(%rbp)
    b7d4:	7f 0e                	jg     b7e4 <safe_rshift_func_int32_t_s_s+0x2e>
    b7d6:	8b 45 f8             	mov    -0x8(%rbp),%eax
    b7d9:	8b 55 fc             	mov    -0x4(%rbp),%edx
    b7dc:	89 c1                	mov    %eax,%ecx
    b7de:	d3 fa                	sar    %cl,%edx
    b7e0:	89 d0                	mov    %edx,%eax
    b7e2:	eb 03                	jmp    b7e7 <safe_rshift_func_int32_t_s_s+0x31>
    b7e4:	8b 45 fc             	mov    -0x4(%rbp),%eax
    b7e7:	5d                   	pop    %rbp
    b7e8:	c3                   	retq   

000000000000b7e9 <safe_rshift_func_int32_t_s_u>:
    b7e9:	f3 0f 1e fa          	endbr64 
    b7ed:	55                   	push   %rbp
    b7ee:	48 89 e5             	mov    %rsp,%rbp
    b7f1:	89 7d fc             	mov    %edi,-0x4(%rbp)
    b7f4:	89 75 f8             	mov    %esi,-0x8(%rbp)
    b7f7:	83 7d fc 00          	cmpl   $0x0,-0x4(%rbp)
    b7fb:	78 14                	js     b811 <safe_rshift_func_int32_t_s_u+0x28>
    b7fd:	83 7d f8 1f          	cmpl   $0x1f,-0x8(%rbp)
    b801:	77 0e                	ja     b811 <safe_rshift_func_int32_t_s_u+0x28>
    b803:	8b 45 f8             	mov    -0x8(%rbp),%eax
    b806:	8b 55 fc             	mov    -0x4(%rbp),%edx
    b809:	89 c1                	mov    %eax,%ecx
    b80b:	d3 fa                	sar    %cl,%edx
    b80d:	89 d0                	mov    %edx,%eax
    b80f:	eb 03                	jmp    b814 <safe_rshift_func_int32_t_s_u+0x2b>
    b811:	8b 45 fc             	mov    -0x4(%rbp),%eax
    b814:	5d                   	pop    %rbp
    b815:	c3                   	retq   

000000000000b816 <safe_unary_minus_func_int64_t_s>:
    b816:	f3 0f 1e fa          	endbr64 
    b81a:	55                   	push   %rbp
    b81b:	48 89 e5             	mov    %rsp,%rbp
    b81e:	48 89 7d f8          	mov    %rdi,-0x8(%rbp)
    b822:	48 b8 00 00 00 00 00 	movabs $0x8000000000000000,%rax
    b829:	00 00 80 
    b82c:	48 39 45 f8          	cmp    %rax,-0x8(%rbp)
    b830:	74 09                	je     b83b <safe_unary_minus_func_int64_t_s+0x25>
    b832:	48 8b 45 f8          	mov    -0x8(%rbp),%rax
    b836:	48 f7 d8             	neg    %rax
    b839:	eb 04                	jmp    b83f <safe_unary_minus_func_int64_t_s+0x29>
    b83b:	48 8b 45 f8          	mov    -0x8(%rbp),%rax
    b83f:	5d                   	pop    %rbp
    b840:	c3                   	retq   

000000000000b841 <safe_add_func_int64_t_s_s>:
    b841:	f3 0f 1e fa          	endbr64 
    b845:	55                   	push   %rbp
    b846:	48 89 e5             	mov    %rsp,%rbp
    b849:	48 89 7d f8          	mov    %rdi,-0x8(%rbp)
    b84d:	48 89 75 f0          	mov    %rsi,-0x10(%rbp)
    b851:	48 83 7d f8 00       	cmpq   $0x0,-0x8(%rbp)
    b856:	7e 1b                	jle    b873 <safe_add_func_int64_t_s_s+0x32>
    b858:	48 83 7d f0 00       	cmpq   $0x0,-0x10(%rbp)
    b85d:	7e 14                	jle    b873 <safe_add_func_int64_t_s_s+0x32>
    b85f:	48 b8 ff ff ff ff ff 	movabs $0x7fffffffffffffff,%rax
    b866:	ff ff 7f 
    b869:	48 2b 45 f0          	sub    -0x10(%rbp),%rax
    b86d:	48 39 45 f8          	cmp    %rax,-0x8(%rbp)
    b871:	7f 2f                	jg     b8a2 <safe_add_func_int64_t_s_s+0x61>
    b873:	48 83 7d f8 00       	cmpq   $0x0,-0x8(%rbp)
    b878:	79 1b                	jns    b895 <safe_add_func_int64_t_s_s+0x54>
    b87a:	48 83 7d f0 00       	cmpq   $0x0,-0x10(%rbp)
    b87f:	79 14                	jns    b895 <safe_add_func_int64_t_s_s+0x54>
    b881:	48 b8 00 00 00 00 00 	movabs $0x8000000000000000,%rax
    b888:	00 00 80 
    b88b:	48 2b 45 f0          	sub    -0x10(%rbp),%rax
    b88f:	48 39 45 f8          	cmp    %rax,-0x8(%rbp)
    b893:	7c 0d                	jl     b8a2 <safe_add_func_int64_t_s_s+0x61>
    b895:	48 8b 55 f8          	mov    -0x8(%rbp),%rdx
    b899:	48 8b 45 f0          	mov    -0x10(%rbp),%rax
    b89d:	48 01 d0             	add    %rdx,%rax
    b8a0:	eb 04                	jmp    b8a6 <safe_add_func_int64_t_s_s+0x65>
    b8a2:	48 8b 45 f8          	mov    -0x8(%rbp),%rax
    b8a6:	5d                   	pop    %rbp
    b8a7:	c3                   	retq   

000000000000b8a8 <safe_sub_func_int64_t_s_s>:
    b8a8:	f3 0f 1e fa          	endbr64 
    b8ac:	55                   	push   %rbp
    b8ad:	48 89 e5             	mov    %rsp,%rbp
    b8b0:	48 89 7d f8          	mov    %rdi,-0x8(%rbp)
    b8b4:	48 89 75 f0          	mov    %rsi,-0x10(%rbp)
    b8b8:	48 8b 45 f8          	mov    -0x8(%rbp),%rax
    b8bc:	48 33 45 f0          	xor    -0x10(%rbp),%rax
    b8c0:	48 89 c2             	mov    %rax,%rdx
    b8c3:	48 8b 45 f8          	mov    -0x8(%rbp),%rax
    b8c7:	48 33 45 f0          	xor    -0x10(%rbp),%rax
    b8cb:	48 b9 00 00 00 00 00 	movabs $0x8000000000000000,%rcx
    b8d2:	00 00 80 
    b8d5:	48 21 c8             	and    %rcx,%rax
    b8d8:	48 33 45 f8          	xor    -0x8(%rbp),%rax
    b8dc:	48 2b 45 f0          	sub    -0x10(%rbp),%rax
    b8e0:	48 33 45 f0          	xor    -0x10(%rbp),%rax
    b8e4:	48 21 d0             	and    %rdx,%rax
    b8e7:	48 85 c0             	test   %rax,%rax
    b8ea:	78 0a                	js     b8f6 <safe_sub_func_int64_t_s_s+0x4e>
    b8ec:	48 8b 45 f8          	mov    -0x8(%rbp),%rax
    b8f0:	48 2b 45 f0          	sub    -0x10(%rbp),%rax
    b8f4:	eb 04                	jmp    b8fa <safe_sub_func_int64_t_s_s+0x52>
    b8f6:	48 8b 45 f8          	mov    -0x8(%rbp),%rax
    b8fa:	5d                   	pop    %rbp
    b8fb:	c3                   	retq   

000000000000b8fc <safe_mul_func_int64_t_s_s>:
    b8fc:	f3 0f 1e fa          	endbr64 
    b900:	55                   	push   %rbp
    b901:	48 89 e5             	mov    %rsp,%rbp
    b904:	48 89 7d f8          	mov    %rdi,-0x8(%rbp)
    b908:	48 89 75 f0          	mov    %rsi,-0x10(%rbp)
    b90c:	48 83 7d f8 00       	cmpq   $0x0,-0x8(%rbp)
    b911:	7e 1d                	jle    b930 <safe_mul_func_int64_t_s_s+0x34>
    b913:	48 83 7d f0 00       	cmpq   $0x0,-0x10(%rbp)
    b918:	7e 16                	jle    b930 <safe_mul_func_int64_t_s_s+0x34>
    b91a:	48 b8 ff ff ff ff ff 	movabs $0x7fffffffffffffff,%rax
    b921:	ff ff 7f 
    b924:	48 99                	cqto   
    b926:	48 f7 7d f0          	idivq  -0x10(%rbp)
    b92a:	48 39 45 f8          	cmp    %rax,-0x8(%rbp)
    b92e:	7f 7e                	jg     b9ae <safe_mul_func_int64_t_s_s+0xb2>
    b930:	48 83 7d f8 00       	cmpq   $0x0,-0x8(%rbp)
    b935:	7e 1d                	jle    b954 <safe_mul_func_int64_t_s_s+0x58>
    b937:	48 83 7d f0 00       	cmpq   $0x0,-0x10(%rbp)
    b93c:	7f 16                	jg     b954 <safe_mul_func_int64_t_s_s+0x58>
    b93e:	48 b8 00 00 00 00 00 	movabs $0x8000000000000000,%rax
    b945:	00 00 80 
    b948:	48 99                	cqto   
    b94a:	48 f7 7d f8          	idivq  -0x8(%rbp)
    b94e:	48 39 45 f0          	cmp    %rax,-0x10(%rbp)
    b952:	7c 5a                	jl     b9ae <safe_mul_func_int64_t_s_s+0xb2>
    b954:	48 83 7d f8 00       	cmpq   $0x0,-0x8(%rbp)
    b959:	7f 1d                	jg     b978 <safe_mul_func_int64_t_s_s+0x7c>
    b95b:	48 83 7d f0 00       	cmpq   $0x0,-0x10(%rbp)
    b960:	7e 16                	jle    b978 <safe_mul_func_int64_t_s_s+0x7c>
    b962:	48 b8 00 00 00 00 00 	movabs $0x8000000000000000,%rax
    b969:	00 00 80 
    b96c:	48 99                	cqto   
    b96e:	48 f7 7d f0          	idivq  -0x10(%rbp)
    b972:	48 39 45 f8          	cmp    %rax,-0x8(%rbp)
    b976:	7c 36                	jl     b9ae <safe_mul_func_int64_t_s_s+0xb2>
    b978:	48 83 7d f8 00       	cmpq   $0x0,-0x8(%rbp)
    b97d:	7f 24                	jg     b9a3 <safe_mul_func_int64_t_s_s+0xa7>
    b97f:	48 83 7d f0 00       	cmpq   $0x0,-0x10(%rbp)
    b984:	7f 1d                	jg     b9a3 <safe_mul_func_int64_t_s_s+0xa7>
    b986:	48 83 7d f8 00       	cmpq   $0x0,-0x8(%rbp)
    b98b:	74 16                	je     b9a3 <safe_mul_func_int64_t_s_s+0xa7>
    b98d:	48 b8 ff ff ff ff ff 	movabs $0x7fffffffffffffff,%rax
    b994:	ff ff 7f 
    b997:	48 99                	cqto   
    b999:	48 f7 7d f8          	idivq  -0x8(%rbp)
    b99d:	48 39 45 f0          	cmp    %rax,-0x10(%rbp)
    b9a1:	7c 0b                	jl     b9ae <safe_mul_func_int64_t_s_s+0xb2>
    b9a3:	48 8b 45 f8          	mov    -0x8(%rbp),%rax
    b9a7:	48 0f af 45 f0       	imul   -0x10(%rbp),%rax
    b9ac:	eb 04                	jmp    b9b2 <safe_mul_func_int64_t_s_s+0xb6>
    b9ae:	48 8b 45 f8          	mov    -0x8(%rbp),%rax
    b9b2:	5d                   	pop    %rbp
    b9b3:	c3                   	retq   

000000000000b9b4 <safe_mod_func_int64_t_s_s>:
    b9b4:	f3 0f 1e fa          	endbr64 
    b9b8:	55                   	push   %rbp
    b9b9:	48 89 e5             	mov    %rsp,%rbp
    b9bc:	48 89 7d f8          	mov    %rdi,-0x8(%rbp)
    b9c0:	48 89 75 f0          	mov    %rsi,-0x10(%rbp)
    b9c4:	48 83 7d f0 00       	cmpq   $0x0,-0x10(%rbp)
    b9c9:	74 26                	je     b9f1 <safe_mod_func_int64_t_s_s+0x3d>
    b9cb:	48 b8 00 00 00 00 00 	movabs $0x8000000000000000,%rax
    b9d2:	00 00 80 
    b9d5:	48 39 45 f8          	cmp    %rax,-0x8(%rbp)
    b9d9:	75 07                	jne    b9e2 <safe_mod_func_int64_t_s_s+0x2e>
    b9db:	48 83 7d f0 ff       	cmpq   $0xffffffffffffffff,-0x10(%rbp)
    b9e0:	74 0f                	je     b9f1 <safe_mod_func_int64_t_s_s+0x3d>
    b9e2:	48 8b 45 f8          	mov    -0x8(%rbp),%rax
    b9e6:	48 99                	cqto   
    b9e8:	48 f7 7d f0          	idivq  -0x10(%rbp)
    b9ec:	48 89 d0             	mov    %rdx,%rax
    b9ef:	eb 04                	jmp    b9f5 <safe_mod_func_int64_t_s_s+0x41>
    b9f1:	48 8b 45 f8          	mov    -0x8(%rbp),%rax
    b9f5:	5d                   	pop    %rbp
    b9f6:	c3                   	retq   

000000000000b9f7 <safe_div_func_int64_t_s_s>:
    b9f7:	f3 0f 1e fa          	endbr64 
    b9fb:	55                   	push   %rbp
    b9fc:	48 89 e5             	mov    %rsp,%rbp
    b9ff:	48 89 7d f8          	mov    %rdi,-0x8(%rbp)
    ba03:	48 89 75 f0          	mov    %rsi,-0x10(%rbp)
    ba07:	48 83 7d f0 00       	cmpq   $0x0,-0x10(%rbp)
    ba0c:	74 23                	je     ba31 <safe_div_func_int64_t_s_s+0x3a>
    ba0e:	48 b8 00 00 00 00 00 	movabs $0x8000000000000000,%rax
    ba15:	00 00 80 
    ba18:	48 39 45 f8          	cmp    %rax,-0x8(%rbp)
    ba1c:	75 07                	jne    ba25 <safe_div_func_int64_t_s_s+0x2e>
    ba1e:	48 83 7d f0 ff       	cmpq   $0xffffffffffffffff,-0x10(%rbp)
    ba23:	74 0c                	je     ba31 <safe_div_func_int64_t_s_s+0x3a>
    ba25:	48 8b 45 f8          	mov    -0x8(%rbp),%rax
    ba29:	48 99                	cqto   
    ba2b:	48 f7 7d f0          	idivq  -0x10(%rbp)
    ba2f:	eb 04                	jmp    ba35 <safe_div_func_int64_t_s_s+0x3e>
    ba31:	48 8b 45 f8          	mov    -0x8(%rbp),%rax
    ba35:	5d                   	pop    %rbp
    ba36:	c3                   	retq   

000000000000ba37 <safe_lshift_func_int64_t_s_s>:
    ba37:	f3 0f 1e fa          	endbr64 
    ba3b:	55                   	push   %rbp
    ba3c:	48 89 e5             	mov    %rsp,%rbp
    ba3f:	48 89 7d f8          	mov    %rdi,-0x8(%rbp)
    ba43:	89 75 f4             	mov    %esi,-0xc(%rbp)
    ba46:	48 83 7d f8 00       	cmpq   $0x0,-0x8(%rbp)
    ba4b:	78 38                	js     ba85 <safe_lshift_func_int64_t_s_s+0x4e>
    ba4d:	83 7d f4 00          	cmpl   $0x0,-0xc(%rbp)
    ba51:	78 32                	js     ba85 <safe_lshift_func_int64_t_s_s+0x4e>
    ba53:	83 7d f4 1f          	cmpl   $0x1f,-0xc(%rbp)
    ba57:	7f 2c                	jg     ba85 <safe_lshift_func_int64_t_s_s+0x4e>
    ba59:	8b 45 f4             	mov    -0xc(%rbp),%eax
    ba5c:	48 ba ff ff ff ff ff 	movabs $0x7fffffffffffffff,%rdx
    ba63:	ff ff 7f 
    ba66:	89 c1                	mov    %eax,%ecx
    ba68:	48 d3 fa             	sar    %cl,%rdx
    ba6b:	48 89 d0             	mov    %rdx,%rax
    ba6e:	48 39 45 f8          	cmp    %rax,-0x8(%rbp)
    ba72:	7f 11                	jg     ba85 <safe_lshift_func_int64_t_s_s+0x4e>
    ba74:	8b 45 f4             	mov    -0xc(%rbp),%eax
    ba77:	48 8b 55 f8          	mov    -0x8(%rbp),%rdx
    ba7b:	89 c1                	mov    %eax,%ecx
    ba7d:	48 d3 e2             	shl    %cl,%rdx
    ba80:	48 89 d0             	mov    %rdx,%rax
    ba83:	eb 04                	jmp    ba89 <safe_lshift_func_int64_t_s_s+0x52>
    ba85:	48 8b 45 f8          	mov    -0x8(%rbp),%rax
    ba89:	5d                   	pop    %rbp
    ba8a:	c3                   	retq   

000000000000ba8b <safe_lshift_func_int64_t_s_u>:
    ba8b:	f3 0f 1e fa          	endbr64 
    ba8f:	55                   	push   %rbp
    ba90:	48 89 e5             	mov    %rsp,%rbp
    ba93:	48 89 7d f8          	mov    %rdi,-0x8(%rbp)
    ba97:	89 75 f4             	mov    %esi,-0xc(%rbp)
    ba9a:	48 83 7d f8 00       	cmpq   $0x0,-0x8(%rbp)
    ba9f:	78 32                	js     bad3 <safe_lshift_func_int64_t_s_u+0x48>
    baa1:	83 7d f4 1f          	cmpl   $0x1f,-0xc(%rbp)
    baa5:	77 2c                	ja     bad3 <safe_lshift_func_int64_t_s_u+0x48>
    baa7:	8b 45 f4             	mov    -0xc(%rbp),%eax
    baaa:	48 ba ff ff ff ff ff 	movabs $0x7fffffffffffffff,%rdx
    bab1:	ff ff 7f 
    bab4:	89 c1                	mov    %eax,%ecx
    bab6:	48 d3 fa             	sar    %cl,%rdx
    bab9:	48 89 d0             	mov    %rdx,%rax
    babc:	48 39 45 f8          	cmp    %rax,-0x8(%rbp)
    bac0:	7f 11                	jg     bad3 <safe_lshift_func_int64_t_s_u+0x48>
    bac2:	8b 45 f4             	mov    -0xc(%rbp),%eax
    bac5:	48 8b 55 f8          	mov    -0x8(%rbp),%rdx
    bac9:	89 c1                	mov    %eax,%ecx
    bacb:	48 d3 e2             	shl    %cl,%rdx
    bace:	48 89 d0             	mov    %rdx,%rax
    bad1:	eb 04                	jmp    bad7 <safe_lshift_func_int64_t_s_u+0x4c>
    bad3:	48 8b 45 f8          	mov    -0x8(%rbp),%rax
    bad7:	5d                   	pop    %rbp
    bad8:	c3                   	retq   

000000000000bad9 <safe_rshift_func_int64_t_s_s>:
    bad9:	f3 0f 1e fa          	endbr64 
    badd:	55                   	push   %rbp
    bade:	48 89 e5             	mov    %rsp,%rbp
    bae1:	48 89 7d f8          	mov    %rdi,-0x8(%rbp)
    bae5:	89 75 f4             	mov    %esi,-0xc(%rbp)
    bae8:	48 83 7d f8 00       	cmpq   $0x0,-0x8(%rbp)
    baed:	78 1d                	js     bb0c <safe_rshift_func_int64_t_s_s+0x33>
    baef:	83 7d f4 00          	cmpl   $0x0,-0xc(%rbp)
    baf3:	78 17                	js     bb0c <safe_rshift_func_int64_t_s_s+0x33>
    baf5:	83 7d f4 1f          	cmpl   $0x1f,-0xc(%rbp)
    baf9:	7f 11                	jg     bb0c <safe_rshift_func_int64_t_s_s+0x33>
    bafb:	8b 45 f4             	mov    -0xc(%rbp),%eax
    bafe:	48 8b 55 f8          	mov    -0x8(%rbp),%rdx
    bb02:	89 c1                	mov    %eax,%ecx
    bb04:	48 d3 fa             	sar    %cl,%rdx
    bb07:	48 89 d0             	mov    %rdx,%rax
    bb0a:	eb 04                	jmp    bb10 <safe_rshift_func_int64_t_s_s+0x37>
    bb0c:	48 8b 45 f8          	mov    -0x8(%rbp),%rax
    bb10:	5d                   	pop    %rbp
    bb11:	c3                   	retq   

000000000000bb12 <safe_rshift_func_int64_t_s_u>:
    bb12:	f3 0f 1e fa          	endbr64 
    bb16:	55                   	push   %rbp
    bb17:	48 89 e5             	mov    %rsp,%rbp
    bb1a:	48 89 7d f8          	mov    %rdi,-0x8(%rbp)
    bb1e:	89 75 f4             	mov    %esi,-0xc(%rbp)
    bb21:	48 83 7d f8 00       	cmpq   $0x0,-0x8(%rbp)
    bb26:	78 17                	js     bb3f <safe_rshift_func_int64_t_s_u+0x2d>
    bb28:	83 7d f4 1f          	cmpl   $0x1f,-0xc(%rbp)
    bb2c:	77 11                	ja     bb3f <safe_rshift_func_int64_t_s_u+0x2d>
    bb2e:	8b 45 f4             	mov    -0xc(%rbp),%eax
    bb31:	48 8b 55 f8          	mov    -0x8(%rbp),%rdx
    bb35:	89 c1                	mov    %eax,%ecx
    bb37:	48 d3 fa             	sar    %cl,%rdx
    bb3a:	48 89 d0             	mov    %rdx,%rax
    bb3d:	eb 04                	jmp    bb43 <safe_rshift_func_int64_t_s_u+0x31>
    bb3f:	48 8b 45 f8          	mov    -0x8(%rbp),%rax
    bb43:	5d                   	pop    %rbp
    bb44:	c3                   	retq   

000000000000bb45 <safe_unary_minus_func_uint8_t_u>:
    bb45:	f3 0f 1e fa          	endbr64 
    bb49:	55                   	push   %rbp
    bb4a:	48 89 e5             	mov    %rsp,%rbp
    bb4d:	89 f8                	mov    %edi,%eax
    bb4f:	88 45 fc             	mov    %al,-0x4(%rbp)
    bb52:	0f b6 45 fc          	movzbl -0x4(%rbp),%eax
    bb56:	f7 d8                	neg    %eax
    bb58:	5d                   	pop    %rbp
    bb59:	c3                   	retq   

000000000000bb5a <safe_add_func_uint8_t_u_u>:
    bb5a:	f3 0f 1e fa          	endbr64 
    bb5e:	55                   	push   %rbp
    bb5f:	48 89 e5             	mov    %rsp,%rbp
    bb62:	89 fa                	mov    %edi,%edx
    bb64:	89 f0                	mov    %esi,%eax
    bb66:	88 55 fc             	mov    %dl,-0x4(%rbp)
    bb69:	88 45 f8             	mov    %al,-0x8(%rbp)
    bb6c:	0f b6 55 fc          	movzbl -0x4(%rbp),%edx
    bb70:	0f b6 45 f8          	movzbl -0x8(%rbp),%eax
    bb74:	01 d0                	add    %edx,%eax
    bb76:	5d                   	pop    %rbp
    bb77:	c3                   	retq   

000000000000bb78 <safe_sub_func_uint8_t_u_u>:
    bb78:	f3 0f 1e fa          	endbr64 
    bb7c:	55                   	push   %rbp
    bb7d:	48 89 e5             	mov    %rsp,%rbp
    bb80:	89 fa                	mov    %edi,%edx
    bb82:	89 f0                	mov    %esi,%eax
    bb84:	88 55 fc             	mov    %dl,-0x4(%rbp)
    bb87:	88 45 f8             	mov    %al,-0x8(%rbp)
    bb8a:	0f b6 45 fc          	movzbl -0x4(%rbp),%eax
    bb8e:	2a 45 f8             	sub    -0x8(%rbp),%al
    bb91:	5d                   	pop    %rbp
    bb92:	c3                   	retq   

000000000000bb93 <safe_mul_func_uint8_t_u_u>:
    bb93:	f3 0f 1e fa          	endbr64 
    bb97:	55                   	push   %rbp
    bb98:	48 89 e5             	mov    %rsp,%rbp
    bb9b:	89 fa                	mov    %edi,%edx
    bb9d:	89 f0                	mov    %esi,%eax
    bb9f:	88 55 fc             	mov    %dl,-0x4(%rbp)
    bba2:	88 45 f8             	mov    %al,-0x8(%rbp)
    bba5:	0f b6 45 fc          	movzbl -0x4(%rbp),%eax
    bba9:	f6 65 f8             	mulb   -0x8(%rbp)
    bbac:	5d                   	pop    %rbp
    bbad:	c3                   	retq   

000000000000bbae <safe_mod_func_uint8_t_u_u>:
    bbae:	f3 0f 1e fa          	endbr64 
    bbb2:	55                   	push   %rbp
    bbb3:	48 89 e5             	mov    %rsp,%rbp
    bbb6:	89 fa                	mov    %edi,%edx
    bbb8:	89 f0                	mov    %esi,%eax
    bbba:	88 55 fc             	mov    %dl,-0x4(%rbp)
    bbbd:	88 45 f8             	mov    %al,-0x8(%rbp)
    bbc0:	80 7d f8 00          	cmpb   $0x0,-0x8(%rbp)
    bbc4:	74 0f                	je     bbd5 <safe_mod_func_uint8_t_u_u+0x27>
    bbc6:	0f b6 45 fc          	movzbl -0x4(%rbp),%eax
    bbca:	0f b6 c0             	movzbl %al,%eax
    bbcd:	f6 75 f8             	divb   -0x8(%rbp)
    bbd0:	0f b6 c4             	movzbl %ah,%eax
    bbd3:	eb 04                	jmp    bbd9 <safe_mod_func_uint8_t_u_u+0x2b>
    bbd5:	0f b6 45 fc          	movzbl -0x4(%rbp),%eax
    bbd9:	5d                   	pop    %rbp
    bbda:	c3                   	retq   

000000000000bbdb <safe_div_func_uint8_t_u_u>:
    bbdb:	f3 0f 1e fa          	endbr64 
    bbdf:	55                   	push   %rbp
    bbe0:	48 89 e5             	mov    %rsp,%rbp
    bbe3:	89 fa                	mov    %edi,%edx
    bbe5:	89 f0                	mov    %esi,%eax
    bbe7:	88 55 fc             	mov    %dl,-0x4(%rbp)
    bbea:	88 45 f8             	mov    %al,-0x8(%rbp)
    bbed:	80 7d f8 00          	cmpb   $0x0,-0x8(%rbp)
    bbf1:	74 0c                	je     bbff <safe_div_func_uint8_t_u_u+0x24>
    bbf3:	0f b6 45 fc          	movzbl -0x4(%rbp),%eax
    bbf7:	0f b6 c0             	movzbl %al,%eax
    bbfa:	f6 75 f8             	divb   -0x8(%rbp)
    bbfd:	eb 04                	jmp    bc03 <safe_div_func_uint8_t_u_u+0x28>
    bbff:	0f b6 45 fc          	movzbl -0x4(%rbp),%eax
    bc03:	5d                   	pop    %rbp
    bc04:	c3                   	retq   

000000000000bc05 <safe_lshift_func_uint8_t_u_s>:
    bc05:	f3 0f 1e fa          	endbr64 
    bc09:	55                   	push   %rbp
    bc0a:	48 89 e5             	mov    %rsp,%rbp
    bc0d:	89 f8                	mov    %edi,%eax
    bc0f:	89 75 f8             	mov    %esi,-0x8(%rbp)
    bc12:	88 45 fc             	mov    %al,-0x4(%rbp)
    bc15:	83 7d f8 00          	cmpl   $0x0,-0x8(%rbp)
    bc19:	78 2b                	js     bc46 <safe_lshift_func_uint8_t_u_s+0x41>
    bc1b:	83 7d f8 1f          	cmpl   $0x1f,-0x8(%rbp)
    bc1f:	7f 25                	jg     bc46 <safe_lshift_func_uint8_t_u_s+0x41>
    bc21:	0f b6 55 fc          	movzbl -0x4(%rbp),%edx
    bc25:	8b 45 f8             	mov    -0x8(%rbp),%eax
    bc28:	be ff 00 00 00       	mov    $0xff,%esi
    bc2d:	89 c1                	mov    %eax,%ecx
    bc2f:	d3 fe                	sar    %cl,%esi
    bc31:	89 f0                	mov    %esi,%eax
    bc33:	39 c2                	cmp    %eax,%edx
    bc35:	7f 0f                	jg     bc46 <safe_lshift_func_uint8_t_u_s+0x41>
    bc37:	0f b6 55 fc          	movzbl -0x4(%rbp),%edx
    bc3b:	8b 45 f8             	mov    -0x8(%rbp),%eax
    bc3e:	89 c1                	mov    %eax,%ecx
    bc40:	d3 e2                	shl    %cl,%edx
    bc42:	89 d0                	mov    %edx,%eax
    bc44:	eb 04                	jmp    bc4a <safe_lshift_func_uint8_t_u_s+0x45>
    bc46:	0f b6 45 fc          	movzbl -0x4(%rbp),%eax
    bc4a:	5d                   	pop    %rbp
    bc4b:	c3                   	retq   

000000000000bc4c <safe_lshift_func_uint8_t_u_u>:
    bc4c:	f3 0f 1e fa          	endbr64 
    bc50:	55                   	push   %rbp
    bc51:	48 89 e5             	mov    %rsp,%rbp
    bc54:	89 f8                	mov    %edi,%eax
    bc56:	89 75 f8             	mov    %esi,-0x8(%rbp)
    bc59:	88 45 fc             	mov    %al,-0x4(%rbp)
    bc5c:	83 7d f8 1f          	cmpl   $0x1f,-0x8(%rbp)
    bc60:	77 25                	ja     bc87 <safe_lshift_func_uint8_t_u_u+0x3b>
    bc62:	0f b6 55 fc          	movzbl -0x4(%rbp),%edx
    bc66:	8b 45 f8             	mov    -0x8(%rbp),%eax
    bc69:	be ff 00 00 00       	mov    $0xff,%esi
    bc6e:	89 c1                	mov    %eax,%ecx
    bc70:	d3 fe                	sar    %cl,%esi
    bc72:	89 f0                	mov    %esi,%eax
    bc74:	39 c2                	cmp    %eax,%edx
    bc76:	7f 0f                	jg     bc87 <safe_lshift_func_uint8_t_u_u+0x3b>
    bc78:	0f b6 55 fc          	movzbl -0x4(%rbp),%edx
    bc7c:	8b 45 f8             	mov    -0x8(%rbp),%eax
    bc7f:	89 c1                	mov    %eax,%ecx
    bc81:	d3 e2                	shl    %cl,%edx
    bc83:	89 d0                	mov    %edx,%eax
    bc85:	eb 04                	jmp    bc8b <safe_lshift_func_uint8_t_u_u+0x3f>
    bc87:	0f b6 45 fc          	movzbl -0x4(%rbp),%eax
    bc8b:	5d                   	pop    %rbp
    bc8c:	c3                   	retq   

000000000000bc8d <safe_rshift_func_uint8_t_u_s>:
    bc8d:	f3 0f 1e fa          	endbr64 
    bc91:	55                   	push   %rbp
    bc92:	48 89 e5             	mov    %rsp,%rbp
    bc95:	89 f8                	mov    %edi,%eax
    bc97:	89 75 f8             	mov    %esi,-0x8(%rbp)
    bc9a:	88 45 fc             	mov    %al,-0x4(%rbp)
    bc9d:	83 7d f8 00          	cmpl   $0x0,-0x8(%rbp)
    bca1:	78 15                	js     bcb8 <safe_rshift_func_uint8_t_u_s+0x2b>
    bca3:	83 7d f8 1f          	cmpl   $0x1f,-0x8(%rbp)
    bca7:	7f 0f                	jg     bcb8 <safe_rshift_func_uint8_t_u_s+0x2b>
    bca9:	0f b6 55 fc          	movzbl -0x4(%rbp),%edx
    bcad:	8b 45 f8             	mov    -0x8(%rbp),%eax
    bcb0:	89 c1                	mov    %eax,%ecx
    bcb2:	d3 fa                	sar    %cl,%edx
    bcb4:	89 d0                	mov    %edx,%eax
    bcb6:	eb 04                	jmp    bcbc <safe_rshift_func_uint8_t_u_s+0x2f>
    bcb8:	0f b6 45 fc          	movzbl -0x4(%rbp),%eax
    bcbc:	5d                   	pop    %rbp
    bcbd:	c3                   	retq   

000000000000bcbe <safe_rshift_func_uint8_t_u_u>:
    bcbe:	f3 0f 1e fa          	endbr64 
    bcc2:	55                   	push   %rbp
    bcc3:	48 89 e5             	mov    %rsp,%rbp
    bcc6:	89 f8                	mov    %edi,%eax
    bcc8:	89 75 f8             	mov    %esi,-0x8(%rbp)
    bccb:	88 45 fc             	mov    %al,-0x4(%rbp)
    bcce:	83 7d f8 1f          	cmpl   $0x1f,-0x8(%rbp)
    bcd2:	77 0f                	ja     bce3 <safe_rshift_func_uint8_t_u_u+0x25>
    bcd4:	0f b6 55 fc          	movzbl -0x4(%rbp),%edx
    bcd8:	8b 45 f8             	mov    -0x8(%rbp),%eax
    bcdb:	89 c1                	mov    %eax,%ecx
    bcdd:	d3 fa                	sar    %cl,%edx
    bcdf:	89 d0                	mov    %edx,%eax
    bce1:	eb 04                	jmp    bce7 <safe_rshift_func_uint8_t_u_u+0x29>
    bce3:	0f b6 45 fc          	movzbl -0x4(%rbp),%eax
    bce7:	5d                   	pop    %rbp
    bce8:	c3                   	retq   

000000000000bce9 <safe_unary_minus_func_uint16_t_u>:
    bce9:	f3 0f 1e fa          	endbr64 
    bced:	55                   	push   %rbp
    bcee:	48 89 e5             	mov    %rsp,%rbp
    bcf1:	89 f8                	mov    %edi,%eax
    bcf3:	66 89 45 fc          	mov    %ax,-0x4(%rbp)
    bcf7:	0f b7 45 fc          	movzwl -0x4(%rbp),%eax
    bcfb:	f7 d8                	neg    %eax
    bcfd:	5d                   	pop    %rbp
    bcfe:	c3                   	retq   

000000000000bcff <safe_add_func_uint16_t_u_u>:
    bcff:	f3 0f 1e fa          	endbr64 
    bd03:	55                   	push   %rbp
    bd04:	48 89 e5             	mov    %rsp,%rbp
    bd07:	89 fa                	mov    %edi,%edx
    bd09:	89 f0                	mov    %esi,%eax
    bd0b:	66 89 55 fc          	mov    %dx,-0x4(%rbp)
    bd0f:	66 89 45 f8          	mov    %ax,-0x8(%rbp)
    bd13:	0f b7 55 fc          	movzwl -0x4(%rbp),%edx
    bd17:	0f b7 45 f8          	movzwl -0x8(%rbp),%eax
    bd1b:	01 d0                	add    %edx,%eax
    bd1d:	5d                   	pop    %rbp
    bd1e:	c3                   	retq   

000000000000bd1f <safe_sub_func_uint16_t_u_u>:
    bd1f:	f3 0f 1e fa          	endbr64 
    bd23:	55                   	push   %rbp
    bd24:	48 89 e5             	mov    %rsp,%rbp
    bd27:	89 fa                	mov    %edi,%edx
    bd29:	89 f0                	mov    %esi,%eax
    bd2b:	66 89 55 fc          	mov    %dx,-0x4(%rbp)
    bd2f:	66 89 45 f8          	mov    %ax,-0x8(%rbp)
    bd33:	0f b7 45 fc          	movzwl -0x4(%rbp),%eax
    bd37:	66 2b 45 f8          	sub    -0x8(%rbp),%ax
    bd3b:	5d                   	pop    %rbp
    bd3c:	c3                   	retq   

000000000000bd3d <safe_mul_func_uint16_t_u_u>:
    bd3d:	f3 0f 1e fa          	endbr64 
    bd41:	55                   	push   %rbp
    bd42:	48 89 e5             	mov    %rsp,%rbp
    bd45:	89 fa                	mov    %edi,%edx
    bd47:	89 f0                	mov    %esi,%eax
    bd49:	66 89 55 fc          	mov    %dx,-0x4(%rbp)
    bd4d:	66 89 45 f8          	mov    %ax,-0x8(%rbp)
    bd51:	0f b7 45 fc          	movzwl -0x4(%rbp),%eax
    bd55:	66 0f af 45 f8       	imul   -0x8(%rbp),%ax
    bd5a:	5d                   	pop    %rbp
    bd5b:	c3                   	retq   

000000000000bd5c <safe_mod_func_uint16_t_u_u>:
    bd5c:	f3 0f 1e fa          	endbr64 
    bd60:	55                   	push   %rbp
    bd61:	48 89 e5             	mov    %rsp,%rbp
    bd64:	89 fa                	mov    %edi,%edx
    bd66:	89 f0                	mov    %esi,%eax
    bd68:	66 89 55 fc          	mov    %dx,-0x4(%rbp)
    bd6c:	66 89 45 f8          	mov    %ax,-0x8(%rbp)
    bd70:	66 83 7d f8 00       	cmpw   $0x0,-0x8(%rbp)
    bd75:	74 11                	je     bd88 <safe_mod_func_uint16_t_u_u+0x2c>
    bd77:	0f b7 45 fc          	movzwl -0x4(%rbp),%eax
    bd7b:	ba 00 00 00 00       	mov    $0x0,%edx
    bd80:	66 f7 75 f8          	divw   -0x8(%rbp)
    bd84:	89 d0                	mov    %edx,%eax
    bd86:	eb 04                	jmp    bd8c <safe_mod_func_uint16_t_u_u+0x30>
    bd88:	0f b7 45 fc          	movzwl -0x4(%rbp),%eax
    bd8c:	5d                   	pop    %rbp
    bd8d:	c3                   	retq   

000000000000bd8e <safe_div_func_uint16_t_u_u>:
    bd8e:	f3 0f 1e fa          	endbr64 
    bd92:	55                   	push   %rbp
    bd93:	48 89 e5             	mov    %rsp,%rbp
    bd96:	89 fa                	mov    %edi,%edx
    bd98:	89 f0                	mov    %esi,%eax
    bd9a:	66 89 55 fc          	mov    %dx,-0x4(%rbp)
    bd9e:	66 89 45 f8          	mov    %ax,-0x8(%rbp)
    bda2:	66 83 7d f8 00       	cmpw   $0x0,-0x8(%rbp)
    bda7:	74 0f                	je     bdb8 <safe_div_func_uint16_t_u_u+0x2a>
    bda9:	0f b7 45 fc          	movzwl -0x4(%rbp),%eax
    bdad:	ba 00 00 00 00       	mov    $0x0,%edx
    bdb2:	66 f7 75 f8          	divw   -0x8(%rbp)
    bdb6:	eb 04                	jmp    bdbc <safe_div_func_uint16_t_u_u+0x2e>
    bdb8:	0f b7 45 fc          	movzwl -0x4(%rbp),%eax
    bdbc:	5d                   	pop    %rbp
    bdbd:	c3                   	retq   

000000000000bdbe <safe_lshift_func_uint16_t_u_s>:
    bdbe:	f3 0f 1e fa          	endbr64 
    bdc2:	55                   	push   %rbp
    bdc3:	48 89 e5             	mov    %rsp,%rbp
    bdc6:	89 f8                	mov    %edi,%eax
    bdc8:	89 75 f8             	mov    %esi,-0x8(%rbp)
    bdcb:	66 89 45 fc          	mov    %ax,-0x4(%rbp)
    bdcf:	83 7d f8 00          	cmpl   $0x0,-0x8(%rbp)
    bdd3:	78 2b                	js     be00 <safe_lshift_func_uint16_t_u_s+0x42>
    bdd5:	83 7d f8 1f          	cmpl   $0x1f,-0x8(%rbp)
    bdd9:	7f 25                	jg     be00 <safe_lshift_func_uint16_t_u_s+0x42>
    bddb:	0f b7 55 fc          	movzwl -0x4(%rbp),%edx
    bddf:	8b 45 f8             	mov    -0x8(%rbp),%eax
    bde2:	be ff ff 00 00       	mov    $0xffff,%esi
    bde7:	89 c1                	mov    %eax,%ecx
    bde9:	d3 fe                	sar    %cl,%esi
    bdeb:	89 f0                	mov    %esi,%eax
    bded:	39 c2                	cmp    %eax,%edx
    bdef:	7f 0f                	jg     be00 <safe_lshift_func_uint16_t_u_s+0x42>
    bdf1:	0f b7 55 fc          	movzwl -0x4(%rbp),%edx
    bdf5:	8b 45 f8             	mov    -0x8(%rbp),%eax
    bdf8:	89 c1                	mov    %eax,%ecx
    bdfa:	d3 e2                	shl    %cl,%edx
    bdfc:	89 d0                	mov    %edx,%eax
    bdfe:	eb 04                	jmp    be04 <safe_lshift_func_uint16_t_u_s+0x46>
    be00:	0f b7 45 fc          	movzwl -0x4(%rbp),%eax
    be04:	5d                   	pop    %rbp
    be05:	c3                   	retq   

000000000000be06 <safe_lshift_func_uint16_t_u_u>:
    be06:	f3 0f 1e fa          	endbr64 
    be0a:	55                   	push   %rbp
    be0b:	48 89 e5             	mov    %rsp,%rbp
    be0e:	89 f8                	mov    %edi,%eax
    be10:	89 75 f8             	mov    %esi,-0x8(%rbp)
    be13:	66 89 45 fc          	mov    %ax,-0x4(%rbp)
    be17:	83 7d f8 1f          	cmpl   $0x1f,-0x8(%rbp)
    be1b:	77 25                	ja     be42 <safe_lshift_func_uint16_t_u_u+0x3c>
    be1d:	0f b7 55 fc          	movzwl -0x4(%rbp),%edx
    be21:	8b 45 f8             	mov    -0x8(%rbp),%eax
    be24:	be ff ff 00 00       	mov    $0xffff,%esi
    be29:	89 c1                	mov    %eax,%ecx
    be2b:	d3 fe                	sar    %cl,%esi
    be2d:	89 f0                	mov    %esi,%eax
    be2f:	39 c2                	cmp    %eax,%edx
    be31:	7f 0f                	jg     be42 <safe_lshift_func_uint16_t_u_u+0x3c>
    be33:	0f b7 55 fc          	movzwl -0x4(%rbp),%edx
    be37:	8b 45 f8             	mov    -0x8(%rbp),%eax
    be3a:	89 c1                	mov    %eax,%ecx
    be3c:	d3 e2                	shl    %cl,%edx
    be3e:	89 d0                	mov    %edx,%eax
    be40:	eb 04                	jmp    be46 <safe_lshift_func_uint16_t_u_u+0x40>
    be42:	0f b7 45 fc          	movzwl -0x4(%rbp),%eax
    be46:	5d                   	pop    %rbp
    be47:	c3                   	retq   

000000000000be48 <safe_rshift_func_uint16_t_u_s>:
    be48:	f3 0f 1e fa          	endbr64 
    be4c:	55                   	push   %rbp
    be4d:	48 89 e5             	mov    %rsp,%rbp
    be50:	89 f8                	mov    %edi,%eax
    be52:	89 75 f8             	mov    %esi,-0x8(%rbp)
    be55:	66 89 45 fc          	mov    %ax,-0x4(%rbp)
    be59:	83 7d f8 00          	cmpl   $0x0,-0x8(%rbp)
    be5d:	78 15                	js     be74 <safe_rshift_func_uint16_t_u_s+0x2c>
    be5f:	83 7d f8 1f          	cmpl   $0x1f,-0x8(%rbp)
    be63:	7f 0f                	jg     be74 <safe_rshift_func_uint16_t_u_s+0x2c>
    be65:	0f b7 55 fc          	movzwl -0x4(%rbp),%edx
    be69:	8b 45 f8             	mov    -0x8(%rbp),%eax
    be6c:	89 c1                	mov    %eax,%ecx
    be6e:	d3 fa                	sar    %cl,%edx
    be70:	89 d0                	mov    %edx,%eax
    be72:	eb 04                	jmp    be78 <safe_rshift_func_uint16_t_u_s+0x30>
    be74:	0f b7 45 fc          	movzwl -0x4(%rbp),%eax
    be78:	5d                   	pop    %rbp
    be79:	c3                   	retq   

000000000000be7a <safe_rshift_func_uint16_t_u_u>:
    be7a:	f3 0f 1e fa          	endbr64 
    be7e:	55                   	push   %rbp
    be7f:	48 89 e5             	mov    %rsp,%rbp
    be82:	89 f8                	mov    %edi,%eax
    be84:	89 75 f8             	mov    %esi,-0x8(%rbp)
    be87:	66 89 45 fc          	mov    %ax,-0x4(%rbp)
    be8b:	83 7d f8 1f          	cmpl   $0x1f,-0x8(%rbp)
    be8f:	77 0f                	ja     bea0 <safe_rshift_func_uint16_t_u_u+0x26>
    be91:	0f b7 55 fc          	movzwl -0x4(%rbp),%edx
    be95:	8b 45 f8             	mov    -0x8(%rbp),%eax
    be98:	89 c1                	mov    %eax,%ecx
    be9a:	d3 fa                	sar    %cl,%edx
    be9c:	89 d0                	mov    %edx,%eax
    be9e:	eb 04                	jmp    bea4 <safe_rshift_func_uint16_t_u_u+0x2a>
    bea0:	0f b7 45 fc          	movzwl -0x4(%rbp),%eax
    bea4:	5d                   	pop    %rbp
    bea5:	c3                   	retq   

000000000000bea6 <safe_unary_minus_func_uint32_t_u>:
    bea6:	f3 0f 1e fa          	endbr64 
    beaa:	55                   	push   %rbp
    beab:	48 89 e5             	mov    %rsp,%rbp
    beae:	89 7d fc             	mov    %edi,-0x4(%rbp)
    beb1:	8b 45 fc             	mov    -0x4(%rbp),%eax
    beb4:	f7 d8                	neg    %eax
    beb6:	5d                   	pop    %rbp
    beb7:	c3                   	retq   

000000000000beb8 <safe_add_func_uint32_t_u_u>:
    beb8:	f3 0f 1e fa          	endbr64 
    bebc:	55                   	push   %rbp
    bebd:	48 89 e5             	mov    %rsp,%rbp
    bec0:	89 7d fc             	mov    %edi,-0x4(%rbp)
    bec3:	89 75 f8             	mov    %esi,-0x8(%rbp)
    bec6:	8b 55 fc             	mov    -0x4(%rbp),%edx
    bec9:	8b 45 f8             	mov    -0x8(%rbp),%eax
    becc:	01 d0                	add    %edx,%eax
    bece:	5d                   	pop    %rbp
    becf:	c3                   	retq   

000000000000bed0 <safe_sub_func_uint32_t_u_u>:
    bed0:	f3 0f 1e fa          	endbr64 
    bed4:	55                   	push   %rbp
    bed5:	48 89 e5             	mov    %rsp,%rbp
    bed8:	89 7d fc             	mov    %edi,-0x4(%rbp)
    bedb:	89 75 f8             	mov    %esi,-0x8(%rbp)
    bede:	8b 45 fc             	mov    -0x4(%rbp),%eax
    bee1:	2b 45 f8             	sub    -0x8(%rbp),%eax
    bee4:	5d                   	pop    %rbp
    bee5:	c3                   	retq   

000000000000bee6 <safe_mul_func_uint32_t_u_u>:
    bee6:	f3 0f 1e fa          	endbr64 
    beea:	55                   	push   %rbp
    beeb:	48 89 e5             	mov    %rsp,%rbp
    beee:	89 7d fc             	mov    %edi,-0x4(%rbp)
    bef1:	89 75 f8             	mov    %esi,-0x8(%rbp)
    bef4:	8b 45 fc             	mov    -0x4(%rbp),%eax
    bef7:	0f af 45 f8          	imul   -0x8(%rbp),%eax
    befb:	5d                   	pop    %rbp
    befc:	c3                   	retq   

000000000000befd <safe_mod_func_uint32_t_u_u>:
    befd:	f3 0f 1e fa          	endbr64 
    bf01:	55                   	push   %rbp
    bf02:	48 89 e5             	mov    %rsp,%rbp
    bf05:	89 7d fc             	mov    %edi,-0x4(%rbp)
    bf08:	89 75 f8             	mov    %esi,-0x8(%rbp)
    bf0b:	83 7d f8 00          	cmpl   $0x0,-0x8(%rbp)
    bf0f:	74 0f                	je     bf20 <safe_mod_func_uint32_t_u_u+0x23>
    bf11:	8b 45 fc             	mov    -0x4(%rbp),%eax
    bf14:	ba 00 00 00 00       	mov    $0x0,%edx
    bf19:	f7 75 f8             	divl   -0x8(%rbp)
    bf1c:	89 d0                	mov    %edx,%eax
    bf1e:	eb 03                	jmp    bf23 <safe_mod_func_uint32_t_u_u+0x26>
    bf20:	8b 45 fc             	mov    -0x4(%rbp),%eax
    bf23:	5d                   	pop    %rbp
    bf24:	c3                   	retq   

000000000000bf25 <safe_div_func_uint32_t_u_u>:
    bf25:	f3 0f 1e fa          	endbr64 
    bf29:	55                   	push   %rbp
    bf2a:	48 89 e5             	mov    %rsp,%rbp
    bf2d:	89 7d fc             	mov    %edi,-0x4(%rbp)
    bf30:	89 75 f8             	mov    %esi,-0x8(%rbp)
    bf33:	83 7d f8 00          	cmpl   $0x0,-0x8(%rbp)
    bf37:	74 0d                	je     bf46 <safe_div_func_uint32_t_u_u+0x21>
    bf39:	8b 45 fc             	mov    -0x4(%rbp),%eax
    bf3c:	ba 00 00 00 00       	mov    $0x0,%edx
    bf41:	f7 75 f8             	divl   -0x8(%rbp)
    bf44:	eb 03                	jmp    bf49 <safe_div_func_uint32_t_u_u+0x24>
    bf46:	8b 45 fc             	mov    -0x4(%rbp),%eax
    bf49:	5d                   	pop    %rbp
    bf4a:	c3                   	retq   

000000000000bf4b <safe_lshift_func_uint32_t_u_s>:
    bf4b:	f3 0f 1e fa          	endbr64 
    bf4f:	55                   	push   %rbp
    bf50:	48 89 e5             	mov    %rsp,%rbp
    bf53:	89 7d fc             	mov    %edi,-0x4(%rbp)
    bf56:	89 75 f8             	mov    %esi,-0x8(%rbp)
    bf59:	83 7d f8 00          	cmpl   $0x0,-0x8(%rbp)
    bf5d:	78 27                	js     bf86 <safe_lshift_func_uint32_t_u_s+0x3b>
    bf5f:	83 7d f8 1f          	cmpl   $0x1f,-0x8(%rbp)
    bf63:	7f 21                	jg     bf86 <safe_lshift_func_uint32_t_u_s+0x3b>
    bf65:	8b 45 f8             	mov    -0x8(%rbp),%eax
    bf68:	ba ff ff ff ff       	mov    $0xffffffff,%edx
    bf6d:	89 c1                	mov    %eax,%ecx
    bf6f:	d3 ea                	shr    %cl,%edx
    bf71:	89 d0                	mov    %edx,%eax
    bf73:	39 45 fc             	cmp    %eax,-0x4(%rbp)
    bf76:	77 0e                	ja     bf86 <safe_lshift_func_uint32_t_u_s+0x3b>
    bf78:	8b 45 f8             	mov    -0x8(%rbp),%eax
    bf7b:	8b 55 fc             	mov    -0x4(%rbp),%edx
    bf7e:	89 c1                	mov    %eax,%ecx
    bf80:	d3 e2                	shl    %cl,%edx
    bf82:	89 d0                	mov    %edx,%eax
    bf84:	eb 03                	jmp    bf89 <safe_lshift_func_uint32_t_u_s+0x3e>
    bf86:	8b 45 fc             	mov    -0x4(%rbp),%eax
    bf89:	5d                   	pop    %rbp
    bf8a:	c3                   	retq   

000000000000bf8b <safe_lshift_func_uint32_t_u_u>:
    bf8b:	f3 0f 1e fa          	endbr64 
    bf8f:	55                   	push   %rbp
    bf90:	48 89 e5             	mov    %rsp,%rbp
    bf93:	89 7d fc             	mov    %edi,-0x4(%rbp)
    bf96:	89 75 f8             	mov    %esi,-0x8(%rbp)
    bf99:	83 7d f8 1f          	cmpl   $0x1f,-0x8(%rbp)
    bf9d:	77 21                	ja     bfc0 <safe_lshift_func_uint32_t_u_u+0x35>
    bf9f:	8b 45 f8             	mov    -0x8(%rbp),%eax
    bfa2:	ba ff ff ff ff       	mov    $0xffffffff,%edx
    bfa7:	89 c1                	mov    %eax,%ecx
    bfa9:	d3 ea                	shr    %cl,%edx
    bfab:	89 d0                	mov    %edx,%eax
    bfad:	39 45 fc             	cmp    %eax,-0x4(%rbp)
    bfb0:	77 0e                	ja     bfc0 <safe_lshift_func_uint32_t_u_u+0x35>
    bfb2:	8b 45 f8             	mov    -0x8(%rbp),%eax
    bfb5:	8b 55 fc             	mov    -0x4(%rbp),%edx
    bfb8:	89 c1                	mov    %eax,%ecx
    bfba:	d3 e2                	shl    %cl,%edx
    bfbc:	89 d0                	mov    %edx,%eax
    bfbe:	eb 03                	jmp    bfc3 <safe_lshift_func_uint32_t_u_u+0x38>
    bfc0:	8b 45 fc             	mov    -0x4(%rbp),%eax
    bfc3:	5d                   	pop    %rbp
    bfc4:	c3                   	retq   

000000000000bfc5 <safe_rshift_func_uint32_t_u_s>:
    bfc5:	f3 0f 1e fa          	endbr64 
    bfc9:	55                   	push   %rbp
    bfca:	48 89 e5             	mov    %rsp,%rbp
    bfcd:	89 7d fc             	mov    %edi,-0x4(%rbp)
    bfd0:	89 75 f8             	mov    %esi,-0x8(%rbp)
    bfd3:	83 7d f8 00          	cmpl   $0x0,-0x8(%rbp)
    bfd7:	78 14                	js     bfed <safe_rshift_func_uint32_t_u_s+0x28>
    bfd9:	83 7d f8 1f          	cmpl   $0x1f,-0x8(%rbp)
    bfdd:	7f 0e                	jg     bfed <safe_rshift_func_uint32_t_u_s+0x28>
    bfdf:	8b 45 f8             	mov    -0x8(%rbp),%eax
    bfe2:	8b 55 fc             	mov    -0x4(%rbp),%edx
    bfe5:	89 c1                	mov    %eax,%ecx
    bfe7:	d3 ea                	shr    %cl,%edx
    bfe9:	89 d0                	mov    %edx,%eax
    bfeb:	eb 03                	jmp    bff0 <safe_rshift_func_uint32_t_u_s+0x2b>
    bfed:	8b 45 fc             	mov    -0x4(%rbp),%eax
    bff0:	5d                   	pop    %rbp
    bff1:	c3                   	retq   

000000000000bff2 <safe_rshift_func_uint32_t_u_u>:
    bff2:	f3 0f 1e fa          	endbr64 
    bff6:	55                   	push   %rbp
    bff7:	48 89 e5             	mov    %rsp,%rbp
    bffa:	89 7d fc             	mov    %edi,-0x4(%rbp)
    bffd:	89 75 f8             	mov    %esi,-0x8(%rbp)
    c000:	83 7d f8 1f          	cmpl   $0x1f,-0x8(%rbp)
    c004:	77 0e                	ja     c014 <safe_rshift_func_uint32_t_u_u+0x22>
    c006:	8b 45 f8             	mov    -0x8(%rbp),%eax
    c009:	8b 55 fc             	mov    -0x4(%rbp),%edx
    c00c:	89 c1                	mov    %eax,%ecx
    c00e:	d3 ea                	shr    %cl,%edx
    c010:	89 d0                	mov    %edx,%eax
    c012:	eb 03                	jmp    c017 <safe_rshift_func_uint32_t_u_u+0x25>
    c014:	8b 45 fc             	mov    -0x4(%rbp),%eax
    c017:	5d                   	pop    %rbp
    c018:	c3                   	retq   

000000000000c019 <safe_unary_minus_func_uint64_t_u>:
    c019:	f3 0f 1e fa          	endbr64 
    c01d:	55                   	push   %rbp
    c01e:	48 89 e5             	mov    %rsp,%rbp
    c021:	48 89 7d f8          	mov    %rdi,-0x8(%rbp)
    c025:	48 8b 45 f8          	mov    -0x8(%rbp),%rax
    c029:	48 f7 d8             	neg    %rax
    c02c:	5d                   	pop    %rbp
    c02d:	c3                   	retq   

000000000000c02e <safe_add_func_uint64_t_u_u>:
    c02e:	f3 0f 1e fa          	endbr64 
    c032:	55                   	push   %rbp
    c033:	48 89 e5             	mov    %rsp,%rbp
    c036:	48 89 7d f8          	mov    %rdi,-0x8(%rbp)
    c03a:	48 89 75 f0          	mov    %rsi,-0x10(%rbp)
    c03e:	48 8b 55 f8          	mov    -0x8(%rbp),%rdx
    c042:	48 8b 45 f0          	mov    -0x10(%rbp),%rax
    c046:	48 01 d0             	add    %rdx,%rax
    c049:	5d                   	pop    %rbp
    c04a:	c3                   	retq   

000000000000c04b <safe_sub_func_uint64_t_u_u>:
    c04b:	f3 0f 1e fa          	endbr64 
    c04f:	55                   	push   %rbp
    c050:	48 89 e5             	mov    %rsp,%rbp
    c053:	48 89 7d f8          	mov    %rdi,-0x8(%rbp)
    c057:	48 89 75 f0          	mov    %rsi,-0x10(%rbp)
    c05b:	48 8b 45 f8          	mov    -0x8(%rbp),%rax
    c05f:	48 2b 45 f0          	sub    -0x10(%rbp),%rax
    c063:	5d                   	pop    %rbp
    c064:	c3                   	retq   

000000000000c065 <safe_mul_func_uint64_t_u_u>:
    c065:	f3 0f 1e fa          	endbr64 
    c069:	55                   	push   %rbp
    c06a:	48 89 e5             	mov    %rsp,%rbp
    c06d:	48 89 7d f8          	mov    %rdi,-0x8(%rbp)
    c071:	48 89 75 f0          	mov    %rsi,-0x10(%rbp)
    c075:	48 8b 45 f8          	mov    -0x8(%rbp),%rax
    c079:	48 0f af 45 f0       	imul   -0x10(%rbp),%rax
    c07e:	5d                   	pop    %rbp
    c07f:	c3                   	retq   

000000000000c080 <safe_mod_func_uint64_t_u_u>:
    c080:	f3 0f 1e fa          	endbr64 
    c084:	55                   	push   %rbp
    c085:	48 89 e5             	mov    %rsp,%rbp
    c088:	48 89 7d f8          	mov    %rdi,-0x8(%rbp)
    c08c:	48 89 75 f0          	mov    %rsi,-0x10(%rbp)
    c090:	48 83 7d f0 00       	cmpq   $0x0,-0x10(%rbp)
    c095:	74 12                	je     c0a9 <safe_mod_func_uint64_t_u_u+0x29>
    c097:	48 8b 45 f8          	mov    -0x8(%rbp),%rax
    c09b:	ba 00 00 00 00       	mov    $0x0,%edx
    c0a0:	48 f7 75 f0          	divq   -0x10(%rbp)
    c0a4:	48 89 d0             	mov    %rdx,%rax
    c0a7:	eb 04                	jmp    c0ad <safe_mod_func_uint64_t_u_u+0x2d>
    c0a9:	48 8b 45 f8          	mov    -0x8(%rbp),%rax
    c0ad:	5d                   	pop    %rbp
    c0ae:	c3                   	retq   

000000000000c0af <safe_div_func_uint64_t_u_u>:
    c0af:	f3 0f 1e fa          	endbr64 
    c0b3:	55                   	push   %rbp
    c0b4:	48 89 e5             	mov    %rsp,%rbp
    c0b7:	48 89 7d f8          	mov    %rdi,-0x8(%rbp)
    c0bb:	48 89 75 f0          	mov    %rsi,-0x10(%rbp)
    c0bf:	48 83 7d f0 00       	cmpq   $0x0,-0x10(%rbp)
    c0c4:	74 0f                	je     c0d5 <safe_div_func_uint64_t_u_u+0x26>
    c0c6:	48 8b 45 f8          	mov    -0x8(%rbp),%rax
    c0ca:	ba 00 00 00 00       	mov    $0x0,%edx
    c0cf:	48 f7 75 f0          	divq   -0x10(%rbp)
    c0d3:	eb 04                	jmp    c0d9 <safe_div_func_uint64_t_u_u+0x2a>
    c0d5:	48 8b 45 f8          	mov    -0x8(%rbp),%rax
    c0d9:	5d                   	pop    %rbp
    c0da:	c3                   	retq   

000000000000c0db <safe_lshift_func_uint64_t_u_s>:
    c0db:	f3 0f 1e fa          	endbr64 
    c0df:	55                   	push   %rbp
    c0e0:	48 89 e5             	mov    %rsp,%rbp
    c0e3:	48 89 7d f8          	mov    %rdi,-0x8(%rbp)
    c0e7:	89 75 f4             	mov    %esi,-0xc(%rbp)
    c0ea:	83 7d f4 00          	cmpl   $0x0,-0xc(%rbp)
    c0ee:	78 2f                	js     c11f <safe_lshift_func_uint64_t_u_s+0x44>
    c0f0:	83 7d f4 1f          	cmpl   $0x1f,-0xc(%rbp)
    c0f4:	7f 29                	jg     c11f <safe_lshift_func_uint64_t_u_s+0x44>
    c0f6:	8b 45 f4             	mov    -0xc(%rbp),%eax
    c0f9:	48 c7 c2 ff ff ff ff 	mov    $0xffffffffffffffff,%rdx
    c100:	89 c1                	mov    %eax,%ecx
    c102:	48 d3 ea             	shr    %cl,%rdx
    c105:	48 89 d0             	mov    %rdx,%rax
    c108:	48 39 45 f8          	cmp    %rax,-0x8(%rbp)
    c10c:	77 11                	ja     c11f <safe_lshift_func_uint64_t_u_s+0x44>
    c10e:	8b 45 f4             	mov    -0xc(%rbp),%eax
    c111:	48 8b 55 f8          	mov    -0x8(%rbp),%rdx
    c115:	89 c1                	mov    %eax,%ecx
    c117:	48 d3 e2             	shl    %cl,%rdx
    c11a:	48 89 d0             	mov    %rdx,%rax
    c11d:	eb 04                	jmp    c123 <safe_lshift_func_uint64_t_u_s+0x48>
    c11f:	48 8b 45 f8          	mov    -0x8(%rbp),%rax
    c123:	5d                   	pop    %rbp
    c124:	c3                   	retq   

000000000000c125 <safe_lshift_func_uint64_t_u_u>:
    c125:	f3 0f 1e fa          	endbr64 
    c129:	55                   	push   %rbp
    c12a:	48 89 e5             	mov    %rsp,%rbp
    c12d:	48 89 7d f8          	mov    %rdi,-0x8(%rbp)
    c131:	89 75 f4             	mov    %esi,-0xc(%rbp)
    c134:	83 7d f4 1f          	cmpl   $0x1f,-0xc(%rbp)
    c138:	77 29                	ja     c163 <safe_lshift_func_uint64_t_u_u+0x3e>
    c13a:	8b 45 f4             	mov    -0xc(%rbp),%eax
    c13d:	48 c7 c2 ff ff ff ff 	mov    $0xffffffffffffffff,%rdx
    c144:	89 c1                	mov    %eax,%ecx
    c146:	48 d3 ea             	shr    %cl,%rdx
    c149:	48 89 d0             	mov    %rdx,%rax
    c14c:	48 39 45 f8          	cmp    %rax,-0x8(%rbp)
    c150:	77 11                	ja     c163 <safe_lshift_func_uint64_t_u_u+0x3e>
    c152:	8b 45 f4             	mov    -0xc(%rbp),%eax
    c155:	48 8b 55 f8          	mov    -0x8(%rbp),%rdx
    c159:	89 c1                	mov    %eax,%ecx
    c15b:	48 d3 e2             	shl    %cl,%rdx
    c15e:	48 89 d0             	mov    %rdx,%rax
    c161:	eb 04                	jmp    c167 <safe_lshift_func_uint64_t_u_u+0x42>
    c163:	48 8b 45 f8          	mov    -0x8(%rbp),%rax
    c167:	5d                   	pop    %rbp
    c168:	c3                   	retq   

000000000000c169 <safe_rshift_func_uint64_t_u_s>:
    c169:	f3 0f 1e fa          	endbr64 
    c16d:	55                   	push   %rbp
    c16e:	48 89 e5             	mov    %rsp,%rbp
    c171:	48 89 7d f8          	mov    %rdi,-0x8(%rbp)
    c175:	89 75 f4             	mov    %esi,-0xc(%rbp)
    c178:	83 7d f4 00          	cmpl   $0x0,-0xc(%rbp)
    c17c:	78 17                	js     c195 <safe_rshift_func_uint64_t_u_s+0x2c>
    c17e:	83 7d f4 1f          	cmpl   $0x1f,-0xc(%rbp)
    c182:	7f 11                	jg     c195 <safe_rshift_func_uint64_t_u_s+0x2c>
    c184:	8b 45 f4             	mov    -0xc(%rbp),%eax
    c187:	48 8b 55 f8          	mov    -0x8(%rbp),%rdx
    c18b:	89 c1                	mov    %eax,%ecx
    c18d:	48 d3 ea             	shr    %cl,%rdx
    c190:	48 89 d0             	mov    %rdx,%rax
    c193:	eb 04                	jmp    c199 <safe_rshift_func_uint64_t_u_s+0x30>
    c195:	48 8b 45 f8          	mov    -0x8(%rbp),%rax
    c199:	5d                   	pop    %rbp
    c19a:	c3                   	retq   

000000000000c19b <safe_rshift_func_uint64_t_u_u>:
    c19b:	f3 0f 1e fa          	endbr64 
    c19f:	55                   	push   %rbp
    c1a0:	48 89 e5             	mov    %rsp,%rbp
    c1a3:	48 89 7d f8          	mov    %rdi,-0x8(%rbp)
    c1a7:	89 75 f4             	mov    %esi,-0xc(%rbp)
    c1aa:	83 7d f4 1f          	cmpl   $0x1f,-0xc(%rbp)
    c1ae:	77 11                	ja     c1c1 <safe_rshift_func_uint64_t_u_u+0x26>
    c1b0:	8b 45 f4             	mov    -0xc(%rbp),%eax
    c1b3:	48 8b 55 f8          	mov    -0x8(%rbp),%rdx
    c1b7:	89 c1                	mov    %eax,%ecx
    c1b9:	48 d3 ea             	shr    %cl,%rdx
    c1bc:	48 89 d0             	mov    %rdx,%rax
    c1bf:	eb 04                	jmp    c1c5 <safe_rshift_func_uint64_t_u_u+0x2a>
    c1c1:	48 8b 45 f8          	mov    -0x8(%rbp),%rax
    c1c5:	5d                   	pop    %rbp
    c1c6:	c3                   	retq   

000000000000c1c7 <safe_add_func_float_f_f>:
    c1c7:	f3 0f 1e fa          	endbr64 
    c1cb:	55                   	push   %rbp
    c1cc:	48 89 e5             	mov    %rsp,%rbp
    c1cf:	f3 0f 11 45 fc       	movss  %xmm0,-0x4(%rbp)
    c1d4:	f3 0f 11 4d f8       	movss  %xmm1,-0x8(%rbp)
    c1d9:	f3 0f 10 4d fc       	movss  -0x4(%rbp),%xmm1
    c1de:	f3 0f 10 05 42 37 01 	movss  0x13742(%rip),%xmm0        # 1f928 <l_288.5283+0x18>
    c1e5:	00 
    c1e6:	f3 0f 59 c8          	mulss  %xmm0,%xmm1
    c1ea:	f3 0f 10 55 f8       	movss  -0x8(%rbp),%xmm2
    c1ef:	f3 0f 10 05 31 37 01 	movss  0x13731(%rip),%xmm0        # 1f928 <l_288.5283+0x18>
    c1f6:	00 
    c1f7:	f3 0f 59 c2          	mulss  %xmm2,%xmm0
    c1fb:	f3 0f 58 c1          	addss  %xmm1,%xmm0
    c1ff:	f3 0f 10 0d 29 37 01 	movss  0x13729(%rip),%xmm1        # 1f930 <l_288.5283+0x20>
    c206:	00 
    c207:	0f 54 c1             	andps  %xmm1,%xmm0
    c20a:	0f 2f 05 2f 37 01 00 	comiss 0x1372f(%rip),%xmm0        # 1f940 <l_288.5283+0x30>
    c211:	76 07                	jbe    c21a <safe_add_func_float_f_f+0x53>
    c213:	f3 0f 10 45 fc       	movss  -0x4(%rbp),%xmm0
    c218:	eb 0a                	jmp    c224 <safe_add_func_float_f_f+0x5d>
    c21a:	f3 0f 10 45 fc       	movss  -0x4(%rbp),%xmm0
    c21f:	f3 0f 58 45 f8       	addss  -0x8(%rbp),%xmm0
    c224:	5d                   	pop    %rbp
    c225:	c3                   	retq   

000000000000c226 <safe_sub_func_float_f_f>:
    c226:	f3 0f 1e fa          	endbr64 
    c22a:	55                   	push   %rbp
    c22b:	48 89 e5             	mov    %rsp,%rbp
    c22e:	f3 0f 11 45 fc       	movss  %xmm0,-0x4(%rbp)
    c233:	f3 0f 11 4d f8       	movss  %xmm1,-0x8(%rbp)
    c238:	f3 0f 10 4d fc       	movss  -0x4(%rbp),%xmm1
    c23d:	f3 0f 10 05 e3 36 01 	movss  0x136e3(%rip),%xmm0        # 1f928 <l_288.5283+0x18>
    c244:	00 
    c245:	f3 0f 59 c1          	mulss  %xmm1,%xmm0
    c249:	f3 0f 10 55 f8       	movss  -0x8(%rbp),%xmm2
    c24e:	f3 0f 10 0d d2 36 01 	movss  0x136d2(%rip),%xmm1        # 1f928 <l_288.5283+0x18>
    c255:	00 
    c256:	f3 0f 59 ca          	mulss  %xmm2,%xmm1
    c25a:	f3 0f 5c c1          	subss  %xmm1,%xmm0
    c25e:	f3 0f 10 0d ca 36 01 	movss  0x136ca(%rip),%xmm1        # 1f930 <l_288.5283+0x20>
    c265:	00 
    c266:	0f 54 c1             	andps  %xmm1,%xmm0
    c269:	0f 2f 05 d0 36 01 00 	comiss 0x136d0(%rip),%xmm0        # 1f940 <l_288.5283+0x30>
    c270:	76 07                	jbe    c279 <safe_sub_func_float_f_f+0x53>
    c272:	f3 0f 10 45 fc       	movss  -0x4(%rbp),%xmm0
    c277:	eb 0a                	jmp    c283 <safe_sub_func_float_f_f+0x5d>
    c279:	f3 0f 10 45 fc       	movss  -0x4(%rbp),%xmm0
    c27e:	f3 0f 5c 45 f8       	subss  -0x8(%rbp),%xmm0
    c283:	5d                   	pop    %rbp
    c284:	c3                   	retq   

000000000000c285 <safe_mul_func_float_f_f>:
    c285:	f3 0f 1e fa          	endbr64 
    c289:	55                   	push   %rbp
    c28a:	48 89 e5             	mov    %rsp,%rbp
    c28d:	f3 0f 11 45 fc       	movss  %xmm0,-0x4(%rbp)
    c292:	f3 0f 11 4d f8       	movss  %xmm1,-0x8(%rbp)
    c297:	f3 0f 10 4d fc       	movss  -0x4(%rbp),%xmm1
    c29c:	f3 0f 10 05 a0 36 01 	movss  0x136a0(%rip),%xmm0        # 1f944 <l_288.5283+0x34>
    c2a3:	00 
    c2a4:	f3 0f 59 c8          	mulss  %xmm0,%xmm1
    c2a8:	f3 0f 10 55 f8       	movss  -0x8(%rbp),%xmm2
    c2ad:	f3 0f 10 05 93 36 01 	movss  0x13693(%rip),%xmm0        # 1f948 <l_288.5283+0x38>
    c2b4:	00 
    c2b5:	f3 0f 59 c2          	mulss  %xmm2,%xmm0
    c2b9:	f3 0f 59 c1          	mulss  %xmm1,%xmm0
    c2bd:	f3 0f 10 0d 6b 36 01 	movss  0x1366b(%rip),%xmm1        # 1f930 <l_288.5283+0x20>
    c2c4:	00 
    c2c5:	0f 54 c1             	andps  %xmm1,%xmm0
    c2c8:	0f 2f 05 7d 36 01 00 	comiss 0x1367d(%rip),%xmm0        # 1f94c <l_288.5283+0x3c>
    c2cf:	76 07                	jbe    c2d8 <safe_mul_func_float_f_f+0x53>
    c2d1:	f3 0f 10 45 fc       	movss  -0x4(%rbp),%xmm0
    c2d6:	eb 0a                	jmp    c2e2 <safe_mul_func_float_f_f+0x5d>
    c2d8:	f3 0f 10 45 fc       	movss  -0x4(%rbp),%xmm0
    c2dd:	f3 0f 59 45 f8       	mulss  -0x8(%rbp),%xmm0
    c2e2:	5d                   	pop    %rbp
    c2e3:	c3                   	retq   

000000000000c2e4 <safe_div_func_float_f_f>:
    c2e4:	f3 0f 1e fa          	endbr64 
    c2e8:	55                   	push   %rbp
    c2e9:	48 89 e5             	mov    %rsp,%rbp
    c2ec:	f3 0f 11 45 fc       	movss  %xmm0,-0x4(%rbp)
    c2f1:	f3 0f 11 4d f8       	movss  %xmm1,-0x8(%rbp)
    c2f6:	f3 0f 10 45 f8       	movss  -0x8(%rbp),%xmm0
    c2fb:	f3 0f 10 0d 2d 36 01 	movss  0x1362d(%rip),%xmm1        # 1f930 <l_288.5283+0x20>
    c302:	00 
    c303:	0f 54 c8             	andps  %xmm0,%xmm1
    c306:	f3 0f 10 05 42 36 01 	movss  0x13642(%rip),%xmm0        # 1f950 <l_288.5283+0x40>
    c30d:	00 
    c30e:	0f 2f c1             	comiss %xmm1,%xmm0
    c311:	0f 97 c0             	seta   %al
    c314:	83 f0 01             	xor    $0x1,%eax
    c317:	84 c0                	test   %al,%al
    c319:	75 56                	jne    c371 <safe_div_func_float_f_f+0x8d>
    c31b:	66 0f ef c0          	pxor   %xmm0,%xmm0
    c31f:	0f 2e 45 f8          	ucomiss -0x8(%rbp),%xmm0
    c323:	7a 0a                	jp     c32f <safe_div_func_float_f_f+0x4b>
    c325:	66 0f ef c0          	pxor   %xmm0,%xmm0
    c329:	0f 2e 45 f8          	ucomiss -0x8(%rbp),%xmm0
    c32d:	74 4e                	je     c37d <safe_div_func_float_f_f+0x99>
    c32f:	f3 0f 10 4d fc       	movss  -0x4(%rbp),%xmm1
    c334:	f3 0f 10 05 18 36 01 	movss  0x13618(%rip),%xmm0        # 1f954 <l_288.5283+0x44>
    c33b:	00 
    c33c:	f3 0f 59 c1          	mulss  %xmm1,%xmm0
    c340:	f3 0f 10 55 f8       	movss  -0x8(%rbp),%xmm2
    c345:	f3 0f 10 0d 0b 36 01 	movss  0x1360b(%rip),%xmm1        # 1f958 <l_288.5283+0x48>
    c34c:	00 
    c34d:	f3 0f 59 ca          	mulss  %xmm2,%xmm1
    c351:	f3 0f 5e c1          	divss  %xmm1,%xmm0
    c355:	f3 0f 10 0d d3 35 01 	movss  0x135d3(%rip),%xmm1        # 1f930 <l_288.5283+0x20>
    c35c:	00 
    c35d:	0f 54 c1             	andps  %xmm1,%xmm0
    c360:	0f 2f 05 f5 35 01 00 	comiss 0x135f5(%rip),%xmm0        # 1f95c <l_288.5283+0x4c>
    c367:	0f 97 c0             	seta   %al
    c36a:	83 f0 01             	xor    $0x1,%eax
    c36d:	84 c0                	test   %al,%al
    c36f:	74 0c                	je     c37d <safe_div_func_float_f_f+0x99>
    c371:	f3 0f 10 45 fc       	movss  -0x4(%rbp),%xmm0
    c376:	f3 0f 5e 45 f8       	divss  -0x8(%rbp),%xmm0
    c37b:	eb 05                	jmp    c382 <safe_div_func_float_f_f+0x9e>
    c37d:	f3 0f 10 45 fc       	movss  -0x4(%rbp),%xmm0
    c382:	5d                   	pop    %rbp
    c383:	c3                   	retq   

000000000000c384 <safe_add_func_double_f_f>:
    c384:	f3 0f 1e fa          	endbr64 
    c388:	55                   	push   %rbp
    c389:	48 89 e5             	mov    %rsp,%rbp
    c38c:	f2 0f 11 45 f8       	movsd  %xmm0,-0x8(%rbp)
    c391:	f2 0f 11 4d f0       	movsd  %xmm1,-0x10(%rbp)
    c396:	f2 0f 10 4d f8       	movsd  -0x8(%rbp),%xmm1
    c39b:	f2 0f 10 05 bd 35 01 	movsd  0x135bd(%rip),%xmm0        # 1f960 <l_288.5283+0x50>
    c3a2:	00 
    c3a3:	f2 0f 59 c8          	mulsd  %xmm0,%xmm1
    c3a7:	f2 0f 10 55 f0       	movsd  -0x10(%rbp),%xmm2
    c3ac:	f2 0f 10 05 ac 35 01 	movsd  0x135ac(%rip),%xmm0        # 1f960 <l_288.5283+0x50>
    c3b3:	00 
    c3b4:	f2 0f 59 c2          	mulsd  %xmm2,%xmm0
    c3b8:	f2 0f 58 c1          	addsd  %xmm1,%xmm0
    c3bc:	f3 0f 7e 0d ac 35 01 	movq   0x135ac(%rip),%xmm1        # 1f970 <l_288.5283+0x60>
    c3c3:	00 
    c3c4:	66 0f 54 c1          	andpd  %xmm1,%xmm0
    c3c8:	66 0f 2f 05 b0 35 01 	comisd 0x135b0(%rip),%xmm0        # 1f980 <l_288.5283+0x70>
    c3cf:	00 
    c3d0:	76 07                	jbe    c3d9 <safe_add_func_double_f_f+0x55>
    c3d2:	f2 0f 10 45 f8       	movsd  -0x8(%rbp),%xmm0
    c3d7:	eb 0a                	jmp    c3e3 <safe_add_func_double_f_f+0x5f>
    c3d9:	f2 0f 10 45 f8       	movsd  -0x8(%rbp),%xmm0
    c3de:	f2 0f 58 45 f0       	addsd  -0x10(%rbp),%xmm0
    c3e3:	5d                   	pop    %rbp
    c3e4:	c3                   	retq   

000000000000c3e5 <safe_sub_func_double_f_f>:
    c3e5:	f3 0f 1e fa          	endbr64 
    c3e9:	55                   	push   %rbp
    c3ea:	48 89 e5             	mov    %rsp,%rbp
    c3ed:	f2 0f 11 45 f8       	movsd  %xmm0,-0x8(%rbp)
    c3f2:	f2 0f 11 4d f0       	movsd  %xmm1,-0x10(%rbp)
    c3f7:	f2 0f 10 4d f8       	movsd  -0x8(%rbp),%xmm1
    c3fc:	f2 0f 10 05 5c 35 01 	movsd  0x1355c(%rip),%xmm0        # 1f960 <l_288.5283+0x50>
    c403:	00 
    c404:	f2 0f 59 c1          	mulsd  %xmm1,%xmm0
    c408:	f2 0f 10 55 f0       	movsd  -0x10(%rbp),%xmm2
    c40d:	f2 0f 10 0d 4b 35 01 	movsd  0x1354b(%rip),%xmm1        # 1f960 <l_288.5283+0x50>
    c414:	00 
    c415:	f2 0f 59 ca          	mulsd  %xmm2,%xmm1
    c419:	f2 0f 5c c1          	subsd  %xmm1,%xmm0
    c41d:	f3 0f 7e 0d 4b 35 01 	movq   0x1354b(%rip),%xmm1        # 1f970 <l_288.5283+0x60>
    c424:	00 
    c425:	66 0f 54 c1          	andpd  %xmm1,%xmm0
    c429:	66 0f 2f 05 4f 35 01 	comisd 0x1354f(%rip),%xmm0        # 1f980 <l_288.5283+0x70>
    c430:	00 
    c431:	76 07                	jbe    c43a <safe_sub_func_double_f_f+0x55>
    c433:	f2 0f 10 45 f8       	movsd  -0x8(%rbp),%xmm0
    c438:	eb 0a                	jmp    c444 <safe_sub_func_double_f_f+0x5f>
    c43a:	f2 0f 10 45 f8       	movsd  -0x8(%rbp),%xmm0
    c43f:	f2 0f 5c 45 f0       	subsd  -0x10(%rbp),%xmm0
    c444:	5d                   	pop    %rbp
    c445:	c3                   	retq   

000000000000c446 <safe_mul_func_double_f_f>:
    c446:	f3 0f 1e fa          	endbr64 
    c44a:	55                   	push   %rbp
    c44b:	48 89 e5             	mov    %rsp,%rbp
    c44e:	f2 0f 11 45 f8       	movsd  %xmm0,-0x8(%rbp)
    c453:	f2 0f 11 4d f0       	movsd  %xmm1,-0x10(%rbp)
    c458:	f2 0f 10 4d f8       	movsd  -0x8(%rbp),%xmm1
    c45d:	f2 0f 10 05 23 35 01 	movsd  0x13523(%rip),%xmm0        # 1f988 <l_288.5283+0x78>
    c464:	00 
    c465:	f2 0f 59 c8          	mulsd  %xmm0,%xmm1
    c469:	f2 0f 10 55 f0       	movsd  -0x10(%rbp),%xmm2
    c46e:	f2 0f 10 05 1a 35 01 	movsd  0x1351a(%rip),%xmm0        # 1f990 <l_288.5283+0x80>
    c475:	00 
    c476:	f2 0f 59 c2          	mulsd  %xmm2,%xmm0
    c47a:	f2 0f 59 c1          	mulsd  %xmm1,%xmm0
    c47e:	f3 0f 7e 0d ea 34 01 	movq   0x134ea(%rip),%xmm1        # 1f970 <l_288.5283+0x60>
    c485:	00 
    c486:	66 0f 54 c1          	andpd  %xmm1,%xmm0
    c48a:	66 0f 2f 05 06 35 01 	comisd 0x13506(%rip),%xmm0        # 1f998 <l_288.5283+0x88>
    c491:	00 
    c492:	76 07                	jbe    c49b <safe_mul_func_double_f_f+0x55>
    c494:	f2 0f 10 45 f8       	movsd  -0x8(%rbp),%xmm0
    c499:	eb 0a                	jmp    c4a5 <safe_mul_func_double_f_f+0x5f>
    c49b:	f2 0f 10 45 f8       	movsd  -0x8(%rbp),%xmm0
    c4a0:	f2 0f 59 45 f0       	mulsd  -0x10(%rbp),%xmm0
    c4a5:	5d                   	pop    %rbp
    c4a6:	c3                   	retq   

000000000000c4a7 <safe_div_func_double_f_f>:
    c4a7:	f3 0f 1e fa          	endbr64 
    c4ab:	55                   	push   %rbp
    c4ac:	48 89 e5             	mov    %rsp,%rbp
    c4af:	f2 0f 11 45 f8       	movsd  %xmm0,-0x8(%rbp)
    c4b4:	f2 0f 11 4d f0       	movsd  %xmm1,-0x10(%rbp)
    c4b9:	f2 0f 10 45 f0       	movsd  -0x10(%rbp),%xmm0
    c4be:	f3 0f 7e 0d aa 34 01 	movq   0x134aa(%rip),%xmm1        # 1f970 <l_288.5283+0x60>
    c4c5:	00 
    c4c6:	66 0f 54 c8          	andpd  %xmm0,%xmm1
    c4ca:	f2 0f 10 05 ce 34 01 	movsd  0x134ce(%rip),%xmm0        # 1f9a0 <l_288.5283+0x90>
    c4d1:	00 
    c4d2:	66 0f 2f c1          	comisd %xmm1,%xmm0
    c4d6:	0f 97 c0             	seta   %al
    c4d9:	83 f0 01             	xor    $0x1,%eax
    c4dc:	84 c0                	test   %al,%al
    c4de:	75 5a                	jne    c53a <safe_div_func_double_f_f+0x93>
    c4e0:	66 0f ef c0          	pxor   %xmm0,%xmm0
    c4e4:	66 0f 2e 45 f0       	ucomisd -0x10(%rbp),%xmm0
    c4e9:	7a 0b                	jp     c4f6 <safe_div_func_double_f_f+0x4f>
    c4eb:	66 0f ef c0          	pxor   %xmm0,%xmm0
    c4ef:	66 0f 2e 45 f0       	ucomisd -0x10(%rbp),%xmm0
    c4f4:	74 50                	je     c546 <safe_div_func_double_f_f+0x9f>
    c4f6:	f2 0f 10 4d f8       	movsd  -0x8(%rbp),%xmm1
    c4fb:	f2 0f 10 05 a5 34 01 	movsd  0x134a5(%rip),%xmm0        # 1f9a8 <l_288.5283+0x98>
    c502:	00 
    c503:	f2 0f 59 c1          	mulsd  %xmm1,%xmm0
    c507:	f2 0f 10 55 f0       	movsd  -0x10(%rbp),%xmm2
    c50c:	f2 0f 10 0d 9c 34 01 	movsd  0x1349c(%rip),%xmm1        # 1f9b0 <l_288.5283+0xa0>
    c513:	00 
    c514:	f2 0f 59 ca          	mulsd  %xmm2,%xmm1
    c518:	f2 0f 5e c1          	divsd  %xmm1,%xmm0
    c51c:	f3 0f 7e 0d 4c 34 01 	movq   0x1344c(%rip),%xmm1        # 1f970 <l_288.5283+0x60>
    c523:	00 
    c524:	66 0f 54 c1          	andpd  %xmm1,%xmm0
    c528:	66 0f 2f 05 88 34 01 	comisd 0x13488(%rip),%xmm0        # 1f9b8 <l_288.5283+0xa8>
    c52f:	00 
    c530:	0f 97 c0             	seta   %al
    c533:	83 f0 01             	xor    $0x1,%eax
    c536:	84 c0                	test   %al,%al
    c538:	74 0c                	je     c546 <safe_div_func_double_f_f+0x9f>
    c53a:	f2 0f 10 45 f8       	movsd  -0x8(%rbp),%xmm0
    c53f:	f2 0f 5e 45 f0       	divsd  -0x10(%rbp),%xmm0
    c544:	eb 05                	jmp    c54b <safe_div_func_double_f_f+0xa4>
    c546:	f2 0f 10 45 f8       	movsd  -0x8(%rbp),%xmm0
    c54b:	5d                   	pop    %rbp
    c54c:	c3                   	retq   

000000000000c54d <safe_convert_func_float_to_int32_t>:
    c54d:	f3 0f 1e fa          	endbr64 
    c551:	55                   	push   %rbp
    c552:	48 89 e5             	mov    %rsp,%rbp
    c555:	f3 0f 11 45 fc       	movss  %xmm0,-0x4(%rbp)
    c55a:	f3 0f 10 05 5e 34 01 	movss  0x1345e(%rip),%xmm0        # 1f9c0 <l_288.5283+0xb0>
    c561:	00 
    c562:	0f 2f 45 fc          	comiss -0x4(%rbp),%xmm0
    c566:	0f 93 c0             	setae  %al
    c569:	83 f0 01             	xor    $0x1,%eax
    c56c:	84 c0                	test   %al,%al
    c56e:	74 21                	je     c591 <safe_convert_func_float_to_int32_t+0x44>
    c570:	f3 0f 10 45 fc       	movss  -0x4(%rbp),%xmm0
    c575:	0f 2f 05 48 34 01 00 	comiss 0x13448(%rip),%xmm0        # 1f9c4 <l_288.5283+0xb4>
    c57c:	0f 93 c0             	setae  %al
    c57f:	83 f0 01             	xor    $0x1,%eax
    c582:	84 c0                	test   %al,%al
    c584:	74 0b                	je     c591 <safe_convert_func_float_to_int32_t+0x44>
    c586:	f3 0f 10 45 fc       	movss  -0x4(%rbp),%xmm0
    c58b:	f3 0f 2c c0          	cvttss2si %xmm0,%eax
    c58f:	eb 05                	jmp    c596 <safe_convert_func_float_to_int32_t+0x49>
    c591:	b8 ff ff ff 7f       	mov    $0x7fffffff,%eax
    c596:	5d                   	pop    %rbp
    c597:	c3                   	retq   

000000000000c598 <crc32_gentab>:
    c598:	f3 0f 1e fa          	endbr64 
    c59c:	55                   	push   %rbp
    c59d:	48 89 e5             	mov    %rsp,%rbp
    c5a0:	c7 45 fc 20 83 b8 ed 	movl   $0xedb88320,-0x4(%rbp)
    c5a7:	c7 45 f4 00 00 00 00 	movl   $0x0,-0xc(%rbp)
    c5ae:	eb 51                	jmp    c601 <crc32_gentab+0x69>
    c5b0:	8b 45 f4             	mov    -0xc(%rbp),%eax
    c5b3:	89 45 f0             	mov    %eax,-0x10(%rbp)
    c5b6:	c7 45 f8 08 00 00 00 	movl   $0x8,-0x8(%rbp)
    c5bd:	eb 1e                	jmp    c5dd <crc32_gentab+0x45>
    c5bf:	8b 45 f0             	mov    -0x10(%rbp),%eax
    c5c2:	83 e0 01             	and    $0x1,%eax
    c5c5:	85 c0                	test   %eax,%eax
    c5c7:	74 0d                	je     c5d6 <crc32_gentab+0x3e>
    c5c9:	8b 45 f0             	mov    -0x10(%rbp),%eax
    c5cc:	d1 e8                	shr    %eax
    c5ce:	33 45 fc             	xor    -0x4(%rbp),%eax
    c5d1:	89 45 f0             	mov    %eax,-0x10(%rbp)
    c5d4:	eb 03                	jmp    c5d9 <crc32_gentab+0x41>
    c5d6:	d1 6d f0             	shrl   -0x10(%rbp)
    c5d9:	83 6d f8 01          	subl   $0x1,-0x8(%rbp)
    c5dd:	83 7d f8 00          	cmpl   $0x0,-0x8(%rbp)
    c5e1:	7f dc                	jg     c5bf <crc32_gentab+0x27>
    c5e3:	8b 45 f4             	mov    -0xc(%rbp),%eax
    c5e6:	48 98                	cltq   
    c5e8:	48 8d 0c 85 00 00 00 	lea    0x0(,%rax,4),%rcx
    c5ef:	00 
    c5f0:	48 8d 15 c9 b3 01 00 	lea    0x1b3c9(%rip),%rdx        # 279c0 <crc32_tab>
    c5f7:	8b 45 f0             	mov    -0x10(%rbp),%eax
    c5fa:	89 04 11             	mov    %eax,(%rcx,%rdx,1)
    c5fd:	83 45 f4 01          	addl   $0x1,-0xc(%rbp)
    c601:	81 7d f4 ff 00 00 00 	cmpl   $0xff,-0xc(%rbp)
    c608:	7e a6                	jle    c5b0 <crc32_gentab+0x18>
    c60a:	90                   	nop
    c60b:	90                   	nop
    c60c:	5d                   	pop    %rbp
    c60d:	c3                   	retq   

000000000000c60e <crc32_byte>:
    c60e:	f3 0f 1e fa          	endbr64 
    c612:	55                   	push   %rbp
    c613:	48 89 e5             	mov    %rsp,%rbp
    c616:	89 f8                	mov    %edi,%eax
    c618:	88 45 fc             	mov    %al,-0x4(%rbp)
    c61b:	8b 05 ff 69 01 00    	mov    0x169ff(%rip),%eax        # 23020 <crc32_context>
    c621:	c1 e8 08             	shr    $0x8,%eax
    c624:	89 c1                	mov    %eax,%ecx
    c626:	0f b6 55 fc          	movzbl -0x4(%rbp),%edx
    c62a:	8b 05 f0 69 01 00    	mov    0x169f0(%rip),%eax        # 23020 <crc32_context>
    c630:	31 d0                	xor    %edx,%eax
    c632:	0f b6 c0             	movzbl %al,%eax
    c635:	89 c0                	mov    %eax,%eax
    c637:	48 8d 14 85 00 00 00 	lea    0x0(,%rax,4),%rdx
    c63e:	00 
    c63f:	48 8d 05 7a b3 01 00 	lea    0x1b37a(%rip),%rax        # 279c0 <crc32_tab>
    c646:	8b 04 02             	mov    (%rdx,%rax,1),%eax
    c649:	31 c8                	xor    %ecx,%eax
    c64b:	89 05 cf 69 01 00    	mov    %eax,0x169cf(%rip)        # 23020 <crc32_context>
    c651:	90                   	nop
    c652:	5d                   	pop    %rbp
    c653:	c3                   	retq   

000000000000c654 <crc32_8bytes>:
    c654:	f3 0f 1e fa          	endbr64 
    c658:	55                   	push   %rbp
    c659:	48 89 e5             	mov    %rsp,%rbp
    c65c:	48 83 ec 08          	sub    $0x8,%rsp
    c660:	48 89 7d f8          	mov    %rdi,-0x8(%rbp)
    c664:	48 8b 45 f8          	mov    -0x8(%rbp),%rax
    c668:	0f b6 c0             	movzbl %al,%eax
    c66b:	89 c7                	mov    %eax,%edi
    c66d:	e8 9c ff ff ff       	callq  c60e <crc32_byte>
    c672:	48 8b 45 f8          	mov    -0x8(%rbp),%rax
    c676:	48 c1 e8 08          	shr    $0x8,%rax
    c67a:	0f b6 c0             	movzbl %al,%eax
    c67d:	89 c7                	mov    %eax,%edi
    c67f:	e8 8a ff ff ff       	callq  c60e <crc32_byte>
    c684:	48 8b 45 f8          	mov    -0x8(%rbp),%rax
    c688:	48 c1 e8 10          	shr    $0x10,%rax
    c68c:	0f b6 c0             	movzbl %al,%eax
    c68f:	89 c7                	mov    %eax,%edi
    c691:	e8 78 ff ff ff       	callq  c60e <crc32_byte>
    c696:	48 8b 45 f8          	mov    -0x8(%rbp),%rax
    c69a:	48 c1 e8 18          	shr    $0x18,%rax
    c69e:	0f b6 c0             	movzbl %al,%eax
    c6a1:	89 c7                	mov    %eax,%edi
    c6a3:	e8 66 ff ff ff       	callq  c60e <crc32_byte>
    c6a8:	48 8b 45 f8          	mov    -0x8(%rbp),%rax
    c6ac:	48 c1 e8 20          	shr    $0x20,%rax
    c6b0:	0f b6 c0             	movzbl %al,%eax
    c6b3:	89 c7                	mov    %eax,%edi
    c6b5:	e8 54 ff ff ff       	callq  c60e <crc32_byte>
    c6ba:	48 8b 45 f8          	mov    -0x8(%rbp),%rax
    c6be:	48 c1 e8 28          	shr    $0x28,%rax
    c6c2:	0f b6 c0             	movzbl %al,%eax
    c6c5:	89 c7                	mov    %eax,%edi
    c6c7:	e8 42 ff ff ff       	callq  c60e <crc32_byte>
    c6cc:	48 8b 45 f8          	mov    -0x8(%rbp),%rax
    c6d0:	48 c1 e8 30          	shr    $0x30,%rax
    c6d4:	0f b6 c0             	movzbl %al,%eax
    c6d7:	89 c7                	mov    %eax,%edi
    c6d9:	e8 30 ff ff ff       	callq  c60e <crc32_byte>
    c6de:	48 8b 45 f8          	mov    -0x8(%rbp),%rax
    c6e2:	48 c1 e8 38          	shr    $0x38,%rax
    c6e6:	0f b6 c0             	movzbl %al,%eax
    c6e9:	89 c7                	mov    %eax,%edi
    c6eb:	e8 1e ff ff ff       	callq  c60e <crc32_byte>
    c6f0:	90                   	nop
    c6f1:	c9                   	leaveq 
    c6f2:	c3                   	retq   

000000000000c6f3 <transparent_crc>:
    c6f3:	f3 0f 1e fa          	endbr64 
    c6f7:	55                   	push   %rbp
    c6f8:	48 89 e5             	mov    %rsp,%rbp
    c6fb:	48 83 ec 20          	sub    $0x20,%rsp
    c6ff:	48 89 7d f8          	mov    %rdi,-0x8(%rbp)
    c703:	48 89 75 f0          	mov    %rsi,-0x10(%rbp)
    c707:	89 55 ec             	mov    %edx,-0x14(%rbp)
    c70a:	48 8b 45 f8          	mov    -0x8(%rbp),%rax
    c70e:	48 89 c7             	mov    %rax,%rdi
    c711:	e8 3e ff ff ff       	callq  c654 <crc32_8bytes>
    c716:	83 7d ec 00          	cmpl   $0x0,-0x14(%rbp)
    c71a:	74 22                	je     c73e <transparent_crc+0x4b>
    c71c:	8b 05 fe 68 01 00    	mov    0x168fe(%rip),%eax        # 23020 <crc32_context>
    c722:	f7 d0                	not    %eax
    c724:	89 c2                	mov    %eax,%edx
    c726:	48 8b 45 f0          	mov    -0x10(%rbp),%rax
    c72a:	48 89 c6             	mov    %rax,%rsi
    c72d:	48 8d 3d fc 08 01 00 	lea    0x108fc(%rip),%rdi        # 1d030 <_IO_stdin_used+0x30>
    c734:	b8 00 00 00 00       	mov    $0x0,%eax
    c739:	e8 42 e9 ff ff       	callq  b080 <printf@plt>
    c73e:	90                   	nop
    c73f:	c9                   	leaveq 
    c740:	c3                   	retq   

000000000000c741 <transparent_crc_bytes>:
    c741:	f3 0f 1e fa          	endbr64 
    c745:	55                   	push   %rbp
    c746:	48 89 e5             	mov    %rsp,%rbp
    c749:	48 83 ec 30          	sub    $0x30,%rsp
    c74d:	48 89 7d e8          	mov    %rdi,-0x18(%rbp)
    c751:	89 75 e4             	mov    %esi,-0x1c(%rbp)
    c754:	48 89 55 d8          	mov    %rdx,-0x28(%rbp)
    c758:	89 4d e0             	mov    %ecx,-0x20(%rbp)
    c75b:	c7 45 fc 00 00 00 00 	movl   $0x0,-0x4(%rbp)
    c762:	eb 1e                	jmp    c782 <transparent_crc_bytes+0x41>
    c764:	8b 45 fc             	mov    -0x4(%rbp),%eax
    c767:	48 63 d0             	movslq %eax,%rdx
    c76a:	48 8b 45 e8          	mov    -0x18(%rbp),%rax
    c76e:	48 01 d0             	add    %rdx,%rax
    c771:	0f b6 00             	movzbl (%rax),%eax
    c774:	0f b6 c0             	movzbl %al,%eax
    c777:	89 c7                	mov    %eax,%edi
    c779:	e8 90 fe ff ff       	callq  c60e <crc32_byte>
    c77e:	83 45 fc 01          	addl   $0x1,-0x4(%rbp)
    c782:	8b 45 fc             	mov    -0x4(%rbp),%eax
    c785:	3b 45 e4             	cmp    -0x1c(%rbp),%eax
    c788:	7c da                	jl     c764 <transparent_crc_bytes+0x23>
    c78a:	83 7d e0 00          	cmpl   $0x0,-0x20(%rbp)
    c78e:	74 22                	je     c7b2 <transparent_crc_bytes+0x71>
    c790:	8b 05 8a 68 01 00    	mov    0x1688a(%rip),%eax        # 23020 <crc32_context>
    c796:	f7 d0                	not    %eax
    c798:	89 c2                	mov    %eax,%edx
    c79a:	48 8b 45 d8          	mov    -0x28(%rbp),%rax
    c79e:	48 89 c6             	mov    %rax,%rsi
    c7a1:	48 8d 3d 88 08 01 00 	lea    0x10888(%rip),%rdi        # 1d030 <_IO_stdin_used+0x30>
    c7a8:	b8 00 00 00 00       	mov    $0x0,%eax
    c7ad:	e8 ce e8 ff ff       	callq  b080 <printf@plt>
    c7b2:	90                   	nop
    c7b3:	c9                   	leaveq 
    c7b4:	c3                   	retq   

000000000000c7b5 <func_1>:
    c7b5:	f3 0f 1e fa          	endbr64 
    c7b9:	55                   	push   %rbp
    c7ba:	48 89 e5             	mov    %rsp,%rbp
    c7bd:	41 57                	push   %r15
    c7bf:	41 56                	push   %r14
    c7c1:	41 55                	push   %r13
    c7c3:	41 54                	push   %r12
    c7c5:	53                   	push   %rbx
    c7c6:	48 81 ec 08 05 00 00 	sub    $0x508,%rsp
    c7cd:	64 48 8b 04 25 28 00 	mov    %fs:0x28,%rax
    c7d4:	00 00 
    c7d6:	48 89 45 c8          	mov    %rax,-0x38(%rbp)
    c7da:	31 c0                	xor    %eax,%eax
    c7dc:	48 8d 05 41 68 01 00 	lea    0x16841(%rip),%rax        # 23024 <g_3>
    c7e3:	48 89 85 f8 fa ff ff 	mov    %rax,-0x508(%rbp)
    c7ea:	48 8d 05 33 68 01 00 	lea    0x16833(%rip),%rax        # 23024 <g_3>
    c7f1:	48 89 85 30 fc ff ff 	mov    %rax,-0x3d0(%rbp)
    c7f8:	48 8d 05 25 68 01 00 	lea    0x16825(%rip),%rax        # 23024 <g_3>
    c7ff:	48 89 85 38 fc ff ff 	mov    %rax,-0x3c8(%rbp)
    c806:	48 8d 05 17 68 01 00 	lea    0x16817(%rip),%rax        # 23024 <g_3>
    c80d:	48 89 85 40 fc ff ff 	mov    %rax,-0x3c0(%rbp)
    c814:	48 8d 05 09 68 01 00 	lea    0x16809(%rip),%rax        # 23024 <g_3>
    c81b:	48 89 85 48 fc ff ff 	mov    %rax,-0x3b8(%rbp)
    c822:	48 8d 05 fb 67 01 00 	lea    0x167fb(%rip),%rax        # 23024 <g_3>
    c829:	48 89 85 50 fc ff ff 	mov    %rax,-0x3b0(%rbp)
    c830:	48 8d 05 ed 67 01 00 	lea    0x167ed(%rip),%rax        # 23024 <g_3>
    c837:	48 89 85 58 fc ff ff 	mov    %rax,-0x3a8(%rbp)
    c83e:	48 8d 05 df 67 01 00 	lea    0x167df(%rip),%rax        # 23024 <g_3>
    c845:	48 89 85 60 fc ff ff 	mov    %rax,-0x3a0(%rbp)
    c84c:	48 8d 05 d1 67 01 00 	lea    0x167d1(%rip),%rax        # 23024 <g_3>
    c853:	48 89 85 68 fc ff ff 	mov    %rax,-0x398(%rbp)
    c85a:	48 c7 85 70 fc ff ff 	movq   $0x0,-0x390(%rbp)
    c861:	00 00 00 00 
    c865:	48 8d 05 b8 67 01 00 	lea    0x167b8(%rip),%rax        # 23024 <g_3>
    c86c:	48 89 85 78 fc ff ff 	mov    %rax,-0x388(%rbp)
    c873:	48 8d 05 aa 67 01 00 	lea    0x167aa(%rip),%rax        # 23024 <g_3>
    c87a:	48 89 85 80 fc ff ff 	mov    %rax,-0x380(%rbp)
    c881:	48 8d 05 9c 67 01 00 	lea    0x1679c(%rip),%rax        # 23024 <g_3>
    c888:	48 89 85 88 fc ff ff 	mov    %rax,-0x378(%rbp)
    c88f:	48 8d 05 8e 67 01 00 	lea    0x1678e(%rip),%rax        # 23024 <g_3>
    c896:	48 89 85 90 fc ff ff 	mov    %rax,-0x370(%rbp)
    c89d:	48 8d 05 80 67 01 00 	lea    0x16780(%rip),%rax        # 23024 <g_3>
    c8a4:	48 89 85 98 fc ff ff 	mov    %rax,-0x368(%rbp)
    c8ab:	48 8d 05 72 67 01 00 	lea    0x16772(%rip),%rax        # 23024 <g_3>
    c8b2:	48 89 85 a0 fc ff ff 	mov    %rax,-0x360(%rbp)
    c8b9:	48 8d 05 64 67 01 00 	lea    0x16764(%rip),%rax        # 23024 <g_3>
    c8c0:	48 89 85 a8 fc ff ff 	mov    %rax,-0x358(%rbp)
    c8c7:	48 8d 05 56 67 01 00 	lea    0x16756(%rip),%rax        # 23024 <g_3>
    c8ce:	48 89 85 b0 fc ff ff 	mov    %rax,-0x350(%rbp)
    c8d5:	48 c7 85 b8 fc ff ff 	movq   $0x0,-0x348(%rbp)
    c8dc:	00 00 00 00 
    c8e0:	48 8d 85 10 fe ff ff 	lea    -0x1f0(%rbp),%rax
    c8e7:	48 8d 15 52 70 01 00 	lea    0x17052(%rip),%rdx        # 23940 <g_4429+0x14>
    c8ee:	b9 36 00 00 00       	mov    $0x36,%ecx
    c8f3:	48 89 c7             	mov    %rax,%rdi
    c8f6:	48 89 d6             	mov    %rdx,%rsi
    c8f9:	f3 48 a5             	rep movsq %ds:(%rsi),%es:(%rdi)
    c8fc:	c7 85 e0 fa ff ff 7d 	movl   $0xa6bc2d7d,-0x520(%rbp)
    c903:	2d bc a6 
    c906:	c7 85 e4 fa ff ff 5a 	movl   $0xce3c15a,-0x51c(%rbp)
    c90d:	c1 e3 0c 
    c910:	48 8d 05 39 67 01 00 	lea    0x16739(%rip),%rax        # 23050 <g_188>
    c917:	48 89 85 00 fb ff ff 	mov    %rax,-0x500(%rbp)
    c91e:	48 c7 85 08 fb ff ff 	movq   $0x0,-0x4f8(%rbp)
    c925:	00 00 00 00 
    c929:	48 8d 85 c0 fc ff ff 	lea    -0x340(%rbp),%rax
    c930:	48 8d 15 49 07 01 00 	lea    0x10749(%rip),%rdx        # 1d080 <g_3489+0x20>
    c937:	b9 2a 00 00 00       	mov    $0x2a,%ecx
    c93c:	48 89 c7             	mov    %rax,%rdi
    c93f:	48 89 d6             	mov    %rdx,%rsi
    c942:	f3 48 a5             	rep movsq %ds:(%rsi),%es:(%rdi)
    c945:	c7 85 e8 fa ff ff c3 	movl   $0x836ba5c3,-0x518(%rbp)
    c94c:	a5 6b 83 
    c94f:	48 c7 85 10 fb ff ff 	movq   $0x0,-0x4f0(%rbp)
    c956:	00 00 00 00 
    c95a:	48 8d 05 37 8f 01 00 	lea    0x18f37(%rip),%rax        # 25898 <g_138>
    c961:	48 89 85 18 fb ff ff 	mov    %rax,-0x4e8(%rbp)
    c968:	48 8d 05 29 8f 01 00 	lea    0x18f29(%rip),%rax        # 25898 <g_138>
    c96f:	48 89 85 20 fb ff ff 	mov    %rax,-0x4e0(%rbp)
    c976:	48 8d 05 1b 8f 01 00 	lea    0x18f1b(%rip),%rax        # 25898 <g_138>
    c97d:	48 89 85 28 fb ff ff 	mov    %rax,-0x4d8(%rbp)
    c984:	48 8d 05 0d 8f 01 00 	lea    0x18f0d(%rip),%rax        # 25898 <g_138>
    c98b:	48 89 85 30 fb ff ff 	mov    %rax,-0x4d0(%rbp)
    c992:	48 8d 05 ff 8e 01 00 	lea    0x18eff(%rip),%rax        # 25898 <g_138>
    c999:	48 89 85 38 fb ff ff 	mov    %rax,-0x4c8(%rbp)
    c9a0:	48 8d 05 c5 6a 01 00 	lea    0x16ac5(%rip),%rax        # 2346c <g_810>
    c9a7:	48 89 85 40 fb ff ff 	mov    %rax,-0x4c0(%rbp)
    c9ae:	48 8d 05 81 66 01 00 	lea    0x16681(%rip),%rax        # 23036 <g_6+0x6>
    c9b5:	48 89 85 48 fb ff ff 	mov    %rax,-0x4b8(%rbp)
    c9bc:	48 8d 05 fd 6a 01 00 	lea    0x16afd(%rip),%rax        # 234c0 <g_1657>
    c9c3:	48 89 85 50 fb ff ff 	mov    %rax,-0x4b0(%rbp)
    c9ca:	66 c7 85 d6 fa ff ff 	movw   $0x42e9,-0x52a(%rbp)
    c9d1:	e9 42 
    c9d3:	48 8d 05 ae 6e 01 00 	lea    0x16eae(%rip),%rax        # 23888 <g_2320>
    c9da:	48 89 85 58 fb ff ff 	mov    %rax,-0x4a8(%rbp)
    c9e1:	c7 85 ec fa ff ff 07 	movl   $0x7,-0x514(%rbp)
    c9e8:	00 00 00 
    c9eb:	48 b8 8f 7c 05 1f 63 	movabs $0x580170631f057c8f,%rax
    c9f2:	70 01 58 
    c9f5:	48 89 85 b0 fb ff ff 	mov    %rax,-0x450(%rbp)
    c9fc:	48 89 85 b8 fb ff ff 	mov    %rax,-0x448(%rbp)
    ca03:	48 89 85 c0 fb ff ff 	mov    %rax,-0x440(%rbp)
    ca0a:	48 89 85 c8 fb ff ff 	mov    %rax,-0x438(%rbp)
    ca11:	48 89 85 d0 fb ff ff 	mov    %rax,-0x430(%rbp)
    ca18:	48 89 85 d8 fb ff ff 	mov    %rax,-0x428(%rbp)
    ca1f:	48 89 85 e0 fb ff ff 	mov    %rax,-0x420(%rbp)
    ca26:	48 89 85 e8 fb ff ff 	mov    %rax,-0x418(%rbp)
    ca2d:	48 89 85 f0 fb ff ff 	mov    %rax,-0x410(%rbp)
    ca34:	48 89 85 f8 fb ff ff 	mov    %rax,-0x408(%rbp)
    ca3b:	48 89 85 00 fc ff ff 	mov    %rax,-0x400(%rbp)
    ca42:	48 89 85 08 fc ff ff 	mov    %rax,-0x3f8(%rbp)
    ca49:	48 89 85 10 fc ff ff 	mov    %rax,-0x3f0(%rbp)
    ca50:	48 89 85 18 fc ff ff 	mov    %rax,-0x3e8(%rbp)
    ca57:	48 89 85 20 fc ff ff 	mov    %rax,-0x3e0(%rbp)
    ca5e:	48 89 85 28 fc ff ff 	mov    %rax,-0x3d8(%rbp)
    ca65:	66 c7 85 d8 fa ff ff 	movw   $0x0,-0x528(%rbp)
    ca6c:	00 00 
    ca6e:	48 8d 05 db 8e 01 00 	lea    0x18edb(%rip),%rax        # 25950 <g_691>
    ca75:	48 89 85 60 fb ff ff 	mov    %rax,-0x4a0(%rbp)
    ca7c:	c7 85 f0 fa ff ff ff 	movl   $0xffffffff,-0x510(%rbp)
    ca83:	ff ff ff 
    ca86:	48 c7 85 68 fb ff ff 	movq   $0x0,-0x498(%rbp)
    ca8d:	00 00 00 00 
    ca91:	c7 85 f4 fa ff ff 93 	movl   $0x8a84d493,-0x50c(%rbp)
    ca98:	d4 84 8a 
    ca9b:	66 c7 85 da fa ff ff 	movw   $0xf673,-0x526(%rbp)
    caa2:	73 f6 
    caa4:	c7 85 dc fa ff ff 00 	movl   $0x0,-0x524(%rbp)
    caab:	00 00 00 
    caae:	eb 1e                	jmp    cace <func_1+0x319>
    cab0:	8b 85 dc fa ff ff    	mov    -0x524(%rbp),%eax
    cab6:	48 98                	cltq   
    cab8:	48 8d 15 21 6a 01 00 	lea    0x16a21(%rip),%rdx        # 234e0 <g_2130>
    cabf:	48 89 94 c5 90 fb ff 	mov    %rdx,-0x470(%rbp,%rax,8)
    cac6:	ff 
    cac7:	83 85 dc fa ff ff 01 	addl   $0x1,-0x524(%rbp)
    cace:	83 bd dc fa ff ff 03 	cmpl   $0x3,-0x524(%rbp)
    cad5:	7e d9                	jle    cab0 <func_1+0x2fb>
    cad7:	c7 85 dc fa ff ff 00 	movl   $0x0,-0x524(%rbp)
    cade:	00 00 00 
    cae1:	eb 1e                	jmp    cb01 <func_1+0x34c>
    cae3:	8b 85 dc fa ff ff    	mov    -0x524(%rbp),%eax
    cae9:	48 98                	cltq   
    caeb:	48 8d 15 a6 8d 01 00 	lea    0x18da6(%rip),%rdx        # 25898 <g_138>
    caf2:	48 89 94 c5 78 fb ff 	mov    %rdx,-0x488(%rbp,%rax,8)
    caf9:	ff 
    cafa:	83 85 dc fa ff ff 01 	addl   $0x1,-0x524(%rbp)
    cb01:	83 bd dc fa ff ff 00 	cmpl   $0x0,-0x524(%rbp)
    cb08:	7e d9                	jle    cae3 <func_1+0x32e>
    cb0a:	c7 85 dc fa ff ff 00 	movl   $0x0,-0x524(%rbp)
    cb11:	00 00 00 
    cb14:	eb 19                	jmp    cb2f <func_1+0x37a>
    cb16:	8b 85 dc fa ff ff    	mov    -0x524(%rbp),%eax
    cb1c:	48 98                	cltq   
    cb1e:	66 c7 84 45 72 fb ff 	movw   $0x1d17,-0x48e(%rbp,%rax,2)
    cb25:	ff 17 1d 
    cb28:	83 85 dc fa ff ff 01 	addl   $0x1,-0x524(%rbp)
    cb2f:	83 bd dc fa ff ff 02 	cmpl   $0x2,-0x524(%rbp)
    cb36:	7e de                	jle    cb16 <func_1+0x361>
    cb38:	c7 85 dc fa ff ff 00 	movl   $0x0,-0x524(%rbp)
    cb3f:	00 00 00 
    cb42:	eb 21                	jmp    cb65 <func_1+0x3b0>
    cb44:	8b 85 dc fa ff ff    	mov    -0x524(%rbp),%eax
    cb4a:	48 98                	cltq   
    cb4c:	48 bb c2 47 ef a5 06 	movabs $0x95146d06a5ef47c2,%rbx
    cb53:	6d 14 95 
    cb56:	48 89 9c c5 80 fb ff 	mov    %rbx,-0x480(%rbp,%rax,8)
    cb5d:	ff 
    cb5e:	83 85 dc fa ff ff 01 	addl   $0x1,-0x524(%rbp)
    cb65:	83 bd dc fa ff ff 01 	cmpl   $0x1,-0x524(%rbp)
    cb6c:	7e d6                	jle    cb44 <func_1+0x38f>
    cb6e:	0f b7 05 bd 64 01 00 	movzwl 0x164bd(%rip),%eax        # 23032 <g_6+0x2>
    cb75:	83 e8 01             	sub    $0x1,%eax
    cb78:	66 89 05 b3 64 01 00 	mov    %ax,0x164b3(%rip)        # 23032 <g_6+0x2>
    cb7f:	0f b7 05 5a 69 01 00 	movzwl 0x1695a(%rip),%eax        # 234e0 <g_2130>
    cb86:	44 0f b7 f0          	movzwl %ax,%r14d
    cb8a:	48 8b 05 8f aa 01 00 	mov    0x1aa8f(%rip),%rax        # 27620 <g_3488>
    cb91:	8b 18                	mov    (%rax),%ebx
    cb93:	b8 d9 87 4f 09       	mov    $0x94f87d9,%eax
    cb98:	41 89 c7             	mov    %eax,%r15d
    cb9b:	44 8b 25 5e 6b 01 00 	mov    0x16b5e(%rip),%r12d        # 23700 <g_2272+0x200>
    cba2:	44 8b 2d ef 6c 01 00 	mov    0x16cef(%rip),%r13d        # 23898 <g_2454>
    cba9:	8b 05 75 64 01 00    	mov    0x16475(%rip),%eax        # 23024 <g_3>
    cbaf:	89 c7                	mov    %eax,%edi
    cbb1:	e8 f5 59 00 00       	callq  125ab <func_27>
    cbb6:	44 89 ea             	mov    %r13d,%edx
    cbb9:	48 89 c6             	mov    %rax,%rsi
    cbbc:	48 8d 3d 61 64 01 00 	lea    0x16461(%rip),%rdi        # 23024 <g_3>
    cbc3:	e8 c6 59 00 00       	callq  1258e <func_23>
    cbc8:	48 8b 85 f8 fa ff ff 	mov    -0x508(%rbp),%rax
    cbcf:	8b 00                	mov    (%rax),%eax
    cbd1:	41 89 c5             	mov    %eax,%r13d
    cbd4:	48 8b 85 f8 fa ff ff 	mov    -0x508(%rbp),%rax
    cbdb:	8b 00                	mov    (%rax),%eax
    cbdd:	0f b7 c0             	movzwl %ax,%eax
    cbe0:	89 c6                	mov    %eax,%esi
    cbe2:	bf 11 8a 00 00       	mov    $0x8a11,%edi
    cbe7:	e8 51 f1 ff ff       	callq  bd3d <safe_mul_func_uint16_t_u_u>
    cbec:	0f b7 d0             	movzwl %ax,%edx
    cbef:	48 8b 85 f8 fa ff ff 	mov    -0x508(%rbp),%rax
    cbf6:	8b 00                	mov    (%rax),%eax
    cbf8:	21 d0                	and    %edx,%eax
    cbfa:	89 85 e0 fa ff ff    	mov    %eax,-0x520(%rbp)
    cc00:	83 bd e4 fa ff ff 00 	cmpl   $0x0,-0x51c(%rbp)
    cc07:	74 14                	je     cc1d <func_1+0x468>
    cc09:	48 8b 85 f8 fa ff ff 	mov    -0x508(%rbp),%rax
    cc10:	8b 00                	mov    (%rax),%eax
    cc12:	85 c0                	test   %eax,%eax
    cc14:	74 07                	je     cc1d <func_1+0x468>
    cc16:	b8 01 00 00 00       	mov    $0x1,%eax
    cc1b:	eb 05                	jmp    cc22 <func_1+0x46d>
    cc1d:	b8 00 00 00 00       	mov    $0x0,%eax
    cc22:	83 c8 07             	or     $0x7,%eax
    cc25:	89 c2                	mov    %eax,%edx
    cc27:	48 8b 85 f8 fa ff ff 	mov    -0x508(%rbp),%rax
    cc2e:	8b 00                	mov    (%rax),%eax
    cc30:	21 d0                	and    %edx,%eax
    cc32:	0f b7 c0             	movzwl %ax,%eax
    cc35:	be 03 00 00 00       	mov    $0x3,%esi
    cc3a:	89 c7                	mov    %eax,%edi
    cc3c:	e8 fc f0 ff ff       	callq  bd3d <safe_mul_func_uint16_t_u_u>
    cc41:	0f b7 c0             	movzwl %ax,%eax
    cc44:	44 89 ee             	mov    %r13d,%esi
    cc47:	89 c7                	mov    %eax,%edi
    cc49:	e8 af f2 ff ff       	callq  befd <safe_mod_func_uint32_t_u_u>
    cc4e:	48 8b 85 f8 fa ff ff 	mov    -0x508(%rbp),%rax
    cc55:	8b 00                	mov    (%rax),%eax
    cc57:	89 c2                	mov    %eax,%edx
    cc59:	48 8b 85 00 fb ff ff 	mov    -0x500(%rbp),%rax
    cc60:	88 10                	mov    %dl,(%rax)
    cc62:	48 8b 85 00 fb ff ff 	mov    -0x500(%rbp),%rax
    cc69:	0f b6 00             	movzbl (%rax),%eax
    cc6c:	0f be c0             	movsbl %al,%eax
    cc6f:	be 03 00 00 00       	mov    $0x3,%esi
    cc74:	89 c7                	mov    %eax,%edi
    cc76:	e8 73 e6 ff ff       	callq  b2ee <safe_lshift_func_int8_t_s_u>
    cc7b:	3c ff                	cmp    $0xff,%al
    cc7d:	0f 94 c0             	sete   %al
    cc80:	0f b6 d0             	movzbl %al,%edx
    cc83:	8b 85 14 fd ff ff    	mov    -0x2ec(%rbp),%eax
    cc89:	31 d0                	xor    %edx,%eax
    cc8b:	89 85 14 fd ff ff    	mov    %eax,-0x2ec(%rbp)
    cc91:	8b 85 14 fd ff ff    	mov    -0x2ec(%rbp),%eax
    cc97:	85 c0                	test   %eax,%eax
    cc99:	75 07                	jne    cca2 <func_1+0x4ed>
    cc9b:	83 bd e8 fa ff ff 00 	cmpl   $0x0,-0x518(%rbp)
    cca2:	44 89 e6             	mov    %r12d,%esi
    cca5:	bf 00 00 00 00       	mov    $0x0,%edi
    ccaa:	e8 4e f2 ff ff       	callq  befd <safe_mod_func_uint32_t_u_u>
    ccaf:	44 89 fe             	mov    %r15d,%esi
    ccb2:	89 c7                	mov    %eax,%edi
    ccb4:	e8 28 1d 00 00       	callq  e9e1 <func_18>
    ccb9:	48 89 c2             	mov    %rax,%rdx
    ccbc:	8b 05 66 63 01 00    	mov    0x16366(%rip),%eax        # 23028 <g_5>
    ccc2:	48 98                	cltq   
    ccc4:	48 89 d6             	mov    %rdx,%rsi
    ccc7:	48 89 c7             	mov    %rax,%rdi
    ccca:	e8 d8 0f 00 00       	callq  dca7 <func_15>
    cccf:	0f b6 c0             	movzbl %al,%eax
    ccd2:	4c 8b 25 bf ac 01 00 	mov    0x1acbf(%rip),%r12        # 27998 <g_4393>
    ccd9:	48 8d 95 f8 fa ff ff 	lea    -0x508(%rbp),%rdx
    cce0:	45 89 f0             	mov    %r14d,%r8d
    cce3:	48 8d 0d da 67 01 00 	lea    0x167da(%rip),%rcx        # 234c4 <g_1733>
    ccea:	89 de                	mov    %ebx,%esi
    ccec:	89 c7                	mov    %eax,%edi
    ccee:	e8 ea 01 00 00       	callq  cedd <func_9>
    ccf3:	49 89 04 24          	mov    %rax,(%r12)
    ccf7:	48 8b 05 02 a4 01 00 	mov    0x1a402(%rip),%rax        # 27100 <g_2896>
    ccfe:	c7 00 05 00 00 00    	movl   $0x5,(%rax)
    cd04:	48 8b 85 88 fb ff ff 	mov    -0x478(%rbp),%rax
    cd0b:	0f bf d8             	movswl %ax,%ebx
    cd0e:	8b 05 18 6c 01 00    	mov    0x16c18(%rip),%eax        # 2392c <g_4429>
    cd14:	41 89 c5             	mov    %eax,%r13d
    cd17:	44 0f bf a5 d8 fa ff 	movswl -0x528(%rbp),%r12d
    cd1e:	ff 
    cd1f:	8b 85 ec fa ff ff    	mov    -0x514(%rbp),%eax
    cd25:	48 98                	cltq   
    cd27:	48 89 85 20 fc ff ff 	mov    %rax,-0x3e0(%rbp)
    cd2e:	48 8b 85 20 fc ff ff 	mov    -0x3e0(%rbp),%rax
    cd35:	48 85 c0             	test   %rax,%rax
    cd38:	75 0c                	jne    cd46 <func_1+0x591>
    cd3a:	0f b7 85 76 fb ff ff 	movzwl -0x48a(%rbp),%eax
    cd41:	66 85 c0             	test   %ax,%ax
    cd44:	74 07                	je     cd4d <func_1+0x598>
    cd46:	b8 01 00 00 00       	mov    $0x1,%eax
    cd4b:	eb 05                	jmp    cd52 <func_1+0x59d>
    cd4d:	b8 00 00 00 00       	mov    $0x0,%eax
    cd52:	66 25 9b b5          	and    $0xb59b,%ax
    cd56:	0f bf d0             	movswl %ax,%edx
    cd59:	0f b7 85 d6 fa ff ff 	movzwl -0x52a(%rbp),%eax
    cd60:	89 c1                	mov    %eax,%ecx
    cd62:	48 8b 85 58 fb ff ff 	mov    -0x4a8(%rbp),%rax
    cd69:	88 08                	mov    %cl,(%rax)
    cd6b:	48 8b 85 58 fb ff ff 	mov    -0x4a8(%rbp),%rax
    cd72:	0f b6 00             	movzbl (%rax),%eax
    cd75:	84 c0                	test   %al,%al
    cd77:	75 0a                	jne    cd83 <func_1+0x5ce>
    cd79:	8b 05 19 6b 01 00    	mov    0x16b19(%rip),%eax        # 23898 <g_2454>
    cd7f:	85 c0                	test   %eax,%eax
    cd81:	74 07                	je     cd8a <func_1+0x5d5>
    cd83:	b8 01 00 00 00       	mov    $0x1,%eax
    cd88:	eb 05                	jmp    cd8f <func_1+0x5da>
    cd8a:	b8 00 00 00 00       	mov    $0x0,%eax
    cd8f:	98                   	cwtl   
    cd90:	89 d6                	mov    %edx,%esi
    cd92:	89 c7                	mov    %eax,%edi
    cd94:	e8 1a e6 ff ff       	callq  b3b3 <safe_add_func_int16_t_s_s>
    cd99:	89 c2                	mov    %eax,%edx
    cd9b:	48 8b 05 ee ab 01 00 	mov    0x1abee(%rip),%rax        # 27990 <g_4281>
    cda2:	48 0f bf d2          	movswq %dx,%rdx
    cda6:	48 89 10             	mov    %rdx,(%rax)
    cda9:	48 8b 00             	mov    (%rax),%rax
    cdac:	48 89 05 45 6b 01 00 	mov    %rax,0x16b45(%rip)        # 238f8 <g_2943>
    cdb3:	48 8b 05 3e 6b 01 00 	mov    0x16b3e(%rip),%rax        # 238f8 <g_2943>
    cdba:	48 85 c0             	test   %rax,%rax
    cdbd:	75 0d                	jne    cdcc <func_1+0x617>
    cdbf:	48 8b 05 ca ab 01 00 	mov    0x1abca(%rip),%rax        # 27990 <g_4281>
    cdc6:	48 8b 00             	mov    (%rax),%rax
    cdc9:	48 85 c0             	test   %rax,%rax
    cdcc:	48 8b 05 b5 a3 01 00 	mov    0x1a3b5(%rip),%rax        # 27188 <g_3054>
    cdd3:	8b 00                	mov    (%rax),%eax
    cdd5:	be ff ff ff ff       	mov    $0xffffffff,%esi
    cdda:	89 c7                	mov    %eax,%edi
    cddc:	e8 d5 e7 ff ff       	callq  b5b6 <safe_add_func_int32_t_s_s>
    cde1:	85 c0                	test   %eax,%eax
    cde3:	74 14                	je     cdf9 <func_1+0x644>
    cde5:	48 8b 05 9c a3 01 00 	mov    0x1a39c(%rip),%rax        # 27188 <g_3054>
    cdec:	8b 00                	mov    (%rax),%eax
    cdee:	85 c0                	test   %eax,%eax
    cdf0:	74 07                	je     cdf9 <func_1+0x644>
    cdf2:	b8 01 00 00 00       	mov    $0x1,%eax
    cdf7:	eb 05                	jmp    cdfe <func_1+0x649>
    cdf9:	b8 00 00 00 00       	mov    $0x0,%eax
    cdfe:	98                   	cwtl   
    cdff:	be 0d 00 00 00       	mov    $0xd,%esi
    ce04:	89 c7                	mov    %eax,%edi
    ce06:	e8 d6 e6 ff ff       	callq  b4e1 <safe_lshift_func_int16_t_s_u>
    ce0b:	98                   	cwtl   
    ce0c:	44 89 e6             	mov    %r12d,%esi
    ce0f:	89 c7                	mov    %eax,%edi
    ce11:	e8 14 e7 ff ff       	callq  b52a <safe_rshift_func_int16_t_s_s>
    ce16:	48 8b 15 23 ab 01 00 	mov    0x1ab23(%rip),%rdx        # 27940 <g_4186>
    ce1d:	48 8b 12             	mov    (%rdx),%rdx
    ce20:	8b 0a                	mov    (%rdx),%ecx
    ce22:	0f bf d0             	movswl %ax,%edx
    ce25:	48 8b 05 14 ab 01 00 	mov    0x1ab14(%rip),%rax        # 27940 <g_4186>
    ce2c:	48 8b 00             	mov    (%rax),%rax
    ce2f:	09 ca                	or     %ecx,%edx
    ce31:	89 10                	mov    %edx,(%rax)
    ce33:	48 8b 85 98 fb ff ff 	mov    -0x468(%rbp),%rax
    ce3a:	48 89 85 40 fb ff ff 	mov    %rax,-0x4c0(%rbp)
    ce41:	48 8b 85 48 fb ff ff 	mov    -0x4b8(%rbp),%rax
    ce48:	48 89 85 50 fb ff ff 	mov    %rax,-0x4b0(%rbp)
    ce4f:	48 8b 85 40 fb ff ff 	mov    -0x4c0(%rbp),%rax
    ce56:	48 3b 85 50 fb ff ff 	cmp    -0x4b0(%rbp),%rax
    ce5d:	48 8b 05 1c a1 01 00 	mov    0x1a11c(%rip),%rax        # 26f80 <g_1662>
    ce64:	48 8b 85 f8 fa ff ff 	mov    -0x508(%rbp),%rax
    ce6b:	8b 10                	mov    (%rax),%edx
    ce6d:	48 8b 85 f8 fa ff ff 	mov    -0x508(%rbp),%rax
    ce74:	83 ca f8             	or     $0xfffffff8,%edx
    ce77:	89 10                	mov    %edx,(%rax)
    ce79:	8b 10                	mov    (%rax),%edx
    ce7b:	0f b7 85 da fa ff ff 	movzwl -0x526(%rbp),%eax
    ce82:	39 c2                	cmp    %eax,%edx
    ce84:	0f 95 c0             	setne  %al
    ce87:	0f b6 c0             	movzbl %al,%eax
    ce8a:	44 89 ee             	mov    %r13d,%esi
    ce8d:	89 c7                	mov    %eax,%edi
    ce8f:	e8 0d e4 ff ff       	callq  b2a1 <safe_lshift_func_int8_t_s_s>
    ce94:	0f be c0             	movsbl %al,%eax
    ce97:	89 de                	mov    %ebx,%esi
    ce99:	89 c7                	mov    %eax,%edi
    ce9b:	e8 b5 e5 ff ff       	callq  b455 <safe_div_func_int16_t_s_s>
    cea0:	89 c2                	mov    %eax,%edx
    cea2:	48 8b 05 df a2 01 00 	mov    0x1a2df(%rip),%rax        # 27188 <g_3054>
    cea9:	0f bf d2             	movswl %dx,%edx
    ceac:	89 10                	mov    %edx,(%rax)
    ceae:	48 8b 85 f8 fa ff ff 	mov    -0x508(%rbp),%rax
    ceb5:	8b 00                	mov    (%rax),%eax
    ceb7:	48 8b 5d c8          	mov    -0x38(%rbp),%rbx
    cebb:	64 48 33 1c 25 28 00 	xor    %fs:0x28,%rbx
    cec2:	00 00 
    cec4:	74 05                	je     cecb <func_1+0x716>
    cec6:	e8 a5 e1 ff ff       	callq  b070 <__stack_chk_fail@plt>
    cecb:	48 81 c4 08 05 00 00 	add    $0x508,%rsp
    ced2:	5b                   	pop    %rbx
    ced3:	41 5c                	pop    %r12
    ced5:	41 5d                	pop    %r13
    ced7:	41 5e                	pop    %r14
    ced9:	41 5f                	pop    %r15
    cedb:	5d                   	pop    %rbp
    cedc:	c3                   	retq   

000000000000cedd <func_9>:
    cedd:	f3 0f 1e fa          	endbr64 
    cee1:	55                   	push   %rbp
    cee2:	48 89 e5             	mov    %rsp,%rbp
    cee5:	53                   	push   %rbx
    cee6:	48 81 ec 98 09 00 00 	sub    $0x998,%rsp
    ceed:	89 b5 78 f6 ff ff    	mov    %esi,-0x988(%rbp)
    cef3:	48 89 95 70 f6 ff ff 	mov    %rdx,-0x990(%rbp)
    cefa:	48 89 8d 68 f6 ff ff 	mov    %rcx,-0x998(%rbp)
    cf01:	44 89 c0             	mov    %r8d,%eax
    cf04:	89 fa                	mov    %edi,%edx
    cf06:	88 95 7c f6 ff ff    	mov    %dl,-0x984(%rbp)
    cf0c:	66 89 85 64 f6 ff ff 	mov    %ax,-0x99c(%rbp)
    cf13:	64 48 8b 04 25 28 00 	mov    %fs:0x28,%rax
    cf1a:	00 00 
    cf1c:	48 89 45 e8          	mov    %rax,-0x18(%rbp)
    cf20:	31 c0                	xor    %eax,%eax
    cf22:	c6 85 89 f6 ff ff 92 	movb   $0x92,-0x977(%rbp)
    cf29:	48 8d 05 98 ae 01 00 	lea    0x1ae98(%rip),%rax        # 27dc8 <g_74>
    cf30:	48 89 85 a0 f6 ff ff 	mov    %rax,-0x960(%rbp)
    cf37:	48 8d 85 a0 f6 ff ff 	lea    -0x960(%rbp),%rax
    cf3e:	48 89 85 b8 f6 ff ff 	mov    %rax,-0x948(%rbp)
    cf45:	c6 85 8a f6 ff ff 00 	movb   $0x0,-0x976(%rbp)
    cf4c:	c7 85 94 f6 ff ff 06 	movl   $0x6,-0x96c(%rbp)
    cf53:	00 00 00 
    cf56:	48 8d 05 13 a0 01 00 	lea    0x1a013(%rip),%rax        # 26f70 <g_1374>
    cf5d:	48 89 85 c0 f6 ff ff 	mov    %rax,-0x940(%rbp)
    cf64:	48 c7 85 c8 f6 ff ff 	movq   $0x0,-0x938(%rbp)
    cf6b:	00 00 00 00 
    cf6f:	c6 85 8b f6 ff ff f7 	movb   $0xf7,-0x975(%rbp)
    cf76:	48 8d 05 03 a7 01 00 	lea    0x1a703(%rip),%rax        # 27680 <g_3496+0x40>
    cf7d:	48 89 85 b0 f8 ff ff 	mov    %rax,-0x750(%rbp)
    cf84:	48 8d 05 f5 a6 01 00 	lea    0x1a6f5(%rip),%rax        # 27680 <g_3496+0x40>
    cf8b:	48 89 85 b8 f8 ff ff 	mov    %rax,-0x748(%rbp)
    cf92:	48 8d 05 e7 a6 01 00 	lea    0x1a6e7(%rip),%rax        # 27680 <g_3496+0x40>
    cf99:	48 89 85 c0 f8 ff ff 	mov    %rax,-0x740(%rbp)
    cfa0:	48 8d 05 d9 a6 01 00 	lea    0x1a6d9(%rip),%rax        # 27680 <g_3496+0x40>
    cfa7:	48 89 85 c8 f8 ff ff 	mov    %rax,-0x738(%rbp)
    cfae:	48 8d 05 cb a6 01 00 	lea    0x1a6cb(%rip),%rax        # 27680 <g_3496+0x40>
    cfb5:	48 89 85 d0 f8 ff ff 	mov    %rax,-0x730(%rbp)
    cfbc:	48 8d 05 bd a6 01 00 	lea    0x1a6bd(%rip),%rax        # 27680 <g_3496+0x40>
    cfc3:	48 89 85 d8 f8 ff ff 	mov    %rax,-0x728(%rbp)
    cfca:	48 8d 05 af a6 01 00 	lea    0x1a6af(%rip),%rax        # 27680 <g_3496+0x40>
    cfd1:	48 89 85 e0 f8 ff ff 	mov    %rax,-0x720(%rbp)
    cfd8:	48 8d 05 a1 a6 01 00 	lea    0x1a6a1(%rip),%rax        # 27680 <g_3496+0x40>
    cfdf:	48 89 85 e8 f8 ff ff 	mov    %rax,-0x718(%rbp)
    cfe6:	48 8d 05 93 a6 01 00 	lea    0x1a693(%rip),%rax        # 27680 <g_3496+0x40>
    cfed:	48 89 85 f0 f8 ff ff 	mov    %rax,-0x710(%rbp)
    cff4:	48 8d 05 85 a6 01 00 	lea    0x1a685(%rip),%rax        # 27680 <g_3496+0x40>
    cffb:	48 89 85 f8 f8 ff ff 	mov    %rax,-0x708(%rbp)
    d002:	48 8d 05 77 a6 01 00 	lea    0x1a677(%rip),%rax        # 27680 <g_3496+0x40>
    d009:	48 89 85 00 f9 ff ff 	mov    %rax,-0x700(%rbp)
    d010:	48 8d 05 69 a6 01 00 	lea    0x1a669(%rip),%rax        # 27680 <g_3496+0x40>
    d017:	48 89 85 08 f9 ff ff 	mov    %rax,-0x6f8(%rbp)
    d01e:	48 8d 05 5b a6 01 00 	lea    0x1a65b(%rip),%rax        # 27680 <g_3496+0x40>
    d025:	48 89 85 10 f9 ff ff 	mov    %rax,-0x6f0(%rbp)
    d02c:	48 8d 05 4d a6 01 00 	lea    0x1a64d(%rip),%rax        # 27680 <g_3496+0x40>
    d033:	48 89 85 18 f9 ff ff 	mov    %rax,-0x6e8(%rbp)
    d03a:	48 8d 05 3f a6 01 00 	lea    0x1a63f(%rip),%rax        # 27680 <g_3496+0x40>
    d041:	48 89 85 20 f9 ff ff 	mov    %rax,-0x6e0(%rbp)
    d048:	48 8d 05 31 a6 01 00 	lea    0x1a631(%rip),%rax        # 27680 <g_3496+0x40>
    d04f:	48 89 85 28 f9 ff ff 	mov    %rax,-0x6d8(%rbp)
    d056:	48 8d 05 23 a6 01 00 	lea    0x1a623(%rip),%rax        # 27680 <g_3496+0x40>
    d05d:	48 89 85 30 f9 ff ff 	mov    %rax,-0x6d0(%rbp)
    d064:	48 8d 05 15 a6 01 00 	lea    0x1a615(%rip),%rax        # 27680 <g_3496+0x40>
    d06b:	48 89 85 38 f9 ff ff 	mov    %rax,-0x6c8(%rbp)
    d072:	48 8d 05 07 a6 01 00 	lea    0x1a607(%rip),%rax        # 27680 <g_3496+0x40>
    d079:	48 89 85 40 f9 ff ff 	mov    %rax,-0x6c0(%rbp)
    d080:	48 8d 05 f9 a5 01 00 	lea    0x1a5f9(%rip),%rax        # 27680 <g_3496+0x40>
    d087:	48 89 85 48 f9 ff ff 	mov    %rax,-0x6b8(%rbp)
    d08e:	48 8d 05 eb a5 01 00 	lea    0x1a5eb(%rip),%rax        # 27680 <g_3496+0x40>
    d095:	48 89 85 50 f9 ff ff 	mov    %rax,-0x6b0(%rbp)
    d09c:	48 8d 05 dd a5 01 00 	lea    0x1a5dd(%rip),%rax        # 27680 <g_3496+0x40>
    d0a3:	48 89 85 58 f9 ff ff 	mov    %rax,-0x6a8(%rbp)
    d0aa:	48 8d 05 cf a5 01 00 	lea    0x1a5cf(%rip),%rax        # 27680 <g_3496+0x40>
    d0b1:	48 89 85 60 f9 ff ff 	mov    %rax,-0x6a0(%rbp)
    d0b8:	48 8d 05 c1 a5 01 00 	lea    0x1a5c1(%rip),%rax        # 27680 <g_3496+0x40>
    d0bf:	48 89 85 68 f9 ff ff 	mov    %rax,-0x698(%rbp)
    d0c6:	c7 85 98 f6 ff ff ff 	movl   $0xffffffff,-0x968(%rbp)
    d0cd:	ff ff ff 
    d0d0:	48 c7 85 10 f8 ff ff 	movq   $0x0,-0x7f0(%rbp)
    d0d7:	00 00 00 00 
    d0db:	48 8d 05 8a 63 01 00 	lea    0x1638a(%rip),%rax        # 2346c <g_810>
    d0e2:	48 89 85 18 f8 ff ff 	mov    %rax,-0x7e8(%rbp)
    d0e9:	48 8d 05 7c 63 01 00 	lea    0x1637c(%rip),%rax        # 2346c <g_810>
    d0f0:	48 89 85 20 f8 ff ff 	mov    %rax,-0x7e0(%rbp)
    d0f7:	48 c7 85 28 f8 ff ff 	movq   $0x0,-0x7d8(%rbp)
    d0fe:	00 00 00 00 
    d102:	48 8d 05 63 63 01 00 	lea    0x16363(%rip),%rax        # 2346c <g_810>
    d109:	48 89 85 30 f8 ff ff 	mov    %rax,-0x7d0(%rbp)
    d110:	48 8d 05 55 63 01 00 	lea    0x16355(%rip),%rax        # 2346c <g_810>
    d117:	48 89 85 38 f8 ff ff 	mov    %rax,-0x7c8(%rbp)
    d11e:	48 c7 85 40 f8 ff ff 	movq   $0x0,-0x7c0(%rbp)
    d125:	00 00 00 00 
    d129:	48 8d 05 3c 63 01 00 	lea    0x1633c(%rip),%rax        # 2346c <g_810>
    d130:	48 89 85 48 f8 ff ff 	mov    %rax,-0x7b8(%rbp)
    d137:	48 8d 05 2e 63 01 00 	lea    0x1632e(%rip),%rax        # 2346c <g_810>
    d13e:	48 89 85 50 f8 ff ff 	mov    %rax,-0x7b0(%rbp)
    d145:	48 c7 85 58 f8 ff ff 	movq   $0x0,-0x7a8(%rbp)
    d14c:	00 00 00 00 
    d150:	48 8d 05 15 63 01 00 	lea    0x16315(%rip),%rax        # 2346c <g_810>
    d157:	48 89 85 60 f8 ff ff 	mov    %rax,-0x7a0(%rbp)
    d15e:	48 8d 05 07 63 01 00 	lea    0x16307(%rip),%rax        # 2346c <g_810>
    d165:	48 89 85 68 f8 ff ff 	mov    %rax,-0x798(%rbp)
    d16c:	48 c7 85 70 f8 ff ff 	movq   $0x0,-0x790(%rbp)
    d173:	00 00 00 00 
    d177:	48 8d 05 ee 62 01 00 	lea    0x162ee(%rip),%rax        # 2346c <g_810>
    d17e:	48 89 85 78 f8 ff ff 	mov    %rax,-0x788(%rbp)
    d185:	48 8d 05 e0 62 01 00 	lea    0x162e0(%rip),%rax        # 2346c <g_810>
    d18c:	48 89 85 80 f8 ff ff 	mov    %rax,-0x780(%rbp)
    d193:	48 c7 85 88 f8 ff ff 	movq   $0x0,-0x778(%rbp)
    d19a:	00 00 00 00 
    d19e:	48 8d 05 c7 62 01 00 	lea    0x162c7(%rip),%rax        # 2346c <g_810>
    d1a5:	48 89 85 90 f8 ff ff 	mov    %rax,-0x770(%rbp)
    d1ac:	48 8d 05 b9 62 01 00 	lea    0x162b9(%rip),%rax        # 2346c <g_810>
    d1b3:	48 89 85 98 f8 ff ff 	mov    %rax,-0x768(%rbp)
    d1ba:	48 c7 85 a0 f8 ff ff 	movq   $0x0,-0x760(%rbp)
    d1c1:	00 00 00 00 
    d1c5:	48 8d 05 a0 62 01 00 	lea    0x162a0(%rip),%rax        # 2346c <g_810>
    d1cc:	48 89 85 a8 f8 ff ff 	mov    %rax,-0x758(%rbp)
    d1d3:	48 8d 05 8e 9e 01 00 	lea    0x19e8e(%rip),%rax        # 27068 <g_2551>
    d1da:	48 89 85 d0 f6 ff ff 	mov    %rax,-0x930(%rbp)
    d1e1:	48 8d 05 4a 5e 01 00 	lea    0x15e4a(%rip),%rax        # 23032 <g_6+0x2>
    d1e8:	48 89 85 a8 f6 ff ff 	mov    %rax,-0x958(%rbp)
    d1ef:	48 8d 85 a8 f6 ff ff 	lea    -0x958(%rbp),%rax
    d1f6:	48 89 85 b0 f6 ff ff 	mov    %rax,-0x950(%rbp)
    d1fd:	48 c7 85 e0 fc ff ff 	movq   $0x0,-0x320(%rbp)
    d204:	00 00 00 00 
    d208:	48 8d 85 b0 f6 ff ff 	lea    -0x950(%rbp),%rax
    d20f:	48 89 85 e8 fc ff ff 	mov    %rax,-0x318(%rbp)
    d216:	48 8d 85 b0 f6 ff ff 	lea    -0x950(%rbp),%rax
    d21d:	48 89 85 f0 fc ff ff 	mov    %rax,-0x310(%rbp)
    d224:	48 8d 85 b0 f6 ff ff 	lea    -0x950(%rbp),%rax
    d22b:	48 89 85 f8 fc ff ff 	mov    %rax,-0x308(%rbp)
    d232:	48 c7 85 00 fd ff ff 	movq   $0x0,-0x300(%rbp)
    d239:	00 00 00 00 
    d23d:	48 8d 85 b0 f6 ff ff 	lea    -0x950(%rbp),%rax
    d244:	48 89 85 08 fd ff ff 	mov    %rax,-0x2f8(%rbp)
    d24b:	48 c7 85 10 fd ff ff 	movq   $0x0,-0x2f0(%rbp)
    d252:	00 00 00 00 
    d256:	48 c7 85 18 fd ff ff 	movq   $0x0,-0x2e8(%rbp)
    d25d:	00 00 00 00 
    d261:	48 8d 85 b0 f6 ff ff 	lea    -0x950(%rbp),%rax
    d268:	48 89 85 20 fd ff ff 	mov    %rax,-0x2e0(%rbp)
    d26f:	48 8d 85 b0 f6 ff ff 	lea    -0x950(%rbp),%rax
    d276:	48 89 85 28 fd ff ff 	mov    %rax,-0x2d8(%rbp)
    d27d:	48 c7 85 30 fd ff ff 	movq   $0x0,-0x2d0(%rbp)
    d284:	00 00 00 00 
    d288:	48 8d 85 b0 f6 ff ff 	lea    -0x950(%rbp),%rax
    d28f:	48 89 85 38 fd ff ff 	mov    %rax,-0x2c8(%rbp)
    d296:	48 8d 85 b0 f6 ff ff 	lea    -0x950(%rbp),%rax
    d29d:	48 89 85 40 fd ff ff 	mov    %rax,-0x2c0(%rbp)
    d2a4:	48 8d 85 b0 f6 ff ff 	lea    -0x950(%rbp),%rax
    d2ab:	48 89 85 48 fd ff ff 	mov    %rax,-0x2b8(%rbp)
    d2b2:	48 c7 85 50 fd ff ff 	movq   $0x0,-0x2b0(%rbp)
    d2b9:	00 00 00 00 
    d2bd:	48 8d 85 b0 f6 ff ff 	lea    -0x950(%rbp),%rax
    d2c4:	48 89 85 58 fd ff ff 	mov    %rax,-0x2a8(%rbp)
    d2cb:	48 8d 85 b0 f6 ff ff 	lea    -0x950(%rbp),%rax
    d2d2:	48 89 85 60 fd ff ff 	mov    %rax,-0x2a0(%rbp)
    d2d9:	48 8d 85 b0 f6 ff ff 	lea    -0x950(%rbp),%rax
    d2e0:	48 89 85 68 fd ff ff 	mov    %rax,-0x298(%rbp)
    d2e7:	48 c7 85 70 fd ff ff 	movq   $0x0,-0x290(%rbp)
    d2ee:	00 00 00 00 
    d2f2:	48 8d 85 b0 f6 ff ff 	lea    -0x950(%rbp),%rax
    d2f9:	48 89 85 78 fd ff ff 	mov    %rax,-0x288(%rbp)
    d300:	48 8d 85 b0 f6 ff ff 	lea    -0x950(%rbp),%rax
    d307:	48 89 85 80 fd ff ff 	mov    %rax,-0x280(%rbp)
    d30e:	48 8d 85 b0 f6 ff ff 	lea    -0x950(%rbp),%rax
    d315:	48 89 85 88 fd ff ff 	mov    %rax,-0x278(%rbp)
    d31c:	48 c7 85 90 fd ff ff 	movq   $0x0,-0x270(%rbp)
    d323:	00 00 00 00 
    d327:	48 8d 85 b0 f6 ff ff 	lea    -0x950(%rbp),%rax
    d32e:	48 89 85 98 fd ff ff 	mov    %rax,-0x268(%rbp)
    d335:	48 8d 85 b0 f6 ff ff 	lea    -0x950(%rbp),%rax
    d33c:	48 89 85 a0 fd ff ff 	mov    %rax,-0x260(%rbp)
    d343:	48 c7 85 a8 fd ff ff 	movq   $0x0,-0x258(%rbp)
    d34a:	00 00 00 00 
    d34e:	48 8d 85 b0 f6 ff ff 	lea    -0x950(%rbp),%rax
    d355:	48 89 85 b0 fd ff ff 	mov    %rax,-0x250(%rbp)
    d35c:	48 c7 85 b8 fd ff ff 	movq   $0x0,-0x248(%rbp)
    d363:	00 00 00 00 
    d367:	48 8d 85 b0 f6 ff ff 	lea    -0x950(%rbp),%rax
    d36e:	48 89 85 c0 fd ff ff 	mov    %rax,-0x240(%rbp)
    d375:	48 8d 85 b0 f6 ff ff 	lea    -0x950(%rbp),%rax
    d37c:	48 89 85 c8 fd ff ff 	mov    %rax,-0x238(%rbp)
    d383:	48 8d 85 b0 f6 ff ff 	lea    -0x950(%rbp),%rax
    d38a:	48 89 85 d0 fd ff ff 	mov    %rax,-0x230(%rbp)
    d391:	48 8d 85 b0 f6 ff ff 	lea    -0x950(%rbp),%rax
    d398:	48 89 85 d8 fd ff ff 	mov    %rax,-0x228(%rbp)
    d39f:	48 8d 85 b0 f6 ff ff 	lea    -0x950(%rbp),%rax
    d3a6:	48 89 85 e0 fd ff ff 	mov    %rax,-0x220(%rbp)
    d3ad:	48 8d 85 b0 f6 ff ff 	lea    -0x950(%rbp),%rax
    d3b4:	48 89 85 e8 fd ff ff 	mov    %rax,-0x218(%rbp)
    d3bb:	48 c7 85 f0 fd ff ff 	movq   $0x0,-0x210(%rbp)
    d3c2:	00 00 00 00 
    d3c6:	48 8d 85 b0 f6 ff ff 	lea    -0x950(%rbp),%rax
    d3cd:	48 89 85 f8 fd ff ff 	mov    %rax,-0x208(%rbp)
    d3d4:	48 8d 85 b0 f6 ff ff 	lea    -0x950(%rbp),%rax
    d3db:	48 89 85 00 fe ff ff 	mov    %rax,-0x200(%rbp)
    d3e2:	48 c7 85 08 fe ff ff 	movq   $0x0,-0x1f8(%rbp)
    d3e9:	00 00 00 00 
    d3ed:	48 c7 85 10 fe ff ff 	movq   $0x0,-0x1f0(%rbp)
    d3f4:	00 00 00 00 
    d3f8:	48 c7 85 18 fe ff ff 	movq   $0x0,-0x1e8(%rbp)
    d3ff:	00 00 00 00 
    d403:	48 8d 85 b0 f6 ff ff 	lea    -0x950(%rbp),%rax
    d40a:	48 89 85 20 fe ff ff 	mov    %rax,-0x1e0(%rbp)
    d411:	48 8d 85 b0 f6 ff ff 	lea    -0x950(%rbp),%rax
    d418:	48 89 85 28 fe ff ff 	mov    %rax,-0x1d8(%rbp)
    d41f:	48 8d 85 b0 f6 ff ff 	lea    -0x950(%rbp),%rax
    d426:	48 89 85 30 fe ff ff 	mov    %rax,-0x1d0(%rbp)
    d42d:	48 8d 85 b0 f6 ff ff 	lea    -0x950(%rbp),%rax
    d434:	48 89 85 38 fe ff ff 	mov    %rax,-0x1c8(%rbp)
    d43b:	48 8d 85 b0 f6 ff ff 	lea    -0x950(%rbp),%rax
    d442:	48 89 85 40 fe ff ff 	mov    %rax,-0x1c0(%rbp)
    d449:	48 8d 85 b0 f6 ff ff 	lea    -0x950(%rbp),%rax
    d450:	48 89 85 48 fe ff ff 	mov    %rax,-0x1b8(%rbp)
    d457:	48 c7 85 50 fe ff ff 	movq   $0x0,-0x1b0(%rbp)
    d45e:	00 00 00 00 
    d462:	48 8d 85 b0 f6 ff ff 	lea    -0x950(%rbp),%rax
    d469:	48 89 85 58 fe ff ff 	mov    %rax,-0x1a8(%rbp)
    d470:	48 8d 85 b0 f6 ff ff 	lea    -0x950(%rbp),%rax
    d477:	48 89 85 60 fe ff ff 	mov    %rax,-0x1a0(%rbp)
    d47e:	48 8d 85 b0 f6 ff ff 	lea    -0x950(%rbp),%rax
    d485:	48 89 85 68 fe ff ff 	mov    %rax,-0x198(%rbp)
    d48c:	48 c7 85 70 fe ff ff 	movq   $0x0,-0x190(%rbp)
    d493:	00 00 00 00 
    d497:	48 8d 85 b0 f6 ff ff 	lea    -0x950(%rbp),%rax
    d49e:	48 89 85 78 fe ff ff 	mov    %rax,-0x188(%rbp)
    d4a5:	48 8d 85 b0 f6 ff ff 	lea    -0x950(%rbp),%rax
    d4ac:	48 89 85 80 fe ff ff 	mov    %rax,-0x180(%rbp)
    d4b3:	48 8d 85 b0 f6 ff ff 	lea    -0x950(%rbp),%rax
    d4ba:	48 89 85 88 fe ff ff 	mov    %rax,-0x178(%rbp)
    d4c1:	48 8d 85 b0 f6 ff ff 	lea    -0x950(%rbp),%rax
    d4c8:	48 89 85 90 fe ff ff 	mov    %rax,-0x170(%rbp)
    d4cf:	48 8d 85 b0 f6 ff ff 	lea    -0x950(%rbp),%rax
    d4d6:	48 89 85 98 fe ff ff 	mov    %rax,-0x168(%rbp)
    d4dd:	48 8d 85 b0 f6 ff ff 	lea    -0x950(%rbp),%rax
    d4e4:	48 89 85 a0 fe ff ff 	mov    %rax,-0x160(%rbp)
    d4eb:	48 8d 85 b0 f6 ff ff 	lea    -0x950(%rbp),%rax
    d4f2:	48 89 85 a8 fe ff ff 	mov    %rax,-0x158(%rbp)
    d4f9:	48 8d 85 b0 f6 ff ff 	lea    -0x950(%rbp),%rax
    d500:	48 89 85 b0 fe ff ff 	mov    %rax,-0x150(%rbp)
    d507:	48 8d 85 b0 f6 ff ff 	lea    -0x950(%rbp),%rax
    d50e:	48 89 85 b8 fe ff ff 	mov    %rax,-0x148(%rbp)
    d515:	48 8d 85 b0 f6 ff ff 	lea    -0x950(%rbp),%rax
    d51c:	48 89 85 c0 fe ff ff 	mov    %rax,-0x140(%rbp)
    d523:	48 8d 85 b0 f6 ff ff 	lea    -0x950(%rbp),%rax
    d52a:	48 89 85 c8 fe ff ff 	mov    %rax,-0x138(%rbp)
    d531:	48 8d 85 b0 f6 ff ff 	lea    -0x950(%rbp),%rax
    d538:	48 89 85 d0 fe ff ff 	mov    %rax,-0x130(%rbp)
    d53f:	48 8d 85 b0 f6 ff ff 	lea    -0x950(%rbp),%rax
    d546:	48 89 85 d8 fe ff ff 	mov    %rax,-0x128(%rbp)
    d54d:	48 8d 85 b0 f6 ff ff 	lea    -0x950(%rbp),%rax
    d554:	48 89 85 e0 fe ff ff 	mov    %rax,-0x120(%rbp)
    d55b:	48 8d 85 b0 f6 ff ff 	lea    -0x950(%rbp),%rax
    d562:	48 89 85 e8 fe ff ff 	mov    %rax,-0x118(%rbp)
    d569:	48 8d 85 b0 f6 ff ff 	lea    -0x950(%rbp),%rax
    d570:	48 89 85 f0 fe ff ff 	mov    %rax,-0x110(%rbp)
    d577:	48 8d 85 b0 f6 ff ff 	lea    -0x950(%rbp),%rax
    d57e:	48 89 85 f8 fe ff ff 	mov    %rax,-0x108(%rbp)
    d585:	48 8d 85 b0 f6 ff ff 	lea    -0x950(%rbp),%rax
    d58c:	48 89 85 00 ff ff ff 	mov    %rax,-0x100(%rbp)
    d593:	48 8d 85 b0 f6 ff ff 	lea    -0x950(%rbp),%rax
    d59a:	48 89 85 08 ff ff ff 	mov    %rax,-0xf8(%rbp)
    d5a1:	48 8d 85 b0 f6 ff ff 	lea    -0x950(%rbp),%rax
    d5a8:	48 89 85 10 ff ff ff 	mov    %rax,-0xf0(%rbp)
    d5af:	48 c7 85 18 ff ff ff 	movq   $0x0,-0xe8(%rbp)
    d5b6:	00 00 00 00 
    d5ba:	48 8d 85 b0 f6 ff ff 	lea    -0x950(%rbp),%rax
    d5c1:	48 89 85 20 ff ff ff 	mov    %rax,-0xe0(%rbp)
    d5c8:	48 c7 85 28 ff ff ff 	movq   $0x0,-0xd8(%rbp)
    d5cf:	00 00 00 00 
    d5d3:	48 c7 85 30 ff ff ff 	movq   $0x0,-0xd0(%rbp)
    d5da:	00 00 00 00 
    d5de:	48 8d 85 b0 f6 ff ff 	lea    -0x950(%rbp),%rax
    d5e5:	48 89 85 38 ff ff ff 	mov    %rax,-0xc8(%rbp)
    d5ec:	48 8d 85 b0 f6 ff ff 	lea    -0x950(%rbp),%rax
    d5f3:	48 89 85 40 ff ff ff 	mov    %rax,-0xc0(%rbp)
    d5fa:	48 c7 85 48 ff ff ff 	movq   $0x0,-0xb8(%rbp)
    d601:	00 00 00 00 
    d605:	48 c7 85 50 ff ff ff 	movq   $0x0,-0xb0(%rbp)
    d60c:	00 00 00 00 
    d610:	48 c7 85 58 ff ff ff 	movq   $0x0,-0xa8(%rbp)
    d617:	00 00 00 00 
    d61b:	48 8d 85 b0 f6 ff ff 	lea    -0x950(%rbp),%rax
    d622:	48 89 85 60 ff ff ff 	mov    %rax,-0xa0(%rbp)
    d629:	48 8d 85 b0 f6 ff ff 	lea    -0x950(%rbp),%rax
    d630:	48 89 85 68 ff ff ff 	mov    %rax,-0x98(%rbp)
    d637:	48 c7 85 70 ff ff ff 	movq   $0x0,-0x90(%rbp)
    d63e:	00 00 00 00 
    d642:	48 8d 85 b0 f6 ff ff 	lea    -0x950(%rbp),%rax
    d649:	48 89 85 78 ff ff ff 	mov    %rax,-0x88(%rbp)
    d650:	48 c7 45 80 00 00 00 	movq   $0x0,-0x80(%rbp)
    d657:	00 
    d658:	48 8d 85 b0 f6 ff ff 	lea    -0x950(%rbp),%rax
    d65f:	48 89 45 88          	mov    %rax,-0x78(%rbp)
    d663:	48 8d 85 b0 f6 ff ff 	lea    -0x950(%rbp),%rax
    d66a:	48 89 45 90          	mov    %rax,-0x70(%rbp)
    d66e:	48 8d 85 b0 f6 ff ff 	lea    -0x950(%rbp),%rax
    d675:	48 89 45 98          	mov    %rax,-0x68(%rbp)
    d679:	48 8d 85 b0 f6 ff ff 	lea    -0x950(%rbp),%rax
    d680:	48 89 45 a0          	mov    %rax,-0x60(%rbp)
    d684:	48 c7 45 a8 00 00 00 	movq   $0x0,-0x58(%rbp)
    d68b:	00 
    d68c:	48 8d 85 b0 f6 ff ff 	lea    -0x950(%rbp),%rax
    d693:	48 89 45 b0          	mov    %rax,-0x50(%rbp)
    d697:	48 8d 85 b0 f6 ff ff 	lea    -0x950(%rbp),%rax
    d69e:	48 89 45 b8          	mov    %rax,-0x48(%rbp)
    d6a2:	48 c7 45 c0 00 00 00 	movq   $0x0,-0x40(%rbp)
    d6a9:	00 
    d6aa:	48 c7 45 c8 00 00 00 	movq   $0x0,-0x38(%rbp)
    d6b1:	00 
    d6b2:	48 8d 85 b0 f6 ff ff 	lea    -0x950(%rbp),%rax
    d6b9:	48 89 45 d0          	mov    %rax,-0x30(%rbp)
    d6bd:	48 8d 85 b0 f6 ff ff 	lea    -0x950(%rbp),%rax
    d6c4:	48 89 45 d8          	mov    %rax,-0x28(%rbp)
    d6c8:	48 8d 85 e0 fc ff ff 	lea    -0x320(%rbp),%rax
    d6cf:	48 05 78 02 00 00    	add    $0x278,%rax
    d6d5:	48 89 85 d8 f6 ff ff 	mov    %rax,-0x928(%rbp)
    d6dc:	48 8d 05 a5 61 01 00 	lea    0x161a5(%rip),%rax        # 23888 <g_2320>
    d6e3:	48 89 85 e0 f6 ff ff 	mov    %rax,-0x920(%rbp)
    d6ea:	48 8d 05 8f 81 01 00 	lea    0x1818f(%rip),%rax        # 25880 <g_88>
    d6f1:	48 89 85 e8 f6 ff ff 	mov    %rax,-0x918(%rbp)
    d6f8:	c7 85 8c f6 ff ff 00 	movl   $0x0,-0x974(%rbp)
    d6ff:	00 00 00 
    d702:	eb 1a                	jmp    d71e <func_9+0x841>
    d704:	8b 85 8c f6 ff ff    	mov    -0x974(%rbp),%eax
    d70a:	48 98                	cltq   
    d70c:	c7 84 85 00 f7 ff ff 	movl   $0x44120cc7,-0x900(%rbp,%rax,4)
    d713:	c7 0c 12 44 
    d717:	83 85 8c f6 ff ff 01 	addl   $0x1,-0x974(%rbp)
    d71e:	83 bd 8c f6 ff ff 04 	cmpl   $0x4,-0x974(%rbp)
    d725:	7e dd                	jle    d704 <func_9+0x827>
    d727:	48 c7 05 2e 5d 01 00 	movq   $0x13,0x15d2e(%rip)        # 23460 <g_672>
    d72e:	13 00 00 00 
    d732:	e9 d0 04 00 00       	jmpq   dc07 <func_9+0xd2a>
    d737:	c7 85 9c f6 ff ff 48 	movl   $0xc0925548,-0x964(%rbp)
    d73e:	55 92 c0 
    d741:	48 8d 05 f8 a6 01 00 	lea    0x1a6f8(%rip),%rax        # 27e40 <g_1642>
    d748:	48 89 85 a0 f7 ff ff 	mov    %rax,-0x860(%rbp)
    d74f:	48 8d 05 ea a6 01 00 	lea    0x1a6ea(%rip),%rax        # 27e40 <g_1642>
    d756:	48 89 85 a8 f7 ff ff 	mov    %rax,-0x858(%rbp)
    d75d:	48 8d 05 dc a6 01 00 	lea    0x1a6dc(%rip),%rax        # 27e40 <g_1642>
    d764:	48 89 85 b0 f7 ff ff 	mov    %rax,-0x850(%rbp)
    d76b:	48 8d 05 ce a6 01 00 	lea    0x1a6ce(%rip),%rax        # 27e40 <g_1642>
    d772:	48 89 85 b8 f7 ff ff 	mov    %rax,-0x848(%rbp)
    d779:	48 8d 05 c0 a6 01 00 	lea    0x1a6c0(%rip),%rax        # 27e40 <g_1642>
    d780:	48 89 85 c0 f7 ff ff 	mov    %rax,-0x840(%rbp)
    d787:	48 8d 05 b2 a6 01 00 	lea    0x1a6b2(%rip),%rax        # 27e40 <g_1642>
    d78e:	48 89 85 c8 f7 ff ff 	mov    %rax,-0x838(%rbp)
    d795:	48 8d 05 a4 a6 01 00 	lea    0x1a6a4(%rip),%rax        # 27e40 <g_1642>
    d79c:	48 89 85 d0 f7 ff ff 	mov    %rax,-0x830(%rbp)
    d7a3:	48 8d 05 96 a6 01 00 	lea    0x1a696(%rip),%rax        # 27e40 <g_1642>
    d7aa:	48 89 85 d8 f7 ff ff 	mov    %rax,-0x828(%rbp)
    d7b1:	48 8d 05 88 a6 01 00 	lea    0x1a688(%rip),%rax        # 27e40 <g_1642>
    d7b8:	48 89 85 e0 f7 ff ff 	mov    %rax,-0x820(%rbp)
    d7bf:	48 8d 05 7a a6 01 00 	lea    0x1a67a(%rip),%rax        # 27e40 <g_1642>
    d7c6:	48 89 85 e8 f7 ff ff 	mov    %rax,-0x818(%rbp)
    d7cd:	48 8d 05 6c a6 01 00 	lea    0x1a66c(%rip),%rax        # 27e40 <g_1642>
    d7d4:	48 89 85 f0 f7 ff ff 	mov    %rax,-0x810(%rbp)
    d7db:	48 8d 05 5e a6 01 00 	lea    0x1a65e(%rip),%rax        # 27e40 <g_1642>
    d7e2:	48 89 85 f8 f7 ff ff 	mov    %rax,-0x808(%rbp)
    d7e9:	48 8d 05 50 a6 01 00 	lea    0x1a650(%rip),%rax        # 27e40 <g_1642>
    d7f0:	48 89 85 00 f8 ff ff 	mov    %rax,-0x800(%rbp)
    d7f7:	48 8d 05 42 a6 01 00 	lea    0x1a642(%rip),%rax        # 27e40 <g_1642>
    d7fe:	48 89 85 08 f8 ff ff 	mov    %rax,-0x7f8(%rbp)
    d805:	48 8d 05 cc a5 01 00 	lea    0x1a5cc(%rip),%rax        # 27dd8 <g_204>
    d80c:	48 89 85 f0 f6 ff ff 	mov    %rax,-0x910(%rbp)
    d813:	48 8d 85 30 fb ff ff 	lea    -0x4d0(%rbp),%rax
    d81a:	48 8d 15 bf f9 00 00 	lea    0xf9bf(%rip),%rdx        # 1d1e0 <g_3489+0x180>
    d821:	b9 36 00 00 00       	mov    $0x36,%ecx
    d826:	48 89 c7             	mov    %rax,%rdi
    d829:	48 89 d6             	mov    %rdx,%rsi
    d82c:	f3 48 a5             	rep movsq %ds:(%rsi),%es:(%rdi)
    d82f:	48 b8 61 c7 ca 43 61 	movabs $0xbf67a16143cac761,%rax
    d836:	a1 67 bf 
    d839:	48 89 85 70 f9 ff ff 	mov    %rax,-0x690(%rbp)
    d840:	48 b9 22 45 d0 e1 ad 	movabs $0xad699fade1d04522,%rcx
    d847:	9f 69 ad 
    d84a:	48 89 8d 78 f9 ff ff 	mov    %rcx,-0x688(%rbp)
    d851:	48 c7 85 80 f9 ff ff 	movq   $0xffffffffffffffff,-0x680(%rbp)
    d858:	ff ff ff ff 
    d85c:	48 bb 4a f2 d5 3e 16 	movabs $0x90d57f163ed5f24a,%rbx
    d863:	7f d5 90 
    d866:	48 89 9d 88 f9 ff ff 	mov    %rbx,-0x678(%rbp)
    d86d:	48 89 8d 90 f9 ff ff 	mov    %rcx,-0x670(%rbp)
    d874:	48 89 9d 98 f9 ff ff 	mov    %rbx,-0x668(%rbp)
    d87b:	48 c7 85 a0 f9 ff ff 	movq   $0xfffffffffffffff6,-0x660(%rbp)
    d882:	f6 ff ff ff 
    d886:	48 89 85 a8 f9 ff ff 	mov    %rax,-0x658(%rbp)
    d88d:	48 c7 85 b0 f9 ff ff 	movq   $0xffffffffffffffff,-0x650(%rbp)
    d894:	ff ff ff ff 
    d898:	48 c7 85 b8 f9 ff ff 	movq   $0xfffffffffffffff6,-0x648(%rbp)
    d89f:	f6 ff ff ff 
    d8a3:	48 c7 85 c0 f9 ff ff 	movq   $0xfffffffffffffff6,-0x640(%rbp)
    d8aa:	f6 ff ff ff 
    d8ae:	48 89 85 c8 f9 ff ff 	mov    %rax,-0x638(%rbp)
    d8b5:	48 89 9d d0 f9 ff ff 	mov    %rbx,-0x630(%rbp)
    d8bc:	48 89 85 d8 f9 ff ff 	mov    %rax,-0x628(%rbp)
    d8c3:	48 89 85 e0 f9 ff ff 	mov    %rax,-0x620(%rbp)
    d8ca:	48 89 85 e8 f9 ff ff 	mov    %rax,-0x618(%rbp)
    d8d1:	48 89 8d f0 f9 ff ff 	mov    %rcx,-0x610(%rbp)
    d8d8:	48 c7 85 f8 f9 ff ff 	movq   $0xffffffffffffffff,-0x608(%rbp)
    d8df:	ff ff ff ff 
    d8e3:	48 89 9d 00 fa ff ff 	mov    %rbx,-0x600(%rbp)
    d8ea:	48 89 8d 08 fa ff ff 	mov    %rcx,-0x5f8(%rbp)
    d8f1:	48 89 9d 10 fa ff ff 	mov    %rbx,-0x5f0(%rbp)
    d8f8:	48 c7 85 18 fa ff ff 	movq   $0xfffffffffffffff6,-0x5e8(%rbp)
    d8ff:	f6 ff ff ff 
    d903:	48 89 85 20 fa ff ff 	mov    %rax,-0x5e0(%rbp)
    d90a:	48 89 8d 28 fa ff ff 	mov    %rcx,-0x5d8(%rbp)
    d911:	48 89 85 30 fa ff ff 	mov    %rax,-0x5d0(%rbp)
    d918:	48 89 85 38 fa ff ff 	mov    %rax,-0x5c8(%rbp)
    d91f:	48 89 9d 40 fa ff ff 	mov    %rbx,-0x5c0(%rbp)
    d926:	48 8d 05 43 96 01 00 	lea    0x19643(%rip),%rax        # 26f70 <g_1374>
    d92d:	48 89 85 f8 f6 ff ff 	mov    %rax,-0x908(%rbp)
    d934:	48 8d 85 a0 f6 ff ff 	lea    -0x960(%rbp),%rax
    d93b:	48 89 85 50 fa ff ff 	mov    %rax,-0x5b0(%rbp)
    d942:	48 8d 85 a0 f6 ff ff 	lea    -0x960(%rbp),%rax
    d949:	48 89 85 58 fa ff ff 	mov    %rax,-0x5a8(%rbp)
    d950:	48 8d 85 a0 f6 ff ff 	lea    -0x960(%rbp),%rax
    d957:	48 89 85 60 fa ff ff 	mov    %rax,-0x5a0(%rbp)
    d95e:	48 8d 85 a0 f6 ff ff 	lea    -0x960(%rbp),%rax
    d965:	48 89 85 68 fa ff ff 	mov    %rax,-0x598(%rbp)
    d96c:	48 8d 85 a0 f6 ff ff 	lea    -0x960(%rbp),%rax
    d973:	48 89 85 70 fa ff ff 	mov    %rax,-0x590(%rbp)
    d97a:	48 8d 85 a0 f6 ff ff 	lea    -0x960(%rbp),%rax
    d981:	48 89 85 78 fa ff ff 	mov    %rax,-0x588(%rbp)
    d988:	48 8d 85 a0 f6 ff ff 	lea    -0x960(%rbp),%rax
    d98f:	48 89 85 80 fa ff ff 	mov    %rax,-0x580(%rbp)
    d996:	48 8d 85 a0 f6 ff ff 	lea    -0x960(%rbp),%rax
    d99d:	48 89 85 88 fa ff ff 	mov    %rax,-0x578(%rbp)
    d9a4:	48 8d 85 a0 f6 ff ff 	lea    -0x960(%rbp),%rax
    d9ab:	48 89 85 90 fa ff ff 	mov    %rax,-0x570(%rbp)
    d9b2:	48 c7 85 98 fa ff ff 	movq   $0x0,-0x568(%rbp)
    d9b9:	00 00 00 00 
    d9bd:	48 c7 85 a0 fa ff ff 	movq   $0x0,-0x560(%rbp)
    d9c4:	00 00 00 00 
    d9c8:	48 c7 85 a8 fa ff ff 	movq   $0x0,-0x558(%rbp)
    d9cf:	00 00 00 00 
    d9d3:	48 8d 85 a0 f6 ff ff 	lea    -0x960(%rbp),%rax
    d9da:	48 89 85 b0 fa ff ff 	mov    %rax,-0x550(%rbp)
    d9e1:	48 8d 85 a0 f6 ff ff 	lea    -0x960(%rbp),%rax
    d9e8:	48 89 85 b8 fa ff ff 	mov    %rax,-0x548(%rbp)
    d9ef:	48 c7 85 c0 fa ff ff 	movq   $0x0,-0x540(%rbp)
    d9f6:	00 00 00 00 
    d9fa:	48 8d 85 a0 f6 ff ff 	lea    -0x960(%rbp),%rax
    da01:	48 89 85 c8 fa ff ff 	mov    %rax,-0x538(%rbp)
    da08:	48 8d 85 a0 f6 ff ff 	lea    -0x960(%rbp),%rax
    da0f:	48 89 85 d0 fa ff ff 	mov    %rax,-0x530(%rbp)
    da16:	48 8d 85 a0 f6 ff ff 	lea    -0x960(%rbp),%rax
    da1d:	48 89 85 d8 fa ff ff 	mov    %rax,-0x528(%rbp)
    da24:	48 c7 85 e0 fa ff ff 	movq   $0x0,-0x520(%rbp)
    da2b:	00 00 00 00 
    da2f:	48 c7 85 e8 fa ff ff 	movq   $0x0,-0x518(%rbp)
    da36:	00 00 00 00 
    da3a:	48 c7 85 f0 fa ff ff 	movq   $0x0,-0x510(%rbp)
    da41:	00 00 00 00 
    da45:	48 8d 85 a0 f6 ff ff 	lea    -0x960(%rbp),%rax
    da4c:	48 89 85 f8 fa ff ff 	mov    %rax,-0x508(%rbp)
    da53:	48 8d 85 a0 f6 ff ff 	lea    -0x960(%rbp),%rax
    da5a:	48 89 85 00 fb ff ff 	mov    %rax,-0x500(%rbp)
    da61:	48 8d 85 a0 f6 ff ff 	lea    -0x960(%rbp),%rax
    da68:	48 89 85 08 fb ff ff 	mov    %rax,-0x4f8(%rbp)
    da6f:	48 c7 85 10 fb ff ff 	movq   $0x0,-0x4f0(%rbp)
    da76:	00 00 00 00 
    da7a:	48 8d 85 a0 f6 ff ff 	lea    -0x960(%rbp),%rax
    da81:	48 89 85 18 fb ff ff 	mov    %rax,-0x4e8(%rbp)
    da88:	48 c7 85 20 fb ff ff 	movq   $0x0,-0x4e0(%rbp)
    da8f:	00 00 00 00 
    da93:	48 8d 85 a0 f6 ff ff 	lea    -0x960(%rbp),%rax
    da9a:	48 89 85 28 fb ff ff 	mov    %rax,-0x4d8(%rbp)
    daa1:	48 8d 05 88 a3 01 00 	lea    0x1a388(%rip),%rax        # 27e30 <g_1028>
    daa8:	48 89 85 20 f7 ff ff 	mov    %rax,-0x8e0(%rbp)
    daaf:	48 8d 05 7a a3 01 00 	lea    0x1a37a(%rip),%rax        # 27e30 <g_1028>
    dab6:	48 89 85 28 f7 ff ff 	mov    %rax,-0x8d8(%rbp)
    dabd:	48 8d 05 6c a3 01 00 	lea    0x1a36c(%rip),%rax        # 27e30 <g_1028>
    dac4:	48 89 85 30 f7 ff ff 	mov    %rax,-0x8d0(%rbp)
    dacb:	48 8d 05 5e a3 01 00 	lea    0x1a35e(%rip),%rax        # 27e30 <g_1028>
    dad2:	48 89 85 38 f7 ff ff 	mov    %rax,-0x8c8(%rbp)
    dad9:	48 8d 05 50 a3 01 00 	lea    0x1a350(%rip),%rax        # 27e30 <g_1028>
    dae0:	48 89 85 40 f7 ff ff 	mov    %rax,-0x8c0(%rbp)
    dae7:	c7 85 90 f6 ff ff 00 	movl   $0x0,-0x970(%rbp)
    daee:	00 00 00 
    daf1:	eb 1e                	jmp    db11 <func_9+0xc34>
    daf3:	8b 85 90 f6 ff ff    	mov    -0x970(%rbp),%eax
    daf9:	48 98                	cltq   
    dafb:	48 8d 15 46 7e 01 00 	lea    0x17e46(%rip),%rdx        # 25948 <g_692>
    db02:	48 89 94 c5 50 f7 ff 	mov    %rdx,-0x8b0(%rbp,%rax,8)
    db09:	ff 
    db0a:	83 85 90 f6 ff ff 01 	addl   $0x1,-0x970(%rbp)
    db11:	83 bd 90 f6 ff ff 08 	cmpl   $0x8,-0x970(%rbp)
    db18:	7e d9                	jle    daf3 <func_9+0xc16>
    db1a:	0f b6 9d 7c f6 ff ff 	movzbl -0x984(%rbp),%ebx
    db21:	48 8b 05 80 97 01 00 	mov    0x19780(%rip),%rax        # 272a8 <g_3483>
    db28:	8b 95 9c f6 ff ff    	mov    -0x964(%rbp),%edx
    db2e:	89 10                	mov    %edx,(%rax)
    db30:	48 8b 95 c0 f7 ff ff 	mov    -0x840(%rbp),%rdx
    db37:	48 8b 85 f0 f6 ff ff 	mov    -0x910(%rbp),%rax
    db3e:	48 c7 00 00 00 00 00 	movq   $0x0,(%rax)
    db45:	48 8b 85 f0 f6 ff ff 	mov    -0x910(%rbp),%rax
    db4c:	48 8b 00             	mov    (%rax),%rax
    db4f:	48 39 c2             	cmp    %rax,%rdx
    db52:	0f 95 c0             	setne  %al
    db55:	0f b6 d0             	movzbl %al,%edx
    db58:	0f be 85 89 f6 ff ff 	movsbl -0x977(%rbp),%eax
    db5f:	39 c2                	cmp    %eax,%edx
    db61:	0f b6 85 89 f6 ff ff 	movzbl -0x977(%rbp),%eax
    db68:	0f b6 c0             	movzbl %al,%eax
    db6b:	be 04 00 00 00       	mov    $0x4,%esi
    db70:	89 c7                	mov    %eax,%edi
    db72:	e8 8e e0 ff ff       	callq  bc05 <safe_lshift_func_uint8_t_u_s>
    db77:	0f b6 c0             	movzbl %al,%eax
    db7a:	83 bd 9c f6 ff ff 00 	cmpl   $0x0,-0x964(%rbp)
    db81:	75 09                	jne    db8c <func_9+0xcaf>
    db83:	83 bd 9c f6 ff ff 00 	cmpl   $0x0,-0x964(%rbp)
    db8a:	74 07                	je     db93 <func_9+0xcb6>
    db8c:	ba 01 00 00 00       	mov    $0x1,%edx
    db91:	eb 05                	jmp    db98 <func_9+0xcbb>
    db93:	ba 00 00 00 00       	mov    $0x0,%edx
    db98:	39 c2                	cmp    %eax,%edx
    db9a:	0f 9f c0             	setg   %al
    db9d:	0f b6 d0             	movzbl %al,%edx
    dba0:	48 83 bd b8 f6 ff ff 	cmpq   $0x0,-0x948(%rbp)
    dba7:	00 
    dba8:	0f 95 c0             	setne  %al
    dbab:	0f b6 c0             	movzbl %al,%eax
    dbae:	39 c2                	cmp    %eax,%edx
    dbb0:	be 01 00 00 00       	mov    $0x1,%esi
    dbb5:	bf 01 00 00 00       	mov    $0x1,%edi
    dbba:	e8 9b df ff ff       	callq  bb5a <safe_add_func_uint8_t_u_u>
    dbbf:	be 0d 00 00 00       	mov    $0xd,%esi
    dbc4:	bf 00 00 00 00       	mov    $0x0,%edi
    dbc9:	e8 13 d9 ff ff       	callq  b4e1 <safe_lshift_func_int16_t_s_u>
    dbce:	0f bf d0             	movswl %ax,%edx
    dbd1:	0f b6 85 7c f6 ff ff 	movzbl -0x984(%rbp),%eax
    dbd8:	39 c2                	cmp    %eax,%edx
    dbda:	0f 9c c0             	setl   %al
    dbdd:	0f b6 c0             	movzbl %al,%eax
    dbe0:	89 de                	mov    %ebx,%esi
    dbe2:	89 c7                	mov    %eax,%edi
    dbe4:	e8 6c d8 ff ff       	callq  b455 <safe_div_func_int16_t_s_s>
    dbe9:	0f bf d0             	movswl %ax,%edx
    dbec:	48 8b 85 68 f6 ff ff 	mov    -0x998(%rbp),%rax
    dbf3:	89 10                	mov    %edx,(%rax)
    dbf5:	48 8b 05 64 58 01 00 	mov    0x15864(%rip),%rax        # 23460 <g_672>
    dbfc:	48 83 e8 01          	sub    $0x1,%rax
    dc00:	48 89 05 59 58 01 00 	mov    %rax,0x15859(%rip)        # 23460 <g_672>
    dc07:	48 8b 05 52 58 01 00 	mov    0x15852(%rip),%rax        # 23460 <g_672>
    dc0e:	48 83 f8 e8          	cmp    $0xffffffffffffffe8,%rax
    dc12:	0f 8d 1f fb ff ff    	jge    d737 <func_9+0x85a>
    dc18:	48 8b 05 79 96 01 00 	mov    0x19679(%rip),%rax        # 27298 <g_3412>
    dc1f:	8b 08                	mov    (%rax),%ecx
    dc21:	48 8b 85 68 f6 ff ff 	mov    -0x998(%rbp),%rax
    dc28:	8b 10                	mov    (%rax),%edx
    dc2a:	48 8b 05 67 96 01 00 	mov    0x19667(%rip),%rax        # 27298 <g_3412>
    dc31:	31 ca                	xor    %ecx,%edx
    dc33:	89 10                	mov    %edx,(%rax)
    dc35:	0f b7 85 64 f6 ff ff 	movzwl -0x99c(%rbp),%eax
    dc3c:	83 c0 01             	add    $0x1,%eax
    dc3f:	66 89 85 64 f6 ff ff 	mov    %ax,-0x99c(%rbp)
    dc46:	48 8b 05 33 93 01 00 	mov    0x19333(%rip),%rax        # 26f80 <g_1662>
    dc4d:	0f b6 00             	movzbl (%rax),%eax
    dc50:	0f b6 c0             	movzbl %al,%eax
    dc53:	48 8b 95 e0 f6 ff ff 	mov    -0x920(%rbp),%rdx
    dc5a:	c6 02 01             	movb   $0x1,(%rdx)
    dc5d:	89 c6                	mov    %eax,%esi
    dc5f:	bf 01 00 00 00       	mov    $0x1,%edi
    dc64:	e8 45 df ff ff       	callq  bbae <safe_mod_func_uint8_t_u_u>
    dc69:	80 bd 7c f6 ff ff 01 	cmpb   $0x1,-0x984(%rbp)
    dc70:	0f 97 c2             	seta   %dl
    dc73:	48 8b 85 70 f6 ff ff 	mov    -0x990(%rbp),%rax
    dc7a:	48 8b 00             	mov    (%rax),%rax
    dc7d:	0f b6 d2             	movzbl %dl,%edx
    dc80:	89 10                	mov    %edx,(%rax)
    dc82:	48 8b 85 e8 f6 ff ff 	mov    -0x918(%rbp),%rax
    dc89:	48 8b 75 e8          	mov    -0x18(%rbp),%rsi
    dc8d:	64 48 33 34 25 28 00 	xor    %fs:0x28,%rsi
    dc94:	00 00 
    dc96:	74 05                	je     dc9d <func_9+0xdc0>
    dc98:	e8 d3 d3 ff ff       	callq  b070 <__stack_chk_fail@plt>
    dc9d:	48 81 c4 98 09 00 00 	add    $0x998,%rsp
    dca4:	5b                   	pop    %rbx
    dca5:	5d                   	pop    %rbp
    dca6:	c3                   	retq   

000000000000dca7 <func_15>:
    dca7:	f3 0f 1e fa          	endbr64 
    dcab:	55                   	push   %rbp
    dcac:	48 89 e5             	mov    %rsp,%rbp
    dcaf:	53                   	push   %rbx
    dcb0:	48 81 ec 08 05 00 00 	sub    $0x508,%rsp
    dcb7:	48 89 bd f8 fa ff ff 	mov    %rdi,-0x508(%rbp)
    dcbe:	48 89 b5 f0 fa ff ff 	mov    %rsi,-0x510(%rbp)
    dcc5:	64 48 8b 04 25 28 00 	mov    %fs:0x28,%rax
    dccc:	00 00 
    dcce:	48 89 45 e8          	mov    %rax,-0x18(%rbp)
    dcd2:	31 c0                	xor    %eax,%eax
    dcd4:	48 c7 85 80 fb ff ff 	movq   $0x0,-0x480(%rbp)
    dcdb:	00 00 00 00 
    dcdf:	c7 85 1c fb ff ff 01 	movl   $0x1,-0x4e4(%rbp)
    dce6:	00 00 00 
    dce9:	c7 85 20 fb ff ff 00 	movl   $0x0,-0x4e0(%rbp)
    dcf0:	00 00 00 
    dcf3:	c7 85 24 fb ff ff 63 	movl   $0x34ef9663,-0x4dc(%rbp)
    dcfa:	96 ef 34 
    dcfd:	c7 85 28 fb ff ff d4 	movl   $0x6c238ad4,-0x4d8(%rbp)
    dd04:	8a 23 6c 
    dd07:	c7 45 e3 ff ff ff ff 	movl   $0xffffffff,-0x1d(%rbp)
    dd0e:	c6 45 e7 ff          	movb   $0xff,-0x19(%rbp)
    dd12:	48 c7 85 88 fb ff ff 	movq   $0x0,-0x478(%rbp)
    dd19:	00 00 00 00 
    dd1d:	48 b8 9a d9 a1 46 7e 	movabs $0x6d5017e46a1d99a,%rax
    dd24:	01 d5 06 
    dd27:	48 89 85 90 fb ff ff 	mov    %rax,-0x470(%rbp)
    dd2e:	48 8d 05 54 5b 01 00 	lea    0x15b54(%rip),%rax        # 23889 <g_2321>
    dd35:	48 89 85 58 fb ff ff 	mov    %rax,-0x4a8(%rbp)
    dd3c:	48 8d 85 58 fb ff ff 	lea    -0x4a8(%rbp),%rax
    dd43:	48 89 85 98 fb ff ff 	mov    %rax,-0x468(%rbp)
    dd4a:	48 8d 05 bf 9b 01 00 	lea    0x19bbf(%rip),%rax        # 27910 <g_3495>
    dd51:	48 89 85 a0 fb ff ff 	mov    %rax,-0x460(%rbp)
    dd58:	48 8d 05 d1 83 01 00 	lea    0x183d1(%rip),%rax        # 26130 <g_927>
    dd5f:	48 89 85 a8 fb ff ff 	mov    %rax,-0x458(%rbp)
    dd66:	66 c7 85 c0 fc ff ff 	movw   $0x4,-0x340(%rbp)
    dd6d:	04 00 
    dd6f:	66 c7 85 c2 fc ff ff 	movw   $0x2,-0x33e(%rbp)
    dd76:	02 00 
    dd78:	66 c7 85 c4 fc ff ff 	movw   $0xe55c,-0x33c(%rbp)
    dd7f:	5c e5 
    dd81:	66 c7 85 c6 fc ff ff 	movw   $0xe55c,-0x33a(%rbp)
    dd88:	5c e5 
    dd8a:	66 c7 85 c8 fc ff ff 	movw   $0xffff,-0x338(%rbp)
    dd91:	ff ff 
    dd93:	66 c7 85 ca fc ff ff 	movw   $0xffff,-0x336(%rbp)
    dd9a:	ff ff 
    dd9c:	66 c7 85 cc fc ff ff 	movw   $0x4,-0x334(%rbp)
    dda3:	04 00 
    dda5:	66 c7 85 ce fc ff ff 	movw   $0x1,-0x332(%rbp)
    ddac:	01 00 
    ddae:	66 c7 85 d0 fc ff ff 	movw   $0x6479,-0x330(%rbp)
    ddb5:	79 64 
    ddb7:	66 c7 85 d2 fc ff ff 	movw   $0xffff,-0x32e(%rbp)
    ddbe:	ff ff 
    ddc0:	66 c7 85 d4 fc ff ff 	movw   $0x3158,-0x32c(%rbp)
    ddc7:	58 31 
    ddc9:	66 c7 85 d6 fc ff ff 	movw   $0x4,-0x32a(%rbp)
    ddd0:	04 00 
    ddd2:	66 c7 85 d8 fc ff ff 	movw   $0x3158,-0x328(%rbp)
    ddd9:	58 31 
    dddb:	66 c7 85 da fc ff ff 	movw   $0x4,-0x326(%rbp)
    dde2:	04 00 
    dde4:	66 c7 85 dc fc ff ff 	movw   $0x4,-0x324(%rbp)
    ddeb:	04 00 
    dded:	66 c7 85 de fc ff ff 	movw   $0x3158,-0x322(%rbp)
    ddf4:	58 31 
    ddf6:	66 c7 85 e0 fc ff ff 	movw   $0xffff,-0x320(%rbp)
    ddfd:	ff ff 
    ddff:	66 c7 85 e2 fc ff ff 	movw   $0x4,-0x31e(%rbp)
    de06:	04 00 
    de08:	66 c7 85 e4 fc ff ff 	movw   $0x1,-0x31c(%rbp)
    de0f:	01 00 
    de11:	66 c7 85 e6 fc ff ff 	movw   $0x4,-0x31a(%rbp)
    de18:	04 00 
    de1a:	66 c7 85 e8 fc ff ff 	movw   $0x4,-0x318(%rbp)
    de21:	04 00 
    de23:	66 c7 85 ea fc ff ff 	movw   $0xffff,-0x316(%rbp)
    de2a:	ff ff 
    de2c:	66 c7 85 ec fc ff ff 	movw   $0xe55c,-0x314(%rbp)
    de33:	5c e5 
    de35:	66 c7 85 ee fc ff ff 	movw   $0x1,-0x312(%rbp)
    de3c:	01 00 
    de3e:	66 c7 85 f0 fc ff ff 	movw   $0x73e2,-0x310(%rbp)
    de45:	e2 73 
    de47:	66 c7 85 f2 fc ff ff 	movw   $0xffff,-0x30e(%rbp)
    de4e:	ff ff 
    de50:	66 c7 85 f4 fc ff ff 	movw   $0x4,-0x30c(%rbp)
    de57:	04 00 
    de59:	66 c7 85 f6 fc ff ff 	movw   $0xe55c,-0x30a(%rbp)
    de60:	5c e5 
    de62:	66 c7 85 f8 fc ff ff 	movw   $0x6479,-0x308(%rbp)
    de69:	79 64 
    de6b:	66 c7 85 fa fc ff ff 	movw   $0x2,-0x306(%rbp)
    de72:	02 00 
    de74:	66 c7 85 fc fc ff ff 	movw   $0x6f69,-0x304(%rbp)
    de7b:	69 6f 
    de7d:	66 c7 85 fe fc ff ff 	movw   $0x4,-0x302(%rbp)
    de84:	04 00 
    de86:	66 c7 85 00 fd ff ff 	movw   $0x6479,-0x300(%rbp)
    de8d:	79 64 
    de8f:	66 c7 85 02 fd ff ff 	movw   $0x4,-0x2fe(%rbp)
    de96:	04 00 
    de98:	66 c7 85 04 fd ff ff 	movw   $0x4,-0x2fc(%rbp)
    de9f:	04 00 
    dea1:	66 c7 85 06 fd ff ff 	movw   $0x6479,-0x2fa(%rbp)
    dea8:	79 64 
    deaa:	66 c7 85 08 fd ff ff 	movw   $0x73e2,-0x2f8(%rbp)
    deb1:	e2 73 
    deb3:	66 c7 85 0a fd ff ff 	movw   $0x4,-0x2f6(%rbp)
    deba:	04 00 
    debc:	66 c7 85 0c fd ff ff 	movw   $0xe55c,-0x2f4(%rbp)
    dec3:	5c e5 
    dec5:	66 c7 85 0e fd ff ff 	movw   $0x4,-0x2f2(%rbp)
    decc:	04 00 
    dece:	66 c7 85 10 fd ff ff 	movw   $0x4,-0x2f0(%rbp)
    ded5:	04 00 
    ded7:	66 c7 85 12 fd ff ff 	movw   $0x2,-0x2ee(%rbp)
    dede:	02 00 
    dee0:	66 c7 85 14 fd ff ff 	movw   $0x1,-0x2ec(%rbp)
    dee7:	01 00 
    dee9:	66 c7 85 16 fd ff ff 	movw   $0x1,-0x2ea(%rbp)
    def0:	01 00 
    def2:	66 c7 85 18 fd ff ff 	movw   $0xffff,-0x2e8(%rbp)
    def9:	ff ff 
    defb:	66 c7 85 1a fd ff ff 	movw   $0x73e2,-0x2e6(%rbp)
    df02:	e2 73 
    df04:	66 c7 85 1c fd ff ff 	movw   $0x4,-0x2e4(%rbp)
    df0b:	04 00 
    df0d:	66 c7 85 1e fd ff ff 	movw   $0x1,-0x2e2(%rbp)
    df14:	01 00 
    df16:	66 c7 85 20 fd ff ff 	movw   $0x3158,-0x2e0(%rbp)
    df1d:	58 31 
    df1f:	66 c7 85 22 fd ff ff 	movw   $0x2,-0x2de(%rbp)
    df26:	02 00 
    df28:	66 c7 85 24 fd ff ff 	movw   $0x3158,-0x2dc(%rbp)
    df2f:	58 31 
    df31:	66 c7 85 26 fd ff ff 	movw   $0x4,-0x2da(%rbp)
    df38:	04 00 
    df3a:	66 c7 85 28 fd ff ff 	movw   $0x6479,-0x2d8(%rbp)
    df41:	79 64 
    df43:	66 c7 85 2a fd ff ff 	movw   $0x4,-0x2d6(%rbp)
    df4a:	04 00 
    df4c:	66 c7 85 2c fd ff ff 	movw   $0x4,-0x2d4(%rbp)
    df53:	04 00 
    df55:	66 c7 85 2e fd ff ff 	movw   $0x6479,-0x2d2(%rbp)
    df5c:	79 64 
    df5e:	66 c7 85 30 fd ff ff 	movw   $0xffff,-0x2d0(%rbp)
    df65:	ff ff 
    df67:	66 c7 85 32 fd ff ff 	movw   $0x4,-0x2ce(%rbp)
    df6e:	04 00 
    df70:	66 c7 85 34 fd ff ff 	movw   $0xe55c,-0x2cc(%rbp)
    df77:	5c e5 
    df79:	66 c7 85 36 fd ff ff 	movw   $0x4,-0x2ca(%rbp)
    df80:	04 00 
    df82:	66 c7 85 38 fd ff ff 	movw   $0x4,-0x2c8(%rbp)
    df89:	04 00 
    df8b:	66 c7 85 3a fd ff ff 	movw   $0x2,-0x2c6(%rbp)
    df92:	02 00 
    df94:	66 c7 85 3c fd ff ff 	movw   $0xe55c,-0x2c4(%rbp)
    df9b:	5c e5 
    df9d:	66 c7 85 3e fd ff ff 	movw   $0xe55c,-0x2c2(%rbp)
    dfa4:	5c e5 
    dfa6:	48 8d 05 fb 92 01 00 	lea    0x192fb(%rip),%rax        # 272a8 <g_3483>
    dfad:	48 89 85 b0 fb ff ff 	mov    %rax,-0x450(%rbp)
    dfb4:	c6 85 01 fb ff ff 9a 	movb   $0x9a,-0x4ff(%rbp)
    dfbb:	c6 85 02 fb ff ff 10 	movb   $0x10,-0x4fe(%rbp)
    dfc2:	66 c7 85 08 fb ff ff 	movw   $0x0,-0x4f8(%rbp)
    dfc9:	00 00 
    dfcb:	c7 85 2c fb ff ff ff 	movl   $0xffffffff,-0x4d4(%rbp)
    dfd2:	ff ff ff 
    dfd5:	c6 85 03 fb ff ff f8 	movb   $0xf8,-0x4fd(%rbp)
    dfdc:	48 8d 05 e5 9d 01 00 	lea    0x19de5(%rip),%rax        # 27dc8 <g_74>
    dfe3:	48 89 85 60 fb ff ff 	mov    %rax,-0x4a0(%rbp)
    dfea:	48 8d 85 60 fb ff ff 	lea    -0x4a0(%rbp),%rax
    dff1:	48 89 85 68 fb ff ff 	mov    %rax,-0x498(%rbp)
    dff8:	66 c7 85 0a fb ff ff 	movw   $0xffff,-0x4f6(%rbp)
    dfff:	ff ff 
    e001:	66 c7 85 0c fb ff ff 	movw   $0x8bce,-0x4f4(%rbp)
    e008:	ce 8b 
    e00a:	66 c7 85 0e fb ff ff 	movw   $0xfcc3,-0x4f2(%rbp)
    e011:	c3 fc 
    e013:	48 8d 05 16 9e 01 00 	lea    0x19e16(%rip),%rax        # 27e30 <g_1028>
    e01a:	48 89 85 b8 fb ff ff 	mov    %rax,-0x448(%rbp)
    e021:	c6 85 04 fb ff ff b5 	movb   $0xb5,-0x4fc(%rbp)
    e028:	c6 85 05 fb ff ff fb 	movb   $0xfb,-0x4fb(%rbp)
    e02f:	c7 85 30 fb ff ff 37 	movl   $0x83ff3837,-0x4d0(%rbp)
    e036:	38 ff 83 
    e039:	48 c7 85 c0 fb ff ff 	movq   $0x0,-0x440(%rbp)
    e040:	00 00 00 00 
    e044:	48 c7 85 c8 fb ff ff 	movq   $0x0,-0x438(%rbp)
    e04b:	00 00 00 00 
    e04f:	48 8d 05 7a 9d 01 00 	lea    0x19d7a(%rip),%rax        # 27dd0 <g_197>
    e056:	48 89 85 f0 fe ff ff 	mov    %rax,-0x110(%rbp)
    e05d:	48 8d 05 6c 9d 01 00 	lea    0x19d6c(%rip),%rax        # 27dd0 <g_197>
    e064:	48 89 85 f8 fe ff ff 	mov    %rax,-0x108(%rbp)
    e06b:	48 8d 05 5e 9d 01 00 	lea    0x19d5e(%rip),%rax        # 27dd0 <g_197>
    e072:	48 89 85 00 ff ff ff 	mov    %rax,-0x100(%rbp)
    e079:	48 8d 05 50 9d 01 00 	lea    0x19d50(%rip),%rax        # 27dd0 <g_197>
    e080:	48 89 85 08 ff ff ff 	mov    %rax,-0xf8(%rbp)
    e087:	48 8d 05 42 9d 01 00 	lea    0x19d42(%rip),%rax        # 27dd0 <g_197>
    e08e:	48 89 85 10 ff ff ff 	mov    %rax,-0xf0(%rbp)
    e095:	48 8d 05 34 9d 01 00 	lea    0x19d34(%rip),%rax        # 27dd0 <g_197>
    e09c:	48 89 85 18 ff ff ff 	mov    %rax,-0xe8(%rbp)
    e0a3:	48 8d 05 26 9d 01 00 	lea    0x19d26(%rip),%rax        # 27dd0 <g_197>
    e0aa:	48 89 85 20 ff ff ff 	mov    %rax,-0xe0(%rbp)
    e0b1:	48 8d 05 18 9d 01 00 	lea    0x19d18(%rip),%rax        # 27dd0 <g_197>
    e0b8:	48 89 85 28 ff ff ff 	mov    %rax,-0xd8(%rbp)
    e0bf:	48 c7 85 30 ff ff ff 	movq   $0x0,-0xd0(%rbp)
    e0c6:	00 00 00 00 
    e0ca:	48 8d 05 ff 9c 01 00 	lea    0x19cff(%rip),%rax        # 27dd0 <g_197>
    e0d1:	48 89 85 38 ff ff ff 	mov    %rax,-0xc8(%rbp)
    e0d8:	48 8d 05 f1 9c 01 00 	lea    0x19cf1(%rip),%rax        # 27dd0 <g_197>
    e0df:	48 89 85 40 ff ff ff 	mov    %rax,-0xc0(%rbp)
    e0e6:	48 8d 05 e3 9c 01 00 	lea    0x19ce3(%rip),%rax        # 27dd0 <g_197>
    e0ed:	48 89 85 48 ff ff ff 	mov    %rax,-0xb8(%rbp)
    e0f4:	48 8d 05 d5 9c 01 00 	lea    0x19cd5(%rip),%rax        # 27dd0 <g_197>
    e0fb:	48 89 85 50 ff ff ff 	mov    %rax,-0xb0(%rbp)
    e102:	48 8d 05 c7 9c 01 00 	lea    0x19cc7(%rip),%rax        # 27dd0 <g_197>
    e109:	48 89 85 58 ff ff ff 	mov    %rax,-0xa8(%rbp)
    e110:	48 c7 85 60 ff ff ff 	movq   $0x0,-0xa0(%rbp)
    e117:	00 00 00 00 
    e11b:	48 8d 05 ae 9c 01 00 	lea    0x19cae(%rip),%rax        # 27dd0 <g_197>
    e122:	48 89 85 68 ff ff ff 	mov    %rax,-0x98(%rbp)
    e129:	48 8d 05 a0 9c 01 00 	lea    0x19ca0(%rip),%rax        # 27dd0 <g_197>
    e130:	48 89 85 70 ff ff ff 	mov    %rax,-0x90(%rbp)
    e137:	48 8d 05 92 9c 01 00 	lea    0x19c92(%rip),%rax        # 27dd0 <g_197>
    e13e:	48 89 85 78 ff ff ff 	mov    %rax,-0x88(%rbp)
    e145:	48 8d 05 84 9c 01 00 	lea    0x19c84(%rip),%rax        # 27dd0 <g_197>
    e14c:	48 89 45 80          	mov    %rax,-0x80(%rbp)
    e150:	48 8d 05 79 9c 01 00 	lea    0x19c79(%rip),%rax        # 27dd0 <g_197>
    e157:	48 89 45 88          	mov    %rax,-0x78(%rbp)
    e15b:	48 8d 05 6e 9c 01 00 	lea    0x19c6e(%rip),%rax        # 27dd0 <g_197>
    e162:	48 89 45 90          	mov    %rax,-0x70(%rbp)
    e166:	48 8d 05 63 9c 01 00 	lea    0x19c63(%rip),%rax        # 27dd0 <g_197>
    e16d:	48 89 45 98          	mov    %rax,-0x68(%rbp)
    e171:	48 8d 05 58 9c 01 00 	lea    0x19c58(%rip),%rax        # 27dd0 <g_197>
    e178:	48 89 45 a0          	mov    %rax,-0x60(%rbp)
    e17c:	48 8d 05 4d 9c 01 00 	lea    0x19c4d(%rip),%rax        # 27dd0 <g_197>
    e183:	48 89 45 a8          	mov    %rax,-0x58(%rbp)
    e187:	48 8d 05 42 9c 01 00 	lea    0x19c42(%rip),%rax        # 27dd0 <g_197>
    e18e:	48 89 45 b0          	mov    %rax,-0x50(%rbp)
    e192:	48 8d 05 37 9c 01 00 	lea    0x19c37(%rip),%rax        # 27dd0 <g_197>
    e199:	48 89 45 b8          	mov    %rax,-0x48(%rbp)
    e19d:	48 8d 05 2c 9c 01 00 	lea    0x19c2c(%rip),%rax        # 27dd0 <g_197>
    e1a4:	48 89 45 c0          	mov    %rax,-0x40(%rbp)
    e1a8:	48 8d 05 21 9c 01 00 	lea    0x19c21(%rip),%rax        # 27dd0 <g_197>
    e1af:	48 89 45 c8          	mov    %rax,-0x38(%rbp)
    e1b3:	48 8d 05 16 9c 01 00 	lea    0x19c16(%rip),%rax        # 27dd0 <g_197>
    e1ba:	48 89 45 d0          	mov    %rax,-0x30(%rbp)
    e1be:	48 8d 05 0b 9c 01 00 	lea    0x19c0b(%rip),%rax        # 27dd0 <g_197>
    e1c5:	48 89 45 d8          	mov    %rax,-0x28(%rbp)
    e1c9:	48 8d 85 f0 fe ff ff 	lea    -0x110(%rbp),%rax
    e1d0:	48 05 b8 00 00 00    	add    $0xb8,%rax
    e1d6:	48 89 85 d0 fb ff ff 	mov    %rax,-0x430(%rbp)
    e1dd:	c7 85 34 fb ff ff dd 	movl   $0x835ce5dd,-0x4cc(%rbp)
    e1e4:	e5 5c 83 
    e1e7:	c7 85 10 fe ff ff f8 	movl   $0xfffffff8,-0x1f0(%rbp)
    e1ee:	ff ff ff 
    e1f1:	c7 85 14 fe ff ff f6 	movl   $0xfffffff6,-0x1ec(%rbp)
    e1f8:	ff ff ff 
    e1fb:	c7 85 18 fe ff ff 01 	movl   $0x1,-0x1e8(%rbp)
    e202:	00 00 00 
    e205:	c7 85 1c fe ff ff ff 	movl   $0xffffffff,-0x1e4(%rbp)
    e20c:	ff ff ff 
    e20f:	c7 85 20 fe ff ff 01 	movl   $0x1,-0x1e0(%rbp)
    e216:	00 00 00 
    e219:	c7 85 24 fe ff ff 56 	movl   $0x405d8856,-0x1dc(%rbp)
    e220:	88 5d 40 
    e223:	c7 85 28 fe ff ff 00 	movl   $0x0,-0x1d8(%rbp)
    e22a:	00 00 00 
    e22d:	c7 85 2c fe ff ff f6 	movl   $0xfffffff6,-0x1d4(%rbp)
    e234:	ff ff ff 
    e237:	c7 85 30 fe ff ff cf 	movl   $0xbdc6acf,-0x1d0(%rbp)
    e23e:	6a dc 0b 
    e241:	c7 85 34 fe ff ff 01 	movl   $0x1,-0x1cc(%rbp)
    e248:	00 00 00 
    e24b:	c7 85 38 fe ff ff 04 	movl   $0x4,-0x1c8(%rbp)
    e252:	00 00 00 
    e255:	c7 85 3c fe ff ff 9d 	movl   $0xb748e29d,-0x1c4(%rbp)
    e25c:	e2 48 b7 
    e25f:	c7 85 40 fe ff ff 9d 	movl   $0xb748e29d,-0x1c0(%rbp)
    e266:	e2 48 b7 
    e269:	c7 85 44 fe ff ff 04 	movl   $0x4,-0x1bc(%rbp)
    e270:	00 00 00 
    e273:	c7 85 48 fe ff ff f8 	movl   $0xfffffff8,-0x1b8(%rbp)
    e27a:	ff ff ff 
    e27d:	c7 85 4c fe ff ff ff 	movl   $0xffffffff,-0x1b4(%rbp)
    e284:	ff ff ff 
    e287:	c7 85 50 fe ff ff f8 	movl   $0xfffffff8,-0x1b0(%rbp)
    e28e:	ff ff ff 
    e291:	c7 85 54 fe ff ff 9d 	movl   $0xb748e29d,-0x1ac(%rbp)
    e298:	e2 48 b7 
    e29b:	c7 85 58 fe ff ff 65 	movl   $0xb8596265,-0x1a8(%rbp)
    e2a2:	62 59 b8 
    e2a5:	c7 85 5c fe ff ff cf 	movl   $0xbdc6acf,-0x1a4(%rbp)
    e2ac:	6a dc 0b 
    e2af:	c7 85 60 fe ff ff 04 	movl   $0x4,-0x1a0(%rbp)
    e2b6:	00 00 00 
    e2b9:	c7 85 64 fe ff ff 00 	movl   $0x0,-0x19c(%rbp)
    e2c0:	00 00 00 
    e2c3:	c7 85 68 fe ff ff 02 	movl   $0x2,-0x198(%rbp)
    e2ca:	00 00 00 
    e2cd:	c7 85 6c fe ff ff 56 	movl   $0x405d8856,-0x194(%rbp)
    e2d4:	88 5d 40 
    e2d7:	c7 85 70 fe ff ff ff 	movl   $0xffffffff,-0x190(%rbp)
    e2de:	ff ff ff 
    e2e1:	c7 85 74 fe ff ff 04 	movl   $0x4,-0x18c(%rbp)
    e2e8:	00 00 00 
    e2eb:	c7 85 78 fe ff ff f8 	movl   $0xfffffff8,-0x188(%rbp)
    e2f2:	ff ff ff 
    e2f5:	c7 85 7c fe ff ff 00 	movl   $0x0,-0x184(%rbp)
    e2fc:	00 00 00 
    e2ff:	c7 85 80 fe ff ff 01 	movl   $0x1,-0x180(%rbp)
    e306:	00 00 00 
    e309:	c7 85 84 fe ff ff f8 	movl   $0xfffffff8,-0x17c(%rbp)
    e310:	ff ff ff 
    e313:	c7 85 88 fe ff ff cf 	movl   $0xbdc6acf,-0x178(%rbp)
    e31a:	6a dc 0b 
    e31d:	c7 85 8c fe ff ff 02 	movl   $0x2,-0x174(%rbp)
    e324:	00 00 00 
    e327:	c7 85 90 fe ff ff 02 	movl   $0x2,-0x170(%rbp)
    e32e:	00 00 00 
    e331:	c7 85 94 fe ff ff cf 	movl   $0xbdc6acf,-0x16c(%rbp)
    e338:	6a dc 0b 
    e33b:	c7 85 98 fe ff ff f8 	movl   $0xfffffff8,-0x168(%rbp)
    e342:	ff ff ff 
    e345:	c7 85 9c fe ff ff 00 	movl   $0x0,-0x164(%rbp)
    e34c:	00 00 00 
    e34f:	c7 85 a0 fe ff ff f0 	movl   $0xe39926f0,-0x160(%rbp)
    e356:	26 99 e3 
    e359:	c7 85 a4 fe ff ff 07 	movl   $0x7,-0x15c(%rbp)
    e360:	00 00 00 
    e363:	c7 85 a8 fe ff ff 01 	movl   $0x1,-0x158(%rbp)
    e36a:	00 00 00 
    e36d:	c7 85 ac fe ff ff 02 	movl   $0x2,-0x154(%rbp)
    e374:	00 00 00 
    e377:	c7 85 b0 fe ff ff 9d 	movl   $0xb748e29d,-0x150(%rbp)
    e37e:	e2 48 b7 
    e381:	c7 85 b4 fe ff ff 23 	movl   $0xc159df23,-0x14c(%rbp)
    e388:	df 59 c1 
    e38b:	c7 85 b8 fe ff ff ff 	movl   $0xffffffff,-0x148(%rbp)
    e392:	ff ff ff 
    e395:	c7 85 bc fe ff ff 00 	movl   $0x0,-0x144(%rbp)
    e39c:	00 00 00 
    e39f:	c7 85 c0 fe ff ff f0 	movl   $0xe39926f0,-0x140(%rbp)
    e3a6:	26 99 e3 
    e3a9:	c7 85 c4 fe ff ff 01 	movl   $0x1,-0x13c(%rbp)
    e3b0:	00 00 00 
    e3b3:	c7 85 c8 fe ff ff 04 	movl   $0x4,-0x138(%rbp)
    e3ba:	00 00 00 
    e3bd:	c7 85 cc fe ff ff 56 	movl   $0x405d8856,-0x134(%rbp)
    e3c4:	88 5d 40 
    e3c7:	c7 85 d0 fe ff ff 07 	movl   $0x7,-0x130(%rbp)
    e3ce:	00 00 00 
    e3d1:	c7 85 d4 fe ff ff ff 	movl   $0xffffffff,-0x12c(%rbp)
    e3d8:	ff ff ff 
    e3db:	c7 85 d8 fe ff ff 65 	movl   $0xb8596265,-0x128(%rbp)
    e3e2:	62 59 b8 
    e3e5:	c7 85 dc fe ff ff 01 	movl   $0x1,-0x124(%rbp)
    e3ec:	00 00 00 
    e3ef:	c7 85 e0 fe ff ff 01 	movl   $0x1,-0x120(%rbp)
    e3f6:	00 00 00 
    e3f9:	c7 85 e4 fe ff ff 65 	movl   $0xb8596265,-0x11c(%rbp)
    e400:	62 59 b8 
    e403:	c7 85 e8 fe ff ff ff 	movl   $0xffffffff,-0x118(%rbp)
    e40a:	ff ff ff 
    e40d:	c7 85 ec fe ff ff cf 	movl   $0xbdc6acf,-0x114(%rbp)
    e414:	6a dc 0b 
    e417:	48 8d 05 ba 99 01 00 	lea    0x199ba(%rip),%rax        # 27dd8 <g_204>
    e41e:	48 89 85 70 fb ff ff 	mov    %rax,-0x490(%rbp)
    e425:	48 8d 85 70 fb ff ff 	lea    -0x490(%rbp),%rax
    e42c:	48 89 85 d8 fb ff ff 	mov    %rax,-0x428(%rbp)
    e433:	c7 85 14 fb ff ff 00 	movl   $0x0,-0x4ec(%rbp)
    e43a:	00 00 00 
    e43d:	eb 1a                	jmp    e459 <func_15+0x7b2>
    e43f:	8b 85 14 fb ff ff    	mov    -0x4ec(%rbp),%eax
    e445:	48 98                	cltq   
    e447:	c7 84 85 20 fc ff ff 	movl   $0x4ef6fded,-0x3e0(%rbp,%rax,4)
    e44e:	ed fd f6 4e 
    e452:	83 85 14 fb ff ff 01 	addl   $0x1,-0x4ec(%rbp)
    e459:	83 bd 14 fb ff ff 04 	cmpl   $0x4,-0x4ec(%rbp)
    e460:	7e dd                	jle    e43f <func_15+0x798>
    e462:	c7 85 14 fb ff ff 00 	movl   $0x0,-0x4ec(%rbp)
    e469:	00 00 00 
    e46c:	eb 14                	jmp    e482 <func_15+0x7db>
    e46e:	8b 85 14 fb ff ff    	mov    -0x4ec(%rbp),%eax
    e474:	48 98                	cltq   
    e476:	c6 44 05 e1 7b       	movb   $0x7b,-0x1f(%rbp,%rax,1)
    e47b:	83 85 14 fb ff ff 01 	addl   $0x1,-0x4ec(%rbp)
    e482:	83 bd 14 fb ff ff 01 	cmpl   $0x1,-0x4ec(%rbp)
    e489:	7e e3                	jle    e46e <func_15+0x7c7>
    e48b:	c7 85 14 fb ff ff 00 	movl   $0x0,-0x4ec(%rbp)
    e492:	00 00 00 
    e495:	eb 4a                	jmp    e4e1 <func_15+0x83a>
    e497:	c7 85 18 fb ff ff 00 	movl   $0x0,-0x4e8(%rbp)
    e49e:	00 00 00 
    e4a1:	eb 2e                	jmp    e4d1 <func_15+0x82a>
    e4a3:	8b 85 18 fb ff ff    	mov    -0x4e8(%rbp),%eax
    e4a9:	48 98                	cltq   
    e4ab:	8b 95 14 fb ff ff    	mov    -0x4ec(%rbp),%edx
    e4b1:	48 63 d2             	movslq %edx,%rdx
    e4b4:	48 01 d2             	add    %rdx,%rdx
    e4b7:	48 8d 4d f0          	lea    -0x10(%rbp),%rcx
    e4bb:	48 01 ca             	add    %rcx,%rdx
    e4be:	48 01 d0             	add    %rdx,%rax
    e4c1:	48 2d d6 03 00 00    	sub    $0x3d6,%rax
    e4c7:	c6 00 6e             	movb   $0x6e,(%rax)
    e4ca:	83 85 18 fb ff ff 01 	addl   $0x1,-0x4e8(%rbp)
    e4d1:	83 bd 18 fb ff ff 01 	cmpl   $0x1,-0x4e8(%rbp)
    e4d8:	7e c9                	jle    e4a3 <func_15+0x7fc>
    e4da:	83 85 14 fb ff ff 01 	addl   $0x1,-0x4ec(%rbp)
    e4e1:	83 bd 14 fb ff ff 02 	cmpl   $0x2,-0x4ec(%rbp)
    e4e8:	7e ad                	jle    e497 <func_15+0x7f0>
    e4ea:	c7 05 60 4b 01 00 1c 	movl   $0x1c,0x14b60(%rip)        # 23054 <g_200>
    e4f1:	00 00 00 
    e4f4:	e9 ac 03 00 00       	jmpq   e8a5 <func_15+0xbfe>
    e4f9:	48 8d 05 70 8a 01 00 	lea    0x18a70(%rip),%rax        # 26f70 <g_1374>
    e500:	48 89 85 e0 fb ff ff 	mov    %rax,-0x420(%rbp)
    e507:	c7 85 38 fb ff ff 28 	movl   $0x94a7da28,-0x4c8(%rbp)
    e50e:	da a7 94 
    e511:	48 b8 fa 53 34 04 ba 	movabs $0x45b5ba043453fa,%rax
    e518:	b5 45 00 
    e51b:	48 89 85 e8 fb ff ff 	mov    %rax,-0x418(%rbp)
    e522:	c7 85 3c fb ff ff 22 	movl   $0xcebb8122,-0x4c4(%rbp)
    e529:	81 bb ce 
    e52c:	c7 85 40 fb ff ff ff 	movl   $0xffffffff,-0x4c0(%rbp)
    e533:	ff ff ff 
    e536:	c7 85 40 fd ff ff 70 	movl   $0xf8202470,-0x2c0(%rbp)
    e53d:	24 20 f8 
    e540:	c7 85 44 fd ff ff 70 	movl   $0xf8202470,-0x2bc(%rbp)
    e547:	24 20 f8 
    e54a:	c7 85 48 fd ff ff 70 	movl   $0xf8202470,-0x2b8(%rbp)
    e551:	24 20 f8 
    e554:	c7 85 4c fd ff ff 70 	movl   $0xf8202470,-0x2b4(%rbp)
    e55b:	24 20 f8 
    e55e:	c7 85 50 fd ff ff 70 	movl   $0xf8202470,-0x2b0(%rbp)
    e565:	24 20 f8 
    e568:	c7 85 54 fd ff ff 4f 	movl   $0x3646e94f,-0x2ac(%rbp)
    e56f:	e9 46 36 
    e572:	c7 85 58 fd ff ff 4f 	movl   $0x3646e94f,-0x2a8(%rbp)
    e579:	e9 46 36 
    e57c:	c7 85 5c fd ff ff 4f 	movl   $0x3646e94f,-0x2a4(%rbp)
    e583:	e9 46 36 
    e586:	c7 85 60 fd ff ff 4f 	movl   $0x3646e94f,-0x2a0(%rbp)
    e58d:	e9 46 36 
    e590:	c7 85 64 fd ff ff 4f 	movl   $0x3646e94f,-0x29c(%rbp)
    e597:	e9 46 36 
    e59a:	c7 85 68 fd ff ff 70 	movl   $0xf8202470,-0x298(%rbp)
    e5a1:	24 20 f8 
    e5a4:	c7 85 6c fd ff ff 70 	movl   $0xf8202470,-0x294(%rbp)
    e5ab:	24 20 f8 
    e5ae:	c7 85 70 fd ff ff 70 	movl   $0xf8202470,-0x290(%rbp)
    e5b5:	24 20 f8 
    e5b8:	c7 85 74 fd ff ff 70 	movl   $0xf8202470,-0x28c(%rbp)
    e5bf:	24 20 f8 
    e5c2:	c7 85 78 fd ff ff 70 	movl   $0xf8202470,-0x288(%rbp)
    e5c9:	24 20 f8 
    e5cc:	c7 85 7c fd ff ff 4f 	movl   $0x3646e94f,-0x284(%rbp)
    e5d3:	e9 46 36 
    e5d6:	c7 85 80 fd ff ff 4f 	movl   $0x3646e94f,-0x280(%rbp)
    e5dd:	e9 46 36 
    e5e0:	c7 85 84 fd ff ff 4f 	movl   $0x3646e94f,-0x27c(%rbp)
    e5e7:	e9 46 36 
    e5ea:	c7 85 88 fd ff ff 4f 	movl   $0x3646e94f,-0x278(%rbp)
    e5f1:	e9 46 36 
    e5f4:	c7 85 8c fd ff ff 4f 	movl   $0x3646e94f,-0x274(%rbp)
    e5fb:	e9 46 36 
    e5fe:	c7 85 90 fd ff ff 70 	movl   $0xf8202470,-0x270(%rbp)
    e605:	24 20 f8 
    e608:	c7 85 94 fd ff ff 70 	movl   $0xf8202470,-0x26c(%rbp)
    e60f:	24 20 f8 
    e612:	c7 85 98 fd ff ff 70 	movl   $0xf8202470,-0x268(%rbp)
    e619:	24 20 f8 
    e61c:	c7 85 9c fd ff ff 70 	movl   $0xf8202470,-0x264(%rbp)
    e623:	24 20 f8 
    e626:	c7 85 a0 fd ff ff 70 	movl   $0xf8202470,-0x260(%rbp)
    e62d:	24 20 f8 
    e630:	c7 85 a4 fd ff ff 4f 	movl   $0x3646e94f,-0x25c(%rbp)
    e637:	e9 46 36 
    e63a:	c7 85 a8 fd ff ff 4f 	movl   $0x3646e94f,-0x258(%rbp)
    e641:	e9 46 36 
    e644:	c7 85 ac fd ff ff 4f 	movl   $0x3646e94f,-0x254(%rbp)
    e64b:	e9 46 36 
    e64e:	c7 85 b0 fd ff ff 4f 	movl   $0x3646e94f,-0x250(%rbp)
    e655:	e9 46 36 
    e658:	c7 85 b4 fd ff ff 4f 	movl   $0x3646e94f,-0x24c(%rbp)
    e65f:	e9 46 36 
    e662:	c7 85 b8 fd ff ff 70 	movl   $0xf8202470,-0x248(%rbp)
    e669:	24 20 f8 
    e66c:	c7 85 bc fd ff ff 70 	movl   $0xf8202470,-0x244(%rbp)
    e673:	24 20 f8 
    e676:	c7 85 c0 fd ff ff 70 	movl   $0xf8202470,-0x240(%rbp)
    e67d:	24 20 f8 
    e680:	c7 85 c4 fd ff ff 70 	movl   $0xf8202470,-0x23c(%rbp)
    e687:	24 20 f8 
    e68a:	c7 85 c8 fd ff ff 70 	movl   $0xf8202470,-0x238(%rbp)
    e691:	24 20 f8 
    e694:	c7 85 cc fd ff ff 4f 	movl   $0x3646e94f,-0x234(%rbp)
    e69b:	e9 46 36 
    e69e:	c7 85 d0 fd ff ff 4f 	movl   $0x3646e94f,-0x230(%rbp)
    e6a5:	e9 46 36 
    e6a8:	c7 85 d4 fd ff ff 4f 	movl   $0x3646e94f,-0x22c(%rbp)
    e6af:	e9 46 36 
    e6b2:	c7 85 d8 fd ff ff 4f 	movl   $0x3646e94f,-0x228(%rbp)
    e6b9:	e9 46 36 
    e6bc:	c7 85 dc fd ff ff 4f 	movl   $0x3646e94f,-0x224(%rbp)
    e6c3:	e9 46 36 
    e6c6:	c7 85 e0 fd ff ff 70 	movl   $0xf8202470,-0x220(%rbp)
    e6cd:	24 20 f8 
    e6d0:	c7 85 e4 fd ff ff 70 	movl   $0xf8202470,-0x21c(%rbp)
    e6d7:	24 20 f8 
    e6da:	c7 85 e8 fd ff ff 70 	movl   $0xf8202470,-0x218(%rbp)
    e6e1:	24 20 f8 
    e6e4:	c7 85 ec fd ff ff 70 	movl   $0xf8202470,-0x214(%rbp)
    e6eb:	24 20 f8 
    e6ee:	c7 85 f0 fd ff ff 70 	movl   $0xf8202470,-0x210(%rbp)
    e6f5:	24 20 f8 
    e6f8:	c7 85 f4 fd ff ff 4f 	movl   $0x3646e94f,-0x20c(%rbp)
    e6ff:	e9 46 36 
    e702:	c7 85 f8 fd ff ff 4f 	movl   $0x3646e94f,-0x208(%rbp)
    e709:	e9 46 36 
    e70c:	c7 85 fc fd ff ff 4f 	movl   $0x3646e94f,-0x204(%rbp)
    e713:	e9 46 36 
    e716:	c7 85 00 fe ff ff 4f 	movl   $0x3646e94f,-0x200(%rbp)
    e71d:	e9 46 36 
    e720:	c7 85 04 fe ff ff 4f 	movl   $0x3646e94f,-0x1fc(%rbp)
    e727:	e9 46 36 
    e72a:	48 8d 05 57 8a 01 00 	lea    0x18a57(%rip),%rax        # 27188 <g_3054>
    e731:	48 89 85 f0 fb ff ff 	mov    %rax,-0x410(%rbp)
    e738:	c7 85 44 fb ff ff ff 	movl   $0xffffffff,-0x4bc(%rbp)
    e73f:	ff ff ff 
    e742:	48 c7 85 80 fc ff ff 	movq   $0x0,-0x380(%rbp)
    e749:	00 00 00 00 
    e74d:	48 8d 05 0c 89 01 00 	lea    0x1890c(%rip),%rax        # 27060 <g_2552>
    e754:	48 89 85 88 fc ff ff 	mov    %rax,-0x378(%rbp)
    e75b:	48 c7 85 90 fc ff ff 	movq   $0x0,-0x370(%rbp)
    e762:	00 00 00 00 
    e766:	48 8d 05 f3 88 01 00 	lea    0x188f3(%rip),%rax        # 27060 <g_2552>
    e76d:	48 89 85 98 fc ff ff 	mov    %rax,-0x368(%rbp)
    e774:	48 c7 85 a0 fc ff ff 	movq   $0x0,-0x360(%rbp)
    e77b:	00 00 00 00 
    e77f:	48 8d 05 da 88 01 00 	lea    0x188da(%rip),%rax        # 27060 <g_2552>
    e786:	48 89 85 a8 fc ff ff 	mov    %rax,-0x358(%rbp)
    e78d:	48 c7 85 b0 fc ff ff 	movq   $0x0,-0x350(%rbp)
    e794:	00 00 00 00 
    e798:	48 8d 05 c1 88 01 00 	lea    0x188c1(%rip),%rax        # 27060 <g_2552>
    e79f:	48 89 85 b8 fc ff ff 	mov    %rax,-0x348(%rbp)
    e7a6:	c7 85 48 fb ff ff 1a 	movl   $0xae01a21a,-0x4b8(%rbp)
    e7ad:	a2 01 ae 
    e7b0:	48 c7 85 f8 fb ff ff 	movq   $0x0,-0x408(%rbp)
    e7b7:	00 00 00 00 
    e7bb:	48 b8 b8 dc 02 79 40 	movabs $0xb26cb8407902dcb8,%rax
    e7c2:	b8 6c b2 
    e7c5:	48 89 85 00 fc ff ff 	mov    %rax,-0x400(%rbp)
    e7cc:	48 8d 05 5d 96 01 00 	lea    0x1965d(%rip),%rax        # 27e30 <g_1028>
    e7d3:	48 89 85 78 fb ff ff 	mov    %rax,-0x488(%rbp)
    e7da:	48 8d 85 78 fb ff ff 	lea    -0x488(%rbp),%rax
    e7e1:	48 89 85 08 fc ff ff 	mov    %rax,-0x3f8(%rbp)
    e7e8:	66 c7 85 10 fb ff ff 	movw   $0xc0c5,-0x4f0(%rbp)
    e7ef:	c5 c0 
    e7f1:	66 c7 85 12 fb ff ff 	movw   $0xffff,-0x4ee(%rbp)
    e7f8:	ff ff 
    e7fa:	c7 85 4c fb ff ff 11 	movl   $0x9ece7811,-0x4b4(%rbp)
    e801:	78 ce 9e 
    e804:	48 8d 05 c9 4c 01 00 	lea    0x14cc9(%rip),%rax        # 234d4 <g_2012>
    e80b:	48 89 85 10 fc ff ff 	mov    %rax,-0x3f0(%rbp)
    e812:	c6 85 06 fb ff ff eb 	movb   $0xeb,-0x4fa(%rbp)
    e819:	48 c7 85 40 fc ff ff 	movq   $0x0,-0x3c0(%rbp)
    e820:	00 00 00 00 
    e824:	48 c7 85 48 fc ff ff 	movq   $0x0,-0x3b8(%rbp)
    e82b:	00 00 00 00 
    e82f:	48 8d 85 68 fb ff ff 	lea    -0x498(%rbp),%rax
    e836:	48 89 85 50 fc ff ff 	mov    %rax,-0x3b0(%rbp)
    e83d:	48 c7 85 58 fc ff ff 	movq   $0x0,-0x3a8(%rbp)
    e844:	00 00 00 00 
    e848:	48 c7 85 60 fc ff ff 	movq   $0x0,-0x3a0(%rbp)
    e84f:	00 00 00 00 
    e853:	48 8d 85 68 fb ff ff 	lea    -0x498(%rbp),%rax
    e85a:	48 89 85 68 fc ff ff 	mov    %rax,-0x398(%rbp)
    e861:	48 c7 85 70 fc ff ff 	movq   $0x0,-0x390(%rbp)
    e868:	00 00 00 00 
    e86c:	c7 85 50 fb ff ff c3 	movl   $0xbb2136c3,-0x4b0(%rbp)
    e873:	36 21 bb 
    e876:	c7 85 54 fb ff ff 05 	movl   $0x5,-0x4ac(%rbp)
    e87d:	00 00 00 
    e880:	c6 85 07 fb ff ff 04 	movb   $0x4,-0x4f9(%rbp)
    e887:	8b 05 c7 47 01 00    	mov    0x147c7(%rip),%eax        # 23054 <g_200>
    e88d:	0f b6 c0             	movzbl %al,%eax
    e890:	be 07 00 00 00       	mov    $0x7,%esi
    e895:	89 c7                	mov    %eax,%edi
    e897:	e8 dc d2 ff ff       	callq  bb78 <safe_sub_func_uint8_t_u_u>
    e89c:	0f b6 c0             	movzbl %al,%eax
    e89f:	89 05 af 47 01 00    	mov    %eax,0x147af(%rip)        # 23054 <g_200>
    e8a5:	8b 05 a9 47 01 00    	mov    0x147a9(%rip),%eax        # 23054 <g_200>
    e8ab:	83 f8 14             	cmp    $0x14,%eax
    e8ae:	0f 8e 45 fc ff ff    	jle    e4f9 <func_15+0x852>
    e8b4:	8b 85 30 fb ff ff    	mov    -0x4d0(%rbp),%eax
    e8ba:	48 98                	cltq   
    e8bc:	48 09 85 f8 fa ff ff 	or     %rax,-0x508(%rbp)
    e8c3:	48 8d 15 b6 4f 01 00 	lea    0x14fb6(%rip),%rdx        # 23880 <g_2294>
    e8ca:	48 8b 85 f8 fa ff ff 	mov    -0x508(%rbp),%rax
    e8d1:	48 89 02             	mov    %rax,(%rdx)
    e8d4:	48 8b 05 a5 86 01 00 	mov    0x186a5(%rip),%rax        # 26f80 <g_1662>
    e8db:	48 83 bd c0 fb ff ff 	cmpq   $0x0,-0x440(%rbp)
    e8e2:	00 
    e8e3:	0f 95 c0             	setne  %al
    e8e6:	0f b6 d8             	movzbl %al,%ebx
    e8e9:	48 8b 85 f8 fa ff ff 	mov    -0x508(%rbp),%rax
    e8f0:	0f b6 c0             	movzbl %al,%eax
    e8f3:	be 64 00 00 00       	mov    $0x64,%esi
    e8f8:	89 c7                	mov    %eax,%edi
    e8fa:	e8 79 d2 ff ff       	callq  bb78 <safe_sub_func_uint8_t_u_u>
    e8ff:	48 8b 05 62 87 01 00 	mov    0x18762(%rip),%rax        # 27068 <g_2551>
    e906:	48 8b 00             	mov    (%rax),%rax
    e909:	8b 00                	mov    (%rax),%eax
    e90b:	be d4 ac 9b 4c       	mov    $0x4c9bacd4,%esi
    e910:	89 c7                	mov    %eax,%edi
    e912:	e8 e6 d5 ff ff       	callq  befd <safe_mod_func_uint32_t_u_u>
    e917:	09 c3                	or     %eax,%ebx
    e919:	89 da                	mov    %ebx,%edx
    e91b:	48 8b 85 f8 fa ff ff 	mov    -0x508(%rbp),%rax
    e922:	31 d0                	xor    %edx,%eax
    e924:	89 05 e6 4f 01 00    	mov    %eax,0x14fe6(%rip)        # 23910 <g_3590>
    e92a:	48 8b 05 b7 6f 01 00 	mov    0x16fb7(%rip),%rax        # 258e8 <g_195>
    e931:	48 8b 55 a8          	mov    -0x58(%rbp),%rdx
    e935:	48 89 10             	mov    %rdx,(%rax)
    e938:	48 8b 10             	mov    (%rax),%rdx
    e93b:	48 8b 85 d0 fb ff ff 	mov    -0x430(%rbp),%rax
    e942:	48 89 10             	mov    %rdx,(%rax)
    e945:	c6 85 01 fb ff ff 00 	movb   $0x0,-0x4ff(%rbp)
    e94c:	80 bd 01 fb ff ff ea 	cmpb   $0xea,-0x4ff(%rbp)
    e953:	74 09                	je     e95e <func_15+0xcb7>
    e955:	48 8b 85 f8 fa ff ff 	mov    -0x508(%rbp),%rax
    e95c:	eb 65                	jmp    e9c3 <func_15+0xd1c>
    e95e:	0f b6 45 e4          	movzbl -0x1c(%rbp),%eax
    e962:	0f be d0             	movsbl %al,%edx
    e965:	8b 85 18 fe ff ff    	mov    -0x1e8(%rbp),%eax
    e96b:	98                   	cwtl   
    e96c:	89 d6                	mov    %edx,%esi
    e96e:	89 c7                	mov    %eax,%edi
    e970:	e8 e0 ca ff ff       	callq  b455 <safe_div_func_int16_t_s_s>
    e975:	48 8b 95 70 fb ff ff 	mov    -0x490(%rbp),%rdx
    e97c:	48 8b 85 d8 fb ff ff 	mov    -0x428(%rbp),%rax
    e983:	48 89 10             	mov    %rdx,(%rax)
    e986:	48 8b 85 d8 fb ff ff 	mov    -0x428(%rbp),%rax
    e98d:	48 8b 00             	mov    (%rax),%rax
    e990:	48 85 c0             	test   %rax,%rax
    e993:	0f 95 c0             	setne  %al
    e996:	0f b6 c0             	movzbl %al,%eax
    e999:	39 85 34 fb ff ff    	cmp    %eax,-0x4cc(%rbp)
    e99f:	48 8b 85 f0 fa ff ff 	mov    -0x510(%rbp),%rax
    e9a6:	8b 08                	mov    (%rax),%ecx
    e9a8:	48 8b 05 51 87 01 00 	mov    0x18751(%rip),%rax        # 27100 <g_2896>
    e9af:	8b 10                	mov    (%rax),%edx
    e9b1:	48 8b 05 48 87 01 00 	mov    0x18748(%rip),%rax        # 27100 <g_2896>
    e9b8:	31 ca                	xor    %ecx,%edx
    e9ba:	89 10                	mov    %edx,(%rax)
    e9bc:	48 8b 85 f8 fa ff ff 	mov    -0x508(%rbp),%rax
    e9c3:	48 8b 4d e8          	mov    -0x18(%rbp),%rcx
    e9c7:	64 48 33 0c 25 28 00 	xor    %fs:0x28,%rcx
    e9ce:	00 00 
    e9d0:	74 05                	je     e9d7 <func_15+0xd30>
    e9d2:	e8 99 c6 ff ff       	callq  b070 <__stack_chk_fail@plt>
    e9d7:	48 81 c4 08 05 00 00 	add    $0x508,%rsp
    e9de:	5b                   	pop    %rbx
    e9df:	5d                   	pop    %rbp
    e9e0:	c3                   	retq   

000000000000e9e1 <func_18>:
    e9e1:	f3 0f 1e fa          	endbr64 
    e9e5:	55                   	push   %rbp
    e9e6:	48 89 e5             	mov    %rsp,%rbp
    e9e9:	41 57                	push   %r15
    e9eb:	41 56                	push   %r14
    e9ed:	41 55                	push   %r13
    e9ef:	41 54                	push   %r12
    e9f1:	53                   	push   %rbx
    e9f2:	48 81 ec 00 10 00 00 	sub    $0x1000,%rsp
    e9f9:	48 83 0c 24 00       	orq    $0x0,(%rsp)
    e9fe:	48 81 ec c8 09 00 00 	sub    $0x9c8,%rsp
    ea05:	89 bd 1c e6 ff ff    	mov    %edi,-0x19e4(%rbp)
    ea0b:	89 b5 18 e6 ff ff    	mov    %esi,-0x19e8(%rbp)
    ea11:	64 48 8b 04 25 28 00 	mov    %fs:0x28,%rax
    ea18:	00 00 
    ea1a:	48 89 45 c8          	mov    %rax,-0x38(%rbp)
    ea1e:	31 c0                	xor    %eax,%eax
    ea20:	48 b8 5c 32 27 78 ff 	movabs $0x9be675ff7827325c,%rax
    ea27:	75 e6 9b 
    ea2a:	48 89 85 e0 e6 ff ff 	mov    %rax,-0x1920(%rbp)
    ea31:	48 8d 05 30 4a 01 00 	lea    0x14a30(%rip),%rax        # 23468 <g_714>
    ea38:	48 89 85 08 e8 ff ff 	mov    %rax,-0x17f8(%rbp)
    ea3f:	c7 85 5c e6 ff ff e2 	movl   $0xf1fb8de2,-0x19a4(%rbp)
    ea46:	8d fb f1 
    ea49:	c7 85 38 e6 ff ff 09 	movl   $0x9,-0x19c8(%rbp)
    ea50:	00 00 00 
    ea53:	c7 85 00 eb ff ff 06 	movl   $0x6,-0x1500(%rbp)
    ea5a:	00 00 00 
    ea5d:	c7 85 04 eb ff ff 06 	movl   $0x6,-0x14fc(%rbp)
    ea64:	00 00 00 
    ea67:	c7 85 08 eb ff ff 06 	movl   $0x6,-0x14f8(%rbp)
    ea6e:	00 00 00 
    ea71:	c7 85 0c eb ff ff 06 	movl   $0x6,-0x14f4(%rbp)
    ea78:	00 00 00 
    ea7b:	c7 85 10 eb ff ff 06 	movl   $0x6,-0x14f0(%rbp)
    ea82:	00 00 00 
    ea85:	c7 85 14 eb ff ff 06 	movl   $0x6,-0x14ec(%rbp)
    ea8c:	00 00 00 
    ea8f:	c7 85 18 eb ff ff 06 	movl   $0x6,-0x14e8(%rbp)
    ea96:	00 00 00 
    ea99:	c7 85 1c eb ff ff 06 	movl   $0x6,-0x14e4(%rbp)
    eaa0:	00 00 00 
    eaa3:	c7 85 20 eb ff ff 06 	movl   $0x6,-0x14e0(%rbp)
    eaaa:	00 00 00 
    eaad:	c7 85 24 eb ff ff 06 	movl   $0x6,-0x14dc(%rbp)
    eab4:	00 00 00 
    eab7:	c7 85 28 eb ff ff 06 	movl   $0x6,-0x14d8(%rbp)
    eabe:	00 00 00 
    eac1:	c7 85 2c eb ff ff 06 	movl   $0x6,-0x14d4(%rbp)
    eac8:	00 00 00 
    eacb:	c7 85 30 eb ff ff 06 	movl   $0x6,-0x14d0(%rbp)
    ead2:	00 00 00 
    ead5:	c7 85 34 eb ff ff 06 	movl   $0x6,-0x14cc(%rbp)
    eadc:	00 00 00 
    eadf:	c7 85 38 eb ff ff 06 	movl   $0x6,-0x14c8(%rbp)
    eae6:	00 00 00 
    eae9:	c7 85 3c eb ff ff 06 	movl   $0x6,-0x14c4(%rbp)
    eaf0:	00 00 00 
    eaf3:	c7 85 40 eb ff ff 06 	movl   $0x6,-0x14c0(%rbp)
    eafa:	00 00 00 
    eafd:	c7 85 44 eb ff ff 06 	movl   $0x6,-0x14bc(%rbp)
    eb04:	00 00 00 
    eb07:	c7 85 48 eb ff ff 06 	movl   $0x6,-0x14b8(%rbp)
    eb0e:	00 00 00 
    eb11:	c7 85 4c eb ff ff 06 	movl   $0x6,-0x14b4(%rbp)
    eb18:	00 00 00 
    eb1b:	48 c7 85 e8 e6 ff ff 	movq   $0x4,-0x1918(%rbp)
    eb22:	04 00 00 00 
    eb26:	c7 85 3c e6 ff ff f5 	movl   $0xb81b1ef5,-0x19c4(%rbp)
    eb2d:	1e 1b b8 
    eb30:	48 c7 85 f0 e6 ff ff 	movq   $0x0,-0x1910(%rbp)
    eb37:	00 00 00 00 
    eb3b:	48 8d 05 ee 75 01 00 	lea    0x175ee(%rip),%rax        # 26130 <g_927>
    eb42:	48 89 85 d0 e7 ff ff 	mov    %rax,-0x1830(%rbp)
    eb49:	c7 85 40 e6 ff ff 44 	movl   $0x69413b44,-0x19c0(%rbp)
    eb50:	3b 41 69 
    eb53:	48 8d 05 ca 44 01 00 	lea    0x144ca(%rip),%rax        # 23024 <g_3>
    eb5a:	48 89 85 d8 e7 ff ff 	mov    %rax,-0x1828(%rbp)
    eb61:	48 8d 05 08 84 01 00 	lea    0x18408(%rip),%rax        # 26f70 <g_1374>
    eb68:	48 89 85 40 ea ff ff 	mov    %rax,-0x15c0(%rbp)
    eb6f:	48 8d 05 fa 83 01 00 	lea    0x183fa(%rip),%rax        # 26f70 <g_1374>
    eb76:	48 89 85 48 ea ff ff 	mov    %rax,-0x15b8(%rbp)
    eb7d:	48 8d 05 ec 83 01 00 	lea    0x183ec(%rip),%rax        # 26f70 <g_1374>
    eb84:	48 89 85 50 ea ff ff 	mov    %rax,-0x15b0(%rbp)
    eb8b:	48 8d 05 de 83 01 00 	lea    0x183de(%rip),%rax        # 26f70 <g_1374>
    eb92:	48 89 85 58 ea ff ff 	mov    %rax,-0x15a8(%rbp)
    eb99:	48 8d 05 d0 83 01 00 	lea    0x183d0(%rip),%rax        # 26f70 <g_1374>
    eba0:	48 89 85 60 ea ff ff 	mov    %rax,-0x15a0(%rbp)
    eba7:	48 8d 05 c2 83 01 00 	lea    0x183c2(%rip),%rax        # 26f70 <g_1374>
    ebae:	48 89 85 68 ea ff ff 	mov    %rax,-0x1598(%rbp)
    ebb5:	48 8d 05 b4 83 01 00 	lea    0x183b4(%rip),%rax        # 26f70 <g_1374>
    ebbc:	48 89 85 70 ea ff ff 	mov    %rax,-0x1590(%rbp)
    ebc3:	48 8d 85 40 ea ff ff 	lea    -0x15c0(%rbp),%rax
    ebca:	48 83 c0 20          	add    $0x20,%rax
    ebce:	48 89 85 e0 e7 ff ff 	mov    %rax,-0x1820(%rbp)
    ebd5:	48 8d 05 fc 91 01 00 	lea    0x191fc(%rip),%rax        # 27dd8 <g_204>
    ebdc:	48 89 85 f8 e6 ff ff 	mov    %rax,-0x1908(%rbp)
    ebe3:	48 8d 85 f8 e6 ff ff 	lea    -0x1908(%rbp),%rax
    ebea:	48 89 85 e8 e7 ff ff 	mov    %rax,-0x1818(%rbp)
    ebf1:	48 c7 85 f0 e7 ff ff 	movq   $0x1,-0x1810(%rbp)
    ebf8:	01 00 00 00 
    ebfc:	c6 85 2c e6 ff ff 07 	movb   $0x7,-0x19d4(%rbp)
    ec03:	c7 85 58 e6 ff ff ff 	movl   $0xffffffff,-0x19a8(%rbp)
    ec0a:	ff ff ff 
    ec0d:	48 8d 85 50 e9 ff ff 	lea    -0x16b0(%rbp),%rax
    ec14:	48 83 c0 04          	add    $0x4,%rax
    ec18:	48 89 85 f8 e7 ff ff 	mov    %rax,-0x1808(%rbp)
    ec1f:	48 8d 05 2e 44 01 00 	lea    0x1442e(%rip),%rax        # 23054 <g_200>
    ec26:	48 89 85 00 e8 ff ff 	mov    %rax,-0x1800(%rbp)
    ec2d:	48 c7 85 00 e7 ff ff 	movq   $0x0,-0x1900(%rbp)
    ec34:	00 00 00 00 
    ec38:	48 c7 85 40 f0 ff ff 	movq   $0x0,-0xfc0(%rbp)
    ec3f:	00 00 00 00 
    ec43:	48 8d 85 00 e7 ff ff 	lea    -0x1900(%rbp),%rax
    ec4a:	48 89 85 48 f0 ff ff 	mov    %rax,-0xfb8(%rbp)
    ec51:	48 8d 85 00 e7 ff ff 	lea    -0x1900(%rbp),%rax
    ec58:	48 89 85 50 f0 ff ff 	mov    %rax,-0xfb0(%rbp)
    ec5f:	48 8d 85 00 e7 ff ff 	lea    -0x1900(%rbp),%rax
    ec66:	48 89 85 58 f0 ff ff 	mov    %rax,-0xfa8(%rbp)
    ec6d:	48 c7 85 60 f0 ff ff 	movq   $0x0,-0xfa0(%rbp)
    ec74:	00 00 00 00 
    ec78:	48 c7 85 68 f0 ff ff 	movq   $0x0,-0xf98(%rbp)
    ec7f:	00 00 00 00 
    ec83:	48 c7 85 70 f0 ff ff 	movq   $0x0,-0xf90(%rbp)
    ec8a:	00 00 00 00 
    ec8e:	48 8d 85 00 e7 ff ff 	lea    -0x1900(%rbp),%rax
    ec95:	48 89 85 78 f0 ff ff 	mov    %rax,-0xf88(%rbp)
    ec9c:	48 c7 85 80 f0 ff ff 	movq   $0x0,-0xf80(%rbp)
    eca3:	00 00 00 00 
    eca7:	48 8d 85 00 e7 ff ff 	lea    -0x1900(%rbp),%rax
    ecae:	48 89 85 88 f0 ff ff 	mov    %rax,-0xf78(%rbp)
    ecb5:	48 c7 85 90 f0 ff ff 	movq   $0x0,-0xf70(%rbp)
    ecbc:	00 00 00 00 
    ecc0:	48 c7 85 98 f0 ff ff 	movq   $0x0,-0xf68(%rbp)
    ecc7:	00 00 00 00 
    eccb:	48 8d 85 00 e7 ff ff 	lea    -0x1900(%rbp),%rax
    ecd2:	48 89 85 a0 f0 ff ff 	mov    %rax,-0xf60(%rbp)
    ecd9:	48 c7 85 a8 f0 ff ff 	movq   $0x0,-0xf58(%rbp)
    ece0:	00 00 00 00 
    ece4:	48 8d 85 00 e7 ff ff 	lea    -0x1900(%rbp),%rax
    eceb:	48 89 85 b0 f0 ff ff 	mov    %rax,-0xf50(%rbp)
    ecf2:	48 c7 85 b8 f0 ff ff 	movq   $0x0,-0xf48(%rbp)
    ecf9:	00 00 00 00 
    ecfd:	48 c7 85 c0 f0 ff ff 	movq   $0x0,-0xf40(%rbp)
    ed04:	00 00 00 00 
    ed08:	48 8d 85 00 e7 ff ff 	lea    -0x1900(%rbp),%rax
    ed0f:	48 89 85 c8 f0 ff ff 	mov    %rax,-0xf38(%rbp)
    ed16:	48 c7 85 d0 f0 ff ff 	movq   $0x0,-0xf30(%rbp)
    ed1d:	00 00 00 00 
    ed21:	48 8d 85 00 e7 ff ff 	lea    -0x1900(%rbp),%rax
    ed28:	48 89 85 d8 f0 ff ff 	mov    %rax,-0xf28(%rbp)
    ed2f:	48 c7 85 e0 f0 ff ff 	movq   $0x0,-0xf20(%rbp)
    ed36:	00 00 00 00 
    ed3a:	48 c7 85 e8 f0 ff ff 	movq   $0x0,-0xf18(%rbp)
    ed41:	00 00 00 00 
    ed45:	48 c7 85 f0 f0 ff ff 	movq   $0x0,-0xf10(%rbp)
    ed4c:	00 00 00 00 
    ed50:	48 8d 85 00 e7 ff ff 	lea    -0x1900(%rbp),%rax
    ed57:	48 89 85 f8 f0 ff ff 	mov    %rax,-0xf08(%rbp)
    ed5e:	48 8d 85 00 e7 ff ff 	lea    -0x1900(%rbp),%rax
    ed65:	48 89 85 00 f1 ff ff 	mov    %rax,-0xf00(%rbp)
    ed6c:	48 8d 85 00 e7 ff ff 	lea    -0x1900(%rbp),%rax
    ed73:	48 89 85 08 f1 ff ff 	mov    %rax,-0xef8(%rbp)
    ed7a:	48 c7 85 10 f1 ff ff 	movq   $0x0,-0xef0(%rbp)
    ed81:	00 00 00 00 
    ed85:	48 8d 85 00 e7 ff ff 	lea    -0x1900(%rbp),%rax
    ed8c:	48 89 85 18 f1 ff ff 	mov    %rax,-0xee8(%rbp)
    ed93:	48 8d 85 00 e7 ff ff 	lea    -0x1900(%rbp),%rax
    ed9a:	48 89 85 20 f1 ff ff 	mov    %rax,-0xee0(%rbp)
    eda1:	48 8d 85 00 e7 ff ff 	lea    -0x1900(%rbp),%rax
    eda8:	48 89 85 28 f1 ff ff 	mov    %rax,-0xed8(%rbp)
    edaf:	48 c7 85 30 f1 ff ff 	movq   $0x0,-0xed0(%rbp)
    edb6:	00 00 00 00 
    edba:	48 8d 85 00 e7 ff ff 	lea    -0x1900(%rbp),%rax
    edc1:	48 89 85 38 f1 ff ff 	mov    %rax,-0xec8(%rbp)
    edc8:	48 8d 85 00 e7 ff ff 	lea    -0x1900(%rbp),%rax
    edcf:	48 89 85 40 f1 ff ff 	mov    %rax,-0xec0(%rbp)
    edd6:	48 8d 85 00 e7 ff ff 	lea    -0x1900(%rbp),%rax
    eddd:	48 89 85 48 f1 ff ff 	mov    %rax,-0xeb8(%rbp)
    ede4:	48 c7 85 50 f1 ff ff 	movq   $0x0,-0xeb0(%rbp)
    edeb:	00 00 00 00 
    edef:	48 c7 85 58 f1 ff ff 	movq   $0x0,-0xea8(%rbp)
    edf6:	00 00 00 00 
    edfa:	48 c7 85 60 f1 ff ff 	movq   $0x0,-0xea0(%rbp)
    ee01:	00 00 00 00 
    ee05:	48 8d 85 00 e7 ff ff 	lea    -0x1900(%rbp),%rax
    ee0c:	48 89 85 68 f1 ff ff 	mov    %rax,-0xe98(%rbp)
    ee13:	48 c7 85 70 f1 ff ff 	movq   $0x0,-0xe90(%rbp)
    ee1a:	00 00 00 00 
    ee1e:	48 8d 85 00 e7 ff ff 	lea    -0x1900(%rbp),%rax
    ee25:	48 89 85 78 f1 ff ff 	mov    %rax,-0xe88(%rbp)
    ee2c:	48 c7 85 80 f1 ff ff 	movq   $0x0,-0xe80(%rbp)
    ee33:	00 00 00 00 
    ee37:	48 c7 85 88 f1 ff ff 	movq   $0x0,-0xe78(%rbp)
    ee3e:	00 00 00 00 
    ee42:	48 8d 85 00 e7 ff ff 	lea    -0x1900(%rbp),%rax
    ee49:	48 89 85 90 f1 ff ff 	mov    %rax,-0xe70(%rbp)
    ee50:	48 c7 85 98 f1 ff ff 	movq   $0x0,-0xe68(%rbp)
    ee57:	00 00 00 00 
    ee5b:	48 8d 85 00 e7 ff ff 	lea    -0x1900(%rbp),%rax
    ee62:	48 89 85 a0 f1 ff ff 	mov    %rax,-0xe60(%rbp)
    ee69:	48 c7 85 a8 f1 ff ff 	movq   $0x0,-0xe58(%rbp)
    ee70:	00 00 00 00 
    ee74:	48 c7 85 b0 f1 ff ff 	movq   $0x0,-0xe50(%rbp)
    ee7b:	00 00 00 00 
    ee7f:	48 8d 85 00 e7 ff ff 	lea    -0x1900(%rbp),%rax
    ee86:	48 89 85 b8 f1 ff ff 	mov    %rax,-0xe48(%rbp)
    ee8d:	48 c7 85 c0 f1 ff ff 	movq   $0x0,-0xe40(%rbp)
    ee94:	00 00 00 00 
    ee98:	48 8d 85 00 e7 ff ff 	lea    -0x1900(%rbp),%rax
    ee9f:	48 89 85 c8 f1 ff ff 	mov    %rax,-0xe38(%rbp)
    eea6:	48 c7 85 d0 f1 ff ff 	movq   $0x0,-0xe30(%rbp)
    eead:	00 00 00 00 
    eeb1:	48 c7 85 d8 f1 ff ff 	movq   $0x0,-0xe28(%rbp)
    eeb8:	00 00 00 00 
    eebc:	48 c7 85 e0 f1 ff ff 	movq   $0x0,-0xe20(%rbp)
    eec3:	00 00 00 00 
    eec7:	48 8d 85 00 e7 ff ff 	lea    -0x1900(%rbp),%rax
    eece:	48 89 85 e8 f1 ff ff 	mov    %rax,-0xe18(%rbp)
    eed5:	48 8d 85 00 e7 ff ff 	lea    -0x1900(%rbp),%rax
    eedc:	48 89 85 f0 f1 ff ff 	mov    %rax,-0xe10(%rbp)
    eee3:	48 8d 85 00 e7 ff ff 	lea    -0x1900(%rbp),%rax
    eeea:	48 89 85 f8 f1 ff ff 	mov    %rax,-0xe08(%rbp)
    eef1:	48 c7 85 00 f2 ff ff 	movq   $0x0,-0xe00(%rbp)
    eef8:	00 00 00 00 
    eefc:	48 8d 85 00 e7 ff ff 	lea    -0x1900(%rbp),%rax
    ef03:	48 89 85 08 f2 ff ff 	mov    %rax,-0xdf8(%rbp)
    ef0a:	48 8d 85 00 e7 ff ff 	lea    -0x1900(%rbp),%rax
    ef11:	48 89 85 10 f2 ff ff 	mov    %rax,-0xdf0(%rbp)
    ef18:	48 8d 85 00 e7 ff ff 	lea    -0x1900(%rbp),%rax
    ef1f:	48 89 85 18 f2 ff ff 	mov    %rax,-0xde8(%rbp)
    ef26:	48 c7 85 20 f2 ff ff 	movq   $0x0,-0xde0(%rbp)
    ef2d:	00 00 00 00 
    ef31:	48 8d 85 00 e7 ff ff 	lea    -0x1900(%rbp),%rax
    ef38:	48 89 85 28 f2 ff ff 	mov    %rax,-0xdd8(%rbp)
    ef3f:	48 8d 85 00 e7 ff ff 	lea    -0x1900(%rbp),%rax
    ef46:	48 89 85 30 f2 ff ff 	mov    %rax,-0xdd0(%rbp)
    ef4d:	48 8d 85 00 e7 ff ff 	lea    -0x1900(%rbp),%rax
    ef54:	48 89 85 38 f2 ff ff 	mov    %rax,-0xdc8(%rbp)
    ef5b:	48 8d 85 40 f0 ff ff 	lea    -0xfc0(%rbp),%rax
    ef62:	48 83 c0 20          	add    $0x20,%rax
    ef66:	48 89 85 c0 e7 ff ff 	mov    %rax,-0x1840(%rbp)
    ef6d:	48 8d 85 f0 e6 ff ff 	lea    -0x1910(%rbp),%rax
    ef74:	48 89 85 c8 e7 ff ff 	mov    %rax,-0x1838(%rbp)
    ef7b:	48 8d 05 7e 49 01 00 	lea    0x1497e(%rip),%rax        # 23900 <g_3013>
    ef82:	48 89 85 08 e7 ff ff 	mov    %rax,-0x18f8(%rbp)
    ef89:	48 8d 85 08 e7 ff ff 	lea    -0x18f8(%rbp),%rax
    ef90:	48 89 85 10 e7 ff ff 	mov    %rax,-0x18f0(%rbp)
    ef97:	c7 85 54 e6 ff ff 01 	movl   $0x1,-0x19ac(%rbp)
    ef9e:	00 00 00 
    efa1:	c6 85 2b e6 ff ff cf 	movb   $0xcf,-0x19d5(%rbp)
    efa8:	48 8d 05 91 72 01 00 	lea    0x17291(%rip),%rax        # 26240 <g_1027+0xe0>
    efaf:	48 89 85 b0 e7 ff ff 	mov    %rax,-0x1850(%rbp)
    efb6:	48 8d 05 8b 69 01 00 	lea    0x1698b(%rip),%rax        # 25948 <g_692>
    efbd:	48 89 85 18 e7 ff ff 	mov    %rax,-0x18e8(%rbp)
    efc4:	48 8d 85 18 e7 ff ff 	lea    -0x18e8(%rbp),%rax
    efcb:	48 89 85 b8 e7 ff ff 	mov    %rax,-0x1848(%rbp)
    efd2:	48 c7 85 a8 e7 ff ff 	movq   $0x0,-0x1858(%rbp)
    efd9:	00 00 00 00 
    efdd:	48 8d 85 10 e7 ff ff 	lea    -0x18f0(%rbp),%rax
    efe4:	48 89 85 a0 e7 ff ff 	mov    %rax,-0x1860(%rbp)
    efeb:	48 8d 85 38 e6 ff ff 	lea    -0x19c8(%rbp),%rax
    eff2:	48 89 85 a0 eb ff ff 	mov    %rax,-0x1460(%rbp)
    eff9:	48 c7 85 a8 eb ff ff 	movq   $0x0,-0x1458(%rbp)
    f000:	00 00 00 00 
    f004:	48 8d 85 38 e6 ff ff 	lea    -0x19c8(%rbp),%rax
    f00b:	48 89 85 b0 eb ff ff 	mov    %rax,-0x1450(%rbp)
    f012:	48 8d 05 ab 44 01 00 	lea    0x144ab(%rip),%rax        # 234c4 <g_1733>
    f019:	48 89 85 b8 eb ff ff 	mov    %rax,-0x1448(%rbp)
    f020:	48 8d 05 fd 3f 01 00 	lea    0x13ffd(%rip),%rax        # 23024 <g_3>
    f027:	48 89 85 c0 eb ff ff 	mov    %rax,-0x1440(%rbp)
    f02e:	48 8d 05 ef 3f 01 00 	lea    0x13fef(%rip),%rax        # 23024 <g_3>
    f035:	48 89 85 c8 eb ff ff 	mov    %rax,-0x1438(%rbp)
    f03c:	48 8d 05 81 44 01 00 	lea    0x14481(%rip),%rax        # 234c4 <g_1733>
    f043:	48 89 85 d0 eb ff ff 	mov    %rax,-0x1430(%rbp)
    f04a:	48 8d 85 38 e6 ff ff 	lea    -0x19c8(%rbp),%rax
    f051:	48 89 85 d8 eb ff ff 	mov    %rax,-0x1428(%rbp)
    f058:	48 c7 85 e0 eb ff ff 	movq   $0x0,-0x1420(%rbp)
    f05f:	00 00 00 00 
    f063:	48 8d 85 38 e6 ff ff 	lea    -0x19c8(%rbp),%rax
    f06a:	48 89 85 e8 eb ff ff 	mov    %rax,-0x1418(%rbp)
    f071:	48 8d 05 4c 44 01 00 	lea    0x1444c(%rip),%rax        # 234c4 <g_1733>
    f078:	48 89 85 f0 eb ff ff 	mov    %rax,-0x1410(%rbp)
    f07f:	48 8d 05 9e 3f 01 00 	lea    0x13f9e(%rip),%rax        # 23024 <g_3>
    f086:	48 89 85 f8 eb ff ff 	mov    %rax,-0x1408(%rbp)
    f08d:	48 8d 05 90 3f 01 00 	lea    0x13f90(%rip),%rax        # 23024 <g_3>
    f094:	48 89 85 00 ec ff ff 	mov    %rax,-0x1400(%rbp)
    f09b:	48 8d 05 22 44 01 00 	lea    0x14422(%rip),%rax        # 234c4 <g_1733>
    f0a2:	48 89 85 08 ec ff ff 	mov    %rax,-0x13f8(%rbp)
    f0a9:	48 8d 85 38 e6 ff ff 	lea    -0x19c8(%rbp),%rax
    f0b0:	48 89 85 10 ec ff ff 	mov    %rax,-0x13f0(%rbp)
    f0b7:	48 c7 85 18 ec ff ff 	movq   $0x0,-0x13e8(%rbp)
    f0be:	00 00 00 00 
    f0c2:	c7 85 50 e6 ff ff 00 	movl   $0x0,-0x19b0(%rbp)
    f0c9:	00 00 00 
    f0cc:	eb 1a                	jmp    f0e8 <func_18+0x707>
    f0ce:	8b 85 50 e6 ff ff    	mov    -0x19b0(%rbp),%eax
    f0d4:	48 98                	cltq   
    f0d6:	c7 84 85 90 e9 ff ff 	movl   $0x2f86063d,-0x1670(%rbp,%rax,4)
    f0dd:	3d 06 86 2f 
    f0e1:	83 85 50 e6 ff ff 01 	addl   $0x1,-0x19b0(%rbp)
    f0e8:	83 bd 50 e6 ff ff 06 	cmpl   $0x6,-0x19b0(%rbp)
    f0ef:	7e dd                	jle    f0ce <func_18+0x6ed>
    f0f1:	c7 85 50 e6 ff ff 00 	movl   $0x0,-0x19b0(%rbp)
    f0f8:	00 00 00 
    f0fb:	eb 7e                	jmp    f17b <func_18+0x79a>
    f0fd:	c7 85 68 e6 ff ff 00 	movl   $0x0,-0x1998(%rbp)
    f104:	00 00 00 
    f107:	eb 62                	jmp    f16b <func_18+0x78a>
    f109:	c7 85 6c e6 ff ff 00 	movl   $0x0,-0x1994(%rbp)
    f110:	00 00 00 
    f113:	eb 46                	jmp    f15b <func_18+0x77a>
    f115:	8b 85 6c e6 ff ff    	mov    -0x1994(%rbp),%eax
    f11b:	48 63 c8             	movslq %eax,%rcx
    f11e:	8b 85 50 e6 ff ff    	mov    -0x19b0(%rbp),%eax
    f124:	48 63 d0             	movslq %eax,%rdx
    f127:	8b 85 68 e6 ff ff    	mov    -0x1998(%rbp),%eax
    f12d:	48 63 f0             	movslq %eax,%rsi
    f130:	48 89 d0             	mov    %rdx,%rax
    f133:	48 01 c0             	add    %rax,%rax
    f136:	48 01 d0             	add    %rdx,%rax
    f139:	48 01 c0             	add    %rax,%rax
    f13c:	48 01 f0             	add    %rsi,%rax
    f13f:	48 01 c0             	add    %rax,%rax
    f142:	48 01 c8             	add    %rcx,%rax
    f145:	48 8d 15 74 43 01 00 	lea    0x14374(%rip),%rdx        # 234c0 <g_1657>
    f14c:	48 89 94 c5 40 f2 ff 	mov    %rdx,-0xdc0(%rbp,%rax,8)
    f153:	ff 
    f154:	83 85 6c e6 ff ff 01 	addl   $0x1,-0x1994(%rbp)
    f15b:	83 bd 6c e6 ff ff 01 	cmpl   $0x1,-0x1994(%rbp)
    f162:	7e b1                	jle    f115 <func_18+0x734>
    f164:	83 85 68 e6 ff ff 01 	addl   $0x1,-0x1998(%rbp)
    f16b:	83 bd 68 e6 ff ff 05 	cmpl   $0x5,-0x1998(%rbp)
    f172:	7e 95                	jle    f109 <func_18+0x728>
    f174:	83 85 50 e6 ff ff 01 	addl   $0x1,-0x19b0(%rbp)
    f17b:	83 bd 50 e6 ff ff 05 	cmpl   $0x5,-0x19b0(%rbp)
    f182:	0f 8e 75 ff ff ff    	jle    f0fd <func_18+0x71c>
    f188:	c7 85 50 e6 ff ff 00 	movl   $0x0,-0x19b0(%rbp)
    f18f:	00 00 00 
    f192:	eb 1a                	jmp    f1ae <func_18+0x7cd>
    f194:	8b 85 50 e6 ff ff    	mov    -0x19b0(%rbp),%eax
    f19a:	48 98                	cltq   
    f19c:	c7 84 85 50 e9 ff ff 	movl   $0xf11b934,-0x16b0(%rbp,%rax,4)
    f1a3:	34 b9 11 0f 
    f1a7:	83 85 50 e6 ff ff 01 	addl   $0x1,-0x19b0(%rbp)
    f1ae:	83 bd 50 e6 ff ff 05 	cmpl   $0x5,-0x19b0(%rbp)
    f1b5:	7e dd                	jle    f194 <func_18+0x7b3>
    f1b7:	8b 9d 1c e6 ff ff    	mov    -0x19e4(%rbp),%ebx
    f1bd:	48 8b 85 e0 e6 ff ff 	mov    -0x1920(%rbp),%rax
    f1c4:	48 83 e0 f8          	and    $0xfffffffffffffff8,%rax
    f1c8:	48 89 85 e0 e6 ff ff 	mov    %rax,-0x1920(%rbp)
    f1cf:	4c 8b a5 e0 e6 ff ff 	mov    -0x1920(%rbp),%r12
    f1d6:	83 bd 1c e6 ff ff 00 	cmpl   $0x0,-0x19e4(%rbp)
    f1dd:	74 11                	je     f1f0 <func_18+0x80f>
    f1df:	8b 85 18 eb ff ff    	mov    -0x14e8(%rbp),%eax
    f1e5:	85 c0                	test   %eax,%eax
    f1e7:	74 07                	je     f1f0 <func_18+0x80f>
    f1e9:	b8 01 00 00 00       	mov    $0x1,%eax
    f1ee:	eb 05                	jmp    f1f5 <func_18+0x814>
    f1f0:	b8 00 00 00 00       	mov    $0x0,%eax
    f1f5:	48 63 d0             	movslq %eax,%rdx
    f1f8:	8b 85 1c e6 ff ff    	mov    -0x19e4(%rbp),%eax
    f1fe:	48 89 d6             	mov    %rdx,%rsi
    f201:	48 89 c7             	mov    %rax,%rdi
    f204:	e8 38 c6 ff ff       	callq  b841 <safe_add_func_int64_t_s_s>
    f209:	89 c2                	mov    %eax,%edx
    f20b:	48 83 bd 08 e8 ff ff 	cmpq   $0x0,-0x17f8(%rbp)
    f212:	00 
    f213:	0f 95 c0             	setne  %al
    f216:	0f b6 c0             	movzbl %al,%eax
    f219:	89 d6                	mov    %edx,%esi
    f21b:	89 c7                	mov    %eax,%edi
    f21d:	e8 96 cc ff ff       	callq  beb8 <safe_add_func_uint32_t_u_u>
    f222:	83 bd 5c e6 ff ff 01 	cmpl   $0x1,-0x19a4(%rbp)
    f229:	0f 9e c0             	setle  %al
    f22c:	0f b6 d0             	movzbl %al,%edx
    f22f:	8b 85 18 e6 ff ff    	mov    -0x19e8(%rbp),%eax
    f235:	39 c2                	cmp    %eax,%edx
    f237:	0f 9d c0             	setge  %al
    f23a:	0f b6 c0             	movzbl %al,%eax
    f23d:	be f9 ff ff ff       	mov    $0xfffffff9,%esi
    f242:	89 c7                	mov    %eax,%edi
    f244:	e8 cd c1 ff ff       	callq  b416 <safe_mod_func_int16_t_s_s>
    f249:	48 0f bf c0          	movswq %ax,%rax
    f24d:	49 39 c4             	cmp    %rax,%r12
    f250:	0f 95 c0             	setne  %al
    f253:	0f b6 c0             	movzbl %al,%eax
    f256:	48 89 de             	mov    %rbx,%rsi
    f259:	48 89 c7             	mov    %rax,%rdi
    f25c:	e8 47 c6 ff ff       	callq  b8a8 <safe_sub_func_int64_t_s_s>
    f261:	0f b6 c0             	movzbl %al,%eax
    f264:	be 00 00 00 00       	mov    $0x0,%esi
    f269:	89 c7                	mov    %eax,%edi
    f26b:	e8 4e ca ff ff       	callq  bcbe <safe_rshift_func_uint8_t_u_u>
    f270:	84 c0                	test   %al,%al
    f272:	0f 84 02 2e 00 00    	je     1207a <func_18+0x3699>
    f278:	48 8d 85 f0 ec ff ff 	lea    -0x1310(%rbp),%rax
    f27f:	48 8d 15 1a e1 00 00 	lea    0xe11a(%rip),%rdx        # 1d3a0 <g_3489+0x340>
    f286:	b9 2d 00 00 00       	mov    $0x2d,%ecx
    f28b:	48 89 c7             	mov    %rax,%rdi
    f28e:	48 89 d6             	mov    %rdx,%rsi
    f291:	f3 48 a5             	rep movsq %ds:(%rsi),%es:(%rdi)
    f294:	c7 85 7c e6 ff ff ed 	movl   $0xd6d90ed,-0x1984(%rbp)
    f29b:	90 6d 0d 
    f29e:	48 c7 85 10 e8 ff ff 	movq   $0x0,-0x17f0(%rbp)
    f2a5:	00 00 00 00 
    f2a9:	48 c7 85 18 e8 ff ff 	movq   $0x0,-0x17e8(%rbp)
    f2b0:	00 00 00 00 
    f2b4:	c7 85 44 e6 ff ff 58 	movl   $0xba720758,-0x19bc(%rbp)
    f2bb:	07 72 ba 
    f2be:	c7 85 80 e6 ff ff 02 	movl   $0x2,-0x1980(%rbp)
    f2c5:	00 00 00 
    f2c8:	c7 85 70 e6 ff ff 33 	movl   $0x17e18433,-0x1990(%rbp)
    f2cf:	84 e1 17 
    f2d2:	48 8d 05 57 6e 01 00 	lea    0x16e57(%rip),%rax        # 26130 <g_927>
    f2d9:	48 89 85 20 e8 ff ff 	mov    %rax,-0x17e0(%rbp)
    f2e0:	48 c7 85 20 e7 ff ff 	movq   $0xfffffffffffffff7,-0x18e0(%rbp)
    f2e7:	f7 ff ff ff 
    f2eb:	c6 85 2d e6 ff ff 00 	movb   $0x0,-0x19d3(%rbp)
    f2f2:	48 c7 85 28 e8 ff ff 	movq   $0x0,-0x17d8(%rbp)
    f2f9:	00 00 00 00 
    f2fd:	66 c7 85 36 e6 ff ff 	movw   $0x3dae,-0x19ca(%rbp)
    f304:	ae 3d 
    f306:	48 8d 85 3c e6 ff ff 	lea    -0x19c4(%rbp),%rax
    f30d:	48 89 85 60 ee ff ff 	mov    %rax,-0x11a0(%rbp)
    f314:	48 c7 85 68 ee ff ff 	movq   $0x0,-0x1198(%rbp)
    f31b:	00 00 00 00 
    f31f:	48 8d 05 2e 41 01 00 	lea    0x1412e(%rip),%rax        # 23454 <g_340>
    f326:	48 89 85 70 ee ff ff 	mov    %rax,-0x1190(%rbp)
    f32d:	48 8d 05 90 41 01 00 	lea    0x14190(%rip),%rax        # 234c4 <g_1733>
    f334:	48 89 85 78 ee ff ff 	mov    %rax,-0x1188(%rbp)
    f33b:	48 8d 05 82 41 01 00 	lea    0x14182(%rip),%rax        # 234c4 <g_1733>
    f342:	48 89 85 80 ee ff ff 	mov    %rax,-0x1180(%rbp)
    f349:	48 8d 05 a4 3f 01 00 	lea    0x13fa4(%rip),%rax        # 232f4 <g_310+0x294>
    f350:	48 89 85 88 ee ff ff 	mov    %rax,-0x1178(%rbp)
    f357:	48 8d 85 3c e6 ff ff 	lea    -0x19c4(%rbp),%rax
    f35e:	48 89 85 90 ee ff ff 	mov    %rax,-0x1170(%rbp)
    f365:	48 8d 05 e0 3d 01 00 	lea    0x13de0(%rip),%rax        # 2314c <g_310+0xec>
    f36c:	48 89 85 98 ee ff ff 	mov    %rax,-0x1168(%rbp)
    f373:	48 8d 05 7a 3f 01 00 	lea    0x13f7a(%rip),%rax        # 232f4 <g_310+0x294>
    f37a:	48 89 85 a0 ee ff ff 	mov    %rax,-0x1160(%rbp)
    f381:	48 8d 05 c4 3d 01 00 	lea    0x13dc4(%rip),%rax        # 2314c <g_310+0xec>
    f388:	48 89 85 a8 ee ff ff 	mov    %rax,-0x1158(%rbp)
    f38f:	48 8d 85 3c e6 ff ff 	lea    -0x19c4(%rbp),%rax
    f396:	48 89 85 b0 ee ff ff 	mov    %rax,-0x1150(%rbp)
    f39d:	48 8d 05 50 3f 01 00 	lea    0x13f50(%rip),%rax        # 232f4 <g_310+0x294>
    f3a4:	48 89 85 b8 ee ff ff 	mov    %rax,-0x1148(%rbp)
    f3ab:	48 8d 05 12 41 01 00 	lea    0x14112(%rip),%rax        # 234c4 <g_1733>
    f3b2:	48 89 85 c0 ee ff ff 	mov    %rax,-0x1140(%rbp)
    f3b9:	48 8d 05 04 41 01 00 	lea    0x14104(%rip),%rax        # 234c4 <g_1733>
    f3c0:	48 89 85 c8 ee ff ff 	mov    %rax,-0x1138(%rbp)
    f3c7:	48 8d 05 86 40 01 00 	lea    0x14086(%rip),%rax        # 23454 <g_340>
    f3ce:	48 89 85 d0 ee ff ff 	mov    %rax,-0x1130(%rbp)
    f3d5:	48 c7 85 d8 ee ff ff 	movq   $0x0,-0x1128(%rbp)
    f3dc:	00 00 00 00 
    f3e0:	48 8d 85 3c e6 ff ff 	lea    -0x19c4(%rbp),%rax
    f3e7:	48 89 85 e0 ee ff ff 	mov    %rax,-0x1120(%rbp)
    f3ee:	48 8d 85 44 e6 ff ff 	lea    -0x19bc(%rbp),%rax
    f3f5:	48 89 85 e8 ee ff ff 	mov    %rax,-0x1118(%rbp)
    f3fc:	48 c7 85 f0 ee ff ff 	movq   $0x0,-0x1110(%rbp)
    f403:	00 00 00 00 
    f407:	48 8d 05 3e 3d 01 00 	lea    0x13d3e(%rip),%rax        # 2314c <g_310+0xec>
    f40e:	48 89 85 f8 ee ff ff 	mov    %rax,-0x1108(%rbp)
    f415:	48 8d 05 38 3c 01 00 	lea    0x13c38(%rip),%rax        # 23054 <g_200>
    f41c:	48 89 85 00 ef ff ff 	mov    %rax,-0x1100(%rbp)
    f423:	48 c7 85 08 ef ff ff 	movq   $0x0,-0x10f8(%rbp)
    f42a:	00 00 00 00 
    f42e:	48 8d 05 8f 40 01 00 	lea    0x1408f(%rip),%rax        # 234c4 <g_1733>
    f435:	48 89 85 10 ef ff ff 	mov    %rax,-0x10f0(%rbp)
    f43c:	48 8d 05 11 40 01 00 	lea    0x14011(%rip),%rax        # 23454 <g_340>
    f443:	48 89 85 18 ef ff ff 	mov    %rax,-0x10e8(%rbp)
    f44a:	48 8d 05 73 40 01 00 	lea    0x14073(%rip),%rax        # 234c4 <g_1733>
    f451:	48 89 85 20 ef ff ff 	mov    %rax,-0x10e0(%rbp)
    f458:	48 c7 85 28 ef ff ff 	movq   $0x0,-0x10d8(%rbp)
    f45f:	00 00 00 00 
    f463:	48 8d 05 ea 3b 01 00 	lea    0x13bea(%rip),%rax        # 23054 <g_200>
    f46a:	48 89 85 30 ef ff ff 	mov    %rax,-0x10d0(%rbp)
    f471:	48 8d 05 d4 3c 01 00 	lea    0x13cd4(%rip),%rax        # 2314c <g_310+0xec>
    f478:	48 89 85 38 ef ff ff 	mov    %rax,-0x10c8(%rbp)
    f47f:	48 8d 05 ce 3b 01 00 	lea    0x13bce(%rip),%rax        # 23054 <g_200>
    f486:	48 89 85 40 ef ff ff 	mov    %rax,-0x10c0(%rbp)
    f48d:	48 8d 05 60 3e 01 00 	lea    0x13e60(%rip),%rax        # 232f4 <g_310+0x294>
    f494:	48 89 85 48 ef ff ff 	mov    %rax,-0x10b8(%rbp)
    f49b:	48 c7 85 50 ef ff ff 	movq   $0x0,-0x10b0(%rbp)
    f4a2:	00 00 00 00 
    f4a6:	48 8d 05 a7 3b 01 00 	lea    0x13ba7(%rip),%rax        # 23054 <g_200>
    f4ad:	48 89 85 58 ef ff ff 	mov    %rax,-0x10a8(%rbp)
    f4b4:	48 8d 05 99 3b 01 00 	lea    0x13b99(%rip),%rax        # 23054 <g_200>
    f4bb:	48 89 85 60 ef ff ff 	mov    %rax,-0x10a0(%rbp)
    f4c2:	48 8d 05 2b 3e 01 00 	lea    0x13e2b(%rip),%rax        # 232f4 <g_310+0x294>
    f4c9:	48 89 85 68 ef ff ff 	mov    %rax,-0x1098(%rbp)
    f4d0:	48 8d 05 1d 3e 01 00 	lea    0x13e1d(%rip),%rax        # 232f4 <g_310+0x294>
    f4d7:	48 89 85 70 ef ff ff 	mov    %rax,-0x1090(%rbp)
    f4de:	48 8d 05 6f 3b 01 00 	lea    0x13b6f(%rip),%rax        # 23054 <g_200>
    f4e5:	48 89 85 78 ef ff ff 	mov    %rax,-0x1088(%rbp)
    f4ec:	48 c7 85 80 ef ff ff 	movq   $0x0,-0x1080(%rbp)
    f4f3:	00 00 00 00 
    f4f7:	48 8d 05 56 3f 01 00 	lea    0x13f56(%rip),%rax        # 23454 <g_340>
    f4fe:	48 89 85 88 ef ff ff 	mov    %rax,-0x1078(%rbp)
    f505:	48 8d 05 48 3b 01 00 	lea    0x13b48(%rip),%rax        # 23054 <g_200>
    f50c:	48 89 85 90 ef ff ff 	mov    %rax,-0x1070(%rbp)
    f513:	48 8d 05 3a 3f 01 00 	lea    0x13f3a(%rip),%rax        # 23454 <g_340>
    f51a:	48 89 85 98 ef ff ff 	mov    %rax,-0x1068(%rbp)
    f521:	48 c7 85 a0 ef ff ff 	movq   $0x0,-0x1060(%rbp)
    f528:	00 00 00 00 
    f52c:	48 8d 05 21 3b 01 00 	lea    0x13b21(%rip),%rax        # 23054 <g_200>
    f533:	48 89 85 a8 ef ff ff 	mov    %rax,-0x1058(%rbp)
    f53a:	48 8d 05 b3 3d 01 00 	lea    0x13db3(%rip),%rax        # 232f4 <g_310+0x294>
    f541:	48 89 85 b0 ef ff ff 	mov    %rax,-0x1050(%rbp)
    f548:	48 8d 05 a5 3d 01 00 	lea    0x13da5(%rip),%rax        # 232f4 <g_310+0x294>
    f54f:	48 89 85 b8 ef ff ff 	mov    %rax,-0x1048(%rbp)
    f556:	48 8d 05 f7 3a 01 00 	lea    0x13af7(%rip),%rax        # 23054 <g_200>
    f55d:	48 89 85 c0 ef ff ff 	mov    %rax,-0x1040(%rbp)
    f564:	48 8d 05 e9 3a 01 00 	lea    0x13ae9(%rip),%rax        # 23054 <g_200>
    f56b:	48 89 85 c8 ef ff ff 	mov    %rax,-0x1038(%rbp)
    f572:	48 c7 85 d0 ef ff ff 	movq   $0x0,-0x1030(%rbp)
    f579:	00 00 00 00 
    f57d:	48 8d 05 70 3d 01 00 	lea    0x13d70(%rip),%rax        # 232f4 <g_310+0x294>
    f584:	48 89 85 d8 ef ff ff 	mov    %rax,-0x1028(%rbp)
    f58b:	48 8d 05 c2 3a 01 00 	lea    0x13ac2(%rip),%rax        # 23054 <g_200>
    f592:	48 89 85 e0 ef ff ff 	mov    %rax,-0x1020(%rbp)
    f599:	48 8d 05 b4 3e 01 00 	lea    0x13eb4(%rip),%rax        # 23454 <g_340>
    f5a0:	48 89 85 e8 ef ff ff 	mov    %rax,-0x1018(%rbp)
    f5a7:	48 8d 85 40 e6 ff ff 	lea    -0x19c0(%rbp),%rax
    f5ae:	48 89 85 f0 ef ff ff 	mov    %rax,-0x1010(%rbp)
    f5b5:	48 8d 05 98 3a 01 00 	lea    0x13a98(%rip),%rax        # 23054 <g_200>
    f5bc:	48 89 85 f8 ef ff ff 	mov    %rax,-0x1008(%rbp)
    f5c3:	48 8d 05 2a 3d 01 00 	lea    0x13d2a(%rip),%rax        # 232f4 <g_310+0x294>
    f5ca:	48 89 85 00 f0 ff ff 	mov    %rax,-0x1000(%rbp)
    f5d1:	48 8d 05 7c 3a 01 00 	lea    0x13a7c(%rip),%rax        # 23054 <g_200>
    f5d8:	48 89 85 08 f0 ff ff 	mov    %rax,-0xff8(%rbp)
    f5df:	48 8d 05 0e 3d 01 00 	lea    0x13d0e(%rip),%rax        # 232f4 <g_310+0x294>
    f5e6:	48 89 85 10 f0 ff ff 	mov    %rax,-0xff0(%rbp)
    f5ed:	48 8d 05 60 3a 01 00 	lea    0x13a60(%rip),%rax        # 23054 <g_200>
    f5f4:	48 89 85 18 f0 ff ff 	mov    %rax,-0xfe8(%rbp)
    f5fb:	48 8d 85 40 e6 ff ff 	lea    -0x19c0(%rbp),%rax
    f602:	48 89 85 20 f0 ff ff 	mov    %rax,-0xfe0(%rbp)
    f609:	48 8d 05 44 3e 01 00 	lea    0x13e44(%rip),%rax        # 23454 <g_340>
    f610:	48 89 85 28 f0 ff ff 	mov    %rax,-0xfd8(%rbp)
    f617:	48 8d 05 36 3a 01 00 	lea    0x13a36(%rip),%rax        # 23054 <g_200>
    f61e:	48 89 85 30 f0 ff ff 	mov    %rax,-0xfd0(%rbp)
    f625:	48 8d 05 c8 3c 01 00 	lea    0x13cc8(%rip),%rax        # 232f4 <g_310+0x294>
    f62c:	48 89 85 38 f0 ff ff 	mov    %rax,-0xfc8(%rbp)
    f633:	48 c7 85 50 eb ff ff 	movq   $0x0,-0x14b0(%rbp)
    f63a:	00 00 00 00 
    f63e:	48 8d 05 8b 87 01 00 	lea    0x1878b(%rip),%rax        # 27dd0 <g_197>
    f645:	48 89 85 58 eb ff ff 	mov    %rax,-0x14a8(%rbp)
    f64c:	48 8d 05 7d 87 01 00 	lea    0x1877d(%rip),%rax        # 27dd0 <g_197>
    f653:	48 89 85 60 eb ff ff 	mov    %rax,-0x14a0(%rbp)
    f65a:	48 c7 85 68 eb ff ff 	movq   $0x0,-0x1498(%rbp)
    f661:	00 00 00 00 
    f665:	48 8d 05 64 87 01 00 	lea    0x18764(%rip),%rax        # 27dd0 <g_197>
    f66c:	48 89 85 70 eb ff ff 	mov    %rax,-0x1490(%rbp)
    f673:	48 c7 85 78 eb ff ff 	movq   $0x0,-0x1488(%rbp)
    f67a:	00 00 00 00 
    f67e:	48 8d 05 4b 87 01 00 	lea    0x1874b(%rip),%rax        # 27dd0 <g_197>
    f685:	48 89 85 80 eb ff ff 	mov    %rax,-0x1480(%rbp)
    f68c:	48 8d 05 3d 87 01 00 	lea    0x1873d(%rip),%rax        # 27dd0 <g_197>
    f693:	48 89 85 88 eb ff ff 	mov    %rax,-0x1478(%rbp)
    f69a:	48 c7 85 90 eb ff ff 	movq   $0x0,-0x1470(%rbp)
    f6a1:	00 00 00 00 
    f6a5:	48 8d 05 24 87 01 00 	lea    0x18724(%rip),%rax        # 27dd0 <g_197>
    f6ac:	48 89 85 98 eb ff ff 	mov    %rax,-0x1468(%rbp)
    f6b3:	48 c7 85 30 e8 ff ff 	movq   $0x0,-0x17d0(%rbp)
    f6ba:	00 00 00 00 
    f6be:	c6 85 2e e6 ff ff fd 	movb   $0xfd,-0x19d2(%rbp)
    f6c5:	c7 85 48 e6 ff ff 00 	movl   $0x0,-0x19b8(%rbp)
    f6cc:	00 00 00 
    f6cf:	48 8d 05 7e 3d 01 00 	lea    0x13d7e(%rip),%rax        # 23454 <g_340>
    f6d6:	48 89 85 38 e8 ff ff 	mov    %rax,-0x17c8(%rbp)
    f6dd:	48 8d 85 80 f4 ff ff 	lea    -0xb80(%rbp),%rax
    f6e4:	48 8d 15 35 de 00 00 	lea    0xde35(%rip),%rdx        # 1d520 <g_3489+0x4c0>
    f6eb:	b9 6c 00 00 00       	mov    $0x6c,%ecx
    f6f0:	48 89 c7             	mov    %rax,%rdi
    f6f3:	48 89 d6             	mov    %rdx,%rsi
    f6f6:	f3 48 a5             	rep movsq %ds:(%rsi),%es:(%rdi)
    f6f9:	48 8d 85 44 e6 ff ff 	lea    -0x19bc(%rbp),%rax
    f700:	48 89 85 40 e8 ff ff 	mov    %rax,-0x17c0(%rbp)
    f707:	48 8d 85 50 e9 ff ff 	lea    -0x16b0(%rbp),%rax
    f70e:	48 83 c0 08          	add    $0x8,%rax
    f712:	48 89 85 28 e7 ff ff 	mov    %rax,-0x18d8(%rbp)
    f719:	48 c7 85 30 e7 ff ff 	movq   $0x0,-0x18d0(%rbp)
    f720:	00 00 00 00 
    f724:	48 8d 85 30 e7 ff ff 	lea    -0x18d0(%rbp),%rax
    f72b:	48 89 85 38 e7 ff ff 	mov    %rax,-0x18c8(%rbp)
    f732:	48 8d 85 38 e7 ff ff 	lea    -0x18c8(%rbp),%rax
    f739:	48 89 85 40 e7 ff ff 	mov    %rax,-0x18c0(%rbp)
    f740:	48 8d 85 40 e7 ff ff 	lea    -0x18c0(%rbp),%rax
    f747:	48 89 85 48 e8 ff ff 	mov    %rax,-0x17b8(%rbp)
    f74e:	c7 85 74 e6 ff ff 00 	movl   $0x0,-0x198c(%rbp)
    f755:	00 00 00 
    f758:	eb 51                	jmp    f7ab <func_18+0xdca>
    f75a:	c7 85 78 e6 ff ff 00 	movl   $0x0,-0x1988(%rbp)
    f761:	00 00 00 
    f764:	eb 35                	jmp    f79b <func_18+0xdba>
    f766:	8b 85 78 e6 ff ff    	mov    -0x1988(%rbp),%eax
    f76c:	48 63 c8             	movslq %eax,%rcx
    f76f:	8b 85 74 e6 ff ff    	mov    -0x198c(%rbp),%eax
    f775:	48 63 d0             	movslq %eax,%rdx
    f778:	48 89 d0             	mov    %rdx,%rax
    f77b:	48 01 c0             	add    %rax,%rax
    f77e:	48 01 d0             	add    %rdx,%rax
    f781:	48 8d 5d d0          	lea    -0x30(%rbp),%rbx
    f785:	48 01 d8             	add    %rbx,%rax
    f788:	48 01 c8             	add    %rcx,%rax
    f78b:	48 2d 8f 16 00 00    	sub    $0x168f,%rax
    f791:	c6 00 76             	movb   $0x76,(%rax)
    f794:	83 85 78 e6 ff ff 01 	addl   $0x1,-0x1988(%rbp)
    f79b:	83 bd 78 e6 ff ff 02 	cmpl   $0x2,-0x1988(%rbp)
    f7a2:	7e c2                	jle    f766 <func_18+0xd85>
    f7a4:	83 85 74 e6 ff ff 01 	addl   $0x1,-0x198c(%rbp)
    f7ab:	83 bd 74 e6 ff ff 04 	cmpl   $0x4,-0x198c(%rbp)
    f7b2:	7e a6                	jle    f75a <func_18+0xd79>
    f7b4:	c7 05 96 3c 01 00 0a 	movl   $0xa,0x13c96(%rip)        # 23454 <g_340>
    f7bb:	00 00 00 
    f7be:	e9 1a 1d 00 00       	jmpq   114dd <func_18+0x2afc>
    f7c3:	48 8d 05 9e 78 01 00 	lea    0x1789e(%rip),%rax        # 27068 <g_2551>
    f7ca:	48 89 85 50 e8 ff ff 	mov    %rax,-0x17b0(%rbp)
    f7d1:	c7 85 70 e9 ff ff cc 	movl   $0x836ae0cc,-0x1690(%rbp)
    f7d8:	e0 6a 83 
    f7db:	c7 85 74 e9 ff ff ab 	movl   $0xb130e4ab,-0x168c(%rbp)
    f7e2:	e4 30 b1 
    f7e5:	c7 85 78 e9 ff ff ab 	movl   $0xb130e4ab,-0x1688(%rbp)
    f7ec:	e4 30 b1 
    f7ef:	c7 85 7c e9 ff ff cc 	movl   $0x836ae0cc,-0x1684(%rbp)
    f7f6:	e0 6a 83 
    f7f9:	c7 85 80 e9 ff ff ab 	movl   $0xb130e4ab,-0x1680(%rbp)
    f800:	e4 30 b1 
    f803:	c7 85 84 e9 ff ff ab 	movl   $0xb130e4ab,-0x167c(%rbp)
    f80a:	e4 30 b1 
    f80d:	48 c7 85 58 e8 ff ff 	movq   $0x0,-0x17a8(%rbp)
    f814:	00 00 00 00 
    f818:	c7 85 84 e6 ff ff ff 	movl   $0xffffffff,-0x197c(%rbp)
    f81f:	ff ff ff 
    f822:	c7 85 e0 e9 ff ff 00 	movl   $0x2400,-0x1620(%rbp)
    f829:	24 00 00 
    f82c:	66 c7 85 e4 e9 ff ff 	movw   $0x2400,-0x161c(%rbp)
    f833:	00 24 
    f835:	c7 85 e6 e9 ff ff ff 	movl   $0x240424ff,-0x161a(%rbp)
    f83c:	24 04 24 
    f83f:	66 c7 85 ea e9 ff ff 	movw   $0x24ff,-0x1616(%rbp)
    f846:	ff 24 
    f848:	c7 85 ec e9 ff ff 00 	movl   $0x24000000,-0x1614(%rbp)
    f84f:	00 00 24 
    f852:	66 c7 85 f0 e9 ff ff 	movw   $0x0,-0x1610(%rbp)
    f859:	00 00 
    f85b:	c7 85 f2 e9 ff ff ff 	movl   $0x400ff,-0x160e(%rbp)
    f862:	00 04 00 
    f865:	66 c7 85 f6 e9 ff ff 	movw   $0xff,-0x160a(%rbp)
    f86c:	ff 00 
    f86e:	c7 85 f8 e9 ff ff 00 	movl   $0x2400,-0x1608(%rbp)
    f875:	24 00 00 
    f878:	66 c7 85 fc e9 ff ff 	movw   $0x2400,-0x1604(%rbp)
    f87f:	00 24 
    f881:	c7 85 fe e9 ff ff ff 	movl   $0x240424ff,-0x1602(%rbp)
    f888:	24 04 24 
    f88b:	66 c7 85 02 ea ff ff 	movw   $0x24ff,-0x15fe(%rbp)
    f892:	ff 24 
    f894:	c7 85 04 ea ff ff 00 	movl   $0x24000000,-0x15fc(%rbp)
    f89b:	00 00 24 
    f89e:	66 c7 85 08 ea ff ff 	movw   $0x0,-0x15f8(%rbp)
    f8a5:	00 00 
    f8a7:	c7 85 0a ea ff ff ff 	movl   $0x400ff,-0x15f6(%rbp)
    f8ae:	00 04 00 
    f8b1:	66 c7 85 0e ea ff ff 	movw   $0xff,-0x15f2(%rbp)
    f8b8:	ff 00 
    f8ba:	c7 85 88 e6 ff ff 01 	movl   $0x1,-0x1978(%rbp)
    f8c1:	00 00 00 
    f8c4:	c6 85 2f e6 ff ff fb 	movb   $0xfb,-0x19d1(%rbp)
    f8cb:	66 c7 85 b0 e9 ff ff 	movw   $0xa3ff,-0x1650(%rbp)
    f8d2:	ff a3 
    f8d4:	66 c7 85 b2 e9 ff ff 	movw   $0x3007,-0x164e(%rbp)
    f8db:	07 30 
    f8dd:	66 c7 85 b4 e9 ff ff 	movw   $0xb8ac,-0x164c(%rbp)
    f8e4:	ac b8 
    f8e6:	66 c7 85 b6 e9 ff ff 	movw   $0xb8b8,-0x164a(%rbp)
    f8ed:	b8 b8 
    f8ef:	66 c7 85 b8 e9 ff ff 	movw   $0x30ac,-0x1648(%rbp)
    f8f6:	ac 30 
    f8f8:	66 c7 85 ba e9 ff ff 	movw   $0xa307,-0x1646(%rbp)
    f8ff:	07 a3 
    f901:	66 c7 85 bc e9 ff ff 	movw   $0xacff,-0x1644(%rbp)
    f908:	ff ac 
    f90a:	66 c7 85 be e9 ff ff 	movw   $0xfff9,-0x1642(%rbp)
    f911:	f9 ff 
    f913:	66 c7 85 c0 e9 ff ff 	movw   $0x1ff,-0x1640(%rbp)
    f91a:	ff 01 
    f91c:	66 c7 85 c2 e9 ff ff 	movw   $0xffff,-0x163e(%rbp)
    f923:	ff ff 
    f925:	66 c7 85 c4 e9 ff ff 	movw   $0xacf9,-0x163c(%rbp)
    f92c:	f9 ac 
    f92e:	66 c7 85 c6 e9 ff ff 	movw   $0xa3ff,-0x163a(%rbp)
    f935:	ff a3 
    f937:	66 c7 85 c8 e9 ff ff 	movw   $0x3007,-0x1638(%rbp)
    f93e:	07 30 
    f940:	66 c7 85 ca e9 ff ff 	movw   $0xb8ac,-0x1636(%rbp)
    f947:	ac b8 
    f949:	66 c7 85 cc e9 ff ff 	movw   $0xb8b8,-0x1634(%rbp)
    f950:	b8 b8 
    f952:	66 c7 85 ce e9 ff ff 	movw   $0x30ac,-0x1632(%rbp)
    f959:	ac 30 
    f95b:	66 c7 85 d0 e9 ff ff 	movw   $0xa307,-0x1630(%rbp)
    f962:	07 a3 
    f964:	66 c7 85 d2 e9 ff ff 	movw   $0xacff,-0x162e(%rbp)
    f96b:	ff ac 
    f96d:	66 c7 85 d4 e9 ff ff 	movw   $0xfff9,-0x162c(%rbp)
    f974:	f9 ff 
    f976:	66 c7 85 d6 e9 ff ff 	movw   $0x1ff,-0x162a(%rbp)
    f97d:	ff 01 
    f97f:	66 c7 85 32 e6 ff ff 	movw   $0x17d1,-0x19ce(%rbp)
    f986:	d1 17 
    f988:	48 8d 85 38 e6 ff ff 	lea    -0x19c8(%rbp),%rax
    f98f:	48 89 85 48 e7 ff ff 	mov    %rax,-0x18b8(%rbp)
    f996:	48 8d 05 3b 84 01 00 	lea    0x1843b(%rip),%rax        # 27dd8 <g_204>
    f99d:	48 89 85 60 e8 ff ff 	mov    %rax,-0x17a0(%rbp)
    f9a4:	48 c7 85 68 e8 ff ff 	movq   $0x0,-0x1798(%rbp)
    f9ab:	00 00 00 00 
    f9af:	8b 9d 74 e9 ff ff    	mov    -0x168c(%rbp),%ebx
    f9b5:	bf 00 00 00 00       	mov    $0x0,%edi
    f9ba:	e8 86 c1 ff ff       	callq  bb45 <safe_unary_minus_func_uint8_t_u>
    f9bf:	48 8d 05 a2 76 01 00 	lea    0x176a2(%rip),%rax        # 27068 <g_2551>
    f9c6:	48 39 85 50 e8 ff ff 	cmp    %rax,-0x17b0(%rbp)
    f9cd:	0f 94 c0             	sete   %al
    f9d0:	0f b6 c0             	movzbl %al,%eax
    f9d3:	be 08 00 00 00       	mov    $0x8,%esi
    f9d8:	89 c7                	mov    %eax,%edi
    f9da:	e8 84 bb ff ff       	callq  b563 <safe_rshift_func_int16_t_s_u>
    f9df:	89 de                	mov    %ebx,%esi
    f9e1:	bf 01 00 00 00       	mov    $0x1,%edi
    f9e6:	e8 5d c4 ff ff       	callq  be48 <safe_rshift_func_uint16_t_u_s>
    f9eb:	66 c7 85 20 ec ff ff 	movw   $0x7602,-0x13e0(%rbp)
    f9f2:	02 76 
    f9f4:	66 c7 85 22 ec ff ff 	movw   $0xb703,-0x13de(%rbp)
    f9fb:	03 b7 
    f9fd:	66 c7 85 24 ec ff ff 	movw   $0x876,-0x13dc(%rbp)
    fa04:	76 08 
    fa06:	66 c7 85 26 ec ff ff 	movw   $0xf89d,-0x13da(%rbp)
    fa0d:	9d f8 
    fa0f:	66 c7 85 28 ec ff ff 	movw   $0x5b51,-0x13d8(%rbp)
    fa16:	51 5b 
    fa18:	66 c7 85 2a ec ff ff 	movw   $0x101,-0x13d6(%rbp)
    fa1f:	01 01 
    fa21:	66 c7 85 2c ec ff ff 	movw   $0xf8b7,-0x13d4(%rbp)
    fa28:	b7 f8 
    fa2a:	66 c7 85 2e ec ff ff 	movw   $0xff00,-0x13d2(%rbp)
    fa31:	00 ff 
    fa33:	66 c7 85 30 ec ff ff 	movw   $0x5176,-0x13d0(%rbp)
    fa3a:	76 51 
    fa3c:	66 c7 85 32 ec ff ff 	movw   $0x76d6,-0x13ce(%rbp)
    fa43:	d6 76 
    fa45:	66 c7 85 34 ec ff ff 	movw   $0x35fd,-0x13cc(%rbp)
    fa4c:	fd 35 
    fa4e:	66 c7 85 36 ec ff ff 	movw   $0x76fd,-0x13ca(%rbp)
    fa55:	fd 76 
    fa57:	66 c7 85 38 ec ff ff 	movw   $0x51d6,-0x13c8(%rbp)
    fa5e:	d6 51 
    fa60:	66 c7 85 3a ec ff ff 	movw   $0xff76,-0x13c6(%rbp)
    fa67:	76 ff 
    fa69:	66 c7 85 3c ec ff ff 	movw   $0xf800,-0x13c4(%rbp)
    fa70:	00 f8 
    fa72:	66 c7 85 3e ec ff ff 	movw   $0xbbe,-0x13c2(%rbp)
    fa79:	be 0b 
    fa7b:	66 c7 85 40 ec ff ff 	movw   $0x10b,-0x13c0(%rbp)
    fa82:	0b 01 
    fa84:	66 c7 85 42 ec ff ff 	movw   $0xb75b,-0x13be(%rbp)
    fa8b:	5b b7 
    fa8d:	66 c7 85 44 ec ff ff 	movw   $0xd600,-0x13bc(%rbp)
    fa94:	00 d6 
    fa96:	66 c7 85 46 ec ff ff 	movw   $0xbe35,-0x13ba(%rbp)
    fa9d:	35 be 
    fa9f:	66 c7 85 48 ec ff ff 	movw   $0x359d,-0x13b8(%rbp)
    faa6:	9d 35 
    faa8:	66 c7 85 4a ec ff ff 	movw   $0xf109,-0x13b6(%rbp)
    faaf:	09 f1 
    fab1:	66 c7 85 4c ec ff ff 	movw   $0xa02d,-0x13b4(%rbp)
    fab8:	2d a0 
    faba:	66 c7 85 4e ec ff ff 	movw   $0x5b9d,-0x13b2(%rbp)
    fac1:	9d 5b 
    fac3:	66 c7 85 50 ec ff ff 	movw   $0xd6a0,-0x13b0(%rbp)
    faca:	a0 d6 
    facc:	66 c7 85 52 ec ff ff 	movw   $0x2,-0x13ae(%rbp)
    fad3:	02 00 
    fad5:	66 c7 85 54 ec ff ff 	movw   $0xb5b,-0x13ac(%rbp)
    fadc:	5b 0b 
    fade:	66 c7 85 56 ec ff ff 	movw   $0xb01,-0x13aa(%rbp)
    fae5:	01 0b 
    fae7:	66 c7 85 58 ec ff ff 	movw   $0x5b,-0x13a8(%rbp)
    faee:	5b 00 
    faf0:	66 c7 85 5a ec ff ff 	movw   $0xd602,-0x13a6(%rbp)
    faf7:	02 d6 
    faf9:	66 c7 85 5c ec ff ff 	movw   $0x5ba0,-0x13a4(%rbp)
    fb00:	a0 5b 
    fb02:	66 c7 85 5e ec ff ff 	movw   $0xa09d,-0x13a2(%rbp)
    fb09:	9d a0 
    fb0b:	66 c7 85 60 ec ff ff 	movw   $0xf12d,-0x13a0(%rbp)
    fb12:	2d f1 
    fb14:	66 c7 85 62 ec ff ff 	movw   $0x3509,-0x139e(%rbp)
    fb1b:	09 35 
    fb1d:	66 c7 85 64 ec ff ff 	movw   $0xbe9d,-0x139c(%rbp)
    fb24:	9d be 
    fb26:	66 c7 85 66 ec ff ff 	movw   $0xd635,-0x139a(%rbp)
    fb2d:	35 d6 
    fb2f:	66 c7 85 68 ec ff ff 	movw   $0xb700,-0x1398(%rbp)
    fb36:	00 b7 
    fb38:	66 c7 85 6a ec ff ff 	movw   $0x15b,-0x1396(%rbp)
    fb3f:	5b 01 
    fb41:	66 c7 85 6c ec ff ff 	movw   $0xb0b,-0x1394(%rbp)
    fb48:	0b 0b 
    fb4a:	66 c7 85 6e ec ff ff 	movw   $0xb7be,-0x1392(%rbp)
    fb51:	be b7 
    fb53:	66 c7 85 70 ec ff ff 	movw   $0xff02,-0x1390(%rbp)
    fb5a:	02 ff 
    fb5c:	66 c7 85 72 ec ff ff 	movw   $0x5b35,-0x138e(%rbp)
    fb63:	35 5b 
    fb65:	66 c7 85 74 ec ff ff 	movw   $0x3501,-0x138c(%rbp)
    fb6c:	01 35 
    fb6e:	66 c7 85 76 ec ff ff 	movw   $0x452d,-0x138a(%rbp)
    fb75:	2d 45 
    fb77:	66 c7 85 78 ec ff ff 	movw   $0x352d,-0x1388(%rbp)
    fb7e:	2d 35 
    fb80:	66 c7 85 7a ec ff ff 	movw   $0x5b01,-0x1386(%rbp)
    fb87:	01 5b 
    fb89:	66 c7 85 7c ec ff ff 	movw   $0xff35,-0x1384(%rbp)
    fb90:	35 ff 
    fb92:	66 c7 85 7e ec ff ff 	movw   $0xb702,-0x1382(%rbp)
    fb99:	02 b7 
    fb9b:	66 c7 85 80 ec ff ff 	movw   $0xbbe,-0x1380(%rbp)
    fba2:	be 0b 
    fba4:	66 c7 85 82 ec ff ff 	movw   $0x10b,-0x137e(%rbp)
    fbab:	0b 01 
    fbad:	66 c7 85 84 ec ff ff 	movw   $0xb75b,-0x137c(%rbp)
    fbb4:	5b b7 
    fbb6:	66 c7 85 86 ec ff ff 	movw   $0xd600,-0x137a(%rbp)
    fbbd:	00 d6 
    fbbf:	66 c7 85 88 ec ff ff 	movw   $0xbe35,-0x1378(%rbp)
    fbc6:	35 be 
    fbc8:	66 c7 85 8a ec ff ff 	movw   $0x359d,-0x1376(%rbp)
    fbcf:	9d 35 
    fbd1:	66 c7 85 8c ec ff ff 	movw   $0xf109,-0x1374(%rbp)
    fbd8:	09 f1 
    fbda:	66 c7 85 8e ec ff ff 	movw   $0xa02d,-0x1372(%rbp)
    fbe1:	2d a0 
    fbe3:	66 c7 85 90 ec ff ff 	movw   $0x5b9d,-0x1370(%rbp)
    fbea:	9d 5b 
    fbec:	66 c7 85 92 ec ff ff 	movw   $0xd6a0,-0x136e(%rbp)
    fbf3:	a0 d6 
    fbf5:	66 c7 85 94 ec ff ff 	movw   $0x2,-0x136c(%rbp)
    fbfc:	02 00 
    fbfe:	66 c7 85 96 ec ff ff 	movw   $0xb5b,-0x136a(%rbp)
    fc05:	5b 0b 
    fc07:	66 c7 85 98 ec ff ff 	movw   $0xb01,-0x1368(%rbp)
    fc0e:	01 0b 
    fc10:	66 c7 85 9a ec ff ff 	movw   $0x5b,-0x1366(%rbp)
    fc17:	5b 00 
    fc19:	66 c7 85 9c ec ff ff 	movw   $0xd602,-0x1364(%rbp)
    fc20:	02 d6 
    fc22:	66 c7 85 9e ec ff ff 	movw   $0x5ba0,-0x1362(%rbp)
    fc29:	a0 5b 
    fc2b:	66 c7 85 a0 ec ff ff 	movw   $0xa09d,-0x1360(%rbp)
    fc32:	9d a0 
    fc34:	66 c7 85 a2 ec ff ff 	movw   $0xf12d,-0x135e(%rbp)
    fc3b:	2d f1 
    fc3d:	66 c7 85 a4 ec ff ff 	movw   $0x3509,-0x135c(%rbp)
    fc44:	09 35 
    fc46:	66 c7 85 a6 ec ff ff 	movw   $0xbe9d,-0x135a(%rbp)
    fc4d:	9d be 
    fc4f:	66 c7 85 a8 ec ff ff 	movw   $0xd635,-0x1358(%rbp)
    fc56:	35 d6 
    fc58:	66 c7 85 aa ec ff ff 	movw   $0xb700,-0x1356(%rbp)
    fc5f:	00 b7 
    fc61:	66 c7 85 ac ec ff ff 	movw   $0x15b,-0x1354(%rbp)
    fc68:	5b 01 
    fc6a:	66 c7 85 ae ec ff ff 	movw   $0xb0b,-0x1352(%rbp)
    fc71:	0b 0b 
    fc73:	66 c7 85 b0 ec ff ff 	movw   $0xb7be,-0x1350(%rbp)
    fc7a:	be b7 
    fc7c:	66 c7 85 b2 ec ff ff 	movw   $0xff02,-0x134e(%rbp)
    fc83:	02 ff 
    fc85:	66 c7 85 b4 ec ff ff 	movw   $0x5b35,-0x134c(%rbp)
    fc8c:	35 5b 
    fc8e:	66 c7 85 b6 ec ff ff 	movw   $0x3501,-0x134a(%rbp)
    fc95:	01 35 
    fc97:	66 c7 85 b8 ec ff ff 	movw   $0x452d,-0x1348(%rbp)
    fc9e:	2d 45 
    fca0:	66 c7 85 ba ec ff ff 	movw   $0x352d,-0x1346(%rbp)
    fca7:	2d 35 
    fca9:	66 c7 85 bc ec ff ff 	movw   $0x5b01,-0x1344(%rbp)
    fcb0:	01 5b 
    fcb2:	66 c7 85 be ec ff ff 	movw   $0xff35,-0x1342(%rbp)
    fcb9:	35 ff 
    fcbb:	66 c7 85 c0 ec ff ff 	movw   $0xb702,-0x1340(%rbp)
    fcc2:	02 b7 
    fcc4:	66 c7 85 c2 ec ff ff 	movw   $0xbbe,-0x133e(%rbp)
    fccb:	be 0b 
    fccd:	66 c7 85 c4 ec ff ff 	movw   $0x10b,-0x133c(%rbp)
    fcd4:	0b 01 
    fcd6:	66 c7 85 c6 ec ff ff 	movw   $0xb75b,-0x133a(%rbp)
    fcdd:	5b b7 
    fcdf:	66 c7 85 c8 ec ff ff 	movw   $0xd600,-0x1338(%rbp)
    fce6:	00 d6 
    fce8:	66 c7 85 ca ec ff ff 	movw   $0xbe35,-0x1336(%rbp)
    fcef:	35 be 
    fcf1:	66 c7 85 cc ec ff ff 	movw   $0x359d,-0x1334(%rbp)
    fcf8:	9d 35 
    fcfa:	66 c7 85 ce ec ff ff 	movw   $0xf109,-0x1332(%rbp)
    fd01:	09 f1 
    fd03:	66 c7 85 d0 ec ff ff 	movw   $0xa02d,-0x1330(%rbp)
    fd0a:	2d a0 
    fd0c:	66 c7 85 d2 ec ff ff 	movw   $0x5b9d,-0x132e(%rbp)
    fd13:	9d 5b 
    fd15:	66 c7 85 d4 ec ff ff 	movw   $0xd6a0,-0x132c(%rbp)
    fd1c:	a0 d6 
    fd1e:	66 c7 85 d6 ec ff ff 	movw   $0x2,-0x132a(%rbp)
    fd25:	02 00 
    fd27:	66 c7 85 d8 ec ff ff 	movw   $0xb5b,-0x1328(%rbp)
    fd2e:	5b 0b 
    fd30:	66 c7 85 da ec ff ff 	movw   $0xb01,-0x1326(%rbp)
    fd37:	01 0b 
    fd39:	66 c7 85 dc ec ff ff 	movw   $0x5b,-0x1324(%rbp)
    fd40:	5b 00 
    fd42:	66 c7 85 de ec ff ff 	movw   $0xd602,-0x1322(%rbp)
    fd49:	02 d6 
    fd4b:	66 c7 85 e0 ec ff ff 	movw   $0x5ba0,-0x1320(%rbp)
    fd52:	a0 5b 
    fd54:	66 c7 85 e2 ec ff ff 	movw   $0xa09d,-0x131e(%rbp)
    fd5b:	9d a0 
    fd5d:	66 c7 85 e4 ec ff ff 	movw   $0xf12d,-0x131c(%rbp)
    fd64:	2d f1 
    fd66:	66 c7 85 e6 ec ff ff 	movw   $0x3509,-0x131a(%rbp)
    fd6d:	09 35 
    fd6f:	c7 85 8c e6 ff ff 01 	movl   $0x1,-0x1974(%rbp)
    fd76:	00 00 00 
    fd79:	66 c7 05 da 32 01 00 	movw   $0xffe3,0x132da(%rip)        # 2305c <g_252>
    fd80:	e3 ff 
    fd82:	e9 c2 02 00 00       	jmpq   10049 <func_18+0x1668>
    fd87:	48 8d 85 e0 f7 ff ff 	lea    -0x820(%rbp),%rax
    fd8e:	48 8d 15 6b 3d 01 00 	lea    0x13d6b(%rip),%rdx        # 23b00 <g_4429+0x1d4>
    fd95:	b9 fc 00 00 00       	mov    $0xfc,%ecx
    fd9a:	48 89 c7             	mov    %rax,%rdi
    fd9d:	48 89 d6             	mov    %rdx,%rsi
    fda0:	f3 48 a5             	rep movsq %ds:(%rsi),%es:(%rdi)
    fda3:	48 8d 05 a6 32 01 00 	lea    0x132a6(%rip),%rax        # 23050 <g_188>
    fdaa:	48 89 85 10 e9 ff ff 	mov    %rax,-0x16f0(%rbp)
    fdb1:	8b 85 18 e6 ff ff    	mov    -0x19e8(%rbp),%eax
    fdb7:	85 c0                	test   %eax,%eax
    fdb9:	0f 84 4a 02 00 00    	je     10009 <func_18+0x1628>
    fdbf:	48 8d 05 3a 73 01 00 	lea    0x1733a(%rip),%rax        # 27100 <g_2896>
    fdc6:	48 89 85 c0 ea ff ff 	mov    %rax,-0x1540(%rbp)
    fdcd:	48 8d 05 2c 73 01 00 	lea    0x1732c(%rip),%rax        # 27100 <g_2896>
    fdd4:	48 89 85 c8 ea ff ff 	mov    %rax,-0x1538(%rbp)
    fddb:	48 8d 05 1e 73 01 00 	lea    0x1731e(%rip),%rax        # 27100 <g_2896>
    fde2:	48 89 85 d0 ea ff ff 	mov    %rax,-0x1530(%rbp)
    fde9:	48 8d 05 10 73 01 00 	lea    0x17310(%rip),%rax        # 27100 <g_2896>
    fdf0:	48 89 85 d8 ea ff ff 	mov    %rax,-0x1528(%rbp)
    fdf7:	48 8d 05 02 73 01 00 	lea    0x17302(%rip),%rax        # 27100 <g_2896>
    fdfe:	48 89 85 e0 ea ff ff 	mov    %rax,-0x1520(%rbp)
    fe05:	48 8d 05 f4 72 01 00 	lea    0x172f4(%rip),%rax        # 27100 <g_2896>
    fe0c:	48 89 85 e8 ea ff ff 	mov    %rax,-0x1518(%rbp)
    fe13:	48 8d 05 e6 72 01 00 	lea    0x172e6(%rip),%rax        # 27100 <g_2896>
    fe1a:	48 89 85 f0 ea ff ff 	mov    %rax,-0x1510(%rbp)
    fe21:	48 8d 05 d8 72 01 00 	lea    0x172d8(%rip),%rax        # 27100 <g_2896>
    fe28:	48 89 85 f8 ea ff ff 	mov    %rax,-0x1508(%rbp)
    fe2f:	48 c7 85 20 e9 ff ff 	movq   $0x0,-0x16e0(%rbp)
    fe36:	00 00 00 00 
    fe3a:	48 8d 85 38 e6 ff ff 	lea    -0x19c8(%rbp),%rax
    fe41:	48 89 85 80 ea ff ff 	mov    %rax,-0x1580(%rbp)
    fe48:	48 8d 85 38 e6 ff ff 	lea    -0x19c8(%rbp),%rax
    fe4f:	48 89 85 88 ea ff ff 	mov    %rax,-0x1578(%rbp)
    fe56:	48 8d 85 38 e6 ff ff 	lea    -0x19c8(%rbp),%rax
    fe5d:	48 89 85 90 ea ff ff 	mov    %rax,-0x1570(%rbp)
    fe64:	48 8d 85 38 e6 ff ff 	lea    -0x19c8(%rbp),%rax
    fe6b:	48 89 85 98 ea ff ff 	mov    %rax,-0x1568(%rbp)
    fe72:	48 8d 85 38 e6 ff ff 	lea    -0x19c8(%rbp),%rax
    fe79:	48 89 85 a0 ea ff ff 	mov    %rax,-0x1560(%rbp)
    fe80:	48 8d 85 38 e6 ff ff 	lea    -0x19c8(%rbp),%rax
    fe87:	48 89 85 a8 ea ff ff 	mov    %rax,-0x1558(%rbp)
    fe8e:	48 8d 85 38 e6 ff ff 	lea    -0x19c8(%rbp),%rax
    fe95:	48 89 85 b0 ea ff ff 	mov    %rax,-0x1550(%rbp)
    fe9c:	48 8d 05 e5 39 01 00 	lea    0x139e5(%rip),%rax        # 23888 <g_2320>
    fea3:	48 89 85 10 ea ff ff 	mov    %rax,-0x15f0(%rbp)
    feaa:	48 8d 05 d8 39 01 00 	lea    0x139d8(%rip),%rax        # 23889 <g_2321>
    feb1:	48 89 85 18 ea ff ff 	mov    %rax,-0x15e8(%rbp)
    feb8:	48 8d 05 ca 39 01 00 	lea    0x139ca(%rip),%rax        # 23889 <g_2321>
    febf:	48 89 85 20 ea ff ff 	mov    %rax,-0x15e0(%rbp)
    fec6:	48 8d 05 bb 39 01 00 	lea    0x139bb(%rip),%rax        # 23888 <g_2320>
    fecd:	48 89 85 28 ea ff ff 	mov    %rax,-0x15d8(%rbp)
    fed4:	48 8d 05 ae 39 01 00 	lea    0x139ae(%rip),%rax        # 23889 <g_2321>
    fedb:	48 89 85 30 ea ff ff 	mov    %rax,-0x15d0(%rbp)
    fee2:	48 8d 05 a0 39 01 00 	lea    0x139a0(%rip),%rax        # 23889 <g_2321>
    fee9:	48 89 85 38 ea ff ff 	mov    %rax,-0x15c8(%rbp)
    fef0:	48 8b 05 09 72 01 00 	mov    0x17209(%rip),%rax        # 27100 <g_2896>
    fef7:	48 89 85 20 fe ff ff 	mov    %rax,-0x1e0(%rbp)
    fefe:	8b 85 8c e6 ff ff    	mov    -0x1974(%rbp),%eax
    ff04:	f7 d0                	not    %eax
    ff06:	89 c3                	mov    %eax,%ebx
    ff08:	8b 95 1c e6 ff ff    	mov    -0x19e4(%rbp),%edx
    ff0e:	0f b6 85 87 ec ff ff 	movzbl -0x1379(%rbp),%eax
    ff15:	83 f0 db             	xor    $0xffffffdb,%eax
    ff18:	88 85 87 ec ff ff    	mov    %al,-0x1379(%rbp)
    ff1e:	0f b6 85 87 ec ff ff 	movzbl -0x1379(%rbp),%eax
    ff25:	0f b6 c0             	movzbl %al,%eax
    ff28:	89 d6                	mov    %edx,%esi
    ff2a:	89 c7                	mov    %eax,%edi
    ff2c:	e8 d4 b6 ff ff       	callq  b605 <safe_sub_func_int32_t_s_s>
    ff31:	0f b6 c0             	movzbl %al,%eax
    ff34:	89 de                	mov    %ebx,%esi
    ff36:	89 c7                	mov    %eax,%edi
    ff38:	e8 0f bd ff ff       	callq  bc4c <safe_lshift_func_uint8_t_u_u>
    ff3d:	0f b6 c0             	movzbl %al,%eax
    ff40:	89 c6                	mov    %eax,%esi
    ff42:	bf 00 00 00 00       	mov    $0x0,%edi
    ff47:	e8 0e bc ff ff       	callq  bb5a <safe_add_func_uint8_t_u_u>
    ff4c:	0f be c0             	movsbl %al,%eax
    ff4f:	be 00 00 00 00       	mov    $0x0,%esi
    ff54:	89 c7                	mov    %eax,%edi
    ff56:	e8 11 b4 ff ff       	callq  b36c <safe_rshift_func_int8_t_s_u>
    ff5b:	44 0f be e0          	movsbl %al,%r12d
    ff5f:	8b 9d 1c e6 ff ff    	mov    -0x19e4(%rbp),%ebx
    ff65:	8b 85 38 e6 ff ff    	mov    -0x19c8(%rbp),%eax
    ff6b:	98                   	cwtl   
    ff6c:	be 01 00 00 00       	mov    $0x1,%esi
    ff71:	89 c7                	mov    %eax,%edi
    ff73:	e8 3b b4 ff ff       	callq  b3b3 <safe_add_func_int16_t_s_s>
    ff78:	48 83 bd 10 e9 ff ff 	cmpq   $0x0,-0x16f0(%rbp)
    ff7f:	00 
    ff80:	0f 94 c0             	sete   %al
    ff83:	0f b6 c0             	movzbl %al,%eax
    ff86:	39 85 7c e6 ff ff    	cmp    %eax,-0x1984(%rbp)
    ff8c:	0f 9e c0             	setle  %al
    ff8f:	0f b6 c0             	movzbl %al,%eax
    ff92:	48 89 de             	mov    %rbx,%rsi
    ff95:	48 89 c7             	mov    %rax,%rdi
    ff98:	e8 e3 c0 ff ff       	callq  c080 <safe_mod_func_uint64_t_u_u>
    ff9d:	48 ba 46 81 d3 bc 94 	movabs $0x6e5f3c94bcd38146,%rdx
    ffa4:	3c 5f 6e 
    ffa7:	48 39 d0             	cmp    %rdx,%rax
    ffaa:	0f 96 c0             	setbe  %al
    ffad:	89 c2                	mov    %eax,%edx
    ffaf:	8b 85 1c e6 ff ff    	mov    -0x19e4(%rbp),%eax
    ffb5:	31 d0                	xor    %edx,%eax
    ffb7:	0f b6 c0             	movzbl %al,%eax
    ffba:	be fb 00 00 00       	mov    $0xfb,%esi
    ffbf:	89 c7                	mov    %eax,%edi
    ffc1:	e8 94 bb ff ff       	callq  bb5a <safe_add_func_uint8_t_u_u>
    ffc6:	8b 95 74 e9 ff ff    	mov    -0x168c(%rbp),%edx
    ffcc:	0f b6 c0             	movzbl %al,%eax
    ffcf:	31 d0                	xor    %edx,%eax
    ffd1:	89 85 74 e9 ff ff    	mov    %eax,-0x168c(%rbp)
    ffd7:	8b 85 74 e9 ff ff    	mov    -0x168c(%rbp),%eax
    ffdd:	88 05 a6 38 01 00    	mov    %al,0x138a6(%rip)        # 23889 <g_2321>
    ffe3:	0f b6 05 9f 38 01 00 	movzbl 0x1389f(%rip),%eax        # 23889 <g_2321>
    ffea:	0f b6 c0             	movzbl %al,%eax
    ffed:	41 39 c4             	cmp    %eax,%r12d
    fff0:	0f 9e c0             	setle  %al
    fff3:	0f b6 c8             	movzbl %al,%ecx
    fff6:	8b 95 18 e6 ff ff    	mov    -0x19e8(%rbp),%edx
    fffc:	48 8b 05 fd 70 01 00 	mov    0x170fd(%rip),%rax        # 27100 <g_2896>
   10003:	09 ca                	or     %ecx,%edx
   10005:	89 10                	mov    %edx,(%rax)
   10007:	eb 25                	jmp    1002e <func_18+0x164d>
   10009:	48 8d 85 e0 f7 ff ff 	lea    -0x820(%rbp),%rax
   10010:	48 05 68 07 00 00    	add    $0x768,%rax
   10016:	48 89 85 18 e9 ff ff 	mov    %rax,-0x16e8(%rbp)
   1001d:	48 8b 95 c0 f8 ff ff 	mov    -0x740(%rbp),%rdx
   10024:	48 8b 85 18 e9 ff ff 	mov    -0x16e8(%rbp),%rax
   1002b:	48 89 10             	mov    %rdx,(%rax)
   1002e:	0f b7 05 27 30 01 00 	movzwl 0x13027(%rip),%eax        # 2305c <g_252>
   10035:	98                   	cwtl   
   10036:	be 05 00 00 00       	mov    $0x5,%esi
   1003b:	89 c7                	mov    %eax,%edi
   1003d:	e8 76 be ff ff       	callq  beb8 <safe_add_func_uint32_t_u_u>
   10042:	66 89 05 13 30 01 00 	mov    %ax,0x13013(%rip)        # 2305c <g_252>
   10049:	0f b7 05 0c 30 01 00 	movzwl 0x1300c(%rip),%eax        # 2305c <g_252>
   10050:	66 83 f8 0f          	cmp    $0xf,%ax
   10054:	0f 8f 2d fd ff ff    	jg     fd87 <func_18+0x13a6>
   1005a:	48 8b 05 7f 70 01 00 	mov    0x1707f(%rip),%rax        # 270e0 <g_2646>
   10061:	8b 00                	mov    (%rax),%eax
   10063:	85 c0                	test   %eax,%eax
   10065:	0f 85 5f 14 00 00    	jne    114ca <func_18+0x2ae9>
   1006b:	c7 85 74 e9 ff ff 8f 	movl   $0x79d0818f,-0x168c(%rbp)
   10072:	81 d0 79 
   10075:	48 8b 05 84 70 01 00 	mov    0x17084(%rip),%rax        # 27100 <g_2896>
   1007c:	8b 00                	mov    (%rax),%eax
   1007e:	85 c0                	test   %eax,%eax
   10080:	0f 84 9e 0c 00 00    	je     10d24 <func_18+0x2343>
   10086:	48 b8 95 e5 36 bc ca 	movabs $0xe77e72cabc36e595,%rax
   1008d:	72 7e e7 
   10090:	48 89 85 a8 e8 ff ff 	mov    %rax,-0x1758(%rbp)
   10097:	c7 85 d0 e6 ff ff 53 	movl   $0xfee35253,-0x1930(%rbp)
   1009e:	52 e3 fe 
   100a1:	48 c7 85 50 e7 ff ff 	movq   $0x0,-0x18b0(%rbp)
   100a8:	00 00 00 00 
   100ac:	48 8d 85 50 e7 ff ff 	lea    -0x18b0(%rbp),%rax
   100b3:	48 89 85 58 e7 ff ff 	mov    %rax,-0x18a8(%rbp)
   100ba:	48 8d 85 58 e7 ff ff 	lea    -0x18a8(%rbp),%rax
   100c1:	48 89 85 b0 e8 ff ff 	mov    %rax,-0x1750(%rbp)
   100c8:	48 8d 85 b0 e9 ff ff 	lea    -0x1650(%rbp),%rax
   100cf:	48 83 c0 1b          	add    $0x1b,%rax
   100d3:	48 89 85 e0 f7 ff ff 	mov    %rax,-0x820(%rbp)
   100da:	48 8d 85 b0 e9 ff ff 	lea    -0x1650(%rbp),%rax
   100e1:	48 83 c0 15          	add    $0x15,%rax
   100e5:	48 89 85 e8 f7 ff ff 	mov    %rax,-0x818(%rbp)
   100ec:	48 8d 05 f5 7c 01 00 	lea    0x17cf5(%rip),%rax        # 27de8 <g_401>
   100f3:	48 89 85 f0 f7 ff ff 	mov    %rax,-0x810(%rbp)
   100fa:	48 8d 85 b0 e9 ff ff 	lea    -0x1650(%rbp),%rax
   10101:	48 83 c0 15          	add    $0x15,%rax
   10105:	48 89 85 f8 f7 ff ff 	mov    %rax,-0x808(%rbp)
   1010c:	48 8d 85 b0 e9 ff ff 	lea    -0x1650(%rbp),%rax
   10113:	48 83 c0 1b          	add    $0x1b,%rax
   10117:	48 89 85 00 f8 ff ff 	mov    %rax,-0x800(%rbp)
   1011e:	48 c7 85 08 f8 ff ff 	movq   $0x0,-0x7f8(%rbp)
   10125:	00 00 00 00 
   10129:	48 c7 85 10 f8 ff ff 	movq   $0x0,-0x7f0(%rbp)
   10130:	00 00 00 00 
   10134:	48 8d 85 b0 e9 ff ff 	lea    -0x1650(%rbp),%rax
   1013b:	48 83 c0 1b          	add    $0x1b,%rax
   1013f:	48 89 85 18 f8 ff ff 	mov    %rax,-0x7e8(%rbp)
   10146:	48 8d 85 b0 e9 ff ff 	lea    -0x1650(%rbp),%rax
   1014d:	48 83 c0 1b          	add    $0x1b,%rax
   10151:	48 89 85 20 f8 ff ff 	mov    %rax,-0x7e0(%rbp)
   10158:	48 8d 05 29 37 01 00 	lea    0x13729(%rip),%rax        # 23888 <g_2320>
   1015f:	48 89 85 28 f8 ff ff 	mov    %rax,-0x7d8(%rbp)
   10166:	48 8d 85 b0 e9 ff ff 	lea    -0x1650(%rbp),%rax
   1016d:	48 83 c0 15          	add    $0x15,%rax
   10171:	48 89 85 30 f8 ff ff 	mov    %rax,-0x7d0(%rbp)
   10178:	48 8d 05 0a 37 01 00 	lea    0x1370a(%rip),%rax        # 23889 <g_2321>
   1017f:	48 89 85 38 f8 ff ff 	mov    %rax,-0x7c8(%rbp)
   10186:	48 c7 85 40 f8 ff ff 	movq   $0x0,-0x7c0(%rbp)
   1018d:	00 00 00 00 
   10191:	48 c7 85 48 f8 ff ff 	movq   $0x0,-0x7b8(%rbp)
   10198:	00 00 00 00 
   1019c:	48 8d 05 e6 36 01 00 	lea    0x136e6(%rip),%rax        # 23889 <g_2321>
   101a3:	48 89 85 50 f8 ff ff 	mov    %rax,-0x7b0(%rbp)
   101aa:	48 8d 85 b0 e9 ff ff 	lea    -0x1650(%rbp),%rax
   101b1:	48 83 c0 15          	add    $0x15,%rax
   101b5:	48 89 85 58 f8 ff ff 	mov    %rax,-0x7a8(%rbp)
   101bc:	48 8d 05 c5 36 01 00 	lea    0x136c5(%rip),%rax        # 23888 <g_2320>
   101c3:	48 89 85 60 f8 ff ff 	mov    %rax,-0x7a0(%rbp)
   101ca:	48 8d 85 b0 e9 ff ff 	lea    -0x1650(%rbp),%rax
   101d1:	48 83 c0 1b          	add    $0x1b,%rax
   101d5:	48 89 85 68 f8 ff ff 	mov    %rax,-0x798(%rbp)
   101dc:	48 8d 85 b0 e9 ff ff 	lea    -0x1650(%rbp),%rax
   101e3:	48 83 c0 1b          	add    $0x1b,%rax
   101e7:	48 89 85 70 f8 ff ff 	mov    %rax,-0x790(%rbp)
   101ee:	48 c7 85 78 f8 ff ff 	movq   $0x0,-0x788(%rbp)
   101f5:	00 00 00 00 
   101f9:	48 c7 85 80 f8 ff ff 	movq   $0x0,-0x780(%rbp)
   10200:	00 00 00 00 
   10204:	48 8d 85 b0 e9 ff ff 	lea    -0x1650(%rbp),%rax
   1020b:	48 83 c0 1b          	add    $0x1b,%rax
   1020f:	48 89 85 88 f8 ff ff 	mov    %rax,-0x778(%rbp)
   10216:	48 8d 85 b0 e9 ff ff 	lea    -0x1650(%rbp),%rax
   1021d:	48 83 c0 15          	add    $0x15,%rax
   10221:	48 89 85 90 f8 ff ff 	mov    %rax,-0x770(%rbp)
   10228:	48 8d 05 b9 7b 01 00 	lea    0x17bb9(%rip),%rax        # 27de8 <g_401>
   1022f:	48 89 85 98 f8 ff ff 	mov    %rax,-0x768(%rbp)
   10236:	48 8d 85 b0 e9 ff ff 	lea    -0x1650(%rbp),%rax
   1023d:	48 83 c0 15          	add    $0x15,%rax
   10241:	48 89 85 a0 f8 ff ff 	mov    %rax,-0x760(%rbp)
   10248:	48 8d 85 b0 e9 ff ff 	lea    -0x1650(%rbp),%rax
   1024f:	48 83 c0 1b          	add    $0x1b,%rax
   10253:	48 89 85 a8 f8 ff ff 	mov    %rax,-0x758(%rbp)
   1025a:	48 c7 85 b0 f8 ff ff 	movq   $0x0,-0x750(%rbp)
   10261:	00 00 00 00 
   10265:	48 c7 85 b8 f8 ff ff 	movq   $0x0,-0x748(%rbp)
   1026c:	00 00 00 00 
   10270:	48 8d 85 b0 e9 ff ff 	lea    -0x1650(%rbp),%rax
   10277:	48 83 c0 1b          	add    $0x1b,%rax
   1027b:	48 89 85 c0 f8 ff ff 	mov    %rax,-0x740(%rbp)
   10282:	48 8d 85 b0 e9 ff ff 	lea    -0x1650(%rbp),%rax
   10289:	48 83 c0 1b          	add    $0x1b,%rax
   1028d:	48 89 85 c8 f8 ff ff 	mov    %rax,-0x738(%rbp)
   10294:	48 8d 05 ed 35 01 00 	lea    0x135ed(%rip),%rax        # 23888 <g_2320>
   1029b:	48 89 85 d0 f8 ff ff 	mov    %rax,-0x730(%rbp)
   102a2:	48 8d 85 b0 e9 ff ff 	lea    -0x1650(%rbp),%rax
   102a9:	48 83 c0 15          	add    $0x15,%rax
   102ad:	48 89 85 d8 f8 ff ff 	mov    %rax,-0x728(%rbp)
   102b4:	48 8d 05 ce 35 01 00 	lea    0x135ce(%rip),%rax        # 23889 <g_2321>
   102bb:	48 89 85 e0 f8 ff ff 	mov    %rax,-0x720(%rbp)
   102c2:	48 c7 85 e8 f8 ff ff 	movq   $0x0,-0x718(%rbp)
   102c9:	00 00 00 00 
   102cd:	48 c7 85 f0 f8 ff ff 	movq   $0x0,-0x710(%rbp)
   102d4:	00 00 00 00 
   102d8:	48 8d 05 aa 35 01 00 	lea    0x135aa(%rip),%rax        # 23889 <g_2321>
   102df:	48 89 85 f8 f8 ff ff 	mov    %rax,-0x708(%rbp)
   102e6:	48 8d 85 b0 e9 ff ff 	lea    -0x1650(%rbp),%rax
   102ed:	48 83 c0 15          	add    $0x15,%rax
   102f1:	48 89 85 00 f9 ff ff 	mov    %rax,-0x700(%rbp)
   102f8:	48 8d 05 89 35 01 00 	lea    0x13589(%rip),%rax        # 23888 <g_2320>
   102ff:	48 89 85 08 f9 ff ff 	mov    %rax,-0x6f8(%rbp)
   10306:	48 8d 85 b0 e9 ff ff 	lea    -0x1650(%rbp),%rax
   1030d:	48 83 c0 1b          	add    $0x1b,%rax
   10311:	48 89 85 10 f9 ff ff 	mov    %rax,-0x6f0(%rbp)
   10318:	48 8d 85 b0 e9 ff ff 	lea    -0x1650(%rbp),%rax
   1031f:	48 83 c0 1b          	add    $0x1b,%rax
   10323:	48 89 85 18 f9 ff ff 	mov    %rax,-0x6e8(%rbp)
   1032a:	48 c7 85 20 f9 ff ff 	movq   $0x0,-0x6e0(%rbp)
   10331:	00 00 00 00 
   10335:	48 c7 85 28 f9 ff ff 	movq   $0x0,-0x6d8(%rbp)
   1033c:	00 00 00 00 
   10340:	48 8d 85 b0 e9 ff ff 	lea    -0x1650(%rbp),%rax
   10347:	48 83 c0 1b          	add    $0x1b,%rax
   1034b:	48 89 85 30 f9 ff ff 	mov    %rax,-0x6d0(%rbp)
   10352:	48 8d 85 b0 e9 ff ff 	lea    -0x1650(%rbp),%rax
   10359:	48 83 c0 15          	add    $0x15,%rax
   1035d:	48 89 85 38 f9 ff ff 	mov    %rax,-0x6c8(%rbp)
   10364:	48 8d 05 7d 7a 01 00 	lea    0x17a7d(%rip),%rax        # 27de8 <g_401>
   1036b:	48 89 85 40 f9 ff ff 	mov    %rax,-0x6c0(%rbp)
   10372:	48 8d 85 b0 e9 ff ff 	lea    -0x1650(%rbp),%rax
   10379:	48 83 c0 15          	add    $0x15,%rax
   1037d:	48 89 85 48 f9 ff ff 	mov    %rax,-0x6b8(%rbp)
   10384:	48 8d 85 b0 e9 ff ff 	lea    -0x1650(%rbp),%rax
   1038b:	48 83 c0 1b          	add    $0x1b,%rax
   1038f:	48 89 85 50 f9 ff ff 	mov    %rax,-0x6b0(%rbp)
   10396:	48 c7 85 58 f9 ff ff 	movq   $0x0,-0x6a8(%rbp)
   1039d:	00 00 00 00 
   103a1:	48 c7 85 60 f9 ff ff 	movq   $0x0,-0x6a0(%rbp)
   103a8:	00 00 00 00 
   103ac:	c7 85 4c e6 ff ff fb 	movl   $0xfffffffb,-0x19b4(%rbp)
   103b3:	ff ff ff 
   103b6:	48 c7 85 b8 e8 ff ff 	movq   $0x0,-0x1748(%rbp)
   103bd:	00 00 00 00 
   103c1:	48 8d 85 20 e7 ff ff 	lea    -0x18e0(%rbp),%rax
   103c8:	48 89 85 c0 e8 ff ff 	mov    %rax,-0x1740(%rbp)
   103cf:	48 c7 85 c8 e8 ff ff 	movq   $0x0,-0x1738(%rbp)
   103d6:	00 00 00 00 
   103da:	48 c7 85 d0 e8 ff ff 	movq   $0x0,-0x1730(%rbp)
   103e1:	00 00 00 00 
   103e5:	c7 85 60 e6 ff ff 00 	movl   $0x0,-0x19a0(%rbp)
   103ec:	00 00 00 
   103ef:	eb 1e                	jmp    1040f <func_18+0x1a2e>
   103f1:	8b 85 60 e6 ff ff    	mov    -0x19a0(%rbp),%eax
   103f7:	48 98                	cltq   
   103f9:	48 8d 15 48 55 01 00 	lea    0x15548(%rip),%rdx        # 25948 <g_692>
   10400:	48 89 94 c5 c0 ea ff 	mov    %rdx,-0x1540(%rbp,%rax,8)
   10407:	ff 
   10408:	83 85 60 e6 ff ff 01 	addl   $0x1,-0x19a0(%rbp)
   1040f:	83 bd 60 e6 ff ff 03 	cmpl   $0x3,-0x19a0(%rbp)
   10416:	7e d9                	jle    103f1 <func_18+0x1a10>
   10418:	8b 85 18 e6 ff ff    	mov    -0x19e8(%rbp),%eax
   1041e:	0f be d8             	movsbl %al,%ebx
   10421:	44 8b a5 1c e6 ff ff 	mov    -0x19e4(%rbp),%r12d
   10428:	8b 85 7c e6 ff ff    	mov    -0x1984(%rbp),%eax
   1042e:	44 0f b6 e8          	movzbl %al,%r13d
   10432:	0f b6 85 46 e9 ff ff 	movzbl -0x16ba(%rbp),%eax
   10439:	44 0f be f0          	movsbl %al,%r14d
   1043d:	48 8b 05 1c 6c 01 00 	mov    0x16c1c(%rip),%rax        # 27060 <g_2552>
   10444:	8b 10                	mov    (%rax),%edx
   10446:	8d 4a ff             	lea    -0x1(%rdx),%ecx
   10449:	89 08                	mov    %ecx,(%rax)
   1044b:	89 d0                	mov    %edx,%eax
   1044d:	48 89 85 a8 e8 ff ff 	mov    %rax,-0x1758(%rbp)
   10454:	48 8b 85 20 e7 ff ff 	mov    -0x18e0(%rbp),%rax
   1045b:	44 0f b7 f8          	movzwl %ax,%r15d
   1045f:	0f b6 85 cb e9 ff ff 	movzbl -0x1635(%rbp),%eax
   10466:	0f b6 d0             	movzbl %al,%edx
   10469:	48 83 bd b0 e8 ff ff 	cmpq   $0x0,-0x1750(%rbp)
   10470:	00 
   10471:	0f 95 c0             	setne  %al
   10474:	0f b6 c8             	movzbl %al,%ecx
   10477:	48 8b 85 d8 e7 ff ff 	mov    -0x1828(%rbp),%rax
   1047e:	89 08                	mov    %ecx,(%rax)
   10480:	48 8b 85 d8 e7 ff ff 	mov    -0x1828(%rbp),%rax
   10487:	8b 00                	mov    (%rax),%eax
   10489:	89 d6                	mov    %edx,%esi
   1048b:	89 c7                	mov    %eax,%edi
   1048d:	e8 73 b1 ff ff       	callq  b605 <safe_sub_func_int32_t_s_s>
   10492:	0f be c0             	movsbl %al,%eax
   10495:	be 56 00 00 00       	mov    $0x56,%esi
   1049a:	89 c7                	mov    %eax,%edi
   1049c:	e8 33 ad ff ff       	callq  b1d4 <safe_add_func_int8_t_s_s>
   104a1:	0f be c0             	movsbl %al,%eax
   104a4:	39 85 d0 e6 ff ff    	cmp    %eax,-0x1930(%rbp)
   104aa:	0f 94 c0             	sete   %al
   104ad:	0f b6 c0             	movzbl %al,%eax
   104b0:	be 0f 00 00 00       	mov    $0xf,%esi
   104b5:	89 c7                	mov    %eax,%edi
   104b7:	e8 6e b0 ff ff       	callq  b52a <safe_rshift_func_int16_t_s_s>
   104bc:	88 05 c7 33 01 00    	mov    %al,0x133c7(%rip)        # 23889 <g_2321>
   104c2:	be 72 a9 ff ff       	mov    $0xffffa972,%esi
   104c7:	bf 01 00 00 00       	mov    $0x1,%edi
   104cc:	e8 24 af ff ff       	callq  b3f5 <safe_mul_func_int16_t_s_s>
   104d1:	98                   	cwtl   
   104d2:	23 85 1c e6 ff ff    	and    -0x19e4(%rbp),%eax
   104d8:	8b 95 4c e6 ff ff    	mov    -0x19b4(%rbp),%edx
   104de:	31 d0                	xor    %edx,%eax
   104e0:	89 85 4c e6 ff ff    	mov    %eax,-0x19b4(%rbp)
   104e6:	8b 85 4c e6 ff ff    	mov    -0x19b4(%rbp),%eax
   104ec:	0f b7 c0             	movzwl %ax,%eax
   104ef:	44 89 fe             	mov    %r15d,%esi
   104f2:	89 c7                	mov    %eax,%edi
   104f4:	e8 06 b8 ff ff       	callq  bcff <safe_add_func_uint16_t_u_u>
   104f9:	66 85 c0             	test   %ax,%ax
   104fc:	74 07                	je     10505 <func_18+0x1b24>
   104fe:	83 bd d0 e6 ff ff 00 	cmpl   $0x0,-0x1930(%rbp)
   10505:	48 8d 85 f8 e6 ff ff 	lea    -0x1908(%rbp),%rax
   1050c:	48 39 85 e8 e7 ff ff 	cmp    %rax,-0x1818(%rbp)
   10513:	0f 95 c0             	setne  %al
   10516:	0f b6 c0             	movzbl %al,%eax
   10519:	89 c6                	mov    %eax,%esi
   1051b:	bf 00 00 00 00       	mov    $0x0,%edi
   10520:	e8 af ac ff ff       	callq  b1d4 <safe_add_func_int8_t_s_s>
   10525:	48 0f be c0          	movsbq %al,%rax
   10529:	48 39 85 a8 e8 ff ff 	cmp    %rax,-0x1758(%rbp)
   10530:	0f 95 c0             	setne  %al
   10533:	0f b6 c0             	movzbl %al,%eax
   10536:	44 89 f6             	mov    %r14d,%esi
   10539:	89 c7                	mov    %eax,%edi
   1053b:	e8 8c b1 ff ff       	callq  b6cc <safe_mod_func_int32_t_s_s>
   10540:	48 be 69 c9 7e 1b 35 	movabs $0x4cb9b2351b7ec969,%rsi
   10547:	b2 b9 4c 
   1054a:	bf ec e6 36 c2       	mov    $0xc236e6ec,%edi
   1054f:	e8 f7 ba ff ff       	callq  c04b <safe_sub_func_uint64_t_u_u>
   10554:	48 83 bd e0 e7 ff ff 	cmpq   $0x0,-0x1820(%rbp)
   1055b:	00 
   1055c:	0f 94 c0             	sete   %al
   1055f:	0f b6 c0             	movzbl %al,%eax
   10562:	44 89 ee             	mov    %r13d,%esi
   10565:	89 c7                	mov    %eax,%edi
   10567:	e8 27 b6 ff ff       	callq  bb93 <safe_mul_func_uint8_t_u_u>
   1056c:	0f be c0             	movsbl %al,%eax
   1056f:	be 09 00 00 00       	mov    $0x9,%esi
   10574:	89 c7                	mov    %eax,%edi
   10576:	e8 ef ac ff ff       	callq  b26a <safe_div_func_int8_t_s_s>
   1057b:	0f be c0             	movsbl %al,%eax
   1057e:	44 89 e6             	mov    %r12d,%esi
   10581:	89 c7                	mov    %eax,%edi
   10583:	e8 77 b1 ff ff       	callq  b6ff <safe_div_func_int32_t_s_s>
   10588:	89 c2                	mov    %eax,%edx
   1058a:	48 8b 85 08 e8 ff ff 	mov    -0x17f8(%rbp),%rax
   10591:	89 10                	mov    %edx,(%rax)
   10593:	89 de                	mov    %ebx,%esi
   10595:	bf f7 ff ff ff       	mov    $0xfffffff7,%edi
   1059a:	e8 92 ac ff ff       	callq  b231 <safe_mod_func_int8_t_s_s>
   1059f:	0f be d0             	movsbl %al,%edx
   105a2:	8b 85 18 e6 ff ff    	mov    -0x19e8(%rbp),%eax
   105a8:	39 c2                	cmp    %eax,%edx
   105aa:	0f 95 c2             	setne  %dl
   105ad:	48 8b 05 4c 6b 01 00 	mov    0x16b4c(%rip),%rax        # 27100 <g_2896>
   105b4:	0f b6 d2             	movzbl %dl,%edx
   105b7:	89 10                	mov    %edx,(%rax)
   105b9:	8b 9d 18 e6 ff ff    	mov    -0x19e8(%rbp),%ebx
   105bf:	48 8b 05 ba 69 01 00 	mov    0x169ba(%rip),%rax        # 26f80 <g_1662>
   105c6:	8b 85 1c e6 ff ff    	mov    -0x19e4(%rbp),%eax
   105cc:	be 01 00 00 00       	mov    $0x1,%esi
   105d1:	89 c7                	mov    %eax,%edi
   105d3:	e8 2d b0 ff ff       	callq  b605 <safe_sub_func_int32_t_s_s>
   105d8:	b8 01 00 00 00       	mov    $0x1,%eax
   105dd:	31 85 70 e6 ff ff    	xor    %eax,-0x1990(%rbp)
   105e3:	83 bd 70 e6 ff ff 00 	cmpl   $0x0,-0x1990(%rbp)
   105ea:	75 0c                	jne    105f8 <func_18+0x1c17>
   105ec:	48 8b 05 8d 69 01 00 	mov    0x1698d(%rip),%rax        # 26f80 <g_1662>
   105f3:	0f b6 00             	movzbl (%rax),%eax
   105f6:	84 c0                	test   %al,%al
   105f8:	8b 85 18 e6 ff ff    	mov    -0x19e8(%rbp),%eax
   105fe:	48 63 d0             	movslq %eax,%rdx
   10601:	48 8b 85 d8 e7 ff ff 	mov    -0x1828(%rbp),%rax
   10608:	8b 00                	mov    (%rax),%eax
   1060a:	48 98                	cltq   
   1060c:	b9 96 7c 2d 9c       	mov    $0x9c2d7c96,%ecx
   10611:	48 09 c8             	or     %rcx,%rax
   10614:	48 39 c2             	cmp    %rax,%rdx
   10617:	74 08                	je     10621 <func_18+0x1c40>
   10619:	8b 85 18 e6 ff ff    	mov    -0x19e8(%rbp),%eax
   1061f:	85 c0                	test   %eax,%eax
   10621:	48 8b 05 d8 6a 01 00 	mov    0x16ad8(%rip),%rax        # 27100 <g_2896>
   10628:	8b 00                	mov    (%rax),%eax
   1062a:	89 de                	mov    %ebx,%esi
   1062c:	89 c7                	mov    %eax,%edi
   1062e:	e8 d2 af ff ff       	callq  b605 <safe_sub_func_int32_t_s_s>
   10633:	85 c0                	test   %eax,%eax
   10635:	75 0b                	jne    10642 <func_18+0x1c61>
   10637:	0f b6 85 49 e9 ff ff 	movzbl -0x16b7(%rbp),%eax
   1063e:	84 c0                	test   %al,%al
   10640:	74 11                	je     10653 <func_18+0x1c72>
   10642:	8b 85 74 e9 ff ff    	mov    -0x168c(%rbp),%eax
   10648:	85 c0                	test   %eax,%eax
   1064a:	74 07                	je     10653 <func_18+0x1c72>
   1064c:	ba 01 00 00 00       	mov    $0x1,%edx
   10651:	eb 05                	jmp    10658 <func_18+0x1c77>
   10653:	ba 00 00 00 00       	mov    $0x0,%edx
   10658:	8b 85 18 e6 ff ff    	mov    -0x19e8(%rbp),%eax
   1065e:	21 d0                	and    %edx,%eax
   10660:	85 c0                	test   %eax,%eax
   10662:	0f 84 9e 02 00 00    	je     10906 <func_18+0x1f25>
   10668:	48 c7 85 f0 e8 ff ff 	movq   $0x0,-0x1710(%rbp)
   1066f:	00 00 00 00 
   10673:	48 8d 85 e0 e6 ff ff 	lea    -0x1920(%rbp),%rax
   1067a:	48 89 85 f8 e8 ff ff 	mov    %rax,-0x1708(%rbp)
   10681:	c7 85 d8 e6 ff ff 2a 	movl   $0xbe048e2a,-0x1928(%rbp)
   10688:	8e 04 be 
   1068b:	48 8d 85 70 e9 ff ff 	lea    -0x1690(%rbp),%rax
   10692:	48 83 c0 04          	add    $0x4,%rax
   10696:	48 89 85 00 e9 ff ff 	mov    %rax,-0x1700(%rbp)
   1069d:	8b 85 1c e6 ff ff    	mov    -0x19e4(%rbp),%eax
   106a3:	0f b7 d8             	movzwl %ax,%ebx
   106a6:	48 c7 85 28 e8 ff ff 	movq   $0x0,-0x17d8(%rbp)
   106ad:	00 00 00 00 
   106b1:	48 83 bd 28 e8 ff ff 	cmpq   $0x0,-0x17d8(%rbp)
   106b8:	00 
   106b9:	0f 94 c0             	sete   %al
   106bc:	44 0f b6 f0          	movzbl %al,%r14d
   106c0:	0f b7 85 fe ec ff ff 	movzwl -0x1302(%rbp),%eax
   106c7:	44 0f b7 e0          	movzwl %ax,%r12d
   106cb:	8b 85 1c e6 ff ff    	mov    -0x19e4(%rbp),%eax
   106d1:	44 0f b7 e8          	movzwl %ax,%r13d
   106d5:	48 8b 05 8c 69 01 00 	mov    0x1698c(%rip),%rax        # 27068 <g_2551>
   106dc:	48 8b 00             	mov    (%rax),%rax
   106df:	8b 00                	mov    (%rax),%eax
   106e1:	41 89 c7             	mov    %eax,%r15d
   106e4:	8b 95 4c e6 ff ff    	mov    -0x19b4(%rbp),%edx
   106ea:	8b 85 18 e6 ff ff    	mov    -0x19e8(%rbp),%eax
   106f0:	21 d0                	and    %edx,%eax
   106f2:	89 85 4c e6 ff ff    	mov    %eax,-0x19b4(%rbp)
   106f8:	8b 85 4c e6 ff ff    	mov    -0x19b4(%rbp),%eax
   106fe:	0f be c0             	movsbl %al,%eax
   10701:	be 04 00 00 00       	mov    $0x4,%esi
   10706:	89 c7                	mov    %eax,%edi
   10708:	e8 28 ac ff ff       	callq  b335 <safe_rshift_func_int8_t_s_s>
   1070d:	48 0f be d0          	movsbq %al,%rdx
   10711:	48 8b 85 f8 e8 ff ff 	mov    -0x1708(%rbp),%rax
   10718:	48 89 10             	mov    %rdx,(%rax)
   1071b:	48 8b 85 f8 e8 ff ff 	mov    -0x1708(%rbp),%rax
   10722:	48 8b 00             	mov    (%rax),%rax
   10725:	48 85 c0             	test   %rax,%rax
   10728:	75 2e                	jne    10758 <func_18+0x1d77>
   1072a:	8b 85 d8 e6 ff ff    	mov    -0x1928(%rbp),%eax
   10730:	0f be d0             	movsbl %al,%edx
   10733:	48 8b 05 26 69 01 00 	mov    0x16926(%rip),%rax        # 27060 <g_2552>
   1073a:	8b 00                	mov    (%rax),%eax
   1073c:	39 85 1c e6 ff ff    	cmp    %eax,-0x19e4(%rbp)
   10742:	0f 93 c0             	setae  %al
   10745:	0f b6 c0             	movzbl %al,%eax
   10748:	89 d6                	mov    %edx,%esi
   1074a:	89 c7                	mov    %eax,%edi
   1074c:	e8 e0 aa ff ff       	callq  b231 <safe_mod_func_int8_t_s_s>
   10751:	b8 00 00 00 00       	mov    $0x0,%eax
   10756:	eb 05                	jmp    1075d <func_18+0x1d7c>
   10758:	b8 01 00 00 00       	mov    $0x1,%eax
   1075d:	44 89 fa             	mov    %r15d,%edx
   10760:	31 c2                	xor    %eax,%edx
   10762:	48 8b 05 f7 68 01 00 	mov    0x168f7(%rip),%rax        # 27060 <g_2552>
   10769:	8b 00                	mov    (%rax),%eax
   1076b:	31 d0                	xor    %edx,%eax
   1076d:	0f b7 c0             	movzwl %ax,%eax
   10770:	44 89 ee             	mov    %r13d,%esi
   10773:	89 c7                	mov    %eax,%edi
   10775:	e8 c3 b5 ff ff       	callq  bd3d <safe_mul_func_uint16_t_u_u>
   1077a:	0f b7 d0             	movzwl %ax,%edx
   1077d:	8b 85 1c e6 ff ff    	mov    -0x19e4(%rbp),%eax
   10783:	98                   	cwtl   
   10784:	89 d6                	mov    %edx,%esi
   10786:	89 c7                	mov    %eax,%edi
   10788:	e8 54 ad ff ff       	callq  b4e1 <safe_lshift_func_int16_t_s_u>
   1078d:	98                   	cwtl   
   1078e:	44 89 e6             	mov    %r12d,%esi
   10791:	89 c7                	mov    %eax,%edi
   10793:	e8 34 af ff ff       	callq  b6cc <safe_mod_func_int32_t_s_s>
   10798:	0f be c0             	movsbl %al,%eax
   1079b:	be 02 00 00 00       	mov    $0x2,%esi
   107a0:	89 c7                	mov    %eax,%edi
   107a2:	e8 fa aa ff ff       	callq  b2a1 <safe_lshift_func_int8_t_s_s>
   107a7:	66 98                	cbtw   
   107a9:	44 09 f0             	or     %r14d,%eax
   107ac:	0f b7 c0             	movzwl %ax,%eax
   107af:	89 de                	mov    %ebx,%esi
   107b1:	89 c7                	mov    %eax,%edi
   107b3:	e8 47 b5 ff ff       	callq  bcff <safe_add_func_uint16_t_u_u>
   107b8:	48 8b 05 81 51 01 00 	mov    0x15181(%rip),%rax        # 25940 <g_628>
   107bf:	48 8b 00             	mov    (%rax),%rax
   107c2:	48 8b 00             	mov    (%rax),%rax
   107c5:	0f b6 00             	movzbl (%rax),%eax
   107c8:	8b 85 18 e6 ff ff    	mov    -0x19e8(%rbp),%eax
   107ce:	39 85 1c e6 ff ff    	cmp    %eax,-0x19e4(%rbp)
   107d4:	0f 93 c0             	setae  %al
   107d7:	0f b6 d0             	movzbl %al,%edx
   107da:	8b 85 18 e6 ff ff    	mov    -0x19e8(%rbp),%eax
   107e0:	21 d0                	and    %edx,%eax
   107e2:	23 85 1c e6 ff ff    	and    -0x19e4(%rbp),%eax
   107e8:	85 c0                	test   %eax,%eax
   107ea:	74 1d                	je     10809 <func_18+0x1e28>
   107ec:	48 8d 85 4c e6 ff ff 	lea    -0x19b4(%rbp),%rax
   107f3:	48 89 85 b8 e8 ff ff 	mov    %rax,-0x1748(%rbp)
   107fa:	48 8b 05 6f 69 01 00 	mov    0x1696f(%rip),%rax        # 27170 <g_2970>
   10801:	48 8b 00             	mov    (%rax),%rax
   10804:	e9 5f 1d 00 00       	jmpq   12568 <func_18+0x3b87>
   10809:	48 8b 05 d0 68 01 00 	mov    0x168d0(%rip),%rax        # 270e0 <g_2646>
   10810:	8b 00                	mov    (%rax),%eax
   10812:	85 c0                	test   %eax,%eax
   10814:	0f 85 d4 0c 00 00    	jne    114ee <func_18+0x2b0d>
   1081a:	66 c7 85 32 e6 ff ff 	movw   $0xfffe,-0x19ce(%rbp)
   10821:	fe ff 
   10823:	e9 c1 00 00 00       	jmpq   108e9 <func_18+0x1f08>
   10828:	48 8d 85 e0 e6 ff ff 	lea    -0x1920(%rbp),%rax
   1082f:	48 89 85 08 e9 ff ff 	mov    %rax,-0x16f8(%rbp)
   10836:	c7 85 dc e6 ff ff f9 	movl   $0xfffffff9,-0x1924(%rbp)
   1083d:	ff ff ff 
   10840:	48 8b 05 b9 68 01 00 	mov    0x168b9(%rip),%rax        # 27100 <g_2896>
   10847:	c7 00 fb ff ff ff    	movl   $0xfffffffb,(%rax)
   1084d:	48 8b 05 8c 50 01 00 	mov    0x1508c(%rip),%rax        # 258e0 <g_196>
   10854:	48 c7 00 00 00 00 00 	movq   $0x0,(%rax)
   1085b:	48 8b 00             	mov    (%rax),%rax
   1085e:	48 39 85 08 e9 ff ff 	cmp    %rax,-0x16f8(%rbp)
   10865:	0f 94 c0             	sete   %al
   10868:	0f b6 c0             	movzbl %al,%eax
   1086b:	39 85 1c e6 ff ff    	cmp    %eax,-0x19e4(%rbp)
   10871:	0f 97 c0             	seta   %al
   10874:	0f b6 c0             	movzbl %al,%eax
   10877:	39 85 dc e6 ff ff    	cmp    %eax,-0x1924(%rbp)
   1087d:	0f 94 c0             	sete   %al
   10880:	0f b6 d8             	movzbl %al,%ebx
   10883:	48 8b 05 f6 66 01 00 	mov    0x166f6(%rip),%rax        # 26f80 <g_1662>
   1088a:	0f b6 00             	movzbl (%rax),%eax
   1088d:	0f b6 d0             	movzbl %al,%edx
   10890:	48 8b 85 d8 e7 ff ff 	mov    -0x1828(%rbp),%rax
   10897:	89 10                	mov    %edx,(%rax)
   10899:	48 8b 85 d8 e7 ff ff 	mov    -0x1828(%rbp),%rax
   108a0:	8b 00                	mov    (%rax),%eax
   108a2:	89 c6                	mov    %eax,%esi
   108a4:	bf 27 00 00 00       	mov    $0x27,%edi
   108a9:	e8 9e b3 ff ff       	callq  bc4c <safe_lshift_func_uint8_t_u_u>
   108ae:	0f be c0             	movsbl %al,%eax
   108b1:	be 07 00 00 00       	mov    $0x7,%esi
   108b6:	89 c7                	mov    %eax,%edi
   108b8:	e8 31 aa ff ff       	callq  b2ee <safe_lshift_func_int8_t_s_u>
   108bd:	66 98                	cbtw   
   108bf:	0f b7 c0             	movzwl %ax,%eax
   108c2:	89 de                	mov    %ebx,%esi
   108c4:	89 c7                	mov    %eax,%edi
   108c6:	e8 af b5 ff ff       	callq  be7a <safe_rshift_func_uint16_t_u_u>
   108cb:	0f b7 c0             	movzwl %ax,%eax
   108ce:	39 85 1c e6 ff ff    	cmp    %eax,-0x19e4(%rbp)
   108d4:	0f 97 c0             	seta   %al
   108d7:	0f b6 c0             	movzbl %al,%eax
   108da:	66 89 85 36 e6 ff ff 	mov    %ax,-0x19ca(%rbp)
   108e1:	66 83 85 32 e6 ff ff 	addw   $0x1,-0x19ce(%rbp)
   108e8:	01 
   108e9:	66 83 bd 32 e6 ff ff 	cmpw   $0x39,-0x19ce(%rbp)
   108f0:	39 
   108f1:	0f 85 31 ff ff ff    	jne    10828 <func_18+0x1e47>
   108f7:	48 8b 05 ea 60 01 00 	mov    0x160ea(%rip),%rax        # 269e8 <g_1151>
   108fe:	48 8b 00             	mov    (%rax),%rax
   10901:	e9 62 1c 00 00       	jmpq   12568 <func_18+0x3b87>
   10906:	48 8d 05 cb 74 01 00 	lea    0x174cb(%rip),%rax        # 27dd8 <g_204>
   1090d:	48 89 85 20 ec ff ff 	mov    %rax,-0x13e0(%rbp)
   10914:	48 8d 05 bd 74 01 00 	lea    0x174bd(%rip),%rax        # 27dd8 <g_204>
   1091b:	48 89 85 28 ec ff ff 	mov    %rax,-0x13d8(%rbp)
   10922:	48 8d 05 af 74 01 00 	lea    0x174af(%rip),%rax        # 27dd8 <g_204>
   10929:	48 89 85 30 ec ff ff 	mov    %rax,-0x13d0(%rbp)
   10930:	48 8d 05 a1 74 01 00 	lea    0x174a1(%rip),%rax        # 27dd8 <g_204>
   10937:	48 89 85 38 ec ff ff 	mov    %rax,-0x13c8(%rbp)
   1093e:	48 8d 05 93 74 01 00 	lea    0x17493(%rip),%rax        # 27dd8 <g_204>
   10945:	48 89 85 40 ec ff ff 	mov    %rax,-0x13c0(%rbp)
   1094c:	48 8d 05 85 74 01 00 	lea    0x17485(%rip),%rax        # 27dd8 <g_204>
   10953:	48 89 85 48 ec ff ff 	mov    %rax,-0x13b8(%rbp)
   1095a:	48 8d 05 77 74 01 00 	lea    0x17477(%rip),%rax        # 27dd8 <g_204>
   10961:	48 89 85 50 ec ff ff 	mov    %rax,-0x13b0(%rbp)
   10968:	48 8d 05 69 74 01 00 	lea    0x17469(%rip),%rax        # 27dd8 <g_204>
   1096f:	48 89 85 58 ec ff ff 	mov    %rax,-0x13a8(%rbp)
   10976:	c7 85 d4 e6 ff ff d2 	movl   $0xd461dbd2,-0x192c(%rbp)
   1097d:	db 61 d4 
   10980:	48 8d 05 01 66 01 00 	lea    0x16601(%rip),%rax        # 26f88 <g_1739>
   10987:	48 89 85 d8 e8 ff ff 	mov    %rax,-0x1728(%rbp)
   1098e:	48 c7 85 e0 e8 ff ff 	movq   $0x0,-0x1720(%rbp)
   10995:	00 00 00 00 
   10999:	48 c7 85 c0 e8 ff ff 	movq   $0x0,-0x1740(%rbp)
   109a0:	00 00 00 00 
   109a4:	48 8d 85 e8 e6 ff ff 	lea    -0x1918(%rbp),%rax
   109ab:	48 39 85 c0 e8 ff ff 	cmp    %rax,-0x1740(%rbp)
   109b2:	0f 95 c0             	setne  %al
   109b5:	0f b6 c0             	movzbl %al,%eax
   109b8:	89 c7                	mov    %eax,%edi
   109ba:	e8 2a b3 ff ff       	callq  bce9 <safe_unary_minus_func_uint16_t_u>
   109bf:	8b 85 1c e6 ff ff    	mov    -0x19e4(%rbp),%eax
   109c5:	89 c6                	mov    %eax,%esi
   109c7:	bf ff ff ff ff       	mov    $0xffffffff,%edi
   109cc:	e8 ff b4 ff ff       	callq  bed0 <safe_sub_func_uint32_t_u_u>
   109d1:	48 8b 05 b0 67 01 00 	mov    0x167b0(%rip),%rax        # 27188 <g_3054>
   109d8:	8b 10                	mov    (%rax),%edx
   109da:	48 8b 85 d8 e7 ff ff 	mov    -0x1828(%rbp),%rax
   109e1:	89 10                	mov    %edx,(%rax)
   109e3:	48 8b 85 48 e7 ff ff 	mov    -0x18b8(%rbp),%rax
   109ea:	48 8b 95 d8 e7 ff ff 	mov    -0x1828(%rbp),%rdx
   109f1:	8b 12                	mov    (%rdx),%edx
   109f3:	89 10                	mov    %edx,(%rax)
   109f5:	48 8d 85 70 e9 ff ff 	lea    -0x1690(%rbp),%rax
   109fc:	48 83 c0 04          	add    $0x4,%rax
   10a00:	48 89 85 d8 ef ff ff 	mov    %rax,-0x1028(%rbp)
   10a07:	be 01 00 00 00       	mov    $0x1,%esi
   10a0c:	bf fe ff ff ff       	mov    $0xfffffffe,%edi
   10a11:	e8 d8 a8 ff ff       	callq  b2ee <safe_lshift_func_int8_t_s_u>
   10a16:	44 0f be e0          	movsbl %al,%r12d
   10a1a:	48 8b 05 1f 57 01 00 	mov    0x1571f(%rip),%rax        # 26140 <g_1022>
   10a21:	48 8b 95 c8 e8 ff ff 	mov    -0x1738(%rbp),%rdx
   10a28:	48 89 10             	mov    %rdx,(%rax)
   10a2b:	48 8b 00             	mov    (%rax),%rax
   10a2e:	48 39 85 c8 e8 ff ff 	cmp    %rax,-0x1738(%rbp)
   10a35:	0f 95 c0             	setne  %al
   10a38:	0f b6 c0             	movzbl %al,%eax
   10a3b:	89 c7                	mov    %eax,%edi
   10a3d:	e8 54 ab ff ff       	callq  b596 <safe_unary_minus_func_int32_t_s>
   10a42:	8b 95 18 e6 ff ff    	mov    -0x19e8(%rbp),%edx
   10a48:	39 d0                	cmp    %edx,%eax
   10a4a:	0f 94 c0             	sete   %al
   10a4d:	0f b6 d8             	movzbl %al,%ebx
   10a50:	48 8b 85 40 ec ff ff 	mov    -0x13c0(%rbp),%rax
   10a57:	48 89 85 60 e8 ff ff 	mov    %rax,-0x17a0(%rbp)
   10a5e:	48 8b 85 e8 e7 ff ff 	mov    -0x1818(%rbp),%rax
   10a65:	48 8b 00             	mov    (%rax),%rax
   10a68:	48 39 85 60 e8 ff ff 	cmp    %rax,-0x17a0(%rbp)
   10a6f:	0f 95 c0             	setne  %al
   10a72:	0f b6 d0             	movzbl %al,%edx
   10a75:	48 8b 85 68 eb ff ff 	mov    -0x1498(%rbp),%rax
   10a7c:	48 8b 8d 68 eb ff ff 	mov    -0x1498(%rbp),%rcx
   10a83:	48 89 8d 30 e8 ff ff 	mov    %rcx,-0x17d0(%rbp)
   10a8a:	48 39 85 30 e8 ff ff 	cmp    %rax,-0x17d0(%rbp)
   10a91:	0f 95 c0             	setne  %al
   10a94:	0f b6 c0             	movzbl %al,%eax
   10a97:	89 d6                	mov    %edx,%esi
   10a99:	89 c7                	mov    %eax,%edi
   10a9b:	e8 16 ab ff ff       	callq  b5b6 <safe_add_func_int32_t_s_s>
   10aa0:	89 85 d4 e6 ff ff    	mov    %eax,-0x192c(%rbp)
   10aa6:	39 9d d4 e6 ff ff    	cmp    %ebx,-0x192c(%rbp)
   10aac:	0f 9c c0             	setl   %al
   10aaf:	44 0f b6 e8          	movzbl %al,%r13d
   10ab3:	8b 85 18 e6 ff ff    	mov    -0x19e8(%rbp),%eax
   10ab9:	0f b6 d8             	movzbl %al,%ebx
   10abc:	8b 95 1c e6 ff ff    	mov    -0x19e4(%rbp),%edx
   10ac2:	48 8b 85 48 e7 ff ff 	mov    -0x18b8(%rbp),%rax
   10ac9:	c7 00 01 00 00 00    	movl   $0x1,(%rax)
   10acf:	8b 00                	mov    (%rax),%eax
   10ad1:	89 d6                	mov    %edx,%esi
   10ad3:	89 c7                	mov    %eax,%edi
   10ad5:	e8 dc aa ff ff       	callq  b5b6 <safe_add_func_int32_t_s_s>
   10ada:	0f b6 c0             	movzbl %al,%eax
   10add:	89 de                	mov    %ebx,%esi
   10adf:	89 c7                	mov    %eax,%edi
   10ae1:	e8 ad b0 ff ff       	callq  bb93 <safe_mul_func_uint8_t_u_u>
   10ae6:	0f b6 c0             	movzbl %al,%eax
   10ae9:	44 31 e8             	xor    %r13d,%eax
   10aec:	41 39 c4             	cmp    %eax,%r12d
   10aef:	0f 95 c0             	setne  %al
   10af2:	0f b6 c0             	movzbl %al,%eax
   10af5:	48 c7 c6 f7 ff ff ff 	mov    $0xfffffffffffffff7,%rsi
   10afc:	48 89 c7             	mov    %rax,%rdi
   10aff:	e8 2a b5 ff ff       	callq  c02e <safe_add_func_uint64_t_u_u>
   10b04:	48 8b 85 48 f4 ff ff 	mov    -0xbb8(%rbp),%rax
   10b0b:	48 85 c0             	test   %rax,%rax
   10b0e:	0f 94 c2             	sete   %dl
   10b11:	48 8b 05 70 66 01 00 	mov    0x16670(%rip),%rax        # 27188 <g_3054>
   10b18:	0f b6 d2             	movzbl %dl,%edx
   10b1b:	89 10                	mov    %edx,(%rax)
   10b1d:	48 8b 85 e8 e7 ff ff 	mov    -0x1818(%rbp),%rax
   10b24:	48 8b 00             	mov    (%rax),%rax
   10b27:	48 8b 95 d0 e8 ff ff 	mov    -0x1730(%rbp),%rdx
   10b2e:	48 89 10             	mov    %rdx,(%rax)
   10b31:	48 8b 00             	mov    (%rax),%rax
   10b34:	48 39 85 e0 e8 ff ff 	cmp    %rax,-0x1720(%rbp)
   10b3b:	0f 94 c0             	sete   %al
   10b3e:	0f b6 d0             	movzbl %al,%edx
   10b41:	48 8b 85 d8 e7 ff ff 	mov    -0x1828(%rbp),%rax
   10b48:	8b 00                	mov    (%rax),%eax
   10b4a:	31 c2                	xor    %eax,%edx
   10b4c:	48 8b 85 d8 e7 ff ff 	mov    -0x1828(%rbp),%rax
   10b53:	89 10                	mov    %edx,(%rax)
   10b55:	48 8b 85 d8 e7 ff ff 	mov    -0x1828(%rbp),%rax
   10b5c:	8b 00                	mov    (%rax),%eax
   10b5e:	85 c0                	test   %eax,%eax
   10b60:	74 6d                	je     10bcf <func_18+0x21ee>
   10b62:	48 8d 05 27 4d 01 00 	lea    0x14d27(%rip),%rax        # 25890 <g_105>
   10b69:	48 89 85 e8 e8 ff ff 	mov    %rax,-0x1718(%rbp)
   10b70:	48 8b 85 48 e7 ff ff 	mov    -0x18b8(%rbp),%rax
   10b77:	8b 00                	mov    (%rax),%eax
   10b79:	85 c0                	test   %eax,%eax
   10b7b:	0f 85 9d 01 00 00    	jne    10d1e <func_18+0x233d>
   10b81:	48 8b 85 e8 e8 ff ff 	mov    -0x1718(%rbp),%rax
   10b88:	48 c7 00 00 00 00 00 	movq   $0x0,(%rax)
   10b8f:	be 00 00 00 00       	mov    $0x0,%esi
   10b94:	bf 04 00 00 00       	mov    $0x4,%edi
   10b99:	e8 a3 ac ff ff       	callq  b841 <safe_add_func_int64_t_s_s>
   10b9e:	48 89 c2             	mov    %rax,%rdx
   10ba1:	48 8b 05 e0 65 01 00 	mov    0x165e0(%rip),%rax        # 27188 <g_3054>
   10ba8:	89 10                	mov    %edx,(%rax)
   10baa:	be 02 00 00 00       	mov    $0x2,%esi
   10baf:	bf b8 52 00 00       	mov    $0x52b8,%edi
   10bb4:	e8 71 a9 ff ff       	callq  b52a <safe_rshift_func_int16_t_s_s>
   10bb9:	48 8b 05 18 65 01 00 	mov    0x16518(%rip),%rax        # 270d8 <g_2616>
   10bc0:	48 8d 95 18 e6 ff ff 	lea    -0x19e8(%rbp),%rdx
   10bc7:	48 89 10             	mov    %rdx,(%rax)
   10bca:	e9 ff 08 00 00       	jmpq   114ce <func_18+0x2aed>
   10bcf:	c6 85 31 e6 ff ff ff 	movb   $0xff,-0x19cf(%rbp)
   10bd6:	8b 85 18 e6 ff ff    	mov    -0x19e8(%rbp),%eax
   10bdc:	33 85 1c e6 ff ff    	xor    -0x19e4(%rbp),%eax
   10be2:	89 85 18 e6 ff ff    	mov    %eax,-0x19e8(%rbp)
   10be8:	8b 9d 1c e6 ff ff    	mov    -0x19e4(%rbp),%ebx
   10bee:	8b 85 d4 e6 ff ff    	mov    -0x192c(%rbp),%eax
   10bf4:	44 0f be e0          	movsbl %al,%r12d
   10bf8:	8b 85 d4 e6 ff ff    	mov    -0x192c(%rbp),%eax
   10bfe:	44 0f bf e8          	movswl %ax,%r13d
   10c02:	48 8b 05 77 63 01 00 	mov    0x16377(%rip),%rax        # 26f80 <g_1662>
   10c09:	0f b6 00             	movzbl (%rax),%eax
   10c0c:	0f b6 d0             	movzbl %al,%edx
   10c0f:	48 83 bd d8 e7 ff ff 	cmpq   $0x0,-0x1828(%rbp)
   10c16:	00 
   10c17:	0f 95 c0             	setne  %al
   10c1a:	0f b6 c0             	movzbl %al,%eax
   10c1d:	39 c2                	cmp    %eax,%edx
   10c1f:	0f 9f c0             	setg   %al
   10c22:	0f b6 d0             	movzbl %al,%edx
   10c25:	48 8b 85 d8 e7 ff ff 	mov    -0x1828(%rbp),%rax
   10c2c:	89 10                	mov    %edx,(%rax)
   10c2e:	48 8b 85 d8 e7 ff ff 	mov    -0x1828(%rbp),%rax
   10c35:	8b 00                	mov    (%rax),%eax
   10c37:	89 85 14 e6 ff ff    	mov    %eax,-0x19ec(%rbp)
   10c3d:	0f b7 05 ee 23 01 00 	movzwl 0x123ee(%rip),%eax        # 23032 <g_6+0x2>
   10c44:	44 0f be f0          	movsbl %al,%r14d
   10c48:	44 0f be bd 31 e6 ff 	movsbl -0x19cf(%rbp),%r15d
   10c4f:	ff 
   10c50:	48 8b 85 48 e7 ff ff 	mov    -0x18b8(%rbp),%rax
   10c57:	8b 00                	mov    (%rax),%eax
   10c59:	83 f8 05             	cmp    $0x5,%eax
   10c5c:	0f 94 c0             	sete   %al
   10c5f:	0f b6 c0             	movzbl %al,%eax
   10c62:	8b 95 18 e6 ff ff    	mov    -0x19e8(%rbp),%edx
   10c68:	09 d0                	or     %edx,%eax
   10c6a:	98                   	cwtl   
   10c6b:	be 08 00 00 00       	mov    $0x8,%esi
   10c70:	89 c7                	mov    %eax,%edi
   10c72:	e8 1b a8 ff ff       	callq  b492 <safe_lshift_func_int16_t_s_s>
   10c77:	98                   	cwtl   
   10c78:	44 89 fe             	mov    %r15d,%esi
   10c7b:	89 c7                	mov    %eax,%edi
   10c7d:	e8 d3 a7 ff ff       	callq  b455 <safe_div_func_int16_t_s_s>
   10c82:	0f be c0             	movsbl %al,%eax
   10c85:	44 89 f6             	mov    %r14d,%esi
   10c88:	89 c7                	mov    %eax,%edi
   10c8a:	e8 63 a5 ff ff       	callq  b1f2 <safe_sub_func_int8_t_s_s>
   10c8f:	0f be c0             	movsbl %al,%eax
   10c92:	8b 95 14 e6 ff ff    	mov    -0x19ec(%rbp),%edx
   10c98:	09 c2                	or     %eax,%edx
   10c9a:	8b 85 18 e6 ff ff    	mov    -0x19e8(%rbp),%eax
   10ca0:	39 c2                	cmp    %eax,%edx
   10ca2:	44 89 ee             	mov    %r13d,%esi
   10ca5:	bf 00 00 00 00       	mov    $0x0,%edi
   10caa:	e8 46 a7 ff ff       	callq  b3f5 <safe_mul_func_int16_t_s_s>
   10caf:	0f be c0             	movsbl %al,%eax
   10cb2:	44 89 e6             	mov    %r12d,%esi
   10cb5:	89 c7                	mov    %eax,%edi
   10cb7:	e8 18 a5 ff ff       	callq  b1d4 <safe_add_func_int8_t_s_s>
   10cbc:	66 98                	cbtw   
   10cbe:	0f b7 d0             	movzwl %ax,%edx
   10cc1:	8b 85 1c e6 ff ff    	mov    -0x19e4(%rbp),%eax
   10cc7:	0f b7 c0             	movzwl %ax,%eax
   10cca:	89 d6                	mov    %edx,%esi
   10ccc:	89 c7                	mov    %eax,%edi
   10cce:	e8 4c b0 ff ff       	callq  bd1f <safe_sub_func_uint16_t_u_u>
   10cd3:	44 0f b7 e0          	movzwl %ax,%r12d
   10cd7:	be 01 00 00 00       	mov    $0x1,%esi
   10cdc:	bf ff ff ff ff       	mov    $0xffffffff,%edi
   10ce1:	e8 08 a6 ff ff       	callq  b2ee <safe_lshift_func_int8_t_s_u>
   10ce6:	48 0f be c0          	movsbq %al,%rax
   10cea:	48 89 c6             	mov    %rax,%rsi
   10ced:	bf 01 00 00 00       	mov    $0x1,%edi
   10cf2:	e8 00 ad ff ff       	callq  b9f7 <safe_div_func_int64_t_s_s>
   10cf7:	4c 89 e6             	mov    %r12,%rsi
   10cfa:	48 89 c7             	mov    %rax,%rdi
   10cfd:	e8 3f ab ff ff       	callq  b841 <safe_add_func_int64_t_s_s>
   10d02:	48 89 de             	mov    %rbx,%rsi
   10d05:	48 89 c7             	mov    %rax,%rdi
   10d08:	e8 34 ab ff ff       	callq  b841 <safe_add_func_int64_t_s_s>
   10d0d:	48 89 c2             	mov    %rax,%rdx
   10d10:	48 8b 85 48 e7 ff ff 	mov    -0x18b8(%rbp),%rax
   10d17:	89 10                	mov    %edx,(%rax)
   10d19:	e9 b0 07 00 00       	jmpq   114ce <func_18+0x2aed>
   10d1e:	90                   	nop
   10d1f:	e9 ce 07 00 00       	jmpq   114f2 <func_18+0x2b11>
   10d24:	c7 85 90 e6 ff ff ff 	movl   $0xffffffff,-0x1970(%rbp)
   10d2b:	ff ff ff 
   10d2e:	48 8d 05 a3 4b 01 00 	lea    0x14ba3(%rip),%rax        # 258d8 <g_183+0x38>
   10d35:	48 89 85 70 e8 ff ff 	mov    %rax,-0x1790(%rbp)
   10d3c:	c7 85 94 e6 ff ff ff 	movl   $0x49b84bff,-0x196c(%rbp)
   10d43:	4b b8 49 
   10d46:	c7 85 98 e6 ff ff 1c 	movl   $0x708dde1c,-0x1968(%rbp)
   10d4d:	de 8d 70 
   10d50:	c7 85 9c e6 ff ff ff 	movl   $0xffffffff,-0x1964(%rbp)
   10d57:	ff ff ff 
   10d5a:	c7 85 a0 e6 ff ff f0 	movl   $0x318db0f0,-0x1960(%rbp)
   10d61:	b0 8d 31 
   10d64:	48 b8 cc 33 ff 80 cd 	movabs $0x8db94acd80ff33cc,%rax
   10d6b:	4a b9 8d 
   10d6e:	48 89 85 78 e8 ff ff 	mov    %rax,-0x1788(%rbp)
   10d75:	c6 85 30 e6 ff ff a1 	movb   $0xa1,-0x19d0(%rbp)
   10d7c:	c7 85 64 e6 ff ff 00 	movl   $0x0,-0x199c(%rbp)
   10d83:	00 00 00 
   10d86:	eb 1a                	jmp    10da2 <func_18+0x23c1>
   10d88:	8b 85 64 e6 ff ff    	mov    -0x199c(%rbp),%eax
   10d8e:	48 98                	cltq   
   10d90:	c7 84 85 20 ec ff ff 	movl   $0x282da010,-0x13e0(%rbp,%rax,4)
   10d97:	10 a0 2d 28 
   10d9b:	83 85 64 e6 ff ff 01 	addl   $0x1,-0x199c(%rbp)
   10da2:	83 bd 64 e6 ff ff 00 	cmpl   $0x0,-0x199c(%rbp)
   10da9:	7e dd                	jle    10d88 <func_18+0x23a7>
   10dab:	8b 85 18 e6 ff ff    	mov    -0x19e8(%rbp),%eax
   10db1:	3d 15 aa 00 00       	cmp    $0xaa15,%eax
   10db6:	0f 94 c0             	sete   %al
   10db9:	0f b6 d0             	movzbl %al,%edx
   10dbc:	48 8b 85 48 e7 ff ff 	mov    -0x18b8(%rbp),%rax
   10dc3:	8b 00                	mov    (%rax),%eax
   10dc5:	39 c2                	cmp    %eax,%edx
   10dc7:	48 8b 85 f0 e7 ff ff 	mov    -0x1810(%rbp),%rax
   10dce:	0f b6 d8             	movzbl %al,%ebx
   10dd1:	48 8d 05 00 4b 01 00 	lea    0x14b00(%rip),%rax        # 258d8 <g_183+0x38>
   10dd8:	48 39 85 70 e8 ff ff 	cmp    %rax,-0x1790(%rbp)
   10ddf:	0f 94 c0             	sete   %al
   10de2:	44 0f b6 e0          	movzbl %al,%r12d
   10de6:	48 8b 05 4b 4b 01 00 	mov    0x14b4b(%rip),%rax        # 25938 <g_626>
   10ded:	48 8b 00             	mov    (%rax),%rax
   10df0:	0f b6 00             	movzbl (%rax),%eax
   10df3:	0f be d0             	movsbl %al,%edx
   10df6:	8b 85 94 e6 ff ff    	mov    -0x196c(%rbp),%eax
   10dfc:	0f be c0             	movsbl %al,%eax
   10dff:	89 d6                	mov    %edx,%esi
   10e01:	89 c7                	mov    %eax,%edi
   10e03:	e8 99 a4 ff ff       	callq  b2a1 <safe_lshift_func_int8_t_s_s>
   10e08:	0f be c0             	movsbl %al,%eax
   10e0b:	41 39 c4             	cmp    %eax,%r12d
   10e0e:	0f 94 c0             	sete   %al
   10e11:	0f b6 c0             	movzbl %al,%eax
   10e14:	be de 34 38 d4       	mov    $0xd43834de,%esi
   10e19:	89 c7                	mov    %eax,%edi
   10e1b:	e8 dd b0 ff ff       	callq  befd <safe_mod_func_uint32_t_u_u>
   10e20:	8b 85 18 e6 ff ff    	mov    -0x19e8(%rbp),%eax
   10e26:	48 98                	cltq   
   10e28:	48 f7 d0             	not    %rax
   10e2b:	48 89 c2             	mov    %rax,%rdx
   10e2e:	83 ad 90 e6 ff ff 01 	subl   $0x1,-0x1970(%rbp)
   10e35:	8b 85 90 e6 ff ff    	mov    -0x1970(%rbp),%eax
   10e3b:	48 89 d6             	mov    %rdx,%rsi
   10e3e:	48 89 c7             	mov    %rax,%rdi
   10e41:	e8 3a b2 ff ff       	callq  c080 <safe_mod_func_uint64_t_u_u>
   10e46:	0f bf d0             	movswl %ax,%edx
   10e49:	0f be 85 2e e6 ff ff 	movsbl -0x19d2(%rbp),%eax
   10e50:	89 d6                	mov    %edx,%esi
   10e52:	89 c7                	mov    %eax,%edi
   10e54:	e8 9c a5 ff ff       	callq  b3f5 <safe_mul_func_int16_t_s_s>
   10e59:	98                   	cwtl   
   10e5a:	89 85 94 e6 ff ff    	mov    %eax,-0x196c(%rbp)
   10e60:	8b 85 94 e6 ff ff    	mov    -0x196c(%rbp),%eax
   10e66:	0f b6 c0             	movzbl %al,%eax
   10e69:	89 de                	mov    %ebx,%esi
   10e6b:	89 c7                	mov    %eax,%edi
   10e6d:	e8 69 ad ff ff       	callq  bbdb <safe_div_func_uint8_t_u_u>
   10e72:	0f b6 d0             	movzbl %al,%edx
   10e75:	8b 85 18 e6 ff ff    	mov    -0x19e8(%rbp),%eax
   10e7b:	39 c2                	cmp    %eax,%edx
   10e7d:	be 01 00 00 00       	mov    $0x1,%esi
   10e82:	bf 00 00 00 00       	mov    $0x0,%edi
   10e87:	e8 15 a4 ff ff       	callq  b2a1 <safe_lshift_func_int8_t_s_s>
   10e8c:	0f be c0             	movsbl %al,%eax
   10e8f:	89 85 18 e6 ff ff    	mov    %eax,-0x19e8(%rbp)
   10e95:	8b 8d 18 e6 ff ff    	mov    -0x19e8(%rbp),%ecx
   10e9b:	48 8b 05 e6 62 01 00 	mov    0x162e6(%rip),%rax        # 27188 <g_3054>
   10ea2:	8b 10                	mov    (%rax),%edx
   10ea4:	48 8b 05 dd 62 01 00 	mov    0x162dd(%rip),%rax        # 27188 <g_3054>
   10eab:	09 ca                	or     %ecx,%edx
   10ead:	89 10                	mov    %edx,(%rax)
   10eaf:	8b 10                	mov    (%rax),%edx
   10eb1:	48 8b 85 d8 e7 ff ff 	mov    -0x1828(%rbp),%rax
   10eb8:	8b 00                	mov    (%rax),%eax
   10eba:	09 c2                	or     %eax,%edx
   10ebc:	48 8b 85 d8 e7 ff ff 	mov    -0x1828(%rbp),%rax
   10ec3:	89 10                	mov    %edx,(%rax)
   10ec5:	8b 85 94 e6 ff ff    	mov    -0x196c(%rbp),%eax
   10ecb:	0f b6 d8             	movzbl %al,%ebx
   10ece:	48 8b 05 0b 5b 01 00 	mov    0x15b0b(%rip),%rax        # 269e0 <g_1121>
   10ed5:	8b 00                	mov    (%rax),%eax
   10ed7:	33 85 1c e6 ff ff    	xor    -0x19e4(%rbp),%eax
   10edd:	89 c2                	mov    %eax,%edx
   10edf:	48 8b 85 48 e7 ff ff 	mov    -0x18b8(%rbp),%rax
   10ee6:	8b 00                	mov    (%rax),%eax
   10ee8:	31 c2                	xor    %eax,%edx
   10eea:	48 8b 85 48 e7 ff ff 	mov    -0x18b8(%rbp),%rax
   10ef1:	89 10                	mov    %edx,(%rax)
   10ef3:	8b 00                	mov    (%rax),%eax
   10ef5:	0f b7 c0             	movzwl %ax,%eax
   10ef8:	be 00 00 00 00       	mov    $0x0,%esi
   10efd:	89 c7                	mov    %eax,%edi
   10eff:	e8 44 af ff ff       	callq  be48 <safe_rshift_func_uint16_t_u_s>
   10f04:	0f be c0             	movsbl %al,%eax
   10f07:	be 07 00 00 00       	mov    $0x7,%esi
   10f0c:	89 c7                	mov    %eax,%edi
   10f0e:	e8 db a3 ff ff       	callq  b2ee <safe_lshift_func_int8_t_s_u>
   10f13:	0f b6 c0             	movzbl %al,%eax
   10f16:	89 de                	mov    %ebx,%esi
   10f18:	89 c7                	mov    %eax,%edi
   10f1a:	e8 3b ac ff ff       	callq  bb5a <safe_add_func_uint8_t_u_u>
   10f1f:	83 bd 90 e6 ff ff 00 	cmpl   $0x0,-0x1970(%rbp)
   10f26:	74 12                	je     10f3a <func_18+0x2559>
   10f28:	be 0b 00 00 00       	mov    $0xb,%esi
   10f2d:	bf a4 b0 00 00       	mov    $0xb0a4,%edi
   10f32:	e8 11 af ff ff       	callq  be48 <safe_rshift_func_uint16_t_u_s>
   10f37:	66 85 c0             	test   %ax,%ax
   10f3a:	83 bd 1c e6 ff ff 01 	cmpl   $0x1,-0x19e4(%rbp)
   10f41:	0f 95 c0             	setne  %al
   10f44:	0f b6 c0             	movzbl %al,%eax
   10f47:	39 85 88 e6 ff ff    	cmp    %eax,-0x1978(%rbp)
   10f4d:	0f 94 c0             	sete   %al
   10f50:	0f b6 c0             	movzbl %al,%eax
   10f53:	be 03 00 00 00       	mov    $0x3,%esi
   10f58:	89 c7                	mov    %eax,%edi
   10f5a:	e8 5f ad ff ff       	callq  bcbe <safe_rshift_func_uint8_t_u_u>
   10f5f:	84 c0                	test   %al,%al
   10f61:	0f 84 57 02 00 00    	je     111be <func_18+0x27dd>
   10f67:	c7 85 b0 e6 ff ff ff 	movl   $0xffffffff,-0x1950(%rbp)
   10f6e:	ff ff ff 
   10f71:	c7 85 b4 e6 ff ff fe 	movl   $0xfffffffe,-0x194c(%rbp)
   10f78:	ff ff ff 
   10f7b:	c7 85 b8 e6 ff ff e8 	movl   $0xdb6c3fe8,-0x1948(%rbp)
   10f82:	3f 6c db 
   10f85:	c7 85 bc e6 ff ff 3b 	movl   $0xe4748b3b,-0x1944(%rbp)
   10f8c:	8b 74 e4 
   10f8f:	c7 05 3b 25 01 00 00 	movl   $0x0,0x1253b(%rip)        # 234d4 <g_2012>
   10f96:	00 00 00 
   10f99:	90                   	nop
   10f9a:	8b 05 34 25 01 00    	mov    0x12534(%rip),%eax        # 234d4 <g_2012>
   10fa0:	83 f8 01             	cmp    $0x1,%eax
   10fa3:	0f 87 11 05 00 00    	ja     114ba <func_18+0x2ad9>
   10fa9:	48 8d 85 48 e7 ff ff 	lea    -0x18b8(%rbp),%rax
   10fb0:	48 89 85 98 e8 ff ff 	mov    %rax,-0x1768(%rbp)
   10fb7:	48 8d 85 60 ee ff ff 	lea    -0x11a0(%rbp),%rax
   10fbe:	48 05 78 01 00 00    	add    $0x178,%rax
   10fc4:	48 89 85 a0 e8 ff ff 	mov    %rax,-0x1760(%rbp)
   10fcb:	c7 85 c0 e6 ff ff fb 	movl   $0xfffffffb,-0x1940(%rbp)
   10fd2:	ff ff ff 
   10fd5:	c7 85 c4 e6 ff ff 2f 	movl   $0x5149762f,-0x193c(%rbp)
   10fdc:	76 49 51 
   10fdf:	c7 85 c8 e6 ff ff ff 	movl   $0xffffffff,-0x1938(%rbp)
   10fe6:	ff ff ff 
   10fe9:	c7 85 cc e6 ff ff ff 	movl   $0xffffffff,-0x1934(%rbp)
   10ff0:	ff ff ff 
   10ff3:	c7 85 e0 f7 ff ff 05 	movl   $0x5,-0x820(%rbp)
   10ffa:	00 00 00 
   10ffd:	c7 85 e4 f7 ff ff 05 	movl   $0x5,-0x81c(%rbp)
   11004:	00 00 00 
   11007:	c7 85 e8 f7 ff ff 00 	movl   $0x0,-0x818(%rbp)
   1100e:	00 00 00 
   11011:	c7 85 ec f7 ff ff 05 	movl   $0x5,-0x814(%rbp)
   11018:	00 00 00 
   1101b:	c7 85 f0 f7 ff ff 05 	movl   $0x5,-0x810(%rbp)
   11022:	00 00 00 
   11025:	c7 85 f4 f7 ff ff 00 	movl   $0x0,-0x80c(%rbp)
   1102c:	00 00 00 
   1102f:	c7 85 f8 f7 ff ff 05 	movl   $0x5,-0x808(%rbp)
   11036:	00 00 00 
   11039:	c7 85 fc f7 ff ff 05 	movl   $0x5,-0x804(%rbp)
   11040:	00 00 00 
   11043:	c7 85 00 f8 ff ff f9 	movl   $0xfffffff9,-0x800(%rbp)
   1104a:	ff ff ff 
   1104d:	c7 85 04 f8 ff ff 00 	movl   $0x0,-0x7fc(%rbp)
   11054:	00 00 00 
   11057:	c7 85 08 f8 ff ff 00 	movl   $0x0,-0x7f8(%rbp)
   1105e:	00 00 00 
   11061:	c7 85 0c f8 ff ff f9 	movl   $0xfffffff9,-0x7f4(%rbp)
   11068:	ff ff ff 
   1106b:	c7 85 10 f8 ff ff 00 	movl   $0x0,-0x7f0(%rbp)
   11072:	00 00 00 
   11075:	c7 85 14 f8 ff ff 00 	movl   $0x0,-0x7ec(%rbp)
   1107c:	00 00 00 
   1107f:	c7 85 18 f8 ff ff f9 	movl   $0xfffffff9,-0x7e8(%rbp)
   11086:	ff ff ff 
   11089:	c7 85 1c f8 ff ff 00 	movl   $0x0,-0x7e4(%rbp)
   11090:	00 00 00 
   11093:	c7 85 20 f8 ff ff 00 	movl   $0x0,-0x7e0(%rbp)
   1109a:	00 00 00 
   1109d:	c7 85 24 f8 ff ff f9 	movl   $0xfffffff9,-0x7dc(%rbp)
   110a4:	ff ff ff 
   110a7:	c7 85 28 f8 ff ff 00 	movl   $0x0,-0x7d8(%rbp)
   110ae:	00 00 00 
   110b1:	c7 85 2c f8 ff ff 00 	movl   $0x0,-0x7d4(%rbp)
   110b8:	00 00 00 
   110bb:	c7 85 30 f8 ff ff f9 	movl   $0xfffffff9,-0x7d0(%rbp)
   110c2:	ff ff ff 
   110c5:	c7 85 34 f8 ff ff 00 	movl   $0x0,-0x7cc(%rbp)
   110cc:	00 00 00 
   110cf:	c7 85 38 f8 ff ff 00 	movl   $0x0,-0x7c8(%rbp)
   110d6:	00 00 00 
   110d9:	c7 85 3c f8 ff ff f9 	movl   $0xfffffff9,-0x7c4(%rbp)
   110e0:	ff ff ff 
   110e3:	c7 85 40 f8 ff ff 00 	movl   $0x0,-0x7c0(%rbp)
   110ea:	00 00 00 
   110ed:	c7 85 44 f8 ff ff 00 	movl   $0x0,-0x7bc(%rbp)
   110f4:	00 00 00 
   110f7:	c7 85 48 f8 ff ff f9 	movl   $0xfffffff9,-0x7b8(%rbp)
   110fe:	ff ff ff 
   11101:	c7 85 4c f8 ff ff 00 	movl   $0x0,-0x7b4(%rbp)
   11108:	00 00 00 
   1110b:	c7 85 50 f8 ff ff 00 	movl   $0x0,-0x7b0(%rbp)
   11112:	00 00 00 
   11115:	c7 85 54 f8 ff ff f9 	movl   $0xfffffff9,-0x7ac(%rbp)
   1111c:	ff ff ff 
   1111f:	c7 85 58 f8 ff ff 00 	movl   $0x0,-0x7a8(%rbp)
   11126:	00 00 00 
   11129:	c7 85 5c f8 ff ff 00 	movl   $0x0,-0x7a4(%rbp)
   11130:	00 00 00 
   11133:	c7 85 60 f8 ff ff f9 	movl   $0xfffffff9,-0x7a0(%rbp)
   1113a:	ff ff ff 
   1113d:	c7 85 64 f8 ff ff 00 	movl   $0x0,-0x79c(%rbp)
   11144:	00 00 00 
   11147:	c7 85 68 f8 ff ff 00 	movl   $0x0,-0x798(%rbp)
   1114e:	00 00 00 
   11151:	c7 85 6c f8 ff ff f9 	movl   $0xfffffff9,-0x794(%rbp)
   11158:	ff ff ff 
   1115b:	c7 85 70 f8 ff ff 00 	movl   $0x0,-0x790(%rbp)
   11162:	00 00 00 
   11165:	c7 85 74 f8 ff ff 00 	movl   $0x0,-0x78c(%rbp)
   1116c:	00 00 00 
   1116f:	c7 85 78 f8 ff ff f9 	movl   $0xfffffff9,-0x788(%rbp)
   11176:	ff ff ff 
   11179:	c7 85 7c f8 ff ff 00 	movl   $0x0,-0x784(%rbp)
   11180:	00 00 00 
   11183:	48 8b 05 fe 46 01 00 	mov    0x146fe(%rip),%rax        # 25888 <g_87>
   1118a:	48 8b 10             	mov    (%rax),%rdx
   1118d:	48 8b 85 98 e8 ff ff 	mov    -0x1768(%rbp),%rax
   11194:	48 89 10             	mov    %rdx,(%rax)
   11197:	48 8b 85 98 e8 ff ff 	mov    -0x1768(%rbp),%rax
   1119e:	48 8b 10             	mov    (%rax),%rdx
   111a1:	48 8b 85 a0 e8 ff ff 	mov    -0x1760(%rbp),%rax
   111a8:	48 89 10             	mov    %rdx,(%rax)
   111ab:	80 85 30 e6 ff ff 01 	addb   $0x1,-0x19d0(%rbp)
   111b2:	48 8b 85 38 e8 ff ff 	mov    -0x17c8(%rbp),%rax
   111b9:	e9 aa 13 00 00       	jmpq   12568 <func_18+0x3b87>
   111be:	48 8d 85 e0 e9 ff ff 	lea    -0x1620(%rbp),%rax
   111c5:	48 83 c0 0e          	add    $0xe,%rax
   111c9:	48 89 85 80 e8 ff ff 	mov    %rax,-0x1780(%rbp)
   111d0:	c7 85 a4 e6 ff ff 77 	movl   $0xd9cec877,-0x195c(%rbp)
   111d7:	c8 ce d9 
   111da:	c7 85 a8 e6 ff ff 02 	movl   $0x2,-0x1958(%rbp)
   111e1:	00 00 00 
   111e4:	48 8b 85 d8 e7 ff ff 	mov    -0x1828(%rbp),%rax
   111eb:	8b 00                	mov    (%rax),%eax
   111ed:	85 c0                	test   %eax,%eax
   111ef:	0f 85 fc 02 00 00    	jne    114f1 <func_18+0x2b10>
   111f5:	8b 85 d0 f4 ff ff    	mov    -0xb30(%rbp),%eax
   111fb:	85 c0                	test   %eax,%eax
   111fd:	0f 85 ca 02 00 00    	jne    114cd <func_18+0x2aec>
   11203:	8b 85 18 e6 ff ff    	mov    -0x19e8(%rbp),%eax
   11209:	48 63 d8             	movslq %eax,%rbx
   1120c:	8b 85 18 e6 ff ff    	mov    -0x19e8(%rbp),%eax
   11212:	0f b6 d0             	movzbl %al,%edx
   11215:	48 8b 85 48 e7 ff ff 	mov    -0x18b8(%rbp),%rax
   1121c:	8b 00                	mov    (%rax),%eax
   1121e:	0f b6 c0             	movzbl %al,%eax
   11221:	89 d6                	mov    %edx,%esi
   11223:	89 c7                	mov    %eax,%edi
   11225:	e8 4e a9 ff ff       	callq  bb78 <safe_sub_func_uint8_t_u_u>
   1122a:	3c 06                	cmp    $0x6,%al
   1122c:	0f 97 c0             	seta   %al
   1122f:	44 0f b6 f0          	movzbl %al,%r14d
   11233:	8b 85 18 e6 ff ff    	mov    -0x19e8(%rbp),%eax
   11239:	44 0f b7 e0          	movzwl %ax,%r12d
   1123d:	8b 85 a4 e6 ff ff    	mov    -0x195c(%rbp),%eax
   11243:	44 0f bf e8          	movswl %ax,%r13d
   11247:	48 8b 85 38 e8 ff ff 	mov    -0x17c8(%rbp),%rax
   1124e:	8b 00                	mov    (%rax),%eax
   11250:	0f b7 c0             	movzwl %ax,%eax
   11253:	89 c6                	mov    %eax,%esi
   11255:	bf f6 ff 00 00       	mov    $0xfff6,%edi
   1125a:	e8 2f ab ff ff       	callq  bd8e <safe_div_func_uint16_t_u_u>
   1125f:	89 c2                	mov    %eax,%edx
   11261:	48 8b 85 80 e8 ff ff 	mov    -0x1780(%rbp),%rax
   11268:	0f b6 00             	movzbl (%rax),%eax
   1126b:	31 c2                	xor    %eax,%edx
   1126d:	48 8b 85 80 e8 ff ff 	mov    -0x1780(%rbp),%rax
   11274:	88 10                	mov    %dl,(%rax)
   11276:	44 89 ee             	mov    %r13d,%esi
   11279:	bf 00 00 00 00       	mov    $0x0,%edi
   1127e:	e8 72 a1 ff ff       	callq  b3f5 <safe_mul_func_int16_t_s_s>
   11283:	48 8b 05 f6 5c 01 00 	mov    0x15cf6(%rip),%rax        # 26f80 <g_1662>
   1128a:	0f b6 00             	movzbl (%rax),%eax
   1128d:	0f b6 c0             	movzbl %al,%eax
   11290:	be 9a 00 00 00       	mov    $0x9a,%esi
   11295:	89 c7                	mov    %eax,%edi
   11297:	e8 dc a8 ff ff       	callq  bb78 <safe_sub_func_uint8_t_u_u>
   1129c:	48 8b 85 48 e7 ff ff 	mov    -0x18b8(%rbp),%rax
   112a3:	8b 00                	mov    (%rax),%eax
   112a5:	0f b6 c0             	movzbl %al,%eax
   112a8:	be ff 00 00 00       	mov    $0xff,%esi
   112ad:	89 c7                	mov    %eax,%edi
   112af:	e8 27 a9 ff ff       	callq  bbdb <safe_div_func_uint8_t_u_u>
   112b4:	0f b6 c0             	movzbl %al,%eax
   112b7:	f7 d0                	not    %eax
   112b9:	0f b7 c0             	movzwl %ax,%eax
   112bc:	be 05 00 00 00       	mov    $0x5,%esi
   112c1:	89 c7                	mov    %eax,%edi
   112c3:	e8 75 aa ff ff       	callq  bd3d <safe_mul_func_uint16_t_u_u>
   112c8:	66 3d d1 00          	cmp    $0xd1,%ax
   112cc:	0f 97 c0             	seta   %al
   112cf:	0f b6 d0             	movzbl %al,%edx
   112d2:	48 8b 85 48 e7 ff ff 	mov    -0x18b8(%rbp),%rax
   112d9:	8b 00                	mov    (%rax),%eax
   112db:	39 c2                	cmp    %eax,%edx
   112dd:	0f 94 c0             	sete   %al
   112e0:	0f b6 c0             	movzbl %al,%eax
   112e3:	be 03 00 00 00       	mov    $0x3,%esi
   112e8:	89 c7                	mov    %eax,%edi
   112ea:	e8 cf a9 ff ff       	callq  bcbe <safe_rshift_func_uint8_t_u_u>
   112ef:	0f b6 c0             	movzbl %al,%eax
   112f2:	44 89 e6             	mov    %r12d,%esi
   112f5:	89 c7                	mov    %eax,%edi
   112f7:	e8 03 aa ff ff       	callq  bcff <safe_add_func_uint16_t_u_u>
   112fc:	0f b7 c0             	movzwl %ax,%eax
   112ff:	44 31 f0             	xor    %r14d,%eax
   11302:	48 98                	cltq   
   11304:	48 89 de             	mov    %rbx,%rsi
   11307:	48 89 c7             	mov    %rax,%rdi
   1130a:	e8 e8 a6 ff ff       	callq  b9f7 <safe_div_func_int64_t_s_s>
   1130f:	ba d7 6b 1f dc       	mov    $0xdc1f6bd7,%edx
   11314:	48 39 d0             	cmp    %rdx,%rax
   11317:	7e 0f                	jle    11328 <func_18+0x2947>
   11319:	48 8b 05 c8 56 01 00 	mov    0x156c8(%rip),%rax        # 269e8 <g_1151>
   11320:	48 8b 00             	mov    (%rax),%rax
   11323:	e9 40 12 00 00       	jmpq   12568 <func_18+0x3b87>
   11328:	48 8d 05 51 6b 01 00 	lea    0x16b51(%rip),%rax        # 27e80 <g_3301>
   1132f:	48 89 85 88 e8 ff ff 	mov    %rax,-0x1778(%rbp)
   11336:	48 8d 05 4b 25 01 00 	lea    0x1254b(%rip),%rax        # 23888 <g_2320>
   1133d:	48 89 85 90 e8 ff ff 	mov    %rax,-0x1770(%rbp)
   11344:	c7 85 ac e6 ff ff 00 	movl   $0x0,-0x1954(%rbp)
   1134b:	00 00 00 
   1134e:	48 8b 05 3b 25 01 00 	mov    0x1253b(%rip),%rax        # 23890 <g_2334>
   11355:	0f be d8             	movsbl %al,%ebx
   11358:	c7 05 9e 25 01 00 de 	movl   $0xc47885de,0x1259e(%rip)        # 23900 <g_3013>
   1135f:	85 78 c4 
   11362:	48 8b 05 ff 5c 01 00 	mov    0x15cff(%rip),%rax        # 27068 <g_2551>
   11369:	48 8b 00             	mov    (%rax),%rax
   1136c:	8b 00                	mov    (%rax),%eax
   1136e:	41 89 c5             	mov    %eax,%r13d
   11371:	8b 85 1c e6 ff ff    	mov    -0x19e4(%rbp),%eax
   11377:	44 0f b7 e0          	movzwl %ax,%r12d
   1137b:	8b 85 1c e6 ff ff    	mov    -0x19e4(%rbp),%eax
   11381:	48 89 c7             	mov    %rax,%rdi
   11384:	e8 8d a4 ff ff       	callq  b816 <safe_unary_minus_func_int64_t_s>
   11389:	0f be c0             	movsbl %al,%eax
   1138c:	89 c7                	mov    %eax,%edi
   1138e:	e8 2c 9e ff ff       	callq  b1bf <safe_unary_minus_func_int8_t_s>
   11393:	48 8b 05 d6 5b 01 00 	mov    0x15bd6(%rip),%rax        # 26f70 <g_1374>
   1139a:	48 8b 00             	mov    (%rax),%rax
   1139d:	48 85 c0             	test   %rax,%rax
   113a0:	0f 94 c0             	sete   %al
   113a3:	0f b6 c0             	movzbl %al,%eax
   113a6:	31 85 a4 e6 ff ff    	xor    %eax,-0x195c(%rbp)
   113ac:	8b 85 a4 e6 ff ff    	mov    -0x195c(%rbp),%eax
   113b2:	0f b7 c0             	movzwl %ax,%eax
   113b5:	44 89 e6             	mov    %r12d,%esi
   113b8:	89 c7                	mov    %eax,%edi
   113ba:	e8 cf a9 ff ff       	callq  bd8e <safe_div_func_uint16_t_u_u>
   113bf:	89 c2                	mov    %eax,%edx
   113c1:	48 8b 85 90 e8 ff ff 	mov    -0x1770(%rbp),%rax
   113c8:	0f b6 00             	movzbl (%rax),%eax
   113cb:	8d 70 01             	lea    0x1(%rax),%esi
   113ce:	48 8b 8d 90 e8 ff ff 	mov    -0x1770(%rbp),%rcx
   113d5:	40 88 31             	mov    %sil,(%rcx)
   113d8:	0f b6 c0             	movzbl %al,%eax
   113db:	66 39 c2             	cmp    %ax,%dx
   113de:	8b 85 18 e6 ff ff    	mov    -0x19e8(%rbp),%eax
   113e4:	0f bf d0             	movswl %ax,%edx
   113e7:	8b 85 ac e6 ff ff    	mov    -0x1954(%rbp),%eax
   113ed:	98                   	cwtl   
   113ee:	89 d6                	mov    %edx,%esi
   113f0:	89 c7                	mov    %eax,%edi
   113f2:	e8 5e a0 ff ff       	callq  b455 <safe_div_func_int16_t_s_s>
   113f7:	66 85 c0             	test   %ax,%ax
   113fa:	75 18                	jne    11414 <func_18+0x2a33>
   113fc:	48 8b 05 7d 5b 01 00 	mov    0x15b7d(%rip),%rax        # 26f80 <g_1662>
   11403:	0f b6 00             	movzbl (%rax),%eax
   11406:	84 c0                	test   %al,%al
   11408:	75 0a                	jne    11414 <func_18+0x2a33>
   1140a:	48 83 bd 78 e8 ff ff 	cmpq   $0x0,-0x1788(%rbp)
   11411:	00 
   11412:	74 07                	je     1141b <func_18+0x2a3a>
   11414:	b8 01 00 00 00       	mov    $0x1,%eax
   11419:	eb 05                	jmp    11420 <func_18+0x2a3f>
   1141b:	b8 00 00 00 00       	mov    $0x0,%eax
   11420:	0f b7 c0             	movzwl %ax,%eax
   11423:	8b 95 a8 e6 ff ff    	mov    -0x1958(%rbp),%edx
   11429:	89 d6                	mov    %edx,%esi
   1142b:	89 c7                	mov    %eax,%edi
   1142d:	e8 16 aa ff ff       	callq  be48 <safe_rshift_func_uint16_t_u_s>
   11432:	48 8b 05 0f 5e 01 00 	mov    0x15e0f(%rip),%rax        # 27248 <g_3300+0xa8>
   11439:	48 89 85 88 e8 ff ff 	mov    %rax,-0x1778(%rbp)
   11440:	48 8d 05 39 6a 01 00 	lea    0x16a39(%rip),%rax        # 27e80 <g_3301>
   11447:	48 89 85 68 e8 ff ff 	mov    %rax,-0x1798(%rbp)
   1144e:	8b 85 18 e6 ff ff    	mov    -0x19e8(%rbp),%eax
   11454:	85 c0                	test   %eax,%eax
   11456:	75 07                	jne    1145f <func_18+0x2a7e>
   11458:	83 bd 1c e6 ff ff 00 	cmpl   $0x0,-0x19e4(%rbp)
   1145f:	8b 85 18 e6 ff ff    	mov    -0x19e8(%rbp),%eax
   11465:	44 89 ee             	mov    %r13d,%esi
   11468:	89 c7                	mov    %eax,%edi
   1146a:	e8 47 a1 ff ff       	callq  b5b6 <safe_add_func_int32_t_s_s>
   1146f:	39 85 1c e6 ff ff    	cmp    %eax,-0x19e4(%rbp)
   11475:	0f 96 c0             	setbe  %al
   11478:	0f b6 c0             	movzbl %al,%eax
   1147b:	89 c7                	mov    %eax,%edi
   1147d:	e8 24 aa ff ff       	callq  bea6 <safe_unary_minus_func_uint32_t_u>
   11482:	0f be c0             	movsbl %al,%eax
   11485:	8b 95 ac e6 ff ff    	mov    -0x1954(%rbp),%edx
   1148b:	89 d6                	mov    %edx,%esi
   1148d:	89 c7                	mov    %eax,%edi
   1148f:	e8 0d 9e ff ff       	callq  b2a1 <safe_lshift_func_int8_t_s_s>
   11494:	0f be c0             	movsbl %al,%eax
   11497:	39 85 1c e6 ff ff    	cmp    %eax,-0x19e4(%rbp)
   1149d:	0f 95 c0             	setne  %al
   114a0:	0f b6 c0             	movzbl %al,%eax
   114a3:	89 de                	mov    %ebx,%esi
   114a5:	89 c7                	mov    %eax,%edi
   114a7:	e8 be 9d ff ff       	callq  b26a <safe_div_func_int8_t_s_s>
   114ac:	89 c2                	mov    %eax,%edx
   114ae:	48 8b 85 48 e7 ff ff 	mov    -0x18b8(%rbp),%rax
   114b5:	0f be d2             	movsbl %dl,%edx
   114b8:	89 10                	mov    %edx,(%rax)
   114ba:	48 8b 05 c7 5a 01 00 	mov    0x15ac7(%rip),%rax        # 26f88 <g_1739>
   114c1:	48 c7 00 00 00 00 00 	movq   $0x0,(%rax)
   114c8:	eb 04                	jmp    114ce <func_18+0x2aed>
   114ca:	90                   	nop
   114cb:	eb 01                	jmp    114ce <func_18+0x2aed>
   114cd:	90                   	nop
   114ce:	8b 05 80 1f 01 00    	mov    0x11f80(%rip),%eax        # 23454 <g_340>
   114d4:	83 e8 01             	sub    $0x1,%eax
   114d7:	89 05 77 1f 01 00    	mov    %eax,0x11f77(%rip)        # 23454 <g_340>
   114dd:	8b 05 71 1f 01 00    	mov    0x11f71(%rip),%eax        # 23454 <g_340>
   114e3:	83 f8 fe             	cmp    $0xfffffffe,%eax
   114e6:	0f 84 d7 e2 ff ff    	je     f7c3 <func_18+0xde2>
   114ec:	eb 04                	jmp    114f2 <func_18+0x2b11>
   114ee:	90                   	nop
   114ef:	eb 01                	jmp    114f2 <func_18+0x2b11>
   114f1:	90                   	nop
   114f2:	c7 05 28 1b 01 00 f1 	movl   $0xfffffff1,0x11b28(%rip)        # 23024 <g_3>
   114f9:	ff ff ff 
   114fc:	e9 65 0b 00 00       	jmpq   12066 <func_18+0x3685>
   11501:	c7 85 20 ec ff ff 82 	movl   $0x1e55ca82,-0x13e0(%rbp)
   11508:	ca 55 1e 
   1150b:	c7 85 24 ec ff ff 82 	movl   $0x1e55ca82,-0x13dc(%rbp)
   11512:	ca 55 1e 
   11515:	c7 85 28 ec ff ff 82 	movl   $0x1e55ca82,-0x13d8(%rbp)
   1151c:	ca 55 1e 
   1151f:	c7 85 2c ec ff ff 82 	movl   $0x1e55ca82,-0x13d4(%rbp)
   11526:	ca 55 1e 
   11529:	c7 85 30 ec ff ff 82 	movl   $0x1e55ca82,-0x13d0(%rbp)
   11530:	ca 55 1e 
   11533:	c7 85 34 ec ff ff 82 	movl   $0x1e55ca82,-0x13cc(%rbp)
   1153a:	ca 55 1e 
   1153d:	c7 85 38 ec ff ff 82 	movl   $0x1e55ca82,-0x13c8(%rbp)
   11544:	ca 55 1e 
   11547:	c7 85 3c ec ff ff 82 	movl   $0x1e55ca82,-0x13c4(%rbp)
   1154e:	ca 55 1e 
   11551:	c7 85 40 ec ff ff 82 	movl   $0x1e55ca82,-0x13c0(%rbp)
   11558:	ca 55 1e 
   1155b:	c7 85 44 ec ff ff 82 	movl   $0x1e55ca82,-0x13bc(%rbp)
   11562:	ca 55 1e 
   11565:	c7 85 48 ec ff ff 82 	movl   $0x1e55ca82,-0x13b8(%rbp)
   1156c:	ca 55 1e 
   1156f:	c7 85 4c ec ff ff 82 	movl   $0x1e55ca82,-0x13b4(%rbp)
   11576:	ca 55 1e 
   11579:	48 8d 85 48 e6 ff ff 	lea    -0x19b8(%rbp),%rax
   11580:	48 89 85 28 e9 ff ff 	mov    %rax,-0x16d8(%rbp)
   11587:	48 8d 85 80 f4 ff ff 	lea    -0xb80(%rbp),%rax
   1158e:	48 83 c0 50          	add    $0x50,%rax
   11592:	48 89 85 30 e9 ff ff 	mov    %rax,-0x16d0(%rbp)
   11599:	48 8d 85 28 e7 ff ff 	lea    -0x18d8(%rbp),%rax
   115a0:	48 89 85 48 e7 ff ff 	mov    %rax,-0x18b8(%rbp)
   115a7:	48 8d 85 48 e7 ff ff 	lea    -0x18b8(%rbp),%rax
   115ae:	48 89 85 50 e7 ff ff 	mov    %rax,-0x18b0(%rbp)
   115b5:	48 8d 85 50 e7 ff ff 	lea    -0x18b0(%rbp),%rax
   115bc:	48 89 85 58 e7 ff ff 	mov    %rax,-0x18a8(%rbp)
   115c3:	48 8d 85 58 e7 ff ff 	lea    -0x18a8(%rbp),%rax
   115ca:	48 89 85 e0 f7 ff ff 	mov    %rax,-0x820(%rbp)
   115d1:	48 c7 85 e8 f7 ff ff 	movq   $0x0,-0x818(%rbp)
   115d8:	00 00 00 00 
   115dc:	48 8d 85 58 e7 ff ff 	lea    -0x18a8(%rbp),%rax
   115e3:	48 89 85 f0 f7 ff ff 	mov    %rax,-0x810(%rbp)
   115ea:	48 8d 85 58 e7 ff ff 	lea    -0x18a8(%rbp),%rax
   115f1:	48 89 85 f8 f7 ff ff 	mov    %rax,-0x808(%rbp)
   115f8:	48 8d 85 58 e7 ff ff 	lea    -0x18a8(%rbp),%rax
   115ff:	48 89 85 00 f8 ff ff 	mov    %rax,-0x800(%rbp)
   11606:	48 8d 85 58 e7 ff ff 	lea    -0x18a8(%rbp),%rax
   1160d:	48 89 85 08 f8 ff ff 	mov    %rax,-0x7f8(%rbp)
   11614:	48 8d 85 58 e7 ff ff 	lea    -0x18a8(%rbp),%rax
   1161b:	48 89 85 10 f8 ff ff 	mov    %rax,-0x7f0(%rbp)
   11622:	48 c7 85 18 f8 ff ff 	movq   $0x0,-0x7e8(%rbp)
   11629:	00 00 00 00 
   1162d:	48 c7 85 20 f8 ff ff 	movq   $0x0,-0x7e0(%rbp)
   11634:	00 00 00 00 
   11638:	48 8d 85 58 e7 ff ff 	lea    -0x18a8(%rbp),%rax
   1163f:	48 89 85 28 f8 ff ff 	mov    %rax,-0x7d8(%rbp)
   11646:	48 8d 85 58 e7 ff ff 	lea    -0x18a8(%rbp),%rax
   1164d:	48 89 85 30 f8 ff ff 	mov    %rax,-0x7d0(%rbp)
   11654:	48 8d 85 58 e7 ff ff 	lea    -0x18a8(%rbp),%rax
   1165b:	48 89 85 38 f8 ff ff 	mov    %rax,-0x7c8(%rbp)
   11662:	48 8d 85 58 e7 ff ff 	lea    -0x18a8(%rbp),%rax
   11669:	48 89 85 40 f8 ff ff 	mov    %rax,-0x7c0(%rbp)
   11670:	48 c7 85 48 f8 ff ff 	movq   $0x0,-0x7b8(%rbp)
   11677:	00 00 00 00 
   1167b:	48 8d 85 58 e7 ff ff 	lea    -0x18a8(%rbp),%rax
   11682:	48 89 85 50 f8 ff ff 	mov    %rax,-0x7b0(%rbp)
   11689:	48 8d 85 58 e7 ff ff 	lea    -0x18a8(%rbp),%rax
   11690:	48 89 85 58 f8 ff ff 	mov    %rax,-0x7a8(%rbp)
   11697:	48 8d 85 58 e7 ff ff 	lea    -0x18a8(%rbp),%rax
   1169e:	48 89 85 60 f8 ff ff 	mov    %rax,-0x7a0(%rbp)
   116a5:	48 8d 85 58 e7 ff ff 	lea    -0x18a8(%rbp),%rax
   116ac:	48 89 85 68 f8 ff ff 	mov    %rax,-0x798(%rbp)
   116b3:	48 8d 85 58 e7 ff ff 	lea    -0x18a8(%rbp),%rax
   116ba:	48 89 85 70 f8 ff ff 	mov    %rax,-0x790(%rbp)
   116c1:	48 c7 85 78 f8 ff ff 	movq   $0x0,-0x788(%rbp)
   116c8:	00 00 00 00 
   116cc:	48 8d 85 58 e7 ff ff 	lea    -0x18a8(%rbp),%rax
   116d3:	48 89 85 80 f8 ff ff 	mov    %rax,-0x780(%rbp)
   116da:	48 8d 85 58 e7 ff ff 	lea    -0x18a8(%rbp),%rax
   116e1:	48 89 85 88 f8 ff ff 	mov    %rax,-0x778(%rbp)
   116e8:	48 8d 85 58 e7 ff ff 	lea    -0x18a8(%rbp),%rax
   116ef:	48 89 85 90 f8 ff ff 	mov    %rax,-0x770(%rbp)
   116f6:	48 8d 85 58 e7 ff ff 	lea    -0x18a8(%rbp),%rax
   116fd:	48 89 85 98 f8 ff ff 	mov    %rax,-0x768(%rbp)
   11704:	48 8d 85 58 e7 ff ff 	lea    -0x18a8(%rbp),%rax
   1170b:	48 89 85 a0 f8 ff ff 	mov    %rax,-0x760(%rbp)
   11712:	48 8d 85 58 e7 ff ff 	lea    -0x18a8(%rbp),%rax
   11719:	48 89 85 a8 f8 ff ff 	mov    %rax,-0x758(%rbp)
   11720:	48 c7 85 b0 f8 ff ff 	movq   $0x0,-0x750(%rbp)
   11727:	00 00 00 00 
   1172b:	48 8d 85 58 e7 ff ff 	lea    -0x18a8(%rbp),%rax
   11732:	48 89 85 b8 f8 ff ff 	mov    %rax,-0x748(%rbp)
   11739:	48 8d 85 58 e7 ff ff 	lea    -0x18a8(%rbp),%rax
   11740:	48 89 85 c0 f8 ff ff 	mov    %rax,-0x740(%rbp)
   11747:	48 8d 85 58 e7 ff ff 	lea    -0x18a8(%rbp),%rax
   1174e:	48 89 85 c8 f8 ff ff 	mov    %rax,-0x738(%rbp)
   11755:	48 8d 85 58 e7 ff ff 	lea    -0x18a8(%rbp),%rax
   1175c:	48 89 85 d0 f8 ff ff 	mov    %rax,-0x730(%rbp)
   11763:	48 8d 85 58 e7 ff ff 	lea    -0x18a8(%rbp),%rax
   1176a:	48 89 85 d8 f8 ff ff 	mov    %rax,-0x728(%rbp)
   11771:	48 8d 85 58 e7 ff ff 	lea    -0x18a8(%rbp),%rax
   11778:	48 89 85 e0 f8 ff ff 	mov    %rax,-0x720(%rbp)
   1177f:	48 8d 85 58 e7 ff ff 	lea    -0x18a8(%rbp),%rax
   11786:	48 89 85 e8 f8 ff ff 	mov    %rax,-0x718(%rbp)
   1178d:	48 8d 85 58 e7 ff ff 	lea    -0x18a8(%rbp),%rax
   11794:	48 89 85 f0 f8 ff ff 	mov    %rax,-0x710(%rbp)
   1179b:	48 8d 85 58 e7 ff ff 	lea    -0x18a8(%rbp),%rax
   117a2:	48 89 85 f8 f8 ff ff 	mov    %rax,-0x708(%rbp)
   117a9:	48 8d 85 58 e7 ff ff 	lea    -0x18a8(%rbp),%rax
   117b0:	48 89 85 00 f9 ff ff 	mov    %rax,-0x700(%rbp)
   117b7:	48 8d 85 58 e7 ff ff 	lea    -0x18a8(%rbp),%rax
   117be:	48 89 85 08 f9 ff ff 	mov    %rax,-0x6f8(%rbp)
   117c5:	48 8d 85 58 e7 ff ff 	lea    -0x18a8(%rbp),%rax
   117cc:	48 89 85 10 f9 ff ff 	mov    %rax,-0x6f0(%rbp)
   117d3:	48 8d 85 58 e7 ff ff 	lea    -0x18a8(%rbp),%rax
   117da:	48 89 85 18 f9 ff ff 	mov    %rax,-0x6e8(%rbp)
   117e1:	48 8d 85 58 e7 ff ff 	lea    -0x18a8(%rbp),%rax
   117e8:	48 89 85 20 f9 ff ff 	mov    %rax,-0x6e0(%rbp)
   117ef:	48 8d 85 58 e7 ff ff 	lea    -0x18a8(%rbp),%rax
   117f6:	48 89 85 28 f9 ff ff 	mov    %rax,-0x6d8(%rbp)
   117fd:	48 8d 85 58 e7 ff ff 	lea    -0x18a8(%rbp),%rax
   11804:	48 89 85 30 f9 ff ff 	mov    %rax,-0x6d0(%rbp)
   1180b:	48 c7 85 38 f9 ff ff 	movq   $0x0,-0x6c8(%rbp)
   11812:	00 00 00 00 
   11816:	48 8d 85 58 e7 ff ff 	lea    -0x18a8(%rbp),%rax
   1181d:	48 89 85 40 f9 ff ff 	mov    %rax,-0x6c0(%rbp)
   11824:	48 8d 85 58 e7 ff ff 	lea    -0x18a8(%rbp),%rax
   1182b:	48 89 85 48 f9 ff ff 	mov    %rax,-0x6b8(%rbp)
   11832:	48 8d 85 58 e7 ff ff 	lea    -0x18a8(%rbp),%rax
   11839:	48 89 85 50 f9 ff ff 	mov    %rax,-0x6b0(%rbp)
   11840:	48 8d 85 58 e7 ff ff 	lea    -0x18a8(%rbp),%rax
   11847:	48 89 85 58 f9 ff ff 	mov    %rax,-0x6a8(%rbp)
   1184e:	48 8d 85 58 e7 ff ff 	lea    -0x18a8(%rbp),%rax
   11855:	48 89 85 60 f9 ff ff 	mov    %rax,-0x6a0(%rbp)
   1185c:	48 c7 85 68 f9 ff ff 	movq   $0x0,-0x698(%rbp)
   11863:	00 00 00 00 
   11867:	48 c7 85 70 f9 ff ff 	movq   $0x0,-0x690(%rbp)
   1186e:	00 00 00 00 
   11872:	48 8d 85 58 e7 ff ff 	lea    -0x18a8(%rbp),%rax
   11879:	48 89 85 78 f9 ff ff 	mov    %rax,-0x688(%rbp)
   11880:	48 8d 85 58 e7 ff ff 	lea    -0x18a8(%rbp),%rax
   11887:	48 89 85 80 f9 ff ff 	mov    %rax,-0x680(%rbp)
   1188e:	48 8d 85 58 e7 ff ff 	lea    -0x18a8(%rbp),%rax
   11895:	48 89 85 88 f9 ff ff 	mov    %rax,-0x678(%rbp)
   1189c:	48 8d 85 58 e7 ff ff 	lea    -0x18a8(%rbp),%rax
   118a3:	48 89 85 90 f9 ff ff 	mov    %rax,-0x670(%rbp)
   118aa:	48 c7 85 98 f9 ff ff 	movq   $0x0,-0x668(%rbp)
   118b1:	00 00 00 00 
   118b5:	48 8d 85 58 e7 ff ff 	lea    -0x18a8(%rbp),%rax
   118bc:	48 89 85 a0 f9 ff ff 	mov    %rax,-0x660(%rbp)
   118c3:	48 8d 85 58 e7 ff ff 	lea    -0x18a8(%rbp),%rax
   118ca:	48 89 85 a8 f9 ff ff 	mov    %rax,-0x658(%rbp)
   118d1:	48 8d 85 58 e7 ff ff 	lea    -0x18a8(%rbp),%rax
   118d8:	48 89 85 b0 f9 ff ff 	mov    %rax,-0x650(%rbp)
   118df:	48 8d 85 58 e7 ff ff 	lea    -0x18a8(%rbp),%rax
   118e6:	48 89 85 b8 f9 ff ff 	mov    %rax,-0x648(%rbp)
   118ed:	48 8d 85 58 e7 ff ff 	lea    -0x18a8(%rbp),%rax
   118f4:	48 89 85 c0 f9 ff ff 	mov    %rax,-0x640(%rbp)
   118fb:	48 c7 85 c8 f9 ff ff 	movq   $0x0,-0x638(%rbp)
   11902:	00 00 00 00 
   11906:	48 8d 85 58 e7 ff ff 	lea    -0x18a8(%rbp),%rax
   1190d:	48 89 85 d0 f9 ff ff 	mov    %rax,-0x630(%rbp)
   11914:	48 8d 85 58 e7 ff ff 	lea    -0x18a8(%rbp),%rax
   1191b:	48 89 85 d8 f9 ff ff 	mov    %rax,-0x628(%rbp)
   11922:	48 8d 85 58 e7 ff ff 	lea    -0x18a8(%rbp),%rax
   11929:	48 89 85 e0 f9 ff ff 	mov    %rax,-0x620(%rbp)
   11930:	48 8d 85 58 e7 ff ff 	lea    -0x18a8(%rbp),%rax
   11937:	48 89 85 e8 f9 ff ff 	mov    %rax,-0x618(%rbp)
   1193e:	48 8d 85 58 e7 ff ff 	lea    -0x18a8(%rbp),%rax
   11945:	48 89 85 f0 f9 ff ff 	mov    %rax,-0x610(%rbp)
   1194c:	48 8d 85 58 e7 ff ff 	lea    -0x18a8(%rbp),%rax
   11953:	48 89 85 f8 f9 ff ff 	mov    %rax,-0x608(%rbp)
   1195a:	48 c7 85 00 fa ff ff 	movq   $0x0,-0x600(%rbp)
   11961:	00 00 00 00 
   11965:	48 8d 85 58 e7 ff ff 	lea    -0x18a8(%rbp),%rax
   1196c:	48 89 85 08 fa ff ff 	mov    %rax,-0x5f8(%rbp)
   11973:	48 8d 85 58 e7 ff ff 	lea    -0x18a8(%rbp),%rax
   1197a:	48 89 85 10 fa ff ff 	mov    %rax,-0x5f0(%rbp)
   11981:	48 8d 85 58 e7 ff ff 	lea    -0x18a8(%rbp),%rax
   11988:	48 89 85 18 fa ff ff 	mov    %rax,-0x5e8(%rbp)
   1198f:	48 8d 85 58 e7 ff ff 	lea    -0x18a8(%rbp),%rax
   11996:	48 89 85 20 fa ff ff 	mov    %rax,-0x5e0(%rbp)
   1199d:	48 8d 85 58 e7 ff ff 	lea    -0x18a8(%rbp),%rax
   119a4:	48 89 85 28 fa ff ff 	mov    %rax,-0x5d8(%rbp)
   119ab:	48 8d 85 58 e7 ff ff 	lea    -0x18a8(%rbp),%rax
   119b2:	48 89 85 30 fa ff ff 	mov    %rax,-0x5d0(%rbp)
   119b9:	48 8d 85 58 e7 ff ff 	lea    -0x18a8(%rbp),%rax
   119c0:	48 89 85 38 fa ff ff 	mov    %rax,-0x5c8(%rbp)
   119c7:	48 8d 85 58 e7 ff ff 	lea    -0x18a8(%rbp),%rax
   119ce:	48 89 85 40 fa ff ff 	mov    %rax,-0x5c0(%rbp)
   119d5:	48 8d 85 58 e7 ff ff 	lea    -0x18a8(%rbp),%rax
   119dc:	48 89 85 48 fa ff ff 	mov    %rax,-0x5b8(%rbp)
   119e3:	48 8d 85 58 e7 ff ff 	lea    -0x18a8(%rbp),%rax
   119ea:	48 89 85 50 fa ff ff 	mov    %rax,-0x5b0(%rbp)
   119f1:	48 8d 85 58 e7 ff ff 	lea    -0x18a8(%rbp),%rax
   119f8:	48 89 85 58 fa ff ff 	mov    %rax,-0x5a8(%rbp)
   119ff:	48 8d 85 58 e7 ff ff 	lea    -0x18a8(%rbp),%rax
   11a06:	48 89 85 60 fa ff ff 	mov    %rax,-0x5a0(%rbp)
   11a0d:	48 8d 85 58 e7 ff ff 	lea    -0x18a8(%rbp),%rax
   11a14:	48 89 85 68 fa ff ff 	mov    %rax,-0x598(%rbp)
   11a1b:	48 8d 85 58 e7 ff ff 	lea    -0x18a8(%rbp),%rax
   11a22:	48 89 85 70 fa ff ff 	mov    %rax,-0x590(%rbp)
   11a29:	48 8d 85 58 e7 ff ff 	lea    -0x18a8(%rbp),%rax
   11a30:	48 89 85 78 fa ff ff 	mov    %rax,-0x588(%rbp)
   11a37:	48 8d 85 58 e7 ff ff 	lea    -0x18a8(%rbp),%rax
   11a3e:	48 89 85 80 fa ff ff 	mov    %rax,-0x580(%rbp)
   11a45:	48 c7 85 88 fa ff ff 	movq   $0x0,-0x578(%rbp)
   11a4c:	00 00 00 00 
   11a50:	48 8d 85 58 e7 ff ff 	lea    -0x18a8(%rbp),%rax
   11a57:	48 89 85 90 fa ff ff 	mov    %rax,-0x570(%rbp)
   11a5e:	48 8d 85 58 e7 ff ff 	lea    -0x18a8(%rbp),%rax
   11a65:	48 89 85 98 fa ff ff 	mov    %rax,-0x568(%rbp)
   11a6c:	48 8d 85 58 e7 ff ff 	lea    -0x18a8(%rbp),%rax
   11a73:	48 89 85 a0 fa ff ff 	mov    %rax,-0x560(%rbp)
   11a7a:	48 8d 85 58 e7 ff ff 	lea    -0x18a8(%rbp),%rax
   11a81:	48 89 85 a8 fa ff ff 	mov    %rax,-0x558(%rbp)
   11a88:	48 8d 85 58 e7 ff ff 	lea    -0x18a8(%rbp),%rax
   11a8f:	48 89 85 b0 fa ff ff 	mov    %rax,-0x550(%rbp)
   11a96:	48 c7 85 b8 fa ff ff 	movq   $0x0,-0x548(%rbp)
   11a9d:	00 00 00 00 
   11aa1:	48 c7 85 c0 fa ff ff 	movq   $0x0,-0x540(%rbp)
   11aa8:	00 00 00 00 
   11aac:	48 8d 85 58 e7 ff ff 	lea    -0x18a8(%rbp),%rax
   11ab3:	48 89 85 c8 fa ff ff 	mov    %rax,-0x538(%rbp)
   11aba:	48 8d 85 58 e7 ff ff 	lea    -0x18a8(%rbp),%rax
   11ac1:	48 89 85 d0 fa ff ff 	mov    %rax,-0x530(%rbp)
   11ac8:	48 8d 85 58 e7 ff ff 	lea    -0x18a8(%rbp),%rax
   11acf:	48 89 85 d8 fa ff ff 	mov    %rax,-0x528(%rbp)
   11ad6:	48 8d 85 58 e7 ff ff 	lea    -0x18a8(%rbp),%rax
   11add:	48 89 85 e0 fa ff ff 	mov    %rax,-0x520(%rbp)
   11ae4:	48 c7 85 e8 fa ff ff 	movq   $0x0,-0x518(%rbp)
   11aeb:	00 00 00 00 
   11aef:	48 8d 85 58 e7 ff ff 	lea    -0x18a8(%rbp),%rax
   11af6:	48 89 85 f0 fa ff ff 	mov    %rax,-0x510(%rbp)
   11afd:	48 8d 85 58 e7 ff ff 	lea    -0x18a8(%rbp),%rax
   11b04:	48 89 85 f8 fa ff ff 	mov    %rax,-0x508(%rbp)
   11b0b:	48 8d 85 58 e7 ff ff 	lea    -0x18a8(%rbp),%rax
   11b12:	48 89 85 00 fb ff ff 	mov    %rax,-0x500(%rbp)
   11b19:	48 8d 85 58 e7 ff ff 	lea    -0x18a8(%rbp),%rax
   11b20:	48 89 85 08 fb ff ff 	mov    %rax,-0x4f8(%rbp)
   11b27:	48 8d 85 58 e7 ff ff 	lea    -0x18a8(%rbp),%rax
   11b2e:	48 89 85 10 fb ff ff 	mov    %rax,-0x4f0(%rbp)
   11b35:	48 c7 85 18 fb ff ff 	movq   $0x0,-0x4e8(%rbp)
   11b3c:	00 00 00 00 
   11b40:	48 8d 85 58 e7 ff ff 	lea    -0x18a8(%rbp),%rax
   11b47:	48 89 85 20 fb ff ff 	mov    %rax,-0x4e0(%rbp)
   11b4e:	48 8d 85 58 e7 ff ff 	lea    -0x18a8(%rbp),%rax
   11b55:	48 89 85 28 fb ff ff 	mov    %rax,-0x4d8(%rbp)
   11b5c:	48 8d 85 58 e7 ff ff 	lea    -0x18a8(%rbp),%rax
   11b63:	48 89 85 30 fb ff ff 	mov    %rax,-0x4d0(%rbp)
   11b6a:	48 8d 85 58 e7 ff ff 	lea    -0x18a8(%rbp),%rax
   11b71:	48 89 85 38 fb ff ff 	mov    %rax,-0x4c8(%rbp)
   11b78:	48 8d 85 58 e7 ff ff 	lea    -0x18a8(%rbp),%rax
   11b7f:	48 89 85 40 fb ff ff 	mov    %rax,-0x4c0(%rbp)
   11b86:	48 8d 85 58 e7 ff ff 	lea    -0x18a8(%rbp),%rax
   11b8d:	48 89 85 48 fb ff ff 	mov    %rax,-0x4b8(%rbp)
   11b94:	48 c7 85 50 fb ff ff 	movq   $0x0,-0x4b0(%rbp)
   11b9b:	00 00 00 00 
   11b9f:	48 8d 85 58 e7 ff ff 	lea    -0x18a8(%rbp),%rax
   11ba6:	48 89 85 58 fb ff ff 	mov    %rax,-0x4a8(%rbp)
   11bad:	48 8d 85 58 e7 ff ff 	lea    -0x18a8(%rbp),%rax
   11bb4:	48 89 85 60 fb ff ff 	mov    %rax,-0x4a0(%rbp)
   11bbb:	48 8d 85 58 e7 ff ff 	lea    -0x18a8(%rbp),%rax
   11bc2:	48 89 85 68 fb ff ff 	mov    %rax,-0x498(%rbp)
   11bc9:	48 8d 85 58 e7 ff ff 	lea    -0x18a8(%rbp),%rax
   11bd0:	48 89 85 70 fb ff ff 	mov    %rax,-0x490(%rbp)
   11bd7:	48 8d 85 58 e7 ff ff 	lea    -0x18a8(%rbp),%rax
   11bde:	48 89 85 78 fb ff ff 	mov    %rax,-0x488(%rbp)
   11be5:	48 8d 85 58 e7 ff ff 	lea    -0x18a8(%rbp),%rax
   11bec:	48 89 85 80 fb ff ff 	mov    %rax,-0x480(%rbp)
   11bf3:	48 8d 85 58 e7 ff ff 	lea    -0x18a8(%rbp),%rax
   11bfa:	48 89 85 88 fb ff ff 	mov    %rax,-0x478(%rbp)
   11c01:	48 8d 85 58 e7 ff ff 	lea    -0x18a8(%rbp),%rax
   11c08:	48 89 85 90 fb ff ff 	mov    %rax,-0x470(%rbp)
   11c0f:	48 8d 85 58 e7 ff ff 	lea    -0x18a8(%rbp),%rax
   11c16:	48 89 85 98 fb ff ff 	mov    %rax,-0x468(%rbp)
   11c1d:	48 8d 85 58 e7 ff ff 	lea    -0x18a8(%rbp),%rax
   11c24:	48 89 85 a0 fb ff ff 	mov    %rax,-0x460(%rbp)
   11c2b:	48 8d 85 58 e7 ff ff 	lea    -0x18a8(%rbp),%rax
   11c32:	48 89 85 a8 fb ff ff 	mov    %rax,-0x458(%rbp)
   11c39:	48 8d 85 58 e7 ff ff 	lea    -0x18a8(%rbp),%rax
   11c40:	48 89 85 b0 fb ff ff 	mov    %rax,-0x450(%rbp)
   11c47:	48 8d 85 58 e7 ff ff 	lea    -0x18a8(%rbp),%rax
   11c4e:	48 89 85 b8 fb ff ff 	mov    %rax,-0x448(%rbp)
   11c55:	48 8d 85 58 e7 ff ff 	lea    -0x18a8(%rbp),%rax
   11c5c:	48 89 85 c0 fb ff ff 	mov    %rax,-0x440(%rbp)
   11c63:	48 8d 85 58 e7 ff ff 	lea    -0x18a8(%rbp),%rax
   11c6a:	48 89 85 c8 fb ff ff 	mov    %rax,-0x438(%rbp)
   11c71:	48 8d 85 58 e7 ff ff 	lea    -0x18a8(%rbp),%rax
   11c78:	48 89 85 d0 fb ff ff 	mov    %rax,-0x430(%rbp)
   11c7f:	48 c7 85 d8 fb ff ff 	movq   $0x0,-0x428(%rbp)
   11c86:	00 00 00 00 
   11c8a:	48 8d 85 58 e7 ff ff 	lea    -0x18a8(%rbp),%rax
   11c91:	48 89 85 e0 fb ff ff 	mov    %rax,-0x420(%rbp)
   11c98:	48 8d 85 58 e7 ff ff 	lea    -0x18a8(%rbp),%rax
   11c9f:	48 89 85 e8 fb ff ff 	mov    %rax,-0x418(%rbp)
   11ca6:	48 8d 85 58 e7 ff ff 	lea    -0x18a8(%rbp),%rax
   11cad:	48 89 85 f0 fb ff ff 	mov    %rax,-0x410(%rbp)
   11cb4:	48 8d 85 58 e7 ff ff 	lea    -0x18a8(%rbp),%rax
   11cbb:	48 89 85 f8 fb ff ff 	mov    %rax,-0x408(%rbp)
   11cc2:	48 8d 85 58 e7 ff ff 	lea    -0x18a8(%rbp),%rax
   11cc9:	48 89 85 00 fc ff ff 	mov    %rax,-0x400(%rbp)
   11cd0:	48 c7 85 08 fc ff ff 	movq   $0x0,-0x3f8(%rbp)
   11cd7:	00 00 00 00 
   11cdb:	48 c7 85 10 fc ff ff 	movq   $0x0,-0x3f0(%rbp)
   11ce2:	00 00 00 00 
   11ce6:	48 8d 85 58 e7 ff ff 	lea    -0x18a8(%rbp),%rax
   11ced:	48 89 85 18 fc ff ff 	mov    %rax,-0x3e8(%rbp)
   11cf4:	48 8d 85 58 e7 ff ff 	lea    -0x18a8(%rbp),%rax
   11cfb:	48 89 85 20 fc ff ff 	mov    %rax,-0x3e0(%rbp)
   11d02:	48 8d 85 58 e7 ff ff 	lea    -0x18a8(%rbp),%rax
   11d09:	48 89 85 28 fc ff ff 	mov    %rax,-0x3d8(%rbp)
   11d10:	48 8d 85 58 e7 ff ff 	lea    -0x18a8(%rbp),%rax
   11d17:	48 89 85 30 fc ff ff 	mov    %rax,-0x3d0(%rbp)
   11d1e:	48 c7 85 38 fc ff ff 	movq   $0x0,-0x3c8(%rbp)
   11d25:	00 00 00 00 
   11d29:	48 8d 85 58 e7 ff ff 	lea    -0x18a8(%rbp),%rax
   11d30:	48 89 85 40 fc ff ff 	mov    %rax,-0x3c0(%rbp)
   11d37:	48 8d 85 58 e7 ff ff 	lea    -0x18a8(%rbp),%rax
   11d3e:	48 89 85 48 fc ff ff 	mov    %rax,-0x3b8(%rbp)
   11d45:	48 8d 85 58 e7 ff ff 	lea    -0x18a8(%rbp),%rax
   11d4c:	48 89 85 50 fc ff ff 	mov    %rax,-0x3b0(%rbp)
   11d53:	48 8d 85 58 e7 ff ff 	lea    -0x18a8(%rbp),%rax
   11d5a:	48 89 85 58 fc ff ff 	mov    %rax,-0x3a8(%rbp)
   11d61:	48 8d 85 58 e7 ff ff 	lea    -0x18a8(%rbp),%rax
   11d68:	48 89 85 60 fc ff ff 	mov    %rax,-0x3a0(%rbp)
   11d6f:	48 c7 85 68 fc ff ff 	movq   $0x0,-0x398(%rbp)
   11d76:	00 00 00 00 
   11d7a:	48 8d 85 58 e7 ff ff 	lea    -0x18a8(%rbp),%rax
   11d81:	48 89 85 70 fc ff ff 	mov    %rax,-0x390(%rbp)
   11d88:	48 8d 85 58 e7 ff ff 	lea    -0x18a8(%rbp),%rax
   11d8f:	48 89 85 78 fc ff ff 	mov    %rax,-0x388(%rbp)
   11d96:	48 8d 85 58 e7 ff ff 	lea    -0x18a8(%rbp),%rax
   11d9d:	48 89 85 80 fc ff ff 	mov    %rax,-0x380(%rbp)
   11da4:	48 8d 85 58 e7 ff ff 	lea    -0x18a8(%rbp),%rax
   11dab:	48 89 85 88 fc ff ff 	mov    %rax,-0x378(%rbp)
   11db2:	48 8d 85 58 e7 ff ff 	lea    -0x18a8(%rbp),%rax
   11db9:	48 89 85 90 fc ff ff 	mov    %rax,-0x370(%rbp)
   11dc0:	48 c7 85 98 fc ff ff 	movq   $0x0,-0x368(%rbp)
   11dc7:	00 00 00 00 
   11dcb:	48 8d 85 58 e7 ff ff 	lea    -0x18a8(%rbp),%rax
   11dd2:	48 89 85 a0 fc ff ff 	mov    %rax,-0x360(%rbp)
   11dd9:	48 8d 85 58 e7 ff ff 	lea    -0x18a8(%rbp),%rax
   11de0:	48 89 85 a8 fc ff ff 	mov    %rax,-0x358(%rbp)
   11de7:	48 8d 85 58 e7 ff ff 	lea    -0x18a8(%rbp),%rax
   11dee:	48 89 85 b0 fc ff ff 	mov    %rax,-0x350(%rbp)
   11df5:	48 8d 85 58 e7 ff ff 	lea    -0x18a8(%rbp),%rax
   11dfc:	48 89 85 b8 fc ff ff 	mov    %rax,-0x348(%rbp)
   11e03:	48 8d 85 58 e7 ff ff 	lea    -0x18a8(%rbp),%rax
   11e0a:	48 89 85 c0 fc ff ff 	mov    %rax,-0x340(%rbp)
   11e11:	48 8d 85 58 e7 ff ff 	lea    -0x18a8(%rbp),%rax
   11e18:	48 89 85 c8 fc ff ff 	mov    %rax,-0x338(%rbp)
   11e1f:	48 c7 85 d0 fc ff ff 	movq   $0x0,-0x330(%rbp)
   11e26:	00 00 00 00 
   11e2a:	48 8d 85 58 e7 ff ff 	lea    -0x18a8(%rbp),%rax
   11e31:	48 89 85 d8 fc ff ff 	mov    %rax,-0x328(%rbp)
   11e38:	48 8d 85 58 e7 ff ff 	lea    -0x18a8(%rbp),%rax
   11e3f:	48 89 85 e0 fc ff ff 	mov    %rax,-0x320(%rbp)
   11e46:	48 8d 85 58 e7 ff ff 	lea    -0x18a8(%rbp),%rax
   11e4d:	48 89 85 e8 fc ff ff 	mov    %rax,-0x318(%rbp)
   11e54:	48 8d 85 58 e7 ff ff 	lea    -0x18a8(%rbp),%rax
   11e5b:	48 89 85 f0 fc ff ff 	mov    %rax,-0x310(%rbp)
   11e62:	48 c7 85 f8 fc ff ff 	movq   $0x0,-0x308(%rbp)
   11e69:	00 00 00 00 
   11e6d:	48 8d 85 58 e7 ff ff 	lea    -0x18a8(%rbp),%rax
   11e74:	48 89 85 00 fd ff ff 	mov    %rax,-0x300(%rbp)
   11e7b:	48 8d 85 58 e7 ff ff 	lea    -0x18a8(%rbp),%rax
   11e82:	48 89 85 08 fd ff ff 	mov    %rax,-0x2f8(%rbp)
   11e89:	48 8d 85 58 e7 ff ff 	lea    -0x18a8(%rbp),%rax
   11e90:	48 89 85 10 fd ff ff 	mov    %rax,-0x2f0(%rbp)
   11e97:	48 8d 85 58 e7 ff ff 	lea    -0x18a8(%rbp),%rax
   11e9e:	48 89 85 18 fd ff ff 	mov    %rax,-0x2e8(%rbp)
   11ea5:	c7 85 18 e6 ff ff 0d 	movl   $0xd,-0x19e8(%rbp)
   11eac:	00 00 00 
   11eaf:	90                   	nop
   11eb0:	8b 85 18 e6 ff ff    	mov    -0x19e8(%rbp),%eax
   11eb6:	83 f8 03             	cmp    $0x3,%eax
   11eb9:	7f 2d                	jg     11ee8 <func_18+0x3507>
   11ebb:	48 8d 85 50 e9 ff ff 	lea    -0x16b0(%rbp),%rax
   11ec2:	48 83 c0 14          	add    $0x14,%rax
   11ec6:	48 89 85 38 e9 ff ff 	mov    %rax,-0x16c8(%rbp)
   11ecd:	8b 85 30 ec ff ff    	mov    -0x13d0(%rbp),%eax
   11ed3:	83 e8 01             	sub    $0x1,%eax
   11ed6:	89 85 30 ec ff ff    	mov    %eax,-0x13d0(%rbp)
   11edc:	48 8b 85 00 e8 ff ff 	mov    -0x1800(%rbp),%rax
   11ee3:	e9 80 06 00 00       	jmpq   12568 <func_18+0x3b87>
   11ee8:	83 bd 1c e6 ff ff 00 	cmpl   $0x0,-0x19e4(%rbp)
   11eef:	0f 85 55 05 00 00    	jne    1244a <func_18+0x3a69>
   11ef5:	8b 9d 1c e6 ff ff    	mov    -0x19e4(%rbp),%ebx
   11efb:	48 8b 85 58 e7 ff ff 	mov    -0x18a8(%rbp),%rax
   11f02:	48 89 85 48 e8 ff ff 	mov    %rax,-0x17b8(%rbp)
   11f09:	48 8b 85 48 e8 ff ff 	mov    -0x17b8(%rbp),%rax
   11f10:	48 89 85 c0 e7 ff ff 	mov    %rax,-0x1840(%rbp)
   11f17:	48 8b 85 c0 e7 ff ff 	mov    -0x1840(%rbp),%rax
   11f1e:	48 3b 85 c8 e7 ff ff 	cmp    -0x1838(%rbp),%rax
   11f25:	44 8b a5 1c e6 ff ff 	mov    -0x19e4(%rbp),%r12d
   11f2c:	48 8b 05 2d 51 01 00 	mov    0x1512d(%rip),%rax        # 27060 <g_2552>
   11f33:	8b 00                	mov    (%rax),%eax
   11f35:	41 89 c5             	mov    %eax,%r13d
   11f38:	48 8b 85 10 e7 ff ff 	mov    -0x18f0(%rbp),%rax
   11f3f:	48 85 c0             	test   %rax,%rax
   11f42:	0f 94 c0             	sete   %al
   11f45:	0f b6 c0             	movzbl %al,%eax
   11f48:	8b 95 18 e6 ff ff    	mov    -0x19e8(%rbp),%edx
   11f4e:	31 d0                	xor    %edx,%eax
   11f50:	0f b7 c0             	movzwl %ax,%eax
   11f53:	be 01 00 00 00       	mov    $0x1,%esi
   11f58:	89 c7                	mov    %eax,%edi
   11f5a:	e8 5f 9e ff ff       	callq  bdbe <safe_lshift_func_uint16_t_u_s>
   11f5f:	66 85 c0             	test   %ax,%ax
   11f62:	75 2f                	jne    11f93 <func_18+0x35b2>
   11f64:	8b 85 18 e6 ff ff    	mov    -0x19e8(%rbp),%eax
   11f6a:	89 c6                	mov    %eax,%esi
   11f6c:	bf 01 00 00 00       	mov    $0x1,%edi
   11f71:	e8 d6 9c ff ff       	callq  bc4c <safe_lshift_func_uint8_t_u_u>
   11f76:	0f b6 c0             	movzbl %al,%eax
   11f79:	23 85 54 e6 ff ff    	and    -0x19ac(%rbp),%eax
   11f7f:	39 85 1c e6 ff ff    	cmp    %eax,-0x19e4(%rbp)
   11f85:	0f 93 c0             	setae  %al
   11f88:	0f b6 c0             	movzbl %al,%eax
   11f8b:	39 85 1c e6 ff ff    	cmp    %eax,-0x19e4(%rbp)
   11f91:	75 07                	jne    11f9a <func_18+0x35b9>
   11f93:	b9 01 00 00 00       	mov    $0x1,%ecx
   11f98:	eb 05                	jmp    11f9f <func_18+0x35be>
   11f9a:	b9 00 00 00 00       	mov    $0x0,%ecx
   11f9f:	48 8b 85 58 e7 ff ff 	mov    -0x18a8(%rbp),%rax
   11fa6:	48 8b 00             	mov    (%rax),%rax
   11fa9:	48 8b 00             	mov    (%rax),%rax
   11fac:	48 8b 00             	mov    (%rax),%rax
   11faf:	8b 10                	mov    (%rax),%edx
   11fb1:	48 8b 85 58 e7 ff ff 	mov    -0x18a8(%rbp),%rax
   11fb8:	48 8b 00             	mov    (%rax),%rax
   11fbb:	48 8b 00             	mov    (%rax),%rax
   11fbe:	48 8b 00             	mov    (%rax),%rax
   11fc1:	31 ca                	xor    %ecx,%edx
   11fc3:	89 10                	mov    %edx,(%rax)
   11fc5:	8b 00                	mov    (%rax),%eax
   11fc7:	44 89 ee             	mov    %r13d,%esi
   11fca:	89 c7                	mov    %eax,%edi
   11fcc:	e8 e5 95 ff ff       	callq  b5b6 <safe_add_func_int32_t_s_s>
   11fd1:	0f be c0             	movsbl %al,%eax
   11fd4:	44 89 e6             	mov    %r12d,%esi
   11fd7:	89 c7                	mov    %eax,%edi
   11fd9:	e8 57 93 ff ff       	callq  b335 <safe_rshift_func_int8_t_s_s>
   11fde:	bf b4 c2 ff ff       	mov    $0xffffc2b4,%edi
   11fe3:	e8 b5 93 ff ff       	callq  b39d <safe_unary_minus_func_int16_t_s>
   11fe8:	0f bf d0             	movswl %ax,%edx
   11feb:	83 bd 1c e6 ff ff 00 	cmpl   $0x0,-0x19e4(%rbp)
   11ff2:	0f 95 c0             	setne  %al
   11ff5:	0f b6 c0             	movzbl %al,%eax
   11ff8:	09 d0                	or     %edx,%eax
   11ffa:	48 98                	cltq   
   11ffc:	48 89 c7             	mov    %rax,%rdi
   11fff:	e8 12 98 ff ff       	callq  b816 <safe_unary_minus_func_int64_t_s>
   12004:	be d6 e2 ed 2c       	mov    $0x2cede2d6,%esi
   12009:	89 c7                	mov    %eax,%edi
   1200b:	e8 f5 95 ff ff       	callq  b605 <safe_sub_func_int32_t_s_s>
   12010:	98                   	cwtl   
   12011:	89 de                	mov    %ebx,%esi
   12013:	89 c7                	mov    %eax,%edi
   12015:	e8 78 94 ff ff       	callq  b492 <safe_lshift_func_int16_t_s_s>
   1201a:	66 85 c0             	test   %ax,%ax
   1201d:	75 0d                	jne    1202c <func_18+0x364b>
   1201f:	48 8b 85 f8 e7 ff ff 	mov    -0x1808(%rbp),%rax
   12026:	8b 00                	mov    (%rax),%eax
   12028:	85 c0                	test   %eax,%eax
   1202a:	74 07                	je     12033 <func_18+0x3652>
   1202c:	b8 01 00 00 00       	mov    $0x1,%eax
   12031:	eb 05                	jmp    12038 <func_18+0x3657>
   12033:	b8 00 00 00 00       	mov    $0x0,%eax
   12038:	25 fe 00 00 00       	and    $0xfe,%eax
   1203d:	89 c2                	mov    %eax,%edx
   1203f:	48 8b 85 40 e8 ff ff 	mov    -0x17c0(%rbp),%rax
   12046:	89 10                	mov    %edx,(%rax)
   12048:	8b 05 d6 0f 01 00    	mov    0x10fd6(%rip),%eax        # 23024 <g_3>
   1204e:	0f b6 c0             	movzbl %al,%eax
   12051:	be 01 00 00 00       	mov    $0x1,%esi
   12056:	89 c7                	mov    %eax,%edi
   12058:	e8 fd 9a ff ff       	callq  bb5a <safe_add_func_uint8_t_u_u>
   1205d:	0f b6 c0             	movzbl %al,%eax
   12060:	89 05 be 0f 01 00    	mov    %eax,0x10fbe(%rip)        # 23024 <g_3>
   12066:	8b 05 b8 0f 01 00    	mov    0x10fb8(%rip),%eax        # 23024 <g_3>
   1206c:	83 f8 f2             	cmp    $0xfffffff2,%eax
   1206f:	0f 8d 8c f4 ff ff    	jge    11501 <func_18+0x2b20>
   12075:	e9 d1 03 00 00       	jmpq   1244b <func_18+0x3a6a>
   1207a:	c6 85 2a e6 ff ff ff 	movb   $0xff,-0x19d6(%rbp)
   12081:	48 8d 85 18 e7 ff ff 	lea    -0x18e8(%rbp),%rax
   12088:	48 89 85 60 e7 ff ff 	mov    %rax,-0x18a0(%rbp)
   1208f:	48 8d 05 ba 38 01 00 	lea    0x138ba(%rip),%rax        # 25950 <g_691>
   12096:	48 89 85 e0 f7 ff ff 	mov    %rax,-0x820(%rbp)
   1209d:	48 8d 05 ac 38 01 00 	lea    0x138ac(%rip),%rax        # 25950 <g_691>
   120a4:	48 89 85 e8 f7 ff ff 	mov    %rax,-0x818(%rbp)
   120ab:	48 8d 05 9e 38 01 00 	lea    0x1389e(%rip),%rax        # 25950 <g_691>
   120b2:	48 89 85 f0 f7 ff ff 	mov    %rax,-0x810(%rbp)
   120b9:	48 8d 05 90 38 01 00 	lea    0x13890(%rip),%rax        # 25950 <g_691>
   120c0:	48 89 85 f8 f7 ff ff 	mov    %rax,-0x808(%rbp)
   120c7:	c7 85 54 e6 ff ff 00 	movl   $0x0,-0x19ac(%rbp)
   120ce:	00 00 00 
   120d1:	e9 65 03 00 00       	jmpq   1243b <func_18+0x3a5a>
   120d6:	48 b8 19 6b f8 da 14 	movabs $0x19f1614daf86b19,%rax
   120dd:	16 9f 01 
   120e0:	48 89 85 68 e7 ff ff 	mov    %rax,-0x1898(%rbp)
   120e7:	48 8d 05 82 4e 01 00 	lea    0x14e82(%rip),%rax        # 26f70 <g_1374>
   120ee:	48 89 85 70 e7 ff ff 	mov    %rax,-0x1890(%rbp)
   120f5:	48 8d 05 8d 17 01 00 	lea    0x1178d(%rip),%rax        # 23889 <g_2321>
   120fc:	48 89 85 78 e7 ff ff 	mov    %rax,-0x1888(%rbp)
   12103:	c7 85 18 e6 ff ff 00 	movl   $0x0,-0x19e8(%rbp)
   1210a:	00 00 00 
   1210d:	e9 13 03 00 00       	jmpq   12425 <func_18+0x3a44>
   12112:	48 8d 05 0f 40 01 00 	lea    0x1400f(%rip),%rax        # 26128 <g_928>
   12119:	48 89 85 80 e7 ff ff 	mov    %rax,-0x1880(%rbp)
   12120:	c7 05 aa 13 01 00 00 	movl   $0x0,0x113aa(%rip)        # 234d4 <g_2012>
   12127:	00 00 00 
   1212a:	e9 d8 02 00 00       	jmpq   12407 <func_18+0x3a26>
   1212f:	48 c7 85 88 e7 ff ff 	movq   $0x0,-0x1878(%rbp)
   12136:	00 00 00 00 
   1213a:	48 c7 85 90 e7 ff ff 	movq   $0x0,-0x1870(%rbp)
   12141:	00 00 00 00 
   12145:	48 c7 85 98 e7 ff ff 	movq   $0x6,-0x1868(%rbp)
   1214c:	06 00 00 00 
   12150:	c7 85 1c e6 ff ff 00 	movl   $0x0,-0x19e4(%rbp)
   12157:	00 00 00 
   1215a:	e9 ea 00 00 00       	jmpq   12249 <func_18+0x3868>
   1215f:	48 8b 05 da 4e 01 00 	mov    0x14eda(%rip),%rax        # 27040 <g_2292>
   12166:	48 8b 00             	mov    (%rax),%rax
   12169:	48 8b 10             	mov    (%rax),%rdx
   1216c:	48 8b 05 cd 4e 01 00 	mov    0x14ecd(%rip),%rax        # 27040 <g_2292>
   12173:	48 8b 00             	mov    (%rax),%rax
   12176:	48 b9 97 e5 c3 9c 2f 	movabs $0x249e0e2f9cc3e597,%rcx
   1217d:	0e 9e 24 
   12180:	48 31 ca             	xor    %rcx,%rdx
   12183:	48 89 10             	mov    %rdx,(%rax)
   12186:	48 8b 00             	mov    (%rax),%rax
   12189:	48 89 c6             	mov    %rax,%rsi
   1218c:	48 c7 c7 f9 ff ff ff 	mov    $0xfffffffffffffff9,%rdi
   12193:	e8 5f 98 ff ff       	callq  b9f7 <safe_div_func_int64_t_s_s>
   12198:	0f be c0             	movsbl %al,%eax
   1219b:	be 03 00 00 00       	mov    $0x3,%esi
   121a0:	89 c7                	mov    %eax,%edi
   121a2:	e8 c5 91 ff ff       	callq  b36c <safe_rshift_func_int8_t_s_u>
   121a7:	0f be d0             	movsbl %al,%edx
   121aa:	48 8b 85 d8 e7 ff ff 	mov    -0x1828(%rbp),%rax
   121b1:	89 10                	mov    %edx,(%rax)
   121b3:	48 8b 85 d8 e7 ff ff 	mov    -0x1828(%rbp),%rax
   121ba:	8b 10                	mov    (%rax),%edx
   121bc:	48 8b 85 f8 e7 ff ff 	mov    -0x1808(%rbp),%rax
   121c3:	89 10                	mov    %edx,(%rax)
   121c5:	48 8b 85 e0 e7 ff ff 	mov    -0x1820(%rbp),%rax
   121cc:	48 8b 95 70 e7 ff ff 	mov    -0x1890(%rbp),%rdx
   121d3:	48 89 10             	mov    %rdx,(%rax)
   121d6:	48 8b 85 e0 e7 ff ff 	mov    -0x1820(%rbp),%rax
   121dd:	48 8b 00             	mov    (%rax),%rax
   121e0:	48 85 c0             	test   %rax,%rax
   121e3:	0f 94 c0             	sete   %al
   121e6:	0f b6 c0             	movzbl %al,%eax
   121e9:	48 39 85 68 e7 ff ff 	cmp    %rax,-0x1898(%rbp)
   121f0:	0f 94 c0             	sete   %al
   121f3:	0f b6 d0             	movzbl %al,%edx
   121f6:	48 8b 85 f8 e7 ff ff 	mov    -0x1808(%rbp),%rax
   121fd:	89 10                	mov    %edx,(%rax)
   121ff:	48 8b 05 82 4f 01 00 	mov    0x14f82(%rip),%rax        # 27188 <g_3054>
   12206:	48 8b 95 f8 e7 ff ff 	mov    -0x1808(%rbp),%rdx
   1220d:	8b 12                	mov    (%rdx),%edx
   1220f:	89 10                	mov    %edx,(%rax)
   12211:	8b 00                	mov    (%rax),%eax
   12213:	20 85 2a e6 ff ff    	and    %al,-0x19d6(%rbp)
   12219:	48 8b 05 e0 36 01 00 	mov    0x136e0(%rip),%rax        # 25900 <g_257>
   12220:	48 8d 95 18 e6 ff ff 	lea    -0x19e8(%rbp),%rdx
   12227:	48 89 10             	mov    %rdx,(%rax)
   1222a:	48 8b 05 cf 4e 01 00 	mov    0x14ecf(%rip),%rax        # 27100 <g_2896>
   12231:	8b 10                	mov    (%rax),%edx
   12233:	48 8b 05 c6 4e 01 00 	mov    0x14ec6(%rip),%rax        # 27100 <g_2896>
   1223a:	81 f2 12 40 1f 02    	xor    $0x21f4012,%edx
   12240:	89 10                	mov    %edx,(%rax)
   12242:	83 85 1c e6 ff ff 01 	addl   $0x1,-0x19e4(%rbp)
   12249:	83 bd 1c e6 ff ff 02 	cmpl   $0x2,-0x19e4(%rbp)
   12250:	0f 86 09 ff ff ff    	jbe    1215f <func_18+0x377e>
   12256:	c7 05 f4 11 01 00 00 	movl   $0x0,0x111f4(%rip)        # 23454 <g_340>
   1225d:	00 00 00 
   12260:	eb 60                	jmp    122c2 <func_18+0x38e1>
   12262:	66 c7 85 34 e6 ff ff 	movw   $0xffff,-0x19cc(%rbp)
   12269:	ff ff 
   1226b:	66 83 bd 34 e6 ff ff 	cmpw   $0x0,-0x19cc(%rbp)
   12272:	00 
   12273:	75 5a                	jne    122cf <func_18+0x38ee>
   12275:	48 8b 05 14 50 01 00 	mov    0x15014(%rip),%rax        # 27290 <g_3371>
   1227c:	48 8d 95 18 e6 ff ff 	lea    -0x19e8(%rbp),%rdx
   12283:	48 89 10             	mov    %rdx,(%rax)
   12286:	48 83 bd 68 e7 ff ff 	cmpq   $0x0,-0x1898(%rbp)
   1228d:	00 
   1228e:	75 13                	jne    122a3 <func_18+0x38c2>
   12290:	48 8b 05 d9 4d 01 00 	mov    0x14dd9(%rip),%rax        # 27070 <g_2566>
   12297:	48 8d 95 18 e6 ff ff 	lea    -0x19e8(%rbp),%rdx
   1229e:	48 89 10             	mov    %rdx,(%rax)
   122a1:	eb 01                	jmp    122a4 <func_18+0x38c3>
   122a3:	90                   	nop
   122a4:	8b 05 aa 11 01 00    	mov    0x111aa(%rip),%eax        # 23454 <g_340>
   122aa:	0f be c0             	movsbl %al,%eax
   122ad:	be 05 00 00 00       	mov    $0x5,%esi
   122b2:	89 c7                	mov    %eax,%edi
   122b4:	e8 39 8f ff ff       	callq  b1f2 <safe_sub_func_int8_t_s_s>
   122b9:	0f be c0             	movsbl %al,%eax
   122bc:	89 05 92 11 01 00    	mov    %eax,0x11192(%rip)        # 23454 <g_340>
   122c2:	8b 05 8c 11 01 00    	mov    0x1118c(%rip),%eax        # 23454 <g_340>
   122c8:	83 f8 ec             	cmp    $0xffffffec,%eax
   122cb:	75 95                	jne    12262 <func_18+0x3881>
   122cd:	eb 01                	jmp    122d0 <func_18+0x38ef>
   122cf:	90                   	nop
   122d0:	48 8b 85 98 e7 ff ff 	mov    -0x1868(%rbp),%rax
   122d7:	89 c2                	mov    %eax,%edx
   122d9:	48 8b 05 88 4d 01 00 	mov    0x14d88(%rip),%rax        # 27068 <g_2551>
   122e0:	48 8b 00             	mov    (%rax),%rax
   122e3:	8b 00                	mov    (%rax),%eax
   122e5:	89 c1                	mov    %eax,%ecx
   122e7:	48 8b 85 b8 e7 ff ff 	mov    -0x1848(%rbp),%rax
   122ee:	48 89 85 60 e7 ff ff 	mov    %rax,-0x18a0(%rbp)
   122f5:	48 8b 85 e8 f7 ff ff 	mov    -0x818(%rbp),%rax
   122fc:	48 39 85 60 e7 ff ff 	cmp    %rax,-0x18a0(%rbp)
   12303:	74 0c                	je     12311 <func_18+0x3930>
   12305:	48 b8 65 53 e4 25 20 	movabs $0xfcc4f52025e45365,%rax
   1230c:	f5 c4 fc 
   1230f:	eb 0a                	jmp    1231b <func_18+0x393a>
   12311:	48 b8 64 53 e4 25 20 	movabs $0xfcc4f52025e45364,%rax
   12318:	f5 c4 fc 
   1231b:	48 39 c8             	cmp    %rcx,%rax
   1231e:	0f 95 c0             	setne  %al
   12321:	0f b6 c0             	movzbl %al,%eax
   12324:	89 d6                	mov    %edx,%esi
   12326:	89 c7                	mov    %eax,%edi
   12328:	e8 91 9a ff ff       	callq  bdbe <safe_lshift_func_uint16_t_u_s>
   1232d:	48 8b 05 2c 4d 01 00 	mov    0x14d2c(%rip),%rax        # 27060 <g_2552>
   12334:	c7 00 01 00 00 00    	movl   $0x1,(%rax)
   1233a:	48 8b 85 b0 e7 ff ff 	mov    -0x1850(%rbp),%rax
   12341:	48 3b 85 88 e7 ff ff 	cmp    -0x1878(%rbp),%rax
   12348:	8b 95 1c e6 ff ff    	mov    -0x19e4(%rbp),%edx
   1234e:	48 8b 85 d8 e7 ff ff 	mov    -0x1828(%rbp),%rax
   12355:	89 10                	mov    %edx,(%rax)
   12357:	8b 85 18 e6 ff ff    	mov    -0x19e8(%rbp),%eax
   1235d:	89 c2                	mov    %eax,%edx
   1235f:	48 8b 85 78 e7 ff ff 	mov    -0x1888(%rbp),%rax
   12366:	88 10                	mov    %dl,(%rax)
   12368:	48 8b 85 78 e7 ff ff 	mov    -0x1888(%rbp),%rax
   1236f:	0f b6 00             	movzbl (%rax),%eax
   12372:	84 c0                	test   %al,%al
   12374:	75 36                	jne    123ac <func_18+0x39cb>
   12376:	be 1f a0 7b e3       	mov    $0xe37ba01f,%esi
   1237b:	bf 02 00 00 00       	mov    $0x2,%edi
   12380:	e8 31 92 ff ff       	callq  b5b6 <safe_add_func_int32_t_s_s>
   12385:	85 c0                	test   %eax,%eax
   12387:	0f 95 c0             	setne  %al
   1238a:	0f b6 c0             	movzbl %al,%eax
   1238d:	be 3d 00 00 00       	mov    $0x3d,%esi
   12392:	89 c7                	mov    %eax,%edi
   12394:	e8 15 98 ff ff       	callq  bbae <safe_mod_func_uint8_t_u_u>
   12399:	0f be c0             	movsbl %al,%eax
   1239c:	89 c6                	mov    %eax,%esi
   1239e:	bf fd ff ff ff       	mov    $0xfffffffd,%edi
   123a3:	e8 2c 8e ff ff       	callq  b1d4 <safe_add_func_int8_t_s_s>
   123a8:	84 c0                	test   %al,%al
   123aa:	74 07                	je     123b3 <func_18+0x39d2>
   123ac:	b8 01 00 00 00       	mov    $0x1,%eax
   123b1:	eb 05                	jmp    123b8 <func_18+0x39d7>
   123b3:	b8 00 00 00 00       	mov    $0x0,%eax
   123b8:	89 c2                	mov    %eax,%edx
   123ba:	48 8b 05 a7 4c 01 00 	mov    0x14ca7(%rip),%rax        # 27068 <g_2551>
   123c1:	48 8b 00             	mov    (%rax),%rax
   123c4:	8b 00                	mov    (%rax),%eax
   123c6:	89 d6                	mov    %edx,%esi
   123c8:	89 c7                	mov    %eax,%edi
   123ca:	e8 01 9b ff ff       	callq  bed0 <safe_sub_func_uint32_t_u_u>
   123cf:	48 8d 15 82 3c 01 00 	lea    0x13c82(%rip),%rdx        # 26058 <g_690+0x6f8>
   123d6:	48 39 95 80 e7 ff ff 	cmp    %rdx,-0x1880(%rbp)
   123dd:	0f 95 c2             	setne  %dl
   123e0:	0f b6 d2             	movzbl %dl,%edx
   123e3:	39 d0                	cmp    %edx,%eax
   123e5:	8b 85 18 e6 ff ff    	mov    -0x19e8(%rbp),%eax
   123eb:	f7 d0                	not    %eax
   123ed:	89 c2                	mov    %eax,%edx
   123ef:	48 8b 85 d8 e7 ff ff 	mov    -0x1828(%rbp),%rax
   123f6:	89 10                	mov    %edx,(%rax)
   123f8:	8b 05 d6 10 01 00    	mov    0x110d6(%rip),%eax        # 234d4 <g_2012>
   123fe:	83 c0 01             	add    $0x1,%eax
   12401:	89 05 cd 10 01 00    	mov    %eax,0x110cd(%rip)        # 234d4 <g_2012>
   12407:	8b 05 c7 10 01 00    	mov    0x110c7(%rip),%eax        # 234d4 <g_2012>
   1240d:	83 f8 02             	cmp    $0x2,%eax
   12410:	0f 86 19 fd ff ff    	jbe    1212f <func_18+0x374e>
   12416:	8b 85 18 e6 ff ff    	mov    -0x19e8(%rbp),%eax
   1241c:	83 c0 01             	add    $0x1,%eax
   1241f:	89 85 18 e6 ff ff    	mov    %eax,-0x19e8(%rbp)
   12425:	8b 85 18 e6 ff ff    	mov    -0x19e8(%rbp),%eax
   1242b:	83 f8 02             	cmp    $0x2,%eax
   1242e:	0f 8e de fc ff ff    	jle    12112 <func_18+0x3731>
   12434:	83 85 54 e6 ff ff 01 	addl   $0x1,-0x19ac(%rbp)
   1243b:	83 bd 54 e6 ff ff 02 	cmpl   $0x2,-0x19ac(%rbp)
   12442:	0f 86 8e fc ff ff    	jbe    120d6 <func_18+0x36f5>
   12448:	eb 01                	jmp    1244b <func_18+0x3a6a>
   1244a:	90                   	nop
   1244b:	48 8b 85 f8 e7 ff ff 	mov    -0x1808(%rbp),%rax
   12452:	8b 00                	mov    (%rax),%eax
   12454:	0f b7 d8             	movzwl %ax,%ebx
   12457:	48 8b 05 da 34 01 00 	mov    0x134da(%rip),%rax        # 25938 <g_626>
   1245e:	48 8b 00             	mov    (%rax),%rax
   12461:	0f b6 00             	movzbl (%rax),%eax
   12464:	83 c8 1e             	or     $0x1e,%eax
   12467:	0f be d0             	movsbl %al,%edx
   1246a:	48 8b 85 08 e8 ff ff 	mov    -0x17f8(%rbp),%rax
   12471:	89 10                	mov    %edx,(%rax)
   12473:	48 8b 85 00 e8 ff ff 	mov    -0x1800(%rbp),%rax
   1247a:	8b 00                	mov    (%rax),%eax
   1247c:	4c 63 e0             	movslq %eax,%r12
   1247f:	48 8b 05 32 10 01 00 	mov    0x11032(%rip),%rax        # 234b8 <g_1384>
   12486:	0f be d0             	movsbl %al,%edx
   12489:	48 8b 8d 48 f4 ff ff 	mov    -0xbb8(%rbp),%rcx
   12490:	48 8b 85 a0 f2 ff ff 	mov    -0xd60(%rbp),%rax
   12497:	48 39 c1             	cmp    %rax,%rcx
   1249a:	74 3c                	je     124d8 <func_18+0x3af7>
   1249c:	83 bd 1c e6 ff ff 00 	cmpl   $0x0,-0x19e4(%rbp)
   124a3:	74 2c                	je     124d1 <func_18+0x3af0>
   124a5:	48 8b 85 a0 e7 ff ff 	mov    -0x1860(%rbp),%rax
   124ac:	48 8d 8d 08 e7 ff ff 	lea    -0x18f8(%rbp),%rcx
   124b3:	48 89 08             	mov    %rcx,(%rax)
   124b6:	48 8b 05 c3 4c 01 00 	mov    0x14cc3(%rip),%rax        # 27180 <g_3002>
   124bd:	48 8b 00             	mov    (%rax),%rax
   124c0:	48 8b 08             	mov    (%rax),%rcx
   124c3:	48 8b 85 f8 e7 ff ff 	mov    -0x1808(%rbp),%rax
   124ca:	8b 00                	mov    (%rax),%eax
   124cc:	48 98                	cltq   
   124ce:	48 39 c1             	cmp    %rax,%rcx
   124d1:	b8 01 00 00 00       	mov    $0x1,%eax
   124d6:	eb 05                	jmp    124dd <func_18+0x3afc>
   124d8:	b8 00 00 00 00       	mov    $0x0,%eax
   124dd:	0f be c0             	movsbl %al,%eax
   124e0:	89 d6                	mov    %edx,%esi
   124e2:	89 c7                	mov    %eax,%edi
   124e4:	e8 48 8d ff ff       	callq  b231 <safe_mod_func_int8_t_s_s>
   124e9:	0f be c0             	movsbl %al,%eax
   124ec:	be 92 af ff ff       	mov    $0xffffaf92,%esi
   124f1:	89 c7                	mov    %eax,%edi
   124f3:	e8 fd 8e ff ff       	callq  b3f5 <safe_mul_func_int16_t_s_s>
   124f8:	48 0f bf c0          	movswq %ax,%rax
   124fc:	4c 89 e6             	mov    %r12,%rsi
   124ff:	48 89 c7             	mov    %rax,%rdi
   12502:	e8 f0 94 ff ff       	callq  b9f7 <safe_div_func_int64_t_s_s>
   12507:	48 8b 85 d8 e7 ff ff 	mov    -0x1828(%rbp),%rax
   1250e:	8b 00                	mov    (%rax),%eax
   12510:	39 85 1c e6 ff ff    	cmp    %eax,-0x19e4(%rbp)
   12516:	76 0a                	jbe    12522 <func_18+0x3b41>
   12518:	8b 85 18 e6 ff ff    	mov    -0x19e8(%rbp),%eax
   1251e:	85 c0                	test   %eax,%eax
   12520:	74 07                	je     12529 <func_18+0x3b48>
   12522:	b8 01 00 00 00       	mov    $0x1,%eax
   12527:	eb 05                	jmp    1252e <func_18+0x3b4d>
   12529:	b8 00 00 00 00       	mov    $0x0,%eax
   1252e:	0f b7 c0             	movzwl %ax,%eax
   12531:	be ff ff 00 00       	mov    $0xffff,%esi
   12536:	89 c7                	mov    %eax,%edi
   12538:	e8 00 98 ff ff       	callq  bd3d <safe_mul_func_uint16_t_u_u>
   1253d:	89 de                	mov    %ebx,%esi
   1253f:	bf 01 00 00 00       	mov    $0x1,%edi
   12544:	e8 d6 97 ff ff       	callq  bd1f <safe_sub_func_uint16_t_u_u>
   12549:	0f b7 c0             	movzwl %ax,%eax
   1254c:	39 85 1c e6 ff ff    	cmp    %eax,-0x19e4(%rbp)
   12552:	0f 95 c2             	setne  %dl
   12555:	48 8b 05 a4 4b 01 00 	mov    0x14ba4(%rip),%rax        # 27100 <g_2896>
   1255c:	0f b6 d2             	movzbl %dl,%edx
   1255f:	89 10                	mov    %edx,(%rax)
   12561:	48 8b 05 30 4d 01 00 	mov    0x14d30(%rip),%rax        # 27298 <g_3412>
   12568:	48 8b 5d c8          	mov    -0x38(%rbp),%rbx
   1256c:	64 48 33 1c 25 28 00 	xor    %fs:0x28,%rbx
   12573:	00 00 
   12575:	74 05                	je     1257c <func_18+0x3b9b>
   12577:	e8 f4 8a ff ff       	callq  b070 <__stack_chk_fail@plt>
   1257c:	48 81 c4 c8 19 00 00 	add    $0x19c8,%rsp
   12583:	5b                   	pop    %rbx
   12584:	41 5c                	pop    %r12
   12586:	41 5d                	pop    %r13
   12588:	41 5e                	pop    %r14
   1258a:	41 5f                	pop    %r15
   1258c:	5d                   	pop    %rbp
   1258d:	c3                   	retq   

000000000001258e <func_23>:
   1258e:	f3 0f 1e fa          	endbr64 
   12592:	55                   	push   %rbp
   12593:	48 89 e5             	mov    %rsp,%rbp
   12596:	48 89 7d e8          	mov    %rdi,-0x18(%rbp)
   1259a:	48 89 75 e0          	mov    %rsi,-0x20(%rbp)
   1259e:	89 55 dc             	mov    %edx,-0x24(%rbp)
   125a1:	c6 45 ff ff          	movb   $0xff,-0x1(%rbp)
   125a5:	0f b6 45 ff          	movzbl -0x1(%rbp),%eax
   125a9:	5d                   	pop    %rbp
   125aa:	c3                   	retq   

00000000000125ab <func_27>:
   125ab:	f3 0f 1e fa          	endbr64 
   125af:	55                   	push   %rbp
   125b0:	48 89 e5             	mov    %rsp,%rbp
   125b3:	41 57                	push   %r15
   125b5:	41 56                	push   %r14
   125b7:	41 55                	push   %r13
   125b9:	41 54                	push   %r12
   125bb:	53                   	push   %rbx
   125bc:	48 81 ec d8 00 00 00 	sub    $0xd8,%rsp
   125c3:	89 bd 1c ff ff ff    	mov    %edi,-0xe4(%rbp)
   125c9:	64 48 8b 04 25 28 00 	mov    %fs:0x28,%rax
   125d0:	00 00 
   125d2:	48 89 45 c8          	mov    %rax,-0x38(%rbp)
   125d6:	31 c0                	xor    %eax,%eax
   125d8:	48 8d 05 45 0a 01 00 	lea    0x10a45(%rip),%rax        # 23024 <g_3>
   125df:	48 89 85 30 ff ff ff 	mov    %rax,-0xd0(%rbp)
   125e6:	48 8d 05 37 0a 01 00 	lea    0x10a37(%rip),%rax        # 23024 <g_3>
   125ed:	48 89 85 38 ff ff ff 	mov    %rax,-0xc8(%rbp)
   125f4:	c7 45 80 af e5 2a 90 	movl   $0x902ae5af,-0x80(%rbp)
   125fb:	c7 45 84 05 00 00 00 	movl   $0x5,-0x7c(%rbp)
   12602:	c7 45 88 00 00 00 00 	movl   $0x0,-0x78(%rbp)
   12609:	c7 45 8c 00 00 00 00 	movl   $0x0,-0x74(%rbp)
   12610:	c7 45 90 05 00 00 00 	movl   $0x5,-0x70(%rbp)
   12617:	c7 45 94 af e5 2a 90 	movl   $0x902ae5af,-0x6c(%rbp)
   1261e:	c7 45 98 05 00 00 00 	movl   $0x5,-0x68(%rbp)
   12625:	c7 45 9c 00 00 00 00 	movl   $0x0,-0x64(%rbp)
   1262c:	c7 45 a0 00 00 00 00 	movl   $0x0,-0x60(%rbp)
   12633:	c7 45 a4 9f 58 fa 54 	movl   $0x54fa589f,-0x5c(%rbp)
   1263a:	c7 45 a8 9f 58 fa 54 	movl   $0x54fa589f,-0x58(%rbp)
   12641:	c7 45 ac af e5 2a 90 	movl   $0x902ae5af,-0x54(%rbp)
   12648:	c7 45 b0 00 00 00 00 	movl   $0x0,-0x50(%rbp)
   1264f:	c7 45 b4 af e5 2a 90 	movl   $0x902ae5af,-0x4c(%rbp)
   12656:	c7 45 b8 9f 58 fa 54 	movl   $0x54fa589f,-0x48(%rbp)
   1265d:	c7 45 bc 9f 58 fa 54 	movl   $0x54fa589f,-0x44(%rbp)
   12664:	c7 45 c0 af e5 2a 90 	movl   $0x902ae5af,-0x40(%rbp)
   1266b:	c7 45 c4 00 00 00 00 	movl   $0x0,-0x3c(%rbp)
   12672:	48 b8 51 e0 34 05 aa 	movabs $0x8a8440aa0534e051,%rax
   12679:	40 84 8a 
   1267c:	48 89 85 40 ff ff ff 	mov    %rax,-0xc0(%rbp)
   12683:	48 8d 05 ca 09 01 00 	lea    0x109ca(%rip),%rax        # 23054 <g_200>
   1268a:	48 89 85 48 ff ff ff 	mov    %rax,-0xb8(%rbp)
   12691:	8b 85 1c ff ff ff    	mov    -0xe4(%rbp),%eax
   12697:	48 63 d8             	movslq %eax,%rbx
   1269a:	44 8b a5 1c ff ff ff 	mov    -0xe4(%rbp),%r12d
   126a1:	44 8b b5 1c ff ff ff 	mov    -0xe4(%rbp),%r14d
   126a8:	8b 85 1c ff ff ff    	mov    -0xe4(%rbp),%eax
   126ae:	44 0f be e8          	movsbl %al,%r13d
   126b2:	48 8b 85 40 ff ff ff 	mov    -0xc0(%rbp),%rax
   126b9:	44 0f b6 f8          	movzbl %al,%r15d
   126bd:	8b 85 1c ff ff ff    	mov    -0xe4(%rbp),%eax
   126c3:	48 98                	cltq   
   126c5:	48 89 85 10 ff ff ff 	mov    %rax,-0xf0(%rbp)
   126cc:	8b 85 1c ff ff ff    	mov    -0xe4(%rbp),%eax
   126d2:	98                   	cwtl   
   126d3:	89 85 18 ff ff ff    	mov    %eax,-0xe8(%rbp)
   126d9:	8b 45 88             	mov    -0x78(%rbp),%eax
   126dc:	48 98                	cltq   
   126de:	48 89 85 08 ff ff ff 	mov    %rax,-0xf8(%rbp)
   126e5:	8b 85 1c ff ff ff    	mov    -0xe4(%rbp),%eax
   126eb:	89 85 04 ff ff ff    	mov    %eax,-0xfc(%rbp)
   126f1:	b8 3f d6 54 4f       	mov    $0x4f54d63f,%eax
   126f6:	89 c7                	mov    %eax,%edi
   126f8:	e8 a9 97 ff ff       	callq  bea6 <safe_unary_minus_func_uint32_t_u>
   126fd:	85 c0                	test   %eax,%eax
   126ff:	74 09                	je     1270a <func_27+0x15f>
   12701:	0f b6 05 66 0d 01 00 	movzbl 0x10d66(%rip),%eax        # 2346e <g_899>
   12708:	84 c0                	test   %al,%al
   1270a:	83 bd 1c ff ff ff 00 	cmpl   $0x0,-0xe4(%rbp)
   12711:	74 07                	je     1271a <func_27+0x16f>
   12713:	b8 01 00 00 00       	mov    $0x1,%eax
   12718:	eb 05                	jmp    1271f <func_27+0x174>
   1271a:	b8 00 00 00 00       	mov    $0x0,%eax
   1271f:	8b b5 04 ff ff ff    	mov    -0xfc(%rbp),%esi
   12725:	89 c7                	mov    %eax,%edi
   12727:	e8 a4 97 ff ff       	callq  bed0 <safe_sub_func_uint32_t_u_u>
   1272c:	48 8b b5 08 ff ff ff 	mov    -0xf8(%rbp),%rsi
   12733:	bf 01 00 00 00       	mov    $0x1,%edi
   12738:	e8 0e 99 ff ff       	callq  c04b <safe_sub_func_uint64_t_u_u>
   1273d:	b8 3f d6 54 4f       	mov    $0x4f54d63f,%eax
   12742:	48 98                	cltq   
   12744:	48 89 85 08 ff ff ff 	mov    %rax,-0xf8(%rbp)
   1274b:	48 8d 3d d2 08 01 00 	lea    0x108d2(%rip),%rdi        # 23024 <g_3>
   12752:	e8 99 1c 00 00       	callq  143f0 <func_54>
   12757:	48 8b b5 08 ff ff ff 	mov    -0xf8(%rbp),%rsi
   1275e:	48 89 c7             	mov    %rax,%rdi
   12761:	e8 91 92 ff ff       	callq  b9f7 <safe_div_func_int64_t_s_s>
   12766:	98                   	cwtl   
   12767:	8b b5 18 ff ff ff    	mov    -0xe8(%rbp),%esi
   1276d:	89 c7                	mov    %eax,%edi
   1276f:	e8 a2 8c ff ff       	callq  b416 <safe_mod_func_int16_t_s_s>
   12774:	48 0f bf c0          	movswq %ax,%rax
   12778:	48 8b b5 10 ff ff ff 	mov    -0xf0(%rbp),%rsi
   1277f:	48 89 c7             	mov    %rax,%rdi
   12782:	e8 70 92 ff ff       	callq  b9f7 <safe_div_func_int64_t_s_s>
   12787:	89 c2                	mov    %eax,%edx
   12789:	48 8b b5 38 ff ff ff 	mov    -0xc8(%rbp),%rsi
   12790:	48 8b 85 30 ff ff ff 	mov    -0xd0(%rbp),%rax
   12797:	44 89 f9             	mov    %r15d,%ecx
   1279a:	48 89 c7             	mov    %rax,%rdi
   1279d:	e8 a7 06 00 00       	callq  12e49 <func_41>
   127a2:	44 89 f2             	mov    %r14d,%edx
   127a5:	44 89 ee             	mov    %r13d,%esi
   127a8:	89 c7                	mov    %eax,%edi
   127aa:	e8 c2 00 00 00       	callq  12871 <func_37>
   127af:	98                   	cwtl   
   127b0:	44 89 e6             	mov    %r12d,%esi
   127b3:	89 c7                	mov    %eax,%edi
   127b5:	e8 27 8d ff ff       	callq  b4e1 <safe_lshift_func_int16_t_s_u>
   127ba:	48 0f bf c0          	movswq %ax,%rax
   127be:	48 89 c6             	mov    %rax,%rsi
   127c1:	48 bf c7 ac 0a 77 1a 	movabs $0x76e9f81a770aacc7,%rdi
   127c8:	f8 e9 76 
   127cb:	e8 71 90 ff ff       	callq  b841 <safe_add_func_int64_t_s_s>
   127d0:	89 c6                	mov    %eax,%esi
   127d2:	bf ff ff ff ff       	mov    $0xffffffff,%edi
   127d7:	e8 4e 8d ff ff       	callq  b52a <safe_rshift_func_int16_t_s_s>
   127dc:	48 0f bf c0          	movswq %ax,%rax
   127e0:	48 89 de             	mov    %rbx,%rsi
   127e3:	48 89 c7             	mov    %rax,%rdi
   127e6:	e8 95 98 ff ff       	callq  c080 <safe_mod_func_uint64_t_u_u>
   127eb:	8b 95 1c ff ff ff    	mov    -0xe4(%rbp),%edx
   127f1:	48 63 d2             	movslq %edx,%rdx
   127f4:	48 39 d0             	cmp    %rdx,%rax
   127f7:	75 09                	jne    12802 <func_27+0x257>
   127f9:	48 8d 05 80 30 01 00 	lea    0x13080(%rip),%rax        # 25880 <g_88>
   12800:	eb 49                	jmp    1284b <func_27+0x2a0>
   12802:	c7 85 2c ff ff ff 00 	movl   $0x0,-0xd4(%rbp)
   12809:	00 00 00 
   1280c:	eb 1e                	jmp    1282c <func_27+0x281>
   1280e:	8b 85 2c ff ff ff    	mov    -0xd4(%rbp),%eax
   12814:	48 98                	cltq   
   12816:	48 8d 15 73 30 01 00 	lea    0x13073(%rip),%rdx        # 25890 <g_105>
   1281d:	48 89 94 c5 50 ff ff 	mov    %rdx,-0xb0(%rbp,%rax,8)
   12824:	ff 
   12825:	83 85 2c ff ff ff 01 	addl   $0x1,-0xd4(%rbp)
   1282c:	83 bd 2c ff ff ff 04 	cmpl   $0x4,-0xd4(%rbp)
   12833:	7e d9                	jle    1280e <func_27+0x263>
   12835:	48 8d 45 80          	lea    -0x80(%rbp),%rax
   12839:	48 83 c0 04          	add    $0x4,%rax
   1283d:	48 89 85 48 ff ff ff 	mov    %rax,-0xb8(%rbp)
   12844:	48 8d 05 b5 55 01 00 	lea    0x155b5(%rip),%rax        # 27e00 <g_783>
   1284b:	48 8b 4d c8          	mov    -0x38(%rbp),%rcx
   1284f:	64 48 33 0c 25 28 00 	xor    %fs:0x28,%rcx
   12856:	00 00 
   12858:	74 05                	je     1285f <func_27+0x2b4>
   1285a:	e8 11 88 ff ff       	callq  b070 <__stack_chk_fail@plt>
   1285f:	48 81 c4 d8 00 00 00 	add    $0xd8,%rsp
   12866:	5b                   	pop    %rbx
   12867:	41 5c                	pop    %r12
   12869:	41 5d                	pop    %r13
   1286b:	41 5e                	pop    %r14
   1286d:	41 5f                	pop    %r15
   1286f:	5d                   	pop    %rbp
   12870:	c3                   	retq   

0000000000012871 <func_37>:
   12871:	f3 0f 1e fa          	endbr64 
   12875:	55                   	push   %rbp
   12876:	48 89 e5             	mov    %rsp,%rbp
   12879:	48 81 ec 00 03 00 00 	sub    $0x300,%rsp
   12880:	89 bd 0c fd ff ff    	mov    %edi,-0x2f4(%rbp)
   12886:	89 f0                	mov    %esi,%eax
   12888:	89 95 04 fd ff ff    	mov    %edx,-0x2fc(%rbp)
   1288e:	88 85 08 fd ff ff    	mov    %al,-0x2f8(%rbp)
   12894:	64 48 8b 04 25 28 00 	mov    %fs:0x28,%rax
   1289b:	00 00 
   1289d:	48 89 45 f8          	mov    %rax,-0x8(%rbp)
   128a1:	31 c0                	xor    %eax,%eax
   128a3:	48 c7 85 58 fd ff ff 	movq   $0x0,-0x2a8(%rbp)
   128aa:	00 00 00 00 
   128ae:	c6 85 1e fd ff ff ff 	movb   $0xff,-0x2e2(%rbp)
   128b5:	c7 85 34 fd ff ff 42 	movl   $0x27e6da42,-0x2cc(%rbp)
   128bc:	da e6 27 
   128bf:	48 c7 85 60 fd ff ff 	movq   $0x0,-0x2a0(%rbp)
   128c6:	00 00 00 00 
   128ca:	48 b8 30 13 b4 05 74 	movabs $0xf925f27405b41330,%rax
   128d1:	f2 25 f9 
   128d4:	48 89 85 f0 fd ff ff 	mov    %rax,-0x210(%rbp)
   128db:	48 b9 f8 19 18 9d ee 	movabs $0x81f4b5ee9d1819f8,%rcx
   128e2:	b5 f4 81 
   128e5:	48 89 8d f8 fd ff ff 	mov    %rcx,-0x208(%rbp)
   128ec:	48 89 85 00 fe ff ff 	mov    %rax,-0x200(%rbp)
   128f3:	48 89 85 08 fe ff ff 	mov    %rax,-0x1f8(%rbp)
   128fa:	48 89 8d 10 fe ff ff 	mov    %rcx,-0x1f0(%rbp)
   12901:	48 89 85 18 fe ff ff 	mov    %rax,-0x1e8(%rbp)
   12908:	48 8d 05 39 30 01 00 	lea    0x13039(%rip),%rax        # 25948 <g_692>
   1290f:	48 89 85 68 fd ff ff 	mov    %rax,-0x298(%rbp)
   12916:	c7 85 2c fd ff ff fa 	movl   $0x91c7f3fa,-0x2d4(%rbp)
   1291d:	f3 c7 91 
   12920:	48 8d 05 19 55 01 00 	lea    0x15519(%rip),%rax        # 27e40 <g_1642>
   12927:	48 89 85 70 fd ff ff 	mov    %rax,-0x290(%rbp)
   1292e:	66 c7 85 24 fd ff ff 	movw   $0xd1e0,-0x2dc(%rbp)
   12935:	e0 d1 
   12937:	48 8d 05 2a 0b 01 00 	lea    0x10b2a(%rip),%rax        # 23468 <g_714>
   1293e:	48 89 85 f0 fe ff ff 	mov    %rax,-0x110(%rbp)
   12945:	48 c7 85 f8 fe ff ff 	movq   $0x0,-0x108(%rbp)
   1294c:	00 00 00 00 
   12950:	48 8d 05 11 0b 01 00 	lea    0x10b11(%rip),%rax        # 23468 <g_714>
   12957:	48 89 85 00 ff ff ff 	mov    %rax,-0x100(%rbp)
   1295e:	48 8d 05 03 0b 01 00 	lea    0x10b03(%rip),%rax        # 23468 <g_714>
   12965:	48 89 85 08 ff ff ff 	mov    %rax,-0xf8(%rbp)
   1296c:	48 c7 85 10 ff ff ff 	movq   $0x0,-0xf0(%rbp)
   12973:	00 00 00 00 
   12977:	48 8d 05 ea 0a 01 00 	lea    0x10aea(%rip),%rax        # 23468 <g_714>
   1297e:	48 89 85 18 ff ff ff 	mov    %rax,-0xe8(%rbp)
   12985:	48 8d 05 dc 0a 01 00 	lea    0x10adc(%rip),%rax        # 23468 <g_714>
   1298c:	48 89 85 20 ff ff ff 	mov    %rax,-0xe0(%rbp)
   12993:	48 c7 85 28 ff ff ff 	movq   $0x0,-0xd8(%rbp)
   1299a:	00 00 00 00 
   1299e:	48 c7 85 30 ff ff ff 	movq   $0x0,-0xd0(%rbp)
   129a5:	00 00 00 00 
   129a9:	48 8d 05 b8 0a 01 00 	lea    0x10ab8(%rip),%rax        # 23468 <g_714>
   129b0:	48 89 85 38 ff ff ff 	mov    %rax,-0xc8(%rbp)
   129b7:	48 8d 05 aa 0a 01 00 	lea    0x10aaa(%rip),%rax        # 23468 <g_714>
   129be:	48 89 85 40 ff ff ff 	mov    %rax,-0xc0(%rbp)
   129c5:	48 c7 85 48 ff ff ff 	movq   $0x0,-0xb8(%rbp)
   129cc:	00 00 00 00 
   129d0:	48 8d 05 91 0a 01 00 	lea    0x10a91(%rip),%rax        # 23468 <g_714>
   129d7:	48 89 85 50 ff ff ff 	mov    %rax,-0xb0(%rbp)
   129de:	48 8d 05 83 0a 01 00 	lea    0x10a83(%rip),%rax        # 23468 <g_714>
   129e5:	48 89 85 58 ff ff ff 	mov    %rax,-0xa8(%rbp)
   129ec:	48 c7 85 60 ff ff ff 	movq   $0x0,-0xa0(%rbp)
   129f3:	00 00 00 00 
   129f7:	48 8d 05 6a 0a 01 00 	lea    0x10a6a(%rip),%rax        # 23468 <g_714>
   129fe:	48 89 85 68 ff ff ff 	mov    %rax,-0x98(%rbp)
   12a05:	48 c7 85 70 ff ff ff 	movq   $0x0,-0x90(%rbp)
   12a0c:	00 00 00 00 
   12a10:	48 c7 85 78 ff ff ff 	movq   $0x0,-0x88(%rbp)
   12a17:	00 00 00 00 
   12a1b:	48 8d 05 46 0a 01 00 	lea    0x10a46(%rip),%rax        # 23468 <g_714>
   12a22:	48 89 45 80          	mov    %rax,-0x80(%rbp)
   12a26:	48 c7 45 88 00 00 00 	movq   $0x0,-0x78(%rbp)
   12a2d:	00 
   12a2e:	48 c7 45 90 00 00 00 	movq   $0x0,-0x70(%rbp)
   12a35:	00 
   12a36:	48 8d 05 2b 0a 01 00 	lea    0x10a2b(%rip),%rax        # 23468 <g_714>
   12a3d:	48 89 45 98          	mov    %rax,-0x68(%rbp)
   12a41:	48 c7 45 a0 00 00 00 	movq   $0x0,-0x60(%rbp)
   12a48:	00 
   12a49:	48 c7 45 a8 00 00 00 	movq   $0x0,-0x58(%rbp)
   12a50:	00 
   12a51:	48 8d 05 10 0a 01 00 	lea    0x10a10(%rip),%rax        # 23468 <g_714>
   12a58:	48 89 45 b0          	mov    %rax,-0x50(%rbp)
   12a5c:	48 c7 45 b8 00 00 00 	movq   $0x0,-0x48(%rbp)
   12a63:	00 
   12a64:	48 8d 05 fd 09 01 00 	lea    0x109fd(%rip),%rax        # 23468 <g_714>
   12a6b:	48 89 45 c0          	mov    %rax,-0x40(%rbp)
   12a6f:	48 8d 05 f2 09 01 00 	lea    0x109f2(%rip),%rax        # 23468 <g_714>
   12a76:	48 89 45 c8          	mov    %rax,-0x38(%rbp)
   12a7a:	48 c7 45 d0 00 00 00 	movq   $0x0,-0x30(%rbp)
   12a81:	00 
   12a82:	48 8d 05 df 09 01 00 	lea    0x109df(%rip),%rax        # 23468 <g_714>
   12a89:	48 89 45 d8          	mov    %rax,-0x28(%rbp)
   12a8d:	48 8d 05 d4 09 01 00 	lea    0x109d4(%rip),%rax        # 23468 <g_714>
   12a94:	48 89 45 e0          	mov    %rax,-0x20(%rbp)
   12a98:	48 c7 45 e8 00 00 00 	movq   $0x0,-0x18(%rbp)
   12a9f:	00 
   12aa0:	c7 85 38 fd ff ff 04 	movl   $0x4,-0x2c8(%rbp)
   12aa7:	00 00 00 
   12aaa:	48 8d 05 37 53 01 00 	lea    0x15337(%rip),%rax        # 27de8 <g_401>
   12ab1:	48 89 85 78 fd ff ff 	mov    %rax,-0x288(%rbp)
   12ab8:	c6 85 1f fd ff ff e2 	movb   $0xe2,-0x2e1(%rbp)
   12abf:	48 c7 85 40 fd ff ff 	movq   $0x0,-0x2c0(%rbp)
   12ac6:	00 00 00 00 
   12aca:	48 8d 85 40 fd ff ff 	lea    -0x2c0(%rbp),%rax
   12ad1:	48 89 85 48 fd ff ff 	mov    %rax,-0x2b8(%rbp)
   12ad8:	48 8d 85 48 fd ff ff 	lea    -0x2b8(%rbp),%rax
   12adf:	48 89 85 80 fd ff ff 	mov    %rax,-0x280(%rbp)
   12ae6:	48 8d 85 2c fd ff ff 	lea    -0x2d4(%rbp),%rax
   12aed:	48 89 85 88 fd ff ff 	mov    %rax,-0x278(%rbp)
   12af4:	c6 85 20 fd ff ff 38 	movb   $0x38,-0x2e0(%rbp)
   12afb:	48 8d 05 ce 52 01 00 	lea    0x152ce(%rip),%rax        # 27dd0 <g_197>
   12b02:	48 89 85 90 fd ff ff 	mov    %rax,-0x270(%rbp)
   12b09:	66 c7 85 26 fd ff ff 	movw   $0xffff,-0x2da(%rbp)
   12b10:	ff ff 
   12b12:	c6 85 21 fd ff ff 27 	movb   $0x27,-0x2df(%rbp)
   12b19:	66 c7 85 28 fd ff ff 	movw   $0x1,-0x2d8(%rbp)
   12b20:	01 00 
   12b22:	48 b8 00 1b b2 cf b4 	movabs $0xb0da8fb4cfb21b00,%rax
   12b29:	8f da b0 
   12b2c:	48 89 85 98 fd ff ff 	mov    %rax,-0x268(%rbp)
   12b33:	c6 85 22 fd ff ff d8 	movb   $0xd8,-0x2de(%rbp)
   12b3a:	66 c7 85 2a fd ff ff 	movw   $0x4,-0x2d6(%rbp)
   12b41:	04 00 
   12b43:	48 8d 05 26 44 01 00 	lea    0x14426(%rip),%rax        # 26f70 <g_1374>
   12b4a:	48 89 85 a0 fd ff ff 	mov    %rax,-0x260(%rbp)
   12b51:	48 8d 05 70 52 01 00 	lea    0x15270(%rip),%rax        # 27dc8 <g_74>
   12b58:	48 89 85 50 fd ff ff 	mov    %rax,-0x2b0(%rbp)
   12b5f:	48 8d 85 50 fd ff ff 	lea    -0x2b0(%rbp),%rax
   12b66:	48 89 85 a8 fd ff ff 	mov    %rax,-0x258(%rbp)
   12b6d:	c7 85 3c fd ff ff 27 	movl   $0xe3712527,-0x2c4(%rbp)
   12b74:	25 71 e3 
   12b77:	c7 85 20 fe ff ff fb 	movl   $0xfffffffb,-0x1e0(%rbp)
   12b7e:	ff ff ff 
   12b81:	c7 85 24 fe ff ff a3 	movl   $0xc9319ba3,-0x1dc(%rbp)
   12b88:	9b 31 c9 
   12b8b:	c7 85 28 fe ff ff fb 	movl   $0xfffffffb,-0x1d8(%rbp)
   12b92:	ff ff ff 
   12b95:	c7 85 2c fe ff ff 73 	movl   $0xde274b73,-0x1d4(%rbp)
   12b9c:	4b 27 de 
   12b9f:	c7 85 30 fe ff ff fb 	movl   $0xfffffffb,-0x1d0(%rbp)
   12ba6:	ff ff ff 
   12ba9:	c7 85 34 fe ff ff a3 	movl   $0xc9319ba3,-0x1cc(%rbp)
   12bb0:	9b 31 c9 
   12bb3:	c7 85 38 fe ff ff fb 	movl   $0xfffffffb,-0x1c8(%rbp)
   12bba:	ff ff ff 
   12bbd:	c7 85 3c fe ff ff 46 	movl   $0xe0f4ee46,-0x1c4(%rbp)
   12bc4:	ee f4 e0 
   12bc7:	c7 85 40 fe ff ff fb 	movl   $0xfffffffb,-0x1c0(%rbp)
   12bce:	ff ff ff 
   12bd1:	c7 85 44 fe ff ff fb 	movl   $0xfffffffb,-0x1bc(%rbp)
   12bd8:	ff ff ff 
   12bdb:	c7 85 48 fe ff ff 46 	movl   $0xe0f4ee46,-0x1b8(%rbp)
   12be2:	ee f4 e0 
   12be5:	c7 85 4c fe ff ff a9 	movl   $0x6c1b3ba9,-0x1b4(%rbp)
   12bec:	3b 1b 6c 
   12bef:	c7 85 50 fe ff ff 35 	movl   $0xf8d37935,-0x1b0(%rbp)
   12bf6:	79 d3 f8 
   12bf9:	c7 85 54 fe ff ff 35 	movl   $0xf8d37935,-0x1ac(%rbp)
   12c00:	79 d3 f8 
   12c03:	c7 85 58 fe ff ff a3 	movl   $0xe6980ea3,-0x1a8(%rbp)
   12c0a:	0e 98 e6 
   12c0d:	c7 85 5c fe ff ff a3 	movl   $0xc9319ba3,-0x1a4(%rbp)
   12c14:	9b 31 c9 
   12c17:	c7 85 60 fe ff ff fb 	movl   $0xfffffffb,-0x1a0(%rbp)
   12c1e:	ff ff ff 
   12c21:	c7 85 64 fe ff ff a3 	movl   $0xc9319ba3,-0x19c(%rbp)
   12c28:	9b 31 c9 
   12c2b:	c7 85 68 fe ff ff a3 	movl   $0xe6980ea3,-0x198(%rbp)
   12c32:	0e 98 e6 
   12c35:	c7 85 6c fe ff ff a3 	movl   $0xc9319ba3,-0x194(%rbp)
   12c3c:	9b 31 c9 
   12c3f:	c7 85 70 fe ff ff fb 	movl   $0xfffffffb,-0x190(%rbp)
   12c46:	ff ff ff 
   12c49:	c7 85 74 fe ff ff a9 	movl   $0x6c1b3ba9,-0x18c(%rbp)
   12c50:	3b 1b 6c 
   12c53:	c7 85 78 fe ff ff 46 	movl   $0xe0f4ee46,-0x188(%rbp)
   12c5a:	ee f4 e0 
   12c5d:	c7 85 7c fe ff ff fb 	movl   $0xfffffffb,-0x184(%rbp)
   12c64:	ff ff ff 
   12c67:	c7 85 80 fe ff ff fb 	movl   $0xfffffffb,-0x180(%rbp)
   12c6e:	ff ff ff 
   12c71:	c7 85 84 fe ff ff 46 	movl   $0xe0f4ee46,-0x17c(%rbp)
   12c78:	ee f4 e0 
   12c7b:	c7 85 88 fe ff ff a9 	movl   $0x6c1b3ba9,-0x178(%rbp)
   12c82:	3b 1b 6c 
   12c85:	c7 85 8c fe ff ff 35 	movl   $0xf8d37935,-0x174(%rbp)
   12c8c:	79 d3 f8 
   12c8f:	c7 85 90 fe ff ff fb 	movl   $0xfffffffb,-0x170(%rbp)
   12c96:	ff ff ff 
   12c99:	c7 85 94 fe ff ff 73 	movl   $0xde274b73,-0x16c(%rbp)
   12ca0:	4b 27 de 
   12ca3:	c7 85 98 fe ff ff fb 	movl   $0xfffffffb,-0x168(%rbp)
   12caa:	ff ff ff 
   12cad:	c7 85 9c fe ff ff a3 	movl   $0xc9319ba3,-0x164(%rbp)
   12cb4:	9b 31 c9 
   12cb7:	c7 85 a0 fe ff ff fb 	movl   $0xfffffffb,-0x160(%rbp)
   12cbe:	ff ff ff 
   12cc1:	c7 85 a4 fe ff ff 73 	movl   $0xde274b73,-0x15c(%rbp)
   12cc8:	4b 27 de 
   12ccb:	c7 85 a8 fe ff ff fb 	movl   $0xfffffffb,-0x158(%rbp)
   12cd2:	ff ff ff 
   12cd5:	c7 85 ac fe ff ff a9 	movl   $0x6c1b3ba9,-0x154(%rbp)
   12cdc:	3b 1b 6c 
   12cdf:	c7 85 b0 fe ff ff fb 	movl   $0xfffffffb,-0x150(%rbp)
   12ce6:	ff ff ff 
   12ce9:	c7 85 b4 fe ff ff 35 	movl   $0xf8d37935,-0x14c(%rbp)
   12cf0:	79 d3 f8 
   12cf3:	c7 85 b8 fe ff ff 46 	movl   $0xe0f4ee46,-0x148(%rbp)
   12cfa:	ee f4 e0 
   12cfd:	c7 85 bc fe ff ff 46 	movl   $0xe0f4ee46,-0x144(%rbp)
   12d04:	ee f4 e0 
   12d07:	c7 85 c0 fe ff ff 35 	movl   $0xf8d37935,-0x140(%rbp)
   12d0e:	79 d3 f8 
   12d11:	c7 85 c4 fe ff ff fb 	movl   $0xfffffffb,-0x13c(%rbp)
   12d18:	ff ff ff 
   12d1b:	c7 85 c8 fe ff ff a3 	movl   $0xe6980ea3,-0x138(%rbp)
   12d22:	0e 98 e6 
   12d25:	c7 85 cc fe ff ff 73 	movl   $0xde274b73,-0x134(%rbp)
   12d2c:	4b 27 de 
   12d2f:	c7 85 d0 fe ff ff fb 	movl   $0xfffffffb,-0x130(%rbp)
   12d36:	ff ff ff 
   12d39:	c7 85 d4 fe ff ff 73 	movl   $0xde274b73,-0x12c(%rbp)
   12d40:	4b 27 de 
   12d43:	c7 85 d8 fe ff ff a3 	movl   $0xe6980ea3,-0x128(%rbp)
   12d4a:	0e 98 e6 
   12d4d:	c7 85 dc fe ff ff 73 	movl   $0xde274b73,-0x124(%rbp)
   12d54:	4b 27 de 
   12d57:	c7 85 e0 fe ff ff fb 	movl   $0xfffffffb,-0x120(%rbp)
   12d5e:	ff ff ff 
   12d61:	c6 85 23 fd ff ff 24 	movb   $0x24,-0x2dd(%rbp)
   12d68:	c7 85 30 fd ff ff 00 	movl   $0x0,-0x2d0(%rbp)
   12d6f:	00 00 00 
   12d72:	eb 1a                	jmp    12d8e <func_37+0x51d>
   12d74:	8b 85 30 fd ff ff    	mov    -0x2d0(%rbp),%eax
   12d7a:	48 98                	cltq   
   12d7c:	c7 84 85 d0 fd ff ff 	movl   $0xffffffff,-0x230(%rbp,%rax,4)
   12d83:	ff ff ff ff 
   12d87:	83 85 30 fd ff ff 01 	addl   $0x1,-0x2d0(%rbp)
   12d8e:	83 bd 30 fd ff ff 04 	cmpl   $0x4,-0x2d0(%rbp)
   12d95:	7e dd                	jle    12d74 <func_37+0x503>
   12d97:	c7 85 30 fd ff ff 00 	movl   $0x0,-0x2d0(%rbp)
   12d9e:	00 00 00 
   12da1:	eb 1e                	jmp    12dc1 <func_37+0x550>
   12da3:	8b 85 30 fd ff ff    	mov    -0x2d0(%rbp),%eax
   12da9:	48 98                	cltq   
   12dab:	48 8d 95 f0 fe ff ff 	lea    -0x110(%rbp),%rdx
   12db2:	48 89 94 c5 b8 fd ff 	mov    %rdx,-0x248(%rbp,%rax,8)
   12db9:	ff 
   12dba:	83 85 30 fd ff ff 01 	addl   $0x1,-0x2d0(%rbp)
   12dc1:	83 bd 30 fd ff ff 00 	cmpl   $0x0,-0x2d0(%rbp)
   12dc8:	7e d9                	jle    12da3 <func_37+0x532>
   12dca:	c7 85 30 fd ff ff 00 	movl   $0x0,-0x2d0(%rbp)
   12dd1:	00 00 00 
   12dd4:	eb 19                	jmp    12def <func_37+0x57e>
   12dd6:	8b 85 30 fd ff ff    	mov    -0x2d0(%rbp),%eax
   12ddc:	48 98                	cltq   
   12dde:	66 c7 84 45 b2 fd ff 	movw   $0xfff9,-0x24e(%rbp,%rax,2)
   12de5:	ff f9 ff 
   12de8:	83 85 30 fd ff ff 01 	addl   $0x1,-0x2d0(%rbp)
   12def:	83 bd 30 fd ff ff 02 	cmpl   $0x2,-0x2d0(%rbp)
   12df6:	7e de                	jle    12dd6 <func_37+0x565>
   12df8:	c7 85 30 fd ff ff 00 	movl   $0x0,-0x2d0(%rbp)
   12dff:	00 00 00 
   12e02:	eb 1e                	jmp    12e22 <func_37+0x5b1>
   12e04:	8b 85 30 fd ff ff    	mov    -0x2d0(%rbp),%eax
   12e0a:	48 98                	cltq   
   12e0c:	48 8d 15 9d 33 01 00 	lea    0x1339d(%rip),%rdx        # 261b0 <g_1027+0x50>
   12e13:	48 89 94 c5 c0 fd ff 	mov    %rdx,-0x240(%rbp,%rax,8)
   12e1a:	ff 
   12e1b:	83 85 30 fd ff ff 01 	addl   $0x1,-0x2d0(%rbp)
   12e22:	83 bd 30 fd ff ff 01 	cmpl   $0x1,-0x2d0(%rbp)
   12e29:	7e d9                	jle    12e04 <func_37+0x593>
   12e2b:	66 0f be 85 08 fd ff 	movsbw -0x2f8(%rbp),%ax
   12e32:	ff 
   12e33:	48 8b 75 f8          	mov    -0x8(%rbp),%rsi
   12e37:	64 48 33 34 25 28 00 	xor    %fs:0x28,%rsi
   12e3e:	00 00 
   12e40:	74 05                	je     12e47 <func_37+0x5d6>
   12e42:	e8 29 82 ff ff       	callq  b070 <__stack_chk_fail@plt>
   12e47:	c9                   	leaveq 
   12e48:	c3                   	retq   

0000000000012e49 <func_41>:
   12e49:	f3 0f 1e fa          	endbr64 
   12e4d:	55                   	push   %rbp
   12e4e:	48 89 e5             	mov    %rsp,%rbp
   12e51:	41 56                	push   %r14
   12e53:	41 55                	push   %r13
   12e55:	41 54                	push   %r12
   12e57:	53                   	push   %rbx
   12e58:	48 81 ec c0 09 00 00 	sub    $0x9c0,%rsp
   12e5f:	48 89 bd 38 f6 ff ff 	mov    %rdi,-0x9c8(%rbp)
   12e66:	48 89 b5 30 f6 ff ff 	mov    %rsi,-0x9d0(%rbp)
   12e6d:	89 95 2c f6 ff ff    	mov    %edx,-0x9d4(%rbp)
   12e73:	89 c8                	mov    %ecx,%eax
   12e75:	88 85 28 f6 ff ff    	mov    %al,-0x9d8(%rbp)
   12e7b:	64 48 8b 04 25 28 00 	mov    %fs:0x28,%rax
   12e82:	00 00 
   12e84:	48 89 45 d8          	mov    %rax,-0x28(%rbp)
   12e88:	31 c0                	xor    %eax,%eax
   12e8a:	48 8d 05 af 01 01 00 	lea    0x101af(%rip),%rax        # 23040 <g_121>
   12e91:	48 89 85 00 f7 ff ff 	mov    %rax,-0x900(%rbp)
   12e98:	48 8d 05 a9 2a 01 00 	lea    0x12aa9(%rip),%rax        # 25948 <g_692>
   12e9f:	48 89 85 d0 f6 ff ff 	mov    %rax,-0x930(%rbp)
   12ea6:	48 8d 05 db 05 01 00 	lea    0x105db(%rip),%rax        # 23488 <g_1184+0x8>
   12ead:	48 89 85 08 f7 ff ff 	mov    %rax,-0x8f8(%rbp)
   12eb4:	48 8d 85 20 fb ff ff 	lea    -0x4e0(%rbp),%rax
   12ebb:	48 8d 15 1e 14 01 00 	lea    0x1141e(%rip),%rdx        # 242e0 <g_4429+0x9b4>
   12ec2:	b9 36 00 00 00       	mov    $0x36,%ecx
   12ec7:	48 89 c7             	mov    %rax,%rdi
   12eca:	48 89 d6             	mov    %rdx,%rsi
   12ecd:	f3 48 a5             	rep movsq %ds:(%rsi),%es:(%rdi)
   12ed0:	48 8d 05 1d 04 01 00 	lea    0x1041d(%rip),%rax        # 232f4 <g_310+0x294>
   12ed7:	48 89 85 10 f7 ff ff 	mov    %rax,-0x8f0(%rbp)
   12ede:	c7 85 58 f6 ff ff 01 	movl   $0x1,-0x9a8(%rbp)
   12ee5:	00 00 00 
   12ee8:	c7 85 5c f6 ff ff ad 	movl   $0xc089b1ad,-0x9a4(%rbp)
   12eef:	b1 89 c0 
   12ef2:	c7 85 60 f6 ff ff 3b 	movl   $0x27cbda3b,-0x9a0(%rbp)
   12ef9:	da cb 27 
   12efc:	c7 85 64 f6 ff ff 60 	movl   $0xb6017b60,-0x99c(%rbp)
   12f03:	7b 01 b6 
   12f06:	48 b8 d8 bc 42 9e e3 	movabs $0xbc447be39e42bcd8,%rax
   12f0d:	7b 44 bc 
   12f10:	48 89 85 50 f8 ff ff 	mov    %rax,-0x7b0(%rbp)
   12f17:	48 c7 85 58 f8 ff ff 	movq   $0x8,-0x7a8(%rbp)
   12f1e:	08 00 00 00 
   12f22:	48 89 85 60 f8 ff ff 	mov    %rax,-0x7a0(%rbp)
   12f29:	48 89 85 68 f8 ff ff 	mov    %rax,-0x798(%rbp)
   12f30:	48 89 85 70 f8 ff ff 	mov    %rax,-0x790(%rbp)
   12f37:	48 bb 39 61 98 27 44 	movabs $0xa3d4b34427986139,%rbx
   12f3e:	b3 d4 a3 
   12f41:	48 89 9d 78 f8 ff ff 	mov    %rbx,-0x788(%rbp)
   12f48:	48 b9 61 1b c3 f3 0b 	movabs $0xf800800bf3c31b61,%rcx
   12f4f:	80 00 f8 
   12f52:	48 89 8d 80 f8 ff ff 	mov    %rcx,-0x780(%rbp)
   12f59:	48 89 9d 88 f8 ff ff 	mov    %rbx,-0x778(%rbp)
   12f60:	48 89 85 90 f8 ff ff 	mov    %rax,-0x770(%rbp)
   12f67:	48 89 85 98 f8 ff ff 	mov    %rax,-0x768(%rbp)
   12f6e:	c7 85 84 f6 ff ff 05 	movl   $0x5,-0x97c(%rbp)
   12f75:	00 00 00 
   12f78:	48 b8 33 a9 87 11 da 	movabs $0x602f39da1187a933,%rax
   12f7f:	39 2f 60 
   12f82:	48 89 85 f8 f6 ff ff 	mov    %rax,-0x908(%rbp)
   12f89:	48 8d 05 08 29 01 00 	lea    0x12908(%rip),%rax        # 25898 <g_138>
   12f90:	48 89 85 18 f7 ff ff 	mov    %rax,-0x8e8(%rbp)
   12f97:	48 c7 85 d8 f6 ff ff 	movq   $0x0,-0x928(%rbp)
   12f9e:	00 00 00 00 
   12fa2:	48 8d 85 d8 f6 ff ff 	lea    -0x928(%rbp),%rax
   12fa9:	48 89 85 20 f7 ff ff 	mov    %rax,-0x8e0(%rbp)
   12fb0:	c7 85 10 f9 ff ff ff 	movl   $0xffffffff,-0x6f0(%rbp)
   12fb7:	ff ff ff 
   12fba:	c7 85 14 f9 ff ff ff 	movl   $0xffffffff,-0x6ec(%rbp)
   12fc1:	ff ff ff 
   12fc4:	c7 85 18 f9 ff ff ff 	movl   $0xffffffff,-0x6e8(%rbp)
   12fcb:	ff ff ff 
   12fce:	c7 85 1c f9 ff ff ff 	movl   $0xffffffff,-0x6e4(%rbp)
   12fd5:	ff ff ff 
   12fd8:	c7 85 20 f9 ff ff ff 	movl   $0xffffffff,-0x6e0(%rbp)
   12fdf:	ff ff ff 
   12fe2:	c7 85 24 f9 ff ff ff 	movl   $0xffffffff,-0x6dc(%rbp)
   12fe9:	ff ff ff 
   12fec:	c7 85 28 f9 ff ff ff 	movl   $0xffffffff,-0x6d8(%rbp)
   12ff3:	ff ff ff 
   12ff6:	c7 85 2c f9 ff ff ff 	movl   $0xffffffff,-0x6d4(%rbp)
   12ffd:	ff ff ff 
   13000:	c7 85 30 f9 ff ff ff 	movl   $0xffffffff,-0x6d0(%rbp)
   13007:	ff ff ff 
   1300a:	c7 85 34 f9 ff ff ff 	movl   $0xffffffff,-0x6cc(%rbp)
   13011:	ff ff ff 
   13014:	c7 85 38 f9 ff ff ff 	movl   $0xffffffff,-0x6c8(%rbp)
   1301b:	ff ff ff 
   1301e:	c7 85 3c f9 ff ff ff 	movl   $0xffffffff,-0x6c4(%rbp)
   13025:	ff ff ff 
   13028:	c7 85 40 f9 ff ff ff 	movl   $0xffffffff,-0x6c0(%rbp)
   1302f:	ff ff ff 
   13032:	c7 85 44 f9 ff ff ff 	movl   $0xffffffff,-0x6bc(%rbp)
   13039:	ff ff ff 
   1303c:	c7 85 48 f9 ff ff ff 	movl   $0xffffffff,-0x6b8(%rbp)
   13043:	ff ff ff 
   13046:	c7 85 4c f9 ff ff ff 	movl   $0xffffffff,-0x6b4(%rbp)
   1304d:	ff ff ff 
   13050:	c7 85 50 f9 ff ff ff 	movl   $0xffffffff,-0x6b0(%rbp)
   13057:	ff ff ff 
   1305a:	c7 85 54 f9 ff ff ff 	movl   $0xffffffff,-0x6ac(%rbp)
   13061:	ff ff ff 
   13064:	c7 85 58 f9 ff ff ff 	movl   $0xffffffff,-0x6a8(%rbp)
   1306b:	ff ff ff 
   1306e:	c7 85 5c f9 ff ff ff 	movl   $0xffffffff,-0x6a4(%rbp)
   13075:	ff ff ff 
   13078:	c7 85 60 f9 ff ff ff 	movl   $0xffffffff,-0x6a0(%rbp)
   1307f:	ff ff ff 
   13082:	c7 85 64 f9 ff ff ff 	movl   $0xffffffff,-0x69c(%rbp)
   13089:	ff ff ff 
   1308c:	c7 85 68 f9 ff ff ff 	movl   $0xffffffff,-0x698(%rbp)
   13093:	ff ff ff 
   13096:	c7 85 6c f9 ff ff ff 	movl   $0xffffffff,-0x694(%rbp)
   1309d:	ff ff ff 
   130a0:	c7 85 70 f9 ff ff ff 	movl   $0xffffffff,-0x690(%rbp)
   130a7:	ff ff ff 
   130aa:	c7 85 74 f9 ff ff ff 	movl   $0xffffffff,-0x68c(%rbp)
   130b1:	ff ff ff 
   130b4:	c7 85 78 f9 ff ff ff 	movl   $0xffffffff,-0x688(%rbp)
   130bb:	ff ff ff 
   130be:	c7 85 7c f9 ff ff ff 	movl   $0xffffffff,-0x684(%rbp)
   130c5:	ff ff ff 
   130c8:	48 c7 85 e0 f6 ff ff 	movq   $0x0,-0x920(%rbp)
   130cf:	00 00 00 00 
   130d3:	48 c7 85 80 f9 ff ff 	movq   $0x0,-0x680(%rbp)
   130da:	00 00 00 00 
   130de:	48 8d 85 e0 f6 ff ff 	lea    -0x920(%rbp),%rax
   130e5:	48 89 85 88 f9 ff ff 	mov    %rax,-0x678(%rbp)
   130ec:	48 c7 85 90 f9 ff ff 	movq   $0x0,-0x670(%rbp)
   130f3:	00 00 00 00 
   130f7:	48 c7 85 98 f9 ff ff 	movq   $0x0,-0x668(%rbp)
   130fe:	00 00 00 00 
   13102:	48 8d 85 e0 f6 ff ff 	lea    -0x920(%rbp),%rax
   13109:	48 89 85 a0 f9 ff ff 	mov    %rax,-0x660(%rbp)
   13110:	48 8d 85 e0 f6 ff ff 	lea    -0x920(%rbp),%rax
   13117:	48 89 85 a8 f9 ff ff 	mov    %rax,-0x658(%rbp)
   1311e:	48 8d 85 e0 f6 ff ff 	lea    -0x920(%rbp),%rax
   13125:	48 89 85 b0 f9 ff ff 	mov    %rax,-0x650(%rbp)
   1312c:	48 8d 85 e0 f6 ff ff 	lea    -0x920(%rbp),%rax
   13133:	48 89 85 b8 f9 ff ff 	mov    %rax,-0x648(%rbp)
   1313a:	48 8d 85 e0 f6 ff ff 	lea    -0x920(%rbp),%rax
   13141:	48 89 85 c0 f9 ff ff 	mov    %rax,-0x640(%rbp)
   13148:	48 c7 85 c8 f9 ff ff 	movq   $0x0,-0x638(%rbp)
   1314f:	00 00 00 00 
   13153:	48 c7 85 d0 f9 ff ff 	movq   $0x0,-0x630(%rbp)
   1315a:	00 00 00 00 
   1315e:	48 8d 85 e0 f6 ff ff 	lea    -0x920(%rbp),%rax
   13165:	48 89 85 d8 f9 ff ff 	mov    %rax,-0x628(%rbp)
   1316c:	48 c7 85 e0 f9 ff ff 	movq   $0x0,-0x620(%rbp)
   13173:	00 00 00 00 
   13177:	48 8d 85 e0 f6 ff ff 	lea    -0x920(%rbp),%rax
   1317e:	48 89 85 e8 f9 ff ff 	mov    %rax,-0x618(%rbp)
   13185:	48 c7 85 f0 f9 ff ff 	movq   $0x0,-0x610(%rbp)
   1318c:	00 00 00 00 
   13190:	48 c7 85 f8 f9 ff ff 	movq   $0x0,-0x608(%rbp)
   13197:	00 00 00 00 
   1319b:	c6 85 4a f6 ff ff c6 	movb   $0xc6,-0x9b6(%rbp)
   131a2:	c7 85 68 f6 ff ff e4 	movl   $0x27e6ace4,-0x998(%rbp)
   131a9:	ac e6 27 
   131ac:	48 c7 85 28 f7 ff ff 	movq   $0xfffffffffffffff8,-0x8d8(%rbp)
   131b3:	f8 ff ff ff 
   131b7:	c7 85 88 f6 ff ff 48 	movl   $0x20239148,-0x978(%rbp)
   131be:	91 23 20 
   131c1:	48 8d 45 d6          	lea    -0x2a(%rbp),%rax
   131c5:	48 83 c0 01          	add    $0x1,%rax
   131c9:	48 89 85 30 f7 ff ff 	mov    %rax,-0x8d0(%rbp)
   131d0:	48 c7 85 f0 f7 ff ff 	movq   $0x0,-0x810(%rbp)
   131d7:	00 00 00 00 
   131db:	48 c7 85 f8 f7 ff ff 	movq   $0x0,-0x808(%rbp)
   131e2:	00 00 00 00 
   131e6:	48 c7 85 00 f8 ff ff 	movq   $0x0,-0x800(%rbp)
   131ed:	00 00 00 00 
   131f1:	48 c7 85 08 f8 ff ff 	movq   $0x0,-0x7f8(%rbp)
   131f8:	00 00 00 00 
   131fc:	48 c7 85 10 f8 ff ff 	movq   $0x0,-0x7f0(%rbp)
   13203:	00 00 00 00 
   13207:	48 8d 85 f0 f7 ff ff 	lea    -0x810(%rbp),%rax
   1320e:	48 83 c0 20          	add    $0x20,%rax
   13212:	48 89 85 e8 f6 ff ff 	mov    %rax,-0x918(%rbp)
   13219:	48 8d 85 e8 f6 ff ff 	lea    -0x918(%rbp),%rax
   13220:	48 89 85 38 f7 ff ff 	mov    %rax,-0x8c8(%rbp)
   13227:	66 c7 85 52 f6 ff ff 	movw   $0x85e2,-0x9ae(%rbp)
   1322e:	e2 85 
   13230:	c7 85 70 f6 ff ff 00 	movl   $0x0,-0x990(%rbp)
   13237:	00 00 00 
   1323a:	eb 14                	jmp    13250 <func_41+0x407>
   1323c:	8b 85 70 f6 ff ff    	mov    -0x990(%rbp),%eax
   13242:	48 98                	cltq   
   13244:	c6 44 05 d6 a3       	movb   $0xa3,-0x2a(%rbp,%rax,1)
   13249:	83 85 70 f6 ff ff 01 	addl   $0x1,-0x990(%rbp)
   13250:	83 bd 70 f6 ff ff 01 	cmpl   $0x1,-0x990(%rbp)
   13257:	7e e3                	jle    1323c <func_41+0x3f3>
   13259:	0f b7 05 b8 c2 00 00 	movzwl 0xc2b8(%rip),%eax        # 1f518 <l_1164.4774>
   13260:	66 85 c0             	test   %ax,%ax
   13263:	0f 85 32 01 00 00    	jne    1339b <func_41+0x552>
   13269:	0f b7 05 a8 c2 00 00 	movzwl 0xc2a8(%rip),%eax        # 1f518 <l_1164.4774>
   13270:	0f be d8             	movsbl %al,%ebx
   13273:	0f b7 05 a4 c2 00 00 	movzwl 0xc2a4(%rip),%eax        # 1f51e <l_1164.4774+0x6>
   1327a:	44 0f bf e0          	movswl %ax,%r12d
   1327e:	48 8b 05 a3 2e 01 00 	mov    0x12ea3(%rip),%rax        # 26128 <g_928>
   13285:	48 8b 00             	mov    (%rax),%rax
   13288:	48 8b 00             	mov    (%rax),%rax
   1328b:	0f b6 00             	movzbl (%rax),%eax
   1328e:	44 0f be e8          	movsbl %al,%r13d
   13292:	0f b7 05 83 c2 00 00 	movzwl 0xc283(%rip),%eax        # 1f51c <l_1164.4774+0x4>
   13299:	4c 0f bf f0          	movswq %ax,%r14
   1329d:	0f b7 05 7a c2 00 00 	movzwl 0xc27a(%rip),%eax        # 1f51e <l_1164.4774+0x6>
   132a4:	48 0f bf d0          	movswq %ax,%rdx
   132a8:	48 8b 85 00 f7 ff ff 	mov    -0x900(%rbp),%rax
   132af:	48 89 10             	mov    %rdx,(%rax)
   132b2:	48 8b 05 87 26 01 00 	mov    0x12687(%rip),%rax        # 25940 <g_628>
   132b9:	48 8b 10             	mov    (%rax),%rdx
   132bc:	48 8b 85 d0 f6 ff ff 	mov    -0x930(%rbp),%rax
   132c3:	48 39 c2             	cmp    %rax,%rdx
   132c6:	0f 95 c0             	setne  %al
   132c9:	0f b6 c0             	movzbl %al,%eax
   132cc:	be 07 00 00 00       	mov    $0x7,%esi
   132d1:	89 c7                	mov    %eax,%edi
   132d3:	e8 25 8c ff ff       	callq  befd <safe_mod_func_uint32_t_u_u>
   132d8:	0f b7 05 39 c2 00 00 	movzwl 0xc239(%rip),%eax        # 1f518 <l_1164.4774>
   132df:	98                   	cwtl   
   132e0:	39 85 2c f6 ff ff    	cmp    %eax,-0x9d4(%rbp)
   132e6:	0f 94 c0             	sete   %al
   132e9:	0f b6 c0             	movzbl %al,%eax
   132ec:	4c 89 f6             	mov    %r14,%rsi
   132ef:	48 89 c7             	mov    %rax,%rdi
   132f2:	e8 89 8d ff ff       	callq  c080 <safe_mod_func_uint64_t_u_u>
   132f7:	89 c2                	mov    %eax,%edx
   132f9:	48 8b 85 30 f6 ff ff 	mov    -0x9d0(%rbp),%rax
   13300:	89 10                	mov    %edx,(%rax)
   13302:	48 8b 85 30 f6 ff ff 	mov    -0x9d0(%rbp),%rax
   13309:	8b 00                	mov    (%rax),%eax
   1330b:	0f b6 c0             	movzbl %al,%eax
   1330e:	be 01 00 00 00       	mov    $0x1,%esi
   13313:	89 c7                	mov    %eax,%edi
   13315:	e8 eb 88 ff ff       	callq  bc05 <safe_lshift_func_uint8_t_u_s>
   1331a:	0f b6 d0             	movzbl %al,%edx
   1331d:	48 8b 85 08 f7 ff ff 	mov    -0x8f8(%rbp),%rax
   13324:	48 89 10             	mov    %rdx,(%rax)
   13327:	be 01 00 00 00       	mov    $0x1,%esi
   1332c:	bf 01 00 00 00       	mov    $0x1,%edi
   13331:	e8 f8 8c ff ff       	callq  c02e <safe_add_func_uint64_t_u_u>
   13336:	48 8b 95 b0 fc ff ff 	mov    -0x350(%rbp),%rdx
   1333d:	48 8b 85 50 fb ff ff 	mov    -0x4b0(%rbp),%rax
   13344:	48 39 c2             	cmp    %rax,%rdx
   13347:	0f 94 c0             	sete   %al
   1334a:	89 c2                	mov    %eax,%edx
   1334c:	0f b7 05 c7 c1 00 00 	movzwl 0xc1c7(%rip),%eax        # 1f51a <l_1164.4774+0x2>
   13353:	31 d0                	xor    %edx,%eax
   13355:	0f be c0             	movsbl %al,%eax
   13358:	44 89 ee             	mov    %r13d,%esi
   1335b:	89 c7                	mov    %eax,%edi
   1335d:	e8 90 7e ff ff       	callq  b1f2 <safe_sub_func_int8_t_s_s>
   13362:	44 89 e6             	mov    %r12d,%esi
   13365:	bf 95 b6 49 02       	mov    $0x249b695,%edi
   1336a:	e8 b6 8b ff ff       	callq  bf25 <safe_div_func_uint32_t_u_u>
   1336f:	3d 6a f8 00 00       	cmp    $0xf86a,%eax
   13374:	0f 95 c0             	setne  %al
   13377:	0f b6 c0             	movzbl %al,%eax
   1337a:	be 02 00 00 00       	mov    $0x2,%esi
   1337f:	89 c7                	mov    %eax,%edi
   13381:	e8 ab 7e ff ff       	callq  b231 <safe_mod_func_int8_t_s_s>
   13386:	0f b7 05 8f c1 00 00 	movzwl 0xc18f(%rip),%eax        # 1f51c <l_1164.4774+0x4>
   1338d:	0f be c0             	movsbl %al,%eax
   13390:	89 de                	mov    %ebx,%esi
   13392:	89 c7                	mov    %eax,%edi
   13394:	e8 98 7e ff ff       	callq  b231 <safe_mod_func_int8_t_s_s>
   13399:	84 c0                	test   %al,%al
   1339b:	ba 00 00 00 00       	mov    $0x0,%edx
   133a0:	48 8b 85 10 f7 ff ff 	mov    -0x8f0(%rbp),%rax
   133a7:	8b 00                	mov    (%rax),%eax
   133a9:	21 c2                	and    %eax,%edx
   133ab:	48 8b 85 10 f7 ff ff 	mov    -0x8f0(%rbp),%rax
   133b2:	89 10                	mov    %edx,(%rax)
   133b4:	c6 05 2d 4a 01 00 00 	movb   $0x0,0x14a2d(%rip)        # 27de8 <g_401>
   133bb:	e9 67 01 00 00       	jmpq   13527 <func_41+0x6de>
   133c0:	c7 85 f0 f6 ff ff ff 	movl   $0xffffffff,-0x910(%rbp)
   133c7:	ff ff ff 
   133ca:	c7 85 8c f6 ff ff f7 	movl   $0x718ab4f7,-0x974(%rbp)
   133d1:	b4 8a 71 
   133d4:	48 8d 05 79 00 01 00 	lea    0x10079(%rip),%rax        # 23454 <g_340>
   133db:	48 89 85 d0 fc ff ff 	mov    %rax,-0x330(%rbp)
   133e2:	48 8d 85 f0 f6 ff ff 	lea    -0x910(%rbp),%rax
   133e9:	48 89 85 d8 fc ff ff 	mov    %rax,-0x328(%rbp)
   133f0:	48 8d 85 f0 f6 ff ff 	lea    -0x910(%rbp),%rax
   133f7:	48 89 85 e0 fc ff ff 	mov    %rax,-0x320(%rbp)
   133fe:	48 8d 05 4f 00 01 00 	lea    0x1004f(%rip),%rax        # 23454 <g_340>
   13405:	48 89 85 e8 fc ff ff 	mov    %rax,-0x318(%rbp)
   1340c:	48 8d 85 f0 f6 ff ff 	lea    -0x910(%rbp),%rax
   13413:	48 89 85 f0 fc ff ff 	mov    %rax,-0x310(%rbp)
   1341a:	48 8d 85 f0 f6 ff ff 	lea    -0x910(%rbp),%rax
   13421:	48 89 85 f8 fc ff ff 	mov    %rax,-0x308(%rbp)
   13428:	48 8d 05 25 00 01 00 	lea    0x10025(%rip),%rax        # 23454 <g_340>
   1342f:	48 89 85 00 fd ff ff 	mov    %rax,-0x300(%rbp)
   13436:	48 8d 85 f0 f6 ff ff 	lea    -0x910(%rbp),%rax
   1343d:	48 89 85 08 fd ff ff 	mov    %rax,-0x2f8(%rbp)
   13444:	48 8d 85 f0 f6 ff ff 	lea    -0x910(%rbp),%rax
   1344b:	48 89 85 10 fd ff ff 	mov    %rax,-0x2f0(%rbp)
   13452:	48 8d 05 fb ff 00 00 	lea    0xfffb(%rip),%rax        # 23454 <g_340>
   13459:	48 89 85 18 fd ff ff 	mov    %rax,-0x2e8(%rbp)
   13460:	48 8d 85 f0 f6 ff ff 	lea    -0x910(%rbp),%rax
   13467:	48 89 85 20 fd ff ff 	mov    %rax,-0x2e0(%rbp)
   1346e:	48 8d 85 f0 f6 ff ff 	lea    -0x910(%rbp),%rax
   13475:	48 89 85 28 fd ff ff 	mov    %rax,-0x2d8(%rbp)
   1347c:	48 8d 05 d1 ff 00 00 	lea    0xffd1(%rip),%rax        # 23454 <g_340>
   13483:	48 89 85 30 fd ff ff 	mov    %rax,-0x2d0(%rbp)
   1348a:	48 8d 85 f0 f6 ff ff 	lea    -0x910(%rbp),%rax
   13491:	48 89 85 38 fd ff ff 	mov    %rax,-0x2c8(%rbp)
   13498:	48 8d 85 f0 f6 ff ff 	lea    -0x910(%rbp),%rax
   1349f:	48 89 85 40 fd ff ff 	mov    %rax,-0x2c0(%rbp)
   134a6:	48 8d 05 a7 ff 00 00 	lea    0xffa7(%rip),%rax        # 23454 <g_340>
   134ad:	48 89 85 48 fd ff ff 	mov    %rax,-0x2b8(%rbp)
   134b4:	48 8d 85 f0 f6 ff ff 	lea    -0x910(%rbp),%rax
   134bb:	48 89 85 50 fd ff ff 	mov    %rax,-0x2b0(%rbp)
   134c2:	48 8d 85 f0 f6 ff ff 	lea    -0x910(%rbp),%rax
   134c9:	48 89 85 58 fd ff ff 	mov    %rax,-0x2a8(%rbp)
   134d0:	48 8d 05 7d ff 00 00 	lea    0xff7d(%rip),%rax        # 23454 <g_340>
   134d7:	48 89 85 60 fd ff ff 	mov    %rax,-0x2a0(%rbp)
   134de:	48 8d 85 f0 f6 ff ff 	lea    -0x910(%rbp),%rax
   134e5:	48 89 85 68 fd ff ff 	mov    %rax,-0x298(%rbp)
   134ec:	48 8b 85 80 f8 ff ff 	mov    -0x780(%rbp),%rax
   134f3:	48 83 c0 01          	add    $0x1,%rax
   134f7:	48 89 85 80 f8 ff ff 	mov    %rax,-0x780(%rbp)
   134fe:	48 8b 85 38 f6 ff ff 	mov    -0x9c8(%rbp),%rax
   13505:	8b 00                	mov    (%rax),%eax
   13507:	85 c0                	test   %eax,%eax
   13509:	75 2d                	jne    13538 <func_41+0x6ef>
   1350b:	0f b6 05 d6 48 01 00 	movzbl 0x148d6(%rip),%eax        # 27de8 <g_401>
   13512:	0f b6 c0             	movzbl %al,%eax
   13515:	be 01 00 00 00       	mov    $0x1,%esi
   1351a:	89 c7                	mov    %eax,%edi
   1351c:	e8 97 89 ff ff       	callq  beb8 <safe_add_func_uint32_t_u_u>
   13521:	88 05 c1 48 01 00    	mov    %al,0x148c1(%rip)        # 27de8 <g_401>
   13527:	0f b6 05 ba 48 01 00 	movzbl 0x148ba(%rip),%eax        # 27de8 <g_401>
   1352e:	3c 1b                	cmp    $0x1b,%al
   13530:	0f 84 8a fe ff ff    	je     133c0 <func_41+0x577>
   13536:	eb 01                	jmp    13539 <func_41+0x6f0>
   13538:	90                   	nop
   13539:	c7 05 11 fb 00 00 00 	movl   $0x0,0xfb11(%rip)        # 23054 <g_200>
   13540:	00 00 00 
   13543:	e9 6f 0e 00 00       	jmpq   143b7 <func_41+0x156e>
   13548:	c6 85 49 f6 ff ff 4d 	movb   $0x4d,-0x9b7(%rbp)
   1354f:	48 8d 85 00 fa ff ff 	lea    -0x600(%rbp),%rax
   13556:	48 8d 15 23 a3 00 00 	lea    0xa323(%rip),%rdx        # 1d880 <g_3489+0x820>
   1355d:	b9 24 00 00 00       	mov    $0x24,%ecx
   13562:	48 89 c7             	mov    %rax,%rdi
   13565:	48 89 d6             	mov    %rdx,%rsi
   13568:	f3 48 a5             	rep movsq %ds:(%rsi),%es:(%rdi)
   1356b:	c7 85 90 f6 ff ff 17 	movl   $0xa0d4d217,-0x970(%rbp)
   13572:	d2 d4 a0 
   13575:	c6 85 4b f6 ff ff ff 	movb   $0xff,-0x9b5(%rbp)
   1357c:	48 8d 05 55 48 01 00 	lea    0x14855(%rip),%rax        # 27dd8 <g_204>
   13583:	48 89 85 40 f7 ff ff 	mov    %rax,-0x8c0(%rbp)
   1358a:	48 c7 85 48 f7 ff ff 	movq   $0x0,-0x8b8(%rbp)
   13591:	00 00 00 00 
   13595:	48 8d 85 20 fb ff ff 	lea    -0x4e0(%rbp),%rax
   1359c:	48 05 90 01 00 00    	add    $0x190,%rax
   135a2:	48 89 85 50 f7 ff ff 	mov    %rax,-0x8b0(%rbp)
   135a9:	66 c7 85 54 f6 ff ff 	movw   $0xfffc,-0x9ac(%rbp)
   135b0:	fc ff 
   135b2:	48 8d 05 8f 23 01 00 	lea    0x1238f(%rip),%rax        # 25948 <g_692>
   135b9:	48 89 85 58 f7 ff ff 	mov    %rax,-0x8a8(%rbp)
   135c0:	48 c7 85 60 f7 ff ff 	movq   $0x5,-0x8a0(%rbp)
   135c7:	05 00 00 00 
   135cb:	c6 85 4c f6 ff ff 3a 	movb   $0x3a,-0x9b4(%rbp)
   135d2:	48 8d 05 4f 2b 01 00 	lea    0x12b4f(%rip),%rax        # 26128 <g_928>
   135d9:	48 89 85 68 f7 ff ff 	mov    %rax,-0x898(%rbp)
   135e0:	48 8d 85 d8 f6 ff ff 	lea    -0x928(%rbp),%rax
   135e7:	48 89 85 70 f7 ff ff 	mov    %rax,-0x890(%rbp)
   135ee:	48 8b 85 38 f6 ff ff 	mov    -0x9c8(%rbp),%rax
   135f5:	c7 00 ff ff ff ff    	movl   $0xffffffff,(%rax)
   135fb:	48 c7 85 30 f6 ff ff 	movq   $0x0,-0x9d0(%rbp)
   13602:	00 00 00 00 
   13606:	80 bd 49 f6 ff ff 00 	cmpb   $0x0,-0x9b7(%rbp)
   1360d:	0f 84 df 03 00 00    	je     139f2 <func_41+0xba9>
   13613:	c6 85 4e f6 ff ff 4c 	movb   $0x4c,-0x9b2(%rbp)
   1361a:	c7 85 a8 f6 ff ff 00 	movl   $0x0,-0x958(%rbp)
   13621:	00 00 00 
   13624:	c7 85 ac f6 ff ff 2f 	movl   $0x6a82712f,-0x954(%rbp)
   1362b:	71 82 6a 
   1362e:	c7 85 b0 f6 ff ff 00 	movl   $0x0,-0x950(%rbp)
   13635:	00 00 00 
   13638:	c7 85 b4 f6 ff ff 00 	movl   $0x0,-0x94c(%rbp)
   1363f:	00 00 00 
   13642:	c6 85 4f f6 ff ff d2 	movb   $0xd2,-0x9b1(%rbp)
   13649:	48 8d 85 20 fb ff ff 	lea    -0x4e0(%rbp),%rax
   13650:	48 05 90 01 00 00    	add    $0x190,%rax
   13656:	48 89 85 d0 fc ff ff 	mov    %rax,-0x330(%rbp)
   1365d:	48 8d 85 20 fb ff ff 	lea    -0x4e0(%rbp),%rax
   13664:	48 05 90 01 00 00    	add    $0x190,%rax
   1366a:	48 89 85 d8 fc ff ff 	mov    %rax,-0x328(%rbp)
   13671:	48 8d 85 20 fb ff ff 	lea    -0x4e0(%rbp),%rax
   13678:	48 05 90 01 00 00    	add    $0x190,%rax
   1367e:	48 89 85 e0 fc ff ff 	mov    %rax,-0x320(%rbp)
   13685:	48 8d 85 20 fb ff ff 	lea    -0x4e0(%rbp),%rax
   1368c:	48 05 90 01 00 00    	add    $0x190,%rax
   13692:	48 89 85 e8 fc ff ff 	mov    %rax,-0x318(%rbp)
   13699:	48 8d 85 20 fb ff ff 	lea    -0x4e0(%rbp),%rax
   136a0:	48 05 90 01 00 00    	add    $0x190,%rax
   136a6:	48 89 85 f0 fc ff ff 	mov    %rax,-0x310(%rbp)
   136ad:	48 8d 85 20 fb ff ff 	lea    -0x4e0(%rbp),%rax
   136b4:	48 05 90 01 00 00    	add    $0x190,%rax
   136ba:	48 89 85 f8 fc ff ff 	mov    %rax,-0x308(%rbp)
   136c1:	48 8d 85 20 fb ff ff 	lea    -0x4e0(%rbp),%rax
   136c8:	48 05 90 01 00 00    	add    $0x190,%rax
   136ce:	48 89 85 00 fd ff ff 	mov    %rax,-0x300(%rbp)
   136d5:	48 8d 85 20 fb ff ff 	lea    -0x4e0(%rbp),%rax
   136dc:	48 05 38 01 00 00    	add    $0x138,%rax
   136e2:	48 89 85 08 fd ff ff 	mov    %rax,-0x2f8(%rbp)
   136e9:	48 8d 85 20 fb ff ff 	lea    -0x4e0(%rbp),%rax
   136f0:	48 05 38 01 00 00    	add    $0x138,%rax
   136f6:	48 89 85 10 fd ff ff 	mov    %rax,-0x2f0(%rbp)
   136fd:	48 8d 85 20 fb ff ff 	lea    -0x4e0(%rbp),%rax
   13704:	48 05 38 01 00 00    	add    $0x138,%rax
   1370a:	48 89 85 18 fd ff ff 	mov    %rax,-0x2e8(%rbp)
   13711:	48 8d 85 20 fb ff ff 	lea    -0x4e0(%rbp),%rax
   13718:	48 05 38 01 00 00    	add    $0x138,%rax
   1371e:	48 89 85 20 fd ff ff 	mov    %rax,-0x2e0(%rbp)
   13725:	48 8d 85 20 fb ff ff 	lea    -0x4e0(%rbp),%rax
   1372c:	48 05 38 01 00 00    	add    $0x138,%rax
   13732:	48 89 85 28 fd ff ff 	mov    %rax,-0x2d8(%rbp)
   13739:	48 8d 85 20 fb ff ff 	lea    -0x4e0(%rbp),%rax
   13740:	48 05 38 01 00 00    	add    $0x138,%rax
   13746:	48 89 85 30 fd ff ff 	mov    %rax,-0x2d0(%rbp)
   1374d:	48 8d 85 20 fb ff ff 	lea    -0x4e0(%rbp),%rax
   13754:	48 05 38 01 00 00    	add    $0x138,%rax
   1375a:	48 89 85 38 fd ff ff 	mov    %rax,-0x2c8(%rbp)
   13761:	48 8d 85 20 fb ff ff 	lea    -0x4e0(%rbp),%rax
   13768:	48 05 90 01 00 00    	add    $0x190,%rax
   1376e:	48 89 85 40 fd ff ff 	mov    %rax,-0x2c0(%rbp)
   13775:	48 8d 85 20 fb ff ff 	lea    -0x4e0(%rbp),%rax
   1377c:	48 05 90 01 00 00    	add    $0x190,%rax
   13782:	48 89 85 48 fd ff ff 	mov    %rax,-0x2b8(%rbp)
   13789:	48 8d 85 20 fb ff ff 	lea    -0x4e0(%rbp),%rax
   13790:	48 05 90 01 00 00    	add    $0x190,%rax
   13796:	48 89 85 50 fd ff ff 	mov    %rax,-0x2b0(%rbp)
   1379d:	48 8d 85 20 fb ff ff 	lea    -0x4e0(%rbp),%rax
   137a4:	48 05 90 01 00 00    	add    $0x190,%rax
   137aa:	48 89 85 58 fd ff ff 	mov    %rax,-0x2a8(%rbp)
   137b1:	48 8d 85 20 fb ff ff 	lea    -0x4e0(%rbp),%rax
   137b8:	48 05 90 01 00 00    	add    $0x190,%rax
   137be:	48 89 85 60 fd ff ff 	mov    %rax,-0x2a0(%rbp)
   137c5:	48 8d 85 20 fb ff ff 	lea    -0x4e0(%rbp),%rax
   137cc:	48 05 90 01 00 00    	add    $0x190,%rax
   137d2:	48 89 85 68 fd ff ff 	mov    %rax,-0x298(%rbp)
   137d9:	48 8d 85 20 fb ff ff 	lea    -0x4e0(%rbp),%rax
   137e0:	48 05 90 01 00 00    	add    $0x190,%rax
   137e6:	48 89 85 70 fd ff ff 	mov    %rax,-0x290(%rbp)
   137ed:	c7 85 b8 f6 ff ff d1 	movl   $0x563ccad1,-0x948(%rbp)
   137f4:	ca 3c 56 
   137f7:	c7 85 a0 f8 ff ff 19 	movl   $0xa1857e19,-0x760(%rbp)
   137fe:	7e 85 a1 
   13801:	c7 85 a4 f8 ff ff 19 	movl   $0xa1857e19,-0x75c(%rbp)
   13808:	7e 85 a1 
   1380b:	c7 85 a8 f8 ff ff 19 	movl   $0xa1857e19,-0x758(%rbp)
   13812:	7e 85 a1 
   13815:	c7 85 ac f8 ff ff 19 	movl   $0xa1857e19,-0x754(%rbp)
   1381c:	7e 85 a1 
   1381f:	c7 85 b0 f8 ff ff 19 	movl   $0xa1857e19,-0x750(%rbp)
   13826:	7e 85 a1 
   13829:	c7 85 b4 f8 ff ff 00 	movl   $0x0,-0x74c(%rbp)
   13830:	00 00 00 
   13833:	c7 85 b8 f8 ff ff 00 	movl   $0x0,-0x748(%rbp)
   1383a:	00 00 00 
   1383d:	c7 85 bc f8 ff ff 00 	movl   $0x0,-0x744(%rbp)
   13844:	00 00 00 
   13847:	c7 85 c0 f8 ff ff 00 	movl   $0x0,-0x740(%rbp)
   1384e:	00 00 00 
   13851:	c7 85 c4 f8 ff ff 00 	movl   $0x0,-0x73c(%rbp)
   13858:	00 00 00 
   1385b:	c7 85 c8 f8 ff ff 19 	movl   $0xa1857e19,-0x738(%rbp)
   13862:	7e 85 a1 
   13865:	c7 85 cc f8 ff ff 19 	movl   $0xa1857e19,-0x734(%rbp)
   1386c:	7e 85 a1 
   1386f:	c7 85 d0 f8 ff ff 19 	movl   $0xa1857e19,-0x730(%rbp)
   13876:	7e 85 a1 
   13879:	c7 85 d4 f8 ff ff 19 	movl   $0xa1857e19,-0x72c(%rbp)
   13880:	7e 85 a1 
   13883:	c7 85 d8 f8 ff ff 19 	movl   $0xa1857e19,-0x728(%rbp)
   1388a:	7e 85 a1 
   1388d:	c7 85 dc f8 ff ff 00 	movl   $0x0,-0x724(%rbp)
   13894:	00 00 00 
   13897:	c7 85 e0 f8 ff ff 00 	movl   $0x0,-0x720(%rbp)
   1389e:	00 00 00 
   138a1:	c7 85 e4 f8 ff ff 00 	movl   $0x0,-0x71c(%rbp)
   138a8:	00 00 00 
   138ab:	c7 85 e8 f8 ff ff 00 	movl   $0x0,-0x718(%rbp)
   138b2:	00 00 00 
   138b5:	c7 85 ec f8 ff ff 00 	movl   $0x0,-0x714(%rbp)
   138bc:	00 00 00 
   138bf:	c7 85 f0 f8 ff ff 19 	movl   $0xa1857e19,-0x710(%rbp)
   138c6:	7e 85 a1 
   138c9:	c7 85 f4 f8 ff ff 19 	movl   $0xa1857e19,-0x70c(%rbp)
   138d0:	7e 85 a1 
   138d3:	c7 85 f8 f8 ff ff 19 	movl   $0xa1857e19,-0x708(%rbp)
   138da:	7e 85 a1 
   138dd:	c7 85 fc f8 ff ff 19 	movl   $0xa1857e19,-0x704(%rbp)
   138e4:	7e 85 a1 
   138e7:	c7 85 00 f9 ff ff 19 	movl   $0xa1857e19,-0x700(%rbp)
   138ee:	7e 85 a1 
   138f1:	48 8d 05 e8 1f 01 00 	lea    0x11fe8(%rip),%rax        # 258e0 <g_196>
   138f8:	48 89 85 c8 f7 ff ff 	mov    %rax,-0x838(%rbp)
   138ff:	48 c7 85 d0 f7 ff ff 	movq   $0x0,-0x830(%rbp)
   13906:	00 00 00 00 
   1390a:	c7 85 bc f6 ff ff 02 	movl   $0x2,-0x944(%rbp)
   13911:	00 00 00 
   13914:	c7 85 74 f6 ff ff 00 	movl   $0x0,-0x98c(%rbp)
   1391b:	00 00 00 
   1391e:	eb 1a                	jmp    1393a <func_41+0xaf1>
   13920:	8b 85 74 f6 ff ff    	mov    -0x98c(%rbp),%eax
   13926:	48 98                	cltq   
   13928:	c7 84 85 20 f8 ff ff 	movl   $0x5,-0x7e0(%rbp,%rax,4)
   1392f:	05 00 00 00 
   13933:	83 85 74 f6 ff ff 01 	addl   $0x1,-0x98c(%rbp)
   1393a:	83 bd 74 f6 ff ff 09 	cmpl   $0x9,-0x98c(%rbp)
   13941:	7e dd                	jle    13920 <func_41+0xad7>
   13943:	c7 05 07 fb 00 00 00 	movl   $0x0,0xfb07(%rip)        # 23454 <g_340>
   1394a:	00 00 00 
   1394d:	e9 8d 00 00 00       	jmpq   139df <func_41+0xb96>
   13952:	c6 85 50 f6 ff ff 86 	movb   $0x86,-0x9b0(%rbp)
   13959:	48 8d 05 38 28 01 00 	lea    0x12838(%rip),%rax        # 26198 <g_1027+0x38>
   13960:	48 89 85 d8 f7 ff ff 	mov    %rax,-0x828(%rbp)
   13967:	c7 85 c0 f6 ff ff 1a 	movl   $0xe197d71a,-0x940(%rbp)
   1396e:	d7 97 e1 
   13971:	c7 85 c4 f6 ff ff 71 	movl   $0xb462f471,-0x93c(%rbp)
   13978:	f4 62 b4 
   1397b:	c7 85 c8 f6 ff ff 4e 	movl   $0x47f1dd4e,-0x938(%rbp)
   13982:	dd f1 47 
   13985:	c7 85 cc f6 ff ff da 	movl   $0x3ec64eda,-0x934(%rbp)
   1398c:	4e c6 3e 
   1398f:	c6 85 51 f6 ff ff e9 	movb   $0xe9,-0x9af(%rbp)
   13996:	48 c7 85 e0 f7 ff ff 	movq   $0xffffffffffffffff,-0x820(%rbp)
   1399d:	ff ff ff ff 
   139a1:	c7 85 78 f6 ff ff 00 	movl   $0x0,-0x988(%rbp)
   139a8:	00 00 00 
   139ab:	eb 1a                	jmp    139c7 <func_41+0xb7e>
   139ad:	8b 85 78 f6 ff ff    	mov    -0x988(%rbp),%eax
   139b3:	48 98                	cltq   
   139b5:	c7 84 85 e8 f7 ff ff 	movl   $0x9,-0x818(%rbp,%rax,4)
   139bc:	09 00 00 00 
   139c0:	83 85 78 f6 ff ff 01 	addl   $0x1,-0x988(%rbp)
   139c7:	83 bd 78 f6 ff ff 01 	cmpl   $0x1,-0x988(%rbp)
   139ce:	7e dd                	jle    139ad <func_41+0xb64>
   139d0:	8b 05 7e fa 00 00    	mov    0xfa7e(%rip),%eax        # 23454 <g_340>
   139d6:	83 e8 01             	sub    $0x1,%eax
   139d9:	89 05 75 fa 00 00    	mov    %eax,0xfa75(%rip)        # 23454 <g_340>
   139df:	8b 05 6f fa 00 00    	mov    0xfa6f(%rip),%eax        # 23454 <g_340>
   139e5:	85 c0                	test   %eax,%eax
   139e7:	0f 89 65 ff ff ff    	jns    13952 <func_41+0xb09>
   139ed:	e9 b6 09 00 00       	jmpq   143a8 <func_41+0x155f>
   139f2:	48 b8 d2 a7 d7 e6 38 	movabs $0x54815e38e6d7a7d2,%rax
   139f9:	5e 81 54 
   139fc:	48 89 85 78 f7 ff ff 	mov    %rax,-0x888(%rbp)
   13a03:	c7 85 6c f6 ff ff 0a 	movl   $0x1bf46b0a,-0x994(%rbp)
   13a0a:	6b f4 1b 
   13a0d:	c7 85 94 f6 ff ff 33 	movl   $0xa7097e33,-0x96c(%rbp)
   13a14:	7e 09 a7 
   13a17:	c7 85 98 f6 ff ff ff 	movl   $0xffffffff,-0x968(%rbp)
   13a1e:	ff ff ff 
   13a21:	c7 85 7c f6 ff ff bf 	movl   $0x389c7dbf,-0x984(%rbp)
   13a28:	7d 9c 38 
   13a2b:	c7 85 80 f6 ff ff 00 	movl   $0x0,-0x980(%rbp)
   13a32:	00 00 00 
   13a35:	c6 85 4d f6 ff ff 04 	movb   $0x4,-0x9b3(%rbp)
   13a3c:	48 c7 85 f8 f6 ff ff 	movq   $0x0,-0x908(%rbp)
   13a43:	00 00 00 00 
   13a47:	e9 4b 09 00 00       	jmpq   14397 <func_41+0x154e>
   13a4c:	48 b8 4b 0d a6 99 d9 	movabs $0x8ba433d999a60d4b,%rax
   13a53:	33 a4 8b 
   13a56:	48 89 85 80 f7 ff ff 	mov    %rax,-0x880(%rbp)
   13a5d:	c7 85 9c f6 ff ff 09 	movl   $0x9,-0x964(%rbp)
   13a64:	00 00 00 
   13a67:	c7 85 a0 f6 ff ff ff 	movl   $0xffffffff,-0x960(%rbp)
   13a6e:	ff ff ff 
   13a71:	48 8d 05 d8 f5 00 00 	lea    0xf5d8(%rip),%rax        # 23050 <g_188>
   13a78:	48 89 85 88 f7 ff ff 	mov    %rax,-0x878(%rbp)
   13a7f:	66 c7 05 e4 f9 00 00 	movw   $0xffed,0xf9e4(%rip)        # 2346c <g_810>
   13a86:	ed ff 
   13a88:	e9 9c 00 00 00       	jmpq   13b29 <func_41+0xce0>
   13a8d:	c7 05 c1 f5 00 00 16 	movl   $0x16,0xf5c1(%rip)        # 23058 <g_241>
   13a94:	00 00 00 
   13a97:	eb 20                	jmp    13ab9 <func_41+0xc70>
   13a99:	48 8b 05 d8 34 01 00 	mov    0x134d8(%rip),%rax        # 26f78 <g_1479>
   13aa0:	48 8d 95 68 f6 ff ff 	lea    -0x998(%rbp),%rdx
   13aa7:	48 89 10             	mov    %rdx,(%rax)
   13aaa:	8b 05 a8 f5 00 00    	mov    0xf5a8(%rip),%eax        # 23058 <g_241>
   13ab0:	83 c0 01             	add    $0x1,%eax
   13ab3:	89 05 9f f5 00 00    	mov    %eax,0xf59f(%rip)        # 23058 <g_241>
   13ab9:	8b 05 99 f5 00 00    	mov    0xf599(%rip),%eax        # 23058 <g_241>
   13abf:	83 f8 28             	cmp    $0x28,%eax
   13ac2:	76 d5                	jbe    13a99 <func_41+0xc50>
   13ac4:	48 83 bd 80 f7 ff ff 	cmpq   $0x0,-0x880(%rbp)
   13acb:	00 
   13acc:	75 6e                	jne    13b3c <func_41+0xcf3>
   13ace:	c6 85 49 f6 ff ff 00 	movb   $0x0,-0x9b7(%rbp)
   13ad5:	eb 20                	jmp    13af7 <func_41+0xcae>
   13ad7:	c7 85 a4 f6 ff ff 01 	movl   $0x1,-0x95c(%rbp)
   13ade:	00 00 00 
   13ae1:	48 8b 05 08 1e 01 00 	mov    0x11e08(%rip),%rax        # 258f0 <g_199>
   13ae8:	8b 00                	mov    (%rax),%eax
   13aea:	89 85 a4 f6 ff ff    	mov    %eax,-0x95c(%rbp)
   13af0:	80 85 49 f6 ff ff 01 	addb   $0x1,-0x9b7(%rbp)
   13af7:	80 bd 49 f6 ff ff 02 	cmpb   $0x2,-0x9b7(%rbp)
   13afe:	76 d7                	jbe    13ad7 <func_41+0xc8e>
   13b00:	48 83 bd 80 f7 ff ff 	cmpq   $0x0,-0x880(%rbp)
   13b07:	00 
   13b08:	75 35                	jne    13b3f <func_41+0xcf6>
   13b0a:	0f b7 05 5b f9 00 00 	movzwl 0xf95b(%rip),%eax        # 2346c <g_810>
   13b11:	0f be c0             	movsbl %al,%eax
   13b14:	be 03 00 00 00       	mov    $0x3,%esi
   13b19:	89 c7                	mov    %eax,%edi
   13b1b:	e8 b4 76 ff ff       	callq  b1d4 <safe_add_func_int8_t_s_s>
   13b20:	66 98                	cbtw   
   13b22:	66 89 05 43 f9 00 00 	mov    %ax,0xf943(%rip)        # 2346c <g_810>
   13b29:	0f b7 05 3c f9 00 00 	movzwl 0xf93c(%rip),%eax        # 2346c <g_810>
   13b30:	66 83 f8 1c          	cmp    $0x1c,%ax
   13b34:	0f 87 53 ff ff ff    	ja     13a8d <func_41+0xc44>
   13b3a:	eb 04                	jmp    13b40 <func_41+0xcf7>
   13b3c:	90                   	nop
   13b3d:	eb 01                	jmp    13b40 <func_41+0xcf7>
   13b3f:	90                   	nop
   13b40:	48 83 bd 78 f7 ff ff 	cmpq   $0x0,-0x888(%rbp)
   13b47:	00 
   13b48:	0f 84 24 08 00 00    	je     14372 <func_41+0x1529>
   13b4e:	48 b8 0a 67 f6 77 76 	movabs $0x95b59b7677f6670a,%rax
   13b55:	9b b5 95 
   13b58:	48 89 85 90 f7 ff ff 	mov    %rax,-0x870(%rbp)
   13b5f:	48 c7 85 98 f7 ff ff 	movq   $0x1,-0x868(%rbp)
   13b66:	01 00 00 00 
   13b6a:	48 c7 85 a0 f7 ff ff 	movq   $0x0,-0x860(%rbp)
   13b71:	00 00 00 00 
   13b75:	48 8d 05 a8 f4 00 00 	lea    0xf4a8(%rip),%rax        # 23024 <g_3>
   13b7c:	48 89 85 a8 f7 ff ff 	mov    %rax,-0x858(%rbp)
   13b83:	48 8d 85 00 fa ff ff 	lea    -0x600(%rbp),%rax
   13b8a:	48 05 10 01 00 00    	add    $0x110,%rax
   13b90:	48 89 85 d0 fc ff ff 	mov    %rax,-0x330(%rbp)
   13b97:	48 8d 05 86 f4 00 00 	lea    0xf486(%rip),%rax        # 23024 <g_3>
   13b9e:	48 89 85 d8 fc ff ff 	mov    %rax,-0x328(%rbp)
   13ba5:	48 c7 85 e0 fc ff ff 	movq   $0x0,-0x320(%rbp)
   13bac:	00 00 00 00 
   13bb0:	48 8d 85 68 f6 ff ff 	lea    -0x998(%rbp),%rax
   13bb7:	48 89 85 e8 fc ff ff 	mov    %rax,-0x318(%rbp)
   13bbe:	48 c7 85 f0 fc ff ff 	movq   $0x0,-0x310(%rbp)
   13bc5:	00 00 00 00 
   13bc9:	48 c7 85 f8 fc ff ff 	movq   $0x0,-0x308(%rbp)
   13bd0:	00 00 00 00 
   13bd4:	48 8d 85 5c f6 ff ff 	lea    -0x9a4(%rbp),%rax
   13bdb:	48 89 85 00 fd ff ff 	mov    %rax,-0x300(%rbp)
   13be2:	48 8d 85 5c f6 ff ff 	lea    -0x9a4(%rbp),%rax
   13be9:	48 89 85 08 fd ff ff 	mov    %rax,-0x2f8(%rbp)
   13bf0:	48 8d 05 2d f4 00 00 	lea    0xf42d(%rip),%rax        # 23024 <g_3>
   13bf7:	48 89 85 10 fd ff ff 	mov    %rax,-0x2f0(%rbp)
   13bfe:	48 8d 05 3f f7 00 00 	lea    0xf73f(%rip),%rax        # 23344 <g_310+0x2e4>
   13c05:	48 89 85 18 fd ff ff 	mov    %rax,-0x2e8(%rbp)
   13c0c:	48 8d 05 fd f4 00 00 	lea    0xf4fd(%rip),%rax        # 23110 <g_310+0xb0>
   13c13:	48 89 85 20 fd ff ff 	mov    %rax,-0x2e0(%rbp)
   13c1a:	48 8d 85 58 f6 ff ff 	lea    -0x9a8(%rbp),%rax
   13c21:	48 89 85 28 fd ff ff 	mov    %rax,-0x2d8(%rbp)
   13c28:	48 8d 05 c5 f6 00 00 	lea    0xf6c5(%rip),%rax        # 232f4 <g_310+0x294>
   13c2f:	48 89 85 30 fd ff ff 	mov    %rax,-0x2d0(%rbp)
   13c36:	48 c7 85 38 fd ff ff 	movq   $0x0,-0x2c8(%rbp)
   13c3d:	00 00 00 00 
   13c41:	48 8d 85 60 f6 ff ff 	lea    -0x9a0(%rbp),%rax
   13c48:	48 89 85 40 fd ff ff 	mov    %rax,-0x2c0(%rbp)
   13c4f:	48 8d 85 58 f6 ff ff 	lea    -0x9a8(%rbp),%rax
   13c56:	48 89 85 48 fd ff ff 	mov    %rax,-0x2b8(%rbp)
   13c5d:	48 c7 85 50 fd ff ff 	movq   $0x0,-0x2b0(%rbp)
   13c64:	00 00 00 00 
   13c68:	48 8d 85 68 f6 ff ff 	lea    -0x998(%rbp),%rax
   13c6f:	48 89 85 58 fd ff ff 	mov    %rax,-0x2a8(%rbp)
   13c76:	48 8d 85 00 fa ff ff 	lea    -0x600(%rbp),%rax
   13c7d:	48 05 10 01 00 00    	add    $0x110,%rax
   13c83:	48 89 85 60 fd ff ff 	mov    %rax,-0x2a0(%rbp)
   13c8a:	48 8d 05 63 f6 00 00 	lea    0xf663(%rip),%rax        # 232f4 <g_310+0x294>
   13c91:	48 89 85 68 fd ff ff 	mov    %rax,-0x298(%rbp)
   13c98:	48 8d 85 60 f6 ff ff 	lea    -0x9a0(%rbp),%rax
   13c9f:	48 89 85 70 fd ff ff 	mov    %rax,-0x290(%rbp)
   13ca6:	48 8d 85 68 f6 ff ff 	lea    -0x998(%rbp),%rax
   13cad:	48 89 85 78 fd ff ff 	mov    %rax,-0x288(%rbp)
   13cb4:	48 8d 85 00 fa ff ff 	lea    -0x600(%rbp),%rax
   13cbb:	48 83 c0 74          	add    $0x74,%rax
   13cbf:	48 89 85 80 fd ff ff 	mov    %rax,-0x280(%rbp)
   13cc6:	48 8d 85 58 f6 ff ff 	lea    -0x9a8(%rbp),%rax
   13ccd:	48 89 85 88 fd ff ff 	mov    %rax,-0x278(%rbp)
   13cd4:	48 8d 05 49 f3 00 00 	lea    0xf349(%rip),%rax        # 23024 <g_3>
   13cdb:	48 89 85 90 fd ff ff 	mov    %rax,-0x270(%rbp)
   13ce2:	48 8d 85 6c f6 ff ff 	lea    -0x994(%rbp),%rax
   13ce9:	48 89 85 98 fd ff ff 	mov    %rax,-0x268(%rbp)
   13cf0:	48 8d 05 2d f3 00 00 	lea    0xf32d(%rip),%rax        # 23024 <g_3>
   13cf7:	48 89 85 a0 fd ff ff 	mov    %rax,-0x260(%rbp)
   13cfe:	48 c7 85 a8 fd ff ff 	movq   $0x0,-0x258(%rbp)
   13d05:	00 00 00 00 
   13d09:	48 c7 85 b0 fd ff ff 	movq   $0x0,-0x250(%rbp)
   13d10:	00 00 00 00 
   13d14:	48 c7 85 b8 fd ff ff 	movq   $0x0,-0x248(%rbp)
   13d1b:	00 00 00 00 
   13d1f:	48 8d 85 68 f6 ff ff 	lea    -0x998(%rbp),%rax
   13d26:	48 89 85 c0 fd ff ff 	mov    %rax,-0x240(%rbp)
   13d2d:	48 8d 85 64 f6 ff ff 	lea    -0x99c(%rbp),%rax
   13d34:	48 89 85 c8 fd ff ff 	mov    %rax,-0x238(%rbp)
   13d3b:	48 c7 85 d0 fd ff ff 	movq   $0x0,-0x230(%rbp)
   13d42:	00 00 00 00 
   13d46:	48 c7 85 d8 fd ff ff 	movq   $0x0,-0x228(%rbp)
   13d4d:	00 00 00 00 
   13d51:	48 8d 85 68 f6 ff ff 	lea    -0x998(%rbp),%rax
   13d58:	48 89 85 e0 fd ff ff 	mov    %rax,-0x220(%rbp)
   13d5f:	48 8d 05 de f5 00 00 	lea    0xf5de(%rip),%rax        # 23344 <g_310+0x2e4>
   13d66:	48 89 85 e8 fd ff ff 	mov    %rax,-0x218(%rbp)
   13d6d:	48 8d 05 80 f5 00 00 	lea    0xf580(%rip),%rax        # 232f4 <g_310+0x294>
   13d74:	48 89 85 f0 fd ff ff 	mov    %rax,-0x210(%rbp)
   13d7b:	48 c7 85 f8 fd ff ff 	movq   $0x0,-0x208(%rbp)
   13d82:	00 00 00 00 
   13d86:	48 8d 85 60 f6 ff ff 	lea    -0x9a0(%rbp),%rax
   13d8d:	48 89 85 00 fe ff ff 	mov    %rax,-0x200(%rbp)
   13d94:	48 c7 85 08 fe ff ff 	movq   $0x0,-0x1f8(%rbp)
   13d9b:	00 00 00 00 
   13d9f:	48 8d 85 00 fa ff ff 	lea    -0x600(%rbp),%rax
   13da6:	48 05 dc 00 00 00    	add    $0xdc,%rax
   13dac:	48 89 85 10 fe ff ff 	mov    %rax,-0x1f0(%rbp)
   13db3:	48 8d 85 00 fa ff ff 	lea    -0x600(%rbp),%rax
   13dba:	48 05 a0 00 00 00    	add    $0xa0,%rax
   13dc0:	48 89 85 18 fe ff ff 	mov    %rax,-0x1e8(%rbp)
   13dc7:	48 8d 85 68 f6 ff ff 	lea    -0x998(%rbp),%rax
   13dce:	48 89 85 20 fe ff ff 	mov    %rax,-0x1e0(%rbp)
   13dd5:	48 8d 85 5c f6 ff ff 	lea    -0x9a4(%rbp),%rax
   13ddc:	48 89 85 28 fe ff ff 	mov    %rax,-0x1d8(%rbp)
   13de3:	48 8d 85 5c f6 ff ff 	lea    -0x9a4(%rbp),%rax
   13dea:	48 89 85 30 fe ff ff 	mov    %rax,-0x1d0(%rbp)
   13df1:	48 c7 85 38 fe ff ff 	movq   $0x0,-0x1c8(%rbp)
   13df8:	00 00 00 00 
   13dfc:	48 8d 05 41 f5 00 00 	lea    0xf541(%rip),%rax        # 23344 <g_310+0x2e4>
   13e03:	48 89 85 40 fe ff ff 	mov    %rax,-0x1c0(%rbp)
   13e0a:	48 8d 05 ff f2 00 00 	lea    0xf2ff(%rip),%rax        # 23110 <g_310+0xb0>
   13e11:	48 89 85 48 fe ff ff 	mov    %rax,-0x1b8(%rbp)
   13e18:	48 8d 05 05 f2 00 00 	lea    0xf205(%rip),%rax        # 23024 <g_3>
   13e1f:	48 89 85 50 fe ff ff 	mov    %rax,-0x1b0(%rbp)
   13e26:	48 8d 05 c7 f4 00 00 	lea    0xf4c7(%rip),%rax        # 232f4 <g_310+0x294>
   13e2d:	48 89 85 58 fe ff ff 	mov    %rax,-0x1a8(%rbp)
   13e34:	48 8d 85 68 f6 ff ff 	lea    -0x998(%rbp),%rax
   13e3b:	48 89 85 60 fe ff ff 	mov    %rax,-0x1a0(%rbp)
   13e42:	48 8d 85 68 f6 ff ff 	lea    -0x998(%rbp),%rax
   13e49:	48 89 85 68 fe ff ff 	mov    %rax,-0x198(%rbp)
   13e50:	48 c7 85 70 fe ff ff 	movq   $0x0,-0x190(%rbp)
   13e57:	00 00 00 00 
   13e5b:	48 c7 85 78 fe ff ff 	movq   $0x0,-0x188(%rbp)
   13e62:	00 00 00 00 
   13e66:	48 8d 85 00 fa ff ff 	lea    -0x600(%rbp),%rax
   13e6d:	48 05 10 01 00 00    	add    $0x110,%rax
   13e73:	48 89 85 80 fe ff ff 	mov    %rax,-0x180(%rbp)
   13e7a:	48 c7 85 88 fe ff ff 	movq   $0x0,-0x178(%rbp)
   13e81:	00 00 00 00 
   13e85:	48 8d 85 5c f6 ff ff 	lea    -0x9a4(%rbp),%rax
   13e8c:	48 89 85 90 fe ff ff 	mov    %rax,-0x170(%rbp)
   13e93:	48 8d 85 58 f6 ff ff 	lea    -0x9a8(%rbp),%rax
   13e9a:	48 89 85 98 fe ff ff 	mov    %rax,-0x168(%rbp)
   13ea1:	48 c7 85 a0 fe ff ff 	movq   $0x0,-0x160(%rbp)
   13ea8:	00 00 00 00 
   13eac:	48 c7 85 a8 fe ff ff 	movq   $0x0,-0x158(%rbp)
   13eb3:	00 00 00 00 
   13eb7:	48 8d 05 36 f4 00 00 	lea    0xf436(%rip),%rax        # 232f4 <g_310+0x294>
   13ebe:	48 89 85 b0 fe ff ff 	mov    %rax,-0x150(%rbp)
   13ec5:	48 8d 05 28 f4 00 00 	lea    0xf428(%rip),%rax        # 232f4 <g_310+0x294>
   13ecc:	48 89 85 b8 fe ff ff 	mov    %rax,-0x148(%rbp)
   13ed3:	48 8d 85 68 f6 ff ff 	lea    -0x998(%rbp),%rax
   13eda:	48 89 85 c0 fe ff ff 	mov    %rax,-0x140(%rbp)
   13ee1:	48 8d 05 5c f4 00 00 	lea    0xf45c(%rip),%rax        # 23344 <g_310+0x2e4>
   13ee8:	48 89 85 c8 fe ff ff 	mov    %rax,-0x138(%rbp)
   13eef:	48 8d 05 4e f4 00 00 	lea    0xf44e(%rip),%rax        # 23344 <g_310+0x2e4>
   13ef6:	48 89 85 d0 fe ff ff 	mov    %rax,-0x130(%rbp)
   13efd:	48 c7 85 d8 fe ff ff 	movq   $0x0,-0x128(%rbp)
   13f04:	00 00 00 00 
   13f08:	48 8d 85 5c f6 ff ff 	lea    -0x9a4(%rbp),%rax
   13f0f:	48 89 85 e0 fe ff ff 	mov    %rax,-0x120(%rbp)
   13f16:	48 8d 85 5c f6 ff ff 	lea    -0x9a4(%rbp),%rax
   13f1d:	48 89 85 e8 fe ff ff 	mov    %rax,-0x118(%rbp)
   13f24:	48 8d 85 00 fa ff ff 	lea    -0x600(%rbp),%rax
   13f2b:	48 05 10 01 00 00    	add    $0x110,%rax
   13f31:	48 89 85 f0 fe ff ff 	mov    %rax,-0x110(%rbp)
   13f38:	48 8d 85 68 f6 ff ff 	lea    -0x998(%rbp),%rax
   13f3f:	48 89 85 f8 fe ff ff 	mov    %rax,-0x108(%rbp)
   13f46:	48 8d 85 00 fa ff ff 	lea    -0x600(%rbp),%rax
   13f4d:	48 05 dc 00 00 00    	add    $0xdc,%rax
   13f53:	48 89 85 00 ff ff ff 	mov    %rax,-0x100(%rbp)
   13f5a:	48 8d 05 c3 f0 00 00 	lea    0xf0c3(%rip),%rax        # 23024 <g_3>
   13f61:	48 89 85 08 ff ff ff 	mov    %rax,-0xf8(%rbp)
   13f68:	48 8d 85 00 fa ff ff 	lea    -0x600(%rbp),%rax
   13f6f:	48 05 10 01 00 00    	add    $0x110,%rax
   13f75:	48 89 85 10 ff ff ff 	mov    %rax,-0xf0(%rbp)
   13f7c:	48 c7 85 18 ff ff ff 	movq   $0x0,-0xe8(%rbp)
   13f83:	00 00 00 00 
   13f87:	48 8d 05 66 f3 00 00 	lea    0xf366(%rip),%rax        # 232f4 <g_310+0x294>
   13f8e:	48 89 85 20 ff ff ff 	mov    %rax,-0xe0(%rbp)
   13f95:	48 8d 85 6c f6 ff ff 	lea    -0x994(%rbp),%rax
   13f9c:	48 89 85 28 ff ff ff 	mov    %rax,-0xd8(%rbp)
   13fa3:	48 8d 85 68 f6 ff ff 	lea    -0x998(%rbp),%rax
   13faa:	48 89 85 30 ff ff ff 	mov    %rax,-0xd0(%rbp)
   13fb1:	48 8d 05 6c f0 00 00 	lea    0xf06c(%rip),%rax        # 23024 <g_3>
   13fb8:	48 89 85 38 ff ff ff 	mov    %rax,-0xc8(%rbp)
   13fbf:	48 8d 05 8e f4 00 00 	lea    0xf48e(%rip),%rax        # 23454 <g_340>
   13fc6:	48 89 85 40 ff ff ff 	mov    %rax,-0xc0(%rbp)
   13fcd:	48 8d 85 64 f6 ff ff 	lea    -0x99c(%rbp),%rax
   13fd4:	48 89 85 48 ff ff ff 	mov    %rax,-0xb8(%rbp)
   13fdb:	48 8d 85 00 fa ff ff 	lea    -0x600(%rbp),%rax
   13fe2:	48 05 10 01 00 00    	add    $0x110,%rax
   13fe8:	48 89 85 50 ff ff ff 	mov    %rax,-0xb0(%rbp)
   13fef:	48 c7 85 58 ff ff ff 	movq   $0x0,-0xa8(%rbp)
   13ff6:	00 00 00 00 
   13ffa:	48 c7 85 60 ff ff ff 	movq   $0x0,-0xa0(%rbp)
   14001:	00 00 00 00 
   14005:	48 c7 85 68 ff ff ff 	movq   $0x0,-0x98(%rbp)
   1400c:	00 00 00 00 
   14010:	48 8d 85 00 fa ff ff 	lea    -0x600(%rbp),%rax
   14017:	48 05 10 01 00 00    	add    $0x110,%rax
   1401d:	48 89 85 70 ff ff ff 	mov    %rax,-0x90(%rbp)
   14024:	48 8d 85 6c f6 ff ff 	lea    -0x994(%rbp),%rax
   1402b:	48 89 85 78 ff ff ff 	mov    %rax,-0x88(%rbp)
   14032:	48 8d 85 68 f6 ff ff 	lea    -0x998(%rbp),%rax
   14039:	48 89 45 80          	mov    %rax,-0x80(%rbp)
   1403d:	48 c7 45 88 00 00 00 	movq   $0x0,-0x78(%rbp)
   14044:	00 
   14045:	48 8d 85 00 fa ff ff 	lea    -0x600(%rbp),%rax
   1404c:	48 83 c0 74          	add    $0x74,%rax
   14050:	48 89 45 90          	mov    %rax,-0x70(%rbp)
   14054:	48 c7 45 98 00 00 00 	movq   $0x0,-0x68(%rbp)
   1405b:	00 
   1405c:	48 8d 85 6c f6 ff ff 	lea    -0x994(%rbp),%rax
   14063:	48 89 45 a0          	mov    %rax,-0x60(%rbp)
   14067:	48 8d 05 86 f2 00 00 	lea    0xf286(%rip),%rax        # 232f4 <g_310+0x294>
   1406e:	48 89 45 a8          	mov    %rax,-0x58(%rbp)
   14072:	48 8d 85 5c f6 ff ff 	lea    -0x9a4(%rbp),%rax
   14079:	48 89 45 b0          	mov    %rax,-0x50(%rbp)
   1407d:	48 c7 45 b8 00 00 00 	movq   $0x0,-0x48(%rbp)
   14084:	00 
   14085:	48 c7 45 c0 00 00 00 	movq   $0x0,-0x40(%rbp)
   1408c:	00 
   1408d:	48 c7 45 c8 00 00 00 	movq   $0x0,-0x38(%rbp)
   14094:	00 
   14095:	48 8d 45 d6          	lea    -0x2a(%rbp),%rax
   14099:	48 83 c0 01          	add    $0x1,%rax
   1409d:	48 89 85 b0 f7 ff ff 	mov    %rax,-0x850(%rbp)
   140a4:	66 c7 05 af ef 00 00 	movw   $0x3,0xefaf(%rip)        # 2305c <g_252>
   140ab:	03 00 
   140ad:	e9 35 01 00 00       	jmpq   141e7 <func_41+0x139e>
   140b2:	48 c7 85 f0 f6 ff ff 	movq   $0x0,-0x910(%rbp)
   140b9:	00 00 00 00 
   140bd:	48 8d 85 f0 f6 ff ff 	lea    -0x910(%rbp),%rax
   140c4:	48 89 85 b8 f7 ff ff 	mov    %rax,-0x848(%rbp)
   140cb:	48 8d 05 16 3d 01 00 	lea    0x13d16(%rip),%rax        # 27de8 <g_401>
   140d2:	48 89 85 c0 f7 ff ff 	mov    %rax,-0x840(%rbp)
   140d9:	0f b6 9d 4c f6 ff ff 	movzbl -0x9b4(%rbp),%ebx
   140e0:	48 8b 85 38 f6 ff ff 	mov    -0x9c8(%rbp),%rax
   140e7:	c7 00 01 00 00 00    	movl   $0x1,(%rax)
   140ed:	48 8b 85 c0 f7 ff ff 	mov    -0x840(%rbp),%rax
   140f4:	0f b6 00             	movzbl (%rax),%eax
   140f7:	8d 50 ff             	lea    -0x1(%rax),%edx
   140fa:	48 8b 85 c0 f7 ff ff 	mov    -0x840(%rbp),%rax
   14101:	88 10                	mov    %dl,(%rax)
   14103:	48 8b 85 c0 f7 ff ff 	mov    -0x840(%rbp),%rax
   1410a:	0f b6 00             	movzbl (%rax),%eax
   1410d:	0f b6 d0             	movzbl %al,%edx
   14110:	48 8b 85 68 f7 ff ff 	mov    -0x898(%rbp),%rax
   14117:	48 3b 85 b8 f7 ff ff 	cmp    -0x848(%rbp),%rax
   1411e:	0f 94 c0             	sete   %al
   14121:	0f b6 c0             	movzbl %al,%eax
   14124:	89 d6                	mov    %edx,%esi
   14126:	89 c7                	mov    %eax,%edi
   14128:	e8 1f 7b ff ff       	callq  bc4c <safe_lshift_func_uint8_t_u_u>
   1412d:	84 c0                	test   %al,%al
   1412f:	48 8b 85 10 f7 ff ff 	mov    -0x8f0(%rbp),%rax
   14136:	c7 00 01 00 00 00    	movl   $0x1,(%rax)
   1413c:	48 8b 85 10 f7 ff ff 	mov    -0x8f0(%rbp),%rax
   14143:	8b 00                	mov    (%rax),%eax
   14145:	4c 63 e0             	movslq %eax,%r12
   14148:	48 8b 85 90 f7 ff ff 	mov    -0x870(%rbp),%rax
   1414f:	48 0b 85 98 f7 ff ff 	or     -0x868(%rbp),%rax
   14156:	48 be fd 1e 59 a7 f1 	movabs $0xa647bcf1a7591efd,%rsi
   1415d:	bc 47 a6 
   14160:	48 89 c7             	mov    %rax,%rdi
   14163:	e8 c6 7e ff ff       	callq  c02e <safe_add_func_uint64_t_u_u>
   14168:	49 39 c4             	cmp    %rax,%r12
   1416b:	0f 97 c0             	seta   %al
   1416e:	0f b6 c0             	movzbl %al,%eax
   14171:	be 14 00 00 00       	mov    $0x14,%esi
   14176:	89 c7                	mov    %eax,%edi
   14178:	e8 b4 70 ff ff       	callq  b231 <safe_mod_func_int8_t_s_s>
   1417d:	0f be c0             	movsbl %al,%eax
   14180:	89 de                	mov    %ebx,%esi
   14182:	89 c7                	mov    %eax,%edi
   14184:	e8 43 75 ff ff       	callq  b6cc <safe_mod_func_int32_t_s_s>
   14189:	98                   	cwtl   
   1418a:	be 0e 20 00 00       	mov    $0x200e,%esi
   1418f:	89 c7                	mov    %eax,%edi
   14191:	e8 5f 72 ff ff       	callq  b3f5 <safe_mul_func_int16_t_s_s>
   14196:	66 85 c0             	test   %ax,%ax
   14199:	74 11                	je     141ac <func_41+0x1363>
   1419b:	48 83 bd 78 f7 ff ff 	cmpq   $0x0,-0x888(%rbp)
   141a2:	00 
   141a3:	74 07                	je     141ac <func_41+0x1363>
   141a5:	b8 01 00 00 00       	mov    $0x1,%eax
   141aa:	eb 05                	jmp    141b1 <func_41+0x1368>
   141ac:	b8 00 00 00 00       	mov    $0x0,%eax
   141b1:	48 98                	cltq   
   141b3:	48 39 85 98 f7 ff ff 	cmp    %rax,-0x868(%rbp)
   141ba:	48 83 bd 70 f7 ff ff 	cmpq   $0x0,-0x890(%rbp)
   141c1:	00 
   141c2:	0f 94 c0             	sete   %al
   141c5:	0f b6 d0             	movzbl %al,%edx
   141c8:	8b 85 6c f6 ff ff    	mov    -0x994(%rbp),%eax
   141ce:	21 d0                	and    %edx,%eax
   141d0:	89 85 6c f6 ff ff    	mov    %eax,-0x994(%rbp)
   141d6:	0f b7 05 7f ee 00 00 	movzwl 0xee7f(%rip),%eax        # 2305c <g_252>
   141dd:	83 e8 01             	sub    $0x1,%eax
   141e0:	66 89 05 75 ee 00 00 	mov    %ax,0xee75(%rip)        # 2305c <g_252>
   141e7:	0f b7 05 6e ee 00 00 	movzwl 0xee6e(%rip),%eax        # 2305c <g_252>
   141ee:	66 85 c0             	test   %ax,%ax
   141f1:	0f 89 bb fe ff ff    	jns    140b2 <func_41+0x1269>
   141f7:	83 85 80 f6 ff ff 01 	addl   $0x1,-0x980(%rbp)
   141fe:	8b 85 2c f6 ff ff    	mov    -0x9d4(%rbp),%eax
   14204:	48 63 d8             	movslq %eax,%rbx
   14207:	48 8b 05 2a 17 01 00 	mov    0x1172a(%rip),%rax        # 25938 <g_626>
   1420e:	48 8b 00             	mov    (%rax),%rax
   14211:	0f b6 00             	movzbl (%rax),%eax
   14214:	44 0f be e0          	movsbl %al,%r12d
   14218:	48 8b 85 10 f7 ff ff 	mov    -0x8f0(%rbp),%rax
   1421f:	8b 10                	mov    (%rax),%edx
   14221:	0f b6 85 28 f6 ff ff 	movzbl -0x9d8(%rbp),%eax
   14228:	31 c2                	xor    %eax,%edx
   1422a:	48 8b 85 10 f7 ff ff 	mov    -0x8f0(%rbp),%rax
   14231:	89 10                	mov    %edx,(%rax)
   14233:	48 8b 85 38 f6 ff ff 	mov    -0x9c8(%rbp),%rax
   1423a:	8b 10                	mov    (%rax),%edx
   1423c:	48 8b 85 38 f6 ff ff 	mov    -0x9c8(%rbp),%rax
   14243:	8b 00                	mov    (%rax),%eax
   14245:	89 d6                	mov    %edx,%esi
   14247:	89 c7                	mov    %eax,%edi
   14249:	e8 68 73 ff ff       	callq  b5b6 <safe_add_func_int32_t_s_s>
   1424e:	89 c2                	mov    %eax,%edx
   14250:	48 8b 85 78 f7 ff ff 	mov    -0x888(%rbp),%rax
   14257:	31 d0                	xor    %edx,%eax
   14259:	98                   	cwtl   
   1425a:	be f8 ff ff ff       	mov    $0xfffffff8,%esi
   1425f:	89 c7                	mov    %eax,%edi
   14261:	e8 ef 71 ff ff       	callq  b455 <safe_div_func_int16_t_s_s>
   14266:	66 83 f8 fd          	cmp    $0xfffd,%ax
   1426a:	0f 96 c0             	setbe  %al
   1426d:	0f b6 c8             	movzbl %al,%ecx
   14270:	48 8b 85 00 f7 ff ff 	mov    -0x900(%rbp),%rax
   14277:	48 8b 10             	mov    (%rax),%rdx
   1427a:	48 63 c1             	movslq %ecx,%rax
   1427d:	48 31 c2             	xor    %rax,%rdx
   14280:	48 8b 85 00 f7 ff ff 	mov    -0x900(%rbp),%rax
   14287:	48 89 10             	mov    %rdx,(%rax)
   1428a:	48 8b 85 00 f7 ff ff 	mov    -0x900(%rbp),%rax
   14291:	48 8b 10             	mov    (%rax),%rdx
   14294:	8b 85 2c f6 ff ff    	mov    -0x9d4(%rbp),%eax
   1429a:	48 98                	cltq   
   1429c:	48 39 c2             	cmp    %rax,%rdx
   1429f:	0f 93 c0             	setae  %al
   142a2:	0f b6 d0             	movzbl %al,%edx
   142a5:	48 8b 85 68 f7 ff ff 	mov    -0x898(%rbp),%rax
   142ac:	48 8b 00             	mov    (%rax),%rax
   142af:	48 8b 00             	mov    (%rax),%rax
   142b2:	48 8b 8d b0 f7 ff ff 	mov    -0x850(%rbp),%rcx
   142b9:	48 89 08             	mov    %rcx,(%rax)
   142bc:	48 8b 00             	mov    (%rax),%rax
   142bf:	48 39 85 88 f7 ff ff 	cmp    %rax,-0x878(%rbp)
   142c6:	0f 94 c0             	sete   %al
   142c9:	0f b6 c0             	movzbl %al,%eax
   142cc:	89 d6                	mov    %edx,%esi
   142ce:	89 c7                	mov    %eax,%edi
   142d0:	e8 e9 7a ff ff       	callq  bdbe <safe_lshift_func_uint16_t_u_s>
   142d5:	0f b6 c0             	movzbl %al,%eax
   142d8:	44 89 e6             	mov    %r12d,%esi
   142db:	89 c7                	mov    %eax,%edi
   142dd:	e8 ab 79 ff ff       	callq  bc8d <safe_rshift_func_uint8_t_u_s>
   142e2:	0f b6 c0             	movzbl %al,%eax
   142e5:	39 85 9c f6 ff ff    	cmp    %eax,-0x964(%rbp)
   142eb:	0f 9f c0             	setg   %al
   142ee:	0f b6 d0             	movzbl %al,%edx
   142f1:	0f b6 85 49 f6 ff ff 	movzbl -0x9b7(%rbp),%eax
   142f8:	39 c2                	cmp    %eax,%edx
   142fa:	0f 9f c0             	setg   %al
   142fd:	0f b6 c0             	movzbl %al,%eax
   14300:	48 89 de             	mov    %rbx,%rsi
   14303:	48 89 c7             	mov    %rax,%rdi
   14306:	e8 23 7d ff ff       	callq  c02e <safe_add_func_uint64_t_u_u>
   1430b:	8b 95 2c f6 ff ff    	mov    -0x9d4(%rbp),%edx
   14311:	48 63 d2             	movslq %edx,%rdx
   14314:	48 39 d0             	cmp    %rdx,%rax
   14317:	0f 93 c0             	setae  %al
   1431a:	0f b6 c0             	movzbl %al,%eax
   1431d:	be 94 0e 26 ea       	mov    $0xea260e94,%esi
   14322:	89 c7                	mov    %eax,%edi
   14324:	e8 fc 7b ff ff       	callq  bf25 <safe_div_func_uint32_t_u_u>
   14329:	85 c0                	test   %eax,%eax
   1432b:	0f 94 c0             	sete   %al
   1432e:	0f b6 c0             	movzbl %al,%eax
   14331:	21 85 7c f6 ff ff    	and    %eax,-0x984(%rbp)
   14337:	c6 05 12 ed 00 00 00 	movb   $0x0,0xed12(%rip)        # 23050 <g_188>
   1433e:	eb 25                	jmp    14365 <func_41+0x151c>
   14340:	83 bd 9c f6 ff ff 00 	cmpl   $0x0,-0x964(%rbp)
   14347:	75 45                	jne    1438e <func_41+0x1545>
   14349:	0f b6 05 00 ed 00 00 	movzbl 0xed00(%rip),%eax        # 23050 <g_188>
   14350:	0f be c0             	movsbl %al,%eax
   14353:	be 03 00 00 00       	mov    $0x3,%esi
   14358:	89 c7                	mov    %eax,%edi
   1435a:	e8 57 72 ff ff       	callq  b5b6 <safe_add_func_int32_t_s_s>
   1435f:	88 05 eb ec 00 00    	mov    %al,0xeceb(%rip)        # 23050 <g_188>
   14365:	0f b6 05 e4 ec 00 00 	movzbl 0xece4(%rip),%eax        # 23050 <g_188>
   1436c:	3c 15                	cmp    $0x15,%al
   1436e:	7f d0                	jg     14340 <func_41+0x14f7>
   14370:	eb 1d                	jmp    1438f <func_41+0x1546>
   14372:	66 c7 85 56 f6 ff ff 	movw   $0x3,-0x9aa(%rbp)
   14379:	03 00 
   1437b:	83 bd 7c f6 ff ff 00 	cmpl   $0x0,-0x984(%rbp)
   14382:	75 23                	jne    143a7 <func_41+0x155e>
   14384:	66 83 bd 56 f6 ff ff 	cmpw   $0x0,-0x9aa(%rbp)
   1438b:	00 
   1438c:	eb 01                	jmp    1438f <func_41+0x1546>
   1438e:	90                   	nop
   1438f:	48 83 ad f8 f6 ff ff 	subq   $0x1,-0x908(%rbp)
   14396:	01 
   14397:	48 83 bd f8 f6 ff ff 	cmpq   $0xfffffffffffffff4,-0x908(%rbp)
   1439e:	f4 
   1439f:	0f 8c a7 f6 ff ff    	jl     13a4c <func_41+0xc03>
   143a5:	eb 01                	jmp    143a8 <func_41+0x155f>
   143a7:	90                   	nop
   143a8:	8b 05 a6 ec 00 00    	mov    0xeca6(%rip),%eax        # 23054 <g_200>
   143ae:	83 c0 01             	add    $0x1,%eax
   143b1:	89 05 9d ec 00 00    	mov    %eax,0xec9d(%rip)        # 23054 <g_200>
   143b7:	8b 05 97 ec 00 00    	mov    0xec97(%rip),%eax        # 23054 <g_200>
   143bd:	83 f8 04             	cmp    $0x4,%eax
   143c0:	0f 85 82 f1 ff ff    	jne    13548 <func_41+0x6ff>
   143c6:	8b 05 88 f0 00 00    	mov    0xf088(%rip),%eax        # 23454 <g_340>
   143cc:	48 8b 4d d8          	mov    -0x28(%rbp),%rcx
   143d0:	64 48 33 0c 25 28 00 	xor    %fs:0x28,%rcx
   143d7:	00 00 
   143d9:	74 05                	je     143e0 <func_41+0x1597>
   143db:	e8 90 6c ff ff       	callq  b070 <__stack_chk_fail@plt>
   143e0:	48 81 c4 c0 09 00 00 	add    $0x9c0,%rsp
   143e7:	5b                   	pop    %rbx
   143e8:	41 5c                	pop    %r12
   143ea:	41 5d                	pop    %r13
   143ec:	41 5e                	pop    %r14
   143ee:	5d                   	pop    %rbp
   143ef:	c3                   	retq   

00000000000143f0 <func_54>:
   143f0:	f3 0f 1e fa          	endbr64 
   143f4:	55                   	push   %rbp
   143f5:	48 89 e5             	mov    %rsp,%rbp
   143f8:	41 57                	push   %r15
   143fa:	41 56                	push   %r14
   143fc:	41 55                	push   %r13
   143fe:	41 54                	push   %r12
   14400:	53                   	push   %rbx
   14401:	48 81 ec 00 10 00 00 	sub    $0x1000,%rsp
   14408:	48 83 0c 24 00       	orq    $0x0,(%rsp)
   1440d:	48 81 ec 28 07 00 00 	sub    $0x728,%rsp
   14414:	48 89 bd c8 e8 ff ff 	mov    %rdi,-0x1738(%rbp)
   1441b:	64 48 8b 04 25 28 00 	mov    %fs:0x28,%rax
   14422:	00 00 
   14424:	48 89 45 c8          	mov    %rax,-0x38(%rbp)
   14428:	31 c0                	xor    %eax,%eax
   1442a:	48 8d 05 f3 eb 00 00 	lea    0xebf3(%rip),%rax        # 23024 <g_3>
   14431:	48 89 85 98 e9 ff ff 	mov    %rax,-0x1668(%rbp)
   14438:	48 8d 05 21 f0 00 00 	lea    0xf021(%rip),%rax        # 23460 <g_672>
   1443f:	48 89 85 e0 e9 ff ff 	mov    %rax,-0x1620(%rbp)
   14446:	48 8d 05 1f f0 00 00 	lea    0xf01f(%rip),%rax        # 2346c <g_810>
   1444d:	48 89 85 10 ec ff ff 	mov    %rax,-0x13f0(%rbp)
   14454:	48 8d 05 11 f0 00 00 	lea    0xf011(%rip),%rax        # 2346c <g_810>
   1445b:	48 89 85 18 ec ff ff 	mov    %rax,-0x13e8(%rbp)
   14462:	48 8d 05 03 f0 00 00 	lea    0xf003(%rip),%rax        # 2346c <g_810>
   14469:	48 89 85 20 ec ff ff 	mov    %rax,-0x13e0(%rbp)
   14470:	48 8d 05 f5 ef 00 00 	lea    0xeff5(%rip),%rax        # 2346c <g_810>
   14477:	48 89 85 28 ec ff ff 	mov    %rax,-0x13d8(%rbp)
   1447e:	48 8d 05 e7 ef 00 00 	lea    0xefe7(%rip),%rax        # 2346c <g_810>
   14485:	48 89 85 30 ec ff ff 	mov    %rax,-0x13d0(%rbp)
   1448c:	48 8d 05 d9 ef 00 00 	lea    0xefd9(%rip),%rax        # 2346c <g_810>
   14493:	48 89 85 38 ec ff ff 	mov    %rax,-0x13c8(%rbp)
   1449a:	48 8d 05 cb ef 00 00 	lea    0xefcb(%rip),%rax        # 2346c <g_810>
   144a1:	48 89 85 40 ec ff ff 	mov    %rax,-0x13c0(%rbp)
   144a8:	c7 85 e4 e8 ff ff 09 	movl   $0x9,-0x171c(%rbp)
   144af:	00 00 00 
   144b2:	48 c7 85 e8 e9 ff ff 	movq   $0x0,-0x1618(%rbp)
   144b9:	00 00 00 00 
   144bd:	66 c7 85 da e8 ff ff 	movw   $0x580a,-0x1726(%rbp)
   144c4:	0a 58 
   144c6:	48 8d 05 7b 14 01 00 	lea    0x1147b(%rip),%rax        # 25948 <g_692>
   144cd:	48 89 85 a0 e9 ff ff 	mov    %rax,-0x1660(%rbp)
   144d4:	c7 85 e8 e8 ff ff 24 	movl   $0x1cb37424,-0x1718(%rbp)
   144db:	74 b3 1c 
   144de:	c7 85 ec e8 ff ff 00 	movl   $0x0,-0x1714(%rbp)
   144e5:	00 00 00 
   144e8:	c7 85 40 e9 ff ff 7b 	movl   $0x91bc3e7b,-0x16c0(%rbp)
   144ef:	3e bc 91 
   144f2:	c7 85 f0 e8 ff ff 5d 	movl   $0x3a4ef95d,-0x1710(%rbp)
   144f9:	f9 4e 3a 
   144fc:	c7 85 f4 e8 ff ff 02 	movl   $0x2,-0x170c(%rbp)
   14503:	00 00 00 
   14506:	c6 85 d8 e8 ff ff fb 	movb   $0xfb,-0x1728(%rbp)
   1450d:	c7 85 44 e9 ff ff ff 	movl   $0xffffffff,-0x16bc(%rbp)
   14514:	ff ff ff 
   14517:	c7 85 48 e9 ff ff 00 	movl   $0x0,-0x16b8(%rbp)
   1451e:	00 00 00 
   14521:	48 8d 85 30 f1 ff ff 	lea    -0xed0(%rbp),%rax
   14528:	48 8d 15 71 94 00 00 	lea    0x9471(%rip),%rdx        # 1d9a0 <g_3489+0x940>
   1452f:	b9 d8 00 00 00       	mov    $0xd8,%ecx
   14534:	48 89 c7             	mov    %rax,%rdi
   14537:	48 89 d6             	mov    %rdx,%rsi
   1453a:	f3 48 a5             	rep movsq %ds:(%rsi),%es:(%rdi)
   1453d:	8b 1d 69 ed 00 00    	mov    0xed69(%rip),%ebx        # 232ac <g_310+0x24c>
   14543:	48 8b 85 98 e9 ff ff 	mov    -0x1668(%rbp),%rax
   1454a:	8b 00                	mov    (%rax),%eax
   1454c:	0f bf f0             	movswl %ax,%esi
   1454f:	48 8b 85 98 e9 ff ff 	mov    -0x1668(%rbp),%rax
   14556:	8b 00                	mov    (%rax),%eax
   14558:	0f bf d0             	movswl %ax,%edx
   1455b:	48 8b 85 c8 e8 ff ff 	mov    -0x1738(%rbp),%rax
   14562:	8b 00                	mov    (%rax),%eax
   14564:	0f b7 0d c7 ea 00 00 	movzwl 0xeac7(%rip),%ecx        # 23032 <g_6+0x2>
   1456b:	0f b7 c9             	movzwl %cx,%ecx
   1456e:	83 e1 01             	and    $0x1,%ecx
   14571:	89 cf                	mov    %ecx,%edi
   14573:	41 89 f0             	mov    %esi,%r8d
   14576:	48 8d 0d a7 ea 00 00 	lea    0xeaa7(%rip),%rcx        # 23024 <g_3>
   1457d:	89 c6                	mov    %eax,%esi
   1457f:	e8 0a 2e 00 00       	callq  1738e <func_61>
   14584:	0f b6 c0             	movzbl %al,%eax
   14587:	be 00 00 00 00       	mov    $0x0,%esi
   1458c:	89 c7                	mov    %eax,%edi
   1458e:	e8 2b 77 ff ff       	callq  bcbe <safe_rshift_func_uint8_t_u_u>
   14593:	84 c0                	test   %al,%al
   14595:	48 8b 85 e0 e9 ff ff 	mov    -0x1620(%rbp),%rax
   1459c:	48 c7 00 01 00 00 00 	movq   $0x1,(%rax)
   145a3:	48 8b 85 98 e9 ff ff 	mov    -0x1668(%rbp),%rax
   145aa:	8b 00                	mov    (%rax),%eax
   145ac:	83 c8 01             	or     $0x1,%eax
   145af:	25 c5 c4 45 f5       	and    $0xf545c4c5,%eax
   145b4:	89 c2                	mov    %eax,%edx
   145b6:	48 8b 85 98 e9 ff ff 	mov    -0x1668(%rbp),%rax
   145bd:	8b 00                	mov    (%rax),%eax
   145bf:	09 d0                	or     %edx,%eax
   145c1:	89 de                	mov    %ebx,%esi
   145c3:	89 c7                	mov    %eax,%edi
   145c5:	e8 3b 70 ff ff       	callq  b605 <safe_sub_func_int32_t_s_s>
   145ca:	8b 15 58 ea 00 00    	mov    0xea58(%rip),%edx        # 23028 <g_5>
   145d0:	39 d0                	cmp    %edx,%eax
   145d2:	0f 9c c0             	setl   %al
   145d5:	0f b6 d0             	movzbl %al,%edx
   145d8:	8b 85 e4 e8 ff ff    	mov    -0x171c(%rbp),%eax
   145de:	09 d0                	or     %edx,%eax
   145e0:	89 85 e4 e8 ff ff    	mov    %eax,-0x171c(%rbp)
   145e6:	8b 85 e4 e8 ff ff    	mov    -0x171c(%rbp),%eax
   145ec:	3d f8 ff 00 00       	cmp    $0xfff8,%eax
   145f1:	0f 84 33 02 00 00    	je     1482a <func_54+0x43a>
   145f7:	48 8d 05 ea 37 01 00 	lea    0x137ea(%rip),%rax        # 27de8 <g_401>
   145fe:	48 89 85 28 ea ff ff 	mov    %rax,-0x15d8(%rbp)
   14605:	c7 85 d0 e9 ff ff f7 	movl   $0xafe6fef7,-0x1630(%rbp)
   1460c:	fe e6 af 
   1460f:	48 c7 85 d8 e9 ff ff 	movq   $0x0,-0x1628(%rbp)
   14616:	00 00 00 00 
   1461a:	48 8d 85 d8 e9 ff ff 	lea    -0x1628(%rbp),%rax
   14621:	48 89 85 30 ea ff ff 	mov    %rax,-0x15d0(%rbp)
   14628:	48 8d 05 29 ea 00 00 	lea    0xea29(%rip),%rax        # 23058 <g_241>
   1462f:	48 89 85 38 ea ff ff 	mov    %rax,-0x15c8(%rbp)
   14636:	48 8d 05 17 ea 00 00 	lea    0xea17(%rip),%rax        # 23054 <g_200>
   1463d:	48 89 85 40 ea ff ff 	mov    %rax,-0x15c0(%rbp)
   14644:	48 8d 15 c5 37 01 00 	lea    0x137c5(%rip),%rdx        # 27e10 <g_813>
   1464b:	48 8d 05 be 37 01 00 	lea    0x137be(%rip),%rax        # 27e10 <g_813>
   14652:	48 39 c2             	cmp    %rax,%rdx
   14655:	0f 95 c0             	setne  %al
   14658:	89 c2                	mov    %eax,%edx
   1465a:	48 8b 85 28 ea ff ff 	mov    -0x15d8(%rbp),%rax
   14661:	88 10                	mov    %dl,(%rax)
   14663:	48 8b 85 28 ea ff ff 	mov    -0x15d8(%rbp),%rax
   1466a:	44 0f b6 28          	movzbl (%rax),%r13d
   1466e:	48 8b 85 98 e9 ff ff 	mov    -0x1668(%rbp),%rax
   14675:	8b 00                	mov    (%rax),%eax
   14677:	0f b7 d8             	movzwl %ax,%ebx
   1467a:	8b 05 2c ea 00 00    	mov    0xea2c(%rip),%eax        # 230ac <g_310+0x4c>
   14680:	41 89 c6             	mov    %eax,%r14d
   14683:	0f b7 85 da e8 ff ff 	movzwl -0x1726(%rbp),%eax
   1468a:	44 0f b6 e0          	movzbl %al,%r12d
   1468e:	48 8b 05 d3 e4 00 00 	mov    0xe4d3(%rip),%rax        # 22b68 <l_833.4939+0x188>
   14695:	48 39 85 e8 e9 ff ff 	cmp    %rax,-0x1618(%rbp)
   1469c:	0f 94 c0             	sete   %al
   1469f:	0f b6 c0             	movzbl %al,%eax
   146a2:	be 66 84 ff ff       	mov    $0xffff8466,%esi
   146a7:	89 c7                	mov    %eax,%edi
   146a9:	e8 47 6d ff ff       	callq  b3f5 <safe_mul_func_int16_t_s_s>
   146ae:	48 8b 05 33 12 01 00 	mov    0x11233(%rip),%rax        # 258e8 <g_195>
   146b5:	48 8b 00             	mov    (%rax),%rax
   146b8:	48 85 c0             	test   %rax,%rax
   146bb:	0f 95 c0             	setne  %al
   146be:	0f b6 c0             	movzbl %al,%eax
   146c1:	44 89 e6             	mov    %r12d,%esi
   146c4:	89 c7                	mov    %eax,%edi
   146c6:	e8 e3 74 ff ff       	callq  bbae <safe_mod_func_uint8_t_u_u>
   146cb:	0f b6 d0             	movzbl %al,%edx
   146ce:	8b 05 50 e9 00 00    	mov    0xe950(%rip),%eax        # 23024 <g_3>
   146d4:	39 c2                	cmp    %eax,%edx
   146d6:	0f 9f c0             	setg   %al
   146d9:	0f b6 c0             	movzbl %al,%eax
   146dc:	be 02 00 00 00       	mov    $0x2,%esi
   146e1:	89 c7                	mov    %eax,%edi
   146e3:	e8 4d 6c ff ff       	callq  b335 <safe_rshift_func_int8_t_s_s>
   146e8:	0f be d0             	movsbl %al,%edx
   146eb:	48 8b 85 38 ea ff ff 	mov    -0x15c8(%rbp),%rax
   146f2:	89 10                	mov    %edx,(%rax)
   146f4:	48 8b 85 38 ea ff ff 	mov    -0x15c8(%rbp),%rax
   146fb:	8b 00                	mov    (%rax),%eax
   146fd:	44 89 f6             	mov    %r14d,%esi
   14700:	89 c7                	mov    %eax,%edi
   14702:	e8 f6 77 ff ff       	callq  befd <safe_mod_func_uint32_t_u_u>
   14707:	0f b7 c0             	movzwl %ax,%eax
   1470a:	89 de                	mov    %ebx,%esi
   1470c:	89 c7                	mov    %eax,%edi
   1470e:	e8 2a 76 ff ff       	callq  bd3d <safe_mul_func_uint16_t_u_u>
   14713:	66 85 c0             	test   %ax,%ax
   14716:	74 07                	je     1471f <func_54+0x32f>
   14718:	b8 01 00 00 00       	mov    $0x1,%eax
   1471d:	eb 05                	jmp    14724 <func_54+0x334>
   1471f:	b8 00 00 00 00       	mov    $0x0,%eax
   14724:	0f be d0             	movsbl %al,%edx
   14727:	48 8b 0d 52 11 01 00 	mov    0x11152(%rip),%rcx        # 25880 <g_88>
   1472e:	48 8b 85 30 ea ff ff 	mov    -0x15d0(%rbp),%rax
   14735:	48 89 08             	mov    %rcx,(%rax)
   14738:	48 8b 85 30 ea ff ff 	mov    -0x15d0(%rbp),%rax
   1473f:	48 8b 08             	mov    (%rax),%rcx
   14742:	48 8b 85 98 e9 ff ff 	mov    -0x1668(%rbp),%rax
   14749:	48 39 c1             	cmp    %rax,%rcx
   1474c:	0f 94 c1             	sete   %cl
   1474f:	48 8b 05 fa 11 01 00 	mov    0x111fa(%rip),%rax        # 25950 <g_691>
   14756:	48 8b 00             	mov    (%rax),%rax
   14759:	88 08                	mov    %cl,(%rax)
   1475b:	0f b6 00             	movzbl (%rax),%eax
   1475e:	0f be c0             	movsbl %al,%eax
   14761:	89 d6                	mov    %edx,%esi
   14763:	89 c7                	mov    %eax,%edi
   14765:	e8 00 6b ff ff       	callq  b26a <safe_div_func_int8_t_s_s>
   1476a:	48 8b 85 98 e9 ff ff 	mov    -0x1668(%rbp),%rax
   14771:	c7 00 20 00 00 00    	movl   $0x20,(%rax)
   14777:	8b 00                	mov    (%rax),%eax
   14779:	0f b6 d0             	movzbl %al,%edx
   1477c:	8b 85 d0 e9 ff ff    	mov    -0x1630(%rbp),%eax
   14782:	0f b6 c0             	movzbl %al,%eax
   14785:	89 d6                	mov    %edx,%esi
   14787:	89 c7                	mov    %eax,%edi
   14789:	e8 4d 74 ff ff       	callq  bbdb <safe_div_func_uint8_t_u_u>
   1478e:	41 38 c5             	cmp    %al,%r13b
   14791:	0f 94 c0             	sete   %al
   14794:	0f b6 d0             	movzbl %al,%edx
   14797:	8b 85 d0 e9 ff ff    	mov    -0x1630(%rbp),%eax
   1479d:	39 c2                	cmp    %eax,%edx
   1479f:	0f 9c c0             	setl   %al
   147a2:	0f b6 d0             	movzbl %al,%edx
   147a5:	0f b7 05 c0 ec 00 00 	movzwl 0xecc0(%rip),%eax        # 2346c <g_810>
   147ac:	0f b7 c0             	movzwl %ax,%eax
   147af:	39 c2                	cmp    %eax,%edx
   147b1:	7d 0d                	jge    147c0 <func_54+0x3d0>
   147b3:	8b 85 d0 e9 ff ff    	mov    -0x1630(%rbp),%eax
   147b9:	48 98                	cltq   
   147bb:	e9 a8 2b 00 00       	jmpq   17368 <func_54+0x2f78>
   147c0:	c7 05 5a e8 00 00 00 	movl   $0x0,0xe85a(%rip)        # 23024 <g_3>
   147c7:	00 00 00 
   147ca:	eb 2c                	jmp    147f8 <func_54+0x408>
   147cc:	48 8d 85 d0 e9 ff ff 	lea    -0x1630(%rbp),%rax
   147d3:	48 89 85 c8 e8 ff ff 	mov    %rax,-0x1738(%rbp)
   147da:	8b 05 44 e8 00 00    	mov    0xe844(%rip),%eax        # 23024 <g_3>
   147e0:	0f b7 c0             	movzwl %ax,%eax
   147e3:	be 08 00 00 00       	mov    $0x8,%esi
   147e8:	89 c7                	mov    %eax,%edi
   147ea:	e8 10 75 ff ff       	callq  bcff <safe_add_func_uint16_t_u_u>
   147ef:	0f b7 c0             	movzwl %ax,%eax
   147f2:	89 05 2c e8 00 00    	mov    %eax,0xe82c(%rip)        # 23024 <g_3>
   147f8:	8b 05 26 e8 00 00    	mov    0xe826(%rip),%eax        # 23024 <g_3>
   147fe:	83 f8 0c             	cmp    $0xc,%eax
   14801:	7e c9                	jle    147cc <func_54+0x3dc>
   14803:	48 8b 05 d6 18 01 00 	mov    0x118d6(%rip),%rax        # 260e0 <g_838>
   1480a:	48 8d 15 87 10 01 00 	lea    0x11087(%rip),%rdx        # 25898 <g_138>
   14811:	48 89 10             	mov    %rdx,(%rax)
   14814:	48 8b 05 cd 18 01 00 	mov    0x118cd(%rip),%rax        # 260e8 <g_840>
   1481b:	48 8b 95 40 ea ff ff 	mov    -0x15c0(%rbp),%rdx
   14822:	48 89 10             	mov    %rdx,(%rax)
   14825:	e9 5f 04 00 00       	jmpq   14c89 <func_54+0x899>
   1482a:	48 8d 05 23 e8 00 00 	lea    0xe823(%rip),%rax        # 23054 <g_200>
   14831:	48 89 85 f0 e9 ff ff 	mov    %rax,-0x1610(%rbp)
   14838:	48 8d 05 41 10 01 00 	lea    0x11041(%rip),%rax        # 25880 <g_88>
   1483f:	48 89 85 f8 e9 ff ff 	mov    %rax,-0x1608(%rbp)
   14846:	c7 85 0c e9 ff ff 00 	movl   $0x0,-0x16f4(%rbp)
   1484d:	00 00 00 
   14850:	eb 75                	jmp    148c7 <func_54+0x4d7>
   14852:	c7 85 10 e9 ff ff 00 	movl   $0x0,-0x16f0(%rbp)
   14859:	00 00 00 
   1485c:	eb 59                	jmp    148b7 <func_54+0x4c7>
   1485e:	c7 85 04 e9 ff ff 00 	movl   $0x0,-0x16fc(%rbp)
   14865:	00 00 00 
   14868:	eb 3d                	jmp    148a7 <func_54+0x4b7>
   1486a:	8b 85 04 e9 ff ff    	mov    -0x16fc(%rbp),%eax
   14870:	48 63 f0             	movslq %eax,%rsi
   14873:	8b 85 10 e9 ff ff    	mov    -0x16f0(%rbp),%eax
   14879:	48 63 c8             	movslq %eax,%rcx
   1487c:	8b 85 0c e9 ff ff    	mov    -0x16f4(%rbp),%eax
   14882:	48 63 d0             	movslq %eax,%rdx
   14885:	48 89 d0             	mov    %rdx,%rax
   14888:	48 c1 e0 03          	shl    $0x3,%rax
   1488c:	48 29 d0             	sub    %rdx,%rax
   1488f:	48 01 f0             	add    %rsi,%rax
   14892:	48 01 c8             	add    %rcx,%rax
   14895:	c7 84 85 e0 ed ff ff 	movl   $0xc80fea0a,-0x1220(%rbp,%rax,4)
   1489c:	0a ea 0f c8 
   148a0:	83 85 04 e9 ff ff 01 	addl   $0x1,-0x16fc(%rbp)
   148a7:	83 bd 04 e9 ff ff 00 	cmpl   $0x0,-0x16fc(%rbp)
   148ae:	7e ba                	jle    1486a <func_54+0x47a>
   148b0:	83 85 10 e9 ff ff 01 	addl   $0x1,-0x16f0(%rbp)
   148b7:	83 bd 10 e9 ff ff 06 	cmpl   $0x6,-0x16f0(%rbp)
   148be:	7e 9e                	jle    1485e <func_54+0x46e>
   148c0:	83 85 0c e9 ff ff 01 	addl   $0x1,-0x16f4(%rbp)
   148c7:	83 bd 0c e9 ff ff 00 	cmpl   $0x0,-0x16f4(%rbp)
   148ce:	7e 82                	jle    14852 <func_54+0x462>
   148d0:	66 c7 05 93 eb 00 00 	movw   $0xfff2,0xeb93(%rip)        # 2346c <g_810>
   148d7:	f2 ff 
   148d9:	e9 b8 01 00 00       	jmpq   14a96 <func_54+0x6a6>
   148de:	48 c7 85 08 ea ff ff 	movq   $0x0,-0x15f8(%rbp)
   148e5:	00 00 00 00 
   148e9:	48 8d 05 f8 34 01 00 	lea    0x134f8(%rip),%rax        # 27de8 <g_401>
   148f0:	48 89 85 10 ea ff ff 	mov    %rax,-0x15f0(%rbp)
   148f7:	48 c7 85 18 ea ff ff 	movq   $0x0,-0x15e8(%rbp)
   148fe:	00 00 00 00 
   14902:	48 8d 05 53 e7 00 00 	lea    0xe753(%rip),%rax        # 2305c <g_252>
   14909:	48 89 85 20 ea ff ff 	mov    %rax,-0x15e0(%rbp)
   14910:	c7 85 4c e9 ff ff 51 	movl   $0x8560f551,-0x16b4(%rbp)
   14917:	f5 60 85 
   1491a:	c7 85 08 e9 ff ff 00 	movl   $0x0,-0x16f8(%rbp)
   14921:	00 00 00 
   14924:	eb 1b                	jmp    14941 <func_54+0x551>
   14926:	8b 85 08 e9 ff ff    	mov    -0x16f8(%rbp),%eax
   1492c:	48 98                	cltq   
   1492e:	48 c7 84 c5 f0 f7 ff 	movq   $0x4,-0x810(%rbp,%rax,8)
   14935:	ff 04 00 00 00 
   1493a:	83 85 08 e9 ff ff 01 	addl   $0x1,-0x16f8(%rbp)
   14941:	83 bd 08 e9 ff ff 01 	cmpl   $0x1,-0x16f8(%rbp)
   14948:	7e dc                	jle    14926 <func_54+0x536>
   1494a:	48 8b 05 37 0f 01 00 	mov    0x10f37(%rip),%rax        # 25888 <g_87>
   14951:	48 8b 00             	mov    (%rax),%rax
   14954:	44 8b 20             	mov    (%rax),%r12d
   14957:	48 8b 85 f8 f7 ff ff 	mov    -0x808(%rbp),%rax
   1495e:	0f bf d8             	movswl %ax,%ebx
   14961:	48 8b 85 f8 f7 ff ff 	mov    -0x808(%rbp),%rax
   14968:	41 89 c5             	mov    %eax,%r13d
   1496b:	0f b7 05 c0 e6 00 00 	movzwl 0xe6c0(%rip),%eax        # 23032 <g_6+0x2>
   14972:	0f be d0             	movsbl %al,%edx
   14975:	48 8b 85 98 e9 ff ff 	mov    -0x1668(%rbp),%rax
   1497c:	8b 00                	mov    (%rax),%eax
   1497e:	0f be c0             	movsbl %al,%eax
   14981:	89 d6                	mov    %edx,%esi
   14983:	89 c7                	mov    %eax,%edi
   14985:	e8 4a 68 ff ff       	callq  b1d4 <safe_add_func_int8_t_s_s>
   1498a:	84 c0                	test   %al,%al
   1498c:	75 40                	jne    149ce <func_54+0x5de>
   1498e:	0f b7 05 c7 e6 00 00 	movzwl 0xe6c7(%rip),%eax        # 2305c <g_252>
   14995:	66 85 c0             	test   %ax,%ax
   14998:	75 0a                	jne    149a4 <func_54+0x5b4>
   1499a:	8b 05 c8 ea 00 00    	mov    0xeac8(%rip),%eax        # 23468 <g_714>
   149a0:	85 c0                	test   %eax,%eax
   149a2:	74 07                	je     149ab <func_54+0x5bb>
   149a4:	b8 01 00 00 00       	mov    $0x1,%eax
   149a9:	eb 05                	jmp    149b0 <func_54+0x5c0>
   149ab:	b8 00 00 00 00       	mov    $0x0,%eax
   149b0:	89 c2                	mov    %eax,%edx
   149b2:	48 8b 85 98 e9 ff ff 	mov    -0x1668(%rbp),%rax
   149b9:	8b 00                	mov    (%rax),%eax
   149bb:	89 d6                	mov    %edx,%esi
   149bd:	89 c7                	mov    %eax,%edi
   149bf:	e8 0c 75 ff ff       	callq  bed0 <safe_sub_func_uint32_t_u_u>
   149c4:	8b 95 e8 ed ff ff    	mov    -0x1218(%rbp),%edx
   149ca:	21 d0                	and    %edx,%eax
   149cc:	85 c0                	test   %eax,%eax
   149ce:	44 89 ee             	mov    %r13d,%esi
   149d1:	bf f9 ff ff ff       	mov    $0xfffffff9,%edi
   149d6:	e8 22 75 ff ff       	callq  befd <safe_mod_func_uint32_t_u_u>
   149db:	89 c2                	mov    %eax,%edx
   149dd:	48 8b 85 10 ea ff ff 	mov    -0x15f0(%rbp),%rax
   149e4:	88 10                	mov    %dl,(%rax)
   149e6:	48 8b 85 10 ea ff ff 	mov    -0x15f0(%rbp),%rax
   149ed:	0f b6 00             	movzbl (%rax),%eax
   149f0:	0f b6 d0             	movzbl %al,%edx
   149f3:	8b 85 f4 ed ff ff    	mov    -0x120c(%rbp),%eax
   149f9:	0f be c0             	movsbl %al,%eax
   149fc:	89 d6                	mov    %edx,%esi
   149fe:	89 c7                	mov    %eax,%edi
   14a00:	e8 e9 68 ff ff       	callq  b2ee <safe_lshift_func_int8_t_s_u>
   14a05:	66 0f be d0          	movsbw %al,%dx
   14a09:	48 8b 85 20 ea ff ff 	mov    -0x15e0(%rbp),%rax
   14a10:	66 89 10             	mov    %dx,(%rax)
   14a13:	48 8b 85 20 ea ff ff 	mov    -0x15e0(%rbp),%rax
   14a1a:	0f b7 00             	movzwl (%rax),%eax
   14a1d:	98                   	cwtl   
   14a1e:	89 de                	mov    %ebx,%esi
   14a20:	89 c7                	mov    %eax,%edi
   14a22:	e8 ce 69 ff ff       	callq  b3f5 <safe_mul_func_int16_t_s_s>
   14a27:	98                   	cwtl   
   14a28:	41 39 c4             	cmp    %eax,%r12d
   14a2b:	48 8b 85 98 e9 ff ff 	mov    -0x1668(%rbp),%rax
   14a32:	8b 00                	mov    (%rax),%eax
   14a34:	48 63 d0             	movslq %eax,%rdx
   14a37:	48 8b 85 f8 f7 ff ff 	mov    -0x808(%rbp),%rax
   14a3e:	48 89 d6             	mov    %rdx,%rsi
   14a41:	48 89 c7             	mov    %rax,%rdi
   14a44:	e8 5f 6e ff ff       	callq  b8a8 <safe_sub_func_int64_t_s_s>
   14a49:	48 89 c2             	mov    %rax,%rdx
   14a4c:	48 8b 85 98 e9 ff ff 	mov    -0x1668(%rbp),%rax
   14a53:	89 10                	mov    %edx,(%rax)
   14a55:	8b 00                	mov    (%rax),%eax
   14a57:	98                   	cwtl   
   14a58:	be 08 00 00 00       	mov    $0x8,%esi
   14a5d:	89 c7                	mov    %eax,%edi
   14a5f:	e8 b2 69 ff ff       	callq  b416 <safe_mod_func_int16_t_s_s>
   14a64:	83 e0 fa             	and    $0xfffffffa,%eax
   14a67:	66 3d 8a 00          	cmp    $0x8a,%ax
   14a6b:	0f 9f c0             	setg   %al
   14a6e:	0f b6 c0             	movzbl %al,%eax
   14a71:	09 85 4c e9 ff ff    	or     %eax,-0x16b4(%rbp)
   14a77:	0f b7 05 ee e9 00 00 	movzwl 0xe9ee(%rip),%eax        # 2346c <g_810>
   14a7e:	0f be c0             	movsbl %al,%eax
   14a81:	be 05 00 00 00       	mov    $0x5,%esi
   14a86:	89 c7                	mov    %eax,%edi
   14a88:	e8 47 67 ff ff       	callq  b1d4 <safe_add_func_int8_t_s_s>
   14a8d:	66 98                	cbtw   
   14a8f:	66 89 05 d6 e9 00 00 	mov    %ax,0xe9d6(%rip)        # 2346c <g_810>
   14a96:	0f b7 05 cf e9 00 00 	movzwl 0xe9cf(%rip),%eax        # 2346c <g_810>
   14a9d:	66 83 f8 06          	cmp    $0x6,%ax
   14aa1:	0f 86 37 fe ff ff    	jbe    148de <func_54+0x4ee>
   14aa7:	c7 05 73 e5 00 00 00 	movl   $0x0,0xe573(%rip)        # 23024 <g_3>
   14aae:	00 00 00 
   14ab1:	e9 b3 01 00 00       	jmpq   14c69 <func_54+0x879>
   14ab6:	48 8d 05 37 e8 00 00 	lea    0xe837(%rip),%rax        # 232f4 <g_310+0x294>
   14abd:	48 89 85 00 ea ff ff 	mov    %rax,-0x1600(%rbp)
   14ac4:	48 8d 05 75 e5 00 00 	lea    0xe575(%rip),%rax        # 23040 <g_121>
   14acb:	48 89 85 f0 f7 ff ff 	mov    %rax,-0x810(%rbp)
   14ad2:	48 8d 05 67 e5 00 00 	lea    0xe567(%rip),%rax        # 23040 <g_121>
   14ad9:	48 89 85 f8 f7 ff ff 	mov    %rax,-0x808(%rbp)
   14ae0:	48 8d 05 59 e5 00 00 	lea    0xe559(%rip),%rax        # 23040 <g_121>
   14ae7:	48 89 85 00 f8 ff ff 	mov    %rax,-0x800(%rbp)
   14aee:	48 8d 05 4b e5 00 00 	lea    0xe54b(%rip),%rax        # 23040 <g_121>
   14af5:	48 89 85 08 f8 ff ff 	mov    %rax,-0x7f8(%rbp)
   14afc:	48 8d 05 3d e5 00 00 	lea    0xe53d(%rip),%rax        # 23040 <g_121>
   14b03:	48 89 85 10 f8 ff ff 	mov    %rax,-0x7f0(%rbp)
   14b0a:	48 8d 05 2f e5 00 00 	lea    0xe52f(%rip),%rax        # 23040 <g_121>
   14b11:	48 89 85 18 f8 ff ff 	mov    %rax,-0x7e8(%rbp)
   14b18:	48 8d 05 21 e5 00 00 	lea    0xe521(%rip),%rax        # 23040 <g_121>
   14b1f:	48 89 85 20 f8 ff ff 	mov    %rax,-0x7e0(%rbp)
   14b26:	48 8d 05 13 e5 00 00 	lea    0xe513(%rip),%rax        # 23040 <g_121>
   14b2d:	48 89 85 28 f8 ff ff 	mov    %rax,-0x7d8(%rbp)
   14b34:	48 8d 05 05 e5 00 00 	lea    0xe505(%rip),%rax        # 23040 <g_121>
   14b3b:	48 89 85 30 f8 ff ff 	mov    %rax,-0x7d0(%rbp)
   14b42:	48 8d 05 f7 e4 00 00 	lea    0xe4f7(%rip),%rax        # 23040 <g_121>
   14b49:	48 89 85 38 f8 ff ff 	mov    %rax,-0x7c8(%rbp)
   14b50:	48 83 bd 00 ea ff ff 	cmpq   $0x0,-0x1600(%rbp)
   14b57:	00 
   14b58:	0f 94 c0             	sete   %al
   14b5b:	0f b6 d8             	movzbl %al,%ebx
   14b5e:	48 8b 05 db e4 00 00 	mov    0xe4db(%rip),%rax        # 23040 <g_121>
   14b65:	48 83 e8 01          	sub    $0x1,%rax
   14b69:	48 89 05 d0 e4 00 00 	mov    %rax,0xe4d0(%rip)        # 23040 <g_121>
   14b70:	48 8b 05 c9 e4 00 00 	mov    0xe4c9(%rip),%rax        # 23040 <g_121>
   14b77:	48 89 c6             	mov    %rax,%rsi
   14b7a:	48 c7 c7 f9 ff ff ff 	mov    $0xfffffffffffffff9,%rdi
   14b81:	e8 a8 74 ff ff       	callq  c02e <safe_add_func_uint64_t_u_u>
   14b86:	48 39 c3             	cmp    %rax,%rbx
   14b89:	0f 95 c0             	setne  %al
   14b8c:	0f b6 d0             	movzbl %al,%edx
   14b8f:	48 8b 85 00 ea ff ff 	mov    -0x1600(%rbp),%rax
   14b96:	8b 00                	mov    (%rax),%eax
   14b98:	3d c8 92 b8 37       	cmp    $0x37b892c8,%eax
   14b9d:	0f 9f c0             	setg   %al
   14ba0:	0f b6 c0             	movzbl %al,%eax
   14ba3:	39 c2                	cmp    %eax,%edx
   14ba5:	0f 9e c0             	setle  %al
   14ba8:	0f b6 d0             	movzbl %al,%edx
   14bab:	48 8b 05 ae e8 00 00 	mov    0xe8ae(%rip),%rax        # 23460 <g_672>
   14bb2:	48 09 d0             	or     %rdx,%rax
   14bb5:	48 89 c2             	mov    %rax,%rdx
   14bb8:	48 8b 85 98 e9 ff ff 	mov    -0x1668(%rbp),%rax
   14bbf:	8b 00                	mov    (%rax),%eax
   14bc1:	48 98                	cltq   
   14bc3:	48 89 d6             	mov    %rdx,%rsi
   14bc6:	48 89 c7             	mov    %rax,%rdi
   14bc9:	e8 60 74 ff ff       	callq  c02e <safe_add_func_uint64_t_u_u>
   14bce:	48 8b 85 98 e9 ff ff 	mov    -0x1668(%rbp),%rax
   14bd5:	8b 10                	mov    (%rax),%edx
   14bd7:	0f b6 05 72 e4 00 00 	movzbl 0xe472(%rip),%eax        # 23050 <g_188>
   14bde:	0f be c0             	movsbl %al,%eax
   14be1:	39 c2                	cmp    %eax,%edx
   14be3:	0f 9c c0             	setl   %al
   14be6:	0f b6 c0             	movzbl %al,%eax
   14be9:	be 01 00 00 00       	mov    $0x1,%esi
   14bee:	89 c7                	mov    %eax,%edi
   14bf0:	e8 67 71 ff ff       	callq  bd5c <safe_mod_func_uint16_t_u_u>
   14bf5:	66 83 f8 01          	cmp    $0x1,%ax
   14bf9:	0f 96 c0             	setbe  %al
   14bfc:	0f b6 d0             	movzbl %al,%edx
   14bff:	8b 8d f4 ed ff ff    	mov    -0x120c(%rbp),%ecx
   14c05:	48 8b 85 98 e9 ff ff 	mov    -0x1668(%rbp),%rax
   14c0c:	8b 00                	mov    (%rax),%eax
   14c0e:	39 c1                	cmp    %eax,%ecx
   14c10:	0f 95 c0             	setne  %al
   14c13:	0f b6 c0             	movzbl %al,%eax
   14c16:	89 d6                	mov    %edx,%esi
   14c18:	89 c7                	mov    %eax,%edi
   14c1a:	e8 b5 65 ff ff       	callq  b1d4 <safe_add_func_int8_t_s_s>
   14c1f:	48 8b 85 98 e9 ff ff 	mov    -0x1668(%rbp),%rax
   14c26:	8b 10                	mov    (%rax),%edx
   14c28:	48 8b 85 00 ea ff ff 	mov    -0x1600(%rbp),%rax
   14c2f:	89 10                	mov    %edx,(%rax)
   14c31:	48 c7 05 04 e4 00 00 	movq   $0x0,0xe404(%rip)        # 23040 <g_121>
   14c38:	00 00 00 00 
   14c3c:	90                   	nop
   14c3d:	48 8b 05 fc e3 00 00 	mov    0xe3fc(%rip),%rax        # 23040 <g_121>
   14c44:	48 83 f8 02          	cmp    $0x2,%rax
   14c48:	77 10                	ja     14c5a <func_54+0x86a>
   14c4a:	48 8b 85 98 e9 ff ff 	mov    -0x1668(%rbp),%rax
   14c51:	8b 00                	mov    (%rax),%eax
   14c53:	48 98                	cltq   
   14c55:	e9 0e 27 00 00       	jmpq   17368 <func_54+0x2f78>
   14c5a:	8b 05 c4 e3 00 00    	mov    0xe3c4(%rip),%eax        # 23024 <g_3>
   14c60:	83 c0 01             	add    $0x1,%eax
   14c63:	89 05 bb e3 00 00    	mov    %eax,0xe3bb(%rip)        # 23024 <g_3>
   14c69:	8b 05 b5 e3 00 00    	mov    0xe3b5(%rip),%eax        # 23024 <g_3>
   14c6f:	83 f8 01             	cmp    $0x1,%eax
   14c72:	0f 8e 3e fe ff ff    	jle    14ab6 <func_54+0x6c6>
   14c78:	48 8b 85 f8 e9 ff ff 	mov    -0x1608(%rbp),%rax
   14c7f:	48 8b 95 f0 e9 ff ff 	mov    -0x1610(%rbp),%rdx
   14c86:	48 89 10             	mov    %rdx,(%rax)
   14c89:	48 8b 05 f0 0b 01 00 	mov    0x10bf0(%rip),%rax        # 25880 <g_88>
   14c90:	8b 10                	mov    (%rax),%edx
   14c92:	48 8b 05 e7 0b 01 00 	mov    0x10be7(%rip),%rax        # 25880 <g_88>
   14c99:	83 f2 01             	xor    $0x1,%edx
   14c9c:	89 10                	mov    %edx,(%rax)
   14c9e:	48 8b 05 db 0b 01 00 	mov    0x10bdb(%rip),%rax        # 25880 <g_88>
   14ca5:	8b 10                	mov    (%rax),%edx
   14ca7:	48 8b 05 d2 0b 01 00 	mov    0x10bd2(%rip),%rax        # 25880 <g_88>
   14cae:	83 e2 fd             	and    $0xfffffffd,%edx
   14cb1:	89 10                	mov    %edx,(%rax)
   14cb3:	8b 00                	mov    (%rax),%eax
   14cb5:	85 c0                	test   %eax,%eax
   14cb7:	0f 84 ad 25 00 00    	je     1726a <func_54+0x2e7a>
   14cbd:	c6 85 d9 e8 ff ff 1d 	movb   $0x1d,-0x1727(%rbp)
   14cc4:	48 8d 05 85 0c 01 00 	lea    0x10c85(%rip),%rax        # 25950 <g_691>
   14ccb:	48 89 85 a8 e9 ff ff 	mov    %rax,-0x1658(%rbp)
   14cd2:	c7 85 50 e9 ff ff fc 	movl   $0xcbb8f7fc,-0x16b0(%rbp)
   14cd9:	f7 b8 cb 
   14cdc:	c7 85 f8 e8 ff ff 8e 	movl   $0x3164298e,-0x1708(%rbp)
   14ce3:	29 64 31 
   14ce6:	48 8d 05 4b 14 01 00 	lea    0x1144b(%rip),%rax        # 26138 <g_979>
   14ced:	48 89 85 e0 eb ff ff 	mov    %rax,-0x1420(%rbp)
   14cf4:	48 8d 05 3d 14 01 00 	lea    0x1143d(%rip),%rax        # 26138 <g_979>
   14cfb:	48 89 85 e8 eb ff ff 	mov    %rax,-0x1418(%rbp)
   14d02:	48 8d 05 2f 14 01 00 	lea    0x1142f(%rip),%rax        # 26138 <g_979>
   14d09:	48 89 85 f0 eb ff ff 	mov    %rax,-0x1410(%rbp)
   14d10:	48 8d 05 21 14 01 00 	lea    0x11421(%rip),%rax        # 26138 <g_979>
   14d17:	48 89 85 f8 eb ff ff 	mov    %rax,-0x1408(%rbp)
   14d1e:	48 8d 05 13 14 01 00 	lea    0x11413(%rip),%rax        # 26138 <g_979>
   14d25:	48 89 85 00 ec ff ff 	mov    %rax,-0x1400(%rbp)
   14d2c:	48 8d 05 05 14 01 00 	lea    0x11405(%rip),%rax        # 26138 <g_979>
   14d33:	48 89 85 08 ec ff ff 	mov    %rax,-0x13f8(%rbp)
   14d3a:	48 8d 85 e0 ed ff ff 	lea    -0x1220(%rbp),%rax
   14d41:	48 8d 15 58 f7 00 00 	lea    0xf758(%rip),%rdx        # 244a0 <g_4429+0xb74>
   14d48:	b9 69 00 00 00       	mov    $0x69,%ecx
   14d4d:	48 89 c7             	mov    %rax,%rdi
   14d50:	48 89 d6             	mov    %rdx,%rsi
   14d53:	f3 48 a5             	rep movsq %ds:(%rsi),%es:(%rdi)
   14d56:	c7 85 54 e9 ff ff 5f 	movl   $0x55f5485f,-0x16ac(%rbp)
   14d5d:	48 f5 55 
   14d60:	c7 85 14 e9 ff ff 00 	movl   $0x0,-0x16ec(%rbp)
   14d67:	00 00 00 
   14d6a:	eb 70                	jmp    14ddc <func_54+0x9ec>
   14d6c:	c7 85 18 e9 ff ff 00 	movl   $0x0,-0x16e8(%rbp)
   14d73:	00 00 00 
   14d76:	eb 54                	jmp    14dcc <func_54+0x9dc>
   14d78:	c7 85 1c e9 ff ff 00 	movl   $0x0,-0x16e4(%rbp)
   14d7f:	00 00 00 
   14d82:	eb 38                	jmp    14dbc <func_54+0x9cc>
   14d84:	8b 85 1c e9 ff ff    	mov    -0x16e4(%rbp),%eax
   14d8a:	48 98                	cltq   
   14d8c:	8b 95 14 e9 ff ff    	mov    -0x16ec(%rbp),%edx
   14d92:	48 63 ca             	movslq %edx,%rcx
   14d95:	8b 95 18 e9 ff ff    	mov    -0x16e8(%rbp),%edx
   14d9b:	48 63 d2             	movslq %edx,%rdx
   14d9e:	48 01 c9             	add    %rcx,%rcx
   14da1:	48 01 ca             	add    %rcx,%rdx
   14da4:	48 01 d2             	add    %rdx,%rdx
   14da7:	48 01 d0             	add    %rdx,%rax
   14daa:	c7 84 85 b0 eb ff ff 	movl   $0x0,-0x1450(%rbp,%rax,4)
   14db1:	00 00 00 00 
   14db5:	83 85 1c e9 ff ff 01 	addl   $0x1,-0x16e4(%rbp)
   14dbc:	83 bd 1c e9 ff ff 01 	cmpl   $0x1,-0x16e4(%rbp)
   14dc3:	7e bf                	jle    14d84 <func_54+0x994>
   14dc5:	83 85 18 e9 ff ff 01 	addl   $0x1,-0x16e8(%rbp)
   14dcc:	83 bd 18 e9 ff ff 01 	cmpl   $0x1,-0x16e8(%rbp)
   14dd3:	7e a3                	jle    14d78 <func_54+0x988>
   14dd5:	83 85 14 e9 ff ff 01 	addl   $0x1,-0x16ec(%rbp)
   14ddc:	83 bd 14 e9 ff ff 02 	cmpl   $0x2,-0x16ec(%rbp)
   14de3:	7e 87                	jle    14d6c <func_54+0x97c>
   14de5:	c7 85 14 e9 ff ff 00 	movl   $0x0,-0x16ec(%rbp)
   14dec:	00 00 00 
   14def:	eb 14                	jmp    14e05 <func_54+0xa15>
   14df1:	8b 85 14 e9 ff ff    	mov    -0x16ec(%rbp),%eax
   14df7:	48 98                	cltq   
   14df9:	c6 44 05 c3 ec       	movb   $0xec,-0x3d(%rbp,%rax,1)
   14dfe:	83 85 14 e9 ff ff 01 	addl   $0x1,-0x16ec(%rbp)
   14e05:	83 bd 14 e9 ff ff 04 	cmpl   $0x4,-0x16ec(%rbp)
   14e0c:	7e e3                	jle    14df1 <func_54+0xa01>
   14e0e:	48 8b 05 0b 13 01 00 	mov    0x1130b(%rip),%rax        # 26120 <g_882>
   14e15:	8b 08                	mov    (%rax),%ecx
   14e17:	0f be b5 d9 e8 ff ff 	movsbl -0x1727(%rbp),%esi
   14e1e:	48 8b 95 98 e9 ff ff 	mov    -0x1668(%rbp),%rdx
   14e25:	8b 3a                	mov    (%rdx),%edi
   14e27:	0f be 95 d9 e8 ff ff 	movsbl -0x1727(%rbp),%edx
   14e2e:	39 d7                	cmp    %edx,%edi
   14e30:	0f 94 c2             	sete   %dl
   14e33:	0f b6 d2             	movzbl %dl,%edx
   14e36:	39 d6                	cmp    %edx,%esi
   14e38:	0f 94 c2             	sete   %dl
   14e3b:	0f b6 d2             	movzbl %dl,%edx
   14e3e:	31 ca                	xor    %ecx,%edx
   14e40:	89 10                	mov    %edx,(%rax)
   14e42:	0f b7 85 da e8 ff ff 	movzwl -0x1726(%rbp),%eax
   14e49:	66 85 c0             	test   %ax,%ax
   14e4c:	90                   	nop
   14e4d:	f3 0f 1e fa          	endbr64 
   14e51:	48 8b 85 a8 e9 ff ff 	mov    -0x1658(%rbp),%rax
   14e58:	48 8b 95 a0 e9 ff ff 	mov    -0x1660(%rbp),%rdx
   14e5f:	48 89 10             	mov    %rdx,(%rax)
   14e62:	c7 05 e8 e1 00 00 03 	movl   $0x3,0xe1e8(%rip)        # 23054 <g_200>
   14e69:	00 00 00 
   14e6c:	90                   	nop
   14e6d:	8b 05 e1 e1 00 00    	mov    0xe1e1(%rip),%eax        # 23054 <g_200>
   14e73:	85 c0                	test   %eax,%eax
   14e75:	0f 88 8b 22 00 00    	js     17106 <func_54+0x2d16>
   14e7b:	c7 85 20 e9 ff ff 3e 	movl   $0xd8d06b3e,-0x16e0(%rbp)
   14e82:	6b d0 d8 
   14e85:	48 8d 85 a8 e9 ff ff 	lea    -0x1658(%rbp),%rax
   14e8c:	48 89 85 b0 e9 ff ff 	mov    %rax,-0x1650(%rbp)
   14e93:	c7 85 24 e9 ff ff fa 	movl   $0xfffffffa,-0x16dc(%rbp)
   14e9a:	ff ff ff 
   14e9d:	48 c7 85 60 ea ff ff 	movq   $0x0,-0x15a0(%rbp)
   14ea4:	00 00 00 00 
   14ea8:	c7 85 58 e9 ff ff 06 	movl   $0x6,-0x16a8(%rbp)
   14eaf:	00 00 00 
   14eb2:	c7 85 80 eb ff ff ff 	movl   $0xffffffff,-0x1480(%rbp)
   14eb9:	ff ff ff 
   14ebc:	c7 85 84 eb ff ff ff 	movl   $0xffffffff,-0x147c(%rbp)
   14ec3:	ff ff ff 
   14ec6:	c7 85 88 eb ff ff ff 	movl   $0xffffffff,-0x1478(%rbp)
   14ecd:	ff ff ff 
   14ed0:	c7 85 8c eb ff ff ff 	movl   $0xffffffff,-0x1474(%rbp)
   14ed7:	ff ff ff 
   14eda:	c7 85 90 eb ff ff ff 	movl   $0xffffffff,-0x1470(%rbp)
   14ee1:	ff ff ff 
   14ee4:	c7 85 94 eb ff ff ff 	movl   $0xffffffff,-0x146c(%rbp)
   14eeb:	ff ff ff 
   14eee:	c7 85 98 eb ff ff ff 	movl   $0xffffffff,-0x1468(%rbp)
   14ef5:	ff ff ff 
   14ef8:	c7 85 9c eb ff ff ff 	movl   $0xffffffff,-0x1464(%rbp)
   14eff:	ff ff ff 
   14f02:	c7 85 a0 eb ff ff ff 	movl   $0xffffffff,-0x1460(%rbp)
   14f09:	ff ff ff 
   14f0c:	c7 85 a4 eb ff ff ff 	movl   $0xffffffff,-0x145c(%rbp)
   14f13:	ff ff ff 
   14f16:	c7 85 fc e8 ff ff 00 	movl   $0x0,-0x1704(%rbp)
   14f1d:	00 00 00 
   14f20:	48 8d 05 19 0e 01 00 	lea    0x10e19(%rip),%rax        # 25d40 <g_690+0x3e0>
   14f27:	48 89 85 b8 e9 ff ff 	mov    %rax,-0x1648(%rbp)
   14f2e:	c7 05 1c e5 00 00 00 	movl   $0x0,0xe51c(%rip)        # 23454 <g_340>
   14f35:	00 00 00 
   14f38:	e9 b0 21 00 00       	jmpq   170ed <func_54+0x2cfd>
   14f3d:	66 c7 85 dc e8 ff ff 	movw   $0xade1,-0x1724(%rbp)
   14f44:	e1 ad 
   14f46:	c7 85 00 e9 ff ff 09 	movl   $0x9,-0x1700(%rbp)
   14f4d:	00 00 00 
   14f50:	c7 85 5c e9 ff ff b5 	movl   $0x71f526b5,-0x16a4(%rbp)
   14f57:	26 f5 71 
   14f5a:	c7 85 60 e9 ff ff ff 	movl   $0xffffffff,-0x16a0(%rbp)
   14f61:	ff ff ff 
   14f64:	66 c7 85 de e8 ff ff 	movw   $0xffff,-0x1722(%rbp)
   14f6b:	ff ff 
   14f6d:	48 b8 82 7e 75 0c 12 	movabs $0x57b194120c757e82,%rax
   14f74:	94 b1 57 
   14f77:	48 89 85 c0 e9 ff ff 	mov    %rax,-0x1640(%rbp)
   14f7e:	48 8d 05 43 0c 01 00 	lea    0x10c43(%rip),%rax        # 25bc8 <g_690+0x268>
   14f85:	48 89 85 68 ea ff ff 	mov    %rax,-0x1598(%rbp)
   14f8c:	48 8d 85 a8 e9 ff ff 	lea    -0x1658(%rbp),%rax
   14f93:	48 89 85 70 ea ff ff 	mov    %rax,-0x1590(%rbp)
   14f9a:	48 8d 85 c0 e9 ff ff 	lea    -0x1640(%rbp),%rax
   14fa1:	48 89 85 c8 e9 ff ff 	mov    %rax,-0x1638(%rbp)
   14fa8:	48 8d 85 c8 e9 ff ff 	lea    -0x1638(%rbp),%rax
   14faf:	48 89 85 a0 ec ff ff 	mov    %rax,-0x1360(%rbp)
   14fb6:	48 8d 85 c8 e9 ff ff 	lea    -0x1638(%rbp),%rax
   14fbd:	48 89 85 a8 ec ff ff 	mov    %rax,-0x1358(%rbp)
   14fc4:	48 8d 85 c8 e9 ff ff 	lea    -0x1638(%rbp),%rax
   14fcb:	48 89 85 b0 ec ff ff 	mov    %rax,-0x1350(%rbp)
   14fd2:	48 8d 85 c8 e9 ff ff 	lea    -0x1638(%rbp),%rax
   14fd9:	48 89 85 b8 ec ff ff 	mov    %rax,-0x1348(%rbp)
   14fe0:	48 8d 85 c8 e9 ff ff 	lea    -0x1638(%rbp),%rax
   14fe7:	48 89 85 c0 ec ff ff 	mov    %rax,-0x1340(%rbp)
   14fee:	48 8d 85 c8 e9 ff ff 	lea    -0x1638(%rbp),%rax
   14ff5:	48 89 85 c8 ec ff ff 	mov    %rax,-0x1338(%rbp)
   14ffc:	48 8d 85 c8 e9 ff ff 	lea    -0x1638(%rbp),%rax
   15003:	48 89 85 d0 ec ff ff 	mov    %rax,-0x1330(%rbp)
   1500a:	48 8d 85 c8 e9 ff ff 	lea    -0x1638(%rbp),%rax
   15011:	48 89 85 d8 ec ff ff 	mov    %rax,-0x1328(%rbp)
   15018:	48 8d 85 c8 e9 ff ff 	lea    -0x1638(%rbp),%rax
   1501f:	48 89 85 e0 ec ff ff 	mov    %rax,-0x1320(%rbp)
   15026:	48 8d 85 c8 e9 ff ff 	lea    -0x1638(%rbp),%rax
   1502d:	48 89 85 e8 ec ff ff 	mov    %rax,-0x1318(%rbp)
   15034:	48 8d 85 c8 e9 ff ff 	lea    -0x1638(%rbp),%rax
   1503b:	48 89 85 f0 ec ff ff 	mov    %rax,-0x1310(%rbp)
   15042:	48 8d 85 c8 e9 ff ff 	lea    -0x1638(%rbp),%rax
   15049:	48 89 85 f8 ec ff ff 	mov    %rax,-0x1308(%rbp)
   15050:	48 8d 85 c8 e9 ff ff 	lea    -0x1638(%rbp),%rax
   15057:	48 89 85 00 ed ff ff 	mov    %rax,-0x1300(%rbp)
   1505e:	48 8d 85 c8 e9 ff ff 	lea    -0x1638(%rbp),%rax
   15065:	48 89 85 08 ed ff ff 	mov    %rax,-0x12f8(%rbp)
   1506c:	48 8d 85 c8 e9 ff ff 	lea    -0x1638(%rbp),%rax
   15073:	48 89 85 10 ed ff ff 	mov    %rax,-0x12f0(%rbp)
   1507a:	48 8d 85 c8 e9 ff ff 	lea    -0x1638(%rbp),%rax
   15081:	48 89 85 18 ed ff ff 	mov    %rax,-0x12e8(%rbp)
   15088:	48 8d 85 c8 e9 ff ff 	lea    -0x1638(%rbp),%rax
   1508f:	48 89 85 20 ed ff ff 	mov    %rax,-0x12e0(%rbp)
   15096:	48 8d 85 c8 e9 ff ff 	lea    -0x1638(%rbp),%rax
   1509d:	48 89 85 28 ed ff ff 	mov    %rax,-0x12d8(%rbp)
   150a4:	48 8d 85 c8 e9 ff ff 	lea    -0x1638(%rbp),%rax
   150ab:	48 89 85 30 ed ff ff 	mov    %rax,-0x12d0(%rbp)
   150b2:	48 8d 85 c8 e9 ff ff 	lea    -0x1638(%rbp),%rax
   150b9:	48 89 85 38 ed ff ff 	mov    %rax,-0x12c8(%rbp)
   150c0:	48 8d 85 a0 ec ff ff 	lea    -0x1360(%rbp),%rax
   150c7:	48 83 c0 18          	add    $0x18,%rax
   150cb:	48 89 85 78 ea ff ff 	mov    %rax,-0x1588(%rbp)
   150d2:	48 c7 85 80 ea ff ff 	movq   $0x0,-0x1580(%rbp)
   150d9:	00 00 00 00 
   150dd:	c7 85 28 e9 ff ff 00 	movl   $0x0,-0x16d8(%rbp)
   150e4:	00 00 00 
   150e7:	eb 1a                	jmp    15103 <func_54+0xd13>
   150e9:	8b 85 28 e9 ff ff    	mov    -0x16d8(%rbp),%eax
   150ef:	48 98                	cltq   
   150f1:	c7 84 85 54 eb ff ff 	movl   $0x4,-0x14ac(%rbp,%rax,4)
   150f8:	04 00 00 00 
   150fc:	83 85 28 e9 ff ff 01 	addl   $0x1,-0x16d8(%rbp)
   15103:	83 bd 28 e9 ff ff 02 	cmpl   $0x2,-0x16d8(%rbp)
   1510a:	7e dd                	jle    150e9 <func_54+0xcf9>
   1510c:	c7 85 e4 e8 ff ff 03 	movl   $0x3,-0x171c(%rbp)
   15113:	00 00 00 
   15116:	e9 91 00 00 00       	jmpq   151ac <func_54+0xdbc>
   1511b:	c7 85 8c e9 ff ff 11 	movl   $0x8975dd11,-0x1674(%rbp)
   15122:	dd 75 89 
   15125:	c7 85 90 e9 ff ff 01 	movl   $0x1,-0x1670(%rbp)
   1512c:	00 00 00 
   1512f:	c7 85 94 e9 ff ff fd 	movl   $0xbaabeafd,-0x166c(%rbp)
   15136:	ea ab ba 
   15139:	c7 85 2c e9 ff ff 00 	movl   $0x0,-0x16d4(%rbp)
   15140:	00 00 00 
   15143:	eb 1e                	jmp    15163 <func_54+0xd73>
   15145:	8b 85 2c e9 ff ff    	mov    -0x16d4(%rbp),%eax
   1514b:	48 98                	cltq   
   1514d:	48 8d 15 ec de 00 00 	lea    0xdeec(%rip),%rdx        # 23040 <g_121>
   15154:	48 89 94 c5 f0 f7 ff 	mov    %rdx,-0x810(%rbp,%rax,8)
   1515b:	ff 
   1515c:	83 85 2c e9 ff ff 01 	addl   $0x1,-0x16d4(%rbp)
   15163:	83 bd 2c e9 ff ff 09 	cmpl   $0x9,-0x16d4(%rbp)
   1516a:	7e d9                	jle    15145 <func_54+0xd55>
   1516c:	0f b6 85 d9 e8 ff ff 	movzbl -0x1727(%rbp),%eax
   15173:	c0 e8 07             	shr    $0x7,%al
   15176:	0f b6 c0             	movzbl %al,%eax
   15179:	89 85 8c e9 ff ff    	mov    %eax,-0x1674(%rbp)
   1517f:	8b 85 8c e9 ff ff    	mov    -0x1674(%rbp),%eax
   15185:	09 85 90 e9 ff ff    	or     %eax,-0x1670(%rbp)
   1518b:	48 8b 05 f6 06 01 00 	mov    0x106f6(%rip),%rax        # 25888 <g_87>
   15192:	48 8b 00             	mov    (%rax),%rax
   15195:	8b 00                	mov    (%rax),%eax
   15197:	09 85 94 e9 ff ff    	or     %eax,-0x166c(%rbp)
   1519d:	8b 85 e4 e8 ff ff    	mov    -0x171c(%rbp),%eax
   151a3:	83 e8 01             	sub    $0x1,%eax
   151a6:	89 85 e4 e8 ff ff    	mov    %eax,-0x171c(%rbp)
   151ac:	8b 85 e4 e8 ff ff    	mov    -0x171c(%rbp),%eax
   151b2:	85 c0                	test   %eax,%eax
   151b4:	0f 89 61 ff ff ff    	jns    1511b <func_54+0xd2b>
   151ba:	48 8b 05 c7 06 01 00 	mov    0x106c7(%rip),%rax        # 25888 <g_87>
   151c1:	48 8b 00             	mov    (%rax),%rax
   151c4:	8b 00                	mov    (%rax),%eax
   151c6:	85 c0                	test   %eax,%eax
   151c8:	0f 84 fd 09 00 00    	je     15bcb <func_54+0x17db>
   151ce:	48 8d 05 07 e2 00 00 	lea    0xe207(%rip),%rax        # 233dc <g_310+0x37c>
   151d5:	48 89 85 20 eb ff ff 	mov    %rax,-0x14e0(%rbp)
   151dc:	48 8d 05 41 de 00 00 	lea    0xde41(%rip),%rax        # 23024 <g_3>
   151e3:	48 89 85 28 eb ff ff 	mov    %rax,-0x14d8(%rbp)
   151ea:	48 8d 85 e4 e8 ff ff 	lea    -0x171c(%rbp),%rax
   151f1:	48 89 85 f0 f7 ff ff 	mov    %rax,-0x810(%rbp)
   151f8:	48 c7 85 f8 f7 ff ff 	movq   $0x0,-0x808(%rbp)
   151ff:	00 00 00 00 
   15203:	48 c7 85 00 f8 ff ff 	movq   $0x0,-0x800(%rbp)
   1520a:	00 00 00 00 
   1520e:	48 8d 85 e4 e8 ff ff 	lea    -0x171c(%rbp),%rax
   15215:	48 89 85 08 f8 ff ff 	mov    %rax,-0x7f8(%rbp)
   1521c:	48 8d 85 e4 e8 ff ff 	lea    -0x171c(%rbp),%rax
   15223:	48 89 85 10 f8 ff ff 	mov    %rax,-0x7f0(%rbp)
   1522a:	48 c7 85 18 f8 ff ff 	movq   $0x0,-0x7e8(%rbp)
   15231:	00 00 00 00 
   15235:	48 8d 85 e4 e8 ff ff 	lea    -0x171c(%rbp),%rax
   1523c:	48 89 85 20 f8 ff ff 	mov    %rax,-0x7e0(%rbp)
   15243:	48 8d 85 e4 e8 ff ff 	lea    -0x171c(%rbp),%rax
   1524a:	48 89 85 28 f8 ff ff 	mov    %rax,-0x7d8(%rbp)
   15251:	48 c7 85 30 f8 ff ff 	movq   $0x0,-0x7d0(%rbp)
   15258:	00 00 00 00 
   1525c:	48 c7 85 38 f8 ff ff 	movq   $0x0,-0x7c8(%rbp)
   15263:	00 00 00 00 
   15267:	48 8d 85 e4 e8 ff ff 	lea    -0x171c(%rbp),%rax
   1526e:	48 89 85 40 f8 ff ff 	mov    %rax,-0x7c0(%rbp)
   15275:	48 8d 85 e4 e8 ff ff 	lea    -0x171c(%rbp),%rax
   1527c:	48 89 85 48 f8 ff ff 	mov    %rax,-0x7b8(%rbp)
   15283:	48 8d 85 e4 e8 ff ff 	lea    -0x171c(%rbp),%rax
   1528a:	48 89 85 50 f8 ff ff 	mov    %rax,-0x7b0(%rbp)
   15291:	48 c7 85 58 f8 ff ff 	movq   $0x0,-0x7a8(%rbp)
   15298:	00 00 00 00 
   1529c:	48 c7 85 60 f8 ff ff 	movq   $0x0,-0x7a0(%rbp)
   152a3:	00 00 00 00 
   152a7:	48 8d 85 e4 e8 ff ff 	lea    -0x171c(%rbp),%rax
   152ae:	48 89 85 68 f8 ff ff 	mov    %rax,-0x798(%rbp)
   152b5:	48 8d 85 e4 e8 ff ff 	lea    -0x171c(%rbp),%rax
   152bc:	48 89 85 70 f8 ff ff 	mov    %rax,-0x790(%rbp)
   152c3:	48 c7 85 78 f8 ff ff 	movq   $0x0,-0x788(%rbp)
   152ca:	00 00 00 00 
   152ce:	48 8d 85 e4 e8 ff ff 	lea    -0x171c(%rbp),%rax
   152d5:	48 89 85 80 f8 ff ff 	mov    %rax,-0x780(%rbp)
   152dc:	48 8d 85 e4 e8 ff ff 	lea    -0x171c(%rbp),%rax
   152e3:	48 89 85 88 f8 ff ff 	mov    %rax,-0x778(%rbp)
   152ea:	48 c7 85 90 f8 ff ff 	movq   $0x0,-0x770(%rbp)
   152f1:	00 00 00 00 
   152f5:	48 c7 85 98 f8 ff ff 	movq   $0x0,-0x768(%rbp)
   152fc:	00 00 00 00 
   15300:	48 8d 85 e4 e8 ff ff 	lea    -0x171c(%rbp),%rax
   15307:	48 89 85 a0 f8 ff ff 	mov    %rax,-0x760(%rbp)
   1530e:	48 8d 85 e4 e8 ff ff 	lea    -0x171c(%rbp),%rax
   15315:	48 89 85 a8 f8 ff ff 	mov    %rax,-0x758(%rbp)
   1531c:	48 8d 85 e4 e8 ff ff 	lea    -0x171c(%rbp),%rax
   15323:	48 89 85 b0 f8 ff ff 	mov    %rax,-0x750(%rbp)
   1532a:	48 c7 85 b8 f8 ff ff 	movq   $0x0,-0x748(%rbp)
   15331:	00 00 00 00 
   15335:	48 c7 85 c0 f8 ff ff 	movq   $0x0,-0x740(%rbp)
   1533c:	00 00 00 00 
   15340:	48 8d 85 e4 e8 ff ff 	lea    -0x171c(%rbp),%rax
   15347:	48 89 85 c8 f8 ff ff 	mov    %rax,-0x738(%rbp)
   1534e:	48 8d 85 e4 e8 ff ff 	lea    -0x171c(%rbp),%rax
   15355:	48 89 85 d0 f8 ff ff 	mov    %rax,-0x730(%rbp)
   1535c:	48 c7 85 d8 f8 ff ff 	movq   $0x0,-0x728(%rbp)
   15363:	00 00 00 00 
   15367:	48 c7 85 30 eb ff ff 	movq   $0x0,-0x14d0(%rbp)
   1536e:	00 00 00 00 
   15372:	48 8d 85 b0 e9 ff ff 	lea    -0x1650(%rbp),%rax
   15379:	48 89 85 50 ec ff ff 	mov    %rax,-0x13b0(%rbp)
   15380:	48 8d 85 b0 e9 ff ff 	lea    -0x1650(%rbp),%rax
   15387:	48 89 85 58 ec ff ff 	mov    %rax,-0x13a8(%rbp)
   1538e:	48 8d 85 b0 e9 ff ff 	lea    -0x1650(%rbp),%rax
   15395:	48 89 85 60 ec ff ff 	mov    %rax,-0x13a0(%rbp)
   1539c:	48 8d 85 b0 e9 ff ff 	lea    -0x1650(%rbp),%rax
   153a3:	48 89 85 68 ec ff ff 	mov    %rax,-0x1398(%rbp)
   153aa:	48 8d 85 b0 e9 ff ff 	lea    -0x1650(%rbp),%rax
   153b1:	48 89 85 70 ec ff ff 	mov    %rax,-0x1390(%rbp)
   153b8:	48 8d 85 b0 e9 ff ff 	lea    -0x1650(%rbp),%rax
   153bf:	48 89 85 78 ec ff ff 	mov    %rax,-0x1388(%rbp)
   153c6:	48 8d 85 b0 e9 ff ff 	lea    -0x1650(%rbp),%rax
   153cd:	48 89 85 80 ec ff ff 	mov    %rax,-0x1380(%rbp)
   153d4:	48 8d 85 b0 e9 ff ff 	lea    -0x1650(%rbp),%rax
   153db:	48 89 85 88 ec ff ff 	mov    %rax,-0x1378(%rbp)
   153e2:	48 8d 85 b0 e9 ff ff 	lea    -0x1650(%rbp),%rax
   153e9:	48 89 85 90 ec ff ff 	mov    %rax,-0x1370(%rbp)
   153f0:	48 8d 85 b0 e9 ff ff 	lea    -0x1650(%rbp),%rax
   153f7:	48 89 85 98 ec ff ff 	mov    %rax,-0x1368(%rbp)
   153fe:	48 c7 85 d0 e9 ff ff 	movq   $0x0,-0x1630(%rbp)
   15405:	00 00 00 00 
   15409:	c7 85 30 e9 ff ff 00 	movl   $0x0,-0x16d0(%rbp)
   15410:	00 00 00 
   15413:	eb 1b                	jmp    15430 <func_54+0x1040>
   15415:	8b 85 30 e9 ff ff    	mov    -0x16d0(%rbp),%eax
   1541b:	48 98                	cltq   
   1541d:	48 c7 84 c5 48 eb ff 	movq   $0x0,-0x14b8(%rbp,%rax,8)
   15424:	ff 00 00 00 00 
   15429:	83 85 30 e9 ff ff 01 	addl   $0x1,-0x16d0(%rbp)
   15430:	83 bd 30 e9 ff ff 00 	cmpl   $0x0,-0x16d0(%rbp)
   15437:	7e dc                	jle    15415 <func_54+0x1025>
   15439:	c7 85 30 e9 ff ff 00 	movl   $0x0,-0x16d0(%rbp)
   15440:	00 00 00 
   15443:	eb 1e                	jmp    15463 <func_54+0x1073>
   15445:	8b 85 30 e9 ff ff    	mov    -0x16d0(%rbp),%eax
   1544b:	48 98                	cltq   
   1544d:	48 8d 15 ec db 00 00 	lea    0xdbec(%rip),%rdx        # 23040 <g_121>
   15454:	48 89 94 c5 60 eb ff 	mov    %rdx,-0x14a0(%rbp,%rax,8)
   1545b:	ff 
   1545c:	83 85 30 e9 ff ff 01 	addl   $0x1,-0x16d0(%rbp)
   15463:	83 bd 30 e9 ff ff 03 	cmpl   $0x3,-0x16d0(%rbp)
   1546a:	7e d9                	jle    15445 <func_54+0x1055>
   1546c:	83 85 20 e9 ff ff 01 	addl   $0x1,-0x16e0(%rbp)
   15473:	48 c7 85 c8 e8 ff ff 	movq   $0x0,-0x1738(%rbp)
   1547a:	00 00 00 00 
   1547e:	8b 9d 20 e9 ff ff    	mov    -0x16e0(%rbp),%ebx
   15484:	0f b7 85 da e8 ff ff 	movzwl -0x1726(%rbp),%eax
   1548b:	44 0f bf e0          	movswl %ax,%r12d
   1548f:	0f b7 85 dc e8 ff ff 	movzwl -0x1724(%rbp),%eax
   15496:	44 0f bf e8          	movswl %ax,%r13d
   1549a:	48 8b 85 b0 e9 ff ff 	mov    -0x1650(%rbp),%rax
   154a1:	48 89 05 88 0c 01 00 	mov    %rax,0x10c88(%rip)        # 26130 <g_927>
   154a8:	0f b7 85 dc e8 ff ff 	movzwl -0x1724(%rbp),%eax
   154af:	0f be d0             	movsbl %al,%edx
   154b2:	48 8b 05 97 04 01 00 	mov    0x10497(%rip),%rax        # 25950 <g_691>
   154b9:	48 8b 00             	mov    (%rax),%rax
   154bc:	0f b6 00             	movzbl (%rax),%eax
   154bf:	0f be c0             	movsbl %al,%eax
   154c2:	89 d6                	mov    %edx,%esi
   154c4:	89 c7                	mov    %eax,%edi
   154c6:	e8 9f 5d ff ff       	callq  b26a <safe_div_func_int8_t_s_s>
   154cb:	8b 85 c0 eb ff ff    	mov    -0x1440(%rbp),%eax
   154d1:	89 85 5c e9 ff ff    	mov    %eax,-0x16a4(%rbp)
   154d7:	8b 85 5c e9 ff ff    	mov    -0x16a4(%rbp),%eax
   154dd:	0f be d0             	movsbl %al,%edx
   154e0:	48 8b 05 51 04 01 00 	mov    0x10451(%rip),%rax        # 25938 <g_626>
   154e7:	48 8b 00             	mov    (%rax),%rax
   154ea:	0f b6 00             	movzbl (%rax),%eax
   154ed:	0f be c0             	movsbl %al,%eax
   154f0:	89 d6                	mov    %edx,%esi
   154f2:	89 c7                	mov    %eax,%edi
   154f4:	e8 38 5d ff ff       	callq  b231 <safe_mod_func_int8_t_s_s>
   154f9:	0f be c0             	movsbl %al,%eax
   154fc:	89 85 24 e9 ff ff    	mov    %eax,-0x16dc(%rbp)
   15502:	8b 85 24 e9 ff ff    	mov    -0x16dc(%rbp),%eax
   15508:	48 63 d0             	movslq %eax,%rdx
   1550b:	48 8b 85 e0 e9 ff ff 	mov    -0x1620(%rbp),%rax
   15512:	48 89 10             	mov    %rdx,(%rax)
   15515:	48 8b 85 e0 e9 ff ff 	mov    -0x1620(%rbp),%rax
   1551c:	48 8b 10             	mov    (%rax),%rdx
   1551f:	48 8b 85 98 e9 ff ff 	mov    -0x1668(%rbp),%rax
   15526:	89 10                	mov    %edx,(%rax)
   15528:	8b 10                	mov    (%rax),%edx
   1552a:	8b 85 00 e9 ff ff    	mov    -0x1700(%rbp),%eax
   15530:	39 c2                	cmp    %eax,%edx
   15532:	0f 9c c0             	setl   %al
   15535:	0f b6 c0             	movzbl %al,%eax
   15538:	be 02 00 00 00       	mov    $0x2,%esi
   1553d:	89 c7                	mov    %eax,%edi
   1553f:	e8 ce 5c ff ff       	callq  b212 <safe_mul_func_int8_t_s_s>
   15544:	0f be c0             	movsbl %al,%eax
   15547:	44 89 ee             	mov    %r13d,%esi
   1554a:	89 c7                	mov    %eax,%edi
   1554c:	e8 e4 5d ff ff       	callq  b335 <safe_rshift_func_int8_t_s_s>
   15551:	0f b6 c0             	movzbl %al,%eax
   15554:	be 00 00 00 00       	mov    $0x0,%esi
   15559:	89 c7                	mov    %eax,%edi
   1555b:	e8 33 66 ff ff       	callq  bb93 <safe_mul_func_uint8_t_u_u>
   15560:	0f b6 c0             	movzbl %al,%eax
   15563:	44 89 e6             	mov    %r12d,%esi
   15566:	89 c7                	mov    %eax,%edi
   15568:	e8 46 5e ff ff       	callq  b3b3 <safe_add_func_int16_t_s_s>
   1556d:	0f bf d0             	movswl %ax,%edx
   15570:	8b 85 00 e9 ff ff    	mov    -0x1700(%rbp),%eax
   15576:	39 c2                	cmp    %eax,%edx
   15578:	0f 9c c0             	setl   %al
   1557b:	0f b6 c0             	movzbl %al,%eax
   1557e:	09 85 60 e9 ff ff    	or     %eax,-0x16a0(%rbp)
   15584:	8b 85 60 e9 ff ff    	mov    -0x16a0(%rbp),%eax
   1558a:	0f b6 c0             	movzbl %al,%eax
   1558d:	be 01 00 00 00       	mov    $0x1,%esi
   15592:	89 c7                	mov    %eax,%edi
   15594:	e8 fa 65 ff ff       	callq  bb93 <safe_mul_func_uint8_t_u_u>
   15599:	be 1e 25 2e 0f       	mov    $0xf2e251e,%esi
   1559e:	bf fc 4b c9 a6       	mov    $0xa6c94bfc,%edi
   155a3:	e8 55 69 ff ff       	callq  befd <safe_mod_func_uint32_t_u_u>
   155a8:	85 c0                	test   %eax,%eax
   155aa:	74 14                	je     155c0 <func_54+0x11d0>
   155ac:	48 8b 85 20 eb ff ff 	mov    -0x14e0(%rbp),%rax
   155b3:	8b 00                	mov    (%rax),%eax
   155b5:	85 c0                	test   %eax,%eax
   155b7:	74 07                	je     155c0 <func_54+0x11d0>
   155b9:	b8 01 00 00 00       	mov    $0x1,%eax
   155be:	eb 05                	jmp    155c5 <func_54+0x11d5>
   155c0:	b8 00 00 00 00       	mov    $0x0,%eax
   155c5:	83 f8 01             	cmp    $0x1,%eax
   155c8:	0f 9e c0             	setle  %al
   155cb:	0f b6 c0             	movzbl %al,%eax
   155ce:	48 89 de             	mov    %rbx,%rsi
   155d1:	48 89 c7             	mov    %rax,%rdi
   155d4:	e8 a7 6a ff ff       	callq  c080 <safe_mod_func_uint64_t_u_u>
   155d9:	48 3d f8 00 00 00    	cmp    $0xf8,%rax
   155df:	0f 97 c0             	seta   %al
   155e2:	0f b6 c0             	movzbl %al,%eax
   155e5:	39 85 20 e9 ff ff    	cmp    %eax,-0x16e0(%rbp)
   155eb:	0f 86 25 01 00 00    	jbe    15716 <func_54+0x1326>
   155f1:	66 c7 85 e2 e8 ff ff 	movw   $0x0,-0x171e(%rbp)
   155f8:	00 00 
   155fa:	48 8d 05 df 02 01 00 	lea    0x102df(%rip),%rax        # 258e0 <g_196>
   15601:	48 89 85 d8 e9 ff ff 	mov    %rax,-0x1628(%rbp)
   15608:	48 8d 85 d8 e9 ff ff 	lea    -0x1628(%rbp),%rax
   1560f:	48 89 85 38 eb ff ff 	mov    %rax,-0x14c8(%rbp)
   15616:	48 8d 85 d0 e9 ff ff 	lea    -0x1630(%rbp),%rax
   1561d:	48 89 85 40 eb ff ff 	mov    %rax,-0x14c0(%rbp)
   15624:	0f b7 9d e2 e8 ff ff 	movzwl -0x171e(%rbp),%ebx
   1562b:	48 8b 85 98 e9 ff ff 	mov    -0x1668(%rbp),%rax
   15632:	8b 00                	mov    (%rax),%eax
   15634:	44 0f b7 e0          	movzwl %ax,%r12d
   15638:	48 8b 95 d0 e9 ff ff 	mov    -0x1630(%rbp),%rdx
   1563f:	48 8b 85 40 eb ff ff 	mov    -0x14c0(%rbp),%rax
   15646:	48 89 10             	mov    %rdx,(%rax)
   15649:	48 8b 85 40 eb ff ff 	mov    -0x14c0(%rbp),%rax
   15650:	48 8b 00             	mov    (%rax),%rax
   15653:	48 39 85 38 eb ff ff 	cmp    %rax,-0x14c8(%rbp)
   1565a:	74 0a                	je     15666 <func_54+0x1276>
   1565c:	8b 85 d0 eb ff ff    	mov    -0x1430(%rbp),%eax
   15662:	85 c0                	test   %eax,%eax
   15664:	74 07                	je     1566d <func_54+0x127d>
   15666:	b8 01 00 00 00       	mov    $0x1,%eax
   1566b:	eb 05                	jmp    15672 <func_54+0x1282>
   1566d:	b8 00 00 00 00       	mov    $0x0,%eax
   15672:	98                   	cwtl   
   15673:	be 07 00 00 00       	mov    $0x7,%esi
   15678:	89 c7                	mov    %eax,%edi
   1567a:	e8 13 5e ff ff       	callq  b492 <safe_lshift_func_int16_t_s_s>
   1567f:	8b 95 f8 e8 ff ff    	mov    -0x1708(%rbp),%edx
   15685:	09 d0                	or     %edx,%eax
   15687:	0f b7 c0             	movzwl %ax,%eax
   1568a:	44 89 e6             	mov    %r12d,%esi
   1568d:	89 c7                	mov    %eax,%edi
   1568f:	e8 6b 66 ff ff       	callq  bcff <safe_add_func_uint16_t_u_u>
   15694:	0f b7 c0             	movzwl %ax,%eax
   15697:	c7 85 24 e9 ff ff f8 	movl   $0xfffffff8,-0x16dc(%rbp)
   1569e:	ff ff ff 
   156a1:	48 89 c6             	mov    %rax,%rsi
   156a4:	48 c7 c7 f8 ff ff ff 	mov    $0xfffffffffffffff8,%rdi
   156ab:	e8 04 63 ff ff       	callq  b9b4 <safe_mod_func_int64_t_s_s>
   156b0:	0f be c0             	movsbl %al,%eax
   156b3:	89 de                	mov    %ebx,%esi
   156b5:	89 c7                	mov    %eax,%edi
   156b7:	e8 32 5c ff ff       	callq  b2ee <safe_lshift_func_int8_t_s_u>
   156bc:	83 c8 01             	or     $0x1,%eax
   156bf:	48 0f be d0          	movsbq %al,%rdx
   156c3:	48 8b 85 e0 e9 ff ff 	mov    -0x1620(%rbp),%rax
   156ca:	48 89 10             	mov    %rdx,(%rax)
   156cd:	48 8b 85 e0 e9 ff ff 	mov    -0x1620(%rbp),%rax
   156d4:	48 8b 00             	mov    (%rax),%rax
   156d7:	48 89 c2             	mov    %rax,%rdx
   156da:	0f b7 85 e2 e8 ff ff 	movzwl -0x171e(%rbp),%eax
   156e1:	48 89 d6             	mov    %rdx,%rsi
   156e4:	48 89 c7             	mov    %rax,%rdi
   156e7:	e8 5f 69 ff ff       	callq  c04b <safe_sub_func_uint64_t_u_u>
   156ec:	89 c2                	mov    %eax,%edx
   156ee:	48 8b 85 28 eb ff ff 	mov    -0x14d8(%rbp),%rax
   156f5:	89 10                	mov    %edx,(%rax)
   156f7:	48 8b 05 22 0a 01 00 	mov    0x10a22(%rip),%rax        # 26120 <g_882>
   156fe:	8b 10                	mov    (%rax),%edx
   15700:	48 8b 85 20 eb ff ff 	mov    -0x14e0(%rbp),%rax
   15707:	8b 00                	mov    (%rax),%eax
   15709:	09 c2                	or     %eax,%edx
   1570b:	48 8b 85 20 eb ff ff 	mov    -0x14e0(%rbp),%rax
   15712:	89 10                	mov    %edx,(%rax)
   15714:	eb 11                	jmp    15727 <func_54+0x1337>
   15716:	48 8b 05 03 0a 01 00 	mov    0x10a03(%rip),%rax        # 26120 <g_882>
   1571d:	8b 00                	mov    (%rax),%eax
   1571f:	85 c0                	test   %eax,%eax
   15721:	0f 85 d4 19 00 00    	jne    170fb <func_54+0x2d0b>
   15727:	8b 85 24 e9 ff ff    	mov    -0x16dc(%rbp),%eax
   1572d:	0f b6 d8             	movzbl %al,%ebx
   15730:	8b 85 60 e9 ff ff    	mov    -0x16a0(%rbp),%eax
   15736:	44 0f bf e0          	movswl %ax,%r12d
   1573a:	0f b7 85 dc e8 ff ff 	movzwl -0x1724(%rbp),%eax
   15741:	44 0f bf f8          	movswl %ax,%r15d
   15745:	48 8b 85 98 e9 ff ff 	mov    -0x1668(%rbp),%rax
   1574c:	8b 00                	mov    (%rax),%eax
   1574e:	44 0f b6 e8          	movzbl %al,%r13d
   15752:	48 8b 85 98 e9 ff ff 	mov    -0x1668(%rbp),%rax
   15759:	8b 00                	mov    (%rax),%eax
   1575b:	44 0f bf f0          	movswl %ax,%r14d
   1575f:	8b 05 ef dc 00 00    	mov    0xdcef(%rip),%eax        # 23454 <g_340>
   15765:	31 85 5c e9 ff ff    	xor    %eax,-0x16a4(%rbp)
   1576b:	8b 85 5c e9 ff ff    	mov    -0x16a4(%rbp),%eax
   15771:	0f b7 d0             	movzwl %ax,%edx
   15774:	48 8d 05 95 26 01 00 	lea    0x12695(%rip),%rax        # 27e10 <g_813>
   1577b:	48 39 85 60 ea ff ff 	cmp    %rax,-0x15a0(%rbp)
   15782:	0f 95 c0             	setne  %al
   15785:	0f b6 c0             	movzbl %al,%eax
   15788:	89 d6                	mov    %edx,%esi
   1578a:	89 c7                	mov    %eax,%edi
   1578c:	e8 cb 65 ff ff       	callq  bd5c <safe_mod_func_uint16_t_u_u>
   15791:	0f b7 95 de e8 ff ff 	movzwl -0x1722(%rbp),%edx
   15798:	21 d0                	and    %edx,%eax
   1579a:	66 3d f8 8b          	cmp    $0x8bf8,%ax
   1579e:	0f 94 c0             	sete   %al
   157a1:	0f b6 d0             	movzbl %al,%edx
   157a4:	8b 85 5c e9 ff ff    	mov    -0x16a4(%rbp),%eax
   157aa:	0f b7 c0             	movzwl %ax,%eax
   157ad:	89 d6                	mov    %edx,%esi
   157af:	89 c7                	mov    %eax,%edi
   157b1:	e8 87 65 ff ff       	callq  bd3d <safe_mul_func_uint16_t_u_u>
   157b6:	98                   	cwtl   
   157b7:	44 89 f6             	mov    %r14d,%esi
   157ba:	89 c7                	mov    %eax,%edi
   157bc:	e8 f2 5b ff ff       	callq  b3b3 <safe_add_func_int16_t_s_s>
   157c1:	0f b6 c0             	movzbl %al,%eax
   157c4:	44 89 ee             	mov    %r13d,%esi
   157c7:	89 c7                	mov    %eax,%edi
   157c9:	e8 c5 63 ff ff       	callq  bb93 <safe_mul_func_uint8_t_u_u>
   157ce:	0f b6 c0             	movzbl %al,%eax
   157d1:	be fa 00 00 00       	mov    $0xfa,%esi
   157d6:	89 c7                	mov    %eax,%edi
   157d8:	e8 9b 63 ff ff       	callq  bb78 <safe_sub_func_uint8_t_u_u>
   157dd:	0f b6 05 6c d8 00 00 	movzbl 0xd86c(%rip),%eax        # 23050 <g_188>
   157e4:	3c 01                	cmp    $0x1,%al
   157e6:	7e 14                	jle    157fc <func_54+0x140c>
   157e8:	48 8b 85 98 e9 ff ff 	mov    -0x1668(%rbp),%rax
   157ef:	8b 00                	mov    (%rax),%eax
   157f1:	85 c0                	test   %eax,%eax
   157f3:	74 07                	je     157fc <func_54+0x140c>
   157f5:	b8 01 00 00 00       	mov    $0x1,%eax
   157fa:	eb 05                	jmp    15801 <func_54+0x1411>
   157fc:	b8 00 00 00 00       	mov    $0x0,%eax
   15801:	3d f7 ff 00 00       	cmp    $0xfff7,%eax
   15806:	0f 95 c0             	setne  %al
   15809:	0f b6 c0             	movzbl %al,%eax
   1580c:	41 39 c7             	cmp    %eax,%r15d
   1580f:	0f b7 05 24 d8 00 00 	movzwl 0xd824(%rip),%eax        # 2303a <g_6+0xa>
   15816:	0f b7 c0             	movzwl %ax,%eax
   15819:	89 c7                	mov    %eax,%edi
   1581b:	e8 86 66 ff ff       	callq  bea6 <safe_unary_minus_func_uint32_t_u>
   15820:	0f b7 c0             	movzwl %ax,%eax
   15823:	be 02 00 00 00       	mov    $0x2,%esi
   15828:	89 c7                	mov    %eax,%edi
   1582a:	e8 f0 64 ff ff       	callq  bd1f <safe_sub_func_uint16_t_u_u>
   1582f:	98                   	cwtl   
   15830:	be 57 ed ff ff       	mov    $0xffffed57,%esi
   15835:	89 c7                	mov    %eax,%edi
   15837:	e8 77 5b ff ff       	callq  b3b3 <safe_add_func_int16_t_s_s>
   1583c:	98                   	cwtl   
   1583d:	44 89 e6             	mov    %r12d,%esi
   15840:	89 c7                	mov    %eax,%edi
   15842:	e8 ae 5b ff ff       	callq  b3f5 <safe_mul_func_int16_t_s_s>
   15847:	0f b7 05 0a dc 00 00 	movzwl 0xdc0a(%rip),%eax        # 23458 <g_382>
   1584e:	8b 85 f8 e8 ff ff    	mov    -0x1708(%rbp),%eax
   15854:	be 86 80 c9 0a       	mov    $0xac98086,%esi
   15859:	89 c7                	mov    %eax,%edi
   1585b:	e8 9d 66 ff ff       	callq  befd <safe_mod_func_uint32_t_u_u>
   15860:	0f b6 c0             	movzbl %al,%eax
   15863:	89 de                	mov    %ebx,%esi
   15865:	89 c7                	mov    %eax,%edi
   15867:	e8 0c 63 ff ff       	callq  bb78 <safe_sub_func_uint8_t_u_u>
   1586c:	84 c0                	test   %al,%al
   1586e:	74 59                	je     158c9 <func_54+0x14d9>
   15870:	48 8b 85 98 e9 ff ff 	mov    -0x1668(%rbp),%rax
   15877:	8b 08                	mov    (%rax),%ecx
   15879:	0f be 95 d8 e8 ff ff 	movsbl -0x1728(%rbp),%edx
   15880:	48 8b 85 98 e9 ff ff 	mov    -0x1668(%rbp),%rax
   15887:	21 ca                	and    %ecx,%edx
   15889:	89 10                	mov    %edx,(%rax)
   1588b:	8b 10                	mov    (%rax),%edx
   1588d:	48 8b 85 20 eb ff ff 	mov    -0x14e0(%rbp),%rax
   15894:	8b 00                	mov    (%rax),%eax
   15896:	09 c2                	or     %eax,%edx
   15898:	48 8b 85 20 eb ff ff 	mov    -0x14e0(%rbp),%rax
   1589f:	89 10                	mov    %edx,(%rax)
   158a1:	48 8b 05 88 08 01 00 	mov    0x10888(%rip),%rax        # 26130 <g_927>
   158a8:	48 8b 10             	mov    (%rax),%rdx
   158ab:	48 8d 85 a0 e9 ff ff 	lea    -0x1660(%rbp),%rax
   158b2:	48 39 c2             	cmp    %rax,%rdx
   158b5:	0f 95 c2             	setne  %dl
   158b8:	48 8b 85 98 e9 ff ff 	mov    -0x1668(%rbp),%rax
   158bf:	0f b6 d2             	movzbl %dl,%edx
   158c2:	89 10                	mov    %edx,(%rax)
   158c4:	e9 15 18 00 00       	jmpq   170de <func_54+0x2cee>
   158c9:	66 c7 85 40 ed ff ff 	movw   $0xfff6,-0x12c0(%rbp)
   158d0:	f6 ff 
   158d2:	66 c7 85 42 ed ff ff 	movw   $0x21f8,-0x12be(%rbp)
   158d9:	f8 21 
   158db:	66 c7 85 44 ed ff ff 	movw   $0xfff6,-0x12bc(%rbp)
   158e2:	f6 ff 
   158e4:	66 c7 85 46 ed ff ff 	movw   $0xfff6,-0x12ba(%rbp)
   158eb:	f6 ff 
   158ed:	66 c7 85 48 ed ff ff 	movw   $0x21f8,-0x12b8(%rbp)
   158f4:	f8 21 
   158f6:	66 c7 85 4a ed ff ff 	movw   $0xfff6,-0x12b6(%rbp)
   158fd:	f6 ff 
   158ff:	66 c7 85 4c ed ff ff 	movw   $0xfff6,-0x12b4(%rbp)
   15906:	f6 ff 
   15908:	66 c7 85 4e ed ff ff 	movw   $0x21f8,-0x12b2(%rbp)
   1590f:	f8 21 
   15911:	66 c7 85 50 ed ff ff 	movw   $0x21f8,-0x12b0(%rbp)
   15918:	f8 21 
   1591a:	66 c7 85 52 ed ff ff 	movw   $0xfff6,-0x12ae(%rbp)
   15921:	f6 ff 
   15923:	66 c7 85 54 ed ff ff 	movw   $0xfff6,-0x12ac(%rbp)
   1592a:	f6 ff 
   1592c:	66 c7 85 56 ed ff ff 	movw   $0x21f8,-0x12aa(%rbp)
   15933:	f8 21 
   15935:	66 c7 85 58 ed ff ff 	movw   $0xfff6,-0x12a8(%rbp)
   1593c:	f6 ff 
   1593e:	66 c7 85 5a ed ff ff 	movw   $0xfff6,-0x12a6(%rbp)
   15945:	f6 ff 
   15947:	66 c7 85 5c ed ff ff 	movw   $0x21f8,-0x12a4(%rbp)
   1594e:	f8 21 
   15950:	66 c7 85 5e ed ff ff 	movw   $0xfff6,-0x12a2(%rbp)
   15957:	f6 ff 
   15959:	66 c7 85 60 ed ff ff 	movw   $0x21f8,-0x12a0(%rbp)
   15960:	f8 21 
   15962:	66 c7 85 62 ed ff ff 	movw   $0x21f8,-0x129e(%rbp)
   15969:	f8 21 
   1596b:	66 c7 85 64 ed ff ff 	movw   $0x4,-0x129c(%rbp)
   15972:	04 00 
   15974:	66 c7 85 66 ed ff ff 	movw   $0x21f8,-0x129a(%rbp)
   1597b:	f8 21 
   1597d:	66 c7 85 68 ed ff ff 	movw   $0x21f8,-0x1298(%rbp)
   15984:	f8 21 
   15986:	66 c7 85 6a ed ff ff 	movw   $0x4,-0x1296(%rbp)
   1598d:	04 00 
   1598f:	66 c7 85 6c ed ff ff 	movw   $0x21f8,-0x1294(%rbp)
   15996:	f8 21 
   15998:	66 c7 85 6e ed ff ff 	movw   $0x21f8,-0x1292(%rbp)
   1599f:	f8 21 
   159a1:	66 c7 85 70 ed ff ff 	movw   $0xfff6,-0x1290(%rbp)
   159a8:	f6 ff 
   159aa:	66 c7 85 72 ed ff ff 	movw   $0x21f8,-0x128e(%rbp)
   159b1:	f8 21 
   159b3:	66 c7 85 74 ed ff ff 	movw   $0xfff6,-0x128c(%rbp)
   159ba:	f6 ff 
   159bc:	66 c7 85 76 ed ff ff 	movw   $0xfff6,-0x128a(%rbp)
   159c3:	f6 ff 
   159c5:	66 c7 85 78 ed ff ff 	movw   $0x21f8,-0x1288(%rbp)
   159cc:	f8 21 
   159ce:	66 c7 85 7a ed ff ff 	movw   $0xfff6,-0x1286(%rbp)
   159d5:	f6 ff 
   159d7:	66 c7 85 7c ed ff ff 	movw   $0xfff6,-0x1284(%rbp)
   159de:	f6 ff 
   159e0:	66 c7 85 7e ed ff ff 	movw   $0x21f8,-0x1282(%rbp)
   159e7:	f8 21 
   159e9:	66 c7 85 80 ed ff ff 	movw   $0x21f8,-0x1280(%rbp)
   159f0:	f8 21 
   159f2:	66 c7 85 82 ed ff ff 	movw   $0xfff6,-0x127e(%rbp)
   159f9:	f6 ff 
   159fb:	66 c7 85 84 ed ff ff 	movw   $0xfff6,-0x127c(%rbp)
   15a02:	f6 ff 
   15a04:	66 c7 85 86 ed ff ff 	movw   $0x21f8,-0x127a(%rbp)
   15a0b:	f8 21 
   15a0d:	66 c7 85 88 ed ff ff 	movw   $0xfff6,-0x1278(%rbp)
   15a14:	f6 ff 
   15a16:	66 c7 85 8a ed ff ff 	movw   $0xfff6,-0x1276(%rbp)
   15a1d:	f6 ff 
   15a1f:	66 c7 85 8c ed ff ff 	movw   $0x21f8,-0x1274(%rbp)
   15a26:	f8 21 
   15a28:	66 c7 85 8e ed ff ff 	movw   $0xfff6,-0x1272(%rbp)
   15a2f:	f6 ff 
   15a31:	66 c7 85 90 ed ff ff 	movw   $0x21f8,-0x1270(%rbp)
   15a38:	f8 21 
   15a3a:	66 c7 85 92 ed ff ff 	movw   $0x21f8,-0x126e(%rbp)
   15a41:	f8 21 
   15a43:	66 c7 85 94 ed ff ff 	movw   $0x4,-0x126c(%rbp)
   15a4a:	04 00 
   15a4c:	66 c7 85 96 ed ff ff 	movw   $0x21f8,-0x126a(%rbp)
   15a53:	f8 21 
   15a55:	66 c7 85 98 ed ff ff 	movw   $0x21f8,-0x1268(%rbp)
   15a5c:	f8 21 
   15a5e:	66 c7 85 9a ed ff ff 	movw   $0x4,-0x1266(%rbp)
   15a65:	04 00 
   15a67:	66 c7 85 9c ed ff ff 	movw   $0x21f8,-0x1264(%rbp)
   15a6e:	f8 21 
   15a70:	66 c7 85 9e ed ff ff 	movw   $0x21f8,-0x1262(%rbp)
   15a77:	f8 21 
   15a79:	66 c7 85 a0 ed ff ff 	movw   $0xfff6,-0x1260(%rbp)
   15a80:	f6 ff 
   15a82:	66 c7 85 a2 ed ff ff 	movw   $0x21f8,-0x125e(%rbp)
   15a89:	f8 21 
   15a8b:	66 c7 85 a4 ed ff ff 	movw   $0xfff6,-0x125c(%rbp)
   15a92:	f6 ff 
   15a94:	66 c7 85 a6 ed ff ff 	movw   $0xfff6,-0x125a(%rbp)
   15a9b:	f6 ff 
   15a9d:	66 c7 85 a8 ed ff ff 	movw   $0x21f8,-0x1258(%rbp)
   15aa4:	f8 21 
   15aa6:	66 c7 85 aa ed ff ff 	movw   $0xfff6,-0x1256(%rbp)
   15aad:	f6 ff 
   15aaf:	66 c7 85 ac ed ff ff 	movw   $0xfff6,-0x1254(%rbp)
   15ab6:	f6 ff 
   15ab8:	66 c7 85 ae ed ff ff 	movw   $0x21f8,-0x1252(%rbp)
   15abf:	f8 21 
   15ac1:	66 c7 85 b0 ed ff ff 	movw   $0x21f8,-0x1250(%rbp)
   15ac8:	f8 21 
   15aca:	66 c7 85 b2 ed ff ff 	movw   $0xfff6,-0x124e(%rbp)
   15ad1:	f6 ff 
   15ad3:	66 c7 85 b4 ed ff ff 	movw   $0xfff6,-0x124c(%rbp)
   15ada:	f6 ff 
   15adc:	66 c7 85 b6 ed ff ff 	movw   $0x21f8,-0x124a(%rbp)
   15ae3:	f8 21 
   15ae5:	66 c7 85 b8 ed ff ff 	movw   $0xfff6,-0x1248(%rbp)
   15aec:	f6 ff 
   15aee:	66 c7 85 ba ed ff ff 	movw   $0xfff6,-0x1246(%rbp)
   15af5:	f6 ff 
   15af7:	66 c7 85 bc ed ff ff 	movw   $0x21f8,-0x1244(%rbp)
   15afe:	f8 21 
   15b00:	66 c7 85 be ed ff ff 	movw   $0xfff6,-0x1242(%rbp)
   15b07:	f6 ff 
   15b09:	66 c7 85 c0 ed ff ff 	movw   $0x21f8,-0x1240(%rbp)
   15b10:	f8 21 
   15b12:	66 c7 85 c2 ed ff ff 	movw   $0x21f8,-0x123e(%rbp)
   15b19:	f8 21 
   15b1b:	66 c7 85 c4 ed ff ff 	movw   $0x4,-0x123c(%rbp)
   15b22:	04 00 
   15b24:	66 c7 85 c6 ed ff ff 	movw   $0x21f8,-0x123a(%rbp)
   15b2b:	f8 21 
   15b2d:	66 c7 85 c8 ed ff ff 	movw   $0x21f8,-0x1238(%rbp)
   15b34:	f8 21 
   15b36:	66 c7 85 ca ed ff ff 	movw   $0x4,-0x1236(%rbp)
   15b3d:	04 00 
   15b3f:	66 c7 85 cc ed ff ff 	movw   $0x21f8,-0x1234(%rbp)
   15b46:	f8 21 
   15b48:	66 c7 85 ce ed ff ff 	movw   $0x21f8,-0x1232(%rbp)
   15b4f:	f8 21 
   15b51:	66 c7 85 d0 ed ff ff 	movw   $0xfff6,-0x1230(%rbp)
   15b58:	f6 ff 
   15b5a:	66 c7 85 d2 ed ff ff 	movw   $0x21f8,-0x122e(%rbp)
   15b61:	f8 21 
   15b63:	66 c7 85 d4 ed ff ff 	movw   $0xfff6,-0x122c(%rbp)
   15b6a:	f6 ff 
   15b6c:	66 c7 85 d6 ed ff ff 	movw   $0xfff6,-0x122a(%rbp)
   15b73:	f6 ff 
   15b75:	66 c7 85 d8 ed ff ff 	movw   $0x21f8,-0x1228(%rbp)
   15b7c:	f8 21 
   15b7e:	66 c7 85 da ed ff ff 	movw   $0xfff6,-0x1226(%rbp)
   15b85:	f6 ff 
   15b87:	66 c7 85 dc ed ff ff 	movw   $0xfff6,-0x1224(%rbp)
   15b8e:	f6 ff 
   15b90:	66 c7 85 de ed ff ff 	movw   $0x21f8,-0x1222(%rbp)
   15b97:	f8 21 
   15b99:	48 8d 85 00 e9 ff ff 	lea    -0x1700(%rbp),%rax
   15ba0:	48 89 85 c8 e8 ff ff 	mov    %rax,-0x1738(%rbp)
   15ba7:	0f b7 85 ba ed ff ff 	movzwl -0x1246(%rbp),%eax
   15bae:	83 c0 01             	add    $0x1,%eax
   15bb1:	66 89 85 ba ed ff ff 	mov    %ax,-0x1246(%rbp)
   15bb8:	48 8d 05 79 05 01 00 	lea    0x10579(%rip),%rax        # 26138 <g_979>
   15bbf:	48 89 85 00 ec ff ff 	mov    %rax,-0x1400(%rbp)
   15bc6:	e9 13 15 00 00       	jmpq   170de <func_54+0x2cee>
   15bcb:	66 c7 85 d8 e9 ff ff 	movw   $0xee0b,-0x1628(%rbp)
   15bd2:	0b ee 
   15bd4:	c7 85 64 e9 ff ff 05 	movl   $0x5,-0x169c(%rbp)
   15bdb:	00 00 00 
   15bde:	c7 85 68 e9 ff ff 03 	movl   $0x3,-0x1698(%rbp)
   15be5:	00 00 00 
   15be8:	c7 85 6c e9 ff ff 5a 	movl   $0x127a55a,-0x1694(%rbp)
   15bef:	a5 27 01 
   15bf2:	c7 85 70 e9 ff ff ed 	movl   $0xde31aded,-0x1690(%rbp)
   15bf9:	ad 31 de 
   15bfc:	c7 85 74 e9 ff ff fb 	movl   $0xfffffffb,-0x168c(%rbp)
   15c03:	ff ff ff 
   15c06:	c7 85 78 e9 ff ff 19 	movl   $0xbc5b3119,-0x1688(%rbp)
   15c0d:	31 5b bc 
   15c10:	c7 85 34 e9 ff ff ff 	movl   $0xffffffff,-0x16cc(%rbp)
   15c17:	ff ff ff 
   15c1a:	c7 85 7c e9 ff ff e4 	movl   $0xb6348ae4,-0x1684(%rbp)
   15c21:	8a 34 b6 
   15c24:	66 c7 85 e0 e8 ff ff 	movw   $0xfffb,-0x1720(%rbp)
   15c2b:	fb ff 
   15c2d:	83 bd 60 e9 ff ff 00 	cmpl   $0x0,-0x16a0(%rbp)
   15c34:	0f 84 2f 0e 00 00    	je     16a69 <func_54+0x2679>
   15c3a:	48 8d 85 f4 e8 ff ff 	lea    -0x170c(%rbp),%rax
   15c41:	48 89 85 a0 ea ff ff 	mov    %rax,-0x1560(%rbp)
   15c48:	48 8d 85 e4 e8 ff ff 	lea    -0x171c(%rbp),%rax
   15c4f:	48 89 85 a8 ea ff ff 	mov    %rax,-0x1558(%rbp)
   15c56:	48 c7 85 b0 ea ff ff 	movq   $0x0,-0x1550(%rbp)
   15c5d:	00 00 00 00 
   15c61:	c7 85 84 e9 ff ff ff 	movl   $0xffffffff,-0x167c(%rbp)
   15c68:	ff ff ff 
   15c6b:	48 8d 85 f0 e8 ff ff 	lea    -0x1710(%rbp),%rax
   15c72:	48 89 85 b8 ea ff ff 	mov    %rax,-0x1548(%rbp)
   15c79:	48 c7 85 c0 ea ff ff 	movq   $0x0,-0x1540(%rbp)
   15c80:	00 00 00 00 
   15c84:	48 8d 05 dd d7 00 00 	lea    0xd7dd(%rip),%rax        # 23468 <g_714>
   15c8b:	48 89 85 c8 ea ff ff 	mov    %rax,-0x1538(%rbp)
   15c92:	48 8d 05 a7 04 01 00 	lea    0x104a7(%rip),%rax        # 26140 <g_1022>
   15c99:	48 89 85 d0 ea ff ff 	mov    %rax,-0x1530(%rbp)
   15ca0:	48 8d 05 b5 d3 00 00 	lea    0xd3b5(%rip),%rax        # 2305c <g_252>
   15ca7:	48 89 85 f0 f7 ff ff 	mov    %rax,-0x810(%rbp)
   15cae:	48 c7 85 f8 f7 ff ff 	movq   $0x0,-0x808(%rbp)
   15cb5:	00 00 00 00 
   15cb9:	48 8d 85 dc e8 ff ff 	lea    -0x1724(%rbp),%rax
   15cc0:	48 89 85 00 f8 ff ff 	mov    %rax,-0x800(%rbp)
   15cc7:	48 8d 85 dc e8 ff ff 	lea    -0x1724(%rbp),%rax
   15cce:	48 89 85 08 f8 ff ff 	mov    %rax,-0x7f8(%rbp)
   15cd5:	48 c7 85 10 f8 ff ff 	movq   $0x0,-0x7f0(%rbp)
   15cdc:	00 00 00 00 
   15ce0:	48 8d 85 d8 e9 ff ff 	lea    -0x1628(%rbp),%rax
   15ce7:	48 89 85 18 f8 ff ff 	mov    %rax,-0x7e8(%rbp)
   15cee:	48 c7 85 20 f8 ff ff 	movq   $0x0,-0x7e0(%rbp)
   15cf5:	00 00 00 00 
   15cf9:	48 c7 85 28 f8 ff ff 	movq   $0x0,-0x7d8(%rbp)
   15d00:	00 00 00 00 
   15d04:	48 8d 05 51 d3 00 00 	lea    0xd351(%rip),%rax        # 2305c <g_252>
   15d0b:	48 89 85 30 f8 ff ff 	mov    %rax,-0x7d0(%rbp)
   15d12:	48 8d 05 43 d3 00 00 	lea    0xd343(%rip),%rax        # 2305c <g_252>
   15d19:	48 89 85 38 f8 ff ff 	mov    %rax,-0x7c8(%rbp)
   15d20:	48 8d 85 dc e8 ff ff 	lea    -0x1724(%rbp),%rax
   15d27:	48 89 85 40 f8 ff ff 	mov    %rax,-0x7c0(%rbp)
   15d2e:	48 c7 85 48 f8 ff ff 	movq   $0x0,-0x7b8(%rbp)
   15d35:	00 00 00 00 
   15d39:	48 8d 85 dc e8 ff ff 	lea    -0x1724(%rbp),%rax
   15d40:	48 89 85 50 f8 ff ff 	mov    %rax,-0x7b0(%rbp)
   15d47:	48 8d 85 dc e8 ff ff 	lea    -0x1724(%rbp),%rax
   15d4e:	48 89 85 58 f8 ff ff 	mov    %rax,-0x7a8(%rbp)
   15d55:	48 8d 85 dc e8 ff ff 	lea    -0x1724(%rbp),%rax
   15d5c:	48 89 85 60 f8 ff ff 	mov    %rax,-0x7a0(%rbp)
   15d63:	48 8d 85 dc e8 ff ff 	lea    -0x1724(%rbp),%rax
   15d6a:	48 89 85 68 f8 ff ff 	mov    %rax,-0x798(%rbp)
   15d71:	48 8d 85 dc e8 ff ff 	lea    -0x1724(%rbp),%rax
   15d78:	48 89 85 70 f8 ff ff 	mov    %rax,-0x790(%rbp)
   15d7f:	48 8d 05 d6 d2 00 00 	lea    0xd2d6(%rip),%rax        # 2305c <g_252>
   15d86:	48 89 85 78 f8 ff ff 	mov    %rax,-0x788(%rbp)
   15d8d:	48 8d 85 dc e8 ff ff 	lea    -0x1724(%rbp),%rax
   15d94:	48 89 85 80 f8 ff ff 	mov    %rax,-0x780(%rbp)
   15d9b:	48 8d 85 dc e8 ff ff 	lea    -0x1724(%rbp),%rax
   15da2:	48 89 85 88 f8 ff ff 	mov    %rax,-0x778(%rbp)
   15da9:	48 8d 85 dc e8 ff ff 	lea    -0x1724(%rbp),%rax
   15db0:	48 89 85 90 f8 ff ff 	mov    %rax,-0x770(%rbp)
   15db7:	48 8d 05 9e d2 00 00 	lea    0xd29e(%rip),%rax        # 2305c <g_252>
   15dbe:	48 89 85 98 f8 ff ff 	mov    %rax,-0x768(%rbp)
   15dc5:	48 c7 85 a0 f8 ff ff 	movq   $0x0,-0x760(%rbp)
   15dcc:	00 00 00 00 
   15dd0:	48 c7 85 a8 f8 ff ff 	movq   $0x0,-0x758(%rbp)
   15dd7:	00 00 00 00 
   15ddb:	48 c7 85 b0 f8 ff ff 	movq   $0x0,-0x750(%rbp)
   15de2:	00 00 00 00 
   15de6:	48 8d 85 d8 e9 ff ff 	lea    -0x1628(%rbp),%rax
   15ded:	48 89 85 b8 f8 ff ff 	mov    %rax,-0x748(%rbp)
   15df4:	48 8d 85 d8 e9 ff ff 	lea    -0x1628(%rbp),%rax
   15dfb:	48 89 85 c0 f8 ff ff 	mov    %rax,-0x740(%rbp)
   15e02:	48 8d 05 53 d2 00 00 	lea    0xd253(%rip),%rax        # 2305c <g_252>
   15e09:	48 89 85 c8 f8 ff ff 	mov    %rax,-0x738(%rbp)
   15e10:	48 8d 85 dc e8 ff ff 	lea    -0x1724(%rbp),%rax
   15e17:	48 89 85 d0 f8 ff ff 	mov    %rax,-0x730(%rbp)
   15e1e:	48 c7 85 d8 f8 ff ff 	movq   $0x0,-0x728(%rbp)
   15e25:	00 00 00 00 
   15e29:	48 8d 05 2c d2 00 00 	lea    0xd22c(%rip),%rax        # 2305c <g_252>
   15e30:	48 89 85 e0 f8 ff ff 	mov    %rax,-0x720(%rbp)
   15e37:	48 8d 85 dc e8 ff ff 	lea    -0x1724(%rbp),%rax
   15e3e:	48 89 85 e8 f8 ff ff 	mov    %rax,-0x718(%rbp)
   15e45:	48 8d 85 dc e8 ff ff 	lea    -0x1724(%rbp),%rax
   15e4c:	48 89 85 f0 f8 ff ff 	mov    %rax,-0x710(%rbp)
   15e53:	48 8d 05 02 d2 00 00 	lea    0xd202(%rip),%rax        # 2305c <g_252>
   15e5a:	48 89 85 f8 f8 ff ff 	mov    %rax,-0x708(%rbp)
   15e61:	48 c7 85 00 f9 ff ff 	movq   $0x0,-0x700(%rbp)
   15e68:	00 00 00 00 
   15e6c:	48 8d 85 dc e8 ff ff 	lea    -0x1724(%rbp),%rax
   15e73:	48 89 85 08 f9 ff ff 	mov    %rax,-0x6f8(%rbp)
   15e7a:	48 8d 85 dc e8 ff ff 	lea    -0x1724(%rbp),%rax
   15e81:	48 89 85 10 f9 ff ff 	mov    %rax,-0x6f0(%rbp)
   15e88:	48 c7 85 18 f9 ff ff 	movq   $0x0,-0x6e8(%rbp)
   15e8f:	00 00 00 00 
   15e93:	48 c7 85 20 f9 ff ff 	movq   $0x0,-0x6e0(%rbp)
   15e9a:	00 00 00 00 
   15e9e:	48 8d 85 dc e8 ff ff 	lea    -0x1724(%rbp),%rax
   15ea5:	48 89 85 28 f9 ff ff 	mov    %rax,-0x6d8(%rbp)
   15eac:	48 c7 85 30 f9 ff ff 	movq   $0x0,-0x6d0(%rbp)
   15eb3:	00 00 00 00 
   15eb7:	48 8d 85 dc e8 ff ff 	lea    -0x1724(%rbp),%rax
   15ebe:	48 89 85 38 f9 ff ff 	mov    %rax,-0x6c8(%rbp)
   15ec5:	48 8d 85 dc e8 ff ff 	lea    -0x1724(%rbp),%rax
   15ecc:	48 89 85 40 f9 ff ff 	mov    %rax,-0x6c0(%rbp)
   15ed3:	48 8d 85 dc e8 ff ff 	lea    -0x1724(%rbp),%rax
   15eda:	48 89 85 48 f9 ff ff 	mov    %rax,-0x6b8(%rbp)
   15ee1:	48 8d 85 dc e8 ff ff 	lea    -0x1724(%rbp),%rax
   15ee8:	48 89 85 50 f9 ff ff 	mov    %rax,-0x6b0(%rbp)
   15eef:	48 c7 85 58 f9 ff ff 	movq   $0x0,-0x6a8(%rbp)
   15ef6:	00 00 00 00 
   15efa:	48 8d 85 d8 e9 ff ff 	lea    -0x1628(%rbp),%rax
   15f01:	48 89 85 60 f9 ff ff 	mov    %rax,-0x6a0(%rbp)
   15f08:	48 c7 85 68 f9 ff ff 	movq   $0x0,-0x698(%rbp)
   15f0f:	00 00 00 00 
   15f13:	48 c7 85 70 f9 ff ff 	movq   $0x0,-0x690(%rbp)
   15f1a:	00 00 00 00 
   15f1e:	48 8d 05 37 d1 00 00 	lea    0xd137(%rip),%rax        # 2305c <g_252>
   15f25:	48 89 85 78 f9 ff ff 	mov    %rax,-0x688(%rbp)
   15f2c:	48 c7 85 80 f9 ff ff 	movq   $0x0,-0x680(%rbp)
   15f33:	00 00 00 00 
   15f37:	48 8d 05 1e d1 00 00 	lea    0xd11e(%rip),%rax        # 2305c <g_252>
   15f3e:	48 89 85 88 f9 ff ff 	mov    %rax,-0x678(%rbp)
   15f45:	48 8d 85 dc e8 ff ff 	lea    -0x1724(%rbp),%rax
   15f4c:	48 89 85 90 f9 ff ff 	mov    %rax,-0x670(%rbp)
   15f53:	48 8d 05 02 d1 00 00 	lea    0xd102(%rip),%rax        # 2305c <g_252>
   15f5a:	48 89 85 98 f9 ff ff 	mov    %rax,-0x668(%rbp)
   15f61:	48 c7 85 a0 f9 ff ff 	movq   $0x0,-0x660(%rbp)
   15f68:	00 00 00 00 
   15f6c:	48 c7 85 a8 f9 ff ff 	movq   $0x0,-0x658(%rbp)
   15f73:	00 00 00 00 
   15f77:	48 8d 85 dc e8 ff ff 	lea    -0x1724(%rbp),%rax
   15f7e:	48 89 85 b0 f9 ff ff 	mov    %rax,-0x650(%rbp)
   15f85:	48 c7 85 b8 f9 ff ff 	movq   $0x0,-0x648(%rbp)
   15f8c:	00 00 00 00 
   15f90:	48 c7 85 c0 f9 ff ff 	movq   $0x0,-0x640(%rbp)
   15f97:	00 00 00 00 
   15f9b:	48 c7 85 c8 f9 ff ff 	movq   $0x0,-0x638(%rbp)
   15fa2:	00 00 00 00 
   15fa6:	48 c7 85 d0 f9 ff ff 	movq   $0x0,-0x630(%rbp)
   15fad:	00 00 00 00 
   15fb1:	48 c7 85 d8 f9 ff ff 	movq   $0x0,-0x628(%rbp)
   15fb8:	00 00 00 00 
   15fbc:	48 c7 85 e0 f9 ff ff 	movq   $0x0,-0x620(%rbp)
   15fc3:	00 00 00 00 
   15fc7:	48 8d 85 dc e8 ff ff 	lea    -0x1724(%rbp),%rax
   15fce:	48 89 85 e8 f9 ff ff 	mov    %rax,-0x618(%rbp)
   15fd5:	48 8d 05 80 d0 00 00 	lea    0xd080(%rip),%rax        # 2305c <g_252>
   15fdc:	48 89 85 f0 f9 ff ff 	mov    %rax,-0x610(%rbp)
   15fe3:	48 c7 85 f8 f9 ff ff 	movq   $0x0,-0x608(%rbp)
   15fea:	00 00 00 00 
   15fee:	48 8d 85 dc e8 ff ff 	lea    -0x1724(%rbp),%rax
   15ff5:	48 89 85 00 fa ff ff 	mov    %rax,-0x600(%rbp)
   15ffc:	48 8d 85 dc e8 ff ff 	lea    -0x1724(%rbp),%rax
   16003:	48 89 85 08 fa ff ff 	mov    %rax,-0x5f8(%rbp)
   1600a:	48 c7 85 10 fa ff ff 	movq   $0x0,-0x5f0(%rbp)
   16011:	00 00 00 00 
   16015:	48 c7 85 18 fa ff ff 	movq   $0x0,-0x5e8(%rbp)
   1601c:	00 00 00 00 
   16020:	48 8d 85 dc e8 ff ff 	lea    -0x1724(%rbp),%rax
   16027:	48 89 85 20 fa ff ff 	mov    %rax,-0x5e0(%rbp)
   1602e:	48 8d 85 dc e8 ff ff 	lea    -0x1724(%rbp),%rax
   16035:	48 89 85 28 fa ff ff 	mov    %rax,-0x5d8(%rbp)
   1603c:	48 8d 85 dc e8 ff ff 	lea    -0x1724(%rbp),%rax
   16043:	48 89 85 30 fa ff ff 	mov    %rax,-0x5d0(%rbp)
   1604a:	48 8d 85 dc e8 ff ff 	lea    -0x1724(%rbp),%rax
   16051:	48 89 85 38 fa ff ff 	mov    %rax,-0x5c8(%rbp)
   16058:	48 8d 85 dc e8 ff ff 	lea    -0x1724(%rbp),%rax
   1605f:	48 89 85 40 fa ff ff 	mov    %rax,-0x5c0(%rbp)
   16066:	48 c7 85 48 fa ff ff 	movq   $0x0,-0x5b8(%rbp)
   1606d:	00 00 00 00 
   16071:	48 8d 85 dc e8 ff ff 	lea    -0x1724(%rbp),%rax
   16078:	48 89 85 50 fa ff ff 	mov    %rax,-0x5b0(%rbp)
   1607f:	48 8d 05 d6 cf 00 00 	lea    0xcfd6(%rip),%rax        # 2305c <g_252>
   16086:	48 89 85 58 fa ff ff 	mov    %rax,-0x5a8(%rbp)
   1608d:	48 8d 85 d8 e9 ff ff 	lea    -0x1628(%rbp),%rax
   16094:	48 89 85 60 fa ff ff 	mov    %rax,-0x5a0(%rbp)
   1609b:	48 8d 85 d8 e9 ff ff 	lea    -0x1628(%rbp),%rax
   160a2:	48 89 85 68 fa ff ff 	mov    %rax,-0x598(%rbp)
   160a9:	48 c7 85 70 fa ff ff 	movq   $0x0,-0x590(%rbp)
   160b0:	00 00 00 00 
   160b4:	48 c7 85 78 fa ff ff 	movq   $0x0,-0x588(%rbp)
   160bb:	00 00 00 00 
   160bf:	48 c7 85 80 fa ff ff 	movq   $0x0,-0x580(%rbp)
   160c6:	00 00 00 00 
   160ca:	48 8d 85 dc e8 ff ff 	lea    -0x1724(%rbp),%rax
   160d1:	48 89 85 88 fa ff ff 	mov    %rax,-0x578(%rbp)
   160d8:	48 c7 85 90 fa ff ff 	movq   $0x0,-0x570(%rbp)
   160df:	00 00 00 00 
   160e3:	48 c7 85 98 fa ff ff 	movq   $0x0,-0x568(%rbp)
   160ea:	00 00 00 00 
   160ee:	48 c7 85 a0 fa ff ff 	movq   $0x0,-0x560(%rbp)
   160f5:	00 00 00 00 
   160f9:	48 8d 85 d8 e9 ff ff 	lea    -0x1628(%rbp),%rax
   16100:	48 89 85 a8 fa ff ff 	mov    %rax,-0x558(%rbp)
   16107:	48 c7 85 b0 fa ff ff 	movq   $0x0,-0x550(%rbp)
   1610e:	00 00 00 00 
   16112:	48 c7 85 b8 fa ff ff 	movq   $0x0,-0x548(%rbp)
   16119:	00 00 00 00 
   1611d:	48 c7 85 c0 fa ff ff 	movq   $0x0,-0x540(%rbp)
   16124:	00 00 00 00 
   16128:	48 8d 85 dc e8 ff ff 	lea    -0x1724(%rbp),%rax
   1612f:	48 89 85 c8 fa ff ff 	mov    %rax,-0x538(%rbp)
   16136:	48 c7 85 d0 fa ff ff 	movq   $0x0,-0x530(%rbp)
   1613d:	00 00 00 00 
   16141:	48 8d 85 dc e8 ff ff 	lea    -0x1724(%rbp),%rax
   16148:	48 89 85 d8 fa ff ff 	mov    %rax,-0x528(%rbp)
   1614f:	48 c7 85 e0 fa ff ff 	movq   $0x0,-0x520(%rbp)
   16156:	00 00 00 00 
   1615a:	48 c7 85 e8 fa ff ff 	movq   $0x0,-0x518(%rbp)
   16161:	00 00 00 00 
   16165:	48 c7 85 f0 fa ff ff 	movq   $0x0,-0x510(%rbp)
   1616c:	00 00 00 00 
   16170:	48 8d 85 d8 e9 ff ff 	lea    -0x1628(%rbp),%rax
   16177:	48 89 85 f8 fa ff ff 	mov    %rax,-0x508(%rbp)
   1617e:	48 c7 85 00 fb ff ff 	movq   $0x0,-0x500(%rbp)
   16185:	00 00 00 00 
   16189:	48 8d 85 dc e8 ff ff 	lea    -0x1724(%rbp),%rax
   16190:	48 89 85 08 fb ff ff 	mov    %rax,-0x4f8(%rbp)
   16197:	48 8d 85 dc e8 ff ff 	lea    -0x1724(%rbp),%rax
   1619e:	48 89 85 10 fb ff ff 	mov    %rax,-0x4f0(%rbp)
   161a5:	48 c7 85 18 fb ff ff 	movq   $0x0,-0x4e8(%rbp)
   161ac:	00 00 00 00 
   161b0:	48 c7 85 20 fb ff ff 	movq   $0x0,-0x4e0(%rbp)
   161b7:	00 00 00 00 
   161bb:	48 8d 85 dc e8 ff ff 	lea    -0x1724(%rbp),%rax
   161c2:	48 89 85 28 fb ff ff 	mov    %rax,-0x4d8(%rbp)
   161c9:	48 c7 85 30 fb ff ff 	movq   $0x0,-0x4d0(%rbp)
   161d0:	00 00 00 00 
   161d4:	48 c7 85 38 fb ff ff 	movq   $0x0,-0x4c8(%rbp)
   161db:	00 00 00 00 
   161df:	48 c7 85 40 fb ff ff 	movq   $0x0,-0x4c0(%rbp)
   161e6:	00 00 00 00 
   161ea:	48 8d 05 6b ce 00 00 	lea    0xce6b(%rip),%rax        # 2305c <g_252>
   161f1:	48 89 85 48 fb ff ff 	mov    %rax,-0x4b8(%rbp)
   161f8:	48 8d 05 5d ce 00 00 	lea    0xce5d(%rip),%rax        # 2305c <g_252>
   161ff:	48 89 85 50 fb ff ff 	mov    %rax,-0x4b0(%rbp)
   16206:	48 c7 85 58 fb ff ff 	movq   $0x0,-0x4a8(%rbp)
   1620d:	00 00 00 00 
   16211:	48 c7 85 60 fb ff ff 	movq   $0x0,-0x4a0(%rbp)
   16218:	00 00 00 00 
   1621c:	48 c7 85 68 fb ff ff 	movq   $0x0,-0x498(%rbp)
   16223:	00 00 00 00 
   16227:	48 8d 85 dc e8 ff ff 	lea    -0x1724(%rbp),%rax
   1622e:	48 89 85 70 fb ff ff 	mov    %rax,-0x490(%rbp)
   16235:	48 c7 85 78 fb ff ff 	movq   $0x0,-0x488(%rbp)
   1623c:	00 00 00 00 
   16240:	48 c7 85 80 fb ff ff 	movq   $0x0,-0x480(%rbp)
   16247:	00 00 00 00 
   1624b:	48 8d 85 dc e8 ff ff 	lea    -0x1724(%rbp),%rax
   16252:	48 89 85 88 fb ff ff 	mov    %rax,-0x478(%rbp)
   16259:	48 c7 85 90 fb ff ff 	movq   $0x0,-0x470(%rbp)
   16260:	00 00 00 00 
   16264:	48 8d 85 dc e8 ff ff 	lea    -0x1724(%rbp),%rax
   1626b:	48 89 85 98 fb ff ff 	mov    %rax,-0x468(%rbp)
   16272:	48 8d 05 e3 cd 00 00 	lea    0xcde3(%rip),%rax        # 2305c <g_252>
   16279:	48 89 85 a0 fb ff ff 	mov    %rax,-0x460(%rbp)
   16280:	48 8d 85 d8 e9 ff ff 	lea    -0x1628(%rbp),%rax
   16287:	48 89 85 a8 fb ff ff 	mov    %rax,-0x458(%rbp)
   1628e:	48 8d 85 dc e8 ff ff 	lea    -0x1724(%rbp),%rax
   16295:	48 89 85 b0 fb ff ff 	mov    %rax,-0x450(%rbp)
   1629c:	48 8d 85 dc e8 ff ff 	lea    -0x1724(%rbp),%rax
   162a3:	48 89 85 b8 fb ff ff 	mov    %rax,-0x448(%rbp)
   162aa:	48 c7 85 c0 fb ff ff 	movq   $0x0,-0x440(%rbp)
   162b1:	00 00 00 00 
   162b5:	48 8d 85 dc e8 ff ff 	lea    -0x1724(%rbp),%rax
   162bc:	48 89 85 c8 fb ff ff 	mov    %rax,-0x438(%rbp)
   162c3:	48 8d 85 dc e8 ff ff 	lea    -0x1724(%rbp),%rax
   162ca:	48 89 85 d0 fb ff ff 	mov    %rax,-0x430(%rbp)
   162d1:	48 8d 85 dc e8 ff ff 	lea    -0x1724(%rbp),%rax
   162d8:	48 89 85 d8 fb ff ff 	mov    %rax,-0x428(%rbp)
   162df:	48 c7 85 e0 fb ff ff 	movq   $0x0,-0x420(%rbp)
   162e6:	00 00 00 00 
   162ea:	48 c7 85 e8 fb ff ff 	movq   $0x0,-0x418(%rbp)
   162f1:	00 00 00 00 
   162f5:	48 c7 85 f0 fb ff ff 	movq   $0x0,-0x410(%rbp)
   162fc:	00 00 00 00 
   16300:	48 c7 85 f8 fb ff ff 	movq   $0x0,-0x408(%rbp)
   16307:	00 00 00 00 
   1630b:	48 c7 85 00 fc ff ff 	movq   $0x0,-0x400(%rbp)
   16312:	00 00 00 00 
   16316:	48 c7 85 08 fc ff ff 	movq   $0x0,-0x3f8(%rbp)
   1631d:	00 00 00 00 
   16321:	48 c7 85 10 fc ff ff 	movq   $0x0,-0x3f0(%rbp)
   16328:	00 00 00 00 
   1632c:	48 8d 85 dc e8 ff ff 	lea    -0x1724(%rbp),%rax
   16333:	48 89 85 18 fc ff ff 	mov    %rax,-0x3e8(%rbp)
   1633a:	48 8d 05 1b cd 00 00 	lea    0xcd1b(%rip),%rax        # 2305c <g_252>
   16341:	48 89 85 20 fc ff ff 	mov    %rax,-0x3e0(%rbp)
   16348:	48 c7 85 28 fc ff ff 	movq   $0x0,-0x3d8(%rbp)
   1634f:	00 00 00 00 
   16353:	48 8d 85 dc e8 ff ff 	lea    -0x1724(%rbp),%rax
   1635a:	48 89 85 30 fc ff ff 	mov    %rax,-0x3d0(%rbp)
   16361:	48 8d 85 dc e8 ff ff 	lea    -0x1724(%rbp),%rax
   16368:	48 89 85 38 fc ff ff 	mov    %rax,-0x3c8(%rbp)
   1636f:	48 c7 85 40 fc ff ff 	movq   $0x0,-0x3c0(%rbp)
   16376:	00 00 00 00 
   1637a:	48 c7 85 48 fc ff ff 	movq   $0x0,-0x3b8(%rbp)
   16381:	00 00 00 00 
   16385:	48 8d 85 dc e8 ff ff 	lea    -0x1724(%rbp),%rax
   1638c:	48 89 85 50 fc ff ff 	mov    %rax,-0x3b0(%rbp)
   16393:	48 8d 85 dc e8 ff ff 	lea    -0x1724(%rbp),%rax
   1639a:	48 89 85 58 fc ff ff 	mov    %rax,-0x3a8(%rbp)
   163a1:	48 8d 85 dc e8 ff ff 	lea    -0x1724(%rbp),%rax
   163a8:	48 89 85 60 fc ff ff 	mov    %rax,-0x3a0(%rbp)
   163af:	48 8d 85 dc e8 ff ff 	lea    -0x1724(%rbp),%rax
   163b6:	48 89 85 68 fc ff ff 	mov    %rax,-0x398(%rbp)
   163bd:	48 8d 85 dc e8 ff ff 	lea    -0x1724(%rbp),%rax
   163c4:	48 89 85 70 fc ff ff 	mov    %rax,-0x390(%rbp)
   163cb:	48 c7 85 78 fc ff ff 	movq   $0x0,-0x388(%rbp)
   163d2:	00 00 00 00 
   163d6:	48 8d 85 dc e8 ff ff 	lea    -0x1724(%rbp),%rax
   163dd:	48 89 85 80 fc ff ff 	mov    %rax,-0x380(%rbp)
   163e4:	48 8d 05 71 cc 00 00 	lea    0xcc71(%rip),%rax        # 2305c <g_252>
   163eb:	48 89 85 88 fc ff ff 	mov    %rax,-0x378(%rbp)
   163f2:	48 8d 85 d8 e9 ff ff 	lea    -0x1628(%rbp),%rax
   163f9:	48 89 85 90 fc ff ff 	mov    %rax,-0x370(%rbp)
   16400:	48 8d 85 d8 e9 ff ff 	lea    -0x1628(%rbp),%rax
   16407:	48 89 85 98 fc ff ff 	mov    %rax,-0x368(%rbp)
   1640e:	48 c7 85 a0 fc ff ff 	movq   $0x0,-0x360(%rbp)
   16415:	00 00 00 00 
   16419:	48 c7 85 a8 fc ff ff 	movq   $0x0,-0x358(%rbp)
   16420:	00 00 00 00 
   16424:	48 c7 85 b0 fc ff ff 	movq   $0x0,-0x350(%rbp)
   1642b:	00 00 00 00 
   1642f:	48 8d 85 dc e8 ff ff 	lea    -0x1724(%rbp),%rax
   16436:	48 89 85 b8 fc ff ff 	mov    %rax,-0x348(%rbp)
   1643d:	48 c7 85 c0 fc ff ff 	movq   $0x0,-0x340(%rbp)
   16444:	00 00 00 00 
   16448:	48 c7 85 c8 fc ff ff 	movq   $0x0,-0x338(%rbp)
   1644f:	00 00 00 00 
   16453:	48 c7 85 d0 fc ff ff 	movq   $0x0,-0x330(%rbp)
   1645a:	00 00 00 00 
   1645e:	48 8d 85 d8 e9 ff ff 	lea    -0x1628(%rbp),%rax
   16465:	48 89 85 d8 fc ff ff 	mov    %rax,-0x328(%rbp)
   1646c:	48 c7 85 e0 fc ff ff 	movq   $0x0,-0x320(%rbp)
   16473:	00 00 00 00 
   16477:	48 c7 85 e8 fc ff ff 	movq   $0x0,-0x318(%rbp)
   1647e:	00 00 00 00 
   16482:	48 c7 85 f0 fc ff ff 	movq   $0x0,-0x310(%rbp)
   16489:	00 00 00 00 
   1648d:	48 8d 85 dc e8 ff ff 	lea    -0x1724(%rbp),%rax
   16494:	48 89 85 f8 fc ff ff 	mov    %rax,-0x308(%rbp)
   1649b:	48 c7 85 00 fd ff ff 	movq   $0x0,-0x300(%rbp)
   164a2:	00 00 00 00 
   164a6:	48 8d 85 dc e8 ff ff 	lea    -0x1724(%rbp),%rax
   164ad:	48 89 85 08 fd ff ff 	mov    %rax,-0x2f8(%rbp)
   164b4:	48 c7 85 10 fd ff ff 	movq   $0x0,-0x2f0(%rbp)
   164bb:	00 00 00 00 
   164bf:	48 c7 85 18 fd ff ff 	movq   $0x0,-0x2e8(%rbp)
   164c6:	00 00 00 00 
   164ca:	48 c7 85 20 fd ff ff 	movq   $0x0,-0x2e0(%rbp)
   164d1:	00 00 00 00 
   164d5:	48 8d 85 d8 e9 ff ff 	lea    -0x1628(%rbp),%rax
   164dc:	48 89 85 28 fd ff ff 	mov    %rax,-0x2d8(%rbp)
   164e3:	48 c7 85 30 fd ff ff 	movq   $0x0,-0x2d0(%rbp)
   164ea:	00 00 00 00 
   164ee:	48 8d 85 dc e8 ff ff 	lea    -0x1724(%rbp),%rax
   164f5:	48 89 85 38 fd ff ff 	mov    %rax,-0x2c8(%rbp)
   164fc:	48 8d 85 dc e8 ff ff 	lea    -0x1724(%rbp),%rax
   16503:	48 89 85 40 fd ff ff 	mov    %rax,-0x2c0(%rbp)
   1650a:	48 c7 85 48 fd ff ff 	movq   $0x0,-0x2b8(%rbp)
   16511:	00 00 00 00 
   16515:	48 c7 85 50 fd ff ff 	movq   $0x0,-0x2b0(%rbp)
   1651c:	00 00 00 00 
   16520:	48 8d 85 dc e8 ff ff 	lea    -0x1724(%rbp),%rax
   16527:	48 89 85 58 fd ff ff 	mov    %rax,-0x2a8(%rbp)
   1652e:	48 c7 85 60 fd ff ff 	movq   $0x0,-0x2a0(%rbp)
   16535:	00 00 00 00 
   16539:	48 c7 85 68 fd ff ff 	movq   $0x0,-0x298(%rbp)
   16540:	00 00 00 00 
   16544:	48 c7 85 70 fd ff ff 	movq   $0x0,-0x290(%rbp)
   1654b:	00 00 00 00 
   1654f:	48 8d 05 06 cb 00 00 	lea    0xcb06(%rip),%rax        # 2305c <g_252>
   16556:	48 89 85 78 fd ff ff 	mov    %rax,-0x288(%rbp)
   1655d:	48 8d 05 f8 ca 00 00 	lea    0xcaf8(%rip),%rax        # 2305c <g_252>
   16564:	48 89 85 80 fd ff ff 	mov    %rax,-0x280(%rbp)
   1656b:	48 c7 85 88 fd ff ff 	movq   $0x0,-0x278(%rbp)
   16572:	00 00 00 00 
   16576:	48 c7 85 90 fd ff ff 	movq   $0x0,-0x270(%rbp)
   1657d:	00 00 00 00 
   16581:	48 c7 85 98 fd ff ff 	movq   $0x0,-0x268(%rbp)
   16588:	00 00 00 00 
   1658c:	48 8d 85 dc e8 ff ff 	lea    -0x1724(%rbp),%rax
   16593:	48 89 85 a0 fd ff ff 	mov    %rax,-0x260(%rbp)
   1659a:	48 c7 85 a8 fd ff ff 	movq   $0x0,-0x258(%rbp)
   165a1:	00 00 00 00 
   165a5:	48 c7 85 b0 fd ff ff 	movq   $0x0,-0x250(%rbp)
   165ac:	00 00 00 00 
   165b0:	48 8d 85 dc e8 ff ff 	lea    -0x1724(%rbp),%rax
   165b7:	48 89 85 b8 fd ff ff 	mov    %rax,-0x248(%rbp)
   165be:	48 c7 85 c0 fd ff ff 	movq   $0x0,-0x240(%rbp)
   165c5:	00 00 00 00 
   165c9:	48 8d 85 dc e8 ff ff 	lea    -0x1724(%rbp),%rax
   165d0:	48 89 85 c8 fd ff ff 	mov    %rax,-0x238(%rbp)
   165d7:	48 8d 05 7e ca 00 00 	lea    0xca7e(%rip),%rax        # 2305c <g_252>
   165de:	48 89 85 d0 fd ff ff 	mov    %rax,-0x230(%rbp)
   165e5:	48 8d 85 d8 e9 ff ff 	lea    -0x1628(%rbp),%rax
   165ec:	48 89 85 d8 fd ff ff 	mov    %rax,-0x228(%rbp)
   165f3:	48 8d 85 dc e8 ff ff 	lea    -0x1724(%rbp),%rax
   165fa:	48 89 85 e0 fd ff ff 	mov    %rax,-0x220(%rbp)
   16601:	48 8d 85 dc e8 ff ff 	lea    -0x1724(%rbp),%rax
   16608:	48 89 85 e8 fd ff ff 	mov    %rax,-0x218(%rbp)
   1660f:	48 c7 85 f0 fd ff ff 	movq   $0x0,-0x210(%rbp)
   16616:	00 00 00 00 
   1661a:	48 8d 85 dc e8 ff ff 	lea    -0x1724(%rbp),%rax
   16621:	48 89 85 f8 fd ff ff 	mov    %rax,-0x208(%rbp)
   16628:	48 8d 85 dc e8 ff ff 	lea    -0x1724(%rbp),%rax
   1662f:	48 89 85 00 fe ff ff 	mov    %rax,-0x200(%rbp)
   16636:	48 8d 85 dc e8 ff ff 	lea    -0x1724(%rbp),%rax
   1663d:	48 89 85 08 fe ff ff 	mov    %rax,-0x1f8(%rbp)
   16644:	48 c7 85 10 fe ff ff 	movq   $0x0,-0x1f0(%rbp)
   1664b:	00 00 00 00 
   1664f:	48 c7 85 18 fe ff ff 	movq   $0x0,-0x1e8(%rbp)
   16656:	00 00 00 00 
   1665a:	48 c7 85 20 fe ff ff 	movq   $0x0,-0x1e0(%rbp)
   16661:	00 00 00 00 
   16665:	48 c7 85 28 fe ff ff 	movq   $0x0,-0x1d8(%rbp)
   1666c:	00 00 00 00 
   16670:	48 c7 85 30 fe ff ff 	movq   $0x0,-0x1d0(%rbp)
   16677:	00 00 00 00 
   1667b:	48 c7 85 38 fe ff ff 	movq   $0x0,-0x1c8(%rbp)
   16682:	00 00 00 00 
   16686:	48 c7 85 40 fe ff ff 	movq   $0x0,-0x1c0(%rbp)
   1668d:	00 00 00 00 
   16691:	48 8d 85 dc e8 ff ff 	lea    -0x1724(%rbp),%rax
   16698:	48 89 85 48 fe ff ff 	mov    %rax,-0x1b8(%rbp)
   1669f:	48 8d 05 b6 c9 00 00 	lea    0xc9b6(%rip),%rax        # 2305c <g_252>
   166a6:	48 89 85 50 fe ff ff 	mov    %rax,-0x1b0(%rbp)
   166ad:	48 c7 85 58 fe ff ff 	movq   $0x0,-0x1a8(%rbp)
   166b4:	00 00 00 00 
   166b8:	48 8d 85 dc e8 ff ff 	lea    -0x1724(%rbp),%rax
   166bf:	48 89 85 60 fe ff ff 	mov    %rax,-0x1a0(%rbp)
   166c6:	48 8d 85 dc e8 ff ff 	lea    -0x1724(%rbp),%rax
   166cd:	48 89 85 68 fe ff ff 	mov    %rax,-0x198(%rbp)
   166d4:	48 c7 85 70 fe ff ff 	movq   $0x0,-0x190(%rbp)
   166db:	00 00 00 00 
   166df:	48 c7 85 78 fe ff ff 	movq   $0x0,-0x188(%rbp)
   166e6:	00 00 00 00 
   166ea:	48 8d 85 dc e8 ff ff 	lea    -0x1724(%rbp),%rax
   166f1:	48 89 85 80 fe ff ff 	mov    %rax,-0x180(%rbp)
   166f8:	48 8d 85 dc e8 ff ff 	lea    -0x1724(%rbp),%rax
   166ff:	48 89 85 88 fe ff ff 	mov    %rax,-0x178(%rbp)
   16706:	48 8d 85 dc e8 ff ff 	lea    -0x1724(%rbp),%rax
   1670d:	48 89 85 90 fe ff ff 	mov    %rax,-0x170(%rbp)
   16714:	48 8d 85 dc e8 ff ff 	lea    -0x1724(%rbp),%rax
   1671b:	48 89 85 98 fe ff ff 	mov    %rax,-0x168(%rbp)
   16722:	48 8d 85 dc e8 ff ff 	lea    -0x1724(%rbp),%rax
   16729:	48 89 85 a0 fe ff ff 	mov    %rax,-0x160(%rbp)
   16730:	48 c7 85 a8 fe ff ff 	movq   $0x0,-0x158(%rbp)
   16737:	00 00 00 00 
   1673b:	48 8d 85 dc e8 ff ff 	lea    -0x1724(%rbp),%rax
   16742:	48 89 85 b0 fe ff ff 	mov    %rax,-0x150(%rbp)
   16749:	48 8d 05 0c c9 00 00 	lea    0xc90c(%rip),%rax        # 2305c <g_252>
   16750:	48 89 85 b8 fe ff ff 	mov    %rax,-0x148(%rbp)
   16757:	48 8d 85 d8 e9 ff ff 	lea    -0x1628(%rbp),%rax
   1675e:	48 89 85 c0 fe ff ff 	mov    %rax,-0x140(%rbp)
   16765:	48 8d 85 d8 e9 ff ff 	lea    -0x1628(%rbp),%rax
   1676c:	48 89 85 c8 fe ff ff 	mov    %rax,-0x138(%rbp)
   16773:	48 c7 85 d0 fe ff ff 	movq   $0x0,-0x130(%rbp)
   1677a:	00 00 00 00 
   1677e:	48 c7 85 d8 fe ff ff 	movq   $0x0,-0x128(%rbp)
   16785:	00 00 00 00 
   16789:	48 c7 85 e0 fe ff ff 	movq   $0x0,-0x120(%rbp)
   16790:	00 00 00 00 
   16794:	48 8d 85 dc e8 ff ff 	lea    -0x1724(%rbp),%rax
   1679b:	48 89 85 e8 fe ff ff 	mov    %rax,-0x118(%rbp)
   167a2:	48 c7 85 f0 fe ff ff 	movq   $0x0,-0x110(%rbp)
   167a9:	00 00 00 00 
   167ad:	48 c7 85 f8 fe ff ff 	movq   $0x0,-0x108(%rbp)
   167b4:	00 00 00 00 
   167b8:	48 c7 85 00 ff ff ff 	movq   $0x0,-0x100(%rbp)
   167bf:	00 00 00 00 
   167c3:	48 8d 85 d8 e9 ff ff 	lea    -0x1628(%rbp),%rax
   167ca:	48 89 85 08 ff ff ff 	mov    %rax,-0xf8(%rbp)
   167d1:	48 c7 85 10 ff ff ff 	movq   $0x0,-0xf0(%rbp)
   167d8:	00 00 00 00 
   167dc:	48 c7 85 18 ff ff ff 	movq   $0x0,-0xe8(%rbp)
   167e3:	00 00 00 00 
   167e7:	48 c7 85 20 ff ff ff 	movq   $0x0,-0xe0(%rbp)
   167ee:	00 00 00 00 
   167f2:	48 8d 85 dc e8 ff ff 	lea    -0x1724(%rbp),%rax
   167f9:	48 89 85 28 ff ff ff 	mov    %rax,-0xd8(%rbp)
   16800:	48 c7 85 30 ff ff ff 	movq   $0x0,-0xd0(%rbp)
   16807:	00 00 00 00 
   1680b:	48 8d 85 dc e8 ff ff 	lea    -0x1724(%rbp),%rax
   16812:	48 89 85 38 ff ff ff 	mov    %rax,-0xc8(%rbp)
   16819:	48 c7 85 40 ff ff ff 	movq   $0x0,-0xc0(%rbp)
   16820:	00 00 00 00 
   16824:	48 c7 85 48 ff ff ff 	movq   $0x0,-0xb8(%rbp)
   1682b:	00 00 00 00 
   1682f:	48 c7 85 50 ff ff ff 	movq   $0x0,-0xb0(%rbp)
   16836:	00 00 00 00 
   1683a:	48 8d 85 d8 e9 ff ff 	lea    -0x1628(%rbp),%rax
   16841:	48 89 85 58 ff ff ff 	mov    %rax,-0xa8(%rbp)
   16848:	48 c7 85 60 ff ff ff 	movq   $0x0,-0xa0(%rbp)
   1684f:	00 00 00 00 
   16853:	48 8d 85 dc e8 ff ff 	lea    -0x1724(%rbp),%rax
   1685a:	48 89 85 68 ff ff ff 	mov    %rax,-0x98(%rbp)
   16861:	48 8d 85 dc e8 ff ff 	lea    -0x1724(%rbp),%rax
   16868:	48 89 85 70 ff ff ff 	mov    %rax,-0x90(%rbp)
   1686f:	48 c7 85 78 ff ff ff 	movq   $0x0,-0x88(%rbp)
   16876:	00 00 00 00 
   1687a:	48 c7 45 80 00 00 00 	movq   $0x0,-0x80(%rbp)
   16881:	00 
   16882:	48 8d 85 dc e8 ff ff 	lea    -0x1724(%rbp),%rax
   16889:	48 89 45 88          	mov    %rax,-0x78(%rbp)
   1688d:	48 c7 45 90 00 00 00 	movq   $0x0,-0x70(%rbp)
   16894:	00 
   16895:	48 c7 45 98 00 00 00 	movq   $0x0,-0x68(%rbp)
   1689c:	00 
   1689d:	48 c7 45 a0 00 00 00 	movq   $0x0,-0x60(%rbp)
   168a4:	00 
   168a5:	48 8d 85 d8 e9 ff ff 	lea    -0x1628(%rbp),%rax
   168ac:	48 89 45 a8          	mov    %rax,-0x58(%rbp)
   168b0:	48 8d 85 d8 e9 ff ff 	lea    -0x1628(%rbp),%rax
   168b7:	48 89 45 b0          	mov    %rax,-0x50(%rbp)
   168bb:	48 8d 05 9a c7 00 00 	lea    0xc79a(%rip),%rax        # 2305c <g_252>
   168c2:	48 89 45 b8          	mov    %rax,-0x48(%rbp)
   168c6:	48 8d 05 5b f9 00 00 	lea    0xf95b(%rip),%rax        # 26228 <g_1027+0xc8>
   168cd:	48 89 85 d8 ea ff ff 	mov    %rax,-0x1528(%rbp)
   168d4:	c7 85 38 e9 ff ff 00 	movl   $0x0,-0x16c8(%rbp)
   168db:	00 00 00 
   168de:	eb 1e                	jmp    168fe <func_54+0x250e>
   168e0:	8b 85 38 e9 ff ff    	mov    -0x16c8(%rbp),%eax
   168e6:	48 98                	cltq   
   168e8:	48 8d 95 f8 e8 ff ff 	lea    -0x1708(%rbp),%rdx
   168ef:	48 89 94 c5 40 ed ff 	mov    %rdx,-0x12c0(%rbp,%rax,8)
   168f6:	ff 
   168f7:	83 85 38 e9 ff ff 01 	addl   $0x1,-0x16c8(%rbp)
   168fe:	83 bd 38 e9 ff ff 08 	cmpl   $0x8,-0x16c8(%rbp)
   16905:	7e d9                	jle    168e0 <func_54+0x24f0>
   16907:	8b 85 fc e8 ff ff    	mov    -0x1704(%rbp),%eax
   1690d:	83 e8 01             	sub    $0x1,%eax
   16910:	89 85 fc e8 ff ff    	mov    %eax,-0x1704(%rbp)
   16916:	48 8b 85 c0 e9 ff ff 	mov    -0x1640(%rbp),%rax
   1691d:	0f b6 d0             	movzbl %al,%edx
   16920:	48 8b 0d 19 f8 00 00 	mov    0xf819(%rip),%rcx        # 26140 <g_1022>
   16927:	48 8b 85 d0 ea ff ff 	mov    -0x1530(%rbp),%rax
   1692e:	48 89 08             	mov    %rcx,(%rax)
   16931:	48 8b 85 d0 ea ff ff 	mov    -0x1530(%rbp),%rax
   16938:	48 8b 00             	mov    (%rax),%rax
   1693b:	48 8d 0d a6 ef 00 00 	lea    0xefa6(%rip),%rcx        # 258e8 <g_195>
   16942:	48 39 c8             	cmp    %rcx,%rax
   16945:	0f 94 c0             	sete   %al
   16948:	0f b6 c0             	movzbl %al,%eax
   1694b:	89 d6                	mov    %edx,%esi
   1694d:	89 c7                	mov    %eax,%edi
   1694f:	e8 3f 52 ff ff       	callq  bb93 <safe_mul_func_uint8_t_u_u>
   16954:	8b 85 58 e9 ff ff    	mov    -0x16a8(%rbp),%eax
   1695a:	89 c6                	mov    %eax,%esi
   1695c:	bf 00 00 00 00       	mov    $0x0,%edi
   16961:	e8 27 53 ff ff       	callq  bc8d <safe_rshift_func_uint8_t_u_s>
   16966:	be 9d 16 00 00       	mov    $0x169d,%esi
   1696b:	bf 00 00 00 00       	mov    $0x0,%edi
   16970:	e8 e0 4a ff ff       	callq  b455 <safe_div_func_int16_t_s_s>
   16975:	0f b7 95 dc e8 ff ff 	movzwl -0x1724(%rbp),%edx
   1697c:	66 39 d0             	cmp    %dx,%ax
   1697f:	0f 9f c0             	setg   %al
   16982:	0f b6 c0             	movzbl %al,%eax
   16985:	be ff ff ff ff       	mov    $0xffffffff,%esi
   1698a:	89 c7                	mov    %eax,%edi
   1698c:	e8 6c 55 ff ff       	callq  befd <safe_mod_func_uint32_t_u_u>
   16991:	89 c3                	mov    %eax,%ebx
   16993:	8b 85 90 eb ff ff    	mov    -0x1470(%rbp),%eax
   16999:	89 c6                	mov    %eax,%esi
   1699b:	48 8b 85 c8 ea ff ff 	mov    -0x1538(%rbp),%rax
   169a2:	8b 00                	mov    (%rax),%eax
   169a4:	8d 48 ff             	lea    -0x1(%rax),%ecx
   169a7:	48 8b 95 c8 ea ff ff 	mov    -0x1538(%rbp),%rdx
   169ae:	89 0a                	mov    %ecx,(%rdx)
   169b0:	89 c7                	mov    %eax,%edi
   169b2:	e8 46 55 ff ff       	callq  befd <safe_mod_func_uint32_t_u_u>
   169b7:	89 c2                	mov    %eax,%edx
   169b9:	48 8b 85 b0 e9 ff ff 	mov    -0x1650(%rbp),%rax
   169c0:	48 8b 00             	mov    (%rax),%rax
   169c3:	48 8b 00             	mov    (%rax),%rax
   169c6:	48 8b 00             	mov    (%rax),%rax
   169c9:	88 10                	mov    %dl,(%rax)
   169cb:	0f b6 00             	movzbl (%rax),%eax
   169ce:	84 c0                	test   %al,%al
   169d0:	74 10                	je     169e2 <func_54+0x25f2>
   169d2:	83 bd 24 e9 ff ff 00 	cmpl   $0x0,-0x16dc(%rbp)
   169d9:	74 07                	je     169e2 <func_54+0x25f2>
   169db:	b8 01 00 00 00       	mov    $0x1,%eax
   169e0:	eb 05                	jmp    169e7 <func_54+0x25f7>
   169e2:	b8 00 00 00 00       	mov    $0x0,%eax
   169e7:	48 98                	cltq   
   169e9:	48 89 de             	mov    %rbx,%rsi
   169ec:	48 89 c7             	mov    %rax,%rdi
   169ef:	e8 8c 56 ff ff       	callq  c080 <safe_mod_func_uint64_t_u_u>
   169f4:	89 85 90 eb ff ff    	mov    %eax,-0x1470(%rbp)
   169fa:	ba 00 00 00 00       	mov    $0x0,%edx
   169ff:	48 8b 85 b8 ea ff ff 	mov    -0x1548(%rbp),%rax
   16a06:	8b 00                	mov    (%rax),%eax
   16a08:	31 c2                	xor    %eax,%edx
   16a0a:	48 8b 85 b8 ea ff ff 	mov    -0x1548(%rbp),%rax
   16a11:	89 10                	mov    %edx,(%rax)
   16a13:	48 8b 85 b8 ea ff ff 	mov    -0x1548(%rbp),%rax
   16a1a:	8b 10                	mov    (%rax),%edx
   16a1c:	48 8b 85 a0 ea ff ff 	mov    -0x1560(%rbp),%rax
   16a23:	8b 00                	mov    (%rax),%eax
   16a25:	31 c2                	xor    %eax,%edx
   16a27:	48 8b 85 a0 ea ff ff 	mov    -0x1560(%rbp),%rax
   16a2e:	89 10                	mov    %edx,(%rax)
   16a30:	48 8b 85 a0 ea ff ff 	mov    -0x1560(%rbp),%rax
   16a37:	8b 10                	mov    (%rax),%edx
   16a39:	48 8b 85 a8 ea ff ff 	mov    -0x1558(%rbp),%rax
   16a40:	89 10                	mov    %edx,(%rax)
   16a42:	48 8b 85 98 e9 ff ff 	mov    -0x1668(%rbp),%rax
   16a49:	8b 00                	mov    (%rax),%eax
   16a4b:	85 c0                	test   %eax,%eax
   16a4d:	0f 85 87 06 00 00    	jne    170da <func_54+0x2cea>
   16a53:	48 8b 15 ce f7 00 00 	mov    0xf7ce(%rip),%rdx        # 26228 <g_1027+0xc8>
   16a5a:	48 8b 85 d8 ea ff ff 	mov    -0x1528(%rbp),%rax
   16a61:	48 89 10             	mov    %rdx,(%rax)
   16a64:	e9 5b 01 00 00       	jmpq   16bc4 <func_54+0x27d4>
   16a69:	c7 85 80 e9 ff ff ee 	movl   $0x136a77ee,-0x1680(%rbp)
   16a70:	77 6a 13 
   16a73:	48 8d 85 de e8 ff ff 	lea    -0x1722(%rbp),%rax
   16a7a:	48 89 85 88 ea ff ff 	mov    %rax,-0x1578(%rbp)
   16a81:	48 8d 85 10 ec ff ff 	lea    -0x13f0(%rbp),%rax
   16a88:	48 83 c0 08          	add    $0x8,%rax
   16a8c:	48 89 85 90 ea ff ff 	mov    %rax,-0x1570(%rbp)
   16a93:	48 8d 85 b8 e9 ff ff 	lea    -0x1648(%rbp),%rax
   16a9a:	48 89 85 98 ea ff ff 	mov    %rax,-0x1568(%rbp)
   16aa1:	8b 9d 80 e9 ff ff    	mov    -0x1680(%rbp),%ebx
   16aa7:	48 8b 85 90 ea ff ff 	mov    -0x1570(%rbp),%rax
   16aae:	48 8b 95 88 ea ff ff 	mov    -0x1578(%rbp),%rdx
   16ab5:	48 89 10             	mov    %rdx,(%rax)
   16ab8:	48 8b 85 90 ea ff ff 	mov    -0x1570(%rbp),%rax
   16abf:	48 8b 10             	mov    (%rax),%rdx
   16ac2:	48 8d 85 da e8 ff ff 	lea    -0x1726(%rbp),%rax
   16ac9:	48 39 c2             	cmp    %rax,%rdx
   16acc:	0f 95 c0             	setne  %al
   16acf:	0f b6 d0             	movzbl %al,%edx
   16ad2:	8b 05 50 c5 00 00    	mov    0xc550(%rip),%eax        # 23028 <g_5>
   16ad8:	39 c2                	cmp    %eax,%edx
   16ada:	48 8b 85 98 e9 ff ff 	mov    -0x1668(%rbp),%rax
   16ae1:	8b 00                	mov    (%rax),%eax
   16ae3:	44 0f b7 e0          	movzwl %ax,%r12d
   16ae7:	48 8b 85 98 e9 ff ff 	mov    -0x1668(%rbp),%rax
   16aee:	8b 00                	mov    (%rax),%eax
   16af0:	48 63 d0             	movslq %eax,%rdx
   16af3:	48 8b 8d b8 e9 ff ff 	mov    -0x1648(%rbp),%rcx
   16afa:	48 8b 85 98 ea ff ff 	mov    -0x1568(%rbp),%rax
   16b01:	48 89 08             	mov    %rcx,(%rax)
   16b04:	48 8b 85 98 ea ff ff 	mov    -0x1568(%rbp),%rax
   16b0b:	48 8b 00             	mov    (%rax),%rax
   16b0e:	48 39 85 68 ea ff ff 	cmp    %rax,-0x1598(%rbp)
   16b15:	74 10                	je     16b27 <func_54+0x2737>
   16b17:	83 bd 80 e9 ff ff 00 	cmpl   $0x0,-0x1680(%rbp)
   16b1e:	74 07                	je     16b27 <func_54+0x2737>
   16b20:	b8 01 00 00 00       	mov    $0x1,%eax
   16b25:	eb 05                	jmp    16b2c <func_54+0x273c>
   16b27:	b8 00 00 00 00       	mov    $0x0,%eax
   16b2c:	48 98                	cltq   
   16b2e:	25 45 ab 83 ae       	and    $0xae83ab45,%eax
   16b33:	48 89 d6             	mov    %rdx,%rsi
   16b36:	48 89 c7             	mov    %rax,%rdi
   16b39:	e8 71 55 ff ff       	callq  c0af <safe_div_func_uint64_t_u_u>
   16b3e:	0f b7 c0             	movzwl %ax,%eax
   16b41:	44 89 e6             	mov    %r12d,%esi
   16b44:	89 c7                	mov    %eax,%edi
   16b46:	e8 d4 51 ff ff       	callq  bd1f <safe_sub_func_uint16_t_u_u>
   16b4b:	8b 85 b8 eb ff ff    	mov    -0x1448(%rbp),%eax
   16b51:	be f6 ff ff ff       	mov    $0xfffffff6,%esi
   16b56:	89 c7                	mov    %eax,%edi
   16b58:	e8 73 53 ff ff       	callq  bed0 <safe_sub_func_uint32_t_u_u>
   16b5d:	be 6e e6 00 00       	mov    $0xe66e,%esi
   16b62:	bf 09 00 00 00       	mov    $0x9,%edi
   16b67:	e8 93 51 ff ff       	callq  bcff <safe_add_func_uint16_t_u_u>
   16b6c:	0f b7 c0             	movzwl %ax,%eax
   16b6f:	89 de                	mov    %ebx,%esi
   16b71:	89 c7                	mov    %eax,%edi
   16b73:	e8 3e 4a ff ff       	callq  b5b6 <safe_add_func_int32_t_s_s>
   16b78:	48 8b 05 b1 ed 00 00 	mov    0xedb1(%rip),%rax        # 25930 <g_627>
   16b7f:	0f b6 00             	movzbl (%rax),%eax
   16b82:	3c 01                	cmp    $0x1,%al
   16b84:	0f 9e c0             	setle  %al
   16b87:	0f b6 d0             	movzbl %al,%edx
   16b8a:	0f b7 85 de e8 ff ff 	movzwl -0x1722(%rbp),%eax
   16b91:	0f b7 c0             	movzwl %ax,%eax
   16b94:	39 c2                	cmp    %eax,%edx
   16b96:	0f 9d c0             	setge  %al
   16b99:	0f b6 d0             	movzbl %al,%edx
   16b9c:	8b 85 90 eb ff ff    	mov    -0x1470(%rbp),%eax
   16ba2:	21 d0                	and    %edx,%eax
   16ba4:	39 85 80 e9 ff ff    	cmp    %eax,-0x1680(%rbp)
   16baa:	0f 96 c0             	setbe  %al
   16bad:	0f b6 c0             	movzbl %al,%eax
   16bb0:	09 85 60 e9 ff ff    	or     %eax,-0x16a0(%rbp)
   16bb6:	8b 85 94 eb ff ff    	mov    -0x146c(%rbp),%eax
   16bbc:	85 c0                	test   %eax,%eax
   16bbe:	0f 85 19 05 00 00    	jne    170dd <func_54+0x2ced>
   16bc4:	c7 85 f0 e8 ff ff 01 	movl   $0x1,-0x1710(%rbp)
   16bcb:	00 00 00 
   16bce:	e9 ae 01 00 00       	jmpq   16d81 <func_54+0x2991>
   16bd3:	48 8d 05 56 f5 00 00 	lea    0xf556(%rip),%rax        # 26130 <g_927>
   16bda:	48 89 85 08 eb ff ff 	mov    %rax,-0x14f8(%rbp)
   16be1:	48 c7 85 10 eb ff ff 	movq   $0x0,-0x14f0(%rbp)
   16be8:	00 00 00 00 
   16bec:	48 8d 85 fc e8 ff ff 	lea    -0x1704(%rbp),%rax
   16bf3:	48 89 85 18 eb ff ff 	mov    %rax,-0x14e8(%rbp)
   16bfa:	48 be 5e 85 ef 63 d2 	movabs $0x71997ed263ef855e,%rsi
   16c01:	7e 99 71 
   16c04:	48 bf ed 1b f1 e7 70 	movabs $0xd7818a70e7f11bed,%rdi
   16c0b:	8a 81 d7 
   16c0e:	e8 2e 4c ff ff       	callq  b841 <safe_add_func_int64_t_s_s>
   16c13:	89 c2                	mov    %eax,%edx
   16c15:	8b 85 78 e9 ff ff    	mov    -0x1688(%rbp),%eax
   16c1b:	89 d6                	mov    %edx,%esi
   16c1d:	89 c7                	mov    %eax,%edi
   16c1f:	e8 e1 49 ff ff       	callq  b605 <safe_sub_func_int32_t_s_s>
   16c24:	48 8b 05 0d f5 00 00 	mov    0xf50d(%rip),%rax        # 26138 <g_979>
   16c2b:	48 8b 18             	mov    (%rax),%rbx
   16c2e:	0f b7 85 de e8 ff ff 	movzwl -0x1722(%rbp),%eax
   16c35:	44 0f b7 e0          	movzwl %ax,%r12d
   16c39:	48 8b 05 10 c1 00 00 	mov    0xc110(%rip),%rax        # 22d50 <l_1071.5083+0x10>
   16c40:	48 85 c0             	test   %rax,%rax
   16c43:	0f 95 c0             	setne  %al
   16c46:	0f b6 c0             	movzbl %al,%eax
   16c49:	be bc 1f 00 00       	mov    $0x1fbc,%esi
   16c4e:	89 c7                	mov    %eax,%edi
   16c50:	e8 00 48 ff ff       	callq  b455 <safe_div_func_int16_t_s_s>
   16c55:	0f b7 c0             	movzwl %ax,%eax
   16c58:	44 89 e6             	mov    %r12d,%esi
   16c5b:	89 c7                	mov    %eax,%edi
   16c5d:	e8 bd 50 ff ff       	callq  bd1f <safe_sub_func_uint16_t_u_u>
   16c62:	0f b7 c0             	movzwl %ax,%eax
   16c65:	48 89 de             	mov    %rbx,%rsi
   16c68:	48 89 c7             	mov    %rax,%rdi
   16c6b:	e8 be 53 ff ff       	callq  c02e <safe_add_func_uint64_t_u_u>
   16c70:	8b 05 56 c6 00 00    	mov    0xc656(%rip),%eax        # 232cc <g_310+0x26c>
   16c76:	85 c0                	test   %eax,%eax
   16c78:	74 07                	je     16c81 <func_54+0x2891>
   16c7a:	bb 01 00 00 00       	mov    $0x1,%ebx
   16c7f:	eb 05                	jmp    16c86 <func_54+0x2896>
   16c81:	bb 00 00 00 00       	mov    $0x0,%ebx
   16c86:	48 8b 85 08 eb ff ff 	mov    -0x14f8(%rbp),%rax
   16c8d:	48 8b 95 70 ea ff ff 	mov    -0x1590(%rbp),%rdx
   16c94:	48 89 10             	mov    %rdx,(%rax)
   16c97:	48 8b 85 08 eb ff ff 	mov    -0x14f8(%rbp),%rax
   16c9e:	48 8b 00             	mov    (%rax),%rax
   16ca1:	48 85 c0             	test   %rax,%rax
   16ca4:	0f 95 c0             	setne  %al
   16ca7:	0f b6 d0             	movzbl %al,%edx
   16caa:	8b 85 70 e9 ff ff    	mov    -0x1690(%rbp),%eax
   16cb0:	3b 85 58 e9 ff ff    	cmp    -0x16a8(%rbp),%eax
   16cb6:	0f 9c c0             	setl   %al
   16cb9:	0f b6 c0             	movzbl %al,%eax
   16cbc:	89 d6                	mov    %edx,%esi
   16cbe:	89 c7                	mov    %eax,%edi
   16cc0:	e8 0f 45 ff ff       	callq  b1d4 <safe_add_func_int8_t_s_s>
   16cc5:	89 c2                	mov    %eax,%edx
   16cc7:	48 8b 85 98 e9 ff ff 	mov    -0x1668(%rbp),%rax
   16cce:	0f be d2             	movsbl %dl,%edx
   16cd1:	89 10                	mov    %edx,(%rax)
   16cd3:	8b 10                	mov    (%rax),%edx
   16cd5:	48 8b 85 18 eb ff ff 	mov    -0x14e8(%rbp),%rax
   16cdc:	8b 00                	mov    (%rax),%eax
   16cde:	89 d9                	mov    %ebx,%ecx
   16ce0:	21 c1                	and    %eax,%ecx
   16ce2:	48 8b 85 18 eb ff ff 	mov    -0x14e8(%rbp),%rax
   16ce9:	89 08                	mov    %ecx,(%rax)
   16ceb:	48 8b 85 18 eb ff ff 	mov    -0x14e8(%rbp),%rax
   16cf2:	8b 00                	mov    (%rax),%eax
   16cf4:	85 c0                	test   %eax,%eax
   16cf6:	0f 94 c0             	sete   %al
   16cf9:	0f b6 c8             	movzbl %al,%ecx
   16cfc:	8b 85 58 eb ff ff    	mov    -0x14a8(%rbp),%eax
   16d02:	39 c1                	cmp    %eax,%ecx
   16d04:	0f 9f c0             	setg   %al
   16d07:	0f b6 c0             	movzbl %al,%eax
   16d0a:	39 c2                	cmp    %eax,%edx
   16d0c:	0f 9f c0             	setg   %al
   16d0f:	89 c2                	mov    %eax,%edx
   16d11:	8b 85 24 e9 ff ff    	mov    -0x16dc(%rbp),%eax
   16d17:	09 d0                	or     %edx,%eax
   16d19:	0f be d8             	movsbl %al,%ebx
   16d1c:	0f b7 85 de e8 ff ff 	movzwl -0x1722(%rbp),%eax
   16d23:	0f b7 c0             	movzwl %ax,%eax
   16d26:	be 00 00 00 00       	mov    $0x0,%esi
   16d2b:	89 c7                	mov    %eax,%edi
   16d2d:	e8 16 51 ff ff       	callq  be48 <safe_rshift_func_uint16_t_u_s>
   16d32:	0f be c0             	movsbl %al,%eax
   16d35:	89 de                	mov    %ebx,%esi
   16d37:	89 c7                	mov    %eax,%edi
   16d39:	e8 f3 44 ff ff       	callq  b231 <safe_mod_func_int8_t_s_s>
   16d3e:	0f be c0             	movsbl %al,%eax
   16d41:	be 07 00 00 00       	mov    $0x7,%esi
   16d46:	89 c7                	mov    %eax,%edi
   16d48:	e8 a1 45 ff ff       	callq  b2ee <safe_lshift_func_int8_t_s_u>
   16d4d:	84 c0                	test   %al,%al
   16d4f:	0f 94 c0             	sete   %al
   16d52:	0f b6 d0             	movzbl %al,%edx
   16d55:	0f be 85 d9 e8 ff ff 	movsbl -0x1727(%rbp),%eax
   16d5c:	39 c2                	cmp    %eax,%edx
   16d5e:	0f 9f c0             	setg   %al
   16d61:	0f b6 d0             	movzbl %al,%edx
   16d64:	8b 85 90 eb ff ff    	mov    -0x1470(%rbp),%eax
   16d6a:	09 d0                	or     %edx,%eax
   16d6c:	89 85 90 eb ff ff    	mov    %eax,-0x1470(%rbp)
   16d72:	8b 85 f0 e8 ff ff    	mov    -0x1710(%rbp),%eax
   16d78:	83 e8 01             	sub    $0x1,%eax
   16d7b:	89 85 f0 e8 ff ff    	mov    %eax,-0x1710(%rbp)
   16d81:	8b 85 f0 e8 ff ff    	mov    -0x1710(%rbp),%eax
   16d87:	85 c0                	test   %eax,%eax
   16d89:	0f 89 44 fe ff ff    	jns    16bd3 <func_54+0x27e3>
   16d8f:	66 c7 85 da e8 ff ff 	movw   $0x0,-0x1726(%rbp)
   16d96:	00 00 
   16d98:	e9 2a 03 00 00       	jmpq   170c7 <func_54+0x2cd7>
   16d9d:	48 8d 05 44 10 01 00 	lea    0x11044(%rip),%rax        # 27de8 <g_401>
   16da4:	48 89 85 e0 ea ff ff 	mov    %rax,-0x1520(%rbp)
   16dab:	48 c7 85 e8 ea ff ff 	movq   $0x0,-0x1518(%rbp)
   16db2:	00 00 00 00 
   16db6:	48 c7 85 f0 ea ff ff 	movq   $0x0,-0x1510(%rbp)
   16dbd:	00 00 00 00 
   16dc1:	48 8d 85 dc e8 ff ff 	lea    -0x1724(%rbp),%rax
   16dc8:	48 89 85 f0 f7 ff ff 	mov    %rax,-0x810(%rbp)
   16dcf:	48 8d 85 dc e8 ff ff 	lea    -0x1724(%rbp),%rax
   16dd6:	48 89 85 f8 f7 ff ff 	mov    %rax,-0x808(%rbp)
   16ddd:	48 c7 85 00 f8 ff ff 	movq   $0x0,-0x800(%rbp)
   16de4:	00 00 00 00 
   16de8:	48 8d 85 dc e8 ff ff 	lea    -0x1724(%rbp),%rax
   16def:	48 89 85 08 f8 ff ff 	mov    %rax,-0x7f8(%rbp)
   16df6:	48 8d 85 dc e8 ff ff 	lea    -0x1724(%rbp),%rax
   16dfd:	48 89 85 10 f8 ff ff 	mov    %rax,-0x7f0(%rbp)
   16e04:	48 c7 85 18 f8 ff ff 	movq   $0x0,-0x7e8(%rbp)
   16e0b:	00 00 00 00 
   16e0f:	48 8d 85 dc e8 ff ff 	lea    -0x1724(%rbp),%rax
   16e16:	48 89 85 20 f8 ff ff 	mov    %rax,-0x7e0(%rbp)
   16e1d:	48 8d 85 dc e8 ff ff 	lea    -0x1724(%rbp),%rax
   16e24:	48 89 85 28 f8 ff ff 	mov    %rax,-0x7d8(%rbp)
   16e2b:	48 c7 85 30 f8 ff ff 	movq   $0x0,-0x7d0(%rbp)
   16e32:	00 00 00 00 
   16e36:	c7 85 88 e9 ff ff 01 	movl   $0x1,-0x1678(%rbp)
   16e3d:	00 00 00 
   16e40:	48 8d 85 e8 e8 ff ff 	lea    -0x1718(%rbp),%rax
   16e47:	48 89 85 f8 ea ff ff 	mov    %rax,-0x1508(%rbp)
   16e4e:	48 8d 85 fc e8 ff ff 	lea    -0x1704(%rbp),%rax
   16e55:	48 89 85 00 eb ff ff 	mov    %rax,-0x1500(%rbp)
   16e5c:	c7 85 3c e9 ff ff 00 	movl   $0x0,-0x16c4(%rbp)
   16e63:	00 00 00 
   16e66:	eb 1b                	jmp    16e83 <func_54+0x2a93>
   16e68:	8b 85 3c e9 ff ff    	mov    -0x16c4(%rbp),%eax
   16e6e:	48 98                	cltq   
   16e70:	48 c7 84 c5 40 ed ff 	movq   $0x0,-0x12c0(%rbp,%rax,8)
   16e77:	ff 00 00 00 00 
   16e7c:	83 85 3c e9 ff ff 01 	addl   $0x1,-0x16c4(%rbp)
   16e83:	83 bd 3c e9 ff ff 03 	cmpl   $0x3,-0x16c4(%rbp)
   16e8a:	7e dc                	jle    16e68 <func_54+0x2a78>
   16e8c:	48 8b 85 e8 ea ff ff 	mov    -0x1518(%rbp),%rax
   16e93:	48 89 85 78 ea ff ff 	mov    %rax,-0x1588(%rbp)
   16e9a:	8b 05 a0 c3 00 00    	mov    0xc3a0(%rip),%eax        # 23240 <g_310+0x1e0>
   16ea0:	89 85 c4 e8 ff ff    	mov    %eax,-0x173c(%rbp)
   16ea6:	8b 85 58 eb ff ff    	mov    -0x14a8(%rbp),%eax
   16eac:	48 63 d8             	movslq %eax,%rbx
   16eaf:	48 8b 05 72 f2 00 00 	mov    0xf272(%rip),%rax        # 26128 <g_928>
   16eb6:	48 8b 00             	mov    (%rax),%rax
   16eb9:	48 8b 00             	mov    (%rax),%rax
   16ebc:	0f b6 00             	movzbl (%rax),%eax
   16ebf:	44 0f be e0          	movsbl %al,%r12d
   16ec3:	8b 85 a4 eb ff ff    	mov    -0x145c(%rbp),%eax
   16ec9:	44 0f bf e8          	movswl %ax,%r13d
   16ecd:	8b 85 7c e9 ff ff    	mov    -0x1684(%rbp),%eax
   16ed3:	44 0f bf f0          	movswl %ax,%r14d
   16ed7:	48 8b 05 82 c5 00 00 	mov    0xc582(%rip),%rax        # 23460 <g_672>
   16ede:	89 85 c0 e8 ff ff    	mov    %eax,-0x1740(%rbp)
   16ee4:	48 8b 85 f8 ea ff ff 	mov    -0x1508(%rbp),%rax
   16eeb:	8b 00                	mov    (%rax),%eax
   16eed:	23 85 88 e9 ff ff    	and    -0x1678(%rbp),%eax
   16ef3:	89 c2                	mov    %eax,%edx
   16ef5:	48 8b 85 f8 ea ff ff 	mov    -0x1508(%rbp),%rax
   16efc:	89 10                	mov    %edx,(%rax)
   16efe:	48 8b 85 f8 ea ff ff 	mov    -0x1508(%rbp),%rax
   16f05:	8b 00                	mov    (%rax),%eax
   16f07:	89 85 bc e8 ff ff    	mov    %eax,-0x1744(%rbp)
   16f0d:	8b 85 78 e9 ff ff    	mov    -0x1688(%rbp),%eax
   16f13:	4c 63 f8             	movslq %eax,%r15
   16f16:	8b 85 f8 e8 ff ff    	mov    -0x1708(%rbp),%eax
   16f1c:	33 85 20 e9 ff ff    	xor    -0x16e0(%rbp),%eax
   16f22:	89 c2                	mov    %eax,%edx
   16f24:	48 8b 05 15 ea 00 00 	mov    0xea15(%rip),%rax        # 25940 <g_628>
   16f2b:	48 8b 00             	mov    (%rax),%rax
   16f2e:	48 8b 00             	mov    (%rax),%rax
   16f31:	0f b6 00             	movzbl (%rax),%eax
   16f34:	0f be c0             	movsbl %al,%eax
   16f37:	39 c2                	cmp    %eax,%edx
   16f39:	0f 96 c0             	setbe  %al
   16f3c:	0f b6 c0             	movzbl %al,%eax
   16f3f:	89 c7                	mov    %eax,%edi
   16f41:	e8 50 46 ff ff       	callq  b596 <safe_unary_minus_func_int32_t_s>
   16f46:	48 98                	cltq   
   16f48:	4c 89 fe             	mov    %r15,%rsi
   16f4b:	48 89 c7             	mov    %rax,%rdi
   16f4e:	e8 61 4a ff ff       	callq  b9b4 <safe_mod_func_int64_t_s_s>
   16f53:	8b 95 bc e8 ff ff    	mov    -0x1744(%rbp),%edx
   16f59:	21 c2                	and    %eax,%edx
   16f5b:	8b 85 58 e9 ff ff    	mov    -0x16a8(%rbp),%eax
   16f61:	89 c6                	mov    %eax,%esi
   16f63:	89 d7                	mov    %edx,%edi
   16f65:	e8 4c 46 ff ff       	callq  b5b6 <safe_add_func_int32_t_s_s>
   16f6a:	83 f8 04             	cmp    $0x4,%eax
   16f6d:	0f 96 c0             	setbe  %al
   16f70:	0f b6 c0             	movzbl %al,%eax
   16f73:	8b b5 c0 e8 ff ff    	mov    -0x1740(%rbp),%esi
   16f79:	89 c7                	mov    %eax,%edi
   16f7b:	e8 cc 4c ff ff       	callq  bc4c <safe_lshift_func_uint8_t_u_u>
   16f80:	0f b6 c0             	movzbl %al,%eax
   16f83:	44 89 f6             	mov    %r14d,%esi
   16f86:	89 c7                	mov    %eax,%edi
   16f88:	e8 89 44 ff ff       	callq  b416 <safe_mod_func_int16_t_s_s>
   16f8d:	0f bf d0             	movswl %ax,%edx
   16f90:	48 8b 85 00 eb ff ff 	mov    -0x1500(%rbp),%rax
   16f97:	89 10                	mov    %edx,(%rax)
   16f99:	48 8b 85 00 eb ff ff 	mov    -0x1500(%rbp),%rax
   16fa0:	8b 00                	mov    (%rax),%eax
   16fa2:	be f7 ff ff ff       	mov    $0xfffffff7,%esi
   16fa7:	89 c7                	mov    %eax,%edi
   16fa9:	e8 0a 4f ff ff       	callq  beb8 <safe_add_func_uint32_t_u_u>
   16fae:	0f b6 c0             	movzbl %al,%eax
   16fb1:	be 05 00 00 00       	mov    $0x5,%esi
   16fb6:	89 c7                	mov    %eax,%edi
   16fb8:	e8 01 4d ff ff       	callq  bcbe <safe_rshift_func_uint8_t_u_u>
   16fbd:	44 89 ee             	mov    %r13d,%esi
   16fc0:	bf 01 00 00 00       	mov    $0x1,%edi
   16fc5:	e8 e9 43 ff ff       	callq  b3b3 <safe_add_func_int16_t_s_s>
   16fca:	0f bf d0             	movswl %ax,%edx
   16fcd:	0f b7 8d d8 e9 ff ff 	movzwl -0x1628(%rbp),%ecx
   16fd4:	48 8b 85 98 e9 ff ff 	mov    -0x1668(%rbp),%rax
   16fdb:	0f bf c9             	movswl %cx,%ecx
   16fde:	89 08                	mov    %ecx,(%rax)
   16fe0:	8b 00                	mov    (%rax),%eax
   16fe2:	98                   	cwtl   
   16fe3:	89 d6                	mov    %edx,%esi
   16fe5:	89 c7                	mov    %eax,%edi
   16fe7:	e8 09 44 ff ff       	callq  b3f5 <safe_mul_func_int16_t_s_s>
   16fec:	98                   	cwtl   
   16fed:	89 c6                	mov    %eax,%esi
   16fef:	bf bc 1b aa d7       	mov    $0xd7aa1bbc,%edi
   16ff4:	e8 d7 4e ff ff       	callq  bed0 <safe_sub_func_uint32_t_u_u>
   16ff9:	83 c8 04             	or     $0x4,%eax
   16ffc:	89 c0                	mov    %eax,%eax
   16ffe:	48 89 c7             	mov    %rax,%rdi
   17001:	e8 10 48 ff ff       	callq  b816 <safe_unary_minus_func_int64_t_s>
   17006:	48 8b 05 33 c0 00 00 	mov    0xc033(%rip),%rax        # 23040 <g_121>
   1700d:	83 f0 01             	xor    $0x1,%eax
   17010:	0f b6 c0             	movzbl %al,%eax
   17013:	44 89 e6             	mov    %r12d,%esi
   17016:	89 c7                	mov    %eax,%edi
   17018:	e8 70 4c ff ff       	callq  bc8d <safe_rshift_func_uint8_t_u_s>
   1701d:	0f b6 d0             	movzbl %al,%edx
   17020:	8b 85 90 eb ff ff    	mov    -0x1470(%rbp),%eax
   17026:	98                   	cwtl   
   17027:	89 d6                	mov    %edx,%esi
   17029:	89 c7                	mov    %eax,%edi
   1702b:	e8 c5 43 ff ff       	callq  b3f5 <safe_mul_func_int16_t_s_s>
   17030:	be 00 00 00 00       	mov    $0x0,%esi
   17035:	bf 90 ff ff ff       	mov    $0xffffff90,%edi
   1703a:	e8 d3 41 ff ff       	callq  b212 <safe_mul_func_int8_t_s_s>
   1703f:	0f be c0             	movsbl %al,%eax
   17042:	21 85 34 e9 ff ff    	and    %eax,-0x16cc(%rbp)
   17048:	48 8b 85 c8 e9 ff ff 	mov    -0x1638(%rbp),%rax
   1704f:	8b 95 34 e9 ff ff    	mov    -0x16cc(%rbp),%edx
   17055:	48 63 d2             	movslq %edx,%rdx
   17058:	48 89 10             	mov    %rdx,(%rax)
   1705b:	48 8b 00             	mov    (%rax),%rax
   1705e:	48 89 de             	mov    %rbx,%rsi
   17061:	48 89 c7             	mov    %rax,%rdi
   17064:	e8 46 50 ff ff       	callq  c0af <safe_div_func_uint64_t_u_u>
   17069:	48 8d 05 98 0d 01 00 	lea    0x10d98(%rip),%rax        # 27e08 <g_783+0x8>
   17070:	48 39 85 80 ea ff ff 	cmp    %rax,-0x1580(%rbp)
   17077:	0f 95 c0             	setne  %al
   1707a:	0f b6 c0             	movzbl %al,%eax
   1707d:	48 c7 c6 f7 ff ff ff 	mov    $0xfffffffffffffff7,%rsi
   17084:	48 89 c7             	mov    %rax,%rdi
   17087:	e8 bf 4f ff ff       	callq  c04b <safe_sub_func_uint64_t_u_u>
   1708c:	8b 95 20 e9 ff ff    	mov    -0x16e0(%rbp),%edx
   17092:	48 39 d0             	cmp    %rdx,%rax
   17095:	0f 97 c0             	seta   %al
   17098:	0f b6 d0             	movzbl %al,%edx
   1709b:	48 8b 05 3e f9 00 00 	mov    0xf93e(%rip),%rax        # 269e0 <g_1121>
   170a2:	23 95 c4 e8 ff ff    	and    -0x173c(%rbp),%edx
   170a8:	89 10                	mov    %edx,(%rax)
   170aa:	0f b7 85 da e8 ff ff 	movzwl -0x1726(%rbp),%eax
   170b1:	0f b7 c0             	movzwl %ax,%eax
   170b4:	be 01 00 00 00       	mov    $0x1,%esi
   170b9:	89 c7                	mov    %eax,%edi
   170bb:	e8 f8 4d ff ff       	callq  beb8 <safe_add_func_uint32_t_u_u>
   170c0:	66 89 85 da e8 ff ff 	mov    %ax,-0x1726(%rbp)
   170c7:	0f b7 85 da e8 ff ff 	movzwl -0x1726(%rbp),%eax
   170ce:	66 83 f8 14          	cmp    $0x14,%ax
   170d2:	0f 87 c5 fc ff ff    	ja     16d9d <func_54+0x29ad>
   170d8:	eb 04                	jmp    170de <func_54+0x2cee>
   170da:	90                   	nop
   170db:	eb 01                	jmp    170de <func_54+0x2cee>
   170dd:	90                   	nop
   170de:	8b 05 70 c3 00 00    	mov    0xc370(%rip),%eax        # 23454 <g_340>
   170e4:	83 e8 01             	sub    $0x1,%eax
   170e7:	89 05 67 c3 00 00    	mov    %eax,0xc367(%rip)        # 23454 <g_340>
   170ed:	8b 05 61 c3 00 00    	mov    0xc361(%rip),%eax        # 23454 <g_340>
   170f3:	85 c0                	test   %eax,%eax
   170f5:	0f 89 42 de ff ff    	jns    14f3d <func_54+0xb4d>
   170fb:	8b 85 20 e9 ff ff    	mov    -0x16e0(%rbp),%eax
   17101:	e9 62 02 00 00       	jmpq   17368 <func_54+0x2f78>
   17106:	48 8b 85 98 e9 ff ff 	mov    -0x1668(%rbp),%rax
   1710d:	44 8b 28             	mov    (%rax),%r13d
   17110:	48 8b 85 d0 f6 ff ff 	mov    -0x930(%rbp),%rax
   17117:	48 83 c0 01          	add    $0x1,%rax
   1711b:	48 89 85 d0 f6 ff ff 	mov    %rax,-0x930(%rbp)
   17122:	48 8b 85 d0 f6 ff ff 	mov    -0x930(%rbp),%rax
   17129:	48 83 f8 7b          	cmp    $0x7b,%rax
   1712d:	0f 95 c0             	setne  %al
   17130:	44 0f b6 f0          	movzbl %al,%r14d
   17134:	48 8b 85 98 e9 ff ff 	mov    -0x1668(%rbp),%rax
   1713b:	8b 00                	mov    (%rax),%eax
   1713d:	85 c0                	test   %eax,%eax
   1713f:	0f 85 cd 00 00 00    	jne    17212 <func_54+0x2e22>
   17145:	0f b6 45 c6          	movzbl -0x3a(%rbp),%eax
   17149:	0f be d0             	movsbl %al,%edx
   1714c:	48 8b 85 98 e9 ff ff 	mov    -0x1668(%rbp),%rax
   17153:	8b 00                	mov    (%rax),%eax
   17155:	89 d6                	mov    %edx,%esi
   17157:	89 c7                	mov    %eax,%edi
   17159:	e8 58 44 ff ff       	callq  b5b6 <safe_add_func_int32_t_s_s>
   1715e:	8b 95 b0 eb ff ff    	mov    -0x1450(%rbp),%edx
   17164:	21 d0                	and    %edx,%eax
   17166:	89 85 b0 eb ff ff    	mov    %eax,-0x1450(%rbp)
   1716c:	8b 85 b0 eb ff ff    	mov    -0x1450(%rbp),%eax
   17172:	0f bf d0             	movswl %ax,%edx
   17175:	8b 85 f8 e8 ff ff    	mov    -0x1708(%rbp),%eax
   1717b:	89 85 f8 e8 ff ff    	mov    %eax,-0x1708(%rbp)
   17181:	8b 85 f8 e8 ff ff    	mov    -0x1708(%rbp),%eax
   17187:	98                   	cwtl   
   17188:	89 d6                	mov    %edx,%esi
   1718a:	89 c7                	mov    %eax,%edi
   1718c:	e8 22 42 ff ff       	callq  b3b3 <safe_add_func_int16_t_s_s>
   17191:	44 0f bf f8          	movswl %ax,%r15d
   17195:	0f b6 45 c6          	movzbl -0x3a(%rbp),%eax
   17199:	0f be d8             	movsbl %al,%ebx
   1719c:	4c 0f be a5 d9 e8 ff 	movsbq -0x1727(%rbp),%r12
   171a3:	ff 
   171a4:	48 8b 05 95 e7 00 00 	mov    0xe795(%rip),%rax        # 25940 <g_628>
   171ab:	48 8b 00             	mov    (%rax),%rax
   171ae:	48 8b 00             	mov    (%rax),%rax
   171b1:	0f b6 00             	movzbl (%rax),%eax
   171b4:	0f be c0             	movsbl %al,%eax
   171b7:	89 c7                	mov    %eax,%edi
   171b9:	e8 01 40 ff ff       	callq  b1bf <safe_unary_minus_func_int8_t_s>
   171be:	48 0f be c0          	movsbq %al,%rax
   171c2:	4c 89 e6             	mov    %r12,%rsi
   171c5:	48 89 c7             	mov    %rax,%rdi
   171c8:	e8 db 46 ff ff       	callq  b8a8 <safe_sub_func_int64_t_s_s>
   171cd:	8b 15 21 c1 00 00    	mov    0xc121(%rip),%edx        # 232f4 <g_310+0x294>
   171d3:	48 63 d2             	movslq %edx,%rdx
   171d6:	48 39 d0             	cmp    %rdx,%rax
   171d9:	0f 9f c0             	setg   %al
   171dc:	0f b6 c0             	movzbl %al,%eax
   171df:	89 de                	mov    %ebx,%esi
   171e1:	89 c7                	mov    %eax,%edi
   171e3:	e8 aa 42 ff ff       	callq  b492 <safe_lshift_func_int16_t_s_s>
   171e8:	0f b6 45 c6          	movzbl -0x3a(%rbp),%eax
   171ec:	0f be c0             	movsbl %al,%eax
   171ef:	89 c6                	mov    %eax,%esi
   171f1:	bf 00 00 00 00       	mov    $0x0,%edi
   171f6:	e8 36 40 ff ff       	callq  b231 <safe_mod_func_int8_t_s_s>
   171fb:	0f b6 c0             	movzbl %al,%eax
   171fe:	be b8 00 00 00       	mov    $0xb8,%esi
   17203:	89 c7                	mov    %eax,%edi
   17205:	e8 a4 49 ff ff       	callq  bbae <safe_mod_func_uint8_t_u_u>
   1720a:	0f b6 c0             	movzbl %al,%eax
   1720d:	41 39 c7             	cmp    %eax,%r15d
   17210:	7c 07                	jl     17219 <func_54+0x2e29>
   17212:	b8 01 00 00 00       	mov    $0x1,%eax
   17217:	eb 05                	jmp    1721e <func_54+0x2e2e>
   17219:	b8 00 00 00 00       	mov    $0x0,%eax
   1721e:	44 39 f0             	cmp    %r14d,%eax
   17221:	7f 14                	jg     17237 <func_54+0x2e47>
   17223:	48 8b 85 98 e9 ff ff 	mov    -0x1668(%rbp),%rax
   1722a:	8b 00                	mov    (%rax),%eax
   1722c:	85 c0                	test   %eax,%eax
   1722e:	74 07                	je     17237 <func_54+0x2e47>
   17230:	b8 01 00 00 00       	mov    $0x1,%eax
   17235:	eb 05                	jmp    1723c <func_54+0x2e4c>
   17237:	b8 00 00 00 00       	mov    $0x0,%eax
   1723c:	3d 5b 1d 00 00       	cmp    $0x1d5b,%eax
   17241:	0f 9e c0             	setle  %al
   17244:	0f b6 c0             	movzbl %al,%eax
   17247:	41 39 c5             	cmp    %eax,%r13d
   1724a:	0f 94 c0             	sete   %al
   1724d:	0f b6 c0             	movzbl %al,%eax
   17250:	be 06 00 00 00       	mov    $0x6,%esi
   17255:	89 c7                	mov    %eax,%edi
   17257:	e8 10 41 ff ff       	callq  b36c <safe_rshift_func_int8_t_s_u>
   1725c:	0f be c0             	movsbl %al,%eax
   1725f:	31 85 54 e9 ff ff    	xor    %eax,-0x16ac(%rbp)
   17265:	e9 b7 00 00 00       	jmpq   17321 <func_54+0x2f31>
   1726a:	66 c7 85 da e8 ff ff 	movw   $0xffe5,-0x1726(%rbp)
   17271:	e5 ff 
   17273:	eb 4b                	jmp    172c0 <func_54+0x2ed0>
   17275:	48 8d 85 f4 e8 ff ff 	lea    -0x170c(%rbp),%rax
   1727c:	48 89 85 50 ea ff ff 	mov    %rax,-0x15b0(%rbp)
   17283:	48 8d 05 7e 0b 01 00 	lea    0x10b7e(%rip),%rax        # 27e08 <g_783+0x8>
   1728a:	48 89 85 58 ea ff ff 	mov    %rax,-0x15a8(%rbp)
   17291:	48 8b 85 58 ea ff ff 	mov    -0x15a8(%rbp),%rax
   17298:	48 8b 95 50 ea ff ff 	mov    -0x15b0(%rbp),%rdx
   1729f:	48 89 10             	mov    %rdx,(%rax)
   172a2:	0f b7 85 da e8 ff ff 	movzwl -0x1726(%rbp),%eax
   172a9:	0f b7 c0             	movzwl %ax,%eax
   172ac:	be 06 00 00 00       	mov    $0x6,%esi
   172b1:	48 89 c7             	mov    %rax,%rdi
   172b4:	e8 88 45 ff ff       	callq  b841 <safe_add_func_int64_t_s_s>
   172b9:	66 89 85 da e8 ff ff 	mov    %ax,-0x1726(%rbp)
   172c0:	0f b7 85 da e8 ff ff 	movzwl -0x1726(%rbp),%eax
   172c7:	66 83 f8 3b          	cmp    $0x3b,%ax
   172cb:	76 a8                	jbe    17275 <func_54+0x2e85>
   172cd:	c6 05 14 0b 01 00 02 	movb   $0x2,0x10b14(%rip)        # 27de8 <g_401>
   172d4:	eb 2f                	jmp    17305 <func_54+0x2f15>
   172d6:	48 8d 05 23 0b 01 00 	lea    0x10b23(%rip),%rax        # 27e00 <g_783>
   172dd:	48 89 85 48 ea ff ff 	mov    %rax,-0x15b8(%rbp)
   172e4:	48 8b 85 48 ea ff ff 	mov    -0x15b8(%rbp),%rax
   172eb:	48 8d 95 ec e8 ff ff 	lea    -0x1714(%rbp),%rdx
   172f2:	48 89 10             	mov    %rdx,(%rax)
   172f5:	0f b6 05 ec 0a 01 00 	movzbl 0x10aec(%rip),%eax        # 27de8 <g_401>
   172fc:	83 c0 01             	add    $0x1,%eax
   172ff:	88 05 e3 0a 01 00    	mov    %al,0x10ae3(%rip)        # 27de8 <g_401>
   17305:	0f b6 05 dc 0a 01 00 	movzbl 0x10adc(%rip),%eax        # 27de8 <g_401>
   1730c:	3c 19                	cmp    $0x19,%al
   1730e:	77 c6                	ja     172d6 <func_54+0x2ee6>
   17310:	48 8b 05 d1 f6 00 00 	mov    0xf6d1(%rip),%rax        # 269e8 <g_1151>
   17317:	48 8b 15 62 ba 00 00 	mov    0xba62(%rip),%rdx        # 22d80 <l_1150.5136>
   1731e:	48 89 10             	mov    %rdx,(%rax)
   17321:	c7 05 f9 bc 00 00 e7 	movl   $0xffffffe7,0xbcf9(%rip)        # 23024 <g_3>
   17328:	ff ff ff 
   1732b:	eb 25                	jmp    17352 <func_54+0x2f62>
   1732d:	c7 85 e4 e8 ff ff 60 	movl   $0xd7012960,-0x171c(%rbp)
   17334:	29 01 d7 
   17337:	8b 05 e7 bc 00 00    	mov    0xbce7(%rip),%eax        # 23024 <g_3>
   1733d:	48 98                	cltq   
   1733f:	be 01 00 00 00       	mov    $0x1,%esi
   17344:	48 89 c7             	mov    %rax,%rdi
   17347:	e8 e2 4c ff ff       	callq  c02e <safe_add_func_uint64_t_u_u>
   1734c:	89 05 d2 bc 00 00    	mov    %eax,0xbcd2(%rip)        # 23024 <g_3>
   17352:	8b 05 cc bc 00 00    	mov    0xbccc(%rip),%eax        # 23024 <g_3>
   17358:	83 f8 fd             	cmp    $0xfffffffd,%eax
   1735b:	75 d0                	jne    1732d <func_54+0x2f3d>
   1735d:	48 8b 85 98 e9 ff ff 	mov    -0x1668(%rbp),%rax
   17364:	8b 00                	mov    (%rax),%eax
   17366:	48 98                	cltq   
   17368:	48 8b 5d c8          	mov    -0x38(%rbp),%rbx
   1736c:	64 48 33 1c 25 28 00 	xor    %fs:0x28,%rbx
   17373:	00 00 
   17375:	74 05                	je     1737c <func_54+0x2f8c>
   17377:	e8 f4 3c ff ff       	callq  b070 <__stack_chk_fail@plt>
   1737c:	48 81 c4 28 17 00 00 	add    $0x1728,%rsp
   17383:	5b                   	pop    %rbx
   17384:	41 5c                	pop    %r12
   17386:	41 5d                	pop    %r13
   17388:	41 5e                	pop    %r14
   1738a:	41 5f                	pop    %r15
   1738c:	5d                   	pop    %rbp
   1738d:	c3                   	retq   

000000000001738e <func_61>:
   1738e:	f3 0f 1e fa          	endbr64 
   17392:	55                   	push   %rbp
   17393:	48 89 e5             	mov    %rsp,%rbp
   17396:	41 56                	push   %r14
   17398:	41 55                	push   %r13
   1739a:	41 54                	push   %r12
   1739c:	53                   	push   %rbx
   1739d:	48 81 ec 00 10 00 00 	sub    $0x1000,%rsp
   173a4:	48 83 0c 24 00       	orq    $0x0,(%rsp)
   173a9:	48 81 ec 00 10 00 00 	sub    $0x1000,%rsp
   173b0:	48 83 0c 24 00       	orq    $0x0,(%rsp)
   173b5:	48 81 ec 10 01 00 00 	sub    $0x110,%rsp
   173bc:	89 bd ec de ff ff    	mov    %edi,-0x2114(%rbp)
   173c2:	89 b5 e8 de ff ff    	mov    %esi,-0x2118(%rbp)
   173c8:	89 d0                	mov    %edx,%eax
   173ca:	48 89 8d d8 de ff ff 	mov    %rcx,-0x2128(%rbp)
   173d1:	44 89 c2             	mov    %r8d,%edx
   173d4:	66 89 85 e4 de ff ff 	mov    %ax,-0x211c(%rbp)
   173db:	89 d0                	mov    %edx,%eax
   173dd:	66 89 85 e0 de ff ff 	mov    %ax,-0x2120(%rbp)
   173e4:	64 48 8b 04 25 28 00 	mov    %fs:0x28,%rax
   173eb:	00 00 
   173ed:	48 89 45 d8          	mov    %rax,-0x28(%rbp)
   173f1:	31 c0                	xor    %eax,%eax
   173f3:	c7 85 10 df ff ff bc 	movl   $0xf00d13bc,-0x20f0(%rbp)
   173fa:	13 0d f0 
   173fd:	48 8d 05 7c e4 00 00 	lea    0xe47c(%rip),%rax        # 25880 <g_88>
   17404:	48 89 85 c0 df ff ff 	mov    %rax,-0x2040(%rbp)
   1740b:	48 8d 85 c0 df ff ff 	lea    -0x2040(%rbp),%rax
   17412:	48 89 85 18 e0 ff ff 	mov    %rax,-0x1fe8(%rbp)
   17419:	48 8d 05 04 bc 00 00 	lea    0xbc04(%rip),%rax        # 23024 <g_3>
   17420:	48 89 85 c8 df ff ff 	mov    %rax,-0x2038(%rbp)
   17427:	48 8d 05 08 bc 00 00 	lea    0xbc08(%rip),%rax        # 23036 <g_6+0x6>
   1742e:	48 89 85 20 e0 ff ff 	mov    %rax,-0x1fe0(%rbp)
   17435:	48 8d 05 fc bb 00 00 	lea    0xbbfc(%rip),%rax        # 23038 <g_6+0x8>
   1743c:	48 89 85 d0 df ff ff 	mov    %rax,-0x2030(%rbp)
   17443:	48 8d 05 fe bb 00 00 	lea    0xbbfe(%rip),%rax        # 23048 <g_144>
   1744a:	48 89 85 d8 df ff ff 	mov    %rax,-0x2028(%rbp)
   17451:	48 8d 85 d8 df ff ff 	lea    -0x2028(%rbp),%rax
   17458:	48 89 85 90 e9 ff ff 	mov    %rax,-0x1670(%rbp)
   1745f:	48 c7 85 98 e9 ff ff 	movq   $0x0,-0x1668(%rbp)
   17466:	00 00 00 00 
   1746a:	48 8d 85 d8 df ff ff 	lea    -0x2028(%rbp),%rax
   17471:	48 89 85 a0 e9 ff ff 	mov    %rax,-0x1660(%rbp)
   17478:	48 c7 85 a8 e9 ff ff 	movq   $0x0,-0x1658(%rbp)
   1747f:	00 00 00 00 
   17483:	48 8d 85 d8 df ff ff 	lea    -0x2028(%rbp),%rax
   1748a:	48 89 85 b0 e9 ff ff 	mov    %rax,-0x1650(%rbp)
   17491:	48 c7 85 b8 e9 ff ff 	movq   $0x0,-0x1648(%rbp)
   17498:	00 00 00 00 
   1749c:	48 8d 85 d8 df ff ff 	lea    -0x2028(%rbp),%rax
   174a3:	48 89 85 c0 e9 ff ff 	mov    %rax,-0x1640(%rbp)
   174aa:	48 8d 85 d8 df ff ff 	lea    -0x2028(%rbp),%rax
   174b1:	48 89 85 c8 e9 ff ff 	mov    %rax,-0x1638(%rbp)
   174b8:	48 8d 85 d8 df ff ff 	lea    -0x2028(%rbp),%rax
   174bf:	48 89 85 d0 e9 ff ff 	mov    %rax,-0x1630(%rbp)
   174c6:	48 8d 85 d8 df ff ff 	lea    -0x2028(%rbp),%rax
   174cd:	48 89 85 d8 e9 ff ff 	mov    %rax,-0x1628(%rbp)
   174d4:	48 8d 85 d8 df ff ff 	lea    -0x2028(%rbp),%rax
   174db:	48 89 85 e0 e9 ff ff 	mov    %rax,-0x1620(%rbp)
   174e2:	48 8d 85 d8 df ff ff 	lea    -0x2028(%rbp),%rax
   174e9:	48 89 85 e8 e9 ff ff 	mov    %rax,-0x1618(%rbp)
   174f0:	48 c7 85 f0 e9 ff ff 	movq   $0x0,-0x1610(%rbp)
   174f7:	00 00 00 00 
   174fb:	48 c7 85 f8 e9 ff ff 	movq   $0x0,-0x1608(%rbp)
   17502:	00 00 00 00 
   17506:	48 8d 85 d8 df ff ff 	lea    -0x2028(%rbp),%rax
   1750d:	48 89 85 00 ea ff ff 	mov    %rax,-0x1600(%rbp)
   17514:	48 c7 85 08 ea ff ff 	movq   $0x0,-0x15f8(%rbp)
   1751b:	00 00 00 00 
   1751f:	48 c7 85 10 ea ff ff 	movq   $0x0,-0x15f0(%rbp)
   17526:	00 00 00 00 
   1752a:	48 c7 85 18 ea ff ff 	movq   $0x0,-0x15e8(%rbp)
   17531:	00 00 00 00 
   17535:	48 c7 85 20 ea ff ff 	movq   $0x0,-0x15e0(%rbp)
   1753c:	00 00 00 00 
   17540:	48 8d 85 d8 df ff ff 	lea    -0x2028(%rbp),%rax
   17547:	48 89 85 28 ea ff ff 	mov    %rax,-0x15d8(%rbp)
   1754e:	48 8d 85 d8 df ff ff 	lea    -0x2028(%rbp),%rax
   17555:	48 89 85 30 ea ff ff 	mov    %rax,-0x15d0(%rbp)
   1755c:	48 8d 85 d8 df ff ff 	lea    -0x2028(%rbp),%rax
   17563:	48 89 85 38 ea ff ff 	mov    %rax,-0x15c8(%rbp)
   1756a:	48 c7 85 40 ea ff ff 	movq   $0x0,-0x15c0(%rbp)
   17571:	00 00 00 00 
   17575:	48 8d 85 d8 df ff ff 	lea    -0x2028(%rbp),%rax
   1757c:	48 89 85 48 ea ff ff 	mov    %rax,-0x15b8(%rbp)
   17583:	48 8d 85 d8 df ff ff 	lea    -0x2028(%rbp),%rax
   1758a:	48 89 85 50 ea ff ff 	mov    %rax,-0x15b0(%rbp)
   17591:	48 c7 85 58 ea ff ff 	movq   $0x0,-0x15a8(%rbp)
   17598:	00 00 00 00 
   1759c:	48 8d 85 d8 df ff ff 	lea    -0x2028(%rbp),%rax
   175a3:	48 89 85 60 ea ff ff 	mov    %rax,-0x15a0(%rbp)
   175aa:	48 c7 85 68 ea ff ff 	movq   $0x0,-0x1598(%rbp)
   175b1:	00 00 00 00 
   175b5:	48 8d 85 d8 df ff ff 	lea    -0x2028(%rbp),%rax
   175bc:	48 89 85 70 ea ff ff 	mov    %rax,-0x1590(%rbp)
   175c3:	48 c7 85 78 ea ff ff 	movq   $0x0,-0x1588(%rbp)
   175ca:	00 00 00 00 
   175ce:	48 8d 85 d8 df ff ff 	lea    -0x2028(%rbp),%rax
   175d5:	48 89 85 80 ea ff ff 	mov    %rax,-0x1580(%rbp)
   175dc:	48 8d 85 d8 df ff ff 	lea    -0x2028(%rbp),%rax
   175e3:	48 89 85 88 ea ff ff 	mov    %rax,-0x1578(%rbp)
   175ea:	48 8d 85 d8 df ff ff 	lea    -0x2028(%rbp),%rax
   175f1:	48 89 85 90 ea ff ff 	mov    %rax,-0x1570(%rbp)
   175f8:	48 8d 85 d8 df ff ff 	lea    -0x2028(%rbp),%rax
   175ff:	48 89 85 98 ea ff ff 	mov    %rax,-0x1568(%rbp)
   17606:	48 8d 85 d8 df ff ff 	lea    -0x2028(%rbp),%rax
   1760d:	48 89 85 a0 ea ff ff 	mov    %rax,-0x1560(%rbp)
   17614:	48 8d 85 d8 df ff ff 	lea    -0x2028(%rbp),%rax
   1761b:	48 89 85 a8 ea ff ff 	mov    %rax,-0x1558(%rbp)
   17622:	48 c7 85 b0 ea ff ff 	movq   $0x0,-0x1550(%rbp)
   17629:	00 00 00 00 
   1762d:	48 c7 85 b8 ea ff ff 	movq   $0x0,-0x1548(%rbp)
   17634:	00 00 00 00 
   17638:	48 8d 85 d8 df ff ff 	lea    -0x2028(%rbp),%rax
   1763f:	48 89 85 c0 ea ff ff 	mov    %rax,-0x1540(%rbp)
   17646:	48 c7 85 c8 ea ff ff 	movq   $0x0,-0x1538(%rbp)
   1764d:	00 00 00 00 
   17651:	48 c7 85 d0 ea ff ff 	movq   $0x0,-0x1530(%rbp)
   17658:	00 00 00 00 
   1765c:	48 c7 85 d8 ea ff ff 	movq   $0x0,-0x1528(%rbp)
   17663:	00 00 00 00 
   17667:	48 c7 85 e0 ea ff ff 	movq   $0x0,-0x1520(%rbp)
   1766e:	00 00 00 00 
   17672:	48 8d 85 d8 df ff ff 	lea    -0x2028(%rbp),%rax
   17679:	48 89 85 e8 ea ff ff 	mov    %rax,-0x1518(%rbp)
   17680:	48 8d 85 d8 df ff ff 	lea    -0x2028(%rbp),%rax
   17687:	48 89 85 f0 ea ff ff 	mov    %rax,-0x1510(%rbp)
   1768e:	48 8d 85 d8 df ff ff 	lea    -0x2028(%rbp),%rax
   17695:	48 89 85 f8 ea ff ff 	mov    %rax,-0x1508(%rbp)
   1769c:	48 c7 85 00 eb ff ff 	movq   $0x0,-0x1500(%rbp)
   176a3:	00 00 00 00 
   176a7:	48 8d 85 d8 df ff ff 	lea    -0x2028(%rbp),%rax
   176ae:	48 89 85 08 eb ff ff 	mov    %rax,-0x14f8(%rbp)
   176b5:	48 8d 85 d8 df ff ff 	lea    -0x2028(%rbp),%rax
   176bc:	48 89 85 10 eb ff ff 	mov    %rax,-0x14f0(%rbp)
   176c3:	48 c7 85 18 eb ff ff 	movq   $0x0,-0x14e8(%rbp)
   176ca:	00 00 00 00 
   176ce:	48 8d 85 d8 df ff ff 	lea    -0x2028(%rbp),%rax
   176d5:	48 89 85 20 eb ff ff 	mov    %rax,-0x14e0(%rbp)
   176dc:	48 c7 85 28 eb ff ff 	movq   $0x0,-0x14d8(%rbp)
   176e3:	00 00 00 00 
   176e7:	48 8d 85 d8 df ff ff 	lea    -0x2028(%rbp),%rax
   176ee:	48 89 85 30 eb ff ff 	mov    %rax,-0x14d0(%rbp)
   176f5:	48 c7 85 38 eb ff ff 	movq   $0x0,-0x14c8(%rbp)
   176fc:	00 00 00 00 
   17700:	48 8d 85 d8 df ff ff 	lea    -0x2028(%rbp),%rax
   17707:	48 89 85 40 eb ff ff 	mov    %rax,-0x14c0(%rbp)
   1770e:	48 8d 85 d8 df ff ff 	lea    -0x2028(%rbp),%rax
   17715:	48 89 85 48 eb ff ff 	mov    %rax,-0x14b8(%rbp)
   1771c:	48 8d 85 d8 df ff ff 	lea    -0x2028(%rbp),%rax
   17723:	48 89 85 50 eb ff ff 	mov    %rax,-0x14b0(%rbp)
   1772a:	48 8d 85 d8 df ff ff 	lea    -0x2028(%rbp),%rax
   17731:	48 89 85 58 eb ff ff 	mov    %rax,-0x14a8(%rbp)
   17738:	48 8d 85 d8 df ff ff 	lea    -0x2028(%rbp),%rax
   1773f:	48 89 85 60 eb ff ff 	mov    %rax,-0x14a0(%rbp)
   17746:	48 8d 85 d8 df ff ff 	lea    -0x2028(%rbp),%rax
   1774d:	48 89 85 68 eb ff ff 	mov    %rax,-0x1498(%rbp)
   17754:	48 c7 85 70 eb ff ff 	movq   $0x0,-0x1490(%rbp)
   1775b:	00 00 00 00 
   1775f:	48 c7 85 78 eb ff ff 	movq   $0x0,-0x1488(%rbp)
   17766:	00 00 00 00 
   1776a:	48 8d 85 d8 df ff ff 	lea    -0x2028(%rbp),%rax
   17771:	48 89 85 80 eb ff ff 	mov    %rax,-0x1480(%rbp)
   17778:	48 c7 85 88 eb ff ff 	movq   $0x0,-0x1478(%rbp)
   1777f:	00 00 00 00 
   17783:	48 c7 85 90 eb ff ff 	movq   $0x0,-0x1470(%rbp)
   1778a:	00 00 00 00 
   1778e:	48 c7 85 98 eb ff ff 	movq   $0x0,-0x1468(%rbp)
   17795:	00 00 00 00 
   17799:	48 c7 85 a0 eb ff ff 	movq   $0x0,-0x1460(%rbp)
   177a0:	00 00 00 00 
   177a4:	48 8d 85 d8 df ff ff 	lea    -0x2028(%rbp),%rax
   177ab:	48 89 85 a8 eb ff ff 	mov    %rax,-0x1458(%rbp)
   177b2:	48 8d 85 d8 df ff ff 	lea    -0x2028(%rbp),%rax
   177b9:	48 89 85 b0 eb ff ff 	mov    %rax,-0x1450(%rbp)
   177c0:	48 8d 85 d8 df ff ff 	lea    -0x2028(%rbp),%rax
   177c7:	48 89 85 b8 eb ff ff 	mov    %rax,-0x1448(%rbp)
   177ce:	48 c7 85 c0 eb ff ff 	movq   $0x0,-0x1440(%rbp)
   177d5:	00 00 00 00 
   177d9:	48 8d 85 d8 df ff ff 	lea    -0x2028(%rbp),%rax
   177e0:	48 89 85 c8 eb ff ff 	mov    %rax,-0x1438(%rbp)
   177e7:	48 8d 85 d8 df ff ff 	lea    -0x2028(%rbp),%rax
   177ee:	48 89 85 d0 eb ff ff 	mov    %rax,-0x1430(%rbp)
   177f5:	48 c7 85 d8 eb ff ff 	movq   $0x0,-0x1428(%rbp)
   177fc:	00 00 00 00 
   17800:	48 8d 85 d8 df ff ff 	lea    -0x2028(%rbp),%rax
   17807:	48 89 85 e0 eb ff ff 	mov    %rax,-0x1420(%rbp)
   1780e:	48 c7 85 e8 eb ff ff 	movq   $0x0,-0x1418(%rbp)
   17815:	00 00 00 00 
   17819:	48 8d 85 d8 df ff ff 	lea    -0x2028(%rbp),%rax
   17820:	48 89 85 f0 eb ff ff 	mov    %rax,-0x1410(%rbp)
   17827:	48 c7 85 f8 eb ff ff 	movq   $0x0,-0x1408(%rbp)
   1782e:	00 00 00 00 
   17832:	48 8d 85 d8 df ff ff 	lea    -0x2028(%rbp),%rax
   17839:	48 89 85 00 ec ff ff 	mov    %rax,-0x1400(%rbp)
   17840:	48 8d 85 d8 df ff ff 	lea    -0x2028(%rbp),%rax
   17847:	48 89 85 08 ec ff ff 	mov    %rax,-0x13f8(%rbp)
   1784e:	48 8d 85 d8 df ff ff 	lea    -0x2028(%rbp),%rax
   17855:	48 89 85 10 ec ff ff 	mov    %rax,-0x13f0(%rbp)
   1785c:	48 8d 85 90 e9 ff ff 	lea    -0x1670(%rbp),%rax
   17863:	48 05 c0 01 00 00    	add    $0x1c0,%rax
   17869:	48 89 85 28 e0 ff ff 	mov    %rax,-0x1fd8(%rbp)
   17870:	66 c7 85 00 df ff ff 	movw   $0x4,-0x2100(%rbp)
   17877:	04 00 
   17879:	c7 85 14 df ff ff 09 	movl   $0x9,-0x20ec(%rbp)
   17880:	00 00 00 
   17883:	c7 85 18 df ff ff 65 	movl   $0xa0dc9665,-0x20e8(%rbp)
   1788a:	96 dc a0 
   1788d:	c7 85 1c df ff ff 00 	movl   $0x0,-0x20e4(%rbp)
   17894:	00 00 00 
   17897:	66 c7 85 02 df ff ff 	movw   $0x2d6b,-0x20fe(%rbp)
   1789e:	6b 2d 
   178a0:	c7 85 64 df ff ff ff 	movl   $0xffffffff,-0x209c(%rbp)
   178a7:	ff ff ff 
   178aa:	c7 85 68 df ff ff 5e 	movl   $0xb7a8f95e,-0x2098(%rbp)
   178b1:	f9 a8 b7 
   178b4:	c6 85 fb de ff ff b7 	movb   $0xb7,-0x2105(%rbp)
   178bb:	48 c7 85 30 e0 ff ff 	movq   $0x0,-0x1fd0(%rbp)
   178c2:	00 00 00 00 
   178c6:	48 c7 85 e0 df ff ff 	movq   $0x0,-0x2020(%rbp)
   178cd:	00 00 00 00 
   178d1:	48 8d 05 70 e0 00 00 	lea    0xe070(%rip),%rax        # 25948 <g_692>
   178d8:	48 89 85 e8 df ff ff 	mov    %rax,-0x2018(%rbp)
   178df:	c7 85 60 e2 ff ff 75 	movl   $0x5f44e275,-0x1da0(%rbp)
   178e6:	e2 44 5f 
   178e9:	c7 85 64 e2 ff ff 03 	movl   $0x3,-0x1d9c(%rbp)
   178f0:	00 00 00 
   178f3:	c7 85 68 e2 ff ff 03 	movl   $0x3,-0x1d98(%rbp)
   178fa:	00 00 00 
   178fd:	c7 85 6c e2 ff ff 75 	movl   $0x5f44e275,-0x1d94(%rbp)
   17904:	e2 44 5f 
   17907:	c7 85 70 e2 ff ff 03 	movl   $0x3,-0x1d90(%rbp)
   1790e:	00 00 00 
   17911:	c7 85 74 e2 ff ff 03 	movl   $0x3,-0x1d8c(%rbp)
   17918:	00 00 00 
   1791b:	c7 85 78 e2 ff ff 75 	movl   $0x5f44e275,-0x1d88(%rbp)
   17922:	e2 44 5f 
   17925:	c7 85 7c e2 ff ff 03 	movl   $0x3,-0x1d84(%rbp)
   1792c:	00 00 00 
   1792f:	c7 85 80 e2 ff ff 03 	movl   $0x3,-0x1d80(%rbp)
   17936:	00 00 00 
   17939:	c6 85 f9 de ff ff 00 	movb   $0x0,-0x2107(%rbp)
   17940:	48 8d 05 ad b9 00 00 	lea    0xb9ad(%rip),%rax        # 232f4 <g_310+0x294>
   17947:	48 89 85 38 e0 ff ff 	mov    %rax,-0x1fc8(%rbp)
   1794e:	48 8d 05 fb b6 00 00 	lea    0xb6fb(%rip),%rax        # 23050 <g_188>
   17955:	48 89 85 40 e0 ff ff 	mov    %rax,-0x1fc0(%rbp)
   1795c:	c7 85 30 df ff ff 00 	movl   $0x0,-0x20d0(%rbp)
   17963:	00 00 00 
   17966:	eb 1a                	jmp    17982 <func_61+0x5f4>
   17968:	8b 85 30 df ff ff    	mov    -0x20d0(%rbp),%eax
   1796e:	48 98                	cltq   
   17970:	c7 84 85 5c e2 ff ff 	movl   $0x1,-0x1da4(%rbp,%rax,4)
   17977:	01 00 00 00 
   1797b:	83 85 30 df ff ff 01 	addl   $0x1,-0x20d0(%rbp)
   17982:	83 bd 30 df ff ff 00 	cmpl   $0x0,-0x20d0(%rbp)
   17989:	7e dd                	jle    17968 <func_61+0x5da>
   1798b:	66 c7 85 e4 de ff ff 	movw   $0x0,-0x211c(%rbp)
   17992:	00 00 
   17994:	e9 f3 22 00 00       	jmpq   19c8c <func_61+0x28fe>
   17999:	48 8d 05 28 04 01 00 	lea    0x10428(%rip),%rax        # 27dc8 <g_74>
   179a0:	48 89 85 28 e1 ff ff 	mov    %rax,-0x1ed8(%rbp)
   179a7:	c7 85 24 df ff ff fb 	movl   $0xfffffffb,-0x20dc(%rbp)
   179ae:	ff ff ff 
   179b1:	c7 85 a4 df ff ff c4 	movl   $0x550cb7c4,-0x205c(%rbp)
   179b8:	b7 0c 55 
   179bb:	48 8d 05 1e df 00 00 	lea    0xdf1e(%rip),%rax        # 258e0 <g_196>
   179c2:	48 89 85 30 e1 ff ff 	mov    %rax,-0x1ed0(%rbp)
   179c9:	48 b8 ee 08 08 ee 08 	movabs $0x8ee0808ee0808ee,%rax
   179d0:	08 ee 08 
   179d3:	48 89 85 d0 e3 ff ff 	mov    %rax,-0x1c30(%rbp)
   179da:	66 c7 85 d8 e3 ff ff 	movw   $0xee08,-0x1c28(%rbp)
   179e1:	08 ee 
   179e3:	48 b8 08 ee 08 08 ee 	movabs $0xee0808ee0808ee08,%rax
   179ea:	08 08 ee 
   179ed:	48 89 85 da e3 ff ff 	mov    %rax,-0x1c26(%rbp)
   179f4:	66 c7 85 e2 e3 ff ff 	movw   $0x808,-0x1c1e(%rbp)
   179fb:	08 08 
   179fd:	48 b8 ee ee 49 ee 08 	movabs $0x808ee08ee49eeee,%rax
   17a04:	ee 08 08 
   17a07:	48 89 85 e4 e3 ff ff 	mov    %rax,-0x1c1c(%rbp)
   17a0e:	66 c7 85 ec e3 ff ff 	movw   $0x8ee,-0x1c14(%rbp)
   17a15:	ee 08 
   17a17:	48 b8 08 49 49 08 49 	movabs $0x4908494908494908,%rax
   17a1e:	49 08 49 
   17a21:	48 89 85 ee e3 ff ff 	mov    %rax,-0x1c12(%rbp)
   17a28:	66 c7 85 f6 e3 ff ff 	movw   $0x849,-0x1c0a(%rbp)
   17a2f:	49 08 
   17a31:	48 bb 49 08 49 49 08 	movabs $0x849490849490849,%rbx
   17a38:	49 49 08 
   17a3b:	48 89 9d f8 e3 ff ff 	mov    %rbx,-0x1c08(%rbp)
   17a42:	66 c7 85 00 e4 ff ff 	movw   $0x4949,-0x1c00(%rbp)
   17a49:	49 49 
   17a4b:	48 b9 08 08 ee 08 08 	movabs $0x808ee0808ee0808,%rcx
   17a52:	ee 08 08 
   17a55:	48 89 8d 02 e4 ff ff 	mov    %rcx,-0x1bfe(%rbp)
   17a5c:	66 c7 85 0a e4 ff ff 	movw   $0x8ee,-0x1bf6(%rbp)
   17a63:	ee 08 
   17a65:	48 89 85 0c e4 ff ff 	mov    %rax,-0x1bf4(%rbp)
   17a6c:	66 c7 85 14 e4 ff ff 	movw   $0x849,-0x1bec(%rbp)
   17a73:	49 08 
   17a75:	48 89 9d 16 e4 ff ff 	mov    %rbx,-0x1bea(%rbp)
   17a7c:	66 c7 85 1e e4 ff ff 	movw   $0x4949,-0x1be2(%rbp)
   17a83:	49 49 
   17a85:	48 89 8d 20 e4 ff ff 	mov    %rcx,-0x1be0(%rbp)
   17a8c:	66 c7 85 28 e4 ff ff 	movw   $0x8ee,-0x1bd8(%rbp)
   17a93:	ee 08 
   17a95:	48 8d 85 d8 df ff ff 	lea    -0x2028(%rbp),%rax
   17a9c:	48 89 85 38 e1 ff ff 	mov    %rax,-0x1ec8(%rbp)
   17aa3:	48 c7 85 40 e1 ff ff 	movq   $0x0,-0x1ec0(%rbp)
   17aaa:	00 00 00 00 
   17aae:	c7 85 60 e7 ff ff c0 	movl   $0x5c692ec0,-0x18a0(%rbp)
   17ab5:	2e 69 5c 
   17ab8:	c7 85 64 e7 ff ff fe 	movl   $0xfffffffe,-0x189c(%rbp)
   17abf:	ff ff ff 
   17ac2:	c7 85 68 e7 ff ff fe 	movl   $0xfffffffe,-0x1898(%rbp)
   17ac9:	ff ff ff 
   17acc:	c7 85 6c e7 ff ff c0 	movl   $0x5c692ec0,-0x1894(%rbp)
   17ad3:	2e 69 5c 
   17ad6:	c7 85 70 e7 ff ff 88 	movl   $0x37db4c88,-0x1890(%rbp)
   17add:	4c db 37 
   17ae0:	c7 85 74 e7 ff ff ff 	movl   $0xffffffff,-0x188c(%rbp)
   17ae7:	ff ff ff 
   17aea:	c7 85 78 e7 ff ff 88 	movl   $0x37db4c88,-0x1888(%rbp)
   17af1:	4c db 37 
   17af4:	c7 85 7c e7 ff ff c0 	movl   $0x5c692ec0,-0x1884(%rbp)
   17afb:	2e 69 5c 
   17afe:	c7 85 80 e7 ff ff fe 	movl   $0xfffffffe,-0x1880(%rbp)
   17b05:	ff ff ff 
   17b08:	c7 85 84 e7 ff ff 88 	movl   $0x37db4c88,-0x187c(%rbp)
   17b0f:	4c db 37 
   17b12:	c7 85 88 e7 ff ff fe 	movl   $0xfffffffe,-0x1878(%rbp)
   17b19:	ff ff ff 
   17b1c:	c7 85 8c e7 ff ff 39 	movl   $0x7e0a0739,-0x1874(%rbp)
   17b23:	07 0a 7e 
   17b26:	c7 85 90 e7 ff ff 01 	movl   $0x1,-0x1870(%rbp)
   17b2d:	00 00 00 
   17b30:	c7 85 94 e7 ff ff 01 	movl   $0x1,-0x186c(%rbp)
   17b37:	00 00 00 
   17b3a:	c7 85 98 e7 ff ff 39 	movl   $0x7e0a0739,-0x1868(%rbp)
   17b41:	07 0a 7e 
   17b44:	c7 85 9c e7 ff ff fe 	movl   $0xfffffffe,-0x1864(%rbp)
   17b4b:	ff ff ff 
   17b4e:	c7 85 a0 e7 ff ff 88 	movl   $0x37db4c88,-0x1860(%rbp)
   17b55:	4c db 37 
   17b58:	c7 85 a4 e7 ff ff 88 	movl   $0x37db4c88,-0x185c(%rbp)
   17b5f:	4c db 37 
   17b62:	c7 85 a8 e7 ff ff 01 	movl   $0x1,-0x1858(%rbp)
   17b69:	00 00 00 
   17b6c:	c7 85 ac e7 ff ff ff 	movl   $0xffffffff,-0x1854(%rbp)
   17b73:	ff ff ff 
   17b76:	c7 85 b0 e7 ff ff fc 	movl   $0xfffffffc,-0x1850(%rbp)
   17b7d:	ff ff ff 
   17b80:	c7 85 b4 e7 ff ff ff 	movl   $0xffffffff,-0x184c(%rbp)
   17b87:	ff ff ff 
   17b8a:	c7 85 b8 e7 ff ff 01 	movl   $0x1,-0x1848(%rbp)
   17b91:	00 00 00 
   17b94:	c7 85 bc e7 ff ff 88 	movl   $0x37db4c88,-0x1844(%rbp)
   17b9b:	4c db 37 
   17b9e:	c7 85 c0 e7 ff ff 88 	movl   $0x37db4c88,-0x1840(%rbp)
   17ba5:	4c db 37 
   17ba8:	c7 85 c4 e7 ff ff fe 	movl   $0xfffffffe,-0x183c(%rbp)
   17baf:	ff ff ff 
   17bb2:	c7 85 c8 e7 ff ff 39 	movl   $0x7e0a0739,-0x1838(%rbp)
   17bb9:	07 0a 7e 
   17bbc:	c7 85 cc e7 ff ff 01 	movl   $0x1,-0x1834(%rbp)
   17bc3:	00 00 00 
   17bc6:	c7 85 d0 e7 ff ff 01 	movl   $0x1,-0x1830(%rbp)
   17bcd:	00 00 00 
   17bd0:	c7 85 d4 e7 ff ff 39 	movl   $0x7e0a0739,-0x182c(%rbp)
   17bd7:	07 0a 7e 
   17bda:	c7 85 d8 e7 ff ff fe 	movl   $0xfffffffe,-0x1828(%rbp)
   17be1:	ff ff ff 
   17be4:	c7 85 dc e7 ff ff 88 	movl   $0x37db4c88,-0x1824(%rbp)
   17beb:	4c db 37 
   17bee:	c7 85 e0 e7 ff ff fe 	movl   $0xfffffffe,-0x1820(%rbp)
   17bf5:	ff ff ff 
   17bf8:	c7 85 e4 e7 ff ff c0 	movl   $0x5c692ec0,-0x181c(%rbp)
   17bff:	2e 69 5c 
   17c02:	c7 85 e8 e7 ff ff 88 	movl   $0x37db4c88,-0x1818(%rbp)
   17c09:	4c db 37 
   17c0c:	c7 85 ec e7 ff ff ff 	movl   $0xffffffff,-0x1814(%rbp)
   17c13:	ff ff ff 
   17c16:	c7 85 f0 e7 ff ff 88 	movl   $0x37db4c88,-0x1810(%rbp)
   17c1d:	4c db 37 
   17c20:	c7 85 f4 e7 ff ff c0 	movl   $0x5c692ec0,-0x180c(%rbp)
   17c27:	2e 69 5c 
   17c2a:	c7 85 f8 e7 ff ff fe 	movl   $0xfffffffe,-0x1808(%rbp)
   17c31:	ff ff ff 
   17c34:	c7 85 fc e7 ff ff fe 	movl   $0xfffffffe,-0x1804(%rbp)
   17c3b:	ff ff ff 
   17c3e:	c7 85 00 e8 ff ff c0 	movl   $0x5c692ec0,-0x1800(%rbp)
   17c45:	2e 69 5c 
   17c48:	c7 85 04 e8 ff ff ff 	movl   $0xffffffff,-0x17fc(%rbp)
   17c4f:	ff ff ff 
   17c52:	c7 85 08 e8 ff ff 39 	movl   $0x7e0a0739,-0x17f8(%rbp)
   17c59:	07 0a 7e 
   17c5c:	c7 85 0c e8 ff ff 39 	movl   $0x7e0a0739,-0x17f4(%rbp)
   17c63:	07 0a 7e 
   17c66:	c7 85 10 e8 ff ff ff 	movl   $0xffffffff,-0x17f0(%rbp)
   17c6d:	ff ff ff 
   17c70:	c7 85 14 e8 ff ff c0 	movl   $0x5c692ec0,-0x17ec(%rbp)
   17c77:	2e 69 5c 
   17c7a:	c7 85 18 e8 ff ff 01 	movl   $0x1,-0x17e8(%rbp)
   17c81:	00 00 00 
   17c84:	c7 85 1c e8 ff ff c0 	movl   $0x5c692ec0,-0x17e4(%rbp)
   17c8b:	2e 69 5c 
   17c8e:	c7 85 20 e8 ff ff ff 	movl   $0xffffffff,-0x17e0(%rbp)
   17c95:	ff ff ff 
   17c98:	c7 85 24 e8 ff ff c0 	movl   $0x5c692ec0,-0x17dc(%rbp)
   17c9f:	2e 69 5c 
   17ca2:	c7 85 28 e8 ff ff 01 	movl   $0x1,-0x17d8(%rbp)
   17ca9:	00 00 00 
   17cac:	c7 85 2c e8 ff ff c0 	movl   $0x5c692ec0,-0x17d4(%rbp)
   17cb3:	2e 69 5c 
   17cb6:	c7 85 30 e8 ff ff ff 	movl   $0xffffffff,-0x17d0(%rbp)
   17cbd:	ff ff ff 
   17cc0:	c7 85 34 e8 ff ff 39 	movl   $0x7e0a0739,-0x17cc(%rbp)
   17cc7:	07 0a 7e 
   17cca:	c7 85 38 e8 ff ff 39 	movl   $0x7e0a0739,-0x17c8(%rbp)
   17cd1:	07 0a 7e 
   17cd4:	c7 85 3c e8 ff ff ff 	movl   $0xffffffff,-0x17c4(%rbp)
   17cdb:	ff ff ff 
   17cde:	c7 85 34 df ff ff 00 	movl   $0x0,-0x20cc(%rbp)
   17ce5:	00 00 00 
   17ce8:	eb 1a                	jmp    17d04 <func_61+0x976>
   17cea:	8b 85 34 df ff ff    	mov    -0x20cc(%rbp),%eax
   17cf0:	48 98                	cltq   
   17cf2:	c7 84 85 30 e3 ff ff 	movl   $0x2,-0x1cd0(%rbp,%rax,4)
   17cf9:	02 00 00 00 
   17cfd:	83 85 34 df ff ff 01 	addl   $0x1,-0x20cc(%rbp)
   17d04:	83 bd 34 df ff ff 01 	cmpl   $0x1,-0x20cc(%rbp)
   17d0b:	7e dd                	jle    17cea <func_61+0x95c>
   17d0d:	8b 85 10 df ff ff    	mov    -0x20f0(%rbp),%eax
   17d13:	83 e8 01             	sub    $0x1,%eax
   17d16:	89 85 10 df ff ff    	mov    %eax,-0x20f0(%rbp)
   17d1c:	8b 05 06 b3 00 00    	mov    0xb306(%rip),%eax        # 23028 <g_5>
   17d22:	0f b7 d8             	movzwl %ax,%ebx
   17d25:	48 8b 85 18 e0 ff ff 	mov    -0x1fe8(%rbp),%rax
   17d2c:	48 8b 00             	mov    (%rax),%rax
   17d2f:	48 8b 00             	mov    (%rax),%rax
   17d32:	8b 00                	mov    (%rax),%eax
   17d34:	41 89 c6             	mov    %eax,%r14d
   17d37:	0f b7 05 f4 b2 00 00 	movzwl 0xb2f4(%rip),%eax        # 23032 <g_6+0x2>
   17d3e:	44 0f bf e0          	movswl %ax,%r12d
   17d42:	8b 85 24 df ff ff    	mov    -0x20dc(%rbp),%eax
   17d48:	44 0f b7 e8          	movzwl %ax,%r13d
   17d4c:	8b 05 d2 b2 00 00    	mov    0xb2d2(%rip),%eax        # 23024 <g_3>
   17d52:	0f b7 c0             	movzwl %ax,%eax
   17d55:	48 83 bd 18 e0 ff ff 	cmpq   $0x0,-0x1fe8(%rbp)
   17d5c:	00 
   17d5d:	89 c6                	mov    %eax,%esi
   17d5f:	bf a7 77 00 00       	mov    $0x77a7,%edi
   17d64:	e8 96 3f ff ff       	callq  bcff <safe_add_func_uint16_t_u_u>
   17d69:	66 3d f2 fd          	cmp    $0xfdf2,%ax
   17d6d:	0f 96 c0             	setbe  %al
   17d70:	0f b6 c0             	movzbl %al,%eax
   17d73:	44 89 ee             	mov    %r13d,%esi
   17d76:	89 c7                	mov    %eax,%edi
   17d78:	e8 c0 3f ff ff       	callq  bd3d <safe_mul_func_uint16_t_u_u>
   17d7d:	48 8b 05 04 db 00 00 	mov    0xdb04(%rip),%rax        # 25888 <g_87>
   17d84:	0f b7 85 e0 de ff ff 	movzwl -0x2120(%rbp),%eax
   17d8b:	83 f0 01             	xor    $0x1,%eax
   17d8e:	89 c2                	mov    %eax,%edx
   17d90:	8b 85 e8 de ff ff    	mov    -0x2118(%rbp),%eax
   17d96:	31 d0                	xor    %edx,%eax
   17d98:	98                   	cwtl   
   17d99:	44 89 e6             	mov    %r12d,%esi
   17d9c:	89 c7                	mov    %eax,%edi
   17d9e:	e8 30 36 ff ff       	callq  b3d3 <safe_sub_func_int16_t_s_s>
   17da3:	0f bf d0             	movswl %ax,%edx
   17da6:	0f b7 05 85 b2 00 00 	movzwl 0xb285(%rip),%eax        # 23032 <g_6+0x2>
   17dad:	0f b7 c0             	movzwl %ax,%eax
   17db0:	21 c2                	and    %eax,%edx
   17db2:	0f bf 85 e4 de ff ff 	movswl -0x211c(%rbp),%eax
   17db9:	39 c2                	cmp    %eax,%edx
   17dbb:	0f 9c c0             	setl   %al
   17dbe:	0f b6 c0             	movzbl %al,%eax
   17dc1:	44 89 f6             	mov    %r14d,%esi
   17dc4:	89 c7                	mov    %eax,%edi
   17dc6:	e8 81 3e ff ff       	callq  bc4c <safe_lshift_func_uint8_t_u_u>
   17dcb:	be 0d 00 00 00       	mov    $0xd,%esi
   17dd0:	bf 01 00 00 00       	mov    $0x1,%edi
   17dd5:	e8 b8 36 ff ff       	callq  b492 <safe_lshift_func_int16_t_s_s>
   17dda:	f7 d0                	not    %eax
   17ddc:	89 c2                	mov    %eax,%edx
   17dde:	0f b7 85 e0 de ff ff 	movzwl -0x2120(%rbp),%eax
   17de5:	31 d0                	xor    %edx,%eax
   17de7:	0f b6 c0             	movzbl %al,%eax
   17dea:	be 06 00 00 00       	mov    $0x6,%esi
   17def:	89 c7                	mov    %eax,%edi
   17df1:	e8 56 3e ff ff       	callq  bc4c <safe_lshift_func_uint8_t_u_u>
   17df6:	0f b6 c0             	movzbl %al,%eax
   17df9:	89 de                	mov    %ebx,%esi
   17dfb:	89 c7                	mov    %eax,%edi
   17dfd:	e8 3b 3f ff ff       	callq  bd3d <safe_mul_func_uint16_t_u_u>
   17e02:	0f bf d0             	movswl %ax,%edx
   17e05:	48 8b 0d bc ff 00 00 	mov    0xffbc(%rip),%rcx        # 27dc8 <g_74>
   17e0c:	48 8b 85 28 e1 ff ff 	mov    -0x1ed8(%rbp),%rax
   17e13:	48 89 08             	mov    %rcx,(%rax)
   17e16:	48 8b 85 28 e1 ff ff 	mov    -0x1ed8(%rbp),%rax
   17e1d:	48 8b 00             	mov    (%rax),%rax
   17e20:	48 85 c0             	test   %rax,%rax
   17e23:	0f 94 c0             	sete   %al
   17e26:	0f b6 c0             	movzbl %al,%eax
   17e29:	89 d6                	mov    %edx,%esi
   17e2b:	89 c7                	mov    %eax,%edi
   17e2d:	e8 c3 35 ff ff       	callq  b3f5 <safe_mul_func_int16_t_s_s>
   17e32:	66 85 c0             	test   %ax,%ax
   17e35:	0f 84 2f 03 00 00    	je     1816a <func_61+0xddc>
   17e3b:	c6 85 fd de ff ff 17 	movb   $0x17,-0x2103(%rbp)
   17e42:	48 8d 05 e9 b1 00 00 	lea    0xb1e9(%rip),%rax        # 23032 <g_6+0x2>
   17e49:	48 89 85 d0 f2 ff ff 	mov    %rax,-0xd30(%rbp)
   17e50:	48 8d 05 db b1 00 00 	lea    0xb1db(%rip),%rax        # 23032 <g_6+0x2>
   17e57:	48 89 85 d8 f2 ff ff 	mov    %rax,-0xd28(%rbp)
   17e5e:	48 c7 85 e0 f2 ff ff 	movq   $0x0,-0xd20(%rbp)
   17e65:	00 00 00 00 
   17e69:	48 8d 05 c2 b1 00 00 	lea    0xb1c2(%rip),%rax        # 23032 <g_6+0x2>
   17e70:	48 89 85 e8 f2 ff ff 	mov    %rax,-0xd18(%rbp)
   17e77:	48 8d 05 b4 b1 00 00 	lea    0xb1b4(%rip),%rax        # 23032 <g_6+0x2>
   17e7e:	48 89 85 f0 f2 ff ff 	mov    %rax,-0xd10(%rbp)
   17e85:	48 c7 85 f8 f2 ff ff 	movq   $0x0,-0xd08(%rbp)
   17e8c:	00 00 00 00 
   17e90:	48 8d 05 9b b1 00 00 	lea    0xb19b(%rip),%rax        # 23032 <g_6+0x2>
   17e97:	48 89 85 00 f3 ff ff 	mov    %rax,-0xd00(%rbp)
   17e9e:	48 8d 05 8d b1 00 00 	lea    0xb18d(%rip),%rax        # 23032 <g_6+0x2>
   17ea5:	48 89 85 08 f3 ff ff 	mov    %rax,-0xcf8(%rbp)
   17eac:	48 c7 85 10 f3 ff ff 	movq   $0x0,-0xcf0(%rbp)
   17eb3:	00 00 00 00 
   17eb7:	48 8d 05 74 b1 00 00 	lea    0xb174(%rip),%rax        # 23032 <g_6+0x2>
   17ebe:	48 89 85 18 f3 ff ff 	mov    %rax,-0xce8(%rbp)
   17ec5:	48 8d 05 66 b1 00 00 	lea    0xb166(%rip),%rax        # 23032 <g_6+0x2>
   17ecc:	48 89 85 20 f3 ff ff 	mov    %rax,-0xce0(%rbp)
   17ed3:	48 c7 85 28 f3 ff ff 	movq   $0x0,-0xcd8(%rbp)
   17eda:	00 00 00 00 
   17ede:	48 8d 05 4d b1 00 00 	lea    0xb14d(%rip),%rax        # 23032 <g_6+0x2>
   17ee5:	48 89 85 30 f3 ff ff 	mov    %rax,-0xcd0(%rbp)
   17eec:	48 8d 05 3f b1 00 00 	lea    0xb13f(%rip),%rax        # 23032 <g_6+0x2>
   17ef3:	48 89 85 38 f3 ff ff 	mov    %rax,-0xcc8(%rbp)
   17efa:	48 c7 85 40 f3 ff ff 	movq   $0x0,-0xcc0(%rbp)
   17f01:	00 00 00 00 
   17f05:	48 8d 05 26 b1 00 00 	lea    0xb126(%rip),%rax        # 23032 <g_6+0x2>
   17f0c:	48 89 85 48 f3 ff ff 	mov    %rax,-0xcb8(%rbp)
   17f13:	48 8d 05 18 b1 00 00 	lea    0xb118(%rip),%rax        # 23032 <g_6+0x2>
   17f1a:	48 89 85 50 f3 ff ff 	mov    %rax,-0xcb0(%rbp)
   17f21:	48 c7 85 58 f3 ff ff 	movq   $0x0,-0xca8(%rbp)
   17f28:	00 00 00 00 
   17f2c:	48 8d 05 ff b0 00 00 	lea    0xb0ff(%rip),%rax        # 23032 <g_6+0x2>
   17f33:	48 89 85 60 f3 ff ff 	mov    %rax,-0xca0(%rbp)
   17f3a:	48 8d 05 f1 b0 00 00 	lea    0xb0f1(%rip),%rax        # 23032 <g_6+0x2>
   17f41:	48 89 85 68 f3 ff ff 	mov    %rax,-0xc98(%rbp)
   17f48:	48 c7 85 70 f3 ff ff 	movq   $0x0,-0xc90(%rbp)
   17f4f:	00 00 00 00 
   17f53:	48 8d 05 d8 b0 00 00 	lea    0xb0d8(%rip),%rax        # 23032 <g_6+0x2>
   17f5a:	48 89 85 78 f3 ff ff 	mov    %rax,-0xc88(%rbp)
   17f61:	48 8d 05 ca b0 00 00 	lea    0xb0ca(%rip),%rax        # 23032 <g_6+0x2>
   17f68:	48 89 85 80 f3 ff ff 	mov    %rax,-0xc80(%rbp)
   17f6f:	48 c7 85 88 f3 ff ff 	movq   $0x0,-0xc78(%rbp)
   17f76:	00 00 00 00 
   17f7a:	c7 85 a8 df ff ff 3c 	movl   $0x7b71623c,-0x2058(%rbp)
   17f81:	62 71 7b 
   17f84:	c6 85 fe de ff ff ff 	movb   $0xff,-0x2102(%rbp)
   17f8b:	66 c7 85 0a df ff ff 	movw   $0xffff,-0x20f6(%rbp)
   17f92:	ff ff 
   17f94:	c7 85 ec de ff ff 00 	movl   $0x0,-0x2114(%rbp)
   17f9b:	00 00 00 
   17f9e:	e9 b8 01 00 00       	jmpq   1815b <func_61+0xdcd>
   17fa3:	48 8d 85 24 df ff ff 	lea    -0x20dc(%rbp),%rax
   17faa:	48 89 85 70 ef ff ff 	mov    %rax,-0x1090(%rbp)
   17fb1:	48 8d 85 24 df ff ff 	lea    -0x20dc(%rbp),%rax
   17fb8:	48 89 85 78 ef ff ff 	mov    %rax,-0x1088(%rbp)
   17fbf:	48 8d 85 24 df ff ff 	lea    -0x20dc(%rbp),%rax
   17fc6:	48 89 85 80 ef ff ff 	mov    %rax,-0x1080(%rbp)
   17fcd:	48 8d 85 24 df ff ff 	lea    -0x20dc(%rbp),%rax
   17fd4:	48 89 85 88 ef ff ff 	mov    %rax,-0x1078(%rbp)
   17fdb:	48 8d 85 24 df ff ff 	lea    -0x20dc(%rbp),%rax
   17fe2:	48 89 85 90 ef ff ff 	mov    %rax,-0x1070(%rbp)
   17fe9:	48 8d 85 24 df ff ff 	lea    -0x20dc(%rbp),%rax
   17ff0:	48 89 85 98 ef ff ff 	mov    %rax,-0x1068(%rbp)
   17ff7:	48 8d 85 24 df ff ff 	lea    -0x20dc(%rbp),%rax
   17ffe:	48 89 85 a0 ef ff ff 	mov    %rax,-0x1060(%rbp)
   18005:	48 8d 85 24 df ff ff 	lea    -0x20dc(%rbp),%rax
   1800c:	48 89 85 a8 ef ff ff 	mov    %rax,-0x1058(%rbp)
   18013:	48 8d 85 24 df ff ff 	lea    -0x20dc(%rbp),%rax
   1801a:	48 89 85 50 e1 ff ff 	mov    %rax,-0x1eb0(%rbp)
   18021:	48 8d 05 58 d8 00 00 	lea    0xd858(%rip),%rax        # 25880 <g_88>
   18028:	48 89 85 58 e1 ff ff 	mov    %rax,-0x1ea8(%rbp)
   1802f:	48 8d 85 c8 df ff ff 	lea    -0x2038(%rbp),%rax
   18036:	48 89 85 60 e1 ff ff 	mov    %rax,-0x1ea0(%rbp)
   1803d:	48 8d 05 ee af 00 00 	lea    0xafee(%rip),%rax        # 23032 <g_6+0x2>
   18044:	48 89 85 68 e1 ff ff 	mov    %rax,-0x1e98(%rbp)
   1804b:	48 c7 85 70 e1 ff ff 	movq   $0x0,-0x1e90(%rbp)
   18052:	00 00 00 00 
   18056:	48 8d 85 d0 f7 ff ff 	lea    -0x830(%rbp),%rax
   1805d:	48 8d 15 9c c7 00 00 	lea    0xc79c(%rip),%rdx        # 24800 <g_4429+0xed4>
   18064:	b9 e0 00 00 00       	mov    $0xe0,%ecx
   18069:	48 89 c7             	mov    %rax,%rdi
   1806c:	48 89 d6             	mov    %rdx,%rsi
   1806f:	f3 48 a5             	rep movsq %ds:(%rsi),%es:(%rdi)
   18072:	c7 85 20 ec ff ff 82 	movl   $0xba3b5982,-0x13e0(%rbp)
   18079:	59 3b ba 
   1807c:	c7 85 24 ec ff ff 82 	movl   $0xba3b5982,-0x13dc(%rbp)
   18083:	59 3b ba 
   18086:	c7 85 28 ec ff ff 82 	movl   $0xba3b5982,-0x13d8(%rbp)
   1808d:	59 3b ba 
   18090:	c7 85 2c ec ff ff 82 	movl   $0xba3b5982,-0x13d4(%rbp)
   18097:	59 3b ba 
   1809a:	c7 85 30 ec ff ff 82 	movl   $0xba3b5982,-0x13d0(%rbp)
   180a1:	59 3b ba 
   180a4:	c7 85 34 ec ff ff 82 	movl   $0xba3b5982,-0x13cc(%rbp)
   180ab:	59 3b ba 
   180ae:	c7 85 38 ec ff ff 82 	movl   $0xba3b5982,-0x13c8(%rbp)
   180b5:	59 3b ba 
   180b8:	c7 85 3c ec ff ff 82 	movl   $0xba3b5982,-0x13c4(%rbp)
   180bf:	59 3b ba 
   180c2:	66 c7 85 0c df ff ff 	movw   $0xa422,-0x20f4(%rbp)
   180c9:	22 a4 
   180cb:	48 c7 85 78 e1 ff ff 	movq   $0xfffffffffffffff9,-0x1e88(%rbp)
   180d2:	f9 ff ff ff 
   180d6:	c7 85 28 df ff ff 00 	movl   $0x0,-0x20d8(%rbp)
   180dd:	00 00 00 
   180e0:	eb 22                	jmp    18104 <func_61+0xd76>
   180e2:	8b 85 28 df ff ff    	mov    -0x20d8(%rbp),%eax
   180e8:	48 98                	cltq   
   180ea:	48 8d 95 70 ef ff ff 	lea    -0x1090(%rbp),%rdx
   180f1:	48 83 c2 30          	add    $0x30,%rdx
   180f5:	48 89 94 c5 80 e5 ff 	mov    %rdx,-0x1a80(%rbp,%rax,8)
   180fc:	ff 
   180fd:	83 85 28 df ff ff 01 	addl   $0x1,-0x20d8(%rbp)
   18104:	83 bd 28 df ff ff 02 	cmpl   $0x2,-0x20d8(%rbp)
   1810b:	7e d5                	jle    180e2 <func_61+0xd54>
   1810d:	48 8b 05 6c d7 00 00 	mov    0xd76c(%rip),%rax        # 25880 <g_88>
   18114:	8b 00                	mov    (%rax),%eax
   18116:	85 c0                	test   %eax,%eax
   18118:	0f 85 82 00 00 00    	jne    181a0 <func_61+0xe12>
   1811e:	0f b7 05 0d af 00 00 	movzwl 0xaf0d(%rip),%eax        # 23032 <g_6+0x2>
   18125:	0f b6 c0             	movzbl %al,%eax
   18128:	89 c6                	mov    %eax,%esi
   1812a:	bf 00 00 00 00       	mov    $0x0,%edi
   1812f:	e8 5f 3a ff ff       	callq  bb93 <safe_mul_func_uint8_t_u_u>
   18134:	48 8d 85 e8 de ff ff 	lea    -0x2118(%rbp),%rax
   1813b:	48 89 05 4e d7 00 00 	mov    %rax,0xd74e(%rip)        # 25890 <g_105>
   18142:	8b 85 ec de ff ff    	mov    -0x2114(%rbp),%eax
   18148:	be 09 00 00 00       	mov    $0x9,%esi
   1814d:	48 89 c7             	mov    %rax,%rdi
   18150:	e8 ec 36 ff ff       	callq  b841 <safe_add_func_int64_t_s_s>
   18155:	89 85 ec de ff ff    	mov    %eax,-0x2114(%rbp)
   1815b:	83 bd ec de ff ff 21 	cmpl   $0x21,-0x2114(%rbp)
   18162:	0f 86 3b fe ff ff    	jbe    17fa3 <func_61+0xc15>
   18168:	eb 37                	jmp    181a1 <func_61+0xe13>
   1816a:	48 8d 05 1f d7 00 00 	lea    0xd71f(%rip),%rax        # 25890 <g_105>
   18171:	48 89 85 48 e1 ff ff 	mov    %rax,-0x1eb8(%rbp)
   18178:	48 8b 85 48 e1 ff ff 	mov    -0x1eb8(%rbp),%rax
   1817f:	48 8d 95 e8 de ff ff 	lea    -0x2118(%rbp),%rdx
   18186:	48 89 10             	mov    %rdx,(%rax)
   18189:	48 8b 05 f8 d6 00 00 	mov    0xd6f8(%rip),%rax        # 25888 <g_87>
   18190:	48 8b 10             	mov    (%rax),%rdx
   18193:	48 8b 05 56 d7 00 00 	mov    0xd756(%rip),%rax        # 258f0 <g_199>
   1819a:	8b 12                	mov    (%rdx),%edx
   1819c:	89 10                	mov    %edx,(%rax)
   1819e:	eb 01                	jmp    181a1 <func_61+0xe13>
   181a0:	90                   	nop
   181a1:	c7 85 24 df ff ff 00 	movl   $0x0,-0x20dc(%rbp)
   181a8:	00 00 00 
   181ab:	e9 9a 1a 00 00       	jmpq   19c4a <func_61+0x28bc>
   181b0:	c7 85 f0 df ff ff 07 	movl   $0x7,-0x2010(%rbp)
   181b7:	00 00 00 
   181ba:	c7 85 80 e5 ff ff c7 	movl   $0x5cf01c7,-0x1a80(%rbp)
   181c1:	01 cf 05 
   181c4:	c6 85 84 e5 ff ff 05 	movb   $0x5,-0x1a7c(%rbp)
   181cb:	c7 85 85 e5 ff ff ff 	movl   $0x1ffefff,-0x1a7b(%rbp)
   181d2:	ef ff 01 
   181d5:	c6 85 89 e5 ff ff f9 	movb   $0xf9,-0x1a77(%rbp)
   181dc:	c7 85 8a e5 ff ff ae 	movl   $0xcf8cffae,-0x1a76(%rbp)
   181e3:	ff 8c cf 
   181e6:	c6 85 8e e5 ff ff c7 	movb   $0xc7,-0x1a72(%rbp)
   181ed:	c7 85 8f e5 ff ff ef 	movl   $0x49ef9ef,-0x1a71(%rbp)
   181f4:	f9 9e 04 
   181f7:	c6 85 93 e5 ff ff 00 	movb   $0x0,-0x1a6d(%rbp)
   181fe:	c7 85 94 e5 ff ff 5e 	movl   $0xc78c8f5e,-0x1a6c(%rbp)
   18205:	8f 8c c7 
   18208:	c6 85 98 e5 ff ff 06 	movb   $0x6,-0x1a68(%rbp)
   1820f:	c7 85 99 e5 ff ff 00 	movl   $0xffff0000,-0x1a67(%rbp)
   18216:	00 ff ff 
   18219:	c6 85 9d e5 ff ff 00 	movb   $0x0,-0x1a63(%rbp)
   18220:	c7 85 9e e5 ff ff d2 	movl   $0xaecf71d2,-0x1a62(%rbp)
   18227:	71 cf ae 
   1822a:	c6 85 a2 e5 ff ff 00 	movb   $0x0,-0x1a5e(%rbp)
   18231:	c7 85 a3 e5 ff ff 39 	movl   $0xefe7f939,-0x1a5d(%rbp)
   18238:	f9 e7 ef 
   1823b:	c6 85 a7 e5 ff ff ea 	movb   $0xea,-0x1a59(%rbp)
   18242:	c7 85 a8 e5 ff ff 8c 	movl   $0x5ef6078c,-0x1a58(%rbp)
   18249:	07 f6 5e 
   1824c:	c6 85 ac e5 ff ff a6 	movb   $0xa6,-0x1a54(%rbp)
   18253:	c7 85 ad e5 ff ff 39 	movl   $0x4ff39,-0x1a53(%rbp)
   1825a:	ff 04 00 
   1825d:	c6 85 b1 e5 ff ff 01 	movb   $0x1,-0x1a4f(%rbp)
   18264:	c7 85 b2 e5 ff ff d2 	movl   $0xd20101d2,-0x1a4e(%rbp)
   1826b:	01 01 d2 
   1826e:	c6 85 b6 e5 ff ff cf 	movb   $0xcf,-0x1a4a(%rbp)
   18275:	c7 85 b7 e5 ff ff 00 	movl   $0x39ff0400,-0x1a49(%rbp)
   1827c:	04 ff 39 
   1827f:	c6 85 bb e5 ff ff f6 	movb   $0xf6,-0x1a45(%rbp)
   18286:	c7 85 bc e5 ff ff 5e 	movl   $0x8c07f65e,-0x1a44(%rbp)
   1828d:	f6 07 8c 
   18290:	c6 85 c0 e5 ff ff 89 	movb   $0x89,-0x1a40(%rbp)
   18297:	c7 85 c1 e5 ff ff ef 	movl   $0x39f9e7ef,-0x1a3f(%rbp)
   1829e:	e7 f9 39 
   182a1:	c6 85 c5 e5 ff ff f2 	movb   $0xf2,-0x1a3b(%rbp)
   182a8:	c7 85 c6 e5 ff ff ae 	movl   $0xd271cfae,-0x1a3a(%rbp)
   182af:	cf 71 d2 
   182b2:	c6 85 ca e5 ff ff 71 	movb   $0x71,-0x1a36(%rbp)
   182b9:	c7 85 cb e5 ff ff ff 	movl   $0xffff,-0x1a35(%rbp)
   182c0:	ff 00 00 
   182c3:	c6 85 cf e5 ff ff e7 	movb   $0xe7,-0x1a31(%rbp)
   182ca:	c7 85 d0 e5 ff ff c7 	movl   $0x5e8f8cc7,-0x1a30(%rbp)
   182d1:	8c 8f 5e 
   182d4:	c6 85 d4 e5 ff ff d2 	movb   $0xd2,-0x1a2c(%rbp)
   182db:	c7 85 d5 e5 ff ff 04 	movl   $0xeff99e04,-0x1a2b(%rbp)
   182e2:	9e f9 ef 
   182e5:	c6 85 d9 e5 ff ff db 	movb   $0xdb,-0x1a27(%rbp)
   182ec:	c7 85 da e5 ff ff cf 	movl   $0xaeff8ccf,-0x1a26(%rbp)
   182f3:	8c ff ae 
   182f6:	c6 85 de e5 ff ff 07 	movb   $0x7,-0x1a22(%rbp)
   182fd:	c7 85 df e5 ff ff 01 	movl   $0xffefff01,-0x1a21(%rbp)
   18304:	ff ef ff 
   18307:	c6 85 e3 e5 ff ff 01 	movb   $0x1,-0x1a1d(%rbp)
   1830e:	c7 85 e4 e5 ff ff 05 	movl   $0xc701cf05,-0x1a1c(%rbp)
   18315:	cf 01 c7 
   18318:	c6 85 e8 e5 ff ff ff 	movb   $0xff,-0x1a18(%rbp)
   1831f:	c7 85 e9 e5 ff ff 01 	movl   $0x439e701,-0x1a17(%rbp)
   18326:	e7 39 04 
   18329:	c6 85 ed e5 ff ff ef 	movb   $0xef,-0x1a13(%rbp)
   18330:	c7 85 ee e5 ff ff 01 	movl   $0xcf06f601,-0x1a12(%rbp)
   18337:	f6 06 cf 
   1833a:	c6 85 f2 e5 ff ff ff 	movb   $0xff,-0x1a0e(%rbp)
   18341:	c7 85 f3 e5 ff ff db 	movl   $0x10104db,-0x1a0d(%rbp)
   18348:	04 01 01 
   1834b:	c6 85 f7 e5 ff ff 01 	movb   $0x1,-0x1a09(%rbp)
   18352:	c7 85 f8 e5 ff ff ff 	movl   $0x5ff01ff,-0x1a08(%rbp)
   18359:	01 ff 05 
   1835c:	c6 85 fc e5 ff ff 07 	movb   $0x7,-0x1a04(%rbp)
   18363:	c7 85 fd e5 ff ff 01 	movl   $0x17aff01,-0x1a03(%rbp)
   1836a:	ff 7a 01 
   1836d:	c6 85 01 e6 ff ff db 	movb   $0xdb,-0x19ff(%rbp)
   18374:	c7 85 02 e6 ff ff 01 	movl   $0x1000701,-0x19fe(%rbp)
   1837b:	07 00 01 
   1837e:	c6 85 06 e6 ff ff d2 	movb   $0xd2,-0x19fa(%rbp)
   18385:	c7 85 07 e6 ff ff fc 	movl   $0xdb7af9fc,-0x19f9(%rbp)
   1838c:	f9 7a db 
   1838f:	c6 85 0b e6 ff ff e7 	movb   $0xe7,-0x19f5(%rbp)
   18396:	c7 85 0c e6 ff ff 00 	movl   $0xffff7100,-0x19f4(%rbp)
   1839d:	71 ff ff 
   183a0:	c6 85 10 e6 ff ff 71 	movb   $0x71,-0x19f0(%rbp)
   183a7:	c7 85 11 e6 ff ff 00 	movl   $0x1010000,-0x19ef(%rbp)
   183ae:	00 01 01 
   183b1:	c6 85 15 e6 ff ff f2 	movb   $0xf2,-0x19eb(%rbp)
   183b8:	c7 85 16 e6 ff ff f6 	movl   $0x1068ff6,-0x19ea(%rbp)
   183bf:	8f 06 01 
   183c2:	c6 85 1a e6 ff ff 89 	movb   $0x89,-0x19e6(%rbp)
   183c9:	c7 85 1b e6 ff ff 7a 	movl   $0xfc39f97a,-0x19e5(%rbp)
   183d0:	f9 39 fc 
   183d3:	c6 85 1f e6 ff ff f6 	movb   $0xf6,-0x19e1(%rbp)
   183da:	48 c7 85 80 e1 ff ff 	movq   $0x0,-0x1e80(%rbp)
   183e1:	00 00 00 00 
   183e5:	48 8d 85 20 ec ff ff 	lea    -0x13e0(%rbp),%rax
   183ec:	48 8d 15 6d 5c 00 00 	lea    0x5c6d(%rip),%rdx        # 1e060 <g_3489+0x1000>
   183f3:	b9 40 00 00 00       	mov    $0x40,%ecx
   183f8:	48 89 c7             	mov    %rax,%rdi
   183fb:	48 89 d6             	mov    %rdx,%rsi
   183fe:	f3 48 a5             	rep movsq %ds:(%rsi),%es:(%rdi)
   18401:	48 c7 85 88 e1 ff ff 	movq   $0xfffffffffffffff6,-0x1e78(%rbp)
   18408:	f6 ff ff ff 
   1840c:	c7 85 f8 df ff ff f9 	movl   $0x1183e8f9,-0x2008(%rbp)
   18413:	e8 83 11 
   18416:	48 c7 85 90 e1 ff ff 	movq   $0x0,-0x1e70(%rbp)
   1841d:	00 00 00 00 
   18421:	48 8d 85 20 ec ff ff 	lea    -0x13e0(%rbp),%rax
   18428:	48 05 e8 01 00 00    	add    $0x1e8,%rax
   1842e:	48 89 85 98 e1 ff ff 	mov    %rax,-0x1e68(%rbp)
   18435:	48 8d 85 1c df ff ff 	lea    -0x20e4(%rbp),%rax
   1843c:	48 89 85 a0 e1 ff ff 	mov    %rax,-0x1e60(%rbp)
   18443:	48 c7 85 a8 e1 ff ff 	movq   $0x0,-0x1e58(%rbp)
   1844a:	00 00 00 00 
   1844e:	48 8d 85 14 df ff ff 	lea    -0x20ec(%rbp),%rax
   18455:	48 89 85 b0 e1 ff ff 	mov    %rax,-0x1e50(%rbp)
   1845c:	48 8d 05 f1 af 00 00 	lea    0xaff1(%rip),%rax        # 23454 <g_340>
   18463:	48 89 85 b8 e1 ff ff 	mov    %rax,-0x1e48(%rbp)
   1846a:	48 8d 85 d0 f2 ff ff 	lea    -0xd30(%rbp),%rax
   18471:	48 8d 15 88 ca 00 00 	lea    0xca88(%rip),%rdx        # 24f00 <g_4429+0x15d4>
   18478:	b9 a0 00 00 00       	mov    $0xa0,%ecx
   1847d:	48 89 c7             	mov    %rax,%rdi
   18480:	48 89 d6             	mov    %rdx,%rsi
   18483:	f3 48 a5             	rep movsq %ds:(%rsi),%es:(%rdi)
   18486:	c7 85 ac df ff ff 78 	movl   $0xe3b4e678,-0x2054(%rbp)
   1848d:	e6 b4 e3 
   18490:	48 8d 85 70 ef ff ff 	lea    -0x1090(%rbp),%rax
   18497:	48 8d 15 c2 5d 00 00 	lea    0x5dc2(%rip),%rdx        # 1e260 <g_3489+0x1200>
   1849e:	b9 46 00 00 00       	mov    $0x46,%ecx
   184a3:	48 89 c7             	mov    %rax,%rdi
   184a6:	48 89 d6             	mov    %rdx,%rsi
   184a9:	f3 48 a5             	rep movsq %ds:(%rsi),%es:(%rdi)
   184ac:	48 c7 05 41 d4 00 00 	movq   $0x0,0xd441(%rip)        # 258f8 <g_203>
   184b3:	00 00 00 00 
   184b7:	48 8b 05 d2 d3 00 00 	mov    0xd3d2(%rip),%rax        # 25890 <g_105>
   184be:	8b 18                	mov    (%rax),%ebx
   184c0:	8b 05 92 71 00 00    	mov    0x7192(%rip),%eax        # 1f658 <l_209.5191+0x138>
   184c6:	c1 e8 1f             	shr    $0x1f,%eax
   184c9:	0f b6 c0             	movzbl %al,%eax
   184cc:	89 c6                	mov    %eax,%esi
   184ce:	bf 66 00 00 00       	mov    $0x66,%edi
   184d3:	e8 a0 36 ff ff       	callq  bb78 <safe_sub_func_uint8_t_u_u>
   184d8:	8b 85 f0 df ff ff    	mov    -0x2010(%rbp),%eax
   184de:	3d 86 00 00 00       	cmp    $0x86,%eax
   184e3:	0f 9e c0             	setle  %al
   184e6:	0f b6 d0             	movzbl %al,%edx
   184e9:	48 8b 05 a8 d3 00 00 	mov    0xd3a8(%rip),%rax        # 25898 <g_138>
   184f0:	0f b7 00             	movzwl (%rax),%eax
   184f3:	0f b7 c0             	movzwl %ax,%eax
   184f6:	39 c2                	cmp    %eax,%edx
   184f8:	0f 9d c0             	setge  %al
   184fb:	0f b6 d0             	movzbl %al,%edx
   184fe:	8b 85 ec de ff ff    	mov    -0x2114(%rbp),%eax
   18504:	98                   	cwtl   
   18505:	89 d6                	mov    %edx,%esi
   18507:	89 c7                	mov    %eax,%edi
   18509:	e8 c5 2e ff ff       	callq  b3d3 <safe_sub_func_int16_t_s_s>
   1850e:	98                   	cwtl   
   1850f:	09 d8                	or     %ebx,%eax
   18511:	85 c0                	test   %eax,%eax
   18513:	0f 84 dc 04 00 00    	je     189f5 <func_61+0x1667>
   18519:	48 8d 85 f0 df ff ff 	lea    -0x2010(%rbp),%rax
   18520:	48 89 85 08 e0 ff ff 	mov    %rax,-0x1ff8(%rbp)
   18527:	c7 85 b8 df ff ff cc 	movl   $0x41d7acc,-0x2048(%rbp)
   1852e:	7a 1d 04 
   18531:	0f b6 95 ae e5 ff ff 	movzbl -0x1a52(%rbp),%edx
   18538:	48 8b 85 08 e0 ff ff 	mov    -0x1ff8(%rbp),%rax
   1853f:	0f be d2             	movsbl %dl,%edx
   18542:	89 10                	mov    %edx,(%rax)
   18544:	8b 85 ec de ff ff    	mov    -0x2114(%rbp),%eax
   1854a:	0f b7 d0             	movzwl %ax,%edx
   1854d:	48 8b 05 44 d3 00 00 	mov    0xd344(%rip),%rax        # 25898 <g_138>
   18554:	0f b7 00             	movzwl (%rax),%eax
   18557:	0f b7 c0             	movzwl %ax,%eax
   1855a:	89 d6                	mov    %edx,%esi
   1855c:	89 c7                	mov    %eax,%edi
   1855e:	e8 bc 37 ff ff       	callq  bd1f <safe_sub_func_uint16_t_u_u>
   18563:	66 85 c0             	test   %ax,%ax
   18566:	0f 84 7f 04 00 00    	je     189eb <func_61+0x165d>
   1856c:	48 8d 85 08 e0 ff ff 	lea    -0x1ff8(%rbp),%rax
   18573:	48 89 85 08 e2 ff ff 	mov    %rax,-0x1df8(%rbp)
   1857a:	48 c7 85 10 e2 ff ff 	movq   $0x0,-0x1df0(%rbp)
   18581:	00 00 00 00 
   18585:	48 c7 85 18 e2 ff ff 	movq   $0x0,-0x1de8(%rbp)
   1858c:	00 00 00 00 
   18590:	48 8d 05 c1 aa 00 00 	lea    0xaac1(%rip),%rax        # 23058 <g_241>
   18597:	48 89 85 20 e2 ff ff 	mov    %rax,-0x1de0(%rbp)
   1859e:	48 c7 85 28 e2 ff ff 	movq   $0x0,-0x1dd8(%rbp)
   185a5:	00 00 00 00 
   185a9:	48 8d 85 80 e5 ff ff 	lea    -0x1a80(%rbp),%rax
   185b0:	48 83 c0 2e          	add    $0x2e,%rax
   185b4:	48 89 85 30 e2 ff ff 	mov    %rax,-0x1dd0(%rbp)
   185bb:	c7 85 2c df ff ff 00 	movl   $0x0,-0x20d4(%rbp)
   185c2:	00 00 00 
   185c5:	eb 1e                	jmp    185e5 <func_61+0x1257>
   185c7:	8b 85 2c df ff ff    	mov    -0x20d4(%rbp),%eax
   185cd:	48 98                	cltq   
   185cf:	48 8d 15 86 aa 00 00 	lea    0xaa86(%rip),%rdx        # 2305c <g_252>
   185d6:	48 89 94 c5 c0 e4 ff 	mov    %rdx,-0x1b40(%rbp,%rax,8)
   185dd:	ff 
   185de:	83 85 2c df ff ff 01 	addl   $0x1,-0x20d4(%rbp)
   185e5:	83 bd 2c df ff ff 02 	cmpl   $0x2,-0x20d4(%rbp)
   185ec:	7e d9                	jle    185c7 <func_61+0x1239>
   185ee:	48 8b 85 08 e2 ff ff 	mov    -0x1df8(%rbp),%rax
   185f5:	48 8b 95 d8 de ff ff 	mov    -0x2128(%rbp),%rdx
   185fc:	48 89 10             	mov    %rdx,(%rax)
   185ff:	48 8b 05 82 d2 00 00 	mov    0xd282(%rip),%rax        # 25888 <g_87>
   18606:	48 8b 95 08 e2 ff ff 	mov    -0x1df8(%rbp),%rdx
   1860d:	48 8b 12             	mov    (%rdx),%rdx
   18610:	48 89 10             	mov    %rdx,(%rax)
   18613:	48 c7 05 22 aa 00 00 	movq   $0x11,0xaa22(%rip)        # 23040 <g_121>
   1861a:	11 00 00 00 
   1861e:	e9 dc 00 00 00       	jmpq   186ff <func_61+0x1371>
   18623:	48 8d 85 d0 f7 ff ff 	lea    -0x830(%rbp),%rax
   1862a:	48 8d 15 6f 5e 00 00 	lea    0x5e6f(%rip),%rdx        # 1e4a0 <g_3489+0x1440>
   18631:	b9 5a 00 00 00       	mov    $0x5a,%ecx
   18636:	48 89 c7             	mov    %rax,%rdi
   18639:	48 89 d6             	mov    %rdx,%rsi
   1863c:	f3 48 a5             	rep movsq %ds:(%rsi),%es:(%rdi)
   1863f:	48 8d 85 80 e5 ff ff 	lea    -0x1a80(%rbp),%rax
   18646:	48 83 c0 68          	add    $0x68,%rax
   1864a:	48 89 85 40 e2 ff ff 	mov    %rax,-0x1dc0(%rbp)
   18651:	48 8d 05 f0 a9 00 00 	lea    0xa9f0(%rip),%rax        # 23048 <g_144>
   18658:	48 89 85 48 e2 ff ff 	mov    %rax,-0x1db8(%rbp)
   1865f:	48 8d 05 ee a9 00 00 	lea    0xa9ee(%rip),%rax        # 23054 <g_200>
   18666:	48 89 85 50 e2 ff ff 	mov    %rax,-0x1db0(%rbp)
   1866d:	48 8b 05 7c d2 00 00 	mov    0xd27c(%rip),%rax        # 258f0 <g_199>
   18674:	8b 00                	mov    (%rax),%eax
   18676:	89 c1                	mov    %eax,%ecx
   18678:	48 8b 85 40 e2 ff ff 	mov    -0x1dc0(%rbp),%rax
   1867f:	0f b6 00             	movzbl (%rax),%eax
   18682:	83 e0 80             	and    $0xffffff80,%eax
   18685:	89 c2                	mov    %eax,%edx
   18687:	48 8b 85 40 e2 ff ff 	mov    -0x1dc0(%rbp),%rax
   1868e:	88 10                	mov    %dl,(%rax)
   18690:	89 ce                	mov    %ecx,%esi
   18692:	bf 01 00 00 00       	mov    $0x1,%edi
   18697:	e8 89 38 ff ff       	callq  bf25 <safe_div_func_uint32_t_u_u>
   1869c:	48 8b 85 c8 df ff ff 	mov    -0x2038(%rbp),%rax
   186a3:	8b 00                	mov    (%rax),%eax
   186a5:	85 c0                	test   %eax,%eax
   186a7:	75 0c                	jne    186b5 <func_61+0x1327>
   186a9:	48 8b 05 e8 d1 00 00 	mov    0xd1e8(%rip),%rax        # 25898 <g_138>
   186b0:	66 c7 00 ff ff       	movw   $0xffff,(%rax)
   186b5:	ba 01 00 00 00       	mov    $0x1,%edx
   186ba:	b8 3f d6 54 4f       	mov    $0x4f54d63f,%eax
   186bf:	0d a1 9c 00 00       	or     $0x9ca1,%eax
   186c4:	31 d0                	xor    %edx,%eax
   186c6:	83 f8 08             	cmp    $0x8,%eax
   186c9:	0f 94 c0             	sete   %al
   186cc:	0f b6 c0             	movzbl %al,%eax
   186cf:	be fa ff ff ff       	mov    $0xfffffffa,%esi
   186d4:	89 c7                	mov    %eax,%edi
   186d6:	e8 1a 2d ff ff       	callq  b3f5 <safe_mul_func_int16_t_s_s>
   186db:	48 8b 85 d8 de ff ff 	mov    -0x2128(%rbp),%rax
   186e2:	8b 10                	mov    (%rax),%edx
   186e4:	48 8b 85 50 e2 ff ff 	mov    -0x1db0(%rbp),%rax
   186eb:	89 10                	mov    %edx,(%rax)
   186ed:	48 8b 05 4c a9 00 00 	mov    0xa94c(%rip),%rax        # 23040 <g_121>
   186f4:	48 83 c0 01          	add    $0x1,%rax
   186f8:	48 89 05 41 a9 00 00 	mov    %rax,0xa941(%rip)        # 23040 <g_121>
   186ff:	48 8b 05 3a a9 00 00 	mov    0xa93a(%rip),%rax        # 23040 <g_121>
   18706:	48 83 f8 2c          	cmp    $0x2c,%rax
   1870a:	0f 85 13 ff ff ff    	jne    18623 <func_61+0x1295>
   18710:	48 8b 05 29 a9 00 00 	mov    0xa929(%rip),%rax        # 23040 <g_121>
   18717:	48 85 c0             	test   %rax,%rax
   1871a:	0f 95 c0             	setne  %al
   1871d:	0f b6 c0             	movzbl %al,%eax
   18720:	4c 63 f0             	movslq %eax,%r14
   18723:	8b 85 e8 de ff ff    	mov    -0x2118(%rbp),%eax
   18729:	48 63 d8             	movslq %eax,%rbx
   1872c:	44 8b a5 e8 de ff ff 	mov    -0x2118(%rbp),%r12d
   18733:	48 8b 05 0e a9 00 00 	mov    0xa90e(%rip),%rax        # 23048 <g_144>
   1873a:	89 c1                	mov    %eax,%ecx
   1873c:	48 8b 85 20 e2 ff ff 	mov    -0x1de0(%rbp),%rax
   18743:	8b 00                	mov    (%rax),%eax
   18745:	8d 50 ff             	lea    -0x1(%rax),%edx
   18748:	48 8b 85 20 e2 ff ff 	mov    -0x1de0(%rbp),%rax
   1874f:	89 10                	mov    %edx,(%rax)
   18751:	48 8b 85 20 e2 ff ff 	mov    -0x1de0(%rbp),%rax
   18758:	8b 00                	mov    (%rax),%eax
   1875a:	89 ce                	mov    %ecx,%esi
   1875c:	89 c7                	mov    %eax,%edi
   1875e:	e8 55 37 ff ff       	callq  beb8 <safe_add_func_uint32_t_u_u>
   18763:	48 8b 85 08 e0 ff ff 	mov    -0x1ff8(%rbp),%rax
   1876a:	8b 00                	mov    (%rax),%eax
   1876c:	83 f8 fc             	cmp    $0xfffffffc,%eax
   1876f:	41 0f 9c c5          	setl   %r13b
   18773:	0f b7 95 e0 de ff ff 	movzwl -0x2120(%rbp),%edx
   1877a:	0f b6 85 16 e4 ff ff 	movzbl -0x1bea(%rbp),%eax
   18781:	21 d0                	and    %edx,%eax
   18783:	88 85 16 e4 ff ff    	mov    %al,-0x1bea(%rbp)
   18789:	0f b6 85 16 e4 ff ff 	movzbl -0x1bea(%rbp),%eax
   18790:	0f be c0             	movsbl %al,%eax
   18793:	be 01 00 00 00       	mov    $0x1,%esi
   18798:	89 c7                	mov    %eax,%edi
   1879a:	e8 42 2d ff ff       	callq  b4e1 <safe_lshift_func_int16_t_s_u>
   1879f:	0f bf d0             	movswl %ax,%edx
   187a2:	81 bd ec de ff ff c5 	cmpl   $0xdac5,-0x2114(%rbp)
   187a9:	da 00 00 
   187ac:	0f 96 c0             	setbe  %al
   187af:	0f b6 c0             	movzbl %al,%eax
   187b2:	39 c2                	cmp    %eax,%edx
   187b4:	0f 9e c0             	setle  %al
   187b7:	44 31 e8             	xor    %r13d,%eax
   187ba:	44 0f b6 e8          	movzbl %al,%r13d
   187be:	0f b7 85 00 df ff ff 	movzwl -0x2100(%rbp),%eax
   187c5:	0f bf d0             	movswl %ax,%edx
   187c8:	48 8b 85 20 e2 ff ff 	mov    -0x1de0(%rbp),%rax
   187cf:	89 10                	mov    %edx,(%rax)
   187d1:	48 8b 85 20 e2 ff ff 	mov    -0x1de0(%rbp),%rax
   187d8:	8b 10                	mov    (%rax),%edx
   187da:	0f b6 85 ae e5 ff ff 	movzbl -0x1a52(%rbp),%eax
   187e1:	0f be c0             	movsbl %al,%eax
   187e4:	89 d6                	mov    %edx,%esi
   187e6:	89 c7                	mov    %eax,%edi
   187e8:	e8 cb 36 ff ff       	callq  beb8 <safe_add_func_uint32_t_u_u>
   187ed:	89 c0                	mov    %eax,%eax
   187ef:	4c 89 ee             	mov    %r13,%rsi
   187f2:	48 89 c7             	mov    %rax,%rdi
   187f5:	e8 ba 31 ff ff       	callq  b9b4 <safe_mod_func_int64_t_s_s>
   187fa:	44 89 e6             	mov    %r12d,%esi
   187fd:	bf 00 00 00 00       	mov    $0x0,%edi
   18802:	e8 fe 2d ff ff       	callq  b605 <safe_sub_func_int32_t_s_s>
   18807:	48 98                	cltq   
   18809:	48 89 de             	mov    %rbx,%rsi
   1880c:	48 89 c7             	mov    %rax,%rdi
   1880f:	e8 9b 38 ff ff       	callq  c0af <safe_div_func_uint64_t_u_u>
   18814:	49 39 c6             	cmp    %rax,%r14
   18817:	76 07                	jbe    18820 <func_61+0x1492>
   18819:	ba 6d 00 00 00       	mov    $0x6d,%edx
   1881e:	eb 05                	jmp    18825 <func_61+0x1497>
   18820:	ba 6c 00 00 00       	mov    $0x6c,%edx
   18825:	48 8b 85 30 e2 ff ff 	mov    -0x1dd0(%rbp),%rax
   1882c:	88 10                	mov    %dl,(%rax)
   1882e:	0f b7 05 27 a8 00 00 	movzwl 0xa827(%rip),%eax        # 2305c <g_252>
   18835:	66 85 c0             	test   %ax,%ax
   18838:	74 37                	je     18871 <func_61+0x14e3>
   1883a:	48 8d 85 f0 df ff ff 	lea    -0x2010(%rbp),%rax
   18841:	48 89 85 38 e2 ff ff 	mov    %rax,-0x1dc8(%rbp)
   18848:	48 8b 05 a1 d0 00 00 	mov    0xd0a1(%rip),%rax        # 258f0 <g_199>
   1884f:	8b 10                	mov    (%rax),%edx
   18851:	48 8b 85 38 e2 ff ff 	mov    -0x1dc8(%rbp),%rax
   18858:	8b 00                	mov    (%rax),%eax
   1885a:	21 c2                	and    %eax,%edx
   1885c:	48 8b 85 38 e2 ff ff 	mov    -0x1dc8(%rbp),%rax
   18863:	89 10                	mov    %edx,(%rax)
   18865:	0f b7 85 e0 de ff ff 	movzwl -0x2120(%rbp),%eax
   1886c:	e9 ec 38 00 00       	jmpq   1c15d <func_61+0x4dcf>
   18871:	48 8b 05 88 d0 00 00 	mov    0xd088(%rip),%rax        # 25900 <g_257>
   18878:	48 8d 95 e8 de ff ff 	lea    -0x2118(%rbp),%rdx
   1887f:	48 89 10             	mov    %rdx,(%rax)
   18882:	48 c7 05 b3 a7 00 00 	movq   $0x0,0xa7b3(%rip)        # 23040 <g_121>
   18889:	00 00 00 00 
   1888d:	90                   	nop
   1888e:	48 8b 05 ab a7 00 00 	mov    0xa7ab(%rip),%rax        # 23040 <g_121>
   18895:	48 83 f8 02          	cmp    $0x2,%rax
   18899:	0f 87 17 01 00 00    	ja     189b6 <func_61+0x1628>
   1889f:	c7 85 bc df ff ff 01 	movl   $0x1,-0x2044(%rbp)
   188a6:	00 00 00 
   188a9:	48 8b 05 90 a7 00 00 	mov    0xa790(%rip),%rax        # 23040 <g_121>
   188b0:	48 8d 50 01          	lea    0x1(%rax),%rdx
   188b4:	48 8b 05 85 a7 00 00 	mov    0xa785(%rip),%rax        # 23040 <g_121>
   188bb:	48 8d 48 07          	lea    0x7(%rax),%rcx
   188bf:	48 89 d0             	mov    %rdx,%rax
   188c2:	48 c1 e0 02          	shl    $0x2,%rax
   188c6:	48 01 d0             	add    %rdx,%rax
   188c9:	48 01 c0             	add    %rax,%rax
   188cc:	48 8d 5d e0          	lea    -0x20(%rbp),%rbx
   188d0:	48 01 d8             	add    %rbx,%rax
   188d3:	48 01 c8             	add    %rcx,%rax
   188d6:	48 2d 10 1c 00 00    	sub    $0x1c10,%rax
   188dc:	0f b6 00             	movzbl (%rax),%eax
   188df:	0f be c0             	movsbl %al,%eax
   188e2:	21 85 bc df ff ff    	and    %eax,-0x2044(%rbp)
   188e8:	48 8b 85 08 e2 ff ff 	mov    -0x1df8(%rbp),%rax
   188ef:	48 8b 95 d8 de ff ff 	mov    -0x2128(%rbp),%rdx
   188f6:	48 89 10             	mov    %rdx,(%rax)
   188f9:	48 8b 85 08 e2 ff ff 	mov    -0x1df8(%rbp),%rax
   18900:	48 8b 10             	mov    (%rax),%rdx
   18903:	48 8b 05 f6 cf 00 00 	mov    0xcff6(%rip),%rax        # 25900 <g_257>
   1890a:	48 8b 00             	mov    (%rax),%rax
   1890d:	48 39 c2             	cmp    %rax,%rdx
   18910:	75 3a                	jne    1894c <func_61+0x15be>
   18912:	48 8b 05 27 a7 00 00 	mov    0xa727(%rip),%rax        # 23040 <g_121>
   18919:	48 8d 50 05          	lea    0x5(%rax),%rdx
   1891d:	48 8b 05 1c a7 00 00 	mov    0xa71c(%rip),%rax        # 23040 <g_121>
   18924:	48 8d 48 07          	lea    0x7(%rax),%rcx
   18928:	48 89 d0             	mov    %rdx,%rax
   1892b:	48 c1 e0 02          	shl    $0x2,%rax
   1892f:	48 01 d0             	add    %rdx,%rax
   18932:	48 01 c0             	add    %rax,%rax
   18935:	48 8d 5d e0          	lea    -0x20(%rbp),%rbx
   18939:	48 01 d8             	add    %rbx,%rax
   1893c:	48 01 c8             	add    %rcx,%rax
   1893f:	48 2d 10 1c 00 00    	sub    $0x1c10,%rax
   18945:	0f b6 00             	movzbl (%rax),%eax
   18948:	84 c0                	test   %al,%al
   1894a:	74 07                	je     18953 <func_61+0x15c5>
   1894c:	b8 01 00 00 00       	mov    $0x1,%eax
   18951:	eb 05                	jmp    18958 <func_61+0x15ca>
   18953:	b8 00 00 00 00       	mov    $0x0,%eax
   18958:	89 c6                	mov    %eax,%esi
   1895a:	bf 06 00 00 00       	mov    $0x6,%edi
   1895f:	e8 9b 2d ff ff       	callq  b6ff <safe_div_func_int32_t_s_s>
   18964:	89 85 b8 df ff ff    	mov    %eax,-0x2048(%rbp)
   1896a:	48 8b 0d cf a6 00 00 	mov    0xa6cf(%rip),%rcx        # 23040 <g_121>
   18971:	48 8b 05 c8 a6 00 00 	mov    0xa6c8(%rip),%rax        # 23040 <g_121>
   18978:	48 83 c0 03          	add    $0x3,%rax
   1897c:	48 8b 35 bd a6 00 00 	mov    0xa6bd(%rip),%rsi        # 23040 <g_121>
   18983:	48 89 c2             	mov    %rax,%rdx
   18986:	48 c1 e2 02          	shl    $0x2,%rdx
   1898a:	48 01 c2             	add    %rax,%rdx
   1898d:	48 89 c8             	mov    %rcx,%rax
   18990:	48 c1 e0 02          	shl    $0x2,%rax
   18994:	48 01 c8             	add    %rcx,%rax
   18997:	48 c1 e0 03          	shl    $0x3,%rax
   1899b:	48 01 d0             	add    %rdx,%rax
   1899e:	48 8d 5d e0          	lea    -0x20(%rbp),%rbx
   189a2:	48 01 d8             	add    %rbx,%rax
   189a5:	48 01 f0             	add    %rsi,%rax
   189a8:	48 2d 60 1a 00 00    	sub    $0x1a60,%rax
   189ae:	0f b6 00             	movzbl (%rax),%eax
   189b1:	e9 a7 37 00 00       	jmpq   1c15d <func_61+0x4dcf>
   189b6:	8b 85 b4 e7 ff ff    	mov    -0x184c(%rbp),%eax
   189bc:	83 e8 01             	sub    $0x1,%eax
   189bf:	89 85 b4 e7 ff ff    	mov    %eax,-0x184c(%rbp)
   189c5:	48 8b 85 58 f1 ff ff 	mov    -0xea8(%rbp),%rax
   189cc:	48 83 c0 01          	add    $0x1,%rax
   189d0:	48 89 85 58 f1 ff ff 	mov    %rax,-0xea8(%rbp)
   189d7:	8b 85 24 df ff ff    	mov    -0x20dc(%rbp),%eax
   189dd:	83 e8 01             	sub    $0x1,%eax
   189e0:	89 85 24 df ff ff    	mov    %eax,-0x20dc(%rbp)
   189e6:	e9 5f 12 00 00       	jmpq   19c4a <func_61+0x28bc>
   189eb:	b8 3f d6 54 4f       	mov    $0x4f54d63f,%eax
   189f0:	e9 68 37 00 00       	jmpq   1c15d <func_61+0x4dcf>
   189f5:	66 c7 85 0e df ff ff 	movw   $0x7,-0x20f2(%rbp)
   189fc:	07 00 
   189fe:	c7 85 70 e3 ff ff 16 	movl   $0x83918316,-0x1c90(%rbp)
   18a05:	83 91 83 
   18a08:	c7 85 74 e3 ff ff 41 	movl   $0x3435bb41,-0x1c8c(%rbp)
   18a0f:	bb 35 34 
   18a12:	c7 85 78 e3 ff ff 16 	movl   $0x83918316,-0x1c88(%rbp)
   18a19:	83 91 83 
   18a1c:	c7 85 7c e3 ff ff 16 	movl   $0x83918316,-0x1c84(%rbp)
   18a23:	83 91 83 
   18a26:	c7 85 80 e3 ff ff 41 	movl   $0x3435bb41,-0x1c80(%rbp)
   18a2d:	bb 35 34 
   18a30:	c7 85 84 e3 ff ff 16 	movl   $0x83918316,-0x1c7c(%rbp)
   18a37:	83 91 83 
   18a3a:	c7 85 88 e3 ff ff 16 	movl   $0x83918316,-0x1c78(%rbp)
   18a41:	83 91 83 
   18a44:	c7 85 8c e3 ff ff 41 	movl   $0x3435bb41,-0x1c74(%rbp)
   18a4b:	bb 35 34 
   18a4e:	c7 85 90 e3 ff ff 41 	movl   $0x3435bb41,-0x1c70(%rbp)
   18a55:	bb 35 34 
   18a58:	c7 85 94 e3 ff ff e8 	movl   $0x2a6e8e8,-0x1c6c(%rbp)
   18a5f:	e8 a6 02 
   18a62:	c7 85 98 e3 ff ff 41 	movl   $0x3435bb41,-0x1c68(%rbp)
   18a69:	bb 35 34 
   18a6c:	c7 85 9c e3 ff ff 41 	movl   $0x3435bb41,-0x1c64(%rbp)
   18a73:	bb 35 34 
   18a76:	c7 85 a0 e3 ff ff e8 	movl   $0x2a6e8e8,-0x1c60(%rbp)
   18a7d:	e8 a6 02 
   18a80:	c7 85 a4 e3 ff ff 41 	movl   $0x3435bb41,-0x1c5c(%rbp)
   18a87:	bb 35 34 
   18a8a:	c7 85 a8 e3 ff ff 41 	movl   $0x3435bb41,-0x1c58(%rbp)
   18a91:	bb 35 34 
   18a94:	c7 85 ac e3 ff ff 16 	movl   $0x83918316,-0x1c54(%rbp)
   18a9b:	83 91 83 
   18a9e:	c7 85 b0 e3 ff ff 16 	movl   $0x83918316,-0x1c50(%rbp)
   18aa5:	83 91 83 
   18aa8:	c7 85 b4 e3 ff ff 41 	movl   $0x3435bb41,-0x1c4c(%rbp)
   18aaf:	bb 35 34 
   18ab2:	c7 85 b8 e3 ff ff 16 	movl   $0x83918316,-0x1c48(%rbp)
   18ab9:	83 91 83 
   18abc:	c7 85 bc e3 ff ff 16 	movl   $0x83918316,-0x1c44(%rbp)
   18ac3:	83 91 83 
   18ac6:	c7 85 c0 e3 ff ff 41 	movl   $0x3435bb41,-0x1c40(%rbp)
   18acd:	bb 35 34 
   18ad0:	c6 85 ff de ff ff f7 	movb   $0xf7,-0x2101(%rbp)
   18ad7:	c7 85 b0 df ff ff 45 	movl   $0xfe78d945,-0x2050(%rbp)
   18ade:	d9 78 fe 
   18ae1:	48 8d 85 c8 df ff ff 	lea    -0x2038(%rbp),%rax
   18ae8:	48 89 85 c0 e1 ff ff 	mov    %rax,-0x1e40(%rbp)
   18aef:	48 c7 85 c8 e1 ff ff 	movq   $0x0,-0x1e38(%rbp)
   18af6:	00 00 00 00 
   18afa:	48 8d 95 c0 e4 ff ff 	lea    -0x1b40(%rbp),%rdx
   18b01:	b8 00 00 00 00       	mov    $0x0,%eax
   18b06:	b9 0e 00 00 00       	mov    $0xe,%ecx
   18b0b:	48 89 d7             	mov    %rdx,%rdi
   18b0e:	f3 48 ab             	rep stos %rax,%es:(%rdi)
   18b11:	48 8d 85 f8 df ff ff 	lea    -0x2008(%rbp),%rax
   18b18:	48 89 85 d0 e1 ff ff 	mov    %rax,-0x1e30(%rbp)
   18b1f:	48 c7 85 d8 e1 ff ff 	movq   $0x0,-0x1e28(%rbp)
   18b26:	00 00 00 00 
   18b2a:	48 8d 85 18 df ff ff 	lea    -0x20e8(%rbp),%rax
   18b31:	48 89 85 d0 f7 ff ff 	mov    %rax,-0x830(%rbp)
   18b38:	48 8d 05 b5 a7 00 00 	lea    0xa7b5(%rip),%rax        # 232f4 <g_310+0x294>
   18b3f:	48 89 85 d8 f7 ff ff 	mov    %rax,-0x828(%rbp)
   18b46:	48 8d 85 24 df ff ff 	lea    -0x20dc(%rbp),%rax
   18b4d:	48 89 85 e0 f7 ff ff 	mov    %rax,-0x820(%rbp)
   18b54:	48 8d 05 f9 a4 00 00 	lea    0xa4f9(%rip),%rax        # 23054 <g_200>
   18b5b:	48 89 85 e8 f7 ff ff 	mov    %rax,-0x818(%rbp)
   18b62:	48 8d 05 13 a7 00 00 	lea    0xa713(%rip),%rax        # 2327c <g_310+0x21c>
   18b69:	48 89 85 f0 f7 ff ff 	mov    %rax,-0x810(%rbp)
   18b70:	48 c7 85 f8 f7 ff ff 	movq   $0x0,-0x808(%rbp)
   18b77:	00 00 00 00 
   18b7b:	48 8d 85 24 df ff ff 	lea    -0x20dc(%rbp),%rax
   18b82:	48 89 85 00 f8 ff ff 	mov    %rax,-0x800(%rbp)
   18b89:	48 c7 85 08 f8 ff ff 	movq   $0x0,-0x7f8(%rbp)
   18b90:	00 00 00 00 
   18b94:	48 8d 85 18 df ff ff 	lea    -0x20e8(%rbp),%rax
   18b9b:	48 89 85 10 f8 ff ff 	mov    %rax,-0x7f0(%rbp)
   18ba2:	48 8d 05 2f a7 00 00 	lea    0xa72f(%rip),%rax        # 232d8 <g_310+0x278>
   18ba9:	48 89 85 18 f8 ff ff 	mov    %rax,-0x7e8(%rbp)
   18bb0:	48 c7 85 20 f8 ff ff 	movq   $0x0,-0x7e0(%rbp)
   18bb7:	00 00 00 00 
   18bbb:	48 8d 05 92 a8 00 00 	lea    0xa892(%rip),%rax        # 23454 <g_340>
   18bc2:	48 89 85 28 f8 ff ff 	mov    %rax,-0x7d8(%rbp)
   18bc9:	48 8d 05 84 a8 00 00 	lea    0xa884(%rip),%rax        # 23454 <g_340>
   18bd0:	48 89 85 30 f8 ff ff 	mov    %rax,-0x7d0(%rbp)
   18bd7:	48 8d 85 f0 df ff ff 	lea    -0x2010(%rbp),%rax
   18bde:	48 89 85 38 f8 ff ff 	mov    %rax,-0x7c8(%rbp)
   18be5:	48 8d 85 18 df ff ff 	lea    -0x20e8(%rbp),%rax
   18bec:	48 89 85 40 f8 ff ff 	mov    %rax,-0x7c0(%rbp)
   18bf3:	48 8d 05 5a a4 00 00 	lea    0xa45a(%rip),%rax        # 23054 <g_200>
   18bfa:	48 89 85 48 f8 ff ff 	mov    %rax,-0x7b8(%rbp)
   18c01:	48 8d 85 18 df ff ff 	lea    -0x20e8(%rbp),%rax
   18c08:	48 89 85 50 f8 ff ff 	mov    %rax,-0x7b0(%rbp)
   18c0f:	48 8d 05 3e a4 00 00 	lea    0xa43e(%rip),%rax        # 23054 <g_200>
   18c16:	48 89 85 58 f8 ff ff 	mov    %rax,-0x7a8(%rbp)
   18c1d:	48 c7 85 60 f8 ff ff 	movq   $0x0,-0x7a0(%rbp)
   18c24:	00 00 00 00 
   18c28:	48 8d 85 30 e3 ff ff 	lea    -0x1cd0(%rbp),%rax
   18c2f:	48 89 85 68 f8 ff ff 	mov    %rax,-0x798(%rbp)
   18c36:	48 8d 05 3f a6 00 00 	lea    0xa63f(%rip),%rax        # 2327c <g_310+0x21c>
   18c3d:	48 89 85 70 f8 ff ff 	mov    %rax,-0x790(%rbp)
   18c44:	48 8d 85 14 df ff ff 	lea    -0x20ec(%rbp),%rax
   18c4b:	48 89 85 78 f8 ff ff 	mov    %rax,-0x788(%rbp)
   18c52:	48 8d 85 5c e2 ff ff 	lea    -0x1da4(%rbp),%rax
   18c59:	48 89 85 80 f8 ff ff 	mov    %rax,-0x780(%rbp)
   18c60:	48 8d 85 14 df ff ff 	lea    -0x20ec(%rbp),%rax
   18c67:	48 89 85 88 f8 ff ff 	mov    %rax,-0x778(%rbp)
   18c6e:	48 8d 85 18 df ff ff 	lea    -0x20e8(%rbp),%rax
   18c75:	48 89 85 90 f8 ff ff 	mov    %rax,-0x770(%rbp)
   18c7c:	48 8d 85 24 df ff ff 	lea    -0x20dc(%rbp),%rax
   18c83:	48 89 85 98 f8 ff ff 	mov    %rax,-0x768(%rbp)
   18c8a:	48 8d 85 5c e2 ff ff 	lea    -0x1da4(%rbp),%rax
   18c91:	48 89 85 a0 f8 ff ff 	mov    %rax,-0x760(%rbp)
   18c98:	48 8d 85 f0 df ff ff 	lea    -0x2010(%rbp),%rax
   18c9f:	48 89 85 a8 f8 ff ff 	mov    %rax,-0x758(%rbp)
   18ca6:	48 c7 85 b0 f8 ff ff 	movq   $0x0,-0x750(%rbp)
   18cad:	00 00 00 00 
   18cb1:	48 8d 05 3c a6 00 00 	lea    0xa63c(%rip),%rax        # 232f4 <g_310+0x294>
   18cb8:	48 89 85 b8 f8 ff ff 	mov    %rax,-0x748(%rbp)
   18cbf:	48 c7 85 c0 f8 ff ff 	movq   $0x0,-0x740(%rbp)
   18cc6:	00 00 00 00 
   18cca:	48 8d 85 30 e3 ff ff 	lea    -0x1cd0(%rbp),%rax
   18cd1:	48 89 85 c8 f8 ff ff 	mov    %rax,-0x738(%rbp)
   18cd8:	48 8d 85 24 df ff ff 	lea    -0x20dc(%rbp),%rax
   18cdf:	48 89 85 d0 f8 ff ff 	mov    %rax,-0x730(%rbp)
   18ce6:	48 8d 85 1c df ff ff 	lea    -0x20e4(%rbp),%rax
   18ced:	48 89 85 d8 f8 ff ff 	mov    %rax,-0x728(%rbp)
   18cf4:	48 8d 85 18 df ff ff 	lea    -0x20e8(%rbp),%rax
   18cfb:	48 89 85 e0 f8 ff ff 	mov    %rax,-0x720(%rbp)
   18d02:	48 8d 85 14 df ff ff 	lea    -0x20ec(%rbp),%rax
   18d09:	48 89 85 e8 f8 ff ff 	mov    %rax,-0x718(%rbp)
   18d10:	48 8d 85 24 df ff ff 	lea    -0x20dc(%rbp),%rax
   18d17:	48 89 85 f0 f8 ff ff 	mov    %rax,-0x710(%rbp)
   18d1e:	48 8d 05 2f a3 00 00 	lea    0xa32f(%rip),%rax        # 23054 <g_200>
   18d25:	48 89 85 f8 f8 ff ff 	mov    %rax,-0x708(%rbp)
   18d2c:	48 c7 85 00 f9 ff ff 	movq   $0x0,-0x700(%rbp)
   18d33:	00 00 00 00 
   18d37:	48 c7 85 08 f9 ff ff 	movq   $0x0,-0x6f8(%rbp)
   18d3e:	00 00 00 00 
   18d42:	48 c7 85 10 f9 ff ff 	movq   $0x0,-0x6f0(%rbp)
   18d49:	00 00 00 00 
   18d4d:	48 8d 85 14 df ff ff 	lea    -0x20ec(%rbp),%rax
   18d54:	48 89 85 18 f9 ff ff 	mov    %rax,-0x6e8(%rbp)
   18d5b:	48 8d 85 5c e2 ff ff 	lea    -0x1da4(%rbp),%rax
   18d62:	48 89 85 20 f9 ff ff 	mov    %rax,-0x6e0(%rbp)
   18d69:	48 8d 05 e4 a2 00 00 	lea    0xa2e4(%rip),%rax        # 23054 <g_200>
   18d70:	48 89 85 28 f9 ff ff 	mov    %rax,-0x6d8(%rbp)
   18d77:	48 8d 85 18 df ff ff 	lea    -0x20e8(%rbp),%rax
   18d7e:	48 89 85 30 f9 ff ff 	mov    %rax,-0x6d0(%rbp)
   18d85:	48 8d 85 1c df ff ff 	lea    -0x20e4(%rbp),%rax
   18d8c:	48 89 85 38 f9 ff ff 	mov    %rax,-0x6c8(%rbp)
   18d93:	48 8d 85 5c e2 ff ff 	lea    -0x1da4(%rbp),%rax
   18d9a:	48 89 85 40 f9 ff ff 	mov    %rax,-0x6c0(%rbp)
   18da1:	48 8d 85 f0 df ff ff 	lea    -0x2010(%rbp),%rax
   18da8:	48 89 85 48 f9 ff ff 	mov    %rax,-0x6b8(%rbp)
   18daf:	48 8d 05 c6 a4 00 00 	lea    0xa4c6(%rip),%rax        # 2327c <g_310+0x21c>
   18db6:	48 89 85 50 f9 ff ff 	mov    %rax,-0x6b0(%rbp)
   18dbd:	48 8d 85 5c e2 ff ff 	lea    -0x1da4(%rbp),%rax
   18dc4:	48 89 85 58 f9 ff ff 	mov    %rax,-0x6a8(%rbp)
   18dcb:	48 c7 85 60 f9 ff ff 	movq   $0x0,-0x6a0(%rbp)
   18dd2:	00 00 00 00 
   18dd6:	48 8d 85 f0 df ff ff 	lea    -0x2010(%rbp),%rax
   18ddd:	48 89 85 68 f9 ff ff 	mov    %rax,-0x698(%rbp)
   18de4:	48 8d 85 24 df ff ff 	lea    -0x20dc(%rbp),%rax
   18deb:	48 89 85 70 f9 ff ff 	mov    %rax,-0x690(%rbp)
   18df2:	48 8d 85 1c df ff ff 	lea    -0x20e4(%rbp),%rax
   18df9:	48 89 85 78 f9 ff ff 	mov    %rax,-0x688(%rbp)
   18e00:	48 8d 85 24 df ff ff 	lea    -0x20dc(%rbp),%rax
   18e07:	48 89 85 80 f9 ff ff 	mov    %rax,-0x680(%rbp)
   18e0e:	48 8d 05 3f a2 00 00 	lea    0xa23f(%rip),%rax        # 23054 <g_200>
   18e15:	48 89 85 88 f9 ff ff 	mov    %rax,-0x678(%rbp)
   18e1c:	48 8d 85 24 df ff ff 	lea    -0x20dc(%rbp),%rax
   18e23:	48 89 85 90 f9 ff ff 	mov    %rax,-0x670(%rbp)
   18e2a:	48 8d 85 14 df ff ff 	lea    -0x20ec(%rbp),%rax
   18e31:	48 89 85 98 f9 ff ff 	mov    %rax,-0x668(%rbp)
   18e38:	48 8d 05 15 a6 00 00 	lea    0xa615(%rip),%rax        # 23454 <g_340>
   18e3f:	48 89 85 a0 f9 ff ff 	mov    %rax,-0x660(%rbp)
   18e46:	48 c7 85 a8 f9 ff ff 	movq   $0x0,-0x658(%rbp)
   18e4d:	00 00 00 00 
   18e51:	48 8d 05 24 a4 00 00 	lea    0xa424(%rip),%rax        # 2327c <g_310+0x21c>
   18e58:	48 89 85 b0 f9 ff ff 	mov    %rax,-0x650(%rbp)
   18e5f:	48 8d 05 ee a1 00 00 	lea    0xa1ee(%rip),%rax        # 23054 <g_200>
   18e66:	48 89 85 b8 f9 ff ff 	mov    %rax,-0x648(%rbp)
   18e6d:	48 8d 85 5c e2 ff ff 	lea    -0x1da4(%rbp),%rax
   18e74:	48 89 85 c0 f9 ff ff 	mov    %rax,-0x640(%rbp)
   18e7b:	48 8d 85 14 df ff ff 	lea    -0x20ec(%rbp),%rax
   18e82:	48 89 85 c8 f9 ff ff 	mov    %rax,-0x638(%rbp)
   18e89:	48 c7 85 d0 f9 ff ff 	movq   $0x0,-0x630(%rbp)
   18e90:	00 00 00 00 
   18e94:	48 8d 85 1c df ff ff 	lea    -0x20e4(%rbp),%rax
   18e9b:	48 89 85 d8 f9 ff ff 	mov    %rax,-0x628(%rbp)
   18ea2:	48 8d 85 5c e2 ff ff 	lea    -0x1da4(%rbp),%rax
   18ea9:	48 89 85 e0 f9 ff ff 	mov    %rax,-0x620(%rbp)
   18eb0:	48 8d 85 30 e3 ff ff 	lea    -0x1cd0(%rbp),%rax
   18eb7:	48 89 85 e8 f9 ff ff 	mov    %rax,-0x618(%rbp)
   18ebe:	48 8d 05 b7 a3 00 00 	lea    0xa3b7(%rip),%rax        # 2327c <g_310+0x21c>
   18ec5:	48 89 85 f0 f9 ff ff 	mov    %rax,-0x610(%rbp)
   18ecc:	48 8d 05 21 a4 00 00 	lea    0xa421(%rip),%rax        # 232f4 <g_310+0x294>
   18ed3:	48 89 85 f8 f9 ff ff 	mov    %rax,-0x608(%rbp)
   18eda:	48 8d 05 73 a5 00 00 	lea    0xa573(%rip),%rax        # 23454 <g_340>
   18ee1:	48 89 85 00 fa ff ff 	mov    %rax,-0x600(%rbp)
   18ee8:	48 8d 85 f0 df ff ff 	lea    -0x2010(%rbp),%rax
   18eef:	48 89 85 08 fa ff ff 	mov    %rax,-0x5f8(%rbp)
   18ef6:	48 8d 85 24 df ff ff 	lea    -0x20dc(%rbp),%rax
   18efd:	48 89 85 10 fa ff ff 	mov    %rax,-0x5f0(%rbp)
   18f04:	48 8d 85 24 df ff ff 	lea    -0x20dc(%rbp),%rax
   18f0b:	48 89 85 18 fa ff ff 	mov    %rax,-0x5e8(%rbp)
   18f12:	48 8d 85 24 df ff ff 	lea    -0x20dc(%rbp),%rax
   18f19:	48 89 85 20 fa ff ff 	mov    %rax,-0x5e0(%rbp)
   18f20:	48 8d 85 14 df ff ff 	lea    -0x20ec(%rbp),%rax
   18f27:	48 89 85 28 fa ff ff 	mov    %rax,-0x5d8(%rbp)
   18f2e:	48 8d 85 24 df ff ff 	lea    -0x20dc(%rbp),%rax
   18f35:	48 89 85 30 fa ff ff 	mov    %rax,-0x5d0(%rbp)
   18f3c:	48 8d 85 14 df ff ff 	lea    -0x20ec(%rbp),%rax
   18f43:	48 89 85 38 fa ff ff 	mov    %rax,-0x5c8(%rbp)
   18f4a:	48 c7 85 40 fa ff ff 	movq   $0x0,-0x5c0(%rbp)
   18f51:	00 00 00 00 
   18f55:	48 8d 85 30 e3 ff ff 	lea    -0x1cd0(%rbp),%rax
   18f5c:	48 89 85 48 fa ff ff 	mov    %rax,-0x5b8(%rbp)
   18f63:	48 8d 05 12 a3 00 00 	lea    0xa312(%rip),%rax        # 2327c <g_310+0x21c>
   18f6a:	48 89 85 50 fa ff ff 	mov    %rax,-0x5b0(%rbp)
   18f71:	48 8d 85 14 df ff ff 	lea    -0x20ec(%rbp),%rax
   18f78:	48 89 85 58 fa ff ff 	mov    %rax,-0x5a8(%rbp)
   18f7f:	48 8d 85 5c e2 ff ff 	lea    -0x1da4(%rbp),%rax
   18f86:	48 89 85 60 fa ff ff 	mov    %rax,-0x5a0(%rbp)
   18f8d:	48 8d 85 14 df ff ff 	lea    -0x20ec(%rbp),%rax
   18f94:	48 89 85 68 fa ff ff 	mov    %rax,-0x598(%rbp)
   18f9b:	48 8d 85 18 df ff ff 	lea    -0x20e8(%rbp),%rax
   18fa2:	48 89 85 70 fa ff ff 	mov    %rax,-0x590(%rbp)
   18fa9:	48 8d 85 24 df ff ff 	lea    -0x20dc(%rbp),%rax
   18fb0:	48 89 85 78 fa ff ff 	mov    %rax,-0x588(%rbp)
   18fb7:	48 8d 85 5c e2 ff ff 	lea    -0x1da4(%rbp),%rax
   18fbe:	48 89 85 80 fa ff ff 	mov    %rax,-0x580(%rbp)
   18fc5:	48 8d 85 f0 df ff ff 	lea    -0x2010(%rbp),%rax
   18fcc:	48 89 85 88 fa ff ff 	mov    %rax,-0x578(%rbp)
   18fd3:	48 c7 85 90 fa ff ff 	movq   $0x0,-0x570(%rbp)
   18fda:	00 00 00 00 
   18fde:	48 8d 05 0f a3 00 00 	lea    0xa30f(%rip),%rax        # 232f4 <g_310+0x294>
   18fe5:	48 89 85 98 fa ff ff 	mov    %rax,-0x568(%rbp)
   18fec:	48 c7 85 a0 fa ff ff 	movq   $0x0,-0x560(%rbp)
   18ff3:	00 00 00 00 
   18ff7:	48 8d 85 30 e3 ff ff 	lea    -0x1cd0(%rbp),%rax
   18ffe:	48 89 85 a8 fa ff ff 	mov    %rax,-0x558(%rbp)
   19005:	48 8d 85 24 df ff ff 	lea    -0x20dc(%rbp),%rax
   1900c:	48 89 85 b0 fa ff ff 	mov    %rax,-0x550(%rbp)
   19013:	48 8d 85 1c df ff ff 	lea    -0x20e4(%rbp),%rax
   1901a:	48 89 85 b8 fa ff ff 	mov    %rax,-0x548(%rbp)
   19021:	48 8d 85 18 df ff ff 	lea    -0x20e8(%rbp),%rax
   19028:	48 89 85 c0 fa ff ff 	mov    %rax,-0x540(%rbp)
   1902f:	48 8d 85 14 df ff ff 	lea    -0x20ec(%rbp),%rax
   19036:	48 89 85 c8 fa ff ff 	mov    %rax,-0x538(%rbp)
   1903d:	48 8d 85 24 df ff ff 	lea    -0x20dc(%rbp),%rax
   19044:	48 89 85 d0 fa ff ff 	mov    %rax,-0x530(%rbp)
   1904b:	48 8d 05 02 a0 00 00 	lea    0xa002(%rip),%rax        # 23054 <g_200>
   19052:	48 89 85 d8 fa ff ff 	mov    %rax,-0x528(%rbp)
   19059:	48 c7 85 e0 fa ff ff 	movq   $0x0,-0x520(%rbp)
   19060:	00 00 00 00 
   19064:	48 c7 85 e8 fa ff ff 	movq   $0x0,-0x518(%rbp)
   1906b:	00 00 00 00 
   1906f:	48 c7 85 f0 fa ff ff 	movq   $0x0,-0x510(%rbp)
   19076:	00 00 00 00 
   1907a:	48 8d 85 14 df ff ff 	lea    -0x20ec(%rbp),%rax
   19081:	48 89 85 f8 fa ff ff 	mov    %rax,-0x508(%rbp)
   19088:	48 8d 85 5c e2 ff ff 	lea    -0x1da4(%rbp),%rax
   1908f:	48 89 85 00 fb ff ff 	mov    %rax,-0x500(%rbp)
   19096:	48 8d 05 b7 9f 00 00 	lea    0x9fb7(%rip),%rax        # 23054 <g_200>
   1909d:	48 89 85 08 fb ff ff 	mov    %rax,-0x4f8(%rbp)
   190a4:	48 8d 85 18 df ff ff 	lea    -0x20e8(%rbp),%rax
   190ab:	48 89 85 10 fb ff ff 	mov    %rax,-0x4f0(%rbp)
   190b2:	48 8d 85 1c df ff ff 	lea    -0x20e4(%rbp),%rax
   190b9:	48 89 85 18 fb ff ff 	mov    %rax,-0x4e8(%rbp)
   190c0:	48 8d 85 5c e2 ff ff 	lea    -0x1da4(%rbp),%rax
   190c7:	48 89 85 20 fb ff ff 	mov    %rax,-0x4e0(%rbp)
   190ce:	48 8d 85 f0 df ff ff 	lea    -0x2010(%rbp),%rax
   190d5:	48 89 85 28 fb ff ff 	mov    %rax,-0x4d8(%rbp)
   190dc:	48 8d 05 99 a1 00 00 	lea    0xa199(%rip),%rax        # 2327c <g_310+0x21c>
   190e3:	48 89 85 30 fb ff ff 	mov    %rax,-0x4d0(%rbp)
   190ea:	48 8d 85 5c e2 ff ff 	lea    -0x1da4(%rbp),%rax
   190f1:	48 89 85 38 fb ff ff 	mov    %rax,-0x4c8(%rbp)
   190f8:	48 c7 85 40 fb ff ff 	movq   $0x0,-0x4c0(%rbp)
   190ff:	00 00 00 00 
   19103:	48 8d 85 f0 df ff ff 	lea    -0x2010(%rbp),%rax
   1910a:	48 89 85 48 fb ff ff 	mov    %rax,-0x4b8(%rbp)
   19111:	48 8d 85 24 df ff ff 	lea    -0x20dc(%rbp),%rax
   19118:	48 89 85 50 fb ff ff 	mov    %rax,-0x4b0(%rbp)
   1911f:	48 8d 85 1c df ff ff 	lea    -0x20e4(%rbp),%rax
   19126:	48 89 85 58 fb ff ff 	mov    %rax,-0x4a8(%rbp)
   1912d:	48 8d 85 24 df ff ff 	lea    -0x20dc(%rbp),%rax
   19134:	48 89 85 60 fb ff ff 	mov    %rax,-0x4a0(%rbp)
   1913b:	48 8d 05 12 9f 00 00 	lea    0x9f12(%rip),%rax        # 23054 <g_200>
   19142:	48 89 85 68 fb ff ff 	mov    %rax,-0x498(%rbp)
   19149:	48 8d 85 24 df ff ff 	lea    -0x20dc(%rbp),%rax
   19150:	48 89 85 70 fb ff ff 	mov    %rax,-0x490(%rbp)
   19157:	48 8d 85 14 df ff ff 	lea    -0x20ec(%rbp),%rax
   1915e:	48 89 85 78 fb ff ff 	mov    %rax,-0x488(%rbp)
   19165:	48 8d 05 e8 a2 00 00 	lea    0xa2e8(%rip),%rax        # 23454 <g_340>
   1916c:	48 89 85 80 fb ff ff 	mov    %rax,-0x480(%rbp)
   19173:	48 c7 85 88 fb ff ff 	movq   $0x0,-0x478(%rbp)
   1917a:	00 00 00 00 
   1917e:	48 8d 05 f7 a0 00 00 	lea    0xa0f7(%rip),%rax        # 2327c <g_310+0x21c>
   19185:	48 89 85 90 fb ff ff 	mov    %rax,-0x470(%rbp)
   1918c:	48 8d 05 c1 9e 00 00 	lea    0x9ec1(%rip),%rax        # 23054 <g_200>
   19193:	48 89 85 98 fb ff ff 	mov    %rax,-0x468(%rbp)
   1919a:	48 8d 85 5c e2 ff ff 	lea    -0x1da4(%rbp),%rax
   191a1:	48 89 85 a0 fb ff ff 	mov    %rax,-0x460(%rbp)
   191a8:	48 8d 85 14 df ff ff 	lea    -0x20ec(%rbp),%rax
   191af:	48 89 85 a8 fb ff ff 	mov    %rax,-0x458(%rbp)
   191b6:	48 c7 85 b0 fb ff ff 	movq   $0x0,-0x450(%rbp)
   191bd:	00 00 00 00 
   191c1:	48 8d 85 1c df ff ff 	lea    -0x20e4(%rbp),%rax
   191c8:	48 89 85 b8 fb ff ff 	mov    %rax,-0x448(%rbp)
   191cf:	48 8d 85 5c e2 ff ff 	lea    -0x1da4(%rbp),%rax
   191d6:	48 89 85 c0 fb ff ff 	mov    %rax,-0x440(%rbp)
   191dd:	48 8d 85 30 e3 ff ff 	lea    -0x1cd0(%rbp),%rax
   191e4:	48 89 85 c8 fb ff ff 	mov    %rax,-0x438(%rbp)
   191eb:	48 8d 05 8a a0 00 00 	lea    0xa08a(%rip),%rax        # 2327c <g_310+0x21c>
   191f2:	48 89 85 d0 fb ff ff 	mov    %rax,-0x430(%rbp)
   191f9:	48 8d 05 f4 a0 00 00 	lea    0xa0f4(%rip),%rax        # 232f4 <g_310+0x294>
   19200:	48 89 85 d8 fb ff ff 	mov    %rax,-0x428(%rbp)
   19207:	48 8d 05 46 a2 00 00 	lea    0xa246(%rip),%rax        # 23454 <g_340>
   1920e:	48 89 85 e0 fb ff ff 	mov    %rax,-0x420(%rbp)
   19215:	48 8d 85 f0 df ff ff 	lea    -0x2010(%rbp),%rax
   1921c:	48 89 85 e8 fb ff ff 	mov    %rax,-0x418(%rbp)
   19223:	48 8d 85 24 df ff ff 	lea    -0x20dc(%rbp),%rax
   1922a:	48 89 85 f0 fb ff ff 	mov    %rax,-0x410(%rbp)
   19231:	48 8d 85 24 df ff ff 	lea    -0x20dc(%rbp),%rax
   19238:	48 89 85 f8 fb ff ff 	mov    %rax,-0x408(%rbp)
   1923f:	48 8d 85 24 df ff ff 	lea    -0x20dc(%rbp),%rax
   19246:	48 89 85 00 fc ff ff 	mov    %rax,-0x400(%rbp)
   1924d:	48 8d 85 14 df ff ff 	lea    -0x20ec(%rbp),%rax
   19254:	48 89 85 08 fc ff ff 	mov    %rax,-0x3f8(%rbp)
   1925b:	48 8d 85 24 df ff ff 	lea    -0x20dc(%rbp),%rax
   19262:	48 89 85 10 fc ff ff 	mov    %rax,-0x3f0(%rbp)
   19269:	48 8d 85 14 df ff ff 	lea    -0x20ec(%rbp),%rax
   19270:	48 89 85 18 fc ff ff 	mov    %rax,-0x3e8(%rbp)
   19277:	48 c7 85 20 fc ff ff 	movq   $0x0,-0x3e0(%rbp)
   1927e:	00 00 00 00 
   19282:	48 8d 85 30 e3 ff ff 	lea    -0x1cd0(%rbp),%rax
   19289:	48 89 85 28 fc ff ff 	mov    %rax,-0x3d8(%rbp)
   19290:	48 8d 05 e5 9f 00 00 	lea    0x9fe5(%rip),%rax        # 2327c <g_310+0x21c>
   19297:	48 89 85 30 fc ff ff 	mov    %rax,-0x3d0(%rbp)
   1929e:	48 8d 85 14 df ff ff 	lea    -0x20ec(%rbp),%rax
   192a5:	48 89 85 38 fc ff ff 	mov    %rax,-0x3c8(%rbp)
   192ac:	48 8d 85 5c e2 ff ff 	lea    -0x1da4(%rbp),%rax
   192b3:	48 89 85 40 fc ff ff 	mov    %rax,-0x3c0(%rbp)
   192ba:	48 8d 85 14 df ff ff 	lea    -0x20ec(%rbp),%rax
   192c1:	48 89 85 48 fc ff ff 	mov    %rax,-0x3b8(%rbp)
   192c8:	48 8d 85 18 df ff ff 	lea    -0x20e8(%rbp),%rax
   192cf:	48 89 85 50 fc ff ff 	mov    %rax,-0x3b0(%rbp)
   192d6:	48 8d 85 24 df ff ff 	lea    -0x20dc(%rbp),%rax
   192dd:	48 89 85 58 fc ff ff 	mov    %rax,-0x3a8(%rbp)
   192e4:	48 8d 85 5c e2 ff ff 	lea    -0x1da4(%rbp),%rax
   192eb:	48 89 85 60 fc ff ff 	mov    %rax,-0x3a0(%rbp)
   192f2:	48 8d 85 f0 df ff ff 	lea    -0x2010(%rbp),%rax
   192f9:	48 89 85 68 fc ff ff 	mov    %rax,-0x398(%rbp)
   19300:	48 c7 85 70 fc ff ff 	movq   $0x0,-0x390(%rbp)
   19307:	00 00 00 00 
   1930b:	48 8d 05 e2 9f 00 00 	lea    0x9fe2(%rip),%rax        # 232f4 <g_310+0x294>
   19312:	48 89 85 78 fc ff ff 	mov    %rax,-0x388(%rbp)
   19319:	48 c7 85 80 fc ff ff 	movq   $0x0,-0x380(%rbp)
   19320:	00 00 00 00 
   19324:	48 8d 85 30 e3 ff ff 	lea    -0x1cd0(%rbp),%rax
   1932b:	48 89 85 88 fc ff ff 	mov    %rax,-0x378(%rbp)
   19332:	48 8d 85 24 df ff ff 	lea    -0x20dc(%rbp),%rax
   19339:	48 89 85 90 fc ff ff 	mov    %rax,-0x370(%rbp)
   19340:	48 8d 85 1c df ff ff 	lea    -0x20e4(%rbp),%rax
   19347:	48 89 85 98 fc ff ff 	mov    %rax,-0x368(%rbp)
   1934e:	48 8d 85 18 df ff ff 	lea    -0x20e8(%rbp),%rax
   19355:	48 89 85 a0 fc ff ff 	mov    %rax,-0x360(%rbp)
   1935c:	48 8d 85 14 df ff ff 	lea    -0x20ec(%rbp),%rax
   19363:	48 89 85 a8 fc ff ff 	mov    %rax,-0x358(%rbp)
   1936a:	48 8d 85 24 df ff ff 	lea    -0x20dc(%rbp),%rax
   19371:	48 89 85 b0 fc ff ff 	mov    %rax,-0x350(%rbp)
   19378:	48 8d 05 d5 9c 00 00 	lea    0x9cd5(%rip),%rax        # 23054 <g_200>
   1937f:	48 89 85 b8 fc ff ff 	mov    %rax,-0x348(%rbp)
   19386:	48 c7 85 c0 fc ff ff 	movq   $0x0,-0x340(%rbp)
   1938d:	00 00 00 00 
   19391:	48 c7 85 c8 fc ff ff 	movq   $0x0,-0x338(%rbp)
   19398:	00 00 00 00 
   1939c:	48 c7 85 d0 fc ff ff 	movq   $0x0,-0x330(%rbp)
   193a3:	00 00 00 00 
   193a7:	48 8d 85 14 df ff ff 	lea    -0x20ec(%rbp),%rax
   193ae:	48 89 85 d8 fc ff ff 	mov    %rax,-0x328(%rbp)
   193b5:	48 8d 85 5c e2 ff ff 	lea    -0x1da4(%rbp),%rax
   193bc:	48 89 85 e0 fc ff ff 	mov    %rax,-0x320(%rbp)
   193c3:	48 8d 05 8a 9c 00 00 	lea    0x9c8a(%rip),%rax        # 23054 <g_200>
   193ca:	48 89 85 e8 fc ff ff 	mov    %rax,-0x318(%rbp)
   193d1:	48 8d 85 18 df ff ff 	lea    -0x20e8(%rbp),%rax
   193d8:	48 89 85 f0 fc ff ff 	mov    %rax,-0x310(%rbp)
   193df:	48 8d 85 1c df ff ff 	lea    -0x20e4(%rbp),%rax
   193e6:	48 89 85 f8 fc ff ff 	mov    %rax,-0x308(%rbp)
   193ed:	48 8d 85 5c e2 ff ff 	lea    -0x1da4(%rbp),%rax
   193f4:	48 89 85 00 fd ff ff 	mov    %rax,-0x300(%rbp)
   193fb:	48 8d 85 f0 df ff ff 	lea    -0x2010(%rbp),%rax
   19402:	48 89 85 08 fd ff ff 	mov    %rax,-0x2f8(%rbp)
   19409:	48 8d 05 6c 9e 00 00 	lea    0x9e6c(%rip),%rax        # 2327c <g_310+0x21c>
   19410:	48 89 85 10 fd ff ff 	mov    %rax,-0x2f0(%rbp)
   19417:	48 8d 85 5c e2 ff ff 	lea    -0x1da4(%rbp),%rax
   1941e:	48 89 85 18 fd ff ff 	mov    %rax,-0x2e8(%rbp)
   19425:	48 c7 85 20 fd ff ff 	movq   $0x0,-0x2e0(%rbp)
   1942c:	00 00 00 00 
   19430:	48 8d 85 f0 df ff ff 	lea    -0x2010(%rbp),%rax
   19437:	48 89 85 28 fd ff ff 	mov    %rax,-0x2d8(%rbp)
   1943e:	48 8d 85 24 df ff ff 	lea    -0x20dc(%rbp),%rax
   19445:	48 89 85 30 fd ff ff 	mov    %rax,-0x2d0(%rbp)
   1944c:	48 8d 85 1c df ff ff 	lea    -0x20e4(%rbp),%rax
   19453:	48 89 85 38 fd ff ff 	mov    %rax,-0x2c8(%rbp)
   1945a:	48 8d 85 24 df ff ff 	lea    -0x20dc(%rbp),%rax
   19461:	48 89 85 40 fd ff ff 	mov    %rax,-0x2c0(%rbp)
   19468:	48 8d 05 e5 9b 00 00 	lea    0x9be5(%rip),%rax        # 23054 <g_200>
   1946f:	48 89 85 48 fd ff ff 	mov    %rax,-0x2b8(%rbp)
   19476:	48 8d 85 24 df ff ff 	lea    -0x20dc(%rbp),%rax
   1947d:	48 89 85 50 fd ff ff 	mov    %rax,-0x2b0(%rbp)
   19484:	48 8d 85 14 df ff ff 	lea    -0x20ec(%rbp),%rax
   1948b:	48 89 85 58 fd ff ff 	mov    %rax,-0x2a8(%rbp)
   19492:	48 8d 05 bb 9f 00 00 	lea    0x9fbb(%rip),%rax        # 23454 <g_340>
   19499:	48 89 85 60 fd ff ff 	mov    %rax,-0x2a0(%rbp)
   194a0:	48 c7 85 68 fd ff ff 	movq   $0x0,-0x298(%rbp)
   194a7:	00 00 00 00 
   194ab:	48 8d 05 ca 9d 00 00 	lea    0x9dca(%rip),%rax        # 2327c <g_310+0x21c>
   194b2:	48 89 85 70 fd ff ff 	mov    %rax,-0x290(%rbp)
   194b9:	48 8d 05 94 9b 00 00 	lea    0x9b94(%rip),%rax        # 23054 <g_200>
   194c0:	48 89 85 78 fd ff ff 	mov    %rax,-0x288(%rbp)
   194c7:	48 8d 85 5c e2 ff ff 	lea    -0x1da4(%rbp),%rax
   194ce:	48 89 85 80 fd ff ff 	mov    %rax,-0x280(%rbp)
   194d5:	48 8d 85 14 df ff ff 	lea    -0x20ec(%rbp),%rax
   194dc:	48 89 85 88 fd ff ff 	mov    %rax,-0x278(%rbp)
   194e3:	48 c7 85 90 fd ff ff 	movq   $0x0,-0x270(%rbp)
   194ea:	00 00 00 00 
   194ee:	48 8d 85 1c df ff ff 	lea    -0x20e4(%rbp),%rax
   194f5:	48 89 85 98 fd ff ff 	mov    %rax,-0x268(%rbp)
   194fc:	48 8d 85 5c e2 ff ff 	lea    -0x1da4(%rbp),%rax
   19503:	48 89 85 a0 fd ff ff 	mov    %rax,-0x260(%rbp)
   1950a:	48 8d 85 30 e3 ff ff 	lea    -0x1cd0(%rbp),%rax
   19511:	48 89 85 a8 fd ff ff 	mov    %rax,-0x258(%rbp)
   19518:	48 8d 05 5d 9d 00 00 	lea    0x9d5d(%rip),%rax        # 2327c <g_310+0x21c>
   1951f:	48 89 85 b0 fd ff ff 	mov    %rax,-0x250(%rbp)
   19526:	48 8d 05 c7 9d 00 00 	lea    0x9dc7(%rip),%rax        # 232f4 <g_310+0x294>
   1952d:	48 89 85 b8 fd ff ff 	mov    %rax,-0x248(%rbp)
   19534:	48 8d 05 19 9f 00 00 	lea    0x9f19(%rip),%rax        # 23454 <g_340>
   1953b:	48 89 85 c0 fd ff ff 	mov    %rax,-0x240(%rbp)
   19542:	48 8d 85 f0 df ff ff 	lea    -0x2010(%rbp),%rax
   19549:	48 89 85 c8 fd ff ff 	mov    %rax,-0x238(%rbp)
   19550:	48 8d 85 24 df ff ff 	lea    -0x20dc(%rbp),%rax
   19557:	48 89 85 d0 fd ff ff 	mov    %rax,-0x230(%rbp)
   1955e:	48 8d 85 24 df ff ff 	lea    -0x20dc(%rbp),%rax
   19565:	48 89 85 d8 fd ff ff 	mov    %rax,-0x228(%rbp)
   1956c:	48 8d 85 24 df ff ff 	lea    -0x20dc(%rbp),%rax
   19573:	48 89 85 e0 fd ff ff 	mov    %rax,-0x220(%rbp)
   1957a:	48 8d 85 14 df ff ff 	lea    -0x20ec(%rbp),%rax
   19581:	48 89 85 e8 fd ff ff 	mov    %rax,-0x218(%rbp)
   19588:	48 8d 85 24 df ff ff 	lea    -0x20dc(%rbp),%rax
   1958f:	48 89 85 f0 fd ff ff 	mov    %rax,-0x210(%rbp)
   19596:	48 8d 85 14 df ff ff 	lea    -0x20ec(%rbp),%rax
   1959d:	48 89 85 f8 fd ff ff 	mov    %rax,-0x208(%rbp)
   195a4:	48 c7 85 00 fe ff ff 	movq   $0x0,-0x200(%rbp)
   195ab:	00 00 00 00 
   195af:	48 8d 85 30 e3 ff ff 	lea    -0x1cd0(%rbp),%rax
   195b6:	48 89 85 08 fe ff ff 	mov    %rax,-0x1f8(%rbp)
   195bd:	48 8d 05 b8 9c 00 00 	lea    0x9cb8(%rip),%rax        # 2327c <g_310+0x21c>
   195c4:	48 89 85 10 fe ff ff 	mov    %rax,-0x1f0(%rbp)
   195cb:	48 8d 85 14 df ff ff 	lea    -0x20ec(%rbp),%rax
   195d2:	48 89 85 18 fe ff ff 	mov    %rax,-0x1e8(%rbp)
   195d9:	48 8d 85 5c e2 ff ff 	lea    -0x1da4(%rbp),%rax
   195e0:	48 89 85 20 fe ff ff 	mov    %rax,-0x1e0(%rbp)
   195e7:	48 8d 85 14 df ff ff 	lea    -0x20ec(%rbp),%rax
   195ee:	48 89 85 28 fe ff ff 	mov    %rax,-0x1d8(%rbp)
   195f5:	48 8d 85 18 df ff ff 	lea    -0x20e8(%rbp),%rax
   195fc:	48 89 85 30 fe ff ff 	mov    %rax,-0x1d0(%rbp)
   19603:	48 8d 85 24 df ff ff 	lea    -0x20dc(%rbp),%rax
   1960a:	48 89 85 38 fe ff ff 	mov    %rax,-0x1c8(%rbp)
   19611:	48 8d 85 5c e2 ff ff 	lea    -0x1da4(%rbp),%rax
   19618:	48 89 85 40 fe ff ff 	mov    %rax,-0x1c0(%rbp)
   1961f:	48 8d 85 f0 df ff ff 	lea    -0x2010(%rbp),%rax
   19626:	48 89 85 48 fe ff ff 	mov    %rax,-0x1b8(%rbp)
   1962d:	48 c7 85 50 fe ff ff 	movq   $0x0,-0x1b0(%rbp)
   19634:	00 00 00 00 
   19638:	48 8d 05 15 9a 00 00 	lea    0x9a15(%rip),%rax        # 23054 <g_200>
   1963f:	48 89 85 58 fe ff ff 	mov    %rax,-0x1a8(%rbp)
   19646:	48 8d 85 18 df ff ff 	lea    -0x20e8(%rbp),%rax
   1964d:	48 89 85 60 fe ff ff 	mov    %rax,-0x1a0(%rbp)
   19654:	48 8d 05 7d 9c 00 00 	lea    0x9c7d(%rip),%rax        # 232d8 <g_310+0x278>
   1965b:	48 89 85 68 fe ff ff 	mov    %rax,-0x198(%rbp)
   19662:	48 8d 85 5c e2 ff ff 	lea    -0x1da4(%rbp),%rax
   19669:	48 89 85 70 fe ff ff 	mov    %rax,-0x190(%rbp)
   19670:	48 8d 85 5c e2 ff ff 	lea    -0x1da4(%rbp),%rax
   19677:	48 89 85 78 fe ff ff 	mov    %rax,-0x188(%rbp)
   1967e:	48 8d 85 1c df ff ff 	lea    -0x20e4(%rbp),%rax
   19685:	48 89 85 80 fe ff ff 	mov    %rax,-0x180(%rbp)
   1968c:	48 8d 85 30 e3 ff ff 	lea    -0x1cd0(%rbp),%rax
   19693:	48 89 85 88 fe ff ff 	mov    %rax,-0x178(%rbp)
   1969a:	48 8d 85 5c e2 ff ff 	lea    -0x1da4(%rbp),%rax
   196a1:	48 89 85 90 fe ff ff 	mov    %rax,-0x170(%rbp)
   196a8:	48 8d 05 a5 9d 00 00 	lea    0x9da5(%rip),%rax        # 23454 <g_340>
   196af:	48 89 85 98 fe ff ff 	mov    %rax,-0x168(%rbp)
   196b6:	48 8d 85 18 df ff ff 	lea    -0x20e8(%rbp),%rax
   196bd:	48 89 85 a0 fe ff ff 	mov    %rax,-0x160(%rbp)
   196c4:	48 8d 85 30 e3 ff ff 	lea    -0x1cd0(%rbp),%rax
   196cb:	48 89 85 a8 fe ff ff 	mov    %rax,-0x158(%rbp)
   196d2:	48 8d 05 7b 9d 00 00 	lea    0x9d7b(%rip),%rax        # 23454 <g_340>
   196d9:	48 89 85 b0 fe ff ff 	mov    %rax,-0x150(%rbp)
   196e0:	48 8d 85 30 e3 ff ff 	lea    -0x1cd0(%rbp),%rax
   196e7:	48 89 85 b8 fe ff ff 	mov    %rax,-0x148(%rbp)
   196ee:	48 8d 85 18 df ff ff 	lea    -0x20e8(%rbp),%rax
   196f5:	48 89 85 c0 fe ff ff 	mov    %rax,-0x140(%rbp)
   196fc:	48 8d 05 51 9d 00 00 	lea    0x9d51(%rip),%rax        # 23454 <g_340>
   19703:	48 89 85 c8 fe ff ff 	mov    %rax,-0x138(%rbp)
   1970a:	48 8d 85 24 df ff ff 	lea    -0x20dc(%rbp),%rax
   19711:	48 89 85 d0 fe ff ff 	mov    %rax,-0x130(%rbp)
   19718:	48 8d 85 5c e2 ff ff 	lea    -0x1da4(%rbp),%rax
   1971f:	48 89 85 d8 fe ff ff 	mov    %rax,-0x128(%rbp)
   19726:	48 8d 85 30 e3 ff ff 	lea    -0x1cd0(%rbp),%rax
   1972d:	48 83 c0 04          	add    $0x4,%rax
   19731:	48 89 85 e0 fe ff ff 	mov    %rax,-0x120(%rbp)
   19738:	48 8d 85 24 df ff ff 	lea    -0x20dc(%rbp),%rax
   1973f:	48 89 85 e8 fe ff ff 	mov    %rax,-0x118(%rbp)
   19746:	48 c7 85 f0 fe ff ff 	movq   $0x0,-0x110(%rbp)
   1974d:	00 00 00 00 
   19751:	48 8d 85 18 df ff ff 	lea    -0x20e8(%rbp),%rax
   19758:	48 89 85 f8 fe ff ff 	mov    %rax,-0x108(%rbp)
   1975f:	48 8d 85 18 df ff ff 	lea    -0x20e8(%rbp),%rax
   19766:	48 89 85 00 ff ff ff 	mov    %rax,-0x100(%rbp)
   1976d:	48 8d 85 24 df ff ff 	lea    -0x20dc(%rbp),%rax
   19774:	48 89 85 08 ff ff ff 	mov    %rax,-0xf8(%rbp)
   1977b:	48 8d 85 5c e2 ff ff 	lea    -0x1da4(%rbp),%rax
   19782:	48 89 85 10 ff ff ff 	mov    %rax,-0xf0(%rbp)
   19789:	48 8d 85 5c e2 ff ff 	lea    -0x1da4(%rbp),%rax
   19790:	48 89 85 18 ff ff ff 	mov    %rax,-0xe8(%rbp)
   19797:	48 8d 85 5c e2 ff ff 	lea    -0x1da4(%rbp),%rax
   1979e:	48 89 85 20 ff ff ff 	mov    %rax,-0xe0(%rbp)
   197a5:	48 8d 05 a8 9c 00 00 	lea    0x9ca8(%rip),%rax        # 23454 <g_340>
   197ac:	48 89 85 28 ff ff ff 	mov    %rax,-0xd8(%rbp)
   197b3:	48 8d 85 5c e2 ff ff 	lea    -0x1da4(%rbp),%rax
   197ba:	48 89 85 30 ff ff ff 	mov    %rax,-0xd0(%rbp)
   197c1:	48 8d 85 30 e3 ff ff 	lea    -0x1cd0(%rbp),%rax
   197c8:	48 89 85 38 ff ff ff 	mov    %rax,-0xc8(%rbp)
   197cf:	48 8d 85 24 df ff ff 	lea    -0x20dc(%rbp),%rax
   197d6:	48 89 85 40 ff ff ff 	mov    %rax,-0xc0(%rbp)
   197dd:	48 8d 85 30 e3 ff ff 	lea    -0x1cd0(%rbp),%rax
   197e4:	48 89 85 48 ff ff ff 	mov    %rax,-0xb8(%rbp)
   197eb:	48 c7 85 50 ff ff ff 	movq   $0x0,-0xb0(%rbp)
   197f2:	00 00 00 00 
   197f6:	48 8d 05 57 9c 00 00 	lea    0x9c57(%rip),%rax        # 23454 <g_340>
   197fd:	48 89 85 58 ff ff ff 	mov    %rax,-0xa8(%rbp)
   19804:	48 8d 85 18 df ff ff 	lea    -0x20e8(%rbp),%rax
   1980b:	48 89 85 60 ff ff ff 	mov    %rax,-0xa0(%rbp)
   19812:	48 8d 85 30 e3 ff ff 	lea    -0x1cd0(%rbp),%rax
   19819:	48 89 85 68 ff ff ff 	mov    %rax,-0x98(%rbp)
   19820:	48 8d 85 18 df ff ff 	lea    -0x20e8(%rbp),%rax
   19827:	48 89 85 70 ff ff ff 	mov    %rax,-0x90(%rbp)
   1982e:	48 8d 85 5c e2 ff ff 	lea    -0x1da4(%rbp),%rax
   19835:	48 89 85 78 ff ff ff 	mov    %rax,-0x88(%rbp)
   1983c:	48 8d 85 18 df ff ff 	lea    -0x20e8(%rbp),%rax
   19843:	48 89 45 80          	mov    %rax,-0x80(%rbp)
   19847:	48 8d 05 8a 9a 00 00 	lea    0x9a8a(%rip),%rax        # 232d8 <g_310+0x278>
   1984e:	48 89 45 88          	mov    %rax,-0x78(%rbp)
   19852:	48 c7 45 90 00 00 00 	movq   $0x0,-0x70(%rbp)
   19859:	00 
   1985a:	48 8d 05 f3 97 00 00 	lea    0x97f3(%rip),%rax        # 23054 <g_200>
   19861:	48 89 45 98          	mov    %rax,-0x68(%rbp)
   19865:	48 8d 85 24 df ff ff 	lea    -0x20dc(%rbp),%rax
   1986c:	48 89 45 a0          	mov    %rax,-0x60(%rbp)
   19870:	48 8d 85 24 df ff ff 	lea    -0x20dc(%rbp),%rax
   19877:	48 89 45 a8          	mov    %rax,-0x58(%rbp)
   1987b:	48 b8 0e c7 44 89 aa 	movabs $0xb43f70aa8944c70e,%rax
   19882:	70 3f b4 
   19885:	48 89 85 e0 e1 ff ff 	mov    %rax,-0x1e20(%rbp)
   1988c:	48 c7 05 b1 97 00 00 	movq   $0x0,0x97b1(%rip)        # 23048 <g_144>
   19893:	00 00 00 00 
   19897:	e9 b6 00 00 00       	jmpq   19952 <func_61+0x25c4>
   1989c:	48 8d 05 ed bf 00 00 	lea    0xbfed(%rip),%rax        # 25890 <g_105>
   198a3:	48 89 85 f0 e1 ff ff 	mov    %rax,-0x1e10(%rbp)
   198aa:	48 8d 05 97 97 00 00 	lea    0x9797(%rip),%rax        # 23048 <g_144>
   198b1:	48 89 85 00 e0 ff ff 	mov    %rax,-0x2000(%rbp)
   198b8:	48 8d 85 00 e0 ff ff 	lea    -0x2000(%rbp),%rax
   198bf:	48 89 85 08 e0 ff ff 	mov    %rax,-0x1ff8(%rbp)
   198c6:	48 8d 85 08 e0 ff ff 	lea    -0x1ff8(%rbp),%rax
   198cd:	48 89 85 f8 e1 ff ff 	mov    %rax,-0x1e08(%rbp)
   198d4:	48 8d 85 70 e3 ff ff 	lea    -0x1c90(%rbp),%rax
   198db:	48 83 c0 08          	add    $0x8,%rax
   198df:	48 89 85 00 e2 ff ff 	mov    %rax,-0x1e00(%rbp)
   198e6:	c7 85 30 e4 ff ff f5 	movl   $0x8c9dc0f5,-0x1bd0(%rbp)
   198ed:	c0 9d 8c 
   198f0:	c7 85 34 e4 ff ff f4 	movl   $0xcf7481f4,-0x1bcc(%rbp)
   198f7:	81 74 cf 
   198fa:	c7 85 38 e4 ff ff f4 	movl   $0xcf7481f4,-0x1bc8(%rbp)
   19901:	81 74 cf 
   19904:	c7 85 3c e4 ff ff f5 	movl   $0x8c9dc0f5,-0x1bc4(%rbp)
   1990b:	c0 9d 8c 
   1990e:	c7 85 40 e4 ff ff f4 	movl   $0xcf7481f4,-0x1bc0(%rbp)
   19915:	81 74 cf 
   19918:	c7 85 44 e4 ff ff f4 	movl   $0xcf7481f4,-0x1bbc(%rbp)
   1991f:	81 74 cf 
   19922:	48 8b 05 d7 bf 00 00 	mov    0xbfd7(%rip),%rax        # 25900 <g_257>
   19929:	48 8b 10             	mov    (%rax),%rdx
   1992c:	48 8b 85 f0 e1 ff ff 	mov    -0x1e10(%rbp),%rax
   19933:	48 89 10             	mov    %rdx,(%rax)
   19936:	48 8b 05 0b 97 00 00 	mov    0x970b(%rip),%rax        # 23048 <g_144>
   1993d:	be 08 00 00 00       	mov    $0x8,%esi
   19942:	89 c7                	mov    %eax,%edi
   19944:	e8 87 25 ff ff       	callq  bed0 <safe_sub_func_uint32_t_u_u>
   19949:	89 c0                	mov    %eax,%eax
   1994b:	48 89 05 f6 96 00 00 	mov    %rax,0x96f6(%rip)        # 23048 <g_144>
   19952:	48 8b 05 ef 96 00 00 	mov    0x96ef(%rip),%rax        # 23048 <g_144>
   19959:	48 83 f8 f9          	cmp    $0xfffffffffffffff9,%rax
   1995d:	0f 84 39 ff ff ff    	je     1989c <func_61+0x250e>
   19963:	48 8b 85 d8 de ff ff 	mov    -0x2128(%rbp),%rax
   1996a:	8b 00                	mov    (%rax),%eax
   1996c:	89 c3                	mov    %eax,%ebx
   1996e:	48 8b 85 28 e1 ff ff 	mov    -0x1ed8(%rbp),%rax
   19975:	48 8d 15 04 bf 00 00 	lea    0xbf04(%rip),%rdx        # 25880 <g_88>
   1997c:	48 89 10             	mov    %rdx,(%rax)
   1997f:	48 8b 85 28 e1 ff ff 	mov    -0x1ed8(%rbp),%rax
   19986:	48 8b 00             	mov    (%rax),%rax
   19989:	48 89 85 40 e1 ff ff 	mov    %rax,-0x1ec0(%rbp)
   19990:	48 8b 85 40 e1 ff ff 	mov    -0x1ec0(%rbp),%rax
   19997:	48 3b 85 c0 e1 ff ff 	cmp    -0x1e40(%rbp),%rax
   1999e:	0f 94 c0             	sete   %al
   199a1:	0f b6 c0             	movzbl %al,%eax
   199a4:	be 08 00 00 00       	mov    $0x8,%esi
   199a9:	89 c7                	mov    %eax,%edi
   199ab:	e8 7a 1b ff ff       	callq  b52a <safe_rshift_func_int16_t_s_s>
   199b0:	09 d8                	or     %ebx,%eax
   199b2:	0f be d0             	movsbl %al,%edx
   199b5:	8b 85 e8 de ff ff    	mov    -0x2118(%rbp),%eax
   199bb:	0f be c0             	movsbl %al,%eax
   199be:	89 d6                	mov    %edx,%esi
   199c0:	89 c7                	mov    %eax,%edi
   199c2:	e8 6a 18 ff ff       	callq  b231 <safe_mod_func_int8_t_s_s>
   199c7:	8b 95 68 ec ff ff    	mov    -0x1398(%rbp),%edx
   199cd:	48 8b 85 40 e1 ff ff 	mov    -0x1ec0(%rbp),%rax
   199d4:	48 8b 00             	mov    (%rax),%rax
   199d7:	8b 00                	mov    (%rax),%eax
   199d9:	09 d0                	or     %edx,%eax
   199db:	89 85 68 ec ff ff    	mov    %eax,-0x1398(%rbp)
   199e1:	0f b7 85 02 df ff ff 	movzwl -0x20fe(%rbp),%eax
   199e8:	0f b7 c0             	movzwl %ax,%eax
   199eb:	89 c6                	mov    %eax,%esi
   199ed:	bf 06 00 00 00       	mov    $0x6,%edi
   199f2:	e8 83 24 ff ff       	callq  be7a <safe_rshift_func_uint16_t_u_u>
   199f7:	48 8b 85 d0 e1 ff ff 	mov    -0x1e30(%rbp),%rax
   199fe:	8b 10                	mov    (%rax),%edx
   19a00:	0f bf 85 e0 de ff ff 	movswl -0x2120(%rbp),%eax
   19a07:	21 c2                	and    %eax,%edx
   19a09:	48 8b 85 d0 e1 ff ff 	mov    -0x1e30(%rbp),%rax
   19a10:	89 10                	mov    %edx,(%rax)
   19a12:	48 8b 85 d0 e1 ff ff 	mov    -0x1e30(%rbp),%rax
   19a19:	8b 00                	mov    (%rax),%eax
   19a1b:	48 8b 15 1e 96 00 00 	mov    0x961e(%rip),%rdx        # 23040 <g_121>
   19a22:	48 83 fa 01          	cmp    $0x1,%rdx
   19a26:	0f 96 c2             	setbe  %dl
   19a29:	0f b6 d2             	movzbl %dl,%edx
   19a2c:	39 d0                	cmp    %edx,%eax
   19a2e:	72 08                	jb     19a38 <func_61+0x26aa>
   19a30:	8b 85 f8 df ff ff    	mov    -0x2008(%rbp),%eax
   19a36:	85 c0                	test   %eax,%eax
   19a38:	ba 00 00 00 00       	mov    $0x0,%edx
   19a3d:	8b 85 f0 df ff ff    	mov    -0x2010(%rbp),%eax
   19a43:	21 d0                	and    %edx,%eax
   19a45:	89 85 f0 df ff ff    	mov    %eax,-0x2010(%rbp)
   19a4b:	8b 85 f0 df ff ff    	mov    -0x2010(%rbp),%eax
   19a51:	85 c0                	test   %eax,%eax
   19a53:	0f 84 25 01 00 00    	je     19b7e <func_61+0x27f0>
   19a59:	c7 85 ec de ff ff 00 	movl   $0x0,-0x2114(%rbp)
   19a60:	00 00 00 
   19a63:	83 bd ec de ff ff 30 	cmpl   $0x30,-0x2114(%rbp)
   19a6a:	0f 85 cf 01 00 00    	jne    19c3f <func_61+0x28b1>
   19a70:	c7 85 30 e4 ff ff fb 	movl   $0xfffffffb,-0x1bd0(%rbp)
   19a77:	ff ff ff 
   19a7a:	c7 85 34 e4 ff ff fb 	movl   $0xfffffffb,-0x1bcc(%rbp)
   19a81:	ff ff ff 
   19a84:	c7 85 38 e4 ff ff dd 	movl   $0xf0b17ddd,-0x1bc8(%rbp)
   19a8b:	7d b1 f0 
   19a8e:	c7 85 3c e4 ff ff ff 	movl   $0xffffffff,-0x1bc4(%rbp)
   19a95:	ff ff ff 
   19a98:	c7 85 40 e4 ff ff 2a 	movl   $0xb9b0aa2a,-0x1bc0(%rbp)
   19a9f:	aa b0 b9 
   19aa2:	c7 85 44 e4 ff ff f8 	movl   $0xfffffff8,-0x1bbc(%rbp)
   19aa9:	ff ff ff 
   19aac:	c7 85 48 e4 ff ff 2a 	movl   $0xb9b0aa2a,-0x1bb8(%rbp)
   19ab3:	aa b0 b9 
   19ab6:	c7 85 4c e4 ff ff dd 	movl   $0xf0b17ddd,-0x1bb4(%rbp)
   19abd:	7d b1 f0 
   19ac0:	c7 85 50 e4 ff ff 2a 	movl   $0xb9b0aa2a,-0x1bb0(%rbp)
   19ac7:	aa b0 b9 
   19aca:	c7 85 54 e4 ff ff dd 	movl   $0xf0b17ddd,-0x1bac(%rbp)
   19ad1:	7d b1 f0 
   19ad4:	c7 85 58 e4 ff ff dd 	movl   $0xf0b17ddd,-0x1ba8(%rbp)
   19adb:	7d b1 f0 
   19ade:	c7 85 5c e4 ff ff 2a 	movl   $0xb9b0aa2a,-0x1ba4(%rbp)
   19ae5:	aa b0 b9 
   19ae8:	c7 85 60 e4 ff ff fb 	movl   $0xfffffffb,-0x1ba0(%rbp)
   19aef:	ff ff ff 
   19af2:	c7 85 64 e4 ff ff dd 	movl   $0xf0b17ddd,-0x1b9c(%rbp)
   19af9:	7d b1 f0 
   19afc:	c7 85 68 e4 ff ff ff 	movl   $0xffffffff,-0x1b98(%rbp)
   19b03:	ff ff ff 
   19b06:	c7 85 6c e4 ff ff dd 	movl   $0xf0b17ddd,-0x1b94(%rbp)
   19b0d:	7d b1 f0 
   19b10:	c7 85 70 e4 ff ff dd 	movl   $0xf0b17ddd,-0x1b90(%rbp)
   19b17:	7d b1 f0 
   19b1a:	c7 85 74 e4 ff ff f8 	movl   $0xfffffff8,-0x1b8c(%rbp)
   19b21:	ff ff ff 
   19b24:	c7 85 78 e4 ff ff ff 	movl   $0xffffffff,-0x1b88(%rbp)
   19b2b:	ff ff ff 
   19b2e:	c7 85 7c e4 ff ff ff 	movl   $0xffffffff,-0x1b84(%rbp)
   19b35:	ff ff ff 
   19b38:	c7 85 80 e4 ff ff fb 	movl   $0xfffffffb,-0x1b80(%rbp)
   19b3f:	ff ff ff 
   19b42:	c7 85 84 e4 ff ff fb 	movl   $0xfffffffb,-0x1b7c(%rbp)
   19b49:	ff ff ff 
   19b4c:	c7 85 88 e4 ff ff dd 	movl   $0xf0b17ddd,-0x1b78(%rbp)
   19b53:	7d b1 f0 
   19b56:	c7 85 8c e4 ff ff ff 	movl   $0xffffffff,-0x1b74(%rbp)
   19b5d:	ff ff ff 
   19b60:	48 8b 05 89 bd 00 00 	mov    0xbd89(%rip),%rax        # 258f0 <g_199>
   19b67:	8b 08                	mov    (%rax),%ecx
   19b69:	8b 95 88 e4 ff ff    	mov    -0x1b78(%rbp),%edx
   19b6f:	09 ca                	or     %ecx,%edx
   19b71:	89 10                	mov    %edx,(%rax)
   19b73:	8b 05 7b 97 00 00    	mov    0x977b(%rip),%eax        # 232f4 <g_310+0x294>
   19b79:	e9 df 25 00 00       	jmpq   1c15d <func_61+0x4dcf>
   19b7e:	48 8d 85 02 df ff ff 	lea    -0x20fe(%rbp),%rax
   19b85:	48 89 85 e8 e1 ff ff 	mov    %rax,-0x1e18(%rbp)
   19b8c:	c7 85 b4 df ff ff ff 	movl   $0xffffffff,-0x204c(%rbp)
   19b93:	ff ff ff 
   19b96:	48 8b 85 d0 df ff ff 	mov    -0x2030(%rbp),%rax
   19b9d:	0f b7 10             	movzwl (%rax),%edx
   19ba0:	83 ea 01             	sub    $0x1,%edx
   19ba3:	66 89 10             	mov    %dx,(%rax)
   19ba6:	0f b7 00             	movzwl (%rax),%eax
   19ba9:	66 85 c0             	test   %ax,%ax
   19bac:	74 3a                	je     19be8 <func_61+0x285a>
   19bae:	48 8b 85 20 e0 ff ff 	mov    -0x1fe0(%rbp),%rax
   19bb5:	0f b7 00             	movzwl (%rax),%eax
   19bb8:	8d 50 ff             	lea    -0x1(%rax),%edx
   19bbb:	48 8b 85 20 e0 ff ff 	mov    -0x1fe0(%rbp),%rax
   19bc2:	66 89 10             	mov    %dx,(%rax)
   19bc5:	48 8b 85 20 e0 ff ff 	mov    -0x1fe0(%rbp),%rax
   19bcc:	0f b7 10             	movzwl (%rax),%edx
   19bcf:	48 8b 85 e8 e1 ff ff 	mov    -0x1e18(%rbp),%rax
   19bd6:	66 89 10             	mov    %dx,(%rax)
   19bd9:	48 8b 85 e8 e1 ff ff 	mov    -0x1e18(%rbp),%rax
   19be0:	0f b7 00             	movzwl (%rax),%eax
   19be3:	66 85 c0             	test   %ax,%ax
   19be6:	75 2b                	jne    19c13 <func_61+0x2885>
   19be8:	48 8b 95 d8 e4 ff ff 	mov    -0x1b28(%rbp),%rdx
   19bef:	48 8b 85 38 e1 ff ff 	mov    -0x1ec8(%rbp),%rax
   19bf6:	48 8b 00             	mov    (%rax),%rax
   19bf9:	48 39 c2             	cmp    %rax,%rdx
   19bfc:	0f 95 c0             	setne  %al
   19bff:	0f b6 c0             	movzbl %al,%eax
   19c02:	89 c6                	mov    %eax,%esi
   19c04:	bf 01 00 00 00       	mov    $0x1,%edi
   19c09:	e8 55 19 ff ff       	callq  b563 <safe_rshift_func_int16_t_s_u>
   19c0e:	66 85 c0             	test   %ax,%ax
   19c11:	74 07                	je     19c1a <func_61+0x288c>
   19c13:	b8 01 00 00 00       	mov    $0x1,%eax
   19c18:	eb 05                	jmp    19c1f <func_61+0x2891>
   19c1a:	b8 00 00 00 00       	mov    $0x0,%eax
   19c1f:	89 85 b4 df ff ff    	mov    %eax,-0x204c(%rbp)
   19c25:	0f b6 85 ae e5 ff ff 	movzbl -0x1a52(%rbp),%eax
   19c2c:	48 0f be c0          	movsbq %al,%rax
   19c30:	48 89 c7             	mov    %rax,%rdi
   19c33:	e8 e1 23 ff ff       	callq  c019 <safe_unary_minus_func_uint64_t_u>
   19c38:	48 09 85 e0 e1 ff ff 	or     %rax,-0x1e20(%rbp)
   19c3f:	8b 85 e8 de ff ff    	mov    -0x2118(%rbp),%eax
   19c45:	e9 13 25 00 00       	jmpq   1c15d <func_61+0x4dcf>
   19c4a:	8b 85 24 df ff ff    	mov    -0x20dc(%rbp),%eax
   19c50:	83 f8 f7             	cmp    $0xfffffff7,%eax
   19c53:	0f 85 57 e5 ff ff    	jne    181b0 <func_61+0xe22>
   19c59:	c7 85 14 df ff ff 00 	movl   $0x0,-0x20ec(%rbp)
   19c60:	00 00 00 
   19c63:	90                   	nop
   19c64:	8b 85 14 df ff ff    	mov    -0x20ec(%rbp),%eax
   19c6a:	83 f8 fc             	cmp    $0xfffffffc,%eax
   19c6d:	7c 0c                	jl     19c7b <func_61+0x28ed>
   19c6f:	0f b7 85 e0 de ff ff 	movzwl -0x2120(%rbp),%eax
   19c76:	e9 e2 24 00 00       	jmpq   1c15d <func_61+0x4dcf>
   19c7b:	0f b7 85 e4 de ff ff 	movzwl -0x211c(%rbp),%eax
   19c82:	83 c0 01             	add    $0x1,%eax
   19c85:	66 89 85 e4 de ff ff 	mov    %ax,-0x211c(%rbp)
   19c8c:	66 83 bd e4 de ff ff 	cmpw   $0x5,-0x211c(%rbp)
   19c93:	05 
   19c94:	0f 84 ff dc ff ff    	je     17999 <func_61+0x60b>
   19c9a:	c7 85 14 df ff ff 00 	movl   $0x0,-0x20ec(%rbp)
   19ca1:	00 00 00 
   19ca4:	90                   	nop
   19ca5:	8b 85 14 df ff ff    	mov    -0x20ec(%rbp),%eax
   19cab:	83 f8 ed             	cmp    $0xffffffed,%eax
   19cae:	0f 8d 9d 24 00 00    	jge    1c151 <func_61+0x4dc3>
   19cb4:	c7 85 6c df ff ff de 	movl   $0x80bef9de,-0x2094(%rbp)
   19cbb:	f9 be 80 
   19cbe:	48 8d 85 80 e5 ff ff 	lea    -0x1a80(%rbp),%rax
   19cc5:	48 8d 15 b4 4a 00 00 	lea    0x4ab4(%rip),%rdx        # 1e780 <g_3489+0x1720>
   19ccc:	b9 3c 00 00 00       	mov    $0x3c,%ecx
   19cd1:	48 89 c7             	mov    %rax,%rdi
   19cd4:	48 89 d6             	mov    %rdx,%rsi
   19cd7:	f3 48 a5             	rep movsq %ds:(%rsi),%es:(%rdi)
   19cda:	48 c7 85 30 e3 ff ff 	movq   $0x4,-0x1cd0(%rbp)
   19ce1:	04 00 00 00 
   19ce5:	48 c7 85 38 e3 ff ff 	movq   $0x4,-0x1cc8(%rbp)
   19cec:	04 00 00 00 
   19cf0:	48 c7 85 40 e3 ff ff 	movq   $0x4,-0x1cc0(%rbp)
   19cf7:	04 00 00 00 
   19cfb:	48 c7 85 48 e3 ff ff 	movq   $0x4,-0x1cb8(%rbp)
   19d02:	04 00 00 00 
   19d06:	48 c7 85 50 e3 ff ff 	movq   $0x4,-0x1cb0(%rbp)
   19d0d:	04 00 00 00 
   19d11:	48 c7 85 58 e3 ff ff 	movq   $0x4,-0x1ca8(%rbp)
   19d18:	04 00 00 00 
   19d1c:	48 c7 85 60 e3 ff ff 	movq   $0x4,-0x1ca0(%rbp)
   19d23:	04 00 00 00 
   19d27:	48 c7 85 68 e3 ff ff 	movq   $0x4,-0x1c98(%rbp)
   19d2e:	04 00 00 00 
   19d32:	48 c7 85 f0 df ff ff 	movq   $0xffffffffffffffff,-0x2010(%rbp)
   19d39:	ff ff ff ff 
   19d3d:	48 8d 05 8c bb 00 00 	lea    0xbb8c(%rip),%rax        # 258d0 <g_183+0x30>
   19d44:	48 89 85 48 e0 ff ff 	mov    %rax,-0x1fb8(%rbp)
   19d4b:	c7 85 70 df ff ff 37 	movl   $0x54dccc37,-0x2090(%rbp)
   19d52:	cc dc 54 
   19d55:	48 c7 85 50 e0 ff ff 	movq   $0x1,-0x1fb0(%rbp)
   19d5c:	01 00 00 00 
   19d60:	48 8d 85 70 ef ff ff 	lea    -0x1090(%rbp),%rax
   19d67:	48 8d 15 f2 4b 00 00 	lea    0x4bf2(%rip),%rdx        # 1e960 <g_3489+0x1900>
   19d6e:	b9 6c 00 00 00       	mov    $0x6c,%ecx
   19d73:	48 89 c7             	mov    %rax,%rdi
   19d76:	48 89 d6             	mov    %rdx,%rsi
   19d79:	f3 48 a5             	rep movsq %ds:(%rsi),%es:(%rdi)
   19d7c:	48 8d 85 d0 f2 ff ff 	lea    -0xd30(%rbp),%rax
   19d83:	48 8d 15 36 4f 00 00 	lea    0x4f36(%rip),%rdx        # 1ecc0 <g_3489+0x1c60>
   19d8a:	b9 6c 00 00 00       	mov    $0x6c,%ecx
   19d8f:	48 89 c7             	mov    %rax,%rdi
   19d92:	48 89 d6             	mov    %rdx,%rsi
   19d95:	f3 48 a5             	rep movsq %ds:(%rsi),%es:(%rdi)
   19d98:	c7 85 74 df ff ff 00 	movl   $0x0,-0x208c(%rbp)
   19d9f:	00 00 00 
   19da2:	48 8d 85 d0 f2 ff ff 	lea    -0xd30(%rbp),%rax
   19da9:	48 05 18 03 00 00    	add    $0x318,%rax
   19daf:	48 89 85 10 e0 ff ff 	mov    %rax,-0x1ff0(%rbp)
   19db6:	48 c7 85 58 e0 ff ff 	movq   $0x0,-0x1fa8(%rbp)
   19dbd:	00 00 00 00 
   19dc1:	c6 85 fa de ff ff 04 	movb   $0x4,-0x2106(%rbp)
   19dc8:	48 c7 85 f8 df ff ff 	movq   $0x0,-0x2008(%rbp)
   19dcf:	00 00 00 00 
   19dd3:	48 8d 05 58 92 00 00 	lea    0x9258(%rip),%rax        # 23032 <g_6+0x2>
   19dda:	48 89 85 60 e0 ff ff 	mov    %rax,-0x1fa0(%rbp)
   19de1:	c7 85 78 df ff ff fa 	movl   $0xfffffffa,-0x2088(%rbp)
   19de8:	ff ff ff 
   19deb:	48 8d 85 e0 df ff ff 	lea    -0x2020(%rbp),%rax
   19df2:	48 89 85 68 e0 ff ff 	mov    %rax,-0x1f98(%rbp)
   19df9:	48 8d 05 40 92 00 00 	lea    0x9240(%rip),%rax        # 23040 <g_121>
   19e00:	48 89 85 70 e0 ff ff 	mov    %rax,-0x1f90(%rbp)
   19e07:	c7 85 38 df ff ff 00 	movl   $0x0,-0x20c8(%rbp)
   19e0e:	00 00 00 
   19e11:	eb 1b                	jmp    19e2e <func_61+0x2aa0>
   19e13:	8b 85 38 df ff ff    	mov    -0x20c8(%rbp),%eax
   19e19:	48 98                	cltq   
   19e1b:	48 c7 84 c5 c0 e2 ff 	movq   $0x0,-0x1d40(%rbp,%rax,8)
   19e22:	ff 00 00 00 00 
   19e27:	83 85 38 df ff ff 01 	addl   $0x1,-0x20c8(%rbp)
   19e2e:	83 bd 38 df ff ff 04 	cmpl   $0x4,-0x20c8(%rbp)
   19e35:	7e dc                	jle    19e13 <func_61+0x2a85>
   19e37:	48 8b 85 d8 de ff ff 	mov    -0x2128(%rbp),%rax
   19e3e:	8b 00                	mov    (%rax),%eax
   19e40:	85 c0                	test   %eax,%eax
   19e42:	0f 85 08 23 00 00    	jne    1c150 <func_61+0x4dc2>
   19e48:	8b 85 44 e6 ff ff    	mov    -0x19bc(%rbp),%eax
   19e4e:	48 63 d8             	movslq %eax,%rbx
   19e51:	48 8b 85 c0 df ff ff 	mov    -0x2040(%rbp),%rax
   19e58:	48 8b 00             	mov    (%rax),%rax
   19e5b:	8b 00                	mov    (%rax),%eax
   19e5d:	89 85 64 df ff ff    	mov    %eax,-0x209c(%rbp)
   19e63:	8b 85 ec de ff ff    	mov    -0x2114(%rbp),%eax
   19e69:	0f b6 c0             	movzbl %al,%eax
   19e6c:	be 01 00 00 00       	mov    $0x1,%esi
   19e71:	89 c7                	mov    %eax,%edi
   19e73:	e8 1b 1d ff ff       	callq  bb93 <safe_mul_func_uint8_t_u_u>
   19e78:	0f b6 c0             	movzbl %al,%eax
   19e7b:	31 85 6c df ff ff    	xor    %eax,-0x2094(%rbp)
   19e81:	8b 85 6c df ff ff    	mov    -0x2094(%rbp),%eax
   19e87:	48 98                	cltq   
   19e89:	48 89 de             	mov    %rbx,%rsi
   19e8c:	48 89 c7             	mov    %rax,%rdi
   19e8f:	e8 20 1b ff ff       	callq  b9b4 <safe_mod_func_int64_t_s_s>
   19e94:	48 85 c0             	test   %rax,%rax
   19e97:	0f 84 23 19 00 00    	je     1b7c0 <func_61+0x4432>
   19e9d:	48 8d 85 60 e7 ff ff 	lea    -0x18a0(%rbp),%rax
   19ea4:	48 8d 15 55 b5 00 00 	lea    0xb555(%rip),%rdx        # 25400 <g_4429+0x1ad4>
   19eab:	b9 46 00 00 00       	mov    $0x46,%ecx
   19eb0:	48 89 c7             	mov    %rax,%rdi
   19eb3:	48 89 d6             	mov    %rdx,%rsi
   19eb6:	f3 48 a5             	rep movsq %ds:(%rsi),%es:(%rdi)
   19eb9:	48 8d 85 30 e3 ff ff 	lea    -0x1cd0(%rbp),%rax
   19ec0:	48 83 c0 20          	add    $0x20,%rax
   19ec4:	48 89 85 c0 e4 ff ff 	mov    %rax,-0x1b40(%rbp)
   19ecb:	48 c7 85 c8 e4 ff ff 	movq   $0x0,-0x1b38(%rbp)
   19ed2:	00 00 00 00 
   19ed6:	48 c7 85 d0 e4 ff ff 	movq   $0x0,-0x1b30(%rbp)
   19edd:	00 00 00 00 
   19ee1:	48 8d 85 30 e3 ff ff 	lea    -0x1cd0(%rbp),%rax
   19ee8:	48 83 c0 20          	add    $0x20,%rax
   19eec:	48 89 85 d8 e4 ff ff 	mov    %rax,-0x1b28(%rbp)
   19ef3:	48 c7 85 e0 e4 ff ff 	movq   $0x0,-0x1b20(%rbp)
   19efa:	00 00 00 00 
   19efe:	48 8d 85 30 e3 ff ff 	lea    -0x1cd0(%rbp),%rax
   19f05:	48 83 c0 20          	add    $0x20,%rax
   19f09:	48 89 85 e8 e4 ff ff 	mov    %rax,-0x1b18(%rbp)
   19f10:	48 c7 85 f0 e4 ff ff 	movq   $0x0,-0x1b10(%rbp)
   19f17:	00 00 00 00 
   19f1b:	48 c7 85 f8 e4 ff ff 	movq   $0x0,-0x1b08(%rbp)
   19f22:	00 00 00 00 
   19f26:	48 8d 85 30 e3 ff ff 	lea    -0x1cd0(%rbp),%rax
   19f2d:	48 83 c0 20          	add    $0x20,%rax
   19f31:	48 89 85 00 e5 ff ff 	mov    %rax,-0x1b00(%rbp)
   19f38:	48 8d 85 30 e3 ff ff 	lea    -0x1cd0(%rbp),%rax
   19f3f:	48 83 c0 20          	add    $0x20,%rax
   19f43:	48 89 85 08 e5 ff ff 	mov    %rax,-0x1af8(%rbp)
   19f4a:	48 8d 85 30 e3 ff ff 	lea    -0x1cd0(%rbp),%rax
   19f51:	48 83 c0 28          	add    $0x28,%rax
   19f55:	48 89 85 10 e5 ff ff 	mov    %rax,-0x1af0(%rbp)
   19f5c:	48 8d 85 30 e3 ff ff 	lea    -0x1cd0(%rbp),%rax
   19f63:	48 83 c0 20          	add    $0x20,%rax
   19f67:	48 89 85 18 e5 ff ff 	mov    %rax,-0x1ae8(%rbp)
   19f6e:	48 8d 85 30 e3 ff ff 	lea    -0x1cd0(%rbp),%rax
   19f75:	48 83 c0 20          	add    $0x20,%rax
   19f79:	48 89 85 20 e5 ff ff 	mov    %rax,-0x1ae0(%rbp)
   19f80:	48 c7 85 28 e5 ff ff 	movq   $0x0,-0x1ad8(%rbp)
   19f87:	00 00 00 00 
   19f8b:	48 c7 85 30 e5 ff ff 	movq   $0x0,-0x1ad0(%rbp)
   19f92:	00 00 00 00 
   19f96:	48 8d 85 30 e3 ff ff 	lea    -0x1cd0(%rbp),%rax
   19f9d:	48 83 c0 20          	add    $0x20,%rax
   19fa1:	48 89 85 38 e5 ff ff 	mov    %rax,-0x1ac8(%rbp)
   19fa8:	48 c7 85 40 e5 ff ff 	movq   $0x0,-0x1ac0(%rbp)
   19faf:	00 00 00 00 
   19fb3:	48 8d 85 30 e3 ff ff 	lea    -0x1cd0(%rbp),%rax
   19fba:	48 83 c0 20          	add    $0x20,%rax
   19fbe:	48 89 85 48 e5 ff ff 	mov    %rax,-0x1ab8(%rbp)
   19fc5:	48 c7 85 50 e5 ff ff 	movq   $0x0,-0x1ab0(%rbp)
   19fcc:	00 00 00 00 
   19fd0:	48 c7 85 58 e5 ff ff 	movq   $0x0,-0x1aa8(%rbp)
   19fd7:	00 00 00 00 
   19fdb:	48 8d 85 30 e3 ff ff 	lea    -0x1cd0(%rbp),%rax
   19fe2:	48 83 c0 20          	add    $0x20,%rax
   19fe6:	48 89 85 60 e5 ff ff 	mov    %rax,-0x1aa0(%rbp)
   19fed:	48 8d 85 30 e3 ff ff 	lea    -0x1cd0(%rbp),%rax
   19ff4:	48 83 c0 20          	add    $0x20,%rax
   19ff8:	48 89 85 68 e5 ff ff 	mov    %rax,-0x1a98(%rbp)
   19fff:	48 8d 85 30 e3 ff ff 	lea    -0x1cd0(%rbp),%rax
   1a006:	48 83 c0 28          	add    $0x28,%rax
   1a00a:	48 89 85 70 e5 ff ff 	mov    %rax,-0x1a90(%rbp)
   1a011:	48 8d 85 30 e3 ff ff 	lea    -0x1cd0(%rbp),%rax
   1a018:	48 83 c0 20          	add    $0x20,%rax
   1a01c:	48 89 85 78 e5 ff ff 	mov    %rax,-0x1a88(%rbp)
   1a023:	c7 85 3c df ff ff 00 	movl   $0x0,-0x20c4(%rbp)
   1a02a:	00 00 00 
   1a02d:	48 8d 85 5c e2 ff ff 	lea    -0x1da4(%rbp),%rax
   1a034:	48 89 85 00 e0 ff ff 	mov    %rax,-0x2000(%rbp)
   1a03b:	c7 85 84 df ff ff 00 	movl   $0x0,-0x207c(%rbp)
   1a042:	00 00 00 
   1a045:	c7 85 88 df ff ff 6a 	movl   $0xc5f9576a,-0x2078(%rbp)
   1a04c:	57 f9 c5 
   1a04f:	48 8d 05 8a b8 00 00 	lea    0xb88a(%rip),%rax        # 258e0 <g_196>
   1a056:	48 89 85 d8 e0 ff ff 	mov    %rax,-0x1f28(%rbp)
   1a05d:	c7 85 20 df ff ff 6a 	movl   $0x813e7c6a,-0x20e0(%rbp)
   1a064:	7c 3e 81 
   1a067:	c7 85 8c df ff ff fd 	movl   $0xfffffffd,-0x2074(%rbp)
   1a06e:	ff ff ff 
   1a071:	48 c7 85 e0 e0 ff ff 	movq   $0x0,-0x1f20(%rbp)
   1a078:	00 00 00 00 
   1a07c:	c7 85 40 df ff ff 00 	movl   $0x0,-0x20c0(%rbp)
   1a083:	00 00 00 
   1a086:	eb 1e                	jmp    1a0a6 <func_61+0x2d18>
   1a088:	8b 85 40 df ff ff    	mov    -0x20c0(%rbp),%eax
   1a08e:	48 98                	cltq   
   1a090:	48 8d 15 c1 8f 00 00 	lea    0x8fc1(%rip),%rdx        # 23058 <g_241>
   1a097:	48 89 94 c5 f0 e2 ff 	mov    %rdx,-0x1d10(%rbp,%rax,8)
   1a09e:	ff 
   1a09f:	83 85 40 df ff ff 01 	addl   $0x1,-0x20c0(%rbp)
   1a0a6:	83 bd 40 df ff ff 06 	cmpl   $0x6,-0x20c0(%rbp)
   1a0ad:	7e d9                	jle    1a088 <func_61+0x2cfa>
   1a0af:	48 8b 85 58 e3 ff ff 	mov    -0x1ca8(%rbp),%rax
   1a0b6:	89 c1                	mov    %eax,%ecx
   1a0b8:	0f b6 05 29 dd 00 00 	movzbl 0xdd29(%rip),%eax        # 27de8 <g_401>
   1a0bf:	83 c0 01             	add    $0x1,%eax
   1a0c2:	88 05 20 dd 00 00    	mov    %al,0xdd20(%rip)        # 27de8 <g_401>
   1a0c8:	0f b6 05 19 dd 00 00 	movzbl 0xdd19(%rip),%eax        # 27de8 <g_401>
   1a0cf:	0f b6 d0             	movzbl %al,%edx
   1a0d2:	0f b7 05 83 8f 00 00 	movzwl 0x8f83(%rip),%eax        # 2305c <g_252>
   1a0d9:	98                   	cwtl   
   1a0da:	39 c2                	cmp    %eax,%edx
   1a0dc:	0f 9f c0             	setg   %al
   1a0df:	0f b6 c0             	movzbl %al,%eax
   1a0e2:	89 85 c4 e5 ff ff    	mov    %eax,-0x1a3c(%rbp)
   1a0e8:	8b 85 c4 e5 ff ff    	mov    -0x1a3c(%rbp),%eax
   1a0ee:	89 ce                	mov    %ecx,%esi
   1a0f0:	89 c7                	mov    %eax,%edi
   1a0f2:	e8 06 1e ff ff       	callq  befd <safe_mod_func_uint32_t_u_u>
   1a0f7:	41 89 c5             	mov    %eax,%r13d
   1a0fa:	48 8b 85 e0 e4 ff ff 	mov    -0x1b20(%rbp),%rax
   1a101:	48 8d 95 30 e3 ff ff 	lea    -0x1cd0(%rbp),%rdx
   1a108:	48 83 c2 08          	add    $0x8,%rdx
   1a10c:	48 39 d0             	cmp    %rdx,%rax
   1a10f:	0f 95 c0             	setne  %al
   1a112:	44 0f b6 f0          	movzbl %al,%r14d
   1a116:	48 8b 85 c0 df ff ff 	mov    -0x2040(%rbp),%rax
   1a11d:	48 8b 00             	mov    (%rax),%rax
   1a120:	8b 00                	mov    (%rax),%eax
   1a122:	48 63 d8             	movslq %eax,%rbx
   1a125:	48 8b 05 6c b7 00 00 	mov    0xb76c(%rip),%rax        # 25898 <g_138>
   1a12c:	0f b7 10             	movzwl (%rax),%edx
   1a12f:	48 8b 85 f0 df ff ff 	mov    -0x2010(%rbp),%rax
   1a136:	89 c1                	mov    %eax,%ecx
   1a138:	48 8b 05 59 b7 00 00 	mov    0xb759(%rip),%rax        # 25898 <g_138>
   1a13f:	21 ca                	and    %ecx,%edx
   1a141:	66 89 10             	mov    %dx,(%rax)
   1a144:	44 0f bf a5 e4 de ff 	movswl -0x211c(%rbp),%r12d
   1a14b:	ff 
   1a14c:	48 8b 85 c8 df ff ff 	mov    -0x2038(%rbp),%rax
   1a153:	8b 00                	mov    (%rax),%eax
   1a155:	98                   	cwtl   
   1a156:	be ff ff ff ff       	mov    $0xffffffff,%esi
   1a15b:	89 c7                	mov    %eax,%edi
   1a15d:	e8 93 12 ff ff       	callq  b3f5 <safe_mul_func_int16_t_s_s>
   1a162:	66 85 c0             	test   %ax,%ax
   1a165:	74 07                	je     1a16e <func_61+0x2de0>
   1a167:	83 bd ec de ff ff 00 	cmpl   $0x0,-0x2114(%rbp)
   1a16e:	0f bf 85 e0 de ff ff 	movswl -0x2120(%rbp),%eax
   1a175:	39 85 3c df ff ff    	cmp    %eax,-0x20c4(%rbp)
   1a17b:	7e 0c                	jle    1a189 <func_61+0x2dfb>
   1a17d:	48 8b 85 48 e3 ff ff 	mov    -0x1cb8(%rbp),%rax
   1a184:	48 85 c0             	test   %rax,%rax
   1a187:	74 07                	je     1a190 <func_61+0x2e02>
   1a189:	b8 01 00 00 00       	mov    $0x1,%eax
   1a18e:	eb 05                	jmp    1a195 <func_61+0x2e07>
   1a190:	b8 00 00 00 00       	mov    $0x0,%eax
   1a195:	44 89 e6             	mov    %r12d,%esi
   1a198:	89 c7                	mov    %eax,%edi
   1a19a:	e8 31 1d ff ff       	callq  bed0 <safe_sub_func_uint32_t_u_u>
   1a19f:	89 c2                	mov    %eax,%edx
   1a1a1:	48 8b 85 60 e3 ff ff 	mov    -0x1ca0(%rbp),%rax
   1a1a8:	48 89 d6             	mov    %rdx,%rsi
   1a1ab:	48 89 c7             	mov    %rax,%rdi
   1a1ae:	e8 cd 1e ff ff       	callq  c080 <safe_mod_func_uint64_t_u_u>
   1a1b3:	48 89 de             	mov    %rbx,%rsi
   1a1b6:	48 89 c7             	mov    %rax,%rdi
   1a1b9:	e8 c2 1e ff ff       	callq  c080 <safe_mod_func_uint64_t_u_u>
   1a1be:	0f be d8             	movsbl %al,%ebx
   1a1c1:	be eb d9 ff ff       	mov    $0xffffd9eb,%esi
   1a1c6:	bf fe ff ff ff       	mov    $0xfffffffe,%edi
   1a1cb:	e8 46 12 ff ff       	callq  b416 <safe_mod_func_int16_t_s_s>
   1a1d0:	0f be c0             	movsbl %al,%eax
   1a1d3:	89 de                	mov    %ebx,%esi
   1a1d5:	89 c7                	mov    %eax,%edi
   1a1d7:	e8 16 10 ff ff       	callq  b1f2 <safe_sub_func_int8_t_s_s>
   1a1dc:	0f be c0             	movsbl %al,%eax
   1a1df:	41 39 c6             	cmp    %eax,%r14d
   1a1e2:	0f 94 c0             	sete   %al
   1a1e5:	0f b6 c0             	movzbl %al,%eax
   1a1e8:	41 39 c5             	cmp    %eax,%r13d
   1a1eb:	0f 94 c2             	sete   %dl
   1a1ee:	48 8b 85 00 e0 ff ff 	mov    -0x2000(%rbp),%rax
   1a1f5:	0f b6 d2             	movzbl %dl,%edx
   1a1f8:	89 10                	mov    %edx,(%rax)
   1a1fa:	8b 0d 28 8e 00 00    	mov    0x8e28(%rip),%ecx        # 23028 <g_5>
   1a200:	8b 15 1e 8e 00 00    	mov    0x8e1e(%rip),%edx        # 23024 <g_3>
   1a206:	48 8b 05 e3 b6 00 00 	mov    0xb6e3(%rip),%rax        # 258f0 <g_199>
   1a20d:	21 ca                	and    %ecx,%edx
   1a20f:	89 10                	mov    %edx,(%rax)
   1a211:	8b 00                	mov    (%rax),%eax
   1a213:	85 c0                	test   %eax,%eax
   1a215:	75 07                	jne    1a21e <func_61+0x2e90>
   1a217:	83 bd ec de ff ff 00 	cmpl   $0x0,-0x2114(%rbp)
   1a21e:	48 8b 05 6b b6 00 00 	mov    0xb66b(%rip),%rax        # 25890 <g_105>
   1a225:	8b 10                	mov    (%rax),%edx
   1a227:	48 8b 05 52 b6 00 00 	mov    0xb652(%rip),%rax        # 25880 <g_88>
   1a22e:	8b 00                	mov    (%rax),%eax
   1a230:	09 d0                	or     %edx,%eax
   1a232:	3d e5 00 00 00       	cmp    $0xe5,%eax
   1a237:	0f 84 0b 05 00 00    	je     1a748 <func_61+0x33ba>
   1a23d:	48 c7 85 10 e1 ff ff 	movq   $0x0,-0x1ef0(%rbp)
   1a244:	00 00 00 00 
   1a248:	66 c7 85 08 df ff ff 	movw   $0xb76b,-0x20f8(%rbp)
   1a24f:	6b b7 
   1a251:	48 8d 05 58 b6 00 00 	lea    0xb658(%rip),%rax        # 258b0 <g_183+0x10>
   1a258:	48 89 85 18 e1 ff ff 	mov    %rax,-0x1ee8(%rbp)
   1a25f:	66 c7 85 20 ec ff ff 	movw   $0x5,-0x13e0(%rbp)
   1a266:	05 00 
   1a268:	66 c7 85 22 ec ff ff 	movw   $0x1,-0x13de(%rbp)
   1a26f:	01 00 
   1a271:	66 c7 85 24 ec ff ff 	movw   $0x5,-0x13dc(%rbp)
   1a278:	05 00 
   1a27a:	66 c7 85 26 ec ff ff 	movw   $0x1,-0x13da(%rbp)
   1a281:	01 00 
   1a283:	66 c7 85 28 ec ff ff 	movw   $0x5,-0x13d8(%rbp)
   1a28a:	05 00 
   1a28c:	66 c7 85 2a ec ff ff 	movw   $0x1,-0x13d6(%rbp)
   1a293:	01 00 
   1a295:	66 c7 85 2c ec ff ff 	movw   $0x5,-0x13d4(%rbp)
   1a29c:	05 00 
   1a29e:	66 c7 85 2e ec ff ff 	movw   $0x1,-0x13d2(%rbp)
   1a2a5:	01 00 
   1a2a7:	66 c7 85 30 ec ff ff 	movw   $0x5,-0x13d0(%rbp)
   1a2ae:	05 00 
   1a2b0:	c7 85 44 df ff ff 00 	movl   $0x0,-0x20bc(%rbp)
   1a2b7:	00 00 00 
   1a2ba:	eb 1a                	jmp    1a2d6 <func_61+0x2f48>
   1a2bc:	8b 85 44 df ff ff    	mov    -0x20bc(%rbp),%eax
   1a2c2:	48 98                	cltq   
   1a2c4:	c7 84 85 30 e4 ff ff 	movl   $0x6d6071c2,-0x1bd0(%rbp,%rax,4)
   1a2cb:	c2 71 60 6d 
   1a2cf:	83 85 44 df ff ff 01 	addl   $0x1,-0x20bc(%rbp)
   1a2d6:	83 bd 44 df ff ff 01 	cmpl   $0x1,-0x20bc(%rbp)
   1a2dd:	7e dd                	jle    1a2bc <func_61+0x2f2e>
   1a2df:	48 c7 05 5e 8d 00 00 	movq   $0x14,0x8d5e(%rip)        # 23048 <g_144>
   1a2e6:	14 00 00 00 
   1a2ea:	e9 43 04 00 00       	jmpq   1a732 <func_61+0x33a4>
   1a2ef:	c6 85 fc de ff ff 00 	movb   $0x0,-0x2104(%rbp)
   1a2f6:	c7 85 9c df ff ff 00 	movl   $0x0,-0x2064(%rbp)
   1a2fd:	00 00 00 
   1a300:	48 8d 05 49 8d 00 00 	lea    0x8d49(%rip),%rax        # 23050 <g_188>
   1a307:	48 89 85 20 e1 ff ff 	mov    %rax,-0x1ee0(%rbp)
   1a30e:	c7 85 d0 f7 ff ff ab 	movl   $0x93f306ab,-0x830(%rbp)
   1a315:	06 f3 93 
   1a318:	c7 85 d4 f7 ff ff 61 	movl   $0x18516661,-0x82c(%rbp)
   1a31f:	66 51 18 
   1a322:	c7 85 d8 f7 ff ff 08 	movl   $0x8,-0x828(%rbp)
   1a329:	00 00 00 
   1a32c:	c7 85 dc f7 ff ff 09 	movl   $0x9,-0x824(%rbp)
   1a333:	00 00 00 
   1a336:	c7 85 e0 f7 ff ff 61 	movl   $0x18516661,-0x820(%rbp)
   1a33d:	66 51 18 
   1a340:	c7 85 e4 f7 ff ff 09 	movl   $0x9,-0x81c(%rbp)
   1a347:	00 00 00 
   1a34a:	c7 85 e8 f7 ff ff 08 	movl   $0x8,-0x818(%rbp)
   1a351:	00 00 00 
   1a354:	c7 85 ec f7 ff ff 61 	movl   $0x18516661,-0x814(%rbp)
   1a35b:	66 51 18 
   1a35e:	c7 85 f0 f7 ff ff ab 	movl   $0x93f306ab,-0x810(%rbp)
   1a365:	06 f3 93 
   1a368:	c7 85 f4 f7 ff ff ab 	movl   $0x93f306ab,-0x80c(%rbp)
   1a36f:	06 f3 93 
   1a372:	c7 85 f8 f7 ff ff ab 	movl   $0x93f306ab,-0x808(%rbp)
   1a379:	06 f3 93 
   1a37c:	c7 85 fc f7 ff ff 61 	movl   $0x18516661,-0x804(%rbp)
   1a383:	66 51 18 
   1a386:	c7 85 00 f8 ff ff 08 	movl   $0x8,-0x800(%rbp)
   1a38d:	00 00 00 
   1a390:	c7 85 04 f8 ff ff 09 	movl   $0x9,-0x7fc(%rbp)
   1a397:	00 00 00 
   1a39a:	c7 85 08 f8 ff ff 61 	movl   $0x18516661,-0x7f8(%rbp)
   1a3a1:	66 51 18 
   1a3a4:	c7 85 0c f8 ff ff 09 	movl   $0x9,-0x7f4(%rbp)
   1a3ab:	00 00 00 
   1a3ae:	c7 85 10 f8 ff ff 08 	movl   $0x8,-0x7f0(%rbp)
   1a3b5:	00 00 00 
   1a3b8:	c7 85 14 f8 ff ff 61 	movl   $0x18516661,-0x7ec(%rbp)
   1a3bf:	66 51 18 
   1a3c2:	c7 85 18 f8 ff ff ab 	movl   $0x93f306ab,-0x7e8(%rbp)
   1a3c9:	06 f3 93 
   1a3cc:	c7 85 1c f8 ff ff ab 	movl   $0x93f306ab,-0x7e4(%rbp)
   1a3d3:	06 f3 93 
   1a3d6:	c7 85 20 f8 ff ff ab 	movl   $0x93f306ab,-0x7e0(%rbp)
   1a3dd:	06 f3 93 
   1a3e0:	c7 85 24 f8 ff ff 61 	movl   $0x18516661,-0x7dc(%rbp)
   1a3e7:	66 51 18 
   1a3ea:	c7 85 28 f8 ff ff 08 	movl   $0x8,-0x7d8(%rbp)
   1a3f1:	00 00 00 
   1a3f4:	c7 85 2c f8 ff ff 09 	movl   $0x9,-0x7d4(%rbp)
   1a3fb:	00 00 00 
   1a3fe:	c7 85 30 f8 ff ff 61 	movl   $0x18516661,-0x7d0(%rbp)
   1a405:	66 51 18 
   1a408:	c7 85 34 f8 ff ff 09 	movl   $0x9,-0x7cc(%rbp)
   1a40f:	00 00 00 
   1a412:	c7 85 38 f8 ff ff 08 	movl   $0x8,-0x7c8(%rbp)
   1a419:	00 00 00 
   1a41c:	c7 85 3c f8 ff ff 08 	movl   $0x8,-0x7c4(%rbp)
   1a423:	00 00 00 
   1a426:	c7 85 40 f8 ff ff 61 	movl   $0x18516661,-0x7c0(%rbp)
   1a42d:	66 51 18 
   1a430:	c7 85 44 f8 ff ff 61 	movl   $0x18516661,-0x7bc(%rbp)
   1a437:	66 51 18 
   1a43a:	c7 85 48 f8 ff ff 61 	movl   $0x18516661,-0x7b8(%rbp)
   1a441:	66 51 18 
   1a444:	c7 85 4c f8 ff ff 08 	movl   $0x8,-0x7b4(%rbp)
   1a44b:	00 00 00 
   1a44e:	c7 85 50 f8 ff ff 54 	movl   $0xd7c0d254,-0x7b0(%rbp)
   1a455:	d2 c0 d7 
   1a458:	c7 85 54 f8 ff ff ab 	movl   $0x93f306ab,-0x7ac(%rbp)
   1a45f:	06 f3 93 
   1a462:	c7 85 58 f8 ff ff 08 	movl   $0x8,-0x7a8(%rbp)
   1a469:	00 00 00 
   1a46c:	c7 85 5c f8 ff ff ab 	movl   $0x93f306ab,-0x7a4(%rbp)
   1a473:	06 f3 93 
   1a476:	c7 85 60 f8 ff ff 54 	movl   $0xd7c0d254,-0x7a0(%rbp)
   1a47d:	d2 c0 d7 
   1a480:	c7 85 64 f8 ff ff 08 	movl   $0x8,-0x79c(%rbp)
   1a487:	00 00 00 
   1a48a:	c7 85 68 f8 ff ff 61 	movl   $0x18516661,-0x798(%rbp)
   1a491:	66 51 18 
   1a494:	c7 85 6c f8 ff ff 61 	movl   $0x18516661,-0x794(%rbp)
   1a49b:	66 51 18 
   1a49e:	c7 85 70 f8 ff ff 61 	movl   $0x18516661,-0x790(%rbp)
   1a4a5:	66 51 18 
   1a4a8:	c7 85 74 f8 ff ff 08 	movl   $0x8,-0x78c(%rbp)
   1a4af:	00 00 00 
   1a4b2:	c7 85 78 f8 ff ff 54 	movl   $0xd7c0d254,-0x788(%rbp)
   1a4b9:	d2 c0 d7 
   1a4bc:	c7 85 7c f8 ff ff ab 	movl   $0x93f306ab,-0x784(%rbp)
   1a4c3:	06 f3 93 
   1a4c6:	c7 85 80 f8 ff ff 08 	movl   $0x8,-0x780(%rbp)
   1a4cd:	00 00 00 
   1a4d0:	c7 85 84 f8 ff ff ab 	movl   $0x93f306ab,-0x77c(%rbp)
   1a4d7:	06 f3 93 
   1a4da:	c7 85 88 f8 ff ff 54 	movl   $0xd7c0d254,-0x778(%rbp)
   1a4e1:	d2 c0 d7 
   1a4e4:	c7 85 8c f8 ff ff 08 	movl   $0x8,-0x774(%rbp)
   1a4eb:	00 00 00 
   1a4ee:	0f b7 05 3d 8b 00 00 	movzwl 0x8b3d(%rip),%eax        # 23032 <g_6+0x2>
   1a4f5:	0f be d0             	movsbl %al,%edx
   1a4f8:	48 8b 05 49 8b 00 00 	mov    0x8b49(%rip),%rax        # 23048 <g_144>
   1a4ff:	0f be c0             	movsbl %al,%eax
   1a502:	89 d6                	mov    %edx,%esi
   1a504:	89 c7                	mov    %eax,%edi
   1a506:	e8 07 0d ff ff       	callq  b212 <safe_mul_func_int8_t_s_s>
   1a50b:	48 8b 85 f0 df ff ff 	mov    -0x2010(%rbp),%rax
   1a512:	48 89 c7             	mov    %rax,%rdi
   1a515:	e8 fc 12 ff ff       	callq  b816 <safe_unary_minus_func_int64_t_s>
   1a51a:	0f b7 d0             	movzwl %ax,%edx
   1a51d:	8b 85 e8 de ff ff    	mov    -0x2118(%rbp),%eax
   1a523:	0f b7 c0             	movzwl %ax,%eax
   1a526:	89 d6                	mov    %edx,%esi
   1a528:	89 c7                	mov    %eax,%edi
   1a52a:	e8 5f 18 ff ff       	callq  bd8e <safe_div_func_uint16_t_u_u>
   1a52f:	44 0f b7 e0          	movzwl %ax,%r12d
   1a533:	be b7 00 00 00       	mov    $0xb7,%esi
   1a538:	bf 05 00 00 00       	mov    $0x5,%edi
   1a53d:	e8 18 16 ff ff       	callq  bb5a <safe_add_func_uint8_t_u_u>
   1a542:	48 8b 85 d8 de ff ff 	mov    -0x2128(%rbp),%rax
   1a549:	8b 00                	mov    (%rax),%eax
   1a54b:	89 c2                	mov    %eax,%edx
   1a54d:	0f b6 85 fc de ff ff 	movzbl -0x2104(%rbp),%eax
   1a554:	31 d0                	xor    %edx,%eax
   1a556:	0f b6 c0             	movzbl %al,%eax
   1a559:	be 07 00 00 00       	mov    $0x7,%esi
   1a55e:	89 c7                	mov    %eax,%edi
   1a560:	e8 59 17 ff ff       	callq  bcbe <safe_rshift_func_uint8_t_u_u>
   1a565:	84 c0                	test   %al,%al
   1a567:	75 0a                	jne    1a573 <func_61+0x31e5>
   1a569:	66 83 bd e0 de ff ff 	cmpw   $0x0,-0x2120(%rbp)
   1a570:	00 
   1a571:	74 07                	je     1a57a <func_61+0x31ec>
   1a573:	b8 01 00 00 00       	mov    $0x1,%eax
   1a578:	eb 05                	jmp    1a57f <func_61+0x31f1>
   1a57a:	b8 00 00 00 00       	mov    $0x0,%eax
   1a57f:	48 63 d8             	movslq %eax,%rbx
   1a582:	8b 05 a0 8a 00 00    	mov    0x8aa0(%rip),%eax        # 23028 <g_5>
   1a588:	0f be c0             	movsbl %al,%eax
   1a58b:	be 00 00 00 00       	mov    $0x0,%esi
   1a590:	89 c7                	mov    %eax,%edi
   1a592:	e8 9e 0d ff ff       	callq  b335 <safe_rshift_func_int8_t_s_s>
   1a597:	48 0f be c0          	movsbq %al,%rax
   1a59b:	48 89 de             	mov    %rbx,%rsi
   1a59e:	48 89 c7             	mov    %rax,%rdi
   1a5a1:	e8 51 14 ff ff       	callq  b9f7 <safe_div_func_int64_t_s_s>
   1a5a6:	0f b7 c0             	movzwl %ax,%eax
   1a5a9:	be 02 00 00 00       	mov    $0x2,%esi
   1a5ae:	89 c7                	mov    %eax,%edi
   1a5b0:	e8 51 18 ff ff       	callq  be06 <safe_lshift_func_uint16_t_u_u>
   1a5b5:	0f b7 c0             	movzwl %ax,%eax
   1a5b8:	be 07 00 00 00       	mov    $0x7,%esi
   1a5bd:	89 c7                	mov    %eax,%edi
   1a5bf:	e8 3b 17 ff ff       	callq  bcff <safe_add_func_uint16_t_u_u>
   1a5c4:	89 c2                	mov    %eax,%edx
   1a5c6:	48 8b 85 00 e0 ff ff 	mov    -0x2000(%rbp),%rax
   1a5cd:	0f b7 d2             	movzwl %dx,%edx
   1a5d0:	89 10                	mov    %edx,(%rax)
   1a5d2:	8b 00                	mov    (%rax),%eax
   1a5d4:	41 39 c4             	cmp    %eax,%r12d
   1a5d7:	0f 94 c0             	sete   %al
   1a5da:	0f b6 c0             	movzbl %al,%eax
   1a5dd:	89 85 30 e4 ff ff    	mov    %eax,-0x1bd0(%rbp)
   1a5e3:	8b 05 6b 8a 00 00    	mov    0x8a6b(%rip),%eax        # 23054 <g_200>
   1a5e9:	48 63 d8             	movslq %eax,%rbx
   1a5ec:	48 8b 05 0d b3 00 00 	mov    0xb30d(%rip),%rax        # 25900 <g_257>
   1a5f3:	48 8b 00             	mov    (%rax),%rax
   1a5f6:	8b 00                	mov    (%rax),%eax
   1a5f8:	41 89 c4             	mov    %eax,%r12d
   1a5fb:	83 bd ec de ff ff 00 	cmpl   $0x0,-0x2114(%rbp)
   1a602:	74 2c                	je     1a630 <func_61+0x32a2>
   1a604:	48 8b 05 8d b2 00 00 	mov    0xb28d(%rip),%rax        # 25898 <g_138>
   1a60b:	0f b7 10             	movzwl (%rax),%edx
   1a60e:	83 c2 01             	add    $0x1,%edx
   1a611:	66 89 10             	mov    %dx,(%rax)
   1a614:	0f b7 00             	movzwl (%rax),%eax
   1a617:	0f b7 d0             	movzwl %ax,%edx
   1a61a:	0f b7 85 e4 de ff ff 	movzwl -0x211c(%rbp),%eax
   1a621:	0f b7 c0             	movzwl %ax,%eax
   1a624:	89 d6                	mov    %edx,%esi
   1a626:	89 c7                	mov    %eax,%edi
   1a628:	e8 d9 17 ff ff       	callq  be06 <safe_lshift_func_uint16_t_u_u>
   1a62d:	66 85 c0             	test   %ax,%ax
   1a630:	48 8d 05 09 8a 00 00 	lea    0x8a09(%rip),%rax        # 23040 <g_121>
   1a637:	48 39 85 10 e1 ff ff 	cmp    %rax,-0x1ef0(%rbp)
   1a63e:	0f 95 c0             	setne  %al
   1a641:	0f b6 d0             	movzbl %al,%edx
   1a644:	0f b7 85 08 df ff ff 	movzwl -0x20f8(%rbp),%eax
   1a64b:	39 c2                	cmp    %eax,%edx
   1a64d:	0f 9d c0             	setge  %al
   1a650:	0f b6 c0             	movzbl %al,%eax
   1a653:	89 85 9c df ff ff    	mov    %eax,-0x2064(%rbp)
   1a659:	83 bd ec de ff ff 65 	cmpl   $0x65,-0x2114(%rbp)
   1a660:	0f 97 c0             	seta   %al
   1a663:	0f b6 c0             	movzbl %al,%eax
   1a666:	39 85 9c df ff ff    	cmp    %eax,-0x2064(%rbp)
   1a66c:	0f 9d c0             	setge  %al
   1a66f:	0f b6 c8             	movzbl %al,%ecx
   1a672:	48 8b 85 00 e0 ff ff 	mov    -0x2000(%rbp),%rax
   1a679:	8b 10                	mov    (%rax),%edx
   1a67b:	48 8b 85 00 e0 ff ff 	mov    -0x2000(%rbp),%rax
   1a682:	21 ca                	and    %ecx,%edx
   1a684:	89 10                	mov    %edx,(%rax)
   1a686:	0f bf 95 e0 de ff ff 	movswl -0x2120(%rbp),%edx
   1a68d:	8b 85 e8 de ff ff    	mov    -0x2118(%rbp),%eax
   1a693:	39 c2                	cmp    %eax,%edx
   1a695:	7c 0c                	jl     1a6a3 <func_61+0x3315>
   1a697:	48 8b 05 a2 89 00 00 	mov    0x89a2(%rip),%rax        # 23040 <g_121>
   1a69e:	48 85 c0             	test   %rax,%rax
   1a6a1:	74 07                	je     1a6aa <func_61+0x331c>
   1a6a3:	b8 01 00 00 00       	mov    $0x1,%eax
   1a6a8:	eb 05                	jmp    1a6af <func_61+0x3321>
   1a6aa:	b8 00 00 00 00       	mov    $0x0,%eax
   1a6af:	44 89 e6             	mov    %r12d,%esi
   1a6b2:	89 c7                	mov    %eax,%edi
   1a6b4:	e8 44 18 ff ff       	callq  befd <safe_mod_func_uint32_t_u_u>
   1a6b9:	48 89 de             	mov    %rbx,%rsi
   1a6bc:	48 bf 98 ee f1 81 ac 	movabs $0x15c478ac81f1ee98,%rdi
   1a6c3:	78 c4 15 
   1a6c6:	e8 76 11 ff ff       	callq  b841 <safe_add_func_int64_t_s_s>
   1a6cb:	be 01 00 00 00       	mov    $0x1,%esi
   1a6d0:	48 89 c7             	mov    %rax,%rdi
   1a6d3:	e8 1f 13 ff ff       	callq  b9f7 <safe_div_func_int64_t_s_s>
   1a6d8:	48 8b 85 18 e0 ff ff 	mov    -0x1fe8(%rbp),%rax
   1a6df:	48 8b 00             	mov    (%rax),%rax
   1a6e2:	48 8b 00             	mov    (%rax),%rax
   1a6e5:	8b 00                	mov    (%rax),%eax
   1a6e7:	83 f0 01             	xor    $0x1,%eax
   1a6ea:	98                   	cwtl   
   1a6eb:	89 c7                	mov    %eax,%edi
   1a6ed:	e8 ab 0c ff ff       	callq  b39d <safe_unary_minus_func_int16_t_s>
   1a6f2:	66 85 c0             	test   %ax,%ax
   1a6f5:	75 09                	jne    1a700 <func_61+0x3372>
   1a6f7:	83 bd ec de ff ff 00 	cmpl   $0x0,-0x2114(%rbp)
   1a6fe:	74 07                	je     1a707 <func_61+0x3379>
   1a700:	ba 01 00 00 00       	mov    $0x1,%edx
   1a705:	eb 05                	jmp    1a70c <func_61+0x337e>
   1a707:	ba 00 00 00 00       	mov    $0x0,%edx
   1a70c:	8b 85 44 e6 ff ff    	mov    -0x19bc(%rbp),%eax
   1a712:	39 c2                	cmp    %eax,%edx
   1a714:	0f 9c c0             	setl   %al
   1a717:	0f b6 c0             	movzbl %al,%eax
   1a71a:	89 85 3c df ff ff    	mov    %eax,-0x20c4(%rbp)
   1a720:	48 8b 05 21 89 00 00 	mov    0x8921(%rip),%rax        # 23048 <g_144>
   1a727:	48 83 e8 01          	sub    $0x1,%rax
   1a72b:	48 89 05 16 89 00 00 	mov    %rax,0x8916(%rip)        # 23048 <g_144>
   1a732:	48 8b 05 0f 89 00 00 	mov    0x890f(%rip),%rax        # 23048 <g_144>
   1a739:	48 83 f8 02          	cmp    $0x2,%rax
   1a73d:	0f 85 ac fb ff ff    	jne    1a2ef <func_61+0x2f61>
   1a743:	e9 25 19 00 00       	jmpq   1c06d <func_61+0x4cdf>
   1a748:	48 c7 85 30 e4 ff ff 	movq   $0xfffffffffffffffb,-0x1bd0(%rbp)
   1a74f:	fb ff ff ff 
   1a753:	48 c7 85 38 e4 ff ff 	movq   $0x7,-0x1bc8(%rbp)
   1a75a:	07 00 00 00 
   1a75e:	48 c7 85 40 e4 ff ff 	movq   $0xfffffffffffffffb,-0x1bc0(%rbp)
   1a765:	fb ff ff ff 
   1a769:	48 b8 84 78 aa c4 67 	movabs $0x517deb67c4aa7884,%rax
   1a770:	eb 7d 51 
   1a773:	48 89 85 48 e4 ff ff 	mov    %rax,-0x1bb8(%rbp)
   1a77a:	48 c7 85 50 e4 ff ff 	movq   $0x1,-0x1bb0(%rbp)
   1a781:	01 00 00 00 
   1a785:	48 89 85 58 e4 ff ff 	mov    %rax,-0x1ba8(%rbp)
   1a78c:	48 c7 85 60 e4 ff ff 	movq   $0xfffffffffffffffb,-0x1ba0(%rbp)
   1a793:	fb ff ff ff 
   1a797:	48 c7 85 68 e4 ff ff 	movq   $0x7,-0x1b98(%rbp)
   1a79e:	07 00 00 00 
   1a7a2:	48 c7 85 70 e4 ff ff 	movq   $0xfffffffffffffffb,-0x1b90(%rbp)
   1a7a9:	fb ff ff ff 
   1a7ad:	48 89 85 78 e4 ff ff 	mov    %rax,-0x1b88(%rbp)
   1a7b4:	48 c7 85 80 e4 ff ff 	movq   $0x1,-0x1b80(%rbp)
   1a7bb:	01 00 00 00 
   1a7bf:	48 89 85 88 e4 ff ff 	mov    %rax,-0x1b78(%rbp)
   1a7c6:	48 c7 85 90 e4 ff ff 	movq   $0xfffffffffffffffb,-0x1b70(%rbp)
   1a7cd:	fb ff ff ff 
   1a7d1:	48 c7 85 98 e4 ff ff 	movq   $0x7,-0x1b68(%rbp)
   1a7d8:	07 00 00 00 
   1a7dc:	48 c7 85 a0 e4 ff ff 	movq   $0xfffffffffffffffb,-0x1b60(%rbp)
   1a7e3:	fb ff ff ff 
   1a7e7:	48 89 85 a8 e4 ff ff 	mov    %rax,-0x1b58(%rbp)
   1a7ee:	48 c7 85 b0 e4 ff ff 	movq   $0x1,-0x1b50(%rbp)
   1a7f5:	01 00 00 00 
   1a7f9:	48 89 85 b8 e4 ff ff 	mov    %rax,-0x1b48(%rbp)
   1a800:	c7 85 70 e3 ff ff 01 	movl   $0x1,-0x1c90(%rbp)
   1a807:	00 00 00 
   1a80a:	c7 85 74 e3 ff ff 01 	movl   $0x1,-0x1c8c(%rbp)
   1a811:	00 00 00 
   1a814:	c7 85 78 e3 ff ff 01 	movl   $0x1,-0x1c88(%rbp)
   1a81b:	00 00 00 
   1a81e:	c7 85 7c e3 ff ff 01 	movl   $0x1,-0x1c84(%rbp)
   1a825:	00 00 00 
   1a828:	c7 85 80 e3 ff ff 01 	movl   $0x1,-0x1c80(%rbp)
   1a82f:	00 00 00 
   1a832:	c7 85 84 e3 ff ff 01 	movl   $0x1,-0x1c7c(%rbp)
   1a839:	00 00 00 
   1a83c:	c7 85 88 e3 ff ff 01 	movl   $0x1,-0x1c78(%rbp)
   1a843:	00 00 00 
   1a846:	c7 85 8c e3 ff ff 01 	movl   $0x1,-0x1c74(%rbp)
   1a84d:	00 00 00 
   1a850:	c7 85 90 e3 ff ff 01 	movl   $0x1,-0x1c70(%rbp)
   1a857:	00 00 00 
   1a85a:	c7 85 94 e3 ff ff 01 	movl   $0x1,-0x1c6c(%rbp)
   1a861:	00 00 00 
   1a864:	c7 85 98 e3 ff ff 01 	movl   $0x1,-0x1c68(%rbp)
   1a86b:	00 00 00 
   1a86e:	c7 85 9c e3 ff ff 01 	movl   $0x1,-0x1c64(%rbp)
   1a875:	00 00 00 
   1a878:	c7 85 a0 e3 ff ff 01 	movl   $0x1,-0x1c60(%rbp)
   1a87f:	00 00 00 
   1a882:	c7 85 a4 e3 ff ff 01 	movl   $0x1,-0x1c5c(%rbp)
   1a889:	00 00 00 
   1a88c:	c7 85 a8 e3 ff ff 01 	movl   $0x1,-0x1c58(%rbp)
   1a893:	00 00 00 
   1a896:	c7 85 ac e3 ff ff 01 	movl   $0x1,-0x1c54(%rbp)
   1a89d:	00 00 00 
   1a8a0:	c7 85 b0 e3 ff ff 01 	movl   $0x1,-0x1c50(%rbp)
   1a8a7:	00 00 00 
   1a8aa:	c7 85 b4 e3 ff ff 01 	movl   $0x1,-0x1c4c(%rbp)
   1a8b1:	00 00 00 
   1a8b4:	c7 85 b8 e3 ff ff 01 	movl   $0x1,-0x1c48(%rbp)
   1a8bb:	00 00 00 
   1a8be:	c7 85 bc e3 ff ff 01 	movl   $0x1,-0x1c44(%rbp)
   1a8c5:	00 00 00 
   1a8c8:	c7 85 24 df ff ff ff 	movl   $0xffffffff,-0x20dc(%rbp)
   1a8cf:	ff ff ff 
   1a8d2:	c7 85 90 df ff ff 99 	movl   $0xa90fdb99,-0x2070(%rbp)
   1a8d9:	db 0f a9 
   1a8dc:	c7 85 94 df ff ff f9 	movl   $0xfffffff9,-0x206c(%rbp)
   1a8e3:	ff ff ff 
   1a8e6:	48 8d 05 93 af 00 00 	lea    0xaf93(%rip),%rax        # 25880 <g_88>
   1a8ed:	48 89 85 d0 f7 ff ff 	mov    %rax,-0x830(%rbp)
   1a8f4:	48 8d 05 85 af 00 00 	lea    0xaf85(%rip),%rax        # 25880 <g_88>
   1a8fb:	48 89 85 d8 f7 ff ff 	mov    %rax,-0x828(%rbp)
   1a902:	48 8d 85 c8 df ff ff 	lea    -0x2038(%rbp),%rax
   1a909:	48 89 85 e0 f7 ff ff 	mov    %rax,-0x820(%rbp)
   1a910:	48 8d 85 00 e0 ff ff 	lea    -0x2000(%rbp),%rax
   1a917:	48 89 85 e8 f7 ff ff 	mov    %rax,-0x818(%rbp)
   1a91e:	48 c7 85 f0 f7 ff ff 	movq   $0x0,-0x810(%rbp)
   1a925:	00 00 00 00 
   1a929:	48 c7 85 f8 f7 ff ff 	movq   $0x0,-0x808(%rbp)
   1a930:	00 00 00 00 
   1a934:	48 c7 85 00 f8 ff ff 	movq   $0x0,-0x800(%rbp)
   1a93b:	00 00 00 00 
   1a93f:	48 8d 85 00 e0 ff ff 	lea    -0x2000(%rbp),%rax
   1a946:	48 89 85 08 f8 ff ff 	mov    %rax,-0x7f8(%rbp)
   1a94d:	48 c7 85 10 f8 ff ff 	movq   $0x0,-0x7f0(%rbp)
   1a954:	00 00 00 00 
   1a958:	48 8d 05 21 af 00 00 	lea    0xaf21(%rip),%rax        # 25880 <g_88>
   1a95f:	48 89 85 18 f8 ff ff 	mov    %rax,-0x7e8(%rbp)
   1a966:	48 c7 85 20 f8 ff ff 	movq   $0x0,-0x7e0(%rbp)
   1a96d:	00 00 00 00 
   1a971:	48 8d 85 c8 df ff ff 	lea    -0x2038(%rbp),%rax
   1a978:	48 89 85 28 f8 ff ff 	mov    %rax,-0x7d8(%rbp)
   1a97f:	48 8d 85 c8 df ff ff 	lea    -0x2038(%rbp),%rax
   1a986:	48 89 85 30 f8 ff ff 	mov    %rax,-0x7d0(%rbp)
   1a98d:	48 8d 05 ec ae 00 00 	lea    0xaeec(%rip),%rax        # 25880 <g_88>
   1a994:	48 89 85 38 f8 ff ff 	mov    %rax,-0x7c8(%rbp)
   1a99b:	48 8d 85 00 e0 ff ff 	lea    -0x2000(%rbp),%rax
   1a9a2:	48 89 85 40 f8 ff ff 	mov    %rax,-0x7c0(%rbp)
   1a9a9:	48 c7 85 48 f8 ff ff 	movq   $0x0,-0x7b8(%rbp)
   1a9b0:	00 00 00 00 
   1a9b4:	48 8d 05 c5 ae 00 00 	lea    0xaec5(%rip),%rax        # 25880 <g_88>
   1a9bb:	48 89 85 50 f8 ff ff 	mov    %rax,-0x7b0(%rbp)
   1a9c2:	48 8d 05 b7 ae 00 00 	lea    0xaeb7(%rip),%rax        # 25880 <g_88>
   1a9c9:	48 89 85 58 f8 ff ff 	mov    %rax,-0x7a8(%rbp)
   1a9d0:	48 8d 85 c8 df ff ff 	lea    -0x2038(%rbp),%rax
   1a9d7:	48 89 85 60 f8 ff ff 	mov    %rax,-0x7a0(%rbp)
   1a9de:	48 8d 85 00 e0 ff ff 	lea    -0x2000(%rbp),%rax
   1a9e5:	48 89 85 68 f8 ff ff 	mov    %rax,-0x798(%rbp)
   1a9ec:	48 8d 85 00 e0 ff ff 	lea    -0x2000(%rbp),%rax
   1a9f3:	48 89 85 70 f8 ff ff 	mov    %rax,-0x790(%rbp)
   1a9fa:	48 c7 85 78 f8 ff ff 	movq   $0x0,-0x788(%rbp)
   1aa01:	00 00 00 00 
   1aa05:	48 8d 85 c8 df ff ff 	lea    -0x2038(%rbp),%rax
   1aa0c:	48 89 85 80 f8 ff ff 	mov    %rax,-0x780(%rbp)
   1aa13:	48 c7 85 88 f8 ff ff 	movq   $0x0,-0x778(%rbp)
   1aa1a:	00 00 00 00 
   1aa1e:	48 8d 05 5b ae 00 00 	lea    0xae5b(%rip),%rax        # 25880 <g_88>
   1aa25:	48 89 85 90 f8 ff ff 	mov    %rax,-0x770(%rbp)
   1aa2c:	48 8d 05 4d ae 00 00 	lea    0xae4d(%rip),%rax        # 25880 <g_88>
   1aa33:	48 89 85 98 f8 ff ff 	mov    %rax,-0x768(%rbp)
   1aa3a:	48 8d 85 c8 df ff ff 	lea    -0x2038(%rbp),%rax
   1aa41:	48 89 85 a0 f8 ff ff 	mov    %rax,-0x760(%rbp)
   1aa48:	48 8d 05 31 ae 00 00 	lea    0xae31(%rip),%rax        # 25880 <g_88>
   1aa4f:	48 89 85 a8 f8 ff ff 	mov    %rax,-0x758(%rbp)
   1aa56:	48 8d 85 c8 df ff ff 	lea    -0x2038(%rbp),%rax
   1aa5d:	48 89 85 b0 f8 ff ff 	mov    %rax,-0x750(%rbp)
   1aa64:	48 8d 85 00 e0 ff ff 	lea    -0x2000(%rbp),%rax
   1aa6b:	48 89 85 b8 f8 ff ff 	mov    %rax,-0x748(%rbp)
   1aa72:	48 8d 85 00 e0 ff ff 	lea    -0x2000(%rbp),%rax
   1aa79:	48 89 85 c0 f8 ff ff 	mov    %rax,-0x740(%rbp)
   1aa80:	48 8d 05 f9 ad 00 00 	lea    0xadf9(%rip),%rax        # 25880 <g_88>
   1aa87:	48 89 85 c8 f8 ff ff 	mov    %rax,-0x738(%rbp)
   1aa8e:	48 c7 85 d0 f8 ff ff 	movq   $0x0,-0x730(%rbp)
   1aa95:	00 00 00 00 
   1aa99:	48 8d 85 c8 df ff ff 	lea    -0x2038(%rbp),%rax
   1aaa0:	48 89 85 d8 f8 ff ff 	mov    %rax,-0x728(%rbp)
   1aaa7:	48 8d 05 d2 ad 00 00 	lea    0xadd2(%rip),%rax        # 25880 <g_88>
   1aaae:	48 89 85 e0 f8 ff ff 	mov    %rax,-0x720(%rbp)
   1aab5:	48 8d 85 c8 df ff ff 	lea    -0x2038(%rbp),%rax
   1aabc:	48 89 85 e8 f8 ff ff 	mov    %rax,-0x718(%rbp)
   1aac3:	48 c7 85 f0 f8 ff ff 	movq   $0x0,-0x710(%rbp)
   1aaca:	00 00 00 00 
   1aace:	48 8d 85 c8 df ff ff 	lea    -0x2038(%rbp),%rax
   1aad5:	48 89 85 f8 f8 ff ff 	mov    %rax,-0x708(%rbp)
   1aadc:	48 8d 85 00 e0 ff ff 	lea    -0x2000(%rbp),%rax
   1aae3:	48 89 85 00 f9 ff ff 	mov    %rax,-0x700(%rbp)
   1aaea:	48 8d 05 8f ad 00 00 	lea    0xad8f(%rip),%rax        # 25880 <g_88>
   1aaf1:	48 89 85 08 f9 ff ff 	mov    %rax,-0x6f8(%rbp)
   1aaf8:	48 8d 05 81 ad 00 00 	lea    0xad81(%rip),%rax        # 25880 <g_88>
   1aaff:	48 89 85 10 f9 ff ff 	mov    %rax,-0x6f0(%rbp)
   1ab06:	48 8d 85 00 e0 ff ff 	lea    -0x2000(%rbp),%rax
   1ab0d:	48 89 85 18 f9 ff ff 	mov    %rax,-0x6e8(%rbp)
   1ab14:	48 8d 85 00 e0 ff ff 	lea    -0x2000(%rbp),%rax
   1ab1b:	48 89 85 20 f9 ff ff 	mov    %rax,-0x6e0(%rbp)
   1ab22:	48 8d 85 00 e0 ff ff 	lea    -0x2000(%rbp),%rax
   1ab29:	48 89 85 28 f9 ff ff 	mov    %rax,-0x6d8(%rbp)
   1ab30:	48 8d 05 49 ad 00 00 	lea    0xad49(%rip),%rax        # 25880 <g_88>
   1ab37:	48 89 85 30 f9 ff ff 	mov    %rax,-0x6d0(%rbp)
   1ab3e:	48 8d 05 3b ad 00 00 	lea    0xad3b(%rip),%rax        # 25880 <g_88>
   1ab45:	48 89 85 38 f9 ff ff 	mov    %rax,-0x6c8(%rbp)
   1ab4c:	48 8d 85 c8 df ff ff 	lea    -0x2038(%rbp),%rax
   1ab53:	48 89 85 40 f9 ff ff 	mov    %rax,-0x6c0(%rbp)
   1ab5a:	48 8d 05 1f ad 00 00 	lea    0xad1f(%rip),%rax        # 25880 <g_88>
   1ab61:	48 89 85 48 f9 ff ff 	mov    %rax,-0x6b8(%rbp)
   1ab68:	48 8d 05 11 ad 00 00 	lea    0xad11(%rip),%rax        # 25880 <g_88>
   1ab6f:	48 89 85 50 f9 ff ff 	mov    %rax,-0x6b0(%rbp)
   1ab76:	48 8d 05 03 ad 00 00 	lea    0xad03(%rip),%rax        # 25880 <g_88>
   1ab7d:	48 89 85 58 f9 ff ff 	mov    %rax,-0x6a8(%rbp)
   1ab84:	48 8d 85 00 e0 ff ff 	lea    -0x2000(%rbp),%rax
   1ab8b:	48 89 85 60 f9 ff ff 	mov    %rax,-0x6a0(%rbp)
   1ab92:	48 8d 85 c8 df ff ff 	lea    -0x2038(%rbp),%rax
   1ab99:	48 89 85 68 f9 ff ff 	mov    %rax,-0x698(%rbp)
   1aba0:	48 c7 85 70 f9 ff ff 	movq   $0x0,-0x690(%rbp)
   1aba7:	00 00 00 00 
   1abab:	48 8d 85 c8 df ff ff 	lea    -0x2038(%rbp),%rax
   1abb2:	48 89 85 78 f9 ff ff 	mov    %rax,-0x688(%rbp)
   1abb9:	48 c7 85 80 f9 ff ff 	movq   $0x0,-0x680(%rbp)
   1abc0:	00 00 00 00 
   1abc4:	48 c7 85 88 f9 ff ff 	movq   $0x0,-0x678(%rbp)
   1abcb:	00 00 00 00 
   1abcf:	48 c7 85 90 f9 ff ff 	movq   $0x0,-0x670(%rbp)
   1abd6:	00 00 00 00 
   1abda:	48 8d 85 c8 df ff ff 	lea    -0x2038(%rbp),%rax
   1abe1:	48 89 85 98 f9 ff ff 	mov    %rax,-0x668(%rbp)
   1abe8:	48 8d 05 91 ac 00 00 	lea    0xac91(%rip),%rax        # 25880 <g_88>
   1abef:	48 89 85 a0 f9 ff ff 	mov    %rax,-0x660(%rbp)
   1abf6:	48 c7 85 a8 f9 ff ff 	movq   $0x0,-0x658(%rbp)
   1abfd:	00 00 00 00 
   1ac01:	48 8d 85 00 e0 ff ff 	lea    -0x2000(%rbp),%rax
   1ac08:	48 89 85 b0 f9 ff ff 	mov    %rax,-0x650(%rbp)
   1ac0f:	48 c7 85 b8 f9 ff ff 	movq   $0x0,-0x648(%rbp)
   1ac16:	00 00 00 00 
   1ac1a:	48 8d 85 00 e0 ff ff 	lea    -0x2000(%rbp),%rax
   1ac21:	48 89 85 c0 f9 ff ff 	mov    %rax,-0x640(%rbp)
   1ac28:	48 8d 05 51 ac 00 00 	lea    0xac51(%rip),%rax        # 25880 <g_88>
   1ac2f:	48 89 85 c8 f9 ff ff 	mov    %rax,-0x638(%rbp)
   1ac36:	48 c7 85 d0 f9 ff ff 	movq   $0x0,-0x630(%rbp)
   1ac3d:	00 00 00 00 
   1ac41:	48 8d 05 38 ac 00 00 	lea    0xac38(%rip),%rax        # 25880 <g_88>
   1ac48:	48 89 85 d8 f9 ff ff 	mov    %rax,-0x628(%rbp)
   1ac4f:	48 8d 05 2a ac 00 00 	lea    0xac2a(%rip),%rax        # 25880 <g_88>
   1ac56:	48 89 85 e0 f9 ff ff 	mov    %rax,-0x620(%rbp)
   1ac5d:	48 8d 85 00 e0 ff ff 	lea    -0x2000(%rbp),%rax
   1ac64:	48 89 85 e8 f9 ff ff 	mov    %rax,-0x618(%rbp)
   1ac6b:	48 8d 85 00 e0 ff ff 	lea    -0x2000(%rbp),%rax
   1ac72:	48 89 85 f0 f9 ff ff 	mov    %rax,-0x610(%rbp)
   1ac79:	48 8d 05 00 ac 00 00 	lea    0xac00(%rip),%rax        # 25880 <g_88>
   1ac80:	48 89 85 f8 f9 ff ff 	mov    %rax,-0x608(%rbp)
   1ac87:	48 8d 05 f2 ab 00 00 	lea    0xabf2(%rip),%rax        # 25880 <g_88>
   1ac8e:	48 89 85 00 fa ff ff 	mov    %rax,-0x600(%rbp)
   1ac95:	48 c7 85 08 fa ff ff 	movq   $0x0,-0x5f8(%rbp)
   1ac9c:	00 00 00 00 
   1aca0:	48 8d 05 d9 ab 00 00 	lea    0xabd9(%rip),%rax        # 25880 <g_88>
   1aca7:	48 89 85 10 fa ff ff 	mov    %rax,-0x5f0(%rbp)
   1acae:	48 8d 05 cb ab 00 00 	lea    0xabcb(%rip),%rax        # 25880 <g_88>
   1acb5:	48 89 85 18 fa ff ff 	mov    %rax,-0x5e8(%rbp)
   1acbc:	48 8d 05 bd ab 00 00 	lea    0xabbd(%rip),%rax        # 25880 <g_88>
   1acc3:	48 89 85 20 fa ff ff 	mov    %rax,-0x5e0(%rbp)
   1acca:	48 8d 85 00 e0 ff ff 	lea    -0x2000(%rbp),%rax
   1acd1:	48 89 85 28 fa ff ff 	mov    %rax,-0x5d8(%rbp)
   1acd8:	48 8d 85 00 e0 ff ff 	lea    -0x2000(%rbp),%rax
   1acdf:	48 89 85 30 fa ff ff 	mov    %rax,-0x5d0(%rbp)
   1ace6:	48 8d 85 c8 df ff ff 	lea    -0x2038(%rbp),%rax
   1aced:	48 89 85 38 fa ff ff 	mov    %rax,-0x5c8(%rbp)
   1acf4:	48 c7 85 40 fa ff ff 	movq   $0x0,-0x5c0(%rbp)
   1acfb:	00 00 00 00 
   1acff:	48 8d 85 00 e0 ff ff 	lea    -0x2000(%rbp),%rax
   1ad06:	48 89 85 48 fa ff ff 	mov    %rax,-0x5b8(%rbp)
   1ad0d:	48 8d 05 6c ab 00 00 	lea    0xab6c(%rip),%rax        # 25880 <g_88>
   1ad14:	48 89 85 50 fa ff ff 	mov    %rax,-0x5b0(%rbp)
   1ad1b:	48 8d 85 00 e0 ff ff 	lea    -0x2000(%rbp),%rax
   1ad22:	48 89 85 58 fa ff ff 	mov    %rax,-0x5a8(%rbp)
   1ad29:	48 c7 85 60 fa ff ff 	movq   $0x0,-0x5a0(%rbp)
   1ad30:	00 00 00 00 
   1ad34:	48 8d 85 00 e0 ff ff 	lea    -0x2000(%rbp),%rax
   1ad3b:	48 89 85 68 fa ff ff 	mov    %rax,-0x598(%rbp)
   1ad42:	48 8d 85 00 e0 ff ff 	lea    -0x2000(%rbp),%rax
   1ad49:	48 89 85 70 fa ff ff 	mov    %rax,-0x590(%rbp)
   1ad50:	48 8d 85 c8 df ff ff 	lea    -0x2038(%rbp),%rax
   1ad57:	48 89 85 78 fa ff ff 	mov    %rax,-0x588(%rbp)
   1ad5e:	48 c7 85 80 fa ff ff 	movq   $0x0,-0x580(%rbp)
   1ad65:	00 00 00 00 
   1ad69:	48 8d 85 00 e0 ff ff 	lea    -0x2000(%rbp),%rax
   1ad70:	48 89 85 88 fa ff ff 	mov    %rax,-0x578(%rbp)
   1ad77:	48 8d 85 00 e0 ff ff 	lea    -0x2000(%rbp),%rax
   1ad7e:	48 89 85 90 fa ff ff 	mov    %rax,-0x570(%rbp)
   1ad85:	48 8d 05 f4 aa 00 00 	lea    0xaaf4(%rip),%rax        # 25880 <g_88>
   1ad8c:	48 89 85 98 fa ff ff 	mov    %rax,-0x568(%rbp)
   1ad93:	48 8d 05 e6 aa 00 00 	lea    0xaae6(%rip),%rax        # 25880 <g_88>
   1ad9a:	48 89 85 a0 fa ff ff 	mov    %rax,-0x560(%rbp)
   1ada1:	48 c7 85 a8 fa ff ff 	movq   $0x0,-0x558(%rbp)
   1ada8:	00 00 00 00 
   1adac:	48 8d 05 cd aa 00 00 	lea    0xaacd(%rip),%rax        # 25880 <g_88>
   1adb3:	48 89 85 b0 fa ff ff 	mov    %rax,-0x550(%rbp)
   1adba:	48 8d 05 bf aa 00 00 	lea    0xaabf(%rip),%rax        # 25880 <g_88>
   1adc1:	48 89 85 b8 fa ff ff 	mov    %rax,-0x548(%rbp)
   1adc8:	48 8d 05 b1 aa 00 00 	lea    0xaab1(%rip),%rax        # 25880 <g_88>
   1adcf:	48 89 85 c0 fa ff ff 	mov    %rax,-0x540(%rbp)
   1add6:	48 8d 85 c8 df ff ff 	lea    -0x2038(%rbp),%rax
   1addd:	48 89 85 c8 fa ff ff 	mov    %rax,-0x538(%rbp)
   1ade4:	48 8d 85 00 e0 ff ff 	lea    -0x2000(%rbp),%rax
   1adeb:	48 89 85 d0 fa ff ff 	mov    %rax,-0x530(%rbp)
   1adf2:	48 8d 05 87 aa 00 00 	lea    0xaa87(%rip),%rax        # 25880 <g_88>
   1adf9:	48 89 85 d8 fa ff ff 	mov    %rax,-0x528(%rbp)
   1ae00:	48 8d 85 c8 df ff ff 	lea    -0x2038(%rbp),%rax
   1ae07:	48 89 85 e0 fa ff ff 	mov    %rax,-0x520(%rbp)
   1ae0e:	48 8d 05 6b aa 00 00 	lea    0xaa6b(%rip),%rax        # 25880 <g_88>
   1ae15:	48 89 85 e8 fa ff ff 	mov    %rax,-0x518(%rbp)
   1ae1c:	48 8d 05 5d aa 00 00 	lea    0xaa5d(%rip),%rax        # 25880 <g_88>
   1ae23:	48 89 85 f0 fa ff ff 	mov    %rax,-0x510(%rbp)
   1ae2a:	48 c7 85 f8 fa ff ff 	movq   $0x0,-0x508(%rbp)
   1ae31:	00 00 00 00 
   1ae35:	48 8d 85 c8 df ff ff 	lea    -0x2038(%rbp),%rax
   1ae3c:	48 89 85 00 fb ff ff 	mov    %rax,-0x500(%rbp)
   1ae43:	48 8d 85 c8 df ff ff 	lea    -0x2038(%rbp),%rax
   1ae4a:	48 89 85 08 fb ff ff 	mov    %rax,-0x4f8(%rbp)
   1ae51:	48 8d 05 28 aa 00 00 	lea    0xaa28(%rip),%rax        # 25880 <g_88>
   1ae58:	48 89 85 10 fb ff ff 	mov    %rax,-0x4f0(%rbp)
   1ae5f:	48 8d 85 c8 df ff ff 	lea    -0x2038(%rbp),%rax
   1ae66:	48 89 85 18 fb ff ff 	mov    %rax,-0x4e8(%rbp)
   1ae6d:	48 c7 85 20 fb ff ff 	movq   $0x0,-0x4e0(%rbp)
   1ae74:	00 00 00 00 
   1ae78:	48 8d 05 01 aa 00 00 	lea    0xaa01(%rip),%rax        # 25880 <g_88>
   1ae7f:	48 89 85 28 fb ff ff 	mov    %rax,-0x4d8(%rbp)
   1ae86:	48 8d 05 f3 a9 00 00 	lea    0xa9f3(%rip),%rax        # 25880 <g_88>
   1ae8d:	48 89 85 30 fb ff ff 	mov    %rax,-0x4d0(%rbp)
   1ae94:	48 8d 85 c8 df ff ff 	lea    -0x2038(%rbp),%rax
   1ae9b:	48 89 85 38 fb ff ff 	mov    %rax,-0x4c8(%rbp)
   1aea2:	48 8d 85 00 e0 ff ff 	lea    -0x2000(%rbp),%rax
   1aea9:	48 89 85 40 fb ff ff 	mov    %rax,-0x4c0(%rbp)
   1aeb0:	48 8d 05 c9 a9 00 00 	lea    0xa9c9(%rip),%rax        # 25880 <g_88>
   1aeb7:	48 89 85 48 fb ff ff 	mov    %rax,-0x4b8(%rbp)
   1aebe:	48 8d 05 bb a9 00 00 	lea    0xa9bb(%rip),%rax        # 25880 <g_88>
   1aec5:	48 89 85 50 fb ff ff 	mov    %rax,-0x4b0(%rbp)
   1aecc:	48 8d 05 ad a9 00 00 	lea    0xa9ad(%rip),%rax        # 25880 <g_88>
   1aed3:	48 89 85 58 fb ff ff 	mov    %rax,-0x4a8(%rbp)
   1aeda:	48 8d 85 00 e0 ff ff 	lea    -0x2000(%rbp),%rax
   1aee1:	48 89 85 60 fb ff ff 	mov    %rax,-0x4a0(%rbp)
   1aee8:	48 8d 05 91 a9 00 00 	lea    0xa991(%rip),%rax        # 25880 <g_88>
   1aeef:	48 89 85 68 fb ff ff 	mov    %rax,-0x498(%rbp)
   1aef6:	48 8d 85 00 e0 ff ff 	lea    -0x2000(%rbp),%rax
   1aefd:	48 89 85 70 fb ff ff 	mov    %rax,-0x490(%rbp)
   1af04:	48 8d 05 75 a9 00 00 	lea    0xa975(%rip),%rax        # 25880 <g_88>
   1af0b:	48 89 85 78 fb ff ff 	mov    %rax,-0x488(%rbp)
   1af12:	48 8d 85 00 e0 ff ff 	lea    -0x2000(%rbp),%rax
   1af19:	48 89 85 80 fb ff ff 	mov    %rax,-0x480(%rbp)
   1af20:	48 c7 85 88 fb ff ff 	movq   $0x0,-0x478(%rbp)
   1af27:	00 00 00 00 
   1af2b:	48 8d 05 4e a9 00 00 	lea    0xa94e(%rip),%rax        # 25880 <g_88>
   1af32:	48 89 85 90 fb ff ff 	mov    %rax,-0x470(%rbp)
   1af39:	48 8d 85 00 e0 ff ff 	lea    -0x2000(%rbp),%rax
   1af40:	48 89 85 98 fb ff ff 	mov    %rax,-0x468(%rbp)
   1af47:	48 8d 05 32 a9 00 00 	lea    0xa932(%rip),%rax        # 25880 <g_88>
   1af4e:	48 89 85 a0 fb ff ff 	mov    %rax,-0x460(%rbp)
   1af55:	48 8d 05 24 a9 00 00 	lea    0xa924(%rip),%rax        # 25880 <g_88>
   1af5c:	48 89 85 a8 fb ff ff 	mov    %rax,-0x458(%rbp)
   1af63:	48 8d 85 c8 df ff ff 	lea    -0x2038(%rbp),%rax
   1af6a:	48 89 85 b0 fb ff ff 	mov    %rax,-0x450(%rbp)
   1af71:	48 8d 85 c8 df ff ff 	lea    -0x2038(%rbp),%rax
   1af78:	48 89 85 b8 fb ff ff 	mov    %rax,-0x448(%rbp)
   1af7f:	48 8d 05 fa a8 00 00 	lea    0xa8fa(%rip),%rax        # 25880 <g_88>
   1af86:	48 89 85 c0 fb ff ff 	mov    %rax,-0x440(%rbp)
   1af8d:	48 8d 85 c8 df ff ff 	lea    -0x2038(%rbp),%rax
   1af94:	48 89 85 c8 fb ff ff 	mov    %rax,-0x438(%rbp)
   1af9b:	48 8d 05 de a8 00 00 	lea    0xa8de(%rip),%rax        # 25880 <g_88>
   1afa2:	48 89 85 d0 fb ff ff 	mov    %rax,-0x430(%rbp)
   1afa9:	48 8d 85 c8 df ff ff 	lea    -0x2038(%rbp),%rax
   1afb0:	48 89 85 d8 fb ff ff 	mov    %rax,-0x428(%rbp)
   1afb7:	48 8d 05 c2 a8 00 00 	lea    0xa8c2(%rip),%rax        # 25880 <g_88>
   1afbe:	48 89 85 e0 fb ff ff 	mov    %rax,-0x420(%rbp)
   1afc5:	48 c7 85 e8 fb ff ff 	movq   $0x0,-0x418(%rbp)
   1afcc:	00 00 00 00 
   1afd0:	48 8d 05 a9 a8 00 00 	lea    0xa8a9(%rip),%rax        # 25880 <g_88>
   1afd7:	48 89 85 f0 fb ff ff 	mov    %rax,-0x410(%rbp)
   1afde:	48 8d 05 9b a8 00 00 	lea    0xa89b(%rip),%rax        # 25880 <g_88>
   1afe5:	48 89 85 f8 fb ff ff 	mov    %rax,-0x408(%rbp)
   1afec:	48 8d 05 8d a8 00 00 	lea    0xa88d(%rip),%rax        # 25880 <g_88>
   1aff3:	48 89 85 00 fc ff ff 	mov    %rax,-0x400(%rbp)
   1affa:	48 c7 85 08 fc ff ff 	movq   $0x0,-0x3f8(%rbp)
   1b001:	00 00 00 00 
   1b005:	48 8d 85 00 e0 ff ff 	lea    -0x2000(%rbp),%rax
   1b00c:	48 89 85 10 fc ff ff 	mov    %rax,-0x3f0(%rbp)
   1b013:	48 8d 85 c8 df ff ff 	lea    -0x2038(%rbp),%rax
   1b01a:	48 89 85 18 fc ff ff 	mov    %rax,-0x3e8(%rbp)
   1b021:	48 8d 05 58 a8 00 00 	lea    0xa858(%rip),%rax        # 25880 <g_88>
   1b028:	48 89 85 20 fc ff ff 	mov    %rax,-0x3e0(%rbp)
   1b02f:	48 8d 85 00 e0 ff ff 	lea    -0x2000(%rbp),%rax
   1b036:	48 89 85 28 fc ff ff 	mov    %rax,-0x3d8(%rbp)
   1b03d:	48 c7 85 30 fc ff ff 	movq   $0x0,-0x3d0(%rbp)
   1b044:	00 00 00 00 
   1b048:	48 8d 05 31 a8 00 00 	lea    0xa831(%rip),%rax        # 25880 <g_88>
   1b04f:	48 89 85 38 fc ff ff 	mov    %rax,-0x3c8(%rbp)
   1b056:	48 8d 85 c8 df ff ff 	lea    -0x2038(%rbp),%rax
   1b05d:	48 89 85 40 fc ff ff 	mov    %rax,-0x3c0(%rbp)
   1b064:	48 c7 85 48 fc ff ff 	movq   $0x0,-0x3b8(%rbp)
   1b06b:	00 00 00 00 
   1b06f:	48 8d 05 0a a8 00 00 	lea    0xa80a(%rip),%rax        # 25880 <g_88>
   1b076:	48 89 85 50 fc ff ff 	mov    %rax,-0x3b0(%rbp)
   1b07d:	48 8d 05 fc a7 00 00 	lea    0xa7fc(%rip),%rax        # 25880 <g_88>
   1b084:	48 89 85 58 fc ff ff 	mov    %rax,-0x3a8(%rbp)
   1b08b:	48 8d 05 ee a7 00 00 	lea    0xa7ee(%rip),%rax        # 25880 <g_88>
   1b092:	48 89 85 60 fc ff ff 	mov    %rax,-0x3a0(%rbp)
   1b099:	48 c7 85 68 fc ff ff 	movq   $0x0,-0x398(%rbp)
   1b0a0:	00 00 00 00 
   1b0a4:	48 8d 85 00 e0 ff ff 	lea    -0x2000(%rbp),%rax
   1b0ab:	48 89 85 70 fc ff ff 	mov    %rax,-0x390(%rbp)
   1b0b2:	48 8d 05 c7 a7 00 00 	lea    0xa7c7(%rip),%rax        # 25880 <g_88>
   1b0b9:	48 89 85 78 fc ff ff 	mov    %rax,-0x388(%rbp)
   1b0c0:	48 8d 05 b9 a7 00 00 	lea    0xa7b9(%rip),%rax        # 25880 <g_88>
   1b0c7:	48 89 85 80 fc ff ff 	mov    %rax,-0x380(%rbp)
   1b0ce:	48 8d 05 ab a7 00 00 	lea    0xa7ab(%rip),%rax        # 25880 <g_88>
   1b0d5:	48 89 85 88 fc ff ff 	mov    %rax,-0x378(%rbp)
   1b0dc:	48 c7 85 90 fc ff ff 	movq   $0x0,-0x370(%rbp)
   1b0e3:	00 00 00 00 
   1b0e7:	48 8d 05 92 a7 00 00 	lea    0xa792(%rip),%rax        # 25880 <g_88>
   1b0ee:	48 89 85 98 fc ff ff 	mov    %rax,-0x368(%rbp)
   1b0f5:	48 8d 85 00 e0 ff ff 	lea    -0x2000(%rbp),%rax
   1b0fc:	48 89 85 a0 fc ff ff 	mov    %rax,-0x360(%rbp)
   1b103:	48 c7 85 a8 fc ff ff 	movq   $0x0,-0x358(%rbp)
   1b10a:	00 00 00 00 
   1b10e:	48 8d 05 6b a7 00 00 	lea    0xa76b(%rip),%rax        # 25880 <g_88>
   1b115:	48 89 85 b0 fc ff ff 	mov    %rax,-0x350(%rbp)
   1b11c:	48 8d 85 00 e0 ff ff 	lea    -0x2000(%rbp),%rax
   1b123:	48 89 85 b8 fc ff ff 	mov    %rax,-0x348(%rbp)
   1b12a:	48 8d 85 c8 df ff ff 	lea    -0x2038(%rbp),%rax
   1b131:	48 89 85 c0 fc ff ff 	mov    %rax,-0x340(%rbp)
   1b138:	48 8d 85 c8 df ff ff 	lea    -0x2038(%rbp),%rax
   1b13f:	48 89 85 c8 fc ff ff 	mov    %rax,-0x338(%rbp)
   1b146:	48 8d 85 00 e0 ff ff 	lea    -0x2000(%rbp),%rax
   1b14d:	48 89 85 d0 fc ff ff 	mov    %rax,-0x330(%rbp)
   1b154:	48 8d 05 25 a7 00 00 	lea    0xa725(%rip),%rax        # 25880 <g_88>
   1b15b:	48 89 85 d8 fc ff ff 	mov    %rax,-0x328(%rbp)
   1b162:	48 8d 85 00 e0 ff ff 	lea    -0x2000(%rbp),%rax
   1b169:	48 89 85 e0 fc ff ff 	mov    %rax,-0x320(%rbp)
   1b170:	48 8d 85 00 e0 ff ff 	lea    -0x2000(%rbp),%rax
   1b177:	48 89 85 e8 fc ff ff 	mov    %rax,-0x318(%rbp)
   1b17e:	48 8d 85 00 e0 ff ff 	lea    -0x2000(%rbp),%rax
   1b185:	48 89 85 f0 fc ff ff 	mov    %rax,-0x310(%rbp)
   1b18c:	48 8d 85 c8 df ff ff 	lea    -0x2038(%rbp),%rax
   1b193:	48 89 85 f8 fc ff ff 	mov    %rax,-0x308(%rbp)
   1b19a:	48 c7 85 00 fd ff ff 	movq   $0x0,-0x300(%rbp)
   1b1a1:	00 00 00 00 
   1b1a5:	48 8d 05 d4 a6 00 00 	lea    0xa6d4(%rip),%rax        # 25880 <g_88>
   1b1ac:	48 89 85 08 fd ff ff 	mov    %rax,-0x2f8(%rbp)
   1b1b3:	48 8d 85 00 e0 ff ff 	lea    -0x2000(%rbp),%rax
   1b1ba:	48 89 85 10 fd ff ff 	mov    %rax,-0x2f0(%rbp)
   1b1c1:	48 c7 85 18 fd ff ff 	movq   $0x0,-0x2e8(%rbp)
   1b1c8:	00 00 00 00 
   1b1cc:	48 8d 85 c8 df ff ff 	lea    -0x2038(%rbp),%rax
   1b1d3:	48 89 85 20 fd ff ff 	mov    %rax,-0x2e0(%rbp)
   1b1da:	48 8d 85 00 e0 ff ff 	lea    -0x2000(%rbp),%rax
   1b1e1:	48 89 85 28 fd ff ff 	mov    %rax,-0x2d8(%rbp)
   1b1e8:	48 8d 05 91 a6 00 00 	lea    0xa691(%rip),%rax        # 25880 <g_88>
   1b1ef:	48 89 85 30 fd ff ff 	mov    %rax,-0x2d0(%rbp)
   1b1f6:	48 8d 85 00 e0 ff ff 	lea    -0x2000(%rbp),%rax
   1b1fd:	48 89 85 38 fd ff ff 	mov    %rax,-0x2c8(%rbp)
   1b204:	48 8d 05 75 a6 00 00 	lea    0xa675(%rip),%rax        # 25880 <g_88>
   1b20b:	48 89 85 40 fd ff ff 	mov    %rax,-0x2c0(%rbp)
   1b212:	48 8d 05 67 a6 00 00 	lea    0xa667(%rip),%rax        # 25880 <g_88>
   1b219:	48 89 85 48 fd ff ff 	mov    %rax,-0x2b8(%rbp)
   1b220:	48 8d 05 59 a6 00 00 	lea    0xa659(%rip),%rax        # 25880 <g_88>
   1b227:	48 89 85 50 fd ff ff 	mov    %rax,-0x2b0(%rbp)
   1b22e:	48 8d 05 4b a6 00 00 	lea    0xa64b(%rip),%rax        # 25880 <g_88>
   1b235:	48 89 85 58 fd ff ff 	mov    %rax,-0x2a8(%rbp)
   1b23c:	48 8d 85 c8 df ff ff 	lea    -0x2038(%rbp),%rax
   1b243:	48 89 85 60 fd ff ff 	mov    %rax,-0x2a0(%rbp)
   1b24a:	48 8d 85 c8 df ff ff 	lea    -0x2038(%rbp),%rax
   1b251:	48 89 85 68 fd ff ff 	mov    %rax,-0x298(%rbp)
   1b258:	48 8d 85 c8 df ff ff 	lea    -0x2038(%rbp),%rax
   1b25f:	48 89 85 70 fd ff ff 	mov    %rax,-0x290(%rbp)
   1b266:	48 8d 05 13 a6 00 00 	lea    0xa613(%rip),%rax        # 25880 <g_88>
   1b26d:	48 89 85 78 fd ff ff 	mov    %rax,-0x288(%rbp)
   1b274:	48 8d 05 05 a6 00 00 	lea    0xa605(%rip),%rax        # 25880 <g_88>
   1b27b:	48 89 85 80 fd ff ff 	mov    %rax,-0x280(%rbp)
   1b282:	48 8d 85 00 e0 ff ff 	lea    -0x2000(%rbp),%rax
   1b289:	48 89 85 88 fd ff ff 	mov    %rax,-0x278(%rbp)
   1b290:	48 8d 85 00 e0 ff ff 	lea    -0x2000(%rbp),%rax
   1b297:	48 89 85 90 fd ff ff 	mov    %rax,-0x270(%rbp)
   1b29e:	48 8d 85 00 e0 ff ff 	lea    -0x2000(%rbp),%rax
   1b2a5:	48 89 85 98 fd ff ff 	mov    %rax,-0x268(%rbp)
   1b2ac:	48 8d 05 cd a5 00 00 	lea    0xa5cd(%rip),%rax        # 25880 <g_88>
   1b2b3:	48 89 85 a0 fd ff ff 	mov    %rax,-0x260(%rbp)
   1b2ba:	48 8d 05 bf a5 00 00 	lea    0xa5bf(%rip),%rax        # 25880 <g_88>
   1b2c1:	48 89 85 a8 fd ff ff 	mov    %rax,-0x258(%rbp)
   1b2c8:	48 8d 05 b1 a5 00 00 	lea    0xa5b1(%rip),%rax        # 25880 <g_88>
   1b2cf:	48 89 85 b0 fd ff ff 	mov    %rax,-0x250(%rbp)
   1b2d6:	48 8d 05 a3 a5 00 00 	lea    0xa5a3(%rip),%rax        # 25880 <g_88>
   1b2dd:	48 89 85 b8 fd ff ff 	mov    %rax,-0x248(%rbp)
   1b2e4:	48 8d 05 95 a5 00 00 	lea    0xa595(%rip),%rax        # 25880 <g_88>
   1b2eb:	48 89 85 c0 fd ff ff 	mov    %rax,-0x240(%rbp)
   1b2f2:	48 8d 05 87 a5 00 00 	lea    0xa587(%rip),%rax        # 25880 <g_88>
   1b2f9:	48 89 85 c8 fd ff ff 	mov    %rax,-0x238(%rbp)
   1b300:	48 8d 05 79 a5 00 00 	lea    0xa579(%rip),%rax        # 25880 <g_88>
   1b307:	48 89 85 d0 fd ff ff 	mov    %rax,-0x230(%rbp)
   1b30e:	48 8d 05 6b a5 00 00 	lea    0xa56b(%rip),%rax        # 25880 <g_88>
   1b315:	48 89 85 d8 fd ff ff 	mov    %rax,-0x228(%rbp)
   1b31c:	48 8d 85 c8 df ff ff 	lea    -0x2038(%rbp),%rax
   1b323:	48 89 85 e0 fd ff ff 	mov    %rax,-0x220(%rbp)
   1b32a:	48 c7 85 e8 fd ff ff 	movq   $0x0,-0x218(%rbp)
   1b331:	00 00 00 00 
   1b335:	48 8d 05 44 a5 00 00 	lea    0xa544(%rip),%rax        # 25880 <g_88>
   1b33c:	48 89 85 f0 fd ff ff 	mov    %rax,-0x210(%rbp)
   1b343:	48 c7 85 f8 fd ff ff 	movq   $0x0,-0x208(%rbp)
   1b34a:	00 00 00 00 
   1b34e:	48 8d 85 c8 df ff ff 	lea    -0x2038(%rbp),%rax
   1b355:	48 89 85 00 fe ff ff 	mov    %rax,-0x200(%rbp)
   1b35c:	48 8d 85 00 e0 ff ff 	lea    -0x2000(%rbp),%rax
   1b363:	48 89 85 08 fe ff ff 	mov    %rax,-0x1f8(%rbp)
   1b36a:	48 8d 05 0f a5 00 00 	lea    0xa50f(%rip),%rax        # 25880 <g_88>
   1b371:	48 89 85 10 fe ff ff 	mov    %rax,-0x1f0(%rbp)
   1b378:	48 8d 85 00 e0 ff ff 	lea    -0x2000(%rbp),%rax
   1b37f:	48 89 85 18 fe ff ff 	mov    %rax,-0x1e8(%rbp)
   1b386:	48 8d 85 00 e0 ff ff 	lea    -0x2000(%rbp),%rax
   1b38d:	48 89 85 20 fe ff ff 	mov    %rax,-0x1e0(%rbp)
   1b394:	48 8d 85 00 e0 ff ff 	lea    -0x2000(%rbp),%rax
   1b39b:	48 89 85 28 fe ff ff 	mov    %rax,-0x1d8(%rbp)
   1b3a2:	48 8d 85 00 e0 ff ff 	lea    -0x2000(%rbp),%rax
   1b3a9:	48 89 85 30 fe ff ff 	mov    %rax,-0x1d0(%rbp)
   1b3b0:	48 c7 85 38 fe ff ff 	movq   $0x0,-0x1c8(%rbp)
   1b3b7:	00 00 00 00 
   1b3bb:	48 c7 85 40 fe ff ff 	movq   $0x0,-0x1c0(%rbp)
   1b3c2:	00 00 00 00 
   1b3c6:	48 8d 85 00 e0 ff ff 	lea    -0x2000(%rbp),%rax
   1b3cd:	48 89 85 48 fe ff ff 	mov    %rax,-0x1b8(%rbp)
   1b3d4:	48 8d 85 00 e0 ff ff 	lea    -0x2000(%rbp),%rax
   1b3db:	48 89 85 50 fe ff ff 	mov    %rax,-0x1b0(%rbp)
   1b3e2:	48 8d 85 00 e0 ff ff 	lea    -0x2000(%rbp),%rax
   1b3e9:	48 89 85 58 fe ff ff 	mov    %rax,-0x1a8(%rbp)
   1b3f0:	48 c7 85 60 fe ff ff 	movq   $0x0,-0x1a0(%rbp)
   1b3f7:	00 00 00 00 
   1b3fb:	48 c7 85 68 fe ff ff 	movq   $0x0,-0x198(%rbp)
   1b402:	00 00 00 00 
   1b406:	48 c7 85 70 fe ff ff 	movq   $0x0,-0x190(%rbp)
   1b40d:	00 00 00 00 
   1b411:	48 8d 05 68 a4 00 00 	lea    0xa468(%rip),%rax        # 25880 <g_88>
   1b418:	48 89 85 78 fe ff ff 	mov    %rax,-0x188(%rbp)
   1b41f:	48 c7 85 80 fe ff ff 	movq   $0x0,-0x180(%rbp)
   1b426:	00 00 00 00 
   1b42a:	48 8d 05 4f a4 00 00 	lea    0xa44f(%rip),%rax        # 25880 <g_88>
   1b431:	48 89 85 88 fe ff ff 	mov    %rax,-0x178(%rbp)
   1b438:	48 8d 85 00 e0 ff ff 	lea    -0x2000(%rbp),%rax
   1b43f:	48 89 85 90 fe ff ff 	mov    %rax,-0x170(%rbp)
   1b446:	48 8d 85 c8 df ff ff 	lea    -0x2038(%rbp),%rax
   1b44d:	48 89 85 98 fe ff ff 	mov    %rax,-0x168(%rbp)
   1b454:	48 8d 85 00 e0 ff ff 	lea    -0x2000(%rbp),%rax
   1b45b:	48 89 85 a0 fe ff ff 	mov    %rax,-0x160(%rbp)
   1b462:	48 8d 05 17 a4 00 00 	lea    0xa417(%rip),%rax        # 25880 <g_88>
   1b469:	48 89 85 a8 fe ff ff 	mov    %rax,-0x158(%rbp)
   1b470:	48 8d 85 00 e0 ff ff 	lea    -0x2000(%rbp),%rax
   1b477:	48 89 85 b0 fe ff ff 	mov    %rax,-0x150(%rbp)
   1b47e:	48 8d 85 00 e0 ff ff 	lea    -0x2000(%rbp),%rax
   1b485:	48 89 85 b8 fe ff ff 	mov    %rax,-0x148(%rbp)
   1b48c:	48 8d 05 ed a3 00 00 	lea    0xa3ed(%rip),%rax        # 25880 <g_88>
   1b493:	48 89 85 c0 fe ff ff 	mov    %rax,-0x140(%rbp)
   1b49a:	48 8d 85 00 e0 ff ff 	lea    -0x2000(%rbp),%rax
   1b4a1:	48 89 85 c8 fe ff ff 	mov    %rax,-0x138(%rbp)
   1b4a8:	48 8d 05 d1 a3 00 00 	lea    0xa3d1(%rip),%rax        # 25880 <g_88>
   1b4af:	48 89 85 d0 fe ff ff 	mov    %rax,-0x130(%rbp)
   1b4b6:	48 8d 85 00 e0 ff ff 	lea    -0x2000(%rbp),%rax
   1b4bd:	48 89 85 d8 fe ff ff 	mov    %rax,-0x128(%rbp)
   1b4c4:	48 8d 85 c8 df ff ff 	lea    -0x2038(%rbp),%rax
   1b4cb:	48 89 85 e0 fe ff ff 	mov    %rax,-0x120(%rbp)
   1b4d2:	48 8d 85 c8 df ff ff 	lea    -0x2038(%rbp),%rax
   1b4d9:	48 89 85 e8 fe ff ff 	mov    %rax,-0x118(%rbp)
   1b4e0:	48 8d 85 c8 df ff ff 	lea    -0x2038(%rbp),%rax
   1b4e7:	48 89 85 f0 fe ff ff 	mov    %rax,-0x110(%rbp)
   1b4ee:	48 8d 85 00 e0 ff ff 	lea    -0x2000(%rbp),%rax
   1b4f5:	48 89 85 f8 fe ff ff 	mov    %rax,-0x108(%rbp)
   1b4fc:	48 8d 85 00 e0 ff ff 	lea    -0x2000(%rbp),%rax
   1b503:	48 89 85 00 ff ff ff 	mov    %rax,-0x100(%rbp)
   1b50a:	48 8d 05 6f a3 00 00 	lea    0xa36f(%rip),%rax        # 25880 <g_88>
   1b511:	48 89 85 08 ff ff ff 	mov    %rax,-0xf8(%rbp)
   1b518:	48 8d 05 61 a3 00 00 	lea    0xa361(%rip),%rax        # 25880 <g_88>
   1b51f:	48 89 85 10 ff ff ff 	mov    %rax,-0xf0(%rbp)
   1b526:	48 8d 85 00 e0 ff ff 	lea    -0x2000(%rbp),%rax
   1b52d:	48 89 85 18 ff ff ff 	mov    %rax,-0xe8(%rbp)
   1b534:	48 8d 05 45 a3 00 00 	lea    0xa345(%rip),%rax        # 25880 <g_88>
   1b53b:	48 89 85 20 ff ff ff 	mov    %rax,-0xe0(%rbp)
   1b542:	48 8d 85 00 e0 ff ff 	lea    -0x2000(%rbp),%rax
   1b549:	48 89 85 28 ff ff ff 	mov    %rax,-0xd8(%rbp)
   1b550:	48 8d 05 29 a3 00 00 	lea    0xa329(%rip),%rax        # 25880 <g_88>
   1b557:	48 89 85 30 ff ff ff 	mov    %rax,-0xd0(%rbp)
   1b55e:	48 c7 85 38 ff ff ff 	movq   $0x0,-0xc8(%rbp)
   1b565:	00 00 00 00 
   1b569:	48 c7 85 40 ff ff ff 	movq   $0x0,-0xc0(%rbp)
   1b570:	00 00 00 00 
   1b574:	48 8d 05 05 a3 00 00 	lea    0xa305(%rip),%rax        # 25880 <g_88>
   1b57b:	48 89 85 48 ff ff ff 	mov    %rax,-0xb8(%rbp)
   1b582:	48 c7 85 50 ff ff ff 	movq   $0x0,-0xb0(%rbp)
   1b589:	00 00 00 00 
   1b58d:	48 8d 05 ec a2 00 00 	lea    0xa2ec(%rip),%rax        # 25880 <g_88>
   1b594:	48 89 85 58 ff ff ff 	mov    %rax,-0xa8(%rbp)
   1b59b:	48 8d 85 00 e0 ff ff 	lea    -0x2000(%rbp),%rax
   1b5a2:	48 89 85 60 ff ff ff 	mov    %rax,-0xa0(%rbp)
   1b5a9:	48 8d 85 00 e0 ff ff 	lea    -0x2000(%rbp),%rax
   1b5b0:	48 89 85 68 ff ff ff 	mov    %rax,-0x98(%rbp)
   1b5b7:	48 8d 85 00 e0 ff ff 	lea    -0x2000(%rbp),%rax
   1b5be:	48 89 85 70 ff ff ff 	mov    %rax,-0x90(%rbp)
   1b5c5:	48 8d 85 c8 df ff ff 	lea    -0x2038(%rbp),%rax
   1b5cc:	48 89 85 78 ff ff ff 	mov    %rax,-0x88(%rbp)
   1b5d3:	48 8d 05 a6 a2 00 00 	lea    0xa2a6(%rip),%rax        # 25880 <g_88>
   1b5da:	48 89 45 80          	mov    %rax,-0x80(%rbp)
   1b5de:	48 8d 85 c8 df ff ff 	lea    -0x2038(%rbp),%rax
   1b5e5:	48 89 45 88          	mov    %rax,-0x78(%rbp)
   1b5e9:	48 8d 05 90 a2 00 00 	lea    0xa290(%rip),%rax        # 25880 <g_88>
   1b5f0:	48 89 45 90          	mov    %rax,-0x70(%rbp)
   1b5f4:	48 8d 05 85 a2 00 00 	lea    0xa285(%rip),%rax        # 25880 <g_88>
   1b5fb:	48 89 45 98          	mov    %rax,-0x68(%rbp)
   1b5ff:	48 8d 85 00 e0 ff ff 	lea    -0x2000(%rbp),%rax
   1b606:	48 89 45 a0          	mov    %rax,-0x60(%rbp)
   1b60a:	48 c7 45 a8 00 00 00 	movq   $0x0,-0x58(%rbp)
   1b611:	00 
   1b612:	48 8d 85 00 e0 ff ff 	lea    -0x2000(%rbp),%rax
   1b619:	48 89 45 b0          	mov    %rax,-0x50(%rbp)
   1b61d:	48 8d 05 5c a2 00 00 	lea    0xa25c(%rip),%rax        # 25880 <g_88>
   1b624:	48 89 45 b8          	mov    %rax,-0x48(%rbp)
   1b628:	48 8d 05 51 a2 00 00 	lea    0xa251(%rip),%rax        # 25880 <g_88>
   1b62f:	48 89 45 c0          	mov    %rax,-0x40(%rbp)
   1b633:	48 8d 05 46 a2 00 00 	lea    0xa246(%rip),%rax        # 25880 <g_88>
   1b63a:	48 89 45 c8          	mov    %rax,-0x38(%rbp)
   1b63e:	c7 85 3c df ff ff 00 	movl   $0x0,-0x20c4(%rbp)
   1b645:	00 00 00 
   1b648:	e9 53 01 00 00       	jmpq   1b7a0 <func_61+0x4412>
   1b64d:	48 8d 85 00 df ff ff 	lea    -0x2100(%rbp),%rax
   1b654:	48 89 85 d0 e3 ff ff 	mov    %rax,-0x1c30(%rbp)
   1b65b:	48 8d 85 00 df ff ff 	lea    -0x2100(%rbp),%rax
   1b662:	48 89 85 d8 e3 ff ff 	mov    %rax,-0x1c28(%rbp)
   1b669:	48 8d 85 00 df ff ff 	lea    -0x2100(%rbp),%rax
   1b670:	48 89 85 e0 e3 ff ff 	mov    %rax,-0x1c20(%rbp)
   1b677:	48 8d 85 00 df ff ff 	lea    -0x2100(%rbp),%rax
   1b67e:	48 89 85 e8 e3 ff ff 	mov    %rax,-0x1c18(%rbp)
   1b685:	48 8d 85 00 df ff ff 	lea    -0x2100(%rbp),%rax
   1b68c:	48 89 85 f0 e3 ff ff 	mov    %rax,-0x1c10(%rbp)
   1b693:	48 8d 85 00 df ff ff 	lea    -0x2100(%rbp),%rax
   1b69a:	48 89 85 f8 e3 ff ff 	mov    %rax,-0x1c08(%rbp)
   1b6a1:	48 8d 85 00 df ff ff 	lea    -0x2100(%rbp),%rax
   1b6a8:	48 89 85 00 e4 ff ff 	mov    %rax,-0x1c00(%rbp)
   1b6af:	48 8d 85 00 df ff ff 	lea    -0x2100(%rbp),%rax
   1b6b6:	48 89 85 08 e4 ff ff 	mov    %rax,-0x1bf8(%rbp)
   1b6bd:	48 8d 85 00 df ff ff 	lea    -0x2100(%rbp),%rax
   1b6c4:	48 89 85 10 e4 ff ff 	mov    %rax,-0x1bf0(%rbp)
   1b6cb:	48 8d 85 00 df ff ff 	lea    -0x2100(%rbp),%rax
   1b6d2:	48 89 85 18 e4 ff ff 	mov    %rax,-0x1be8(%rbp)
   1b6d9:	48 8d 05 70 79 00 00 	lea    0x7970(%rip),%rax        # 23050 <g_188>
   1b6e0:	48 89 85 e8 e0 ff ff 	mov    %rax,-0x1f18(%rbp)
   1b6e7:	c7 85 98 df ff ff f6 	movl   $0xfffffff6,-0x2068(%rbp)
   1b6ee:	ff ff ff 
   1b6f1:	48 8d 85 20 ec ff ff 	lea    -0x13e0(%rbp),%rax
   1b6f8:	48 8d 15 21 39 00 00 	lea    0x3921(%rip),%rdx        # 1f020 <g_3489+0x1fc0>
   1b6ff:	b9 69 00 00 00       	mov    $0x69,%ecx
   1b704:	48 89 c7             	mov    %rax,%rdi
   1b707:	48 89 d6             	mov    %rdx,%rsi
   1b70a:	f3 48 a5             	rep movsq %ds:(%rsi),%es:(%rdi)
   1b70d:	48 c7 85 08 e0 ff ff 	movq   $0x0,-0x1ff8(%rbp)
   1b714:	00 00 00 00 
   1b718:	48 8d 85 10 df ff ff 	lea    -0x20f0(%rbp),%rax
   1b71f:	48 89 85 f0 e0 ff ff 	mov    %rax,-0x1f10(%rbp)
   1b726:	48 8d 85 80 e5 ff ff 	lea    -0x1a80(%rbp),%rax
   1b72d:	48 05 c4 00 00 00    	add    $0xc4,%rax
   1b733:	48 89 85 f8 e0 ff ff 	mov    %rax,-0x1f08(%rbp)
   1b73a:	48 8d 85 08 e0 ff ff 	lea    -0x1ff8(%rbp),%rax
   1b741:	48 89 85 00 e1 ff ff 	mov    %rax,-0x1f00(%rbp)
   1b748:	48 8d 85 20 df ff ff 	lea    -0x20e0(%rbp),%rax
   1b74f:	48 89 85 08 e1 ff ff 	mov    %rax,-0x1ef8(%rbp)
   1b756:	c7 85 48 df ff ff 00 	movl   $0x0,-0x20b8(%rbp)
   1b75d:	00 00 00 
   1b760:	eb 1a                	jmp    1b77c <func_61+0x43ee>
   1b762:	8b 85 48 df ff ff    	mov    -0x20b8(%rbp),%eax
   1b768:	48 98                	cltq   
   1b76a:	c7 84 85 90 e2 ff ff 	movl   $0x3296f636,-0x1d70(%rbp,%rax,4)
   1b771:	36 f6 96 32 
   1b775:	83 85 48 df ff ff 01 	addl   $0x1,-0x20b8(%rbp)
   1b77c:	83 bd 48 df ff ff 08 	cmpl   $0x8,-0x20b8(%rbp)
   1b783:	7e dd                	jle    1b762 <func_61+0x43d4>
   1b785:	8b 85 3c df ff ff    	mov    -0x20c4(%rbp),%eax
   1b78b:	48 98                	cltq   
   1b78d:	be 05 00 00 00       	mov    $0x5,%esi
   1b792:	48 89 c7             	mov    %rax,%rdi
   1b795:	e8 94 08 ff ff       	callq  c02e <safe_add_func_uint64_t_u_u>
   1b79a:	89 85 3c df ff ff    	mov    %eax,-0x20c4(%rbp)
   1b7a0:	83 bd 3c df ff ff 07 	cmpl   $0x7,-0x20c4(%rbp)
   1b7a7:	0f 8e a0 fe ff ff    	jle    1b64d <func_61+0x42bf>
   1b7ad:	48 8d 85 24 df ff ff 	lea    -0x20dc(%rbp),%rax
   1b7b4:	48 89 85 d8 de ff ff 	mov    %rax,-0x2128(%rbp)
   1b7bb:	e9 ad 08 00 00       	jmpq   1c06d <func_61+0x4cdf>
   1b7c0:	c7 85 4c df ff ff de 	movl   $0x2cfe7cde,-0x20b4(%rbp)
   1b7c7:	7c fe 2c 
   1b7ca:	48 8d 05 17 c6 00 00 	lea    0xc617(%rip),%rax        # 27de8 <g_401>
   1b7d1:	48 89 85 78 e0 ff ff 	mov    %rax,-0x1f88(%rbp)
   1b7d8:	c7 85 7c df ff ff aa 	movl   $0x1550beaa,-0x2084(%rbp)
   1b7df:	be 50 15 
   1b7e2:	48 8d 85 00 df ff ff 	lea    -0x2100(%rbp),%rax
   1b7e9:	48 89 85 80 e0 ff ff 	mov    %rax,-0x1f80(%rbp)
   1b7f0:	48 8d 05 5d 78 00 00 	lea    0x785d(%rip),%rax        # 23054 <g_200>
   1b7f7:	48 89 85 88 e0 ff ff 	mov    %rax,-0x1f78(%rbp)
   1b7fe:	48 8d 05 8b a0 00 00 	lea    0xa08b(%rip),%rax        # 25890 <g_105>
   1b805:	48 89 85 20 ec ff ff 	mov    %rax,-0x13e0(%rbp)
   1b80c:	48 8d 05 7d a0 00 00 	lea    0xa07d(%rip),%rax        # 25890 <g_105>
   1b813:	48 89 85 28 ec ff ff 	mov    %rax,-0x13d8(%rbp)
   1b81a:	48 8d 05 6f a0 00 00 	lea    0xa06f(%rip),%rax        # 25890 <g_105>
   1b821:	48 89 85 30 ec ff ff 	mov    %rax,-0x13d0(%rbp)
   1b828:	48 8d 05 61 a0 00 00 	lea    0xa061(%rip),%rax        # 25890 <g_105>
   1b82f:	48 89 85 38 ec ff ff 	mov    %rax,-0x13c8(%rbp)
   1b836:	48 8d 05 53 a0 00 00 	lea    0xa053(%rip),%rax        # 25890 <g_105>
   1b83d:	48 89 85 40 ec ff ff 	mov    %rax,-0x13c0(%rbp)
   1b844:	48 c7 85 48 ec ff ff 	movq   $0x0,-0x13b8(%rbp)
   1b84b:	00 00 00 00 
   1b84f:	48 c7 85 50 ec ff ff 	movq   $0x0,-0x13b0(%rbp)
   1b856:	00 00 00 00 
   1b85a:	48 8d 05 2f a0 00 00 	lea    0xa02f(%rip),%rax        # 25890 <g_105>
   1b861:	48 89 85 58 ec ff ff 	mov    %rax,-0x13a8(%rbp)
   1b868:	48 8d 05 21 a0 00 00 	lea    0xa021(%rip),%rax        # 25890 <g_105>
   1b86f:	48 89 85 60 ec ff ff 	mov    %rax,-0x13a0(%rbp)
   1b876:	48 c7 85 68 ec ff ff 	movq   $0x0,-0x1398(%rbp)
   1b87d:	00 00 00 00 
   1b881:	48 c7 85 70 ec ff ff 	movq   $0x0,-0x1390(%rbp)
   1b888:	00 00 00 00 
   1b88c:	48 8d 05 fd 9f 00 00 	lea    0x9ffd(%rip),%rax        # 25890 <g_105>
   1b893:	48 89 85 78 ec ff ff 	mov    %rax,-0x1388(%rbp)
   1b89a:	48 8d 05 ef 9f 00 00 	lea    0x9fef(%rip),%rax        # 25890 <g_105>
   1b8a1:	48 89 85 80 ec ff ff 	mov    %rax,-0x1380(%rbp)
   1b8a8:	48 8d 05 e1 9f 00 00 	lea    0x9fe1(%rip),%rax        # 25890 <g_105>
   1b8af:	48 89 85 88 ec ff ff 	mov    %rax,-0x1378(%rbp)
   1b8b6:	48 8d 05 d3 9f 00 00 	lea    0x9fd3(%rip),%rax        # 25890 <g_105>
   1b8bd:	48 89 85 90 ec ff ff 	mov    %rax,-0x1370(%rbp)
   1b8c4:	48 8d 05 c5 9f 00 00 	lea    0x9fc5(%rip),%rax        # 25890 <g_105>
   1b8cb:	48 89 85 98 ec ff ff 	mov    %rax,-0x1368(%rbp)
   1b8d2:	48 8d 05 b7 9f 00 00 	lea    0x9fb7(%rip),%rax        # 25890 <g_105>
   1b8d9:	48 89 85 a0 ec ff ff 	mov    %rax,-0x1360(%rbp)
   1b8e0:	48 8d 05 a9 9f 00 00 	lea    0x9fa9(%rip),%rax        # 25890 <g_105>
   1b8e7:	48 89 85 a8 ec ff ff 	mov    %rax,-0x1358(%rbp)
   1b8ee:	48 8d 05 9b 9f 00 00 	lea    0x9f9b(%rip),%rax        # 25890 <g_105>
   1b8f5:	48 89 85 b0 ec ff ff 	mov    %rax,-0x1350(%rbp)
   1b8fc:	48 8d 05 8d 9f 00 00 	lea    0x9f8d(%rip),%rax        # 25890 <g_105>
   1b903:	48 89 85 b8 ec ff ff 	mov    %rax,-0x1348(%rbp)
   1b90a:	48 8d 05 7f 9f 00 00 	lea    0x9f7f(%rip),%rax        # 25890 <g_105>
   1b911:	48 89 85 c0 ec ff ff 	mov    %rax,-0x1340(%rbp)
   1b918:	48 8d 05 71 9f 00 00 	lea    0x9f71(%rip),%rax        # 25890 <g_105>
   1b91f:	48 89 85 c8 ec ff ff 	mov    %rax,-0x1338(%rbp)
   1b926:	48 8d 05 63 9f 00 00 	lea    0x9f63(%rip),%rax        # 25890 <g_105>
   1b92d:	48 89 85 d0 ec ff ff 	mov    %rax,-0x1330(%rbp)
   1b934:	48 8d 05 55 9f 00 00 	lea    0x9f55(%rip),%rax        # 25890 <g_105>
   1b93b:	48 89 85 d8 ec ff ff 	mov    %rax,-0x1328(%rbp)
   1b942:	48 8d 05 47 9f 00 00 	lea    0x9f47(%rip),%rax        # 25890 <g_105>
   1b949:	48 89 85 e0 ec ff ff 	mov    %rax,-0x1320(%rbp)
   1b950:	48 8d 05 39 9f 00 00 	lea    0x9f39(%rip),%rax        # 25890 <g_105>
   1b957:	48 89 85 e8 ec ff ff 	mov    %rax,-0x1318(%rbp)
   1b95e:	48 8d 05 2b 9f 00 00 	lea    0x9f2b(%rip),%rax        # 25890 <g_105>
   1b965:	48 89 85 f0 ec ff ff 	mov    %rax,-0x1310(%rbp)
   1b96c:	48 8d 05 1d 9f 00 00 	lea    0x9f1d(%rip),%rax        # 25890 <g_105>
   1b973:	48 89 85 f8 ec ff ff 	mov    %rax,-0x1308(%rbp)
   1b97a:	48 8d 05 0f 9f 00 00 	lea    0x9f0f(%rip),%rax        # 25890 <g_105>
   1b981:	48 89 85 00 ed ff ff 	mov    %rax,-0x1300(%rbp)
   1b988:	48 8d 05 01 9f 00 00 	lea    0x9f01(%rip),%rax        # 25890 <g_105>
   1b98f:	48 89 85 08 ed ff ff 	mov    %rax,-0x12f8(%rbp)
   1b996:	48 c7 85 10 ed ff ff 	movq   $0x0,-0x12f0(%rbp)
   1b99d:	00 00 00 00 
   1b9a1:	48 8d 05 e8 9e 00 00 	lea    0x9ee8(%rip),%rax        # 25890 <g_105>
   1b9a8:	48 89 85 18 ed ff ff 	mov    %rax,-0x12e8(%rbp)
   1b9af:	48 8d 05 8a 76 00 00 	lea    0x768a(%rip),%rax        # 23040 <g_121>
   1b9b6:	48 89 85 90 e0 ff ff 	mov    %rax,-0x1f70(%rbp)
   1b9bd:	48 8d 85 f0 df ff ff 	lea    -0x2010(%rbp),%rax
   1b9c4:	48 89 85 98 e0 ff ff 	mov    %rax,-0x1f68(%rbp)
   1b9cb:	48 8d 85 d0 f7 ff ff 	lea    -0x830(%rbp),%rax
   1b9d2:	48 8d 15 67 9c 00 00 	lea    0x9c67(%rip),%rdx        # 25640 <g_4429+0x1d14>
   1b9d9:	b9 46 00 00 00       	mov    $0x46,%ecx
   1b9de:	48 89 c7             	mov    %rax,%rdi
   1b9e1:	48 89 d6             	mov    %rdx,%rsi
   1b9e4:	f3 48 a5             	rep movsq %ds:(%rsi),%es:(%rdi)
   1b9e7:	c7 85 50 df ff ff 00 	movl   $0x0,-0x20b0(%rbp)
   1b9ee:	00 00 00 
   1b9f1:	eb 1b                	jmp    1ba0e <func_61+0x4680>
   1b9f3:	8b 85 50 df ff ff    	mov    -0x20b0(%rbp),%eax
   1b9f9:	48 98                	cltq   
   1b9fb:	48 c7 84 c5 c0 e4 ff 	movq   $0x0,-0x1b40(%rbp,%rax,8)
   1ba02:	ff 00 00 00 00 
   1ba07:	83 85 50 df ff ff 01 	addl   $0x1,-0x20b0(%rbp)
   1ba0e:	83 bd 50 df ff ff 02 	cmpl   $0x2,-0x20b0(%rbp)
   1ba15:	7e dc                	jle    1b9f3 <func_61+0x4665>
   1ba17:	8b 85 e8 de ff ff    	mov    -0x2118(%rbp),%eax
   1ba1d:	85 c0                	test   %eax,%eax
   1ba1f:	0f 84 70 01 00 00    	je     1bb95 <func_61+0x4807>
   1ba25:	48 8b 85 18 e0 ff ff 	mov    -0x1fe8(%rbp),%rax
   1ba2c:	48 8b 00             	mov    (%rax),%rax
   1ba2f:	48 8b 00             	mov    (%rax),%rax
   1ba32:	8b 00                	mov    (%rax),%eax
   1ba34:	4c 63 e8             	movslq %eax,%r13
   1ba37:	0f b7 05 1e 76 00 00 	movzwl 0x761e(%rip),%eax        # 2305c <g_252>
   1ba3e:	48 0f bf d8          	movswq %ax,%rbx
   1ba42:	0f b7 05 e9 75 00 00 	movzwl 0x75e9(%rip),%eax        # 23032 <g_6+0x2>
   1ba49:	89 c2                	mov    %eax,%edx
   1ba4b:	0f b6 05 fe 75 00 00 	movzbl 0x75fe(%rip),%eax        # 23050 <g_188>
   1ba52:	09 d0                	or     %edx,%eax
   1ba54:	88 05 f6 75 00 00    	mov    %al,0x75f6(%rip)        # 23050 <g_188>
   1ba5a:	0f b6 05 ef 75 00 00 	movzbl 0x75ef(%rip),%eax        # 23050 <g_188>
   1ba61:	44 0f be f0          	movsbl %al,%r14d
   1ba65:	8b 05 e9 75 00 00    	mov    0x75e9(%rip),%eax        # 23054 <g_200>
   1ba6b:	4c 63 e0             	movslq %eax,%r12
   1ba6e:	8b 95 e8 de ff ff    	mov    -0x2118(%rbp),%edx
   1ba74:	8b 05 ae 75 00 00    	mov    0x75ae(%rip),%eax        # 23028 <g_5>
   1ba7a:	0f be c0             	movsbl %al,%eax
   1ba7d:	89 d6                	mov    %edx,%esi
   1ba7f:	89 c7                	mov    %eax,%edi
   1ba81:	e8 af f8 fe ff       	callq  b335 <safe_rshift_func_int8_t_s_s>
   1ba86:	48 0f bf 85 e0 de ff 	movswq -0x2120(%rbp),%rax
   1ba8d:	ff 
   1ba8e:	4c 89 e6             	mov    %r12,%rsi
   1ba91:	48 89 c7             	mov    %rax,%rdi
   1ba94:	e8 16 06 ff ff       	callq  c0af <safe_div_func_uint64_t_u_u>
   1ba99:	89 c2                	mov    %eax,%edx
   1ba9b:	48 8b 85 78 e0 ff ff 	mov    -0x1f88(%rbp),%rax
   1baa2:	88 10                	mov    %dl,(%rax)
   1baa4:	48 8b 85 78 e0 ff ff 	mov    -0x1f88(%rbp),%rax
   1baab:	0f b6 00             	movzbl (%rax),%eax
   1baae:	0f b6 c0             	movzbl %al,%eax
   1bab1:	41 39 c6             	cmp    %eax,%r14d
   1bab4:	0f 9f c0             	setg   %al
   1bab7:	0f b6 c0             	movzbl %al,%eax
   1baba:	39 85 4c df ff ff    	cmp    %eax,-0x20b4(%rbp)
   1bac0:	0f 95 c0             	setne  %al
   1bac3:	0f b6 d0             	movzbl %al,%edx
   1bac6:	8b 85 e8 de ff ff    	mov    -0x2118(%rbp),%eax
   1bacc:	39 c2                	cmp    %eax,%edx
   1bace:	0f 9f c0             	setg   %al
   1bad1:	0f b6 c0             	movzbl %al,%eax
   1bad4:	48 89 de             	mov    %rbx,%rsi
   1bad7:	48 89 c7             	mov    %rax,%rdi
   1bada:	e8 18 ff fe ff       	callq  b9f7 <safe_div_func_int64_t_s_s>
   1badf:	49 39 c5             	cmp    %rax,%r13
   1bae2:	0f 95 c0             	setne  %al
   1bae5:	0f b6 c0             	movzbl %al,%eax
   1bae8:	09 85 7c df ff ff    	or     %eax,-0x2084(%rbp)
   1baee:	83 bd 7c df ff ff 00 	cmpl   $0x0,-0x2084(%rbp)
   1baf5:	74 07                	je     1bafe <func_61+0x4770>
   1baf7:	b8 01 00 00 00       	mov    $0x1,%eax
   1bafc:	eb 05                	jmp    1bb03 <func_61+0x4775>
   1bafe:	b8 00 00 00 00       	mov    $0x0,%eax
   1bb03:	48 98                	cltq   
   1bb05:	48 39 85 30 e0 ff ff 	cmp    %rax,-0x1fd0(%rbp)
   1bb0c:	0f 93 c0             	setae  %al
   1bb0f:	0f b6 c0             	movzbl %al,%eax
   1bb12:	89 c2                	mov    %eax,%edx
   1bb14:	8b 85 4c df ff ff    	mov    -0x20b4(%rbp),%eax
   1bb1a:	48 89 d6             	mov    %rdx,%rsi
   1bb1d:	48 89 c7             	mov    %rax,%rdi
   1bb20:	e8 83 fd fe ff       	callq  b8a8 <safe_sub_func_int64_t_s_s>
   1bb25:	8b 05 c9 77 00 00    	mov    0x77c9(%rip),%eax        # 232f4 <g_310+0x294>
   1bb2b:	89 c2                	mov    %eax,%edx
   1bb2d:	8b 85 ec de ff ff    	mov    -0x2114(%rbp),%eax
   1bb33:	0f be c0             	movsbl %al,%eax
   1bb36:	89 d6                	mov    %edx,%esi
   1bb38:	89 c7                	mov    %eax,%edi
   1bb3a:	e8 2d f8 fe ff       	callq  b36c <safe_rshift_func_int8_t_s_u>
   1bb3f:	0f b7 85 e0 de ff ff 	movzwl -0x2120(%rbp),%eax
   1bb46:	98                   	cwtl   
   1bb47:	21 85 74 df ff ff    	and    %eax,-0x208c(%rbp)
   1bb4d:	8b 85 74 df ff ff    	mov    -0x208c(%rbp),%eax
   1bb53:	0f be c0             	movsbl %al,%eax
   1bb56:	be 01 00 00 00       	mov    $0x1,%esi
   1bb5b:	89 c7                	mov    %eax,%edi
   1bb5d:	e8 08 f7 fe ff       	callq  b26a <safe_div_func_int8_t_s_s>
   1bb62:	0f b7 95 e4 de ff ff 	movzwl -0x211c(%rbp),%edx
   1bb69:	48 8b 85 80 e0 ff ff 	mov    -0x1f80(%rbp),%rax
   1bb70:	0f b7 00             	movzwl (%rax),%eax
   1bb73:	31 c2                	xor    %eax,%edx
   1bb75:	48 8b 85 80 e0 ff ff 	mov    -0x1f80(%rbp),%rax
   1bb7c:	66 89 10             	mov    %dx,(%rax)
   1bb7f:	48 8b 85 80 e0 ff ff 	mov    -0x1f80(%rbp),%rax
   1bb86:	0f b7 00             	movzwl (%rax),%eax
   1bb89:	66 85 c0             	test   %ax,%ax
   1bb8c:	74 07                	je     1bb95 <func_61+0x4807>
   1bb8e:	ba 01 00 00 00       	mov    $0x1,%edx
   1bb93:	eb 05                	jmp    1bb9a <func_61+0x480c>
   1bb95:	ba 00 00 00 00       	mov    $0x0,%edx
   1bb9a:	48 8b 85 88 e0 ff ff 	mov    -0x1f78(%rbp),%rax
   1bba1:	89 10                	mov    %edx,(%rax)
   1bba3:	48 8d 85 e8 de ff ff 	lea    -0x2118(%rbp),%rax
   1bbaa:	48 89 85 10 e0 ff ff 	mov    %rax,-0x1ff0(%rbp)
   1bbb1:	c7 85 4c df ff ff 00 	movl   $0x0,-0x20b4(%rbp)
   1bbb8:	00 00 00 
   1bbbb:	e9 a0 04 00 00       	jmpq   1c060 <func_61+0x4cd2>
   1bbc0:	66 c7 85 04 df ff ff 	movw   $0x1,-0x20fc(%rbp)
   1bbc7:	01 00 
   1bbc9:	48 c7 85 00 e0 ff ff 	movq   $0x0,-0x2000(%rbp)
   1bbd0:	00 00 00 00 
   1bbd4:	48 8d 85 00 e0 ff ff 	lea    -0x2000(%rbp),%rax
   1bbdb:	48 89 85 08 e0 ff ff 	mov    %rax,-0x1ff8(%rbp)
   1bbe2:	c7 85 54 df ff ff fb 	movl   $0xfffffffb,-0x20ac(%rbp)
   1bbe9:	ff ff ff 
   1bbec:	66 c7 85 06 df ff ff 	movw   $0x2a98,-0x20fa(%rbp)
   1bbf3:	98 2a 
   1bbf5:	c7 85 58 df ff ff 00 	movl   $0x0,-0x20a8(%rbp)
   1bbfc:	00 00 00 
   1bbff:	eb 46                	jmp    1bc47 <func_61+0x48b9>
   1bc01:	c7 85 5c df ff ff 00 	movl   $0x0,-0x20a4(%rbp)
   1bc08:	00 00 00 
   1bc0b:	eb 2a                	jmp    1bc37 <func_61+0x48a9>
   1bc0d:	8b 85 5c df ff ff    	mov    -0x20a4(%rbp),%eax
   1bc13:	48 98                	cltq   
   1bc15:	8b 95 58 df ff ff    	mov    -0x20a8(%rbp),%edx
   1bc1b:	48 63 d2             	movslq %edx,%rdx
   1bc1e:	48 c1 e2 02          	shl    $0x2,%rdx
   1bc22:	48 01 d0             	add    %rdx,%rax
   1bc25:	c7 84 85 30 e4 ff ff 	movl   $0x265f1ea4,-0x1bd0(%rbp,%rax,4)
   1bc2c:	a4 1e 5f 26 
   1bc30:	83 85 5c df ff ff 01 	addl   $0x1,-0x20a4(%rbp)
   1bc37:	83 bd 5c df ff ff 03 	cmpl   $0x3,-0x20a4(%rbp)
   1bc3e:	7e cd                	jle    1bc0d <func_61+0x487f>
   1bc40:	83 85 58 df ff ff 01 	addl   $0x1,-0x20a8(%rbp)
   1bc47:	83 bd 58 df ff ff 00 	cmpl   $0x0,-0x20a8(%rbp)
   1bc4e:	7e b1                	jle    1bc01 <func_61+0x4873>
   1bc50:	48 8b 05 e9 9c 00 00 	mov    0x9ce9(%rip),%rax        # 25940 <g_628>
   1bc57:	48 8b 15 da 9c 00 00 	mov    0x9cda(%rip),%rdx        # 25938 <g_626>
   1bc5e:	48 89 10             	mov    %rdx,(%rax)
   1bc61:	c6 05 e8 73 00 00 00 	movb   $0x0,0x73e8(%rip)        # 23050 <g_188>
   1bc68:	e9 a9 00 00 00       	jmpq   1bd16 <func_61+0x4988>
   1bc6d:	48 b8 c6 3e dc 54 59 	movabs $0x32132f5954dc3ec6,%rax
   1bc74:	2f 13 32 
   1bc77:	48 89 85 b8 e0 ff ff 	mov    %rax,-0x1f48(%rbp)
   1bc7e:	48 8d 85 30 e3 ff ff 	lea    -0x1cd0(%rbp),%rax
   1bc85:	48 83 c0 28          	add    $0x28,%rax
   1bc89:	48 89 85 c0 e0 ff ff 	mov    %rax,-0x1f40(%rbp)
   1bc90:	48 c7 85 c8 e0 ff ff 	movq   $0x0,-0x1f38(%rbp)
   1bc97:	00 00 00 00 
   1bc9b:	48 c7 85 d0 e0 ff ff 	movq   $0x0,-0x1f30(%rbp)
   1bca2:	00 00 00 00 
   1bca6:	c7 85 80 df ff ff 9a 	movl   $0xcd64b79a,-0x2080(%rbp)
   1bcad:	b7 64 cd 
   1bcb0:	c7 85 60 df ff ff 00 	movl   $0x0,-0x20a0(%rbp)
   1bcb7:	00 00 00 
   1bcba:	eb 1e                	jmp    1bcda <func_61+0x494c>
   1bcbc:	8b 85 60 df ff ff    	mov    -0x20a0(%rbp),%eax
   1bcc2:	48 98                	cltq   
   1bcc4:	48 8d 95 f8 df ff ff 	lea    -0x2008(%rbp),%rdx
   1bccb:	48 89 94 c5 60 e7 ff 	mov    %rdx,-0x18a0(%rbp,%rax,8)
   1bcd2:	ff 
   1bcd3:	83 85 60 df ff ff 01 	addl   $0x1,-0x20a0(%rbp)
   1bcda:	83 bd 60 df ff ff 09 	cmpl   $0x9,-0x20a0(%rbp)
   1bce1:	7e d9                	jle    1bcbc <func_61+0x492e>
   1bce3:	66 c7 85 00 df ff ff 	movw   $0x0,-0x2100(%rbp)
   1bcea:	00 00 
   1bcec:	90                   	nop
   1bced:	0f b7 85 00 df ff ff 	movzwl -0x2100(%rbp),%eax
   1bcf4:	66 83 f8 16          	cmp    $0x16,%ax
   1bcf8:	7f 0c                	jg     1bd06 <func_61+0x4978>
   1bcfa:	48 8b 05 3f 73 00 00 	mov    0x733f(%rip),%rax        # 23040 <g_121>
   1bd01:	e9 57 04 00 00       	jmpq   1c15d <func_61+0x4dcf>
   1bd06:	0f b6 05 43 73 00 00 	movzbl 0x7343(%rip),%eax        # 23050 <g_188>
   1bd0d:	83 c0 01             	add    $0x1,%eax
   1bd10:	88 05 3a 73 00 00    	mov    %al,0x733a(%rip)        # 23050 <g_188>
   1bd16:	0f b6 05 33 73 00 00 	movzbl 0x7333(%rip),%eax        # 23050 <g_188>
   1bd1d:	3c 0c                	cmp    $0xc,%al
   1bd1f:	0f 85 48 ff ff ff    	jne    1bc6d <func_61+0x48df>
   1bd25:	c6 85 fa de ff ff ea 	movb   $0xea,-0x2106(%rbp)
   1bd2c:	e9 07 03 00 00       	jmpq   1c038 <func_61+0x4caa>
   1bd31:	48 8d 85 d0 df ff ff 	lea    -0x2030(%rbp),%rax
   1bd38:	48 89 85 a0 e0 ff ff 	mov    %rax,-0x1f60(%rbp)
   1bd3f:	48 8d 85 d0 f2 ff ff 	lea    -0xd30(%rbp),%rax
   1bd46:	48 05 20 03 00 00    	add    $0x320,%rax
   1bd4c:	48 89 85 a8 e0 ff ff 	mov    %rax,-0x1f58(%rbp)
   1bd53:	48 8d 85 e8 de ff ff 	lea    -0x2118(%rbp),%rax
   1bd5a:	48 89 85 10 e0 ff ff 	mov    %rax,-0x1ff0(%rbp)
   1bd61:	be b3 00 00 00       	mov    $0xb3,%esi
   1bd66:	bf 00 00 00 00       	mov    $0x0,%edi
   1bd6b:	e8 08 fe fe ff       	callq  bb78 <safe_sub_func_uint8_t_u_u>
   1bd70:	0f b6 c8             	movzbl %al,%ecx
   1bd73:	48 8b 85 48 e0 ff ff 	mov    -0x1fb8(%rbp),%rax
   1bd7a:	48 8b 00             	mov    (%rax),%rax
   1bd7d:	48 8b 95 80 e0 ff ff 	mov    -0x1f80(%rbp),%rdx
   1bd84:	48 89 10             	mov    %rdx,(%rax)
   1bd87:	48 8b 10             	mov    (%rax),%rdx
   1bd8a:	48 8b 85 a0 e0 ff ff 	mov    -0x1f60(%rbp),%rax
   1bd91:	48 89 10             	mov    %rdx,(%rax)
   1bd94:	48 8b 85 a0 e0 ff ff 	mov    -0x1f60(%rbp),%rax
   1bd9b:	48 8b 00             	mov    (%rax),%rax
   1bd9e:	48 39 85 60 e0 ff ff 	cmp    %rax,-0x1fa0(%rbp)
   1bda5:	75 2e                	jne    1bdd5 <func_61+0x4a47>
   1bda7:	48 8b 85 88 e0 ff ff 	mov    -0x1f78(%rbp),%rax
   1bdae:	8b 10                	mov    (%rax),%edx
   1bdb0:	48 8b 05 91 9b 00 00 	mov    0x9b91(%rip),%rax        # 25948 <g_692>
   1bdb7:	0f b6 00             	movzbl (%rax),%eax
   1bdba:	0f be c0             	movsbl %al,%eax
   1bdbd:	31 c2                	xor    %eax,%edx
   1bdbf:	48 8b 85 88 e0 ff ff 	mov    -0x1f78(%rbp),%rax
   1bdc6:	89 10                	mov    %edx,(%rax)
   1bdc8:	48 8b 85 88 e0 ff ff 	mov    -0x1f78(%rbp),%rax
   1bdcf:	8b 00                	mov    (%rax),%eax
   1bdd1:	85 c0                	test   %eax,%eax
   1bdd3:	74 07                	je     1bddc <func_61+0x4a4e>
   1bdd5:	b8 01 00 00 00       	mov    $0x1,%eax
   1bdda:	eb 05                	jmp    1bde1 <func_61+0x4a53>
   1bddc:	b8 00 00 00 00       	mov    $0x0,%eax
   1bde1:	31 c8                	xor    %ecx,%eax
   1bde3:	89 c2                	mov    %eax,%edx
   1bde5:	48 8b 85 a8 e0 ff ff 	mov    -0x1f58(%rbp),%rax
   1bdec:	89 10                	mov    %edx,(%rax)
   1bdee:	48 8b 85 a8 e0 ff ff 	mov    -0x1f58(%rbp),%rax
   1bdf5:	8b 00                	mov    (%rax),%eax
   1bdf7:	85 c0                	test   %eax,%eax
   1bdf9:	0f 84 85 01 00 00    	je     1bf84 <func_61+0x4bf6>
   1bdff:	48 c7 85 b0 e0 ff ff 	movq   $0x0,-0x1f50(%rbp)
   1be06:	00 00 00 00 
   1be0a:	8b 9d 78 df ff ff    	mov    -0x2088(%rbp),%ebx
   1be10:	be 03 00 00 00       	mov    $0x3,%esi
   1be15:	bf 01 00 00 00       	mov    $0x1,%edi
   1be1a:	e8 8f fd fe ff       	callq  bbae <safe_mod_func_uint8_t_u_u>
   1be1f:	84 c0                	test   %al,%al
   1be21:	8b 85 e8 de ff ff    	mov    -0x2118(%rbp),%eax
   1be27:	98                   	cwtl   
   1be28:	be 94 9b ff ff       	mov    $0xffff9b94,%esi
   1be2d:	89 c7                	mov    %eax,%edi
   1be2f:	e8 e2 f5 fe ff       	callq  b416 <safe_mod_func_int16_t_s_s>
   1be34:	48 8b 15 c5 bf 00 00 	mov    0xbfc5(%rip),%rdx        # 27e00 <g_783>
   1be3b:	48 8b 05 e6 9a 00 00 	mov    0x9ae6(%rip),%rax        # 25928 <g_578>
   1be42:	48 8b 00             	mov    (%rax),%rax
   1be45:	48 39 c2             	cmp    %rax,%rdx
   1be48:	0f 95 c0             	setne  %al
   1be4b:	0f b6 c0             	movzbl %al,%eax
   1be4e:	89 de                	mov    %ebx,%esi
   1be50:	89 c7                	mov    %eax,%edi
   1be52:	e8 ce 00 ff ff       	callq  bf25 <safe_div_func_uint32_t_u_u>
   1be57:	81 bd ec de ff ff 84 	cmpl   $0x4684,-0x2114(%rbp)
   1be5e:	46 00 00 
   1be61:	48 8b 95 e0 f7 ff ff 	mov    -0x820(%rbp),%rdx
   1be68:	48 8d 85 08 e0 ff ff 	lea    -0x1ff8(%rbp),%rax
   1be6f:	48 39 c2             	cmp    %rax,%rdx
   1be72:	0f 95 c0             	setne  %al
   1be75:	0f b6 d0             	movzbl %al,%edx
   1be78:	0f bf 85 04 df ff ff 	movswl -0x20fc(%rbp),%eax
   1be7f:	31 d0                	xor    %edx,%eax
   1be81:	48 63 d0             	movslq %eax,%rdx
   1be84:	48 8b 05 d5 75 00 00 	mov    0x75d5(%rip),%rax        # 23460 <g_672>
   1be8b:	48 39 c2             	cmp    %rax,%rdx
   1be8e:	0f 9f c0             	setg   %al
   1be91:	0f b6 d8             	movzbl %al,%ebx
   1be94:	48 8b 85 a8 e0 ff ff 	mov    -0x1f58(%rbp),%rax
   1be9b:	8b 00                	mov    (%rax),%eax
   1be9d:	4c 63 e0             	movslq %eax,%r12
   1bea0:	66 83 bd e0 de ff ff 	cmpw   $0x1,-0x2120(%rbp)
   1bea7:	01 
   1bea8:	0f 9e c0             	setle  %al
   1beab:	0f b6 c0             	movzbl %al,%eax
   1beae:	48 89 c6             	mov    %rax,%rsi
   1beb1:	48 c7 c7 fc ff ff ff 	mov    $0xfffffffffffffffc,%rdi
   1beb8:	e8 71 01 ff ff       	callq  c02e <safe_add_func_uint64_t_u_u>
   1bebd:	4c 31 e0             	xor    %r12,%rax
   1bec0:	48 89 de             	mov    %rbx,%rsi
   1bec3:	48 89 c7             	mov    %rax,%rdi
   1bec6:	e8 76 f9 fe ff       	callq  b841 <safe_add_func_int64_t_s_s>
   1becb:	b9 06 00 00 00       	mov    $0x6,%ecx
   1bed0:	0f b6 05 79 71 00 00 	movzbl 0x7179(%rip),%eax        # 23050 <g_188>
   1bed7:	66 0f be d0          	movsbw %al,%dx
   1bedb:	48 8b 85 90 e0 ff ff 	mov    -0x1f70(%rbp),%rax
   1bee2:	48 8b 00             	mov    (%rax),%rax
   1bee5:	48 09 c1             	or     %rax,%rcx
   1bee8:	48 8b 85 90 e0 ff ff 	mov    -0x1f70(%rbp),%rax
   1beef:	48 89 08             	mov    %rcx,(%rax)
   1bef2:	48 8b 85 90 e0 ff ff 	mov    -0x1f70(%rbp),%rax
   1bef9:	48 8b 00             	mov    (%rax),%rax
   1befc:	48 b9 45 6a 14 ba ba 	movabs $0xda3dc4baba146a45,%rcx
   1bf03:	c4 3d da 
   1bf06:	48 39 c8             	cmp    %rcx,%rax
   1bf09:	0f 96 c0             	setbe  %al
   1bf0c:	0f b6 c0             	movzbl %al,%eax
   1bf0f:	21 d0                	and    %edx,%eax
   1bf11:	0f b7 c0             	movzwl %ax,%eax
   1bf14:	be 00 00 00 00       	mov    $0x0,%esi
   1bf19:	89 c7                	mov    %eax,%edi
   1bf1b:	e8 5a ff fe ff       	callq  be7a <safe_rshift_func_uint16_t_u_u>
   1bf20:	0f b7 c0             	movzwl %ax,%eax
   1bf23:	48 09 85 b0 e0 ff ff 	or     %rax,-0x1f50(%rbp)
   1bf2a:	48 8b 85 a8 e0 ff ff 	mov    -0x1f58(%rbp),%rax
   1bf31:	8b 00                	mov    (%rax),%eax
   1bf33:	85 c0                	test   %eax,%eax
   1bf35:	0f 85 0c 01 00 00    	jne    1c047 <func_61+0x4cb9>
   1bf3b:	48 8b 85 a8 e0 ff ff 	mov    -0x1f58(%rbp),%rax
   1bf42:	48 89 85 d8 de ff ff 	mov    %rax,-0x2128(%rbp)
   1bf49:	0f bf 85 e4 de ff ff 	movswl -0x211c(%rbp),%eax
   1bf50:	48 8b 95 d8 de ff ff 	mov    -0x2128(%rbp),%rdx
   1bf57:	8b 12                	mov    (%rdx),%edx
   1bf59:	21 95 54 df ff ff    	and    %edx,-0x20ac(%rbp)
   1bf5f:	39 85 54 df ff ff    	cmp    %eax,-0x20ac(%rbp)
   1bf65:	0f 95 c0             	setne  %al
   1bf68:	0f b6 d0             	movzbl %al,%edx
   1bf6b:	48 8b 85 88 e0 ff ff 	mov    -0x1f78(%rbp),%rax
   1bf72:	8b 00                	mov    (%rax),%eax
   1bf74:	21 c2                	and    %eax,%edx
   1bf76:	48 8b 85 88 e0 ff ff 	mov    -0x1f78(%rbp),%rax
   1bf7d:	89 10                	mov    %edx,(%rax)
   1bf7f:	e9 a4 00 00 00       	jmpq   1c028 <func_61+0x4c9a>
   1bf84:	48 8b 05 9d 99 00 00 	mov    0x999d(%rip),%rax        # 25928 <g_578>
   1bf8b:	48 8b 00             	mov    (%rax),%rax
   1bf8e:	8b 00                	mov    (%rax),%eax
   1bf90:	89 c2                	mov    %eax,%edx
   1bf92:	0f b6 85 f9 de ff ff 	movzbl -0x2107(%rbp),%eax
   1bf99:	31 d0                	xor    %edx,%eax
   1bf9b:	88 85 f9 de ff ff    	mov    %al,-0x2107(%rbp)
   1bfa1:	48 be cb ea 0c f0 55 	movabs $0x3e4f7755f00ceacb,%rsi
   1bfa8:	77 4f 3e 
   1bfab:	bf 01 00 00 00       	mov    $0x1,%edi
   1bfb0:	e8 42 fa fe ff       	callq  b9f7 <safe_div_func_int64_t_s_s>
   1bfb5:	0f be c0             	movsbl %al,%eax
   1bfb8:	89 c7                	mov    %eax,%edi
   1bfba:	e8 00 f2 fe ff       	callq  b1bf <safe_unary_minus_func_int8_t_s>
   1bfbf:	66 98                	cbtw   
   1bfc1:	66 39 85 06 df ff ff 	cmp    %ax,-0x20fa(%rbp)
   1bfc8:	0f 9d c0             	setge  %al
   1bfcb:	0f b6 d0             	movzbl %al,%edx
   1bfce:	8b 85 50 f3 ff ff    	mov    -0xcb0(%rbp),%eax
   1bfd4:	09 d0                	or     %edx,%eax
   1bfd6:	89 85 50 f3 ff ff    	mov    %eax,-0xcb0(%rbp)
   1bfdc:	8b 85 50 f3 ff ff    	mov    -0xcb0(%rbp),%eax
   1bfe2:	34 ff                	xor    $0xff,%al
   1bfe4:	0f b7 d8             	movzwl %ax,%ebx
   1bfe7:	0f b6 05 62 70 00 00 	movzbl 0x7062(%rip),%eax        # 23050 <g_188>
   1bfee:	0f be c0             	movsbl %al,%eax
   1bff1:	66 83 bd e0 de ff ff 	cmpw   $0x0,-0x2120(%rbp)
   1bff8:	00 
   1bff9:	75 08                	jne    1c003 <func_61+0x4c75>
   1bffb:	66 83 bd e0 de ff ff 	cmpw   $0x0,-0x2120(%rbp)
   1c002:	00 
   1c003:	89 c6                	mov    %eax,%esi
   1c005:	bf 00 00 00 00       	mov    $0x0,%edi
   1c00a:	e8 5b f2 fe ff       	callq  b26a <safe_div_func_int8_t_s_s>
   1c00f:	89 de                	mov    %ebx,%esi
   1c011:	bf 01 00 00 00       	mov    $0x1,%edi
   1c016:	e8 04 fd fe ff       	callq  bd1f <safe_sub_func_uint16_t_u_u>
   1c01b:	48 8b 85 88 e0 ff ff 	mov    -0x1f78(%rbp),%rax
   1c022:	c7 00 04 00 00 00    	movl   $0x4,(%rax)
   1c028:	0f b6 85 fa de ff ff 	movzbl -0x2106(%rbp),%eax
   1c02f:	83 c0 01             	add    $0x1,%eax
   1c032:	88 85 fa de ff ff    	mov    %al,-0x2106(%rbp)
   1c038:	80 bd fa de ff ff 0a 	cmpb   $0xa,-0x2106(%rbp)
   1c03f:	0f 87 ec fc ff ff    	ja     1bd31 <func_61+0x49a3>
   1c045:	eb 01                	jmp    1c048 <func_61+0x4cba>
   1c047:	90                   	nop
   1c048:	48 8b 05 d9 98 00 00 	mov    0x98d9(%rip),%rax        # 25928 <g_578>
   1c04f:	48 8b 00             	mov    (%rax),%rax
   1c052:	48 89 85 38 e0 ff ff 	mov    %rax,-0x1fc8(%rbp)
   1c059:	83 85 4c df ff ff 01 	addl   $0x1,-0x20b4(%rbp)
   1c060:	83 bd 4c df ff ff 23 	cmpl   $0x23,-0x20b4(%rbp)
   1c067:	0f 85 53 fb ff ff    	jne    1bbc0 <func_61+0x4832>
   1c06d:	48 8b 05 7c 98 00 00 	mov    0x987c(%rip),%rax        # 258f0 <g_199>
   1c074:	48 8b 95 10 e0 ff ff 	mov    -0x1ff0(%rbp),%rdx
   1c07b:	8b 12                	mov    (%rdx),%edx
   1c07d:	89 10                	mov    %edx,(%rax)
   1c07f:	48 8b 85 70 e0 ff ff 	mov    -0x1f90(%rbp),%rax
   1c086:	48 8b 10             	mov    (%rax),%rdx
   1c089:	48 8d 05 90 9b 00 00 	lea    0x9b90(%rip),%rax        # 25c20 <g_690+0x2c0>
   1c090:	48 39 85 68 e0 ff ff 	cmp    %rax,-0x1f98(%rbp)
   1c097:	0f 95 c0             	setne  %al
   1c09a:	0f b6 c8             	movzbl %al,%ecx
   1c09d:	0f bf 85 e4 de ff ff 	movswl -0x211c(%rbp),%eax
   1c0a4:	39 c1                	cmp    %eax,%ecx
   1c0a6:	0f 9f c0             	setg   %al
   1c0a9:	0f b6 c0             	movzbl %al,%eax
   1c0ac:	48 21 c2             	and    %rax,%rdx
   1c0af:	48 8b 85 70 e0 ff ff 	mov    -0x1f90(%rbp),%rax
   1c0b6:	48 89 10             	mov    %rdx,(%rax)
   1c0b9:	48 8b 85 70 e0 ff ff 	mov    -0x1f90(%rbp),%rax
   1c0c0:	48 8b 00             	mov    (%rax),%rax
   1c0c3:	48 89 c7             	mov    %rax,%rdi
   1c0c6:	e8 4e ff fe ff       	callq  c019 <safe_unary_minus_func_uint64_t_u>
   1c0cb:	48 8b 95 e8 df ff ff 	mov    -0x2018(%rbp),%rdx
   1c0d2:	48 8b 12             	mov    (%rdx),%rdx
   1c0d5:	48 8d 8d f9 de ff ff 	lea    -0x2107(%rbp),%rcx
   1c0dc:	48 89 8d 40 e0 ff ff 	mov    %rcx,-0x1fc0(%rbp)
   1c0e3:	48 39 95 40 e0 ff ff 	cmp    %rdx,-0x1fc0(%rbp)
   1c0ea:	0f 94 c2             	sete   %dl
   1c0ed:	0f b6 d2             	movzbl %dl,%edx
   1c0f0:	48 39 d0             	cmp    %rdx,%rax
   1c0f3:	0f 96 c0             	setbe  %al
   1c0f6:	0f b6 c0             	movzbl %al,%eax
   1c0f9:	be 8b 40 00 00       	mov    $0x408b,%esi
   1c0fe:	89 c7                	mov    %eax,%edi
   1c100:	e8 f0 f2 fe ff       	callq  b3f5 <safe_mul_func_int16_t_s_s>
   1c105:	66 83 f8 0b          	cmp    $0xb,%ax
   1c109:	0f 9f c0             	setg   %al
   1c10c:	0f b6 c0             	movzbl %al,%eax
   1c10f:	89 85 e8 f5 ff ff    	mov    %eax,-0xa18(%rbp)
   1c115:	8b 85 e8 f5 ff ff    	mov    -0xa18(%rbp),%eax
   1c11b:	be 00 00 00 00       	mov    $0x0,%esi
   1c120:	89 c7                	mov    %eax,%edi
   1c122:	e8 8f f4 fe ff       	callq  b5b6 <safe_add_func_int32_t_s_s>
   1c127:	85 c0                	test   %eax,%eax
   1c129:	74 08                	je     1c133 <func_61+0x4da5>
   1c12b:	8b 85 ec de ff ff    	mov    -0x2114(%rbp),%eax
   1c131:	eb 2a                	jmp    1c15d <func_61+0x4dcf>
   1c133:	c7 85 a0 df ff ff 00 	movl   $0x0,-0x2060(%rbp)
   1c13a:	00 00 00 
   1c13d:	c7 85 a0 df ff ff 00 	movl   $0x0,-0x2060(%rbp)
   1c144:	00 00 00 
   1c147:	0f b7 85 e0 de ff ff 	movzwl -0x2120(%rbp),%eax
   1c14e:	eb 0d                	jmp    1c15d <func_61+0x4dcf>
   1c150:	90                   	nop
   1c151:	48 8b 85 c0 df ff ff 	mov    -0x2040(%rbp),%rax
   1c158:	48 8b 00             	mov    (%rax),%rax
   1c15b:	8b 00                	mov    (%rax),%eax
   1c15d:	48 8b 5d d8          	mov    -0x28(%rbp),%rbx
   1c161:	64 48 33 1c 25 28 00 	xor    %fs:0x28,%rbx
   1c168:	00 00 
   1c16a:	74 05                	je     1c171 <func_61+0x4de3>
   1c16c:	e8 ff ee fe ff       	callq  b070 <__stack_chk_fail@plt>
   1c171:	48 81 c4 10 21 00 00 	add    $0x2110,%rsp
   1c178:	5b                   	pop    %rbx
   1c179:	41 5c                	pop    %r12
   1c17b:	41 5d                	pop    %r13
   1c17d:	41 5e                	pop    %r14
   1c17f:	5d                   	pop    %rbp
   1c180:	c3                   	retq   

000000000001c181 <main>:
   1c181:	f3 0f 1e fa          	endbr64 
   1c185:	55                   	push   %rbp
   1c186:	48 89 e5             	mov    %rsp,%rbp
   1c189:	48 83 ec 20          	sub    $0x20,%rsp
   1c18d:	89 7d ec             	mov    %edi,-0x14(%rbp)
   1c190:	48 89 75 e0          	mov    %rsi,-0x20(%rbp)
   1c194:	c7 45 fc 00 00 00 00 	movl   $0x0,-0x4(%rbp)
   1c19b:	83 7d ec 02          	cmpl   $0x2,-0x14(%rbp)
   1c19f:	75 25                	jne    1c1c6 <main+0x45>
   1c1a1:	48 8b 45 e0          	mov    -0x20(%rbp),%rax
   1c1a5:	48 83 c0 08          	add    $0x8,%rax
   1c1a9:	48 8b 00             	mov    (%rax),%rax
   1c1ac:	48 8d 35 b5 31 00 00 	lea    0x31b5(%rip),%rsi        # 1f368 <g_3489+0x2308>
   1c1b3:	48 89 c7             	mov    %rax,%rdi
   1c1b6:	e8 d5 ee fe ff       	callq  b090 <strcmp@plt>
   1c1bb:	85 c0                	test   %eax,%eax
   1c1bd:	75 07                	jne    1c1c6 <main+0x45>
   1c1bf:	c7 45 fc 01 00 00 00 	movl   $0x1,-0x4(%rbp)
   1c1c6:	e8 be ef fe ff       	callq  b189 <platform_main_begin>
   1c1cb:	e8 c8 03 ff ff       	callq  c598 <crc32_gentab>
   1c1d0:	e8 e0 05 ff ff       	callq  c7b5 <func_1>
   1c1d5:	8b 05 49 6e 00 00    	mov    0x6e49(%rip),%eax        # 23024 <g_3>
   1c1db:	48 98                	cltq   
   1c1dd:	8b 55 fc             	mov    -0x4(%rbp),%edx
   1c1e0:	48 8d 35 83 31 00 00 	lea    0x3183(%rip),%rsi        # 1f36a <g_3489+0x230a>
   1c1e7:	48 89 c7             	mov    %rax,%rdi
   1c1ea:	e8 04 05 ff ff       	callq  c6f3 <transparent_crc>
   1c1ef:	8b 05 33 6e 00 00    	mov    0x6e33(%rip),%eax        # 23028 <g_5>
   1c1f5:	48 98                	cltq   
   1c1f7:	8b 55 fc             	mov    -0x4(%rbp),%edx
   1c1fa:	48 8d 35 6d 31 00 00 	lea    0x316d(%rip),%rsi        # 1f36e <g_3489+0x230e>
   1c201:	48 89 c7             	mov    %rax,%rdi
   1c204:	e8 ea 04 ff ff       	callq  c6f3 <transparent_crc>
   1c209:	c7 45 f0 00 00 00 00 	movl   $0x0,-0x10(%rbp)
   1c210:	eb 49                	jmp    1c25b <main+0xda>
   1c212:	8b 45 f0             	mov    -0x10(%rbp),%eax
   1c215:	48 98                	cltq   
   1c217:	48 8d 14 00          	lea    (%rax,%rax,1),%rdx
   1c21b:	48 8d 05 0e 6e 00 00 	lea    0x6e0e(%rip),%rax        # 23030 <g_6>
   1c222:	0f b7 04 02          	movzwl (%rdx,%rax,1),%eax
   1c226:	0f b7 c0             	movzwl %ax,%eax
   1c229:	8b 55 fc             	mov    -0x4(%rbp),%edx
   1c22c:	48 8d 35 3f 31 00 00 	lea    0x313f(%rip),%rsi        # 1f372 <g_3489+0x2312>
   1c233:	48 89 c7             	mov    %rax,%rdi
   1c236:	e8 b8 04 ff ff       	callq  c6f3 <transparent_crc>
   1c23b:	83 7d fc 00          	cmpl   $0x0,-0x4(%rbp)
   1c23f:	74 16                	je     1c257 <main+0xd6>
   1c241:	8b 45 f0             	mov    -0x10(%rbp),%eax
   1c244:	89 c6                	mov    %eax,%esi
   1c246:	48 8d 3d 2c 31 00 00 	lea    0x312c(%rip),%rdi        # 1f379 <g_3489+0x2319>
   1c24d:	b8 00 00 00 00       	mov    $0x0,%eax
   1c252:	e8 29 ee fe ff       	callq  b080 <printf@plt>
   1c257:	83 45 f0 01          	addl   $0x1,-0x10(%rbp)
   1c25b:	83 7d f0 05          	cmpl   $0x5,-0x10(%rbp)
   1c25f:	7e b1                	jle    1c212 <main+0x91>
   1c261:	b8 3f d6 54 4f       	mov    $0x4f54d63f,%eax
   1c266:	48 98                	cltq   
   1c268:	8b 55 fc             	mov    -0x4(%rbp),%edx
   1c26b:	48 8d 35 15 31 00 00 	lea    0x3115(%rip),%rsi        # 1f387 <g_3489+0x2327>
   1c272:	48 89 c7             	mov    %rax,%rdi
   1c275:	e8 79 04 ff ff       	callq  c6f3 <transparent_crc>
   1c27a:	48 8b 05 bf 6d 00 00 	mov    0x6dbf(%rip),%rax        # 23040 <g_121>
   1c281:	8b 55 fc             	mov    -0x4(%rbp),%edx
   1c284:	48 8d 35 02 31 00 00 	lea    0x3102(%rip),%rsi        # 1f38d <g_3489+0x232d>
   1c28b:	48 89 c7             	mov    %rax,%rdi
   1c28e:	e8 60 04 ff ff       	callq  c6f3 <transparent_crc>
   1c293:	48 8b 05 ae 6d 00 00 	mov    0x6dae(%rip),%rax        # 23048 <g_144>
   1c29a:	48 89 c1             	mov    %rax,%rcx
   1c29d:	8b 45 fc             	mov    -0x4(%rbp),%eax
   1c2a0:	89 c2                	mov    %eax,%edx
   1c2a2:	48 8d 35 ea 30 00 00 	lea    0x30ea(%rip),%rsi        # 1f393 <g_3489+0x2333>
   1c2a9:	48 89 cf             	mov    %rcx,%rdi
   1c2ac:	e8 42 04 ff ff       	callq  c6f3 <transparent_crc>
   1c2b1:	0f b6 05 98 6d 00 00 	movzbl 0x6d98(%rip),%eax        # 23050 <g_188>
   1c2b8:	48 0f be c0          	movsbq %al,%rax
   1c2bc:	8b 55 fc             	mov    -0x4(%rbp),%edx
   1c2bf:	48 8d 35 d3 30 00 00 	lea    0x30d3(%rip),%rsi        # 1f399 <g_3489+0x2339>
   1c2c6:	48 89 c7             	mov    %rax,%rdi
   1c2c9:	e8 25 04 ff ff       	callq  c6f3 <transparent_crc>
   1c2ce:	8b 05 80 6d 00 00    	mov    0x6d80(%rip),%eax        # 23054 <g_200>
   1c2d4:	48 98                	cltq   
   1c2d6:	8b 55 fc             	mov    -0x4(%rbp),%edx
   1c2d9:	48 8d 35 bf 30 00 00 	lea    0x30bf(%rip),%rsi        # 1f39f <g_3489+0x233f>
   1c2e0:	48 89 c7             	mov    %rax,%rdi
   1c2e3:	e8 0b 04 ff ff       	callq  c6f3 <transparent_crc>
   1c2e8:	8b 05 6a 6d 00 00    	mov    0x6d6a(%rip),%eax        # 23058 <g_241>
   1c2ee:	89 c1                	mov    %eax,%ecx
   1c2f0:	8b 45 fc             	mov    -0x4(%rbp),%eax
   1c2f3:	89 c2                	mov    %eax,%edx
   1c2f5:	48 8d 35 a9 30 00 00 	lea    0x30a9(%rip),%rsi        # 1f3a5 <g_3489+0x2345>
   1c2fc:	48 89 cf             	mov    %rcx,%rdi
   1c2ff:	e8 ef 03 ff ff       	callq  c6f3 <transparent_crc>
   1c304:	0f b7 05 51 6d 00 00 	movzwl 0x6d51(%rip),%eax        # 2305c <g_252>
   1c30b:	48 0f bf c0          	movswq %ax,%rax
   1c30f:	8b 55 fc             	mov    -0x4(%rbp),%edx
   1c312:	48 8d 35 92 30 00 00 	lea    0x3092(%rip),%rsi        # 1f3ab <g_3489+0x234b>
   1c319:	48 89 c7             	mov    %rax,%rdi
   1c31c:	e8 d2 03 ff ff       	callq  c6f3 <transparent_crc>
   1c321:	c7 45 f0 00 00 00 00 	movl   $0x0,-0x10(%rbp)
   1c328:	e9 9f 00 00 00       	jmpq   1c3cc <main+0x24b>
   1c32d:	c7 45 f4 00 00 00 00 	movl   $0x0,-0xc(%rbp)
   1c334:	e9 85 00 00 00       	jmpq   1c3be <main+0x23d>
   1c339:	c7 45 f8 00 00 00 00 	movl   $0x0,-0x8(%rbp)
   1c340:	eb 72                	jmp    1c3b4 <main+0x233>
   1c342:	8b 45 f8             	mov    -0x8(%rbp),%eax
   1c345:	48 63 c8             	movslq %eax,%rcx
   1c348:	8b 45 f0             	mov    -0x10(%rbp),%eax
   1c34b:	48 63 d0             	movslq %eax,%rdx
   1c34e:	8b 45 f4             	mov    -0xc(%rbp),%eax
   1c351:	48 63 f0             	movslq %eax,%rsi
   1c354:	48 89 d0             	mov    %rdx,%rax
   1c357:	48 c1 e0 03          	shl    $0x3,%rax
   1c35b:	48 01 d0             	add    %rdx,%rax
   1c35e:	48 01 f0             	add    %rsi,%rax
   1c361:	48 c1 e0 02          	shl    $0x2,%rax
   1c365:	48 01 c8             	add    %rcx,%rax
   1c368:	48 8d 14 85 00 00 00 	lea    0x0(,%rax,4),%rdx
   1c36f:	00 
   1c370:	48 8d 05 e9 6c 00 00 	lea    0x6ce9(%rip),%rax        # 23060 <g_310>
   1c377:	8b 04 02             	mov    (%rdx,%rax,1),%eax
   1c37a:	48 98                	cltq   
   1c37c:	8b 55 fc             	mov    -0x4(%rbp),%edx
   1c37f:	48 8d 35 2b 30 00 00 	lea    0x302b(%rip),%rsi        # 1f3b1 <g_3489+0x2351>
   1c386:	48 89 c7             	mov    %rax,%rdi
   1c389:	e8 65 03 ff ff       	callq  c6f3 <transparent_crc>
   1c38e:	83 7d fc 00          	cmpl   $0x0,-0x4(%rbp)
   1c392:	74 1c                	je     1c3b0 <main+0x22f>
   1c394:	8b 4d f8             	mov    -0x8(%rbp),%ecx
   1c397:	8b 55 f4             	mov    -0xc(%rbp),%edx
   1c39a:	8b 45 f0             	mov    -0x10(%rbp),%eax
   1c39d:	89 c6                	mov    %eax,%esi
   1c39f:	48 8d 3d 1a 30 00 00 	lea    0x301a(%rip),%rdi        # 1f3c0 <g_3489+0x2360>
   1c3a6:	b8 00 00 00 00       	mov    $0x0,%eax
   1c3ab:	e8 d0 ec fe ff       	callq  b080 <printf@plt>
   1c3b0:	83 45 f8 01          	addl   $0x1,-0x8(%rbp)
   1c3b4:	83 7d f8 03          	cmpl   $0x3,-0x8(%rbp)
   1c3b8:	7e 88                	jle    1c342 <main+0x1c1>
   1c3ba:	83 45 f4 01          	addl   $0x1,-0xc(%rbp)
   1c3be:	83 7d f4 08          	cmpl   $0x8,-0xc(%rbp)
   1c3c2:	0f 8e 71 ff ff ff    	jle    1c339 <main+0x1b8>
   1c3c8:	83 45 f0 01          	addl   $0x1,-0x10(%rbp)
   1c3cc:	83 7d f0 06          	cmpl   $0x6,-0x10(%rbp)
   1c3d0:	0f 8e 57 ff ff ff    	jle    1c32d <main+0x1ac>
   1c3d6:	0f b6 05 73 70 00 00 	movzbl 0x7073(%rip),%eax        # 23450 <g_317>
   1c3dd:	48 0f be c0          	movsbq %al,%rax
   1c3e1:	8b 55 fc             	mov    -0x4(%rbp),%edx
   1c3e4:	48 8d 35 eb 2f 00 00 	lea    0x2feb(%rip),%rsi        # 1f3d6 <g_3489+0x2376>
   1c3eb:	48 89 c7             	mov    %rax,%rdi
   1c3ee:	e8 00 03 ff ff       	callq  c6f3 <transparent_crc>
   1c3f3:	8b 05 5b 70 00 00    	mov    0x705b(%rip),%eax        # 23454 <g_340>
   1c3f9:	48 98                	cltq   
   1c3fb:	8b 55 fc             	mov    -0x4(%rbp),%edx
   1c3fe:	48 8d 35 d7 2f 00 00 	lea    0x2fd7(%rip),%rsi        # 1f3dc <g_3489+0x237c>
   1c405:	48 89 c7             	mov    %rax,%rdi
   1c408:	e8 e6 02 ff ff       	callq  c6f3 <transparent_crc>
   1c40d:	0f b7 05 44 70 00 00 	movzwl 0x7044(%rip),%eax        # 23458 <g_382>
   1c414:	48 0f bf c0          	movswq %ax,%rax
   1c418:	8b 55 fc             	mov    -0x4(%rbp),%edx
   1c41b:	48 8d 35 c0 2f 00 00 	lea    0x2fc0(%rip),%rsi        # 1f3e2 <g_3489+0x2382>
   1c422:	48 89 c7             	mov    %rax,%rdi
   1c425:	e8 c9 02 ff ff       	callq  c6f3 <transparent_crc>
   1c42a:	0f b6 05 b7 b9 00 00 	movzbl 0xb9b7(%rip),%eax        # 27de8 <g_401>
   1c431:	0f b6 c0             	movzbl %al,%eax
   1c434:	8b 55 fc             	mov    -0x4(%rbp),%edx
   1c437:	48 8d 35 aa 2f 00 00 	lea    0x2faa(%rip),%rsi        # 1f3e8 <g_3489+0x2388>
   1c43e:	48 89 c7             	mov    %rax,%rdi
   1c441:	e8 ad 02 ff ff       	callq  c6f3 <transparent_crc>
   1c446:	48 8b 05 13 70 00 00 	mov    0x7013(%rip),%rax        # 23460 <g_672>
   1c44d:	48 89 c1             	mov    %rax,%rcx
   1c450:	8b 45 fc             	mov    -0x4(%rbp),%eax
   1c453:	89 c2                	mov    %eax,%edx
   1c455:	48 8d 35 92 2f 00 00 	lea    0x2f92(%rip),%rsi        # 1f3ee <g_3489+0x238e>
   1c45c:	48 89 cf             	mov    %rcx,%rdi
   1c45f:	e8 8f 02 ff ff       	callq  c6f3 <transparent_crc>
   1c464:	8b 05 fe 6f 00 00    	mov    0x6ffe(%rip),%eax        # 23468 <g_714>
   1c46a:	89 c1                	mov    %eax,%ecx
   1c46c:	8b 45 fc             	mov    -0x4(%rbp),%eax
   1c46f:	89 c2                	mov    %eax,%edx
   1c471:	48 8d 35 7c 2f 00 00 	lea    0x2f7c(%rip),%rsi        # 1f3f4 <g_3489+0x2394>
   1c478:	48 89 cf             	mov    %rcx,%rdi
   1c47b:	e8 73 02 ff ff       	callq  c6f3 <transparent_crc>
   1c480:	0f b7 05 e5 6f 00 00 	movzwl 0x6fe5(%rip),%eax        # 2346c <g_810>
   1c487:	0f b7 c0             	movzwl %ax,%eax
   1c48a:	8b 55 fc             	mov    -0x4(%rbp),%edx
   1c48d:	48 8d 35 66 2f 00 00 	lea    0x2f66(%rip),%rsi        # 1f3fa <g_3489+0x239a>
   1c494:	48 89 c7             	mov    %rax,%rdi
   1c497:	e8 57 02 ff ff       	callq  c6f3 <transparent_crc>
   1c49c:	0f b6 05 cb 6f 00 00 	movzbl 0x6fcb(%rip),%eax        # 2346e <g_899>
   1c4a3:	48 0f be c0          	movsbq %al,%rax
   1c4a7:	8b 55 fc             	mov    -0x4(%rbp),%edx
   1c4aa:	48 8d 35 4f 2f 00 00 	lea    0x2f4f(%rip),%rsi        # 1f400 <g_3489+0x23a0>
   1c4b1:	48 89 c7             	mov    %rax,%rdi
   1c4b4:	e8 3a 02 ff ff       	callq  c6f3 <transparent_crc>
   1c4b9:	48 8b 05 b0 6f 00 00 	mov    0x6fb0(%rip),%rax        # 23470 <g_980>
   1c4c0:	8b 55 fc             	mov    -0x4(%rbp),%edx
   1c4c3:	48 8d 35 3c 2f 00 00 	lea    0x2f3c(%rip),%rsi        # 1f406 <g_3489+0x23a6>
   1c4ca:	48 89 c7             	mov    %rax,%rdi
   1c4cd:	e8 21 02 ff ff       	callq  c6f3 <transparent_crc>
   1c4d2:	0f b6 05 9f 6f 00 00 	movzbl 0x6f9f(%rip),%eax        # 23478 <g_1003>
   1c4d9:	48 0f be c0          	movsbq %al,%rax
   1c4dd:	8b 55 fc             	mov    -0x4(%rbp),%edx
   1c4e0:	48 8d 35 25 2f 00 00 	lea    0x2f25(%rip),%rsi        # 1f40c <g_3489+0x23ac>
   1c4e7:	48 89 c7             	mov    %rax,%rdi
   1c4ea:	e8 04 02 ff ff       	callq  c6f3 <transparent_crc>
   1c4ef:	c7 45 f0 00 00 00 00 	movl   $0x0,-0x10(%rbp)
   1c4f6:	eb 4a                	jmp    1c542 <main+0x3c1>
   1c4f8:	8b 45 f0             	mov    -0x10(%rbp),%eax
   1c4fb:	48 98                	cltq   
   1c4fd:	48 8d 14 c5 00 00 00 	lea    0x0(,%rax,8),%rdx
   1c504:	00 
   1c505:	48 8d 05 74 6f 00 00 	lea    0x6f74(%rip),%rax        # 23480 <g_1184>
   1c50c:	48 8b 04 02          	mov    (%rdx,%rax,1),%rax
   1c510:	8b 55 fc             	mov    -0x4(%rbp),%edx
   1c513:	48 8d 35 f9 2e 00 00 	lea    0x2ef9(%rip),%rsi        # 1f413 <g_3489+0x23b3>
   1c51a:	48 89 c7             	mov    %rax,%rdi
   1c51d:	e8 d1 01 ff ff       	callq  c6f3 <transparent_crc>
   1c522:	83 7d fc 00          	cmpl   $0x0,-0x4(%rbp)
   1c526:	74 16                	je     1c53e <main+0x3bd>
   1c528:	8b 45 f0             	mov    -0x10(%rbp),%eax
   1c52b:	89 c6                	mov    %eax,%esi
   1c52d:	48 8d 3d 45 2e 00 00 	lea    0x2e45(%rip),%rdi        # 1f379 <g_3489+0x2319>
   1c534:	b8 00 00 00 00       	mov    $0x0,%eax
   1c539:	e8 42 eb fe ff       	callq  b080 <printf@plt>
   1c53e:	83 45 f0 01          	addl   $0x1,-0x10(%rbp)
   1c542:	83 7d f0 06          	cmpl   $0x6,-0x10(%rbp)
   1c546:	7e b0                	jle    1c4f8 <main+0x377>
   1c548:	b8 d9 87 4f 09       	mov    $0x94f87d9,%eax
   1c54d:	89 c1                	mov    %eax,%ecx
   1c54f:	8b 45 fc             	mov    -0x4(%rbp),%eax
   1c552:	89 c2                	mov    %eax,%edx
   1c554:	48 8d 35 c2 2e 00 00 	lea    0x2ec2(%rip),%rsi        # 1f41d <g_3489+0x23bd>
   1c55b:	48 89 cf             	mov    %rcx,%rdi
   1c55e:	e8 90 01 ff ff       	callq  c6f3 <transparent_crc>
   1c563:	b8 ff ff ff ff       	mov    $0xffffffff,%eax
   1c568:	48 0f be c0          	movsbq %al,%rax
   1c56c:	8b 55 fc             	mov    -0x4(%rbp),%edx
   1c56f:	48 8d 35 ae 2e 00 00 	lea    0x2eae(%rip),%rsi        # 1f424 <g_3489+0x23c4>
   1c576:	48 89 c7             	mov    %rax,%rdi
   1c579:	e8 75 01 ff ff       	callq  c6f3 <transparent_crc>
   1c57e:	c7 45 f0 00 00 00 00 	movl   $0x0,-0x10(%rbp)
   1c585:	eb 4a                	jmp    1c5d1 <main+0x450>
   1c587:	8b 45 f0             	mov    -0x10(%rbp),%eax
   1c58a:	48 98                	cltq   
   1c58c:	48 8d 14 c5 00 00 00 	lea    0x0(,%rax,8),%rdx
   1c593:	00 
   1c594:	48 8d 05 1d 6f 00 00 	lea    0x6f1d(%rip),%rax        # 234b8 <g_1384>
   1c59b:	48 8b 04 02          	mov    (%rdx,%rax,1),%rax
   1c59f:	8b 55 fc             	mov    -0x4(%rbp),%edx
   1c5a2:	48 8d 35 82 2e 00 00 	lea    0x2e82(%rip),%rsi        # 1f42b <g_3489+0x23cb>
   1c5a9:	48 89 c7             	mov    %rax,%rdi
   1c5ac:	e8 42 01 ff ff       	callq  c6f3 <transparent_crc>
   1c5b1:	83 7d fc 00          	cmpl   $0x0,-0x4(%rbp)
   1c5b5:	74 16                	je     1c5cd <main+0x44c>
   1c5b7:	8b 45 f0             	mov    -0x10(%rbp),%eax
   1c5ba:	89 c6                	mov    %eax,%esi
   1c5bc:	48 8d 3d b6 2d 00 00 	lea    0x2db6(%rip),%rdi        # 1f379 <g_3489+0x2319>
   1c5c3:	b8 00 00 00 00       	mov    $0x0,%eax
   1c5c8:	e8 b3 ea fe ff       	callq  b080 <printf@plt>
   1c5cd:	83 45 f0 01          	addl   $0x1,-0x10(%rbp)
   1c5d1:	83 7d f0 00          	cmpl   $0x0,-0x10(%rbp)
   1c5d5:	7e b0                	jle    1c587 <main+0x406>
   1c5d7:	0f b7 05 62 b8 00 00 	movzwl 0xb862(%rip),%eax        # 27e40 <g_1642>
   1c5de:	48 0f bf c0          	movswq %ax,%rax
   1c5e2:	8b 55 fc             	mov    -0x4(%rbp),%edx
   1c5e5:	48 8d 35 49 2e 00 00 	lea    0x2e49(%rip),%rsi        # 1f435 <g_3489+0x23d5>
   1c5ec:	48 89 c7             	mov    %rax,%rdi
   1c5ef:	e8 ff 00 ff ff       	callq  c6f3 <transparent_crc>
   1c5f4:	0f b7 05 c5 6e 00 00 	movzwl 0x6ec5(%rip),%eax        # 234c0 <g_1657>
   1c5fb:	0f b7 c0             	movzwl %ax,%eax
   1c5fe:	8b 55 fc             	mov    -0x4(%rbp),%edx
   1c601:	48 8d 35 34 2e 00 00 	lea    0x2e34(%rip),%rsi        # 1f43c <g_3489+0x23dc>
   1c608:	48 89 c7             	mov    %rax,%rdi
   1c60b:	e8 e3 00 ff ff       	callq  c6f3 <transparent_crc>
   1c610:	8b 05 ae 6e 00 00    	mov    0x6eae(%rip),%eax        # 234c4 <g_1733>
   1c616:	48 98                	cltq   
   1c618:	8b 55 fc             	mov    -0x4(%rbp),%edx
   1c61b:	48 8d 35 21 2e 00 00 	lea    0x2e21(%rip),%rsi        # 1f443 <g_3489+0x23e3>
   1c622:	48 89 c7             	mov    %rax,%rdi
   1c625:	e8 c9 00 ff ff       	callq  c6f3 <transparent_crc>
   1c62a:	8b 05 98 6e 00 00    	mov    0x6e98(%rip),%eax        # 234c8 <g_1776>
   1c630:	48 98                	cltq   
   1c632:	8b 55 fc             	mov    -0x4(%rbp),%edx
   1c635:	48 8d 35 0e 2e 00 00 	lea    0x2e0e(%rip),%rsi        # 1f44a <g_3489+0x23ea>
   1c63c:	48 89 c7             	mov    %rax,%rdi
   1c63f:	e8 af 00 ff ff       	callq  c6f3 <transparent_crc>
   1c644:	8b 05 82 6e 00 00    	mov    0x6e82(%rip),%eax        # 234cc <g_1788>
   1c64a:	48 98                	cltq   
   1c64c:	8b 55 fc             	mov    -0x4(%rbp),%edx
   1c64f:	48 8d 35 fb 2d 00 00 	lea    0x2dfb(%rip),%rsi        # 1f451 <g_3489+0x23f1>
   1c656:	48 89 c7             	mov    %rax,%rdi
   1c659:	e8 95 00 ff ff       	callq  c6f3 <transparent_crc>
   1c65e:	8b 05 6c 6e 00 00    	mov    0x6e6c(%rip),%eax        # 234d0 <g_1868>
   1c664:	48 98                	cltq   
   1c666:	8b 55 fc             	mov    -0x4(%rbp),%edx
   1c669:	48 8d 35 e8 2d 00 00 	lea    0x2de8(%rip),%rsi        # 1f458 <g_3489+0x23f8>
   1c670:	48 89 c7             	mov    %rax,%rdi
   1c673:	e8 7b 00 ff ff       	callq  c6f3 <transparent_crc>
   1c678:	8b 05 56 6e 00 00    	mov    0x6e56(%rip),%eax        # 234d4 <g_2012>
   1c67e:	89 c1                	mov    %eax,%ecx
   1c680:	8b 45 fc             	mov    -0x4(%rbp),%eax
   1c683:	89 c2                	mov    %eax,%edx
   1c685:	48 8d 35 d3 2d 00 00 	lea    0x2dd3(%rip),%rsi        # 1f45f <g_3489+0x23ff>
   1c68c:	48 89 cf             	mov    %rcx,%rdi
   1c68f:	e8 5f 00 ff ff       	callq  c6f3 <transparent_crc>
   1c694:	48 8b 05 3d 6e 00 00 	mov    0x6e3d(%rip),%rax        # 234d8 <g_2014>
   1c69b:	48 89 c1             	mov    %rax,%rcx
   1c69e:	8b 45 fc             	mov    -0x4(%rbp),%eax
   1c6a1:	89 c2                	mov    %eax,%edx
   1c6a3:	48 8d 35 bc 2d 00 00 	lea    0x2dbc(%rip),%rsi        # 1f466 <g_3489+0x2406>
   1c6aa:	48 89 cf             	mov    %rcx,%rdi
   1c6ad:	e8 41 00 ff ff       	callq  c6f3 <transparent_crc>
   1c6b2:	0f b7 05 27 6e 00 00 	movzwl 0x6e27(%rip),%eax        # 234e0 <g_2130>
   1c6b9:	48 0f bf c0          	movswq %ax,%rax
   1c6bd:	8b 55 fc             	mov    -0x4(%rbp),%edx
   1c6c0:	48 8d 35 a6 2d 00 00 	lea    0x2da6(%rip),%rsi        # 1f46d <g_3489+0x240d>
   1c6c7:	48 89 c7             	mov    %rax,%rdi
   1c6ca:	e8 24 00 ff ff       	callq  c6f3 <transparent_crc>
   1c6cf:	c7 45 f0 00 00 00 00 	movl   $0x0,-0x10(%rbp)
   1c6d6:	e9 a1 00 00 00       	jmpq   1c77c <main+0x5fb>
   1c6db:	c7 45 f4 00 00 00 00 	movl   $0x0,-0xc(%rbp)
   1c6e2:	e9 87 00 00 00       	jmpq   1c76e <main+0x5ed>
   1c6e7:	c7 45 f8 00 00 00 00 	movl   $0x0,-0x8(%rbp)
   1c6ee:	eb 74                	jmp    1c764 <main+0x5e3>
   1c6f0:	8b 45 f8             	mov    -0x8(%rbp),%eax
   1c6f3:	48 63 c8             	movslq %eax,%rcx
   1c6f6:	8b 45 f0             	mov    -0x10(%rbp),%eax
   1c6f9:	48 63 d0             	movslq %eax,%rdx
   1c6fc:	8b 45 f4             	mov    -0xc(%rbp),%eax
   1c6ff:	48 63 f0             	movslq %eax,%rsi
   1c702:	48 89 d0             	mov    %rdx,%rax
   1c705:	48 c1 e0 03          	shl    $0x3,%rax
   1c709:	48 29 d0             	sub    %rdx,%rax
   1c70c:	48 01 f0             	add    %rsi,%rax
   1c70f:	48 c1 e0 02          	shl    $0x2,%rax
   1c713:	48 01 c8             	add    %rcx,%rax
   1c716:	48 8d 14 85 00 00 00 	lea    0x0(,%rax,4),%rdx
   1c71d:	00 
   1c71e:	48 8d 05 db 6d 00 00 	lea    0x6ddb(%rip),%rax        # 23500 <g_2272>
   1c725:	8b 04 02             	mov    (%rdx,%rax,1),%eax
   1c728:	89 c1                	mov    %eax,%ecx
   1c72a:	8b 45 fc             	mov    -0x4(%rbp),%eax
   1c72d:	89 c2                	mov    %eax,%edx
   1c72f:	48 8d 35 3e 2d 00 00 	lea    0x2d3e(%rip),%rsi        # 1f474 <g_3489+0x2414>
   1c736:	48 89 cf             	mov    %rcx,%rdi
   1c739:	e8 b5 ff fe ff       	callq  c6f3 <transparent_crc>
   1c73e:	83 7d fc 00          	cmpl   $0x0,-0x4(%rbp)
   1c742:	74 1c                	je     1c760 <main+0x5df>
   1c744:	8b 4d f8             	mov    -0x8(%rbp),%ecx
   1c747:	8b 55 f4             	mov    -0xc(%rbp),%edx
   1c74a:	8b 45 f0             	mov    -0x10(%rbp),%eax
   1c74d:	89 c6                	mov    %eax,%esi
   1c74f:	48 8d 3d 6a 2c 00 00 	lea    0x2c6a(%rip),%rdi        # 1f3c0 <g_3489+0x2360>
   1c756:	b8 00 00 00 00       	mov    $0x0,%eax
   1c75b:	e8 20 e9 fe ff       	callq  b080 <printf@plt>
   1c760:	83 45 f8 01          	addl   $0x1,-0x8(%rbp)
   1c764:	83 7d f8 03          	cmpl   $0x3,-0x8(%rbp)
   1c768:	7e 86                	jle    1c6f0 <main+0x56f>
   1c76a:	83 45 f4 01          	addl   $0x1,-0xc(%rbp)
   1c76e:	83 7d f4 06          	cmpl   $0x6,-0xc(%rbp)
   1c772:	0f 8e 6f ff ff ff    	jle    1c6e7 <main+0x566>
   1c778:	83 45 f0 01          	addl   $0x1,-0x10(%rbp)
   1c77c:	83 7d f0 07          	cmpl   $0x7,-0x10(%rbp)
   1c780:	0f 8e 55 ff ff ff    	jle    1c6db <main+0x55a>
   1c786:	48 8b 05 f3 70 00 00 	mov    0x70f3(%rip),%rax        # 23880 <g_2294>
   1c78d:	8b 55 fc             	mov    -0x4(%rbp),%edx
   1c790:	48 8d 35 ed 2c 00 00 	lea    0x2ced(%rip),%rsi        # 1f484 <g_3489+0x2424>
   1c797:	48 89 c7             	mov    %rax,%rdi
   1c79a:	e8 54 ff fe ff       	callq  c6f3 <transparent_crc>
   1c79f:	0f b6 05 e2 70 00 00 	movzbl 0x70e2(%rip),%eax        # 23888 <g_2320>
   1c7a6:	0f b6 c0             	movzbl %al,%eax
   1c7a9:	8b 55 fc             	mov    -0x4(%rbp),%edx
   1c7ac:	48 8d 35 d8 2c 00 00 	lea    0x2cd8(%rip),%rsi        # 1f48b <g_3489+0x242b>
   1c7b3:	48 89 c7             	mov    %rax,%rdi
   1c7b6:	e8 38 ff fe ff       	callq  c6f3 <transparent_crc>
   1c7bb:	0f b6 05 c7 70 00 00 	movzbl 0x70c7(%rip),%eax        # 23889 <g_2321>
   1c7c2:	0f b6 c0             	movzbl %al,%eax
   1c7c5:	8b 55 fc             	mov    -0x4(%rbp),%edx
   1c7c8:	48 8d 35 c3 2c 00 00 	lea    0x2cc3(%rip),%rsi        # 1f492 <g_3489+0x2432>
   1c7cf:	48 89 c7             	mov    %rax,%rdi
   1c7d2:	e8 1c ff fe ff       	callq  c6f3 <transparent_crc>
   1c7d7:	8b 05 73 b6 00 00    	mov    0xb673(%rip),%eax        # 27e50 <g_2332>
   1c7dd:	89 c1                	mov    %eax,%ecx
   1c7df:	8b 45 fc             	mov    -0x4(%rbp),%eax
   1c7e2:	89 c2                	mov    %eax,%edx
   1c7e4:	48 8d 35 ae 2c 00 00 	lea    0x2cae(%rip),%rsi        # 1f499 <g_3489+0x2439>
   1c7eb:	48 89 cf             	mov    %rcx,%rdi
   1c7ee:	e8 00 ff fe ff       	callq  c6f3 <transparent_crc>
   1c7f3:	48 8b 05 96 70 00 00 	mov    0x7096(%rip),%rax        # 23890 <g_2334>
   1c7fa:	48 89 c1             	mov    %rax,%rcx
   1c7fd:	8b 45 fc             	mov    -0x4(%rbp),%eax
   1c800:	89 c2                	mov    %eax,%edx
   1c802:	48 8d 35 97 2c 00 00 	lea    0x2c97(%rip),%rsi        # 1f4a0 <g_3489+0x2440>
   1c809:	48 89 cf             	mov    %rcx,%rdi
   1c80c:	e8 e2 fe fe ff       	callq  c6f3 <transparent_crc>
   1c811:	8b 05 81 70 00 00    	mov    0x7081(%rip),%eax        # 23898 <g_2454>
   1c817:	48 98                	cltq   
   1c819:	8b 55 fc             	mov    -0x4(%rbp),%edx
   1c81c:	48 8d 35 84 2c 00 00 	lea    0x2c84(%rip),%rsi        # 1f4a7 <g_3489+0x2447>
   1c823:	48 89 c7             	mov    %rax,%rdi
   1c826:	e8 c8 fe fe ff       	callq  c6f3 <transparent_crc>
   1c82b:	0f b7 05 22 b6 00 00 	movzwl 0xb622(%rip),%eax        # 27e54 <g_2555>
   1c832:	0f b7 c0             	movzwl %ax,%eax
   1c835:	8b 55 fc             	mov    -0x4(%rbp),%edx
   1c838:	48 8d 35 6f 2c 00 00 	lea    0x2c6f(%rip),%rsi        # 1f4ae <g_3489+0x244e>
   1c83f:	48 89 c7             	mov    %rax,%rdi
   1c842:	e8 ac fe fe ff       	callq  c6f3 <transparent_crc>
   1c847:	8b 05 a3 70 00 00    	mov    0x70a3(%rip),%eax        # 238f0 <g_2759>
   1c84d:	48 98                	cltq   
   1c84f:	8b 55 fc             	mov    -0x4(%rbp),%edx
   1c852:	48 8d 35 5c 2c 00 00 	lea    0x2c5c(%rip),%rsi        # 1f4b5 <g_3489+0x2455>
   1c859:	48 89 c7             	mov    %rax,%rdi
   1c85c:	e8 92 fe fe ff       	callq  c6f3 <transparent_crc>
   1c861:	0f b7 05 8c 70 00 00 	movzwl 0x708c(%rip),%eax        # 238f4 <g_2803>
   1c868:	48 0f bf c0          	movswq %ax,%rax
   1c86c:	8b 55 fc             	mov    -0x4(%rbp),%edx
   1c86f:	48 8d 35 46 2c 00 00 	lea    0x2c46(%rip),%rsi        # 1f4bc <g_3489+0x245c>
   1c876:	48 89 c7             	mov    %rax,%rdi
   1c879:	e8 75 fe fe ff       	callq  c6f3 <transparent_crc>
   1c87e:	48 8b 05 73 70 00 00 	mov    0x7073(%rip),%rax        # 238f8 <g_2943>
   1c885:	48 89 c1             	mov    %rax,%rcx
   1c888:	8b 45 fc             	mov    -0x4(%rbp),%eax
   1c88b:	89 c2                	mov    %eax,%edx
   1c88d:	48 8d 35 2f 2c 00 00 	lea    0x2c2f(%rip),%rsi        # 1f4c3 <g_3489+0x2463>
   1c894:	48 89 cf             	mov    %rcx,%rdi
   1c897:	e8 57 fe fe ff       	callq  c6f3 <transparent_crc>
   1c89c:	c7 45 f0 00 00 00 00 	movl   $0x0,-0x10(%rbp)
   1c8a3:	eb 4b                	jmp    1c8f0 <main+0x76f>
   1c8a5:	8b 45 f0             	mov    -0x10(%rbp),%eax
   1c8a8:	48 98                	cltq   
   1c8aa:	48 8d 14 85 00 00 00 	lea    0x0(,%rax,4),%rdx
   1c8b1:	00 
   1c8b2:	48 8d 05 47 70 00 00 	lea    0x7047(%rip),%rax        # 23900 <g_3013>
   1c8b9:	8b 04 02             	mov    (%rdx,%rax,1),%eax
   1c8bc:	48 98                	cltq   
   1c8be:	8b 55 fc             	mov    -0x4(%rbp),%edx
   1c8c1:	48 8d 35 02 2c 00 00 	lea    0x2c02(%rip),%rsi        # 1f4ca <g_3489+0x246a>
   1c8c8:	48 89 c7             	mov    %rax,%rdi
   1c8cb:	e8 23 fe fe ff       	callq  c6f3 <transparent_crc>
   1c8d0:	83 7d fc 00          	cmpl   $0x0,-0x4(%rbp)
   1c8d4:	74 16                	je     1c8ec <main+0x76b>
   1c8d6:	8b 45 f0             	mov    -0x10(%rbp),%eax
   1c8d9:	89 c6                	mov    %eax,%esi
   1c8db:	48 8d 3d 97 2a 00 00 	lea    0x2a97(%rip),%rdi        # 1f379 <g_3489+0x2319>
   1c8e2:	b8 00 00 00 00       	mov    $0x0,%eax
   1c8e7:	e8 94 e7 fe ff       	callq  b080 <printf@plt>
   1c8ec:	83 45 f0 01          	addl   $0x1,-0x10(%rbp)
   1c8f0:	83 7d f0 00          	cmpl   $0x0,-0x10(%rbp)
   1c8f4:	7e af                	jle    1c8a5 <main+0x724>
   1c8f6:	c7 45 f0 00 00 00 00 	movl   $0x0,-0x10(%rbp)
   1c8fd:	eb 4b                	jmp    1c94a <main+0x7c9>
   1c8ff:	8b 45 f0             	mov    -0x10(%rbp),%eax
   1c902:	48 98                	cltq   
   1c904:	48 8d 14 85 00 00 00 	lea    0x0(,%rax,4),%rdx
   1c90b:	00 
   1c90c:	48 8d 05 4d 07 00 00 	lea    0x74d(%rip),%rax        # 1d060 <g_3489>
   1c913:	8b 04 02             	mov    (%rdx,%rax,1),%eax
   1c916:	48 98                	cltq   
   1c918:	8b 55 fc             	mov    -0x4(%rbp),%edx
   1c91b:	48 8d 35 b2 2b 00 00 	lea    0x2bb2(%rip),%rsi        # 1f4d4 <g_3489+0x2474>
   1c922:	48 89 c7             	mov    %rax,%rdi
   1c925:	e8 c9 fd fe ff       	callq  c6f3 <transparent_crc>
   1c92a:	83 7d fc 00          	cmpl   $0x0,-0x4(%rbp)
   1c92e:	74 16                	je     1c946 <main+0x7c5>
   1c930:	8b 45 f0             	mov    -0x10(%rbp),%eax
   1c933:	89 c6                	mov    %eax,%esi
   1c935:	48 8d 3d 3d 2a 00 00 	lea    0x2a3d(%rip),%rdi        # 1f379 <g_3489+0x2319>
   1c93c:	b8 00 00 00 00       	mov    $0x0,%eax
   1c941:	e8 3a e7 fe ff       	callq  b080 <printf@plt>
   1c946:	83 45 f0 01          	addl   $0x1,-0x10(%rbp)
   1c94a:	83 7d f0 04          	cmpl   $0x4,-0x10(%rbp)
   1c94e:	7e af                	jle    1c8ff <main+0x77e>
   1c950:	48 8b 05 b1 6f 00 00 	mov    0x6fb1(%rip),%rax        # 23908 <g_3543>
   1c957:	8b 55 fc             	mov    -0x4(%rbp),%edx
   1c95a:	48 8d 35 7d 2b 00 00 	lea    0x2b7d(%rip),%rsi        # 1f4de <g_3489+0x247e>
   1c961:	48 89 c7             	mov    %rax,%rdi
   1c964:	e8 8a fd fe ff       	callq  c6f3 <transparent_crc>
   1c969:	8b 05 a1 6f 00 00    	mov    0x6fa1(%rip),%eax        # 23910 <g_3590>
   1c96f:	89 c1                	mov    %eax,%ecx
   1c971:	8b 45 fc             	mov    -0x4(%rbp),%eax
   1c974:	89 c2                	mov    %eax,%edx
   1c976:	48 8d 35 68 2b 00 00 	lea    0x2b68(%rip),%rsi        # 1f4e5 <g_3489+0x2485>
   1c97d:	48 89 cf             	mov    %rcx,%rdi
   1c980:	e8 6e fd fe ff       	callq  c6f3 <transparent_crc>
   1c985:	0f b6 05 88 6f 00 00 	movzbl 0x6f88(%rip),%eax        # 23914 <g_3959>
   1c98c:	0f b6 c0             	movzbl %al,%eax
   1c98f:	8b 55 fc             	mov    -0x4(%rbp),%edx
   1c992:	48 8d 35 53 2b 00 00 	lea    0x2b53(%rip),%rsi        # 1f4ec <g_3489+0x248c>
   1c999:	48 89 c7             	mov    %rax,%rdi
   1c99c:	e8 52 fd fe ff       	callq  c6f3 <transparent_crc>
   1c9a1:	8b 05 71 6f 00 00    	mov    0x6f71(%rip),%eax        # 23918 <g_3993>
   1c9a7:	48 98                	cltq   
   1c9a9:	8b 55 fc             	mov    -0x4(%rbp),%edx
   1c9ac:	48 8d 35 40 2b 00 00 	lea    0x2b40(%rip),%rsi        # 1f4f3 <g_3489+0x2493>
   1c9b3:	48 89 c7             	mov    %rax,%rdi
   1c9b6:	e8 38 fd fe ff       	callq  c6f3 <transparent_crc>
   1c9bb:	48 8b 05 5e 6f 00 00 	mov    0x6f5e(%rip),%rax        # 23920 <g_4295>
   1c9c2:	8b 55 fc             	mov    -0x4(%rbp),%edx
   1c9c5:	48 8d 35 2e 2b 00 00 	lea    0x2b2e(%rip),%rsi        # 1f4fa <g_3489+0x249a>
   1c9cc:	48 89 c7             	mov    %rax,%rdi
   1c9cf:	e8 1f fd fe ff       	callq  c6f3 <transparent_crc>
   1c9d4:	0f b7 05 4d 6f 00 00 	movzwl 0x6f4d(%rip),%eax        # 23928 <g_4418>
   1c9db:	48 0f bf c0          	movswq %ax,%rax
   1c9df:	8b 55 fc             	mov    -0x4(%rbp),%edx
   1c9e2:	48 8d 35 18 2b 00 00 	lea    0x2b18(%rip),%rsi        # 1f501 <g_3489+0x24a1>
   1c9e9:	48 89 c7             	mov    %rax,%rdi
   1c9ec:	e8 02 fd fe ff       	callq  c6f3 <transparent_crc>
   1c9f1:	0f b7 05 32 6f 00 00 	movzwl 0x6f32(%rip),%eax        # 2392a <g_4419>
   1c9f8:	48 0f bf c0          	movswq %ax,%rax
   1c9fc:	8b 55 fc             	mov    -0x4(%rbp),%edx
   1c9ff:	48 8d 35 02 2b 00 00 	lea    0x2b02(%rip),%rsi        # 1f508 <g_3489+0x24a8>
   1ca06:	48 89 c7             	mov    %rax,%rdi
   1ca09:	e8 e5 fc fe ff       	callq  c6f3 <transparent_crc>
   1ca0e:	8b 05 18 6f 00 00    	mov    0x6f18(%rip),%eax        # 2392c <g_4429>
   1ca14:	89 c1                	mov    %eax,%ecx
   1ca16:	8b 45 fc             	mov    -0x4(%rbp),%eax
   1ca19:	89 c2                	mov    %eax,%edx
   1ca1b:	48 8d 35 ed 2a 00 00 	lea    0x2aed(%rip),%rsi        # 1f50f <g_3489+0x24af>
   1ca22:	48 89 cf             	mov    %rcx,%rdi
   1ca25:	e8 c9 fc fe ff       	callq  c6f3 <transparent_crc>
   1ca2a:	8b 05 f0 65 00 00    	mov    0x65f0(%rip),%eax        # 23020 <crc32_context>
   1ca30:	f7 d0                	not    %eax
   1ca32:	89 c2                	mov    %eax,%edx
   1ca34:	8b 45 fc             	mov    -0x4(%rbp),%eax
   1ca37:	89 c6                	mov    %eax,%esi
   1ca39:	89 d7                	mov    %edx,%edi
   1ca3b:	e8 54 e7 fe ff       	callq  b194 <platform_main_end>
   1ca40:	b8 00 00 00 00       	mov    $0x0,%eax
   1ca45:	c9                   	leaveq 
   1ca46:	c3                   	retq   
   1ca47:	66 0f 1f 84 00 00 00 	nopw   0x0(%rax,%rax,1)
   1ca4e:	00 00 

000000000001ca50 <__libc_csu_init>:
   1ca50:	f3 0f 1e fa          	endbr64 
   1ca54:	41 57                	push   %r15
   1ca56:	4c 8d 3d 13 5f 00 00 	lea    0x5f13(%rip),%r15        # 22970 <__frame_dummy_init_array_entry>
   1ca5d:	41 56                	push   %r14
   1ca5f:	49 89 d6             	mov    %rdx,%r14
   1ca62:	41 55                	push   %r13
   1ca64:	49 89 f5             	mov    %rsi,%r13
   1ca67:	41 54                	push   %r12
   1ca69:	41 89 fc             	mov    %edi,%r12d
   1ca6c:	55                   	push   %rbp
   1ca6d:	48 8d 2d 04 5f 00 00 	lea    0x5f04(%rip),%rbp        # 22978 <__do_global_dtors_aux_fini_array_entry>
   1ca74:	53                   	push   %rbx
   1ca75:	4c 29 fd             	sub    %r15,%rbp
   1ca78:	48 83 ec 08          	sub    $0x8,%rsp
   1ca7c:	e8 7f e5 fe ff       	callq  b000 <_init>
   1ca81:	48 c1 fd 03          	sar    $0x3,%rbp
   1ca85:	74 1f                	je     1caa6 <__libc_csu_init+0x56>
   1ca87:	31 db                	xor    %ebx,%ebx
   1ca89:	0f 1f 80 00 00 00 00 	nopl   0x0(%rax)
   1ca90:	4c 89 f2             	mov    %r14,%rdx
   1ca93:	4c 89 ee             	mov    %r13,%rsi
   1ca96:	44 89 e7             	mov    %r12d,%edi
   1ca99:	41 ff 14 df          	callq  *(%r15,%rbx,8)
   1ca9d:	48 83 c3 01          	add    $0x1,%rbx
   1caa1:	48 39 dd             	cmp    %rbx,%rbp
   1caa4:	75 ea                	jne    1ca90 <__libc_csu_init+0x40>
   1caa6:	48 83 c4 08          	add    $0x8,%rsp
   1caaa:	5b                   	pop    %rbx
   1caab:	5d                   	pop    %rbp
   1caac:	41 5c                	pop    %r12
   1caae:	41 5d                	pop    %r13
   1cab0:	41 5e                	pop    %r14
   1cab2:	41 5f                	pop    %r15
   1cab4:	c3                   	retq   
   1cab5:	66 66 2e 0f 1f 84 00 	data16 nopw %cs:0x0(%rax,%rax,1)
   1cabc:	00 00 00 00 

000000000001cac0 <__libc_csu_fini>:
   1cac0:	f3 0f 1e fa          	endbr64 
   1cac4:	c3                   	retq   
