


Disassembly of section .text:

000000000000c0a0 <_start>:
    c0a0:	f3 0f 1e fa          	endbr64 
    c0a4:	31 ed                	xor    %ebp,%ebp
    c0a6:	49 89 d1             	mov    %rdx,%r9
    c0a9:	5e                   	pop    %rsi
    c0aa:	48 89 e2             	mov    %rsp,%rdx
    c0ad:	48 83 e4 f0          	and    $0xfffffffffffffff0,%rsp
    c0b1:	50                   	push   %rax
    c0b2:	54                   	push   %rsp
    c0b3:	4c 8d 05 66 ad 00 00 	lea    0xad66(%rip),%r8        # 16e20 <__libc_csu_fini>
    c0ba:	48 8d 0d ef ac 00 00 	lea    0xacef(%rip),%rcx        # 16db0 <__libc_csu_init>
    c0c1:	48 8d 3d 30 a3 00 00 	lea    0xa330(%rip),%rdi        # 163f8 <main>
    c0c8:	ff 15 12 ef 00 00    	callq  *0xef12(%rip)        # 1afe0 <__libc_start_main@GLIBC_2.2.5>
    c0ce:	f4                   	hlt    
    c0cf:	90                   	nop

000000000000c0d0 <deregister_tm_clones>:
    c0d0:	48 8d 3d 21 40 01 00 	lea    0x14021(%rip),%rdi        # 200f8 <__TMC_END__>
    c0d7:	48 8d 05 1a 40 01 00 	lea    0x1401a(%rip),%rax        # 200f8 <__TMC_END__>
    c0de:	48 39 f8             	cmp    %rdi,%rax
    c0e1:	74 15                	je     c0f8 <deregister_tm_clones+0x28>
    c0e3:	48 8b 05 ee ee 00 00 	mov    0xeeee(%rip),%rax        # 1afd8 <_ITM_deregisterTMCloneTable>
    c0ea:	48 85 c0             	test   %rax,%rax
    c0ed:	74 09                	je     c0f8 <deregister_tm_clones+0x28>
    c0ef:	ff e0                	jmpq   *%rax
    c0f1:	0f 1f 80 00 00 00 00 	nopl   0x0(%rax)
    c0f8:	c3                   	retq   
    c0f9:	0f 1f 80 00 00 00 00 	nopl   0x0(%rax)

000000000000c100 <register_tm_clones>:
    c100:	48 8d 3d f1 3f 01 00 	lea    0x13ff1(%rip),%rdi        # 200f8 <__TMC_END__>
    c107:	48 8d 35 ea 3f 01 00 	lea    0x13fea(%rip),%rsi        # 200f8 <__TMC_END__>
    c10e:	48 29 fe             	sub    %rdi,%rsi
    c111:	48 89 f0             	mov    %rsi,%rax
    c114:	48 c1 ee 3f          	shr    $0x3f,%rsi
    c118:	48 c1 f8 03          	sar    $0x3,%rax
    c11c:	48 01 c6             	add    %rax,%rsi
    c11f:	48 d1 fe             	sar    %rsi
    c122:	74 14                	je     c138 <register_tm_clones+0x38>
    c124:	48 8b 05 c5 ee 00 00 	mov    0xeec5(%rip),%rax        # 1aff0 <_ITM_registerTMCloneTable>
    c12b:	48 85 c0             	test   %rax,%rax
    c12e:	74 08                	je     c138 <register_tm_clones+0x38>
    c130:	ff e0                	jmpq   *%rax
    c132:	66 0f 1f 44 00 00    	nopw   0x0(%rax,%rax,1)
    c138:	c3                   	retq   
    c139:	0f 1f 80 00 00 00 00 	nopl   0x0(%rax)

000000000000c140 <__do_global_dtors_aux>:
    c140:	f3 0f 1e fa          	endbr64 
    c144:	80 3d b5 3f 01 00 00 	cmpb   $0x0,0x13fb5(%rip)        # 20100 <completed.8061>
    c14b:	75 2b                	jne    c178 <__do_global_dtors_aux+0x38>
    c14d:	55                   	push   %rbp
    c14e:	48 83 3d a2 ee 00 00 	cmpq   $0x0,0xeea2(%rip)        # 1aff8 <__cxa_finalize@GLIBC_2.2.5>
    c155:	00 
    c156:	48 89 e5             	mov    %rsp,%rbp
    c159:	74 0c                	je     c167 <__do_global_dtors_aux+0x27>
    c15b:	48 8b 3d a6 ee 00 00 	mov    0xeea6(%rip),%rdi        # 1b008 <__dso_handle>
    c162:	e8 f9 fe ff ff       	callq  c060 <__cxa_finalize@plt>
    c167:	e8 64 ff ff ff       	callq  c0d0 <deregister_tm_clones>
    c16c:	c6 05 8d 3f 01 00 01 	movb   $0x1,0x13f8d(%rip)        # 20100 <completed.8061>
    c173:	5d                   	pop    %rbp
    c174:	c3                   	retq   
    c175:	0f 1f 00             	nopl   (%rax)
    c178:	c3                   	retq   
    c179:	0f 1f 80 00 00 00 00 	nopl   0x0(%rax)

000000000000c180 <frame_dummy>:
    c180:	f3 0f 1e fa          	endbr64 
    c184:	e9 77 ff ff ff       	jmpq   c100 <register_tm_clones>

000000000000c189 <platform_main_begin>:
    c189:	f3 0f 1e fa          	endbr64 
    c18d:	55                   	push   %rbp
    c18e:	48 89 e5             	mov    %rsp,%rbp
    c191:	90                   	nop
    c192:	5d                   	pop    %rbp
    c193:	c3                   	retq   

000000000000c194 <platform_main_end>:
    c194:	f3 0f 1e fa          	endbr64 
    c198:	55                   	push   %rbp
    c199:	48 89 e5             	mov    %rsp,%rbp
    c19c:	48 83 ec 10          	sub    $0x10,%rsp
    c1a0:	89 7d fc             	mov    %edi,-0x4(%rbp)
    c1a3:	89 75 f8             	mov    %esi,-0x8(%rbp)
    c1a6:	8b 45 fc             	mov    -0x4(%rbp),%eax
    c1a9:	89 c6                	mov    %eax,%esi
    c1ab:	48 8d 3d 6e ae 00 00 	lea    0xae6e(%rip),%rdi        # 17020 <_IO_stdin_used+0x20>
    c1b2:	b8 00 00 00 00       	mov    $0x0,%eax
    c1b7:	e8 c4 fe ff ff       	callq  c080 <printf@plt>
    c1bc:	90                   	nop
    c1bd:	c9                   	leaveq 
    c1be:	c3                   	retq   

000000000000c1bf <safe_unary_minus_func_int8_t_s>:
    c1bf:	f3 0f 1e fa          	endbr64 
    c1c3:	55                   	push   %rbp
    c1c4:	48 89 e5             	mov    %rsp,%rbp
    c1c7:	89 f8                	mov    %edi,%eax
    c1c9:	88 45 fc             	mov    %al,-0x4(%rbp)
    c1cc:	0f b6 45 fc          	movzbl -0x4(%rbp),%eax
    c1d0:	f7 d8                	neg    %eax
    c1d2:	5d                   	pop    %rbp
    c1d3:	c3                   	retq   

000000000000c1d4 <safe_add_func_int8_t_s_s>:
    c1d4:	f3 0f 1e fa          	endbr64 
    c1d8:	55                   	push   %rbp
    c1d9:	48 89 e5             	mov    %rsp,%rbp
    c1dc:	89 fa                	mov    %edi,%edx
    c1de:	89 f0                	mov    %esi,%eax
    c1e0:	88 55 fc             	mov    %dl,-0x4(%rbp)
    c1e3:	88 45 f8             	mov    %al,-0x8(%rbp)
    c1e6:	0f b6 55 fc          	movzbl -0x4(%rbp),%edx
    c1ea:	0f b6 45 f8          	movzbl -0x8(%rbp),%eax
    c1ee:	01 d0                	add    %edx,%eax
    c1f0:	5d                   	pop    %rbp
    c1f1:	c3                   	retq   

000000000000c1f2 <safe_sub_func_int8_t_s_s>:
    c1f2:	f3 0f 1e fa          	endbr64 
    c1f6:	55                   	push   %rbp
    c1f7:	48 89 e5             	mov    %rsp,%rbp
    c1fa:	89 fa                	mov    %edi,%edx
    c1fc:	89 f0                	mov    %esi,%eax
    c1fe:	88 55 fc             	mov    %dl,-0x4(%rbp)
    c201:	88 45 f8             	mov    %al,-0x8(%rbp)
    c204:	0f b6 55 fc          	movzbl -0x4(%rbp),%edx
    c208:	0f b6 45 f8          	movzbl -0x8(%rbp),%eax
    c20c:	29 c2                	sub    %eax,%edx
    c20e:	89 d0                	mov    %edx,%eax
    c210:	5d                   	pop    %rbp
    c211:	c3                   	retq   

000000000000c212 <safe_mul_func_int8_t_s_s>:
    c212:	f3 0f 1e fa          	endbr64 
    c216:	55                   	push   %rbp
    c217:	48 89 e5             	mov    %rsp,%rbp
    c21a:	89 fa                	mov    %edi,%edx
    c21c:	89 f0                	mov    %esi,%eax
    c21e:	88 55 fc             	mov    %dl,-0x4(%rbp)
    c221:	88 45 f8             	mov    %al,-0x8(%rbp)
    c224:	0f b6 45 fc          	movzbl -0x4(%rbp),%eax
    c228:	0f b6 55 f8          	movzbl -0x8(%rbp),%edx
    c22c:	0f af c2             	imul   %edx,%eax
    c22f:	5d                   	pop    %rbp
    c230:	c3                   	retq   

000000000000c231 <safe_mod_func_int8_t_s_s>:
    c231:	f3 0f 1e fa          	endbr64 
    c235:	55                   	push   %rbp
    c236:	48 89 e5             	mov    %rsp,%rbp
    c239:	89 fa                	mov    %edi,%edx
    c23b:	89 f0                	mov    %esi,%eax
    c23d:	88 55 fc             	mov    %dl,-0x4(%rbp)
    c240:	88 45 f8             	mov    %al,-0x8(%rbp)
    c243:	80 7d f8 00          	cmpb   $0x0,-0x8(%rbp)
    c247:	74 1b                	je     c264 <safe_mod_func_int8_t_s_s+0x33>
    c249:	80 7d fc 80          	cmpb   $0x80,-0x4(%rbp)
    c24d:	75 06                	jne    c255 <safe_mod_func_int8_t_s_s+0x24>
    c24f:	80 7d f8 ff          	cmpb   $0xff,-0x8(%rbp)
    c253:	74 0f                	je     c264 <safe_mod_func_int8_t_s_s+0x33>
    c255:	0f be 45 fc          	movsbl -0x4(%rbp),%eax
    c259:	0f be 4d f8          	movsbl -0x8(%rbp),%ecx
    c25d:	99                   	cltd   
    c25e:	f7 f9                	idiv   %ecx
    c260:	89 d0                	mov    %edx,%eax
    c262:	eb 04                	jmp    c268 <safe_mod_func_int8_t_s_s+0x37>
    c264:	0f b6 45 fc          	movzbl -0x4(%rbp),%eax
    c268:	5d                   	pop    %rbp
    c269:	c3                   	retq   

000000000000c26a <safe_div_func_int8_t_s_s>:
    c26a:	f3 0f 1e fa          	endbr64 
    c26e:	55                   	push   %rbp
    c26f:	48 89 e5             	mov    %rsp,%rbp
    c272:	89 fa                	mov    %edi,%edx
    c274:	89 f0                	mov    %esi,%eax
    c276:	88 55 fc             	mov    %dl,-0x4(%rbp)
    c279:	88 45 f8             	mov    %al,-0x8(%rbp)
    c27c:	80 7d f8 00          	cmpb   $0x0,-0x8(%rbp)
    c280:	74 19                	je     c29b <safe_div_func_int8_t_s_s+0x31>
    c282:	80 7d fc 80          	cmpb   $0x80,-0x4(%rbp)
    c286:	75 06                	jne    c28e <safe_div_func_int8_t_s_s+0x24>
    c288:	80 7d f8 ff          	cmpb   $0xff,-0x8(%rbp)
    c28c:	74 0d                	je     c29b <safe_div_func_int8_t_s_s+0x31>
    c28e:	0f be 45 fc          	movsbl -0x4(%rbp),%eax
    c292:	0f be 4d f8          	movsbl -0x8(%rbp),%ecx
    c296:	99                   	cltd   
    c297:	f7 f9                	idiv   %ecx
    c299:	eb 04                	jmp    c29f <safe_div_func_int8_t_s_s+0x35>
    c29b:	0f b6 45 fc          	movzbl -0x4(%rbp),%eax
    c29f:	5d                   	pop    %rbp
    c2a0:	c3                   	retq   

000000000000c2a1 <safe_lshift_func_int8_t_s_s>:
    c2a1:	f3 0f 1e fa          	endbr64 
    c2a5:	55                   	push   %rbp
    c2a6:	48 89 e5             	mov    %rsp,%rbp
    c2a9:	89 f8                	mov    %edi,%eax
    c2ab:	89 75 f8             	mov    %esi,-0x8(%rbp)
    c2ae:	88 45 fc             	mov    %al,-0x4(%rbp)
    c2b1:	80 7d fc 00          	cmpb   $0x0,-0x4(%rbp)
    c2b5:	78 31                	js     c2e8 <safe_lshift_func_int8_t_s_s+0x47>
    c2b7:	83 7d f8 00          	cmpl   $0x0,-0x8(%rbp)
    c2bb:	78 2b                	js     c2e8 <safe_lshift_func_int8_t_s_s+0x47>
    c2bd:	83 7d f8 1f          	cmpl   $0x1f,-0x8(%rbp)
    c2c1:	7f 25                	jg     c2e8 <safe_lshift_func_int8_t_s_s+0x47>
    c2c3:	0f be 55 fc          	movsbl -0x4(%rbp),%edx
    c2c7:	8b 45 f8             	mov    -0x8(%rbp),%eax
    c2ca:	be 7f 00 00 00       	mov    $0x7f,%esi
    c2cf:	89 c1                	mov    %eax,%ecx
    c2d1:	d3 fe                	sar    %cl,%esi
    c2d3:	89 f0                	mov    %esi,%eax
    c2d5:	39 c2                	cmp    %eax,%edx
    c2d7:	7f 0f                	jg     c2e8 <safe_lshift_func_int8_t_s_s+0x47>
    c2d9:	0f be 55 fc          	movsbl -0x4(%rbp),%edx
    c2dd:	8b 45 f8             	mov    -0x8(%rbp),%eax
    c2e0:	89 c1                	mov    %eax,%ecx
    c2e2:	d3 e2                	shl    %cl,%edx
    c2e4:	89 d0                	mov    %edx,%eax
    c2e6:	eb 04                	jmp    c2ec <safe_lshift_func_int8_t_s_s+0x4b>
    c2e8:	0f b6 45 fc          	movzbl -0x4(%rbp),%eax
    c2ec:	5d                   	pop    %rbp
    c2ed:	c3                   	retq   

000000000000c2ee <safe_lshift_func_int8_t_s_u>:
    c2ee:	f3 0f 1e fa          	endbr64 
    c2f2:	55                   	push   %rbp
    c2f3:	48 89 e5             	mov    %rsp,%rbp
    c2f6:	89 f8                	mov    %edi,%eax
    c2f8:	89 75 f8             	mov    %esi,-0x8(%rbp)
    c2fb:	88 45 fc             	mov    %al,-0x4(%rbp)
    c2fe:	80 7d fc 00          	cmpb   $0x0,-0x4(%rbp)
    c302:	78 2b                	js     c32f <safe_lshift_func_int8_t_s_u+0x41>
    c304:	83 7d f8 1f          	cmpl   $0x1f,-0x8(%rbp)
    c308:	77 25                	ja     c32f <safe_lshift_func_int8_t_s_u+0x41>
    c30a:	0f be 55 fc          	movsbl -0x4(%rbp),%edx
    c30e:	8b 45 f8             	mov    -0x8(%rbp),%eax
    c311:	be 7f 00 00 00       	mov    $0x7f,%esi
    c316:	89 c1                	mov    %eax,%ecx
    c318:	d3 fe                	sar    %cl,%esi
    c31a:	89 f0                	mov    %esi,%eax
    c31c:	39 c2                	cmp    %eax,%edx
    c31e:	7f 0f                	jg     c32f <safe_lshift_func_int8_t_s_u+0x41>
    c320:	0f be 55 fc          	movsbl -0x4(%rbp),%edx
    c324:	8b 45 f8             	mov    -0x8(%rbp),%eax
    c327:	89 c1                	mov    %eax,%ecx
    c329:	d3 e2                	shl    %cl,%edx
    c32b:	89 d0                	mov    %edx,%eax
    c32d:	eb 04                	jmp    c333 <safe_lshift_func_int8_t_s_u+0x45>
    c32f:	0f b6 45 fc          	movzbl -0x4(%rbp),%eax
    c333:	5d                   	pop    %rbp
    c334:	c3                   	retq   

000000000000c335 <safe_rshift_func_int8_t_s_s>:
    c335:	f3 0f 1e fa          	endbr64 
    c339:	55                   	push   %rbp
    c33a:	48 89 e5             	mov    %rsp,%rbp
    c33d:	89 f8                	mov    %edi,%eax
    c33f:	89 75 f8             	mov    %esi,-0x8(%rbp)
    c342:	88 45 fc             	mov    %al,-0x4(%rbp)
    c345:	80 7d fc 00          	cmpb   $0x0,-0x4(%rbp)
    c349:	78 1b                	js     c366 <safe_rshift_func_int8_t_s_s+0x31>
    c34b:	83 7d f8 00          	cmpl   $0x0,-0x8(%rbp)
    c34f:	78 15                	js     c366 <safe_rshift_func_int8_t_s_s+0x31>
    c351:	83 7d f8 1f          	cmpl   $0x1f,-0x8(%rbp)
    c355:	7f 0f                	jg     c366 <safe_rshift_func_int8_t_s_s+0x31>
    c357:	0f be 55 fc          	movsbl -0x4(%rbp),%edx
    c35b:	8b 45 f8             	mov    -0x8(%rbp),%eax
    c35e:	89 c1                	mov    %eax,%ecx
    c360:	d3 fa                	sar    %cl,%edx
    c362:	89 d0                	mov    %edx,%eax
    c364:	eb 04                	jmp    c36a <safe_rshift_func_int8_t_s_s+0x35>
    c366:	0f b6 45 fc          	movzbl -0x4(%rbp),%eax
    c36a:	5d                   	pop    %rbp
    c36b:	c3                   	retq   

000000000000c36c <safe_rshift_func_int8_t_s_u>:
    c36c:	f3 0f 1e fa          	endbr64 
    c370:	55                   	push   %rbp
    c371:	48 89 e5             	mov    %rsp,%rbp
    c374:	89 f8                	mov    %edi,%eax
    c376:	89 75 f8             	mov    %esi,-0x8(%rbp)
    c379:	88 45 fc             	mov    %al,-0x4(%rbp)
    c37c:	80 7d fc 00          	cmpb   $0x0,-0x4(%rbp)
    c380:	78 15                	js     c397 <safe_rshift_func_int8_t_s_u+0x2b>
    c382:	83 7d f8 1f          	cmpl   $0x1f,-0x8(%rbp)
    c386:	77 0f                	ja     c397 <safe_rshift_func_int8_t_s_u+0x2b>
    c388:	0f be 55 fc          	movsbl -0x4(%rbp),%edx
    c38c:	8b 45 f8             	mov    -0x8(%rbp),%eax
    c38f:	89 c1                	mov    %eax,%ecx
    c391:	d3 fa                	sar    %cl,%edx
    c393:	89 d0                	mov    %edx,%eax
    c395:	eb 04                	jmp    c39b <safe_rshift_func_int8_t_s_u+0x2f>
    c397:	0f b6 45 fc          	movzbl -0x4(%rbp),%eax
    c39b:	5d                   	pop    %rbp
    c39c:	c3                   	retq   

000000000000c39d <safe_unary_minus_func_int16_t_s>:
    c39d:	f3 0f 1e fa          	endbr64 
    c3a1:	55                   	push   %rbp
    c3a2:	48 89 e5             	mov    %rsp,%rbp
    c3a5:	89 f8                	mov    %edi,%eax
    c3a7:	66 89 45 fc          	mov    %ax,-0x4(%rbp)
    c3ab:	0f b7 45 fc          	movzwl -0x4(%rbp),%eax
    c3af:	f7 d8                	neg    %eax
    c3b1:	5d                   	pop    %rbp
    c3b2:	c3                   	retq   

000000000000c3b3 <safe_add_func_int16_t_s_s>:
    c3b3:	f3 0f 1e fa          	endbr64 
    c3b7:	55                   	push   %rbp
    c3b8:	48 89 e5             	mov    %rsp,%rbp
    c3bb:	89 fa                	mov    %edi,%edx
    c3bd:	89 f0                	mov    %esi,%eax
    c3bf:	66 89 55 fc          	mov    %dx,-0x4(%rbp)
    c3c3:	66 89 45 f8          	mov    %ax,-0x8(%rbp)
    c3c7:	0f b7 55 fc          	movzwl -0x4(%rbp),%edx
    c3cb:	0f b7 45 f8          	movzwl -0x8(%rbp),%eax
    c3cf:	01 d0                	add    %edx,%eax
    c3d1:	5d                   	pop    %rbp
    c3d2:	c3                   	retq   

000000000000c3d3 <safe_sub_func_int16_t_s_s>:
    c3d3:	f3 0f 1e fa          	endbr64 
    c3d7:	55                   	push   %rbp
    c3d8:	48 89 e5             	mov    %rsp,%rbp
    c3db:	89 fa                	mov    %edi,%edx
    c3dd:	89 f0                	mov    %esi,%eax
    c3df:	66 89 55 fc          	mov    %dx,-0x4(%rbp)
    c3e3:	66 89 45 f8          	mov    %ax,-0x8(%rbp)
    c3e7:	0f b7 55 fc          	movzwl -0x4(%rbp),%edx
    c3eb:	0f b7 45 f8          	movzwl -0x8(%rbp),%eax
    c3ef:	29 c2                	sub    %eax,%edx
    c3f1:	89 d0                	mov    %edx,%eax
    c3f3:	5d                   	pop    %rbp
    c3f4:	c3                   	retq   

000000000000c3f5 <safe_mul_func_int16_t_s_s>:
    c3f5:	f3 0f 1e fa          	endbr64 
    c3f9:	55                   	push   %rbp
    c3fa:	48 89 e5             	mov    %rsp,%rbp
    c3fd:	89 fa                	mov    %edi,%edx
    c3ff:	89 f0                	mov    %esi,%eax
    c401:	66 89 55 fc          	mov    %dx,-0x4(%rbp)
    c405:	66 89 45 f8          	mov    %ax,-0x8(%rbp)
    c409:	0f b7 55 fc          	movzwl -0x4(%rbp),%edx
    c40d:	0f b7 45 f8          	movzwl -0x8(%rbp),%eax
    c411:	0f af c2             	imul   %edx,%eax
    c414:	5d                   	pop    %rbp
    c415:	c3                   	retq   

000000000000c416 <safe_mod_func_int16_t_s_s>:
    c416:	f3 0f 1e fa          	endbr64 
    c41a:	55                   	push   %rbp
    c41b:	48 89 e5             	mov    %rsp,%rbp
    c41e:	89 fa                	mov    %edi,%edx
    c420:	89 f0                	mov    %esi,%eax
    c422:	66 89 55 fc          	mov    %dx,-0x4(%rbp)
    c426:	66 89 45 f8          	mov    %ax,-0x8(%rbp)
    c42a:	66 83 7d f8 00       	cmpw   $0x0,-0x8(%rbp)
    c42f:	74 1e                	je     c44f <safe_mod_func_int16_t_s_s+0x39>
    c431:	66 81 7d fc 00 80    	cmpw   $0x8000,-0x4(%rbp)
    c437:	75 07                	jne    c440 <safe_mod_func_int16_t_s_s+0x2a>
    c439:	66 83 7d f8 ff       	cmpw   $0xffff,-0x8(%rbp)
    c43e:	74 0f                	je     c44f <safe_mod_func_int16_t_s_s+0x39>
    c440:	0f bf 45 fc          	movswl -0x4(%rbp),%eax
    c444:	0f bf 4d f8          	movswl -0x8(%rbp),%ecx
    c448:	99                   	cltd   
    c449:	f7 f9                	idiv   %ecx
    c44b:	89 d0                	mov    %edx,%eax
    c44d:	eb 04                	jmp    c453 <safe_mod_func_int16_t_s_s+0x3d>
    c44f:	0f b7 45 fc          	movzwl -0x4(%rbp),%eax
    c453:	5d                   	pop    %rbp
    c454:	c3                   	retq   

000000000000c455 <safe_div_func_int16_t_s_s>:
    c455:	f3 0f 1e fa          	endbr64 
    c459:	55                   	push   %rbp
    c45a:	48 89 e5             	mov    %rsp,%rbp
    c45d:	89 fa                	mov    %edi,%edx
    c45f:	89 f0                	mov    %esi,%eax
    c461:	66 89 55 fc          	mov    %dx,-0x4(%rbp)
    c465:	66 89 45 f8          	mov    %ax,-0x8(%rbp)
    c469:	66 83 7d f8 00       	cmpw   $0x0,-0x8(%rbp)
    c46e:	74 1c                	je     c48c <safe_div_func_int16_t_s_s+0x37>
    c470:	66 81 7d fc 00 80    	cmpw   $0x8000,-0x4(%rbp)
    c476:	75 07                	jne    c47f <safe_div_func_int16_t_s_s+0x2a>
    c478:	66 83 7d f8 ff       	cmpw   $0xffff,-0x8(%rbp)
    c47d:	74 0d                	je     c48c <safe_div_func_int16_t_s_s+0x37>
    c47f:	0f bf 45 fc          	movswl -0x4(%rbp),%eax
    c483:	0f bf 4d f8          	movswl -0x8(%rbp),%ecx
    c487:	99                   	cltd   
    c488:	f7 f9                	idiv   %ecx
    c48a:	eb 04                	jmp    c490 <safe_div_func_int16_t_s_s+0x3b>
    c48c:	0f b7 45 fc          	movzwl -0x4(%rbp),%eax
    c490:	5d                   	pop    %rbp
    c491:	c3                   	retq   

000000000000c492 <safe_lshift_func_int16_t_s_s>:
    c492:	f3 0f 1e fa          	endbr64 
    c496:	55                   	push   %rbp
    c497:	48 89 e5             	mov    %rsp,%rbp
    c49a:	89 f8                	mov    %edi,%eax
    c49c:	89 75 f8             	mov    %esi,-0x8(%rbp)
    c49f:	66 89 45 fc          	mov    %ax,-0x4(%rbp)
    c4a3:	66 83 7d fc 00       	cmpw   $0x0,-0x4(%rbp)
    c4a8:	78 31                	js     c4db <safe_lshift_func_int16_t_s_s+0x49>
    c4aa:	83 7d f8 00          	cmpl   $0x0,-0x8(%rbp)
    c4ae:	78 2b                	js     c4db <safe_lshift_func_int16_t_s_s+0x49>
    c4b0:	83 7d f8 1f          	cmpl   $0x1f,-0x8(%rbp)
    c4b4:	7f 25                	jg     c4db <safe_lshift_func_int16_t_s_s+0x49>
    c4b6:	0f bf 55 fc          	movswl -0x4(%rbp),%edx
    c4ba:	8b 45 f8             	mov    -0x8(%rbp),%eax
    c4bd:	be ff 7f 00 00       	mov    $0x7fff,%esi
    c4c2:	89 c1                	mov    %eax,%ecx
    c4c4:	d3 fe                	sar    %cl,%esi
    c4c6:	89 f0                	mov    %esi,%eax
    c4c8:	39 c2                	cmp    %eax,%edx
    c4ca:	7f 0f                	jg     c4db <safe_lshift_func_int16_t_s_s+0x49>
    c4cc:	0f bf 55 fc          	movswl -0x4(%rbp),%edx
    c4d0:	8b 45 f8             	mov    -0x8(%rbp),%eax
    c4d3:	89 c1                	mov    %eax,%ecx
    c4d5:	d3 e2                	shl    %cl,%edx
    c4d7:	89 d0                	mov    %edx,%eax
    c4d9:	eb 04                	jmp    c4df <safe_lshift_func_int16_t_s_s+0x4d>
    c4db:	0f b7 45 fc          	movzwl -0x4(%rbp),%eax
    c4df:	5d                   	pop    %rbp
    c4e0:	c3                   	retq   

000000000000c4e1 <safe_lshift_func_int16_t_s_u>:
    c4e1:	f3 0f 1e fa          	endbr64 
    c4e5:	55                   	push   %rbp
    c4e6:	48 89 e5             	mov    %rsp,%rbp
    c4e9:	89 f8                	mov    %edi,%eax
    c4eb:	89 75 f8             	mov    %esi,-0x8(%rbp)
    c4ee:	66 89 45 fc          	mov    %ax,-0x4(%rbp)
    c4f2:	66 83 7d fc 00       	cmpw   $0x0,-0x4(%rbp)
    c4f7:	78 2b                	js     c524 <safe_lshift_func_int16_t_s_u+0x43>
    c4f9:	83 7d f8 1f          	cmpl   $0x1f,-0x8(%rbp)
    c4fd:	77 25                	ja     c524 <safe_lshift_func_int16_t_s_u+0x43>
    c4ff:	0f bf 55 fc          	movswl -0x4(%rbp),%edx
    c503:	8b 45 f8             	mov    -0x8(%rbp),%eax
    c506:	be ff 7f 00 00       	mov    $0x7fff,%esi
    c50b:	89 c1                	mov    %eax,%ecx
    c50d:	d3 fe                	sar    %cl,%esi
    c50f:	89 f0                	mov    %esi,%eax
    c511:	39 c2                	cmp    %eax,%edx
    c513:	7f 0f                	jg     c524 <safe_lshift_func_int16_t_s_u+0x43>
    c515:	0f bf 55 fc          	movswl -0x4(%rbp),%edx
    c519:	8b 45 f8             	mov    -0x8(%rbp),%eax
    c51c:	89 c1                	mov    %eax,%ecx
    c51e:	d3 e2                	shl    %cl,%edx
    c520:	89 d0                	mov    %edx,%eax
    c522:	eb 04                	jmp    c528 <safe_lshift_func_int16_t_s_u+0x47>
    c524:	0f b7 45 fc          	movzwl -0x4(%rbp),%eax
    c528:	5d                   	pop    %rbp
    c529:	c3                   	retq   

000000000000c52a <safe_rshift_func_int16_t_s_s>:
    c52a:	f3 0f 1e fa          	endbr64 
    c52e:	55                   	push   %rbp
    c52f:	48 89 e5             	mov    %rsp,%rbp
    c532:	89 f8                	mov    %edi,%eax
    c534:	89 75 f8             	mov    %esi,-0x8(%rbp)
    c537:	66 89 45 fc          	mov    %ax,-0x4(%rbp)
    c53b:	66 83 7d fc 00       	cmpw   $0x0,-0x4(%rbp)
    c540:	78 1b                	js     c55d <safe_rshift_func_int16_t_s_s+0x33>
    c542:	83 7d f8 00          	cmpl   $0x0,-0x8(%rbp)
    c546:	78 15                	js     c55d <safe_rshift_func_int16_t_s_s+0x33>
    c548:	83 7d f8 1f          	cmpl   $0x1f,-0x8(%rbp)
    c54c:	7f 0f                	jg     c55d <safe_rshift_func_int16_t_s_s+0x33>
    c54e:	0f bf 55 fc          	movswl -0x4(%rbp),%edx
    c552:	8b 45 f8             	mov    -0x8(%rbp),%eax
    c555:	89 c1                	mov    %eax,%ecx
    c557:	d3 fa                	sar    %cl,%edx
    c559:	89 d0                	mov    %edx,%eax
    c55b:	eb 04                	jmp    c561 <safe_rshift_func_int16_t_s_s+0x37>
    c55d:	0f b7 45 fc          	movzwl -0x4(%rbp),%eax
    c561:	5d                   	pop    %rbp
    c562:	c3                   	retq   

000000000000c563 <safe_rshift_func_int16_t_s_u>:
    c563:	f3 0f 1e fa          	endbr64 
    c567:	55                   	push   %rbp
    c568:	48 89 e5             	mov    %rsp,%rbp
    c56b:	89 f8                	mov    %edi,%eax
    c56d:	89 75 f8             	mov    %esi,-0x8(%rbp)
    c570:	66 89 45 fc          	mov    %ax,-0x4(%rbp)
    c574:	66 83 7d fc 00       	cmpw   $0x0,-0x4(%rbp)
    c579:	78 15                	js     c590 <safe_rshift_func_int16_t_s_u+0x2d>
    c57b:	83 7d f8 1f          	cmpl   $0x1f,-0x8(%rbp)
    c57f:	77 0f                	ja     c590 <safe_rshift_func_int16_t_s_u+0x2d>
    c581:	0f bf 55 fc          	movswl -0x4(%rbp),%edx
    c585:	8b 45 f8             	mov    -0x8(%rbp),%eax
    c588:	89 c1                	mov    %eax,%ecx
    c58a:	d3 fa                	sar    %cl,%edx
    c58c:	89 d0                	mov    %edx,%eax
    c58e:	eb 04                	jmp    c594 <safe_rshift_func_int16_t_s_u+0x31>
    c590:	0f b7 45 fc          	movzwl -0x4(%rbp),%eax
    c594:	5d                   	pop    %rbp
    c595:	c3                   	retq   

000000000000c596 <safe_unary_minus_func_int32_t_s>:
    c596:	f3 0f 1e fa          	endbr64 
    c59a:	55                   	push   %rbp
    c59b:	48 89 e5             	mov    %rsp,%rbp
    c59e:	89 7d fc             	mov    %edi,-0x4(%rbp)
    c5a1:	81 7d fc 00 00 00 80 	cmpl   $0x80000000,-0x4(%rbp)
    c5a8:	74 07                	je     c5b1 <safe_unary_minus_func_int32_t_s+0x1b>
    c5aa:	8b 45 fc             	mov    -0x4(%rbp),%eax
    c5ad:	f7 d8                	neg    %eax
    c5af:	eb 03                	jmp    c5b4 <safe_unary_minus_func_int32_t_s+0x1e>
    c5b1:	8b 45 fc             	mov    -0x4(%rbp),%eax
    c5b4:	5d                   	pop    %rbp
    c5b5:	c3                   	retq   

000000000000c5b6 <safe_add_func_int32_t_s_s>:
    c5b6:	f3 0f 1e fa          	endbr64 
    c5ba:	55                   	push   %rbp
    c5bb:	48 89 e5             	mov    %rsp,%rbp
    c5be:	89 7d fc             	mov    %edi,-0x4(%rbp)
    c5c1:	89 75 f8             	mov    %esi,-0x8(%rbp)
    c5c4:	83 7d fc 00          	cmpl   $0x0,-0x4(%rbp)
    c5c8:	7e 13                	jle    c5dd <safe_add_func_int32_t_s_s+0x27>
    c5ca:	83 7d f8 00          	cmpl   $0x0,-0x8(%rbp)
    c5ce:	7e 0d                	jle    c5dd <safe_add_func_int32_t_s_s+0x27>
    c5d0:	b8 ff ff ff 7f       	mov    $0x7fffffff,%eax
    c5d5:	2b 45 f8             	sub    -0x8(%rbp),%eax
    c5d8:	39 45 fc             	cmp    %eax,-0x4(%rbp)
    c5db:	7f 23                	jg     c600 <safe_add_func_int32_t_s_s+0x4a>
    c5dd:	83 7d fc 00          	cmpl   $0x0,-0x4(%rbp)
    c5e1:	79 13                	jns    c5f6 <safe_add_func_int32_t_s_s+0x40>
    c5e3:	83 7d f8 00          	cmpl   $0x0,-0x8(%rbp)
    c5e7:	79 0d                	jns    c5f6 <safe_add_func_int32_t_s_s+0x40>
    c5e9:	b8 00 00 00 80       	mov    $0x80000000,%eax
    c5ee:	2b 45 f8             	sub    -0x8(%rbp),%eax
    c5f1:	39 45 fc             	cmp    %eax,-0x4(%rbp)
    c5f4:	7c 0a                	jl     c600 <safe_add_func_int32_t_s_s+0x4a>
    c5f6:	8b 55 fc             	mov    -0x4(%rbp),%edx
    c5f9:	8b 45 f8             	mov    -0x8(%rbp),%eax
    c5fc:	01 d0                	add    %edx,%eax
    c5fe:	eb 03                	jmp    c603 <safe_add_func_int32_t_s_s+0x4d>
    c600:	8b 45 fc             	mov    -0x4(%rbp),%eax
    c603:	5d                   	pop    %rbp
    c604:	c3                   	retq   

000000000000c605 <safe_sub_func_int32_t_s_s>:
    c605:	f3 0f 1e fa          	endbr64 
    c609:	55                   	push   %rbp
    c60a:	48 89 e5             	mov    %rsp,%rbp
    c60d:	89 7d fc             	mov    %edi,-0x4(%rbp)
    c610:	89 75 f8             	mov    %esi,-0x8(%rbp)
    c613:	8b 45 fc             	mov    -0x4(%rbp),%eax
    c616:	33 45 f8             	xor    -0x8(%rbp),%eax
    c619:	89 c2                	mov    %eax,%edx
    c61b:	8b 45 fc             	mov    -0x4(%rbp),%eax
    c61e:	33 45 f8             	xor    -0x8(%rbp),%eax
    c621:	25 00 00 00 80       	and    $0x80000000,%eax
    c626:	33 45 fc             	xor    -0x4(%rbp),%eax
    c629:	2b 45 f8             	sub    -0x8(%rbp),%eax
    c62c:	33 45 f8             	xor    -0x8(%rbp),%eax
    c62f:	21 d0                	and    %edx,%eax
    c631:	85 c0                	test   %eax,%eax
    c633:	78 08                	js     c63d <safe_sub_func_int32_t_s_s+0x38>
    c635:	8b 45 fc             	mov    -0x4(%rbp),%eax
    c638:	2b 45 f8             	sub    -0x8(%rbp),%eax
    c63b:	eb 03                	jmp    c640 <safe_sub_func_int32_t_s_s+0x3b>
    c63d:	8b 45 fc             	mov    -0x4(%rbp),%eax
    c640:	5d                   	pop    %rbp
    c641:	c3                   	retq   

000000000000c642 <safe_mul_func_int32_t_s_s>:
    c642:	f3 0f 1e fa          	endbr64 
    c646:	55                   	push   %rbp
    c647:	48 89 e5             	mov    %rsp,%rbp
    c64a:	89 7d fc             	mov    %edi,-0x4(%rbp)
    c64d:	89 75 f8             	mov    %esi,-0x8(%rbp)
    c650:	83 7d fc 00          	cmpl   $0x0,-0x4(%rbp)
    c654:	7e 14                	jle    c66a <safe_mul_func_int32_t_s_s+0x28>
    c656:	83 7d f8 00          	cmpl   $0x0,-0x8(%rbp)
    c65a:	7e 0e                	jle    c66a <safe_mul_func_int32_t_s_s+0x28>
    c65c:	b8 ff ff ff 7f       	mov    $0x7fffffff,%eax
    c661:	99                   	cltd   
    c662:	f7 7d f8             	idivl  -0x8(%rbp)
    c665:	39 45 fc             	cmp    %eax,-0x4(%rbp)
    c668:	7f 5d                	jg     c6c7 <safe_mul_func_int32_t_s_s+0x85>
    c66a:	83 7d fc 00          	cmpl   $0x0,-0x4(%rbp)
    c66e:	7e 14                	jle    c684 <safe_mul_func_int32_t_s_s+0x42>
    c670:	83 7d f8 00          	cmpl   $0x0,-0x8(%rbp)
    c674:	7f 0e                	jg     c684 <safe_mul_func_int32_t_s_s+0x42>
    c676:	b8 00 00 00 80       	mov    $0x80000000,%eax
    c67b:	99                   	cltd   
    c67c:	f7 7d fc             	idivl  -0x4(%rbp)
    c67f:	39 45 f8             	cmp    %eax,-0x8(%rbp)
    c682:	7c 43                	jl     c6c7 <safe_mul_func_int32_t_s_s+0x85>
    c684:	83 7d fc 00          	cmpl   $0x0,-0x4(%rbp)
    c688:	7f 14                	jg     c69e <safe_mul_func_int32_t_s_s+0x5c>
    c68a:	83 7d f8 00          	cmpl   $0x0,-0x8(%rbp)
    c68e:	7e 0e                	jle    c69e <safe_mul_func_int32_t_s_s+0x5c>
    c690:	b8 00 00 00 80       	mov    $0x80000000,%eax
    c695:	99                   	cltd   
    c696:	f7 7d f8             	idivl  -0x8(%rbp)
    c699:	39 45 fc             	cmp    %eax,-0x4(%rbp)
    c69c:	7c 29                	jl     c6c7 <safe_mul_func_int32_t_s_s+0x85>
    c69e:	83 7d fc 00          	cmpl   $0x0,-0x4(%rbp)
    c6a2:	7f 1a                	jg     c6be <safe_mul_func_int32_t_s_s+0x7c>
    c6a4:	83 7d f8 00          	cmpl   $0x0,-0x8(%rbp)
    c6a8:	7f 14                	jg     c6be <safe_mul_func_int32_t_s_s+0x7c>
    c6aa:	83 7d fc 00          	cmpl   $0x0,-0x4(%rbp)
    c6ae:	74 0e                	je     c6be <safe_mul_func_int32_t_s_s+0x7c>
    c6b0:	b8 ff ff ff 7f       	mov    $0x7fffffff,%eax
    c6b5:	99                   	cltd   
    c6b6:	f7 7d fc             	idivl  -0x4(%rbp)
    c6b9:	39 45 f8             	cmp    %eax,-0x8(%rbp)
    c6bc:	7c 09                	jl     c6c7 <safe_mul_func_int32_t_s_s+0x85>
    c6be:	8b 45 fc             	mov    -0x4(%rbp),%eax
    c6c1:	0f af 45 f8          	imul   -0x8(%rbp),%eax
    c6c5:	eb 03                	jmp    c6ca <safe_mul_func_int32_t_s_s+0x88>
    c6c7:	8b 45 fc             	mov    -0x4(%rbp),%eax
    c6ca:	5d                   	pop    %rbp
    c6cb:	c3                   	retq   

000000000000c6cc <safe_mod_func_int32_t_s_s>:
    c6cc:	f3 0f 1e fa          	endbr64 
    c6d0:	55                   	push   %rbp
    c6d1:	48 89 e5             	mov    %rsp,%rbp
    c6d4:	89 7d fc             	mov    %edi,-0x4(%rbp)
    c6d7:	89 75 f8             	mov    %esi,-0x8(%rbp)
    c6da:	83 7d f8 00          	cmpl   $0x0,-0x8(%rbp)
    c6de:	74 1a                	je     c6fa <safe_mod_func_int32_t_s_s+0x2e>
    c6e0:	81 7d fc 00 00 00 80 	cmpl   $0x80000000,-0x4(%rbp)
    c6e7:	75 06                	jne    c6ef <safe_mod_func_int32_t_s_s+0x23>
    c6e9:	83 7d f8 ff          	cmpl   $0xffffffff,-0x8(%rbp)
    c6ed:	74 0b                	je     c6fa <safe_mod_func_int32_t_s_s+0x2e>
    c6ef:	8b 45 fc             	mov    -0x4(%rbp),%eax
    c6f2:	99                   	cltd   
    c6f3:	f7 7d f8             	idivl  -0x8(%rbp)
    c6f6:	89 d0                	mov    %edx,%eax
    c6f8:	eb 03                	jmp    c6fd <safe_mod_func_int32_t_s_s+0x31>
    c6fa:	8b 45 fc             	mov    -0x4(%rbp),%eax
    c6fd:	5d                   	pop    %rbp
    c6fe:	c3                   	retq   

000000000000c6ff <safe_div_func_int32_t_s_s>:
    c6ff:	f3 0f 1e fa          	endbr64 
    c703:	55                   	push   %rbp
    c704:	48 89 e5             	mov    %rsp,%rbp
    c707:	89 7d fc             	mov    %edi,-0x4(%rbp)
    c70a:	89 75 f8             	mov    %esi,-0x8(%rbp)
    c70d:	83 7d f8 00          	cmpl   $0x0,-0x8(%rbp)
    c711:	74 18                	je     c72b <safe_div_func_int32_t_s_s+0x2c>
    c713:	81 7d fc 00 00 00 80 	cmpl   $0x80000000,-0x4(%rbp)
    c71a:	75 06                	jne    c722 <safe_div_func_int32_t_s_s+0x23>
    c71c:	83 7d f8 ff          	cmpl   $0xffffffff,-0x8(%rbp)
    c720:	74 09                	je     c72b <safe_div_func_int32_t_s_s+0x2c>
    c722:	8b 45 fc             	mov    -0x4(%rbp),%eax
    c725:	99                   	cltd   
    c726:	f7 7d f8             	idivl  -0x8(%rbp)
    c729:	eb 03                	jmp    c72e <safe_div_func_int32_t_s_s+0x2f>
    c72b:	8b 45 fc             	mov    -0x4(%rbp),%eax
    c72e:	5d                   	pop    %rbp
    c72f:	c3                   	retq   

000000000000c730 <safe_lshift_func_int32_t_s_s>:
    c730:	f3 0f 1e fa          	endbr64 
    c734:	55                   	push   %rbp
    c735:	48 89 e5             	mov    %rsp,%rbp
    c738:	89 7d fc             	mov    %edi,-0x4(%rbp)
    c73b:	89 75 f8             	mov    %esi,-0x8(%rbp)
    c73e:	83 7d fc 00          	cmpl   $0x0,-0x4(%rbp)
    c742:	78 2d                	js     c771 <safe_lshift_func_int32_t_s_s+0x41>
    c744:	83 7d f8 00          	cmpl   $0x0,-0x8(%rbp)
    c748:	78 27                	js     c771 <safe_lshift_func_int32_t_s_s+0x41>
    c74a:	83 7d f8 1f          	cmpl   $0x1f,-0x8(%rbp)
    c74e:	7f 21                	jg     c771 <safe_lshift_func_int32_t_s_s+0x41>
    c750:	8b 45 f8             	mov    -0x8(%rbp),%eax
    c753:	ba ff ff ff 7f       	mov    $0x7fffffff,%edx
    c758:	89 c1                	mov    %eax,%ecx
    c75a:	d3 fa                	sar    %cl,%edx
    c75c:	89 d0                	mov    %edx,%eax
    c75e:	39 45 fc             	cmp    %eax,-0x4(%rbp)
    c761:	7f 0e                	jg     c771 <safe_lshift_func_int32_t_s_s+0x41>
    c763:	8b 45 f8             	mov    -0x8(%rbp),%eax
    c766:	8b 55 fc             	mov    -0x4(%rbp),%edx
    c769:	89 c1                	mov    %eax,%ecx
    c76b:	d3 e2                	shl    %cl,%edx
    c76d:	89 d0                	mov    %edx,%eax
    c76f:	eb 03                	jmp    c774 <safe_lshift_func_int32_t_s_s+0x44>
    c771:	8b 45 fc             	mov    -0x4(%rbp),%eax
    c774:	5d                   	pop    %rbp
    c775:	c3                   	retq   

000000000000c776 <safe_lshift_func_int32_t_s_u>:
    c776:	f3 0f 1e fa          	endbr64 
    c77a:	55                   	push   %rbp
    c77b:	48 89 e5             	mov    %rsp,%rbp
    c77e:	89 7d fc             	mov    %edi,-0x4(%rbp)
    c781:	89 75 f8             	mov    %esi,-0x8(%rbp)
    c784:	83 7d fc 00          	cmpl   $0x0,-0x4(%rbp)
    c788:	78 27                	js     c7b1 <safe_lshift_func_int32_t_s_u+0x3b>
    c78a:	83 7d f8 1f          	cmpl   $0x1f,-0x8(%rbp)
    c78e:	77 21                	ja     c7b1 <safe_lshift_func_int32_t_s_u+0x3b>
    c790:	8b 45 f8             	mov    -0x8(%rbp),%eax
    c793:	ba ff ff ff 7f       	mov    $0x7fffffff,%edx
    c798:	89 c1                	mov    %eax,%ecx
    c79a:	d3 fa                	sar    %cl,%edx
    c79c:	89 d0                	mov    %edx,%eax
    c79e:	39 45 fc             	cmp    %eax,-0x4(%rbp)
    c7a1:	7f 0e                	jg     c7b1 <safe_lshift_func_int32_t_s_u+0x3b>
    c7a3:	8b 45 f8             	mov    -0x8(%rbp),%eax
    c7a6:	8b 55 fc             	mov    -0x4(%rbp),%edx
    c7a9:	89 c1                	mov    %eax,%ecx
    c7ab:	d3 e2                	shl    %cl,%edx
    c7ad:	89 d0                	mov    %edx,%eax
    c7af:	eb 03                	jmp    c7b4 <safe_lshift_func_int32_t_s_u+0x3e>
    c7b1:	8b 45 fc             	mov    -0x4(%rbp),%eax
    c7b4:	5d                   	pop    %rbp
    c7b5:	c3                   	retq   

000000000000c7b6 <safe_rshift_func_int32_t_s_s>:
    c7b6:	f3 0f 1e fa          	endbr64 
    c7ba:	55                   	push   %rbp
    c7bb:	48 89 e5             	mov    %rsp,%rbp
    c7be:	89 7d fc             	mov    %edi,-0x4(%rbp)
    c7c1:	89 75 f8             	mov    %esi,-0x8(%rbp)
    c7c4:	83 7d fc 00          	cmpl   $0x0,-0x4(%rbp)
    c7c8:	78 1a                	js     c7e4 <safe_rshift_func_int32_t_s_s+0x2e>
    c7ca:	83 7d f8 00          	cmpl   $0x0,-0x8(%rbp)
    c7ce:	78 14                	js     c7e4 <safe_rshift_func_int32_t_s_s+0x2e>
    c7d0:	83 7d f8 1f          	cmpl   $0x1f,-0x8(%rbp)
    c7d4:	7f 0e                	jg     c7e4 <safe_rshift_func_int32_t_s_s+0x2e>
    c7d6:	8b 45 f8             	mov    -0x8(%rbp),%eax
    c7d9:	8b 55 fc             	mov    -0x4(%rbp),%edx
    c7dc:	89 c1                	mov    %eax,%ecx
    c7de:	d3 fa                	sar    %cl,%edx
    c7e0:	89 d0                	mov    %edx,%eax
    c7e2:	eb 03                	jmp    c7e7 <safe_rshift_func_int32_t_s_s+0x31>
    c7e4:	8b 45 fc             	mov    -0x4(%rbp),%eax
    c7e7:	5d                   	pop    %rbp
    c7e8:	c3                   	retq   

000000000000c7e9 <safe_rshift_func_int32_t_s_u>:
    c7e9:	f3 0f 1e fa          	endbr64 
    c7ed:	55                   	push   %rbp
    c7ee:	48 89 e5             	mov    %rsp,%rbp
    c7f1:	89 7d fc             	mov    %edi,-0x4(%rbp)
    c7f4:	89 75 f8             	mov    %esi,-0x8(%rbp)
    c7f7:	83 7d fc 00          	cmpl   $0x0,-0x4(%rbp)
    c7fb:	78 14                	js     c811 <safe_rshift_func_int32_t_s_u+0x28>
    c7fd:	83 7d f8 1f          	cmpl   $0x1f,-0x8(%rbp)
    c801:	77 0e                	ja     c811 <safe_rshift_func_int32_t_s_u+0x28>
    c803:	8b 45 f8             	mov    -0x8(%rbp),%eax
    c806:	8b 55 fc             	mov    -0x4(%rbp),%edx
    c809:	89 c1                	mov    %eax,%ecx
    c80b:	d3 fa                	sar    %cl,%edx
    c80d:	89 d0                	mov    %edx,%eax
    c80f:	eb 03                	jmp    c814 <safe_rshift_func_int32_t_s_u+0x2b>
    c811:	8b 45 fc             	mov    -0x4(%rbp),%eax
    c814:	5d                   	pop    %rbp
    c815:	c3                   	retq   

000000000000c816 <safe_unary_minus_func_int64_t_s>:
    c816:	f3 0f 1e fa          	endbr64 
    c81a:	55                   	push   %rbp
    c81b:	48 89 e5             	mov    %rsp,%rbp
    c81e:	48 89 7d f8          	mov    %rdi,-0x8(%rbp)
    c822:	48 b8 00 00 00 00 00 	movabs $0x8000000000000000,%rax
    c829:	00 00 80 
    c82c:	48 39 45 f8          	cmp    %rax,-0x8(%rbp)
    c830:	74 09                	je     c83b <safe_unary_minus_func_int64_t_s+0x25>
    c832:	48 8b 45 f8          	mov    -0x8(%rbp),%rax
    c836:	48 f7 d8             	neg    %rax
    c839:	eb 04                	jmp    c83f <safe_unary_minus_func_int64_t_s+0x29>
    c83b:	48 8b 45 f8          	mov    -0x8(%rbp),%rax
    c83f:	5d                   	pop    %rbp
    c840:	c3                   	retq   

000000000000c841 <safe_add_func_int64_t_s_s>:
    c841:	f3 0f 1e fa          	endbr64 
    c845:	55                   	push   %rbp
    c846:	48 89 e5             	mov    %rsp,%rbp
    c849:	48 89 7d f8          	mov    %rdi,-0x8(%rbp)
    c84d:	48 89 75 f0          	mov    %rsi,-0x10(%rbp)
    c851:	48 83 7d f8 00       	cmpq   $0x0,-0x8(%rbp)
    c856:	7e 1b                	jle    c873 <safe_add_func_int64_t_s_s+0x32>
    c858:	48 83 7d f0 00       	cmpq   $0x0,-0x10(%rbp)
    c85d:	7e 14                	jle    c873 <safe_add_func_int64_t_s_s+0x32>
    c85f:	48 b8 ff ff ff ff ff 	movabs $0x7fffffffffffffff,%rax
    c866:	ff ff 7f 
    c869:	48 2b 45 f0          	sub    -0x10(%rbp),%rax
    c86d:	48 39 45 f8          	cmp    %rax,-0x8(%rbp)
    c871:	7f 2f                	jg     c8a2 <safe_add_func_int64_t_s_s+0x61>
    c873:	48 83 7d f8 00       	cmpq   $0x0,-0x8(%rbp)
    c878:	79 1b                	jns    c895 <safe_add_func_int64_t_s_s+0x54>
    c87a:	48 83 7d f0 00       	cmpq   $0x0,-0x10(%rbp)
    c87f:	79 14                	jns    c895 <safe_add_func_int64_t_s_s+0x54>
    c881:	48 b8 00 00 00 00 00 	movabs $0x8000000000000000,%rax
    c888:	00 00 80 
    c88b:	48 2b 45 f0          	sub    -0x10(%rbp),%rax
    c88f:	48 39 45 f8          	cmp    %rax,-0x8(%rbp)
    c893:	7c 0d                	jl     c8a2 <safe_add_func_int64_t_s_s+0x61>
    c895:	48 8b 55 f8          	mov    -0x8(%rbp),%rdx
    c899:	48 8b 45 f0          	mov    -0x10(%rbp),%rax
    c89d:	48 01 d0             	add    %rdx,%rax
    c8a0:	eb 04                	jmp    c8a6 <safe_add_func_int64_t_s_s+0x65>
    c8a2:	48 8b 45 f8          	mov    -0x8(%rbp),%rax
    c8a6:	5d                   	pop    %rbp
    c8a7:	c3                   	retq   

000000000000c8a8 <safe_sub_func_int64_t_s_s>:
    c8a8:	f3 0f 1e fa          	endbr64 
    c8ac:	55                   	push   %rbp
    c8ad:	48 89 e5             	mov    %rsp,%rbp
    c8b0:	48 89 7d f8          	mov    %rdi,-0x8(%rbp)
    c8b4:	48 89 75 f0          	mov    %rsi,-0x10(%rbp)
    c8b8:	48 8b 45 f8          	mov    -0x8(%rbp),%rax
    c8bc:	48 33 45 f0          	xor    -0x10(%rbp),%rax
    c8c0:	48 89 c2             	mov    %rax,%rdx
    c8c3:	48 8b 45 f8          	mov    -0x8(%rbp),%rax
    c8c7:	48 33 45 f0          	xor    -0x10(%rbp),%rax
    c8cb:	48 b9 00 00 00 00 00 	movabs $0x8000000000000000,%rcx
    c8d2:	00 00 80 
    c8d5:	48 21 c8             	and    %rcx,%rax
    c8d8:	48 33 45 f8          	xor    -0x8(%rbp),%rax
    c8dc:	48 2b 45 f0          	sub    -0x10(%rbp),%rax
    c8e0:	48 33 45 f0          	xor    -0x10(%rbp),%rax
    c8e4:	48 21 d0             	and    %rdx,%rax
    c8e7:	48 85 c0             	test   %rax,%rax
    c8ea:	78 0a                	js     c8f6 <safe_sub_func_int64_t_s_s+0x4e>
    c8ec:	48 8b 45 f8          	mov    -0x8(%rbp),%rax
    c8f0:	48 2b 45 f0          	sub    -0x10(%rbp),%rax
    c8f4:	eb 04                	jmp    c8fa <safe_sub_func_int64_t_s_s+0x52>
    c8f6:	48 8b 45 f8          	mov    -0x8(%rbp),%rax
    c8fa:	5d                   	pop    %rbp
    c8fb:	c3                   	retq   

000000000000c8fc <safe_mul_func_int64_t_s_s>:
    c8fc:	f3 0f 1e fa          	endbr64 
    c900:	55                   	push   %rbp
    c901:	48 89 e5             	mov    %rsp,%rbp
    c904:	48 89 7d f8          	mov    %rdi,-0x8(%rbp)
    c908:	48 89 75 f0          	mov    %rsi,-0x10(%rbp)
    c90c:	48 83 7d f8 00       	cmpq   $0x0,-0x8(%rbp)
    c911:	7e 1d                	jle    c930 <safe_mul_func_int64_t_s_s+0x34>
    c913:	48 83 7d f0 00       	cmpq   $0x0,-0x10(%rbp)
    c918:	7e 16                	jle    c930 <safe_mul_func_int64_t_s_s+0x34>
    c91a:	48 b8 ff ff ff ff ff 	movabs $0x7fffffffffffffff,%rax
    c921:	ff ff 7f 
    c924:	48 99                	cqto   
    c926:	48 f7 7d f0          	idivq  -0x10(%rbp)
    c92a:	48 39 45 f8          	cmp    %rax,-0x8(%rbp)
    c92e:	7f 7e                	jg     c9ae <safe_mul_func_int64_t_s_s+0xb2>
    c930:	48 83 7d f8 00       	cmpq   $0x0,-0x8(%rbp)
    c935:	7e 1d                	jle    c954 <safe_mul_func_int64_t_s_s+0x58>
    c937:	48 83 7d f0 00       	cmpq   $0x0,-0x10(%rbp)
    c93c:	7f 16                	jg     c954 <safe_mul_func_int64_t_s_s+0x58>
    c93e:	48 b8 00 00 00 00 00 	movabs $0x8000000000000000,%rax
    c945:	00 00 80 
    c948:	48 99                	cqto   
    c94a:	48 f7 7d f8          	idivq  -0x8(%rbp)
    c94e:	48 39 45 f0          	cmp    %rax,-0x10(%rbp)
    c952:	7c 5a                	jl     c9ae <safe_mul_func_int64_t_s_s+0xb2>
    c954:	48 83 7d f8 00       	cmpq   $0x0,-0x8(%rbp)
    c959:	7f 1d                	jg     c978 <safe_mul_func_int64_t_s_s+0x7c>
    c95b:	48 83 7d f0 00       	cmpq   $0x0,-0x10(%rbp)
    c960:	7e 16                	jle    c978 <safe_mul_func_int64_t_s_s+0x7c>
    c962:	48 b8 00 00 00 00 00 	movabs $0x8000000000000000,%rax
    c969:	00 00 80 
    c96c:	48 99                	cqto   
    c96e:	48 f7 7d f0          	idivq  -0x10(%rbp)
    c972:	48 39 45 f8          	cmp    %rax,-0x8(%rbp)
    c976:	7c 36                	jl     c9ae <safe_mul_func_int64_t_s_s+0xb2>
    c978:	48 83 7d f8 00       	cmpq   $0x0,-0x8(%rbp)
    c97d:	7f 24                	jg     c9a3 <safe_mul_func_int64_t_s_s+0xa7>
    c97f:	48 83 7d f0 00       	cmpq   $0x0,-0x10(%rbp)
    c984:	7f 1d                	jg     c9a3 <safe_mul_func_int64_t_s_s+0xa7>
    c986:	48 83 7d f8 00       	cmpq   $0x0,-0x8(%rbp)
    c98b:	74 16                	je     c9a3 <safe_mul_func_int64_t_s_s+0xa7>
    c98d:	48 b8 ff ff ff ff ff 	movabs $0x7fffffffffffffff,%rax
    c994:	ff ff 7f 
    c997:	48 99                	cqto   
    c999:	48 f7 7d f8          	idivq  -0x8(%rbp)
    c99d:	48 39 45 f0          	cmp    %rax,-0x10(%rbp)
    c9a1:	7c 0b                	jl     c9ae <safe_mul_func_int64_t_s_s+0xb2>
    c9a3:	48 8b 45 f8          	mov    -0x8(%rbp),%rax
    c9a7:	48 0f af 45 f0       	imul   -0x10(%rbp),%rax
    c9ac:	eb 04                	jmp    c9b2 <safe_mul_func_int64_t_s_s+0xb6>
    c9ae:	48 8b 45 f8          	mov    -0x8(%rbp),%rax
    c9b2:	5d                   	pop    %rbp
    c9b3:	c3                   	retq   

000000000000c9b4 <safe_mod_func_int64_t_s_s>:
    c9b4:	f3 0f 1e fa          	endbr64 
    c9b8:	55                   	push   %rbp
    c9b9:	48 89 e5             	mov    %rsp,%rbp
    c9bc:	48 89 7d f8          	mov    %rdi,-0x8(%rbp)
    c9c0:	48 89 75 f0          	mov    %rsi,-0x10(%rbp)
    c9c4:	48 83 7d f0 00       	cmpq   $0x0,-0x10(%rbp)
    c9c9:	74 26                	je     c9f1 <safe_mod_func_int64_t_s_s+0x3d>
    c9cb:	48 b8 00 00 00 00 00 	movabs $0x8000000000000000,%rax
    c9d2:	00 00 80 
    c9d5:	48 39 45 f8          	cmp    %rax,-0x8(%rbp)
    c9d9:	75 07                	jne    c9e2 <safe_mod_func_int64_t_s_s+0x2e>
    c9db:	48 83 7d f0 ff       	cmpq   $0xffffffffffffffff,-0x10(%rbp)
    c9e0:	74 0f                	je     c9f1 <safe_mod_func_int64_t_s_s+0x3d>
    c9e2:	48 8b 45 f8          	mov    -0x8(%rbp),%rax
    c9e6:	48 99                	cqto   
    c9e8:	48 f7 7d f0          	idivq  -0x10(%rbp)
    c9ec:	48 89 d0             	mov    %rdx,%rax
    c9ef:	eb 04                	jmp    c9f5 <safe_mod_func_int64_t_s_s+0x41>
    c9f1:	48 8b 45 f8          	mov    -0x8(%rbp),%rax
    c9f5:	5d                   	pop    %rbp
    c9f6:	c3                   	retq   

000000000000c9f7 <safe_div_func_int64_t_s_s>:
    c9f7:	f3 0f 1e fa          	endbr64 
    c9fb:	55                   	push   %rbp
    c9fc:	48 89 e5             	mov    %rsp,%rbp
    c9ff:	48 89 7d f8          	mov    %rdi,-0x8(%rbp)
    ca03:	48 89 75 f0          	mov    %rsi,-0x10(%rbp)
    ca07:	48 83 7d f0 00       	cmpq   $0x0,-0x10(%rbp)
    ca0c:	74 23                	je     ca31 <safe_div_func_int64_t_s_s+0x3a>
    ca0e:	48 b8 00 00 00 00 00 	movabs $0x8000000000000000,%rax
    ca15:	00 00 80 
    ca18:	48 39 45 f8          	cmp    %rax,-0x8(%rbp)
    ca1c:	75 07                	jne    ca25 <safe_div_func_int64_t_s_s+0x2e>
    ca1e:	48 83 7d f0 ff       	cmpq   $0xffffffffffffffff,-0x10(%rbp)
    ca23:	74 0c                	je     ca31 <safe_div_func_int64_t_s_s+0x3a>
    ca25:	48 8b 45 f8          	mov    -0x8(%rbp),%rax
    ca29:	48 99                	cqto   
    ca2b:	48 f7 7d f0          	idivq  -0x10(%rbp)
    ca2f:	eb 04                	jmp    ca35 <safe_div_func_int64_t_s_s+0x3e>
    ca31:	48 8b 45 f8          	mov    -0x8(%rbp),%rax
    ca35:	5d                   	pop    %rbp
    ca36:	c3                   	retq   

000000000000ca37 <safe_lshift_func_int64_t_s_s>:
    ca37:	f3 0f 1e fa          	endbr64 
    ca3b:	55                   	push   %rbp
    ca3c:	48 89 e5             	mov    %rsp,%rbp
    ca3f:	48 89 7d f8          	mov    %rdi,-0x8(%rbp)
    ca43:	89 75 f4             	mov    %esi,-0xc(%rbp)
    ca46:	48 83 7d f8 00       	cmpq   $0x0,-0x8(%rbp)
    ca4b:	78 38                	js     ca85 <safe_lshift_func_int64_t_s_s+0x4e>
    ca4d:	83 7d f4 00          	cmpl   $0x0,-0xc(%rbp)
    ca51:	78 32                	js     ca85 <safe_lshift_func_int64_t_s_s+0x4e>
    ca53:	83 7d f4 1f          	cmpl   $0x1f,-0xc(%rbp)
    ca57:	7f 2c                	jg     ca85 <safe_lshift_func_int64_t_s_s+0x4e>
    ca59:	8b 45 f4             	mov    -0xc(%rbp),%eax
    ca5c:	48 ba ff ff ff ff ff 	movabs $0x7fffffffffffffff,%rdx
    ca63:	ff ff 7f 
    ca66:	89 c1                	mov    %eax,%ecx
    ca68:	48 d3 fa             	sar    %cl,%rdx
    ca6b:	48 89 d0             	mov    %rdx,%rax
    ca6e:	48 39 45 f8          	cmp    %rax,-0x8(%rbp)
    ca72:	7f 11                	jg     ca85 <safe_lshift_func_int64_t_s_s+0x4e>
    ca74:	8b 45 f4             	mov    -0xc(%rbp),%eax
    ca77:	48 8b 55 f8          	mov    -0x8(%rbp),%rdx
    ca7b:	89 c1                	mov    %eax,%ecx
    ca7d:	48 d3 e2             	shl    %cl,%rdx
    ca80:	48 89 d0             	mov    %rdx,%rax
    ca83:	eb 04                	jmp    ca89 <safe_lshift_func_int64_t_s_s+0x52>
    ca85:	48 8b 45 f8          	mov    -0x8(%rbp),%rax
    ca89:	5d                   	pop    %rbp
    ca8a:	c3                   	retq   

000000000000ca8b <safe_lshift_func_int64_t_s_u>:
    ca8b:	f3 0f 1e fa          	endbr64 
    ca8f:	55                   	push   %rbp
    ca90:	48 89 e5             	mov    %rsp,%rbp
    ca93:	48 89 7d f8          	mov    %rdi,-0x8(%rbp)
    ca97:	89 75 f4             	mov    %esi,-0xc(%rbp)
    ca9a:	48 83 7d f8 00       	cmpq   $0x0,-0x8(%rbp)
    ca9f:	78 32                	js     cad3 <safe_lshift_func_int64_t_s_u+0x48>
    caa1:	83 7d f4 1f          	cmpl   $0x1f,-0xc(%rbp)
    caa5:	77 2c                	ja     cad3 <safe_lshift_func_int64_t_s_u+0x48>
    caa7:	8b 45 f4             	mov    -0xc(%rbp),%eax
    caaa:	48 ba ff ff ff ff ff 	movabs $0x7fffffffffffffff,%rdx
    cab1:	ff ff 7f 
    cab4:	89 c1                	mov    %eax,%ecx
    cab6:	48 d3 fa             	sar    %cl,%rdx
    cab9:	48 89 d0             	mov    %rdx,%rax
    cabc:	48 39 45 f8          	cmp    %rax,-0x8(%rbp)
    cac0:	7f 11                	jg     cad3 <safe_lshift_func_int64_t_s_u+0x48>
    cac2:	8b 45 f4             	mov    -0xc(%rbp),%eax
    cac5:	48 8b 55 f8          	mov    -0x8(%rbp),%rdx
    cac9:	89 c1                	mov    %eax,%ecx
    cacb:	48 d3 e2             	shl    %cl,%rdx
    cace:	48 89 d0             	mov    %rdx,%rax
    cad1:	eb 04                	jmp    cad7 <safe_lshift_func_int64_t_s_u+0x4c>
    cad3:	48 8b 45 f8          	mov    -0x8(%rbp),%rax
    cad7:	5d                   	pop    %rbp
    cad8:	c3                   	retq   

000000000000cad9 <safe_rshift_func_int64_t_s_s>:
    cad9:	f3 0f 1e fa          	endbr64 
    cadd:	55                   	push   %rbp
    cade:	48 89 e5             	mov    %rsp,%rbp
    cae1:	48 89 7d f8          	mov    %rdi,-0x8(%rbp)
    cae5:	89 75 f4             	mov    %esi,-0xc(%rbp)
    cae8:	48 83 7d f8 00       	cmpq   $0x0,-0x8(%rbp)
    caed:	78 1d                	js     cb0c <safe_rshift_func_int64_t_s_s+0x33>
    caef:	83 7d f4 00          	cmpl   $0x0,-0xc(%rbp)
    caf3:	78 17                	js     cb0c <safe_rshift_func_int64_t_s_s+0x33>
    caf5:	83 7d f4 1f          	cmpl   $0x1f,-0xc(%rbp)
    caf9:	7f 11                	jg     cb0c <safe_rshift_func_int64_t_s_s+0x33>
    cafb:	8b 45 f4             	mov    -0xc(%rbp),%eax
    cafe:	48 8b 55 f8          	mov    -0x8(%rbp),%rdx
    cb02:	89 c1                	mov    %eax,%ecx
    cb04:	48 d3 fa             	sar    %cl,%rdx
    cb07:	48 89 d0             	mov    %rdx,%rax
    cb0a:	eb 04                	jmp    cb10 <safe_rshift_func_int64_t_s_s+0x37>
    cb0c:	48 8b 45 f8          	mov    -0x8(%rbp),%rax
    cb10:	5d                   	pop    %rbp
    cb11:	c3                   	retq   

000000000000cb12 <safe_rshift_func_int64_t_s_u>:
    cb12:	f3 0f 1e fa          	endbr64 
    cb16:	55                   	push   %rbp
    cb17:	48 89 e5             	mov    %rsp,%rbp
    cb1a:	48 89 7d f8          	mov    %rdi,-0x8(%rbp)
    cb1e:	89 75 f4             	mov    %esi,-0xc(%rbp)
    cb21:	48 83 7d f8 00       	cmpq   $0x0,-0x8(%rbp)
    cb26:	78 17                	js     cb3f <safe_rshift_func_int64_t_s_u+0x2d>
    cb28:	83 7d f4 1f          	cmpl   $0x1f,-0xc(%rbp)
    cb2c:	77 11                	ja     cb3f <safe_rshift_func_int64_t_s_u+0x2d>
    cb2e:	8b 45 f4             	mov    -0xc(%rbp),%eax
    cb31:	48 8b 55 f8          	mov    -0x8(%rbp),%rdx
    cb35:	89 c1                	mov    %eax,%ecx
    cb37:	48 d3 fa             	sar    %cl,%rdx
    cb3a:	48 89 d0             	mov    %rdx,%rax
    cb3d:	eb 04                	jmp    cb43 <safe_rshift_func_int64_t_s_u+0x31>
    cb3f:	48 8b 45 f8          	mov    -0x8(%rbp),%rax
    cb43:	5d                   	pop    %rbp
    cb44:	c3                   	retq   

000000000000cb45 <safe_unary_minus_func_uint8_t_u>:
    cb45:	f3 0f 1e fa          	endbr64 
    cb49:	55                   	push   %rbp
    cb4a:	48 89 e5             	mov    %rsp,%rbp
    cb4d:	89 f8                	mov    %edi,%eax
    cb4f:	88 45 fc             	mov    %al,-0x4(%rbp)
    cb52:	0f b6 45 fc          	movzbl -0x4(%rbp),%eax
    cb56:	f7 d8                	neg    %eax
    cb58:	5d                   	pop    %rbp
    cb59:	c3                   	retq   

000000000000cb5a <safe_add_func_uint8_t_u_u>:
    cb5a:	f3 0f 1e fa          	endbr64 
    cb5e:	55                   	push   %rbp
    cb5f:	48 89 e5             	mov    %rsp,%rbp
    cb62:	89 fa                	mov    %edi,%edx
    cb64:	89 f0                	mov    %esi,%eax
    cb66:	88 55 fc             	mov    %dl,-0x4(%rbp)
    cb69:	88 45 f8             	mov    %al,-0x8(%rbp)
    cb6c:	0f b6 55 fc          	movzbl -0x4(%rbp),%edx
    cb70:	0f b6 45 f8          	movzbl -0x8(%rbp),%eax
    cb74:	01 d0                	add    %edx,%eax
    cb76:	5d                   	pop    %rbp
    cb77:	c3                   	retq   

000000000000cb78 <safe_sub_func_uint8_t_u_u>:
    cb78:	f3 0f 1e fa          	endbr64 
    cb7c:	55                   	push   %rbp
    cb7d:	48 89 e5             	mov    %rsp,%rbp
    cb80:	89 fa                	mov    %edi,%edx
    cb82:	89 f0                	mov    %esi,%eax
    cb84:	88 55 fc             	mov    %dl,-0x4(%rbp)
    cb87:	88 45 f8             	mov    %al,-0x8(%rbp)
    cb8a:	0f b6 45 fc          	movzbl -0x4(%rbp),%eax
    cb8e:	2a 45 f8             	sub    -0x8(%rbp),%al
    cb91:	5d                   	pop    %rbp
    cb92:	c3                   	retq   

000000000000cb93 <safe_mul_func_uint8_t_u_u>:
    cb93:	f3 0f 1e fa          	endbr64 
    cb97:	55                   	push   %rbp
    cb98:	48 89 e5             	mov    %rsp,%rbp
    cb9b:	89 fa                	mov    %edi,%edx
    cb9d:	89 f0                	mov    %esi,%eax
    cb9f:	88 55 fc             	mov    %dl,-0x4(%rbp)
    cba2:	88 45 f8             	mov    %al,-0x8(%rbp)
    cba5:	0f b6 45 fc          	movzbl -0x4(%rbp),%eax
    cba9:	f6 65 f8             	mulb   -0x8(%rbp)
    cbac:	5d                   	pop    %rbp
    cbad:	c3                   	retq   

000000000000cbae <safe_mod_func_uint8_t_u_u>:
    cbae:	f3 0f 1e fa          	endbr64 
    cbb2:	55                   	push   %rbp
    cbb3:	48 89 e5             	mov    %rsp,%rbp
    cbb6:	89 fa                	mov    %edi,%edx
    cbb8:	89 f0                	mov    %esi,%eax
    cbba:	88 55 fc             	mov    %dl,-0x4(%rbp)
    cbbd:	88 45 f8             	mov    %al,-0x8(%rbp)
    cbc0:	80 7d f8 00          	cmpb   $0x0,-0x8(%rbp)
    cbc4:	74 0f                	je     cbd5 <safe_mod_func_uint8_t_u_u+0x27>
    cbc6:	0f b6 45 fc          	movzbl -0x4(%rbp),%eax
    cbca:	0f b6 c0             	movzbl %al,%eax
    cbcd:	f6 75 f8             	divb   -0x8(%rbp)
    cbd0:	0f b6 c4             	movzbl %ah,%eax
    cbd3:	eb 04                	jmp    cbd9 <safe_mod_func_uint8_t_u_u+0x2b>
    cbd5:	0f b6 45 fc          	movzbl -0x4(%rbp),%eax
    cbd9:	5d                   	pop    %rbp
    cbda:	c3                   	retq   

000000000000cbdb <safe_div_func_uint8_t_u_u>:
    cbdb:	f3 0f 1e fa          	endbr64 
    cbdf:	55                   	push   %rbp
    cbe0:	48 89 e5             	mov    %rsp,%rbp
    cbe3:	89 fa                	mov    %edi,%edx
    cbe5:	89 f0                	mov    %esi,%eax
    cbe7:	88 55 fc             	mov    %dl,-0x4(%rbp)
    cbea:	88 45 f8             	mov    %al,-0x8(%rbp)
    cbed:	80 7d f8 00          	cmpb   $0x0,-0x8(%rbp)
    cbf1:	74 0c                	je     cbff <safe_div_func_uint8_t_u_u+0x24>
    cbf3:	0f b6 45 fc          	movzbl -0x4(%rbp),%eax
    cbf7:	0f b6 c0             	movzbl %al,%eax
    cbfa:	f6 75 f8             	divb   -0x8(%rbp)
    cbfd:	eb 04                	jmp    cc03 <safe_div_func_uint8_t_u_u+0x28>
    cbff:	0f b6 45 fc          	movzbl -0x4(%rbp),%eax
    cc03:	5d                   	pop    %rbp
    cc04:	c3                   	retq   

000000000000cc05 <safe_lshift_func_uint8_t_u_s>:
    cc05:	f3 0f 1e fa          	endbr64 
    cc09:	55                   	push   %rbp
    cc0a:	48 89 e5             	mov    %rsp,%rbp
    cc0d:	89 f8                	mov    %edi,%eax
    cc0f:	89 75 f8             	mov    %esi,-0x8(%rbp)
    cc12:	88 45 fc             	mov    %al,-0x4(%rbp)
    cc15:	83 7d f8 00          	cmpl   $0x0,-0x8(%rbp)
    cc19:	78 2b                	js     cc46 <safe_lshift_func_uint8_t_u_s+0x41>
    cc1b:	83 7d f8 1f          	cmpl   $0x1f,-0x8(%rbp)
    cc1f:	7f 25                	jg     cc46 <safe_lshift_func_uint8_t_u_s+0x41>
    cc21:	0f b6 55 fc          	movzbl -0x4(%rbp),%edx
    cc25:	8b 45 f8             	mov    -0x8(%rbp),%eax
    cc28:	be ff 00 00 00       	mov    $0xff,%esi
    cc2d:	89 c1                	mov    %eax,%ecx
    cc2f:	d3 fe                	sar    %cl,%esi
    cc31:	89 f0                	mov    %esi,%eax
    cc33:	39 c2                	cmp    %eax,%edx
    cc35:	7f 0f                	jg     cc46 <safe_lshift_func_uint8_t_u_s+0x41>
    cc37:	0f b6 55 fc          	movzbl -0x4(%rbp),%edx
    cc3b:	8b 45 f8             	mov    -0x8(%rbp),%eax
    cc3e:	89 c1                	mov    %eax,%ecx
    cc40:	d3 e2                	shl    %cl,%edx
    cc42:	89 d0                	mov    %edx,%eax
    cc44:	eb 04                	jmp    cc4a <safe_lshift_func_uint8_t_u_s+0x45>
    cc46:	0f b6 45 fc          	movzbl -0x4(%rbp),%eax
    cc4a:	5d                   	pop    %rbp
    cc4b:	c3                   	retq   

000000000000cc4c <safe_lshift_func_uint8_t_u_u>:
    cc4c:	f3 0f 1e fa          	endbr64 
    cc50:	55                   	push   %rbp
    cc51:	48 89 e5             	mov    %rsp,%rbp
    cc54:	89 f8                	mov    %edi,%eax
    cc56:	89 75 f8             	mov    %esi,-0x8(%rbp)
    cc59:	88 45 fc             	mov    %al,-0x4(%rbp)
    cc5c:	83 7d f8 1f          	cmpl   $0x1f,-0x8(%rbp)
    cc60:	77 25                	ja     cc87 <safe_lshift_func_uint8_t_u_u+0x3b>
    cc62:	0f b6 55 fc          	movzbl -0x4(%rbp),%edx
    cc66:	8b 45 f8             	mov    -0x8(%rbp),%eax
    cc69:	be ff 00 00 00       	mov    $0xff,%esi
    cc6e:	89 c1                	mov    %eax,%ecx
    cc70:	d3 fe                	sar    %cl,%esi
    cc72:	89 f0                	mov    %esi,%eax
    cc74:	39 c2                	cmp    %eax,%edx
    cc76:	7f 0f                	jg     cc87 <safe_lshift_func_uint8_t_u_u+0x3b>
    cc78:	0f b6 55 fc          	movzbl -0x4(%rbp),%edx
    cc7c:	8b 45 f8             	mov    -0x8(%rbp),%eax
    cc7f:	89 c1                	mov    %eax,%ecx
    cc81:	d3 e2                	shl    %cl,%edx
    cc83:	89 d0                	mov    %edx,%eax
    cc85:	eb 04                	jmp    cc8b <safe_lshift_func_uint8_t_u_u+0x3f>
    cc87:	0f b6 45 fc          	movzbl -0x4(%rbp),%eax
    cc8b:	5d                   	pop    %rbp
    cc8c:	c3                   	retq   

000000000000cc8d <safe_rshift_func_uint8_t_u_s>:
    cc8d:	f3 0f 1e fa          	endbr64 
    cc91:	55                   	push   %rbp
    cc92:	48 89 e5             	mov    %rsp,%rbp
    cc95:	89 f8                	mov    %edi,%eax
    cc97:	89 75 f8             	mov    %esi,-0x8(%rbp)
    cc9a:	88 45 fc             	mov    %al,-0x4(%rbp)
    cc9d:	83 7d f8 00          	cmpl   $0x0,-0x8(%rbp)
    cca1:	78 15                	js     ccb8 <safe_rshift_func_uint8_t_u_s+0x2b>
    cca3:	83 7d f8 1f          	cmpl   $0x1f,-0x8(%rbp)
    cca7:	7f 0f                	jg     ccb8 <safe_rshift_func_uint8_t_u_s+0x2b>
    cca9:	0f b6 55 fc          	movzbl -0x4(%rbp),%edx
    ccad:	8b 45 f8             	mov    -0x8(%rbp),%eax
    ccb0:	89 c1                	mov    %eax,%ecx
    ccb2:	d3 fa                	sar    %cl,%edx
    ccb4:	89 d0                	mov    %edx,%eax
    ccb6:	eb 04                	jmp    ccbc <safe_rshift_func_uint8_t_u_s+0x2f>
    ccb8:	0f b6 45 fc          	movzbl -0x4(%rbp),%eax
    ccbc:	5d                   	pop    %rbp
    ccbd:	c3                   	retq   

000000000000ccbe <safe_rshift_func_uint8_t_u_u>:
    ccbe:	f3 0f 1e fa          	endbr64 
    ccc2:	55                   	push   %rbp
    ccc3:	48 89 e5             	mov    %rsp,%rbp
    ccc6:	89 f8                	mov    %edi,%eax
    ccc8:	89 75 f8             	mov    %esi,-0x8(%rbp)
    cccb:	88 45 fc             	mov    %al,-0x4(%rbp)
    ccce:	83 7d f8 1f          	cmpl   $0x1f,-0x8(%rbp)
    ccd2:	77 0f                	ja     cce3 <safe_rshift_func_uint8_t_u_u+0x25>
    ccd4:	0f b6 55 fc          	movzbl -0x4(%rbp),%edx
    ccd8:	8b 45 f8             	mov    -0x8(%rbp),%eax
    ccdb:	89 c1                	mov    %eax,%ecx
    ccdd:	d3 fa                	sar    %cl,%edx
    ccdf:	89 d0                	mov    %edx,%eax
    cce1:	eb 04                	jmp    cce7 <safe_rshift_func_uint8_t_u_u+0x29>
    cce3:	0f b6 45 fc          	movzbl -0x4(%rbp),%eax
    cce7:	5d                   	pop    %rbp
    cce8:	c3                   	retq   

000000000000cce9 <safe_unary_minus_func_uint16_t_u>:
    cce9:	f3 0f 1e fa          	endbr64 
    cced:	55                   	push   %rbp
    ccee:	48 89 e5             	mov    %rsp,%rbp
    ccf1:	89 f8                	mov    %edi,%eax
    ccf3:	66 89 45 fc          	mov    %ax,-0x4(%rbp)
    ccf7:	0f b7 45 fc          	movzwl -0x4(%rbp),%eax
    ccfb:	f7 d8                	neg    %eax
    ccfd:	5d                   	pop    %rbp
    ccfe:	c3                   	retq   

000000000000ccff <safe_add_func_uint16_t_u_u>:
    ccff:	f3 0f 1e fa          	endbr64 
    cd03:	55                   	push   %rbp
    cd04:	48 89 e5             	mov    %rsp,%rbp
    cd07:	89 fa                	mov    %edi,%edx
    cd09:	89 f0                	mov    %esi,%eax
    cd0b:	66 89 55 fc          	mov    %dx,-0x4(%rbp)
    cd0f:	66 89 45 f8          	mov    %ax,-0x8(%rbp)
    cd13:	0f b7 55 fc          	movzwl -0x4(%rbp),%edx
    cd17:	0f b7 45 f8          	movzwl -0x8(%rbp),%eax
    cd1b:	01 d0                	add    %edx,%eax
    cd1d:	5d                   	pop    %rbp
    cd1e:	c3                   	retq   

000000000000cd1f <safe_sub_func_uint16_t_u_u>:
    cd1f:	f3 0f 1e fa          	endbr64 
    cd23:	55                   	push   %rbp
    cd24:	48 89 e5             	mov    %rsp,%rbp
    cd27:	89 fa                	mov    %edi,%edx
    cd29:	89 f0                	mov    %esi,%eax
    cd2b:	66 89 55 fc          	mov    %dx,-0x4(%rbp)
    cd2f:	66 89 45 f8          	mov    %ax,-0x8(%rbp)
    cd33:	0f b7 45 fc          	movzwl -0x4(%rbp),%eax
    cd37:	66 2b 45 f8          	sub    -0x8(%rbp),%ax
    cd3b:	5d                   	pop    %rbp
    cd3c:	c3                   	retq   

000000000000cd3d <safe_mul_func_uint16_t_u_u>:
    cd3d:	f3 0f 1e fa          	endbr64 
    cd41:	55                   	push   %rbp
    cd42:	48 89 e5             	mov    %rsp,%rbp
    cd45:	89 fa                	mov    %edi,%edx
    cd47:	89 f0                	mov    %esi,%eax
    cd49:	66 89 55 fc          	mov    %dx,-0x4(%rbp)
    cd4d:	66 89 45 f8          	mov    %ax,-0x8(%rbp)
    cd51:	0f b7 45 fc          	movzwl -0x4(%rbp),%eax
    cd55:	66 0f af 45 f8       	imul   -0x8(%rbp),%ax
    cd5a:	5d                   	pop    %rbp
    cd5b:	c3                   	retq   

000000000000cd5c <safe_mod_func_uint16_t_u_u>:
    cd5c:	f3 0f 1e fa          	endbr64 
    cd60:	55                   	push   %rbp
    cd61:	48 89 e5             	mov    %rsp,%rbp
    cd64:	89 fa                	mov    %edi,%edx
    cd66:	89 f0                	mov    %esi,%eax
    cd68:	66 89 55 fc          	mov    %dx,-0x4(%rbp)
    cd6c:	66 89 45 f8          	mov    %ax,-0x8(%rbp)
    cd70:	66 83 7d f8 00       	cmpw   $0x0,-0x8(%rbp)
    cd75:	74 11                	je     cd88 <safe_mod_func_uint16_t_u_u+0x2c>
    cd77:	0f b7 45 fc          	movzwl -0x4(%rbp),%eax
    cd7b:	ba 00 00 00 00       	mov    $0x0,%edx
    cd80:	66 f7 75 f8          	divw   -0x8(%rbp)
    cd84:	89 d0                	mov    %edx,%eax
    cd86:	eb 04                	jmp    cd8c <safe_mod_func_uint16_t_u_u+0x30>
    cd88:	0f b7 45 fc          	movzwl -0x4(%rbp),%eax
    cd8c:	5d                   	pop    %rbp
    cd8d:	c3                   	retq   

000000000000cd8e <safe_div_func_uint16_t_u_u>:
    cd8e:	f3 0f 1e fa          	endbr64 
    cd92:	55                   	push   %rbp
    cd93:	48 89 e5             	mov    %rsp,%rbp
    cd96:	89 fa                	mov    %edi,%edx
    cd98:	89 f0                	mov    %esi,%eax
    cd9a:	66 89 55 fc          	mov    %dx,-0x4(%rbp)
    cd9e:	66 89 45 f8          	mov    %ax,-0x8(%rbp)
    cda2:	66 83 7d f8 00       	cmpw   $0x0,-0x8(%rbp)
    cda7:	74 0f                	je     cdb8 <safe_div_func_uint16_t_u_u+0x2a>
    cda9:	0f b7 45 fc          	movzwl -0x4(%rbp),%eax
    cdad:	ba 00 00 00 00       	mov    $0x0,%edx
    cdb2:	66 f7 75 f8          	divw   -0x8(%rbp)
    cdb6:	eb 04                	jmp    cdbc <safe_div_func_uint16_t_u_u+0x2e>
    cdb8:	0f b7 45 fc          	movzwl -0x4(%rbp),%eax
    cdbc:	5d                   	pop    %rbp
    cdbd:	c3                   	retq   

000000000000cdbe <safe_lshift_func_uint16_t_u_s>:
    cdbe:	f3 0f 1e fa          	endbr64 
    cdc2:	55                   	push   %rbp
    cdc3:	48 89 e5             	mov    %rsp,%rbp
    cdc6:	89 f8                	mov    %edi,%eax
    cdc8:	89 75 f8             	mov    %esi,-0x8(%rbp)
    cdcb:	66 89 45 fc          	mov    %ax,-0x4(%rbp)
    cdcf:	83 7d f8 00          	cmpl   $0x0,-0x8(%rbp)
    cdd3:	78 2b                	js     ce00 <safe_lshift_func_uint16_t_u_s+0x42>
    cdd5:	83 7d f8 1f          	cmpl   $0x1f,-0x8(%rbp)
    cdd9:	7f 25                	jg     ce00 <safe_lshift_func_uint16_t_u_s+0x42>
    cddb:	0f b7 55 fc          	movzwl -0x4(%rbp),%edx
    cddf:	8b 45 f8             	mov    -0x8(%rbp),%eax
    cde2:	be ff ff 00 00       	mov    $0xffff,%esi
    cde7:	89 c1                	mov    %eax,%ecx
    cde9:	d3 fe                	sar    %cl,%esi
    cdeb:	89 f0                	mov    %esi,%eax
    cded:	39 c2                	cmp    %eax,%edx
    cdef:	7f 0f                	jg     ce00 <safe_lshift_func_uint16_t_u_s+0x42>
    cdf1:	0f b7 55 fc          	movzwl -0x4(%rbp),%edx
    cdf5:	8b 45 f8             	mov    -0x8(%rbp),%eax
    cdf8:	89 c1                	mov    %eax,%ecx
    cdfa:	d3 e2                	shl    %cl,%edx
    cdfc:	89 d0                	mov    %edx,%eax
    cdfe:	eb 04                	jmp    ce04 <safe_lshift_func_uint16_t_u_s+0x46>
    ce00:	0f b7 45 fc          	movzwl -0x4(%rbp),%eax
    ce04:	5d                   	pop    %rbp
    ce05:	c3                   	retq   

000000000000ce06 <safe_lshift_func_uint16_t_u_u>:
    ce06:	f3 0f 1e fa          	endbr64 
    ce0a:	55                   	push   %rbp
    ce0b:	48 89 e5             	mov    %rsp,%rbp
    ce0e:	89 f8                	mov    %edi,%eax
    ce10:	89 75 f8             	mov    %esi,-0x8(%rbp)
    ce13:	66 89 45 fc          	mov    %ax,-0x4(%rbp)
    ce17:	83 7d f8 1f          	cmpl   $0x1f,-0x8(%rbp)
    ce1b:	77 25                	ja     ce42 <safe_lshift_func_uint16_t_u_u+0x3c>
    ce1d:	0f b7 55 fc          	movzwl -0x4(%rbp),%edx
    ce21:	8b 45 f8             	mov    -0x8(%rbp),%eax
    ce24:	be ff ff 00 00       	mov    $0xffff,%esi
    ce29:	89 c1                	mov    %eax,%ecx
    ce2b:	d3 fe                	sar    %cl,%esi
    ce2d:	89 f0                	mov    %esi,%eax
    ce2f:	39 c2                	cmp    %eax,%edx
    ce31:	7f 0f                	jg     ce42 <safe_lshift_func_uint16_t_u_u+0x3c>
    ce33:	0f b7 55 fc          	movzwl -0x4(%rbp),%edx
    ce37:	8b 45 f8             	mov    -0x8(%rbp),%eax
    ce3a:	89 c1                	mov    %eax,%ecx
    ce3c:	d3 e2                	shl    %cl,%edx
    ce3e:	89 d0                	mov    %edx,%eax
    ce40:	eb 04                	jmp    ce46 <safe_lshift_func_uint16_t_u_u+0x40>
    ce42:	0f b7 45 fc          	movzwl -0x4(%rbp),%eax
    ce46:	5d                   	pop    %rbp
    ce47:	c3                   	retq   

000000000000ce48 <safe_rshift_func_uint16_t_u_s>:
    ce48:	f3 0f 1e fa          	endbr64 
    ce4c:	55                   	push   %rbp
    ce4d:	48 89 e5             	mov    %rsp,%rbp
    ce50:	89 f8                	mov    %edi,%eax
    ce52:	89 75 f8             	mov    %esi,-0x8(%rbp)
    ce55:	66 89 45 fc          	mov    %ax,-0x4(%rbp)
    ce59:	83 7d f8 00          	cmpl   $0x0,-0x8(%rbp)
    ce5d:	78 15                	js     ce74 <safe_rshift_func_uint16_t_u_s+0x2c>
    ce5f:	83 7d f8 1f          	cmpl   $0x1f,-0x8(%rbp)
    ce63:	7f 0f                	jg     ce74 <safe_rshift_func_uint16_t_u_s+0x2c>
    ce65:	0f b7 55 fc          	movzwl -0x4(%rbp),%edx
    ce69:	8b 45 f8             	mov    -0x8(%rbp),%eax
    ce6c:	89 c1                	mov    %eax,%ecx
    ce6e:	d3 fa                	sar    %cl,%edx
    ce70:	89 d0                	mov    %edx,%eax
    ce72:	eb 04                	jmp    ce78 <safe_rshift_func_uint16_t_u_s+0x30>
    ce74:	0f b7 45 fc          	movzwl -0x4(%rbp),%eax
    ce78:	5d                   	pop    %rbp
    ce79:	c3                   	retq   

000000000000ce7a <safe_rshift_func_uint16_t_u_u>:
    ce7a:	f3 0f 1e fa          	endbr64 
    ce7e:	55                   	push   %rbp
    ce7f:	48 89 e5             	mov    %rsp,%rbp
    ce82:	89 f8                	mov    %edi,%eax
    ce84:	89 75 f8             	mov    %esi,-0x8(%rbp)
    ce87:	66 89 45 fc          	mov    %ax,-0x4(%rbp)
    ce8b:	83 7d f8 1f          	cmpl   $0x1f,-0x8(%rbp)
    ce8f:	77 0f                	ja     cea0 <safe_rshift_func_uint16_t_u_u+0x26>
    ce91:	0f b7 55 fc          	movzwl -0x4(%rbp),%edx
    ce95:	8b 45 f8             	mov    -0x8(%rbp),%eax
    ce98:	89 c1                	mov    %eax,%ecx
    ce9a:	d3 fa                	sar    %cl,%edx
    ce9c:	89 d0                	mov    %edx,%eax
    ce9e:	eb 04                	jmp    cea4 <safe_rshift_func_uint16_t_u_u+0x2a>
    cea0:	0f b7 45 fc          	movzwl -0x4(%rbp),%eax
    cea4:	5d                   	pop    %rbp
    cea5:	c3                   	retq   

000000000000cea6 <safe_unary_minus_func_uint32_t_u>:
    cea6:	f3 0f 1e fa          	endbr64 
    ceaa:	55                   	push   %rbp
    ceab:	48 89 e5             	mov    %rsp,%rbp
    ceae:	89 7d fc             	mov    %edi,-0x4(%rbp)
    ceb1:	8b 45 fc             	mov    -0x4(%rbp),%eax
    ceb4:	f7 d8                	neg    %eax
    ceb6:	5d                   	pop    %rbp
    ceb7:	c3                   	retq   

000000000000ceb8 <safe_add_func_uint32_t_u_u>:
    ceb8:	f3 0f 1e fa          	endbr64 
    cebc:	55                   	push   %rbp
    cebd:	48 89 e5             	mov    %rsp,%rbp
    cec0:	89 7d fc             	mov    %edi,-0x4(%rbp)
    cec3:	89 75 f8             	mov    %esi,-0x8(%rbp)
    cec6:	8b 55 fc             	mov    -0x4(%rbp),%edx
    cec9:	8b 45 f8             	mov    -0x8(%rbp),%eax
    cecc:	01 d0                	add    %edx,%eax
    cece:	5d                   	pop    %rbp
    cecf:	c3                   	retq   

000000000000ced0 <safe_sub_func_uint32_t_u_u>:
    ced0:	f3 0f 1e fa          	endbr64 
    ced4:	55                   	push   %rbp
    ced5:	48 89 e5             	mov    %rsp,%rbp
    ced8:	89 7d fc             	mov    %edi,-0x4(%rbp)
    cedb:	89 75 f8             	mov    %esi,-0x8(%rbp)
    cede:	8b 45 fc             	mov    -0x4(%rbp),%eax
    cee1:	2b 45 f8             	sub    -0x8(%rbp),%eax
    cee4:	5d                   	pop    %rbp
    cee5:	c3                   	retq   

000000000000cee6 <safe_mul_func_uint32_t_u_u>:
    cee6:	f3 0f 1e fa          	endbr64 
    ceea:	55                   	push   %rbp
    ceeb:	48 89 e5             	mov    %rsp,%rbp
    ceee:	89 7d fc             	mov    %edi,-0x4(%rbp)
    cef1:	89 75 f8             	mov    %esi,-0x8(%rbp)
    cef4:	8b 45 fc             	mov    -0x4(%rbp),%eax
    cef7:	0f af 45 f8          	imul   -0x8(%rbp),%eax
    cefb:	5d                   	pop    %rbp
    cefc:	c3                   	retq   

000000000000cefd <safe_mod_func_uint32_t_u_u>:
    cefd:	f3 0f 1e fa          	endbr64 
    cf01:	55                   	push   %rbp
    cf02:	48 89 e5             	mov    %rsp,%rbp
    cf05:	89 7d fc             	mov    %edi,-0x4(%rbp)
    cf08:	89 75 f8             	mov    %esi,-0x8(%rbp)
    cf0b:	83 7d f8 00          	cmpl   $0x0,-0x8(%rbp)
    cf0f:	74 0f                	je     cf20 <safe_mod_func_uint32_t_u_u+0x23>
    cf11:	8b 45 fc             	mov    -0x4(%rbp),%eax
    cf14:	ba 00 00 00 00       	mov    $0x0,%edx
    cf19:	f7 75 f8             	divl   -0x8(%rbp)
    cf1c:	89 d0                	mov    %edx,%eax
    cf1e:	eb 03                	jmp    cf23 <safe_mod_func_uint32_t_u_u+0x26>
    cf20:	8b 45 fc             	mov    -0x4(%rbp),%eax
    cf23:	5d                   	pop    %rbp
    cf24:	c3                   	retq   

000000000000cf25 <safe_div_func_uint32_t_u_u>:
    cf25:	f3 0f 1e fa          	endbr64 
    cf29:	55                   	push   %rbp
    cf2a:	48 89 e5             	mov    %rsp,%rbp
    cf2d:	89 7d fc             	mov    %edi,-0x4(%rbp)
    cf30:	89 75 f8             	mov    %esi,-0x8(%rbp)
    cf33:	83 7d f8 00          	cmpl   $0x0,-0x8(%rbp)
    cf37:	74 0d                	je     cf46 <safe_div_func_uint32_t_u_u+0x21>
    cf39:	8b 45 fc             	mov    -0x4(%rbp),%eax
    cf3c:	ba 00 00 00 00       	mov    $0x0,%edx
    cf41:	f7 75 f8             	divl   -0x8(%rbp)
    cf44:	eb 03                	jmp    cf49 <safe_div_func_uint32_t_u_u+0x24>
    cf46:	8b 45 fc             	mov    -0x4(%rbp),%eax
    cf49:	5d                   	pop    %rbp
    cf4a:	c3                   	retq   

000000000000cf4b <safe_lshift_func_uint32_t_u_s>:
    cf4b:	f3 0f 1e fa          	endbr64 
    cf4f:	55                   	push   %rbp
    cf50:	48 89 e5             	mov    %rsp,%rbp
    cf53:	89 7d fc             	mov    %edi,-0x4(%rbp)
    cf56:	89 75 f8             	mov    %esi,-0x8(%rbp)
    cf59:	83 7d f8 00          	cmpl   $0x0,-0x8(%rbp)
    cf5d:	78 27                	js     cf86 <safe_lshift_func_uint32_t_u_s+0x3b>
    cf5f:	83 7d f8 1f          	cmpl   $0x1f,-0x8(%rbp)
    cf63:	7f 21                	jg     cf86 <safe_lshift_func_uint32_t_u_s+0x3b>
    cf65:	8b 45 f8             	mov    -0x8(%rbp),%eax
    cf68:	ba ff ff ff ff       	mov    $0xffffffff,%edx
    cf6d:	89 c1                	mov    %eax,%ecx
    cf6f:	d3 ea                	shr    %cl,%edx
    cf71:	89 d0                	mov    %edx,%eax
    cf73:	39 45 fc             	cmp    %eax,-0x4(%rbp)
    cf76:	77 0e                	ja     cf86 <safe_lshift_func_uint32_t_u_s+0x3b>
    cf78:	8b 45 f8             	mov    -0x8(%rbp),%eax
    cf7b:	8b 55 fc             	mov    -0x4(%rbp),%edx
    cf7e:	89 c1                	mov    %eax,%ecx
    cf80:	d3 e2                	shl    %cl,%edx
    cf82:	89 d0                	mov    %edx,%eax
    cf84:	eb 03                	jmp    cf89 <safe_lshift_func_uint32_t_u_s+0x3e>
    cf86:	8b 45 fc             	mov    -0x4(%rbp),%eax
    cf89:	5d                   	pop    %rbp
    cf8a:	c3                   	retq   

000000000000cf8b <safe_lshift_func_uint32_t_u_u>:
    cf8b:	f3 0f 1e fa          	endbr64 
    cf8f:	55                   	push   %rbp
    cf90:	48 89 e5             	mov    %rsp,%rbp
    cf93:	89 7d fc             	mov    %edi,-0x4(%rbp)
    cf96:	89 75 f8             	mov    %esi,-0x8(%rbp)
    cf99:	83 7d f8 1f          	cmpl   $0x1f,-0x8(%rbp)
    cf9d:	77 21                	ja     cfc0 <safe_lshift_func_uint32_t_u_u+0x35>
    cf9f:	8b 45 f8             	mov    -0x8(%rbp),%eax
    cfa2:	ba ff ff ff ff       	mov    $0xffffffff,%edx
    cfa7:	89 c1                	mov    %eax,%ecx
    cfa9:	d3 ea                	shr    %cl,%edx
    cfab:	89 d0                	mov    %edx,%eax
    cfad:	39 45 fc             	cmp    %eax,-0x4(%rbp)
    cfb0:	77 0e                	ja     cfc0 <safe_lshift_func_uint32_t_u_u+0x35>
    cfb2:	8b 45 f8             	mov    -0x8(%rbp),%eax
    cfb5:	8b 55 fc             	mov    -0x4(%rbp),%edx
    cfb8:	89 c1                	mov    %eax,%ecx
    cfba:	d3 e2                	shl    %cl,%edx
    cfbc:	89 d0                	mov    %edx,%eax
    cfbe:	eb 03                	jmp    cfc3 <safe_lshift_func_uint32_t_u_u+0x38>
    cfc0:	8b 45 fc             	mov    -0x4(%rbp),%eax
    cfc3:	5d                   	pop    %rbp
    cfc4:	c3                   	retq   

000000000000cfc5 <safe_rshift_func_uint32_t_u_s>:
    cfc5:	f3 0f 1e fa          	endbr64 
    cfc9:	55                   	push   %rbp
    cfca:	48 89 e5             	mov    %rsp,%rbp
    cfcd:	89 7d fc             	mov    %edi,-0x4(%rbp)
    cfd0:	89 75 f8             	mov    %esi,-0x8(%rbp)
    cfd3:	83 7d f8 00          	cmpl   $0x0,-0x8(%rbp)
    cfd7:	78 14                	js     cfed <safe_rshift_func_uint32_t_u_s+0x28>
    cfd9:	83 7d f8 1f          	cmpl   $0x1f,-0x8(%rbp)
    cfdd:	7f 0e                	jg     cfed <safe_rshift_func_uint32_t_u_s+0x28>
    cfdf:	8b 45 f8             	mov    -0x8(%rbp),%eax
    cfe2:	8b 55 fc             	mov    -0x4(%rbp),%edx
    cfe5:	89 c1                	mov    %eax,%ecx
    cfe7:	d3 ea                	shr    %cl,%edx
    cfe9:	89 d0                	mov    %edx,%eax
    cfeb:	eb 03                	jmp    cff0 <safe_rshift_func_uint32_t_u_s+0x2b>
    cfed:	8b 45 fc             	mov    -0x4(%rbp),%eax
    cff0:	5d                   	pop    %rbp
    cff1:	c3                   	retq   

000000000000cff2 <safe_rshift_func_uint32_t_u_u>:
    cff2:	f3 0f 1e fa          	endbr64 
    cff6:	55                   	push   %rbp
    cff7:	48 89 e5             	mov    %rsp,%rbp
    cffa:	89 7d fc             	mov    %edi,-0x4(%rbp)
    cffd:	89 75 f8             	mov    %esi,-0x8(%rbp)
    d000:	83 7d f8 1f          	cmpl   $0x1f,-0x8(%rbp)
    d004:	77 0e                	ja     d014 <safe_rshift_func_uint32_t_u_u+0x22>
    d006:	8b 45 f8             	mov    -0x8(%rbp),%eax
    d009:	8b 55 fc             	mov    -0x4(%rbp),%edx
    d00c:	89 c1                	mov    %eax,%ecx
    d00e:	d3 ea                	shr    %cl,%edx
    d010:	89 d0                	mov    %edx,%eax
    d012:	eb 03                	jmp    d017 <safe_rshift_func_uint32_t_u_u+0x25>
    d014:	8b 45 fc             	mov    -0x4(%rbp),%eax
    d017:	5d                   	pop    %rbp
    d018:	c3                   	retq   

000000000000d019 <safe_unary_minus_func_uint64_t_u>:
    d019:	f3 0f 1e fa          	endbr64 
    d01d:	55                   	push   %rbp
    d01e:	48 89 e5             	mov    %rsp,%rbp
    d021:	48 89 7d f8          	mov    %rdi,-0x8(%rbp)
    d025:	48 8b 45 f8          	mov    -0x8(%rbp),%rax
    d029:	48 f7 d8             	neg    %rax
    d02c:	5d                   	pop    %rbp
    d02d:	c3                   	retq   

000000000000d02e <safe_add_func_uint64_t_u_u>:
    d02e:	f3 0f 1e fa          	endbr64 
    d032:	55                   	push   %rbp
    d033:	48 89 e5             	mov    %rsp,%rbp
    d036:	48 89 7d f8          	mov    %rdi,-0x8(%rbp)
    d03a:	48 89 75 f0          	mov    %rsi,-0x10(%rbp)
    d03e:	48 8b 55 f8          	mov    -0x8(%rbp),%rdx
    d042:	48 8b 45 f0          	mov    -0x10(%rbp),%rax
    d046:	48 01 d0             	add    %rdx,%rax
    d049:	5d                   	pop    %rbp
    d04a:	c3                   	retq   

000000000000d04b <safe_sub_func_uint64_t_u_u>:
    d04b:	f3 0f 1e fa          	endbr64 
    d04f:	55                   	push   %rbp
    d050:	48 89 e5             	mov    %rsp,%rbp
    d053:	48 89 7d f8          	mov    %rdi,-0x8(%rbp)
    d057:	48 89 75 f0          	mov    %rsi,-0x10(%rbp)
    d05b:	48 8b 45 f8          	mov    -0x8(%rbp),%rax
    d05f:	48 2b 45 f0          	sub    -0x10(%rbp),%rax
    d063:	5d                   	pop    %rbp
    d064:	c3                   	retq   

000000000000d065 <safe_mul_func_uint64_t_u_u>:
    d065:	f3 0f 1e fa          	endbr64 
    d069:	55                   	push   %rbp
    d06a:	48 89 e5             	mov    %rsp,%rbp
    d06d:	48 89 7d f8          	mov    %rdi,-0x8(%rbp)
    d071:	48 89 75 f0          	mov    %rsi,-0x10(%rbp)
    d075:	48 8b 45 f8          	mov    -0x8(%rbp),%rax
    d079:	48 0f af 45 f0       	imul   -0x10(%rbp),%rax
    d07e:	5d                   	pop    %rbp
    d07f:	c3                   	retq   

000000000000d080 <safe_mod_func_uint64_t_u_u>:
    d080:	f3 0f 1e fa          	endbr64 
    d084:	55                   	push   %rbp
    d085:	48 89 e5             	mov    %rsp,%rbp
    d088:	48 89 7d f8          	mov    %rdi,-0x8(%rbp)
    d08c:	48 89 75 f0          	mov    %rsi,-0x10(%rbp)
    d090:	48 83 7d f0 00       	cmpq   $0x0,-0x10(%rbp)
    d095:	74 12                	je     d0a9 <safe_mod_func_uint64_t_u_u+0x29>
    d097:	48 8b 45 f8          	mov    -0x8(%rbp),%rax
    d09b:	ba 00 00 00 00       	mov    $0x0,%edx
    d0a0:	48 f7 75 f0          	divq   -0x10(%rbp)
    d0a4:	48 89 d0             	mov    %rdx,%rax
    d0a7:	eb 04                	jmp    d0ad <safe_mod_func_uint64_t_u_u+0x2d>
    d0a9:	48 8b 45 f8          	mov    -0x8(%rbp),%rax
    d0ad:	5d                   	pop    %rbp
    d0ae:	c3                   	retq   

000000000000d0af <safe_div_func_uint64_t_u_u>:
    d0af:	f3 0f 1e fa          	endbr64 
    d0b3:	55                   	push   %rbp
    d0b4:	48 89 e5             	mov    %rsp,%rbp
    d0b7:	48 89 7d f8          	mov    %rdi,-0x8(%rbp)
    d0bb:	48 89 75 f0          	mov    %rsi,-0x10(%rbp)
    d0bf:	48 83 7d f0 00       	cmpq   $0x0,-0x10(%rbp)
    d0c4:	74 0f                	je     d0d5 <safe_div_func_uint64_t_u_u+0x26>
    d0c6:	48 8b 45 f8          	mov    -0x8(%rbp),%rax
    d0ca:	ba 00 00 00 00       	mov    $0x0,%edx
    d0cf:	48 f7 75 f0          	divq   -0x10(%rbp)
    d0d3:	eb 04                	jmp    d0d9 <safe_div_func_uint64_t_u_u+0x2a>
    d0d5:	48 8b 45 f8          	mov    -0x8(%rbp),%rax
    d0d9:	5d                   	pop    %rbp
    d0da:	c3                   	retq   

000000000000d0db <safe_lshift_func_uint64_t_u_s>:
    d0db:	f3 0f 1e fa          	endbr64 
    d0df:	55                   	push   %rbp
    d0e0:	48 89 e5             	mov    %rsp,%rbp
    d0e3:	48 89 7d f8          	mov    %rdi,-0x8(%rbp)
    d0e7:	89 75 f4             	mov    %esi,-0xc(%rbp)
    d0ea:	83 7d f4 00          	cmpl   $0x0,-0xc(%rbp)
    d0ee:	78 2f                	js     d11f <safe_lshift_func_uint64_t_u_s+0x44>
    d0f0:	83 7d f4 1f          	cmpl   $0x1f,-0xc(%rbp)
    d0f4:	7f 29                	jg     d11f <safe_lshift_func_uint64_t_u_s+0x44>
    d0f6:	8b 45 f4             	mov    -0xc(%rbp),%eax
    d0f9:	48 c7 c2 ff ff ff ff 	mov    $0xffffffffffffffff,%rdx
    d100:	89 c1                	mov    %eax,%ecx
    d102:	48 d3 ea             	shr    %cl,%rdx
    d105:	48 89 d0             	mov    %rdx,%rax
    d108:	48 39 45 f8          	cmp    %rax,-0x8(%rbp)
    d10c:	77 11                	ja     d11f <safe_lshift_func_uint64_t_u_s+0x44>
    d10e:	8b 45 f4             	mov    -0xc(%rbp),%eax
    d111:	48 8b 55 f8          	mov    -0x8(%rbp),%rdx
    d115:	89 c1                	mov    %eax,%ecx
    d117:	48 d3 e2             	shl    %cl,%rdx
    d11a:	48 89 d0             	mov    %rdx,%rax
    d11d:	eb 04                	jmp    d123 <safe_lshift_func_uint64_t_u_s+0x48>
    d11f:	48 8b 45 f8          	mov    -0x8(%rbp),%rax
    d123:	5d                   	pop    %rbp
    d124:	c3                   	retq   

000000000000d125 <safe_lshift_func_uint64_t_u_u>:
    d125:	f3 0f 1e fa          	endbr64 
    d129:	55                   	push   %rbp
    d12a:	48 89 e5             	mov    %rsp,%rbp
    d12d:	48 89 7d f8          	mov    %rdi,-0x8(%rbp)
    d131:	89 75 f4             	mov    %esi,-0xc(%rbp)
    d134:	83 7d f4 1f          	cmpl   $0x1f,-0xc(%rbp)
    d138:	77 29                	ja     d163 <safe_lshift_func_uint64_t_u_u+0x3e>
    d13a:	8b 45 f4             	mov    -0xc(%rbp),%eax
    d13d:	48 c7 c2 ff ff ff ff 	mov    $0xffffffffffffffff,%rdx
    d144:	89 c1                	mov    %eax,%ecx
    d146:	48 d3 ea             	shr    %cl,%rdx
    d149:	48 89 d0             	mov    %rdx,%rax
    d14c:	48 39 45 f8          	cmp    %rax,-0x8(%rbp)
    d150:	77 11                	ja     d163 <safe_lshift_func_uint64_t_u_u+0x3e>
    d152:	8b 45 f4             	mov    -0xc(%rbp),%eax
    d155:	48 8b 55 f8          	mov    -0x8(%rbp),%rdx
    d159:	89 c1                	mov    %eax,%ecx
    d15b:	48 d3 e2             	shl    %cl,%rdx
    d15e:	48 89 d0             	mov    %rdx,%rax
    d161:	eb 04                	jmp    d167 <safe_lshift_func_uint64_t_u_u+0x42>
    d163:	48 8b 45 f8          	mov    -0x8(%rbp),%rax
    d167:	5d                   	pop    %rbp
    d168:	c3                   	retq   

000000000000d169 <safe_rshift_func_uint64_t_u_s>:
    d169:	f3 0f 1e fa          	endbr64 
    d16d:	55                   	push   %rbp
    d16e:	48 89 e5             	mov    %rsp,%rbp
    d171:	48 89 7d f8          	mov    %rdi,-0x8(%rbp)
    d175:	89 75 f4             	mov    %esi,-0xc(%rbp)
    d178:	83 7d f4 00          	cmpl   $0x0,-0xc(%rbp)
    d17c:	78 17                	js     d195 <safe_rshift_func_uint64_t_u_s+0x2c>
    d17e:	83 7d f4 1f          	cmpl   $0x1f,-0xc(%rbp)
    d182:	7f 11                	jg     d195 <safe_rshift_func_uint64_t_u_s+0x2c>
    d184:	8b 45 f4             	mov    -0xc(%rbp),%eax
    d187:	48 8b 55 f8          	mov    -0x8(%rbp),%rdx
    d18b:	89 c1                	mov    %eax,%ecx
    d18d:	48 d3 ea             	shr    %cl,%rdx
    d190:	48 89 d0             	mov    %rdx,%rax
    d193:	eb 04                	jmp    d199 <safe_rshift_func_uint64_t_u_s+0x30>
    d195:	48 8b 45 f8          	mov    -0x8(%rbp),%rax
    d199:	5d                   	pop    %rbp
    d19a:	c3                   	retq   

000000000000d19b <safe_rshift_func_uint64_t_u_u>:
    d19b:	f3 0f 1e fa          	endbr64 
    d19f:	55                   	push   %rbp
    d1a0:	48 89 e5             	mov    %rsp,%rbp
    d1a3:	48 89 7d f8          	mov    %rdi,-0x8(%rbp)
    d1a7:	89 75 f4             	mov    %esi,-0xc(%rbp)
    d1aa:	83 7d f4 1f          	cmpl   $0x1f,-0xc(%rbp)
    d1ae:	77 11                	ja     d1c1 <safe_rshift_func_uint64_t_u_u+0x26>
    d1b0:	8b 45 f4             	mov    -0xc(%rbp),%eax
    d1b3:	48 8b 55 f8          	mov    -0x8(%rbp),%rdx
    d1b7:	89 c1                	mov    %eax,%ecx
    d1b9:	48 d3 ea             	shr    %cl,%rdx
    d1bc:	48 89 d0             	mov    %rdx,%rax
    d1bf:	eb 04                	jmp    d1c5 <safe_rshift_func_uint64_t_u_u+0x2a>
    d1c1:	48 8b 45 f8          	mov    -0x8(%rbp),%rax
    d1c5:	5d                   	pop    %rbp
    d1c6:	c3                   	retq   

000000000000d1c7 <safe_add_func_float_f_f>:
    d1c7:	f3 0f 1e fa          	endbr64 
    d1cb:	55                   	push   %rbp
    d1cc:	48 89 e5             	mov    %rsp,%rbp
    d1cf:	f3 0f 11 45 fc       	movss  %xmm0,-0x4(%rbp)
    d1d4:	f3 0f 11 4d f8       	movss  %xmm1,-0x8(%rbp)
    d1d9:	f3 0f 10 4d fc       	movss  -0x4(%rbp),%xmm1
    d1de:	f3 0f 10 05 5e b5 00 	movss  0xb55e(%rip),%xmm0        # 18744 <l_2183.4509+0xc>
    d1e5:	00 
    d1e6:	f3 0f 59 c8          	mulss  %xmm0,%xmm1
    d1ea:	f3 0f 10 55 f8       	movss  -0x8(%rbp),%xmm2
    d1ef:	f3 0f 10 05 4d b5 00 	movss  0xb54d(%rip),%xmm0        # 18744 <l_2183.4509+0xc>
    d1f6:	00 
    d1f7:	f3 0f 59 c2          	mulss  %xmm2,%xmm0
    d1fb:	f3 0f 58 c1          	addss  %xmm1,%xmm0
    d1ff:	f3 0f 10 0d 49 b5 00 	movss  0xb549(%rip),%xmm1        # 18750 <l_2183.4509+0x18>
    d206:	00 
    d207:	0f 54 c1             	andps  %xmm1,%xmm0
    d20a:	0f 2f 05 4f b5 00 00 	comiss 0xb54f(%rip),%xmm0        # 18760 <l_2183.4509+0x28>
    d211:	76 07                	jbe    d21a <safe_add_func_float_f_f+0x53>
    d213:	f3 0f 10 45 fc       	movss  -0x4(%rbp),%xmm0
    d218:	eb 0a                	jmp    d224 <safe_add_func_float_f_f+0x5d>
    d21a:	f3 0f 10 45 fc       	movss  -0x4(%rbp),%xmm0
    d21f:	f3 0f 58 45 f8       	addss  -0x8(%rbp),%xmm0
    d224:	5d                   	pop    %rbp
    d225:	c3                   	retq   

000000000000d226 <safe_sub_func_float_f_f>:
    d226:	f3 0f 1e fa          	endbr64 
    d22a:	55                   	push   %rbp
    d22b:	48 89 e5             	mov    %rsp,%rbp
    d22e:	f3 0f 11 45 fc       	movss  %xmm0,-0x4(%rbp)
    d233:	f3 0f 11 4d f8       	movss  %xmm1,-0x8(%rbp)
    d238:	f3 0f 10 4d fc       	movss  -0x4(%rbp),%xmm1
    d23d:	f3 0f 10 05 ff b4 00 	movss  0xb4ff(%rip),%xmm0        # 18744 <l_2183.4509+0xc>
    d244:	00 
    d245:	f3 0f 59 c1          	mulss  %xmm1,%xmm0
    d249:	f3 0f 10 55 f8       	movss  -0x8(%rbp),%xmm2
    d24e:	f3 0f 10 0d ee b4 00 	movss  0xb4ee(%rip),%xmm1        # 18744 <l_2183.4509+0xc>
    d255:	00 
    d256:	f3 0f 59 ca          	mulss  %xmm2,%xmm1
    d25a:	f3 0f 5c c1          	subss  %xmm1,%xmm0
    d25e:	f3 0f 10 0d ea b4 00 	movss  0xb4ea(%rip),%xmm1        # 18750 <l_2183.4509+0x18>
    d265:	00 
    d266:	0f 54 c1             	andps  %xmm1,%xmm0
    d269:	0f 2f 05 f0 b4 00 00 	comiss 0xb4f0(%rip),%xmm0        # 18760 <l_2183.4509+0x28>
    d270:	76 07                	jbe    d279 <safe_sub_func_float_f_f+0x53>
    d272:	f3 0f 10 45 fc       	movss  -0x4(%rbp),%xmm0
    d277:	eb 0a                	jmp    d283 <safe_sub_func_float_f_f+0x5d>
    d279:	f3 0f 10 45 fc       	movss  -0x4(%rbp),%xmm0
    d27e:	f3 0f 5c 45 f8       	subss  -0x8(%rbp),%xmm0
    d283:	5d                   	pop    %rbp
    d284:	c3                   	retq   

000000000000d285 <safe_mul_func_float_f_f>:
    d285:	f3 0f 1e fa          	endbr64 
    d289:	55                   	push   %rbp
    d28a:	48 89 e5             	mov    %rsp,%rbp
    d28d:	f3 0f 11 45 fc       	movss  %xmm0,-0x4(%rbp)
    d292:	f3 0f 11 4d f8       	movss  %xmm1,-0x8(%rbp)
    d297:	f3 0f 10 4d fc       	movss  -0x4(%rbp),%xmm1
    d29c:	f3 0f 10 05 c0 b4 00 	movss  0xb4c0(%rip),%xmm0        # 18764 <l_2183.4509+0x2c>
    d2a3:	00 
    d2a4:	f3 0f 59 c8          	mulss  %xmm0,%xmm1
    d2a8:	f3 0f 10 55 f8       	movss  -0x8(%rbp),%xmm2
    d2ad:	f3 0f 10 05 b3 b4 00 	movss  0xb4b3(%rip),%xmm0        # 18768 <l_2183.4509+0x30>
    d2b4:	00 
    d2b5:	f3 0f 59 c2          	mulss  %xmm2,%xmm0
    d2b9:	f3 0f 59 c1          	mulss  %xmm1,%xmm0
    d2bd:	f3 0f 10 0d 8b b4 00 	movss  0xb48b(%rip),%xmm1        # 18750 <l_2183.4509+0x18>
    d2c4:	00 
    d2c5:	0f 54 c1             	andps  %xmm1,%xmm0
    d2c8:	0f 2f 05 9d b4 00 00 	comiss 0xb49d(%rip),%xmm0        # 1876c <l_2183.4509+0x34>
    d2cf:	76 07                	jbe    d2d8 <safe_mul_func_float_f_f+0x53>
    d2d1:	f3 0f 10 45 fc       	movss  -0x4(%rbp),%xmm0
    d2d6:	eb 0a                	jmp    d2e2 <safe_mul_func_float_f_f+0x5d>
    d2d8:	f3 0f 10 45 fc       	movss  -0x4(%rbp),%xmm0
    d2dd:	f3 0f 59 45 f8       	mulss  -0x8(%rbp),%xmm0
    d2e2:	5d                   	pop    %rbp
    d2e3:	c3                   	retq   

000000000000d2e4 <safe_div_func_float_f_f>:
    d2e4:	f3 0f 1e fa          	endbr64 
    d2e8:	55                   	push   %rbp
    d2e9:	48 89 e5             	mov    %rsp,%rbp
    d2ec:	f3 0f 11 45 fc       	movss  %xmm0,-0x4(%rbp)
    d2f1:	f3 0f 11 4d f8       	movss  %xmm1,-0x8(%rbp)
    d2f6:	f3 0f 10 45 f8       	movss  -0x8(%rbp),%xmm0
    d2fb:	f3 0f 10 0d 4d b4 00 	movss  0xb44d(%rip),%xmm1        # 18750 <l_2183.4509+0x18>
    d302:	00 
    d303:	0f 54 c8             	andps  %xmm0,%xmm1
    d306:	f3 0f 10 05 62 b4 00 	movss  0xb462(%rip),%xmm0        # 18770 <l_2183.4509+0x38>
    d30d:	00 
    d30e:	0f 2f c1             	comiss %xmm1,%xmm0
    d311:	0f 97 c0             	seta   %al
    d314:	83 f0 01             	xor    $0x1,%eax
    d317:	84 c0                	test   %al,%al
    d319:	75 56                	jne    d371 <safe_div_func_float_f_f+0x8d>
    d31b:	66 0f ef c0          	pxor   %xmm0,%xmm0
    d31f:	0f 2e 45 f8          	ucomiss -0x8(%rbp),%xmm0
    d323:	7a 0a                	jp     d32f <safe_div_func_float_f_f+0x4b>
    d325:	66 0f ef c0          	pxor   %xmm0,%xmm0
    d329:	0f 2e 45 f8          	ucomiss -0x8(%rbp),%xmm0
    d32d:	74 4e                	je     d37d <safe_div_func_float_f_f+0x99>
    d32f:	f3 0f 10 4d fc       	movss  -0x4(%rbp),%xmm1
    d334:	f3 0f 10 05 38 b4 00 	movss  0xb438(%rip),%xmm0        # 18774 <l_2183.4509+0x3c>
    d33b:	00 
    d33c:	f3 0f 59 c1          	mulss  %xmm1,%xmm0
    d340:	f3 0f 10 55 f8       	movss  -0x8(%rbp),%xmm2
    d345:	f3 0f 10 0d 2b b4 00 	movss  0xb42b(%rip),%xmm1        # 18778 <l_2183.4509+0x40>
    d34c:	00 
    d34d:	f3 0f 59 ca          	mulss  %xmm2,%xmm1
    d351:	f3 0f 5e c1          	divss  %xmm1,%xmm0
    d355:	f3 0f 10 0d f3 b3 00 	movss  0xb3f3(%rip),%xmm1        # 18750 <l_2183.4509+0x18>
    d35c:	00 
    d35d:	0f 54 c1             	andps  %xmm1,%xmm0
    d360:	0f 2f 05 15 b4 00 00 	comiss 0xb415(%rip),%xmm0        # 1877c <l_2183.4509+0x44>
    d367:	0f 97 c0             	seta   %al
    d36a:	83 f0 01             	xor    $0x1,%eax
    d36d:	84 c0                	test   %al,%al
    d36f:	74 0c                	je     d37d <safe_div_func_float_f_f+0x99>
    d371:	f3 0f 10 45 fc       	movss  -0x4(%rbp),%xmm0
    d376:	f3 0f 5e 45 f8       	divss  -0x8(%rbp),%xmm0
    d37b:	eb 05                	jmp    d382 <safe_div_func_float_f_f+0x9e>
    d37d:	f3 0f 10 45 fc       	movss  -0x4(%rbp),%xmm0
    d382:	5d                   	pop    %rbp
    d383:	c3                   	retq   

000000000000d384 <safe_add_func_double_f_f>:
    d384:	f3 0f 1e fa          	endbr64 
    d388:	55                   	push   %rbp
    d389:	48 89 e5             	mov    %rsp,%rbp
    d38c:	f2 0f 11 45 f8       	movsd  %xmm0,-0x8(%rbp)
    d391:	f2 0f 11 4d f0       	movsd  %xmm1,-0x10(%rbp)
    d396:	f2 0f 10 4d f8       	movsd  -0x8(%rbp),%xmm1
    d39b:	f2 0f 10 05 dd b3 00 	movsd  0xb3dd(%rip),%xmm0        # 18780 <l_2183.4509+0x48>
    d3a2:	00 
    d3a3:	f2 0f 59 c8          	mulsd  %xmm0,%xmm1
    d3a7:	f2 0f 10 55 f0       	movsd  -0x10(%rbp),%xmm2
    d3ac:	f2 0f 10 05 cc b3 00 	movsd  0xb3cc(%rip),%xmm0        # 18780 <l_2183.4509+0x48>
    d3b3:	00 
    d3b4:	f2 0f 59 c2          	mulsd  %xmm2,%xmm0
    d3b8:	f2 0f 58 c1          	addsd  %xmm1,%xmm0
    d3bc:	f3 0f 7e 0d cc b3 00 	movq   0xb3cc(%rip),%xmm1        # 18790 <l_2183.4509+0x58>
    d3c3:	00 
    d3c4:	66 0f 54 c1          	andpd  %xmm1,%xmm0
    d3c8:	66 0f 2f 05 d0 b3 00 	comisd 0xb3d0(%rip),%xmm0        # 187a0 <l_2183.4509+0x68>
    d3cf:	00 
    d3d0:	76 07                	jbe    d3d9 <safe_add_func_double_f_f+0x55>
    d3d2:	f2 0f 10 45 f8       	movsd  -0x8(%rbp),%xmm0
    d3d7:	eb 0a                	jmp    d3e3 <safe_add_func_double_f_f+0x5f>
    d3d9:	f2 0f 10 45 f8       	movsd  -0x8(%rbp),%xmm0
    d3de:	f2 0f 58 45 f0       	addsd  -0x10(%rbp),%xmm0
    d3e3:	5d                   	pop    %rbp
    d3e4:	c3                   	retq   

000000000000d3e5 <safe_sub_func_double_f_f>:
    d3e5:	f3 0f 1e fa          	endbr64 
    d3e9:	55                   	push   %rbp
    d3ea:	48 89 e5             	mov    %rsp,%rbp
    d3ed:	f2 0f 11 45 f8       	movsd  %xmm0,-0x8(%rbp)
    d3f2:	f2 0f 11 4d f0       	movsd  %xmm1,-0x10(%rbp)
    d3f7:	f2 0f 10 4d f8       	movsd  -0x8(%rbp),%xmm1
    d3fc:	f2 0f 10 05 7c b3 00 	movsd  0xb37c(%rip),%xmm0        # 18780 <l_2183.4509+0x48>
    d403:	00 
    d404:	f2 0f 59 c1          	mulsd  %xmm1,%xmm0
    d408:	f2 0f 10 55 f0       	movsd  -0x10(%rbp),%xmm2
    d40d:	f2 0f 10 0d 6b b3 00 	movsd  0xb36b(%rip),%xmm1        # 18780 <l_2183.4509+0x48>
    d414:	00 
    d415:	f2 0f 59 ca          	mulsd  %xmm2,%xmm1
    d419:	f2 0f 5c c1          	subsd  %xmm1,%xmm0
    d41d:	f3 0f 7e 0d 6b b3 00 	movq   0xb36b(%rip),%xmm1        # 18790 <l_2183.4509+0x58>
    d424:	00 
    d425:	66 0f 54 c1          	andpd  %xmm1,%xmm0
    d429:	66 0f 2f 05 6f b3 00 	comisd 0xb36f(%rip),%xmm0        # 187a0 <l_2183.4509+0x68>
    d430:	00 
    d431:	76 07                	jbe    d43a <safe_sub_func_double_f_f+0x55>
    d433:	f2 0f 10 45 f8       	movsd  -0x8(%rbp),%xmm0
    d438:	eb 0a                	jmp    d444 <safe_sub_func_double_f_f+0x5f>
    d43a:	f2 0f 10 45 f8       	movsd  -0x8(%rbp),%xmm0
    d43f:	f2 0f 5c 45 f0       	subsd  -0x10(%rbp),%xmm0
    d444:	5d                   	pop    %rbp
    d445:	c3                   	retq   

000000000000d446 <safe_mul_func_double_f_f>:
    d446:	f3 0f 1e fa          	endbr64 
    d44a:	55                   	push   %rbp
    d44b:	48 89 e5             	mov    %rsp,%rbp
    d44e:	f2 0f 11 45 f8       	movsd  %xmm0,-0x8(%rbp)
    d453:	f2 0f 11 4d f0       	movsd  %xmm1,-0x10(%rbp)
    d458:	f2 0f 10 4d f8       	movsd  -0x8(%rbp),%xmm1
    d45d:	f2 0f 10 05 43 b3 00 	movsd  0xb343(%rip),%xmm0        # 187a8 <l_2183.4509+0x70>
    d464:	00 
    d465:	f2 0f 59 c8          	mulsd  %xmm0,%xmm1
    d469:	f2 0f 10 55 f0       	movsd  -0x10(%rbp),%xmm2
    d46e:	f2 0f 10 05 3a b3 00 	movsd  0xb33a(%rip),%xmm0        # 187b0 <l_2183.4509+0x78>
    d475:	00 
    d476:	f2 0f 59 c2          	mulsd  %xmm2,%xmm0
    d47a:	f2 0f 59 c1          	mulsd  %xmm1,%xmm0
    d47e:	f3 0f 7e 0d 0a b3 00 	movq   0xb30a(%rip),%xmm1        # 18790 <l_2183.4509+0x58>
    d485:	00 
    d486:	66 0f 54 c1          	andpd  %xmm1,%xmm0
    d48a:	66 0f 2f 05 26 b3 00 	comisd 0xb326(%rip),%xmm0        # 187b8 <l_2183.4509+0x80>
    d491:	00 
    d492:	76 07                	jbe    d49b <safe_mul_func_double_f_f+0x55>
    d494:	f2 0f 10 45 f8       	movsd  -0x8(%rbp),%xmm0
    d499:	eb 0a                	jmp    d4a5 <safe_mul_func_double_f_f+0x5f>
    d49b:	f2 0f 10 45 f8       	movsd  -0x8(%rbp),%xmm0
    d4a0:	f2 0f 59 45 f0       	mulsd  -0x10(%rbp),%xmm0
    d4a5:	5d                   	pop    %rbp
    d4a6:	c3                   	retq   

000000000000d4a7 <safe_div_func_double_f_f>:
    d4a7:	f3 0f 1e fa          	endbr64 
    d4ab:	55                   	push   %rbp
    d4ac:	48 89 e5             	mov    %rsp,%rbp
    d4af:	f2 0f 11 45 f8       	movsd  %xmm0,-0x8(%rbp)
    d4b4:	f2 0f 11 4d f0       	movsd  %xmm1,-0x10(%rbp)
    d4b9:	f2 0f 10 45 f0       	movsd  -0x10(%rbp),%xmm0
    d4be:	f3 0f 7e 0d ca b2 00 	movq   0xb2ca(%rip),%xmm1        # 18790 <l_2183.4509+0x58>
    d4c5:	00 
    d4c6:	66 0f 54 c8          	andpd  %xmm0,%xmm1
    d4ca:	f2 0f 10 05 ee b2 00 	movsd  0xb2ee(%rip),%xmm0        # 187c0 <l_2183.4509+0x88>
    d4d1:	00 
    d4d2:	66 0f 2f c1          	comisd %xmm1,%xmm0
    d4d6:	0f 97 c0             	seta   %al
    d4d9:	83 f0 01             	xor    $0x1,%eax
    d4dc:	84 c0                	test   %al,%al
    d4de:	75 5a                	jne    d53a <safe_div_func_double_f_f+0x93>
    d4e0:	66 0f ef c0          	pxor   %xmm0,%xmm0
    d4e4:	66 0f 2e 45 f0       	ucomisd -0x10(%rbp),%xmm0
    d4e9:	7a 0b                	jp     d4f6 <safe_div_func_double_f_f+0x4f>
    d4eb:	66 0f ef c0          	pxor   %xmm0,%xmm0
    d4ef:	66 0f 2e 45 f0       	ucomisd -0x10(%rbp),%xmm0
    d4f4:	74 50                	je     d546 <safe_div_func_double_f_f+0x9f>
    d4f6:	f2 0f 10 4d f8       	movsd  -0x8(%rbp),%xmm1
    d4fb:	f2 0f 10 05 c5 b2 00 	movsd  0xb2c5(%rip),%xmm0        # 187c8 <l_2183.4509+0x90>
    d502:	00 
    d503:	f2 0f 59 c1          	mulsd  %xmm1,%xmm0
    d507:	f2 0f 10 55 f0       	movsd  -0x10(%rbp),%xmm2
    d50c:	f2 0f 10 0d bc b2 00 	movsd  0xb2bc(%rip),%xmm1        # 187d0 <l_2183.4509+0x98>
    d513:	00 
    d514:	f2 0f 59 ca          	mulsd  %xmm2,%xmm1
    d518:	f2 0f 5e c1          	divsd  %xmm1,%xmm0
    d51c:	f3 0f 7e 0d 6c b2 00 	movq   0xb26c(%rip),%xmm1        # 18790 <l_2183.4509+0x58>
    d523:	00 
    d524:	66 0f 54 c1          	andpd  %xmm1,%xmm0
    d528:	66 0f 2f 05 a8 b2 00 	comisd 0xb2a8(%rip),%xmm0        # 187d8 <l_2183.4509+0xa0>
    d52f:	00 
    d530:	0f 97 c0             	seta   %al
    d533:	83 f0 01             	xor    $0x1,%eax
    d536:	84 c0                	test   %al,%al
    d538:	74 0c                	je     d546 <safe_div_func_double_f_f+0x9f>
    d53a:	f2 0f 10 45 f8       	movsd  -0x8(%rbp),%xmm0
    d53f:	f2 0f 5e 45 f0       	divsd  -0x10(%rbp),%xmm0
    d544:	eb 05                	jmp    d54b <safe_div_func_double_f_f+0xa4>
    d546:	f2 0f 10 45 f8       	movsd  -0x8(%rbp),%xmm0
    d54b:	5d                   	pop    %rbp
    d54c:	c3                   	retq   

000000000000d54d <safe_convert_func_float_to_int32_t>:
    d54d:	f3 0f 1e fa          	endbr64 
    d551:	55                   	push   %rbp
    d552:	48 89 e5             	mov    %rsp,%rbp
    d555:	f3 0f 11 45 fc       	movss  %xmm0,-0x4(%rbp)
    d55a:	f3 0f 10 05 7e b2 00 	movss  0xb27e(%rip),%xmm0        # 187e0 <l_2183.4509+0xa8>
    d561:	00 
    d562:	0f 2f 45 fc          	comiss -0x4(%rbp),%xmm0
    d566:	0f 93 c0             	setae  %al
    d569:	83 f0 01             	xor    $0x1,%eax
    d56c:	84 c0                	test   %al,%al
    d56e:	74 21                	je     d591 <safe_convert_func_float_to_int32_t+0x44>
    d570:	f3 0f 10 45 fc       	movss  -0x4(%rbp),%xmm0
    d575:	0f 2f 05 68 b2 00 00 	comiss 0xb268(%rip),%xmm0        # 187e4 <l_2183.4509+0xac>
    d57c:	0f 93 c0             	setae  %al
    d57f:	83 f0 01             	xor    $0x1,%eax
    d582:	84 c0                	test   %al,%al
    d584:	74 0b                	je     d591 <safe_convert_func_float_to_int32_t+0x44>
    d586:	f3 0f 10 45 fc       	movss  -0x4(%rbp),%xmm0
    d58b:	f3 0f 2c c0          	cvttss2si %xmm0,%eax
    d58f:	eb 05                	jmp    d596 <safe_convert_func_float_to_int32_t+0x49>
    d591:	b8 ff ff ff 7f       	mov    $0x7fffffff,%eax
    d596:	5d                   	pop    %rbp
    d597:	c3                   	retq   

000000000000d598 <crc32_gentab>:
    d598:	f3 0f 1e fa          	endbr64 
    d59c:	55                   	push   %rbp
    d59d:	48 89 e5             	mov    %rsp,%rbp
    d5a0:	c7 45 fc 20 83 b8 ed 	movl   $0xedb88320,-0x4(%rbp)
    d5a7:	c7 45 f4 00 00 00 00 	movl   $0x0,-0xc(%rbp)
    d5ae:	eb 51                	jmp    d601 <crc32_gentab+0x69>
    d5b0:	8b 45 f4             	mov    -0xc(%rbp),%eax
    d5b3:	89 45 f0             	mov    %eax,-0x10(%rbp)
    d5b6:	c7 45 f8 08 00 00 00 	movl   $0x8,-0x8(%rbp)
    d5bd:	eb 1e                	jmp    d5dd <crc32_gentab+0x45>
    d5bf:	8b 45 f0             	mov    -0x10(%rbp),%eax
    d5c2:	83 e0 01             	and    $0x1,%eax
    d5c5:	85 c0                	test   %eax,%eax
    d5c7:	74 0d                	je     d5d6 <crc32_gentab+0x3e>
    d5c9:	8b 45 f0             	mov    -0x10(%rbp),%eax
    d5cc:	d1 e8                	shr    %eax
    d5ce:	33 45 fc             	xor    -0x4(%rbp),%eax
    d5d1:	89 45 f0             	mov    %eax,-0x10(%rbp)
    d5d4:	eb 03                	jmp    d5d9 <crc32_gentab+0x41>
    d5d6:	d1 6d f0             	shrl   -0x10(%rbp)
    d5d9:	83 6d f8 01          	subl   $0x1,-0x8(%rbp)
    d5dd:	83 7d f8 00          	cmpl   $0x0,-0x8(%rbp)
    d5e1:	7f dc                	jg     d5bf <crc32_gentab+0x27>
    d5e3:	8b 45 f4             	mov    -0xc(%rbp),%eax
    d5e6:	48 98                	cltq   
    d5e8:	48 8d 0c 85 00 00 00 	lea    0x0(,%rax,4),%rcx
    d5ef:	00 
    d5f0:	48 8d 15 29 2b 01 00 	lea    0x12b29(%rip),%rdx        # 20120 <crc32_tab>
    d5f7:	8b 45 f0             	mov    -0x10(%rbp),%eax
    d5fa:	89 04 11             	mov    %eax,(%rcx,%rdx,1)
    d5fd:	83 45 f4 01          	addl   $0x1,-0xc(%rbp)
    d601:	81 7d f4 ff 00 00 00 	cmpl   $0xff,-0xc(%rbp)
    d608:	7e a6                	jle    d5b0 <crc32_gentab+0x18>
    d60a:	90                   	nop
    d60b:	90                   	nop
    d60c:	5d                   	pop    %rbp
    d60d:	c3                   	retq   

000000000000d60e <crc32_byte>:
    d60e:	f3 0f 1e fa          	endbr64 
    d612:	55                   	push   %rbp
    d613:	48 89 e5             	mov    %rsp,%rbp
    d616:	89 f8                	mov    %edi,%eax
    d618:	88 45 fc             	mov    %al,-0x4(%rbp)
    d61b:	8b 05 ff d9 00 00    	mov    0xd9ff(%rip),%eax        # 1b020 <crc32_context>
    d621:	c1 e8 08             	shr    $0x8,%eax
    d624:	89 c1                	mov    %eax,%ecx
    d626:	0f b6 55 fc          	movzbl -0x4(%rbp),%edx
    d62a:	8b 05 f0 d9 00 00    	mov    0xd9f0(%rip),%eax        # 1b020 <crc32_context>
    d630:	31 d0                	xor    %edx,%eax
    d632:	0f b6 c0             	movzbl %al,%eax
    d635:	89 c0                	mov    %eax,%eax
    d637:	48 8d 14 85 00 00 00 	lea    0x0(,%rax,4),%rdx
    d63e:	00 
    d63f:	48 8d 05 da 2a 01 00 	lea    0x12ada(%rip),%rax        # 20120 <crc32_tab>
    d646:	8b 04 02             	mov    (%rdx,%rax,1),%eax
    d649:	31 c8                	xor    %ecx,%eax
    d64b:	89 05 cf d9 00 00    	mov    %eax,0xd9cf(%rip)        # 1b020 <crc32_context>
    d651:	90                   	nop
    d652:	5d                   	pop    %rbp
    d653:	c3                   	retq   

000000000000d654 <crc32_8bytes>:
    d654:	f3 0f 1e fa          	endbr64 
    d658:	55                   	push   %rbp
    d659:	48 89 e5             	mov    %rsp,%rbp
    d65c:	48 83 ec 08          	sub    $0x8,%rsp
    d660:	48 89 7d f8          	mov    %rdi,-0x8(%rbp)
    d664:	48 8b 45 f8          	mov    -0x8(%rbp),%rax
    d668:	0f b6 c0             	movzbl %al,%eax
    d66b:	89 c7                	mov    %eax,%edi
    d66d:	e8 9c ff ff ff       	callq  d60e <crc32_byte>
    d672:	48 8b 45 f8          	mov    -0x8(%rbp),%rax
    d676:	48 c1 e8 08          	shr    $0x8,%rax
    d67a:	0f b6 c0             	movzbl %al,%eax
    d67d:	89 c7                	mov    %eax,%edi
    d67f:	e8 8a ff ff ff       	callq  d60e <crc32_byte>
    d684:	48 8b 45 f8          	mov    -0x8(%rbp),%rax
    d688:	48 c1 e8 10          	shr    $0x10,%rax
    d68c:	0f b6 c0             	movzbl %al,%eax
    d68f:	89 c7                	mov    %eax,%edi
    d691:	e8 78 ff ff ff       	callq  d60e <crc32_byte>
    d696:	48 8b 45 f8          	mov    -0x8(%rbp),%rax
    d69a:	48 c1 e8 18          	shr    $0x18,%rax
    d69e:	0f b6 c0             	movzbl %al,%eax
    d6a1:	89 c7                	mov    %eax,%edi
    d6a3:	e8 66 ff ff ff       	callq  d60e <crc32_byte>
    d6a8:	48 8b 45 f8          	mov    -0x8(%rbp),%rax
    d6ac:	48 c1 e8 20          	shr    $0x20,%rax
    d6b0:	0f b6 c0             	movzbl %al,%eax
    d6b3:	89 c7                	mov    %eax,%edi
    d6b5:	e8 54 ff ff ff       	callq  d60e <crc32_byte>
    d6ba:	48 8b 45 f8          	mov    -0x8(%rbp),%rax
    d6be:	48 c1 e8 28          	shr    $0x28,%rax
    d6c2:	0f b6 c0             	movzbl %al,%eax
    d6c5:	89 c7                	mov    %eax,%edi
    d6c7:	e8 42 ff ff ff       	callq  d60e <crc32_byte>
    d6cc:	48 8b 45 f8          	mov    -0x8(%rbp),%rax
    d6d0:	48 c1 e8 30          	shr    $0x30,%rax
    d6d4:	0f b6 c0             	movzbl %al,%eax
    d6d7:	89 c7                	mov    %eax,%edi
    d6d9:	e8 30 ff ff ff       	callq  d60e <crc32_byte>
    d6de:	48 8b 45 f8          	mov    -0x8(%rbp),%rax
    d6e2:	48 c1 e8 38          	shr    $0x38,%rax
    d6e6:	0f b6 c0             	movzbl %al,%eax
    d6e9:	89 c7                	mov    %eax,%edi
    d6eb:	e8 1e ff ff ff       	callq  d60e <crc32_byte>
    d6f0:	90                   	nop
    d6f1:	c9                   	leaveq 
    d6f2:	c3                   	retq   

000000000000d6f3 <transparent_crc>:
    d6f3:	f3 0f 1e fa          	endbr64 
    d6f7:	55                   	push   %rbp
    d6f8:	48 89 e5             	mov    %rsp,%rbp
    d6fb:	48 83 ec 20          	sub    $0x20,%rsp
    d6ff:	48 89 7d f8          	mov    %rdi,-0x8(%rbp)
    d703:	48 89 75 f0          	mov    %rsi,-0x10(%rbp)
    d707:	89 55 ec             	mov    %edx,-0x14(%rbp)
    d70a:	48 8b 45 f8          	mov    -0x8(%rbp),%rax
    d70e:	48 89 c7             	mov    %rax,%rdi
    d711:	e8 3e ff ff ff       	callq  d654 <crc32_8bytes>
    d716:	83 7d ec 00          	cmpl   $0x0,-0x14(%rbp)
    d71a:	74 22                	je     d73e <transparent_crc+0x4b>
    d71c:	8b 05 fe d8 00 00    	mov    0xd8fe(%rip),%eax        # 1b020 <crc32_context>
    d722:	f7 d0                	not    %eax
    d724:	89 c2                	mov    %eax,%edx
    d726:	48 8b 45 f0          	mov    -0x10(%rbp),%rax
    d72a:	48 89 c6             	mov    %rax,%rsi
    d72d:	48 8d 3d fc 98 00 00 	lea    0x98fc(%rip),%rdi        # 17030 <_IO_stdin_used+0x30>
    d734:	b8 00 00 00 00       	mov    $0x0,%eax
    d739:	e8 42 e9 ff ff       	callq  c080 <printf@plt>
    d73e:	90                   	nop
    d73f:	c9                   	leaveq 
    d740:	c3                   	retq   

000000000000d741 <transparent_crc_bytes>:
    d741:	f3 0f 1e fa          	endbr64 
    d745:	55                   	push   %rbp
    d746:	48 89 e5             	mov    %rsp,%rbp
    d749:	48 83 ec 30          	sub    $0x30,%rsp
    d74d:	48 89 7d e8          	mov    %rdi,-0x18(%rbp)
    d751:	89 75 e4             	mov    %esi,-0x1c(%rbp)
    d754:	48 89 55 d8          	mov    %rdx,-0x28(%rbp)
    d758:	89 4d e0             	mov    %ecx,-0x20(%rbp)
    d75b:	c7 45 fc 00 00 00 00 	movl   $0x0,-0x4(%rbp)
    d762:	eb 1e                	jmp    d782 <transparent_crc_bytes+0x41>
    d764:	8b 45 fc             	mov    -0x4(%rbp),%eax
    d767:	48 63 d0             	movslq %eax,%rdx
    d76a:	48 8b 45 e8          	mov    -0x18(%rbp),%rax
    d76e:	48 01 d0             	add    %rdx,%rax
    d771:	0f b6 00             	movzbl (%rax),%eax
    d774:	0f b6 c0             	movzbl %al,%eax
    d777:	89 c7                	mov    %eax,%edi
    d779:	e8 90 fe ff ff       	callq  d60e <crc32_byte>
    d77e:	83 45 fc 01          	addl   $0x1,-0x4(%rbp)
    d782:	8b 45 fc             	mov    -0x4(%rbp),%eax
    d785:	3b 45 e4             	cmp    -0x1c(%rbp),%eax
    d788:	7c da                	jl     d764 <transparent_crc_bytes+0x23>
    d78a:	83 7d e0 00          	cmpl   $0x0,-0x20(%rbp)
    d78e:	74 22                	je     d7b2 <transparent_crc_bytes+0x71>
    d790:	8b 05 8a d8 00 00    	mov    0xd88a(%rip),%eax        # 1b020 <crc32_context>
    d796:	f7 d0                	not    %eax
    d798:	89 c2                	mov    %eax,%edx
    d79a:	48 8b 45 d8          	mov    -0x28(%rbp),%rax
    d79e:	48 89 c6             	mov    %rax,%rsi
    d7a1:	48 8d 3d 88 98 00 00 	lea    0x9888(%rip),%rdi        # 17030 <_IO_stdin_used+0x30>
    d7a8:	b8 00 00 00 00       	mov    $0x0,%eax
    d7ad:	e8 ce e8 ff ff       	callq  c080 <printf@plt>
    d7b2:	90                   	nop
    d7b3:	c9                   	leaveq 
    d7b4:	c3                   	retq   

000000000000d7b5 <func_1>:
    d7b5:	f3 0f 1e fa          	endbr64 
    d7b9:	55                   	push   %rbp
    d7ba:	48 89 e5             	mov    %rsp,%rbp
    d7bd:	41 57                	push   %r15
    d7bf:	41 56                	push   %r14
    d7c1:	41 55                	push   %r13
    d7c3:	41 54                	push   %r12
    d7c5:	53                   	push   %rbx
    d7c6:	48 81 ec e8 01 00 00 	sub    $0x1e8,%rsp
    d7cd:	64 48 8b 04 25 28 00 	mov    %fs:0x28,%rax
    d7d4:	00 00 
    d7d6:	48 89 45 c8          	mov    %rax,-0x38(%rbp)
    d7da:	31 c0                	xor    %eax,%eax
    d7dc:	c7 85 20 fe ff ff f8 	movl   $0xfffffff8,-0x1e0(%rbp)
    d7e3:	ff ff ff 
    d7e6:	c7 85 24 fe ff ff 02 	movl   $0x2,-0x1dc(%rbp)
    d7ed:	00 00 00 
    d7f0:	48 c7 85 28 fe ff ff 	movq   $0x0,-0x1d8(%rbp)
    d7f7:	00 00 00 00 
    d7fb:	48 8d 05 d6 2d 01 00 	lea    0x12dd6(%rip),%rax        # 205d8 <g_2503>
    d802:	48 89 85 30 fe ff ff 	mov    %rax,-0x1d0(%rbp)
    d809:	48 8d 85 70 fe ff ff 	lea    -0x190(%rbp),%rax
    d810:	48 8d 15 69 98 00 00 	lea    0x9869(%rip),%rdx        # 17080 <g_3452+0x18>
    d817:	b9 2a 00 00 00       	mov    $0x2a,%ecx
    d81c:	48 89 c7             	mov    %rax,%rdi
    d81f:	48 89 d6             	mov    %rdx,%rsi
    d822:	f3 48 a5             	rep movsq %ds:(%rsi),%es:(%rdi)
    d825:	c7 85 14 fe ff ff 00 	movl   $0x0,-0x1ec(%rbp)
    d82c:	00 00 00 
    d82f:	48 b8 32 bc a3 39 5e 	movabs $0xee871a5e39a3bc32,%rax
    d836:	1a 87 ee 
    d839:	48 89 85 38 fe ff ff 	mov    %rax,-0x1c8(%rbp)
    d840:	c7 85 18 fe ff ff 00 	movl   $0x0,-0x1e8(%rbp)
    d847:	00 00 00 
    d84a:	eb 49                	jmp    d895 <func_1+0xe0>
    d84c:	c7 85 1c fe ff ff 00 	movl   $0x0,-0x1e4(%rbp)
    d853:	00 00 00 
    d856:	eb 2d                	jmp    d885 <func_1+0xd0>
    d858:	8b 85 1c fe ff ff    	mov    -0x1e4(%rbp),%eax
    d85e:	48 63 d0             	movslq %eax,%rdx
    d861:	8b 85 18 fe ff ff    	mov    -0x1e8(%rbp),%eax
    d867:	48 98                	cltq   
    d869:	48 01 d0             	add    %rdx,%rax
    d86c:	48 bb c6 78 aa 45 54 	movabs $0xc639095445aa78c6,%rbx
    d873:	09 39 c6 
    d876:	48 89 9c c5 40 fe ff 	mov    %rbx,-0x1c0(%rbp,%rax,8)
    d87d:	ff 
    d87e:	83 85 1c fe ff ff 01 	addl   $0x1,-0x1e4(%rbp)
    d885:	83 bd 1c fe ff ff 00 	cmpl   $0x0,-0x1e4(%rbp)
    d88c:	7e ca                	jle    d858 <func_1+0xa3>
    d88e:	83 85 18 fe ff ff 01 	addl   $0x1,-0x1e8(%rbp)
    d895:	83 bd 18 fe ff ff 04 	cmpl   $0x4,-0x1e8(%rbp)
    d89c:	7e ae                	jle    d84c <func_1+0x97>
    d89e:	90                   	nop
    d89f:	48 8b 85 48 fe ff ff 	mov    -0x1b8(%rbp),%rax
    d8a6:	41 89 c5             	mov    %eax,%r13d
    d8a9:	48 8b 05 18 16 01 00 	mov    0x11618(%rip),%rax        # 1eec8 <g_1712>
    d8b0:	0f b6 00             	movzbl (%rax),%eax
    d8b3:	0f b6 d8             	movzbl %al,%ebx
    d8b6:	8b 05 68 d7 00 00    	mov    0xd768(%rip),%eax        # 1b024 <g_14>
    d8bc:	41 89 c6             	mov    %eax,%r14d
    d8bf:	8b 05 5f d7 00 00    	mov    0xd75f(%rip),%eax        # 1b024 <g_14>
    d8c5:	0f be c0             	movsbl %al,%eax
    d8c8:	be 07 00 00 00       	mov    $0x7,%esi
    d8cd:	89 c7                	mov    %eax,%edi
    d8cf:	e8 98 ea ff ff       	callq  c36c <safe_rshift_func_int8_t_s_u>
    d8d4:	4c 0f be e0          	movsbq %al,%r12
    d8d8:	8b 15 46 d7 00 00    	mov    0xd746(%rip),%edx        # 1b024 <g_14>
    d8de:	8b 85 20 fe ff ff    	mov    -0x1e0(%rbp),%eax
    d8e4:	98                   	cwtl   
    d8e5:	89 d6                	mov    %edx,%esi
    d8e7:	89 c7                	mov    %eax,%edi
    d8e9:	e8 3c ec ff ff       	callq  c52a <safe_rshift_func_int16_t_s_s>
    d8ee:	48 0f bf c0          	movswq %ax,%rax
    d8f2:	4c 89 e6             	mov    %r12,%rsi
    d8f5:	48 89 c7             	mov    %rax,%rdi
    d8f8:	e8 fa f0 ff ff       	callq  c9f7 <safe_div_func_int64_t_s_s>
    d8fd:	48 89 c2             	mov    %rax,%rdx
    d900:	8b 05 1e d7 00 00    	mov    0xd71e(%rip),%eax        # 1b024 <g_14>
    d906:	89 85 24 fe ff ff    	mov    %eax,-0x1dc(%rbp)
    d90c:	8b 8d 24 fe ff ff    	mov    -0x1dc(%rbp),%ecx
    d912:	8b 05 10 d7 00 00    	mov    0xd710(%rip),%eax        # 1b028 <g_16>
    d918:	21 c8                	and    %ecx,%eax
    d91a:	89 05 08 d7 00 00    	mov    %eax,0xd708(%rip)        # 1b028 <g_16>
    d920:	8b 05 02 d7 00 00    	mov    0xd702(%rip),%eax        # 1b028 <g_16>
    d926:	89 c6                	mov    %eax,%esi
    d928:	8b 85 20 fe ff ff    	mov    -0x1e0(%rbp),%eax
    d92e:	44 89 f1             	mov    %r14d,%ecx
    d931:	89 c7                	mov    %eax,%edi
    d933:	e8 a7 02 00 00       	callq  dbdf <func_8>
    d938:	0f b6 c0             	movzbl %al,%eax
    d93b:	89 de                	mov    %ebx,%esi
    d93d:	89 c7                	mov    %eax,%edi
    d93f:	e8 34 f2 ff ff       	callq  cb78 <safe_sub_func_uint8_t_u_u>
    d944:	0f b6 c0             	movzbl %al,%eax
    d947:	44 89 ee             	mov    %r13d,%esi
    d94a:	89 c7                	mov    %eax,%edi
    d94c:	e8 90 eb ff ff       	callq  c4e1 <safe_lshift_func_int16_t_s_u>
    d951:	98                   	cwtl   
    d952:	be 0d 00 00 00       	mov    $0xd,%esi
    d957:	89 c7                	mov    %eax,%edi
    d959:	e8 05 ec ff ff       	callq  c563 <safe_rshift_func_int16_t_s_u>
    d95e:	89 c2                	mov    %eax,%edx
    d960:	48 8b 05 51 f4 00 00 	mov    0xf451(%rip),%rax        # 1cdb8 <g_220>
    d967:	0f bf d2             	movswl %dx,%edx
    d96a:	89 10                	mov    %edx,(%rax)
    d96c:	48 8b 85 50 fe ff ff 	mov    -0x1b0(%rbp),%rax
    d973:	48 89 85 08 fe ff ff 	mov    %rax,-0x1f8(%rbp)
    d97a:	48 8b 85 c0 fe ff ff 	mov    -0x140(%rbp),%rax
    d981:	0f b6 d8             	movzbl %al,%ebx
    d984:	48 8b 05 0d 1d 01 00 	mov    0x11d0d(%rip),%rax        # 1f698 <g_3052>
    d98b:	48 8b 00             	mov    (%rax),%rax
    d98e:	48 8b 00             	mov    (%rax),%rax
    d991:	48 8b 00             	mov    (%rax),%rax
    d994:	4c 8b 20             	mov    (%rax),%r12
    d997:	48 8b 85 68 ff ff ff 	mov    -0x98(%rbp),%rax
    d99e:	89 85 04 fe ff ff    	mov    %eax,-0x1fc(%rbp)
    d9a4:	48 8b 85 c0 fe ff ff 	mov    -0x140(%rbp),%rax
    d9ab:	89 85 00 fe ff ff    	mov    %eax,-0x200(%rbp)
    d9b1:	48 8b 85 60 fe ff ff 	mov    -0x1a0(%rbp),%rax
    d9b8:	44 0f b7 e8          	movzwl %ax,%r13d
    d9bc:	48 8b 85 48 fe ff ff 	mov    -0x1b8(%rbp),%rax
    d9c3:	44 0f bf f0          	movswl %ax,%r14d
    d9c7:	48 8d 05 32 1d 01 00 	lea    0x11d32(%rip),%rax        # 1f700 <g_3099+0x40>
    d9ce:	48 39 85 28 fe ff ff 	cmp    %rax,-0x1d8(%rbp)
    d9d5:	0f 95 85 ff fd ff ff 	setne  -0x201(%rbp)
    d9dc:	48 8b 85 48 fe ff ff 	mov    -0x1b8(%rbp),%rax
    d9e3:	89 85 f8 fd ff ff    	mov    %eax,-0x208(%rbp)
    d9e9:	48 8b 05 f8 f3 00 00 	mov    0xf3f8(%rip),%rax        # 1cde8 <g_290>
    d9f0:	48 8b 00             	mov    (%rax),%rax
    d9f3:	48 89 c2             	mov    %rax,%rdx
    d9f6:	48 b8 63 ee 32 fe c5 	movabs $0xf32cf2c5fe32ee63,%rax
    d9fd:	f2 2c f3 
    da00:	48 31 c2             	xor    %rax,%rdx
    da03:	49 89 d7             	mov    %rdx,%r15
    da06:	48 8b 85 48 fe ff ff 	mov    -0x1b8(%rbp),%rax
    da0d:	0f b7 c0             	movzwl %ax,%eax
    da10:	be 9b 21 00 00       	mov    $0x219b,%esi
    da15:	89 c7                	mov    %eax,%edi
    da17:	e8 21 f3 ff ff       	callq  cd3d <safe_mul_func_uint16_t_u_u>
    da1c:	0f b7 c0             	movzwl %ax,%eax
    da1f:	49 39 c7             	cmp    %rax,%r15
    da22:	0f 96 c0             	setbe  %al
    da25:	0f b6 c0             	movzbl %al,%eax
    da28:	39 85 20 fe ff ff    	cmp    %eax,-0x1e0(%rbp)
    da2e:	0f 93 c0             	setae  %al
    da31:	0f b6 c0             	movzbl %al,%eax
    da34:	8b b5 f8 fd ff ff    	mov    -0x208(%rbp),%esi
    da3a:	89 c7                	mov    %eax,%edi
    da3c:	e8 8f f4 ff ff       	callq  ced0 <safe_sub_func_uint32_t_u_u>
    da41:	85 c0                	test   %eax,%eax
    da43:	0f 94 c0             	sete   %al
    da46:	32 85 ff fd ff ff    	xor    -0x201(%rbp),%al
    da4c:	0f b6 c0             	movzbl %al,%eax
    da4f:	44 89 f6             	mov    %r14d,%esi
    da52:	89 c7                	mov    %eax,%edi
    da54:	e8 fc e9 ff ff       	callq  c455 <safe_div_func_int16_t_s_s>
    da59:	83 f0 03             	xor    $0x3,%eax
    da5c:	48 0f bf d0          	movswq %ax,%rdx
    da60:	48 8b 85 30 fe ff ff 	mov    -0x1d0(%rbp),%rax
    da67:	0f b7 00             	movzwl (%rax),%eax
    da6a:	09 c2                	or     %eax,%edx
    da6c:	48 8b 85 30 fe ff ff 	mov    -0x1d0(%rbp),%rax
    da73:	66 89 10             	mov    %dx,(%rax)
    da76:	48 8b 85 30 fe ff ff 	mov    -0x1d0(%rbp),%rax
    da7d:	0f b7 00             	movzwl (%rax),%eax
    da80:	0f b7 c0             	movzwl %ax,%eax
    da83:	44 89 ee             	mov    %r13d,%esi
    da86:	89 c7                	mov    %eax,%edi
    da88:	e8 b0 f2 ff ff       	callq  cd3d <safe_mul_func_uint16_t_u_u>
    da8d:	be 00 00 00 00       	mov    $0x0,%esi
    da92:	bf 01 00 00 00       	mov    $0x1,%edi
    da97:	e8 92 f5 ff ff       	callq  d02e <safe_add_func_uint64_t_u_u>
    da9c:	8b b5 00 fe ff ff    	mov    -0x200(%rbp),%esi
    daa2:	bf 00 00 00 00       	mov    $0x0,%edi
    daa7:	e8 59 eb ff ff       	callq  c605 <safe_sub_func_int32_t_s_s>
    daac:	85 c0                	test   %eax,%eax
    daae:	74 17                	je     dac7 <func_1+0x312>
    dab0:	48 8b 05 f9 1b 01 00 	mov    0x11bf9(%rip),%rax        # 1f6b0 <g_3101>
    dab7:	48 8b 00             	mov    (%rax),%rax
    daba:	8b 00                	mov    (%rax),%eax
    dabc:	85 c0                	test   %eax,%eax
    dabe:	74 07                	je     dac7 <func_1+0x312>
    dac0:	b8 01 00 00 00       	mov    $0x1,%eax
    dac5:	eb 05                	jmp    dacc <func_1+0x317>
    dac7:	b8 00 00 00 00       	mov    $0x0,%eax
    dacc:	0f be c0             	movsbl %al,%eax
    dacf:	8b b5 04 fe ff ff    	mov    -0x1fc(%rbp),%esi
    dad5:	89 c7                	mov    %eax,%edi
    dad7:	e8 12 e8 ff ff       	callq  c2ee <safe_lshift_func_int8_t_s_u>
    dadc:	48 0f be c0          	movsbq %al,%rax
    dae0:	4c 89 e6             	mov    %r12,%rsi
    dae3:	48 89 c7             	mov    %rax,%rdi
    dae6:	e8 95 f5 ff ff       	callq  d080 <safe_mod_func_uint64_t_u_u>
    daeb:	0f b6 c0             	movzbl %al,%eax
    daee:	be 01 00 00 00       	mov    $0x1,%esi
    daf3:	89 c7                	mov    %eax,%edi
    daf5:	e8 b4 f0 ff ff       	callq  cbae <safe_mod_func_uint8_t_u_u>
    dafa:	0f b6 c0             	movzbl %al,%eax
    dafd:	09 85 14 fe ff ff    	or     %eax,-0x1ec(%rbp)
    db03:	8b 85 14 fe ff ff    	mov    -0x1ec(%rbp),%eax
    db09:	0f b6 c0             	movzbl %al,%eax
    db0c:	89 de                	mov    %ebx,%esi
    db0e:	89 c7                	mov    %eax,%edi
    db10:	e8 45 f0 ff ff       	callq  cb5a <safe_add_func_uint8_t_u_u>
    db15:	89 c2                	mov    %eax,%edx
    db17:	48 8b 05 7a 1b 01 00 	mov    0x11b7a(%rip),%rax        # 1f698 <g_3052>
    db1e:	48 8b 00             	mov    (%rax),%rax
    db21:	48 8b 00             	mov    (%rax),%rax
    db24:	48 8b 00             	mov    (%rax),%rax
    db27:	0f b6 d2             	movzbl %dl,%edx
    db2a:	48 89 10             	mov    %rdx,(%rax)
    db2d:	8b 85 20 fe ff ff    	mov    -0x1e0(%rbp),%eax
    db33:	0f be c0             	movsbl %al,%eax
    db36:	be 03 00 00 00       	mov    $0x3,%esi
    db3b:	89 c7                	mov    %eax,%edi
    db3d:	e8 2a e8 ff ff       	callq  c36c <safe_rshift_func_int8_t_s_u>
    db42:	3c 01                	cmp    $0x1,%al
    db44:	0f 9f c0             	setg   %al
    db47:	0f b6 c0             	movzbl %al,%eax
    db4a:	be 0b 00 00 00       	mov    $0xb,%esi
    db4f:	89 c7                	mov    %eax,%edi
    db51:	e8 8b e9 ff ff       	callq  c4e1 <safe_lshift_func_int16_t_s_u>
    db56:	66 85 c0             	test   %ax,%ax
    db59:	48 8b 85 48 fe ff ff 	mov    -0x1b8(%rbp),%rax
    db60:	31 85 24 fe ff ff    	xor    %eax,-0x1dc(%rbp)
    db66:	8b 85 24 fe ff ff    	mov    -0x1dc(%rbp),%eax
    db6c:	48 98                	cltq   
    db6e:	48 0b 85 38 fe ff ff 	or     -0x1c8(%rbp),%rax
    db75:	48 85 c0             	test   %rax,%rax
    db78:	0f 94 c0             	sete   %al
    db7b:	0f b6 c0             	movzbl %al,%eax
    db7e:	48 8b b5 08 fe ff ff 	mov    -0x1f8(%rbp),%rsi
    db85:	48 89 c7             	mov    %rax,%rdi
    db88:	e8 f3 f4 ff ff       	callq  d080 <safe_mod_func_uint64_t_u_u>
    db8d:	48 8b 15 24 f2 00 00 	mov    0xf224(%rip),%rdx        # 1cdb8 <g_220>
    db94:	8b 12                	mov    (%rdx),%edx
    db96:	21 c2                	and    %eax,%edx
    db98:	48 8b 05 19 f2 00 00 	mov    0xf219(%rip),%rax        # 1cdb8 <g_220>
    db9f:	89 10                	mov    %edx,(%rax)
    dba1:	0f b7 05 84 d4 00 00 	movzwl 0xd484(%rip),%eax        # 1b02c <g_36>
    dba8:	66 85 c0             	test   %ax,%ax
    dbab:	74 05                	je     dbb2 <func_1+0x3fd>
    dbad:	e9 ed fc ff ff       	jmpq   d89f <func_1+0xea>
    dbb2:	48 8b 85 48 fe ff ff 	mov    -0x1b8(%rbp),%rax
    dbb9:	48 8b 5d c8          	mov    -0x38(%rbp),%rbx
    dbbd:	64 48 33 1c 25 28 00 	xor    %fs:0x28,%rbx
    dbc4:	00 00 
    dbc6:	74 05                	je     dbcd <func_1+0x418>
    dbc8:	e8 a3 e4 ff ff       	callq  c070 <__stack_chk_fail@plt>
    dbcd:	48 81 c4 e8 01 00 00 	add    $0x1e8,%rsp
    dbd4:	5b                   	pop    %rbx
    dbd5:	41 5c                	pop    %r12
    dbd7:	41 5d                	pop    %r13
    dbd9:	41 5e                	pop    %r14
    dbdb:	41 5f                	pop    %r15
    dbdd:	5d                   	pop    %rbp
    dbde:	c3                   	retq   

000000000000dbdf <func_8>:
    dbdf:	f3 0f 1e fa          	endbr64 
    dbe3:	55                   	push   %rbp
    dbe4:	48 89 e5             	mov    %rsp,%rbp
    dbe7:	41 54                	push   %r12
    dbe9:	53                   	push   %rbx
    dbea:	48 81 ec e0 04 00 00 	sub    $0x4e0,%rsp
    dbf1:	89 bd 2c fb ff ff    	mov    %edi,-0x4d4(%rbp)
    dbf7:	89 b5 28 fb ff ff    	mov    %esi,-0x4d8(%rbp)
    dbfd:	48 89 95 20 fb ff ff 	mov    %rdx,-0x4e0(%rbp)
    dc04:	89 8d 1c fb ff ff    	mov    %ecx,-0x4e4(%rbp)
    dc0a:	64 48 8b 04 25 28 00 	mov    %fs:0x28,%rax
    dc11:	00 00 
    dc13:	48 89 45 e8          	mov    %rax,-0x18(%rbp)
    dc17:	31 c0                	xor    %eax,%eax
    dc19:	66 c7 85 70 fb ff ff 	movw   $0xc4,-0x490(%rbp)
    dc20:	c4 00 
    dc22:	66 c7 85 72 fb ff ff 	movw   $0xa124,-0x48e(%rbp)
    dc29:	24 a1 
    dc2b:	66 c7 85 74 fb ff ff 	movw   $0xc4,-0x48c(%rbp)
    dc32:	c4 00 
    dc34:	66 c7 85 76 fb ff ff 	movw   $0xa124,-0x48a(%rbp)
    dc3b:	24 a1 
    dc3d:	66 c7 85 78 fb ff ff 	movw   $0xc4,-0x488(%rbp)
    dc44:	c4 00 
    dc46:	66 c7 85 7a fb ff ff 	movw   $0xa124,-0x486(%rbp)
    dc4d:	24 a1 
    dc4f:	66 c7 85 7c fb ff ff 	movw   $0xc4,-0x484(%rbp)
    dc56:	c4 00 
    dc58:	66 c7 85 7e fb ff ff 	movw   $0xa124,-0x482(%rbp)
    dc5f:	24 a1 
    dc61:	66 c7 85 3e fb ff ff 	movw   $0x32f3,-0x4c2(%rbp)
    dc68:	f3 32 
    dc6a:	48 8d 05 bb d3 00 00 	lea    0xd3bb(%rip),%rax        # 1b02c <g_36>
    dc71:	48 89 85 58 fb ff ff 	mov    %rax,-0x4a8(%rbp)
    dc78:	48 8d 05 59 d8 00 00 	lea    0xd859(%rip),%rax        # 1b4d8 <g_858>
    dc7f:	48 89 85 40 fb ff ff 	mov    %rax,-0x4c0(%rbp)
    dc86:	48 8d 85 40 fb ff ff 	lea    -0x4c0(%rbp),%rax
    dc8d:	48 89 85 48 fb ff ff 	mov    %rax,-0x4b8(%rbp)
    dc94:	48 c7 85 20 fc ff ff 	movq   $0x0,-0x3e0(%rbp)
    dc9b:	00 00 00 00 
    dc9f:	48 8d 85 48 fb ff ff 	lea    -0x4b8(%rbp),%rax
    dca6:	48 89 85 28 fc ff ff 	mov    %rax,-0x3d8(%rbp)
    dcad:	48 8d 85 48 fb ff ff 	lea    -0x4b8(%rbp),%rax
    dcb4:	48 89 85 30 fc ff ff 	mov    %rax,-0x3d0(%rbp)
    dcbb:	48 8d 85 48 fb ff ff 	lea    -0x4b8(%rbp),%rax
    dcc2:	48 89 85 38 fc ff ff 	mov    %rax,-0x3c8(%rbp)
    dcc9:	48 8d 85 48 fb ff ff 	lea    -0x4b8(%rbp),%rax
    dcd0:	48 89 85 40 fc ff ff 	mov    %rax,-0x3c0(%rbp)
    dcd7:	48 c7 85 48 fc ff ff 	movq   $0x0,-0x3b8(%rbp)
    dcde:	00 00 00 00 
    dce2:	48 8d 85 48 fb ff ff 	lea    -0x4b8(%rbp),%rax
    dce9:	48 89 85 50 fc ff ff 	mov    %rax,-0x3b0(%rbp)
    dcf0:	48 8d 85 48 fb ff ff 	lea    -0x4b8(%rbp),%rax
    dcf7:	48 89 85 58 fc ff ff 	mov    %rax,-0x3a8(%rbp)
    dcfe:	48 8d 85 48 fb ff ff 	lea    -0x4b8(%rbp),%rax
    dd05:	48 89 85 60 fc ff ff 	mov    %rax,-0x3a0(%rbp)
    dd0c:	48 c7 85 68 fc ff ff 	movq   $0x0,-0x398(%rbp)
    dd13:	00 00 00 00 
    dd17:	48 8d 85 48 fb ff ff 	lea    -0x4b8(%rbp),%rax
    dd1e:	48 89 85 70 fc ff ff 	mov    %rax,-0x390(%rbp)
    dd25:	48 8d 85 48 fb ff ff 	lea    -0x4b8(%rbp),%rax
    dd2c:	48 89 85 78 fc ff ff 	mov    %rax,-0x388(%rbp)
    dd33:	48 8d 85 48 fb ff ff 	lea    -0x4b8(%rbp),%rax
    dd3a:	48 89 85 80 fc ff ff 	mov    %rax,-0x380(%rbp)
    dd41:	48 8d 85 48 fb ff ff 	lea    -0x4b8(%rbp),%rax
    dd48:	48 89 85 88 fc ff ff 	mov    %rax,-0x378(%rbp)
    dd4f:	48 8d 85 48 fb ff ff 	lea    -0x4b8(%rbp),%rax
    dd56:	48 89 85 90 fc ff ff 	mov    %rax,-0x370(%rbp)
    dd5d:	48 8d 85 48 fb ff ff 	lea    -0x4b8(%rbp),%rax
    dd64:	48 89 85 98 fc ff ff 	mov    %rax,-0x368(%rbp)
    dd6b:	48 8d 85 48 fb ff ff 	lea    -0x4b8(%rbp),%rax
    dd72:	48 89 85 a0 fc ff ff 	mov    %rax,-0x360(%rbp)
    dd79:	48 8d 85 48 fb ff ff 	lea    -0x4b8(%rbp),%rax
    dd80:	48 89 85 a8 fc ff ff 	mov    %rax,-0x358(%rbp)
    dd87:	48 8d 85 48 fb ff ff 	lea    -0x4b8(%rbp),%rax
    dd8e:	48 89 85 b0 fc ff ff 	mov    %rax,-0x350(%rbp)
    dd95:	48 8d 85 48 fb ff ff 	lea    -0x4b8(%rbp),%rax
    dd9c:	48 89 85 b8 fc ff ff 	mov    %rax,-0x348(%rbp)
    dda3:	48 8d 85 48 fb ff ff 	lea    -0x4b8(%rbp),%rax
    ddaa:	48 89 85 c0 fc ff ff 	mov    %rax,-0x340(%rbp)
    ddb1:	48 8d 85 48 fb ff ff 	lea    -0x4b8(%rbp),%rax
    ddb8:	48 89 85 c8 fc ff ff 	mov    %rax,-0x338(%rbp)
    ddbf:	48 8d 85 48 fb ff ff 	lea    -0x4b8(%rbp),%rax
    ddc6:	48 89 85 d0 fc ff ff 	mov    %rax,-0x330(%rbp)
    ddcd:	48 8d 85 48 fb ff ff 	lea    -0x4b8(%rbp),%rax
    ddd4:	48 89 85 d8 fc ff ff 	mov    %rax,-0x328(%rbp)
    dddb:	48 8d 85 48 fb ff ff 	lea    -0x4b8(%rbp),%rax
    dde2:	48 89 85 e0 fc ff ff 	mov    %rax,-0x320(%rbp)
    dde9:	48 8d 85 48 fb ff ff 	lea    -0x4b8(%rbp),%rax
    ddf0:	48 89 85 e8 fc ff ff 	mov    %rax,-0x318(%rbp)
    ddf7:	48 8d 85 48 fb ff ff 	lea    -0x4b8(%rbp),%rax
    ddfe:	48 89 85 f0 fc ff ff 	mov    %rax,-0x310(%rbp)
    de05:	48 c7 85 f8 fc ff ff 	movq   $0x0,-0x308(%rbp)
    de0c:	00 00 00 00 
    de10:	48 8d 85 48 fb ff ff 	lea    -0x4b8(%rbp),%rax
    de17:	48 89 85 00 fd ff ff 	mov    %rax,-0x300(%rbp)
    de1e:	48 c7 85 08 fd ff ff 	movq   $0x0,-0x2f8(%rbp)
    de25:	00 00 00 00 
    de29:	48 8d 85 48 fb ff ff 	lea    -0x4b8(%rbp),%rax
    de30:	48 89 85 10 fd ff ff 	mov    %rax,-0x2f0(%rbp)
    de37:	48 8d 85 48 fb ff ff 	lea    -0x4b8(%rbp),%rax
    de3e:	48 89 85 18 fd ff ff 	mov    %rax,-0x2e8(%rbp)
    de45:	48 c7 85 20 fd ff ff 	movq   $0x0,-0x2e0(%rbp)
    de4c:	00 00 00 00 
    de50:	48 8d 85 48 fb ff ff 	lea    -0x4b8(%rbp),%rax
    de57:	48 89 85 28 fd ff ff 	mov    %rax,-0x2d8(%rbp)
    de5e:	48 8d 85 48 fb ff ff 	lea    -0x4b8(%rbp),%rax
    de65:	48 89 85 30 fd ff ff 	mov    %rax,-0x2d0(%rbp)
    de6c:	48 8d 85 48 fb ff ff 	lea    -0x4b8(%rbp),%rax
    de73:	48 89 85 38 fd ff ff 	mov    %rax,-0x2c8(%rbp)
    de7a:	48 c7 85 40 fd ff ff 	movq   $0x0,-0x2c0(%rbp)
    de81:	00 00 00 00 
    de85:	48 8d 85 48 fb ff ff 	lea    -0x4b8(%rbp),%rax
    de8c:	48 89 85 48 fd ff ff 	mov    %rax,-0x2b8(%rbp)
    de93:	48 8d 85 48 fb ff ff 	lea    -0x4b8(%rbp),%rax
    de9a:	48 89 85 50 fd ff ff 	mov    %rax,-0x2b0(%rbp)
    dea1:	48 8d 85 48 fb ff ff 	lea    -0x4b8(%rbp),%rax
    dea8:	48 89 85 58 fd ff ff 	mov    %rax,-0x2a8(%rbp)
    deaf:	48 8d 85 48 fb ff ff 	lea    -0x4b8(%rbp),%rax
    deb6:	48 89 85 60 fd ff ff 	mov    %rax,-0x2a0(%rbp)
    debd:	48 8d 85 48 fb ff ff 	lea    -0x4b8(%rbp),%rax
    dec4:	48 89 85 68 fd ff ff 	mov    %rax,-0x298(%rbp)
    decb:	48 8d 85 48 fb ff ff 	lea    -0x4b8(%rbp),%rax
    ded2:	48 89 85 70 fd ff ff 	mov    %rax,-0x290(%rbp)
    ded9:	48 8d 85 48 fb ff ff 	lea    -0x4b8(%rbp),%rax
    dee0:	48 89 85 78 fd ff ff 	mov    %rax,-0x288(%rbp)
    dee7:	48 c7 85 80 fd ff ff 	movq   $0x0,-0x280(%rbp)
    deee:	00 00 00 00 
    def2:	48 8d 85 48 fb ff ff 	lea    -0x4b8(%rbp),%rax
    def9:	48 89 85 88 fd ff ff 	mov    %rax,-0x278(%rbp)
    df00:	48 8d 85 48 fb ff ff 	lea    -0x4b8(%rbp),%rax
    df07:	48 89 85 90 fd ff ff 	mov    %rax,-0x270(%rbp)
    df0e:	48 8d 85 48 fb ff ff 	lea    -0x4b8(%rbp),%rax
    df15:	48 89 85 98 fd ff ff 	mov    %rax,-0x268(%rbp)
    df1c:	48 8d 85 48 fb ff ff 	lea    -0x4b8(%rbp),%rax
    df23:	48 89 85 a0 fd ff ff 	mov    %rax,-0x260(%rbp)
    df2a:	48 c7 85 a8 fd ff ff 	movq   $0x0,-0x258(%rbp)
    df31:	00 00 00 00 
    df35:	48 8d 85 48 fb ff ff 	lea    -0x4b8(%rbp),%rax
    df3c:	48 89 85 b0 fd ff ff 	mov    %rax,-0x250(%rbp)
    df43:	48 8d 85 48 fb ff ff 	lea    -0x4b8(%rbp),%rax
    df4a:	48 89 85 b8 fd ff ff 	mov    %rax,-0x248(%rbp)
    df51:	48 8d 85 48 fb ff ff 	lea    -0x4b8(%rbp),%rax
    df58:	48 89 85 c0 fd ff ff 	mov    %rax,-0x240(%rbp)
    df5f:	48 8d 85 48 fb ff ff 	lea    -0x4b8(%rbp),%rax
    df66:	48 89 85 c8 fd ff ff 	mov    %rax,-0x238(%rbp)
    df6d:	48 8d 85 48 fb ff ff 	lea    -0x4b8(%rbp),%rax
    df74:	48 89 85 d0 fd ff ff 	mov    %rax,-0x230(%rbp)
    df7b:	48 8d 85 48 fb ff ff 	lea    -0x4b8(%rbp),%rax
    df82:	48 89 85 d8 fd ff ff 	mov    %rax,-0x228(%rbp)
    df89:	48 8d 85 48 fb ff ff 	lea    -0x4b8(%rbp),%rax
    df90:	48 89 85 e0 fd ff ff 	mov    %rax,-0x220(%rbp)
    df97:	48 8d 85 48 fb ff ff 	lea    -0x4b8(%rbp),%rax
    df9e:	48 89 85 e8 fd ff ff 	mov    %rax,-0x218(%rbp)
    dfa5:	48 8d 85 48 fb ff ff 	lea    -0x4b8(%rbp),%rax
    dfac:	48 89 85 f0 fd ff ff 	mov    %rax,-0x210(%rbp)
    dfb3:	48 8d 85 48 fb ff ff 	lea    -0x4b8(%rbp),%rax
    dfba:	48 89 85 f8 fd ff ff 	mov    %rax,-0x208(%rbp)
    dfc1:	48 8d 85 48 fb ff ff 	lea    -0x4b8(%rbp),%rax
    dfc8:	48 89 85 00 fe ff ff 	mov    %rax,-0x200(%rbp)
    dfcf:	48 8d 85 48 fb ff ff 	lea    -0x4b8(%rbp),%rax
    dfd6:	48 89 85 08 fe ff ff 	mov    %rax,-0x1f8(%rbp)
    dfdd:	48 8d 85 48 fb ff ff 	lea    -0x4b8(%rbp),%rax
    dfe4:	48 89 85 10 fe ff ff 	mov    %rax,-0x1f0(%rbp)
    dfeb:	48 8d 85 48 fb ff ff 	lea    -0x4b8(%rbp),%rax
    dff2:	48 89 85 18 fe ff ff 	mov    %rax,-0x1e8(%rbp)
    dff9:	48 8d 85 48 fb ff ff 	lea    -0x4b8(%rbp),%rax
    e000:	48 89 85 20 fe ff ff 	mov    %rax,-0x1e0(%rbp)
    e007:	48 8d 85 48 fb ff ff 	lea    -0x4b8(%rbp),%rax
    e00e:	48 89 85 28 fe ff ff 	mov    %rax,-0x1d8(%rbp)
    e015:	48 8d 85 48 fb ff ff 	lea    -0x4b8(%rbp),%rax
    e01c:	48 89 85 30 fe ff ff 	mov    %rax,-0x1d0(%rbp)
    e023:	48 8d 85 48 fb ff ff 	lea    -0x4b8(%rbp),%rax
    e02a:	48 89 85 38 fe ff ff 	mov    %rax,-0x1c8(%rbp)
    e031:	48 c7 85 40 fe ff ff 	movq   $0x0,-0x1c0(%rbp)
    e038:	00 00 00 00 
    e03c:	48 8d 85 48 fb ff ff 	lea    -0x4b8(%rbp),%rax
    e043:	48 89 85 48 fe ff ff 	mov    %rax,-0x1b8(%rbp)
    e04a:	48 8d 85 48 fb ff ff 	lea    -0x4b8(%rbp),%rax
    e051:	48 89 85 50 fe ff ff 	mov    %rax,-0x1b0(%rbp)
    e058:	48 c7 85 58 fe ff ff 	movq   $0x0,-0x1a8(%rbp)
    e05f:	00 00 00 00 
    e063:	48 8d 85 48 fb ff ff 	lea    -0x4b8(%rbp),%rax
    e06a:	48 89 85 60 fe ff ff 	mov    %rax,-0x1a0(%rbp)
    e071:	48 c7 85 68 fe ff ff 	movq   $0x0,-0x198(%rbp)
    e078:	00 00 00 00 
    e07c:	48 c7 85 70 fe ff ff 	movq   $0x0,-0x190(%rbp)
    e083:	00 00 00 00 
    e087:	48 8d 85 48 fb ff ff 	lea    -0x4b8(%rbp),%rax
    e08e:	48 89 85 78 fe ff ff 	mov    %rax,-0x188(%rbp)
    e095:	48 8d 85 48 fb ff ff 	lea    -0x4b8(%rbp),%rax
    e09c:	48 89 85 80 fe ff ff 	mov    %rax,-0x180(%rbp)
    e0a3:	48 8d 85 48 fb ff ff 	lea    -0x4b8(%rbp),%rax
    e0aa:	48 89 85 88 fe ff ff 	mov    %rax,-0x178(%rbp)
    e0b1:	48 8d 85 48 fb ff ff 	lea    -0x4b8(%rbp),%rax
    e0b8:	48 89 85 90 fe ff ff 	mov    %rax,-0x170(%rbp)
    e0bf:	48 c7 85 98 fe ff ff 	movq   $0x0,-0x168(%rbp)
    e0c6:	00 00 00 00 
    e0ca:	48 8d 85 48 fb ff ff 	lea    -0x4b8(%rbp),%rax
    e0d1:	48 89 85 a0 fe ff ff 	mov    %rax,-0x160(%rbp)
    e0d8:	48 8d 85 48 fb ff ff 	lea    -0x4b8(%rbp),%rax
    e0df:	48 89 85 a8 fe ff ff 	mov    %rax,-0x158(%rbp)
    e0e6:	48 8d 85 48 fb ff ff 	lea    -0x4b8(%rbp),%rax
    e0ed:	48 89 85 b0 fe ff ff 	mov    %rax,-0x150(%rbp)
    e0f4:	48 8d 85 48 fb ff ff 	lea    -0x4b8(%rbp),%rax
    e0fb:	48 89 85 b8 fe ff ff 	mov    %rax,-0x148(%rbp)
    e102:	48 8d 85 48 fb ff ff 	lea    -0x4b8(%rbp),%rax
    e109:	48 89 85 c0 fe ff ff 	mov    %rax,-0x140(%rbp)
    e110:	48 8d 85 48 fb ff ff 	lea    -0x4b8(%rbp),%rax
    e117:	48 89 85 c8 fe ff ff 	mov    %rax,-0x138(%rbp)
    e11e:	48 c7 85 d0 fe ff ff 	movq   $0x0,-0x130(%rbp)
    e125:	00 00 00 00 
    e129:	48 c7 85 d8 fe ff ff 	movq   $0x0,-0x128(%rbp)
    e130:	00 00 00 00 
    e134:	48 8d 85 48 fb ff ff 	lea    -0x4b8(%rbp),%rax
    e13b:	48 89 85 e0 fe ff ff 	mov    %rax,-0x120(%rbp)
    e142:	48 8d 85 48 fb ff ff 	lea    -0x4b8(%rbp),%rax
    e149:	48 89 85 e8 fe ff ff 	mov    %rax,-0x118(%rbp)
    e150:	48 8d 85 48 fb ff ff 	lea    -0x4b8(%rbp),%rax
    e157:	48 89 85 f0 fe ff ff 	mov    %rax,-0x110(%rbp)
    e15e:	48 8d 85 48 fb ff ff 	lea    -0x4b8(%rbp),%rax
    e165:	48 89 85 f8 fe ff ff 	mov    %rax,-0x108(%rbp)
    e16c:	48 8d 85 48 fb ff ff 	lea    -0x4b8(%rbp),%rax
    e173:	48 89 85 00 ff ff ff 	mov    %rax,-0x100(%rbp)
    e17a:	48 8d 85 48 fb ff ff 	lea    -0x4b8(%rbp),%rax
    e181:	48 89 85 08 ff ff ff 	mov    %rax,-0xf8(%rbp)
    e188:	48 8d 85 48 fb ff ff 	lea    -0x4b8(%rbp),%rax
    e18f:	48 89 85 10 ff ff ff 	mov    %rax,-0xf0(%rbp)
    e196:	48 8d 85 48 fb ff ff 	lea    -0x4b8(%rbp),%rax
    e19d:	48 89 85 18 ff ff ff 	mov    %rax,-0xe8(%rbp)
    e1a4:	48 8d 85 48 fb ff ff 	lea    -0x4b8(%rbp),%rax
    e1ab:	48 89 85 20 ff ff ff 	mov    %rax,-0xe0(%rbp)
    e1b2:	48 8d 85 48 fb ff ff 	lea    -0x4b8(%rbp),%rax
    e1b9:	48 89 85 28 ff ff ff 	mov    %rax,-0xd8(%rbp)
    e1c0:	48 8d 85 48 fb ff ff 	lea    -0x4b8(%rbp),%rax
    e1c7:	48 89 85 30 ff ff ff 	mov    %rax,-0xd0(%rbp)
    e1ce:	48 8d 85 48 fb ff ff 	lea    -0x4b8(%rbp),%rax
    e1d5:	48 89 85 38 ff ff ff 	mov    %rax,-0xc8(%rbp)
    e1dc:	48 8d 85 48 fb ff ff 	lea    -0x4b8(%rbp),%rax
    e1e3:	48 89 85 40 ff ff ff 	mov    %rax,-0xc0(%rbp)
    e1ea:	48 8d 85 48 fb ff ff 	lea    -0x4b8(%rbp),%rax
    e1f1:	48 89 85 48 ff ff ff 	mov    %rax,-0xb8(%rbp)
    e1f8:	48 8d 85 48 fb ff ff 	lea    -0x4b8(%rbp),%rax
    e1ff:	48 89 85 50 ff ff ff 	mov    %rax,-0xb0(%rbp)
    e206:	48 8d 85 48 fb ff ff 	lea    -0x4b8(%rbp),%rax
    e20d:	48 89 85 58 ff ff ff 	mov    %rax,-0xa8(%rbp)
    e214:	48 8d 85 48 fb ff ff 	lea    -0x4b8(%rbp),%rax
    e21b:	48 89 85 60 ff ff ff 	mov    %rax,-0xa0(%rbp)
    e222:	48 8d 85 48 fb ff ff 	lea    -0x4b8(%rbp),%rax
    e229:	48 89 85 68 ff ff ff 	mov    %rax,-0x98(%rbp)
    e230:	48 8d 85 48 fb ff ff 	lea    -0x4b8(%rbp),%rax
    e237:	48 89 85 70 ff ff ff 	mov    %rax,-0x90(%rbp)
    e23e:	48 8d 85 48 fb ff ff 	lea    -0x4b8(%rbp),%rax
    e245:	48 89 85 78 ff ff ff 	mov    %rax,-0x88(%rbp)
    e24c:	48 8d 85 48 fb ff ff 	lea    -0x4b8(%rbp),%rax
    e253:	48 89 45 80          	mov    %rax,-0x80(%rbp)
    e257:	48 8d 85 48 fb ff ff 	lea    -0x4b8(%rbp),%rax
    e25e:	48 89 45 88          	mov    %rax,-0x78(%rbp)
    e262:	48 8d 85 48 fb ff ff 	lea    -0x4b8(%rbp),%rax
    e269:	48 89 45 90          	mov    %rax,-0x70(%rbp)
    e26d:	48 8d 85 48 fb ff ff 	lea    -0x4b8(%rbp),%rax
    e274:	48 89 45 98          	mov    %rax,-0x68(%rbp)
    e278:	48 8d 85 48 fb ff ff 	lea    -0x4b8(%rbp),%rax
    e27f:	48 89 45 a0          	mov    %rax,-0x60(%rbp)
    e283:	48 8d 85 48 fb ff ff 	lea    -0x4b8(%rbp),%rax
    e28a:	48 89 45 a8          	mov    %rax,-0x58(%rbp)
    e28e:	48 8d 85 48 fb ff ff 	lea    -0x4b8(%rbp),%rax
    e295:	48 89 45 b0          	mov    %rax,-0x50(%rbp)
    e299:	48 8d 85 48 fb ff ff 	lea    -0x4b8(%rbp),%rax
    e2a0:	48 89 45 b8          	mov    %rax,-0x48(%rbp)
    e2a4:	48 8d 85 48 fb ff ff 	lea    -0x4b8(%rbp),%rax
    e2ab:	48 89 45 c0          	mov    %rax,-0x40(%rbp)
    e2af:	48 8d 85 48 fb ff ff 	lea    -0x4b8(%rbp),%rax
    e2b6:	48 89 45 c8          	mov    %rax,-0x38(%rbp)
    e2ba:	48 c7 45 d0 00 00 00 	movq   $0x0,-0x30(%rbp)
    e2c1:	00 
    e2c2:	48 8d 85 48 fb ff ff 	lea    -0x4b8(%rbp),%rax
    e2c9:	48 89 45 d8          	mov    %rax,-0x28(%rbp)
    e2cd:	48 8d 85 20 fc ff ff 	lea    -0x3e0(%rbp),%rax
    e2d4:	48 05 98 01 00 00    	add    $0x198,%rax
    e2da:	48 89 85 50 fb ff ff 	mov    %rax,-0x4b0(%rbp)
    e2e1:	48 8d 85 50 fb ff ff 	lea    -0x4b0(%rbp),%rax
    e2e8:	48 89 85 60 fb ff ff 	mov    %rax,-0x4a0(%rbp)
    e2ef:	48 8d 05 0a d2 00 00 	lea    0xd20a(%rip),%rax        # 1b500 <g_1123>
    e2f6:	48 89 85 68 fb ff ff 	mov    %rax,-0x498(%rbp)
    e2fd:	c7 85 80 fb ff ff eb 	movl   $0xe95960eb,-0x480(%rbp)
    e304:	60 59 e9 
    e307:	c7 85 84 fb ff ff 07 	movl   $0x7,-0x47c(%rbp)
    e30e:	00 00 00 
    e311:	c7 85 88 fb ff ff eb 	movl   $0xe95960eb,-0x478(%rbp)
    e318:	60 59 e9 
    e31b:	c7 85 8c fb ff ff 01 	movl   $0x1,-0x474(%rbp)
    e322:	00 00 00 
    e325:	c7 85 90 fb ff ff 01 	movl   $0x1,-0x470(%rbp)
    e32c:	00 00 00 
    e32f:	c7 85 94 fb ff ff f9 	movl   $0x95a61ef9,-0x46c(%rbp)
    e336:	1e a6 95 
    e339:	c7 85 98 fb ff ff 09 	movl   $0x9,-0x468(%rbp)
    e340:	00 00 00 
    e343:	c7 85 9c fb ff ff f9 	movl   $0x95a61ef9,-0x464(%rbp)
    e34a:	1e a6 95 
    e34d:	c7 85 a0 fb ff ff f7 	movl   $0xfffffff7,-0x460(%rbp)
    e354:	ff ff ff 
    e357:	c7 85 a4 fb ff ff f7 	movl   $0xfffffff7,-0x45c(%rbp)
    e35e:	ff ff ff 
    e361:	c7 85 a8 fb ff ff eb 	movl   $0xe95960eb,-0x458(%rbp)
    e368:	60 59 e9 
    e36b:	c7 85 ac fb ff ff 07 	movl   $0x7,-0x454(%rbp)
    e372:	00 00 00 
    e375:	c7 85 b0 fb ff ff eb 	movl   $0xe95960eb,-0x450(%rbp)
    e37c:	60 59 e9 
    e37f:	c7 85 b4 fb ff ff 01 	movl   $0x1,-0x44c(%rbp)
    e386:	00 00 00 
    e389:	c7 85 b8 fb ff ff 01 	movl   $0x1,-0x448(%rbp)
    e390:	00 00 00 
    e393:	c7 85 bc fb ff ff f9 	movl   $0x95a61ef9,-0x444(%rbp)
    e39a:	1e a6 95 
    e39d:	c7 85 c0 fb ff ff 09 	movl   $0x9,-0x440(%rbp)
    e3a4:	00 00 00 
    e3a7:	c7 85 c4 fb ff ff f9 	movl   $0x95a61ef9,-0x43c(%rbp)
    e3ae:	1e a6 95 
    e3b1:	c7 85 c8 fb ff ff f7 	movl   $0xfffffff7,-0x438(%rbp)
    e3b8:	ff ff ff 
    e3bb:	c7 85 cc fb ff ff f7 	movl   $0xfffffff7,-0x434(%rbp)
    e3c2:	ff ff ff 
    e3c5:	c7 85 d0 fb ff ff eb 	movl   $0xe95960eb,-0x430(%rbp)
    e3cc:	60 59 e9 
    e3cf:	c7 85 d4 fb ff ff 07 	movl   $0x7,-0x42c(%rbp)
    e3d6:	00 00 00 
    e3d9:	c7 85 d8 fb ff ff eb 	movl   $0xe95960eb,-0x428(%rbp)
    e3e0:	60 59 e9 
    e3e3:	c7 85 dc fb ff ff 01 	movl   $0x1,-0x424(%rbp)
    e3ea:	00 00 00 
    e3ed:	c7 85 e0 fb ff ff 01 	movl   $0x1,-0x420(%rbp)
    e3f4:	00 00 00 
    e3f7:	c7 85 e4 fb ff ff f9 	movl   $0x95a61ef9,-0x41c(%rbp)
    e3fe:	1e a6 95 
    e401:	c7 85 e8 fb ff ff 09 	movl   $0x9,-0x418(%rbp)
    e408:	00 00 00 
    e40b:	c7 85 ec fb ff ff f9 	movl   $0x95a61ef9,-0x414(%rbp)
    e412:	1e a6 95 
    e415:	c7 85 f0 fb ff ff f7 	movl   $0xfffffff7,-0x410(%rbp)
    e41c:	ff ff ff 
    e41f:	c7 85 f4 fb ff ff f7 	movl   $0xfffffff7,-0x40c(%rbp)
    e426:	ff ff ff 
    e429:	c7 85 f8 fb ff ff eb 	movl   $0xe95960eb,-0x408(%rbp)
    e430:	60 59 e9 
    e433:	c7 85 fc fb ff ff 07 	movl   $0x7,-0x404(%rbp)
    e43a:	00 00 00 
    e43d:	c7 85 00 fc ff ff eb 	movl   $0xe95960eb,-0x400(%rbp)
    e444:	60 59 e9 
    e447:	c7 85 04 fc ff ff 01 	movl   $0x1,-0x3fc(%rbp)
    e44e:	00 00 00 
    e451:	c7 85 08 fc ff ff 01 	movl   $0x1,-0x3f8(%rbp)
    e458:	00 00 00 
    e45b:	c7 85 0c fc ff ff f9 	movl   $0x95a61ef9,-0x3f4(%rbp)
    e462:	1e a6 95 
    e465:	c7 85 10 fc ff ff 09 	movl   $0x9,-0x3f0(%rbp)
    e46c:	00 00 00 
    e46f:	c7 85 14 fc ff ff f9 	movl   $0x95a61ef9,-0x3ec(%rbp)
    e476:	1e a6 95 
    e479:	c7 85 18 fc ff ff f7 	movl   $0xfffffff7,-0x3e8(%rbp)
    e480:	ff ff ff 
    e483:	c7 85 1c fc ff ff f7 	movl   $0xfffffff7,-0x3e4(%rbp)
    e48a:	ff ff ff 
    e48d:	8b 05 91 cb 00 00    	mov    0xcb91(%rip),%eax        # 1b024 <g_14>
    e493:	0f be d8             	movsbl %al,%ebx
    e496:	0f b7 85 3e fb ff ff 	movzwl -0x4c2(%rbp),%eax
    e49d:	4c 0f bf e0          	movswq %ax,%r12
    e4a1:	be 03 00 00 00       	mov    $0x3,%esi
    e4a6:	bf 70 00 00 00       	mov    $0x70,%edi
    e4ab:	e8 dd e7 ff ff       	callq  cc8d <safe_rshift_func_uint8_t_u_s>
    e4b0:	0f b6 c0             	movzbl %al,%eax
    e4b3:	4c 89 e6             	mov    %r12,%rsi
    e4b6:	48 89 c7             	mov    %rax,%rdi
    e4b9:	e8 f6 e4 ff ff       	callq  c9b4 <safe_mod_func_int64_t_s_s>
    e4be:	0f b6 c0             	movzbl %al,%eax
    e4c1:	89 c6                	mov    %eax,%esi
    e4c3:	bf 01 00 00 00       	mov    $0x1,%edi
    e4c8:	e8 8d e6 ff ff       	callq  cb5a <safe_add_func_uint8_t_u_u>
    e4cd:	44 0f b6 e0          	movzbl %al,%r12d
    e4d1:	83 bd 28 fb ff ff 00 	cmpl   $0x0,-0x4d8(%rbp)
    e4d8:	0f 94 c0             	sete   %al
    e4db:	0f b6 c0             	movzbl %al,%eax
    e4de:	be 01 00 00 00       	mov    $0x1,%esi
    e4e3:	89 c7                	mov    %eax,%edi
    e4e5:	e8 f7 df ff ff       	callq  c4e1 <safe_lshift_func_int16_t_s_u>
    e4ea:	48 8b 95 58 fb ff ff 	mov    -0x4a8(%rbp),%rdx
    e4f1:	0f b7 12             	movzwl (%rdx),%edx
    e4f4:	31 c2                	xor    %eax,%edx
    e4f6:	48 8b 85 58 fb ff ff 	mov    -0x4a8(%rbp),%rax
    e4fd:	66 89 10             	mov    %dx,(%rax)
    e500:	48 8b 85 58 fb ff ff 	mov    -0x4a8(%rbp),%rax
    e507:	0f b7 00             	movzwl (%rax),%eax
    e50a:	98                   	cwtl   
    e50b:	44 89 e6             	mov    %r12d,%esi
    e50e:	89 c7                	mov    %eax,%edi
    e510:	e8 9e de ff ff       	callq  c3b3 <safe_add_func_int16_t_s_s>
    e515:	8b 05 0d cb 00 00    	mov    0xcb0d(%rip),%eax        # 1b028 <g_16>
    e51b:	0f be c0             	movsbl %al,%eax
    e51e:	89 de                	mov    %ebx,%esi
    e520:	89 c7                	mov    %eax,%edi
    e522:	e8 ad dc ff ff       	callq  c1d4 <safe_add_func_int8_t_s_s>
    e527:	0f b7 85 3e fb ff ff 	movzwl -0x4c2(%rbp),%eax
    e52e:	98                   	cwtl   
    e52f:	8b 95 2c fb ff ff    	mov    -0x4d4(%rbp),%edx
    e535:	be f7 ff ff ff       	mov    $0xfffffff7,%esi
    e53a:	89 c7                	mov    %eax,%edi
    e53c:	e8 03 01 00 00       	callq  e644 <func_24>
    e541:	48 8b 05 98 e8 00 00 	mov    0xe898(%rip),%rax        # 1cde0 <g_284>
    e548:	48 8b 00             	mov    (%rax),%rax
    e54b:	c7 00 d8 de 7c 68    	movl   $0x687cded8,(%rax)
    e551:	48 83 bd 68 fb ff ff 	cmpq   $0x0,-0x498(%rbp)
    e558:	00 
    e559:	0f 95 c0             	setne  %al
    e55c:	0f b6 d0             	movzbl %al,%edx
    e55f:	48 8b 05 2a 11 01 00 	mov    0x1112a(%rip),%rax        # 1f690 <g_3053>
    e566:	48 8b 00             	mov    (%rax),%rax
    e569:	48 8b 00             	mov    (%rax),%rax
    e56c:	48 8b 08             	mov    (%rax),%rcx
    e56f:	48 8d 05 8a 01 01 00 	lea    0x1018a(%rip),%rax        # 1e700 <g_1638>
    e576:	48 39 85 60 fb ff ff 	cmp    %rax,-0x4a0(%rbp)
    e57d:	0f 95 c0             	setne  %al
    e580:	0f b6 c0             	movzbl %al,%eax
    e583:	48 39 c1             	cmp    %rax,%rcx
    e586:	0f 97 c0             	seta   %al
    e589:	0f b6 c0             	movzbl %al,%eax
    e58c:	48 89 d6             	mov    %rdx,%rsi
    e58f:	48 89 c7             	mov    %rax,%rdi
    e592:	e8 aa e2 ff ff       	callq  c841 <safe_add_func_int64_t_s_s>
    e597:	48 85 c0             	test   %rax,%rax
    e59a:	0f b7 85 3e fb ff ff 	movzwl -0x4c2(%rbp),%eax
    e5a1:	0f be d8             	movsbl %al,%ebx
    e5a4:	0f b7 85 76 fb ff ff 	movzwl -0x48a(%rbp),%eax
    e5ab:	0f b7 c0             	movzwl %ax,%eax
    e5ae:	be 00 00 00 00       	mov    $0x0,%esi
    e5b3:	89 c7                	mov    %eax,%edi
    e5b5:	e8 fc df ff ff       	callq  c5b6 <safe_add_func_int32_t_s_s>
    e5ba:	0f be c0             	movsbl %al,%eax
    e5bd:	89 de                	mov    %ebx,%esi
    e5bf:	89 c7                	mov    %eax,%edi
    e5c1:	e8 2c dc ff ff       	callq  c1f2 <safe_sub_func_int8_t_s_s>
    e5c6:	48 0f be d0          	movsbq %al,%rdx
    e5ca:	48 8b 05 5f e9 00 00 	mov    0xe95f(%rip),%rax        # 1cf30 <g_834>
    e5d1:	48 8b 00             	mov    (%rax),%rax
    e5d4:	48 8b 00             	mov    (%rax),%rax
    e5d7:	48 8b 00             	mov    (%rax),%rax
    e5da:	48 39 c2             	cmp    %rax,%rdx
    e5dd:	c7 85 2c fb ff ff 00 	movl   $0x0,-0x4d4(%rbp)
    e5e4:	00 00 00 
    e5e7:	0f b7 85 76 fb ff ff 	movzwl -0x48a(%rbp),%eax
    e5ee:	0f b7 c0             	movzwl %ax,%eax
    e5f1:	39 85 2c fb ff ff    	cmp    %eax,-0x4d4(%rbp)
    e5f7:	0f 9c c0             	setl   %al
    e5fa:	0f b6 c0             	movzbl %al,%eax
    e5fd:	39 85 1c fb ff ff    	cmp    %eax,-0x4e4(%rbp)
    e603:	0f 94 c0             	sete   %al
    e606:	0f b6 c8             	movzbl %al,%ecx
    e609:	48 8b 05 a8 e7 00 00 	mov    0xe7a8(%rip),%rax        # 1cdb8 <g_220>
    e610:	8b 10                	mov    (%rax),%edx
    e612:	48 8b 05 9f e7 00 00 	mov    0xe79f(%rip),%rax        # 1cdb8 <g_220>
    e619:	09 ca                	or     %ecx,%edx
    e61b:	89 10                	mov    %edx,(%rax)
    e61d:	48 8b 85 20 fb ff ff 	mov    -0x4e0(%rbp),%rax
    e624:	48 8b 5d e8          	mov    -0x18(%rbp),%rbx
    e628:	64 48 33 1c 25 28 00 	xor    %fs:0x28,%rbx
    e62f:	00 00 
    e631:	74 05                	je     e638 <func_8+0xa59>
    e633:	e8 38 da ff ff       	callq  c070 <__stack_chk_fail@plt>
    e638:	48 81 c4 e0 04 00 00 	add    $0x4e0,%rsp
    e63f:	5b                   	pop    %rbx
    e640:	41 5c                	pop    %r12
    e642:	5d                   	pop    %rbp
    e643:	c3                   	retq   

000000000000e644 <func_24>:
    e644:	f3 0f 1e fa          	endbr64 
    e648:	55                   	push   %rbp
    e649:	48 89 e5             	mov    %rsp,%rbp
    e64c:	48 83 ec 60          	sub    $0x60,%rsp
    e650:	89 7d ac             	mov    %edi,-0x54(%rbp)
    e653:	89 f0                	mov    %esi,%eax
    e655:	89 55 a4             	mov    %edx,-0x5c(%rbp)
    e658:	66 89 45 a8          	mov    %ax,-0x58(%rbp)
    e65c:	64 48 8b 04 25 28 00 	mov    %fs:0x28,%rax
    e663:	00 00 
    e665:	48 89 45 f8          	mov    %rax,-0x8(%rbp)
    e669:	31 c0                	xor    %eax,%eax
    e66b:	48 c7 45 d0 ff ff ff 	movq   $0xffffffffffffffff,-0x30(%rbp)
    e672:	ff 
    e673:	48 c7 45 d8 ff ff ff 	movq   $0xffffffffffffffff,-0x28(%rbp)
    e67a:	ff 
    e67b:	48 c7 45 e0 ff ff ff 	movq   $0xffffffffffffffff,-0x20(%rbp)
    e682:	ff 
    e683:	48 c7 45 e8 ff ff ff 	movq   $0xffffffffffffffff,-0x18(%rbp)
    e68a:	ff 
    e68b:	48 c7 45 f0 ff ff ff 	movq   $0xffffffffffffffff,-0x10(%rbp)
    e692:	ff 
    e693:	c7 45 ac 17 00 00 00 	movl   $0x17,-0x54(%rbp)
    e69a:	eb 47                	jmp    e6e3 <func_24+0x9f>
    e69c:	c7 45 b0 00 00 00 00 	movl   $0x0,-0x50(%rbp)
    e6a3:	48 8d 05 de cc 00 00 	lea    0xccde(%rip),%rax        # 1b388 <g_403>
    e6aa:	48 89 45 b8          	mov    %rax,-0x48(%rbp)
    e6ae:	48 8d 05 df ce 00 00 	lea    0xcedf(%rip),%rax        # 1b594 <g_2912>
    e6b5:	48 89 45 c0          	mov    %rax,-0x40(%rbp)
    e6b9:	c7 45 b4 78 b9 f1 66 	movl   $0x66f1b978,-0x4c(%rbp)
    e6c0:	48 8d 05 69 1e 01 00 	lea    0x11e69(%rip),%rax        # 20530 <g_244>
    e6c7:	48 89 45 c8          	mov    %rax,-0x38(%rbp)
    e6cb:	8b 45 ac             	mov    -0x54(%rbp),%eax
    e6ce:	0f b6 c0             	movzbl %al,%eax
    e6d1:	be 06 00 00 00       	mov    $0x6,%esi
    e6d6:	89 c7                	mov    %eax,%edi
    e6d8:	e8 9b e4 ff ff       	callq  cb78 <safe_sub_func_uint8_t_u_u>
    e6dd:	0f b6 c0             	movzbl %al,%eax
    e6e0:	89 45 ac             	mov    %eax,-0x54(%rbp)
    e6e3:	83 7d ac 11          	cmpl   $0x11,-0x54(%rbp)
    e6e7:	75 b3                	jne    e69c <func_24+0x58>
    e6e9:	48 8b 45 e8          	mov    -0x18(%rbp),%rax
    e6ed:	48 8b 4d f8          	mov    -0x8(%rbp),%rcx
    e6f1:	64 48 33 0c 25 28 00 	xor    %fs:0x28,%rcx
    e6f8:	00 00 
    e6fa:	74 05                	je     e701 <func_24+0xbd>
    e6fc:	e8 6f d9 ff ff       	callq  c070 <__stack_chk_fail@plt>
    e701:	c9                   	leaveq 
    e702:	c3                   	retq   

000000000000e703 <func_45>:
    e703:	f3 0f 1e fa          	endbr64 
    e707:	55                   	push   %rbp
    e708:	48 89 e5             	mov    %rsp,%rbp
    e70b:	41 56                	push   %r14
    e70d:	41 55                	push   %r13
    e70f:	41 54                	push   %r12
    e711:	53                   	push   %rbx
    e712:	48 81 ec 90 0a 00 00 	sub    $0xa90,%rsp
    e719:	48 89 bd 68 f5 ff ff 	mov    %rdi,-0xa98(%rbp)
    e720:	89 c8                	mov    %ecx,%eax
    e722:	4c 89 85 50 f5 ff ff 	mov    %r8,-0xab0(%rbp)
    e729:	89 f1                	mov    %esi,%ecx
    e72b:	88 8d 64 f5 ff ff    	mov    %cl,-0xa9c(%rbp)
    e731:	88 95 60 f5 ff ff    	mov    %dl,-0xaa0(%rbp)
    e737:	88 85 5c f5 ff ff    	mov    %al,-0xaa4(%rbp)
    e73d:	64 48 8b 04 25 28 00 	mov    %fs:0x28,%rax
    e744:	00 00 
    e746:	48 89 45 d8          	mov    %rax,-0x28(%rbp)
    e74a:	31 c0                	xor    %eax,%eax
    e74c:	c6 85 7a f5 ff ff ff 	movb   $0xff,-0xa86(%rbp)
    e753:	c7 85 84 f5 ff ff 00 	movl   $0x0,-0xa7c(%rbp)
    e75a:	00 00 00 
    e75d:	48 8d 05 cc 1d 01 00 	lea    0x11dcc(%rip),%rax        # 20530 <g_244>
    e764:	48 89 85 20 f6 ff ff 	mov    %rax,-0x9e0(%rbp)
    e76b:	48 c7 85 28 f6 ff ff 	movq   $0x0,-0x9d8(%rbp)
    e772:	00 00 00 00 
    e776:	c7 85 88 f5 ff ff ff 	movl   $0xffffffff,-0xa78(%rbp)
    e77d:	ff ff ff 
    e780:	48 c7 85 30 f6 ff ff 	movq   $0x0,-0x9d0(%rbp)
    e787:	00 00 00 00 
    e78b:	48 c7 85 38 f6 ff ff 	movq   $0x1,-0x9c8(%rbp)
    e792:	01 00 00 00 
    e796:	c7 85 94 f5 ff ff 02 	movl   $0x2,-0xa6c(%rbp)
    e79d:	00 00 00 
    e7a0:	c7 85 98 f5 ff ff f7 	movl   $0xf403f3f7,-0xa68(%rbp)
    e7a7:	f3 03 f4 
    e7aa:	c7 85 9c f5 ff ff ff 	movl   $0xffffffff,-0xa64(%rbp)
    e7b1:	ff ff ff 
    e7b4:	c7 85 a0 f5 ff ff 83 	movl   $0xc1c67083,-0xa60(%rbp)
    e7bb:	70 c6 c1 
    e7be:	c7 85 a4 f5 ff ff ff 	movl   $0xffffffff,-0xa5c(%rbp)
    e7c5:	ff ff ff 
    e7c8:	c7 85 8c f5 ff ff f8 	movl   $0xfffffff8,-0xa74(%rbp)
    e7cf:	ff ff ff 
    e7d2:	c7 85 a0 f7 ff ff cc 	movl   $0xf92da9cc,-0x860(%rbp)
    e7d9:	a9 2d f9 
    e7dc:	c7 85 a4 f7 ff ff cc 	movl   $0xf92da9cc,-0x85c(%rbp)
    e7e3:	a9 2d f9 
    e7e6:	c7 85 a8 f7 ff ff cc 	movl   $0xf92da9cc,-0x858(%rbp)
    e7ed:	a9 2d f9 
    e7f0:	c7 85 ac f7 ff ff cc 	movl   $0xf92da9cc,-0x854(%rbp)
    e7f7:	a9 2d f9 
    e7fa:	c7 85 b0 f7 ff ff cc 	movl   $0xf92da9cc,-0x850(%rbp)
    e801:	a9 2d f9 
    e804:	c7 85 b4 f7 ff ff cc 	movl   $0xf92da9cc,-0x84c(%rbp)
    e80b:	a9 2d f9 
    e80e:	c7 85 b8 f7 ff ff cc 	movl   $0xf92da9cc,-0x848(%rbp)
    e815:	a9 2d f9 
    e818:	c7 85 bc f7 ff ff cc 	movl   $0xf92da9cc,-0x844(%rbp)
    e81f:	a9 2d f9 
    e822:	c7 85 c0 f7 ff ff cc 	movl   $0xf92da9cc,-0x840(%rbp)
    e829:	a9 2d f9 
    e82c:	c7 85 c4 f7 ff ff cc 	movl   $0xf92da9cc,-0x83c(%rbp)
    e833:	a9 2d f9 
    e836:	48 8b 05 f3 06 01 00 	mov    0x106f3(%rip),%rax        # 1ef30 <g_2416>
    e83d:	8b 00                	mov    (%rax),%eax
    e83f:	85 c0                	test   %eax,%eax
    e841:	0f 84 52 16 00 00    	je     fe99 <func_45+0x1796>
    e847:	48 c7 85 18 f6 ff ff 	movq   $0xfffffffffffffff9,-0x9e8(%rbp)
    e84e:	f9 ff ff ff 
    e852:	c7 85 90 f5 ff ff 07 	movl   $0x7,-0xa70(%rbp)
    e859:	00 00 00 
    e85c:	c7 85 70 f7 ff ff 46 	movl   $0x362bb346,-0x890(%rbp)
    e863:	b3 2b 36 
    e866:	c7 85 74 f7 ff ff 46 	movl   $0x362bb346,-0x88c(%rbp)
    e86d:	b3 2b 36 
    e870:	c7 85 78 f7 ff ff 01 	movl   $0x1,-0x888(%rbp)
    e877:	00 00 00 
    e87a:	c7 85 7c f7 ff ff 46 	movl   $0x362bb346,-0x884(%rbp)
    e881:	b3 2b 36 
    e884:	c7 85 80 f7 ff ff 46 	movl   $0x362bb346,-0x880(%rbp)
    e88b:	b3 2b 36 
    e88e:	c7 85 84 f7 ff ff 01 	movl   $0x1,-0x87c(%rbp)
    e895:	00 00 00 
    e898:	c7 85 88 f7 ff ff 46 	movl   $0x362bb346,-0x878(%rbp)
    e89f:	b3 2b 36 
    e8a2:	c7 85 8c f7 ff ff 46 	movl   $0x362bb346,-0x874(%rbp)
    e8a9:	b3 2b 36 
    e8ac:	c7 85 90 f7 ff ff 01 	movl   $0x1,-0x870(%rbp)
    e8b3:	00 00 00 
    e8b6:	48 8d 85 70 f9 ff ff 	lea    -0x690(%rbp),%rax
    e8bd:	48 8d 15 1c 89 00 00 	lea    0x891c(%rip),%rdx        # 171e0 <g_3452+0x178>
    e8c4:	b9 5a 00 00 00       	mov    $0x5a,%ecx
    e8c9:	48 89 c7             	mov    %rax,%rdi
    e8cc:	48 89 d6             	mov    %rdx,%rsi
    e8cf:	f3 48 a5             	rep movsq %ds:(%rsi),%es:(%rdi)
    e8d2:	48 8d 05 bf f4 00 00 	lea    0xf4bf(%rip),%rax        # 1dd98 <g_1592+0x18>
    e8d9:	48 89 85 f8 f5 ff ff 	mov    %rax,-0xa08(%rbp)
    e8e0:	48 8d 85 f8 f5 ff ff 	lea    -0xa08(%rbp),%rax
    e8e7:	48 89 85 00 f6 ff ff 	mov    %rax,-0xa00(%rbp)
    e8ee:	48 8d 85 00 f6 ff ff 	lea    -0xa00(%rbp),%rax
    e8f5:	48 89 85 40 f6 ff ff 	mov    %rax,-0x9c0(%rbp)
    e8fc:	c6 85 7c f5 ff ff 00 	movb   $0x0,-0xa84(%rbp)
    e903:	48 8d 05 26 1c 01 00 	lea    0x11c26(%rip),%rax        # 20530 <g_244>
    e90a:	48 89 85 48 f6 ff ff 	mov    %rax,-0x9b8(%rbp)
    e911:	48 c7 85 50 f6 ff ff 	movq   $0x1,-0x9b0(%rbp)
    e918:	01 00 00 00 
    e91c:	66 c7 85 f0 f6 ff ff 	movw   $0xfe01,-0x910(%rbp)
    e923:	01 fe 
    e925:	c6 85 f2 f6 ff ff 72 	movb   $0x72,-0x90e(%rbp)
    e92c:	66 c7 85 f3 f6 ff ff 	movw   $0xcbcb,-0x90d(%rbp)
    e933:	cb cb 
    e935:	c6 85 f5 f6 ff ff 95 	movb   $0x95,-0x90b(%rbp)
    e93c:	66 c7 85 f6 f6 ff ff 	movw   $0xfe01,-0x90a(%rbp)
    e943:	01 fe 
    e945:	c6 85 f8 f6 ff ff 72 	movb   $0x72,-0x908(%rbp)
    e94c:	66 c7 85 f9 f6 ff ff 	movw   $0xcbcb,-0x907(%rbp)
    e953:	cb cb 
    e955:	c6 85 fb f6 ff ff 95 	movb   $0x95,-0x905(%rbp)
    e95c:	66 c7 85 fc f6 ff ff 	movw   $0xfe01,-0x904(%rbp)
    e963:	01 fe 
    e965:	c6 85 fe f6 ff ff 72 	movb   $0x72,-0x902(%rbp)
    e96c:	66 c7 85 ff f6 ff ff 	movw   $0xcbcb,-0x901(%rbp)
    e973:	cb cb 
    e975:	c6 85 01 f7 ff ff 95 	movb   $0x95,-0x8ff(%rbp)
    e97c:	66 c7 85 02 f7 ff ff 	movw   $0xfe01,-0x8fe(%rbp)
    e983:	01 fe 
    e985:	c6 85 04 f7 ff ff 72 	movb   $0x72,-0x8fc(%rbp)
    e98c:	66 c7 85 05 f7 ff ff 	movw   $0xcbcb,-0x8fb(%rbp)
    e993:	cb cb 
    e995:	c6 85 07 f7 ff ff 95 	movb   $0x95,-0x8f9(%rbp)
    e99c:	48 c7 85 58 f6 ff ff 	movq   $0x0,-0x9a8(%rbp)
    e9a3:	00 00 00 00 
    e9a7:	c7 85 c0 f5 ff ff ff 	movl   $0xffffffff,-0xa40(%rbp)
    e9ae:	ff ff ff 
    e9b1:	c7 05 0d cb 00 00 00 	movl   $0x0,0xcb0d(%rip)        # 1b4c8 <g_713>
    e9b8:	00 00 00 
    e9bb:	e9 c8 14 00 00       	jmpq   fe88 <func_45+0x1785>
    e9c0:	48 b8 69 05 d6 c4 62 	movabs $0xede77162c4d60569,%rax
    e9c7:	71 e7 ed 
    e9ca:	48 89 85 08 f6 ff ff 	mov    %rax,-0x9f8(%rbp)
    e9d1:	48 8d 05 4c c6 00 00 	lea    0xc64c(%rip),%rax        # 1b024 <g_14>
    e9d8:	48 89 85 10 f6 ff ff 	mov    %rax,-0x9f0(%rbp)
    e9df:	48 8d 05 72 1b 01 00 	lea    0x11b72(%rip),%rax        # 20558 <g_468+0x18>
    e9e6:	48 89 85 60 f6 ff ff 	mov    %rax,-0x9a0(%rbp)
    e9ed:	48 8d 05 6c fb 00 00 	lea    0xfb6c(%rip),%rax        # 1e560 <g_1590>
    e9f4:	48 89 85 b0 f8 ff ff 	mov    %rax,-0x750(%rbp)
    e9fb:	48 8d 05 5e fb 00 00 	lea    0xfb5e(%rip),%rax        # 1e560 <g_1590>
    ea02:	48 89 85 b8 f8 ff ff 	mov    %rax,-0x748(%rbp)
    ea09:	48 8d 05 50 fb 00 00 	lea    0xfb50(%rip),%rax        # 1e560 <g_1590>
    ea10:	48 89 85 c0 f8 ff ff 	mov    %rax,-0x740(%rbp)
    ea17:	48 8d 05 42 fb 00 00 	lea    0xfb42(%rip),%rax        # 1e560 <g_1590>
    ea1e:	48 89 85 c8 f8 ff ff 	mov    %rax,-0x738(%rbp)
    ea25:	48 8d 05 34 fb 00 00 	lea    0xfb34(%rip),%rax        # 1e560 <g_1590>
    ea2c:	48 89 85 d0 f8 ff ff 	mov    %rax,-0x730(%rbp)
    ea33:	48 8d 05 26 fb 00 00 	lea    0xfb26(%rip),%rax        # 1e560 <g_1590>
    ea3a:	48 89 85 d8 f8 ff ff 	mov    %rax,-0x728(%rbp)
    ea41:	48 8d 05 18 fb 00 00 	lea    0xfb18(%rip),%rax        # 1e560 <g_1590>
    ea48:	48 89 85 e0 f8 ff ff 	mov    %rax,-0x720(%rbp)
    ea4f:	48 8d 05 0a fb 00 00 	lea    0xfb0a(%rip),%rax        # 1e560 <g_1590>
    ea56:	48 89 85 e8 f8 ff ff 	mov    %rax,-0x718(%rbp)
    ea5d:	48 8d 05 fc fa 00 00 	lea    0xfafc(%rip),%rax        # 1e560 <g_1590>
    ea64:	48 89 85 f0 f8 ff ff 	mov    %rax,-0x710(%rbp)
    ea6b:	48 8d 05 ee fa 00 00 	lea    0xfaee(%rip),%rax        # 1e560 <g_1590>
    ea72:	48 89 85 f8 f8 ff ff 	mov    %rax,-0x708(%rbp)
    ea79:	48 8d 05 e0 fa 00 00 	lea    0xfae0(%rip),%rax        # 1e560 <g_1590>
    ea80:	48 89 85 00 f9 ff ff 	mov    %rax,-0x700(%rbp)
    ea87:	48 8d 05 d2 fa 00 00 	lea    0xfad2(%rip),%rax        # 1e560 <g_1590>
    ea8e:	48 89 85 08 f9 ff ff 	mov    %rax,-0x6f8(%rbp)
    ea95:	48 8d 05 c4 fa 00 00 	lea    0xfac4(%rip),%rax        # 1e560 <g_1590>
    ea9c:	48 89 85 10 f9 ff ff 	mov    %rax,-0x6f0(%rbp)
    eaa3:	48 8d 05 b6 fa 00 00 	lea    0xfab6(%rip),%rax        # 1e560 <g_1590>
    eaaa:	48 89 85 18 f9 ff ff 	mov    %rax,-0x6e8(%rbp)
    eab1:	48 8d 05 a8 fa 00 00 	lea    0xfaa8(%rip),%rax        # 1e560 <g_1590>
    eab8:	48 89 85 20 f9 ff ff 	mov    %rax,-0x6e0(%rbp)
    eabf:	48 8d 05 9a fa 00 00 	lea    0xfa9a(%rip),%rax        # 1e560 <g_1590>
    eac6:	48 89 85 28 f9 ff ff 	mov    %rax,-0x6d8(%rbp)
    eacd:	48 8d 05 8c fa 00 00 	lea    0xfa8c(%rip),%rax        # 1e560 <g_1590>
    ead4:	48 89 85 30 f9 ff ff 	mov    %rax,-0x6d0(%rbp)
    eadb:	48 8d 05 7e fa 00 00 	lea    0xfa7e(%rip),%rax        # 1e560 <g_1590>
    eae2:	48 89 85 38 f9 ff ff 	mov    %rax,-0x6c8(%rbp)
    eae9:	48 8d 05 70 fa 00 00 	lea    0xfa70(%rip),%rax        # 1e560 <g_1590>
    eaf0:	48 89 85 40 f9 ff ff 	mov    %rax,-0x6c0(%rbp)
    eaf7:	48 8d 05 62 fa 00 00 	lea    0xfa62(%rip),%rax        # 1e560 <g_1590>
    eafe:	48 89 85 48 f9 ff ff 	mov    %rax,-0x6b8(%rbp)
    eb05:	48 8d 05 54 fa 00 00 	lea    0xfa54(%rip),%rax        # 1e560 <g_1590>
    eb0c:	48 89 85 50 f9 ff ff 	mov    %rax,-0x6b0(%rbp)
    eb13:	48 8d 05 46 fa 00 00 	lea    0xfa46(%rip),%rax        # 1e560 <g_1590>
    eb1a:	48 89 85 58 f9 ff ff 	mov    %rax,-0x6a8(%rbp)
    eb21:	48 8d 05 38 fa 00 00 	lea    0xfa38(%rip),%rax        # 1e560 <g_1590>
    eb28:	48 89 85 60 f9 ff ff 	mov    %rax,-0x6a0(%rbp)
    eb2f:	48 8d 05 2a fa 00 00 	lea    0xfa2a(%rip),%rax        # 1e560 <g_1590>
    eb36:	48 89 85 68 f9 ff ff 	mov    %rax,-0x698(%rbp)
    eb3d:	48 8d 85 10 f6 ff ff 	lea    -0x9f0(%rbp),%rax
    eb44:	48 89 85 68 f6 ff ff 	mov    %rax,-0x998(%rbp)
    eb4b:	c7 85 c4 f5 ff ff 49 	movl   $0x93cbd349,-0xa3c(%rbp)
    eb52:	d3 cb 93 
    eb55:	c7 85 c8 f5 ff ff ff 	movl   $0xffffffff,-0xa38(%rbp)
    eb5c:	ff ff ff 
    eb5f:	66 c7 85 7e f5 ff ff 	movw   $0xfffc,-0xa82(%rbp)
    eb66:	fc ff 
    eb68:	c7 85 a8 f5 ff ff ed 	movl   $0xf15aaed,-0xa58(%rbp)
    eb6f:	aa 15 0f 
    eb72:	c7 85 cc f5 ff ff e9 	movl   $0x29b54e9,-0xa34(%rbp)
    eb79:	54 9b 02 
    eb7c:	48 8d 05 f5 13 01 00 	lea    0x113f5(%rip),%rax        # 1ff78 <g_3196+0xb8>
    eb83:	48 89 85 50 f7 ff ff 	mov    %rax,-0x8b0(%rbp)
    eb8a:	48 8d 05 e7 13 01 00 	lea    0x113e7(%rip),%rax        # 1ff78 <g_3196+0xb8>
    eb91:	48 89 85 58 f7 ff ff 	mov    %rax,-0x8a8(%rbp)
    eb98:	48 8d 05 d9 13 01 00 	lea    0x113d9(%rip),%rax        # 1ff78 <g_3196+0xb8>
    eb9f:	48 89 85 60 f7 ff ff 	mov    %rax,-0x8a0(%rbp)
    eba6:	48 8d 05 cb 13 01 00 	lea    0x113cb(%rip),%rax        # 1ff78 <g_3196+0xb8>
    ebad:	48 89 85 68 f7 ff ff 	mov    %rax,-0x898(%rbp)
    ebb4:	c7 85 d0 f5 ff ff 00 	movl   $0x0,-0xa30(%rbp)
    ebbb:	00 00 00 
    ebbe:	66 c7 85 80 f5 ff ff 	movw   $0xb3c0,-0xa80(%rbp)
    ebc5:	c0 b3 
    ebc7:	c7 85 00 f8 ff ff 04 	movl   $0x4,-0x800(%rbp)
    ebce:	00 00 00 
    ebd1:	c7 85 04 f8 ff ff fe 	movl   $0xfffffffe,-0x7fc(%rbp)
    ebd8:	ff ff ff 
    ebdb:	c7 85 08 f8 ff ff 04 	movl   $0x4,-0x7f8(%rbp)
    ebe2:	00 00 00 
    ebe5:	c7 85 0c f8 ff ff fe 	movl   $0xfffffffe,-0x7f4(%rbp)
    ebec:	ff ff ff 
    ebef:	c7 85 10 f8 ff ff 04 	movl   $0x4,-0x7f0(%rbp)
    ebf6:	00 00 00 
    ebf9:	c7 85 14 f8 ff ff fe 	movl   $0xfffffffe,-0x7ec(%rbp)
    ec00:	ff ff ff 
    ec03:	c7 85 18 f8 ff ff 04 	movl   $0x4,-0x7e8(%rbp)
    ec0a:	00 00 00 
    ec0d:	c7 85 1c f8 ff ff fe 	movl   $0xfffffffe,-0x7e4(%rbp)
    ec14:	ff ff ff 
    ec17:	c7 85 20 f8 ff ff 04 	movl   $0x4,-0x7e0(%rbp)
    ec1e:	00 00 00 
    ec21:	c7 85 24 f8 ff ff fe 	movl   $0xfffffffe,-0x7dc(%rbp)
    ec28:	ff ff ff 
    ec2b:	c7 85 28 f8 ff ff 04 	movl   $0x4,-0x7d8(%rbp)
    ec32:	00 00 00 
    ec35:	c7 85 2c f8 ff ff fe 	movl   $0xfffffffe,-0x7d4(%rbp)
    ec3c:	ff ff ff 
    ec3f:	c7 85 30 f8 ff ff 04 	movl   $0x4,-0x7d0(%rbp)
    ec46:	00 00 00 
    ec49:	c7 85 34 f8 ff ff fe 	movl   $0xfffffffe,-0x7cc(%rbp)
    ec50:	ff ff ff 
    ec53:	48 8d 05 fa c3 00 00 	lea    0xc3fa(%rip),%rax        # 1b054 <g_65+0x14>
    ec5a:	48 89 85 40 f8 ff ff 	mov    %rax,-0x7c0(%rbp)
    ec61:	48 c7 85 48 f8 ff ff 	movq   $0x0,-0x7b8(%rbp)
    ec68:	00 00 00 00 
    ec6c:	48 8d 05 e1 c3 00 00 	lea    0xc3e1(%rip),%rax        # 1b054 <g_65+0x14>
    ec73:	48 89 85 50 f8 ff ff 	mov    %rax,-0x7b0(%rbp)
    ec7a:	48 c7 85 58 f8 ff ff 	movq   $0x0,-0x7a8(%rbp)
    ec81:	00 00 00 00 
    ec85:	48 8d 05 c8 c3 00 00 	lea    0xc3c8(%rip),%rax        # 1b054 <g_65+0x14>
    ec8c:	48 89 85 60 f8 ff ff 	mov    %rax,-0x7a0(%rbp)
    ec93:	48 c7 85 68 f8 ff ff 	movq   $0x0,-0x798(%rbp)
    ec9a:	00 00 00 00 
    ec9e:	48 8d 05 af c3 00 00 	lea    0xc3af(%rip),%rax        # 1b054 <g_65+0x14>
    eca5:	48 89 85 70 f8 ff ff 	mov    %rax,-0x790(%rbp)
    ecac:	48 8d 85 8c f5 ff ff 	lea    -0xa74(%rbp),%rax
    ecb3:	48 89 85 78 f8 ff ff 	mov    %rax,-0x788(%rbp)
    ecba:	48 8d 85 8c f5 ff ff 	lea    -0xa74(%rbp),%rax
    ecc1:	48 89 85 80 f8 ff ff 	mov    %rax,-0x780(%rbp)
    ecc8:	48 8d 85 8c f5 ff ff 	lea    -0xa74(%rbp),%rax
    eccf:	48 89 85 88 f8 ff ff 	mov    %rax,-0x778(%rbp)
    ecd6:	48 8d 85 8c f5 ff ff 	lea    -0xa74(%rbp),%rax
    ecdd:	48 89 85 90 f8 ff ff 	mov    %rax,-0x770(%rbp)
    ece4:	48 8d 85 8c f5 ff ff 	lea    -0xa74(%rbp),%rax
    eceb:	48 89 85 98 f8 ff ff 	mov    %rax,-0x768(%rbp)
    ecf2:	48 8d 85 8c f5 ff ff 	lea    -0xa74(%rbp),%rax
    ecf9:	48 89 85 a0 f8 ff ff 	mov    %rax,-0x760(%rbp)
    ed00:	48 8d 85 8c f5 ff ff 	lea    -0xa74(%rbp),%rax
    ed07:	48 89 85 a8 f8 ff ff 	mov    %rax,-0x758(%rbp)
    ed0e:	c7 85 ac f5 ff ff 00 	movl   $0x0,-0xa54(%rbp)
    ed15:	00 00 00 
    ed18:	eb 1a                	jmp    ed34 <func_45+0x631>
    ed1a:	8b 85 ac f5 ff ff    	mov    -0xa54(%rbp),%eax
    ed20:	48 98                	cltq   
    ed22:	c7 84 85 10 f7 ff ff 	movl   $0x9,-0x8f0(%rbp,%rax,4)
    ed29:	09 00 00 00 
    ed2d:	83 85 ac f5 ff ff 01 	addl   $0x1,-0xa54(%rbp)
    ed34:	83 bd ac f5 ff ff 05 	cmpl   $0x5,-0xa54(%rbp)
    ed3b:	7e dd                	jle    ed1a <func_45+0x617>
    ed3d:	c7 85 ac f5 ff ff 00 	movl   $0x0,-0xa54(%rbp)
    ed44:	00 00 00 
    ed47:	eb 14                	jmp    ed5d <func_45+0x65a>
    ed49:	8b 85 ac f5 ff ff    	mov    -0xa54(%rbp),%eax
    ed4f:	48 98                	cltq   
    ed51:	c6 44 05 ce 92       	movb   $0x92,-0x32(%rbp,%rax,1)
    ed56:	83 85 ac f5 ff ff 01 	addl   $0x1,-0xa54(%rbp)
    ed5d:	83 bd ac f5 ff ff 09 	cmpl   $0x9,-0xa54(%rbp)
    ed64:	7e e3                	jle    ed49 <func_45+0x646>
    ed66:	48 8b 05 6b ef 00 00 	mov    0xef6b(%rip),%rax        # 1dcd8 <g_1148>
    ed6d:	48 8b 00             	mov    (%rax),%rax
    ed70:	0f b6 00             	movzbl (%rax),%eax
    ed73:	0f be d8             	movsbl %al,%ebx
    ed76:	0f b6 85 64 f5 ff ff 	movzbl -0xa9c(%rbp),%eax
    ed7d:	3c 01                	cmp    $0x1,%al
    ed7f:	0f 9e c0             	setle  %al
    ed82:	0f b6 d0             	movzbl %al,%edx
    ed85:	8b 85 90 f5 ff ff    	mov    -0xa70(%rbp),%eax
    ed8b:	21 d0                	and    %edx,%eax
    ed8d:	89 85 90 f5 ff ff    	mov    %eax,-0xa70(%rbp)
    ed93:	44 8b ad 90 f5 ff ff 	mov    -0xa70(%rbp),%r13d
    ed9a:	48 8b 85 18 f6 ff ff 	mov    -0x9e8(%rbp),%rax
    eda1:	41 89 c6             	mov    %eax,%r14d
    eda4:	48 8b 85 68 f5 ff ff 	mov    -0xa98(%rbp),%rax
    edab:	44 0f b7 e0          	movzwl %ax,%r12d
    edaf:	48 83 bd 18 f6 ff ff 	cmpq   $0x0,-0x9e8(%rbp)
    edb6:	00 
    edb7:	be 01 00 00 00       	mov    $0x1,%esi
    edbc:	bf 01 00 00 00       	mov    $0x1,%edi
    edc1:	e8 28 d5 ff ff       	callq  c2ee <safe_lshift_func_int8_t_s_u>
    edc6:	0f be c0             	movsbl %al,%eax
    edc9:	83 e0 34             	and    $0x34,%eax
    edcc:	be 0c 00 00 00       	mov    $0xc,%esi
    edd1:	89 c7                	mov    %eax,%edi
    edd3:	e8 ba d6 ff ff       	callq  c492 <safe_lshift_func_int16_t_s_s>
    edd8:	0f b7 c0             	movzwl %ax,%eax
    eddb:	44 89 e6             	mov    %r12d,%esi
    edde:	89 c7                	mov    %eax,%edi
    ede0:	e8 a9 df ff ff       	callq  cd8e <safe_div_func_uint16_t_u_u>
    ede5:	0f b7 c0             	movzwl %ax,%eax
    ede8:	be ff ff 00 00       	mov    $0xffff,%esi
    eded:	89 c7                	mov    %eax,%edi
    edef:	e8 49 df ff ff       	callq  cd3d <safe_mul_func_uint16_t_u_u>
    edf4:	89 c2                	mov    %eax,%edx
    edf6:	66 0f be 85 60 f5 ff 	movsbw -0xaa0(%rbp),%ax
    edfd:	ff 
    edfe:	21 d0                	and    %edx,%eax
    ee00:	98                   	cwtl   
    ee01:	be 0d 00 00 00       	mov    $0xd,%esi
    ee06:	89 c7                	mov    %eax,%edi
    ee08:	e8 d4 d6 ff ff       	callq  c4e1 <safe_lshift_func_int16_t_s_u>
    ee0d:	0f b6 95 7a f5 ff ff 	movzbl -0xa86(%rbp),%edx
    ee14:	09 d0                	or     %edx,%eax
    ee16:	0f b7 c0             	movzwl %ax,%eax
    ee19:	be 06 00 00 00       	mov    $0x6,%esi
    ee1e:	89 c7                	mov    %eax,%edi
    ee20:	e8 23 e0 ff ff       	callq  ce48 <safe_rshift_func_uint16_t_u_s>
    ee25:	0f b6 c0             	movzbl %al,%eax
    ee28:	44 89 f6             	mov    %r14d,%esi
    ee2b:	89 c7                	mov    %eax,%edi
    ee2d:	e8 1a de ff ff       	callq  cc4c <safe_lshift_func_uint8_t_u_u>
    ee32:	0f b6 c0             	movzbl %al,%eax
    ee35:	89 c6                	mov    %eax,%esi
    ee37:	bf 01 00 00 00       	mov    $0x1,%edi
    ee3c:	e8 52 dd ff ff       	callq  cb93 <safe_mul_func_uint8_t_u_u>
    ee41:	3c 06                	cmp    $0x6,%al
    ee43:	77 07                	ja     ee4c <func_45+0x749>
    ee45:	b8 01 00 00 00       	mov    $0x1,%eax
    ee4a:	eb 05                	jmp    ee51 <func_45+0x74e>
    ee4c:	b8 00 00 00 00       	mov    $0x0,%eax
    ee51:	44 39 e8             	cmp    %r13d,%eax
    ee54:	0f 9d c0             	setge  %al
    ee57:	0f b6 c0             	movzbl %al,%eax
    ee5a:	89 de                	mov    %ebx,%esi
    ee5c:	89 c7                	mov    %eax,%edi
    ee5e:	e8 8f d3 ff ff       	callq  c1f2 <safe_sub_func_int8_t_s_s>
    ee63:	48 8b 85 10 f6 ff ff 	mov    -0x9f0(%rbp),%rax
    ee6a:	c7 00 01 00 00 00    	movl   $0x1,(%rax)
    ee70:	c7 85 d4 f5 ff ff 01 	movl   $0x1,-0xa2c(%rbp)
    ee77:	00 00 00 
    ee7a:	48 8d 85 90 f5 ff ff 	lea    -0xa70(%rbp),%rax
    ee81:	48 89 85 70 f6 ff ff 	mov    %rax,-0x990(%rbp)
    ee88:	48 c7 85 78 f6 ff ff 	movq   $0xfffffffffffffffb,-0x988(%rbp)
    ee8f:	fb ff ff ff 
    ee93:	48 c7 85 40 fc ff ff 	movq   $0x0,-0x3c0(%rbp)
    ee9a:	00 00 00 00 
    ee9e:	48 c7 85 48 fc ff ff 	movq   $0x0,-0x3b8(%rbp)
    eea5:	00 00 00 00 
    eea9:	48 c7 85 50 fc ff ff 	movq   $0x0,-0x3b0(%rbp)
    eeb0:	00 00 00 00 
    eeb4:	48 c7 85 58 fc ff ff 	movq   $0x0,-0x3a8(%rbp)
    eebb:	00 00 00 00 
    eebf:	48 c7 85 60 fc ff ff 	movq   $0x0,-0x3a0(%rbp)
    eec6:	00 00 00 00 
    eeca:	48 c7 85 68 fc ff ff 	movq   $0x0,-0x398(%rbp)
    eed1:	00 00 00 00 
    eed5:	48 c7 85 70 fc ff ff 	movq   $0x0,-0x390(%rbp)
    eedc:	00 00 00 00 
    eee0:	48 c7 85 78 fc ff ff 	movq   $0x0,-0x388(%rbp)
    eee7:	00 00 00 00 
    eeeb:	48 c7 85 80 fc ff ff 	movq   $0x0,-0x380(%rbp)
    eef2:	00 00 00 00 
    eef6:	0f be 9d 5c f5 ff ff 	movsbl -0xaa4(%rbp),%ebx
    eefd:	80 bd 7a f5 ff ff 00 	cmpb   $0x0,-0xa86(%rbp)
    ef04:	0f 84 ab 00 00 00    	je     efb5 <func_45+0x8b2>
    ef0a:	8b 85 20 f7 ff ff    	mov    -0x8e0(%rbp),%eax
    ef10:	44 0f b7 e0          	movzwl %ax,%r12d
    ef14:	48 8b 85 50 f5 ff ff 	mov    -0xab0(%rbp),%rax
    ef1b:	25 81 58 00 00       	and    $0x5881,%eax
    ef20:	49 89 c5             	mov    %rax,%r13
    ef23:	48 8b 05 86 de 00 00 	mov    0xde86(%rip),%rax        # 1cdb0 <g_211>
    ef2a:	48 8b 00             	mov    (%rax),%rax
    ef2d:	0f b7 00             	movzwl (%rax),%eax
    ef30:	0f b7 d0             	movzwl %ax,%edx
    ef33:	48 8b 85 70 f6 ff ff 	mov    -0x990(%rbp),%rax
    ef3a:	c7 00 00 00 00 00    	movl   $0x0,(%rax)
    ef40:	48 83 bd 78 f6 ff ff 	cmpq   $0x0,-0x988(%rbp)
    ef47:	00 
    ef48:	74 07                	je     ef51 <func_45+0x84e>
    ef4a:	b8 01 00 00 00       	mov    $0x1,%eax
    ef4f:	eb 05                	jmp    ef56 <func_45+0x853>
    ef51:	b8 00 00 00 00       	mov    $0x0,%eax
    ef56:	0f b7 c0             	movzwl %ax,%eax
    ef59:	89 d6                	mov    %edx,%esi
    ef5b:	89 c7                	mov    %eax,%edi
    ef5d:	e8 bd dd ff ff       	callq  cd1f <safe_sub_func_uint16_t_u_u>
    ef62:	0f b7 d0             	movzwl %ax,%edx
    ef65:	0f b6 85 64 f5 ff ff 	movzbl -0xa9c(%rbp),%eax
    ef6c:	66 98                	cbtw   
    ef6e:	0f b7 c0             	movzwl %ax,%eax
    ef71:	89 d6                	mov    %edx,%esi
    ef73:	89 c7                	mov    %eax,%edi
    ef75:	e8 c3 dd ff ff       	callq  cd3d <safe_mul_func_uint16_t_u_u>
    ef7a:	0f b7 c0             	movzwl %ax,%eax
    ef7d:	49 39 c5             	cmp    %rax,%r13
    ef80:	48 83 bd 50 f5 ff ff 	cmpq   $0x0,-0xab0(%rbp)
    ef87:	00 
    ef88:	0f 95 c0             	setne  %al
    ef8b:	0f b6 d0             	movzbl %al,%edx
    ef8e:	8b 85 8c f7 ff ff    	mov    -0x874(%rbp),%eax
    ef94:	21 d0                	and    %edx,%eax
    ef96:	89 85 84 f5 ff ff    	mov    %eax,-0xa7c(%rbp)
    ef9c:	44 89 e6             	mov    %r12d,%esi
    ef9f:	bf ff ff 00 00       	mov    $0xffff,%edi
    efa4:	e8 94 dd ff ff       	callq  cd3d <safe_mul_func_uint16_t_u_u>
    efa9:	66 85 c0             	test   %ax,%ax
    efac:	74 07                	je     efb5 <func_45+0x8b2>
    efae:	b8 01 00 00 00       	mov    $0x1,%eax
    efb3:	eb 05                	jmp    efba <func_45+0x8b7>
    efb5:	b8 00 00 00 00       	mov    $0x0,%eax
    efba:	89 c2                	mov    %eax,%edx
    efbc:	48 8b 85 50 f5 ff ff 	mov    -0xab0(%rbp),%rax
    efc3:	09 d0                	or     %edx,%eax
    efc5:	0f bf d0             	movswl %ax,%edx
    efc8:	0f b6 8d 64 f5 ff ff 	movzbl -0xa9c(%rbp),%ecx
    efcf:	48 8b 85 10 f6 ff ff 	mov    -0x9f0(%rbp),%rax
    efd6:	0f be c9             	movsbl %cl,%ecx
    efd9:	89 08                	mov    %ecx,(%rax)
    efdb:	8b 00                	mov    (%rax),%eax
    efdd:	85 c0                	test   %eax,%eax
    efdf:	0f 94 c0             	sete   %al
    efe2:	0f b6 c0             	movzbl %al,%eax
    efe5:	89 d6                	mov    %edx,%esi
    efe7:	89 c7                	mov    %eax,%edi
    efe9:	e8 28 d4 ff ff       	callq  c416 <safe_mod_func_int16_t_s_s>
    efee:	98                   	cwtl   
    efef:	89 de                	mov    %ebx,%esi
    eff1:	89 c7                	mov    %eax,%edi
    eff3:	e8 9a d4 ff ff       	callq  c492 <safe_lshift_func_int16_t_s_s>
    eff8:	48 0f bf c0          	movswq %ax,%rax
    effc:	48 89 c6             	mov    %rax,%rsi
    efff:	bf 00 00 00 00       	mov    $0x0,%edi
    f004:	e8 77 e0 ff ff       	callq  d080 <safe_mod_func_uint64_t_u_u>
    f009:	48 89 c2             	mov    %rax,%rdx
    f00c:	48 8b 05 ed ec 00 00 	mov    0xeced(%rip),%rax        # 1dd00 <g_1172>
    f013:	48 8b 00             	mov    (%rax),%rax
    f016:	48 8b 00             	mov    (%rax),%rax
    f019:	48 8b 00             	mov    (%rax),%rax
    f01c:	48 8b 00             	mov    (%rax),%rax
    f01f:	89 10                	mov    %edx,(%rax)
    f021:	48 c7 85 78 f6 ff ff 	movq   $0x0,-0x988(%rbp)
    f028:	00 00 00 00 
    f02c:	48 83 bd 78 f6 ff ff 	cmpq   $0xffffffffffffffea,-0x988(%rbp)
    f033:	ea 
    f034:	74 0c                	je     f042 <func_45+0x93f>
    f036:	48 8b 85 20 f6 ff ff 	mov    -0x9e0(%rbp),%rax
    f03d:	e9 9f 0e 00 00       	jmpq   fee1 <func_45+0x17de>
    f042:	80 bd 7a f5 ff ff 00 	cmpb   $0x0,-0xa86(%rbp)
    f049:	0f 84 71 07 00 00    	je     f7c0 <func_45+0x10bd>
    f04f:	48 c7 85 a8 f6 ff ff 	movq   $0x0,-0x958(%rbp)
    f056:	00 00 00 00 
    f05a:	c7 85 f4 f5 ff ff f7 	movl   $0x924be6f7,-0xa0c(%rbp)
    f061:	e6 4b 92 
    f064:	48 8d 05 55 c0 00 00 	lea    0xc055(%rip),%rax        # 1b0c0 <g_121>
    f06b:	48 89 85 b0 f6 ff ff 	mov    %rax,-0x950(%rbp)
    f072:	48 c7 05 03 c3 00 00 	movq   $0x0,0xc303(%rip)        # 1b380 <g_340>
    f079:	00 00 00 00 
    f07d:	e9 56 03 00 00       	jmpq   f3d8 <func_45+0xcd5>
    f082:	48 8d 05 2f dd 00 00 	lea    0xdd2f(%rip),%rax        # 1cdb8 <g_220>
    f089:	48 89 85 b8 f6 ff ff 	mov    %rax,-0x948(%rbp)
    f090:	48 c7 85 d0 f7 ff ff 	movq   $0x0,-0x830(%rbp)
    f097:	00 00 00 00 
    f09b:	48 c7 85 d8 f7 ff ff 	movq   $0x0,-0x828(%rbp)
    f0a2:	00 00 00 00 
    f0a6:	48 c7 85 e0 f7 ff ff 	movq   $0x0,-0x820(%rbp)
    f0ad:	00 00 00 00 
    f0b1:	48 c7 85 e8 f7 ff ff 	movq   $0x0,-0x818(%rbp)
    f0b8:	00 00 00 00 
    f0bc:	48 c7 85 c0 f6 ff ff 	movq   $0x0,-0x940(%rbp)
    f0c3:	00 00 00 00 
    f0c7:	48 c7 85 40 fc ff ff 	movq   $0x0,-0x3c0(%rbp)
    f0ce:	00 00 00 00 
    f0d2:	48 8d 05 c9 c6 00 00 	lea    0xc6c9(%rip),%rax        # 1b7a2 <g_3402+0x1e2>
    f0d9:	48 89 85 48 fc ff ff 	mov    %rax,-0x3b8(%rbp)
    f0e0:	48 8d 05 bb c6 00 00 	lea    0xc6bb(%rip),%rax        # 1b7a2 <g_3402+0x1e2>
    f0e7:	48 89 85 50 fc ff ff 	mov    %rax,-0x3b0(%rbp)
    f0ee:	48 c7 85 58 fc ff ff 	movq   $0x0,-0x3a8(%rbp)
    f0f5:	00 00 00 00 
    f0f9:	48 8d 05 a2 c6 00 00 	lea    0xc6a2(%rip),%rax        # 1b7a2 <g_3402+0x1e2>
    f100:	48 89 85 60 fc ff ff 	mov    %rax,-0x3a0(%rbp)
    f107:	48 8d 05 94 c6 00 00 	lea    0xc694(%rip),%rax        # 1b7a2 <g_3402+0x1e2>
    f10e:	48 89 85 68 fc ff ff 	mov    %rax,-0x398(%rbp)
    f115:	48 c7 85 70 fc ff ff 	movq   $0x0,-0x390(%rbp)
    f11c:	00 00 00 00 
    f120:	48 8d 05 7b c6 00 00 	lea    0xc67b(%rip),%rax        # 1b7a2 <g_3402+0x1e2>
    f127:	48 89 85 78 fc ff ff 	mov    %rax,-0x388(%rbp)
    f12e:	48 8d 05 6d c6 00 00 	lea    0xc66d(%rip),%rax        # 1b7a2 <g_3402+0x1e2>
    f135:	48 89 85 80 fc ff ff 	mov    %rax,-0x380(%rbp)
    f13c:	48 c7 85 88 fc ff ff 	movq   $0x0,-0x378(%rbp)
    f143:	00 00 00 00 
    f147:	48 8d 05 54 c6 00 00 	lea    0xc654(%rip),%rax        # 1b7a2 <g_3402+0x1e2>
    f14e:	48 89 85 90 fc ff ff 	mov    %rax,-0x370(%rbp)
    f155:	48 8d 05 46 c6 00 00 	lea    0xc646(%rip),%rax        # 1b7a2 <g_3402+0x1e2>
    f15c:	48 89 85 98 fc ff ff 	mov    %rax,-0x368(%rbp)
    f163:	48 c7 85 a0 fc ff ff 	movq   $0x0,-0x360(%rbp)
    f16a:	00 00 00 00 
    f16e:	48 8d 05 2d c6 00 00 	lea    0xc62d(%rip),%rax        # 1b7a2 <g_3402+0x1e2>
    f175:	48 89 85 a8 fc ff ff 	mov    %rax,-0x358(%rbp)
    f17c:	48 8d 05 1f c6 00 00 	lea    0xc61f(%rip),%rax        # 1b7a2 <g_3402+0x1e2>
    f183:	48 89 85 b0 fc ff ff 	mov    %rax,-0x350(%rbp)
    f18a:	48 c7 85 b8 fc ff ff 	movq   $0x0,-0x348(%rbp)
    f191:	00 00 00 00 
    f195:	48 8d 05 06 c6 00 00 	lea    0xc606(%rip),%rax        # 1b7a2 <g_3402+0x1e2>
    f19c:	48 89 85 c0 fc ff ff 	mov    %rax,-0x340(%rbp)
    f1a3:	48 8d 05 f8 c5 00 00 	lea    0xc5f8(%rip),%rax        # 1b7a2 <g_3402+0x1e2>
    f1aa:	48 89 85 c8 fc ff ff 	mov    %rax,-0x338(%rbp)
    f1b1:	48 c7 85 d0 fc ff ff 	movq   $0x0,-0x330(%rbp)
    f1b8:	00 00 00 00 
    f1bc:	48 8d 05 df c5 00 00 	lea    0xc5df(%rip),%rax        # 1b7a2 <g_3402+0x1e2>
    f1c3:	48 89 85 d8 fc ff ff 	mov    %rax,-0x328(%rbp)
    f1ca:	48 8d 05 d1 c5 00 00 	lea    0xc5d1(%rip),%rax        # 1b7a2 <g_3402+0x1e2>
    f1d1:	48 89 85 e0 fc ff ff 	mov    %rax,-0x320(%rbp)
    f1d8:	80 bd 60 f5 ff ff 00 	cmpb   $0x0,-0xaa0(%rbp)
    f1df:	0f 85 06 02 00 00    	jne    f3eb <func_45+0xce8>
    f1e5:	48 8b 85 50 f5 ff ff 	mov    -0xab0(%rbp),%rax
    f1ec:	0f bf d8             	movswl %ax,%ebx
    f1ef:	44 0f b6 a5 7a f5 ff 	movzbl -0xa86(%rbp),%r12d
    f1f6:	ff 
    f1f7:	8b 85 f4 f5 ff ff    	mov    -0xa0c(%rbp),%eax
    f1fd:	44 0f be e8          	movsbl %al,%r13d
    f201:	48 8b 85 40 f9 ff ff 	mov    -0x6c0(%rbp),%rax
    f208:	48 39 85 40 f6 ff ff 	cmp    %rax,-0x9c0(%rbp)
    f20f:	0f 94 c0             	sete   %al
    f212:	44 0f b6 f0          	movzbl %al,%r14d
    f216:	48 8b 05 53 db 00 00 	mov    0xdb53(%rip),%rax        # 1cd70 <g_159>
    f21d:	48 8b 00             	mov    (%rax),%rax
    f220:	0f b7 00             	movzwl (%rax),%eax
    f223:	66 85 c0             	test   %ax,%ax
    f226:	0f 9f c0             	setg   %al
    f229:	0f b6 c0             	movzbl %al,%eax
    f22c:	be 02 00 00 00       	mov    $0x2,%esi
    f231:	89 c7                	mov    %eax,%edi
    f233:	e8 86 da ff ff       	callq  ccbe <safe_rshift_func_uint8_t_u_u>
    f238:	0f b6 c0             	movzbl %al,%eax
    f23b:	4c 89 f6             	mov    %r14,%rsi
    f23e:	48 89 c7             	mov    %rax,%rdi
    f241:	e8 05 de ff ff       	callq  d04b <safe_sub_func_uint64_t_u_u>
    f246:	48 c7 85 a8 f6 ff ff 	movq   $0x0,-0x958(%rbp)
    f24d:	00 00 00 00 
    f251:	48 8b 85 a8 f6 ff ff 	mov    -0x958(%rbp),%rax
    f258:	48 89 85 68 f6 ff ff 	mov    %rax,-0x998(%rbp)
    f25f:	48 8b 85 68 f6 ff ff 	mov    -0x998(%rbp),%rax
    f266:	48 3b 85 b8 f6 ff ff 	cmp    -0x948(%rbp),%rax
    f26d:	0f 85 94 00 00 00    	jne    f307 <func_45+0xc04>
    f273:	48 8b 85 50 f5 ff ff 	mov    -0xab0(%rbp),%rax
    f27a:	41 89 c6             	mov    %eax,%r14d
    f27d:	80 bd 7a f5 ff ff 00 	cmpb   $0x0,-0xa86(%rbp)
    f284:	74 12                	je     f298 <func_45+0xb95>
    f286:	8b 85 84 f5 ff ff    	mov    -0xa7c(%rbp),%eax
    f28c:	0d ae 7a bd d4       	or     $0xd4bd7aae,%eax
    f291:	89 85 84 f5 ff ff    	mov    %eax,-0xa7c(%rbp)
    f297:	90                   	nop
    f298:	80 bd 60 f5 ff ff 01 	cmpb   $0x1,-0xaa0(%rbp)
    f29f:	7e 09                	jle    f2aa <func_45+0xba7>
    f2a1:	80 bd 60 f5 ff ff 00 	cmpb   $0x0,-0xaa0(%rbp)
    f2a8:	74 07                	je     f2b1 <func_45+0xbae>
    f2aa:	b8 01 00 00 00       	mov    $0x1,%eax
    f2af:	eb 05                	jmp    f2b6 <func_45+0xbb3>
    f2b1:	b8 00 00 00 00       	mov    $0x0,%eax
    f2b6:	89 c2                	mov    %eax,%edx
    f2b8:	48 8b 85 50 f5 ff ff 	mov    -0xab0(%rbp),%rax
    f2bf:	31 d0                	xor    %edx,%eax
    f2c1:	0f b6 c0             	movzbl %al,%eax
    f2c4:	be ff 00 00 00       	mov    $0xff,%esi
    f2c9:	89 c7                	mov    %eax,%edi
    f2cb:	e8 8a d8 ff ff       	callq  cb5a <safe_add_func_uint8_t_u_u>
    f2d0:	89 c2                	mov    %eax,%edx
    f2d2:	48 8d 05 53 bd 00 00 	lea    0xbd53(%rip),%rax        # 1b02c <g_36>
    f2d9:	0f b6 d2             	movzbl %dl,%edx
    f2dc:	66 89 10             	mov    %dx,(%rax)
    f2df:	0f b7 00             	movzwl (%rax),%eax
    f2e2:	98                   	cwtl   
    f2e3:	89 85 c4 f5 ff ff    	mov    %eax,-0xa3c(%rbp)
    f2e9:	81 bd c4 f5 ff ff 3e 	cmpl   $0x6e3e,-0xa3c(%rbp)
    f2f0:	6e 00 00 
    f2f3:	0f 94 c0             	sete   %al
    f2f6:	0f b6 c0             	movzbl %al,%eax
    f2f9:	44 89 f6             	mov    %r14d,%esi
    f2fc:	89 c7                	mov    %eax,%edi
    f2fe:	e8 49 d9 ff ff       	callq  cc4c <safe_lshift_func_uint8_t_u_u>
    f303:	84 c0                	test   %al,%al
    f305:	74 07                	je     f30e <func_45+0xc0b>
    f307:	b8 01 00 00 00       	mov    $0x1,%eax
    f30c:	eb 05                	jmp    f313 <func_45+0xc10>
    f30e:	b8 00 00 00 00       	mov    $0x0,%eax
    f313:	0f be c0             	movsbl %al,%eax
    f316:	44 89 ee             	mov    %r13d,%esi
    f319:	89 c7                	mov    %eax,%edi
    f31b:	e8 f2 ce ff ff       	callq  c212 <safe_mul_func_int8_t_s_s>
    f320:	48 0f be c0          	movsbq %al,%rax
    f324:	48 39 85 68 f5 ff ff 	cmp    %rax,-0xa98(%rbp)
    f32b:	74 0a                	je     f337 <func_45+0xc34>
    f32d:	48 83 bd 50 f5 ff ff 	cmpq   $0x0,-0xab0(%rbp)
    f334:	00 
    f335:	74 07                	je     f33e <func_45+0xc3b>
    f337:	ba 01 00 00 00       	mov    $0x1,%edx
    f33c:	eb 05                	jmp    f343 <func_45+0xc40>
    f33e:	ba 00 00 00 00       	mov    $0x0,%edx
    f343:	48 8b 85 10 f6 ff ff 	mov    -0x9f0(%rbp),%rax
    f34a:	89 10                	mov    %edx,(%rax)
    f34c:	8b 00                	mov    (%rax),%eax
    f34e:	89 85 ac fa ff ff    	mov    %eax,-0x554(%rbp)
    f354:	8b 85 ac fa ff ff    	mov    -0x554(%rbp),%eax
    f35a:	98                   	cwtl   
    f35b:	44 89 e6             	mov    %r12d,%esi
    f35e:	89 c7                	mov    %eax,%edi
    f360:	e8 b1 d0 ff ff       	callq  c416 <safe_mod_func_int16_t_s_s>
    f365:	98                   	cwtl   
    f366:	89 de                	mov    %ebx,%esi
    f368:	89 c7                	mov    %eax,%edi
    f36a:	e8 86 d0 ff ff       	callq  c3f5 <safe_mul_func_int16_t_s_s>
    f36f:	89 c2                	mov    %eax,%edx
    f371:	48 8b 05 e8 d9 00 00 	mov    0xd9e8(%rip),%rax        # 1cd60 <g_154>
    f378:	0f bf d2             	movswl %dx,%edx
    f37b:	89 10                	mov    %edx,(%rax)
    f37d:	48 8b 85 10 f6 ff ff 	mov    -0x9f0(%rbp),%rax
    f384:	0f be 95 5c f5 ff ff 	movsbl -0xaa4(%rbp),%edx
    f38b:	89 10                	mov    %edx,(%rax)
    f38d:	8b 00                	mov    (%rax),%eax
    f38f:	89 85 84 f5 ff ff    	mov    %eax,-0xa7c(%rbp)
    f395:	8b 85 a8 fa ff ff    	mov    -0x558(%rbp),%eax
    f39b:	85 c0                	test   %eax,%eax
    f39d:	74 15                	je     f3b4 <func_45+0xcb1>
    f39f:	48 8b 05 82 fd 00 00 	mov    0xfd82(%rip),%rax        # 1f128 <g_2997>
    f3a6:	48 8b 00             	mov    (%rax),%rax
    f3a9:	48 8b 00             	mov    (%rax),%rax
    f3ac:	48 8b 00             	mov    (%rax),%rax
    f3af:	e9 2d 0b 00 00       	jmpq   fee1 <func_45+0x17de>
    f3b4:	66 83 ad 7e f5 ff ff 	subw   $0x1,-0xa82(%rbp)
    f3bb:	01 
    f3bc:	48 8b 05 bd bf 00 00 	mov    0xbfbd(%rip),%rax        # 1b380 <g_340>
    f3c3:	be 05 00 00 00       	mov    $0x5,%esi
    f3c8:	89 c7                	mov    %eax,%edi
    f3ca:	e8 e7 d1 ff ff       	callq  c5b6 <safe_add_func_int32_t_s_s>
    f3cf:	48 98                	cltq   
    f3d1:	48 89 05 a8 bf 00 00 	mov    %rax,0xbfa8(%rip)        # 1b380 <g_340>
    f3d8:	48 8b 05 a1 bf 00 00 	mov    0xbfa1(%rip),%rax        # 1b380 <g_340>
    f3df:	48 83 f8 34          	cmp    $0x34,%rax
    f3e3:	0f 87 99 fc ff ff    	ja     f082 <func_45+0x97f>
    f3e9:	eb 01                	jmp    f3ec <func_45+0xce9>
    f3eb:	90                   	nop
    f3ec:	8b 85 84 f5 ff ff    	mov    -0xa7c(%rbp),%eax
    f3f2:	85 c0                	test   %eax,%eax
    f3f4:	0f 84 f1 02 00 00    	je     f6eb <func_45+0xfe8>
    f3fa:	c6 85 7b f5 ff ff 01 	movb   $0x1,-0xa85(%rbp)
    f401:	48 8d 05 c0 c0 00 00 	lea    0xc0c0(%rip),%rax        # 1b4c8 <g_713>
    f408:	48 89 85 c8 f6 ff ff 	mov    %rax,-0x938(%rbp)
    f40f:	48 8b 05 ea e8 00 00 	mov    0xe8ea(%rip),%rax        # 1dd00 <g_1172>
    f416:	48 8b 00             	mov    (%rax),%rax
    f419:	48 8b 00             	mov    (%rax),%rax
    f41c:	48 8b 00             	mov    (%rax),%rax
    f41f:	48 8b 00             	mov    (%rax),%rax
    f422:	8b 95 8c f7 ff ff    	mov    -0x874(%rbp),%edx
    f428:	89 10                	mov    %edx,(%rax)
    f42a:	c6 85 60 f5 ff ff 00 	movb   $0x0,-0xaa0(%rbp)
    f431:	e9 a3 02 00 00       	jmpq   f6d9 <func_45+0xfd6>
    f436:	48 8d 85 84 f5 ff ff 	lea    -0xa7c(%rbp),%rax
    f43d:	48 89 85 40 fc ff ff 	mov    %rax,-0x3c0(%rbp)
    f444:	48 c7 85 48 fc ff ff 	movq   $0x0,-0x3b8(%rbp)
    f44b:	00 00 00 00 
    f44f:	48 8d 85 84 f5 ff ff 	lea    -0xa7c(%rbp),%rax
    f456:	48 89 85 50 fc ff ff 	mov    %rax,-0x3b0(%rbp)
    f45d:	48 c7 85 58 fc ff ff 	movq   $0x0,-0x3a8(%rbp)
    f464:	00 00 00 00 
    f468:	48 8d 85 84 f5 ff ff 	lea    -0xa7c(%rbp),%rax
    f46f:	48 89 85 60 fc ff ff 	mov    %rax,-0x3a0(%rbp)
    f476:	48 c7 85 68 fc ff ff 	movq   $0x0,-0x398(%rbp)
    f47d:	00 00 00 00 
    f481:	48 8d 85 84 f5 ff ff 	lea    -0xa7c(%rbp),%rax
    f488:	48 89 85 70 fc ff ff 	mov    %rax,-0x390(%rbp)
    f48f:	48 c7 85 78 fc ff ff 	movq   $0x0,-0x388(%rbp)
    f496:	00 00 00 00 
    f49a:	48 8d 85 84 f5 ff ff 	lea    -0xa7c(%rbp),%rax
    f4a1:	48 89 85 80 fc ff ff 	mov    %rax,-0x380(%rbp)
    f4a8:	48 c7 85 88 fc ff ff 	movq   $0x0,-0x378(%rbp)
    f4af:	00 00 00 00 
    f4b3:	48 8d 85 84 f5 ff ff 	lea    -0xa7c(%rbp),%rax
    f4ba:	48 89 85 90 fc ff ff 	mov    %rax,-0x370(%rbp)
    f4c1:	48 c7 85 98 fc ff ff 	movq   $0x0,-0x368(%rbp)
    f4c8:	00 00 00 00 
    f4cc:	48 8d 85 84 f5 ff ff 	lea    -0xa7c(%rbp),%rax
    f4d3:	48 89 85 a0 fc ff ff 	mov    %rax,-0x360(%rbp)
    f4da:	48 c7 85 a8 fc ff ff 	movq   $0x0,-0x358(%rbp)
    f4e1:	00 00 00 00 
    f4e5:	48 8d 85 84 f5 ff ff 	lea    -0xa7c(%rbp),%rax
    f4ec:	48 89 85 b0 fc ff ff 	mov    %rax,-0x350(%rbp)
    f4f3:	48 c7 85 b8 fc ff ff 	movq   $0x0,-0x348(%rbp)
    f4fa:	00 00 00 00 
    f4fe:	48 8d 85 84 f5 ff ff 	lea    -0xa7c(%rbp),%rax
    f505:	48 89 85 c0 fc ff ff 	mov    %rax,-0x340(%rbp)
    f50c:	48 c7 85 c8 fc ff ff 	movq   $0x0,-0x338(%rbp)
    f513:	00 00 00 00 
    f517:	48 8d 85 84 f5 ff ff 	lea    -0xa7c(%rbp),%rax
    f51e:	48 89 85 d0 fc ff ff 	mov    %rax,-0x330(%rbp)
    f525:	48 c7 85 d8 fc ff ff 	movq   $0x0,-0x328(%rbp)
    f52c:	00 00 00 00 
    f530:	48 8d 85 84 f5 ff ff 	lea    -0xa7c(%rbp),%rax
    f537:	48 89 85 e0 fc ff ff 	mov    %rax,-0x320(%rbp)
    f53e:	48 c7 85 e8 fc ff ff 	movq   $0x0,-0x318(%rbp)
    f545:	00 00 00 00 
    f549:	48 8d 85 84 f5 ff ff 	lea    -0xa7c(%rbp),%rax
    f550:	48 89 85 f0 fc ff ff 	mov    %rax,-0x310(%rbp)
    f557:	48 c7 85 f8 fc ff ff 	movq   $0x0,-0x308(%rbp)
    f55e:	00 00 00 00 
    f562:	48 8d 85 84 f5 ff ff 	lea    -0xa7c(%rbp),%rax
    f569:	48 89 85 00 fd ff ff 	mov    %rax,-0x300(%rbp)
    f570:	48 c7 85 08 fd ff ff 	movq   $0x0,-0x2f8(%rbp)
    f577:	00 00 00 00 
    f57b:	48 8d 85 84 f5 ff ff 	lea    -0xa7c(%rbp),%rax
    f582:	48 89 85 10 fd ff ff 	mov    %rax,-0x2f0(%rbp)
    f589:	48 c7 85 18 fd ff ff 	movq   $0x0,-0x2e8(%rbp)
    f590:	00 00 00 00 
    f594:	48 8d 85 84 f5 ff ff 	lea    -0xa7c(%rbp),%rax
    f59b:	48 89 85 20 fd ff ff 	mov    %rax,-0x2e0(%rbp)
    f5a2:	48 c7 85 28 fd ff ff 	movq   $0x0,-0x2d8(%rbp)
    f5a9:	00 00 00 00 
    f5ad:	48 8d 85 84 f5 ff ff 	lea    -0xa7c(%rbp),%rax
    f5b4:	48 89 85 30 fd ff ff 	mov    %rax,-0x2d0(%rbp)
    f5bb:	48 c7 85 38 fd ff ff 	movq   $0x0,-0x2c8(%rbp)
    f5c2:	00 00 00 00 
    f5c6:	48 8d 85 84 f5 ff ff 	lea    -0xa7c(%rbp),%rax
    f5cd:	48 89 85 40 fd ff ff 	mov    %rax,-0x2c0(%rbp)
    f5d4:	48 c7 85 48 fd ff ff 	movq   $0x0,-0x2b8(%rbp)
    f5db:	00 00 00 00 
    f5df:	48 8d 85 84 f5 ff ff 	lea    -0xa7c(%rbp),%rax
    f5e6:	48 89 85 50 fd ff ff 	mov    %rax,-0x2b0(%rbp)
    f5ed:	48 c7 85 58 fd ff ff 	movq   $0x0,-0x2a8(%rbp)
    f5f4:	00 00 00 00 
    f5f8:	c6 85 79 f5 ff ff c7 	movb   $0xc7,-0xa87(%rbp)
    f5ff:	48 c7 85 d0 f6 ff ff 	movq   $0x0,-0x930(%rbp)
    f606:	00 00 00 00 
    f60a:	48 c7 85 d8 f6 ff ff 	movq   $0x0,-0x928(%rbp)
    f611:	00 00 00 00 
    f615:	48 8d 85 70 f7 ff ff 	lea    -0x890(%rbp),%rax
    f61c:	48 83 c0 04          	add    $0x4,%rax
    f620:	48 89 85 e0 f6 ff ff 	mov    %rax,-0x920(%rbp)
    f627:	0f b6 85 7b f5 ff ff 	movzbl -0xa85(%rbp),%eax
    f62e:	83 e8 01             	sub    $0x1,%eax
    f631:	88 85 7b f5 ff ff    	mov    %al,-0xa85(%rbp)
    f637:	48 8b 05 a2 d7 00 00 	mov    0xd7a2(%rip),%rax        # 1cde0 <g_284>
    f63e:	48 8b 95 c8 f6 ff ff 	mov    -0x938(%rbp),%rdx
    f645:	48 89 10             	mov    %rdx,(%rax)
    f648:	8b 85 90 f5 ff ff    	mov    -0xa70(%rbp),%eax
    f64e:	85 c0                	test   %eax,%eax
    f650:	0f 85 11 08 00 00    	jne    fe67 <func_45+0x1764>
    f656:	48 8b 85 c8 f6 ff ff 	mov    -0x938(%rbp),%rax
    f65d:	8b 00                	mov    (%rax),%eax
    f65f:	0f b6 c0             	movzbl %al,%eax
    f662:	be 05 00 00 00       	mov    $0x5,%esi
    f667:	89 c7                	mov    %eax,%edi
    f669:	e8 de d5 ff ff       	callq  cc4c <safe_lshift_func_uint8_t_u_u>
    f66e:	48 8b 05 6b 0a 01 00 	mov    0x10a6b(%rip),%rax        # 200e0 <g_3204>
    f675:	48 8b 00             	mov    (%rax),%rax
    f678:	48 8d 95 08 f6 ff ff 	lea    -0x9f8(%rbp),%rdx
    f67f:	48 89 10             	mov    %rdx,(%rax)
    f682:	48 8b 00             	mov    (%rax),%rax
    f685:	48 39 85 d0 f6 ff ff 	cmp    %rax,-0x930(%rbp)
    f68c:	0f 95 c0             	setne  %al
    f68f:	0f b6 d0             	movzbl %al,%edx
    f692:	48 8b 05 6f e6 00 00 	mov    0xe66f(%rip),%rax        # 1dd08 <g_1373>
    f699:	0f b6 00             	movzbl (%rax),%eax
    f69c:	0f be c0             	movsbl %al,%eax
    f69f:	39 c2                	cmp    %eax,%edx
    f6a1:	0f 9c c0             	setl   %al
    f6a4:	0f b6 d0             	movzbl %al,%edx
    f6a7:	48 8b 85 e0 f6 ff ff 	mov    -0x920(%rbp),%rax
    f6ae:	89 10                	mov    %edx,(%rax)
    f6b0:	b9 00 00 00 00       	mov    $0x0,%ecx
    f6b5:	48 8b 85 10 f6 ff ff 	mov    -0x9f0(%rbp),%rax
    f6bc:	8b 10                	mov    (%rax),%edx
    f6be:	48 8b 85 10 f6 ff ff 	mov    -0x9f0(%rbp),%rax
    f6c5:	31 ca                	xor    %ecx,%edx
    f6c7:	89 10                	mov    %edx,(%rax)
    f6c9:	0f b6 85 60 f5 ff ff 	movzbl -0xaa0(%rbp),%eax
    f6d0:	83 c0 01             	add    $0x1,%eax
    f6d3:	88 85 60 f5 ff ff    	mov    %al,-0xaa0(%rbp)
    f6d9:	80 bd 60 f5 ff ff 02 	cmpb   $0x2,-0xaa0(%rbp)
    f6e0:	0f 8e 50 fd ff ff    	jle    f436 <func_45+0xd33>
    f6e6:	e9 7d 07 00 00       	jmpq   fe68 <func_45+0x1765>
    f6eb:	c7 85 84 f5 ff ff 00 	movl   $0x0,-0xa7c(%rbp)
    f6f2:	00 00 00 
    f6f5:	e9 b2 00 00 00       	jmpq   f7ac <func_45+0x10a9>
    f6fa:	c7 05 c8 bd 00 00 00 	movl   $0x0,0xbdc8(%rip)        # 1b4cc <g_714>
    f701:	00 00 00 
    f704:	e9 85 00 00 00       	jmpq   f78e <func_45+0x108b>
    f709:	c7 05 11 b9 00 00 00 	movl   $0x0,0xb911(%rip)        # 1b024 <g_14>
    f710:	00 00 00 
    f713:	eb 5f                	jmp    f774 <func_45+0x1071>
    f715:	8b 85 84 f5 ff ff    	mov    -0xa7c(%rbp),%eax
    f71b:	8b 35 ab bd 00 00    	mov    0xbdab(%rip),%esi        # 1b4cc <g_714>
    f721:	8b 15 fd b8 00 00    	mov    0xb8fd(%rip),%edx        # 1b024 <g_14>
    f727:	48 63 ca             	movslq %edx,%rcx
    f72a:	48 63 d0             	movslq %eax,%rdx
    f72d:	89 f6                	mov    %esi,%esi
    f72f:	48 89 d0             	mov    %rdx,%rax
    f732:	48 01 c0             	add    %rax,%rax
    f735:	48 01 d0             	add    %rdx,%rax
    f738:	48 c1 e0 03          	shl    $0x3,%rax
    f73c:	48 89 f2             	mov    %rsi,%rdx
    f73f:	48 01 d2             	add    %rdx,%rdx
    f742:	48 01 f2             	add    %rsi,%rdx
    f745:	48 01 d0             	add    %rdx,%rax
    f748:	48 01 c8             	add    %rcx,%rax
    f74b:	48 8d 14 c5 00 00 00 	lea    0x0(,%rax,8),%rdx
    f752:	00 
    f753:	48 8d 05 e6 ef 00 00 	lea    0xefe6(%rip),%rax        # 1e740 <g_1637>
    f75a:	48 8d 0d c7 ef 00 00 	lea    0xefc7(%rip),%rcx        # 1e728 <g_1638+0x28>
    f761:	48 89 0c 02          	mov    %rcx,(%rdx,%rax,1)
    f765:	8b 05 b9 b8 00 00    	mov    0xb8b9(%rip),%eax        # 1b024 <g_14>
    f76b:	83 c0 01             	add    $0x1,%eax
    f76e:	89 05 b0 b8 00 00    	mov    %eax,0xb8b0(%rip)        # 1b024 <g_14>
    f774:	8b 05 aa b8 00 00    	mov    0xb8aa(%rip),%eax        # 1b024 <g_14>
    f77a:	83 f8 02             	cmp    $0x2,%eax
    f77d:	7e 96                	jle    f715 <func_45+0x1012>
    f77f:	8b 05 47 bd 00 00    	mov    0xbd47(%rip),%eax        # 1b4cc <g_714>
    f785:	83 c0 01             	add    $0x1,%eax
    f788:	89 05 3e bd 00 00    	mov    %eax,0xbd3e(%rip)        # 1b4cc <g_714>
    f78e:	8b 05 38 bd 00 00    	mov    0xbd38(%rip),%eax        # 1b4cc <g_714>
    f794:	83 f8 07             	cmp    $0x7,%eax
    f797:	0f 86 6c ff ff ff    	jbe    f709 <func_45+0x1006>
    f79d:	8b 85 84 f5 ff ff    	mov    -0xa7c(%rbp),%eax
    f7a3:	83 c0 01             	add    $0x1,%eax
    f7a6:	89 85 84 f5 ff ff    	mov    %eax,-0xa7c(%rbp)
    f7ac:	8b 85 84 f5 ff ff    	mov    -0xa7c(%rbp),%eax
    f7b2:	83 f8 09             	cmp    $0x9,%eax
    f7b5:	0f 8e 3f ff ff ff    	jle    f6fa <func_45+0xff7>
    f7bb:	e9 a8 06 00 00       	jmpq   fe68 <func_45+0x1765>
    f7c0:	c7 85 d8 f5 ff ff 00 	movl   $0x0,-0xa28(%rbp)
    f7c7:	00 00 00 
    f7ca:	48 c7 85 d0 f7 ff ff 	movq   $0x0,-0x830(%rbp)
    f7d1:	00 00 00 00 
    f7d5:	48 c7 85 d8 f7 ff ff 	movq   $0x0,-0x828(%rbp)
    f7dc:	00 00 00 00 
    f7e0:	48 c7 85 e0 f7 ff ff 	movq   $0x0,-0x820(%rbp)
    f7e7:	00 00 00 00 
    f7eb:	48 c7 85 e8 f7 ff ff 	movq   $0x0,-0x818(%rbp)
    f7f2:	00 00 00 00 
    f7f6:	48 c7 85 f0 f7 ff ff 	movq   $0x0,-0x810(%rbp)
    f7fd:	00 00 00 00 
    f801:	c7 85 b0 f5 ff ff 00 	movl   $0x0,-0xa50(%rbp)
    f808:	00 00 00 
    f80b:	eb 49                	jmp    f856 <func_45+0x1153>
    f80d:	c7 85 b4 f5 ff ff 00 	movl   $0x0,-0xa4c(%rbp)
    f814:	00 00 00 
    f817:	eb 2d                	jmp    f846 <func_45+0x1143>
    f819:	8b 85 b4 f5 ff ff    	mov    -0xa4c(%rbp),%eax
    f81f:	48 63 d0             	movslq %eax,%rdx
    f822:	8b 85 b0 f5 ff ff    	mov    -0xa50(%rbp),%eax
    f828:	48 98                	cltq   
    f82a:	48 01 d0             	add    %rdx,%rax
    f82d:	48 bb b1 98 c1 36 0f 	movabs $0xd1a4230f36c198b1,%rbx
    f834:	23 a4 d1 
    f837:	48 89 9c c5 30 f7 ff 	mov    %rbx,-0x8d0(%rbp,%rax,8)
    f83e:	ff 
    f83f:	83 85 b4 f5 ff ff 01 	addl   $0x1,-0xa4c(%rbp)
    f846:	83 bd b4 f5 ff ff 00 	cmpl   $0x0,-0xa4c(%rbp)
    f84d:	7e ca                	jle    f819 <func_45+0x1116>
    f84f:	83 85 b0 f5 ff ff 01 	addl   $0x1,-0xa50(%rbp)
    f856:	83 bd b0 f5 ff ff 02 	cmpl   $0x2,-0xa50(%rbp)
    f85d:	7e ae                	jle    f80d <func_45+0x110a>
    f85f:	48 8b 85 68 f5 ff ff 	mov    -0xa98(%rbp),%rax
    f866:	0f b7 d8             	movzwl %ax,%ebx
    f869:	44 0f be a5 60 f5 ff 	movsbl -0xaa0(%rbp),%r12d
    f870:	ff 
    f871:	0f b6 95 7c f5 ff ff 	movzbl -0xa84(%rbp),%edx
    f878:	8b 85 84 f5 ff ff    	mov    -0xa7c(%rbp),%eax
    f87e:	85 c0                	test   %eax,%eax
    f880:	0f 94 c0             	sete   %al
    f883:	0f b6 c0             	movzbl %al,%eax
    f886:	48 39 85 68 f5 ff ff 	cmp    %rax,-0xa98(%rbp)
    f88d:	0f 94 c0             	sete   %al
    f890:	0f b6 c0             	movzbl %al,%eax
    f893:	39 c2                	cmp    %eax,%edx
    f895:	0f 9f c0             	setg   %al
    f898:	44 0f b6 f0          	movzbl %al,%r14d
    f89c:	44 0f be ad 60 f5 ff 	movsbl -0xaa0(%rbp),%r13d
    f8a3:	ff 
    f8a4:	48 8b 95 68 f5 ff ff 	mov    -0xa98(%rbp),%rdx
    f8ab:	48 8b 05 36 d5 00 00 	mov    0xd536(%rip),%rax        # 1cde8 <g_290>
    f8b2:	48 8b 00             	mov    (%rax),%rax
    f8b5:	48 89 d6             	mov    %rdx,%rsi
    f8b8:	48 89 c7             	mov    %rax,%rdi
    f8bb:	e8 e8 cf ff ff       	callq  c8a8 <safe_sub_func_int64_t_s_s>
    f8c0:	48 0f be 95 5c f5 ff 	movsbq -0xaa4(%rbp),%rdx
    f8c7:	ff 
    f8c8:	48 39 d0             	cmp    %rdx,%rax
    f8cb:	0f 95 c0             	setne  %al
    f8ce:	0f b6 d0             	movzbl %al,%edx
    f8d1:	48 8b 8d 40 f7 ff ff 	mov    -0x8c0(%rbp),%rcx
    f8d8:	48 8b 05 e9 f5 00 00 	mov    0xf5e9(%rip),%rax        # 1eec8 <g_1712>
    f8df:	88 08                	mov    %cl,(%rax)
    f8e1:	0f b6 00             	movzbl (%rax),%eax
    f8e4:	0f be c0             	movsbl %al,%eax
    f8e7:	89 d6                	mov    %edx,%esi
    f8e9:	89 c7                	mov    %eax,%edi
    f8eb:	e8 7c ca ff ff       	callq  c36c <safe_rshift_func_int8_t_s_u>
    f8f0:	48 8b 85 40 f7 ff ff 	mov    -0x8c0(%rbp),%rax
    f8f7:	48 83 f8 01          	cmp    $0x1,%rax
    f8fb:	0f 95 c2             	setne  %dl
    f8fe:	48 8b 85 68 f6 ff ff 	mov    -0x998(%rbp),%rax
    f905:	48 8b 00             	mov    (%rax),%rax
    f908:	0f b6 d2             	movzbl %dl,%edx
    f90b:	89 10                	mov    %edx,(%rax)
    f90d:	48 8d 05 18 b7 00 00 	lea    0xb718(%rip),%rax        # 1b02c <g_36>
    f914:	0f b7 00             	movzwl (%rax),%eax
    f917:	98                   	cwtl   
    f918:	89 c6                	mov    %eax,%esi
    f91a:	bf f6 73 00 00       	mov    $0x73f6,%edi
    f91f:	e8 31 cb ff ff       	callq  c455 <safe_div_func_int16_t_s_s>
    f924:	98                   	cwtl   
    f925:	44 89 ee             	mov    %r13d,%esi
    f928:	89 c7                	mov    %eax,%edi
    f92a:	e8 c6 ca ff ff       	callq  c3f5 <safe_mul_func_int16_t_s_s>
    f92f:	44 31 f0             	xor    %r14d,%eax
    f932:	98                   	cwtl   
    f933:	be ff ff ff ff       	mov    $0xffffffff,%esi
    f938:	89 c7                	mov    %eax,%edi
    f93a:	e8 94 ca ff ff       	callq  c3d3 <safe_sub_func_int16_t_s_s>
    f93f:	0f be 85 5c f5 ff ff 	movsbl -0xaa4(%rbp),%eax
    f946:	44 89 e6             	mov    %r12d,%esi
    f949:	89 c7                	mov    %eax,%edi
    f94b:	e8 c6 ca ff ff       	callq  c416 <safe_mod_func_int16_t_s_s>
    f950:	98                   	cwtl   
    f951:	09 85 d8 f5 ff ff    	or     %eax,-0xa28(%rbp)
    f957:	48 8b 05 52 d4 00 00 	mov    0xd452(%rip),%rax        # 1cdb0 <g_211>
    f95e:	48 8b 00             	mov    (%rax),%rax
    f961:	8b 95 d8 f5 ff ff    	mov    -0xa28(%rbp),%edx
    f967:	66 89 10             	mov    %dx,(%rax)
    f96a:	8b 85 90 f5 ff ff    	mov    -0xa70(%rbp),%eax
    f970:	3d d2 6c ef 2c       	cmp    $0x2cef6cd2,%eax
    f975:	7f 08                	jg     f97f <func_45+0x127c>
    f977:	48 83 bd 18 f6 ff ff 	cmpq   $0x0,-0x9e8(%rbp)
    f97e:	00 
    f97f:	b8 00 00 00 00       	mov    $0x0,%eax
    f984:	0f b7 c0             	movzwl %ax,%eax
    f987:	89 de                	mov    %ebx,%esi
    f989:	89 c7                	mov    %eax,%edi
    f98b:	e8 ad d3 ff ff       	callq  cd3d <safe_mul_func_uint16_t_u_u>
    f990:	0f b7 c0             	movzwl %ax,%eax
    f993:	48 39 85 68 f5 ff ff 	cmp    %rax,-0xa98(%rbp)
    f99a:	0f 95 c0             	setne  %al
    f99d:	0f b6 d0             	movzbl %al,%edx
    f9a0:	48 8b 85 50 f7 ff ff 	mov    -0x8b0(%rbp),%rax
    f9a7:	48 39 85 30 f6 ff ff 	cmp    %rax,-0x9d0(%rbp)
    f9ae:	0f 95 c0             	setne  %al
    f9b1:	0f b6 c0             	movzbl %al,%eax
    f9b4:	f7 d0                	not    %eax
    f9b6:	98                   	cwtl   
    f9b7:	89 d6                	mov    %edx,%esi
    f9b9:	89 c7                	mov    %eax,%edi
    f9bb:	e8 35 ca ff ff       	callq  c3f5 <safe_mul_func_int16_t_s_s>
    f9c0:	66 85 c0             	test   %ax,%ax
    f9c3:	74 11                	je     f9d6 <func_45+0x12d3>
    f9c5:	48 83 bd 50 f5 ff ff 	cmpq   $0x0,-0xab0(%rbp)
    f9cc:	00 
    f9cd:	74 07                	je     f9d6 <func_45+0x12d3>
    f9cf:	b8 01 00 00 00       	mov    $0x1,%eax
    f9d4:	eb 05                	jmp    f9db <func_45+0x12d8>
    f9d6:	b8 00 00 00 00       	mov    $0x0,%eax
    f9db:	0f b7 c0             	movzwl %ax,%eax
    f9de:	be 4e 00 00 00       	mov    $0x4e,%esi
    f9e3:	89 c7                	mov    %eax,%edi
    f9e5:	e8 15 d3 ff ff       	callq  ccff <safe_add_func_uint16_t_u_u>
    f9ea:	66 85 c0             	test   %ax,%ax
    f9ed:	0f 84 d8 01 00 00    	je     fbcb <func_45+0x14c8>
    f9f3:	c6 85 7d f5 ff ff 13 	movb   $0x13,-0xa83(%rbp)
    f9fa:	48 8d 85 84 f5 ff ff 	lea    -0xa7c(%rbp),%rax
    fa01:	48 89 85 90 f6 ff ff 	mov    %rax,-0x970(%rbp)
    fa08:	48 8d 05 f9 f6 00 00 	lea    0xf6f9(%rip),%rax        # 1f108 <g_2623>
    fa0f:	48 89 85 98 f6 ff ff 	mov    %rax,-0x968(%rbp)
    fa16:	48 c7 85 a0 f6 ff ff 	movq   $0x0,-0x960(%rbp)
    fa1d:	00 00 00 00 
    fa21:	c7 85 f0 f5 ff ff 50 	movl   $0x5a49b250,-0xa10(%rbp)
    fa28:	b2 49 5a 
    fa2b:	0f b6 85 64 f5 ff ff 	movzbl -0xa9c(%rbp),%eax
    fa32:	0f b6 d8             	movzbl %al,%ebx
    fa35:	48 8b 85 10 f6 ff ff 	mov    -0x9f0(%rbp),%rax
    fa3c:	8b 00                	mov    (%rax),%eax
    fa3e:	44 0f b6 e0          	movzbl %al,%r12d
    fa42:	be f6 ff ff ff       	mov    $0xfffffff6,%esi
    fa47:	bf 08 00 00 00       	mov    $0x8,%edi
    fa4c:	e8 82 c9 ff ff       	callq  c3d3 <safe_sub_func_int16_t_s_s>
    fa51:	66 83 f8 01          	cmp    $0x1,%ax
    fa55:	0f 94 c0             	sete   %al
    fa58:	0f b6 c0             	movzbl %al,%eax
    fa5b:	44 89 e6             	mov    %r12d,%esi
    fa5e:	89 c7                	mov    %eax,%edi
    fa60:	e8 13 d1 ff ff       	callq  cb78 <safe_sub_func_uint8_t_u_u>
    fa65:	48 8b 85 68 f6 ff ff 	mov    -0x998(%rbp),%rax
    fa6c:	48 8b 00             	mov    (%rax),%rax
    fa6f:	8b 00                	mov    (%rax),%eax
    fa71:	85 c0                	test   %eax,%eax
    fa73:	0f b6 85 64 f5 ff ff 	movzbl -0xa9c(%rbp),%eax
    fa7a:	44 0f be e0          	movsbl %al,%r12d
    fa7e:	48 8b 85 10 f6 ff ff 	mov    -0x9f0(%rbp),%rax
    fa85:	8b 10                	mov    (%rax),%edx
    fa87:	0f b6 85 7d f5 ff ff 	movzbl -0xa83(%rbp),%eax
    fa8e:	83 f0 c0             	xor    $0xffffffc0,%eax
    fa91:	88 85 7d f5 ff ff    	mov    %al,-0xa83(%rbp)
    fa97:	0f b6 8d 7d f5 ff ff 	movzbl -0xa83(%rbp),%ecx
    fa9e:	48 8b 85 90 f6 ff ff 	mov    -0x970(%rbp),%rax
    faa5:	89 08                	mov    %ecx,(%rax)
    faa7:	48 8b 85 90 f6 ff ff 	mov    -0x970(%rbp),%rax
    faae:	8b 00                	mov    (%rax),%eax
    fab0:	89 d6                	mov    %edx,%esi
    fab2:	89 c7                	mov    %eax,%edi
    fab4:	e8 46 cc ff ff       	callq  c6ff <safe_div_func_int32_t_s_s>
    fab9:	89 c2                	mov    %eax,%edx
    fabb:	48 8b 05 06 f4 00 00 	mov    0xf406(%rip),%rax        # 1eec8 <g_1712>
    fac2:	88 10                	mov    %dl,(%rax)
    fac4:	0f b6 00             	movzbl (%rax),%eax
    fac7:	0f be c0             	movsbl %al,%eax
    faca:	44 89 e6             	mov    %r12d,%esi
    facd:	89 c7                	mov    %eax,%edi
    facf:	e8 61 c8 ff ff       	callq  c335 <safe_rshift_func_int8_t_s_s>
    fad4:	0f be c0             	movsbl %al,%eax
    fad7:	be 02 00 00 00       	mov    $0x2,%esi
    fadc:	89 c7                	mov    %eax,%edi
    fade:	e8 89 c8 ff ff       	callq  c36c <safe_rshift_func_int8_t_s_u>
    fae3:	0f be d0             	movsbl %al,%edx
    fae6:	48 83 bd 98 f6 ff ff 	cmpq   $0x0,-0x968(%rbp)
    faed:	00 
    faee:	0f 94 c0             	sete   %al
    faf1:	0f b6 c0             	movzbl %al,%eax
    faf4:	39 c2                	cmp    %eax,%edx
    faf6:	0f 95 c0             	setne  %al
    faf9:	0f b6 c0             	movzbl %al,%eax
    fafc:	89 de                	mov    %ebx,%esi
    fafe:	89 c7                	mov    %eax,%edi
    fb00:	e8 73 d0 ff ff       	callq  cb78 <safe_sub_func_uint8_t_u_u>
    fb05:	84 c0                	test   %al,%al
    fb07:	74 0c                	je     fb15 <func_45+0x1412>
    fb09:	48 8b 85 48 f6 ff ff 	mov    -0x9b8(%rbp),%rax
    fb10:	e9 cc 03 00 00       	jmpq   fee1 <func_45+0x17de>
    fb15:	48 8d 85 88 f5 ff ff 	lea    -0xa78(%rbp),%rax
    fb1c:	48 89 85 90 f6 ff ff 	mov    %rax,-0x970(%rbp)
    fb23:	48 8b 85 e0 f7 ff ff 	mov    -0x820(%rbp),%rax
    fb2a:	48 39 85 a0 f6 ff ff 	cmp    %rax,-0x960(%rbp)
    fb31:	0f 94 c2             	sete   %dl
    fb34:	48 8b 85 68 f6 ff ff 	mov    -0x998(%rbp),%rax
    fb3b:	48 8b 00             	mov    (%rax),%rax
    fb3e:	0f b6 d2             	movzbl %dl,%edx
    fb41:	89 10                	mov    %edx,(%rax)
    fb43:	0f b6 85 64 f5 ff ff 	movzbl -0xa9c(%rbp),%eax
    fb4a:	84 c0                	test   %al,%al
    fb4c:	0f 85 5a 03 00 00    	jne    feac <func_45+0x17a9>
    fb52:	c7 85 c4 f5 ff ff 00 	movl   $0x0,-0xa3c(%rbp)
    fb59:	00 00 00 
    fb5c:	eb 48                	jmp    fba6 <func_45+0x14a3>
    fb5e:	80 bd 5c f5 ff ff 00 	cmpb   $0x0,-0xaa4(%rbp)
    fb65:	75 4a                	jne    fbb1 <func_45+0x14ae>
    fb67:	8b 85 a8 fb ff ff    	mov    -0x458(%rbp),%eax
    fb6d:	85 c0                	test   %eax,%eax
    fb6f:	75 17                	jne    fb88 <func_45+0x1485>
    fb71:	48 83 bd 68 f5 ff ff 	cmpq   $0x0,-0xa98(%rbp)
    fb78:	00 
    fb79:	75 10                	jne    fb8b <func_45+0x1488>
    fb7b:	0f b6 85 64 f5 ff ff 	movzbl -0xa9c(%rbp),%eax
    fb82:	84 c0                	test   %al,%al
    fb84:	75 2e                	jne    fbb4 <func_45+0x14b1>
    fb86:	eb 04                	jmp    fb8c <func_45+0x1489>
    fb88:	90                   	nop
    fb89:	eb 01                	jmp    fb8c <func_45+0x1489>
    fb8b:	90                   	nop
    fb8c:	8b 85 c4 f5 ff ff    	mov    -0xa3c(%rbp),%eax
    fb92:	98                   	cwtl   
    fb93:	be 05 00 00 00       	mov    $0x5,%esi
    fb98:	89 c7                	mov    %eax,%edi
    fb9a:	e8 14 c8 ff ff       	callq  c3b3 <safe_add_func_int16_t_s_s>
    fb9f:	98                   	cwtl   
    fba0:	89 85 c4 f5 ff ff    	mov    %eax,-0xa3c(%rbp)
    fba6:	83 bd c4 f5 ff ff 19 	cmpl   $0x19,-0xa3c(%rbp)
    fbad:	75 af                	jne    fb5e <func_45+0x145b>
    fbaf:	eb 04                	jmp    fbb5 <func_45+0x14b2>
    fbb1:	90                   	nop
    fbb2:	eb 01                	jmp    fbb5 <func_45+0x14b2>
    fbb4:	90                   	nop
    fbb5:	0f b7 85 80 f5 ff ff 	movzwl -0xa80(%rbp),%eax
    fbbc:	83 c0 01             	add    $0x1,%eax
    fbbf:	66 89 85 80 f5 ff ff 	mov    %ax,-0xa80(%rbp)
    fbc6:	e9 8a 02 00 00       	jmpq   fe55 <func_45+0x1752>
    fbcb:	48 8d 85 88 f5 ff ff 	lea    -0xa78(%rbp),%rax
    fbd2:	48 89 85 80 f6 ff ff 	mov    %rax,-0x980(%rbp)
    fbd9:	48 8d 85 70 f9 ff ff 	lea    -0x690(%rbp),%rax
    fbe0:	48 05 38 01 00 00    	add    $0x138,%rax
    fbe6:	48 89 85 88 f6 ff ff 	mov    %rax,-0x978(%rbp)
    fbed:	c7 85 b8 f5 ff ff 9d 	movl   $0x12b1cc9d,-0xa48(%rbp)
    fbf4:	cc b1 12 
    fbf7:	c7 85 dc f5 ff ff 21 	movl   $0xf91c4721,-0xa24(%rbp)
    fbfe:	47 1c f9 
    fc01:	c6 85 7c f5 ff ff 00 	movb   $0x0,-0xa84(%rbp)
    fc08:	e9 c7 01 00 00       	jmpq   fdd4 <func_45+0x16d1>
    fc0d:	66 c7 85 82 f5 ff ff 	movw   $0x352,-0xa7e(%rbp)
    fc14:	52 03 
    fc16:	c7 85 e0 f5 ff ff 88 	movl   $0x2b6e5988,-0xa20(%rbp)
    fc1d:	59 6e 2b 
    fc20:	c7 85 e4 f5 ff ff 05 	movl   $0x5,-0xa1c(%rbp)
    fc27:	00 00 00 
    fc2a:	c7 85 e8 f5 ff ff 00 	movl   $0x0,-0xa18(%rbp)
    fc31:	00 00 00 
    fc34:	c7 85 ec f5 ff ff ff 	movl   $0xffffffff,-0xa14(%rbp)
    fc3b:	ff ff ff 
    fc3e:	48 8d 85 40 fc ff ff 	lea    -0x3c0(%rbp),%rax
    fc45:	48 8d 15 74 78 00 00 	lea    0x7874(%rip),%rdx        # 174c0 <g_3452+0x458>
    fc4c:	b9 70 00 00 00       	mov    $0x70,%ecx
    fc51:	48 89 c7             	mov    %rax,%rdi
    fc54:	48 89 d6             	mov    %rdx,%rsi
    fc57:	f3 48 a5             	rep movsq %ds:(%rsi),%es:(%rdi)
    fc5a:	48 8b 85 80 f6 ff ff 	mov    -0x980(%rbp),%rax
    fc61:	48 89 85 88 f6 ff ff 	mov    %rax,-0x978(%rbp)
    fc68:	48 8b 85 68 f5 ff ff 	mov    -0xa98(%rbp),%rax
    fc6f:	89 c2                	mov    %eax,%edx
    fc71:	48 8b 85 80 f6 ff ff 	mov    -0x980(%rbp),%rax
    fc78:	89 10                	mov    %edx,(%rax)
    fc7a:	48 8b 85 80 f6 ff ff 	mov    -0x980(%rbp),%rax
    fc81:	8b 00                	mov    (%rax),%eax
    fc83:	85 c0                	test   %eax,%eax
    fc85:	0f 84 03 01 00 00    	je     fd8e <func_45+0x168b>
    fc8b:	66 83 85 82 f5 ff ff 	addw   $0x1,-0xa7e(%rbp)
    fc92:	01 
    fc93:	0f b7 85 82 f5 ff ff 	movzwl -0xa7e(%rbp),%eax
    fc9a:	0f b7 d0             	movzwl %ax,%edx
    fc9d:	8b 85 88 f5 ff ff    	mov    -0xa78(%rbp),%eax
    fca3:	21 d0                	and    %edx,%eax
    fca5:	89 85 88 f5 ff ff    	mov    %eax,-0xa78(%rbp)
    fcab:	8b 85 88 f5 ff ff    	mov    -0xa78(%rbp),%eax
    fcb1:	85 c0                	test   %eax,%eax
    fcb3:	0f 85 ad 00 00 00    	jne    fd66 <func_45+0x1663>
    fcb9:	48 8b 85 10 f6 ff ff 	mov    -0x9f0(%rbp),%rax
    fcc0:	c7 00 89 20 00 00    	movl   $0x2089,(%rax)
    fcc6:	48 8b 05 ab d0 00 00 	mov    0xd0ab(%rip),%rax        # 1cd78 <g_158>
    fccd:	48 8b 00             	mov    (%rax),%rax
    fcd0:	48 8b 00             	mov    (%rax),%rax
    fcd3:	0f b7 00             	movzwl (%rax),%eax
    fcd6:	0f bf d0             	movswl %ax,%edx
    fcd9:	48 8b 85 80 f6 ff ff 	mov    -0x980(%rbp),%rax
    fce0:	89 10                	mov    %edx,(%rax)
    fce2:	48 8b 85 50 f5 ff ff 	mov    -0xab0(%rbp),%rax
    fce9:	48 3b 85 68 f5 ff ff 	cmp    -0xa98(%rbp),%rax
    fcf0:	0f 95 c0             	setne  %al
    fcf3:	0f b6 d0             	movzbl %al,%edx
    fcf6:	0f b6 85 64 f5 ff ff 	movzbl -0xa9c(%rbp),%eax
    fcfd:	0f be c0             	movsbl %al,%eax
    fd00:	39 c2                	cmp    %eax,%edx
    fd02:	75 0b                	jne    fd0f <func_45+0x160c>
    fd04:	0f b6 85 64 f5 ff ff 	movzbl -0xa9c(%rbp),%eax
    fd0b:	84 c0                	test   %al,%al
    fd0d:	74 07                	je     fd16 <func_45+0x1613>
    fd0f:	b8 01 00 00 00       	mov    $0x1,%eax
    fd14:	eb 05                	jmp    fd1b <func_45+0x1618>
    fd16:	b8 00 00 00 00       	mov    $0x0,%eax
    fd1b:	89 85 84 f5 ff ff    	mov    %eax,-0xa7c(%rbp)
    fd21:	8b 85 84 f5 ff ff    	mov    -0xa7c(%rbp),%eax
    fd27:	89 85 94 f5 ff ff    	mov    %eax,-0xa6c(%rbp)
    fd2d:	8b 85 94 f5 ff ff    	mov    -0xa6c(%rbp),%eax
    fd33:	83 f8 01             	cmp    $0x1,%eax
    fd36:	66 0f be 85 60 f5 ff 	movsbw -0xaa0(%rbp),%ax
    fd3d:	ff 
    fd3e:	0f b7 c0             	movzwl %ax,%eax
    fd41:	0f b6 95 f6 f6 ff ff 	movzbl -0x90a(%rbp),%edx
    fd48:	83 c2 01             	add    $0x1,%edx
    fd4b:	88 95 f6 f6 ff ff    	mov    %dl,-0x90a(%rbp)
    fd51:	89 c6                	mov    %eax,%esi
    fd53:	bf 7e fb 00 00       	mov    $0xfb7e,%edi
    fd58:	e8 e0 cf ff ff       	callq  cd3d <safe_mul_func_uint16_t_u_u>
    fd5d:	0f b6 85 64 f5 ff ff 	movzbl -0xa9c(%rbp),%eax
    fd64:	84 c0                	test   %al,%al
    fd66:	48 8b 05 8b df 00 00 	mov    0xdf8b(%rip),%rax        # 1dcf8 <g_1173>
    fd6d:	48 8b 00             	mov    (%rax),%rax
    fd70:	48 8b 00             	mov    (%rax),%rax
    fd73:	48 8b 00             	mov    (%rax),%rax
    fd76:	8b 00                	mov    (%rax),%eax
    fd78:	89 85 e4 f5 ff ff    	mov    %eax,-0xa1c(%rbp)
    fd7e:	83 bd e4 f5 ff ff 00 	cmpl   $0x0,-0xa1c(%rbp)
    fd85:	74 07                	je     fd8e <func_45+0x168b>
    fd87:	b8 01 00 00 00       	mov    $0x1,%eax
    fd8c:	eb 05                	jmp    fd93 <func_45+0x1690>
    fd8e:	b8 00 00 00 00       	mov    $0x0,%eax
    fd93:	89 c6                	mov    %eax,%esi
    fd95:	bf 2d 7c 00 00       	mov    $0x7c2d,%edi
    fd9a:	e8 1f d0 ff ff       	callq  cdbe <safe_lshift_func_uint16_t_u_s>
    fd9f:	66 85 c0             	test   %ax,%ax
    fda2:	0f 94 c0             	sete   %al
    fda5:	0f b6 c0             	movzbl %al,%eax
    fda8:	48 39 85 18 f6 ff ff 	cmp    %rax,-0x9e8(%rbp)
    fdaf:	76 0a                	jbe    fdbb <func_45+0x16b8>
    fdb1:	48 83 bd 50 f5 ff ff 	cmpq   $0x0,-0xab0(%rbp)
    fdb8:	00 
    fdb9:	74 07                	je     fdc2 <func_45+0x16bf>
    fdbb:	b8 01 00 00 00       	mov    $0x1,%eax
    fdc0:	eb 05                	jmp    fdc7 <func_45+0x16c4>
    fdc2:	b8 00 00 00 00       	mov    $0x0,%eax
    fdc7:	09 85 a8 f5 ff ff    	or     %eax,-0xa58(%rbp)
    fdcd:	80 85 7c f5 ff ff 01 	addb   $0x1,-0xa84(%rbp)
    fdd4:	80 bd 7c f5 ff ff 03 	cmpb   $0x3,-0xa84(%rbp)
    fddb:	0f 86 2c fe ff ff    	jbe    fc0d <func_45+0x150a>
    fde1:	c7 85 b8 f5 ff ff 01 	movl   $0x1,-0xa48(%rbp)
    fde8:	00 00 00 
    fdeb:	eb 5f                	jmp    fe4c <func_45+0x1749>
    fded:	c7 85 bc f5 ff ff 00 	movl   $0x0,-0xa44(%rbp)
    fdf4:	00 00 00 
    fdf7:	eb 25                	jmp    fe1e <func_45+0x171b>
    fdf9:	8b 85 bc f5 ff ff    	mov    -0xa44(%rbp),%eax
    fdff:	48 98                	cltq   
    fe01:	48 8d 95 70 f9 ff ff 	lea    -0x690(%rbp),%rdx
    fe08:	48 81 c2 38 01 00 00 	add    $0x138,%rdx
    fe0f:	48 89 94 c5 40 fc ff 	mov    %rdx,-0x3c0(%rbp,%rax,8)
    fe16:	ff 
    fe17:	83 85 bc f5 ff ff 01 	addl   $0x1,-0xa44(%rbp)
    fe1e:	83 bd bc f5 ff ff 08 	cmpl   $0x8,-0xa44(%rbp)
    fe25:	7e d2                	jle    fdf9 <func_45+0x16f6>
    fe27:	48 8b 05 92 cf 00 00 	mov    0xcf92(%rip),%rax        # 1cdc0 <g_219>
    fe2e:	48 8b 95 68 fc ff ff 	mov    -0x398(%rbp),%rdx
    fe35:	48 89 10             	mov    %rdx,(%rax)
    fe38:	48 8b 10             	mov    (%rax),%rdx
    fe3b:	48 8b 85 68 f6 ff ff 	mov    -0x998(%rbp),%rax
    fe42:	48 89 10             	mov    %rdx,(%rax)
    fe45:	83 ad b8 f5 ff ff 01 	subl   $0x1,-0xa48(%rbp)
    fe4c:	83 bd b8 f5 ff ff 00 	cmpl   $0x0,-0xa48(%rbp)
    fe53:	79 98                	jns    fded <func_45+0x16ea>
    fe55:	83 85 c0 f5 ff ff 01 	addl   $0x1,-0xa40(%rbp)
    fe5c:	80 bd 7a f5 ff ff 00 	cmpb   $0x0,-0xa86(%rbp)
    fe63:	75 14                	jne    fe79 <func_45+0x1776>
    fe65:	eb 01                	jmp    fe68 <func_45+0x1765>
    fe67:	90                   	nop
    fe68:	48 8b 05 71 cf 00 00 	mov    0xcf71(%rip),%rax        # 1cde0 <g_284>
    fe6f:	48 8b 95 58 f8 ff ff 	mov    -0x7a8(%rbp),%rdx
    fe76:	48 89 10             	mov    %rdx,(%rax)
    fe79:	8b 05 49 b6 00 00    	mov    0xb649(%rip),%eax        # 1b4c8 <g_713>
    fe7f:	83 e8 01             	sub    $0x1,%eax
    fe82:	89 05 40 b6 00 00    	mov    %eax,0xb640(%rip)        # 1b4c8 <g_713>
    fe88:	8b 05 3a b6 00 00    	mov    0xb63a(%rip),%eax        # 1b4c8 <g_713>
    fe8e:	83 f8 ff             	cmp    $0xffffffff,%eax
    fe91:	0f 8c 29 eb ff ff    	jl     e9c0 <func_45+0x2bd>
    fe97:	eb 14                	jmp    fead <func_45+0x17aa>
    fe99:	48 8b 05 50 02 01 00 	mov    0x10250(%rip),%rax        # 200f0 <g_3968>
    fea0:	48 8d 15 91 f0 00 00 	lea    0xf091(%rip),%rdx        # 1ef38 <g_2490>
    fea7:	48 89 10             	mov    %rdx,(%rax)
    feaa:	eb 01                	jmp    fead <func_45+0x17aa>
    feac:	90                   	nop
    fead:	48 c7 05 70 b6 00 00 	movq   $0x0,0xb670(%rip)        # 1b528 <g_1248>
    feb4:	00 00 00 00 
    feb8:	90                   	nop
    feb9:	48 8b 05 68 b6 00 00 	mov    0xb668(%rip),%rax        # 1b528 <g_1248>
    fec0:	48 83 f8 02          	cmp    $0x2,%rax
    fec4:	7f 14                	jg     feda <func_45+0x17d7>
    fec6:	48 c7 85 e8 f6 ff ff 	movq   $0x0,-0x918(%rbp)
    fecd:	00 00 00 00 
    fed1:	48 8b 85 e8 f6 ff ff 	mov    -0x918(%rbp),%rax
    fed8:	eb 07                	jmp    fee1 <func_45+0x17de>
    feda:	48 8b 85 20 f6 ff ff 	mov    -0x9e0(%rbp),%rax
    fee1:	48 8b 5d d8          	mov    -0x28(%rbp),%rbx
    fee5:	64 48 33 1c 25 28 00 	xor    %fs:0x28,%rbx
    feec:	00 00 
    feee:	74 05                	je     fef5 <func_45+0x17f2>
    fef0:	e8 7b c1 ff ff       	callq  c070 <__stack_chk_fail@plt>
    fef5:	48 81 c4 90 0a 00 00 	add    $0xa90,%rsp
    fefc:	5b                   	pop    %rbx
    fefd:	41 5c                	pop    %r12
    feff:	41 5d                	pop    %r13
    ff01:	41 5e                	pop    %r14
    ff03:	5d                   	pop    %rbp
    ff04:	c3                   	retq   

000000000000ff05 <func_54>:
    ff05:	f3 0f 1e fa          	endbr64 
    ff09:	55                   	push   %rbp
    ff0a:	48 89 e5             	mov    %rsp,%rbp
    ff0d:	89 7d ec             	mov    %edi,-0x14(%rbp)
    ff10:	89 75 e8             	mov    %esi,-0x18(%rbp)
    ff13:	89 55 e4             	mov    %edx,-0x1c(%rbp)
    ff16:	48 c7 45 f8 00 00 00 	movq   $0x0,-0x8(%rbp)
    ff1d:	00 
    ff1e:	48 8b 45 f8          	mov    -0x8(%rbp),%rax
    ff22:	5d                   	pop    %rbp
    ff23:	c3                   	retq   

000000000000ff24 <func_58>:
    ff24:	f3 0f 1e fa          	endbr64 
    ff28:	55                   	push   %rbp
    ff29:	48 89 e5             	mov    %rsp,%rbp
    ff2c:	41 57                	push   %r15
    ff2e:	41 56                	push   %r14
    ff30:	41 55                	push   %r13
    ff32:	41 54                	push   %r12
    ff34:	53                   	push   %rbx
    ff35:	48 81 ec 00 10 00 00 	sub    $0x1000,%rsp
    ff3c:	48 83 0c 24 00       	orq    $0x0,(%rsp)
    ff41:	48 81 ec 00 10 00 00 	sub    $0x1000,%rsp
    ff48:	48 83 0c 24 00       	orq    $0x0,(%rsp)
    ff4d:	48 81 ec 18 02 00 00 	sub    $0x218,%rsp
    ff54:	89 f8                	mov    %edi,%eax
    ff56:	66 89 85 cc dd ff ff 	mov    %ax,-0x2234(%rbp)
    ff5d:	64 48 8b 04 25 28 00 	mov    %fs:0x28,%rax
    ff64:	00 00 
    ff66:	48 89 45 c8          	mov    %rax,-0x38(%rbp)
    ff6a:	31 c0                	xor    %eax,%eax
    ff6c:	66 c7 85 ec dd ff ff 	movw   $0x0,-0x2214(%rbp)
    ff73:	00 00 
    ff75:	c7 85 04 de ff ff ff 	movl   $0xffffffff,-0x21fc(%rbp)
    ff7c:	ff ff ff 
    ff7f:	c7 85 08 de ff ff 01 	movl   $0x1,-0x21f8(%rbp)
    ff86:	00 00 00 
    ff89:	c7 85 20 e3 ff ff 00 	movl   $0x0,-0x1ce0(%rbp)
    ff90:	00 00 00 
    ff93:	c7 85 24 e3 ff ff 00 	movl   $0x0,-0x1cdc(%rbp)
    ff9a:	00 00 00 
    ff9d:	c7 85 28 e3 ff ff 00 	movl   $0x0,-0x1cd8(%rbp)
    ffa4:	00 00 00 
    ffa7:	c7 85 2c e3 ff ff 00 	movl   $0x0,-0x1cd4(%rbp)
    ffae:	00 00 00 
    ffb1:	c7 85 30 e3 ff ff 00 	movl   $0x0,-0x1cd0(%rbp)
    ffb8:	00 00 00 
    ffbb:	c7 85 34 e3 ff ff 00 	movl   $0x0,-0x1ccc(%rbp)
    ffc2:	00 00 00 
    ffc5:	c7 85 34 de ff ff 00 	movl   $0x0,-0x21cc(%rbp)
    ffcc:	00 00 00 
    ffcf:	c7 45 b8 fd 78 fd fd 	movl   $0xfdfd78fd,-0x48(%rbp)
    ffd6:	66 c7 45 bc 78 fd    	movw   $0xfd78,-0x44(%rbp)
    ffdc:	48 8d 05 3d cf 00 00 	lea    0xcf3d(%rip),%rax        # 1cf20 <g_836>
    ffe3:	48 89 85 08 df ff ff 	mov    %rax,-0x20f8(%rbp)
    ffea:	48 c7 85 10 df ff ff 	movq   $0x0,-0x20f0(%rbp)
    fff1:	00 00 00 00 
    fff5:	48 8d 85 10 df ff ff 	lea    -0x20f0(%rbp),%rax
    fffc:	48 89 85 a0 df ff ff 	mov    %rax,-0x2060(%rbp)
   10003:	48 8d 45 b8          	lea    -0x48(%rbp),%rax
   10007:	48 83 c0 03          	add    $0x3,%rax
   1000b:	48 89 85 a8 df ff ff 	mov    %rax,-0x2058(%rbp)
   10012:	48 c7 85 18 df ff ff 	movq   $0x0,-0x20e8(%rbp)
   10019:	00 00 00 00 
   1001d:	c6 85 d3 dd ff ff 01 	movb   $0x1,-0x222d(%rbp)
   10024:	66 c7 85 ee dd ff ff 	movw   $0x946e,-0x2212(%rbp)
   1002b:	6e 94 
   1002d:	48 8d 05 94 cd 00 00 	lea    0xcd94(%rip),%rax        # 1cdc8 <g_243>
   10034:	48 89 85 b0 df ff ff 	mov    %rax,-0x2050(%rbp)
   1003b:	48 8d 05 3e 05 01 00 	lea    0x1053e(%rip),%rax        # 20580 <g_577>
   10042:	48 89 85 20 df ff ff 	mov    %rax,-0x20e0(%rbp)
   10049:	48 8d 05 70 d6 00 00 	lea    0xd670(%rip),%rax        # 1d6c0 <g_963>
   10050:	48 89 85 b8 df ff ff 	mov    %rax,-0x2048(%rbp)
   10057:	c7 85 0c de ff ff 08 	movl   $0x6e27fc08,-0x21f4(%rbp)
   1005e:	fc 27 6e 
   10061:	48 c7 85 c0 df ff ff 	movq   $0xffffffffffffffff,-0x2040(%rbp)
   10068:	ff ff ff ff 
   1006c:	66 c7 85 f0 dd ff ff 	movw   $0xfffd,-0x2210(%rbp)
   10073:	fd ff 
   10075:	48 8d 05 e4 e4 00 00 	lea    0xe4e4(%rip),%rax        # 1e560 <g_1590>
   1007c:	48 89 85 c8 df ff ff 	mov    %rax,-0x2038(%rbp)
   10083:	c7 85 50 de ff ff ff 	movl   $0xffffffff,-0x21b0(%rbp)
   1008a:	ff ff ff 
   1008d:	66 c7 85 c0 e6 ff ff 	movw   $0x0,-0x1940(%rbp)
   10094:	00 00 
   10096:	66 c7 85 c2 e6 ff ff 	movw   $0xe009,-0x193e(%rbp)
   1009d:	09 e0 
   1009f:	66 c7 85 c4 e6 ff ff 	movw   $0x1,-0x193c(%rbp)
   100a6:	01 00 
   100a8:	66 c7 85 c6 e6 ff ff 	movw   $0x1,-0x193a(%rbp)
   100af:	01 00 
   100b1:	66 c7 85 c8 e6 ff ff 	movw   $0xe009,-0x1938(%rbp)
   100b8:	09 e0 
   100ba:	66 c7 85 ca e6 ff ff 	movw   $0x0,-0x1936(%rbp)
   100c1:	00 00 
   100c3:	66 c7 85 cc e6 ff ff 	movw   $0x10b8,-0x1934(%rbp)
   100ca:	b8 10 
   100cc:	66 c7 85 ce e6 ff ff 	movw   $0x8,-0x1932(%rbp)
   100d3:	08 00 
   100d5:	66 c7 85 d0 e6 ff ff 	movw   $0xfff9,-0x1930(%rbp)
   100dc:	f9 ff 
   100de:	66 c7 85 d2 e6 ff ff 	movw   $0x9517,-0x192e(%rbp)
   100e5:	17 95 
   100e7:	66 c7 85 d4 e6 ff ff 	movw   $0xd344,-0x192c(%rbp)
   100ee:	44 d3 
   100f0:	66 c7 85 d6 e6 ff ff 	movw   $0xd344,-0x192a(%rbp)
   100f7:	44 d3 
   100f9:	66 c7 85 d8 e6 ff ff 	movw   $0x9517,-0x1928(%rbp)
   10100:	17 95 
   10102:	66 c7 85 da e6 ff ff 	movw   $0xfff9,-0x1926(%rbp)
   10109:	f9 ff 
   1010b:	66 c7 85 dc e6 ff ff 	movw   $0xe009,-0x1924(%rbp)
   10112:	09 e0 
   10114:	66 c7 85 de e6 ff ff 	movw   $0x10b8,-0x1922(%rbp)
   1011b:	b8 10 
   1011d:	66 c7 85 e0 e6 ff ff 	movw   $0x0,-0x1920(%rbp)
   10124:	00 00 
   10126:	66 c7 85 e2 e6 ff ff 	movw   $0xe009,-0x191e(%rbp)
   1012d:	09 e0 
   1012f:	66 c7 85 e4 e6 ff ff 	movw   $0x1,-0x191c(%rbp)
   10136:	01 00 
   10138:	66 c7 85 e6 e6 ff ff 	movw   $0x1,-0x191a(%rbp)
   1013f:	01 00 
   10141:	66 c7 85 e8 e6 ff ff 	movw   $0xe009,-0x1918(%rbp)
   10148:	09 e0 
   1014a:	66 c7 85 ea e6 ff ff 	movw   $0x5b7,-0x1916(%rbp)
   10151:	b7 05 
   10153:	66 c7 85 ec e6 ff ff 	movw   $0xfff9,-0x1914(%rbp)
   1015a:	f9 ff 
   1015c:	66 c7 85 ee e6 ff ff 	movw   $0x5b7,-0x1912(%rbp)
   10163:	b7 05 
   10165:	66 c7 85 f0 e6 ff ff 	movw   $0x1,-0x1910(%rbp)
   1016c:	01 00 
   1016e:	66 c7 85 f2 e6 ff ff 	movw   $0xfff9,-0x190e(%rbp)
   10175:	f9 ff 
   10177:	66 c7 85 f4 e6 ff ff 	movw   $0x51be,-0x190c(%rbp)
   1017e:	be 51 
   10180:	66 c7 85 f6 e6 ff ff 	movw   $0x51be,-0x190a(%rbp)
   10187:	be 51 
   10189:	66 c7 85 f8 e6 ff ff 	movw   $0xffff,-0x1908(%rbp)
   10190:	ff ff 
   10192:	66 c7 85 fa e6 ff ff 	movw   $0xe009,-0x1906(%rbp)
   10199:	09 e0 
   1019b:	66 c7 85 fc e6 ff ff 	movw   $0xe5a8,-0x1904(%rbp)
   101a2:	a8 e5 
   101a4:	66 c7 85 fe e6 ff ff 	movw   $0xe009,-0x1902(%rbp)
   101ab:	09 e0 
   101ad:	66 c7 85 00 e7 ff ff 	movw   $0xffff,-0x1900(%rbp)
   101b4:	ff ff 
   101b6:	66 c7 85 02 e7 ff ff 	movw   $0xe5a8,-0x18fe(%rbp)
   101bd:	a8 e5 
   101bf:	66 c7 85 04 e7 ff ff 	movw   $0x8518,-0x18fc(%rbp)
   101c6:	18 85 
   101c8:	66 c7 85 06 e7 ff ff 	movw   $0xd344,-0x18fa(%rbp)
   101cf:	44 d3 
   101d1:	66 c7 85 08 e7 ff ff 	movw   $0x51be,-0x18f8(%rbp)
   101d8:	be 51 
   101da:	66 c7 85 0a e7 ff ff 	movw   $0x1,-0x18f6(%rbp)
   101e1:	01 00 
   101e3:	66 c7 85 0c e7 ff ff 	movw   $0xd344,-0x18f4(%rbp)
   101ea:	44 d3 
   101ec:	66 c7 85 0e e7 ff ff 	movw   $0xa4bc,-0x18f2(%rbp)
   101f3:	bc a4 
   101f5:	66 c7 85 10 e7 ff ff 	movw   $0x9517,-0x18f0(%rbp)
   101fc:	17 95 
   101fe:	66 c7 85 12 e7 ff ff 	movw   $0x5b7,-0x18ee(%rbp)
   10205:	b7 05 
   10207:	66 c7 85 14 e7 ff ff 	movw   $0xfffb,-0x18ec(%rbp)
   1020e:	fb ff 
   10210:	66 c7 85 16 e7 ff ff 	movw   $0x0,-0x18ea(%rbp)
   10217:	00 00 
   10219:	66 c7 85 18 e7 ff ff 	movw   $0xe5a8,-0x18e8(%rbp)
   10220:	a8 e5 
   10222:	66 c7 85 1a e7 ff ff 	movw   $0xb40,-0x18e6(%rbp)
   10229:	40 0b 
   1022b:	66 c7 85 1c e7 ff ff 	movw   $0x0,-0x18e4(%rbp)
   10232:	00 00 
   10234:	66 c7 85 1e e7 ff ff 	movw   $0xb40,-0x18e2(%rbp)
   1023b:	40 0b 
   1023d:	66 c7 85 20 e7 ff ff 	movw   $0xe5a8,-0x18e0(%rbp)
   10244:	a8 e5 
   10246:	66 c7 85 22 e7 ff ff 	movw   $0x5b7,-0x18de(%rbp)
   1024d:	b7 05 
   1024f:	66 c7 85 24 e7 ff ff 	movw   $0x5b7,-0x18dc(%rbp)
   10256:	b7 05 
   10258:	66 c7 85 26 e7 ff ff 	movw   $0xd344,-0x18da(%rbp)
   1025f:	44 d3 
   10261:	66 c7 85 28 e7 ff ff 	movw   $0x51be,-0x18d8(%rbp)
   10268:	be 51 
   1026a:	66 c7 85 2a e7 ff ff 	movw   $0x1,-0x18d6(%rbp)
   10271:	01 00 
   10273:	66 c7 85 2c e7 ff ff 	movw   $0xd344,-0x18d4(%rbp)
   1027a:	44 d3 
   1027c:	66 c7 85 2e e7 ff ff 	movw   $0x1,-0x18d2(%rbp)
   10283:	01 00 
   10285:	66 c7 85 30 e7 ff ff 	movw   $0x10b8,-0x18d0(%rbp)
   1028c:	b8 10 
   1028e:	66 c7 85 32 e7 ff ff 	movw   $0xe5a8,-0x18ce(%rbp)
   10295:	a8 e5 
   10297:	66 c7 85 34 e7 ff ff 	movw   $0xe5a8,-0x18cc(%rbp)
   1029e:	a8 e5 
   102a0:	66 c7 85 36 e7 ff ff 	movw   $0x10b8,-0x18ca(%rbp)
   102a7:	b8 10 
   102a9:	66 c7 85 38 e7 ff ff 	movw   $0xb40,-0x18c8(%rbp)
   102b0:	40 0b 
   102b2:	66 c7 85 3a e7 ff ff 	movw   $0xfffb,-0x18c6(%rbp)
   102b9:	fb ff 
   102bb:	66 c7 85 3c e7 ff ff 	movw   $0x10b8,-0x18c4(%rbp)
   102c2:	b8 10 
   102c4:	48 c7 85 d0 df ff ff 	movq   $0xffffffffffffffff,-0x2030(%rbp)
   102cb:	ff ff ff ff 
   102cf:	48 c7 85 d8 df ff ff 	movq   $0x5,-0x2028(%rbp)
   102d6:	05 00 00 00 
   102da:	66 c7 85 f2 dd ff ff 	movw   $0xa834,-0x220e(%rbp)
   102e1:	34 a8 
   102e3:	48 c7 85 e0 df ff ff 	movq   $0x0,-0x2020(%rbp)
   102ea:	00 00 00 00 
   102ee:	c6 85 d4 dd ff ff 01 	movb   $0x1,-0x222c(%rbp)
   102f5:	66 c7 85 f4 dd ff ff 	movw   $0xfffe,-0x220c(%rbp)
   102fc:	fe ff 
   102fe:	c6 85 d8 dd ff ff 06 	movb   $0x6,-0x2228(%rbp)
   10305:	48 c7 85 e8 df ff ff 	movq   $0x0,-0x2018(%rbp)
   1030c:	00 00 00 00 
   10310:	48 8d 05 ad ad 00 00 	lea    0xadad(%rip),%rax        # 1b0c4 <g_155>
   10317:	48 89 85 28 df ff ff 	mov    %rax,-0x20d8(%rbp)
   1031e:	66 c7 85 00 e5 ff ff 	movw   $0x3,-0x1b00(%rbp)
   10325:	03 00 
   10327:	66 c7 85 02 e5 ff ff 	movw   $0x1,-0x1afe(%rbp)
   1032e:	01 00 
   10330:	66 c7 85 04 e5 ff ff 	movw   $0x3,-0x1afc(%rbp)
   10337:	03 00 
   10339:	66 c7 85 06 e5 ff ff 	movw   $0x1,-0x1afa(%rbp)
   10340:	01 00 
   10342:	66 c7 85 08 e5 ff ff 	movw   $0x3,-0x1af8(%rbp)
   10349:	03 00 
   1034b:	66 c7 85 0a e5 ff ff 	movw   $0x1,-0x1af6(%rbp)
   10352:	01 00 
   10354:	66 c7 85 0c e5 ff ff 	movw   $0x3,-0x1af4(%rbp)
   1035b:	03 00 
   1035d:	66 c7 85 0e e5 ff ff 	movw   $0x1,-0x1af2(%rbp)
   10364:	01 00 
   10366:	66 c7 85 10 e5 ff ff 	movw   $0x3,-0x1af0(%rbp)
   1036d:	03 00 
   1036f:	66 c7 85 12 e5 ff ff 	movw   $0x1,-0x1aee(%rbp)
   10376:	01 00 
   10378:	66 c7 85 14 e5 ff ff 	movw   $0x3,-0x1aec(%rbp)
   1037f:	03 00 
   10381:	66 c7 85 16 e5 ff ff 	movw   $0x1,-0x1aea(%rbp)
   10388:	01 00 
   1038a:	66 c7 85 18 e5 ff ff 	movw   $0x3,-0x1ae8(%rbp)
   10391:	03 00 
   10393:	66 c7 85 1a e5 ff ff 	movw   $0x1,-0x1ae6(%rbp)
   1039a:	01 00 
   1039c:	66 c7 85 1c e5 ff ff 	movw   $0x3,-0x1ae4(%rbp)
   103a3:	03 00 
   103a5:	66 c7 85 1e e5 ff ff 	movw   $0x1,-0x1ae2(%rbp)
   103ac:	01 00 
   103ae:	66 c7 85 20 e5 ff ff 	movw   $0x3,-0x1ae0(%rbp)
   103b5:	03 00 
   103b7:	66 c7 85 22 e5 ff ff 	movw   $0x1,-0x1ade(%rbp)
   103be:	01 00 
   103c0:	66 c7 85 24 e5 ff ff 	movw   $0x3,-0x1adc(%rbp)
   103c7:	03 00 
   103c9:	66 c7 85 26 e5 ff ff 	movw   $0x1,-0x1ada(%rbp)
   103d0:	01 00 
   103d2:	66 c7 85 28 e5 ff ff 	movw   $0x3,-0x1ad8(%rbp)
   103d9:	03 00 
   103db:	66 c7 85 2a e5 ff ff 	movw   $0x1,-0x1ad6(%rbp)
   103e2:	01 00 
   103e4:	66 c7 85 2c e5 ff ff 	movw   $0x3,-0x1ad4(%rbp)
   103eb:	03 00 
   103ed:	66 c7 85 2e e5 ff ff 	movw   $0x1,-0x1ad2(%rbp)
   103f4:	01 00 
   103f6:	66 c7 85 30 e5 ff ff 	movw   $0x3,-0x1ad0(%rbp)
   103fd:	03 00 
   103ff:	66 c7 85 32 e5 ff ff 	movw   $0x1,-0x1ace(%rbp)
   10406:	01 00 
   10408:	66 c7 85 34 e5 ff ff 	movw   $0x3,-0x1acc(%rbp)
   1040f:	03 00 
   10411:	66 c7 85 36 e5 ff ff 	movw   $0x1,-0x1aca(%rbp)
   10418:	01 00 
   1041a:	66 c7 85 38 e5 ff ff 	movw   $0x3,-0x1ac8(%rbp)
   10421:	03 00 
   10423:	66 c7 85 3a e5 ff ff 	movw   $0x1,-0x1ac6(%rbp)
   1042a:	01 00 
   1042c:	66 c7 85 3c e5 ff ff 	movw   $0x3,-0x1ac4(%rbp)
   10433:	03 00 
   10435:	66 c7 85 3e e5 ff ff 	movw   $0x1,-0x1ac2(%rbp)
   1043c:	01 00 
   1043e:	66 c7 85 40 e5 ff ff 	movw   $0x3,-0x1ac0(%rbp)
   10445:	03 00 
   10447:	66 c7 85 42 e5 ff ff 	movw   $0x1,-0x1abe(%rbp)
   1044e:	01 00 
   10450:	66 c7 85 44 e5 ff ff 	movw   $0x3,-0x1abc(%rbp)
   10457:	03 00 
   10459:	66 c7 85 46 e5 ff ff 	movw   $0x1,-0x1aba(%rbp)
   10460:	01 00 
   10462:	66 c7 85 48 e5 ff ff 	movw   $0x3,-0x1ab8(%rbp)
   10469:	03 00 
   1046b:	66 c7 85 4a e5 ff ff 	movw   $0x1,-0x1ab6(%rbp)
   10472:	01 00 
   10474:	66 c7 85 4c e5 ff ff 	movw   $0x3,-0x1ab4(%rbp)
   1047b:	03 00 
   1047d:	66 c7 85 4e e5 ff ff 	movw   $0x1,-0x1ab2(%rbp)
   10484:	01 00 
   10486:	66 c7 85 50 e5 ff ff 	movw   $0x3,-0x1ab0(%rbp)
   1048d:	03 00 
   1048f:	66 c7 85 52 e5 ff ff 	movw   $0x1,-0x1aae(%rbp)
   10496:	01 00 
   10498:	66 c7 85 54 e5 ff ff 	movw   $0x3,-0x1aac(%rbp)
   1049f:	03 00 
   104a1:	66 c7 85 56 e5 ff ff 	movw   $0x1,-0x1aaa(%rbp)
   104a8:	01 00 
   104aa:	66 c7 85 58 e5 ff ff 	movw   $0x3,-0x1aa8(%rbp)
   104b1:	03 00 
   104b3:	66 c7 85 5a e5 ff ff 	movw   $0x1,-0x1aa6(%rbp)
   104ba:	01 00 
   104bc:	66 c7 85 5c e5 ff ff 	movw   $0x3,-0x1aa4(%rbp)
   104c3:	03 00 
   104c5:	66 c7 85 5e e5 ff ff 	movw   $0x1,-0x1aa2(%rbp)
   104cc:	01 00 
   104ce:	c7 85 10 de ff ff de 	movl   $0x7ad45bde,-0x21f0(%rbp)
   104d5:	5b d4 7a 
   104d8:	c7 85 40 e6 ff ff 04 	movl   $0x4,-0x19c0(%rbp)
   104df:	00 00 00 
   104e2:	c7 85 44 e6 ff ff 08 	movl   $0xeeea7008,-0x19bc(%rbp)
   104e9:	70 ea ee 
   104ec:	c7 85 48 e6 ff ff e0 	movl   $0xa6263ee0,-0x19b8(%rbp)
   104f3:	3e 26 a6 
   104f6:	c7 85 4c e6 ff ff 05 	movl   $0x5,-0x19b4(%rbp)
   104fd:	00 00 00 
   10500:	c7 85 50 e6 ff ff e0 	movl   $0xa6263ee0,-0x19b0(%rbp)
   10507:	3e 26 a6 
   1050a:	c7 85 54 e6 ff ff 08 	movl   $0xeeea7008,-0x19ac(%rbp)
   10511:	70 ea ee 
   10514:	c7 85 58 e6 ff ff 04 	movl   $0x4,-0x19a8(%rbp)
   1051b:	00 00 00 
   1051e:	c7 85 5c e6 ff ff 04 	movl   $0x4,-0x19a4(%rbp)
   10525:	00 00 00 
   10528:	c7 85 60 e6 ff ff 08 	movl   $0xeeea7008,-0x19a0(%rbp)
   1052f:	70 ea ee 
   10532:	c7 85 64 e6 ff ff e0 	movl   $0xa6263ee0,-0x199c(%rbp)
   10539:	3e 26 a6 
   1053c:	c7 85 68 e6 ff ff 08 	movl   $0xeeea7008,-0x1998(%rbp)
   10543:	70 ea ee 
   10546:	c7 85 6c e6 ff ff 04 	movl   $0x4,-0x1994(%rbp)
   1054d:	00 00 00 
   10550:	c7 85 70 e6 ff ff 04 	movl   $0x4,-0x1990(%rbp)
   10557:	00 00 00 
   1055a:	c7 85 74 e6 ff ff 08 	movl   $0xeeea7008,-0x198c(%rbp)
   10561:	70 ea ee 
   10564:	c7 85 78 e6 ff ff e0 	movl   $0xa6263ee0,-0x1988(%rbp)
   1056b:	3e 26 a6 
   1056e:	c7 85 7c e6 ff ff 05 	movl   $0x5,-0x1984(%rbp)
   10575:	00 00 00 
   10578:	c7 85 80 e6 ff ff e0 	movl   $0xa6263ee0,-0x1980(%rbp)
   1057f:	3e 26 a6 
   10582:	c7 85 84 e6 ff ff 08 	movl   $0xeeea7008,-0x197c(%rbp)
   10589:	70 ea ee 
   1058c:	c7 85 88 e6 ff ff 04 	movl   $0x4,-0x1978(%rbp)
   10593:	00 00 00 
   10596:	c7 85 8c e6 ff ff 04 	movl   $0x4,-0x1974(%rbp)
   1059d:	00 00 00 
   105a0:	c7 85 90 e6 ff ff e0 	movl   $0xa6263ee0,-0x1970(%rbp)
   105a7:	3e 26 a6 
   105aa:	c7 85 94 e6 ff ff 04 	movl   $0x4,-0x196c(%rbp)
   105b1:	00 00 00 
   105b4:	c7 85 98 e6 ff ff c6 	movl   $0xe219d6c6,-0x1968(%rbp)
   105bb:	d6 19 e2 
   105be:	c7 85 9c e6 ff ff 07 	movl   $0x7,-0x1964(%rbp)
   105c5:	00 00 00 
   105c8:	c7 85 a0 e6 ff ff 07 	movl   $0x7,-0x1960(%rbp)
   105cf:	00 00 00 
   105d2:	c7 85 a4 e6 ff ff c6 	movl   $0xe219d6c6,-0x195c(%rbp)
   105d9:	d6 19 e2 
   105dc:	c7 85 a8 e6 ff ff 04 	movl   $0x4,-0x1958(%rbp)
   105e3:	00 00 00 
   105e6:	c7 85 ac e6 ff ff e0 	movl   $0xa6263ee0,-0x1954(%rbp)
   105ed:	3e 26 a6 
   105f0:	c7 85 b0 e6 ff ff 04 	movl   $0x4,-0x1950(%rbp)
   105f7:	00 00 00 
   105fa:	c7 85 b4 e6 ff ff c6 	movl   $0xe219d6c6,-0x194c(%rbp)
   10601:	d6 19 e2 
   10604:	48 8d 85 40 e8 ff ff 	lea    -0x17c0(%rbp),%rax
   1060b:	48 8d 15 ae b1 00 00 	lea    0xb1ae(%rip),%rdx        # 1b7c0 <g_3870+0x8>
   10612:	b9 2a 00 00 00       	mov    $0x2a,%ecx
   10617:	48 89 c7             	mov    %rax,%rdi
   1061a:	48 89 d6             	mov    %rdx,%rsi
   1061d:	f3 48 a5             	rep movsq %ds:(%rsi),%es:(%rdi)
   10620:	48 c7 85 30 df ff ff 	movq   $0x0,-0x20d0(%rbp)
   10627:	00 00 00 00 
   1062b:	48 8d 85 30 df ff ff 	lea    -0x20d0(%rbp),%rax
   10632:	48 89 85 38 df ff ff 	mov    %rax,-0x20c8(%rbp)
   10639:	48 8d 85 38 df ff ff 	lea    -0x20c8(%rbp),%rax
   10640:	48 89 85 40 df ff ff 	mov    %rax,-0x20c0(%rbp)
   10647:	c7 85 60 e5 ff ff 01 	movl   $0x1,-0x1aa0(%rbp)
   1064e:	00 00 00 
   10651:	c7 85 64 e5 ff ff f7 	movl   $0xfffffff7,-0x1a9c(%rbp)
   10658:	ff ff ff 
   1065b:	c7 85 68 e5 ff ff f6 	movl   $0xfffffff6,-0x1a98(%rbp)
   10662:	ff ff ff 
   10665:	c7 85 6c e5 ff ff 43 	movl   $0x5db3d043,-0x1a94(%rbp)
   1066c:	d0 b3 5d 
   1066f:	c7 85 70 e5 ff ff 00 	movl   $0x0,-0x1a90(%rbp)
   10676:	00 00 00 
   10679:	c7 85 74 e5 ff ff fb 	movl   $0xfffffffb,-0x1a8c(%rbp)
   10680:	ff ff ff 
   10683:	c7 85 78 e5 ff ff c7 	movl   $0xbd5f96c7,-0x1a88(%rbp)
   1068a:	96 5f bd 
   1068d:	c7 85 7c e5 ff ff f6 	movl   $0xfffffff6,-0x1a84(%rbp)
   10694:	ff ff ff 
   10697:	c7 85 80 e5 ff ff 08 	movl   $0x8,-0x1a80(%rbp)
   1069e:	00 00 00 
   106a1:	c7 85 84 e5 ff ff fb 	movl   $0xfffffffb,-0x1a7c(%rbp)
   106a8:	ff ff ff 
   106ab:	c7 85 88 e5 ff ff 08 	movl   $0x8,-0x1a78(%rbp)
   106b2:	00 00 00 
   106b5:	c7 85 8c e5 ff ff 43 	movl   $0x5db3d043,-0x1a74(%rbp)
   106bc:	d0 b3 5d 
   106bf:	c7 85 90 e5 ff ff fb 	movl   $0xfffffffb,-0x1a70(%rbp)
   106c6:	ff ff ff 
   106c9:	c7 85 94 e5 ff ff f7 	movl   $0xfffffff7,-0x1a6c(%rbp)
   106d0:	ff ff ff 
   106d3:	c7 85 98 e5 ff ff f8 	movl   $0xfffffff8,-0x1a68(%rbp)
   106da:	ff ff ff 
   106dd:	c7 85 9c e5 ff ff 01 	movl   $0x1,-0x1a64(%rbp)
   106e4:	00 00 00 
   106e7:	c7 85 a0 e5 ff ff 01 	movl   $0x1,-0x1a60(%rbp)
   106ee:	00 00 00 
   106f1:	c7 85 a4 e5 ff ff f6 	movl   $0xfffffff6,-0x1a5c(%rbp)
   106f8:	ff ff ff 
   106fb:	c7 85 a8 e5 ff ff 00 	movl   $0x0,-0x1a58(%rbp)
   10702:	00 00 00 
   10705:	c7 85 ac e5 ff ff f7 	movl   $0xfffffff7,-0x1a54(%rbp)
   1070c:	ff ff ff 
   1070f:	c7 85 b0 e5 ff ff d0 	movl   $0x7adaf1d0,-0x1a50(%rbp)
   10716:	f1 da 7a 
   10719:	c7 85 b4 e5 ff ff 00 	movl   $0x0,-0x1a4c(%rbp)
   10720:	00 00 00 
   10723:	c7 85 b8 e5 ff ff 00 	movl   $0x0,-0x1a48(%rbp)
   1072a:	00 00 00 
   1072d:	c7 85 bc e5 ff ff d0 	movl   $0x7adaf1d0,-0x1a44(%rbp)
   10734:	f1 da 7a 
   10737:	c7 85 c0 e5 ff ff 01 	movl   $0x1,-0x1a40(%rbp)
   1073e:	00 00 00 
   10741:	c7 85 c4 e5 ff ff 43 	movl   $0x5db3d043,-0x1a3c(%rbp)
   10748:	d0 b3 5d 
   1074b:	c7 85 c8 e5 ff ff f8 	movl   $0xfffffff8,-0x1a38(%rbp)
   10752:	ff ff ff 
   10755:	c7 85 cc e5 ff ff 08 	movl   $0x8,-0x1a34(%rbp)
   1075c:	00 00 00 
   1075f:	c6 85 d9 dd ff ff f8 	movb   $0xf8,-0x2227(%rbp)
   10766:	c7 85 54 de ff ff 79 	movl   $0x2e0dcf79,-0x21ac(%rbp)
   1076d:	cf 0d 2e 
   10770:	c6 85 da dd ff ff 34 	movb   $0x34,-0x2226(%rbp)
   10777:	48 c7 85 48 df ff ff 	movq   $0x0,-0x20b8(%rbp)
   1077e:	00 00 00 00 
   10782:	48 8d 05 8f c7 00 00 	lea    0xc78f(%rip),%rax        # 1cf18 <g_582>
   10789:	48 89 85 50 df ff ff 	mov    %rax,-0x20b0(%rbp)
   10790:	48 8d 85 10 f8 ff ff 	lea    -0x7f0(%rbp),%rax
   10797:	48 8d 15 82 b1 00 00 	lea    0xb182(%rip),%rdx        # 1b920 <g_3870+0x168>
   1079e:	b9 f5 00 00 00       	mov    $0xf5,%ecx
   107a3:	48 89 c7             	mov    %rax,%rdi
   107a6:	48 89 d6             	mov    %rdx,%rsi
   107a9:	f3 48 a5             	rep movsq %ds:(%rsi),%es:(%rdi)
   107ac:	c6 85 db dd ff ff 07 	movb   $0x7,-0x2225(%rbp)
   107b3:	48 c7 85 f0 df ff ff 	movq   $0x0,-0x2010(%rbp)
   107ba:	00 00 00 00 
   107be:	c7 85 40 e3 ff ff 01 	movl   $0x1010101,-0x1cc0(%rbp)
   107c5:	01 01 01 
   107c8:	c6 85 44 e3 ff ff 01 	movb   $0x1,-0x1cbc(%rbp)
   107cf:	c7 85 45 e3 ff ff 79 	movl   $0xea79ea79,-0x1cbb(%rbp)
   107d6:	ea 79 ea 
   107d9:	c6 85 49 e3 ff ff 79 	movb   $0x79,-0x1cb7(%rbp)
   107e0:	c7 85 4a e3 ff ff 01 	movl   $0x1010101,-0x1cb6(%rbp)
   107e7:	01 01 01 
   107ea:	c6 85 4e e3 ff ff 01 	movb   $0x1,-0x1cb2(%rbp)
   107f1:	c7 85 4f e3 ff ff 79 	movl   $0xea79ea79,-0x1cb1(%rbp)
   107f8:	ea 79 ea 
   107fb:	c6 85 53 e3 ff ff 79 	movb   $0x79,-0x1cad(%rbp)
   10802:	c7 85 54 e3 ff ff 01 	movl   $0x1010101,-0x1cac(%rbp)
   10809:	01 01 01 
   1080c:	c6 85 58 e3 ff ff 01 	movb   $0x1,-0x1ca8(%rbp)
   10813:	c6 85 d5 dd ff ff 01 	movb   $0x1,-0x222b(%rbp)
   1081a:	48 8d 85 90 e9 ff ff 	lea    -0x1670(%rbp),%rax
   10821:	48 8d 15 b8 b8 00 00 	lea    0xb8b8(%rip),%rdx        # 1c0e0 <g_3870+0x928>
   10828:	b9 50 00 00 00       	mov    $0x50,%ecx
   1082d:	48 89 c7             	mov    %rax,%rdi
   10830:	48 89 d6             	mov    %rdx,%rsi
   10833:	f3 48 a5             	rep movsq %ds:(%rsi),%es:(%rdi)
   10836:	48 8d 85 90 e9 ff ff 	lea    -0x1670(%rbp),%rax
   1083d:	48 05 d8 00 00 00    	add    $0xd8,%rax
   10843:	48 89 85 58 df ff ff 	mov    %rax,-0x20a8(%rbp)
   1084a:	48 8d 85 58 df ff ff 	lea    -0x20a8(%rbp),%rax
   10851:	48 89 85 40 e7 ff ff 	mov    %rax,-0x18c0(%rbp)
   10858:	48 8d 85 58 df ff ff 	lea    -0x20a8(%rbp),%rax
   1085f:	48 89 85 48 e7 ff ff 	mov    %rax,-0x18b8(%rbp)
   10866:	48 c7 85 50 e7 ff ff 	movq   $0x0,-0x18b0(%rbp)
   1086d:	00 00 00 00 
   10871:	48 8d 85 58 df ff ff 	lea    -0x20a8(%rbp),%rax
   10878:	48 89 85 58 e7 ff ff 	mov    %rax,-0x18a8(%rbp)
   1087f:	48 c7 85 60 e7 ff ff 	movq   $0x0,-0x18a0(%rbp)
   10886:	00 00 00 00 
   1088a:	48 8d 85 58 df ff ff 	lea    -0x20a8(%rbp),%rax
   10891:	48 89 85 68 e7 ff ff 	mov    %rax,-0x1898(%rbp)
   10898:	48 8d 85 58 df ff ff 	lea    -0x20a8(%rbp),%rax
   1089f:	48 89 85 70 e7 ff ff 	mov    %rax,-0x1890(%rbp)
   108a6:	48 c7 85 78 e7 ff ff 	movq   $0x0,-0x1888(%rbp)
   108ad:	00 00 00 00 
   108b1:	48 8d 85 58 df ff ff 	lea    -0x20a8(%rbp),%rax
   108b8:	48 89 85 80 e7 ff ff 	mov    %rax,-0x1880(%rbp)
   108bf:	48 c7 85 88 e7 ff ff 	movq   $0x0,-0x1878(%rbp)
   108c6:	00 00 00 00 
   108ca:	48 c7 85 90 e7 ff ff 	movq   $0x0,-0x1870(%rbp)
   108d1:	00 00 00 00 
   108d5:	48 8d 85 58 df ff ff 	lea    -0x20a8(%rbp),%rax
   108dc:	48 89 85 98 e7 ff ff 	mov    %rax,-0x1868(%rbp)
   108e3:	48 8d 85 58 df ff ff 	lea    -0x20a8(%rbp),%rax
   108ea:	48 89 85 a0 e7 ff ff 	mov    %rax,-0x1860(%rbp)
   108f1:	48 8d 85 58 df ff ff 	lea    -0x20a8(%rbp),%rax
   108f8:	48 89 85 a8 e7 ff ff 	mov    %rax,-0x1858(%rbp)
   108ff:	48 c7 85 b0 e7 ff ff 	movq   $0x0,-0x1850(%rbp)
   10906:	00 00 00 00 
   1090a:	48 c7 85 b8 e7 ff ff 	movq   $0x0,-0x1848(%rbp)
   10911:	00 00 00 00 
   10915:	48 c7 85 c0 e7 ff ff 	movq   $0x0,-0x1840(%rbp)
   1091c:	00 00 00 00 
   10920:	48 8d 85 58 df ff ff 	lea    -0x20a8(%rbp),%rax
   10927:	48 89 85 c8 e7 ff ff 	mov    %rax,-0x1838(%rbp)
   1092e:	48 8d 85 58 df ff ff 	lea    -0x20a8(%rbp),%rax
   10935:	48 89 85 d0 e7 ff ff 	mov    %rax,-0x1830(%rbp)
   1093c:	48 8d 85 58 df ff ff 	lea    -0x20a8(%rbp),%rax
   10943:	48 89 85 d8 e7 ff ff 	mov    %rax,-0x1828(%rbp)
   1094a:	48 8d 85 58 df ff ff 	lea    -0x20a8(%rbp),%rax
   10951:	48 89 85 e0 e7 ff ff 	mov    %rax,-0x1820(%rbp)
   10958:	48 c7 85 e8 e7 ff ff 	movq   $0x0,-0x1818(%rbp)
   1095f:	00 00 00 00 
   10963:	48 8d 85 58 df ff ff 	lea    -0x20a8(%rbp),%rax
   1096a:	48 89 85 f0 e7 ff ff 	mov    %rax,-0x1810(%rbp)
   10971:	48 8d 85 58 df ff ff 	lea    -0x20a8(%rbp),%rax
   10978:	48 89 85 f8 e7 ff ff 	mov    %rax,-0x1808(%rbp)
   1097f:	48 8d 85 58 df ff ff 	lea    -0x20a8(%rbp),%rax
   10986:	48 89 85 00 e8 ff ff 	mov    %rax,-0x1800(%rbp)
   1098d:	48 8d 85 58 df ff ff 	lea    -0x20a8(%rbp),%rax
   10994:	48 89 85 08 e8 ff ff 	mov    %rax,-0x17f8(%rbp)
   1099b:	48 8d 85 58 df ff ff 	lea    -0x20a8(%rbp),%rax
   109a2:	48 89 85 10 e8 ff ff 	mov    %rax,-0x17f0(%rbp)
   109a9:	48 c7 85 18 e8 ff ff 	movq   $0x0,-0x17e8(%rbp)
   109b0:	00 00 00 00 
   109b4:	48 c7 85 20 e8 ff ff 	movq   $0x0,-0x17e0(%rbp)
   109bb:	00 00 00 00 
   109bf:	48 8d 85 58 df ff ff 	lea    -0x20a8(%rbp),%rax
   109c6:	48 89 85 28 e8 ff ff 	mov    %rax,-0x17d8(%rbp)
   109cd:	48 8d 85 58 df ff ff 	lea    -0x20a8(%rbp),%rax
   109d4:	48 89 85 30 e8 ff ff 	mov    %rax,-0x17d0(%rbp)
   109db:	48 8d 85 58 df ff ff 	lea    -0x20a8(%rbp),%rax
   109e2:	48 89 85 38 e8 ff ff 	mov    %rax,-0x17c8(%rbp)
   109e9:	48 8d 05 88 c3 00 00 	lea    0xc388(%rip),%rax        # 1cd78 <g_158>
   109f0:	48 89 85 60 df ff ff 	mov    %rax,-0x20a0(%rbp)
   109f7:	48 8d 85 60 df ff ff 	lea    -0x20a0(%rbp),%rax
   109fe:	48 89 85 f8 df ff ff 	mov    %rax,-0x2008(%rbp)
   10a05:	c6 85 dc dd ff ff 0e 	movb   $0xe,-0x2224(%rbp)
   10a0c:	c6 85 dd dd ff ff 96 	movb   $0x96,-0x2223(%rbp)
   10a13:	48 b8 58 47 7c c6 dd 	movabs $0x9eb94cddc67c4758,%rax
   10a1a:	4c b9 9e 
   10a1d:	48 89 85 80 df ff ff 	mov    %rax,-0x2080(%rbp)
   10a24:	48 c7 85 00 e0 ff ff 	movq   $0x0,-0x2000(%rbp)
   10a2b:	00 00 00 00 
   10a2f:	48 c7 85 08 e0 ff ff 	movq   $0x1,-0x1ff8(%rbp)
   10a36:	01 00 00 00 
   10a3a:	c7 85 38 de ff ff 00 	movl   $0x0,-0x21c8(%rbp)
   10a41:	00 00 00 
   10a44:	eb 14                	jmp    10a5a <func_58+0xb36>
   10a46:	8b 85 38 de ff ff    	mov    -0x21c8(%rbp),%eax
   10a4c:	48 98                	cltq   
   10a4e:	c6 44 05 be 24       	movb   $0x24,-0x42(%rbp,%rax,1)
   10a53:	83 85 38 de ff ff 01 	addl   $0x1,-0x21c8(%rbp)
   10a5a:	83 bd 38 de ff ff 09 	cmpl   $0x9,-0x21c8(%rbp)
   10a61:	7e e3                	jle    10a46 <func_58+0xb22>
   10a63:	8b 05 bf a5 00 00    	mov    0xa5bf(%rip),%eax        # 1b028 <g_16>
   10a69:	48 98                	cltq   
   10a6b:	48 be 09 b2 dd 53 c6 	movabs $0x5f4d0c653ddb209,%rsi
   10a72:	d0 f4 05 
   10a75:	48 89 c7             	mov    %rax,%rdi
   10a78:	e8 7a bf ff ff       	callq  c9f7 <safe_div_func_int64_t_s_s>
   10a7d:	48 85 c0             	test   %rax,%rax
   10a80:	0f 84 bd 11 00 00    	je     11c43 <func_58+0x1d1f>
   10a86:	48 c7 85 38 e0 ff ff 	movq   $0x0,-0x1fc8(%rbp)
   10a8d:	00 00 00 00 
   10a91:	48 8d 05 bc a5 00 00 	lea    0xa5bc(%rip),%rax        # 1b054 <g_65+0x14>
   10a98:	48 89 85 40 e0 ff ff 	mov    %rax,-0x1fc0(%rbp)
   10a9f:	48 8d 05 0a a6 00 00 	lea    0xa60a(%rip),%rax        # 1b0b0 <g_65+0x70>
   10aa6:	48 89 85 48 e0 ff ff 	mov    %rax,-0x1fb8(%rbp)
   10aad:	c7 85 14 de ff ff 00 	movl   $0x0,-0x21ec(%rbp)
   10ab4:	00 00 00 
   10ab7:	48 8d 05 96 a5 00 00 	lea    0xa596(%rip),%rax        # 1b054 <g_65+0x14>
   10abe:	48 89 85 50 e0 ff ff 	mov    %rax,-0x1fb0(%rbp)
   10ac5:	48 8d 85 14 de ff ff 	lea    -0x21ec(%rbp),%rax
   10acc:	48 89 85 58 e0 ff ff 	mov    %rax,-0x1fa8(%rbp)
   10ad3:	48 8d 05 7a a5 00 00 	lea    0xa57a(%rip),%rax        # 1b054 <g_65+0x14>
   10ada:	48 89 85 60 e0 ff ff 	mov    %rax,-0x1fa0(%rbp)
   10ae1:	48 c7 85 68 e0 ff ff 	movq   $0x0,-0x1f98(%rbp)
   10ae8:	00 00 00 00 
   10aec:	48 8d 05 a5 a5 00 00 	lea    0xa5a5(%rip),%rax        # 1b098 <g_65+0x58>
   10af3:	48 89 85 70 e0 ff ff 	mov    %rax,-0x1f90(%rbp)
   10afa:	48 8d 05 4f a5 00 00 	lea    0xa54f(%rip),%rax        # 1b050 <g_65+0x10>
   10b01:	48 89 85 e0 e3 ff ff 	mov    %rax,-0x1c20(%rbp)
   10b08:	48 8d 05 41 a5 00 00 	lea    0xa541(%rip),%rax        # 1b050 <g_65+0x10>
   10b0f:	48 89 85 e8 e3 ff ff 	mov    %rax,-0x1c18(%rbp)
   10b16:	48 8d 05 33 a5 00 00 	lea    0xa533(%rip),%rax        # 1b050 <g_65+0x10>
   10b1d:	48 89 85 f0 e3 ff ff 	mov    %rax,-0x1c10(%rbp)
   10b24:	48 8d 05 25 a5 00 00 	lea    0xa525(%rip),%rax        # 1b050 <g_65+0x10>
   10b2b:	48 89 85 f8 e3 ff ff 	mov    %rax,-0x1c08(%rbp)
   10b32:	48 8d 05 17 a5 00 00 	lea    0xa517(%rip),%rax        # 1b050 <g_65+0x10>
   10b39:	48 89 85 00 e4 ff ff 	mov    %rax,-0x1c00(%rbp)
   10b40:	48 8d 05 09 a5 00 00 	lea    0xa509(%rip),%rax        # 1b050 <g_65+0x10>
   10b47:	48 89 85 08 e4 ff ff 	mov    %rax,-0x1bf8(%rbp)
   10b4e:	48 8d 05 fb a4 00 00 	lea    0xa4fb(%rip),%rax        # 1b050 <g_65+0x10>
   10b55:	48 89 85 10 e4 ff ff 	mov    %rax,-0x1bf0(%rbp)
   10b5c:	48 b8 14 7c 04 8b 55 	movabs $0xa18188558b047c14,%rax
   10b63:	88 81 a1 
   10b66:	48 89 85 88 df ff ff 	mov    %rax,-0x2078(%rbp)
   10b6d:	48 c7 85 78 e0 ff ff 	movq   $0x0,-0x1f88(%rbp)
   10b74:	00 00 00 00 
   10b78:	48 8d 85 90 f0 ff ff 	lea    -0xf70(%rbp),%rax
   10b7f:	48 8d 15 da b7 00 00 	lea    0xb7da(%rip),%rdx        # 1c360 <g_3870+0xba8>
   10b86:	b9 f0 00 00 00       	mov    $0xf0,%ecx
   10b8b:	48 89 c7             	mov    %rax,%rdi
   10b8e:	48 89 d6             	mov    %rdx,%rsi
   10b91:	f3 48 a5             	rep movsq %ds:(%rsi),%es:(%rdi)
   10b94:	c6 85 de dd ff ff aa 	movb   $0xaa,-0x2222(%rbp)
   10b9b:	48 8d 05 86 c3 00 00 	lea    0xc386(%rip),%rax        # 1cf28 <g_835>
   10ba2:	48 89 85 60 e4 ff ff 	mov    %rax,-0x1ba0(%rbp)
   10ba9:	48 8d 05 78 c3 00 00 	lea    0xc378(%rip),%rax        # 1cf28 <g_835>
   10bb0:	48 89 85 68 e4 ff ff 	mov    %rax,-0x1b98(%rbp)
   10bb7:	48 8d 05 6a c3 00 00 	lea    0xc36a(%rip),%rax        # 1cf28 <g_835>
   10bbe:	48 89 85 70 e4 ff ff 	mov    %rax,-0x1b90(%rbp)
   10bc5:	48 8d 05 5c c3 00 00 	lea    0xc35c(%rip),%rax        # 1cf28 <g_835>
   10bcc:	48 89 85 78 e4 ff ff 	mov    %rax,-0x1b88(%rbp)
   10bd3:	48 8d 05 4e c3 00 00 	lea    0xc34e(%rip),%rax        # 1cf28 <g_835>
   10bda:	48 89 85 80 e4 ff ff 	mov    %rax,-0x1b80(%rbp)
   10be1:	48 8d 05 40 c3 00 00 	lea    0xc340(%rip),%rax        # 1cf28 <g_835>
   10be8:	48 89 85 88 e4 ff ff 	mov    %rax,-0x1b78(%rbp)
   10bef:	48 8d 05 32 c3 00 00 	lea    0xc332(%rip),%rax        # 1cf28 <g_835>
   10bf6:	48 89 85 90 e4 ff ff 	mov    %rax,-0x1b70(%rbp)
   10bfd:	48 8d 05 24 c3 00 00 	lea    0xc324(%rip),%rax        # 1cf28 <g_835>
   10c04:	48 89 85 98 e4 ff ff 	mov    %rax,-0x1b68(%rbp)
   10c0b:	48 8d 05 46 f9 00 00 	lea    0xf946(%rip),%rax        # 20558 <g_468+0x18>
   10c12:	48 89 85 68 df ff ff 	mov    %rax,-0x2098(%rbp)
   10c19:	48 8d 85 68 df ff ff 	lea    -0x2098(%rbp),%rax
   10c20:	48 89 85 20 e4 ff ff 	mov    %rax,-0x1be0(%rbp)
   10c27:	48 8d 85 68 df ff ff 	lea    -0x2098(%rbp),%rax
   10c2e:	48 89 85 28 e4 ff ff 	mov    %rax,-0x1bd8(%rbp)
   10c35:	48 8d 85 68 df ff ff 	lea    -0x2098(%rbp),%rax
   10c3c:	48 89 85 30 e4 ff ff 	mov    %rax,-0x1bd0(%rbp)
   10c43:	48 8d 85 68 df ff ff 	lea    -0x2098(%rbp),%rax
   10c4a:	48 89 85 38 e4 ff ff 	mov    %rax,-0x1bc8(%rbp)
   10c51:	48 8d 85 68 df ff ff 	lea    -0x2098(%rbp),%rax
   10c58:	48 89 85 40 e4 ff ff 	mov    %rax,-0x1bc0(%rbp)
   10c5f:	48 8d 85 68 df ff ff 	lea    -0x2098(%rbp),%rax
   10c66:	48 89 85 48 e4 ff ff 	mov    %rax,-0x1bb8(%rbp)
   10c6d:	48 8d 85 68 df ff ff 	lea    -0x2098(%rbp),%rax
   10c74:	48 89 85 50 e4 ff ff 	mov    %rax,-0x1bb0(%rbp)
   10c7b:	48 8d 05 de d8 00 00 	lea    0xd8de(%rip),%rax        # 1e560 <g_1590>
   10c82:	48 89 85 60 e3 ff ff 	mov    %rax,-0x1ca0(%rbp)
   10c89:	48 8d 05 d0 d8 00 00 	lea    0xd8d0(%rip),%rax        # 1e560 <g_1590>
   10c90:	48 89 85 68 e3 ff ff 	mov    %rax,-0x1c98(%rbp)
   10c97:	48 8d 05 c2 d8 00 00 	lea    0xd8c2(%rip),%rax        # 1e560 <g_1590>
   10c9e:	48 89 85 70 e3 ff ff 	mov    %rax,-0x1c90(%rbp)
   10ca5:	48 8d 05 b4 d8 00 00 	lea    0xd8b4(%rip),%rax        # 1e560 <g_1590>
   10cac:	48 89 85 78 e3 ff ff 	mov    %rax,-0x1c88(%rbp)
   10cb3:	66 c7 85 80 e3 ff ff 	movw   $0xffff,-0x1c80(%rbp)
   10cba:	ff ff 
   10cbc:	66 c7 85 82 e3 ff ff 	movw   $0xffff,-0x1c7e(%rbp)
   10cc3:	ff ff 
   10cc5:	66 c7 85 84 e3 ff ff 	movw   $0xffff,-0x1c7c(%rbp)
   10ccc:	ff ff 
   10cce:	66 c7 85 86 e3 ff ff 	movw   $0xffff,-0x1c7a(%rbp)
   10cd5:	ff ff 
   10cd7:	66 c7 85 88 e3 ff ff 	movw   $0xffff,-0x1c78(%rbp)
   10cde:	ff ff 
   10ce0:	66 c7 85 8a e3 ff ff 	movw   $0xffff,-0x1c76(%rbp)
   10ce7:	ff ff 
   10ce9:	66 c7 85 8c e3 ff ff 	movw   $0xffff,-0x1c74(%rbp)
   10cf0:	ff ff 
   10cf2:	66 c7 85 8e e3 ff ff 	movw   $0xffff,-0x1c72(%rbp)
   10cf9:	ff ff 
   10cfb:	66 c7 85 90 e3 ff ff 	movw   $0xffff,-0x1c70(%rbp)
   10d02:	ff ff 
   10d04:	66 c7 85 92 e3 ff ff 	movw   $0xffff,-0x1c6e(%rbp)
   10d0b:	ff ff 
   10d0d:	66 c7 85 94 e3 ff ff 	movw   $0xffff,-0x1c6c(%rbp)
   10d14:	ff ff 
   10d16:	66 c7 85 96 e3 ff ff 	movw   $0xffff,-0x1c6a(%rbp)
   10d1d:	ff ff 
   10d1f:	66 c7 85 98 e3 ff ff 	movw   $0xffff,-0x1c68(%rbp)
   10d26:	ff ff 
   10d28:	66 c7 85 9a e3 ff ff 	movw   $0xffff,-0x1c66(%rbp)
   10d2f:	ff ff 
   10d31:	66 c7 85 9c e3 ff ff 	movw   $0xffff,-0x1c64(%rbp)
   10d38:	ff ff 
   10d3a:	66 c7 85 9e e3 ff ff 	movw   $0xffff,-0x1c62(%rbp)
   10d41:	ff ff 
   10d43:	66 c7 85 a0 e3 ff ff 	movw   $0xffff,-0x1c60(%rbp)
   10d4a:	ff ff 
   10d4c:	66 c7 85 a2 e3 ff ff 	movw   $0xffff,-0x1c5e(%rbp)
   10d53:	ff ff 
   10d55:	66 c7 85 a4 e3 ff ff 	movw   $0xffff,-0x1c5c(%rbp)
   10d5c:	ff ff 
   10d5e:	66 c7 85 a6 e3 ff ff 	movw   $0xffff,-0x1c5a(%rbp)
   10d65:	ff ff 
   10d67:	c6 85 df dd ff ff c1 	movb   $0xc1,-0x2221(%rbp)
   10d6e:	c7 85 6c de ff ff 91 	movl   $0x9394a591,-0x2194(%rbp)
   10d75:	a5 94 93 
   10d78:	48 8d 05 41 c9 00 00 	lea    0xc941(%rip),%rax        # 1d6c0 <g_963>
   10d7f:	48 89 85 80 e0 ff ff 	mov    %rax,-0x1f80(%rbp)
   10d86:	48 8d 05 0b d0 00 00 	lea    0xd00b(%rip),%rax        # 1dd98 <g_1592+0x18>
   10d8d:	48 89 85 88 e0 ff ff 	mov    %rax,-0x1f78(%rbp)
   10d94:	c7 85 70 de ff ff 00 	movl   $0x0,-0x2190(%rbp)
   10d9b:	00 00 00 
   10d9e:	48 8d 05 73 c1 00 00 	lea    0xc173(%rip),%rax        # 1cf18 <g_582>
   10da5:	48 89 85 90 e0 ff ff 	mov    %rax,-0x1f70(%rbp)
   10dac:	48 83 ad 88 df ff ff 	subq   $0x1,-0x2078(%rbp)
   10db3:	01 
   10db4:	48 8d 85 14 de ff ff 	lea    -0x21ec(%rbp),%rax
   10dbb:	48 89 c7             	mov    %rax,%rdi
   10dbe:	e8 51 31 00 00       	callq  13f14 <func_83>
   10dc3:	0f b7 d8             	movzwl %ax,%ebx
   10dc6:	48 8b 05 fb e0 00 00 	mov    0xe0fb(%rip),%rax        # 1eec8 <g_1712>
   10dcd:	0f b6 10             	movzbl (%rax),%edx
   10dd0:	48 8b 85 48 e0 ff ff 	mov    -0x1fb8(%rbp),%rax
   10dd7:	8b 00                	mov    (%rax),%eax
   10dd9:	89 c1                	mov    %eax,%ecx
   10ddb:	48 8b 05 e6 e0 00 00 	mov    0xe0e6(%rip),%rax        # 1eec8 <g_1712>
   10de2:	21 ca                	and    %ecx,%edx
   10de4:	88 10                	mov    %dl,(%rax)
   10de6:	0f b6 00             	movzbl (%rax),%eax
   10de9:	0f be c0             	movsbl %al,%eax
   10dec:	be 07 00 00 00       	mov    $0x7,%esi
   10df1:	89 c7                	mov    %eax,%edi
   10df3:	e8 74 b5 ff ff       	callq  c36c <safe_rshift_func_int8_t_s_u>
   10df8:	66 83 bd cc dd ff ff 	cmpw   $0x0,-0x2234(%rbp)
   10dff:	00 
   10e00:	74 07                	je     10e09 <func_58+0xee5>
   10e02:	b8 01 00 00 00       	mov    $0x1,%eax
   10e07:	eb 05                	jmp    10e0e <func_58+0xeea>
   10e09:	b8 00 00 00 00       	mov    $0x0,%eax
   10e0e:	09 d8                	or     %ebx,%eax
   10e10:	89 c2                	mov    %eax,%edx
   10e12:	8b 85 20 e3 ff ff    	mov    -0x1ce0(%rbp),%eax
   10e18:	39 c2                	cmp    %eax,%edx
   10e1a:	7e 08                	jle    10e24 <func_58+0xf00>
   10e1c:	66 83 bd cc dd ff ff 	cmpw   $0x0,-0x2234(%rbp)
   10e23:	00 
   10e24:	48 8b 05 8d bf 00 00 	mov    0xbf8d(%rip),%rax        # 1cdb8 <g_220>
   10e2b:	8b 00                	mov    (%rax),%eax
   10e2d:	83 c8 01             	or     $0x1,%eax
   10e30:	3d d3 5b 68 38       	cmp    $0x38685bd3,%eax
   10e35:	0f 8e 31 0b 00 00    	jle    1196c <func_58+0x1a48>
   10e3b:	66 c7 85 ea dd ff ff 	movw   $0xfff8,-0x2216(%rbp)
   10e42:	f8 ff 
   10e44:	c7 85 3c de ff ff 00 	movl   $0x0,-0x21c4(%rbp)
   10e4b:	00 00 00 
   10e4e:	48 c7 85 98 e0 ff ff 	movq   $0x0,-0x1f68(%rbp)
   10e55:	00 00 00 00 
   10e59:	48 c7 85 70 df ff ff 	movq   $0x0,-0x2090(%rbp)
   10e60:	00 00 00 00 
   10e64:	48 8d 85 70 df ff ff 	lea    -0x2090(%rbp),%rax
   10e6b:	48 89 85 78 df ff ff 	mov    %rax,-0x2088(%rbp)
   10e72:	48 8d 85 78 df ff ff 	lea    -0x2088(%rbp),%rax
   10e79:	48 89 85 a0 e0 ff ff 	mov    %rax,-0x1f60(%rbp)
   10e80:	c7 85 74 de ff ff 66 	movl   $0xf110d966,-0x218c(%rbp)
   10e87:	d9 10 f1 
   10e8a:	c6 85 d6 dd ff ff b1 	movb   $0xb1,-0x222a(%rbp)
   10e91:	c6 85 e0 dd ff ff 01 	movb   $0x1,-0x2220(%rbp)
   10e98:	83 ad 34 de ff ff 01 	subl   $0x1,-0x21cc(%rbp)
   10e9f:	48 c7 05 2e a6 00 00 	movq   $0x0,0xa62e(%rip)        # 1b4d8 <g_858>
   10ea6:	00 00 00 00 
   10eaa:	e9 64 03 00 00       	jmpq   11213 <func_58+0x12ef>
   10eaf:	48 b8 da 2e b0 a2 7f 	movabs $0xaba7a37fa2b02eda,%rax
   10eb6:	a3 a7 ab 
   10eb9:	48 89 85 90 df ff ff 	mov    %rax,-0x2070(%rbp)
   10ec0:	c7 85 84 de ff ff 94 	movl   $0x5b24d094,-0x217c(%rbp)
   10ec7:	d0 24 5b 
   10eca:	48 8d 05 47 d1 00 00 	lea    0xd147(%rip),%rax        # 1e018 <g_1591+0x238>
   10ed1:	48 89 85 d0 e0 ff ff 	mov    %rax,-0x1f30(%rbp)
   10ed8:	c6 05 e5 a5 00 00 02 	movb   $0x2,0xa5e5(%rip)        # 1b4c4 <g_618>
   10edf:	e9 04 03 00 00       	jmpq   111e8 <func_58+0x12c4>
   10ee4:	48 c7 85 d8 e0 ff ff 	movq   $0x1,-0x1f28(%rbp)
   10eeb:	01 00 00 00 
   10eef:	48 8d 85 78 df ff ff 	lea    -0x2088(%rbp),%rax
   10ef6:	48 89 85 e0 e0 ff ff 	mov    %rax,-0x1f20(%rbp)
   10efd:	c7 85 88 de ff ff a8 	movl   $0xaca978a8,-0x2178(%rbp)
   10f04:	78 a9 ac 
   10f07:	c7 85 8c de ff ff ff 	movl   $0xffffffff,-0x2174(%rbp)
   10f0e:	ff ff ff 
   10f11:	66 c7 85 fa dd ff ff 	movw   $0x1,-0x2206(%rbp)
   10f18:	01 00 
   10f1a:	48 c7 85 e8 e0 ff ff 	movq   $0x4,-0x1f18(%rbp)
   10f21:	04 00 00 00 
   10f25:	48 8d 05 94 a1 00 00 	lea    0xa194(%rip),%rax        # 1b0c0 <g_121>
   10f2c:	48 89 85 f0 e0 ff ff 	mov    %rax,-0x1f10(%rbp)
   10f33:	48 83 85 90 df ff ff 	addq   $0x1,-0x2070(%rbp)
   10f3a:	01 
   10f3b:	48 8b 05 76 be 00 00 	mov    0xbe76(%rip),%rax        # 1cdb8 <g_220>
   10f42:	48 8b 95 70 e0 ff ff 	mov    -0x1f90(%rbp),%rdx
   10f49:	8b 12                	mov    (%rdx),%edx
   10f4b:	89 10                	mov    %edx,(%rax)
   10f4d:	8b 85 88 de ff ff    	mov    -0x2178(%rbp),%eax
   10f53:	48 63 d8             	movslq %eax,%rbx
   10f56:	44 0f b7 a5 cc dd ff 	movzwl -0x2234(%rbp),%r12d
   10f5d:	ff 
   10f5e:	0f b7 85 cc dd ff ff 	movzwl -0x2234(%rbp),%eax
   10f65:	0f be c0             	movsbl %al,%eax
   10f68:	c7 85 3c de ff ff 01 	movl   $0x1,-0x21c4(%rbp)
   10f6f:	00 00 00 
   10f72:	89 c6                	mov    %eax,%esi
   10f74:	bf 01 00 00 00       	mov    $0x1,%edi
   10f79:	e8 94 b2 ff ff       	callq  c212 <safe_mul_func_int8_t_s_s>
   10f7e:	0f b6 c0             	movzbl %al,%eax
   10f81:	44 89 e6             	mov    %r12d,%esi
   10f84:	89 c7                	mov    %eax,%edi
   10f86:	e8 7a bc ff ff       	callq  cc05 <safe_lshift_func_uint8_t_u_s>
   10f8b:	0f b7 85 cc dd ff ff 	movzwl -0x2234(%rbp),%eax
   10f92:	48 89 de             	mov    %rbx,%rsi
   10f95:	48 89 c7             	mov    %rax,%rdi
   10f98:	e8 a4 b8 ff ff       	callq  c841 <safe_add_func_int64_t_s_s>
   10f9d:	98                   	cwtl   
   10f9e:	be f6 ed ff ff       	mov    $0xffffedf6,%esi
   10fa3:	89 c7                	mov    %eax,%edi
   10fa5:	e8 09 b4 ff ff       	callq  c3b3 <safe_add_func_int16_t_s_s>
   10faa:	98                   	cwtl   
   10fab:	89 85 8c de ff ff    	mov    %eax,-0x2174(%rbp)
   10fb1:	c7 85 90 de ff ff ad 	movl   $0xbb145aad,-0x2170(%rbp)
   10fb8:	5a 14 bb 
   10fbb:	66 83 bd cc dd ff ff 	cmpw   $0x0,-0x2234(%rbp)
   10fc2:	00 
   10fc3:	74 05                	je     10fca <func_58+0x10a6>
   10fc5:	e9 ce fe ff ff       	jmpq   10e98 <func_58+0xf74>
   10fca:	48 8b 15 17 cd 00 00 	mov    0xcd17(%rip),%rdx        # 1dce8 <g_1175>
   10fd1:	48 8b 05 18 cd 00 00 	mov    0xcd18(%rip),%rax        # 1dcf0 <g_1174>
   10fd8:	48 8b 00             	mov    (%rax),%rax
   10fdb:	48 8b 12             	mov    (%rdx),%rdx
   10fde:	48 89 10             	mov    %rdx,(%rax)
   10fe1:	8b 85 90 de ff ff    	mov    -0x2170(%rbp),%eax
   10fe7:	89 c6                	mov    %eax,%esi
   10fe9:	bf 00 a3 2d bb       	mov    $0xbb2da300,%edi
   10fee:	e8 c5 be ff ff       	callq  ceb8 <safe_add_func_uint32_t_u_u>
   10ff3:	89 c0                	mov    %eax,%eax
   10ff5:	48 89 c6             	mov    %rax,%rsi
   10ff8:	48 bf 69 a3 94 75 08 	movabs $0x2c3d7087594a369,%rdi
   10fff:	d7 c3 02 
   11002:	e8 a8 c0 ff ff       	callq  d0af <safe_div_func_uint64_t_u_u>
   11007:	48 8b 95 48 e0 ff ff 	mov    -0x1fb8(%rbp),%rdx
   1100e:	8b 12                	mov    (%rdx),%edx
   11010:	21 d0                	and    %edx,%eax
   11012:	89 c2                	mov    %eax,%edx
   11014:	48 8b 85 48 e0 ff ff 	mov    -0x1fb8(%rbp),%rax
   1101b:	89 10                	mov    %edx,(%rax)
   1101d:	0f b7 9d fa dd ff ff 	movzwl -0x2206(%rbp),%ebx
   11024:	48 8b 15 9d de 00 00 	mov    0xde9d(%rip),%rdx        # 1eec8 <g_1712>
   1102b:	48 8b 05 96 de 00 00 	mov    0xde96(%rip),%rax        # 1eec8 <g_1712>
   11032:	0f b6 12             	movzbl (%rdx),%edx
   11035:	88 10                	mov    %dl,(%rax)
   11037:	0f b6 00             	movzbl (%rax),%eax
   1103a:	44 0f be e8          	movsbl %al,%r13d
   1103e:	44 0f b7 a5 cc dd ff 	movzwl -0x2234(%rbp),%r12d
   11045:	ff 
   11046:	48 0f bf 95 ea dd ff 	movswq -0x2216(%rbp),%rdx
   1104d:	ff 
   1104e:	8b 05 7c a4 00 00    	mov    0xa47c(%rip),%eax        # 1b4d0 <g_766>
   11054:	89 c0                	mov    %eax,%eax
   11056:	48 39 85 90 df ff ff 	cmp    %rax,-0x2070(%rbp)
   1105d:	0f 97 c1             	seta   %cl
   11060:	48 8b 05 79 bd 00 00 	mov    0xbd79(%rip),%rax        # 1cde0 <g_284>
   11067:	48 8b 00             	mov    (%rax),%rax
   1106a:	0f b6 c9             	movzbl %cl,%ecx
   1106d:	89 08                	mov    %ecx,(%rax)
   1106f:	8b 08                	mov    (%rax),%ecx
   11071:	8b 05 b1 9f 00 00    	mov    0x9fb1(%rip),%eax        # 1b028 <g_16>
   11077:	39 c1                	cmp    %eax,%ecx
   11079:	0f 9c c0             	setl   %al
   1107c:	0f b6 c0             	movzbl %al,%eax
   1107f:	48 89 d6             	mov    %rdx,%rsi
   11082:	48 89 c7             	mov    %rax,%rdi
   11085:	e8 25 c0 ff ff       	callq  d0af <safe_div_func_uint64_t_u_u>
   1108a:	48 83 f8 01          	cmp    $0x1,%rax
   1108e:	0f 97 c0             	seta   %al
   11091:	0f b6 c0             	movzbl %al,%eax
   11094:	44 89 e6             	mov    %r12d,%esi
   11097:	89 c7                	mov    %eax,%edi
   11099:	e8 dc bd ff ff       	callq  ce7a <safe_rshift_func_uint16_t_u_u>
   1109e:	0f b6 c0             	movzbl %al,%eax
   110a1:	be 5a 00 00 00       	mov    $0x5a,%esi
   110a6:	89 c7                	mov    %eax,%edi
   110a8:	e8 e6 ba ff ff       	callq  cb93 <safe_mul_func_uint8_t_u_u>
   110ad:	48 8b 05 1c cc 00 00 	mov    0xcc1c(%rip),%rax        # 1dcd0 <g_1149>
   110b4:	0f b6 10             	movzbl (%rax),%edx
   110b7:	48 8b 85 f0 e0 ff ff 	mov    -0x1f10(%rbp),%rax
   110be:	88 10                	mov    %dl,(%rax)
   110c0:	48 8b 85 f0 e0 ff ff 	mov    -0x1f10(%rbp),%rax
   110c7:	0f b6 00             	movzbl (%rax),%eax
   110ca:	0f b6 c0             	movzbl %al,%eax
   110cd:	be 6e 00 00 00       	mov    $0x6e,%esi
   110d2:	89 c7                	mov    %eax,%edi
   110d4:	e8 2c bb ff ff       	callq  cc05 <safe_lshift_func_uint8_t_u_s>
   110d9:	44 0f b6 e0          	movzbl %al,%r12d
   110dd:	48 8b 85 e8 e0 ff ff 	mov    -0x1f18(%rbp),%rax
   110e4:	0f b7 c0             	movzwl %ax,%eax
   110e7:	be 0b 00 00 00       	mov    $0xb,%esi
   110ec:	89 c7                	mov    %eax,%edi
   110ee:	e8 55 bd ff ff       	callq  ce48 <safe_rshift_func_uint16_t_u_s>
   110f3:	0f b6 c0             	movzbl %al,%eax
   110f6:	44 89 e6             	mov    %r12d,%esi
   110f9:	89 c7                	mov    %eax,%edi
   110fb:	e8 5a ba ff ff       	callq  cb5a <safe_add_func_uint8_t_u_u>
   11100:	0f b6 c0             	movzbl %al,%eax
   11103:	be 09 00 00 00       	mov    $0x9,%esi
   11108:	89 c7                	mov    %eax,%edi
   1110a:	e8 83 b3 ff ff       	callq  c492 <safe_lshift_func_int16_t_s_s>
   1110f:	98                   	cwtl   
   11110:	44 89 ea             	mov    %r13d,%edx
   11113:	21 c2                	and    %eax,%edx
   11115:	0f b7 85 cc dd ff ff 	movzwl -0x2234(%rbp),%eax
   1111c:	39 c2                	cmp    %eax,%edx
   1111e:	0f 9d c0             	setge  %al
   11121:	0f b6 d0             	movzbl %al,%edx
   11124:	48 8b 05 fd bd 00 00 	mov    0xbdfd(%rip),%rax        # 1cf28 <g_835>
   1112b:	48 8b 00             	mov    (%rax),%rax
   1112e:	48 8b 00             	mov    (%rax),%rax
   11131:	48 39 c2             	cmp    %rax,%rdx
   11134:	0f 94 c0             	sete   %al
   11137:	0f b6 d0             	movzbl %al,%edx
   1113a:	8b 85 04 de ff ff    	mov    -0x21fc(%rbp),%eax
   11140:	39 c2                	cmp    %eax,%edx
   11142:	7d 0e                	jge    11152 <func_58+0x122e>
   11144:	48 8b 05 7d dd 00 00 	mov    0xdd7d(%rip),%rax        # 1eec8 <g_1712>
   1114b:	0f b6 00             	movzbl (%rax),%eax
   1114e:	84 c0                	test   %al,%al
   11150:	74 07                	je     11159 <func_58+0x1235>
   11152:	b8 01 00 00 00       	mov    $0x1,%eax
   11157:	eb 05                	jmp    1115e <func_58+0x123a>
   11159:	b8 00 00 00 00       	mov    $0x0,%eax
   1115e:	0f be c0             	movsbl %al,%eax
   11161:	be e1 ff ff ff       	mov    $0xffffffe1,%esi
   11166:	89 c7                	mov    %eax,%edi
   11168:	e8 a5 b0 ff ff       	callq  c212 <safe_mul_func_int8_t_s_s>
   1116d:	0f be c0             	movsbl %al,%eax
   11170:	89 de                	mov    %ebx,%esi
   11172:	89 c7                	mov    %eax,%edi
   11174:	e8 86 b5 ff ff       	callq  c6ff <safe_div_func_int32_t_s_s>
   11179:	89 c2                	mov    %eax,%edx
   1117b:	48 83 bd d0 e0 ff ff 	cmpq   $0x0,-0x1f30(%rbp)
   11182:	00 
   11183:	0f 94 c0             	sete   %al
   11186:	0f b6 c0             	movzbl %al,%eax
   11189:	89 d6                	mov    %edx,%esi
   1118b:	89 c7                	mov    %eax,%edi
   1118d:	e8 da b1 ff ff       	callq  c36c <safe_rshift_func_int8_t_s_u>
   11192:	0f be c0             	movsbl %al,%eax
   11195:	21 85 8c de ff ff    	and    %eax,-0x2174(%rbp)
   1119b:	66 c7 85 ea dd ff ff 	movw   $0x5,-0x2216(%rbp)
   111a2:	05 00 
   111a4:	eb 28                	jmp    111ce <func_58+0x12aa>
   111a6:	48 8b 15 3b cb 00 00 	mov    0xcb3b(%rip),%rdx        # 1dce8 <g_1175>
   111ad:	48 8b 05 3c cb 00 00 	mov    0xcb3c(%rip),%rax        # 1dcf0 <g_1174>
   111b4:	48 8b 00             	mov    (%rax),%rax
   111b7:	48 8b 12             	mov    (%rdx),%rdx
   111ba:	48 89 10             	mov    %rdx,(%rax)
   111bd:	0f b7 85 ea dd ff ff 	movzwl -0x2216(%rbp),%eax
   111c4:	83 e8 01             	sub    $0x1,%eax
   111c7:	66 89 85 ea dd ff ff 	mov    %ax,-0x2216(%rbp)
   111ce:	66 83 bd ea dd ff ff 	cmpw   $0x0,-0x2216(%rbp)
   111d5:	00 
   111d6:	79 ce                	jns    111a6 <func_58+0x1282>
   111d8:	0f b6 05 e5 a2 00 00 	movzbl 0xa2e5(%rip),%eax        # 1b4c4 <g_618>
   111df:	83 e8 01             	sub    $0x1,%eax
   111e2:	88 05 dc a2 00 00    	mov    %al,0xa2dc(%rip)        # 1b4c4 <g_618>
   111e8:	0f b6 05 d5 a2 00 00 	movzbl 0xa2d5(%rip),%eax        # 1b4c4 <g_618>
   111ef:	84 c0                	test   %al,%al
   111f1:	0f 89 ed fc ff ff    	jns    10ee4 <func_58+0xfc0>
   111f7:	48 8b 05 da a2 00 00 	mov    0xa2da(%rip),%rax        # 1b4d8 <g_858>
   111fe:	be 03 00 00 00       	mov    $0x3,%esi
   11203:	89 c7                	mov    %eax,%edi
   11205:	e8 ac b3 ff ff       	callq  c5b6 <safe_add_func_int32_t_s_s>
   1120a:	48 98                	cltq   
   1120c:	48 89 05 c5 a2 00 00 	mov    %rax,0xa2c5(%rip)        # 1b4d8 <g_858>
   11213:	48 8b 05 be a2 00 00 	mov    0xa2be(%rip),%rax        # 1b4d8 <g_858>
   1121a:	48 83 f8 3a          	cmp    $0x3a,%rax
   1121e:	0f 84 8b fc ff ff    	je     10eaf <func_58+0xf8b>
   11224:	66 83 bd cc dd ff ff 	cmpw   $0x0,-0x2234(%rbp)
   1122b:	00 
   1122c:	0f 84 8b 03 00 00    	je     115bd <func_58+0x1699>
   11232:	c7 85 d0 e5 ff ff fc 	movl   $0xfffffffc,-0x1a30(%rbp)
   11239:	ff ff ff 
   1123c:	c7 85 d4 e5 ff ff fc 	movl   $0xfffffffc,-0x1a2c(%rbp)
   11243:	ff ff ff 
   11246:	c7 85 d8 e5 ff ff fc 	movl   $0xfffffffc,-0x1a28(%rbp)
   1124d:	ff ff ff 
   11250:	c7 85 dc e5 ff ff fc 	movl   $0xfffffffc,-0x1a24(%rbp)
   11257:	ff ff ff 
   1125a:	c7 85 e0 e5 ff ff fc 	movl   $0xfffffffc,-0x1a20(%rbp)
   11261:	ff ff ff 
   11264:	c7 85 e4 e5 ff ff fc 	movl   $0xfffffffc,-0x1a1c(%rbp)
   1126b:	ff ff ff 
   1126e:	c7 85 e8 e5 ff ff fc 	movl   $0xfffffffc,-0x1a18(%rbp)
   11275:	ff ff ff 
   11278:	48 8d 05 41 9e 00 00 	lea    0x9e41(%rip),%rax        # 1b0c0 <g_121>
   1127f:	48 89 85 b8 e0 ff ff 	mov    %rax,-0x1f48(%rbp)
   11286:	83 85 74 de ff ff 01 	addl   $0x1,-0x218c(%rbp)
   1128d:	48 8b 05 5c ca 00 00 	mov    0xca5c(%rip),%rax        # 1dcf0 <g_1174>
   11294:	48 8b 00             	mov    (%rax),%rax
   11297:	48 85 c0             	test   %rax,%rax
   1129a:	75 51                	jne    112ed <func_58+0x13c9>
   1129c:	c7 05 22 a2 00 00 00 	movl   $0x0,0xa222(%rip)        # 1b4c8 <g_713>
   112a3:	00 00 00 
   112a6:	eb 36                	jmp    112de <func_58+0x13ba>
   112a8:	c7 85 7c de ff ff fd 	movl   $0xfffffffd,-0x2184(%rbp)
   112af:	ff ff ff 
   112b2:	c7 85 80 de ff ff ff 	movl   $0xffffffff,-0x2180(%rbp)
   112b9:	ff ff ff 
   112bc:	83 85 7c de ff ff 01 	addl   $0x1,-0x2184(%rbp)
   112c3:	8b 85 3c de ff ff    	mov    -0x21c4(%rbp),%eax
   112c9:	89 85 80 de ff ff    	mov    %eax,-0x2180(%rbp)
   112cf:	8b 05 f3 a1 00 00    	mov    0xa1f3(%rip),%eax        # 1b4c8 <g_713>
   112d5:	83 e8 01             	sub    $0x1,%eax
   112d8:	89 05 ea a1 00 00    	mov    %eax,0xa1ea(%rip)        # 1b4c8 <g_713>
   112de:	8b 05 e4 a1 00 00    	mov    0xa1e4(%rip),%eax        # 1b4c8 <g_713>
   112e4:	85 c0                	test   %eax,%eax
   112e6:	79 c0                	jns    112a8 <func_58+0x1384>
   112e8:	e9 a1 06 00 00       	jmpq   1198e <func_58+0x1a6a>
   112ed:	c6 85 d7 dd ff ff fe 	movb   $0xfe,-0x2229(%rbp)
   112f4:	c7 85 34 de ff ff 03 	movl   $0x3,-0x21cc(%rbp)
   112fb:	00 00 00 
   112fe:	e9 50 02 00 00       	jmpq   11553 <func_58+0x162f>
   11303:	48 c7 85 c0 e0 ff ff 	movq   $0x7,-0x1f40(%rbp)
   1130a:	07 00 00 00 
   1130e:	48 8d 05 13 f2 00 00 	lea    0xf213(%rip),%rax        # 20528 <g_149>
   11315:	48 89 85 10 ec ff ff 	mov    %rax,-0x13f0(%rbp)
   1131c:	48 8d 05 05 f2 00 00 	lea    0xf205(%rip),%rax        # 20528 <g_149>
   11323:	48 89 85 18 ec ff ff 	mov    %rax,-0x13e8(%rbp)
   1132a:	48 8d 05 f7 f1 00 00 	lea    0xf1f7(%rip),%rax        # 20528 <g_149>
   11331:	48 89 85 20 ec ff ff 	mov    %rax,-0x13e0(%rbp)
   11338:	48 8d 05 e9 f1 00 00 	lea    0xf1e9(%rip),%rax        # 20528 <g_149>
   1133f:	48 89 85 28 ec ff ff 	mov    %rax,-0x13d8(%rbp)
   11346:	48 8d 05 db f1 00 00 	lea    0xf1db(%rip),%rax        # 20528 <g_149>
   1134d:	48 89 85 30 ec ff ff 	mov    %rax,-0x13d0(%rbp)
   11354:	48 8d 05 cd f1 00 00 	lea    0xf1cd(%rip),%rax        # 20528 <g_149>
   1135b:	48 89 85 38 ec ff ff 	mov    %rax,-0x13c8(%rbp)
   11362:	48 8d 05 bf f1 00 00 	lea    0xf1bf(%rip),%rax        # 20528 <g_149>
   11369:	48 89 85 40 ec ff ff 	mov    %rax,-0x13c0(%rbp)
   11370:	48 8d 05 b1 f1 00 00 	lea    0xf1b1(%rip),%rax        # 20528 <g_149>
   11377:	48 89 85 48 ec ff ff 	mov    %rax,-0x13b8(%rbp)
   1137e:	48 8d 05 a3 f1 00 00 	lea    0xf1a3(%rip),%rax        # 20528 <g_149>
   11385:	48 89 85 50 ec ff ff 	mov    %rax,-0x13b0(%rbp)
   1138c:	48 8d 05 95 f1 00 00 	lea    0xf195(%rip),%rax        # 20528 <g_149>
   11393:	48 89 85 58 ec ff ff 	mov    %rax,-0x13a8(%rbp)
   1139a:	48 8d 05 87 f1 00 00 	lea    0xf187(%rip),%rax        # 20528 <g_149>
   113a1:	48 89 85 60 ec ff ff 	mov    %rax,-0x13a0(%rbp)
   113a8:	48 8d 05 79 f1 00 00 	lea    0xf179(%rip),%rax        # 20528 <g_149>
   113af:	48 89 85 68 ec ff ff 	mov    %rax,-0x1398(%rbp)
   113b6:	48 8d 05 6b f1 00 00 	lea    0xf16b(%rip),%rax        # 20528 <g_149>
   113bd:	48 89 85 70 ec ff ff 	mov    %rax,-0x1390(%rbp)
   113c4:	48 8d 05 5d f1 00 00 	lea    0xf15d(%rip),%rax        # 20528 <g_149>
   113cb:	48 89 85 78 ec ff ff 	mov    %rax,-0x1388(%rbp)
   113d2:	48 8d 05 4f f1 00 00 	lea    0xf14f(%rip),%rax        # 20528 <g_149>
   113d9:	48 89 85 80 ec ff ff 	mov    %rax,-0x1380(%rbp)
   113e0:	48 8d 05 41 f1 00 00 	lea    0xf141(%rip),%rax        # 20528 <g_149>
   113e7:	48 89 85 88 ec ff ff 	mov    %rax,-0x1378(%rbp)
   113ee:	48 c7 85 c8 e0 ff ff 	movq   $0xffffffffffffffff,-0x1f38(%rbp)
   113f5:	ff ff ff ff 
   113f9:	0f b7 85 cc dd ff ff 	movzwl -0x2234(%rbp),%eax
   11400:	0f bf d8             	movswl %ax,%ebx
   11403:	44 0f b7 a5 cc dd ff 	movzwl -0x2234(%rbp),%r12d
   1140a:	ff 
   1140b:	44 0f bf ad ea dd ff 	movswl -0x2216(%rbp),%r13d
   11412:	ff 
   11413:	0f b7 85 cc dd ff ff 	movzwl -0x2234(%rbp),%eax
   1141a:	44 0f bf f0          	movswl %ax,%r14d
   1141e:	48 8b 05 bb c8 00 00 	mov    0xc8bb(%rip),%rax        # 1dce0 <g_1176>
   11425:	8b 00                	mov    (%rax),%eax
   11427:	89 85 c8 dd ff ff    	mov    %eax,-0x2238(%rbp)
   1142d:	48 83 bd b8 e0 ff ff 	cmpq   $0x0,-0x1f48(%rbp)
   11434:	00 
   11435:	0f 94 c2             	sete   %dl
   11438:	48 8d 05 ed 9b 00 00 	lea    0x9bed(%rip),%rax        # 1b02c <g_36>
   1143f:	0f b6 d2             	movzbl %dl,%edx
   11442:	66 89 10             	mov    %dx,(%rax)
   11445:	44 0f b7 38          	movzwl (%rax),%r15d
   11449:	48 8b 85 60 e0 ff ff 	mov    -0x1fa0(%rbp),%rax
   11450:	8b 00                	mov    (%rax),%eax
   11452:	89 c6                	mov    %eax,%esi
   11454:	bf ff ff ff ff       	mov    $0xffffffff,%edi
   11459:	e8 05 b1 ff ff       	callq  c563 <safe_rshift_func_int16_t_s_u>
   1145e:	66 85 c0             	test   %ax,%ax
   11461:	0f b7 85 ea dd ff ff 	movzwl -0x2216(%rbp),%eax
   11468:	0f be c0             	movsbl %al,%eax
   1146b:	89 c6                	mov    %eax,%esi
   1146d:	bf ff ff ff ff       	mov    $0xffffffff,%edi
   11472:	e8 9b ad ff ff       	callq  c212 <safe_mul_func_int8_t_s_s>
   11477:	66 98                	cbtw   
   11479:	44 21 f8             	and    %r15d,%eax
   1147c:	98                   	cwtl   
   1147d:	be 5f 84 ff ff       	mov    $0xffff845f,%esi
   11482:	89 c7                	mov    %eax,%edi
   11484:	e8 6c af ff ff       	callq  c3f5 <safe_mul_func_int16_t_s_s>
   11489:	b8 e3 49 0a 81       	mov    $0x810a49e3,%eax
   1148e:	89 c2                	mov    %eax,%edx
   11490:	0f b6 85 d6 dd ff ff 	movzbl -0x222a(%rbp),%eax
   11497:	09 d0                	or     %edx,%eax
   11499:	88 85 d6 dd ff ff    	mov    %al,-0x222a(%rbp)
   1149f:	0f b6 85 d6 dd ff ff 	movzbl -0x222a(%rbp),%eax
   114a6:	8b b5 c8 dd ff ff    	mov    -0x2238(%rbp),%esi
   114ac:	89 c7                	mov    %eax,%edi
   114ae:	e8 1d ba ff ff       	callq  ced0 <safe_sub_func_uint32_t_u_u>
   114b3:	0f b6 05 66 a0 00 00 	movzbl 0xa066(%rip),%eax        # 1b520 <g_1150+0x10>
   114ba:	0f b6 c0             	movzbl %al,%eax
   114bd:	48 39 85 c0 e0 ff ff 	cmp    %rax,-0x1f40(%rbp)
   114c4:	44 89 f6             	mov    %r14d,%esi
   114c7:	bf 08 00 00 00       	mov    $0x8,%edi
   114cc:	e8 02 af ff ff       	callq  c3d3 <safe_sub_func_int16_t_s_s>
   114d1:	48 8b 05 b8 70 00 00 	mov    0x70b8(%rip),%rax        # 18590 <l_2255.4524+0x150>
   114d8:	41 89 c6             	mov    %eax,%r14d
   114db:	48 8b 85 c0 e0 ff ff 	mov    -0x1f40(%rbp),%rax
   114e2:	89 c2                	mov    %eax,%edx
   114e4:	0f b7 85 cc dd ff ff 	movzwl -0x2234(%rbp),%eax
   114eb:	98                   	cwtl   
   114ec:	89 d6                	mov    %edx,%esi
   114ee:	89 c7                	mov    %eax,%edi
   114f0:	e8 6e b0 ff ff       	callq  c563 <safe_rshift_func_int16_t_s_u>
   114f5:	98                   	cwtl   
   114f6:	44 89 f6             	mov    %r14d,%esi
   114f9:	89 c7                	mov    %eax,%edi
   114fb:	e8 cc b1 ff ff       	callq  c6cc <safe_mod_func_int32_t_s_s>
   11500:	98                   	cwtl   
   11501:	44 89 ee             	mov    %r13d,%esi
   11504:	89 c7                	mov    %eax,%edi
   11506:	e8 0b af ff ff       	callq  c416 <safe_mod_func_int16_t_s_s>
   1150b:	48 0f bf c0          	movswq %ax,%rax
   1150f:	4c 89 e6             	mov    %r12,%rsi
   11512:	48 89 c7             	mov    %rax,%rdi
   11515:	e8 66 bb ff ff       	callq  d080 <safe_mod_func_uint64_t_u_u>
   1151a:	98                   	cwtl   
   1151b:	89 de                	mov    %ebx,%esi
   1151d:	89 c7                	mov    %eax,%edi
   1151f:	e8 31 af ff ff       	callq  c455 <safe_div_func_int16_t_s_s>
   11524:	89 c2                	mov    %eax,%edx
   11526:	0f b6 85 d7 dd ff ff 	movzbl -0x2229(%rbp),%eax
   1152d:	09 d0                	or     %edx,%eax
   1152f:	88 85 d7 dd ff ff    	mov    %al,-0x2229(%rbp)
   11535:	0f b6 45 bb          	movzbl -0x45(%rbp),%eax
   11539:	83 c0 01             	add    $0x1,%eax
   1153c:	88 45 bb             	mov    %al,-0x45(%rbp)
   1153f:	48 8b 05 aa b8 00 00 	mov    0xb8aa(%rip),%rax        # 1cdf0 <g_466>
   11546:	8b 00                	mov    (%rax),%eax
   11548:	85 c0                	test   %eax,%eax
   1154a:	75 16                	jne    11562 <func_58+0x163e>
   1154c:	83 85 34 de ff ff 01 	addl   $0x1,-0x21cc(%rbp)
   11553:	83 bd 34 de ff ff 08 	cmpl   $0x8,-0x21cc(%rbp)
   1155a:	0f 86 a3 fd ff ff    	jbe    11303 <func_58+0x13df>
   11560:	eb 01                	jmp    11563 <func_58+0x163f>
   11562:	90                   	nop
   11563:	48 8b 05 56 70 00 00 	mov    0x7056(%rip),%rax        # 185c0 <l_2255.4524+0x180>
   1156a:	89 c2                	mov    %eax,%edx
   1156c:	0f b6 45 bb          	movzbl -0x45(%rbp),%eax
   11570:	0f b6 c0             	movzbl %al,%eax
   11573:	89 d6                	mov    %edx,%esi
   11575:	89 c7                	mov    %eax,%edi
   11577:	e8 50 b1 ff ff       	callq  c6cc <safe_mod_func_int32_t_s_s>
   1157c:	85 c0                	test   %eax,%eax
   1157e:	75 09                	jne    11589 <func_58+0x1665>
   11580:	80 bd de dd ff ff 00 	cmpb   $0x0,-0x2222(%rbp)
   11587:	74 07                	je     11590 <func_58+0x166c>
   11589:	b9 01 00 00 00       	mov    $0x1,%ecx
   1158e:	eb 05                	jmp    11595 <func_58+0x1671>
   11590:	b9 00 00 00 00       	mov    $0x0,%ecx
   11595:	48 8b 05 54 b8 00 00 	mov    0xb854(%rip),%rax        # 1cdf0 <g_466>
   1159c:	8b 10                	mov    (%rax),%edx
   1159e:	21 ca                	and    %ecx,%edx
   115a0:	89 10                	mov    %edx,(%rax)
   115a2:	8b 08                	mov    (%rax),%ecx
   115a4:	48 8b 05 0d b8 00 00 	mov    0xb80d(%rip),%rax        # 1cdb8 <g_220>
   115ab:	8b 10                	mov    (%rax),%edx
   115ad:	48 8b 05 04 b8 00 00 	mov    0xb804(%rip),%rax        # 1cdb8 <g_220>
   115b4:	31 ca                	xor    %ecx,%edx
   115b6:	89 10                	mov    %edx,(%rax)
   115b8:	e9 d1 03 00 00       	jmpq   1198e <func_58+0x1a6a>
   115bd:	c7 85 b0 e4 ff ff fa 	movl   $0xfffffffa,-0x1b50(%rbp)
   115c4:	ff ff ff 
   115c7:	c7 85 b4 e4 ff ff 45 	movl   $0x986e3e45,-0x1b4c(%rbp)
   115ce:	3e 6e 98 
   115d1:	c7 85 b8 e4 ff ff fa 	movl   $0xfffffffa,-0x1b48(%rbp)
   115d8:	ff ff ff 
   115db:	c7 85 bc e4 ff ff 45 	movl   $0x986e3e45,-0x1b44(%rbp)
   115e2:	3e 6e 98 
   115e5:	c7 85 c0 e4 ff ff fa 	movl   $0xfffffffa,-0x1b40(%rbp)
   115ec:	ff ff ff 
   115ef:	c7 85 c4 e4 ff ff 45 	movl   $0x986e3e45,-0x1b3c(%rbp)
   115f6:	3e 6e 98 
   115f9:	c7 85 c8 e4 ff ff fa 	movl   $0xfffffffa,-0x1b38(%rbp)
   11600:	ff ff ff 
   11603:	c7 85 cc e4 ff ff 45 	movl   $0x986e3e45,-0x1b34(%rbp)
   1160a:	3e 6e 98 
   1160d:	c7 85 d0 e4 ff ff fa 	movl   $0xfffffffa,-0x1b30(%rbp)
   11614:	ff ff ff 
   11617:	c7 85 40 de ff ff 00 	movl   $0x0,-0x21c0(%rbp)
   1161e:	00 00 00 
   11621:	eb 1e                	jmp    11641 <func_58+0x171d>
   11623:	8b 85 40 de ff ff    	mov    -0x21c0(%rbp),%eax
   11629:	48 98                	cltq   
   1162b:	48 8d 15 56 9d 00 00 	lea    0x9d56(%rip),%rdx        # 1b388 <g_403>
   11632:	48 89 94 c5 d0 e5 ff 	mov    %rdx,-0x1a30(%rbp,%rax,8)
   11639:	ff 
   1163a:	83 85 40 de ff ff 01 	addl   $0x1,-0x21c0(%rbp)
   11641:	83 bd 40 de ff ff 04 	cmpl   $0x4,-0x21c0(%rbp)
   11648:	7e d9                	jle    11623 <func_58+0x16ff>
   1164a:	48 c7 85 88 df ff ff 	movq   $0x9,-0x2078(%rbp)
   11651:	09 00 00 00 
   11655:	e9 02 03 00 00       	jmpq   1195c <func_58+0x1a38>
   1165a:	c7 85 10 ec ff ff 34 	movl   $0xa0b6c034,-0x13f0(%rbp)
   11661:	c0 b6 a0 
   11664:	c7 85 14 ec ff ff 34 	movl   $0xa0b6c034,-0x13ec(%rbp)
   1166b:	c0 b6 a0 
   1166e:	c7 85 18 ec ff ff 34 	movl   $0xa0b6c034,-0x13e8(%rbp)
   11675:	c0 b6 a0 
   11678:	c7 85 1c ec ff ff 34 	movl   $0xa0b6c034,-0x13e4(%rbp)
   1167f:	c0 b6 a0 
   11682:	c7 85 20 ec ff ff 34 	movl   $0xa0b6c034,-0x13e0(%rbp)
   11689:	c0 b6 a0 
   1168c:	c7 85 24 ec ff ff 34 	movl   $0xa0b6c034,-0x13dc(%rbp)
   11693:	c0 b6 a0 
   11696:	c7 85 28 ec ff ff 34 	movl   $0xa0b6c034,-0x13d8(%rbp)
   1169d:	c0 b6 a0 
   116a0:	c7 85 2c ec ff ff 34 	movl   $0xa0b6c034,-0x13d4(%rbp)
   116a7:	c0 b6 a0 
   116aa:	c7 85 30 ec ff ff 34 	movl   $0xa0b6c034,-0x13d0(%rbp)
   116b1:	c0 b6 a0 
   116b4:	c7 85 34 ec ff ff 34 	movl   $0xa0b6c034,-0x13cc(%rbp)
   116bb:	c0 b6 a0 
   116be:	66 c7 05 65 99 00 00 	movw   $0xffe9,0x9965(%rip)        # 1b02c <g_36>
   116c5:	e9 ff 
   116c7:	eb 59                	jmp    11722 <func_58+0x17fe>
   116c9:	48 8b 15 18 c6 00 00 	mov    0xc618(%rip),%rdx        # 1dce8 <g_1175>
   116d0:	48 8b 05 19 c6 00 00 	mov    0xc619(%rip),%rax        # 1dcf0 <g_1174>
   116d7:	48 8b 00             	mov    (%rax),%rax
   116da:	48 8b 12             	mov    (%rdx),%rdx
   116dd:	48 89 10             	mov    %rdx,(%rax)
   116e0:	48 8b 05 09 c6 00 00 	mov    0xc609(%rip),%rax        # 1dcf0 <g_1174>
   116e7:	48 8b 00             	mov    (%rax),%rax
   116ea:	48 8b 00             	mov    (%rax),%rax
   116ed:	8b 10                	mov    (%rax),%edx
   116ef:	89 d1                	mov    %edx,%ecx
   116f1:	0f b7 95 cc dd ff ff 	movzwl -0x2234(%rbp),%edx
   116f8:	21 ca                	and    %ecx,%edx
   116fa:	83 e2 05             	and    $0x5,%edx
   116fd:	89 10                	mov    %edx,(%rax)
   116ff:	8b 85 34 ec ff ff    	mov    -0x13cc(%rbp),%eax
   11705:	85 c0                	test   %eax,%eax
   11707:	0f b7 05 1e 99 00 00 	movzwl 0x991e(%rip),%eax        # 1b02c <g_36>
   1170e:	98                   	cwtl   
   1170f:	be 05 00 00 00       	mov    $0x5,%esi
   11714:	89 c7                	mov    %eax,%edi
   11716:	e8 9d b7 ff ff       	callq  ceb8 <safe_add_func_uint32_t_u_u>
   1171b:	66 89 05 0a 99 00 00 	mov    %ax,0x990a(%rip)        # 1b02c <g_36>
   11722:	0f b7 05 03 99 00 00 	movzwl 0x9903(%rip),%eax        # 1b02c <g_36>
   11729:	66 83 f8 fd          	cmp    $0xfffd,%ax
   1172d:	75 9a                	jne    116c9 <func_58+0x17a5>
   1172f:	c6 05 8a 99 00 00 1b 	movb   $0x1b,0x998a(%rip)        # 1b0c0 <g_121>
   11736:	e9 0a 02 00 00       	jmpq   11945 <func_58+0x1a21>
   1173b:	48 8d 05 b8 9d 00 00 	lea    0x9db8(%rip),%rax        # 1b4fa <g_1076>
   11742:	48 89 85 a8 e0 ff ff 	mov    %rax,-0x1f58(%rbp)
   11749:	48 8d 05 84 99 00 00 	lea    0x9984(%rip),%rax        # 1b0d4 <g_250>
   11750:	48 89 85 b0 e0 ff ff 	mov    %rax,-0x1f50(%rbp)
   11757:	c7 85 78 de ff ff 44 	movl   $0xa290be44,-0x2188(%rbp)
   1175e:	be 90 a2 
   11761:	48 8b 05 48 b6 00 00 	mov    0xb648(%rip),%rax        # 1cdb0 <g_211>
   11768:	48 8b 00             	mov    (%rax),%rax
   1176b:	0f b7 10             	movzwl (%rax),%edx
   1176e:	48 8b 05 3b b6 00 00 	mov    0xb63b(%rip),%rax        # 1cdb0 <g_211>
   11775:	48 8b 00             	mov    (%rax),%rax
   11778:	83 e2 fb             	and    $0xfffffffb,%edx
   1177b:	66 89 10             	mov    %dx,(%rax)
   1177e:	0f b7 10             	movzwl (%rax),%edx
   11781:	48 8b 85 a8 e0 ff ff 	mov    -0x1f58(%rbp),%rax
   11788:	0f b7 00             	movzwl (%rax),%eax
   1178b:	66 0d 03 c1          	or     $0xc103,%ax
   1178f:	89 c1                	mov    %eax,%ecx
   11791:	48 8b 85 a8 e0 ff ff 	mov    -0x1f58(%rbp),%rax
   11798:	66 89 08             	mov    %cx,(%rax)
   1179b:	48 8b 85 a8 e0 ff ff 	mov    -0x1f58(%rbp),%rax
   117a2:	0f b7 00             	movzwl (%rax),%eax
   117a5:	66 39 c2             	cmp    %ax,%dx
   117a8:	0f 95 c0             	setne  %al
   117ab:	44 0f b6 f0          	movzbl %al,%r14d
   117af:	48 8b 85 58 e0 ff ff 	mov    -0x1fa8(%rbp),%rax
   117b6:	8b 00                	mov    (%rax),%eax
   117b8:	0f b6 d8             	movzbl %al,%ebx
   117bb:	0f b6 45 bb          	movzbl -0x45(%rbp),%eax
   117bf:	44 0f b6 e0          	movzbl %al,%r12d
   117c3:	48 8b 85 60 e0 ff ff 	mov    -0x1fa0(%rbp),%rax
   117ca:	8b 00                	mov    (%rax),%eax
   117cc:	66 89 85 c8 dd ff ff 	mov    %ax,-0x2238(%rbp)
   117d3:	48 8b 85 60 e0 ff ff 	mov    -0x1fa0(%rbp),%rax
   117da:	8b 00                	mov    (%rax),%eax
   117dc:	44 0f bf e8          	movswl %ax,%r13d
   117e0:	0f b6 45 bb          	movzbl -0x45(%rbp),%eax
   117e4:	44 0f b6 f8          	movzbl %al,%r15d
   117e8:	66 0f be 85 e0 dd ff 	movsbw -0x2220(%rbp),%ax
   117ef:	ff 
   117f0:	f7 d0                	not    %eax
   117f2:	89 c2                	mov    %eax,%edx
   117f4:	48 8b 85 b0 e0 ff ff 	mov    -0x1f50(%rbp),%rax
   117fb:	66 89 10             	mov    %dx,(%rax)
   117fe:	48 8b 85 b0 e0 ff ff 	mov    -0x1f50(%rbp),%rax
   11805:	0f b7 00             	movzwl (%rax),%eax
   11808:	98                   	cwtl   
   11809:	be e4 58 00 00       	mov    $0x58e4,%esi
   1180e:	89 c7                	mov    %eax,%edi
   11810:	e8 be ab ff ff       	callq  c3d3 <safe_sub_func_int16_t_s_s>
   11815:	0f bf d0             	movswl %ax,%edx
   11818:	0f b7 85 cc dd ff ff 	movzwl -0x2234(%rbp),%eax
   1181f:	31 d0                	xor    %edx,%eax
   11821:	3d df 50 00 00       	cmp    $0x50df,%eax
   11826:	0f 9e c0             	setle  %al
   11829:	0f b6 c0             	movzbl %al,%eax
   1182c:	44 31 f8             	xor    %r15d,%eax
   1182f:	98                   	cwtl   
   11830:	44 89 ee             	mov    %r13d,%esi
   11833:	89 c7                	mov    %eax,%edi
   11835:	e8 99 ab ff ff       	callq  c3d3 <safe_sub_func_int16_t_s_s>
   1183a:	48 8b 85 e8 e5 ff ff 	mov    -0x1a18(%rbp),%rax
   11841:	48 85 c0             	test   %rax,%rax
   11844:	75 0a                	jne    11850 <func_58+0x192c>
   11846:	66 83 bd cc dd ff ff 	cmpw   $0x0,-0x2234(%rbp)
   1184d:	00 
   1184e:	74 07                	je     11857 <func_58+0x1933>
   11850:	b8 01 00 00 00       	mov    $0x1,%eax
   11855:	eb 05                	jmp    1185c <func_58+0x1938>
   11857:	b8 00 00 00 00       	mov    $0x0,%eax
   1185c:	3b 85 78 de ff ff    	cmp    -0x2188(%rbp),%eax
   11862:	0f 94 c0             	sete   %al
   11865:	0f b6 c0             	movzbl %al,%eax
   11868:	66 23 85 c8 dd ff ff 	and    -0x2238(%rbp),%ax
   1186f:	0f b7 c0             	movzwl %ax,%eax
   11872:	be 08 00 00 00       	mov    $0x8,%esi
   11877:	89 c7                	mov    %eax,%edi
   11879:	e8 ca b5 ff ff       	callq  ce48 <safe_rshift_func_uint16_t_u_s>
   1187e:	66 83 f8 01          	cmp    $0x1,%ax
   11882:	0f 97 c0             	seta   %al
   11885:	0f b6 c0             	movzbl %al,%eax
   11888:	48 be 14 cb af 6b b6 	movabs $0xb8ee41b66bafcb14,%rsi
   1188f:	41 ee b8 
   11892:	48 89 c7             	mov    %rax,%rdi
   11895:	e8 15 b8 ff ff       	callq  d0af <safe_div_func_uint64_t_u_u>
   1189a:	44 89 e6             	mov    %r12d,%esi
   1189d:	bf 00 00 00 00       	mov    $0x0,%edi
   118a2:	e8 a5 b3 ff ff       	callq  cc4c <safe_lshift_func_uint8_t_u_u>
   118a7:	0f b7 85 cc dd ff ff 	movzwl -0x2234(%rbp),%eax
   118ae:	0f b6 c0             	movzbl %al,%eax
   118b1:	89 de                	mov    %ebx,%esi
   118b3:	89 c7                	mov    %eax,%edi
   118b5:	e8 d9 b2 ff ff       	callq  cb93 <safe_mul_func_uint8_t_u_u>
   118ba:	ba 01 00 00 00       	mov    $0x1,%edx
   118bf:	0f b7 85 cc dd ff ff 	movzwl -0x2234(%rbp),%eax
   118c6:	39 c2                	cmp    %eax,%edx
   118c8:	0f 9c c0             	setl   %al
   118cb:	0f b6 c0             	movzbl %al,%eax
   118ce:	41 39 c6             	cmp    %eax,%r14d
   118d1:	0f 9e c0             	setle  %al
   118d4:	0f b6 d0             	movzbl %al,%edx
   118d7:	0f b6 45 bd          	movzbl -0x43(%rbp),%eax
   118db:	0f b6 c0             	movzbl %al,%eax
   118de:	39 c2                	cmp    %eax,%edx
   118e0:	0f 9d c0             	setge  %al
   118e3:	0f b6 c0             	movzbl %al,%eax
   118e6:	89 c2                	mov    %eax,%edx
   118e8:	0f b7 05 a9 ec 00 00 	movzwl 0xeca9(%rip),%eax        # 20598 <g_967>
   118ef:	31 d0                	xor    %edx,%eax
   118f1:	66 89 05 a0 ec 00 00 	mov    %ax,0xeca0(%rip)        # 20598 <g_967>
   118f8:	0f b7 05 99 ec 00 00 	movzwl 0xec99(%rip),%eax        # 20598 <g_967>
   118ff:	66 85 c0             	test   %ax,%ax
   11902:	75 0a                	jne    1190e <func_58+0x19ea>
   11904:	8b 85 bc e4 ff ff    	mov    -0x1b44(%rbp),%eax
   1190a:	85 c0                	test   %eax,%eax
   1190c:	74 07                	je     11915 <func_58+0x19f1>
   1190e:	ba 01 00 00 00       	mov    $0x1,%edx
   11913:	eb 05                	jmp    1191a <func_58+0x19f6>
   11915:	ba 00 00 00 00       	mov    $0x0,%edx
   1191a:	48 8b 85 48 e0 ff ff 	mov    -0x1fb8(%rbp),%rax
   11921:	89 10                	mov    %edx,(%rax)
   11923:	48 8b 05 b6 c3 00 00 	mov    0xc3b6(%rip),%rax        # 1dce0 <g_1176>
   1192a:	48 8b 95 48 e0 ff ff 	mov    -0x1fb8(%rbp),%rdx
   11931:	8b 12                	mov    (%rdx),%edx
   11933:	89 10                	mov    %edx,(%rax)
   11935:	0f b6 05 84 97 00 00 	movzbl 0x9784(%rip),%eax        # 1b0c0 <g_121>
   1193c:	83 e8 01             	sub    $0x1,%eax
   1193f:	88 05 7b 97 00 00    	mov    %al,0x977b(%rip)        # 1b0c0 <g_121>
   11945:	0f b6 05 74 97 00 00 	movzbl 0x9774(%rip),%eax        # 1b0c0 <g_121>
   1194c:	3c 02                	cmp    $0x2,%al
   1194e:	0f 86 e7 fd ff ff    	jbe    1173b <func_58+0x1817>
   11954:	48 83 85 88 df ff ff 	addq   $0x1,-0x2078(%rbp)
   1195b:	01 
   1195c:	48 83 bd 88 df ff ff 	cmpq   $0x1e,-0x2078(%rbp)
   11963:	1e 
   11964:	0f 86 f0 fc ff ff    	jbe    1165a <func_58+0x1736>
   1196a:	eb 22                	jmp    1198e <func_58+0x1a6a>
   1196c:	48 8b 05 8d c3 00 00 	mov    0xc38d(%rip),%rax        # 1dd00 <g_1172>
   11973:	48 8b 00             	mov    (%rax),%rax
   11976:	48 8b 00             	mov    (%rax),%rax
   11979:	48 8b 00             	mov    (%rax),%rax
   1197c:	48 8b 00             	mov    (%rax),%rax
   1197f:	8b 08                	mov    (%rax),%ecx
   11981:	48 8b 15 30 b4 00 00 	mov    0xb430(%rip),%rdx        # 1cdb8 <g_220>
   11988:	8b 12                	mov    (%rdx),%edx
   1198a:	09 ca                	or     %ecx,%edx
   1198c:	89 10                	mov    %edx,(%rax)
   1198e:	48 8b 15 9b b5 00 00 	mov    0xb59b(%rip),%rdx        # 1cf30 <g_834>
   11995:	48 8b 05 94 b5 00 00 	mov    0xb594(%rip),%rax        # 1cf30 <g_834>
   1199c:	48 8b 12             	mov    (%rdx),%rdx
   1199f:	48 89 10             	mov    %rdx,(%rax)
   119a2:	48 8b 00             	mov    (%rax),%rax
   119a5:	48 89 85 08 df ff ff 	mov    %rax,-0x20f8(%rbp)
   119ac:	c7 05 16 9b 00 00 00 	movl   $0x0,0x9b16(%rip)        # 1b4cc <g_714>
   119b3:	00 00 00 
   119b6:	e9 74 02 00 00       	jmpq   11c2f <func_58+0x1d0b>
   119bb:	c6 85 e1 dd ff ff 00 	movb   $0x0,-0x221f(%rbp)
   119c2:	48 8d 85 10 ec ff ff 	lea    -0x13f0(%rbp),%rax
   119c9:	48 8d 15 70 5e 00 00 	lea    0x5e70(%rip),%rdx        # 17840 <g_3452+0x7d8>
   119d0:	b9 90 00 00 00       	mov    $0x90,%ecx
   119d5:	48 89 c7             	mov    %rax,%rdi
   119d8:	48 89 d6             	mov    %rdx,%rsi
   119db:	f3 48 a5             	rep movsq %ds:(%rsi),%es:(%rdi)
   119de:	c7 85 94 de ff ff f6 	movl   $0xfffffff6,-0x216c(%rbp)
   119e5:	ff ff ff 
   119e8:	48 c7 85 b0 e3 ff ff 	movq   $0x0,-0x1c50(%rbp)
   119ef:	00 00 00 00 
   119f3:	48 c7 85 b8 e3 ff ff 	movq   $0x0,-0x1c48(%rbp)
   119fa:	00 00 00 00 
   119fe:	48 c7 85 c0 e3 ff ff 	movq   $0x0,-0x1c40(%rbp)
   11a05:	00 00 00 00 
   11a09:	48 c7 85 c8 e3 ff ff 	movq   $0x0,-0x1c38(%rbp)
   11a10:	00 00 00 00 
   11a14:	48 c7 85 d0 e3 ff ff 	movq   $0x0,-0x1c30(%rbp)
   11a1b:	00 00 00 00 
   11a1f:	48 c7 85 d8 e3 ff ff 	movq   $0x0,-0x1c28(%rbp)
   11a26:	00 00 00 00 
   11a2a:	c7 85 98 de ff ff c3 	movl   $0x25f1c8c3,-0x2168(%rbp)
   11a31:	c8 f1 25 
   11a34:	48 8d 05 91 9a 00 00 	lea    0x9a91(%rip),%rax        # 1b4cc <g_714>
   11a3b:	48 89 85 78 df ff ff 	mov    %rax,-0x2088(%rbp)
   11a42:	48 8d 85 78 df ff ff 	lea    -0x2088(%rbp),%rax
   11a49:	48 89 85 f8 e0 ff ff 	mov    %rax,-0x1f08(%rbp)
   11a50:	c6 85 e2 dd ff ff a6 	movb   $0xa6,-0x221e(%rbp)
   11a57:	48 8d 85 08 df ff ff 	lea    -0x20f8(%rbp),%rax
   11a5e:	48 89 85 00 e1 ff ff 	mov    %rax,-0x1f00(%rbp)
   11a65:	48 8d 05 54 eb 00 00 	lea    0xeb54(%rip),%rax        # 205c0 <g_1656>
   11a6c:	48 89 85 08 e1 ff ff 	mov    %rax,-0x1ef8(%rbp)
   11a73:	48 c7 85 b0 e4 ff ff 	movq   $0x0,-0x1b50(%rbp)
   11a7a:	00 00 00 00 
   11a7e:	48 c7 85 b8 e4 ff ff 	movq   $0x0,-0x1b48(%rbp)
   11a85:	00 00 00 00 
   11a89:	48 c7 85 c0 e4 ff ff 	movq   $0x0,-0x1b40(%rbp)
   11a90:	00 00 00 00 
   11a94:	48 c7 85 c8 e4 ff ff 	movq   $0x0,-0x1b38(%rbp)
   11a9b:	00 00 00 00 
   11a9f:	48 c7 85 d0 e4 ff ff 	movq   $0x0,-0x1b30(%rbp)
   11aa6:	00 00 00 00 
   11aaa:	48 c7 85 d8 e4 ff ff 	movq   $0x0,-0x1b28(%rbp)
   11ab1:	00 00 00 00 
   11ab5:	48 c7 85 e0 e4 ff ff 	movq   $0x0,-0x1b20(%rbp)
   11abc:	00 00 00 00 
   11ac0:	48 c7 85 e8 e4 ff ff 	movq   $0x0,-0x1b18(%rbp)
   11ac7:	00 00 00 00 
   11acb:	48 c7 85 f0 e4 ff ff 	movq   $0x0,-0x1b10(%rbp)
   11ad2:	00 00 00 00 
   11ad6:	48 b8 12 8a e5 c3 2a 	movabs $0x32add22ac3e58a12,%rax
   11add:	d2 ad 32 
   11ae0:	48 89 85 10 e1 ff ff 	mov    %rax,-0x1ef0(%rbp)
   11ae7:	66 c7 05 3a ea 00 00 	movw   $0xfff4,0xea3a(%rip)        # 2052a <g_152>
   11aee:	f4 ff 
   11af0:	e9 0f 01 00 00       	jmpq   11c04 <func_58+0x1ce0>
   11af5:	48 b8 e7 31 e7 83 28 	movabs $0x9c93e32883e731e7,%rax
   11afc:	e3 93 9c 
   11aff:	48 89 85 98 df ff ff 	mov    %rax,-0x2068(%rbp)
   11b06:	48 8d 05 7f 98 00 00 	lea    0x987f(%rip),%rax        # 1b38c <g_454>
   11b0d:	48 89 85 18 e1 ff ff 	mov    %rax,-0x1ee8(%rbp)
   11b14:	c7 85 9c de ff ff fb 	movl   $0xfffffffb,-0x2164(%rbp)
   11b1b:	ff ff ff 
   11b1e:	48 8d 85 20 e3 ff ff 	lea    -0x1ce0(%rbp),%rax
   11b25:	48 89 85 20 e1 ff ff 	mov    %rax,-0x1ee0(%rbp)
   11b2c:	c6 85 e3 dd ff ff 6a 	movb   $0x6a,-0x221d(%rbp)
   11b33:	c7 85 44 de ff ff 00 	movl   $0x0,-0x21bc(%rbp)
   11b3a:	00 00 00 
   11b3d:	eb 1f                	jmp    11b5e <func_58+0x1c3a>
   11b3f:	8b 85 44 de ff ff    	mov    -0x21bc(%rbp),%eax
   11b45:	48 98                	cltq   
   11b47:	48 8d 55 b8          	lea    -0x48(%rbp),%rdx
   11b4b:	48 83 c2 03          	add    $0x3,%rdx
   11b4f:	48 89 94 c5 d0 e5 ff 	mov    %rdx,-0x1a30(%rbp,%rax,8)
   11b56:	ff 
   11b57:	83 85 44 de ff ff 01 	addl   $0x1,-0x21bc(%rbp)
   11b5e:	83 bd 44 de ff ff 09 	cmpl   $0x9,-0x21bc(%rbp)
   11b65:	7e d8                	jle    11b3f <func_58+0x1c1b>
   11b67:	c7 85 44 de ff ff 00 	movl   $0x0,-0x21bc(%rbp)
   11b6e:	00 00 00 
   11b71:	eb 1e                	jmp    11b91 <func_58+0x1c6d>
   11b73:	8b 85 44 de ff ff    	mov    -0x21bc(%rbp),%eax
   11b79:	48 98                	cltq   
   11b7b:	48 8d 95 08 df ff ff 	lea    -0x20f8(%rbp),%rdx
   11b82:	48 89 94 c5 18 e3 ff 	mov    %rdx,-0x1ce8(%rbp,%rax,8)
   11b89:	ff 
   11b8a:	83 85 44 de ff ff 01 	addl   $0x1,-0x21bc(%rbp)
   11b91:	83 bd 44 de ff ff 00 	cmpl   $0x0,-0x21bc(%rbp)
   11b98:	7e d9                	jle    11b73 <func_58+0x1c4f>
   11b9a:	66 c7 05 e1 99 00 00 	movw   $0x0,0x99e1(%rip)        # 1b584 <g_1984>
   11ba1:	00 00 
   11ba3:	eb 2f                	jmp    11bd4 <func_58+0x1cb0>
   11ba5:	66 83 bd cc dd ff ff 	cmpw   $0x0,-0x2234(%rbp)
   11bac:	00 
   11bad:	75 34                	jne    11be3 <func_58+0x1cbf>
   11baf:	48 83 ad 98 df ff ff 	subq   $0x1,-0x2068(%rbp)
   11bb6:	01 
   11bb7:	0f b7 05 c6 99 00 00 	movzwl 0x99c6(%rip),%eax        # 1b584 <g_1984>
   11bbe:	0f b7 c0             	movzwl %ax,%eax
   11bc1:	be 02 00 00 00       	mov    $0x2,%esi
   11bc6:	89 c7                	mov    %eax,%edi
   11bc8:	e8 32 b1 ff ff       	callq  ccff <safe_add_func_uint16_t_u_u>
   11bcd:	66 89 05 b0 99 00 00 	mov    %ax,0x99b0(%rip)        # 1b584 <g_1984>
   11bd4:	0f b7 05 a9 99 00 00 	movzwl 0x99a9(%rip),%eax        # 1b584 <g_1984>
   11bdb:	66 83 f8 17          	cmp    $0x17,%ax
   11bdf:	74 c4                	je     11ba5 <func_58+0x1c81>
   11be1:	eb 01                	jmp    11be4 <func_58+0x1cc0>
   11be3:	90                   	nop
   11be4:	0f b7 05 3f e9 00 00 	movzwl 0xe93f(%rip),%eax        # 2052a <g_152>
   11beb:	0f b6 c0             	movzbl %al,%eax
   11bee:	be 01 00 00 00       	mov    $0x1,%esi
   11bf3:	89 c7                	mov    %eax,%edi
   11bf5:	e8 60 af ff ff       	callq  cb5a <safe_add_func_uint8_t_u_u>
   11bfa:	0f b6 c0             	movzbl %al,%eax
   11bfd:	66 89 05 26 e9 00 00 	mov    %ax,0xe926(%rip)        # 2052a <g_152>
   11c04:	0f b7 05 1f e9 00 00 	movzwl 0xe91f(%rip),%eax        # 2052a <g_152>
   11c0b:	66 85 c0             	test   %ax,%ax
   11c0e:	0f 84 e1 fe ff ff    	je     11af5 <func_58+0x1bd1>
   11c14:	8b 05 b2 98 00 00    	mov    0x98b2(%rip),%eax        # 1b4cc <g_714>
   11c1a:	89 c0                	mov    %eax,%eax
   11c1c:	be 08 00 00 00       	mov    $0x8,%esi
   11c21:	48 89 c7             	mov    %rax,%rdi
   11c24:	e8 18 ac ff ff       	callq  c841 <safe_add_func_int64_t_s_s>
   11c29:	89 05 9d 98 00 00    	mov    %eax,0x989d(%rip)        # 1b4cc <g_714>
   11c2f:	8b 05 97 98 00 00    	mov    0x9897(%rip),%eax        # 1b4cc <g_714>
   11c35:	83 f8 28             	cmp    $0x28,%eax
   11c38:	0f 86 7d fd ff ff    	jbe    119bb <func_58+0x1a97>
   11c3e:	e9 68 01 00 00       	jmpq   11dab <func_58+0x1e87>
   11c43:	c7 85 58 de ff ff 05 	movl   $0x5,-0x21a8(%rbp)
   11c4a:	00 00 00 
   11c4d:	c7 85 5c de ff ff 01 	movl   $0x1,-0x21a4(%rbp)
   11c54:	00 00 00 
   11c57:	c7 85 60 de ff ff 06 	movl   $0x6,-0x21a0(%rbp)
   11c5e:	00 00 00 
   11c61:	48 c7 85 10 e0 ff ff 	movq   $0x0,-0x1ff0(%rbp)
   11c68:	00 00 00 00 
   11c6c:	48 c7 85 18 e0 ff ff 	movq   $0x0,-0x1fe8(%rbp)
   11c73:	00 00 00 00 
   11c77:	c7 85 64 de ff ff 00 	movl   $0x0,-0x219c(%rbp)
   11c7e:	00 00 00 
   11c81:	66 c7 85 f6 dd ff ff 	movw   $0x8ba2,-0x220a(%rbp)
   11c88:	a2 8b 
   11c8a:	66 c7 85 10 ec ff ff 	movw   $0x1,-0x13f0(%rbp)
   11c91:	01 00 
   11c93:	66 c7 85 12 ec ff ff 	movw   $0x1,-0x13ee(%rbp)
   11c9a:	01 00 
   11c9c:	66 c7 85 14 ec ff ff 	movw   $0x1,-0x13ec(%rbp)
   11ca3:	01 00 
   11ca5:	66 c7 85 16 ec ff ff 	movw   $0x1,-0x13ea(%rbp)
   11cac:	01 00 
   11cae:	66 c7 85 18 ec ff ff 	movw   $0x1,-0x13e8(%rbp)
   11cb5:	01 00 
   11cb7:	66 c7 85 1a ec ff ff 	movw   $0x1,-0x13e6(%rbp)
   11cbe:	01 00 
   11cc0:	66 c7 85 1c ec ff ff 	movw   $0x1,-0x13e4(%rbp)
   11cc7:	01 00 
   11cc9:	66 c7 85 1e ec ff ff 	movw   $0x1,-0x13e2(%rbp)
   11cd0:	01 00 
   11cd2:	66 c7 85 20 ec ff ff 	movw   $0x1,-0x13e0(%rbp)
   11cd9:	01 00 
   11cdb:	66 c7 85 22 ec ff ff 	movw   $0x1,-0x13de(%rbp)
   11ce2:	01 00 
   11ce4:	48 8d 05 45 e8 00 00 	lea    0xe845(%rip),%rax        # 20530 <g_244>
   11ceb:	48 89 85 20 e0 ff ff 	mov    %rax,-0x1fe0(%rbp)
   11cf2:	48 8d 05 8f e8 00 00 	lea    0xe88f(%rip),%rax        # 20588 <g_642>
   11cf9:	48 89 85 28 e0 ff ff 	mov    %rax,-0x1fd8(%rbp)
   11d00:	c7 85 68 de ff ff fa 	movl   $0xfffffffa,-0x2198(%rbp)
   11d07:	ff ff ff 
   11d0a:	66 c7 85 f8 dd ff ff 	movw   $0x7,-0x2208(%rbp)
   11d11:	07 00 
   11d13:	48 8d 05 c6 b0 00 00 	lea    0xb0c6(%rip),%rax        # 1cde0 <g_284>
   11d1a:	48 89 85 30 e0 ff ff 	mov    %rax,-0x1fd0(%rbp)
   11d21:	c7 85 b0 e4 ff ff ff 	movl   $0xffffffff,-0x1b50(%rbp)
   11d28:	ff ff ff 
   11d2b:	c7 85 b4 e4 ff ff ff 	movl   $0xffffffff,-0x1b4c(%rbp)
   11d32:	ff ff ff 
   11d35:	c7 85 b8 e4 ff ff ff 	movl   $0xffffffff,-0x1b48(%rbp)
   11d3c:	ff ff ff 
   11d3f:	c7 85 bc e4 ff ff ff 	movl   $0xffffffff,-0x1b44(%rbp)
   11d46:	ff ff ff 
   11d49:	c7 85 48 de ff ff 00 	movl   $0x0,-0x21b8(%rbp)
   11d50:	00 00 00 
   11d53:	eb 1e                	jmp    11d73 <func_58+0x1e4f>
   11d55:	8b 85 48 de ff ff    	mov    -0x21b8(%rbp),%eax
   11d5b:	48 98                	cltq   
   11d5d:	48 8d 15 84 b1 00 00 	lea    0xb184(%rip),%rdx        # 1cee8 <g_583+0xe8>
   11d64:	48 89 94 c5 90 f0 ff 	mov    %rdx,-0xf70(%rbp,%rax,8)
   11d6b:	ff 
   11d6c:	83 85 48 de ff ff 01 	addl   $0x1,-0x21b8(%rbp)
   11d73:	83 bd 48 de ff ff 07 	cmpl   $0x7,-0x21b8(%rbp)
   11d7a:	7e d9                	jle    11d55 <func_58+0x1e31>
   11d7c:	c7 85 48 de ff ff 00 	movl   $0x0,-0x21b8(%rbp)
   11d83:	00 00 00 
   11d86:	eb 1a                	jmp    11da2 <func_58+0x1e7e>
   11d88:	8b 85 48 de ff ff    	mov    -0x21b8(%rbp),%eax
   11d8e:	48 98                	cltq   
   11d90:	c7 84 85 d0 e5 ff ff 	movl   $0x8ba5253d,-0x1a30(%rbp,%rax,4)
   11d97:	3d 25 a5 8b 
   11d9b:	83 85 48 de ff ff 01 	addl   $0x1,-0x21b8(%rbp)
   11da2:	83 bd 48 de ff ff 04 	cmpl   $0x4,-0x21b8(%rbp)
   11da9:	7e dd                	jle    11d88 <func_58+0x1e64>
   11dab:	66 83 bd cc dd ff ff 	cmpw   $0x0,-0x2234(%rbp)
   11db2:	00 
   11db3:	0f 84 12 05 00 00    	je     122cb <func_58+0x23a7>
   11db9:	48 c7 85 70 df ff ff 	movq   $0x0,-0x2090(%rbp)
   11dc0:	00 00 00 00 
   11dc4:	48 8d 85 70 df ff ff 	lea    -0x2090(%rbp),%rax
   11dcb:	48 89 85 78 df ff ff 	mov    %rax,-0x2088(%rbp)
   11dd2:	48 8d 85 78 df ff ff 	lea    -0x2088(%rbp),%rax
   11dd9:	48 89 85 38 e1 ff ff 	mov    %rax,-0x1ec8(%rbp)
   11de0:	c7 85 a0 de ff ff f9 	movl   $0xfffffff9,-0x2160(%rbp)
   11de7:	ff ff ff 
   11dea:	48 8d 85 18 df ff ff 	lea    -0x20e8(%rbp),%rax
   11df1:	48 89 85 40 e1 ff ff 	mov    %rax,-0x1ec0(%rbp)
   11df8:	c7 85 a4 de ff ff fd 	movl   $0xfffffffd,-0x215c(%rbp)
   11dff:	ff ff ff 
   11e02:	48 8d 05 97 96 00 00 	lea    0x9697(%rip),%rax        # 1b4a0 <g_499+0x100>
   11e09:	48 89 85 48 e1 ff ff 	mov    %rax,-0x1eb8(%rbp)
   11e10:	48 8d 05 a1 af 00 00 	lea    0xafa1(%rip),%rax        # 1cdb8 <g_220>
   11e17:	48 89 85 50 e1 ff ff 	mov    %rax,-0x1eb0(%rbp)
   11e1e:	48 8d 05 13 d1 00 00 	lea    0xd113(%rip),%rax        # 1ef38 <g_2490>
   11e25:	48 89 85 58 e1 ff ff 	mov    %rax,-0x1ea8(%rbp)
   11e2c:	48 8d 85 0c de ff ff 	lea    -0x21f4(%rbp),%rax
   11e33:	48 89 85 60 e1 ff ff 	mov    %rax,-0x1ea0(%rbp)
   11e3a:	48 8d 85 28 df ff ff 	lea    -0x20d8(%rbp),%rax
   11e41:	48 89 85 68 e1 ff ff 	mov    %rax,-0x1e98(%rbp)
   11e48:	48 8d 05 39 e7 00 00 	lea    0xe739(%rip),%rax        # 20588 <g_642>
   11e4f:	48 89 85 70 e1 ff ff 	mov    %rax,-0x1e90(%rbp)
   11e56:	0f b7 85 cc dd ff ff 	movzwl -0x2234(%rbp),%eax
   11e5d:	0f bf d8             	movswl %ax,%ebx
   11e60:	0f b7 85 cc dd ff ff 	movzwl -0x2234(%rbp),%eax
   11e67:	44 0f bf e0          	movswl %ax,%r12d
   11e6b:	0f b7 95 cc dd ff ff 	movzwl -0x2234(%rbp),%edx
   11e72:	8b 85 48 e6 ff ff    	mov    -0x19b8(%rbp),%eax
   11e78:	39 c2                	cmp    %eax,%edx
   11e7a:	0f 95 c0             	setne  %al
   11e7d:	0f b6 c0             	movzbl %al,%eax
   11e80:	89 c6                	mov    %eax,%esi
   11e82:	bf ff ff ff ff       	mov    $0xffffffff,%edi
   11e87:	e8 79 a7 ff ff       	callq  c605 <safe_sub_func_int32_t_s_s>
   11e8c:	98                   	cwtl   
   11e8d:	44 89 e6             	mov    %r12d,%esi
   11e90:	89 c7                	mov    %eax,%edi
   11e92:	e8 5e a5 ff ff       	callq  c3f5 <safe_mul_func_int16_t_s_s>
   11e97:	48 8d 85 18 df ff ff 	lea    -0x20e8(%rbp),%rax
   11e9e:	48 39 85 40 e1 ff ff 	cmp    %rax,-0x1ec0(%rbp)
   11ea5:	0f 94 c2             	sete   %dl
   11ea8:	48 8d 05 7d 91 00 00 	lea    0x917d(%rip),%rax        # 1b02c <g_36>
   11eaf:	0f b6 d2             	movzbl %dl,%edx
   11eb2:	66 89 10             	mov    %dx,(%rax)
   11eb5:	0f b7 00             	movzwl (%rax),%eax
   11eb8:	98                   	cwtl   
   11eb9:	31 85 a4 de ff ff    	xor    %eax,-0x215c(%rbp)
   11ebf:	8b 85 a4 de ff ff    	mov    -0x215c(%rbp),%eax
   11ec5:	98                   	cwtl   
   11ec6:	89 de                	mov    %ebx,%esi
   11ec8:	89 c7                	mov    %eax,%edi
   11eca:	e8 47 a5 ff ff       	callq  c416 <safe_mod_func_int16_t_s_s>
   11ecf:	0f bf d8             	movswl %ax,%ebx
   11ed2:	48 8b 05 27 d8 00 00 	mov    0xd827(%rip),%rax        # 1f700 <g_3099+0x40>
   11ed9:	48 39 85 38 e1 ff ff 	cmp    %rax,-0x1ec8(%rbp)
   11ee0:	0f 95 c0             	setne  %al
   11ee3:	44 0f b6 e0          	movzbl %al,%r12d
   11ee7:	48 8b 05 e2 bd 00 00 	mov    0xbde2(%rip),%rax        # 1dcd0 <g_1149>
   11eee:	0f b6 10             	movzbl (%rax),%edx
   11ef1:	48 8b 85 a8 df ff ff 	mov    -0x2058(%rbp),%rax
   11ef8:	88 10                	mov    %dl,(%rax)
   11efa:	48 8b 85 a8 df ff ff 	mov    -0x2058(%rbp),%rax
   11f01:	0f b6 00             	movzbl (%rax),%eax
   11f04:	0f be d0             	movsbl %al,%edx
   11f07:	0f b7 85 cc dd ff ff 	movzwl -0x2234(%rbp),%eax
   11f0e:	0f be c0             	movsbl %al,%eax
   11f11:	89 d6                	mov    %edx,%esi
   11f13:	89 c7                	mov    %eax,%edi
   11f15:	e8 f8 a2 ff ff       	callq  c212 <safe_mul_func_int8_t_s_s>
   11f1a:	0f be c0             	movsbl %al,%eax
   11f1d:	44 09 e0             	or     %r12d,%eax
   11f20:	89 de                	mov    %ebx,%esi
   11f22:	89 c7                	mov    %eax,%edi
   11f24:	e8 fc af ff ff       	callq  cf25 <safe_div_func_uint32_t_u_u>
   11f29:	0f b7 c0             	movzwl %ax,%eax
   11f2c:	be 0c 00 00 00       	mov    $0xc,%esi
   11f31:	89 c7                	mov    %eax,%edi
   11f33:	e8 42 af ff ff       	callq  ce7a <safe_rshift_func_uint16_t_u_u>
   11f38:	0f b7 d0             	movzwl %ax,%edx
   11f3b:	48 8b 85 48 e1 ff ff 	mov    -0x1eb8(%rbp),%rax
   11f42:	48 89 10             	mov    %rdx,(%rax)
   11f45:	48 8b 85 48 e1 ff ff 	mov    -0x1eb8(%rbp),%rax
   11f4c:	48 8b 00             	mov    (%rax),%rax
   11f4f:	48 83 f8 01          	cmp    $0x1,%rax
   11f53:	0f 8e 5d 02 00 00    	jle    121b6 <func_58+0x2292>
   11f59:	48 8d 05 28 e6 00 00 	lea    0xe628(%rip),%rax        # 20588 <g_642>
   11f60:	48 89 85 78 e1 ff ff 	mov    %rax,-0x1e88(%rbp)
   11f67:	48 8d 85 28 df ff ff 	lea    -0x20d8(%rbp),%rax
   11f6e:	48 89 85 80 e1 ff ff 	mov    %rax,-0x1e80(%rbp)
   11f75:	48 8d 85 40 df ff ff 	lea    -0x20c0(%rbp),%rax
   11f7c:	48 89 85 88 e1 ff ff 	mov    %rax,-0x1e78(%rbp)
   11f83:	c7 85 4c de ff ff 00 	movl   $0x0,-0x21b4(%rbp)
   11f8a:	00 00 00 
   11f8d:	eb 1b                	jmp    11faa <func_58+0x2086>
   11f8f:	8b 85 4c de ff ff    	mov    -0x21b4(%rbp),%eax
   11f95:	48 98                	cltq   
   11f97:	48 c7 84 c5 90 f0 ff 	movq   $0x0,-0xf70(%rbp,%rax,8)
   11f9e:	ff 00 00 00 00 
   11fa3:	83 85 4c de ff ff 01 	addl   $0x1,-0x21b4(%rbp)
   11faa:	83 bd 4c de ff ff 02 	cmpl   $0x2,-0x21b4(%rbp)
   11fb1:	7e dc                	jle    11f8f <func_58+0x206b>
   11fb3:	c7 05 03 95 00 00 00 	movl   $0x0,0x9503(%rip)        # 1b4c0 <g_535>
   11fba:	00 00 00 
   11fbd:	e9 e8 00 00 00       	jmpq   120aa <func_58+0x2186>
   11fc2:	48 8d 05 17 ae 00 00 	lea    0xae17(%rip),%rax        # 1cde0 <g_284>
   11fc9:	48 89 85 90 e1 ff ff 	mov    %rax,-0x1e70(%rbp)
   11fd0:	48 8d 05 e1 ad 00 00 	lea    0xade1(%rip),%rax        # 1cdb8 <g_220>
   11fd7:	48 89 85 98 e1 ff ff 	mov    %rax,-0x1e68(%rbp)
   11fde:	48 8b 05 fb ad 00 00 	mov    0xadfb(%rip),%rax        # 1cde0 <g_284>
   11fe5:	48 8b 00             	mov    (%rax),%rax
   11fe8:	c7 00 00 00 00 00    	movl   $0x0,(%rax)
   11fee:	48 8b 05 13 bd 00 00 	mov    0xbd13(%rip),%rax        # 1dd08 <g_1373>
   11ff5:	48 8b 05 14 d1 00 00 	mov    0xd114(%rip),%rax        # 1f110 <g_2841>
   11ffc:	48 8b 10             	mov    (%rax),%rdx
   11fff:	48 8b 85 90 e1 ff ff 	mov    -0x1e70(%rbp),%rax
   12006:	48 89 10             	mov    %rdx,(%rax)
   12009:	48 8b 85 90 e1 ff ff 	mov    -0x1e70(%rbp),%rax
   12010:	48 8b 00             	mov    (%rax),%rax
   12013:	48 8b 95 98 e1 ff ff 	mov    -0x1e68(%rbp),%rdx
   1201a:	48 89 95 78 e1 ff ff 	mov    %rdx,-0x1e88(%rbp)
   12021:	48 39 85 78 e1 ff ff 	cmp    %rax,-0x1e88(%rbp)
   12028:	0f b7 85 cc dd ff ff 	movzwl -0x2234(%rbp),%eax
   1202f:	98                   	cwtl   
   12030:	89 c6                	mov    %eax,%esi
   12032:	bf d7 15 00 00       	mov    $0x15d7,%edi
   12037:	e8 b9 a3 ff ff       	callq  c3f5 <safe_mul_func_int16_t_s_s>
   1203c:	0f b7 95 cc dd ff ff 	movzwl -0x2234(%rbp),%edx
   12043:	48 8b 85 78 e1 ff ff 	mov    -0x1e88(%rbp),%rax
   1204a:	48 8b 00             	mov    (%rax),%rax
   1204d:	8b 00                	mov    (%rax),%eax
   1204f:	85 c0                	test   %eax,%eax
   12051:	0f 94 c0             	sete   %al
   12054:	0f b6 c0             	movzbl %al,%eax
   12057:	39 c2                	cmp    %eax,%edx
   12059:	0f 9f c0             	setg   %al
   1205c:	0f b6 c0             	movzbl %al,%eax
   1205f:	be 04 00 00 00       	mov    $0x4,%esi
   12064:	89 c7                	mov    %eax,%edi
   12066:	e8 83 a2 ff ff       	callq  c2ee <safe_lshift_func_int8_t_s_u>
   1206b:	48 8b 85 28 df ff ff 	mov    -0x20d8(%rbp),%rax
   12072:	c7 00 00 00 00 00    	movl   $0x0,(%rax)
   12078:	48 8b 05 61 bc 00 00 	mov    0xbc61(%rip),%rax        # 1dce0 <g_1176>
   1207f:	8b 08                	mov    (%rax),%ecx
   12081:	48 8b 85 98 e1 ff ff 	mov    -0x1e68(%rbp),%rax
   12088:	48 8b 00             	mov    (%rax),%rax
   1208b:	8b 10                	mov    (%rax),%edx
   1208d:	48 8b 85 98 e1 ff ff 	mov    -0x1e68(%rbp),%rax
   12094:	48 8b 00             	mov    (%rax),%rax
   12097:	31 ca                	xor    %ecx,%edx
   12099:	89 10                	mov    %edx,(%rax)
   1209b:	8b 05 1f 94 00 00    	mov    0x941f(%rip),%eax        # 1b4c0 <g_535>
   120a1:	83 e8 01             	sub    $0x1,%eax
   120a4:	89 05 16 94 00 00    	mov    %eax,0x9416(%rip)        # 1b4c0 <g_535>
   120aa:	8b 05 10 94 00 00    	mov    0x9410(%rip),%eax        # 1b4c0 <g_535>
   120b0:	83 f8 f8             	cmp    $0xfffffff8,%eax
   120b3:	0f 8c 09 ff ff ff    	jl     11fc2 <func_58+0x209e>
   120b9:	0f b7 9d cc dd ff ff 	movzwl -0x2234(%rbp),%ebx
   120c0:	44 0f b7 a5 cc dd ff 	movzwl -0x2234(%rbp),%r12d
   120c7:	ff 
   120c8:	0f b7 8d cc dd ff ff 	movzwl -0x2234(%rbp),%ecx
   120cf:	48 8b 85 58 e1 ff ff 	mov    -0x1ea8(%rbp),%rax
   120d6:	48 89 85 98 e8 ff ff 	mov    %rax,-0x1768(%rbp)
   120dd:	48 8b b5 98 e8 ff ff 	mov    -0x1768(%rbp),%rsi
   120e4:	48 8b 95 40 df ff ff 	mov    -0x20c0(%rbp),%rdx
   120eb:	48 8b 85 88 e1 ff ff 	mov    -0x1e78(%rbp),%rax
   120f2:	48 89 10             	mov    %rdx,(%rax)
   120f5:	48 8b 85 88 e1 ff ff 	mov    -0x1e78(%rbp),%rax
   120fc:	48 8b 00             	mov    (%rax),%rax
   120ff:	48 39 c6             	cmp    %rax,%rsi
   12102:	0f 95 c0             	setne  %al
   12105:	0f b6 c0             	movzbl %al,%eax
   12108:	39 c1                	cmp    %eax,%ecx
   1210a:	74 29                	je     12135 <func_58+0x2211>
   1210c:	48 8b 85 50 e1 ff ff 	mov    -0x1eb0(%rbp),%rax
   12113:	48 8b 00             	mov    (%rax),%rax
   12116:	8b 00                	mov    (%rax),%eax
   12118:	98                   	cwtl   
   12119:	89 c6                	mov    %eax,%esi
   1211b:	bf 00 00 00 00       	mov    $0x0,%edi
   12120:	e8 d0 a2 ff ff       	callq  c3f5 <safe_mul_func_int16_t_s_s>
   12125:	98                   	cwtl   
   12126:	89 c6                	mov    %eax,%esi
   12128:	bf 1b f8 00 00       	mov    $0xf81b,%edi
   1212d:	e8 d4 ac ff ff       	callq  ce06 <safe_lshift_func_uint16_t_u_u>
   12132:	66 85 c0             	test   %ax,%ax
   12135:	44 89 e6             	mov    %r12d,%esi
   12138:	bf 00 00 00 00       	mov    $0x0,%edi
   1213d:	e8 dd ab ff ff       	callq  cd1f <safe_sub_func_uint16_t_u_u>
   12142:	0f be c0             	movsbl %al,%eax
   12145:	be 07 00 00 00       	mov    $0x7,%esi
   1214a:	89 c7                	mov    %eax,%edi
   1214c:	e8 1b a2 ff ff       	callq  c36c <safe_rshift_func_int8_t_s_u>
   12151:	0f be d0             	movsbl %al,%edx
   12154:	0f b7 85 cc dd ff ff 	movzwl -0x2234(%rbp),%eax
   1215b:	0f be c0             	movsbl %al,%eax
   1215e:	89 d6                	mov    %edx,%esi
   12160:	89 c7                	mov    %eax,%edi
   12162:	e8 ce a1 ff ff       	callq  c335 <safe_rshift_func_int8_t_s_s>
   12167:	0f b6 c0             	movzbl %al,%eax
   1216a:	89 de                	mov    %ebx,%esi
   1216c:	89 c7                	mov    %eax,%edi
   1216e:	e8 4b ab ff ff       	callq  ccbe <safe_rshift_func_uint8_t_u_u>
   12173:	48 8b 05 f6 ab 00 00 	mov    0xabf6(%rip),%rax        # 1cd70 <g_159>
   1217a:	48 8b 00             	mov    (%rax),%rax
   1217d:	0f b7 00             	movzwl (%rax),%eax
   12180:	66 83 f8 ff          	cmp    $0xffff,%ax
   12184:	0f 9d c0             	setge  %al
   12187:	0f b6 c0             	movzbl %al,%eax
   1218a:	be dc ff ff ff       	mov    $0xffffffdc,%esi
   1218f:	89 c7                	mov    %eax,%edi
   12191:	e8 d4 a0 ff ff       	callq  c26a <safe_div_func_int8_t_s_s>
   12196:	89 c2                	mov    %eax,%edx
   12198:	48 8b 05 61 bb 00 00 	mov    0xbb61(%rip),%rax        # 1dd00 <g_1172>
   1219f:	48 8b 00             	mov    (%rax),%rax
   121a2:	48 8b 00             	mov    (%rax),%rax
   121a5:	48 8b 00             	mov    (%rax),%rax
   121a8:	48 8b 00             	mov    (%rax),%rax
   121ab:	8b 08                	mov    (%rax),%ecx
   121ad:	0f be d2             	movsbl %dl,%edx
   121b0:	21 ca                	and    %ecx,%edx
   121b2:	89 10                	mov    %edx,(%rax)
   121b4:	eb 24                	jmp    121da <func_58+0x22b6>
   121b6:	48 8b 05 23 ac 00 00 	mov    0xac23(%rip),%rax        # 1cde0 <g_284>
   121bd:	48 8b 95 50 e1 ff ff 	mov    -0x1eb0(%rbp),%rdx
   121c4:	48 8b 12             	mov    (%rdx),%rdx
   121c7:	48 89 10             	mov    %rdx,(%rax)
   121ca:	48 8b 85 28 df ff ff 	mov    -0x20d8(%rbp),%rax
   121d1:	0f b7 95 cc dd ff ff 	movzwl -0x2234(%rbp),%edx
   121d8:	89 10                	mov    %edx,(%rax)
   121da:	48 8b 85 60 e1 ff ff 	mov    -0x1ea0(%rbp),%rax
   121e1:	8b 00                	mov    (%rax),%eax
   121e3:	8d 50 ff             	lea    -0x1(%rax),%edx
   121e6:	48 8b 85 60 e1 ff ff 	mov    -0x1ea0(%rbp),%rax
   121ed:	89 10                	mov    %edx,(%rax)
   121ef:	48 8b 85 60 e1 ff ff 	mov    -0x1ea0(%rbp),%rax
   121f6:	8b 00                	mov    (%rax),%eax
   121f8:	83 f8 05             	cmp    $0x5,%eax
   121fb:	0f b7 9d cc dd ff ff 	movzwl -0x2234(%rbp),%ebx
   12202:	48 8b 05 c7 ab 00 00 	mov    0xabc7(%rip),%rax        # 1cdd0 <g_242>
   12209:	48 8b 95 b0 df ff ff 	mov    -0x2050(%rbp),%rdx
   12210:	48 8b 12             	mov    (%rdx),%rdx
   12213:	48 89 10             	mov    %rdx,(%rax)
   12216:	48 8b 00             	mov    (%rax),%rax
   12219:	48 85 c0             	test   %rax,%rax
   1221c:	0f 95 c0             	setne  %al
   1221f:	0f b6 c0             	movzbl %al,%eax
   12222:	be 01 00 00 00       	mov    $0x1,%esi
   12227:	89 c7                	mov    %eax,%edi
   12229:	e8 07 a1 ff ff       	callq  c335 <safe_rshift_func_int8_t_s_s>
   1222e:	66 0f be d0          	movsbw %al,%dx
   12232:	0f b7 85 cc dd ff ff 	movzwl -0x2234(%rbp),%eax
   12239:	31 d0                	xor    %edx,%eax
   1223b:	0f b7 c0             	movzwl %ax,%eax
   1223e:	89 de                	mov    %ebx,%esi
   12240:	89 c7                	mov    %eax,%edi
   12242:	e8 f6 aa ff ff       	callq  cd3d <safe_mul_func_uint16_t_u_u>
   12247:	0f b7 c0             	movzwl %ax,%eax
   1224a:	be ff ff ff ff       	mov    $0xffffffff,%esi
   1224f:	89 c7                	mov    %eax,%edi
   12251:	e8 60 a3 ff ff       	callq  c5b6 <safe_add_func_int32_t_s_s>
   12256:	48 8b 05 d3 ac 00 00 	mov    0xacd3(%rip),%rax        # 1cf30 <g_834>
   1225d:	48 8b 85 50 e1 ff ff 	mov    -0x1eb0(%rbp),%rax
   12264:	48 8b 00             	mov    (%rax),%rax
   12267:	c7 00 35 1f d4 b1    	movl   $0xb1d41f35,(%rax)
   1226d:	8b 10                	mov    (%rax),%edx
   1226f:	8b 85 04 de ff ff    	mov    -0x21fc(%rbp),%eax
   12275:	31 d0                	xor    %edx,%eax
   12277:	89 85 04 de ff ff    	mov    %eax,-0x21fc(%rbp)
   1227d:	48 8b 15 5c ab 00 00 	mov    0xab5c(%rip),%rdx        # 1cde0 <g_284>
   12284:	48 8b 05 55 ab 00 00 	mov    0xab55(%rip),%rax        # 1cde0 <g_284>
   1228b:	48 8b 12             	mov    (%rdx),%rdx
   1228e:	48 89 10             	mov    %rdx,(%rax)
   12291:	48 8b 10             	mov    (%rax),%rdx
   12294:	48 8b 85 68 e1 ff ff 	mov    -0x1e98(%rbp),%rax
   1229b:	48 89 10             	mov    %rdx,(%rax)
   1229e:	48 8b 85 68 e1 ff ff 	mov    -0x1e98(%rbp),%rax
   122a5:	48 8b 10             	mov    (%rax),%rdx
   122a8:	48 8b 85 70 e1 ff ff 	mov    -0x1e90(%rbp),%rax
   122af:	48 89 10             	mov    %rdx,(%rax)
   122b2:	48 8b 85 50 e1 ff ff 	mov    -0x1eb0(%rbp),%rax
   122b9:	48 8b 10             	mov    (%rax),%rdx
   122bc:	48 8b 85 68 e1 ff ff 	mov    -0x1e98(%rbp),%rax
   122c3:	48 89 10             	mov    %rdx,(%rax)
   122c6:	e9 a5 01 00 00       	jmpq   12470 <func_58+0x254c>
   122cb:	48 8d 05 82 8d 00 00 	lea    0x8d82(%rip),%rax        # 1b054 <g_65+0x14>
   122d2:	48 89 85 28 e1 ff ff 	mov    %rax,-0x1ed8(%rbp)
   122d9:	48 8d 85 20 e3 ff ff 	lea    -0x1ce0(%rbp),%rax
   122e0:	48 89 85 30 e1 ff ff 	mov    %rax,-0x1ed0(%rbp)
   122e7:	48 8b 05 f2 aa 00 00 	mov    0xaaf2(%rip),%rax        # 1cde0 <g_284>
   122ee:	48 8b 95 28 e1 ff ff 	mov    -0x1ed8(%rbp),%rdx
   122f5:	48 89 10             	mov    %rdx,(%rax)
   122f8:	0f b7 9d cc dd ff ff 	movzwl -0x2234(%rbp),%ebx
   122ff:	44 0f b7 a5 cc dd ff 	movzwl -0x2234(%rbp),%r12d
   12306:	ff 
   12307:	0f b7 85 cc dd ff ff 	movzwl -0x2234(%rbp),%eax
   1230e:	44 0f be e8          	movsbl %al,%r13d
   12312:	44 0f b7 bd cc dd ff 	movzwl -0x2234(%rbp),%r15d
   12319:	ff 
   1231a:	0f b7 85 cc dd ff ff 	movzwl -0x2234(%rbp),%eax
   12321:	44 0f b6 f0          	movzbl %al,%r14d
   12325:	48 8b 85 28 df ff ff 	mov    -0x20d8(%rbp),%rax
   1232c:	c7 00 01 00 00 00    	movl   $0x1,(%rax)
   12332:	8b 00                	mov    (%rax),%eax
   12334:	be 01 00 00 00       	mov    $0x1,%esi
   12339:	89 c7                	mov    %eax,%edi
   1233b:	e8 bf a3 ff ff       	callq  c6ff <safe_div_func_int32_t_s_s>
   12340:	bf 00 00 00 00       	mov    $0x0,%edi
   12345:	e8 53 a0 ff ff       	callq  c39d <safe_unary_minus_func_int16_t_s>
   1234a:	66 85 c0             	test   %ax,%ax
   1234d:	74 11                	je     12360 <func_58+0x243c>
   1234f:	66 83 bd cc dd ff ff 	cmpw   $0x0,-0x2234(%rbp)
   12356:	00 
   12357:	74 07                	je     12360 <func_58+0x243c>
   12359:	ba 01 00 00 00       	mov    $0x1,%edx
   1235e:	eb 05                	jmp    12365 <func_58+0x2441>
   12360:	ba 00 00 00 00       	mov    $0x0,%edx
   12365:	48 8b 05 5c cb 00 00 	mov    0xcb5c(%rip),%rax        # 1eec8 <g_1712>
   1236c:	0f b6 00             	movzbl (%rax),%eax
   1236f:	0f be c0             	movsbl %al,%eax
   12372:	39 c2                	cmp    %eax,%edx
   12374:	0f 9f c0             	setg   %al
   12377:	0f b6 c0             	movzbl %al,%eax
   1237a:	44 89 f6             	mov    %r14d,%esi
   1237d:	89 c7                	mov    %eax,%edi
   1237f:	e8 f4 a7 ff ff       	callq  cb78 <safe_sub_func_uint8_t_u_u>
   12384:	0f b6 c0             	movzbl %al,%eax
   12387:	48 89 c6             	mov    %rax,%rsi
   1238a:	48 bf c4 77 08 de 30 	movabs $0x9914d030de0877c4,%rdi
   12391:	d0 14 99 
   12394:	e8 5e a6 ff ff       	callq  c9f7 <safe_div_func_int64_t_s_s>
   12399:	49 39 c7             	cmp    %rax,%r15
   1239c:	83 bd 54 de ff ff 01 	cmpl   $0x1,-0x21ac(%rbp)
   123a3:	0f 96 c0             	setbe  %al
   123a6:	0f b6 c0             	movzbl %al,%eax
   123a9:	be fe ff ff ff       	mov    $0xfffffffe,%esi
   123ae:	89 c7                	mov    %eax,%edi
   123b0:	e8 3d 9e ff ff       	callq  c1f2 <safe_sub_func_int8_t_s_s>
   123b5:	0f be d0             	movsbl %al,%edx
   123b8:	0f b7 85 cc dd ff ff 	movzwl -0x2234(%rbp),%eax
   123bf:	0f b6 c0             	movzbl %al,%eax
   123c2:	89 d6                	mov    %edx,%esi
   123c4:	89 c7                	mov    %eax,%edi
   123c6:	e8 f3 a8 ff ff       	callq  ccbe <safe_rshift_func_uint8_t_u_u>
   123cb:	0f b6 d0             	movzbl %al,%edx
   123ce:	48 8b 05 03 b9 00 00 	mov    0xb903(%rip),%rax        # 1dcd8 <g_1148>
   123d5:	48 8b 00             	mov    (%rax),%rax
   123d8:	0f b6 00             	movzbl (%rax),%eax
   123db:	0f b6 c0             	movzbl %al,%eax
   123de:	89 d6                	mov    %edx,%esi
   123e0:	89 c7                	mov    %eax,%edi
   123e2:	e8 c7 a7 ff ff       	callq  cbae <safe_mod_func_uint8_t_u_u>
   123e7:	0f be c0             	movsbl %al,%eax
   123ea:	44 89 ee             	mov    %r13d,%esi
   123ed:	89 c7                	mov    %eax,%edi
   123ef:	e8 e0 9d ff ff       	callq  c1d4 <safe_add_func_int8_t_s_s>
   123f4:	0f be d0             	movsbl %al,%edx
   123f7:	48 8b 85 28 e1 ff ff 	mov    -0x1ed8(%rbp),%rax
   123fe:	8b 00                	mov    (%rax),%eax
   12400:	39 c2                	cmp    %eax,%edx
   12402:	0f 9c c0             	setl   %al
   12405:	0f b6 c0             	movzbl %al,%eax
   12408:	44 89 e6             	mov    %r12d,%esi
   1240b:	89 c7                	mov    %eax,%edi
   1240d:	e8 be aa ff ff       	callq  ced0 <safe_sub_func_uint32_t_u_u>
   12412:	48 8b 85 28 e1 ff ff 	mov    -0x1ed8(%rbp),%rax
   12419:	8b 00                	mov    (%rax),%eax
   1241b:	0f be c0             	movsbl %al,%eax
   1241e:	be b7 ff ff ff       	mov    $0xffffffb7,%esi
   12423:	89 c7                	mov    %eax,%edi
   12425:	e8 07 9e ff ff       	callq  c231 <safe_mod_func_int8_t_s_s>
   1242a:	89 c2                	mov    %eax,%edx
   1242c:	48 8b 05 95 ca 00 00 	mov    0xca95(%rip),%rax        # 1eec8 <g_1712>
   12433:	0f b6 00             	movzbl (%rax),%eax
   12436:	09 c2                	or     %eax,%edx
   12438:	48 8b 05 51 d2 00 00 	mov    0xd251(%rip),%rax        # 1f690 <g_3053>
   1243f:	48 8b 00             	mov    (%rax),%rax
   12442:	48 8b 00             	mov    (%rax),%rax
   12445:	48 0f be d2          	movsbq %dl,%rdx
   12449:	48 89 10             	mov    %rdx,(%rax)
   1244c:	48 8b 00             	mov    (%rax),%rax
   1244f:	48 89 de             	mov    %rbx,%rsi
   12452:	48 89 c7             	mov    %rax,%rdi
   12455:	e8 f1 ab ff ff       	callq  d04b <safe_sub_func_uint64_t_u_u>
   1245a:	48 8b 95 30 e1 ff ff 	mov    -0x1ed0(%rbp),%rdx
   12461:	8b 12                	mov    (%rdx),%edx
   12463:	21 d0                	and    %edx,%eax
   12465:	89 c2                	mov    %eax,%edx
   12467:	48 8b 85 30 e1 ff ff 	mov    -0x1ed0(%rbp),%rax
   1246e:	89 10                	mov    %edx,(%rax)
   12470:	48 8b 05 e9 a8 00 00 	mov    0xa8e9(%rip),%rax        # 1cd60 <g_154>
   12477:	8b 18                	mov    (%rax),%ebx
   12479:	0f b7 95 cc dd ff ff 	movzwl -0x2234(%rbp),%edx
   12480:	48 8b 85 28 df ff ff 	mov    -0x20d8(%rbp),%rax
   12487:	8b 00                	mov    (%rax),%eax
   12489:	0f be c0             	movsbl %al,%eax
   1248c:	89 d6                	mov    %edx,%esi
   1248e:	89 c7                	mov    %eax,%edi
   12490:	e8 59 9e ff ff       	callq  c2ee <safe_lshift_func_int8_t_s_u>
   12495:	0f be d0             	movsbl %al,%edx
   12498:	48 0f be 8d da dd ff 	movsbq -0x2226(%rbp),%rcx
   1249f:	ff 
   124a0:	48 8b 05 f1 d1 00 00 	mov    0xd1f1(%rip),%rax        # 1f698 <g_3052>
   124a7:	48 8b 00             	mov    (%rax),%rax
   124aa:	48 8b 00             	mov    (%rax),%rax
   124ad:	48 8b 00             	mov    (%rax),%rax
   124b0:	48 8b 00             	mov    (%rax),%rax
   124b3:	48 39 c1             	cmp    %rax,%rcx
   124b6:	0f 92 c0             	setb   %al
   124b9:	0f b6 c0             	movzbl %al,%eax
   124bc:	21 d0                	and    %edx,%eax
   124be:	39 c3                	cmp    %eax,%ebx
   124c0:	0f 84 55 0b 00 00    	je     1301b <func_58+0x30f7>
   124c6:	48 8d 05 ff 8b 00 00 	lea    0x8bff(%rip),%rax        # 1b0cc <g_179>
   124cd:	48 89 85 30 e2 ff ff 	mov    %rax,-0x1dd0(%rbp)
   124d4:	48 c7 85 70 df ff ff 	movq   $0x0,-0x2090(%rbp)
   124db:	00 00 00 00 
   124df:	48 8d 85 70 df ff ff 	lea    -0x2090(%rbp),%rax
   124e6:	48 89 85 38 e2 ff ff 	mov    %rax,-0x1dc8(%rbp)
   124ed:	48 c7 85 40 e2 ff ff 	movq   $0x0,-0x1dc0(%rbp)
   124f4:	00 00 00 00 
   124f8:	48 c7 85 48 e2 ff ff 	movq   $0x0,-0x1db8(%rbp)
   124ff:	00 00 00 00 
   12503:	48 c7 85 50 e2 ff ff 	movq   $0x0,-0x1db0(%rbp)
   1250a:	00 00 00 00 
   1250e:	48 8d 85 d4 dd ff ff 	lea    -0x222c(%rbp),%rax
   12515:	48 89 85 58 e2 ff ff 	mov    %rax,-0x1da8(%rbp)
   1251c:	48 8d 05 9d 8b 00 00 	lea    0x8b9d(%rip),%rax        # 1b0c0 <g_121>
   12523:	48 89 85 60 e2 ff ff 	mov    %rax,-0x1da0(%rbp)
   1252a:	66 c7 85 00 de ff ff 	movw   $0x1,-0x2200(%rbp)
   12531:	01 00 
   12533:	c7 85 bc de ff ff fc 	movl   $0xfffffffc,-0x2144(%rbp)
   1253a:	ff ff ff 
   1253d:	c6 85 e7 dd ff ff 1b 	movb   $0x1b,-0x2219(%rbp)
   12544:	c7 85 c0 de ff ff ee 	movl   $0xeb0ccaee,-0x2140(%rbp)
   1254b:	ca 0c eb 
   1254e:	48 8d 05 db df 00 00 	lea    0xdfdb(%rip),%rax        # 20530 <g_244>
   12555:	48 89 85 68 e2 ff ff 	mov    %rax,-0x1d98(%rbp)
   1255c:	48 8d 05 bd a9 00 00 	lea    0xa9bd(%rip),%rax        # 1cf20 <g_836>
   12563:	48 89 85 70 e2 ff ff 	mov    %rax,-0x1d90(%rbp)
   1256a:	48 8d 05 67 a8 00 00 	lea    0xa867(%rip),%rax        # 1cdd8 <g_241>
   12571:	48 89 85 78 e2 ff ff 	mov    %rax,-0x1d88(%rbp)
   12578:	48 8d 05 61 d1 00 00 	lea    0xd161(%rip),%rax        # 1f6e0 <g_3099+0x20>
   1257f:	48 89 85 80 e2 ff ff 	mov    %rax,-0x1d80(%rbp)
   12586:	c7 85 c4 de ff ff 00 	movl   $0x0,-0x213c(%rbp)
   1258d:	00 00 00 
   12590:	c7 85 c8 de ff ff 08 	movl   $0x8,-0x2138(%rbp)
   12597:	00 00 00 
   1259a:	c7 85 cc de ff ff 4b 	movl   $0x7c15324b,-0x2134(%rbp)
   125a1:	32 15 7c 
   125a4:	c7 85 d0 de ff ff 75 	movl   $0x3df92575,-0x2130(%rbp)
   125ab:	25 f9 3d 
   125ae:	c7 85 d4 de ff ff 03 	movl   $0x3,-0x212c(%rbp)
   125b5:	00 00 00 
   125b8:	c7 85 d8 de ff ff 00 	movl   $0x0,-0x2128(%rbp)
   125bf:	00 00 00 
   125c2:	c7 85 dc de ff ff 5a 	movl   $0x78c03b5a,-0x2124(%rbp)
   125c9:	3b c0 78 
   125cc:	c7 85 e0 de ff ff 57 	movl   $0xcc91cb57,-0x2120(%rbp)
   125d3:	cb 91 cc 
   125d6:	48 8d 05 af 8d 00 00 	lea    0x8daf(%rip),%rax        # 1b38c <g_454>
   125dd:	48 89 85 88 e2 ff ff 	mov    %rax,-0x1d78(%rbp)
   125e4:	48 8d 85 60 df ff ff 	lea    -0x20a0(%rbp),%rax
   125eb:	48 89 85 b0 e4 ff ff 	mov    %rax,-0x1b50(%rbp)
   125f2:	48 8d 85 60 df ff ff 	lea    -0x20a0(%rbp),%rax
   125f9:	48 89 85 b8 e4 ff ff 	mov    %rax,-0x1b48(%rbp)
   12600:	48 8d 85 60 df ff ff 	lea    -0x20a0(%rbp),%rax
   12607:	48 89 85 c0 e4 ff ff 	mov    %rax,-0x1b40(%rbp)
   1260e:	48 8d 85 60 df ff ff 	lea    -0x20a0(%rbp),%rax
   12615:	48 89 85 c8 e4 ff ff 	mov    %rax,-0x1b38(%rbp)
   1261c:	48 c7 85 d0 e4 ff ff 	movq   $0x0,-0x1b30(%rbp)
   12623:	00 00 00 00 
   12627:	48 8d 85 60 df ff ff 	lea    -0x20a0(%rbp),%rax
   1262e:	48 89 85 d8 e4 ff ff 	mov    %rax,-0x1b28(%rbp)
   12635:	48 8d 85 60 df ff ff 	lea    -0x20a0(%rbp),%rax
   1263c:	48 89 85 e0 e4 ff ff 	mov    %rax,-0x1b20(%rbp)
   12643:	48 8d 85 60 df ff ff 	lea    -0x20a0(%rbp),%rax
   1264a:	48 89 85 e8 e4 ff ff 	mov    %rax,-0x1b18(%rbp)
   12651:	48 8d 85 60 df ff ff 	lea    -0x20a0(%rbp),%rax
   12658:	48 89 85 f0 e4 ff ff 	mov    %rax,-0x1b10(%rbp)
   1265f:	48 c7 85 f8 e4 ff ff 	movq   $0x0,-0x1b08(%rbp)
   12666:	00 00 00 00 
   1266a:	48 b8 c8 54 1b ce d6 	movabs $0x68fb40d6ce1b54c8,%rax
   12671:	40 fb 68 
   12674:	48 89 85 90 e2 ff ff 	mov    %rax,-0x1d70(%rbp)
   1267b:	c7 85 e4 de ff ff 09 	movl   $0x9,-0x211c(%rbp)
   12682:	00 00 00 
   12685:	c6 85 e8 dd ff ff 02 	movb   $0x2,-0x2218(%rbp)
   1268c:	c7 85 20 de ff ff 00 	movl   $0x0,-0x21e0(%rbp)
   12693:	00 00 00 
   12696:	eb 1e                	jmp    126b6 <func_58+0x2792>
   12698:	8b 85 20 de ff ff    	mov    -0x21e0(%rbp),%eax
   1269e:	48 98                	cltq   
   126a0:	48 8d 95 50 df ff ff 	lea    -0x20b0(%rbp),%rdx
   126a7:	48 89 94 c5 20 e4 ff 	mov    %rdx,-0x1be0(%rbp,%rax,8)
   126ae:	ff 
   126af:	83 85 20 de ff ff 01 	addl   $0x1,-0x21e0(%rbp)
   126b6:	83 bd 20 de ff ff 01 	cmpl   $0x1,-0x21e0(%rbp)
   126bd:	7e d9                	jle    12698 <func_58+0x2774>
   126bf:	c7 85 20 de ff ff 00 	movl   $0x0,-0x21e0(%rbp)
   126c6:	00 00 00 
   126c9:	eb 4d                	jmp    12718 <func_58+0x27f4>
   126cb:	c7 85 24 de ff ff 00 	movl   $0x0,-0x21dc(%rbp)
   126d2:	00 00 00 
   126d5:	eb 31                	jmp    12708 <func_58+0x27e4>
   126d7:	8b 85 24 de ff ff    	mov    -0x21dc(%rbp),%eax
   126dd:	48 63 c8             	movslq %eax,%rcx
   126e0:	8b 85 20 de ff ff    	mov    -0x21e0(%rbp),%eax
   126e6:	48 63 d0             	movslq %eax,%rdx
   126e9:	48 89 d0             	mov    %rdx,%rax
   126ec:	48 c1 e0 03          	shl    $0x3,%rax
   126f0:	48 29 d0             	sub    %rdx,%rax
   126f3:	48 01 c8             	add    %rcx,%rax
   126f6:	c7 84 85 d0 e5 ff ff 	movl   $0x1,-0x1a30(%rbp,%rax,4)
   126fd:	01 00 00 00 
   12701:	83 85 24 de ff ff 01 	addl   $0x1,-0x21dc(%rbp)
   12708:	83 bd 24 de ff ff 06 	cmpl   $0x6,-0x21dc(%rbp)
   1270f:	7e c6                	jle    126d7 <func_58+0x27b3>
   12711:	83 85 20 de ff ff 01 	addl   $0x1,-0x21e0(%rbp)
   12718:	83 bd 20 de ff ff 02 	cmpl   $0x2,-0x21e0(%rbp)
   1271f:	7e aa                	jle    126cb <func_58+0x27a7>
   12721:	48 8b 05 b0 d9 00 00 	mov    0xd9b0(%rip),%rax        # 200d8 <g_3198>
   12728:	48 8b 95 48 df ff ff 	mov    -0x20b8(%rbp),%rdx
   1272f:	48 89 10             	mov    %rdx,(%rax)
   12732:	48 8b 05 a7 a6 00 00 	mov    0xa6a7(%rip),%rax        # 1cde0 <g_284>
   12739:	48 8b 95 30 e2 ff ff 	mov    -0x1dd0(%rbp),%rdx
   12740:	48 89 10             	mov    %rdx,(%rax)
   12743:	48 8b 05 2e a6 00 00 	mov    0xa62e(%rip),%rax        # 1cd78 <g_158>
   1274a:	48 8b 00             	mov    (%rax),%rax
   1274d:	48 8b 00             	mov    (%rax),%rax
   12750:	0f b7 00             	movzwl (%rax),%eax
   12753:	0f bf d8             	movswl %ax,%ebx
   12756:	48 8b 85 30 e2 ff ff 	mov    -0x1dd0(%rbp),%rax
   1275d:	44 8b 20             	mov    (%rax),%r12d
   12760:	48 8b 85 28 df ff ff 	mov    -0x20d8(%rbp),%rax
   12767:	8b 00                	mov    (%rax),%eax
   12769:	41 89 c5             	mov    %eax,%r13d
   1276c:	48 8b 85 50 e2 ff ff 	mov    -0x1db0(%rbp),%rax
   12773:	48 89 85 f0 fa ff ff 	mov    %rax,-0x510(%rbp)
   1277a:	48 8b 85 f0 fa ff ff 	mov    -0x510(%rbp),%rax
   12781:	48 39 85 50 e2 ff ff 	cmp    %rax,-0x1db0(%rbp)
   12788:	74 14                	je     1279e <func_58+0x287a>
   1278a:	48 8b 85 30 e2 ff ff 	mov    -0x1dd0(%rbp),%rax
   12791:	8b 00                	mov    (%rax),%eax
   12793:	85 c0                	test   %eax,%eax
   12795:	74 07                	je     1279e <func_58+0x287a>
   12797:	b8 01 00 00 00       	mov    $0x1,%eax
   1279c:	eb 05                	jmp    127a3 <func_58+0x287f>
   1279e:	b8 00 00 00 00       	mov    $0x0,%eax
   127a3:	48 98                	cltq   
   127a5:	be 00 00 00 00       	mov    $0x0,%esi
   127aa:	48 89 c7             	mov    %rax,%rdi
   127ad:	e8 8f a0 ff ff       	callq  c841 <safe_add_func_int64_t_s_s>
   127b2:	0f b7 c0             	movzwl %ax,%eax
   127b5:	44 89 ee             	mov    %r13d,%esi
   127b8:	89 c7                	mov    %eax,%edi
   127ba:	e8 bb a6 ff ff       	callq  ce7a <safe_rshift_func_uint16_t_u_u>
   127bf:	0f b7 c0             	movzwl %ax,%eax
   127c2:	44 89 e6             	mov    %r12d,%esi
   127c5:	89 c7                	mov    %eax,%edi
   127c7:	e8 f2 a5 ff ff       	callq  cdbe <safe_lshift_func_uint16_t_u_s>
   127cc:	66 83 bd cc dd ff ff 	cmpw   $0x0,-0x2234(%rbp)
   127d3:	00 
   127d4:	0f 94 c0             	sete   %al
   127d7:	0f b6 c0             	movzbl %al,%eax
   127da:	89 de                	mov    %ebx,%esi
   127dc:	89 c7                	mov    %eax,%edi
   127de:	e8 12 9c ff ff       	callq  c3f5 <safe_mul_func_int16_t_s_s>
   127e3:	0f be d0             	movsbl %al,%edx
   127e6:	8b 05 a0 8b 00 00    	mov    0x8ba0(%rip),%eax        # 1b38c <g_454>
   127ec:	83 c0 01             	add    $0x1,%eax
   127ef:	89 05 97 8b 00 00    	mov    %eax,0x8b97(%rip)        # 1b38c <g_454>
   127f5:	48 8d 05 1c a7 00 00 	lea    0xa71c(%rip),%rax        # 1cf18 <g_582>
   127fc:	48 89 05 dd d8 00 00 	mov    %rax,0xd8dd(%rip)        # 200e0 <g_3204>
   12803:	48 8b 0d d6 d8 00 00 	mov    0xd8d6(%rip),%rcx        # 200e0 <g_3204>
   1280a:	48 8b 85 38 e2 ff ff 	mov    -0x1dc8(%rbp),%rax
   12811:	48 89 08             	mov    %rcx,(%rax)
   12814:	48 8b 85 38 e2 ff ff 	mov    -0x1dc8(%rbp),%rax
   1281b:	48 8b 08             	mov    (%rax),%rcx
   1281e:	48 8b 85 50 df ff ff 	mov    -0x20b0(%rbp),%rax
   12825:	48 89 85 50 df ff ff 	mov    %rax,-0x20b0(%rbp)
   1282c:	48 8b 85 50 df ff ff 	mov    -0x20b0(%rbp),%rax
   12833:	48 39 c1             	cmp    %rax,%rcx
   12836:	0f 94 c0             	sete   %al
   12839:	89 c1                	mov    %eax,%ecx
   1283b:	48 8b 85 30 e2 ff ff 	mov    -0x1dd0(%rbp),%rax
   12842:	8b 00                	mov    (%rax),%eax
   12844:	31 c8                	xor    %ecx,%eax
   12846:	0f be c0             	movsbl %al,%eax
   12849:	89 d6                	mov    %edx,%esi
   1284b:	89 c7                	mov    %eax,%edi
   1284d:	e8 c0 99 ff ff       	callq  c212 <safe_mul_func_int8_t_s_s>
   12852:	89 c2                	mov    %eax,%edx
   12854:	48 8b 05 5d a5 00 00 	mov    0xa55d(%rip),%rax        # 1cdb8 <g_220>
   1285b:	0f be d2             	movsbl %dl,%edx
   1285e:	89 10                	mov    %edx,(%rax)
   12860:	8b 00                	mov    (%rax),%eax
   12862:	85 c0                	test   %eax,%eax
   12864:	0f 84 f1 00 00 00    	je     1295b <func_58+0x2a37>
   1286a:	66 c7 85 02 de ff ff 	movw   $0x2022,-0x21fe(%rbp)
   12871:	22 20 
   12873:	48 8d 85 d3 dd ff ff 	lea    -0x222d(%rbp),%rax
   1287a:	48 89 85 e0 e2 ff ff 	mov    %rax,-0x1d20(%rbp)
   12881:	c7 85 04 df ff ff cc 	movl   $0x4f88accc,-0x20fc(%rbp)
   12888:	ac 88 4f 
   1288b:	48 8d 85 48 df ff ff 	lea    -0x20b8(%rbp),%rax
   12892:	48 89 85 e8 e2 ff ff 	mov    %rax,-0x1d18(%rbp)
   12899:	48 8d 05 40 a5 00 00 	lea    0xa540(%rip),%rax        # 1cde0 <g_284>
   128a0:	48 89 85 90 f0 ff ff 	mov    %rax,-0xf70(%rbp)
   128a7:	48 8d 05 32 a5 00 00 	lea    0xa532(%rip),%rax        # 1cde0 <g_284>
   128ae:	48 89 85 98 f0 ff ff 	mov    %rax,-0xf68(%rbp)
   128b5:	48 8d 05 24 a5 00 00 	lea    0xa524(%rip),%rax        # 1cde0 <g_284>
   128bc:	48 89 85 a0 f0 ff ff 	mov    %rax,-0xf60(%rbp)
   128c3:	48 8d 05 16 a5 00 00 	lea    0xa516(%rip),%rax        # 1cde0 <g_284>
   128ca:	48 89 85 a8 f0 ff ff 	mov    %rax,-0xf58(%rbp)
   128d1:	48 8d 05 08 a5 00 00 	lea    0xa508(%rip),%rax        # 1cde0 <g_284>
   128d8:	48 89 85 b0 f0 ff ff 	mov    %rax,-0xf50(%rbp)
   128df:	48 8d 05 fa a4 00 00 	lea    0xa4fa(%rip),%rax        # 1cde0 <g_284>
   128e6:	48 89 85 b8 f0 ff ff 	mov    %rax,-0xf48(%rbp)
   128ed:	48 8d 05 ec a4 00 00 	lea    0xa4ec(%rip),%rax        # 1cde0 <g_284>
   128f4:	48 89 85 c0 f0 ff ff 	mov    %rax,-0xf40(%rbp)
   128fb:	48 8d 05 de a4 00 00 	lea    0xa4de(%rip),%rax        # 1cde0 <g_284>
   12902:	48 89 85 c8 f0 ff ff 	mov    %rax,-0xf38(%rbp)
   12909:	48 c7 85 f0 e2 ff ff 	movq   $0x0,-0x1d10(%rbp)
   12910:	00 00 00 00 
   12914:	48 b8 25 30 d6 d3 c7 	movabs $0xe7654cc7d3d63025,%rax
   1291b:	4c 65 e7 
   1291e:	48 89 85 f8 e2 ff ff 	mov    %rax,-0x1d08(%rbp)
   12925:	48 c7 85 00 e3 ff ff 	movq   $0x0,-0x1d00(%rbp)
   1292c:	00 00 00 00 
   12930:	48 8d 05 61 cd 00 00 	lea    0xcd61(%rip),%rax        # 1f698 <g_3052>
   12937:	48 89 85 08 e3 ff ff 	mov    %rax,-0x1cf8(%rbp)
   1293e:	c7 85 10 ec ff ff af 	movl   $0x70142eaf,-0x13f0(%rbp)
   12945:	2e 14 70 
   12948:	48 8d 05 f1 a4 00 00 	lea    0xa4f1(%rip),%rax        # 1ce40 <g_583+0x40>
   1294f:	48 89 85 10 e3 ff ff 	mov    %rax,-0x1cf0(%rbp)
   12956:	e9 8c 15 00 00       	jmpq   13ee7 <func_58+0x3fc3>
   1295b:	48 c7 85 98 e2 ff ff 	movq   $0x0,-0x1d68(%rbp)
   12962:	00 00 00 00 
   12966:	c7 85 e8 de ff ff 5b 	movl   $0x1a9e9c5b,-0x2118(%rbp)
   1296d:	9c 9e 1a 
   12970:	48 c7 85 10 ec ff ff 	movq   $0x0,-0x13f0(%rbp)
   12977:	00 00 00 00 
   1297b:	48 8d 05 fe 86 00 00 	lea    0x86fe(%rip),%rax        # 1b080 <g_65+0x40>
   12982:	48 89 85 18 ec ff ff 	mov    %rax,-0x13e8(%rbp)
   12989:	48 c7 85 20 ec ff ff 	movq   $0x0,-0x13e0(%rbp)
   12990:	00 00 00 00 
   12994:	48 8d 85 04 de ff ff 	lea    -0x21fc(%rbp),%rax
   1299b:	48 89 85 28 ec ff ff 	mov    %rax,-0x13d8(%rbp)
   129a2:	48 c7 85 30 ec ff ff 	movq   $0x0,-0x13d0(%rbp)
   129a9:	00 00 00 00 
   129ad:	48 8d 05 cc 86 00 00 	lea    0x86cc(%rip),%rax        # 1b080 <g_65+0x40>
   129b4:	48 89 85 38 ec ff ff 	mov    %rax,-0x13c8(%rbp)
   129bb:	48 8d 05 0a 87 00 00 	lea    0x870a(%rip),%rax        # 1b0cc <g_179>
   129c2:	48 89 85 40 ec ff ff 	mov    %rax,-0x13c0(%rbp)
   129c9:	48 8d 05 b0 86 00 00 	lea    0x86b0(%rip),%rax        # 1b080 <g_65+0x40>
   129d0:	48 89 85 48 ec ff ff 	mov    %rax,-0x13b8(%rbp)
   129d7:	48 8d 85 04 de ff ff 	lea    -0x21fc(%rbp),%rax
   129de:	48 89 85 50 ec ff ff 	mov    %rax,-0x13b0(%rbp)
   129e5:	48 8d 05 94 86 00 00 	lea    0x8694(%rip),%rax        # 1b080 <g_65+0x40>
   129ec:	48 89 85 58 ec ff ff 	mov    %rax,-0x13a8(%rbp)
   129f3:	48 8d 05 d2 86 00 00 	lea    0x86d2(%rip),%rax        # 1b0cc <g_179>
   129fa:	48 89 85 60 ec ff ff 	mov    %rax,-0x13a0(%rbp)
   12a01:	48 8d 05 78 86 00 00 	lea    0x8678(%rip),%rax        # 1b080 <g_65+0x40>
   12a08:	48 89 85 68 ec ff ff 	mov    %rax,-0x1398(%rbp)
   12a0f:	48 c7 85 70 ec ff ff 	movq   $0x0,-0x1390(%rbp)
   12a16:	00 00 00 00 
   12a1a:	48 8d 85 04 de ff ff 	lea    -0x21fc(%rbp),%rax
   12a21:	48 89 85 78 ec ff ff 	mov    %rax,-0x1388(%rbp)
   12a28:	48 c7 85 80 ec ff ff 	movq   $0x0,-0x1380(%rbp)
   12a2f:	00 00 00 00 
   12a33:	48 8d 05 46 86 00 00 	lea    0x8646(%rip),%rax        # 1b080 <g_65+0x40>
   12a3a:	48 89 85 88 ec ff ff 	mov    %rax,-0x1378(%rbp)
   12a41:	48 c7 85 90 ec ff ff 	movq   $0x0,-0x1370(%rbp)
   12a48:	00 00 00 00 
   12a4c:	48 8d 85 04 de ff ff 	lea    -0x21fc(%rbp),%rax
   12a53:	48 89 85 98 ec ff ff 	mov    %rax,-0x1368(%rbp)
   12a5a:	48 8d 05 6b 86 00 00 	lea    0x866b(%rip),%rax        # 1b0cc <g_179>
   12a61:	48 89 85 a0 ec ff ff 	mov    %rax,-0x1360(%rbp)
   12a68:	48 8d 85 04 de ff ff 	lea    -0x21fc(%rbp),%rax
   12a6f:	48 89 85 a8 ec ff ff 	mov    %rax,-0x1358(%rbp)
   12a76:	48 8d 85 04 de ff ff 	lea    -0x21fc(%rbp),%rax
   12a7d:	48 89 85 b0 ec ff ff 	mov    %rax,-0x1350(%rbp)
   12a84:	48 8d 85 04 de ff ff 	lea    -0x21fc(%rbp),%rax
   12a8b:	48 89 85 b8 ec ff ff 	mov    %rax,-0x1348(%rbp)
   12a92:	48 8d 05 33 86 00 00 	lea    0x8633(%rip),%rax        # 1b0cc <g_179>
   12a99:	48 89 85 c0 ec ff ff 	mov    %rax,-0x1340(%rbp)
   12aa0:	48 8d 85 04 de ff ff 	lea    -0x21fc(%rbp),%rax
   12aa7:	48 89 85 c8 ec ff ff 	mov    %rax,-0x1338(%rbp)
   12aae:	48 c7 85 d0 ec ff ff 	movq   $0x0,-0x1330(%rbp)
   12ab5:	00 00 00 00 
   12ab9:	48 8d 05 c0 85 00 00 	lea    0x85c0(%rip),%rax        # 1b080 <g_65+0x40>
   12ac0:	48 89 85 d8 ec ff ff 	mov    %rax,-0x1328(%rbp)
   12ac7:	48 c7 85 e0 ec ff ff 	movq   $0x0,-0x1320(%rbp)
   12ace:	00 00 00 00 
   12ad2:	48 8d 85 04 de ff ff 	lea    -0x21fc(%rbp),%rax
   12ad9:	48 89 85 e8 ec ff ff 	mov    %rax,-0x1318(%rbp)
   12ae0:	48 c7 85 f0 ec ff ff 	movq   $0x0,-0x1310(%rbp)
   12ae7:	00 00 00 00 
   12aeb:	48 8d 05 8e 85 00 00 	lea    0x858e(%rip),%rax        # 1b080 <g_65+0x40>
   12af2:	48 89 85 f8 ec ff ff 	mov    %rax,-0x1308(%rbp)
   12af9:	48 8d 05 cc 85 00 00 	lea    0x85cc(%rip),%rax        # 1b0cc <g_179>
   12b00:	48 89 85 00 ed ff ff 	mov    %rax,-0x1300(%rbp)
   12b07:	48 8d 05 72 85 00 00 	lea    0x8572(%rip),%rax        # 1b080 <g_65+0x40>
   12b0e:	48 89 85 08 ed ff ff 	mov    %rax,-0x12f8(%rbp)
   12b15:	48 8d 85 04 de ff ff 	lea    -0x21fc(%rbp),%rax
   12b1c:	48 89 85 10 ed ff ff 	mov    %rax,-0x12f0(%rbp)
   12b23:	48 8d 05 56 85 00 00 	lea    0x8556(%rip),%rax        # 1b080 <g_65+0x40>
   12b2a:	48 89 85 18 ed ff ff 	mov    %rax,-0x12e8(%rbp)
   12b31:	48 8d 05 94 85 00 00 	lea    0x8594(%rip),%rax        # 1b0cc <g_179>
   12b38:	48 89 85 20 ed ff ff 	mov    %rax,-0x12e0(%rbp)
   12b3f:	48 8d 05 3a 85 00 00 	lea    0x853a(%rip),%rax        # 1b080 <g_65+0x40>
   12b46:	48 89 85 28 ed ff ff 	mov    %rax,-0x12d8(%rbp)
   12b4d:	48 c7 85 30 ed ff ff 	movq   $0x0,-0x12d0(%rbp)
   12b54:	00 00 00 00 
   12b58:	48 8d 85 04 de ff ff 	lea    -0x21fc(%rbp),%rax
   12b5f:	48 89 85 38 ed ff ff 	mov    %rax,-0x12c8(%rbp)
   12b66:	48 c7 85 40 ed ff ff 	movq   $0x0,-0x12c0(%rbp)
   12b6d:	00 00 00 00 
   12b71:	48 8d 05 08 85 00 00 	lea    0x8508(%rip),%rax        # 1b080 <g_65+0x40>
   12b78:	48 89 85 48 ed ff ff 	mov    %rax,-0x12b8(%rbp)
   12b7f:	48 c7 85 50 ed ff ff 	movq   $0x0,-0x12b0(%rbp)
   12b86:	00 00 00 00 
   12b8a:	48 8d 85 04 de ff ff 	lea    -0x21fc(%rbp),%rax
   12b91:	48 89 85 58 ed ff ff 	mov    %rax,-0x12a8(%rbp)
   12b98:	48 8d 05 2d 85 00 00 	lea    0x852d(%rip),%rax        # 1b0cc <g_179>
   12b9f:	48 89 85 60 ed ff ff 	mov    %rax,-0x12a0(%rbp)
   12ba6:	48 8d 85 04 de ff ff 	lea    -0x21fc(%rbp),%rax
   12bad:	48 89 85 68 ed ff ff 	mov    %rax,-0x1298(%rbp)
   12bb4:	48 8d 85 04 de ff ff 	lea    -0x21fc(%rbp),%rax
   12bbb:	48 89 85 70 ed ff ff 	mov    %rax,-0x1290(%rbp)
   12bc2:	48 8d 85 04 de ff ff 	lea    -0x21fc(%rbp),%rax
   12bc9:	48 89 85 78 ed ff ff 	mov    %rax,-0x1288(%rbp)
   12bd0:	48 8d 05 f5 84 00 00 	lea    0x84f5(%rip),%rax        # 1b0cc <g_179>
   12bd7:	48 89 85 80 ed ff ff 	mov    %rax,-0x1280(%rbp)
   12bde:	48 8d 85 04 de ff ff 	lea    -0x21fc(%rbp),%rax
   12be5:	48 89 85 88 ed ff ff 	mov    %rax,-0x1278(%rbp)
   12bec:	48 8d 05 9d ca 00 00 	lea    0xca9d(%rip),%rax        # 1f690 <g_3053>
   12bf3:	48 89 85 a0 e2 ff ff 	mov    %rax,-0x1d60(%rbp)
   12bfa:	c7 85 ec de ff ff 35 	movl   $0x29656235,-0x2114(%rbp)
   12c01:	62 65 29 
   12c04:	48 8d 05 fd c4 00 00 	lea    0xc4fd(%rip),%rax        # 1f108 <g_2623>
   12c0b:	48 89 85 78 df ff ff 	mov    %rax,-0x2088(%rbp)
   12c12:	48 8d 85 78 df ff ff 	lea    -0x2088(%rbp),%rax
   12c19:	48 89 85 a8 e2 ff ff 	mov    %rax,-0x1d58(%rbp)
   12c20:	48 c7 85 b0 e2 ff ff 	movq   $0x0,-0x1d50(%rbp)
   12c27:	00 00 00 00 
   12c2b:	48 c7 85 b8 e2 ff ff 	movq   $0x0,-0x1d48(%rbp)
   12c32:	00 00 00 00 
   12c36:	0f b7 9d cc dd ff ff 	movzwl -0x2234(%rbp),%ebx
   12c3d:	8b 85 e8 de ff ff    	mov    -0x2118(%rbp),%eax
   12c43:	44 0f be e0          	movsbl %al,%r12d
   12c47:	0f b7 85 cc dd ff ff 	movzwl -0x2234(%rbp),%eax
   12c4e:	0f b6 c0             	movzbl %al,%eax
   12c51:	be 04 00 00 00       	mov    $0x4,%esi
   12c56:	89 c7                	mov    %eax,%edi
   12c58:	e8 30 a0 ff ff       	callq  cc8d <safe_rshift_func_uint8_t_u_s>
   12c5d:	48 8b 85 c8 df ff ff 	mov    -0x2038(%rbp),%rax
   12c64:	48 8b 00             	mov    (%rax),%rax
   12c67:	48 8b 00             	mov    (%rax),%rax
   12c6a:	48 8b 00             	mov    (%rax),%rax
   12c6d:	48 39 85 58 e2 ff ff 	cmp    %rax,-0x1da8(%rbp)
   12c74:	0f 95 c0             	setne  %al
   12c77:	0f b6 d0             	movzbl %al,%edx
   12c7a:	48 8b 85 30 e2 ff ff 	mov    -0x1dd0(%rbp),%rax
   12c81:	8b 00                	mov    (%rax),%eax
   12c83:	31 c2                	xor    %eax,%edx
   12c85:	0f b7 05 3c 84 00 00 	movzwl 0x843c(%rip),%eax        # 1b0c8 <g_176>
   12c8c:	09 d0                	or     %edx,%eax
   12c8e:	66 89 05 33 84 00 00 	mov    %ax,0x8433(%rip)        # 1b0c8 <g_176>
   12c95:	0f b7 05 2c 84 00 00 	movzwl 0x842c(%rip),%eax        # 1b0c8 <g_176>
   12c9c:	66 89 05 55 88 00 00 	mov    %ax,0x8855(%rip)        # 1b4f8 <g_987>
   12ca3:	48 8b 05 1e c2 00 00 	mov    0xc21e(%rip),%rax        # 1eec8 <g_1712>
   12caa:	0f b6 00             	movzbl (%rax),%eax
   12cad:	0f be c0             	movsbl %al,%eax
   12cb0:	44 89 e6             	mov    %r12d,%esi
   12cb3:	89 c7                	mov    %eax,%edi
   12cb5:	e8 1a 95 ff ff       	callq  c1d4 <safe_add_func_int8_t_s_s>
   12cba:	84 c0                	test   %al,%al
   12cbc:	74 10                	je     12cce <func_58+0x2daa>
   12cbe:	83 bd e8 de ff ff 00 	cmpl   $0x0,-0x2118(%rbp)
   12cc5:	74 07                	je     12cce <func_58+0x2daa>
   12cc7:	b8 01 00 00 00       	mov    $0x1,%eax
   12ccc:	eb 05                	jmp    12cd3 <func_58+0x2daf>
   12cce:	b8 00 00 00 00       	mov    $0x0,%eax
   12cd3:	48 98                	cltq   
   12cd5:	48 be 11 e2 8c e4 80 	movabs $0x1db49f80e48ce211,%rsi
   12cdc:	9f b4 1d 
   12cdf:	48 89 c7             	mov    %rax,%rdi
   12ce2:	e8 5a 9b ff ff       	callq  c841 <safe_add_func_int64_t_s_s>
   12ce7:	0f b6 d0             	movzbl %al,%edx
   12cea:	48 8b 85 40 df ff ff 	mov    -0x20c0(%rbp),%rax
   12cf1:	48 8b 00             	mov    (%rax),%rax
   12cf4:	48 39 85 98 e2 ff ff 	cmp    %rax,-0x1d68(%rbp)
   12cfb:	0f 94 c0             	sete   %al
   12cfe:	0f b6 c0             	movzbl %al,%eax
   12d01:	89 d6                	mov    %edx,%esi
   12d03:	89 c7                	mov    %eax,%edi
   12d05:	e8 89 9e ff ff       	callq  cb93 <safe_mul_func_uint8_t_u_u>
   12d0a:	0f b6 c0             	movzbl %al,%eax
   12d0d:	89 de                	mov    %ebx,%esi
   12d0f:	89 c7                	mov    %eax,%edi
   12d11:	e8 78 a0 ff ff       	callq  cd8e <safe_div_func_uint16_t_u_u>
   12d16:	8b 95 e8 de ff ff    	mov    -0x2118(%rbp),%edx
   12d1c:	8b 85 c0 de ff ff    	mov    -0x2140(%rbp),%eax
   12d22:	09 d0                	or     %edx,%eax
   12d24:	89 85 c0 de ff ff    	mov    %eax,-0x2140(%rbp)
   12d2a:	66 83 bd cc dd ff ff 	cmpw   $0x0,-0x2234(%rbp)
   12d31:	00 
   12d32:	0f b7 85 cc dd ff ff 	movzwl -0x2234(%rbp),%eax
   12d39:	48 be a8 19 9f 70 41 	movabs $0x66a4da41709f19a8,%rsi
   12d40:	da a4 66 
   12d43:	48 89 c7             	mov    %rax,%rdi
   12d46:	e8 5d 9b ff ff       	callq  c8a8 <safe_sub_func_int64_t_s_s>
   12d4b:	48 89 c2             	mov    %rax,%rdx
   12d4e:	48 8b 05 9b af 00 00 	mov    0xaf9b(%rip),%rax        # 1dcf0 <g_1174>
   12d55:	48 8b 00             	mov    (%rax),%rax
   12d58:	48 8b 00             	mov    (%rax),%rax
   12d5b:	8b 08                	mov    (%rax),%ecx
   12d5d:	09 ca                	or     %ecx,%edx
   12d5f:	89 10                	mov    %edx,(%rax)
   12d61:	c7 85 10 de ff ff 00 	movl   $0x0,-0x21f0(%rbp)
   12d68:	00 00 00 
   12d6b:	e9 1b 01 00 00       	jmpq   12e8b <func_58+0x2f67>
   12d70:	48 c7 85 c0 e2 ff ff 	movq   $0x0,-0x1d40(%rbp)
   12d77:	00 00 00 00 
   12d7b:	c7 85 f0 de ff ff 01 	movl   $0x1,-0x2110(%rbp)
   12d82:	00 00 00 
   12d85:	c7 85 f4 de ff ff 02 	movl   $0x2,-0x210c(%rbp)
   12d8c:	00 00 00 
   12d8f:	c7 85 f8 de ff ff e2 	movl   $0x2e5ed6e2,-0x2108(%rbp)
   12d96:	d6 5e 2e 
   12d99:	c7 85 fc de ff ff 01 	movl   $0x1,-0x2104(%rbp)
   12da0:	00 00 00 
   12da3:	c7 85 00 df ff ff bd 	movl   $0x47cf6ebd,-0x2100(%rbp)
   12daa:	6e cf 47 
   12dad:	48 8d 85 90 f0 ff ff 	lea    -0xf70(%rbp),%rax
   12db4:	48 8d 15 05 4f 00 00 	lea    0x4f05(%rip),%rdx        # 17cc0 <g_3452+0xc58>
   12dbb:	b9 60 00 00 00       	mov    $0x60,%ecx
   12dc0:	48 89 c7             	mov    %rax,%rdi
   12dc3:	48 89 d6             	mov    %rdx,%rsi
   12dc6:	f3 48 a5             	rep movsq %ds:(%rsi),%es:(%rdi)
   12dc9:	48 c7 85 60 e4 ff ff 	movq   $0x0,-0x1ba0(%rbp)
   12dd0:	00 00 00 00 
   12dd4:	48 b8 7a 33 25 8b ea 	movabs $0x33a6e1ea8b25337a,%rax
   12ddb:	e1 a6 33 
   12dde:	48 89 85 68 e4 ff ff 	mov    %rax,-0x1b98(%rbp)
   12de5:	48 c7 85 70 e4 ff ff 	movq   $0x0,-0x1b90(%rbp)
   12dec:	00 00 00 00 
   12df0:	48 89 85 78 e4 ff ff 	mov    %rax,-0x1b88(%rbp)
   12df7:	48 c7 85 80 e4 ff ff 	movq   $0x0,-0x1b80(%rbp)
   12dfe:	00 00 00 00 
   12e02:	48 89 85 88 e4 ff ff 	mov    %rax,-0x1b78(%rbp)
   12e09:	48 c7 85 90 e4 ff ff 	movq   $0x0,-0x1b70(%rbp)
   12e10:	00 00 00 00 
   12e14:	48 89 85 98 e4 ff ff 	mov    %rax,-0x1b68(%rbp)
   12e1b:	48 c7 85 a0 e4 ff ff 	movq   $0x0,-0x1b60(%rbp)
   12e22:	00 00 00 00 
   12e26:	48 8d 85 10 ec ff ff 	lea    -0x13f0(%rbp),%rax
   12e2d:	48 05 98 00 00 00    	add    $0x98,%rax
   12e33:	48 89 85 c8 e2 ff ff 	mov    %rax,-0x1d38(%rbp)
   12e3a:	48 8d 05 9f d7 00 00 	lea    0xd79f(%rip),%rax        # 205e0 <g_2935>
   12e41:	48 89 85 d0 e2 ff ff 	mov    %rax,-0x1d30(%rbp)
   12e48:	48 8d 05 31 d7 00 00 	lea    0xd731(%rip),%rax        # 20580 <g_577>
   12e4f:	48 89 85 d8 e2 ff ff 	mov    %rax,-0x1d28(%rbp)
   12e56:	0f b6 85 d5 dd ff ff 	movzbl -0x222b(%rbp),%eax
   12e5d:	83 e8 01             	sub    $0x1,%eax
   12e60:	88 85 d5 dd ff ff    	mov    %al,-0x222b(%rbp)
   12e66:	48 8b 05 8b ae 00 00 	mov    0xae8b(%rip),%rax        # 1dcf8 <g_1173>
   12e6d:	48 8b 00             	mov    (%rax),%rax
   12e70:	48 8b 00             	mov    (%rax),%rax
   12e73:	48 8b 00             	mov    (%rax),%rax
   12e76:	c7 00 01 00 00 00    	movl   $0x1,(%rax)
   12e7c:	8b 85 10 de ff ff    	mov    -0x21f0(%rbp),%eax
   12e82:	83 c0 01             	add    $0x1,%eax
   12e85:	89 85 10 de ff ff    	mov    %eax,-0x21f0(%rbp)
   12e8b:	8b 85 10 de ff ff    	mov    -0x21f0(%rbp),%eax
   12e91:	85 c0                	test   %eax,%eax
   12e93:	0f 88 d7 fe ff ff    	js     12d70 <func_58+0x2e4c>
   12e99:	c6 05 88 d6 00 00 05 	movb   $0x5,0xd688(%rip)        # 20528 <g_149>
   12ea0:	eb 62                	jmp    12f04 <func_58+0x2fe0>
   12ea2:	c6 85 e9 dd ff ff be 	movb   $0xbe,-0x2217(%rbp)
   12ea9:	48 8d 85 90 f0 ff ff 	lea    -0xf70(%rbp),%rax
   12eb0:	48 8d 15 29 9c 00 00 	lea    0x9c29(%rip),%rdx        # 1cae0 <g_3870+0x1328>
   12eb7:	b9 24 00 00 00       	mov    $0x24,%ecx
   12ebc:	48 89 c7             	mov    %rax,%rdi
   12ebf:	48 89 d6             	mov    %rdx,%rsi
   12ec2:	f3 48 a5             	rep movsq %ds:(%rsi),%es:(%rdi)
   12ec5:	c7 85 28 de ff ff 00 	movl   $0x0,-0x21d8(%rbp)
   12ecc:	00 00 00 
   12ecf:	eb 1a                	jmp    12eeb <func_58+0x2fc7>
   12ed1:	8b 85 28 de ff ff    	mov    -0x21d8(%rbp),%eax
   12ed7:	48 98                	cltq   
   12ed9:	c7 84 85 60 e4 ff ff 	movl   $0x3,-0x1ba0(%rbp,%rax,4)
   12ee0:	03 00 00 00 
   12ee4:	83 85 28 de ff ff 01 	addl   $0x1,-0x21d8(%rbp)
   12eeb:	83 bd 28 de ff ff 04 	cmpl   $0x4,-0x21d8(%rbp)
   12ef2:	7e dd                	jle    12ed1 <func_58+0x2fad>
   12ef4:	0f b6 05 2d d6 00 00 	movzbl 0xd62d(%rip),%eax        # 20528 <g_149>
   12efb:	83 e8 01             	sub    $0x1,%eax
   12efe:	88 05 24 d6 00 00    	mov    %al,0xd624(%rip)        # 20528 <g_149>
   12f04:	0f b6 05 1d d6 00 00 	movzbl 0xd61d(%rip),%eax        # 20528 <g_149>
   12f0b:	84 c0                	test   %al,%al
   12f0d:	79 93                	jns    12ea2 <func_58+0x2f7e>
   12f0f:	0f b7 85 cc dd ff ff 	movzwl -0x2234(%rbp),%eax
   12f16:	0f b6 d8             	movzbl %al,%ebx
   12f19:	48 8b 05 a8 bf 00 00 	mov    0xbfa8(%rip),%rax        # 1eec8 <g_1712>
   12f20:	0f b6 10             	movzbl (%rax),%edx
   12f23:	48 8b 85 30 e2 ff ff 	mov    -0x1dd0(%rbp),%rax
   12f2a:	8b 00                	mov    (%rax),%eax
   12f2c:	85 c0                	test   %eax,%eax
   12f2e:	0f 94 c0             	sete   %al
   12f31:	89 c1                	mov    %eax,%ecx
   12f33:	48 8b 05 8e bf 00 00 	mov    0xbf8e(%rip),%rax        # 1eec8 <g_1712>
   12f3a:	09 ca                	or     %ecx,%edx
   12f3c:	88 10                	mov    %dl,(%rax)
   12f3e:	0f b6 00             	movzbl (%rax),%eax
   12f41:	41 89 c6             	mov    %eax,%r14d
   12f44:	48 8b 85 30 e2 ff ff 	mov    -0x1dd0(%rbp),%rax
   12f4b:	8b 00                	mov    (%rax),%eax
   12f4d:	41 89 c5             	mov    %eax,%r13d
   12f50:	48 8b 05 a9 ad 00 00 	mov    0xada9(%rip),%rax        # 1dd00 <g_1172>
   12f57:	48 8b 00             	mov    (%rax),%rax
   12f5a:	48 8b 00             	mov    (%rax),%rax
   12f5d:	48 85 c0             	test   %rax,%rax
   12f60:	41 0f 95 c7          	setne  %r15b
   12f64:	48 8b 85 28 df ff ff 	mov    -0x20d8(%rbp),%rax
   12f6b:	0f b7 95 cc dd ff ff 	movzwl -0x2234(%rbp),%edx
   12f72:	89 10                	mov    %edx,(%rax)
   12f74:	8b 00                	mov    (%rax),%eax
   12f76:	85 c0                	test   %eax,%eax
   12f78:	74 5b                	je     12fd5 <func_58+0x30b1>
   12f7a:	48 8b 85 28 df ff ff 	mov    -0x20d8(%rbp),%rax
   12f81:	0f b7 95 cc dd ff ff 	movzwl -0x2234(%rbp),%edx
   12f88:	89 10                	mov    %edx,(%rax)
   12f8a:	44 8b 20             	mov    (%rax),%r12d
   12f8d:	0f b7 95 cc dd ff ff 	movzwl -0x2234(%rbp),%edx
   12f94:	48 8b 05 25 9e 00 00 	mov    0x9e25(%rip),%rax        # 1cdc0 <g_219>
   12f9b:	48 8b 00             	mov    (%rax),%rax
   12f9e:	8b 00                	mov    (%rax),%eax
   12fa0:	85 c0                	test   %eax,%eax
   12fa2:	74 11                	je     12fb5 <func_58+0x3091>
   12fa4:	66 83 bd cc dd ff ff 	cmpw   $0x1,-0x2234(%rbp)
   12fab:	01 
   12fac:	74 07                	je     12fb5 <func_58+0x3091>
   12fae:	b8 01 00 00 00       	mov    $0x1,%eax
   12fb3:	eb 05                	jmp    12fba <func_58+0x3096>
   12fb5:	b8 00 00 00 00       	mov    $0x0,%eax
   12fba:	0f b6 c0             	movzbl %al,%eax
   12fbd:	89 d6                	mov    %edx,%esi
   12fbf:	89 c7                	mov    %eax,%edi
   12fc1:	e8 f8 9c ff ff       	callq  ccbe <safe_rshift_func_uint8_t_u_u>
   12fc6:	0f b6 c0             	movzbl %al,%eax
   12fc9:	41 39 c4             	cmp    %eax,%r12d
   12fcc:	7f 07                	jg     12fd5 <func_58+0x30b1>
   12fce:	b8 01 00 00 00       	mov    $0x1,%eax
   12fd3:	eb 05                	jmp    12fda <func_58+0x30b6>
   12fd5:	b8 00 00 00 00       	mov    $0x0,%eax
   12fda:	83 e0 01             	and    $0x1,%eax
   12fdd:	44 31 f8             	xor    %r15d,%eax
   12fe0:	0f b6 c0             	movzbl %al,%eax
   12fe3:	44 89 ee             	mov    %r13d,%esi
   12fe6:	89 c7                	mov    %eax,%edi
   12fe8:	e8 38 9f ff ff       	callq  cf25 <safe_div_func_uint32_t_u_u>
   12fed:	44 21 f0             	and    %r14d,%eax
   12ff0:	0f b6 c0             	movzbl %al,%eax
   12ff3:	89 de                	mov    %ebx,%esi
   12ff5:	89 c7                	mov    %eax,%edi
   12ff7:	e8 7c 9b ff ff       	callq  cb78 <safe_sub_func_uint8_t_u_u>
   12ffc:	0f b6 d0             	movzbl %al,%edx
   12fff:	48 8b 85 30 e2 ff ff 	mov    -0x1dd0(%rbp),%rax
   13006:	8b 00                	mov    (%rax),%eax
   13008:	39 c2                	cmp    %eax,%edx
   1300a:	0f 95 c0             	setne  %al
   1300d:	0f b6 c0             	movzbl %al,%eax
   13010:	31 85 d8 de ff ff    	xor    %eax,-0x2128(%rbp)
   13016:	e9 cc 0e 00 00       	jmpq   13ee7 <func_58+0x3fc3>
   1301b:	48 c7 85 a0 e1 ff ff 	movq   $0x0,-0x1e60(%rbp)
   13022:	00 00 00 00 
   13026:	48 c7 85 a8 e1 ff ff 	movq   $0x0,-0x1e58(%rbp)
   1302d:	00 00 00 00 
   13031:	48 c7 85 b0 e1 ff ff 	movq   $0x0,-0x1e50(%rbp)
   13038:	00 00 00 00 
   1303c:	48 8d 85 20 e3 ff ff 	lea    -0x1ce0(%rbp),%rax
   13043:	48 83 c0 08          	add    $0x8,%rax
   13047:	48 89 85 68 df ff ff 	mov    %rax,-0x2098(%rbp)
   1304e:	c7 85 d0 e5 ff ff 08 	movl   $0x8,-0x1a30(%rbp)
   13055:	00 00 00 
   13058:	c7 85 d4 e5 ff ff ff 	movl   $0xffffffff,-0x1a2c(%rbp)
   1305f:	ff ff ff 
   13062:	c7 85 d8 e5 ff ff ff 	movl   $0xffffffff,-0x1a28(%rbp)
   13069:	ff ff ff 
   1306c:	c7 85 dc e5 ff ff 08 	movl   $0x8,-0x1a24(%rbp)
   13073:	00 00 00 
   13076:	c7 85 e0 e5 ff ff ff 	movl   $0xffffffff,-0x1a20(%rbp)
   1307d:	ff ff ff 
   13080:	c7 85 e4 e5 ff ff ff 	movl   $0xffffffff,-0x1a1c(%rbp)
   13087:	ff ff ff 
   1308a:	c7 85 e8 e5 ff ff 08 	movl   $0x8,-0x1a18(%rbp)
   13091:	00 00 00 
   13094:	c7 85 ec e5 ff ff ff 	movl   $0xffffffff,-0x1a14(%rbp)
   1309b:	ff ff ff 
   1309e:	c7 85 f0 e5 ff ff 08 	movl   $0x8,-0x1a10(%rbp)
   130a5:	00 00 00 
   130a8:	c7 85 f4 e5 ff ff ff 	movl   $0xffffffff,-0x1a0c(%rbp)
   130af:	ff ff ff 
   130b2:	c7 85 f8 e5 ff ff ff 	movl   $0xffffffff,-0x1a08(%rbp)
   130b9:	ff ff ff 
   130bc:	c7 85 fc e5 ff ff 08 	movl   $0x8,-0x1a04(%rbp)
   130c3:	00 00 00 
   130c6:	c7 85 00 e6 ff ff ff 	movl   $0xffffffff,-0x1a00(%rbp)
   130cd:	ff ff ff 
   130d0:	c7 85 04 e6 ff ff ff 	movl   $0xffffffff,-0x19fc(%rbp)
   130d7:	ff ff ff 
   130da:	c7 85 08 e6 ff ff 08 	movl   $0x8,-0x19f8(%rbp)
   130e1:	00 00 00 
   130e4:	c7 85 0c e6 ff ff 08 	movl   $0x8,-0x19f4(%rbp)
   130eb:	00 00 00 
   130ee:	c7 85 10 e6 ff ff 08 	movl   $0x8,-0x19f0(%rbp)
   130f5:	00 00 00 
   130f8:	c7 85 14 e6 ff ff 08 	movl   $0x8,-0x19ec(%rbp)
   130ff:	00 00 00 
   13102:	c7 85 18 e6 ff ff 08 	movl   $0x8,-0x19e8(%rbp)
   13109:	00 00 00 
   1310c:	c7 85 1c e6 ff ff 08 	movl   $0x8,-0x19e4(%rbp)
   13113:	00 00 00 
   13116:	c7 85 20 e6 ff ff 08 	movl   $0x8,-0x19e0(%rbp)
   1311d:	00 00 00 
   13120:	c7 85 24 e6 ff ff 08 	movl   $0x8,-0x19dc(%rbp)
   13127:	00 00 00 
   1312a:	c7 85 28 e6 ff ff ff 	movl   $0xffffffff,-0x19d8(%rbp)
   13131:	ff ff ff 
   13134:	c7 85 2c e6 ff ff ff 	movl   $0xffffffff,-0x19d4(%rbp)
   1313b:	ff ff ff 
   1313e:	c7 85 30 e6 ff ff 08 	movl   $0x8,-0x19d0(%rbp)
   13145:	00 00 00 
   13148:	c7 85 34 e6 ff ff ff 	movl   $0xffffffff,-0x19cc(%rbp)
   1314f:	ff ff ff 
   13152:	c7 85 38 e6 ff ff 08 	movl   $0x8,-0x19c8(%rbp)
   13159:	00 00 00 
   1315c:	c7 85 3c e6 ff ff ff 	movl   $0xffffffff,-0x19c4(%rbp)
   13163:	ff ff ff 
   13166:	c7 85 2c de ff ff 06 	movl   $0x6,-0x21d4(%rbp)
   1316d:	00 00 00 
   13170:	48 c7 85 b8 e1 ff ff 	movq   $0x0,-0x1e48(%rbp)
   13177:	00 00 00 00 
   1317b:	c6 85 e4 dd ff ff 53 	movb   $0x53,-0x221c(%rbp)
   13182:	48 c7 85 c0 e1 ff ff 	movq   $0x0,-0x1e40(%rbp)
   13189:	00 00 00 00 
   1318d:	66 c7 85 fc dd ff ff 	movw   $0xffff,-0x2204(%rbp)
   13194:	ff ff 
   13196:	c7 85 30 de ff ff 00 	movl   $0x0,-0x21d0(%rbp)
   1319d:	00 00 00 
   131a0:	eb 1b                	jmp    131bd <func_58+0x3299>
   131a2:	8b 85 30 de ff ff    	mov    -0x21d0(%rbp),%eax
   131a8:	48 98                	cltq   
   131aa:	48 c7 84 c5 60 e4 ff 	movq   $0x0,-0x1ba0(%rbp,%rax,8)
   131b1:	ff 00 00 00 00 
   131b6:	83 85 30 de ff ff 01 	addl   $0x1,-0x21d0(%rbp)
   131bd:	83 bd 30 de ff ff 00 	cmpl   $0x0,-0x21d0(%rbp)
   131c4:	7e dc                	jle    131a2 <func_58+0x327e>
   131c6:	c7 85 30 de ff ff 00 	movl   $0x0,-0x21d0(%rbp)
   131cd:	00 00 00 
   131d0:	eb 51                	jmp    13223 <func_58+0x32ff>
   131d2:	c7 85 18 de ff ff 00 	movl   $0x0,-0x21e8(%rbp)
   131d9:	00 00 00 
   131dc:	eb 35                	jmp    13213 <func_58+0x32ef>
   131de:	8b 85 18 de ff ff    	mov    -0x21e8(%rbp),%eax
   131e4:	48 63 c8             	movslq %eax,%rcx
   131e7:	8b 85 30 de ff ff    	mov    -0x21d0(%rbp),%eax
   131ed:	48 63 d0             	movslq %eax,%rdx
   131f0:	48 89 d0             	mov    %rdx,%rax
   131f3:	48 c1 e0 02          	shl    $0x2,%rax
   131f7:	48 01 d0             	add    %rdx,%rax
   131fa:	48 01 c8             	add    %rcx,%rax
   131fd:	48 8d 15 34 bd 00 00 	lea    0xbd34(%rip),%rdx        # 1ef38 <g_2490>
   13204:	48 89 94 c5 10 ec ff 	mov    %rdx,-0x13f0(%rbp,%rax,8)
   1320b:	ff 
   1320c:	83 85 18 de ff ff 01 	addl   $0x1,-0x21e8(%rbp)
   13213:	83 bd 18 de ff ff 04 	cmpl   $0x4,-0x21e8(%rbp)
   1321a:	7e c2                	jle    131de <func_58+0x32ba>
   1321c:	83 85 30 de ff ff 01 	addl   $0x1,-0x21d0(%rbp)
   13223:	83 bd 30 de ff ff 02 	cmpl   $0x2,-0x21d0(%rbp)
   1322a:	7e a6                	jle    131d2 <func_58+0x32ae>
   1322c:	90                   	nop
   1322d:	48 83 85 80 df ff ff 	addq   $0x1,-0x2080(%rbp)
   13234:	01 
   13235:	66 83 bd cc dd ff ff 	cmpw   $0x0,-0x2234(%rbp)
   1323c:	00 
   1323d:	0f 84 93 0b 00 00    	je     13dd6 <func_58+0x3eb2>
   13243:	48 8d 05 76 d3 00 00 	lea    0xd376(%rip),%rax        # 205c0 <g_1656>
   1324a:	48 89 85 70 df ff ff 	mov    %rax,-0x2090(%rbp)
   13251:	48 8d 85 70 df ff ff 	lea    -0x2090(%rbp),%rax
   13258:	48 89 85 b0 e4 ff ff 	mov    %rax,-0x1b50(%rbp)
   1325f:	48 8d 85 70 df ff ff 	lea    -0x2090(%rbp),%rax
   13266:	48 89 85 b8 e4 ff ff 	mov    %rax,-0x1b48(%rbp)
   1326d:	48 8d 85 70 df ff ff 	lea    -0x2090(%rbp),%rax
   13274:	48 89 85 c0 e4 ff ff 	mov    %rax,-0x1b40(%rbp)
   1327b:	48 8d 85 70 df ff ff 	lea    -0x2090(%rbp),%rax
   13282:	48 89 85 c8 e4 ff ff 	mov    %rax,-0x1b38(%rbp)
   13289:	48 8d 85 70 df ff ff 	lea    -0x2090(%rbp),%rax
   13290:	48 89 85 d0 e4 ff ff 	mov    %rax,-0x1b30(%rbp)
   13297:	48 8d 85 70 df ff ff 	lea    -0x2090(%rbp),%rax
   1329e:	48 89 85 d8 e4 ff ff 	mov    %rax,-0x1b28(%rbp)
   132a5:	48 8d 85 70 df ff ff 	lea    -0x2090(%rbp),%rax
   132ac:	48 89 85 e0 e4 ff ff 	mov    %rax,-0x1b20(%rbp)
   132b3:	48 8d 85 70 df ff ff 	lea    -0x2090(%rbp),%rax
   132ba:	48 89 85 e8 e4 ff ff 	mov    %rax,-0x1b18(%rbp)
   132c1:	48 8d 85 10 ec ff ff 	lea    -0x13f0(%rbp),%rax
   132c8:	48 83 c0 30          	add    $0x30,%rax
   132cc:	48 89 85 d0 e1 ff ff 	mov    %rax,-0x1e30(%rbp)
   132d3:	c7 85 a8 de ff ff ea 	movl   $0xb41dbea,-0x2158(%rbp)
   132da:	db 41 0b 
   132dd:	c6 85 e5 dd ff ff ff 	movb   $0xff,-0x221b(%rbp)
   132e4:	c7 85 14 de ff ff 36 	movl   $0x27a6e536,-0x21ec(%rbp)
   132eb:	e5 a6 27 
   132ee:	66 83 bd cc dd ff ff 	cmpw   $0x0,-0x2234(%rbp)
   132f5:	00 
   132f6:	75 0f                	jne    13307 <func_58+0x33e3>
   132f8:	48 8b 05 d9 a9 00 00 	mov    0xa9d9(%rip),%rax        # 1dcd8 <g_1148>
   132ff:	48 8b 00             	mov    (%rax),%rax
   13302:	0f b6 00             	movzbl (%rax),%eax
   13305:	84 c0                	test   %al,%al
   13307:	48 8b 8d e8 e4 ff ff 	mov    -0x1b18(%rbp),%rcx
   1330e:	48 8b 95 40 ec ff ff 	mov    -0x13c0(%rbp),%rdx
   13315:	48 8b 85 d0 e1 ff ff 	mov    -0x1e30(%rbp),%rax
   1331c:	48 89 10             	mov    %rdx,(%rax)
   1331f:	48 8b 85 d0 e1 ff ff 	mov    -0x1e30(%rbp),%rax
   13326:	48 8b 00             	mov    (%rax),%rax
   13329:	48 39 c1             	cmp    %rax,%rcx
   1332c:	0f 85 6e 0a 00 00    	jne    13da0 <func_58+0x3e7c>
   13332:	c7 85 ac de ff ff 01 	movl   $0x1,-0x2154(%rbp)
   13339:	00 00 00 
   1333c:	48 8d 45 be          	lea    -0x42(%rbp),%rax
   13340:	48 83 c0 07          	add    $0x7,%rax
   13344:	48 89 85 d8 e1 ff ff 	mov    %rax,-0x1e28(%rbp)
   1334b:	48 8d 85 40 e3 ff ff 	lea    -0x1cc0(%rbp),%rax
   13352:	48 83 c0 17          	add    $0x17,%rax
   13356:	48 89 85 e0 e1 ff ff 	mov    %rax,-0x1e20(%rbp)
   1335d:	c7 85 b0 de ff ff b0 	movl   $0xc018c5b0,-0x2150(%rbp)
   13364:	c5 18 c0 
   13367:	c7 85 b4 de ff ff c8 	movl   $0x8616edc8,-0x214c(%rbp)
   1336e:	ed 16 86 
   13371:	48 8d 85 68 df ff ff 	lea    -0x2098(%rbp),%rax
   13378:	48 89 85 e8 e1 ff ff 	mov    %rax,-0x1e18(%rbp)
   1337f:	48 8d 05 32 9a 00 00 	lea    0x9a32(%rip),%rax        # 1cdb8 <g_220>
   13386:	48 89 85 f0 e1 ff ff 	mov    %rax,-0x1e10(%rbp)
   1338d:	0f b7 85 cc dd ff ff 	movzwl -0x2234(%rbp),%eax
   13394:	83 e8 01             	sub    $0x1,%eax
   13397:	66 89 85 cc dd ff ff 	mov    %ax,-0x2234(%rbp)
   1339e:	8b 9d ac de ff ff    	mov    -0x2154(%rbp),%ebx
   133a4:	44 0f b7 a5 cc dd ff 	movzwl -0x2234(%rbp),%r12d
   133ab:	ff 
   133ac:	48 8b 85 d8 e1 ff ff 	mov    -0x1e28(%rbp),%rax
   133b3:	0f b6 00             	movzbl (%rax),%eax
   133b6:	83 e0 08             	and    $0x8,%eax
   133b9:	89 c2                	mov    %eax,%edx
   133bb:	48 8b 85 d8 e1 ff ff 	mov    -0x1e28(%rbp),%rax
   133c2:	88 10                	mov    %dl,(%rax)
   133c4:	48 8b 85 d8 e1 ff ff 	mov    -0x1e28(%rbp),%rax
   133cb:	0f b6 00             	movzbl (%rax),%eax
   133ce:	0f be c0             	movsbl %al,%eax
   133d1:	be 00 00 00 00       	mov    $0x0,%esi
   133d6:	89 c7                	mov    %eax,%edi
   133d8:	e8 11 8f ff ff       	callq  c2ee <safe_lshift_func_int8_t_s_u>
   133dd:	89 c1                	mov    %eax,%ecx
   133df:	48 8b 85 e0 e1 ff ff 	mov    -0x1e20(%rbp),%rax
   133e6:	0f b6 00             	movzbl (%rax),%eax
   133e9:	66 83 bd cc dd ff ff 	cmpw   $0x0,-0x2234(%rbp)
   133f0:	00 
   133f1:	0f 94 c2             	sete   %dl
   133f4:	21 c2                	and    %eax,%edx
   133f6:	48 8b 85 e0 e1 ff ff 	mov    -0x1e20(%rbp),%rax
   133fd:	88 10                	mov    %dl,(%rax)
   133ff:	48 8b 85 e0 e1 ff ff 	mov    -0x1e20(%rbp),%rax
   13406:	0f b6 00             	movzbl (%rax),%eax
   13409:	31 c8                	xor    %ecx,%eax
   1340b:	0f be c0             	movsbl %al,%eax
   1340e:	44 89 e6             	mov    %r12d,%esi
   13411:	89 c7                	mov    %eax,%edi
   13413:	e8 12 91 ff ff       	callq  c52a <safe_rshift_func_int16_t_s_s>
   13418:	98                   	cwtl   
   13419:	89 de                	mov    %ebx,%esi
   1341b:	89 c7                	mov    %eax,%edi
   1341d:	e8 70 90 ff ff       	callq  c492 <safe_lshift_func_int16_t_s_s>
   13422:	0f b7 c0             	movzwl %ax,%eax
   13425:	8b 95 2c de ff ff    	mov    -0x21d4(%rbp),%edx
   1342b:	89 d6                	mov    %edx,%esi
   1342d:	89 c7                	mov    %eax,%edi
   1342f:	e8 46 9a ff ff       	callq  ce7a <safe_rshift_func_uint16_t_u_u>
   13434:	0f b7 d0             	movzwl %ax,%edx
   13437:	0f b7 85 cc dd ff ff 	movzwl -0x2234(%rbp),%eax
   1343e:	48 89 d6             	mov    %rdx,%rsi
   13441:	48 89 c7             	mov    %rax,%rdi
   13444:	e8 e5 9b ff ff       	callq  d02e <safe_add_func_uint64_t_u_u>
   13449:	0f be d0             	movsbl %al,%edx
   1344c:	48 8b 05 75 ba 00 00 	mov    0xba75(%rip),%rax        # 1eec8 <g_1712>
   13453:	0f b6 00             	movzbl (%rax),%eax
   13456:	0f be c0             	movsbl %al,%eax
   13459:	89 d6                	mov    %edx,%esi
   1345b:	89 c7                	mov    %eax,%edi
   1345d:	e8 72 8d ff ff       	callq  c1d4 <safe_add_func_int8_t_s_s>
   13462:	0f be d0             	movsbl %al,%edx
   13465:	66 83 bd cc dd ff ff 	cmpw   $0x0,-0x2234(%rbp)
   1346c:	00 
   1346d:	74 11                	je     13480 <func_58+0x355c>
   1346f:	8b 05 6f 52 00 00    	mov    0x526f(%rip),%eax        # 186e4 <l_3600.4774+0x4>
   13475:	85 c0                	test   %eax,%eax
   13477:	74 07                	je     13480 <func_58+0x355c>
   13479:	b8 01 00 00 00       	mov    $0x1,%eax
   1347e:	eb 05                	jmp    13485 <func_58+0x3561>
   13480:	b8 00 00 00 00       	mov    $0x0,%eax
   13485:	98                   	cwtl   
   13486:	89 d6                	mov    %edx,%esi
   13488:	89 c7                	mov    %eax,%edi
   1348a:	e8 24 8f ff ff       	callq  c3b3 <safe_add_func_int16_t_s_s>
   1348f:	0f bf d0             	movswl %ax,%edx
   13492:	8b 05 4c 52 00 00    	mov    0x524c(%rip),%eax        # 186e4 <l_3600.4774+0x4>
   13498:	39 c2                	cmp    %eax,%edx
   1349a:	0f 9c c0             	setl   %al
   1349d:	89 c2                	mov    %eax,%edx
   1349f:	8b 85 a8 de ff ff    	mov    -0x2158(%rbp),%eax
   134a5:	09 d0                	or     %edx,%eax
   134a7:	83 f0 6a             	xor    $0x6a,%eax
   134aa:	0f be c0             	movsbl %al,%eax
   134ad:	be 6f 00 00 00       	mov    $0x6f,%esi
   134b2:	89 c7                	mov    %eax,%edi
   134b4:	e8 59 8d ff ff       	callq  c212 <safe_mul_func_int8_t_s_s>
   134b9:	66 0f be d0          	movsbw %al,%dx
   134bd:	0f b7 85 cc dd ff ff 	movzwl -0x2234(%rbp),%eax
   134c4:	31 d0                	xor    %edx,%eax
   134c6:	0f b7 d0             	movzwl %ax,%edx
   134c9:	8b 85 ac de ff ff    	mov    -0x2154(%rbp),%eax
   134cf:	0f b7 c0             	movzwl %ax,%eax
   134d2:	89 d6                	mov    %edx,%esi
   134d4:	89 c7                	mov    %eax,%edi
   134d6:	e8 24 98 ff ff       	callq  ccff <safe_add_func_uint16_t_u_u>
   134db:	48 8b 95 28 df ff ff 	mov    -0x20d8(%rbp),%rdx
   134e2:	8b 0a                	mov    (%rdx),%ecx
   134e4:	0f b7 d0             	movzwl %ax,%edx
   134e7:	48 8b 85 28 df ff ff 	mov    -0x20d8(%rbp),%rax
   134ee:	21 ca                	and    %ecx,%edx
   134f0:	89 10                	mov    %edx,(%rax)
   134f2:	8b 00                	mov    (%rax),%eax
   134f4:	85 c0                	test   %eax,%eax
   134f6:	0f 84 9c 05 00 00    	je     13a98 <func_58+0x3b74>
   134fc:	48 8d 05 51 7b 00 00 	lea    0x7b51(%rip),%rax        # 1b054 <g_65+0x14>
   13503:	48 89 85 00 e2 ff ff 	mov    %rax,-0x1e00(%rbp)
   1350a:	48 c7 05 6b 7e 00 00 	movq   $0x0,0x7e6b(%rip)        # 1b380 <g_340>
   13511:	00 00 00 00 
   13515:	eb 79                	jmp    13590 <func_58+0x366c>
   13517:	48 8b 05 c2 98 00 00 	mov    0x98c2(%rip),%rax        # 1cde0 <g_284>
   1351e:	48 8b 95 00 e2 ff ff 	mov    -0x1e00(%rbp),%rdx
   13525:	48 89 10             	mov    %rdx,(%rax)
   13528:	8b 85 ac de ff ff    	mov    -0x2154(%rbp),%eax
   1352e:	0f be c0             	movsbl %al,%eax
   13531:	be 04 00 00 00       	mov    $0x4,%esi
   13536:	89 c7                	mov    %eax,%edi
   13538:	e8 2f 8e ff ff       	callq  c36c <safe_rshift_func_int8_t_s_u>
   1353d:	48 8b 95 00 e2 ff ff 	mov    -0x1e00(%rbp),%rdx
   13544:	8b 12                	mov    (%rdx),%edx
   13546:	0f be c0             	movsbl %al,%eax
   13549:	31 c2                	xor    %eax,%edx
   1354b:	48 8b 85 00 e2 ff ff 	mov    -0x1e00(%rbp),%rax
   13552:	89 10                	mov    %edx,(%rax)
   13554:	48 8b 05 5d 98 00 00 	mov    0x985d(%rip),%rax        # 1cdb8 <g_220>
   1355b:	8b 00                	mov    (%rax),%eax
   1355d:	85 c0                	test   %eax,%eax
   1355f:	75 42                	jne    135a3 <func_58+0x367f>
   13561:	8b 05 61 7f 00 00    	mov    0x7f61(%rip),%eax        # 1b4c8 <g_713>
   13567:	85 c0                	test   %eax,%eax
   13569:	74 05                	je     13570 <func_58+0x364c>
   1356b:	e9 bd fc ff ff       	jmpq   1322d <func_58+0x3309>
   13570:	48 8b 05 09 7e 00 00 	mov    0x7e09(%rip),%rax        # 1b380 <g_340>
   13577:	0f b7 c0             	movzwl %ax,%eax
   1357a:	be 02 00 00 00       	mov    $0x2,%esi
   1357f:	89 c7                	mov    %eax,%edi
   13581:	e8 79 97 ff ff       	callq  ccff <safe_add_func_uint16_t_u_u>
   13586:	0f b7 c0             	movzwl %ax,%eax
   13589:	48 89 05 f0 7d 00 00 	mov    %rax,0x7df0(%rip)        # 1b380 <g_340>
   13590:	48 8b 05 e9 7d 00 00 	mov    0x7de9(%rip),%rax        # 1b380 <g_340>
   13597:	48 83 f8 26          	cmp    $0x26,%rax
   1359b:	0f 84 76 ff ff ff    	je     13517 <func_58+0x35f3>
   135a1:	eb 01                	jmp    135a4 <func_58+0x3680>
   135a3:	90                   	nop
   135a4:	83 bd a8 de ff ff 00 	cmpl   $0x0,-0x2158(%rbp)
   135ab:	90                   	nop
   135ac:	f3 0f 1e fa          	endbr64 
   135b0:	48 c7 85 80 df ff ff 	movq   $0x3,-0x2080(%rbp)
   135b7:	03 00 00 00 
   135bb:	e9 b9 02 00 00       	jmpq   13879 <func_58+0x3955>
   135c0:	48 8d 05 b9 d0 00 00 	lea    0xd0b9(%rip),%rax        # 20680 <g_3633>
   135c7:	48 89 85 10 e2 ff ff 	mov    %rax,-0x1df0(%rbp)
   135ce:	48 c7 85 18 e2 ff ff 	movq   $0x0,-0x1de8(%rbp)
   135d5:	00 00 00 00 
   135d9:	48 8d 85 48 df ff ff 	lea    -0x20b8(%rbp),%rax
   135e0:	48 89 85 78 df ff ff 	mov    %rax,-0x2088(%rbp)
   135e7:	48 8d 85 78 df ff ff 	lea    -0x2088(%rbp),%rax
   135ee:	48 89 85 20 e2 ff ff 	mov    %rax,-0x1de0(%rbp)
   135f5:	c7 85 b8 de ff ff b0 	movl   $0x4f547ab0,-0x2148(%rbp)
   135fc:	7a 54 4f 
   135ff:	c6 85 e6 dd ff ff 23 	movb   $0x23,-0x221a(%rbp)
   13606:	48 8d 85 10 de ff ff 	lea    -0x21f0(%rbp),%rax
   1360d:	48 89 85 28 e2 ff ff 	mov    %rax,-0x1dd8(%rbp)
   13614:	8b 9d ac de ff ff    	mov    -0x2154(%rbp),%ebx
   1361a:	44 0f b7 a5 cc dd ff 	movzwl -0x2234(%rbp),%r12d
   13621:	ff 
   13622:	48 8b 05 b7 ca 00 00 	mov    0xcab7(%rip),%rax        # 200e0 <g_3204>
   13629:	48 8b 08             	mov    (%rax),%rcx
   1362c:	48 8b 15 4d d0 00 00 	mov    0xd04d(%rip),%rdx        # 20680 <g_3633>
   13633:	48 8b 85 10 e2 ff ff 	mov    -0x1df0(%rbp),%rax
   1363a:	48 89 10             	mov    %rdx,(%rax)
   1363d:	48 8b 85 10 e2 ff ff 	mov    -0x1df0(%rbp),%rax
   13644:	48 8b 00             	mov    (%rax),%rax
   13647:	48 39 c1             	cmp    %rax,%rcx
   1364a:	0f 95 c0             	setne  %al
   1364d:	0f b6 c0             	movzbl %al,%eax
   13650:	89 85 c8 dd ff ff    	mov    %eax,-0x2238(%rbp)
   13656:	44 0f b7 ad cc dd ff 	movzwl -0x2234(%rbp),%r13d
   1365d:	ff 
   1365e:	44 0f b7 b5 cc dd ff 	movzwl -0x2234(%rbp),%r14d
   13665:	ff 
   13666:	0f b7 85 cc dd ff ff 	movzwl -0x2234(%rbp),%eax
   1366d:	44 0f b6 f8          	movzbl %al,%r15d
   13671:	0f b7 85 cc dd ff ff 	movzwl -0x2234(%rbp),%eax
   13678:	0f be c0             	movsbl %al,%eax
   1367b:	89 85 c4 dd ff ff    	mov    %eax,-0x223c(%rbp)
   13681:	0f b6 85 e6 dd ff ff 	movzbl -0x221a(%rbp),%eax
   13688:	0f b6 c8             	movzbl %al,%ecx
   1368b:	89 8d c0 dd ff ff    	mov    %ecx,-0x2240(%rbp)
   13691:	48 8b 85 00 e2 ff ff 	mov    -0x1e00(%rbp),%rax
   13698:	8b 95 b8 de ff ff    	mov    -0x2148(%rbp),%edx
   1369e:	89 10                	mov    %edx,(%rax)
   136a0:	48 8b 85 00 e2 ff ff 	mov    -0x1e00(%rbp),%rax
   136a7:	8b 00                	mov    (%rax),%eax
   136a9:	0f b7 d0             	movzwl %ax,%edx
   136ac:	48 8b 85 20 e2 ff ff 	mov    -0x1de0(%rbp),%rax
   136b3:	48 8d 0d 8e c8 00 00 	lea    0xc88e(%rip),%rcx        # 1ff48 <g_3196+0x88>
   136ba:	48 89 08             	mov    %rcx,(%rax)
   136bd:	48 8b 85 20 e2 ff ff 	mov    -0x1de0(%rbp),%rax
   136c4:	48 8b 00             	mov    (%rax),%rax
   136c7:	48 8d 0d 62 c8 00 00 	lea    0xc862(%rip),%rcx        # 1ff30 <g_3196+0x70>
   136ce:	48 39 c8             	cmp    %rcx,%rax
   136d1:	0f 95 c0             	setne  %al
   136d4:	0f b6 c0             	movzbl %al,%eax
   136d7:	89 d6                	mov    %edx,%esi
   136d9:	89 c7                	mov    %eax,%edi
   136db:	e8 1f 96 ff ff       	callq  ccff <safe_add_func_uint16_t_u_u>
   136e0:	0f b7 c0             	movzwl %ax,%eax
   136e3:	8b 95 b8 de ff ff    	mov    -0x2148(%rbp),%edx
   136e9:	89 d6                	mov    %edx,%esi
   136eb:	89 c7                	mov    %eax,%edi
   136ed:	e8 13 8f ff ff       	callq  c605 <safe_sub_func_int32_t_s_s>
   136f2:	48 98                	cltq   
   136f4:	48 89 c7             	mov    %rax,%rdi
   136f7:	e8 1d 99 ff ff       	callq  d019 <safe_unary_minus_func_uint64_t_u>
   136fc:	89 c2                	mov    %eax,%edx
   136fe:	8b 85 b8 de ff ff    	mov    -0x2148(%rbp),%eax
   13704:	09 d0                	or     %edx,%eax
   13706:	0f b6 c0             	movzbl %al,%eax
   13709:	8b b5 c0 dd ff ff    	mov    -0x2240(%rbp),%esi
   1370f:	89 c7                	mov    %eax,%edi
   13711:	e8 44 94 ff ff       	callq  cb5a <safe_add_func_uint8_t_u_u>
   13716:	0f b6 c0             	movzbl %al,%eax
   13719:	89 c6                	mov    %eax,%esi
   1371b:	bf 00 00 00 00       	mov    $0x0,%edi
   13720:	e8 18 96 ff ff       	callq  cd3d <safe_mul_func_uint16_t_u_u>
   13725:	8b b5 c4 dd ff ff    	mov    -0x223c(%rbp),%esi
   1372b:	bf 00 00 00 00       	mov    $0x0,%edi
   13730:	e8 35 8b ff ff       	callq  c26a <safe_div_func_int8_t_s_s>
   13735:	0f be d0             	movsbl %al,%edx
   13738:	0f b7 85 cc dd ff ff 	movzwl -0x2234(%rbp),%eax
   1373f:	21 d0                	and    %edx,%eax
   13741:	39 85 ac de ff ff    	cmp    %eax,-0x2154(%rbp)
   13747:	48 8b 85 68 df ff ff 	mov    -0x2098(%rbp),%rax
   1374e:	0f be 95 e5 dd ff ff 	movsbl -0x221b(%rbp),%edx
   13755:	89 10                	mov    %edx,(%rax)
   13757:	8b 00                	mov    (%rax),%eax
   13759:	0f b6 c0             	movzbl %al,%eax
   1375c:	44 89 fe             	mov    %r15d,%esi
   1375f:	89 c7                	mov    %eax,%edi
   13761:	e8 2d 94 ff ff       	callq  cb93 <safe_mul_func_uint8_t_u_u>
   13766:	0f b6 c0             	movzbl %al,%eax
   13769:	89 85 b0 de ff ff    	mov    %eax,-0x2150(%rbp)
   1376f:	81 bd b0 de ff ff ba 	cmpl   $0x3fccb0ba,-0x2150(%rbp)
   13776:	b0 cc 3f 
   13779:	0f 97 c2             	seta   %dl
   1377c:	48 8b 05 2d 96 00 00 	mov    0x962d(%rip),%rax        # 1cdb0 <g_211>
   13783:	48 8b 00             	mov    (%rax),%rax
   13786:	0f b6 d2             	movzbl %dl,%edx
   13789:	66 89 10             	mov    %dx,(%rax)
   1378c:	0f b7 00             	movzwl (%rax),%eax
   1378f:	98                   	cwtl   
   13790:	44 89 f6             	mov    %r14d,%esi
   13793:	89 c7                	mov    %eax,%edi
   13795:	e8 47 8d ff ff       	callq  c4e1 <safe_lshift_func_int16_t_s_u>
   1379a:	66 85 c0             	test   %ax,%ax
   1379d:	75 0a                	jne    137a9 <func_58+0x3885>
   1379f:	66 83 bd cc dd ff ff 	cmpw   $0x0,-0x2234(%rbp)
   137a6:	00 
   137a7:	74 07                	je     137b0 <func_58+0x388c>
   137a9:	b8 01 00 00 00       	mov    $0x1,%eax
   137ae:	eb 05                	jmp    137b5 <func_58+0x3891>
   137b0:	b8 00 00 00 00       	mov    $0x0,%eax
   137b5:	89 c2                	mov    %eax,%edx
   137b7:	0f b7 85 cc dd ff ff 	movzwl -0x2234(%rbp),%eax
   137be:	31 d0                	xor    %edx,%eax
   137c0:	0f b7 c0             	movzwl %ax,%eax
   137c3:	44 89 ee             	mov    %r13d,%esi
   137c6:	89 c7                	mov    %eax,%edi
   137c8:	e8 70 95 ff ff       	callq  cd3d <safe_mul_func_uint16_t_u_u>
   137cd:	0f b7 c0             	movzwl %ax,%eax
   137d0:	8b 95 c8 dd ff ff    	mov    -0x2238(%rbp),%edx
   137d6:	31 c2                	xor    %eax,%edx
   137d8:	48 8b 85 28 e2 ff ff 	mov    -0x1dd8(%rbp),%rax
   137df:	89 10                	mov    %edx,(%rax)
   137e1:	48 8b 85 00 e2 ff ff 	mov    -0x1e00(%rbp),%rax
   137e8:	8b 00                	mov    (%rax),%eax
   137ea:	0f be c0             	movsbl %al,%eax
   137ed:	44 89 e6             	mov    %r12d,%esi
   137f0:	89 c7                	mov    %eax,%edi
   137f2:	e8 aa 8a ff ff       	callq  c2a1 <safe_lshift_func_int8_t_s_s>
   137f7:	66 98                	cbtw   
   137f9:	0f b7 c0             	movzwl %ax,%eax
   137fc:	89 de                	mov    %ebx,%esi
   137fe:	89 c7                	mov    %eax,%edi
   13800:	e8 43 96 ff ff       	callq  ce48 <safe_rshift_func_uint16_t_u_s>
   13805:	89 c2                	mov    %eax,%edx
   13807:	48 8b 85 e0 e1 ff ff 	mov    -0x1e20(%rbp),%rax
   1380e:	88 10                	mov    %dl,(%rax)
   13810:	48 8b 85 e0 e1 ff ff 	mov    -0x1e20(%rbp),%rax
   13817:	0f b6 10             	movzbl (%rax),%edx
   1381a:	48 8b 85 d8 e1 ff ff 	mov    -0x1e28(%rbp),%rax
   13821:	88 10                	mov    %dl,(%rax)
   13823:	48 8b 85 d8 e1 ff ff 	mov    -0x1e28(%rbp),%rax
   1382a:	0f b6 00             	movzbl (%rax),%eax
   1382d:	0f be c0             	movsbl %al,%eax
   13830:	be 01 00 00 00       	mov    $0x1,%esi
   13835:	89 c7                	mov    %eax,%edi
   13837:	e8 65 8a ff ff       	callq  c2a1 <safe_lshift_func_int8_t_s_s>
   1383c:	0f b7 85 cc dd ff ff 	movzwl -0x2234(%rbp),%eax
   13843:	98                   	cwtl   
   13844:	83 e0 01             	and    $0x1,%eax
   13847:	be 04 00 00 00       	mov    $0x4,%esi
   1384c:	89 c7                	mov    %eax,%edi
   1384e:	e8 3f 8c ff ff       	callq  c492 <safe_lshift_func_int16_t_s_s>
   13853:	89 c2                	mov    %eax,%edx
   13855:	48 8b 05 a4 a4 00 00 	mov    0xa4a4(%rip),%rax        # 1dd00 <g_1172>
   1385c:	48 8b 00             	mov    (%rax),%rax
   1385f:	48 8b 00             	mov    (%rax),%rax
   13862:	48 8b 00             	mov    (%rax),%rax
   13865:	48 8b 00             	mov    (%rax),%rax
   13868:	8b 08                	mov    (%rax),%ecx
   1386a:	0f bf d2             	movswl %dx,%edx
   1386d:	31 ca                	xor    %ecx,%edx
   1386f:	89 10                	mov    %edx,(%rax)
   13871:	48 83 ad 80 df ff ff 	subq   $0x1,-0x2080(%rbp)
   13878:	01 
   13879:	48 83 bd 80 df ff ff 	cmpq   $0x1,-0x2080(%rbp)
   13880:	01 
   13881:	0f 86 39 fd ff ff    	jbe    135c0 <func_58+0x369c>
   13887:	66 83 bd cc dd ff ff 	cmpw   $0x0,-0x2234(%rbp)
   1388e:	00 
   1388f:	74 0e                	je     1389f <func_58+0x397b>
   13891:	48 8b 85 28 df ff ff 	mov    -0x20d8(%rbp),%rax
   13898:	8b 00                	mov    (%rax),%eax
   1389a:	e9 4f 06 00 00       	jmpq   13eee <func_58+0x3fca>
   1389f:	66 c7 85 fe dd ff ff 	movw   $0x0,-0x2202(%rbp)
   138a6:	00 00 
   138a8:	48 c7 85 08 e2 ff ff 	movq   $0x0,-0x1df8(%rbp)
   138af:	00 00 00 00 
   138b3:	66 81 bd cc dd ff ff 	cmpw   $0x83b6,-0x2234(%rbp)
   138ba:	b6 83 
   138bc:	0f 97 c2             	seta   %dl
   138bf:	48 8b 05 f2 94 00 00 	mov    0x94f2(%rip),%rax        # 1cdb8 <g_220>
   138c6:	0f b6 d2             	movzbl %dl,%edx
   138c9:	89 10                	mov    %edx,(%rax)
   138cb:	0f b7 85 fe dd ff ff 	movzwl -0x2202(%rbp),%eax
   138d2:	83 c0 01             	add    $0x1,%eax
   138d5:	66 89 85 fe dd ff ff 	mov    %ax,-0x2202(%rbp)
   138dc:	0f b7 85 fe dd ff ff 	movzwl -0x2202(%rbp),%eax
   138e3:	89 85 b4 de ff ff    	mov    %eax,-0x214c(%rbp)
   138e9:	48 8b 85 00 e2 ff ff 	mov    -0x1e00(%rbp),%rax
   138f0:	48 89 85 08 e2 ff ff 	mov    %rax,-0x1df8(%rbp)
   138f7:	c7 85 2c de ff ff 00 	movl   $0x0,-0x21d4(%rbp)
   138fe:	00 00 00 
   13901:	e9 80 01 00 00       	jmpq   13a86 <func_58+0x3b62>
   13906:	48 8b 05 d3 94 00 00 	mov    0x94d3(%rip),%rax        # 1cde0 <g_284>
   1390d:	48 8d 95 14 de ff ff 	lea    -0x21ec(%rbp),%rdx
   13914:	48 89 10             	mov    %rdx,(%rax)
   13917:	48 8b 05 d2 a3 00 00 	mov    0xa3d2(%rip),%rax        # 1dcf0 <g_1174>
   1391e:	48 8b 00             	mov    (%rax),%rax
   13921:	48 8b 00             	mov    (%rax),%rax
   13924:	8b 08                	mov    (%rax),%ecx
   13926:	48 8b 95 28 df ff ff 	mov    -0x20d8(%rbp),%rdx
   1392d:	8b 12                	mov    (%rdx),%edx
   1392f:	21 ca                	and    %ecx,%edx
   13931:	89 10                	mov    %edx,(%rax)
   13933:	0f b7 9d cc dd ff ff 	movzwl -0x2234(%rbp),%ebx
   1393a:	be 00 00 00 00       	mov    $0x0,%esi
   1393f:	bf ff ff ff ff       	mov    $0xffffffff,%edi
   13944:	e8 a5 89 ff ff       	callq  c2ee <safe_lshift_func_int8_t_s_u>
   13949:	0f be d0             	movsbl %al,%edx
   1394c:	0f b7 85 cc dd ff ff 	movzwl -0x2234(%rbp),%eax
   13953:	21 d0                	and    %edx,%eax
   13955:	39 c3                	cmp    %eax,%ebx
   13957:	0f 94 c0             	sete   %al
   1395a:	0f b6 d0             	movzbl %al,%edx
   1395d:	48 8b 85 e0 e1 ff ff 	mov    -0x1e20(%rbp),%rax
   13964:	0f b6 00             	movzbl (%rax),%eax
   13967:	21 c2                	and    %eax,%edx
   13969:	48 8b 85 e0 e1 ff ff 	mov    -0x1e20(%rbp),%rax
   13970:	88 10                	mov    %dl,(%rax)
   13972:	48 8b 85 e0 e1 ff ff 	mov    -0x1e20(%rbp),%rax
   13979:	0f b6 00             	movzbl (%rax),%eax
   1397c:	0f be d0             	movsbl %al,%edx
   1397f:	0f b7 85 cc dd ff ff 	movzwl -0x2234(%rbp),%eax
   13986:	39 c2                	cmp    %eax,%edx
   13988:	0f 95 c0             	setne  %al
   1398b:	0f b6 c0             	movzbl %al,%eax
   1398e:	48 8d 15 97 76 00 00 	lea    0x7697(%rip),%rdx        # 1b02c <g_36>
   13995:	0f b7 12             	movzwl (%rdx),%edx
   13998:	89 c1                	mov    %eax,%ecx
   1399a:	48 8d 05 8b 76 00 00 	lea    0x768b(%rip),%rax        # 1b02c <g_36>
   139a1:	21 ca                	and    %ecx,%edx
   139a3:	66 89 10             	mov    %dx,(%rax)
   139a6:	0f b7 00             	movzwl (%rax),%eax
   139a9:	0f bf d8             	movswl %ax,%ebx
   139ac:	be 02 00 00 00       	mov    $0x2,%esi
   139b1:	bf 65 00 00 00       	mov    $0x65,%edi
   139b6:	e8 33 89 ff ff       	callq  c2ee <safe_lshift_func_int8_t_s_u>
   139bb:	66 98                	cbtw   
   139bd:	0f b7 c0             	movzwl %ax,%eax
   139c0:	89 de                	mov    %ebx,%esi
   139c2:	89 c7                	mov    %eax,%edi
   139c4:	e8 7f 94 ff ff       	callq  ce48 <safe_rshift_func_uint16_t_u_s>
   139c9:	0f b6 c0             	movzbl %al,%eax
   139cc:	be 01 00 00 00       	mov    $0x1,%esi
   139d1:	89 c7                	mov    %eax,%edi
   139d3:	e8 bb 91 ff ff       	callq  cb93 <safe_mul_func_uint8_t_u_u>
   139d8:	0f b6 c0             	movzbl %al,%eax
   139db:	89 c6                	mov    %eax,%esi
   139dd:	bf 01 00 00 00       	mov    $0x1,%edi
   139e2:	e8 91 91 ff ff       	callq  cb78 <safe_sub_func_uint8_t_u_u>
   139e7:	0f b6 c0             	movzbl %al,%eax
   139ea:	be ff ff ff ff       	mov    $0xffffffff,%esi
   139ef:	89 c7                	mov    %eax,%edi
   139f1:	e8 ff 89 ff ff       	callq  c3f5 <safe_mul_func_int16_t_s_s>
   139f6:	0f b6 d0             	movzbl %al,%edx
   139f9:	0f b7 85 cc dd ff ff 	movzwl -0x2234(%rbp),%eax
   13a00:	0f b6 c0             	movzbl %al,%eax
   13a03:	89 d6                	mov    %edx,%esi
   13a05:	89 c7                	mov    %eax,%edi
   13a07:	e8 4e 91 ff ff       	callq  cb5a <safe_add_func_uint8_t_u_u>
   13a0c:	0f b6 c0             	movzbl %al,%eax
   13a0f:	39 85 b4 de ff ff    	cmp    %eax,-0x214c(%rbp)
   13a15:	0f 9d c0             	setge  %al
   13a18:	0f b6 d0             	movzbl %al,%edx
   13a1b:	0f b7 85 cc dd ff ff 	movzwl -0x2234(%rbp),%eax
   13a22:	0f b6 c0             	movzbl %al,%eax
   13a25:	89 d6                	mov    %edx,%esi
   13a27:	89 c7                	mov    %eax,%edi
   13a29:	e8 1e 92 ff ff       	callq  cc4c <safe_lshift_func_uint8_t_u_u>
   13a2e:	0f b6 c0             	movzbl %al,%eax
   13a31:	66 39 85 cc dd ff ff 	cmp    %ax,-0x2234(%rbp)
   13a38:	0f 96 c0             	setbe  %al
   13a3b:	0f b6 c8             	movzbl %al,%ecx
   13a3e:	48 8b 05 73 93 00 00 	mov    0x9373(%rip),%rax        # 1cdb8 <g_220>
   13a45:	8b 10                	mov    (%rax),%edx
   13a47:	48 8b 05 6a 93 00 00 	mov    0x936a(%rip),%rax        # 1cdb8 <g_220>
   13a4e:	31 ca                	xor    %ecx,%edx
   13a50:	89 10                	mov    %edx,(%rax)
   13a52:	8b 10                	mov    (%rax),%edx
   13a54:	48 8b 85 00 e2 ff ff 	mov    -0x1e00(%rbp),%rax
   13a5b:	8b 00                	mov    (%rax),%eax
   13a5d:	31 c2                	xor    %eax,%edx
   13a5f:	48 8b 85 00 e2 ff ff 	mov    -0x1e00(%rbp),%rax
   13a66:	89 10                	mov    %edx,(%rax)
   13a68:	8b 85 2c de ff ff    	mov    -0x21d4(%rbp),%eax
   13a6e:	0f b6 c0             	movzbl %al,%eax
   13a71:	be 05 00 00 00       	mov    $0x5,%esi
   13a76:	89 c7                	mov    %eax,%edi
   13a78:	e8 dd 90 ff ff       	callq  cb5a <safe_add_func_uint8_t_u_u>
   13a7d:	0f b6 c0             	movzbl %al,%eax
   13a80:	89 85 2c de ff ff    	mov    %eax,-0x21d4(%rbp)
   13a86:	83 bd 2c de ff ff 23 	cmpl   $0x23,-0x21d4(%rbp)
   13a8d:	0f 85 73 fe ff ff    	jne    13906 <func_58+0x39e2>
   13a93:	e9 a5 02 00 00       	jmpq   13d3d <func_58+0x3e19>
   13a98:	48 8d 05 e9 ca 00 00 	lea    0xcae9(%rip),%rax        # 20588 <g_642>
   13a9f:	48 89 85 f8 e1 ff ff 	mov    %rax,-0x1e08(%rbp)
   13aa6:	c7 85 90 f0 ff ff ff 	movl   $0xffffffff,-0xf70(%rbp)
   13aad:	ff ff ff 
   13ab0:	c7 85 94 f0 ff ff ff 	movl   $0xffffffff,-0xf6c(%rbp)
   13ab7:	ff ff ff 
   13aba:	c7 85 98 f0 ff ff 74 	movl   $0x5f94cc74,-0xf68(%rbp)
   13ac1:	cc 94 5f 
   13ac4:	c7 85 9c f0 ff ff ff 	movl   $0xffffffff,-0xf64(%rbp)
   13acb:	ff ff ff 
   13ace:	c7 85 a0 f0 ff ff ff 	movl   $0xffffffff,-0xf60(%rbp)
   13ad5:	ff ff ff 
   13ad8:	c7 85 a4 f0 ff ff 74 	movl   $0x5f94cc74,-0xf5c(%rbp)
   13adf:	cc 94 5f 
   13ae2:	c7 85 a8 f0 ff ff ff 	movl   $0xffffffff,-0xf58(%rbp)
   13ae9:	ff ff ff 
   13aec:	c7 85 ac f0 ff ff ff 	movl   $0xffffffff,-0xf54(%rbp)
   13af3:	ff ff ff 
   13af6:	c7 85 b0 f0 ff ff 74 	movl   $0x5f94cc74,-0xf50(%rbp)
   13afd:	cc 94 5f 
   13b00:	c7 85 b4 f0 ff ff ff 	movl   $0xffffffff,-0xf4c(%rbp)
   13b07:	ff ff ff 
   13b0a:	c7 85 b8 f0 ff ff ff 	movl   $0xffffffff,-0xf48(%rbp)
   13b11:	ff ff ff 
   13b14:	c7 85 bc f0 ff ff 74 	movl   $0x5f94cc74,-0xf44(%rbp)
   13b1b:	cc 94 5f 
   13b1e:	c7 85 c0 f0 ff ff ff 	movl   $0xffffffff,-0xf40(%rbp)
   13b25:	ff ff ff 
   13b28:	c7 85 c4 f0 ff ff ff 	movl   $0xffffffff,-0xf3c(%rbp)
   13b2f:	ff ff ff 
   13b32:	c7 85 c8 f0 ff ff 74 	movl   $0x5f94cc74,-0xf38(%rbp)
   13b39:	cc 94 5f 
   13b3c:	c7 85 cc f0 ff ff ff 	movl   $0xffffffff,-0xf34(%rbp)
   13b43:	ff ff ff 
   13b46:	c7 85 d0 f0 ff ff ff 	movl   $0xffffffff,-0xf30(%rbp)
   13b4d:	ff ff ff 
   13b50:	c7 85 d4 f0 ff ff 74 	movl   $0x5f94cc74,-0xf2c(%rbp)
   13b57:	cc 94 5f 
   13b5a:	c7 85 d8 f0 ff ff ff 	movl   $0xffffffff,-0xf28(%rbp)
   13b61:	ff ff ff 
   13b64:	c7 85 dc f0 ff ff ff 	movl   $0xffffffff,-0xf24(%rbp)
   13b6b:	ff ff ff 
   13b6e:	c7 85 e0 f0 ff ff 74 	movl   $0x5f94cc74,-0xf20(%rbp)
   13b75:	cc 94 5f 
   13b78:	c7 85 e4 f0 ff ff ff 	movl   $0xffffffff,-0xf1c(%rbp)
   13b7f:	ff ff ff 
   13b82:	c7 85 e8 f0 ff ff ff 	movl   $0xffffffff,-0xf18(%rbp)
   13b89:	ff ff ff 
   13b8c:	c7 85 ec f0 ff ff 74 	movl   $0x5f94cc74,-0xf14(%rbp)
   13b93:	cc 94 5f 
   13b96:	c7 85 f0 f0 ff ff ff 	movl   $0xffffffff,-0xf10(%rbp)
   13b9d:	ff ff ff 
   13ba0:	c7 85 f4 f0 ff ff ff 	movl   $0xffffffff,-0xf0c(%rbp)
   13ba7:	ff ff ff 
   13baa:	c7 85 f8 f0 ff ff 74 	movl   $0x5f94cc74,-0xf08(%rbp)
   13bb1:	cc 94 5f 
   13bb4:	c7 85 fc f0 ff ff ff 	movl   $0xffffffff,-0xf04(%rbp)
   13bbb:	ff ff ff 
   13bbe:	c7 85 00 f1 ff ff ff 	movl   $0xffffffff,-0xf00(%rbp)
   13bc5:	ff ff ff 
   13bc8:	c7 85 04 f1 ff ff 74 	movl   $0x5f94cc74,-0xefc(%rbp)
   13bcf:	cc 94 5f 
   13bd2:	48 8b 85 28 df ff ff 	mov    -0x20d8(%rbp),%rax
   13bd9:	0f b7 95 cc dd ff ff 	movzwl -0x2234(%rbp),%edx
   13be0:	89 10                	mov    %edx,(%rax)
   13be2:	48 8b 85 e8 e1 ff ff 	mov    -0x1e18(%rbp),%rax
   13be9:	48 89 85 f0 e1 ff ff 	mov    %rax,-0x1e10(%rbp)
   13bf0:	48 8b 85 f0 e1 ff ff 	mov    -0x1e10(%rbp),%rax
   13bf7:	48 3b 85 f8 e1 ff ff 	cmp    -0x1e08(%rbp),%rax
   13bfe:	0f 94 c0             	sete   %al
   13c01:	44 0f b6 e0          	movzbl %al,%r12d
   13c05:	48 8b 85 28 df ff ff 	mov    -0x20d8(%rbp),%rax
   13c0c:	8b 00                	mov    (%rax),%eax
   13c0e:	41 89 c5             	mov    %eax,%r13d
   13c11:	48 8b 85 e8 e1 ff ff 	mov    -0x1e18(%rbp),%rax
   13c18:	48 8b 00             	mov    (%rax),%rax
   13c1b:	8b 00                	mov    (%rax),%eax
   13c1d:	85 c0                	test   %eax,%eax
   13c1f:	0f 84 94 00 00 00    	je     13cb9 <func_58+0x3d95>
   13c25:	0f b7 85 cc dd ff ff 	movzwl -0x2234(%rbp),%eax
   13c2c:	0f bf d8             	movswl %ax,%ebx
   13c2f:	48 8b 05 7a 91 00 00 	mov    0x917a(%rip),%rax        # 1cdb0 <g_211>
   13c36:	48 8b 00             	mov    (%rax),%rax
   13c39:	0f b7 00             	movzwl (%rax),%eax
   13c3c:	0f b7 d0             	movzwl %ax,%edx
   13c3f:	0f b7 85 cc dd ff ff 	movzwl -0x2234(%rbp),%eax
   13c46:	89 d6                	mov    %edx,%esi
   13c48:	89 c7                	mov    %eax,%edi
   13c4a:	e8 3f 91 ff ff       	callq  cd8e <safe_div_func_uint16_t_u_u>
   13c4f:	66 3d 00 3a          	cmp    $0x3a00,%ax
   13c53:	0f 97 c0             	seta   %al
   13c56:	0f b6 c0             	movzbl %al,%eax
   13c59:	89 de                	mov    %ebx,%esi
   13c5b:	89 c7                	mov    %eax,%edi
   13c5d:	e8 f3 87 ff ff       	callq  c455 <safe_div_func_int16_t_s_s>
   13c62:	0f bf d0             	movswl %ax,%edx
   13c65:	48 8b 85 28 df ff ff 	mov    -0x20d8(%rbp),%rax
   13c6c:	8b 00                	mov    (%rax),%eax
   13c6e:	39 c2                	cmp    %eax,%edx
   13c70:	0f 95 c0             	setne  %al
   13c73:	0f b6 d0             	movzbl %al,%edx
   13c76:	0f b7 85 cc dd ff ff 	movzwl -0x2234(%rbp),%eax
   13c7d:	39 c2                	cmp    %eax,%edx
   13c7f:	48 8b 05 62 91 00 00 	mov    0x9162(%rip),%rax        # 1cde8 <g_290>
   13c86:	48 8b 18             	mov    (%rax),%rbx
   13c89:	0f b7 95 cc dd ff ff 	movzwl -0x2234(%rbp),%edx
   13c90:	48 8b 85 e8 e1 ff ff 	mov    -0x1e18(%rbp),%rax
   13c97:	48 8b 00             	mov    (%rax),%rax
   13c9a:	8b 00                	mov    (%rax),%eax
   13c9c:	0f b7 c0             	movzwl %ax,%eax
   13c9f:	89 d6                	mov    %edx,%esi
   13ca1:	89 c7                	mov    %eax,%edi
   13ca3:	e8 95 90 ff ff       	callq  cd3d <safe_mul_func_uint16_t_u_u>
   13ca8:	0f b7 c0             	movzwl %ax,%eax
   13cab:	48 89 de             	mov    %rbx,%rsi
   13cae:	48 89 c7             	mov    %rax,%rdi
   13cb1:	e8 f2 8b ff ff       	callq  c8a8 <safe_sub_func_int64_t_s_s>
   13cb6:	48 85 c0             	test   %rax,%rax
   13cb9:	b8 00 00 00 00       	mov    $0x0,%eax
   13cbe:	89 c2                	mov    %eax,%edx
   13cc0:	0f b7 85 cc dd ff ff 	movzwl -0x2234(%rbp),%eax
   13cc7:	31 d0                	xor    %edx,%eax
   13cc9:	98                   	cwtl   
   13cca:	44 89 ee             	mov    %r13d,%esi
   13ccd:	89 c7                	mov    %eax,%edi
   13ccf:	e8 0d 88 ff ff       	callq  c4e1 <safe_lshift_func_int16_t_s_u>
   13cd4:	89 c2                	mov    %eax,%edx
   13cd6:	48 8b 05 eb b1 00 00 	mov    0xb1eb(%rip),%rax        # 1eec8 <g_1712>
   13cdd:	0f b6 08             	movzbl (%rax),%ecx
   13ce0:	48 8b 05 e1 b1 00 00 	mov    0xb1e1(%rip),%rax        # 1eec8 <g_1712>
   13ce7:	09 ca                	or     %ecx,%edx
   13ce9:	88 10                	mov    %dl,(%rax)
   13ceb:	0f b6 10             	movzbl (%rax),%edx
   13cee:	48 8b 85 d8 e1 ff ff 	mov    -0x1e28(%rbp),%rax
   13cf5:	88 10                	mov    %dl,(%rax)
   13cf7:	48 8b 85 d8 e1 ff ff 	mov    -0x1e28(%rbp),%rax
   13cfe:	0f b6 00             	movzbl (%rax),%eax
   13d01:	0f be c0             	movsbl %al,%eax
   13d04:	48 8b 95 e0 e1 ff ff 	mov    -0x1e20(%rbp),%rdx
   13d0b:	c6 02 ff             	movb   $0xff,(%rdx)
   13d0e:	89 c6                	mov    %eax,%esi
   13d10:	bf ff ff ff ff       	mov    $0xffffffff,%edi
   13d15:	e8 f8 84 ff ff       	callq  c212 <safe_mul_func_int8_t_s_s>
   13d1a:	0f be d0             	movsbl %al,%edx
   13d1d:	0f b7 85 cc dd ff ff 	movzwl -0x2234(%rbp),%eax
   13d24:	09 d0                	or     %edx,%eax
   13d26:	41 39 c4             	cmp    %eax,%r12d
   13d29:	0f 9e c0             	setle  %al
   13d2c:	0f b6 d0             	movzbl %al,%edx
   13d2f:	8b 85 e0 f0 ff ff    	mov    -0xf20(%rbp),%eax
   13d35:	21 d0                	and    %edx,%eax
   13d37:	89 85 e0 f0 ff ff    	mov    %eax,-0xf20(%rbp)
   13d3d:	48 8b 85 e8 e1 ff ff 	mov    -0x1e18(%rbp),%rax
   13d44:	48 8b 95 b8 e1 ff ff 	mov    -0x1e48(%rbp),%rdx
   13d4b:	48 89 10             	mov    %rdx,(%rax)
   13d4e:	66 83 bd cc dd ff ff 	cmpw   $0x0,-0x2234(%rbp)
   13d55:	00 
   13d56:	74 25                	je     13d7d <func_58+0x3e59>
   13d58:	0f b6 85 e4 dd ff ff 	movzbl -0x221c(%rbp),%eax
   13d5f:	89 85 14 de ff ff    	mov    %eax,-0x21ec(%rbp)
   13d65:	8b 95 14 de ff ff    	mov    -0x21ec(%rbp),%edx
   13d6b:	0f b7 85 cc dd ff ff 	movzwl -0x2234(%rbp),%eax
   13d72:	39 c2                	cmp    %eax,%edx
   13d74:	7e 07                	jle    13d7d <func_58+0x3e59>
   13d76:	ba 01 00 00 00       	mov    $0x1,%edx
   13d7b:	eb 05                	jmp    13d82 <func_58+0x3e5e>
   13d7d:	ba 00 00 00 00       	mov    $0x0,%edx
   13d82:	48 8b 05 67 9f 00 00 	mov    0x9f67(%rip),%rax        # 1dcf0 <g_1174>
   13d89:	48 8b 00             	mov    (%rax),%rax
   13d8c:	48 8b 00             	mov    (%rax),%rax
   13d8f:	89 10                	mov    %edx,(%rax)
   13d91:	83 bd 34 de ff ff 00 	cmpl   $0x0,-0x21cc(%rbp)
   13d98:	0f 84 49 01 00 00    	je     13ee7 <func_58+0x3fc3>
   13d9e:	eb 9d                	jmp    13d3d <func_58+0x3e19>
   13da0:	48 8b 85 68 df ff ff 	mov    -0x2098(%rbp),%rax
   13da7:	0f b7 95 cc dd ff ff 	movzwl -0x2234(%rbp),%edx
   13dae:	89 10                	mov    %edx,(%rax)
   13db0:	c7 85 04 de ff ff 00 	movl   $0x0,-0x21fc(%rbp)
   13db7:	00 00 00 
   13dba:	90                   	nop
   13dbb:	8b 85 04 de ff ff    	mov    -0x21fc(%rbp),%eax
   13dc1:	83 f8 ee             	cmp    $0xffffffee,%eax
   13dc4:	0f 85 1d 01 00 00    	jne    13ee7 <func_58+0x3fc3>
   13dca:	0f b7 85 cc dd ff ff 	movzwl -0x2234(%rbp),%eax
   13dd1:	e9 18 01 00 00       	jmpq   13eee <func_58+0x3fca>
   13dd6:	48 8d 05 eb 90 00 00 	lea    0x90eb(%rip),%rax        # 1cec8 <g_583+0xc8>
   13ddd:	48 89 85 78 df ff ff 	mov    %rax,-0x2088(%rbp)
   13de4:	48 8d 85 78 df ff ff 	lea    -0x2088(%rbp),%rax
   13deb:	48 89 85 c8 e1 ff ff 	mov    %rax,-0x1e38(%rbp)
   13df2:	c7 85 1c de ff ff 00 	movl   $0x0,-0x21e4(%rbp)
   13df9:	00 00 00 
   13dfc:	eb 1e                	jmp    13e1c <func_58+0x3ef8>
   13dfe:	8b 85 1c de ff ff    	mov    -0x21e4(%rbp),%eax
   13e04:	48 98                	cltq   
   13e06:	48 8d 15 c3 76 00 00 	lea    0x76c3(%rip),%rdx        # 1b4d0 <g_766>
   13e0d:	48 89 94 c5 90 f0 ff 	mov    %rdx,-0xf70(%rbp,%rax,8)
   13e14:	ff 
   13e15:	83 85 1c de ff ff 01 	addl   $0x1,-0x21e4(%rbp)
   13e1c:	83 bd 1c de ff ff 03 	cmpl   $0x3,-0x21e4(%rbp)
   13e23:	7e d9                	jle    13dfe <func_58+0x3eda>
   13e25:	48 8b 85 28 df ff ff 	mov    -0x20d8(%rbp),%rax
   13e2c:	8b 08                	mov    (%rax),%ecx
   13e2e:	0f b7 95 cc dd ff ff 	movzwl -0x2234(%rbp),%edx
   13e35:	48 8b 85 28 df ff ff 	mov    -0x20d8(%rbp),%rax
   13e3c:	31 ca                	xor    %ecx,%edx
   13e3e:	89 10                	mov    %edx,(%rax)
   13e40:	48 8b 85 c8 e1 ff ff 	mov    -0x1e38(%rbp),%rax
   13e47:	48 c7 00 00 00 00 00 	movq   $0x0,(%rax)
   13e4e:	0f b7 85 fc dd ff ff 	movzwl -0x2204(%rbp),%eax
   13e55:	66 3d f6 00          	cmp    $0xf6,%ax
   13e59:	0f 97 c0             	seta   %al
   13e5c:	0f b6 c0             	movzbl %al,%eax
   13e5f:	48 39 85 08 e0 ff ff 	cmp    %rax,-0x1ff8(%rbp)
   13e66:	0f 93 c0             	setae  %al
   13e69:	0f b6 c0             	movzbl %al,%eax
   13e6c:	be f7 ff 00 00       	mov    $0xfff7,%esi
   13e71:	89 c7                	mov    %eax,%edi
   13e73:	e8 87 8e ff ff       	callq  ccff <safe_add_func_uint16_t_u_u>
   13e78:	0f b7 d0             	movzwl %ax,%edx
   13e7b:	8b 05 0b 75 00 00    	mov    0x750b(%rip),%eax        # 1b38c <g_454>
   13e81:	21 d0                	and    %edx,%eax
   13e83:	89 05 03 75 00 00    	mov    %eax,0x7503(%rip)        # 1b38c <g_454>
   13e89:	8b 1d fd 74 00 00    	mov    0x74fd(%rip),%ebx        # 1b38c <g_454>
   13e8f:	48 8b 85 08 df ff ff 	mov    -0x20f8(%rbp),%rax
   13e96:	48 8b 00             	mov    (%rax),%rax
   13e99:	48 39 85 c0 e1 ff ff 	cmp    %rax,-0x1e40(%rbp)
   13ea0:	0f 95 c0             	setne  %al
   13ea3:	0f b6 d0             	movzbl %al,%edx
   13ea6:	0f b7 85 cc dd ff ff 	movzwl -0x2234(%rbp),%eax
   13ead:	39 c2                	cmp    %eax,%edx
   13eaf:	0f 9e c0             	setle  %al
   13eb2:	0f b6 d0             	movzbl %al,%edx
   13eb5:	48 8d 05 70 71 00 00 	lea    0x7170(%rip),%rax        # 1b02c <g_36>
   13ebc:	0f b7 00             	movzwl (%rax),%eax
   13ebf:	98                   	cwtl   
   13ec0:	89 d6                	mov    %edx,%esi
   13ec2:	89 c7                	mov    %eax,%edi
   13ec4:	e8 ea 84 ff ff       	callq  c3b3 <safe_add_func_int16_t_s_s>
   13ec9:	98                   	cwtl   
   13eca:	89 de                	mov    %ebx,%esi
   13ecc:	89 c7                	mov    %eax,%edi
   13ece:	e8 e5 8f ff ff       	callq  ceb8 <safe_add_func_uint32_t_u_u>
   13ed3:	89 c2                	mov    %eax,%edx
   13ed5:	48 8b 05 1c 9e 00 00 	mov    0x9e1c(%rip),%rax        # 1dcf8 <g_1173>
   13edc:	48 8b 00             	mov    (%rax),%rax
   13edf:	48 8b 00             	mov    (%rax),%rax
   13ee2:	48 8b 00             	mov    (%rax),%rax
   13ee5:	89 10                	mov    %edx,(%rax)
   13ee7:	0f b7 85 cc dd ff ff 	movzwl -0x2234(%rbp),%eax
   13eee:	48 8b 5d c8          	mov    -0x38(%rbp),%rbx
   13ef2:	64 48 33 1c 25 28 00 	xor    %fs:0x28,%rbx
   13ef9:	00 00 
   13efb:	74 05                	je     13f02 <func_58+0x3fde>
   13efd:	e8 6e 81 ff ff       	callq  c070 <__stack_chk_fail@plt>
   13f02:	48 81 c4 18 22 00 00 	add    $0x2218,%rsp
   13f09:	5b                   	pop    %rbx
   13f0a:	41 5c                	pop    %r12
   13f0c:	41 5d                	pop    %r13
   13f0e:	41 5e                	pop    %r14
   13f10:	41 5f                	pop    %r15
   13f12:	5d                   	pop    %rbp
   13f13:	c3                   	retq   

0000000000013f14 <func_83>:
   13f14:	f3 0f 1e fa          	endbr64 
   13f18:	55                   	push   %rbp
   13f19:	48 89 e5             	mov    %rsp,%rbp
   13f1c:	48 81 ec b0 04 00 00 	sub    $0x4b0,%rsp
   13f23:	48 89 bd 58 fb ff ff 	mov    %rdi,-0x4a8(%rbp)
   13f2a:	64 48 8b 04 25 28 00 	mov    %fs:0x28,%rax
   13f31:	00 00 
   13f33:	48 89 45 f8          	mov    %rax,-0x8(%rbp)
   13f37:	31 c0                	xor    %eax,%eax
   13f39:	48 8d 85 20 fd ff ff 	lea    -0x2e0(%rbp),%rax
   13f40:	48 8d 15 79 40 00 00 	lea    0x4079(%rip),%rdx        # 17fc0 <g_3452+0xf58>
   13f47:	b9 5a 00 00 00       	mov    $0x5a,%ecx
   13f4c:	48 89 c7             	mov    %rax,%rdi
   13f4f:	48 89 d6             	mov    %rdx,%rsi
   13f52:	f3 48 a5             	rep movsq %ds:(%rsi),%es:(%rdi)
   13f55:	48 8d 05 d0 70 00 00 	lea    0x70d0(%rip),%rax        # 1b02c <g_36>
   13f5c:	48 89 85 a0 fb ff ff 	mov    %rax,-0x460(%rbp)
   13f63:	48 8d 85 a0 fb ff ff 	lea    -0x460(%rbp),%rax
   13f6a:	48 89 85 d0 fb ff ff 	mov    %rax,-0x430(%rbp)
   13f71:	48 8d 05 b0 c5 00 00 	lea    0xc5b0(%rip),%rax        # 20528 <g_149>
   13f78:	48 89 85 d8 fb ff ff 	mov    %rax,-0x428(%rbp)
   13f7f:	c7 85 78 fb ff ff 01 	movl   $0x1,-0x488(%rbp)
   13f86:	00 00 00 
   13f89:	c7 85 7c fb ff ff 08 	movl   $0x8,-0x484(%rbp)
   13f90:	00 00 00 
   13f93:	c7 85 80 fb ff ff 86 	movl   $0xe9c30886,-0x480(%rbp)
   13f9a:	08 c3 e9 
   13f9d:	c7 85 84 fb ff ff ff 	movl   $0xffffffff,-0x47c(%rbp)
   13fa4:	ff ff ff 
   13fa7:	66 c7 85 64 fb ff ff 	movw   $0x4bb5,-0x49c(%rbp)
   13fae:	b5 4b 
   13fb0:	c6 85 60 fb ff ff 01 	movb   $0x1,-0x4a0(%rbp)
   13fb7:	48 8d 05 0e 75 00 00 	lea    0x750e(%rip),%rax        # 1b4cc <g_714>
   13fbe:	48 89 85 a8 fb ff ff 	mov    %rax,-0x458(%rbp)
   13fc5:	66 c7 85 66 fb ff ff 	movw   $0xdfed,-0x49a(%rbp)
   13fcc:	ed df 
   13fce:	48 c7 85 e0 fb ff ff 	movq   $0x0,-0x420(%rbp)
   13fd5:	00 00 00 00 
   13fd9:	c6 85 61 fb ff ff 01 	movb   $0x1,-0x49f(%rbp)
   13fe0:	c7 85 80 fc ff ff ed 	movl   $0x18ed18ed,-0x380(%rbp)
   13fe7:	18 ed 18 
   13fea:	66 c7 85 84 fc ff ff 	movw   $0x18ed,-0x37c(%rbp)
   13ff1:	ed 18 
   13ff3:	c6 85 86 fc ff ff ed 	movb   $0xed,-0x37a(%rbp)
   13ffa:	c7 85 87 fc ff ff ff 	movl   $0x404ffff,-0x379(%rbp)
   14001:	ff 04 04 
   14004:	66 c7 85 8b fc ff ff 	movw   $0xffff,-0x375(%rbp)
   1400b:	ff ff 
   1400d:	c6 85 8d fc ff ff 04 	movb   $0x4,-0x373(%rbp)
   14014:	c7 85 8e fc ff ff f6 	movl   $0x18f618f6,-0x372(%rbp)
   1401b:	18 f6 18 
   1401e:	66 c7 85 92 fc ff ff 	movw   $0x18f6,-0x36e(%rbp)
   14025:	f6 18 
   14027:	c6 85 94 fc ff ff f6 	movb   $0xf6,-0x36c(%rbp)
   1402e:	c7 85 95 fc ff ff ff 	movl   $0xff0404ff,-0x36b(%rbp)
   14035:	04 04 ff 
   14038:	66 c7 85 99 fc ff ff 	movw   $0x4ff,-0x367(%rbp)
   1403f:	ff 04 
   14041:	c6 85 9b fc ff ff 04 	movb   $0x4,-0x365(%rbp)
   14048:	c7 85 9c fc ff ff ed 	movl   $0x18ed18ed,-0x364(%rbp)
   1404f:	18 ed 18 
   14052:	66 c7 85 a0 fc ff ff 	movw   $0x18ed,-0x360(%rbp)
   14059:	ed 18 
   1405b:	c6 85 a2 fc ff ff ed 	movb   $0xed,-0x35e(%rbp)
   14062:	48 8d 05 5f 74 00 00 	lea    0x745f(%rip),%rax        # 1b4c8 <g_713>
   14069:	48 89 85 b0 fb ff ff 	mov    %rax,-0x450(%rbp)
   14070:	c6 85 62 fb ff ff 58 	movb   $0x58,-0x49e(%rbp)
   14077:	48 8d 05 fa 93 00 00 	lea    0x93fa(%rip),%rax        # 1d478 <g_914+0x538>
   1407e:	48 89 85 b8 fb ff ff 	mov    %rax,-0x448(%rbp)
   14085:	48 8d 85 b8 fb ff ff 	lea    -0x448(%rbp),%rax
   1408c:	48 89 85 c0 fb ff ff 	mov    %rax,-0x440(%rbp)
   14093:	48 8d 85 c0 fb ff ff 	lea    -0x440(%rbp),%rax
   1409a:	48 89 85 c8 fb ff ff 	mov    %rax,-0x438(%rbp)
   140a1:	48 8d 85 c8 fb ff ff 	lea    -0x438(%rbp),%rax
   140a8:	48 89 85 e8 fb ff ff 	mov    %rax,-0x418(%rbp)
   140af:	48 8d 05 1b 70 00 00 	lea    0x701b(%rip),%rax        # 1b0d1 <g_190+0x1>
   140b6:	48 89 85 f0 fb ff ff 	mov    %rax,-0x410(%rbp)
   140bd:	48 b8 c1 7a 7a 30 af 	movabs $0x5fac1baf307a7ac1,%rax
   140c4:	1b ac 5f 
   140c7:	48 89 85 f8 fb ff ff 	mov    %rax,-0x408(%rbp)
   140ce:	48 c7 85 00 fc ff ff 	movq   $0x0,-0x400(%rbp)
   140d5:	00 00 00 00 
   140d9:	48 c7 85 08 fc ff ff 	movq   $0x0,-0x3f8(%rbp)
   140e0:	00 00 00 00 
   140e4:	48 8d 85 b0 fb ff ff 	lea    -0x450(%rbp),%rax
   140eb:	48 89 85 10 fc ff ff 	mov    %rax,-0x3f0(%rbp)
   140f2:	66 c7 85 68 fb ff ff 	movw   $0x0,-0x498(%rbp)
   140f9:	00 00 
   140fb:	c6 85 63 fb ff ff 02 	movb   $0x2,-0x49d(%rbp)
   14102:	c7 85 88 fb ff ff 4a 	movl   $0xa521504a,-0x478(%rbp)
   14109:	50 21 a5 
   1410c:	48 c7 85 18 fc ff ff 	movq   $0x0,-0x3e8(%rbp)
   14113:	00 00 00 00 
   14117:	48 b8 fb 33 00 74 8f 	movabs $0x129d038f740033fb,%rax
   1411e:	03 9d 12 
   14121:	48 89 85 e0 fc ff ff 	mov    %rax,-0x320(%rbp)
   14128:	48 b9 7b 76 18 66 5c 	movabs $0xb6d4805c6618767b,%rcx
   1412f:	80 d4 b6 
   14132:	48 89 8d e8 fc ff ff 	mov    %rcx,-0x318(%rbp)
   14139:	48 89 85 f0 fc ff ff 	mov    %rax,-0x310(%rbp)
   14140:	48 89 85 f8 fc ff ff 	mov    %rax,-0x308(%rbp)
   14147:	48 89 8d 00 fd ff ff 	mov    %rcx,-0x300(%rbp)
   1414e:	48 89 85 08 fd ff ff 	mov    %rax,-0x2f8(%rbp)
   14155:	48 89 85 10 fd ff ff 	mov    %rax,-0x2f0(%rbp)
   1415c:	48 89 8d 18 fd ff ff 	mov    %rcx,-0x2e8(%rbp)
   14163:	48 b8 fb 1d 6b 3f 0a 	movabs $0x67a9490a3f6b1dfb,%rax
   1416a:	49 a9 67 
   1416d:	48 89 85 20 fc ff ff 	mov    %rax,-0x3e0(%rbp)
   14174:	48 8d 05 4d 6f 00 00 	lea    0x6f4d(%rip),%rax        # 1b0c8 <g_176>
   1417b:	48 89 85 28 fc ff ff 	mov    %rax,-0x3d8(%rbp)
   14182:	66 c7 85 6a fb ff ff 	movw   $0x8,-0x496(%rbp)
   14189:	08 00 
   1418b:	66 c7 85 6c fb ff ff 	movw   $0xf8df,-0x494(%rbp)
   14192:	df f8 
   14194:	66 c7 85 6e fb ff ff 	movw   $0x9,-0x492(%rbp)
   1419b:	09 00 
   1419d:	48 8d 05 e8 71 00 00 	lea    0x71e8(%rip),%rax        # 1b38c <g_454>
   141a4:	48 89 85 30 fc ff ff 	mov    %rax,-0x3d0(%rbp)
   141ab:	c7 85 8c fb ff ff fc 	movl   $0xfffffffc,-0x474(%rbp)
   141b2:	ff ff ff 
   141b5:	c7 85 90 fb ff ff 00 	movl   $0x0,-0x470(%rbp)
   141bc:	00 00 00 
   141bf:	c7 85 94 fb ff ff 00 	movl   $0x0,-0x46c(%rbp)
   141c6:	00 00 00 
   141c9:	c7 85 98 fb ff ff 58 	movl   $0xcc741f58,-0x468(%rbp)
   141d0:	1f 74 cc 
   141d3:	c7 85 9c fb ff ff 04 	movl   $0x4,-0x464(%rbp)
   141da:	00 00 00 
   141dd:	c7 85 70 fb ff ff 00 	movl   $0x0,-0x490(%rbp)
   141e4:	00 00 00 
   141e7:	eb 42                	jmp    1422b <func_83+0x317>
   141e9:	c7 85 74 fb ff ff 00 	movl   $0x0,-0x48c(%rbp)
   141f0:	00 00 00 
   141f3:	eb 26                	jmp    1421b <func_83+0x307>
   141f5:	8b 85 74 fb ff ff    	mov    -0x48c(%rbp),%eax
   141fb:	48 63 d0             	movslq %eax,%rdx
   141fe:	8b 85 70 fb ff ff    	mov    -0x490(%rbp),%eax
   14204:	48 98                	cltq   
   14206:	48 01 d0             	add    %rdx,%rax
   14209:	c7 84 85 3c fc ff ff 	movl   $0x56346bbc,-0x3c4(%rbp,%rax,4)
   14210:	bc 6b 34 56 
   14214:	83 85 74 fb ff ff 01 	addl   $0x1,-0x48c(%rbp)
   1421b:	83 bd 74 fb ff ff 00 	cmpl   $0x0,-0x48c(%rbp)
   14222:	7e d1                	jle    141f5 <func_83+0x2e1>
   14224:	83 85 70 fb ff ff 01 	addl   $0x1,-0x490(%rbp)
   1422b:	83 bd 70 fb ff ff 00 	cmpl   $0x0,-0x490(%rbp)
   14232:	7e b5                	jle    141e9 <func_83+0x2d5>
   14234:	c7 85 70 fb ff ff 00 	movl   $0x0,-0x490(%rbp)
   1423b:	00 00 00 
   1423e:	eb 1e                	jmp    1425e <func_83+0x34a>
   14240:	8b 85 70 fb ff ff    	mov    -0x490(%rbp),%eax
   14246:	48 98                	cltq   
   14248:	48 8d 95 a8 fb ff ff 	lea    -0x458(%rbp),%rdx
   1424f:	48 89 94 c5 40 fc ff 	mov    %rdx,-0x3c0(%rbp,%rax,8)
   14256:	ff 
   14257:	83 85 70 fb ff ff 01 	addl   $0x1,-0x490(%rbp)
   1425e:	83 bd 70 fb ff ff 02 	cmpl   $0x2,-0x490(%rbp)
   14265:	7e d9                	jle    14240 <func_83+0x32c>
   14267:	c7 85 70 fb ff ff 00 	movl   $0x0,-0x490(%rbp)
   1426e:	00 00 00 
   14271:	eb 1a                	jmp    1428d <func_83+0x379>
   14273:	8b 85 70 fb ff ff    	mov    -0x490(%rbp),%eax
   14279:	48 98                	cltq   
   1427b:	c7 84 85 60 fc ff ff 	movl   $0x0,-0x3a0(%rbp,%rax,4)
   14282:	00 00 00 00 
   14286:	83 85 70 fb ff ff 01 	addl   $0x1,-0x490(%rbp)
   1428d:	83 bd 70 fb ff ff 05 	cmpl   $0x5,-0x490(%rbp)
   14294:	7e dd                	jle    14273 <func_83+0x35f>
   14296:	c7 85 70 fb ff ff 00 	movl   $0x0,-0x490(%rbp)
   1429d:	00 00 00 
   142a0:	eb 25                	jmp    142c7 <func_83+0x3b3>
   142a2:	8b 85 70 fb ff ff    	mov    -0x490(%rbp),%eax
   142a8:	48 98                	cltq   
   142aa:	48 8d 95 20 fd ff ff 	lea    -0x2e0(%rbp),%rdx
   142b1:	48 81 c2 20 01 00 00 	add    $0x120,%rdx
   142b8:	48 89 94 c5 b0 fc ff 	mov    %rdx,-0x350(%rbp,%rax,8)
   142bf:	ff 
   142c0:	83 85 70 fb ff ff 01 	addl   $0x1,-0x490(%rbp)
   142c7:	83 bd 70 fb ff ff 04 	cmpl   $0x4,-0x490(%rbp)
   142ce:	7e d2                	jle    142a2 <func_83+0x38e>
   142d0:	8b 85 9c fb ff ff    	mov    -0x464(%rbp),%eax
   142d6:	48 8b 75 f8          	mov    -0x8(%rbp),%rsi
   142da:	64 48 33 34 25 28 00 	xor    %fs:0x28,%rsi
   142e1:	00 00 
   142e3:	74 05                	je     142ea <func_83+0x3d6>
   142e5:	e8 86 7d ff ff       	callq  c070 <__stack_chk_fail@plt>
   142ea:	c9                   	leaveq 
   142eb:	c3                   	retq   

00000000000142ec <func_94>:
   142ec:	f3 0f 1e fa          	endbr64 
   142f0:	55                   	push   %rbp
   142f1:	48 89 e5             	mov    %rsp,%rbp
   142f4:	41 54                	push   %r12
   142f6:	53                   	push   %rbx
   142f7:	48 81 ec c0 06 00 00 	sub    $0x6c0,%rsp
   142fe:	89 c8                	mov    %ecx,%eax
   14300:	89 f9                	mov    %edi,%ecx
   14302:	88 8d 3c f9 ff ff    	mov    %cl,-0x6c4(%rbp)
   14308:	89 f1                	mov    %esi,%ecx
   1430a:	88 8d 38 f9 ff ff    	mov    %cl,-0x6c8(%rbp)
   14310:	88 95 34 f9 ff ff    	mov    %dl,-0x6cc(%rbp)
   14316:	88 85 30 f9 ff ff    	mov    %al,-0x6d0(%rbp)
   1431c:	64 48 8b 04 25 28 00 	mov    %fs:0x28,%rax
   14323:	00 00 
   14325:	48 89 45 e8          	mov    %rax,-0x18(%rbp)
   14329:	31 c0                	xor    %eax,%eax
   1432b:	48 8d 05 22 6d 00 00 	lea    0x6d22(%rip),%rax        # 1b054 <g_65+0x14>
   14332:	48 89 85 78 f9 ff ff 	mov    %rax,-0x688(%rbp)
   14339:	c7 85 4c f9 ff ff 06 	movl   $0xdd226a06,-0x6b4(%rbp)
   14340:	6a 22 dd 
   14343:	48 8d 05 8e 8a 00 00 	lea    0x8a8e(%rip),%rax        # 1cdd8 <g_241>
   1434a:	48 89 85 e8 f9 ff ff 	mov    %rax,-0x618(%rbp)
   14351:	48 c7 85 f0 f9 ff ff 	movq   $0x1,-0x610(%rbp)
   14358:	01 00 00 00 
   1435c:	48 8d 85 78 f9 ff ff 	lea    -0x688(%rbp),%rax
   14363:	48 89 85 80 f9 ff ff 	mov    %rax,-0x680(%rbp)
   1436a:	48 8d 85 80 f9 ff ff 	lea    -0x680(%rbp),%rax
   14371:	48 89 85 88 f9 ff ff 	mov    %rax,-0x678(%rbp)
   14378:	48 8d 85 88 f9 ff ff 	lea    -0x678(%rbp),%rax
   1437f:	48 89 85 90 f9 ff ff 	mov    %rax,-0x670(%rbp)
   14386:	48 8d 85 90 f9 ff ff 	lea    -0x670(%rbp),%rax
   1438d:	48 89 85 c0 fa ff ff 	mov    %rax,-0x540(%rbp)
   14394:	48 8d 85 90 f9 ff ff 	lea    -0x670(%rbp),%rax
   1439b:	48 89 85 c8 fa ff ff 	mov    %rax,-0x538(%rbp)
   143a2:	48 8d 85 90 f9 ff ff 	lea    -0x670(%rbp),%rax
   143a9:	48 89 85 d0 fa ff ff 	mov    %rax,-0x530(%rbp)
   143b0:	48 8d 85 90 f9 ff ff 	lea    -0x670(%rbp),%rax
   143b7:	48 89 85 d8 fa ff ff 	mov    %rax,-0x528(%rbp)
   143be:	48 8d 85 90 f9 ff ff 	lea    -0x670(%rbp),%rax
   143c5:	48 89 85 e0 fa ff ff 	mov    %rax,-0x520(%rbp)
   143cc:	48 8d 85 90 f9 ff ff 	lea    -0x670(%rbp),%rax
   143d3:	48 89 85 e8 fa ff ff 	mov    %rax,-0x518(%rbp)
   143da:	48 8d 85 90 f9 ff ff 	lea    -0x670(%rbp),%rax
   143e1:	48 89 85 f0 fa ff ff 	mov    %rax,-0x510(%rbp)
   143e8:	48 8d 85 90 f9 ff ff 	lea    -0x670(%rbp),%rax
   143ef:	48 89 85 f8 fa ff ff 	mov    %rax,-0x508(%rbp)
   143f6:	48 8d 85 90 f9 ff ff 	lea    -0x670(%rbp),%rax
   143fd:	48 89 85 00 fb ff ff 	mov    %rax,-0x500(%rbp)
   14404:	48 8d 85 90 f9 ff ff 	lea    -0x670(%rbp),%rax
   1440b:	48 89 85 08 fb ff ff 	mov    %rax,-0x4f8(%rbp)
   14412:	48 8d 85 90 f9 ff ff 	lea    -0x670(%rbp),%rax
   14419:	48 89 85 10 fb ff ff 	mov    %rax,-0x4f0(%rbp)
   14420:	48 8d 85 90 f9 ff ff 	lea    -0x670(%rbp),%rax
   14427:	48 89 85 18 fb ff ff 	mov    %rax,-0x4e8(%rbp)
   1442e:	48 8d 85 90 f9 ff ff 	lea    -0x670(%rbp),%rax
   14435:	48 89 85 20 fb ff ff 	mov    %rax,-0x4e0(%rbp)
   1443c:	48 8d 85 90 f9 ff ff 	lea    -0x670(%rbp),%rax
   14443:	48 89 85 28 fb ff ff 	mov    %rax,-0x4d8(%rbp)
   1444a:	48 8d 85 90 f9 ff ff 	lea    -0x670(%rbp),%rax
   14451:	48 89 85 30 fb ff ff 	mov    %rax,-0x4d0(%rbp)
   14458:	48 8d 85 90 f9 ff ff 	lea    -0x670(%rbp),%rax
   1445f:	48 89 85 38 fb ff ff 	mov    %rax,-0x4c8(%rbp)
   14466:	48 c7 85 98 f9 ff ff 	movq   $0x0,-0x668(%rbp)
   1446d:	00 00 00 00 
   14471:	48 8d 85 98 f9 ff ff 	lea    -0x668(%rbp),%rax
   14478:	48 89 85 d0 f9 ff ff 	mov    %rax,-0x630(%rbp)
   1447f:	48 c7 85 d8 f9 ff ff 	movq   $0x0,-0x628(%rbp)
   14486:	00 00 00 00 
   1448a:	48 8d 05 3f 6c 00 00 	lea    0x6c3f(%rip),%rax        # 1b0d0 <g_190>
   14491:	48 89 85 e0 f9 ff ff 	mov    %rax,-0x620(%rbp)
   14498:	48 c7 85 c8 f9 ff ff 	movq   $0x0,-0x638(%rbp)
   1449f:	00 00 00 00 
   144a3:	48 8d 05 7e c0 00 00 	lea    0xc07e(%rip),%rax        # 20528 <g_149>
   144aa:	48 89 85 00 fc ff ff 	mov    %rax,-0x400(%rbp)
   144b1:	48 8d 05 0c 70 00 00 	lea    0x700c(%rip),%rax        # 1b4c4 <g_618>
   144b8:	48 89 85 08 fc ff ff 	mov    %rax,-0x3f8(%rbp)
   144bf:	48 8d 05 62 c0 00 00 	lea    0xc062(%rip),%rax        # 20528 <g_149>
   144c6:	48 89 85 10 fc ff ff 	mov    %rax,-0x3f0(%rbp)
   144cd:	48 8d 05 54 c0 00 00 	lea    0xc054(%rip),%rax        # 20528 <g_149>
   144d4:	48 89 85 18 fc ff ff 	mov    %rax,-0x3e8(%rbp)
   144db:	48 8d 05 e2 6f 00 00 	lea    0x6fe2(%rip),%rax        # 1b4c4 <g_618>
   144e2:	48 89 85 20 fc ff ff 	mov    %rax,-0x3e0(%rbp)
   144e9:	48 8d 05 38 c0 00 00 	lea    0xc038(%rip),%rax        # 20528 <g_149>
   144f0:	48 89 85 28 fc ff ff 	mov    %rax,-0x3d8(%rbp)
   144f7:	48 8d 05 2a c0 00 00 	lea    0xc02a(%rip),%rax        # 20528 <g_149>
   144fe:	48 89 85 30 fc ff ff 	mov    %rax,-0x3d0(%rbp)
   14505:	48 8d 05 b8 6f 00 00 	lea    0x6fb8(%rip),%rax        # 1b4c4 <g_618>
   1450c:	48 89 85 38 fc ff ff 	mov    %rax,-0x3c8(%rbp)
   14513:	48 8d 05 aa 6f 00 00 	lea    0x6faa(%rip),%rax        # 1b4c4 <g_618>
   1451a:	48 89 85 40 fc ff ff 	mov    %rax,-0x3c0(%rbp)
   14521:	48 8d 05 00 c0 00 00 	lea    0xc000(%rip),%rax        # 20528 <g_149>
   14528:	48 89 85 48 fc ff ff 	mov    %rax,-0x3b8(%rbp)
   1452f:	48 8d 05 8e 6f 00 00 	lea    0x6f8e(%rip),%rax        # 1b4c4 <g_618>
   14536:	48 89 85 50 fc ff ff 	mov    %rax,-0x3b0(%rbp)
   1453d:	48 8d 05 80 6f 00 00 	lea    0x6f80(%rip),%rax        # 1b4c4 <g_618>
   14544:	48 89 85 58 fc ff ff 	mov    %rax,-0x3a8(%rbp)
   1454b:	48 8d 05 d6 bf 00 00 	lea    0xbfd6(%rip),%rax        # 20528 <g_149>
   14552:	48 89 85 60 fc ff ff 	mov    %rax,-0x3a0(%rbp)
   14559:	48 8d 05 c8 bf 00 00 	lea    0xbfc8(%rip),%rax        # 20528 <g_149>
   14560:	48 89 85 68 fc ff ff 	mov    %rax,-0x398(%rbp)
   14567:	48 8d 05 ba bf 00 00 	lea    0xbfba(%rip),%rax        # 20528 <g_149>
   1456e:	48 89 85 70 fc ff ff 	mov    %rax,-0x390(%rbp)
   14575:	48 8d 05 ac bf 00 00 	lea    0xbfac(%rip),%rax        # 20528 <g_149>
   1457c:	48 89 85 78 fc ff ff 	mov    %rax,-0x388(%rbp)
   14583:	48 8d 05 9e bf 00 00 	lea    0xbf9e(%rip),%rax        # 20528 <g_149>
   1458a:	48 89 85 80 fc ff ff 	mov    %rax,-0x380(%rbp)
   14591:	48 8d 05 90 bf 00 00 	lea    0xbf90(%rip),%rax        # 20528 <g_149>
   14598:	48 89 85 88 fc ff ff 	mov    %rax,-0x378(%rbp)
   1459f:	48 8d 05 82 bf 00 00 	lea    0xbf82(%rip),%rax        # 20528 <g_149>
   145a6:	48 89 85 90 fc ff ff 	mov    %rax,-0x370(%rbp)
   145ad:	48 8d 05 74 bf 00 00 	lea    0xbf74(%rip),%rax        # 20528 <g_149>
   145b4:	48 89 85 98 fc ff ff 	mov    %rax,-0x368(%rbp)
   145bb:	48 8d 05 66 bf 00 00 	lea    0xbf66(%rip),%rax        # 20528 <g_149>
   145c2:	48 89 85 a0 fc ff ff 	mov    %rax,-0x360(%rbp)
   145c9:	48 8d 05 58 bf 00 00 	lea    0xbf58(%rip),%rax        # 20528 <g_149>
   145d0:	48 89 85 a8 fc ff ff 	mov    %rax,-0x358(%rbp)
   145d7:	48 8d 05 4a bf 00 00 	lea    0xbf4a(%rip),%rax        # 20528 <g_149>
   145de:	48 89 85 b0 fc ff ff 	mov    %rax,-0x350(%rbp)
   145e5:	48 8d 05 3c bf 00 00 	lea    0xbf3c(%rip),%rax        # 20528 <g_149>
   145ec:	48 89 85 b8 fc ff ff 	mov    %rax,-0x348(%rbp)
   145f3:	48 8d 05 2e bf 00 00 	lea    0xbf2e(%rip),%rax        # 20528 <g_149>
   145fa:	48 89 85 c0 fc ff ff 	mov    %rax,-0x340(%rbp)
   14601:	48 8d 05 20 bf 00 00 	lea    0xbf20(%rip),%rax        # 20528 <g_149>
   14608:	48 89 85 c8 fc ff ff 	mov    %rax,-0x338(%rbp)
   1460f:	48 8d 05 12 bf 00 00 	lea    0xbf12(%rip),%rax        # 20528 <g_149>
   14616:	48 89 85 d0 fc ff ff 	mov    %rax,-0x330(%rbp)
   1461d:	48 8d 05 04 bf 00 00 	lea    0xbf04(%rip),%rax        # 20528 <g_149>
   14624:	48 89 85 d8 fc ff ff 	mov    %rax,-0x328(%rbp)
   1462b:	48 c7 85 b8 f9 ff ff 	movq   $0x0,-0x648(%rbp)
   14632:	00 00 00 00 
   14636:	48 8d 05 8b 6a 00 00 	lea    0x6a8b(%rip),%rax        # 1b0c8 <g_176>
   1463d:	48 89 85 a0 f9 ff ff 	mov    %rax,-0x660(%rbp)
   14644:	c7 85 50 f9 ff ff 62 	movl   $0xaa319762,-0x6b0(%rbp)
   1464b:	97 31 aa 
   1464e:	48 c7 85 c0 f9 ff ff 	movq   $0x0,-0x640(%rbp)
   14655:	00 00 00 00 
   14659:	c7 85 54 f9 ff ff ed 	movl   $0x7f3835ed,-0x6ac(%rbp)
   14660:	35 38 7f 
   14663:	c7 85 58 f9 ff ff 00 	movl   $0x0,-0x6a8(%rbp)
   1466a:	00 00 00 
   1466d:	eb 1e                	jmp    1468d <func_94+0x3a1>
   1466f:	8b 85 58 f9 ff ff    	mov    -0x6a8(%rbp),%eax
   14675:	48 98                	cltq   
   14677:	48 8d 15 ae 69 00 00 	lea    0x69ae(%rip),%rdx        # 1b02c <g_36>
   1467e:	48 89 94 c5 60 fa ff 	mov    %rdx,-0x5a0(%rbp,%rax,8)
   14685:	ff 
   14686:	83 85 58 f9 ff ff 01 	addl   $0x1,-0x6a8(%rbp)
   1468d:	83 bd 58 f9 ff ff 01 	cmpl   $0x1,-0x6a8(%rbp)
   14694:	7e d9                	jle    1466f <func_94+0x383>
   14696:	c7 05 2c 6a 00 00 e2 	movl   $0xffffffe2,0x6a2c(%rip)        # 1b0cc <g_179>
   1469d:	ff ff ff 
   146a0:	e9 6e 08 00 00       	jmpq   14f13 <func_94+0xc27>
   146a5:	66 c7 85 48 f9 ff ff 	movw   $0x0,-0x6b8(%rbp)
   146ac:	00 00 
   146ae:	c7 85 6c f9 ff ff 00 	movl   $0x0,-0x694(%rbp)
   146b5:	00 00 00 
   146b8:	48 c7 85 f8 f9 ff ff 	movq   $0x0,-0x608(%rbp)
   146bf:	00 00 00 00 
   146c3:	48 8d 05 62 69 00 00 	lea    0x6962(%rip),%rax        # 1b02c <g_36>
   146ca:	48 89 85 00 fa ff ff 	mov    %rax,-0x600(%rbp)
   146d1:	c7 85 70 f9 ff ff 75 	movl   $0x47f47375,-0x690(%rbp)
   146d8:	73 f4 47 
   146db:	48 8d 05 8e 86 00 00 	lea    0x868e(%rip),%rax        # 1cd70 <g_159>
   146e2:	48 89 85 08 fa ff ff 	mov    %rax,-0x5f8(%rbp)
   146e9:	48 c7 85 10 fa ff ff 	movq   $0x0,-0x5f0(%rbp)
   146f0:	00 00 00 00 
   146f4:	66 c7 05 2d be 00 00 	movw   $0x0,0xbe2d(%rip)        # 2052a <g_152>
   146fb:	00 00 
   146fd:	e9 0d 03 00 00       	jmpq   14a0f <func_94+0x723>
   14702:	48 c7 85 28 fa ff ff 	movq   $0xffffffffffffffff,-0x5d8(%rbp)
   14709:	ff ff ff ff 
   1470d:	48 c7 85 30 fa ff ff 	movq   $0x0,-0x5d0(%rbp)
   14714:	00 00 00 00 
   14718:	48 c7 85 38 fa ff ff 	movq   $0x0,-0x5c8(%rbp)
   1471f:	00 00 00 00 
   14723:	48 c7 85 40 fa ff ff 	movq   $0x0,-0x5c0(%rbp)
   1472a:	00 00 00 00 
   1472e:	48 8d 85 48 f9 ff ff 	lea    -0x6b8(%rbp),%rax
   14735:	48 89 85 48 fa ff ff 	mov    %rax,-0x5b8(%rbp)
   1473c:	66 c7 85 4a f9 ff ff 	movw   $0x206b,-0x6b6(%rbp)
   14743:	6b 20 
   14745:	48 8d 85 4c f9 ff ff 	lea    -0x6b4(%rbp),%rax
   1474c:	48 89 85 50 fa ff ff 	mov    %rax,-0x5b0(%rbp)
   14753:	48 c7 85 a8 f9 ff ff 	movq   $0x0,-0x658(%rbp)
   1475a:	00 00 00 00 
   1475e:	48 8d 85 a8 f9 ff ff 	lea    -0x658(%rbp),%rax
   14765:	48 89 85 b0 f9 ff ff 	mov    %rax,-0x650(%rbp)
   1476c:	48 8d 85 b0 f9 ff ff 	lea    -0x650(%rbp),%rax
   14773:	48 89 85 40 fb ff ff 	mov    %rax,-0x4c0(%rbp)
   1477a:	48 8d 85 b0 f9 ff ff 	lea    -0x650(%rbp),%rax
   14781:	48 89 85 48 fb ff ff 	mov    %rax,-0x4b8(%rbp)
   14788:	48 8d 85 b0 f9 ff ff 	lea    -0x650(%rbp),%rax
   1478f:	48 89 85 50 fb ff ff 	mov    %rax,-0x4b0(%rbp)
   14796:	48 8d 85 b0 f9 ff ff 	lea    -0x650(%rbp),%rax
   1479d:	48 89 85 58 fb ff ff 	mov    %rax,-0x4a8(%rbp)
   147a4:	48 8d 85 b0 f9 ff ff 	lea    -0x650(%rbp),%rax
   147ab:	48 89 85 60 fb ff ff 	mov    %rax,-0x4a0(%rbp)
   147b2:	48 8d 85 b0 f9 ff ff 	lea    -0x650(%rbp),%rax
   147b9:	48 89 85 68 fb ff ff 	mov    %rax,-0x498(%rbp)
   147c0:	48 8d 85 b0 f9 ff ff 	lea    -0x650(%rbp),%rax
   147c7:	48 89 85 70 fb ff ff 	mov    %rax,-0x490(%rbp)
   147ce:	48 8d 85 b0 f9 ff ff 	lea    -0x650(%rbp),%rax
   147d5:	48 89 85 78 fb ff ff 	mov    %rax,-0x488(%rbp)
   147dc:	48 8d 85 b0 f9 ff ff 	lea    -0x650(%rbp),%rax
   147e3:	48 89 85 80 fb ff ff 	mov    %rax,-0x480(%rbp)
   147ea:	48 8d 85 b0 f9 ff ff 	lea    -0x650(%rbp),%rax
   147f1:	48 89 85 88 fb ff ff 	mov    %rax,-0x478(%rbp)
   147f8:	48 8d 85 b0 f9 ff ff 	lea    -0x650(%rbp),%rax
   147ff:	48 89 85 90 fb ff ff 	mov    %rax,-0x470(%rbp)
   14806:	48 8d 85 b0 f9 ff ff 	lea    -0x650(%rbp),%rax
   1480d:	48 89 85 98 fb ff ff 	mov    %rax,-0x468(%rbp)
   14814:	48 8d 85 b0 f9 ff ff 	lea    -0x650(%rbp),%rax
   1481b:	48 89 85 a0 fb ff ff 	mov    %rax,-0x460(%rbp)
   14822:	48 8d 85 b0 f9 ff ff 	lea    -0x650(%rbp),%rax
   14829:	48 89 85 a8 fb ff ff 	mov    %rax,-0x458(%rbp)
   14830:	48 8d 85 b0 f9 ff ff 	lea    -0x650(%rbp),%rax
   14837:	48 89 85 b0 fb ff ff 	mov    %rax,-0x450(%rbp)
   1483e:	48 8d 85 b0 f9 ff ff 	lea    -0x650(%rbp),%rax
   14845:	48 89 85 b8 fb ff ff 	mov    %rax,-0x448(%rbp)
   1484c:	48 8d 85 b0 f9 ff ff 	lea    -0x650(%rbp),%rax
   14853:	48 89 85 c0 fb ff ff 	mov    %rax,-0x440(%rbp)
   1485a:	48 8d 85 b0 f9 ff ff 	lea    -0x650(%rbp),%rax
   14861:	48 89 85 c8 fb ff ff 	mov    %rax,-0x438(%rbp)
   14868:	48 8d 85 b0 f9 ff ff 	lea    -0x650(%rbp),%rax
   1486f:	48 89 85 d0 fb ff ff 	mov    %rax,-0x430(%rbp)
   14876:	48 8d 85 b0 f9 ff ff 	lea    -0x650(%rbp),%rax
   1487d:	48 89 85 d8 fb ff ff 	mov    %rax,-0x428(%rbp)
   14884:	48 8d 85 b0 f9 ff ff 	lea    -0x650(%rbp),%rax
   1488b:	48 89 85 e0 fb ff ff 	mov    %rax,-0x420(%rbp)
   14892:	48 8d 85 b0 f9 ff ff 	lea    -0x650(%rbp),%rax
   14899:	48 89 85 e8 fb ff ff 	mov    %rax,-0x418(%rbp)
   148a0:	48 8d 85 b0 f9 ff ff 	lea    -0x650(%rbp),%rax
   148a7:	48 89 85 f0 fb ff ff 	mov    %rax,-0x410(%rbp)
   148ae:	48 8d 85 b0 f9 ff ff 	lea    -0x650(%rbp),%rax
   148b5:	48 89 85 f8 fb ff ff 	mov    %rax,-0x408(%rbp)
   148bc:	48 8d 85 e0 fc ff ff 	lea    -0x320(%rbp),%rax
   148c3:	48 8d 15 36 83 00 00 	lea    0x8336(%rip),%rdx        # 1cc00 <g_3870+0x1448>
   148ca:	b9 2a 00 00 00       	mov    $0x2a,%ecx
   148cf:	48 89 c7             	mov    %rax,%rdi
   148d2:	48 89 d6             	mov    %rdx,%rsi
   148d5:	f3 48 a5             	rep movsq %ds:(%rsi),%es:(%rdi)
   148d8:	c7 85 68 f9 ff ff 00 	movl   $0x0,-0x698(%rbp)
   148df:	00 00 00 
   148e2:	eb 75                	jmp    14959 <func_94+0x66d>
   148e4:	c7 85 64 f9 ff ff 00 	movl   $0x0,-0x69c(%rbp)
   148eb:	00 00 00 
   148ee:	eb 59                	jmp    14949 <func_94+0x65d>
   148f0:	c7 85 5c f9 ff ff 00 	movl   $0x0,-0x6a4(%rbp)
   148f7:	00 00 00 
   148fa:	eb 3d                	jmp    14939 <func_94+0x64d>
   148fc:	8b 85 5c f9 ff ff    	mov    -0x6a4(%rbp),%eax
   14902:	48 63 c8             	movslq %eax,%rcx
   14905:	8b 85 68 f9 ff ff    	mov    -0x698(%rbp),%eax
   1490b:	48 63 d0             	movslq %eax,%rdx
   1490e:	8b 85 64 f9 ff ff    	mov    -0x69c(%rbp),%eax
   14914:	48 98                	cltq   
   14916:	48 01 c2             	add    %rax,%rdx
   14919:	48 89 d0             	mov    %rdx,%rax
   1491c:	48 c1 e0 03          	shl    $0x3,%rax
   14920:	48 01 d0             	add    %rdx,%rax
   14923:	48 01 c8             	add    %rcx,%rax
   14926:	48 c7 84 c5 30 fe ff 	movq   $0x0,-0x1d0(%rbp,%rax,8)
   1492d:	ff 00 00 00 00 
   14932:	83 85 5c f9 ff ff 01 	addl   $0x1,-0x6a4(%rbp)
   14939:	83 bd 5c f9 ff ff 08 	cmpl   $0x8,-0x6a4(%rbp)
   14940:	7e ba                	jle    148fc <func_94+0x610>
   14942:	83 85 64 f9 ff ff 01 	addl   $0x1,-0x69c(%rbp)
   14949:	83 bd 64 f9 ff ff 00 	cmpl   $0x0,-0x69c(%rbp)
   14950:	7e 9e                	jle    148f0 <func_94+0x604>
   14952:	83 85 68 f9 ff ff 01 	addl   $0x1,-0x698(%rbp)
   14959:	83 bd 68 f9 ff ff 05 	cmpl   $0x5,-0x698(%rbp)
   14960:	7e 82                	jle    148e4 <func_94+0x5f8>
   14962:	c7 85 68 f9 ff ff 00 	movl   $0x0,-0x698(%rbp)
   14969:	00 00 00 
   1496c:	eb 1b                	jmp    14989 <func_94+0x69d>
   1496e:	8b 85 68 f9 ff ff    	mov    -0x698(%rbp),%eax
   14974:	48 98                	cltq   
   14976:	48 c7 84 c5 70 fa ff 	movq   $0x0,-0x590(%rbp,%rax,8)
   1497d:	ff 00 00 00 00 
   14982:	83 85 68 f9 ff ff 01 	addl   $0x1,-0x698(%rbp)
   14989:	83 bd 68 f9 ff ff 01 	cmpl   $0x1,-0x698(%rbp)
   14990:	7e dc                	jle    1496e <func_94+0x682>
   14992:	c7 85 68 f9 ff ff 00 	movl   $0x0,-0x698(%rbp)
   14999:	00 00 00 
   1499c:	eb 1e                	jmp    149bc <func_94+0x6d0>
   1499e:	8b 85 68 f9 ff ff    	mov    -0x698(%rbp),%eax
   149a4:	48 98                	cltq   
   149a6:	48 8d 15 d3 69 00 00 	lea    0x69d3(%rip),%rdx        # 1b380 <g_340>
   149ad:	48 89 94 c5 80 fa ff 	mov    %rdx,-0x580(%rbp,%rax,8)
   149b4:	ff 
   149b5:	83 85 68 f9 ff ff 01 	addl   $0x1,-0x698(%rbp)
   149bc:	83 bd 68 f9 ff ff 06 	cmpl   $0x6,-0x698(%rbp)
   149c3:	7e d9                	jle    1499e <func_94+0x6b2>
   149c5:	c7 85 68 f9 ff ff 00 	movl   $0x0,-0x698(%rbp)
   149cc:	00 00 00 
   149cf:	eb 1a                	jmp    149eb <func_94+0x6ff>
   149d1:	8b 85 68 f9 ff ff    	mov    -0x698(%rbp),%eax
   149d7:	48 98                	cltq   
   149d9:	c7 84 85 5c fa ff ff 	movl   $0x0,-0x5a4(%rbp,%rax,4)
   149e0:	00 00 00 00 
   149e4:	83 85 68 f9 ff ff 01 	addl   $0x1,-0x698(%rbp)
   149eb:	83 bd 68 f9 ff ff 00 	cmpl   $0x0,-0x698(%rbp)
   149f2:	7e dd                	jle    149d1 <func_94+0x6e5>
   149f4:	0f b7 05 2f bb 00 00 	movzwl 0xbb2f(%rip),%eax        # 2052a <g_152>
   149fb:	98                   	cwtl   
   149fc:	be 01 00 00 00       	mov    $0x1,%esi
   14a01:	89 c7                	mov    %eax,%edi
   14a03:	e8 fd 7b ff ff       	callq  c605 <safe_sub_func_int32_t_s_s>
   14a08:	66 89 05 1b bb 00 00 	mov    %ax,0xbb1b(%rip)        # 2052a <g_152>
   14a0f:	0f b7 05 14 bb 00 00 	movzwl 0xbb14(%rip),%eax        # 2052a <g_152>
   14a16:	66 83 f8 ec          	cmp    $0xffec,%ax
   14a1a:	0f 8c e2 fc ff ff    	jl     14702 <func_94+0x416>
   14a20:	48 8b 05 99 83 00 00 	mov    0x8399(%rip),%rax        # 1cdc0 <g_219>
   14a27:	48 8b 00             	mov    (%rax),%rax
   14a2a:	8b 00                	mov    (%rax),%eax
   14a2c:	85 c0                	test   %eax,%eax
   14a2e:	0f 84 6c 03 00 00    	je     14da0 <func_94+0xab4>
   14a34:	c7 85 60 f9 ff ff 00 	movl   $0x0,-0x6a0(%rbp)
   14a3b:	00 00 00 
   14a3e:	eb 1b                	jmp    14a5b <func_94+0x76f>
   14a40:	8b 85 60 f9 ff ff    	mov    -0x6a0(%rbp),%eax
   14a46:	48 98                	cltq   
   14a48:	48 c7 84 c5 e0 fc ff 	movq   $0x1,-0x320(%rbp,%rax,8)
   14a4f:	ff 01 00 00 00 
   14a54:	83 85 60 f9 ff ff 01 	addl   $0x1,-0x6a0(%rbp)
   14a5b:	83 bd 60 f9 ff ff 02 	cmpl   $0x2,-0x6a0(%rbp)
   14a62:	7e dc                	jle    14a40 <func_94+0x754>
   14a64:	48 8b 85 e8 fc ff ff 	mov    -0x318(%rbp),%rax
   14a6b:	48 85 c0             	test   %rax,%rax
   14a6e:	0f 84 41 02 00 00    	je     14cb5 <func_94+0x9c9>
   14a74:	c7 85 30 fe ff ff ff 	movl   $0xffffffff,-0x1d0(%rbp)
   14a7b:	ff ff ff 
   14a7e:	c7 85 34 fe ff ff ff 	movl   $0xffffffff,-0x1cc(%rbp)
   14a85:	ff ff ff 
   14a88:	c7 85 38 fe ff ff 03 	movl   $0x3,-0x1c8(%rbp)
   14a8f:	00 00 00 
   14a92:	c7 85 3c fe ff ff ca 	movl   $0x42d31dca,-0x1c4(%rbp)
   14a99:	1d d3 42 
   14a9c:	c7 85 40 fe ff ff 4e 	movl   $0xee56a34e,-0x1c0(%rbp)
   14aa3:	a3 56 ee 
   14aa6:	c7 85 44 fe ff ff 74 	movl   $0x147b7374,-0x1bc(%rbp)
   14aad:	73 7b 14 
   14ab0:	c7 85 48 fe ff ff 4e 	movl   $0xee56a34e,-0x1b8(%rbp)
   14ab7:	a3 56 ee 
   14aba:	c7 85 4c fe ff ff ca 	movl   $0x42d31dca,-0x1b4(%rbp)
   14ac1:	1d d3 42 
   14ac4:	c7 85 50 fe ff ff 03 	movl   $0x3,-0x1b0(%rbp)
   14acb:	00 00 00 
   14ace:	c7 85 54 fe ff ff ff 	movl   $0xffffffff,-0x1ac(%rbp)
   14ad5:	ff ff ff 
   14ad8:	c7 85 58 fe ff ff ff 	movl   $0xffffffff,-0x1a8(%rbp)
   14adf:	ff ff ff 
   14ae2:	c7 85 5c fe ff ff ff 	movl   $0xffffffff,-0x1a4(%rbp)
   14ae9:	ff ff ff 
   14aec:	c7 85 60 fe ff ff 03 	movl   $0x3,-0x1a0(%rbp)
   14af3:	00 00 00 
   14af6:	c7 85 64 fe ff ff ca 	movl   $0x42d31dca,-0x19c(%rbp)
   14afd:	1d d3 42 
   14b00:	c7 85 68 fe ff ff 4e 	movl   $0xee56a34e,-0x198(%rbp)
   14b07:	a3 56 ee 
   14b0a:	c7 85 6c fe ff ff 74 	movl   $0x147b7374,-0x194(%rbp)
   14b11:	73 7b 14 
   14b14:	c7 85 70 fe ff ff 4e 	movl   $0xee56a34e,-0x190(%rbp)
   14b1b:	a3 56 ee 
   14b1e:	c7 85 74 fe ff ff ca 	movl   $0x42d31dca,-0x18c(%rbp)
   14b25:	1d d3 42 
   14b28:	c7 85 78 fe ff ff 03 	movl   $0x3,-0x188(%rbp)
   14b2f:	00 00 00 
   14b32:	c7 85 7c fe ff ff ff 	movl   $0xffffffff,-0x184(%rbp)
   14b39:	ff ff ff 
   14b3c:	c7 85 80 fe ff ff ff 	movl   $0xffffffff,-0x180(%rbp)
   14b43:	ff ff ff 
   14b46:	c7 85 84 fe ff ff ff 	movl   $0xffffffff,-0x17c(%rbp)
   14b4d:	ff ff ff 
   14b50:	c7 85 88 fe ff ff 03 	movl   $0x3,-0x178(%rbp)
   14b57:	00 00 00 
   14b5a:	c7 85 8c fe ff ff ca 	movl   $0x42d31dca,-0x174(%rbp)
   14b61:	1d d3 42 
   14b64:	c7 85 90 fe ff ff 4e 	movl   $0xee56a34e,-0x170(%rbp)
   14b6b:	a3 56 ee 
   14b6e:	c7 85 94 fe ff ff 74 	movl   $0x147b7374,-0x16c(%rbp)
   14b75:	73 7b 14 
   14b78:	c7 85 98 fe ff ff 4e 	movl   $0xee56a34e,-0x168(%rbp)
   14b7f:	a3 56 ee 
   14b82:	c7 85 9c fe ff ff ca 	movl   $0x42d31dca,-0x164(%rbp)
   14b89:	1d d3 42 
   14b8c:	c7 85 a0 fe ff ff 03 	movl   $0x3,-0x160(%rbp)
   14b93:	00 00 00 
   14b96:	c7 85 a4 fe ff ff ff 	movl   $0xffffffff,-0x15c(%rbp)
   14b9d:	ff ff ff 
   14ba0:	c7 85 a8 fe ff ff ff 	movl   $0xffffffff,-0x158(%rbp)
   14ba7:	ff ff ff 
   14baa:	c7 85 ac fe ff ff ff 	movl   $0xffffffff,-0x154(%rbp)
   14bb1:	ff ff ff 
   14bb4:	c7 85 b0 fe ff ff 03 	movl   $0x3,-0x150(%rbp)
   14bbb:	00 00 00 
   14bbe:	c7 85 b4 fe ff ff ca 	movl   $0x42d31dca,-0x14c(%rbp)
   14bc5:	1d d3 42 
   14bc8:	c7 85 b8 fe ff ff 4e 	movl   $0xee56a34e,-0x148(%rbp)
   14bcf:	a3 56 ee 
   14bd2:	c7 85 bc fe ff ff 74 	movl   $0x147b7374,-0x144(%rbp)
   14bd9:	73 7b 14 
   14bdc:	c7 85 c0 fe ff ff 4e 	movl   $0xee56a34e,-0x140(%rbp)
   14be3:	a3 56 ee 
   14be6:	c7 85 c4 fe ff ff ca 	movl   $0x42d31dca,-0x13c(%rbp)
   14bed:	1d d3 42 
   14bf0:	c7 85 c8 fe ff ff 03 	movl   $0x3,-0x138(%rbp)
   14bf7:	00 00 00 
   14bfa:	c7 85 cc fe ff ff ff 	movl   $0xffffffff,-0x134(%rbp)
   14c01:	ff ff ff 
   14c04:	c7 85 d0 fe ff ff ff 	movl   $0xffffffff,-0x130(%rbp)
   14c0b:	ff ff ff 
   14c0e:	c7 85 d4 fe ff ff ff 	movl   $0xffffffff,-0x12c(%rbp)
   14c15:	ff ff ff 
   14c18:	c7 85 d8 fe ff ff 03 	movl   $0x3,-0x128(%rbp)
   14c1f:	00 00 00 
   14c22:	c7 85 dc fe ff ff ca 	movl   $0x42d31dca,-0x124(%rbp)
   14c29:	1d d3 42 
   14c2c:	c7 85 e0 fe ff ff 4e 	movl   $0xee56a34e,-0x120(%rbp)
   14c33:	a3 56 ee 
   14c36:	c7 85 e4 fe ff ff 74 	movl   $0x147b7374,-0x11c(%rbp)
   14c3d:	73 7b 14 
   14c40:	c7 85 e8 fe ff ff 4e 	movl   $0xee56a34e,-0x118(%rbp)
   14c47:	a3 56 ee 
   14c4a:	c7 85 ec fe ff ff ca 	movl   $0x42d31dca,-0x114(%rbp)
   14c51:	1d d3 42 
   14c54:	8b 85 a4 fe ff ff    	mov    -0x15c(%rbp),%eax
   14c5a:	83 c0 01             	add    $0x1,%eax
   14c5d:	89 85 a4 fe ff ff    	mov    %eax,-0x15c(%rbp)
   14c63:	80 bd 30 f9 ff ff 00 	cmpb   $0x0,-0x6d0(%rbp)
   14c6a:	0f 85 b1 02 00 00    	jne    14f21 <func_94+0xc35>
   14c70:	48 8b 85 e8 f9 ff ff 	mov    -0x618(%rbp),%rax
   14c77:	48 8b 10             	mov    (%rax),%rdx
   14c7a:	48 8b 85 e8 f9 ff ff 	mov    -0x618(%rbp),%rax
   14c81:	48 89 10             	mov    %rdx,(%rax)
   14c84:	be 00 00 00 00       	mov    $0x0,%esi
   14c89:	bf f1 f4 ff ff       	mov    $0xfffff4f1,%edi
   14c8e:	e8 d0 78 ff ff       	callq  c563 <safe_rshift_func_int16_t_s_u>
   14c93:	48 8b 15 46 81 00 00 	mov    0x8146(%rip),%rdx        # 1cde0 <g_284>
   14c9a:	48 8b 12             	mov    (%rdx),%rdx
   14c9d:	8b 0a                	mov    (%rdx),%ecx
   14c9f:	0f bf d0             	movswl %ax,%edx
   14ca2:	48 8b 05 37 81 00 00 	mov    0x8137(%rip),%rax        # 1cde0 <g_284>
   14ca9:	48 8b 00             	mov    (%rax),%rax
   14cac:	31 ca                	xor    %ecx,%edx
   14cae:	89 10                	mov    %edx,(%rax)
   14cb0:	e9 d4 00 00 00       	jmpq   14d89 <func_94+0xa9d>
   14cb5:	c7 85 6c f9 ff ff 00 	movl   $0x0,-0x694(%rbp)
   14cbc:	00 00 00 
   14cbf:	e9 8e 00 00 00       	jmpq   14d52 <func_94+0xa66>
   14cc4:	c6 05 f5 63 00 00 00 	movb   $0x0,0x63f5(%rip)        # 1b0c0 <g_121>
   14ccb:	eb 73                	jmp    14d40 <func_94+0xa54>
   14ccd:	c6 85 34 f9 ff ff 00 	movb   $0x0,-0x6cc(%rbp)
   14cd4:	eb 51                	jmp    14d27 <func_94+0xa3b>
   14cd6:	0f b6 05 e3 63 00 00 	movzbl 0x63e3(%rip),%eax        # 1b0c0 <g_121>
   14cdd:	0f b6 c0             	movzbl %al,%eax
   14ce0:	0f b6 95 34 f9 ff ff 	movzbl -0x6cc(%rbp),%edx
   14ce7:	48 63 ca             	movslq %edx,%rcx
   14cea:	8b 95 6c f9 ff ff    	mov    -0x694(%rbp),%edx
   14cf0:	48 63 d2             	movslq %edx,%rdx
   14cf3:	48 63 f0             	movslq %eax,%rsi
   14cf6:	48 89 d0             	mov    %rdx,%rax
   14cf9:	48 01 c0             	add    %rax,%rax
   14cfc:	48 01 d0             	add    %rdx,%rax
   14cff:	48 01 f0             	add    %rsi,%rax
   14d02:	48 c1 e0 02          	shl    $0x2,%rax
   14d06:	48 01 c8             	add    %rcx,%rax
   14d09:	48 8d 14 c5 00 00 00 	lea    0x0(,%rax,8),%rdx
   14d10:	00 
   14d11:	48 8d 05 c8 63 00 00 	lea    0x63c8(%rip),%rax        # 1b0e0 <g_291>
   14d18:	48 c7 04 02 07 00 00 	movq   $0x7,(%rdx,%rax,1)
   14d1f:	00 
   14d20:	80 85 34 f9 ff ff 01 	addb   $0x1,-0x6cc(%rbp)
   14d27:	80 bd 34 f9 ff ff 03 	cmpb   $0x3,-0x6cc(%rbp)
   14d2e:	76 a6                	jbe    14cd6 <func_94+0x9ea>
   14d30:	0f b6 05 89 63 00 00 	movzbl 0x6389(%rip),%eax        # 1b0c0 <g_121>
   14d37:	83 c0 01             	add    $0x1,%eax
   14d3a:	88 05 80 63 00 00    	mov    %al,0x6380(%rip)        # 1b0c0 <g_121>
   14d40:	0f b6 05 79 63 00 00 	movzbl 0x6379(%rip),%eax        # 1b0c0 <g_121>
   14d47:	3c 02                	cmp    $0x2,%al
   14d49:	76 82                	jbe    14ccd <func_94+0x9e1>
   14d4b:	83 85 6c f9 ff ff 01 	addl   $0x1,-0x694(%rbp)
   14d52:	83 bd 6c f9 ff ff 06 	cmpl   $0x6,-0x694(%rbp)
   14d59:	0f 8e 65 ff ff ff    	jle    14cc4 <func_94+0x9d8>
   14d5f:	48 8b 05 8a 80 00 00 	mov    0x808a(%rip),%rax        # 1cdf0 <g_466>
   14d66:	8b 00                	mov    (%rax),%eax
   14d68:	85 c0                	test   %eax,%eax
   14d6a:	74 1d                	je     14d89 <func_94+0xa9d>
   14d6c:	8b 05 5a 63 00 00    	mov    0x635a(%rip),%eax        # 1b0cc <g_179>
   14d72:	be 07 00 00 00       	mov    $0x7,%esi
   14d77:	89 c7                	mov    %eax,%edi
   14d79:	e8 3a 81 ff ff       	callq  ceb8 <safe_add_func_uint32_t_u_u>
   14d7e:	89 05 48 63 00 00    	mov    %eax,0x6348(%rip)        # 1b0cc <g_179>
   14d84:	e9 8a 01 00 00       	jmpq   14f13 <func_94+0xc27>
   14d89:	48 8b 15 d0 7f 00 00 	mov    0x7fd0(%rip),%rdx        # 1cd60 <g_154>
   14d90:	48 8b 05 21 80 00 00 	mov    0x8021(%rip),%rax        # 1cdb8 <g_220>
   14d97:	8b 12                	mov    (%rdx),%edx
   14d99:	89 10                	mov    %edx,(%rax)
   14d9b:	e9 26 01 00 00       	jmpq   14ec6 <func_94+0xbda>
   14da0:	48 8d 05 d9 65 00 00 	lea    0x65d9(%rip),%rax        # 1b380 <g_340>
   14da7:	48 89 85 18 fa ff ff 	mov    %rax,-0x5e8(%rbp)
   14dae:	c7 85 74 f9 ff ff c9 	movl   $0x7c5db8c9,-0x68c(%rbp)
   14db5:	b8 5d 7c 
   14db8:	48 8d 05 01 63 00 00 	lea    0x6301(%rip),%rax        # 1b0c0 <g_121>
   14dbf:	48 89 85 20 fa ff ff 	mov    %rax,-0x5e0(%rbp)
   14dc6:	48 8b 85 18 fa ff ff 	mov    -0x5e8(%rbp),%rax
   14dcd:	48 8b 00             	mov    (%rax),%rax
   14dd0:	48 83 c8 01          	or     $0x1,%rax
   14dd4:	48 89 c2             	mov    %rax,%rdx
   14dd7:	48 8b 85 18 fa ff ff 	mov    -0x5e8(%rbp),%rax
   14dde:	48 89 10             	mov    %rdx,(%rax)
   14de1:	48 8b 85 18 fa ff ff 	mov    -0x5e8(%rbp),%rax
   14de8:	48 8b 00             	mov    (%rax),%rax
   14deb:	48 f7 d0             	not    %rax
   14dee:	49 89 c4             	mov    %rax,%r12
   14df1:	83 bd 70 f9 ff ff 00 	cmpl   $0x0,-0x690(%rbp)
   14df8:	75 76                	jne    14e70 <func_94+0xb84>
   14dfa:	8b 9d 74 f9 ff ff    	mov    -0x68c(%rbp),%ebx
   14e00:	48 0f be 95 30 f9 ff 	movsbq -0x6d0(%rbp),%rdx
   14e07:	ff 
   14e08:	0f b6 85 34 f9 ff ff 	movzbl -0x6cc(%rbp),%eax
   14e0f:	3a 85 3c f9 ff ff    	cmp    -0x6c4(%rbp),%al
   14e15:	0f 95 c0             	setne  %al
   14e18:	0f b6 c8             	movzbl %al,%ecx
   14e1b:	0f b6 85 3c f9 ff ff 	movzbl -0x6c4(%rbp),%eax
   14e22:	09 c1                	or     %eax,%ecx
   14e24:	0f b6 85 34 f9 ff ff 	movzbl -0x6cc(%rbp),%eax
   14e2b:	39 c1                	cmp    %eax,%ecx
   14e2d:	0f 94 c0             	sete   %al
   14e30:	0f b6 c0             	movzbl %al,%eax
   14e33:	48 89 d6             	mov    %rdx,%rsi
   14e36:	48 89 c7             	mov    %rax,%rdi
   14e39:	e8 71 82 ff ff       	callq  d0af <safe_div_func_uint64_t_u_u>
   14e3e:	0f b6 c0             	movzbl %al,%eax
   14e41:	89 de                	mov    %ebx,%esi
   14e43:	89 c7                	mov    %eax,%edi
   14e45:	e8 74 7e ff ff       	callq  ccbe <safe_rshift_func_uint8_t_u_u>
   14e4a:	48 8b 95 20 fa ff ff 	mov    -0x5e0(%rbp),%rdx
   14e51:	88 02                	mov    %al,(%rdx)
   14e53:	83 bd 74 f9 ff ff 00 	cmpl   $0x0,-0x68c(%rbp)
   14e5a:	0f 9e c0             	setle  %al
   14e5d:	0f b6 c0             	movzbl %al,%eax
   14e60:	89 c6                	mov    %eax,%esi
   14e62:	bf a4 12 eb 7d       	mov    $0x7deb12a4,%edi
   14e67:	e8 4c 80 ff ff       	callq  ceb8 <safe_add_func_uint32_t_u_u>
   14e6c:	85 c0                	test   %eax,%eax
   14e6e:	74 07                	je     14e77 <func_94+0xb8b>
   14e70:	ba 01 00 00 00       	mov    $0x1,%edx
   14e75:	eb 05                	jmp    14e7c <func_94+0xb90>
   14e77:	ba 00 00 00 00       	mov    $0x0,%edx
   14e7c:	0f b7 05 a7 b6 00 00 	movzwl 0xb6a7(%rip),%eax        # 2052a <g_152>
   14e83:	98                   	cwtl   
   14e84:	39 c2                	cmp    %eax,%edx
   14e86:	0f 9c c0             	setl   %al
   14e89:	0f b6 d0             	movzbl %al,%edx
   14e8c:	8b 05 ae 61 00 00    	mov    0x61ae(%rip),%eax        # 1b040 <g_65>
   14e92:	98                   	cwtl   
   14e93:	0f b6 c0             	movzbl %al,%eax
   14e96:	89 d6                	mov    %edx,%esi
   14e98:	89 c7                	mov    %eax,%edi
   14e9a:	e8 56 75 ff ff       	callq  c3f5 <safe_mul_func_int16_t_s_s>
   14e9f:	0f b7 c0             	movzwl %ax,%eax
   14ea2:	89 c6                	mov    %eax,%esi
   14ea4:	bf ff ff 00 00       	mov    $0xffff,%edi
   14ea9:	e8 71 7e ff ff       	callq  cd1f <safe_sub_func_uint16_t_u_u>
   14eae:	0f b7 c0             	movzwl %ax,%eax
   14eb1:	49 39 c4             	cmp    %rax,%r12
   14eb4:	0f 95 c2             	setne  %dl
   14eb7:	48 8b 05 22 7f 00 00 	mov    0x7f22(%rip),%rax        # 1cde0 <g_284>
   14ebe:	48 8b 00             	mov    (%rax),%rax
   14ec1:	0f b6 d2             	movzbl %dl,%edx
   14ec4:	89 10                	mov    %edx,(%rax)
   14ec6:	48 8b 85 88 f9 ff ff 	mov    -0x678(%rbp),%rax
   14ecd:	48 8b 00             	mov    (%rax),%rax
   14ed0:	48 8b 00             	mov    (%rax),%rax
   14ed3:	8b 00                	mov    (%rax),%eax
   14ed5:	89 c3                	mov    %eax,%ebx
   14ed7:	0f b6 85 34 f9 ff ff 	movzbl -0x6cc(%rbp),%eax
   14ede:	48 8b 95 90 f9 ff ff 	mov    -0x670(%rbp),%rdx
   14ee5:	48 8b 12             	mov    (%rdx),%rdx
   14ee8:	48 8b 12             	mov    (%rdx),%rdx
   14eeb:	48 8b 12             	mov    (%rdx),%rdx
   14eee:	8b 12                	mov    (%rdx),%edx
   14ef0:	89 c6                	mov    %eax,%esi
   14ef2:	89 d7                	mov    %edx,%edi
   14ef4:	e8 bf 7f ff ff       	callq  ceb8 <safe_add_func_uint32_t_u_u>
   14ef9:	39 c3                	cmp    %eax,%ebx
   14efb:	0f 93 c0             	setae  %al
   14efe:	0f b6 c0             	movzbl %al,%eax
   14f01:	09 85 70 f9 ff ff    	or     %eax,-0x690(%rbp)
   14f07:	0f b6 85 34 f9 ff ff 	movzbl -0x6cc(%rbp),%eax
   14f0e:	e9 79 01 00 00       	jmpq   1508c <func_94+0xda0>
   14f13:	8b 05 b3 61 00 00    	mov    0x61b3(%rip),%eax        # 1b0cc <g_179>
   14f19:	85 c0                	test   %eax,%eax
   14f1b:	0f 89 84 f7 ff ff    	jns    146a5 <func_94+0x3b9>
   14f21:	48 8b 05 b8 7e 00 00 	mov    0x7eb8(%rip),%rax        # 1cde0 <g_284>
   14f28:	48 c7 00 00 00 00 00 	movq   $0x0,(%rax)
   14f2f:	48 8b 05 42 7e 00 00 	mov    0x7e42(%rip),%rax        # 1cd78 <g_158>
   14f36:	48 8b 00             	mov    (%rax),%rax
   14f39:	48 8b 00             	mov    (%rax),%rax
   14f3c:	0f b7 00             	movzwl (%rax),%eax
   14f3f:	0f bf d8             	movswl %ax,%ebx
   14f42:	be fc 00 00 00       	mov    $0xfc,%esi
   14f47:	bf 00 00 00 00       	mov    $0x0,%edi
   14f4c:	e8 09 7c ff ff       	callq  cb5a <safe_add_func_uint8_t_u_u>
   14f51:	0f b6 95 38 f9 ff ff 	movzbl -0x6c8(%rbp),%edx
   14f58:	48 8b 85 e0 f9 ff ff 	mov    -0x620(%rbp),%rax
   14f5f:	88 10                	mov    %dl,(%rax)
   14f61:	48 8b 85 e0 f9 ff ff 	mov    -0x620(%rbp),%rax
   14f68:	0f b6 10             	movzbl (%rax),%edx
   14f6b:	48 8b 85 90 f9 ff ff 	mov    -0x670(%rbp),%rax
   14f72:	48 8b 00             	mov    (%rax),%rax
   14f75:	48 8b 00             	mov    (%rax),%rax
   14f78:	48 8b 00             	mov    (%rax),%rax
   14f7b:	8b 08                	mov    (%rax),%ecx
   14f7d:	0f be d2             	movsbl %dl,%edx
   14f80:	48 8b 85 90 f9 ff ff 	mov    -0x670(%rbp),%rax
   14f87:	48 8b 00             	mov    (%rax),%rax
   14f8a:	48 8b 00             	mov    (%rax),%rax
   14f8d:	48 8b 00             	mov    (%rax),%rax
   14f90:	21 ca                	and    %ecx,%edx
   14f92:	89 10                	mov    %edx,(%rax)
   14f94:	48 8b 15 2d 7e 00 00 	mov    0x7e2d(%rip),%rdx        # 1cdc8 <g_243>
   14f9b:	48 8b 05 36 7e 00 00 	mov    0x7e36(%rip),%rax        # 1cdd8 <g_241>
   14fa2:	48 8b 00             	mov    (%rax),%rax
   14fa5:	48 8b 00             	mov    (%rax),%rax
   14fa8:	48 8b 12             	mov    (%rdx),%rdx
   14fab:	48 89 10             	mov    %rdx,(%rax)
   14fae:	48 8b 00             	mov    (%rax),%rax
   14fb1:	48 c7 85 b8 f9 ff ff 	movq   $0x0,-0x648(%rbp)
   14fb8:	00 00 00 00 
   14fbc:	48 39 85 b8 f9 ff ff 	cmp    %rax,-0x648(%rbp)
   14fc3:	0f 95 c0             	setne  %al
   14fc6:	0f b6 d0             	movzbl %al,%edx
   14fc9:	0f b6 85 34 f9 ff ff 	movzbl -0x6cc(%rbp),%eax
   14fd0:	39 c2                	cmp    %eax,%edx
   14fd2:	0f 94 c0             	sete   %al
   14fd5:	0f b6 c0             	movzbl %al,%eax
   14fd8:	48 c7 c6 ff ff ff ff 	mov    $0xffffffffffffffff,%rsi
   14fdf:	48 89 c7             	mov    %rax,%rdi
   14fe2:	e8 47 80 ff ff       	callq  d02e <safe_add_func_uint64_t_u_u>
   14fe7:	48 8b 85 90 f9 ff ff 	mov    -0x670(%rbp),%rax
   14fee:	48 8b 00             	mov    (%rax),%rax
   14ff1:	48 8b 00             	mov    (%rax),%rax
   14ff4:	48 8b 00             	mov    (%rax),%rax
   14ff7:	44 8b 20             	mov    (%rax),%r12d
   14ffa:	0f b6 95 34 f9 ff ff 	movzbl -0x6cc(%rbp),%edx
   15001:	66 0f be 85 30 f9 ff 	movsbw -0x6d0(%rbp),%ax
   15008:	ff 
   15009:	0f b7 c0             	movzwl %ax,%eax
   1500c:	89 d6                	mov    %edx,%esi
   1500e:	89 c7                	mov    %eax,%edi
   15010:	e8 28 7d ff ff       	callq  cd3d <safe_mul_func_uint16_t_u_u>
   15015:	98                   	cwtl   
   15016:	44 89 e6             	mov    %r12d,%esi
   15019:	89 c7                	mov    %eax,%edi
   1501b:	e8 0a 75 ff ff       	callq  c52a <safe_rshift_func_int16_t_s_s>
   15020:	48 8d 85 98 f9 ff ff 	lea    -0x668(%rbp),%rax
   15027:	48 39 85 d0 f9 ff ff 	cmp    %rax,-0x630(%rbp)
   1502e:	0f 94 c0             	sete   %al
   15031:	0f b6 c0             	movzbl %al,%eax
   15034:	89 c7                	mov    %eax,%edi
   15036:	e8 5b 75 ff ff       	callq  c596 <safe_unary_minus_func_int32_t_s>
   1503b:	89 c2                	mov    %eax,%edx
   1503d:	48 8b 85 a0 f9 ff ff 	mov    -0x660(%rbp),%rax
   15044:	66 89 10             	mov    %dx,(%rax)
   15047:	0f b7 00             	movzwl (%rax),%eax
   1504a:	0f b7 d0             	movzwl %ax,%edx
   1504d:	8b 05 7d 64 00 00    	mov    0x647d(%rip),%eax        # 1b4d0 <g_766>
   15053:	31 d0                	xor    %edx,%eax
   15055:	89 05 75 64 00 00    	mov    %eax,0x6475(%rip)        # 1b4d0 <g_766>
   1505b:	8b 05 6f 64 00 00    	mov    0x646f(%rip),%eax        # 1b4d0 <g_766>
   15061:	0f b7 c0             	movzwl %ax,%eax
   15064:	89 de                	mov    %ebx,%esi
   15066:	89 c7                	mov    %eax,%edi
   15068:	e8 db 7d ff ff       	callq  ce48 <safe_rshift_func_uint16_t_u_s>
   1506d:	c6 85 47 f9 ff ff 09 	movb   $0x9,-0x6b9(%rbp)
   15074:	0f b6 85 47 f9 ff ff 	movzbl -0x6b9(%rbp),%eax
   1507b:	83 c0 01             	add    $0x1,%eax
   1507e:	88 85 47 f9 ff ff    	mov    %al,-0x6b9(%rbp)
   15084:	8b 05 46 64 00 00    	mov    0x6446(%rip),%eax        # 1b4d0 <g_766>
   1508a:	89 c0                	mov    %eax,%eax
   1508c:	48 8b 5d e8          	mov    -0x18(%rbp),%rbx
   15090:	64 48 33 1c 25 28 00 	xor    %fs:0x28,%rbx
   15097:	00 00 
   15099:	74 05                	je     150a0 <func_94+0xdb4>
   1509b:	e8 d0 6f ff ff       	callq  c070 <__stack_chk_fail@plt>
   150a0:	48 81 c4 c0 06 00 00 	add    $0x6c0,%rsp
   150a7:	5b                   	pop    %rbx
   150a8:	41 5c                	pop    %r12
   150aa:	5d                   	pop    %rbp
   150ab:	c3                   	retq   

00000000000150ac <func_105>:
   150ac:	f3 0f 1e fa          	endbr64 
   150b0:	55                   	push   %rbp
   150b1:	48 89 e5             	mov    %rsp,%rbp
   150b4:	41 55                	push   %r13
   150b6:	41 54                	push   %r12
   150b8:	53                   	push   %rbx
   150b9:	48 81 ec 88 04 00 00 	sub    $0x488,%rsp
   150c0:	89 bd 6c fb ff ff    	mov    %edi,-0x494(%rbp)
   150c6:	48 89 b5 60 fb ff ff 	mov    %rsi,-0x4a0(%rbp)
   150cd:	64 48 8b 04 25 28 00 	mov    %fs:0x28,%rax
   150d4:	00 00 
   150d6:	48 89 45 d8          	mov    %rax,-0x28(%rbp)
   150da:	31 c0                	xor    %eax,%eax
   150dc:	48 c7 85 a8 fb ff ff 	movq   $0xfffffffffffffff6,-0x458(%rbp)
   150e3:	f6 ff ff ff 
   150e7:	c7 85 7c fb ff ff 09 	movl   $0x9,-0x484(%rbp)
   150ee:	00 00 00 
   150f1:	48 b8 a8 98 b9 68 2d 	movabs $0x27581f2d68b998a8,%rax
   150f8:	1f 58 27 
   150fb:	48 89 85 d8 fb ff ff 	mov    %rax,-0x428(%rbp)
   15102:	c6 85 79 fb ff ff a6 	movb   $0xa6,-0x487(%rbp)
   15109:	c7 85 80 fb ff ff ff 	movl   $0xffffffff,-0x480(%rbp)
   15110:	ff ff ff 
   15113:	c7 85 84 fb ff ff 70 	movl   $0xc57e4f70,-0x47c(%rbp)
   1511a:	4f 7e c5 
   1511d:	48 8d 05 00 5f 00 00 	lea    0x5f00(%rip),%rax        # 1b024 <g_14>
   15124:	48 89 85 b0 fb ff ff 	mov    %rax,-0x450(%rbp)
   1512b:	48 8d 85 b0 fb ff ff 	lea    -0x450(%rbp),%rax
   15132:	48 89 85 e0 fb ff ff 	mov    %rax,-0x420(%rbp)
   15139:	c7 85 90 fb ff ff 05 	movl   $0x5,-0x470(%rbp)
   15140:	00 00 00 
   15143:	c7 85 94 fb ff ff 58 	movl   $0xecaed458,-0x46c(%rbp)
   1514a:	d4 ae ec 
   1514d:	c7 85 90 fc ff ff ef 	movl   $0xa00ea8ef,-0x370(%rbp)
   15154:	a8 0e a0 
   15157:	c7 85 94 fc ff ff ef 	movl   $0xa00ea8ef,-0x36c(%rbp)
   1515e:	a8 0e a0 
   15161:	c7 85 98 fc ff ff 04 	movl   $0x4,-0x368(%rbp)
   15168:	00 00 00 
   1516b:	c7 85 9c fc ff ff ef 	movl   $0xa00ea8ef,-0x364(%rbp)
   15172:	a8 0e a0 
   15175:	c7 85 a0 fc ff ff ef 	movl   $0xa00ea8ef,-0x360(%rbp)
   1517c:	a8 0e a0 
   1517f:	c7 85 a4 fc ff ff 04 	movl   $0x4,-0x35c(%rbp)
   15186:	00 00 00 
   15189:	c7 85 a8 fc ff ff ef 	movl   $0xa00ea8ef,-0x358(%rbp)
   15190:	a8 0e a0 
   15193:	48 b8 8b bf 41 6b 1e 	movabs $0xc969621e6b41bf8b,%rax
   1519a:	62 69 c9 
   1519d:	48 89 85 e8 fb ff ff 	mov    %rax,-0x418(%rbp)
   151a4:	c7 85 6c fb ff ff 00 	movl   $0x0,-0x494(%rbp)
   151ab:	00 00 00 
   151ae:	e9 ad 01 00 00       	jmpq   15360 <func_105+0x2b4>
   151b3:	48 8d 05 6e b3 00 00 	lea    0xb36e(%rip),%rax        # 20528 <g_149>
   151ba:	48 89 85 68 fc ff ff 	mov    %rax,-0x398(%rbp)
   151c1:	48 8d 05 00 5f 00 00 	lea    0x5f00(%rip),%rax        # 1b0c8 <g_176>
   151c8:	48 89 85 70 fc ff ff 	mov    %rax,-0x390(%rbp)
   151cf:	48 8d 05 ce 5e 00 00 	lea    0x5ece(%rip),%rax        # 1b0a4 <g_65+0x64>
   151d6:	48 89 85 78 fc ff ff 	mov    %rax,-0x388(%rbp)
   151dd:	48 8d 05 e8 5e 00 00 	lea    0x5ee8(%rip),%rax        # 1b0cc <g_179>
   151e4:	48 89 85 80 fc ff ff 	mov    %rax,-0x380(%rbp)
   151eb:	c7 85 a4 fb ff ff 2c 	movl   $0x211f742c,-0x45c(%rbp)
   151f2:	74 1f 21 
   151f5:	c7 85 88 fb ff ff 00 	movl   $0x0,-0x478(%rbp)
   151fc:	00 00 00 
   151ff:	eb 1e                	jmp    1521f <func_105+0x173>
   15201:	8b 85 88 fb ff ff    	mov    -0x478(%rbp),%eax
   15207:	48 98                	cltq   
   15209:	48 8d 15 b4 5e 00 00 	lea    0x5eb4(%rip),%rdx        # 1b0c4 <g_155>
   15210:	48 89 94 c5 90 fd ff 	mov    %rdx,-0x270(%rbp,%rax,8)
   15217:	ff 
   15218:	83 85 88 fb ff ff 01 	addl   $0x1,-0x478(%rbp)
   1521f:	83 bd 88 fb ff ff 04 	cmpl   $0x4,-0x478(%rbp)
   15226:	7e d9                	jle    15201 <func_105+0x155>
   15228:	0f b7 05 fd 5d 00 00 	movzwl 0x5dfd(%rip),%eax        # 1b02c <g_36>
   1522f:	66 85 c0             	test   %ax,%ax
   15232:	0f 95 c0             	setne  %al
   15235:	0f b6 c0             	movzbl %al,%eax
   15238:	48 63 d0             	movslq %eax,%rdx
   1523b:	48 8b 85 a8 fb ff ff 	mov    -0x458(%rbp),%rax
   15242:	48 39 c2             	cmp    %rax,%rdx
   15245:	0f 9e c0             	setle  %al
   15248:	0f b6 d0             	movzbl %al,%edx
   1524b:	48 8b 05 0e 7b 00 00 	mov    0x7b0e(%rip),%rax        # 1cd60 <g_154>
   15252:	8b 00                	mov    (%rax),%eax
   15254:	39 c2                	cmp    %eax,%edx
   15256:	7d 07                	jge    1525f <func_105+0x1b3>
   15258:	ba 05 00 00 00       	mov    $0x5,%edx
   1525d:	eb 05                	jmp    15264 <func_105+0x1b8>
   1525f:	ba 04 00 00 00       	mov    $0x4,%edx
   15264:	48 8b 85 78 fc ff ff 	mov    -0x388(%rbp),%rax
   1526b:	89 10                	mov    %edx,(%rax)
   1526d:	48 8b 85 78 fc ff ff 	mov    -0x388(%rbp),%rax
   15274:	8b 10                	mov    (%rax),%edx
   15276:	48 8b 85 80 fc ff ff 	mov    -0x380(%rbp),%rax
   1527d:	8b 00                	mov    (%rax),%eax
   1527f:	31 c2                	xor    %eax,%edx
   15281:	48 8b 85 80 fc ff ff 	mov    -0x380(%rbp),%rax
   15288:	89 10                	mov    %edx,(%rax)
   1528a:	8b 9d 6c fb ff ff    	mov    -0x494(%rbp),%ebx
   15290:	48 8b 85 80 fc ff ff 	mov    -0x380(%rbp),%rax
   15297:	8b 00                	mov    (%rax),%eax
   15299:	89 c2                	mov    %eax,%edx
   1529b:	8b 05 2b 5e 00 00    	mov    0x5e2b(%rip),%eax        # 1b0cc <g_179>
   152a1:	0f b6 c0             	movzbl %al,%eax
   152a4:	89 d6                	mov    %edx,%esi
   152a6:	89 c7                	mov    %eax,%edi
   152a8:	e8 9f 79 ff ff       	callq  cc4c <safe_lshift_func_uint8_t_u_u>
   152ad:	88 05 1d 5e 00 00    	mov    %al,0x5e1d(%rip)        # 1b0d0 <g_190>
   152b3:	0f b6 05 16 5e 00 00 	movzbl 0x5e16(%rip),%eax        # 1b0d0 <g_190>
   152ba:	48 0f be c0          	movsbq %al,%rax
   152be:	48 89 de             	mov    %rbx,%rsi
   152c1:	48 89 c7             	mov    %rax,%rdi
   152c4:	e8 2e 77 ff ff       	callq  c9f7 <safe_div_func_int64_t_s_s>
   152c9:	89 c2                	mov    %eax,%edx
   152cb:	8b 85 6c fb ff ff    	mov    -0x494(%rbp),%eax
   152d1:	89 c1                	mov    %eax,%ecx
   152d3:	48 8b 85 70 fc ff ff 	mov    -0x390(%rbp),%rax
   152da:	66 89 08             	mov    %cx,(%rax)
   152dd:	48 8b 85 70 fc ff ff 	mov    -0x390(%rbp),%rax
   152e4:	0f b7 00             	movzwl (%rax),%eax
   152e7:	0f b7 c0             	movzwl %ax,%eax
   152ea:	89 d6                	mov    %edx,%esi
   152ec:	89 c7                	mov    %eax,%edi
   152ee:	e8 55 7b ff ff       	callq  ce48 <safe_rshift_func_uint16_t_u_s>
   152f3:	0f b7 c0             	movzwl %ax,%eax
   152f6:	be 02 00 00 00       	mov    $0x2,%esi
   152fb:	89 c7                	mov    %eax,%edi
   152fd:	e8 bc 7a ff ff       	callq  cdbe <safe_lshift_func_uint16_t_u_s>
   15302:	66 85 c0             	test   %ax,%ax
   15305:	74 10                	je     15317 <func_105+0x26b>
   15307:	83 bd a4 fb ff ff 00 	cmpl   $0x0,-0x45c(%rbp)
   1530e:	74 07                	je     15317 <func_105+0x26b>
   15310:	b8 01 00 00 00       	mov    $0x1,%eax
   15315:	eb 05                	jmp    1531c <func_105+0x270>
   15317:	b8 00 00 00 00       	mov    $0x0,%eax
   1531c:	0f b7 c0             	movzwl %ax,%eax
   1531f:	be ff ff 00 00       	mov    $0xffff,%esi
   15324:	89 c7                	mov    %eax,%edi
   15326:	e8 12 7a ff ff       	callq  cd3d <safe_mul_func_uint16_t_u_u>
   1532b:	48 8b 85 80 fc ff ff 	mov    -0x380(%rbp),%rax
   15332:	8b 00                	mov    (%rax),%eax
   15334:	83 c8 01             	or     $0x1,%eax
   15337:	89 c2                	mov    %eax,%edx
   15339:	8b 85 7c fb ff ff    	mov    -0x484(%rbp),%eax
   1533f:	31 d0                	xor    %edx,%eax
   15341:	89 85 7c fb ff ff    	mov    %eax,-0x484(%rbp)
   15347:	8b 85 6c fb ff ff    	mov    -0x494(%rbp),%eax
   1534d:	be 02 00 00 00       	mov    $0x2,%esi
   15352:	48 89 c7             	mov    %rax,%rdi
   15355:	e8 e7 74 ff ff       	callq  c841 <safe_add_func_int64_t_s_s>
   1535a:	89 85 6c fb ff ff    	mov    %eax,-0x494(%rbp)
   15360:	83 bd 6c fb ff ff 2e 	cmpl   $0x2e,-0x494(%rbp)
   15367:	0f 86 46 fe ff ff    	jbe    151b3 <func_105+0x107>
   1536d:	48 8b 85 d8 fb ff ff 	mov    -0x428(%rbp),%rax
   15374:	41 89 c4             	mov    %eax,%r12d
   15377:	48 8b 05 32 7a 00 00 	mov    0x7a32(%rip),%rax        # 1cdb0 <g_211>
   1537e:	48 89 05 2b 7a 00 00 	mov    %rax,0x7a2b(%rip)        # 1cdb0 <g_211>
   15385:	48 8b 15 24 7a 00 00 	mov    0x7a24(%rip),%rdx        # 1cdb0 <g_211>
   1538c:	48 8d 85 60 fb ff ff 	lea    -0x4a0(%rbp),%rax
   15393:	48 39 c2             	cmp    %rax,%rdx
   15396:	0f 94 c0             	sete   %al
   15399:	0f b6 d8             	movzbl %al,%ebx
   1539c:	48 8b 05 cd 79 00 00 	mov    0x79cd(%rip),%rax        # 1cd70 <g_159>
   153a3:	48 8b 00             	mov    (%rax),%rax
   153a6:	0f b7 00             	movzwl (%rax),%eax
   153a9:	0f bf d0             	movswl %ax,%edx
   153ac:	48 8b 85 60 fb ff ff 	mov    -0x4a0(%rbp),%rax
   153b3:	0f b7 00             	movzwl (%rax),%eax
   153b6:	98                   	cwtl   
   153b7:	89 d6                	mov    %edx,%esi
   153b9:	89 c7                	mov    %eax,%edi
   153bb:	e8 56 70 ff ff       	callq  c416 <safe_mod_func_int16_t_s_s>
   153c0:	98                   	cwtl   
   153c1:	89 de                	mov    %ebx,%esi
   153c3:	89 c7                	mov    %eax,%edi
   153c5:	e8 1c 7b ff ff       	callq  cee6 <safe_mul_func_uint32_t_u_u>
   153ca:	8b 85 6c fb ff ff    	mov    -0x494(%rbp),%eax
   153d0:	88 05 52 b1 00 00    	mov    %al,0xb152(%rip)        # 20528 <g_149>
   153d6:	0f b6 05 4b b1 00 00 	movzbl 0xb14b(%rip),%eax        # 20528 <g_149>
   153dd:	32 85 79 fb ff ff    	xor    -0x487(%rbp),%al
   153e3:	0f be d0             	movsbl %al,%edx
   153e6:	8b 05 d8 5c 00 00    	mov    0x5cd8(%rip),%eax        # 1b0c4 <g_155>
   153ec:	31 d0                	xor    %edx,%eax
   153ee:	48 63 d0             	movslq %eax,%rdx
   153f1:	48 8b 85 a8 fb ff ff 	mov    -0x458(%rbp),%rax
   153f8:	48 39 c2             	cmp    %rax,%rdx
   153fb:	0f 9e c0             	setle  %al
   153fe:	0f b6 c0             	movzbl %al,%eax
   15401:	48 0b 85 d8 fb ff ff 	or     -0x428(%rbp),%rax
   15408:	48 89 c2             	mov    %rax,%rdx
   1540b:	48 0f be 85 79 fb ff 	movsbq -0x487(%rbp),%rax
   15412:	ff 
   15413:	48 39 c2             	cmp    %rax,%rdx
   15416:	0f 9f c0             	setg   %al
   15419:	0f b6 d0             	movzbl %al,%edx
   1541c:	48 8b 85 a8 fb ff ff 	mov    -0x458(%rbp),%rax
   15423:	48 39 c2             	cmp    %rax,%rdx
   15426:	0f 94 c0             	sete   %al
   15429:	0f b6 c0             	movzbl %al,%eax
   1542c:	39 85 6c fb ff ff    	cmp    %eax,-0x494(%rbp)
   15432:	0f 93 c0             	setae  %al
   15435:	0f b6 d0             	movzbl %al,%edx
   15438:	8b 05 8e 5c 00 00    	mov    0x5c8e(%rip),%eax        # 1b0cc <g_179>
   1543e:	39 c2                	cmp    %eax,%edx
   15440:	0f 94 c0             	sete   %al
   15443:	0f b6 d0             	movzbl %al,%edx
   15446:	0f b7 05 dd b0 00 00 	movzwl 0xb0dd(%rip),%eax        # 2052a <g_152>
   1544d:	98                   	cwtl   
   1544e:	39 c2                	cmp    %eax,%edx
   15450:	0f 95 c0             	setne  %al
   15453:	0f b6 c0             	movzbl %al,%eax
   15456:	44 89 e6             	mov    %r12d,%esi
   15459:	89 c7                	mov    %eax,%edi
   1545b:	e8 e8 79 ff ff       	callq  ce48 <safe_rshift_func_uint16_t_u_s>
   15460:	66 85 c0             	test   %ax,%ax
   15463:	0f 94 c0             	sete   %al
   15466:	0f b6 d0             	movzbl %al,%edx
   15469:	0f b6 05 50 5c 00 00 	movzbl 0x5c50(%rip),%eax        # 1b0c0 <g_121>
   15470:	0f b6 c0             	movzbl %al,%eax
   15473:	39 c2                	cmp    %eax,%edx
   15475:	0f 9d c0             	setge  %al
   15478:	0f b6 d8             	movzbl %al,%ebx
   1547b:	48 0f be 85 79 fb ff 	movsbq -0x487(%rbp),%rax
   15482:	ff 
   15483:	48 89 c7             	mov    %rax,%rdi
   15486:	e8 8e 7b ff ff       	callq  d019 <safe_unary_minus_func_uint64_t_u>
   1548b:	98                   	cwtl   
   1548c:	89 de                	mov    %ebx,%esi
   1548e:	89 c7                	mov    %eax,%edi
   15490:	e8 60 6f ff ff       	callq  c3f5 <safe_mul_func_int16_t_s_s>
   15495:	0f b6 d8             	movzbl %al,%ebx
   15498:	8b 85 7c fb ff ff    	mov    -0x484(%rbp),%eax
   1549e:	0f b7 c0             	movzwl %ax,%eax
   154a1:	be 06 00 00 00       	mov    $0x6,%esi
   154a6:	89 c7                	mov    %eax,%edi
   154a8:	e8 9b 79 ff ff       	callq  ce48 <safe_rshift_func_uint16_t_u_s>
   154ad:	0f b7 c0             	movzwl %ax,%eax
   154b0:	89 85 7c fb ff ff    	mov    %eax,-0x484(%rbp)
   154b6:	8b 85 7c fb ff ff    	mov    -0x484(%rbp),%eax
   154bc:	85 c0                	test   %eax,%eax
   154be:	74 12                	je     154d2 <func_105+0x426>
   154c0:	0f b6 05 09 5c 00 00 	movzbl 0x5c09(%rip),%eax        # 1b0d0 <g_190>
   154c7:	84 c0                	test   %al,%al
   154c9:	74 07                	je     154d2 <func_105+0x426>
   154cb:	b8 01 00 00 00       	mov    $0x1,%eax
   154d0:	eb 05                	jmp    154d7 <func_105+0x42b>
   154d2:	b8 00 00 00 00       	mov    $0x0,%eax
   154d7:	89 c2                	mov    %eax,%edx
   154d9:	48 8b 85 d8 fb ff ff 	mov    -0x428(%rbp),%rax
   154e0:	21 d0                	and    %edx,%eax
   154e2:	0f b6 c0             	movzbl %al,%eax
   154e5:	89 de                	mov    %ebx,%esi
   154e7:	89 c7                	mov    %eax,%edi
   154e9:	e8 a5 76 ff ff       	callq  cb93 <safe_mul_func_uint8_t_u_u>
   154ee:	48 8b 05 6b 78 00 00 	mov    0x786b(%rip),%rax        # 1cd60 <g_154>
   154f5:	8b 10                	mov    (%rax),%edx
   154f7:	8b 85 80 fb ff ff    	mov    -0x480(%rbp),%eax
   154fd:	31 d0                	xor    %edx,%eax
   154ff:	89 85 80 fb ff ff    	mov    %eax,-0x480(%rbp)
   15505:	c7 85 80 fb ff ff e6 	movl   $0xffffffe6,-0x480(%rbp)
   1550c:	ff ff ff 
   1550f:	e9 a7 08 00 00       	jmpq   15dbb <func_105+0xd0f>
   15514:	48 8d 85 80 fb ff ff 	lea    -0x480(%rbp),%rax
   1551b:	48 89 85 90 fd ff ff 	mov    %rax,-0x270(%rbp)
   15522:	48 c7 85 98 fd ff ff 	movq   $0x0,-0x268(%rbp)
   15529:	00 00 00 00 
   1552d:	48 8d 05 44 5b 00 00 	lea    0x5b44(%rip),%rax        # 1b078 <g_65+0x38>
   15534:	48 89 85 a0 fd ff ff 	mov    %rax,-0x260(%rbp)
   1553b:	48 8d 85 80 fb ff ff 	lea    -0x480(%rbp),%rax
   15542:	48 89 85 a8 fd ff ff 	mov    %rax,-0x258(%rbp)
   15549:	48 c7 85 b0 fd ff ff 	movq   $0x0,-0x250(%rbp)
   15550:	00 00 00 00 
   15554:	48 8d 05 69 5b 00 00 	lea    0x5b69(%rip),%rax        # 1b0c4 <g_155>
   1555b:	48 89 85 b8 fd ff ff 	mov    %rax,-0x248(%rbp)
   15562:	48 c7 85 c0 fd ff ff 	movq   $0x0,-0x240(%rbp)
   15569:	00 00 00 00 
   1556d:	48 8d 05 50 5b 00 00 	lea    0x5b50(%rip),%rax        # 1b0c4 <g_155>
   15574:	48 89 85 c8 fd ff ff 	mov    %rax,-0x238(%rbp)
   1557b:	48 c7 85 d0 fd ff ff 	movq   $0x0,-0x230(%rbp)
   15582:	00 00 00 00 
   15586:	48 8d 85 80 fb ff ff 	lea    -0x480(%rbp),%rax
   1558d:	48 89 85 d8 fd ff ff 	mov    %rax,-0x228(%rbp)
   15594:	48 8d 05 31 5b 00 00 	lea    0x5b31(%rip),%rax        # 1b0cc <g_179>
   1559b:	48 89 85 e0 fd ff ff 	mov    %rax,-0x220(%rbp)
   155a2:	48 8d 05 23 5b 00 00 	lea    0x5b23(%rip),%rax        # 1b0cc <g_179>
   155a9:	48 89 85 e8 fd ff ff 	mov    %rax,-0x218(%rbp)
   155b0:	48 8d 85 80 fb ff ff 	lea    -0x480(%rbp),%rax
   155b7:	48 89 85 f0 fd ff ff 	mov    %rax,-0x210(%rbp)
   155be:	48 c7 85 f8 fd ff ff 	movq   $0x0,-0x208(%rbp)
   155c5:	00 00 00 00 
   155c9:	48 c7 85 00 fe ff ff 	movq   $0x0,-0x200(%rbp)
   155d0:	00 00 00 00 
   155d4:	48 8d 05 85 5a 00 00 	lea    0x5a85(%rip),%rax        # 1b060 <g_65+0x20>
   155db:	48 89 85 08 fe ff ff 	mov    %rax,-0x1f8(%rbp)
   155e2:	48 8d 05 db 5a 00 00 	lea    0x5adb(%rip),%rax        # 1b0c4 <g_155>
   155e9:	48 89 85 10 fe ff ff 	mov    %rax,-0x1f0(%rbp)
   155f0:	48 8d 05 d5 5a 00 00 	lea    0x5ad5(%rip),%rax        # 1b0cc <g_179>
   155f7:	48 89 85 18 fe ff ff 	mov    %rax,-0x1e8(%rbp)
   155fe:	48 8d 05 5b 5a 00 00 	lea    0x5a5b(%rip),%rax        # 1b060 <g_65+0x20>
   15605:	48 89 85 20 fe ff ff 	mov    %rax,-0x1e0(%rbp)
   1560c:	48 c7 85 28 fe ff ff 	movq   $0x0,-0x1d8(%rbp)
   15613:	00 00 00 00 
   15617:	48 c7 85 30 fe ff ff 	movq   $0x0,-0x1d0(%rbp)
   1561e:	00 00 00 00 
   15622:	48 8d 05 2b 5a 00 00 	lea    0x5a2b(%rip),%rax        # 1b054 <g_65+0x14>
   15629:	48 89 85 38 fe ff ff 	mov    %rax,-0x1c8(%rbp)
   15630:	48 8d 05 1d 5a 00 00 	lea    0x5a1d(%rip),%rax        # 1b054 <g_65+0x14>
   15637:	48 89 85 40 fe ff ff 	mov    %rax,-0x1c0(%rbp)
   1563e:	48 c7 85 48 fe ff ff 	movq   $0x0,-0x1b8(%rbp)
   15645:	00 00 00 00 
   15649:	48 c7 85 50 fe ff ff 	movq   $0x0,-0x1b0(%rbp)
   15650:	00 00 00 00 
   15654:	48 c7 85 58 fe ff ff 	movq   $0x0,-0x1a8(%rbp)
   1565b:	00 00 00 00 
   1565f:	48 c7 85 60 fe ff ff 	movq   $0x0,-0x1a0(%rbp)
   15666:	00 00 00 00 
   1566a:	48 8d 85 7c fb ff ff 	lea    -0x484(%rbp),%rax
   15671:	48 89 85 68 fe ff ff 	mov    %rax,-0x198(%rbp)
   15678:	48 8d 05 45 5a 00 00 	lea    0x5a45(%rip),%rax        # 1b0c4 <g_155>
   1567f:	48 89 85 70 fe ff ff 	mov    %rax,-0x190(%rbp)
   15686:	48 c7 85 78 fe ff ff 	movq   $0x0,-0x188(%rbp)
   1568d:	00 00 00 00 
   15691:	48 8d 05 bc 59 00 00 	lea    0x59bc(%rip),%rax        # 1b054 <g_65+0x14>
   15698:	48 89 85 80 fe ff ff 	mov    %rax,-0x180(%rbp)
   1569f:	48 c7 85 88 fe ff ff 	movq   $0x0,-0x178(%rbp)
   156a6:	00 00 00 00 
   156aa:	48 8d 05 13 5a 00 00 	lea    0x5a13(%rip),%rax        # 1b0c4 <g_155>
   156b1:	48 89 85 90 fe ff ff 	mov    %rax,-0x170(%rbp)
   156b8:	48 8d 85 7c fb ff ff 	lea    -0x484(%rbp),%rax
   156bf:	48 89 85 98 fe ff ff 	mov    %rax,-0x168(%rbp)
   156c6:	48 8d 05 ff 59 00 00 	lea    0x59ff(%rip),%rax        # 1b0cc <g_179>
   156cd:	48 89 85 a0 fe ff ff 	mov    %rax,-0x160(%rbp)
   156d4:	48 8d 05 e9 59 00 00 	lea    0x59e9(%rip),%rax        # 1b0c4 <g_155>
   156db:	48 89 85 a8 fe ff ff 	mov    %rax,-0x158(%rbp)
   156e2:	48 8d 05 6b 59 00 00 	lea    0x596b(%rip),%rax        # 1b054 <g_65+0x14>
   156e9:	48 89 85 b0 fe ff ff 	mov    %rax,-0x150(%rbp)
   156f0:	48 8d 05 cd 59 00 00 	lea    0x59cd(%rip),%rax        # 1b0c4 <g_155>
   156f7:	48 89 85 b8 fe ff ff 	mov    %rax,-0x148(%rbp)
   156fe:	48 c7 85 c0 fe ff ff 	movq   $0x0,-0x140(%rbp)
   15705:	00 00 00 00 
   15709:	48 8d 85 80 fb ff ff 	lea    -0x480(%rbp),%rax
   15710:	48 89 85 c8 fe ff ff 	mov    %rax,-0x138(%rbp)
   15717:	48 c7 85 d0 fe ff ff 	movq   $0x0,-0x130(%rbp)
   1571e:	00 00 00 00 
   15722:	48 8d 05 4f 59 00 00 	lea    0x594f(%rip),%rax        # 1b078 <g_65+0x38>
   15729:	48 89 85 d8 fe ff ff 	mov    %rax,-0x128(%rbp)
   15730:	48 8d 85 80 fb ff ff 	lea    -0x480(%rbp),%rax
   15737:	48 89 85 e0 fe ff ff 	mov    %rax,-0x120(%rbp)
   1573e:	48 c7 85 e8 fe ff ff 	movq   $0x0,-0x118(%rbp)
   15745:	00 00 00 00 
   15749:	48 8d 05 74 59 00 00 	lea    0x5974(%rip),%rax        # 1b0c4 <g_155>
   15750:	48 89 85 f0 fe ff ff 	mov    %rax,-0x110(%rbp)
   15757:	48 8d 85 7c fb ff ff 	lea    -0x484(%rbp),%rax
   1575e:	48 89 85 f8 fe ff ff 	mov    %rax,-0x108(%rbp)
   15765:	48 c7 85 00 ff ff ff 	movq   $0x0,-0x100(%rbp)
   1576c:	00 00 00 00 
   15770:	48 8d 05 55 59 00 00 	lea    0x5955(%rip),%rax        # 1b0cc <g_179>
   15777:	48 89 85 08 ff ff ff 	mov    %rax,-0xf8(%rbp)
   1577e:	48 8d 85 80 fb ff ff 	lea    -0x480(%rbp),%rax
   15785:	48 89 85 10 ff ff ff 	mov    %rax,-0xf0(%rbp)
   1578c:	48 c7 85 18 ff ff ff 	movq   $0x0,-0xe8(%rbp)
   15793:	00 00 00 00 
   15797:	48 c7 85 20 ff ff ff 	movq   $0x0,-0xe0(%rbp)
   1579e:	00 00 00 00 
   157a2:	48 8d 85 80 fb ff ff 	lea    -0x480(%rbp),%rax
   157a9:	48 89 85 28 ff ff ff 	mov    %rax,-0xd8(%rbp)
   157b0:	48 8d 05 15 59 00 00 	lea    0x5915(%rip),%rax        # 1b0cc <g_179>
   157b7:	48 89 85 30 ff ff ff 	mov    %rax,-0xd0(%rbp)
   157be:	48 c7 85 38 ff ff ff 	movq   $0x0,-0xc8(%rbp)
   157c5:	00 00 00 00 
   157c9:	48 8d 05 90 58 00 00 	lea    0x5890(%rip),%rax        # 1b060 <g_65+0x20>
   157d0:	48 89 85 40 ff ff ff 	mov    %rax,-0xc0(%rbp)
   157d7:	48 8d 05 ee 58 00 00 	lea    0x58ee(%rip),%rax        # 1b0cc <g_179>
   157de:	48 89 85 48 ff ff ff 	mov    %rax,-0xb8(%rbp)
   157e5:	48 8d 05 8c 58 00 00 	lea    0x588c(%rip),%rax        # 1b078 <g_65+0x38>
   157ec:	48 89 85 50 ff ff ff 	mov    %rax,-0xb0(%rbp)
   157f3:	48 c7 85 58 ff ff ff 	movq   $0x0,-0xa8(%rbp)
   157fa:	00 00 00 00 
   157fe:	48 c7 85 60 ff ff ff 	movq   $0x0,-0xa0(%rbp)
   15805:	00 00 00 00 
   15809:	48 8d 05 68 58 00 00 	lea    0x5868(%rip),%rax        # 1b078 <g_65+0x38>
   15810:	48 89 85 68 ff ff ff 	mov    %rax,-0x98(%rbp)
   15817:	48 8d 85 7c fb ff ff 	lea    -0x484(%rbp),%rax
   1581e:	48 89 85 70 ff ff ff 	mov    %rax,-0x90(%rbp)
   15825:	48 c7 85 78 ff ff ff 	movq   $0x0,-0x88(%rbp)
   1582c:	00 00 00 00 
   15830:	48 8d 05 95 58 00 00 	lea    0x5895(%rip),%rax        # 1b0cc <g_179>
   15837:	48 89 45 80          	mov    %rax,-0x80(%rbp)
   1583b:	48 8d 85 80 fb ff ff 	lea    -0x480(%rbp),%rax
   15842:	48 89 45 88          	mov    %rax,-0x78(%rbp)
   15846:	48 c7 45 90 00 00 00 	movq   $0x0,-0x70(%rbp)
   1584d:	00 
   1584e:	48 8d 05 23 58 00 00 	lea    0x5823(%rip),%rax        # 1b078 <g_65+0x38>
   15855:	48 89 45 98          	mov    %rax,-0x68(%rbp)
   15859:	48 8d 85 80 fb ff ff 	lea    -0x480(%rbp),%rax
   15860:	48 89 45 a0          	mov    %rax,-0x60(%rbp)
   15864:	48 c7 45 a8 00 00 00 	movq   $0x0,-0x58(%rbp)
   1586b:	00 
   1586c:	48 8d 05 51 58 00 00 	lea    0x5851(%rip),%rax        # 1b0c4 <g_155>
   15873:	48 89 45 b0          	mov    %rax,-0x50(%rbp)
   15877:	48 c7 45 b8 00 00 00 	movq   $0x0,-0x48(%rbp)
   1587e:	00 
   1587f:	48 8d 05 3e 58 00 00 	lea    0x583e(%rip),%rax        # 1b0c4 <g_155>
   15886:	48 89 45 c0          	mov    %rax,-0x40(%rbp)
   1588a:	48 c7 45 c8 00 00 00 	movq   $0x0,-0x38(%rbp)
   15891:	00 
   15892:	66 c7 85 b0 fc ff ff 	movw   $0xf440,-0x350(%rbp)
   15899:	40 f4 
   1589b:	66 c7 85 b2 fc ff ff 	movw   $0x9887,-0x34e(%rbp)
   158a2:	87 98 
   158a4:	66 c7 85 b4 fc ff ff 	movw   $0x9887,-0x34c(%rbp)
   158ab:	87 98 
   158ad:	66 c7 85 b6 fc ff ff 	movw   $0xf440,-0x34a(%rbp)
   158b4:	40 f4 
   158b6:	66 c7 85 b8 fc ff ff 	movw   $0x377c,-0x348(%rbp)
   158bd:	7c 37 
   158bf:	66 c7 85 ba fc ff ff 	movw   $0xffff,-0x346(%rbp)
   158c6:	ff ff 
   158c8:	66 c7 85 bc fc ff ff 	movw   $0xffff,-0x344(%rbp)
   158cf:	ff ff 
   158d1:	66 c7 85 be fc ff ff 	movw   $0xf440,-0x342(%rbp)
   158d8:	40 f4 
   158da:	66 c7 85 c0 fc ff ff 	movw   $0xfffa,-0x340(%rbp)
   158e1:	fa ff 
   158e3:	66 c7 85 c2 fc ff ff 	movw   $0xf440,-0x33e(%rbp)
   158ea:	40 f4 
   158ec:	66 c7 85 c4 fc ff ff 	movw   $0xffff,-0x33c(%rbp)
   158f3:	ff ff 
   158f5:	66 c7 85 c6 fc ff ff 	movw   $0x0,-0x33a(%rbp)
   158fc:	00 00 
   158fe:	66 c7 85 c8 fc ff ff 	movw   $0xf440,-0x338(%rbp)
   15905:	40 f4 
   15907:	66 c7 85 ca fc ff ff 	movw   $0xffff,-0x336(%rbp)
   1590e:	ff ff 
   15910:	66 c7 85 cc fc ff ff 	movw   $0x0,-0x334(%rbp)
   15917:	00 00 
   15919:	66 c7 85 ce fc ff ff 	movw   $0x0,-0x332(%rbp)
   15920:	00 00 
   15922:	66 c7 85 d0 fc ff ff 	movw   $0xffff,-0x330(%rbp)
   15929:	ff ff 
   1592b:	66 c7 85 d2 fc ff ff 	movw   $0xf440,-0x32e(%rbp)
   15932:	40 f4 
   15934:	66 c7 85 d4 fc ff ff 	movw   $0x9887,-0x32c(%rbp)
   1593b:	87 98 
   1593d:	66 c7 85 d6 fc ff ff 	movw   $0xf440,-0x32a(%rbp)
   15944:	40 f4 
   15946:	66 c7 85 d8 fc ff ff 	movw   $0x377c,-0x328(%rbp)
   1594d:	7c 37 
   1594f:	66 c7 85 da fc ff ff 	movw   $0xffff,-0x326(%rbp)
   15956:	ff ff 
   15958:	66 c7 85 dc fc ff ff 	movw   $0x377c,-0x324(%rbp)
   1595f:	7c 37 
   15961:	66 c7 85 de fc ff ff 	movw   $0xf440,-0x322(%rbp)
   15968:	40 f4 
   1596a:	66 c7 85 e0 fc ff ff 	movw   $0x377c,-0x320(%rbp)
   15971:	7c 37 
   15973:	66 c7 85 e2 fc ff ff 	movw   $0x9887,-0x31e(%rbp)
   1597a:	87 98 
   1597c:	66 c7 85 e4 fc ff ff 	movw   $0x0,-0x31c(%rbp)
   15983:	00 00 
   15985:	66 c7 85 e6 fc ff ff 	movw   $0xfffa,-0x31a(%rbp)
   1598c:	fa ff 
   1598e:	66 c7 85 e8 fc ff ff 	movw   $0xfffa,-0x318(%rbp)
   15995:	fa ff 
   15997:	66 c7 85 ea fc ff ff 	movw   $0x0,-0x316(%rbp)
   1599e:	00 00 
   159a0:	c7 85 98 fb ff ff fc 	movl   $0x624adbfc,-0x468(%rbp)
   159a7:	db 4a 62 
   159aa:	48 c7 85 f0 fb ff ff 	movq   $0x0,-0x410(%rbp)
   159b1:	00 00 00 00 
   159b5:	48 c7 85 b8 fb ff ff 	movq   $0x0,-0x448(%rbp)
   159bc:	00 00 00 00 
   159c0:	c7 85 f0 fc ff ff c5 	movl   $0xff81f1c5,-0x310(%rbp)
   159c7:	f1 81 ff 
   159ca:	c7 85 f4 fc ff ff 02 	movl   $0x2,-0x30c(%rbp)
   159d1:	00 00 00 
   159d4:	c7 85 f8 fc ff ff c5 	movl   $0xff81f1c5,-0x308(%rbp)
   159db:	f1 81 ff 
   159de:	c7 85 fc fc ff ff 02 	movl   $0x2,-0x304(%rbp)
   159e5:	00 00 00 
   159e8:	c7 85 00 fd ff ff c5 	movl   $0xff81f1c5,-0x300(%rbp)
   159ef:	f1 81 ff 
   159f2:	c7 85 04 fd ff ff 02 	movl   $0x2,-0x2fc(%rbp)
   159f9:	00 00 00 
   159fc:	c7 85 08 fd ff ff c5 	movl   $0xff81f1c5,-0x2f8(%rbp)
   15a03:	f1 81 ff 
   15a06:	c7 85 0c fd ff ff 02 	movl   $0x2,-0x2f4(%rbp)
   15a0d:	00 00 00 
   15a10:	c7 85 10 fd ff ff c5 	movl   $0xff81f1c5,-0x2f0(%rbp)
   15a17:	f1 81 ff 
   15a1a:	c7 85 14 fd ff ff 01 	movl   $0x1,-0x2ec(%rbp)
   15a21:	00 00 00 
   15a24:	c7 85 18 fd ff ff 01 	movl   $0x1,-0x2e8(%rbp)
   15a2b:	00 00 00 
   15a2e:	c7 85 1c fd ff ff 01 	movl   $0x1,-0x2e4(%rbp)
   15a35:	00 00 00 
   15a38:	c7 85 20 fd ff ff 01 	movl   $0x1,-0x2e0(%rbp)
   15a3f:	00 00 00 
   15a42:	c7 85 24 fd ff ff 01 	movl   $0x1,-0x2dc(%rbp)
   15a49:	00 00 00 
   15a4c:	c7 85 28 fd ff ff 01 	movl   $0x1,-0x2d8(%rbp)
   15a53:	00 00 00 
   15a56:	c7 85 2c fd ff ff 01 	movl   $0x1,-0x2d4(%rbp)
   15a5d:	00 00 00 
   15a60:	c7 85 30 fd ff ff 01 	movl   $0x1,-0x2d0(%rbp)
   15a67:	00 00 00 
   15a6a:	c7 85 34 fd ff ff 01 	movl   $0x1,-0x2cc(%rbp)
   15a71:	00 00 00 
   15a74:	48 8d 05 57 56 00 00 	lea    0x5657(%rip),%rax        # 1b0d2 <g_190+0x2>
   15a7b:	48 89 85 f8 fb ff ff 	mov    %rax,-0x408(%rbp)
   15a82:	66 c7 85 7a fb ff ff 	movw   $0xe84d,-0x486(%rbp)
   15a89:	4d e8 
   15a8b:	48 8d 05 fa 58 00 00 	lea    0x58fa(%rip),%rax        # 1b38c <g_454>
   15a92:	48 89 85 00 fc ff ff 	mov    %rax,-0x400(%rbp)
   15a99:	48 8d 05 a8 aa 00 00 	lea    0xaaa8(%rip),%rax        # 20548 <g_468+0x8>
   15aa0:	48 89 85 40 fd ff ff 	mov    %rax,-0x2c0(%rbp)
   15aa7:	48 8d 05 9a aa 00 00 	lea    0xaa9a(%rip),%rax        # 20548 <g_468+0x8>
   15aae:	48 89 85 48 fd ff ff 	mov    %rax,-0x2b8(%rbp)
   15ab5:	48 8d 05 8c aa 00 00 	lea    0xaa8c(%rip),%rax        # 20548 <g_468+0x8>
   15abc:	48 89 85 50 fd ff ff 	mov    %rax,-0x2b0(%rbp)
   15ac3:	48 8d 85 b8 fb ff ff 	lea    -0x448(%rbp),%rax
   15aca:	48 89 85 58 fd ff ff 	mov    %rax,-0x2a8(%rbp)
   15ad1:	48 8d 85 b8 fb ff ff 	lea    -0x448(%rbp),%rax
   15ad8:	48 89 85 60 fd ff ff 	mov    %rax,-0x2a0(%rbp)
   15adf:	48 8d 85 b8 fb ff ff 	lea    -0x448(%rbp),%rax
   15ae6:	48 89 85 68 fd ff ff 	mov    %rax,-0x298(%rbp)
   15aed:	48 8d 05 54 aa 00 00 	lea    0xaa54(%rip),%rax        # 20548 <g_468+0x8>
   15af4:	48 89 85 70 fd ff ff 	mov    %rax,-0x290(%rbp)
   15afb:	48 8d 05 46 aa 00 00 	lea    0xaa46(%rip),%rax        # 20548 <g_468+0x8>
   15b02:	48 89 85 78 fd ff ff 	mov    %rax,-0x288(%rbp)
   15b09:	48 8d 05 38 aa 00 00 	lea    0xaa38(%rip),%rax        # 20548 <g_468+0x8>
   15b10:	48 89 85 80 fd ff ff 	mov    %rax,-0x280(%rbp)
   15b17:	48 8d 85 40 fd ff ff 	lea    -0x2c0(%rbp),%rax
   15b1e:	48 89 85 08 fc ff ff 	mov    %rax,-0x3f8(%rbp)
   15b25:	48 8d 05 24 aa 00 00 	lea    0xaa24(%rip),%rax        # 20550 <g_468+0x10>
   15b2c:	48 89 85 10 fc ff ff 	mov    %rax,-0x3f0(%rbp)
   15b33:	8b 05 8b 55 00 00    	mov    0x558b(%rip),%eax        # 1b0c4 <g_155>
   15b39:	85 c0                	test   %eax,%eax
   15b3b:	74 05                	je     15b42 <func_105+0xa96>
   15b3d:	e9 62 f6 ff ff       	jmpq   151a4 <func_105+0xf8>
   15b42:	66 c7 05 df a9 00 00 	movw   $0x18,0xa9df(%rip)        # 2052a <g_152>
   15b49:	18 00 
   15b4b:	e9 27 01 00 00       	jmpq   15c77 <func_105+0xbcb>
   15b50:	48 8d 85 a8 fb ff ff 	lea    -0x458(%rbp),%rax
   15b57:	48 89 85 18 fc ff ff 	mov    %rax,-0x3e8(%rbp)
   15b5e:	48 8d 05 c5 a9 00 00 	lea    0xa9c5(%rip),%rax        # 2052a <g_152>
   15b65:	48 89 85 c0 fb ff ff 	mov    %rax,-0x440(%rbp)
   15b6c:	48 8d 85 c0 fb ff ff 	lea    -0x440(%rbp),%rax
   15b73:	48 89 85 c8 fb ff ff 	mov    %rax,-0x438(%rbp)
   15b7a:	48 8d 85 c8 fb ff ff 	lea    -0x438(%rbp),%rax
   15b81:	48 89 85 d0 fb ff ff 	mov    %rax,-0x430(%rbp)
   15b88:	48 8d 85 d0 fb ff ff 	lea    -0x430(%rbp),%rax
   15b8f:	48 89 85 20 fc ff ff 	mov    %rax,-0x3e0(%rbp)
   15b96:	48 c7 85 28 fc ff ff 	movq   $0x0,-0x3d8(%rbp)
   15b9d:	00 00 00 00 
   15ba1:	48 8d 05 30 72 00 00 	lea    0x7230(%rip),%rax        # 1cdd8 <g_241>
   15ba8:	48 89 85 30 fc ff ff 	mov    %rax,-0x3d0(%rbp)
   15baf:	48 c7 85 38 fc ff ff 	movq   $0x0,-0x3c8(%rbp)
   15bb6:	00 00 00 00 
   15bba:	48 c7 85 40 fc ff ff 	movq   $0x0,-0x3c0(%rbp)
   15bc1:	00 00 00 00 
   15bc5:	48 8d 05 08 55 00 00 	lea    0x5508(%rip),%rax        # 1b0d4 <g_250>
   15bcc:	48 89 85 48 fc ff ff 	mov    %rax,-0x3b8(%rbp)
   15bd3:	c7 85 9c fb ff ff 00 	movl   $0x0,-0x464(%rbp)
   15bda:	00 00 00 
   15bdd:	48 8d 05 dc 54 00 00 	lea    0x54dc(%rip),%rax        # 1b0c0 <g_121>
   15be4:	48 89 85 50 fc ff ff 	mov    %rax,-0x3b0(%rbp)
   15beb:	c7 85 a0 fb ff ff ff 	movl   $0xffffffff,-0x460(%rbp)
   15bf2:	ff ff ff 
   15bf5:	48 b8 bb 21 bb 61 1b 	movabs $0x4a1551b61bb21bb,%rax
   15bfc:	55 a1 04 
   15bff:	48 89 85 58 fc ff ff 	mov    %rax,-0x3a8(%rbp)
   15c06:	48 b8 24 8d f4 0d 53 	movabs $0x9e9e73530df48d24,%rax
   15c0d:	73 9e 9e 
   15c10:	48 89 85 60 fc ff ff 	mov    %rax,-0x3a0(%rbp)
   15c17:	c7 85 8c fb ff ff 00 	movl   $0x0,-0x474(%rbp)
   15c1e:	00 00 00 
   15c21:	eb 1b                	jmp    15c3e <func_105+0xb92>
   15c23:	8b 85 8c fb ff ff    	mov    -0x474(%rbp),%eax
   15c29:	48 98                	cltq   
   15c2b:	48 c7 84 c5 88 fc ff 	movq   $0x0,-0x378(%rbp,%rax,8)
   15c32:	ff 00 00 00 00 
   15c37:	83 85 8c fb ff ff 01 	addl   $0x1,-0x474(%rbp)
   15c3e:	83 bd 8c fb ff ff 00 	cmpl   $0x0,-0x474(%rbp)
   15c45:	7e dc                	jle    15c23 <func_105+0xb77>
   15c47:	48 8b 05 72 71 00 00 	mov    0x7172(%rip),%rax        # 1cdc0 <g_219>
   15c4e:	48 8d 15 6f 54 00 00 	lea    0x546f(%rip),%rdx        # 1b0c4 <g_155>
   15c55:	48 89 10             	mov    %rdx,(%rax)
   15c58:	0f b7 05 cb a8 00 00 	movzwl 0xa8cb(%rip),%eax        # 2052a <g_152>
   15c5f:	0f be c0             	movsbl %al,%eax
   15c62:	be 07 00 00 00       	mov    $0x7,%esi
   15c67:	89 c7                	mov    %eax,%edi
   15c69:	e8 84 65 ff ff       	callq  c1f2 <safe_sub_func_int8_t_s_s>
   15c6e:	66 98                	cbtw   
   15c70:	66 89 05 b3 a8 00 00 	mov    %ax,0xa8b3(%rip)        # 2052a <g_152>
   15c77:	0f b7 05 ac a8 00 00 	movzwl 0xa8ac(%rip),%eax        # 2052a <g_152>
   15c7e:	66 83 f8 13          	cmp    $0x13,%ax
   15c82:	0f 8e c8 fe ff ff    	jle    15b50 <func_105+0xaa4>
   15c88:	8b 05 ce 53 00 00    	mov    0x53ce(%rip),%eax        # 1b05c <g_65+0x1c>
   15c8e:	0f bf d8             	movswl %ax,%ebx
   15c91:	8b 85 6c fb ff ff    	mov    -0x494(%rbp),%eax
   15c97:	0f b7 c0             	movzwl %ax,%eax
   15c9a:	be 4d 14 00 00       	mov    $0x144d,%esi
   15c9f:	89 c7                	mov    %eax,%edi
   15ca1:	e8 97 70 ff ff       	callq  cd3d <safe_mul_func_uint16_t_u_u>
   15ca6:	48 8b 85 e0 fb ff ff 	mov    -0x420(%rbp),%rax
   15cad:	48 8b 00             	mov    (%rax),%rax
   15cb0:	8b 00                	mov    (%rax),%eax
   15cb2:	98                   	cwtl   
   15cb3:	89 de                	mov    %ebx,%esi
   15cb5:	89 c7                	mov    %eax,%edi
   15cb7:	e8 39 67 ff ff       	callq  c3f5 <safe_mul_func_int16_t_s_s>
   15cbc:	0f bf d8             	movswl %ax,%ebx
   15cbf:	48 8b 85 e0 fb ff ff 	mov    -0x420(%rbp),%rax
   15cc6:	48 8b 00             	mov    (%rax),%rax
   15cc9:	8b 00                	mov    (%rax),%eax
   15ccb:	44 0f b6 e0          	movzbl %al,%r12d
   15ccf:	0f b6 15 52 a8 00 00 	movzbl 0xa852(%rip),%edx        # 20528 <g_149>
   15cd6:	48 8b 85 f8 fb ff ff 	mov    -0x408(%rbp),%rax
   15cdd:	88 10                	mov    %dl,(%rax)
   15cdf:	48 8b 85 f8 fb ff ff 	mov    -0x408(%rbp),%rax
   15ce6:	0f b6 00             	movzbl (%rax),%eax
   15ce9:	84 c0                	test   %al,%al
   15ceb:	0f 94 c0             	sete   %al
   15cee:	44 0f b6 e8          	movzbl %al,%r13d
   15cf2:	48 8b 85 08 fc ff ff 	mov    -0x3f8(%rbp),%rax
   15cf9:	48 8d 15 60 a8 00 00 	lea    0xa860(%rip),%rdx        # 20560 <g_468+0x20>
   15d00:	48 89 10             	mov    %rdx,(%rax)
   15d03:	48 8b 85 08 fc ff ff 	mov    -0x3f8(%rbp),%rax
   15d0a:	48 8b 00             	mov    (%rax),%rax
   15d0d:	48 89 85 10 fc ff ff 	mov    %rax,-0x3f0(%rbp)
   15d14:	48 8d 05 4d a8 00 00 	lea    0xa84d(%rip),%rax        # 20568 <g_468+0x28>
   15d1b:	48 39 85 10 fc ff ff 	cmp    %rax,-0x3f0(%rbp)
   15d22:	0f 94 c0             	sete   %al
   15d25:	89 c1                	mov    %eax,%ecx
   15d27:	48 8b 85 e0 fb ff ff 	mov    -0x420(%rbp),%rax
   15d2e:	48 8b 10             	mov    (%rax),%rdx
   15d31:	48 8b 05 28 70 00 00 	mov    0x7028(%rip),%rax        # 1cd60 <g_154>
   15d38:	8b 12                	mov    (%rdx),%edx
   15d3a:	89 10                	mov    %edx,(%rax)
   15d3c:	8b 00                	mov    (%rax),%eax
   15d3e:	31 c8                	xor    %ecx,%eax
   15d40:	0f b6 c0             	movzbl %al,%eax
   15d43:	be 00 00 00 00       	mov    $0x0,%esi
   15d48:	89 c7                	mov    %eax,%edi
   15d4a:	e8 fd 6e ff ff       	callq  cc4c <safe_lshift_func_uint8_t_u_u>
   15d4f:	0f b6 c0             	movzbl %al,%eax
   15d52:	44 89 ee             	mov    %r13d,%esi
   15d55:	89 c7                	mov    %eax,%edi
   15d57:	e8 74 71 ff ff       	callq  ced0 <safe_sub_func_uint32_t_u_u>
   15d5c:	0f b6 c0             	movzbl %al,%eax
   15d5f:	44 89 e6             	mov    %r12d,%esi
   15d62:	89 c7                	mov    %eax,%edi
   15d64:	e8 0f 6e ff ff       	callq  cb78 <safe_sub_func_uint8_t_u_u>
   15d69:	0f b6 c0             	movzbl %al,%eax
   15d6c:	89 de                	mov    %ebx,%esi
   15d6e:	89 c7                	mov    %eax,%edi
   15d70:	e8 41 68 ff ff       	callq  c5b6 <safe_add_func_int32_t_s_s>
   15d75:	98                   	cwtl   
   15d76:	be 01 00 00 00       	mov    $0x1,%esi
   15d7b:	89 c7                	mov    %eax,%edi
   15d7d:	e8 d3 66 ff ff       	callq  c455 <safe_div_func_int16_t_s_s>
   15d82:	0f b6 c0             	movzbl %al,%eax
   15d85:	89 c6                	mov    %eax,%esi
   15d87:	bf ff 00 00 00       	mov    $0xff,%edi
   15d8c:	e8 02 6e ff ff       	callq  cb93 <safe_mul_func_uint8_t_u_u>
   15d91:	48 8b 85 b0 fb ff ff 	mov    -0x450(%rbp),%rax
   15d98:	8b 00                	mov    (%rax),%eax
   15d9a:	39 85 6c fb ff ff    	cmp    %eax,-0x494(%rbp)
   15da0:	0f 94 c0             	sete   %al
   15da3:	0f b6 c0             	movzbl %al,%eax
   15da6:	09 85 84 fb ff ff    	or     %eax,-0x47c(%rbp)
   15dac:	8b 85 80 fb ff ff    	mov    -0x480(%rbp),%eax
   15db2:	83 c0 01             	add    $0x1,%eax
   15db5:	89 85 80 fb ff ff    	mov    %eax,-0x480(%rbp)
   15dbb:	8b 85 80 fb ff ff    	mov    -0x480(%rbp),%eax
   15dc1:	83 f8 1a             	cmp    $0x1a,%eax
   15dc4:	0f 8e 4a f7 ff ff    	jle    15514 <func_105+0x468>
   15dca:	48 8b 85 e0 fb ff ff 	mov    -0x420(%rbp),%rax
   15dd1:	48 8b 10             	mov    (%rax),%rdx
   15dd4:	48 8b 05 dd 6f 00 00 	mov    0x6fdd(%rip),%rax        # 1cdb8 <g_220>
   15ddb:	8b 12                	mov    (%rdx),%edx
   15ddd:	89 10                	mov    %edx,(%rax)
   15ddf:	8b 85 6c fb ff ff    	mov    -0x494(%rbp),%eax
   15de5:	48 8b 4d d8          	mov    -0x28(%rbp),%rcx
   15de9:	64 48 33 0c 25 28 00 	xor    %fs:0x28,%rcx
   15df0:	00 00 
   15df2:	74 05                	je     15df9 <func_105+0xd4d>
   15df4:	e8 77 62 ff ff       	callq  c070 <__stack_chk_fail@plt>
   15df9:	48 81 c4 88 04 00 00 	add    $0x488,%rsp
   15e00:	5b                   	pop    %rbx
   15e01:	41 5c                	pop    %r12
   15e03:	41 5d                	pop    %r13
   15e05:	5d                   	pop    %rbp
   15e06:	c3                   	retq   

0000000000015e07 <func_112>:
   15e07:	f3 0f 1e fa          	endbr64 
   15e0b:	55                   	push   %rbp
   15e0c:	48 89 e5             	mov    %rsp,%rbp
   15e0f:	41 54                	push   %r12
   15e11:	53                   	push   %rbx
   15e12:	48 81 ec 80 01 00 00 	sub    $0x180,%rsp
   15e19:	89 bd 7c fe ff ff    	mov    %edi,-0x184(%rbp)
   15e1f:	48 89 b5 70 fe ff ff 	mov    %rsi,-0x190(%rbp)
   15e26:	64 48 8b 04 25 28 00 	mov    %fs:0x28,%rax
   15e2d:	00 00 
   15e2f:	48 89 45 e8          	mov    %rax,-0x18(%rbp)
   15e33:	31 c0                	xor    %eax,%eax
   15e35:	48 c7 85 a0 fe ff ff 	movq   $0x0,-0x160(%rbp)
   15e3c:	00 00 00 00 
   15e40:	c7 85 94 fe ff ff 6f 	movl   $0xd1dff66f,-0x16c(%rbp)
   15e47:	f6 df d1 
   15e4a:	c7 85 10 ff ff ff 06 	movl   $0x6,-0xf0(%rbp)
   15e51:	00 00 00 
   15e54:	c7 85 14 ff ff ff 00 	movl   $0x0,-0xec(%rbp)
   15e5b:	00 00 00 
   15e5e:	c7 85 18 ff ff ff 00 	movl   $0x0,-0xe8(%rbp)
   15e65:	00 00 00 
   15e68:	c7 85 1c ff ff ff 06 	movl   $0x6,-0xe4(%rbp)
   15e6f:	00 00 00 
   15e72:	c7 85 20 ff ff ff 00 	movl   $0x0,-0xe0(%rbp)
   15e79:	00 00 00 
   15e7c:	c7 85 24 ff ff ff 00 	movl   $0x0,-0xdc(%rbp)
   15e83:	00 00 00 
   15e86:	c7 85 28 ff ff ff 06 	movl   $0x6,-0xd8(%rbp)
   15e8d:	00 00 00 
   15e90:	c7 85 2c ff ff ff 00 	movl   $0x0,-0xd4(%rbp)
   15e97:	00 00 00 
   15e9a:	c7 85 30 ff ff ff 00 	movl   $0x0,-0xd0(%rbp)
   15ea1:	00 00 00 
   15ea4:	48 8d 05 15 52 00 00 	lea    0x5215(%rip),%rax        # 1b0c0 <g_121>
   15eab:	48 89 85 a8 fe ff ff 	mov    %rax,-0x158(%rbp)
   15eb2:	48 8d 05 c7 51 00 00 	lea    0x51c7(%rip),%rax        # 1b080 <g_65+0x40>
   15eb9:	48 89 85 b0 fe ff ff 	mov    %rax,-0x150(%rbp)
   15ec0:	48 8d 05 61 a6 00 00 	lea    0xa661(%rip),%rax        # 20528 <g_149>
   15ec7:	48 89 85 b8 fe ff ff 	mov    %rax,-0x148(%rbp)
   15ece:	66 c7 85 40 ff ff ff 	movw   $0x5d98,-0xc0(%rbp)
   15ed5:	98 5d 
   15ed7:	66 c7 85 42 ff ff ff 	movw   $0x1,-0xbe(%rbp)
   15ede:	01 00 
   15ee0:	66 c7 85 44 ff ff ff 	movw   $0xafb1,-0xbc(%rbp)
   15ee7:	b1 af 
   15ee9:	66 c7 85 46 ff ff ff 	movw   $0x65dd,-0xba(%rbp)
   15ef0:	dd 65 
   15ef2:	66 c7 85 48 ff ff ff 	movw   $0x65dd,-0xb8(%rbp)
   15ef9:	dd 65 
   15efb:	66 c7 85 4a ff ff ff 	movw   $0x65dd,-0xb6(%rbp)
   15f02:	dd 65 
   15f04:	66 c7 85 4c ff ff ff 	movw   $0xafb1,-0xb4(%rbp)
   15f0b:	b1 af 
   15f0d:	66 c7 85 4e ff ff ff 	movw   $0x1,-0xb2(%rbp)
   15f14:	01 00 
   15f16:	66 c7 85 50 ff ff ff 	movw   $0x5d98,-0xb0(%rbp)
   15f1d:	98 5d 
   15f1f:	66 c7 85 52 ff ff ff 	movw   $0x66d,-0xae(%rbp)
   15f26:	6d 06 
   15f28:	66 c7 85 54 ff ff ff 	movw   $0x5,-0xac(%rbp)
   15f2f:	05 00 
   15f31:	66 c7 85 56 ff ff ff 	movw   $0xafb1,-0xaa(%rbp)
   15f38:	b1 af 
   15f3a:	66 c7 85 58 ff ff ff 	movw   $0xffff,-0xa8(%rbp)
   15f41:	ff ff 
   15f43:	66 c7 85 5a ff ff ff 	movw   $0x5,-0xa6(%rbp)
   15f4a:	05 00 
   15f4c:	66 c7 85 5c ff ff ff 	movw   $0x6aa2,-0xa4(%rbp)
   15f53:	a2 6a 
   15f55:	66 c7 85 5e ff ff ff 	movw   $0x3,-0xa2(%rbp)
   15f5c:	03 00 
   15f5e:	66 c7 85 60 ff ff ff 	movw   $0x6aa2,-0xa0(%rbp)
   15f65:	a2 6a 
   15f67:	66 c7 85 62 ff ff ff 	movw   $0x5,-0x9e(%rbp)
   15f6e:	05 00 
   15f70:	66 c7 85 64 ff ff ff 	movw   $0xffff,-0x9c(%rbp)
   15f77:	ff ff 
   15f79:	66 c7 85 66 ff ff ff 	movw   $0xafb1,-0x9a(%rbp)
   15f80:	b1 af 
   15f82:	66 c7 85 68 ff ff ff 	movw   $0x5,-0x98(%rbp)
   15f89:	05 00 
   15f8b:	66 c7 85 6a ff ff ff 	movw   $0x66d,-0x96(%rbp)
   15f92:	6d 06 
   15f94:	66 c7 85 6c ff ff ff 	movw   $0x5d98,-0x94(%rbp)
   15f9b:	98 5d 
   15f9d:	66 c7 85 6e ff ff ff 	movw   $0x1,-0x92(%rbp)
   15fa4:	01 00 
   15fa6:	66 c7 85 70 ff ff ff 	movw   $0xafb1,-0x90(%rbp)
   15fad:	b1 af 
   15faf:	66 c7 85 72 ff ff ff 	movw   $0x65dd,-0x8e(%rbp)
   15fb6:	dd 65 
   15fb8:	66 c7 85 74 ff ff ff 	movw   $0x65dd,-0x8c(%rbp)
   15fbf:	dd 65 
   15fc1:	66 c7 85 76 ff ff ff 	movw   $0x65dd,-0x8a(%rbp)
   15fc8:	dd 65 
   15fca:	66 c7 85 78 ff ff ff 	movw   $0xafb1,-0x88(%rbp)
   15fd1:	b1 af 
   15fd3:	66 c7 85 7a ff ff ff 	movw   $0x1,-0x86(%rbp)
   15fda:	01 00 
   15fdc:	66 c7 85 7c ff ff ff 	movw   $0x5d98,-0x84(%rbp)
   15fe3:	98 5d 
   15fe5:	66 c7 85 7e ff ff ff 	movw   $0xffff,-0x82(%rbp)
   15fec:	ff ff 
   15fee:	66 c7 45 80 03 00    	movw   $0x3,-0x80(%rbp)
   15ff4:	66 c7 45 82 dd 65    	movw   $0x65dd,-0x7e(%rbp)
   15ffa:	66 c7 45 84 98 5d    	movw   $0x5d98,-0x7c(%rbp)
   16000:	66 c7 45 86 03 00    	movw   $0x3,-0x7a(%rbp)
   16006:	66 c7 45 88 01 00    	movw   $0x1,-0x78(%rbp)
   1600c:	66 c7 45 8a 03 9f    	movw   $0x9f03,-0x76(%rbp)
   16012:	66 c7 45 8c 01 00    	movw   $0x1,-0x74(%rbp)
   16018:	66 c7 45 8e 03 00    	movw   $0x3,-0x72(%rbp)
   1601e:	66 c7 45 90 98 5d    	movw   $0x5d98,-0x70(%rbp)
   16024:	66 c7 45 92 dd 65    	movw   $0x65dd,-0x6e(%rbp)
   1602a:	66 c7 45 94 03 00    	movw   $0x3,-0x6c(%rbp)
   16030:	66 c7 45 96 ff ff    	movw   $0xffff,-0x6a(%rbp)
   16036:	66 c7 45 98 a2 6a    	movw   $0x6aa2,-0x68(%rbp)
   1603c:	66 c7 45 9a b1 af    	movw   $0xafb1,-0x66(%rbp)
   16042:	66 c7 45 9c dd 65    	movw   $0x65dd,-0x64(%rbp)
   16048:	66 c7 45 9e ff ff    	movw   $0xffff,-0x62(%rbp)
   1604e:	66 c7 45 a0 ff ff    	movw   $0xffff,-0x60(%rbp)
   16054:	66 c7 45 a2 ff ff    	movw   $0xffff,-0x5e(%rbp)
   1605a:	66 c7 45 a4 dd 65    	movw   $0x65dd,-0x5c(%rbp)
   16060:	66 c7 45 a6 b1 af    	movw   $0xafb1,-0x5a(%rbp)
   16066:	66 c7 45 a8 a2 6a    	movw   $0x6aa2,-0x58(%rbp)
   1606c:	66 c7 45 aa ff ff    	movw   $0xffff,-0x56(%rbp)
   16072:	66 c7 45 ac 03 00    	movw   $0x3,-0x54(%rbp)
   16078:	66 c7 45 ae dd 65    	movw   $0x65dd,-0x52(%rbp)
   1607e:	66 c7 45 b0 98 5d    	movw   $0x5d98,-0x50(%rbp)
   16084:	66 c7 45 b2 03 00    	movw   $0x3,-0x4e(%rbp)
   1608a:	66 c7 45 b4 01 00    	movw   $0x1,-0x4c(%rbp)
   16090:	66 c7 45 b6 03 9f    	movw   $0x9f03,-0x4a(%rbp)
   16096:	66 c7 45 b8 01 00    	movw   $0x1,-0x48(%rbp)
   1609c:	66 c7 45 ba 03 00    	movw   $0x3,-0x46(%rbp)
   160a2:	66 c7 45 bc 98 5d    	movw   $0x5d98,-0x44(%rbp)
   160a8:	66 c7 45 be dd 65    	movw   $0x65dd,-0x42(%rbp)
   160ae:	66 c7 45 c0 03 00    	movw   $0x3,-0x40(%rbp)
   160b4:	66 c7 45 c2 ff ff    	movw   $0xffff,-0x3e(%rbp)
   160ba:	66 c7 45 c4 a2 6a    	movw   $0x6aa2,-0x3c(%rbp)
   160c0:	66 c7 45 c6 b1 af    	movw   $0xafb1,-0x3a(%rbp)
   160c6:	66 c7 45 c8 dd 65    	movw   $0x65dd,-0x38(%rbp)
   160cc:	66 c7 45 ca ff ff    	movw   $0xffff,-0x36(%rbp)
   160d2:	66 c7 45 cc ff ff    	movw   $0xffff,-0x34(%rbp)
   160d8:	66 c7 45 ce ff ff    	movw   $0xffff,-0x32(%rbp)
   160de:	66 c7 45 d0 dd 65    	movw   $0x65dd,-0x30(%rbp)
   160e4:	66 c7 45 d2 b1 af    	movw   $0xafb1,-0x2e(%rbp)
   160ea:	66 c7 45 d4 a2 6a    	movw   $0x6aa2,-0x2c(%rbp)
   160f0:	66 c7 45 d6 ff ff    	movw   $0xffff,-0x2a(%rbp)
   160f6:	66 c7 45 d8 03 00    	movw   $0x3,-0x28(%rbp)
   160fc:	66 c7 45 da dd 65    	movw   $0x65dd,-0x26(%rbp)
   16102:	66 c7 45 dc 98 5d    	movw   $0x5d98,-0x24(%rbp)
   16108:	66 c7 45 de 03 00    	movw   $0x3,-0x22(%rbp)
   1610e:	66 c7 45 e0 01 00    	movw   $0x1,-0x20(%rbp)
   16114:	66 c7 45 e2 03 9f    	movw   $0x9f03,-0x1e(%rbp)
   1611a:	66 c7 45 e4 01 00    	movw   $0x1,-0x1c(%rbp)
   16120:	66 c7 45 e6 03 00    	movw   $0x3,-0x1a(%rbp)
   16126:	48 c7 85 98 fe ff ff 	movq   $0x0,-0x168(%rbp)
   1612d:	00 00 00 00 
   16131:	48 c7 85 c0 fe ff ff 	movq   $0x0,-0x140(%rbp)
   16138:	00 00 00 00 
   1613c:	48 8d 85 98 fe ff ff 	lea    -0x168(%rbp),%rax
   16143:	48 89 85 c8 fe ff ff 	mov    %rax,-0x138(%rbp)
   1614a:	66 c7 85 8e fe ff ff 	movw   $0x0,-0x172(%rbp)
   16151:	00 00 
   16153:	c7 85 90 fe ff ff 00 	movl   $0x0,-0x170(%rbp)
   1615a:	00 00 00 
   1615d:	eb 1e                	jmp    1617d <func_112+0x376>
   1615f:	8b 85 90 fe ff ff    	mov    -0x170(%rbp),%eax
   16165:	48 98                	cltq   
   16167:	48 8d 15 bc a3 00 00 	lea    0xa3bc(%rip),%rdx        # 2052a <g_152>
   1616e:	48 89 94 c5 d0 fe ff 	mov    %rdx,-0x130(%rbp,%rax,8)
   16175:	ff 
   16176:	83 85 90 fe ff ff 01 	addl   $0x1,-0x170(%rbp)
   1617d:	83 bd 90 fe ff ff 02 	cmpl   $0x2,-0x170(%rbp)
   16184:	7e d9                	jle    1615f <func_112+0x358>
   16186:	c7 85 90 fe ff ff 00 	movl   $0x0,-0x170(%rbp)
   1618d:	00 00 00 
   16190:	eb 1b                	jmp    161ad <func_112+0x3a6>
   16192:	8b 85 90 fe ff ff    	mov    -0x170(%rbp),%eax
   16198:	48 98                	cltq   
   1619a:	48 c7 84 c5 f0 fe ff 	movq   $0x0,-0x110(%rbp,%rax,8)
   161a1:	ff 00 00 00 00 
   161a6:	83 85 90 fe ff ff 01 	addl   $0x1,-0x170(%rbp)
   161ad:	83 bd 90 fe ff ff 03 	cmpl   $0x3,-0x170(%rbp)
   161b4:	7e dc                	jle    16192 <func_112+0x38b>
   161b6:	8b 85 20 ff ff ff    	mov    -0xe0(%rbp),%eax
   161bc:	98                   	cwtl   
   161bd:	be 03 00 00 00       	mov    $0x3,%esi
   161c2:	89 c7                	mov    %eax,%edi
   161c4:	e8 c9 62 ff ff       	callq  c492 <safe_lshift_func_int16_t_s_s>
   161c9:	0f b6 c0             	movzbl %al,%eax
   161cc:	8b 95 7c fe ff ff    	mov    -0x184(%rbp),%edx
   161d2:	89 d6                	mov    %edx,%esi
   161d4:	89 c7                	mov    %eax,%edi
   161d6:	e8 e3 6a ff ff       	callq  ccbe <safe_rshift_func_uint8_t_u_u>
   161db:	0f b6 d8             	movzbl %al,%ebx
   161de:	48 83 bd 70 fe ff ff 	cmpq   $0x0,-0x190(%rbp)
   161e5:	00 
   161e6:	0f 94 c0             	sete   %al
   161e9:	44 0f b6 e0          	movzbl %al,%r12d
   161ed:	8b 95 20 ff ff ff    	mov    -0xe0(%rbp),%edx
   161f3:	48 8b 85 70 fe ff ff 	mov    -0x190(%rbp),%rax
   161fa:	48 8b 00             	mov    (%rax),%rax
   161fd:	0f b7 00             	movzwl (%rax),%eax
   16200:	98                   	cwtl   
   16201:	09 c2                	or     %eax,%edx
   16203:	8b 85 2c ff ff ff    	mov    -0xd4(%rbp),%eax
   16209:	39 c2                	cmp    %eax,%edx
   1620b:	0f 9f c0             	setg   %al
   1620e:	0f b6 c0             	movzbl %al,%eax
   16211:	48 89 c7             	mov    %rax,%rdi
   16214:	e8 fd 65 ff ff       	callq  c816 <safe_unary_minus_func_int64_t_s>
   16219:	48 83 f8 30          	cmp    $0x30,%rax
   1621d:	0f 9e c0             	setle  %al
   16220:	0f b6 d0             	movzbl %al,%edx
   16223:	48 8b 85 70 fe ff ff 	mov    -0x190(%rbp),%rax
   1622a:	48 8b 00             	mov    (%rax),%rax
   1622d:	0f b7 00             	movzwl (%rax),%eax
   16230:	98                   	cwtl   
   16231:	39 c2                	cmp    %eax,%edx
   16233:	0f 94 c0             	sete   %al
   16236:	0f b6 c0             	movzbl %al,%eax
   16239:	be 13 3d 6f dc       	mov    $0xdc6f3d13,%esi
   1623e:	89 c7                	mov    %eax,%edi
   16240:	e8 b8 6c ff ff       	callq  cefd <safe_mod_func_uint32_t_u_u>
   16245:	0f b6 c0             	movzbl %al,%eax
   16248:	be 00 00 00 00       	mov    $0x0,%esi
   1624d:	89 c7                	mov    %eax,%edi
   1624f:	e8 b1 69 ff ff       	callq  cc05 <safe_lshift_func_uint8_t_u_s>
   16254:	0f b6 c0             	movzbl %al,%eax
   16257:	be 2e 00 00 00       	mov    $0x2e,%esi
   1625c:	89 c7                	mov    %eax,%edi
   1625e:	e8 78 69 ff ff       	callq  cbdb <safe_div_func_uint8_t_u_u>
   16263:	0f b6 d0             	movzbl %al,%edx
   16266:	0f b7 05 bf 4d 00 00 	movzwl 0x4dbf(%rip),%eax        # 1b02c <g_36>
   1626d:	98                   	cwtl   
   1626e:	39 c2                	cmp    %eax,%edx
   16270:	0f 9c c0             	setl   %al
   16273:	0f b6 c0             	movzbl %al,%eax
   16276:	be 22 00 00 00       	mov    $0x22,%esi
   1627b:	89 c7                	mov    %eax,%edi
   1627d:	e8 59 69 ff ff       	callq  cbdb <safe_div_func_uint8_t_u_u>
   16282:	8b 15 0c 4e 00 00    	mov    0x4e0c(%rip),%edx        # 1b094 <g_65+0x54>
   16288:	48 8b 85 b0 fe ff ff 	mov    -0x150(%rbp),%rax
   1628f:	89 10                	mov    %edx,(%rax)
   16291:	48 8b 85 b0 fe ff ff 	mov    -0x150(%rbp),%rax
   16298:	8b 00                	mov    (%rax),%eax
   1629a:	83 f0 08             	xor    $0x8,%eax
   1629d:	89 c2                	mov    %eax,%edx
   1629f:	48 8b 85 b8 fe ff ff 	mov    -0x148(%rbp),%rax
   162a6:	88 10                	mov    %dl,(%rax)
   162a8:	48 8b 85 b8 fe ff ff 	mov    -0x148(%rbp),%rax
   162af:	0f b6 00             	movzbl (%rax),%eax
   162b2:	0f be c0             	movsbl %al,%eax
   162b5:	be 06 00 00 00       	mov    $0x6,%esi
   162ba:	89 c7                	mov    %eax,%edi
   162bc:	e8 2d 60 ff ff       	callq  c2ee <safe_lshift_func_int8_t_s_u>
   162c1:	0f b6 c0             	movzbl %al,%eax
   162c4:	be f6 00 00 00       	mov    $0xf6,%esi
   162c9:	89 c7                	mov    %eax,%edi
   162cb:	e8 a8 68 ff ff       	callq  cb78 <safe_sub_func_uint8_t_u_u>
   162d0:	0f b6 c0             	movzbl %al,%eax
   162d3:	66 89 85 64 ff ff ff 	mov    %ax,-0x9c(%rbp)
   162da:	0f b7 85 64 ff ff ff 	movzwl -0x9c(%rbp),%eax
   162e1:	0f b7 c0             	movzwl %ax,%eax
   162e4:	41 39 c4             	cmp    %eax,%r12d
   162e7:	0f 9f c0             	setg   %al
   162ea:	0f b6 c0             	movzbl %al,%eax
   162ed:	39 c3                	cmp    %eax,%ebx
   162ef:	0f 94 c0             	sete   %al
   162f2:	0f b6 c0             	movzbl %al,%eax
   162f5:	89 85 20 ff ff ff    	mov    %eax,-0xe0(%rbp)
   162fb:	48 8b 85 b0 fe ff ff 	mov    -0x150(%rbp),%rax
   16302:	8b 00                	mov    (%rax),%eax
   16304:	83 c8 7f             	or     $0x7f,%eax
   16307:	48 63 d8             	movslq %eax,%rbx
   1630a:	8b 85 94 fe ff ff    	mov    -0x16c(%rbp),%eax
   16310:	0f be c0             	movsbl %al,%eax
   16313:	89 c6                	mov    %eax,%esi
   16315:	bf f8 ff ff ff       	mov    $0xfffffff8,%edi
   1631a:	e8 4b 5f ff ff       	callq  c26a <safe_div_func_int8_t_s_s>
   1631f:	48 0f be d0          	movsbq %al,%rdx
   16323:	8b 85 94 fe ff ff    	mov    -0x16c(%rbp),%eax
   16329:	48 98                	cltq   
   1632b:	48 89 d6             	mov    %rdx,%rsi
   1632e:	48 89 c7             	mov    %rax,%rdi
   16331:	e8 c1 66 ff ff       	callq  c9f7 <safe_div_func_int64_t_s_s>
   16336:	48 89 de             	mov    %rbx,%rsi
   16339:	48 89 c7             	mov    %rax,%rdi
   1633c:	e8 73 66 ff ff       	callq  c9b4 <safe_mod_func_int64_t_s_s>
   16341:	48 8b 85 a8 fe ff ff 	mov    -0x158(%rbp),%rax
   16348:	0f b6 00             	movzbl (%rax),%eax
   1634b:	8d 50 01             	lea    0x1(%rax),%edx
   1634e:	48 8b 85 a8 fe ff ff 	mov    -0x158(%rbp),%rax
   16355:	88 10                	mov    %dl,(%rax)
   16357:	48 8b 85 a8 fe ff ff 	mov    -0x158(%rbp),%rax
   1635e:	0f b6 00             	movzbl (%rax),%eax
   16361:	0f b6 c8             	movzbl %al,%ecx
   16364:	48 8b 95 08 ff ff ff 	mov    -0xf8(%rbp),%rdx
   1636b:	8b 85 94 fe ff ff    	mov    -0x16c(%rbp),%eax
   16371:	48 98                	cltq   
   16373:	48 39 c2             	cmp    %rax,%rdx
   16376:	0f 92 c0             	setb   %al
   16379:	0f b6 d0             	movzbl %al,%edx
   1637c:	0f b7 05 a7 a1 00 00 	movzwl 0xa1a7(%rip),%eax        # 2052a <g_152>
   16383:	98                   	cwtl   
   16384:	39 c2                	cmp    %eax,%edx
   16386:	0f 9f c0             	setg   %al
   16389:	0f b6 d0             	movzbl %al,%edx
   1638c:	48 8b 05 cd 69 00 00 	mov    0x69cd(%rip),%rax        # 1cd60 <g_154>
   16393:	09 ca                	or     %ecx,%edx
   16395:	89 10                	mov    %edx,(%rax)
   16397:	48 8b 95 98 fe ff ff 	mov    -0x168(%rbp),%rdx
   1639e:	48 8b 85 c8 fe ff ff 	mov    -0x138(%rbp),%rax
   163a5:	48 89 10             	mov    %rdx,(%rax)
   163a8:	8b 95 7c fe ff ff    	mov    -0x184(%rbp),%edx
   163ae:	48 8b 85 b0 fe ff ff 	mov    -0x150(%rbp),%rax
   163b5:	89 10                	mov    %edx,(%rax)
   163b7:	48 8b 05 a2 69 00 00 	mov    0x69a2(%rip),%rax        # 1cd60 <g_154>
   163be:	48 8b 95 b0 fe ff ff 	mov    -0x150(%rbp),%rdx
   163c5:	8b 12                	mov    (%rdx),%edx
   163c7:	89 10                	mov    %edx,(%rax)
   163c9:	8b 00                	mov    (%rax),%eax
   163cb:	66 89 85 8e fe ff ff 	mov    %ax,-0x172(%rbp)
   163d2:	8b 05 4c 4c 00 00    	mov    0x4c4c(%rip),%eax        # 1b024 <g_14>
   163d8:	48 8b 4d e8          	mov    -0x18(%rbp),%rcx
   163dc:	64 48 33 0c 25 28 00 	xor    %fs:0x28,%rcx
   163e3:	00 00 
   163e5:	74 05                	je     163ec <func_112+0x5e5>
   163e7:	e8 84 5c ff ff       	callq  c070 <__stack_chk_fail@plt>
   163ec:	48 81 c4 80 01 00 00 	add    $0x180,%rsp
   163f3:	5b                   	pop    %rbx
   163f4:	41 5c                	pop    %r12
   163f6:	5d                   	pop    %rbp
   163f7:	c3                   	retq   

00000000000163f8 <main>:
   163f8:	f3 0f 1e fa          	endbr64 
   163fc:	55                   	push   %rbp
   163fd:	48 89 e5             	mov    %rsp,%rbp
   16400:	48 83 ec 20          	sub    $0x20,%rsp
   16404:	89 7d ec             	mov    %edi,-0x14(%rbp)
   16407:	48 89 75 e0          	mov    %rsi,-0x20(%rbp)
   1640b:	c7 45 fc 00 00 00 00 	movl   $0x0,-0x4(%rbp)
   16412:	83 7d ec 02          	cmpl   $0x2,-0x14(%rbp)
   16416:	75 25                	jne    1643d <main+0x45>
   16418:	48 8b 45 e0          	mov    -0x20(%rbp),%rax
   1641c:	48 83 c0 08          	add    $0x8,%rax
   16420:	48 8b 00             	mov    (%rax),%rax
   16423:	48 8d 35 66 1e 00 00 	lea    0x1e66(%rip),%rsi        # 18290 <g_3452+0x1228>
   1642a:	48 89 c7             	mov    %rax,%rdi
   1642d:	e8 5e 5c ff ff       	callq  c090 <strcmp@plt>
   16432:	85 c0                	test   %eax,%eax
   16434:	75 07                	jne    1643d <main+0x45>
   16436:	c7 45 fc 01 00 00 00 	movl   $0x1,-0x4(%rbp)
   1643d:	e8 47 5d ff ff       	callq  c189 <platform_main_begin>
   16442:	e8 51 71 ff ff       	callq  d598 <crc32_gentab>
   16447:	e8 69 73 ff ff       	callq  d7b5 <func_1>
   1644c:	8b 05 d2 4b 00 00    	mov    0x4bd2(%rip),%eax        # 1b024 <g_14>
   16452:	48 98                	cltq   
   16454:	8b 55 fc             	mov    -0x4(%rbp),%edx
   16457:	48 8d 35 34 1e 00 00 	lea    0x1e34(%rip),%rsi        # 18292 <g_3452+0x122a>
   1645e:	48 89 c7             	mov    %rax,%rdi
   16461:	e8 8d 72 ff ff       	callq  d6f3 <transparent_crc>
   16466:	8b 05 bc 4b 00 00    	mov    0x4bbc(%rip),%eax        # 1b028 <g_16>
   1646c:	48 98                	cltq   
   1646e:	8b 55 fc             	mov    -0x4(%rbp),%edx
   16471:	48 8d 35 1f 1e 00 00 	lea    0x1e1f(%rip),%rsi        # 18297 <g_3452+0x122f>
   16478:	48 89 c7             	mov    %rax,%rdi
   1647b:	e8 73 72 ff ff       	callq  d6f3 <transparent_crc>
   16480:	0f b7 05 a5 4b 00 00 	movzwl 0x4ba5(%rip),%eax        # 1b02c <g_36>
   16487:	48 0f bf c0          	movswq %ax,%rax
   1648b:	8b 55 fc             	mov    -0x4(%rbp),%edx
   1648e:	48 8d 35 07 1e 00 00 	lea    0x1e07(%rip),%rsi        # 1829c <g_3452+0x1234>
   16495:	48 89 c7             	mov    %rax,%rdi
   16498:	e8 56 72 ff ff       	callq  d6f3 <transparent_crc>
   1649d:	c7 45 f0 00 00 00 00 	movl   $0x0,-0x10(%rbp)
   164a4:	e9 8d 00 00 00       	jmpq   16536 <main+0x13e>
   164a9:	c7 45 f4 00 00 00 00 	movl   $0x0,-0xc(%rbp)
   164b0:	eb 7a                	jmp    1652c <main+0x134>
   164b2:	c7 45 f8 00 00 00 00 	movl   $0x0,-0x8(%rbp)
   164b9:	eb 67                	jmp    16522 <main+0x12a>
   164bb:	8b 45 f8             	mov    -0x8(%rbp),%eax
   164be:	48 98                	cltq   
   164c0:	8b 55 f0             	mov    -0x10(%rbp),%edx
   164c3:	48 63 ca             	movslq %edx,%rcx
   164c6:	8b 55 f4             	mov    -0xc(%rbp),%edx
   164c9:	48 63 d2             	movslq %edx,%rdx
   164cc:	48 01 ca             	add    %rcx,%rdx
   164cf:	48 c1 e2 02          	shl    $0x2,%rdx
   164d3:	48 01 d0             	add    %rdx,%rax
   164d6:	48 8d 14 85 00 00 00 	lea    0x0(,%rax,4),%rdx
   164dd:	00 
   164de:	48 8d 05 5b 4b 00 00 	lea    0x4b5b(%rip),%rax        # 1b040 <g_65>
   164e5:	8b 04 02             	mov    (%rdx,%rax,1),%eax
   164e8:	48 98                	cltq   
   164ea:	8b 55 fc             	mov    -0x4(%rbp),%edx
   164ed:	48 8d 35 ad 1d 00 00 	lea    0x1dad(%rip),%rsi        # 182a1 <g_3452+0x1239>
   164f4:	48 89 c7             	mov    %rax,%rdi
   164f7:	e8 f7 71 ff ff       	callq  d6f3 <transparent_crc>
   164fc:	83 7d fc 00          	cmpl   $0x0,-0x4(%rbp)
   16500:	74 1c                	je     1651e <main+0x126>
   16502:	8b 4d f8             	mov    -0x8(%rbp),%ecx
   16505:	8b 55 f4             	mov    -0xc(%rbp),%edx
   16508:	8b 45 f0             	mov    -0x10(%rbp),%eax
   1650b:	89 c6                	mov    %eax,%esi
   1650d:	48 8d 3d 9b 1d 00 00 	lea    0x1d9b(%rip),%rdi        # 182af <g_3452+0x1247>
   16514:	b8 00 00 00 00       	mov    $0x0,%eax
   16519:	e8 62 5b ff ff       	callq  c080 <printf@plt>
   1651e:	83 45 f8 01          	addl   $0x1,-0x8(%rbp)
   16522:	83 7d f8 03          	cmpl   $0x3,-0x8(%rbp)
   16526:	7e 93                	jle    164bb <main+0xc3>
   16528:	83 45 f4 01          	addl   $0x1,-0xc(%rbp)
   1652c:	83 7d f4 00          	cmpl   $0x0,-0xc(%rbp)
   16530:	7e 80                	jle    164b2 <main+0xba>
   16532:	83 45 f0 01          	addl   $0x1,-0x10(%rbp)
   16536:	83 7d f0 07          	cmpl   $0x7,-0x10(%rbp)
   1653a:	0f 8e 69 ff ff ff    	jle    164a9 <main+0xb1>
   16540:	0f b6 05 79 4b 00 00 	movzbl 0x4b79(%rip),%eax        # 1b0c0 <g_121>
   16547:	0f b6 c0             	movzbl %al,%eax
   1654a:	8b 55 fc             	mov    -0x4(%rbp),%edx
   1654d:	48 8d 35 71 1d 00 00 	lea    0x1d71(%rip),%rsi        # 182c5 <g_3452+0x125d>
   16554:	48 89 c7             	mov    %rax,%rdi
   16557:	e8 97 71 ff ff       	callq  d6f3 <transparent_crc>
   1655c:	0f b6 05 c5 9f 00 00 	movzbl 0x9fc5(%rip),%eax        # 20528 <g_149>
   16563:	48 0f be c0          	movsbq %al,%rax
   16567:	8b 55 fc             	mov    -0x4(%rbp),%edx
   1656a:	48 8d 35 5a 1d 00 00 	lea    0x1d5a(%rip),%rsi        # 182cb <g_3452+0x1263>
   16571:	48 89 c7             	mov    %rax,%rdi
   16574:	e8 7a 71 ff ff       	callq  d6f3 <transparent_crc>
   16579:	0f b7 05 aa 9f 00 00 	movzwl 0x9faa(%rip),%eax        # 2052a <g_152>
   16580:	48 0f bf c0          	movswq %ax,%rax
   16584:	8b 55 fc             	mov    -0x4(%rbp),%edx
   16587:	48 8d 35 43 1d 00 00 	lea    0x1d43(%rip),%rsi        # 182d1 <g_3452+0x1269>
   1658e:	48 89 c7             	mov    %rax,%rdi
   16591:	e8 5d 71 ff ff       	callq  d6f3 <transparent_crc>
   16596:	8b 05 28 4b 00 00    	mov    0x4b28(%rip),%eax        # 1b0c4 <g_155>
   1659c:	48 98                	cltq   
   1659e:	8b 55 fc             	mov    -0x4(%rbp),%edx
   165a1:	48 8d 35 2f 1d 00 00 	lea    0x1d2f(%rip),%rsi        # 182d7 <g_3452+0x126f>
   165a8:	48 89 c7             	mov    %rax,%rdi
   165ab:	e8 43 71 ff ff       	callq  d6f3 <transparent_crc>
   165b0:	0f b7 05 11 4b 00 00 	movzwl 0x4b11(%rip),%eax        # 1b0c8 <g_176>
   165b7:	0f b7 c0             	movzwl %ax,%eax
   165ba:	8b 55 fc             	mov    -0x4(%rbp),%edx
   165bd:	48 8d 35 19 1d 00 00 	lea    0x1d19(%rip),%rsi        # 182dd <g_3452+0x1275>
   165c4:	48 89 c7             	mov    %rax,%rdi
   165c7:	e8 27 71 ff ff       	callq  d6f3 <transparent_crc>
   165cc:	8b 05 fa 4a 00 00    	mov    0x4afa(%rip),%eax        # 1b0cc <g_179>
   165d2:	48 98                	cltq   
   165d4:	8b 55 fc             	mov    -0x4(%rbp),%edx
   165d7:	48 8d 35 05 1d 00 00 	lea    0x1d05(%rip),%rsi        # 182e3 <g_3452+0x127b>
   165de:	48 89 c7             	mov    %rax,%rdi
   165e1:	e8 0d 71 ff ff       	callq  d6f3 <transparent_crc>
   165e6:	c7 45 f0 00 00 00 00 	movl   $0x0,-0x10(%rbp)
   165ed:	eb 46                	jmp    16635 <main+0x23d>
   165ef:	8b 45 f0             	mov    -0x10(%rbp),%eax
   165f2:	48 98                	cltq   
   165f4:	48 8d 15 d5 4a 00 00 	lea    0x4ad5(%rip),%rdx        # 1b0d0 <g_190>
   165fb:	0f b6 04 10          	movzbl (%rax,%rdx,1),%eax
   165ff:	48 0f be c0          	movsbq %al,%rax
   16603:	8b 55 fc             	mov    -0x4(%rbp),%edx
   16606:	48 8d 35 dc 1c 00 00 	lea    0x1cdc(%rip),%rsi        # 182e9 <g_3452+0x1281>
   1660d:	48 89 c7             	mov    %rax,%rdi
   16610:	e8 de 70 ff ff       	callq  d6f3 <transparent_crc>
   16615:	83 7d fc 00          	cmpl   $0x0,-0x4(%rbp)
   16619:	74 16                	je     16631 <main+0x239>
   1661b:	8b 45 f0             	mov    -0x10(%rbp),%eax
   1661e:	89 c6                	mov    %eax,%esi
   16620:	48 8d 3d cb 1c 00 00 	lea    0x1ccb(%rip),%rdi        # 182f2 <g_3452+0x128a>
   16627:	b8 00 00 00 00       	mov    $0x0,%eax
   1662c:	e8 4f 5a ff ff       	callq  c080 <printf@plt>
   16631:	83 45 f0 01          	addl   $0x1,-0x10(%rbp)
   16635:	83 7d f0 02          	cmpl   $0x2,-0x10(%rbp)
   16639:	7e b4                	jle    165ef <main+0x1f7>
   1663b:	0f b7 05 92 4a 00 00 	movzwl 0x4a92(%rip),%eax        # 1b0d4 <g_250>
   16642:	48 0f bf c0          	movswq %ax,%rax
   16646:	8b 55 fc             	mov    -0x4(%rbp),%edx
   16649:	48 8d 35 b0 1c 00 00 	lea    0x1cb0(%rip),%rsi        # 18300 <g_3452+0x1298>
   16650:	48 89 c7             	mov    %rax,%rdi
   16653:	e8 9b 70 ff ff       	callq  d6f3 <transparent_crc>
   16658:	c7 45 f0 00 00 00 00 	movl   $0x0,-0x10(%rbp)
   1665f:	e9 a2 00 00 00       	jmpq   16706 <main+0x30e>
   16664:	c7 45 f4 00 00 00 00 	movl   $0x0,-0xc(%rbp)
   1666b:	e9 88 00 00 00       	jmpq   166f8 <main+0x300>
   16670:	c7 45 f8 00 00 00 00 	movl   $0x0,-0x8(%rbp)
   16677:	eb 75                	jmp    166ee <main+0x2f6>
   16679:	8b 45 f8             	mov    -0x8(%rbp),%eax
   1667c:	48 63 c8             	movslq %eax,%rcx
   1667f:	8b 45 f0             	mov    -0x10(%rbp),%eax
   16682:	48 63 d0             	movslq %eax,%rdx
   16685:	8b 45 f4             	mov    -0xc(%rbp),%eax
   16688:	48 63 f0             	movslq %eax,%rsi
   1668b:	48 89 d0             	mov    %rdx,%rax
   1668e:	48 01 c0             	add    %rax,%rax
   16691:	48 01 d0             	add    %rdx,%rax
   16694:	48 01 f0             	add    %rsi,%rax
   16697:	48 c1 e0 02          	shl    $0x2,%rax
   1669b:	48 01 c8             	add    %rcx,%rax
   1669e:	48 8d 14 c5 00 00 00 	lea    0x0(,%rax,8),%rdx
   166a5:	00 
   166a6:	48 8d 05 33 4a 00 00 	lea    0x4a33(%rip),%rax        # 1b0e0 <g_291>
   166ad:	48 8b 04 02          	mov    (%rdx,%rax,1),%rax
   166b1:	48 89 c1             	mov    %rax,%rcx
   166b4:	8b 45 fc             	mov    -0x4(%rbp),%eax
   166b7:	89 c2                	mov    %eax,%edx
   166b9:	48 8d 35 46 1c 00 00 	lea    0x1c46(%rip),%rsi        # 18306 <g_3452+0x129e>
   166c0:	48 89 cf             	mov    %rcx,%rdi
   166c3:	e8 2b 70 ff ff       	callq  d6f3 <transparent_crc>
   166c8:	83 7d fc 00          	cmpl   $0x0,-0x4(%rbp)
   166cc:	74 1c                	je     166ea <main+0x2f2>
   166ce:	8b 4d f8             	mov    -0x8(%rbp),%ecx
   166d1:	8b 55 f4             	mov    -0xc(%rbp),%edx
   166d4:	8b 45 f0             	mov    -0x10(%rbp),%eax
   166d7:	89 c6                	mov    %eax,%esi
   166d9:	48 8d 3d cf 1b 00 00 	lea    0x1bcf(%rip),%rdi        # 182af <g_3452+0x1247>
   166e0:	b8 00 00 00 00       	mov    $0x0,%eax
   166e5:	e8 96 59 ff ff       	callq  c080 <printf@plt>
   166ea:	83 45 f8 01          	addl   $0x1,-0x8(%rbp)
   166ee:	83 7d f8 03          	cmpl   $0x3,-0x8(%rbp)
   166f2:	7e 85                	jle    16679 <main+0x281>
   166f4:	83 45 f4 01          	addl   $0x1,-0xc(%rbp)
   166f8:	83 7d f4 02          	cmpl   $0x2,-0xc(%rbp)
   166fc:	0f 8e 6e ff ff ff    	jle    16670 <main+0x278>
   16702:	83 45 f0 01          	addl   $0x1,-0x10(%rbp)
   16706:	83 7d f0 06          	cmpl   $0x6,-0x10(%rbp)
   1670a:	0f 8e 54 ff ff ff    	jle    16664 <main+0x26c>
   16710:	48 8b 05 69 4c 00 00 	mov    0x4c69(%rip),%rax        # 1b380 <g_340>
   16717:	8b 55 fc             	mov    -0x4(%rbp),%edx
   1671a:	48 8d 35 f4 1b 00 00 	lea    0x1bf4(%rip),%rsi        # 18315 <g_3452+0x12ad>
   16721:	48 89 c7             	mov    %rax,%rdi
   16724:	e8 ca 6f ff ff       	callq  d6f3 <transparent_crc>
   16729:	0f b6 05 58 4c 00 00 	movzbl 0x4c58(%rip),%eax        # 1b388 <g_403>
   16730:	0f b6 c0             	movzbl %al,%eax
   16733:	8b 55 fc             	mov    -0x4(%rbp),%edx
   16736:	48 8d 35 de 1b 00 00 	lea    0x1bde(%rip),%rsi        # 1831b <g_3452+0x12b3>
   1673d:	48 89 c7             	mov    %rax,%rdi
   16740:	e8 ae 6f ff ff       	callq  d6f3 <transparent_crc>
   16745:	8b 05 41 4c 00 00    	mov    0x4c41(%rip),%eax        # 1b38c <g_454>
   1674b:	89 c1                	mov    %eax,%ecx
   1674d:	8b 45 fc             	mov    -0x4(%rbp),%eax
   16750:	89 c2                	mov    %eax,%edx
   16752:	48 8d 35 c8 1b 00 00 	lea    0x1bc8(%rip),%rsi        # 18321 <g_3452+0x12b9>
   16759:	48 89 cf             	mov    %rcx,%rdi
   1675c:	e8 92 6f ff ff       	callq  d6f3 <transparent_crc>
   16761:	c7 45 f0 00 00 00 00 	movl   $0x0,-0x10(%rbp)
   16768:	eb 72                	jmp    167dc <main+0x3e4>
   1676a:	c7 45 f4 00 00 00 00 	movl   $0x0,-0xc(%rbp)
   16771:	eb 5f                	jmp    167d2 <main+0x3da>
   16773:	8b 45 f4             	mov    -0xc(%rbp),%eax
   16776:	48 98                	cltq   
   16778:	8b 55 f0             	mov    -0x10(%rbp),%edx
   1677b:	48 63 d2             	movslq %edx,%rdx
   1677e:	48 c1 e2 02          	shl    $0x2,%rdx
   16782:	48 01 d0             	add    %rdx,%rax
   16785:	48 8d 14 c5 00 00 00 	lea    0x0(,%rax,8),%rdx
   1678c:	00 
   1678d:	48 8d 05 0c 4c 00 00 	lea    0x4c0c(%rip),%rax        # 1b3a0 <g_499>
   16794:	48 8b 04 02          	mov    (%rdx,%rax,1),%rax
   16798:	48 89 c1             	mov    %rax,%rcx
   1679b:	8b 45 fc             	mov    -0x4(%rbp),%eax
   1679e:	89 c2                	mov    %eax,%edx
   167a0:	48 8d 35 80 1b 00 00 	lea    0x1b80(%rip),%rsi        # 18327 <g_3452+0x12bf>
   167a7:	48 89 cf             	mov    %rcx,%rdi
   167aa:	e8 44 6f ff ff       	callq  d6f3 <transparent_crc>
   167af:	83 7d fc 00          	cmpl   $0x0,-0x4(%rbp)
   167b3:	74 19                	je     167ce <main+0x3d6>
   167b5:	8b 55 f4             	mov    -0xc(%rbp),%edx
   167b8:	8b 45 f0             	mov    -0x10(%rbp),%eax
   167bb:	89 c6                	mov    %eax,%esi
   167bd:	48 8d 3d 6f 1b 00 00 	lea    0x1b6f(%rip),%rdi        # 18333 <g_3452+0x12cb>
   167c4:	b8 00 00 00 00       	mov    $0x0,%eax
   167c9:	e8 b2 58 ff ff       	callq  c080 <printf@plt>
   167ce:	83 45 f4 01          	addl   $0x1,-0xc(%rbp)
   167d2:	83 7d f4 03          	cmpl   $0x3,-0xc(%rbp)
   167d6:	7e 9b                	jle    16773 <main+0x37b>
   167d8:	83 45 f0 01          	addl   $0x1,-0x10(%rbp)
   167dc:	83 7d f0 08          	cmpl   $0x8,-0x10(%rbp)
   167e0:	7e 88                	jle    1676a <main+0x372>
   167e2:	8b 05 d8 4c 00 00    	mov    0x4cd8(%rip),%eax        # 1b4c0 <g_535>
   167e8:	48 98                	cltq   
   167ea:	8b 55 fc             	mov    -0x4(%rbp),%edx
   167ed:	48 8d 35 51 1b 00 00 	lea    0x1b51(%rip),%rsi        # 18345 <g_3452+0x12dd>
   167f4:	48 89 c7             	mov    %rax,%rdi
   167f7:	e8 f7 6e ff ff       	callq  d6f3 <transparent_crc>
   167fc:	b8 00 00 00 00       	mov    $0x0,%eax
   16801:	48 89 c1             	mov    %rax,%rcx
   16804:	8b 45 fc             	mov    -0x4(%rbp),%eax
   16807:	89 c2                	mov    %eax,%edx
   16809:	48 8d 35 3b 1b 00 00 	lea    0x1b3b(%rip),%rsi        # 1834b <g_3452+0x12e3>
   16810:	48 89 cf             	mov    %rcx,%rdi
   16813:	e8 db 6e ff ff       	callq  d6f3 <transparent_crc>
   16818:	0f b6 05 a5 4c 00 00 	movzbl 0x4ca5(%rip),%eax        # 1b4c4 <g_618>
   1681f:	48 0f be c0          	movsbq %al,%rax
   16823:	8b 55 fc             	mov    -0x4(%rbp),%edx
   16826:	48 8d 35 24 1b 00 00 	lea    0x1b24(%rip),%rsi        # 18351 <g_3452+0x12e9>
   1682d:	48 89 c7             	mov    %rax,%rdi
   16830:	e8 be 6e ff ff       	callq  d6f3 <transparent_crc>
   16835:	8b 05 8d 4c 00 00    	mov    0x4c8d(%rip),%eax        # 1b4c8 <g_713>
   1683b:	48 98                	cltq   
   1683d:	8b 55 fc             	mov    -0x4(%rbp),%edx
   16840:	48 8d 35 10 1b 00 00 	lea    0x1b10(%rip),%rsi        # 18357 <g_3452+0x12ef>
   16847:	48 89 c7             	mov    %rax,%rdi
   1684a:	e8 a4 6e ff ff       	callq  d6f3 <transparent_crc>
   1684f:	8b 05 77 4c 00 00    	mov    0x4c77(%rip),%eax        # 1b4cc <g_714>
   16855:	89 c1                	mov    %eax,%ecx
   16857:	8b 45 fc             	mov    -0x4(%rbp),%eax
   1685a:	89 c2                	mov    %eax,%edx
   1685c:	48 8d 35 fa 1a 00 00 	lea    0x1afa(%rip),%rsi        # 1835d <g_3452+0x12f5>
   16863:	48 89 cf             	mov    %rcx,%rdi
   16866:	e8 88 6e ff ff       	callq  d6f3 <transparent_crc>
   1686b:	8b 05 5f 4c 00 00    	mov    0x4c5f(%rip),%eax        # 1b4d0 <g_766>
   16871:	89 c1                	mov    %eax,%ecx
   16873:	8b 45 fc             	mov    -0x4(%rbp),%eax
   16876:	89 c2                	mov    %eax,%edx
   16878:	48 8d 35 e4 1a 00 00 	lea    0x1ae4(%rip),%rsi        # 18363 <g_3452+0x12fb>
   1687f:	48 89 cf             	mov    %rcx,%rdi
   16882:	e8 6c 6e ff ff       	callq  d6f3 <transparent_crc>
   16887:	48 8b 05 4a 4c 00 00 	mov    0x4c4a(%rip),%rax        # 1b4d8 <g_858>
   1688e:	8b 55 fc             	mov    -0x4(%rbp),%edx
   16891:	48 8d 35 d1 1a 00 00 	lea    0x1ad1(%rip),%rsi        # 18369 <g_3452+0x1301>
   16898:	48 89 c7             	mov    %rax,%rdi
   1689b:	e8 53 6e ff ff       	callq  d6f3 <transparent_crc>
   168a0:	c7 45 f0 00 00 00 00 	movl   $0x0,-0x10(%rbp)
   168a7:	eb 4d                	jmp    168f6 <main+0x4fe>
   168a9:	8b 45 f0             	mov    -0x10(%rbp),%eax
   168ac:	48 98                	cltq   
   168ae:	48 8d 14 85 00 00 00 	lea    0x0(,%rax,4),%rdx
   168b5:	00 
   168b6:	48 8d 05 23 4c 00 00 	lea    0x4c23(%rip),%rax        # 1b4e0 <g_885>
   168bd:	8b 04 02             	mov    (%rdx,%rax,1),%eax
   168c0:	89 c1                	mov    %eax,%ecx
   168c2:	8b 45 fc             	mov    -0x4(%rbp),%eax
   168c5:	89 c2                	mov    %eax,%edx
   168c7:	48 8d 35 a1 1a 00 00 	lea    0x1aa1(%rip),%rsi        # 1836f <g_3452+0x1307>
   168ce:	48 89 cf             	mov    %rcx,%rdi
   168d1:	e8 1d 6e ff ff       	callq  d6f3 <transparent_crc>
   168d6:	83 7d fc 00          	cmpl   $0x0,-0x4(%rbp)
   168da:	74 16                	je     168f2 <main+0x4fa>
   168dc:	8b 45 f0             	mov    -0x10(%rbp),%eax
   168df:	89 c6                	mov    %eax,%esi
   168e1:	48 8d 3d 0a 1a 00 00 	lea    0x1a0a(%rip),%rdi        # 182f2 <g_3452+0x128a>
   168e8:	b8 00 00 00 00       	mov    $0x0,%eax
   168ed:	e8 8e 57 ff ff       	callq  c080 <printf@plt>
   168f2:	83 45 f0 01          	addl   $0x1,-0x10(%rbp)
   168f6:	83 7d f0 03          	cmpl   $0x3,-0x10(%rbp)
   168fa:	7e ad                	jle    168a9 <main+0x4b1>
   168fc:	0f b7 05 95 9c 00 00 	movzwl 0x9c95(%rip),%eax        # 20598 <g_967>
   16903:	48 0f bf c0          	movswq %ax,%rax
   16907:	8b 55 fc             	mov    -0x4(%rbp),%edx
   1690a:	48 8d 35 67 1a 00 00 	lea    0x1a67(%rip),%rsi        # 18378 <g_3452+0x1310>
   16911:	48 89 c7             	mov    %rax,%rdi
   16914:	e8 da 6d ff ff       	callq  d6f3 <transparent_crc>
   16919:	0f b7 05 d8 4b 00 00 	movzwl 0x4bd8(%rip),%eax        # 1b4f8 <g_987>
   16920:	0f b7 c0             	movzwl %ax,%eax
   16923:	8b 55 fc             	mov    -0x4(%rbp),%edx
   16926:	48 8d 35 51 1a 00 00 	lea    0x1a51(%rip),%rsi        # 1837e <g_3452+0x1316>
   1692d:	48 89 c7             	mov    %rax,%rdi
   16930:	e8 be 6d ff ff       	callq  d6f3 <transparent_crc>
   16935:	c7 45 f0 00 00 00 00 	movl   $0x0,-0x10(%rbp)
   1693c:	eb 4a                	jmp    16988 <main+0x590>
   1693e:	8b 45 f0             	mov    -0x10(%rbp),%eax
   16941:	48 98                	cltq   
   16943:	48 8d 14 00          	lea    (%rax,%rax,1),%rdx
   16947:	48 8d 05 ac 4b 00 00 	lea    0x4bac(%rip),%rax        # 1b4fa <g_1076>
   1694e:	0f b7 04 02          	movzwl (%rdx,%rax,1),%eax
   16952:	48 0f bf c0          	movswq %ax,%rax
   16956:	8b 55 fc             	mov    -0x4(%rbp),%edx
   16959:	48 8d 35 24 1a 00 00 	lea    0x1a24(%rip),%rsi        # 18384 <g_3452+0x131c>
   16960:	48 89 c7             	mov    %rax,%rdi
   16963:	e8 8b 6d ff ff       	callq  d6f3 <transparent_crc>
   16968:	83 7d fc 00          	cmpl   $0x0,-0x4(%rbp)
   1696c:	74 16                	je     16984 <main+0x58c>
   1696e:	8b 45 f0             	mov    -0x10(%rbp),%eax
   16971:	89 c6                	mov    %eax,%esi
   16973:	48 8d 3d 78 19 00 00 	lea    0x1978(%rip),%rdi        # 182f2 <g_3452+0x128a>
   1697a:	b8 00 00 00 00       	mov    $0x0,%eax
   1697f:	e8 fc 56 ff ff       	callq  c080 <printf@plt>
   16984:	83 45 f0 01          	addl   $0x1,-0x10(%rbp)
   16988:	83 7d f0 01          	cmpl   $0x1,-0x10(%rbp)
   1698c:	7e b0                	jle    1693e <main+0x546>
   1698e:	8b 05 6c 4b 00 00    	mov    0x4b6c(%rip),%eax        # 1b500 <g_1123>
   16994:	89 c1                	mov    %eax,%ecx
   16996:	8b 45 fc             	mov    -0x4(%rbp),%eax
   16999:	89 c2                	mov    %eax,%edx
   1699b:	48 8d 35 ec 19 00 00 	lea    0x19ec(%rip),%rsi        # 1838e <g_3452+0x1326>
   169a2:	48 89 cf             	mov    %rcx,%rdi
   169a5:	e8 49 6d ff ff       	callq  d6f3 <transparent_crc>
   169aa:	c7 45 f0 00 00 00 00 	movl   $0x0,-0x10(%rbp)
   169b1:	e9 95 00 00 00       	jmpq   16a4b <main+0x653>
   169b6:	c7 45 f4 00 00 00 00 	movl   $0x0,-0xc(%rbp)
   169bd:	eb 7e                	jmp    16a3d <main+0x645>
   169bf:	c7 45 f8 00 00 00 00 	movl   $0x0,-0x8(%rbp)
   169c6:	eb 6b                	jmp    16a33 <main+0x63b>
   169c8:	8b 45 f8             	mov    -0x8(%rbp),%eax
   169cb:	48 63 f0             	movslq %eax,%rsi
   169ce:	8b 45 f4             	mov    -0xc(%rbp),%eax
   169d1:	48 63 c8             	movslq %eax,%rcx
   169d4:	8b 45 f0             	mov    -0x10(%rbp),%eax
   169d7:	48 63 d0             	movslq %eax,%rdx
   169da:	48 89 d0             	mov    %rdx,%rax
   169dd:	48 c1 e0 03          	shl    $0x3,%rax
   169e1:	48 01 d0             	add    %rdx,%rax
   169e4:	48 01 f0             	add    %rsi,%rax
   169e7:	48 8d 14 08          	lea    (%rax,%rcx,1),%rdx
   169eb:	48 8d 05 1e 4b 00 00 	lea    0x4b1e(%rip),%rax        # 1b510 <g_1150>
   169f2:	48 01 d0             	add    %rdx,%rax
   169f5:	0f b6 00             	movzbl (%rax),%eax
   169f8:	0f b6 c0             	movzbl %al,%eax
   169fb:	8b 55 fc             	mov    -0x4(%rbp),%edx
   169fe:	48 8d 35 90 19 00 00 	lea    0x1990(%rip),%rsi        # 18395 <g_3452+0x132d>
   16a05:	48 89 c7             	mov    %rax,%rdi
   16a08:	e8 e6 6c ff ff       	callq  d6f3 <transparent_crc>
   16a0d:	83 7d fc 00          	cmpl   $0x0,-0x4(%rbp)
   16a11:	74 1c                	je     16a2f <main+0x637>
   16a13:	8b 4d f8             	mov    -0x8(%rbp),%ecx
   16a16:	8b 55 f4             	mov    -0xc(%rbp),%edx
   16a19:	8b 45 f0             	mov    -0x10(%rbp),%eax
   16a1c:	89 c6                	mov    %eax,%esi
   16a1e:	48 8d 3d 8a 18 00 00 	lea    0x188a(%rip),%rdi        # 182af <g_3452+0x1247>
   16a25:	b8 00 00 00 00       	mov    $0x0,%eax
   16a2a:	e8 51 56 ff ff       	callq  c080 <printf@plt>
   16a2f:	83 45 f8 01          	addl   $0x1,-0x8(%rbp)
   16a33:	83 7d f8 00          	cmpl   $0x0,-0x8(%rbp)
   16a37:	7e 8f                	jle    169c8 <main+0x5d0>
   16a39:	83 45 f4 01          	addl   $0x1,-0xc(%rbp)
   16a3d:	83 7d f4 08          	cmpl   $0x8,-0xc(%rbp)
   16a41:	0f 8e 78 ff ff ff    	jle    169bf <main+0x5c7>
   16a47:	83 45 f0 01          	addl   $0x1,-0x10(%rbp)
   16a4b:	83 7d f0 01          	cmpl   $0x1,-0x10(%rbp)
   16a4f:	0f 8e 61 ff ff ff    	jle    169b6 <main+0x5be>
   16a55:	8b 05 c9 4a 00 00    	mov    0x4ac9(%rip),%eax        # 1b524 <g_1177>
   16a5b:	48 98                	cltq   
   16a5d:	8b 55 fc             	mov    -0x4(%rbp),%edx
   16a60:	48 8d 35 3e 19 00 00 	lea    0x193e(%rip),%rsi        # 183a5 <g_3452+0x133d>
   16a67:	48 89 c7             	mov    %rax,%rdi
   16a6a:	e8 84 6c ff ff       	callq  d6f3 <transparent_crc>
   16a6f:	48 8b 05 b2 4a 00 00 	mov    0x4ab2(%rip),%rax        # 1b528 <g_1248>
   16a76:	48 89 c1             	mov    %rax,%rcx
   16a79:	8b 45 fc             	mov    -0x4(%rbp),%eax
   16a7c:	89 c2                	mov    %eax,%edx
   16a7e:	48 8d 35 27 19 00 00 	lea    0x1927(%rip),%rsi        # 183ac <g_3452+0x1344>
   16a85:	48 89 cf             	mov    %rcx,%rdi
   16a88:	e8 66 6c ff ff       	callq  d6f3 <transparent_crc>
   16a8d:	b8 06 00 00 00       	mov    $0x6,%eax
   16a92:	48 98                	cltq   
   16a94:	8b 55 fc             	mov    -0x4(%rbp),%edx
   16a97:	48 8d 35 15 19 00 00 	lea    0x1915(%rip),%rsi        # 183b3 <g_3452+0x134b>
   16a9e:	48 89 c7             	mov    %rax,%rdi
   16aa1:	e8 4d 6c ff ff       	callq  d6f3 <transparent_crc>
   16aa6:	48 8b 05 83 4a 00 00 	mov    0x4a83(%rip),%rax        # 1b530 <g_1475>
   16aad:	48 89 c1             	mov    %rax,%rcx
   16ab0:	8b 45 fc             	mov    -0x4(%rbp),%eax
   16ab3:	89 c2                	mov    %eax,%edx
   16ab5:	48 8d 35 fe 18 00 00 	lea    0x18fe(%rip),%rsi        # 183ba <g_3452+0x1352>
   16abc:	48 89 cf             	mov    %rcx,%rdi
   16abf:	e8 2f 6c ff ff       	callq  d6f3 <transparent_crc>
   16ac4:	8b 05 6e 4a 00 00    	mov    0x4a6e(%rip),%eax        # 1b538 <g_1530>
   16aca:	89 c1                	mov    %eax,%ecx
   16acc:	8b 45 fc             	mov    -0x4(%rbp),%eax
   16acf:	89 c2                	mov    %eax,%edx
   16ad1:	48 8d 35 e9 18 00 00 	lea    0x18e9(%rip),%rsi        # 183c1 <g_3452+0x1359>
   16ad8:	48 89 cf             	mov    %rcx,%rdi
   16adb:	e8 13 6c ff ff       	callq  d6f3 <transparent_crc>
   16ae0:	48 8b 05 d1 9a 00 00 	mov    0x9ad1(%rip),%rax        # 205b8 <g_1642>
   16ae7:	8b 55 fc             	mov    -0x4(%rbp),%edx
   16aea:	48 8d 35 d7 18 00 00 	lea    0x18d7(%rip),%rsi        # 183c8 <g_3452+0x1360>
   16af1:	48 89 c7             	mov    %rax,%rdi
   16af4:	e8 fa 6b ff ff       	callq  d6f3 <transparent_crc>
   16af9:	c7 45 f0 00 00 00 00 	movl   $0x0,-0x10(%rbp)
   16b00:	eb 6f                	jmp    16b71 <main+0x779>
   16b02:	c7 45 f4 00 00 00 00 	movl   $0x0,-0xc(%rbp)
   16b09:	eb 5c                	jmp    16b67 <main+0x76f>
   16b0b:	8b 45 f4             	mov    -0xc(%rbp),%eax
   16b0e:	48 98                	cltq   
   16b10:	8b 55 f0             	mov    -0x10(%rbp),%edx
   16b13:	48 63 d2             	movslq %edx,%rdx
   16b16:	48 01 d2             	add    %rdx,%rdx
   16b19:	48 01 d0             	add    %rdx,%rax
   16b1c:	48 8d 14 85 00 00 00 	lea    0x0(,%rax,4),%rdx
   16b23:	00 
   16b24:	48 8d 05 15 4a 00 00 	lea    0x4a15(%rip),%rax        # 1b540 <g_1788>
   16b2b:	8b 04 02             	mov    (%rdx,%rax,1),%eax
   16b2e:	89 c1                	mov    %eax,%ecx
   16b30:	8b 45 fc             	mov    -0x4(%rbp),%eax
   16b33:	89 c2                	mov    %eax,%edx
   16b35:	48 8d 35 93 18 00 00 	lea    0x1893(%rip),%rsi        # 183cf <g_3452+0x1367>
   16b3c:	48 89 cf             	mov    %rcx,%rdi
   16b3f:	e8 af 6b ff ff       	callq  d6f3 <transparent_crc>
   16b44:	83 7d fc 00          	cmpl   $0x0,-0x4(%rbp)
   16b48:	74 19                	je     16b63 <main+0x76b>
   16b4a:	8b 55 f4             	mov    -0xc(%rbp),%edx
   16b4d:	8b 45 f0             	mov    -0x10(%rbp),%eax
   16b50:	89 c6                	mov    %eax,%esi
   16b52:	48 8d 3d da 17 00 00 	lea    0x17da(%rip),%rdi        # 18333 <g_3452+0x12cb>
   16b59:	b8 00 00 00 00       	mov    $0x0,%eax
   16b5e:	e8 1d 55 ff ff       	callq  c080 <printf@plt>
   16b63:	83 45 f4 01          	addl   $0x1,-0xc(%rbp)
   16b67:	83 7d f4 01          	cmpl   $0x1,-0xc(%rbp)
   16b6b:	7e 9e                	jle    16b0b <main+0x713>
   16b6d:	83 45 f0 01          	addl   $0x1,-0x10(%rbp)
   16b71:	83 7d f0 07          	cmpl   $0x7,-0x10(%rbp)
   16b75:	7e 8b                	jle    16b02 <main+0x70a>
   16b77:	8b 05 03 4a 00 00    	mov    0x4a03(%rip),%eax        # 1b580 <g_1827>
   16b7d:	48 98                	cltq   
   16b7f:	8b 55 fc             	mov    -0x4(%rbp),%edx
   16b82:	48 8d 35 53 18 00 00 	lea    0x1853(%rip),%rsi        # 183dc <g_3452+0x1374>
   16b89:	48 89 c7             	mov    %rax,%rdi
   16b8c:	e8 62 6b ff ff       	callq  d6f3 <transparent_crc>
   16b91:	0f b7 05 ec 49 00 00 	movzwl 0x49ec(%rip),%eax        # 1b584 <g_1984>
   16b98:	0f b7 c0             	movzwl %ax,%eax
   16b9b:	8b 55 fc             	mov    -0x4(%rbp),%edx
   16b9e:	48 8d 35 3e 18 00 00 	lea    0x183e(%rip),%rsi        # 183e3 <g_3452+0x137b>
   16ba5:	48 89 c7             	mov    %rax,%rdi
   16ba8:	e8 46 6b ff ff       	callq  d6f3 <transparent_crc>
   16bad:	8b 05 d5 49 00 00    	mov    0x49d5(%rip),%eax        # 1b588 <g_1992>
   16bb3:	48 98                	cltq   
   16bb5:	8b 55 fc             	mov    -0x4(%rbp),%edx
   16bb8:	48 8d 35 2b 18 00 00 	lea    0x182b(%rip),%rsi        # 183ea <g_3452+0x1382>
   16bbf:	48 89 c7             	mov    %rax,%rdi
   16bc2:	e8 2c 6b ff ff       	callq  d6f3 <transparent_crc>
   16bc7:	0f b7 05 0a 9a 00 00 	movzwl 0x9a0a(%rip),%eax        # 205d8 <g_2503>
   16bce:	0f b7 c0             	movzwl %ax,%eax
   16bd1:	8b 55 fc             	mov    -0x4(%rbp),%edx
   16bd4:	48 8d 35 16 18 00 00 	lea    0x1816(%rip),%rsi        # 183f1 <g_3452+0x1389>
   16bdb:	48 89 c7             	mov    %rax,%rdi
   16bde:	e8 10 6b ff ff       	callq  d6f3 <transparent_crc>
   16be3:	0f b7 05 a2 49 00 00 	movzwl 0x49a2(%rip),%eax        # 1b58c <g_2515>
   16bea:	48 0f bf c0          	movswq %ax,%rax
   16bee:	8b 55 fc             	mov    -0x4(%rbp),%edx
   16bf1:	48 8d 35 00 18 00 00 	lea    0x1800(%rip),%rsi        # 183f8 <g_3452+0x1390>
   16bf8:	48 89 c7             	mov    %rax,%rdi
   16bfb:	e8 f3 6a ff ff       	callq  d6f3 <transparent_crc>
   16c00:	8b 05 8a 49 00 00    	mov    0x498a(%rip),%eax        # 1b590 <g_2671>
   16c06:	89 c1                	mov    %eax,%ecx
   16c08:	8b 45 fc             	mov    -0x4(%rbp),%eax
   16c0b:	89 c2                	mov    %eax,%edx
   16c0d:	48 8d 35 eb 17 00 00 	lea    0x17eb(%rip),%rsi        # 183ff <g_3452+0x1397>
   16c14:	48 89 cf             	mov    %rcx,%rdi
   16c17:	e8 d7 6a ff ff       	callq  d6f3 <transparent_crc>
   16c1c:	0f b6 05 71 49 00 00 	movzbl 0x4971(%rip),%eax        # 1b594 <g_2912>
   16c23:	0f b6 c0             	movzbl %al,%eax
   16c26:	8b 55 fc             	mov    -0x4(%rbp),%edx
   16c29:	48 8d 35 d6 17 00 00 	lea    0x17d6(%rip),%rsi        # 18406 <g_3452+0x139e>
   16c30:	48 89 c7             	mov    %rax,%rdi
   16c33:	e8 bb 6a ff ff       	callq  d6f3 <transparent_crc>
   16c38:	c7 45 f0 00 00 00 00 	movl   $0x0,-0x10(%rbp)
   16c3f:	eb 4a                	jmp    16c8b <main+0x893>
   16c41:	8b 45 f0             	mov    -0x10(%rbp),%eax
   16c44:	48 98                	cltq   
   16c46:	48 8d 14 00          	lea    (%rax,%rax,1),%rdx
   16c4a:	48 8d 05 4f 49 00 00 	lea    0x494f(%rip),%rax        # 1b5a0 <g_3077>
   16c51:	0f b7 04 02          	movzwl (%rdx,%rax,1),%eax
   16c55:	48 0f bf c0          	movswq %ax,%rax
   16c59:	8b 55 fc             	mov    -0x4(%rbp),%edx
   16c5c:	48 8d 35 aa 17 00 00 	lea    0x17aa(%rip),%rsi        # 1840d <g_3452+0x13a5>
   16c63:	48 89 c7             	mov    %rax,%rdi
   16c66:	e8 88 6a ff ff       	callq  d6f3 <transparent_crc>
   16c6b:	83 7d fc 00          	cmpl   $0x0,-0x4(%rbp)
   16c6f:	74 16                	je     16c87 <main+0x88f>
   16c71:	8b 45 f0             	mov    -0x10(%rbp),%eax
   16c74:	89 c6                	mov    %eax,%esi
   16c76:	48 8d 3d 75 16 00 00 	lea    0x1675(%rip),%rdi        # 182f2 <g_3452+0x128a>
   16c7d:	b8 00 00 00 00       	mov    $0x0,%eax
   16c82:	e8 f9 53 ff ff       	callq  c080 <printf@plt>
   16c87:	83 45 f0 01          	addl   $0x1,-0x10(%rbp)
   16c8b:	83 7d f0 07          	cmpl   $0x7,-0x10(%rbp)
   16c8f:	7e b0                	jle    16c41 <main+0x849>
   16c91:	c7 45 f0 00 00 00 00 	movl   $0x0,-0x10(%rbp)
   16c98:	e9 a3 00 00 00       	jmpq   16d40 <main+0x948>
   16c9d:	c7 45 f4 00 00 00 00 	movl   $0x0,-0xc(%rbp)
   16ca4:	e9 89 00 00 00       	jmpq   16d32 <main+0x93a>
   16ca9:	c7 45 f8 00 00 00 00 	movl   $0x0,-0x8(%rbp)
   16cb0:	eb 76                	jmp    16d28 <main+0x930>
   16cb2:	8b 45 f8             	mov    -0x8(%rbp),%eax
   16cb5:	48 63 f0             	movslq %eax,%rsi
   16cb8:	8b 45 f0             	mov    -0x10(%rbp),%eax
   16cbb:	48 98                	cltq   
   16cbd:	8b 55 f4             	mov    -0xc(%rbp),%edx
   16cc0:	48 63 ca             	movslq %edx,%rcx
   16cc3:	48 89 c2             	mov    %rax,%rdx
   16cc6:	48 c1 e2 06          	shl    $0x6,%rdx
   16cca:	48 29 c2             	sub    %rax,%rdx
   16ccd:	48 89 c8             	mov    %rcx,%rax
   16cd0:	48 c1 e0 03          	shl    $0x3,%rax
   16cd4:	48 29 c8             	sub    %rcx,%rax
   16cd7:	48 01 d0             	add    %rdx,%rax
   16cda:	48 01 f0             	add    %rsi,%rax
   16cdd:	48 8d 14 00          	lea    (%rax,%rax,1),%rdx
   16ce1:	48 8d 05 d8 48 00 00 	lea    0x48d8(%rip),%rax        # 1b5c0 <g_3402>
   16ce8:	0f b7 04 02          	movzwl (%rdx,%rax,1),%eax
   16cec:	48 0f bf c0          	movswq %ax,%rax
   16cf0:	8b 55 fc             	mov    -0x4(%rbp),%edx
   16cf3:	48 8d 35 1d 17 00 00 	lea    0x171d(%rip),%rsi        # 18417 <g_3452+0x13af>
   16cfa:	48 89 c7             	mov    %rax,%rdi
   16cfd:	e8 f1 69 ff ff       	callq  d6f3 <transparent_crc>
   16d02:	83 7d fc 00          	cmpl   $0x0,-0x4(%rbp)
   16d06:	74 1c                	je     16d24 <main+0x92c>
   16d08:	8b 4d f8             	mov    -0x8(%rbp),%ecx
   16d0b:	8b 55 f4             	mov    -0xc(%rbp),%edx
   16d0e:	8b 45 f0             	mov    -0x10(%rbp),%eax
   16d11:	89 c6                	mov    %eax,%esi
   16d13:	48 8d 3d 95 15 00 00 	lea    0x1595(%rip),%rdi        # 182af <g_3452+0x1247>
   16d1a:	b8 00 00 00 00       	mov    $0x0,%eax
   16d1f:	e8 5c 53 ff ff       	callq  c080 <printf@plt>
   16d24:	83 45 f8 01          	addl   $0x1,-0x8(%rbp)
   16d28:	83 7d f8 06          	cmpl   $0x6,-0x8(%rbp)
   16d2c:	7e 84                	jle    16cb2 <main+0x8ba>
   16d2e:	83 45 f4 01          	addl   $0x1,-0xc(%rbp)
   16d32:	83 7d f4 08          	cmpl   $0x8,-0xc(%rbp)
   16d36:	0f 8e 6d ff ff ff    	jle    16ca9 <main+0x8b1>
   16d3c:	83 45 f0 01          	addl   $0x1,-0x10(%rbp)
   16d40:	83 7d f0 03          	cmpl   $0x3,-0x10(%rbp)
   16d44:	0f 8e 53 ff ff ff    	jle    16c9d <main+0x8a5>
   16d4a:	48 b8 11 bd d7 2b a4 	movabs $0xe59836a42bd7bd11,%rax
   16d51:	36 98 e5 
   16d54:	48 89 c1             	mov    %rax,%rcx
   16d57:	8b 45 fc             	mov    -0x4(%rbp),%eax
   16d5a:	89 c2                	mov    %eax,%edx
   16d5c:	48 8d 35 c4 16 00 00 	lea    0x16c4(%rip),%rsi        # 18427 <g_3452+0x13bf>
   16d63:	48 89 cf             	mov    %rcx,%rdi
   16d66:	e8 88 69 ff ff       	callq  d6f3 <transparent_crc>
   16d6b:	8b 05 47 4a 00 00    	mov    0x4a47(%rip),%eax        # 1b7b8 <g_3870>
   16d71:	48 98                	cltq   
   16d73:	8b 55 fc             	mov    -0x4(%rbp),%edx
   16d76:	48 8d 35 b1 16 00 00 	lea    0x16b1(%rip),%rsi        # 1842e <g_3452+0x13c6>
   16d7d:	48 89 c7             	mov    %rax,%rdi
   16d80:	e8 6e 69 ff ff       	callq  d6f3 <transparent_crc>
   16d85:	8b 05 95 42 00 00    	mov    0x4295(%rip),%eax        # 1b020 <crc32_context>
   16d8b:	f7 d0                	not    %eax
   16d8d:	89 c2                	mov    %eax,%edx
   16d8f:	8b 45 fc             	mov    -0x4(%rbp),%eax
   16d92:	89 c6                	mov    %eax,%esi
   16d94:	89 d7                	mov    %edx,%edi
   16d96:	e8 f9 53 ff ff       	callq  c194 <platform_main_end>
   16d9b:	b8 00 00 00 00       	mov    $0x0,%eax
   16da0:	c9                   	leaveq 
   16da1:	c3                   	retq   
   16da2:	66 2e 0f 1f 84 00 00 	nopw   %cs:0x0(%rax,%rax,1)
   16da9:	00 00 00 
   16dac:	0f 1f 40 00          	nopl   0x0(%rax)

0000000000016db0 <__libc_csu_init>:
   16db0:	f3 0f 1e fa          	endbr64 
   16db4:	41 57                	push   %r15
   16db6:	4c 8d 3d cb 3f 00 00 	lea    0x3fcb(%rip),%r15        # 1ad88 <__frame_dummy_init_array_entry>
   16dbd:	41 56                	push   %r14
   16dbf:	49 89 d6             	mov    %rdx,%r14
   16dc2:	41 55                	push   %r13
   16dc4:	49 89 f5             	mov    %rsi,%r13
   16dc7:	41 54                	push   %r12
   16dc9:	41 89 fc             	mov    %edi,%r12d
   16dcc:	55                   	push   %rbp
   16dcd:	48 8d 2d bc 3f 00 00 	lea    0x3fbc(%rip),%rbp        # 1ad90 <__do_global_dtors_aux_fini_array_entry>
   16dd4:	53                   	push   %rbx
   16dd5:	4c 29 fd             	sub    %r15,%rbp
   16dd8:	48 83 ec 08          	sub    $0x8,%rsp
   16ddc:	e8 1f 52 ff ff       	callq  c000 <_init>
   16de1:	48 c1 fd 03          	sar    $0x3,%rbp
   16de5:	74 1f                	je     16e06 <__libc_csu_init+0x56>
   16de7:	31 db                	xor    %ebx,%ebx
   16de9:	0f 1f 80 00 00 00 00 	nopl   0x0(%rax)
   16df0:	4c 89 f2             	mov    %r14,%rdx
   16df3:	4c 89 ee             	mov    %r13,%rsi
   16df6:	44 89 e7             	mov    %r12d,%edi
   16df9:	41 ff 14 df          	callq  *(%r15,%rbx,8)
   16dfd:	48 83 c3 01          	add    $0x1,%rbx
   16e01:	48 39 dd             	cmp    %rbx,%rbp
   16e04:	75 ea                	jne    16df0 <__libc_csu_init+0x40>
   16e06:	48 83 c4 08          	add    $0x8,%rsp
   16e0a:	5b                   	pop    %rbx
   16e0b:	5d                   	pop    %rbp
   16e0c:	41 5c                	pop    %r12
   16e0e:	41 5d                	pop    %r13
   16e10:	41 5e                	pop    %r14
   16e12:	41 5f                	pop    %r15
   16e14:	c3                   	retq   
   16e15:	66 66 2e 0f 1f 84 00 	data16 nopw %cs:0x0(%rax,%rax,1)
   16e1c:	00 00 00 00 

0000000000016e20 <__libc_csu_fini>:
   16e20:	f3 0f 1e fa          	endbr64 
   16e24:	c3                   	retq   
