


Disassembly of section .text:

000000000000c0a0 <_start>:
    c0a0:	f3 0f 1e fa          	endbr64 
    c0a4:	31 ed                	xor    %ebp,%ebp
    c0a6:	49 89 d1             	mov    %rdx,%r9
    c0a9:	5e                   	pop    %rsi
    c0aa:	48 89 e2             	mov    %rsp,%rdx
    c0ad:	48 83 e4 f0          	and    $0xfffffffffffffff0,%rsp
    c0b1:	50                   	push   %rax
    c0b2:	54                   	push   %rsp
    c0b3:	4c 8d 05 f6 42 01 00 	lea    0x142f6(%rip),%r8        # 203b0 <__libc_csu_fini>
    c0ba:	48 8d 0d 7f 42 01 00 	lea    0x1427f(%rip),%rcx        # 20340 <__libc_csu_init>
    c0c1:	48 8d 3d 11 31 01 00 	lea    0x13111(%rip),%rdi        # 1f1d9 <main>
    c0c8:	ff 15 fa be 01 00    	callq  *0x1befa(%rip)        # 27fc8 <__libc_start_main@GLIBC_2.2.5>
    c0ce:	f4                   	hlt    
    c0cf:	90                   	nop

000000000000c0d0 <deregister_tm_clones>:
    c0d0:	48 8d 3d 01 0f 02 00 	lea    0x20f01(%rip),%rdi        # 2cfd8 <__TMC_END__>
    c0d7:	48 8d 05 fa 0e 02 00 	lea    0x20efa(%rip),%rax        # 2cfd8 <__TMC_END__>
    c0de:	48 39 f8             	cmp    %rdi,%rax
    c0e1:	74 15                	je     c0f8 <deregister_tm_clones+0x28>
    c0e3:	48 8b 05 d6 be 01 00 	mov    0x1bed6(%rip),%rax        # 27fc0 <_ITM_deregisterTMCloneTable>
    c0ea:	48 85 c0             	test   %rax,%rax
    c0ed:	74 09                	je     c0f8 <deregister_tm_clones+0x28>
    c0ef:	ff e0                	jmpq   *%rax
    c0f1:	0f 1f 80 00 00 00 00 	nopl   0x0(%rax)
    c0f8:	c3                   	retq   
    c0f9:	0f 1f 80 00 00 00 00 	nopl   0x0(%rax)

000000000000c100 <register_tm_clones>:
    c100:	48 8d 3d d1 0e 02 00 	lea    0x20ed1(%rip),%rdi        # 2cfd8 <__TMC_END__>
    c107:	48 8d 35 ca 0e 02 00 	lea    0x20eca(%rip),%rsi        # 2cfd8 <__TMC_END__>
    c10e:	48 29 fe             	sub    %rdi,%rsi
    c111:	48 89 f0             	mov    %rsi,%rax
    c114:	48 c1 ee 3f          	shr    $0x3f,%rsi
    c118:	48 c1 f8 03          	sar    $0x3,%rax
    c11c:	48 01 c6             	add    %rax,%rsi
    c11f:	48 d1 fe             	sar    %rsi
    c122:	74 14                	je     c138 <register_tm_clones+0x38>
    c124:	48 8b 05 ad be 01 00 	mov    0x1bead(%rip),%rax        # 27fd8 <_ITM_registerTMCloneTable>
    c12b:	48 85 c0             	test   %rax,%rax
    c12e:	74 08                	je     c138 <register_tm_clones+0x38>
    c130:	ff e0                	jmpq   *%rax
    c132:	66 0f 1f 44 00 00    	nopw   0x0(%rax,%rax,1)
    c138:	c3                   	retq   
    c139:	0f 1f 80 00 00 00 00 	nopl   0x0(%rax)

000000000000c140 <__do_global_dtors_aux>:
    c140:	f3 0f 1e fa          	endbr64 
    c144:	80 3d 95 0e 02 00 00 	cmpb   $0x0,0x20e95(%rip)        # 2cfe0 <completed.8061>
    c14b:	75 2b                	jne    c178 <__do_global_dtors_aux+0x38>
    c14d:	55                   	push   %rbp
    c14e:	48 83 3d 8a be 01 00 	cmpq   $0x0,0x1be8a(%rip)        # 27fe0 <__cxa_finalize@GLIBC_2.2.5>
    c155:	00 
    c156:	48 89 e5             	mov    %rsp,%rbp
    c159:	74 0c                	je     c167 <__do_global_dtors_aux+0x27>
    c15b:	48 8b 3d a6 be 01 00 	mov    0x1bea6(%rip),%rdi        # 28008 <__dso_handle>
    c162:	e8 f9 fe ff ff       	callq  c060 <__cxa_finalize@plt>
    c167:	e8 64 ff ff ff       	callq  c0d0 <deregister_tm_clones>
    c16c:	c6 05 6d 0e 02 00 01 	movb   $0x1,0x20e6d(%rip)        # 2cfe0 <completed.8061>
    c173:	5d                   	pop    %rbp
    c174:	c3                   	retq   
    c175:	0f 1f 00             	nopl   (%rax)
    c178:	c3                   	retq   
    c179:	0f 1f 80 00 00 00 00 	nopl   0x0(%rax)

000000000000c180 <frame_dummy>:
    c180:	f3 0f 1e fa          	endbr64 
    c184:	e9 77 ff ff ff       	jmpq   c100 <register_tm_clones>

000000000000c189 <platform_main_begin>:
    c189:	f3 0f 1e fa          	endbr64 
    c18d:	55                   	push   %rbp
    c18e:	48 89 e5             	mov    %rsp,%rbp
    c191:	90                   	nop
    c192:	5d                   	pop    %rbp
    c193:	c3                   	retq   

000000000000c194 <platform_main_end>:
    c194:	f3 0f 1e fa          	endbr64 
    c198:	55                   	push   %rbp
    c199:	48 89 e5             	mov    %rsp,%rbp
    c19c:	48 83 ec 10          	sub    $0x10,%rsp
    c1a0:	89 7d fc             	mov    %edi,-0x4(%rbp)
    c1a3:	89 75 f8             	mov    %esi,-0x8(%rbp)
    c1a6:	8b 45 fc             	mov    -0x4(%rbp),%eax
    c1a9:	89 c6                	mov    %eax,%esi
    c1ab:	48 8d 3d 6e 4e 01 00 	lea    0x14e6e(%rip),%rdi        # 21020 <_IO_stdin_used+0x20>
    c1b2:	b8 00 00 00 00       	mov    $0x0,%eax
    c1b7:	e8 c4 fe ff ff       	callq  c080 <printf@plt>
    c1bc:	90                   	nop
    c1bd:	c9                   	leaveq 
    c1be:	c3                   	retq   

000000000000c1bf <safe_unary_minus_func_int8_t_s>:
    c1bf:	f3 0f 1e fa          	endbr64 
    c1c3:	55                   	push   %rbp
    c1c4:	48 89 e5             	mov    %rsp,%rbp
    c1c7:	89 f8                	mov    %edi,%eax
    c1c9:	88 45 fc             	mov    %al,-0x4(%rbp)
    c1cc:	0f b6 45 fc          	movzbl -0x4(%rbp),%eax
    c1d0:	f7 d8                	neg    %eax
    c1d2:	5d                   	pop    %rbp
    c1d3:	c3                   	retq   

000000000000c1d4 <safe_add_func_int8_t_s_s>:
    c1d4:	f3 0f 1e fa          	endbr64 
    c1d8:	55                   	push   %rbp
    c1d9:	48 89 e5             	mov    %rsp,%rbp
    c1dc:	89 fa                	mov    %edi,%edx
    c1de:	89 f0                	mov    %esi,%eax
    c1e0:	88 55 fc             	mov    %dl,-0x4(%rbp)
    c1e3:	88 45 f8             	mov    %al,-0x8(%rbp)
    c1e6:	0f b6 55 fc          	movzbl -0x4(%rbp),%edx
    c1ea:	0f b6 45 f8          	movzbl -0x8(%rbp),%eax
    c1ee:	01 d0                	add    %edx,%eax
    c1f0:	5d                   	pop    %rbp
    c1f1:	c3                   	retq   

000000000000c1f2 <safe_sub_func_int8_t_s_s>:
    c1f2:	f3 0f 1e fa          	endbr64 
    c1f6:	55                   	push   %rbp
    c1f7:	48 89 e5             	mov    %rsp,%rbp
    c1fa:	89 fa                	mov    %edi,%edx
    c1fc:	89 f0                	mov    %esi,%eax
    c1fe:	88 55 fc             	mov    %dl,-0x4(%rbp)
    c201:	88 45 f8             	mov    %al,-0x8(%rbp)
    c204:	0f b6 55 fc          	movzbl -0x4(%rbp),%edx
    c208:	0f b6 45 f8          	movzbl -0x8(%rbp),%eax
    c20c:	29 c2                	sub    %eax,%edx
    c20e:	89 d0                	mov    %edx,%eax
    c210:	5d                   	pop    %rbp
    c211:	c3                   	retq   

000000000000c212 <safe_mul_func_int8_t_s_s>:
    c212:	f3 0f 1e fa          	endbr64 
    c216:	55                   	push   %rbp
    c217:	48 89 e5             	mov    %rsp,%rbp
    c21a:	89 fa                	mov    %edi,%edx
    c21c:	89 f0                	mov    %esi,%eax
    c21e:	88 55 fc             	mov    %dl,-0x4(%rbp)
    c221:	88 45 f8             	mov    %al,-0x8(%rbp)
    c224:	0f b6 45 fc          	movzbl -0x4(%rbp),%eax
    c228:	0f b6 55 f8          	movzbl -0x8(%rbp),%edx
    c22c:	0f af c2             	imul   %edx,%eax
    c22f:	5d                   	pop    %rbp
    c230:	c3                   	retq   

000000000000c231 <safe_mod_func_int8_t_s_s>:
    c231:	f3 0f 1e fa          	endbr64 
    c235:	55                   	push   %rbp
    c236:	48 89 e5             	mov    %rsp,%rbp
    c239:	89 fa                	mov    %edi,%edx
    c23b:	89 f0                	mov    %esi,%eax
    c23d:	88 55 fc             	mov    %dl,-0x4(%rbp)
    c240:	88 45 f8             	mov    %al,-0x8(%rbp)
    c243:	80 7d f8 00          	cmpb   $0x0,-0x8(%rbp)
    c247:	74 1b                	je     c264 <safe_mod_func_int8_t_s_s+0x33>
    c249:	80 7d fc 80          	cmpb   $0x80,-0x4(%rbp)
    c24d:	75 06                	jne    c255 <safe_mod_func_int8_t_s_s+0x24>
    c24f:	80 7d f8 ff          	cmpb   $0xff,-0x8(%rbp)
    c253:	74 0f                	je     c264 <safe_mod_func_int8_t_s_s+0x33>
    c255:	0f be 45 fc          	movsbl -0x4(%rbp),%eax
    c259:	0f be 4d f8          	movsbl -0x8(%rbp),%ecx
    c25d:	99                   	cltd   
    c25e:	f7 f9                	idiv   %ecx
    c260:	89 d0                	mov    %edx,%eax
    c262:	eb 04                	jmp    c268 <safe_mod_func_int8_t_s_s+0x37>
    c264:	0f b6 45 fc          	movzbl -0x4(%rbp),%eax
    c268:	5d                   	pop    %rbp
    c269:	c3                   	retq   

000000000000c26a <safe_div_func_int8_t_s_s>:
    c26a:	f3 0f 1e fa          	endbr64 
    c26e:	55                   	push   %rbp
    c26f:	48 89 e5             	mov    %rsp,%rbp
    c272:	89 fa                	mov    %edi,%edx
    c274:	89 f0                	mov    %esi,%eax
    c276:	88 55 fc             	mov    %dl,-0x4(%rbp)
    c279:	88 45 f8             	mov    %al,-0x8(%rbp)
    c27c:	80 7d f8 00          	cmpb   $0x0,-0x8(%rbp)
    c280:	74 19                	je     c29b <safe_div_func_int8_t_s_s+0x31>
    c282:	80 7d fc 80          	cmpb   $0x80,-0x4(%rbp)
    c286:	75 06                	jne    c28e <safe_div_func_int8_t_s_s+0x24>
    c288:	80 7d f8 ff          	cmpb   $0xff,-0x8(%rbp)
    c28c:	74 0d                	je     c29b <safe_div_func_int8_t_s_s+0x31>
    c28e:	0f be 45 fc          	movsbl -0x4(%rbp),%eax
    c292:	0f be 4d f8          	movsbl -0x8(%rbp),%ecx
    c296:	99                   	cltd   
    c297:	f7 f9                	idiv   %ecx
    c299:	eb 04                	jmp    c29f <safe_div_func_int8_t_s_s+0x35>
    c29b:	0f b6 45 fc          	movzbl -0x4(%rbp),%eax
    c29f:	5d                   	pop    %rbp
    c2a0:	c3                   	retq   

000000000000c2a1 <safe_lshift_func_int8_t_s_s>:
    c2a1:	f3 0f 1e fa          	endbr64 
    c2a5:	55                   	push   %rbp
    c2a6:	48 89 e5             	mov    %rsp,%rbp
    c2a9:	89 f8                	mov    %edi,%eax
    c2ab:	89 75 f8             	mov    %esi,-0x8(%rbp)
    c2ae:	88 45 fc             	mov    %al,-0x4(%rbp)
    c2b1:	80 7d fc 00          	cmpb   $0x0,-0x4(%rbp)
    c2b5:	78 31                	js     c2e8 <safe_lshift_func_int8_t_s_s+0x47>
    c2b7:	83 7d f8 00          	cmpl   $0x0,-0x8(%rbp)
    c2bb:	78 2b                	js     c2e8 <safe_lshift_func_int8_t_s_s+0x47>
    c2bd:	83 7d f8 1f          	cmpl   $0x1f,-0x8(%rbp)
    c2c1:	7f 25                	jg     c2e8 <safe_lshift_func_int8_t_s_s+0x47>
    c2c3:	0f be 55 fc          	movsbl -0x4(%rbp),%edx
    c2c7:	8b 45 f8             	mov    -0x8(%rbp),%eax
    c2ca:	be 7f 00 00 00       	mov    $0x7f,%esi
    c2cf:	89 c1                	mov    %eax,%ecx
    c2d1:	d3 fe                	sar    %cl,%esi
    c2d3:	89 f0                	mov    %esi,%eax
    c2d5:	39 c2                	cmp    %eax,%edx
    c2d7:	7f 0f                	jg     c2e8 <safe_lshift_func_int8_t_s_s+0x47>
    c2d9:	0f be 55 fc          	movsbl -0x4(%rbp),%edx
    c2dd:	8b 45 f8             	mov    -0x8(%rbp),%eax
    c2e0:	89 c1                	mov    %eax,%ecx
    c2e2:	d3 e2                	shl    %cl,%edx
    c2e4:	89 d0                	mov    %edx,%eax
    c2e6:	eb 04                	jmp    c2ec <safe_lshift_func_int8_t_s_s+0x4b>
    c2e8:	0f b6 45 fc          	movzbl -0x4(%rbp),%eax
    c2ec:	5d                   	pop    %rbp
    c2ed:	c3                   	retq   

000000000000c2ee <safe_lshift_func_int8_t_s_u>:
    c2ee:	f3 0f 1e fa          	endbr64 
    c2f2:	55                   	push   %rbp
    c2f3:	48 89 e5             	mov    %rsp,%rbp
    c2f6:	89 f8                	mov    %edi,%eax
    c2f8:	89 75 f8             	mov    %esi,-0x8(%rbp)
    c2fb:	88 45 fc             	mov    %al,-0x4(%rbp)
    c2fe:	80 7d fc 00          	cmpb   $0x0,-0x4(%rbp)
    c302:	78 2b                	js     c32f <safe_lshift_func_int8_t_s_u+0x41>
    c304:	83 7d f8 1f          	cmpl   $0x1f,-0x8(%rbp)
    c308:	77 25                	ja     c32f <safe_lshift_func_int8_t_s_u+0x41>
    c30a:	0f be 55 fc          	movsbl -0x4(%rbp),%edx
    c30e:	8b 45 f8             	mov    -0x8(%rbp),%eax
    c311:	be 7f 00 00 00       	mov    $0x7f,%esi
    c316:	89 c1                	mov    %eax,%ecx
    c318:	d3 fe                	sar    %cl,%esi
    c31a:	89 f0                	mov    %esi,%eax
    c31c:	39 c2                	cmp    %eax,%edx
    c31e:	7f 0f                	jg     c32f <safe_lshift_func_int8_t_s_u+0x41>
    c320:	0f be 55 fc          	movsbl -0x4(%rbp),%edx
    c324:	8b 45 f8             	mov    -0x8(%rbp),%eax
    c327:	89 c1                	mov    %eax,%ecx
    c329:	d3 e2                	shl    %cl,%edx
    c32b:	89 d0                	mov    %edx,%eax
    c32d:	eb 04                	jmp    c333 <safe_lshift_func_int8_t_s_u+0x45>
    c32f:	0f b6 45 fc          	movzbl -0x4(%rbp),%eax
    c333:	5d                   	pop    %rbp
    c334:	c3                   	retq   

000000000000c335 <safe_rshift_func_int8_t_s_s>:
    c335:	f3 0f 1e fa          	endbr64 
    c339:	55                   	push   %rbp
    c33a:	48 89 e5             	mov    %rsp,%rbp
    c33d:	89 f8                	mov    %edi,%eax
    c33f:	89 75 f8             	mov    %esi,-0x8(%rbp)
    c342:	88 45 fc             	mov    %al,-0x4(%rbp)
    c345:	80 7d fc 00          	cmpb   $0x0,-0x4(%rbp)
    c349:	78 1b                	js     c366 <safe_rshift_func_int8_t_s_s+0x31>
    c34b:	83 7d f8 00          	cmpl   $0x0,-0x8(%rbp)
    c34f:	78 15                	js     c366 <safe_rshift_func_int8_t_s_s+0x31>
    c351:	83 7d f8 1f          	cmpl   $0x1f,-0x8(%rbp)
    c355:	7f 0f                	jg     c366 <safe_rshift_func_int8_t_s_s+0x31>
    c357:	0f be 55 fc          	movsbl -0x4(%rbp),%edx
    c35b:	8b 45 f8             	mov    -0x8(%rbp),%eax
    c35e:	89 c1                	mov    %eax,%ecx
    c360:	d3 fa                	sar    %cl,%edx
    c362:	89 d0                	mov    %edx,%eax
    c364:	eb 04                	jmp    c36a <safe_rshift_func_int8_t_s_s+0x35>
    c366:	0f b6 45 fc          	movzbl -0x4(%rbp),%eax
    c36a:	5d                   	pop    %rbp
    c36b:	c3                   	retq   

000000000000c36c <safe_rshift_func_int8_t_s_u>:
    c36c:	f3 0f 1e fa          	endbr64 
    c370:	55                   	push   %rbp
    c371:	48 89 e5             	mov    %rsp,%rbp
    c374:	89 f8                	mov    %edi,%eax
    c376:	89 75 f8             	mov    %esi,-0x8(%rbp)
    c379:	88 45 fc             	mov    %al,-0x4(%rbp)
    c37c:	80 7d fc 00          	cmpb   $0x0,-0x4(%rbp)
    c380:	78 15                	js     c397 <safe_rshift_func_int8_t_s_u+0x2b>
    c382:	83 7d f8 1f          	cmpl   $0x1f,-0x8(%rbp)
    c386:	77 0f                	ja     c397 <safe_rshift_func_int8_t_s_u+0x2b>
    c388:	0f be 55 fc          	movsbl -0x4(%rbp),%edx
    c38c:	8b 45 f8             	mov    -0x8(%rbp),%eax
    c38f:	89 c1                	mov    %eax,%ecx
    c391:	d3 fa                	sar    %cl,%edx
    c393:	89 d0                	mov    %edx,%eax
    c395:	eb 04                	jmp    c39b <safe_rshift_func_int8_t_s_u+0x2f>
    c397:	0f b6 45 fc          	movzbl -0x4(%rbp),%eax
    c39b:	5d                   	pop    %rbp
    c39c:	c3                   	retq   

000000000000c39d <safe_unary_minus_func_int16_t_s>:
    c39d:	f3 0f 1e fa          	endbr64 
    c3a1:	55                   	push   %rbp
    c3a2:	48 89 e5             	mov    %rsp,%rbp
    c3a5:	89 f8                	mov    %edi,%eax
    c3a7:	66 89 45 fc          	mov    %ax,-0x4(%rbp)
    c3ab:	0f b7 45 fc          	movzwl -0x4(%rbp),%eax
    c3af:	f7 d8                	neg    %eax
    c3b1:	5d                   	pop    %rbp
    c3b2:	c3                   	retq   

000000000000c3b3 <safe_add_func_int16_t_s_s>:
    c3b3:	f3 0f 1e fa          	endbr64 
    c3b7:	55                   	push   %rbp
    c3b8:	48 89 e5             	mov    %rsp,%rbp
    c3bb:	89 fa                	mov    %edi,%edx
    c3bd:	89 f0                	mov    %esi,%eax
    c3bf:	66 89 55 fc          	mov    %dx,-0x4(%rbp)
    c3c3:	66 89 45 f8          	mov    %ax,-0x8(%rbp)
    c3c7:	0f b7 55 fc          	movzwl -0x4(%rbp),%edx
    c3cb:	0f b7 45 f8          	movzwl -0x8(%rbp),%eax
    c3cf:	01 d0                	add    %edx,%eax
    c3d1:	5d                   	pop    %rbp
    c3d2:	c3                   	retq   

000000000000c3d3 <safe_sub_func_int16_t_s_s>:
    c3d3:	f3 0f 1e fa          	endbr64 
    c3d7:	55                   	push   %rbp
    c3d8:	48 89 e5             	mov    %rsp,%rbp
    c3db:	89 fa                	mov    %edi,%edx
    c3dd:	89 f0                	mov    %esi,%eax
    c3df:	66 89 55 fc          	mov    %dx,-0x4(%rbp)
    c3e3:	66 89 45 f8          	mov    %ax,-0x8(%rbp)
    c3e7:	0f b7 55 fc          	movzwl -0x4(%rbp),%edx
    c3eb:	0f b7 45 f8          	movzwl -0x8(%rbp),%eax
    c3ef:	29 c2                	sub    %eax,%edx
    c3f1:	89 d0                	mov    %edx,%eax
    c3f3:	5d                   	pop    %rbp
    c3f4:	c3                   	retq   

000000000000c3f5 <safe_mul_func_int16_t_s_s>:
    c3f5:	f3 0f 1e fa          	endbr64 
    c3f9:	55                   	push   %rbp
    c3fa:	48 89 e5             	mov    %rsp,%rbp
    c3fd:	89 fa                	mov    %edi,%edx
    c3ff:	89 f0                	mov    %esi,%eax
    c401:	66 89 55 fc          	mov    %dx,-0x4(%rbp)
    c405:	66 89 45 f8          	mov    %ax,-0x8(%rbp)
    c409:	0f b7 55 fc          	movzwl -0x4(%rbp),%edx
    c40d:	0f b7 45 f8          	movzwl -0x8(%rbp),%eax
    c411:	0f af c2             	imul   %edx,%eax
    c414:	5d                   	pop    %rbp
    c415:	c3                   	retq   

000000000000c416 <safe_mod_func_int16_t_s_s>:
    c416:	f3 0f 1e fa          	endbr64 
    c41a:	55                   	push   %rbp
    c41b:	48 89 e5             	mov    %rsp,%rbp
    c41e:	89 fa                	mov    %edi,%edx
    c420:	89 f0                	mov    %esi,%eax
    c422:	66 89 55 fc          	mov    %dx,-0x4(%rbp)
    c426:	66 89 45 f8          	mov    %ax,-0x8(%rbp)
    c42a:	66 83 7d f8 00       	cmpw   $0x0,-0x8(%rbp)
    c42f:	74 1e                	je     c44f <safe_mod_func_int16_t_s_s+0x39>
    c431:	66 81 7d fc 00 80    	cmpw   $0x8000,-0x4(%rbp)
    c437:	75 07                	jne    c440 <safe_mod_func_int16_t_s_s+0x2a>
    c439:	66 83 7d f8 ff       	cmpw   $0xffff,-0x8(%rbp)
    c43e:	74 0f                	je     c44f <safe_mod_func_int16_t_s_s+0x39>
    c440:	0f bf 45 fc          	movswl -0x4(%rbp),%eax
    c444:	0f bf 4d f8          	movswl -0x8(%rbp),%ecx
    c448:	99                   	cltd   
    c449:	f7 f9                	idiv   %ecx
    c44b:	89 d0                	mov    %edx,%eax
    c44d:	eb 04                	jmp    c453 <safe_mod_func_int16_t_s_s+0x3d>
    c44f:	0f b7 45 fc          	movzwl -0x4(%rbp),%eax
    c453:	5d                   	pop    %rbp
    c454:	c3                   	retq   

000000000000c455 <safe_div_func_int16_t_s_s>:
    c455:	f3 0f 1e fa          	endbr64 
    c459:	55                   	push   %rbp
    c45a:	48 89 e5             	mov    %rsp,%rbp
    c45d:	89 fa                	mov    %edi,%edx
    c45f:	89 f0                	mov    %esi,%eax
    c461:	66 89 55 fc          	mov    %dx,-0x4(%rbp)
    c465:	66 89 45 f8          	mov    %ax,-0x8(%rbp)
    c469:	66 83 7d f8 00       	cmpw   $0x0,-0x8(%rbp)
    c46e:	74 1c                	je     c48c <safe_div_func_int16_t_s_s+0x37>
    c470:	66 81 7d fc 00 80    	cmpw   $0x8000,-0x4(%rbp)
    c476:	75 07                	jne    c47f <safe_div_func_int16_t_s_s+0x2a>
    c478:	66 83 7d f8 ff       	cmpw   $0xffff,-0x8(%rbp)
    c47d:	74 0d                	je     c48c <safe_div_func_int16_t_s_s+0x37>
    c47f:	0f bf 45 fc          	movswl -0x4(%rbp),%eax
    c483:	0f bf 4d f8          	movswl -0x8(%rbp),%ecx
    c487:	99                   	cltd   
    c488:	f7 f9                	idiv   %ecx
    c48a:	eb 04                	jmp    c490 <safe_div_func_int16_t_s_s+0x3b>
    c48c:	0f b7 45 fc          	movzwl -0x4(%rbp),%eax
    c490:	5d                   	pop    %rbp
    c491:	c3                   	retq   

000000000000c492 <safe_lshift_func_int16_t_s_s>:
    c492:	f3 0f 1e fa          	endbr64 
    c496:	55                   	push   %rbp
    c497:	48 89 e5             	mov    %rsp,%rbp
    c49a:	89 f8                	mov    %edi,%eax
    c49c:	89 75 f8             	mov    %esi,-0x8(%rbp)
    c49f:	66 89 45 fc          	mov    %ax,-0x4(%rbp)
    c4a3:	66 83 7d fc 00       	cmpw   $0x0,-0x4(%rbp)
    c4a8:	78 31                	js     c4db <safe_lshift_func_int16_t_s_s+0x49>
    c4aa:	83 7d f8 00          	cmpl   $0x0,-0x8(%rbp)
    c4ae:	78 2b                	js     c4db <safe_lshift_func_int16_t_s_s+0x49>
    c4b0:	83 7d f8 1f          	cmpl   $0x1f,-0x8(%rbp)
    c4b4:	7f 25                	jg     c4db <safe_lshift_func_int16_t_s_s+0x49>
    c4b6:	0f bf 55 fc          	movswl -0x4(%rbp),%edx
    c4ba:	8b 45 f8             	mov    -0x8(%rbp),%eax
    c4bd:	be ff 7f 00 00       	mov    $0x7fff,%esi
    c4c2:	89 c1                	mov    %eax,%ecx
    c4c4:	d3 fe                	sar    %cl,%esi
    c4c6:	89 f0                	mov    %esi,%eax
    c4c8:	39 c2                	cmp    %eax,%edx
    c4ca:	7f 0f                	jg     c4db <safe_lshift_func_int16_t_s_s+0x49>
    c4cc:	0f bf 55 fc          	movswl -0x4(%rbp),%edx
    c4d0:	8b 45 f8             	mov    -0x8(%rbp),%eax
    c4d3:	89 c1                	mov    %eax,%ecx
    c4d5:	d3 e2                	shl    %cl,%edx
    c4d7:	89 d0                	mov    %edx,%eax
    c4d9:	eb 04                	jmp    c4df <safe_lshift_func_int16_t_s_s+0x4d>
    c4db:	0f b7 45 fc          	movzwl -0x4(%rbp),%eax
    c4df:	5d                   	pop    %rbp
    c4e0:	c3                   	retq   

000000000000c4e1 <safe_lshift_func_int16_t_s_u>:
    c4e1:	f3 0f 1e fa          	endbr64 
    c4e5:	55                   	push   %rbp
    c4e6:	48 89 e5             	mov    %rsp,%rbp
    c4e9:	89 f8                	mov    %edi,%eax
    c4eb:	89 75 f8             	mov    %esi,-0x8(%rbp)
    c4ee:	66 89 45 fc          	mov    %ax,-0x4(%rbp)
    c4f2:	66 83 7d fc 00       	cmpw   $0x0,-0x4(%rbp)
    c4f7:	78 2b                	js     c524 <safe_lshift_func_int16_t_s_u+0x43>
    c4f9:	83 7d f8 1f          	cmpl   $0x1f,-0x8(%rbp)
    c4fd:	77 25                	ja     c524 <safe_lshift_func_int16_t_s_u+0x43>
    c4ff:	0f bf 55 fc          	movswl -0x4(%rbp),%edx
    c503:	8b 45 f8             	mov    -0x8(%rbp),%eax
    c506:	be ff 7f 00 00       	mov    $0x7fff,%esi
    c50b:	89 c1                	mov    %eax,%ecx
    c50d:	d3 fe                	sar    %cl,%esi
    c50f:	89 f0                	mov    %esi,%eax
    c511:	39 c2                	cmp    %eax,%edx
    c513:	7f 0f                	jg     c524 <safe_lshift_func_int16_t_s_u+0x43>
    c515:	0f bf 55 fc          	movswl -0x4(%rbp),%edx
    c519:	8b 45 f8             	mov    -0x8(%rbp),%eax
    c51c:	89 c1                	mov    %eax,%ecx
    c51e:	d3 e2                	shl    %cl,%edx
    c520:	89 d0                	mov    %edx,%eax
    c522:	eb 04                	jmp    c528 <safe_lshift_func_int16_t_s_u+0x47>
    c524:	0f b7 45 fc          	movzwl -0x4(%rbp),%eax
    c528:	5d                   	pop    %rbp
    c529:	c3                   	retq   

000000000000c52a <safe_rshift_func_int16_t_s_s>:
    c52a:	f3 0f 1e fa          	endbr64 
    c52e:	55                   	push   %rbp
    c52f:	48 89 e5             	mov    %rsp,%rbp
    c532:	89 f8                	mov    %edi,%eax
    c534:	89 75 f8             	mov    %esi,-0x8(%rbp)
    c537:	66 89 45 fc          	mov    %ax,-0x4(%rbp)
    c53b:	66 83 7d fc 00       	cmpw   $0x0,-0x4(%rbp)
    c540:	78 1b                	js     c55d <safe_rshift_func_int16_t_s_s+0x33>
    c542:	83 7d f8 00          	cmpl   $0x0,-0x8(%rbp)
    c546:	78 15                	js     c55d <safe_rshift_func_int16_t_s_s+0x33>
    c548:	83 7d f8 1f          	cmpl   $0x1f,-0x8(%rbp)
    c54c:	7f 0f                	jg     c55d <safe_rshift_func_int16_t_s_s+0x33>
    c54e:	0f bf 55 fc          	movswl -0x4(%rbp),%edx
    c552:	8b 45 f8             	mov    -0x8(%rbp),%eax
    c555:	89 c1                	mov    %eax,%ecx
    c557:	d3 fa                	sar    %cl,%edx
    c559:	89 d0                	mov    %edx,%eax
    c55b:	eb 04                	jmp    c561 <safe_rshift_func_int16_t_s_s+0x37>
    c55d:	0f b7 45 fc          	movzwl -0x4(%rbp),%eax
    c561:	5d                   	pop    %rbp
    c562:	c3                   	retq   

000000000000c563 <safe_rshift_func_int16_t_s_u>:
    c563:	f3 0f 1e fa          	endbr64 
    c567:	55                   	push   %rbp
    c568:	48 89 e5             	mov    %rsp,%rbp
    c56b:	89 f8                	mov    %edi,%eax
    c56d:	89 75 f8             	mov    %esi,-0x8(%rbp)
    c570:	66 89 45 fc          	mov    %ax,-0x4(%rbp)
    c574:	66 83 7d fc 00       	cmpw   $0x0,-0x4(%rbp)
    c579:	78 15                	js     c590 <safe_rshift_func_int16_t_s_u+0x2d>
    c57b:	83 7d f8 1f          	cmpl   $0x1f,-0x8(%rbp)
    c57f:	77 0f                	ja     c590 <safe_rshift_func_int16_t_s_u+0x2d>
    c581:	0f bf 55 fc          	movswl -0x4(%rbp),%edx
    c585:	8b 45 f8             	mov    -0x8(%rbp),%eax
    c588:	89 c1                	mov    %eax,%ecx
    c58a:	d3 fa                	sar    %cl,%edx
    c58c:	89 d0                	mov    %edx,%eax
    c58e:	eb 04                	jmp    c594 <safe_rshift_func_int16_t_s_u+0x31>
    c590:	0f b7 45 fc          	movzwl -0x4(%rbp),%eax
    c594:	5d                   	pop    %rbp
    c595:	c3                   	retq   

000000000000c596 <safe_unary_minus_func_int32_t_s>:
    c596:	f3 0f 1e fa          	endbr64 
    c59a:	55                   	push   %rbp
    c59b:	48 89 e5             	mov    %rsp,%rbp
    c59e:	89 7d fc             	mov    %edi,-0x4(%rbp)
    c5a1:	81 7d fc 00 00 00 80 	cmpl   $0x80000000,-0x4(%rbp)
    c5a8:	74 07                	je     c5b1 <safe_unary_minus_func_int32_t_s+0x1b>
    c5aa:	8b 45 fc             	mov    -0x4(%rbp),%eax
    c5ad:	f7 d8                	neg    %eax
    c5af:	eb 03                	jmp    c5b4 <safe_unary_minus_func_int32_t_s+0x1e>
    c5b1:	8b 45 fc             	mov    -0x4(%rbp),%eax
    c5b4:	5d                   	pop    %rbp
    c5b5:	c3                   	retq   

000000000000c5b6 <safe_add_func_int32_t_s_s>:
    c5b6:	f3 0f 1e fa          	endbr64 
    c5ba:	55                   	push   %rbp
    c5bb:	48 89 e5             	mov    %rsp,%rbp
    c5be:	89 7d fc             	mov    %edi,-0x4(%rbp)
    c5c1:	89 75 f8             	mov    %esi,-0x8(%rbp)
    c5c4:	83 7d fc 00          	cmpl   $0x0,-0x4(%rbp)
    c5c8:	7e 13                	jle    c5dd <safe_add_func_int32_t_s_s+0x27>
    c5ca:	83 7d f8 00          	cmpl   $0x0,-0x8(%rbp)
    c5ce:	7e 0d                	jle    c5dd <safe_add_func_int32_t_s_s+0x27>
    c5d0:	b8 ff ff ff 7f       	mov    $0x7fffffff,%eax
    c5d5:	2b 45 f8             	sub    -0x8(%rbp),%eax
    c5d8:	39 45 fc             	cmp    %eax,-0x4(%rbp)
    c5db:	7f 23                	jg     c600 <safe_add_func_int32_t_s_s+0x4a>
    c5dd:	83 7d fc 00          	cmpl   $0x0,-0x4(%rbp)
    c5e1:	79 13                	jns    c5f6 <safe_add_func_int32_t_s_s+0x40>
    c5e3:	83 7d f8 00          	cmpl   $0x0,-0x8(%rbp)
    c5e7:	79 0d                	jns    c5f6 <safe_add_func_int32_t_s_s+0x40>
    c5e9:	b8 00 00 00 80       	mov    $0x80000000,%eax
    c5ee:	2b 45 f8             	sub    -0x8(%rbp),%eax
    c5f1:	39 45 fc             	cmp    %eax,-0x4(%rbp)
    c5f4:	7c 0a                	jl     c600 <safe_add_func_int32_t_s_s+0x4a>
    c5f6:	8b 55 fc             	mov    -0x4(%rbp),%edx
    c5f9:	8b 45 f8             	mov    -0x8(%rbp),%eax
    c5fc:	01 d0                	add    %edx,%eax
    c5fe:	eb 03                	jmp    c603 <safe_add_func_int32_t_s_s+0x4d>
    c600:	8b 45 fc             	mov    -0x4(%rbp),%eax
    c603:	5d                   	pop    %rbp
    c604:	c3                   	retq   

000000000000c605 <safe_sub_func_int32_t_s_s>:
    c605:	f3 0f 1e fa          	endbr64 
    c609:	55                   	push   %rbp
    c60a:	48 89 e5             	mov    %rsp,%rbp
    c60d:	89 7d fc             	mov    %edi,-0x4(%rbp)
    c610:	89 75 f8             	mov    %esi,-0x8(%rbp)
    c613:	8b 45 fc             	mov    -0x4(%rbp),%eax
    c616:	33 45 f8             	xor    -0x8(%rbp),%eax
    c619:	89 c2                	mov    %eax,%edx
    c61b:	8b 45 fc             	mov    -0x4(%rbp),%eax
    c61e:	33 45 f8             	xor    -0x8(%rbp),%eax
    c621:	25 00 00 00 80       	and    $0x80000000,%eax
    c626:	33 45 fc             	xor    -0x4(%rbp),%eax
    c629:	2b 45 f8             	sub    -0x8(%rbp),%eax
    c62c:	33 45 f8             	xor    -0x8(%rbp),%eax
    c62f:	21 d0                	and    %edx,%eax
    c631:	85 c0                	test   %eax,%eax
    c633:	78 08                	js     c63d <safe_sub_func_int32_t_s_s+0x38>
    c635:	8b 45 fc             	mov    -0x4(%rbp),%eax
    c638:	2b 45 f8             	sub    -0x8(%rbp),%eax
    c63b:	eb 03                	jmp    c640 <safe_sub_func_int32_t_s_s+0x3b>
    c63d:	8b 45 fc             	mov    -0x4(%rbp),%eax
    c640:	5d                   	pop    %rbp
    c641:	c3                   	retq   

000000000000c642 <safe_mul_func_int32_t_s_s>:
    c642:	f3 0f 1e fa          	endbr64 
    c646:	55                   	push   %rbp
    c647:	48 89 e5             	mov    %rsp,%rbp
    c64a:	89 7d fc             	mov    %edi,-0x4(%rbp)
    c64d:	89 75 f8             	mov    %esi,-0x8(%rbp)
    c650:	83 7d fc 00          	cmpl   $0x0,-0x4(%rbp)
    c654:	7e 14                	jle    c66a <safe_mul_func_int32_t_s_s+0x28>
    c656:	83 7d f8 00          	cmpl   $0x0,-0x8(%rbp)
    c65a:	7e 0e                	jle    c66a <safe_mul_func_int32_t_s_s+0x28>
    c65c:	b8 ff ff ff 7f       	mov    $0x7fffffff,%eax
    c661:	99                   	cltd   
    c662:	f7 7d f8             	idivl  -0x8(%rbp)
    c665:	39 45 fc             	cmp    %eax,-0x4(%rbp)
    c668:	7f 5d                	jg     c6c7 <safe_mul_func_int32_t_s_s+0x85>
    c66a:	83 7d fc 00          	cmpl   $0x0,-0x4(%rbp)
    c66e:	7e 14                	jle    c684 <safe_mul_func_int32_t_s_s+0x42>
    c670:	83 7d f8 00          	cmpl   $0x0,-0x8(%rbp)
    c674:	7f 0e                	jg     c684 <safe_mul_func_int32_t_s_s+0x42>
    c676:	b8 00 00 00 80       	mov    $0x80000000,%eax
    c67b:	99                   	cltd   
    c67c:	f7 7d fc             	idivl  -0x4(%rbp)
    c67f:	39 45 f8             	cmp    %eax,-0x8(%rbp)
    c682:	7c 43                	jl     c6c7 <safe_mul_func_int32_t_s_s+0x85>
    c684:	83 7d fc 00          	cmpl   $0x0,-0x4(%rbp)
    c688:	7f 14                	jg     c69e <safe_mul_func_int32_t_s_s+0x5c>
    c68a:	83 7d f8 00          	cmpl   $0x0,-0x8(%rbp)
    c68e:	7e 0e                	jle    c69e <safe_mul_func_int32_t_s_s+0x5c>
    c690:	b8 00 00 00 80       	mov    $0x80000000,%eax
    c695:	99                   	cltd   
    c696:	f7 7d f8             	idivl  -0x8(%rbp)
    c699:	39 45 fc             	cmp    %eax,-0x4(%rbp)
    c69c:	7c 29                	jl     c6c7 <safe_mul_func_int32_t_s_s+0x85>
    c69e:	83 7d fc 00          	cmpl   $0x0,-0x4(%rbp)
    c6a2:	7f 1a                	jg     c6be <safe_mul_func_int32_t_s_s+0x7c>
    c6a4:	83 7d f8 00          	cmpl   $0x0,-0x8(%rbp)
    c6a8:	7f 14                	jg     c6be <safe_mul_func_int32_t_s_s+0x7c>
    c6aa:	83 7d fc 00          	cmpl   $0x0,-0x4(%rbp)
    c6ae:	74 0e                	je     c6be <safe_mul_func_int32_t_s_s+0x7c>
    c6b0:	b8 ff ff ff 7f       	mov    $0x7fffffff,%eax
    c6b5:	99                   	cltd   
    c6b6:	f7 7d fc             	idivl  -0x4(%rbp)
    c6b9:	39 45 f8             	cmp    %eax,-0x8(%rbp)
    c6bc:	7c 09                	jl     c6c7 <safe_mul_func_int32_t_s_s+0x85>
    c6be:	8b 45 fc             	mov    -0x4(%rbp),%eax
    c6c1:	0f af 45 f8          	imul   -0x8(%rbp),%eax
    c6c5:	eb 03                	jmp    c6ca <safe_mul_func_int32_t_s_s+0x88>
    c6c7:	8b 45 fc             	mov    -0x4(%rbp),%eax
    c6ca:	5d                   	pop    %rbp
    c6cb:	c3                   	retq   

000000000000c6cc <safe_mod_func_int32_t_s_s>:
    c6cc:	f3 0f 1e fa          	endbr64 
    c6d0:	55                   	push   %rbp
    c6d1:	48 89 e5             	mov    %rsp,%rbp
    c6d4:	89 7d fc             	mov    %edi,-0x4(%rbp)
    c6d7:	89 75 f8             	mov    %esi,-0x8(%rbp)
    c6da:	83 7d f8 00          	cmpl   $0x0,-0x8(%rbp)
    c6de:	74 1a                	je     c6fa <safe_mod_func_int32_t_s_s+0x2e>
    c6e0:	81 7d fc 00 00 00 80 	cmpl   $0x80000000,-0x4(%rbp)
    c6e7:	75 06                	jne    c6ef <safe_mod_func_int32_t_s_s+0x23>
    c6e9:	83 7d f8 ff          	cmpl   $0xffffffff,-0x8(%rbp)
    c6ed:	74 0b                	je     c6fa <safe_mod_func_int32_t_s_s+0x2e>
    c6ef:	8b 45 fc             	mov    -0x4(%rbp),%eax
    c6f2:	99                   	cltd   
    c6f3:	f7 7d f8             	idivl  -0x8(%rbp)
    c6f6:	89 d0                	mov    %edx,%eax
    c6f8:	eb 03                	jmp    c6fd <safe_mod_func_int32_t_s_s+0x31>
    c6fa:	8b 45 fc             	mov    -0x4(%rbp),%eax
    c6fd:	5d                   	pop    %rbp
    c6fe:	c3                   	retq   

000000000000c6ff <safe_div_func_int32_t_s_s>:
    c6ff:	f3 0f 1e fa          	endbr64 
    c703:	55                   	push   %rbp
    c704:	48 89 e5             	mov    %rsp,%rbp
    c707:	89 7d fc             	mov    %edi,-0x4(%rbp)
    c70a:	89 75 f8             	mov    %esi,-0x8(%rbp)
    c70d:	83 7d f8 00          	cmpl   $0x0,-0x8(%rbp)
    c711:	74 18                	je     c72b <safe_div_func_int32_t_s_s+0x2c>
    c713:	81 7d fc 00 00 00 80 	cmpl   $0x80000000,-0x4(%rbp)
    c71a:	75 06                	jne    c722 <safe_div_func_int32_t_s_s+0x23>
    c71c:	83 7d f8 ff          	cmpl   $0xffffffff,-0x8(%rbp)
    c720:	74 09                	je     c72b <safe_div_func_int32_t_s_s+0x2c>
    c722:	8b 45 fc             	mov    -0x4(%rbp),%eax
    c725:	99                   	cltd   
    c726:	f7 7d f8             	idivl  -0x8(%rbp)
    c729:	eb 03                	jmp    c72e <safe_div_func_int32_t_s_s+0x2f>
    c72b:	8b 45 fc             	mov    -0x4(%rbp),%eax
    c72e:	5d                   	pop    %rbp
    c72f:	c3                   	retq   

000000000000c730 <safe_lshift_func_int32_t_s_s>:
    c730:	f3 0f 1e fa          	endbr64 
    c734:	55                   	push   %rbp
    c735:	48 89 e5             	mov    %rsp,%rbp
    c738:	89 7d fc             	mov    %edi,-0x4(%rbp)
    c73b:	89 75 f8             	mov    %esi,-0x8(%rbp)
    c73e:	83 7d fc 00          	cmpl   $0x0,-0x4(%rbp)
    c742:	78 2d                	js     c771 <safe_lshift_func_int32_t_s_s+0x41>
    c744:	83 7d f8 00          	cmpl   $0x0,-0x8(%rbp)
    c748:	78 27                	js     c771 <safe_lshift_func_int32_t_s_s+0x41>
    c74a:	83 7d f8 1f          	cmpl   $0x1f,-0x8(%rbp)
    c74e:	7f 21                	jg     c771 <safe_lshift_func_int32_t_s_s+0x41>
    c750:	8b 45 f8             	mov    -0x8(%rbp),%eax
    c753:	ba ff ff ff 7f       	mov    $0x7fffffff,%edx
    c758:	89 c1                	mov    %eax,%ecx
    c75a:	d3 fa                	sar    %cl,%edx
    c75c:	89 d0                	mov    %edx,%eax
    c75e:	39 45 fc             	cmp    %eax,-0x4(%rbp)
    c761:	7f 0e                	jg     c771 <safe_lshift_func_int32_t_s_s+0x41>
    c763:	8b 45 f8             	mov    -0x8(%rbp),%eax
    c766:	8b 55 fc             	mov    -0x4(%rbp),%edx
    c769:	89 c1                	mov    %eax,%ecx
    c76b:	d3 e2                	shl    %cl,%edx
    c76d:	89 d0                	mov    %edx,%eax
    c76f:	eb 03                	jmp    c774 <safe_lshift_func_int32_t_s_s+0x44>
    c771:	8b 45 fc             	mov    -0x4(%rbp),%eax
    c774:	5d                   	pop    %rbp
    c775:	c3                   	retq   

000000000000c776 <safe_lshift_func_int32_t_s_u>:
    c776:	f3 0f 1e fa          	endbr64 
    c77a:	55                   	push   %rbp
    c77b:	48 89 e5             	mov    %rsp,%rbp
    c77e:	89 7d fc             	mov    %edi,-0x4(%rbp)
    c781:	89 75 f8             	mov    %esi,-0x8(%rbp)
    c784:	83 7d fc 00          	cmpl   $0x0,-0x4(%rbp)
    c788:	78 27                	js     c7b1 <safe_lshift_func_int32_t_s_u+0x3b>
    c78a:	83 7d f8 1f          	cmpl   $0x1f,-0x8(%rbp)
    c78e:	77 21                	ja     c7b1 <safe_lshift_func_int32_t_s_u+0x3b>
    c790:	8b 45 f8             	mov    -0x8(%rbp),%eax
    c793:	ba ff ff ff 7f       	mov    $0x7fffffff,%edx
    c798:	89 c1                	mov    %eax,%ecx
    c79a:	d3 fa                	sar    %cl,%edx
    c79c:	89 d0                	mov    %edx,%eax
    c79e:	39 45 fc             	cmp    %eax,-0x4(%rbp)
    c7a1:	7f 0e                	jg     c7b1 <safe_lshift_func_int32_t_s_u+0x3b>
    c7a3:	8b 45 f8             	mov    -0x8(%rbp),%eax
    c7a6:	8b 55 fc             	mov    -0x4(%rbp),%edx
    c7a9:	89 c1                	mov    %eax,%ecx
    c7ab:	d3 e2                	shl    %cl,%edx
    c7ad:	89 d0                	mov    %edx,%eax
    c7af:	eb 03                	jmp    c7b4 <safe_lshift_func_int32_t_s_u+0x3e>
    c7b1:	8b 45 fc             	mov    -0x4(%rbp),%eax
    c7b4:	5d                   	pop    %rbp
    c7b5:	c3                   	retq   

000000000000c7b6 <safe_rshift_func_int32_t_s_s>:
    c7b6:	f3 0f 1e fa          	endbr64 
    c7ba:	55                   	push   %rbp
    c7bb:	48 89 e5             	mov    %rsp,%rbp
    c7be:	89 7d fc             	mov    %edi,-0x4(%rbp)
    c7c1:	89 75 f8             	mov    %esi,-0x8(%rbp)
    c7c4:	83 7d fc 00          	cmpl   $0x0,-0x4(%rbp)
    c7c8:	78 1a                	js     c7e4 <safe_rshift_func_int32_t_s_s+0x2e>
    c7ca:	83 7d f8 00          	cmpl   $0x0,-0x8(%rbp)
    c7ce:	78 14                	js     c7e4 <safe_rshift_func_int32_t_s_s+0x2e>
    c7d0:	83 7d f8 1f          	cmpl   $0x1f,-0x8(%rbp)
    c7d4:	7f 0e                	jg     c7e4 <safe_rshift_func_int32_t_s_s+0x2e>
    c7d6:	8b 45 f8             	mov    -0x8(%rbp),%eax
    c7d9:	8b 55 fc             	mov    -0x4(%rbp),%edx
    c7dc:	89 c1                	mov    %eax,%ecx
    c7de:	d3 fa                	sar    %cl,%edx
    c7e0:	89 d0                	mov    %edx,%eax
    c7e2:	eb 03                	jmp    c7e7 <safe_rshift_func_int32_t_s_s+0x31>
    c7e4:	8b 45 fc             	mov    -0x4(%rbp),%eax
    c7e7:	5d                   	pop    %rbp
    c7e8:	c3                   	retq   

000000000000c7e9 <safe_rshift_func_int32_t_s_u>:
    c7e9:	f3 0f 1e fa          	endbr64 
    c7ed:	55                   	push   %rbp
    c7ee:	48 89 e5             	mov    %rsp,%rbp
    c7f1:	89 7d fc             	mov    %edi,-0x4(%rbp)
    c7f4:	89 75 f8             	mov    %esi,-0x8(%rbp)
    c7f7:	83 7d fc 00          	cmpl   $0x0,-0x4(%rbp)
    c7fb:	78 14                	js     c811 <safe_rshift_func_int32_t_s_u+0x28>
    c7fd:	83 7d f8 1f          	cmpl   $0x1f,-0x8(%rbp)
    c801:	77 0e                	ja     c811 <safe_rshift_func_int32_t_s_u+0x28>
    c803:	8b 45 f8             	mov    -0x8(%rbp),%eax
    c806:	8b 55 fc             	mov    -0x4(%rbp),%edx
    c809:	89 c1                	mov    %eax,%ecx
    c80b:	d3 fa                	sar    %cl,%edx
    c80d:	89 d0                	mov    %edx,%eax
    c80f:	eb 03                	jmp    c814 <safe_rshift_func_int32_t_s_u+0x2b>
    c811:	8b 45 fc             	mov    -0x4(%rbp),%eax
    c814:	5d                   	pop    %rbp
    c815:	c3                   	retq   

000000000000c816 <safe_unary_minus_func_int64_t_s>:
    c816:	f3 0f 1e fa          	endbr64 
    c81a:	55                   	push   %rbp
    c81b:	48 89 e5             	mov    %rsp,%rbp
    c81e:	48 89 7d f8          	mov    %rdi,-0x8(%rbp)
    c822:	48 b8 00 00 00 00 00 	movabs $0x8000000000000000,%rax
    c829:	00 00 80 
    c82c:	48 39 45 f8          	cmp    %rax,-0x8(%rbp)
    c830:	74 09                	je     c83b <safe_unary_minus_func_int64_t_s+0x25>
    c832:	48 8b 45 f8          	mov    -0x8(%rbp),%rax
    c836:	48 f7 d8             	neg    %rax
    c839:	eb 04                	jmp    c83f <safe_unary_minus_func_int64_t_s+0x29>
    c83b:	48 8b 45 f8          	mov    -0x8(%rbp),%rax
    c83f:	5d                   	pop    %rbp
    c840:	c3                   	retq   

000000000000c841 <safe_add_func_int64_t_s_s>:
    c841:	f3 0f 1e fa          	endbr64 
    c845:	55                   	push   %rbp
    c846:	48 89 e5             	mov    %rsp,%rbp
    c849:	48 89 7d f8          	mov    %rdi,-0x8(%rbp)
    c84d:	48 89 75 f0          	mov    %rsi,-0x10(%rbp)
    c851:	48 83 7d f8 00       	cmpq   $0x0,-0x8(%rbp)
    c856:	7e 1b                	jle    c873 <safe_add_func_int64_t_s_s+0x32>
    c858:	48 83 7d f0 00       	cmpq   $0x0,-0x10(%rbp)
    c85d:	7e 14                	jle    c873 <safe_add_func_int64_t_s_s+0x32>
    c85f:	48 b8 ff ff ff ff ff 	movabs $0x7fffffffffffffff,%rax
    c866:	ff ff 7f 
    c869:	48 2b 45 f0          	sub    -0x10(%rbp),%rax
    c86d:	48 39 45 f8          	cmp    %rax,-0x8(%rbp)
    c871:	7f 2f                	jg     c8a2 <safe_add_func_int64_t_s_s+0x61>
    c873:	48 83 7d f8 00       	cmpq   $0x0,-0x8(%rbp)
    c878:	79 1b                	jns    c895 <safe_add_func_int64_t_s_s+0x54>
    c87a:	48 83 7d f0 00       	cmpq   $0x0,-0x10(%rbp)
    c87f:	79 14                	jns    c895 <safe_add_func_int64_t_s_s+0x54>
    c881:	48 b8 00 00 00 00 00 	movabs $0x8000000000000000,%rax
    c888:	00 00 80 
    c88b:	48 2b 45 f0          	sub    -0x10(%rbp),%rax
    c88f:	48 39 45 f8          	cmp    %rax,-0x8(%rbp)
    c893:	7c 0d                	jl     c8a2 <safe_add_func_int64_t_s_s+0x61>
    c895:	48 8b 55 f8          	mov    -0x8(%rbp),%rdx
    c899:	48 8b 45 f0          	mov    -0x10(%rbp),%rax
    c89d:	48 01 d0             	add    %rdx,%rax
    c8a0:	eb 04                	jmp    c8a6 <safe_add_func_int64_t_s_s+0x65>
    c8a2:	48 8b 45 f8          	mov    -0x8(%rbp),%rax
    c8a6:	5d                   	pop    %rbp
    c8a7:	c3                   	retq   

000000000000c8a8 <safe_sub_func_int64_t_s_s>:
    c8a8:	f3 0f 1e fa          	endbr64 
    c8ac:	55                   	push   %rbp
    c8ad:	48 89 e5             	mov    %rsp,%rbp
    c8b0:	48 89 7d f8          	mov    %rdi,-0x8(%rbp)
    c8b4:	48 89 75 f0          	mov    %rsi,-0x10(%rbp)
    c8b8:	48 8b 45 f8          	mov    -0x8(%rbp),%rax
    c8bc:	48 33 45 f0          	xor    -0x10(%rbp),%rax
    c8c0:	48 89 c2             	mov    %rax,%rdx
    c8c3:	48 8b 45 f8          	mov    -0x8(%rbp),%rax
    c8c7:	48 33 45 f0          	xor    -0x10(%rbp),%rax
    c8cb:	48 b9 00 00 00 00 00 	movabs $0x8000000000000000,%rcx
    c8d2:	00 00 80 
    c8d5:	48 21 c8             	and    %rcx,%rax
    c8d8:	48 33 45 f8          	xor    -0x8(%rbp),%rax
    c8dc:	48 2b 45 f0          	sub    -0x10(%rbp),%rax
    c8e0:	48 33 45 f0          	xor    -0x10(%rbp),%rax
    c8e4:	48 21 d0             	and    %rdx,%rax
    c8e7:	48 85 c0             	test   %rax,%rax
    c8ea:	78 0a                	js     c8f6 <safe_sub_func_int64_t_s_s+0x4e>
    c8ec:	48 8b 45 f8          	mov    -0x8(%rbp),%rax
    c8f0:	48 2b 45 f0          	sub    -0x10(%rbp),%rax
    c8f4:	eb 04                	jmp    c8fa <safe_sub_func_int64_t_s_s+0x52>
    c8f6:	48 8b 45 f8          	mov    -0x8(%rbp),%rax
    c8fa:	5d                   	pop    %rbp
    c8fb:	c3                   	retq   

000000000000c8fc <safe_mul_func_int64_t_s_s>:
    c8fc:	f3 0f 1e fa          	endbr64 
    c900:	55                   	push   %rbp
    c901:	48 89 e5             	mov    %rsp,%rbp
    c904:	48 89 7d f8          	mov    %rdi,-0x8(%rbp)
    c908:	48 89 75 f0          	mov    %rsi,-0x10(%rbp)
    c90c:	48 83 7d f8 00       	cmpq   $0x0,-0x8(%rbp)
    c911:	7e 1d                	jle    c930 <safe_mul_func_int64_t_s_s+0x34>
    c913:	48 83 7d f0 00       	cmpq   $0x0,-0x10(%rbp)
    c918:	7e 16                	jle    c930 <safe_mul_func_int64_t_s_s+0x34>
    c91a:	48 b8 ff ff ff ff ff 	movabs $0x7fffffffffffffff,%rax
    c921:	ff ff 7f 
    c924:	48 99                	cqto   
    c926:	48 f7 7d f0          	idivq  -0x10(%rbp)
    c92a:	48 39 45 f8          	cmp    %rax,-0x8(%rbp)
    c92e:	7f 7e                	jg     c9ae <safe_mul_func_int64_t_s_s+0xb2>
    c930:	48 83 7d f8 00       	cmpq   $0x0,-0x8(%rbp)
    c935:	7e 1d                	jle    c954 <safe_mul_func_int64_t_s_s+0x58>
    c937:	48 83 7d f0 00       	cmpq   $0x0,-0x10(%rbp)
    c93c:	7f 16                	jg     c954 <safe_mul_func_int64_t_s_s+0x58>
    c93e:	48 b8 00 00 00 00 00 	movabs $0x8000000000000000,%rax
    c945:	00 00 80 
    c948:	48 99                	cqto   
    c94a:	48 f7 7d f8          	idivq  -0x8(%rbp)
    c94e:	48 39 45 f0          	cmp    %rax,-0x10(%rbp)
    c952:	7c 5a                	jl     c9ae <safe_mul_func_int64_t_s_s+0xb2>
    c954:	48 83 7d f8 00       	cmpq   $0x0,-0x8(%rbp)
    c959:	7f 1d                	jg     c978 <safe_mul_func_int64_t_s_s+0x7c>
    c95b:	48 83 7d f0 00       	cmpq   $0x0,-0x10(%rbp)
    c960:	7e 16                	jle    c978 <safe_mul_func_int64_t_s_s+0x7c>
    c962:	48 b8 00 00 00 00 00 	movabs $0x8000000000000000,%rax
    c969:	00 00 80 
    c96c:	48 99                	cqto   
    c96e:	48 f7 7d f0          	idivq  -0x10(%rbp)
    c972:	48 39 45 f8          	cmp    %rax,-0x8(%rbp)
    c976:	7c 36                	jl     c9ae <safe_mul_func_int64_t_s_s+0xb2>
    c978:	48 83 7d f8 00       	cmpq   $0x0,-0x8(%rbp)
    c97d:	7f 24                	jg     c9a3 <safe_mul_func_int64_t_s_s+0xa7>
    c97f:	48 83 7d f0 00       	cmpq   $0x0,-0x10(%rbp)
    c984:	7f 1d                	jg     c9a3 <safe_mul_func_int64_t_s_s+0xa7>
    c986:	48 83 7d f8 00       	cmpq   $0x0,-0x8(%rbp)
    c98b:	74 16                	je     c9a3 <safe_mul_func_int64_t_s_s+0xa7>
    c98d:	48 b8 ff ff ff ff ff 	movabs $0x7fffffffffffffff,%rax
    c994:	ff ff 7f 
    c997:	48 99                	cqto   
    c999:	48 f7 7d f8          	idivq  -0x8(%rbp)
    c99d:	48 39 45 f0          	cmp    %rax,-0x10(%rbp)
    c9a1:	7c 0b                	jl     c9ae <safe_mul_func_int64_t_s_s+0xb2>
    c9a3:	48 8b 45 f8          	mov    -0x8(%rbp),%rax
    c9a7:	48 0f af 45 f0       	imul   -0x10(%rbp),%rax
    c9ac:	eb 04                	jmp    c9b2 <safe_mul_func_int64_t_s_s+0xb6>
    c9ae:	48 8b 45 f8          	mov    -0x8(%rbp),%rax
    c9b2:	5d                   	pop    %rbp
    c9b3:	c3                   	retq   

000000000000c9b4 <safe_mod_func_int64_t_s_s>:
    c9b4:	f3 0f 1e fa          	endbr64 
    c9b8:	55                   	push   %rbp
    c9b9:	48 89 e5             	mov    %rsp,%rbp
    c9bc:	48 89 7d f8          	mov    %rdi,-0x8(%rbp)
    c9c0:	48 89 75 f0          	mov    %rsi,-0x10(%rbp)
    c9c4:	48 83 7d f0 00       	cmpq   $0x0,-0x10(%rbp)
    c9c9:	74 26                	je     c9f1 <safe_mod_func_int64_t_s_s+0x3d>
    c9cb:	48 b8 00 00 00 00 00 	movabs $0x8000000000000000,%rax
    c9d2:	00 00 80 
    c9d5:	48 39 45 f8          	cmp    %rax,-0x8(%rbp)
    c9d9:	75 07                	jne    c9e2 <safe_mod_func_int64_t_s_s+0x2e>
    c9db:	48 83 7d f0 ff       	cmpq   $0xffffffffffffffff,-0x10(%rbp)
    c9e0:	74 0f                	je     c9f1 <safe_mod_func_int64_t_s_s+0x3d>
    c9e2:	48 8b 45 f8          	mov    -0x8(%rbp),%rax
    c9e6:	48 99                	cqto   
    c9e8:	48 f7 7d f0          	idivq  -0x10(%rbp)
    c9ec:	48 89 d0             	mov    %rdx,%rax
    c9ef:	eb 04                	jmp    c9f5 <safe_mod_func_int64_t_s_s+0x41>
    c9f1:	48 8b 45 f8          	mov    -0x8(%rbp),%rax
    c9f5:	5d                   	pop    %rbp
    c9f6:	c3                   	retq   

000000000000c9f7 <safe_div_func_int64_t_s_s>:
    c9f7:	f3 0f 1e fa          	endbr64 
    c9fb:	55                   	push   %rbp
    c9fc:	48 89 e5             	mov    %rsp,%rbp
    c9ff:	48 89 7d f8          	mov    %rdi,-0x8(%rbp)
    ca03:	48 89 75 f0          	mov    %rsi,-0x10(%rbp)
    ca07:	48 83 7d f0 00       	cmpq   $0x0,-0x10(%rbp)
    ca0c:	74 23                	je     ca31 <safe_div_func_int64_t_s_s+0x3a>
    ca0e:	48 b8 00 00 00 00 00 	movabs $0x8000000000000000,%rax
    ca15:	00 00 80 
    ca18:	48 39 45 f8          	cmp    %rax,-0x8(%rbp)
    ca1c:	75 07                	jne    ca25 <safe_div_func_int64_t_s_s+0x2e>
    ca1e:	48 83 7d f0 ff       	cmpq   $0xffffffffffffffff,-0x10(%rbp)
    ca23:	74 0c                	je     ca31 <safe_div_func_int64_t_s_s+0x3a>
    ca25:	48 8b 45 f8          	mov    -0x8(%rbp),%rax
    ca29:	48 99                	cqto   
    ca2b:	48 f7 7d f0          	idivq  -0x10(%rbp)
    ca2f:	eb 04                	jmp    ca35 <safe_div_func_int64_t_s_s+0x3e>
    ca31:	48 8b 45 f8          	mov    -0x8(%rbp),%rax
    ca35:	5d                   	pop    %rbp
    ca36:	c3                   	retq   

000000000000ca37 <safe_lshift_func_int64_t_s_s>:
    ca37:	f3 0f 1e fa          	endbr64 
    ca3b:	55                   	push   %rbp
    ca3c:	48 89 e5             	mov    %rsp,%rbp
    ca3f:	48 89 7d f8          	mov    %rdi,-0x8(%rbp)
    ca43:	89 75 f4             	mov    %esi,-0xc(%rbp)
    ca46:	48 83 7d f8 00       	cmpq   $0x0,-0x8(%rbp)
    ca4b:	78 38                	js     ca85 <safe_lshift_func_int64_t_s_s+0x4e>
    ca4d:	83 7d f4 00          	cmpl   $0x0,-0xc(%rbp)
    ca51:	78 32                	js     ca85 <safe_lshift_func_int64_t_s_s+0x4e>
    ca53:	83 7d f4 1f          	cmpl   $0x1f,-0xc(%rbp)
    ca57:	7f 2c                	jg     ca85 <safe_lshift_func_int64_t_s_s+0x4e>
    ca59:	8b 45 f4             	mov    -0xc(%rbp),%eax
    ca5c:	48 ba ff ff ff ff ff 	movabs $0x7fffffffffffffff,%rdx
    ca63:	ff ff 7f 
    ca66:	89 c1                	mov    %eax,%ecx
    ca68:	48 d3 fa             	sar    %cl,%rdx
    ca6b:	48 89 d0             	mov    %rdx,%rax
    ca6e:	48 39 45 f8          	cmp    %rax,-0x8(%rbp)
    ca72:	7f 11                	jg     ca85 <safe_lshift_func_int64_t_s_s+0x4e>
    ca74:	8b 45 f4             	mov    -0xc(%rbp),%eax
    ca77:	48 8b 55 f8          	mov    -0x8(%rbp),%rdx
    ca7b:	89 c1                	mov    %eax,%ecx
    ca7d:	48 d3 e2             	shl    %cl,%rdx
    ca80:	48 89 d0             	mov    %rdx,%rax
    ca83:	eb 04                	jmp    ca89 <safe_lshift_func_int64_t_s_s+0x52>
    ca85:	48 8b 45 f8          	mov    -0x8(%rbp),%rax
    ca89:	5d                   	pop    %rbp
    ca8a:	c3                   	retq   

000000000000ca8b <safe_lshift_func_int64_t_s_u>:
    ca8b:	f3 0f 1e fa          	endbr64 
    ca8f:	55                   	push   %rbp
    ca90:	48 89 e5             	mov    %rsp,%rbp
    ca93:	48 89 7d f8          	mov    %rdi,-0x8(%rbp)
    ca97:	89 75 f4             	mov    %esi,-0xc(%rbp)
    ca9a:	48 83 7d f8 00       	cmpq   $0x0,-0x8(%rbp)
    ca9f:	78 32                	js     cad3 <safe_lshift_func_int64_t_s_u+0x48>
    caa1:	83 7d f4 1f          	cmpl   $0x1f,-0xc(%rbp)
    caa5:	77 2c                	ja     cad3 <safe_lshift_func_int64_t_s_u+0x48>
    caa7:	8b 45 f4             	mov    -0xc(%rbp),%eax
    caaa:	48 ba ff ff ff ff ff 	movabs $0x7fffffffffffffff,%rdx
    cab1:	ff ff 7f 
    cab4:	89 c1                	mov    %eax,%ecx
    cab6:	48 d3 fa             	sar    %cl,%rdx
    cab9:	48 89 d0             	mov    %rdx,%rax
    cabc:	48 39 45 f8          	cmp    %rax,-0x8(%rbp)
    cac0:	7f 11                	jg     cad3 <safe_lshift_func_int64_t_s_u+0x48>
    cac2:	8b 45 f4             	mov    -0xc(%rbp),%eax
    cac5:	48 8b 55 f8          	mov    -0x8(%rbp),%rdx
    cac9:	89 c1                	mov    %eax,%ecx
    cacb:	48 d3 e2             	shl    %cl,%rdx
    cace:	48 89 d0             	mov    %rdx,%rax
    cad1:	eb 04                	jmp    cad7 <safe_lshift_func_int64_t_s_u+0x4c>
    cad3:	48 8b 45 f8          	mov    -0x8(%rbp),%rax
    cad7:	5d                   	pop    %rbp
    cad8:	c3                   	retq   

000000000000cad9 <safe_rshift_func_int64_t_s_s>:
    cad9:	f3 0f 1e fa          	endbr64 
    cadd:	55                   	push   %rbp
    cade:	48 89 e5             	mov    %rsp,%rbp
    cae1:	48 89 7d f8          	mov    %rdi,-0x8(%rbp)
    cae5:	89 75 f4             	mov    %esi,-0xc(%rbp)
    cae8:	48 83 7d f8 00       	cmpq   $0x0,-0x8(%rbp)
    caed:	78 1d                	js     cb0c <safe_rshift_func_int64_t_s_s+0x33>
    caef:	83 7d f4 00          	cmpl   $0x0,-0xc(%rbp)
    caf3:	78 17                	js     cb0c <safe_rshift_func_int64_t_s_s+0x33>
    caf5:	83 7d f4 1f          	cmpl   $0x1f,-0xc(%rbp)
    caf9:	7f 11                	jg     cb0c <safe_rshift_func_int64_t_s_s+0x33>
    cafb:	8b 45 f4             	mov    -0xc(%rbp),%eax
    cafe:	48 8b 55 f8          	mov    -0x8(%rbp),%rdx
    cb02:	89 c1                	mov    %eax,%ecx
    cb04:	48 d3 fa             	sar    %cl,%rdx
    cb07:	48 89 d0             	mov    %rdx,%rax
    cb0a:	eb 04                	jmp    cb10 <safe_rshift_func_int64_t_s_s+0x37>
    cb0c:	48 8b 45 f8          	mov    -0x8(%rbp),%rax
    cb10:	5d                   	pop    %rbp
    cb11:	c3                   	retq   

000000000000cb12 <safe_rshift_func_int64_t_s_u>:
    cb12:	f3 0f 1e fa          	endbr64 
    cb16:	55                   	push   %rbp
    cb17:	48 89 e5             	mov    %rsp,%rbp
    cb1a:	48 89 7d f8          	mov    %rdi,-0x8(%rbp)
    cb1e:	89 75 f4             	mov    %esi,-0xc(%rbp)
    cb21:	48 83 7d f8 00       	cmpq   $0x0,-0x8(%rbp)
    cb26:	78 17                	js     cb3f <safe_rshift_func_int64_t_s_u+0x2d>
    cb28:	83 7d f4 1f          	cmpl   $0x1f,-0xc(%rbp)
    cb2c:	77 11                	ja     cb3f <safe_rshift_func_int64_t_s_u+0x2d>
    cb2e:	8b 45 f4             	mov    -0xc(%rbp),%eax
    cb31:	48 8b 55 f8          	mov    -0x8(%rbp),%rdx
    cb35:	89 c1                	mov    %eax,%ecx
    cb37:	48 d3 fa             	sar    %cl,%rdx
    cb3a:	48 89 d0             	mov    %rdx,%rax
    cb3d:	eb 04                	jmp    cb43 <safe_rshift_func_int64_t_s_u+0x31>
    cb3f:	48 8b 45 f8          	mov    -0x8(%rbp),%rax
    cb43:	5d                   	pop    %rbp
    cb44:	c3                   	retq   

000000000000cb45 <safe_unary_minus_func_uint8_t_u>:
    cb45:	f3 0f 1e fa          	endbr64 
    cb49:	55                   	push   %rbp
    cb4a:	48 89 e5             	mov    %rsp,%rbp
    cb4d:	89 f8                	mov    %edi,%eax
    cb4f:	88 45 fc             	mov    %al,-0x4(%rbp)
    cb52:	0f b6 45 fc          	movzbl -0x4(%rbp),%eax
    cb56:	f7 d8                	neg    %eax
    cb58:	5d                   	pop    %rbp
    cb59:	c3                   	retq   

000000000000cb5a <safe_add_func_uint8_t_u_u>:
    cb5a:	f3 0f 1e fa          	endbr64 
    cb5e:	55                   	push   %rbp
    cb5f:	48 89 e5             	mov    %rsp,%rbp
    cb62:	89 fa                	mov    %edi,%edx
    cb64:	89 f0                	mov    %esi,%eax
    cb66:	88 55 fc             	mov    %dl,-0x4(%rbp)
    cb69:	88 45 f8             	mov    %al,-0x8(%rbp)
    cb6c:	0f b6 55 fc          	movzbl -0x4(%rbp),%edx
    cb70:	0f b6 45 f8          	movzbl -0x8(%rbp),%eax
    cb74:	01 d0                	add    %edx,%eax
    cb76:	5d                   	pop    %rbp
    cb77:	c3                   	retq   

000000000000cb78 <safe_sub_func_uint8_t_u_u>:
    cb78:	f3 0f 1e fa          	endbr64 
    cb7c:	55                   	push   %rbp
    cb7d:	48 89 e5             	mov    %rsp,%rbp
    cb80:	89 fa                	mov    %edi,%edx
    cb82:	89 f0                	mov    %esi,%eax
    cb84:	88 55 fc             	mov    %dl,-0x4(%rbp)
    cb87:	88 45 f8             	mov    %al,-0x8(%rbp)
    cb8a:	0f b6 45 fc          	movzbl -0x4(%rbp),%eax
    cb8e:	2a 45 f8             	sub    -0x8(%rbp),%al
    cb91:	5d                   	pop    %rbp
    cb92:	c3                   	retq   

000000000000cb93 <safe_mul_func_uint8_t_u_u>:
    cb93:	f3 0f 1e fa          	endbr64 
    cb97:	55                   	push   %rbp
    cb98:	48 89 e5             	mov    %rsp,%rbp
    cb9b:	89 fa                	mov    %edi,%edx
    cb9d:	89 f0                	mov    %esi,%eax
    cb9f:	88 55 fc             	mov    %dl,-0x4(%rbp)
    cba2:	88 45 f8             	mov    %al,-0x8(%rbp)
    cba5:	0f b6 45 fc          	movzbl -0x4(%rbp),%eax
    cba9:	f6 65 f8             	mulb   -0x8(%rbp)
    cbac:	5d                   	pop    %rbp
    cbad:	c3                   	retq   

000000000000cbae <safe_mod_func_uint8_t_u_u>:
    cbae:	f3 0f 1e fa          	endbr64 
    cbb2:	55                   	push   %rbp
    cbb3:	48 89 e5             	mov    %rsp,%rbp
    cbb6:	89 fa                	mov    %edi,%edx
    cbb8:	89 f0                	mov    %esi,%eax
    cbba:	88 55 fc             	mov    %dl,-0x4(%rbp)
    cbbd:	88 45 f8             	mov    %al,-0x8(%rbp)
    cbc0:	80 7d f8 00          	cmpb   $0x0,-0x8(%rbp)
    cbc4:	74 0f                	je     cbd5 <safe_mod_func_uint8_t_u_u+0x27>
    cbc6:	0f b6 45 fc          	movzbl -0x4(%rbp),%eax
    cbca:	0f b6 c0             	movzbl %al,%eax
    cbcd:	f6 75 f8             	divb   -0x8(%rbp)
    cbd0:	0f b6 c4             	movzbl %ah,%eax
    cbd3:	eb 04                	jmp    cbd9 <safe_mod_func_uint8_t_u_u+0x2b>
    cbd5:	0f b6 45 fc          	movzbl -0x4(%rbp),%eax
    cbd9:	5d                   	pop    %rbp
    cbda:	c3                   	retq   

000000000000cbdb <safe_div_func_uint8_t_u_u>:
    cbdb:	f3 0f 1e fa          	endbr64 
    cbdf:	55                   	push   %rbp
    cbe0:	48 89 e5             	mov    %rsp,%rbp
    cbe3:	89 fa                	mov    %edi,%edx
    cbe5:	89 f0                	mov    %esi,%eax
    cbe7:	88 55 fc             	mov    %dl,-0x4(%rbp)
    cbea:	88 45 f8             	mov    %al,-0x8(%rbp)
    cbed:	80 7d f8 00          	cmpb   $0x0,-0x8(%rbp)
    cbf1:	74 0c                	je     cbff <safe_div_func_uint8_t_u_u+0x24>
    cbf3:	0f b6 45 fc          	movzbl -0x4(%rbp),%eax
    cbf7:	0f b6 c0             	movzbl %al,%eax
    cbfa:	f6 75 f8             	divb   -0x8(%rbp)
    cbfd:	eb 04                	jmp    cc03 <safe_div_func_uint8_t_u_u+0x28>
    cbff:	0f b6 45 fc          	movzbl -0x4(%rbp),%eax
    cc03:	5d                   	pop    %rbp
    cc04:	c3                   	retq   

000000000000cc05 <safe_lshift_func_uint8_t_u_s>:
    cc05:	f3 0f 1e fa          	endbr64 
    cc09:	55                   	push   %rbp
    cc0a:	48 89 e5             	mov    %rsp,%rbp
    cc0d:	89 f8                	mov    %edi,%eax
    cc0f:	89 75 f8             	mov    %esi,-0x8(%rbp)
    cc12:	88 45 fc             	mov    %al,-0x4(%rbp)
    cc15:	83 7d f8 00          	cmpl   $0x0,-0x8(%rbp)
    cc19:	78 2b                	js     cc46 <safe_lshift_func_uint8_t_u_s+0x41>
    cc1b:	83 7d f8 1f          	cmpl   $0x1f,-0x8(%rbp)
    cc1f:	7f 25                	jg     cc46 <safe_lshift_func_uint8_t_u_s+0x41>
    cc21:	0f b6 55 fc          	movzbl -0x4(%rbp),%edx
    cc25:	8b 45 f8             	mov    -0x8(%rbp),%eax
    cc28:	be ff 00 00 00       	mov    $0xff,%esi
    cc2d:	89 c1                	mov    %eax,%ecx
    cc2f:	d3 fe                	sar    %cl,%esi
    cc31:	89 f0                	mov    %esi,%eax
    cc33:	39 c2                	cmp    %eax,%edx
    cc35:	7f 0f                	jg     cc46 <safe_lshift_func_uint8_t_u_s+0x41>
    cc37:	0f b6 55 fc          	movzbl -0x4(%rbp),%edx
    cc3b:	8b 45 f8             	mov    -0x8(%rbp),%eax
    cc3e:	89 c1                	mov    %eax,%ecx
    cc40:	d3 e2                	shl    %cl,%edx
    cc42:	89 d0                	mov    %edx,%eax
    cc44:	eb 04                	jmp    cc4a <safe_lshift_func_uint8_t_u_s+0x45>
    cc46:	0f b6 45 fc          	movzbl -0x4(%rbp),%eax
    cc4a:	5d                   	pop    %rbp
    cc4b:	c3                   	retq   

000000000000cc4c <safe_lshift_func_uint8_t_u_u>:
    cc4c:	f3 0f 1e fa          	endbr64 
    cc50:	55                   	push   %rbp
    cc51:	48 89 e5             	mov    %rsp,%rbp
    cc54:	89 f8                	mov    %edi,%eax
    cc56:	89 75 f8             	mov    %esi,-0x8(%rbp)
    cc59:	88 45 fc             	mov    %al,-0x4(%rbp)
    cc5c:	83 7d f8 1f          	cmpl   $0x1f,-0x8(%rbp)
    cc60:	77 25                	ja     cc87 <safe_lshift_func_uint8_t_u_u+0x3b>
    cc62:	0f b6 55 fc          	movzbl -0x4(%rbp),%edx
    cc66:	8b 45 f8             	mov    -0x8(%rbp),%eax
    cc69:	be ff 00 00 00       	mov    $0xff,%esi
    cc6e:	89 c1                	mov    %eax,%ecx
    cc70:	d3 fe                	sar    %cl,%esi
    cc72:	89 f0                	mov    %esi,%eax
    cc74:	39 c2                	cmp    %eax,%edx
    cc76:	7f 0f                	jg     cc87 <safe_lshift_func_uint8_t_u_u+0x3b>
    cc78:	0f b6 55 fc          	movzbl -0x4(%rbp),%edx
    cc7c:	8b 45 f8             	mov    -0x8(%rbp),%eax
    cc7f:	89 c1                	mov    %eax,%ecx
    cc81:	d3 e2                	shl    %cl,%edx
    cc83:	89 d0                	mov    %edx,%eax
    cc85:	eb 04                	jmp    cc8b <safe_lshift_func_uint8_t_u_u+0x3f>
    cc87:	0f b6 45 fc          	movzbl -0x4(%rbp),%eax
    cc8b:	5d                   	pop    %rbp
    cc8c:	c3                   	retq   

000000000000cc8d <safe_rshift_func_uint8_t_u_s>:
    cc8d:	f3 0f 1e fa          	endbr64 
    cc91:	55                   	push   %rbp
    cc92:	48 89 e5             	mov    %rsp,%rbp
    cc95:	89 f8                	mov    %edi,%eax
    cc97:	89 75 f8             	mov    %esi,-0x8(%rbp)
    cc9a:	88 45 fc             	mov    %al,-0x4(%rbp)
    cc9d:	83 7d f8 00          	cmpl   $0x0,-0x8(%rbp)
    cca1:	78 15                	js     ccb8 <safe_rshift_func_uint8_t_u_s+0x2b>
    cca3:	83 7d f8 1f          	cmpl   $0x1f,-0x8(%rbp)
    cca7:	7f 0f                	jg     ccb8 <safe_rshift_func_uint8_t_u_s+0x2b>
    cca9:	0f b6 55 fc          	movzbl -0x4(%rbp),%edx
    ccad:	8b 45 f8             	mov    -0x8(%rbp),%eax
    ccb0:	89 c1                	mov    %eax,%ecx
    ccb2:	d3 fa                	sar    %cl,%edx
    ccb4:	89 d0                	mov    %edx,%eax
    ccb6:	eb 04                	jmp    ccbc <safe_rshift_func_uint8_t_u_s+0x2f>
    ccb8:	0f b6 45 fc          	movzbl -0x4(%rbp),%eax
    ccbc:	5d                   	pop    %rbp
    ccbd:	c3                   	retq   

000000000000ccbe <safe_rshift_func_uint8_t_u_u>:
    ccbe:	f3 0f 1e fa          	endbr64 
    ccc2:	55                   	push   %rbp
    ccc3:	48 89 e5             	mov    %rsp,%rbp
    ccc6:	89 f8                	mov    %edi,%eax
    ccc8:	89 75 f8             	mov    %esi,-0x8(%rbp)
    cccb:	88 45 fc             	mov    %al,-0x4(%rbp)
    ccce:	83 7d f8 1f          	cmpl   $0x1f,-0x8(%rbp)
    ccd2:	77 0f                	ja     cce3 <safe_rshift_func_uint8_t_u_u+0x25>
    ccd4:	0f b6 55 fc          	movzbl -0x4(%rbp),%edx
    ccd8:	8b 45 f8             	mov    -0x8(%rbp),%eax
    ccdb:	89 c1                	mov    %eax,%ecx
    ccdd:	d3 fa                	sar    %cl,%edx
    ccdf:	89 d0                	mov    %edx,%eax
    cce1:	eb 04                	jmp    cce7 <safe_rshift_func_uint8_t_u_u+0x29>
    cce3:	0f b6 45 fc          	movzbl -0x4(%rbp),%eax
    cce7:	5d                   	pop    %rbp
    cce8:	c3                   	retq   

000000000000cce9 <safe_unary_minus_func_uint16_t_u>:
    cce9:	f3 0f 1e fa          	endbr64 
    cced:	55                   	push   %rbp
    ccee:	48 89 e5             	mov    %rsp,%rbp
    ccf1:	89 f8                	mov    %edi,%eax
    ccf3:	66 89 45 fc          	mov    %ax,-0x4(%rbp)
    ccf7:	0f b7 45 fc          	movzwl -0x4(%rbp),%eax
    ccfb:	f7 d8                	neg    %eax
    ccfd:	5d                   	pop    %rbp
    ccfe:	c3                   	retq   

000000000000ccff <safe_add_func_uint16_t_u_u>:
    ccff:	f3 0f 1e fa          	endbr64 
    cd03:	55                   	push   %rbp
    cd04:	48 89 e5             	mov    %rsp,%rbp
    cd07:	89 fa                	mov    %edi,%edx
    cd09:	89 f0                	mov    %esi,%eax
    cd0b:	66 89 55 fc          	mov    %dx,-0x4(%rbp)
    cd0f:	66 89 45 f8          	mov    %ax,-0x8(%rbp)
    cd13:	0f b7 55 fc          	movzwl -0x4(%rbp),%edx
    cd17:	0f b7 45 f8          	movzwl -0x8(%rbp),%eax
    cd1b:	01 d0                	add    %edx,%eax
    cd1d:	5d                   	pop    %rbp
    cd1e:	c3                   	retq   

000000000000cd1f <safe_sub_func_uint16_t_u_u>:
    cd1f:	f3 0f 1e fa          	endbr64 
    cd23:	55                   	push   %rbp
    cd24:	48 89 e5             	mov    %rsp,%rbp
    cd27:	89 fa                	mov    %edi,%edx
    cd29:	89 f0                	mov    %esi,%eax
    cd2b:	66 89 55 fc          	mov    %dx,-0x4(%rbp)
    cd2f:	66 89 45 f8          	mov    %ax,-0x8(%rbp)
    cd33:	0f b7 45 fc          	movzwl -0x4(%rbp),%eax
    cd37:	66 2b 45 f8          	sub    -0x8(%rbp),%ax
    cd3b:	5d                   	pop    %rbp
    cd3c:	c3                   	retq   

000000000000cd3d <safe_mul_func_uint16_t_u_u>:
    cd3d:	f3 0f 1e fa          	endbr64 
    cd41:	55                   	push   %rbp
    cd42:	48 89 e5             	mov    %rsp,%rbp
    cd45:	89 fa                	mov    %edi,%edx
    cd47:	89 f0                	mov    %esi,%eax
    cd49:	66 89 55 fc          	mov    %dx,-0x4(%rbp)
    cd4d:	66 89 45 f8          	mov    %ax,-0x8(%rbp)
    cd51:	0f b7 45 fc          	movzwl -0x4(%rbp),%eax
    cd55:	66 0f af 45 f8       	imul   -0x8(%rbp),%ax
    cd5a:	5d                   	pop    %rbp
    cd5b:	c3                   	retq   

000000000000cd5c <safe_mod_func_uint16_t_u_u>:
    cd5c:	f3 0f 1e fa          	endbr64 
    cd60:	55                   	push   %rbp
    cd61:	48 89 e5             	mov    %rsp,%rbp
    cd64:	89 fa                	mov    %edi,%edx
    cd66:	89 f0                	mov    %esi,%eax
    cd68:	66 89 55 fc          	mov    %dx,-0x4(%rbp)
    cd6c:	66 89 45 f8          	mov    %ax,-0x8(%rbp)
    cd70:	66 83 7d f8 00       	cmpw   $0x0,-0x8(%rbp)
    cd75:	74 11                	je     cd88 <safe_mod_func_uint16_t_u_u+0x2c>
    cd77:	0f b7 45 fc          	movzwl -0x4(%rbp),%eax
    cd7b:	ba 00 00 00 00       	mov    $0x0,%edx
    cd80:	66 f7 75 f8          	divw   -0x8(%rbp)
    cd84:	89 d0                	mov    %edx,%eax
    cd86:	eb 04                	jmp    cd8c <safe_mod_func_uint16_t_u_u+0x30>
    cd88:	0f b7 45 fc          	movzwl -0x4(%rbp),%eax
    cd8c:	5d                   	pop    %rbp
    cd8d:	c3                   	retq   

000000000000cd8e <safe_div_func_uint16_t_u_u>:
    cd8e:	f3 0f 1e fa          	endbr64 
    cd92:	55                   	push   %rbp
    cd93:	48 89 e5             	mov    %rsp,%rbp
    cd96:	89 fa                	mov    %edi,%edx
    cd98:	89 f0                	mov    %esi,%eax
    cd9a:	66 89 55 fc          	mov    %dx,-0x4(%rbp)
    cd9e:	66 89 45 f8          	mov    %ax,-0x8(%rbp)
    cda2:	66 83 7d f8 00       	cmpw   $0x0,-0x8(%rbp)
    cda7:	74 0f                	je     cdb8 <safe_div_func_uint16_t_u_u+0x2a>
    cda9:	0f b7 45 fc          	movzwl -0x4(%rbp),%eax
    cdad:	ba 00 00 00 00       	mov    $0x0,%edx
    cdb2:	66 f7 75 f8          	divw   -0x8(%rbp)
    cdb6:	eb 04                	jmp    cdbc <safe_div_func_uint16_t_u_u+0x2e>
    cdb8:	0f b7 45 fc          	movzwl -0x4(%rbp),%eax
    cdbc:	5d                   	pop    %rbp
    cdbd:	c3                   	retq   

000000000000cdbe <safe_lshift_func_uint16_t_u_s>:
    cdbe:	f3 0f 1e fa          	endbr64 
    cdc2:	55                   	push   %rbp
    cdc3:	48 89 e5             	mov    %rsp,%rbp
    cdc6:	89 f8                	mov    %edi,%eax
    cdc8:	89 75 f8             	mov    %esi,-0x8(%rbp)
    cdcb:	66 89 45 fc          	mov    %ax,-0x4(%rbp)
    cdcf:	83 7d f8 00          	cmpl   $0x0,-0x8(%rbp)
    cdd3:	78 2b                	js     ce00 <safe_lshift_func_uint16_t_u_s+0x42>
    cdd5:	83 7d f8 1f          	cmpl   $0x1f,-0x8(%rbp)
    cdd9:	7f 25                	jg     ce00 <safe_lshift_func_uint16_t_u_s+0x42>
    cddb:	0f b7 55 fc          	movzwl -0x4(%rbp),%edx
    cddf:	8b 45 f8             	mov    -0x8(%rbp),%eax
    cde2:	be ff ff 00 00       	mov    $0xffff,%esi
    cde7:	89 c1                	mov    %eax,%ecx
    cde9:	d3 fe                	sar    %cl,%esi
    cdeb:	89 f0                	mov    %esi,%eax
    cded:	39 c2                	cmp    %eax,%edx
    cdef:	7f 0f                	jg     ce00 <safe_lshift_func_uint16_t_u_s+0x42>
    cdf1:	0f b7 55 fc          	movzwl -0x4(%rbp),%edx
    cdf5:	8b 45 f8             	mov    -0x8(%rbp),%eax
    cdf8:	89 c1                	mov    %eax,%ecx
    cdfa:	d3 e2                	shl    %cl,%edx
    cdfc:	89 d0                	mov    %edx,%eax
    cdfe:	eb 04                	jmp    ce04 <safe_lshift_func_uint16_t_u_s+0x46>
    ce00:	0f b7 45 fc          	movzwl -0x4(%rbp),%eax
    ce04:	5d                   	pop    %rbp
    ce05:	c3                   	retq   

000000000000ce06 <safe_lshift_func_uint16_t_u_u>:
    ce06:	f3 0f 1e fa          	endbr64 
    ce0a:	55                   	push   %rbp
    ce0b:	48 89 e5             	mov    %rsp,%rbp
    ce0e:	89 f8                	mov    %edi,%eax
    ce10:	89 75 f8             	mov    %esi,-0x8(%rbp)
    ce13:	66 89 45 fc          	mov    %ax,-0x4(%rbp)
    ce17:	83 7d f8 1f          	cmpl   $0x1f,-0x8(%rbp)
    ce1b:	77 25                	ja     ce42 <safe_lshift_func_uint16_t_u_u+0x3c>
    ce1d:	0f b7 55 fc          	movzwl -0x4(%rbp),%edx
    ce21:	8b 45 f8             	mov    -0x8(%rbp),%eax
    ce24:	be ff ff 00 00       	mov    $0xffff,%esi
    ce29:	89 c1                	mov    %eax,%ecx
    ce2b:	d3 fe                	sar    %cl,%esi
    ce2d:	89 f0                	mov    %esi,%eax
    ce2f:	39 c2                	cmp    %eax,%edx
    ce31:	7f 0f                	jg     ce42 <safe_lshift_func_uint16_t_u_u+0x3c>
    ce33:	0f b7 55 fc          	movzwl -0x4(%rbp),%edx
    ce37:	8b 45 f8             	mov    -0x8(%rbp),%eax
    ce3a:	89 c1                	mov    %eax,%ecx
    ce3c:	d3 e2                	shl    %cl,%edx
    ce3e:	89 d0                	mov    %edx,%eax
    ce40:	eb 04                	jmp    ce46 <safe_lshift_func_uint16_t_u_u+0x40>
    ce42:	0f b7 45 fc          	movzwl -0x4(%rbp),%eax
    ce46:	5d                   	pop    %rbp
    ce47:	c3                   	retq   

000000000000ce48 <safe_rshift_func_uint16_t_u_s>:
    ce48:	f3 0f 1e fa          	endbr64 
    ce4c:	55                   	push   %rbp
    ce4d:	48 89 e5             	mov    %rsp,%rbp
    ce50:	89 f8                	mov    %edi,%eax
    ce52:	89 75 f8             	mov    %esi,-0x8(%rbp)
    ce55:	66 89 45 fc          	mov    %ax,-0x4(%rbp)
    ce59:	83 7d f8 00          	cmpl   $0x0,-0x8(%rbp)
    ce5d:	78 15                	js     ce74 <safe_rshift_func_uint16_t_u_s+0x2c>
    ce5f:	83 7d f8 1f          	cmpl   $0x1f,-0x8(%rbp)
    ce63:	7f 0f                	jg     ce74 <safe_rshift_func_uint16_t_u_s+0x2c>
    ce65:	0f b7 55 fc          	movzwl -0x4(%rbp),%edx
    ce69:	8b 45 f8             	mov    -0x8(%rbp),%eax
    ce6c:	89 c1                	mov    %eax,%ecx
    ce6e:	d3 fa                	sar    %cl,%edx
    ce70:	89 d0                	mov    %edx,%eax
    ce72:	eb 04                	jmp    ce78 <safe_rshift_func_uint16_t_u_s+0x30>
    ce74:	0f b7 45 fc          	movzwl -0x4(%rbp),%eax
    ce78:	5d                   	pop    %rbp
    ce79:	c3                   	retq   

000000000000ce7a <safe_rshift_func_uint16_t_u_u>:
    ce7a:	f3 0f 1e fa          	endbr64 
    ce7e:	55                   	push   %rbp
    ce7f:	48 89 e5             	mov    %rsp,%rbp
    ce82:	89 f8                	mov    %edi,%eax
    ce84:	89 75 f8             	mov    %esi,-0x8(%rbp)
    ce87:	66 89 45 fc          	mov    %ax,-0x4(%rbp)
    ce8b:	83 7d f8 1f          	cmpl   $0x1f,-0x8(%rbp)
    ce8f:	77 0f                	ja     cea0 <safe_rshift_func_uint16_t_u_u+0x26>
    ce91:	0f b7 55 fc          	movzwl -0x4(%rbp),%edx
    ce95:	8b 45 f8             	mov    -0x8(%rbp),%eax
    ce98:	89 c1                	mov    %eax,%ecx
    ce9a:	d3 fa                	sar    %cl,%edx
    ce9c:	89 d0                	mov    %edx,%eax
    ce9e:	eb 04                	jmp    cea4 <safe_rshift_func_uint16_t_u_u+0x2a>
    cea0:	0f b7 45 fc          	movzwl -0x4(%rbp),%eax
    cea4:	5d                   	pop    %rbp
    cea5:	c3                   	retq   

000000000000cea6 <safe_unary_minus_func_uint32_t_u>:
    cea6:	f3 0f 1e fa          	endbr64 
    ceaa:	55                   	push   %rbp
    ceab:	48 89 e5             	mov    %rsp,%rbp
    ceae:	89 7d fc             	mov    %edi,-0x4(%rbp)
    ceb1:	8b 45 fc             	mov    -0x4(%rbp),%eax
    ceb4:	f7 d8                	neg    %eax
    ceb6:	5d                   	pop    %rbp
    ceb7:	c3                   	retq   

000000000000ceb8 <safe_add_func_uint32_t_u_u>:
    ceb8:	f3 0f 1e fa          	endbr64 
    cebc:	55                   	push   %rbp
    cebd:	48 89 e5             	mov    %rsp,%rbp
    cec0:	89 7d fc             	mov    %edi,-0x4(%rbp)
    cec3:	89 75 f8             	mov    %esi,-0x8(%rbp)
    cec6:	8b 55 fc             	mov    -0x4(%rbp),%edx
    cec9:	8b 45 f8             	mov    -0x8(%rbp),%eax
    cecc:	01 d0                	add    %edx,%eax
    cece:	5d                   	pop    %rbp
    cecf:	c3                   	retq   

000000000000ced0 <safe_sub_func_uint32_t_u_u>:
    ced0:	f3 0f 1e fa          	endbr64 
    ced4:	55                   	push   %rbp
    ced5:	48 89 e5             	mov    %rsp,%rbp
    ced8:	89 7d fc             	mov    %edi,-0x4(%rbp)
    cedb:	89 75 f8             	mov    %esi,-0x8(%rbp)
    cede:	8b 45 fc             	mov    -0x4(%rbp),%eax
    cee1:	2b 45 f8             	sub    -0x8(%rbp),%eax
    cee4:	5d                   	pop    %rbp
    cee5:	c3                   	retq   

000000000000cee6 <safe_mul_func_uint32_t_u_u>:
    cee6:	f3 0f 1e fa          	endbr64 
    ceea:	55                   	push   %rbp
    ceeb:	48 89 e5             	mov    %rsp,%rbp
    ceee:	89 7d fc             	mov    %edi,-0x4(%rbp)
    cef1:	89 75 f8             	mov    %esi,-0x8(%rbp)
    cef4:	8b 45 fc             	mov    -0x4(%rbp),%eax
    cef7:	0f af 45 f8          	imul   -0x8(%rbp),%eax
    cefb:	5d                   	pop    %rbp
    cefc:	c3                   	retq   

000000000000cefd <safe_mod_func_uint32_t_u_u>:
    cefd:	f3 0f 1e fa          	endbr64 
    cf01:	55                   	push   %rbp
    cf02:	48 89 e5             	mov    %rsp,%rbp
    cf05:	89 7d fc             	mov    %edi,-0x4(%rbp)
    cf08:	89 75 f8             	mov    %esi,-0x8(%rbp)
    cf0b:	83 7d f8 00          	cmpl   $0x0,-0x8(%rbp)
    cf0f:	74 0f                	je     cf20 <safe_mod_func_uint32_t_u_u+0x23>
    cf11:	8b 45 fc             	mov    -0x4(%rbp),%eax
    cf14:	ba 00 00 00 00       	mov    $0x0,%edx
    cf19:	f7 75 f8             	divl   -0x8(%rbp)
    cf1c:	89 d0                	mov    %edx,%eax
    cf1e:	eb 03                	jmp    cf23 <safe_mod_func_uint32_t_u_u+0x26>
    cf20:	8b 45 fc             	mov    -0x4(%rbp),%eax
    cf23:	5d                   	pop    %rbp
    cf24:	c3                   	retq   

000000000000cf25 <safe_div_func_uint32_t_u_u>:
    cf25:	f3 0f 1e fa          	endbr64 
    cf29:	55                   	push   %rbp
    cf2a:	48 89 e5             	mov    %rsp,%rbp
    cf2d:	89 7d fc             	mov    %edi,-0x4(%rbp)
    cf30:	89 75 f8             	mov    %esi,-0x8(%rbp)
    cf33:	83 7d f8 00          	cmpl   $0x0,-0x8(%rbp)
    cf37:	74 0d                	je     cf46 <safe_div_func_uint32_t_u_u+0x21>
    cf39:	8b 45 fc             	mov    -0x4(%rbp),%eax
    cf3c:	ba 00 00 00 00       	mov    $0x0,%edx
    cf41:	f7 75 f8             	divl   -0x8(%rbp)
    cf44:	eb 03                	jmp    cf49 <safe_div_func_uint32_t_u_u+0x24>
    cf46:	8b 45 fc             	mov    -0x4(%rbp),%eax
    cf49:	5d                   	pop    %rbp
    cf4a:	c3                   	retq   

000000000000cf4b <safe_lshift_func_uint32_t_u_s>:
    cf4b:	f3 0f 1e fa          	endbr64 
    cf4f:	55                   	push   %rbp
    cf50:	48 89 e5             	mov    %rsp,%rbp
    cf53:	89 7d fc             	mov    %edi,-0x4(%rbp)
    cf56:	89 75 f8             	mov    %esi,-0x8(%rbp)
    cf59:	83 7d f8 00          	cmpl   $0x0,-0x8(%rbp)
    cf5d:	78 27                	js     cf86 <safe_lshift_func_uint32_t_u_s+0x3b>
    cf5f:	83 7d f8 1f          	cmpl   $0x1f,-0x8(%rbp)
    cf63:	7f 21                	jg     cf86 <safe_lshift_func_uint32_t_u_s+0x3b>
    cf65:	8b 45 f8             	mov    -0x8(%rbp),%eax
    cf68:	ba ff ff ff ff       	mov    $0xffffffff,%edx
    cf6d:	89 c1                	mov    %eax,%ecx
    cf6f:	d3 ea                	shr    %cl,%edx
    cf71:	89 d0                	mov    %edx,%eax
    cf73:	39 45 fc             	cmp    %eax,-0x4(%rbp)
    cf76:	77 0e                	ja     cf86 <safe_lshift_func_uint32_t_u_s+0x3b>
    cf78:	8b 45 f8             	mov    -0x8(%rbp),%eax
    cf7b:	8b 55 fc             	mov    -0x4(%rbp),%edx
    cf7e:	89 c1                	mov    %eax,%ecx
    cf80:	d3 e2                	shl    %cl,%edx
    cf82:	89 d0                	mov    %edx,%eax
    cf84:	eb 03                	jmp    cf89 <safe_lshift_func_uint32_t_u_s+0x3e>
    cf86:	8b 45 fc             	mov    -0x4(%rbp),%eax
    cf89:	5d                   	pop    %rbp
    cf8a:	c3                   	retq   

000000000000cf8b <safe_lshift_func_uint32_t_u_u>:
    cf8b:	f3 0f 1e fa          	endbr64 
    cf8f:	55                   	push   %rbp
    cf90:	48 89 e5             	mov    %rsp,%rbp
    cf93:	89 7d fc             	mov    %edi,-0x4(%rbp)
    cf96:	89 75 f8             	mov    %esi,-0x8(%rbp)
    cf99:	83 7d f8 1f          	cmpl   $0x1f,-0x8(%rbp)
    cf9d:	77 21                	ja     cfc0 <safe_lshift_func_uint32_t_u_u+0x35>
    cf9f:	8b 45 f8             	mov    -0x8(%rbp),%eax
    cfa2:	ba ff ff ff ff       	mov    $0xffffffff,%edx
    cfa7:	89 c1                	mov    %eax,%ecx
    cfa9:	d3 ea                	shr    %cl,%edx
    cfab:	89 d0                	mov    %edx,%eax
    cfad:	39 45 fc             	cmp    %eax,-0x4(%rbp)
    cfb0:	77 0e                	ja     cfc0 <safe_lshift_func_uint32_t_u_u+0x35>
    cfb2:	8b 45 f8             	mov    -0x8(%rbp),%eax
    cfb5:	8b 55 fc             	mov    -0x4(%rbp),%edx
    cfb8:	89 c1                	mov    %eax,%ecx
    cfba:	d3 e2                	shl    %cl,%edx
    cfbc:	89 d0                	mov    %edx,%eax
    cfbe:	eb 03                	jmp    cfc3 <safe_lshift_func_uint32_t_u_u+0x38>
    cfc0:	8b 45 fc             	mov    -0x4(%rbp),%eax
    cfc3:	5d                   	pop    %rbp
    cfc4:	c3                   	retq   

000000000000cfc5 <safe_rshift_func_uint32_t_u_s>:
    cfc5:	f3 0f 1e fa          	endbr64 
    cfc9:	55                   	push   %rbp
    cfca:	48 89 e5             	mov    %rsp,%rbp
    cfcd:	89 7d fc             	mov    %edi,-0x4(%rbp)
    cfd0:	89 75 f8             	mov    %esi,-0x8(%rbp)
    cfd3:	83 7d f8 00          	cmpl   $0x0,-0x8(%rbp)
    cfd7:	78 14                	js     cfed <safe_rshift_func_uint32_t_u_s+0x28>
    cfd9:	83 7d f8 1f          	cmpl   $0x1f,-0x8(%rbp)
    cfdd:	7f 0e                	jg     cfed <safe_rshift_func_uint32_t_u_s+0x28>
    cfdf:	8b 45 f8             	mov    -0x8(%rbp),%eax
    cfe2:	8b 55 fc             	mov    -0x4(%rbp),%edx
    cfe5:	89 c1                	mov    %eax,%ecx
    cfe7:	d3 ea                	shr    %cl,%edx
    cfe9:	89 d0                	mov    %edx,%eax
    cfeb:	eb 03                	jmp    cff0 <safe_rshift_func_uint32_t_u_s+0x2b>
    cfed:	8b 45 fc             	mov    -0x4(%rbp),%eax
    cff0:	5d                   	pop    %rbp
    cff1:	c3                   	retq   

000000000000cff2 <safe_rshift_func_uint32_t_u_u>:
    cff2:	f3 0f 1e fa          	endbr64 
    cff6:	55                   	push   %rbp
    cff7:	48 89 e5             	mov    %rsp,%rbp
    cffa:	89 7d fc             	mov    %edi,-0x4(%rbp)
    cffd:	89 75 f8             	mov    %esi,-0x8(%rbp)
    d000:	83 7d f8 1f          	cmpl   $0x1f,-0x8(%rbp)
    d004:	77 0e                	ja     d014 <safe_rshift_func_uint32_t_u_u+0x22>
    d006:	8b 45 f8             	mov    -0x8(%rbp),%eax
    d009:	8b 55 fc             	mov    -0x4(%rbp),%edx
    d00c:	89 c1                	mov    %eax,%ecx
    d00e:	d3 ea                	shr    %cl,%edx
    d010:	89 d0                	mov    %edx,%eax
    d012:	eb 03                	jmp    d017 <safe_rshift_func_uint32_t_u_u+0x25>
    d014:	8b 45 fc             	mov    -0x4(%rbp),%eax
    d017:	5d                   	pop    %rbp
    d018:	c3                   	retq   

000000000000d019 <safe_unary_minus_func_uint64_t_u>:
    d019:	f3 0f 1e fa          	endbr64 
    d01d:	55                   	push   %rbp
    d01e:	48 89 e5             	mov    %rsp,%rbp
    d021:	48 89 7d f8          	mov    %rdi,-0x8(%rbp)
    d025:	48 8b 45 f8          	mov    -0x8(%rbp),%rax
    d029:	48 f7 d8             	neg    %rax
    d02c:	5d                   	pop    %rbp
    d02d:	c3                   	retq   

000000000000d02e <safe_add_func_uint64_t_u_u>:
    d02e:	f3 0f 1e fa          	endbr64 
    d032:	55                   	push   %rbp
    d033:	48 89 e5             	mov    %rsp,%rbp
    d036:	48 89 7d f8          	mov    %rdi,-0x8(%rbp)
    d03a:	48 89 75 f0          	mov    %rsi,-0x10(%rbp)
    d03e:	48 8b 55 f8          	mov    -0x8(%rbp),%rdx
    d042:	48 8b 45 f0          	mov    -0x10(%rbp),%rax
    d046:	48 01 d0             	add    %rdx,%rax
    d049:	5d                   	pop    %rbp
    d04a:	c3                   	retq   

000000000000d04b <safe_sub_func_uint64_t_u_u>:
    d04b:	f3 0f 1e fa          	endbr64 
    d04f:	55                   	push   %rbp
    d050:	48 89 e5             	mov    %rsp,%rbp
    d053:	48 89 7d f8          	mov    %rdi,-0x8(%rbp)
    d057:	48 89 75 f0          	mov    %rsi,-0x10(%rbp)
    d05b:	48 8b 45 f8          	mov    -0x8(%rbp),%rax
    d05f:	48 2b 45 f0          	sub    -0x10(%rbp),%rax
    d063:	5d                   	pop    %rbp
    d064:	c3                   	retq   

000000000000d065 <safe_mul_func_uint64_t_u_u>:
    d065:	f3 0f 1e fa          	endbr64 
    d069:	55                   	push   %rbp
    d06a:	48 89 e5             	mov    %rsp,%rbp
    d06d:	48 89 7d f8          	mov    %rdi,-0x8(%rbp)
    d071:	48 89 75 f0          	mov    %rsi,-0x10(%rbp)
    d075:	48 8b 45 f8          	mov    -0x8(%rbp),%rax
    d079:	48 0f af 45 f0       	imul   -0x10(%rbp),%rax
    d07e:	5d                   	pop    %rbp
    d07f:	c3                   	retq   

000000000000d080 <safe_mod_func_uint64_t_u_u>:
    d080:	f3 0f 1e fa          	endbr64 
    d084:	55                   	push   %rbp
    d085:	48 89 e5             	mov    %rsp,%rbp
    d088:	48 89 7d f8          	mov    %rdi,-0x8(%rbp)
    d08c:	48 89 75 f0          	mov    %rsi,-0x10(%rbp)
    d090:	48 83 7d f0 00       	cmpq   $0x0,-0x10(%rbp)
    d095:	74 12                	je     d0a9 <safe_mod_func_uint64_t_u_u+0x29>
    d097:	48 8b 45 f8          	mov    -0x8(%rbp),%rax
    d09b:	ba 00 00 00 00       	mov    $0x0,%edx
    d0a0:	48 f7 75 f0          	divq   -0x10(%rbp)
    d0a4:	48 89 d0             	mov    %rdx,%rax
    d0a7:	eb 04                	jmp    d0ad <safe_mod_func_uint64_t_u_u+0x2d>
    d0a9:	48 8b 45 f8          	mov    -0x8(%rbp),%rax
    d0ad:	5d                   	pop    %rbp
    d0ae:	c3                   	retq   

000000000000d0af <safe_div_func_uint64_t_u_u>:
    d0af:	f3 0f 1e fa          	endbr64 
    d0b3:	55                   	push   %rbp
    d0b4:	48 89 e5             	mov    %rsp,%rbp
    d0b7:	48 89 7d f8          	mov    %rdi,-0x8(%rbp)
    d0bb:	48 89 75 f0          	mov    %rsi,-0x10(%rbp)
    d0bf:	48 83 7d f0 00       	cmpq   $0x0,-0x10(%rbp)
    d0c4:	74 0f                	je     d0d5 <safe_div_func_uint64_t_u_u+0x26>
    d0c6:	48 8b 45 f8          	mov    -0x8(%rbp),%rax
    d0ca:	ba 00 00 00 00       	mov    $0x0,%edx
    d0cf:	48 f7 75 f0          	divq   -0x10(%rbp)
    d0d3:	eb 04                	jmp    d0d9 <safe_div_func_uint64_t_u_u+0x2a>
    d0d5:	48 8b 45 f8          	mov    -0x8(%rbp),%rax
    d0d9:	5d                   	pop    %rbp
    d0da:	c3                   	retq   

000000000000d0db <safe_lshift_func_uint64_t_u_s>:
    d0db:	f3 0f 1e fa          	endbr64 
    d0df:	55                   	push   %rbp
    d0e0:	48 89 e5             	mov    %rsp,%rbp
    d0e3:	48 89 7d f8          	mov    %rdi,-0x8(%rbp)
    d0e7:	89 75 f4             	mov    %esi,-0xc(%rbp)
    d0ea:	83 7d f4 00          	cmpl   $0x0,-0xc(%rbp)
    d0ee:	78 2f                	js     d11f <safe_lshift_func_uint64_t_u_s+0x44>
    d0f0:	83 7d f4 1f          	cmpl   $0x1f,-0xc(%rbp)
    d0f4:	7f 29                	jg     d11f <safe_lshift_func_uint64_t_u_s+0x44>
    d0f6:	8b 45 f4             	mov    -0xc(%rbp),%eax
    d0f9:	48 c7 c2 ff ff ff ff 	mov    $0xffffffffffffffff,%rdx
    d100:	89 c1                	mov    %eax,%ecx
    d102:	48 d3 ea             	shr    %cl,%rdx
    d105:	48 89 d0             	mov    %rdx,%rax
    d108:	48 39 45 f8          	cmp    %rax,-0x8(%rbp)
    d10c:	77 11                	ja     d11f <safe_lshift_func_uint64_t_u_s+0x44>
    d10e:	8b 45 f4             	mov    -0xc(%rbp),%eax
    d111:	48 8b 55 f8          	mov    -0x8(%rbp),%rdx
    d115:	89 c1                	mov    %eax,%ecx
    d117:	48 d3 e2             	shl    %cl,%rdx
    d11a:	48 89 d0             	mov    %rdx,%rax
    d11d:	eb 04                	jmp    d123 <safe_lshift_func_uint64_t_u_s+0x48>
    d11f:	48 8b 45 f8          	mov    -0x8(%rbp),%rax
    d123:	5d                   	pop    %rbp
    d124:	c3                   	retq   

000000000000d125 <safe_lshift_func_uint64_t_u_u>:
    d125:	f3 0f 1e fa          	endbr64 
    d129:	55                   	push   %rbp
    d12a:	48 89 e5             	mov    %rsp,%rbp
    d12d:	48 89 7d f8          	mov    %rdi,-0x8(%rbp)
    d131:	89 75 f4             	mov    %esi,-0xc(%rbp)
    d134:	83 7d f4 1f          	cmpl   $0x1f,-0xc(%rbp)
    d138:	77 29                	ja     d163 <safe_lshift_func_uint64_t_u_u+0x3e>
    d13a:	8b 45 f4             	mov    -0xc(%rbp),%eax
    d13d:	48 c7 c2 ff ff ff ff 	mov    $0xffffffffffffffff,%rdx
    d144:	89 c1                	mov    %eax,%ecx
    d146:	48 d3 ea             	shr    %cl,%rdx
    d149:	48 89 d0             	mov    %rdx,%rax
    d14c:	48 39 45 f8          	cmp    %rax,-0x8(%rbp)
    d150:	77 11                	ja     d163 <safe_lshift_func_uint64_t_u_u+0x3e>
    d152:	8b 45 f4             	mov    -0xc(%rbp),%eax
    d155:	48 8b 55 f8          	mov    -0x8(%rbp),%rdx
    d159:	89 c1                	mov    %eax,%ecx
    d15b:	48 d3 e2             	shl    %cl,%rdx
    d15e:	48 89 d0             	mov    %rdx,%rax
    d161:	eb 04                	jmp    d167 <safe_lshift_func_uint64_t_u_u+0x42>
    d163:	48 8b 45 f8          	mov    -0x8(%rbp),%rax
    d167:	5d                   	pop    %rbp
    d168:	c3                   	retq   

000000000000d169 <safe_rshift_func_uint64_t_u_s>:
    d169:	f3 0f 1e fa          	endbr64 
    d16d:	55                   	push   %rbp
    d16e:	48 89 e5             	mov    %rsp,%rbp
    d171:	48 89 7d f8          	mov    %rdi,-0x8(%rbp)
    d175:	89 75 f4             	mov    %esi,-0xc(%rbp)
    d178:	83 7d f4 00          	cmpl   $0x0,-0xc(%rbp)
    d17c:	78 17                	js     d195 <safe_rshift_func_uint64_t_u_s+0x2c>
    d17e:	83 7d f4 1f          	cmpl   $0x1f,-0xc(%rbp)
    d182:	7f 11                	jg     d195 <safe_rshift_func_uint64_t_u_s+0x2c>
    d184:	8b 45 f4             	mov    -0xc(%rbp),%eax
    d187:	48 8b 55 f8          	mov    -0x8(%rbp),%rdx
    d18b:	89 c1                	mov    %eax,%ecx
    d18d:	48 d3 ea             	shr    %cl,%rdx
    d190:	48 89 d0             	mov    %rdx,%rax
    d193:	eb 04                	jmp    d199 <safe_rshift_func_uint64_t_u_s+0x30>
    d195:	48 8b 45 f8          	mov    -0x8(%rbp),%rax
    d199:	5d                   	pop    %rbp
    d19a:	c3                   	retq   

000000000000d19b <safe_rshift_func_uint64_t_u_u>:
    d19b:	f3 0f 1e fa          	endbr64 
    d19f:	55                   	push   %rbp
    d1a0:	48 89 e5             	mov    %rsp,%rbp
    d1a3:	48 89 7d f8          	mov    %rdi,-0x8(%rbp)
    d1a7:	89 75 f4             	mov    %esi,-0xc(%rbp)
    d1aa:	83 7d f4 1f          	cmpl   $0x1f,-0xc(%rbp)
    d1ae:	77 11                	ja     d1c1 <safe_rshift_func_uint64_t_u_u+0x26>
    d1b0:	8b 45 f4             	mov    -0xc(%rbp),%eax
    d1b3:	48 8b 55 f8          	mov    -0x8(%rbp),%rdx
    d1b7:	89 c1                	mov    %eax,%ecx
    d1b9:	48 d3 ea             	shr    %cl,%rdx
    d1bc:	48 89 d0             	mov    %rdx,%rax
    d1bf:	eb 04                	jmp    d1c5 <safe_rshift_func_uint64_t_u_u+0x2a>
    d1c1:	48 8b 45 f8          	mov    -0x8(%rbp),%rax
    d1c5:	5d                   	pop    %rbp
    d1c6:	c3                   	retq   

000000000000d1c7 <safe_add_func_float_f_f>:
    d1c7:	f3 0f 1e fa          	endbr64 
    d1cb:	55                   	push   %rbp
    d1cc:	48 89 e5             	mov    %rsp,%rbp
    d1cf:	f3 0f 11 45 fc       	movss  %xmm0,-0x4(%rbp)
    d1d4:	f3 0f 11 4d f8       	movss  %xmm1,-0x8(%rbp)
    d1d9:	f3 0f 10 4d fc       	movss  -0x4(%rbp),%xmm1
    d1de:	f3 0f 10 05 aa 79 01 	movss  0x179aa(%rip),%xmm0        # 24b90 <l_298.5490+0x50>
    d1e5:	00 
    d1e6:	f3 0f 59 c8          	mulss  %xmm0,%xmm1
    d1ea:	f3 0f 10 55 f8       	movss  -0x8(%rbp),%xmm2
    d1ef:	f3 0f 10 05 99 79 01 	movss  0x17999(%rip),%xmm0        # 24b90 <l_298.5490+0x50>
    d1f6:	00 
    d1f7:	f3 0f 59 c2          	mulss  %xmm2,%xmm0
    d1fb:	f3 0f 58 c1          	addss  %xmm1,%xmm0
    d1ff:	f3 0f 10 0d 99 79 01 	movss  0x17999(%rip),%xmm1        # 24ba0 <l_298.5490+0x60>
    d206:	00 
    d207:	0f 54 c1             	andps  %xmm1,%xmm0
    d20a:	0f 2f 05 9f 79 01 00 	comiss 0x1799f(%rip),%xmm0        # 24bb0 <l_298.5490+0x70>
    d211:	76 07                	jbe    d21a <safe_add_func_float_f_f+0x53>
    d213:	f3 0f 10 45 fc       	movss  -0x4(%rbp),%xmm0
    d218:	eb 0a                	jmp    d224 <safe_add_func_float_f_f+0x5d>
    d21a:	f3 0f 10 45 fc       	movss  -0x4(%rbp),%xmm0
    d21f:	f3 0f 58 45 f8       	addss  -0x8(%rbp),%xmm0
    d224:	5d                   	pop    %rbp
    d225:	c3                   	retq   

000000000000d226 <safe_sub_func_float_f_f>:
    d226:	f3 0f 1e fa          	endbr64 
    d22a:	55                   	push   %rbp
    d22b:	48 89 e5             	mov    %rsp,%rbp
    d22e:	f3 0f 11 45 fc       	movss  %xmm0,-0x4(%rbp)
    d233:	f3 0f 11 4d f8       	movss  %xmm1,-0x8(%rbp)
    d238:	f3 0f 10 4d fc       	movss  -0x4(%rbp),%xmm1
    d23d:	f3 0f 10 05 4b 79 01 	movss  0x1794b(%rip),%xmm0        # 24b90 <l_298.5490+0x50>
    d244:	00 
    d245:	f3 0f 59 c1          	mulss  %xmm1,%xmm0
    d249:	f3 0f 10 55 f8       	movss  -0x8(%rbp),%xmm2
    d24e:	f3 0f 10 0d 3a 79 01 	movss  0x1793a(%rip),%xmm1        # 24b90 <l_298.5490+0x50>
    d255:	00 
    d256:	f3 0f 59 ca          	mulss  %xmm2,%xmm1
    d25a:	f3 0f 5c c1          	subss  %xmm1,%xmm0
    d25e:	f3 0f 10 0d 3a 79 01 	movss  0x1793a(%rip),%xmm1        # 24ba0 <l_298.5490+0x60>
    d265:	00 
    d266:	0f 54 c1             	andps  %xmm1,%xmm0
    d269:	0f 2f 05 40 79 01 00 	comiss 0x17940(%rip),%xmm0        # 24bb0 <l_298.5490+0x70>
    d270:	76 07                	jbe    d279 <safe_sub_func_float_f_f+0x53>
    d272:	f3 0f 10 45 fc       	movss  -0x4(%rbp),%xmm0
    d277:	eb 0a                	jmp    d283 <safe_sub_func_float_f_f+0x5d>
    d279:	f3 0f 10 45 fc       	movss  -0x4(%rbp),%xmm0
    d27e:	f3 0f 5c 45 f8       	subss  -0x8(%rbp),%xmm0
    d283:	5d                   	pop    %rbp
    d284:	c3                   	retq   

000000000000d285 <safe_mul_func_float_f_f>:
    d285:	f3 0f 1e fa          	endbr64 
    d289:	55                   	push   %rbp
    d28a:	48 89 e5             	mov    %rsp,%rbp
    d28d:	f3 0f 11 45 fc       	movss  %xmm0,-0x4(%rbp)
    d292:	f3 0f 11 4d f8       	movss  %xmm1,-0x8(%rbp)
    d297:	f3 0f 10 4d fc       	movss  -0x4(%rbp),%xmm1
    d29c:	f3 0f 10 05 10 79 01 	movss  0x17910(%rip),%xmm0        # 24bb4 <l_298.5490+0x74>
    d2a3:	00 
    d2a4:	f3 0f 59 c8          	mulss  %xmm0,%xmm1
    d2a8:	f3 0f 10 55 f8       	movss  -0x8(%rbp),%xmm2
    d2ad:	f3 0f 10 05 03 79 01 	movss  0x17903(%rip),%xmm0        # 24bb8 <l_298.5490+0x78>
    d2b4:	00 
    d2b5:	f3 0f 59 c2          	mulss  %xmm2,%xmm0
    d2b9:	f3 0f 59 c1          	mulss  %xmm1,%xmm0
    d2bd:	f3 0f 10 0d db 78 01 	movss  0x178db(%rip),%xmm1        # 24ba0 <l_298.5490+0x60>
    d2c4:	00 
    d2c5:	0f 54 c1             	andps  %xmm1,%xmm0
    d2c8:	0f 2f 05 ed 78 01 00 	comiss 0x178ed(%rip),%xmm0        # 24bbc <l_298.5490+0x7c>
    d2cf:	76 07                	jbe    d2d8 <safe_mul_func_float_f_f+0x53>
    d2d1:	f3 0f 10 45 fc       	movss  -0x4(%rbp),%xmm0
    d2d6:	eb 0a                	jmp    d2e2 <safe_mul_func_float_f_f+0x5d>
    d2d8:	f3 0f 10 45 fc       	movss  -0x4(%rbp),%xmm0
    d2dd:	f3 0f 59 45 f8       	mulss  -0x8(%rbp),%xmm0
    d2e2:	5d                   	pop    %rbp
    d2e3:	c3                   	retq   

000000000000d2e4 <safe_div_func_float_f_f>:
    d2e4:	f3 0f 1e fa          	endbr64 
    d2e8:	55                   	push   %rbp
    d2e9:	48 89 e5             	mov    %rsp,%rbp
    d2ec:	f3 0f 11 45 fc       	movss  %xmm0,-0x4(%rbp)
    d2f1:	f3 0f 11 4d f8       	movss  %xmm1,-0x8(%rbp)
    d2f6:	f3 0f 10 45 f8       	movss  -0x8(%rbp),%xmm0
    d2fb:	f3 0f 10 0d 9d 78 01 	movss  0x1789d(%rip),%xmm1        # 24ba0 <l_298.5490+0x60>
    d302:	00 
    d303:	0f 54 c8             	andps  %xmm0,%xmm1
    d306:	f3 0f 10 05 b2 78 01 	movss  0x178b2(%rip),%xmm0        # 24bc0 <l_298.5490+0x80>
    d30d:	00 
    d30e:	0f 2f c1             	comiss %xmm1,%xmm0
    d311:	0f 97 c0             	seta   %al
    d314:	83 f0 01             	xor    $0x1,%eax
    d317:	84 c0                	test   %al,%al
    d319:	75 56                	jne    d371 <safe_div_func_float_f_f+0x8d>
    d31b:	66 0f ef c0          	pxor   %xmm0,%xmm0
    d31f:	0f 2e 45 f8          	ucomiss -0x8(%rbp),%xmm0
    d323:	7a 0a                	jp     d32f <safe_div_func_float_f_f+0x4b>
    d325:	66 0f ef c0          	pxor   %xmm0,%xmm0
    d329:	0f 2e 45 f8          	ucomiss -0x8(%rbp),%xmm0
    d32d:	74 4e                	je     d37d <safe_div_func_float_f_f+0x99>
    d32f:	f3 0f 10 4d fc       	movss  -0x4(%rbp),%xmm1
    d334:	f3 0f 10 05 88 78 01 	movss  0x17888(%rip),%xmm0        # 24bc4 <l_298.5490+0x84>
    d33b:	00 
    d33c:	f3 0f 59 c1          	mulss  %xmm1,%xmm0
    d340:	f3 0f 10 55 f8       	movss  -0x8(%rbp),%xmm2
    d345:	f3 0f 10 0d 7b 78 01 	movss  0x1787b(%rip),%xmm1        # 24bc8 <l_298.5490+0x88>
    d34c:	00 
    d34d:	f3 0f 59 ca          	mulss  %xmm2,%xmm1
    d351:	f3 0f 5e c1          	divss  %xmm1,%xmm0
    d355:	f3 0f 10 0d 43 78 01 	movss  0x17843(%rip),%xmm1        # 24ba0 <l_298.5490+0x60>
    d35c:	00 
    d35d:	0f 54 c1             	andps  %xmm1,%xmm0
    d360:	0f 2f 05 65 78 01 00 	comiss 0x17865(%rip),%xmm0        # 24bcc <l_298.5490+0x8c>
    d367:	0f 97 c0             	seta   %al
    d36a:	83 f0 01             	xor    $0x1,%eax
    d36d:	84 c0                	test   %al,%al
    d36f:	74 0c                	je     d37d <safe_div_func_float_f_f+0x99>
    d371:	f3 0f 10 45 fc       	movss  -0x4(%rbp),%xmm0
    d376:	f3 0f 5e 45 f8       	divss  -0x8(%rbp),%xmm0
    d37b:	eb 05                	jmp    d382 <safe_div_func_float_f_f+0x9e>
    d37d:	f3 0f 10 45 fc       	movss  -0x4(%rbp),%xmm0
    d382:	5d                   	pop    %rbp
    d383:	c3                   	retq   

000000000000d384 <safe_add_func_double_f_f>:
    d384:	f3 0f 1e fa          	endbr64 
    d388:	55                   	push   %rbp
    d389:	48 89 e5             	mov    %rsp,%rbp
    d38c:	f2 0f 11 45 f8       	movsd  %xmm0,-0x8(%rbp)
    d391:	f2 0f 11 4d f0       	movsd  %xmm1,-0x10(%rbp)
    d396:	f2 0f 10 4d f8       	movsd  -0x8(%rbp),%xmm1
    d39b:	f2 0f 10 05 2d 78 01 	movsd  0x1782d(%rip),%xmm0        # 24bd0 <l_298.5490+0x90>
    d3a2:	00 
    d3a3:	f2 0f 59 c8          	mulsd  %xmm0,%xmm1
    d3a7:	f2 0f 10 55 f0       	movsd  -0x10(%rbp),%xmm2
    d3ac:	f2 0f 10 05 1c 78 01 	movsd  0x1781c(%rip),%xmm0        # 24bd0 <l_298.5490+0x90>
    d3b3:	00 
    d3b4:	f2 0f 59 c2          	mulsd  %xmm2,%xmm0
    d3b8:	f2 0f 58 c1          	addsd  %xmm1,%xmm0
    d3bc:	f3 0f 7e 0d 1c 78 01 	movq   0x1781c(%rip),%xmm1        # 24be0 <l_298.5490+0xa0>
    d3c3:	00 
    d3c4:	66 0f 54 c1          	andpd  %xmm1,%xmm0
    d3c8:	66 0f 2f 05 20 78 01 	comisd 0x17820(%rip),%xmm0        # 24bf0 <l_298.5490+0xb0>
    d3cf:	00 
    d3d0:	76 07                	jbe    d3d9 <safe_add_func_double_f_f+0x55>
    d3d2:	f2 0f 10 45 f8       	movsd  -0x8(%rbp),%xmm0
    d3d7:	eb 0a                	jmp    d3e3 <safe_add_func_double_f_f+0x5f>
    d3d9:	f2 0f 10 45 f8       	movsd  -0x8(%rbp),%xmm0
    d3de:	f2 0f 58 45 f0       	addsd  -0x10(%rbp),%xmm0
    d3e3:	5d                   	pop    %rbp
    d3e4:	c3                   	retq   

000000000000d3e5 <safe_sub_func_double_f_f>:
    d3e5:	f3 0f 1e fa          	endbr64 
    d3e9:	55                   	push   %rbp
    d3ea:	48 89 e5             	mov    %rsp,%rbp
    d3ed:	f2 0f 11 45 f8       	movsd  %xmm0,-0x8(%rbp)
    d3f2:	f2 0f 11 4d f0       	movsd  %xmm1,-0x10(%rbp)
    d3f7:	f2 0f 10 4d f8       	movsd  -0x8(%rbp),%xmm1
    d3fc:	f2 0f 10 05 cc 77 01 	movsd  0x177cc(%rip),%xmm0        # 24bd0 <l_298.5490+0x90>
    d403:	00 
    d404:	f2 0f 59 c1          	mulsd  %xmm1,%xmm0
    d408:	f2 0f 10 55 f0       	movsd  -0x10(%rbp),%xmm2
    d40d:	f2 0f 10 0d bb 77 01 	movsd  0x177bb(%rip),%xmm1        # 24bd0 <l_298.5490+0x90>
    d414:	00 
    d415:	f2 0f 59 ca          	mulsd  %xmm2,%xmm1
    d419:	f2 0f 5c c1          	subsd  %xmm1,%xmm0
    d41d:	f3 0f 7e 0d bb 77 01 	movq   0x177bb(%rip),%xmm1        # 24be0 <l_298.5490+0xa0>
    d424:	00 
    d425:	66 0f 54 c1          	andpd  %xmm1,%xmm0
    d429:	66 0f 2f 05 bf 77 01 	comisd 0x177bf(%rip),%xmm0        # 24bf0 <l_298.5490+0xb0>
    d430:	00 
    d431:	76 07                	jbe    d43a <safe_sub_func_double_f_f+0x55>
    d433:	f2 0f 10 45 f8       	movsd  -0x8(%rbp),%xmm0
    d438:	eb 0a                	jmp    d444 <safe_sub_func_double_f_f+0x5f>
    d43a:	f2 0f 10 45 f8       	movsd  -0x8(%rbp),%xmm0
    d43f:	f2 0f 5c 45 f0       	subsd  -0x10(%rbp),%xmm0
    d444:	5d                   	pop    %rbp
    d445:	c3                   	retq   

000000000000d446 <safe_mul_func_double_f_f>:
    d446:	f3 0f 1e fa          	endbr64 
    d44a:	55                   	push   %rbp
    d44b:	48 89 e5             	mov    %rsp,%rbp
    d44e:	f2 0f 11 45 f8       	movsd  %xmm0,-0x8(%rbp)
    d453:	f2 0f 11 4d f0       	movsd  %xmm1,-0x10(%rbp)
    d458:	f2 0f 10 4d f8       	movsd  -0x8(%rbp),%xmm1
    d45d:	f2 0f 10 05 93 77 01 	movsd  0x17793(%rip),%xmm0        # 24bf8 <l_298.5490+0xb8>
    d464:	00 
    d465:	f2 0f 59 c8          	mulsd  %xmm0,%xmm1
    d469:	f2 0f 10 55 f0       	movsd  -0x10(%rbp),%xmm2
    d46e:	f2 0f 10 05 8a 77 01 	movsd  0x1778a(%rip),%xmm0        # 24c00 <l_298.5490+0xc0>
    d475:	00 
    d476:	f2 0f 59 c2          	mulsd  %xmm2,%xmm0
    d47a:	f2 0f 59 c1          	mulsd  %xmm1,%xmm0
    d47e:	f3 0f 7e 0d 5a 77 01 	movq   0x1775a(%rip),%xmm1        # 24be0 <l_298.5490+0xa0>
    d485:	00 
    d486:	66 0f 54 c1          	andpd  %xmm1,%xmm0
    d48a:	66 0f 2f 05 76 77 01 	comisd 0x17776(%rip),%xmm0        # 24c08 <l_298.5490+0xc8>
    d491:	00 
    d492:	76 07                	jbe    d49b <safe_mul_func_double_f_f+0x55>
    d494:	f2 0f 10 45 f8       	movsd  -0x8(%rbp),%xmm0
    d499:	eb 0a                	jmp    d4a5 <safe_mul_func_double_f_f+0x5f>
    d49b:	f2 0f 10 45 f8       	movsd  -0x8(%rbp),%xmm0
    d4a0:	f2 0f 59 45 f0       	mulsd  -0x10(%rbp),%xmm0
    d4a5:	5d                   	pop    %rbp
    d4a6:	c3                   	retq   

000000000000d4a7 <safe_div_func_double_f_f>:
    d4a7:	f3 0f 1e fa          	endbr64 
    d4ab:	55                   	push   %rbp
    d4ac:	48 89 e5             	mov    %rsp,%rbp
    d4af:	f2 0f 11 45 f8       	movsd  %xmm0,-0x8(%rbp)
    d4b4:	f2 0f 11 4d f0       	movsd  %xmm1,-0x10(%rbp)
    d4b9:	f2 0f 10 45 f0       	movsd  -0x10(%rbp),%xmm0
    d4be:	f3 0f 7e 0d 1a 77 01 	movq   0x1771a(%rip),%xmm1        # 24be0 <l_298.5490+0xa0>
    d4c5:	00 
    d4c6:	66 0f 54 c8          	andpd  %xmm0,%xmm1
    d4ca:	f2 0f 10 05 3e 77 01 	movsd  0x1773e(%rip),%xmm0        # 24c10 <l_298.5490+0xd0>
    d4d1:	00 
    d4d2:	66 0f 2f c1          	comisd %xmm1,%xmm0
    d4d6:	0f 97 c0             	seta   %al
    d4d9:	83 f0 01             	xor    $0x1,%eax
    d4dc:	84 c0                	test   %al,%al
    d4de:	75 5a                	jne    d53a <safe_div_func_double_f_f+0x93>
    d4e0:	66 0f ef c0          	pxor   %xmm0,%xmm0
    d4e4:	66 0f 2e 45 f0       	ucomisd -0x10(%rbp),%xmm0
    d4e9:	7a 0b                	jp     d4f6 <safe_div_func_double_f_f+0x4f>
    d4eb:	66 0f ef c0          	pxor   %xmm0,%xmm0
    d4ef:	66 0f 2e 45 f0       	ucomisd -0x10(%rbp),%xmm0
    d4f4:	74 50                	je     d546 <safe_div_func_double_f_f+0x9f>
    d4f6:	f2 0f 10 4d f8       	movsd  -0x8(%rbp),%xmm1
    d4fb:	f2 0f 10 05 15 77 01 	movsd  0x17715(%rip),%xmm0        # 24c18 <l_298.5490+0xd8>
    d502:	00 
    d503:	f2 0f 59 c1          	mulsd  %xmm1,%xmm0
    d507:	f2 0f 10 55 f0       	movsd  -0x10(%rbp),%xmm2
    d50c:	f2 0f 10 0d 0c 77 01 	movsd  0x1770c(%rip),%xmm1        # 24c20 <l_298.5490+0xe0>
    d513:	00 
    d514:	f2 0f 59 ca          	mulsd  %xmm2,%xmm1
    d518:	f2 0f 5e c1          	divsd  %xmm1,%xmm0
    d51c:	f3 0f 7e 0d bc 76 01 	movq   0x176bc(%rip),%xmm1        # 24be0 <l_298.5490+0xa0>
    d523:	00 
    d524:	66 0f 54 c1          	andpd  %xmm1,%xmm0
    d528:	66 0f 2f 05 f8 76 01 	comisd 0x176f8(%rip),%xmm0        # 24c28 <l_298.5490+0xe8>
    d52f:	00 
    d530:	0f 97 c0             	seta   %al
    d533:	83 f0 01             	xor    $0x1,%eax
    d536:	84 c0                	test   %al,%al
    d538:	74 0c                	je     d546 <safe_div_func_double_f_f+0x9f>
    d53a:	f2 0f 10 45 f8       	movsd  -0x8(%rbp),%xmm0
    d53f:	f2 0f 5e 45 f0       	divsd  -0x10(%rbp),%xmm0
    d544:	eb 05                	jmp    d54b <safe_div_func_double_f_f+0xa4>
    d546:	f2 0f 10 45 f8       	movsd  -0x8(%rbp),%xmm0
    d54b:	5d                   	pop    %rbp
    d54c:	c3                   	retq   

000000000000d54d <safe_convert_func_float_to_int32_t>:
    d54d:	f3 0f 1e fa          	endbr64 
    d551:	55                   	push   %rbp
    d552:	48 89 e5             	mov    %rsp,%rbp
    d555:	f3 0f 11 45 fc       	movss  %xmm0,-0x4(%rbp)
    d55a:	f3 0f 10 05 ce 76 01 	movss  0x176ce(%rip),%xmm0        # 24c30 <l_298.5490+0xf0>
    d561:	00 
    d562:	0f 2f 45 fc          	comiss -0x4(%rbp),%xmm0
    d566:	0f 93 c0             	setae  %al
    d569:	83 f0 01             	xor    $0x1,%eax
    d56c:	84 c0                	test   %al,%al
    d56e:	74 21                	je     d591 <safe_convert_func_float_to_int32_t+0x44>
    d570:	f3 0f 10 45 fc       	movss  -0x4(%rbp),%xmm0
    d575:	0f 2f 05 b8 76 01 00 	comiss 0x176b8(%rip),%xmm0        # 24c34 <l_298.5490+0xf4>
    d57c:	0f 93 c0             	setae  %al
    d57f:	83 f0 01             	xor    $0x1,%eax
    d582:	84 c0                	test   %al,%al
    d584:	74 0b                	je     d591 <safe_convert_func_float_to_int32_t+0x44>
    d586:	f3 0f 10 45 fc       	movss  -0x4(%rbp),%xmm0
    d58b:	f3 0f 2c c0          	cvttss2si %xmm0,%eax
    d58f:	eb 05                	jmp    d596 <safe_convert_func_float_to_int32_t+0x49>
    d591:	b8 ff ff ff 7f       	mov    $0x7fffffff,%eax
    d596:	5d                   	pop    %rbp
    d597:	c3                   	retq   

000000000000d598 <crc32_gentab>:
    d598:	f3 0f 1e fa          	endbr64 
    d59c:	55                   	push   %rbp
    d59d:	48 89 e5             	mov    %rsp,%rbp
    d5a0:	c7 45 fc 20 83 b8 ed 	movl   $0xedb88320,-0x4(%rbp)
    d5a7:	c7 45 f4 00 00 00 00 	movl   $0x0,-0xc(%rbp)
    d5ae:	eb 51                	jmp    d601 <crc32_gentab+0x69>
    d5b0:	8b 45 f4             	mov    -0xc(%rbp),%eax
    d5b3:	89 45 f0             	mov    %eax,-0x10(%rbp)
    d5b6:	c7 45 f8 08 00 00 00 	movl   $0x8,-0x8(%rbp)
    d5bd:	eb 1e                	jmp    d5dd <crc32_gentab+0x45>
    d5bf:	8b 45 f0             	mov    -0x10(%rbp),%eax
    d5c2:	83 e0 01             	and    $0x1,%eax
    d5c5:	85 c0                	test   %eax,%eax
    d5c7:	74 0d                	je     d5d6 <crc32_gentab+0x3e>
    d5c9:	8b 45 f0             	mov    -0x10(%rbp),%eax
    d5cc:	d1 e8                	shr    %eax
    d5ce:	33 45 fc             	xor    -0x4(%rbp),%eax
    d5d1:	89 45 f0             	mov    %eax,-0x10(%rbp)
    d5d4:	eb 03                	jmp    d5d9 <crc32_gentab+0x41>
    d5d6:	d1 6d f0             	shrl   -0x10(%rbp)
    d5d9:	83 6d f8 01          	subl   $0x1,-0x8(%rbp)
    d5dd:	83 7d f8 00          	cmpl   $0x0,-0x8(%rbp)
    d5e1:	7f dc                	jg     d5bf <crc32_gentab+0x27>
    d5e3:	8b 45 f4             	mov    -0xc(%rbp),%eax
    d5e6:	48 98                	cltq   
    d5e8:	48 8d 0c 85 00 00 00 	lea    0x0(,%rax,4),%rcx
    d5ef:	00 
    d5f0:	48 8d 15 09 fa 01 00 	lea    0x1fa09(%rip),%rdx        # 2d000 <crc32_tab>
    d5f7:	8b 45 f0             	mov    -0x10(%rbp),%eax
    d5fa:	89 04 11             	mov    %eax,(%rcx,%rdx,1)
    d5fd:	83 45 f4 01          	addl   $0x1,-0xc(%rbp)
    d601:	81 7d f4 ff 00 00 00 	cmpl   $0xff,-0xc(%rbp)
    d608:	7e a6                	jle    d5b0 <crc32_gentab+0x18>
    d60a:	90                   	nop
    d60b:	90                   	nop
    d60c:	5d                   	pop    %rbp
    d60d:	c3                   	retq   

000000000000d60e <crc32_byte>:
    d60e:	f3 0f 1e fa          	endbr64 
    d612:	55                   	push   %rbp
    d613:	48 89 e5             	mov    %rsp,%rbp
    d616:	89 f8                	mov    %edi,%eax
    d618:	88 45 fc             	mov    %al,-0x4(%rbp)
    d61b:	8b 05 ff a9 01 00    	mov    0x1a9ff(%rip),%eax        # 28020 <crc32_context>
    d621:	c1 e8 08             	shr    $0x8,%eax
    d624:	89 c1                	mov    %eax,%ecx
    d626:	0f b6 55 fc          	movzbl -0x4(%rbp),%edx
    d62a:	8b 05 f0 a9 01 00    	mov    0x1a9f0(%rip),%eax        # 28020 <crc32_context>
    d630:	31 d0                	xor    %edx,%eax
    d632:	0f b6 c0             	movzbl %al,%eax
    d635:	89 c0                	mov    %eax,%eax
    d637:	48 8d 14 85 00 00 00 	lea    0x0(,%rax,4),%rdx
    d63e:	00 
    d63f:	48 8d 05 ba f9 01 00 	lea    0x1f9ba(%rip),%rax        # 2d000 <crc32_tab>
    d646:	8b 04 02             	mov    (%rdx,%rax,1),%eax
    d649:	31 c8                	xor    %ecx,%eax
    d64b:	89 05 cf a9 01 00    	mov    %eax,0x1a9cf(%rip)        # 28020 <crc32_context>
    d651:	90                   	nop
    d652:	5d                   	pop    %rbp
    d653:	c3                   	retq   

000000000000d654 <crc32_8bytes>:
    d654:	f3 0f 1e fa          	endbr64 
    d658:	55                   	push   %rbp
    d659:	48 89 e5             	mov    %rsp,%rbp
    d65c:	48 83 ec 08          	sub    $0x8,%rsp
    d660:	48 89 7d f8          	mov    %rdi,-0x8(%rbp)
    d664:	48 8b 45 f8          	mov    -0x8(%rbp),%rax
    d668:	0f b6 c0             	movzbl %al,%eax
    d66b:	89 c7                	mov    %eax,%edi
    d66d:	e8 9c ff ff ff       	callq  d60e <crc32_byte>
    d672:	48 8b 45 f8          	mov    -0x8(%rbp),%rax
    d676:	48 c1 e8 08          	shr    $0x8,%rax
    d67a:	0f b6 c0             	movzbl %al,%eax
    d67d:	89 c7                	mov    %eax,%edi
    d67f:	e8 8a ff ff ff       	callq  d60e <crc32_byte>
    d684:	48 8b 45 f8          	mov    -0x8(%rbp),%rax
    d688:	48 c1 e8 10          	shr    $0x10,%rax
    d68c:	0f b6 c0             	movzbl %al,%eax
    d68f:	89 c7                	mov    %eax,%edi
    d691:	e8 78 ff ff ff       	callq  d60e <crc32_byte>
    d696:	48 8b 45 f8          	mov    -0x8(%rbp),%rax
    d69a:	48 c1 e8 18          	shr    $0x18,%rax
    d69e:	0f b6 c0             	movzbl %al,%eax
    d6a1:	89 c7                	mov    %eax,%edi
    d6a3:	e8 66 ff ff ff       	callq  d60e <crc32_byte>
    d6a8:	48 8b 45 f8          	mov    -0x8(%rbp),%rax
    d6ac:	48 c1 e8 20          	shr    $0x20,%rax
    d6b0:	0f b6 c0             	movzbl %al,%eax
    d6b3:	89 c7                	mov    %eax,%edi
    d6b5:	e8 54 ff ff ff       	callq  d60e <crc32_byte>
    d6ba:	48 8b 45 f8          	mov    -0x8(%rbp),%rax
    d6be:	48 c1 e8 28          	shr    $0x28,%rax
    d6c2:	0f b6 c0             	movzbl %al,%eax
    d6c5:	89 c7                	mov    %eax,%edi
    d6c7:	e8 42 ff ff ff       	callq  d60e <crc32_byte>
    d6cc:	48 8b 45 f8          	mov    -0x8(%rbp),%rax
    d6d0:	48 c1 e8 30          	shr    $0x30,%rax
    d6d4:	0f b6 c0             	movzbl %al,%eax
    d6d7:	89 c7                	mov    %eax,%edi
    d6d9:	e8 30 ff ff ff       	callq  d60e <crc32_byte>
    d6de:	48 8b 45 f8          	mov    -0x8(%rbp),%rax
    d6e2:	48 c1 e8 38          	shr    $0x38,%rax
    d6e6:	0f b6 c0             	movzbl %al,%eax
    d6e9:	89 c7                	mov    %eax,%edi
    d6eb:	e8 1e ff ff ff       	callq  d60e <crc32_byte>
    d6f0:	90                   	nop
    d6f1:	c9                   	leaveq 
    d6f2:	c3                   	retq   

000000000000d6f3 <transparent_crc>:
    d6f3:	f3 0f 1e fa          	endbr64 
    d6f7:	55                   	push   %rbp
    d6f8:	48 89 e5             	mov    %rsp,%rbp
    d6fb:	48 83 ec 20          	sub    $0x20,%rsp
    d6ff:	48 89 7d f8          	mov    %rdi,-0x8(%rbp)
    d703:	48 89 75 f0          	mov    %rsi,-0x10(%rbp)
    d707:	89 55 ec             	mov    %edx,-0x14(%rbp)
    d70a:	48 8b 45 f8          	mov    -0x8(%rbp),%rax
    d70e:	48 89 c7             	mov    %rax,%rdi
    d711:	e8 3e ff ff ff       	callq  d654 <crc32_8bytes>
    d716:	83 7d ec 00          	cmpl   $0x0,-0x14(%rbp)
    d71a:	74 22                	je     d73e <transparent_crc+0x4b>
    d71c:	8b 05 fe a8 01 00    	mov    0x1a8fe(%rip),%eax        # 28020 <crc32_context>
    d722:	f7 d0                	not    %eax
    d724:	89 c2                	mov    %eax,%edx
    d726:	48 8b 45 f0          	mov    -0x10(%rbp),%rax
    d72a:	48 89 c6             	mov    %rax,%rsi
    d72d:	48 8d 3d fc 38 01 00 	lea    0x138fc(%rip),%rdi        # 21030 <_IO_stdin_used+0x30>
    d734:	b8 00 00 00 00       	mov    $0x0,%eax
    d739:	e8 42 e9 ff ff       	callq  c080 <printf@plt>
    d73e:	90                   	nop
    d73f:	c9                   	leaveq 
    d740:	c3                   	retq   

000000000000d741 <transparent_crc_bytes>:
    d741:	f3 0f 1e fa          	endbr64 
    d745:	55                   	push   %rbp
    d746:	48 89 e5             	mov    %rsp,%rbp
    d749:	48 83 ec 30          	sub    $0x30,%rsp
    d74d:	48 89 7d e8          	mov    %rdi,-0x18(%rbp)
    d751:	89 75 e4             	mov    %esi,-0x1c(%rbp)
    d754:	48 89 55 d8          	mov    %rdx,-0x28(%rbp)
    d758:	89 4d e0             	mov    %ecx,-0x20(%rbp)
    d75b:	c7 45 fc 00 00 00 00 	movl   $0x0,-0x4(%rbp)
    d762:	eb 1e                	jmp    d782 <transparent_crc_bytes+0x41>
    d764:	8b 45 fc             	mov    -0x4(%rbp),%eax
    d767:	48 63 d0             	movslq %eax,%rdx
    d76a:	48 8b 45 e8          	mov    -0x18(%rbp),%rax
    d76e:	48 01 d0             	add    %rdx,%rax
    d771:	0f b6 00             	movzbl (%rax),%eax
    d774:	0f b6 c0             	movzbl %al,%eax
    d777:	89 c7                	mov    %eax,%edi
    d779:	e8 90 fe ff ff       	callq  d60e <crc32_byte>
    d77e:	83 45 fc 01          	addl   $0x1,-0x4(%rbp)
    d782:	8b 45 fc             	mov    -0x4(%rbp),%eax
    d785:	3b 45 e4             	cmp    -0x1c(%rbp),%eax
    d788:	7c da                	jl     d764 <transparent_crc_bytes+0x23>
    d78a:	83 7d e0 00          	cmpl   $0x0,-0x20(%rbp)
    d78e:	74 22                	je     d7b2 <transparent_crc_bytes+0x71>
    d790:	8b 05 8a a8 01 00    	mov    0x1a88a(%rip),%eax        # 28020 <crc32_context>
    d796:	f7 d0                	not    %eax
    d798:	89 c2                	mov    %eax,%edx
    d79a:	48 8b 45 d8          	mov    -0x28(%rbp),%rax
    d79e:	48 89 c6             	mov    %rax,%rsi
    d7a1:	48 8d 3d 88 38 01 00 	lea    0x13888(%rip),%rdi        # 21030 <_IO_stdin_used+0x30>
    d7a8:	b8 00 00 00 00       	mov    $0x0,%eax
    d7ad:	e8 ce e8 ff ff       	callq  c080 <printf@plt>
    d7b2:	90                   	nop
    d7b3:	c9                   	leaveq 
    d7b4:	c3                   	retq   

000000000000d7b5 <func_1>:
    d7b5:	f3 0f 1e fa          	endbr64 
    d7b9:	55                   	push   %rbp
    d7ba:	48 89 e5             	mov    %rsp,%rbp
    d7bd:	41 57                	push   %r15
    d7bf:	41 56                	push   %r14
    d7c1:	41 55                	push   %r13
    d7c3:	41 54                	push   %r12
    d7c5:	53                   	push   %rbx
    d7c6:	48 81 ec 58 0a 00 00 	sub    $0xa58,%rsp
    d7cd:	48 89 bd c8 f5 ff ff 	mov    %rdi,-0xa38(%rbp)
    d7d4:	64 48 8b 04 25 28 00 	mov    %fs:0x28,%rax
    d7db:	00 00 
    d7dd:	48 89 45 c8          	mov    %rax,-0x38(%rbp)
    d7e1:	31 c0                	xor    %eax,%eax
    d7e3:	c7 85 20 f6 ff ff ff 	movl   $0xffffffff,-0x9e0(%rbp)
    d7ea:	ff ff ff 
    d7ed:	48 8d 05 d4 a8 01 00 	lea    0x1a8d4(%rip),%rax        # 280c8 <g_69>
    d7f4:	48 89 85 68 f6 ff ff 	mov    %rax,-0x998(%rbp)
    d7fb:	48 b8 68 96 f3 8e c2 	movabs $0xeebf7c28ef39668,%rax
    d802:	f7 eb 0e 
    d805:	48 89 85 40 f8 ff ff 	mov    %rax,-0x7c0(%rbp)
    d80c:	48 b8 b4 66 4f 19 59 	movabs $0x48be3d59194f66b4,%rax
    d813:	3d be 48 
    d816:	48 89 85 48 f8 ff ff 	mov    %rax,-0x7b8(%rbp)
    d81d:	48 b8 83 5a 8c 7e 33 	movabs $0xd36a0f337e8c5a83,%rax
    d824:	0f 6a d3 
    d827:	48 89 85 50 f8 ff ff 	mov    %rax,-0x7b0(%rbp)
    d82e:	c7 85 58 f8 ff ff f7 	movl   $0xfffffff7,-0x7a8(%rbp)
    d835:	ff ff ff 
    d838:	48 c7 85 5c f8 ff ff 	movq   $0x9,-0x7a4(%rbp)
    d83f:	09 00 00 00 
    d843:	66 c7 85 64 f8 ff ff 	movw   $0xffff,-0x79c(%rbp)
    d84a:	ff ff 
    d84c:	c7 85 e8 f5 ff ff ae 	movl   $0x837cecae,-0xa18(%rbp)
    d853:	ec 7c 83 
    d856:	c7 85 ec f5 ff ff 08 	movl   $0x8,-0xa14(%rbp)
    d85d:	00 00 00 
    d860:	c7 85 f0 f5 ff ff 00 	movl   $0x0,-0xa10(%rbp)
    d867:	00 00 00 
    d86a:	48 c7 85 c0 f6 ff ff 	movq   $0x0,-0x940(%rbp)
    d871:	00 00 00 00 
    d875:	c7 85 14 f6 ff ff f9 	movl   $0xfffffff9,-0x9ec(%rbp)
    d87c:	ff ff ff 
    d87f:	48 b8 17 bb 89 87 7f 	movabs $0xa493bc7f8789bb17,%rax
    d886:	bc 93 a4 
    d889:	48 89 85 c8 f6 ff ff 	mov    %rax,-0x938(%rbp)
    d890:	48 c7 85 d0 f6 ff ff 	movq   $0x6,-0x930(%rbp)
    d897:	06 00 00 00 
    d89b:	48 c7 85 70 f6 ff ff 	movq   $0x0,-0x990(%rbp)
    d8a2:	00 00 00 00 
    d8a6:	48 8d 05 5b f5 01 00 	lea    0x1f55b(%rip),%rax        # 2ce08 <g_2140>
    d8ad:	48 89 85 78 f6 ff ff 	mov    %rax,-0x988(%rbp)
    d8b4:	48 8d 85 78 f6 ff ff 	lea    -0x988(%rbp),%rax
    d8bb:	48 89 85 d8 f6 ff ff 	mov    %rax,-0x928(%rbp)
    d8c2:	48 8d 05 3f ac 01 00 	lea    0x1ac3f(%rip),%rax        # 28508 <g_208>
    d8c9:	48 89 85 e0 f6 ff ff 	mov    %rax,-0x920(%rbp)
    d8d0:	c7 85 24 f6 ff ff 65 	movl   $0xc67e7565,-0x9dc(%rbp)
    d8d7:	75 7e c6 
    d8da:	48 8d 85 10 f9 ff ff 	lea    -0x6f0(%rbp),%rax
    d8e1:	48 83 c0 08          	add    $0x8,%rax
    d8e5:	48 89 85 e8 f6 ff ff 	mov    %rax,-0x918(%rbp)
    d8ec:	48 8d 05 15 ed 01 00 	lea    0x1ed15(%rip),%rax        # 2c608 <g_277>
    d8f3:	48 89 85 80 f6 ff ff 	mov    %rax,-0x980(%rbp)
    d8fa:	48 8d 05 e7 ed 01 00 	lea    0x1ede7(%rip),%rax        # 2c6e8 <g_744>
    d901:	48 89 85 f0 f6 ff ff 	mov    %rax,-0x910(%rbp)
    d908:	66 c7 85 de f5 ff ff 	movw   $0x86f9,-0xa22(%rbp)
    d90f:	f9 86 
    d911:	c7 85 28 f6 ff ff 4e 	movl   $0x270fa4e,-0x9d8(%rbp)
    d918:	fa 70 02 
    d91b:	48 8d 05 a6 ed 01 00 	lea    0x1eda6(%rip),%rax        # 2c6c8 <g_570>
    d922:	48 89 85 f8 f6 ff ff 	mov    %rax,-0x908(%rbp)
    d929:	48 8d 05 c0 f4 01 00 	lea    0x1f4c0(%rip),%rax        # 2cdf0 <g_1917>
    d930:	48 89 85 88 f6 ff ff 	mov    %rax,-0x978(%rbp)
    d937:	c7 85 2c f6 ff ff fd 	movl   $0xfffffffd,-0x9d4(%rbp)
    d93e:	ff ff ff 
    d941:	48 b8 a9 6d 1c 9f cf 	movabs $0x3249f1cf9f1c6da9,%rax
    d948:	f1 49 32 
    d94b:	48 89 85 70 f8 ff ff 	mov    %rax,-0x790(%rbp)
    d952:	48 c7 85 78 f8 ff ff 	movq   $0xffffffffffffffff,-0x788(%rbp)
    d959:	ff ff ff ff 
    d95d:	48 b8 73 8a cd 40 c9 	movabs $0xd0bb2dc940cd8a73,%rax
    d964:	2d bb d0 
    d967:	48 89 85 80 f8 ff ff 	mov    %rax,-0x780(%rbp)
    d96e:	c7 85 88 f8 ff ff 09 	movl   $0x9,-0x778(%rbp)
    d975:	00 00 00 
    d978:	48 c7 85 8c f8 ff ff 	movq   $0x1,-0x774(%rbp)
    d97f:	01 00 00 00 
    d983:	66 c7 85 94 f8 ff ff 	movw   $0x4,-0x76c(%rbp)
    d98a:	04 00 
    d98c:	c7 85 18 f6 ff ff 00 	movl   $0x0,-0x9e8(%rbp)
    d993:	00 00 00 
    d996:	eb 1b                	jmp    d9b3 <func_1+0x1fe>
    d998:	8b 85 18 f6 ff ff    	mov    -0x9e8(%rbp),%eax
    d99e:	48 98                	cltq   
    d9a0:	48 c7 84 c5 10 f9 ff 	movq   $0x0,-0x6f0(%rbp,%rax,8)
    d9a7:	ff 00 00 00 00 
    d9ac:	83 85 18 f6 ff ff 01 	addl   $0x1,-0x9e8(%rbp)
    d9b3:	83 bd 18 f6 ff ff 02 	cmpl   $0x2,-0x9e8(%rbp)
    d9ba:	7e dc                	jle    d998 <func_1+0x1e3>
    d9bc:	8b 9d 20 f6 ff ff    	mov    -0x9e0(%rbp),%ebx
    d9c2:	8b 85 20 f6 ff ff    	mov    -0x9e0(%rbp),%eax
    d9c8:	98                   	cwtl   
    d9c9:	89 85 8c f5 ff ff    	mov    %eax,-0xa74(%rbp)
    d9cf:	48 8b 05 d2 ad 01 00 	mov    0x1add2(%rip),%rax        # 287a8 <g_1037+0x8>
    d9d6:	44 0f b6 f0          	movzbl %al,%r14d
    d9da:	b8 0a e2 d6 b5       	mov    $0xb5d6e20a,%eax
    d9df:	44 0f be e8          	movsbl %al,%r13d
    d9e3:	44 8b a5 20 f6 ff ff 	mov    -0x9e0(%rbp),%r12d
    d9ea:	8b 85 20 f6 ff ff    	mov    -0x9e0(%rbp),%eax
    d9f0:	44 0f bf f8          	movswl %ax,%r15d
    d9f4:	8b 85 20 f6 ff ff    	mov    -0x9e0(%rbp),%eax
    d9fa:	0f b7 d0             	movzwl %ax,%edx
    d9fd:	8b 85 20 f6 ff ff    	mov    -0x9e0(%rbp),%eax
    da03:	0f b7 c0             	movzwl %ax,%eax
    da06:	89 d6                	mov    %edx,%esi
    da08:	89 c7                	mov    %eax,%edi
    da0a:	e8 2e f3 ff ff       	callq  cd3d <safe_mul_func_uint16_t_u_u>
    da0f:	98                   	cwtl   
    da10:	44 89 fe             	mov    %r15d,%esi
    da13:	89 c7                	mov    %eax,%edi
    da15:	e8 99 e9 ff ff       	callq  c3b3 <safe_add_func_int16_t_s_s>
    da1a:	98                   	cwtl   
    da1b:	39 85 20 f6 ff ff    	cmp    %eax,-0x9e0(%rbp)
    da21:	0f 95 c0             	setne  %al
    da24:	0f b6 c0             	movzbl %al,%eax
    da27:	44 89 e6             	mov    %r12d,%esi
    da2a:	89 c7                	mov    %eax,%edi
    da2c:	e8 d4 eb ff ff       	callq  c605 <safe_sub_func_int32_t_s_s>
    da31:	0f bf d0             	movswl %ax,%edx
    da34:	8b 85 20 f6 ff ff    	mov    -0x9e0(%rbp),%eax
    da3a:	98                   	cwtl   
    da3b:	89 d6                	mov    %edx,%esi
    da3d:	89 c7                	mov    %eax,%edi
    da3f:	e8 b1 e9 ff ff       	callq  c3f5 <safe_mul_func_int16_t_s_s>
    da44:	98                   	cwtl   
    da45:	39 85 20 f6 ff ff    	cmp    %eax,-0x9e0(%rbp)
    da4b:	0f 96 c0             	setbe  %al
    da4e:	0f b6 c0             	movzbl %al,%eax
    da51:	48 8b 15 64 ad 01 00 	mov    0x1ad64(%rip),%rdx        # 287bc <g_1037+0x1c>
    da58:	09 d0                	or     %edx,%eax
    da5a:	25 f8 ff 00 00       	and    $0xfff8,%eax
    da5f:	89 c2                	mov    %eax,%edx
    da61:	8b 85 20 f6 ff ff    	mov    -0x9e0(%rbp),%eax
    da67:	0f b6 c0             	movzbl %al,%eax
    da6a:	89 d6                	mov    %edx,%esi
    da6c:	89 c7                	mov    %eax,%edi
    da6e:	e8 d9 f1 ff ff       	callq  cc4c <safe_lshift_func_uint8_t_u_u>
    da73:	44 0f b6 e0          	movzbl %al,%r12d
    da77:	8b 05 8b f9 01 00    	mov    0x1f98b(%rip),%eax        # 2d408 <g_17>
    da7d:	48 63 d0             	movslq %eax,%rdx
    da80:	8b 85 20 f6 ff ff    	mov    -0x9e0(%rbp),%eax
    da86:	0f be c8             	movsbl %al,%ecx
    da89:	48 8d 85 90 f5 ff ff 	lea    -0xa70(%rbp),%rax
    da90:	89 ce                	mov    %ecx,%esi
    da92:	48 89 c7             	mov    %rax,%rdi
    da95:	e8 2a a4 00 00       	callq  17ec4 <func_13>
    da9a:	48 8b 05 e7 f2 01 00 	mov    0x1f2e7(%rip),%rax        # 2cd88 <g_1220>
    daa1:	48 8b 00             	mov    (%rax),%rax
    daa4:	8b 95 20 f6 ff ff    	mov    -0x9e0(%rbp),%edx
    daaa:	89 10                	mov    %edx,(%rax)
    daac:	8b 00                	mov    (%rax),%eax
    daae:	44 8b 85 8c f5 ff ff 	mov    -0xa74(%rbp),%r8d
    dab5:	44 89 f1             	mov    %r14d,%ecx
    dab8:	44 89 ea             	mov    %r13d,%edx
    dabb:	44 89 e6             	mov    %r12d,%esi
    dabe:	89 c7                	mov    %eax,%edi
    dac0:	e8 29 a3 00 00       	callq  17dee <func_7>
    dac5:	48 8b 05 54 ed 01 00 	mov    0x1ed54(%rip),%rax        # 2c820 <g_742>
    dacc:	48 8b 00             	mov    (%rax),%rax
    dacf:	48 8b 00             	mov    (%rax),%rax
    dad2:	0f b7 00             	movzwl (%rax),%eax
    dad5:	98                   	cwtl   
    dad6:	48 89 de             	mov    %rbx,%rsi
    dad9:	89 c7                	mov    %eax,%edi
    dadb:	e8 23 30 00 00       	callq  10b03 <func_4>
    dae0:	98                   	cwtl   
    dae1:	89 c7                	mov    %eax,%edi
    dae3:	e8 42 2e 00 00       	callq  1092a <func_2>
    dae8:	0f b6 c0             	movzbl %al,%eax
    daeb:	ba 0a e2 d6 b5       	mov    $0xb5d6e20a,%edx
    daf0:	39 d0                	cmp    %edx,%eax
    daf2:	0f 86 c1 01 00 00    	jbe    dcb9 <func_1+0x504>
    daf8:	48 8d 85 68 f6 ff ff 	lea    -0x998(%rbp),%rax
    daff:	48 89 85 d0 f8 ff ff 	mov    %rax,-0x730(%rbp)
    db06:	48 8d 85 40 fa ff ff 	lea    -0x5c0(%rbp),%rax
    db0d:	48 83 c0 08          	add    $0x8,%rax
    db11:	48 89 85 38 f8 ff ff 	mov    %rax,-0x7c8(%rbp)
    db18:	c7 85 64 f6 ff ff 54 	movl   $0xa0d61454,-0x99c(%rbp)
    db1f:	14 d6 a0 
    db22:	c7 85 0c f6 ff ff 00 	movl   $0x0,-0x9f4(%rbp)
    db29:	00 00 00 
    db2c:	eb 46                	jmp    db74 <func_1+0x3bf>
    db2e:	c7 85 10 f6 ff ff 00 	movl   $0x0,-0x9f0(%rbp)
    db35:	00 00 00 
    db38:	eb 2a                	jmp    db64 <func_1+0x3af>
    db3a:	8b 85 10 f6 ff ff    	mov    -0x9f0(%rbp),%eax
    db40:	48 63 d0             	movslq %eax,%rdx
    db43:	8b 85 0c f6 ff ff    	mov    -0x9f4(%rbp),%eax
    db49:	48 98                	cltq   
    db4b:	48 01 c2             	add    %rax,%rdx
    db4e:	48 8d 85 d0 f8 ff ff 	lea    -0x730(%rbp),%rax
    db55:	48 89 84 d5 c0 f9 ff 	mov    %rax,-0x640(%rbp,%rdx,8)
    db5c:	ff 
    db5d:	83 85 10 f6 ff ff 01 	addl   $0x1,-0x9f0(%rbp)
    db64:	83 bd 10 f6 ff ff 00 	cmpl   $0x0,-0x9f0(%rbp)
    db6b:	7e cd                	jle    db3a <func_1+0x385>
    db6d:	83 85 0c f6 ff ff 01 	addl   $0x1,-0x9f4(%rbp)
    db74:	83 bd 0c f6 ff ff 01 	cmpl   $0x1,-0x9f4(%rbp)
    db7b:	7e b1                	jle    db2e <func_1+0x379>
    db7d:	c7 85 0c f6 ff ff 00 	movl   $0x0,-0x9f4(%rbp)
    db84:	00 00 00 
    db87:	eb 1e                	jmp    dba7 <func_1+0x3f2>
    db89:	8b 85 0c f6 ff ff    	mov    -0x9f4(%rbp),%eax
    db8f:	48 98                	cltq   
    db91:	48 8d 95 c0 f9 ff ff 	lea    -0x640(%rbp),%rdx
    db98:	48 89 94 c5 40 fa ff 	mov    %rdx,-0x5c0(%rbp,%rax,8)
    db9f:	ff 
    dba0:	83 85 0c f6 ff ff 01 	addl   $0x1,-0x9f4(%rbp)
    dba7:	83 bd 0c f6 ff ff 03 	cmpl   $0x3,-0x9f4(%rbp)
    dbae:	7e d9                	jle    db89 <func_1+0x3d4>
    dbb0:	8b 05 32 ae 01 00    	mov    0x1ae32(%rip),%eax        # 289e8 <g_2344>
    dbb6:	48 8b 05 13 f2 01 00 	mov    0x1f213(%rip),%rax        # 2cdd0 <g_1730>
    dbbd:	48 8b 10             	mov    (%rax),%rdx
    dbc0:	48 8b 85 68 f6 ff ff 	mov    -0x998(%rbp),%rax
    dbc7:	48 39 c2             	cmp    %rax,%rdx
    dbca:	48 8b 85 38 f8 ff ff 	mov    -0x7c8(%rbp),%rax
    dbd1:	48 c7 00 00 00 00 00 	movq   $0x0,(%rax)
    dbd8:	be 06 00 00 00       	mov    $0x6,%esi
    dbdd:	bf 00 00 00 00       	mov    $0x0,%edi
    dbe2:	e8 ba e6 ff ff       	callq  c2a1 <safe_lshift_func_int8_t_s_s>
    dbe7:	0f b6 c0             	movzbl %al,%eax
    dbea:	89 c6                	mov    %eax,%esi
    dbec:	bf 79 00 00 00       	mov    $0x79,%edi
    dbf1:	e8 64 ef ff ff       	callq  cb5a <safe_add_func_uint8_t_u_u>
    dbf6:	0f be c0             	movsbl %al,%eax
    dbf9:	8b 95 20 f6 ff ff    	mov    -0x9e0(%rbp),%edx
    dbff:	89 d6                	mov    %edx,%esi
    dc01:	89 c7                	mov    %eax,%edi
    dc03:	e8 64 e7 ff ff       	callq  c36c <safe_rshift_func_int8_t_s_u>
    dc08:	48 8b 05 19 f2 01 00 	mov    0x1f219(%rip),%rax        # 2ce28 <g_2359>
    dc0f:	48 85 c0             	test   %rax,%rax
    dc12:	0f 95 c2             	setne  %dl
    dc15:	48 8b 85 68 f6 ff ff 	mov    -0x998(%rbp),%rax
    dc1c:	88 10                	mov    %dl,(%rax)
    dc1e:	8b 85 64 f6 ff ff    	mov    -0x99c(%rbp),%eax
    dc24:	8b 95 20 f6 ff ff    	mov    -0x9e0(%rbp),%edx
    dc2a:	89 d6                	mov    %edx,%esi
    dc2c:	89 c7                	mov    %eax,%edi
    dc2e:	e8 9d f2 ff ff       	callq  ced0 <safe_sub_func_uint32_t_u_u>
    dc33:	89 c6                	mov    %eax,%esi
    dc35:	bf 16 00 00 00       	mov    $0x16,%edi
    dc3a:	e8 af e6 ff ff       	callq  c2ee <safe_lshift_func_int8_t_s_u>
    dc3f:	48 8b 05 7a ea 01 00 	mov    0x1ea7a(%rip),%rax        # 2c6c0 <g_571>
    dc46:	48 8b 00             	mov    (%rax),%rax
    dc49:	48 89 c7             	mov    %rax,%rdi
    dc4c:	e8 c5 eb ff ff       	callq  c816 <safe_unary_minus_func_int64_t_s>
    dc51:	0f b6 c0             	movzbl %al,%eax
    dc54:	be a7 00 00 00       	mov    $0xa7,%esi
    dc59:	89 c7                	mov    %eax,%edi
    dc5b:	e8 18 ef ff ff       	callq  cb78 <safe_sub_func_uint8_t_u_u>
    dc60:	89 c2                	mov    %eax,%edx
    dc62:	48 8b 05 d7 e9 01 00 	mov    0x1e9d7(%rip),%rax        # 2c640 <g_460>
    dc69:	0f b6 d2             	movzbl %dl,%edx
    dc6c:	89 10                	mov    %edx,(%rax)
    dc6e:	48 8b 85 c8 f5 ff ff 	mov    -0xa38(%rbp),%rax
    dc75:	48 8b 8d 40 f8 ff ff 	mov    -0x7c0(%rbp),%rcx
    dc7c:	48 8b 9d 48 f8 ff ff 	mov    -0x7b8(%rbp),%rbx
    dc83:	48 89 08             	mov    %rcx,(%rax)
    dc86:	48 89 58 08          	mov    %rbx,0x8(%rax)
    dc8a:	48 8b 8d 50 f8 ff ff 	mov    -0x7b0(%rbp),%rcx
    dc91:	48 8b 9d 58 f8 ff ff 	mov    -0x7a8(%rbp),%rbx
    dc98:	48 89 48 10          	mov    %rcx,0x10(%rax)
    dc9c:	48 89 58 18          	mov    %rbx,0x18(%rax)
    dca0:	8b 95 60 f8 ff ff    	mov    -0x7a0(%rbp),%edx
    dca6:	89 50 20             	mov    %edx,0x20(%rax)
    dca9:	0f b7 95 64 f8 ff ff 	movzwl -0x79c(%rbp),%edx
    dcb0:	66 89 50 24          	mov    %dx,0x24(%rax)
    dcb4:	e9 44 2c 00 00       	jmpq   108fd <func_1+0x3148>
    dcb9:	66 c7 85 dc f5 ff ff 	movw   $0xb506,-0xa24(%rbp)
    dcc0:	06 b5 
    dcc2:	48 c7 85 90 f6 ff ff 	movq   $0x0,-0x970(%rbp)
    dcc9:	00 00 00 00 
    dccd:	48 8d 85 90 f6 ff ff 	lea    -0x970(%rbp),%rax
    dcd4:	48 89 85 80 f9 ff ff 	mov    %rax,-0x680(%rbp)
    dcdb:	48 8d 85 90 f6 ff ff 	lea    -0x970(%rbp),%rax
    dce2:	48 89 85 88 f9 ff ff 	mov    %rax,-0x678(%rbp)
    dce9:	48 8d 85 90 f6 ff ff 	lea    -0x970(%rbp),%rax
    dcf0:	48 89 85 90 f9 ff ff 	mov    %rax,-0x670(%rbp)
    dcf7:	48 8d 85 90 f6 ff ff 	lea    -0x970(%rbp),%rax
    dcfe:	48 89 85 98 f9 ff ff 	mov    %rax,-0x668(%rbp)
    dd05:	48 8d 85 90 f6 ff ff 	lea    -0x970(%rbp),%rax
    dd0c:	48 89 85 a0 f9 ff ff 	mov    %rax,-0x660(%rbp)
    dd13:	48 8d 85 90 f6 ff ff 	lea    -0x970(%rbp),%rax
    dd1a:	48 89 85 a8 f9 ff ff 	mov    %rax,-0x658(%rbp)
    dd21:	48 8d 85 90 f6 ff ff 	lea    -0x970(%rbp),%rax
    dd28:	48 89 85 b0 f9 ff ff 	mov    %rax,-0x650(%rbp)
    dd2f:	48 8d 85 90 f6 ff ff 	lea    -0x970(%rbp),%rax
    dd36:	48 89 85 b8 f9 ff ff 	mov    %rax,-0x648(%rbp)
    dd3d:	48 8d 85 80 f9 ff ff 	lea    -0x680(%rbp),%rax
    dd44:	48 83 c0 30          	add    $0x30,%rax
    dd48:	48 89 85 00 f7 ff ff 	mov    %rax,-0x900(%rbp)
    dd4f:	48 8d 05 2a a3 01 00 	lea    0x1a32a(%rip),%rax        # 28080 <g_38>
    dd56:	48 89 85 08 f7 ff ff 	mov    %rax,-0x8f8(%rbp)
    dd5d:	c7 85 30 f6 ff ff ff 	movl   $0xffffffff,-0x9d0(%rbp)
    dd64:	ff ff ff 
    dd67:	c7 85 f4 f5 ff ff ff 	movl   $0xffffffff,-0xa0c(%rbp)
    dd6e:	ff ff ff 
    dd71:	48 8d 05 a8 aa 01 00 	lea    0x1aaa8(%rip),%rax        # 28820 <g_1398>
    dd78:	48 89 85 98 f6 ff ff 	mov    %rax,-0x968(%rbp)
    dd7f:	48 c7 85 a0 f6 ff ff 	movq   $0x0,-0x960(%rbp)
    dd86:	00 00 00 00 
    dd8a:	48 8d 85 98 f6 ff ff 	lea    -0x968(%rbp),%rax
    dd91:	48 89 85 10 f7 ff ff 	mov    %rax,-0x8f0(%rbp)
    dd98:	c7 85 30 f9 ff ff fe 	movl   $0xfffffffe,-0x6d0(%rbp)
    dd9f:	ff ff ff 
    dda2:	c7 85 34 f9 ff ff fe 	movl   $0xfffffffe,-0x6cc(%rbp)
    dda9:	ff ff ff 
    ddac:	c7 85 38 f9 ff ff fe 	movl   $0xfffffffe,-0x6c8(%rbp)
    ddb3:	ff ff ff 
    ddb6:	c7 85 3c f9 ff ff fe 	movl   $0xfffffffe,-0x6c4(%rbp)
    ddbd:	ff ff ff 
    ddc0:	c7 85 40 f9 ff ff fe 	movl   $0xfffffffe,-0x6c0(%rbp)
    ddc7:	ff ff ff 
    ddca:	c7 85 44 f9 ff ff fe 	movl   $0xfffffffe,-0x6bc(%rbp)
    ddd1:	ff ff ff 
    ddd4:	c7 85 48 f9 ff ff fe 	movl   $0xfffffffe,-0x6b8(%rbp)
    dddb:	ff ff ff 
    ddde:	48 8d 05 03 e9 01 00 	lea    0x1e903(%rip),%rax        # 2c6e8 <g_744>
    dde5:	48 89 85 18 f7 ff ff 	mov    %rax,-0x8e8(%rbp)
    ddec:	48 b8 c9 6a 77 87 33 	movabs $0x25d30a3387776ac9,%rax
    ddf3:	0a d3 25 
    ddf6:	48 89 85 a0 f8 ff ff 	mov    %rax,-0x760(%rbp)
    ddfd:	48 c7 85 a8 f8 ff ff 	movq   $0xfffffffffffffffd,-0x758(%rbp)
    de04:	fd ff ff ff 
    de08:	48 c7 85 b0 f8 ff ff 	movq   $0xffffffffffffffff,-0x750(%rbp)
    de0f:	ff ff ff ff 
    de13:	c7 85 b8 f8 ff ff ff 	movl   $0xffffffff,-0x748(%rbp)
    de1a:	ff ff ff 
    de1d:	48 c7 85 bc f8 ff ff 	movq   $0x7,-0x744(%rbp)
    de24:	07 00 00 00 
    de28:	66 c7 85 c4 f8 ff ff 	movw   $0xaf8c,-0x73c(%rbp)
    de2f:	8c af 
    de31:	c7 45 bb 58 58 58 58 	movl   $0x58585858,-0x45(%rbp)
    de38:	66 c7 85 e0 f5 ff ff 	movw   $0x6,-0xa20(%rbp)
    de3f:	06 00 
    de41:	48 c7 85 20 f7 ff ff 	movq   $0x1,-0x8e0(%rbp)
    de48:	01 00 00 00 
    de4c:	c7 85 fc f5 ff ff 00 	movl   $0x0,-0xa04(%rbp)
    de53:	00 00 00 
    de56:	eb 1e                	jmp    de76 <func_1+0x6c1>
    de58:	8b 85 fc f5 ff ff    	mov    -0xa04(%rbp),%eax
    de5e:	48 98                	cltq   
    de60:	48 8d 95 f0 f5 ff ff 	lea    -0xa10(%rbp),%rdx
    de67:	48 89 94 c5 00 f9 ff 	mov    %rdx,-0x700(%rbp,%rax,8)
    de6e:	ff 
    de6f:	83 85 fc f5 ff ff 01 	addl   $0x1,-0xa04(%rbp)
    de76:	83 bd fc f5 ff ff 01 	cmpl   $0x1,-0xa04(%rbp)
    de7d:	7e d9                	jle    de58 <func_1+0x6a3>
    de7f:	c7 85 fc f5 ff ff 00 	movl   $0x0,-0xa04(%rbp)
    de86:	00 00 00 
    de89:	eb 1a                	jmp    dea5 <func_1+0x6f0>
    de8b:	8b 85 fc f5 ff ff    	mov    -0xa04(%rbp),%eax
    de91:	48 98                	cltq   
    de93:	c7 84 85 fc f8 ff ff 	movl   $0xffffffff,-0x704(%rbp,%rax,4)
    de9a:	ff ff ff ff 
    de9e:	83 85 fc f5 ff ff 01 	addl   $0x1,-0xa04(%rbp)
    dea5:	83 bd fc f5 ff ff 00 	cmpl   $0x0,-0xa04(%rbp)
    deac:	7e dd                	jle    de8b <func_1+0x6d6>
    deae:	90                   	nop
    deaf:	48 c7 85 5c f8 ff ff 	movq   $0xffffffffffffffe2,-0x7a4(%rbp)
    deb6:	e2 ff ff ff 
    deba:	e9 89 06 00 00       	jmpq   e548 <func_1+0xd93>
    debf:	48 8d 05 d2 a8 01 00 	lea    0x1a8d2(%rip),%rax        # 28798 <g_646>
    dec6:	48 89 85 08 f8 ff ff 	mov    %rax,-0x7f8(%rbp)
    decd:	48 c7 85 10 f8 ff ff 	movq   $0x0,-0x7f0(%rbp)
    ded4:	00 00 00 00 
    ded8:	48 c7 85 18 f8 ff ff 	movq   $0x0,-0x7e8(%rbp)
    dedf:	00 00 00 00 
    dee3:	48 c7 85 20 f8 ff ff 	movq   $0x0,-0x7e0(%rbp)
    deea:	00 00 00 00 
    deee:	48 8d 95 40 fa ff ff 	lea    -0x5c0(%rbp),%rdx
    def5:	b8 00 00 00 00       	mov    $0x0,%eax
    defa:	b9 48 00 00 00       	mov    $0x48,%ecx
    deff:	48 89 d7             	mov    %rdx,%rdi
    df02:	f3 48 ab             	rep stos %rax,%es:(%rdi)
    df05:	c7 85 b8 f6 ff ff f2 	movl   $0x5523a5f2,-0x948(%rbp)
    df0c:	a5 23 55 
    df0f:	66 83 85 dc f5 ff ff 	addw   $0x1,-0xa24(%rbp)
    df16:	01 
    df17:	48 8b 05 92 a8 01 00 	mov    0x1a892(%rip),%rax        # 287b0 <g_1037+0x10>
    df1e:	48 85 c0             	test   %rax,%rax
    df21:	74 02                	je     df25 <func_1+0x770>
    df23:	eb 8a                	jmp    deaf <func_1+0x6fa>
    df25:	48 c7 05 80 a8 01 00 	movq   $0x0,0x1a880(%rip)        # 287b0 <g_1037+0x10>
    df2c:	00 00 00 00 
    df30:	e9 f0 05 00 00       	jmpq   e525 <func_1+0xd70>
    df35:	c7 85 4c f6 ff ff ab 	movl   $0x97ce06ab,-0x9b4(%rbp)
    df3c:	06 ce 97 
    df3f:	c7 85 50 f6 ff ff 68 	movl   $0x9204be68,-0x9b0(%rbp)
    df46:	be 04 92 
    df49:	c7 85 54 f6 ff ff 72 	movl   $0x8cbcdb72,-0x9ac(%rbp)
    df50:	db bc 8c 
    df53:	c7 85 00 f6 ff ff 00 	movl   $0x0,-0xa00(%rbp)
    df5a:	00 00 00 
    df5d:	eb 1b                	jmp    df7a <func_1+0x7c5>
    df5f:	8b 85 00 f6 ff ff    	mov    -0xa00(%rbp),%eax
    df65:	48 98                	cltq   
    df67:	48 c7 84 c5 50 f9 ff 	movq   $0x0,-0x6b0(%rbp,%rax,8)
    df6e:	ff 00 00 00 00 
    df73:	83 85 00 f6 ff ff 01 	addl   $0x1,-0xa00(%rbp)
    df7a:	83 bd 00 f6 ff ff 04 	cmpl   $0x4,-0xa00(%rbp)
    df81:	7e dc                	jle    df5f <func_1+0x7aa>
    df83:	c7 85 58 f8 ff ff 00 	movl   $0x0,-0x7a8(%rbp)
    df8a:	00 00 00 
    df8d:	e9 13 01 00 00       	jmpq   e0a5 <func_1+0x8f0>
    df92:	c7 85 04 f6 ff ff 00 	movl   $0x0,-0x9fc(%rbp)
    df99:	00 00 00 
    df9c:	eb 19                	jmp    dfb7 <func_1+0x802>
    df9e:	8b 85 04 f6 ff ff    	mov    -0x9fc(%rbp),%eax
    dfa4:	48 98                	cltq   
    dfa6:	66 c7 84 45 c0 f9 ff 	movw   $0xfb2e,-0x640(%rbp,%rax,2)
    dfad:	ff 2e fb 
    dfb0:	83 85 04 f6 ff ff 01 	addl   $0x1,-0x9fc(%rbp)
    dfb7:	83 bd 04 f6 ff ff 00 	cmpl   $0x0,-0x9fc(%rbp)
    dfbe:	7e de                	jle    df9e <func_1+0x7e9>
    dfc0:	8b 95 58 f8 ff ff    	mov    -0x7a8(%rbp),%edx
    dfc6:	8b 85 58 f8 ff ff    	mov    -0x7a8(%rbp),%eax
    dfcc:	8d 48 04             	lea    0x4(%rax),%ecx
    dfcf:	8b 85 58 f8 ff ff    	mov    -0x7a8(%rbp),%eax
    dfd5:	89 c6                	mov    %eax,%esi
    dfd7:	89 c9                	mov    %ecx,%ecx
    dfd9:	89 d0                	mov    %edx,%eax
    dfdb:	48 c1 e0 03          	shl    $0x3,%rax
    dfdf:	48 01 f0             	add    %rsi,%rax
    dfe2:	48 01 c8             	add    %rcx,%rax
    dfe5:	48 8d 14 c5 00 00 00 	lea    0x0(,%rax,8),%rdx
    dfec:	00 
    dfed:	48 8d 05 4c a0 01 00 	lea    0x1a04c(%rip),%rax        # 28040 <g_18>
    dff4:	48 8b 04 02          	mov    (%rdx,%rax,1),%rax
    dff8:	48 85 c0             	test   %rax,%rax
    dffb:	0f 85 b4 00 00 00    	jne    e0b5 <func_1+0x900>
    e001:	48 8b 05 d0 ed 01 00 	mov    0x1edd0(%rip),%rax        # 2cdd8 <g_1729>
    e008:	48 8b 00             	mov    (%rax),%rax
    e00b:	48 85 c0             	test   %rax,%rax
    e00e:	0f 95 c0             	setne  %al
    e011:	0f b6 c0             	movzbl %al,%eax
    e014:	23 85 20 f6 ff ff    	and    -0x9e0(%rbp),%eax
    e01a:	89 c2                	mov    %eax,%edx
    e01c:	48 8b 85 08 f8 ff ff 	mov    -0x7f8(%rbp),%rax
    e023:	8b 00                	mov    (%rax),%eax
    e025:	21 d0                	and    %edx,%eax
    e027:	89 c2                	mov    %eax,%edx
    e029:	48 8b 85 08 f8 ff ff 	mov    -0x7f8(%rbp),%rax
    e030:	89 10                	mov    %edx,(%rax)
    e032:	48 8b 85 08 f8 ff ff 	mov    -0x7f8(%rbp),%rax
    e039:	8b 00                	mov    (%rax),%eax
    e03b:	85 c0                	test   %eax,%eax
    e03d:	74 38                	je     e077 <func_1+0x8c2>
    e03f:	48 8d 05 22 ee 01 00 	lea    0x1ee22(%rip),%rax        # 2ce68 <g_2399+0x28>
    e046:	48 89 85 28 f8 ff ff 	mov    %rax,-0x7d8(%rbp)
    e04d:	48 8b 15 f4 ed 01 00 	mov    0x1edf4(%rip),%rdx        # 2ce48 <g_2399+0x8>
    e054:	48 8b 85 28 f8 ff ff 	mov    -0x7d8(%rbp),%rax
    e05b:	48 89 10             	mov    %rdx,(%rax)
    e05e:	83 bd 4c f6 ff ff 00 	cmpl   $0x0,-0x9b4(%rbp)
    e065:	75 51                	jne    e0b8 <func_1+0x903>
    e067:	48 8b 85 00 f7 ff ff 	mov    -0x900(%rbp),%rax
    e06e:	48 89 05 cb ee 01 00 	mov    %rax,0x1eecb(%rip)        # 2cf40 <g_2404>
    e075:	eb 1f                	jmp    e096 <func_1+0x8e1>
    e077:	0f b7 95 dc f5 ff ff 	movzwl -0xa24(%rbp),%edx
    e07e:	8b 85 e8 f5 ff ff    	mov    -0xa18(%rbp),%eax
    e084:	21 d0                	and    %edx,%eax
    e086:	89 85 e8 f5 ff ff    	mov    %eax,-0xa18(%rbp)
    e08c:	66 83 bd dc f5 ff ff 	cmpw   $0x0,-0xa24(%rbp)
    e093:	00 
    e094:	75 25                	jne    e0bb <func_1+0x906>
    e096:	8b 85 58 f8 ff ff    	mov    -0x7a8(%rbp),%eax
    e09c:	83 c0 01             	add    $0x1,%eax
    e09f:	89 85 58 f8 ff ff    	mov    %eax,-0x7a8(%rbp)
    e0a5:	8b 85 58 f8 ff ff    	mov    -0x7a8(%rbp),%eax
    e0ab:	85 c0                	test   %eax,%eax
    e0ad:	0f 84 df fe ff ff    	je     df92 <func_1+0x7dd>
    e0b3:	eb 07                	jmp    e0bc <func_1+0x907>
    e0b5:	90                   	nop
    e0b6:	eb 04                	jmp    e0bc <func_1+0x907>
    e0b8:	90                   	nop
    e0b9:	eb 01                	jmp    e0bc <func_1+0x907>
    e0bb:	90                   	nop
    e0bc:	66 83 bd dc f5 ff ff 	cmpw   $0x0,-0xa24(%rbp)
    e0c3:	00 
    e0c4:	0f 85 3e 04 00 00    	jne    e508 <func_1+0xd53>
    e0ca:	c6 05 38 a4 01 00 ed 	movb   $0xed,0x1a438(%rip)        # 28509 <g_289>
    e0d1:	e9 05 04 00 00       	jmpq   e4db <func_1+0xd26>
    e0d6:	c7 85 58 f6 ff ff fc 	movl   $0xfffffffc,-0x9a8(%rbp)
    e0dd:	ff ff ff 
    e0e0:	c7 85 5c f6 ff ff fc 	movl   $0xfffffffc,-0x9a4(%rbp)
    e0e7:	ff ff ff 
    e0ea:	48 c7 05 fb a3 01 00 	movq   $0x0,0x1a3fb(%rip)        # 284f0 <g_146+0x10>
    e0f1:	00 00 00 00 
    e0f5:	e9 c0 01 00 00       	jmpq   e2ba <func_1+0xb05>
    e0fa:	48 8d 05 5f ec 01 00 	lea    0x1ec5f(%rip),%rax        # 2cd60 <g_965>
    e101:	48 89 85 d0 f8 ff ff 	mov    %rax,-0x730(%rbp)
    e108:	48 8d 85 d0 f8 ff ff 	lea    -0x730(%rbp),%rax
    e10f:	48 89 85 30 f8 ff ff 	mov    %rax,-0x7d0(%rbp)
    e116:	c7 85 60 f6 ff ff aa 	movl   $0x79f6a6aa,-0x9a0(%rbp)
    e11d:	a6 f6 79 
    e120:	48 8b 05 41 ec 01 00 	mov    0x1ec41(%rip),%rax        # 2cd68 <g_964>
    e127:	48 8b 00             	mov    (%rax),%rax
    e12a:	48 8b 10             	mov    (%rax),%rdx
    e12d:	48 8b 05 2c ec 01 00 	mov    0x1ec2c(%rip),%rax        # 2cd60 <g_965>
    e134:	48 8b 00             	mov    (%rax),%rax
    e137:	8b 12                	mov    (%rdx),%edx
    e139:	89 10                	mov    %edx,(%rax)
    e13b:	8b 9d 50 f6 ff ff    	mov    -0x9b0(%rbp),%ebx
    e141:	48 8b 05 a0 ec 01 00 	mov    0x1eca0(%rip),%rax        # 2cde8 <g_1918>
    e148:	48 8b 00             	mov    (%rax),%rax
    e14b:	0f b7 00             	movzwl (%rax),%eax
    e14e:	66 85 c0             	test   %ax,%ax
    e151:	0f 84 dd 00 00 00    	je     e234 <func_1+0xa7f>
    e157:	44 8b a5 50 f6 ff ff 	mov    -0x9b0(%rbp),%r12d
    e15e:	8b 85 60 f6 ff ff    	mov    -0x9a0(%rbp),%eax
    e164:	0f be d0             	movsbl %al,%edx
    e167:	48 8b 8d d0 f8 ff ff 	mov    -0x730(%rbp),%rcx
    e16e:	48 8b 85 30 f8 ff ff 	mov    -0x7d0(%rbp),%rax
    e175:	48 89 08             	mov    %rcx,(%rax)
    e178:	48 8b 85 30 f8 ff ff 	mov    -0x7d0(%rbp),%rax
    e17f:	48 8b 00             	mov    (%rax),%rax
    e182:	48 85 c0             	test   %rax,%rax
    e185:	0f 95 c0             	setne  %al
    e188:	0f b6 c0             	movzbl %al,%eax
    e18b:	89 d6                	mov    %edx,%esi
    e18d:	89 c7                	mov    %eax,%edi
    e18f:	e8 7e e0 ff ff       	callq  c212 <safe_mul_func_int8_t_s_s>
    e194:	89 c2                	mov    %eax,%edx
    e196:	48 8b 05 2b e5 01 00 	mov    0x1e52b(%rip),%rax        # 2c6c8 <g_570>
    e19d:	48 8b 00             	mov    (%rax),%rax
    e1a0:	48 0f be d2          	movsbq %dl,%rdx
    e1a4:	48 89 10             	mov    %rdx,(%rax)
    e1a7:	48 8b 00             	mov    (%rax),%rax
    e1aa:	89 c2                	mov    %eax,%edx
    e1ac:	8b 85 58 f6 ff ff    	mov    -0x9a8(%rbp),%eax
    e1b2:	21 d0                	and    %edx,%eax
    e1b4:	0f b7 c0             	movzwl %ax,%eax
    e1b7:	be 08 00 00 00       	mov    $0x8,%esi
    e1bc:	89 c7                	mov    %eax,%edi
    e1be:	e8 43 ec ff ff       	callq  ce06 <safe_lshift_func_uint16_t_u_u>
    e1c3:	0f b7 c0             	movzwl %ax,%eax
    e1c6:	44 89 e6             	mov    %r12d,%esi
    e1c9:	89 c7                	mov    %eax,%edi
    e1cb:	e8 55 ed ff ff       	callq  cf25 <safe_div_func_uint32_t_u_u>
    e1d0:	0f b7 05 ed a2 01 00 	movzwl 0x1a2ed(%rip),%eax        # 284c4 <g_98+0x24>
    e1d7:	44 0f b7 e0          	movzwl %ax,%r12d
    e1db:	8b 95 58 f6 ff ff    	mov    -0x9a8(%rbp),%edx
    e1e1:	8b 85 58 f6 ff ff    	mov    -0x9a8(%rbp),%eax
    e1e7:	89 85 4c f6 ff ff    	mov    %eax,-0x9b4(%rbp)
    e1ed:	c7 85 5c f6 ff ff 01 	movl   $0x1,-0x9a4(%rbp)
    e1f4:	00 00 00 
    e1f7:	8b 85 5c f6 ff ff    	mov    -0x9a4(%rbp),%eax
    e1fd:	89 d6                	mov    %edx,%esi
    e1ff:	89 c7                	mov    %eax,%edi
    e201:	e8 f9 e4 ff ff       	callq  c6ff <safe_div_func_int32_t_s_s>
    e206:	48 98                	cltq   
    e208:	4c 89 e6             	mov    %r12,%rsi
    e20b:	48 89 c7             	mov    %rax,%rdi
    e20e:	e8 a1 e7 ff ff       	callq  c9b4 <safe_mod_func_int64_t_s_s>
    e213:	b9 00 00 00 00       	mov    $0x0,%ecx
    e218:	48 8b 05 11 e4 01 00 	mov    0x1e411(%rip),%rax        # 2c630 <g_417>
    e21f:	0f b7 10             	movzwl (%rax),%edx
    e222:	48 8b 05 07 e4 01 00 	mov    0x1e407(%rip),%rax        # 2c630 <g_417>
    e229:	09 ca                	or     %ecx,%edx
    e22b:	66 89 10             	mov    %dx,(%rax)
    e22e:	0f b7 00             	movzwl (%rax),%eax
    e231:	66 85 c0             	test   %ax,%ax
    e234:	8b 85 50 f6 ff ff    	mov    -0x9b0(%rbp),%eax
    e23a:	3b 85 60 f6 ff ff    	cmp    -0x9a0(%rbp),%eax
    e240:	0f 9e c0             	setle  %al
    e243:	0f b6 c0             	movzbl %al,%eax
    e246:	be 02 00 00 00       	mov    $0x2,%esi
    e24b:	89 c7                	mov    %eax,%edi
    e24d:	e8 d8 e2 ff ff       	callq  c52a <safe_rshift_func_int16_t_s_s>
    e252:	0f b6 c0             	movzbl %al,%eax
    e255:	89 de                	mov    %ebx,%esi
    e257:	89 c7                	mov    %eax,%edi
    e259:	e8 ee e9 ff ff       	callq  cc4c <safe_lshift_func_uint8_t_u_u>
    e25e:	0f b6 c0             	movzbl %al,%eax
    e261:	89 c7                	mov    %eax,%edi
    e263:	e8 2e e3 ff ff       	callq  c596 <safe_unary_minus_func_int32_t_s>
    e268:	48 98                	cltq   
    e26a:	48 39 85 c8 f6 ff ff 	cmp    %rax,-0x938(%rbp)
    e271:	0f 95 c0             	setne  %al
    e274:	0f b6 c8             	movzbl %al,%ecx
    e277:	48 8b 05 c2 e3 01 00 	mov    0x1e3c2(%rip),%rax        # 2c640 <g_460>
    e27e:	8b 10                	mov    (%rax),%edx
    e280:	48 8b 05 b9 e3 01 00 	mov    0x1e3b9(%rip),%rax        # 2c640 <g_460>
    e287:	31 ca                	xor    %ecx,%edx
    e289:	89 10                	mov    %edx,(%rax)
    e28b:	48 8b 05 6e e3 01 00 	mov    0x1e36e(%rip),%rax        # 2c600 <g_278>
    e292:	48 8d 95 40 f8 ff ff 	lea    -0x7c0(%rbp),%rdx
    e299:	48 89 10             	mov    %rdx,(%rax)
    e29c:	48 8b 85 5c f8 ff ff 	mov    -0x7a4(%rbp),%rax
    e2a3:	48 85 c0             	test   %rax,%rax
    e2a6:	75 25                	jne    e2cd <func_1+0xb18>
    e2a8:	48 8b 05 41 a2 01 00 	mov    0x1a241(%rip),%rax        # 284f0 <g_146+0x10>
    e2af:	48 83 c0 01          	add    $0x1,%rax
    e2b3:	48 89 05 36 a2 01 00 	mov    %rax,0x1a236(%rip)        # 284f0 <g_146+0x10>
    e2ba:	48 8b 05 2f a2 01 00 	mov    0x1a22f(%rip),%rax        # 284f0 <g_146+0x10>
    e2c1:	48 83 f8 0f          	cmp    $0xf,%rax
    e2c5:	0f 8f 2f fe ff ff    	jg     e0fa <func_1+0x945>
    e2cb:	eb 01                	jmp    e2ce <func_1+0xb19>
    e2cd:	90                   	nop
    e2ce:	48 8b 05 13 e3 01 00 	mov    0x1e313(%rip),%rax        # 2c5e8 <g_100>
    e2d5:	8b 15 15 a7 01 00    	mov    0x1a715(%rip),%edx        # 289f0 <g_2435>
    e2db:	89 10                	mov    %edx,(%rax)
    e2dd:	48 c7 05 14 a2 01 00 	movq   $0x0,0x1a214(%rip)        # 284fc <g_146+0x1c>
    e2e4:	00 00 00 00 
    e2e8:	e9 b9 01 00 00       	jmpq   e4a6 <func_1+0xcf1>
    e2ed:	66 c7 85 c0 f9 ff ff 	movw   $0x500,-0x640(%rbp)
    e2f4:	00 05 
    e2f6:	66 c7 85 c2 f9 ff ff 	movw   $0x500,-0x63e(%rbp)
    e2fd:	00 05 
    e2ff:	66 c7 85 c4 f9 ff ff 	movw   $0x500,-0x63c(%rbp)
    e306:	00 05 
    e308:	66 c7 85 c6 f9 ff ff 	movw   $0x500,-0x63a(%rbp)
    e30f:	00 05 
    e311:	66 c7 85 c8 f9 ff ff 	movw   $0x500,-0x638(%rbp)
    e318:	00 05 
    e31a:	66 c7 85 ca f9 ff ff 	movw   $0xe859,-0x636(%rbp)
    e321:	59 e8 
    e323:	66 c7 85 cc f9 ff ff 	movw   $0xe859,-0x634(%rbp)
    e32a:	59 e8 
    e32c:	66 c7 85 ce f9 ff ff 	movw   $0xe859,-0x632(%rbp)
    e333:	59 e8 
    e335:	66 c7 85 d0 f9 ff ff 	movw   $0xe859,-0x630(%rbp)
    e33c:	59 e8 
    e33e:	66 c7 85 d2 f9 ff ff 	movw   $0xe859,-0x62e(%rbp)
    e345:	59 e8 
    e347:	66 c7 85 d4 f9 ff ff 	movw   $0x500,-0x62c(%rbp)
    e34e:	00 05 
    e350:	66 c7 85 d6 f9 ff ff 	movw   $0x500,-0x62a(%rbp)
    e357:	00 05 
    e359:	66 c7 85 d8 f9 ff ff 	movw   $0x500,-0x628(%rbp)
    e360:	00 05 
    e362:	66 c7 85 da f9 ff ff 	movw   $0x500,-0x626(%rbp)
    e369:	00 05 
    e36b:	66 c7 85 dc f9 ff ff 	movw   $0x500,-0x624(%rbp)
    e372:	00 05 
    e374:	66 c7 85 de f9 ff ff 	movw   $0xe859,-0x622(%rbp)
    e37b:	59 e8 
    e37d:	66 c7 85 e0 f9 ff ff 	movw   $0xe859,-0x620(%rbp)
    e384:	59 e8 
    e386:	66 c7 85 e2 f9 ff ff 	movw   $0xe859,-0x61e(%rbp)
    e38d:	59 e8 
    e38f:	66 c7 85 e4 f9 ff ff 	movw   $0xe859,-0x61c(%rbp)
    e396:	59 e8 
    e398:	66 c7 85 e6 f9 ff ff 	movw   $0xe859,-0x61a(%rbp)
    e39f:	59 e8 
    e3a1:	66 c7 85 e8 f9 ff ff 	movw   $0x500,-0x618(%rbp)
    e3a8:	00 05 
    e3aa:	66 c7 85 ea f9 ff ff 	movw   $0x500,-0x616(%rbp)
    e3b1:	00 05 
    e3b3:	66 c7 85 ec f9 ff ff 	movw   $0x500,-0x614(%rbp)
    e3ba:	00 05 
    e3bc:	66 c7 85 ee f9 ff ff 	movw   $0x500,-0x612(%rbp)
    e3c3:	00 05 
    e3c5:	66 c7 85 f0 f9 ff ff 	movw   $0x500,-0x610(%rbp)
    e3cc:	00 05 
    e3ce:	66 c7 85 f2 f9 ff ff 	movw   $0xe859,-0x60e(%rbp)
    e3d5:	59 e8 
    e3d7:	66 c7 85 f4 f9 ff ff 	movw   $0xe859,-0x60c(%rbp)
    e3de:	59 e8 
    e3e0:	66 c7 85 f6 f9 ff ff 	movw   $0xe859,-0x60a(%rbp)
    e3e7:	59 e8 
    e3e9:	66 c7 85 f8 f9 ff ff 	movw   $0xe859,-0x608(%rbp)
    e3f0:	59 e8 
    e3f2:	66 c7 85 fa f9 ff ff 	movw   $0xe859,-0x606(%rbp)
    e3f9:	59 e8 
    e3fb:	48 8b 05 16 ea 01 00 	mov    0x1ea16(%rip),%rax        # 2ce18 <g_2318>
    e402:	48 8b 00             	mov    (%rax),%rax
    e405:	48 8b 00             	mov    (%rax),%rax
    e408:	48 8b 10             	mov    (%rax),%rdx
    e40b:	0f b7 85 e6 f9 ff ff 	movzwl -0x61a(%rbp),%eax
    e412:	0f b7 c0             	movzwl %ax,%eax
    e415:	48 89 d6             	mov    %rdx,%rsi
    e418:	48 89 c7             	mov    %rax,%rdi
    e41b:	e8 94 e5 ff ff       	callq  c9b4 <safe_mod_func_int64_t_s_s>
    e420:	0f bf d0             	movswl %ax,%edx
    e423:	8b 85 e8 f5 ff ff    	mov    -0xa18(%rbp),%eax
    e429:	89 c1                	mov    %eax,%ecx
    e42b:	0f b7 85 dc f5 ff ff 	movzwl -0xa24(%rbp),%eax
    e432:	31 c8                	xor    %ecx,%eax
    e434:	98                   	cwtl   
    e435:	89 d6                	mov    %edx,%esi
    e437:	89 c7                	mov    %eax,%edi
    e439:	e8 b7 df ff ff       	callq  c3f5 <safe_mul_func_int16_t_s_s>
    e43e:	0f bf d8             	movswl %ax,%ebx
    e441:	48 8b 05 38 e9 01 00 	mov    0x1e938(%rip),%rax        # 2cd80 <g_1221>
    e448:	8b 00                	mov    (%rax),%eax
    e44a:	3d 47 08 5f 5e       	cmp    $0x5e5f0847,%eax
    e44f:	74 07                	je     e458 <func_1+0xca3>
    e451:	b8 01 00 00 00       	mov    $0x1,%eax
    e456:	eb 05                	jmp    e45d <func_1+0xca8>
    e458:	b8 00 00 00 00       	mov    $0x0,%eax
    e45d:	89 c2                	mov    %eax,%edx
    e45f:	8b 85 54 f6 ff ff    	mov    -0x9ac(%rbp),%eax
    e465:	89 c6                	mov    %eax,%esi
    e467:	89 d7                	mov    %edx,%edi
    e469:	e8 b7 ea ff ff       	callq  cf25 <safe_div_func_uint32_t_u_u>
    e46e:	39 c3                	cmp    %eax,%ebx
    e470:	0f 96 c2             	setbe  %dl
    e473:	48 8b 05 36 e9 01 00 	mov    0x1e936(%rip),%rax        # 2cdb0 <g_1615>
    e47a:	0f b6 d2             	movzbl %dl,%edx
    e47d:	89 10                	mov    %edx,(%rax)
    e47f:	48 8b 05 2a e9 01 00 	mov    0x1e92a(%rip),%rax        # 2cdb0 <g_1615>
    e486:	8b 10                	mov    (%rax),%edx
    e488:	48 8b 05 21 e9 01 00 	mov    0x1e921(%rip),%rax        # 2cdb0 <g_1615>
    e48f:	83 f2 4e             	xor    $0x4e,%edx
    e492:	89 10                	mov    %edx,(%rax)
    e494:	48 8b 05 61 a0 01 00 	mov    0x1a061(%rip),%rax        # 284fc <g_146+0x1c>
    e49b:	48 83 c0 01          	add    $0x1,%rax
    e49f:	48 89 05 56 a0 01 00 	mov    %rax,0x1a056(%rip)        # 284fc <g_146+0x1c>
    e4a6:	48 8b 05 4f a0 01 00 	mov    0x1a04f(%rip),%rax        # 284fc <g_146+0x1c>
    e4ad:	48 85 c0             	test   %rax,%rax
    e4b0:	0f 84 37 fe ff ff    	je     e2ed <func_1+0xb38>
    e4b6:	83 bd 50 f6 ff ff 00 	cmpl   $0x0,-0x9b0(%rbp)
    e4bd:	0f b6 05 45 a0 01 00 	movzbl 0x1a045(%rip),%eax        # 28509 <g_289>
    e4c4:	66 98                	cbtw   
    e4c6:	0f b7 c0             	movzwl %ax,%eax
    e4c9:	be 08 00 00 00       	mov    $0x8,%esi
    e4ce:	89 c7                	mov    %eax,%edi
    e4d0:	e8 2a e8 ff ff       	callq  ccff <safe_add_func_uint16_t_u_u>
    e4d5:	88 05 2e a0 01 00    	mov    %al,0x1a02e(%rip)        # 28509 <g_289>
    e4db:	0f b6 05 27 a0 01 00 	movzbl 0x1a027(%rip),%eax        # 28509 <g_289>
    e4e2:	3c 0d                	cmp    $0xd,%al
    e4e4:	0f 8f ec fb ff ff    	jg     e0d6 <func_1+0x921>
    e4ea:	48 8d 85 b8 f6 ff ff 	lea    -0x948(%rbp),%rax
    e4f1:	48 89 85 70 f6 ff ff 	mov    %rax,-0x990(%rbp)
    e4f8:	48 8b 85 70 f6 ff ff 	mov    -0x990(%rbp),%rax
    e4ff:	48 89 85 20 fc ff ff 	mov    %rax,-0x3e0(%rbp)
    e506:	eb 01                	jmp    e509 <func_1+0xd54>
    e508:	90                   	nop
    e509:	48 8b 05 a0 a2 01 00 	mov    0x1a2a0(%rip),%rax        # 287b0 <g_1037+0x10>
    e510:	be 09 00 00 00       	mov    $0x9,%esi
    e515:	89 c7                	mov    %eax,%edi
    e517:	e8 9a e0 ff ff       	callq  c5b6 <safe_add_func_int32_t_s_s>
    e51c:	48 98                	cltq   
    e51e:	48 89 05 8b a2 01 00 	mov    %rax,0x1a28b(%rip)        # 287b0 <g_1037+0x10>
    e525:	48 8b 05 84 a2 01 00 	mov    0x1a284(%rip),%rax        # 287b0 <g_1037+0x10>
    e52c:	48 83 f8 11          	cmp    $0x11,%rax
    e530:	0f 8e ff f9 ff ff    	jle    df35 <func_1+0x780>
    e536:	48 8b 85 5c f8 ff ff 	mov    -0x7a4(%rbp),%rax
    e53d:	48 83 c0 01          	add    $0x1,%rax
    e541:	48 89 85 5c f8 ff ff 	mov    %rax,-0x7a4(%rbp)
    e548:	48 8b 85 5c f8 ff ff 	mov    -0x7a4(%rbp),%rax
    e54f:	48 83 f8 30          	cmp    $0x30,%rax
    e553:	0f 86 66 f9 ff ff    	jbe    debf <func_1+0x70a>
    e559:	48 8b 05 58 ea 01 00 	mov    0x1ea58(%rip),%rax        # 2cfb8 <g_2450>
    e560:	48 8b 95 d8 f6 ff ff 	mov    -0x928(%rbp),%rdx
    e567:	48 89 10             	mov    %rdx,(%rax)
    e56a:	48 8b 05 17 e8 01 00 	mov    0x1e817(%rip),%rax        # 2cd88 <g_1220>
    e571:	48 8b 00             	mov    (%rax),%rax
    e574:	44 8b 38             	mov    (%rax),%r15d
    e577:	48 8b 05 6a e8 01 00 	mov    0x1e86a(%rip),%rax        # 2cde8 <g_1918>
    e57e:	48 8b 00             	mov    (%rax),%rax
    e581:	0f b7 00             	movzwl (%rax),%eax
    e584:	0f b7 d8             	movzwl %ax,%ebx
    e587:	8b 85 24 f6 ff ff    	mov    -0x9dc(%rbp),%eax
    e58d:	44 0f be e0          	movsbl %al,%r12d
    e591:	44 8b ad fc f8 ff ff 	mov    -0x704(%rbp),%r13d
    e598:	48 8b 85 40 f8 ff ff 	mov    -0x7c0(%rbp),%rax
    e59f:	44 0f be f0          	movsbl %al,%r14d
    e5a3:	8b 85 24 f6 ff ff    	mov    -0x9dc(%rbp),%eax
    e5a9:	0f b6 d0             	movzbl %al,%edx
    e5ac:	48 8b 85 08 f7 ff ff 	mov    -0x8f8(%rbp),%rax
    e5b3:	0f b6 00             	movzbl (%rax),%eax
    e5b6:	8b 8d fc f8 ff ff    	mov    -0x704(%rbp),%ecx
    e5bc:	09 c1                	or     %eax,%ecx
    e5be:	48 8b 85 08 f7 ff ff 	mov    -0x8f8(%rbp),%rax
    e5c5:	88 08                	mov    %cl,(%rax)
    e5c7:	8b 85 fc f8 ff ff    	mov    -0x704(%rbp),%eax
    e5cd:	85 c0                	test   %eax,%eax
    e5cf:	75 11                	jne    e5e2 <func_1+0xe2d>
    e5d1:	48 83 bd e0 f6 ff ff 	cmpq   $0x0,-0x920(%rbp)
    e5d8:	00 
    e5d9:	75 07                	jne    e5e2 <func_1+0xe2d>
    e5db:	b8 01 00 00 00       	mov    $0x1,%eax
    e5e0:	eb 05                	jmp    e5e7 <func_1+0xe32>
    e5e2:	b8 00 00 00 00       	mov    $0x0,%eax
    e5e7:	48 98                	cltq   
    e5e9:	48 83 f8 04          	cmp    $0x4,%rax
    e5ed:	0f 96 c0             	setbe  %al
    e5f0:	0f b6 c0             	movzbl %al,%eax
    e5f3:	89 d6                	mov    %edx,%esi
    e5f5:	89 c7                	mov    %eax,%edi
    e5f7:	e8 5e e5 ff ff       	callq  cb5a <safe_add_func_uint8_t_u_u>
    e5fc:	0f b6 c0             	movzbl %al,%eax
    e5ff:	39 85 14 f6 ff ff    	cmp    %eax,-0x9ec(%rbp)
    e605:	72 19                	jb     e620 <func_1+0xe6b>
    e607:	48 8b 05 da e7 01 00 	mov    0x1e7da(%rip),%rax        # 2cde8 <g_1918>
    e60e:	48 8b 00             	mov    (%rax),%rax
    e611:	0f b7 00             	movzwl (%rax),%eax
    e614:	66 85 c0             	test   %ax,%ax
    e617:	74 07                	je     e620 <func_1+0xe6b>
    e619:	b8 01 00 00 00       	mov    $0x1,%eax
    e61e:	eb 05                	jmp    e625 <func_1+0xe70>
    e620:	b8 00 00 00 00       	mov    $0x0,%eax
    e625:	0f be c0             	movsbl %al,%eax
    e628:	44 89 f6             	mov    %r14d,%esi
    e62b:	89 c7                	mov    %eax,%edi
    e62d:	e8 38 dc ff ff       	callq  c26a <safe_div_func_int8_t_s_s>
    e632:	44 89 ee             	mov    %r13d,%esi
    e635:	bf 08 00 00 00       	mov    $0x8,%edi
    e63a:	e8 62 dc ff ff       	callq  c2a1 <safe_lshift_func_int8_t_s_s>
    e63f:	3c 01                	cmp    $0x1,%al
    e641:	0f 95 c0             	setne  %al
    e644:	0f b6 c0             	movzbl %al,%eax
    e647:	48 be a3 24 6d 2b bd 	movabs $0xb5462fbd2b6d24a3,%rsi
    e64e:	2f 46 b5 
    e651:	48 89 c7             	mov    %rax,%rdi
    e654:	e8 27 ea ff ff       	callq  d080 <safe_mod_func_uint64_t_u_u>
    e659:	0f be c0             	movsbl %al,%eax
    e65c:	44 89 e6             	mov    %r12d,%esi
    e65f:	89 c7                	mov    %eax,%edi
    e661:	e8 6e db ff ff       	callq  c1d4 <safe_add_func_int8_t_s_s>
    e666:	0f be d0             	movsbl %al,%edx
    e669:	8b 05 89 9e 01 00    	mov    0x19e89(%rip),%eax        # 284f8 <g_146+0x18>
    e66f:	83 c0 01             	add    $0x1,%eax
    e672:	89 05 80 9e 01 00    	mov    %eax,0x19e80(%rip)        # 284f8 <g_146+0x18>
    e678:	8b 05 7a 9e 01 00    	mov    0x19e7a(%rip),%eax        # 284f8 <g_146+0x18>
    e67e:	8b 8d fc f8 ff ff    	mov    -0x704(%rbp),%ecx
    e684:	39 c8                	cmp    %ecx,%eax
    e686:	0f 96 c0             	setbe  %al
    e689:	0f b6 c0             	movzbl %al,%eax
    e68c:	89 d6                	mov    %edx,%esi
    e68e:	89 c7                	mov    %eax,%edi
    e690:	e8 9c db ff ff       	callq  c231 <safe_mod_func_int8_t_s_s>
    e695:	66 98                	cbtw   
    e697:	0f b7 c0             	movzwl %ax,%eax
    e69a:	89 de                	mov    %ebx,%esi
    e69c:	89 c7                	mov    %eax,%edi
    e69e:	e8 9a e6 ff ff       	callq  cd3d <safe_mul_func_uint16_t_u_u>
    e6a3:	66 85 c0             	test   %ax,%ax
    e6a6:	75 0a                	jne    e6b2 <func_1+0xefd>
    e6a8:	66 83 bd dc f5 ff ff 	cmpw   $0x0,-0xa24(%rbp)
    e6af:	00 
    e6b0:	74 07                	je     e6b9 <func_1+0xf04>
    e6b2:	b8 01 00 00 00       	mov    $0x1,%eax
    e6b7:	eb 05                	jmp    e6be <func_1+0xf09>
    e6b9:	b8 00 00 00 00       	mov    $0x0,%eax
    e6be:	48 98                	cltq   
    e6c0:	48 be 4c 00 21 c5 1a 	movabs $0x93ed541ac521004c,%rsi
    e6c7:	54 ed 93 
    e6ca:	48 89 c7             	mov    %rax,%rdi
    e6cd:	e8 ae e9 ff ff       	callq  d080 <safe_mod_func_uint64_t_u_u>
    e6d2:	8b 95 30 f6 ff ff    	mov    -0x9d0(%rbp),%edx
    e6d8:	48 21 c2             	and    %rax,%rdx
    e6db:	48 8b 05 da a0 01 00 	mov    0x1a0da(%rip),%rax        # 287bc <g_1037+0x1c>
    e6e2:	48 31 c2             	xor    %rax,%rdx
    e6e5:	8b 85 fc f8 ff ff    	mov    -0x704(%rbp),%eax
    e6eb:	48 98                	cltq   
    e6ed:	48 39 c2             	cmp    %rax,%rdx
    e6f0:	73 13                	jae    e705 <func_1+0xf50>
    e6f2:	48 8b 85 50 f8 ff ff 	mov    -0x7b0(%rbp),%rax
    e6f9:	48 85 c0             	test   %rax,%rax
    e6fc:	74 07                	je     e705 <func_1+0xf50>
    e6fe:	b8 01 00 00 00       	mov    $0x1,%eax
    e703:	eb 05                	jmp    e70a <func_1+0xf55>
    e705:	b8 00 00 00 00       	mov    $0x0,%eax
    e70a:	41 39 c7             	cmp    %eax,%r15d
    e70d:	74 07                	je     e716 <func_1+0xf61>
    e70f:	b8 73 19 00 00       	mov    $0x1973,%eax
    e714:	eb 05                	jmp    e71b <func_1+0xf66>
    e716:	b8 72 19 00 00       	mov    $0x1972,%eax
    e71b:	89 c2                	mov    %eax,%edx
    e71d:	8b 85 f4 f5 ff ff    	mov    -0xa0c(%rbp),%eax
    e723:	21 d0                	and    %edx,%eax
    e725:	89 85 f4 f5 ff ff    	mov    %eax,-0xa0c(%rbp)
    e72b:	0f b7 8d dc f5 ff ff 	movzwl -0xa24(%rbp),%ecx
    e732:	48 8b 95 98 f6 ff ff 	mov    -0x968(%rbp),%rdx
    e739:	48 8b 85 10 f7 ff ff 	mov    -0x8f0(%rbp),%rax
    e740:	48 89 10             	mov    %rdx,(%rax)
    e743:	48 8b 85 10 f7 ff ff 	mov    -0x8f0(%rbp),%rax
    e74a:	48 8b 00             	mov    (%rax),%rax
    e74d:	48 85 c0             	test   %rax,%rax
    e750:	0f 95 c0             	setne  %al
    e753:	0f b6 c0             	movzbl %al,%eax
    e756:	09 c8                	or     %ecx,%eax
    e758:	85 c0                	test   %eax,%eax
    e75a:	0f 84 e5 12 00 00    	je     fa45 <func_1+0x2290>
    e760:	48 8d 05 39 a0 01 00 	lea    0x1a039(%rip),%rax        # 287a0 <g_1037>
    e767:	48 89 85 48 f7 ff ff 	mov    %rax,-0x8b8(%rbp)
    e76e:	c7 85 38 f6 ff ff fa 	movl   $0xfffffffa,-0x9c8(%rbp)
    e775:	ff ff ff 
    e778:	48 c7 85 50 f7 ff ff 	movq   $0x0,-0x8b0(%rbp)
    e77f:	00 00 00 00 
    e783:	66 c7 85 e6 f5 ff ff 	movw   $0x4747,-0xa1a(%rbp)
    e78a:	47 47 
    e78c:	c7 85 3c f6 ff ff 26 	movl   $0xc7665926,-0x9c4(%rbp)
    e793:	59 66 c7 
    e796:	48 8b 05 7b e6 01 00 	mov    0x1e67b(%rip),%rax        # 2ce18 <g_2318>
    e79d:	48 8b 00             	mov    (%rax),%rax
    e7a0:	48 8b 10             	mov    (%rax),%rdx
    e7a3:	48 8b 05 6e e6 01 00 	mov    0x1e66e(%rip),%rax        # 2ce18 <g_2318>
    e7aa:	48 8b 00             	mov    (%rax),%rax
    e7ad:	48 8b 00             	mov    (%rax),%rax
    e7b0:	48 8b 12             	mov    (%rdx),%rdx
    e7b3:	48 89 10             	mov    %rdx,(%rax)
    e7b6:	48 8b 00             	mov    (%rax),%rax
    e7b9:	48 89 c6             	mov    %rax,%rsi
    e7bc:	48 8b 85 48 f7 ff ff 	mov    -0x8b8(%rbp),%rax
    e7c3:	48 8b 00             	mov    (%rax),%rax
    e7c6:	48 8d 48 ff          	lea    -0x1(%rax),%rcx
    e7ca:	48 8b 95 48 f7 ff ff 	mov    -0x8b8(%rbp),%rdx
    e7d1:	48 89 0a             	mov    %rcx,(%rdx)
    e7d4:	48 39 c6             	cmp    %rax,%rsi
    e7d7:	0f 82 e4 09 00 00    	jb     f1c1 <func_1+0x1a0c>
    e7dd:	c6 85 da f5 ff ff f8 	movb   $0xf8,-0xa26(%rbp)
    e7e4:	c7 85 c0 f9 ff ff 15 	movl   $0xc5f1d815,-0x640(%rbp)
    e7eb:	d8 f1 c5 
    e7ee:	c7 85 c4 f9 ff ff 01 	movl   $0x1,-0x63c(%rbp)
    e7f5:	00 00 00 
    e7f8:	c7 85 c8 f9 ff ff 76 	movl   $0x6fcc9576,-0x638(%rbp)
    e7ff:	95 cc 6f 
    e802:	c7 85 cc f9 ff ff 01 	movl   $0x1,-0x634(%rbp)
    e809:	00 00 00 
    e80c:	c7 85 d0 f9 ff ff 15 	movl   $0xc5f1d815,-0x630(%rbp)
    e813:	d8 f1 c5 
    e816:	c7 85 d4 f9 ff ff a2 	movl   $0x14469ca2,-0x62c(%rbp)
    e81d:	9c 46 14 
    e820:	c7 85 d8 f9 ff ff 01 	movl   $0x1,-0x628(%rbp)
    e827:	00 00 00 
    e82a:	c7 85 dc f9 ff ff 05 	movl   $0xac1c8f05,-0x624(%rbp)
    e831:	8f 1c ac 
    e834:	c7 85 e0 f9 ff ff ff 	movl   $0xffffffff,-0x620(%rbp)
    e83b:	ff ff ff 
    e83e:	c7 85 e4 f9 ff ff 15 	movl   $0xc5f1d815,-0x61c(%rbp)
    e845:	d8 f1 c5 
    e848:	c7 85 e8 f9 ff ff 15 	movl   $0xc5f1d815,-0x618(%rbp)
    e84f:	d8 f1 c5 
    e852:	c7 85 ec f9 ff ff ff 	movl   $0xffffffff,-0x614(%rbp)
    e859:	ff ff ff 
    e85c:	c7 85 f0 f9 ff ff ed 	movl   $0xee5cb7ed,-0x610(%rbp)
    e863:	b7 5c ee 
    e866:	c7 85 f4 f9 ff ff 01 	movl   $0x1,-0x60c(%rbp)
    e86d:	00 00 00 
    e870:	c7 85 f8 f9 ff ff 07 	movl   $0x7,-0x608(%rbp)
    e877:	00 00 00 
    e87a:	c7 85 fc f9 ff ff 07 	movl   $0x7,-0x604(%rbp)
    e881:	00 00 00 
    e884:	c7 85 00 fa ff ff 01 	movl   $0x1,-0x600(%rbp)
    e88b:	00 00 00 
    e88e:	c7 85 04 fa ff ff ed 	movl   $0xee5cb7ed,-0x5fc(%rbp)
    e895:	b7 5c ee 
    e898:	c7 85 08 fa ff ff ff 	movl   $0xffffffff,-0x5f8(%rbp)
    e89f:	ff ff ff 
    e8a2:	c7 85 0c fa ff ff 15 	movl   $0xc5f1d815,-0x5f4(%rbp)
    e8a9:	d8 f1 c5 
    e8ac:	c7 85 10 fa ff ff 07 	movl   $0x7,-0x5f0(%rbp)
    e8b3:	00 00 00 
    e8b6:	c7 85 14 fa ff ff 01 	movl   $0x1,-0x5ec(%rbp)
    e8bd:	00 00 00 
    e8c0:	c7 85 18 fa ff ff ed 	movl   $0xee5cb7ed,-0x5e8(%rbp)
    e8c7:	b7 5c ee 
    e8ca:	c7 85 1c fa ff ff ff 	movl   $0xffffffff,-0x5e4(%rbp)
    e8d1:	ff ff ff 
    e8d4:	c7 85 20 fa ff ff 15 	movl   $0xc5f1d815,-0x5e0(%rbp)
    e8db:	d8 f1 c5 
    e8de:	c7 85 24 fa ff ff 07 	movl   $0x7,-0x5dc(%rbp)
    e8e5:	00 00 00 
    e8e8:	c7 85 28 fa ff ff ff 	movl   $0xffffffff,-0x5d8(%rbp)
    e8ef:	ff ff ff 
    e8f2:	c7 85 2c fa ff ff 05 	movl   $0xac1c8f05,-0x5d4(%rbp)
    e8f9:	8f 1c ac 
    e8fc:	c7 85 30 fa ff ff ff 	movl   $0xffffffff,-0x5d0(%rbp)
    e903:	ff ff ff 
    e906:	c7 85 34 fa ff ff 07 	movl   $0x7,-0x5cc(%rbp)
    e90d:	00 00 00 
    e910:	83 bd 38 f6 ff ff 00 	cmpl   $0x0,-0x9c8(%rbp)
    e917:	74 33                	je     e94c <func_1+0x1197>
    e919:	c7 85 40 f6 ff ff 00 	movl   $0x0,-0x9c0(%rbp)
    e920:	00 00 00 
    e923:	48 8b 05 16 dd 01 00 	mov    0x1dd16(%rip),%rax        # 2c640 <g_460>
    e92a:	c7 00 00 00 00 00    	movl   $0x0,(%rax)
    e930:	c6 85 da f5 ff ff 00 	movb   $0x0,-0xa26(%rbp)
    e937:	0f b6 85 da f5 ff ff 	movzbl -0xa26(%rbp),%eax
    e93e:	0f b6 c0             	movzbl %al,%eax
    e941:	89 85 40 f6 ff ff    	mov    %eax,-0x9c0(%rbp)
    e947:	e9 62 03 00 00       	jmpq   ecae <func_1+0x14f9>
    e94c:	48 c7 85 58 f7 ff ff 	movq   $0x0,-0x8a8(%rbp)
    e953:	00 00 00 00 
    e957:	48 8d 85 40 f8 ff ff 	lea    -0x7c0(%rbp),%rax
    e95e:	48 83 c0 10          	add    $0x10,%rax
    e962:	48 89 85 60 f7 ff ff 	mov    %rax,-0x8a0(%rbp)
    e969:	c7 85 40 fa ff ff fa 	movl   $0xfffffffa,-0x5c0(%rbp)
    e970:	ff ff ff 
    e973:	c7 85 44 fa ff ff ff 	movl   $0xffffffff,-0x5bc(%rbp)
    e97a:	ff ff ff 
    e97d:	c7 85 48 fa ff ff bc 	movl   $0x47e134bc,-0x5b8(%rbp)
    e984:	34 e1 47 
    e987:	c7 85 4c fa ff ff ff 	movl   $0xffffffff,-0x5b4(%rbp)
    e98e:	ff ff ff 
    e991:	c7 85 50 fa ff ff fa 	movl   $0xfffffffa,-0x5b0(%rbp)
    e998:	ff ff ff 
    e99b:	c7 85 54 fa ff ff dd 	movl   $0xa94e1fdd,-0x5ac(%rbp)
    e9a2:	1f 4e a9 
    e9a5:	c7 85 58 fa ff ff ff 	movl   $0xffffffff,-0x5a8(%rbp)
    e9ac:	ff ff ff 
    e9af:	c7 85 5c fa ff ff 3e 	movl   $0xe5c47c3e,-0x5a4(%rbp)
    e9b6:	7c c4 e5 
    e9b9:	c7 85 60 fa ff ff cf 	movl   $0x130aaacf,-0x5a0(%rbp)
    e9c0:	aa 0a 13 
    e9c3:	c7 85 64 fa ff ff fd 	movl   $0xfffffffd,-0x59c(%rbp)
    e9ca:	ff ff ff 
    e9cd:	c7 85 68 fa ff ff ff 	movl   $0xffffffff,-0x598(%rbp)
    e9d4:	ff ff ff 
    e9d7:	c7 85 6c fa ff ff 57 	movl   $0xbe3e3257,-0x594(%rbp)
    e9de:	32 3e be 
    e9e1:	c7 85 70 fa ff ff fd 	movl   $0xfffffffd,-0x590(%rbp)
    e9e8:	ff ff ff 
    e9eb:	c7 85 74 fa ff ff ca 	movl   $0x4a38b6ca,-0x58c(%rbp)
    e9f2:	b6 38 4a 
    e9f5:	c7 85 78 fa ff ff 57 	movl   $0xbe3e3257,-0x588(%rbp)
    e9fc:	32 3e be 
    e9ff:	c7 85 7c fa ff ff ca 	movl   $0x4a38b6ca,-0x584(%rbp)
    ea06:	b6 38 4a 
    ea09:	c7 85 80 fa ff ff 70 	movl   $0xcef8dd70,-0x580(%rbp)
    ea10:	dd f8 ce 
    ea13:	c7 85 84 fa ff ff 70 	movl   $0xcef8dd70,-0x57c(%rbp)
    ea1a:	dd f8 ce 
    ea1d:	c7 85 88 fa ff ff ca 	movl   $0x4a38b6ca,-0x578(%rbp)
    ea24:	b6 38 4a 
    ea27:	c7 85 8c fa ff ff 57 	movl   $0xbe3e3257,-0x574(%rbp)
    ea2e:	32 3e be 
    ea31:	c7 85 90 fa ff ff cf 	movl   $0x130aaacf,-0x570(%rbp)
    ea38:	aa 0a 13 
    ea3b:	c7 85 94 fa ff ff 3e 	movl   $0xe5c47c3e,-0x56c(%rbp)
    ea42:	7c c4 e5 
    ea45:	c7 85 98 fa ff ff ff 	movl   $0xffffffff,-0x568(%rbp)
    ea4c:	ff ff ff 
    ea4f:	c7 85 9c fa ff ff bc 	movl   $0x3766bc,-0x564(%rbp)
    ea56:	66 37 00 
    ea59:	c7 85 a0 fa ff ff 3e 	movl   $0xe5c47c3e,-0x560(%rbp)
    ea60:	7c c4 e5 
    ea63:	c7 85 a4 fa ff ff ca 	movl   $0x4a38b6ca,-0x55c(%rbp)
    ea6a:	b6 38 4a 
    ea6d:	c7 85 a8 fa ff ff 00 	movl   $0x0,-0x558(%rbp)
    ea74:	00 00 00 
    ea77:	c7 85 ac fa ff ff ff 	movl   $0xffffffff,-0x554(%rbp)
    ea7e:	ff ff ff 
    ea81:	c7 85 b0 fa ff ff fa 	movl   $0xfffffffa,-0x550(%rbp)
    ea88:	ff ff ff 
    ea8b:	c7 85 b4 fa ff ff 1a 	movl   $0x27c7091a,-0x54c(%rbp)
    ea92:	09 c7 27 
    ea95:	c7 85 b8 fa ff ff 57 	movl   $0xbe3e3257,-0x548(%rbp)
    ea9c:	32 3e be 
    ea9f:	c7 85 bc fa ff ff 81 	movl   $0xf7c48e81,-0x544(%rbp)
    eaa6:	8e c4 f7 
    eaa9:	c7 85 c0 fa ff ff 57 	movl   $0xbe3e3257,-0x540(%rbp)
    eab0:	32 3e be 
    eab3:	c7 85 c4 fa ff ff 1a 	movl   $0x27c7091a,-0x53c(%rbp)
    eaba:	09 c7 27 
    eabd:	c7 85 c8 fa ff ff fa 	movl   $0xfffffffa,-0x538(%rbp)
    eac4:	ff ff ff 
    eac7:	c7 85 cc fa ff ff 1a 	movl   $0x27c7091a,-0x534(%rbp)
    eace:	09 c7 27 
    ead1:	c7 85 d0 fa ff ff ff 	movl   $0xffffffff,-0x530(%rbp)
    ead8:	ff ff ff 
    eadb:	c7 85 d4 fa ff ff 70 	movl   $0xcef8dd70,-0x52c(%rbp)
    eae2:	dd f8 ce 
    eae5:	c7 85 d8 fa ff ff 57 	movl   $0xbe3e3257,-0x528(%rbp)
    eaec:	32 3e be 
    eaef:	c7 85 dc fa ff ff fa 	movl   $0xfffffffa,-0x524(%rbp)
    eaf6:	ff ff ff 
    eaf9:	c7 85 e0 fa ff ff 1a 	movl   $0x27c7091a,-0x520(%rbp)
    eb00:	09 c7 27 
    eb03:	c7 85 e4 fa ff ff 57 	movl   $0xbe3e3257,-0x51c(%rbp)
    eb0a:	32 3e be 
    eb0d:	c7 85 e8 fa ff ff 3e 	movl   $0xe5c47c3e,-0x518(%rbp)
    eb14:	7c c4 e5 
    eb17:	c7 85 ec fa ff ff ca 	movl   $0x4a38b6ca,-0x514(%rbp)
    eb1e:	b6 38 4a 
    eb21:	c7 85 f0 fa ff ff 00 	movl   $0x0,-0x510(%rbp)
    eb28:	00 00 00 
    eb2b:	c7 85 f4 fa ff ff ff 	movl   $0xffffffff,-0x50c(%rbp)
    eb32:	ff ff ff 
    eb35:	c7 85 f8 fa ff ff ff 	movl   $0xffffffff,-0x508(%rbp)
    eb3c:	ff ff ff 
    eb3f:	c7 85 fc fa ff ff 00 	movl   $0x0,-0x504(%rbp)
    eb46:	00 00 00 
    eb49:	c7 85 00 fb ff ff ca 	movl   $0x4a38b6ca,-0x500(%rbp)
    eb50:	b6 38 4a 
    eb53:	c7 85 04 fb ff ff ff 	movl   $0xffffffff,-0x4fc(%rbp)
    eb5a:	ff ff ff 
    eb5d:	c7 85 08 fb ff ff cf 	movl   $0x130aaacf,-0x4f8(%rbp)
    eb64:	aa 0a 13 
    eb67:	c7 85 0c fb ff ff 70 	movl   $0xcef8dd70,-0x4f4(%rbp)
    eb6e:	dd f8 ce 
    eb71:	c7 85 10 fb ff ff 81 	movl   $0xf7c48e81,-0x4f0(%rbp)
    eb78:	8e c4 f7 
    eb7b:	c7 85 14 fb ff ff cf 	movl   $0x130aaacf,-0x4ec(%rbp)
    eb82:	aa 0a 13 
    eb85:	c7 85 18 fb ff ff 57 	movl   $0xbe3e3257,-0x4e8(%rbp)
    eb8c:	32 3e be 
    eb8f:	c7 85 1c fb ff ff ca 	movl   $0x4a38b6ca,-0x4e4(%rbp)
    eb96:	b6 38 4a 
    eb99:	48 8d 05 10 e2 01 00 	lea    0x1e210(%rip),%rax        # 2cdb0 <g_1615>
    eba0:	48 89 85 68 f7 ff ff 	mov    %rax,-0x898(%rbp)
    eba7:	48 8b 05 72 dc 01 00 	mov    0x1dc72(%rip),%rax        # 2c820 <g_742>
    ebae:	48 8b 00             	mov    (%rax),%rax
    ebb1:	48 8b 00             	mov    (%rax),%rax
    ebb4:	0f b7 00             	movzwl (%rax),%eax
    ebb7:	0f bf d8             	movswl %ax,%ebx
    ebba:	48 8b 05 07 db 01 00 	mov    0x1db07(%rip),%rax        # 2c6c8 <g_570>
    ebc1:	48 8b 00             	mov    (%rax),%rax
    ebc4:	48 8b 10             	mov    (%rax),%rdx
    ebc7:	48 8b 85 60 f7 ff ff 	mov    -0x8a0(%rbp),%rax
    ebce:	48 89 10             	mov    %rdx,(%rax)
    ebd1:	48 8b 05 10 db 01 00 	mov    0x1db10(%rip),%rax        # 2c6e8 <g_744>
    ebd8:	0f b7 00             	movzwl (%rax),%eax
    ebdb:	66 83 f8 01          	cmp    $0x1,%ax
    ebdf:	0f 96 c0             	setbe  %al
    ebe2:	0f b6 c0             	movzbl %al,%eax
    ebe5:	be 05 00 00 00       	mov    $0x5,%esi
    ebea:	48 89 c7             	mov    %rax,%rdi
    ebed:	e8 bd e4 ff ff       	callq  d0af <safe_div_func_uint64_t_u_u>
    ebf2:	83 bd 38 f6 ff ff 00 	cmpl   $0x0,-0x9c8(%rbp)
    ebf9:	75 0b                	jne    ec06 <func_1+0x1451>
    ebfb:	0f b6 85 da f5 ff ff 	movzbl -0xa26(%rbp),%eax
    ec02:	84 c0                	test   %al,%al
    ec04:	74 07                	je     ec0d <func_1+0x1458>
    ec06:	b8 01 00 00 00       	mov    $0x1,%eax
    ec0b:	eb 05                	jmp    ec12 <func_1+0x145d>
    ec0d:	b8 00 00 00 00       	mov    $0x0,%eax
    ec12:	98                   	cwtl   
    ec13:	be 08 00 00 00       	mov    $0x8,%esi
    ec18:	89 c7                	mov    %eax,%edi
    ec1a:	e8 c2 d8 ff ff       	callq  c4e1 <safe_lshift_func_int16_t_s_u>
    ec1f:	48 8b 05 c2 da 01 00 	mov    0x1dac2(%rip),%rax        # 2c6e8 <g_744>
    ec26:	0f b7 00             	movzwl (%rax),%eax
    ec29:	0f b7 c0             	movzwl %ax,%eax
    ec2c:	89 de                	mov    %ebx,%esi
    ec2e:	89 c7                	mov    %eax,%edi
    ec30:	e8 89 e1 ff ff       	callq  cdbe <safe_lshift_func_uint16_t_u_s>
    ec35:	c7 85 00 fa ff ff 01 	movl   $0x1,-0x600(%rbp)
    ec3c:	00 00 00 
    ec3f:	8b 85 00 fa ff ff    	mov    -0x600(%rbp),%eax
    ec45:	39 85 30 f6 ff ff    	cmp    %eax,-0x9d0(%rbp)
    ec4b:	0f 92 c2             	setb   %dl
    ec4e:	48 8b 05 5b e1 01 00 	mov    0x1e15b(%rip),%rax        # 2cdb0 <g_1615>
    ec55:	0f b6 d2             	movzbl %dl,%edx
    ec58:	89 10                	mov    %edx,(%rax)
    ec5a:	c7 85 14 f6 ff ff ed 	movl   $0xffffffed,-0x9ec(%rbp)
    ec61:	ff ff ff 
    ec64:	eb 28                	jmp    ec8e <func_1+0x14d9>
    ec66:	8b 85 58 fa ff ff    	mov    -0x5a8(%rbp),%eax
    ec6c:	85 c0                	test   %eax,%eax
    ec6e:	75 29                	jne    ec99 <func_1+0x14e4>
    ec70:	8b 85 14 f6 ff ff    	mov    -0x9ec(%rbp),%eax
    ec76:	0f be c0             	movsbl %al,%eax
    ec79:	be 08 00 00 00       	mov    $0x8,%esi
    ec7e:	89 c7                	mov    %eax,%edi
    ec80:	e8 4f d5 ff ff       	callq  c1d4 <safe_add_func_int8_t_s_s>
    ec85:	0f be c0             	movsbl %al,%eax
    ec88:	89 85 14 f6 ff ff    	mov    %eax,-0x9ec(%rbp)
    ec8e:	83 bd 14 f6 ff ff 05 	cmpl   $0x5,-0x9ec(%rbp)
    ec95:	75 cf                	jne    ec66 <func_1+0x14b1>
    ec97:	eb 01                	jmp    ec9a <func_1+0x14e5>
    ec99:	90                   	nop
    ec9a:	48 8b 05 17 e1 01 00 	mov    0x1e117(%rip),%rax        # 2cdb8 <g_1616>
    eca1:	48 8b 10             	mov    (%rax),%rdx
    eca4:	48 8b 85 68 f7 ff ff 	mov    -0x898(%rbp),%rax
    ecab:	48 89 10             	mov    %rdx,(%rax)
    ecae:	66 c7 05 21 98 01 00 	movw   $0x0,0x19821(%rip)        # 284d8 <g_130>
    ecb5:	00 00 
    ecb7:	e9 f0 03 00 00       	jmpq   f0ac <func_1+0x18f7>
    ecbc:	48 c7 85 a8 f6 ff ff 	movq   $0x0,-0x958(%rbp)
    ecc3:	00 00 00 00 
    ecc7:	c6 85 db f5 ff ff be 	movb   $0xbe,-0xa25(%rbp)
    ecce:	c7 85 f8 f5 ff ff ff 	movl   $0xffffffff,-0xa08(%rbp)
    ecd5:	ff ff ff 
    ecd8:	0f b6 9d db f5 ff ff 	movzbl -0xa25(%rbp),%ebx
    ecdf:	48 8b 05 a2 e0 01 00 	mov    0x1e0a2(%rip),%rax        # 2cd88 <g_1220>
    ece6:	48 8b 00             	mov    (%rax),%rax
    ece9:	8b 00                	mov    (%rax),%eax
    eceb:	85 c0                	test   %eax,%eax
    eced:	75 56                	jne    ed45 <func_1+0x1590>
    ecef:	8b 85 38 f6 ff ff    	mov    -0x9c8(%rbp),%eax
    ecf5:	44 0f b7 e0          	movzwl %ax,%r12d
    ecf9:	0f b6 95 db f5 ff ff 	movzbl -0xa25(%rbp),%edx
    ed00:	48 8b 05 b1 e2 01 00 	mov    0x1e2b1(%rip),%rax        # 2cfb8 <g_2450>
    ed07:	48 8b 00             	mov    (%rax),%rax
    ed0a:	48 8b 00             	mov    (%rax),%rax
    ed0d:	48 85 c0             	test   %rax,%rax
    ed10:	0f 95 c0             	setne  %al
    ed13:	0f b6 c0             	movzbl %al,%eax
    ed16:	48 89 d6             	mov    %rdx,%rsi
    ed19:	48 89 c7             	mov    %rax,%rdi
    ed1c:	e8 87 db ff ff       	callq  c8a8 <safe_sub_func_int64_t_s_s>
    ed21:	0f b6 85 db f5 ff ff 	movzbl -0xa25(%rbp),%eax
    ed28:	44 89 e6             	mov    %r12d,%esi
    ed2b:	89 c7                	mov    %eax,%edi
    ed2d:	e8 2a e0 ff ff       	callq  cd5c <safe_mod_func_uint16_t_u_u>
    ed32:	0f b7 d0             	movzwl %ax,%edx
    ed35:	48 8b 05 8c d9 01 00 	mov    0x1d98c(%rip),%rax        # 2c6c8 <g_570>
    ed3c:	48 8b 00             	mov    (%rax),%rax
    ed3f:	48 8b 00             	mov    (%rax),%rax
    ed42:	48 39 c2             	cmp    %rax,%rdx
    ed45:	48 8b 05 c4 d8 01 00 	mov    0x1d8c4(%rip),%rax        # 2c610 <g_276>
    ed4c:	48 8b 10             	mov    (%rax),%rdx
    ed4f:	48 8b 85 a8 f6 ff ff 	mov    -0x958(%rbp),%rax
    ed56:	48 39 c2             	cmp    %rax,%rdx
    ed59:	0f 95 c0             	setne  %al
    ed5c:	0f b6 c0             	movzbl %al,%eax
    ed5f:	be 03 00 00 00       	mov    $0x3,%esi
    ed64:	89 c7                	mov    %eax,%edi
    ed66:	e8 83 d5 ff ff       	callq  c2ee <safe_lshift_func_int8_t_s_u>
    ed6b:	be 0a 00 00 00       	mov    $0xa,%esi
    ed70:	bf 01 00 00 00       	mov    $0x1,%edi
    ed75:	e8 8c e0 ff ff       	callq  ce06 <safe_lshift_func_uint16_t_u_u>
    ed7a:	0f b7 c0             	movzwl %ax,%eax
    ed7d:	89 de                	mov    %ebx,%esi
    ed7f:	89 c7                	mov    %eax,%edi
    ed81:	e8 d6 df ff ff       	callq  cd5c <safe_mod_func_uint16_t_u_u>
    ed86:	98                   	cwtl   
    ed87:	be 03 00 00 00       	mov    $0x3,%esi
    ed8c:	89 c7                	mov    %eax,%edi
    ed8e:	e8 d0 d7 ff ff       	callq  c563 <safe_rshift_func_int16_t_s_u>
    ed93:	8b 95 f4 f5 ff ff    	mov    -0xa0c(%rbp),%edx
    ed99:	48 8b 85 48 f7 ff ff 	mov    -0x8b8(%rbp),%rax
    eda0:	48 8b 00             	mov    (%rax),%rax
    eda3:	48 83 c8 02          	or     $0x2,%rax
    eda7:	48 89 c1             	mov    %rax,%rcx
    edaa:	48 8b 85 48 f7 ff ff 	mov    -0x8b8(%rbp),%rax
    edb1:	48 89 08             	mov    %rcx,(%rax)
    edb4:	b8 01 00 00 00       	mov    $0x1,%eax
    edb9:	0f b6 c0             	movzbl %al,%eax
    edbc:	89 d6                	mov    %edx,%esi
    edbe:	89 c7                	mov    %eax,%edi
    edc0:	e8 40 de ff ff       	callq  cc05 <safe_lshift_func_uint8_t_u_s>
    edc5:	84 c0                	test   %al,%al
    edc7:	74 4b                	je     ee14 <func_1+0x165f>
    edc9:	48 8b 85 c8 f5 ff ff 	mov    -0xa38(%rbp),%rax
    edd0:	48 8b 8d 40 f8 ff ff 	mov    -0x7c0(%rbp),%rcx
    edd7:	48 8b 9d 48 f8 ff ff 	mov    -0x7b8(%rbp),%rbx
    edde:	48 89 08             	mov    %rcx,(%rax)
    ede1:	48 89 58 08          	mov    %rbx,0x8(%rax)
    ede5:	48 8b 8d 50 f8 ff ff 	mov    -0x7b0(%rbp),%rcx
    edec:	48 8b 9d 58 f8 ff ff 	mov    -0x7a8(%rbp),%rbx
    edf3:	48 89 48 10          	mov    %rcx,0x10(%rax)
    edf7:	48 89 58 18          	mov    %rbx,0x18(%rax)
    edfb:	8b 95 60 f8 ff ff    	mov    -0x7a0(%rbp),%edx
    ee01:	89 50 20             	mov    %edx,0x20(%rax)
    ee04:	0f b7 95 64 f8 ff ff 	movzwl -0x79c(%rbp),%edx
    ee0b:	66 89 50 24          	mov    %dx,0x24(%rax)
    ee0f:	e9 e9 1a 00 00       	jmpq   108fd <func_1+0x3148>
    ee14:	48 c7 85 b0 f6 ff ff 	movq   $0x0,-0x950(%rbp)
    ee1b:	00 00 00 00 
    ee1f:	48 8d 85 70 f6 ff ff 	lea    -0x990(%rbp),%rax
    ee26:	48 89 85 b8 f6 ff ff 	mov    %rax,-0x948(%rbp)
    ee2d:	48 8d 85 b8 f6 ff ff 	lea    -0x948(%rbp),%rax
    ee34:	48 89 85 f0 f7 ff ff 	mov    %rax,-0x810(%rbp)
    ee3b:	48 8d 05 ce e5 01 00 	lea    0x1e5ce(%rip),%rax        # 2d410 <g_21>
    ee42:	48 89 85 d0 f8 ff ff 	mov    %rax,-0x730(%rbp)
    ee49:	48 8d 85 d0 f8 ff ff 	lea    -0x730(%rbp),%rax
    ee50:	48 89 85 f8 f7 ff ff 	mov    %rax,-0x808(%rbp)
    ee57:	c7 85 08 f6 ff ff 00 	movl   $0x0,-0x9f8(%rbp)
    ee5e:	00 00 00 
    ee61:	eb 1e                	jmp    ee81 <func_1+0x16cc>
    ee63:	8b 85 08 f6 ff ff    	mov    -0x9f8(%rbp),%eax
    ee69:	48 98                	cltq   
    ee6b:	48 8d 95 b0 f6 ff ff 	lea    -0x950(%rbp),%rdx
    ee72:	48 89 94 c5 40 fa ff 	mov    %rdx,-0x5c0(%rbp,%rax,8)
    ee79:	ff 
    ee7a:	83 85 08 f6 ff ff 01 	addl   $0x1,-0x9f8(%rbp)
    ee81:	83 bd 08 f6 ff ff 00 	cmpl   $0x0,-0x9f8(%rbp)
    ee88:	7e d9                	jle    ee63 <func_1+0x16ae>
    ee8a:	48 8d 85 a8 f6 ff ff 	lea    -0x958(%rbp),%rax
    ee91:	48 39 85 50 f7 ff ff 	cmp    %rax,-0x8b0(%rbp)
    ee98:	0f 95 c0             	setne  %al
    ee9b:	44 0f b6 e8          	movzbl %al,%r13d
    ee9f:	48 8b 05 42 d8 01 00 	mov    0x1d842(%rip),%rax        # 2c6e8 <g_744>
    eea6:	0f b7 00             	movzwl (%rax),%eax
    eea9:	0f b7 d8             	movzwl %ax,%ebx
    eeac:	8b 85 30 f6 ff ff    	mov    -0x9d0(%rbp),%eax
    eeb2:	44 0f be e0          	movsbl %al,%r12d
    eeb6:	48 8d 05 4b d7 01 00 	lea    0x1d74b(%rip),%rax        # 2c608 <g_277>
    eebd:	48 89 05 fc e0 01 00 	mov    %rax,0x1e0fc(%rip)        # 2cfc0 <g_2537>
    eec4:	be 04 00 00 00       	mov    $0x4,%esi
    eec9:	bf d5 00 00 00       	mov    $0xd5,%edi
    eece:	e8 eb dd ff ff       	callq  ccbe <safe_rshift_func_uint8_t_u_u>
    eed3:	89 c6                	mov    %eax,%esi
    eed5:	0f b7 05 fc 95 01 00 	movzwl 0x195fc(%rip),%eax        # 284d8 <g_130>
    eedc:	98                   	cwtl   
    eedd:	48 98                	cltq   
    eedf:	48 8d 14 c5 00 00 00 	lea    0x0(,%rax,8),%rdx
    eee6:	00 
    eee7:	48 8d 05 b2 d7 01 00 	lea    0x1d7b2(%rip),%rax        # 2c6a0 <g_557>
    eeee:	48 8b 0c 02          	mov    (%rdx,%rax,1),%rcx
    eef2:	48 8b 85 f0 f7 ff ff 	mov    -0x810(%rbp),%rax
    eef9:	48 8d 15 10 e5 01 00 	lea    0x1e510(%rip),%rdx        # 2d410 <g_21>
    ef00:	48 89 10             	mov    %rdx,(%rax)
    ef03:	48 8b 85 f0 f7 ff ff 	mov    -0x810(%rbp),%rax
    ef0a:	48 8b 10             	mov    (%rax),%rdx
    ef0d:	48 8b 85 f8 f7 ff ff 	mov    -0x808(%rbp),%rax
    ef14:	48 89 10             	mov    %rdx,(%rax)
    ef17:	48 8b 85 f8 f7 ff ff 	mov    -0x808(%rbp),%rax
    ef1e:	48 8b 00             	mov    (%rax),%rax
    ef21:	48 39 c1             	cmp    %rax,%rcx
    ef24:	0f 95 c0             	setne  %al
    ef27:	31 f0                	xor    %esi,%eax
    ef29:	0f be c0             	movsbl %al,%eax
    ef2c:	44 89 e6             	mov    %r12d,%esi
    ef2f:	89 c7                	mov    %eax,%edi
    ef31:	e8 bc d2 ff ff       	callq  c1f2 <safe_sub_func_int8_t_s_s>
    ef36:	89 de                	mov    %ebx,%esi
    ef38:	bf 00 00 00 00       	mov    $0x0,%edi
    ef3d:	e8 dd dd ff ff       	callq  cd1f <safe_sub_func_uint16_t_u_u>
    ef42:	b8 01 00 00 00       	mov    $0x1,%eax
    ef47:	0f b6 c0             	movzbl %al,%eax
    ef4a:	89 c6                	mov    %eax,%esi
    ef4c:	bf a5 00 00 00       	mov    $0xa5,%edi
    ef51:	e8 3d dc ff ff       	callq  cb93 <safe_mul_func_uint8_t_u_u>
    ef56:	0f b6 c0             	movzbl %al,%eax
    ef59:	48 0d 59 c0 00 00    	or     $0xc059,%rax
    ef5f:	4c 89 ea             	mov    %r13,%rdx
    ef62:	48 21 c2             	and    %rax,%rdx
    ef65:	48 8b 05 7c d7 01 00 	mov    0x1d77c(%rip),%rax        # 2c6e8 <g_744>
    ef6c:	0f b7 00             	movzwl (%rax),%eax
    ef6f:	48 0f bf c0          	movswq %ax,%rax
    ef73:	48 39 c2             	cmp    %rax,%rdx
    ef76:	48 8b 15 03 de 01 00 	mov    0x1de03(%rip),%rdx        # 2cd80 <g_1221>
    ef7d:	48 8b 05 04 de 01 00 	mov    0x1de04(%rip),%rax        # 2cd88 <g_1220>
    ef84:	48 8b 00             	mov    (%rax),%rax
    ef87:	8b 12                	mov    (%rdx),%edx
    ef89:	89 10                	mov    %edx,(%rax)
    ef8b:	48 8b 05 16 de 01 00 	mov    0x1de16(%rip),%rax        # 2cda8 <g_1478>
    ef92:	0f b7 00             	movzwl (%rax),%eax
    ef95:	0f b7 d0             	movzwl %ax,%edx
    ef98:	48 8b 05 49 d7 01 00 	mov    0x1d749(%rip),%rax        # 2c6e8 <g_744>
    ef9f:	0f b7 00             	movzwl (%rax),%eax
    efa2:	98                   	cwtl   
    efa3:	39 c2                	cmp    %eax,%edx
    efa5:	0f 95 c2             	setne  %dl
    efa8:	48 8b 05 91 d6 01 00 	mov    0x1d691(%rip),%rax        # 2c640 <g_460>
    efaf:	0f b6 d2             	movzbl %dl,%edx
    efb2:	89 10                	mov    %edx,(%rax)
    efb4:	8b 10                	mov    (%rax),%edx
    efb6:	8b 85 f8 f5 ff ff    	mov    -0xa08(%rbp),%eax
    efbc:	21 d0                	and    %edx,%eax
    efbe:	89 85 f8 f5 ff ff    	mov    %eax,-0xa08(%rbp)
    efc4:	0f b6 85 db f5 ff ff 	movzbl -0xa25(%rbp),%eax
    efcb:	89 85 fc f9 ff ff    	mov    %eax,-0x604(%rbp)
    efd1:	48 8b 85 f0 f7 ff ff 	mov    -0x810(%rbp),%rax
    efd8:	48 8b 00             	mov    (%rax),%rax
    efdb:	48 8d 95 f8 f5 ff ff 	lea    -0xa08(%rbp),%rdx
    efe2:	48 89 10             	mov    %rdx,(%rax)
    efe5:	c7 85 58 f8 ff ff 0e 	movl   $0xe,-0x7a8(%rbp)
    efec:	00 00 00 
    efef:	e9 98 00 00 00       	jmpq   f08c <func_1+0x18d7>
    eff4:	48 c7 85 00 f8 ff ff 	movq   $0x8,-0x800(%rbp)
    effb:	08 00 00 00 
    efff:	48 8b 05 ea dd 01 00 	mov    0x1ddea(%rip),%rax        # 2cdf0 <g_1917>
    f006:	48 8b 00             	mov    (%rax),%rax
    f009:	48 8b 00             	mov    (%rax),%rax
    f00c:	0f b7 00             	movzwl (%rax),%eax
    f00f:	0f b7 c0             	movzwl %ax,%eax
    f012:	89 c6                	mov    %eax,%esi
    f014:	bf 01 00 00 00       	mov    $0x1,%edi
    f019:	e8 1f dd ff ff       	callq  cd3d <safe_mul_func_uint16_t_u_u>
    f01e:	89 c2                	mov    %eax,%edx
    f020:	48 8b 05 19 d6 01 00 	mov    0x1d619(%rip),%rax        # 2c640 <g_460>
    f027:	0f b7 d2             	movzwl %dx,%edx
    f02a:	89 10                	mov    %edx,(%rax)
    f02c:	8b 08                	mov    (%rax),%ecx
    f02e:	48 8b 05 7b dd 01 00 	mov    0x1dd7b(%rip),%rax        # 2cdb0 <g_1615>
    f035:	8b 10                	mov    (%rax),%edx
    f037:	48 8b 05 72 dd 01 00 	mov    0x1dd72(%rip),%rax        # 2cdb0 <g_1615>
    f03e:	09 ca                	or     %ecx,%edx
    f040:	89 10                	mov    %edx,(%rax)
    f042:	8b 85 3c f9 ff ff    	mov    -0x6c4(%rbp),%eax
    f048:	0f b7 d0             	movzwl %ax,%edx
    f04b:	8b 85 38 f6 ff ff    	mov    -0x9c8(%rbp),%eax
    f051:	0f b7 c0             	movzwl %ax,%eax
    f054:	89 d6                	mov    %edx,%esi
    f056:	89 c7                	mov    %eax,%edi
    f058:	e8 ff dc ff ff       	callq  cd5c <safe_mod_func_uint16_t_u_u>
    f05d:	0f b7 c0             	movzwl %ax,%eax
    f060:	48 89 85 00 f8 ff ff 	mov    %rax,-0x800(%rbp)
    f067:	48 8b 85 00 f8 ff ff 	mov    -0x800(%rbp),%rax
    f06e:	89 85 f8 f5 ff ff    	mov    %eax,-0xa08(%rbp)
    f074:	8b 85 58 f8 ff ff    	mov    -0x7a8(%rbp),%eax
    f07a:	be 07 00 00 00       	mov    $0x7,%esi
    f07f:	89 c7                	mov    %eax,%edi
    f081:	e8 30 d5 ff ff       	callq  c5b6 <safe_add_func_int32_t_s_s>
    f086:	89 85 58 f8 ff ff    	mov    %eax,-0x7a8(%rbp)
    f08c:	8b 85 58 f8 ff ff    	mov    -0x7a8(%rbp),%eax
    f092:	83 f8 31             	cmp    $0x31,%eax
    f095:	0f 86 59 ff ff ff    	jbe    eff4 <func_1+0x183f>
    f09b:	0f b7 05 36 94 01 00 	movzwl 0x19436(%rip),%eax        # 284d8 <g_130>
    f0a2:	83 c0 01             	add    $0x1,%eax
    f0a5:	66 89 05 2c 94 01 00 	mov    %ax,0x1942c(%rip)        # 284d8 <g_130>
    f0ac:	0f b7 05 25 94 01 00 	movzwl 0x19425(%rip),%eax        # 284d8 <g_130>
    f0b3:	66 83 f8 03          	cmp    $0x3,%ax
    f0b7:	0f 8e ff fb ff ff    	jle    ecbc <func_1+0x1507>
    f0bd:	48 8b 05 54 dd 01 00 	mov    0x1dd54(%rip),%rax        # 2ce18 <g_2318>
    f0c4:	48 8b 00             	mov    (%rax),%rax
    f0c7:	48 8b 00             	mov    (%rax),%rax
    f0ca:	48 8b 00             	mov    (%rax),%rax
    f0cd:	49 89 c4             	mov    %rax,%r12
    f0d0:	48 8b 05 b1 dc 01 00 	mov    0x1dcb1(%rip),%rax        # 2cd88 <g_1220>
    f0d7:	48 8b 00             	mov    (%rax),%rax
    f0da:	8b 00                	mov    (%rax),%eax
    f0dc:	85 c0                	test   %eax,%eax
    f0de:	0f 85 91 00 00 00    	jne    f175 <func_1+0x19c0>
    f0e4:	0f b7 85 dc f5 ff ff 	movzwl -0xa24(%rbp),%eax
    f0eb:	0f b6 d8             	movzbl %al,%ebx
    f0ee:	48 8b 85 18 f7 ff ff 	mov    -0x8e8(%rbp),%rax
    f0f5:	48 3b 85 f0 f6 ff ff 	cmp    -0x910(%rbp),%rax
    f0fc:	0f 95 c0             	setne  %al
    f0ff:	0f b6 d0             	movzbl %al,%edx
    f102:	8b 85 3c f9 ff ff    	mov    -0x6c4(%rbp),%eax
    f108:	8b 8d c4 f9 ff ff    	mov    -0x63c(%rbp),%ecx
    f10e:	39 c8                	cmp    %ecx,%eax
    f110:	0f 95 c0             	setne  %al
    f113:	0f b6 c0             	movzbl %al,%eax
    f116:	89 d6                	mov    %edx,%esi
    f118:	89 c7                	mov    %eax,%edi
    f11a:	e8 74 da ff ff       	callq  cb93 <safe_mul_func_uint8_t_u_u>
    f11f:	0f b6 c0             	movzbl %al,%eax
    f122:	be 09 00 00 00       	mov    $0x9,%esi
    f127:	89 c7                	mov    %eax,%edi
    f129:	e8 b3 d3 ff ff       	callq  c4e1 <safe_lshift_func_int16_t_s_u>
    f12e:	66 85 c0             	test   %ax,%ax
    f131:	75 15                	jne    f148 <func_1+0x1993>
    f133:	48 8b 05 de dc 01 00 	mov    0x1dcde(%rip),%rax        # 2ce18 <g_2318>
    f13a:	48 8b 00             	mov    (%rax),%rax
    f13d:	48 8b 00             	mov    (%rax),%rax
    f140:	48 8b 00             	mov    (%rax),%rax
    f143:	48 85 c0             	test   %rax,%rax
    f146:	74 07                	je     f14f <func_1+0x199a>
    f148:	b8 01 00 00 00       	mov    $0x1,%eax
    f14d:	eb 05                	jmp    f154 <func_1+0x199f>
    f14f:	b8 00 00 00 00       	mov    $0x0,%eax
    f154:	83 f0 79             	xor    $0x79,%eax
    f157:	0f b6 c0             	movzbl %al,%eax
    f15a:	89 de                	mov    %ebx,%esi
    f15c:	89 c7                	mov    %eax,%edi
    f15e:	e8 15 da ff ff       	callq  cb78 <safe_sub_func_uint8_t_u_u>
    f163:	89 c2                	mov    %eax,%edx
    f165:	48 8b 05 7c dc 01 00 	mov    0x1dc7c(%rip),%rax        # 2cde8 <g_1918>
    f16c:	48 8b 00             	mov    (%rax),%rax
    f16f:	0f b6 d2             	movzbl %dl,%edx
    f172:	66 89 10             	mov    %dx,(%rax)
    f175:	48 8b 05 0c dc 01 00 	mov    0x1dc0c(%rip),%rax        # 2cd88 <g_1220>
    f17c:	48 8b 00             	mov    (%rax),%rax
    f17f:	8b 00                	mov    (%rax),%eax
    f181:	83 f8 fd             	cmp    $0xfffffffd,%eax
    f184:	0f 96 c0             	setbe  %al
    f187:	0f b6 c0             	movzbl %al,%eax
    f18a:	4c 89 e6             	mov    %r12,%rsi
    f18d:	48 89 c7             	mov    %rax,%rdi
    f190:	e8 eb de ff ff       	callq  d080 <safe_mod_func_uint64_t_u_u>
    f195:	8b 95 38 f6 ff ff    	mov    -0x9c8(%rbp),%edx
    f19b:	8b 85 fc f8 ff ff    	mov    -0x704(%rbp),%eax
    f1a1:	21 d0                	and    %edx,%eax
    f1a3:	89 85 fc f8 ff ff    	mov    %eax,-0x704(%rbp)
    f1a9:	44 0f b7 a5 de f5 ff 	movzwl -0xa22(%rbp),%r12d
    f1b0:	ff 
    f1b1:	66 83 bd dc f5 ff ff 	cmpw   $0x0,-0xa24(%rbp)
    f1b8:	00 
    f1b9:	0f 85 46 01 00 00    	jne    f305 <func_1+0x1b50>
    f1bf:	eb 4b                	jmp    f20c <func_1+0x1a57>
    f1c1:	48 8b 85 c8 f5 ff ff 	mov    -0xa38(%rbp),%rax
    f1c8:	48 8b 0d 31 98 01 00 	mov    0x19831(%rip),%rcx        # 28a00 <g_2562>
    f1cf:	48 8b 1d 32 98 01 00 	mov    0x19832(%rip),%rbx        # 28a08 <g_2562+0x8>
    f1d6:	48 89 08             	mov    %rcx,(%rax)
    f1d9:	48 89 58 08          	mov    %rbx,0x8(%rax)
    f1dd:	48 8b 0d 2c 98 01 00 	mov    0x1982c(%rip),%rcx        # 28a10 <g_2562+0x10>
    f1e4:	48 8b 1d 2d 98 01 00 	mov    0x1982d(%rip),%rbx        # 28a18 <g_2562+0x18>
    f1eb:	48 89 48 10          	mov    %rcx,0x10(%rax)
    f1ef:	48 89 58 18          	mov    %rbx,0x18(%rax)
    f1f3:	8b 15 27 98 01 00    	mov    0x19827(%rip),%edx        # 28a20 <g_2562+0x20>
    f1f9:	89 50 20             	mov    %edx,0x20(%rax)
    f1fc:	0f b7 15 21 98 01 00 	movzwl 0x19821(%rip),%edx        # 28a24 <g_2562+0x24>
    f203:	66 89 50 24          	mov    %dx,0x24(%rax)
    f207:	e9 f1 16 00 00       	jmpq   108fd <func_1+0x3148>
    f20c:	8b 85 fc f8 ff ff    	mov    -0x704(%rbp),%eax
    f212:	0f b6 c0             	movzbl %al,%eax
    f215:	be 05 00 00 00       	mov    $0x5,%esi
    f21a:	89 c7                	mov    %eax,%edi
    f21c:	e8 9d da ff ff       	callq  ccbe <safe_rshift_func_uint8_t_u_u>
    f221:	0f b6 c0             	movzbl %al,%eax
    f224:	89 c6                	mov    %eax,%esi
    f226:	bf 41 2f 00 00       	mov    $0x2f41,%edi
    f22b:	e8 62 d2 ff ff       	callq  c492 <safe_lshift_func_int16_t_s_s>
    f230:	66 85 c0             	test   %ax,%ax
    f233:	0f 84 d3 00 00 00    	je     f30c <func_1+0x1b57>
    f239:	48 8b 05 a8 db 01 00 	mov    0x1dba8(%rip),%rax        # 2cde8 <g_1918>
    f240:	48 8b 00             	mov    (%rax),%rax
    f243:	0f b7 00             	movzwl (%rax),%eax
    f246:	0f b7 d8             	movzwl %ax,%ebx
    f249:	8b 85 38 f6 ff ff    	mov    -0x9c8(%rbp),%eax
    f24f:	0f b6 c0             	movzbl %al,%eax
    f252:	89 c6                	mov    %eax,%esi
    f254:	bf 58 00 00 00       	mov    $0x58,%edi
    f259:	e8 35 d9 ff ff       	callq  cb93 <safe_mul_func_uint8_t_u_u>
    f25e:	0f be d0             	movsbl %al,%edx
    f261:	8b 85 fc f8 ff ff    	mov    -0x704(%rbp),%eax
    f267:	0f be c0             	movsbl %al,%eax
    f26a:	89 d6                	mov    %edx,%esi
    f26c:	89 c7                	mov    %eax,%edi
    f26e:	e8 61 cf ff ff       	callq  c1d4 <safe_add_func_int8_t_s_s>
    f273:	89 c2                	mov    %eax,%edx
    f275:	48 8b 05 9c db 01 00 	mov    0x1db9c(%rip),%rax        # 2ce18 <g_2318>
    f27c:	48 8b 00             	mov    (%rax),%rax
    f27f:	48 8b 00             	mov    (%rax),%rax
    f282:	48 0f be d2          	movsbq %dl,%rdx
    f286:	48 89 10             	mov    %rdx,(%rax)
    f289:	48 8b 00             	mov    (%rax),%rax
    f28c:	48 85 c0             	test   %rax,%rax
    f28f:	0f 95 c0             	setne  %al
    f292:	0f b6 d0             	movzbl %al,%edx
    f295:	8b 85 f4 f5 ff ff    	mov    -0xa0c(%rbp),%eax
    f29b:	09 d0                	or     %edx,%eax
    f29d:	89 85 f4 f5 ff ff    	mov    %eax,-0xa0c(%rbp)
    f2a3:	8b 95 f4 f5 ff ff    	mov    -0xa0c(%rbp),%edx
    f2a9:	48 8b 05 88 d3 01 00 	mov    0x1d388(%rip),%rax        # 2c638 <g_416>
    f2b0:	48 8b 00             	mov    (%rax),%rax
    f2b3:	66 89 10             	mov    %dx,(%rax)
    f2b6:	0f b7 00             	movzwl (%rax),%eax
    f2b9:	0f b7 c0             	movzwl %ax,%eax
    f2bc:	89 de                	mov    %ebx,%esi
    f2be:	89 c7                	mov    %eax,%edi
    f2c0:	e8 5a da ff ff       	callq  cd1f <safe_sub_func_uint16_t_u_u>
    f2c5:	b9 01 00 00 00       	mov    $0x1,%ecx
    f2ca:	48 8b 85 48 f7 ff ff 	mov    -0x8b8(%rbp),%rax
    f2d1:	48 8b 10             	mov    (%rax),%rdx
    f2d4:	48 63 c1             	movslq %ecx,%rax
    f2d7:	48 21 c2             	and    %rax,%rdx
    f2da:	48 8b 85 48 f7 ff ff 	mov    -0x8b8(%rbp),%rax
    f2e1:	48 89 10             	mov    %rdx,(%rax)
    f2e4:	48 8b 85 48 f7 ff ff 	mov    -0x8b8(%rbp),%rax
    f2eb:	48 8b 00             	mov    (%rax),%rax
    f2ee:	48 be 9a 8e 6c c4 12 	movabs $0x6583712c46c8e9a,%rsi
    f2f5:	37 58 06 
    f2f8:	48 89 c7             	mov    %rax,%rdi
    f2fb:	e8 80 dd ff ff       	callq  d080 <safe_mod_func_uint64_t_u_u>
    f300:	48 85 c0             	test   %rax,%rax
    f303:	74 07                	je     f30c <func_1+0x1b57>
    f305:	b8 01 00 00 00       	mov    $0x1,%eax
    f30a:	eb 05                	jmp    f311 <func_1+0x1b5c>
    f30c:	b8 00 00 00 00       	mov    $0x0,%eax
    f311:	44 39 e0             	cmp    %r12d,%eax
    f314:	0f 9c c0             	setl   %al
    f317:	0f b6 c0             	movzbl %al,%eax
    f31a:	be 09 00 00 00       	mov    $0x9,%esi
    f31f:	89 c7                	mov    %eax,%edi
    f321:	e8 e0 da ff ff       	callq  ce06 <safe_lshift_func_uint16_t_u_u>
    f326:	0f b6 c0             	movzbl %al,%eax
    f329:	be ff 00 00 00       	mov    $0xff,%esi
    f32e:	89 c7                	mov    %eax,%edi
    f330:	e8 43 d8 ff ff       	callq  cb78 <safe_sub_func_uint8_t_u_u>
    f335:	48 8b 05 ac d3 01 00 	mov    0x1d3ac(%rip),%rax        # 2c6e8 <g_744>
    f33c:	0f b7 00             	movzwl (%rax),%eax
    f33f:	0f b7 c0             	movzwl %ax,%eax
    f342:	89 c6                	mov    %eax,%esi
    f344:	bf 01 00 00 00       	mov    $0x1,%edi
    f349:	e8 ef d9 ff ff       	callq  cd3d <safe_mul_func_uint16_t_u_u>
    f34e:	0f b7 c0             	movzwl %ax,%eax
    f351:	be 39 9b 8a 4d       	mov    $0x4d8a9b39,%esi
    f356:	89 c7                	mov    %eax,%edi
    f358:	e8 5b db ff ff       	callq  ceb8 <safe_add_func_uint32_t_u_u>
    f35d:	89 c2                	mov    %eax,%edx
    f35f:	48 8b 05 1a e1 01 00 	mov    0x1e11a(%rip),%rax        # 2d480 <g_1565>
    f366:	48 39 c2             	cmp    %rax,%rdx
    f369:	0f 86 ff 04 00 00    	jbe    f86e <func_1+0x20b9>
    f36f:	c7 85 44 f6 ff ff 06 	movl   $0x6,-0x9bc(%rbp)
    f376:	00 00 00 
    f379:	48 8d 85 e8 f5 ff ff 	lea    -0xa18(%rbp),%rax
    f380:	48 89 85 70 f7 ff ff 	mov    %rax,-0x890(%rbp)
    f387:	48 8d 85 f4 f5 ff ff 	lea    -0xa0c(%rbp),%rax
    f38e:	48 89 85 78 f7 ff ff 	mov    %rax,-0x888(%rbp)
    f395:	48 8d 05 fc 93 01 00 	lea    0x193fc(%rip),%rax        # 28798 <g_646>
    f39c:	48 89 85 80 f7 ff ff 	mov    %rax,-0x880(%rbp)
    f3a3:	48 8d 85 fc f8 ff ff 	lea    -0x704(%rbp),%rax
    f3aa:	48 89 85 88 f7 ff ff 	mov    %rax,-0x878(%rbp)
    f3b1:	48 8d 85 f4 f5 ff ff 	lea    -0xa0c(%rbp),%rax
    f3b8:	48 89 85 90 f7 ff ff 	mov    %rax,-0x870(%rbp)
    f3bf:	48 8d 05 d2 93 01 00 	lea    0x193d2(%rip),%rax        # 28798 <g_646>
    f3c6:	48 89 85 98 f7 ff ff 	mov    %rax,-0x868(%rbp)
    f3cd:	c7 85 d0 f8 ff ff 00 	movl   $0x0,-0x730(%rbp)
    f3d4:	00 00 00 
    f3d7:	48 c7 85 a0 f7 ff ff 	movq   $0x0,-0x860(%rbp)
    f3de:	00 00 00 00 
    f3e2:	c7 85 48 f6 ff ff f9 	movl   $0xfffffff9,-0x9b8(%rbp)
    f3e9:	ff ff ff 
    f3ec:	48 8d 05 a5 93 01 00 	lea    0x193a5(%rip),%rax        # 28798 <g_646>
    f3f3:	48 89 85 a8 f7 ff ff 	mov    %rax,-0x858(%rbp)
    f3fa:	48 8d 85 ec f5 ff ff 	lea    -0xa14(%rbp),%rax
    f401:	48 89 85 b0 f7 ff ff 	mov    %rax,-0x850(%rbp)
    f408:	48 8d 85 fc f8 ff ff 	lea    -0x704(%rbp),%rax
    f40f:	48 89 85 b8 f7 ff ff 	mov    %rax,-0x848(%rbp)
    f416:	48 8d 05 af 8c 01 00 	lea    0x18caf(%rip),%rax        # 280cc <g_71>
    f41d:	48 89 85 c0 f7 ff ff 	mov    %rax,-0x840(%rbp)
    f424:	48 8d 05 a1 8c 01 00 	lea    0x18ca1(%rip),%rax        # 280cc <g_71>
    f42b:	48 89 85 c8 f7 ff ff 	mov    %rax,-0x838(%rbp)
    f432:	48 c7 85 d0 f7 ff ff 	movq   $0x0,-0x830(%rbp)
    f439:	00 00 00 00 
    f43d:	48 8d 85 e8 f5 ff ff 	lea    -0xa18(%rbp),%rax
    f444:	48 89 85 d8 f7 ff ff 	mov    %rax,-0x828(%rbp)
    f44b:	48 8d 85 ec f5 ff ff 	lea    -0xa14(%rbp),%rax
    f452:	48 89 85 e0 f7 ff ff 	mov    %rax,-0x820(%rbp)
    f459:	48 8d 05 6c 8c 01 00 	lea    0x18c6c(%rip),%rax        # 280cc <g_71>
    f460:	48 89 85 e8 f7 ff ff 	mov    %rax,-0x818(%rbp)
    f467:	48 c7 85 40 fa ff ff 	movq   $0x0,-0x5c0(%rbp)
    f46e:	00 00 00 00 
    f472:	48 8d 05 1f 93 01 00 	lea    0x1931f(%rip),%rax        # 28798 <g_646>
    f479:	48 89 85 48 fa ff ff 	mov    %rax,-0x5b8(%rbp)
    f480:	48 c7 85 50 fa ff ff 	movq   $0x0,-0x5b0(%rbp)
    f487:	00 00 00 00 
    f48b:	48 c7 85 58 fa ff ff 	movq   $0x0,-0x5a8(%rbp)
    f492:	00 00 00 00 
    f496:	48 8d 05 fb 92 01 00 	lea    0x192fb(%rip),%rax        # 28798 <g_646>
    f49d:	48 89 85 60 fa ff ff 	mov    %rax,-0x5a0(%rbp)
    f4a4:	48 c7 85 68 fa ff ff 	movq   $0x0,-0x598(%rbp)
    f4ab:	00 00 00 00 
    f4af:	48 c7 85 70 fa ff ff 	movq   $0x0,-0x590(%rbp)
    f4b6:	00 00 00 00 
    f4ba:	48 8d 05 d7 92 01 00 	lea    0x192d7(%rip),%rax        # 28798 <g_646>
    f4c1:	48 89 85 78 fa ff ff 	mov    %rax,-0x588(%rbp)
    f4c8:	48 c7 85 80 fa ff ff 	movq   $0x0,-0x580(%rbp)
    f4cf:	00 00 00 00 
    f4d3:	48 c7 85 88 fa ff ff 	movq   $0x0,-0x578(%rbp)
    f4da:	00 00 00 00 
    f4de:	48 8d 05 b3 92 01 00 	lea    0x192b3(%rip),%rax        # 28798 <g_646>
    f4e5:	48 89 85 90 fa ff ff 	mov    %rax,-0x570(%rbp)
    f4ec:	48 c7 85 98 fa ff ff 	movq   $0x0,-0x568(%rbp)
    f4f3:	00 00 00 00 
    f4f7:	48 c7 85 a0 fa ff ff 	movq   $0x0,-0x560(%rbp)
    f4fe:	00 00 00 00 
    f502:	48 8d 05 8f 92 01 00 	lea    0x1928f(%rip),%rax        # 28798 <g_646>
    f509:	48 89 85 a8 fa ff ff 	mov    %rax,-0x558(%rbp)
    f510:	48 c7 85 b0 fa ff ff 	movq   $0x0,-0x550(%rbp)
    f517:	00 00 00 00 
    f51b:	48 c7 85 b8 fa ff ff 	movq   $0x0,-0x548(%rbp)
    f522:	00 00 00 00 
    f526:	48 8d 05 6b 92 01 00 	lea    0x1926b(%rip),%rax        # 28798 <g_646>
    f52d:	48 89 85 c0 fa ff ff 	mov    %rax,-0x540(%rbp)
    f534:	48 c7 85 c8 fa ff ff 	movq   $0x0,-0x538(%rbp)
    f53b:	00 00 00 00 
    f53f:	48 c7 85 d0 fa ff ff 	movq   $0x0,-0x530(%rbp)
    f546:	00 00 00 00 
    f54a:	48 8d 05 47 92 01 00 	lea    0x19247(%rip),%rax        # 28798 <g_646>
    f551:	48 89 85 d8 fa ff ff 	mov    %rax,-0x528(%rbp)
    f558:	48 c7 85 e0 fa ff ff 	movq   $0x0,-0x520(%rbp)
    f55f:	00 00 00 00 
    f563:	48 c7 85 e8 fa ff ff 	movq   $0x0,-0x518(%rbp)
    f56a:	00 00 00 00 
    f56e:	48 8d 05 23 92 01 00 	lea    0x19223(%rip),%rax        # 28798 <g_646>
    f575:	48 89 85 f0 fa ff ff 	mov    %rax,-0x510(%rbp)
    f57c:	48 8d 85 d0 f8 ff ff 	lea    -0x730(%rbp),%rax
    f583:	48 89 85 f8 fa ff ff 	mov    %rax,-0x508(%rbp)
    f58a:	48 8d 85 d0 f8 ff ff 	lea    -0x730(%rbp),%rax
    f591:	48 89 85 00 fb ff ff 	mov    %rax,-0x500(%rbp)
    f598:	48 c7 85 08 fb ff ff 	movq   $0x0,-0x4f8(%rbp)
    f59f:	00 00 00 00 
    f5a3:	48 8d 85 d0 f8 ff ff 	lea    -0x730(%rbp),%rax
    f5aa:	48 89 85 10 fb ff ff 	mov    %rax,-0x4f0(%rbp)
    f5b1:	48 8d 85 d0 f8 ff ff 	lea    -0x730(%rbp),%rax
    f5b8:	48 89 85 18 fb ff ff 	mov    %rax,-0x4e8(%rbp)
    f5bf:	48 c7 85 20 fb ff ff 	movq   $0x0,-0x4e0(%rbp)
    f5c6:	00 00 00 00 
    f5ca:	48 8d 85 d0 f8 ff ff 	lea    -0x730(%rbp),%rax
    f5d1:	48 89 85 28 fb ff ff 	mov    %rax,-0x4d8(%rbp)
    f5d8:	48 8d 85 d0 f8 ff ff 	lea    -0x730(%rbp),%rax
    f5df:	48 89 85 30 fb ff ff 	mov    %rax,-0x4d0(%rbp)
    f5e6:	48 c7 85 38 fb ff ff 	movq   $0x0,-0x4c8(%rbp)
    f5ed:	00 00 00 00 
    f5f1:	48 8d 85 d0 f8 ff ff 	lea    -0x730(%rbp),%rax
    f5f8:	48 89 85 40 fb ff ff 	mov    %rax,-0x4c0(%rbp)
    f5ff:	48 8d 85 d0 f8 ff ff 	lea    -0x730(%rbp),%rax
    f606:	48 89 85 48 fb ff ff 	mov    %rax,-0x4b8(%rbp)
    f60d:	48 c7 85 50 fb ff ff 	movq   $0x0,-0x4b0(%rbp)
    f614:	00 00 00 00 
    f618:	48 8d 85 d0 f8 ff ff 	lea    -0x730(%rbp),%rax
    f61f:	48 89 85 58 fb ff ff 	mov    %rax,-0x4a8(%rbp)
    f626:	48 8d 85 d0 f8 ff ff 	lea    -0x730(%rbp),%rax
    f62d:	48 89 85 60 fb ff ff 	mov    %rax,-0x4a0(%rbp)
    f634:	48 c7 85 68 fb ff ff 	movq   $0x0,-0x498(%rbp)
    f63b:	00 00 00 00 
    f63f:	48 8d 85 d0 f8 ff ff 	lea    -0x730(%rbp),%rax
    f646:	48 89 85 70 fb ff ff 	mov    %rax,-0x490(%rbp)
    f64d:	48 8d 85 d0 f8 ff ff 	lea    -0x730(%rbp),%rax
    f654:	48 89 85 78 fb ff ff 	mov    %rax,-0x488(%rbp)
    f65b:	48 c7 85 80 fb ff ff 	movq   $0x0,-0x480(%rbp)
    f662:	00 00 00 00 
    f666:	48 8d 85 d0 f8 ff ff 	lea    -0x730(%rbp),%rax
    f66d:	48 89 85 88 fb ff ff 	mov    %rax,-0x478(%rbp)
    f674:	48 8d 85 d0 f8 ff ff 	lea    -0x730(%rbp),%rax
    f67b:	48 89 85 90 fb ff ff 	mov    %rax,-0x470(%rbp)
    f682:	48 c7 85 98 fb ff ff 	movq   $0x0,-0x468(%rbp)
    f689:	00 00 00 00 
    f68d:	48 8d 85 d0 f8 ff ff 	lea    -0x730(%rbp),%rax
    f694:	48 89 85 a0 fb ff ff 	mov    %rax,-0x460(%rbp)
    f69b:	48 8d 85 d0 f8 ff ff 	lea    -0x730(%rbp),%rax
    f6a2:	48 89 85 a8 fb ff ff 	mov    %rax,-0x458(%rbp)
    f6a9:	48 c7 85 b0 fb ff ff 	movq   $0x0,-0x450(%rbp)
    f6b0:	00 00 00 00 
    f6b4:	48 8d 85 d0 f8 ff ff 	lea    -0x730(%rbp),%rax
    f6bb:	48 89 85 b8 fb ff ff 	mov    %rax,-0x448(%rbp)
    f6c2:	48 8d 85 d0 f8 ff ff 	lea    -0x730(%rbp),%rax
    f6c9:	48 89 85 c0 fb ff ff 	mov    %rax,-0x440(%rbp)
    f6d0:	48 c7 85 c8 fb ff ff 	movq   $0x0,-0x438(%rbp)
    f6d7:	00 00 00 00 
    f6db:	48 8d 85 d0 f8 ff ff 	lea    -0x730(%rbp),%rax
    f6e2:	48 89 85 d0 fb ff ff 	mov    %rax,-0x430(%rbp)
    f6e9:	48 8d 85 d0 f8 ff ff 	lea    -0x730(%rbp),%rax
    f6f0:	48 89 85 d8 fb ff ff 	mov    %rax,-0x428(%rbp)
    f6f7:	48 c7 85 e0 fb ff ff 	movq   $0x0,-0x420(%rbp)
    f6fe:	00 00 00 00 
    f702:	48 8d 85 d0 f8 ff ff 	lea    -0x730(%rbp),%rax
    f709:	48 89 85 e8 fb ff ff 	mov    %rax,-0x418(%rbp)
    f710:	0f b7 85 e6 f5 ff ff 	movzwl -0xa1a(%rbp),%eax
    f717:	0f b7 d8             	movzwl %ax,%ebx
    f71a:	8b 85 30 f6 ff ff    	mov    -0x9d0(%rbp),%eax
    f720:	0f b6 d0             	movzbl %al,%edx
    f723:	0f b7 85 dc f5 ff ff 	movzwl -0xa24(%rbp),%eax
    f72a:	0f b6 c0             	movzbl %al,%eax
    f72d:	89 d6                	mov    %edx,%esi
    f72f:	89 c7                	mov    %eax,%edi
    f731:	e8 5d d4 ff ff       	callq  cb93 <safe_mul_func_uint8_t_u_u>
    f736:	0f b6 d0             	movzbl %al,%edx
    f739:	8b 85 38 f6 ff ff    	mov    -0x9c8(%rbp),%eax
    f73f:	0f be c0             	movsbl %al,%eax
    f742:	89 d6                	mov    %edx,%esi
    f744:	89 c7                	mov    %eax,%edi
    f746:	e8 56 cb ff ff       	callq  c2a1 <safe_lshift_func_int8_t_s_s>
    f74b:	84 c0                	test   %al,%al
    f74d:	0f 84 dc 00 00 00    	je     f82f <func_1+0x207a>
    f753:	48 8b 05 4e d6 01 00 	mov    0x1d64e(%rip),%rax        # 2cda8 <g_1478>
    f75a:	0f b7 00             	movzwl (%rax),%eax
    f75d:	0f b7 c0             	movzwl %ax,%eax
    f760:	89 c6                	mov    %eax,%esi
    f762:	bf ff ff 00 00       	mov    $0xffff,%edi
    f767:	e8 22 d6 ff ff       	callq  cd8e <safe_div_func_uint16_t_u_u>
    f76c:	48 8b 05 ad 90 01 00 	mov    0x190ad(%rip),%rax        # 28820 <g_1398>
    f773:	48 85 c0             	test   %rax,%rax
    f776:	75 25                	jne    f79d <func_1+0x1fe8>
    f778:	48 8b 15 31 8d 01 00 	mov    0x18d31(%rip),%rdx        # 284b0 <g_98+0x10>
    f77f:	8b 85 fc f8 ff ff    	mov    -0x704(%rbp),%eax
    f785:	35 13 31 a8 fc       	xor    $0xfca83113,%eax
    f78a:	89 85 fc f8 ff ff    	mov    %eax,-0x704(%rbp)
    f790:	8b 85 fc f8 ff ff    	mov    -0x704(%rbp),%eax
    f796:	48 98                	cltq   
    f798:	48 39 c2             	cmp    %rax,%rdx
    f79b:	7e 07                	jle    f7a4 <func_1+0x1fef>
    f79d:	b8 01 00 00 00       	mov    $0x1,%eax
    f7a2:	eb 05                	jmp    f7a9 <func_1+0x1ff4>
    f7a4:	b8 00 00 00 00       	mov    $0x0,%eax
    f7a9:	89 85 44 f6 ff ff    	mov    %eax,-0x9bc(%rbp)
    f7af:	8b 85 44 f6 ff ff    	mov    -0x9bc(%rbp),%eax
    f7b5:	48 ba 3f 73 f7 73 c9 	movabs $0x996baac973f7733f,%rdx
    f7bc:	aa 6b 99 
    f7bf:	48 31 c2             	xor    %rax,%rdx
    f7c2:	48 8b 05 ff ce 01 00 	mov    0x1ceff(%rip),%rax        # 2c6c8 <g_570>
    f7c9:	48 8b 00             	mov    (%rax),%rax
    f7cc:	48 8b 00             	mov    (%rax),%rax
    f7cf:	48 21 d0             	and    %rdx,%rax
    f7d2:	48 8b 15 47 90 01 00 	mov    0x19047(%rip),%rdx        # 28820 <g_1398>
    f7d9:	48 89 c6             	mov    %rax,%rsi
    f7dc:	48 89 d7             	mov    %rdx,%rdi
    f7df:	e8 9c d8 ff ff       	callq  d080 <safe_mod_func_uint64_t_u_u>
    f7e4:	48 8b 85 48 f7 ff ff 	mov    -0x8b8(%rbp),%rax
    f7eb:	48 8b 00             	mov    (%rax),%rax
    f7ee:	48 8d 50 ff          	lea    -0x1(%rax),%rdx
    f7f2:	48 8b 85 48 f7 ff ff 	mov    -0x8b8(%rbp),%rax
    f7f9:	48 89 10             	mov    %rdx,(%rax)
    f7fc:	48 8b 85 48 f7 ff ff 	mov    -0x8b8(%rbp),%rax
    f803:	48 8b 10             	mov    (%rax),%rdx
    f806:	48 8b 05 b3 ce 01 00 	mov    0x1ceb3(%rip),%rax        # 2c6c0 <g_571>
    f80d:	48 8b 00             	mov    (%rax),%rax
    f810:	48 b9 93 af 90 a5 3b 	movabs $0xef28153ba590af93,%rcx
    f817:	15 28 ef 
    f81a:	48 39 c8             	cmp    %rcx,%rax
    f81d:	0f 95 c0             	setne  %al
    f820:	0f b6 c0             	movzbl %al,%eax
    f823:	48 39 c2             	cmp    %rax,%rdx
    f826:	72 07                	jb     f82f <func_1+0x207a>
    f828:	b8 01 00 00 00       	mov    $0x1,%eax
    f82d:	eb 05                	jmp    f834 <func_1+0x207f>
    f82f:	b8 00 00 00 00       	mov    $0x0,%eax
    f834:	0f b7 c0             	movzwl %ax,%eax
    f837:	89 de                	mov    %ebx,%esi
    f839:	89 c7                	mov    %eax,%edi
    f83b:	e8 bf d4 ff ff       	callq  ccff <safe_add_func_uint16_t_u_u>
    f840:	0f b7 c0             	movzwl %ax,%eax
    f843:	89 85 38 f6 ff ff    	mov    %eax,-0x9c8(%rbp)
    f849:	83 ad 3c f6 ff ff 01 	subl   $0x1,-0x9c4(%rbp)
    f850:	c7 05 2e 8f 01 00 01 	movl   $0x1,0x18f2e(%rip)        # 28788 <g_519>
    f857:	00 00 00 
    f85a:	90                   	nop
    f85b:	8b 05 27 8f 01 00    	mov    0x18f27(%rip),%eax        # 28788 <g_519>
    f861:	85 c0                	test   %eax,%eax
    f863:	0f 89 f7 00 00 00    	jns    f960 <func_1+0x21ab>
    f869:	e9 8e 01 00 00       	jmpq   f9fc <func_1+0x2247>
    f86e:	48 c7 05 77 8c 01 00 	movq   $0x0,0x18c77(%rip)        # 284f0 <g_146+0x10>
    f875:	00 00 00 00 
    f879:	90                   	nop
    f87a:	48 8b 05 6f 8c 01 00 	mov    0x18c6f(%rip),%rax        # 284f0 <g_146+0x10>
    f881:	48 83 f8 01          	cmp    $0x1,%rax
    f885:	0f 8f 8a 00 00 00    	jg     f915 <func_1+0x2160>
    f88b:	48 c7 85 d0 f8 ff ff 	movq   $0x1,-0x730(%rbp)
    f892:	01 00 00 00 
    f896:	48 c7 85 d8 f8 ff ff 	movq   $0x9,-0x728(%rbp)
    f89d:	09 00 00 00 
    f8a1:	48 c7 85 e0 f8 ff ff 	movq   $0x1,-0x720(%rbp)
    f8a8:	01 00 00 00 
    f8ac:	c7 85 e8 f8 ff ff ff 	movl   $0xffffffff,-0x718(%rbp)
    f8b3:	ff ff ff 
    f8b6:	48 c7 85 ec f8 ff ff 	movq   $0x9,-0x714(%rbp)
    f8bd:	09 00 00 00 
    f8c1:	66 c7 85 f4 f8 ff ff 	movw   $0xfff9,-0x70c(%rbp)
    f8c8:	f9 ff 
    f8ca:	48 8b 85 c8 f5 ff ff 	mov    -0xa38(%rbp),%rax
    f8d1:	48 8b 8d d0 f8 ff ff 	mov    -0x730(%rbp),%rcx
    f8d8:	48 8b 9d d8 f8 ff ff 	mov    -0x728(%rbp),%rbx
    f8df:	48 89 08             	mov    %rcx,(%rax)
    f8e2:	48 89 58 08          	mov    %rbx,0x8(%rax)
    f8e6:	48 8b 8d e0 f8 ff ff 	mov    -0x720(%rbp),%rcx
    f8ed:	48 8b 9d e8 f8 ff ff 	mov    -0x718(%rbp),%rbx
    f8f4:	48 89 48 10          	mov    %rcx,0x10(%rax)
    f8f8:	48 89 58 18          	mov    %rbx,0x18(%rax)
    f8fc:	8b 95 f0 f8 ff ff    	mov    -0x710(%rbp),%edx
    f902:	89 50 20             	mov    %edx,0x20(%rax)
    f905:	0f b7 95 f4 f8 ff ff 	movzwl -0x70c(%rbp),%edx
    f90c:	66 89 50 24          	mov    %dx,0x24(%rax)
    f910:	e9 e8 0f 00 00       	jmpq   108fd <func_1+0x3148>
    f915:	48 8b 85 c8 f5 ff ff 	mov    -0xa38(%rbp),%rax
    f91c:	48 8b 8d a0 f8 ff ff 	mov    -0x760(%rbp),%rcx
    f923:	48 8b 9d a8 f8 ff ff 	mov    -0x758(%rbp),%rbx
    f92a:	48 89 08             	mov    %rcx,(%rax)
    f92d:	48 89 58 08          	mov    %rbx,0x8(%rax)
    f931:	48 8b 8d b0 f8 ff ff 	mov    -0x750(%rbp),%rcx
    f938:	48 8b 9d b8 f8 ff ff 	mov    -0x748(%rbp),%rbx
    f93f:	48 89 48 10          	mov    %rcx,0x10(%rax)
    f943:	48 89 58 18          	mov    %rbx,0x18(%rax)
    f947:	8b 95 c0 f8 ff ff    	mov    -0x740(%rbp),%edx
    f94d:	89 50 20             	mov    %edx,0x20(%rax)
    f950:	0f b7 95 c4 f8 ff ff 	movzwl -0x73c(%rbp),%edx
    f957:	66 89 50 24          	mov    %dx,0x24(%rax)
    f95b:	e9 9d 0f 00 00       	jmpq   108fd <func_1+0x3148>
    f960:	48 b8 1f e4 73 8e cb 	movabs $0xc624f4cb8e73e41f,%rax
    f967:	f4 24 c6 
    f96a:	48 89 85 d0 f8 ff ff 	mov    %rax,-0x730(%rbp)
    f971:	48 c7 85 d8 f8 ff ff 	movq   $0xfffffffffffffff8,-0x728(%rbp)
    f978:	f8 ff ff ff 
    f97c:	48 b8 92 26 a7 c3 79 	movabs $0x39f64879c3a72692,%rax
    f983:	48 f6 39 
    f986:	48 89 85 e0 f8 ff ff 	mov    %rax,-0x720(%rbp)
    f98d:	c7 85 e8 f8 ff ff ba 	movl   $0x3efa71ba,-0x718(%rbp)
    f994:	71 fa 3e 
    f997:	48 b8 66 e1 ff b8 ee 	movabs $0x3ab5b0eeb8ffe166,%rax
    f99e:	b0 b5 3a 
    f9a1:	48 89 85 ec f8 ff ff 	mov    %rax,-0x714(%rbp)
    f9a8:	66 c7 85 f4 f8 ff ff 	movw   $0x1,-0x70c(%rbp)
    f9af:	01 00 
    f9b1:	48 8b 85 c8 f5 ff ff 	mov    -0xa38(%rbp),%rax
    f9b8:	48 8b 8d d0 f8 ff ff 	mov    -0x730(%rbp),%rcx
    f9bf:	48 8b 9d d8 f8 ff ff 	mov    -0x728(%rbp),%rbx
    f9c6:	48 89 08             	mov    %rcx,(%rax)
    f9c9:	48 89 58 08          	mov    %rbx,0x8(%rax)
    f9cd:	48 8b 8d e0 f8 ff ff 	mov    -0x720(%rbp),%rcx
    f9d4:	48 8b 9d e8 f8 ff ff 	mov    -0x718(%rbp),%rbx
    f9db:	48 89 48 10          	mov    %rcx,0x10(%rax)
    f9df:	48 89 58 18          	mov    %rbx,0x18(%rax)
    f9e3:	8b 95 f0 f8 ff ff    	mov    -0x710(%rbp),%edx
    f9e9:	89 50 20             	mov    %edx,0x20(%rax)
    f9ec:	0f b7 95 f4 f8 ff ff 	movzwl -0x70c(%rbp),%edx
    f9f3:	66 89 50 24          	mov    %dx,0x24(%rax)
    f9f7:	e9 01 0f 00 00       	jmpq   108fd <func_1+0x3148>
    f9fc:	66 c7 05 d3 8a 01 00 	movw   $0x0,0x18ad3(%rip)        # 284d8 <g_130>
    fa03:	00 00 
    fa05:	eb 2d                	jmp    fa34 <func_1+0x227f>
    fa07:	48 8b 05 52 d3 01 00 	mov    0x1d352(%rip),%rax        # 2cd60 <g_965>
    fa0e:	48 8b 00             	mov    (%rax),%rax
    fa11:	8b 15 11 90 01 00    	mov    0x19011(%rip),%edx        # 28a28 <g_2631>
    fa17:	89 10                	mov    %edx,(%rax)
    fa19:	0f b7 05 b8 8a 01 00 	movzwl 0x18ab8(%rip),%eax        # 284d8 <g_130>
    fa20:	98                   	cwtl   
    fa21:	be 08 00 00 00       	mov    $0x8,%esi
    fa26:	89 c7                	mov    %eax,%edi
    fa28:	e8 89 cb ff ff       	callq  c5b6 <safe_add_func_int32_t_s_s>
    fa2d:	66 89 05 a4 8a 01 00 	mov    %ax,0x18aa4(%rip)        # 284d8 <g_130>
    fa34:	0f b7 05 9d 8a 01 00 	movzwl 0x18a9d(%rip),%eax        # 284d8 <g_130>
    fa3b:	66 85 c0             	test   %ax,%ax
    fa3e:	75 c7                	jne    fa07 <func_1+0x2252>
    fa40:	e9 41 0e 00 00       	jmpq   10886 <func_1+0x30d1>
    fa45:	48 8d 05 84 d5 01 00 	lea    0x1d584(%rip),%rax        # 2cfd0 <g_2632>
    fa4c:	48 89 85 28 f7 ff ff 	mov    %rax,-0x8d8(%rbp)
    fa53:	66 c7 85 e2 f5 ff ff 	movw   $0x1,-0xa1e(%rbp)
    fa5a:	01 00 
    fa5c:	48 b8 6d 6d 6d 6d 6d 	movabs $0x6d6d6d6d6d6d6d6d,%rax
    fa63:	6d 6d 6d 
    fa66:	48 89 45 bf          	mov    %rax,-0x41(%rbp)
    fa6a:	c6 45 c7 6d          	movb   $0x6d,-0x39(%rbp)
    fa6e:	48 8d 05 93 cb 01 00 	lea    0x1cb93(%rip),%rax        # 2c608 <g_277>
    fa75:	48 89 85 30 f7 ff ff 	mov    %rax,-0x8d0(%rbp)
    fa7c:	66 c7 85 e4 f5 ff ff 	movw   $0x781e,-0xa1c(%rbp)
    fa83:	1e 78 
    fa85:	48 8d 05 d4 d2 01 00 	lea    0x1d2d4(%rip),%rax        # 2cd60 <g_965>
    fa8c:	48 89 85 b8 f6 ff ff 	mov    %rax,-0x948(%rbp)
    fa93:	48 8d 85 f4 f5 ff ff 	lea    -0xa0c(%rbp),%rax
    fa9a:	48 89 85 38 f7 ff ff 	mov    %rax,-0x8c8(%rbp)
    faa1:	c7 85 1c f6 ff ff 00 	movl   $0x0,-0x9e4(%rbp)
    faa8:	00 00 00 
    faab:	eb 1e                	jmp    facb <func_1+0x2316>
    faad:	8b 85 1c f6 ff ff    	mov    -0x9e4(%rbp),%eax
    fab3:	48 98                	cltq   
    fab5:	48 8d 95 b8 f6 ff ff 	lea    -0x948(%rbp),%rdx
    fabc:	48 89 94 c5 50 f9 ff 	mov    %rdx,-0x6b0(%rbp,%rax,8)
    fac3:	ff 
    fac4:	83 85 1c f6 ff ff 01 	addl   $0x1,-0x9e4(%rbp)
    facb:	83 bd 1c f6 ff ff 01 	cmpl   $0x1,-0x9e4(%rbp)
    fad2:	7e d9                	jle    faad <func_1+0x22f8>
    fad4:	c7 85 1c f6 ff ff 00 	movl   $0x0,-0x9e4(%rbp)
    fadb:	00 00 00 
    fade:	eb 1e                	jmp    fafe <func_1+0x2349>
    fae0:	8b 85 1c f6 ff ff    	mov    -0x9e4(%rbp),%eax
    fae6:	48 98                	cltq   
    fae8:	48 8d 95 ec f5 ff ff 	lea    -0xa14(%rbp),%rdx
    faef:	48 89 94 c5 c0 f9 ff 	mov    %rdx,-0x640(%rbp,%rax,8)
    faf6:	ff 
    faf7:	83 85 1c f6 ff ff 01 	addl   $0x1,-0x9e4(%rbp)
    fafe:	83 bd 1c f6 ff ff 03 	cmpl   $0x3,-0x9e4(%rbp)
    fb05:	7e d9                	jle    fae0 <func_1+0x232b>
    fb07:	48 8b 15 c2 d4 01 00 	mov    0x1d4c2(%rip),%rdx        # 2cfd0 <g_2632>
    fb0e:	48 8b 85 28 f7 ff ff 	mov    -0x8d8(%rbp),%rax
    fb15:	48 89 10             	mov    %rdx,(%rax)
    fb18:	48 8b 85 28 f7 ff ff 	mov    -0x8d8(%rbp),%rax
    fb1f:	48 8b 00             	mov    (%rax),%rax
    fb22:	48 8d 15 57 d2 01 00 	lea    0x1d257(%rip),%rdx        # 2cd80 <g_1221>
    fb29:	48 39 d0             	cmp    %rdx,%rax
    fb2c:	0f bf 85 e2 f5 ff ff 	movswl -0xa1e(%rbp),%eax
    fb33:	be 05 00 00 00       	mov    $0x5,%esi
    fb38:	89 c7                	mov    %eax,%edi
    fb3a:	e8 53 c9 ff ff       	callq  c492 <safe_lshift_func_int16_t_s_s>
    fb3f:	0f be c0             	movsbl %al,%eax
    fb42:	be 1a 00 00 00       	mov    $0x1a,%esi
    fb47:	89 c7                	mov    %eax,%edi
    fb49:	e8 c4 c6 ff ff       	callq  c212 <safe_mul_func_int8_t_s_s>
    fb4e:	0f be c0             	movsbl %al,%eax
    fb51:	be 90 6f 00 00       	mov    $0x6f90,%esi
    fb56:	89 c7                	mov    %eax,%edi
    fb58:	e8 56 c8 ff ff       	callq  c3b3 <safe_add_func_int16_t_s_s>
    fb5d:	89 c1                	mov    %eax,%ecx
    fb5f:	48 8d 85 a0 f6 ff ff 	lea    -0x960(%rbp),%rax
    fb66:	48 39 85 f8 f6 ff ff 	cmp    %rax,-0x908(%rbp)
    fb6d:	0f 95 c0             	setne  %al
    fb70:	0f b6 d0             	movzbl %al,%edx
    fb73:	48 8b 85 b0 f8 ff ff 	mov    -0x750(%rbp),%rax
    fb7a:	48 09 c2             	or     %rax,%rdx
    fb7d:	0f b6 45 c1          	movzbl -0x3f(%rbp),%eax
    fb81:	0f b6 c0             	movzbl %al,%eax
    fb84:	48 31 d0             	xor    %rdx,%rax
    fb87:	48 89 c2             	mov    %rax,%rdx
    fb8a:	48 b8 8f 51 ff e9 22 	movabs $0x1c15b222e9ff518f,%rax
    fb91:	b2 15 1c 
    fb94:	48 21 c2             	and    %rax,%rdx
    fb97:	48 b8 ac 32 be 9b 0a 	movabs $0xb9c5e20a9bbe32ac,%rax
    fb9e:	e2 c5 b9 
    fba1:	48 39 c2             	cmp    %rax,%rdx
    fba4:	0f 96 c0             	setbe  %al
    fba7:	31 c8                	xor    %ecx,%eax
    fba9:	0f b6 c0             	movzbl %al,%eax
    fbac:	be 02 00 00 00       	mov    $0x2,%esi
    fbb1:	89 c7                	mov    %eax,%edi
    fbb3:	e8 4d d0 ff ff       	callq  cc05 <safe_lshift_func_uint8_t_u_s>
    fbb8:	0f be c0             	movsbl %al,%eax
    fbbb:	89 c6                	mov    %eax,%esi
    fbbd:	bf fe ff ff ff       	mov    $0xfffffffe,%edi
    fbc2:	e8 0d c6 ff ff       	callq  c1d4 <safe_add_func_int8_t_s_s>
    fbc7:	0f be c0             	movsbl %al,%eax
    fbca:	89 c6                	mov    %eax,%esi
    fbcc:	bf 7f ff 5b ff       	mov    $0xff5bff7f,%edi
    fbd1:	e8 2f ca ff ff       	callq  c605 <safe_sub_func_int32_t_s_s>
    fbd6:	48 8b 85 a8 f8 ff ff 	mov    -0x758(%rbp),%rax
    fbdd:	48 85 c0             	test   %rax,%rax
    fbe0:	0f 84 5b 02 00 00    	je     fe41 <func_1+0x268c>
    fbe6:	48 b8 52 28 0d 7d 5b 	movabs $0x32c9635b7d0d2852,%rax
    fbed:	63 c9 32 
    fbf0:	48 89 85 d0 f8 ff ff 	mov    %rax,-0x730(%rbp)
    fbf7:	48 b8 62 4b 0a dc f2 	movabs $0xa33554f2dc0a4b62,%rax
    fbfe:	54 35 a3 
    fc01:	48 89 85 d8 f8 ff ff 	mov    %rax,-0x728(%rbp)
    fc08:	48 b8 dc 47 c0 f3 89 	movabs $0x22292189f3c047dc,%rax
    fc0f:	21 29 22 
    fc12:	48 89 85 e0 f8 ff ff 	mov    %rax,-0x720(%rbp)
    fc19:	c7 85 e8 f8 ff ff b3 	movl   $0x5a2f7db3,-0x718(%rbp)
    fc20:	7d 2f 5a 
    fc23:	48 c7 85 ec f8 ff ff 	movq   $0xfffffffffffffff8,-0x714(%rbp)
    fc2a:	f8 ff ff ff 
    fc2e:	66 c7 85 f4 f8 ff ff 	movw   $0xffff,-0x70c(%rbp)
    fc35:	ff ff 
    fc37:	48 8d 85 80 f6 ff ff 	lea    -0x980(%rbp),%rax
    fc3e:	48 89 85 40 f7 ff ff 	mov    %rax,-0x8c0(%rbp)
    fc45:	48 8d 85 40 fa ff ff 	lea    -0x5c0(%rbp),%rax
    fc4c:	48 8d 15 ed 8d 01 00 	lea    0x18ded(%rip),%rdx        # 28a40 <g_2631+0x18>
    fc53:	b9 3f 00 00 00       	mov    $0x3f,%ecx
    fc58:	48 89 c7             	mov    %rax,%rdi
    fc5b:	48 89 d6             	mov    %rdx,%rsi
    fc5e:	f3 48 a5             	rep movsq %ds:(%rsi),%es:(%rdi)
    fc61:	0f bf 9d e4 f5 ff ff 	movswl -0xa1c(%rbp),%ebx
    fc68:	48 8b 05 79 ca 01 00 	mov    0x1ca79(%rip),%rax        # 2c6e8 <g_744>
    fc6f:	0f b7 00             	movzwl (%rax),%eax
    fc72:	44 0f b7 e0          	movzwl %ax,%r12d
    fc76:	44 0f b6 6d c1       	movzbl -0x3f(%rbp),%r13d
    fc7b:	0f b7 05 22 8d 01 00 	movzwl 0x18d22(%rip),%eax        # 289a4 <g_1687+0x4>
    fc82:	0f b6 c0             	movzbl %al,%eax
    fc85:	be 01 00 00 00       	mov    $0x1,%esi
    fc8a:	89 c7                	mov    %eax,%edi
    fc8c:	e8 2d d0 ff ff       	callq  ccbe <safe_rshift_func_uint8_t_u_u>
    fc91:	41 38 c5             	cmp    %al,%r13b
    fc94:	0f 95 c0             	setne  %al
    fc97:	0f b6 c0             	movzbl %al,%eax
    fc9a:	44 89 e6             	mov    %r12d,%esi
    fc9d:	89 c7                	mov    %eax,%edi
    fc9f:	e8 7b d0 ff ff       	callq  cd1f <safe_sub_func_uint16_t_u_u>
    fca4:	89 c2                	mov    %eax,%edx
    fca6:	48 8b 05 1b ca 01 00 	mov    0x1ca1b(%rip),%rax        # 2c6c8 <g_570>
    fcad:	48 8b 00             	mov    (%rax),%rax
    fcb0:	0f b7 d2             	movzwl %dx,%edx
    fcb3:	48 89 10             	mov    %rdx,(%rax)
    fcb6:	48 8b 00             	mov    (%rax),%rax
    fcb9:	48 89 c1             	mov    %rax,%rcx
    fcbc:	48 8b 85 40 f7 ff ff 	mov    -0x8c0(%rbp),%rax
    fcc3:	48 8d 15 3e c9 01 00 	lea    0x1c93e(%rip),%rdx        # 2c608 <g_277>
    fcca:	48 89 10             	mov    %rdx,(%rax)
    fccd:	48 8b 85 40 f7 ff ff 	mov    -0x8c0(%rbp),%rax
    fcd4:	48 8b 00             	mov    (%rax),%rax
    fcd7:	48 39 85 30 f7 ff ff 	cmp    %rax,-0x8d0(%rbp)
    fcde:	0f 95 c0             	setne  %al
    fce1:	0f b6 c0             	movzbl %al,%eax
    fce4:	48 89 ce             	mov    %rcx,%rsi
    fce7:	48 89 c7             	mov    %rax,%rdi
    fcea:	e8 5c d3 ff ff       	callq  d04b <safe_sub_func_uint64_t_u_u>
    fcef:	0f be c0             	movsbl %al,%eax
    fcf2:	89 de                	mov    %ebx,%esi
    fcf4:	89 c7                	mov    %eax,%edi
    fcf6:	e8 f3 c5 ff ff       	callq  c2ee <safe_lshift_func_int8_t_s_u>
    fcfb:	89 c2                	mov    %eax,%edx
    fcfd:	48 8b 85 68 f6 ff ff 	mov    -0x998(%rbp),%rax
    fd04:	88 10                	mov    %dl,(%rax)
    fd06:	0f b6 00             	movzbl (%rax),%eax
    fd09:	0f b6 d0             	movzbl %al,%edx
    fd0c:	48 8b 05 bd d0 01 00 	mov    0x1d0bd(%rip),%rax        # 2cdd0 <g_1730>
    fd13:	48 8b 00             	mov    (%rax),%rax
    fd16:	0f b6 00             	movzbl (%rax),%eax
    fd19:	0f b6 c0             	movzbl %al,%eax
    fd1c:	89 d6                	mov    %edx,%esi
    fd1e:	89 c7                	mov    %eax,%edi
    fd20:	e8 6e ce ff ff       	callq  cb93 <safe_mul_func_uint8_t_u_u>
    fd25:	0f b7 85 e2 f5 ff ff 	movzwl -0xa1e(%rbp),%eax
    fd2c:	0f be d0             	movsbl %al,%edx
    fd2f:	0f b7 85 c4 f8 ff ff 	movzwl -0x73c(%rbp),%eax
    fd36:	0f be c0             	movsbl %al,%eax
    fd39:	89 d6                	mov    %edx,%esi
    fd3b:	89 c7                	mov    %eax,%edi
    fd3d:	e8 28 c5 ff ff       	callq  c26a <safe_div_func_int8_t_s_s>
    fd42:	84 c0                	test   %al,%al
    fd44:	75 0f                	jne    fd55 <func_1+0x25a0>
    fd46:	48 8b 05 13 88 01 00 	mov    0x18813(%rip),%rax        # 28560 <g_365+0x40>
    fd4d:	c1 e0 03             	shl    $0x3,%eax
    fd50:	c0 f8 03             	sar    $0x3,%al
    fd53:	84 c0                	test   %al,%al
    fd55:	48 8b 95 d0 f8 ff ff 	mov    -0x730(%rbp),%rdx
    fd5c:	48 8b 85 d8 f8 ff ff 	mov    -0x728(%rbp),%rax
    fd63:	48 39 c2             	cmp    %rax,%rdx
    fd66:	0f 92 c0             	setb   %al
    fd69:	0f b6 d0             	movzbl %al,%edx
    fd6c:	48 8b 85 d0 f8 ff ff 	mov    -0x730(%rbp),%rax
    fd73:	48 21 d0             	and    %rdx,%rax
    fd76:	48 85 c0             	test   %rax,%rax
    fd79:	74 07                	je     fd82 <func_1+0x25cd>
    fd7b:	b8 01 00 00 00       	mov    $0x1,%eax
    fd80:	eb 05                	jmp    fd87 <func_1+0x25d2>
    fd82:	b8 00 00 00 00       	mov    $0x0,%eax
    fd87:	98                   	cwtl   
    fd88:	be 48 3e 00 00       	mov    $0x3e48,%esi
    fd8d:	89 c7                	mov    %eax,%edi
    fd8f:	e8 61 c6 ff ff       	callq  c3f5 <safe_mul_func_int16_t_s_s>
    fd94:	b9 01 00 00 00       	mov    $0x1,%ecx
    fd99:	48 8b 05 a0 c8 01 00 	mov    0x1c8a0(%rip),%rax        # 2c640 <g_460>
    fda0:	8b 10                	mov    (%rax),%edx
    fda2:	48 8b 05 97 c8 01 00 	mov    0x1c897(%rip),%rax        # 2c640 <g_460>
    fda9:	31 ca                	xor    %ecx,%edx
    fdab:	89 10                	mov    %edx,(%rax)
    fdad:	0f b7 05 50 87 01 00 	movzwl 0x18750(%rip),%eax        # 28504 <g_146+0x24>
    fdb4:	66 85 c0             	test   %ax,%ax
    fdb7:	90                   	nop
    fdb8:	f3 0f 1e fa          	endbr64 
    fdbc:	8b 85 48 f9 ff ff    	mov    -0x6b8(%rbp),%eax
    fdc2:	0f bf d0             	movswl %ax,%edx
    fdc5:	66 81 bd e2 f5 ff ff 	cmpw   $0x82,-0xa1e(%rbp)
    fdcc:	82 00 
    fdce:	0f 9f c0             	setg   %al
    fdd1:	0f b6 c0             	movzbl %al,%eax
    fdd4:	89 d6                	mov    %edx,%esi
    fdd6:	89 c7                	mov    %eax,%edi
    fdd8:	e8 f6 c5 ff ff       	callq  c3d3 <safe_sub_func_int16_t_s_s>
    fddd:	0f b6 d0             	movzbl %al,%edx
    fde0:	48 8b 8d b0 f8 ff ff 	mov    -0x750(%rbp),%rcx
    fde7:	48 8b 05 52 c8 01 00 	mov    0x1c852(%rip),%rax        # 2c640 <g_460>
    fdee:	89 08                	mov    %ecx,(%rax)
    fdf0:	8b 00                	mov    (%rax),%eax
    fdf2:	83 f8 01             	cmp    $0x1,%eax
    fdf5:	0f 95 c1             	setne  %cl
    fdf8:	48 8b 05 c9 d1 01 00 	mov    0x1d1c9(%rip),%rax        # 2cfc8 <g_2633>
    fdff:	0f b6 c9             	movzbl %cl,%ecx
    fe02:	89 08                	mov    %ecx,(%rax)
    fe04:	48 8b 85 f8 fb ff ff 	mov    -0x408(%rbp),%rax
    fe0b:	48 85 c0             	test   %rax,%rax
    fe0e:	0f 95 c0             	setne  %al
    fe11:	0f b6 c0             	movzbl %al,%eax
    fe14:	89 d6                	mov    %edx,%esi
    fe16:	89 c7                	mov    %eax,%edi
    fe18:	e8 76 cd ff ff       	callq  cb93 <safe_mul_func_uint8_t_u_u>
    fe1d:	48 8b 05 8c cf 01 00 	mov    0x1cf8c(%rip),%rax        # 2cdb0 <g_1615>
    fe24:	c7 00 01 00 00 00    	movl   $0x1,(%rax)
    fe2a:	48 8b 05 2f cf 01 00 	mov    0x1cf2f(%rip),%rax        # 2cd60 <g_965>
    fe31:	48 8b 00             	mov    (%rax),%rax
    fe34:	8b 15 be d6 01 00    	mov    0x1d6be(%rip),%edx        # 2d4f8 <g_2674>
    fe3a:	89 10                	mov    %edx,(%rax)
    fe3c:	e9 14 0a 00 00       	jmpq   10855 <func_1+0x30a0>
    fe41:	c7 85 34 f6 ff ff ea 	movl   $0xa5d201ea,-0x9cc(%rbp)
    fe48:	01 d2 a5 
    fe4b:	48 8d 05 a6 cf 01 00 	lea    0x1cfa6(%rip),%rax        # 2cdf8 <g_1916>
    fe52:	48 89 85 40 fa ff ff 	mov    %rax,-0x5c0(%rbp)
    fe59:	48 8d 85 88 f6 ff ff 	lea    -0x978(%rbp),%rax
    fe60:	48 89 85 48 fa ff ff 	mov    %rax,-0x5b8(%rbp)
    fe67:	48 8d 05 8a cf 01 00 	lea    0x1cf8a(%rip),%rax        # 2cdf8 <g_1916>
    fe6e:	48 89 85 50 fa ff ff 	mov    %rax,-0x5b0(%rbp)
    fe75:	48 8d 85 88 f6 ff ff 	lea    -0x978(%rbp),%rax
    fe7c:	48 89 85 58 fa ff ff 	mov    %rax,-0x5a8(%rbp)
    fe83:	48 8d 05 6e cf 01 00 	lea    0x1cf6e(%rip),%rax        # 2cdf8 <g_1916>
    fe8a:	48 89 85 60 fa ff ff 	mov    %rax,-0x5a0(%rbp)
    fe91:	48 8d 85 88 f6 ff ff 	lea    -0x978(%rbp),%rax
    fe98:	48 89 85 68 fa ff ff 	mov    %rax,-0x598(%rbp)
    fe9f:	48 8d 05 52 cf 01 00 	lea    0x1cf52(%rip),%rax        # 2cdf8 <g_1916>
    fea6:	48 89 85 70 fa ff ff 	mov    %rax,-0x590(%rbp)
    fead:	48 8d 05 44 cf 01 00 	lea    0x1cf44(%rip),%rax        # 2cdf8 <g_1916>
    feb4:	48 89 85 78 fa ff ff 	mov    %rax,-0x588(%rbp)
    febb:	48 8d 05 36 cf 01 00 	lea    0x1cf36(%rip),%rax        # 2cdf8 <g_1916>
    fec2:	48 89 85 80 fa ff ff 	mov    %rax,-0x580(%rbp)
    fec9:	48 8d 05 28 cf 01 00 	lea    0x1cf28(%rip),%rax        # 2cdf8 <g_1916>
    fed0:	48 89 85 88 fa ff ff 	mov    %rax,-0x578(%rbp)
    fed7:	48 8d 05 1a cf 01 00 	lea    0x1cf1a(%rip),%rax        # 2cdf8 <g_1916>
    fede:	48 89 85 90 fa ff ff 	mov    %rax,-0x570(%rbp)
    fee5:	48 8d 05 0c cf 01 00 	lea    0x1cf0c(%rip),%rax        # 2cdf8 <g_1916>
    feec:	48 89 85 98 fa ff ff 	mov    %rax,-0x568(%rbp)
    fef3:	48 8d 05 fe ce 01 00 	lea    0x1cefe(%rip),%rax        # 2cdf8 <g_1916>
    fefa:	48 89 85 a0 fa ff ff 	mov    %rax,-0x560(%rbp)
    ff01:	48 8d 05 f0 ce 01 00 	lea    0x1cef0(%rip),%rax        # 2cdf8 <g_1916>
    ff08:	48 89 85 a8 fa ff ff 	mov    %rax,-0x558(%rbp)
    ff0f:	48 8d 05 e2 ce 01 00 	lea    0x1cee2(%rip),%rax        # 2cdf8 <g_1916>
    ff16:	48 89 85 b0 fa ff ff 	mov    %rax,-0x550(%rbp)
    ff1d:	48 8d 85 88 f6 ff ff 	lea    -0x978(%rbp),%rax
    ff24:	48 89 85 b8 fa ff ff 	mov    %rax,-0x548(%rbp)
    ff2b:	48 8d 85 88 f6 ff ff 	lea    -0x978(%rbp),%rax
    ff32:	48 89 85 c0 fa ff ff 	mov    %rax,-0x540(%rbp)
    ff39:	48 8d 85 88 f6 ff ff 	lea    -0x978(%rbp),%rax
    ff40:	48 89 85 c8 fa ff ff 	mov    %rax,-0x538(%rbp)
    ff47:	48 8d 05 aa ce 01 00 	lea    0x1ceaa(%rip),%rax        # 2cdf8 <g_1916>
    ff4e:	48 89 85 d0 fa ff ff 	mov    %rax,-0x530(%rbp)
    ff55:	48 8d 85 88 f6 ff ff 	lea    -0x978(%rbp),%rax
    ff5c:	48 89 85 d8 fa ff ff 	mov    %rax,-0x528(%rbp)
    ff63:	48 8d 85 88 f6 ff ff 	lea    -0x978(%rbp),%rax
    ff6a:	48 89 85 e0 fa ff ff 	mov    %rax,-0x520(%rbp)
    ff71:	48 8d 05 80 ce 01 00 	lea    0x1ce80(%rip),%rax        # 2cdf8 <g_1916>
    ff78:	48 89 85 e8 fa ff ff 	mov    %rax,-0x518(%rbp)
    ff7f:	48 8d 05 72 ce 01 00 	lea    0x1ce72(%rip),%rax        # 2cdf8 <g_1916>
    ff86:	48 89 85 f0 fa ff ff 	mov    %rax,-0x510(%rbp)
    ff8d:	48 8d 05 64 ce 01 00 	lea    0x1ce64(%rip),%rax        # 2cdf8 <g_1916>
    ff94:	48 89 85 f8 fa ff ff 	mov    %rax,-0x508(%rbp)
    ff9b:	48 8d 05 56 ce 01 00 	lea    0x1ce56(%rip),%rax        # 2cdf8 <g_1916>
    ffa2:	48 89 85 00 fb ff ff 	mov    %rax,-0x500(%rbp)
    ffa9:	48 8d 05 48 ce 01 00 	lea    0x1ce48(%rip),%rax        # 2cdf8 <g_1916>
    ffb0:	48 89 85 08 fb ff ff 	mov    %rax,-0x4f8(%rbp)
    ffb7:	48 8d 05 3a ce 01 00 	lea    0x1ce3a(%rip),%rax        # 2cdf8 <g_1916>
    ffbe:	48 89 85 10 fb ff ff 	mov    %rax,-0x4f0(%rbp)
    ffc5:	48 8d 05 2c ce 01 00 	lea    0x1ce2c(%rip),%rax        # 2cdf8 <g_1916>
    ffcc:	48 89 85 18 fb ff ff 	mov    %rax,-0x4e8(%rbp)
    ffd3:	48 8d 05 1e ce 01 00 	lea    0x1ce1e(%rip),%rax        # 2cdf8 <g_1916>
    ffda:	48 89 85 20 fb ff ff 	mov    %rax,-0x4e0(%rbp)
    ffe1:	48 8d 85 88 f6 ff ff 	lea    -0x978(%rbp),%rax
    ffe8:	48 89 85 28 fb ff ff 	mov    %rax,-0x4d8(%rbp)
    ffef:	48 8d 05 02 ce 01 00 	lea    0x1ce02(%rip),%rax        # 2cdf8 <g_1916>
    fff6:	48 89 85 30 fb ff ff 	mov    %rax,-0x4d0(%rbp)
    fffd:	48 8d 85 88 f6 ff ff 	lea    -0x978(%rbp),%rax
   10004:	48 89 85 38 fb ff ff 	mov    %rax,-0x4c8(%rbp)
   1000b:	48 8d 05 e6 cd 01 00 	lea    0x1cde6(%rip),%rax        # 2cdf8 <g_1916>
   10012:	48 89 85 40 fb ff ff 	mov    %rax,-0x4c0(%rbp)
   10019:	48 8d 85 88 f6 ff ff 	lea    -0x978(%rbp),%rax
   10020:	48 89 85 48 fb ff ff 	mov    %rax,-0x4b8(%rbp)
   10027:	48 8d 05 ca cd 01 00 	lea    0x1cdca(%rip),%rax        # 2cdf8 <g_1916>
   1002e:	48 89 85 50 fb ff ff 	mov    %rax,-0x4b0(%rbp)
   10035:	48 8d 05 bc cd 01 00 	lea    0x1cdbc(%rip),%rax        # 2cdf8 <g_1916>
   1003c:	48 89 85 58 fb ff ff 	mov    %rax,-0x4a8(%rbp)
   10043:	48 8d 05 ae cd 01 00 	lea    0x1cdae(%rip),%rax        # 2cdf8 <g_1916>
   1004a:	48 89 85 60 fb ff ff 	mov    %rax,-0x4a0(%rbp)
   10051:	48 8d 05 a0 cd 01 00 	lea    0x1cda0(%rip),%rax        # 2cdf8 <g_1916>
   10058:	48 89 85 68 fb ff ff 	mov    %rax,-0x498(%rbp)
   1005f:	48 8d 05 92 cd 01 00 	lea    0x1cd92(%rip),%rax        # 2cdf8 <g_1916>
   10066:	48 89 85 70 fb ff ff 	mov    %rax,-0x490(%rbp)
   1006d:	48 8d 05 84 cd 01 00 	lea    0x1cd84(%rip),%rax        # 2cdf8 <g_1916>
   10074:	48 89 85 78 fb ff ff 	mov    %rax,-0x488(%rbp)
   1007b:	48 8d 05 76 cd 01 00 	lea    0x1cd76(%rip),%rax        # 2cdf8 <g_1916>
   10082:	48 89 85 80 fb ff ff 	mov    %rax,-0x480(%rbp)
   10089:	48 8d 05 68 cd 01 00 	lea    0x1cd68(%rip),%rax        # 2cdf8 <g_1916>
   10090:	48 89 85 88 fb ff ff 	mov    %rax,-0x478(%rbp)
   10097:	48 8d 05 5a cd 01 00 	lea    0x1cd5a(%rip),%rax        # 2cdf8 <g_1916>
   1009e:	48 89 85 90 fb ff ff 	mov    %rax,-0x470(%rbp)
   100a5:	48 8d 85 88 f6 ff ff 	lea    -0x978(%rbp),%rax
   100ac:	48 89 85 98 fb ff ff 	mov    %rax,-0x468(%rbp)
   100b3:	48 8d 85 88 f6 ff ff 	lea    -0x978(%rbp),%rax
   100ba:	48 89 85 a0 fb ff ff 	mov    %rax,-0x460(%rbp)
   100c1:	48 8d 85 88 f6 ff ff 	lea    -0x978(%rbp),%rax
   100c8:	48 89 85 a8 fb ff ff 	mov    %rax,-0x458(%rbp)
   100cf:	48 8d 05 22 cd 01 00 	lea    0x1cd22(%rip),%rax        # 2cdf8 <g_1916>
   100d6:	48 89 85 b0 fb ff ff 	mov    %rax,-0x450(%rbp)
   100dd:	48 8d 85 88 f6 ff ff 	lea    -0x978(%rbp),%rax
   100e4:	48 89 85 b8 fb ff ff 	mov    %rax,-0x448(%rbp)
   100eb:	48 8d 85 88 f6 ff ff 	lea    -0x978(%rbp),%rax
   100f2:	48 89 85 c0 fb ff ff 	mov    %rax,-0x440(%rbp)
   100f9:	48 8d 05 f8 cc 01 00 	lea    0x1ccf8(%rip),%rax        # 2cdf8 <g_1916>
   10100:	48 89 85 c8 fb ff ff 	mov    %rax,-0x438(%rbp)
   10107:	48 8d 05 ea cc 01 00 	lea    0x1ccea(%rip),%rax        # 2cdf8 <g_1916>
   1010e:	48 89 85 d0 fb ff ff 	mov    %rax,-0x430(%rbp)
   10115:	48 8d 05 dc cc 01 00 	lea    0x1ccdc(%rip),%rax        # 2cdf8 <g_1916>
   1011c:	48 89 85 d8 fb ff ff 	mov    %rax,-0x428(%rbp)
   10123:	48 8d 05 ce cc 01 00 	lea    0x1ccce(%rip),%rax        # 2cdf8 <g_1916>
   1012a:	48 89 85 e0 fb ff ff 	mov    %rax,-0x420(%rbp)
   10131:	48 8d 05 c0 cc 01 00 	lea    0x1ccc0(%rip),%rax        # 2cdf8 <g_1916>
   10138:	48 89 85 e8 fb ff ff 	mov    %rax,-0x418(%rbp)
   1013f:	48 8d 05 b2 cc 01 00 	lea    0x1ccb2(%rip),%rax        # 2cdf8 <g_1916>
   10146:	48 89 85 f0 fb ff ff 	mov    %rax,-0x410(%rbp)
   1014d:	48 8d 05 a4 cc 01 00 	lea    0x1cca4(%rip),%rax        # 2cdf8 <g_1916>
   10154:	48 89 85 f8 fb ff ff 	mov    %rax,-0x408(%rbp)
   1015b:	48 8d 05 96 cc 01 00 	lea    0x1cc96(%rip),%rax        # 2cdf8 <g_1916>
   10162:	48 89 85 00 fc ff ff 	mov    %rax,-0x400(%rbp)
   10169:	48 8d 85 88 f6 ff ff 	lea    -0x978(%rbp),%rax
   10170:	48 89 85 08 fc ff ff 	mov    %rax,-0x3f8(%rbp)
   10177:	48 8d 05 7a cc 01 00 	lea    0x1cc7a(%rip),%rax        # 2cdf8 <g_1916>
   1017e:	48 89 85 10 fc ff ff 	mov    %rax,-0x3f0(%rbp)
   10185:	48 8d 85 88 f6 ff ff 	lea    -0x978(%rbp),%rax
   1018c:	48 89 85 18 fc ff ff 	mov    %rax,-0x3e8(%rbp)
   10193:	48 8d 05 5e cc 01 00 	lea    0x1cc5e(%rip),%rax        # 2cdf8 <g_1916>
   1019a:	48 89 85 20 fc ff ff 	mov    %rax,-0x3e0(%rbp)
   101a1:	48 8d 85 88 f6 ff ff 	lea    -0x978(%rbp),%rax
   101a8:	48 89 85 28 fc ff ff 	mov    %rax,-0x3d8(%rbp)
   101af:	48 8d 05 42 cc 01 00 	lea    0x1cc42(%rip),%rax        # 2cdf8 <g_1916>
   101b6:	48 89 85 30 fc ff ff 	mov    %rax,-0x3d0(%rbp)
   101bd:	48 8d 05 34 cc 01 00 	lea    0x1cc34(%rip),%rax        # 2cdf8 <g_1916>
   101c4:	48 89 85 38 fc ff ff 	mov    %rax,-0x3c8(%rbp)
   101cb:	48 8d 05 26 cc 01 00 	lea    0x1cc26(%rip),%rax        # 2cdf8 <g_1916>
   101d2:	48 89 85 40 fc ff ff 	mov    %rax,-0x3c0(%rbp)
   101d9:	48 8d 05 18 cc 01 00 	lea    0x1cc18(%rip),%rax        # 2cdf8 <g_1916>
   101e0:	48 89 85 48 fc ff ff 	mov    %rax,-0x3b8(%rbp)
   101e7:	48 8d 05 0a cc 01 00 	lea    0x1cc0a(%rip),%rax        # 2cdf8 <g_1916>
   101ee:	48 89 85 50 fc ff ff 	mov    %rax,-0x3b0(%rbp)
   101f5:	48 8d 05 fc cb 01 00 	lea    0x1cbfc(%rip),%rax        # 2cdf8 <g_1916>
   101fc:	48 89 85 58 fc ff ff 	mov    %rax,-0x3a8(%rbp)
   10203:	48 8d 05 ee cb 01 00 	lea    0x1cbee(%rip),%rax        # 2cdf8 <g_1916>
   1020a:	48 89 85 60 fc ff ff 	mov    %rax,-0x3a0(%rbp)
   10211:	48 8d 05 e0 cb 01 00 	lea    0x1cbe0(%rip),%rax        # 2cdf8 <g_1916>
   10218:	48 89 85 68 fc ff ff 	mov    %rax,-0x398(%rbp)
   1021f:	48 8d 05 d2 cb 01 00 	lea    0x1cbd2(%rip),%rax        # 2cdf8 <g_1916>
   10226:	48 89 85 70 fc ff ff 	mov    %rax,-0x390(%rbp)
   1022d:	48 8d 85 88 f6 ff ff 	lea    -0x978(%rbp),%rax
   10234:	48 89 85 78 fc ff ff 	mov    %rax,-0x388(%rbp)
   1023b:	48 8d 85 88 f6 ff ff 	lea    -0x978(%rbp),%rax
   10242:	48 89 85 80 fc ff ff 	mov    %rax,-0x380(%rbp)
   10249:	48 8d 85 88 f6 ff ff 	lea    -0x978(%rbp),%rax
   10250:	48 89 85 88 fc ff ff 	mov    %rax,-0x378(%rbp)
   10257:	48 8d 05 9a cb 01 00 	lea    0x1cb9a(%rip),%rax        # 2cdf8 <g_1916>
   1025e:	48 89 85 90 fc ff ff 	mov    %rax,-0x370(%rbp)
   10265:	48 8d 85 88 f6 ff ff 	lea    -0x978(%rbp),%rax
   1026c:	48 89 85 98 fc ff ff 	mov    %rax,-0x368(%rbp)
   10273:	48 8d 85 88 f6 ff ff 	lea    -0x978(%rbp),%rax
   1027a:	48 89 85 a0 fc ff ff 	mov    %rax,-0x360(%rbp)
   10281:	48 8d 05 70 cb 01 00 	lea    0x1cb70(%rip),%rax        # 2cdf8 <g_1916>
   10288:	48 89 85 a8 fc ff ff 	mov    %rax,-0x358(%rbp)
   1028f:	48 8d 05 62 cb 01 00 	lea    0x1cb62(%rip),%rax        # 2cdf8 <g_1916>
   10296:	48 89 85 b0 fc ff ff 	mov    %rax,-0x350(%rbp)
   1029d:	48 8d 05 54 cb 01 00 	lea    0x1cb54(%rip),%rax        # 2cdf8 <g_1916>
   102a4:	48 89 85 b8 fc ff ff 	mov    %rax,-0x348(%rbp)
   102ab:	48 8d 05 46 cb 01 00 	lea    0x1cb46(%rip),%rax        # 2cdf8 <g_1916>
   102b2:	48 89 85 c0 fc ff ff 	mov    %rax,-0x340(%rbp)
   102b9:	48 8d 05 38 cb 01 00 	lea    0x1cb38(%rip),%rax        # 2cdf8 <g_1916>
   102c0:	48 89 85 c8 fc ff ff 	mov    %rax,-0x338(%rbp)
   102c7:	48 8d 05 2a cb 01 00 	lea    0x1cb2a(%rip),%rax        # 2cdf8 <g_1916>
   102ce:	48 89 85 d0 fc ff ff 	mov    %rax,-0x330(%rbp)
   102d5:	48 8d 05 1c cb 01 00 	lea    0x1cb1c(%rip),%rax        # 2cdf8 <g_1916>
   102dc:	48 89 85 d8 fc ff ff 	mov    %rax,-0x328(%rbp)
   102e3:	48 8d 05 0e cb 01 00 	lea    0x1cb0e(%rip),%rax        # 2cdf8 <g_1916>
   102ea:	48 89 85 e0 fc ff ff 	mov    %rax,-0x320(%rbp)
   102f1:	48 8d 85 88 f6 ff ff 	lea    -0x978(%rbp),%rax
   102f8:	48 89 85 e8 fc ff ff 	mov    %rax,-0x318(%rbp)
   102ff:	48 8d 05 f2 ca 01 00 	lea    0x1caf2(%rip),%rax        # 2cdf8 <g_1916>
   10306:	48 89 85 f0 fc ff ff 	mov    %rax,-0x310(%rbp)
   1030d:	48 8d 85 88 f6 ff ff 	lea    -0x978(%rbp),%rax
   10314:	48 89 85 f8 fc ff ff 	mov    %rax,-0x308(%rbp)
   1031b:	48 8d 05 d6 ca 01 00 	lea    0x1cad6(%rip),%rax        # 2cdf8 <g_1916>
   10322:	48 89 85 00 fd ff ff 	mov    %rax,-0x300(%rbp)
   10329:	48 8d 85 88 f6 ff ff 	lea    -0x978(%rbp),%rax
   10330:	48 89 85 08 fd ff ff 	mov    %rax,-0x2f8(%rbp)
   10337:	48 8d 05 ba ca 01 00 	lea    0x1caba(%rip),%rax        # 2cdf8 <g_1916>
   1033e:	48 89 85 10 fd ff ff 	mov    %rax,-0x2f0(%rbp)
   10345:	48 8d 05 ac ca 01 00 	lea    0x1caac(%rip),%rax        # 2cdf8 <g_1916>
   1034c:	48 89 85 18 fd ff ff 	mov    %rax,-0x2e8(%rbp)
   10353:	48 8d 05 9e ca 01 00 	lea    0x1ca9e(%rip),%rax        # 2cdf8 <g_1916>
   1035a:	48 89 85 20 fd ff ff 	mov    %rax,-0x2e0(%rbp)
   10361:	48 8d 05 90 ca 01 00 	lea    0x1ca90(%rip),%rax        # 2cdf8 <g_1916>
   10368:	48 89 85 28 fd ff ff 	mov    %rax,-0x2d8(%rbp)
   1036f:	48 8d 05 82 ca 01 00 	lea    0x1ca82(%rip),%rax        # 2cdf8 <g_1916>
   10376:	48 89 85 30 fd ff ff 	mov    %rax,-0x2d0(%rbp)
   1037d:	48 8d 05 74 ca 01 00 	lea    0x1ca74(%rip),%rax        # 2cdf8 <g_1916>
   10384:	48 89 85 38 fd ff ff 	mov    %rax,-0x2c8(%rbp)
   1038b:	48 8d 05 66 ca 01 00 	lea    0x1ca66(%rip),%rax        # 2cdf8 <g_1916>
   10392:	48 89 85 40 fd ff ff 	mov    %rax,-0x2c0(%rbp)
   10399:	48 8d 05 58 ca 01 00 	lea    0x1ca58(%rip),%rax        # 2cdf8 <g_1916>
   103a0:	48 89 85 48 fd ff ff 	mov    %rax,-0x2b8(%rbp)
   103a7:	48 8d 05 4a ca 01 00 	lea    0x1ca4a(%rip),%rax        # 2cdf8 <g_1916>
   103ae:	48 89 85 50 fd ff ff 	mov    %rax,-0x2b0(%rbp)
   103b5:	48 8d 85 88 f6 ff ff 	lea    -0x978(%rbp),%rax
   103bc:	48 89 85 58 fd ff ff 	mov    %rax,-0x2a8(%rbp)
   103c3:	48 8d 85 88 f6 ff ff 	lea    -0x978(%rbp),%rax
   103ca:	48 89 85 60 fd ff ff 	mov    %rax,-0x2a0(%rbp)
   103d1:	48 8d 85 88 f6 ff ff 	lea    -0x978(%rbp),%rax
   103d8:	48 89 85 68 fd ff ff 	mov    %rax,-0x298(%rbp)
   103df:	48 8d 05 12 ca 01 00 	lea    0x1ca12(%rip),%rax        # 2cdf8 <g_1916>
   103e6:	48 89 85 70 fd ff ff 	mov    %rax,-0x290(%rbp)
   103ed:	48 8d 85 88 f6 ff ff 	lea    -0x978(%rbp),%rax
   103f4:	48 89 85 78 fd ff ff 	mov    %rax,-0x288(%rbp)
   103fb:	48 8d 85 88 f6 ff ff 	lea    -0x978(%rbp),%rax
   10402:	48 89 85 80 fd ff ff 	mov    %rax,-0x280(%rbp)
   10409:	48 8d 05 e8 c9 01 00 	lea    0x1c9e8(%rip),%rax        # 2cdf8 <g_1916>
   10410:	48 89 85 88 fd ff ff 	mov    %rax,-0x278(%rbp)
   10417:	48 8d 05 da c9 01 00 	lea    0x1c9da(%rip),%rax        # 2cdf8 <g_1916>
   1041e:	48 89 85 90 fd ff ff 	mov    %rax,-0x270(%rbp)
   10425:	48 8d 05 cc c9 01 00 	lea    0x1c9cc(%rip),%rax        # 2cdf8 <g_1916>
   1042c:	48 89 85 98 fd ff ff 	mov    %rax,-0x268(%rbp)
   10433:	48 8d 05 be c9 01 00 	lea    0x1c9be(%rip),%rax        # 2cdf8 <g_1916>
   1043a:	48 89 85 a0 fd ff ff 	mov    %rax,-0x260(%rbp)
   10441:	48 8d 05 b0 c9 01 00 	lea    0x1c9b0(%rip),%rax        # 2cdf8 <g_1916>
   10448:	48 89 85 a8 fd ff ff 	mov    %rax,-0x258(%rbp)
   1044f:	48 8d 05 a2 c9 01 00 	lea    0x1c9a2(%rip),%rax        # 2cdf8 <g_1916>
   10456:	48 89 85 b0 fd ff ff 	mov    %rax,-0x250(%rbp)
   1045d:	48 8d 05 94 c9 01 00 	lea    0x1c994(%rip),%rax        # 2cdf8 <g_1916>
   10464:	48 89 85 b8 fd ff ff 	mov    %rax,-0x248(%rbp)
   1046b:	48 8d 05 86 c9 01 00 	lea    0x1c986(%rip),%rax        # 2cdf8 <g_1916>
   10472:	48 89 85 c0 fd ff ff 	mov    %rax,-0x240(%rbp)
   10479:	48 8d 85 88 f6 ff ff 	lea    -0x978(%rbp),%rax
   10480:	48 89 85 c8 fd ff ff 	mov    %rax,-0x238(%rbp)
   10487:	48 8d 05 6a c9 01 00 	lea    0x1c96a(%rip),%rax        # 2cdf8 <g_1916>
   1048e:	48 89 85 d0 fd ff ff 	mov    %rax,-0x230(%rbp)
   10495:	48 8d 85 88 f6 ff ff 	lea    -0x978(%rbp),%rax
   1049c:	48 89 85 d8 fd ff ff 	mov    %rax,-0x228(%rbp)
   104a3:	48 8d 05 4e c9 01 00 	lea    0x1c94e(%rip),%rax        # 2cdf8 <g_1916>
   104aa:	48 89 85 e0 fd ff ff 	mov    %rax,-0x220(%rbp)
   104b1:	48 8d 85 88 f6 ff ff 	lea    -0x978(%rbp),%rax
   104b8:	48 89 85 e8 fd ff ff 	mov    %rax,-0x218(%rbp)
   104bf:	48 8d 05 32 c9 01 00 	lea    0x1c932(%rip),%rax        # 2cdf8 <g_1916>
   104c6:	48 89 85 f0 fd ff ff 	mov    %rax,-0x210(%rbp)
   104cd:	48 8d 05 24 c9 01 00 	lea    0x1c924(%rip),%rax        # 2cdf8 <g_1916>
   104d4:	48 89 85 f8 fd ff ff 	mov    %rax,-0x208(%rbp)
   104db:	48 8d 05 16 c9 01 00 	lea    0x1c916(%rip),%rax        # 2cdf8 <g_1916>
   104e2:	48 89 85 00 fe ff ff 	mov    %rax,-0x200(%rbp)
   104e9:	48 8d 05 08 c9 01 00 	lea    0x1c908(%rip),%rax        # 2cdf8 <g_1916>
   104f0:	48 89 85 08 fe ff ff 	mov    %rax,-0x1f8(%rbp)
   104f7:	48 8d 05 fa c8 01 00 	lea    0x1c8fa(%rip),%rax        # 2cdf8 <g_1916>
   104fe:	48 89 85 10 fe ff ff 	mov    %rax,-0x1f0(%rbp)
   10505:	48 8d 05 ec c8 01 00 	lea    0x1c8ec(%rip),%rax        # 2cdf8 <g_1916>
   1050c:	48 89 85 18 fe ff ff 	mov    %rax,-0x1e8(%rbp)
   10513:	48 8d 05 de c8 01 00 	lea    0x1c8de(%rip),%rax        # 2cdf8 <g_1916>
   1051a:	48 89 85 20 fe ff ff 	mov    %rax,-0x1e0(%rbp)
   10521:	48 8d 05 d0 c8 01 00 	lea    0x1c8d0(%rip),%rax        # 2cdf8 <g_1916>
   10528:	48 89 85 28 fe ff ff 	mov    %rax,-0x1d8(%rbp)
   1052f:	48 8d 05 c2 c8 01 00 	lea    0x1c8c2(%rip),%rax        # 2cdf8 <g_1916>
   10536:	48 89 85 30 fe ff ff 	mov    %rax,-0x1d0(%rbp)
   1053d:	48 8d 85 88 f6 ff ff 	lea    -0x978(%rbp),%rax
   10544:	48 89 85 38 fe ff ff 	mov    %rax,-0x1c8(%rbp)
   1054b:	48 8d 85 88 f6 ff ff 	lea    -0x978(%rbp),%rax
   10552:	48 89 85 40 fe ff ff 	mov    %rax,-0x1c0(%rbp)
   10559:	48 8d 85 88 f6 ff ff 	lea    -0x978(%rbp),%rax
   10560:	48 89 85 48 fe ff ff 	mov    %rax,-0x1b8(%rbp)
   10567:	48 8d 05 8a c8 01 00 	lea    0x1c88a(%rip),%rax        # 2cdf8 <g_1916>
   1056e:	48 89 85 50 fe ff ff 	mov    %rax,-0x1b0(%rbp)
   10575:	48 8d 85 88 f6 ff ff 	lea    -0x978(%rbp),%rax
   1057c:	48 89 85 58 fe ff ff 	mov    %rax,-0x1a8(%rbp)
   10583:	48 8d 85 88 f6 ff ff 	lea    -0x978(%rbp),%rax
   1058a:	48 89 85 60 fe ff ff 	mov    %rax,-0x1a0(%rbp)
   10591:	48 8d 05 60 c8 01 00 	lea    0x1c860(%rip),%rax        # 2cdf8 <g_1916>
   10598:	48 89 85 68 fe ff ff 	mov    %rax,-0x198(%rbp)
   1059f:	48 8d 05 52 c8 01 00 	lea    0x1c852(%rip),%rax        # 2cdf8 <g_1916>
   105a6:	48 89 85 70 fe ff ff 	mov    %rax,-0x190(%rbp)
   105ad:	48 8d 05 44 c8 01 00 	lea    0x1c844(%rip),%rax        # 2cdf8 <g_1916>
   105b4:	48 89 85 78 fe ff ff 	mov    %rax,-0x188(%rbp)
   105bb:	48 8d 05 36 c8 01 00 	lea    0x1c836(%rip),%rax        # 2cdf8 <g_1916>
   105c2:	48 89 85 80 fe ff ff 	mov    %rax,-0x180(%rbp)
   105c9:	48 8d 05 28 c8 01 00 	lea    0x1c828(%rip),%rax        # 2cdf8 <g_1916>
   105d0:	48 89 85 88 fe ff ff 	mov    %rax,-0x178(%rbp)
   105d7:	48 8d 05 1a c8 01 00 	lea    0x1c81a(%rip),%rax        # 2cdf8 <g_1916>
   105de:	48 89 85 90 fe ff ff 	mov    %rax,-0x170(%rbp)
   105e5:	48 8d 05 0c c8 01 00 	lea    0x1c80c(%rip),%rax        # 2cdf8 <g_1916>
   105ec:	48 89 85 98 fe ff ff 	mov    %rax,-0x168(%rbp)
   105f3:	48 8d 05 fe c7 01 00 	lea    0x1c7fe(%rip),%rax        # 2cdf8 <g_1916>
   105fa:	48 89 85 a0 fe ff ff 	mov    %rax,-0x160(%rbp)
   10601:	48 8d 85 88 f6 ff ff 	lea    -0x978(%rbp),%rax
   10608:	48 89 85 a8 fe ff ff 	mov    %rax,-0x158(%rbp)
   1060f:	48 8d 05 e2 c7 01 00 	lea    0x1c7e2(%rip),%rax        # 2cdf8 <g_1916>
   10616:	48 89 85 b0 fe ff ff 	mov    %rax,-0x150(%rbp)
   1061d:	48 8d 85 88 f6 ff ff 	lea    -0x978(%rbp),%rax
   10624:	48 89 85 b8 fe ff ff 	mov    %rax,-0x148(%rbp)
   1062b:	48 8d 05 c6 c7 01 00 	lea    0x1c7c6(%rip),%rax        # 2cdf8 <g_1916>
   10632:	48 89 85 c0 fe ff ff 	mov    %rax,-0x140(%rbp)
   10639:	48 8d 85 88 f6 ff ff 	lea    -0x978(%rbp),%rax
   10640:	48 89 85 c8 fe ff ff 	mov    %rax,-0x138(%rbp)
   10647:	48 8d 05 aa c7 01 00 	lea    0x1c7aa(%rip),%rax        # 2cdf8 <g_1916>
   1064e:	48 89 85 d0 fe ff ff 	mov    %rax,-0x130(%rbp)
   10655:	48 8d 05 9c c7 01 00 	lea    0x1c79c(%rip),%rax        # 2cdf8 <g_1916>
   1065c:	48 89 85 d8 fe ff ff 	mov    %rax,-0x128(%rbp)
   10663:	48 8d 05 8e c7 01 00 	lea    0x1c78e(%rip),%rax        # 2cdf8 <g_1916>
   1066a:	48 89 85 e0 fe ff ff 	mov    %rax,-0x120(%rbp)
   10671:	48 8d 05 80 c7 01 00 	lea    0x1c780(%rip),%rax        # 2cdf8 <g_1916>
   10678:	48 89 85 e8 fe ff ff 	mov    %rax,-0x118(%rbp)
   1067f:	48 8d 05 72 c7 01 00 	lea    0x1c772(%rip),%rax        # 2cdf8 <g_1916>
   10686:	48 89 85 f0 fe ff ff 	mov    %rax,-0x110(%rbp)
   1068d:	48 8d 05 64 c7 01 00 	lea    0x1c764(%rip),%rax        # 2cdf8 <g_1916>
   10694:	48 89 85 f8 fe ff ff 	mov    %rax,-0x108(%rbp)
   1069b:	48 8d 05 56 c7 01 00 	lea    0x1c756(%rip),%rax        # 2cdf8 <g_1916>
   106a2:	48 89 85 00 ff ff ff 	mov    %rax,-0x100(%rbp)
   106a9:	48 8d 05 48 c7 01 00 	lea    0x1c748(%rip),%rax        # 2cdf8 <g_1916>
   106b0:	48 89 85 08 ff ff ff 	mov    %rax,-0xf8(%rbp)
   106b7:	48 8d 05 3a c7 01 00 	lea    0x1c73a(%rip),%rax        # 2cdf8 <g_1916>
   106be:	48 89 85 10 ff ff ff 	mov    %rax,-0xf0(%rbp)
   106c5:	48 8d 85 88 f6 ff ff 	lea    -0x978(%rbp),%rax
   106cc:	48 89 85 18 ff ff ff 	mov    %rax,-0xe8(%rbp)
   106d3:	48 8d 85 88 f6 ff ff 	lea    -0x978(%rbp),%rax
   106da:	48 89 85 20 ff ff ff 	mov    %rax,-0xe0(%rbp)
   106e1:	48 8d 85 88 f6 ff ff 	lea    -0x978(%rbp),%rax
   106e8:	48 89 85 28 ff ff ff 	mov    %rax,-0xd8(%rbp)
   106ef:	48 8d 05 02 c7 01 00 	lea    0x1c702(%rip),%rax        # 2cdf8 <g_1916>
   106f6:	48 89 85 30 ff ff ff 	mov    %rax,-0xd0(%rbp)
   106fd:	48 8d 85 88 f6 ff ff 	lea    -0x978(%rbp),%rax
   10704:	48 89 85 38 ff ff ff 	mov    %rax,-0xc8(%rbp)
   1070b:	48 8d 85 88 f6 ff ff 	lea    -0x978(%rbp),%rax
   10712:	48 89 85 40 ff ff ff 	mov    %rax,-0xc0(%rbp)
   10719:	48 8d 05 d8 c6 01 00 	lea    0x1c6d8(%rip),%rax        # 2cdf8 <g_1916>
   10720:	48 89 85 48 ff ff ff 	mov    %rax,-0xb8(%rbp)
   10727:	48 8d 05 ca c6 01 00 	lea    0x1c6ca(%rip),%rax        # 2cdf8 <g_1916>
   1072e:	48 89 85 50 ff ff ff 	mov    %rax,-0xb0(%rbp)
   10735:	48 8d 05 bc c6 01 00 	lea    0x1c6bc(%rip),%rax        # 2cdf8 <g_1916>
   1073c:	48 89 85 58 ff ff ff 	mov    %rax,-0xa8(%rbp)
   10743:	48 8d 05 ae c6 01 00 	lea    0x1c6ae(%rip),%rax        # 2cdf8 <g_1916>
   1074a:	48 89 85 60 ff ff ff 	mov    %rax,-0xa0(%rbp)
   10751:	48 8d 05 a0 c6 01 00 	lea    0x1c6a0(%rip),%rax        # 2cdf8 <g_1916>
   10758:	48 89 85 68 ff ff ff 	mov    %rax,-0x98(%rbp)
   1075f:	48 8d 05 92 c6 01 00 	lea    0x1c692(%rip),%rax        # 2cdf8 <g_1916>
   10766:	48 89 85 70 ff ff ff 	mov    %rax,-0x90(%rbp)
   1076d:	48 8d 05 84 c6 01 00 	lea    0x1c684(%rip),%rax        # 2cdf8 <g_1916>
   10774:	48 89 85 78 ff ff ff 	mov    %rax,-0x88(%rbp)
   1077b:	48 8d 05 76 c6 01 00 	lea    0x1c676(%rip),%rax        # 2cdf8 <g_1916>
   10782:	48 89 45 80          	mov    %rax,-0x80(%rbp)
   10786:	48 8d 85 88 f6 ff ff 	lea    -0x978(%rbp),%rax
   1078d:	48 89 45 88          	mov    %rax,-0x78(%rbp)
   10791:	48 8d 05 60 c6 01 00 	lea    0x1c660(%rip),%rax        # 2cdf8 <g_1916>
   10798:	48 89 45 90          	mov    %rax,-0x70(%rbp)
   1079c:	48 8d 85 88 f6 ff ff 	lea    -0x978(%rbp),%rax
   107a3:	48 89 45 98          	mov    %rax,-0x68(%rbp)
   107a7:	48 8d 05 4a c6 01 00 	lea    0x1c64a(%rip),%rax        # 2cdf8 <g_1916>
   107ae:	48 89 45 a0          	mov    %rax,-0x60(%rbp)
   107b2:	48 8d 85 88 f6 ff ff 	lea    -0x978(%rbp),%rax
   107b9:	48 89 45 a8          	mov    %rax,-0x58(%rbp)
   107bd:	48 8d 05 34 c6 01 00 	lea    0x1c634(%rip),%rax        # 2cdf8 <g_1916>
   107c4:	48 89 45 b0          	mov    %rax,-0x50(%rbp)
   107c8:	48 0f bf 9d e4 f5 ff 	movswq -0xa1c(%rbp),%rbx
   107cf:	ff 
   107d0:	66 83 bd e4 f5 ff ff 	cmpw   $0xffff,-0xa1c(%rbp)
   107d7:	ff 
   107d8:	48 8b 05 01 c6 01 00 	mov    0x1c601(%rip),%rax        # 2cde0 <g_1787>
   107df:	48 8b 00             	mov    (%rax),%rax
   107e2:	8b 00                	mov    (%rax),%eax
   107e4:	48 8b 05 dd be 01 00 	mov    0x1bedd(%rip),%rax        # 2c6c8 <g_570>
   107eb:	48 8b 00             	mov    (%rax),%rax
   107ee:	48 8b 10             	mov    (%rax),%rdx
   107f1:	48 8b 05 d0 be 01 00 	mov    0x1bed0(%rip),%rax        # 2c6c8 <g_570>
   107f8:	48 8b 00             	mov    (%rax),%rax
   107fb:	48 b9 74 40 99 80 9d 	movabs $0x984e3c9d80994074,%rcx
   10802:	3c 4e 98 
   10805:	48 21 ca             	and    %rcx,%rdx
   10808:	48 89 10             	mov    %rdx,(%rax)
   1080b:	48 8b 85 50 f9 ff ff 	mov    -0x6b0(%rbp),%rax
   10812:	48 85 c0             	test   %rax,%rax
   10815:	0f 95 c0             	setne  %al
   10818:	0f b6 c0             	movzbl %al,%eax
   1081b:	be 05 00 00 00       	mov    $0x5,%esi
   10820:	89 c7                	mov    %eax,%edi
   10822:	e8 7a ba ff ff       	callq  c2a1 <safe_lshift_func_int8_t_s_s>
   10827:	48 0f be c0          	movsbq %al,%rax
   1082b:	48 89 de             	mov    %rbx,%rsi
   1082e:	48 89 c7             	mov    %rax,%rdi
   10831:	e8 c1 c1 ff ff       	callq  c9f7 <safe_div_func_int64_t_s_s>
   10836:	48 8b 85 88 f6 ff ff 	mov    -0x978(%rbp),%rax
   1083d:	48 89 85 88 f6 ff ff 	mov    %rax,-0x978(%rbp)
   10844:	48 8b 05 b5 c5 01 00 	mov    0x1c5b5(%rip),%rax        # 2ce00 <g_1915>
   1084b:	48 8b 95 88 f6 ff ff 	mov    -0x978(%rbp),%rdx
   10852:	48 89 10             	mov    %rdx,(%rax)
   10855:	48 8b 05 74 c5 01 00 	mov    0x1c574(%rip),%rax        # 2cdd0 <g_1730>
   1085c:	48 8b 00             	mov    (%rax),%rax
   1085f:	0f b6 00             	movzbl (%rax),%eax
   10862:	3c 02                	cmp    $0x2,%al
   10864:	0f 95 c0             	setne  %al
   10867:	0f b6 c8             	movzbl %al,%ecx
   1086a:	48 8b 05 cf bd 01 00 	mov    0x1bdcf(%rip),%rax        # 2c640 <g_460>
   10871:	8b 10                	mov    (%rax),%edx
   10873:	48 8b 05 c6 bd 01 00 	mov    0x1bdc6(%rip),%rax        # 2c640 <g_460>
   1087a:	21 ca                	and    %ecx,%edx
   1087c:	89 10                	mov    %edx,(%rax)
   1087e:	48 83 85 20 f7 ff ff 	addq   $0x1,-0x8e0(%rbp)
   10885:	01 
   10886:	48 8b 05 23 c5 01 00 	mov    0x1c523(%rip),%rax        # 2cdb0 <g_1615>
   1088d:	8b 10                	mov    (%rax),%edx
   1088f:	48 8b 05 1a c5 01 00 	mov    0x1c51a(%rip),%rax        # 2cdb0 <g_1615>
   10896:	81 e2 cf 43 b9 22    	and    $0x22b943cf,%edx
   1089c:	89 10                	mov    %edx,(%rax)
   1089e:	81 bd 20 f6 ff ff 95 	cmpl   $0x61fb6395,-0x9e0(%rbp)
   108a5:	63 fb 61 
   108a8:	0f 95 c2             	setne  %dl
   108ab:	48 8b 05 fe c4 01 00 	mov    0x1c4fe(%rip),%rax        # 2cdb0 <g_1615>
   108b2:	0f b6 d2             	movzbl %dl,%edx
   108b5:	89 10                	mov    %edx,(%rax)
   108b7:	48 8b 85 c8 f5 ff ff 	mov    -0xa38(%rbp),%rax
   108be:	48 8b 8d 70 f8 ff ff 	mov    -0x790(%rbp),%rcx
   108c5:	48 8b 9d 78 f8 ff ff 	mov    -0x788(%rbp),%rbx
   108cc:	48 89 08             	mov    %rcx,(%rax)
   108cf:	48 89 58 08          	mov    %rbx,0x8(%rax)
   108d3:	48 8b 8d 80 f8 ff ff 	mov    -0x780(%rbp),%rcx
   108da:	48 8b 9d 88 f8 ff ff 	mov    -0x778(%rbp),%rbx
   108e1:	48 89 48 10          	mov    %rcx,0x10(%rax)
   108e5:	48 89 58 18          	mov    %rbx,0x18(%rax)
   108e9:	8b 95 90 f8 ff ff    	mov    -0x770(%rbp),%edx
   108ef:	89 50 20             	mov    %edx,0x20(%rax)
   108f2:	0f b7 95 94 f8 ff ff 	movzwl -0x76c(%rbp),%edx
   108f9:	66 89 50 24          	mov    %dx,0x24(%rax)
   108fd:	48 8b 45 c8          	mov    -0x38(%rbp),%rax
   10901:	64 48 33 04 25 28 00 	xor    %fs:0x28,%rax
   10908:	00 00 
   1090a:	74 05                	je     10911 <func_1+0x315c>
   1090c:	e8 5f b7 ff ff       	callq  c070 <__stack_chk_fail@plt>
   10911:	48 8b 85 c8 f5 ff ff 	mov    -0xa38(%rbp),%rax
   10918:	48 81 c4 58 0a 00 00 	add    $0xa58,%rsp
   1091f:	5b                   	pop    %rbx
   10920:	41 5c                	pop    %r12
   10922:	41 5d                	pop    %r13
   10924:	41 5e                	pop    %r14
   10926:	41 5f                	pop    %r15
   10928:	5d                   	pop    %rbp
   10929:	c3                   	retq   

000000000001092a <func_2>:
   1092a:	f3 0f 1e fa          	endbr64 
   1092e:	55                   	push   %rbp
   1092f:	48 89 e5             	mov    %rsp,%rbp
   10932:	48 81 ec a0 07 00 00 	sub    $0x7a0,%rsp
   10939:	89 f8                	mov    %edi,%eax
   1093b:	66 89 85 6c f8 ff ff 	mov    %ax,-0x794(%rbp)
   10942:	64 48 8b 04 25 28 00 	mov    %fs:0x28,%rax
   10949:	00 00 
   1094b:	48 89 45 f8          	mov    %rax,-0x8(%rbp)
   1094f:	31 c0                	xor    %eax,%eax
   10951:	c6 85 7e f8 ff ff fc 	movb   $0xfc,-0x782(%rbp)
   10958:	48 8d 05 39 7e 01 00 	lea    0x17e39(%rip),%rax        # 28798 <g_646>
   1095f:	48 89 85 88 f8 ff ff 	mov    %rax,-0x778(%rbp)
   10966:	48 8d 85 60 f9 ff ff 	lea    -0x6a0(%rbp),%rax
   1096d:	48 8d 15 cc 82 01 00 	lea    0x182cc(%rip),%rdx        # 28c40 <g_2631+0x218>
   10974:	b9 d2 00 00 00       	mov    $0xd2,%ecx
   10979:	48 89 c7             	mov    %rax,%rdi
   1097c:	48 89 d6             	mov    %rdx,%rsi
   1097f:	f3 48 a5             	rep movsq %ds:(%rsi),%es:(%rdi)
   10982:	c6 85 7f f8 ff ff f6 	movb   $0xf6,-0x781(%rbp)
   10989:	66 c7 85 80 f8 ff ff 	movw   $0x51d4,-0x780(%rbp)
   10990:	d4 51 
   10992:	66 c7 85 82 f8 ff ff 	movw   $0xd440,-0x77e(%rbp)
   10999:	40 d4 
   1099b:	c7 85 84 f8 ff ff 00 	movl   $0x0,-0x77c(%rbp)
   109a2:	00 00 00 
   109a5:	48 c7 85 a0 f8 ff ff 	movq   $0x6,-0x760(%rbp)
   109ac:	06 00 00 00 
   109b0:	48 c7 85 a8 f8 ff ff 	movq   $0x6,-0x758(%rbp)
   109b7:	06 00 00 00 
   109bb:	48 c7 85 b0 f8 ff ff 	movq   $0x6,-0x750(%rbp)
   109c2:	06 00 00 00 
   109c6:	48 c7 85 b8 f8 ff ff 	movq   $0x6,-0x748(%rbp)
   109cd:	06 00 00 00 
   109d1:	48 c7 85 c0 f8 ff ff 	movq   $0x6,-0x740(%rbp)
   109d8:	06 00 00 00 
   109dc:	48 c7 85 c8 f8 ff ff 	movq   $0x6,-0x738(%rbp)
   109e3:	06 00 00 00 
   109e7:	48 c7 85 d0 f8 ff ff 	movq   $0x6,-0x730(%rbp)
   109ee:	06 00 00 00 
   109f2:	48 c7 85 d8 f8 ff ff 	movq   $0x6,-0x728(%rbp)
   109f9:	06 00 00 00 
   109fd:	48 c7 85 e0 f8 ff ff 	movq   $0x6,-0x720(%rbp)
   10a04:	06 00 00 00 
   10a08:	48 c7 85 e8 f8 ff ff 	movq   $0x6,-0x718(%rbp)
   10a0f:	06 00 00 00 
   10a13:	48 c7 85 f0 f8 ff ff 	movq   $0x6,-0x710(%rbp)
   10a1a:	06 00 00 00 
   10a1e:	48 c7 85 f8 f8 ff ff 	movq   $0x6,-0x708(%rbp)
   10a25:	06 00 00 00 
   10a29:	48 c7 85 00 f9 ff ff 	movq   $0x6,-0x700(%rbp)
   10a30:	06 00 00 00 
   10a34:	48 c7 85 08 f9 ff ff 	movq   $0x6,-0x6f8(%rbp)
   10a3b:	06 00 00 00 
   10a3f:	48 c7 85 10 f9 ff ff 	movq   $0x6,-0x6f0(%rbp)
   10a46:	06 00 00 00 
   10a4a:	48 c7 85 18 f9 ff ff 	movq   $0x6,-0x6e8(%rbp)
   10a51:	06 00 00 00 
   10a55:	48 c7 85 20 f9 ff ff 	movq   $0x6,-0x6e0(%rbp)
   10a5c:	06 00 00 00 
   10a60:	48 c7 85 28 f9 ff ff 	movq   $0x6,-0x6d8(%rbp)
   10a67:	06 00 00 00 
   10a6b:	48 c7 85 30 f9 ff ff 	movq   $0x6,-0x6d0(%rbp)
   10a72:	06 00 00 00 
   10a76:	48 c7 85 38 f9 ff ff 	movq   $0x6,-0x6c8(%rbp)
   10a7d:	06 00 00 00 
   10a81:	48 c7 85 40 f9 ff ff 	movq   $0x6,-0x6c0(%rbp)
   10a88:	06 00 00 00 
   10a8c:	48 c7 85 48 f9 ff ff 	movq   $0x6,-0x6b8(%rbp)
   10a93:	06 00 00 00 
   10a97:	48 c7 85 50 f9 ff ff 	movq   $0x6,-0x6b0(%rbp)
   10a9e:	06 00 00 00 
   10aa2:	48 c7 85 58 f9 ff ff 	movq   $0x6,-0x6a8(%rbp)
   10aa9:	06 00 00 00 
   10aad:	48 8d 05 14 7a 01 00 	lea    0x17a14(%rip),%rax        # 284c8 <g_111>
   10ab4:	48 89 85 90 f8 ff ff 	mov    %rax,-0x770(%rbp)
   10abb:	48 c7 85 98 f8 ff ff 	movq   $0x0,-0x768(%rbp)
   10ac2:	00 00 00 00 
   10ac6:	48 8b 85 38 f9 ff ff 	mov    -0x6c8(%rbp),%rax
   10acd:	48 83 e8 01          	sub    $0x1,%rax
   10ad1:	48 89 85 38 f9 ff ff 	mov    %rax,-0x6c8(%rbp)
   10ad8:	48 8b 85 90 f8 ff ff 	mov    -0x770(%rbp),%rax
   10adf:	48 89 85 98 f8 ff ff 	mov    %rax,-0x768(%rbp)
   10ae6:	0f b7 85 6c f8 ff ff 	movzwl -0x794(%rbp),%eax
   10aed:	48 8b 55 f8          	mov    -0x8(%rbp),%rdx
   10af1:	64 48 33 14 25 28 00 	xor    %fs:0x28,%rdx
   10af8:	00 00 
   10afa:	74 05                	je     10b01 <func_2+0x1d7>
   10afc:	e8 6f b5 ff ff       	callq  c070 <__stack_chk_fail@plt>
   10b01:	c9                   	leaveq 
   10b02:	c3                   	retq   

0000000000010b03 <func_4>:
   10b03:	f3 0f 1e fa          	endbr64 
   10b07:	55                   	push   %rbp
   10b08:	48 89 e5             	mov    %rsp,%rbp
   10b0b:	41 57                	push   %r15
   10b0d:	41 56                	push   %r14
   10b0f:	41 55                	push   %r13
   10b11:	41 54                	push   %r12
   10b13:	53                   	push   %rbx
   10b14:	48 81 ec 00 10 00 00 	sub    $0x1000,%rsp
   10b1b:	48 83 0c 24 00       	orq    $0x0,(%rsp)
   10b20:	48 81 ec 08 0c 00 00 	sub    $0xc08,%rsp
   10b27:	89 f8                	mov    %edi,%eax
   10b29:	48 89 b5 e0 e3 ff ff 	mov    %rsi,-0x1c20(%rbp)
   10b30:	66 89 85 ec e3 ff ff 	mov    %ax,-0x1c14(%rbp)
   10b37:	64 48 8b 04 25 28 00 	mov    %fs:0x28,%rax
   10b3e:	00 00 
   10b40:	48 89 45 c8          	mov    %rax,-0x38(%rbp)
   10b44:	31 c0                	xor    %eax,%eax
   10b46:	c6 85 f3 e3 ff ff ff 	movb   $0xff,-0x1c0d(%rbp)
   10b4d:	48 c7 85 e8 e5 ff ff 	movq   $0x0,-0x1a18(%rbp)
   10b54:	00 00 00 00 
   10b58:	48 8d 85 e8 e5 ff ff 	lea    -0x1a18(%rbp),%rax
   10b5f:	48 89 85 f0 e5 ff ff 	mov    %rax,-0x1a10(%rbp)
   10b66:	48 8d 05 5f 75 01 00 	lea    0x1755f(%rip),%rax        # 280cc <g_71>
   10b6d:	48 89 85 f8 e5 ff ff 	mov    %rax,-0x1a08(%rbp)
   10b74:	48 b8 a0 6a 56 19 4a 	movabs $0x66894a19566aa0,%rax
   10b7b:	89 66 00 
   10b7e:	48 89 85 e0 e8 ff ff 	mov    %rax,-0x1720(%rbp)
   10b85:	48 b8 e5 f7 3b 7d e5 	movabs $0x7fadbde57d3bf7e5,%rax
   10b8c:	bd ad 7f 
   10b8f:	48 89 85 e8 e8 ff ff 	mov    %rax,-0x1718(%rbp)
   10b96:	48 c7 85 f0 e8 ff ff 	movq   $0xfffffffffffffffd,-0x1710(%rbp)
   10b9d:	fd ff ff ff 
   10ba1:	c7 85 f8 e8 ff ff b4 	movl   $0x326b9db4,-0x1708(%rbp)
   10ba8:	9d 6b 32 
   10bab:	48 b8 d1 ee 6b 2b 66 	movabs $0xb81aab662b6beed1,%rax
   10bb2:	ab 1a b8 
   10bb5:	48 89 85 fc e8 ff ff 	mov    %rax,-0x1704(%rbp)
   10bbc:	66 c7 85 04 e9 ff ff 	movw   $0x49cc,-0x16fc(%rbp)
   10bc3:	cc 49 
   10bc5:	48 8d 85 f8 e5 ff ff 	lea    -0x1a08(%rbp),%rax
   10bcc:	48 89 85 80 ea ff ff 	mov    %rax,-0x1580(%rbp)
   10bd3:	48 8d 85 f8 e5 ff ff 	lea    -0x1a08(%rbp),%rax
   10bda:	48 89 85 88 ea ff ff 	mov    %rax,-0x1578(%rbp)
   10be1:	48 8d 85 f8 e5 ff ff 	lea    -0x1a08(%rbp),%rax
   10be8:	48 89 85 90 ea ff ff 	mov    %rax,-0x1570(%rbp)
   10bef:	48 8d 85 f8 e5 ff ff 	lea    -0x1a08(%rbp),%rax
   10bf6:	48 89 85 98 ea ff ff 	mov    %rax,-0x1568(%rbp)
   10bfd:	48 8d 85 f8 e5 ff ff 	lea    -0x1a08(%rbp),%rax
   10c04:	48 89 85 a0 ea ff ff 	mov    %rax,-0x1560(%rbp)
   10c0b:	48 8d 85 f8 e5 ff ff 	lea    -0x1a08(%rbp),%rax
   10c12:	48 89 85 a8 ea ff ff 	mov    %rax,-0x1558(%rbp)
   10c19:	48 8d 85 f8 e5 ff ff 	lea    -0x1a08(%rbp),%rax
   10c20:	48 89 85 b0 ea ff ff 	mov    %rax,-0x1550(%rbp)
   10c27:	48 8d 85 f8 e5 ff ff 	lea    -0x1a08(%rbp),%rax
   10c2e:	48 89 85 b8 ea ff ff 	mov    %rax,-0x1548(%rbp)
   10c35:	48 8d 05 4c 7b 01 00 	lea    0x17b4c(%rip),%rax        # 28788 <g_519>
   10c3c:	48 89 85 68 e6 ff ff 	mov    %rax,-0x1998(%rbp)
   10c43:	48 8d 05 72 7b 01 00 	lea    0x17b72(%rip),%rax        # 287bc <g_1037+0x1c>
   10c4a:	48 89 85 70 e6 ff ff 	mov    %rax,-0x1990(%rbp)
   10c51:	48 8d 05 90 ba 01 00 	lea    0x1ba90(%rip),%rax        # 2c6e8 <g_744>
   10c58:	48 89 85 00 e6 ff ff 	mov    %rax,-0x1a00(%rbp)
   10c5f:	48 c7 85 78 e6 ff ff 	movq   $0x0,-0x1988(%rbp)
   10c66:	00 00 00 00 
   10c6a:	66 c7 85 06 e4 ff ff 	movw   $0xfffa,-0x1bfa(%rbp)
   10c71:	fa ff 
   10c73:	48 8d 05 86 b9 01 00 	lea    0x1b986(%rip),%rax        # 2c600 <g_278>
   10c7a:	48 89 85 08 e6 ff ff 	mov    %rax,-0x19f8(%rbp)
   10c81:	c7 85 88 e4 ff ff 01 	movl   $0x1,-0x1b78(%rbp)
   10c88:	00 00 00 
   10c8b:	48 b8 6a a0 91 fe 24 	movabs $0xe6f57b24fe91a06a,%rax
   10c92:	7b f5 e6 
   10c95:	48 89 85 60 e6 ff ff 	mov    %rax,-0x19a0(%rbp)
   10c9c:	c7 85 24 e4 ff ff dd 	movl   $0x2b0676dd,-0x1bdc(%rbp)
   10ca3:	76 06 2b 
   10ca6:	66 c7 85 56 e9 ff ff 	movw   $0xa25c,-0x16aa(%rbp)
   10cad:	5c a2 
   10caf:	66 c7 85 58 e9 ff ff 	movw   $0xa25c,-0x16a8(%rbp)
   10cb6:	5c a2 
   10cb8:	66 c7 85 5a e9 ff ff 	movw   $0xa25c,-0x16a6(%rbp)
   10cbf:	5c a2 
   10cc1:	66 c7 85 5c e9 ff ff 	movw   $0xa25c,-0x16a4(%rbp)
   10cc8:	5c a2 
   10cca:	66 c7 85 5e e9 ff ff 	movw   $0xa25c,-0x16a2(%rbp)
   10cd1:	5c a2 
   10cd3:	48 8d 85 08 e6 ff ff 	lea    -0x19f8(%rbp),%rax
   10cda:	48 89 85 90 f0 ff ff 	mov    %rax,-0xf70(%rbp)
   10ce1:	48 8d 85 08 e6 ff ff 	lea    -0x19f8(%rbp),%rax
   10ce8:	48 89 85 98 f0 ff ff 	mov    %rax,-0xf68(%rbp)
   10cef:	48 8d 85 08 e6 ff ff 	lea    -0x19f8(%rbp),%rax
   10cf6:	48 89 85 a0 f0 ff ff 	mov    %rax,-0xf60(%rbp)
   10cfd:	48 8d 85 08 e6 ff ff 	lea    -0x19f8(%rbp),%rax
   10d04:	48 89 85 a8 f0 ff ff 	mov    %rax,-0xf58(%rbp)
   10d0b:	48 8d 85 08 e6 ff ff 	lea    -0x19f8(%rbp),%rax
   10d12:	48 89 85 b0 f0 ff ff 	mov    %rax,-0xf50(%rbp)
   10d19:	48 8d 85 08 e6 ff ff 	lea    -0x19f8(%rbp),%rax
   10d20:	48 89 85 b8 f0 ff ff 	mov    %rax,-0xf48(%rbp)
   10d27:	48 8d 85 08 e6 ff ff 	lea    -0x19f8(%rbp),%rax
   10d2e:	48 89 85 c0 f0 ff ff 	mov    %rax,-0xf40(%rbp)
   10d35:	48 8d 85 08 e6 ff ff 	lea    -0x19f8(%rbp),%rax
   10d3c:	48 89 85 c8 f0 ff ff 	mov    %rax,-0xf38(%rbp)
   10d43:	48 8d 05 be b8 01 00 	lea    0x1b8be(%rip),%rax        # 2c608 <g_277>
   10d4a:	48 89 85 d0 f0 ff ff 	mov    %rax,-0xf30(%rbp)
   10d51:	48 c7 85 d8 f0 ff ff 	movq   $0x0,-0xf28(%rbp)
   10d58:	00 00 00 00 
   10d5c:	48 8d 85 08 e6 ff ff 	lea    -0x19f8(%rbp),%rax
   10d63:	48 89 85 e0 f0 ff ff 	mov    %rax,-0xf20(%rbp)
   10d6a:	48 8d 05 97 b8 01 00 	lea    0x1b897(%rip),%rax        # 2c608 <g_277>
   10d71:	48 89 85 e8 f0 ff ff 	mov    %rax,-0xf18(%rbp)
   10d78:	48 8d 85 08 e6 ff ff 	lea    -0x19f8(%rbp),%rax
   10d7f:	48 89 85 f0 f0 ff ff 	mov    %rax,-0xf10(%rbp)
   10d86:	48 8d 85 08 e6 ff ff 	lea    -0x19f8(%rbp),%rax
   10d8d:	48 89 85 f8 f0 ff ff 	mov    %rax,-0xf08(%rbp)
   10d94:	48 8d 85 08 e6 ff ff 	lea    -0x19f8(%rbp),%rax
   10d9b:	48 89 85 00 f1 ff ff 	mov    %rax,-0xf00(%rbp)
   10da2:	48 8d 85 08 e6 ff ff 	lea    -0x19f8(%rbp),%rax
   10da9:	48 89 85 08 f1 ff ff 	mov    %rax,-0xef8(%rbp)
   10db0:	48 8d 05 51 b8 01 00 	lea    0x1b851(%rip),%rax        # 2c608 <g_277>
   10db7:	48 89 85 10 f1 ff ff 	mov    %rax,-0xef0(%rbp)
   10dbe:	48 8d 85 08 e6 ff ff 	lea    -0x19f8(%rbp),%rax
   10dc5:	48 89 85 18 f1 ff ff 	mov    %rax,-0xee8(%rbp)
   10dcc:	48 8d 85 08 e6 ff ff 	lea    -0x19f8(%rbp),%rax
   10dd3:	48 89 85 20 f1 ff ff 	mov    %rax,-0xee0(%rbp)
   10dda:	48 8d 85 08 e6 ff ff 	lea    -0x19f8(%rbp),%rax
   10de1:	48 89 85 28 f1 ff ff 	mov    %rax,-0xed8(%rbp)
   10de8:	48 8d 05 19 b8 01 00 	lea    0x1b819(%rip),%rax        # 2c608 <g_277>
   10def:	48 89 85 30 f1 ff ff 	mov    %rax,-0xed0(%rbp)
   10df6:	48 8d 05 0b b8 01 00 	lea    0x1b80b(%rip),%rax        # 2c608 <g_277>
   10dfd:	48 89 85 38 f1 ff ff 	mov    %rax,-0xec8(%rbp)
   10e04:	48 c7 85 40 f1 ff ff 	movq   $0x0,-0xec0(%rbp)
   10e0b:	00 00 00 00 
   10e0f:	48 8d 85 08 e6 ff ff 	lea    -0x19f8(%rbp),%rax
   10e16:	48 89 85 48 f1 ff ff 	mov    %rax,-0xeb8(%rbp)
   10e1d:	48 8d 85 08 e6 ff ff 	lea    -0x19f8(%rbp),%rax
   10e24:	48 89 85 50 f1 ff ff 	mov    %rax,-0xeb0(%rbp)
   10e2b:	48 c7 85 58 f1 ff ff 	movq   $0x0,-0xea8(%rbp)
   10e32:	00 00 00 00 
   10e36:	48 8d 05 cb b7 01 00 	lea    0x1b7cb(%rip),%rax        # 2c608 <g_277>
   10e3d:	48 89 85 60 f1 ff ff 	mov    %rax,-0xea0(%rbp)
   10e44:	48 8d 05 bd b7 01 00 	lea    0x1b7bd(%rip),%rax        # 2c608 <g_277>
   10e4b:	48 89 85 68 f1 ff ff 	mov    %rax,-0xe98(%rbp)
   10e52:	48 8d 05 af b7 01 00 	lea    0x1b7af(%rip),%rax        # 2c608 <g_277>
   10e59:	48 89 85 70 f1 ff ff 	mov    %rax,-0xe90(%rbp)
   10e60:	48 8d 05 a1 b7 01 00 	lea    0x1b7a1(%rip),%rax        # 2c608 <g_277>
   10e67:	48 89 85 78 f1 ff ff 	mov    %rax,-0xe88(%rbp)
   10e6e:	48 8d 05 93 b7 01 00 	lea    0x1b793(%rip),%rax        # 2c608 <g_277>
   10e75:	48 89 85 80 f1 ff ff 	mov    %rax,-0xe80(%rbp)
   10e7c:	48 8d 85 08 e6 ff ff 	lea    -0x19f8(%rbp),%rax
   10e83:	48 89 85 88 f1 ff ff 	mov    %rax,-0xe78(%rbp)
   10e8a:	48 c7 85 90 f1 ff ff 	movq   $0x0,-0xe70(%rbp)
   10e91:	00 00 00 00 
   10e95:	48 8d 85 08 e6 ff ff 	lea    -0x19f8(%rbp),%rax
   10e9c:	48 89 85 98 f1 ff ff 	mov    %rax,-0xe68(%rbp)
   10ea3:	48 8d 85 08 e6 ff ff 	lea    -0x19f8(%rbp),%rax
   10eaa:	48 89 85 a0 f1 ff ff 	mov    %rax,-0xe60(%rbp)
   10eb1:	48 c7 85 a8 f1 ff ff 	movq   $0x0,-0xe58(%rbp)
   10eb8:	00 00 00 00 
   10ebc:	48 8d 05 45 b7 01 00 	lea    0x1b745(%rip),%rax        # 2c608 <g_277>
   10ec3:	48 89 85 b0 f1 ff ff 	mov    %rax,-0xe50(%rbp)
   10eca:	48 8d 85 08 e6 ff ff 	lea    -0x19f8(%rbp),%rax
   10ed1:	48 89 85 b8 f1 ff ff 	mov    %rax,-0xe48(%rbp)
   10ed8:	48 8d 85 08 e6 ff ff 	lea    -0x19f8(%rbp),%rax
   10edf:	48 89 85 c0 f1 ff ff 	mov    %rax,-0xe40(%rbp)
   10ee6:	48 8d 85 08 e6 ff ff 	lea    -0x19f8(%rbp),%rax
   10eed:	48 89 85 c8 f1 ff ff 	mov    %rax,-0xe38(%rbp)
   10ef4:	48 8d 05 0d b7 01 00 	lea    0x1b70d(%rip),%rax        # 2c608 <g_277>
   10efb:	48 89 85 d0 f1 ff ff 	mov    %rax,-0xe30(%rbp)
   10f02:	48 8d 05 ff b6 01 00 	lea    0x1b6ff(%rip),%rax        # 2c608 <g_277>
   10f09:	48 89 85 d8 f1 ff ff 	mov    %rax,-0xe28(%rbp)
   10f10:	48 c7 85 e0 f1 ff ff 	movq   $0x0,-0xe20(%rbp)
   10f17:	00 00 00 00 
   10f1b:	48 8d 85 08 e6 ff ff 	lea    -0x19f8(%rbp),%rax
   10f22:	48 89 85 e8 f1 ff ff 	mov    %rax,-0xe18(%rbp)
   10f29:	48 8d 85 08 e6 ff ff 	lea    -0x19f8(%rbp),%rax
   10f30:	48 89 85 f0 f1 ff ff 	mov    %rax,-0xe10(%rbp)
   10f37:	48 8d 05 ca b6 01 00 	lea    0x1b6ca(%rip),%rax        # 2c608 <g_277>
   10f3e:	48 89 85 f8 f1 ff ff 	mov    %rax,-0xe08(%rbp)
   10f45:	48 8d 85 08 e6 ff ff 	lea    -0x19f8(%rbp),%rax
   10f4c:	48 89 85 00 f2 ff ff 	mov    %rax,-0xe00(%rbp)
   10f53:	48 8d 85 08 e6 ff ff 	lea    -0x19f8(%rbp),%rax
   10f5a:	48 89 85 08 f2 ff ff 	mov    %rax,-0xdf8(%rbp)
   10f61:	48 8d 05 a0 b6 01 00 	lea    0x1b6a0(%rip),%rax        # 2c608 <g_277>
   10f68:	48 89 85 10 f2 ff ff 	mov    %rax,-0xdf0(%rbp)
   10f6f:	48 8d 85 08 e6 ff ff 	lea    -0x19f8(%rbp),%rax
   10f76:	48 89 85 18 f2 ff ff 	mov    %rax,-0xde8(%rbp)
   10f7d:	48 8d 05 84 b6 01 00 	lea    0x1b684(%rip),%rax        # 2c608 <g_277>
   10f84:	48 89 85 20 f2 ff ff 	mov    %rax,-0xde0(%rbp)
   10f8b:	48 8d 05 76 b6 01 00 	lea    0x1b676(%rip),%rax        # 2c608 <g_277>
   10f92:	48 89 85 28 f2 ff ff 	mov    %rax,-0xdd8(%rbp)
   10f99:	48 8d 85 08 e6 ff ff 	lea    -0x19f8(%rbp),%rax
   10fa0:	48 89 85 30 f2 ff ff 	mov    %rax,-0xdd0(%rbp)
   10fa7:	48 c7 85 38 f2 ff ff 	movq   $0x0,-0xdc8(%rbp)
   10fae:	00 00 00 00 
   10fb2:	48 8d 85 08 e6 ff ff 	lea    -0x19f8(%rbp),%rax
   10fb9:	48 89 85 40 f2 ff ff 	mov    %rax,-0xdc0(%rbp)
   10fc0:	48 8d 05 41 b6 01 00 	lea    0x1b641(%rip),%rax        # 2c608 <g_277>
   10fc7:	48 89 85 48 f2 ff ff 	mov    %rax,-0xdb8(%rbp)
   10fce:	48 8d 05 33 b6 01 00 	lea    0x1b633(%rip),%rax        # 2c608 <g_277>
   10fd5:	48 89 85 50 f2 ff ff 	mov    %rax,-0xdb0(%rbp)
   10fdc:	48 c7 85 58 f2 ff ff 	movq   $0x0,-0xda8(%rbp)
   10fe3:	00 00 00 00 
   10fe7:	48 8d 85 08 e6 ff ff 	lea    -0x19f8(%rbp),%rax
   10fee:	48 89 85 60 f2 ff ff 	mov    %rax,-0xda0(%rbp)
   10ff5:	48 c7 85 68 f2 ff ff 	movq   $0x0,-0xd98(%rbp)
   10ffc:	00 00 00 00 
   11000:	48 8d 05 01 b6 01 00 	lea    0x1b601(%rip),%rax        # 2c608 <g_277>
   11007:	48 89 85 70 f2 ff ff 	mov    %rax,-0xd90(%rbp)
   1100e:	48 8d 05 f3 b5 01 00 	lea    0x1b5f3(%rip),%rax        # 2c608 <g_277>
   11015:	48 89 85 78 f2 ff ff 	mov    %rax,-0xd88(%rbp)
   1101c:	48 8d 85 08 e6 ff ff 	lea    -0x19f8(%rbp),%rax
   11023:	48 89 85 80 f2 ff ff 	mov    %rax,-0xd80(%rbp)
   1102a:	48 8d 05 d7 b5 01 00 	lea    0x1b5d7(%rip),%rax        # 2c608 <g_277>
   11031:	48 89 85 88 f2 ff ff 	mov    %rax,-0xd78(%rbp)
   11038:	48 8d 85 08 e6 ff ff 	lea    -0x19f8(%rbp),%rax
   1103f:	48 89 85 90 f2 ff ff 	mov    %rax,-0xd70(%rbp)
   11046:	48 8d 05 bb b5 01 00 	lea    0x1b5bb(%rip),%rax        # 2c608 <g_277>
   1104d:	48 89 85 98 f2 ff ff 	mov    %rax,-0xd68(%rbp)
   11054:	48 8d 85 08 e6 ff ff 	lea    -0x19f8(%rbp),%rax
   1105b:	48 89 85 a0 f2 ff ff 	mov    %rax,-0xd60(%rbp)
   11062:	48 8d 05 9f b5 01 00 	lea    0x1b59f(%rip),%rax        # 2c608 <g_277>
   11069:	48 89 85 a8 f2 ff ff 	mov    %rax,-0xd58(%rbp)
   11070:	48 8d 85 08 e6 ff ff 	lea    -0x19f8(%rbp),%rax
   11077:	48 89 85 b0 f2 ff ff 	mov    %rax,-0xd50(%rbp)
   1107e:	48 8d 05 83 b5 01 00 	lea    0x1b583(%rip),%rax        # 2c608 <g_277>
   11085:	48 89 85 b8 f2 ff ff 	mov    %rax,-0xd48(%rbp)
   1108c:	48 8d 85 08 e6 ff ff 	lea    -0x19f8(%rbp),%rax
   11093:	48 89 85 c0 f2 ff ff 	mov    %rax,-0xd40(%rbp)
   1109a:	48 8d 05 67 b5 01 00 	lea    0x1b567(%rip),%rax        # 2c608 <g_277>
   110a1:	48 89 85 c8 f2 ff ff 	mov    %rax,-0xd38(%rbp)
   110a8:	48 8d 85 90 f0 ff ff 	lea    -0xf70(%rbp),%rax
   110af:	48 83 c0 78          	add    $0x78,%rax
   110b3:	48 89 85 c0 ea ff ff 	mov    %rax,-0x1540(%rbp)
   110ba:	48 c7 85 c8 ea ff ff 	movq   $0x0,-0x1538(%rbp)
   110c1:	00 00 00 00 
   110c5:	48 8d 85 90 f0 ff ff 	lea    -0xf70(%rbp),%rax
   110cc:	48 83 c0 78          	add    $0x78,%rax
   110d0:	48 89 85 d0 ea ff ff 	mov    %rax,-0x1530(%rbp)
   110d7:	48 c7 85 d8 ea ff ff 	movq   $0x0,-0x1528(%rbp)
   110de:	00 00 00 00 
   110e2:	48 8d 85 90 f0 ff ff 	lea    -0xf70(%rbp),%rax
   110e9:	48 83 c0 78          	add    $0x78,%rax
   110ed:	48 89 85 e0 ea ff ff 	mov    %rax,-0x1520(%rbp)
   110f4:	48 c7 85 e8 ea ff ff 	movq   $0x0,-0x1518(%rbp)
   110fb:	00 00 00 00 
   110ff:	48 8d 85 90 f0 ff ff 	lea    -0xf70(%rbp),%rax
   11106:	48 83 c0 78          	add    $0x78,%rax
   1110a:	48 89 85 f0 ea ff ff 	mov    %rax,-0x1510(%rbp)
   11111:	48 c7 85 f8 ea ff ff 	movq   $0x0,-0x1508(%rbp)
   11118:	00 00 00 00 
   1111c:	c7 85 90 e4 ff ff c1 	movl   $0x583b06c1,-0x1b70(%rbp)
   11123:	06 3b 58 
   11126:	c6 85 f4 e3 ff ff 8b 	movb   $0x8b,-0x1c0c(%rbp)
   1112d:	48 8d 85 b0 ee ff ff 	lea    -0x1150(%rbp),%rax
   11134:	48 8d 15 e5 ff 00 00 	lea    0xffe5(%rip),%rdx        # 21120 <g_1963+0xc>
   1113b:	b9 3c 00 00 00       	mov    $0x3c,%ecx
   11140:	48 89 c7             	mov    %rax,%rdi
   11143:	48 89 d6             	mov    %rdx,%rsi
   11146:	f3 48 a5             	rep movsq %ds:(%rsi),%es:(%rdi)
   11149:	48 c7 85 10 e6 ff ff 	movq   $0x0,-0x19f0(%rbp)
   11150:	00 00 00 00 
   11154:	48 8d 85 10 e6 ff ff 	lea    -0x19f0(%rbp),%rax
   1115b:	48 89 85 80 e6 ff ff 	mov    %rax,-0x1980(%rbp)
   11162:	66 c7 85 0a e4 ff ff 	movw   $0xc6ea,-0x1bf6(%rbp)
   11169:	ea c6 
   1116b:	c7 85 00 eb ff ff 00 	movl   $0x0,-0x1500(%rbp)
   11172:	00 00 00 
   11175:	c7 85 04 eb ff ff 4f 	movl   $0xb022aa4f,-0x14fc(%rbp)
   1117c:	aa 22 b0 
   1117f:	c7 85 08 eb ff ff 4f 	movl   $0xb022aa4f,-0x14f8(%rbp)
   11186:	aa 22 b0 
   11189:	c7 85 0c eb ff ff 00 	movl   $0x0,-0x14f4(%rbp)
   11190:	00 00 00 
   11193:	c7 85 10 eb ff ff 4f 	movl   $0xb022aa4f,-0x14f0(%rbp)
   1119a:	aa 22 b0 
   1119d:	c7 85 14 eb ff ff 00 	movl   $0x0,-0x14ec(%rbp)
   111a4:	00 00 00 
   111a7:	c7 85 18 eb ff ff 01 	movl   $0x1,-0x14e8(%rbp)
   111ae:	00 00 00 
   111b1:	c7 85 1c eb ff ff 65 	movl   $0xbfe74165,-0x14e4(%rbp)
   111b8:	41 e7 bf 
   111bb:	c7 85 20 eb ff ff 4f 	movl   $0xb022aa4f,-0x14e0(%rbp)
   111c2:	aa 22 b0 
   111c5:	c7 85 24 eb ff ff 01 	movl   $0x1,-0x14dc(%rbp)
   111cc:	00 00 00 
   111cf:	c7 85 28 eb ff ff 4f 	movl   $0xb022aa4f,-0x14d8(%rbp)
   111d6:	aa 22 b0 
   111d9:	c7 85 2c eb ff ff de 	movl   $0x3767bdde,-0x14d4(%rbp)
   111e0:	bd 67 37 
   111e3:	c7 85 30 eb ff ff 00 	movl   $0x0,-0x14d0(%rbp)
   111ea:	00 00 00 
   111ed:	c7 85 34 eb ff ff 65 	movl   $0xbfe74165,-0x14cc(%rbp)
   111f4:	41 e7 bf 
   111f7:	c7 85 38 eb ff ff de 	movl   $0x3767bdde,-0x14c8(%rbp)
   111fe:	bd 67 37 
   11201:	c7 85 3c eb ff ff de 	movl   $0x3767bdde,-0x14c4(%rbp)
   11208:	bd 67 37 
   1120b:	c7 85 40 eb ff ff 01 	movl   $0x1,-0x14c0(%rbp)
   11212:	00 00 00 
   11215:	c7 85 44 eb ff ff 01 	movl   $0x1,-0x14bc(%rbp)
   1121c:	00 00 00 
   1121f:	c7 85 48 eb ff ff d9 	movl   $0x874116d9,-0x14b8(%rbp)
   11226:	16 41 87 
   11229:	c7 85 4c eb ff ff 65 	movl   $0xbfe74165,-0x14b4(%rbp)
   11230:	41 e7 bf 
   11233:	c7 85 50 eb ff ff 65 	movl   $0xbfe74165,-0x14b0(%rbp)
   1123a:	41 e7 bf 
   1123d:	c7 85 54 eb ff ff 00 	movl   $0x0,-0x14ac(%rbp)
   11244:	00 00 00 
   11247:	c7 85 58 eb ff ff d9 	movl   $0x874116d9,-0x14a8(%rbp)
   1124e:	16 41 87 
   11251:	c7 85 5c eb ff ff 00 	movl   $0x0,-0x14a4(%rbp)
   11258:	00 00 00 
   1125b:	c7 85 60 eb ff ff 01 	movl   $0x1,-0x14a0(%rbp)
   11262:	00 00 00 
   11265:	c7 85 64 eb ff ff 4f 	movl   $0xb022aa4f,-0x149c(%rbp)
   1126c:	aa 22 b0 
   1126f:	c7 85 68 eb ff ff de 	movl   $0x3767bdde,-0x1498(%rbp)
   11276:	bd 67 37 
   11279:	c7 85 6c eb ff ff d9 	movl   $0x874116d9,-0x1494(%rbp)
   11280:	16 41 87 
   11283:	c7 85 70 eb ff ff 00 	movl   $0x0,-0x1490(%rbp)
   1128a:	00 00 00 
   1128d:	c7 85 74 eb ff ff 4f 	movl   $0xb022aa4f,-0x148c(%rbp)
   11294:	aa 22 b0 
   11297:	c7 85 78 eb ff ff 4f 	movl   $0xb022aa4f,-0x1488(%rbp)
   1129e:	aa 22 b0 
   112a1:	c7 85 7c eb ff ff 00 	movl   $0x0,-0x1484(%rbp)
   112a8:	00 00 00 
   112ab:	48 c7 85 88 e6 ff ff 	movq   $0x0,-0x1978(%rbp)
   112b2:	00 00 00 00 
   112b6:	48 8d 05 a3 ba 01 00 	lea    0x1baa3(%rip),%rax        # 2cd60 <g_965>
   112bd:	48 89 85 10 ea ff ff 	mov    %rax,-0x15f0(%rbp)
   112c4:	48 8d 05 95 ba 01 00 	lea    0x1ba95(%rip),%rax        # 2cd60 <g_965>
   112cb:	48 89 85 18 ea ff ff 	mov    %rax,-0x15e8(%rbp)
   112d2:	48 8d 05 87 ba 01 00 	lea    0x1ba87(%rip),%rax        # 2cd60 <g_965>
   112d9:	48 89 85 20 ea ff ff 	mov    %rax,-0x15e0(%rbp)
   112e0:	48 8d 05 79 ba 01 00 	lea    0x1ba79(%rip),%rax        # 2cd60 <g_965>
   112e7:	48 89 85 28 ea ff ff 	mov    %rax,-0x15d8(%rbp)
   112ee:	48 8d 05 6b ba 01 00 	lea    0x1ba6b(%rip),%rax        # 2cd60 <g_965>
   112f5:	48 89 85 30 ea ff ff 	mov    %rax,-0x15d0(%rbp)
   112fc:	48 8d 05 5d ba 01 00 	lea    0x1ba5d(%rip),%rax        # 2cd60 <g_965>
   11303:	48 89 85 38 ea ff ff 	mov    %rax,-0x15c8(%rbp)
   1130a:	c7 85 28 e4 ff ff 66 	movl   $0x8ce0db66,-0x1bd8(%rbp)
   11311:	db e0 8c 
   11314:	48 b8 84 c0 b0 2d ea 	movabs $0x1b4c49ea2db0c084,%rax
   1131b:	49 4c 1b 
   1131e:	48 89 85 e0 e9 ff ff 	mov    %rax,-0x1620(%rbp)
   11325:	48 b8 55 dd 00 b9 9c 	movabs $0xaef54a9cb900dd55,%rax
   1132c:	4a f5 ae 
   1132f:	48 89 85 e8 e9 ff ff 	mov    %rax,-0x1618(%rbp)
   11336:	48 c7 85 f0 e9 ff ff 	movq   $0xfffffffffffffffd,-0x1610(%rbp)
   1133d:	fd ff ff ff 
   11341:	c7 85 f8 e9 ff ff 26 	movl   $0xc8ca3a26,-0x1608(%rbp)
   11348:	3a ca c8 
   1134b:	48 c7 85 fc e9 ff ff 	movq   $0x0,-0x1604(%rbp)
   11352:	00 00 00 00 
   11356:	66 c7 85 04 ea ff ff 	movw   $0x1,-0x15fc(%rbp)
   1135d:	01 00 
   1135f:	48 b8 e2 e2 e2 e2 e2 	movabs $0xe2e2e2e2e2e2e2e2,%rax
   11366:	e2 e2 e2 
   11369:	48 89 85 4e e9 ff ff 	mov    %rax,-0x16b2(%rbp)
   11370:	48 b8 37 43 39 45 26 	movabs $0x365b592645394337,%rax
   11377:	59 5b 36 
   1137a:	48 89 85 90 e6 ff ff 	mov    %rax,-0x1970(%rbp)
   11381:	c6 85 f5 e3 ff ff 90 	movb   $0x90,-0x1c0b(%rbp)
   11388:	c6 85 f6 e3 ff ff ce 	movb   $0xce,-0x1c0a(%rbp)
   1138f:	c7 85 8c e4 ff ff 00 	movl   $0x0,-0x1b74(%rbp)
   11396:	00 00 00 
   11399:	eb 1b                	jmp    113b6 <func_4+0x8b3>
   1139b:	8b 85 8c e4 ff ff    	mov    -0x1b74(%rbp),%eax
   113a1:	48 98                	cltq   
   113a3:	48 c7 84 c5 38 e9 ff 	movq   $0xffffffffffffffff,-0x16c8(%rbp,%rax,8)
   113aa:	ff ff ff ff ff 
   113af:	83 85 8c e4 ff ff 01 	addl   $0x1,-0x1b74(%rbp)
   113b6:	83 bd 8c e4 ff ff 00 	cmpl   $0x0,-0x1b74(%rbp)
   113bd:	7e dc                	jle    1139b <func_4+0x898>
   113bf:	90                   	nop
   113c0:	48 8b 05 a9 b9 01 00 	mov    0x1b9a9(%rip),%rax        # 2cd70 <g_1149>
   113c7:	48 8b 95 f8 e5 ff ff 	mov    -0x1a08(%rbp),%rdx
   113ce:	48 89 10             	mov    %rdx,(%rax)
   113d1:	be 0c 00 00 00       	mov    $0xc,%esi
   113d6:	bf 00 00 00 00       	mov    $0x0,%edi
   113db:	e8 b2 b0 ff ff       	callq  c492 <safe_lshift_func_int16_t_s_s>
   113e0:	66 c1 e8 0f          	shr    $0xf,%ax
   113e4:	0f b6 d0             	movzbl %al,%edx
   113e7:	48 8b 85 68 e6 ff ff 	mov    -0x1998(%rbp),%rax
   113ee:	89 10                	mov    %edx,(%rax)
   113f0:	48 8b 85 f0 e5 ff ff 	mov    -0x1a10(%rbp),%rax
   113f7:	48 85 c0             	test   %rax,%rax
   113fa:	0f 95 c0             	setne  %al
   113fd:	0f b6 d0             	movzbl %al,%edx
   11400:	0f b6 85 f3 e3 ff ff 	movzbl -0x1c0d(%rbp),%eax
   11407:	48 8b 8d e0 e3 ff ff 	mov    -0x1c20(%rbp),%rcx
   1140e:	be e4 2b ca b3       	mov    $0xb3ca2be4,%esi
   11413:	48 31 f1             	xor    %rsi,%rcx
   11416:	48 39 c8             	cmp    %rcx,%rax
   11419:	0f 9c c0             	setl   %al
   1141c:	0f b6 c0             	movzbl %al,%eax
   1141f:	39 c2                	cmp    %eax,%edx
   11421:	0f 9f c0             	setg   %al
   11424:	0f b6 d0             	movzbl %al,%edx
   11427:	0f b6 85 f3 e3 ff ff 	movzbl -0x1c0d(%rbp),%eax
   1142e:	89 d6                	mov    %edx,%esi
   11430:	89 c7                	mov    %eax,%edi
   11432:	e8 15 b8 ff ff       	callq  cc4c <safe_lshift_func_uint8_t_u_u>
   11437:	b9 01 00 00 00       	mov    $0x1,%ecx
   1143c:	48 8b 85 f8 e5 ff ff 	mov    -0x1a08(%rbp),%rax
   11443:	8b 10                	mov    (%rax),%edx
   11445:	48 8b 85 f8 e5 ff ff 	mov    -0x1a08(%rbp),%rax
   1144c:	31 ca                	xor    %ecx,%edx
   1144e:	89 10                	mov    %edx,(%rax)
   11450:	48 8b 85 f8 e5 ff ff 	mov    -0x1a08(%rbp),%rax
   11457:	44 8b 30             	mov    (%rax),%r14d
   1145a:	48 8b 05 5f b2 01 00 	mov    0x1b25f(%rip),%rax        # 2c6c0 <g_571>
   11461:	48 8b 00             	mov    (%rax),%rax
   11464:	48 85 c0             	test   %rax,%rax
   11467:	0f 85 4d 01 00 00    	jne    115ba <func_4+0xab7>
   1146d:	48 8b 85 f8 e5 ff ff 	mov    -0x1a08(%rbp),%rax
   11474:	44 8b 38             	mov    (%rax),%r15d
   11477:	48 8b 85 e0 e3 ff ff 	mov    -0x1c20(%rbp),%rax
   1147e:	0f bf d8             	movswl %ax,%ebx
   11481:	44 0f bf a5 ec e3 ff 	movswl -0x1c14(%rbp),%r12d
   11488:	ff 
   11489:	8b 05 7d 73 01 00    	mov    0x1737d(%rip),%eax        # 2880c <g_1279>
   1148f:	8b 05 23 70 01 00    	mov    0x17023(%rip),%eax        # 284b8 <g_98+0x18>
   11495:	89 c2                	mov    %eax,%edx
   11497:	48 8b 85 70 e6 ff ff 	mov    -0x1990(%rbp),%rax
   1149e:	48 89 10             	mov    %rdx,(%rax)
   114a1:	48 8b 85 70 e6 ff ff 	mov    -0x1990(%rbp),%rax
   114a8:	48 8b 00             	mov    (%rax),%rax
   114ab:	48 89 85 d8 e3 ff ff 	mov    %rax,-0x1c28(%rbp)
   114b2:	48 8d 05 2f b2 01 00 	lea    0x1b22f(%rip),%rax        # 2c6e8 <g_744>
   114b9:	48 89 85 00 e6 ff ff 	mov    %rax,-0x1a00(%rbp)
   114c0:	0f b7 85 ec e3 ff ff 	movzwl -0x1c14(%rbp),%eax
   114c7:	44 0f be e8          	movsbl %al,%r13d
   114cb:	48 83 bd 78 e6 ff ff 	cmpq   $0x0,-0x1988(%rbp)
   114d2:	00 
   114d3:	0f 95 c0             	setne  %al
   114d6:	0f b6 c0             	movzbl %al,%eax
   114d9:	be 05 00 00 00       	mov    $0x5,%esi
   114de:	89 c7                	mov    %eax,%edi
   114e0:	e8 d9 b7 ff ff       	callq  ccbe <safe_rshift_func_uint8_t_u_u>
   114e5:	0f b6 d0             	movzbl %al,%edx
   114e8:	8b 05 56 bf 01 00    	mov    0x1bf56(%rip),%eax        # 2d444 <g_121>
   114ee:	31 d0                	xor    %edx,%eax
   114f0:	83 f8 78             	cmp    $0x78,%eax
   114f3:	76 13                	jbe    11508 <func_4+0xa05>
   114f5:	0f b7 85 06 e4 ff ff 	movzwl -0x1bfa(%rbp),%eax
   114fc:	66 85 c0             	test   %ax,%ax
   114ff:	74 07                	je     11508 <func_4+0xa05>
   11501:	b8 01 00 00 00       	mov    $0x1,%eax
   11506:	eb 05                	jmp    1150d <func_4+0xa0a>
   11508:	b8 00 00 00 00       	mov    $0x0,%eax
   1150d:	0f be c0             	movsbl %al,%eax
   11510:	44 89 ee             	mov    %r13d,%esi
   11513:	89 c7                	mov    %eax,%edi
   11515:	e8 f8 ac ff ff       	callq  c212 <safe_mul_func_int8_t_s_s>
   1151a:	48 0f be d0          	movsbq %al,%rdx
   1151e:	48 8b 85 e0 e3 ff ff 	mov    -0x1c20(%rbp),%rax
   11525:	48 09 d0             	or     %rdx,%rax
   11528:	48 85 c0             	test   %rax,%rax
   1152b:	74 07                	je     11534 <func_4+0xa31>
   1152d:	b8 01 00 00 00       	mov    $0x1,%eax
   11532:	eb 05                	jmp    11539 <func_4+0xa36>
   11534:	b8 00 00 00 00       	mov    $0x0,%eax
   11539:	48 98                	cltq   
   1153b:	48 39 85 d8 e3 ff ff 	cmp    %rax,-0x1c28(%rbp)
   11542:	0f 97 c0             	seta   %al
   11545:	0f b6 c0             	movzbl %al,%eax
   11548:	48 be 8a 24 1f 5c be 	movabs $0x3584d4be5c1f248a,%rsi
   1154f:	d4 84 35 
   11552:	48 89 c7             	mov    %rax,%rdi
   11555:	e8 f1 ba ff ff       	callq  d04b <safe_sub_func_uint64_t_u_u>
   1155a:	89 c2                	mov    %eax,%edx
   1155c:	0f b7 85 ec e3 ff ff 	movzwl -0x1c14(%rbp),%eax
   11563:	21 d0                	and    %edx,%eax
   11565:	98                   	cwtl   
   11566:	44 89 e6             	mov    %r12d,%esi
   11569:	89 c7                	mov    %eax,%edi
   1156b:	e8 43 ae ff ff       	callq  c3b3 <safe_add_func_int16_t_s_s>
   11570:	66 c1 e8 0f          	shr    $0xf,%ax
   11574:	0f b6 d0             	movzbl %al,%edx
   11577:	48 8b 85 e0 e3 ff ff 	mov    -0x1c20(%rbp),%rax
   1157e:	48 39 c2             	cmp    %rax,%rdx
   11581:	0f 9d c0             	setge  %al
   11584:	0f b6 c0             	movzbl %al,%eax
   11587:	89 de                	mov    %ebx,%esi
   11589:	89 c7                	mov    %eax,%edi
   1158b:	e8 86 ae ff ff       	callq  c416 <safe_mod_func_int16_t_s_s>
   11590:	66 c1 e8 0f          	shr    $0xf,%ax
   11594:	0f b6 c0             	movzbl %al,%eax
   11597:	44 09 f8             	or     %r15d,%eax
   1159a:	85 c0                	test   %eax,%eax
   1159c:	74 07                	je     115a5 <func_4+0xaa2>
   1159e:	b8 01 00 00 00       	mov    $0x1,%eax
   115a3:	eb 05                	jmp    115aa <func_4+0xaa7>
   115a5:	b8 00 00 00 00       	mov    $0x0,%eax
   115aa:	be 08 00 00 00       	mov    $0x8,%esi
   115af:	89 c7                	mov    %eax,%edi
   115b1:	e8 1a b9 ff ff       	callq  ced0 <safe_sub_func_uint32_t_u_u>
   115b6:	85 c0                	test   %eax,%eax
   115b8:	74 07                	je     115c1 <func_4+0xabe>
   115ba:	b8 01 00 00 00       	mov    $0x1,%eax
   115bf:	eb 05                	jmp    115c6 <func_4+0xac3>
   115c1:	b8 00 00 00 00       	mov    $0x0,%eax
   115c6:	89 c2                	mov    %eax,%edx
   115c8:	48 8b 85 f8 e5 ff ff 	mov    -0x1a08(%rbp),%rax
   115cf:	8b 00                	mov    (%rax),%eax
   115d1:	09 d0                	or     %edx,%eax
   115d3:	0f b7 c0             	movzwl %ax,%eax
   115d6:	be 7c 75 00 00       	mov    $0x757c,%esi
   115db:	89 c7                	mov    %eax,%edi
   115dd:	e8 ac b7 ff ff       	callq  cd8e <safe_div_func_uint16_t_u_u>
   115e2:	0f b7 c0             	movzwl %ax,%eax
   115e5:	41 39 c6             	cmp    %eax,%r14d
   115e8:	0f 9f c0             	setg   %al
   115eb:	0f b6 d0             	movzbl %al,%edx
   115ee:	48 8b 85 e0 e3 ff ff 	mov    -0x1c20(%rbp),%rax
   115f5:	48 39 c2             	cmp    %rax,%rdx
   115f8:	74 07                	je     11601 <func_4+0xafe>
   115fa:	b8 01 00 00 00       	mov    $0x1,%eax
   115ff:	eb 05                	jmp    11606 <func_4+0xb03>
   11601:	b8 00 00 00 00       	mov    $0x0,%eax
   11606:	48 63 d0             	movslq %eax,%rdx
   11609:	48 8b 05 b8 b0 01 00 	mov    0x1b0b8(%rip),%rax        # 2c6c8 <g_570>
   11610:	48 8b 00             	mov    (%rax),%rax
   11613:	48 8b 00             	mov    (%rax),%rax
   11616:	48 39 c2             	cmp    %rax,%rdx
   11619:	0f 9e c0             	setle  %al
   1161c:	0f b6 d0             	movzbl %al,%edx
   1161f:	48 8b 85 e0 e3 ff ff 	mov    -0x1c20(%rbp),%rax
   11626:	48 39 c2             	cmp    %rax,%rdx
   11629:	0f 8f 46 15 00 00    	jg     12b75 <func_4+0x2072>
   1162f:	48 8d 95 00 ec ff ff 	lea    -0x1400(%rbp),%rdx
   11636:	b8 00 00 00 00       	mov    $0x0,%eax
   1163b:	b9 12 00 00 00       	mov    $0x12,%ecx
   11640:	48 89 d7             	mov    %rdx,%rdi
   11643:	f3 48 ab             	rep stos %rax,%es:(%rdi)
   11646:	48 8d 05 83 6a 01 00 	lea    0x16a83(%rip),%rax        # 280d0 <g_82>
   1164d:	48 89 85 b0 e9 ff ff 	mov    %rax,-0x1650(%rbp)
   11654:	48 8d 05 75 6a 01 00 	lea    0x16a75(%rip),%rax        # 280d0 <g_82>
   1165b:	48 89 85 b8 e9 ff ff 	mov    %rax,-0x1648(%rbp)
   11662:	48 8d 05 67 6a 01 00 	lea    0x16a67(%rip),%rax        # 280d0 <g_82>
   11669:	48 89 85 c0 e9 ff ff 	mov    %rax,-0x1640(%rbp)
   11670:	48 8d 05 59 6a 01 00 	lea    0x16a59(%rip),%rax        # 280d0 <g_82>
   11677:	48 89 85 c8 e9 ff ff 	mov    %rax,-0x1638(%rbp)
   1167e:	66 c7 85 16 e4 ff ff 	movw   $0x8bc4,-0x1bea(%rbp)
   11685:	c4 8b 
   11687:	c7 85 40 ea ff ff 71 	movl   $0xaf2c2571,-0x15c0(%rbp)
   1168e:	25 2c af 
   11691:	c7 85 44 ea ff ff 71 	movl   $0xaf2c2571,-0x15bc(%rbp)
   11698:	25 2c af 
   1169b:	c7 85 48 ea ff ff 71 	movl   $0xaf2c2571,-0x15b8(%rbp)
   116a2:	25 2c af 
   116a5:	c7 85 4c ea ff ff 71 	movl   $0xaf2c2571,-0x15b4(%rbp)
   116ac:	25 2c af 
   116af:	c7 85 50 ea ff ff 71 	movl   $0xaf2c2571,-0x15b0(%rbp)
   116b6:	25 2c af 
   116b9:	c7 85 54 ea ff ff 71 	movl   $0xaf2c2571,-0x15ac(%rbp)
   116c0:	25 2c af 
   116c3:	c7 85 58 ea ff ff 71 	movl   $0xaf2c2571,-0x15a8(%rbp)
   116ca:	25 2c af 
   116cd:	c7 85 5c ea ff ff 71 	movl   $0xaf2c2571,-0x15a4(%rbp)
   116d4:	25 2c af 
   116d7:	66 c7 85 18 e4 ff ff 	movw   $0xffff,-0x1be8(%rbp)
   116de:	ff ff 
   116e0:	c7 85 20 e6 ff ff 01 	movl   $0x1,-0x19e0(%rbp)
   116e7:	00 00 00 
   116ea:	48 8d 85 20 e6 ff ff 	lea    -0x19e0(%rbp),%rax
   116f1:	48 89 85 60 e7 ff ff 	mov    %rax,-0x18a0(%rbp)
   116f8:	48 c7 85 68 e7 ff ff 	movq   $0x1,-0x1898(%rbp)
   116ff:	01 00 00 00 
   11703:	66 c7 85 ec e3 ff ff 	movw   $0x0,-0x1c14(%rbp)
   1170a:	00 00 
   1170c:	e9 fa 00 00 00       	jmpq   1180b <func_4+0xd08>
   11711:	c7 85 b4 e5 ff ff 05 	movl   $0x5,-0x1a4c(%rbp)
   11718:	00 00 00 
   1171b:	48 8b 05 9a 6d 01 00 	mov    0x16d9a(%rip),%rax        # 284bc <g_98+0x1c>
   11722:	89 c3                	mov    %eax,%ebx
   11724:	48 8b 85 c8 e9 ff ff 	mov    -0x1638(%rbp),%rax
   1172b:	48 89 85 c8 e9 ff ff 	mov    %rax,-0x1638(%rbp)
   11732:	48 8b 85 c8 e9 ff ff 	mov    -0x1638(%rbp),%rax
   11739:	48 8d 15 c8 6d 01 00 	lea    0x16dc8(%rip),%rdx        # 28508 <g_208>
   11740:	48 39 d0             	cmp    %rdx,%rax
   11743:	48 8b 95 38 ec ff ff 	mov    -0x13c8(%rbp),%rdx
   1174a:	48 8b 85 08 e6 ff ff 	mov    -0x19f8(%rbp),%rax
   11751:	48 39 c2             	cmp    %rax,%rdx
   11754:	48 8b 05 e5 68 01 00 	mov    0x168e5(%rip),%rax        # 28040 <g_18>
   1175b:	0f be d0             	movsbl %al,%edx
   1175e:	0f b7 8d 16 e4 ff ff 	movzwl -0x1bea(%rbp),%ecx
   11765:	48 8b 05 b4 b0 01 00 	mov    0x1b0b4(%rip),%rax        # 2c820 <g_742>
   1176c:	48 8b 00             	mov    (%rax),%rax
   1176f:	48 8b 00             	mov    (%rax),%rax
   11772:	0f b7 00             	movzwl (%rax),%eax
   11775:	98                   	cwtl   
   11776:	89 85 44 ea ff ff    	mov    %eax,-0x15bc(%rbp)
   1177c:	8b 85 44 ea ff ff    	mov    -0x15bc(%rbp),%eax
   11782:	39 c1                	cmp    %eax,%ecx
   11784:	0f 95 c0             	setne  %al
   11787:	89 c1                	mov    %eax,%ecx
   11789:	8b 85 b4 e5 ff ff    	mov    -0x1a4c(%rbp),%eax
   1178f:	31 c8                	xor    %ecx,%eax
   11791:	0f be c0             	movsbl %al,%eax
   11794:	89 d6                	mov    %edx,%esi
   11796:	89 c7                	mov    %eax,%edi
   11798:	e8 75 aa ff ff       	callq  c212 <safe_mul_func_int8_t_s_s>
   1179d:	66 98                	cbtw   
   1179f:	66 39 85 ec e3 ff ff 	cmp    %ax,-0x1c14(%rbp)
   117a6:	0f 9c c0             	setl   %al
   117a9:	0f b6 d0             	movzbl %al,%edx
   117ac:	0f bf 85 ec e3 ff ff 	movswl -0x1c14(%rbp),%eax
   117b3:	39 c2                	cmp    %eax,%edx
   117b5:	0f 95 c0             	setne  %al
   117b8:	0f b6 d0             	movzbl %al,%edx
   117bb:	48 8b 05 fa 6f 01 00 	mov    0x16ffa(%rip),%rax        # 287bc <g_1037+0x1c>
   117c2:	48 39 c2             	cmp    %rax,%rdx
   117c5:	89 de                	mov    %ebx,%esi
   117c7:	bf 01 00 00 00       	mov    $0x1,%edi
   117cc:	e8 9b ab ff ff       	callq  c36c <safe_rshift_func_int8_t_s_u>
   117d1:	48 0f be d0          	movsbq %al,%rdx
   117d5:	48 8b 05 d4 6f 01 00 	mov    0x16fd4(%rip),%rax        # 287b0 <g_1037+0x10>
   117dc:	48 39 c2             	cmp    %rax,%rdx
   117df:	48 c7 c1 ff ff ff ff 	mov    $0xffffffffffffffff,%rcx
   117e6:	48 8b 05 53 ae 01 00 	mov    0x1ae53(%rip),%rax        # 2c640 <g_460>
   117ed:	8b 10                	mov    (%rax),%edx
   117ef:	48 8b 05 4a ae 01 00 	mov    0x1ae4a(%rip),%rax        # 2c640 <g_460>
   117f6:	31 ca                	xor    %ecx,%edx
   117f8:	89 10                	mov    %edx,(%rax)
   117fa:	0f b7 85 ec e3 ff ff 	movzwl -0x1c14(%rbp),%eax
   11801:	83 e8 01             	sub    $0x1,%eax
   11804:	66 89 85 ec e3 ff ff 	mov    %ax,-0x1c14(%rbp)
   1180b:	66 83 bd ec e3 ff ff 	cmpw   $0xffe2,-0x1c14(%rbp)
   11812:	e2 
   11813:	0f 85 f8 fe ff ff    	jne    11711 <func_4+0xc0e>
   11819:	48 c7 05 7c 6f 01 00 	movq   $0xffffffffffffffe7,0x16f7c(%rip)        # 287a0 <g_1037>
   11820:	e7 ff ff ff 
   11824:	eb 2c                	jmp    11852 <func_4+0xd4f>
   11826:	8b 05 e4 6f 01 00    	mov    0x16fe4(%rip),%eax        # 28810 <g_1307>
   1182c:	89 05 e2 6f 01 00    	mov    %eax,0x16fe2(%rip)        # 28814 <g_1308>
   11832:	48 8b 05 67 6f 01 00 	mov    0x16f67(%rip),%rax        # 287a0 <g_1037>
   11839:	0f b6 c0             	movzbl %al,%eax
   1183c:	be 01 00 00 00       	mov    $0x1,%esi
   11841:	89 c7                	mov    %eax,%edi
   11843:	e8 12 b3 ff ff       	callq  cb5a <safe_add_func_uint8_t_u_u>
   11848:	0f b6 c0             	movzbl %al,%eax
   1184b:	48 89 05 4e 6f 01 00 	mov    %rax,0x16f4e(%rip)        # 287a0 <g_1037>
   11852:	48 8b 05 47 6f 01 00 	mov    0x16f47(%rip),%rax        # 287a0 <g_1037>
   11859:	48 83 f8 18          	cmp    $0x18,%rax
   1185d:	76 c7                	jbe    11826 <func_4+0xd23>
   1185f:	48 c7 05 36 6f 01 00 	movq   $0x0,0x16f36(%rip)        # 287a0 <g_1037>
   11866:	00 00 00 00 
   1186a:	e9 f0 12 00 00       	jmpq   12b5f <func_4+0x205c>
   1186f:	c7 85 84 e4 ff ff 73 	movl   $0x42966273,-0x1b7c(%rbp)
   11876:	62 96 42 
   11879:	66 c7 85 1a e4 ff ff 	movw   $0xd5a4,-0x1be6(%rbp)
   11880:	a4 d5 
   11882:	c7 85 60 e5 ff ff 97 	movl   $0x16861597,-0x1aa0(%rbp)
   11889:	15 86 16 
   1188c:	c7 85 64 e5 ff ff 34 	movl   $0x3b344734,-0x1a9c(%rbp)
   11893:	47 34 3b 
   11896:	c7 85 68 e5 ff ff 00 	movl   $0x0,-0x1a98(%rbp)
   1189d:	00 00 00 
   118a0:	c7 85 80 e9 ff ff f8 	movl   $0xfffffff8,-0x1680(%rbp)
   118a7:	ff ff ff 
   118aa:	c7 85 84 e9 ff ff ff 	movl   $0xffffffff,-0x167c(%rbp)
   118b1:	ff ff ff 
   118b4:	c7 85 88 e9 ff ff ff 	movl   $0xffffffff,-0x1678(%rbp)
   118bb:	ff ff ff 
   118be:	c7 85 8c e9 ff ff f8 	movl   $0xfffffff8,-0x1674(%rbp)
   118c5:	ff ff ff 
   118c8:	c7 85 90 e9 ff ff ff 	movl   $0xffffffff,-0x1670(%rbp)
   118cf:	ff ff ff 
   118d2:	c7 85 94 e9 ff ff ff 	movl   $0xffffffff,-0x166c(%rbp)
   118d9:	ff ff ff 
   118dc:	c7 85 98 e9 ff ff f8 	movl   $0xfffffff8,-0x1668(%rbp)
   118e3:	ff ff ff 
   118e6:	c6 85 18 e6 ff ff 63 	movb   $0x63,-0x19e8(%rbp)
   118ed:	48 8d 05 0c ad 01 00 	lea    0x1ad0c(%rip),%rax        # 2c600 <g_278>
   118f4:	48 89 85 70 e7 ff ff 	mov    %rax,-0x1890(%rbp)
   118fb:	c7 85 50 e4 ff ff 00 	movl   $0x0,-0x1bb0(%rbp)
   11902:	00 00 00 
   11905:	eb 55                	jmp    1195c <func_4+0xe59>
   11907:	c7 85 54 e4 ff ff 00 	movl   $0x0,-0x1bac(%rbp)
   1190e:	00 00 00 
   11911:	eb 39                	jmp    1194c <func_4+0xe49>
   11913:	8b 85 54 e4 ff ff    	mov    -0x1bac(%rbp),%eax
   11919:	48 63 c8             	movslq %eax,%rcx
   1191c:	8b 85 50 e4 ff ff    	mov    -0x1bb0(%rbp),%eax
   11922:	48 63 d0             	movslq %eax,%rdx
   11925:	48 89 d0             	mov    %rdx,%rax
   11928:	48 c1 e0 02          	shl    $0x2,%rax
   1192c:	48 01 d0             	add    %rdx,%rax
   1192f:	48 01 c8             	add    %rcx,%rax
   11932:	48 8d 95 e0 e8 ff ff 	lea    -0x1720(%rbp),%rdx
   11939:	48 83 c2 24          	add    $0x24,%rdx
   1193d:	48 89 94 c5 80 eb ff 	mov    %rdx,-0x1480(%rbp,%rax,8)
   11944:	ff 
   11945:	83 85 54 e4 ff ff 01 	addl   $0x1,-0x1bac(%rbp)
   1194c:	83 bd 54 e4 ff ff 04 	cmpl   $0x4,-0x1bac(%rbp)
   11953:	7e be                	jle    11913 <func_4+0xe10>
   11955:	83 85 50 e4 ff ff 01 	addl   $0x1,-0x1bb0(%rbp)
   1195c:	83 bd 50 e4 ff ff 00 	cmpl   $0x0,-0x1bb0(%rbp)
   11963:	7e a2                	jle    11907 <func_4+0xe04>
   11965:	48 8b 05 34 6e 01 00 	mov    0x16e34(%rip),%rax        # 287a0 <g_1037>
   1196c:	48 8d 50 04          	lea    0x4(%rax),%rdx
   11970:	48 8b 05 29 6e 01 00 	mov    0x16e29(%rip),%rax        # 287a0 <g_1037>
   11977:	48 8d 48 03          	lea    0x3(%rax),%rcx
   1197b:	48 c1 e2 03          	shl    $0x3,%rdx
   1197f:	48 8d 05 da ac 01 00 	lea    0x1acda(%rip),%rax        # 2c660 <g_466>
   11986:	48 8b 04 02          	mov    (%rdx,%rax,1),%rax
   1198a:	48 c1 e1 03          	shl    $0x3,%rcx
   1198e:	48 8d 15 cb ac 01 00 	lea    0x1accb(%rip),%rdx        # 2c660 <g_466>
   11995:	48 89 04 11          	mov    %rax,(%rcx,%rdx,1)
   11999:	66 c7 05 f2 6d 01 00 	movw   $0x0,0x16df2(%rip)        # 28794 <g_625>
   119a0:	00 00 
   119a2:	e9 a5 0b 00 00       	jmpq   1254c <func_4+0x1a49>
   119a7:	c6 85 ff e3 ff ff aa 	movb   $0xaa,-0x1c01(%rbp)
   119ae:	48 c7 85 30 e6 ff ff 	movq   $0x0,-0x19d0(%rbp)
   119b5:	00 00 00 00 
   119b9:	48 8d 85 30 e6 ff ff 	lea    -0x19d0(%rbp),%rax
   119c0:	48 89 85 38 e6 ff ff 	mov    %rax,-0x19c8(%rbp)
   119c7:	48 8d 85 38 e6 ff ff 	lea    -0x19c8(%rbp),%rax
   119ce:	48 89 85 b8 e7 ff ff 	mov    %rax,-0x1848(%rbp)
   119d5:	c7 85 78 e5 ff ff 07 	movl   $0x7,-0x1a88(%rbp)
   119dc:	00 00 00 
   119df:	c7 85 7c e5 ff ff 43 	movl   $0xf97ef143,-0x1a84(%rbp)
   119e6:	f1 7e f9 
   119e9:	c7 85 80 e5 ff ff 8c 	movl   $0x7c5ecd8c,-0x1a80(%rbp)
   119f0:	cd 5e 7c 
   119f3:	c7 85 84 e5 ff ff ff 	movl   $0xffffffff,-0x1a7c(%rbp)
   119fa:	ff ff ff 
   119fd:	c7 85 88 e5 ff ff 08 	movl   $0x8,-0x1a78(%rbp)
   11a04:	00 00 00 
   11a07:	48 8d 85 30 f5 ff ff 	lea    -0xad0(%rbp),%rax
   11a0e:	48 8d 15 eb f8 00 00 	lea    0xf8eb(%rip),%rdx        # 21300 <g_1963+0x1ec>
   11a15:	b9 50 00 00 00       	mov    $0x50,%ecx
   11a1a:	48 89 c7             	mov    %rax,%rdi
   11a1d:	48 89 d6             	mov    %rdx,%rsi
   11a20:	f3 48 a5             	rep movsq %ds:(%rsi),%es:(%rdi)
   11a23:	c7 85 8c e5 ff ff 62 	movl   $0xbf726062,-0x1a74(%rbp)
   11a2a:	60 72 bf 
   11a2d:	48 c7 85 c0 e7 ff ff 	movq   $0xfffffffffffffffb,-0x1840(%rbp)
   11a34:	fb ff ff ff 
   11a38:	c6 85 00 e4 ff ff 00 	movb   $0x0,-0x1c00(%rbp)
   11a3f:	66 c7 85 30 ed ff ff 	movw   $0xc455,-0x12d0(%rbp)
   11a46:	55 c4 
   11a48:	66 c7 85 32 ed ff ff 	movw   $0x6,-0x12ce(%rbp)
   11a4f:	06 00 
   11a51:	66 c7 85 34 ed ff ff 	movw   $0x8b83,-0x12cc(%rbp)
   11a58:	83 8b 
   11a5a:	66 c7 85 36 ed ff ff 	movw   $0xf27b,-0x12ca(%rbp)
   11a61:	7b f2 
   11a63:	66 c7 85 38 ed ff ff 	movw   $0x4,-0x12c8(%rbp)
   11a6a:	04 00 
   11a6c:	66 c7 85 3a ed ff ff 	movw   $0x1919,-0x12c6(%rbp)
   11a73:	19 19 
   11a75:	66 c7 85 3c ed ff ff 	movw   $0x61f8,-0x12c4(%rbp)
   11a7c:	f8 61 
   11a7e:	66 c7 85 3e ed ff ff 	movw   $0x0,-0x12c2(%rbp)
   11a85:	00 00 
   11a87:	66 c7 85 40 ed ff ff 	movw   $0x0,-0x12c0(%rbp)
   11a8e:	00 00 
   11a90:	66 c7 85 42 ed ff ff 	movw   $0xfffc,-0x12be(%rbp)
   11a97:	fc ff 
   11a99:	66 c7 85 44 ed ff ff 	movw   $0x4,-0x12bc(%rbp)
   11aa0:	04 00 
   11aa2:	66 c7 85 46 ed ff ff 	movw   $0x0,-0x12ba(%rbp)
   11aa9:	00 00 
   11aab:	66 c7 85 48 ed ff ff 	movw   $0x1,-0x12b8(%rbp)
   11ab2:	01 00 
   11ab4:	66 c7 85 4a ed ff ff 	movw   $0x0,-0x12b6(%rbp)
   11abb:	00 00 
   11abd:	66 c7 85 4c ed ff ff 	movw   $0x4,-0x12b4(%rbp)
   11ac4:	04 00 
   11ac6:	66 c7 85 4e ed ff ff 	movw   $0xfffc,-0x12b2(%rbp)
   11acd:	fc ff 
   11acf:	66 c7 85 50 ed ff ff 	movw   $0x1,-0x12b0(%rbp)
   11ad6:	01 00 
   11ad8:	66 c7 85 52 ed ff ff 	movw   $0xfffc,-0x12ae(%rbp)
   11adf:	fc ff 
   11ae1:	66 c7 85 54 ed ff ff 	movw   $0xc455,-0x12ac(%rbp)
   11ae8:	55 c4 
   11aea:	66 c7 85 56 ed ff ff 	movw   $0x4,-0x12aa(%rbp)
   11af1:	04 00 
   11af3:	66 c7 85 58 ed ff ff 	movw   $0x61f8,-0x12a8(%rbp)
   11afa:	f8 61 
   11afc:	66 c7 85 5a ed ff ff 	movw   $0x6,-0x12a6(%rbp)
   11b03:	06 00 
   11b05:	66 c7 85 5c ed ff ff 	movw   $0xf27b,-0x12a4(%rbp)
   11b0c:	7b f2 
   11b0e:	66 c7 85 5e ed ff ff 	movw   $0x0,-0x12a2(%rbp)
   11b15:	00 00 
   11b17:	66 c7 85 60 ed ff ff 	movw   $0x8b83,-0x12a0(%rbp)
   11b1e:	83 8b 
   11b20:	66 c7 85 62 ed ff ff 	movw   $0x8b83,-0x129e(%rbp)
   11b27:	83 8b 
   11b29:	66 c7 85 64 ed ff ff 	movw   $0x0,-0x129c(%rbp)
   11b30:	00 00 
   11b32:	66 c7 85 66 ed ff ff 	movw   $0x1,-0x129a(%rbp)
   11b39:	01 00 
   11b3b:	66 c7 85 68 ed ff ff 	movw   $0xbfd6,-0x1298(%rbp)
   11b42:	d6 bf 
   11b44:	66 c7 85 6a ed ff ff 	movw   $0xdc1e,-0x1296(%rbp)
   11b4b:	1e dc 
   11b4d:	66 c7 85 6c ed ff ff 	movw   $0xbfd6,-0x1294(%rbp)
   11b54:	d6 bf 
   11b56:	66 c7 85 6e ed ff ff 	movw   $0x1,-0x1292(%rbp)
   11b5d:	01 00 
   11b5f:	66 c7 85 70 ed ff ff 	movw   $0x1,-0x1290(%rbp)
   11b66:	01 00 
   11b68:	66 c7 85 72 ed ff ff 	movw   $0xdc1e,-0x128e(%rbp)
   11b6f:	1e dc 
   11b71:	66 c7 85 74 ed ff ff 	movw   $0x1,-0x128c(%rbp)
   11b78:	01 00 
   11b7a:	66 c7 85 76 ed ff ff 	movw   $0x1,-0x128a(%rbp)
   11b81:	01 00 
   11b83:	66 c7 85 78 ed ff ff 	movw   $0x4,-0x1288(%rbp)
   11b8a:	04 00 
   11b8c:	66 c7 85 7a ed ff ff 	movw   $0x61f8,-0x1286(%rbp)
   11b93:	f8 61 
   11b95:	66 c7 85 7c ed ff ff 	movw   $0x6,-0x1284(%rbp)
   11b9c:	06 00 
   11b9e:	66 c7 85 7e ed ff ff 	movw   $0xf27b,-0x1282(%rbp)
   11ba5:	7b f2 
   11ba7:	66 c7 85 80 ed ff ff 	movw   $0x0,-0x1280(%rbp)
   11bae:	00 00 
   11bb0:	66 c7 85 82 ed ff ff 	movw   $0x8b83,-0x127e(%rbp)
   11bb7:	83 8b 
   11bb9:	66 c7 85 84 ed ff ff 	movw   $0x8b83,-0x127c(%rbp)
   11bc0:	83 8b 
   11bc2:	66 c7 85 86 ed ff ff 	movw   $0x0,-0x127a(%rbp)
   11bc9:	00 00 
   11bcb:	66 c7 85 88 ed ff ff 	movw   $0xf27b,-0x1278(%rbp)
   11bd2:	7b f2 
   11bd4:	66 c7 85 8a ed ff ff 	movw   $0x0,-0x1276(%rbp)
   11bdb:	00 00 
   11bdd:	66 c7 85 8c ed ff ff 	movw   $0x1,-0x1274(%rbp)
   11be4:	01 00 
   11be6:	66 c7 85 8e ed ff ff 	movw   $0x0,-0x1272(%rbp)
   11bed:	00 00 
   11bef:	66 c7 85 90 ed ff ff 	movw   $0x4,-0x1270(%rbp)
   11bf6:	04 00 
   11bf8:	66 c7 85 92 ed ff ff 	movw   $0xfffc,-0x126e(%rbp)
   11bff:	fc ff 
   11c01:	66 c7 85 94 ed ff ff 	movw   $0x1,-0x126c(%rbp)
   11c08:	01 00 
   11c0a:	66 c7 85 96 ed ff ff 	movw   $0xfffc,-0x126a(%rbp)
   11c11:	fc ff 
   11c13:	66 c7 85 98 ed ff ff 	movw   $0x4,-0x1268(%rbp)
   11c1a:	04 00 
   11c1c:	66 c7 85 9a ed ff ff 	movw   $0x0,-0x1266(%rbp)
   11c23:	00 00 
   11c25:	66 c7 85 9c ed ff ff 	movw   $0xf27b,-0x1264(%rbp)
   11c2c:	7b f2 
   11c2e:	66 c7 85 9e ed ff ff 	movw   $0x4,-0x1262(%rbp)
   11c35:	04 00 
   11c37:	66 c7 85 a0 ed ff ff 	movw   $0x1919,-0x1260(%rbp)
   11c3e:	19 19 
   11c40:	66 c7 85 a2 ed ff ff 	movw   $0x61f8,-0x125e(%rbp)
   11c47:	f8 61 
   11c49:	66 c7 85 a4 ed ff ff 	movw   $0x0,-0x125c(%rbp)
   11c50:	00 00 
   11c52:	66 c7 85 a6 ed ff ff 	movw   $0x0,-0x125a(%rbp)
   11c59:	00 00 
   11c5b:	66 c7 85 a8 ed ff ff 	movw   $0x61f8,-0x1258(%rbp)
   11c62:	f8 61 
   11c64:	66 c7 85 aa ed ff ff 	movw   $0x1919,-0x1256(%rbp)
   11c6b:	19 19 
   11c6d:	66 c7 85 ac ed ff ff 	movw   $0x4,-0x1254(%rbp)
   11c74:	04 00 
   11c76:	66 c7 85 ae ed ff ff 	movw   $0x1,-0x1252(%rbp)
   11c7d:	01 00 
   11c7f:	66 c7 85 b0 ed ff ff 	movw   $0x4832,-0x1250(%rbp)
   11c86:	32 48 
   11c88:	66 c7 85 b2 ed ff ff 	movw   $0xd08f,-0x124e(%rbp)
   11c8f:	8f d0 
   11c91:	66 c7 85 b4 ed ff ff 	movw   $0x4,-0x124c(%rbp)
   11c98:	04 00 
   11c9a:	66 c7 85 b6 ed ff ff 	movw   $0x1,-0x124a(%rbp)
   11ca1:	01 00 
   11ca3:	66 c7 85 b8 ed ff ff 	movw   $0x4,-0x1248(%rbp)
   11caa:	04 00 
   11cac:	66 c7 85 ba ed ff ff 	movw   $0xd08f,-0x1246(%rbp)
   11cb3:	8f d0 
   11cb5:	66 c7 85 bc ed ff ff 	movw   $0x4832,-0x1244(%rbp)
   11cbc:	32 48 
   11cbe:	66 c7 85 be ed ff ff 	movw   $0x1,-0x1242(%rbp)
   11cc5:	01 00 
   11cc7:	66 c7 85 c0 ed ff ff 	movw   $0x0,-0x1240(%rbp)
   11cce:	00 00 
   11cd0:	66 c7 85 c2 ed ff ff 	movw   $0x6,-0x123e(%rbp)
   11cd7:	06 00 
   11cd9:	66 c7 85 c4 ed ff ff 	movw   $0x1919,-0x123c(%rbp)
   11ce0:	19 19 
   11ce2:	66 c7 85 c6 ed ff ff 	movw   $0xf27b,-0x123a(%rbp)
   11ce9:	7b f2 
   11ceb:	66 c7 85 c8 ed ff ff 	movw   $0xf27b,-0x1238(%rbp)
   11cf2:	7b f2 
   11cf4:	66 c7 85 ca ed ff ff 	movw   $0x1919,-0x1236(%rbp)
   11cfb:	19 19 
   11cfd:	66 c7 85 cc ed ff ff 	movw   $0x6,-0x1234(%rbp)
   11d04:	06 00 
   11d06:	66 c7 85 ce ed ff ff 	movw   $0x0,-0x1232(%rbp)
   11d0d:	00 00 
   11d0f:	66 c7 85 d0 ed ff ff 	movw   $0xc455,-0x1230(%rbp)
   11d16:	55 c4 
   11d18:	66 c7 05 e5 67 01 00 	movw   $0x6,0x167e5(%rip)        # 28506 <g_171>
   11d1f:	06 00 
   11d21:	90                   	nop
   11d22:	0f b7 05 dd 67 01 00 	movzwl 0x167dd(%rip),%eax        # 28506 <g_171>
   11d29:	66 85 c0             	test   %ax,%ax
   11d2c:	0f 88 aa 03 00 00    	js     120dc <func_4+0x15d9>
   11d32:	48 8d 05 77 6a 01 00 	lea    0x16a77(%rip),%rax        # 287b0 <g_1037+0x10>
   11d39:	48 89 85 b0 f7 ff ff 	mov    %rax,-0x850(%rbp)
   11d40:	48 8d 85 e0 e8 ff ff 	lea    -0x1720(%rbp),%rax
   11d47:	48 83 c0 10          	add    $0x10,%rax
   11d4b:	48 89 85 b8 f7 ff ff 	mov    %rax,-0x848(%rbp)
   11d52:	48 8d 05 57 6a 01 00 	lea    0x16a57(%rip),%rax        # 287b0 <g_1037+0x10>
   11d59:	48 89 85 c0 f7 ff ff 	mov    %rax,-0x840(%rbp)
   11d60:	48 8d 85 e0 e8 ff ff 	lea    -0x1720(%rbp),%rax
   11d67:	48 83 c0 10          	add    $0x10,%rax
   11d6b:	48 89 85 c8 f7 ff ff 	mov    %rax,-0x838(%rbp)
   11d72:	48 8d 05 37 6a 01 00 	lea    0x16a37(%rip),%rax        # 287b0 <g_1037+0x10>
   11d79:	48 89 85 d0 f7 ff ff 	mov    %rax,-0x830(%rbp)
   11d80:	48 8d 05 69 67 01 00 	lea    0x16769(%rip),%rax        # 284f0 <g_146+0x10>
   11d87:	48 89 85 d8 f7 ff ff 	mov    %rax,-0x828(%rbp)
   11d8e:	48 8d 05 5b 67 01 00 	lea    0x1675b(%rip),%rax        # 284f0 <g_146+0x10>
   11d95:	48 89 85 e0 f7 ff ff 	mov    %rax,-0x820(%rbp)
   11d9c:	48 8d 05 4d 67 01 00 	lea    0x1674d(%rip),%rax        # 284f0 <g_146+0x10>
   11da3:	48 89 85 e8 f7 ff ff 	mov    %rax,-0x818(%rbp)
   11daa:	48 8d 05 3f 67 01 00 	lea    0x1673f(%rip),%rax        # 284f0 <g_146+0x10>
   11db1:	48 89 85 f0 f7 ff ff 	mov    %rax,-0x810(%rbp)
   11db8:	48 8d 05 31 67 01 00 	lea    0x16731(%rip),%rax        # 284f0 <g_146+0x10>
   11dbf:	48 89 85 f8 f7 ff ff 	mov    %rax,-0x808(%rbp)
   11dc6:	48 8d 05 e3 69 01 00 	lea    0x169e3(%rip),%rax        # 287b0 <g_1037+0x10>
   11dcd:	48 89 85 00 f8 ff ff 	mov    %rax,-0x800(%rbp)
   11dd4:	48 8d 85 e0 e8 ff ff 	lea    -0x1720(%rbp),%rax
   11ddb:	48 83 c0 10          	add    $0x10,%rax
   11ddf:	48 89 85 08 f8 ff ff 	mov    %rax,-0x7f8(%rbp)
   11de6:	48 8d 05 c3 69 01 00 	lea    0x169c3(%rip),%rax        # 287b0 <g_1037+0x10>
   11ded:	48 89 85 10 f8 ff ff 	mov    %rax,-0x7f0(%rbp)
   11df4:	48 8d 85 e0 e8 ff ff 	lea    -0x1720(%rbp),%rax
   11dfb:	48 83 c0 10          	add    $0x10,%rax
   11dff:	48 89 85 18 f8 ff ff 	mov    %rax,-0x7e8(%rbp)
   11e06:	48 8d 05 a3 69 01 00 	lea    0x169a3(%rip),%rax        # 287b0 <g_1037+0x10>
   11e0d:	48 89 85 20 f8 ff ff 	mov    %rax,-0x7e0(%rbp)
   11e14:	48 8d 05 d5 66 01 00 	lea    0x166d5(%rip),%rax        # 284f0 <g_146+0x10>
   11e1b:	48 89 85 28 f8 ff ff 	mov    %rax,-0x7d8(%rbp)
   11e22:	48 8d 05 c7 66 01 00 	lea    0x166c7(%rip),%rax        # 284f0 <g_146+0x10>
   11e29:	48 89 85 30 f8 ff ff 	mov    %rax,-0x7d0(%rbp)
   11e30:	48 8d 05 b9 66 01 00 	lea    0x166b9(%rip),%rax        # 284f0 <g_146+0x10>
   11e37:	48 89 85 38 f8 ff ff 	mov    %rax,-0x7c8(%rbp)
   11e3e:	48 8d 05 ab 66 01 00 	lea    0x166ab(%rip),%rax        # 284f0 <g_146+0x10>
   11e45:	48 89 85 40 f8 ff ff 	mov    %rax,-0x7c0(%rbp)
   11e4c:	48 8d 05 9d 66 01 00 	lea    0x1669d(%rip),%rax        # 284f0 <g_146+0x10>
   11e53:	48 89 85 48 f8 ff ff 	mov    %rax,-0x7b8(%rbp)
   11e5a:	48 8d 05 4f 69 01 00 	lea    0x1694f(%rip),%rax        # 287b0 <g_1037+0x10>
   11e61:	48 89 85 50 f8 ff ff 	mov    %rax,-0x7b0(%rbp)
   11e68:	48 8d 85 e0 e8 ff ff 	lea    -0x1720(%rbp),%rax
   11e6f:	48 83 c0 10          	add    $0x10,%rax
   11e73:	48 89 85 58 f8 ff ff 	mov    %rax,-0x7a8(%rbp)
   11e7a:	48 8d 05 2f 69 01 00 	lea    0x1692f(%rip),%rax        # 287b0 <g_1037+0x10>
   11e81:	48 89 85 60 f8 ff ff 	mov    %rax,-0x7a0(%rbp)
   11e88:	48 8d 85 e0 e8 ff ff 	lea    -0x1720(%rbp),%rax
   11e8f:	48 83 c0 10          	add    $0x10,%rax
   11e93:	48 89 85 68 f8 ff ff 	mov    %rax,-0x798(%rbp)
   11e9a:	48 8d 05 0f 69 01 00 	lea    0x1690f(%rip),%rax        # 287b0 <g_1037+0x10>
   11ea1:	48 89 85 70 f8 ff ff 	mov    %rax,-0x790(%rbp)
   11ea8:	48 8d 05 41 66 01 00 	lea    0x16641(%rip),%rax        # 284f0 <g_146+0x10>
   11eaf:	48 89 85 78 f8 ff ff 	mov    %rax,-0x788(%rbp)
   11eb6:	48 8d 05 33 66 01 00 	lea    0x16633(%rip),%rax        # 284f0 <g_146+0x10>
   11ebd:	48 89 85 80 f8 ff ff 	mov    %rax,-0x780(%rbp)
   11ec4:	48 8d 05 25 66 01 00 	lea    0x16625(%rip),%rax        # 284f0 <g_146+0x10>
   11ecb:	48 89 85 88 f8 ff ff 	mov    %rax,-0x778(%rbp)
   11ed2:	48 8d 05 17 66 01 00 	lea    0x16617(%rip),%rax        # 284f0 <g_146+0x10>
   11ed9:	48 89 85 90 f8 ff ff 	mov    %rax,-0x770(%rbp)
   11ee0:	48 8d 05 09 66 01 00 	lea    0x16609(%rip),%rax        # 284f0 <g_146+0x10>
   11ee7:	48 89 85 98 f8 ff ff 	mov    %rax,-0x768(%rbp)
   11eee:	48 8d 05 bb 68 01 00 	lea    0x168bb(%rip),%rax        # 287b0 <g_1037+0x10>
   11ef5:	48 89 85 a0 f8 ff ff 	mov    %rax,-0x760(%rbp)
   11efc:	48 8d 85 e0 e8 ff ff 	lea    -0x1720(%rbp),%rax
   11f03:	48 83 c0 10          	add    $0x10,%rax
   11f07:	48 89 85 a8 f8 ff ff 	mov    %rax,-0x758(%rbp)
   11f0e:	48 8d 05 9b 68 01 00 	lea    0x1689b(%rip),%rax        # 287b0 <g_1037+0x10>
   11f15:	48 89 85 b0 f8 ff ff 	mov    %rax,-0x750(%rbp)
   11f1c:	48 8d 85 e0 e8 ff ff 	lea    -0x1720(%rbp),%rax
   11f23:	48 83 c0 10          	add    $0x10,%rax
   11f27:	48 89 85 b8 f8 ff ff 	mov    %rax,-0x748(%rbp)
   11f2e:	48 8d 05 7b 68 01 00 	lea    0x1687b(%rip),%rax        # 287b0 <g_1037+0x10>
   11f35:	48 89 85 c0 f8 ff ff 	mov    %rax,-0x740(%rbp)
   11f3c:	48 8b 85 e0 e3 ff ff 	mov    -0x1c20(%rbp),%rax
   11f43:	89 85 d8 e3 ff ff    	mov    %eax,-0x1c28(%rbp)
   11f49:	0f b7 85 ec e3 ff ff 	movzwl -0x1c14(%rbp),%eax
   11f50:	0f b7 d8             	movzwl %ax,%ebx
   11f53:	0f b6 05 ae 65 01 00 	movzbl 0x165ae(%rip),%eax        # 28508 <g_208>
   11f5a:	8d 50 ff             	lea    -0x1(%rax),%edx
   11f5d:	88 15 a5 65 01 00    	mov    %dl,0x165a5(%rip)        # 28508 <g_208>
   11f63:	3c a4                	cmp    $0xa4,%al
   11f65:	0f 97 c0             	seta   %al
   11f68:	44 0f b6 e8          	movzbl %al,%r13d
   11f6c:	48 8b 85 f8 e5 ff ff 	mov    -0x1a08(%rbp),%rax
   11f73:	8b 00                	mov    (%rax),%eax
   11f75:	4c 63 e0             	movslq %eax,%r12
   11f78:	48 8b 05 49 a7 01 00 	mov    0x1a749(%rip),%rax        # 2c6c8 <g_570>
   11f7f:	48 8b 00             	mov    (%rax),%rax
   11f82:	4c 8b 30             	mov    (%rax),%r14
   11f85:	44 8b bd 44 ea ff ff 	mov    -0x15bc(%rbp),%r15d
   11f8c:	0f b6 85 ff e3 ff ff 	movzbl -0x1c01(%rbp),%eax
   11f93:	8b 15 cf b4 01 00    	mov    0x1b4cf(%rip),%edx        # 2d468 <g_868>
   11f99:	89 c6                	mov    %eax,%esi
   11f9b:	bf 00 00 00 00       	mov    $0x0,%edi
   11fa0:	e8 2e a4 ff ff       	callq  c3d3 <safe_sub_func_int16_t_s_s>
   11fa5:	0f bf d0             	movswl %ax,%edx
   11fa8:	0f b6 85 ff e3 ff ff 	movzbl -0x1c01(%rbp),%eax
   11faf:	39 c2                	cmp    %eax,%edx
   11fb1:	0f 9c c0             	setl   %al
   11fb4:	0f b6 d0             	movzbl %al,%edx
   11fb7:	0f b6 05 12 61 01 00 	movzbl 0x16112(%rip),%eax        # 280d0 <g_82>
   11fbe:	0f b6 c0             	movzbl %al,%eax
   11fc1:	39 c2                	cmp    %eax,%edx
   11fc3:	0f 9e c0             	setle  %al
   11fc6:	0f b6 c0             	movzbl %al,%eax
   11fc9:	44 21 f8             	and    %r15d,%eax
   11fcc:	89 85 54 ea ff ff    	mov    %eax,-0x15ac(%rbp)
   11fd2:	8b 85 54 ea ff ff    	mov    -0x15ac(%rbp),%eax
   11fd8:	48 98                	cltq   
   11fda:	4c 21 f0             	and    %r14,%rax
   11fdd:	48 85 c0             	test   %rax,%rax
   11fe0:	75 0f                	jne    11ff1 <func_4+0x14ee>
   11fe2:	48 8b 05 47 a6 01 00 	mov    0x1a647(%rip),%rax        # 2c630 <g_417>
   11fe9:	0f b7 00             	movzwl (%rax),%eax
   11fec:	66 85 c0             	test   %ax,%ax
   11fef:	74 07                	je     11ff8 <func_4+0x14f5>
   11ff1:	b8 01 00 00 00       	mov    $0x1,%eax
   11ff6:	eb 05                	jmp    11ffd <func_4+0x14fa>
   11ff8:	b8 00 00 00 00       	mov    $0x0,%eax
   11ffd:	83 f8 3d             	cmp    $0x3d,%eax
   12000:	0f 9f c2             	setg   %dl
   12003:	48 8b 05 b6 a6 01 00 	mov    0x1a6b6(%rip),%rax        # 2c6c0 <g_571>
   1200a:	0f b6 d2             	movzbl %dl,%edx
   1200d:	48 89 10             	mov    %rdx,(%rax)
   12010:	48 8b 00             	mov    (%rax),%rax
   12013:	4c 89 e6             	mov    %r12,%rsi
   12016:	48 89 c7             	mov    %rax,%rdi
   12019:	e8 96 a9 ff ff       	callq  c9b4 <safe_mod_func_int64_t_s_s>
   1201e:	0f b6 d0             	movzbl %al,%edx
   12021:	8b 05 d1 64 01 00    	mov    0x164d1(%rip),%eax        # 284f8 <g_146+0x18>
   12027:	0f b6 c0             	movzbl %al,%eax
   1202a:	89 d6                	mov    %edx,%esi
   1202c:	89 c7                	mov    %eax,%edi
   1202e:	e8 27 ab ff ff       	callq  cb5a <safe_add_func_uint8_t_u_u>
   12033:	84 c0                	test   %al,%al
   12035:	74 07                	je     1203e <func_4+0x153b>
   12037:	b8 01 00 00 00       	mov    $0x1,%eax
   1203c:	eb 05                	jmp    12043 <func_4+0x1540>
   1203e:	b8 00 00 00 00       	mov    $0x0,%eax
   12043:	0b 85 84 e4 ff ff    	or     -0x1b7c(%rbp),%eax
   12049:	83 f8 ff             	cmp    $0xffffffff,%eax
   1204c:	0f 95 c0             	setne  %al
   1204f:	0f b6 d0             	movzbl %al,%edx
   12052:	0f b6 85 ff e3 ff ff 	movzbl -0x1c01(%rbp),%eax
   12059:	39 c2                	cmp    %eax,%edx
   1205b:	0f 9f c0             	setg   %al
   1205e:	0f b6 c0             	movzbl %al,%eax
   12061:	be 08 00 00 00       	mov    $0x8,%esi
   12066:	89 c7                	mov    %eax,%edi
   12068:	e8 a9 a3 ff ff       	callq  c416 <safe_mod_func_int16_t_s_s>
   1206d:	98                   	cwtl   
   1206e:	41 39 c5             	cmp    %eax,%r13d
   12071:	0f 95 c2             	setne  %dl
   12074:	48 8b 05 b5 a5 01 00 	mov    0x1a5b5(%rip),%rax        # 2c630 <g_417>
   1207b:	0f b6 d2             	movzbl %dl,%edx
   1207e:	66 89 10             	mov    %dx,(%rax)
   12081:	0f b7 00             	movzwl (%rax),%eax
   12084:	0f b7 c0             	movzwl %ax,%eax
   12087:	89 de                	mov    %ebx,%esi
   12089:	89 c7                	mov    %eax,%edi
   1208b:	e8 cc ac ff ff       	callq  cd5c <safe_mod_func_uint16_t_u_u>
   12090:	0f b7 d0             	movzwl %ax,%edx
   12093:	48 8b 05 a6 a5 01 00 	mov    0x1a5a6(%rip),%rax        # 2c640 <g_460>
   1209a:	8b 00                	mov    (%rax),%eax
   1209c:	39 c2                	cmp    %eax,%edx
   1209e:	0f 9d c0             	setge  %al
   120a1:	0f b6 c0             	movzbl %al,%eax
   120a4:	8b b5 d8 e3 ff ff    	mov    -0x1c28(%rbp),%esi
   120aa:	89 c7                	mov    %eax,%edi
   120ac:	e8 05 a5 ff ff       	callq  c5b6 <safe_add_func_int32_t_s_s>
   120b1:	0f be d0             	movsbl %al,%edx
   120b4:	48 8b 85 e0 e3 ff ff 	mov    -0x1c20(%rbp),%rax
   120bb:	0f be c0             	movsbl %al,%eax
   120be:	89 d6                	mov    %edx,%esi
   120c0:	89 c7                	mov    %eax,%edi
   120c2:	e8 4b a1 ff ff       	callq  c212 <safe_mul_func_int8_t_s_s>
   120c7:	48 8b 05 52 a7 01 00 	mov    0x1a752(%rip),%rax        # 2c820 <g_742>
   120ce:	48 8b 00             	mov    (%rax),%rax
   120d1:	48 8b 00             	mov    (%rax),%rax
   120d4:	0f b7 00             	movzwl (%rax),%eax
   120d7:	e9 ec 5c 00 00       	jmpq   17dc8 <func_4+0x72c5>
   120dc:	48 8b 05 dd 5f 01 00 	mov    0x15fdd(%rip),%rax        # 280c0 <g_68>
   120e3:	48 85 c0             	test   %rax,%rax
   120e6:	74 05                	je     120ed <func_4+0x15ea>
   120e8:	e9 d3 f2 ff ff       	jmpq   113c0 <func_4+0x8bd>
   120ed:	0f b7 85 18 e4 ff ff 	movzwl -0x1be8(%rbp),%eax
   120f4:	0f b6 d0             	movzbl %al,%edx
   120f7:	0f b7 05 32 b3 01 00 	movzwl 0x1b332(%rip),%eax        # 2d430 <g_59+0x10>
   120fe:	88 05 cc 5f 01 00    	mov    %al,0x15fcc(%rip)        # 280d0 <g_82>
   12104:	0f b6 05 c5 5f 01 00 	movzbl 0x15fc5(%rip),%eax        # 280d0 <g_82>
   1210b:	0f b6 c0             	movzbl %al,%eax
   1210e:	89 d6                	mov    %edx,%esi
   12110:	89 c7                	mov    %eax,%edi
   12112:	e8 c4 aa ff ff       	callq  cbdb <safe_div_func_uint8_t_u_u>
   12117:	89 c2                	mov    %eax,%edx
   12119:	48 8b 05 18 a5 01 00 	mov    0x1a518(%rip),%rax        # 2c638 <g_416>
   12120:	48 8b 00             	mov    (%rax),%rax
   12123:	0f b6 d2             	movzbl %dl,%edx
   12126:	66 89 10             	mov    %dx,(%rax)
   12129:	0f b7 00             	movzwl (%rax),%eax
   1212c:	66 85 c0             	test   %ax,%ax
   1212f:	74 23                	je     12154 <func_4+0x1651>
   12131:	48 8b 05 b0 a5 01 00 	mov    0x1a5b0(%rip),%rax        # 2c6e8 <g_744>
   12138:	0f b7 00             	movzwl (%rax),%eax
   1213b:	98                   	cwtl   
   1213c:	be 03 00 00 00       	mov    $0x3,%esi
   12141:	89 c7                	mov    %eax,%edi
   12143:	e8 4a a3 ff ff       	callq  c492 <safe_lshift_func_int16_t_s_s>
   12148:	66 85 c0             	test   %ax,%ax
   1214b:	74 07                	je     12154 <func_4+0x1651>
   1214d:	b9 01 00 00 00       	mov    $0x1,%ecx
   12152:	eb 05                	jmp    12159 <func_4+0x1656>
   12154:	b9 00 00 00 00       	mov    $0x0,%ecx
   12159:	48 8b 85 f8 e5 ff ff 	mov    -0x1a08(%rbp),%rax
   12160:	8b 10                	mov    (%rax),%edx
   12162:	48 8b 85 f8 e5 ff ff 	mov    -0x1a08(%rbp),%rax
   12169:	21 ca                	and    %ecx,%edx
   1216b:	89 10                	mov    %edx,(%rax)
   1216d:	80 bd ff e3 ff ff 00 	cmpb   $0x0,-0x1c01(%rbp)
   12174:	0f 84 23 01 00 00    	je     1229d <func_4+0x179a>
   1217a:	48 b8 09 ac df 87 53 	movabs $0x17181a5387dfac09,%rax
   12181:	1a 18 17 
   12184:	48 89 85 10 e9 ff ff 	mov    %rax,-0x16f0(%rbp)
   1218b:	48 c7 85 18 e9 ff ff 	movq   $0x0,-0x16e8(%rbp)
   12192:	00 00 00 00 
   12196:	48 b8 ca 6f 3d e7 6f 	movabs $0xf691ce6fe73d6fca,%rax
   1219d:	ce 91 f6 
   121a0:	48 89 85 20 e9 ff ff 	mov    %rax,-0x16e0(%rbp)
   121a7:	c7 85 28 e9 ff ff fa 	movl   $0x557103fa,-0x16d8(%rbp)
   121ae:	03 71 55 
   121b1:	48 c7 85 2c e9 ff ff 	movq   $0x1,-0x16d4(%rbp)
   121b8:	01 00 00 00 
   121bc:	66 c7 85 34 e9 ff ff 	movw   $0xfb8e,-0x16cc(%rbp)
   121c3:	8e fb 
   121c5:	48 8d 85 b0 e9 ff ff 	lea    -0x1650(%rbp),%rax
   121cc:	48 83 c0 10          	add    $0x10,%rax
   121d0:	48 89 85 c8 e7 ff ff 	mov    %rax,-0x1838(%rbp)
   121d7:	48 8b 05 0a a5 01 00 	mov    0x1a50a(%rip),%rax        # 2c6e8 <g_744>
   121de:	0f b7 00             	movzwl (%rax),%eax
   121e1:	0f b7 d8             	movzwl %ax,%ebx
   121e4:	48 8d 05 dd a4 01 00 	lea    0x1a4dd(%rip),%rax        # 2c6c8 <g_570>
   121eb:	48 39 85 b8 e7 ff ff 	cmp    %rax,-0x1848(%rbp)
   121f2:	48 83 bd c8 e7 ff ff 	cmpq   $0x0,-0x1838(%rbp)
   121f9:	00 
   121fa:	0f 95 c0             	setne  %al
   121fd:	0f b6 d0             	movzbl %al,%edx
   12200:	48 8b 85 e0 e3 ff ff 	mov    -0x1c20(%rbp),%rax
   12207:	48 83 f8 01          	cmp    $0x1,%rax
   1220b:	0f 9e c0             	setle  %al
   1220e:	0f b6 c0             	movzbl %al,%eax
   12211:	39 c2                	cmp    %eax,%edx
   12213:	48 8b 05 66 ab 01 00 	mov    0x1ab66(%rip),%rax        # 2cd80 <g_1221>
   1221a:	48 8b 85 f8 e5 ff ff 	mov    -0x1a08(%rbp),%rax
   12221:	0f bf 95 ec e3 ff ff 	movswl -0x1c14(%rbp),%edx
   12228:	89 10                	mov    %edx,(%rax)
   1222a:	8b 10                	mov    (%rax),%edx
   1222c:	0f bf 85 ec e3 ff ff 	movswl -0x1c14(%rbp),%eax
   12233:	39 c2                	cmp    %eax,%edx
   12235:	0f 9e c0             	setle  %al
   12238:	0f b6 c0             	movzbl %al,%eax
   1223b:	48 c7 c6 fd ff ff ff 	mov    $0xfffffffffffffffd,%rsi
   12242:	48 89 c7             	mov    %rax,%rdi
   12245:	e8 01 ae ff ff       	callq  d04b <safe_sub_func_uint64_t_u_u>
   1224a:	98                   	cwtl   
   1224b:	be 0e 00 00 00       	mov    $0xe,%esi
   12250:	89 c7                	mov    %eax,%edi
   12252:	e8 0c a3 ff ff       	callq  c563 <safe_rshift_func_int16_t_s_u>
   12257:	0f b7 c0             	movzwl %ax,%eax
   1225a:	89 de                	mov    %ebx,%esi
   1225c:	89 c7                	mov    %eax,%edi
   1225e:	e8 da aa ff ff       	callq  cd3d <safe_mul_func_uint16_t_u_u>
   12263:	0f b7 d0             	movzwl %ax,%edx
   12266:	0f bf 85 ec e3 ff ff 	movswl -0x1c14(%rbp),%eax
   1226d:	89 d6                	mov    %edx,%esi
   1226f:	89 c7                	mov    %eax,%edi
   12271:	e8 56 a4 ff ff       	callq  c6cc <safe_mod_func_int32_t_s_s>
   12276:	98                   	cwtl   
   12277:	89 c6                	mov    %eax,%esi
   12279:	bf 05 00 00 00       	mov    $0x5,%edi
   1227e:	e8 72 a1 ff ff       	callq  c3f5 <safe_mul_func_int16_t_s_s>
   12283:	48 8b 95 e0 e3 ff ff 	mov    -0x1c20(%rbp),%rdx
   1228a:	8b 85 44 ea ff ff    	mov    -0x15bc(%rbp),%eax
   12290:	09 d0                	or     %edx,%eax
   12292:	89 85 44 ea ff ff    	mov    %eax,-0x15bc(%rbp)
   12298:	e9 9e 02 00 00       	jmpq   1253b <func_4+0x1a38>
   1229d:	c7 85 90 e5 ff ff 3b 	movl   $0xa0b0ba3b,-0x1a70(%rbp)
   122a4:	ba b0 a0 
   122a7:	c7 85 94 e5 ff ff 50 	movl   $0x68ba6050,-0x1a6c(%rbp)
   122ae:	60 ba 68 
   122b1:	c7 85 98 e5 ff ff 0d 	movl   $0x43eec90d,-0x1a68(%rbp)
   122b8:	c9 ee 43 
   122bb:	48 8d 85 d0 f2 ff ff 	lea    -0xd30(%rbp),%rax
   122c2:	48 8d 15 b7 f2 00 00 	lea    0xf2b7(%rip),%rdx        # 21580 <g_1963+0x46c>
   122c9:	b9 4b 00 00 00       	mov    $0x4b,%ecx
   122ce:	48 89 c7             	mov    %rax,%rdi
   122d1:	48 89 d6             	mov    %rdx,%rsi
   122d4:	f3 48 a5             	rep movsq %ds:(%rsi),%es:(%rdi)
   122d7:	c6 85 01 e4 ff ff 72 	movb   $0x72,-0x1bff(%rbp)
   122de:	48 c7 85 10 e9 ff ff 	movq   $0xffffffffffffffff,-0x16f0(%rbp)
   122e5:	ff ff ff ff 
   122e9:	48 c7 85 18 e9 ff ff 	movq   $0x1,-0x16e8(%rbp)
   122f0:	01 00 00 00 
   122f4:	48 b8 b3 95 db 00 95 	movabs $0xc37f439500db95b3,%rax
   122fb:	43 7f c3 
   122fe:	48 89 85 20 e9 ff ff 	mov    %rax,-0x16e0(%rbp)
   12305:	c7 85 28 e9 ff ff fa 	movl   $0x752ea7fa,-0x16d8(%rbp)
   1230c:	a7 2e 75 
   1230f:	48 b8 c2 c4 26 d1 85 	movabs $0xd48cb285d126c4c2,%rax
   12316:	b2 8c d4 
   12319:	48 89 85 2c e9 ff ff 	mov    %rax,-0x16d4(%rbp)
   12320:	66 c7 85 34 e9 ff ff 	movw   $0xb55a,-0x16cc(%rbp)
   12327:	5a b5 
   12329:	0f b6 85 01 e4 ff ff 	movzbl -0x1bff(%rbp),%eax
   12330:	83 c0 01             	add    $0x1,%eax
   12333:	88 85 01 e4 ff ff    	mov    %al,-0x1bff(%rbp)
   12339:	c7 85 84 e4 ff ff 00 	movl   $0x0,-0x1b7c(%rbp)
   12340:	00 00 00 
   12343:	e9 e3 01 00 00       	jmpq   1252b <func_4+0x1a28>
   12348:	c7 85 9c e5 ff ff ad 	movl   $0x17dffbad,-0x1a64(%rbp)
   1234f:	fb df 17 
   12352:	48 8d 85 b0 f7 ff ff 	lea    -0x850(%rbp),%rax
   12359:	48 8d 15 80 f4 00 00 	lea    0xf480(%rip),%rdx        # 217e0 <g_1963+0x6cc>
   12360:	b9 00 01 00 00       	mov    $0x100,%ecx
   12365:	48 89 c7             	mov    %rax,%rdi
   12368:	48 89 d6             	mov    %rdx,%rsi
   1236b:	f3 48 a5             	rep movsq %ds:(%rsi),%es:(%rdi)
   1236e:	c7 85 a0 e5 ff ff 07 	movl   $0x7,-0x1a60(%rbp)
   12375:	00 00 00 
   12378:	c7 85 a4 e5 ff ff 2b 	movl   $0xb2fa132b,-0x1a5c(%rbp)
   1237f:	13 fa b2 
   12382:	c7 85 a8 e5 ff ff 01 	movl   $0x1,-0x1a58(%rbp)
   12389:	00 00 00 
   1238c:	66 c7 85 1c e4 ff ff 	movw   $0x0,-0x1be4(%rbp)
   12393:	00 00 
   12395:	c7 85 ac e5 ff ff d8 	movl   $0x6b3740d8,-0x1a54(%rbp)
   1239c:	40 37 6b 
   1239f:	c7 85 b0 e5 ff ff 01 	movl   $0x1,-0x1a50(%rbp)
   123a6:	00 00 00 
   123a9:	0f b7 05 e4 63 01 00 	movzwl 0x163e4(%rip),%eax        # 28794 <g_625>
   123b0:	0f b7 c0             	movzwl %ax,%eax
   123b3:	83 c0 06             	add    $0x6,%eax
   123b6:	48 98                	cltq   
   123b8:	8b 95 84 e4 ff ff    	mov    -0x1b7c(%rbp),%edx
   123be:	48 63 d2             	movslq %edx,%rdx
   123c1:	48 c1 e2 03          	shl    $0x3,%rdx
   123c5:	48 01 d0             	add    %rdx,%rax
   123c8:	8b 84 85 40 ea ff ff 	mov    -0x15c0(%rbp,%rax,4),%eax
   123cf:	85 c0                	test   %eax,%eax
   123d1:	0f 85 63 01 00 00    	jne    1253a <func_4+0x1a37>
   123d7:	8b 85 24 e4 ff ff    	mov    -0x1bdc(%rbp),%eax
   123dd:	83 c0 01             	add    $0x1,%eax
   123e0:	89 85 24 e4 ff ff    	mov    %eax,-0x1bdc(%rbp)
   123e6:	48 8b 85 28 f9 ff ff 	mov    -0x6d8(%rbp),%rax
   123ed:	48 85 c0             	test   %rax,%rax
   123f0:	75 79                	jne    1246b <func_4+0x1968>
   123f2:	0f b7 05 9b 63 01 00 	movzwl 0x1639b(%rip),%eax        # 28794 <g_625>
   123f9:	0f b7 c0             	movzwl %ax,%eax
   123fc:	83 c0 06             	add    $0x6,%eax
   123ff:	48 98                	cltq   
   12401:	8b 95 84 e4 ff ff    	mov    -0x1b7c(%rbp),%edx
   12407:	48 63 d2             	movslq %edx,%rdx
   1240a:	48 c1 e2 03          	shl    $0x3,%rdx
   1240e:	48 01 d0             	add    %rdx,%rax
   12411:	8b 84 85 40 ea ff ff 	mov    -0x15c0(%rbp,%rax,4),%eax
   12418:	89 c2                	mov    %eax,%edx
   1241a:	48 8b 05 0f a2 01 00 	mov    0x1a20f(%rip),%rax        # 2c630 <g_417>
   12421:	0f b7 00             	movzwl (%rax),%eax
   12424:	0f b7 c0             	movzwl %ax,%eax
   12427:	89 d6                	mov    %edx,%esi
   12429:	89 c7                	mov    %eax,%edi
   1242b:	e8 4a aa ff ff       	callq  ce7a <safe_rshift_func_uint16_t_u_u>
   12430:	0f b7 d0             	movzwl %ax,%edx
   12433:	0f b7 85 ec e3 ff ff 	movzwl -0x1c14(%rbp),%eax
   1243a:	0f b6 c0             	movzbl %al,%eax
   1243d:	89 d6                	mov    %edx,%esi
   1243f:	89 c7                	mov    %eax,%edi
   12441:	e8 06 a8 ff ff       	callq  cc4c <safe_lshift_func_uint8_t_u_u>
   12446:	0f b6 d0             	movzbl %al,%edx
   12449:	0f bf 85 ec e3 ff ff 	movswl -0x1c14(%rbp),%eax
   12450:	39 c2                	cmp    %eax,%edx
   12452:	0f 95 c0             	setne  %al
   12455:	0f b6 c0             	movzbl %al,%eax
   12458:	be fd ff ff ff       	mov    $0xfffffffd,%esi
   1245d:	89 c7                	mov    %eax,%edi
   1245f:	e8 6f 9f ff ff       	callq  c3d3 <safe_sub_func_int16_t_s_s>
   12464:	b8 00 00 00 00       	mov    $0x0,%eax
   12469:	eb 05                	jmp    12470 <func_4+0x196d>
   1246b:	b8 01 00 00 00       	mov    $0x1,%eax
   12470:	89 c2                	mov    %eax,%edx
   12472:	48 8b 05 a7 a3 01 00 	mov    0x1a3a7(%rip),%rax        # 2c820 <g_742>
   12479:	48 8b 00             	mov    (%rax),%rax
   1247c:	48 8b 00             	mov    (%rax),%rax
   1247f:	0f b7 00             	movzwl (%rax),%eax
   12482:	66 85 c0             	test   %ax,%ax
   12485:	74 1d                	je     124a4 <func_4+0x19a1>
   12487:	48 8b 05 82 a1 01 00 	mov    0x1a182(%rip),%rax        # 2c610 <g_276>
   1248e:	48 c7 00 00 00 00 00 	movq   $0x0,(%rax)
   12495:	48 8b 00             	mov    (%rax),%rax
   12498:	48 85 c0             	test   %rax,%rax
   1249b:	74 07                	je     124a4 <func_4+0x19a1>
   1249d:	b8 01 00 00 00       	mov    $0x1,%eax
   124a2:	eb 05                	jmp    124a9 <func_4+0x19a6>
   124a4:	b8 00 00 00 00       	mov    $0x0,%eax
   124a9:	89 d6                	mov    %edx,%esi
   124ab:	89 c7                	mov    %eax,%edi
   124ad:	e8 4b aa ff ff       	callq  cefd <safe_mod_func_uint32_t_u_u>
   124b2:	48 8b 05 2f a2 01 00 	mov    0x1a22f(%rip),%rax        # 2c6e8 <g_744>
   124b9:	0f b7 00             	movzwl (%rax),%eax
   124bc:	0f bf d0             	movswl %ax,%edx
   124bf:	48 8b 05 7a a1 01 00 	mov    0x1a17a(%rip),%rax        # 2c640 <g_460>
   124c6:	8b 08                	mov    (%rax),%ecx
   124c8:	48 8b 85 c0 e7 ff ff 	mov    -0x1840(%rbp),%rax
   124cf:	89 c6                	mov    %eax,%esi
   124d1:	48 8b 05 68 a1 01 00 	mov    0x1a168(%rip),%rax        # 2c640 <g_460>
   124d8:	21 f1                	and    %esi,%ecx
   124da:	89 08                	mov    %ecx,(%rax)
   124dc:	8b 00                	mov    (%rax),%eax
   124de:	0f b7 c0             	movzwl %ax,%eax
   124e1:	89 d6                	mov    %edx,%esi
   124e3:	89 c7                	mov    %eax,%edi
   124e5:	e8 5e a9 ff ff       	callq  ce48 <safe_rshift_func_uint16_t_u_s>
   124ea:	66 85 c0             	test   %ax,%ax
   124ed:	74 11                	je     12500 <func_4+0x19fd>
   124ef:	8b 05 9b 62 01 00    	mov    0x1629b(%rip),%eax        # 28790 <g_623>
   124f5:	85 c0                	test   %eax,%eax
   124f7:	74 07                	je     12500 <func_4+0x19fd>
   124f9:	ba 01 00 00 00       	mov    $0x1,%edx
   124fe:	eb 05                	jmp    12505 <func_4+0x1a02>
   12500:	ba 00 00 00 00       	mov    $0x0,%edx
   12505:	8b 85 20 e6 ff ff    	mov    -0x19e0(%rbp),%eax
   1250b:	31 d0                	xor    %edx,%eax
   1250d:	89 85 20 e6 ff ff    	mov    %eax,-0x19e0(%rbp)
   12513:	0f b7 85 ca ed ff ff 	movzwl -0x1236(%rbp),%eax
   1251a:	83 c0 01             	add    $0x1,%eax
   1251d:	66 89 85 ca ed ff ff 	mov    %ax,-0x1236(%rbp)
   12524:	83 85 84 e4 ff ff 01 	addl   $0x1,-0x1b7c(%rbp)
   1252b:	83 bd 84 e4 ff ff 00 	cmpl   $0x0,-0x1b7c(%rbp)
   12532:	0f 8e 10 fe ff ff    	jle    12348 <func_4+0x1845>
   12538:	eb 01                	jmp    1253b <func_4+0x1a38>
   1253a:	90                   	nop
   1253b:	0f b7 05 52 62 01 00 	movzwl 0x16252(%rip),%eax        # 28794 <g_625>
   12542:	83 c0 01             	add    $0x1,%eax
   12545:	66 89 05 48 62 01 00 	mov    %ax,0x16248(%rip)        # 28794 <g_625>
   1254c:	0f b7 05 41 62 01 00 	movzwl 0x16241(%rip),%eax        # 28794 <g_625>
   12553:	66 83 f8 01          	cmp    $0x1,%ax
   12557:	0f 86 4a f4 ff ff    	jbe    119a7 <func_4+0xea4>
   1255d:	c7 05 dd ae 01 00 00 	movl   $0x0,0x1aedd(%rip)        # 2d444 <g_121>
   12564:	00 00 00 
   12567:	e9 cf 05 00 00       	jmpq   12b3b <func_4+0x2038>
   1256c:	48 8d 85 40 ea ff ff 	lea    -0x15c0(%rbp),%rax
   12573:	48 83 c0 04          	add    $0x4,%rax
   12577:	48 89 85 78 e7 ff ff 	mov    %rax,-0x1888(%rbp)
   1257e:	48 8d 05 b3 a0 01 00 	lea    0x1a0b3(%rip),%rax        # 2c638 <g_416>
   12585:	48 89 85 28 e6 ff ff 	mov    %rax,-0x19d8(%rbp)
   1258c:	48 8d 85 28 e6 ff ff 	lea    -0x19d8(%rbp),%rax
   12593:	48 89 85 30 e6 ff ff 	mov    %rax,-0x19d0(%rbp)
   1259a:	48 8d 85 30 e6 ff ff 	lea    -0x19d0(%rbp),%rax
   125a1:	48 89 85 80 e7 ff ff 	mov    %rax,-0x1880(%rbp)
   125a8:	48 8b 05 39 5f 01 00 	mov    0x15f39(%rip),%rax        # 284e8 <g_146+0x8>
   125af:	89 c1                	mov    %eax,%ecx
   125b1:	8b 05 89 ae 01 00    	mov    0x1ae89(%rip),%eax        # 2d440 <g_101>
   125b7:	c1 e0 03             	shl    $0x3,%eax
   125ba:	c0 f8 03             	sar    $0x3,%al
   125bd:	48 0f be d0          	movsbq %al,%rdx
   125c1:	48 8b 85 e0 e3 ff ff 	mov    -0x1c20(%rbp),%rax
   125c8:	48 39 c2             	cmp    %rax,%rdx
   125cb:	0f 9e c0             	setle  %al
   125ce:	89 c2                	mov    %eax,%edx
   125d0:	48 83 bd 70 e7 ff ff 	cmpq   $0x0,-0x1890(%rbp)
   125d7:	00 
   125d8:	0f 95 c0             	setne  %al
   125db:	31 d0                	xor    %edx,%eax
   125dd:	0f b6 c0             	movzbl %al,%eax
   125e0:	89 ce                	mov    %ecx,%esi
   125e2:	89 c7                	mov    %eax,%edi
   125e4:	e8 d5 a6 ff ff       	callq  ccbe <safe_rshift_func_uint8_t_u_u>
   125e9:	84 c0                	test   %al,%al
   125eb:	74 41                	je     1262e <func_4+0x1b2b>
   125ed:	48 8b 85 e0 e3 ff ff 	mov    -0x1c20(%rbp),%rax
   125f4:	48 85 c0             	test   %rax,%rax
   125f7:	0f 85 4f 05 00 00    	jne    12b4c <func_4+0x2049>
   125fd:	48 8b 05 9c 61 01 00 	mov    0x1619c(%rip),%rax        # 287a0 <g_1037>
   12604:	48 83 c0 04          	add    $0x4,%rax
   12608:	48 8d 0c c5 00 00 00 	lea    0x0(,%rax,8),%rcx
   1260f:	00 
   12610:	48 8d 15 49 a0 01 00 	lea    0x1a049(%rip),%rdx        # 2c660 <g_466>
   12617:	48 8b 85 78 e7 ff ff 	mov    -0x1888(%rbp),%rax
   1261e:	48 89 04 11          	mov    %rax,(%rcx,%rdx,1)
   12622:	0f b7 85 ec e3 ff ff 	movzwl -0x1c14(%rbp),%eax
   12629:	e9 9a 57 00 00       	jmpq   17dc8 <func_4+0x72c5>
   1262e:	c7 85 6c e5 ff ff 23 	movl   $0xf5bb1a23,-0x1a94(%rbp)
   12635:	1a bb f5 
   12638:	48 c7 85 88 e7 ff ff 	movq   $0x0,-0x1878(%rbp)
   1263f:	00 00 00 00 
   12643:	48 c7 05 62 61 01 00 	movq   $0x0,0x16162(%rip)        # 287b0 <g_1037+0x10>
   1264a:	00 00 00 00 
   1264e:	90                   	nop
   1264f:	48 8b 05 5a 61 01 00 	mov    0x1615a(%rip),%rax        # 287b0 <g_1037+0x10>
   12656:	48 85 c0             	test   %rax,%rax
   12659:	78 21                	js     1267c <func_4+0x1b79>
   1265b:	48 8b 15 4e 61 01 00 	mov    0x1614e(%rip),%rdx        # 287b0 <g_1037+0x10>
   12662:	48 8b 05 37 61 01 00 	mov    0x16137(%rip),%rax        # 287a0 <g_1037>
   12669:	48 c1 e2 03          	shl    $0x3,%rdx
   1266d:	48 01 d0             	add    %rdx,%rax
   12670:	8b 84 85 40 ea ff ff 	mov    -0x15c0(%rbp,%rax,4),%eax
   12677:	e9 4c 57 00 00       	jmpq   17dc8 <func_4+0x72c5>
   1267c:	8b 85 6c e5 ff ff    	mov    -0x1a94(%rbp),%eax
   12682:	0f be d0             	movsbl %al,%edx
   12685:	48 c7 05 e8 ad 01 00 	movq   $0x0,0x1ade8(%rip)        # 2d478 <g_1418>
   1268c:	00 00 00 00 
   12690:	48 8b 0d e1 ad 01 00 	mov    0x1ade1(%rip),%rcx        # 2d478 <g_1418>
   12697:	48 8d 85 18 e6 ff ff 	lea    -0x19e8(%rbp),%rax
   1269e:	48 39 c1             	cmp    %rax,%rcx
   126a1:	0f 95 c0             	setne  %al
   126a4:	0f b6 c8             	movzbl %al,%ecx
   126a7:	48 8b 85 78 e7 ff ff 	mov    -0x1888(%rbp),%rax
   126ae:	8b 00                	mov    (%rax),%eax
   126b0:	48 63 f0             	movslq %eax,%rsi
   126b3:	48 8b 85 e0 e3 ff ff 	mov    -0x1c20(%rbp),%rax
   126ba:	48 09 f0             	or     %rsi,%rax
   126bd:	48 89 c6             	mov    %rax,%rsi
   126c0:	48 8b 85 70 e6 ff ff 	mov    -0x1990(%rbp),%rax
   126c7:	48 89 30             	mov    %rsi,(%rax)
   126ca:	48 8b 85 70 e6 ff ff 	mov    -0x1990(%rbp),%rax
   126d1:	48 8b 00             	mov    (%rax),%rax
   126d4:	48 39 c1             	cmp    %rax,%rcx
   126d7:	74 11                	je     126ea <func_4+0x1be7>
   126d9:	66 83 bd ec e3 ff ff 	cmpw   $0x0,-0x1c14(%rbp)
   126e0:	00 
   126e1:	74 07                	je     126ea <func_4+0x1be7>
   126e3:	b9 01 00 00 00       	mov    $0x1,%ecx
   126e8:	eb 05                	jmp    126ef <func_4+0x1bec>
   126ea:	b9 00 00 00 00       	mov    $0x0,%ecx
   126ef:	48 8b 05 2a a1 01 00 	mov    0x1a12a(%rip),%rax        # 2c820 <g_742>
   126f6:	48 8b 00             	mov    (%rax),%rax
   126f9:	48 8b 00             	mov    (%rax),%rax
   126fc:	66 89 08             	mov    %cx,(%rax)
   126ff:	0f b7 00             	movzwl (%rax),%eax
   12702:	66 3d 09 0c          	cmp    $0xc09,%ax
   12706:	89 d6                	mov    %edx,%esi
   12708:	bf 39 00 00 00       	mov    $0x39,%edi
   1270d:	e8 00 9b ff ff       	callq  c212 <safe_mul_func_int8_t_s_s>
   12712:	0f be c0             	movsbl %al,%eax
   12715:	be ae ff ff ff       	mov    $0xffffffae,%esi
   1271a:	89 c7                	mov    %eax,%edi
   1271c:	e8 b3 9a ff ff       	callq  c1d4 <safe_add_func_int8_t_s_s>
   12721:	be 00 00 00 00       	mov    $0x0,%esi
   12726:	bf 00 00 00 00       	mov    $0x0,%edi
   1272b:	e8 05 9c ff ff       	callq  c335 <safe_rshift_func_int8_t_s_s>
   12730:	0f b6 c0             	movzbl %al,%eax
   12733:	be ff 00 00 00       	mov    $0xff,%esi
   12738:	89 c7                	mov    %eax,%edi
   1273a:	e8 9c a4 ff ff       	callq  cbdb <safe_div_func_uint8_t_u_u>
   1273f:	88 05 8b 59 01 00    	mov    %al,0x1598b(%rip)        # 280d0 <g_82>
   12745:	0f b6 05 84 59 01 00 	movzbl 0x15984(%rip),%eax        # 280d0 <g_82>
   1274c:	84 c0                	test   %al,%al
   1274e:	0f 84 11 01 00 00    	je     12865 <func_4+0x1d62>
   12754:	48 c7 85 10 e9 ff ff 	movq   $0x0,-0x16f0(%rbp)
   1275b:	00 00 00 00 
   1275f:	48 8d 85 10 e9 ff ff 	lea    -0x16f0(%rbp),%rax
   12766:	48 89 85 a8 e7 ff ff 	mov    %rax,-0x1858(%rbp)
   1276d:	c7 85 74 e5 ff ff ff 	movl   $0xffffffff,-0x1a8c(%rbp)
   12774:	ff ff ff 
   12777:	48 8d 85 f0 e5 ff ff 	lea    -0x1a10(%rbp),%rax
   1277e:	48 89 85 b0 e7 ff ff 	mov    %rax,-0x1850(%rbp)
   12785:	48 8b 95 10 e9 ff ff 	mov    -0x16f0(%rbp),%rdx
   1278c:	48 8b 85 a8 e7 ff ff 	mov    -0x1858(%rbp),%rax
   12793:	48 89 10             	mov    %rdx,(%rax)
   12796:	48 8b 85 a8 e7 ff ff 	mov    -0x1858(%rbp),%rax
   1279d:	4c 8b 20             	mov    (%rax),%r12
   127a0:	8b 85 6c e5 ff ff    	mov    -0x1a94(%rbp),%eax
   127a6:	48 63 d8             	movslq %eax,%rbx
   127a9:	0f b7 85 ec e3 ff ff 	movzwl -0x1c14(%rbp),%eax
   127b0:	0f b6 d0             	movzbl %al,%edx
   127b3:	48 8b 05 76 9e 01 00 	mov    0x19e76(%rip),%rax        # 2c630 <g_417>
   127ba:	0f b7 08             	movzwl (%rax),%ecx
   127bd:	83 e9 01             	sub    $0x1,%ecx
   127c0:	66 89 08             	mov    %cx,(%rax)
   127c3:	0f b7 00             	movzwl (%rax),%eax
   127c6:	66 3d 27 3b          	cmp    $0x3b27,%ax
   127ca:	0f 94 c0             	sete   %al
   127cd:	0f b6 c0             	movzbl %al,%eax
   127d0:	89 d6                	mov    %edx,%esi
   127d2:	89 c7                	mov    %eax,%edi
   127d4:	e8 ba a3 ff ff       	callq  cb93 <safe_mul_func_uint8_t_u_u>
   127d9:	0f be d0             	movsbl %al,%edx
   127dc:	8b 85 74 e5 ff ff    	mov    -0x1a8c(%rbp),%eax
   127e2:	0f be c0             	movsbl %al,%eax
   127e5:	89 d6                	mov    %edx,%esi
   127e7:	89 c7                	mov    %eax,%edi
   127e9:	e8 24 9a ff ff       	callq  c212 <safe_mul_func_int8_t_s_s>
   127ee:	48 0f be c0          	movsbq %al,%rax
   127f2:	48 89 de             	mov    %rbx,%rsi
   127f5:	48 89 c7             	mov    %rax,%rdi
   127f8:	e8 31 a8 ff ff       	callq  d02e <safe_add_func_uint64_t_u_u>
   127fd:	89 c6                	mov    %eax,%esi
   127ff:	bf fa ff ff ff       	mov    $0xfffffffa,%edi
   12804:	e8 c3 9e ff ff       	callq  c6cc <safe_mod_func_int32_t_s_s>
   12809:	0f b7 c0             	movzwl %ax,%eax
   1280c:	89 c7                	mov    %eax,%edi
   1280e:	e8 d6 a4 ff ff       	callq  cce9 <safe_unary_minus_func_uint16_t_u>
   12813:	48 83 bd 80 e7 ff ff 	cmpq   $0x0,-0x1880(%rbp)
   1281a:	00 
   1281b:	48 8b 85 b0 e7 ff ff 	mov    -0x1850(%rbp),%rax
   12822:	48 c7 00 00 00 00 00 	movq   $0x0,(%rax)
   12829:	48 8b 85 b0 e7 ff ff 	mov    -0x1850(%rbp),%rax
   12830:	48 8b 00             	mov    (%rax),%rax
   12833:	49 39 c4             	cmp    %rax,%r12
   12836:	0f 95 c0             	setne  %al
   12839:	0f b6 d0             	movzbl %al,%edx
   1283c:	48 8b 85 78 e7 ff ff 	mov    -0x1888(%rbp),%rax
   12843:	8b 00                	mov    (%rax),%eax
   12845:	09 c2                	or     %eax,%edx
   12847:	48 8b 85 78 e7 ff ff 	mov    -0x1888(%rbp),%rax
   1284e:	89 10                	mov    %edx,(%rax)
   12850:	48 8b 05 c9 9f 01 00 	mov    0x19fc9(%rip),%rax        # 2c820 <g_742>
   12857:	48 8b 00             	mov    (%rax),%rax
   1285a:	48 8b 00             	mov    (%rax),%rax
   1285d:	0f b7 00             	movzwl (%rax),%eax
   12860:	e9 63 55 00 00       	jmpq   17dc8 <func_4+0x72c5>
   12865:	48 8d 85 00 e6 ff ff 	lea    -0x1a00(%rbp),%rax
   1286c:	48 89 85 38 e6 ff ff 	mov    %rax,-0x19c8(%rbp)
   12873:	48 8d 85 38 e6 ff ff 	lea    -0x19c8(%rbp),%rax
   1287a:	48 89 85 90 e7 ff ff 	mov    %rax,-0x1870(%rbp)
   12881:	c7 85 70 e5 ff ff 32 	movl   $0xba4e6132,-0x1a90(%rbp)
   12888:	61 4e ba 
   1288b:	48 8d 05 0e 5f 01 00 	lea    0x15f0e(%rip),%rax        # 287a0 <g_1037>
   12892:	48 89 85 98 e7 ff ff 	mov    %rax,-0x1868(%rbp)
   12899:	48 8d 05 24 5f 01 00 	lea    0x15f24(%rip),%rax        # 287c4 <g_1037+0x24>
   128a0:	48 89 85 10 e9 ff ff 	mov    %rax,-0x16f0(%rbp)
   128a7:	48 c7 85 a0 e7 ff ff 	movq   $0x0,-0x1860(%rbp)
   128ae:	00 00 00 00 
   128b2:	c6 85 fe e3 ff ff 01 	movb   $0x1,-0x1c02(%rbp)
   128b9:	c7 85 58 e4 ff ff 00 	movl   $0x0,-0x1ba8(%rbp)
   128c0:	00 00 00 
   128c3:	eb 1e                	jmp    128e3 <func_4+0x1de0>
   128c5:	8b 85 58 e4 ff ff    	mov    -0x1ba8(%rbp),%eax
   128cb:	48 98                	cltq   
   128cd:	48 8d 95 10 e9 ff ff 	lea    -0x16f0(%rbp),%rdx
   128d4:	48 89 94 c5 b0 f7 ff 	mov    %rdx,-0x850(%rbp,%rax,8)
   128db:	ff 
   128dc:	83 85 58 e4 ff ff 01 	addl   $0x1,-0x1ba8(%rbp)
   128e3:	83 bd 58 e4 ff ff 03 	cmpl   $0x3,-0x1ba8(%rbp)
   128ea:	7e d9                	jle    128c5 <func_4+0x1dc2>
   128ec:	48 8d 85 40 ea ff ff 	lea    -0x15c0(%rbp),%rax
   128f3:	48 83 c0 04          	add    $0x4,%rax
   128f7:	48 89 85 60 e7 ff ff 	mov    %rax,-0x18a0(%rbp)
   128fe:	48 8b 85 f8 e5 ff ff 	mov    -0x1a08(%rbp),%rax
   12905:	8b 00                	mov    (%rax),%eax
   12907:	85 c0                	test   %eax,%eax
   12909:	0f 84 57 01 00 00    	je     12a66 <func_4+0x1f63>
   1290f:	0f b6 85 18 e6 ff ff 	movzbl -0x19e8(%rbp),%eax
   12916:	0f be d8             	movsbl %al,%ebx
   12919:	0f b7 85 ec e3 ff ff 	movzwl -0x1c14(%rbp),%eax
   12920:	44 0f be e0          	movsbl %al,%r12d
   12924:	48 8b 85 e0 e3 ff ff 	mov    -0x1c20(%rbp),%rax
   1292b:	44 0f b7 e8          	movzwl %ax,%r13d
   1292f:	0f b7 85 ec e3 ff ff 	movzwl -0x1c14(%rbp),%eax
   12936:	0f b6 d0             	movzbl %al,%edx
   12939:	48 8d 85 38 e6 ff ff 	lea    -0x19c8(%rbp),%rax
   12940:	48 39 85 90 e7 ff ff 	cmp    %rax,-0x1870(%rbp)
   12947:	0f 95 c0             	setne  %al
   1294a:	f7 d0                	not    %eax
   1294c:	0f b6 c0             	movzbl %al,%eax
   1294f:	89 d6                	mov    %edx,%esi
   12951:	89 c7                	mov    %eax,%edi
   12953:	e8 02 a2 ff ff       	callq  cb5a <safe_add_func_uint8_t_u_u>
   12958:	0f b6 d0             	movzbl %al,%edx
   1295b:	48 8b 05 de 9c 01 00 	mov    0x19cde(%rip),%rax        # 2c640 <g_460>
   12962:	8b 00                	mov    (%rax),%eax
   12964:	39 c2                	cmp    %eax,%edx
   12966:	0f 9d c0             	setge  %al
   12969:	0f b6 d0             	movzbl %al,%edx
   1296c:	48 8b 05 c5 9c 01 00 	mov    0x19cc5(%rip),%rax        # 2c638 <g_416>
   12973:	48 8b 00             	mov    (%rax),%rax
   12976:	0f b7 00             	movzwl (%rax),%eax
   12979:	0f b7 c0             	movzwl %ax,%eax
   1297c:	89 d6                	mov    %edx,%esi
   1297e:	89 c7                	mov    %eax,%edi
   12980:	e8 b8 a3 ff ff       	callq  cd3d <safe_mul_func_uint16_t_u_u>
   12985:	48 8b 85 60 e7 ff ff 	mov    -0x18a0(%rbp),%rax
   1298c:	8b 00                	mov    (%rax),%eax
   1298e:	89 c6                	mov    %eax,%esi
   12990:	bf f7 ff ff ff       	mov    $0xfffffff7,%edi
   12995:	e8 54 99 ff ff       	callq  c2ee <safe_lshift_func_int8_t_s_u>
   1299a:	8b 85 70 e5 ff ff    	mov    -0x1a90(%rbp),%eax
   129a0:	89 c6                	mov    %eax,%esi
   129a2:	bf 01 00 00 00       	mov    $0x1,%edi
   129a7:	e8 7e 9b ff ff       	callq  c52a <safe_rshift_func_int16_t_s_s>
   129ac:	48 0f bf d0          	movswq %ax,%rdx
   129b0:	48 8b 85 e0 e3 ff ff 	mov    -0x1c20(%rbp),%rax
   129b7:	48 39 c2             	cmp    %rax,%rdx
   129ba:	0f 9e c0             	setle  %al
   129bd:	0f b6 c0             	movzbl %al,%eax
   129c0:	44 89 ee             	mov    %r13d,%esi
   129c3:	89 c7                	mov    %eax,%edi
   129c5:	e8 73 a3 ff ff       	callq  cd3d <safe_mul_func_uint16_t_u_u>
   129ca:	0f be d0             	movsbl %al,%edx
   129cd:	8b 05 a5 5d 01 00    	mov    0x15da5(%rip),%eax        # 28778 <g_392>
   129d3:	c1 e0 03             	shl    $0x3,%eax
   129d6:	c0 f8 03             	sar    $0x3,%al
   129d9:	0f be c0             	movsbl %al,%eax
   129dc:	89 d6                	mov    %edx,%esi
   129de:	89 c7                	mov    %eax,%edi
   129e0:	e8 4c 98 ff ff       	callq  c231 <safe_mod_func_int8_t_s_s>
   129e5:	48 8b 95 e0 e3 ff ff 	mov    -0x1c20(%rbp),%rdx
   129ec:	09 d0                	or     %edx,%eax
   129ee:	0f be c0             	movsbl %al,%eax
   129f1:	44 89 e6             	mov    %r12d,%esi
   129f4:	89 c7                	mov    %eax,%edi
   129f6:	e8 17 98 ff ff       	callq  c212 <safe_mul_func_int8_t_s_s>
   129fb:	48 0f be d0          	movsbq %al,%rdx
   129ff:	48 8b 85 e0 e3 ff ff 	mov    -0x1c20(%rbp),%rax
   12a06:	48 39 c2             	cmp    %rax,%rdx
   12a09:	0f 9f c0             	setg   %al
   12a0c:	0f b6 c0             	movzbl %al,%eax
   12a0f:	48 39 85 68 e7 ff ff 	cmp    %rax,-0x1898(%rbp)
   12a16:	0f 96 c0             	setbe  %al
   12a19:	0f b6 c0             	movzbl %al,%eax
   12a1c:	48 8b 95 e0 e3 ff ff 	mov    -0x1c20(%rbp),%rdx
   12a23:	21 d0                	and    %edx,%eax
   12a25:	0f b7 d0             	movzwl %ax,%edx
   12a28:	0f b7 85 ec e3 ff ff 	movzwl -0x1c14(%rbp),%eax
   12a2f:	0f b7 c0             	movzwl %ax,%eax
   12a32:	89 d6                	mov    %edx,%esi
   12a34:	89 c7                	mov    %eax,%edi
   12a36:	e8 21 a3 ff ff       	callq  cd5c <safe_mod_func_uint16_t_u_u>
   12a3b:	89 c2                	mov    %eax,%edx
   12a3d:	48 8b 05 dc 9d 01 00 	mov    0x19ddc(%rip),%rax        # 2c820 <g_742>
   12a44:	48 8b 00             	mov    (%rax),%rax
   12a47:	48 8b 00             	mov    (%rax),%rax
   12a4a:	66 89 10             	mov    %dx,(%rax)
   12a4d:	0f b7 00             	movzwl (%rax),%eax
   12a50:	98                   	cwtl   
   12a51:	89 de                	mov    %ebx,%esi
   12a53:	89 c7                	mov    %eax,%edi
   12a55:	e8 bc 99 ff ff       	callq  c416 <safe_mod_func_int16_t_s_s>
   12a5a:	66 85 c0             	test   %ax,%ax
   12a5d:	74 07                	je     12a66 <func_4+0x1f63>
   12a5f:	ba 01 00 00 00       	mov    $0x1,%edx
   12a64:	eb 05                	jmp    12a6b <func_4+0x1f68>
   12a66:	ba 00 00 00 00       	mov    $0x0,%edx
   12a6b:	48 8b 85 78 e7 ff ff 	mov    -0x1888(%rbp),%rax
   12a72:	89 10                	mov    %edx,(%rax)
   12a74:	48 8b 85 10 e9 ff ff 	mov    -0x16f0(%rbp),%rax
   12a7b:	48 89 05 1e a3 01 00 	mov    %rax,0x1a31e(%rip)        # 2cda0 <g_1474>
   12a82:	48 8b 05 17 a3 01 00 	mov    0x1a317(%rip),%rax        # 2cda0 <g_1474>
   12a89:	48 89 05 18 a3 01 00 	mov    %rax,0x1a318(%rip)        # 2cda8 <g_1478>
   12a90:	48 8b 15 11 a3 01 00 	mov    0x1a311(%rip),%rdx        # 2cda8 <g_1478>
   12a97:	48 8b 85 90 eb ff ff 	mov    -0x1470(%rbp),%rax
   12a9e:	48 39 c2             	cmp    %rax,%rdx
   12aa1:	0f b6 85 fe e3 ff ff 	movzbl -0x1c02(%rbp),%eax
   12aa8:	0f be c0             	movsbl %al,%eax
   12aab:	be 00 00 00 00       	mov    $0x0,%esi
   12ab0:	89 c7                	mov    %eax,%edi
   12ab2:	e8 5b 97 ff ff       	callq  c212 <safe_mul_func_int8_t_s_s>
   12ab7:	48 0f be c0          	movsbq %al,%rax
   12abb:	48 89 05 fa 5c 01 00 	mov    %rax,0x15cfa(%rip)        # 287bc <g_1037+0x1c>
   12ac2:	48 8b 15 f3 5c 01 00 	mov    0x15cf3(%rip),%rdx        # 287bc <g_1037+0x1c>
   12ac9:	48 0f bf 85 ec e3 ff 	movswq -0x1c14(%rbp),%rax
   12ad0:	ff 
   12ad1:	48 39 c2             	cmp    %rax,%rdx
   12ad4:	0f 95 c0             	setne  %al
   12ad7:	0f b6 d0             	movzbl %al,%edx
   12ada:	48 8b 85 78 e7 ff ff 	mov    -0x1888(%rbp),%rax
   12ae1:	89 10                	mov    %edx,(%rax)
   12ae3:	0f b6 05 de 55 01 00 	movzbl 0x155de(%rip),%eax        # 280c8 <g_69>
   12aea:	8d 50 ff             	lea    -0x1(%rax),%edx
   12aed:	88 15 d5 55 01 00    	mov    %dl,0x155d5(%rip)        # 280c8 <g_69>
   12af3:	0f b6 d0             	movzbl %al,%edx
   12af6:	48 8b 85 e0 e3 ff ff 	mov    -0x1c20(%rbp),%rax
   12afd:	0f be c0             	movsbl %al,%eax
   12b00:	89 d6                	mov    %edx,%esi
   12b02:	89 c7                	mov    %eax,%edi
   12b04:	e8 e5 97 ff ff       	callq  c2ee <safe_lshift_func_int8_t_s_u>
   12b09:	89 c2                	mov    %eax,%edx
   12b0b:	48 8b 85 28 e6 ff ff 	mov    -0x19d8(%rbp),%rax
   12b12:	48 8b 00             	mov    (%rax),%rax
   12b15:	48 8b 00             	mov    (%rax),%rax
   12b18:	66 0f be d2          	movsbw %dl,%dx
   12b1c:	66 89 10             	mov    %dx,(%rax)
   12b1f:	48 8b 05 1a 9b 01 00 	mov    0x19b1a(%rip),%rax        # 2c640 <g_460>
   12b26:	c7 00 01 00 00 00    	movl   $0x1,(%rax)
   12b2c:	8b 05 12 a9 01 00    	mov    0x1a912(%rip),%eax        # 2d444 <g_121>
   12b32:	83 c0 01             	add    $0x1,%eax
   12b35:	89 05 09 a9 01 00    	mov    %eax,0x1a909(%rip)        # 2d444 <g_121>
   12b3b:	8b 05 03 a9 01 00    	mov    0x1a903(%rip),%eax        # 2d444 <g_121>
   12b41:	83 f8 06             	cmp    $0x6,%eax
   12b44:	0f 86 22 fa ff ff    	jbe    1256c <func_4+0x1a69>
   12b4a:	eb 01                	jmp    12b4d <func_4+0x204a>
   12b4c:	90                   	nop
   12b4d:	48 8b 05 4c 5c 01 00 	mov    0x15c4c(%rip),%rax        # 287a0 <g_1037>
   12b54:	48 83 c0 01          	add    $0x1,%rax
   12b58:	48 89 05 41 5c 01 00 	mov    %rax,0x15c41(%rip)        # 287a0 <g_1037>
   12b5f:	48 8b 05 3a 5c 01 00 	mov    0x15c3a(%rip),%rax        # 287a0 <g_1037>
   12b66:	48 83 f8 01          	cmp    $0x1,%rax
   12b6a:	0f 86 ff ec ff ff    	jbe    1186f <func_4+0xd6c>
   12b70:	e9 4f 2d 00 00       	jmpq   158c4 <func_4+0x4dc1>
   12b75:	c6 85 f2 e3 ff ff 03 	movb   $0x3,-0x1c0e(%rbp)
   12b7c:	c7 85 94 e4 ff ff 55 	movl   $0xddfd0055,-0x1b6c(%rbp)
   12b83:	00 fd dd 
   12b86:	c7 85 2c e4 ff ff ff 	movl   $0xffffffff,-0x1bd4(%rbp)
   12b8d:	ff ff ff 
   12b90:	c7 85 80 e9 ff ff 02 	movl   $0x2,-0x1680(%rbp)
   12b97:	00 00 00 
   12b9a:	c7 85 84 e9 ff ff fb 	movl   $0xfffffffb,-0x167c(%rbp)
   12ba1:	ff ff ff 
   12ba4:	c7 85 88 e9 ff ff 02 	movl   $0x2,-0x1678(%rbp)
   12bab:	00 00 00 
   12bae:	c7 85 8c e9 ff ff fb 	movl   $0xfffffffb,-0x1674(%rbp)
   12bb5:	ff ff ff 
   12bb8:	c7 85 90 e9 ff ff 02 	movl   $0x2,-0x1670(%rbp)
   12bbf:	00 00 00 
   12bc2:	c7 85 94 e9 ff ff fb 	movl   $0xfffffffb,-0x166c(%rbp)
   12bc9:	ff ff ff 
   12bcc:	c7 85 98 e9 ff ff 02 	movl   $0x2,-0x1668(%rbp)
   12bd3:	00 00 00 
   12bd6:	c7 85 9c e9 ff ff fb 	movl   $0xfffffffb,-0x1664(%rbp)
   12bdd:	ff ff ff 
   12be0:	c7 85 a0 e9 ff ff 02 	movl   $0x2,-0x1660(%rbp)
   12be7:	00 00 00 
   12bea:	48 8d 05 cf 9d 01 00 	lea    0x19dcf(%rip),%rax        # 2c9c0 <g_795+0x180>
   12bf1:	48 89 85 98 e6 ff ff 	mov    %rax,-0x1968(%rbp)
   12bf8:	c7 85 5c e4 ff ff fa 	movl   $0xfffffffa,-0x1ba4(%rbp)
   12bff:	ff ff ff 
   12c02:	48 8d 05 07 a8 01 00 	lea    0x1a807(%rip),%rax        # 2d410 <g_21>
   12c09:	48 89 85 30 e6 ff ff 	mov    %rax,-0x19d0(%rbp)
   12c10:	48 c7 85 a0 e6 ff ff 	movq   $0x0,-0x1960(%rbp)
   12c17:	00 00 00 00 
   12c1b:	48 c7 85 a8 e6 ff ff 	movq   $0x0,-0x1958(%rbp)
   12c22:	00 00 00 00 
   12c26:	c7 85 60 e4 ff ff 01 	movl   $0x1,-0x1ba0(%rbp)
   12c2d:	00 00 00 
   12c30:	66 c7 85 08 e4 ff ff 	movw   $0xa6fb,-0x1bf8(%rbp)
   12c37:	fb a6 
   12c39:	c7 85 18 e6 ff ff 5c 	movl   $0x9fe0895c,-0x19e8(%rbp)
   12c40:	89 e0 9f 
   12c43:	c6 85 f7 e3 ff ff 17 	movb   $0x17,-0x1c09(%rbp)
   12c4a:	48 8d 05 2f 54 01 00 	lea    0x1542f(%rip),%rax        # 28080 <g_38>
   12c51:	48 89 85 b0 e6 ff ff 	mov    %rax,-0x1950(%rbp)
   12c58:	c7 85 64 e4 ff ff 37 	movl   $0x842c5c37,-0x1b9c(%rbp)
   12c5f:	5c 2c 84 
   12c62:	c7 85 98 e4 ff ff 01 	movl   $0x1,-0x1b68(%rbp)
   12c69:	00 00 00 
   12c6c:	48 c7 85 00 ec ff ff 	movq   $0xfffffffffffffffd,-0x1400(%rbp)
   12c73:	fd ff ff ff 
   12c77:	48 c7 85 08 ec ff ff 	movq   $0xfffffffffffffffd,-0x13f8(%rbp)
   12c7e:	fd ff ff ff 
   12c82:	48 c7 85 10 ec ff ff 	movq   $0x1,-0x13f0(%rbp)
   12c89:	01 00 00 00 
   12c8d:	48 c7 85 18 ec ff ff 	movq   $0xfffffffffffffffd,-0x13e8(%rbp)
   12c94:	fd ff ff ff 
   12c98:	48 c7 85 20 ec ff ff 	movq   $0xfffffffffffffffd,-0x13e0(%rbp)
   12c9f:	fd ff ff ff 
   12ca3:	48 c7 85 28 ec ff ff 	movq   $0x1,-0x13d8(%rbp)
   12caa:	01 00 00 00 
   12cae:	48 c7 85 30 ec ff ff 	movq   $0xfffffffffffffffd,-0x13d0(%rbp)
   12cb5:	fd ff ff ff 
   12cb9:	66 c7 85 0c e4 ff ff 	movw   $0x170c,-0x1bf4(%rbp)
   12cc0:	0c 17 
   12cc2:	48 8b 05 77 99 01 00 	mov    0x19977(%rip),%rax        # 2c640 <g_460>
   12cc9:	8b 00                	mov    (%rax),%eax
   12ccb:	85 c0                	test   %eax,%eax
   12ccd:	0f 84 94 01 00 00    	je     12e67 <func_4+0x2364>
   12cd3:	48 8d 85 b0 f7 ff ff 	lea    -0x850(%rbp),%rax
   12cda:	48 8d 15 ff f2 00 00 	lea    0xf2ff(%rip),%rdx        # 21fe0 <g_1963+0xecc>
   12ce1:	b9 51 00 00 00       	mov    $0x51,%ecx
   12ce6:	48 89 c7             	mov    %rax,%rdi
   12ce9:	48 89 d6             	mov    %rdx,%rsi
   12cec:	f3 48 a5             	rep movsq %ds:(%rsi),%es:(%rdi)
   12cef:	48 b8 82 55 9e 02 8e 	movabs $0xbd591f8e029e5582,%rax
   12cf6:	1f 59 bd 
   12cf9:	48 89 85 d8 e6 ff ff 	mov    %rax,-0x1928(%rbp)
   12d00:	c7 85 dc e4 ff ff 05 	movl   $0x3002dd05,-0x1b24(%rbp)
   12d07:	dd 02 30 
   12d0a:	48 8b 95 f0 f8 ff ff 	mov    -0x710(%rbp),%rdx
   12d11:	0f b6 85 f2 e3 ff ff 	movzbl -0x1c0e(%rbp),%eax
   12d18:	48 21 d0             	and    %rdx,%rax
   12d1b:	48 89 85 f0 f8 ff ff 	mov    %rax,-0x710(%rbp)
   12d22:	0f bf 9d ec e3 ff ff 	movswl -0x1c14(%rbp),%ebx
   12d29:	8b 85 dc e4 ff ff    	mov    -0x1b24(%rbp),%eax
   12d2f:	44 0f bf e0          	movswl %ax,%r12d
   12d33:	48 8b 85 e0 e3 ff ff 	mov    -0x1c20(%rbp),%rax
   12d3a:	89 c6                	mov    %eax,%esi
   12d3c:	bf 00 00 00 00       	mov    $0x0,%edi
   12d41:	e8 ef 95 ff ff       	callq  c335 <safe_rshift_func_int8_t_s_s>
   12d46:	4c 0f be f0          	movsbq %al,%r14
   12d4a:	8b 05 30 5a 01 00    	mov    0x15a30(%rip),%eax        # 28780 <g_459>
   12d50:	44 0f bf ad ec e3 ff 	movswl -0x1c14(%rbp),%r13d
   12d57:	ff 
   12d58:	48 8b 85 e0 e3 ff ff 	mov    -0x1c20(%rbp),%rax
   12d5f:	0f b6 d0             	movzbl %al,%edx
   12d62:	48 81 bd d8 e6 ff ff 	cmpq   $0x54e96274,-0x1928(%rbp)
   12d69:	74 62 e9 54 
   12d6d:	0f 95 c0             	setne  %al
   12d70:	89 c1                	mov    %eax,%ecx
   12d72:	0f b6 05 90 57 01 00 	movzbl 0x15790(%rip),%eax        # 28509 <g_289>
   12d79:	31 c1                	xor    %eax,%ecx
   12d7b:	0f b7 85 56 e9 ff ff 	movzwl -0x16aa(%rbp),%eax
   12d82:	09 c8                	or     %ecx,%eax
   12d84:	0f b6 c0             	movzbl %al,%eax
   12d87:	89 d6                	mov    %edx,%esi
   12d89:	89 c7                	mov    %eax,%edi
   12d8b:	e8 03 9e ff ff       	callq  cb93 <safe_mul_func_uint8_t_u_u>
   12d90:	0f b6 c0             	movzbl %al,%eax
   12d93:	44 89 ee             	mov    %r13d,%esi
   12d96:	89 c7                	mov    %eax,%edi
   12d98:	e8 62 99 ff ff       	callq  c6ff <safe_div_func_int32_t_s_s>
   12d9d:	85 c0                	test   %eax,%eax
   12d9f:	0f 9f c0             	setg   %al
   12da2:	0f b6 d0             	movzbl %al,%edx
   12da5:	48 8b 05 1c 99 01 00 	mov    0x1991c(%rip),%rax        # 2c6c8 <g_570>
   12dac:	48 8b 00             	mov    (%rax),%rax
   12daf:	48 8b 00             	mov    (%rax),%rax
   12db2:	48 39 c2             	cmp    %rax,%rdx
   12db5:	48 8b 85 e0 e3 ff ff 	mov    -0x1c20(%rbp),%rax
   12dbc:	0f be c0             	movsbl %al,%eax
   12dbf:	be 01 00 00 00       	mov    $0x1,%esi
   12dc4:	89 c7                	mov    %eax,%edi
   12dc6:	e8 47 94 ff ff       	callq  c212 <safe_mul_func_int8_t_s_s>
   12dcb:	be 00 00 00 00       	mov    $0x0,%esi
   12dd0:	bf f7 13 00 00       	mov    $0x13f7,%edi
   12dd5:	e8 6e a0 ff ff       	callq  ce48 <safe_rshift_func_uint16_t_u_s>
   12dda:	0f b7 d0             	movzwl %ax,%edx
   12ddd:	48 8b 85 70 e6 ff ff 	mov    -0x1990(%rbp),%rax
   12de4:	48 89 10             	mov    %rdx,(%rax)
   12de7:	48 8b 85 70 e6 ff ff 	mov    -0x1990(%rbp),%rax
   12dee:	48 8b 00             	mov    (%rax),%rax
   12df1:	49 39 c6             	cmp    %rax,%r14
   12df4:	0f 93 c0             	setae  %al
   12df7:	0f b6 c0             	movzbl %al,%eax
   12dfa:	be 04 00 00 00       	mov    $0x4,%esi
   12dff:	89 c7                	mov    %eax,%edi
   12e01:	e8 9b 94 ff ff       	callq  c2a1 <safe_lshift_func_int8_t_s_s>
   12e06:	b8 01 00 00 00       	mov    $0x1,%eax
   12e0b:	0f be c0             	movsbl %al,%eax
   12e0e:	be 01 00 00 00       	mov    $0x1,%esi
   12e13:	89 c7                	mov    %eax,%edi
   12e15:	e8 50 94 ff ff       	callq  c26a <safe_div_func_int8_t_s_s>
   12e1a:	0f be d0             	movsbl %al,%edx
   12e1d:	0f b6 85 f2 e3 ff ff 	movzbl -0x1c0e(%rbp),%eax
   12e24:	39 c2                	cmp    %eax,%edx
   12e26:	0f 9c c0             	setl   %al
   12e29:	0f b6 c0             	movzbl %al,%eax
   12e2c:	44 89 e6             	mov    %r12d,%esi
   12e2f:	89 c7                	mov    %eax,%edi
   12e31:	e8 bf 95 ff ff       	callq  c3f5 <safe_mul_func_int16_t_s_s>
   12e36:	48 8b 05 ab 98 01 00 	mov    0x198ab(%rip),%rax        # 2c6e8 <g_744>
   12e3d:	0f b7 00             	movzwl (%rax),%eax
   12e40:	98                   	cwtl   
   12e41:	89 de                	mov    %ebx,%esi
   12e43:	89 c7                	mov    %eax,%edi
   12e45:	e8 19 97 ff ff       	callq  c563 <safe_rshift_func_int16_t_s_u>
   12e4a:	48 8b 85 f8 e5 ff ff 	mov    -0x1a08(%rbp),%rax
   12e51:	c7 00 00 00 00 00    	movl   $0x0,(%rax)
   12e57:	48 c7 85 e8 ea ff ff 	movq   $0x0,-0x1518(%rbp)
   12e5e:	00 00 00 00 
   12e62:	e9 8b 08 00 00       	jmpq   136f2 <func_4+0x2bef>
   12e67:	c6 85 10 e9 ff ff f4 	movb   $0xf4,-0x16f0(%rbp)
   12e6e:	c7 85 9c e4 ff ff 09 	movl   $0xed098109,-0x1b64(%rbp)
   12e75:	81 09 ed 
   12e78:	48 8d 85 30 f5 ff ff 	lea    -0xad0(%rbp),%rax
   12e7f:	48 8d 15 fa f3 00 00 	lea    0xf3fa(%rip),%rdx        # 22280 <g_1963+0x116c>
   12e86:	b9 2a 00 00 00       	mov    $0x2a,%ecx
   12e8b:	48 89 c7             	mov    %rax,%rdi
   12e8e:	48 89 d6             	mov    %rdx,%rsi
   12e91:	f3 48 a5             	rep movsq %ds:(%rsi),%es:(%rdi)
   12e94:	48 b8 53 84 14 22 f5 	movabs $0xb95390f522148453,%rax
   12e9b:	90 53 b9 
   12e9e:	48 89 85 b8 e6 ff ff 	mov    %rax,-0x1948(%rbp)
   12ea5:	c7 85 68 e4 ff ff 00 	movl   $0x0,-0x1b98(%rbp)
   12eac:	00 00 00 
   12eaf:	eb 1a                	jmp    12ecb <func_4+0x23c8>
   12eb1:	8b 85 68 e4 ff ff    	mov    -0x1b98(%rbp),%eax
   12eb7:	48 98                	cltq   
   12eb9:	c7 84 85 40 ea ff ff 	movl   $0x9a88bf89,-0x15c0(%rbp,%rax,4)
   12ec0:	89 bf 88 9a 
   12ec4:	83 85 68 e4 ff ff 01 	addl   $0x1,-0x1b98(%rbp)
   12ecb:	83 bd 68 e4 ff ff 09 	cmpl   $0x9,-0x1b98(%rbp)
   12ed2:	7e dd                	jle    12eb1 <func_4+0x23ae>
   12ed4:	0f b7 05 b5 59 01 00 	movzwl 0x159b5(%rip),%eax        # 28890 <g_1514+0x50>
   12edb:	83 c0 01             	add    $0x1,%eax
   12ede:	66 89 05 ab 59 01 00 	mov    %ax,0x159ab(%rip)        # 28890 <g_1514+0x50>
   12ee5:	48 c7 85 60 e6 ff ff 	movq   $0x7,-0x19a0(%rbp)
   12eec:	07 00 00 00 
   12ef0:	e9 ef 07 00 00       	jmpq   136e4 <func_4+0x2be1>
   12ef5:	c6 85 f8 e3 ff ff ff 	movb   $0xff,-0x1c08(%rbp)
   12efc:	c7 85 6c e4 ff ff 00 	movl   $0x0,-0x1b94(%rbp)
   12f03:	00 00 00 
   12f06:	c7 85 d0 f2 ff ff c5 	movl   $0x741a7c5,-0xd30(%rbp)
   12f0d:	a7 41 07 
   12f10:	c7 85 d4 f2 ff ff c3 	movl   $0x972227c3,-0xd2c(%rbp)
   12f17:	27 22 97 
   12f1a:	c7 85 d8 f2 ff ff c5 	movl   $0x741a7c5,-0xd28(%rbp)
   12f21:	a7 41 07 
   12f24:	c7 85 dc f2 ff ff c3 	movl   $0x972227c3,-0xd24(%rbp)
   12f2b:	27 22 97 
   12f2e:	c7 85 e0 f2 ff ff c5 	movl   $0x741a7c5,-0xd20(%rbp)
   12f35:	a7 41 07 
   12f38:	c7 85 e4 f2 ff ff c3 	movl   $0x972227c3,-0xd1c(%rbp)
   12f3f:	27 22 97 
   12f42:	c7 85 e8 f2 ff ff c5 	movl   $0x741a7c5,-0xd18(%rbp)
   12f49:	a7 41 07 
   12f4c:	c7 85 ec f2 ff ff 05 	movl   $0x5,-0xd14(%rbp)
   12f53:	00 00 00 
   12f56:	c7 85 f0 f2 ff ff 05 	movl   $0x5,-0xd10(%rbp)
   12f5d:	00 00 00 
   12f60:	c7 85 f4 f2 ff ff 05 	movl   $0x5,-0xd0c(%rbp)
   12f67:	00 00 00 
   12f6a:	c7 85 f8 f2 ff ff 05 	movl   $0x5,-0xd08(%rbp)
   12f71:	00 00 00 
   12f74:	c7 85 fc f2 ff ff 05 	movl   $0x5,-0xd04(%rbp)
   12f7b:	00 00 00 
   12f7e:	c7 85 00 f3 ff ff 05 	movl   $0x5,-0xd00(%rbp)
   12f85:	00 00 00 
   12f88:	c7 85 04 f3 ff ff 05 	movl   $0x5,-0xcfc(%rbp)
   12f8f:	00 00 00 
   12f92:	c7 85 08 f3 ff ff c5 	movl   $0x741a7c5,-0xcf8(%rbp)
   12f99:	a7 41 07 
   12f9c:	c7 85 0c f3 ff ff c3 	movl   $0x972227c3,-0xcf4(%rbp)
   12fa3:	27 22 97 
   12fa6:	c7 85 10 f3 ff ff c5 	movl   $0x741a7c5,-0xcf0(%rbp)
   12fad:	a7 41 07 
   12fb0:	c7 85 14 f3 ff ff c3 	movl   $0x972227c3,-0xcec(%rbp)
   12fb7:	27 22 97 
   12fba:	c7 85 18 f3 ff ff c5 	movl   $0x741a7c5,-0xce8(%rbp)
   12fc1:	a7 41 07 
   12fc4:	c7 85 1c f3 ff ff c3 	movl   $0x972227c3,-0xce4(%rbp)
   12fcb:	27 22 97 
   12fce:	c7 85 20 f3 ff ff c5 	movl   $0x741a7c5,-0xce0(%rbp)
   12fd5:	a7 41 07 
   12fd8:	c7 85 24 f3 ff ff 05 	movl   $0x5,-0xcdc(%rbp)
   12fdf:	00 00 00 
   12fe2:	c7 85 28 f3 ff ff 05 	movl   $0x5,-0xcd8(%rbp)
   12fe9:	00 00 00 
   12fec:	c7 85 2c f3 ff ff 05 	movl   $0x5,-0xcd4(%rbp)
   12ff3:	00 00 00 
   12ff6:	c7 85 30 f3 ff ff 05 	movl   $0x5,-0xcd0(%rbp)
   12ffd:	00 00 00 
   13000:	c7 85 34 f3 ff ff 05 	movl   $0x5,-0xccc(%rbp)
   13007:	00 00 00 
   1300a:	c7 85 38 f3 ff ff 05 	movl   $0x5,-0xcc8(%rbp)
   13011:	00 00 00 
   13014:	c7 85 3c f3 ff ff 05 	movl   $0x5,-0xcc4(%rbp)
   1301b:	00 00 00 
   1301e:	c7 85 40 f3 ff ff c5 	movl   $0x741a7c5,-0xcc0(%rbp)
   13025:	a7 41 07 
   13028:	c7 85 44 f3 ff ff c3 	movl   $0x972227c3,-0xcbc(%rbp)
   1302f:	27 22 97 
   13032:	c7 85 48 f3 ff ff c5 	movl   $0x741a7c5,-0xcb8(%rbp)
   13039:	a7 41 07 
   1303c:	c7 85 4c f3 ff ff c3 	movl   $0x972227c3,-0xcb4(%rbp)
   13043:	27 22 97 
   13046:	c7 85 50 f3 ff ff c5 	movl   $0x741a7c5,-0xcb0(%rbp)
   1304d:	a7 41 07 
   13050:	c7 85 54 f3 ff ff c3 	movl   $0x972227c3,-0xcac(%rbp)
   13057:	27 22 97 
   1305a:	c7 85 58 f3 ff ff c5 	movl   $0x741a7c5,-0xca8(%rbp)
   13061:	a7 41 07 
   13064:	c7 85 5c f3 ff ff 05 	movl   $0x5,-0xca4(%rbp)
   1306b:	00 00 00 
   1306e:	c7 85 60 f3 ff ff 05 	movl   $0x5,-0xca0(%rbp)
   13075:	00 00 00 
   13078:	c7 85 64 f3 ff ff 05 	movl   $0x5,-0xc9c(%rbp)
   1307f:	00 00 00 
   13082:	c7 85 68 f3 ff ff 05 	movl   $0x5,-0xc98(%rbp)
   13089:	00 00 00 
   1308c:	c7 85 6c f3 ff ff 05 	movl   $0x5,-0xc94(%rbp)
   13093:	00 00 00 
   13096:	c7 85 70 f3 ff ff 05 	movl   $0x5,-0xc90(%rbp)
   1309d:	00 00 00 
   130a0:	c7 85 74 f3 ff ff 05 	movl   $0x5,-0xc8c(%rbp)
   130a7:	00 00 00 
   130aa:	c7 85 78 f3 ff ff c5 	movl   $0x741a7c5,-0xc88(%rbp)
   130b1:	a7 41 07 
   130b4:	c7 85 7c f3 ff ff c3 	movl   $0x972227c3,-0xc84(%rbp)
   130bb:	27 22 97 
   130be:	c7 85 80 f3 ff ff c5 	movl   $0x741a7c5,-0xc80(%rbp)
   130c5:	a7 41 07 
   130c8:	c7 85 84 f3 ff ff c3 	movl   $0x972227c3,-0xc7c(%rbp)
   130cf:	27 22 97 
   130d2:	c7 85 88 f3 ff ff c5 	movl   $0x741a7c5,-0xc78(%rbp)
   130d9:	a7 41 07 
   130dc:	c7 85 8c f3 ff ff c3 	movl   $0x972227c3,-0xc74(%rbp)
   130e3:	27 22 97 
   130e6:	c7 85 90 f3 ff ff c5 	movl   $0x741a7c5,-0xc70(%rbp)
   130ed:	a7 41 07 
   130f0:	c7 85 94 f3 ff ff 05 	movl   $0x5,-0xc6c(%rbp)
   130f7:	00 00 00 
   130fa:	c7 85 98 f3 ff ff 05 	movl   $0x5,-0xc68(%rbp)
   13101:	00 00 00 
   13104:	c7 85 9c f3 ff ff 05 	movl   $0x5,-0xc64(%rbp)
   1310b:	00 00 00 
   1310e:	c7 85 a0 f3 ff ff 05 	movl   $0x5,-0xc60(%rbp)
   13115:	00 00 00 
   13118:	c7 85 a4 f3 ff ff 05 	movl   $0x5,-0xc5c(%rbp)
   1311f:	00 00 00 
   13122:	c7 85 a8 f3 ff ff 05 	movl   $0x5,-0xc58(%rbp)
   13129:	00 00 00 
   1312c:	c7 85 ac f3 ff ff 05 	movl   $0x5,-0xc54(%rbp)
   13133:	00 00 00 
   13136:	48 b8 85 75 df bd f3 	movabs $0x51f6fff3bddf7585,%rax
   1313d:	ff f6 51 
   13140:	48 89 85 30 ed ff ff 	mov    %rax,-0x12d0(%rbp)
   13147:	48 89 85 38 ed ff ff 	mov    %rax,-0x12c8(%rbp)
   1314e:	48 89 85 40 ed ff ff 	mov    %rax,-0x12c0(%rbp)
   13155:	48 89 85 48 ed ff ff 	mov    %rax,-0x12b8(%rbp)
   1315c:	48 89 85 50 ed ff ff 	mov    %rax,-0x12b0(%rbp)
   13163:	48 89 85 58 ed ff ff 	mov    %rax,-0x12a8(%rbp)
   1316a:	48 89 85 60 ed ff ff 	mov    %rax,-0x12a0(%rbp)
   13171:	48 89 85 68 ed ff ff 	mov    %rax,-0x1298(%rbp)
   13178:	48 89 85 70 ed ff ff 	mov    %rax,-0x1290(%rbp)
   1317f:	c7 85 9c e4 ff ff 00 	movl   $0x0,-0x1b64(%rbp)
   13186:	00 00 00 
   13189:	83 bd 9c e4 ff ff 00 	cmpl   $0x0,-0x1b64(%rbp)
   13190:	0f 88 d9 03 00 00    	js     1356f <func_4+0x2a6c>
   13196:	48 8d 85 b0 f7 ff ff 	lea    -0x850(%rbp),%rax
   1319d:	48 8d 15 3c f2 00 00 	lea    0xf23c(%rip),%rdx        # 223e0 <g_1963+0x12cc>
   131a4:	b9 30 00 00 00       	mov    $0x30,%ecx
   131a9:	48 89 c7             	mov    %rax,%rdi
   131ac:	48 89 d6             	mov    %rdx,%rsi
   131af:	f3 48 a5             	rep movsq %ds:(%rsi),%es:(%rdi)
   131b2:	c7 85 a0 e4 ff ff c5 	movl   $0xb33cc3c5,-0x1b60(%rbp)
   131b9:	c3 3c b3 
   131bc:	c7 85 a4 e4 ff ff 66 	movl   $0x33ab5566,-0x1b5c(%rbp)
   131c3:	55 ab 33 
   131c6:	c7 85 a8 e4 ff ff 01 	movl   $0x1,-0x1b58(%rbp)
   131cd:	00 00 00 
   131d0:	c7 85 ac e4 ff ff ff 	movl   $0xffffffff,-0x1b54(%rbp)
   131d7:	ff ff ff 
   131da:	c7 85 b0 e4 ff ff 0e 	movl   $0x96aa9d0e,-0x1b50(%rbp)
   131e1:	9d aa 96 
   131e4:	c7 85 b4 e4 ff ff d9 	movl   $0x111e27d9,-0x1b4c(%rbp)
   131eb:	27 1e 11 
   131ee:	c7 85 b8 e4 ff ff 6b 	movl   $0xae70c56b,-0x1b48(%rbp)
   131f5:	c5 70 ae 
   131f8:	48 b8 d3 ff e1 5c b1 	movabs $0x2cadb3b15ce1ffd3,%rax
   131ff:	b3 ad 2c 
   13202:	48 89 85 d0 e6 ff ff 	mov    %rax,-0x1930(%rbp)
   13209:	c7 85 bc e4 ff ff ff 	movl   $0xffffffff,-0x1b44(%rbp)
   13210:	ff ff ff 
   13213:	c7 85 c0 e4 ff ff 05 	movl   $0x5,-0x1b40(%rbp)
   1321a:	00 00 00 
   1321d:	48 8b 05 3c 9b 01 00 	mov    0x19b3c(%rip),%rax        # 2cd60 <g_965>
   13224:	48 8b 10             	mov    (%rax),%rdx
   13227:	48 8b 05 32 9b 01 00 	mov    0x19b32(%rip),%rax        # 2cd60 <g_965>
   1322e:	48 8b 00             	mov    (%rax),%rax
   13231:	8b 12                	mov    (%rdx),%edx
   13233:	89 10                	mov    %edx,(%rax)
   13235:	0f b6 95 f4 e3 ff ff 	movzbl -0x1c0c(%rbp),%edx
   1323c:	8b 05 76 55 01 00    	mov    0x15576(%rip),%eax        # 287b8 <g_1037+0x18>
   13242:	0f b6 c0             	movzbl %al,%eax
   13245:	89 d6                	mov    %edx,%esi
   13247:	89 c7                	mov    %eax,%edi
   13249:	e8 45 99 ff ff       	callq  cb93 <safe_mul_func_uint8_t_u_u>
   1324e:	0f b6 d8             	movzbl %al,%ebx
   13251:	4c 8b a5 88 f8 ff ff 	mov    -0x778(%rbp),%r12
   13258:	0f bf 95 ec e3 ff ff 	movswl -0x1c14(%rbp),%edx
   1325f:	48 8b 05 0a 9b 01 00 	mov    0x19b0a(%rip),%rax        # 2cd70 <g_1149>
   13266:	48 8b 00             	mov    (%rax),%rax
   13269:	8b 00                	mov    (%rax),%eax
   1326b:	89 d6                	mov    %edx,%esi
   1326d:	89 c7                	mov    %eax,%edi
   1326f:	e8 8b 94 ff ff       	callq  c6ff <safe_div_func_int32_t_s_s>
   13274:	48 98                	cltq   
   13276:	49 39 c4             	cmp    %rax,%r12
   13279:	0f 9e c0             	setle  %al
   1327c:	0f b6 d0             	movzbl %al,%edx
   1327f:	48 8b 05 b2 93 01 00 	mov    0x193b2(%rip),%rax        # 2c638 <g_416>
   13286:	48 8b 00             	mov    (%rax),%rax
   13289:	0f b7 00             	movzwl (%rax),%eax
   1328c:	0f b7 c0             	movzwl %ax,%eax
   1328f:	39 c2                	cmp    %eax,%edx
   13291:	0f 95 c0             	setne  %al
   13294:	0f b6 c0             	movzbl %al,%eax
   13297:	be b1 00 00 00       	mov    $0xb1,%esi
   1329c:	89 c7                	mov    %eax,%edi
   1329e:	e8 0b 99 ff ff       	callq  cbae <safe_mod_func_uint8_t_u_u>
   132a3:	88 05 5f 55 01 00    	mov    %al,0x1555f(%rip)        # 28808 <g_1250>
   132a9:	0f b6 05 58 55 01 00 	movzbl 0x15558(%rip),%eax        # 28808 <g_1250>
   132b0:	0f be c0             	movsbl %al,%eax
   132b3:	be ff ff ff ff       	mov    $0xffffffff,%esi
   132b8:	89 c7                	mov    %eax,%edi
   132ba:	e8 53 8f ff ff       	callq  c212 <safe_mul_func_int8_t_s_s>
   132bf:	48 0f be d0          	movsbq %al,%rdx
   132c3:	48 8b 85 e8 f7 ff ff 	mov    -0x818(%rbp),%rax
   132ca:	48 39 c2             	cmp    %rax,%rdx
   132cd:	0f 95 c0             	setne  %al
   132d0:	0f b6 d0             	movzbl %al,%edx
   132d3:	48 8b 05 0e 94 01 00 	mov    0x1940e(%rip),%rax        # 2c6e8 <g_744>
   132da:	0f b7 00             	movzwl (%rax),%eax
   132dd:	98                   	cwtl   
   132de:	39 c2                	cmp    %eax,%edx
   132e0:	0f 95 c2             	setne  %dl
   132e3:	48 8b 05 de 93 01 00 	mov    0x193de(%rip),%rax        # 2c6c8 <g_570>
   132ea:	48 8b 00             	mov    (%rax),%rax
   132ed:	0f b6 d2             	movzbl %dl,%edx
   132f0:	48 89 10             	mov    %rdx,(%rax)
   132f3:	48 8b 00             	mov    (%rax),%rax
   132f6:	48 85 c0             	test   %rax,%rax
   132f9:	0f 94 c0             	sete   %al
   132fc:	0f b6 d0             	movzbl %al,%edx
   132ff:	48 8b 05 3a 93 01 00 	mov    0x1933a(%rip),%rax        # 2c640 <g_460>
   13306:	8b 00                	mov    (%rax),%eax
   13308:	89 d6                	mov    %edx,%esi
   1330a:	89 c7                	mov    %eax,%edi
   1330c:	e8 f4 92 ff ff       	callq  c605 <safe_sub_func_int32_t_s_s>
   13311:	85 c0                	test   %eax,%eax
   13313:	74 13                	je     13328 <func_4+0x2825>
   13315:	48 8b 85 e0 e3 ff ff 	mov    -0x1c20(%rbp),%rax
   1331c:	48 85 c0             	test   %rax,%rax
   1331f:	74 07                	je     13328 <func_4+0x2825>
   13321:	ba 01 00 00 00       	mov    $0x1,%edx
   13326:	eb 05                	jmp    1332d <func_4+0x282a>
   13328:	ba 00 00 00 00       	mov    $0x0,%edx
   1332d:	8b 05 99 4d 01 00    	mov    0x14d99(%rip),%eax        # 280cc <g_71>
   13333:	09 d0                	or     %edx,%eax
   13335:	83 f8 04             	cmp    $0x4,%eax
   13338:	0f 95 c0             	setne  %al
   1333b:	0f b6 c0             	movzbl %al,%eax
   1333e:	be 08 00 00 00       	mov    $0x8,%esi
   13343:	89 c7                	mov    %eax,%edi
   13345:	e8 e0 91 ff ff       	callq  c52a <safe_rshift_func_int16_t_s_s>
   1334a:	98                   	cwtl   
   1334b:	39 c3                	cmp    %eax,%ebx
   1334d:	0f 95 c0             	setne  %al
   13350:	0f b6 d8             	movzbl %al,%ebx
   13353:	be 04 00 00 00       	mov    $0x4,%esi
   13358:	bf 01 00 00 00       	mov    $0x1,%edi
   1335d:	e8 d3 8f ff ff       	callq  c335 <safe_rshift_func_int8_t_s_s>
   13362:	0f be d0             	movsbl %al,%edx
   13365:	89 d9                	mov    %ebx,%ecx
   13367:	0f b6 85 f8 e3 ff ff 	movzbl -0x1c08(%rbp),%eax
   1336e:	31 c8                	xor    %ecx,%eax
   13370:	88 85 f8 e3 ff ff    	mov    %al,-0x1c08(%rbp)
   13376:	0f b6 85 f8 e3 ff ff 	movzbl -0x1c08(%rbp),%eax
   1337d:	48 0d 0f 4e 00 00    	or     $0x4e0f,%rax
   13383:	48 89 c1             	mov    %rax,%rcx
   13386:	0f b6 85 f2 e3 ff ff 	movzbl -0x1c0e(%rbp),%eax
   1338d:	48 39 c1             	cmp    %rax,%rcx
   13390:	0f 95 c0             	setne  %al
   13393:	0f b6 c0             	movzbl %al,%eax
   13396:	39 c2                	cmp    %eax,%edx
   13398:	48 8b 05 51 92 01 00 	mov    0x19251(%rip),%rax        # 2c5f0 <g_259>
   1339f:	48 8d 95 2c e4 ff ff 	lea    -0x1bd4(%rbp),%rdx
   133a6:	48 89 10             	mov    %rdx,(%rax)
   133a9:	48 c7 05 ec 53 01 00 	movq   $0x0,0x153ec(%rip)        # 287a0 <g_1037>
   133b0:	00 00 00 00 
   133b4:	e9 97 01 00 00       	jmpq   13550 <func_4+0x2a4d>
   133b9:	c7 85 80 eb ff ff b0 	movl   $0xffd600b0,-0x1480(%rbp)
   133c0:	00 d6 ff 
   133c3:	c6 85 84 eb ff ff 03 	movb   $0x3,-0x147c(%rbp)
   133ca:	c7 85 85 eb ff ff 3d 	movl   $0x293b03d,-0x147b(%rbp)
   133d1:	b0 93 02 
   133d4:	c6 85 89 eb ff ff 93 	movb   $0x93,-0x1477(%rbp)
   133db:	c7 85 8a eb ff ff 02 	movl   $0xff030202,-0x1476(%rbp)
   133e2:	02 03 ff 
   133e5:	c6 85 8e eb ff ff d6 	movb   $0xd6,-0x1472(%rbp)
   133ec:	c7 85 8f eb ff ff dd 	movl   $0x10300dd,-0x1471(%rbp)
   133f3:	00 03 01 
   133f6:	c6 85 93 eb ff ff 3d 	movb   $0x3d,-0x146d(%rbp)
   133fd:	c7 85 94 eb ff ff 00 	movl   $0x3930300,-0x146c(%rbp)
   13404:	03 93 03 
   13407:	c6 85 98 eb ff ff 00 	movb   $0x0,-0x1468(%rbp)
   1340e:	c7 85 99 eb ff ff ff 	movl   $0xd600ff,-0x1467(%rbp)
   13415:	00 d6 00 
   13418:	c6 85 9d eb ff ff 02 	movb   $0x2,-0x1463(%rbp)
   1341f:	c7 85 9e eb ff ff ff 	movl   $0x3d02ff,-0x1462(%rbp)
   13426:	02 3d 00 
   13429:	c6 85 a2 eb ff ff 00 	movb   $0x0,-0x145e(%rbp)
   13430:	c7 85 a3 eb ff ff 00 	movl   $0xb000,-0x145d(%rbp)
   13437:	b0 00 00 
   1343a:	c6 85 a7 eb ff ff 02 	movb   $0x2,-0x1459(%rbp)
   13441:	c7 85 a8 eb ff ff dd 	movl   $0x200dd,-0x1458(%rbp)
   13448:	00 02 00 
   1344b:	c6 85 ac eb ff ff 00 	movb   $0x0,-0x1454(%rbp)
   13452:	66 c7 85 0e e4 ff ff 	movw   $0x7,-0x1bf2(%rbp)
   13459:	07 00 
   1345b:	c7 85 c4 e4 ff ff de 	movl   $0x3d45e8de,-0x1b3c(%rbp)
   13462:	e8 45 3d 
   13465:	c7 85 c8 e4 ff ff f8 	movl   $0xfffffff8,-0x1b38(%rbp)
   1346c:	ff ff ff 
   1346f:	c7 85 cc e4 ff ff ff 	movl   $0xffffffff,-0x1b34(%rbp)
   13476:	ff ff ff 
   13479:	c7 85 d0 e4 ff ff 01 	movl   $0x1,-0x1b30(%rbp)
   13480:	00 00 00 
   13483:	c7 85 d4 e4 ff ff 3e 	movl   $0xb800c23e,-0x1b2c(%rbp)
   1348a:	c2 00 b8 
   1348d:	c7 85 d8 e4 ff ff 01 	movl   $0x1,-0x1b28(%rbp)
   13494:	00 00 00 
   13497:	c7 85 b0 e9 ff ff 44 	movl   $0x76cd1a44,-0x1650(%rbp)
   1349e:	1a cd 76 
   134a1:	c7 85 b4 e9 ff ff 44 	movl   $0x76cd1a44,-0x164c(%rbp)
   134a8:	1a cd 76 
   134ab:	c7 85 b8 e9 ff ff 01 	movl   $0x1,-0x1648(%rbp)
   134b2:	00 00 00 
   134b5:	c7 85 bc e9 ff ff 44 	movl   $0x76cd1a44,-0x1644(%rbp)
   134bc:	1a cd 76 
   134bf:	c7 85 c0 e9 ff ff 44 	movl   $0x76cd1a44,-0x1640(%rbp)
   134c6:	1a cd 76 
   134c9:	c7 85 c4 e9 ff ff 01 	movl   $0x1,-0x163c(%rbp)
   134d0:	00 00 00 
   134d3:	c7 85 c8 e9 ff ff 44 	movl   $0x76cd1a44,-0x1638(%rbp)
   134da:	1a cd 76 
   134dd:	c7 85 cc e9 ff ff 44 	movl   $0x76cd1a44,-0x1634(%rbp)
   134e4:	1a cd 76 
   134e7:	c7 85 d0 e9 ff ff 01 	movl   $0x1,-0x1630(%rbp)
   134ee:	00 00 00 
   134f1:	c7 85 70 e4 ff ff 00 	movl   $0x0,-0x1b90(%rbp)
   134f8:	00 00 00 
   134fb:	eb 14                	jmp    13511 <func_4+0x2a0e>
   134fd:	8b 85 70 e4 ff ff    	mov    -0x1b90(%rbp),%eax
   13503:	48 98                	cltq   
   13505:	c6 44 05 bf 00       	movb   $0x0,-0x41(%rbp,%rax,1)
   1350a:	83 85 70 e4 ff ff 01 	addl   $0x1,-0x1b90(%rbp)
   13511:	83 bd 70 e4 ff ff 08 	cmpl   $0x8,-0x1b90(%rbp)
   13518:	7e e3                	jle    134fd <func_4+0x29fa>
   1351a:	48 8b 85 38 ed ff ff 	mov    -0x12c8(%rbp),%rax
   13521:	48 83 c0 01          	add    $0x1,%rax
   13525:	48 89 85 38 ed ff ff 	mov    %rax,-0x12c8(%rbp)
   1352c:	48 8b 05 4d 9f 01 00 	mov    0x19f4d(%rip),%rax        # 2d480 <g_1565>
   13533:	48 83 e8 01          	sub    $0x1,%rax
   13537:	48 89 05 42 9f 01 00 	mov    %rax,0x19f42(%rip)        # 2d480 <g_1565>
   1353e:	48 8b 05 5b 52 01 00 	mov    0x1525b(%rip),%rax        # 287a0 <g_1037>
   13545:	48 83 c0 01          	add    $0x1,%rax
   13549:	48 89 05 50 52 01 00 	mov    %rax,0x15250(%rip)        # 287a0 <g_1037>
   13550:	48 8b 05 49 52 01 00 	mov    0x15249(%rip),%rax        # 287a0 <g_1037>
   13557:	48 85 c0             	test   %rax,%rax
   1355a:	0f 84 59 fe ff ff    	je     133b9 <func_4+0x28b6>
   13560:	48 8b 05 81 91 01 00 	mov    0x19181(%rip),%rax        # 2c6e8 <g_744>
   13567:	0f b7 00             	movzwl (%rax),%eax
   1356a:	e9 59 48 00 00       	jmpq   17dc8 <func_4+0x72c5>
   1356f:	48 8b 85 18 f0 ff ff 	mov    -0xfe8(%rbp),%rax
   13576:	48 83 e8 01          	sub    $0x1,%rax
   1357a:	48 89 85 18 f0 ff ff 	mov    %rax,-0xfe8(%rbp)
   13581:	c7 85 6c e4 ff ff 06 	movl   $0x6,-0x1b94(%rbp)
   13588:	00 00 00 
   1358b:	e9 3f 01 00 00       	jmpq   136cf <func_4+0x2bcc>
   13590:	48 c7 85 c0 e6 ff ff 	movq   $0xffffffffffffffff,-0x1940(%rbp)
   13597:	ff ff ff ff 
   1359b:	48 8b 05 b6 96 01 00 	mov    0x196b6(%rip),%rax        # 2cc58 <g_880>
   135a2:	8b 15 e0 9e 01 00    	mov    0x19ee0(%rip),%edx        # 2d488 <g_1571>
   135a8:	89 10                	mov    %edx,(%rax)
   135aa:	c7 85 88 e4 ff ff 00 	movl   $0x0,-0x1b78(%rbp)
   135b1:	00 00 00 
   135b4:	e9 02 01 00 00       	jmpq   136bb <func_4+0x2bb8>
   135b9:	48 8d 05 08 4b 01 00 	lea    0x14b08(%rip),%rax        # 280c8 <g_69>
   135c0:	48 89 85 c8 e6 ff ff 	mov    %rax,-0x1938(%rbp)
   135c7:	8b 05 cb 51 01 00    	mov    0x151cb(%rip),%eax        # 28798 <g_646>
   135cd:	48 63 d8             	movslq %eax,%rbx
   135d0:	8b 85 04 f3 ff ff    	mov    -0xcfc(%rbp),%eax
   135d6:	44 0f be e0          	movsbl %al,%r12d
   135da:	be 03 00 00 00       	mov    $0x3,%esi
   135df:	bf 01 00 00 00       	mov    $0x1,%edi
   135e4:	e8 f8 8e ff ff       	callq  c4e1 <safe_lshift_func_int16_t_s_u>
   135e9:	48 83 bd 98 e6 ff ff 	cmpq   $0x0,-0x1968(%rbp)
   135f0:	00 
   135f1:	0f 95 c2             	setne  %dl
   135f4:	48 83 bd 80 e6 ff ff 	cmpq   $0x0,-0x1980(%rbp)
   135fb:	00 
   135fc:	0f 95 c0             	setne  %al
   135ff:	0f b6 c0             	movzbl %al,%eax
   13602:	48 39 85 c0 e6 ff ff 	cmp    %rax,-0x1940(%rbp)
   13609:	0f 9c c0             	setl   %al
   1360c:	09 d0                	or     %edx,%eax
   1360e:	0f b6 c0             	movzbl %al,%eax
   13611:	be 8f 8c 7b 18       	mov    $0x187b8c8f,%esi
   13616:	89 c7                	mov    %eax,%edi
   13618:	e8 99 8f ff ff       	callq  c5b6 <safe_add_func_int32_t_s_s>
   1361d:	0f b7 c0             	movzwl %ax,%eax
   13620:	89 c6                	mov    %eax,%esi
   13622:	bf 01 00 00 00       	mov    $0x1,%edi
   13627:	e8 d3 96 ff ff       	callq  ccff <safe_add_func_uint16_t_u_u>
   1362c:	48 8b 85 c8 e6 ff ff 	mov    -0x1938(%rbp),%rax
   13633:	c6 00 05             	movb   $0x5,(%rax)
   13636:	be 05 00 00 00       	mov    $0x5,%esi
   1363b:	bf 6e 00 00 00       	mov    $0x6e,%edi
   13640:	e8 a9 8c ff ff       	callq  c2ee <safe_lshift_func_int8_t_s_u>
   13645:	84 c0                	test   %al,%al
   13647:	0f 95 c0             	setne  %al
   1364a:	0f b6 c0             	movzbl %al,%eax
   1364d:	48 39 85 c0 e6 ff ff 	cmp    %rax,-0x1940(%rbp)
   13654:	0f 95 c0             	setne  %al
   13657:	0f b6 c0             	movzbl %al,%eax
   1365a:	be 00 00 00 00       	mov    $0x0,%esi
   1365f:	89 c7                	mov    %eax,%edi
   13661:	e8 ac 8b ff ff       	callq  c212 <safe_mul_func_int8_t_s_s>
   13666:	0f be c0             	movsbl %al,%eax
   13669:	44 89 e6             	mov    %r12d,%esi
   1366c:	89 c7                	mov    %eax,%edi
   1366e:	e8 be 8b ff ff       	callq  c231 <safe_mod_func_int8_t_s_s>
   13673:	48 0f be d0          	movsbq %al,%rdx
   13677:	48 8b 05 4a 90 01 00 	mov    0x1904a(%rip),%rax        # 2c6c8 <g_570>
   1367e:	48 8b 00             	mov    (%rax),%rax
   13681:	48 8b 00             	mov    (%rax),%rax
   13684:	48 31 c2             	xor    %rax,%rdx
   13687:	0f b7 85 0a e4 ff ff 	movzwl -0x1bf6(%rbp),%eax
   1368e:	48 31 d0             	xor    %rdx,%rax
   13691:	48 89 de             	mov    %rbx,%rsi
   13694:	48 89 c7             	mov    %rax,%rdi
   13697:	e8 13 9a ff ff       	callq  d0af <safe_div_func_uint64_t_u_u>
   1369c:	0f b7 85 ec e3 ff ff 	movzwl -0x1c14(%rbp),%eax
   136a3:	83 c8 05             	or     $0x5,%eax
   136a6:	89 c2                	mov    %eax,%edx
   136a8:	48 8b 85 f8 e5 ff ff 	mov    -0x1a08(%rbp),%rax
   136af:	0f bf d2             	movswl %dx,%edx
   136b2:	89 10                	mov    %edx,(%rax)
   136b4:	83 ad 88 e4 ff ff 01 	subl   $0x1,-0x1b78(%rbp)
   136bb:	83 bd 88 e4 ff ff 00 	cmpl   $0x0,-0x1b78(%rbp)
   136c2:	0f 89 f1 fe ff ff    	jns    135b9 <func_4+0x2ab6>
   136c8:	83 ad 6c e4 ff ff 01 	subl   $0x1,-0x1b94(%rbp)
   136cf:	83 bd 6c e4 ff ff 00 	cmpl   $0x0,-0x1b94(%rbp)
   136d6:	0f 89 b4 fe ff ff    	jns    13590 <func_4+0x2a8d>
   136dc:	48 83 ad 60 e6 ff ff 	subq   $0x1,-0x19a0(%rbp)
   136e3:	01 
   136e4:	48 83 bd 60 e6 ff ff 	cmpq   $0x0,-0x19a0(%rbp)
   136eb:	00 
   136ec:	0f 89 03 f8 ff ff    	jns    12ef5 <func_4+0x23f2>
   136f2:	66 c7 85 ec e3 ff ff 	movw   $0x0,-0x1c14(%rbp)
   136f9:	00 00 
   136fb:	e9 b3 21 00 00       	jmpq   158b3 <func_4+0x4db0>
   13700:	48 8d 05 99 50 01 00 	lea    0x15099(%rip),%rax        # 287a0 <g_1037>
   13707:	48 89 85 e0 e6 ff ff 	mov    %rax,-0x1920(%rbp)
   1370e:	c6 85 f1 e3 ff ff 0b 	movb   $0xb,-0x1c0f(%rbp)
   13715:	c7 85 e0 e4 ff ff cb 	movl   $0xdfb7d6cb,-0x1b20(%rbp)
   1371c:	d6 b7 df 
   1371f:	48 8d 85 f0 e5 ff ff 	lea    -0x1a10(%rbp),%rax
   13726:	48 89 85 e8 e6 ff ff 	mov    %rax,-0x1918(%rbp)
   1372d:	c7 85 74 e4 ff ff 00 	movl   $0x0,-0x1b8c(%rbp)
   13734:	00 00 00 
   13737:	eb 47                	jmp    13780 <func_4+0x2c7d>
   13739:	c7 85 78 e4 ff ff 00 	movl   $0x0,-0x1b88(%rbp)
   13740:	00 00 00 
   13743:	eb 2b                	jmp    13770 <func_4+0x2c6d>
   13745:	8b 85 78 e4 ff ff    	mov    -0x1b88(%rbp),%eax
   1374b:	48 98                	cltq   
   1374d:	8b 95 74 e4 ff ff    	mov    -0x1b8c(%rbp),%edx
   13753:	48 63 d2             	movslq %edx,%rdx
   13756:	48 c1 e2 02          	shl    $0x2,%rdx
   1375a:	48 01 d0             	add    %rdx,%rax
   1375d:	48 c7 84 c5 40 ea ff 	movq   $0x0,-0x15c0(%rbp,%rax,8)
   13764:	ff 00 00 00 00 
   13769:	83 85 78 e4 ff ff 01 	addl   $0x1,-0x1b88(%rbp)
   13770:	83 bd 78 e4 ff ff 03 	cmpl   $0x3,-0x1b88(%rbp)
   13777:	7e cc                	jle    13745 <func_4+0x2c42>
   13779:	83 85 74 e4 ff ff 01 	addl   $0x1,-0x1b8c(%rbp)
   13780:	83 bd 74 e4 ff ff 00 	cmpl   $0x0,-0x1b8c(%rbp)
   13787:	7e b0                	jle    13739 <func_4+0x2c36>
   13789:	0f b7 85 06 e4 ff ff 	movzwl -0x1bfa(%rbp),%eax
   13790:	66 85 c0             	test   %ax,%ax
   13793:	74 05                	je     1379a <func_4+0x2c97>
   13795:	e9 26 dc ff ff       	jmpq   113c0 <func_4+0x8bd>
   1379a:	48 8b 85 40 ea ff ff 	mov    -0x15c0(%rbp),%rax
   137a1:	48 8d 15 e8 8e 01 00 	lea    0x18ee8(%rip),%rdx        # 2c690 <g_466+0x30>
   137a8:	48 39 d0             	cmp    %rdx,%rax
   137ab:	0f 95 c0             	setne  %al
   137ae:	0f b6 c0             	movzbl %al,%eax
   137b1:	be 01 aa ff ff       	mov    $0xffffaa01,%esi
   137b6:	89 c7                	mov    %eax,%edi
   137b8:	e8 38 8c ff ff       	callq  c3f5 <safe_mul_func_int16_t_s_s>
   137bd:	66 85 c0             	test   %ax,%ax
   137c0:	0f 84 c2 1b 00 00    	je     15388 <func_4+0x4885>
   137c6:	48 c7 85 f8 e6 ff ff 	movq   $0x2,-0x1908(%rbp)
   137cd:	02 00 00 00 
   137d1:	48 c7 85 00 e7 ff ff 	movq   $0x0,-0x1900(%rbp)
   137d8:	00 00 00 00 
   137dc:	48 8d 05 25 50 01 00 	lea    0x15025(%rip),%rax        # 28808 <g_1250>
   137e3:	48 89 85 30 ed ff ff 	mov    %rax,-0x12d0(%rbp)
   137ea:	48 8d 05 17 50 01 00 	lea    0x15017(%rip),%rax        # 28808 <g_1250>
   137f1:	48 89 85 38 ed ff ff 	mov    %rax,-0x12c8(%rbp)
   137f8:	48 8d 05 09 50 01 00 	lea    0x15009(%rip),%rax        # 28808 <g_1250>
   137ff:	48 89 85 40 ed ff ff 	mov    %rax,-0x12c0(%rbp)
   13806:	48 8d 05 fb 4f 01 00 	lea    0x14ffb(%rip),%rax        # 28808 <g_1250>
   1380d:	48 89 85 48 ed ff ff 	mov    %rax,-0x12b8(%rbp)
   13814:	48 8d 05 ed 4f 01 00 	lea    0x14fed(%rip),%rax        # 28808 <g_1250>
   1381b:	48 89 85 50 ed ff ff 	mov    %rax,-0x12b0(%rbp)
   13822:	48 8d 05 df 4f 01 00 	lea    0x14fdf(%rip),%rax        # 28808 <g_1250>
   13829:	48 89 85 58 ed ff ff 	mov    %rax,-0x12a8(%rbp)
   13830:	48 8d 05 d1 4f 01 00 	lea    0x14fd1(%rip),%rax        # 28808 <g_1250>
   13837:	48 89 85 60 ed ff ff 	mov    %rax,-0x12a0(%rbp)
   1383e:	48 8d 05 c3 4f 01 00 	lea    0x14fc3(%rip),%rax        # 28808 <g_1250>
   13845:	48 89 85 68 ed ff ff 	mov    %rax,-0x1298(%rbp)
   1384c:	48 8d 05 b5 4f 01 00 	lea    0x14fb5(%rip),%rax        # 28808 <g_1250>
   13853:	48 89 85 70 ed ff ff 	mov    %rax,-0x1290(%rbp)
   1385a:	48 8d 05 a7 4f 01 00 	lea    0x14fa7(%rip),%rax        # 28808 <g_1250>
   13861:	48 89 85 78 ed ff ff 	mov    %rax,-0x1288(%rbp)
   13868:	c7 85 04 e5 ff ff 75 	movl   $0x8c7bd975,-0x1afc(%rbp)
   1386f:	d9 7b 8c 
   13872:	c7 85 20 e6 ff ff 04 	movl   $0x4,-0x19e0(%rbp)
   13879:	00 00 00 
   1387c:	48 c7 85 08 e7 ff ff 	movq   $0x0,-0x18f8(%rbp)
   13883:	00 00 00 00 
   13887:	48 c7 85 30 f5 ff ff 	movq   $0x2,-0xad0(%rbp)
   1388e:	02 00 00 00 
   13892:	48 c7 85 38 f5 ff ff 	movq   $0x2,-0xac8(%rbp)
   13899:	02 00 00 00 
   1389d:	48 c7 85 40 f5 ff ff 	movq   $0x1,-0xac0(%rbp)
   138a4:	01 00 00 00 
   138a8:	48 b8 f7 da 1d e6 86 	movabs $0x7f17a386e61ddaf7,%rax
   138af:	a3 17 7f 
   138b2:	48 89 85 48 f5 ff ff 	mov    %rax,-0xab8(%rbp)
   138b9:	48 c7 85 50 f5 ff ff 	movq   $0x0,-0xab0(%rbp)
   138c0:	00 00 00 00 
   138c4:	48 bb fe da 95 89 85 	movabs $0xbf9d15858995dafe,%rbx
   138cb:	15 9d bf 
   138ce:	48 89 9d 58 f5 ff ff 	mov    %rbx,-0xaa8(%rbp)
   138d5:	48 c7 85 60 f5 ff ff 	movq   $0x0,-0xaa0(%rbp)
   138dc:	00 00 00 00 
   138e0:	48 c7 85 68 f5 ff ff 	movq   $0x1,-0xa98(%rbp)
   138e7:	01 00 00 00 
   138eb:	48 c7 85 70 f5 ff ff 	movq   $0x0,-0xa90(%rbp)
   138f2:	00 00 00 00 
   138f6:	48 c7 85 78 f5 ff ff 	movq   $0x1,-0xa88(%rbp)
   138fd:	01 00 00 00 
   13901:	48 c7 85 80 f5 ff ff 	movq   $0x1,-0xa80(%rbp)
   13908:	01 00 00 00 
   1390c:	48 c7 85 88 f5 ff ff 	movq   $0x0,-0xa78(%rbp)
   13913:	00 00 00 00 
   13917:	48 c7 85 90 f5 ff ff 	movq   $0x2,-0xa70(%rbp)
   1391e:	02 00 00 00 
   13922:	48 c7 85 98 f5 ff ff 	movq   $0x1,-0xa68(%rbp)
   13929:	01 00 00 00 
   1392d:	48 89 85 a0 f5 ff ff 	mov    %rax,-0xa60(%rbp)
   13934:	48 c7 85 a8 f5 ff ff 	movq   $0x1,-0xa58(%rbp)
   1393b:	01 00 00 00 
   1393f:	48 c7 85 b0 f5 ff ff 	movq   $0x1,-0xa50(%rbp)
   13946:	01 00 00 00 
   1394a:	48 89 9d b8 f5 ff ff 	mov    %rbx,-0xa48(%rbp)
   13951:	48 89 85 c0 f5 ff ff 	mov    %rax,-0xa40(%rbp)
   13958:	48 89 85 c8 f5 ff ff 	mov    %rax,-0xa38(%rbp)
   1395f:	c7 85 28 e6 ff ff 8b 	movl   $0x5588158b,-0x19d8(%rbp)
   13966:	15 88 55 
   13969:	c7 85 b0 e9 ff ff ff 	movl   $0xffffffff,-0x1650(%rbp)
   13970:	ff ff ff 
   13973:	c7 85 b4 e9 ff ff ff 	movl   $0xffffffff,-0x164c(%rbp)
   1397a:	ff ff ff 
   1397d:	c7 85 b8 e9 ff ff ff 	movl   $0xffffffff,-0x1648(%rbp)
   13984:	ff ff ff 
   13987:	c7 85 bc e9 ff ff ff 	movl   $0xffffffff,-0x1644(%rbp)
   1398e:	ff ff ff 
   13991:	c7 85 c0 e9 ff ff ff 	movl   $0xffffffff,-0x1640(%rbp)
   13998:	ff ff ff 
   1399b:	c7 85 c4 e9 ff ff ff 	movl   $0xffffffff,-0x163c(%rbp)
   139a2:	ff ff ff 
   139a5:	c7 85 c8 e9 ff ff ff 	movl   $0xffffffff,-0x1638(%rbp)
   139ac:	ff ff ff 
   139af:	48 8d 85 e8 e5 ff ff 	lea    -0x1a18(%rbp),%rax
   139b6:	48 89 85 38 e6 ff ff 	mov    %rax,-0x19c8(%rbp)
   139bd:	48 8d 85 38 e6 ff ff 	lea    -0x19c8(%rbp),%rax
   139c4:	48 89 85 10 e9 ff ff 	mov    %rax,-0x16f0(%rbp)
   139cb:	83 ad 5c e4 ff ff 01 	subl   $0x1,-0x1ba4(%rbp)
   139d2:	48 8b 85 f8 e5 ff ff 	mov    -0x1a08(%rbp),%rax
   139d9:	8b 00                	mov    (%rax),%eax
   139db:	85 c0                	test   %eax,%eax
   139dd:	0f 95 c0             	setne  %al
   139e0:	0f b6 c0             	movzbl %al,%eax
   139e3:	48 8b 95 f8 e6 ff ff 	mov    -0x1908(%rbp),%rdx
   139ea:	89 c6                	mov    %eax,%esi
   139ec:	89 d7                	mov    %edx,%edi
   139ee:	e8 4f 8c ff ff       	callq  c642 <safe_mul_func_int32_t_s_s>
   139f3:	83 f8 07             	cmp    $0x7,%eax
   139f6:	0f 9e c0             	setle  %al
   139f9:	0f b6 c0             	movzbl %al,%eax
   139fc:	89 85 20 e6 ff ff    	mov    %eax,-0x19e0(%rbp)
   13a02:	8b 95 20 e6 ff ff    	mov    -0x19e0(%rbp),%edx
   13a08:	0f bf 85 ec e3 ff ff 	movswl -0x1c14(%rbp),%eax
   13a0f:	39 c2                	cmp    %eax,%edx
   13a11:	0f 95 c0             	setne  %al
   13a14:	0f b6 d0             	movzbl %al,%edx
   13a17:	0f b6 05 62 46 01 00 	movzbl 0x14662(%rip),%eax        # 28080 <g_38>
   13a1e:	83 e0 fd             	and    $0xfffffffd,%eax
   13a21:	88 05 59 46 01 00    	mov    %al,0x14659(%rip)        # 28080 <g_38>
   13a27:	0f b6 05 52 46 01 00 	movzbl 0x14652(%rip),%eax        # 28080 <g_38>
   13a2e:	84 c0                	test   %al,%al
   13a30:	7f 1d                	jg     13a4f <func_4+0x2f4c>
   13a32:	48 8b 05 f7 8b 01 00 	mov    0x18bf7(%rip),%rax        # 2c630 <g_417>
   13a39:	66 c7 00 03 00       	movw   $0x3,(%rax)
   13a3e:	c7 85 04 e5 ff ff fb 	movl   $0xfffffffb,-0x1afc(%rbp)
   13a45:	ff ff ff 
   13a48:	c6 05 ba 4a 01 00 fb 	movb   $0xfb,0x14aba(%rip)        # 28509 <g_289>
   13a4f:	b8 00 00 00 00       	mov    $0x0,%eax
   13a54:	0f b7 c0             	movzwl %ax,%eax
   13a57:	89 d6                	mov    %edx,%esi
   13a59:	89 c7                	mov    %eax,%edi
   13a5b:	e8 bf 92 ff ff       	callq  cd1f <safe_sub_func_uint16_t_u_u>
   13a60:	66 85 c0             	test   %ax,%ax
   13a63:	0f 84 ff 03 00 00    	je     13e68 <func_4+0x3365>
   13a69:	c6 85 fc e3 ff ff af 	movb   $0xaf,-0x1c04(%rbp)
   13a70:	c7 85 20 e5 ff ff 64 	movl   $0x73c5464,-0x1ae0(%rbp)
   13a77:	54 3c 07 
   13a7a:	c7 85 24 e5 ff ff f9 	movl   $0xfffffff9,-0x1adc(%rbp)
   13a81:	ff ff ff 
   13a84:	c7 85 28 e5 ff ff 6a 	movl   $0x64e3a06a,-0x1ad8(%rbp)
   13a8b:	a0 e3 64 
   13a8e:	c7 85 2c e5 ff ff d2 	movl   $0xd76408d2,-0x1ad4(%rbp)
   13a95:	08 64 d7 
   13a98:	c7 85 30 e5 ff ff ff 	movl   $0xffffffff,-0x1ad0(%rbp)
   13a9f:	ff ff ff 
   13aa2:	c7 85 34 e5 ff ff 00 	movl   $0x0,-0x1acc(%rbp)
   13aa9:	00 00 00 
   13aac:	c7 85 38 e5 ff ff 01 	movl   $0x1,-0x1ac8(%rbp)
   13ab3:	00 00 00 
   13ab6:	c7 85 b0 f7 ff ff 01 	movl   $0x1,-0x850(%rbp)
   13abd:	00 00 00 
   13ac0:	c7 85 b4 f7 ff ff ea 	movl   $0x6acf99ea,-0x84c(%rbp)
   13ac7:	99 cf 6a 
   13aca:	c7 85 b8 f7 ff ff 04 	movl   $0x4,-0x848(%rbp)
   13ad1:	00 00 00 
   13ad4:	c7 85 bc f7 ff ff e1 	movl   $0x2a4311e1,-0x844(%rbp)
   13adb:	11 43 2a 
   13ade:	c7 85 c0 f7 ff ff ea 	movl   $0x6acf99ea,-0x840(%rbp)
   13ae5:	99 cf 6a 
   13ae8:	c7 85 c4 f7 ff ff ea 	movl   $0x6acf99ea,-0x83c(%rbp)
   13aef:	99 cf 6a 
   13af2:	c7 85 c8 f7 ff ff 10 	movl   $0x1d252710,-0x838(%rbp)
   13af9:	27 25 1d 
   13afc:	c7 85 cc f7 ff ff ea 	movl   $0x6acf99ea,-0x834(%rbp)
   13b03:	99 cf 6a 
   13b06:	c7 85 d0 f7 ff ff 51 	movl   $0x630dbb51,-0x830(%rbp)
   13b0d:	bb 0d 63 
   13b10:	c7 85 d4 f7 ff ff 01 	movl   $0x1,-0x82c(%rbp)
   13b17:	00 00 00 
   13b1a:	c7 85 d8 f7 ff ff ea 	movl   $0x6acf99ea,-0x828(%rbp)
   13b21:	99 cf 6a 
   13b24:	c7 85 dc f7 ff ff 04 	movl   $0x4,-0x824(%rbp)
   13b2b:	00 00 00 
   13b2e:	c7 85 e0 f7 ff ff e1 	movl   $0x2a4311e1,-0x820(%rbp)
   13b35:	11 43 2a 
   13b38:	c7 85 e4 f7 ff ff ea 	movl   $0x6acf99ea,-0x81c(%rbp)
   13b3f:	99 cf 6a 
   13b42:	c7 85 e8 f7 ff ff ea 	movl   $0x6acf99ea,-0x818(%rbp)
   13b49:	99 cf 6a 
   13b4c:	c7 85 ec f7 ff ff 10 	movl   $0x1d252710,-0x814(%rbp)
   13b53:	27 25 1d 
   13b56:	c7 85 f0 f7 ff ff ea 	movl   $0x6acf99ea,-0x810(%rbp)
   13b5d:	99 cf 6a 
   13b60:	c7 85 f4 f7 ff ff 51 	movl   $0x630dbb51,-0x80c(%rbp)
   13b67:	bb 0d 63 
   13b6a:	c7 85 f8 f7 ff ff 01 	movl   $0x1,-0x808(%rbp)
   13b71:	00 00 00 
   13b74:	c7 85 fc f7 ff ff ea 	movl   $0x6acf99ea,-0x804(%rbp)
   13b7b:	99 cf 6a 
   13b7e:	c7 85 00 f8 ff ff 04 	movl   $0x4,-0x800(%rbp)
   13b85:	00 00 00 
   13b88:	66 c7 85 12 e4 ff ff 	movw   $0xfe51,-0x1bee(%rbp)
   13b8f:	51 fe 
   13b91:	8b 05 91 4c 01 00    	mov    0x14c91(%rip),%eax        # 28828 <g_1419>
   13b97:	c1 e0 03             	shl    $0x3,%eax
   13b9a:	c0 f8 03             	sar    $0x3,%al
   13b9d:	0f be d0             	movsbl %al,%edx
   13ba0:	48 8b 85 e0 e3 ff ff 	mov    -0x1c20(%rbp),%rax
   13ba7:	48 b9 4c cf b4 26 23 	movabs $0xeafa5c2326b4cf4c,%rcx
   13bae:	5c fa ea 
   13bb1:	48 39 c8             	cmp    %rcx,%rax
   13bb4:	0f 95 c0             	setne  %al
   13bb7:	0f b6 c0             	movzbl %al,%eax
   13bba:	21 c2                	and    %eax,%edx
   13bbc:	48 8b 05 05 8b 01 00 	mov    0x18b05(%rip),%rax        # 2c6c8 <g_570>
   13bc3:	48 8b 00             	mov    (%rax),%rax
   13bc6:	48 63 d2             	movslq %edx,%rdx
   13bc9:	48 89 10             	mov    %rdx,(%rax)
   13bcc:	48 8b 00             	mov    (%rax),%rax
   13bcf:	48 8b 95 f8 e6 ff ff 	mov    -0x1908(%rbp),%rdx
   13bd6:	48 89 d6             	mov    %rdx,%rsi
   13bd9:	48 89 c7             	mov    %rax,%rdi
   13bdc:	e8 16 8e ff ff       	callq  c9f7 <safe_div_func_int64_t_s_s>
   13be1:	48 85 c0             	test   %rax,%rax
   13be4:	74 52                	je     13c38 <func_4+0x3135>
   13be6:	48 8b 95 e0 e3 ff ff 	mov    -0x1c20(%rbp),%rdx
   13bed:	48 8b 85 f8 e5 ff ff 	mov    -0x1a08(%rbp),%rax
   13bf4:	89 10                	mov    %edx,(%rax)
   13bf6:	8b 00                	mov    (%rax),%eax
   13bf8:	89 85 20 e6 ff ff    	mov    %eax,-0x19e0(%rbp)
   13bfe:	48 8b 85 e0 e3 ff ff 	mov    -0x1c20(%rbp),%rax
   13c05:	48 85 c0             	test   %rax,%rax
   13c08:	0f 85 b5 1c 00 00    	jne    158c3 <func_4+0x4dc0>
   13c0e:	48 8b 85 e0 e3 ff ff 	mov    -0x1c20(%rbp),%rax
   13c15:	89 c2                	mov    %eax,%edx
   13c17:	8b 85 20 e6 ff ff    	mov    -0x19e0(%rbp),%eax
   13c1d:	21 d0                	and    %edx,%eax
   13c1f:	89 85 20 e6 ff ff    	mov    %eax,-0x19e0(%rbp)
   13c25:	8b 85 20 e6 ff ff    	mov    -0x19e0(%rbp),%eax
   13c2b:	85 c0                	test   %eax,%eax
   13c2d:	0f 84 82 07 00 00    	je     143b5 <func_4+0x38b2>
   13c33:	e9 5c 1c 00 00       	jmpq   15894 <func_4+0x4d91>
   13c38:	c6 85 fd e3 ff ff 1b 	movb   $0x1b,-0x1c03(%rbp)
   13c3f:	48 8d 85 30 e6 ff ff 	lea    -0x19d0(%rbp),%rax
   13c46:	48 89 85 10 e7 ff ff 	mov    %rax,-0x18f0(%rbp)
   13c4d:	48 c7 85 18 e7 ff ff 	movq   $0x0,-0x18e8(%rbp)
   13c54:	00 00 00 00 
   13c58:	48 c7 85 20 e7 ff ff 	movq   $0x0,-0x18e0(%rbp)
   13c5f:	00 00 00 00 
   13c63:	48 c7 85 28 e7 ff ff 	movq   $0x0,-0x18d8(%rbp)
   13c6a:	00 00 00 00 
   13c6e:	48 c7 85 30 e7 ff ff 	movq   $0x0,-0x18d0(%rbp)
   13c75:	00 00 00 00 
   13c79:	48 c7 85 38 e7 ff ff 	movq   $0x0,-0x18c8(%rbp)
   13c80:	00 00 00 00 
   13c84:	48 8d 85 06 e4 ff ff 	lea    -0x1bfa(%rbp),%rax
   13c8b:	48 89 85 40 e7 ff ff 	mov    %rax,-0x18c0(%rbp)
   13c92:	c7 85 d0 f2 ff ff 02 	movl   $0x2,-0xd30(%rbp)
   13c99:	00 00 00 
   13c9c:	c7 85 d4 f2 ff ff 02 	movl   $0x2,-0xd2c(%rbp)
   13ca3:	00 00 00 
   13ca6:	c7 85 d8 f2 ff ff 02 	movl   $0x2,-0xd28(%rbp)
   13cad:	00 00 00 
   13cb0:	c7 85 dc f2 ff ff 02 	movl   $0x2,-0xd24(%rbp)
   13cb7:	00 00 00 
   13cba:	c7 85 e0 f2 ff ff 02 	movl   $0x2,-0xd20(%rbp)
   13cc1:	00 00 00 
   13cc4:	c7 85 e4 f2 ff ff 02 	movl   $0x2,-0xd1c(%rbp)
   13ccb:	00 00 00 
   13cce:	c7 85 e8 f2 ff ff 02 	movl   $0x2,-0xd18(%rbp)
   13cd5:	00 00 00 
   13cd8:	48 8b 05 d9 90 01 00 	mov    0x190d9(%rip),%rax        # 2cdb8 <g_1616>
   13cdf:	48 8b 15 ca 90 01 00 	mov    0x190ca(%rip),%rdx        # 2cdb0 <g_1615>
   13ce6:	48 89 10             	mov    %rdx,(%rax)
   13ce9:	48 8b 85 08 e6 ff ff 	mov    -0x19f8(%rbp),%rax
   13cf0:	48 8b 00             	mov    (%rax),%rax
   13cf3:	48 8b 95 e0 e6 ff ff 	mov    -0x1920(%rbp),%rdx
   13cfa:	48 89 10             	mov    %rdx,(%rax)
   13cfd:	48 8b 85 30 f5 ff ff 	mov    -0xad0(%rbp),%rax
   13d04:	0f b7 d8             	movzwl %ax,%ebx
   13d07:	44 0f b6 b5 fd e3 ff 	movzbl -0x1c03(%rbp),%r14d
   13d0e:	ff 
   13d0f:	48 8b 85 e0 e3 ff ff 	mov    -0x1c20(%rbp),%rax
   13d16:	44 0f b7 e0          	movzwl %ax,%r12d
   13d1a:	48 8b 85 e0 e3 ff ff 	mov    -0x1c20(%rbp),%rax
   13d21:	44 0f b7 e8          	movzwl %ax,%r13d
   13d25:	be 01 00 00 00       	mov    $0x1,%esi
   13d2a:	bf 37 96 ff ff       	mov    $0xffff9637,%edi
   13d2f:	e8 21 87 ff ff       	callq  c455 <safe_div_func_int16_t_s_s>
   13d34:	66 83 f8 06          	cmp    $0x6,%ax
   13d38:	0f 97 c0             	seta   %al
   13d3b:	0f b6 d0             	movzbl %al,%edx
   13d3e:	48 8b 05 9b 89 01 00 	mov    0x1899b(%rip),%rax        # 2c6e0 <g_718>
   13d45:	8b 00                	mov    (%rax),%eax
   13d47:	39 c2                	cmp    %eax,%edx
   13d49:	74 08                	je     13d53 <func_4+0x3250>
   13d4b:	66 83 bd ec e3 ff ff 	cmpw   $0x0,-0x1c14(%rbp)
   13d52:	00 
   13d53:	48 8b 05 d6 88 01 00 	mov    0x188d6(%rip),%rax        # 2c630 <g_417>
   13d5a:	66 c7 00 01 00       	movw   $0x1,(%rax)
   13d5f:	0f b7 00             	movzwl (%rax),%eax
   13d62:	0f b7 d0             	movzwl %ax,%edx
   13d65:	48 8b 85 e0 e3 ff ff 	mov    -0x1c20(%rbp),%rax
   13d6c:	48 39 c2             	cmp    %rax,%rdx
   13d6f:	0f 9d c0             	setge  %al
   13d72:	0f b6 c0             	movzbl %al,%eax
   13d75:	48 8b 95 e0 e3 ff ff 	mov    -0x1c20(%rbp),%rdx
   13d7c:	21 d0                	and    %edx,%eax
   13d7e:	0f bf d0             	movswl %ax,%edx
   13d81:	48 b8 d0 ec 91 a9 a3 	movabs $0x9e998a3a991ecd0,%rax
   13d88:	98 e9 09 
   13d8b:	48 89 05 5e 47 01 00 	mov    %rax,0x1475e(%rip)        # 284f0 <g_146+0x10>
   13d92:	48 8b 05 27 89 01 00 	mov    0x18927(%rip),%rax        # 2c6c0 <g_571>
   13d99:	48 8b 8d e0 e3 ff ff 	mov    -0x1c20(%rbp),%rcx
   13da0:	48 89 08             	mov    %rcx,(%rax)
   13da3:	48 8b 00             	mov    (%rax),%rax
   13da6:	66 0d d0 ec          	or     $0xecd0,%ax
   13daa:	98                   	cwtl   
   13dab:	89 d6                	mov    %edx,%esi
   13dad:	89 c7                	mov    %eax,%edi
   13daf:	e8 41 86 ff ff       	callq  c3f5 <safe_mul_func_int16_t_s_s>
   13db4:	0f bf d0             	movswl %ax,%edx
   13db7:	8b 85 20 e6 ff ff    	mov    -0x19e0(%rbp),%eax
   13dbd:	31 d0                	xor    %edx,%eax
   13dbf:	89 85 20 e6 ff ff    	mov    %eax,-0x19e0(%rbp)
   13dc5:	8b 95 20 e6 ff ff    	mov    -0x19e0(%rbp),%edx
   13dcb:	0f bf 85 ec e3 ff ff 	movswl -0x1c14(%rbp),%eax
   13dd2:	39 c2                	cmp    %eax,%edx
   13dd4:	0f 9f c0             	setg   %al
   13dd7:	0f b6 d0             	movzbl %al,%edx
   13dda:	48 8b 8d 30 e6 ff ff 	mov    -0x19d0(%rbp),%rcx
   13de1:	48 8b 85 10 e7 ff ff 	mov    -0x18f0(%rbp),%rax
   13de8:	48 89 08             	mov    %rcx,(%rax)
   13deb:	48 8b 85 10 e7 ff ff 	mov    -0x18f0(%rbp),%rax
   13df2:	48 8b 00             	mov    (%rax),%rax
   13df5:	48 85 c0             	test   %rax,%rax
   13df8:	0f 95 c0             	setne  %al
   13dfb:	0f b6 c0             	movzbl %al,%eax
   13dfe:	48 89 d6             	mov    %rdx,%rsi
   13e01:	48 89 c7             	mov    %rax,%rdi
   13e04:	e8 38 8a ff ff       	callq  c841 <safe_add_func_int64_t_s_s>
   13e09:	89 c2                	mov    %eax,%edx
   13e0b:	48 8b 85 40 e7 ff ff 	mov    -0x18c0(%rbp),%rax
   13e12:	66 89 10             	mov    %dx,(%rax)
   13e15:	48 8b 85 40 e7 ff ff 	mov    -0x18c0(%rbp),%rax
   13e1c:	0f b7 00             	movzwl (%rax),%eax
   13e1f:	0f b7 c0             	movzwl %ax,%eax
   13e22:	44 89 ee             	mov    %r13d,%esi
   13e25:	89 c7                	mov    %eax,%edi
   13e27:	e8 30 8f ff ff       	callq  cd5c <safe_mod_func_uint16_t_u_u>
   13e2c:	44 89 e6             	mov    %r12d,%esi
   13e2f:	bf 00 00 00 00       	mov    $0x0,%edi
   13e34:	e8 23 8f ff ff       	callq  cd5c <safe_mod_func_uint16_t_u_u>
   13e39:	66 41 39 c6          	cmp    %ax,%r14w
   13e3d:	0f 92 c0             	setb   %al
   13e40:	0f b6 c0             	movzbl %al,%eax
   13e43:	89 de                	mov    %ebx,%esi
   13e45:	89 c7                	mov    %eax,%edi
   13e47:	e8 d3 8e ff ff       	callq  cd1f <safe_sub_func_uint16_t_u_u>
   13e4c:	20 85 fc e3 ff ff    	and    %al,-0x1c04(%rbp)
   13e52:	0f b7 85 12 e4 ff ff 	movzwl -0x1bee(%rbp),%eax
   13e59:	83 c0 01             	add    $0x1,%eax
   13e5c:	66 89 85 12 e4 ff ff 	mov    %ax,-0x1bee(%rbp)
   13e63:	e9 4d 05 00 00       	jmpq   143b5 <func_4+0x38b2>
   13e68:	c6 85 fa e3 ff ff 00 	movb   $0x0,-0x1c06(%rbp)
   13e6f:	c7 85 08 e5 ff ff fe 	movl   $0xfffffffe,-0x1af8(%rbp)
   13e76:	ff ff ff 
   13e79:	c7 85 0c e5 ff ff ae 	movl   $0x8b33f0ae,-0x1af4(%rbp)
   13e80:	f0 33 8b 
   13e83:	c7 85 10 e5 ff ff f9 	movl   $0xdfc9d3f9,-0x1af0(%rbp)
   13e8a:	d3 c9 df 
   13e8d:	c7 85 14 e5 ff ff 00 	movl   $0x84a0cd00,-0x1aec(%rbp)
   13e94:	cd a0 84 
   13e97:	c7 85 18 e5 ff ff 86 	movl   $0xc31e5386,-0x1ae8(%rbp)
   13e9e:	53 1e c3 
   13ea1:	c6 85 fb e3 ff ff 97 	movb   $0x97,-0x1c05(%rbp)
   13ea8:	c7 85 7c e4 ff ff 00 	movl   $0x0,-0x1b84(%rbp)
   13eaf:	00 00 00 
   13eb2:	eb 1a                	jmp    13ece <func_4+0x33cb>
   13eb4:	8b 85 7c e4 ff ff    	mov    -0x1b84(%rbp),%eax
   13eba:	48 98                	cltq   
   13ebc:	c7 84 85 d0 f2 ff ff 	movl   $0x1,-0xd30(%rbp,%rax,4)
   13ec3:	01 00 00 00 
   13ec7:	83 85 7c e4 ff ff 01 	addl   $0x1,-0x1b84(%rbp)
   13ece:	83 bd 7c e4 ff ff 00 	cmpl   $0x0,-0x1b84(%rbp)
   13ed5:	7e dd                	jle    13eb4 <func_4+0x33b1>
   13ed7:	48 8b 05 0a 88 01 00 	mov    0x1880a(%rip),%rax        # 2c6e8 <g_744>
   13ede:	0f b7 00             	movzwl (%rax),%eax
   13ee1:	44 0f bf f8          	movswl %ax,%r15d
   13ee5:	0f b7 85 ec e3 ff ff 	movzwl -0x1c14(%rbp),%eax
   13eec:	0f be d8             	movsbl %al,%ebx
   13eef:	48 8b 05 f2 87 01 00 	mov    0x187f2(%rip),%rax        # 2c6e8 <g_744>
   13ef6:	0f b7 00             	movzwl (%rax),%eax
   13ef9:	44 0f bf e0          	movswl %ax,%r12d
   13efd:	0f bf 85 ec e3 ff ff 	movswl -0x1c14(%rbp),%eax
   13f04:	89 85 d8 e3 ff ff    	mov    %eax,-0x1c28(%rbp)
   13f0a:	48 8b 05 cf 45 01 00 	mov    0x145cf(%rip),%rax        # 284e0 <g_146>
   13f11:	44 0f b6 e8          	movzbl %al,%r13d
   13f15:	4c 0f be b5 fa e3 ff 	movsbq -0x1c06(%rbp),%r14
   13f1c:	ff 
   13f1d:	48 8b 85 e0 e3 ff ff 	mov    -0x1c20(%rbp),%rax
   13f24:	be 6f 4c ad 78       	mov    $0x78ad4c6f,%esi
   13f29:	89 c7                	mov    %eax,%edi
   13f2b:	e8 d5 86 ff ff       	callq  c605 <safe_sub_func_int32_t_s_s>
   13f30:	48 8b 85 f8 e5 ff ff 	mov    -0x1a08(%rbp),%rax
   13f37:	8b 10                	mov    (%rax),%edx
   13f39:	48 8b 05 00 87 01 00 	mov    0x18700(%rip),%rax        # 2c640 <g_460>
   13f40:	8b 00                	mov    (%rax),%eax
   13f42:	09 d0                	or     %edx,%eax
   13f44:	48 98                	cltq   
   13f46:	4c 89 f6             	mov    %r14,%rsi
   13f49:	48 89 c7             	mov    %rax,%rdi
   13f4c:	e8 57 89 ff ff       	callq  c8a8 <safe_sub_func_int64_t_s_s>
   13f51:	48 0f be 95 fa e3 ff 	movsbq -0x1c06(%rbp),%rdx
   13f58:	ff 
   13f59:	48 31 c2             	xor    %rax,%rdx
   13f5c:	48 0f be 85 fa e3 ff 	movsbq -0x1c06(%rbp),%rax
   13f63:	ff 
   13f64:	48 39 c2             	cmp    %rax,%rdx
   13f67:	0f 9f c0             	setg   %al
   13f6a:	0f b6 c0             	movzbl %al,%eax
   13f6d:	89 c6                	mov    %eax,%esi
   13f6f:	bf 00 00 00 00       	mov    $0x0,%edi
   13f74:	e8 45 8e ff ff       	callq  cdbe <safe_lshift_func_uint16_t_u_s>
   13f79:	44 89 ee             	mov    %r13d,%esi
   13f7c:	bf 00 00 00 00       	mov    $0x0,%edi
   13f81:	e8 0d 8c ff ff       	callq  cb93 <safe_mul_func_uint8_t_u_u>
   13f86:	0f b6 d0             	movzbl %al,%edx
   13f89:	0f be 85 fa e3 ff ff 	movsbl -0x1c06(%rbp),%eax
   13f90:	21 d0                	and    %edx,%eax
   13f92:	83 f8 fa             	cmp    $0xfffffffa,%eax
   13f95:	0f 9d c0             	setge  %al
   13f98:	0f b6 c0             	movzbl %al,%eax
   13f9b:	39 85 d8 e3 ff ff    	cmp    %eax,-0x1c28(%rbp)
   13fa1:	0f 9c c0             	setl   %al
   13fa4:	0f b6 c0             	movzbl %al,%eax
   13fa7:	89 85 08 e5 ff ff    	mov    %eax,-0x1af8(%rbp)
   13fad:	48 8b 85 e0 e3 ff ff 	mov    -0x1c20(%rbp),%rax
   13fb4:	48 85 c0             	test   %rax,%rax
   13fb7:	74 07                	je     13fc0 <func_4+0x34bd>
   13fb9:	b8 01 00 00 00       	mov    $0x1,%eax
   13fbe:	eb 05                	jmp    13fc5 <func_4+0x34c2>
   13fc0:	b8 00 00 00 00       	mov    $0x0,%eax
   13fc5:	98                   	cwtl   
   13fc6:	44 89 e6             	mov    %r12d,%esi
   13fc9:	89 c7                	mov    %eax,%edi
   13fcb:	e8 03 84 ff ff       	callq  c3d3 <safe_sub_func_int16_t_s_s>
   13fd0:	89 c2                	mov    %eax,%edx
   13fd2:	8b 05 fc 44 01 00    	mov    0x144fc(%rip),%eax        # 284d4 <g_116>
   13fd8:	c1 e0 03             	shl    $0x3,%eax
   13fdb:	c0 f8 03             	sar    $0x3,%al
   13fde:	66 98                	cbtw   
   13fe0:	09 d0                	or     %edx,%eax
   13fe2:	98                   	cwtl   
   13fe3:	89 c7                	mov    %eax,%edi
   13fe5:	e8 b3 83 ff ff       	callq  c39d <safe_unary_minus_func_int16_t_s>
   13fea:	66 39 85 ec e3 ff ff 	cmp    %ax,-0x1c14(%rbp)
   13ff1:	0f 9d c0             	setge  %al
   13ff4:	0f b6 d0             	movzbl %al,%edx
   13ff7:	48 8b 85 70 e6 ff ff 	mov    -0x1990(%rbp),%rax
   13ffe:	48 89 10             	mov    %rdx,(%rax)
   14001:	48 8b 85 e0 e3 ff ff 	mov    -0x1c20(%rbp),%rax
   14008:	48 3d ad 00 00 00    	cmp    $0xad,%rax
   1400e:	74 11                	je     14021 <func_4+0x351e>
   14010:	66 83 bd ec e3 ff ff 	cmpw   $0x0,-0x1c14(%rbp)
   14017:	00 
   14018:	74 07                	je     14021 <func_4+0x351e>
   1401a:	b8 01 00 00 00       	mov    $0x1,%eax
   1401f:	eb 05                	jmp    14026 <func_4+0x3523>
   14021:	b8 00 00 00 00       	mov    $0x0,%eax
   14026:	0f be c0             	movsbl %al,%eax
   14029:	89 de                	mov    %ebx,%esi
   1402b:	89 c7                	mov    %eax,%edi
   1402d:	e8 ff 81 ff ff       	callq  c231 <safe_mod_func_int8_t_s_s>
   14032:	48 0f be c0          	movsbq %al,%rax
   14036:	48 0b 85 f8 e6 ff ff 	or     -0x1908(%rbp),%rax
   1403d:	48 3d 6f d7 6e 5f    	cmp    $0x5f6ed76f,%rax
   14043:	0f 95 c0             	setne  %al
   14046:	0f b6 d0             	movzbl %al,%edx
   14049:	0f bf 85 ec e3 ff ff 	movswl -0x1c14(%rbp),%eax
   14050:	39 c2                	cmp    %eax,%edx
   14052:	0f 95 c0             	setne  %al
   14055:	0f b6 c0             	movzbl %al,%eax
   14058:	41 39 c7             	cmp    %eax,%r15d
   1405b:	0f 95 c0             	setne  %al
   1405e:	0f b6 c0             	movzbl %al,%eax
   14061:	39 85 0c e5 ff ff    	cmp    %eax,-0x1af4(%rbp)
   14067:	0f 97 c0             	seta   %al
   1406a:	0f b6 d0             	movzbl %al,%edx
   1406d:	8b 85 bc e9 ff ff    	mov    -0x1644(%rbp),%eax
   14073:	39 c2                	cmp    %eax,%edx
   14075:	0f 8c 23 01 00 00    	jl     1419e <func_4+0x369b>
   1407b:	48 8b 05 b6 85 01 00 	mov    0x185b6(%rip),%rax        # 2c638 <g_416>
   14082:	48 8b 00             	mov    (%rax),%rax
   14085:	0f b7 00             	movzwl (%rax),%eax
   14088:	0f bf d8             	movswl %ax,%ebx
   1408b:	48 8b 85 e0 e3 ff ff 	mov    -0x1c20(%rbp),%rax
   14092:	41 89 c5             	mov    %eax,%r13d
   14095:	48 8b 05 24 8d 01 00 	mov    0x18d24(%rip),%rax        # 2cdc0 <g_1683>
   1409c:	48 85 c0             	test   %rax,%rax
   1409f:	74 53                	je     140f4 <func_4+0x35f1>
   140a1:	8b 05 d9 46 01 00    	mov    0x146d9(%rip),%eax        # 28780 <g_459>
   140a7:	c1 e0 03             	shl    $0x3,%eax
   140aa:	c0 f8 03             	sar    $0x3,%al
   140ad:	44 0f be e0          	movsbl %al,%r12d
   140b1:	48 8b 05 80 85 01 00 	mov    0x18580(%rip),%rax        # 2c638 <g_416>
   140b8:	48 8b 00             	mov    (%rax),%rax
   140bb:	0f b7 00             	movzwl (%rax),%eax
   140be:	0f b7 c0             	movzwl %ax,%eax
   140c1:	be 00 00 00 00       	mov    $0x0,%esi
   140c6:	89 c7                	mov    %eax,%edi
   140c8:	e8 ad 8d ff ff       	callq  ce7a <safe_rshift_func_uint16_t_u_u>
   140cd:	0f b7 d0             	movzwl %ax,%edx
   140d0:	48 8b 85 e0 e3 ff ff 	mov    -0x1c20(%rbp),%rax
   140d7:	48 85 c0             	test   %rax,%rax
   140da:	0f 94 c0             	sete   %al
   140dd:	0f b6 c0             	movzbl %al,%eax
   140e0:	39 c2                	cmp    %eax,%edx
   140e2:	0f 95 c0             	setne  %al
   140e5:	0f b6 c0             	movzbl %al,%eax
   140e8:	41 39 c4             	cmp    %eax,%r12d
   140eb:	74 07                	je     140f4 <func_4+0x35f1>
   140ed:	ba 01 00 00 00       	mov    $0x1,%edx
   140f2:	eb 05                	jmp    140f9 <func_4+0x35f6>
   140f4:	ba 00 00 00 00       	mov    $0x0,%edx
   140f9:	48 8b 85 f8 e5 ff ff 	mov    -0x1a08(%rbp),%rax
   14100:	89 10                	mov    %edx,(%rax)
   14102:	8b 10                	mov    (%rax),%edx
   14104:	0f b7 05 99 48 01 00 	movzwl 0x14899(%rip),%eax        # 289a4 <g_1687+0x4>
   1410b:	0f b7 c0             	movzwl %ax,%eax
   1410e:	39 c2                	cmp    %eax,%edx
   14110:	0f 9f c0             	setg   %al
   14113:	0f b6 d0             	movzbl %al,%edx
   14116:	48 8b 85 e0 e3 ff ff 	mov    -0x1c20(%rbp),%rax
   1411d:	48 39 c2             	cmp    %rax,%rdx
   14120:	0f 9c c0             	setl   %al
   14123:	0f b6 c0             	movzbl %al,%eax
   14126:	8b 95 10 e5 ff ff    	mov    -0x1af0(%rbp),%edx
   1412c:	89 d6                	mov    %edx,%esi
   1412e:	89 c7                	mov    %eax,%edi
   14130:	e8 58 8b ff ff       	callq  cc8d <safe_rshift_func_uint8_t_u_s>
   14135:	0f b6 c0             	movzbl %al,%eax
   14138:	39 85 14 e5 ff ff    	cmp    %eax,-0x1aec(%rbp)
   1413e:	0f 93 c0             	setae  %al
   14141:	0f b6 d0             	movzbl %al,%edx
   14144:	48 8b 05 9d 85 01 00 	mov    0x1859d(%rip),%rax        # 2c6e8 <g_744>
   1414b:	0f b7 00             	movzwl (%rax),%eax
   1414e:	48 0f bf c0          	movswq %ax,%rax
   14152:	48 39 c2             	cmp    %rax,%rdx
   14155:	0f 9f c0             	setg   %al
   14158:	0f b6 c0             	movzbl %al,%eax
   1415b:	48 8b 95 e0 e3 ff ff 	mov    -0x1c20(%rbp),%rdx
   14162:	21 d0                	and    %edx,%eax
   14164:	0f b7 c0             	movzwl %ax,%eax
   14167:	44 89 ee             	mov    %r13d,%esi
   1416a:	89 c7                	mov    %eax,%edi
   1416c:	e8 4d 8c ff ff       	callq  cdbe <safe_lshift_func_uint16_t_u_s>
   14171:	66 85 c0             	test   %ax,%ax
   14174:	0f 94 c0             	sete   %al
   14177:	0f b6 c0             	movzbl %al,%eax
   1417a:	89 de                	mov    %ebx,%esi
   1417c:	89 c7                	mov    %eax,%edi
   1417e:	e8 30 82 ff ff       	callq  c3b3 <safe_add_func_int16_t_s_s>
   14183:	98                   	cwtl   
   14184:	89 85 08 e5 ff ff    	mov    %eax,-0x1af8(%rbp)
   1418a:	48 8b 05 1f 8c 01 00 	mov    0x18c1f(%rip),%rax        # 2cdb0 <g_1615>
   14191:	8b 95 08 e5 ff ff    	mov    -0x1af8(%rbp),%edx
   14197:	89 10                	mov    %edx,(%rax)
   14199:	e9 17 02 00 00       	jmpq   143b5 <func_4+0x38b2>
   1419e:	c7 85 1c e5 ff ff 00 	movl   $0x0,-0x1ae4(%rbp)
   141a5:	00 00 00 
   141a8:	66 c7 85 10 e4 ff ff 	movw   $0xab6e,-0x1bf0(%rbp)
   141af:	6e ab 
   141b1:	c7 85 b0 f7 ff ff 02 	movl   $0x2,-0x850(%rbp)
   141b8:	00 00 00 
   141bb:	c7 85 b4 f7 ff ff 00 	movl   $0x0,-0x84c(%rbp)
   141c2:	00 00 00 
   141c5:	c7 85 b8 f7 ff ff 02 	movl   $0x2,-0x848(%rbp)
   141cc:	00 00 00 
   141cf:	c7 85 bc f7 ff ff 02 	movl   $0x2,-0x844(%rbp)
   141d6:	00 00 00 
   141d9:	c7 85 c0 f7 ff ff 00 	movl   $0x0,-0x840(%rbp)
   141e0:	00 00 00 
   141e3:	c7 85 c4 f7 ff ff 02 	movl   $0x2,-0x83c(%rbp)
   141ea:	00 00 00 
   141ed:	c7 85 c8 f7 ff ff 02 	movl   $0x2,-0x838(%rbp)
   141f4:	00 00 00 
   141f7:	c7 85 cc f7 ff ff 00 	movl   $0x0,-0x834(%rbp)
   141fe:	00 00 00 
   14201:	c7 85 d0 f7 ff ff 00 	movl   $0x0,-0x830(%rbp)
   14208:	00 00 00 
   1420b:	c7 85 d4 f7 ff ff 02 	movl   $0x2,-0x82c(%rbp)
   14212:	00 00 00 
   14215:	c7 85 d8 f7 ff ff 02 	movl   $0x2,-0x828(%rbp)
   1421c:	00 00 00 
   1421f:	c7 85 dc f7 ff ff 00 	movl   $0x0,-0x824(%rbp)
   14226:	00 00 00 
   14229:	c7 85 e0 f7 ff ff 02 	movl   $0x2,-0x820(%rbp)
   14230:	00 00 00 
   14233:	c7 85 e4 f7 ff ff 02 	movl   $0x2,-0x81c(%rbp)
   1423a:	00 00 00 
   1423d:	c7 85 e8 f7 ff ff 00 	movl   $0x0,-0x818(%rbp)
   14244:	00 00 00 
   14247:	c7 85 ec f7 ff ff 02 	movl   $0x2,-0x814(%rbp)
   1424e:	00 00 00 
   14251:	c7 85 f0 f7 ff ff 00 	movl   $0x0,-0x810(%rbp)
   14258:	00 00 00 
   1425b:	c7 85 f4 f7 ff ff 00 	movl   $0x0,-0x80c(%rbp)
   14262:	00 00 00 
   14265:	c7 85 f8 f7 ff ff 2f 	movl   $0x78ee3f2f,-0x808(%rbp)
   1426c:	3f ee 78 
   1426f:	c7 85 fc f7 ff ff 00 	movl   $0x0,-0x804(%rbp)
   14276:	00 00 00 
   14279:	c7 85 00 f8 ff ff 00 	movl   $0x0,-0x800(%rbp)
   14280:	00 00 00 
   14283:	c7 85 04 f8 ff ff 2f 	movl   $0x78ee3f2f,-0x7fc(%rbp)
   1428a:	3f ee 78 
   1428d:	c7 85 08 f8 ff ff 00 	movl   $0x0,-0x7f8(%rbp)
   14294:	00 00 00 
   14297:	c7 85 0c f8 ff ff 00 	movl   $0x0,-0x7f4(%rbp)
   1429e:	00 00 00 
   142a1:	c7 85 10 f8 ff ff 02 	movl   $0x2,-0x7f0(%rbp)
   142a8:	00 00 00 
   142ab:	c7 85 14 f8 ff ff 00 	movl   $0x0,-0x7ec(%rbp)
   142b2:	00 00 00 
   142b5:	c7 85 18 f8 ff ff 02 	movl   $0x2,-0x7e8(%rbp)
   142bc:	00 00 00 
   142bf:	c7 85 1c f8 ff ff 02 	movl   $0x2,-0x7e4(%rbp)
   142c6:	00 00 00 
   142c9:	c7 85 20 f8 ff ff 00 	movl   $0x0,-0x7e0(%rbp)
   142d0:	00 00 00 
   142d3:	c7 85 24 f8 ff ff 02 	movl   $0x2,-0x7dc(%rbp)
   142da:	00 00 00 
   142dd:	c7 85 28 f8 ff ff 02 	movl   $0x2,-0x7d8(%rbp)
   142e4:	00 00 00 
   142e7:	c7 85 2c f8 ff ff 00 	movl   $0x0,-0x7d4(%rbp)
   142ee:	00 00 00 
   142f1:	c7 85 30 f8 ff ff 00 	movl   $0x0,-0x7d0(%rbp)
   142f8:	00 00 00 
   142fb:	c7 85 34 f8 ff ff 02 	movl   $0x2,-0x7cc(%rbp)
   14302:	00 00 00 
   14305:	c7 85 38 f8 ff ff 02 	movl   $0x2,-0x7c8(%rbp)
   1430c:	00 00 00 
   1430f:	c7 85 3c f8 ff ff 00 	movl   $0x0,-0x7c4(%rbp)
   14316:	00 00 00 
   14319:	c7 85 40 f8 ff ff 02 	movl   $0x2,-0x7c0(%rbp)
   14320:	00 00 00 
   14323:	c7 85 44 f8 ff ff 02 	movl   $0x2,-0x7bc(%rbp)
   1432a:	00 00 00 
   1432d:	c7 85 48 f8 ff ff 00 	movl   $0x0,-0x7b8(%rbp)
   14334:	00 00 00 
   14337:	c7 85 4c f8 ff ff 02 	movl   $0x2,-0x7b4(%rbp)
   1433e:	00 00 00 
   14341:	c7 85 50 f8 ff ff 00 	movl   $0x0,-0x7b0(%rbp)
   14348:	00 00 00 
   1434b:	c7 85 54 f8 ff ff 00 	movl   $0x0,-0x7ac(%rbp)
   14352:	00 00 00 
   14355:	c7 85 58 f8 ff ff 2f 	movl   $0x78ee3f2f,-0x7a8(%rbp)
   1435c:	3f ee 78 
   1435f:	c7 85 5c f8 ff ff 00 	movl   $0x0,-0x7a4(%rbp)
   14366:	00 00 00 
   14369:	c7 85 60 f8 ff ff 00 	movl   $0x0,-0x7a0(%rbp)
   14370:	00 00 00 
   14373:	c7 85 64 f8 ff ff 2f 	movl   $0x78ee3f2f,-0x79c(%rbp)
   1437a:	3f ee 78 
   1437d:	c7 85 68 f8 ff ff 00 	movl   $0x0,-0x798(%rbp)
   14384:	00 00 00 
   14387:	c7 85 6c f8 ff ff 00 	movl   $0x0,-0x794(%rbp)
   1438e:	00 00 00 
   14391:	83 bd 1c e5 ff ff 00 	cmpl   $0x0,-0x1ae4(%rbp)
   14398:	0f 85 26 15 00 00    	jne    158c4 <func_4+0x4dc1>
   1439e:	83 85 60 e4 ff ff 01 	addl   $0x1,-0x1ba0(%rbp)
   143a5:	48 8b 85 e0 e3 ff ff 	mov    -0x1c20(%rbp),%rax
   143ac:	48 85 c0             	test   %rax,%rax
   143af:	0f 85 df 14 00 00    	jne    15894 <func_4+0x4d91>
   143b5:	66 83 85 08 e4 ff ff 	addw   $0x1,-0x1bf8(%rbp)
   143bc:	01 
   143bd:	66 83 bd ec e3 ff ff 	cmpw   $0x0,-0x1c14(%rbp)
   143c4:	00 
   143c5:	0f 84 ad 04 00 00    	je     14878 <func_4+0x3d75>
   143cb:	48 8d 05 ae 3c 01 00 	lea    0x13cae(%rip),%rax        # 28080 <g_38>
   143d2:	48 89 85 d0 f2 ff ff 	mov    %rax,-0xd30(%rbp)
   143d9:	48 8d 05 a0 3c 01 00 	lea    0x13ca0(%rip),%rax        # 28080 <g_38>
   143e0:	48 89 85 d8 f2 ff ff 	mov    %rax,-0xd28(%rbp)
   143e7:	48 8d 05 92 3c 01 00 	lea    0x13c92(%rip),%rax        # 28080 <g_38>
   143ee:	48 89 85 e0 f2 ff ff 	mov    %rax,-0xd20(%rbp)
   143f5:	48 8d 05 84 3c 01 00 	lea    0x13c84(%rip),%rax        # 28080 <g_38>
   143fc:	48 89 85 e8 f2 ff ff 	mov    %rax,-0xd18(%rbp)
   14403:	48 8d 85 f1 e3 ff ff 	lea    -0x1c0f(%rbp),%rax
   1440a:	48 89 85 f0 f2 ff ff 	mov    %rax,-0xd10(%rbp)
   14411:	48 8d 05 68 3c 01 00 	lea    0x13c68(%rip),%rax        # 28080 <g_38>
   14418:	48 89 85 f8 f2 ff ff 	mov    %rax,-0xd08(%rbp)
   1441f:	48 8d 05 5a 3c 01 00 	lea    0x13c5a(%rip),%rax        # 28080 <g_38>
   14426:	48 89 85 00 f3 ff ff 	mov    %rax,-0xd00(%rbp)
   1442d:	48 8d 05 4c 3c 01 00 	lea    0x13c4c(%rip),%rax        # 28080 <g_38>
   14434:	48 89 85 08 f3 ff ff 	mov    %rax,-0xcf8(%rbp)
   1443b:	48 8d 05 3e 3c 01 00 	lea    0x13c3e(%rip),%rax        # 28080 <g_38>
   14442:	48 89 85 10 f3 ff ff 	mov    %rax,-0xcf0(%rbp)
   14449:	48 8d 85 f1 e3 ff ff 	lea    -0x1c0f(%rbp),%rax
   14450:	48 89 85 18 f3 ff ff 	mov    %rax,-0xce8(%rbp)
   14457:	48 8d 85 10 e9 ff ff 	lea    -0x16f0(%rbp),%rax
   1445e:	48 89 85 48 e7 ff ff 	mov    %rax,-0x18b8(%rbp)
   14465:	66 c7 85 14 e4 ff ff 	movw   $0x1,-0x1bec(%rbp)
   1446c:	01 00 
   1446e:	c7 85 3c e5 ff ff b2 	movl   $0x2d75d4b2,-0x1ac4(%rbp)
   14475:	d4 75 2d 
   14478:	c7 85 40 e5 ff ff 01 	movl   $0x1,-0x1ac0(%rbp)
   1447f:	00 00 00 
   14482:	c7 85 44 e5 ff ff f8 	movl   $0x599a14f8,-0x1abc(%rbp)
   14489:	14 9a 59 
   1448c:	c7 85 60 e9 ff ff ff 	movl   $0xffffffff,-0x16a0(%rbp)
   14493:	ff ff ff 
   14496:	c7 85 64 e9 ff ff ff 	movl   $0xffffffff,-0x169c(%rbp)
   1449d:	ff ff ff 
   144a0:	c7 85 68 e9 ff ff ff 	movl   $0xffffffff,-0x1698(%rbp)
   144a7:	ff ff ff 
   144aa:	c7 85 6c e9 ff ff ff 	movl   $0xffffffff,-0x1694(%rbp)
   144b1:	ff ff ff 
   144b4:	c7 85 70 e9 ff ff ff 	movl   $0xffffffff,-0x1690(%rbp)
   144bb:	ff ff ff 
   144be:	c7 85 74 e9 ff ff ff 	movl   $0xffffffff,-0x168c(%rbp)
   144c5:	ff ff ff 
   144c8:	8b 1d ea 42 01 00    	mov    0x142ea(%rip),%ebx        # 287b8 <g_1037+0x18>
   144ce:	48 8b 95 e0 e3 ff ff 	mov    -0x1c20(%rbp),%rdx
   144d5:	48 8b 85 f8 e5 ff ff 	mov    -0x1a08(%rbp),%rax
   144dc:	89 10                	mov    %edx,(%rax)
   144de:	8b 00                	mov    (%rax),%eax
   144e0:	48 98                	cltq   
   144e2:	48 89 85 d8 e3 ff ff 	mov    %rax,-0x1c28(%rbp)
   144e9:	48 8b 05 f0 3f 01 00 	mov    0x13ff0(%rip),%rax        # 284e0 <g_146>
   144f0:	44 0f b6 e0          	movzbl %al,%r12d
   144f4:	8b 05 de 03 01 00    	mov    0x103de(%rip),%eax        # 248d8 <l_1732.4760+0x398>
   144fa:	4c 63 e8             	movslq %eax,%r13
   144fd:	be 0e 00 00 00       	mov    $0xe,%esi
   14502:	bf 01 00 00 00       	mov    $0x1,%edi
   14507:	e8 3c 89 ff ff       	callq  ce48 <safe_rshift_func_uint16_t_u_s>
   1450c:	0f b7 05 53 44 01 00 	movzwl 0x14453(%rip),%eax        # 28966 <g_1514+0x126>
   14513:	44 0f b7 f0          	movzwl %ax,%r14d
   14517:	0f b7 05 86 44 01 00 	movzwl 0x14486(%rip),%eax        # 289a4 <g_1687+0x4>
   1451e:	44 0f b7 f8          	movzwl %ax,%r15d
   14522:	48 8b 85 e0 e3 ff ff 	mov    -0x1c20(%rbp),%rax
   14529:	0f b6 c0             	movzbl %al,%eax
   1452c:	89 85 e8 e3 ff ff    	mov    %eax,-0x1c18(%rbp)
   14532:	8b 05 0c 8f 01 00    	mov    0x18f0c(%rip),%eax        # 2d444 <g_121>
   14538:	89 c6                	mov    %eax,%esi
   1453a:	48 8d 05 c8 3f 01 00 	lea    0x13fc8(%rip),%rax        # 28509 <g_289>
   14541:	48 89 85 d0 f2 ff ff 	mov    %rax,-0xd30(%rbp)
   14548:	48 8b 05 99 81 01 00 	mov    0x18199(%rip),%rax        # 2c6e8 <g_744>
   1454f:	0f b7 00             	movzwl (%rax),%eax
   14552:	0f bf d0             	movswl %ax,%edx
   14555:	48 8b 85 e8 e5 ff ff 	mov    -0x1a18(%rbp),%rax
   1455c:	48 8d 0d a6 3f 01 00 	lea    0x13fa6(%rip),%rcx        # 28509 <g_289>
   14563:	48 39 c8             	cmp    %rcx,%rax
   14566:	0f 95 c0             	setne  %al
   14569:	0f b6 c0             	movzbl %al,%eax
   1456c:	21 d0                	and    %edx,%eax
   1456e:	85 c0                	test   %eax,%eax
   14570:	74 36                	je     145a8 <func_4+0x3aa5>
   14572:	48 8b 95 10 e9 ff ff 	mov    -0x16f0(%rbp),%rdx
   14579:	48 8b 85 48 e7 ff ff 	mov    -0x18b8(%rbp),%rax
   14580:	48 89 10             	mov    %rdx,(%rax)
   14583:	48 8b 85 48 e7 ff ff 	mov    -0x18b8(%rbp),%rax
   1458a:	48 8b 10             	mov    (%rax),%rdx
   1458d:	48 8b 05 44 88 01 00 	mov    0x18844(%rip),%rax        # 2cdd8 <g_1729>
   14594:	48 39 c2             	cmp    %rax,%rdx
   14597:	66 83 bd ec e3 ff ff 	cmpw   $0xfff6,-0x1c14(%rbp)
   1459e:	f6 
   1459f:	7d 07                	jge    145a8 <func_4+0x3aa5>
   145a1:	b8 01 00 00 00       	mov    $0x1,%eax
   145a6:	eb 05                	jmp    145ad <func_4+0x3aaa>
   145a8:	b8 00 00 00 00       	mov    $0x0,%eax
   145ad:	89 c7                	mov    %eax,%edi
   145af:	e8 4b 81 ff ff       	callq  c6ff <safe_div_func_int32_t_s_s>
   145b4:	0f b6 c0             	movzbl %al,%eax
   145b7:	8b b5 e8 e3 ff ff    	mov    -0x1c18(%rbp),%esi
   145bd:	89 c7                	mov    %eax,%edi
   145bf:	e8 96 85 ff ff       	callq  cb5a <safe_add_func_uint8_t_u_u>
   145c4:	0f b6 d0             	movzbl %al,%edx
   145c7:	8b 05 b7 00 01 00    	mov    0x100b7(%rip),%eax        # 24684 <l_1732.4760+0x144>
   145cd:	39 c2                	cmp    %eax,%edx
   145cf:	0f 9c c0             	setl   %al
   145d2:	0f b6 c0             	movzbl %al,%eax
   145d5:	44 89 fe             	mov    %r15d,%esi
   145d8:	89 c7                	mov    %eax,%edi
   145da:	e8 8d 7d ff ff       	callq  c36c <safe_rshift_func_int8_t_s_u>
   145df:	48 8b 05 e2 87 01 00 	mov    0x187e2(%rip),%rax        # 2cdc8 <g_1731>
   145e6:	0f b6 00             	movzbl (%rax),%eax
   145e9:	0f b6 c0             	movzbl %al,%eax
   145ec:	44 89 f6             	mov    %r14d,%esi
   145ef:	89 c7                	mov    %eax,%edi
   145f1:	e8 97 86 ff ff       	callq  cc8d <safe_rshift_func_uint8_t_u_s>
   145f6:	89 c2                	mov    %eax,%edx
   145f8:	48 8b 05 c9 80 01 00 	mov    0x180c9(%rip),%rax        # 2c6c8 <g_570>
   145ff:	48 8b 00             	mov    (%rax),%rax
   14602:	0f b6 d2             	movzbl %dl,%edx
   14605:	48 89 10             	mov    %rdx,(%rax)
   14608:	48 8b 00             	mov    (%rax),%rax
   1460b:	48 89 c2             	mov    %rax,%rdx
   1460e:	48 b8 5a 86 39 82 c0 	movabs $0x919bb5c08239865a,%rax
   14615:	b5 9b 91 
   14618:	48 31 c2             	xor    %rax,%rdx
   1461b:	48 b8 13 23 3e 37 0b 	movabs $0x75ed6f0b373e2313,%rax
   14622:	6f ed 75 
   14625:	48 39 c2             	cmp    %rax,%rdx
   14628:	0f 97 c0             	seta   %al
   1462b:	0f b6 d0             	movzbl %al,%edx
   1462e:	48 8b 85 e0 e3 ff ff 	mov    -0x1c20(%rbp),%rax
   14635:	48 39 c2             	cmp    %rax,%rdx
   14638:	7c 11                	jl     1464b <func_4+0x3b48>
   1463a:	8b 05 44 00 01 00    	mov    0x10044(%rip),%eax        # 24684 <l_1732.4760+0x144>
   14640:	85 c0                	test   %eax,%eax
   14642:	74 07                	je     1464b <func_4+0x3b48>
   14644:	b8 01 00 00 00       	mov    $0x1,%eax
   14649:	eb 05                	jmp    14650 <func_4+0x3b4d>
   1464b:	b8 00 00 00 00       	mov    $0x0,%eax
   14650:	48 98                	cltq   
   14652:	4c 89 ee             	mov    %r13,%rsi
   14655:	48 89 c7             	mov    %rax,%rdi
   14658:	e8 23 8a ff ff       	callq  d080 <safe_mod_func_uint64_t_u_u>
   1465d:	48 89 c6             	mov    %rax,%rsi
   14660:	48 bf c5 69 db 6a 08 	movabs $0x596398086adb69c5,%rdi
   14667:	98 63 59 
   1466a:	e8 11 8a ff ff       	callq  d080 <safe_mod_func_uint64_t_u_u>
   1466f:	0f b6 c0             	movzbl %al,%eax
   14672:	44 89 e6             	mov    %r12d,%esi
   14675:	89 c7                	mov    %eax,%edi
   14677:	e8 de 84 ff ff       	callq  cb5a <safe_add_func_uint8_t_u_u>
   1467c:	0f b6 d0             	movzbl %al,%edx
   1467f:	48 8b 85 e0 e3 ff ff 	mov    -0x1c20(%rbp),%rax
   14686:	48 31 d0             	xor    %rdx,%rax
   14689:	48 39 85 d8 e3 ff ff 	cmp    %rax,-0x1c28(%rbp)
   14690:	0f 9c c0             	setl   %al
   14693:	44 0f b6 e0          	movzbl %al,%r12d
   14697:	bf 4c 00 00 00       	mov    $0x4c,%edi
   1469c:	e8 a4 84 ff ff       	callq  cb45 <safe_unary_minus_func_uint8_t_u>
   146a1:	0f b6 c0             	movzbl %al,%eax
   146a4:	4c 89 e6             	mov    %r12,%rsi
   146a7:	48 89 c7             	mov    %rax,%rdi
   146aa:	e8 f9 81 ff ff       	callq  c8a8 <safe_sub_func_int64_t_s_s>
   146af:	ba ff ff ff ff       	mov    $0xffffffff,%edx
   146b4:	48 39 d0             	cmp    %rdx,%rax
   146b7:	74 14                	je     146cd <func_4+0x3bca>
   146b9:	48 8b 85 f8 e5 ff ff 	mov    -0x1a08(%rbp),%rax
   146c0:	8b 00                	mov    (%rax),%eax
   146c2:	85 c0                	test   %eax,%eax
   146c4:	74 07                	je     146cd <func_4+0x3bca>
   146c6:	b8 01 00 00 00       	mov    $0x1,%eax
   146cb:	eb 05                	jmp    146d2 <func_4+0x3bcf>
   146cd:	b8 00 00 00 00       	mov    $0x0,%eax
   146d2:	66 21 85 14 e4 ff ff 	and    %ax,-0x1bec(%rbp)
   146d9:	0f b7 85 14 e4 ff ff 	movzwl -0x1bec(%rbp),%eax
   146e0:	0f be c0             	movsbl %al,%eax
   146e3:	89 de                	mov    %ebx,%esi
   146e5:	89 c7                	mov    %eax,%edi
   146e7:	e8 80 7c ff ff       	callq  c36c <safe_rshift_func_int8_t_s_u>
   146ec:	48 0f be d0          	movsbq %al,%rdx
   146f0:	48 8b 05 05 3e 01 00 	mov    0x13e05(%rip),%rax        # 284fc <g_146+0x1c>
   146f7:	48 39 c2             	cmp    %rax,%rdx
   146fa:	77 1c                	ja     14718 <func_4+0x3c15>
   146fc:	48 8b 05 dd 7f 01 00 	mov    0x17fdd(%rip),%rax        # 2c6e0 <g_718>
   14703:	0f bf 95 ec e3 ff ff 	movswl -0x1c14(%rbp),%edx
   1470a:	89 10                	mov    %edx,(%rax)
   1470c:	48 8b 85 f8 e6 ff ff 	mov    -0x1908(%rbp),%rax
   14713:	e9 b0 36 00 00       	jmpq   17dc8 <func_4+0x72c5>
   14718:	48 8d 85 40 ea ff ff 	lea    -0x15c0(%rbp),%rax
   1471f:	48 89 85 50 e7 ff ff 	mov    %rax,-0x18b0(%rbp)
   14726:	48 8b 05 33 86 01 00 	mov    0x18633(%rip),%rax        # 2cd60 <g_965>
   1472d:	48 8b 00             	mov    (%rax),%rax
   14730:	8b 15 7a 42 01 00    	mov    0x1427a(%rip),%edx        # 289b0 <g_1734>
   14736:	89 10                	mov    %edx,(%rax)
   14738:	48 8b 85 50 e7 ff ff 	mov    -0x18b0(%rbp),%rax
   1473f:	48 c7 00 00 00 00 00 	movq   $0x0,(%rax)
   14746:	c7 05 68 40 01 00 00 	movl   $0x0,0x14068(%rip)        # 287b8 <g_1037+0x18>
   1474d:	00 00 00 
   14750:	e9 0f 01 00 00       	jmpq   14864 <func_4+0x3d61>
   14755:	c7 85 48 e5 ff ff 69 	movl   $0x88e96a69,-0x1ab8(%rbp)
   1475c:	6a e9 88 
   1475f:	c7 85 4c e5 ff ff ff 	movl   $0xffffffff,-0x1ab4(%rbp)
   14766:	ff ff ff 
   14769:	c7 85 80 eb ff ff 86 	movl   $0x15f6fd86,-0x1480(%rbp)
   14770:	fd f6 15 
   14773:	c7 85 84 eb ff ff 86 	movl   $0x15f6fd86,-0x147c(%rbp)
   1477a:	fd f6 15 
   1477d:	c7 85 88 eb ff ff 86 	movl   $0x15f6fd86,-0x1478(%rbp)
   14784:	fd f6 15 
   14787:	c7 85 8c eb ff ff 86 	movl   $0x15f6fd86,-0x1474(%rbp)
   1478e:	fd f6 15 
   14791:	c7 85 90 eb ff ff 86 	movl   $0x15f6fd86,-0x1470(%rbp)
   14798:	fd f6 15 
   1479b:	c7 85 94 eb ff ff 86 	movl   $0x15f6fd86,-0x146c(%rbp)
   147a2:	fd f6 15 
   147a5:	c7 85 98 eb ff ff 86 	movl   $0x15f6fd86,-0x1468(%rbp)
   147ac:	fd f6 15 
   147af:	c7 85 9c eb ff ff 86 	movl   $0x15f6fd86,-0x1464(%rbp)
   147b6:	fd f6 15 
   147b9:	c7 85 a0 eb ff ff 86 	movl   $0x15f6fd86,-0x1460(%rbp)
   147c0:	fd f6 15 
   147c3:	c7 85 a4 eb ff ff 86 	movl   $0x15f6fd86,-0x145c(%rbp)
   147ca:	fd f6 15 
   147cd:	c7 85 50 e5 ff ff fa 	movl   $0xcd8936fa,-0x1ab0(%rbp)
   147d4:	36 89 cd 
   147d7:	48 8d 85 b0 f7 ff ff 	lea    -0x850(%rbp),%rax
   147de:	48 8d 15 7b dd 00 00 	lea    0xdd7b(%rip),%rdx        # 22560 <g_1963+0x144c>
   147e5:	b9 36 00 00 00       	mov    $0x36,%ecx
   147ea:	48 89 c7             	mov    %rax,%rdi
   147ed:	48 89 d6             	mov    %rdx,%rsi
   147f0:	f3 48 a5             	rep movsq %ds:(%rsi),%es:(%rdi)
   147f3:	48 8b 05 b6 85 01 00 	mov    0x185b6(%rip),%rax        # 2cdb0 <g_1615>
   147fa:	8b 00                	mov    (%rax),%eax
   147fc:	89 c2                	mov    %eax,%edx
   147fe:	48 8b 85 30 f5 ff ff 	mov    -0xad0(%rbp),%rax
   14805:	09 c2                	or     %eax,%edx
   14807:	48 8b 05 a2 85 01 00 	mov    0x185a2(%rip),%rax        # 2cdb0 <g_1615>
   1480e:	89 10                	mov    %edx,(%rax)
   14810:	48 8b 85 f8 e5 ff ff 	mov    -0x1a08(%rbp),%rax
   14817:	8b 08                	mov    (%rax),%ecx
   14819:	48 83 bd b0 e6 ff ff 	cmpq   $0x0,-0x1950(%rbp)
   14820:	00 
   14821:	0f 95 c0             	setne  %al
   14824:	0f b6 d0             	movzbl %al,%edx
   14827:	0f bf 85 ec e3 ff ff 	movswl -0x1c14(%rbp),%eax
   1482e:	21 d0                	and    %edx,%eax
   14830:	3d fa ff 00 00       	cmp    $0xfffa,%eax
   14835:	0f 95 c0             	setne  %al
   14838:	0f b6 d0             	movzbl %al,%edx
   1483b:	48 8b 85 f8 e5 ff ff 	mov    -0x1a08(%rbp),%rax
   14842:	31 ca                	xor    %ecx,%edx
   14844:	89 10                	mov    %edx,(%rax)
   14846:	8b 85 00 f8 ff ff    	mov    -0x800(%rbp),%eax
   1484c:	83 e8 01             	sub    $0x1,%eax
   1484f:	89 85 00 f8 ff ff    	mov    %eax,-0x800(%rbp)
   14855:	8b 05 5d 3f 01 00    	mov    0x13f5d(%rip),%eax        # 287b8 <g_1037+0x18>
   1485b:	83 c0 01             	add    $0x1,%eax
   1485e:	89 05 54 3f 01 00    	mov    %eax,0x13f54(%rip)        # 287b8 <g_1037+0x18>
   14864:	8b 05 4e 3f 01 00    	mov    0x13f4e(%rip),%eax        # 287b8 <g_1037+0x18>
   1486a:	83 f8 07             	cmp    $0x7,%eax
   1486d:	0f 86 e2 fe ff ff    	jbe    14755 <func_4+0x3c52>
   14873:	e9 26 0f 00 00       	jmpq   1579e <func_4+0x4c9b>
   14878:	48 8d 05 19 3f 01 00 	lea    0x13f19(%rip),%rax        # 28798 <g_646>
   1487f:	48 89 85 b0 f7 ff ff 	mov    %rax,-0x850(%rbp)
   14886:	48 8d 85 20 e6 ff ff 	lea    -0x19e0(%rbp),%rax
   1488d:	48 89 85 b8 f7 ff ff 	mov    %rax,-0x848(%rbp)
   14894:	48 8d 85 20 e6 ff ff 	lea    -0x19e0(%rbp),%rax
   1489b:	48 89 85 c0 f7 ff ff 	mov    %rax,-0x840(%rbp)
   148a2:	48 8d 85 18 e6 ff ff 	lea    -0x19e8(%rbp),%rax
   148a9:	48 89 85 c8 f7 ff ff 	mov    %rax,-0x838(%rbp)
   148b0:	48 8d 85 20 e6 ff ff 	lea    -0x19e0(%rbp),%rax
   148b7:	48 89 85 d0 f7 ff ff 	mov    %rax,-0x830(%rbp)
   148be:	48 8d 85 80 e9 ff ff 	lea    -0x1680(%rbp),%rax
   148c5:	48 83 c0 04          	add    $0x4,%rax
   148c9:	48 89 85 d8 f7 ff ff 	mov    %rax,-0x828(%rbp)
   148d0:	48 8d 05 f5 37 01 00 	lea    0x137f5(%rip),%rax        # 280cc <g_71>
   148d7:	48 89 85 e0 f7 ff ff 	mov    %rax,-0x820(%rbp)
   148de:	48 8d 85 20 e6 ff ff 	lea    -0x19e0(%rbp),%rax
   148e5:	48 89 85 e8 f7 ff ff 	mov    %rax,-0x818(%rbp)
   148ec:	48 8d 05 a5 3e 01 00 	lea    0x13ea5(%rip),%rax        # 28798 <g_646>
   148f3:	48 89 85 f0 f7 ff ff 	mov    %rax,-0x810(%rbp)
   148fa:	48 8d 05 97 3e 01 00 	lea    0x13e97(%rip),%rax        # 28798 <g_646>
   14901:	48 89 85 f8 f7 ff ff 	mov    %rax,-0x808(%rbp)
   14908:	48 8d 85 20 e6 ff ff 	lea    -0x19e0(%rbp),%rax
   1490f:	48 89 85 00 f8 ff ff 	mov    %rax,-0x800(%rbp)
   14916:	48 8d 85 20 e6 ff ff 	lea    -0x19e0(%rbp),%rax
   1491d:	48 89 85 08 f8 ff ff 	mov    %rax,-0x7f8(%rbp)
   14924:	48 8d 85 18 e6 ff ff 	lea    -0x19e8(%rbp),%rax
   1492b:	48 89 85 10 f8 ff ff 	mov    %rax,-0x7f0(%rbp)
   14932:	48 8d 85 20 e6 ff ff 	lea    -0x19e0(%rbp),%rax
   14939:	48 89 85 18 f8 ff ff 	mov    %rax,-0x7e8(%rbp)
   14940:	48 8d 85 80 e9 ff ff 	lea    -0x1680(%rbp),%rax
   14947:	48 83 c0 04          	add    $0x4,%rax
   1494b:	48 89 85 20 f8 ff ff 	mov    %rax,-0x7e0(%rbp)
   14952:	48 8d 85 80 e9 ff ff 	lea    -0x1680(%rbp),%rax
   14959:	48 83 c0 04          	add    $0x4,%rax
   1495d:	48 89 85 28 f8 ff ff 	mov    %rax,-0x7d8(%rbp)
   14964:	48 8d 85 2c e4 ff ff 	lea    -0x1bd4(%rbp),%rax
   1496b:	48 89 85 30 f8 ff ff 	mov    %rax,-0x7d0(%rbp)
   14972:	48 8d 85 28 e6 ff ff 	lea    -0x19d8(%rbp),%rax
   14979:	48 89 85 38 f8 ff ff 	mov    %rax,-0x7c8(%rbp)
   14980:	48 8d 85 20 e6 ff ff 	lea    -0x19e0(%rbp),%rax
   14987:	48 89 85 40 f8 ff ff 	mov    %rax,-0x7c0(%rbp)
   1498e:	48 8d 85 2c e4 ff ff 	lea    -0x1bd4(%rbp),%rax
   14995:	48 89 85 48 f8 ff ff 	mov    %rax,-0x7b8(%rbp)
   1499c:	48 8d 85 2c e4 ff ff 	lea    -0x1bd4(%rbp),%rax
   149a3:	48 89 85 50 f8 ff ff 	mov    %rax,-0x7b0(%rbp)
   149aa:	48 8d 05 e7 3d 01 00 	lea    0x13de7(%rip),%rax        # 28798 <g_646>
   149b1:	48 89 85 58 f8 ff ff 	mov    %rax,-0x7a8(%rbp)
   149b8:	48 8d 85 2c e4 ff ff 	lea    -0x1bd4(%rbp),%rax
   149bf:	48 89 85 60 f8 ff ff 	mov    %rax,-0x7a0(%rbp)
   149c6:	48 8d 85 80 e9 ff ff 	lea    -0x1680(%rbp),%rax
   149cd:	48 83 c0 04          	add    $0x4,%rax
   149d1:	48 89 85 68 f8 ff ff 	mov    %rax,-0x798(%rbp)
   149d8:	48 8d 85 80 e9 ff ff 	lea    -0x1680(%rbp),%rax
   149df:	48 83 c0 04          	add    $0x4,%rax
   149e3:	48 89 85 70 f8 ff ff 	mov    %rax,-0x790(%rbp)
   149ea:	48 8d 85 2c e4 ff ff 	lea    -0x1bd4(%rbp),%rax
   149f1:	48 89 85 78 f8 ff ff 	mov    %rax,-0x788(%rbp)
   149f8:	48 8d 85 28 e6 ff ff 	lea    -0x19d8(%rbp),%rax
   149ff:	48 89 85 80 f8 ff ff 	mov    %rax,-0x780(%rbp)
   14a06:	48 8d 85 20 e6 ff ff 	lea    -0x19e0(%rbp),%rax
   14a0d:	48 89 85 88 f8 ff ff 	mov    %rax,-0x778(%rbp)
   14a14:	48 8d 85 2c e4 ff ff 	lea    -0x1bd4(%rbp),%rax
   14a1b:	48 89 85 90 f8 ff ff 	mov    %rax,-0x770(%rbp)
   14a22:	48 8d 85 2c e4 ff ff 	lea    -0x1bd4(%rbp),%rax
   14a29:	48 89 85 98 f8 ff ff 	mov    %rax,-0x768(%rbp)
   14a30:	48 8d 05 61 3d 01 00 	lea    0x13d61(%rip),%rax        # 28798 <g_646>
   14a37:	48 89 85 a0 f8 ff ff 	mov    %rax,-0x760(%rbp)
   14a3e:	48 8d 85 2c e4 ff ff 	lea    -0x1bd4(%rbp),%rax
   14a45:	48 89 85 a8 f8 ff ff 	mov    %rax,-0x758(%rbp)
   14a4c:	48 8d 85 80 e9 ff ff 	lea    -0x1680(%rbp),%rax
   14a53:	48 83 c0 04          	add    $0x4,%rax
   14a57:	48 89 85 b0 f8 ff ff 	mov    %rax,-0x750(%rbp)
   14a5e:	48 8d 85 80 e9 ff ff 	lea    -0x1680(%rbp),%rax
   14a65:	48 83 c0 04          	add    $0x4,%rax
   14a69:	48 89 85 b8 f8 ff ff 	mov    %rax,-0x748(%rbp)
   14a70:	48 8d 85 2c e4 ff ff 	lea    -0x1bd4(%rbp),%rax
   14a77:	48 89 85 c0 f8 ff ff 	mov    %rax,-0x740(%rbp)
   14a7e:	48 8d 85 28 e6 ff ff 	lea    -0x19d8(%rbp),%rax
   14a85:	48 89 85 c8 f8 ff ff 	mov    %rax,-0x738(%rbp)
   14a8c:	48 8d 85 20 e6 ff ff 	lea    -0x19e0(%rbp),%rax
   14a93:	48 89 85 d0 f8 ff ff 	mov    %rax,-0x730(%rbp)
   14a9a:	48 8d 85 2c e4 ff ff 	lea    -0x1bd4(%rbp),%rax
   14aa1:	48 89 85 d8 f8 ff ff 	mov    %rax,-0x728(%rbp)
   14aa8:	48 8d 85 2c e4 ff ff 	lea    -0x1bd4(%rbp),%rax
   14aaf:	48 89 85 e0 f8 ff ff 	mov    %rax,-0x720(%rbp)
   14ab6:	48 8d 05 db 3c 01 00 	lea    0x13cdb(%rip),%rax        # 28798 <g_646>
   14abd:	48 89 85 e8 f8 ff ff 	mov    %rax,-0x718(%rbp)
   14ac4:	48 8d 85 2c e4 ff ff 	lea    -0x1bd4(%rbp),%rax
   14acb:	48 89 85 f0 f8 ff ff 	mov    %rax,-0x710(%rbp)
   14ad2:	48 8d 85 80 e9 ff ff 	lea    -0x1680(%rbp),%rax
   14ad9:	48 83 c0 04          	add    $0x4,%rax
   14add:	48 89 85 f8 f8 ff ff 	mov    %rax,-0x708(%rbp)
   14ae4:	48 8d 85 80 e9 ff ff 	lea    -0x1680(%rbp),%rax
   14aeb:	48 83 c0 04          	add    $0x4,%rax
   14aef:	48 89 85 00 f9 ff ff 	mov    %rax,-0x700(%rbp)
   14af6:	48 8d 85 2c e4 ff ff 	lea    -0x1bd4(%rbp),%rax
   14afd:	48 89 85 08 f9 ff ff 	mov    %rax,-0x6f8(%rbp)
   14b04:	48 8d 85 28 e6 ff ff 	lea    -0x19d8(%rbp),%rax
   14b0b:	48 89 85 10 f9 ff ff 	mov    %rax,-0x6f0(%rbp)
   14b12:	48 8d 85 20 e6 ff ff 	lea    -0x19e0(%rbp),%rax
   14b19:	48 89 85 18 f9 ff ff 	mov    %rax,-0x6e8(%rbp)
   14b20:	48 8d 85 2c e4 ff ff 	lea    -0x1bd4(%rbp),%rax
   14b27:	48 89 85 20 f9 ff ff 	mov    %rax,-0x6e0(%rbp)
   14b2e:	48 8d 85 2c e4 ff ff 	lea    -0x1bd4(%rbp),%rax
   14b35:	48 89 85 28 f9 ff ff 	mov    %rax,-0x6d8(%rbp)
   14b3c:	48 8d 05 55 3c 01 00 	lea    0x13c55(%rip),%rax        # 28798 <g_646>
   14b43:	48 89 85 30 f9 ff ff 	mov    %rax,-0x6d0(%rbp)
   14b4a:	48 8d 85 2c e4 ff ff 	lea    -0x1bd4(%rbp),%rax
   14b51:	48 89 85 38 f9 ff ff 	mov    %rax,-0x6c8(%rbp)
   14b58:	48 8d 85 80 e9 ff ff 	lea    -0x1680(%rbp),%rax
   14b5f:	48 83 c0 04          	add    $0x4,%rax
   14b63:	48 89 85 40 f9 ff ff 	mov    %rax,-0x6c0(%rbp)
   14b6a:	48 8d 85 80 e9 ff ff 	lea    -0x1680(%rbp),%rax
   14b71:	48 83 c0 04          	add    $0x4,%rax
   14b75:	48 89 85 48 f9 ff ff 	mov    %rax,-0x6b8(%rbp)
   14b7c:	48 8d 85 2c e4 ff ff 	lea    -0x1bd4(%rbp),%rax
   14b83:	48 89 85 50 f9 ff ff 	mov    %rax,-0x6b0(%rbp)
   14b8a:	48 8d 85 28 e6 ff ff 	lea    -0x19d8(%rbp),%rax
   14b91:	48 89 85 58 f9 ff ff 	mov    %rax,-0x6a8(%rbp)
   14b98:	48 8d 85 20 e6 ff ff 	lea    -0x19e0(%rbp),%rax
   14b9f:	48 89 85 60 f9 ff ff 	mov    %rax,-0x6a0(%rbp)
   14ba6:	48 8d 85 2c e4 ff ff 	lea    -0x1bd4(%rbp),%rax
   14bad:	48 89 85 68 f9 ff ff 	mov    %rax,-0x698(%rbp)
   14bb4:	48 8d 85 2c e4 ff ff 	lea    -0x1bd4(%rbp),%rax
   14bbb:	48 89 85 70 f9 ff ff 	mov    %rax,-0x690(%rbp)
   14bc2:	48 8d 05 cf 3b 01 00 	lea    0x13bcf(%rip),%rax        # 28798 <g_646>
   14bc9:	48 89 85 78 f9 ff ff 	mov    %rax,-0x688(%rbp)
   14bd0:	48 8d 85 2c e4 ff ff 	lea    -0x1bd4(%rbp),%rax
   14bd7:	48 89 85 80 f9 ff ff 	mov    %rax,-0x680(%rbp)
   14bde:	48 8d 85 80 e9 ff ff 	lea    -0x1680(%rbp),%rax
   14be5:	48 83 c0 04          	add    $0x4,%rax
   14be9:	48 89 85 88 f9 ff ff 	mov    %rax,-0x678(%rbp)
   14bf0:	48 8d 85 80 e9 ff ff 	lea    -0x1680(%rbp),%rax
   14bf7:	48 83 c0 04          	add    $0x4,%rax
   14bfb:	48 89 85 90 f9 ff ff 	mov    %rax,-0x670(%rbp)
   14c02:	48 8d 85 2c e4 ff ff 	lea    -0x1bd4(%rbp),%rax
   14c09:	48 89 85 98 f9 ff ff 	mov    %rax,-0x668(%rbp)
   14c10:	48 8d 85 28 e6 ff ff 	lea    -0x19d8(%rbp),%rax
   14c17:	48 89 85 a0 f9 ff ff 	mov    %rax,-0x660(%rbp)
   14c1e:	48 8d 85 20 e6 ff ff 	lea    -0x19e0(%rbp),%rax
   14c25:	48 89 85 a8 f9 ff ff 	mov    %rax,-0x658(%rbp)
   14c2c:	48 8d 85 2c e4 ff ff 	lea    -0x1bd4(%rbp),%rax
   14c33:	48 89 85 b0 f9 ff ff 	mov    %rax,-0x650(%rbp)
   14c3a:	48 8d 85 2c e4 ff ff 	lea    -0x1bd4(%rbp),%rax
   14c41:	48 89 85 b8 f9 ff ff 	mov    %rax,-0x648(%rbp)
   14c48:	48 8d 05 49 3b 01 00 	lea    0x13b49(%rip),%rax        # 28798 <g_646>
   14c4f:	48 89 85 c0 f9 ff ff 	mov    %rax,-0x640(%rbp)
   14c56:	48 8d 85 2c e4 ff ff 	lea    -0x1bd4(%rbp),%rax
   14c5d:	48 89 85 c8 f9 ff ff 	mov    %rax,-0x638(%rbp)
   14c64:	48 8d 85 80 e9 ff ff 	lea    -0x1680(%rbp),%rax
   14c6b:	48 83 c0 04          	add    $0x4,%rax
   14c6f:	48 89 85 d0 f9 ff ff 	mov    %rax,-0x630(%rbp)
   14c76:	48 8d 85 80 e9 ff ff 	lea    -0x1680(%rbp),%rax
   14c7d:	48 83 c0 04          	add    $0x4,%rax
   14c81:	48 89 85 d8 f9 ff ff 	mov    %rax,-0x628(%rbp)
   14c88:	48 8d 85 2c e4 ff ff 	lea    -0x1bd4(%rbp),%rax
   14c8f:	48 89 85 e0 f9 ff ff 	mov    %rax,-0x620(%rbp)
   14c96:	48 8d 85 28 e6 ff ff 	lea    -0x19d8(%rbp),%rax
   14c9d:	48 89 85 e8 f9 ff ff 	mov    %rax,-0x618(%rbp)
   14ca4:	48 8d 85 20 e6 ff ff 	lea    -0x19e0(%rbp),%rax
   14cab:	48 89 85 f0 f9 ff ff 	mov    %rax,-0x610(%rbp)
   14cb2:	48 8d 85 2c e4 ff ff 	lea    -0x1bd4(%rbp),%rax
   14cb9:	48 89 85 f8 f9 ff ff 	mov    %rax,-0x608(%rbp)
   14cc0:	48 8d 85 2c e4 ff ff 	lea    -0x1bd4(%rbp),%rax
   14cc7:	48 89 85 00 fa ff ff 	mov    %rax,-0x600(%rbp)
   14cce:	48 8d 05 c3 3a 01 00 	lea    0x13ac3(%rip),%rax        # 28798 <g_646>
   14cd5:	48 89 85 08 fa ff ff 	mov    %rax,-0x5f8(%rbp)
   14cdc:	48 8d 85 2c e4 ff ff 	lea    -0x1bd4(%rbp),%rax
   14ce3:	48 89 85 10 fa ff ff 	mov    %rax,-0x5f0(%rbp)
   14cea:	48 8d 85 80 e9 ff ff 	lea    -0x1680(%rbp),%rax
   14cf1:	48 83 c0 04          	add    $0x4,%rax
   14cf5:	48 89 85 18 fa ff ff 	mov    %rax,-0x5e8(%rbp)
   14cfc:	48 8d 85 80 e9 ff ff 	lea    -0x1680(%rbp),%rax
   14d03:	48 83 c0 04          	add    $0x4,%rax
   14d07:	48 89 85 20 fa ff ff 	mov    %rax,-0x5e0(%rbp)
   14d0e:	48 8d 85 2c e4 ff ff 	lea    -0x1bd4(%rbp),%rax
   14d15:	48 89 85 28 fa ff ff 	mov    %rax,-0x5d8(%rbp)
   14d1c:	48 8d 85 28 e6 ff ff 	lea    -0x19d8(%rbp),%rax
   14d23:	48 89 85 30 fa ff ff 	mov    %rax,-0x5d0(%rbp)
   14d2a:	48 8d 85 20 e6 ff ff 	lea    -0x19e0(%rbp),%rax
   14d31:	48 89 85 38 fa ff ff 	mov    %rax,-0x5c8(%rbp)
   14d38:	48 8d 85 2c e4 ff ff 	lea    -0x1bd4(%rbp),%rax
   14d3f:	48 89 85 40 fa ff ff 	mov    %rax,-0x5c0(%rbp)
   14d46:	48 8d 85 2c e4 ff ff 	lea    -0x1bd4(%rbp),%rax
   14d4d:	48 89 85 48 fa ff ff 	mov    %rax,-0x5b8(%rbp)
   14d54:	48 8d 05 3d 3a 01 00 	lea    0x13a3d(%rip),%rax        # 28798 <g_646>
   14d5b:	48 89 85 50 fa ff ff 	mov    %rax,-0x5b0(%rbp)
   14d62:	48 8d 85 2c e4 ff ff 	lea    -0x1bd4(%rbp),%rax
   14d69:	48 89 85 58 fa ff ff 	mov    %rax,-0x5a8(%rbp)
   14d70:	48 8d 85 80 e9 ff ff 	lea    -0x1680(%rbp),%rax
   14d77:	48 83 c0 04          	add    $0x4,%rax
   14d7b:	48 89 85 60 fa ff ff 	mov    %rax,-0x5a0(%rbp)
   14d82:	48 8d 85 80 e9 ff ff 	lea    -0x1680(%rbp),%rax
   14d89:	48 83 c0 04          	add    $0x4,%rax
   14d8d:	48 89 85 68 fa ff ff 	mov    %rax,-0x598(%rbp)
   14d94:	48 8d 85 2c e4 ff ff 	lea    -0x1bd4(%rbp),%rax
   14d9b:	48 89 85 70 fa ff ff 	mov    %rax,-0x590(%rbp)
   14da2:	48 8d 85 28 e6 ff ff 	lea    -0x19d8(%rbp),%rax
   14da9:	48 89 85 78 fa ff ff 	mov    %rax,-0x588(%rbp)
   14db0:	48 8d 85 20 e6 ff ff 	lea    -0x19e0(%rbp),%rax
   14db7:	48 89 85 80 fa ff ff 	mov    %rax,-0x580(%rbp)
   14dbe:	48 8d 85 2c e4 ff ff 	lea    -0x1bd4(%rbp),%rax
   14dc5:	48 89 85 88 fa ff ff 	mov    %rax,-0x578(%rbp)
   14dcc:	48 8d 85 2c e4 ff ff 	lea    -0x1bd4(%rbp),%rax
   14dd3:	48 89 85 90 fa ff ff 	mov    %rax,-0x570(%rbp)
   14dda:	48 8d 05 b7 39 01 00 	lea    0x139b7(%rip),%rax        # 28798 <g_646>
   14de1:	48 89 85 98 fa ff ff 	mov    %rax,-0x568(%rbp)
   14de8:	48 8d 85 2c e4 ff ff 	lea    -0x1bd4(%rbp),%rax
   14def:	48 89 85 a0 fa ff ff 	mov    %rax,-0x560(%rbp)
   14df6:	48 8d 85 80 e9 ff ff 	lea    -0x1680(%rbp),%rax
   14dfd:	48 83 c0 04          	add    $0x4,%rax
   14e01:	48 89 85 a8 fa ff ff 	mov    %rax,-0x558(%rbp)
   14e08:	48 8d 85 80 e9 ff ff 	lea    -0x1680(%rbp),%rax
   14e0f:	48 83 c0 04          	add    $0x4,%rax
   14e13:	48 89 85 b0 fa ff ff 	mov    %rax,-0x550(%rbp)
   14e1a:	48 8d 85 2c e4 ff ff 	lea    -0x1bd4(%rbp),%rax
   14e21:	48 89 85 b8 fa ff ff 	mov    %rax,-0x548(%rbp)
   14e28:	48 8d 85 28 e6 ff ff 	lea    -0x19d8(%rbp),%rax
   14e2f:	48 89 85 c0 fa ff ff 	mov    %rax,-0x540(%rbp)
   14e36:	48 8d 85 20 e6 ff ff 	lea    -0x19e0(%rbp),%rax
   14e3d:	48 89 85 c8 fa ff ff 	mov    %rax,-0x538(%rbp)
   14e44:	48 8d 85 2c e4 ff ff 	lea    -0x1bd4(%rbp),%rax
   14e4b:	48 89 85 d0 fa ff ff 	mov    %rax,-0x530(%rbp)
   14e52:	48 8d 85 2c e4 ff ff 	lea    -0x1bd4(%rbp),%rax
   14e59:	48 89 85 d8 fa ff ff 	mov    %rax,-0x528(%rbp)
   14e60:	48 8d 05 31 39 01 00 	lea    0x13931(%rip),%rax        # 28798 <g_646>
   14e67:	48 89 85 e0 fa ff ff 	mov    %rax,-0x520(%rbp)
   14e6e:	48 8d 85 2c e4 ff ff 	lea    -0x1bd4(%rbp),%rax
   14e75:	48 89 85 e8 fa ff ff 	mov    %rax,-0x518(%rbp)
   14e7c:	48 8d 85 80 e9 ff ff 	lea    -0x1680(%rbp),%rax
   14e83:	48 83 c0 04          	add    $0x4,%rax
   14e87:	48 89 85 f0 fa ff ff 	mov    %rax,-0x510(%rbp)
   14e8e:	48 8d 85 80 e9 ff ff 	lea    -0x1680(%rbp),%rax
   14e95:	48 83 c0 04          	add    $0x4,%rax
   14e99:	48 89 85 f8 fa ff ff 	mov    %rax,-0x508(%rbp)
   14ea0:	48 8d 85 2c e4 ff ff 	lea    -0x1bd4(%rbp),%rax
   14ea7:	48 89 85 00 fb ff ff 	mov    %rax,-0x500(%rbp)
   14eae:	48 8d 85 28 e6 ff ff 	lea    -0x19d8(%rbp),%rax
   14eb5:	48 89 85 08 fb ff ff 	mov    %rax,-0x4f8(%rbp)
   14ebc:	48 8d 85 20 e6 ff ff 	lea    -0x19e0(%rbp),%rax
   14ec3:	48 89 85 10 fb ff ff 	mov    %rax,-0x4f0(%rbp)
   14eca:	48 8d 85 2c e4 ff ff 	lea    -0x1bd4(%rbp),%rax
   14ed1:	48 89 85 18 fb ff ff 	mov    %rax,-0x4e8(%rbp)
   14ed8:	48 8d 85 2c e4 ff ff 	lea    -0x1bd4(%rbp),%rax
   14edf:	48 89 85 20 fb ff ff 	mov    %rax,-0x4e0(%rbp)
   14ee6:	48 8d 05 ab 38 01 00 	lea    0x138ab(%rip),%rax        # 28798 <g_646>
   14eed:	48 89 85 28 fb ff ff 	mov    %rax,-0x4d8(%rbp)
   14ef4:	48 8d 85 2c e4 ff ff 	lea    -0x1bd4(%rbp),%rax
   14efb:	48 89 85 30 fb ff ff 	mov    %rax,-0x4d0(%rbp)
   14f02:	48 8d 85 80 e9 ff ff 	lea    -0x1680(%rbp),%rax
   14f09:	48 83 c0 04          	add    $0x4,%rax
   14f0d:	48 89 85 38 fb ff ff 	mov    %rax,-0x4c8(%rbp)
   14f14:	48 8d 85 80 e9 ff ff 	lea    -0x1680(%rbp),%rax
   14f1b:	48 83 c0 04          	add    $0x4,%rax
   14f1f:	48 89 85 40 fb ff ff 	mov    %rax,-0x4c0(%rbp)
   14f26:	48 8d 85 2c e4 ff ff 	lea    -0x1bd4(%rbp),%rax
   14f2d:	48 89 85 48 fb ff ff 	mov    %rax,-0x4b8(%rbp)
   14f34:	48 8d 85 28 e6 ff ff 	lea    -0x19d8(%rbp),%rax
   14f3b:	48 89 85 50 fb ff ff 	mov    %rax,-0x4b0(%rbp)
   14f42:	48 8d 85 20 e6 ff ff 	lea    -0x19e0(%rbp),%rax
   14f49:	48 89 85 58 fb ff ff 	mov    %rax,-0x4a8(%rbp)
   14f50:	48 8d 85 2c e4 ff ff 	lea    -0x1bd4(%rbp),%rax
   14f57:	48 89 85 60 fb ff ff 	mov    %rax,-0x4a0(%rbp)
   14f5e:	48 8d 85 2c e4 ff ff 	lea    -0x1bd4(%rbp),%rax
   14f65:	48 89 85 68 fb ff ff 	mov    %rax,-0x498(%rbp)
   14f6c:	48 8d 05 25 38 01 00 	lea    0x13825(%rip),%rax        # 28798 <g_646>
   14f73:	48 89 85 70 fb ff ff 	mov    %rax,-0x490(%rbp)
   14f7a:	48 8d 85 2c e4 ff ff 	lea    -0x1bd4(%rbp),%rax
   14f81:	48 89 85 78 fb ff ff 	mov    %rax,-0x488(%rbp)
   14f88:	48 8d 85 80 e9 ff ff 	lea    -0x1680(%rbp),%rax
   14f8f:	48 83 c0 04          	add    $0x4,%rax
   14f93:	48 89 85 80 fb ff ff 	mov    %rax,-0x480(%rbp)
   14f9a:	48 8d 85 80 e9 ff ff 	lea    -0x1680(%rbp),%rax
   14fa1:	48 83 c0 04          	add    $0x4,%rax
   14fa5:	48 89 85 88 fb ff ff 	mov    %rax,-0x478(%rbp)
   14fac:	48 8d 85 2c e4 ff ff 	lea    -0x1bd4(%rbp),%rax
   14fb3:	48 89 85 90 fb ff ff 	mov    %rax,-0x470(%rbp)
   14fba:	48 8d 85 28 e6 ff ff 	lea    -0x19d8(%rbp),%rax
   14fc1:	48 89 85 98 fb ff ff 	mov    %rax,-0x468(%rbp)
   14fc8:	48 8d 85 20 e6 ff ff 	lea    -0x19e0(%rbp),%rax
   14fcf:	48 89 85 a0 fb ff ff 	mov    %rax,-0x460(%rbp)
   14fd6:	48 8d 85 2c e4 ff ff 	lea    -0x1bd4(%rbp),%rax
   14fdd:	48 89 85 a8 fb ff ff 	mov    %rax,-0x458(%rbp)
   14fe4:	48 8d 85 2c e4 ff ff 	lea    -0x1bd4(%rbp),%rax
   14feb:	48 89 85 b0 fb ff ff 	mov    %rax,-0x450(%rbp)
   14ff2:	48 8d 05 9f 37 01 00 	lea    0x1379f(%rip),%rax        # 28798 <g_646>
   14ff9:	48 89 85 b8 fb ff ff 	mov    %rax,-0x448(%rbp)
   15000:	48 8d 85 2c e4 ff ff 	lea    -0x1bd4(%rbp),%rax
   15007:	48 89 85 c0 fb ff ff 	mov    %rax,-0x440(%rbp)
   1500e:	48 8d 85 80 e9 ff ff 	lea    -0x1680(%rbp),%rax
   15015:	48 83 c0 04          	add    $0x4,%rax
   15019:	48 89 85 c8 fb ff ff 	mov    %rax,-0x438(%rbp)
   15020:	48 8d 85 80 e9 ff ff 	lea    -0x1680(%rbp),%rax
   15027:	48 83 c0 04          	add    $0x4,%rax
   1502b:	48 89 85 d0 fb ff ff 	mov    %rax,-0x430(%rbp)
   15032:	48 8d 85 2c e4 ff ff 	lea    -0x1bd4(%rbp),%rax
   15039:	48 89 85 d8 fb ff ff 	mov    %rax,-0x428(%rbp)
   15040:	48 8d 85 28 e6 ff ff 	lea    -0x19d8(%rbp),%rax
   15047:	48 89 85 e0 fb ff ff 	mov    %rax,-0x420(%rbp)
   1504e:	48 8d 85 20 e6 ff ff 	lea    -0x19e0(%rbp),%rax
   15055:	48 89 85 e8 fb ff ff 	mov    %rax,-0x418(%rbp)
   1505c:	48 8d 85 2c e4 ff ff 	lea    -0x1bd4(%rbp),%rax
   15063:	48 89 85 f0 fb ff ff 	mov    %rax,-0x410(%rbp)
   1506a:	48 8d 85 2c e4 ff ff 	lea    -0x1bd4(%rbp),%rax
   15071:	48 89 85 f8 fb ff ff 	mov    %rax,-0x408(%rbp)
   15078:	48 8d 05 19 37 01 00 	lea    0x13719(%rip),%rax        # 28798 <g_646>
   1507f:	48 89 85 00 fc ff ff 	mov    %rax,-0x400(%rbp)
   15086:	48 8d 85 2c e4 ff ff 	lea    -0x1bd4(%rbp),%rax
   1508d:	48 89 85 08 fc ff ff 	mov    %rax,-0x3f8(%rbp)
   15094:	48 8d 85 80 e9 ff ff 	lea    -0x1680(%rbp),%rax
   1509b:	48 83 c0 04          	add    $0x4,%rax
   1509f:	48 89 85 10 fc ff ff 	mov    %rax,-0x3f0(%rbp)
   150a6:	48 8d 85 80 e9 ff ff 	lea    -0x1680(%rbp),%rax
   150ad:	48 83 c0 04          	add    $0x4,%rax
   150b1:	48 89 85 18 fc ff ff 	mov    %rax,-0x3e8(%rbp)
   150b8:	48 8d 85 2c e4 ff ff 	lea    -0x1bd4(%rbp),%rax
   150bf:	48 89 85 20 fc ff ff 	mov    %rax,-0x3e0(%rbp)
   150c6:	48 8d 85 28 e6 ff ff 	lea    -0x19d8(%rbp),%rax
   150cd:	48 89 85 28 fc ff ff 	mov    %rax,-0x3d8(%rbp)
   150d4:	48 8d 85 20 e6 ff ff 	lea    -0x19e0(%rbp),%rax
   150db:	48 89 85 30 fc ff ff 	mov    %rax,-0x3d0(%rbp)
   150e2:	48 8d 85 2c e4 ff ff 	lea    -0x1bd4(%rbp),%rax
   150e9:	48 89 85 38 fc ff ff 	mov    %rax,-0x3c8(%rbp)
   150f0:	48 8d 85 2c e4 ff ff 	lea    -0x1bd4(%rbp),%rax
   150f7:	48 89 85 40 fc ff ff 	mov    %rax,-0x3c0(%rbp)
   150fe:	48 8d 05 93 36 01 00 	lea    0x13693(%rip),%rax        # 28798 <g_646>
   15105:	48 89 85 48 fc ff ff 	mov    %rax,-0x3b8(%rbp)
   1510c:	48 8d 85 2c e4 ff ff 	lea    -0x1bd4(%rbp),%rax
   15113:	48 89 85 50 fc ff ff 	mov    %rax,-0x3b0(%rbp)
   1511a:	48 8d 85 80 e9 ff ff 	lea    -0x1680(%rbp),%rax
   15121:	48 83 c0 04          	add    $0x4,%rax
   15125:	48 89 85 58 fc ff ff 	mov    %rax,-0x3a8(%rbp)
   1512c:	48 8d 85 80 e9 ff ff 	lea    -0x1680(%rbp),%rax
   15133:	48 83 c0 04          	add    $0x4,%rax
   15137:	48 89 85 60 fc ff ff 	mov    %rax,-0x3a0(%rbp)
   1513e:	48 8d 85 2c e4 ff ff 	lea    -0x1bd4(%rbp),%rax
   15145:	48 89 85 68 fc ff ff 	mov    %rax,-0x398(%rbp)
   1514c:	48 8d 85 28 e6 ff ff 	lea    -0x19d8(%rbp),%rax
   15153:	48 89 85 70 fc ff ff 	mov    %rax,-0x390(%rbp)
   1515a:	48 8d 85 20 e6 ff ff 	lea    -0x19e0(%rbp),%rax
   15161:	48 89 85 78 fc ff ff 	mov    %rax,-0x388(%rbp)
   15168:	48 8d 85 2c e4 ff ff 	lea    -0x1bd4(%rbp),%rax
   1516f:	48 89 85 80 fc ff ff 	mov    %rax,-0x380(%rbp)
   15176:	48 8d 85 2c e4 ff ff 	lea    -0x1bd4(%rbp),%rax
   1517d:	48 89 85 88 fc ff ff 	mov    %rax,-0x378(%rbp)
   15184:	48 8d 05 0d 36 01 00 	lea    0x1360d(%rip),%rax        # 28798 <g_646>
   1518b:	48 89 85 90 fc ff ff 	mov    %rax,-0x370(%rbp)
   15192:	48 8d 85 2c e4 ff ff 	lea    -0x1bd4(%rbp),%rax
   15199:	48 89 85 98 fc ff ff 	mov    %rax,-0x368(%rbp)
   151a0:	48 8d 85 80 e9 ff ff 	lea    -0x1680(%rbp),%rax
   151a7:	48 83 c0 04          	add    $0x4,%rax
   151ab:	48 89 85 a0 fc ff ff 	mov    %rax,-0x360(%rbp)
   151b2:	48 8d 85 80 e9 ff ff 	lea    -0x1680(%rbp),%rax
   151b9:	48 83 c0 04          	add    $0x4,%rax
   151bd:	48 89 85 a8 fc ff ff 	mov    %rax,-0x358(%rbp)
   151c4:	48 8d 85 2c e4 ff ff 	lea    -0x1bd4(%rbp),%rax
   151cb:	48 89 85 b0 fc ff ff 	mov    %rax,-0x350(%rbp)
   151d2:	48 8d 85 28 e6 ff ff 	lea    -0x19d8(%rbp),%rax
   151d9:	48 89 85 b8 fc ff ff 	mov    %rax,-0x348(%rbp)
   151e0:	48 8d 85 20 e6 ff ff 	lea    -0x19e0(%rbp),%rax
   151e7:	48 89 85 c0 fc ff ff 	mov    %rax,-0x340(%rbp)
   151ee:	48 8d 85 2c e4 ff ff 	lea    -0x1bd4(%rbp),%rax
   151f5:	48 89 85 c8 fc ff ff 	mov    %rax,-0x338(%rbp)
   151fc:	48 8d 85 2c e4 ff ff 	lea    -0x1bd4(%rbp),%rax
   15203:	48 89 85 d0 fc ff ff 	mov    %rax,-0x330(%rbp)
   1520a:	48 8d 05 87 35 01 00 	lea    0x13587(%rip),%rax        # 28798 <g_646>
   15211:	48 89 85 d8 fc ff ff 	mov    %rax,-0x328(%rbp)
   15218:	48 8d 85 2c e4 ff ff 	lea    -0x1bd4(%rbp),%rax
   1521f:	48 89 85 e0 fc ff ff 	mov    %rax,-0x320(%rbp)
   15226:	48 8d 85 80 e9 ff ff 	lea    -0x1680(%rbp),%rax
   1522d:	48 83 c0 04          	add    $0x4,%rax
   15231:	48 89 85 e8 fc ff ff 	mov    %rax,-0x318(%rbp)
   15238:	48 8d 85 80 e9 ff ff 	lea    -0x1680(%rbp),%rax
   1523f:	48 83 c0 04          	add    $0x4,%rax
   15243:	48 89 85 f0 fc ff ff 	mov    %rax,-0x310(%rbp)
   1524a:	48 8d 85 2c e4 ff ff 	lea    -0x1bd4(%rbp),%rax
   15251:	48 89 85 f8 fc ff ff 	mov    %rax,-0x308(%rbp)
   15258:	48 8d 85 28 e6 ff ff 	lea    -0x19d8(%rbp),%rax
   1525f:	48 89 85 00 fd ff ff 	mov    %rax,-0x300(%rbp)
   15266:	48 8d 85 20 e6 ff ff 	lea    -0x19e0(%rbp),%rax
   1526d:	48 89 85 08 fd ff ff 	mov    %rax,-0x2f8(%rbp)
   15274:	48 8d 85 2c e4 ff ff 	lea    -0x1bd4(%rbp),%rax
   1527b:	48 89 85 10 fd ff ff 	mov    %rax,-0x2f0(%rbp)
   15282:	48 8d 85 2c e4 ff ff 	lea    -0x1bd4(%rbp),%rax
   15289:	48 89 85 18 fd ff ff 	mov    %rax,-0x2e8(%rbp)
   15290:	48 8d 05 01 35 01 00 	lea    0x13501(%rip),%rax        # 28798 <g_646>
   15297:	48 89 85 20 fd ff ff 	mov    %rax,-0x2e0(%rbp)
   1529e:	48 8d 85 2c e4 ff ff 	lea    -0x1bd4(%rbp),%rax
   152a5:	48 89 85 28 fd ff ff 	mov    %rax,-0x2d8(%rbp)
   152ac:	48 8d 85 80 e9 ff ff 	lea    -0x1680(%rbp),%rax
   152b3:	48 83 c0 04          	add    $0x4,%rax
   152b7:	48 89 85 30 fd ff ff 	mov    %rax,-0x2d0(%rbp)
   152be:	48 8d 85 80 e9 ff ff 	lea    -0x1680(%rbp),%rax
   152c5:	48 83 c0 04          	add    $0x4,%rax
   152c9:	48 89 85 38 fd ff ff 	mov    %rax,-0x2c8(%rbp)
   152d0:	48 8d 85 2c e4 ff ff 	lea    -0x1bd4(%rbp),%rax
   152d7:	48 89 85 40 fd ff ff 	mov    %rax,-0x2c0(%rbp)
   152de:	48 8d 85 28 e6 ff ff 	lea    -0x19d8(%rbp),%rax
   152e5:	48 89 85 48 fd ff ff 	mov    %rax,-0x2b8(%rbp)
   152ec:	48 8d 85 20 e6 ff ff 	lea    -0x19e0(%rbp),%rax
   152f3:	48 89 85 50 fd ff ff 	mov    %rax,-0x2b0(%rbp)
   152fa:	48 8d 85 2c e4 ff ff 	lea    -0x1bd4(%rbp),%rax
   15301:	48 89 85 58 fd ff ff 	mov    %rax,-0x2a8(%rbp)
   15308:	48 8d 85 2c e4 ff ff 	lea    -0x1bd4(%rbp),%rax
   1530f:	48 89 85 60 fd ff ff 	mov    %rax,-0x2a0(%rbp)
   15316:	48 8d 05 7b 34 01 00 	lea    0x1347b(%rip),%rax        # 28798 <g_646>
   1531d:	48 89 85 68 fd ff ff 	mov    %rax,-0x298(%rbp)
   15324:	48 8d 85 2c e4 ff ff 	lea    -0x1bd4(%rbp),%rax
   1532b:	48 89 85 70 fd ff ff 	mov    %rax,-0x290(%rbp)
   15332:	48 8d 85 80 e9 ff ff 	lea    -0x1680(%rbp),%rax
   15339:	48 83 c0 04          	add    $0x4,%rax
   1533d:	48 89 85 78 fd ff ff 	mov    %rax,-0x288(%rbp)
   15344:	48 8d 85 80 e9 ff ff 	lea    -0x1680(%rbp),%rax
   1534b:	48 83 c0 04          	add    $0x4,%rax
   1534f:	48 89 85 80 fd ff ff 	mov    %rax,-0x280(%rbp)
   15356:	48 8d 85 2c e4 ff ff 	lea    -0x1bd4(%rbp),%rax
   1535d:	48 89 85 88 fd ff ff 	mov    %rax,-0x278(%rbp)
   15364:	48 8d 85 28 e6 ff ff 	lea    -0x19d8(%rbp),%rax
   1536b:	48 89 85 90 fd ff ff 	mov    %rax,-0x270(%rbp)
   15372:	48 8b 85 30 e6 ff ff 	mov    -0x19d0(%rbp),%rax
   15379:	48 8b 95 d0 f7 ff ff 	mov    -0x830(%rbp),%rdx
   15380:	48 89 10             	mov    %rdx,(%rax)
   15383:	e9 16 04 00 00       	jmpq   1579e <func_4+0x4c9b>
   15388:	c7 85 e4 e4 ff ff 01 	movl   $0x1,-0x1b1c(%rbp)
   1538f:	00 00 00 
   15392:	c7 85 e8 e4 ff ff ba 	movl   $0x3c9241ba,-0x1b18(%rbp)
   15399:	41 92 3c 
   1539c:	48 c7 85 f0 e6 ff ff 	movq   $0xffffffffffffffff,-0x1910(%rbp)
   153a3:	ff ff ff ff 
   153a7:	c7 85 30 ed ff ff 01 	movl   $0x1,-0x12d0(%rbp)
   153ae:	00 00 00 
   153b1:	c7 85 34 ed ff ff 7e 	movl   $0x59b5d67e,-0x12cc(%rbp)
   153b8:	d6 b5 59 
   153bb:	c7 85 38 ed ff ff 01 	movl   $0x1,-0x12c8(%rbp)
   153c2:	00 00 00 
   153c5:	c7 85 3c ed ff ff 7e 	movl   $0x59b5d67e,-0x12c4(%rbp)
   153cc:	d6 b5 59 
   153cf:	c7 85 40 ed ff ff 01 	movl   $0x1,-0x12c0(%rbp)
   153d6:	00 00 00 
   153d9:	c7 85 44 ed ff ff 7e 	movl   $0x59b5d67e,-0x12bc(%rbp)
   153e0:	d6 b5 59 
   153e3:	c7 85 48 ed ff ff 01 	movl   $0x1,-0x12b8(%rbp)
   153ea:	00 00 00 
   153ed:	c7 85 4c ed ff ff 7e 	movl   $0x59b5d67e,-0x12b4(%rbp)
   153f4:	d6 b5 59 
   153f7:	c7 85 ec e4 ff ff 00 	movl   $0x0,-0x1b14(%rbp)
   153fe:	00 00 00 
   15401:	48 8d 85 b0 f7 ff ff 	lea    -0x850(%rbp),%rax
   15408:	48 8d 15 11 d3 00 00 	lea    0xd311(%rip),%rdx        # 22720 <g_1963+0x160c>
   1540f:	b9 28 00 00 00       	mov    $0x28,%ecx
   15414:	48 89 c7             	mov    %rax,%rdi
   15417:	48 89 d6             	mov    %rdx,%rsi
   1541a:	f3 48 a5             	rep movsq %ds:(%rsi),%es:(%rdi)
   1541d:	c7 85 f0 e4 ff ff ff 	movl   $0xffffffff,-0x1b10(%rbp)
   15424:	ff ff ff 
   15427:	c6 85 f9 e3 ff ff 00 	movb   $0x0,-0x1c07(%rbp)
   1542e:	c7 85 f4 e4 ff ff 01 	movl   $0x1,-0x1b0c(%rbp)
   15435:	00 00 00 
   15438:	c7 85 f8 e4 ff ff 01 	movl   $0x1,-0x1b08(%rbp)
   1543f:	00 00 00 
   15442:	c7 85 fc e4 ff ff d9 	movl   $0x45f68ad9,-0x1b04(%rbp)
   15449:	8a f6 45 
   1544c:	c7 85 80 e4 ff ff 00 	movl   $0x0,-0x1b80(%rbp)
   15453:	00 00 00 
   15456:	eb 1a                	jmp    15472 <func_4+0x496f>
   15458:	8b 85 80 e4 ff ff    	mov    -0x1b80(%rbp),%eax
   1545e:	48 98                	cltq   
   15460:	c7 84 85 d0 f2 ff ff 	movl   $0xffffffff,-0xd30(%rbp,%rax,4)
   15467:	ff ff ff ff 
   1546b:	83 85 80 e4 ff ff 01 	addl   $0x1,-0x1b80(%rbp)
   15472:	83 bd 80 e4 ff ff 08 	cmpl   $0x8,-0x1b80(%rbp)
   15479:	7e dd                	jle    15458 <func_4+0x4955>
   1547b:	48 8b 15 36 79 01 00 	mov    0x17936(%rip),%rdx        # 2cdb8 <g_1616>
   15482:	48 8b 05 57 79 01 00 	mov    0x17957(%rip),%rax        # 2cde0 <g_1787>
   15489:	48 8b 12             	mov    (%rdx),%rdx
   1548c:	48 89 10             	mov    %rdx,(%rax)
   1548f:	48 c7 05 1e 35 01 00 	movq   $0x0,0x1351e(%rip)        # 289b8 <g_1754>
   15496:	00 00 00 00 
   1549a:	eb 36                	jmp    154d2 <func_4+0x49cf>
   1549c:	48 8b 05 45 71 01 00 	mov    0x17145(%rip),%rax        # 2c5e8 <g_100>
   154a3:	8b 15 1f 35 01 00    	mov    0x1351f(%rip),%edx        # 289c8 <g_1790+0x8>
   154a9:	89 10                	mov    %edx,(%rax)
   154ab:	83 85 64 e4 ff ff 01 	addl   $0x1,-0x1b9c(%rbp)
   154b2:	48 8b 05 ff 34 01 00 	mov    0x134ff(%rip),%rax        # 289b8 <g_1754>
   154b9:	0f b6 c0             	movzbl %al,%eax
   154bc:	be 01 00 00 00       	mov    $0x1,%esi
   154c1:	89 c7                	mov    %eax,%edi
   154c3:	e8 b0 76 ff ff       	callq  cb78 <safe_sub_func_uint8_t_u_u>
   154c8:	0f b6 c0             	movzbl %al,%eax
   154cb:	48 89 05 e6 34 01 00 	mov    %rax,0x134e6(%rip)        # 289b8 <g_1754>
   154d2:	48 8b 05 df 34 01 00 	mov    0x134df(%rip),%rax        # 289b8 <g_1754>
   154d9:	48 83 f8 ea          	cmp    $0xffffffffffffffea,%rax
   154dd:	7d bd                	jge    1549c <func_4+0x4999>
   154df:	48 8b 05 ca 78 01 00 	mov    0x178ca(%rip),%rax        # 2cdb0 <g_1615>
   154e6:	c7 00 de 99 62 e1    	movl   $0xe16299de,(%rax)
   154ec:	48 c7 05 b9 32 01 00 	movq   $0x0,0x132b9(%rip)        # 287b0 <g_1037+0x10>
   154f3:	00 00 00 00 
   154f7:	90                   	nop
   154f8:	48 8b 05 b1 32 01 00 	mov    0x132b1(%rip),%rax        # 287b0 <g_1037+0x10>
   154ff:	48 83 f8 08          	cmp    $0x8,%rax
   15503:	0f 8e 87 00 00 00    	jle    15590 <func_4+0x4a8d>
   15509:	c7 85 00 e5 ff ff 01 	movl   $0x1,-0x1b00(%rbp)
   15510:	00 00 00 
   15513:	c7 85 30 f5 ff ff 07 	movl   $0x7,-0xad0(%rbp)
   1551a:	00 00 00 
   1551d:	c7 85 34 f5 ff ff 40 	movl   $0x3a944d40,-0xacc(%rbp)
   15524:	4d 94 3a 
   15527:	c7 85 38 f5 ff ff 07 	movl   $0x7,-0xac8(%rbp)
   1552e:	00 00 00 
   15531:	c7 85 3c f5 ff ff 40 	movl   $0x3a944d40,-0xac4(%rbp)
   15538:	4d 94 3a 
   1553b:	c7 85 40 f5 ff ff 07 	movl   $0x7,-0xac0(%rbp)
   15542:	00 00 00 
   15545:	c7 85 44 f5 ff ff 40 	movl   $0x3a944d40,-0xabc(%rbp)
   1554c:	4d 94 3a 
   1554f:	c7 85 48 f5 ff ff 07 	movl   $0x7,-0xab8(%rbp)
   15556:	00 00 00 
   15559:	c7 85 4c f5 ff ff 40 	movl   $0x3a944d40,-0xab4(%rbp)
   15560:	4d 94 3a 
   15563:	c7 85 50 f5 ff ff 07 	movl   $0x7,-0xab0(%rbp)
   1556a:	00 00 00 
   1556d:	83 85 00 e5 ff ff 01 	addl   $0x1,-0x1b00(%rbp)
   15574:	83 85 98 e4 ff ff 01 	addl   $0x1,-0x1b68(%rbp)
   1557b:	48 8b 05 9e 72 01 00 	mov    0x1729e(%rip),%rax        # 2c820 <g_742>
   15582:	48 8b 00             	mov    (%rax),%rax
   15585:	48 8b 00             	mov    (%rax),%rax
   15588:	0f b7 00             	movzwl (%rax),%eax
   1558b:	e9 38 28 00 00       	jmpq   17dc8 <func_4+0x72c5>
   15590:	c7 85 ec f7 ff ff 04 	movl   $0x4,-0x814(%rbp)
   15597:	00 00 00 
   1559a:	48 8b 05 e7 77 01 00 	mov    0x177e7(%rip),%rax        # 2cd88 <g_1220>
   155a1:	48 8b 00             	mov    (%rax),%rax
   155a4:	8b 00                	mov    (%rax),%eax
   155a6:	8b 95 48 ed ff ff    	mov    -0x12b8(%rbp),%edx
   155ac:	09 d0                	or     %edx,%eax
   155ae:	89 85 48 ed ff ff    	mov    %eax,-0x12b8(%rbp)
   155b4:	48 8b 85 e0 e3 ff ff 	mov    -0x1c20(%rbp),%rax
   155bb:	89 c2                	mov    %eax,%edx
   155bd:	48 8b 85 b0 e6 ff ff 	mov    -0x1950(%rbp),%rax
   155c4:	88 10                	mov    %dl,(%rax)
   155c6:	48 8b 85 b0 e6 ff ff 	mov    -0x1950(%rbp),%rax
   155cd:	0f b6 00             	movzbl (%rax),%eax
   155d0:	0f b6 d0             	movzbl %al,%edx
   155d3:	0f b7 85 ec e3 ff ff 	movzwl -0x1c14(%rbp),%eax
   155da:	f7 d0                	not    %eax
   155dc:	0f b6 c0             	movzbl %al,%eax
   155df:	89 d6                	mov    %edx,%esi
   155e1:	89 c7                	mov    %eax,%edi
   155e3:	e8 f3 75 ff ff       	callq  cbdb <safe_div_func_uint8_t_u_u>
   155e8:	84 c0                	test   %al,%al
   155ea:	0f 84 85 01 00 00    	je     15775 <func_4+0x4c72>
   155f0:	c7 85 30 f5 ff ff 02 	movl   $0x2020202,-0xad0(%rbp)
   155f7:	02 02 02 
   155fa:	c6 85 34 f5 ff ff 02 	movb   $0x2,-0xacc(%rbp)
   15601:	c7 85 35 f5 ff ff e2 	movl   $0xe2e2e2e2,-0xacb(%rbp)
   15608:	e2 e2 e2 
   1560b:	c6 85 39 f5 ff ff e2 	movb   $0xe2,-0xac7(%rbp)
   15612:	c7 85 3a f5 ff ff 02 	movl   $0x2020202,-0xac6(%rbp)
   15619:	02 02 02 
   1561c:	c6 85 3e f5 ff ff 02 	movb   $0x2,-0xac2(%rbp)
   15623:	c7 85 3f f5 ff ff e2 	movl   $0xe2e2e2e2,-0xac1(%rbp)
   1562a:	e2 e2 e2 
   1562d:	c6 85 43 f5 ff ff e2 	movb   $0xe2,-0xabd(%rbp)
   15634:	c7 85 44 f5 ff ff 02 	movl   $0x2020202,-0xabc(%rbp)
   1563b:	02 02 02 
   1563e:	c6 85 48 f5 ff ff 02 	movb   $0x2,-0xab8(%rbp)
   15645:	0f b7 85 ec e3 ff ff 	movzwl -0x1c14(%rbp),%eax
   1564c:	0f b7 d8             	movzwl %ax,%ebx
   1564f:	66 83 bd ec e3 ff ff 	cmpw   $0x0,-0x1c14(%rbp)
   15656:	00 
   15657:	0f 85 a3 00 00 00    	jne    15700 <func_4+0x4bfd>
   1565d:	0f b7 85 ec e3 ff ff 	movzwl -0x1c14(%rbp),%eax
   15664:	88 85 43 f5 ff ff    	mov    %al,-0xabd(%rbp)
   1566a:	0f b6 85 43 f5 ff ff 	movzbl -0xabd(%rbp),%eax
   15671:	0f b6 d0             	movzbl %al,%edx
   15674:	48 8d 05 55 77 01 00 	lea    0x17755(%rip),%rax        # 2cdd0 <g_1730>
   1567b:	48 39 85 e8 e6 ff ff 	cmp    %rax,-0x1918(%rbp)
   15682:	0f 95 c0             	setne  %al
   15685:	0f b6 c8             	movzbl %al,%ecx
   15688:	48 0f bf b5 ec e3 ff 	movswq -0x1c14(%rbp),%rsi
   1568f:	ff 
   15690:	48 8b 85 e0 e3 ff ff 	mov    -0x1c20(%rbp),%rax
   15697:	48 39 c6             	cmp    %rax,%rsi
   1569a:	0f 9c c0             	setl   %al
   1569d:	0f b6 c0             	movzbl %al,%eax
   156a0:	39 c1                	cmp    %eax,%ecx
   156a2:	0f 9e c0             	setle  %al
   156a5:	0f b6 c8             	movzbl %al,%ecx
   156a8:	0f be 85 f9 e3 ff ff 	movsbl -0x1c07(%rbp),%eax
   156af:	39 c1                	cmp    %eax,%ecx
   156b1:	0f 9f c0             	setg   %al
   156b4:	0f b6 c0             	movzbl %al,%eax
   156b7:	39 c2                	cmp    %eax,%edx
   156b9:	7d 0c                	jge    156c7 <func_4+0x4bc4>
   156bb:	48 8b 05 06 77 01 00 	mov    0x17706(%rip),%rax        # 2cdc8 <g_1731>
   156c2:	0f b6 00             	movzbl (%rax),%eax
   156c5:	84 c0                	test   %al,%al
   156c7:	0f b6 85 35 f5 ff ff 	movzbl -0xacb(%rbp),%eax
   156ce:	0f b6 c0             	movzbl %al,%eax
   156d1:	89 c6                	mov    %eax,%esi
   156d3:	bf ff ff 00 00       	mov    $0xffff,%edi
   156d8:	e8 7f 76 ff ff       	callq  cd5c <safe_mod_func_uint16_t_u_u>
   156dd:	0f b7 c0             	movzwl %ax,%eax
   156e0:	48 89 c6             	mov    %rax,%rsi
   156e3:	bf 03 00 00 00       	mov    $0x3,%edi
   156e8:	e8 5e 79 ff ff       	callq  d04b <safe_sub_func_uint64_t_u_u>
   156ed:	be 01 00 00 00       	mov    $0x1,%esi
   156f2:	bf 01 00 00 00       	mov    $0x1,%edi
   156f7:	e8 c2 75 ff ff       	callq  ccbe <safe_rshift_func_uint8_t_u_u>
   156fc:	84 c0                	test   %al,%al
   156fe:	74 07                	je     15707 <func_4+0x4c04>
   15700:	ba 01 00 00 00       	mov    $0x1,%edx
   15705:	eb 05                	jmp    1570c <func_4+0x4c09>
   15707:	ba 00 00 00 00       	mov    $0x0,%edx
   1570c:	0f bf 85 ec e3 ff ff 	movswl -0x1c14(%rbp),%eax
   15713:	31 c2                	xor    %eax,%edx
   15715:	8b 85 38 ed ff ff    	mov    -0x12c8(%rbp),%eax
   1571b:	31 d0                	xor    %edx,%eax
   1571d:	be ff ff ff ff       	mov    $0xffffffff,%esi
   15722:	89 c7                	mov    %eax,%edi
   15724:	e8 fc 77 ff ff       	callq  cf25 <safe_div_func_uint32_t_u_u>
   15729:	0f b7 c0             	movzwl %ax,%eax
   1572c:	89 de                	mov    %ebx,%esi
   1572e:	89 c7                	mov    %eax,%edi
   15730:	e8 ea 75 ff ff       	callq  cd1f <safe_sub_func_uint16_t_u_u>
   15735:	0f b7 d0             	movzwl %ax,%edx
   15738:	0f bf 85 ec e3 ff ff 	movswl -0x1c14(%rbp),%eax
   1573f:	39 c2                	cmp    %eax,%edx
   15741:	0f 9e c0             	setle  %al
   15744:	0f b6 c0             	movzbl %al,%eax
   15747:	48 8b 95 e0 e3 ff ff 	mov    -0x1c20(%rbp),%rdx
   1574e:	09 d0                	or     %edx,%eax
   15750:	98                   	cwtl   
   15751:	be 44 11 00 00       	mov    $0x1144,%esi
   15756:	89 c7                	mov    %eax,%edi
   15758:	e8 98 6c ff ff       	callq  c3f5 <safe_mul_func_int16_t_s_s>
   1575d:	48 8b 85 f8 e5 ff ff 	mov    -0x1a08(%rbp),%rax
   15764:	c7 00 01 00 00 00    	movl   $0x1,(%rax)
   1576a:	8b 85 28 e4 ff ff    	mov    -0x1bd8(%rbp),%eax
   15770:	e9 53 26 00 00       	jmpq   17dc8 <func_4+0x72c5>
   15775:	0f b6 05 4c 29 01 00 	movzbl 0x1294c(%rip),%eax        # 280c8 <g_69>
   1577c:	84 c0                	test   %al,%al
   1577e:	74 05                	je     15785 <func_4+0x4c82>
   15780:	e9 3d d5 ff ff       	jmpq   12cc2 <func_4+0x21bf>
   15785:	66 83 bd ec e3 ff ff 	cmpw   $0x0,-0x1c14(%rbp)
   1578c:	00 
   1578d:	0f 85 00 01 00 00    	jne    15893 <func_4+0x4d90>
   15793:	8b 85 f0 e4 ff ff    	mov    -0x1b10(%rbp),%eax
   15799:	e9 2a 26 00 00       	jmpq   17dc8 <func_4+0x72c5>
   1579e:	c6 85 f2 e3 ff ff 1d 	movb   $0x1d,-0x1c0e(%rbp)
   157a5:	e9 c8 00 00 00       	jmpq   15872 <func_4+0x4d6f>
   157aa:	48 b8 fb 62 85 4c 13 	movabs $0xc07e0134c8562fb,%rax
   157b1:	e0 07 0c 
   157b4:	48 89 85 58 e7 ff ff 	mov    %rax,-0x18a8(%rbp)
   157bb:	c7 85 54 e5 ff ff 00 	movl   $0x0,-0x1aac(%rbp)
   157c2:	00 00 00 
   157c5:	c7 85 58 e5 ff ff b6 	movl   $0x68ee8ab6,-0x1aa8(%rbp)
   157cc:	8a ee 68 
   157cf:	c7 85 30 f5 ff ff cb 	movl   $0x714a2ecb,-0xad0(%rbp)
   157d6:	2e 4a 71 
   157d9:	c7 85 34 f5 ff ff cb 	movl   $0x714a2ecb,-0xacc(%rbp)
   157e0:	2e 4a 71 
   157e3:	c7 85 38 f5 ff ff e0 	movl   $0xc593cee0,-0xac8(%rbp)
   157ea:	ce 93 c5 
   157ed:	c7 85 3c f5 ff ff cb 	movl   $0x714a2ecb,-0xac4(%rbp)
   157f4:	2e 4a 71 
   157f7:	c7 85 40 f5 ff ff cb 	movl   $0x714a2ecb,-0xac0(%rbp)
   157fe:	2e 4a 71 
   15801:	c7 85 44 f5 ff ff e0 	movl   $0xc593cee0,-0xabc(%rbp)
   15808:	ce 93 c5 
   1580b:	c7 85 b0 f7 ff ff c2 	movl   $0x42cbb2c2,-0x850(%rbp)
   15812:	b2 cb 42 
   15815:	c7 85 b4 f7 ff ff c2 	movl   $0x42cbb2c2,-0x84c(%rbp)
   1581c:	b2 cb 42 
   1581f:	c7 85 b8 f7 ff ff c2 	movl   $0x42cbb2c2,-0x848(%rbp)
   15826:	b2 cb 42 
   15829:	c7 85 bc f7 ff ff c2 	movl   $0x42cbb2c2,-0x844(%rbp)
   15830:	b2 cb 42 
   15833:	c7 85 c0 f7 ff ff c2 	movl   $0x42cbb2c2,-0x840(%rbp)
   1583a:	b2 cb 42 
   1583d:	c7 85 c4 f7 ff ff c2 	movl   $0x42cbb2c2,-0x83c(%rbp)
   15844:	b2 cb 42 
   15847:	c7 85 c8 f7 ff ff c2 	movl   $0x42cbb2c2,-0x838(%rbp)
   1584e:	b2 cb 42 
   15851:	c7 85 5c e5 ff ff 00 	movl   $0x0,-0x1aa4(%rbp)
   15858:	00 00 00 
   1585b:	83 ad 5c e5 ff ff 01 	subl   $0x1,-0x1aa4(%rbp)
   15862:	0f b6 85 f2 e3 ff ff 	movzbl -0x1c0e(%rbp),%eax
   15869:	83 e8 01             	sub    $0x1,%eax
   1586c:	88 85 f2 e3 ff ff    	mov    %al,-0x1c0e(%rbp)
   15872:	80 bd f2 e3 ff ff 10 	cmpb   $0x10,-0x1c0e(%rbp)
   15879:	0f 86 2b ff ff ff    	jbe    157aa <func_4+0x4ca7>
   1587f:	48 8b 15 d2 73 01 00 	mov    0x173d2(%rip),%rdx        # 2cc58 <g_880>
   15886:	48 8b 05 cb 73 01 00 	mov    0x173cb(%rip),%rax        # 2cc58 <g_880>
   1588d:	8b 12                	mov    (%rdx),%edx
   1588f:	89 10                	mov    %edx,(%rax)
   15891:	eb 01                	jmp    15894 <func_4+0x4d91>
   15893:	90                   	nop
   15894:	0f b7 85 ec e3 ff ff 	movzwl -0x1c14(%rbp),%eax
   1589b:	0f be c0             	movsbl %al,%eax
   1589e:	be 07 00 00 00       	mov    $0x7,%esi
   158a3:	89 c7                	mov    %eax,%edi
   158a5:	e8 2a 69 ff ff       	callq  c1d4 <safe_add_func_int8_t_s_s>
   158aa:	66 98                	cbtw   
   158ac:	66 89 85 ec e3 ff ff 	mov    %ax,-0x1c14(%rbp)
   158b3:	66 83 bd ec e3 ff ff 	cmpw   $0x15,-0x1c14(%rbp)
   158ba:	15 
   158bb:	0f 85 3f de ff ff    	jne    13700 <func_4+0x2bfd>
   158c1:	eb 01                	jmp    158c4 <func_4+0x4dc1>
   158c3:	90                   	nop
   158c4:	48 c7 85 e0 e8 ff ff 	movq   $0xfffffffffffffff6,-0x1720(%rbp)
   158cb:	f6 ff ff ff 
   158cf:	e9 dc 24 00 00       	jmpq   17db0 <func_4+0x72ad>
   158d4:	c7 85 2c e4 ff ff f7 	movl   $0xfffffff7,-0x1bd4(%rbp)
   158db:	ff ff ff 
   158de:	48 8d 85 30 f5 ff ff 	lea    -0xad0(%rbp),%rax
   158e5:	48 8d 15 74 cf 00 00 	lea    0xcf74(%rip),%rdx        # 22860 <g_1963+0x174c>
   158ec:	b9 4b 00 00 00       	mov    $0x4b,%ecx
   158f1:	48 89 c7             	mov    %rax,%rdi
   158f4:	48 89 d6             	mov    %rdx,%rsi
   158f7:	f3 48 a5             	rep movsq %ds:(%rsi),%es:(%rdi)
   158fa:	48 8d 05 13 b8 00 00 	lea    0xb813(%rip),%rax        # 21114 <g_1963>
   15901:	48 89 85 50 e6 ff ff 	mov    %rax,-0x19b0(%rbp)
   15908:	48 8d 85 e8 e5 ff ff 	lea    -0x1a18(%rbp),%rax
   1590f:	48 89 85 18 e6 ff ff 	mov    %rax,-0x19e8(%rbp)
   15916:	48 c7 85 58 e6 ff ff 	movq   $0x0,-0x19a8(%rbp)
   1591d:	00 00 00 00 
   15921:	c6 85 02 e4 ff ff 00 	movb   $0x0,-0x1bfe(%rbp)
   15928:	48 8d 05 c9 6c 01 00 	lea    0x16cc9(%rip),%rax        # 2c5f8 <g_279>
   1592f:	48 89 85 d0 e7 ff ff 	mov    %rax,-0x1830(%rbp)
   15936:	48 8d 05 8f 2e 01 00 	lea    0x12e8f(%rip),%rax        # 287cc <g_1150>
   1593d:	48 89 85 d8 e7 ff ff 	mov    %rax,-0x1828(%rbp)
   15944:	48 c7 85 e0 e7 ff ff 	movq   $0x0,-0x1820(%rbp)
   1594b:	00 00 00 00 
   1594f:	48 8d 85 80 ea ff ff 	lea    -0x1580(%rbp),%rax
   15956:	48 83 c0 08          	add    $0x8,%rax
   1595a:	48 89 85 80 eb ff ff 	mov    %rax,-0x1480(%rbp)
   15961:	48 8d 85 80 ea ff ff 	lea    -0x1580(%rbp),%rax
   15968:	48 83 c0 08          	add    $0x8,%rax
   1596c:	48 89 85 88 eb ff ff 	mov    %rax,-0x1478(%rbp)
   15973:	48 8d 85 80 ea ff ff 	lea    -0x1580(%rbp),%rax
   1597a:	48 83 c0 08          	add    $0x8,%rax
   1597e:	48 89 85 90 eb ff ff 	mov    %rax,-0x1470(%rbp)
   15985:	48 8d 85 80 ea ff ff 	lea    -0x1580(%rbp),%rax
   1598c:	48 83 c0 08          	add    $0x8,%rax
   15990:	48 89 85 98 eb ff ff 	mov    %rax,-0x1468(%rbp)
   15997:	48 8d 85 80 ea ff ff 	lea    -0x1580(%rbp),%rax
   1599e:	48 83 c0 08          	add    $0x8,%rax
   159a2:	48 89 85 a0 eb ff ff 	mov    %rax,-0x1460(%rbp)
   159a9:	48 8d 85 80 ea ff ff 	lea    -0x1580(%rbp),%rax
   159b0:	48 89 85 a8 eb ff ff 	mov    %rax,-0x1458(%rbp)
   159b7:	48 8d 85 80 ea ff ff 	lea    -0x1580(%rbp),%rax
   159be:	48 89 85 b0 eb ff ff 	mov    %rax,-0x1450(%rbp)
   159c5:	48 8d 85 80 ea ff ff 	lea    -0x1580(%rbp),%rax
   159cc:	48 83 c0 08          	add    $0x8,%rax
   159d0:	48 89 85 b8 eb ff ff 	mov    %rax,-0x1448(%rbp)
   159d7:	48 8d 85 80 ea ff ff 	lea    -0x1580(%rbp),%rax
   159de:	48 83 c0 08          	add    $0x8,%rax
   159e2:	48 89 85 c0 eb ff ff 	mov    %rax,-0x1440(%rbp)
   159e9:	48 8d 85 80 ea ff ff 	lea    -0x1580(%rbp),%rax
   159f0:	48 89 85 c8 eb ff ff 	mov    %rax,-0x1438(%rbp)
   159f7:	48 8d 85 80 ea ff ff 	lea    -0x1580(%rbp),%rax
   159fe:	48 89 85 d0 eb ff ff 	mov    %rax,-0x1430(%rbp)
   15a05:	48 8d 85 80 ea ff ff 	lea    -0x1580(%rbp),%rax
   15a0c:	48 83 c0 08          	add    $0x8,%rax
   15a10:	48 89 85 d8 eb ff ff 	mov    %rax,-0x1428(%rbp)
   15a17:	48 8d 85 80 ea ff ff 	lea    -0x1580(%rbp),%rax
   15a1e:	48 83 c0 08          	add    $0x8,%rax
   15a22:	48 89 85 e0 eb ff ff 	mov    %rax,-0x1420(%rbp)
   15a29:	48 8d 85 80 ea ff ff 	lea    -0x1580(%rbp),%rax
   15a30:	48 83 c0 08          	add    $0x8,%rax
   15a34:	48 89 85 e8 eb ff ff 	mov    %rax,-0x1418(%rbp)
   15a3b:	48 8d 85 80 ea ff ff 	lea    -0x1580(%rbp),%rax
   15a42:	48 83 c0 08          	add    $0x8,%rax
   15a46:	48 89 85 f0 eb ff ff 	mov    %rax,-0x1410(%rbp)
   15a4d:	48 8d 85 80 ea ff ff 	lea    -0x1580(%rbp),%rax
   15a54:	48 83 c0 08          	add    $0x8,%rax
   15a58:	48 89 85 f8 eb ff ff 	mov    %rax,-0x1408(%rbp)
   15a5f:	48 8d 05 92 73 01 00 	lea    0x17392(%rip),%rax        # 2cdf8 <g_1916>
   15a66:	48 89 85 e8 e7 ff ff 	mov    %rax,-0x1818(%rbp)
   15a6d:	c7 85 b8 e5 ff ff 31 	movl   $0x62a73931,-0x1a48(%rbp)
   15a74:	39 a7 62 
   15a77:	48 8d 85 90 f0 ff ff 	lea    -0xf70(%rbp),%rax
   15a7e:	48 05 b8 01 00 00    	add    $0x1b8,%rax
   15a84:	48 89 85 f0 e7 ff ff 	mov    %rax,-0x1810(%rbp)
   15a8b:	48 8d 05 b6 6c 01 00 	lea    0x16cb6(%rip),%rax        # 2c748 <g_743+0x48>
   15a92:	48 89 85 f8 e7 ff ff 	mov    %rax,-0x1808(%rbp)
   15a99:	48 8d 05 90 6b 01 00 	lea    0x16b90(%rip),%rax        # 2c630 <g_417>
   15aa0:	48 89 85 00 e8 ff ff 	mov    %rax,-0x1800(%rbp)
   15aa7:	c7 85 bc e5 ff ff 86 	movl   $0x2e33d686,-0x1a44(%rbp)
   15aae:	d6 33 2e 
   15ab1:	c7 85 4c e4 ff ff 00 	movl   $0x0,-0x1bb4(%rbp)
   15ab8:	00 00 00 
   15abb:	eb 1e                	jmp    15adb <func_4+0x4fd8>
   15abd:	8b 85 4c e4 ff ff    	mov    -0x1bb4(%rbp),%eax
   15ac3:	48 98                	cltq   
   15ac5:	48 8d 15 fc 6b 01 00 	lea    0x16bfc(%rip),%rdx        # 2c6c8 <g_570>
   15acc:	48 89 94 c5 40 ea ff 	mov    %rdx,-0x15c0(%rbp,%rax,8)
   15ad3:	ff 
   15ad4:	83 85 4c e4 ff ff 01 	addl   $0x1,-0x1bb4(%rbp)
   15adb:	83 bd 4c e4 ff ff 06 	cmpl   $0x6,-0x1bb4(%rbp)
   15ae2:	7e d9                	jle    15abd <func_4+0x4fba>
   15ae4:	66 c7 05 17 2a 01 00 	movw   $0xa,0x12a17(%rip)        # 28504 <g_146+0x24>
   15aeb:	0a 00 
   15aed:	e9 f8 14 00 00       	jmpq   16fea <func_4+0x64e7>
   15af2:	48 8d 85 00 eb ff ff 	lea    -0x1500(%rbp),%rax
   15af9:	48 83 c0 64          	add    $0x64,%rax
   15afd:	48 89 85 48 e8 ff ff 	mov    %rax,-0x17b8(%rbp)
   15b04:	48 8d 05 dd 6a 01 00 	lea    0x16add(%rip),%rax        # 2c5e8 <g_100>
   15b0b:	48 89 85 50 e8 ff ff 	mov    %rax,-0x17b0(%rbp)
   15b12:	c7 85 cc e5 ff ff 01 	movl   $0x1,-0x1a34(%rbp)
   15b19:	00 00 00 
   15b1c:	c7 85 00 ec ff ff 01 	movl   $0x1,-0x1400(%rbp)
   15b23:	00 00 00 
   15b26:	c7 85 04 ec ff ff 01 	movl   $0x1,-0x13fc(%rbp)
   15b2d:	00 00 00 
   15b30:	c7 85 08 ec ff ff 01 	movl   $0x1,-0x13f8(%rbp)
   15b37:	00 00 00 
   15b3a:	c7 85 0c ec ff ff 01 	movl   $0x1,-0x13f4(%rbp)
   15b41:	00 00 00 
   15b44:	c7 85 10 ec ff ff 01 	movl   $0x1,-0x13f0(%rbp)
   15b4b:	00 00 00 
   15b4e:	c7 85 14 ec ff ff 01 	movl   $0x1,-0x13ec(%rbp)
   15b55:	00 00 00 
   15b58:	c7 85 18 ec ff ff 01 	movl   $0x1,-0x13e8(%rbp)
   15b5f:	00 00 00 
   15b62:	c7 85 1c ec ff ff 01 	movl   $0x1,-0x13e4(%rbp)
   15b69:	00 00 00 
   15b6c:	c7 85 20 ec ff ff 01 	movl   $0x1,-0x13e0(%rbp)
   15b73:	00 00 00 
   15b76:	c7 85 48 e4 ff ff cd 	movl   $0xd86b37cd,-0x1bb8(%rbp)
   15b7d:	37 6b d8 
   15b80:	48 8d 05 49 25 01 00 	lea    0x12549(%rip),%rax        # 280d0 <g_82>
   15b87:	48 89 85 20 e6 ff ff 	mov    %rax,-0x19e0(%rbp)
   15b8e:	48 c7 85 28 e6 ff ff 	movq   $0x0,-0x19d8(%rbp)
   15b95:	00 00 00 00 
   15b99:	48 8d 85 28 e6 ff ff 	lea    -0x19d8(%rbp),%rax
   15ba0:	48 89 85 30 e6 ff ff 	mov    %rax,-0x19d0(%rbp)
   15ba7:	48 8d 85 90 f0 ff ff 	lea    -0xf70(%rbp),%rax
   15bae:	48 05 a8 01 00 00    	add    $0x1a8,%rax
   15bb4:	48 89 85 58 e8 ff ff 	mov    %rax,-0x17a8(%rbp)
   15bbb:	48 b8 47 94 ac 89 0c 	movabs $0x9eece40c89ac9447,%rax
   15bc2:	e4 ec 9e 
   15bc5:	48 89 85 60 e8 ff ff 	mov    %rax,-0x17a0(%rbp)
   15bcc:	48 8d 85 18 e6 ff ff 	lea    -0x19e8(%rbp),%rax
   15bd3:	48 89 85 68 e8 ff ff 	mov    %rax,-0x1798(%rbp)
   15bda:	48 c7 85 70 e8 ff ff 	movq   $0x5,-0x1790(%rbp)
   15be1:	05 00 00 00 
   15be5:	c6 85 04 e4 ff ff fb 	movb   $0xfb,-0x1bfc(%rbp)
   15bec:	48 8b 05 fd 69 01 00 	mov    0x169fd(%rip),%rax        # 2c5f0 <g_259>
   15bf3:	48 8b 95 48 e8 ff ff 	mov    -0x17b8(%rbp),%rdx
   15bfa:	48 89 10             	mov    %rdx,(%rax)
   15bfd:	c7 05 91 2b 01 00 00 	movl   $0x0,0x12b91(%rip)        # 28798 <g_646>
   15c04:	00 00 00 
   15c07:	e9 d4 0a 00 00       	jmpq   166e0 <func_4+0x5bdd>
   15c0c:	c6 85 f1 e3 ff ff 72 	movb   $0x72,-0x1c0f(%rbp)
   15c13:	c7 85 d0 f2 ff ff ff 	movl   $0xffffffff,-0xd30(%rbp)
   15c1a:	ff ff ff 
   15c1d:	c7 85 d4 f2 ff ff e0 	movl   $0xd65ecbe0,-0xd2c(%rbp)
   15c24:	cb 5e d6 
   15c27:	c7 85 d8 f2 ff ff 07 	movl   $0x7,-0xd28(%rbp)
   15c2e:	00 00 00 
   15c31:	c7 85 dc f2 ff ff 5f 	movl   $0xe6d1205f,-0xd24(%rbp)
   15c38:	20 d1 e6 
   15c3b:	c7 85 e0 f2 ff ff fc 	movl   $0x66553dfc,-0xd20(%rbp)
   15c42:	3d 55 66 
   15c45:	c7 85 e4 f2 ff ff 08 	movl   $0x8,-0xd1c(%rbp)
   15c4c:	00 00 00 
   15c4f:	c7 85 e8 f2 ff ff a3 	movl   $0x6fc25aa3,-0xd18(%rbp)
   15c56:	5a c2 6f 
   15c59:	c7 85 ec f2 ff ff 00 	movl   $0x0,-0xd14(%rbp)
   15c60:	00 00 00 
   15c63:	c7 85 f0 f2 ff ff ba 	movl   $0xad8fbcba,-0xd10(%rbp)
   15c6a:	bc 8f ad 
   15c6d:	c7 85 f4 f2 ff ff ba 	movl   $0xad8fbcba,-0xd0c(%rbp)
   15c74:	bc 8f ad 
   15c77:	c7 85 f8 f2 ff ff a3 	movl   $0x6fc25aa3,-0xd08(%rbp)
   15c7e:	5a c2 6f 
   15c81:	c7 85 fc f2 ff ff ff 	movl   $0xffffffff,-0xd04(%rbp)
   15c88:	ff ff ff 
   15c8b:	c7 85 00 f3 ff ff a3 	movl   $0x6fc25aa3,-0xd00(%rbp)
   15c92:	5a c2 6f 
   15c95:	c7 85 04 f3 ff ff 01 	movl   $0x1,-0xcfc(%rbp)
   15c9c:	00 00 00 
   15c9f:	c7 85 08 f3 ff ff ff 	movl   $0xffffffff,-0xcf8(%rbp)
   15ca6:	ff ff ff 
   15ca9:	c7 85 0c f3 ff ff a3 	movl   $0x6fc25aa3,-0xcf4(%rbp)
   15cb0:	5a c2 6f 
   15cb3:	c7 85 10 f3 ff ff 9f 	movl   $0xc52c199f,-0xcf0(%rbp)
   15cba:	19 2c c5 
   15cbd:	c7 85 14 f3 ff ff 5f 	movl   $0xe6d1205f,-0xcec(%rbp)
   15cc4:	20 d1 e6 
   15cc7:	c7 85 18 f3 ff ff ff 	movl   $0xffffffff,-0xce8(%rbp)
   15cce:	ff ff ff 
   15cd1:	c7 85 1c f3 ff ff fc 	movl   $0xfffffffc,-0xce4(%rbp)
   15cd8:	ff ff ff 
   15cdb:	c7 85 20 f3 ff ff 08 	movl   $0x8,-0xce0(%rbp)
   15ce2:	00 00 00 
   15ce5:	c7 85 24 f3 ff ff 00 	movl   $0x0,-0xcdc(%rbp)
   15cec:	00 00 00 
   15cef:	c7 85 28 f3 ff ff e0 	movl   $0xd65ecbe0,-0xcd8(%rbp)
   15cf6:	cb 5e d6 
   15cf9:	c7 85 2c f3 ff ff b1 	movl   $0x8114fab1,-0xcd4(%rbp)
   15d00:	fa 14 81 
   15d03:	c7 85 30 f3 ff ff 6d 	movl   $0xb3bd396d,-0xcd0(%rbp)
   15d0a:	39 bd b3 
   15d0d:	c7 85 34 f3 ff ff ff 	movl   $0xffffffff,-0xccc(%rbp)
   15d14:	ff ff ff 
   15d17:	c7 85 38 f3 ff ff ba 	movl   $0xad8fbcba,-0xcc8(%rbp)
   15d1e:	bc 8f ad 
   15d21:	c7 85 3c f3 ff ff 5f 	movl   $0xe6d1205f,-0xcc4(%rbp)
   15d28:	20 d1 e6 
   15d2b:	c7 85 40 f3 ff ff fc 	movl   $0xfffffffc,-0xcc0(%rbp)
   15d32:	ff ff ff 
   15d35:	c7 85 44 f3 ff ff 5f 	movl   $0xe6d1205f,-0xcbc(%rbp)
   15d3c:	20 d1 e6 
   15d3f:	c7 85 48 f3 ff ff 07 	movl   $0x7,-0xcb8(%rbp)
   15d46:	00 00 00 
   15d49:	c7 85 4c f3 ff ff 07 	movl   $0x7,-0xcb4(%rbp)
   15d50:	00 00 00 
   15d53:	c7 85 50 f3 ff ff a3 	movl   $0x6fc25aa3,-0xcb0(%rbp)
   15d5a:	5a c2 6f 
   15d5d:	c7 85 54 f3 ff ff 9f 	movl   $0xc52c199f,-0xcac(%rbp)
   15d64:	19 2c c5 
   15d67:	c7 85 58 f3 ff ff 5f 	movl   $0xe6d1205f,-0xca8(%rbp)
   15d6e:	20 d1 e6 
   15d71:	c7 85 5c f3 ff ff 01 	movl   $0x1,-0xca4(%rbp)
   15d78:	00 00 00 
   15d7b:	c7 85 60 f3 ff ff ff 	movl   $0xffffffff,-0xca0(%rbp)
   15d82:	ff ff ff 
   15d85:	c7 85 64 f3 ff ff 00 	movl   $0x0,-0xc9c(%rbp)
   15d8c:	00 00 00 
   15d8f:	c7 85 68 f3 ff ff fc 	movl   $0x66553dfc,-0xc98(%rbp)
   15d96:	3d 55 66 
   15d99:	c7 85 6c f3 ff ff 6d 	movl   $0xb3bd396d,-0xc94(%rbp)
   15da0:	39 bd b3 
   15da3:	c7 85 70 f3 ff ff 39 	movl   $0x21925539,-0xc90(%rbp)
   15daa:	55 92 21 
   15dad:	c7 85 74 f3 ff ff fc 	movl   $0x66553dfc,-0xc8c(%rbp)
   15db4:	3d 55 66 
   15db7:	c7 85 78 f3 ff ff 07 	movl   $0x7,-0xc88(%rbp)
   15dbe:	00 00 00 
   15dc1:	c7 85 7c f3 ff ff ff 	movl   $0xffffffff,-0xc84(%rbp)
   15dc8:	ff ff ff 
   15dcb:	c7 85 80 f3 ff ff fc 	movl   $0xfffffffc,-0xc80(%rbp)
   15dd2:	ff ff ff 
   15dd5:	c7 85 30 e4 ff ff f9 	movl   $0xba8c9bf9,-0x1bd0(%rbp)
   15ddc:	9b 8c ba 
   15ddf:	48 8d 85 20 e6 ff ff 	lea    -0x19e0(%rbp),%rax
   15de6:	48 89 85 a8 e8 ff ff 	mov    %rax,-0x1758(%rbp)
   15ded:	c7 85 34 e4 ff ff 00 	movl   $0x0,-0x1bcc(%rbp)
   15df4:	00 00 00 
   15df7:	eb 1b                	jmp    15e14 <func_4+0x5311>
   15df9:	8b 85 34 e4 ff ff    	mov    -0x1bcc(%rbp),%eax
   15dff:	48 98                	cltq   
   15e01:	48 c7 84 c5 30 ed ff 	movq   $0x0,-0x12d0(%rbp,%rax,8)
   15e08:	ff 00 00 00 00 
   15e0d:	83 85 34 e4 ff ff 01 	addl   $0x1,-0x1bcc(%rbp)
   15e14:	83 bd 34 e4 ff ff 06 	cmpl   $0x6,-0x1bcc(%rbp)
   15e1b:	7e dc                	jle    15df9 <func_4+0x52f6>
   15e1d:	0f bf 9d ec e3 ff ff 	movswl -0x1c14(%rbp),%ebx
   15e24:	0f b6 05 a5 22 01 00 	movzbl 0x122a5(%rip),%eax        # 280d0 <g_82>
   15e2b:	44 0f b6 e0          	movzbl %al,%r12d
   15e2f:	8b 05 db 29 01 00    	mov    0x129db(%rip),%eax        # 28810 <g_1307>
   15e35:	be a0 e2 ff ff       	mov    $0xffffe2a0,%esi
   15e3a:	bf e1 85 ff ff       	mov    $0xffff85e1,%edi
   15e3f:	e8 b1 65 ff ff       	callq  c3f5 <safe_mul_func_int16_t_s_s>
   15e44:	0f b6 c0             	movzbl %al,%eax
   15e47:	44 89 e6             	mov    %r12d,%esi
   15e4a:	89 c7                	mov    %eax,%edi
   15e4c:	e8 8a 6d ff ff       	callq  cbdb <safe_div_func_uint8_t_u_u>
   15e51:	0f b6 c0             	movzbl %al,%eax
   15e54:	48 8b 95 e0 e3 ff ff 	mov    -0x1c20(%rbp),%rdx
   15e5b:	21 d0                	and    %edx,%eax
   15e5d:	98                   	cwtl   
   15e5e:	be 0a 00 00 00       	mov    $0xa,%esi
   15e63:	89 c7                	mov    %eax,%edi
   15e65:	e8 28 66 ff ff       	callq  c492 <safe_lshift_func_int16_t_s_s>
   15e6a:	66 83 f8 01          	cmp    $0x1,%ax
   15e6e:	48 8b 05 5b 6f 01 00 	mov    0x16f5b(%rip),%rax        # 2cdd0 <g_1730>
   15e75:	48 8b 00             	mov    (%rax),%rax
   15e78:	48 8b 15 a1 29 01 00 	mov    0x129a1(%rip),%rdx        # 28820 <g_1398>
   15e7f:	48 8b 05 42 68 01 00 	mov    0x16842(%rip),%rax        # 2c6c8 <g_570>
   15e86:	48 8b 00             	mov    (%rax),%rax
   15e89:	48 8b 00             	mov    (%rax),%rax
   15e8c:	48 39 c2             	cmp    %rax,%rdx
   15e8f:	0f 9c c0             	setl   %al
   15e92:	89 c2                	mov    %eax,%edx
   15e94:	8b 85 2c e4 ff ff    	mov    -0x1bd4(%rbp),%eax
   15e9a:	31 d0                	xor    %edx,%eax
   15e9c:	0f b6 c0             	movzbl %al,%eax
   15e9f:	89 de                	mov    %ebx,%esi
   15ea1:	89 c7                	mov    %eax,%edi
   15ea3:	e8 e5 6d ff ff       	callq  cc8d <safe_rshift_func_uint8_t_u_s>
   15ea8:	0f b6 d0             	movzbl %al,%edx
   15eab:	0f bf 85 ec e3 ff ff 	movswl -0x1c14(%rbp),%eax
   15eb2:	39 c2                	cmp    %eax,%edx
   15eb4:	0f 9e c0             	setle  %al
   15eb7:	0f b6 d8             	movzbl %al,%ebx
   15eba:	0f b6 85 f1 e3 ff ff 	movzbl -0x1c0f(%rbp),%eax
   15ec1:	0f b6 c0             	movzbl %al,%eax
   15ec4:	89 c7                	mov    %eax,%edi
   15ec6:	e8 d2 64 ff ff       	callq  c39d <safe_unary_minus_func_int16_t_s>
   15ecb:	98                   	cwtl   
   15ecc:	89 de                	mov    %ebx,%esi
   15ece:	89 c7                	mov    %eax,%edi
   15ed0:	e8 bd 65 ff ff       	callq  c492 <safe_lshift_func_int16_t_s_s>
   15ed5:	48 8b 85 e0 e3 ff ff 	mov    -0x1c20(%rbp),%rax
   15edc:	0f b6 d8             	movzbl %al,%ebx
   15edf:	bf f5 00 00 00       	mov    $0xf5,%edi
   15ee4:	e8 5c 6c ff ff       	callq  cb45 <safe_unary_minus_func_uint8_t_u>
   15ee9:	0f b6 c0             	movzbl %al,%eax
   15eec:	89 de                	mov    %ebx,%esi
   15eee:	89 c7                	mov    %eax,%edi
   15ef0:	e8 9e 6c ff ff       	callq  cb93 <safe_mul_func_uint8_t_u_u>
   15ef5:	48 8b 05 6c 6e 01 00 	mov    0x16e6c(%rip),%rax        # 2cd68 <g_964>
   15efc:	48 8b 00             	mov    (%rax),%rax
   15eff:	48 39 85 50 e8 ff ff 	cmp    %rax,-0x17b0(%rbp)
   15f06:	0f 95 c0             	setne  %al
   15f09:	0f b6 c0             	movzbl %al,%eax
   15f0c:	be 0c 00 00 00       	mov    $0xc,%esi
   15f11:	89 c7                	mov    %eax,%edi
   15f13:	e8 30 6f ff ff       	callq  ce48 <safe_rshift_func_uint16_t_u_s>
   15f18:	0f bf d0             	movswl %ax,%edx
   15f1b:	48 8b 85 f8 e5 ff ff 	mov    -0x1a08(%rbp),%rax
   15f22:	8b 00                	mov    (%rax),%eax
   15f24:	98                   	cwtl   
   15f25:	89 d6                	mov    %edx,%esi
   15f27:	89 c7                	mov    %eax,%edi
   15f29:	e8 85 64 ff ff       	callq  c3b3 <safe_add_func_int16_t_s_s>
   15f2e:	66 85 c0             	test   %ax,%ax
   15f31:	0f 84 1f 05 00 00    	je     16456 <func_4+0x5953>
   15f37:	66 c7 85 22 e4 ff ff 	movw   $0x5fff,-0x1bde(%rbp)
   15f3e:	ff 5f 
   15f40:	c7 85 dc e5 ff ff ff 	movl   $0xffffffff,-0x1a24(%rbp)
   15f47:	ff ff ff 
   15f4a:	c7 85 e0 e5 ff ff 35 	movl   $0xdb642535,-0x1a20(%rbp)
   15f51:	25 64 db 
   15f54:	48 8d 85 b0 f7 ff ff 	lea    -0x850(%rbp),%rax
   15f5b:	48 8d 15 5e cb 00 00 	lea    0xcb5e(%rip),%rdx        # 22ac0 <g_1963+0x19ac>
   15f62:	b9 5a 00 00 00       	mov    $0x5a,%ecx
   15f67:	48 89 c7             	mov    %rax,%rdi
   15f6a:	48 89 d6             	mov    %rdx,%rsi
   15f6d:	f3 48 a5             	rep movsq %ds:(%rsi),%es:(%rdi)
   15f70:	48 b8 65 ce 66 7c 68 	movabs $0x4d2cbe687c66ce65,%rax
   15f77:	be 2c 4d 
   15f7a:	48 89 85 10 e9 ff ff 	mov    %rax,-0x16f0(%rbp)
   15f81:	48 b8 05 a7 9d 4d ba 	movabs $0x3fc80bba4d9da705,%rax
   15f88:	0b c8 3f 
   15f8b:	48 89 85 18 e9 ff ff 	mov    %rax,-0x16e8(%rbp)
   15f92:	48 b8 96 b4 32 91 1b 	movabs $0xf1bdb41b9132b496,%rax
   15f99:	b4 bd f1 
   15f9c:	48 89 85 20 e9 ff ff 	mov    %rax,-0x16e0(%rbp)
   15fa3:	c7 85 28 e9 ff ff 3b 	movl   $0x19fe493b,-0x16d8(%rbp)
   15faa:	49 fe 19 
   15fad:	48 b8 56 ef d8 61 43 	movabs $0x21b2074361d8ef56,%rax
   15fb4:	07 b2 21 
   15fb7:	48 89 85 2c e9 ff ff 	mov    %rax,-0x16d4(%rbp)
   15fbe:	66 c7 85 34 e9 ff ff 	movw   $0x1086,-0x16cc(%rbp)
   15fc5:	86 10 
   15fc7:	48 c7 85 38 e6 ff ff 	movq   $0x0,-0x19c8(%rbp)
   15fce:	00 00 00 00 
   15fd2:	48 8d 05 7f 74 01 00 	lea    0x1747f(%rip),%rax        # 2d458 <g_558>
   15fd9:	48 89 85 b8 e8 ff ff 	mov    %rax,-0x1748(%rbp)
   15fe0:	48 c7 85 c0 e8 ff ff 	movq   $0x0,-0x1740(%rbp)
   15fe7:	00 00 00 00 
   15feb:	48 8d 05 66 74 01 00 	lea    0x17466(%rip),%rax        # 2d458 <g_558>
   15ff2:	48 89 85 c8 e8 ff ff 	mov    %rax,-0x1738(%rbp)
   15ff9:	c7 05 f5 24 01 00 00 	movl   $0x0,0x124f5(%rip)        # 284f8 <g_146+0x18>
   16000:	00 00 00 
   16003:	e9 84 00 00 00       	jmpq   1608c <func_4+0x5589>
   16008:	c7 85 e4 e5 ff ff 60 	movl   $0x9aebaa60,-0x1a1c(%rbp)
   1600f:	aa eb 9a 
   16012:	c7 85 b0 e9 ff ff d4 	movl   $0xac35e2d4,-0x1650(%rbp)
   16019:	e2 35 ac 
   1601c:	c7 85 b4 e9 ff ff d4 	movl   $0xac35e2d4,-0x164c(%rbp)
   16023:	e2 35 ac 
   16026:	c7 85 b8 e9 ff ff d4 	movl   $0xac35e2d4,-0x1648(%rbp)
   1602d:	e2 35 ac 
   16030:	c7 85 bc e9 ff ff d4 	movl   $0xac35e2d4,-0x1644(%rbp)
   16037:	e2 35 ac 
   1603a:	c7 85 c0 e9 ff ff d4 	movl   $0xac35e2d4,-0x1640(%rbp)
   16041:	e2 35 ac 
   16044:	c7 85 c4 e9 ff ff d4 	movl   $0xac35e2d4,-0x163c(%rbp)
   1604b:	e2 35 ac 
   1604e:	c7 85 c8 e9 ff ff d4 	movl   $0xac35e2d4,-0x1638(%rbp)
   16055:	e2 35 ac 
   16058:	48 8b 85 e0 e3 ff ff 	mov    -0x1c20(%rbp),%rax
   1605f:	48 85 c0             	test   %rax,%rax
   16062:	75 38                	jne    1609c <func_4+0x5599>
   16064:	83 ad 48 e4 ff ff 01 	subl   $0x1,-0x1bb8(%rbp)
   1606b:	48 8b 05 66 66 01 00 	mov    0x16666(%rip),%rax        # 2c6d8 <g_645>
   16072:	8b 10                	mov    (%rax),%edx
   16074:	48 8b 85 48 e8 ff ff 	mov    -0x17b8(%rbp),%rax
   1607b:	89 10                	mov    %edx,(%rax)
   1607d:	8b 05 75 24 01 00    	mov    0x12475(%rip),%eax        # 284f8 <g_146+0x18>
   16083:	83 c0 01             	add    $0x1,%eax
   16086:	89 05 6c 24 01 00    	mov    %eax,0x1246c(%rip)        # 284f8 <g_146+0x18>
   1608c:	8b 05 66 24 01 00    	mov    0x12466(%rip),%eax        # 284f8 <g_146+0x18>
   16092:	85 c0                	test   %eax,%eax
   16094:	0f 84 6e ff ff ff    	je     16008 <func_4+0x5505>
   1609a:	eb 01                	jmp    1609d <func_4+0x559a>
   1609c:	90                   	nop
   1609d:	c7 85 e0 e5 ff ff 00 	movl   $0x0,-0x1a20(%rbp)
   160a4:	00 00 00 
   160a7:	83 bd e0 e5 ff ff 00 	cmpl   $0x0,-0x1a20(%rbp)
   160ae:	0f 88 94 00 00 00    	js     16148 <func_4+0x5645>
   160b4:	48 8b 85 20 e9 ff ff 	mov    -0x16e0(%rbp),%rax
   160bb:	89 c3                	mov    %eax,%ebx
   160bd:	0f b7 85 ec e3 ff ff 	movzwl -0x1c14(%rbp),%eax
   160c4:	0f b7 d0             	movzwl %ax,%edx
   160c7:	8b 05 cb 26 01 00    	mov    0x126cb(%rip),%eax        # 28798 <g_646>
   160cd:	48 98                	cltq   
   160cf:	48 8d 0c c5 00 00 00 	lea    0x0(,%rax,8),%rcx
   160d6:	00 
   160d7:	48 8d 05 42 27 01 00 	lea    0x12742(%rip),%rax        # 28820 <g_1398>
   160de:	48 8b 04 01          	mov    (%rcx,%rax,1),%rax
   160e2:	0f b7 c0             	movzwl %ax,%eax
   160e5:	89 d6                	mov    %edx,%esi
   160e7:	89 c7                	mov    %eax,%edi
   160e9:	e8 6e 6c ff ff       	callq  cd5c <safe_mod_func_uint16_t_u_u>
   160ee:	8b 95 5c f6 ff ff    	mov    -0x9a4(%rbp),%edx
   160f4:	48 8b 05 25 67 01 00 	mov    0x16725(%rip),%rax        # 2c820 <g_742>
   160fb:	48 8b 00             	mov    (%rax),%rax
   160fe:	48 8b 00             	mov    (%rax),%rax
   16101:	66 89 10             	mov    %dx,(%rax)
   16104:	0f b7 10             	movzwl (%rax),%edx
   16107:	48 8b 85 20 e6 ff ff 	mov    -0x19e0(%rbp),%rax
   1610e:	48 85 c0             	test   %rax,%rax
   16111:	0f 95 c0             	setne  %al
   16114:	0f b6 c0             	movzbl %al,%eax
   16117:	21 d0                	and    %edx,%eax
   16119:	98                   	cwtl   
   1611a:	89 de                	mov    %ebx,%esi
   1611c:	89 c7                	mov    %eax,%edi
   1611e:	e8 6f 63 ff ff       	callq  c492 <safe_lshift_func_int16_t_s_s>
   16123:	ba 01 00 00 00       	mov    $0x1,%edx
   16128:	48 8b 85 48 e8 ff ff 	mov    -0x17b8(%rbp),%rax
   1612f:	8b 00                	mov    (%rax),%eax
   16131:	09 c2                	or     %eax,%edx
   16133:	48 8b 85 48 e8 ff ff 	mov    -0x17b8(%rbp),%rax
   1613a:	89 10                	mov    %edx,(%rax)
   1613c:	48 8b 85 e0 e3 ff ff 	mov    -0x1c20(%rbp),%rax
   16143:	e9 80 1c 00 00       	jmpq   17dc8 <func_4+0x72c5>
   16148:	c7 05 66 26 01 00 e6 	movl   $0xffffffe6,0x12666(%rip)        # 287b8 <g_1037+0x18>
   1614f:	ff ff ff 
   16152:	e9 6d 01 00 00       	jmpq   162c4 <func_4+0x57c1>
   16157:	48 8d 85 38 e6 ff ff 	lea    -0x19c8(%rbp),%rax
   1615e:	48 89 85 d0 e8 ff ff 	mov    %rax,-0x1730(%rbp)
   16165:	48 8d 05 f4 6b 01 00 	lea    0x16bf4(%rip),%rax        # 2cd60 <g_965>
   1616c:	48 89 85 d8 e8 ff ff 	mov    %rax,-0x1728(%rbp)
   16173:	48 8b 05 86 6c 01 00 	mov    0x16c86(%rip),%rax        # 2ce00 <g_1915>
   1617a:	48 8b 95 30 e6 ff ff 	mov    -0x19d0(%rbp),%rdx
   16181:	48 89 10             	mov    %rdx,(%rax)
   16184:	8b 85 5c f6 ff ff    	mov    -0x9a4(%rbp),%eax
   1618a:	48 63 d8             	movslq %eax,%rbx
   1618d:	48 8b 05 ac 64 01 00 	mov    0x164ac(%rip),%rax        # 2c640 <g_460>
   16194:	8b 00                	mov    (%rax),%eax
   16196:	41 89 c5             	mov    %eax,%r13d
   16199:	48 8b 05 28 6c 01 00 	mov    0x16c28(%rip),%rax        # 2cdc8 <g_1731>
   161a0:	44 0f bf a5 ec e3 ff 	movswl -0x1c14(%rbp),%r12d
   161a7:	ff 
   161a8:	8b 85 5c f6 ff ff    	mov    -0x9a4(%rbp),%eax
   161ae:	8b 95 18 f8 ff ff    	mov    -0x7e8(%rbp),%edx
   161b4:	85 d2                	test   %edx,%edx
   161b6:	74 07                	je     161bf <func_4+0x56bc>
   161b8:	b9 01 00 00 00       	mov    $0x1,%ecx
   161bd:	eb 05                	jmp    161c4 <func_4+0x56c1>
   161bf:	b9 00 00 00 00       	mov    $0x0,%ecx
   161c4:	48 8b 15 f5 64 01 00 	mov    0x164f5(%rip),%rdx        # 2c6c0 <g_571>
   161cb:	48 8b 12             	mov    (%rdx),%rdx
   161ce:	31 ca                	xor    %ecx,%edx
   161d0:	f7 d2                	not    %edx
   161d2:	89 c6                	mov    %eax,%esi
   161d4:	89 d7                	mov    %edx,%edi
   161d6:	e8 2a 64 ff ff       	callq  c605 <safe_sub_func_int32_t_s_s>
   161db:	0f b6 c0             	movzbl %al,%eax
   161de:	be ff 00 00 00       	mov    $0xff,%esi
   161e3:	89 c7                	mov    %eax,%edi
   161e5:	e8 8e 69 ff ff       	callq  cb78 <safe_sub_func_uint8_t_u_u>
   161ea:	48 c7 85 d8 e8 ff ff 	movq   $0x0,-0x1728(%rbp)
   161f1:	00 00 00 00 
   161f5:	48 83 bd d8 e8 ff ff 	cmpq   $0x0,-0x1728(%rbp)
   161fc:	00 
   161fd:	0f 95 c0             	setne  %al
   16200:	0f b6 c0             	movzbl %al,%eax
   16203:	be bd ff ff ff       	mov    $0xffffffbd,%esi
   16208:	89 c7                	mov    %eax,%edi
   1620a:	e8 03 60 ff ff       	callq  c212 <safe_mul_func_int8_t_s_s>
   1620f:	0f be c0             	movsbl %al,%eax
   16212:	44 89 e6             	mov    %r12d,%esi
   16215:	89 c7                	mov    %eax,%edi
   16217:	e8 e3 64 ff ff       	callq  c6ff <safe_div_func_int32_t_s_s>
   1621c:	8b 95 2c e4 ff ff    	mov    -0x1bd4(%rbp),%edx
   16222:	39 d0                	cmp    %edx,%eax
   16224:	7f 07                	jg     1622d <func_4+0x572a>
   16226:	b8 01 00 00 00       	mov    $0x1,%eax
   1622b:	eb 05                	jmp    16232 <func_4+0x572f>
   1622d:	b8 00 00 00 00       	mov    $0x0,%eax
   16232:	be 0a 00 00 00       	mov    $0xa,%esi
   16237:	89 c7                	mov    %eax,%edi
   16239:	e8 c8 6b ff ff       	callq  ce06 <safe_lshift_func_uint16_t_u_u>
   1623e:	0f bf d0             	movswl %ax,%edx
   16241:	48 8b 8d 38 e6 ff ff 	mov    -0x19c8(%rbp),%rcx
   16248:	48 8b 85 d0 e8 ff ff 	mov    -0x1730(%rbp),%rax
   1624f:	48 89 08             	mov    %rcx,(%rax)
   16252:	48 8b 85 d0 e8 ff ff 	mov    -0x1730(%rbp),%rax
   16259:	48 8b 00             	mov    (%rax),%rax
   1625c:	48 85 c0             	test   %rax,%rax
   1625f:	0f 95 c0             	setne  %al
   16262:	0f b6 c0             	movzbl %al,%eax
   16265:	89 d6                	mov    %edx,%esi
   16267:	89 c7                	mov    %eax,%edi
   16269:	e8 87 61 ff ff       	callq  c3f5 <safe_mul_func_int16_t_s_s>
   1626e:	48 8b 05 0b 6b 01 00 	mov    0x16b0b(%rip),%rax        # 2cd80 <g_1221>
   16275:	8b 00                	mov    (%rax),%eax
   16277:	44 89 ee             	mov    %r13d,%esi
   1627a:	89 c7                	mov    %eax,%edi
   1627c:	e8 37 6c ff ff       	callq  ceb8 <safe_add_func_uint32_t_u_u>
   16281:	89 c0                	mov    %eax,%eax
   16283:	48 89 de             	mov    %rbx,%rsi
   16286:	48 89 c7             	mov    %rax,%rdi
   16289:	e8 26 67 ff ff       	callq  c9b4 <safe_mod_func_int64_t_s_s>
   1628e:	48 be 5e 1d 8b 3c e0 	movabs $0x6a6ed4e03c8b1d5e,%rsi
   16295:	d4 6e 6a 
   16298:	48 89 c7             	mov    %rax,%rdi
   1629b:	e8 14 67 ff ff       	callq  c9b4 <safe_mod_func_int64_t_s_s>
   162a0:	31 85 30 e4 ff ff    	xor    %eax,-0x1bd0(%rbp)
   162a6:	8b 05 0c 25 01 00    	mov    0x1250c(%rip),%eax        # 287b8 <g_1037+0x18>
   162ac:	0f b6 c0             	movzbl %al,%eax
   162af:	be 06 00 00 00       	mov    $0x6,%esi
   162b4:	89 c7                	mov    %eax,%edi
   162b6:	e8 9f 68 ff ff       	callq  cb5a <safe_add_func_uint8_t_u_u>
   162bb:	0f b6 c0             	movzbl %al,%eax
   162be:	89 05 f4 24 01 00    	mov    %eax,0x124f4(%rip)        # 287b8 <g_1037+0x18>
   162c4:	8b 05 ee 24 01 00    	mov    0x124ee(%rip),%eax        # 287b8 <g_1037+0x18>
   162ca:	83 f8 2e             	cmp    $0x2e,%eax
   162cd:	0f 85 84 fe ff ff    	jne    16157 <func_4+0x5654>
   162d3:	48 8b 85 48 e8 ff ff 	mov    -0x17b8(%rbp),%rax
   162da:	8b 00                	mov    (%rax),%eax
   162dc:	48 63 d0             	movslq %eax,%rdx
   162df:	48 8b 05 e2 63 01 00 	mov    0x163e2(%rip),%rax        # 2c6c8 <g_570>
   162e6:	48 8b 00             	mov    (%rax),%rax
   162e9:	48 c7 00 fb ff ff ff 	movq   $0xfffffffffffffffb,(%rax)
   162f0:	48 8b 00             	mov    (%rax),%rax
   162f3:	48 89 d6             	mov    %rdx,%rsi
   162f6:	48 89 c7             	mov    %rax,%rdi
   162f9:	e8 b6 66 ff ff       	callq  c9b4 <safe_mod_func_int64_t_s_s>
   162fe:	49 89 c5             	mov    %rax,%r13
   16301:	48 8b 85 e0 e3 ff ff 	mov    -0x1c20(%rbp),%rax
   16308:	41 89 c7             	mov    %eax,%r15d
   1630b:	48 8b 05 d6 6a 01 00 	mov    0x16ad6(%rip),%rax        # 2cde8 <g_1918>
   16312:	48 8b 00             	mov    (%rax),%rax
   16315:	0f b7 00             	movzwl (%rax),%eax
   16318:	0f bf d8             	movswl %ax,%ebx
   1631b:	8b 05 d7 21 01 00    	mov    0x121d7(%rip),%eax        # 284f8 <g_146+0x18>
   16321:	8b 95 2c e4 ff ff    	mov    -0x1bd4(%rbp),%edx
   16327:	39 d0                	cmp    %edx,%eax
   16329:	0f 96 c0             	setbe  %al
   1632c:	44 0f b6 f0          	movzbl %al,%r14d
   16330:	8b 85 2c e4 ff ff    	mov    -0x1bd4(%rbp),%eax
   16336:	44 0f be e0          	movsbl %al,%r12d
   1633a:	48 0f bf 95 ec e3 ff 	movswq -0x1c14(%rbp),%rdx
   16341:	ff 
   16342:	48 8b 05 a7 62 01 00 	mov    0x162a7(%rip),%rax        # 2c5f0 <g_259>
   16349:	48 8b 00             	mov    (%rax),%rax
   1634c:	48 89 85 50 e6 ff ff 	mov    %rax,-0x19b0(%rbp)
   16353:	48 8d 85 2c e4 ff ff 	lea    -0x1bd4(%rbp),%rax
   1635a:	48 39 85 50 e6 ff ff 	cmp    %rax,-0x19b0(%rbp)
   16361:	0f 95 c0             	setne  %al
   16364:	0f b6 c0             	movzbl %al,%eax
   16367:	48 89 d6             	mov    %rdx,%rsi
   1636a:	48 89 c7             	mov    %rax,%rdi
   1636d:	e8 0e 6d ff ff       	callq  d080 <safe_mod_func_uint64_t_u_u>
   16372:	48 c7 c6 fe ff ff ff 	mov    $0xfffffffffffffffe,%rsi
   16379:	48 89 c7             	mov    %rax,%rdi
   1637c:	e8 27 65 ff ff       	callq  c8a8 <safe_sub_func_int64_t_s_s>
   16381:	0f be c0             	movsbl %al,%eax
   16384:	44 89 e6             	mov    %r12d,%esi
   16387:	89 c7                	mov    %eax,%edi
   16389:	e8 dc 5e ff ff       	callq  c26a <safe_div_func_int8_t_s_s>
   1638e:	48 0f be c0          	movsbq %al,%rax
   16392:	48 be ff e5 ea 92 41 	movabs $0x69ad4b4192eae5ff,%rsi
   16399:	4b ad 69 
   1639c:	48 89 c7             	mov    %rax,%rdi
   1639f:	e8 8a 6c ff ff       	callq  d02e <safe_add_func_uint64_t_u_u>
   163a4:	48 83 f8 fc          	cmp    $0xfffffffffffffffc,%rax
   163a8:	76 07                	jbe    163b1 <func_4+0x58ae>
   163aa:	b8 ad 94 ff ff       	mov    $0xffff94ad,%eax
   163af:	eb 05                	jmp    163b6 <func_4+0x58b3>
   163b1:	b8 ac 94 ff ff       	mov    $0xffff94ac,%eax
   163b6:	44 09 f0             	or     %r14d,%eax
   163b9:	89 c2                	mov    %eax,%edx
   163bb:	48 8b 85 e0 e3 ff ff 	mov    -0x1c20(%rbp),%rax
   163c2:	09 d0                	or     %edx,%eax
   163c4:	98                   	cwtl   
   163c5:	89 de                	mov    %ebx,%esi
   163c7:	89 c7                	mov    %eax,%edi
   163c9:	e8 27 60 ff ff       	callq  c3f5 <safe_mul_func_int16_t_s_s>
   163ce:	44 89 fe             	mov    %r15d,%esi
   163d1:	bf 01 00 00 00       	mov    $0x1,%edi
   163d6:	e8 2a 62 ff ff       	callq  c605 <safe_sub_func_int32_t_s_s>
   163db:	48 8b 95 48 e8 ff ff 	mov    -0x17b8(%rbp),%rdx
   163e2:	8b 12                	mov    (%rdx),%edx
   163e4:	39 d0                	cmp    %edx,%eax
   163e6:	0f 9e c0             	setle  %al
   163e9:	0f b6 c0             	movzbl %al,%eax
   163ec:	49 39 c5             	cmp    %rax,%r13
   163ef:	0f 9d c0             	setge  %al
   163f2:	0f b6 d0             	movzbl %al,%edx
   163f5:	0f b6 85 f1 e3 ff ff 	movzbl -0x1c0f(%rbp),%eax
   163fc:	0f b6 c0             	movzbl %al,%eax
   163ff:	39 c2                	cmp    %eax,%edx
   16401:	0f 95 c0             	setne  %al
   16404:	0f b6 d0             	movzbl %al,%edx
   16407:	8b 85 dc f2 ff ff    	mov    -0xd24(%rbp),%eax
   1640d:	39 c2                	cmp    %eax,%edx
   1640f:	0f 95 c2             	setne  %dl
   16412:	48 8b 85 20 e6 ff ff 	mov    -0x19e0(%rbp),%rax
   16419:	88 10                	mov    %dl,(%rax)
   1641b:	b9 00 00 00 00       	mov    $0x0,%ecx
   16420:	48 8b 05 19 62 01 00 	mov    0x16219(%rip),%rax        # 2c640 <g_460>
   16427:	8b 10                	mov    (%rax),%edx
   16429:	48 8b 05 10 62 01 00 	mov    0x16210(%rip),%rax        # 2c640 <g_460>
   16430:	31 ca                	xor    %ecx,%edx
   16432:	89 10                	mov    %edx,(%rax)
   16434:	48 8b 85 18 e6 ff ff 	mov    -0x19e8(%rbp),%rax
   1643b:	48 39 85 a8 e8 ff ff 	cmp    %rax,-0x1758(%rbp)
   16442:	0f 95 c2             	setne  %dl
   16445:	48 8b 05 c4 6f 01 00 	mov    0x16fc4(%rip),%rax        # 2d410 <g_21>
   1644c:	0f b6 d2             	movzbl %dl,%edx
   1644f:	89 10                	mov    %edx,(%rax)
   16451:	e9 7b 02 00 00       	jmpq   166d1 <func_4+0x5bce>
   16456:	c7 85 b0 f7 ff ff 06 	movl   $0x6,-0x850(%rbp)
   1645d:	00 00 00 
   16460:	c7 85 b4 f7 ff ff 06 	movl   $0x6,-0x84c(%rbp)
   16467:	00 00 00 
   1646a:	c7 85 b8 f7 ff ff 06 	movl   $0x6,-0x848(%rbp)
   16471:	00 00 00 
   16474:	c7 85 bc f7 ff ff 06 	movl   $0x6,-0x844(%rbp)
   1647b:	00 00 00 
   1647e:	48 8d 05 83 23 01 00 	lea    0x12383(%rip),%rax        # 28808 <g_1250>
   16485:	48 89 85 b0 e8 ff ff 	mov    %rax,-0x1750(%rbp)
   1648c:	48 c7 85 60 e6 ff ff 	movq   $0x0,-0x19a0(%rbp)
   16493:	00 00 00 00 
   16497:	eb 21                	jmp    164ba <func_4+0x59b7>
   16499:	c7 85 d8 e5 ff ff 09 	movl   $0x9,-0x1a28(%rbp)
   164a0:	00 00 00 
   164a3:	48 8b 85 f8 e5 ff ff 	mov    -0x1a08(%rbp),%rax
   164aa:	8b 95 d8 e5 ff ff    	mov    -0x1a28(%rbp),%edx
   164b0:	89 10                	mov    %edx,(%rax)
   164b2:	48 83 85 60 e6 ff ff 	addq   $0x1,-0x19a0(%rbp)
   164b9:	01 
   164ba:	48 83 bd 60 e6 ff ff 	cmpq   $0x7,-0x19a0(%rbp)
   164c1:	07 
   164c2:	7e d5                	jle    16499 <func_4+0x5996>
   164c4:	66 c7 05 0b 20 01 00 	movw   $0xfff1,0x1200b(%rip)        # 284d8 <g_130>
   164cb:	f1 ff 
   164cd:	eb 2d                	jmp    164fc <func_4+0x59f9>
   164cf:	b8 0a e2 d6 b5       	mov    $0xb5d6e20a,%eax
   164d4:	85 c0                	test   %eax,%eax
   164d6:	74 05                	je     164dd <func_4+0x59da>
   164d8:	e9 e3 ae ff ff       	jmpq   113c0 <func_4+0x8bd>
   164dd:	0f b7 05 f4 1f 01 00 	movzwl 0x11ff4(%rip),%eax        # 284d8 <g_130>
   164e4:	48 0f bf c0          	movswq %ax,%rax
   164e8:	be 02 00 00 00       	mov    $0x2,%esi
   164ed:	48 89 c7             	mov    %rax,%rdi
   164f0:	e8 b3 63 ff ff       	callq  c8a8 <safe_sub_func_int64_t_s_s>
   164f5:	66 89 05 dc 1f 01 00 	mov    %ax,0x11fdc(%rip)        # 284d8 <g_130>
   164fc:	0f b7 05 d5 1f 01 00 	movzwl 0x11fd5(%rip),%eax        # 284d8 <g_130>
   16503:	66 83 f8 ee          	cmp    $0xffee,%ax
   16507:	7d c6                	jge    164cf <func_4+0x59cc>
   16509:	48 8b 05 20 61 01 00 	mov    0x16120(%rip),%rax        # 2c630 <g_417>
   16510:	0f b7 00             	movzwl (%rax),%eax
   16513:	0f b7 c0             	movzwl %ax,%eax
   16516:	be 0e 00 00 00       	mov    $0xe,%esi
   1651b:	89 c7                	mov    %eax,%edi
   1651d:	e8 e4 68 ff ff       	callq  ce06 <safe_lshift_func_uint16_t_u_u>
   16522:	41 89 c7             	mov    %eax,%r15d
   16525:	48 8b 85 e0 e3 ff ff 	mov    -0x1c20(%rbp),%rax
   1652c:	0f b6 d8             	movzbl %al,%ebx
   1652f:	8b 05 97 1b 01 00    	mov    0x11b97(%rip),%eax        # 280cc <g_71>
   16535:	44 0f b6 e0          	movzbl %al,%r12d
   16539:	8b 85 dc f2 ff ff    	mov    -0xd24(%rbp),%eax
   1653f:	44 0f be e8          	movsbl %al,%r13d
   16543:	48 8b 85 50 e6 ff ff 	mov    -0x19b0(%rbp),%rax
   1654a:	8b 00                	mov    (%rax),%eax
   1654c:	44 0f bf f0          	movswl %ax,%r14d
   16550:	48 8b 05 69 1b 01 00 	mov    0x11b69(%rip),%rax        # 280c0 <g_68>
   16557:	89 c2                	mov    %eax,%edx
   16559:	c7 85 2c e4 ff ff 8f 	movl   $0x8f,-0x1bd4(%rbp)
   16560:	00 00 00 
   16563:	0f b6 85 f1 e3 ff ff 	movzbl -0x1c0f(%rbp),%eax
   1656a:	3c 8f                	cmp    $0x8f,%al
   1656c:	0f 97 c0             	seta   %al
   1656f:	0f b6 c0             	movzbl %al,%eax
   16572:	89 d6                	mov    %edx,%esi
   16574:	89 c7                	mov    %eax,%edi
   16576:	e8 ba 5d ff ff       	callq  c335 <safe_rshift_func_int8_t_s_s>
   1657b:	0f be d0             	movsbl %al,%edx
   1657e:	8b 05 04 22 01 00    	mov    0x12204(%rip),%eax        # 28788 <g_519>
   16584:	39 c2                	cmp    %eax,%edx
   16586:	0f 9f c0             	setg   %al
   16589:	0f b6 c0             	movzbl %al,%eax
   1658c:	89 85 5c f6 ff ff    	mov    %eax,-0x9a4(%rbp)
   16592:	8b 85 5c f6 ff ff    	mov    -0x9a4(%rbp),%eax
   16598:	48 63 d0             	movslq %eax,%rdx
   1659b:	48 8b 85 e0 e3 ff ff 	mov    -0x1c20(%rbp),%rax
   165a2:	48 39 c2             	cmp    %rax,%rdx
   165a5:	0f 9e c0             	setle  %al
   165a8:	0f b6 c0             	movzbl %al,%eax
   165ab:	be 7c 00 00 00       	mov    $0x7c,%esi
   165b0:	89 c7                	mov    %eax,%edi
   165b2:	e8 f7 65 ff ff       	callq  cbae <safe_mod_func_uint8_t_u_u>
   165b7:	0f b6 c0             	movzbl %al,%eax
   165ba:	48 8b 15 5f 22 01 00 	mov    0x1225f(%rip),%rdx        # 28820 <g_1398>
   165c1:	09 c2                	or     %eax,%edx
   165c3:	48 8b 05 46 6e 01 00 	mov    0x16e46(%rip),%rax        # 2d410 <g_21>
   165ca:	8b 00                	mov    (%rax),%eax
   165cc:	21 d0                	and    %edx,%eax
   165ce:	98                   	cwtl   
   165cf:	44 89 f6             	mov    %r14d,%esi
   165d2:	89 c7                	mov    %eax,%edi
   165d4:	e8 fa 5d ff ff       	callq  c3d3 <safe_sub_func_int16_t_s_s>
   165d9:	48 0f bf c0          	movswq %ax,%rax
   165dd:	48 89 c7             	mov    %rax,%rdi
   165e0:	e8 31 62 ff ff       	callq  c816 <safe_unary_minus_func_int64_t_s>
   165e5:	0f be c0             	movsbl %al,%eax
   165e8:	be 01 00 00 00       	mov    $0x1,%esi
   165ed:	89 c7                	mov    %eax,%edi
   165ef:	e8 fa 5c ff ff       	callq  c2ee <safe_lshift_func_int8_t_s_u>
   165f4:	0f be c0             	movsbl %al,%eax
   165f7:	89 c6                	mov    %eax,%esi
   165f9:	bf d9 ff ff ff       	mov    $0xffffffd9,%edi
   165fe:	e8 0f 5c ff ff       	callq  c212 <safe_mul_func_int8_t_s_s>
   16603:	48 8b 95 b0 e8 ff ff 	mov    -0x1750(%rbp),%rdx
   1660a:	0f b6 12             	movzbl (%rdx),%edx
   1660d:	21 c2                	and    %eax,%edx
   1660f:	48 8b 85 b0 e8 ff ff 	mov    -0x1750(%rbp),%rax
   16616:	88 10                	mov    %dl,(%rax)
   16618:	48 8b 85 b0 e8 ff ff 	mov    -0x1750(%rbp),%rax
   1661f:	0f b6 00             	movzbl (%rax),%eax
   16622:	0f be c0             	movsbl %al,%eax
   16625:	44 89 ee             	mov    %r13d,%esi
   16628:	89 c7                	mov    %eax,%edi
   1662a:	e8 3b 5c ff ff       	callq  c26a <safe_div_func_int8_t_s_s>
   1662f:	0f b6 c0             	movzbl %al,%eax
   16632:	44 89 e6             	mov    %r12d,%esi
   16635:	89 c7                	mov    %eax,%edi
   16637:	e8 3c 65 ff ff       	callq  cb78 <safe_sub_func_uint8_t_u_u>
   1663c:	0f b6 c0             	movzbl %al,%eax
   1663f:	89 de                	mov    %ebx,%esi
   16641:	89 c7                	mov    %eax,%edi
   16643:	e8 4b 65 ff ff       	callq  cb93 <safe_mul_func_uint8_t_u_u>
   16648:	0f b6 c0             	movzbl %al,%eax
   1664b:	66 41 39 c7          	cmp    %ax,%r15w
   1664f:	48 8b 05 92 60 01 00 	mov    0x16092(%rip),%rax        # 2c6e8 <g_744>
   16656:	0f b7 00             	movzwl (%rax),%eax
   16659:	98                   	cwtl   
   1665a:	89 85 b0 f7 ff ff    	mov    %eax,-0x850(%rbp)
   16660:	8b 85 b0 f7 ff ff    	mov    -0x850(%rbp),%eax
   16666:	66 89 85 ec e3 ff ff 	mov    %ax,-0x1c14(%rbp)
   1666d:	0f bf 85 ec e3 ff ff 	movswl -0x1c14(%rbp),%eax
   16674:	be 05 00 00 00       	mov    $0x5,%esi
   16679:	89 c7                	mov    %eax,%edi
   1667b:	e8 aa 5e ff ff       	callq  c52a <safe_rshift_func_int16_t_s_s>
   16680:	48 0f bf c0          	movswq %ax,%rax
   16684:	48 be 16 63 3e a0 a2 	movabs $0x4cbe2a2a03e6316,%rsi
   1668b:	e2 cb 04 
   1668e:	48 89 c7             	mov    %rax,%rdi
   16691:	e8 ea 69 ff ff       	callq  d080 <safe_mod_func_uint64_t_u_u>
   16696:	48 85 c0             	test   %rax,%rax
   16699:	74 12                	je     166ad <func_4+0x5baa>
   1669b:	48 8b 05 46 67 01 00 	mov    0x16746(%rip),%rax        # 2cde8 <g_1918>
   166a2:	48 8b 00             	mov    (%rax),%rax
   166a5:	0f b7 00             	movzwl (%rax),%eax
   166a8:	e9 1b 17 00 00       	jmpq   17dc8 <func_4+0x72c5>
   166ad:	48 c7 85 60 ed ff ff 	movq   $0x0,-0x12a0(%rbp)
   166b4:	00 00 00 00 
   166b8:	48 8b 05 21 60 01 00 	mov    0x16021(%rip),%rax        # 2c6e0 <g_718>
   166bf:	8b 00                	mov    (%rax),%eax
   166c1:	85 c0                	test   %eax,%eax
   166c3:	75 0c                	jne    166d1 <func_4+0x5bce>
   166c5:	0f b7 85 ec e3 ff ff 	movzwl -0x1c14(%rbp),%eax
   166cc:	e9 f7 16 00 00       	jmpq   17dc8 <func_4+0x72c5>
   166d1:	8b 05 c1 20 01 00    	mov    0x120c1(%rip),%eax        # 28798 <g_646>
   166d7:	83 e8 01             	sub    $0x1,%eax
   166da:	89 05 b8 20 01 00    	mov    %eax,0x120b8(%rip)        # 28798 <g_646>
   166e0:	8b 05 b2 20 01 00    	mov    0x120b2(%rip),%eax        # 28798 <g_646>
   166e6:	85 c0                	test   %eax,%eax
   166e8:	0f 89 1e f5 ff ff    	jns    15c0c <func_4+0x5109>
   166ee:	c7 85 88 e4 ff ff 15 	movl   $0x15,-0x1b78(%rbp)
   166f5:	00 00 00 
   166f8:	e9 55 05 00 00       	jmpq   16c52 <func_4+0x614f>
   166fd:	c7 85 d0 e5 ff ff fe 	movl   $0xfffffffe,-0x1a30(%rbp)
   16704:	ff ff ff 
   16707:	66 c7 85 80 e9 ff ff 	movw   $0xfffc,-0x1680(%rbp)
   1670e:	fc ff 
   16710:	66 c7 85 82 e9 ff ff 	movw   $0x2,-0x167e(%rbp)
   16717:	02 00 
   16719:	66 c7 85 84 e9 ff ff 	movw   $0xfffc,-0x167c(%rbp)
   16720:	fc ff 
   16722:	66 c7 85 86 e9 ff ff 	movw   $0x2,-0x167a(%rbp)
   16729:	02 00 
   1672b:	66 c7 85 88 e9 ff ff 	movw   $0xfffc,-0x1678(%rbp)
   16732:	fc ff 
   16734:	66 c7 85 8a e9 ff ff 	movw   $0x2,-0x1676(%rbp)
   1673b:	02 00 
   1673d:	66 c7 85 8c e9 ff ff 	movw   $0xfffc,-0x1674(%rbp)
   16744:	fc ff 
   16746:	66 c7 85 8e e9 ff ff 	movw   $0x2,-0x1672(%rbp)
   1674d:	02 00 
   1674f:	48 c7 85 88 e8 ff ff 	movq   $0x0,-0x1778(%rbp)
   16756:	00 00 00 00 
   1675a:	48 b8 09 00 b2 eb b7 	movabs $0xb77575b7ebb20009,%rax
   16761:	75 75 b7 
   16764:	48 89 85 d0 f2 ff ff 	mov    %rax,-0xd30(%rbp)
   1676b:	c6 85 d8 f2 ff ff 88 	movb   $0x88,-0xd28(%rbp)
   16772:	48 b8 3c 01 3c fd 5b 	movabs $0x3db2055bfd3c013c,%rax
   16779:	05 b2 3d 
   1677c:	48 89 85 d9 f2 ff ff 	mov    %rax,-0xd27(%rbp)
   16783:	c6 85 e1 f2 ff ff 60 	movb   $0x60,-0xd1f(%rbp)
   1678a:	48 b8 75 eb 01 ff 7d 	movabs $0x5085b7dff01eb75,%rax
   16791:	5b 08 05 
   16794:	48 89 85 e2 f2 ff ff 	mov    %rax,-0xd1e(%rbp)
   1679b:	c6 85 ea f2 ff ff 73 	movb   $0x73,-0xd16(%rbp)
   167a2:	48 b8 5b 30 29 fd 08 	movabs $0xf788fa08fd29305b,%rax
   167a9:	fa 88 f7 
   167ac:	48 89 85 eb f2 ff ff 	mov    %rax,-0xd15(%rbp)
   167b3:	c6 85 f3 f2 ff ff f7 	movb   $0xf7,-0xd0d(%rbp)
   167ba:	48 b8 30 fa 60 88 60 	movabs $0x30fa608860fa30,%rax
   167c1:	fa 30 00 
   167c4:	48 89 85 f4 f2 ff ff 	mov    %rax,-0xd0c(%rbp)
   167cb:	c6 85 fc f2 ff ff 75 	movb   $0x75,-0xd04(%rbp)
   167d2:	48 b8 01 fd ff 60 00 	movabs $0x9ff95b0060fffd01,%rax
   167d9:	5b f9 9f 
   167dc:	48 89 85 fd f2 ff ff 	mov    %rax,-0xd03(%rbp)
   167e3:	c6 85 05 f3 ff ff 30 	movb   $0x30,-0xcfb(%rbp)
   167ea:	48 b8 7d be fa 73 30 	movabs $0x9f053073fabe7d,%rax
   167f1:	05 9f 00 
   167f4:	48 89 85 06 f3 ff ff 	mov    %rax,-0xcfa(%rbp)
   167fb:	c6 85 0e f3 ff ff 01 	movb   $0x1,-0xcf2(%rbp)
   16802:	48 b8 3d 08 6c f7 09 	movabs $0xf7097509f76c083d,%rax
   16809:	75 09 f7 
   1680c:	48 89 85 0f f3 ff ff 	mov    %rax,-0xcf1(%rbp)
   16813:	c6 85 17 f3 ff ff 6c 	movb   $0x6c,-0xce9(%rbp)
   1681a:	48 b8 3d 3d 73 75 88 	movabs $0x5fdb28875733d3d,%rax
   16821:	b2 fd 05 
   16824:	48 89 85 18 f3 ff ff 	mov    %rax,-0xce8(%rbp)
   1682b:	c6 85 20 f3 ff ff 01 	movb   $0x1,-0xce0(%rbp)
   16832:	48 b8 7d 00 b7 30 ff 	movabs $0x3df708ff30b7007d,%rax
   16839:	08 f7 3d 
   1683c:	48 89 85 21 f3 ff ff 	mov    %rax,-0xcdf(%rbp)
   16843:	c6 85 29 f3 ff ff 00 	movb   $0x0,-0xcd7(%rbp)
   1684a:	48 b8 01 60 73 01 00 	movabs $0xb729880001736001,%rax
   16851:	88 29 b7 
   16854:	48 89 85 2a f3 ff ff 	mov    %rax,-0xcd6(%rbp)
   1685b:	c6 85 32 f3 ff ff 29 	movb   $0x29,-0xcce(%rbp)
   16862:	48 b8 30 00 6c 6c 00 	movabs $0x5b3c30006c6c0030,%rax
   16869:	30 3c 5b 
   1686c:	48 89 85 33 f3 ff ff 	mov    %rax,-0xccd(%rbp)
   16873:	c6 85 3b f3 ff ff eb 	movb   $0xeb,-0xcc5(%rbp)
   1687a:	48 b8 5b 29 fa 01 ff 	movabs $0x7d73f9ff01fa295b,%rax
   16881:	f9 73 7d 
   16884:	48 89 85 3c f3 ff ff 	mov    %rax,-0xcc4(%rbp)
   1688b:	c6 85 44 f3 ff ff 09 	movb   $0x9,-0xcbc(%rbp)
   16892:	48 b8 75 b2 ff 00 88 	movabs $0x83c9f8800ffb275,%rax
   16899:	9f 3c 08 
   1689c:	48 89 85 45 f3 ff ff 	mov    %rax,-0xcbb(%rbp)
   168a3:	c6 85 4d f3 ff ff 7d 	movb   $0x7d,-0xcb3(%rbp)
   168aa:	48 b8 3c 7d 60 29 09 	movabs $0x6029090929607d3c,%rax
   168b1:	09 29 60 
   168b4:	48 89 85 4e f3 ff ff 	mov    %rax,-0xcb2(%rbp)
   168bb:	c6 85 56 f3 ff ff 7d 	movb   $0x7d,-0xcaa(%rbp)
   168c2:	48 b8 ff 75 29 eb 30 	movabs $0xf7fd30eb2975ff,%rax
   168c9:	fd f7 00 
   168cc:	48 89 85 57 f3 ff ff 	mov    %rax,-0xca9(%rbp)
   168d3:	c6 85 5f f3 ff ff 09 	movb   $0x9,-0xca1(%rbp)
   168da:	48 b8 73 88 01 09 00 	movabs $0x30fdf70009018873,%rax
   168e1:	f7 fd 30 
   168e4:	48 89 85 60 f3 ff ff 	mov    %rax,-0xca0(%rbp)
   168eb:	c6 85 68 f3 ff ff eb 	movb   $0xeb,-0xc98(%rbp)
   168f2:	48 b8 f9 75 3c 7d 60 	movabs $0x90929607d3c75f9,%rax
   168f9:	29 09 09 
   168fc:	48 89 85 69 f3 ff ff 	mov    %rax,-0xc97(%rbp)
   16903:	c6 85 71 f3 ff ff 29 	movb   $0x29,-0xc8f(%rbp)
   1690a:	48 b8 08 7d f9 7d 08 	movabs $0x889f3c087df97d08,%rax
   16911:	3c 9f 88 
   16914:	48 89 85 72 f3 ff ff 	mov    %rax,-0xc8e(%rbp)
   1691b:	c6 85 7a f3 ff ff 00 	movb   $0x0,-0xc86(%rbp)
   16922:	48 b8 eb b2 00 09 7d 	movabs $0xfff9737d0900b2eb,%rax
   16929:	73 f9 ff 
   1692c:	48 89 85 7b f3 ff ff 	mov    %rax,-0xc85(%rbp)
   16933:	c6 85 83 f3 ff ff 01 	movb   $0x1,-0xc7d(%rbp)
   1693a:	48 c7 85 90 e8 ff ff 	movq   $0x0,-0x1770(%rbp)
   16941:	00 00 00 00 
   16945:	48 8d 05 74 5d 01 00 	lea    0x15d74(%rip),%rax        # 2c6c0 <g_571>
   1694c:	48 89 85 10 e9 ff ff 	mov    %rax,-0x16f0(%rbp)
   16953:	48 8d 85 10 e9 ff ff 	lea    -0x16f0(%rbp),%rax
   1695a:	48 89 85 98 e8 ff ff 	mov    %rax,-0x1768(%rbp)
   16961:	66 c7 85 20 e4 ff ff 	movw   $0xfff6,-0x1be0(%rbp)
   16968:	f6 ff 
   1696a:	48 8d 95 b0 f7 ff ff 	lea    -0x850(%rbp),%rdx
   16971:	b8 00 00 00 00       	mov    $0x0,%eax
   16976:	b9 32 00 00 00       	mov    $0x32,%ecx
   1697b:	48 89 d7             	mov    %rdx,%rdi
   1697e:	f3 48 ab             	rep stos %rax,%es:(%rdi)
   16981:	c7 85 38 e4 ff ff 00 	movl   $0x0,-0x1bc8(%rbp)
   16988:	00 00 00 
   1698b:	eb 1a                	jmp    169a7 <func_4+0x5ea4>
   1698d:	8b 85 38 e4 ff ff    	mov    -0x1bc8(%rbp),%eax
   16993:	48 98                	cltq   
   16995:	c7 84 85 b0 e9 ff ff 	movl   $0x7,-0x1650(%rbp,%rax,4)
   1699c:	07 00 00 00 
   169a0:	83 85 38 e4 ff ff 01 	addl   $0x1,-0x1bc8(%rbp)
   169a7:	83 bd 38 e4 ff ff 05 	cmpl   $0x5,-0x1bc8(%rbp)
   169ae:	7e dd                	jle    1698d <func_4+0x5e8a>
   169b0:	c7 85 38 e4 ff ff 00 	movl   $0x0,-0x1bc8(%rbp)
   169b7:	00 00 00 
   169ba:	eb 1a                	jmp    169d6 <func_4+0x5ed3>
   169bc:	8b 85 38 e4 ff ff    	mov    -0x1bc8(%rbp),%eax
   169c2:	48 98                	cltq   
   169c4:	c7 84 85 60 e9 ff ff 	movl   $0x507604b4,-0x16a0(%rbp,%rax,4)
   169cb:	b4 04 76 50 
   169cf:	83 85 38 e4 ff ff 01 	addl   $0x1,-0x1bc8(%rbp)
   169d6:	83 bd 38 e4 ff ff 02 	cmpl   $0x2,-0x1bc8(%rbp)
   169dd:	7e dd                	jle    169bc <func_4+0x5eb9>
   169df:	c7 05 2f 1e 01 00 00 	movl   $0x0,0x11e2f(%rip)        # 28818 <g_1368>
   169e6:	00 00 00 
   169e9:	e9 5d 01 00 00       	jmpq   16b4b <func_4+0x6048>
   169ee:	48 8d 85 2c e4 ff ff 	lea    -0x1bd4(%rbp),%rax
   169f5:	48 89 85 a0 e8 ff ff 	mov    %rax,-0x1760(%rbp)
   169fc:	c7 85 d4 e5 ff ff 06 	movl   $0x6,-0x1a2c(%rbp)
   16a03:	00 00 00 
   16a06:	c7 85 30 ed ff ff f8 	movl   $0xfffffff8,-0x12d0(%rbp)
   16a0d:	ff ff ff 
   16a10:	c7 85 34 ed ff ff 00 	movl   $0x0,-0x12cc(%rbp)
   16a17:	00 00 00 
   16a1a:	c7 85 38 ed ff ff f8 	movl   $0xfffffff8,-0x12c8(%rbp)
   16a21:	ff ff ff 
   16a24:	c7 85 3c ed ff ff f8 	movl   $0xfffffff8,-0x12c4(%rbp)
   16a2b:	ff ff ff 
   16a2e:	c7 85 40 ed ff ff 00 	movl   $0x0,-0x12c0(%rbp)
   16a35:	00 00 00 
   16a38:	c7 85 44 ed ff ff f8 	movl   $0xfffffff8,-0x12bc(%rbp)
   16a3f:	ff ff ff 
   16a42:	c7 85 48 ed ff ff f8 	movl   $0xfffffff8,-0x12b8(%rbp)
   16a49:	ff ff ff 
   16a4c:	c7 85 4c ed ff ff 00 	movl   $0x0,-0x12b4(%rbp)
   16a53:	00 00 00 
   16a56:	c7 85 50 ed ff ff f8 	movl   $0xfffffff8,-0x12b0(%rbp)
   16a5d:	ff ff ff 
   16a60:	c7 85 54 ed ff ff f8 	movl   $0xfffffff8,-0x12ac(%rbp)
   16a67:	ff ff ff 
   16a6a:	c7 85 58 ed ff ff 00 	movl   $0x0,-0x12a8(%rbp)
   16a71:	00 00 00 
   16a74:	c7 85 5c ed ff ff f8 	movl   $0xfffffff8,-0x12a4(%rbp)
   16a7b:	ff ff ff 
   16a7e:	c7 85 60 ed ff ff f8 	movl   $0xfffffff8,-0x12a0(%rbp)
   16a85:	ff ff ff 
   16a88:	c7 85 64 ed ff ff 00 	movl   $0x0,-0x129c(%rbp)
   16a8f:	00 00 00 
   16a92:	c7 85 68 ed ff ff f8 	movl   $0xfffffff8,-0x1298(%rbp)
   16a99:	ff ff ff 
   16a9c:	c7 85 6c ed ff ff f8 	movl   $0xfffffff8,-0x1294(%rbp)
   16aa3:	ff ff ff 
   16aa6:	c7 85 70 ed ff ff 00 	movl   $0x0,-0x1290(%rbp)
   16aad:	00 00 00 
   16ab0:	c7 85 74 ed ff ff f8 	movl   $0xfffffff8,-0x128c(%rbp)
   16ab7:	ff ff ff 
   16aba:	c6 85 05 e4 ff ff 78 	movb   $0x78,-0x1bfb(%rbp)
   16ac1:	c7 85 3c e4 ff ff 00 	movl   $0x0,-0x1bc4(%rbp)
   16ac8:	00 00 00 
   16acb:	eb 21                	jmp    16aee <func_4+0x5feb>
   16acd:	8b 85 3c e4 ff ff    	mov    -0x1bc4(%rbp),%eax
   16ad3:	48 98                	cltq   
   16ad5:	48 bb f1 00 2a d1 f3 	movabs $0x477ec8f3d12a00f1,%rbx
   16adc:	c8 7e 47 
   16adf:	48 89 9c c5 40 e9 ff 	mov    %rbx,-0x16c0(%rbp,%rax,8)
   16ae6:	ff 
   16ae7:	83 85 3c e4 ff ff 01 	addl   $0x1,-0x1bc4(%rbp)
   16aee:	83 bd 3c e4 ff ff 00 	cmpl   $0x0,-0x1bc4(%rbp)
   16af5:	7e d6                	jle    16acd <func_4+0x5fca>
   16af7:	48 8d 85 30 f5 ff ff 	lea    -0xad0(%rbp),%rax
   16afe:	48 05 3c 01 00 00    	add    $0x13c,%rax
   16b04:	48 89 85 a0 e8 ff ff 	mov    %rax,-0x1760(%rbp)
   16b0b:	c6 05 6e 15 01 00 04 	movb   $0x4,0x1156e(%rip)        # 28080 <g_38>
   16b12:	90                   	nop
   16b13:	0f b6 05 66 15 01 00 	movzbl 0x11566(%rip),%eax        # 28080 <g_38>
   16b1a:	84 c0                	test   %al,%al
   16b1c:	78 0c                	js     16b2a <func_4+0x6027>
   16b1e:	0f b7 85 ec e3 ff ff 	movzwl -0x1c14(%rbp),%eax
   16b25:	e9 9e 12 00 00       	jmpq   17dc8 <func_4+0x72c5>
   16b2a:	48 8b 85 40 e9 ff ff 	mov    -0x16c0(%rbp),%rax
   16b31:	48 83 c0 01          	add    $0x1,%rax
   16b35:	48 89 85 40 e9 ff ff 	mov    %rax,-0x16c0(%rbp)
   16b3c:	8b 05 d6 1c 01 00    	mov    0x11cd6(%rip),%eax        # 28818 <g_1368>
   16b42:	83 e8 01             	sub    $0x1,%eax
   16b45:	89 05 cd 1c 01 00    	mov    %eax,0x11ccd(%rip)        # 28818 <g_1368>
   16b4b:	8b 05 c7 1c 01 00    	mov    0x11cc7(%rip),%eax        # 28818 <g_1368>
   16b51:	83 f8 e2             	cmp    $0xffffffe2,%eax
   16b54:	0f 85 94 fe ff ff    	jne    169ee <func_4+0x5eeb>
   16b5a:	66 83 bd ec e3 ff ff 	cmpw   $0x0,-0x1c14(%rbp)
   16b61:	00 
   16b62:	75 7e                	jne    16be2 <func_4+0x60df>
   16b64:	48 8b 05 85 62 01 00 	mov    0x16285(%rip),%rax        # 2cdf0 <g_1917>
   16b6b:	48 8b 00             	mov    (%rax),%rax
   16b6e:	48 8b 00             	mov    (%rax),%rax
   16b71:	0f b7 00             	movzwl (%rax),%eax
   16b74:	0f bf d8             	movswl %ax,%ebx
   16b77:	48 8b 05 2a 62 01 00 	mov    0x1622a(%rip),%rax        # 2cda8 <g_1478>
   16b7e:	0f b7 00             	movzwl (%rax),%eax
   16b81:	0f b7 c0             	movzwl %ax,%eax
   16b84:	be 05 00 00 00       	mov    $0x5,%esi
   16b89:	89 c7                	mov    %eax,%edi
   16b8b:	e8 2e 62 ff ff       	callq  cdbe <safe_lshift_func_uint16_t_u_s>
   16b90:	66 85 c0             	test   %ax,%ax
   16b93:	74 44                	je     16bd9 <func_4+0x60d6>
   16b95:	48 83 bd 58 e8 ff ff 	cmpq   $0x0,-0x17a8(%rbp)
   16b9c:	00 
   16b9d:	0f 95 c0             	setne  %al
   16ba0:	0f b6 c0             	movzbl %al,%eax
   16ba3:	be 02 00 00 00       	mov    $0x2,%esi
   16ba8:	89 c7                	mov    %eax,%edi
   16baa:	e8 cb 62 ff ff       	callq  ce7a <safe_rshift_func_uint16_t_u_u>
   16baf:	0f b7 d0             	movzwl %ax,%edx
   16bb2:	0f be 85 02 e4 ff ff 	movsbl -0x1bfe(%rbp),%eax
   16bb9:	39 c2                	cmp    %eax,%edx
   16bbb:	0f 95 c0             	setne  %al
   16bbe:	0f b6 c0             	movzbl %al,%eax
   16bc1:	89 c6                	mov    %eax,%esi
   16bc3:	bf ff 00 00 00       	mov    $0xff,%edi
   16bc8:	e8 e6 57 ff ff       	callq  c3b3 <safe_add_func_int16_t_s_s>
   16bcd:	66 85 c0             	test   %ax,%ax
   16bd0:	74 07                	je     16bd9 <func_4+0x60d6>
   16bd2:	b8 01 00 00 00       	mov    $0x1,%eax
   16bd7:	eb 05                	jmp    16bde <func_4+0x60db>
   16bd9:	b8 00 00 00 00       	mov    $0x0,%eax
   16bde:	39 d8                	cmp    %ebx,%eax
   16be0:	7d 07                	jge    16be9 <func_4+0x60e6>
   16be2:	ba 01 00 00 00       	mov    $0x1,%edx
   16be7:	eb 05                	jmp    16bee <func_4+0x60eb>
   16be9:	ba 00 00 00 00       	mov    $0x0,%edx
   16bee:	48 8b 85 50 e6 ff ff 	mov    -0x19b0(%rbp),%rax
   16bf5:	8b 00                	mov    (%rax),%eax
   16bf7:	89 d3                	mov    %edx,%ebx
   16bf9:	21 c3                	and    %eax,%ebx
   16bfb:	be 06 00 00 00       	mov    $0x6,%esi
   16c00:	bf 01 00 00 00       	mov    $0x1,%edi
   16c05:	e8 b4 60 ff ff       	callq  ccbe <safe_rshift_func_uint8_t_u_u>
   16c0a:	0f b6 c0             	movzbl %al,%eax
   16c0d:	89 de                	mov    %ebx,%esi
   16c0f:	89 c7                	mov    %eax,%edi
   16c11:	e8 ef 59 ff ff       	callq  c605 <safe_sub_func_int32_t_s_s>
   16c16:	0f b7 95 ec e3 ff ff 	movzwl -0x1c14(%rbp),%edx
   16c1d:	48 8b 05 1c 5a 01 00 	mov    0x15a1c(%rip),%rax        # 2c640 <g_460>
   16c24:	8b 08                	mov    (%rax),%ecx
   16c26:	0f bf d2             	movswl %dx,%edx
   16c29:	48 8b 05 10 5a 01 00 	mov    0x15a10(%rip),%rax        # 2c640 <g_460>
   16c30:	21 ca                	and    %ecx,%edx
   16c32:	89 10                	mov    %edx,(%rax)
   16c34:	8b 85 88 e4 ff ff    	mov    -0x1b78(%rbp),%eax
   16c3a:	0f b6 c0             	movzbl %al,%eax
   16c3d:	be 03 00 00 00       	mov    $0x3,%esi
   16c42:	89 c7                	mov    %eax,%edi
   16c44:	e8 2f 5f ff ff       	callq  cb78 <safe_sub_func_uint8_t_u_u>
   16c49:	0f b6 c0             	movzbl %al,%eax
   16c4c:	89 85 88 e4 ff ff    	mov    %eax,-0x1b78(%rbp)
   16c52:	83 bd 88 e4 ff ff e9 	cmpl   $0xffffffe9,-0x1b78(%rbp)
   16c59:	0f 8c 9e fa ff ff    	jl     166fd <func_4+0x5bfa>
   16c5f:	48 8b 05 5a 5a 01 00 	mov    0x15a5a(%rip),%rax        # 2c6c0 <g_571>
   16c66:	48 8b 08             	mov    (%rax),%rcx
   16c69:	48 8d 85 30 e6 ff ff 	lea    -0x19d0(%rbp),%rax
   16c70:	48 39 85 e8 e7 ff ff 	cmp    %rax,-0x1818(%rbp)
   16c77:	0f 95 c0             	setne  %al
   16c7a:	0f b6 d0             	movzbl %al,%edx
   16c7d:	48 8b 05 3c 5a 01 00 	mov    0x15a3c(%rip),%rax        # 2c6c0 <g_571>
   16c84:	48 21 ca             	and    %rcx,%rdx
   16c87:	48 89 10             	mov    %rdx,(%rax)
   16c8a:	48 8b 00             	mov    (%rax),%rax
   16c8d:	48 85 c0             	test   %rax,%rax
   16c90:	48 8d 85 00 eb ff ff 	lea    -0x1500(%rbp),%rax
   16c97:	48 83 c0 04          	add    $0x4,%rax
   16c9b:	48 89 85 40 e6 ff ff 	mov    %rax,-0x19c0(%rbp)
   16ca2:	48 c7 85 78 e8 ff ff 	movq   $0x0,-0x1788(%rbp)
   16ca9:	00 00 00 00 
   16cad:	c7 05 d1 1a 01 00 00 	movl   $0x0,0x11ad1(%rip)        # 28788 <g_519>
   16cb4:	00 00 00 
   16cb7:	e9 e8 01 00 00       	jmpq   16ea4 <func_4+0x63a1>
   16cbc:	48 8d 85 d0 f2 ff ff 	lea    -0xd30(%rbp),%rax
   16cc3:	48 8d 15 d6 c0 00 00 	lea    0xc0d6(%rip),%rdx        # 22da0 <g_1963+0x1c8c>
   16cca:	b9 28 00 00 00       	mov    $0x28,%ecx
   16ccf:	48 89 c7             	mov    %rax,%rdi
   16cd2:	48 89 d6             	mov    %rdx,%rsi
   16cd5:	f3 48 a5             	rep movsq %ds:(%rsi),%es:(%rdi)
   16cd8:	48 8d 85 b0 f7 ff ff 	lea    -0x850(%rbp),%rax
   16cdf:	48 8d 15 fa c1 00 00 	lea    0xc1fa(%rip),%rdx        # 22ee0 <g_1963+0x1dcc>
   16ce6:	b9 70 00 00 00       	mov    $0x70,%ecx
   16ceb:	48 89 c7             	mov    %rax,%rdi
   16cee:	48 89 d6             	mov    %rdx,%rsi
   16cf1:	f3 48 a5             	rep movsq %ds:(%rsi),%es:(%rdi)
   16cf4:	48 c7 85 38 e6 ff ff 	movq   $0x0,-0x19c8(%rbp)
   16cfb:	00 00 00 00 
   16cff:	48 8d 85 38 e6 ff ff 	lea    -0x19c8(%rbp),%rax
   16d06:	48 89 85 10 e9 ff ff 	mov    %rax,-0x16f0(%rbp)
   16d0d:	48 8d 85 10 e9 ff ff 	lea    -0x16f0(%rbp),%rax
   16d14:	48 89 85 80 e8 ff ff 	mov    %rax,-0x1780(%rbp)
   16d1b:	48 8b 05 ce 58 01 00 	mov    0x158ce(%rip),%rax        # 2c5f0 <g_259>
   16d22:	48 8b 95 40 e6 ff ff 	mov    -0x19c0(%rbp),%rdx
   16d29:	48 89 10             	mov    %rdx,(%rax)
   16d2c:	8b 85 84 fa ff ff    	mov    -0x57c(%rbp),%eax
   16d32:	0f be d8             	movsbl %al,%ebx
   16d35:	48 8b 85 e0 e3 ff ff 	mov    -0x1c20(%rbp),%rax
   16d3c:	48 c1 e8 3f          	shr    $0x3f,%rax
   16d40:	0f b6 f0             	movzbl %al,%esi
   16d43:	48 8b 85 70 e6 ff ff 	mov    -0x1990(%rbp),%rax
   16d4a:	48 8b 00             	mov    (%rax),%rax
   16d4d:	48 8d 48 01          	lea    0x1(%rax),%rcx
   16d51:	48 8b 95 70 e6 ff ff 	mov    -0x1990(%rbp),%rdx
   16d58:	48 89 0a             	mov    %rcx,(%rdx)
   16d5b:	48 8b 95 18 ea ff ff 	mov    -0x15e8(%rbp),%rdx
   16d62:	48 39 95 78 e8 ff ff 	cmp    %rdx,-0x1788(%rbp)
   16d69:	0f 95 c2             	setne  %dl
   16d6c:	0f b6 d2             	movzbl %dl,%edx
   16d6f:	48 31 d0             	xor    %rdx,%rax
   16d72:	48 39 c6             	cmp    %rax,%rsi
   16d75:	0f 97 c0             	seta   %al
   16d78:	0f b6 c0             	movzbl %al,%eax
   16d7b:	be 01 00 00 00       	mov    $0x1,%esi
   16d80:	89 c7                	mov    %eax,%edi
   16d82:	e8 dc 57 ff ff       	callq  c563 <safe_rshift_func_int16_t_s_u>
   16d87:	0f bf d0             	movswl %ax,%edx
   16d8a:	48 8b 85 48 e8 ff ff 	mov    -0x17b8(%rbp),%rax
   16d91:	8b 00                	mov    (%rax),%eax
   16d93:	21 c2                	and    %eax,%edx
   16d95:	8b 85 f0 f3 ff ff    	mov    -0xc10(%rbp),%eax
   16d9b:	31 d0                	xor    %edx,%eax
   16d9d:	89 85 f0 f3 ff ff    	mov    %eax,-0xc10(%rbp)
   16da3:	66 83 bd ec e3 ff ff 	cmpw   $0x0,-0x1c14(%rbp)
   16daa:	00 
   16dab:	74 13                	je     16dc0 <func_4+0x62bd>
   16dad:	48 8b 85 e0 e3 ff ff 	mov    -0x1c20(%rbp),%rax
   16db4:	48 85 c0             	test   %rax,%rax
   16db7:	74 07                	je     16dc0 <func_4+0x62bd>
   16db9:	ba 01 00 00 00       	mov    $0x1,%edx
   16dbe:	eb 05                	jmp    16dc5 <func_4+0x62c2>
   16dc0:	ba 00 00 00 00       	mov    $0x0,%edx
   16dc5:	0f bf 85 ec e3 ff ff 	movswl -0x1c14(%rbp),%eax
   16dcc:	39 c2                	cmp    %eax,%edx
   16dce:	0f 9f c0             	setg   %al
   16dd1:	0f b6 c0             	movzbl %al,%eax
   16dd4:	89 de                	mov    %ebx,%esi
   16dd6:	89 c7                	mov    %eax,%edi
   16dd8:	e8 54 54 ff ff       	callq  c231 <safe_mod_func_int8_t_s_s>
   16ddd:	48 8b 85 48 e8 ff ff 	mov    -0x17b8(%rbp),%rax
   16de4:	8b 00                	mov    (%rax),%eax
   16de6:	83 f8 01             	cmp    $0x1,%eax
   16de9:	0f 95 c0             	setne  %al
   16dec:	0f b6 c8             	movzbl %al,%ecx
   16def:	48 8b 15 f2 58 01 00 	mov    0x158f2(%rip),%rdx        # 2c6e8 <g_744>
   16df6:	48 8b 05 eb 5f 01 00 	mov    0x15feb(%rip),%rax        # 2cde8 <g_1918>
   16dfd:	48 8b 00             	mov    (%rax),%rax
   16e00:	0f b7 12             	movzwl (%rdx),%edx
   16e03:	66 89 10             	mov    %dx,(%rax)
   16e06:	0f b7 00             	movzwl (%rax),%eax
   16e09:	98                   	cwtl   
   16e0a:	39 c1                	cmp    %eax,%ecx
   16e0c:	48 8b 85 40 e6 ff ff 	mov    -0x19c0(%rbp),%rax
   16e13:	8b 00                	mov    (%rax),%eax
   16e15:	3d 8f 6b 00 00       	cmp    $0x6b8f,%eax
   16e1a:	48 8b 85 80 e8 ff ff 	mov    -0x1780(%rbp),%rax
   16e21:	48 3b 85 f0 e7 ff ff 	cmp    -0x1810(%rbp),%rax
   16e28:	0f 95 c0             	setne  %al
   16e2b:	0f b6 c0             	movzbl %al,%eax
   16e2e:	be 05 00 00 00       	mov    $0x5,%esi
   16e33:	89 c7                	mov    %eax,%edi
   16e35:	e8 32 55 ff ff       	callq  c36c <safe_rshift_func_int8_t_s_u>
   16e3a:	48 8b 15 6f 5f 01 00 	mov    0x15f6f(%rip),%rdx        # 2cdb0 <g_1615>
   16e41:	8b 0a                	mov    (%rdx),%ecx
   16e43:	0f be d0             	movsbl %al,%edx
   16e46:	48 8b 05 63 5f 01 00 	mov    0x15f63(%rip),%rax        # 2cdb0 <g_1615>
   16e4d:	09 ca                	or     %ecx,%edx
   16e4f:	89 10                	mov    %edx,(%rax)
   16e51:	c7 05 ad 65 01 00 f3 	movl   $0xfffffff3,0x165ad(%rip)        # 2d408 <g_17>
   16e58:	ff ff ff 
   16e5b:	90                   	nop
   16e5c:	8b 05 a6 65 01 00    	mov    0x165a6(%rip),%eax        # 2d408 <g_17>
   16e62:	83 f8 1b             	cmp    $0x1b,%eax
   16e65:	7e 1d                	jle    16e84 <func_4+0x6381>
   16e67:	48 8b 05 02 5f 01 00 	mov    0x15f02(%rip),%rax        # 2cd70 <g_1149>
   16e6e:	48 8b 00             	mov    (%rax),%rax
   16e71:	8b 00                	mov    (%rax),%eax
   16e73:	85 c0                	test   %eax,%eax
   16e75:	75 0c                	jne    16e83 <func_4+0x6380>
   16e77:	48 8b 85 e0 e3 ff ff 	mov    -0x1c20(%rbp),%rax
   16e7e:	e9 45 0f 00 00       	jmpq   17dc8 <func_4+0x72c5>
   16e83:	90                   	nop
   16e84:	48 8b 05 15 19 01 00 	mov    0x11915(%rip),%rax        # 287a0 <g_1037>
   16e8b:	48 85 c0             	test   %rax,%rax
   16e8e:	74 05                	je     16e95 <func_4+0x6392>
   16e90:	e9 bb a5 ff ff       	jmpq   11450 <func_4+0x94d>
   16e95:	8b 05 ed 18 01 00    	mov    0x118ed(%rip),%eax        # 28788 <g_519>
   16e9b:	83 c0 01             	add    $0x1,%eax
   16e9e:	89 05 e4 18 01 00    	mov    %eax,0x118e4(%rip)        # 28788 <g_519>
   16ea4:	8b 05 de 18 01 00    	mov    0x118de(%rip),%eax        # 28788 <g_519>
   16eaa:	83 f8 10             	cmp    $0x10,%eax
   16ead:	0f 8f 09 fe ff ff    	jg     16cbc <func_4+0x61b9>
   16eb3:	48 c7 85 fc e8 ff ff 	movq   $0x0,-0x1704(%rbp)
   16eba:	00 00 00 00 
   16ebe:	e9 05 01 00 00       	jmpq   16fc8 <func_4+0x64c5>
   16ec3:	c7 85 40 e4 ff ff 00 	movl   $0x0,-0x1bc0(%rbp)
   16eca:	00 00 00 
   16ecd:	eb 1a                	jmp    16ee9 <func_4+0x63e6>
   16ecf:	8b 85 40 e4 ff ff    	mov    -0x1bc0(%rbp),%eax
   16ed5:	48 98                	cltq   
   16ed7:	c7 84 85 b0 f7 ff ff 	movl   $0x633cdefb,-0x850(%rbp,%rax,4)
   16ede:	fb de 3c 63 
   16ee2:	83 85 40 e4 ff ff 01 	addl   $0x1,-0x1bc0(%rbp)
   16ee9:	83 bd 40 e4 ff ff 02 	cmpl   $0x2,-0x1bc0(%rbp)
   16ef0:	7e dd                	jle    16ecf <func_4+0x63cc>
   16ef2:	66 c7 85 06 e4 ff ff 	movw   $0x0,-0x1bfa(%rbp)
   16ef9:	00 00 
   16efb:	eb 60                	jmp    16f5d <func_4+0x645a>
   16efd:	0f b7 85 06 e4 ff ff 	movzwl -0x1bfa(%rbp),%eax
   16f04:	0f b7 c0             	movzwl %ax,%eax
   16f07:	8d 48 02             	lea    0x2(%rax),%ecx
   16f0a:	0f b7 85 06 e4 ff ff 	movzwl -0x1bfa(%rbp),%eax
   16f11:	0f b7 d0             	movzwl %ax,%edx
   16f14:	0f b7 85 06 e4 ff ff 	movzwl -0x1bfa(%rbp),%eax
   16f1b:	0f b7 c0             	movzwl %ax,%eax
   16f1e:	48 63 f0             	movslq %eax,%rsi
   16f21:	48 63 c1             	movslq %ecx,%rax
   16f24:	48 63 ca             	movslq %edx,%rcx
   16f27:	48 89 c2             	mov    %rax,%rdx
   16f2a:	48 c1 e2 04          	shl    $0x4,%rdx
   16f2e:	48 29 c2             	sub    %rax,%rdx
   16f31:	48 89 c8             	mov    %rcx,%rax
   16f34:	48 c1 e0 02          	shl    $0x2,%rax
   16f38:	48 01 c8             	add    %rcx,%rax
   16f3b:	48 01 d0             	add    %rdx,%rax
   16f3e:	48 01 f0             	add    %rsi,%rax
   16f41:	8b 84 85 30 f5 ff ff 	mov    -0xad0(%rbp,%rax,4),%eax
   16f48:	85 c0                	test   %eax,%eax
   16f4a:	75 20                	jne    16f6c <func_4+0x6469>
   16f4c:	0f b7 85 06 e4 ff ff 	movzwl -0x1bfa(%rbp),%eax
   16f53:	83 c0 01             	add    $0x1,%eax
   16f56:	66 89 85 06 e4 ff ff 	mov    %ax,-0x1bfa(%rbp)
   16f5d:	0f b7 85 06 e4 ff ff 	movzwl -0x1bfa(%rbp),%eax
   16f64:	66 83 f8 02          	cmp    $0x2,%ax
   16f68:	76 93                	jbe    16efd <func_4+0x63fa>
   16f6a:	eb 01                	jmp    16f6d <func_4+0x646a>
   16f6c:	90                   	nop
   16f6d:	8b 85 b8 f7 ff ff    	mov    -0x848(%rbp),%eax
   16f73:	83 c0 01             	add    $0x1,%eax
   16f76:	89 85 b8 f7 ff ff    	mov    %eax,-0x848(%rbp)
   16f7c:	48 8b 85 40 e6 ff ff 	mov    -0x19c0(%rbp),%rax
   16f83:	8b 00                	mov    (%rax),%eax
   16f85:	48 8b 95 e0 e3 ff ff 	mov    -0x1c20(%rbp),%rdx
   16f8c:	21 c2                	and    %eax,%edx
   16f8e:	48 8b 85 40 e6 ff ff 	mov    -0x19c0(%rbp),%rax
   16f95:	89 10                	mov    %edx,(%rax)
   16f97:	48 8b 05 52 56 01 00 	mov    0x15652(%rip),%rax        # 2c5f0 <g_259>
   16f9e:	48 8b 00             	mov    (%rax),%rax
   16fa1:	48 89 85 48 e8 ff ff 	mov    %rax,-0x17b8(%rbp)
   16fa8:	48 8b 85 48 e8 ff ff 	mov    -0x17b8(%rbp),%rax
   16faf:	48 89 85 40 e6 ff ff 	mov    %rax,-0x19c0(%rbp)
   16fb6:	48 8b 85 fc e8 ff ff 	mov    -0x1704(%rbp),%rax
   16fbd:	48 83 c0 01          	add    $0x1,%rax
   16fc1:	48 89 85 fc e8 ff ff 	mov    %rax,-0x1704(%rbp)
   16fc8:	48 8b 85 fc e8 ff ff 	mov    -0x1704(%rbp),%rax
   16fcf:	48 83 f8 25          	cmp    $0x25,%rax
   16fd3:	0f 87 ea fe ff ff    	ja     16ec3 <func_4+0x63c0>
   16fd9:	0f b7 05 24 15 01 00 	movzwl 0x11524(%rip),%eax        # 28504 <g_146+0x24>
   16fe0:	83 c0 01             	add    $0x1,%eax
   16fe3:	66 89 05 1a 15 01 00 	mov    %ax,0x1151a(%rip)        # 28504 <g_146+0x24>
   16fea:	0f b7 05 13 15 01 00 	movzwl 0x11513(%rip),%eax        # 28504 <g_146+0x24>
   16ff1:	66 83 f8 3b          	cmp    $0x3b,%ax
   16ff5:	0f 85 f7 ea ff ff    	jne    15af2 <func_4+0x4fef>
   16ffb:	48 8d 05 9e 57 01 00 	lea    0x1579e(%rip),%rax        # 2c7a0 <g_743+0xa0>
   17002:	48 89 85 f8 e7 ff ff 	mov    %rax,-0x1808(%rbp)
   17009:	c7 05 31 64 01 00 00 	movl   $0x0,0x16431(%rip)        # 2d444 <g_121>
   17010:	00 00 00 
   17013:	e9 77 0d 00 00       	jmpq   17d8f <func_4+0x728c>
   17018:	48 8d 85 00 ec ff ff 	lea    -0x1400(%rbp),%rax
   1701f:	48 8d 15 3a c2 00 00 	lea    0xc23a(%rip),%rdx        # 23260 <g_1963+0x214c>
   17026:	b9 26 00 00 00       	mov    $0x26,%ecx
   1702b:	48 89 c7             	mov    %rax,%rdi
   1702e:	48 89 d6             	mov    %rdx,%rsi
   17031:	f3 48 a5             	rep movsq %ds:(%rsi),%es:(%rdi)
   17034:	c6 85 03 e4 ff ff c0 	movb   $0xc0,-0x1bfd(%rbp)
   1703b:	c7 85 28 e6 ff ff f7 	movl   $0xfffffff7,-0x19d8(%rbp)
   17042:	ff ff ff 
   17045:	48 8d 85 b0 f7 ff ff 	lea    -0x850(%rbp),%rax
   1704c:	48 8d 15 8d 22 01 00 	lea    0x1228d(%rip),%rdx        # 292e0 <g_2631+0x8b8>
   17053:	b9 46 00 00 00       	mov    $0x46,%ecx
   17058:	48 89 c7             	mov    %rax,%rdi
   1705b:	48 89 d6             	mov    %rdx,%rsi
   1705e:	f3 48 a5             	rep movsq %ds:(%rsi),%es:(%rdi)
   17061:	48 c7 85 08 e8 ff ff 	movq   $0x0,-0x17f8(%rbp)
   17068:	00 00 00 00 
   1706c:	48 8d 85 e0 e9 ff ff 	lea    -0x1620(%rbp),%rax
   17073:	48 83 c0 24          	add    $0x24,%rax
   17077:	48 89 85 10 e8 ff ff 	mov    %rax,-0x17f0(%rbp)
   1707e:	48 8d 05 13 17 01 00 	lea    0x11713(%rip),%rax        # 28798 <g_646>
   17085:	48 89 85 48 e6 ff ff 	mov    %rax,-0x19b8(%rbp)
   1708c:	c7 85 c0 e5 ff ff ae 	movl   $0x4da100ae,-0x1a40(%rbp)
   17093:	00 a1 4d 
   17096:	66 c7 85 1e e4 ff ff 	movw   $0x90b7,-0x1be2(%rbp)
   1709d:	b7 90 
   1709f:	48 8d 05 1a 56 01 00 	lea    0x1561a(%rip),%rax        # 2c6c0 <g_571>
   170a6:	48 89 85 30 e6 ff ff 	mov    %rax,-0x19d0(%rbp)
   170ad:	48 8d 85 30 e6 ff ff 	lea    -0x19d0(%rbp),%rax
   170b4:	48 89 85 18 e8 ff ff 	mov    %rax,-0x17e8(%rbp)
   170bb:	48 8d 05 46 17 01 00 	lea    0x11746(%rip),%rax        # 28808 <g_1250>
   170c2:	48 89 85 38 e6 ff ff 	mov    %rax,-0x19c8(%rbp)
   170c9:	48 8d 85 38 e6 ff ff 	lea    -0x19c8(%rbp),%rax
   170d0:	48 89 85 20 e8 ff ff 	mov    %rax,-0x17e0(%rbp)
   170d7:	c7 85 44 e4 ff ff 00 	movl   $0x0,-0x1bbc(%rbp)
   170de:	00 00 00 
   170e1:	eb 1a                	jmp    170fd <func_4+0x65fa>
   170e3:	8b 85 44 e4 ff ff    	mov    -0x1bbc(%rbp),%eax
   170e9:	48 98                	cltq   
   170eb:	c7 84 85 80 e9 ff ff 	movl   $0xfffffffc,-0x1680(%rbp,%rax,4)
   170f2:	fc ff ff ff 
   170f6:	83 85 44 e4 ff ff 01 	addl   $0x1,-0x1bbc(%rbp)
   170fd:	83 bd 44 e4 ff ff 02 	cmpl   $0x2,-0x1bbc(%rbp)
   17104:	7e dd                	jle    170e3 <func_4+0x65e0>
   17106:	48 c7 85 58 e6 ff ff 	movq   $0x6,-0x19a8(%rbp)
   1710d:	06 00 00 00 
   17111:	e9 5c 0c 00 00       	jmpq   17d72 <func_4+0x726f>
   17116:	c7 85 c4 e5 ff ff 7b 	movl   $0x88db6f7b,-0x1a3c(%rbp)
   1711d:	6f db 88 
   17120:	48 8d 85 d0 f2 ff ff 	lea    -0xd30(%rbp),%rax
   17127:	48 8d 15 72 c2 00 00 	lea    0xc272(%rip),%rdx        # 233a0 <g_1963+0x228c>
   1712e:	b9 42 00 00 00       	mov    $0x42,%ecx
   17133:	48 89 c7             	mov    %rax,%rdi
   17136:	48 89 d6             	mov    %rdx,%rsi
   17139:	f3 48 a5             	rep movsq %ds:(%rsi),%es:(%rdi)
   1713c:	48 89 f2             	mov    %rsi,%rdx
   1713f:	48 89 f8             	mov    %rdi,%rax
   17142:	8b 0a                	mov    (%rdx),%ecx
   17144:	89 08                	mov    %ecx,(%rax)
   17146:	48 8d 85 24 e4 ff ff 	lea    -0x1bdc(%rbp),%rax
   1714d:	48 89 85 30 ed ff ff 	mov    %rax,-0x12d0(%rbp)
   17154:	48 8d 85 24 e4 ff ff 	lea    -0x1bdc(%rbp),%rax
   1715b:	48 89 85 38 ed ff ff 	mov    %rax,-0x12c8(%rbp)
   17162:	48 8d 85 00 ec ff ff 	lea    -0x1400(%rbp),%rax
   17169:	48 83 c0 64          	add    $0x64,%rax
   1716d:	48 89 85 40 ed ff ff 	mov    %rax,-0x12c0(%rbp)
   17174:	48 8d 85 24 e4 ff ff 	lea    -0x1bdc(%rbp),%rax
   1717b:	48 89 85 48 ed ff ff 	mov    %rax,-0x12b8(%rbp)
   17182:	48 8d 85 24 e4 ff ff 	lea    -0x1bdc(%rbp),%rax
   17189:	48 89 85 50 ed ff ff 	mov    %rax,-0x12b0(%rbp)
   17190:	48 8d 85 00 ec ff ff 	lea    -0x1400(%rbp),%rax
   17197:	48 83 c0 64          	add    $0x64,%rax
   1719b:	48 89 85 58 ed ff ff 	mov    %rax,-0x12a8(%rbp)
   171a2:	48 8d 85 24 e4 ff ff 	lea    -0x1bdc(%rbp),%rax
   171a9:	48 89 85 60 ed ff ff 	mov    %rax,-0x12a0(%rbp)
   171b0:	48 8d 85 24 e4 ff ff 	lea    -0x1bdc(%rbp),%rax
   171b7:	48 89 85 68 ed ff ff 	mov    %rax,-0x1298(%rbp)
   171be:	48 8d 85 00 ec ff ff 	lea    -0x1400(%rbp),%rax
   171c5:	48 83 c0 64          	add    $0x64,%rax
   171c9:	48 89 85 70 ed ff ff 	mov    %rax,-0x1290(%rbp)
   171d0:	48 8d 85 24 e4 ff ff 	lea    -0x1bdc(%rbp),%rax
   171d7:	48 89 85 78 ed ff ff 	mov    %rax,-0x1288(%rbp)
   171de:	48 8d 85 24 e4 ff ff 	lea    -0x1bdc(%rbp),%rax
   171e5:	48 89 85 80 ed ff ff 	mov    %rax,-0x1280(%rbp)
   171ec:	48 8d 85 00 ec ff ff 	lea    -0x1400(%rbp),%rax
   171f3:	48 83 c0 64          	add    $0x64,%rax
   171f7:	48 89 85 88 ed ff ff 	mov    %rax,-0x1278(%rbp)
   171fe:	48 8d 85 24 e4 ff ff 	lea    -0x1bdc(%rbp),%rax
   17205:	48 89 85 90 ed ff ff 	mov    %rax,-0x1270(%rbp)
   1720c:	48 8d 85 24 e4 ff ff 	lea    -0x1bdc(%rbp),%rax
   17213:	48 89 85 98 ed ff ff 	mov    %rax,-0x1268(%rbp)
   1721a:	48 8d 85 00 ec ff ff 	lea    -0x1400(%rbp),%rax
   17221:	48 83 c0 64          	add    $0x64,%rax
   17225:	48 89 85 a0 ed ff ff 	mov    %rax,-0x1260(%rbp)
   1722c:	48 8d 85 24 e4 ff ff 	lea    -0x1bdc(%rbp),%rax
   17233:	48 89 85 a8 ed ff ff 	mov    %rax,-0x1258(%rbp)
   1723a:	48 8d 85 24 e4 ff ff 	lea    -0x1bdc(%rbp),%rax
   17241:	48 89 85 b0 ed ff ff 	mov    %rax,-0x1250(%rbp)
   17248:	48 8d 85 00 ec ff ff 	lea    -0x1400(%rbp),%rax
   1724f:	48 83 c0 64          	add    $0x64,%rax
   17253:	48 89 85 b8 ed ff ff 	mov    %rax,-0x1248(%rbp)
   1725a:	48 8d 85 24 e4 ff ff 	lea    -0x1bdc(%rbp),%rax
   17261:	48 89 85 c0 ed ff ff 	mov    %rax,-0x1240(%rbp)
   17268:	48 8d 85 24 e4 ff ff 	lea    -0x1bdc(%rbp),%rax
   1726f:	48 89 85 c8 ed ff ff 	mov    %rax,-0x1238(%rbp)
   17276:	48 8d 85 00 ec ff ff 	lea    -0x1400(%rbp),%rax
   1727d:	48 83 c0 64          	add    $0x64,%rax
   17281:	48 89 85 d0 ed ff ff 	mov    %rax,-0x1230(%rbp)
   17288:	48 8d 85 24 e4 ff ff 	lea    -0x1bdc(%rbp),%rax
   1728f:	48 89 85 d8 ed ff ff 	mov    %rax,-0x1228(%rbp)
   17296:	48 8d 85 24 e4 ff ff 	lea    -0x1bdc(%rbp),%rax
   1729d:	48 89 85 e0 ed ff ff 	mov    %rax,-0x1220(%rbp)
   172a4:	48 8d 85 00 ec ff ff 	lea    -0x1400(%rbp),%rax
   172ab:	48 83 c0 64          	add    $0x64,%rax
   172af:	48 89 85 e8 ed ff ff 	mov    %rax,-0x1218(%rbp)
   172b6:	48 8d 85 24 e4 ff ff 	lea    -0x1bdc(%rbp),%rax
   172bd:	48 89 85 f0 ed ff ff 	mov    %rax,-0x1210(%rbp)
   172c4:	48 8d 85 24 e4 ff ff 	lea    -0x1bdc(%rbp),%rax
   172cb:	48 89 85 f8 ed ff ff 	mov    %rax,-0x1208(%rbp)
   172d2:	48 8d 85 00 ec ff ff 	lea    -0x1400(%rbp),%rax
   172d9:	48 83 c0 64          	add    $0x64,%rax
   172dd:	48 89 85 00 ee ff ff 	mov    %rax,-0x1200(%rbp)
   172e4:	48 8d 85 24 e4 ff ff 	lea    -0x1bdc(%rbp),%rax
   172eb:	48 89 85 08 ee ff ff 	mov    %rax,-0x11f8(%rbp)
   172f2:	48 8d 85 24 e4 ff ff 	lea    -0x1bdc(%rbp),%rax
   172f9:	48 89 85 10 ee ff ff 	mov    %rax,-0x11f0(%rbp)
   17300:	48 8d 85 00 ec ff ff 	lea    -0x1400(%rbp),%rax
   17307:	48 83 c0 64          	add    $0x64,%rax
   1730b:	48 89 85 18 ee ff ff 	mov    %rax,-0x11e8(%rbp)
   17312:	48 8d 85 24 e4 ff ff 	lea    -0x1bdc(%rbp),%rax
   17319:	48 89 85 20 ee ff ff 	mov    %rax,-0x11e0(%rbp)
   17320:	48 8d 85 24 e4 ff ff 	lea    -0x1bdc(%rbp),%rax
   17327:	48 89 85 28 ee ff ff 	mov    %rax,-0x11d8(%rbp)
   1732e:	48 8d 85 00 ec ff ff 	lea    -0x1400(%rbp),%rax
   17335:	48 83 c0 64          	add    $0x64,%rax
   17339:	48 89 85 30 ee ff ff 	mov    %rax,-0x11d0(%rbp)
   17340:	48 8d 85 24 e4 ff ff 	lea    -0x1bdc(%rbp),%rax
   17347:	48 89 85 38 ee ff ff 	mov    %rax,-0x11c8(%rbp)
   1734e:	48 8d 85 24 e4 ff ff 	lea    -0x1bdc(%rbp),%rax
   17355:	48 89 85 40 ee ff ff 	mov    %rax,-0x11c0(%rbp)
   1735c:	48 8d 85 00 ec ff ff 	lea    -0x1400(%rbp),%rax
   17363:	48 83 c0 64          	add    $0x64,%rax
   17367:	48 89 85 48 ee ff ff 	mov    %rax,-0x11b8(%rbp)
   1736e:	48 8d 85 24 e4 ff ff 	lea    -0x1bdc(%rbp),%rax
   17375:	48 89 85 50 ee ff ff 	mov    %rax,-0x11b0(%rbp)
   1737c:	48 8d 85 24 e4 ff ff 	lea    -0x1bdc(%rbp),%rax
   17383:	48 89 85 58 ee ff ff 	mov    %rax,-0x11a8(%rbp)
   1738a:	48 8d 85 00 ec ff ff 	lea    -0x1400(%rbp),%rax
   17391:	48 83 c0 64          	add    $0x64,%rax
   17395:	48 89 85 60 ee ff ff 	mov    %rax,-0x11a0(%rbp)
   1739c:	48 8d 85 24 e4 ff ff 	lea    -0x1bdc(%rbp),%rax
   173a3:	48 89 85 68 ee ff ff 	mov    %rax,-0x1198(%rbp)
   173aa:	48 8d 85 24 e4 ff ff 	lea    -0x1bdc(%rbp),%rax
   173b1:	48 89 85 70 ee ff ff 	mov    %rax,-0x1190(%rbp)
   173b8:	48 8d 85 00 ec ff ff 	lea    -0x1400(%rbp),%rax
   173bf:	48 83 c0 64          	add    $0x64,%rax
   173c3:	48 89 85 78 ee ff ff 	mov    %rax,-0x1188(%rbp)
   173ca:	48 8d 85 24 e4 ff ff 	lea    -0x1bdc(%rbp),%rax
   173d1:	48 89 85 80 ee ff ff 	mov    %rax,-0x1180(%rbp)
   173d8:	48 8d 85 24 e4 ff ff 	lea    -0x1bdc(%rbp),%rax
   173df:	48 89 85 88 ee ff ff 	mov    %rax,-0x1178(%rbp)
   173e6:	48 8d 85 00 ec ff ff 	lea    -0x1400(%rbp),%rax
   173ed:	48 83 c0 64          	add    $0x64,%rax
   173f1:	48 89 85 90 ee ff ff 	mov    %rax,-0x1170(%rbp)
   173f8:	48 8d 85 24 e4 ff ff 	lea    -0x1bdc(%rbp),%rax
   173ff:	48 89 85 98 ee ff ff 	mov    %rax,-0x1168(%rbp)
   17406:	48 8d 85 24 e4 ff ff 	lea    -0x1bdc(%rbp),%rax
   1740d:	48 89 85 a0 ee ff ff 	mov    %rax,-0x1160(%rbp)
   17414:	48 8d 85 00 ec ff ff 	lea    -0x1400(%rbp),%rax
   1741b:	48 83 c0 64          	add    $0x64,%rax
   1741f:	48 89 85 a8 ee ff ff 	mov    %rax,-0x1158(%rbp)
   17426:	c7 85 b0 e9 ff ff a7 	movl   $0xd37b9ba7,-0x1650(%rbp)
   1742d:	9b 7b d3 
   17430:	c7 85 b4 e9 ff ff a7 	movl   $0xd37b9ba7,-0x164c(%rbp)
   17437:	9b 7b d3 
   1743a:	c7 85 b8 e9 ff ff a7 	movl   $0xd37b9ba7,-0x1648(%rbp)
   17441:	9b 7b d3 
   17444:	c7 85 bc e9 ff ff a7 	movl   $0xd37b9ba7,-0x1644(%rbp)
   1744b:	9b 7b d3 
   1744e:	c7 85 c0 e9 ff ff a7 	movl   $0xd37b9ba7,-0x1640(%rbp)
   17455:	9b 7b d3 
   17458:	8b 05 e6 5f 01 00    	mov    0x15fe6(%rip),%eax        # 2d444 <g_121>
   1745e:	89 c2                	mov    %eax,%edx
   17460:	48 8b 85 58 e6 ff ff 	mov    -0x19a8(%rbp),%rax
   17467:	48 c1 e0 02          	shl    $0x2,%rax
   1746b:	48 01 d0             	add    %rdx,%rax
   1746e:	44 8b a4 85 00 eb ff 	mov    -0x1500(%rbp,%rax,4),%r12d
   17475:	ff 
   17476:	48 8b 85 58 e6 ff ff 	mov    -0x19a8(%rbp),%rax
   1747d:	48 83 c0 01          	add    $0x1,%rax
   17481:	8b 15 bd 5f 01 00    	mov    0x15fbd(%rip),%edx        # 2d444 <g_121>
   17487:	89 d2                	mov    %edx,%edx
   17489:	48 c1 e0 02          	shl    $0x2,%rax
   1748d:	48 01 d0             	add    %rdx,%rax
   17490:	44 8b ac 85 00 eb ff 	mov    -0x1500(%rbp,%rax,4),%r13d
   17497:	ff 
   17498:	48 8b 85 5c ec ff ff 	mov    -0x13a4(%rbp),%rax
   1749f:	0f b7 d8             	movzwl %ax,%ebx
   174a2:	8b 85 64 ec ff ff    	mov    -0x139c(%rbp),%eax
   174a8:	85 c0                	test   %eax,%eax
   174aa:	75 0c                	jne    174b8 <func_4+0x69b5>
   174ac:	48 8b 85 e0 e3 ff ff 	mov    -0x1c20(%rbp),%rax
   174b3:	48 85 c0             	test   %rax,%rax
   174b6:	74 07                	je     174bf <func_4+0x69bc>
   174b8:	b8 01 00 00 00       	mov    $0x1,%eax
   174bd:	eb 05                	jmp    174c4 <func_4+0x69c1>
   174bf:	b8 00 00 00 00       	mov    $0x0,%eax
   174c4:	0f b6 c0             	movzbl %al,%eax
   174c7:	be ff 00 00 00       	mov    $0xff,%esi
   174cc:	89 c7                	mov    %eax,%edi
   174ce:	e8 c0 56 ff ff       	callq  cb93 <safe_mul_func_uint8_t_u_u>
   174d3:	48 0f bf 95 ec e3 ff 	movswq -0x1c14(%rbp),%rdx
   174da:	ff 
   174db:	48 8b 05 e6 51 01 00 	mov    0x151e6(%rip),%rax        # 2c6c8 <g_570>
   174e2:	48 8b 00             	mov    (%rax),%rax
   174e5:	48 8b 30             	mov    (%rax),%rsi
   174e8:	8b 05 56 5f 01 00    	mov    0x15f56(%rip),%eax        # 2d444 <g_121>
   174ee:	83 c0 03             	add    $0x3,%eax
   174f1:	89 c0                	mov    %eax,%eax
   174f3:	48 8d 0c 00          	lea    (%rax,%rax,1),%rcx
   174f7:	48 8d 05 a2 14 01 00 	lea    0x114a2(%rip),%rax        # 289a0 <g_1687>
   174fe:	0f b7 04 01          	movzwl (%rcx,%rax,1),%eax
   17502:	0f b7 c8             	movzwl %ax,%ecx
   17505:	48 8b 05 bc 51 01 00 	mov    0x151bc(%rip),%rax        # 2c6c8 <g_570>
   1750c:	48 8b 00             	mov    (%rax),%rax
   1750f:	48 09 f1             	or     %rsi,%rcx
   17512:	48 89 08             	mov    %rcx,(%rax)
   17515:	48 8b 00             	mov    (%rax),%rax
   17518:	48 85 c0             	test   %rax,%rax
   1751b:	75 37                	jne    17554 <func_4+0x6a51>
   1751d:	48 8b 05 5c 58 01 00 	mov    0x1585c(%rip),%rax        # 2cd80 <g_1221>
   17524:	8b 00                	mov    (%rax),%eax
   17526:	83 f8 f8             	cmp    $0xfffffff8,%eax
   17529:	0f 96 c0             	setbe  %al
   1752c:	0f b6 c0             	movzbl %al,%eax
   1752f:	48 0f be 8d f6 e3 ff 	movsbq -0x1c0a(%rbp),%rcx
   17536:	ff 
   17537:	be 2d de 05 98       	mov    $0x9805de2d,%esi
   1753c:	48 09 f1             	or     %rsi,%rcx
   1753f:	48 21 c1             	and    %rax,%rcx
   17542:	48 8b 05 5f 58 01 00 	mov    0x1585f(%rip),%rax        # 2cda8 <g_1478>
   17549:	0f b7 00             	movzwl (%rax),%eax
   1754c:	0f b7 c0             	movzwl %ax,%eax
   1754f:	48 39 c1             	cmp    %rax,%rcx
   17552:	7f 07                	jg     1755b <func_4+0x6a58>
   17554:	b8 01 00 00 00       	mov    $0x1,%eax
   17559:	eb 05                	jmp    17560 <func_4+0x6a5d>
   1755b:	b8 00 00 00 00       	mov    $0x0,%eax
   17560:	48 98                	cltq   
   17562:	48 89 d6             	mov    %rdx,%rsi
   17565:	48 89 c7             	mov    %rax,%rdi
   17568:	e8 47 54 ff ff       	callq  c9b4 <safe_mod_func_int64_t_s_s>
   1756d:	0f b7 c0             	movzwl %ax,%eax
   17570:	89 de                	mov    %ebx,%esi
   17572:	89 c7                	mov    %eax,%edi
   17574:	e8 c4 57 ff ff       	callq  cd3d <safe_mul_func_uint16_t_u_u>
   17579:	48 c7 05 34 14 01 00 	movq   $0x0,0x11434(%rip)        # 289b8 <g_1754>
   17580:	00 00 00 00 
   17584:	48 8b 05 2d 14 01 00 	mov    0x1142d(%rip),%rax        # 289b8 <g_1754>
   1758b:	88 85 03 e4 ff ff    	mov    %al,-0x1bfd(%rbp)
   17591:	0f b6 85 03 e4 ff ff 	movzbl -0x1bfd(%rbp),%eax
   17598:	41 39 c5             	cmp    %eax,%r13d
   1759b:	0f 95 c0             	setne  %al
   1759e:	0f b6 c0             	movzbl %al,%eax
   175a1:	41 39 c4             	cmp    %eax,%r12d
   175a4:	0f 95 c0             	setne  %al
   175a7:	0f b6 d0             	movzbl %al,%edx
   175aa:	48 8b 05 6f 52 01 00 	mov    0x1526f(%rip),%rax        # 2c820 <g_742>
   175b1:	48 8b 00             	mov    (%rax),%rax
   175b4:	48 8b 00             	mov    (%rax),%rax
   175b7:	0f b7 00             	movzwl (%rax),%eax
   175ba:	98                   	cwtl   
   175bb:	39 c2                	cmp    %eax,%edx
   175bd:	0f 9e c0             	setle  %al
   175c0:	0f b6 d0             	movzbl %al,%edx
   175c3:	8b 05 cf 11 01 00    	mov    0x111cf(%rip),%eax        # 28798 <g_646>
   175c9:	39 c2                	cmp    %eax,%edx
   175cb:	7d 12                	jge    175df <func_4+0x6adc>
   175cd:	83 bd c4 e5 ff ff 00 	cmpl   $0x0,-0x1a3c(%rbp)
   175d4:	0f 84 26 01 00 00    	je     17700 <func_4+0x6bfd>
   175da:	e9 a1 07 00 00       	jmpq   17d80 <func_4+0x727d>
   175df:	48 c7 85 28 e8 ff ff 	movq   $0x0,-0x17d8(%rbp)
   175e6:	00 00 00 00 
   175ea:	c7 85 c8 e5 ff ff f6 	movl   $0xfffffff6,-0x1a38(%rbp)
   175f1:	ff ff ff 
   175f4:	48 8b 05 5d 56 01 00 	mov    0x1565d(%rip),%rax        # 2cc58 <g_880>
   175fb:	8b 00                	mov    (%rax),%eax
   175fd:	0f b7 85 ec e3 ff ff 	movzwl -0x1c14(%rbp),%eax
   17604:	0f be d0             	movsbl %al,%edx
   17607:	0f b7 85 ec e3 ff ff 	movzwl -0x1c14(%rbp),%eax
   1760e:	0f be c0             	movsbl %al,%eax
   17611:	89 d6                	mov    %edx,%esi
   17613:	89 c7                	mov    %eax,%edi
   17615:	e8 f8 4b ff ff       	callq  c212 <safe_mul_func_int8_t_s_s>
   1761a:	0f be c0             	movsbl %al,%eax
   1761d:	be 00 00 00 00       	mov    $0x0,%esi
   17622:	89 c7                	mov    %eax,%edi
   17624:	e8 69 4e ff ff       	callq  c492 <safe_lshift_func_int16_t_s_s>
   17629:	48 0f bf d8          	movswq %ax,%rbx
   1762d:	48 8b 05 4c 57 01 00 	mov    0x1574c(%rip),%rax        # 2cd80 <g_1221>
   17634:	8b 00                	mov    (%rax),%eax
   17636:	41 89 c4             	mov    %eax,%r12d
   17639:	48 8b 85 e0 e3 ff ff 	mov    -0x1c20(%rbp),%rax
   17640:	48 89 c2             	mov    %rax,%rdx
   17643:	48 8b 85 28 e8 ff ff 	mov    -0x17d8(%rbp),%rax
   1764a:	48 3b 85 78 e6 ff ff 	cmp    -0x1988(%rbp),%rax
   17651:	0f 95 c0             	setne  %al
   17654:	0f b6 c0             	movzbl %al,%eax
   17657:	48 89 d6             	mov    %rdx,%rsi
   1765a:	48 89 c7             	mov    %rax,%rdi
   1765d:	e8 1e 5a ff ff       	callq  d080 <safe_mod_func_uint64_t_u_u>
   17662:	4c 31 e0             	xor    %r12,%rax
   17665:	48 09 c3             	or     %rax,%rbx
   17668:	48 89 da             	mov    %rbx,%rdx
   1766b:	48 8b 85 e0 e3 ff ff 	mov    -0x1c20(%rbp),%rax
   17672:	48 39 c2             	cmp    %rax,%rdx
   17675:	0f 97 c0             	seta   %al
   17678:	0f b6 d0             	movzbl %al,%edx
   1767b:	0f b7 85 ec e3 ff ff 	movzwl -0x1c14(%rbp),%eax
   17682:	0f be c0             	movsbl %al,%eax
   17685:	89 d6                	mov    %edx,%esi
   17687:	89 c7                	mov    %eax,%edi
   17689:	e8 84 4b ff ff       	callq  c212 <safe_mul_func_int8_t_s_s>
   1768e:	48 83 bd 00 e8 ff ff 	cmpq   $0x0,-0x1800(%rbp)
   17695:	00 
   17696:	0f 95 c0             	setne  %al
   17699:	0f b6 d0             	movzbl %al,%edx
   1769c:	8b 05 a2 5d 01 00    	mov    0x15da2(%rip),%eax        # 2d444 <g_121>
   176a2:	8d 70 01             	lea    0x1(%rax),%esi
   176a5:	8b 05 99 5d 01 00    	mov    0x15d99(%rip),%eax        # 2d444 <g_121>
   176ab:	89 c1                	mov    %eax,%ecx
   176ad:	89 f0                	mov    %esi,%eax
   176af:	48 c1 e0 02          	shl    $0x2,%rax
   176b3:	48 01 c8             	add    %rcx,%rax
   176b6:	8b 84 85 00 eb ff ff 	mov    -0x1500(%rbp,%rax,4),%eax
   176bd:	8b 0d 81 5d 01 00    	mov    0x15d81(%rip),%ecx        # 2d444 <g_121>
   176c3:	8d 79 01             	lea    0x1(%rcx),%edi
   176c6:	8b 0d 78 5d 01 00    	mov    0x15d78(%rip),%ecx        # 2d444 <g_121>
   176cc:	09 c2                	or     %eax,%edx
   176ce:	89 ce                	mov    %ecx,%esi
   176d0:	89 f8                	mov    %edi,%eax
   176d2:	48 c1 e0 02          	shl    $0x2,%rax
   176d6:	48 01 f0             	add    %rsi,%rax
   176d9:	89 94 85 00 eb ff ff 	mov    %edx,-0x1500(%rbp,%rax,4)
   176e0:	89 ca                	mov    %ecx,%edx
   176e2:	89 f8                	mov    %edi,%eax
   176e4:	48 c1 e0 02          	shl    $0x2,%rax
   176e8:	48 01 d0             	add    %rdx,%rax
   176eb:	8b 94 85 00 eb ff ff 	mov    -0x1500(%rbp,%rax,4),%edx
   176f2:	8b 05 a0 10 01 00    	mov    0x110a0(%rip),%eax        # 28798 <g_646>
   176f8:	31 d0                	xor    %edx,%eax
   176fa:	89 05 98 10 01 00    	mov    %eax,0x11098(%rip)        # 28798 <g_646>
   17700:	c7 85 88 e4 ff ff 00 	movl   $0x0,-0x1b78(%rbp)
   17707:	00 00 00 
   1770a:	e9 b7 01 00 00       	jmpq   178c6 <func_4+0x6dc3>
   1770f:	48 c7 85 10 e9 ff ff 	movq   $0xfffffffffffffffa,-0x16f0(%rbp)
   17716:	fa ff ff ff 
   1771a:	48 c7 85 18 e9 ff ff 	movq   $0x4,-0x16e8(%rbp)
   17721:	04 00 00 00 
   17725:	48 b8 45 99 4a 60 92 	movabs $0x39dbb292604a9945,%rax
   1772c:	b2 db 39 
   1772f:	48 89 85 20 e9 ff ff 	mov    %rax,-0x16e0(%rbp)
   17736:	c7 85 28 e9 ff ff eb 	movl   $0x7b4139eb,-0x16d8(%rbp)
   1773d:	39 41 7b 
   17740:	48 c7 85 2c e9 ff ff 	movq   $0x4,-0x16d4(%rbp)
   17747:	04 00 00 00 
   1774b:	66 c7 85 34 e9 ff ff 	movw   $0x4,-0x16cc(%rbp)
   17752:	04 00 
   17754:	48 8d 05 ae 0d 01 00 	lea    0x10dae(%rip),%rax        # 28509 <g_289>
   1775b:	48 89 85 40 e8 ff ff 	mov    %rax,-0x17c0(%rbp)
   17762:	48 8b 15 5f 56 01 00 	mov    0x1565f(%rip),%rdx        # 2cdc8 <g_1731>
   17769:	48 8b 05 58 56 01 00 	mov    0x15658(%rip),%rax        # 2cdc8 <g_1731>
   17770:	0f b6 12             	movzbl (%rdx),%edx
   17773:	88 10                	mov    %dl,(%rax)
   17775:	0f b6 00             	movzbl (%rax),%eax
   17778:	0f b6 c0             	movzbl %al,%eax
   1777b:	be 02 00 00 00       	mov    $0x2,%esi
   17780:	89 c7                	mov    %eax,%edi
   17782:	e8 37 55 ff ff       	callq  ccbe <safe_rshift_func_uint8_t_u_u>
   17787:	48 8b 85 f8 e5 ff ff 	mov    -0x1a08(%rbp),%rax
   1778e:	8b 10                	mov    (%rax),%edx
   17790:	8b 85 28 e6 ff ff    	mov    -0x19d8(%rbp),%eax
   17796:	31 d0                	xor    %edx,%eax
   17798:	89 85 28 e6 ff ff    	mov    %eax,-0x19d8(%rbp)
   1779e:	8b 95 28 e6 ff ff    	mov    -0x19d8(%rbp),%edx
   177a4:	48 8b 05 3d 4f 01 00 	mov    0x14f3d(%rip),%rax        # 2c6e8 <g_744>
   177ab:	0f b7 00             	movzwl (%rax),%eax
   177ae:	98                   	cwtl   
   177af:	31 d0                	xor    %edx,%eax
   177b1:	89 c2                	mov    %eax,%edx
   177b3:	48 8b 05 2e 0d 01 00 	mov    0x10d2e(%rip),%rax        # 284e8 <g_146+0x8>
   177ba:	89 d6                	mov    %edx,%esi
   177bc:	89 c7                	mov    %eax,%edi
   177be:	e8 0d 57 ff ff       	callq  ced0 <safe_sub_func_uint32_t_u_u>
   177c3:	48 8b 85 e0 e3 ff ff 	mov    -0x1c20(%rbp),%rax
   177ca:	49 89 c5             	mov    %rax,%r13
   177cd:	48 8b 05 f4 55 01 00 	mov    0x155f4(%rip),%rax        # 2cdc8 <g_1731>
   177d4:	0f b6 00             	movzbl (%rax),%eax
   177d7:	0f b6 d8             	movzbl %al,%ebx
   177da:	44 0f bf a5 ec e3 ff 	movswl -0x1c14(%rbp),%r12d
   177e1:	ff 
   177e2:	48 8b 85 e8 f7 ff ff 	mov    -0x818(%rbp),%rax
   177e9:	48 85 c0             	test   %rax,%rax
   177ec:	0f 95 c0             	setne  %al
   177ef:	0f b6 c0             	movzbl %al,%eax
   177f2:	be 3f 00 00 00       	mov    $0x3f,%esi
   177f7:	89 c7                	mov    %eax,%edi
   177f9:	e8 d6 49 ff ff       	callq  c1d4 <safe_add_func_int8_t_s_s>
   177fe:	89 c2                	mov    %eax,%edx
   17800:	48 8b 05 31 4e 01 00 	mov    0x14e31(%rip),%rax        # 2c638 <g_416>
   17807:	48 8b 00             	mov    (%rax),%rax
   1780a:	66 0f be d2          	movsbw %dl,%dx
   1780e:	66 89 10             	mov    %dx,(%rax)
   17811:	44 89 e6             	mov    %r12d,%esi
   17814:	bf 00 00 00 00       	mov    $0x0,%edi
   17819:	e8 ae 4e ff ff       	callq  c6cc <safe_mod_func_int32_t_s_s>
   1781e:	89 c2                	mov    %eax,%edx
   17820:	48 8b 05 99 4e 01 00 	mov    0x14e99(%rip),%rax        # 2c6c0 <g_571>
   17827:	48 8b 00             	mov    (%rax),%rax
   1782a:	21 d0                	and    %edx,%eax
   1782c:	0f b6 c0             	movzbl %al,%eax
   1782f:	89 de                	mov    %ebx,%esi
   17831:	89 c7                	mov    %eax,%edi
   17833:	e8 14 54 ff ff       	callq  cc4c <safe_lshift_func_uint8_t_u_u>
   17838:	0f b6 c0             	movzbl %al,%eax
   1783b:	4c 89 ee             	mov    %r13,%rsi
   1783e:	48 89 c7             	mov    %rax,%rdi
   17841:	e8 69 58 ff ff       	callq  d0af <safe_div_func_uint64_t_u_u>
   17846:	48 85 c0             	test   %rax,%rax
   17849:	75 08                	jne    17853 <func_4+0x6d50>
   1784b:	66 83 bd ec e3 ff ff 	cmpw   $0x0,-0x1c14(%rbp)
   17852:	00 
   17853:	be a2 cd 43 20       	mov    $0x2043cda2,%esi
   17858:	bf 00 00 00 00       	mov    $0x0,%edi
   1785d:	e8 6a 4e ff ff       	callq  c6cc <safe_mod_func_int32_t_s_s>
   17862:	48 8b 15 3f 55 01 00 	mov    0x1553f(%rip),%rdx        # 2cda8 <g_1478>
   17869:	0f b7 12             	movzwl (%rdx),%edx
   1786c:	0f b7 d2             	movzwl %dx,%edx
   1786f:	39 d0                	cmp    %edx,%eax
   17871:	48 8b 05 40 55 01 00 	mov    0x15540(%rip),%rax        # 2cdb8 <g_1616>
   17878:	48 8b 00             	mov    (%rax),%rax
   1787b:	48 8d 15 16 0f 01 00 	lea    0x10f16(%rip),%rdx        # 28798 <g_646>
   17882:	48 39 d0             	cmp    %rdx,%rax
   17885:	0f 95 c0             	setne  %al
   17888:	0f b6 d0             	movzbl %al,%edx
   1788b:	8b 85 84 e9 ff ff    	mov    -0x167c(%rbp),%eax
   17891:	21 d0                	and    %edx,%eax
   17893:	89 85 84 e9 ff ff    	mov    %eax,-0x167c(%rbp)
   17899:	48 8d 85 28 e6 ff ff 	lea    -0x19d8(%rbp),%rax
   178a0:	48 89 85 48 e6 ff ff 	mov    %rax,-0x19b8(%rbp)
   178a7:	48 8b 05 02 55 01 00 	mov    0x15502(%rip),%rax        # 2cdb0 <g_1615>
   178ae:	8b 10                	mov    (%rax),%edx
   178b0:	48 8b 05 f9 54 01 00 	mov    0x154f9(%rip),%rax        # 2cdb0 <g_1615>
   178b7:	81 e2 ca a6 2b 7e    	and    $0x7e2ba6ca,%edx
   178bd:	89 10                	mov    %edx,(%rax)
   178bf:	83 ad 88 e4 ff ff 01 	subl   $0x1,-0x1b78(%rbp)
   178c6:	83 bd 88 e4 ff ff ed 	cmpl   $0xffffffed,-0x1b78(%rbp)
   178cd:	0f 85 3c fe ff ff    	jne    1770f <func_4+0x6c0c>
   178d3:	48 8b 85 70 e6 ff ff 	mov    -0x1990(%rbp),%rax
   178da:	48 8b 00             	mov    (%rax),%rax
   178dd:	48 8d 50 01          	lea    0x1(%rax),%rdx
   178e1:	48 8b 85 70 e6 ff ff 	mov    -0x1990(%rbp),%rax
   178e8:	48 89 10             	mov    %rdx,(%rax)
   178eb:	48 8b 05 d6 4d 01 00 	mov    0x14dd6(%rip),%rax        # 2c6c8 <g_570>
   178f2:	48 8b 00             	mov    (%rax),%rax
   178f5:	48 8b 18             	mov    (%rax),%rbx
   178f8:	48 8b 05 e9 54 01 00 	mov    0x154e9(%rip),%rax        # 2cde8 <g_1918>
   178ff:	48 8b 00             	mov    (%rax),%rax
   17902:	0f b7 00             	movzwl (%rax),%eax
   17905:	44 0f bf e0          	movswl %ax,%r12d
   17909:	44 0f bf b5 ec e3 ff 	movswl -0x1c14(%rbp),%r14d
   17910:	ff 
   17911:	48 8b 95 5c ec ff ff 	mov    -0x13a4(%rbp),%rdx
   17918:	48 0f bf 85 ec e3 ff 	movswq -0x1c14(%rbp),%rax
   1791f:	ff 
   17920:	48 39 c2             	cmp    %rax,%rdx
   17923:	0f 9e 85 d8 e3 ff ff 	setle  -0x1c28(%rbp)
   1792a:	44 0f bf bd ec e3 ff 	movswl -0x1c14(%rbp),%r15d
   17931:	ff 
   17932:	8b 85 d6 f4 ff ff    	mov    -0xb2a(%rbp),%eax
   17938:	44 0f bf e8          	movswl %ax,%r13d
   1793c:	0f b7 85 ec e3 ff ff 	movzwl -0x1c14(%rbp),%eax
   17943:	0f b6 d0             	movzbl %al,%edx
   17946:	48 8b 05 3b 02 01 00 	mov    0x1023b(%rip),%rax        # 27b88 <l_2296.4467+0x8>
   1794d:	48 85 c0             	test   %rax,%rax
   17950:	0f 95 c0             	setne  %al
   17953:	0f b6 c0             	movzbl %al,%eax
   17956:	89 d6                	mov    %edx,%esi
   17958:	89 c7                	mov    %eax,%edi
   1795a:	e8 7c 52 ff ff       	callq  cbdb <safe_div_func_uint8_t_u_u>
   1795f:	0f b6 c0             	movzbl %al,%eax
   17962:	44 89 ee             	mov    %r13d,%esi
   17965:	89 c7                	mov    %eax,%edi
   17967:	e8 e9 4a ff ff       	callq  c455 <safe_div_func_int16_t_s_s>
   1796c:	48 8b 85 50 e6 ff ff 	mov    -0x19b0(%rbp),%rax
   17973:	8b 00                	mov    (%rax),%eax
   17975:	85 c0                	test   %eax,%eax
   17977:	75 0b                	jne    17984 <func_4+0x6e81>
   17979:	48 8b 85 f8 e5 ff ff 	mov    -0x1a08(%rbp),%rax
   17980:	8b 00                	mov    (%rax),%eax
   17982:	85 c0                	test   %eax,%eax
   17984:	48 8b 85 f8 e5 ff ff 	mov    -0x1a08(%rbp),%rax
   1798b:	c7 00 00 00 00 00    	movl   $0x0,(%rax)
   17991:	8b 10                	mov    (%rax),%edx
   17993:	0f bf 85 ec e3 ff ff 	movswl -0x1c14(%rbp),%eax
   1799a:	39 c2                	cmp    %eax,%edx
   1799c:	0f 9c c0             	setl   %al
   1799f:	0f b6 d0             	movzbl %al,%edx
   179a2:	0f b6 05 d7 06 01 00 	movzbl 0x106d7(%rip),%eax        # 28080 <g_38>
   179a9:	0f be c0             	movsbl %al,%eax
   179ac:	31 d0                	xor    %edx,%eax
   179ae:	33 85 c0 e5 ff ff    	xor    -0x1a40(%rbp),%eax
   179b4:	44 09 f8             	or     %r15d,%eax
   179b7:	85 c0                	test   %eax,%eax
   179b9:	74 07                	je     179c2 <func_4+0x6ebf>
   179bb:	b8 01 00 00 00       	mov    $0x1,%eax
   179c0:	eb 05                	jmp    179c7 <func_4+0x6ec4>
   179c2:	b8 00 00 00 00       	mov    $0x0,%eax
   179c7:	83 e0 01             	and    $0x1,%eax
   179ca:	32 85 d8 e3 ff ff    	xor    -0x1c28(%rbp),%al
   179d0:	0f b6 d0             	movzbl %al,%edx
   179d3:	0f bf 85 ec e3 ff ff 	movswl -0x1c14(%rbp),%eax
   179da:	39 c2                	cmp    %eax,%edx
   179dc:	0f 9d c0             	setge  %al
   179df:	0f b6 c0             	movzbl %al,%eax
   179e2:	41 39 c6             	cmp    %eax,%r14d
   179e5:	0f 95 c0             	setne  %al
   179e8:	0f b6 c0             	movzbl %al,%eax
   179eb:	44 89 e6             	mov    %r12d,%esi
   179ee:	89 c7                	mov    %eax,%edi
   179f0:	e8 00 4a ff ff       	callq  c3f5 <safe_mul_func_int16_t_s_s>
   179f5:	66 83 bd ec e3 ff ff 	cmpw   $0x1,-0x1c14(%rbp)
   179fc:	01 
   179fd:	0f 9f c0             	setg   %al
   17a00:	0f b6 c0             	movzbl %al,%eax
   17a03:	48 89 de             	mov    %rbx,%rsi
   17a06:	48 89 c7             	mov    %rax,%rdi
   17a09:	e8 9a 4e ff ff       	callq  c8a8 <safe_sub_func_int64_t_s_s>
   17a0e:	48 8b 05 ab 4c 01 00 	mov    0x14cab(%rip),%rax        # 2c6c0 <g_571>
   17a15:	48 8b 00             	mov    (%rax),%rax
   17a18:	48 89 85 e0 e3 ff ff 	mov    %rax,-0x1c20(%rbp)
   17a1f:	48 8b 85 48 e6 ff ff 	mov    -0x19b8(%rbp),%rax
   17a26:	8b 00                	mov    (%rax),%eax
   17a28:	83 f0 f9             	xor    $0xfffffff9,%eax
   17a2b:	89 c2                	mov    %eax,%edx
   17a2d:	48 8b 85 48 e6 ff ff 	mov    -0x19b8(%rbp),%rax
   17a34:	89 10                	mov    %edx,(%rax)
   17a36:	48 8b 85 e0 e3 ff ff 	mov    -0x1c20(%rbp),%rax
   17a3d:	48 85 c0             	test   %rax,%rax
   17a40:	74 7a                	je     17abc <func_4+0x6fb9>
   17a42:	48 8d 85 28 e6 ff ff 	lea    -0x19d8(%rbp),%rax
   17a49:	48 89 85 48 e6 ff ff 	mov    %rax,-0x19b8(%rbp)
   17a50:	66 c7 85 ec e3 ff ff 	movw   $0x0,-0x1c14(%rbp)
   17a57:	00 00 
   17a59:	eb 52                	jmp    17aad <func_4+0x6faa>
   17a5b:	48 8b 05 be 4d 01 00 	mov    0x14dbe(%rip),%rax        # 2c820 <g_742>
   17a62:	48 8b 00             	mov    (%rax),%rax
   17a65:	48 8b 10             	mov    (%rax),%rdx
   17a68:	48 8b 05 79 4c 01 00 	mov    0x14c79(%rip),%rax        # 2c6e8 <g_744>
   17a6f:	0f b7 12             	movzwl (%rdx),%edx
   17a72:	66 89 10             	mov    %dx,(%rax)
   17a75:	0f b7 00             	movzwl (%rax),%eax
   17a78:	98                   	cwtl   
   17a79:	89 c6                	mov    %eax,%esi
   17a7b:	bf 01 00 00 00       	mov    $0x1,%edi
   17a80:	e8 c3 53 ff ff       	callq  ce48 <safe_rshift_func_uint16_t_u_s>
   17a85:	48 8b 15 b4 4b 01 00 	mov    0x14bb4(%rip),%rdx        # 2c640 <g_460>
   17a8c:	8b 0a                	mov    (%rdx),%ecx
   17a8e:	0f b7 d0             	movzwl %ax,%edx
   17a91:	48 8b 05 a8 4b 01 00 	mov    0x14ba8(%rip),%rax        # 2c640 <g_460>
   17a98:	21 ca                	and    %ecx,%edx
   17a9a:	89 10                	mov    %edx,(%rax)
   17a9c:	0f b7 85 ec e3 ff ff 	movzwl -0x1c14(%rbp),%eax
   17aa3:	83 c0 01             	add    $0x1,%eax
   17aa6:	66 89 85 ec e3 ff ff 	mov    %ax,-0x1c14(%rbp)
   17aad:	66 83 bd ec e3 ff ff 	cmpw   $0x1,-0x1c14(%rbp)
   17ab4:	01 
   17ab5:	7e a4                	jle    17a5b <func_4+0x6f58>
   17ab7:	e9 d2 01 00 00       	jmpq   17c8e <func_4+0x718b>
   17abc:	48 c7 05 e9 0c 01 00 	movq   $0x0,0x10ce9(%rip)        # 287b0 <g_1037+0x10>
   17ac3:	00 00 00 00 
   17ac7:	eb 43                	jmp    17b0c <func_4+0x7009>
   17ac9:	48 8d 05 98 0c 01 00 	lea    0x10c98(%rip),%rax        # 28768 <g_369>
   17ad0:	48 89 85 38 e8 ff ff 	mov    %rax,-0x17c8(%rbp)
   17ad7:	48 8b 05 82 52 01 00 	mov    0x15282(%rip),%rax        # 2cd60 <g_965>
   17ade:	48 8b 95 38 e8 ff ff 	mov    -0x17c8(%rbp),%rdx
   17ae5:	48 89 10             	mov    %rdx,(%rax)
   17ae8:	48 8b 15 51 4b 01 00 	mov    0x14b51(%rip),%rdx        # 2c640 <g_460>
   17aef:	48 8b 05 4a 4b 01 00 	mov    0x14b4a(%rip),%rax        # 2c640 <g_460>
   17af6:	8b 12                	mov    (%rdx),%edx
   17af8:	89 10                	mov    %edx,(%rax)
   17afa:	48 8b 05 af 0c 01 00 	mov    0x10caf(%rip),%rax        # 287b0 <g_1037+0x10>
   17b01:	48 83 c0 01          	add    $0x1,%rax
   17b05:	48 89 05 a4 0c 01 00 	mov    %rax,0x10ca4(%rip)        # 287b0 <g_1037+0x10>
   17b0c:	48 8b 05 9d 0c 01 00 	mov    0x10c9d(%rip),%rax        # 287b0 <g_1037+0x10>
   17b13:	48 85 c0             	test   %rax,%rax
   17b16:	7e b1                	jle    17ac9 <func_4+0x6fc6>
   17b18:	48 8b 85 48 e6 ff ff 	mov    -0x19b8(%rbp),%rax
   17b1f:	c7 00 07 00 00 00    	movl   $0x7,(%rax)
   17b25:	48 8b 85 f8 e5 ff ff 	mov    -0x1a08(%rbp),%rax
   17b2c:	48 8b 95 48 e6 ff ff 	mov    -0x19b8(%rbp),%rdx
   17b33:	8b 12                	mov    (%rdx),%edx
   17b35:	89 10                	mov    %edx,(%rax)
   17b37:	c7 05 47 0c 01 00 18 	movl   $0x18,0x10c47(%rip)        # 28788 <g_519>
   17b3e:	00 00 00 
   17b41:	e9 36 01 00 00       	jmpq   17c7c <func_4+0x7179>
   17b46:	48 c7 85 30 e8 ff ff 	movq   $0xfffffffffffffffa,-0x17d0(%rbp)
   17b4d:	fa ff ff ff 
   17b51:	48 8b 85 48 e6 ff ff 	mov    -0x19b8(%rbp),%rax
   17b58:	8b 00                	mov    (%rax),%eax
   17b5a:	85 c0                	test   %eax,%eax
   17b5c:	0f 85 2b 01 00 00    	jne    17c8d <func_4+0x718a>
   17b62:	66 83 bd ec e3 ff ff 	cmpw   $0x0,-0x1c14(%rbp)
   17b69:	00 
   17b6a:	0f 84 81 00 00 00    	je     17bf1 <func_4+0x70ee>
   17b70:	66 83 bd 1e e4 ff ff 	cmpw   $0x0,-0x1be2(%rbp)
   17b77:	00 
   17b78:	75 52                	jne    17bcc <func_4+0x70c9>
   17b7a:	8b 85 bc e5 ff ff    	mov    -0x1a44(%rbp),%eax
   17b80:	0f be c0             	movsbl %al,%eax
   17b83:	be 00 00 00 00       	mov    $0x0,%esi
   17b88:	89 c7                	mov    %eax,%edi
   17b8a:	e8 dd 47 ff ff       	callq  c36c <safe_rshift_func_int8_t_s_u>
   17b8f:	0f bf 85 ec e3 ff ff 	movswl -0x1c14(%rbp),%eax
   17b96:	be 0f 00 00 00       	mov    $0xf,%esi
   17b9b:	89 c7                	mov    %eax,%edi
   17b9d:	e8 f0 48 ff ff       	callq  c492 <safe_lshift_func_int16_t_s_s>
   17ba2:	83 c8 01             	or     $0x1,%eax
   17ba5:	0f be c0             	movsbl %al,%eax
   17ba8:	be 03 00 00 00       	mov    $0x3,%esi
   17bad:	89 c7                	mov    %eax,%edi
   17baf:	e8 b8 47 ff ff       	callq  c36c <safe_rshift_func_int8_t_s_u>
   17bb4:	48 8b 05 25 4a 01 00 	mov    0x14a25(%rip),%rax        # 2c5e0 <g_66>
   17bbb:	48 8b 85 e0 e3 ff ff 	mov    -0x1c20(%rbp),%rax
   17bc2:	25 ee 39 61 8f       	and    $0x8f6139ee,%eax
   17bc7:	48 85 c0             	test   %rax,%rax
   17bca:	74 07                	je     17bd3 <func_4+0x70d0>
   17bcc:	b8 01 00 00 00       	mov    $0x1,%eax
   17bd1:	eb 05                	jmp    17bd8 <func_4+0x70d5>
   17bd3:	b8 00 00 00 00       	mov    $0x0,%eax
   17bd8:	48 63 d0             	movslq %eax,%rdx
   17bdb:	48 8b 85 e0 e3 ff ff 	mov    -0x1c20(%rbp),%rax
   17be2:	48 09 d0             	or     %rdx,%rax
   17be5:	48 85 c0             	test   %rax,%rax
   17be8:	74 07                	je     17bf1 <func_4+0x70ee>
   17bea:	ba 01 00 00 00       	mov    $0x1,%edx
   17bef:	eb 05                	jmp    17bf6 <func_4+0x70f3>
   17bf1:	ba 00 00 00 00       	mov    $0x0,%edx
   17bf6:	0f bf 85 ec e3 ff ff 	movswl -0x1c14(%rbp),%eax
   17bfd:	39 c2                	cmp    %eax,%edx
   17bff:	0f 9f c0             	setg   %al
   17c02:	0f b6 d0             	movzbl %al,%edx
   17c05:	8b 85 b0 e9 ff ff    	mov    -0x1650(%rbp),%eax
   17c0b:	39 c2                	cmp    %eax,%edx
   17c0d:	7c 21                	jl     17c30 <func_4+0x712d>
   17c0f:	8b 05 2f 58 01 00    	mov    0x1582f(%rip),%eax        # 2d444 <g_121>
   17c15:	89 c2                	mov    %eax,%edx
   17c17:	48 8b 85 58 e6 ff ff 	mov    -0x19a8(%rbp),%rax
   17c1e:	48 c1 e0 02          	shl    $0x2,%rax
   17c22:	48 01 d0             	add    %rdx,%rax
   17c25:	8b 84 85 00 eb ff ff 	mov    -0x1500(%rbp,%rax,4),%eax
   17c2c:	85 c0                	test   %eax,%eax
   17c2e:	74 07                	je     17c37 <func_4+0x7134>
   17c30:	b8 01 00 00 00       	mov    $0x1,%eax
   17c35:	eb 05                	jmp    17c3c <func_4+0x7139>
   17c37:	b8 00 00 00 00       	mov    $0x0,%eax
   17c3c:	83 f0 fd             	xor    $0xfffffffd,%eax
   17c3f:	83 f8 01             	cmp    $0x1,%eax
   17c42:	0f 9f c0             	setg   %al
   17c45:	0f b6 c8             	movzbl %al,%ecx
   17c48:	48 8b 85 f8 e5 ff ff 	mov    -0x1a08(%rbp),%rax
   17c4f:	8b 10                	mov    (%rax),%edx
   17c51:	48 8b 85 f8 e5 ff ff 	mov    -0x1a08(%rbp),%rax
   17c58:	31 ca                	xor    %ecx,%edx
   17c5a:	89 10                	mov    %edx,(%rax)
   17c5c:	48 83 bd 30 e8 ff ff 	cmpq   $0x0,-0x17d0(%rbp)
   17c63:	00 
   17c64:	8b 05 1e 0b 01 00    	mov    0x10b1e(%rip),%eax        # 28788 <g_519>
   17c6a:	be 09 00 00 00       	mov    $0x9,%esi
   17c6f:	89 c7                	mov    %eax,%edi
   17c71:	e8 40 49 ff ff       	callq  c5b6 <safe_add_func_int32_t_s_s>
   17c76:	89 05 0c 0b 01 00    	mov    %eax,0x10b0c(%rip)        # 28788 <g_519>
   17c7c:	8b 05 06 0b 01 00    	mov    0x10b06(%rip),%eax        # 28788 <g_519>
   17c82:	83 f8 1c             	cmp    $0x1c,%eax
   17c85:	0f 8f bb fe ff ff    	jg     17b46 <func_4+0x7043>
   17c8b:	eb 01                	jmp    17c8e <func_4+0x718b>
   17c8d:	90                   	nop
   17c8e:	48 8b 15 73 51 01 00 	mov    0x15173(%rip),%rdx        # 2ce08 <g_2140>
   17c95:	48 8b 05 6c 51 01 00 	mov    0x1516c(%rip),%rax        # 2ce08 <g_2140>
   17c9c:	48 8b 12             	mov    (%rdx),%rdx
   17c9f:	48 89 10             	mov    %rdx,(%rax)
   17ca2:	48 8b 00             	mov    (%rax),%rax
   17ca5:	48 85 c0             	test   %rax,%rax
   17ca8:	0f 95 c0             	setne  %al
   17cab:	0f b6 d8             	movzbl %al,%ebx
   17cae:	48 83 bd 20 e8 ff ff 	cmpq   $0x0,-0x17e0(%rbp)
   17cb5:	00 
   17cb6:	0f 95 c0             	setne  %al
   17cb9:	0f b6 d0             	movzbl %al,%edx
   17cbc:	48 8d 05 05 4a 01 00 	lea    0x14a05(%rip),%rax        # 2c6c8 <g_570>
   17cc3:	48 89 05 4e 51 01 00 	mov    %rax,0x1514e(%rip)        # 2ce18 <g_2318>
   17cca:	48 8d 05 f7 49 01 00 	lea    0x149f7(%rip),%rax        # 2c6c8 <g_570>
   17cd1:	48 39 85 18 e8 ff ff 	cmp    %rax,-0x17e8(%rbp)
   17cd8:	0f 95 c0             	setne  %al
   17cdb:	0f b6 c8             	movzbl %al,%ecx
   17cde:	48 8b 85 48 e6 ff ff 	mov    -0x19b8(%rbp),%rax
   17ce5:	8b 00                	mov    (%rax),%eax
   17ce7:	39 c1                	cmp    %eax,%ecx
   17ce9:	0f 9f c0             	setg   %al
   17cec:	0f b6 c0             	movzbl %al,%eax
   17cef:	89 d6                	mov    %edx,%esi
   17cf1:	89 c7                	mov    %eax,%edi
   17cf3:	e8 54 4f ff ff       	callq  cc4c <safe_lshift_func_uint8_t_u_u>
   17cf8:	0f b6 d0             	movzbl %al,%edx
   17cfb:	48 8b 85 48 e6 ff ff 	mov    -0x19b8(%rbp),%rax
   17d02:	8b 00                	mov    (%rax),%eax
   17d04:	09 d0                	or     %edx,%eax
   17d06:	98                   	cwtl   
   17d07:	89 de                	mov    %ebx,%esi
   17d09:	89 c7                	mov    %eax,%edi
   17d0b:	e8 e5 46 ff ff       	callq  c3f5 <safe_mul_func_int16_t_s_s>
   17d10:	48 0f bf 95 ec e3 ff 	movswq -0x1c14(%rbp),%rdx
   17d17:	ff 
   17d18:	48 8b 85 70 e6 ff ff 	mov    -0x1990(%rbp),%rax
   17d1f:	48 8b 00             	mov    (%rax),%rax
   17d22:	48 83 c8 01          	or     $0x1,%rax
   17d26:	48 89 c1             	mov    %rax,%rcx
   17d29:	48 8b 85 70 e6 ff ff 	mov    -0x1990(%rbp),%rax
   17d30:	48 89 08             	mov    %rcx,(%rax)
   17d33:	48 8b 85 70 e6 ff ff 	mov    -0x1990(%rbp),%rax
   17d3a:	48 8b 00             	mov    (%rax),%rax
   17d3d:	48 8b 8d e0 e3 ff ff 	mov    -0x1c20(%rbp),%rcx
   17d44:	48 39 c8             	cmp    %rcx,%rax
   17d47:	0f 95 c0             	setne  %al
   17d4a:	0f b6 c0             	movzbl %al,%eax
   17d4d:	48 89 d6             	mov    %rdx,%rsi
   17d50:	48 89 c7             	mov    %rax,%rdi
   17d53:	e8 50 4b ff ff       	callq  c8a8 <safe_sub_func_int64_t_s_s>
   17d58:	48 8b 05 81 48 01 00 	mov    0x14881(%rip),%rax        # 2c5e0 <g_66>
   17d5f:	48 8b 95 d8 e7 ff ff 	mov    -0x1828(%rbp),%rdx
   17d66:	8b 12                	mov    (%rdx),%edx
   17d68:	89 10                	mov    %edx,(%rax)
   17d6a:	48 83 ad 58 e6 ff ff 	subq   $0x1,-0x19a8(%rbp)
   17d71:	01 
   17d72:	48 83 bd 58 e6 ff ff 	cmpq   $0x0,-0x19a8(%rbp)
   17d79:	00 
   17d7a:	0f 89 96 f3 ff ff    	jns    17116 <func_4+0x6613>
   17d80:	8b 05 be 56 01 00    	mov    0x156be(%rip),%eax        # 2d444 <g_121>
   17d86:	83 c0 01             	add    $0x1,%eax
   17d89:	89 05 b5 56 01 00    	mov    %eax,0x156b5(%rip)        # 2d444 <g_121>
   17d8f:	8b 05 af 56 01 00    	mov    0x156af(%rip),%eax        # 2d444 <g_121>
   17d95:	83 f8 03             	cmp    $0x3,%eax
   17d98:	0f 86 7a f2 ff ff    	jbe    17018 <func_4+0x6515>
   17d9e:	48 8b 85 e0 e8 ff ff 	mov    -0x1720(%rbp),%rax
   17da5:	48 83 c0 01          	add    $0x1,%rax
   17da9:	48 89 85 e0 e8 ff ff 	mov    %rax,-0x1720(%rbp)
   17db0:	48 8b 85 e0 e8 ff ff 	mov    -0x1720(%rbp),%rax
   17db7:	48 83 f8 2a          	cmp    $0x2a,%rax
   17dbb:	0f 86 13 db ff ff    	jbe    158d4 <func_4+0x4dd1>
   17dc1:	48 8b 85 e0 e3 ff ff 	mov    -0x1c20(%rbp),%rax
   17dc8:	48 8b 5d c8          	mov    -0x38(%rbp),%rbx
   17dcc:	64 48 33 1c 25 28 00 	xor    %fs:0x28,%rbx
   17dd3:	00 00 
   17dd5:	74 05                	je     17ddc <func_4+0x72d9>
   17dd7:	e8 94 42 ff ff       	callq  c070 <__stack_chk_fail@plt>
   17ddc:	48 81 c4 08 1c 00 00 	add    $0x1c08,%rsp
   17de3:	5b                   	pop    %rbx
   17de4:	41 5c                	pop    %r12
   17de6:	41 5d                	pop    %r13
   17de8:	41 5e                	pop    %r14
   17dea:	41 5f                	pop    %r15
   17dec:	5d                   	pop    %rbp
   17ded:	c3                   	retq   

0000000000017dee <func_7>:
   17dee:	f3 0f 1e fa          	endbr64 
   17df2:	55                   	push   %rbp
   17df3:	48 89 e5             	mov    %rsp,%rbp
   17df6:	48 81 ec 00 04 00 00 	sub    $0x400,%rsp
   17dfd:	89 bd 1c fc ff ff    	mov    %edi,-0x3e4(%rbp)
   17e03:	89 b5 18 fc ff ff    	mov    %esi,-0x3e8(%rbp)
   17e09:	89 d6                	mov    %edx,%esi
   17e0b:	89 ca                	mov    %ecx,%edx
   17e0d:	44 89 c0             	mov    %r8d,%eax
   17e10:	89 f1                	mov    %esi,%ecx
   17e12:	88 8d 14 fc ff ff    	mov    %cl,-0x3ec(%rbp)
   17e18:	88 95 10 fc ff ff    	mov    %dl,-0x3f0(%rbp)
   17e1e:	66 89 85 0c fc ff ff 	mov    %ax,-0x3f4(%rbp)
   17e25:	64 48 8b 04 25 28 00 	mov    %fs:0x28,%rax
   17e2c:	00 00 
   17e2e:	48 89 45 f8          	mov    %rax,-0x8(%rbp)
   17e32:	31 c0                	xor    %eax,%eax
   17e34:	48 c7 85 28 fc ff ff 	movq   $0x0,-0x3d8(%rbp)
   17e3b:	00 00 00 00 
   17e3f:	48 8d 85 30 fc ff ff 	lea    -0x3d0(%rbp),%rax
   17e46:	48 8d 15 d3 16 01 00 	lea    0x116d3(%rip),%rdx        # 29520 <g_2631+0xaf8>
   17e4d:	b9 78 00 00 00       	mov    $0x78,%ecx
   17e52:	48 89 c7             	mov    %rax,%rdi
   17e55:	48 89 d6             	mov    %rdx,%rsi
   17e58:	f3 48 a5             	rep movsq %ds:(%rsi),%es:(%rdi)
   17e5b:	c7 85 20 fc ff ff fc 	movl   $0xfffffffc,-0x3e0(%rbp)
   17e62:	ff ff ff 
   17e65:	c7 85 24 fc ff ff 08 	movl   $0x8,-0x3dc(%rbp)
   17e6c:	00 00 00 
   17e6f:	48 8b 05 22 4f 01 00 	mov    0x14f22(%rip),%rax        # 2cd98 <g_1244>
   17e76:	48 89 05 1b 4f 01 00 	mov    %rax,0x14f1b(%rip)        # 2cd98 <g_1244>
   17e7d:	48 8b 05 ec 4e 01 00 	mov    0x14eec(%rip),%rax        # 2cd70 <g_1149>
   17e84:	48 c7 00 00 00 00 00 	movq   $0x0,(%rax)
   17e8b:	0f be 85 14 fc ff ff 	movsbl -0x3ec(%rbp),%eax
   17e92:	31 85 18 fc ff ff    	xor    %eax,-0x3e8(%rbp)
   17e98:	83 ad 24 fc ff ff 01 	subl   $0x1,-0x3dc(%rbp)
   17e9f:	8b 05 e7 08 01 00    	mov    0x108e7(%rip),%eax        # 2878c <g_520>
   17ea5:	c1 e0 03             	shl    $0x3,%eax
   17ea8:	c0 f8 03             	sar    $0x3,%al
   17eab:	0f be c0             	movsbl %al,%eax
   17eae:	48 8b 7d f8          	mov    -0x8(%rbp),%rdi
   17eb2:	64 48 33 3c 25 28 00 	xor    %fs:0x28,%rdi
   17eb9:	00 00 
   17ebb:	74 05                	je     17ec2 <func_7+0xd4>
   17ebd:	e8 ae 41 ff ff       	callq  c070 <__stack_chk_fail@plt>
   17ec2:	c9                   	leaveq 
   17ec3:	c3                   	retq   

0000000000017ec4 <func_13>:
   17ec4:	f3 0f 1e fa          	endbr64 
   17ec8:	55                   	push   %rbp
   17ec9:	48 89 e5             	mov    %rsp,%rbp
   17ecc:	41 57                	push   %r15
   17ece:	41 56                	push   %r14
   17ed0:	41 55                	push   %r13
   17ed2:	41 54                	push   %r12
   17ed4:	53                   	push   %rbx
   17ed5:	48 81 ec 00 10 00 00 	sub    $0x1000,%rsp
   17edc:	48 83 0c 24 00       	orq    $0x0,(%rsp)
   17ee1:	48 81 ec c8 04 00 00 	sub    $0x4c8,%rsp
   17ee8:	48 89 bd 38 eb ff ff 	mov    %rdi,-0x14c8(%rbp)
   17eef:	89 f0                	mov    %esi,%eax
   17ef1:	48 89 95 28 eb ff ff 	mov    %rdx,-0x14d8(%rbp)
   17ef8:	88 85 34 eb ff ff    	mov    %al,-0x14cc(%rbp)
   17efe:	64 48 8b 04 25 28 00 	mov    %fs:0x28,%rax
   17f05:	00 00 
   17f07:	48 89 45 c8          	mov    %rax,-0x38(%rbp)
   17f0b:	31 c0                	xor    %eax,%eax
   17f0d:	c7 85 54 eb ff ff 8f 	movl   $0x96a2a38f,-0x14ac(%rbp)
   17f14:	a3 a2 96 
   17f17:	48 c7 85 a0 ed ff ff 	movq   $0x1,-0x1260(%rbp)
   17f1e:	01 00 00 00 
   17f22:	48 b8 68 6d be 23 6d 	movabs $0xbe723a6d23be6d68,%rax
   17f29:	3a 72 be 
   17f2c:	48 89 85 a8 ed ff ff 	mov    %rax,-0x1258(%rbp)
   17f33:	48 c7 85 b0 ed ff ff 	movq   $0x0,-0x1250(%rbp)
   17f3a:	00 00 00 00 
   17f3e:	c7 85 b8 ed ff ff 8b 	movl   $0xcdc748b,-0x1248(%rbp)
   17f45:	74 dc 0c 
   17f48:	48 c7 85 bc ed ff ff 	movq   $0x5,-0x1244(%rbp)
   17f4f:	05 00 00 00 
   17f53:	66 c7 85 c4 ed ff ff 	movw   $0x0,-0x123c(%rbp)
   17f5a:	00 00 
   17f5c:	c7 85 58 eb ff ff 74 	movl   $0x4a31d974,-0x14a8(%rbp)
   17f63:	d9 31 4a 
   17f66:	c7 85 b0 eb ff ff 01 	movl   $0x1,-0x1450(%rbp)
   17f6d:	00 00 00 
   17f70:	c7 85 90 eb ff ff 62 	movl   $0x53a0062,-0x1470(%rbp)
   17f77:	00 3a 05 
   17f7a:	c7 85 94 eb ff ff f7 	movl   $0xfffffff7,-0x146c(%rbp)
   17f81:	ff ff ff 
   17f84:	c7 85 5c eb ff ff a1 	movl   $0x82918fa1,-0x14a4(%rbp)
   17f8b:	8f 91 82 
   17f8e:	c7 85 60 eb ff ff 95 	movl   $0x102f7c95,-0x14a0(%rbp)
   17f95:	7c 2f 10 
   17f98:	c7 85 b4 eb ff ff 00 	movl   $0x0,-0x144c(%rbp)
   17f9f:	00 00 00 
   17fa2:	c7 85 64 eb ff ff f6 	movl   $0x5d221cf6,-0x149c(%rbp)
   17fa9:	1c 22 5d 
   17fac:	c7 85 b8 eb ff ff 02 	movl   $0x115a9002,-0x1448(%rbp)
   17fb3:	90 5a 11 
   17fb6:	c7 85 bc eb ff ff 11 	movl   $0x1b2db611,-0x1444(%rbp)
   17fbd:	b6 2d 1b 
   17fc0:	c7 85 68 eb ff ff ff 	movl   $0xffffffff,-0x1498(%rbp)
   17fc7:	ff ff ff 
   17fca:	c7 85 6c eb ff ff 8b 	movl   $0x6c7f9a8b,-0x1494(%rbp)
   17fd1:	9a 7f 6c 
   17fd4:	c7 85 c0 eb ff ff ff 	movl   $0xffffffff,-0x1440(%rbp)
   17fdb:	ff ff ff 
   17fde:	c7 85 70 eb ff ff 48 	movl   $0x1fb28e48,-0x1490(%rbp)
   17fe5:	8e b2 1f 
   17fe8:	48 8d 85 c0 f4 ff ff 	lea    -0xb40(%rbp),%rax
   17fef:	48 8d 15 ca b5 00 00 	lea    0xb5ca(%rip),%rdx        # 235c0 <g_1963+0x24ac>
   17ff6:	b9 7e 00 00 00       	mov    $0x7e,%ecx
   17ffb:	48 89 c7             	mov    %rax,%rdi
   17ffe:	48 89 d6             	mov    %rdx,%rsi
   18001:	f3 48 a5             	rep movsq %ds:(%rsi),%es:(%rdi)
   18004:	c7 85 00 ee ff ff f8 	movl   $0xfffffff8,-0x1200(%rbp)
   1800b:	ff ff ff 
   1800e:	c7 85 04 ee ff ff f8 	movl   $0xfffffff8,-0x11fc(%rbp)
   18015:	ff ff ff 
   18018:	c7 85 08 ee ff ff f8 	movl   $0xfffffff8,-0x11f8(%rbp)
   1801f:	ff ff ff 
   18022:	c7 85 0c ee ff ff f8 	movl   $0xfffffff8,-0x11f4(%rbp)
   18029:	ff ff ff 
   1802c:	c7 85 10 ee ff ff f8 	movl   $0xfffffff8,-0x11f0(%rbp)
   18033:	ff ff ff 
   18036:	48 c7 85 50 ec ff ff 	movq   $0xfffffffffffffff6,-0x13b0(%rbp)
   1803d:	f6 ff ff ff 
   18041:	48 c7 85 58 ec ff ff 	movq   $0xfffffffffffffff6,-0x13a8(%rbp)
   18048:	f6 ff ff ff 
   1804c:	48 8d 05 4d 07 01 00 	lea    0x1074d(%rip),%rax        # 287a0 <g_1037>
   18053:	48 89 85 60 ec ff ff 	mov    %rax,-0x13a0(%rbp)
   1805a:	48 b8 61 f2 1d cb c8 	movabs $0x56a839c8cb1df261,%rax
   18061:	39 a8 56 
   18064:	48 89 85 90 ee ff ff 	mov    %rax,-0x1170(%rbp)
   1806b:	48 c7 85 98 ee ff ff 	movq   $0xffffffffffffffff,-0x1168(%rbp)
   18072:	ff ff ff ff 
   18076:	48 bb be 69 5b c2 1d 	movabs $0x2afaea1dc25b69be,%rbx
   1807d:	ea fa 2a 
   18080:	48 89 9d a0 ee ff ff 	mov    %rbx,-0x1160(%rbp)
   18087:	48 c7 85 a8 ee ff ff 	movq   $0xfffffffffffffff9,-0x1158(%rbp)
   1808e:	f9 ff ff ff 
   18092:	48 c7 85 b0 ee ff ff 	movq   $0xffffffffffffffff,-0x1150(%rbp)
   18099:	ff ff ff ff 
   1809d:	48 c7 85 b8 ee ff ff 	movq   $0xfffffffffffffff9,-0x1148(%rbp)
   180a4:	f9 ff ff ff 
   180a8:	48 c7 85 c0 ee ff ff 	movq   $0xfffffffffffffffa,-0x1140(%rbp)
   180af:	fa ff ff ff 
   180b3:	48 89 85 c8 ee ff ff 	mov    %rax,-0x1138(%rbp)
   180ba:	48 89 9d d0 ee ff ff 	mov    %rbx,-0x1130(%rbp)
   180c1:	48 c7 85 d8 ee ff ff 	movq   $0xfffffffffffffffa,-0x1128(%rbp)
   180c8:	fa ff ff ff 
   180cc:	48 c7 85 e0 ee ff ff 	movq   $0xfffffffffffffffa,-0x1120(%rbp)
   180d3:	fa ff ff ff 
   180d7:	48 89 85 e8 ee ff ff 	mov    %rax,-0x1118(%rbp)
   180de:	48 c7 85 f0 ee ff ff 	movq   $0xfffffffffffffff9,-0x1110(%rbp)
   180e5:	f9 ff ff ff 
   180e9:	48 89 85 f8 ee ff ff 	mov    %rax,-0x1108(%rbp)
   180f0:	48 89 85 00 ef ff ff 	mov    %rax,-0x1100(%rbp)
   180f7:	48 89 85 08 ef ff ff 	mov    %rax,-0x10f8(%rbp)
   180fe:	48 c7 85 10 ef ff ff 	movq   $0xffffffffffffffff,-0x10f0(%rbp)
   18105:	ff ff ff ff 
   18109:	48 89 9d 18 ef ff ff 	mov    %rbx,-0x10e8(%rbp)
   18110:	48 c7 85 20 ef ff ff 	movq   $0xfffffffffffffff9,-0x10e0(%rbp)
   18117:	f9 ff ff ff 
   1811b:	48 c7 85 28 ef ff ff 	movq   $0xffffffffffffffff,-0x10d8(%rbp)
   18122:	ff ff ff ff 
   18126:	48 c7 85 30 ef ff ff 	movq   $0xfffffffffffffff9,-0x10d0(%rbp)
   1812d:	f9 ff ff ff 
   18131:	48 c7 85 38 ef ff ff 	movq   $0xfffffffffffffffa,-0x10c8(%rbp)
   18138:	fa ff ff ff 
   1813c:	48 89 85 40 ef ff ff 	mov    %rax,-0x10c0(%rbp)
   18143:	48 89 9d 48 ef ff ff 	mov    %rbx,-0x10b8(%rbp)
   1814a:	48 c7 85 50 ef ff ff 	movq   $0xfffffffffffffffa,-0x10b0(%rbp)
   18151:	fa ff ff ff 
   18155:	48 c7 85 58 ef ff ff 	movq   $0xfffffffffffffffa,-0x10a8(%rbp)
   1815c:	fa ff ff ff 
   18160:	48 89 85 60 ef ff ff 	mov    %rax,-0x10a0(%rbp)
   18167:	48 8d 05 ca 48 01 00 	lea    0x148ca(%rip),%rax        # 2ca38 <g_795+0x1f8>
   1816e:	48 89 85 68 ec ff ff 	mov    %rax,-0x1398(%rbp)
   18175:	48 8d 85 70 ef ff ff 	lea    -0x1090(%rbp),%rax
   1817c:	48 8d 15 5d 17 01 00 	lea    0x1175d(%rip),%rdx        # 298e0 <g_2631+0xeb8>
   18183:	b9 23 00 00 00       	mov    $0x23,%ecx
   18188:	48 89 c7             	mov    %rax,%rdi
   1818b:	48 89 d6             	mov    %rdx,%rsi
   1818e:	f3 48 a5             	rep movsq %ds:(%rsi),%es:(%rdi)
   18191:	c6 85 4b eb ff ff d7 	movb   $0xd7,-0x14b5(%rbp)
   18198:	48 c7 85 60 ee ff ff 	movq   $0x0,-0x11a0(%rbp)
   1819f:	00 00 00 00 
   181a3:	48 c7 85 68 ee ff ff 	movq   $0x0,-0x1198(%rbp)
   181aa:	00 00 00 00 
   181ae:	48 c7 85 70 ee ff ff 	movq   $0x0,-0x1190(%rbp)
   181b5:	00 00 00 00 
   181b9:	48 c7 85 78 ee ff ff 	movq   $0x0,-0x1188(%rbp)
   181c0:	00 00 00 00 
   181c4:	48 c7 85 80 ee ff ff 	movq   $0x0,-0x1180(%rbp)
   181cb:	00 00 00 00 
   181cf:	48 8d 05 12 44 01 00 	lea    0x14412(%rip),%rax        # 2c5e8 <g_100>
   181d6:	48 89 85 70 ec ff ff 	mov    %rax,-0x1390(%rbp)
   181dd:	48 8d 85 6c eb ff ff 	lea    -0x1494(%rbp),%rax
   181e4:	48 89 85 78 ec ff ff 	mov    %rax,-0x1388(%rbp)
   181eb:	66 c7 85 50 eb ff ff 	movw   $0x3969,-0x14b0(%rbp)
   181f2:	69 39 
   181f4:	48 c7 85 28 eb ff ff 	movq   $0x0,-0x14d8(%rbp)
   181fb:	00 00 00 00 
   181ff:	e9 d7 2a 00 00       	jmpq   1acdb <func_13+0x2e17>
   18204:	48 8d 05 c1 fe 00 00 	lea    0xfec1(%rip),%rax        # 280cc <g_71>
   1820b:	48 89 85 48 ec ff ff 	mov    %rax,-0x13b8(%rbp)
   18212:	c6 85 4a eb ff ff ff 	movb   $0xff,-0x14b6(%rbp)
   18219:	48 c7 85 28 ec ff ff 	movq   $0x0,-0x13d8(%rbp)
   18220:	00 00 00 00 
   18224:	48 8d 85 28 ec ff ff 	lea    -0x13d8(%rbp),%rax
   1822b:	48 89 85 18 ed ff ff 	mov    %rax,-0x12e8(%rbp)
   18232:	48 b8 a0 00 42 44 cd 	movabs $0x41ded4cd444200a0,%rax
   18239:	d4 de 41 
   1823c:	48 89 85 b0 f1 ff ff 	mov    %rax,-0xe50(%rbp)
   18243:	c6 85 b8 f1 ff ff 08 	movb   $0x8,-0xe48(%rbp)
   1824a:	48 b8 44 9a f7 e5 f8 	movabs $0x502dfff8e5f79a44,%rax
   18251:	ff 2d 50 
   18254:	48 89 85 b9 f1 ff ff 	mov    %rax,-0xe47(%rbp)
   1825b:	c6 85 c1 f1 ff ff 9f 	movb   $0x9f,-0xe3f(%rbp)
   18262:	48 b8 ff b5 9b 36 bb 	movabs $0xf40001bb369bb5ff,%rax
   18269:	01 00 f4 
   1826c:	48 89 85 c2 f1 ff ff 	mov    %rax,-0xe3e(%rbp)
   18273:	c6 85 ca f1 ff ff f9 	movb   $0xf9,-0xe36(%rbp)
   1827a:	48 b8 b3 01 ff 36 08 	movabs $0x9a79fb0836ff01b3,%rax
   18281:	fb 79 9a 
   18284:	48 89 85 cb f1 ff ff 	mov    %rax,-0xe35(%rbp)
   1828b:	c6 85 d3 f1 ff ff a0 	movb   $0xa0,-0xe2d(%rbp)
   18292:	48 b8 01 f7 09 e5 b2 	movabs $0x975fdb2e509f701,%rax
   18299:	fd 75 09 
   1829c:	48 89 85 d4 f1 ff ff 	mov    %rax,-0xe2c(%rbp)
   182a3:	c6 85 dc f1 ff ff f7 	movb   $0xf7,-0xe24(%rbp)
   182aa:	48 b8 50 15 08 44 00 	movabs $0x9f70044081550,%rax
   182b1:	f7 09 00 
   182b4:	48 89 85 dd f1 ff ff 	mov    %rax,-0xe23(%rbp)
   182bb:	c6 85 e5 f1 ff ff 01 	movb   $0x1,-0xe1b(%rbp)
   182c2:	48 b8 01 00 a3 00 e9 	movabs $0xac00ace900a30001,%rax
   182c9:	ac 00 ac 
   182cc:	48 89 85 e6 f1 ff ff 	mov    %rax,-0xe1a(%rbp)
   182d3:	c6 85 ee f1 ff ff e9 	movb   $0xe9,-0xe12(%rbp)
   182da:	48 b8 46 36 36 46 01 	movabs $0x66012c0146363646,%rax
   182e1:	2c 01 66 
   182e4:	48 89 85 ef f1 ff ff 	mov    %rax,-0xe11(%rbp)
   182eb:	c6 85 f7 f1 ff ff 01 	movb   $0x1,-0xe09(%rbp)
   182f2:	48 b8 e9 ff 00 00 fa 	movabs $0x8dd3f8fa0000ffe9,%rax
   182f9:	f8 d3 8d 
   182fc:	48 89 85 f8 f1 ff ff 	mov    %rax,-0xe08(%rbp)
   18303:	c6 85 00 f2 ff ff b5 	movb   $0xb5,-0xe00(%rbp)
   1830a:	48 b8 f8 07 05 00 01 	movabs $0xfff76601000507f8,%rax
   18311:	66 f7 ff 
   18314:	48 89 85 01 f2 ff ff 	mov    %rax,-0xdff(%rbp)
   1831b:	c6 85 09 f2 ff ff 01 	movb   $0x1,-0xdf7(%rbp)
   18322:	48 b8 ff 00 f9 f6 e9 	movabs $0xe5f7fce9f6f900ff,%rax
   18329:	fc f7 e5 
   1832c:	48 89 85 0a f2 ff ff 	mov    %rax,-0xdf6(%rbp)
   18333:	c6 85 12 f2 ff ff 41 	movb   $0x41,-0xdee(%rbp)
   1833a:	48 b8 e5 01 f4 b5 00 	movabs $0xb22c0800b5f401e5,%rax
   18341:	08 2c b2 
   18344:	48 89 85 13 f2 ff ff 	mov    %rax,-0xded(%rbp)
   1834b:	c6 85 1b f2 ff ff 09 	movb   $0x9,-0xde5(%rbp)
   18352:	48 b8 00 75 00 fc b2 	movabs $0xf70101b2fc007500,%rax
   18359:	01 01 f7 
   1835c:	48 89 85 1c f2 ff ff 	mov    %rax,-0xde4(%rbp)
   18363:	c6 85 24 f2 ff ff de 	movb   $0xde,-0xddc(%rbp)
   1836a:	48 b8 2c 46 f7 79 08 	movabs $0x9fe4ff0879f7462c,%rax
   18371:	ff e4 9f 
   18374:	48 89 85 25 f2 ff ff 	mov    %rax,-0xddb(%rbp)
   1837b:	c6 85 2d f2 ff ff 75 	movb   $0x75,-0xdd3(%rbp)
   18382:	48 b8 01 8d 00 0d bb 	movabs $0x21c2ffbb0d008d01,%rax
   18389:	ff c2 21 
   1838c:	48 89 85 2e f2 ff ff 	mov    %rax,-0xdd2(%rbp)
   18393:	c6 85 36 f2 ff ff ff 	movb   $0xff,-0xdca(%rbp)
   1839a:	48 b8 01 79 cd f7 f8 	movabs $0x8b501f8f7cd7901,%rax
   183a1:	01 b5 08 
   183a4:	48 89 85 37 f2 ff ff 	mov    %rax,-0xdc9(%rbp)
   183ab:	c6 85 3f f2 ff ff 9d 	movb   $0x9d,-0xdc1(%rbp)
   183b2:	48 b8 b2 01 fa c2 cd 	movabs $0x70808cdc2fa01b2,%rax
   183b9:	08 08 07 
   183bc:	48 89 85 40 f2 ff ff 	mov    %rax,-0xdc0(%rbp)
   183c3:	c6 85 48 f2 ff ff fb 	movb   $0xfb,-0xdb8(%rbp)
   183ca:	48 b8 fd 44 66 01 01 	movabs $0x901fc01016644fd,%rax
   183d1:	fc 01 09 
   183d4:	48 89 85 49 f2 ff ff 	mov    %rax,-0xdb7(%rbp)
   183db:	c6 85 51 f2 ff ff 01 	movb   $0x1,-0xdaf(%rbp)
   183e2:	48 b8 66 d4 f0 f0 d4 	movabs $0xf70166d4f0f0d466,%rax
   183e9:	66 01 f7 
   183ec:	48 89 85 52 f2 ff ff 	mov    %rax,-0xdae(%rbp)
   183f3:	c6 85 5a f2 ff ff fd 	movb   $0xfd,-0xda6(%rbp)
   183fa:	48 b8 f7 01 c2 b3 75 	movabs $0xf6f875b3c201f7,%rax
   18401:	f8 f6 00 
   18404:	48 89 85 5b f2 ff ff 	mov    %rax,-0xda5(%rbp)
   1840b:	c6 85 63 f2 ff ff 00 	movb   $0x0,-0xd9d(%rbp)
   18412:	48 b8 6e fd 9f 21 00 	movabs $0xa0012c00219ffd6e,%rax
   18419:	2c 01 a0 
   1841c:	48 89 85 64 f2 ff ff 	mov    %rax,-0xd9c(%rbp)
   18423:	c6 85 6c f2 ff ff e4 	movb   $0xe4,-0xd94(%rbp)
   1842a:	48 b8 b2 00 b5 01 9b 	movabs $0xb300b29b01b500b2,%rax
   18431:	b2 00 b3 
   18434:	48 89 85 6d f2 ff ff 	mov    %rax,-0xd93(%rbp)
   1843b:	c6 85 75 f2 ff ff f7 	movb   $0xf7,-0xd8b(%rbp)
   18442:	48 b8 00 42 08 d7 01 	movabs $0x8d6e0001d7084200,%rax
   18449:	00 6e 8d 
   1844c:	48 89 85 76 f2 ff ff 	mov    %rax,-0xd8a(%rbp)
   18453:	c6 85 7e f2 ff ff 2c 	movb   $0x2c,-0xd82(%rbp)
   1845a:	48 b8 e5 01 00 01 00 	movabs $0x1fd0000010001e5,%rax
   18461:	00 fd 01 
   18464:	48 89 85 7f f2 ff ff 	mov    %rax,-0xd81(%rbp)
   1846b:	c6 85 87 f2 ff ff 01 	movb   $0x1,-0xd79(%rbp)
   18472:	48 b8 7f d0 6c 7d 06 	movabs $0x5cf9d8067d6cd07f,%rax
   18479:	d8 f9 5c 
   1847c:	48 89 85 20 ed ff ff 	mov    %rax,-0x12e0(%rbp)
   18483:	48 c7 85 28 ed ff ff 	movq   $0x1,-0x12d8(%rbp)
   1848a:	01 00 00 00 
   1848e:	c7 85 98 eb ff ff 09 	movl   $0x9,-0x1468(%rbp)
   18495:	00 00 00 
   18498:	c7 85 9c eb ff ff 00 	movl   $0x0,-0x1464(%rbp)
   1849f:	00 00 00 
   184a2:	eb 1a                	jmp    184be <func_13+0x5fa>
   184a4:	8b 85 9c eb ff ff    	mov    -0x1464(%rbp),%eax
   184aa:	48 98                	cltq   
   184ac:	c7 84 85 20 ee ff ff 	movl   $0x0,-0x11e0(%rbp,%rax,4)
   184b3:	00 00 00 00 
   184b7:	83 85 9c eb ff ff 01 	addl   $0x1,-0x1464(%rbp)
   184be:	83 bd 9c eb ff ff 05 	cmpl   $0x5,-0x1464(%rbp)
   184c5:	7e dd                	jle    184a4 <func_13+0x5e0>
   184c7:	c6 85 34 eb ff ff 00 	movb   $0x0,-0x14cc(%rbp)
   184ce:	80 bd 34 eb ff ff 00 	cmpb   $0x0,-0x14cc(%rbp)
   184d5:	0f 8f 5a 02 00 00    	jg     18735 <func_13+0x871>
   184db:	48 8d 85 b0 f8 ff ff 	lea    -0x750(%rbp),%rax
   184e2:	48 83 c0 08          	add    $0x8,%rax
   184e6:	48 89 85 88 ed ff ff 	mov    %rax,-0x1278(%rbp)
   184ed:	c7 85 a0 eb ff ff 00 	movl   $0x0,-0x1460(%rbp)
   184f4:	00 00 00 
   184f7:	eb 1b                	jmp    18514 <func_13+0x650>
   184f9:	8b 85 a0 eb ff ff    	mov    -0x1460(%rbp),%eax
   184ff:	48 98                	cltq   
   18501:	48 c7 84 c5 b0 f8 ff 	movq   $0x0,-0x750(%rbp,%rax,8)
   18508:	ff 00 00 00 00 
   1850d:	83 85 a0 eb ff ff 01 	addl   $0x1,-0x1460(%rbp)
   18514:	83 bd a0 eb ff ff 03 	cmpl   $0x3,-0x1460(%rbp)
   1851b:	7e dc                	jle    184f9 <func_13+0x635>
   1851d:	48 8b 05 ec 4e 01 00 	mov    0x14eec(%rip),%rax        # 2d410 <g_21>
   18524:	48 89 c7             	mov    %rax,%rdi
   18527:	e8 07 3a 00 00       	callq  1bf33 <func_19>
   1852c:	48 8b 95 88 ed ff ff 	mov    -0x1278(%rbp),%rdx
   18533:	48 89 02             	mov    %rax,(%rdx)
   18536:	48 8b 85 88 ed ff ff 	mov    -0x1278(%rbp),%rax
   1853d:	48 8b 00             	mov    (%rax),%rax
   18540:	48 89 85 48 ec ff ff 	mov    %rax,-0x13b8(%rbp)
   18547:	c6 05 7a fb 00 00 00 	movb   $0x0,0xfb7a(%rip)        # 280c8 <g_69>
   1854e:	e9 8e 01 00 00       	jmpq   186e1 <func_13+0x81d>
   18553:	48 c7 85 90 ed ff ff 	movq   $0x0,-0x1270(%rbp)
   1855a:	00 00 00 00 
   1855e:	48 8d 85 20 ee ff ff 	lea    -0x11e0(%rbp),%rax
   18565:	48 89 85 98 ed ff ff 	mov    %rax,-0x1268(%rbp)
   1856c:	c7 85 2c ee ff ff 01 	movl   $0x1,-0x11d4(%rbp)
   18573:	00 00 00 
   18576:	0f be 95 34 eb ff ff 	movsbl -0x14cc(%rbp),%edx
   1857d:	0f be 85 34 eb ff ff 	movsbl -0x14cc(%rbp),%eax
   18584:	48 98                	cltq   
   18586:	48 63 d2             	movslq %edx,%rdx
   18589:	48 c1 e2 03          	shl    $0x3,%rdx
   1858d:	48 01 c2             	add    %rax,%rdx
   18590:	48 8b 85 28 eb ff ff 	mov    -0x14d8(%rbp),%rax
   18597:	48 01 d0             	add    %rdx,%rax
   1859a:	48 8d 14 c5 00 00 00 	lea    0x0(,%rax,8),%rdx
   185a1:	00 
   185a2:	48 8d 05 97 fa 00 00 	lea    0xfa97(%rip),%rax        # 28040 <g_18>
   185a9:	48 8b 04 02          	mov    (%rdx,%rax,1),%rax
   185ad:	89 85 54 eb ff ff    	mov    %eax,-0x14ac(%rbp)
   185b3:	8b 95 54 eb ff ff    	mov    -0x14ac(%rbp),%edx
   185b9:	48 8b 05 d8 40 01 00 	mov    0x140d8(%rip),%rax        # 2c698 <g_556>
   185c0:	8b 08                	mov    (%rax),%ecx
   185c2:	21 ca                	and    %ecx,%edx
   185c4:	89 10                	mov    %edx,(%rax)
   185c6:	0f be 95 34 eb ff ff 	movsbl -0x14cc(%rbp),%edx
   185cd:	0f be 85 34 eb ff ff 	movsbl -0x14cc(%rbp),%eax
   185d4:	83 c0 02             	add    $0x2,%eax
   185d7:	48 98                	cltq   
   185d9:	48 63 d2             	movslq %edx,%rdx
   185dc:	48 c1 e2 03          	shl    $0x3,%rdx
   185e0:	48 01 c2             	add    %rax,%rdx
   185e3:	48 8b 85 28 eb ff ff 	mov    -0x14d8(%rbp),%rax
   185ea:	48 01 d0             	add    %rdx,%rax
   185ed:	48 8d 14 c5 00 00 00 	lea    0x0(,%rax,8),%rdx
   185f4:	00 
   185f5:	48 8d 05 44 fa 00 00 	lea    0xfa44(%rip),%rax        # 28040 <g_18>
   185fc:	48 8b 04 02          	mov    (%rdx,%rax,1),%rax
   18600:	48 85 c0             	test   %rax,%rax
   18603:	0f 85 e9 00 00 00    	jne    186f2 <func_13+0x82e>
   18609:	48 c7 05 dc fe 00 00 	movq   $0x0,0xfedc(%rip)        # 284f0 <g_146+0x10>
   18610:	00 00 00 00 
   18614:	e9 a7 00 00 00       	jmpq   186c0 <func_13+0x7fc>
   18619:	0f b6 05 a8 fa 00 00 	movzbl 0xfaa8(%rip),%eax        # 280c8 <g_69>
   18620:	0f b6 c0             	movzbl %al,%eax
   18623:	48 63 d0             	movslq %eax,%rdx
   18626:	48 8b 8d 90 ed ff ff 	mov    -0x1270(%rbp),%rcx
   1862d:	48 89 8c d5 b0 f8 ff 	mov    %rcx,-0x750(%rbp,%rdx,8)
   18634:	ff 
   18635:	48 98                	cltq   
   18637:	48 8b 84 c5 b0 f8 ff 	mov    -0x750(%rbp,%rax,8),%rax
   1863e:	ff 
   1863f:	48 89 85 98 ed ff ff 	mov    %rax,-0x1268(%rbp)
   18646:	c7 85 54 eb ff ff 00 	movl   $0x0,-0x14ac(%rbp)
   1864d:	00 00 00 
   18650:	90                   	nop
   18651:	8b 85 54 eb ff ff    	mov    -0x14ac(%rbp),%eax
   18657:	85 c0                	test   %eax,%eax
   18659:	75 4b                	jne    186a6 <func_13+0x7e2>
   1865b:	48 8b 85 38 eb ff ff 	mov    -0x14c8(%rbp),%rax
   18662:	48 8b 8d a0 ed ff ff 	mov    -0x1260(%rbp),%rcx
   18669:	48 8b 9d a8 ed ff ff 	mov    -0x1258(%rbp),%rbx
   18670:	48 89 08             	mov    %rcx,(%rax)
   18673:	48 89 58 08          	mov    %rbx,0x8(%rax)
   18677:	48 8b 8d b0 ed ff ff 	mov    -0x1250(%rbp),%rcx
   1867e:	48 8b 9d b8 ed ff ff 	mov    -0x1248(%rbp),%rbx
   18685:	48 89 48 10          	mov    %rcx,0x10(%rax)
   18689:	48 89 58 18          	mov    %rbx,0x18(%rax)
   1868d:	8b 95 c0 ed ff ff    	mov    -0x1240(%rbp),%edx
   18693:	89 50 20             	mov    %edx,0x20(%rax)
   18696:	0f b7 95 c4 ed ff ff 	movzwl -0x123c(%rbp),%edx
   1869d:	66 89 50 24          	mov    %dx,0x24(%rax)
   186a1:	e9 60 38 00 00       	jmpq   1bf06 <func_13+0x4042>
   186a6:	48 83 bd 28 eb ff ff 	cmpq   $0x0,-0x14d8(%rbp)
   186ad:	00 
   186ae:	48 8b 05 3b fe 00 00 	mov    0xfe3b(%rip),%rax        # 284f0 <g_146+0x10>
   186b5:	48 83 c0 01          	add    $0x1,%rax
   186b9:	48 89 05 30 fe 00 00 	mov    %rax,0xfe30(%rip)        # 284f0 <g_146+0x10>
   186c0:	48 8b 05 29 fe 00 00 	mov    0xfe29(%rip),%rax        # 284f0 <g_146+0x10>
   186c7:	48 83 f8 01          	cmp    $0x1,%rax
   186cb:	0f 8e 48 ff ff ff    	jle    18619 <func_13+0x755>
   186d1:	0f b6 05 f0 f9 00 00 	movzbl 0xf9f0(%rip),%eax        # 280c8 <g_69>
   186d8:	83 c0 01             	add    $0x1,%eax
   186db:	88 05 e7 f9 00 00    	mov    %al,0xf9e7(%rip)        # 280c8 <g_69>
   186e1:	0f b6 05 e0 f9 00 00 	movzbl 0xf9e0(%rip),%eax        # 280c8 <g_69>
   186e8:	3c 01                	cmp    $0x1,%al
   186ea:	0f 86 63 fe ff ff    	jbe    18553 <func_13+0x68f>
   186f0:	eb 01                	jmp    186f3 <func_13+0x82f>
   186f2:	90                   	nop
   186f3:	48 8b 05 06 3f 01 00 	mov    0x13f06(%rip),%rax        # 2c600 <g_278>
   186fa:	48 8b 10             	mov    (%rax),%rdx
   186fd:	48 8b 85 38 eb ff ff 	mov    -0x14c8(%rbp),%rax
   18704:	48 8b 0a             	mov    (%rdx),%rcx
   18707:	48 8b 5a 08          	mov    0x8(%rdx),%rbx
   1870b:	48 89 08             	mov    %rcx,(%rax)
   1870e:	48 89 58 08          	mov    %rbx,0x8(%rax)
   18712:	48 8b 4a 10          	mov    0x10(%rdx),%rcx
   18716:	48 8b 5a 18          	mov    0x18(%rdx),%rbx
   1871a:	48 89 48 10          	mov    %rcx,0x10(%rax)
   1871e:	48 89 58 18          	mov    %rbx,0x18(%rax)
   18722:	8b 4a 20             	mov    0x20(%rdx),%ecx
   18725:	89 48 20             	mov    %ecx,0x20(%rax)
   18728:	0f b7 52 24          	movzwl 0x24(%rdx),%edx
   1872c:	66 89 50 24          	mov    %dx,0x24(%rax)
   18730:	e9 d1 37 00 00       	jmpq   1bf06 <func_13+0x4042>
   18735:	48 c7 05 80 f9 00 00 	movq   $0x0,0xf980(%rip)        # 280c0 <g_68>
   1873c:	00 00 00 00 
   18740:	e9 33 02 00 00       	jmpq   18978 <func_13+0xab4>
   18745:	48 8d 85 20 ee ff ff 	lea    -0x11e0(%rbp),%rax
   1874c:	48 83 c0 0c          	add    $0xc,%rax
   18750:	48 89 85 d0 ed ff ff 	mov    %rax,-0x1230(%rbp)
   18757:	48 8b 85 d0 ed ff ff 	mov    -0x1230(%rbp),%rax
   1875e:	48 89 85 48 ec ff ff 	mov    %rax,-0x13b8(%rbp)
   18765:	48 8b 85 d0 ed ff ff 	mov    -0x1230(%rbp),%rax
   1876c:	8b 10                	mov    (%rax),%edx
   1876e:	48 83 bd 28 eb ff ff 	cmpq   $0x1,-0x14d8(%rbp)
   18775:	01 
   18776:	0f 95 c0             	setne  %al
   18779:	0f b6 c8             	movzbl %al,%ecx
   1877c:	0f b6 85 4a eb ff ff 	movzbl -0x14b6(%rbp),%eax
   18783:	0f b6 c0             	movzbl %al,%eax
   18786:	21 c1                	and    %eax,%ecx
   18788:	48 8b 85 d0 ed ff ff 	mov    -0x1230(%rbp),%rax
   1878f:	21 ca                	and    %ecx,%edx
   18791:	89 10                	mov    %edx,(%rax)
   18793:	48 c7 85 a0 ed ff ff 	movq   $0x0,-0x1260(%rbp)
   1879a:	00 00 00 00 
   1879e:	e9 ad 01 00 00       	jmpq   18950 <func_13+0xa8c>
   187a3:	48 8b 05 96 3e 01 00 	mov    0x13e96(%rip),%rax        # 2c640 <g_460>
   187aa:	8b 08                	mov    (%rax),%ecx
   187ac:	48 8b 05 4d 3e 01 00 	mov    0x13e4d(%rip),%rax        # 2c600 <g_278>
   187b3:	48 8b 00             	mov    (%rax),%rax
   187b6:	48 85 c0             	test   %rax,%rax
   187b9:	0f 95 c0             	setne  %al
   187bc:	0f b6 d0             	movzbl %al,%edx
   187bf:	48 8b 05 7a 3e 01 00 	mov    0x13e7a(%rip),%rax        # 2c640 <g_460>
   187c6:	21 ca                	and    %ecx,%edx
   187c8:	89 10                	mov    %edx,(%rax)
   187ca:	48 bf 7a 69 36 88 66 	movabs $0x333a9c668836697a,%rdi
   187d1:	9c 3a 33 
   187d4:	e8 3d 40 ff ff       	callq  c816 <safe_unary_minus_func_int64_t_s>
   187d9:	48 85 c0             	test   %rax,%rax
   187dc:	74 44                	je     18822 <func_13+0x95e>
   187de:	48 8b 05 db f8 00 00 	mov    0xf8db(%rip),%rax        # 280c0 <g_68>
   187e5:	48 8d 48 05          	lea    0x5(%rax),%rcx
   187e9:	48 8b 85 a0 ed ff ff 	mov    -0x1260(%rbp),%rax
   187f0:	48 8b 95 28 eb ff ff 	mov    -0x14d8(%rbp),%rdx
   187f7:	48 c1 e2 03          	shl    $0x3,%rdx
   187fb:	48 01 ca             	add    %rcx,%rdx
   187fe:	48 01 d0             	add    %rdx,%rax
   18801:	48 8d 14 c5 00 00 00 	lea    0x0(,%rax,8),%rdx
   18808:	00 
   18809:	48 8d 05 30 f8 00 00 	lea    0xf830(%rip),%rax        # 28040 <g_18>
   18810:	48 8b 14 02          	mov    (%rdx,%rax,1),%rdx
   18814:	48 8b 05 25 3e 01 00 	mov    0x13e25(%rip),%rax        # 2c640 <g_460>
   1881b:	89 10                	mov    %edx,(%rax)
   1881d:	e9 12 01 00 00       	jmpq   18934 <func_13+0xa70>
   18822:	c7 85 a4 eb ff ff 00 	movl   $0x0,-0x145c(%rbp)
   18829:	00 00 00 
   1882c:	eb 49                	jmp    18877 <func_13+0x9b3>
   1882e:	c7 85 a8 eb ff ff 00 	movl   $0x0,-0x1458(%rbp)
   18835:	00 00 00 
   18838:	eb 2d                	jmp    18867 <func_13+0x9a3>
   1883a:	8b 85 a8 eb ff ff    	mov    -0x1458(%rbp),%eax
   18840:	48 98                	cltq   
   18842:	8b 95 a4 eb ff ff    	mov    -0x145c(%rbp),%edx
   18848:	48 63 d2             	movslq %edx,%rdx
   1884b:	48 01 d2             	add    %rdx,%rdx
   1884e:	48 01 d0             	add    %rdx,%rax
   18851:	48 8d 15 20 ff 00 00 	lea    0xff20(%rip),%rdx        # 28778 <g_392>
   18858:	48 89 94 c5 b0 f8 ff 	mov    %rdx,-0x750(%rbp,%rax,8)
   1885f:	ff 
   18860:	83 85 a8 eb ff ff 01 	addl   $0x1,-0x1458(%rbp)
   18867:	83 bd a8 eb ff ff 01 	cmpl   $0x1,-0x1458(%rbp)
   1886e:	7e ca                	jle    1883a <func_13+0x976>
   18870:	83 85 a4 eb ff ff 01 	addl   $0x1,-0x145c(%rbp)
   18877:	83 bd a4 eb ff ff 00 	cmpl   $0x0,-0x145c(%rbp)
   1887e:	7e ae                	jle    1882e <func_13+0x96a>
   18880:	48 8b 85 b0 f8 ff ff 	mov    -0x750(%rbp),%rax
   18887:	48 89 05 52 3d 01 00 	mov    %rax,0x13d52(%rip)        # 2c5e0 <g_66>
   1888e:	48 c7 05 63 fc 00 00 	movq   $0x0,0xfc63(%rip)        # 284fc <g_146+0x1c>
   18895:	00 00 00 00 
   18899:	eb 29                	jmp    188c4 <func_13+0xa00>
   1889b:	c6 85 4f eb ff ff 63 	movb   $0x63,-0x14b1(%rbp)
   188a2:	0f b6 85 4f eb ff ff 	movzbl -0x14b1(%rbp),%eax
   188a9:	83 c0 01             	add    $0x1,%eax
   188ac:	88 85 4f eb ff ff    	mov    %al,-0x14b1(%rbp)
   188b2:	48 8b 05 43 fc 00 00 	mov    0xfc43(%rip),%rax        # 284fc <g_146+0x1c>
   188b9:	48 83 c0 01          	add    $0x1,%rax
   188bd:	48 89 05 38 fc 00 00 	mov    %rax,0xfc38(%rip)        # 284fc <g_146+0x1c>
   188c4:	48 8b 05 31 fc 00 00 	mov    0xfc31(%rip),%rax        # 284fc <g_146+0x1c>
   188cb:	48 85 c0             	test   %rax,%rax
   188ce:	74 cb                	je     1889b <func_13+0x9d7>
   188d0:	c7 85 b8 ed ff ff 00 	movl   $0x0,-0x1248(%rbp)
   188d7:	00 00 00 
   188da:	90                   	nop
   188db:	8b 85 b8 ed ff ff    	mov    -0x1248(%rbp),%eax
   188e1:	85 c0                	test   %eax,%eax
   188e3:	75 42                	jne    18927 <func_13+0xa63>
   188e5:	48 8b 05 14 3d 01 00 	mov    0x13d14(%rip),%rax        # 2c600 <g_278>
   188ec:	48 8b 10             	mov    (%rax),%rdx
   188ef:	48 8b 85 38 eb ff ff 	mov    -0x14c8(%rbp),%rax
   188f6:	48 8b 0a             	mov    (%rdx),%rcx
   188f9:	48 8b 5a 08          	mov    0x8(%rdx),%rbx
   188fd:	48 89 08             	mov    %rcx,(%rax)
   18900:	48 89 58 08          	mov    %rbx,0x8(%rax)
   18904:	48 8b 4a 10          	mov    0x10(%rdx),%rcx
   18908:	48 8b 5a 18          	mov    0x18(%rdx),%rbx
   1890c:	48 89 48 10          	mov    %rcx,0x10(%rax)
   18910:	48 89 58 18          	mov    %rbx,0x18(%rax)
   18914:	8b 4a 20             	mov    0x20(%rdx),%ecx
   18917:	89 48 20             	mov    %ecx,0x20(%rax)
   1891a:	0f b7 52 24          	movzwl 0x24(%rdx),%edx
   1891e:	66 89 50 24          	mov    %dx,0x24(%rax)
   18922:	e9 df 35 00 00       	jmpq   1bf06 <func_13+0x4042>
   18927:	48 8b 05 6a 3d 01 00 	mov    0x13d6a(%rip),%rax        # 2c698 <g_556>
   1892e:	8b 00                	mov    (%rax),%eax
   18930:	85 c0                	test   %eax,%eax
   18932:	75 2e                	jne    18962 <func_13+0xa9e>
   18934:	48 83 bd 28 eb ff ff 	cmpq   $0x0,-0x14d8(%rbp)
   1893b:	00 
   1893c:	75 27                	jne    18965 <func_13+0xaa1>
   1893e:	48 8b 85 a0 ed ff ff 	mov    -0x1260(%rbp),%rax
   18945:	48 83 c0 01          	add    $0x1,%rax
   18949:	48 89 85 a0 ed ff ff 	mov    %rax,-0x1260(%rbp)
   18950:	48 8b 85 a0 ed ff ff 	mov    -0x1260(%rbp),%rax
   18957:	48 85 c0             	test   %rax,%rax
   1895a:	0f 84 43 fe ff ff    	je     187a3 <func_13+0x8df>
   18960:	eb 04                	jmp    18966 <func_13+0xaa2>
   18962:	90                   	nop
   18963:	eb 01                	jmp    18966 <func_13+0xaa2>
   18965:	90                   	nop
   18966:	48 8b 05 53 f7 00 00 	mov    0xf753(%rip),%rax        # 280c0 <g_68>
   1896d:	48 83 c0 01          	add    $0x1,%rax
   18971:	48 89 05 48 f7 00 00 	mov    %rax,0xf748(%rip)        # 280c0 <g_68>
   18978:	48 8b 05 41 f7 00 00 	mov    0xf741(%rip),%rax        # 280c0 <g_68>
   1897f:	48 85 c0             	test   %rax,%rax
   18982:	0f 8e bd fd ff ff    	jle    18745 <func_13+0x881>
   18988:	48 8b 05 39 3d 01 00 	mov    0x13d39(%rip),%rax        # 2c6c8 <g_570>
   1898f:	48 85 c0             	test   %rax,%rax
   18992:	0f 95 c0             	setne  %al
   18995:	0f b6 d0             	movzbl %al,%edx
   18998:	48 8b 05 91 3c 01 00 	mov    0x13c91(%rip),%rax        # 2c630 <g_417>
   1899f:	0f b7 00             	movzwl (%rax),%eax
   189a2:	0f b7 c0             	movzwl %ax,%eax
   189a5:	89 d6                	mov    %edx,%esi
   189a7:	89 c7                	mov    %eax,%edi
   189a9:	e8 8f 43 ff ff       	callq  cd3d <safe_mul_func_uint16_t_u_u>
   189ae:	48 8b 05 5b 3c 01 00 	mov    0x13c5b(%rip),%rax        # 2c610 <g_276>
   189b5:	48 8b 95 28 ec ff ff 	mov    -0x13d8(%rbp),%rdx
   189bc:	48 8b 85 18 ed ff ff 	mov    -0x12e8(%rbp),%rax
   189c3:	48 89 10             	mov    %rdx,(%rax)
   189c6:	48 8b 95 b0 ed ff ff 	mov    -0x1250(%rbp),%rdx
   189cd:	48 8b 8d a0 ed ff ff 	mov    -0x1260(%rbp),%rcx
   189d4:	48 8b 85 48 ec ff ff 	mov    -0x13b8(%rbp),%rax
   189db:	8b 00                	mov    (%rax),%eax
   189dd:	f7 d0                	not    %eax
   189df:	c1 e8 1f             	shr    $0x1f,%eax
   189e2:	0f b6 c0             	movzbl %al,%eax
   189e5:	48 39 c1             	cmp    %rax,%rcx
   189e8:	72 07                	jb     189f1 <func_13+0xb2d>
   189ea:	b8 ec d9 00 00       	mov    $0xd9ec,%eax
   189ef:	eb 05                	jmp    189f6 <func_13+0xb32>
   189f1:	b8 ed d9 00 00       	mov    $0xd9ed,%eax
   189f6:	48 39 d0             	cmp    %rdx,%rax
   189f9:	0f 9d c2             	setge  %dl
   189fc:	48 8b 05 bd 3c 01 00 	mov    0x13cbd(%rip),%rax        # 2c6c0 <g_571>
   18a03:	0f b6 d2             	movzbl %dl,%edx
   18a06:	48 89 10             	mov    %rdx,(%rax)
   18a09:	48 8b 00             	mov    (%rax),%rax
   18a0c:	48 8b 95 a8 ed ff ff 	mov    -0x1258(%rbp),%rdx
   18a13:	48 39 d0             	cmp    %rdx,%rax
   18a16:	0f 84 e8 02 00 00    	je     18d04 <func_13+0xe40>
   18a1c:	48 c7 85 90 f0 ff ff 	movq   $0x1,-0xf70(%rbp)
   18a23:	01 00 00 00 
   18a27:	48 c7 85 98 f0 ff ff 	movq   $0x1,-0xf68(%rbp)
   18a2e:	01 00 00 00 
   18a32:	48 c7 85 a0 f0 ff ff 	movq   $0x1,-0xf60(%rbp)
   18a39:	01 00 00 00 
   18a3d:	48 c7 85 a8 f0 ff ff 	movq   $0x1,-0xf58(%rbp)
   18a44:	01 00 00 00 
   18a48:	48 c7 85 b0 f0 ff ff 	movq   $0x1,-0xf50(%rbp)
   18a4f:	01 00 00 00 
   18a53:	48 c7 85 b8 f0 ff ff 	movq   $0x1,-0xf48(%rbp)
   18a5a:	01 00 00 00 
   18a5e:	48 c7 85 c0 f0 ff ff 	movq   $0x1,-0xf40(%rbp)
   18a65:	01 00 00 00 
   18a69:	48 c7 85 c8 f0 ff ff 	movq   $0x1,-0xf38(%rbp)
   18a70:	01 00 00 00 
   18a74:	c7 85 14 ec ff ff 46 	movl   $0x83579546,-0x13ec(%rbp)
   18a7b:	95 57 83 
   18a7e:	c7 85 18 ec ff ff 01 	movl   $0x1,-0x13e8(%rbp)
   18a85:	00 00 00 
   18a88:	48 8d 85 a0 ed ff ff 	lea    -0x1260(%rbp),%rax
   18a8f:	48 83 c0 18          	add    $0x18,%rax
   18a93:	48 89 85 30 ec ff ff 	mov    %rax,-0x13d0(%rbp)
   18a9a:	48 8d 85 30 ec ff ff 	lea    -0x13d0(%rbp),%rax
   18aa1:	48 89 85 68 ed ff ff 	mov    %rax,-0x1298(%rbp)
   18aa8:	48 8d 05 11 3c 01 00 	lea    0x13c11(%rip),%rax        # 2c6c0 <g_571>
   18aaf:	48 89 85 70 ed ff ff 	mov    %rax,-0x1290(%rbp)
   18ab6:	c7 85 1c ec ff ff f5 	movl   $0xabe661f5,-0x13e4(%rbp)
   18abd:	61 e6 ab 
   18ac0:	48 8d 05 11 fa 00 00 	lea    0xfa11(%rip),%rax        # 284d8 <g_130>
   18ac7:	48 89 85 38 ec ff ff 	mov    %rax,-0x13c8(%rbp)
   18ace:	48 8d 85 38 ec ff ff 	lea    -0x13c8(%rbp),%rax
   18ad5:	48 89 85 40 ec ff ff 	mov    %rax,-0x13c0(%rbp)
   18adc:	48 8d 85 40 ec ff ff 	lea    -0x13c0(%rbp),%rax
   18ae3:	48 89 85 78 ed ff ff 	mov    %rax,-0x1288(%rbp)
   18aea:	48 b8 0e 3d f7 4b 33 	movabs $0x129cfe334bf73d0e,%rax
   18af1:	fe 9c 12 
   18af4:	48 89 85 d0 ed ff ff 	mov    %rax,-0x1230(%rbp)
   18afb:	48 c7 85 d8 ed ff ff 	movq   $0x1,-0x1228(%rbp)
   18b02:	01 00 00 00 
   18b06:	48 c7 85 e0 ed ff ff 	movq   $0xffffffffffffffff,-0x1220(%rbp)
   18b0d:	ff ff ff ff 
   18b11:	c7 85 e8 ed ff ff d2 	movl   $0x2b5e31d2,-0x1218(%rbp)
   18b18:	31 5e 2b 
   18b1b:	48 b8 3d 33 fc 69 e9 	movabs $0x4b7eb6e969fc333d,%rax
   18b22:	b6 7e 4b 
   18b25:	48 89 85 ec ed ff ff 	mov    %rax,-0x1214(%rbp)
   18b2c:	66 c7 85 f4 ed ff ff 	movw   $0x1,-0x120c(%rbp)
   18b33:	01 00 
   18b35:	c7 85 b0 f8 ff ff 04 	movl   $0x37a33504,-0x750(%rbp)
   18b3c:	35 a3 37 
   18b3f:	c7 85 b4 f8 ff ff 21 	movl   $0xc278e621,-0x74c(%rbp)
   18b46:	e6 78 c2 
   18b49:	c7 85 b8 f8 ff ff 61 	movl   $0xccbe6861,-0x748(%rbp)
   18b50:	68 be cc 
   18b53:	c7 85 bc f8 ff ff 04 	movl   $0x37a33504,-0x744(%rbp)
   18b5a:	35 a3 37 
   18b5d:	c7 85 c0 f8 ff ff 04 	movl   $0x37a33504,-0x740(%rbp)
   18b64:	35 a3 37 
   18b67:	c7 85 c4 f8 ff ff 21 	movl   $0xc278e621,-0x73c(%rbp)
   18b6e:	e6 78 c2 
   18b71:	c7 85 c8 f8 ff ff 17 	movl   $0x5ef4a017,-0x738(%rbp)
   18b78:	a0 f4 5e 
   18b7b:	c7 85 cc f8 ff ff 21 	movl   $0xc278e621,-0x734(%rbp)
   18b82:	e6 78 c2 
   18b85:	c7 85 d0 f8 ff ff 21 	movl   $0xc278e621,-0x730(%rbp)
   18b8c:	e6 78 c2 
   18b8f:	c7 85 d4 f8 ff ff 21 	movl   $0xc278e621,-0x72c(%rbp)
   18b96:	e6 78 c2 
   18b99:	c7 85 d8 f8 ff ff f8 	movl   $0xfffffff8,-0x728(%rbp)
   18ba0:	ff ff ff 
   18ba3:	c7 85 dc f8 ff ff 61 	movl   $0xccbe6861,-0x724(%rbp)
   18baa:	68 be cc 
   18bad:	c7 85 e0 f8 ff ff 17 	movl   $0x5ef4a017,-0x720(%rbp)
   18bb4:	a0 f4 5e 
   18bb7:	c7 85 e4 f8 ff ff f8 	movl   $0xfffffff8,-0x71c(%rbp)
   18bbe:	ff ff ff 
   18bc1:	c7 85 e8 f8 ff ff 17 	movl   $0x5ef4a017,-0x718(%rbp)
   18bc8:	a0 f4 5e 
   18bcb:	c7 85 ec f8 ff ff 04 	movl   $0x37a33504,-0x714(%rbp)
   18bd2:	35 a3 37 
   18bd5:	c7 85 f0 f8 ff ff 21 	movl   $0xc278e621,-0x710(%rbp)
   18bdc:	e6 78 c2 
   18bdf:	c7 85 f4 f8 ff ff 61 	movl   $0xccbe6861,-0x70c(%rbp)
   18be6:	68 be cc 
   18be9:	c7 85 f8 f8 ff ff 04 	movl   $0x37a33504,-0x708(%rbp)
   18bf0:	35 a3 37 
   18bf3:	c7 85 fc f8 ff ff 04 	movl   $0x37a33504,-0x704(%rbp)
   18bfa:	35 a3 37 
   18bfd:	c7 85 00 f9 ff ff 21 	movl   $0xc278e621,-0x700(%rbp)
   18c04:	e6 78 c2 
   18c07:	c7 85 04 f9 ff ff 17 	movl   $0x5ef4a017,-0x6fc(%rbp)
   18c0e:	a0 f4 5e 
   18c11:	c7 85 08 f9 ff ff 21 	movl   $0xc278e621,-0x6f8(%rbp)
   18c18:	e6 78 c2 
   18c1b:	c7 85 0c f9 ff ff 21 	movl   $0xc278e621,-0x6f4(%rbp)
   18c22:	e6 78 c2 
   18c25:	c7 85 ac eb ff ff 00 	movl   $0x0,-0x1454(%rbp)
   18c2c:	00 00 00 
   18c2f:	eb 4d                	jmp    18c7e <func_13+0xdba>
   18c31:	c7 85 8c eb ff ff 00 	movl   $0x0,-0x1474(%rbp)
   18c38:	00 00 00 
   18c3b:	eb 31                	jmp    18c6e <func_13+0xdaa>
   18c3d:	8b 85 8c eb ff ff    	mov    -0x1474(%rbp),%eax
   18c43:	48 63 c8             	movslq %eax,%rcx
   18c46:	8b 85 ac eb ff ff    	mov    -0x1454(%rbp),%eax
   18c4c:	48 63 d0             	movslq %eax,%rdx
   18c4f:	48 89 d0             	mov    %rdx,%rax
   18c52:	48 c1 e0 02          	shl    $0x2,%rax
   18c56:	48 01 d0             	add    %rdx,%rax
   18c59:	48 01 c8             	add    %rcx,%rax
   18c5c:	c7 84 85 00 f3 ff ff 	movl   $0xfa09adfa,-0xd00(%rbp,%rax,4)
   18c63:	fa ad 09 fa 
   18c67:	83 85 8c eb ff ff 01 	addl   $0x1,-0x1474(%rbp)
   18c6e:	83 bd 8c eb ff ff 04 	cmpl   $0x4,-0x1474(%rbp)
   18c75:	7e c6                	jle    18c3d <func_13+0xd79>
   18c77:	83 85 ac eb ff ff 01 	addl   $0x1,-0x1454(%rbp)
   18c7e:	83 bd ac eb ff ff 03 	cmpl   $0x3,-0x1454(%rbp)
   18c85:	7e aa                	jle    18c31 <func_13+0xd6d>
   18c87:	48 c7 85 a0 ed ff ff 	movq   $0x0,-0x1260(%rbp)
   18c8e:	00 00 00 00 
   18c92:	eb 5e                	jmp    18cf2 <func_13+0xe2e>
   18c94:	66 c7 85 52 eb ff ff 	movw   $0x9e63,-0x14ae(%rbp)
   18c9b:	63 9e 
   18c9d:	c7 85 20 ec ff ff ff 	movl   $0xffffffff,-0x13e0(%rbp)
   18ca4:	ff ff ff 
   18ca7:	c7 85 24 ec ff ff 23 	movl   $0x69745e23,-0x13dc(%rbp)
   18cae:	5e 74 69 
   18cb1:	c7 85 84 eb ff ff 00 	movl   $0x0,-0x147c(%rbp)
   18cb8:	00 00 00 
   18cbb:	eb 1a                	jmp    18cd7 <func_13+0xe13>
   18cbd:	8b 85 84 eb ff ff    	mov    -0x147c(%rbp),%eax
   18cc3:	48 98                	cltq   
   18cc5:	c7 84 85 40 ee ff ff 	movl   $0xa39b1151,-0x11c0(%rbp,%rax,4)
   18ccc:	51 11 9b a3 
   18cd0:	83 85 84 eb ff ff 01 	addl   $0x1,-0x147c(%rbp)
   18cd7:	83 bd 84 eb ff ff 02 	cmpl   $0x2,-0x147c(%rbp)
   18cde:	7e dd                	jle    18cbd <func_13+0xdf9>
   18ce0:	48 8b 85 a0 ed ff ff 	mov    -0x1260(%rbp),%rax
   18ce7:	48 83 c0 01          	add    $0x1,%rax
   18ceb:	48 89 85 a0 ed ff ff 	mov    %rax,-0x1260(%rbp)
   18cf2:	48 8b 85 a0 ed ff ff 	mov    -0x1260(%rbp),%rax
   18cf9:	48 83 f8 03          	cmp    $0x3,%rax
   18cfd:	76 95                	jbe    18c94 <func_13+0xdd0>
   18cff:	e9 fa 10 00 00       	jmpq   19dfe <func_13+0x1f3a>
   18d04:	48 c7 85 30 ed ff ff 	movq   $0x0,-0x12d0(%rbp)
   18d0b:	00 00 00 00 
   18d0f:	48 b8 ae 19 e9 b3 09 	movabs $0x7f293a09b3e919ae,%rax
   18d16:	3a 29 7f 
   18d19:	48 89 85 d0 ed ff ff 	mov    %rax,-0x1230(%rbp)
   18d20:	48 c7 85 d8 ed ff ff 	movq   $0x0,-0x1228(%rbp)
   18d27:	00 00 00 00 
   18d2b:	48 b8 f1 26 06 fc 55 	movabs $0xd6df8255fc0626f1,%rax
   18d32:	82 df d6 
   18d35:	48 89 85 e0 ed ff ff 	mov    %rax,-0x1220(%rbp)
   18d3c:	c7 85 e8 ed ff ff 76 	movl   $0x1d4e7176,-0x1218(%rbp)
   18d43:	71 4e 1d 
   18d46:	48 b8 7b 03 71 62 72 	movabs $0x6a3f9726271037b,%rax
   18d4d:	f9 a3 06 
   18d50:	48 89 85 ec ed ff ff 	mov    %rax,-0x1214(%rbp)
   18d57:	66 c7 85 f4 ed ff ff 	movw   $0xfff8,-0x120c(%rbp)
   18d5e:	f8 ff 
   18d60:	c7 85 60 eb ff ff 00 	movl   $0x0,-0x14a0(%rbp)
   18d67:	00 00 00 
   18d6a:	e9 81 10 00 00       	jmpq   19df0 <func_13+0x1f2c>
   18d6f:	c6 85 4e eb ff ff 19 	movb   $0x19,-0x14b2(%rbp)
   18d76:	48 8d 85 68 eb ff ff 	lea    -0x1498(%rbp),%rax
   18d7d:	48 89 85 00 f3 ff ff 	mov    %rax,-0xd00(%rbp)
   18d84:	48 8d 85 20 ee ff ff 	lea    -0x11e0(%rbp),%rax
   18d8b:	48 83 c0 0c          	add    $0xc,%rax
   18d8f:	48 89 85 08 f3 ff ff 	mov    %rax,-0xcf8(%rbp)
   18d96:	48 c7 85 10 f3 ff ff 	movq   $0x0,-0xcf0(%rbp)
   18d9d:	00 00 00 00 
   18da1:	48 c7 85 18 f3 ff ff 	movq   $0x0,-0xce8(%rbp)
   18da8:	00 00 00 00 
   18dac:	48 8d 85 20 ee ff ff 	lea    -0x11e0(%rbp),%rax
   18db3:	48 83 c0 0c          	add    $0xc,%rax
   18db7:	48 89 85 20 f3 ff ff 	mov    %rax,-0xce0(%rbp)
   18dbe:	48 8d 85 68 eb ff ff 	lea    -0x1498(%rbp),%rax
   18dc5:	48 89 85 28 f3 ff ff 	mov    %rax,-0xcd8(%rbp)
   18dcc:	48 8d 85 20 ee ff ff 	lea    -0x11e0(%rbp),%rax
   18dd3:	48 83 c0 0c          	add    $0xc,%rax
   18dd7:	48 89 85 30 f3 ff ff 	mov    %rax,-0xcd0(%rbp)
   18dde:	48 8d 85 20 ee ff ff 	lea    -0x11e0(%rbp),%rax
   18de5:	48 83 c0 08          	add    $0x8,%rax
   18de9:	48 89 85 38 f3 ff ff 	mov    %rax,-0xcc8(%rbp)
   18df0:	48 8d 85 68 eb ff ff 	lea    -0x1498(%rbp),%rax
   18df7:	48 89 85 40 f3 ff ff 	mov    %rax,-0xcc0(%rbp)
   18dfe:	48 8d 85 68 eb ff ff 	lea    -0x1498(%rbp),%rax
   18e05:	48 89 85 48 f3 ff ff 	mov    %rax,-0xcb8(%rbp)
   18e0c:	48 8d 85 20 ee ff ff 	lea    -0x11e0(%rbp),%rax
   18e13:	48 83 c0 08          	add    $0x8,%rax
   18e17:	48 89 85 50 f3 ff ff 	mov    %rax,-0xcb0(%rbp)
   18e1e:	48 8d 85 20 ee ff ff 	lea    -0x11e0(%rbp),%rax
   18e25:	48 83 c0 0c          	add    $0xc,%rax
   18e29:	48 89 85 58 f3 ff ff 	mov    %rax,-0xca8(%rbp)
   18e30:	48 8d 85 20 ee ff ff 	lea    -0x11e0(%rbp),%rax
   18e37:	48 83 c0 08          	add    $0x8,%rax
   18e3b:	48 89 85 60 f3 ff ff 	mov    %rax,-0xca0(%rbp)
   18e42:	48 8d 85 68 eb ff ff 	lea    -0x1498(%rbp),%rax
   18e49:	48 89 85 68 f3 ff ff 	mov    %rax,-0xc98(%rbp)
   18e50:	48 c7 85 70 f3 ff ff 	movq   $0x0,-0xc90(%rbp)
   18e57:	00 00 00 00 
   18e5b:	48 c7 85 78 f3 ff ff 	movq   $0x0,-0xc88(%rbp)
   18e62:	00 00 00 00 
   18e66:	48 8d 85 68 eb ff ff 	lea    -0x1498(%rbp),%rax
   18e6d:	48 89 85 80 f3 ff ff 	mov    %rax,-0xc80(%rbp)
   18e74:	48 c7 85 88 f3 ff ff 	movq   $0x0,-0xc78(%rbp)
   18e7b:	00 00 00 00 
   18e7f:	48 8d 85 68 eb ff ff 	lea    -0x1498(%rbp),%rax
   18e86:	48 89 85 90 f3 ff ff 	mov    %rax,-0xc70(%rbp)
   18e8d:	48 c7 85 98 f3 ff ff 	movq   $0x0,-0xc68(%rbp)
   18e94:	00 00 00 00 
   18e98:	48 c7 85 a0 f3 ff ff 	movq   $0x0,-0xc60(%rbp)
   18e9f:	00 00 00 00 
   18ea3:	48 c7 85 a8 f3 ff ff 	movq   $0x0,-0xc58(%rbp)
   18eaa:	00 00 00 00 
   18eae:	48 8d 85 68 eb ff ff 	lea    -0x1498(%rbp),%rax
   18eb5:	48 89 85 b0 f3 ff ff 	mov    %rax,-0xc50(%rbp)
   18ebc:	48 c7 85 b8 f3 ff ff 	movq   $0x0,-0xc48(%rbp)
   18ec3:	00 00 00 00 
   18ec7:	48 8d 85 68 eb ff ff 	lea    -0x1498(%rbp),%rax
   18ece:	48 89 85 c0 f3 ff ff 	mov    %rax,-0xc40(%rbp)
   18ed5:	48 c7 85 c8 f3 ff ff 	movq   $0x0,-0xc38(%rbp)
   18edc:	00 00 00 00 
   18ee0:	48 c7 85 d0 f3 ff ff 	movq   $0x0,-0xc30(%rbp)
   18ee7:	00 00 00 00 
   18eeb:	48 8d 85 68 eb ff ff 	lea    -0x1498(%rbp),%rax
   18ef2:	48 89 85 d8 f3 ff ff 	mov    %rax,-0xc28(%rbp)
   18ef9:	48 8d 85 20 ee ff ff 	lea    -0x11e0(%rbp),%rax
   18f00:	48 83 c0 08          	add    $0x8,%rax
   18f04:	48 89 85 e0 f3 ff ff 	mov    %rax,-0xc20(%rbp)
   18f0b:	48 8d 85 20 ee ff ff 	lea    -0x11e0(%rbp),%rax
   18f12:	48 83 c0 0c          	add    $0xc,%rax
   18f16:	48 89 85 e8 f3 ff ff 	mov    %rax,-0xc18(%rbp)
   18f1d:	48 8d 85 20 ee ff ff 	lea    -0x11e0(%rbp),%rax
   18f24:	48 83 c0 08          	add    $0x8,%rax
   18f28:	48 89 85 f0 f3 ff ff 	mov    %rax,-0xc10(%rbp)
   18f2f:	48 8d 85 68 eb ff ff 	lea    -0x1498(%rbp),%rax
   18f36:	48 89 85 f8 f3 ff ff 	mov    %rax,-0xc08(%rbp)
   18f3d:	48 8d 85 68 eb ff ff 	lea    -0x1498(%rbp),%rax
   18f44:	48 89 85 00 f4 ff ff 	mov    %rax,-0xc00(%rbp)
   18f4b:	48 8d 85 20 ee ff ff 	lea    -0x11e0(%rbp),%rax
   18f52:	48 83 c0 08          	add    $0x8,%rax
   18f56:	48 89 85 08 f4 ff ff 	mov    %rax,-0xbf8(%rbp)
   18f5d:	48 8d 85 20 ee ff ff 	lea    -0x11e0(%rbp),%rax
   18f64:	48 83 c0 0c          	add    $0xc,%rax
   18f68:	48 89 85 10 f4 ff ff 	mov    %rax,-0xbf0(%rbp)
   18f6f:	48 c7 85 b0 ed ff ff 	movq   $0x7,-0x1250(%rbp)
   18f76:	07 00 00 00 
   18f7a:	e9 1a 0d 00 00       	jmpq   19c99 <func_13+0x1dd5>
   18f7f:	48 c7 85 40 ed ff ff 	movq   $0xffffffffffffffff,-0x12c0(%rbp)
   18f86:	ff ff ff ff 
   18f8a:	c7 85 40 ee ff ff 00 	movl   $0x0,-0x11c0(%rbp)
   18f91:	00 00 00 
   18f94:	c7 85 44 ee ff ff 00 	movl   $0x0,-0x11bc(%rbp)
   18f9b:	00 00 00 
   18f9e:	c7 85 48 ee ff ff c6 	movl   $0x9d4cc2c6,-0x11b8(%rbp)
   18fa5:	c2 4c 9d 
   18fa8:	c7 85 4c ee ff ff 00 	movl   $0x0,-0x11b4(%rbp)
   18faf:	00 00 00 
   18fb2:	c7 85 50 ee ff ff 00 	movl   $0x0,-0x11b0(%rbp)
   18fb9:	00 00 00 
   18fbc:	c7 85 54 ee ff ff c6 	movl   $0x9d4cc2c6,-0x11ac(%rbp)
   18fc3:	c2 4c 9d 
   18fc6:	c7 85 58 ee ff ff 00 	movl   $0x0,-0x11a8(%rbp)
   18fcd:	00 00 00 
   18fd0:	c7 85 5c ee ff ff 00 	movl   $0x0,-0x11a4(%rbp)
   18fd7:	00 00 00 
   18fda:	c6 85 4a eb ff ff 00 	movb   $0x0,-0x14b6(%rbp)
   18fe1:	e9 92 0c 00 00       	jmpq   19c78 <func_13+0x1db4>
   18fe6:	48 8d 05 e3 f0 00 00 	lea    0xf0e3(%rip),%rax        # 280d0 <g_82>
   18fed:	48 89 85 b0 f8 ff ff 	mov    %rax,-0x750(%rbp)
   18ff4:	48 8d 05 cd f0 00 00 	lea    0xf0cd(%rip),%rax        # 280c8 <g_69>
   18ffb:	48 89 85 b8 f8 ff ff 	mov    %rax,-0x748(%rbp)
   19002:	48 8d 05 bf f0 00 00 	lea    0xf0bf(%rip),%rax        # 280c8 <g_69>
   19009:	48 89 85 c0 f8 ff ff 	mov    %rax,-0x740(%rbp)
   19010:	48 c7 85 c8 f8 ff ff 	movq   $0x0,-0x738(%rbp)
   19017:	00 00 00 00 
   1901b:	48 c7 85 d0 f8 ff ff 	movq   $0x0,-0x730(%rbp)
   19022:	00 00 00 00 
   19026:	48 c7 85 d8 f8 ff ff 	movq   $0x0,-0x728(%rbp)
   1902d:	00 00 00 00 
   19031:	48 8d 05 90 f0 00 00 	lea    0xf090(%rip),%rax        # 280c8 <g_69>
   19038:	48 89 85 e0 f8 ff ff 	mov    %rax,-0x720(%rbp)
   1903f:	48 c7 85 e8 f8 ff ff 	movq   $0x0,-0x718(%rbp)
   19046:	00 00 00 00 
   1904a:	48 c7 85 f0 f8 ff ff 	movq   $0x0,-0x710(%rbp)
   19051:	00 00 00 00 
   19055:	48 c7 85 f8 f8 ff ff 	movq   $0x0,-0x708(%rbp)
   1905c:	00 00 00 00 
   19060:	48 8d 05 61 f0 00 00 	lea    0xf061(%rip),%rax        # 280c8 <g_69>
   19067:	48 89 85 00 f9 ff ff 	mov    %rax,-0x700(%rbp)
   1906e:	48 8d 05 53 f0 00 00 	lea    0xf053(%rip),%rax        # 280c8 <g_69>
   19075:	48 89 85 08 f9 ff ff 	mov    %rax,-0x6f8(%rbp)
   1907c:	48 8d 05 4d f0 00 00 	lea    0xf04d(%rip),%rax        # 280d0 <g_82>
   19083:	48 89 85 10 f9 ff ff 	mov    %rax,-0x6f0(%rbp)
   1908a:	48 8d 05 3f f0 00 00 	lea    0xf03f(%rip),%rax        # 280d0 <g_82>
   19091:	48 89 85 18 f9 ff ff 	mov    %rax,-0x6e8(%rbp)
   19098:	48 8d 05 29 f0 00 00 	lea    0xf029(%rip),%rax        # 280c8 <g_69>
   1909f:	48 89 85 20 f9 ff ff 	mov    %rax,-0x6e0(%rbp)
   190a6:	48 8d 85 4a eb ff ff 	lea    -0x14b6(%rbp),%rax
   190ad:	48 89 85 28 f9 ff ff 	mov    %rax,-0x6d8(%rbp)
   190b4:	48 c7 85 30 f9 ff ff 	movq   $0x0,-0x6d0(%rbp)
   190bb:	00 00 00 00 
   190bf:	48 8d 85 4a eb ff ff 	lea    -0x14b6(%rbp),%rax
   190c6:	48 89 85 38 f9 ff ff 	mov    %rax,-0x6c8(%rbp)
   190cd:	48 8d 05 fc ef 00 00 	lea    0xeffc(%rip),%rax        # 280d0 <g_82>
   190d4:	48 89 85 40 f9 ff ff 	mov    %rax,-0x6c0(%rbp)
   190db:	48 c7 85 48 f9 ff ff 	movq   $0x0,-0x6b8(%rbp)
   190e2:	00 00 00 00 
   190e6:	48 8d 85 4a eb ff ff 	lea    -0x14b6(%rbp),%rax
   190ed:	48 89 85 50 f9 ff ff 	mov    %rax,-0x6b0(%rbp)
   190f4:	48 8d 05 cd ef 00 00 	lea    0xefcd(%rip),%rax        # 280c8 <g_69>
   190fb:	48 89 85 58 f9 ff ff 	mov    %rax,-0x6a8(%rbp)
   19102:	48 8d 05 ff f3 00 00 	lea    0xf3ff(%rip),%rax        # 28508 <g_208>
   19109:	48 89 85 60 f9 ff ff 	mov    %rax,-0x6a0(%rbp)
   19110:	48 8d 05 b9 ef 00 00 	lea    0xefb9(%rip),%rax        # 280d0 <g_82>
   19117:	48 89 85 68 f9 ff ff 	mov    %rax,-0x698(%rbp)
   1911e:	48 8d 05 ab ef 00 00 	lea    0xefab(%rip),%rax        # 280d0 <g_82>
   19125:	48 89 85 70 f9 ff ff 	mov    %rax,-0x690(%rbp)
   1912c:	48 c7 85 78 f9 ff ff 	movq   $0x0,-0x688(%rbp)
   19133:	00 00 00 00 
   19137:	48 8d 05 ca f3 00 00 	lea    0xf3ca(%rip),%rax        # 28508 <g_208>
   1913e:	48 89 85 80 f9 ff ff 	mov    %rax,-0x680(%rbp)
   19145:	48 8d 05 84 ef 00 00 	lea    0xef84(%rip),%rax        # 280d0 <g_82>
   1914c:	48 89 85 88 f9 ff ff 	mov    %rax,-0x678(%rbp)
   19153:	48 8d 85 4a eb ff ff 	lea    -0x14b6(%rbp),%rax
   1915a:	48 89 85 90 f9 ff ff 	mov    %rax,-0x670(%rbp)
   19161:	48 8d 85 4a eb ff ff 	lea    -0x14b6(%rbp),%rax
   19168:	48 89 85 98 f9 ff ff 	mov    %rax,-0x668(%rbp)
   1916f:	48 c7 85 a0 f9 ff ff 	movq   $0x0,-0x660(%rbp)
   19176:	00 00 00 00 
   1917a:	48 8d 85 4a eb ff ff 	lea    -0x14b6(%rbp),%rax
   19181:	48 89 85 a8 f9 ff ff 	mov    %rax,-0x658(%rbp)
   19188:	48 8d 85 4a eb ff ff 	lea    -0x14b6(%rbp),%rax
   1918f:	48 89 85 b0 f9 ff ff 	mov    %rax,-0x650(%rbp)
   19196:	48 8d 85 4a eb ff ff 	lea    -0x14b6(%rbp),%rax
   1919d:	48 89 85 b8 f9 ff ff 	mov    %rax,-0x648(%rbp)
   191a4:	48 c7 85 c0 f9 ff ff 	movq   $0x0,-0x640(%rbp)
   191ab:	00 00 00 00 
   191af:	48 8d 05 12 ef 00 00 	lea    0xef12(%rip),%rax        # 280c8 <g_69>
   191b6:	48 89 85 c8 f9 ff ff 	mov    %rax,-0x638(%rbp)
   191bd:	48 8d 85 4a eb ff ff 	lea    -0x14b6(%rbp),%rax
   191c4:	48 89 85 d0 f9 ff ff 	mov    %rax,-0x630(%rbp)
   191cb:	48 8d 05 fe ee 00 00 	lea    0xeefe(%rip),%rax        # 280d0 <g_82>
   191d2:	48 89 85 d8 f9 ff ff 	mov    %rax,-0x628(%rbp)
   191d9:	48 c7 85 e0 f9 ff ff 	movq   $0x0,-0x620(%rbp)
   191e0:	00 00 00 00 
   191e4:	48 8d 05 dd ee 00 00 	lea    0xeedd(%rip),%rax        # 280c8 <g_69>
   191eb:	48 89 85 e8 f9 ff ff 	mov    %rax,-0x618(%rbp)
   191f2:	48 8d 05 d7 ee 00 00 	lea    0xeed7(%rip),%rax        # 280d0 <g_82>
   191f9:	48 89 85 f0 f9 ff ff 	mov    %rax,-0x610(%rbp)
   19200:	48 8d 05 01 f3 00 00 	lea    0xf301(%rip),%rax        # 28508 <g_208>
   19207:	48 89 85 f8 f9 ff ff 	mov    %rax,-0x608(%rbp)
   1920e:	48 c7 85 00 fa ff ff 	movq   $0x0,-0x600(%rbp)
   19215:	00 00 00 00 
   19219:	48 c7 85 08 fa ff ff 	movq   $0x0,-0x5f8(%rbp)
   19220:	00 00 00 00 
   19224:	48 8d 05 a5 ee 00 00 	lea    0xeea5(%rip),%rax        # 280d0 <g_82>
   1922b:	48 89 85 10 fa ff ff 	mov    %rax,-0x5f0(%rbp)
   19232:	48 c7 85 18 fa ff ff 	movq   $0x0,-0x5e8(%rbp)
   19239:	00 00 00 00 
   1923d:	48 c7 85 20 fa ff ff 	movq   $0x0,-0x5e0(%rbp)
   19244:	00 00 00 00 
   19248:	48 8d 05 81 ee 00 00 	lea    0xee81(%rip),%rax        # 280d0 <g_82>
   1924f:	48 89 85 28 fa ff ff 	mov    %rax,-0x5d8(%rbp)
   19256:	48 8d 85 4a eb ff ff 	lea    -0x14b6(%rbp),%rax
   1925d:	48 89 85 30 fa ff ff 	mov    %rax,-0x5d0(%rbp)
   19264:	48 c7 85 38 fa ff ff 	movq   $0x0,-0x5c8(%rbp)
   1926b:	00 00 00 00 
   1926f:	48 8d 85 4a eb ff ff 	lea    -0x14b6(%rbp),%rax
   19276:	48 89 85 40 fa ff ff 	mov    %rax,-0x5c0(%rbp)
   1927d:	48 8d 85 4a eb ff ff 	lea    -0x14b6(%rbp),%rax
   19284:	48 89 85 48 fa ff ff 	mov    %rax,-0x5b8(%rbp)
   1928b:	48 8d 85 4a eb ff ff 	lea    -0x14b6(%rbp),%rax
   19292:	48 89 85 50 fa ff ff 	mov    %rax,-0x5b0(%rbp)
   19299:	48 8d 05 68 f2 00 00 	lea    0xf268(%rip),%rax        # 28508 <g_208>
   192a0:	48 89 85 58 fa ff ff 	mov    %rax,-0x5a8(%rbp)
   192a7:	48 8d 85 4a eb ff ff 	lea    -0x14b6(%rbp),%rax
   192ae:	48 89 85 60 fa ff ff 	mov    %rax,-0x5a0(%rbp)
   192b5:	48 8d 85 4a eb ff ff 	lea    -0x14b6(%rbp),%rax
   192bc:	48 89 85 68 fa ff ff 	mov    %rax,-0x598(%rbp)
   192c3:	48 8d 85 4a eb ff ff 	lea    -0x14b6(%rbp),%rax
   192ca:	48 89 85 70 fa ff ff 	mov    %rax,-0x590(%rbp)
   192d1:	48 c7 85 78 fa ff ff 	movq   $0x0,-0x588(%rbp)
   192d8:	00 00 00 00 
   192dc:	48 8d 85 4a eb ff ff 	lea    -0x14b6(%rbp),%rax
   192e3:	48 89 85 80 fa ff ff 	mov    %rax,-0x580(%rbp)
   192ea:	48 8d 05 df ed 00 00 	lea    0xeddf(%rip),%rax        # 280d0 <g_82>
   192f1:	48 89 85 88 fa ff ff 	mov    %rax,-0x578(%rbp)
   192f8:	48 c7 85 90 fa ff ff 	movq   $0x0,-0x570(%rbp)
   192ff:	00 00 00 00 
   19303:	48 c7 85 98 fa ff ff 	movq   $0x0,-0x568(%rbp)
   1930a:	00 00 00 00 
   1930e:	48 8d 05 bb ed 00 00 	lea    0xedbb(%rip),%rax        # 280d0 <g_82>
   19315:	48 89 85 a0 fa ff ff 	mov    %rax,-0x560(%rbp)
   1931c:	48 c7 85 a8 fa ff ff 	movq   $0x0,-0x558(%rbp)
   19323:	00 00 00 00 
   19327:	48 c7 85 b0 fa ff ff 	movq   $0x0,-0x550(%rbp)
   1932e:	00 00 00 00 
   19332:	48 8d 05 cf f1 00 00 	lea    0xf1cf(%rip),%rax        # 28508 <g_208>
   19339:	48 89 85 b8 fa ff ff 	mov    %rax,-0x548(%rbp)
   19340:	48 8d 05 89 ed 00 00 	lea    0xed89(%rip),%rax        # 280d0 <g_82>
   19347:	48 89 85 c0 fa ff ff 	mov    %rax,-0x540(%rbp)
   1934e:	48 8d 05 73 ed 00 00 	lea    0xed73(%rip),%rax        # 280c8 <g_69>
   19355:	48 89 85 c8 fa ff ff 	mov    %rax,-0x538(%rbp)
   1935c:	48 c7 85 d0 fa ff ff 	movq   $0x0,-0x530(%rbp)
   19363:	00 00 00 00 
   19367:	48 8d 05 62 ed 00 00 	lea    0xed62(%rip),%rax        # 280d0 <g_82>
   1936e:	48 89 85 d8 fa ff ff 	mov    %rax,-0x528(%rbp)
   19375:	48 8d 85 4a eb ff ff 	lea    -0x14b6(%rbp),%rax
   1937c:	48 89 85 e0 fa ff ff 	mov    %rax,-0x520(%rbp)
   19383:	48 8d 05 3e ed 00 00 	lea    0xed3e(%rip),%rax        # 280c8 <g_69>
   1938a:	48 89 85 e8 fa ff ff 	mov    %rax,-0x518(%rbp)
   19391:	48 c7 85 f0 fa ff ff 	movq   $0x0,-0x510(%rbp)
   19398:	00 00 00 00 
   1939c:	48 8d 85 4a eb ff ff 	lea    -0x14b6(%rbp),%rax
   193a3:	48 89 85 f8 fa ff ff 	mov    %rax,-0x508(%rbp)
   193aa:	48 8d 85 4a eb ff ff 	lea    -0x14b6(%rbp),%rax
   193b1:	48 89 85 00 fb ff ff 	mov    %rax,-0x500(%rbp)
   193b8:	48 8d 85 4a eb ff ff 	lea    -0x14b6(%rbp),%rax
   193bf:	48 89 85 08 fb ff ff 	mov    %rax,-0x4f8(%rbp)
   193c6:	48 c7 85 10 fb ff ff 	movq   $0x0,-0x4f0(%rbp)
   193cd:	00 00 00 00 
   193d1:	48 8d 85 4a eb ff ff 	lea    -0x14b6(%rbp),%rax
   193d8:	48 89 85 18 fb ff ff 	mov    %rax,-0x4e8(%rbp)
   193df:	48 8d 85 4a eb ff ff 	lea    -0x14b6(%rbp),%rax
   193e6:	48 89 85 20 fb ff ff 	mov    %rax,-0x4e0(%rbp)
   193ed:	48 8d 05 dc ec 00 00 	lea    0xecdc(%rip),%rax        # 280d0 <g_82>
   193f4:	48 89 85 28 fb ff ff 	mov    %rax,-0x4d8(%rbp)
   193fb:	48 8d 05 06 f1 00 00 	lea    0xf106(%rip),%rax        # 28508 <g_208>
   19402:	48 89 85 30 fb ff ff 	mov    %rax,-0x4d0(%rbp)
   19409:	48 c7 85 38 fb ff ff 	movq   $0x0,-0x4c8(%rbp)
   19410:	00 00 00 00 
   19414:	48 8d 05 b5 ec 00 00 	lea    0xecb5(%rip),%rax        # 280d0 <g_82>
   1941b:	48 89 85 40 fb ff ff 	mov    %rax,-0x4c0(%rbp)
   19422:	48 8d 05 a7 ec 00 00 	lea    0xeca7(%rip),%rax        # 280d0 <g_82>
   19429:	48 89 85 48 fb ff ff 	mov    %rax,-0x4b8(%rbp)
   19430:	48 8d 05 d1 f0 00 00 	lea    0xf0d1(%rip),%rax        # 28508 <g_208>
   19437:	48 89 85 50 fb ff ff 	mov    %rax,-0x4b0(%rbp)
   1943e:	48 8d 05 83 ec 00 00 	lea    0xec83(%rip),%rax        # 280c8 <g_69>
   19445:	48 89 85 58 fb ff ff 	mov    %rax,-0x4a8(%rbp)
   1944c:	48 8d 85 4a eb ff ff 	lea    -0x14b6(%rbp),%rax
   19453:	48 89 85 60 fb ff ff 	mov    %rax,-0x4a0(%rbp)
   1945a:	48 c7 85 68 fb ff ff 	movq   $0x0,-0x498(%rbp)
   19461:	00 00 00 00 
   19465:	48 8d 05 64 ec 00 00 	lea    0xec64(%rip),%rax        # 280d0 <g_82>
   1946c:	48 89 85 70 fb ff ff 	mov    %rax,-0x490(%rbp)
   19473:	48 8d 85 4a eb ff ff 	lea    -0x14b6(%rbp),%rax
   1947a:	48 89 85 78 fb ff ff 	mov    %rax,-0x488(%rbp)
   19481:	48 c7 85 80 fb ff ff 	movq   $0x0,-0x480(%rbp)
   19488:	00 00 00 00 
   1948c:	48 8d 85 4a eb ff ff 	lea    -0x14b6(%rbp),%rax
   19493:	48 89 85 88 fb ff ff 	mov    %rax,-0x478(%rbp)
   1949a:	48 8d 05 27 ec 00 00 	lea    0xec27(%rip),%rax        # 280c8 <g_69>
   194a1:	48 89 85 90 fb ff ff 	mov    %rax,-0x470(%rbp)
   194a8:	48 8d 05 21 ec 00 00 	lea    0xec21(%rip),%rax        # 280d0 <g_82>
   194af:	48 89 85 98 fb ff ff 	mov    %rax,-0x468(%rbp)
   194b6:	48 8d 05 4b f0 00 00 	lea    0xf04b(%rip),%rax        # 28508 <g_208>
   194bd:	48 89 85 a0 fb ff ff 	mov    %rax,-0x460(%rbp)
   194c4:	48 c7 85 a8 fb ff ff 	movq   $0x0,-0x458(%rbp)
   194cb:	00 00 00 00 
   194cf:	48 8d 05 32 f0 00 00 	lea    0xf032(%rip),%rax        # 28508 <g_208>
   194d6:	48 89 85 b0 fb ff ff 	mov    %rax,-0x450(%rbp)
   194dd:	48 8d 85 4a eb ff ff 	lea    -0x14b6(%rbp),%rax
   194e4:	48 89 85 b8 fb ff ff 	mov    %rax,-0x448(%rbp)
   194eb:	48 8d 85 4a eb ff ff 	lea    -0x14b6(%rbp),%rax
   194f2:	48 89 85 c0 fb ff ff 	mov    %rax,-0x440(%rbp)
   194f9:	48 c7 85 c8 fb ff ff 	movq   $0x0,-0x438(%rbp)
   19500:	00 00 00 00 
   19504:	48 8d 05 c5 eb 00 00 	lea    0xebc5(%rip),%rax        # 280d0 <g_82>
   1950b:	48 89 85 d0 fb ff ff 	mov    %rax,-0x430(%rbp)
   19512:	48 c7 85 d8 fb ff ff 	movq   $0x0,-0x428(%rbp)
   19519:	00 00 00 00 
   1951d:	48 8d 85 4a eb ff ff 	lea    -0x14b6(%rbp),%rax
   19524:	48 89 85 e0 fb ff ff 	mov    %rax,-0x420(%rbp)
   1952b:	48 8d 85 4a eb ff ff 	lea    -0x14b6(%rbp),%rax
   19532:	48 89 85 e8 fb ff ff 	mov    %rax,-0x418(%rbp)
   19539:	48 8d 05 c8 ef 00 00 	lea    0xefc8(%rip),%rax        # 28508 <g_208>
   19540:	48 89 85 f0 fb ff ff 	mov    %rax,-0x410(%rbp)
   19547:	48 c7 85 f8 fb ff ff 	movq   $0x0,-0x408(%rbp)
   1954e:	00 00 00 00 
   19552:	48 8d 05 af ef 00 00 	lea    0xefaf(%rip),%rax        # 28508 <g_208>
   19559:	48 89 85 00 fc ff ff 	mov    %rax,-0x400(%rbp)
   19560:	48 8d 05 69 eb 00 00 	lea    0xeb69(%rip),%rax        # 280d0 <g_82>
   19567:	48 89 85 08 fc ff ff 	mov    %rax,-0x3f8(%rbp)
   1956e:	48 c7 85 10 fc ff ff 	movq   $0x0,-0x3f0(%rbp)
   19575:	00 00 00 00 
   19579:	48 c7 85 18 fc ff ff 	movq   $0x0,-0x3e8(%rbp)
   19580:	00 00 00 00 
   19584:	48 8d 05 3d eb 00 00 	lea    0xeb3d(%rip),%rax        # 280c8 <g_69>
   1958b:	48 89 85 20 fc ff ff 	mov    %rax,-0x3e0(%rbp)
   19592:	48 c7 85 28 fc ff ff 	movq   $0x0,-0x3d8(%rbp)
   19599:	00 00 00 00 
   1959d:	48 8d 85 4a eb ff ff 	lea    -0x14b6(%rbp),%rax
   195a4:	48 89 85 30 fc ff ff 	mov    %rax,-0x3d0(%rbp)
   195ab:	48 8d 85 4a eb ff ff 	lea    -0x14b6(%rbp),%rax
   195b2:	48 89 85 38 fc ff ff 	mov    %rax,-0x3c8(%rbp)
   195b9:	48 c7 85 40 fc ff ff 	movq   $0x0,-0x3c0(%rbp)
   195c0:	00 00 00 00 
   195c4:	48 8d 05 fd ea 00 00 	lea    0xeafd(%rip),%rax        # 280c8 <g_69>
   195cb:	48 89 85 48 fc ff ff 	mov    %rax,-0x3b8(%rbp)
   195d2:	48 8d 05 f7 ea 00 00 	lea    0xeaf7(%rip),%rax        # 280d0 <g_82>
   195d9:	48 89 85 50 fc ff ff 	mov    %rax,-0x3b0(%rbp)
   195e0:	48 8d 85 4a eb ff ff 	lea    -0x14b6(%rbp),%rax
   195e7:	48 89 85 58 fc ff ff 	mov    %rax,-0x3a8(%rbp)
   195ee:	48 8d 05 d3 ea 00 00 	lea    0xead3(%rip),%rax        # 280c8 <g_69>
   195f5:	48 89 85 60 fc ff ff 	mov    %rax,-0x3a0(%rbp)
   195fc:	48 8d 05 c5 ea 00 00 	lea    0xeac5(%rip),%rax        # 280c8 <g_69>
   19603:	48 89 85 68 fc ff ff 	mov    %rax,-0x398(%rbp)
   1960a:	48 8d 05 b7 ea 00 00 	lea    0xeab7(%rip),%rax        # 280c8 <g_69>
   19611:	48 89 85 70 fc ff ff 	mov    %rax,-0x390(%rbp)
   19618:	48 8d 05 a9 ea 00 00 	lea    0xeaa9(%rip),%rax        # 280c8 <g_69>
   1961f:	48 89 85 78 fc ff ff 	mov    %rax,-0x388(%rbp)
   19626:	48 8d 85 4a eb ff ff 	lea    -0x14b6(%rbp),%rax
   1962d:	48 89 85 80 fc ff ff 	mov    %rax,-0x380(%rbp)
   19634:	48 c7 85 88 fc ff ff 	movq   $0x0,-0x378(%rbp)
   1963b:	00 00 00 00 
   1963f:	48 8d 05 82 ea 00 00 	lea    0xea82(%rip),%rax        # 280c8 <g_69>
   19646:	48 89 85 90 fc ff ff 	mov    %rax,-0x370(%rbp)
   1964d:	48 8d 85 4a eb ff ff 	lea    -0x14b6(%rbp),%rax
   19654:	48 89 85 98 fc ff ff 	mov    %rax,-0x368(%rbp)
   1965b:	48 8d 05 6e ea 00 00 	lea    0xea6e(%rip),%rax        # 280d0 <g_82>
   19662:	48 89 85 a0 fc ff ff 	mov    %rax,-0x360(%rbp)
   19669:	48 8d 05 60 ea 00 00 	lea    0xea60(%rip),%rax        # 280d0 <g_82>
   19670:	48 89 85 a8 fc ff ff 	mov    %rax,-0x358(%rbp)
   19677:	48 c7 85 b0 fc ff ff 	movq   $0x0,-0x350(%rbp)
   1967e:	00 00 00 00 
   19682:	48 8d 05 7f ee 00 00 	lea    0xee7f(%rip),%rax        # 28508 <g_208>
   19689:	48 89 85 b8 fc ff ff 	mov    %rax,-0x348(%rbp)
   19690:	48 c7 85 c0 fc ff ff 	movq   $0x0,-0x340(%rbp)
   19697:	00 00 00 00 
   1969b:	48 8d 05 26 ea 00 00 	lea    0xea26(%rip),%rax        # 280c8 <g_69>
   196a2:	48 89 85 c8 fc ff ff 	mov    %rax,-0x338(%rbp)
   196a9:	48 8d 05 20 ea 00 00 	lea    0xea20(%rip),%rax        # 280d0 <g_82>
   196b0:	48 89 85 d0 fc ff ff 	mov    %rax,-0x330(%rbp)
   196b7:	48 8d 05 12 ea 00 00 	lea    0xea12(%rip),%rax        # 280d0 <g_82>
   196be:	48 89 85 d8 fc ff ff 	mov    %rax,-0x328(%rbp)
   196c5:	48 8d 85 4a eb ff ff 	lea    -0x14b6(%rbp),%rax
   196cc:	48 89 85 e0 fc ff ff 	mov    %rax,-0x320(%rbp)
   196d3:	48 8d 05 ee e9 00 00 	lea    0xe9ee(%rip),%rax        # 280c8 <g_69>
   196da:	48 89 85 e8 fc ff ff 	mov    %rax,-0x318(%rbp)
   196e1:	48 c7 85 f0 fc ff ff 	movq   $0x0,-0x310(%rbp)
   196e8:	00 00 00 00 
   196ec:	48 c7 85 f8 fc ff ff 	movq   $0x0,-0x308(%rbp)
   196f3:	00 00 00 00 
   196f7:	48 8d 05 d2 e9 00 00 	lea    0xe9d2(%rip),%rax        # 280d0 <g_82>
   196fe:	48 89 85 00 fd ff ff 	mov    %rax,-0x300(%rbp)
   19705:	48 c7 85 08 fd ff ff 	movq   $0x0,-0x2f8(%rbp)
   1970c:	00 00 00 00 
   19710:	48 8d 05 2d 3d 01 00 	lea    0x13d2d(%rip),%rax        # 2d444 <g_121>
   19717:	48 89 85 48 ed ff ff 	mov    %rax,-0x12b8(%rbp)
   1971e:	48 8d 85 54 eb ff ff 	lea    -0x14ac(%rbp),%rax
   19725:	48 89 85 50 ed ff ff 	mov    %rax,-0x12b0(%rbp)
   1972c:	48 8d 85 a0 ed ff ff 	lea    -0x1260(%rbp),%rax
   19733:	48 83 c0 18          	add    $0x18,%rax
   19737:	48 89 85 58 ed ff ff 	mov    %rax,-0x12a8(%rbp)
   1973e:	48 8d 05 c4 ed 00 00 	lea    0xedc4(%rip),%rax        # 28509 <g_289>
   19745:	48 89 85 60 ed ff ff 	mov    %rax,-0x12a0(%rbp)
   1974c:	48 8d 05 79 e9 00 00 	lea    0xe979(%rip),%rax        # 280cc <g_71>
   19753:	48 89 85 90 f0 ff ff 	mov    %rax,-0xf70(%rbp)
   1975a:	48 8d 05 6b e9 00 00 	lea    0xe96b(%rip),%rax        # 280cc <g_71>
   19761:	48 89 85 98 f0 ff ff 	mov    %rax,-0xf68(%rbp)
   19768:	48 8d 05 5d e9 00 00 	lea    0xe95d(%rip),%rax        # 280cc <g_71>
   1976f:	48 89 85 a0 f0 ff ff 	mov    %rax,-0xf60(%rbp)
   19776:	48 8d 05 4f e9 00 00 	lea    0xe94f(%rip),%rax        # 280cc <g_71>
   1977d:	48 89 85 a8 f0 ff ff 	mov    %rax,-0xf58(%rbp)
   19784:	48 8d 05 41 e9 00 00 	lea    0xe941(%rip),%rax        # 280cc <g_71>
   1978b:	48 89 85 b0 f0 ff ff 	mov    %rax,-0xf50(%rbp)
   19792:	48 8d 05 33 e9 00 00 	lea    0xe933(%rip),%rax        # 280cc <g_71>
   19799:	48 89 85 b8 f0 ff ff 	mov    %rax,-0xf48(%rbp)
   197a0:	48 8d 05 25 e9 00 00 	lea    0xe925(%rip),%rax        # 280cc <g_71>
   197a7:	48 89 85 c0 f0 ff ff 	mov    %rax,-0xf40(%rbp)
   197ae:	48 8d 05 17 e9 00 00 	lea    0xe917(%rip),%rax        # 280cc <g_71>
   197b5:	48 89 85 c8 f0 ff ff 	mov    %rax,-0xf38(%rbp)
   197bc:	48 8d 05 09 e9 00 00 	lea    0xe909(%rip),%rax        # 280cc <g_71>
   197c3:	48 89 85 d0 f0 ff ff 	mov    %rax,-0xf30(%rbp)
   197ca:	48 8b 85 28 eb ff ff 	mov    -0x14d8(%rbp),%rax
   197d1:	48 8d 48 07          	lea    0x7(%rax),%rcx
   197d5:	8b 85 60 eb ff ff    	mov    -0x14a0(%rbp),%eax
   197db:	48 98                	cltq   
   197dd:	48 8b 95 28 eb ff ff 	mov    -0x14d8(%rbp),%rdx
   197e4:	48 c1 e2 03          	shl    $0x3,%rdx
   197e8:	48 01 ca             	add    %rcx,%rdx
   197eb:	48 01 d0             	add    %rdx,%rax
   197ee:	48 8d 14 c5 00 00 00 	lea    0x0(,%rax,8),%rdx
   197f5:	00 
   197f6:	48 8d 05 43 e8 00 00 	lea    0xe843(%rip),%rax        # 28040 <g_18>
   197fd:	48 8b 04 02          	mov    (%rdx,%rax,1),%rax
   19801:	48 85 c0             	test   %rax,%rax
   19804:	0f 85 55 01 00 00    	jne    1995f <func_13+0x1a9b>
   1980a:	0f b6 85 4a eb ff ff 	movzbl -0x14b6(%rbp),%eax
   19811:	0f b6 d0             	movzbl %al,%edx
   19814:	8b 85 60 eb ff ff    	mov    -0x14a0(%rbp),%eax
   1981a:	48 8b 8d b0 ed ff ff 	mov    -0x1250(%rbp),%rcx
   19821:	48 8d 71 01          	lea    0x1(%rcx),%rsi
   19825:	48 98                	cltq   
   19827:	48 63 ca             	movslq %edx,%rcx
   1982a:	48 89 c2             	mov    %rax,%rdx
   1982d:	48 c1 e2 03          	shl    $0x3,%rdx
   19831:	48 01 c2             	add    %rax,%rdx
   19834:	48 89 c8             	mov    %rcx,%rax
   19837:	48 01 c0             	add    %rax,%rax
   1983a:	48 01 c8             	add    %rcx,%rax
   1983d:	48 8d 0c c5 00 00 00 	lea    0x0(,%rax,8),%rcx
   19844:	00 
   19845:	48 01 c8             	add    %rcx,%rax
   19848:	48 01 c0             	add    %rax,%rax
   1984b:	48 01 d0             	add    %rdx,%rax
   1984e:	48 8d 5d d0          	lea    -0x30(%rbp),%rbx
   19852:	48 01 d8             	add    %rbx,%rax
   19855:	48 01 f0             	add    %rsi,%rax
   19858:	48 2d 20 0e 00 00    	sub    $0xe20,%rax
   1985e:	0f b6 00             	movzbl (%rax),%eax
   19861:	84 c0                	test   %al,%al
   19863:	75 0b                	jne    19870 <func_13+0x19ac>
   19865:	48 8b 05 74 2e 01 00 	mov    0x12e74(%rip),%rax        # 2c6e0 <g_718>
   1986c:	8b 00                	mov    (%rax),%eax
   1986e:	85 c0                	test   %eax,%eax
   19870:	0f b6 05 91 ec 00 00 	movzbl 0xec91(%rip),%eax        # 28508 <g_208>
   19877:	83 c0 01             	add    $0x1,%eax
   1987a:	88 05 88 ec 00 00    	mov    %al,0xec88(%rip)        # 28508 <g_208>
   19880:	0f b6 05 81 ec 00 00 	movzbl 0xec81(%rip),%eax        # 28508 <g_208>
   19887:	84 c0                	test   %al,%al
   19889:	0f 85 94 00 00 00    	jne    19923 <func_13+0x1a5f>
   1988f:	80 bd 34 eb ff ff 00 	cmpb   $0x0,-0x14cc(%rbp)
   19896:	0f 84 88 00 00 00    	je     19924 <func_13+0x1a60>
   1989c:	8b 05 e2 ee 00 00    	mov    0xeee2(%rip),%eax        # 28784 <g_480>
   198a2:	c1 e0 03             	shl    $0x3,%eax
   198a5:	c0 f8 03             	sar    $0x3,%al
   198a8:	0f b6 d8             	movzbl %al,%ebx
   198ab:	48 8b 85 28 eb ff ff 	mov    -0x14d8(%rbp),%rax
   198b2:	41 89 c4             	mov    %eax,%r12d
   198b5:	0f be 95 34 eb ff ff 	movsbl -0x14cc(%rbp),%edx
   198bc:	48 8b 85 40 ed ff ff 	mov    -0x12c0(%rbp),%rax
   198c3:	98                   	cwtl   
   198c4:	89 d6                	mov    %edx,%esi
   198c6:	89 c7                	mov    %eax,%edi
   198c8:	e8 14 2c ff ff       	callq  c4e1 <safe_lshift_func_int16_t_s_u>
   198cd:	0f be c0             	movsbl %al,%eax
   198d0:	be ff ff ff ff       	mov    $0xffffffff,%esi
   198d5:	89 c7                	mov    %eax,%edi
   198d7:	e8 8e 29 ff ff       	callq  c26a <safe_div_func_int8_t_s_s>
   198dc:	48 8b 95 48 ed ff ff 	mov    -0x12b8(%rbp),%rdx
   198e3:	8b 12                	mov    (%rdx),%edx
   198e5:	0f be c0             	movsbl %al,%eax
   198e8:	21 c2                	and    %eax,%edx
   198ea:	48 8b 85 48 ed ff ff 	mov    -0x12b8(%rbp),%rax
   198f1:	89 10                	mov    %edx,(%rax)
   198f3:	48 8b 85 48 ed ff ff 	mov    -0x12b8(%rbp),%rax
   198fa:	8b 00                	mov    (%rax),%eax
   198fc:	44 89 e6             	mov    %r12d,%esi
   198ff:	89 c7                	mov    %eax,%edi
   19901:	e8 ca 35 ff ff       	callq  ced0 <safe_sub_func_uint32_t_u_u>
   19906:	0f b7 c0             	movzwl %ax,%eax
   19909:	be 05 00 00 00       	mov    $0x5,%esi
   1990e:	89 c7                	mov    %eax,%edi
   19910:	e8 65 35 ff ff       	callq  ce7a <safe_rshift_func_uint16_t_u_u>
   19915:	89 de                	mov    %ebx,%esi
   19917:	bf 00 00 00 00       	mov    $0x0,%edi
   1991c:	e8 57 32 ff ff       	callq  cb78 <safe_sub_func_uint8_t_u_u>
   19921:	84 c0                	test   %al,%al
   19923:	90                   	nop
   19924:	0f be 85 34 eb ff ff 	movsbl -0x14cc(%rbp),%eax
   1992b:	89 05 c7 eb 00 00    	mov    %eax,0xebc7(%rip)        # 284f8 <g_146+0x18>
   19931:	8b 15 c1 eb 00 00    	mov    0xebc1(%rip),%edx        # 284f8 <g_146+0x18>
   19937:	48 8b 85 50 ed ff ff 	mov    -0x12b0(%rbp),%rax
   1993e:	89 10                	mov    %edx,(%rax)
   19940:	48 8b 85 50 ed ff ff 	mov    -0x12b0(%rbp),%rax
   19947:	8b 10                	mov    (%rax),%edx
   19949:	48 8b 85 58 ed ff ff 	mov    -0x12a8(%rbp),%rax
   19950:	89 10                	mov    %edx,(%rax)
   19952:	48 8b 85 58 ed ff ff 	mov    -0x12a8(%rbp),%rax
   19959:	8b 00                	mov    (%rax),%eax
   1995b:	85 c0                	test   %eax,%eax
   1995d:	74 07                	je     19966 <func_13+0x1aa2>
   1995f:	b8 01 00 00 00       	mov    $0x1,%eax
   19964:	eb 05                	jmp    1996b <func_13+0x1aa7>
   19966:	b8 00 00 00 00       	mov    $0x0,%eax
   1996b:	48 98                	cltq   
   1996d:	be 09 00 00 00       	mov    $0x9,%esi
   19972:	48 89 c7             	mov    %rax,%rdi
   19975:	e8 3a 30 ff ff       	callq  c9b4 <safe_mod_func_int64_t_s_s>
   1997a:	48 89 c2             	mov    %rax,%rdx
   1997d:	48 8b 85 60 ed ff ff 	mov    -0x12a0(%rbp),%rax
   19984:	0f b6 00             	movzbl (%rax),%eax
   19987:	21 c2                	and    %eax,%edx
   19989:	48 8b 85 60 ed ff ff 	mov    -0x12a0(%rbp),%rax
   19990:	88 10                	mov    %dl,(%rax)
   19992:	48 8b 85 60 ed ff ff 	mov    -0x12a0(%rbp),%rax
   19999:	0f b6 00             	movzbl (%rax),%eax
   1999c:	0f b6 c0             	movzbl %al,%eax
   1999f:	89 c6                	mov    %eax,%esi
   199a1:	bf 45 00 00 00       	mov    $0x45,%edi
   199a6:	e8 e8 31 ff ff       	callq  cb93 <safe_mul_func_uint8_t_u_u>
   199ab:	89 c2                	mov    %eax,%edx
   199ad:	48 8b 05 8c 2c 01 00 	mov    0x12c8c(%rip),%rax        # 2c640 <g_460>
   199b4:	0f b6 d2             	movzbl %dl,%edx
   199b7:	89 10                	mov    %edx,(%rax)
   199b9:	0f b6 85 4a eb ff ff 	movzbl -0x14b6(%rbp),%eax
   199c0:	0f b6 c0             	movzbl %al,%eax
   199c3:	8d 50 07             	lea    0x7(%rax),%edx
   199c6:	48 8b 05 1b 2c 01 00 	mov    0x12c1b(%rip),%rax        # 2c5e8 <g_100>
   199cd:	48 63 d2             	movslq %edx,%rdx
   199d0:	48 8d 0c 95 00 00 00 	lea    0x0(,%rdx,4),%rcx
   199d7:	00 
   199d8:	48 8d 15 c1 e6 00 00 	lea    0xe6c1(%rip),%rdx        # 280a0 <g_63>
   199df:	8b 14 11             	mov    (%rcx,%rdx,1),%edx
   199e2:	89 10                	mov    %edx,(%rax)
   199e4:	48 8b 05 fd 2c 01 00 	mov    0x12cfd(%rip),%rax        # 2c6e8 <g_744>
   199eb:	0f b7 00             	movzwl (%rax),%eax
   199ee:	48 0f bf c0          	movswq %ax,%rax
   199f2:	48 89 85 20 eb ff ff 	mov    %rax,-0x14e0(%rbp)
   199f9:	48 8b 9d 28 eb ff ff 	mov    -0x14d8(%rbp),%rbx
   19a00:	44 0f be a5 34 eb ff 	movsbl -0x14cc(%rbp),%r12d
   19a07:	ff 
   19a08:	48 83 bd 40 ed ff ff 	cmpq   $0x0,-0x12c0(%rbp)
   19a0f:	00 
   19a10:	0f 84 9b 01 00 00    	je     19bb1 <func_13+0x1ced>
   19a16:	48 8b 85 48 ec ff ff 	mov    -0x13b8(%rbp),%rax
   19a1d:	8b 00                	mov    (%rax),%eax
   19a1f:	44 0f be e8          	movsbl %al,%r13d
   19a23:	48 8b 05 be ea 00 00 	mov    0xeabe(%rip),%rax        # 284e8 <g_146+0x8>
   19a2a:	48 89 85 18 eb ff ff 	mov    %rax,-0x14e8(%rbp)
   19a31:	44 0f be b5 34 eb ff 	movsbl -0x14cc(%rbp),%r14d
   19a38:	ff 
   19a39:	48 8b 85 28 eb ff ff 	mov    -0x14d8(%rbp),%rax
   19a40:	44 0f b7 f8          	movzwl %ax,%r15d
   19a44:	0f b7 05 db 39 01 00 	movzwl 0x139db(%rip),%eax        # 2d426 <g_59+0x6>
   19a4b:	0f b7 f8             	movzwl %ax,%edi
   19a4e:	89 bd 30 eb ff ff    	mov    %edi,-0x14d0(%rbp)
   19a54:	8b 85 4c ee ff ff    	mov    -0x11b4(%rbp),%eax
   19a5a:	48 98                	cltq   
   19a5c:	be 00 00 00 00       	mov    $0x0,%esi
   19a61:	48 89 c7             	mov    %rax,%rdi
   19a64:	e8 d8 2d ff ff       	callq  c841 <safe_add_func_int64_t_s_s>
   19a69:	0f be 95 34 eb ff ff 	movsbl -0x14cc(%rbp),%edx
   19a70:	48 8b 85 48 ec ff ff 	mov    -0x13b8(%rbp),%rax
   19a77:	8b 00                	mov    (%rax),%eax
   19a79:	0f be c0             	movsbl %al,%eax
   19a7c:	89 d6                	mov    %edx,%esi
   19a7e:	89 c7                	mov    %eax,%edi
   19a80:	e8 ac 27 ff ff       	callq  c231 <safe_mod_func_int8_t_s_s>
   19a85:	66 98                	cbtw   
   19a87:	66 35 02 36          	xor    $0x3602,%ax
   19a8b:	98                   	cwtl   
   19a8c:	be ea 91 ff ff       	mov    $0xffff91ea,%esi
   19a91:	89 c7                	mov    %eax,%edi
   19a93:	e8 bd 29 ff ff       	callq  c455 <safe_div_func_int16_t_s_s>
   19a98:	89 c2                	mov    %eax,%edx
   19a9a:	48 8b 85 60 ed ff ff 	mov    -0x12a0(%rbp),%rax
   19aa1:	0f b6 00             	movzbl (%rax),%eax
   19aa4:	31 c2                	xor    %eax,%edx
   19aa6:	48 8b 85 60 ed ff ff 	mov    -0x12a0(%rbp),%rax
   19aad:	88 10                	mov    %dl,(%rax)
   19aaf:	48 8b 85 60 ed ff ff 	mov    -0x12a0(%rbp),%rax
   19ab6:	0f b6 00             	movzbl (%rax),%eax
   19ab9:	0f be c0             	movsbl %al,%eax
   19abc:	be 06 00 00 00       	mov    $0x6,%esi
   19ac1:	89 c7                	mov    %eax,%edi
   19ac3:	e8 6d 28 ff ff       	callq  c335 <safe_rshift_func_int8_t_s_s>
   19ac8:	83 c8 fa             	or     $0xfffffffa,%eax
   19acb:	0f be c0             	movsbl %al,%eax
   19ace:	8b b5 30 eb ff ff    	mov    -0x14d0(%rbp),%esi
   19ad4:	89 c7                	mov    %eax,%edi
   19ad6:	e8 c6 27 ff ff       	callq  c2a1 <safe_lshift_func_int8_t_s_s>
   19adb:	3c ff                	cmp    $0xff,%al
   19add:	0f 94 c0             	sete   %al
   19ae0:	0f b6 d0             	movzbl %al,%edx
   19ae3:	48 8b 05 d6 2b 01 00 	mov    0x12bd6(%rip),%rax        # 2c6c0 <g_571>
   19aea:	48 8b 00             	mov    (%rax),%rax
   19aed:	48 31 c2             	xor    %rax,%rdx
   19af0:	48 8b 85 48 ec ff ff 	mov    -0x13b8(%rbp),%rax
   19af7:	8b 00                	mov    (%rax),%eax
   19af9:	48 98                	cltq   
   19afb:	48 39 c2             	cmp    %rax,%rdx
   19afe:	0f 9d c0             	setge  %al
   19b01:	0f b6 d0             	movzbl %al,%edx
   19b04:	48 8b 05 b5 2b 01 00 	mov    0x12bb5(%rip),%rax        # 2c6c0 <g_571>
   19b0b:	48 8b 00             	mov    (%rax),%rax
   19b0e:	48 39 c2             	cmp    %rax,%rdx
   19b11:	0f 9e c0             	setle  %al
   19b14:	0f b6 c0             	movzbl %al,%eax
   19b17:	48 8b 95 28 eb ff ff 	mov    -0x14d8(%rbp),%rdx
   19b1e:	09 d0                	or     %edx,%eax
   19b20:	0f b7 c0             	movzwl %ax,%eax
   19b23:	44 89 fe             	mov    %r15d,%esi
   19b26:	89 c7                	mov    %eax,%edi
   19b28:	e8 f2 31 ff ff       	callq  cd1f <safe_sub_func_uint16_t_u_u>
   19b2d:	0f be c0             	movsbl %al,%eax
   19b30:	be f9 ff ff ff       	mov    $0xfffffff9,%esi
   19b35:	89 c7                	mov    %eax,%edi
   19b37:	e8 d6 26 ff ff       	callq  c212 <safe_mul_func_int8_t_s_s>
   19b3c:	0f b6 05 85 e5 00 00 	movzbl 0xe585(%rip),%eax        # 280c8 <g_69>
   19b43:	0f be c0             	movsbl %al,%eax
   19b46:	be 00 00 00 00       	mov    $0x0,%esi
   19b4b:	89 c7                	mov    %eax,%edi
   19b4d:	e8 1a 28 ff ff       	callq  c36c <safe_rshift_func_int8_t_s_u>
   19b52:	44 89 f6             	mov    %r14d,%esi
   19b55:	bf 00 00 00 00       	mov    $0x0,%edi
   19b5a:	e8 59 33 ff ff       	callq  ceb8 <safe_add_func_uint32_t_u_u>
   19b5f:	8b 15 df 38 01 00    	mov    0x138df(%rip),%edx        # 2d444 <g_121>
   19b65:	39 d0                	cmp    %edx,%eax
   19b67:	0f 97 c0             	seta   %al
   19b6a:	0f b6 c0             	movzbl %al,%eax
   19b6d:	48 8b b5 18 eb ff ff 	mov    -0x14e8(%rbp),%rsi
   19b74:	48 89 c7             	mov    %rax,%rdi
   19b77:	e8 c5 2c ff ff       	callq  c841 <safe_add_func_int64_t_s_s>
   19b7c:	0f be c0             	movsbl %al,%eax
   19b7f:	44 89 ee             	mov    %r13d,%esi
   19b82:	89 c7                	mov    %eax,%edi
   19b84:	e8 89 26 ff ff       	callq  c212 <safe_mul_func_int8_t_s_s>
   19b89:	0f be d0             	movsbl %al,%edx
   19b8c:	8b 85 40 ee ff ff    	mov    -0x11c0(%rbp),%eax
   19b92:	39 c2                	cmp    %eax,%edx
   19b94:	0f 95 c0             	setne  %al
   19b97:	0f b6 c0             	movzbl %al,%eax
   19b9a:	48 8b 95 28 eb ff ff 	mov    -0x14d8(%rbp),%rdx
   19ba1:	48 89 d6             	mov    %rdx,%rsi
   19ba4:	48 89 c7             	mov    %rax,%rdi
   19ba7:	e8 fc 2c ff ff       	callq  c8a8 <safe_sub_func_int64_t_s_s>
   19bac:	48 85 c0             	test   %rax,%rax
   19baf:	75 0c                	jne    19bbd <func_13+0x1cf9>
   19bb1:	0f b7 05 4c e9 00 00 	movzwl 0xe94c(%rip),%eax        # 28504 <g_146+0x24>
   19bb8:	66 85 c0             	test   %ax,%ax
   19bbb:	74 07                	je     19bc4 <func_13+0x1d00>
   19bbd:	b8 01 00 00 00       	mov    $0x1,%eax
   19bc2:	eb 05                	jmp    19bc9 <func_13+0x1d05>
   19bc4:	b8 00 00 00 00       	mov    $0x0,%eax
   19bc9:	83 f8 07             	cmp    $0x7,%eax
   19bcc:	0f 95 c0             	setne  %al
   19bcf:	0f b6 c0             	movzbl %al,%eax
   19bd2:	44 89 e6             	mov    %r12d,%esi
   19bd5:	89 c7                	mov    %eax,%edi
   19bd7:	e8 21 33 ff ff       	callq  cefd <safe_mod_func_uint32_t_u_u>
   19bdc:	0f be c0             	movsbl %al,%eax
   19bdf:	89 c6                	mov    %eax,%esi
   19be1:	bf ff ff ff ff       	mov    $0xffffffff,%edi
   19be6:	e8 7f 26 ff ff       	callq  c26a <safe_div_func_int8_t_s_s>
   19beb:	66 98                	cbtw   
   19bed:	0f b7 d0             	movzwl %ax,%edx
   19bf0:	48 8b 85 30 ed ff ff 	mov    -0x12d0(%rbp),%rax
   19bf7:	0f b7 c0             	movzwl %ax,%eax
   19bfa:	89 d6                	mov    %edx,%esi
   19bfc:	89 c7                	mov    %eax,%edi
   19bfe:	e8 fc 30 ff ff       	callq  ccff <safe_add_func_uint16_t_u_u>
   19c03:	66 3d 94 f1          	cmp    $0xf194,%ax
   19c07:	0f 96 c0             	setbe  %al
   19c0a:	0f b6 c0             	movzbl %al,%eax
   19c0d:	48 89 de             	mov    %rbx,%rsi
   19c10:	48 89 c7             	mov    %rax,%rdi
   19c13:	e8 16 34 ff ff       	callq  d02e <safe_add_func_uint64_t_u_u>
   19c18:	48 39 85 20 eb ff ff 	cmp    %rax,-0x14e0(%rbp)
   19c1f:	0f 95 c0             	setne  %al
   19c22:	0f b6 d0             	movzbl %al,%edx
   19c25:	8b 05 25 38 01 00    	mov    0x13825(%rip),%eax        # 2d450 <g_346>
   19c2b:	c1 e0 03             	shl    $0x3,%eax
   19c2e:	c0 f8 03             	sar    $0x3,%al
   19c31:	0f be c0             	movsbl %al,%eax
   19c34:	89 d6                	mov    %edx,%esi
   19c36:	89 c7                	mov    %eax,%edi
   19c38:	e8 d5 25 ff ff       	callq  c212 <safe_mul_func_int8_t_s_s>
   19c3d:	0f b6 c0             	movzbl %al,%eax
   19c40:	be 03 00 00 00       	mov    $0x3,%esi
   19c45:	89 c7                	mov    %eax,%edi
   19c47:	e8 72 30 ff ff       	callq  ccbe <safe_rshift_func_uint8_t_u_u>
   19c4c:	b8 d8 70 ff 1a       	mov    $0x1aff70d8,%eax
   19c51:	09 85 98 eb ff ff    	or     %eax,-0x1468(%rbp)
   19c57:	48 8b 05 72 2a 01 00 	mov    0x12a72(%rip),%rax        # 2c6d0 <g_589>
   19c5e:	48 8b 95 a0 f3 ff ff 	mov    -0xc60(%rbp),%rdx
   19c65:	48 89 10             	mov    %rdx,(%rax)
   19c68:	0f b6 85 4a eb ff ff 	movzbl -0x14b6(%rbp),%eax
   19c6f:	83 c0 01             	add    $0x1,%eax
   19c72:	88 85 4a eb ff ff    	mov    %al,-0x14b6(%rbp)
   19c78:	0f b6 85 4a eb ff ff 	movzbl -0x14b6(%rbp),%eax
   19c7f:	84 c0                	test   %al,%al
   19c81:	0f 84 5f f3 ff ff    	je     18fe6 <func_13+0x1122>
   19c87:	48 8b 85 b0 ed ff ff 	mov    -0x1250(%rbp),%rax
   19c8e:	48 83 e8 01          	sub    $0x1,%rax
   19c92:	48 89 85 b0 ed ff ff 	mov    %rax,-0x1250(%rbp)
   19c99:	48 8b 85 b0 ed ff ff 	mov    -0x1250(%rbp),%rax
   19ca0:	48 85 c0             	test   %rax,%rax
   19ca3:	0f 89 d6 f2 ff ff    	jns    18f7f <func_13+0x10bb>
   19ca9:	80 bd 34 eb ff ff 00 	cmpb   $0x0,-0x14cc(%rbp)
   19cb0:	0f 85 2a 01 00 00    	jne    19de0 <func_13+0x1f1c>
   19cb6:	c7 85 98 eb ff ff 00 	movl   $0x0,-0x1468(%rbp)
   19cbd:	00 00 00 
   19cc0:	e9 0c 01 00 00       	jmpq   19dd1 <func_13+0x1f0d>
   19cc5:	48 c7 05 10 e8 00 00 	movq   $0x0,0xe810(%rip)        # 284e0 <g_146>
   19ccc:	00 00 00 00 
   19cd0:	eb 57                	jmp    19d29 <func_13+0x1e65>
   19cd2:	48 8b 05 0f 29 01 00 	mov    0x1290f(%rip),%rax        # 2c5e8 <g_100>
   19cd9:	8b 15 89 37 01 00    	mov    0x13789(%rip),%edx        # 2d468 <g_868>
   19cdf:	89 10                	mov    %edx,(%rax)
   19ce1:	48 8b 15 f8 e7 00 00 	mov    0xe7f8(%rip),%rdx        # 284e0 <g_146>
   19ce8:	8b 85 98 eb ff ff    	mov    -0x1468(%rbp),%eax
   19cee:	48 98                	cltq   
   19cf0:	48 8b 8d 28 eb ff ff 	mov    -0x14d8(%rbp),%rcx
   19cf7:	48 c1 e1 03          	shl    $0x3,%rcx
   19cfb:	48 01 ca             	add    %rcx,%rdx
   19cfe:	48 01 d0             	add    %rdx,%rax
   19d01:	48 8d 14 c5 00 00 00 	lea    0x0(,%rax,8),%rdx
   19d08:	00 
   19d09:	48 8d 05 30 e3 00 00 	lea    0xe330(%rip),%rax        # 28040 <g_18>
   19d10:	48 8b 04 02          	mov    (%rdx,%rax,1),%rax
   19d14:	48 85 c0             	test   %rax,%rax
   19d17:	48 8b 05 c2 e7 00 00 	mov    0xe7c2(%rip),%rax        # 284e0 <g_146>
   19d1e:	48 83 c0 01          	add    $0x1,%rax
   19d22:	48 89 05 b7 e7 00 00 	mov    %rax,0xe7b7(%rip)        # 284e0 <g_146>
   19d29:	48 8b 05 b0 e7 00 00 	mov    0xe7b0(%rip),%rax        # 284e0 <g_146>
   19d30:	48 83 f8 03          	cmp    $0x3,%rax
   19d34:	76 9c                	jbe    19cd2 <func_13+0x1e0e>
   19d36:	8b 85 60 eb ff ff    	mov    -0x14a0(%rbp),%eax
   19d3c:	8d 48 04             	lea    0x4(%rax),%ecx
   19d3f:	8b 85 98 eb ff ff    	mov    -0x1468(%rbp),%eax
   19d45:	48 63 d0             	movslq %eax,%rdx
   19d48:	48 63 c1             	movslq %ecx,%rax
   19d4b:	48 8b 8d 28 eb ff ff 	mov    -0x14d8(%rbp),%rcx
   19d52:	48 c1 e1 03          	shl    $0x3,%rcx
   19d56:	48 01 ca             	add    %rcx,%rdx
   19d59:	48 01 d0             	add    %rdx,%rax
   19d5c:	48 8d 14 c5 00 00 00 	lea    0x0(,%rax,8),%rdx
   19d63:	00 
   19d64:	48 8d 05 d5 e2 00 00 	lea    0xe2d5(%rip),%rax        # 28040 <g_18>
   19d6b:	48 8b 04 02          	mov    (%rdx,%rax,1),%rax
   19d6f:	48 85 c0             	test   %rax,%rax
   19d72:	75 55                	jne    19dc9 <func_13+0x1f05>
   19d74:	c7 85 90 eb ff ff 00 	movl   $0x0,-0x1470(%rbp)
   19d7b:	00 00 00 
   19d7e:	eb 3e                	jmp    19dbe <func_13+0x1efa>
   19d80:	48 8d 05 41 29 01 00 	lea    0x12941(%rip),%rax        # 2c6c8 <g_570>
   19d87:	48 89 85 38 ed ff ff 	mov    %rax,-0x12c8(%rbp)
   19d8e:	c7 85 88 eb ff ff 00 	movl   $0x0,-0x1478(%rbp)
   19d95:	00 00 00 
   19d98:	eb 14                	jmp    19dae <func_13+0x1eea>
   19d9a:	8b 85 88 eb ff ff    	mov    -0x1478(%rbp),%eax
   19da0:	48 98                	cltq   
   19da2:	c6 44 05 bf 00       	movb   $0x0,-0x41(%rbp,%rax,1)
   19da7:	83 85 88 eb ff ff 01 	addl   $0x1,-0x1478(%rbp)
   19dae:	83 bd 88 eb ff ff 08 	cmpl   $0x8,-0x1478(%rbp)
   19db5:	7e e3                	jle    19d9a <func_13+0x1ed6>
   19db7:	83 85 90 eb ff ff 01 	addl   $0x1,-0x1470(%rbp)
   19dbe:	83 bd 90 eb ff ff 00 	cmpl   $0x0,-0x1470(%rbp)
   19dc5:	7e b9                	jle    19d80 <func_13+0x1ebc>
   19dc7:	eb 01                	jmp    19dca <func_13+0x1f06>
   19dc9:	90                   	nop
   19dca:	83 ad 98 eb ff ff 01 	subl   $0x1,-0x1468(%rbp)
   19dd1:	83 bd 98 eb ff ff 00 	cmpl   $0x0,-0x1468(%rbp)
   19dd8:	0f 89 e7 fe ff ff    	jns    19cc5 <func_13+0x1e01>
   19dde:	eb 01                	jmp    19de1 <func_13+0x1f1d>
   19de0:	90                   	nop
   19de1:	8b 85 60 eb ff ff    	mov    -0x14a0(%rbp),%eax
   19de7:	83 c0 01             	add    $0x1,%eax
   19dea:	89 85 60 eb ff ff    	mov    %eax,-0x14a0(%rbp)
   19df0:	8b 85 60 eb ff ff    	mov    -0x14a0(%rbp),%eax
   19df6:	85 c0                	test   %eax,%eax
   19df8:	0f 8e 71 ef ff ff    	jle    18d6f <func_13+0xeab>
   19dfe:	c7 85 64 eb ff ff 00 	movl   $0x0,-0x149c(%rbp)
   19e05:	00 00 00 
   19e08:	e9 b8 0e 00 00       	jmpq   1acc5 <func_13+0x2e01>
   19e0d:	66 c7 85 00 f3 ff ff 	movw   $0xf038,-0xd00(%rbp)
   19e14:	38 f0 
   19e16:	66 c7 85 02 f3 ff ff 	movw   $0xfff6,-0xcfe(%rbp)
   19e1d:	f6 ff 
   19e1f:	66 c7 85 04 f3 ff ff 	movw   $0x3,-0xcfc(%rbp)
   19e26:	03 00 
   19e28:	66 c7 85 06 f3 ff ff 	movw   $0x1,-0xcfa(%rbp)
   19e2f:	01 00 
   19e31:	66 c7 85 08 f3 ff ff 	movw   $0xf5e6,-0xcf8(%rbp)
   19e38:	e6 f5 
   19e3a:	66 c7 85 0a f3 ff ff 	movw   $0x1,-0xcf6(%rbp)
   19e41:	01 00 
   19e43:	66 c7 85 0c f3 ff ff 	movw   $0x3,-0xcf4(%rbp)
   19e4a:	03 00 
   19e4c:	66 c7 85 0e f3 ff ff 	movw   $0xfff6,-0xcf2(%rbp)
   19e53:	f6 ff 
   19e55:	66 c7 85 10 f3 ff ff 	movw   $0xf038,-0xcf0(%rbp)
   19e5c:	38 f0 
   19e5e:	66 c7 85 12 f3 ff ff 	movw   $0xc49a,-0xcee(%rbp)
   19e65:	9a c4 
   19e67:	66 c7 85 14 f3 ff ff 	movw   $0xf038,-0xcec(%rbp)
   19e6e:	38 f0 
   19e70:	66 c7 85 16 f3 ff ff 	movw   $0x8,-0xcea(%rbp)
   19e77:	08 00 
   19e79:	66 c7 85 18 f3 ff ff 	movw   $0xfffb,-0xce8(%rbp)
   19e80:	fb ff 
   19e82:	66 c7 85 1a f3 ff ff 	movw   $0x724a,-0xce6(%rbp)
   19e89:	4a 72 
   19e8b:	66 c7 85 1c f3 ff ff 	movw   $0x1,-0xce4(%rbp)
   19e92:	01 00 
   19e94:	66 c7 85 1e f3 ff ff 	movw   $0xc49a,-0xce2(%rbp)
   19e9b:	9a c4 
   19e9d:	66 c7 85 20 f3 ff ff 	movw   $0xc49a,-0xce0(%rbp)
   19ea4:	9a c4 
   19ea6:	66 c7 85 22 f3 ff ff 	movw   $0x1,-0xcde(%rbp)
   19ead:	01 00 
   19eaf:	66 c7 85 24 f3 ff ff 	movw   $0x724a,-0xcdc(%rbp)
   19eb6:	4a 72 
   19eb8:	66 c7 85 26 f3 ff ff 	movw   $0xfffb,-0xcda(%rbp)
   19ebf:	fb ff 
   19ec1:	66 c7 85 28 f3 ff ff 	movw   $0xc49a,-0xcd8(%rbp)
   19ec8:	9a c4 
   19eca:	66 c7 85 2a f3 ff ff 	movw   $0xc49a,-0xcd6(%rbp)
   19ed1:	9a c4 
   19ed3:	66 c7 85 2c f3 ff ff 	movw   $0x1,-0xcd4(%rbp)
   19eda:	01 00 
   19edc:	66 c7 85 2e f3 ff ff 	movw   $0x724a,-0xcd2(%rbp)
   19ee3:	4a 72 
   19ee5:	66 c7 85 30 f3 ff ff 	movw   $0xfffb,-0xcd0(%rbp)
   19eec:	fb ff 
   19eee:	66 c7 85 32 f3 ff ff 	movw   $0x8,-0xcce(%rbp)
   19ef5:	08 00 
   19ef7:	66 c7 85 34 f3 ff ff 	movw   $0xf038,-0xccc(%rbp)
   19efe:	38 f0 
   19f00:	66 c7 85 36 f3 ff ff 	movw   $0x0,-0xcca(%rbp)
   19f07:	00 00 
   19f09:	66 c7 85 38 f3 ff ff 	movw   $0xf038,-0xcc8(%rbp)
   19f10:	38 f0 
   19f12:	66 c7 85 3a f3 ff ff 	movw   $0x8,-0xcc6(%rbp)
   19f19:	08 00 
   19f1b:	66 c7 85 3c f3 ff ff 	movw   $0x3,-0xcc4(%rbp)
   19f22:	03 00 
   19f24:	66 c7 85 3e f3 ff ff 	movw   $0x1,-0xcc2(%rbp)
   19f2b:	01 00 
   19f2d:	66 c7 85 40 f3 ff ff 	movw   $0xf5e6,-0xcc0(%rbp)
   19f34:	e6 f5 
   19f36:	66 c7 85 42 f3 ff ff 	movw   $0x1,-0xcbe(%rbp)
   19f3d:	01 00 
   19f3f:	66 c7 85 44 f3 ff ff 	movw   $0x3,-0xcbc(%rbp)
   19f46:	03 00 
   19f48:	66 c7 85 46 f3 ff ff 	movw   $0xfff6,-0xcba(%rbp)
   19f4f:	f6 ff 
   19f51:	66 c7 85 48 f3 ff ff 	movw   $0xf038,-0xcb8(%rbp)
   19f58:	38 f0 
   19f5a:	66 c7 85 4a f3 ff ff 	movw   $0xc49a,-0xcb6(%rbp)
   19f61:	9a c4 
   19f63:	66 c7 85 4c f3 ff ff 	movw   $0x1d2a,-0xcb4(%rbp)
   19f6a:	2a 1d 
   19f6c:	66 c7 85 4e f3 ff ff 	movw   $0x1d2a,-0xcb2(%rbp)
   19f73:	2a 1d 
   19f75:	66 c7 85 50 f3 ff ff 	movw   $0x724a,-0xcb0(%rbp)
   19f7c:	4a 72 
   19f7e:	66 c7 85 52 f3 ff ff 	movw   $0xc49a,-0xcae(%rbp)
   19f85:	9a c4 
   19f87:	66 c7 85 54 f3 ff ff 	movw   $0x1,-0xcac(%rbp)
   19f8e:	01 00 
   19f90:	66 c7 85 56 f3 ff ff 	movw   $0x8,-0xcaa(%rbp)
   19f97:	08 00 
   19f99:	66 c7 85 58 f3 ff ff 	movw   $0x8,-0xca8(%rbp)
   19fa0:	08 00 
   19fa2:	66 c7 85 5a f3 ff ff 	movw   $0x1,-0xca6(%rbp)
   19fa9:	01 00 
   19fab:	66 c7 85 5c f3 ff ff 	movw   $0xc49a,-0xca4(%rbp)
   19fb2:	9a c4 
   19fb4:	66 c7 85 5e f3 ff ff 	movw   $0x724a,-0xca2(%rbp)
   19fbb:	4a 72 
   19fbd:	66 c7 85 60 f3 ff ff 	movw   $0xf5e6,-0xca0(%rbp)
   19fc4:	e6 f5 
   19fc6:	66 c7 85 62 f3 ff ff 	movw   $0x1d2a,-0xc9e(%rbp)
   19fcd:	2a 1d 
   19fcf:	66 c7 85 64 f3 ff ff 	movw   $0x0,-0xc9c(%rbp)
   19fd6:	00 00 
   19fd8:	66 c7 85 66 f3 ff ff 	movw   $0x8,-0xc9a(%rbp)
   19fdf:	08 00 
   19fe1:	66 c7 85 68 f3 ff ff 	movw   $0xc49a,-0xc98(%rbp)
   19fe8:	9a c4 
   19fea:	66 c7 85 6a f3 ff ff 	movw   $0xd97,-0xc96(%rbp)
   19ff1:	97 0d 
   19ff3:	66 c7 85 6c f3 ff ff 	movw   $0x3,-0xc94(%rbp)
   19ffa:	03 00 
   19ffc:	66 c7 85 6e f3 ff ff 	movw   $0xf038,-0xc92(%rbp)
   1a003:	38 f0 
   1a005:	66 c7 85 70 f3 ff ff 	movw   $0x3,-0xc90(%rbp)
   1a00c:	03 00 
   1a00e:	66 c7 85 72 f3 ff ff 	movw   $0xd97,-0xc8e(%rbp)
   1a015:	97 0d 
   1a017:	66 c7 85 74 f3 ff ff 	movw   $0xc49a,-0xc8c(%rbp)
   1a01e:	9a c4 
   1a020:	66 c7 85 76 f3 ff ff 	movw   $0x8,-0xc8a(%rbp)
   1a027:	08 00 
   1a029:	66 c7 85 78 f3 ff ff 	movw   $0x1,-0xc88(%rbp)
   1a030:	01 00 
   1a032:	66 c7 85 7a f3 ff ff 	movw   $0xfff6,-0xc86(%rbp)
   1a039:	f6 ff 
   1a03b:	66 c7 85 7c f3 ff ff 	movw   $0xc49a,-0xc84(%rbp)
   1a042:	9a c4 
   1a044:	66 c7 85 7e f3 ff ff 	movw   $0x3,-0xc82(%rbp)
   1a04b:	03 00 
   1a04d:	66 c7 85 80 f3 ff ff 	movw   $0xfffb,-0xc80(%rbp)
   1a054:	fb ff 
   1a056:	66 c7 85 82 f3 ff ff 	movw   $0xd97,-0xc7e(%rbp)
   1a05d:	97 0d 
   1a05f:	66 c7 85 84 f3 ff ff 	movw   $0x724a,-0xc7c(%rbp)
   1a066:	4a 72 
   1a068:	66 c7 85 86 f3 ff ff 	movw   $0x724a,-0xc7a(%rbp)
   1a06f:	4a 72 
   1a071:	66 c7 85 88 f3 ff ff 	movw   $0xd97,-0xc78(%rbp)
   1a078:	97 0d 
   1a07a:	66 c7 85 8a f3 ff ff 	movw   $0xfffb,-0xc76(%rbp)
   1a081:	fb ff 
   1a083:	0f b7 85 1a f3 ff ff 	movzwl -0xce6(%rbp),%eax
   1a08a:	83 c0 01             	add    $0x1,%eax
   1a08d:	66 89 85 1a f3 ff ff 	mov    %ax,-0xce6(%rbp)
   1a094:	c6 05 e5 df 00 00 00 	movb   $0x0,0xdfe5(%rip)        # 28080 <g_38>
   1a09b:	e9 07 0c 00 00       	jmpq   1aca7 <func_13+0x2de3>
   1a0a0:	48 c7 85 80 ed ff ff 	movq   $0x0,-0x1280(%rbp)
   1a0a7:	00 00 00 00 
   1a0ab:	48 8d 05 b6 33 01 00 	lea    0x133b6(%rip),%rax        # 2d468 <g_868>
   1a0b2:	48 89 85 d0 ed ff ff 	mov    %rax,-0x1230(%rbp)
   1a0b9:	48 8d 85 d0 ed ff ff 	lea    -0x1230(%rbp),%rax
   1a0c0:	48 89 85 b0 f8 ff ff 	mov    %rax,-0x750(%rbp)
   1a0c7:	48 8d 85 d0 ed ff ff 	lea    -0x1230(%rbp),%rax
   1a0ce:	48 89 85 b8 f8 ff ff 	mov    %rax,-0x748(%rbp)
   1a0d5:	48 8d 85 d0 ed ff ff 	lea    -0x1230(%rbp),%rax
   1a0dc:	48 89 85 c0 f8 ff ff 	mov    %rax,-0x740(%rbp)
   1a0e3:	48 8d 85 d0 ed ff ff 	lea    -0x1230(%rbp),%rax
   1a0ea:	48 89 85 c8 f8 ff ff 	mov    %rax,-0x738(%rbp)
   1a0f1:	48 8d 85 d0 ed ff ff 	lea    -0x1230(%rbp),%rax
   1a0f8:	48 89 85 d0 f8 ff ff 	mov    %rax,-0x730(%rbp)
   1a0ff:	48 8d 85 d0 ed ff ff 	lea    -0x1230(%rbp),%rax
   1a106:	48 89 85 d8 f8 ff ff 	mov    %rax,-0x728(%rbp)
   1a10d:	48 8d 85 d0 ed ff ff 	lea    -0x1230(%rbp),%rax
   1a114:	48 89 85 e0 f8 ff ff 	mov    %rax,-0x720(%rbp)
   1a11b:	48 8d 85 d0 ed ff ff 	lea    -0x1230(%rbp),%rax
   1a122:	48 89 85 e8 f8 ff ff 	mov    %rax,-0x718(%rbp)
   1a129:	48 8d 85 d0 ed ff ff 	lea    -0x1230(%rbp),%rax
   1a130:	48 89 85 f0 f8 ff ff 	mov    %rax,-0x710(%rbp)
   1a137:	48 8d 85 d0 ed ff ff 	lea    -0x1230(%rbp),%rax
   1a13e:	48 89 85 f8 f8 ff ff 	mov    %rax,-0x708(%rbp)
   1a145:	48 8d 85 d0 ed ff ff 	lea    -0x1230(%rbp),%rax
   1a14c:	48 89 85 00 f9 ff ff 	mov    %rax,-0x700(%rbp)
   1a153:	48 8d 85 d0 ed ff ff 	lea    -0x1230(%rbp),%rax
   1a15a:	48 89 85 08 f9 ff ff 	mov    %rax,-0x6f8(%rbp)
   1a161:	48 8d 85 d0 ed ff ff 	lea    -0x1230(%rbp),%rax
   1a168:	48 89 85 10 f9 ff ff 	mov    %rax,-0x6f0(%rbp)
   1a16f:	48 8d 85 d0 ed ff ff 	lea    -0x1230(%rbp),%rax
   1a176:	48 89 85 18 f9 ff ff 	mov    %rax,-0x6e8(%rbp)
   1a17d:	48 8d 85 d0 ed ff ff 	lea    -0x1230(%rbp),%rax
   1a184:	48 89 85 20 f9 ff ff 	mov    %rax,-0x6e0(%rbp)
   1a18b:	48 8d 85 d0 ed ff ff 	lea    -0x1230(%rbp),%rax
   1a192:	48 89 85 28 f9 ff ff 	mov    %rax,-0x6d8(%rbp)
   1a199:	48 8d 85 d0 ed ff ff 	lea    -0x1230(%rbp),%rax
   1a1a0:	48 89 85 30 f9 ff ff 	mov    %rax,-0x6d0(%rbp)
   1a1a7:	48 8d 85 d0 ed ff ff 	lea    -0x1230(%rbp),%rax
   1a1ae:	48 89 85 38 f9 ff ff 	mov    %rax,-0x6c8(%rbp)
   1a1b5:	48 8d 85 d0 ed ff ff 	lea    -0x1230(%rbp),%rax
   1a1bc:	48 89 85 40 f9 ff ff 	mov    %rax,-0x6c0(%rbp)
   1a1c3:	48 8d 85 d0 ed ff ff 	lea    -0x1230(%rbp),%rax
   1a1ca:	48 89 85 48 f9 ff ff 	mov    %rax,-0x6b8(%rbp)
   1a1d1:	48 8d 85 d0 ed ff ff 	lea    -0x1230(%rbp),%rax
   1a1d8:	48 89 85 50 f9 ff ff 	mov    %rax,-0x6b0(%rbp)
   1a1df:	48 8d 85 d0 ed ff ff 	lea    -0x1230(%rbp),%rax
   1a1e6:	48 89 85 58 f9 ff ff 	mov    %rax,-0x6a8(%rbp)
   1a1ed:	48 8d 85 d0 ed ff ff 	lea    -0x1230(%rbp),%rax
   1a1f4:	48 89 85 60 f9 ff ff 	mov    %rax,-0x6a0(%rbp)
   1a1fb:	48 8d 85 d0 ed ff ff 	lea    -0x1230(%rbp),%rax
   1a202:	48 89 85 68 f9 ff ff 	mov    %rax,-0x698(%rbp)
   1a209:	48 8d 85 d0 ed ff ff 	lea    -0x1230(%rbp),%rax
   1a210:	48 89 85 70 f9 ff ff 	mov    %rax,-0x690(%rbp)
   1a217:	48 8d 85 d0 ed ff ff 	lea    -0x1230(%rbp),%rax
   1a21e:	48 89 85 78 f9 ff ff 	mov    %rax,-0x688(%rbp)
   1a225:	48 8d 85 d0 ed ff ff 	lea    -0x1230(%rbp),%rax
   1a22c:	48 89 85 80 f9 ff ff 	mov    %rax,-0x680(%rbp)
   1a233:	48 8d 85 d0 ed ff ff 	lea    -0x1230(%rbp),%rax
   1a23a:	48 89 85 88 f9 ff ff 	mov    %rax,-0x678(%rbp)
   1a241:	48 8d 85 d0 ed ff ff 	lea    -0x1230(%rbp),%rax
   1a248:	48 89 85 90 f9 ff ff 	mov    %rax,-0x670(%rbp)
   1a24f:	48 8d 85 d0 ed ff ff 	lea    -0x1230(%rbp),%rax
   1a256:	48 89 85 98 f9 ff ff 	mov    %rax,-0x668(%rbp)
   1a25d:	48 8d 85 d0 ed ff ff 	lea    -0x1230(%rbp),%rax
   1a264:	48 89 85 a0 f9 ff ff 	mov    %rax,-0x660(%rbp)
   1a26b:	48 8d 85 d0 ed ff ff 	lea    -0x1230(%rbp),%rax
   1a272:	48 89 85 a8 f9 ff ff 	mov    %rax,-0x658(%rbp)
   1a279:	48 8d 85 d0 ed ff ff 	lea    -0x1230(%rbp),%rax
   1a280:	48 89 85 b0 f9 ff ff 	mov    %rax,-0x650(%rbp)
   1a287:	48 8d 85 d0 ed ff ff 	lea    -0x1230(%rbp),%rax
   1a28e:	48 89 85 b8 f9 ff ff 	mov    %rax,-0x648(%rbp)
   1a295:	48 8d 85 d0 ed ff ff 	lea    -0x1230(%rbp),%rax
   1a29c:	48 89 85 c0 f9 ff ff 	mov    %rax,-0x640(%rbp)
   1a2a3:	48 8d 85 d0 ed ff ff 	lea    -0x1230(%rbp),%rax
   1a2aa:	48 89 85 c8 f9 ff ff 	mov    %rax,-0x638(%rbp)
   1a2b1:	48 8d 85 d0 ed ff ff 	lea    -0x1230(%rbp),%rax
   1a2b8:	48 89 85 d0 f9 ff ff 	mov    %rax,-0x630(%rbp)
   1a2bf:	48 8d 85 d0 ed ff ff 	lea    -0x1230(%rbp),%rax
   1a2c6:	48 89 85 d8 f9 ff ff 	mov    %rax,-0x628(%rbp)
   1a2cd:	48 8d 85 d0 ed ff ff 	lea    -0x1230(%rbp),%rax
   1a2d4:	48 89 85 e0 f9 ff ff 	mov    %rax,-0x620(%rbp)
   1a2db:	48 8d 85 d0 ed ff ff 	lea    -0x1230(%rbp),%rax
   1a2e2:	48 89 85 e8 f9 ff ff 	mov    %rax,-0x618(%rbp)
   1a2e9:	48 8d 85 d0 ed ff ff 	lea    -0x1230(%rbp),%rax
   1a2f0:	48 89 85 f0 f9 ff ff 	mov    %rax,-0x610(%rbp)
   1a2f7:	48 8d 85 d0 ed ff ff 	lea    -0x1230(%rbp),%rax
   1a2fe:	48 89 85 f8 f9 ff ff 	mov    %rax,-0x608(%rbp)
   1a305:	48 8d 85 d0 ed ff ff 	lea    -0x1230(%rbp),%rax
   1a30c:	48 89 85 00 fa ff ff 	mov    %rax,-0x600(%rbp)
   1a313:	48 8d 85 d0 ed ff ff 	lea    -0x1230(%rbp),%rax
   1a31a:	48 89 85 08 fa ff ff 	mov    %rax,-0x5f8(%rbp)
   1a321:	48 8d 85 d0 ed ff ff 	lea    -0x1230(%rbp),%rax
   1a328:	48 89 85 10 fa ff ff 	mov    %rax,-0x5f0(%rbp)
   1a32f:	48 8d 85 d0 ed ff ff 	lea    -0x1230(%rbp),%rax
   1a336:	48 89 85 18 fa ff ff 	mov    %rax,-0x5e8(%rbp)
   1a33d:	48 8d 85 d0 ed ff ff 	lea    -0x1230(%rbp),%rax
   1a344:	48 89 85 20 fa ff ff 	mov    %rax,-0x5e0(%rbp)
   1a34b:	48 8d 85 d0 ed ff ff 	lea    -0x1230(%rbp),%rax
   1a352:	48 89 85 28 fa ff ff 	mov    %rax,-0x5d8(%rbp)
   1a359:	48 8d 85 d0 ed ff ff 	lea    -0x1230(%rbp),%rax
   1a360:	48 89 85 30 fa ff ff 	mov    %rax,-0x5d0(%rbp)
   1a367:	48 8d 85 d0 ed ff ff 	lea    -0x1230(%rbp),%rax
   1a36e:	48 89 85 38 fa ff ff 	mov    %rax,-0x5c8(%rbp)
   1a375:	48 8d 85 d0 ed ff ff 	lea    -0x1230(%rbp),%rax
   1a37c:	48 89 85 40 fa ff ff 	mov    %rax,-0x5c0(%rbp)
   1a383:	48 8d 85 d0 ed ff ff 	lea    -0x1230(%rbp),%rax
   1a38a:	48 89 85 48 fa ff ff 	mov    %rax,-0x5b8(%rbp)
   1a391:	48 8d 85 d0 ed ff ff 	lea    -0x1230(%rbp),%rax
   1a398:	48 89 85 50 fa ff ff 	mov    %rax,-0x5b0(%rbp)
   1a39f:	48 8d 85 d0 ed ff ff 	lea    -0x1230(%rbp),%rax
   1a3a6:	48 89 85 58 fa ff ff 	mov    %rax,-0x5a8(%rbp)
   1a3ad:	48 8d 85 d0 ed ff ff 	lea    -0x1230(%rbp),%rax
   1a3b4:	48 89 85 60 fa ff ff 	mov    %rax,-0x5a0(%rbp)
   1a3bb:	48 8d 85 d0 ed ff ff 	lea    -0x1230(%rbp),%rax
   1a3c2:	48 89 85 68 fa ff ff 	mov    %rax,-0x598(%rbp)
   1a3c9:	48 8d 85 d0 ed ff ff 	lea    -0x1230(%rbp),%rax
   1a3d0:	48 89 85 70 fa ff ff 	mov    %rax,-0x590(%rbp)
   1a3d7:	48 8d 85 d0 ed ff ff 	lea    -0x1230(%rbp),%rax
   1a3de:	48 89 85 78 fa ff ff 	mov    %rax,-0x588(%rbp)
   1a3e5:	48 8d 85 d0 ed ff ff 	lea    -0x1230(%rbp),%rax
   1a3ec:	48 89 85 80 fa ff ff 	mov    %rax,-0x580(%rbp)
   1a3f3:	48 8d 85 d0 ed ff ff 	lea    -0x1230(%rbp),%rax
   1a3fa:	48 89 85 88 fa ff ff 	mov    %rax,-0x578(%rbp)
   1a401:	48 8d 85 d0 ed ff ff 	lea    -0x1230(%rbp),%rax
   1a408:	48 89 85 90 fa ff ff 	mov    %rax,-0x570(%rbp)
   1a40f:	48 8d 85 d0 ed ff ff 	lea    -0x1230(%rbp),%rax
   1a416:	48 89 85 98 fa ff ff 	mov    %rax,-0x568(%rbp)
   1a41d:	48 8d 85 d0 ed ff ff 	lea    -0x1230(%rbp),%rax
   1a424:	48 89 85 a0 fa ff ff 	mov    %rax,-0x560(%rbp)
   1a42b:	48 8d 85 d0 ed ff ff 	lea    -0x1230(%rbp),%rax
   1a432:	48 89 85 a8 fa ff ff 	mov    %rax,-0x558(%rbp)
   1a439:	48 8d 85 d0 ed ff ff 	lea    -0x1230(%rbp),%rax
   1a440:	48 89 85 b0 fa ff ff 	mov    %rax,-0x550(%rbp)
   1a447:	48 8d 85 d0 ed ff ff 	lea    -0x1230(%rbp),%rax
   1a44e:	48 89 85 b8 fa ff ff 	mov    %rax,-0x548(%rbp)
   1a455:	48 8d 85 d0 ed ff ff 	lea    -0x1230(%rbp),%rax
   1a45c:	48 89 85 c0 fa ff ff 	mov    %rax,-0x540(%rbp)
   1a463:	48 8d 85 d0 ed ff ff 	lea    -0x1230(%rbp),%rax
   1a46a:	48 89 85 c8 fa ff ff 	mov    %rax,-0x538(%rbp)
   1a471:	48 8d 85 d0 ed ff ff 	lea    -0x1230(%rbp),%rax
   1a478:	48 89 85 d0 fa ff ff 	mov    %rax,-0x530(%rbp)
   1a47f:	48 8d 85 d0 ed ff ff 	lea    -0x1230(%rbp),%rax
   1a486:	48 89 85 d8 fa ff ff 	mov    %rax,-0x528(%rbp)
   1a48d:	48 8d 85 d0 ed ff ff 	lea    -0x1230(%rbp),%rax
   1a494:	48 89 85 e0 fa ff ff 	mov    %rax,-0x520(%rbp)
   1a49b:	48 8d 85 d0 ed ff ff 	lea    -0x1230(%rbp),%rax
   1a4a2:	48 89 85 e8 fa ff ff 	mov    %rax,-0x518(%rbp)
   1a4a9:	48 8d 85 d0 ed ff ff 	lea    -0x1230(%rbp),%rax
   1a4b0:	48 89 85 f0 fa ff ff 	mov    %rax,-0x510(%rbp)
   1a4b7:	48 8d 85 d0 ed ff ff 	lea    -0x1230(%rbp),%rax
   1a4be:	48 89 85 f8 fa ff ff 	mov    %rax,-0x508(%rbp)
   1a4c5:	48 8d 85 d0 ed ff ff 	lea    -0x1230(%rbp),%rax
   1a4cc:	48 89 85 00 fb ff ff 	mov    %rax,-0x500(%rbp)
   1a4d3:	48 8d 85 d0 ed ff ff 	lea    -0x1230(%rbp),%rax
   1a4da:	48 89 85 08 fb ff ff 	mov    %rax,-0x4f8(%rbp)
   1a4e1:	48 8d 85 d0 ed ff ff 	lea    -0x1230(%rbp),%rax
   1a4e8:	48 89 85 10 fb ff ff 	mov    %rax,-0x4f0(%rbp)
   1a4ef:	48 8d 85 d0 ed ff ff 	lea    -0x1230(%rbp),%rax
   1a4f6:	48 89 85 18 fb ff ff 	mov    %rax,-0x4e8(%rbp)
   1a4fd:	48 8d 85 d0 ed ff ff 	lea    -0x1230(%rbp),%rax
   1a504:	48 89 85 20 fb ff ff 	mov    %rax,-0x4e0(%rbp)
   1a50b:	48 8d 85 d0 ed ff ff 	lea    -0x1230(%rbp),%rax
   1a512:	48 89 85 28 fb ff ff 	mov    %rax,-0x4d8(%rbp)
   1a519:	48 8d 85 d0 ed ff ff 	lea    -0x1230(%rbp),%rax
   1a520:	48 89 85 30 fb ff ff 	mov    %rax,-0x4d0(%rbp)
   1a527:	48 8d 85 d0 ed ff ff 	lea    -0x1230(%rbp),%rax
   1a52e:	48 89 85 38 fb ff ff 	mov    %rax,-0x4c8(%rbp)
   1a535:	48 8d 85 d0 ed ff ff 	lea    -0x1230(%rbp),%rax
   1a53c:	48 89 85 40 fb ff ff 	mov    %rax,-0x4c0(%rbp)
   1a543:	48 8d 85 d0 ed ff ff 	lea    -0x1230(%rbp),%rax
   1a54a:	48 89 85 48 fb ff ff 	mov    %rax,-0x4b8(%rbp)
   1a551:	48 8d 85 d0 ed ff ff 	lea    -0x1230(%rbp),%rax
   1a558:	48 89 85 50 fb ff ff 	mov    %rax,-0x4b0(%rbp)
   1a55f:	48 8d 85 d0 ed ff ff 	lea    -0x1230(%rbp),%rax
   1a566:	48 89 85 58 fb ff ff 	mov    %rax,-0x4a8(%rbp)
   1a56d:	48 8d 85 d0 ed ff ff 	lea    -0x1230(%rbp),%rax
   1a574:	48 89 85 60 fb ff ff 	mov    %rax,-0x4a0(%rbp)
   1a57b:	48 8d 85 d0 ed ff ff 	lea    -0x1230(%rbp),%rax
   1a582:	48 89 85 68 fb ff ff 	mov    %rax,-0x498(%rbp)
   1a589:	48 8d 85 d0 ed ff ff 	lea    -0x1230(%rbp),%rax
   1a590:	48 89 85 70 fb ff ff 	mov    %rax,-0x490(%rbp)
   1a597:	48 8d 85 d0 ed ff ff 	lea    -0x1230(%rbp),%rax
   1a59e:	48 89 85 78 fb ff ff 	mov    %rax,-0x488(%rbp)
   1a5a5:	48 8d 85 d0 ed ff ff 	lea    -0x1230(%rbp),%rax
   1a5ac:	48 89 85 80 fb ff ff 	mov    %rax,-0x480(%rbp)
   1a5b3:	48 8d 85 d0 ed ff ff 	lea    -0x1230(%rbp),%rax
   1a5ba:	48 89 85 88 fb ff ff 	mov    %rax,-0x478(%rbp)
   1a5c1:	48 8d 85 d0 ed ff ff 	lea    -0x1230(%rbp),%rax
   1a5c8:	48 89 85 90 fb ff ff 	mov    %rax,-0x470(%rbp)
   1a5cf:	48 8d 85 d0 ed ff ff 	lea    -0x1230(%rbp),%rax
   1a5d6:	48 89 85 98 fb ff ff 	mov    %rax,-0x468(%rbp)
   1a5dd:	48 8d 85 d0 ed ff ff 	lea    -0x1230(%rbp),%rax
   1a5e4:	48 89 85 a0 fb ff ff 	mov    %rax,-0x460(%rbp)
   1a5eb:	48 8d 85 d0 ed ff ff 	lea    -0x1230(%rbp),%rax
   1a5f2:	48 89 85 a8 fb ff ff 	mov    %rax,-0x458(%rbp)
   1a5f9:	48 8d 85 d0 ed ff ff 	lea    -0x1230(%rbp),%rax
   1a600:	48 89 85 b0 fb ff ff 	mov    %rax,-0x450(%rbp)
   1a607:	48 8d 85 d0 ed ff ff 	lea    -0x1230(%rbp),%rax
   1a60e:	48 89 85 b8 fb ff ff 	mov    %rax,-0x448(%rbp)
   1a615:	48 8d 85 d0 ed ff ff 	lea    -0x1230(%rbp),%rax
   1a61c:	48 89 85 c0 fb ff ff 	mov    %rax,-0x440(%rbp)
   1a623:	48 8d 85 d0 ed ff ff 	lea    -0x1230(%rbp),%rax
   1a62a:	48 89 85 c8 fb ff ff 	mov    %rax,-0x438(%rbp)
   1a631:	48 8d 85 d0 ed ff ff 	lea    -0x1230(%rbp),%rax
   1a638:	48 89 85 d0 fb ff ff 	mov    %rax,-0x430(%rbp)
   1a63f:	48 8d 85 d0 ed ff ff 	lea    -0x1230(%rbp),%rax
   1a646:	48 89 85 d8 fb ff ff 	mov    %rax,-0x428(%rbp)
   1a64d:	48 8d 85 d0 ed ff ff 	lea    -0x1230(%rbp),%rax
   1a654:	48 89 85 e0 fb ff ff 	mov    %rax,-0x420(%rbp)
   1a65b:	48 8d 85 d0 ed ff ff 	lea    -0x1230(%rbp),%rax
   1a662:	48 89 85 e8 fb ff ff 	mov    %rax,-0x418(%rbp)
   1a669:	48 8d 85 d0 ed ff ff 	lea    -0x1230(%rbp),%rax
   1a670:	48 89 85 f0 fb ff ff 	mov    %rax,-0x410(%rbp)
   1a677:	48 8d 85 d0 ed ff ff 	lea    -0x1230(%rbp),%rax
   1a67e:	48 89 85 f8 fb ff ff 	mov    %rax,-0x408(%rbp)
   1a685:	48 8d 85 d0 ed ff ff 	lea    -0x1230(%rbp),%rax
   1a68c:	48 89 85 00 fc ff ff 	mov    %rax,-0x400(%rbp)
   1a693:	48 8d 85 d0 ed ff ff 	lea    -0x1230(%rbp),%rax
   1a69a:	48 89 85 08 fc ff ff 	mov    %rax,-0x3f8(%rbp)
   1a6a1:	48 8d 85 d0 ed ff ff 	lea    -0x1230(%rbp),%rax
   1a6a8:	48 89 85 10 fc ff ff 	mov    %rax,-0x3f0(%rbp)
   1a6af:	48 8d 85 d0 ed ff ff 	lea    -0x1230(%rbp),%rax
   1a6b6:	48 89 85 18 fc ff ff 	mov    %rax,-0x3e8(%rbp)
   1a6bd:	48 8d 85 d0 ed ff ff 	lea    -0x1230(%rbp),%rax
   1a6c4:	48 89 85 20 fc ff ff 	mov    %rax,-0x3e0(%rbp)
   1a6cb:	48 8d 85 d0 ed ff ff 	lea    -0x1230(%rbp),%rax
   1a6d2:	48 89 85 28 fc ff ff 	mov    %rax,-0x3d8(%rbp)
   1a6d9:	48 8d 85 d0 ed ff ff 	lea    -0x1230(%rbp),%rax
   1a6e0:	48 89 85 30 fc ff ff 	mov    %rax,-0x3d0(%rbp)
   1a6e7:	48 8d 85 d0 ed ff ff 	lea    -0x1230(%rbp),%rax
   1a6ee:	48 89 85 38 fc ff ff 	mov    %rax,-0x3c8(%rbp)
   1a6f5:	48 8d 85 d0 ed ff ff 	lea    -0x1230(%rbp),%rax
   1a6fc:	48 89 85 40 fc ff ff 	mov    %rax,-0x3c0(%rbp)
   1a703:	48 8d 85 d0 ed ff ff 	lea    -0x1230(%rbp),%rax
   1a70a:	48 89 85 48 fc ff ff 	mov    %rax,-0x3b8(%rbp)
   1a711:	48 8d 85 d0 ed ff ff 	lea    -0x1230(%rbp),%rax
   1a718:	48 89 85 50 fc ff ff 	mov    %rax,-0x3b0(%rbp)
   1a71f:	48 8d 85 d0 ed ff ff 	lea    -0x1230(%rbp),%rax
   1a726:	48 89 85 58 fc ff ff 	mov    %rax,-0x3a8(%rbp)
   1a72d:	48 8d 85 d0 ed ff ff 	lea    -0x1230(%rbp),%rax
   1a734:	48 89 85 60 fc ff ff 	mov    %rax,-0x3a0(%rbp)
   1a73b:	48 8d 85 d0 ed ff ff 	lea    -0x1230(%rbp),%rax
   1a742:	48 89 85 68 fc ff ff 	mov    %rax,-0x398(%rbp)
   1a749:	48 8d 85 d0 ed ff ff 	lea    -0x1230(%rbp),%rax
   1a750:	48 89 85 70 fc ff ff 	mov    %rax,-0x390(%rbp)
   1a757:	48 8d 85 d0 ed ff ff 	lea    -0x1230(%rbp),%rax
   1a75e:	48 89 85 78 fc ff ff 	mov    %rax,-0x388(%rbp)
   1a765:	48 8d 85 d0 ed ff ff 	lea    -0x1230(%rbp),%rax
   1a76c:	48 89 85 80 fc ff ff 	mov    %rax,-0x380(%rbp)
   1a773:	48 8d 85 d0 ed ff ff 	lea    -0x1230(%rbp),%rax
   1a77a:	48 89 85 88 fc ff ff 	mov    %rax,-0x378(%rbp)
   1a781:	48 8d 85 d0 ed ff ff 	lea    -0x1230(%rbp),%rax
   1a788:	48 89 85 90 fc ff ff 	mov    %rax,-0x370(%rbp)
   1a78f:	48 8d 85 d0 ed ff ff 	lea    -0x1230(%rbp),%rax
   1a796:	48 89 85 98 fc ff ff 	mov    %rax,-0x368(%rbp)
   1a79d:	48 8d 85 d0 ed ff ff 	lea    -0x1230(%rbp),%rax
   1a7a4:	48 89 85 a0 fc ff ff 	mov    %rax,-0x360(%rbp)
   1a7ab:	48 8d 85 d0 ed ff ff 	lea    -0x1230(%rbp),%rax
   1a7b2:	48 89 85 a8 fc ff ff 	mov    %rax,-0x358(%rbp)
   1a7b9:	48 8d 85 d0 ed ff ff 	lea    -0x1230(%rbp),%rax
   1a7c0:	48 89 85 b0 fc ff ff 	mov    %rax,-0x350(%rbp)
   1a7c7:	48 8d 85 d0 ed ff ff 	lea    -0x1230(%rbp),%rax
   1a7ce:	48 89 85 b8 fc ff ff 	mov    %rax,-0x348(%rbp)
   1a7d5:	48 8d 85 d0 ed ff ff 	lea    -0x1230(%rbp),%rax
   1a7dc:	48 89 85 c0 fc ff ff 	mov    %rax,-0x340(%rbp)
   1a7e3:	48 8d 85 d0 ed ff ff 	lea    -0x1230(%rbp),%rax
   1a7ea:	48 89 85 c8 fc ff ff 	mov    %rax,-0x338(%rbp)
   1a7f1:	48 8d 85 d0 ed ff ff 	lea    -0x1230(%rbp),%rax
   1a7f8:	48 89 85 d0 fc ff ff 	mov    %rax,-0x330(%rbp)
   1a7ff:	48 8d 85 d0 ed ff ff 	lea    -0x1230(%rbp),%rax
   1a806:	48 89 85 d8 fc ff ff 	mov    %rax,-0x328(%rbp)
   1a80d:	48 8d 85 d0 ed ff ff 	lea    -0x1230(%rbp),%rax
   1a814:	48 89 85 e0 fc ff ff 	mov    %rax,-0x320(%rbp)
   1a81b:	48 8d 85 d0 ed ff ff 	lea    -0x1230(%rbp),%rax
   1a822:	48 89 85 e8 fc ff ff 	mov    %rax,-0x318(%rbp)
   1a829:	48 8d 85 d0 ed ff ff 	lea    -0x1230(%rbp),%rax
   1a830:	48 89 85 f0 fc ff ff 	mov    %rax,-0x310(%rbp)
   1a837:	48 8d 85 d0 ed ff ff 	lea    -0x1230(%rbp),%rax
   1a83e:	48 89 85 f8 fc ff ff 	mov    %rax,-0x308(%rbp)
   1a845:	48 8d 85 d0 ed ff ff 	lea    -0x1230(%rbp),%rax
   1a84c:	48 89 85 00 fd ff ff 	mov    %rax,-0x300(%rbp)
   1a853:	48 8d 85 d0 ed ff ff 	lea    -0x1230(%rbp),%rax
   1a85a:	48 89 85 08 fd ff ff 	mov    %rax,-0x2f8(%rbp)
   1a861:	48 8d 85 d0 ed ff ff 	lea    -0x1230(%rbp),%rax
   1a868:	48 89 85 10 fd ff ff 	mov    %rax,-0x2f0(%rbp)
   1a86f:	48 8d 85 d0 ed ff ff 	lea    -0x1230(%rbp),%rax
   1a876:	48 89 85 18 fd ff ff 	mov    %rax,-0x2e8(%rbp)
   1a87d:	48 8d 85 d0 ed ff ff 	lea    -0x1230(%rbp),%rax
   1a884:	48 89 85 20 fd ff ff 	mov    %rax,-0x2e0(%rbp)
   1a88b:	48 8d 85 d0 ed ff ff 	lea    -0x1230(%rbp),%rax
   1a892:	48 89 85 28 fd ff ff 	mov    %rax,-0x2d8(%rbp)
   1a899:	48 8d 85 d0 ed ff ff 	lea    -0x1230(%rbp),%rax
   1a8a0:	48 89 85 30 fd ff ff 	mov    %rax,-0x2d0(%rbp)
   1a8a7:	48 8d 85 d0 ed ff ff 	lea    -0x1230(%rbp),%rax
   1a8ae:	48 89 85 38 fd ff ff 	mov    %rax,-0x2c8(%rbp)
   1a8b5:	48 8d 85 d0 ed ff ff 	lea    -0x1230(%rbp),%rax
   1a8bc:	48 89 85 40 fd ff ff 	mov    %rax,-0x2c0(%rbp)
   1a8c3:	48 8d 85 d0 ed ff ff 	lea    -0x1230(%rbp),%rax
   1a8ca:	48 89 85 48 fd ff ff 	mov    %rax,-0x2b8(%rbp)
   1a8d1:	48 8d 85 d0 ed ff ff 	lea    -0x1230(%rbp),%rax
   1a8d8:	48 89 85 50 fd ff ff 	mov    %rax,-0x2b0(%rbp)
   1a8df:	48 8d 85 d0 ed ff ff 	lea    -0x1230(%rbp),%rax
   1a8e6:	48 89 85 58 fd ff ff 	mov    %rax,-0x2a8(%rbp)
   1a8ed:	48 8d 85 d0 ed ff ff 	lea    -0x1230(%rbp),%rax
   1a8f4:	48 89 85 60 fd ff ff 	mov    %rax,-0x2a0(%rbp)
   1a8fb:	48 8d 85 d0 ed ff ff 	lea    -0x1230(%rbp),%rax
   1a902:	48 89 85 68 fd ff ff 	mov    %rax,-0x298(%rbp)
   1a909:	48 8d 85 d0 ed ff ff 	lea    -0x1230(%rbp),%rax
   1a910:	48 89 85 70 fd ff ff 	mov    %rax,-0x290(%rbp)
   1a917:	48 8d 85 d0 ed ff ff 	lea    -0x1230(%rbp),%rax
   1a91e:	48 89 85 78 fd ff ff 	mov    %rax,-0x288(%rbp)
   1a925:	48 8d 85 d0 ed ff ff 	lea    -0x1230(%rbp),%rax
   1a92c:	48 89 85 80 fd ff ff 	mov    %rax,-0x280(%rbp)
   1a933:	48 8d 85 d0 ed ff ff 	lea    -0x1230(%rbp),%rax
   1a93a:	48 89 85 88 fd ff ff 	mov    %rax,-0x278(%rbp)
   1a941:	48 8d 85 d0 ed ff ff 	lea    -0x1230(%rbp),%rax
   1a948:	48 89 85 90 fd ff ff 	mov    %rax,-0x270(%rbp)
   1a94f:	48 8d 85 d0 ed ff ff 	lea    -0x1230(%rbp),%rax
   1a956:	48 89 85 98 fd ff ff 	mov    %rax,-0x268(%rbp)
   1a95d:	48 8d 85 d0 ed ff ff 	lea    -0x1230(%rbp),%rax
   1a964:	48 89 85 a0 fd ff ff 	mov    %rax,-0x260(%rbp)
   1a96b:	48 8d 85 d0 ed ff ff 	lea    -0x1230(%rbp),%rax
   1a972:	48 89 85 a8 fd ff ff 	mov    %rax,-0x258(%rbp)
   1a979:	48 8d 85 d0 ed ff ff 	lea    -0x1230(%rbp),%rax
   1a980:	48 89 85 b0 fd ff ff 	mov    %rax,-0x250(%rbp)
   1a987:	48 8d 85 d0 ed ff ff 	lea    -0x1230(%rbp),%rax
   1a98e:	48 89 85 b8 fd ff ff 	mov    %rax,-0x248(%rbp)
   1a995:	48 8d 85 d0 ed ff ff 	lea    -0x1230(%rbp),%rax
   1a99c:	48 89 85 c0 fd ff ff 	mov    %rax,-0x240(%rbp)
   1a9a3:	48 8d 85 d0 ed ff ff 	lea    -0x1230(%rbp),%rax
   1a9aa:	48 89 85 c8 fd ff ff 	mov    %rax,-0x238(%rbp)
   1a9b1:	48 8d 85 d0 ed ff ff 	lea    -0x1230(%rbp),%rax
   1a9b8:	48 89 85 d0 fd ff ff 	mov    %rax,-0x230(%rbp)
   1a9bf:	48 8d 85 d0 ed ff ff 	lea    -0x1230(%rbp),%rax
   1a9c6:	48 89 85 d8 fd ff ff 	mov    %rax,-0x228(%rbp)
   1a9cd:	48 8d 85 d0 ed ff ff 	lea    -0x1230(%rbp),%rax
   1a9d4:	48 89 85 e0 fd ff ff 	mov    %rax,-0x220(%rbp)
   1a9db:	48 8d 85 d0 ed ff ff 	lea    -0x1230(%rbp),%rax
   1a9e2:	48 89 85 e8 fd ff ff 	mov    %rax,-0x218(%rbp)
   1a9e9:	48 8d 85 d0 ed ff ff 	lea    -0x1230(%rbp),%rax
   1a9f0:	48 89 85 f0 fd ff ff 	mov    %rax,-0x210(%rbp)
   1a9f7:	48 8d 85 d0 ed ff ff 	lea    -0x1230(%rbp),%rax
   1a9fe:	48 89 85 f8 fd ff ff 	mov    %rax,-0x208(%rbp)
   1aa05:	48 8d 85 d0 ed ff ff 	lea    -0x1230(%rbp),%rax
   1aa0c:	48 89 85 00 fe ff ff 	mov    %rax,-0x200(%rbp)
   1aa13:	48 8d 85 d0 ed ff ff 	lea    -0x1230(%rbp),%rax
   1aa1a:	48 89 85 08 fe ff ff 	mov    %rax,-0x1f8(%rbp)
   1aa21:	48 8d 85 d0 ed ff ff 	lea    -0x1230(%rbp),%rax
   1aa28:	48 89 85 10 fe ff ff 	mov    %rax,-0x1f0(%rbp)
   1aa2f:	48 8d 85 d0 ed ff ff 	lea    -0x1230(%rbp),%rax
   1aa36:	48 89 85 18 fe ff ff 	mov    %rax,-0x1e8(%rbp)
   1aa3d:	48 8d 85 d0 ed ff ff 	lea    -0x1230(%rbp),%rax
   1aa44:	48 89 85 20 fe ff ff 	mov    %rax,-0x1e0(%rbp)
   1aa4b:	48 8d 85 d0 ed ff ff 	lea    -0x1230(%rbp),%rax
   1aa52:	48 89 85 28 fe ff ff 	mov    %rax,-0x1d8(%rbp)
   1aa59:	48 8d 85 d0 ed ff ff 	lea    -0x1230(%rbp),%rax
   1aa60:	48 89 85 30 fe ff ff 	mov    %rax,-0x1d0(%rbp)
   1aa67:	48 8d 85 d0 ed ff ff 	lea    -0x1230(%rbp),%rax
   1aa6e:	48 89 85 38 fe ff ff 	mov    %rax,-0x1c8(%rbp)
   1aa75:	48 8d 85 d0 ed ff ff 	lea    -0x1230(%rbp),%rax
   1aa7c:	48 89 85 40 fe ff ff 	mov    %rax,-0x1c0(%rbp)
   1aa83:	48 8d 85 d0 ed ff ff 	lea    -0x1230(%rbp),%rax
   1aa8a:	48 89 85 48 fe ff ff 	mov    %rax,-0x1b8(%rbp)
   1aa91:	48 8d 85 d0 ed ff ff 	lea    -0x1230(%rbp),%rax
   1aa98:	48 89 85 50 fe ff ff 	mov    %rax,-0x1b0(%rbp)
   1aa9f:	48 8d 85 d0 ed ff ff 	lea    -0x1230(%rbp),%rax
   1aaa6:	48 89 85 58 fe ff ff 	mov    %rax,-0x1a8(%rbp)
   1aaad:	48 8d 85 d0 ed ff ff 	lea    -0x1230(%rbp),%rax
   1aab4:	48 89 85 60 fe ff ff 	mov    %rax,-0x1a0(%rbp)
   1aabb:	48 8d 85 d0 ed ff ff 	lea    -0x1230(%rbp),%rax
   1aac2:	48 89 85 68 fe ff ff 	mov    %rax,-0x198(%rbp)
   1aac9:	48 8d 85 d0 ed ff ff 	lea    -0x1230(%rbp),%rax
   1aad0:	48 89 85 70 fe ff ff 	mov    %rax,-0x190(%rbp)
   1aad7:	48 8d 85 d0 ed ff ff 	lea    -0x1230(%rbp),%rax
   1aade:	48 89 85 78 fe ff ff 	mov    %rax,-0x188(%rbp)
   1aae5:	48 8d 85 d0 ed ff ff 	lea    -0x1230(%rbp),%rax
   1aaec:	48 89 85 80 fe ff ff 	mov    %rax,-0x180(%rbp)
   1aaf3:	48 8d 85 d0 ed ff ff 	lea    -0x1230(%rbp),%rax
   1aafa:	48 89 85 88 fe ff ff 	mov    %rax,-0x178(%rbp)
   1ab01:	48 8d 85 d0 ed ff ff 	lea    -0x1230(%rbp),%rax
   1ab08:	48 89 85 90 fe ff ff 	mov    %rax,-0x170(%rbp)
   1ab0f:	48 8d 85 d0 ed ff ff 	lea    -0x1230(%rbp),%rax
   1ab16:	48 89 85 98 fe ff ff 	mov    %rax,-0x168(%rbp)
   1ab1d:	48 8d 85 d0 ed ff ff 	lea    -0x1230(%rbp),%rax
   1ab24:	48 89 85 a0 fe ff ff 	mov    %rax,-0x160(%rbp)
   1ab2b:	48 8d 85 d0 ed ff ff 	lea    -0x1230(%rbp),%rax
   1ab32:	48 89 85 a8 fe ff ff 	mov    %rax,-0x158(%rbp)
   1ab39:	48 8d 85 d0 ed ff ff 	lea    -0x1230(%rbp),%rax
   1ab40:	48 89 85 b0 fe ff ff 	mov    %rax,-0x150(%rbp)
   1ab47:	48 8d 85 d0 ed ff ff 	lea    -0x1230(%rbp),%rax
   1ab4e:	48 89 85 b8 fe ff ff 	mov    %rax,-0x148(%rbp)
   1ab55:	48 8d 85 d0 ed ff ff 	lea    -0x1230(%rbp),%rax
   1ab5c:	48 89 85 c0 fe ff ff 	mov    %rax,-0x140(%rbp)
   1ab63:	48 8d 85 d0 ed ff ff 	lea    -0x1230(%rbp),%rax
   1ab6a:	48 89 85 c8 fe ff ff 	mov    %rax,-0x138(%rbp)
   1ab71:	48 8d 85 d0 ed ff ff 	lea    -0x1230(%rbp),%rax
   1ab78:	48 89 85 d0 fe ff ff 	mov    %rax,-0x130(%rbp)
   1ab7f:	48 8d 85 d0 ed ff ff 	lea    -0x1230(%rbp),%rax
   1ab86:	48 89 85 d8 fe ff ff 	mov    %rax,-0x128(%rbp)
   1ab8d:	48 8d 85 d0 ed ff ff 	lea    -0x1230(%rbp),%rax
   1ab94:	48 89 85 e0 fe ff ff 	mov    %rax,-0x120(%rbp)
   1ab9b:	48 8d 85 d0 ed ff ff 	lea    -0x1230(%rbp),%rax
   1aba2:	48 89 85 e8 fe ff ff 	mov    %rax,-0x118(%rbp)
   1aba9:	48 8d 85 d0 ed ff ff 	lea    -0x1230(%rbp),%rax
   1abb0:	48 89 85 f0 fe ff ff 	mov    %rax,-0x110(%rbp)
   1abb7:	48 8d 85 d0 ed ff ff 	lea    -0x1230(%rbp),%rax
   1abbe:	48 89 85 f8 fe ff ff 	mov    %rax,-0x108(%rbp)
   1abc5:	48 8d 85 d0 ed ff ff 	lea    -0x1230(%rbp),%rax
   1abcc:	48 89 85 00 ff ff ff 	mov    %rax,-0x100(%rbp)
   1abd3:	48 8d 85 d0 ed ff ff 	lea    -0x1230(%rbp),%rax
   1abda:	48 89 85 08 ff ff ff 	mov    %rax,-0xf8(%rbp)
   1abe1:	48 8d 85 d0 ed ff ff 	lea    -0x1230(%rbp),%rax
   1abe8:	48 89 85 10 ff ff ff 	mov    %rax,-0xf0(%rbp)
   1abef:	48 8d 85 d0 ed ff ff 	lea    -0x1230(%rbp),%rax
   1abf6:	48 89 85 18 ff ff ff 	mov    %rax,-0xe8(%rbp)
   1abfd:	48 8d 85 d0 ed ff ff 	lea    -0x1230(%rbp),%rax
   1ac04:	48 89 85 20 ff ff ff 	mov    %rax,-0xe0(%rbp)
   1ac0b:	48 8d 85 d0 ed ff ff 	lea    -0x1230(%rbp),%rax
   1ac12:	48 89 85 28 ff ff ff 	mov    %rax,-0xd8(%rbp)
   1ac19:	48 8d 85 d0 ed ff ff 	lea    -0x1230(%rbp),%rax
   1ac20:	48 89 85 30 ff ff ff 	mov    %rax,-0xd0(%rbp)
   1ac27:	48 8d 85 d0 ed ff ff 	lea    -0x1230(%rbp),%rax
   1ac2e:	48 89 85 38 ff ff ff 	mov    %rax,-0xc8(%rbp)
   1ac35:	48 8d 85 d0 ed ff ff 	lea    -0x1230(%rbp),%rax
   1ac3c:	48 89 85 40 ff ff ff 	mov    %rax,-0xc0(%rbp)
   1ac43:	48 8d 85 d0 ed ff ff 	lea    -0x1230(%rbp),%rax
   1ac4a:	48 89 85 48 ff ff ff 	mov    %rax,-0xb8(%rbp)
   1ac51:	48 8d 85 d0 ed ff ff 	lea    -0x1230(%rbp),%rax
   1ac58:	48 89 85 50 ff ff ff 	mov    %rax,-0xb0(%rbp)
   1ac5f:	48 8d 85 d0 ed ff ff 	lea    -0x1230(%rbp),%rax
   1ac66:	48 89 85 58 ff ff ff 	mov    %rax,-0xa8(%rbp)
   1ac6d:	48 8d 85 d0 ed ff ff 	lea    -0x1230(%rbp),%rax
   1ac74:	48 89 85 60 ff ff ff 	mov    %rax,-0xa0(%rbp)
   1ac7b:	48 8d 85 d0 ed ff ff 	lea    -0x1230(%rbp),%rax
   1ac82:	48 89 85 68 ff ff ff 	mov    %rax,-0x98(%rbp)
   1ac89:	48 8d 05 fc da 00 00 	lea    0xdafc(%rip),%rax        # 2878c <g_520>
   1ac90:	48 89 05 c1 1f 01 00 	mov    %rax,0x11fc1(%rip)        # 2cc58 <g_880>
   1ac97:	0f b6 05 e2 d3 00 00 	movzbl 0xd3e2(%rip),%eax        # 28080 <g_38>
   1ac9e:	83 c0 01             	add    $0x1,%eax
   1aca1:	88 05 d9 d3 00 00    	mov    %al,0xd3d9(%rip)        # 28080 <g_38>
   1aca7:	0f b6 05 d2 d3 00 00 	movzbl 0xd3d2(%rip),%eax        # 28080 <g_38>
   1acae:	84 c0                	test   %al,%al
   1acb0:	0f 8e ea f3 ff ff    	jle    1a0a0 <func_13+0x21dc>
   1acb6:	8b 85 64 eb ff ff    	mov    -0x149c(%rbp),%eax
   1acbc:	83 e8 01             	sub    $0x1,%eax
   1acbf:	89 85 64 eb ff ff    	mov    %eax,-0x149c(%rbp)
   1acc5:	8b 85 64 eb ff ff    	mov    -0x149c(%rbp),%eax
   1accb:	85 c0                	test   %eax,%eax
   1accd:	0f 89 3a f1 ff ff    	jns    19e0d <func_13+0x1f49>
   1acd3:	48 83 ad 28 eb ff ff 	subq   $0x1,-0x14d8(%rbp)
   1acda:	01 
   1acdb:	48 83 bd 28 eb ff ff 	cmpq   $0x0,-0x14d8(%rbp)
   1ace2:	00 
   1ace3:	0f 89 1b d5 ff ff    	jns    18204 <func_13+0x340>
   1ace9:	8b 85 70 eb ff ff    	mov    -0x1490(%rbp),%eax
   1acef:	85 c0                	test   %eax,%eax
   1acf1:	0f 84 ea 02 00 00    	je     1afe1 <func_13+0x311d>
   1acf7:	48 b8 ac 65 59 fb 62 	movabs $0xb3ff1362fb5965ac,%rax
   1acfe:	13 ff b3 
   1ad01:	48 89 85 e8 ec ff ff 	mov    %rax,-0x1318(%rbp)
   1ad08:	48 8d 85 b0 f8 ff ff 	lea    -0x750(%rbp),%rax
   1ad0f:	48 8d 15 ea ec 00 00 	lea    0xecea(%rip),%rdx        # 29a00 <g_2631+0xfd8>
   1ad16:	b9 d2 00 00 00       	mov    $0xd2,%ecx
   1ad1b:	48 89 c7             	mov    %rax,%rdi
   1ad1e:	48 89 d6             	mov    %rdx,%rsi
   1ad21:	f3 48 a5             	rep movsq %ds:(%rsi),%es:(%rdi)
   1ad24:	48 c7 05 b1 d7 00 00 	movq   $0x0,0xd7b1(%rip)        # 284e0 <g_146>
   1ad2b:	00 00 00 00 
   1ad2f:	e9 97 02 00 00       	jmpq   1afcb <func_13+0x3107>
   1ad34:	c7 85 74 eb ff ff 00 	movl   $0x0,-0x148c(%rbp)
   1ad3b:	00 00 00 
   1ad3e:	eb 1b                	jmp    1ad5b <func_13+0x2e97>
   1ad40:	8b 85 74 eb ff ff    	mov    -0x148c(%rbp),%eax
   1ad46:	48 98                	cltq   
   1ad48:	48 c7 84 c5 b0 f1 ff 	movq   $0x0,-0xe50(%rbp,%rax,8)
   1ad4f:	ff 00 00 00 00 
   1ad54:	83 85 74 eb ff ff 01 	addl   $0x1,-0x148c(%rbp)
   1ad5b:	83 bd 74 eb ff ff 02 	cmpl   $0x2,-0x148c(%rbp)
   1ad62:	7e dc                	jle    1ad40 <func_13+0x2e7c>
   1ad64:	c6 05 15 d3 00 00 00 	movb   $0x0,0xd315(%rip)        # 28080 <g_38>
   1ad6b:	e9 51 01 00 00       	jmpq   1aec1 <func_13+0x2ffd>
   1ad70:	48 8d 05 99 26 01 00 	lea    0x12699(%rip),%rax        # 2d410 <g_21>
   1ad77:	48 89 85 f0 ec ff ff 	mov    %rax,-0x1310(%rbp)
   1ad7e:	48 8b 85 f0 ec ff ff 	mov    -0x1310(%rbp),%rax
   1ad85:	48 8d 95 68 eb ff ff 	lea    -0x1498(%rbp),%rdx
   1ad8c:	48 89 10             	mov    %rdx,(%rax)
   1ad8f:	c7 05 ff d9 00 00 00 	movl   $0x0,0xd9ff(%rip)        # 28798 <g_646>
   1ad96:	00 00 00 
   1ad99:	e9 f0 00 00 00       	jmpq   1ae8e <func_13+0x2fca>
   1ad9e:	48 8d 05 27 d3 00 00 	lea    0xd327(%rip),%rax        # 280cc <g_71>
   1ada5:	48 89 85 f8 ec ff ff 	mov    %rax,-0x1308(%rbp)
   1adac:	48 8d 85 58 eb ff ff 	lea    -0x14a8(%rbp),%rax
   1adb3:	48 89 85 00 ed ff ff 	mov    %rax,-0x1300(%rbp)
   1adba:	48 8d 85 c0 f4 ff ff 	lea    -0xb40(%rbp),%rax
   1adc1:	48 83 c0 30          	add    $0x30,%rax
   1adc5:	48 89 85 08 ed ff ff 	mov    %rax,-0x12f8(%rbp)
   1adcc:	48 8d 85 70 eb ff ff 	lea    -0x1490(%rbp),%rax
   1add3:	48 89 85 10 ed ff ff 	mov    %rax,-0x12f0(%rbp)
   1adda:	c7 85 78 eb ff ff 00 	movl   $0x0,-0x1488(%rbp)
   1ade1:	00 00 00 
   1ade4:	eb 1b                	jmp    1ae01 <func_13+0x2f3d>
   1ade6:	8b 85 78 eb ff ff    	mov    -0x1488(%rbp),%eax
   1adec:	48 98                	cltq   
   1adee:	48 c7 84 c5 00 f3 ff 	movq   $0x0,-0xd00(%rbp,%rax,8)
   1adf5:	ff 00 00 00 00 
   1adfa:	83 85 78 eb ff ff 01 	addl   $0x1,-0x1488(%rbp)
   1ae01:	83 bd 78 eb ff ff 04 	cmpl   $0x4,-0x1488(%rbp)
   1ae08:	7e dc                	jle    1ade6 <func_13+0x2f22>
   1ae0a:	48 8b 85 b0 f1 ff ff 	mov    -0xe50(%rbp),%rax
   1ae11:	48 83 e8 01          	sub    $0x1,%rax
   1ae15:	48 89 85 b0 f1 ff ff 	mov    %rax,-0xe50(%rbp)
   1ae1c:	be 07 00 00 00       	mov    $0x7,%esi
   1ae21:	bf 01 00 00 00       	mov    $0x1,%edi
   1ae26:	e8 4f 20 ff ff       	callq  ce7a <safe_rshift_func_uint16_t_u_u>
   1ae2b:	66 85 c0             	test   %ax,%ax
   1ae2e:	74 10                	je     1ae40 <func_13+0x2f7c>
   1ae30:	0f b6 05 d2 d6 00 00 	movzbl 0xd6d2(%rip),%eax        # 28509 <g_289>
   1ae37:	84 c0                	test   %al,%al
   1ae39:	74 44                	je     1ae7f <func_13+0x2fbb>
   1ae3b:	e9 b4 d3 ff ff       	jmpq   181f4 <func_13+0x330>
   1ae40:	48 8b 15 b1 17 01 00 	mov    0x117b1(%rip),%rdx        # 2c5f8 <g_279>
   1ae47:	48 8b 85 38 eb ff ff 	mov    -0x14c8(%rbp),%rax
   1ae4e:	48 8b 0a             	mov    (%rdx),%rcx
   1ae51:	48 8b 5a 08          	mov    0x8(%rdx),%rbx
   1ae55:	48 89 08             	mov    %rcx,(%rax)
   1ae58:	48 89 58 08          	mov    %rbx,0x8(%rax)
   1ae5c:	48 8b 4a 10          	mov    0x10(%rdx),%rcx
   1ae60:	48 8b 5a 18          	mov    0x18(%rdx),%rbx
   1ae64:	48 89 48 10          	mov    %rcx,0x10(%rax)
   1ae68:	48 89 58 18          	mov    %rbx,0x18(%rax)
   1ae6c:	8b 4a 20             	mov    0x20(%rdx),%ecx
   1ae6f:	89 48 20             	mov    %ecx,0x20(%rax)
   1ae72:	0f b7 52 24          	movzwl 0x24(%rdx),%edx
   1ae76:	66 89 50 24          	mov    %dx,0x24(%rax)
   1ae7a:	e9 87 10 00 00       	jmpq   1bf06 <func_13+0x4042>
   1ae7f:	8b 05 13 d9 00 00    	mov    0xd913(%rip),%eax        # 28798 <g_646>
   1ae85:	83 c0 01             	add    $0x1,%eax
   1ae88:	89 05 0a d9 00 00    	mov    %eax,0xd90a(%rip)        # 28798 <g_646>
   1ae8e:	8b 05 04 d9 00 00    	mov    0xd904(%rip),%eax        # 28798 <g_646>
   1ae94:	83 f8 03             	cmp    $0x3,%eax
   1ae97:	0f 8e 01 ff ff ff    	jle    1ad9e <func_13+0x2eda>
   1ae9d:	48 8b 05 4c 17 01 00 	mov    0x1174c(%rip),%rax        # 2c5f0 <g_259>
   1aea4:	48 8b 10             	mov    (%rax),%rdx
   1aea7:	48 8b 85 f0 ec ff ff 	mov    -0x1310(%rbp),%rax
   1aeae:	48 89 10             	mov    %rdx,(%rax)
   1aeb1:	0f b6 05 c8 d1 00 00 	movzbl 0xd1c8(%rip),%eax        # 28080 <g_38>
   1aeb8:	83 c0 01             	add    $0x1,%eax
   1aebb:	88 05 bf d1 00 00    	mov    %al,0xd1bf(%rip)        # 28080 <g_38>
   1aec1:	0f b6 05 b8 d1 00 00 	movzbl 0xd1b8(%rip),%eax        # 28080 <g_38>
   1aec8:	3c 10                	cmp    $0x10,%al
   1aeca:	0f 8f a0 fe ff ff    	jg     1ad70 <func_13+0x2eac>
   1aed0:	48 8b 85 70 fc ff ff 	mov    -0x390(%rbp),%rax
   1aed7:	48 85 c0             	test   %rax,%rax
   1aeda:	0f 95 c0             	setne  %al
   1aedd:	44 0f b6 e0          	movzbl %al,%r12d
   1aee1:	8b 85 60 eb ff ff    	mov    -0x14a0(%rbp),%eax
   1aee7:	0f be d8             	movsbl %al,%ebx
   1aeea:	48 8b 85 28 eb ff ff 	mov    -0x14d8(%rbp),%rax
   1aef1:	41 89 c6             	mov    %eax,%r14d
   1aef4:	8b 05 6e d8 00 00    	mov    0xd86e(%rip),%eax        # 28768 <g_369>
   1aefa:	be 03 00 00 00       	mov    $0x3,%esi
   1aeff:	bf 00 00 00 00       	mov    $0x0,%edi
   1af04:	e8 84 1d ff ff       	callq  cc8d <safe_rshift_func_uint8_t_u_s>
   1af09:	44 0f b6 e8          	movzbl %al,%r13d
   1af0d:	48 8b 85 a0 ed ff ff 	mov    -0x1260(%rbp),%rax
   1af14:	41 89 c7             	mov    %eax,%r15d
   1af17:	be ae 00 00 00       	mov    $0xae,%esi
   1af1c:	bf 01 00 00 00       	mov    $0x1,%edi
   1af21:	e8 88 1c ff ff       	callq  cbae <safe_mod_func_uint8_t_u_u>
   1af26:	0f be c0             	movsbl %al,%eax
   1af29:	44 89 fe             	mov    %r15d,%esi
   1af2c:	89 c7                	mov    %eax,%edi
   1af2e:	e8 39 14 ff ff       	callq  c36c <safe_rshift_func_int8_t_s_u>
   1af33:	0f be c0             	movsbl %al,%eax
   1af36:	41 39 c5             	cmp    %eax,%r13d
   1af39:	0f 95 c0             	setne  %al
   1af3c:	0f b6 c0             	movzbl %al,%eax
   1af3f:	be 06 00 00 00       	mov    $0x6,%esi
   1af44:	89 c7                	mov    %eax,%edi
   1af46:	e8 a3 13 ff ff       	callq  c2ee <safe_lshift_func_int8_t_s_u>
   1af4b:	8b 05 1f d8 00 00    	mov    0xd81f(%rip),%eax        # 28770 <g_388>
   1af51:	c1 e0 03             	shl    $0x3,%eax
   1af54:	c0 f8 03             	sar    $0x3,%al
   1af57:	0f be c0             	movsbl %al,%eax
   1af5a:	48 8b 95 58 ec ff ff 	mov    -0x13a8(%rbp),%rdx
   1af61:	21 d0                	and    %edx,%eax
   1af63:	44 89 f6             	mov    %r14d,%esi
   1af66:	89 c7                	mov    %eax,%edi
   1af68:	e8 98 16 ff ff       	callq  c605 <safe_sub_func_int32_t_s_s>
   1af6d:	48 8b 05 c4 16 01 00 	mov    0x116c4(%rip),%rax        # 2c638 <g_416>
   1af74:	48 8b 00             	mov    (%rax),%rax
   1af77:	0f b7 00             	movzwl (%rax),%eax
   1af7a:	0f b7 c0             	movzwl %ax,%eax
   1af7d:	be 01 00 00 00       	mov    $0x1,%esi
   1af82:	89 c7                	mov    %eax,%edi
   1af84:	e8 b4 1d ff ff       	callq  cd3d <safe_mul_func_uint16_t_u_u>
   1af89:	0f be c0             	movsbl %al,%eax
   1af8c:	89 de                	mov    %ebx,%esi
   1af8e:	89 c7                	mov    %eax,%edi
   1af90:	e8 9c 12 ff ff       	callq  c231 <safe_mod_func_int8_t_s_s>
   1af95:	0f be c0             	movsbl %al,%eax
   1af98:	41 39 c4             	cmp    %eax,%r12d
   1af9b:	0f 95 c2             	setne  %dl
   1af9e:	48 8b 05 9b 16 01 00 	mov    0x1169b(%rip),%rax        # 2c640 <g_460>
   1afa5:	0f b6 d2             	movzbl %dl,%edx
   1afa8:	89 10                	mov    %edx,(%rax)
   1afaa:	48 8b 05 2f d5 00 00 	mov    0xd52f(%rip),%rax        # 284e0 <g_146>
   1afb1:	0f be c0             	movsbl %al,%eax
   1afb4:	be 08 00 00 00       	mov    $0x8,%esi
   1afb9:	89 c7                	mov    %eax,%edi
   1afbb:	e8 14 12 ff ff       	callq  c1d4 <safe_add_func_int8_t_s_s>
   1afc0:	48 0f be c0          	movsbq %al,%rax
   1afc4:	48 89 05 15 d5 00 00 	mov    %rax,0xd515(%rip)        # 284e0 <g_146>
   1afcb:	48 8b 05 0e d5 00 00 	mov    0xd50e(%rip),%rax        # 284e0 <g_146>
   1afd2:	48 83 f8 12          	cmp    $0x12,%rax
   1afd6:	0f 85 58 fd ff ff    	jne    1ad34 <func_13+0x2e70>
   1afdc:	e9 eb 0e 00 00       	jmpq   1becc <func_13+0x4008>
   1afe1:	c7 85 40 ee ff ff ff 	movl   $0xffffffff,-0x11c0(%rbp)
   1afe8:	ff ff ff 
   1afeb:	c7 85 44 ee ff ff 09 	movl   $0x9,-0x11bc(%rbp)
   1aff2:	00 00 00 
   1aff5:	c7 85 48 ee ff ff 09 	movl   $0x9,-0x11b8(%rbp)
   1affc:	00 00 00 
   1afff:	c7 85 4c ee ff ff ff 	movl   $0xffffffff,-0x11b4(%rbp)
   1b006:	ff ff ff 
   1b009:	c7 85 50 ee ff ff 09 	movl   $0x9,-0x11b0(%rbp)
   1b010:	00 00 00 
   1b013:	c7 85 54 ee ff ff 09 	movl   $0x9,-0x11ac(%rbp)
   1b01a:	00 00 00 
   1b01d:	c7 85 58 ee ff ff ff 	movl   $0xffffffff,-0x11a8(%rbp)
   1b024:	ff ff ff 
   1b027:	c7 85 5c ee ff ff 09 	movl   $0x9,-0x11a4(%rbp)
   1b02e:	00 00 00 
   1b031:	48 c7 85 80 ec ff ff 	movq   $0x0,-0x1380(%rbp)
   1b038:	00 00 00 00 
   1b03c:	48 8d 85 5c eb ff ff 	lea    -0x14a4(%rbp),%rax
   1b043:	48 89 85 88 ec ff ff 	mov    %rax,-0x1378(%rbp)
   1b04a:	c7 85 c4 eb ff ff 74 	movl   $0xcad18174,-0x143c(%rbp)
   1b051:	81 d1 ca 
   1b054:	c6 85 4c eb ff ff ff 	movb   $0xff,-0x14b4(%rbp)
   1b05b:	c7 85 c8 eb ff ff f8 	movl   $0xfffffff8,-0x1438(%rbp)
   1b062:	ff ff ff 
   1b065:	c7 85 cc eb ff ff 04 	movl   $0x4,-0x1434(%rbp)
   1b06c:	00 00 00 
   1b06f:	c7 85 d0 eb ff ff 7d 	movl   $0xd98be87d,-0x1430(%rbp)
   1b076:	e8 8b d9 
   1b079:	c7 85 d4 eb ff ff fe 	movl   $0xfffffffe,-0x142c(%rbp)
   1b080:	ff ff ff 
   1b083:	c7 85 d8 eb ff ff 02 	movl   $0x2,-0x1428(%rbp)
   1b08a:	00 00 00 
   1b08d:	c7 85 dc eb ff ff 01 	movl   $0x1,-0x1424(%rbp)
   1b094:	00 00 00 
   1b097:	c7 85 e0 eb ff ff e0 	movl   $0xe4f659e0,-0x1420(%rbp)
   1b09e:	59 f6 e4 
   1b0a1:	48 8d 85 00 f3 ff ff 	lea    -0xd00(%rbp),%rax
   1b0a8:	48 8d 15 11 89 00 00 	lea    0x8911(%rip),%rdx        # 239c0 <g_1963+0x28ac>
   1b0af:	b9 38 00 00 00       	mov    $0x38,%ecx
   1b0b4:	48 89 c7             	mov    %rax,%rdi
   1b0b7:	48 89 d6             	mov    %rdx,%rsi
   1b0ba:	f3 48 a5             	rep movsq %ds:(%rsi),%es:(%rdi)
   1b0bd:	48 b8 f2 ea 63 03 20 	movabs $0xe8d33f200363eaf2,%rax
   1b0c4:	3f d3 e8 
   1b0c7:	48 89 85 90 ec ff ff 	mov    %rax,-0x1370(%rbp)
   1b0ce:	48 8d 05 e3 cf 00 00 	lea    0xcfe3(%rip),%rax        # 280b8 <g_63+0x18>
   1b0d5:	48 89 85 98 ec ff ff 	mov    %rax,-0x1368(%rbp)
   1b0dc:	c7 85 e4 eb ff ff c0 	movl   $0x316903c0,-0x141c(%rbp)
   1b0e3:	03 69 31 
   1b0e6:	8b 85 44 ee ff ff    	mov    -0x11bc(%rbp),%eax
   1b0ec:	85 c0                	test   %eax,%eax
   1b0ee:	74 10                	je     1b100 <func_13+0x323c>
   1b0f0:	80 bd 34 eb ff ff 00 	cmpb   $0x0,-0x14cc(%rbp)
   1b0f7:	74 07                	je     1b100 <func_13+0x323c>
   1b0f9:	b8 01 00 00 00       	mov    $0x1,%eax
   1b0fe:	eb 05                	jmp    1b105 <func_13+0x3241>
   1b100:	b8 00 00 00 00       	mov    $0x0,%eax
   1b105:	48 63 d0             	movslq %eax,%rdx
   1b108:	8b 85 94 eb ff ff    	mov    -0x146c(%rbp),%eax
   1b10e:	48 98                	cltq   
   1b110:	48 89 d6             	mov    %rdx,%rsi
   1b113:	48 89 c7             	mov    %rax,%rdi
   1b116:	e8 13 1f ff ff       	callq  d02e <safe_add_func_uint64_t_u_u>
   1b11b:	48 8b 15 1e 15 01 00 	mov    0x1151e(%rip),%rdx        # 2c640 <g_460>
   1b122:	8b 12                	mov    (%rdx),%edx
   1b124:	21 c2                	and    %eax,%edx
   1b126:	48 8b 05 13 15 01 00 	mov    0x11513(%rip),%rax        # 2c640 <g_460>
   1b12d:	89 10                	mov    %edx,(%rax)
   1b12f:	8b 00                	mov    (%rax),%eax
   1b131:	85 c0                	test   %eax,%eax
   1b133:	0f 84 7e 05 00 00    	je     1b6b7 <func_13+0x37f3>
   1b139:	48 c7 85 a8 ec ff ff 	movq   $0x0,-0x1358(%rbp)
   1b140:	00 00 00 00 
   1b144:	c6 85 d0 ed ff ff c4 	movb   $0xc4,-0x1230(%rbp)
   1b14b:	48 c7 85 90 f0 ff ff 	movq   $0x0,-0xf70(%rbp)
   1b152:	00 00 00 00 
   1b156:	48 8d 05 23 cf 00 00 	lea    0xcf23(%rip),%rax        # 28080 <g_38>
   1b15d:	48 89 85 98 f0 ff ff 	mov    %rax,-0xf68(%rbp)
   1b164:	48 8d 05 15 cf 00 00 	lea    0xcf15(%rip),%rax        # 28080 <g_38>
   1b16b:	48 89 85 a0 f0 ff ff 	mov    %rax,-0xf60(%rbp)
   1b172:	48 c7 85 a8 f0 ff ff 	movq   $0x0,-0xf58(%rbp)
   1b179:	00 00 00 00 
   1b17d:	48 c7 85 b0 f0 ff ff 	movq   $0x0,-0xf50(%rbp)
   1b184:	00 00 00 00 
   1b188:	48 8d 05 f1 ce 00 00 	lea    0xcef1(%rip),%rax        # 28080 <g_38>
   1b18f:	48 89 85 b8 f0 ff ff 	mov    %rax,-0xf48(%rbp)
   1b196:	48 8d 85 d0 ed ff ff 	lea    -0x1230(%rbp),%rax
   1b19d:	48 89 85 c0 f0 ff ff 	mov    %rax,-0xf40(%rbp)
   1b1a4:	48 8d 05 5e d3 00 00 	lea    0xd35e(%rip),%rax        # 28509 <g_289>
   1b1ab:	48 89 85 c8 f0 ff ff 	mov    %rax,-0xf38(%rbp)
   1b1b2:	48 8d 05 50 d3 00 00 	lea    0xd350(%rip),%rax        # 28509 <g_289>
   1b1b9:	48 89 85 d0 f0 ff ff 	mov    %rax,-0xf30(%rbp)
   1b1c0:	48 c7 85 d8 f0 ff ff 	movq   $0x0,-0xf28(%rbp)
   1b1c7:	00 00 00 00 
   1b1cb:	48 8d 05 ae ce 00 00 	lea    0xceae(%rip),%rax        # 28080 <g_38>
   1b1d2:	48 89 85 e0 f0 ff ff 	mov    %rax,-0xf20(%rbp)
   1b1d9:	48 8d 05 a0 ce 00 00 	lea    0xcea0(%rip),%rax        # 28080 <g_38>
   1b1e0:	48 89 85 e8 f0 ff ff 	mov    %rax,-0xf18(%rbp)
   1b1e7:	48 8d 85 d0 ed ff ff 	lea    -0x1230(%rbp),%rax
   1b1ee:	48 89 85 f0 f0 ff ff 	mov    %rax,-0xf10(%rbp)
   1b1f5:	48 c7 85 f8 f0 ff ff 	movq   $0x0,-0xf08(%rbp)
   1b1fc:	00 00 00 00 
   1b200:	48 8d 85 d0 ed ff ff 	lea    -0x1230(%rbp),%rax
   1b207:	48 89 85 00 f1 ff ff 	mov    %rax,-0xf00(%rbp)
   1b20e:	48 c7 85 08 f1 ff ff 	movq   $0x0,-0xef8(%rbp)
   1b215:	00 00 00 00 
   1b219:	48 c7 85 10 f1 ff ff 	movq   $0x0,-0xef0(%rbp)
   1b220:	00 00 00 00 
   1b224:	48 c7 85 18 f1 ff ff 	movq   $0x0,-0xee8(%rbp)
   1b22b:	00 00 00 00 
   1b22f:	48 8d 05 d3 d2 00 00 	lea    0xd2d3(%rip),%rax        # 28509 <g_289>
   1b236:	48 89 85 20 f1 ff ff 	mov    %rax,-0xee0(%rbp)
   1b23d:	48 8d 05 c5 d2 00 00 	lea    0xd2c5(%rip),%rax        # 28509 <g_289>
   1b244:	48 89 85 28 f1 ff ff 	mov    %rax,-0xed8(%rbp)
   1b24b:	48 8d 85 d0 ed ff ff 	lea    -0x1230(%rbp),%rax
   1b252:	48 89 85 30 f1 ff ff 	mov    %rax,-0xed0(%rbp)
   1b259:	48 8d 85 d0 ed ff ff 	lea    -0x1230(%rbp),%rax
   1b260:	48 89 85 38 f1 ff ff 	mov    %rax,-0xec8(%rbp)
   1b267:	48 c7 85 40 f1 ff ff 	movq   $0x0,-0xec0(%rbp)
   1b26e:	00 00 00 00 
   1b272:	48 c7 85 48 f1 ff ff 	movq   $0x0,-0xeb8(%rbp)
   1b279:	00 00 00 00 
   1b27d:	48 8d 05 fc cd 00 00 	lea    0xcdfc(%rip),%rax        # 28080 <g_38>
   1b284:	48 89 85 50 f1 ff ff 	mov    %rax,-0xeb0(%rbp)
   1b28b:	48 c7 85 58 f1 ff ff 	movq   $0x0,-0xea8(%rbp)
   1b292:	00 00 00 00 
   1b296:	48 c7 85 60 f1 ff ff 	movq   $0x0,-0xea0(%rbp)
   1b29d:	00 00 00 00 
   1b2a1:	48 8d 85 d0 ed ff ff 	lea    -0x1230(%rbp),%rax
   1b2a8:	48 89 85 68 f1 ff ff 	mov    %rax,-0xe98(%rbp)
   1b2af:	48 c7 85 70 f1 ff ff 	movq   $0x0,-0xe90(%rbp)
   1b2b6:	00 00 00 00 
   1b2ba:	48 c7 85 78 f1 ff ff 	movq   $0x0,-0xe88(%rbp)
   1b2c1:	00 00 00 00 
   1b2c5:	48 8d 05 3d d2 00 00 	lea    0xd23d(%rip),%rax        # 28509 <g_289>
   1b2cc:	48 89 85 80 f1 ff ff 	mov    %rax,-0xe80(%rbp)
   1b2d3:	48 8d 85 d0 ed ff ff 	lea    -0x1230(%rbp),%rax
   1b2da:	48 89 85 88 f1 ff ff 	mov    %rax,-0xe78(%rbp)
   1b2e1:	48 8d 05 21 d2 00 00 	lea    0xd221(%rip),%rax        # 28509 <g_289>
   1b2e8:	48 89 85 90 f1 ff ff 	mov    %rax,-0xe70(%rbp)
   1b2ef:	48 c7 85 98 f1 ff ff 	movq   $0x0,-0xe68(%rbp)
   1b2f6:	00 00 00 00 
   1b2fa:	48 c7 85 a0 f1 ff ff 	movq   $0x0,-0xe60(%rbp)
   1b301:	00 00 00 00 
   1b305:	48 8d 85 b0 f1 ff ff 	lea    -0xe50(%rbp),%rax
   1b30c:	48 8d 15 6d 88 00 00 	lea    0x886d(%rip),%rdx        # 23b80 <g_1963+0x2a6c>
   1b313:	b9 2a 00 00 00       	mov    $0x2a,%ecx
   1b318:	48 89 c7             	mov    %rax,%rdi
   1b31b:	48 89 d6             	mov    %rdx,%rsi
   1b31e:	f3 48 a5             	rep movsq %ds:(%rsi),%es:(%rdi)
   1b321:	48 8d 85 b0 f8 ff ff 	lea    -0x750(%rbp),%rax
   1b328:	48 8d 15 71 ed 00 00 	lea    0xed71(%rip),%rdx        # 2a0a0 <g_2631+0x1678>
   1b32f:	b9 b4 00 00 00       	mov    $0xb4,%ecx
   1b334:	48 89 c7             	mov    %rax,%rdi
   1b337:	48 89 d6             	mov    %rdx,%rsi
   1b33a:	f3 48 a5             	rep movsq %ds:(%rsi),%es:(%rdi)
   1b33d:	48 8d 85 a0 ed ff ff 	lea    -0x1260(%rbp),%rax
   1b344:	48 83 c0 1c          	add    $0x1c,%rax
   1b348:	48 89 85 b0 ec ff ff 	mov    %rax,-0x1350(%rbp)
   1b34f:	48 8d 85 c0 f4 ff ff 	lea    -0xb40(%rbp),%rax
   1b356:	48 83 c0 70          	add    $0x70,%rax
   1b35a:	48 89 85 b8 ec ff ff 	mov    %rax,-0x1348(%rbp)
   1b361:	48 8d 85 60 eb ff ff 	lea    -0x14a0(%rbp),%rax
   1b368:	48 89 85 c0 ec ff ff 	mov    %rax,-0x1340(%rbp)
   1b36f:	8b 85 40 ee ff ff    	mov    -0x11c0(%rbp),%eax
   1b375:	89 c0                	mov    %eax,%eax
   1b377:	48 89 85 20 eb ff ff 	mov    %rax,-0x14e0(%rbp)
   1b37e:	48 8b 85 28 eb ff ff 	mov    -0x14d8(%rbp),%rax
   1b385:	0f be d8             	movsbl %al,%ebx
   1b388:	44 0f be a5 34 eb ff 	movsbl -0x14cc(%rbp),%r12d
   1b38f:	ff 
   1b390:	48 8b 85 b0 ed ff ff 	mov    -0x1250(%rbp),%rax
   1b397:	48 89 85 18 eb ff ff 	mov    %rax,-0x14e8(%rbp)
   1b39e:	48 8b 05 43 13 01 00 	mov    0x11343(%rip),%rax        # 2c6e8 <g_744>
   1b3a5:	0f b7 00             	movzwl (%rax),%eax
   1b3a8:	44 0f bf e8          	movswl %ax,%r13d
   1b3ac:	66 0f be 85 34 eb ff 	movsbw -0x14cc(%rbp),%ax
   1b3b3:	ff 
   1b3b4:	44 0f b7 f0          	movzwl %ax,%r14d
   1b3b8:	8b 85 b0 eb ff ff    	mov    -0x1450(%rbp),%eax
   1b3be:	44 0f b6 f8          	movzbl %al,%r15d
   1b3c2:	8b 85 44 ee ff ff    	mov    -0x11bc(%rbp),%eax
   1b3c8:	89 85 30 eb ff ff    	mov    %eax,-0x14d0(%rbp)
   1b3ce:	8b 85 ec f2 ff ff    	mov    -0xd14(%rbp),%eax
   1b3d4:	89 85 14 eb ff ff    	mov    %eax,-0x14ec(%rbp)
   1b3da:	48 8b 05 1b d1 00 00 	mov    0xd11b(%rip),%rax        # 284fc <g_146+0x1c>
   1b3e1:	0f be f8             	movsbl %al,%edi
   1b3e4:	89 bd 10 eb ff ff    	mov    %edi,-0x14f0(%rbp)
   1b3ea:	0f b6 85 d0 ed ff ff 	movzbl -0x1230(%rbp),%eax
   1b3f1:	0f be d0             	movsbl %al,%edx
   1b3f4:	48 8b 05 ed 12 01 00 	mov    0x112ed(%rip),%rax        # 2c6e8 <g_744>
   1b3fb:	0f b7 00             	movzwl (%rax),%eax
   1b3fe:	98                   	cwtl   
   1b3ff:	89 d6                	mov    %edx,%esi
   1b401:	89 c7                	mov    %eax,%edi
   1b403:	e8 ed 0f ff ff       	callq  c3f5 <safe_mul_func_int16_t_s_s>
   1b408:	89 c2                	mov    %eax,%edx
   1b40a:	0f b6 85 d0 ed ff ff 	movzbl -0x1230(%rbp),%eax
   1b411:	21 d0                	and    %edx,%eax
   1b413:	88 05 67 cc 00 00    	mov    %al,0xcc67(%rip)        # 28080 <g_38>
   1b419:	0f b6 05 60 cc 00 00 	movzbl 0xcc60(%rip),%eax        # 28080 <g_38>
   1b420:	0f be d0             	movsbl %al,%edx
   1b423:	8b 05 df 1f 01 00    	mov    0x11fdf(%rip),%eax        # 2d408 <g_17>
   1b429:	39 c2                	cmp    %eax,%edx
   1b42b:	0f 9d c0             	setge  %al
   1b42e:	0f b6 c0             	movzbl %al,%eax
   1b431:	8b b5 10 eb ff ff    	mov    -0x14f0(%rbp),%esi
   1b437:	89 c7                	mov    %eax,%edi
   1b439:	e8 f3 0d ff ff       	callq  c231 <safe_mod_func_int8_t_s_s>
   1b43e:	48 0f be c0          	movsbq %al,%rax
   1b442:	48 89 c1             	mov    %rax,%rcx
   1b445:	48 33 8d 28 eb ff ff 	xor    -0x14d8(%rbp),%rcx
   1b44c:	48 8b 05 ed 11 01 00 	mov    0x111ed(%rip),%rax        # 2c640 <g_460>
   1b453:	8b 10                	mov    (%rax),%edx
   1b455:	48 8b 05 e4 11 01 00 	mov    0x111e4(%rip),%rax        # 2c640 <g_460>
   1b45c:	21 ca                	and    %ecx,%edx
   1b45e:	89 10                	mov    %edx,(%rax)
   1b460:	8b 00                	mov    (%rax),%eax
   1b462:	8b b5 14 eb ff ff    	mov    -0x14ec(%rbp),%esi
   1b468:	89 c7                	mov    %eax,%edi
   1b46a:	e8 96 11 ff ff       	callq  c605 <safe_sub_func_int32_t_s_s>
   1b46f:	8b 05 0b d3 00 00    	mov    0xd30b(%rip),%eax        # 28780 <g_459>
   1b475:	48 8b 05 4c 12 01 00 	mov    0x1124c(%rip),%rax        # 2c6c8 <g_570>
   1b47c:	48 8b 00             	mov    (%rax),%rax
   1b47f:	48 8b 00             	mov    (%rax),%rax
   1b482:	48 39 85 28 eb ff ff 	cmp    %rax,-0x14d8(%rbp)
   1b489:	0f 9f c0             	setg   %al
   1b48c:	0f b6 d0             	movzbl %al,%edx
   1b48f:	8b 85 48 ee ff ff    	mov    -0x11b8(%rbp),%eax
   1b495:	39 c2                	cmp    %eax,%edx
   1b497:	74 11                	je     1b4aa <func_13+0x35e6>
   1b499:	8b 85 5c ee ff ff    	mov    -0x11a4(%rbp),%eax
   1b49f:	85 c0                	test   %eax,%eax
   1b4a1:	74 07                	je     1b4aa <func_13+0x35e6>
   1b4a3:	b8 01 00 00 00       	mov    $0x1,%eax
   1b4a8:	eb 05                	jmp    1b4af <func_13+0x35eb>
   1b4aa:	b8 00 00 00 00       	mov    $0x0,%eax
   1b4af:	98                   	cwtl   
   1b4b0:	8b b5 30 eb ff ff    	mov    -0x14d0(%rbp),%esi
   1b4b6:	89 c7                	mov    %eax,%edi
   1b4b8:	e8 a6 10 ff ff       	callq  c563 <safe_rshift_func_int16_t_s_u>
   1b4bd:	83 c8 fe             	or     $0xfffffffe,%eax
   1b4c0:	0f b6 c0             	movzbl %al,%eax
   1b4c3:	44 89 fe             	mov    %r15d,%esi
   1b4c6:	89 c7                	mov    %eax,%edi
   1b4c8:	e8 c6 16 ff ff       	callq  cb93 <safe_mul_func_uint8_t_u_u>
   1b4cd:	8b 85 44 ee ff ff    	mov    -0x11bc(%rbp),%eax
   1b4d3:	85 c0                	test   %eax,%eax
   1b4d5:	74 07                	je     1b4de <func_13+0x361a>
   1b4d7:	b8 01 00 00 00       	mov    $0x1,%eax
   1b4dc:	eb 05                	jmp    1b4e3 <func_13+0x361f>
   1b4de:	b8 00 00 00 00       	mov    $0x0,%eax
   1b4e3:	48 98                	cltq   
   1b4e5:	48 39 85 28 eb ff ff 	cmp    %rax,-0x14d8(%rbp)
   1b4ec:	7c 19                	jl     1b507 <func_13+0x3643>
   1b4ee:	48 8b 05 d3 11 01 00 	mov    0x111d3(%rip),%rax        # 2c6c8 <g_570>
   1b4f5:	48 8b 00             	mov    (%rax),%rax
   1b4f8:	48 8b 00             	mov    (%rax),%rax
   1b4fb:	48 85 c0             	test   %rax,%rax
   1b4fe:	74 07                	je     1b507 <func_13+0x3643>
   1b500:	b8 01 00 00 00       	mov    $0x1,%eax
   1b505:	eb 05                	jmp    1b50c <func_13+0x3648>
   1b507:	b8 00 00 00 00       	mov    $0x0,%eax
   1b50c:	0f be d0             	movsbl %al,%edx
   1b50f:	48 8b 85 28 eb ff ff 	mov    -0x14d8(%rbp),%rax
   1b516:	0f be c0             	movsbl %al,%eax
   1b519:	89 d6                	mov    %edx,%esi
   1b51b:	89 c7                	mov    %eax,%edi
   1b51d:	e8 b2 0c ff ff       	callq  c1d4 <safe_add_func_int8_t_s_s>
   1b522:	66 0f be d0          	movsbw %al,%dx
   1b526:	48 8b 05 bb 11 01 00 	mov    0x111bb(%rip),%rax        # 2c6e8 <g_744>
   1b52d:	0f b7 00             	movzwl (%rax),%eax
   1b530:	31 d0                	xor    %edx,%eax
   1b532:	0f b7 c0             	movzwl %ax,%eax
   1b535:	44 89 f6             	mov    %r14d,%esi
   1b538:	89 c7                	mov    %eax,%edi
   1b53a:	e8 1d 18 ff ff       	callq  cd5c <safe_mod_func_uint16_t_u_u>
   1b53f:	98                   	cwtl   
   1b540:	44 89 ee             	mov    %r13d,%esi
   1b543:	89 c7                	mov    %eax,%edi
   1b545:	e8 69 0e ff ff       	callq  c3b3 <safe_add_func_int16_t_s_s>
   1b54a:	0f be c0             	movsbl %al,%eax
   1b54d:	be a1 ff ff ff       	mov    $0xffffffa1,%esi
   1b552:	89 c7                	mov    %eax,%edi
   1b554:	e8 b9 0c ff ff       	callq  c212 <safe_mul_func_int8_t_s_s>
   1b559:	48 0f be c0          	movsbq %al,%rax
   1b55d:	48 8b b5 18 eb ff ff 	mov    -0x14e8(%rbp),%rsi
   1b564:	48 89 c7             	mov    %rax,%rdi
   1b567:	e8 43 1b ff ff       	callq  d0af <safe_div_func_uint64_t_u_u>
   1b56c:	48 89 c2             	mov    %rax,%rdx
   1b56f:	48 8b 85 28 eb ff ff 	mov    -0x14d8(%rbp),%rax
   1b576:	48 89 c6             	mov    %rax,%rsi
   1b579:	48 89 d7             	mov    %rdx,%rdi
   1b57c:	e8 27 13 ff ff       	callq  c8a8 <safe_sub_func_int64_t_s_s>
   1b581:	89 c2                	mov    %eax,%edx
   1b583:	8b 85 5c ee ff ff    	mov    -0x11a4(%rbp),%eax
   1b589:	31 d0                	xor    %edx,%eax
   1b58b:	44 89 e6             	mov    %r12d,%esi
   1b58e:	89 c7                	mov    %eax,%edi
   1b590:	e8 37 11 ff ff       	callq  c6cc <safe_mod_func_int32_t_s_s>
   1b595:	85 c0                	test   %eax,%eax
   1b597:	0f 95 c0             	setne  %al
   1b59a:	88 05 30 cb 00 00    	mov    %al,0xcb30(%rip)        # 280d0 <g_82>
   1b5a0:	0f b6 05 29 cb 00 00 	movzbl 0xcb29(%rip),%eax        # 280d0 <g_82>
   1b5a7:	3c c4                	cmp    $0xc4,%al
   1b5a9:	0f 97 c0             	seta   %al
   1b5ac:	0f b6 c0             	movzbl %al,%eax
   1b5af:	48 39 85 28 eb ff ff 	cmp    %rax,-0x14d8(%rbp)
   1b5b6:	0f 9f c0             	setg   %al
   1b5b9:	0f b6 c0             	movzbl %al,%eax
   1b5bc:	be 00 00 00 00       	mov    $0x0,%esi
   1b5c1:	89 c7                	mov    %eax,%edi
   1b5c3:	e8 cb 15 ff ff       	callq  cb93 <safe_mul_func_uint8_t_u_u>
   1b5c8:	0f b6 c0             	movzbl %al,%eax
   1b5cb:	f7 d0                	not    %eax
   1b5cd:	48 63 d0             	movslq %eax,%rdx
   1b5d0:	48 8b 85 b0 ec ff ff 	mov    -0x1350(%rbp),%rax
   1b5d7:	48 89 10             	mov    %rdx,(%rax)
   1b5da:	48 8b 85 b0 ec ff ff 	mov    -0x1350(%rbp),%rax
   1b5e1:	48 8b 00             	mov    (%rax),%rax
   1b5e4:	48 be f6 99 8b 6a 00 	movabs $0x3af478006a8b99f6,%rsi
   1b5eb:	78 f4 3a 
   1b5ee:	48 89 c7             	mov    %rax,%rdi
   1b5f1:	e8 b9 1a ff ff       	callq  d0af <safe_div_func_uint64_t_u_u>
   1b5f6:	0f be c0             	movsbl %al,%eax
   1b5f9:	89 de                	mov    %ebx,%esi
   1b5fb:	89 c7                	mov    %eax,%edi
   1b5fd:	e8 d2 0b ff ff       	callq  c1d4 <safe_add_func_int8_t_s_s>
   1b602:	48 8b b5 20 eb ff ff 	mov    -0x14e0(%rbp),%rsi
   1b609:	48 bf 05 63 0c f4 dd 	movabs $0xa003a9ddf40c6305,%rdi
   1b610:	a9 03 a0 
   1b613:	e8 33 1a ff ff       	callq  d04b <safe_sub_func_uint64_t_u_u>
   1b618:	89 c2                	mov    %eax,%edx
   1b61a:	48 8b 85 28 eb ff ff 	mov    -0x14d8(%rbp),%rax
   1b621:	09 d0                	or     %edx,%eax
   1b623:	0f be d0             	movsbl %al,%edx
   1b626:	48 8b 85 a8 ec ff ff 	mov    -0x1358(%rbp),%rax
   1b62d:	0f be c0             	movsbl %al,%eax
   1b630:	89 d6                	mov    %edx,%esi
   1b632:	89 c7                	mov    %eax,%edi
   1b634:	e8 d9 0b ff ff       	callq  c212 <safe_mul_func_int8_t_s_s>
   1b639:	48 8b 95 b8 ec ff ff 	mov    -0x1348(%rbp),%rdx
   1b640:	8b 12                	mov    (%rdx),%edx
   1b642:	0f be c0             	movsbl %al,%eax
   1b645:	31 c2                	xor    %eax,%edx
   1b647:	48 8b 85 b8 ec ff ff 	mov    -0x1348(%rbp),%rax
   1b64e:	89 10                	mov    %edx,(%rax)
   1b650:	8b 95 44 ee ff ff    	mov    -0x11bc(%rbp),%edx
   1b656:	8b 85 5c ee ff ff    	mov    -0x11a4(%rbp),%eax
   1b65c:	39 c2                	cmp    %eax,%edx
   1b65e:	0f 97 c0             	seta   %al
   1b661:	0f b6 d0             	movzbl %al,%edx
   1b664:	8b 85 6c eb ff ff    	mov    -0x1494(%rbp),%eax
   1b66a:	39 c2                	cmp    %eax,%edx
   1b66c:	0f 9e c0             	setle  %al
   1b66f:	0f b6 c0             	movzbl %al,%eax
   1b672:	be 03 00 00 00       	mov    $0x3,%esi
   1b677:	89 c7                	mov    %eax,%edi
   1b679:	e8 ce 15 ff ff       	callq  cc4c <safe_lshift_func_uint8_t_u_u>
   1b67e:	0f b6 c0             	movzbl %al,%eax
   1b681:	89 85 64 eb ff ff    	mov    %eax,-0x149c(%rbp)
   1b687:	8b 95 64 eb ff ff    	mov    -0x149c(%rbp),%edx
   1b68d:	48 8b 85 c0 ec ff ff 	mov    -0x1340(%rbp),%rax
   1b694:	8b 00                	mov    (%rax),%eax
   1b696:	09 c2                	or     %eax,%edx
   1b698:	48 8b 85 c0 ec ff ff 	mov    -0x1340(%rbp),%rax
   1b69f:	89 10                	mov    %edx,(%rax)
   1b6a1:	48 8b 05 c0 16 01 00 	mov    0x116c0(%rip),%rax        # 2cd68 <g_964>
   1b6a8:	48 8d 15 39 0f 01 00 	lea    0x10f39(%rip),%rdx        # 2c5e8 <g_100>
   1b6af:	48 89 10             	mov    %rdx,(%rax)
   1b6b2:	e9 b4 02 00 00       	jmpq   1b96b <func_13+0x3aa7>
   1b6b7:	c7 85 e8 eb ff ff 9e 	movl   $0x8ee6689e,-0x1418(%rbp)
   1b6be:	68 e6 8e 
   1b6c1:	c7 85 7c eb ff ff 00 	movl   $0x0,-0x1484(%rbp)
   1b6c8:	00 00 00 
   1b6cb:	eb 1a                	jmp    1b6e7 <func_13+0x3823>
   1b6cd:	8b 85 7c eb ff ff    	mov    -0x1484(%rbp),%eax
   1b6d3:	48 98                	cltq   
   1b6d5:	c7 84 85 90 f0 ff ff 	movl   $0x1,-0xf70(%rbp,%rax,4)
   1b6dc:	01 00 00 00 
   1b6e0:	83 85 7c eb ff ff 01 	addl   $0x1,-0x1484(%rbp)
   1b6e7:	83 bd 7c eb ff ff 04 	cmpl   $0x4,-0x1484(%rbp)
   1b6ee:	7e dd                	jle    1b6cd <func_13+0x3809>
   1b6f0:	c7 85 c0 eb ff ff 00 	movl   $0x0,-0x1440(%rbp)
   1b6f7:	00 00 00 
   1b6fa:	83 bd c0 eb ff ff 00 	cmpl   $0x0,-0x1440(%rbp)
   1b701:	0f 8f 64 02 00 00    	jg     1b96b <func_13+0x3aa7>
   1b707:	c6 85 4d eb ff ff 09 	movb   $0x9,-0x14b3(%rbp)
   1b70e:	c7 85 b0 f1 ff ff f9 	movl   $0xfffffff9,-0xe50(%rbp)
   1b715:	ff ff ff 
   1b718:	c7 85 b4 f1 ff ff 25 	movl   $0x9af2dd25,-0xe4c(%rbp)
   1b71f:	dd f2 9a 
   1b722:	c7 85 b8 f1 ff ff 25 	movl   $0x9af2dd25,-0xe48(%rbp)
   1b729:	dd f2 9a 
   1b72c:	c7 85 bc f1 ff ff f9 	movl   $0xfffffff9,-0xe44(%rbp)
   1b733:	ff ff ff 
   1b736:	c7 85 c0 f1 ff ff 25 	movl   $0x9af2dd25,-0xe40(%rbp)
   1b73d:	dd f2 9a 
   1b740:	c7 85 c4 f1 ff ff 25 	movl   $0x9af2dd25,-0xe3c(%rbp)
   1b747:	dd f2 9a 
   1b74a:	c7 85 c8 f1 ff ff f9 	movl   $0xfffffff9,-0xe38(%rbp)
   1b751:	ff ff ff 
   1b754:	c7 85 cc f1 ff ff 25 	movl   $0x9af2dd25,-0xe34(%rbp)
   1b75b:	dd f2 9a 
   1b75e:	c7 85 d0 f1 ff ff 25 	movl   $0x9af2dd25,-0xe30(%rbp)
   1b765:	dd f2 9a 
   1b768:	c7 85 ec eb ff ff 03 	movl   $0x3,-0x1414(%rbp)
   1b76f:	00 00 00 
   1b772:	48 8d 85 60 eb ff ff 	lea    -0x14a0(%rbp),%rax
   1b779:	48 89 85 a0 ec ff ff 	mov    %rax,-0x1360(%rbp)
   1b780:	c7 85 d0 ed ff ff 00 	movl   $0x0,-0x1230(%rbp)
   1b787:	00 00 00 
   1b78a:	48 c7 85 b0 f8 ff ff 	movq   $0x0,-0x750(%rbp)
   1b791:	00 00 00 00 
   1b795:	48 c7 85 b8 f8 ff ff 	movq   $0x0,-0x748(%rbp)
   1b79c:	00 00 00 00 
   1b7a0:	48 8d 85 60 eb ff ff 	lea    -0x14a0(%rbp),%rax
   1b7a7:	48 89 85 c0 f8 ff ff 	mov    %rax,-0x740(%rbp)
   1b7ae:	48 8d 85 64 eb ff ff 	lea    -0x149c(%rbp),%rax
   1b7b5:	48 89 85 c8 f8 ff ff 	mov    %rax,-0x738(%rbp)
   1b7bc:	48 8d 85 d0 ed ff ff 	lea    -0x1230(%rbp),%rax
   1b7c3:	48 89 85 d0 f8 ff ff 	mov    %rax,-0x730(%rbp)
   1b7ca:	48 8d 85 64 eb ff ff 	lea    -0x149c(%rbp),%rax
   1b7d1:	48 89 85 d8 f8 ff ff 	mov    %rax,-0x728(%rbp)
   1b7d8:	48 c7 85 e0 f8 ff ff 	movq   $0x0,-0x720(%rbp)
   1b7df:	00 00 00 00 
   1b7e3:	48 8d 85 60 eb ff ff 	lea    -0x14a0(%rbp),%rax
   1b7ea:	48 89 85 e8 f8 ff ff 	mov    %rax,-0x718(%rbp)
   1b7f1:	48 8d 85 60 eb ff ff 	lea    -0x14a0(%rbp),%rax
   1b7f8:	48 89 85 f0 f8 ff ff 	mov    %rax,-0x710(%rbp)
   1b7ff:	48 c7 85 f8 f8 ff ff 	movq   $0x0,-0x708(%rbp)
   1b806:	00 00 00 00 
   1b80a:	48 8d 85 d0 ed ff ff 	lea    -0x1230(%rbp),%rax
   1b811:	48 89 85 00 f9 ff ff 	mov    %rax,-0x700(%rbp)
   1b818:	48 c7 85 08 f9 ff ff 	movq   $0x0,-0x6f8(%rbp)
   1b81f:	00 00 00 00 
   1b823:	48 c7 85 10 f9 ff ff 	movq   $0x0,-0x6f0(%rbp)
   1b82a:	00 00 00 00 
   1b82e:	48 c7 85 18 f9 ff ff 	movq   $0x0,-0x6e8(%rbp)
   1b835:	00 00 00 00 
   1b839:	48 8d 85 60 eb ff ff 	lea    -0x14a0(%rbp),%rax
   1b840:	48 89 85 20 f9 ff ff 	mov    %rax,-0x6e0(%rbp)
   1b847:	48 8d 85 64 eb ff ff 	lea    -0x149c(%rbp),%rax
   1b84e:	48 89 85 28 f9 ff ff 	mov    %rax,-0x6d8(%rbp)
   1b855:	48 8d 85 d0 ed ff ff 	lea    -0x1230(%rbp),%rax
   1b85c:	48 89 85 30 f9 ff ff 	mov    %rax,-0x6d0(%rbp)
   1b863:	48 8d 85 64 eb ff ff 	lea    -0x149c(%rbp),%rax
   1b86a:	48 89 85 38 f9 ff ff 	mov    %rax,-0x6c8(%rbp)
   1b871:	48 c7 85 40 f9 ff ff 	movq   $0x0,-0x6c0(%rbp)
   1b878:	00 00 00 00 
   1b87c:	48 8d 85 60 eb ff ff 	lea    -0x14a0(%rbp),%rax
   1b883:	48 89 85 48 f9 ff ff 	mov    %rax,-0x6b8(%rbp)
   1b88a:	48 8d 85 60 eb ff ff 	lea    -0x14a0(%rbp),%rax
   1b891:	48 89 85 50 f9 ff ff 	mov    %rax,-0x6b0(%rbp)
   1b898:	48 c7 85 58 f9 ff ff 	movq   $0x0,-0x6a8(%rbp)
   1b89f:	00 00 00 00 
   1b8a3:	48 8d 85 d0 ed ff ff 	lea    -0x1230(%rbp),%rax
   1b8aa:	48 89 85 60 f9 ff ff 	mov    %rax,-0x6a0(%rbp)
   1b8b1:	48 c7 85 68 f9 ff ff 	movq   $0x0,-0x698(%rbp)
   1b8b8:	00 00 00 00 
   1b8bc:	48 c7 85 70 f9 ff ff 	movq   $0x0,-0x690(%rbp)
   1b8c3:	00 00 00 00 
   1b8c7:	48 c7 85 78 f9 ff ff 	movq   $0x0,-0x688(%rbp)
   1b8ce:	00 00 00 00 
   1b8d2:	48 8d 85 60 eb ff ff 	lea    -0x14a0(%rbp),%rax
   1b8d9:	48 89 85 80 f9 ff ff 	mov    %rax,-0x680(%rbp)
   1b8e0:	48 8d 85 64 eb ff ff 	lea    -0x149c(%rbp),%rax
   1b8e7:	48 89 85 88 f9 ff ff 	mov    %rax,-0x678(%rbp)
   1b8ee:	48 8d 85 d0 ed ff ff 	lea    -0x1230(%rbp),%rax
   1b8f5:	48 89 85 90 f9 ff ff 	mov    %rax,-0x670(%rbp)
   1b8fc:	48 8d 85 64 eb ff ff 	lea    -0x149c(%rbp),%rax
   1b903:	48 89 85 98 f9 ff ff 	mov    %rax,-0x668(%rbp)
   1b90a:	0f be 85 34 eb ff ff 	movsbl -0x14cc(%rbp),%eax
   1b911:	89 85 e8 eb ff ff    	mov    %eax,-0x1418(%rbp)
   1b917:	8b 05 eb 1a 01 00    	mov    0x11aeb(%rip),%eax        # 2d408 <g_17>
   1b91d:	85 c0                	test   %eax,%eax
   1b91f:	74 05                	je     1b926 <func_13+0x3a62>
   1b921:	e9 ce c8 ff ff       	jmpq   181f4 <func_13+0x330>
   1b926:	48 8b 05 db 0c 01 00 	mov    0x10cdb(%rip),%rax        # 2c608 <g_277>
   1b92d:	48 8b 00             	mov    (%rax),%rax
   1b930:	48 8b 10             	mov    (%rax),%rdx
   1b933:	48 8b 85 38 eb ff ff 	mov    -0x14c8(%rbp),%rax
   1b93a:	48 8b 0a             	mov    (%rdx),%rcx
   1b93d:	48 8b 5a 08          	mov    0x8(%rdx),%rbx
   1b941:	48 89 08             	mov    %rcx,(%rax)
   1b944:	48 89 58 08          	mov    %rbx,0x8(%rax)
   1b948:	48 8b 4a 10          	mov    0x10(%rdx),%rcx
   1b94c:	48 8b 5a 18          	mov    0x18(%rdx),%rbx
   1b950:	48 89 48 10          	mov    %rcx,0x10(%rax)
   1b954:	48 89 58 18          	mov    %rbx,0x18(%rax)
   1b958:	8b 4a 20             	mov    0x20(%rdx),%ecx
   1b95b:	89 48 20             	mov    %ecx,0x20(%rax)
   1b95e:	0f b7 52 24          	movzwl 0x24(%rdx),%edx
   1b962:	66 89 50 24          	mov    %dx,0x24(%rax)
   1b966:	e9 9b 05 00 00       	jmpq   1bf06 <func_13+0x4042>
   1b96b:	c6 05 96 cb 00 00 00 	movb   $0x0,0xcb96(%rip)        # 28508 <g_208>
   1b972:	e9 46 05 00 00       	jmpq   1bebd <func_13+0x3ff9>
   1b977:	48 c7 85 38 ec ff ff 	movq   $0x0,-0x13c8(%rbp)
   1b97e:	00 00 00 00 
   1b982:	c7 85 f0 eb ff ff 00 	movl   $0x0,-0x1410(%rbp)
   1b989:	00 00 00 
   1b98c:	c7 85 f4 eb ff ff 08 	movl   $0x8,-0x140c(%rbp)
   1b993:	00 00 00 
   1b996:	c7 85 f8 eb ff ff be 	movl   $0x1e3523be,-0x1408(%rbp)
   1b99d:	23 35 1e 
   1b9a0:	c7 85 b0 f1 ff ff cf 	movl   $0x1f1ec1cf,-0xe50(%rbp)
   1b9a7:	c1 1e 1f 
   1b9aa:	c7 85 b4 f1 ff ff cf 	movl   $0x1f1ec1cf,-0xe4c(%rbp)
   1b9b1:	c1 1e 1f 
   1b9b4:	c7 85 b8 f1 ff ff cf 	movl   $0x1f1ec1cf,-0xe48(%rbp)
   1b9bb:	c1 1e 1f 
   1b9be:	c7 85 bc f1 ff ff cf 	movl   $0x1f1ec1cf,-0xe44(%rbp)
   1b9c5:	c1 1e 1f 
   1b9c8:	c7 85 c0 f1 ff ff cf 	movl   $0x1f1ec1cf,-0xe40(%rbp)
   1b9cf:	c1 1e 1f 
   1b9d2:	c7 85 c4 f1 ff ff cf 	movl   $0x1f1ec1cf,-0xe3c(%rbp)
   1b9d9:	c1 1e 1f 
   1b9dc:	c7 85 c8 f1 ff ff cf 	movl   $0x1f1ec1cf,-0xe38(%rbp)
   1b9e3:	c1 1e 1f 
   1b9e6:	c7 85 cc f1 ff ff cf 	movl   $0x1f1ec1cf,-0xe34(%rbp)
   1b9ed:	c1 1e 1f 
   1b9f0:	c7 85 d0 f1 ff ff cf 	movl   $0x1f1ec1cf,-0xe30(%rbp)
   1b9f7:	c1 1e 1f 
   1b9fa:	c7 85 d4 f1 ff ff fd 	movl   $0xfffffffd,-0xe2c(%rbp)
   1ba01:	ff ff ff 
   1ba04:	c7 85 d8 f1 ff ff 31 	movl   $0x1482cf31,-0xe28(%rbp)
   1ba0b:	cf 82 14 
   1ba0e:	c7 85 dc f1 ff ff fd 	movl   $0xfffffffd,-0xe24(%rbp)
   1ba15:	ff ff ff 
   1ba18:	c7 85 e0 f1 ff ff 31 	movl   $0x1482cf31,-0xe20(%rbp)
   1ba1f:	cf 82 14 
   1ba22:	c7 85 e4 f1 ff ff fd 	movl   $0xfffffffd,-0xe1c(%rbp)
   1ba29:	ff ff ff 
   1ba2c:	c7 85 e8 f1 ff ff 31 	movl   $0x1482cf31,-0xe18(%rbp)
   1ba33:	cf 82 14 
   1ba36:	c7 85 ec f1 ff ff fd 	movl   $0xfffffffd,-0xe14(%rbp)
   1ba3d:	ff ff ff 
   1ba40:	c7 85 f0 f1 ff ff 31 	movl   $0x1482cf31,-0xe10(%rbp)
   1ba47:	cf 82 14 
   1ba4a:	c7 85 f4 f1 ff ff fd 	movl   $0xfffffffd,-0xe0c(%rbp)
   1ba51:	ff ff ff 
   1ba54:	c7 85 f8 f1 ff ff cf 	movl   $0x1f1ec1cf,-0xe08(%rbp)
   1ba5b:	c1 1e 1f 
   1ba5e:	c7 85 fc f1 ff ff cf 	movl   $0x1f1ec1cf,-0xe04(%rbp)
   1ba65:	c1 1e 1f 
   1ba68:	c7 85 00 f2 ff ff cf 	movl   $0x1f1ec1cf,-0xe00(%rbp)
   1ba6f:	c1 1e 1f 
   1ba72:	c7 85 04 f2 ff ff cf 	movl   $0x1f1ec1cf,-0xdfc(%rbp)
   1ba79:	c1 1e 1f 
   1ba7c:	c7 85 08 f2 ff ff cf 	movl   $0x1f1ec1cf,-0xdf8(%rbp)
   1ba83:	c1 1e 1f 
   1ba86:	c7 85 0c f2 ff ff cf 	movl   $0x1f1ec1cf,-0xdf4(%rbp)
   1ba8d:	c1 1e 1f 
   1ba90:	c7 85 10 f2 ff ff cf 	movl   $0x1f1ec1cf,-0xdf0(%rbp)
   1ba97:	c1 1e 1f 
   1ba9a:	c7 85 14 f2 ff ff cf 	movl   $0x1f1ec1cf,-0xdec(%rbp)
   1baa1:	c1 1e 1f 
   1baa4:	c7 85 18 f2 ff ff cf 	movl   $0x1f1ec1cf,-0xde8(%rbp)
   1baab:	c1 1e 1f 
   1baae:	c7 85 1c f2 ff ff fd 	movl   $0xfffffffd,-0xde4(%rbp)
   1bab5:	ff ff ff 
   1bab8:	c7 85 20 f2 ff ff 31 	movl   $0x1482cf31,-0xde0(%rbp)
   1babf:	cf 82 14 
   1bac2:	c7 85 24 f2 ff ff fd 	movl   $0xfffffffd,-0xddc(%rbp)
   1bac9:	ff ff ff 
   1bacc:	c7 85 28 f2 ff ff 31 	movl   $0x1482cf31,-0xdd8(%rbp)
   1bad3:	cf 82 14 
   1bad6:	c7 85 2c f2 ff ff fd 	movl   $0xfffffffd,-0xdd4(%rbp)
   1badd:	ff ff ff 
   1bae0:	c7 85 30 f2 ff ff 31 	movl   $0x1482cf31,-0xdd0(%rbp)
   1bae7:	cf 82 14 
   1baea:	c7 85 34 f2 ff ff fd 	movl   $0xfffffffd,-0xdcc(%rbp)
   1baf1:	ff ff ff 
   1baf4:	c7 85 38 f2 ff ff 31 	movl   $0x1482cf31,-0xdc8(%rbp)
   1bafb:	cf 82 14 
   1bafe:	c7 85 3c f2 ff ff fd 	movl   $0xfffffffd,-0xdc4(%rbp)
   1bb05:	ff ff ff 
   1bb08:	c7 85 40 f2 ff ff cf 	movl   $0x1f1ec1cf,-0xdc0(%rbp)
   1bb0f:	c1 1e 1f 
   1bb12:	c7 85 44 f2 ff ff cf 	movl   $0x1f1ec1cf,-0xdbc(%rbp)
   1bb19:	c1 1e 1f 
   1bb1c:	c7 85 48 f2 ff ff cf 	movl   $0x1f1ec1cf,-0xdb8(%rbp)
   1bb23:	c1 1e 1f 
   1bb26:	c7 85 4c f2 ff ff cf 	movl   $0x1f1ec1cf,-0xdb4(%rbp)
   1bb2d:	c1 1e 1f 
   1bb30:	c7 85 50 f2 ff ff cf 	movl   $0x1f1ec1cf,-0xdb0(%rbp)
   1bb37:	c1 1e 1f 
   1bb3a:	c7 85 54 f2 ff ff cf 	movl   $0x1f1ec1cf,-0xdac(%rbp)
   1bb41:	c1 1e 1f 
   1bb44:	c7 85 58 f2 ff ff cf 	movl   $0x1f1ec1cf,-0xda8(%rbp)
   1bb4b:	c1 1e 1f 
   1bb4e:	c7 85 5c f2 ff ff cf 	movl   $0x1f1ec1cf,-0xda4(%rbp)
   1bb55:	c1 1e 1f 
   1bb58:	c7 85 60 f2 ff ff cf 	movl   $0x1f1ec1cf,-0xda0(%rbp)
   1bb5f:	c1 1e 1f 
   1bb62:	c7 85 fc eb ff ff 01 	movl   $0x1,-0x1404(%rbp)
   1bb69:	00 00 00 
   1bb6c:	48 b8 92 72 dc e1 13 	movabs $0x8e48ac13e1dc7292,%rax
   1bb73:	ac 48 8e 
   1bb76:	48 89 85 d0 ed ff ff 	mov    %rax,-0x1230(%rbp)
   1bb7d:	48 c7 85 d8 ed ff ff 	movq   $0x0,-0x1228(%rbp)
   1bb84:	00 00 00 00 
   1bb88:	48 b8 0d 1d 90 97 82 	movabs $0x70e2d98297901d0d,%rax
   1bb8f:	d9 e2 70 
   1bb92:	48 89 85 e0 ed ff ff 	mov    %rax,-0x1220(%rbp)
   1bb99:	c7 85 e8 ed ff ff ff 	movl   $0xffffffff,-0x1218(%rbp)
   1bba0:	ff ff ff 
   1bba3:	48 b8 be 37 6c 29 f8 	movabs $0x7dc9d2f8296c37be,%rax
   1bbaa:	d2 c9 7d 
   1bbad:	48 89 85 ec ed ff ff 	mov    %rax,-0x1214(%rbp)
   1bbb4:	66 c7 85 f4 ed ff ff 	movw   $0xb743,-0x120c(%rbp)
   1bbbb:	43 b7 
   1bbbd:	c7 85 00 ec ff ff 03 	movl   $0x3,-0x1400(%rbp)
   1bbc4:	00 00 00 
   1bbc7:	c7 85 94 eb ff ff 06 	movl   $0x6,-0x146c(%rbp)
   1bbce:	00 00 00 
   1bbd1:	e9 de 00 00 00       	jmpq   1bcb4 <func_13+0x3df0>
   1bbd6:	66 c7 85 c4 ed ff ff 	movw   $0x0,-0x123c(%rbp)
   1bbdd:	00 00 
   1bbdf:	e9 b5 00 00 00       	jmpq   1bc99 <func_13+0x3dd5>
   1bbe4:	48 8b 05 7d 11 01 00 	mov    0x1117d(%rip),%rax        # 2cd68 <g_964>
   1bbeb:	48 8b 00             	mov    (%rax),%rax
   1bbee:	48 8b 10             	mov    (%rax),%rdx
   1bbf1:	48 8b 05 68 11 01 00 	mov    0x11168(%rip),%rax        # 2cd60 <g_965>
   1bbf8:	48 8b 00             	mov    (%rax),%rax
   1bbfb:	8b 12                	mov    (%rdx),%edx
   1bbfd:	89 10                	mov    %edx,(%rax)
   1bbff:	48 8b 05 d2 0a 01 00 	mov    0x10ad2(%rip),%rax        # 2c6d8 <g_645>
   1bc06:	8b 00                	mov    (%rax),%eax
   1bc08:	85 c0                	test   %eax,%eax
   1bc0a:	0f 85 9c 00 00 00    	jne    1bcac <func_13+0x3de8>
   1bc10:	c6 05 f2 c8 00 00 00 	movb   $0x0,0xc8f2(%rip)        # 28509 <g_289>
   1bc17:	eb 61                	jmp    1bc7a <func_13+0x3db6>
   1bc19:	0f b7 85 c4 ed ff ff 	movzwl -0x123c(%rbp),%eax
   1bc20:	0f b7 c0             	movzwl %ax,%eax
   1bc23:	48 98                	cltq   
   1bc25:	48 8d 14 c5 00 00 00 	lea    0x0(,%rax,8),%rdx
   1bc2c:	00 
   1bc2d:	48 8d 05 2c 0a 01 00 	lea    0x10a2c(%rip),%rax        # 2c660 <g_466>
   1bc34:	48 8b 04 02          	mov    (%rdx,%rax,1),%rax
   1bc38:	48 89 85 38 ec ff ff 	mov    %rax,-0x13c8(%rbp)
   1bc3f:	0f b6 05 c3 c8 00 00 	movzbl 0xc8c3(%rip),%eax        # 28509 <g_289>
   1bc46:	0f be c0             	movsbl %al,%eax
   1bc49:	8d 48 07             	lea    0x7(%rax),%ecx
   1bc4c:	0f b6 05 b6 c8 00 00 	movzbl 0xc8b6(%rip),%eax        # 28509 <g_289>
   1bc53:	0f be c0             	movsbl %al,%eax
   1bc56:	48 63 d0             	movslq %eax,%rdx
   1bc59:	48 63 c1             	movslq %ecx,%rax
   1bc5c:	48 01 d0             	add    %rdx,%rax
   1bc5f:	8b 84 85 40 ee ff ff 	mov    -0x11c0(%rbp,%rax,4),%eax
   1bc66:	85 c0                	test   %eax,%eax
   1bc68:	75 1d                	jne    1bc87 <func_13+0x3dc3>
   1bc6a:	0f b6 05 98 c8 00 00 	movzbl 0xc898(%rip),%eax        # 28509 <g_289>
   1bc71:	83 e8 01             	sub    $0x1,%eax
   1bc74:	88 05 8f c8 00 00    	mov    %al,0xc88f(%rip)        # 28509 <g_289>
   1bc7a:	0f b6 05 88 c8 00 00 	movzbl 0xc888(%rip),%eax        # 28509 <g_289>
   1bc81:	84 c0                	test   %al,%al
   1bc83:	79 94                	jns    1bc19 <func_13+0x3d55>
   1bc85:	eb 01                	jmp    1bc88 <func_13+0x3dc4>
   1bc87:	90                   	nop
   1bc88:	0f b7 85 c4 ed ff ff 	movzwl -0x123c(%rbp),%eax
   1bc8f:	83 c0 01             	add    $0x1,%eax
   1bc92:	66 89 85 c4 ed ff ff 	mov    %ax,-0x123c(%rbp)
   1bc99:	0f b7 85 c4 ed ff ff 	movzwl -0x123c(%rbp),%eax
   1bca0:	66 83 f8 06          	cmp    $0x6,%ax
   1bca4:	0f 86 3a ff ff ff    	jbe    1bbe4 <func_13+0x3d20>
   1bcaa:	eb 01                	jmp    1bcad <func_13+0x3de9>
   1bcac:	90                   	nop
   1bcad:	83 ad 94 eb ff ff 01 	subl   $0x1,-0x146c(%rbp)
   1bcb4:	83 bd 94 eb ff ff 00 	cmpl   $0x0,-0x146c(%rbp)
   1bcbb:	0f 89 15 ff ff ff    	jns    1bbd6 <func_13+0x3d12>
   1bcc1:	c7 85 90 eb ff ff fd 	movl   $0xfffffffd,-0x1470(%rbp)
   1bcc8:	ff ff ff 
   1bccb:	e9 d0 01 00 00       	jmpq   1bea0 <func_13+0x3fdc>
   1bcd0:	c7 45 bf 01 04 04 01 	movl   $0x1040401,-0x41(%rbp)
   1bcd7:	66 c7 45 c3 04 04    	movw   $0x404,-0x3d(%rbp)
   1bcdd:	c6 45 c5 01          	movb   $0x1,-0x3b(%rbp)
   1bce1:	48 8d 05 f8 c7 00 00 	lea    0xc7f8(%rip),%rax        # 284e0 <g_146>
   1bce8:	48 89 85 c8 ec ff ff 	mov    %rax,-0x1338(%rbp)
   1bcef:	c7 85 04 ec ff ff 00 	movl   $0x0,-0x13fc(%rbp)
   1bcf6:	00 00 00 
   1bcf9:	c7 85 08 ec ff ff 24 	movl   $0x8fc20e24,-0x13f8(%rbp)
   1bd00:	0e c2 8f 
   1bd03:	c7 85 0c ec ff ff 74 	movl   $0xb5b29374,-0x13f4(%rbp)
   1bd0a:	93 b2 b5 
   1bd0d:	c7 85 90 f0 ff ff 06 	movl   $0x6,-0xf70(%rbp)
   1bd14:	00 00 00 
   1bd17:	c7 85 94 f0 ff ff 04 	movl   $0x4,-0xf6c(%rbp)
   1bd1e:	00 00 00 
   1bd21:	c7 85 98 f0 ff ff fc 	movl   $0xfffffffc,-0xf68(%rbp)
   1bd28:	ff ff ff 
   1bd2b:	c7 85 9c f0 ff ff f8 	movl   $0xfffffff8,-0xf64(%rbp)
   1bd32:	ff ff ff 
   1bd35:	c7 85 a0 f0 ff ff f8 	movl   $0xfffffff8,-0xf60(%rbp)
   1bd3c:	ff ff ff 
   1bd3f:	c7 85 a4 f0 ff ff fb 	movl   $0xfffffffb,-0xf5c(%rbp)
   1bd46:	ff ff ff 
   1bd49:	c7 85 a8 f0 ff ff ff 	movl   $0xffffffff,-0xf58(%rbp)
   1bd50:	ff ff ff 
   1bd53:	c7 85 ac f0 ff ff 04 	movl   $0x4,-0xf54(%rbp)
   1bd5a:	00 00 00 
   1bd5d:	c7 85 b0 f0 ff ff 04 	movl   $0x4,-0xf50(%rbp)
   1bd64:	00 00 00 
   1bd67:	c7 85 b4 f0 ff ff fb 	movl   $0xfffffffb,-0xf4c(%rbp)
   1bd6e:	ff ff ff 
   1bd71:	c7 85 b8 f0 ff ff 80 	movl   $0xdc2b8c80,-0xf48(%rbp)
   1bd78:	8c 2b dc 
   1bd7b:	c7 85 bc f0 ff ff 44 	movl   $0xfdef2044,-0xf44(%rbp)
   1bd82:	20 ef fd 
   1bd85:	c7 85 c0 f0 ff ff ff 	movl   $0xffffffff,-0xf40(%rbp)
   1bd8c:	ff ff ff 
   1bd8f:	c7 85 c4 f0 ff ff 00 	movl   $0x0,-0xf3c(%rbp)
   1bd96:	00 00 00 
   1bd99:	c7 85 c8 f0 ff ff ff 	movl   $0xffffffff,-0xf38(%rbp)
   1bda0:	ff ff ff 
   1bda3:	c7 85 cc f0 ff ff f8 	movl   $0xfffffff8,-0xf34(%rbp)
   1bdaa:	ff ff ff 
   1bdad:	c7 85 d0 f0 ff ff fb 	movl   $0xfffffffb,-0xf30(%rbp)
   1bdb4:	ff ff ff 
   1bdb7:	c7 85 d4 f0 ff ff 44 	movl   $0xfdef2044,-0xf2c(%rbp)
   1bdbe:	20 ef fd 
   1bdc1:	c7 85 d8 f0 ff ff 06 	movl   $0x6,-0xf28(%rbp)
   1bdc8:	00 00 00 
   1bdcb:	c7 85 dc f0 ff ff 06 	movl   $0x6,-0xf24(%rbp)
   1bdd2:	00 00 00 
   1bdd5:	c7 85 e0 f0 ff ff 04 	movl   $0x4,-0xf20(%rbp)
   1bddc:	00 00 00 
   1bddf:	c7 85 e4 f0 ff ff da 	movl   $0x9967f8da,-0xf1c(%rbp)
   1bde6:	f8 67 99 
   1bde9:	c7 85 e8 f0 ff ff fb 	movl   $0xfffffffb,-0xf18(%rbp)
   1bdf0:	ff ff ff 
   1bdf3:	c7 85 ec f0 ff ff fb 	movl   $0xfffffffb,-0xf14(%rbp)
   1bdfa:	ff ff ff 
   1bdfd:	c7 85 10 ec ff ff 77 	movl   $0x2f522477,-0x13f0(%rbp)
   1be04:	24 52 2f 
   1be07:	48 8d 85 b0 f8 ff ff 	lea    -0x750(%rbp),%rax
   1be0e:	48 8d 15 2b e8 00 00 	lea    0xe82b(%rip),%rdx        # 2a640 <g_2631+0x1c18>
   1be15:	b9 e1 00 00 00       	mov    $0xe1,%ecx
   1be1a:	48 89 c7             	mov    %rax,%rdi
   1be1d:	48 89 d6             	mov    %rdx,%rsi
   1be20:	f3 48 a5             	rep movsq %ds:(%rsi),%es:(%rdi)
   1be23:	48 8d 05 2e 52 00 00 	lea    0x522e(%rip),%rax        # 21058 <g_1165>
   1be2a:	48 89 85 40 ec ff ff 	mov    %rax,-0x13c0(%rbp)
   1be31:	48 8d 85 40 ec ff ff 	lea    -0x13c0(%rbp),%rax
   1be38:	48 89 85 d0 ec ff ff 	mov    %rax,-0x1330(%rbp)
   1be3f:	48 c7 85 d8 ec ff ff 	movq   $0x0,-0x1328(%rbp)
   1be46:	00 00 00 00 
   1be4a:	48 8d 05 2f c2 00 00 	lea    0xc22f(%rip),%rax        # 28080 <g_38>
   1be51:	48 89 85 e0 ec ff ff 	mov    %rax,-0x1320(%rbp)
   1be58:	c7 85 80 eb ff ff 00 	movl   $0x0,-0x1480(%rbp)
   1be5f:	00 00 00 
   1be62:	eb 1b                	jmp    1be7f <func_13+0x3fbb>
   1be64:	8b 85 80 eb ff ff    	mov    -0x1480(%rbp),%eax
   1be6a:	48 98                	cltq   
   1be6c:	48 c7 84 c5 20 ee ff 	movq   $0x0,-0x11e0(%rbp,%rax,8)
   1be73:	ff 00 00 00 00 
   1be78:	83 85 80 eb ff ff 01 	addl   $0x1,-0x1480(%rbp)
   1be7f:	83 bd 80 eb ff ff 00 	cmpl   $0x0,-0x1480(%rbp)
   1be86:	7e dc                	jle    1be64 <func_13+0x3fa0>
   1be88:	8b 85 90 eb ff ff    	mov    -0x1470(%rbp),%eax
   1be8e:	be 07 00 00 00       	mov    $0x7,%esi
   1be93:	89 c7                	mov    %eax,%edi
   1be95:	e8 6b 07 ff ff       	callq  c605 <safe_sub_func_int32_t_s_s>
   1be9a:	89 85 90 eb ff ff    	mov    %eax,-0x1470(%rbp)
   1bea0:	83 bd 90 eb ff ff ee 	cmpl   $0xffffffee,-0x1470(%rbp)
   1bea7:	0f 8d 23 fe ff ff    	jge    1bcd0 <func_13+0x3e0c>
   1bead:	0f b6 05 54 c6 00 00 	movzbl 0xc654(%rip),%eax        # 28508 <g_208>
   1beb4:	83 c0 01             	add    $0x1,%eax
   1beb7:	88 05 4b c6 00 00    	mov    %al,0xc64b(%rip)        # 28508 <g_208>
   1bebd:	0f b6 05 44 c6 00 00 	movzbl 0xc644(%rip),%eax        # 28508 <g_208>
   1bec4:	3c 06                	cmp    $0x6,%al
   1bec6:	0f 87 ab fa ff ff    	ja     1b977 <func_13+0x3ab3>
   1becc:	48 8b 85 38 eb ff ff 	mov    -0x14c8(%rbp),%rax
   1bed3:	48 8b 95 60 ec ff ff 	mov    -0x13a0(%rbp),%rdx
   1beda:	48 8b 0a             	mov    (%rdx),%rcx
   1bedd:	48 8b 5a 08          	mov    0x8(%rdx),%rbx
   1bee1:	48 89 08             	mov    %rcx,(%rax)
   1bee4:	48 89 58 08          	mov    %rbx,0x8(%rax)
   1bee8:	48 8b 4a 10          	mov    0x10(%rdx),%rcx
   1beec:	48 8b 5a 18          	mov    0x18(%rdx),%rbx
   1bef0:	48 89 48 10          	mov    %rcx,0x10(%rax)
   1bef4:	48 89 58 18          	mov    %rbx,0x18(%rax)
   1bef8:	8b 4a 20             	mov    0x20(%rdx),%ecx
   1befb:	89 48 20             	mov    %ecx,0x20(%rax)
   1befe:	0f b7 52 24          	movzwl 0x24(%rdx),%edx
   1bf02:	66 89 50 24          	mov    %dx,0x24(%rax)
   1bf06:	48 8b 45 c8          	mov    -0x38(%rbp),%rax
   1bf0a:	64 48 33 04 25 28 00 	xor    %fs:0x28,%rax
   1bf11:	00 00 
   1bf13:	74 05                	je     1bf1a <func_13+0x4056>
   1bf15:	e8 56 01 ff ff       	callq  c070 <__stack_chk_fail@plt>
   1bf1a:	48 8b 85 38 eb ff ff 	mov    -0x14c8(%rbp),%rax
   1bf21:	48 81 c4 c8 14 00 00 	add    $0x14c8,%rsp
   1bf28:	5b                   	pop    %rbx
   1bf29:	41 5c                	pop    %r12
   1bf2b:	41 5d                	pop    %r13
   1bf2d:	41 5e                	pop    %r14
   1bf2f:	41 5f                	pop    %r15
   1bf31:	5d                   	pop    %rbp
   1bf32:	c3                   	retq   

000000000001bf33 <func_19>:
   1bf33:	f3 0f 1e fa          	endbr64 
   1bf37:	55                   	push   %rbp
   1bf38:	48 89 e5             	mov    %rsp,%rbp
   1bf3b:	41 55                	push   %r13
   1bf3d:	41 54                	push   %r12
   1bf3f:	53                   	push   %rbx
   1bf40:	48 81 ec 18 03 00 00 	sub    $0x318,%rsp
   1bf47:	48 89 bd d8 fc ff ff 	mov    %rdi,-0x328(%rbp)
   1bf4e:	64 48 8b 04 25 28 00 	mov    %fs:0x28,%rax
   1bf55:	00 00 
   1bf57:	48 89 45 d8          	mov    %rax,-0x28(%rbp)
   1bf5b:	31 c0                	xor    %eax,%eax
   1bf5d:	c6 85 e7 fc ff ff cb 	movb   $0xcb,-0x319(%rbp)
   1bf64:	48 8d 05 d5 06 01 00 	lea    0x106d5(%rip),%rax        # 2c640 <g_460>
   1bf6b:	48 89 85 f8 fc ff ff 	mov    %rax,-0x308(%rbp)
   1bf72:	48 b8 79 8f ec f6 91 	movabs $0x16e40f91f6ec8f79,%rax
   1bf79:	0f e4 16 
   1bf7c:	48 89 85 70 fd ff ff 	mov    %rax,-0x290(%rbp)
   1bf83:	48 b8 12 8f 3f df c5 	movabs $0x3bf444c5df3f8f12,%rax
   1bf8a:	44 f4 3b 
   1bf8d:	48 89 85 78 fd ff ff 	mov    %rax,-0x288(%rbp)
   1bf94:	48 b8 a0 cc f4 67 6d 	movabs $0xdee90e6d67f4cca0,%rax
   1bf9b:	0e e9 de 
   1bf9e:	48 89 85 80 fd ff ff 	mov    %rax,-0x280(%rbp)
   1bfa5:	c7 85 88 fd ff ff be 	movl   $0x8cb077be,-0x278(%rbp)
   1bfac:	77 b0 8c 
   1bfaf:	48 c7 85 8c fd ff ff 	movq   $0x6,-0x274(%rbp)
   1bfb6:	06 00 00 00 
   1bfba:	66 c7 85 94 fd ff ff 	movw   $0x9,-0x26c(%rbp)
   1bfc1:	09 00 
   1bfc3:	48 8d 05 f6 c0 00 00 	lea    0xc0f6(%rip),%rax        # 280c0 <g_68>
   1bfca:	48 89 85 00 fd ff ff 	mov    %rax,-0x300(%rbp)
   1bfd1:	48 8d 05 2e c5 00 00 	lea    0xc52e(%rip),%rax        # 28506 <g_171>
   1bfd8:	48 89 85 d0 fd ff ff 	mov    %rax,-0x230(%rbp)
   1bfdf:	48 8d 05 20 c5 00 00 	lea    0xc520(%rip),%rax        # 28506 <g_171>
   1bfe6:	48 89 85 d8 fd ff ff 	mov    %rax,-0x228(%rbp)
   1bfed:	48 8d 05 12 c5 00 00 	lea    0xc512(%rip),%rax        # 28506 <g_171>
   1bff4:	48 89 85 e0 fd ff ff 	mov    %rax,-0x220(%rbp)
   1bffb:	48 8d 05 04 c5 00 00 	lea    0xc504(%rip),%rax        # 28506 <g_171>
   1c002:	48 89 85 e8 fd ff ff 	mov    %rax,-0x218(%rbp)
   1c009:	48 8d 05 f6 c4 00 00 	lea    0xc4f6(%rip),%rax        # 28506 <g_171>
   1c010:	48 89 85 f0 fd ff ff 	mov    %rax,-0x210(%rbp)
   1c017:	48 8d 05 e8 c4 00 00 	lea    0xc4e8(%rip),%rax        # 28506 <g_171>
   1c01e:	48 89 85 f8 fd ff ff 	mov    %rax,-0x208(%rbp)
   1c025:	48 8d 05 da c4 00 00 	lea    0xc4da(%rip),%rax        # 28506 <g_171>
   1c02c:	48 89 85 00 fe ff ff 	mov    %rax,-0x200(%rbp)
   1c033:	48 8d 05 cc c4 00 00 	lea    0xc4cc(%rip),%rax        # 28506 <g_171>
   1c03a:	48 89 85 08 fe ff ff 	mov    %rax,-0x1f8(%rbp)
   1c041:	48 8d 05 be c4 00 00 	lea    0xc4be(%rip),%rax        # 28506 <g_171>
   1c048:	48 89 85 10 fe ff ff 	mov    %rax,-0x1f0(%rbp)
   1c04f:	c7 85 e8 fc ff ff dc 	movl   $0x5f485adc,-0x318(%rbp)
   1c056:	5a 48 5f 
   1c059:	48 8d 05 6c c0 00 00 	lea    0xc06c(%rip),%rax        # 280cc <g_71>
   1c060:	48 89 85 08 fd ff ff 	mov    %rax,-0x2f8(%rbp)
   1c067:	48 8d 85 e8 fc ff ff 	lea    -0x318(%rbp),%rax
   1c06e:	48 89 85 10 fd ff ff 	mov    %rax,-0x2f0(%rbp)
   1c075:	48 8d 85 e8 fc ff ff 	lea    -0x318(%rbp),%rax
   1c07c:	48 89 85 18 fd ff ff 	mov    %rax,-0x2e8(%rbp)
   1c083:	c7 85 ec fc ff ff 0a 	movl   $0x1612500a,-0x314(%rbp)
   1c08a:	50 12 16 
   1c08d:	c7 85 f0 fc ff ff 11 	movl   $0xcd36d711,-0x310(%rbp)
   1c094:	d7 36 cd 
   1c097:	c7 85 a0 fd ff ff f7 	movl   $0xfffffff7,-0x260(%rbp)
   1c09e:	ff ff ff 
   1c0a1:	c7 85 a4 fd ff ff f7 	movl   $0xfffffff7,-0x25c(%rbp)
   1c0a8:	ff ff ff 
   1c0ab:	c7 85 a8 fd ff ff f7 	movl   $0xfffffff7,-0x258(%rbp)
   1c0b2:	ff ff ff 
   1c0b5:	c7 85 ac fd ff ff f7 	movl   $0xfffffff7,-0x254(%rbp)
   1c0bc:	ff ff ff 
   1c0bf:	c7 85 b0 fd ff ff f7 	movl   $0xfffffff7,-0x250(%rbp)
   1c0c6:	ff ff ff 
   1c0c9:	c7 85 b4 fd ff ff f7 	movl   $0xfffffff7,-0x24c(%rbp)
   1c0d0:	ff ff ff 
   1c0d3:	c7 85 b8 fd ff ff f7 	movl   $0xfffffff7,-0x248(%rbp)
   1c0da:	ff ff ff 
   1c0dd:	c7 85 bc fd ff ff f7 	movl   $0xfffffff7,-0x244(%rbp)
   1c0e4:	ff ff ff 
   1c0e7:	c7 85 c0 fd ff ff f7 	movl   $0xfffffff7,-0x240(%rbp)
   1c0ee:	ff ff ff 
   1c0f1:	48 8d 85 f0 fc ff ff 	lea    -0x310(%rbp),%rax
   1c0f8:	48 89 85 20 fd ff ff 	mov    %rax,-0x2e0(%rbp)
   1c0ff:	48 8d 85 ec fc ff ff 	lea    -0x314(%rbp),%rax
   1c106:	48 89 85 28 fd ff ff 	mov    %rax,-0x2d8(%rbp)
   1c10d:	48 8d 85 a0 fd ff ff 	lea    -0x260(%rbp),%rax
   1c114:	48 83 c0 14          	add    $0x14,%rax
   1c118:	48 89 85 30 fd ff ff 	mov    %rax,-0x2d0(%rbp)
   1c11f:	48 8d 05 a6 bf 00 00 	lea    0xbfa6(%rip),%rax        # 280cc <g_71>
   1c126:	48 89 85 38 fd ff ff 	mov    %rax,-0x2c8(%rbp)
   1c12d:	48 c7 85 40 fd ff ff 	movq   $0x0,-0x2c0(%rbp)
   1c134:	00 00 00 00 
   1c138:	48 8d 85 f0 fc ff ff 	lea    -0x310(%rbp),%rax
   1c13f:	48 89 85 48 fd ff ff 	mov    %rax,-0x2b8(%rbp)
   1c146:	48 8d 85 a0 fd ff ff 	lea    -0x260(%rbp),%rax
   1c14d:	48 83 c0 20          	add    $0x20,%rax
   1c151:	48 89 85 50 fd ff ff 	mov    %rax,-0x2b0(%rbp)
   1c158:	48 8d 05 6d bf 00 00 	lea    0xbf6d(%rip),%rax        # 280cc <g_71>
   1c15f:	48 89 85 58 fd ff ff 	mov    %rax,-0x2a8(%rbp)
   1c166:	48 8d 85 a0 fd ff ff 	lea    -0x260(%rbp),%rax
   1c16d:	48 83 c0 04          	add    $0x4,%rax
   1c171:	48 89 85 60 fd ff ff 	mov    %rax,-0x2a0(%rbp)
   1c178:	48 8d 85 e8 fc ff ff 	lea    -0x318(%rbp),%rax
   1c17f:	48 89 85 68 fd ff ff 	mov    %rax,-0x298(%rbp)
   1c186:	48 8d 85 e8 fc ff ff 	lea    -0x318(%rbp),%rax
   1c18d:	48 89 85 20 fe ff ff 	mov    %rax,-0x1e0(%rbp)
   1c194:	48 8d 85 e8 fc ff ff 	lea    -0x318(%rbp),%rax
   1c19b:	48 89 85 28 fe ff ff 	mov    %rax,-0x1d8(%rbp)
   1c1a2:	48 8d 85 a0 fd ff ff 	lea    -0x260(%rbp),%rax
   1c1a9:	48 83 c0 20          	add    $0x20,%rax
   1c1ad:	48 89 85 30 fe ff ff 	mov    %rax,-0x1d0(%rbp)
   1c1b4:	48 8d 85 a0 fd ff ff 	lea    -0x260(%rbp),%rax
   1c1bb:	48 83 c0 20          	add    $0x20,%rax
   1c1bf:	48 89 85 38 fe ff ff 	mov    %rax,-0x1c8(%rbp)
   1c1c6:	48 8d 85 e8 fc ff ff 	lea    -0x318(%rbp),%rax
   1c1cd:	48 89 85 40 fe ff ff 	mov    %rax,-0x1c0(%rbp)
   1c1d4:	48 8d 85 e8 fc ff ff 	lea    -0x318(%rbp),%rax
   1c1db:	48 89 85 48 fe ff ff 	mov    %rax,-0x1b8(%rbp)
   1c1e2:	48 8d 85 e8 fc ff ff 	lea    -0x318(%rbp),%rax
   1c1e9:	48 89 85 50 fe ff ff 	mov    %rax,-0x1b0(%rbp)
   1c1f0:	48 8d 85 e8 fc ff ff 	lea    -0x318(%rbp),%rax
   1c1f7:	48 89 85 58 fe ff ff 	mov    %rax,-0x1a8(%rbp)
   1c1fe:	48 8d 85 ec fc ff ff 	lea    -0x314(%rbp),%rax
   1c205:	48 89 85 60 fe ff ff 	mov    %rax,-0x1a0(%rbp)
   1c20c:	48 8d 85 e8 fc ff ff 	lea    -0x318(%rbp),%rax
   1c213:	48 89 85 68 fe ff ff 	mov    %rax,-0x198(%rbp)
   1c21a:	48 8d 85 ec fc ff ff 	lea    -0x314(%rbp),%rax
   1c221:	48 89 85 70 fe ff ff 	mov    %rax,-0x190(%rbp)
   1c228:	48 8d 85 e8 fc ff ff 	lea    -0x318(%rbp),%rax
   1c22f:	48 89 85 78 fe ff ff 	mov    %rax,-0x188(%rbp)
   1c236:	48 8d 85 ec fc ff ff 	lea    -0x314(%rbp),%rax
   1c23d:	48 89 85 80 fe ff ff 	mov    %rax,-0x180(%rbp)
   1c244:	48 8d 85 e8 fc ff ff 	lea    -0x318(%rbp),%rax
   1c24b:	48 89 85 88 fe ff ff 	mov    %rax,-0x178(%rbp)
   1c252:	48 8d 85 a0 fd ff ff 	lea    -0x260(%rbp),%rax
   1c259:	48 83 c0 20          	add    $0x20,%rax
   1c25d:	48 89 85 90 fe ff ff 	mov    %rax,-0x170(%rbp)
   1c264:	48 8d 85 a0 fd ff ff 	lea    -0x260(%rbp),%rax
   1c26b:	48 83 c0 04          	add    $0x4,%rax
   1c26f:	48 89 85 98 fe ff ff 	mov    %rax,-0x168(%rbp)
   1c276:	48 8d 85 a0 fd ff ff 	lea    -0x260(%rbp),%rax
   1c27d:	48 83 c0 04          	add    $0x4,%rax
   1c281:	48 89 85 a0 fe ff ff 	mov    %rax,-0x160(%rbp)
   1c288:	48 8d 85 a0 fd ff ff 	lea    -0x260(%rbp),%rax
   1c28f:	48 83 c0 20          	add    $0x20,%rax
   1c293:	48 89 85 a8 fe ff ff 	mov    %rax,-0x158(%rbp)
   1c29a:	48 8d 85 ec fc ff ff 	lea    -0x314(%rbp),%rax
   1c2a1:	48 89 85 b0 fe ff ff 	mov    %rax,-0x150(%rbp)
   1c2a8:	48 8d 85 ec fc ff ff 	lea    -0x314(%rbp),%rax
   1c2af:	48 89 85 b8 fe ff ff 	mov    %rax,-0x148(%rbp)
   1c2b6:	48 8d 85 a0 fd ff ff 	lea    -0x260(%rbp),%rax
   1c2bd:	48 83 c0 04          	add    $0x4,%rax
   1c2c1:	48 89 85 c0 fe ff ff 	mov    %rax,-0x140(%rbp)
   1c2c8:	48 8d 85 e8 fc ff ff 	lea    -0x318(%rbp),%rax
   1c2cf:	48 89 85 c8 fe ff ff 	mov    %rax,-0x138(%rbp)
   1c2d6:	48 8d 05 ef bd 00 00 	lea    0xbdef(%rip),%rax        # 280cc <g_71>
   1c2dd:	48 89 85 d0 fe ff ff 	mov    %rax,-0x130(%rbp)
   1c2e4:	48 8d 85 e8 fc ff ff 	lea    -0x318(%rbp),%rax
   1c2eb:	48 89 85 d8 fe ff ff 	mov    %rax,-0x128(%rbp)
   1c2f2:	48 8d 85 e8 fc ff ff 	lea    -0x318(%rbp),%rax
   1c2f9:	48 89 85 e0 fe ff ff 	mov    %rax,-0x120(%rbp)
   1c300:	48 8d 85 ec fc ff ff 	lea    -0x314(%rbp),%rax
   1c307:	48 89 85 e8 fe ff ff 	mov    %rax,-0x118(%rbp)
   1c30e:	48 8d 85 e8 fc ff ff 	lea    -0x318(%rbp),%rax
   1c315:	48 89 85 f0 fe ff ff 	mov    %rax,-0x110(%rbp)
   1c31c:	48 8d 85 a0 fd ff ff 	lea    -0x260(%rbp),%rax
   1c323:	48 83 c0 20          	add    $0x20,%rax
   1c327:	48 89 85 f8 fe ff ff 	mov    %rax,-0x108(%rbp)
   1c32e:	48 8d 85 a0 fd ff ff 	lea    -0x260(%rbp),%rax
   1c335:	48 83 c0 04          	add    $0x4,%rax
   1c339:	48 89 85 00 ff ff ff 	mov    %rax,-0x100(%rbp)
   1c340:	48 8d 85 a0 fd ff ff 	lea    -0x260(%rbp),%rax
   1c347:	48 83 c0 04          	add    $0x4,%rax
   1c34b:	48 89 85 08 ff ff ff 	mov    %rax,-0xf8(%rbp)
   1c352:	48 8d 85 e8 fc ff ff 	lea    -0x318(%rbp),%rax
   1c359:	48 89 85 10 ff ff ff 	mov    %rax,-0xf0(%rbp)
   1c360:	48 8d 85 e8 fc ff ff 	lea    -0x318(%rbp),%rax
   1c367:	48 89 85 18 ff ff ff 	mov    %rax,-0xe8(%rbp)
   1c36e:	48 8d 85 e8 fc ff ff 	lea    -0x318(%rbp),%rax
   1c375:	48 89 85 20 ff ff ff 	mov    %rax,-0xe0(%rbp)
   1c37c:	48 8d 85 e8 fc ff ff 	lea    -0x318(%rbp),%rax
   1c383:	48 89 85 28 ff ff ff 	mov    %rax,-0xd8(%rbp)
   1c38a:	48 8d 85 ec fc ff ff 	lea    -0x314(%rbp),%rax
   1c391:	48 89 85 30 ff ff ff 	mov    %rax,-0xd0(%rbp)
   1c398:	48 8d 85 e8 fc ff ff 	lea    -0x318(%rbp),%rax
   1c39f:	48 89 85 38 ff ff ff 	mov    %rax,-0xc8(%rbp)
   1c3a6:	48 8d 85 e8 fc ff ff 	lea    -0x318(%rbp),%rax
   1c3ad:	48 89 85 40 ff ff ff 	mov    %rax,-0xc0(%rbp)
   1c3b4:	48 8d 85 e8 fc ff ff 	lea    -0x318(%rbp),%rax
   1c3bb:	48 89 85 48 ff ff ff 	mov    %rax,-0xb8(%rbp)
   1c3c2:	48 8d 85 a0 fd ff ff 	lea    -0x260(%rbp),%rax
   1c3c9:	48 83 c0 04          	add    $0x4,%rax
   1c3cd:	48 89 85 50 ff ff ff 	mov    %rax,-0xb0(%rbp)
   1c3d4:	48 8d 85 e8 fc ff ff 	lea    -0x318(%rbp),%rax
   1c3db:	48 89 85 58 ff ff ff 	mov    %rax,-0xa8(%rbp)
   1c3e2:	48 8d 85 e8 fc ff ff 	lea    -0x318(%rbp),%rax
   1c3e9:	48 89 85 60 ff ff ff 	mov    %rax,-0xa0(%rbp)
   1c3f0:	48 8d 85 a0 fd ff ff 	lea    -0x260(%rbp),%rax
   1c3f7:	48 83 c0 20          	add    $0x20,%rax
   1c3fb:	48 89 85 68 ff ff ff 	mov    %rax,-0x98(%rbp)
   1c402:	48 8d 85 e8 fc ff ff 	lea    -0x318(%rbp),%rax
   1c409:	48 89 85 70 ff ff ff 	mov    %rax,-0x90(%rbp)
   1c410:	48 8d 85 e8 fc ff ff 	lea    -0x318(%rbp),%rax
   1c417:	48 89 85 78 ff ff ff 	mov    %rax,-0x88(%rbp)
   1c41e:	48 8d 85 a0 fd ff ff 	lea    -0x260(%rbp),%rax
   1c425:	48 83 c0 20          	add    $0x20,%rax
   1c429:	48 89 45 80          	mov    %rax,-0x80(%rbp)
   1c42d:	48 8d 85 a0 fd ff ff 	lea    -0x260(%rbp),%rax
   1c434:	48 83 c0 20          	add    $0x20,%rax
   1c438:	48 89 45 88          	mov    %rax,-0x78(%rbp)
   1c43c:	48 8d 85 e8 fc ff ff 	lea    -0x318(%rbp),%rax
   1c443:	48 89 45 90          	mov    %rax,-0x70(%rbp)
   1c447:	48 8d 85 e8 fc ff ff 	lea    -0x318(%rbp),%rax
   1c44e:	48 89 45 98          	mov    %rax,-0x68(%rbp)
   1c452:	48 8d 85 e8 fc ff ff 	lea    -0x318(%rbp),%rax
   1c459:	48 89 45 a0          	mov    %rax,-0x60(%rbp)
   1c45d:	48 8d 85 e8 fc ff ff 	lea    -0x318(%rbp),%rax
   1c464:	48 89 45 a8          	mov    %rax,-0x58(%rbp)
   1c468:	48 8d 85 ec fc ff ff 	lea    -0x314(%rbp),%rax
   1c46f:	48 89 45 b0          	mov    %rax,-0x50(%rbp)
   1c473:	48 8d 85 e8 fc ff ff 	lea    -0x318(%rbp),%rax
   1c47a:	48 89 45 b8          	mov    %rax,-0x48(%rbp)
   1c47e:	48 8d 85 ec fc ff ff 	lea    -0x314(%rbp),%rax
   1c485:	48 89 45 c0          	mov    %rax,-0x40(%rbp)
   1c489:	48 8d 85 e8 fc ff ff 	lea    -0x318(%rbp),%rax
   1c490:	48 89 45 c8          	mov    %rax,-0x38(%rbp)
   1c494:	c7 85 f4 fc ff ff 00 	movl   $0x0,-0x30c(%rbp)
   1c49b:	00 00 00 
   1c49e:	48 8b 05 3b c0 00 00 	mov    0xc03b(%rip),%rax        # 284e0 <g_146>
   1c4a5:	44 0f b6 e8          	movzbl %al,%r13d
   1c4a9:	44 0f b6 a5 e7 fc ff 	movzbl -0x319(%rbp),%r12d
   1c4b0:	ff 
   1c4b1:	48 8b 1d 58 0f 01 00 	mov    0x10f58(%rip),%rbx        # 2d410 <g_21>
   1c4b8:	0f b6 85 e7 fc ff ff 	movzbl -0x319(%rbp),%eax
   1c4bf:	88 05 bb bb 00 00    	mov    %al,0xbbbb(%rip)        # 28080 <g_38>
   1c4c5:	0f b6 05 b4 bb 00 00 	movzbl 0xbbb4(%rip),%eax        # 28080 <g_38>
   1c4cc:	0f b6 d0             	movzbl %al,%edx
   1c4cf:	0f b6 85 e7 fc ff ff 	movzbl -0x319(%rbp),%eax
   1c4d6:	89 d6                	mov    %edx,%esi
   1c4d8:	89 c7                	mov    %eax,%edi
   1c4da:	e8 7b 06 ff ff       	callq  cb5a <safe_add_func_uint8_t_u_u>
   1c4df:	80 bd e7 fc ff ff 00 	cmpb   $0x0,-0x319(%rbp)
   1c4e6:	0f 95 c0             	setne  %al
   1c4e9:	0f b6 c0             	movzbl %al,%eax
   1c4ec:	48 8b 95 d8 fc ff ff 	mov    -0x328(%rbp),%rdx
   1c4f3:	48 8b b5 d8 fc ff ff 	mov    -0x328(%rbp),%rsi
   1c4fa:	48 89 d1             	mov    %rdx,%rcx
   1c4fd:	48 89 da             	mov    %rbx,%rdx
   1c500:	89 c7                	mov    %eax,%edi
   1c502:	e8 73 19 00 00       	callq  1de7a <func_31>
   1c507:	89 c2                	mov    %eax,%edx
   1c509:	0f b6 05 f9 bf 00 00 	movzbl 0xbff9(%rip),%eax        # 28509 <g_289>
   1c510:	21 d0                	and    %edx,%eax
   1c512:	88 05 f1 bf 00 00    	mov    %al,0xbff1(%rip)        # 28509 <g_289>
   1c518:	80 bd e7 fc ff ff 00 	cmpb   $0x0,-0x319(%rbp)
   1c51f:	0f 95 c0             	setne  %al
   1c522:	0f b6 c0             	movzbl %al,%eax
   1c525:	89 c7                	mov    %eax,%edi
   1c527:	e8 ed 06 00 00       	callq  1cc19 <func_29>
   1c52c:	48 8b 95 f8 fc ff ff 	mov    -0x308(%rbp),%rdx
   1c533:	48 89 02             	mov    %rax,(%rdx)
   1c536:	48 8b 85 f8 fc ff ff 	mov    -0x308(%rbp),%rax
   1c53d:	48 8b 30             	mov    (%rax),%rsi
   1c540:	0f b6 bd e7 fc ff ff 	movzbl -0x319(%rbp),%edi
   1c547:	48 83 ec 08          	sub    $0x8,%rsp
   1c54b:	48 83 ec 28          	sub    $0x28,%rsp
   1c54f:	48 89 e0             	mov    %rsp,%rax
   1c552:	48 8b 8d 70 fd ff ff 	mov    -0x290(%rbp),%rcx
   1c559:	48 8b 9d 78 fd ff ff 	mov    -0x288(%rbp),%rbx
   1c560:	48 89 08             	mov    %rcx,(%rax)
   1c563:	48 89 58 08          	mov    %rbx,0x8(%rax)
   1c567:	48 8b 8d 80 fd ff ff 	mov    -0x280(%rbp),%rcx
   1c56e:	48 8b 9d 88 fd ff ff 	mov    -0x278(%rbp),%rbx
   1c575:	48 89 48 10          	mov    %rcx,0x10(%rax)
   1c579:	48 89 58 18          	mov    %rbx,0x18(%rax)
   1c57d:	8b 95 90 fd ff ff    	mov    -0x270(%rbp),%edx
   1c583:	89 50 20             	mov    %edx,0x20(%rax)
   1c586:	0f b7 95 94 fd ff ff 	movzwl -0x26c(%rbp),%edx
   1c58d:	66 89 50 24          	mov    %dx,0x24(%rax)
   1c591:	44 89 e9             	mov    %r13d,%ecx
   1c594:	4c 89 e2             	mov    %r12,%rdx
   1c597:	e8 c7 00 00 00       	callq  1c663 <func_22>
   1c59c:	48 83 c4 30          	add    $0x30,%rsp
   1c5a0:	48 8b 95 f8 fc ff ff 	mov    -0x308(%rbp),%rdx
   1c5a7:	48 89 02             	mov    %rax,(%rdx)
   1c5aa:	8b 85 88 fd ff ff    	mov    -0x278(%rbp),%eax
   1c5b0:	0f b7 d0             	movzwl %ax,%edx
   1c5b3:	48 8d 05 06 bb 00 00 	lea    0xbb06(%rip),%rax        # 280c0 <g_68>
   1c5ba:	48 39 85 00 fd ff ff 	cmp    %rax,-0x300(%rbp)
   1c5c1:	0f 95 c0             	setne  %al
   1c5c4:	0f b6 c0             	movzbl %al,%eax
   1c5c7:	89 d6                	mov    %edx,%esi
   1c5c9:	89 c7                	mov    %eax,%edi
   1c5cb:	e8 8c 07 ff ff       	callq  cd5c <safe_mod_func_uint16_t_u_u>
   1c5d0:	48 8b 85 8c fd ff ff 	mov    -0x274(%rbp),%rax
   1c5d7:	48 83 f8 01          	cmp    $0x1,%rax
   1c5db:	0f 95 c0             	setne  %al
   1c5de:	0f b6 d0             	movzbl %al,%edx
   1c5e1:	8b 85 e8 fc ff ff    	mov    -0x318(%rbp),%eax
   1c5e7:	21 d0                	and    %edx,%eax
   1c5e9:	89 85 e8 fc ff ff    	mov    %eax,-0x318(%rbp)
   1c5ef:	8b 85 e8 fc ff ff    	mov    -0x318(%rbp),%eax
   1c5f5:	98                   	cwtl   
   1c5f6:	be 01 00 00 00       	mov    $0x1,%esi
   1c5fb:	89 c7                	mov    %eax,%edi
   1c5fd:	e8 d1 fd fe ff       	callq  c3d3 <safe_sub_func_int16_t_s_s>
   1c602:	98                   	cwtl   
   1c603:	89 c6                	mov    %eax,%esi
   1c605:	bf 00 00 00 00       	mov    $0x0,%edi
   1c60a:	e8 e6 fd fe ff       	callq  c3f5 <safe_mul_func_int16_t_s_s>
   1c60f:	48 8b 95 08 fd ff ff 	mov    -0x2f8(%rbp),%rdx
   1c616:	8b 12                	mov    (%rdx),%edx
   1c618:	98                   	cwtl   
   1c619:	21 c2                	and    %eax,%edx
   1c61b:	48 8b 85 08 fd ff ff 	mov    -0x2f8(%rbp),%rax
   1c622:	89 10                	mov    %edx,(%rax)
   1c624:	83 85 f4 fc ff ff 01 	addl   $0x1,-0x30c(%rbp)
   1c62b:	48 8b 85 68 fd ff ff 	mov    -0x298(%rbp),%rax
   1c632:	8b 10                	mov    (%rax),%edx
   1c634:	48 8b 85 38 fd ff ff 	mov    -0x2c8(%rbp),%rax
   1c63b:	89 10                	mov    %edx,(%rax)
   1c63d:	48 8b 85 d8 fc ff ff 	mov    -0x328(%rbp),%rax
   1c644:	48 8b 5d d8          	mov    -0x28(%rbp),%rbx
   1c648:	64 48 33 1c 25 28 00 	xor    %fs:0x28,%rbx
   1c64f:	00 00 
   1c651:	74 05                	je     1c658 <func_19+0x725>
   1c653:	e8 18 fa fe ff       	callq  c070 <__stack_chk_fail@plt>
   1c658:	48 8d 65 e8          	lea    -0x18(%rbp),%rsp
   1c65c:	5b                   	pop    %rbx
   1c65d:	41 5c                	pop    %r12
   1c65f:	41 5d                	pop    %r13
   1c661:	5d                   	pop    %rbp
   1c662:	c3                   	retq   

000000000001c663 <func_22>:
   1c663:	f3 0f 1e fa          	endbr64 
   1c667:	55                   	push   %rbp
   1c668:	48 89 e5             	mov    %rsp,%rbp
   1c66b:	41 57                	push   %r15
   1c66d:	41 56                	push   %r14
   1c66f:	41 55                	push   %r13
   1c671:	41 54                	push   %r12
   1c673:	53                   	push   %rbx
   1c674:	48 81 ec 88 01 00 00 	sub    $0x188,%rsp
   1c67b:	48 89 bd 88 fe ff ff 	mov    %rdi,-0x178(%rbp)
   1c682:	48 89 b5 80 fe ff ff 	mov    %rsi,-0x180(%rbp)
   1c689:	48 89 95 78 fe ff ff 	mov    %rdx,-0x188(%rbp)
   1c690:	89 c8                	mov    %ecx,%eax
   1c692:	88 85 74 fe ff ff    	mov    %al,-0x18c(%rbp)
   1c698:	64 48 8b 04 25 28 00 	mov    %fs:0x28,%rax
   1c69f:	00 00 
   1c6a1:	48 89 45 c8          	mov    %rax,-0x38(%rbp)
   1c6a5:	31 c0                	xor    %eax,%eax
   1c6a7:	48 8d 05 1e ba 00 00 	lea    0xba1e(%rip),%rax        # 280cc <g_71>
   1c6ae:	48 89 85 10 ff ff ff 	mov    %rax,-0xf0(%rbp)
   1c6b5:	48 8d 05 10 ba 00 00 	lea    0xba10(%rip),%rax        # 280cc <g_71>
   1c6bc:	48 89 85 18 ff ff ff 	mov    %rax,-0xe8(%rbp)
   1c6c3:	48 8d 05 02 ba 00 00 	lea    0xba02(%rip),%rax        # 280cc <g_71>
   1c6ca:	48 89 85 20 ff ff ff 	mov    %rax,-0xe0(%rbp)
   1c6d1:	48 8d 05 f4 b9 00 00 	lea    0xb9f4(%rip),%rax        # 280cc <g_71>
   1c6d8:	48 89 85 28 ff ff ff 	mov    %rax,-0xd8(%rbp)
   1c6df:	48 b8 84 07 aa a5 57 	movabs $0x1f3edb57a5aa0784,%rax
   1c6e6:	db 3e 1f 
   1c6e9:	48 89 85 c0 fe ff ff 	mov    %rax,-0x140(%rbp)
   1c6f0:	48 8d 05 e9 bd 00 00 	lea    0xbde9(%rip),%rax        # 284e0 <g_146>
   1c6f7:	48 89 85 c8 fe ff ff 	mov    %rax,-0x138(%rbp)
   1c6fe:	48 8d 05 4f 49 00 00 	lea    0x494f(%rip),%rax        # 21054 <g_490>
   1c705:	48 89 85 d0 fe ff ff 	mov    %rax,-0x130(%rbp)
   1c70c:	48 c7 85 a0 fe ff ff 	movq   $0x0,-0x160(%rbp)
   1c713:	00 00 00 00 
   1c717:	48 8d 85 a0 fe ff ff 	lea    -0x160(%rbp),%rax
   1c71e:	48 89 85 d8 fe ff ff 	mov    %rax,-0x128(%rbp)
   1c725:	c7 85 98 fe ff ff 00 	movl   $0x0,-0x168(%rbp)
   1c72c:	00 00 00 
   1c72f:	c6 85 97 fe ff ff 8e 	movb   $0x8e,-0x169(%rbp)
   1c736:	48 8d 85 98 fe ff ff 	lea    -0x168(%rbp),%rax
   1c73d:	48 89 85 a8 fe ff ff 	mov    %rax,-0x158(%rbp)
   1c744:	48 8d 85 a8 fe ff ff 	lea    -0x158(%rbp),%rax
   1c74b:	48 89 85 e0 fe ff ff 	mov    %rax,-0x120(%rbp)
   1c752:	48 c7 85 e8 fe ff ff 	movq   $0x0,-0x118(%rbp)
   1c759:	00 00 00 00 
   1c75d:	48 8d 05 a4 bd 00 00 	lea    0xbda4(%rip),%rax        # 28508 <g_208>
   1c764:	48 89 85 f0 fe ff ff 	mov    %rax,-0x110(%rbp)
   1c76b:	48 8d 05 5e b9 00 00 	lea    0xb95e(%rip),%rax        # 280d0 <g_82>
   1c772:	48 89 85 f8 fe ff ff 	mov    %rax,-0x108(%rbp)
   1c779:	48 8b 55 2c          	mov    0x2c(%rbp),%rdx
   1c77d:	48 8b 85 c0 fe ff ff 	mov    -0x140(%rbp),%rax
   1c784:	48 09 d0             	or     %rdx,%rax
   1c787:	48 89 85 c0 fe ff ff 	mov    %rax,-0x140(%rbp)
   1c78e:	48 83 bd 78 fe ff ff 	cmpq   $0x0,-0x188(%rbp)
   1c795:	00 
   1c796:	0f 84 ba 01 00 00    	je     1c956 <func_22+0x2f3>
   1c79c:	c7 85 9c fe ff ff 08 	movl   $0x8,-0x164(%rbp)
   1c7a3:	00 00 00 
   1c7a6:	c7 85 30 ff ff ff 01 	movl   $0x1,-0xd0(%rbp)
   1c7ad:	00 00 00 
   1c7b0:	c7 85 34 ff ff ff 5d 	movl   $0x32060c5d,-0xcc(%rbp)
   1c7b7:	0c 06 32 
   1c7ba:	c7 85 38 ff ff ff 01 	movl   $0x1,-0xc8(%rbp)
   1c7c1:	00 00 00 
   1c7c4:	c7 85 3c ff ff ff 5d 	movl   $0x32060c5d,-0xc4(%rbp)
   1c7cb:	0c 06 32 
   1c7ce:	c7 85 40 ff ff ff 01 	movl   $0x1,-0xc0(%rbp)
   1c7d5:	00 00 00 
   1c7d8:	c7 85 44 ff ff ff 5d 	movl   $0x32060c5d,-0xbc(%rbp)
   1c7df:	0c 06 32 
   1c7e2:	c7 85 48 ff ff ff ea 	movl   $0x60dcd8ea,-0xb8(%rbp)
   1c7e9:	d8 dc 60 
   1c7ec:	c7 85 4c ff ff ff 5d 	movl   $0x32060c5d,-0xb4(%rbp)
   1c7f3:	0c 06 32 
   1c7f6:	c7 85 50 ff ff ff ea 	movl   $0x60dcd8ea,-0xb0(%rbp)
   1c7fd:	d8 dc 60 
   1c800:	c7 85 54 ff ff ff 5d 	movl   $0x32060c5d,-0xac(%rbp)
   1c807:	0c 06 32 
   1c80a:	c7 85 58 ff ff ff ea 	movl   $0x60dcd8ea,-0xa8(%rbp)
   1c811:	d8 dc 60 
   1c814:	c7 85 5c ff ff ff 5d 	movl   $0x32060c5d,-0xa4(%rbp)
   1c81b:	0c 06 32 
   1c81e:	c7 85 60 ff ff ff 01 	movl   $0x1,-0xa0(%rbp)
   1c825:	00 00 00 
   1c828:	c7 85 64 ff ff ff 5d 	movl   $0x32060c5d,-0x9c(%rbp)
   1c82f:	0c 06 32 
   1c832:	c7 85 68 ff ff ff 01 	movl   $0x1,-0x98(%rbp)
   1c839:	00 00 00 
   1c83c:	c7 85 6c ff ff ff 5d 	movl   $0x32060c5d,-0x94(%rbp)
   1c843:	0c 06 32 
   1c846:	c7 85 70 ff ff ff 01 	movl   $0x1,-0x90(%rbp)
   1c84d:	00 00 00 
   1c850:	c7 85 74 ff ff ff 5d 	movl   $0x32060c5d,-0x8c(%rbp)
   1c857:	0c 06 32 
   1c85a:	c7 85 78 ff ff ff ea 	movl   $0x60dcd8ea,-0x88(%rbp)
   1c861:	d8 dc 60 
   1c864:	c7 85 7c ff ff ff 5d 	movl   $0x32060c5d,-0x84(%rbp)
   1c86b:	0c 06 32 
   1c86e:	c7 45 80 ea d8 dc 60 	movl   $0x60dcd8ea,-0x80(%rbp)
   1c875:	c7 45 84 5d 0c 06 32 	movl   $0x32060c5d,-0x7c(%rbp)
   1c87c:	c7 45 88 ea d8 dc 60 	movl   $0x60dcd8ea,-0x78(%rbp)
   1c883:	c7 45 8c 5d 0c 06 32 	movl   $0x32060c5d,-0x74(%rbp)
   1c88a:	c7 45 90 01 00 00 00 	movl   $0x1,-0x70(%rbp)
   1c891:	c7 45 94 5d 0c 06 32 	movl   $0x32060c5d,-0x6c(%rbp)
   1c898:	c7 45 98 01 00 00 00 	movl   $0x1,-0x68(%rbp)
   1c89f:	c7 45 9c 5d 0c 06 32 	movl   $0x32060c5d,-0x64(%rbp)
   1c8a6:	c7 45 a0 01 00 00 00 	movl   $0x1,-0x60(%rbp)
   1c8ad:	c7 45 a4 5d 0c 06 32 	movl   $0x32060c5d,-0x5c(%rbp)
   1c8b4:	c7 45 a8 ea d8 dc 60 	movl   $0x60dcd8ea,-0x58(%rbp)
   1c8bb:	c7 45 ac 5d 0c 06 32 	movl   $0x32060c5d,-0x54(%rbp)
   1c8c2:	c7 45 b0 ea d8 dc 60 	movl   $0x60dcd8ea,-0x50(%rbp)
   1c8c9:	c7 45 b4 5d 0c 06 32 	movl   $0x32060c5d,-0x4c(%rbp)
   1c8d0:	c7 45 b8 ea d8 dc 60 	movl   $0x60dcd8ea,-0x48(%rbp)
   1c8d7:	c7 45 bc 5d 0c 06 32 	movl   $0x32060c5d,-0x44(%rbp)
   1c8de:	48 8d 85 30 ff ff ff 	lea    -0xd0(%rbp),%rax
   1c8e5:	48 83 c0 68          	add    $0x68,%rax
   1c8e9:	48 89 85 08 ff ff ff 	mov    %rax,-0xf8(%rbp)
   1c8f0:	8b 85 48 ff ff ff    	mov    -0xb8(%rbp),%eax
   1c8f6:	23 85 9c fe ff ff    	and    -0x164(%rbp),%eax
   1c8fc:	89 85 48 ff ff ff    	mov    %eax,-0xb8(%rbp)
   1c902:	48 8b 05 f7 fc 00 00 	mov    0xfcf7(%rip),%rax        # 2c600 <g_278>
   1c909:	48 8b 95 c8 fe ff ff 	mov    -0x138(%rbp),%rdx
   1c910:	48 89 10             	mov    %rdx,(%rax)
   1c913:	48 8b 00             	mov    (%rax),%rax
   1c916:	48 39 85 c8 fe ff ff 	cmp    %rax,-0x138(%rbp)
   1c91d:	0f 95 c0             	setne  %al
   1c920:	0f b6 d8             	movzbl %al,%ebx
   1c923:	48 8b 05 be bb 00 00 	mov    0xbbbe(%rip),%rax        # 284e8 <g_146+0x8>
   1c92a:	98                   	cwtl   
   1c92b:	be 0a 00 00 00       	mov    $0xa,%esi
   1c930:	89 c7                	mov    %eax,%edi
   1c932:	e8 2c fc fe ff       	callq  c563 <safe_rshift_func_int16_t_s_u>
   1c937:	0f be c0             	movsbl %al,%eax
   1c93a:	89 de                	mov    %ebx,%esi
   1c93c:	89 c7                	mov    %eax,%edi
   1c93e:	e8 cf f8 fe ff       	callq  c212 <safe_mul_func_int8_t_s_s>
   1c943:	0f be c0             	movsbl %al,%eax
   1c946:	89 c7                	mov    %eax,%edi
   1c948:	e8 cc 02 00 00       	callq  1cc19 <func_29>
   1c94d:	48 89 85 08 ff ff ff 	mov    %rax,-0xf8(%rbp)
   1c954:	eb 47                	jmp    1c99d <func_22+0x33a>
   1c956:	48 c7 85 b0 fe ff ff 	movq   $0x0,-0x150(%rbp)
   1c95d:	00 00 00 00 
   1c961:	48 8d 85 b0 fe ff ff 	lea    -0x150(%rbp),%rax
   1c968:	48 89 85 b8 fe ff ff 	mov    %rax,-0x148(%rbp)
   1c96f:	48 8d 85 b8 fe ff ff 	lea    -0x148(%rbp),%rax
   1c976:	48 89 85 00 ff ff ff 	mov    %rax,-0x100(%rbp)
   1c97d:	48 8b 95 b8 fe ff ff 	mov    -0x148(%rbp),%rdx
   1c984:	48 8b 85 00 ff ff ff 	mov    -0x100(%rbp),%rax
   1c98b:	48 89 10             	mov    %rdx,(%rax)
   1c98e:	48 8b 05 53 fc 00 00 	mov    0xfc53(%rip),%rax        # 2c5e8 <g_100>
   1c995:	8b 15 e9 bd 00 00    	mov    0xbde9(%rip),%edx        # 28784 <g_480>
   1c99b:	89 10                	mov    %edx,(%rax)
   1c99d:	48 8b 05 1c b7 00 00 	mov    0xb71c(%rip),%rax        # 280c0 <g_68>
   1c9a4:	0f bf d8             	movswl %ax,%ebx
   1c9a7:	44 8b 25 5a 0a 01 00 	mov    0x10a5a(%rip),%r12d        # 2d408 <g_17>
   1c9ae:	0f b6 05 cb b6 00 00 	movzbl 0xb6cb(%rip),%eax        # 28080 <g_38>
   1c9b5:	44 0f be e8          	movsbl %al,%r13d
   1c9b9:	48 c7 85 d0 fe ff ff 	movq   $0x0,-0x130(%rbp)
   1c9c0:	00 00 00 00 
   1c9c4:	48 8b 45 18          	mov    0x18(%rbp),%rax
   1c9c8:	48 89 85 68 fe ff ff 	mov    %rax,-0x198(%rbp)
   1c9cf:	48 8b 45 2c          	mov    0x2c(%rbp),%rax
   1c9d3:	44 0f be f0          	movsbl %al,%r14d
   1c9d7:	44 0f be bd 97 fe ff 	movsbl -0x169(%rbp),%r15d
   1c9de:	ff 
   1c9df:	48 8b 05 e2 ba 00 00 	mov    0xbae2(%rip),%rax        # 284c8 <g_111>
   1c9e6:	c1 e0 03             	shl    $0x3,%eax
   1c9e9:	c0 f8 03             	sar    $0x3,%al
   1c9ec:	84 c0                	test   %al,%al
   1c9ee:	0f 84 13 01 00 00    	je     1cb07 <func_22+0x4a4>
   1c9f4:	8b 85 98 fe ff ff    	mov    -0x168(%rbp),%eax
   1c9fa:	0f be c0             	movsbl %al,%eax
   1c9fd:	89 85 70 fe ff ff    	mov    %eax,-0x190(%rbp)
   1ca03:	48 8b 85 78 fe ff ff 	mov    -0x188(%rbp),%rax
   1ca0a:	0f be c0             	movsbl %al,%eax
   1ca0d:	89 85 64 fe ff ff    	mov    %eax,-0x19c(%rbp)
   1ca13:	48 8b 85 88 fe ff ff 	mov    -0x178(%rbp),%rax
   1ca1a:	89 85 60 fe ff ff    	mov    %eax,-0x1a0(%rbp)
   1ca20:	0f b7 05 dd ba 00 00 	movzwl 0xbadd(%rip),%eax        # 28504 <g_146+0x24>
   1ca27:	0f be c0             	movsbl %al,%eax
   1ca2a:	89 85 5c fe ff ff    	mov    %eax,-0x1a4(%rbp)
   1ca30:	8b 05 d2 09 01 00    	mov    0x109d2(%rip),%eax        # 2d408 <g_17>
   1ca36:	85 c0                	test   %eax,%eax
   1ca38:	75 43                	jne    1ca7d <func_22+0x41a>
   1ca3a:	48 83 bd d8 fe ff ff 	cmpq   $0x0,-0x128(%rbp)
   1ca41:	00 
   1ca42:	74 19                	je     1ca5d <func_22+0x3fa>
   1ca44:	48 8b 05 ed fb 00 00 	mov    0xfbed(%rip),%rax        # 2c638 <g_416>
   1ca4b:	48 8b 00             	mov    (%rax),%rax
   1ca4e:	0f b7 00             	movzwl (%rax),%eax
   1ca51:	66 85 c0             	test   %ax,%ax
   1ca54:	74 07                	je     1ca5d <func_22+0x3fa>
   1ca56:	b8 01 00 00 00       	mov    $0x1,%eax
   1ca5b:	eb 05                	jmp    1ca62 <func_22+0x3ff>
   1ca5d:	b8 00 00 00 00       	mov    $0x0,%eax
   1ca62:	0f bf d0             	movswl %ax,%edx
   1ca65:	48 8b 45 10          	mov    0x10(%rbp),%rax
   1ca69:	98                   	cwtl   
   1ca6a:	89 d6                	mov    %edx,%esi
   1ca6c:	89 c7                	mov    %eax,%edi
   1ca6e:	e8 a3 f9 fe ff       	callq  c416 <safe_mod_func_int16_t_s_s>
   1ca73:	48 8b 45 18          	mov    0x18(%rbp),%rax
   1ca77:	48 83 f8 01          	cmp    $0x1,%rax
   1ca7b:	74 07                	je     1ca84 <func_22+0x421>
   1ca7d:	b8 01 00 00 00       	mov    $0x1,%eax
   1ca82:	eb 05                	jmp    1ca89 <func_22+0x426>
   1ca84:	b8 00 00 00 00       	mov    $0x0,%eax
   1ca89:	98                   	cwtl   
   1ca8a:	be 07 00 00 00       	mov    $0x7,%esi
   1ca8f:	89 c7                	mov    %eax,%edi
   1ca91:	e8 cd fa fe ff       	callq  c563 <safe_rshift_func_int16_t_s_u>
   1ca96:	89 c2                	mov    %eax,%edx
   1ca98:	48 8b 05 09 b6 00 00 	mov    0xb609(%rip),%rax        # 280a8 <g_63+0x8>
   1ca9f:	c1 e0 03             	shl    $0x3,%eax
   1caa2:	c0 f8 03             	sar    $0x3,%al
   1caa5:	66 98                	cbtw   
   1caa7:	66 39 c2             	cmp    %ax,%dx
   1caaa:	0f 9f c0             	setg   %al
   1caad:	0f b6 c0             	movzbl %al,%eax
   1cab0:	8b b5 5c fe ff ff    	mov    -0x1a4(%rbp),%esi
   1cab6:	89 c7                	mov    %eax,%edi
   1cab8:	e8 17 f7 fe ff       	callq  c1d4 <safe_add_func_int8_t_s_s>
   1cabd:	be 07 00 00 00       	mov    $0x7,%esi
   1cac2:	bf 00 00 00 00       	mov    $0x0,%edi
   1cac7:	e8 f2 02 ff ff       	callq  cdbe <safe_lshift_func_uint16_t_u_s>
   1cacc:	48 8b 85 78 fe ff ff 	mov    -0x188(%rbp),%rax
   1cad3:	35 96 4b 00 00       	xor    $0x4b96,%eax
   1cad8:	8b b5 60 fe ff ff    	mov    -0x1a0(%rbp),%esi
   1cade:	89 c7                	mov    %eax,%edi
   1cae0:	e8 40 04 ff ff       	callq  cf25 <safe_div_func_uint32_t_u_u>
   1cae5:	0f be c0             	movsbl %al,%eax
   1cae8:	8b b5 64 fe ff ff    	mov    -0x19c(%rbp),%esi
   1caee:	89 c7                	mov    %eax,%edi
   1caf0:	e8 fd f6 fe ff       	callq  c1f2 <safe_sub_func_int8_t_s_s>
   1caf5:	8b b5 70 fe ff ff    	mov    -0x190(%rbp),%esi
   1cafb:	bf ff ff ff ff       	mov    $0xffffffff,%edi
   1cb00:	e8 2c f7 fe ff       	callq  c231 <safe_mod_func_int8_t_s_s>
   1cb05:	84 c0                	test   %al,%al
   1cb07:	44 89 fe             	mov    %r15d,%esi
   1cb0a:	bf 01 00 00 00       	mov    $0x1,%edi
   1cb0f:	e8 1d f7 fe ff       	callq  c231 <safe_mod_func_int8_t_s_s>
   1cb14:	f7 d0                	not    %eax
   1cb16:	0f be c0             	movsbl %al,%eax
   1cb19:	44 89 f6             	mov    %r14d,%esi
   1cb1c:	89 c7                	mov    %eax,%edi
   1cb1e:	e8 cf f6 fe ff       	callq  c1f2 <safe_sub_func_int8_t_s_s>
   1cb23:	48 0f be c0          	movsbq %al,%rax
   1cb27:	48 39 85 68 fe ff ff 	cmp    %rax,-0x198(%rbp)
   1cb2e:	74 07                	je     1cb37 <func_22+0x4d4>
   1cb30:	b8 01 00 00 00       	mov    $0x1,%eax
   1cb35:	eb 05                	jmp    1cb3c <func_22+0x4d9>
   1cb37:	b8 00 00 00 00       	mov    $0x0,%eax
   1cb3c:	89 c7                	mov    %eax,%edi
   1cb3e:	e8 d6 00 00 00       	callq  1cc19 <func_29>
   1cb43:	48 8b 95 e0 fe ff ff 	mov    -0x120(%rbp),%rdx
   1cb4a:	48 89 02             	mov    %rax,(%rdx)
   1cb4d:	48 8b 85 e0 fe ff ff 	mov    -0x120(%rbp),%rax
   1cb54:	48 8b 00             	mov    (%rax),%rax
   1cb57:	48 39 85 d0 fe ff ff 	cmp    %rax,-0x130(%rbp)
   1cb5e:	0f 95 c0             	setne  %al
   1cb61:	89 c2                	mov    %eax,%edx
   1cb63:	48 8b 85 f0 fe ff ff 	mov    -0x110(%rbp),%rax
   1cb6a:	88 10                	mov    %dl,(%rax)
   1cb6c:	48 8b 85 f0 fe ff ff 	mov    -0x110(%rbp),%rax
   1cb73:	0f b6 10             	movzbl (%rax),%edx
   1cb76:	48 8b 85 f8 fe ff ff 	mov    -0x108(%rbp),%rax
   1cb7d:	0f b6 00             	movzbl (%rax),%eax
   1cb80:	09 c2                	or     %eax,%edx
   1cb82:	48 8b 85 f8 fe ff ff 	mov    -0x108(%rbp),%rax
   1cb89:	88 10                	mov    %dl,(%rax)
   1cb8b:	48 8b 85 f8 fe ff ff 	mov    -0x108(%rbp),%rax
   1cb92:	0f b6 00             	movzbl (%rax),%eax
   1cb95:	0f b6 c0             	movzbl %al,%eax
   1cb98:	be 02 00 00 00       	mov    $0x2,%esi
   1cb9d:	89 c7                	mov    %eax,%edi
   1cb9f:	e8 e9 00 ff ff       	callq  cc8d <safe_rshift_func_uint8_t_u_s>
   1cba4:	0f b6 c0             	movzbl %al,%eax
   1cba7:	44 89 ee             	mov    %r13d,%esi
   1cbaa:	89 c7                	mov    %eax,%edi
   1cbac:	e8 22 f8 fe ff       	callq  c3d3 <safe_sub_func_int16_t_s_s>
   1cbb1:	0f b6 c0             	movzbl %al,%eax
   1cbb4:	44 89 e6             	mov    %r12d,%esi
   1cbb7:	89 c7                	mov    %eax,%edi
   1cbb9:	e8 47 00 ff ff       	callq  cc05 <safe_lshift_func_uint8_t_u_s>
   1cbbe:	89 de                	mov    %ebx,%esi
   1cbc0:	bf 00 00 00 00       	mov    $0x0,%edi
   1cbc5:	e8 8b f8 fe ff       	callq  c455 <safe_div_func_int16_t_s_s>
   1cbca:	ba 01 00 00 00       	mov    $0x1,%edx
   1cbcf:	8b 05 b3 bb 00 00    	mov    0xbbb3(%rip),%eax        # 28788 <g_519>
   1cbd5:	21 d0                	and    %edx,%eax
   1cbd7:	89 05 ab bb 00 00    	mov    %eax,0xbbab(%rip)        # 28788 <g_519>
   1cbdd:	48 8b 05 04 fa 00 00 	mov    0xfa04(%rip),%rax        # 2c5e8 <g_100>
   1cbe4:	8b 15 a2 bb 00 00    	mov    0xbba2(%rip),%edx        # 2878c <g_520>
   1cbea:	89 10                	mov    %edx,(%rax)
   1cbec:	48 8b 85 80 fe ff ff 	mov    -0x180(%rbp),%rax
   1cbf3:	48 8b 4d c8          	mov    -0x38(%rbp),%rcx
   1cbf7:	64 48 33 0c 25 28 00 	xor    %fs:0x28,%rcx
   1cbfe:	00 00 
   1cc00:	74 05                	je     1cc07 <func_22+0x5a4>
   1cc02:	e8 69 f4 fe ff       	callq  c070 <__stack_chk_fail@plt>
   1cc07:	48 81 c4 88 01 00 00 	add    $0x188,%rsp
   1cc0e:	5b                   	pop    %rbx
   1cc0f:	41 5c                	pop    %r12
   1cc11:	41 5d                	pop    %r13
   1cc13:	41 5e                	pop    %r14
   1cc15:	41 5f                	pop    %r15
   1cc17:	5d                   	pop    %rbp
   1cc18:	c3                   	retq   

000000000001cc19 <func_29>:
   1cc19:	f3 0f 1e fa          	endbr64 
   1cc1d:	55                   	push   %rbp
   1cc1e:	48 89 e5             	mov    %rsp,%rbp
   1cc21:	41 56                	push   %r14
   1cc23:	41 55                	push   %r13
   1cc25:	41 54                	push   %r12
   1cc27:	53                   	push   %rbx
   1cc28:	48 81 ec 00 10 00 00 	sub    $0x1000,%rsp
   1cc2f:	48 83 0c 24 00       	orq    $0x0,(%rsp)
   1cc34:	48 81 ec e0 02 00 00 	sub    $0x2e0,%rsp
   1cc3b:	89 bd 0c ed ff ff    	mov    %edi,-0x12f4(%rbp)
   1cc41:	64 48 8b 04 25 28 00 	mov    %fs:0x28,%rax
   1cc48:	00 00 
   1cc4a:	48 89 45 d8          	mov    %rax,-0x28(%rbp)
   1cc4e:	31 c0                	xor    %eax,%eax
   1cc50:	48 c7 85 70 ef ff ff 	movq   $0x0,-0x1090(%rbp)
   1cc57:	00 00 00 00 
   1cc5b:	48 8d 05 76 b8 00 00 	lea    0xb876(%rip),%rax        # 284d8 <g_130>
   1cc62:	48 89 85 78 ef ff ff 	mov    %rax,-0x1088(%rbp)
   1cc69:	48 c7 85 80 ef ff ff 	movq   $0x0,-0x1080(%rbp)
   1cc70:	00 00 00 00 
   1cc74:	48 c7 85 88 ef ff ff 	movq   $0x0,-0x1078(%rbp)
   1cc7b:	00 00 00 00 
   1cc7f:	48 8d 05 52 b8 00 00 	lea    0xb852(%rip),%rax        # 284d8 <g_130>
   1cc86:	48 89 85 90 ef ff ff 	mov    %rax,-0x1070(%rbp)
   1cc8d:	48 c7 85 98 ef ff ff 	movq   $0x0,-0x1068(%rbp)
   1cc94:	00 00 00 00 
   1cc98:	48 c7 85 a0 ef ff ff 	movq   $0x0,-0x1060(%rbp)
   1cc9f:	00 00 00 00 
   1cca3:	48 8d 05 2e b8 00 00 	lea    0xb82e(%rip),%rax        # 284d8 <g_130>
   1ccaa:	48 89 85 a8 ef ff ff 	mov    %rax,-0x1058(%rbp)
   1ccb1:	48 8d 85 70 ef ff ff 	lea    -0x1090(%rbp),%rax
   1ccb8:	48 83 c0 28          	add    $0x28,%rax
   1ccbc:	48 89 85 90 ed ff ff 	mov    %rax,-0x1270(%rbp)
   1ccc3:	48 8d 85 90 ed ff ff 	lea    -0x1270(%rbp),%rax
   1ccca:	48 89 85 98 ed ff ff 	mov    %rax,-0x1268(%rbp)
   1ccd1:	48 8d 85 98 ed ff ff 	lea    -0x1268(%rbp),%rax
   1ccd8:	48 89 85 b0 ed ff ff 	mov    %rax,-0x1250(%rbp)
   1ccdf:	c7 85 2c ed ff ff d4 	movl   $0x1813aad4,-0x12d4(%rbp)
   1cce6:	aa 13 18 
   1cce9:	48 b8 cc 8d ee 07 32 	movabs $0x6a9f363207ee8dcc,%rax
   1ccf0:	36 9f 6a 
   1ccf3:	48 89 85 b8 ed ff ff 	mov    %rax,-0x1248(%rbp)
   1ccfa:	48 c7 85 b0 ee ff ff 	movq   $0xfffffffffffffff6,-0x1150(%rbp)
   1cd01:	f6 ff ff ff 
   1cd05:	48 c7 85 b8 ee ff ff 	movq   $0xfffffffffffffff6,-0x1148(%rbp)
   1cd0c:	f6 ff ff ff 
   1cd10:	48 c7 85 c0 ee ff ff 	movq   $0xfffffffffffffff6,-0x1140(%rbp)
   1cd17:	f6 ff ff ff 
   1cd1b:	48 c7 85 c8 ee ff ff 	movq   $0xfffffffffffffff6,-0x1138(%rbp)
   1cd22:	f6 ff ff ff 
   1cd26:	48 8d 05 9f b3 00 00 	lea    0xb39f(%rip),%rax        # 280cc <g_71>
   1cd2d:	48 89 85 c0 ed ff ff 	mov    %rax,-0x1240(%rbp)
   1cd34:	66 c7 85 1c ed ff ff 	movw   $0xcd02,-0x12e4(%rbp)
   1cd3b:	02 cd 
   1cd3d:	c7 85 30 ed ff ff 00 	movl   $0x0,-0x12d0(%rbp)
   1cd44:	00 00 00 
   1cd47:	eb 1e                	jmp    1cd67 <func_29+0x14e>
   1cd49:	8b 85 30 ed ff ff    	mov    -0x12d0(%rbp),%eax
   1cd4f:	48 98                	cltq   
   1cd51:	48 8d 15 d8 f8 00 00 	lea    0xf8d8(%rip),%rdx        # 2c630 <g_417>
   1cd58:	48 89 94 c5 d0 ee ff 	mov    %rdx,-0x1130(%rbp,%rax,8)
   1cd5f:	ff 
   1cd60:	83 85 30 ed ff ff 01 	addl   $0x1,-0x12d0(%rbp)
   1cd67:	83 bd 30 ed ff ff 04 	cmpl   $0x4,-0x12d0(%rbp)
   1cd6e:	7e d9                	jle    1cd49 <func_29+0x130>
   1cd70:	c7 85 30 ed ff ff 00 	movl   $0x0,-0x12d0(%rbp)
   1cd77:	00 00 00 
   1cd7a:	eb 1a                	jmp    1cd96 <func_29+0x17d>
   1cd7c:	8b 85 30 ed ff ff    	mov    -0x12d0(%rbp),%eax
   1cd82:	48 98                	cltq   
   1cd84:	c7 84 85 84 ee ff ff 	movl   $0x79ac501f,-0x117c(%rbp,%rax,4)
   1cd8b:	1f 50 ac 79 
   1cd8f:	83 85 30 ed ff ff 01 	addl   $0x1,-0x12d0(%rbp)
   1cd96:	83 bd 30 ed ff ff 00 	cmpl   $0x0,-0x12d0(%rbp)
   1cd9d:	7e dd                	jle    1cd7c <func_29+0x163>
   1cd9f:	90                   	nop
   1cda0:	48 8b 95 98 ed ff ff 	mov    -0x1268(%rbp),%rdx
   1cda7:	48 8b 85 b0 ed ff ff 	mov    -0x1250(%rbp),%rax
   1cdae:	48 89 10             	mov    %rdx,(%rax)
   1cdb1:	c7 05 3d b7 00 00 00 	movl   $0x0,0xb73d(%rip)        # 284f8 <g_146+0x18>
   1cdb8:	00 00 00 
   1cdbb:	e9 6f 10 00 00       	jmpq   1de2f <func_29+0x1216>
   1cdc0:	c7 85 34 ed ff ff 04 	movl   $0x4,-0x12cc(%rbp)
   1cdc7:	00 00 00 
   1cdca:	c7 85 20 ed ff ff fc 	movl   $0xfffffffc,-0x12e0(%rbp)
   1cdd1:	ff ff ff 
   1cdd4:	c7 85 24 ed ff ff 01 	movl   $0x1,-0x12dc(%rbp)
   1cddb:	00 00 00 
   1cdde:	48 c7 85 c8 ed ff ff 	movq   $0x8,-0x1238(%rbp)
   1cde5:	08 00 00 00 
   1cde9:	48 c7 85 d0 ed ff ff 	movq   $0x0,-0x1230(%rbp)
   1cdf0:	00 00 00 00 
   1cdf4:	48 8d 85 d0 f0 ff ff 	lea    -0xf30(%rbp),%rax
   1cdfb:	48 8d 15 5e df 00 00 	lea    0xdf5e(%rip),%rdx        # 2ad60 <g_2631+0x2338>
   1ce02:	b9 f0 00 00 00       	mov    $0xf0,%ecx
   1ce07:	48 89 c7             	mov    %rax,%rdi
   1ce0a:	48 89 d6             	mov    %rdx,%rsi
   1ce0d:	f3 48 a5             	rep movsq %ds:(%rsi),%es:(%rdi)
   1ce10:	48 8d 85 d0 f0 ff ff 	lea    -0xf30(%rbp),%rax
   1ce17:	48 05 c8 01 00 00    	add    $0x1c8,%rax
   1ce1d:	48 89 85 a0 ed ff ff 	mov    %rax,-0x1260(%rbp)
   1ce24:	48 8d 85 a0 ed ff ff 	lea    -0x1260(%rbp),%rax
   1ce2b:	48 89 85 d8 ed ff ff 	mov    %rax,-0x1228(%rbp)
   1ce32:	c7 85 40 ed ff ff 2c 	movl   $0xb3d75d2c,-0x12c0(%rbp)
   1ce39:	5d d7 b3 
   1ce3c:	c7 85 00 ef ff ff 01 	movl   $0x1,-0x1100(%rbp)
   1ce43:	00 00 00 
   1ce46:	c7 85 04 ef ff ff 01 	movl   $0x1,-0x10fc(%rbp)
   1ce4d:	00 00 00 
   1ce50:	c7 85 08 ef ff ff 77 	movl   $0xb1a51a77,-0x10f8(%rbp)
   1ce57:	1a a5 b1 
   1ce5a:	c7 85 0c ef ff ff ff 	movl   $0xffffffff,-0x10f4(%rbp)
   1ce61:	ff ff ff 
   1ce64:	c7 85 10 ef ff ff 77 	movl   $0xb1a51a77,-0x10f0(%rbp)
   1ce6b:	1a a5 b1 
   1ce6e:	c7 85 14 ef ff ff 01 	movl   $0x1,-0x10ec(%rbp)
   1ce75:	00 00 00 
   1ce78:	c7 85 18 ef ff ff 01 	movl   $0x1,-0x10e8(%rbp)
   1ce7f:	00 00 00 
   1ce82:	c7 85 1c ef ff ff 77 	movl   $0xb1a51a77,-0x10e4(%rbp)
   1ce89:	1a a5 b1 
   1ce8c:	c7 85 20 ef ff ff ff 	movl   $0xffffffff,-0x10e0(%rbp)
   1ce93:	ff ff ff 
   1ce96:	c7 85 24 ef ff ff 77 	movl   $0xb1a51a77,-0x10dc(%rbp)
   1ce9d:	1a a5 b1 
   1cea0:	48 8d 85 50 f8 ff ff 	lea    -0x7b0(%rbp),%rax
   1cea7:	48 8d 15 32 e6 00 00 	lea    0xe632(%rip),%rdx        # 2b4e0 <g_2631+0x2ab8>
   1ceae:	b9 f0 00 00 00       	mov    $0xf0,%ecx
   1ceb3:	48 89 c7             	mov    %rax,%rdi
   1ceb6:	48 89 d6             	mov    %rdx,%rsi
   1ceb9:	f3 48 a5             	rep movsq %ds:(%rsi),%es:(%rdi)
   1cebc:	c7 05 06 b2 00 00 06 	movl   $0x6,0xb206(%rip)        # 280cc <g_71>
   1cec3:	00 00 00 
   1cec6:	e9 19 0f 00 00       	jmpq   1dde4 <func_29+0x11cb>
   1cecb:	48 8d 05 fa b1 00 00 	lea    0xb1fa(%rip),%rax        # 280cc <g_71>
   1ced2:	48 89 85 b0 ef ff ff 	mov    %rax,-0x1050(%rbp)
   1ced9:	48 8d 05 ec b1 00 00 	lea    0xb1ec(%rip),%rax        # 280cc <g_71>
   1cee0:	48 89 85 b8 ef ff ff 	mov    %rax,-0x1048(%rbp)
   1cee7:	48 8d 05 de b1 00 00 	lea    0xb1de(%rip),%rax        # 280cc <g_71>
   1ceee:	48 89 85 c0 ef ff ff 	mov    %rax,-0x1040(%rbp)
   1cef5:	48 8d 05 d0 b1 00 00 	lea    0xb1d0(%rip),%rax        # 280cc <g_71>
   1cefc:	48 89 85 c8 ef ff ff 	mov    %rax,-0x1038(%rbp)
   1cf03:	48 8d 05 c2 b1 00 00 	lea    0xb1c2(%rip),%rax        # 280cc <g_71>
   1cf0a:	48 89 85 d0 ef ff ff 	mov    %rax,-0x1030(%rbp)
   1cf11:	48 8d 05 b4 b1 00 00 	lea    0xb1b4(%rip),%rax        # 280cc <g_71>
   1cf18:	48 89 85 d8 ef ff ff 	mov    %rax,-0x1028(%rbp)
   1cf1f:	48 8d 05 a6 b1 00 00 	lea    0xb1a6(%rip),%rax        # 280cc <g_71>
   1cf26:	48 89 85 e0 ef ff ff 	mov    %rax,-0x1020(%rbp)
   1cf2d:	48 8d 05 98 b1 00 00 	lea    0xb198(%rip),%rax        # 280cc <g_71>
   1cf34:	48 89 85 e8 ef ff ff 	mov    %rax,-0x1018(%rbp)
   1cf3b:	48 8d 05 8a b1 00 00 	lea    0xb18a(%rip),%rax        # 280cc <g_71>
   1cf42:	48 89 85 f0 ef ff ff 	mov    %rax,-0x1010(%rbp)
   1cf49:	48 8d 05 7c b1 00 00 	lea    0xb17c(%rip),%rax        # 280cc <g_71>
   1cf50:	48 89 85 f8 ef ff ff 	mov    %rax,-0x1008(%rbp)
   1cf57:	c7 85 44 ed ff ff 6d 	movl   $0xb74dec6d,-0x12bc(%rbp)
   1cf5e:	ec 4d b7 
   1cf61:	c7 85 48 ed ff ff 93 	movl   $0x2dcee593,-0x12b8(%rbp)
   1cf68:	e5 ce 2d 
   1cf6b:	c6 85 18 ed ff ff fe 	movb   $0xfe,-0x12e8(%rbp)
   1cf72:	8b 05 cc 7b 00 00    	mov    0x7bcc(%rip),%eax        # 24b44 <l_298.5490+0x4>
   1cf78:	85 c0                	test   %eax,%eax
   1cf7a:	0f 84 22 06 00 00    	je     1d5a2 <func_29+0x989>
   1cf80:	c7 85 28 ed ff ff fa 	movl   $0xfffffffa,-0x12d8(%rbp)
   1cf87:	ff ff ff 
   1cf8a:	c7 85 a8 ed ff ff 1a 	movl   $0x6b5af01a,-0x1258(%rbp)
   1cf91:	f0 5a 6b 
   1cf94:	48 8d 05 5d f6 00 00 	lea    0xf65d(%rip),%rax        # 2c5f8 <g_279>
   1cf9b:	48 89 85 38 ee ff ff 	mov    %rax,-0x11c8(%rbp)
   1cfa2:	48 8d 85 a8 ed ff ff 	lea    -0x1258(%rbp),%rax
   1cfa9:	48 89 85 40 ee ff ff 	mov    %rax,-0x11c0(%rbp)
   1cfb0:	66 c7 05 4b b5 00 00 	movw   $0x0,0xb54b(%rip)        # 28504 <g_146+0x24>
   1cfb7:	00 00 
   1cfb9:	e9 bd 00 00 00       	jmpq   1d07b <func_29+0x462>
   1cfbe:	c7 85 8c ed ff ff 90 	movl   $0xee314a90,-0x1274(%rbp)
   1cfc5:	4a 31 ee 
   1cfc8:	48 c7 85 78 ee ff ff 	movq   $0x0,-0x1188(%rbp)
   1cfcf:	00 00 00 00 
   1cfd3:	c7 85 38 ed ff ff 00 	movl   $0x0,-0x12c8(%rbp)
   1cfda:	00 00 00 
   1cfdd:	eb 1a                	jmp    1cff9 <func_29+0x3e0>
   1cfdf:	8b 85 38 ed ff ff    	mov    -0x12c8(%rbp),%eax
   1cfe5:	48 98                	cltq   
   1cfe7:	c7 84 85 30 ef ff ff 	movl   $0xfffffffc,-0x10d0(%rbp,%rax,4)
   1cfee:	fc ff ff ff 
   1cff2:	83 85 38 ed ff ff 01 	addl   $0x1,-0x12c8(%rbp)
   1cff9:	83 bd 38 ed ff ff 02 	cmpl   $0x2,-0x12c8(%rbp)
   1d000:	7e dd                	jle    1cfdf <func_29+0x3c6>
   1d002:	c7 85 38 ed ff ff 00 	movl   $0x0,-0x12c8(%rbp)
   1d009:	00 00 00 
   1d00c:	eb 22                	jmp    1d030 <func_29+0x417>
   1d00e:	8b 85 38 ed ff ff    	mov    -0x12c8(%rbp),%eax
   1d014:	48 98                	cltq   
   1d016:	48 8d 95 b0 ef ff ff 	lea    -0x1050(%rbp),%rdx
   1d01d:	48 83 c2 40          	add    $0x40,%rdx
   1d021:	48 89 94 c5 00 f0 ff 	mov    %rdx,-0x1000(%rbp,%rax,8)
   1d028:	ff 
   1d029:	83 85 38 ed ff ff 01 	addl   $0x1,-0x12c8(%rbp)
   1d030:	83 bd 38 ed ff ff 04 	cmpl   $0x4,-0x12c8(%rbp)
   1d037:	7e d5                	jle    1d00e <func_29+0x3f5>
   1d039:	8b 85 8c ed ff ff    	mov    -0x1274(%rbp),%eax
   1d03f:	21 85 34 ed ff ff    	and    %eax,-0x12cc(%rbp)
   1d045:	8b 95 30 ef ff ff    	mov    -0x10d0(%rbp),%edx
   1d04b:	8b 05 f3 7a 00 00    	mov    0x7af3(%rip),%eax        # 24b44 <l_298.5490+0x4>
   1d051:	31 d0                	xor    %edx,%eax
   1d053:	89 85 30 ef ff ff    	mov    %eax,-0x10d0(%rbp)
   1d059:	48 8b 05 c0 f5 00 00 	mov    0xf5c0(%rip),%rax        # 2c620 <g_287>
   1d060:	48 8b 95 c8 ef ff ff 	mov    -0x1038(%rbp),%rdx
   1d067:	48 89 10             	mov    %rdx,(%rax)
   1d06a:	0f b7 05 93 b4 00 00 	movzwl 0xb493(%rip),%eax        # 28504 <g_146+0x24>
   1d071:	83 c0 01             	add    $0x1,%eax
   1d074:	66 89 05 89 b4 00 00 	mov    %ax,0xb489(%rip)        # 28504 <g_146+0x24>
   1d07b:	0f b7 05 82 b4 00 00 	movzwl 0xb482(%rip),%eax        # 28504 <g_146+0x24>
   1d082:	66 83 f8 14          	cmp    $0x14,%ax
   1d086:	0f 85 32 ff ff ff    	jne    1cfbe <func_29+0x3a5>
   1d08c:	83 bd 0c ed ff ff 00 	cmpl   $0x0,-0x12f4(%rbp)
   1d093:	0f 85 26 0d 00 00    	jne    1ddbf <func_29+0x11a6>
   1d099:	0f b7 05 64 b4 00 00 	movzwl 0xb464(%rip),%eax        # 28504 <g_146+0x24>
   1d0a0:	0f b7 c0             	movzwl %ax,%eax
   1d0a3:	48 c7 c6 ff ff ff ff 	mov    $0xffffffffffffffff,%rsi
   1d0aa:	48 89 c7             	mov    %rax,%rdi
   1d0ad:	e8 02 f9 fe ff       	callq  c9b4 <safe_mod_func_int64_t_s_s>
   1d0b2:	48 85 c0             	test   %rax,%rax
   1d0b5:	0f 84 db 02 00 00    	je     1d396 <func_29+0x77d>
   1d0bb:	c7 85 7c ed ff ff 01 	movl   $0x1,-0x1284(%rbp)
   1d0c2:	00 00 00 
   1d0c5:	c7 85 80 ed ff ff 2a 	movl   $0x3fe3992a,-0x1280(%rbp)
   1d0cc:	99 e3 3f 
   1d0cf:	c7 85 84 ed ff ff 01 	movl   $0x1,-0x127c(%rbp)
   1d0d6:	00 00 00 
   1d0d9:	48 b8 e8 6d 47 84 31 	movabs $0xce3e4d3184476de8,%rax
   1d0e0:	4d 3e ce 
   1d0e3:	48 89 85 60 ee ff ff 	mov    %rax,-0x11a0(%rbp)
   1d0ea:	48 8d 85 70 ef ff ff 	lea    -0x1090(%rbp),%rax
   1d0f1:	48 83 c0 28          	add    $0x28,%rax
   1d0f5:	48 89 85 68 ee ff ff 	mov    %rax,-0x1198(%rbp)
   1d0fc:	8b 85 28 ed ff ff    	mov    -0x12d8(%rbp),%eax
   1d102:	83 e8 01             	sub    $0x1,%eax
   1d105:	89 85 28 ed ff ff    	mov    %eax,-0x12d8(%rbp)
   1d10b:	48 83 85 c8 ed ff ff 	addq   $0x1,-0x1238(%rbp)
   1d112:	01 
   1d113:	48 83 bd 60 ee ff ff 	cmpq   $0x0,-0x11a0(%rbp)
   1d11a:	00 
   1d11b:	0f 84 5c 02 00 00    	je     1d37d <func_29+0x764>
   1d121:	48 8d 05 e1 b3 00 00 	lea    0xb3e1(%rip),%rax        # 28509 <g_289>
   1d128:	48 89 85 70 ee ff ff 	mov    %rax,-0x1190(%rbp)
   1d12f:	c7 85 88 ed ff ff c2 	movl   $0x7be64dc2,-0x1278(%rbp)
   1d136:	4d e6 7b 
   1d139:	48 c7 85 00 f0 ff ff 	movq   $0x0,-0x1000(%rbp)
   1d140:	00 00 00 00 
   1d144:	48 c7 85 08 f0 ff ff 	movq   $0x0,-0xff8(%rbp)
   1d14b:	00 00 00 00 
   1d14f:	48 c7 85 10 f0 ff ff 	movq   $0x0,-0xff0(%rbp)
   1d156:	00 00 00 00 
   1d15a:	48 c7 85 18 f0 ff ff 	movq   $0x0,-0xfe8(%rbp)
   1d161:	00 00 00 00 
   1d165:	48 c7 85 20 f0 ff ff 	movq   $0x0,-0xfe0(%rbp)
   1d16c:	00 00 00 00 
   1d170:	66 c7 85 1e ed ff ff 	movw   $0xffff,-0x12e2(%rbp)
   1d177:	ff ff 
   1d179:	48 8b 05 60 f4 00 00 	mov    0xf460(%rip),%rax        # 2c5e0 <g_66>
   1d180:	48 8b 05 59 f4 00 00 	mov    0xf459(%rip),%rax        # 2c5e0 <g_66>
   1d187:	8b 85 0c ed ff ff    	mov    -0x12f4(%rbp),%eax
   1d18d:	0f be c0             	movsbl %al,%eax
   1d190:	89 c6                	mov    %eax,%esi
   1d192:	bf 9c ff ff ff       	mov    $0xffffff9c,%edi
   1d197:	e8 95 f0 fe ff       	callq  c231 <safe_mod_func_int8_t_s_s>
   1d19c:	0f be c0             	movsbl %al,%eax
   1d19f:	be 11 00 00 00       	mov    $0x11,%esi
   1d1a4:	89 c7                	mov    %eax,%edi
   1d1a6:	e8 29 f0 fe ff       	callq  c1d4 <safe_add_func_int8_t_s_s>
   1d1ab:	0f be c0             	movsbl %al,%eax
   1d1ae:	31 85 2c ed ff ff    	xor    %eax,-0x12d4(%rbp)
   1d1b4:	8b 85 2c ed ff ff    	mov    -0x12d4(%rbp),%eax
   1d1ba:	0f be d0             	movsbl %al,%edx
   1d1bd:	0f b6 05 bc ae 00 00 	movzbl 0xaebc(%rip),%eax        # 28080 <g_38>
   1d1c4:	0f be c0             	movsbl %al,%eax
   1d1c7:	89 d6                	mov    %edx,%esi
   1d1c9:	89 c7                	mov    %eax,%edi
   1d1cb:	e8 42 f0 fe ff       	callq  c212 <safe_mul_func_int8_t_s_s>
   1d1d0:	48 83 bd d0 ed ff ff 	cmpq   $0x0,-0x1230(%rbp)
   1d1d7:	00 
   1d1d8:	0f 95 c0             	setne  %al
   1d1db:	0f b6 d8             	movzbl %al,%ebx
   1d1de:	8b 85 0c ed ff ff    	mov    -0x12f4(%rbp),%eax
   1d1e4:	0f b7 c0             	movzwl %ax,%eax
   1d1e7:	be 04 00 00 00       	mov    $0x4,%esi
   1d1ec:	89 c7                	mov    %eax,%edi
   1d1ee:	e8 87 fc fe ff       	callq  ce7a <safe_rshift_func_uint16_t_u_u>
   1d1f3:	0f b7 c8             	movzwl %ax,%ecx
   1d1f6:	48 8b 85 b0 ed ff ff 	mov    -0x1250(%rbp),%rax
   1d1fd:	48 8b 00             	mov    (%rax),%rax
   1d200:	48 8b 95 68 ee ff ff 	mov    -0x1198(%rbp),%rdx
   1d207:	48 89 10             	mov    %rdx,(%rax)
   1d20a:	48 8b 00             	mov    (%rax),%rax
   1d20d:	48 85 c0             	test   %rax,%rax
   1d210:	0f 95 c0             	setne  %al
   1d213:	0f b6 c0             	movzbl %al,%eax
   1d216:	31 c1                	xor    %eax,%ecx
   1d218:	89 ca                	mov    %ecx,%edx
   1d21a:	48 8b 85 70 ee ff ff 	mov    -0x1190(%rbp),%rax
   1d221:	0f b6 00             	movzbl (%rax),%eax
   1d224:	89 d9                	mov    %ebx,%ecx
   1d226:	31 c1                	xor    %eax,%ecx
   1d228:	48 8b 85 70 ee ff ff 	mov    -0x1190(%rbp),%rax
   1d22f:	88 08                	mov    %cl,(%rax)
   1d231:	48 8b 85 70 ee ff ff 	mov    -0x1190(%rbp),%rax
   1d238:	0f b6 00             	movzbl (%rax),%eax
   1d23b:	0f be c0             	movsbl %al,%eax
   1d23e:	39 c2                	cmp    %eax,%edx
   1d240:	7f 09                	jg     1d24b <func_29+0x632>
   1d242:	83 bd 88 ed ff ff 00 	cmpl   $0x0,-0x1278(%rbp)
   1d249:	74 07                	je     1d252 <func_29+0x639>
   1d24b:	b8 01 00 00 00       	mov    $0x1,%eax
   1d250:	eb 05                	jmp    1d257 <func_29+0x63e>
   1d252:	b8 00 00 00 00       	mov    $0x0,%eax
   1d257:	0f b6 c0             	movzbl %al,%eax
   1d25a:	25 a4 00 00 00       	and    $0xa4,%eax
   1d25f:	be 05 00 00 00       	mov    $0x5,%esi
   1d264:	89 c7                	mov    %eax,%edi
   1d266:	e8 53 fa fe ff       	callq  ccbe <safe_rshift_func_uint8_t_u_u>
   1d26b:	8b 85 80 ed ff ff    	mov    -0x1280(%rbp),%eax
   1d271:	3d f9 00 00 00       	cmp    $0xf9,%eax
   1d276:	0f 96 c0             	setbe  %al
   1d279:	0f b6 c0             	movzbl %al,%eax
   1d27c:	39 85 0c ed ff ff    	cmp    %eax,-0x12f4(%rbp)
   1d282:	0f 9c c0             	setl   %al
   1d285:	0f b6 c0             	movzbl %al,%eax
   1d288:	89 85 7c ed ff ff    	mov    %eax,-0x1284(%rbp)
   1d28e:	8b 85 34 ed ff ff    	mov    -0x12cc(%rbp),%eax
   1d294:	0f be d8             	movsbl %al,%ebx
   1d297:	48 8b 05 c2 ad 00 00 	mov    0xadc2(%rip),%rax        # 28060 <g_18+0x20>
   1d29e:	44 0f bf e0          	movswl %ax,%r12d
   1d2a2:	8b 85 24 ed ff ff    	mov    -0x12dc(%rbp),%eax
   1d2a8:	44 0f be e8          	movsbl %al,%r13d
   1d2ac:	0f b7 05 51 b2 00 00 	movzwl 0xb251(%rip),%eax        # 28504 <g_146+0x24>
   1d2b3:	44 0f b6 f0          	movzbl %al,%r14d
   1d2b7:	48 8b 05 0a b2 00 00 	mov    0xb20a(%rip),%rax        # 284c8 <g_111>
   1d2be:	c1 e0 03             	shl    $0x3,%eax
   1d2c1:	c0 f8 03             	sar    $0x3,%al
   1d2c4:	0f be d0             	movsbl %al,%edx
   1d2c7:	8b 85 0c ed ff ff    	mov    -0x12f4(%rbp),%eax
   1d2cd:	98                   	cwtl   
   1d2ce:	89 d6                	mov    %edx,%esi
   1d2d0:	89 c7                	mov    %eax,%edi
   1d2d2:	e8 1e f1 fe ff       	callq  c3f5 <safe_mul_func_int16_t_s_s>
   1d2d7:	66 89 85 1e ed ff ff 	mov    %ax,-0x12e2(%rbp)
   1d2de:	0f b7 85 1e ed ff ff 	movzwl -0x12e2(%rbp),%eax
   1d2e5:	0f b6 c0             	movzbl %al,%eax
   1d2e8:	44 89 f6             	mov    %r14d,%esi
   1d2eb:	89 c7                	mov    %eax,%edi
   1d2ed:	e8 e9 f8 fe ff       	callq  cbdb <safe_div_func_uint8_t_u_u>
   1d2f2:	89 c2                	mov    %eax,%edx
   1d2f4:	48 8b 85 70 ee ff ff 	mov    -0x1190(%rbp),%rax
   1d2fb:	88 10                	mov    %dl,(%rax)
   1d2fd:	48 8b 85 70 ee ff ff 	mov    -0x1190(%rbp),%rax
   1d304:	0f b6 00             	movzbl (%rax),%eax
   1d307:	0f be c0             	movsbl %al,%eax
   1d30a:	44 89 ee             	mov    %r13d,%esi
   1d30d:	89 c7                	mov    %eax,%edi
   1d30f:	e8 56 ef fe ff       	callq  c26a <safe_div_func_int8_t_s_s>
   1d314:	3c fb                	cmp    $0xfb,%al
   1d316:	7c 07                	jl     1d31f <func_29+0x706>
   1d318:	83 bd 0c ed ff ff 00 	cmpl   $0x0,-0x12f4(%rbp)
   1d31f:	66 c7 05 de b1 00 00 	movw   $0x1,0xb1de(%rip)        # 28506 <g_171>
   1d326:	01 00 
   1d328:	0f b7 05 d7 b1 00 00 	movzwl 0xb1d7(%rip),%eax        # 28506 <g_171>
   1d32f:	98                   	cwtl   
   1d330:	44 89 e6             	mov    %r12d,%esi
   1d333:	89 c7                	mov    %eax,%edi
   1d335:	e8 99 f0 fe ff       	callq  c3d3 <safe_sub_func_int16_t_s_s>
   1d33a:	0f be c0             	movsbl %al,%eax
   1d33d:	89 de                	mov    %ebx,%esi
   1d33f:	89 c7                	mov    %eax,%edi
   1d341:	e8 ac ee fe ff       	callq  c1f2 <safe_sub_func_int8_t_s_s>
   1d346:	bf 00 00 00 00       	mov    $0x0,%edi
   1d34b:	e8 f5 f7 fe ff       	callq  cb45 <safe_unary_minus_func_uint8_t_u>
   1d350:	84 c0                	test   %al,%al
   1d352:	0f 95 c0             	setne  %al
   1d355:	0f b6 c0             	movzbl %al,%eax
   1d358:	39 85 0c ed ff ff    	cmp    %eax,-0x12f4(%rbp)
   1d35e:	7e 10                	jle    1d370 <func_29+0x757>
   1d360:	83 bd 0c ed ff ff 00 	cmpl   $0x0,-0x12f4(%rbp)
   1d367:	74 07                	je     1d370 <func_29+0x757>
   1d369:	b8 01 00 00 00       	mov    $0x1,%eax
   1d36e:	eb 05                	jmp    1d375 <func_29+0x75c>
   1d370:	b8 00 00 00 00       	mov    $0x0,%eax
   1d375:	09 85 2c ed ff ff    	or     %eax,-0x12d4(%rbp)
   1d37b:	eb 0a                	jmp    1d387 <func_29+0x76e>
   1d37d:	c7 85 7c ed ff ff 22 	movl   $0x71bd6022,-0x1284(%rbp)
   1d384:	60 bd 71 
   1d387:	48 8b 05 62 f2 00 00 	mov    0xf262(%rip),%rax        # 2c5f0 <g_259>
   1d38e:	48 8b 00             	mov    (%rax),%rax
   1d391:	e9 c0 0a 00 00       	jmpq   1de56 <func_29+0x123d>
   1d396:	48 8d 05 8f 00 01 00 	lea    0x1008f(%rip),%rax        # 2d42c <g_59+0xc>
   1d39d:	48 89 85 48 ee ff ff 	mov    %rax,-0x11b8(%rbp)
   1d3a4:	48 8d 85 28 ed ff ff 	lea    -0x12d8(%rbp),%rax
   1d3ab:	48 89 85 50 ee ff ff 	mov    %rax,-0x11b0(%rbp)
   1d3b2:	48 8d 05 4f b1 00 00 	lea    0xb14f(%rip),%rax        # 28508 <g_208>
   1d3b9:	48 89 85 58 ee ff ff 	mov    %rax,-0x11a8(%rbp)
   1d3c0:	48 8b 85 48 ee ff ff 	mov    -0x11b8(%rbp),%rax
   1d3c7:	0f b7 00             	movzwl (%rax),%eax
   1d3ca:	8d 50 01             	lea    0x1(%rax),%edx
   1d3cd:	48 8b 85 48 ee ff ff 	mov    -0x11b8(%rbp),%rax
   1d3d4:	66 89 10             	mov    %dx,(%rax)
   1d3d7:	48 8b 85 48 ee ff ff 	mov    -0x11b8(%rbp),%rax
   1d3de:	0f b7 00             	movzwl (%rax),%eax
   1d3e1:	66 85 c0             	test   %ax,%ax
   1d3e4:	75 6c                	jne    1d452 <func_29+0x839>
   1d3e6:	8b 85 a8 ed ff ff    	mov    -0x1258(%rbp),%eax
   1d3ec:	89 c2                	mov    %eax,%edx
   1d3ee:	48 8b 85 50 ee ff ff 	mov    -0x11b0(%rbp),%rax
   1d3f5:	89 10                	mov    %edx,(%rax)
   1d3f7:	48 8b 85 50 ee ff ff 	mov    -0x11b0(%rbp),%rax
   1d3fe:	8b 00                	mov    (%rax),%eax
   1d400:	85 c0                	test   %eax,%eax
   1d402:	75 09                	jne    1d40d <func_29+0x7f4>
   1d404:	83 bd 0c ed ff ff 00 	cmpl   $0x0,-0x12f4(%rbp)
   1d40b:	74 07                	je     1d414 <func_29+0x7fb>
   1d40d:	ba 01 00 00 00       	mov    $0x1,%edx
   1d412:	eb 05                	jmp    1d419 <func_29+0x800>
   1d414:	ba 00 00 00 00       	mov    $0x0,%edx
   1d419:	48 8b 85 58 ee ff ff 	mov    -0x11a8(%rbp),%rax
   1d420:	0f b6 00             	movzbl (%rax),%eax
   1d423:	89 c1                	mov    %eax,%ecx
   1d425:	89 d0                	mov    %edx,%eax
   1d427:	09 c8                	or     %ecx,%eax
   1d429:	89 c2                	mov    %eax,%edx
   1d42b:	48 8b 85 58 ee ff ff 	mov    -0x11a8(%rbp),%rax
   1d432:	88 10                	mov    %dl,(%rax)
   1d434:	48 8b 85 58 ee ff ff 	mov    -0x11a8(%rbp),%rax
   1d43b:	0f b6 00             	movzbl (%rax),%eax
   1d43e:	0f b6 c0             	movzbl %al,%eax
   1d441:	f7 d0                	not    %eax
   1d443:	89 85 2c ed ff ff    	mov    %eax,-0x12d4(%rbp)
   1d449:	83 bd 2c ed ff ff 00 	cmpl   $0x0,-0x12d4(%rbp)
   1d450:	74 0f                	je     1d461 <func_29+0x848>
   1d452:	48 8b 05 97 f1 00 00 	mov    0xf197(%rip),%rax        # 2c5f0 <g_259>
   1d459:	48 8b 00             	mov    (%rax),%rax
   1d45c:	e9 f5 09 00 00       	jmpq   1de56 <func_29+0x123d>
   1d461:	48 8d 85 b0 ef ff ff 	lea    -0x1050(%rbp),%rax
   1d468:	48 83 c0 18          	add    $0x18,%rax
   1d46c:	48 89 85 00 f0 ff ff 	mov    %rax,-0x1000(%rbp)
   1d473:	48 8d 85 b0 ef ff ff 	lea    -0x1050(%rbp),%rax
   1d47a:	48 83 c0 18          	add    $0x18,%rax
   1d47e:	48 89 85 08 f0 ff ff 	mov    %rax,-0xff8(%rbp)
   1d485:	48 8d 85 b0 ef ff ff 	lea    -0x1050(%rbp),%rax
   1d48c:	48 83 c0 08          	add    $0x8,%rax
   1d490:	48 89 85 10 f0 ff ff 	mov    %rax,-0xff0(%rbp)
   1d497:	48 c7 85 18 f0 ff ff 	movq   $0x0,-0xfe8(%rbp)
   1d49e:	00 00 00 00 
   1d4a2:	48 8d 85 b0 ef ff ff 	lea    -0x1050(%rbp),%rax
   1d4a9:	48 83 c0 18          	add    $0x18,%rax
   1d4ad:	48 89 85 20 f0 ff ff 	mov    %rax,-0xfe0(%rbp)
   1d4b4:	48 8d 05 55 ff 00 00 	lea    0xff55(%rip),%rax        # 2d410 <g_21>
   1d4bb:	48 89 85 28 f0 ff ff 	mov    %rax,-0xfd8(%rbp)
   1d4c2:	48 8d 85 b0 ef ff ff 	lea    -0x1050(%rbp),%rax
   1d4c9:	48 83 c0 18          	add    $0x18,%rax
   1d4cd:	48 89 85 30 f0 ff ff 	mov    %rax,-0xfd0(%rbp)
   1d4d4:	48 8d 85 b0 ef ff ff 	lea    -0x1050(%rbp),%rax
   1d4db:	48 83 c0 08          	add    $0x8,%rax
   1d4df:	48 89 85 38 f0 ff ff 	mov    %rax,-0xfc8(%rbp)
   1d4e6:	48 8d 85 b0 ef ff ff 	lea    -0x1050(%rbp),%rax
   1d4ed:	48 83 c0 18          	add    $0x18,%rax
   1d4f1:	48 89 85 40 f0 ff ff 	mov    %rax,-0xfc0(%rbp)
   1d4f8:	48 8d 85 b0 ef ff ff 	lea    -0x1050(%rbp),%rax
   1d4ff:	48 83 c0 08          	add    $0x8,%rax
   1d503:	48 89 85 48 f0 ff ff 	mov    %rax,-0xfb8(%rbp)
   1d50a:	48 8d 85 b0 ef ff ff 	lea    -0x1050(%rbp),%rax
   1d511:	48 83 c0 08          	add    $0x8,%rax
   1d515:	48 89 85 50 f0 ff ff 	mov    %rax,-0xfb0(%rbp)
   1d51c:	48 8d 85 b0 ef ff ff 	lea    -0x1050(%rbp),%rax
   1d523:	48 83 c0 18          	add    $0x18,%rax
   1d527:	48 89 85 58 f0 ff ff 	mov    %rax,-0xfa8(%rbp)
   1d52e:	8b 85 20 ed ff ff    	mov    -0x12e0(%rbp),%eax
   1d534:	33 85 0c ed ff ff    	xor    -0x12f4(%rbp),%eax
   1d53a:	89 85 20 ed ff ff    	mov    %eax,-0x12e0(%rbp)
   1d540:	48 8d 85 20 ed ff ff 	lea    -0x12e0(%rbp),%rax
   1d547:	48 89 85 40 ee ff ff 	mov    %rax,-0x11c0(%rbp)
   1d54e:	c7 85 28 ed ff ff 01 	movl   $0x1,-0x12d8(%rbp)
   1d555:	00 00 00 
   1d558:	eb 2d                	jmp    1d587 <func_29+0x96e>
   1d55a:	48 8b 85 40 ee ff ff 	mov    -0x11c0(%rbp),%rax
   1d561:	8b 10                	mov    (%rax),%edx
   1d563:	48 8b 85 40 ee ff ff 	mov    -0x11c0(%rbp),%rax
   1d56a:	89 10                	mov    %edx,(%rax)
   1d56c:	8b 85 28 ed ff ff    	mov    -0x12d8(%rbp),%eax
   1d572:	89 c0                	mov    %eax,%eax
   1d574:	be 03 00 00 00       	mov    $0x3,%esi
   1d579:	48 89 c7             	mov    %rax,%rdi
   1d57c:	e8 c0 f2 fe ff       	callq  c841 <safe_add_func_int64_t_s_s>
   1d581:	89 85 28 ed ff ff    	mov    %eax,-0x12d8(%rbp)
   1d587:	8b 85 28 ed ff ff    	mov    -0x12d8(%rbp),%eax
   1d58d:	83 f8 26             	cmp    $0x26,%eax
   1d590:	76 c8                	jbe    1d55a <func_29+0x941>
   1d592:	48 c7 85 40 ee ff ff 	movq   $0x0,-0x11c0(%rbp)
   1d599:	00 00 00 00 
   1d59d:	e9 11 08 00 00       	jmpq   1ddb3 <func_29+0x119a>
   1d5a2:	c6 85 19 ed ff ff 05 	movb   $0x5,-0x12e7(%rbp)
   1d5a9:	c7 85 4c ed ff ff 59 	movl   $0x537a9759,-0x12b4(%rbp)
   1d5b0:	97 7a 53 
   1d5b3:	48 c7 85 e0 ed ff ff 	movq   $0x0,-0x1220(%rbp)
   1d5ba:	00 00 00 00 
   1d5be:	48 8d 05 3f af 00 00 	lea    0xaf3f(%rip),%rax        # 28504 <g_146+0x24>
   1d5c5:	48 89 85 a8 ed ff ff 	mov    %rax,-0x1258(%rbp)
   1d5cc:	48 8d 85 a8 ed ff ff 	lea    -0x1258(%rbp),%rax
   1d5d3:	48 89 85 e8 ed ff ff 	mov    %rax,-0x1218(%rbp)
   1d5da:	c7 85 50 ed ff ff 01 	movl   $0x1,-0x12b0(%rbp)
   1d5e1:	00 00 00 
   1d5e4:	c7 85 54 ed ff ff 00 	movl   $0x0,-0x12ac(%rbp)
   1d5eb:	00 00 00 
   1d5ee:	48 b8 c8 df aa 10 92 	movabs $0xf1e3fe9210aadfc8,%rax
   1d5f5:	fe e3 f1 
   1d5f8:	48 89 85 f0 ed ff ff 	mov    %rax,-0x1210(%rbp)
   1d5ff:	c7 85 58 ed ff ff 02 	movl   $0x2,-0x12a8(%rbp)
   1d606:	00 00 00 
   1d609:	48 c7 85 f8 ed ff ff 	movq   $0x0,-0x1208(%rbp)
   1d610:	00 00 00 00 
   1d614:	c7 85 3c ed ff ff 00 	movl   $0x0,-0x12c4(%rbp)
   1d61b:	00 00 00 
   1d61e:	eb 21                	jmp    1d641 <func_29+0xa28>
   1d620:	8b 85 3c ed ff ff    	mov    -0x12c4(%rbp),%eax
   1d626:	48 98                	cltq   
   1d628:	48 bb 75 38 48 8c 58 	movabs $0xcaa2f1588c483875,%rbx
   1d62f:	f1 a2 ca 
   1d632:	48 89 9c c5 30 ef ff 	mov    %rbx,-0x10d0(%rbp,%rax,8)
   1d639:	ff 
   1d63a:	83 85 3c ed ff ff 01 	addl   $0x1,-0x12c4(%rbp)
   1d641:	83 bd 3c ed ff ff 06 	cmpl   $0x6,-0x12c4(%rbp)
   1d648:	7e d6                	jle    1d620 <func_29+0xa07>
   1d64a:	c7 85 3c ed ff ff 00 	movl   $0x0,-0x12c4(%rbp)
   1d651:	00 00 00 
   1d654:	eb 1a                	jmp    1d670 <func_29+0xa57>
   1d656:	8b 85 3c ed ff ff    	mov    -0x12c4(%rbp),%eax
   1d65c:	48 98                	cltq   
   1d65e:	c7 84 85 90 ee ff ff 	movl   $0x8,-0x1170(%rbp,%rax,4)
   1d665:	08 00 00 00 
   1d669:	83 85 3c ed ff ff 01 	addl   $0x1,-0x12c4(%rbp)
   1d670:	83 bd 3c ed ff ff 06 	cmpl   $0x6,-0x12c4(%rbp)
   1d677:	7e dd                	jle    1d656 <func_29+0xa3d>
   1d679:	c7 85 3c ed ff ff 00 	movl   $0x0,-0x12c4(%rbp)
   1d680:	00 00 00 
   1d683:	eb 21                	jmp    1d6a6 <func_29+0xa8d>
   1d685:	8b 85 3c ed ff ff    	mov    -0x12c4(%rbp),%eax
   1d68b:	48 98                	cltq   
   1d68d:	48 bb 0c 61 96 97 40 	movabs $0xd4cf02409796610c,%rbx
   1d694:	02 cf d4 
   1d697:	48 89 9c c5 88 ee ff 	mov    %rbx,-0x1178(%rbp,%rax,8)
   1d69e:	ff 
   1d69f:	83 85 3c ed ff ff 01 	addl   $0x1,-0x12c4(%rbp)
   1d6a6:	83 bd 3c ed ff ff 00 	cmpl   $0x0,-0x12c4(%rbp)
   1d6ad:	7e d6                	jle    1d685 <func_29+0xa6c>
   1d6af:	8b 05 ab ae 00 00    	mov    0xaeab(%rip),%eax        # 28560 <g_365+0x40>
   1d6b5:	89 05 95 b0 00 00    	mov    %eax,0xb095(%rip)        # 28750 <g_366>
   1d6bb:	48 c7 05 2a ae 00 00 	movq   $0x0,0xae2a(%rip)        # 284f0 <g_146+0x10>
   1d6c2:	00 00 00 00 
   1d6c6:	e9 1d 01 00 00       	jmpq   1d7e8 <func_29+0xbcf>
   1d6cb:	c6 85 1b ed ff ff 3b 	movb   $0x3b,-0x12e5(%rbp)
   1d6d2:	c7 85 00 f0 ff ff 89 	movl   $0x49e7cf89,-0x1000(%rbp)
   1d6d9:	cf e7 49 
   1d6dc:	c7 85 04 f0 ff ff 69 	movl   $0x85c79e69,-0xffc(%rbp)
   1d6e3:	9e c7 85 
   1d6e6:	c7 85 08 f0 ff ff 89 	movl   $0x49e7cf89,-0xff8(%rbp)
   1d6ed:	cf e7 49 
   1d6f0:	c7 85 0c f0 ff ff 89 	movl   $0x49e7cf89,-0xff4(%rbp)
   1d6f7:	cf e7 49 
   1d6fa:	c7 85 10 f0 ff ff 69 	movl   $0x85c79e69,-0xff0(%rbp)
   1d701:	9e c7 85 
   1d704:	c7 85 14 f0 ff ff 89 	movl   $0x49e7cf89,-0xfec(%rbp)
   1d70b:	cf e7 49 
   1d70e:	c7 85 18 f0 ff ff 89 	movl   $0x49e7cf89,-0xfe8(%rbp)
   1d715:	cf e7 49 
   1d718:	c7 85 1c f0 ff ff 69 	movl   $0x85c79e69,-0xfe4(%rbp)
   1d71f:	9e c7 85 
   1d722:	c7 85 20 f0 ff ff 89 	movl   $0x49e7cf89,-0xfe0(%rbp)
   1d729:	cf e7 49 
   1d72c:	48 8b 05 b5 ee 00 00 	mov    0xeeb5(%rip),%rax        # 2c5e8 <g_100>
   1d733:	8b 15 2f b0 00 00    	mov    0xb02f(%rip),%edx        # 28768 <g_369>
   1d739:	89 10                	mov    %edx,(%rax)
   1d73b:	c7 85 34 ed ff ff 00 	movl   $0x0,-0x12cc(%rbp)
   1d742:	00 00 00 
   1d745:	eb 29                	jmp    1d770 <func_29+0xb57>
   1d747:	48 8d 85 b0 ef ff ff 	lea    -0x1050(%rbp),%rax
   1d74e:	48 89 85 30 ee ff ff 	mov    %rax,-0x11d0(%rbp)
   1d755:	48 8b 05 bc ee 00 00 	mov    0xeebc(%rip),%rax        # 2c618 <g_286>
   1d75c:	48 8b 10             	mov    (%rax),%rdx
   1d75f:	48 8b 85 30 ee ff ff 	mov    -0x11d0(%rbp),%rax
   1d766:	48 89 10             	mov    %rdx,(%rax)
   1d769:	83 85 34 ed ff ff 01 	addl   $0x1,-0x12cc(%rbp)
   1d770:	83 bd 34 ed ff ff 07 	cmpl   $0x7,-0x12cc(%rbp)
   1d777:	76 ce                	jbe    1d747 <func_29+0xb2e>
   1d779:	c7 85 2c ed ff ff ef 	movl   $0xffffffef,-0x12d4(%rbp)
   1d780:	ff ff ff 
   1d783:	eb 36                	jmp    1d7bb <func_29+0xba2>
   1d785:	48 8b 15 94 ee 00 00 	mov    0xee94(%rip),%rdx        # 2c620 <g_287>
   1d78c:	48 8b 05 95 ee 00 00 	mov    0xee95(%rip),%rax        # 2c628 <g_375>
   1d793:	48 8b 12             	mov    (%rdx),%rdx
   1d796:	48 89 10             	mov    %rdx,(%rax)
   1d799:	83 bd 0c ed ff ff 00 	cmpl   $0x0,-0x12f4(%rbp)
   1d7a0:	75 11                	jne    1d7b3 <func_29+0xb9a>
   1d7a2:	48 8b 05 3f ee 00 00 	mov    0xee3f(%rip),%rax        # 2c5e8 <g_100>
   1d7a9:	8b 15 bd af 00 00    	mov    0xafbd(%rip),%edx        # 2876c <g_376>
   1d7af:	89 10                	mov    %edx,(%rax)
   1d7b1:	eb 01                	jmp    1d7b4 <func_29+0xb9b>
   1d7b3:	90                   	nop
   1d7b4:	83 85 2c ed ff ff 01 	addl   $0x1,-0x12d4(%rbp)
   1d7bb:	83 bd 2c ed ff ff fe 	cmpl   $0xfffffffe,-0x12d4(%rbp)
   1d7c2:	75 c1                	jne    1d785 <func_29+0xb6c>
   1d7c4:	48 8b 85 b8 ee ff ff 	mov    -0x1148(%rbp),%rax
   1d7cb:	48 83 c0 01          	add    $0x1,%rax
   1d7cf:	48 89 85 b8 ee ff ff 	mov    %rax,-0x1148(%rbp)
   1d7d6:	48 8b 05 13 ad 00 00 	mov    0xad13(%rip),%rax        # 284f0 <g_146+0x10>
   1d7dd:	48 83 e8 01          	sub    $0x1,%rax
   1d7e1:	48 89 05 08 ad 00 00 	mov    %rax,0xad08(%rip)        # 284f0 <g_146+0x10>
   1d7e8:	48 8b 05 01 ad 00 00 	mov    0xad01(%rip),%rax        # 284f0 <g_146+0x10>
   1d7ef:	48 83 f8 e2          	cmp    $0xffffffffffffffe2,%rax
   1d7f3:	0f 85 d2 fe ff ff    	jne    1d6cb <func_29+0xab2>
   1d7f9:	48 83 bd b8 ed ff ff 	cmpq   $0x0,-0x1248(%rbp)
   1d800:	00 
   1d801:	74 77                	je     1d87a <func_29+0xc61>
   1d803:	48 8d 85 24 ed ff ff 	lea    -0x12dc(%rbp),%rax
   1d80a:	48 89 85 28 ee ff ff 	mov    %rax,-0x11d8(%rbp)
   1d811:	c7 85 24 ed ff ff 00 	movl   $0x0,-0x12dc(%rbp)
   1d818:	00 00 00 
   1d81b:	90                   	nop
   1d81c:	8b 85 24 ed ff ff    	mov    -0x12dc(%rbp),%eax
   1d822:	83 f8 01             	cmp    $0x1,%eax
   1d825:	7f 0f                	jg     1d836 <func_29+0xc1d>
   1d827:	48 8b 05 fa ed 00 00 	mov    0xedfa(%rip),%rax        # 2c628 <g_375>
   1d82e:	48 8b 00             	mov    (%rax),%rax
   1d831:	e9 20 06 00 00       	jmpq   1de56 <func_29+0x123d>
   1d836:	48 8b 05 ab ed 00 00 	mov    0xedab(%rip),%rax        # 2c5e8 <g_100>
   1d83d:	8b 15 2d af 00 00    	mov    0xaf2d(%rip),%edx        # 28770 <g_388>
   1d843:	89 10                	mov    %edx,(%rax)
   1d845:	48 c7 85 c8 ed ff ff 	movq   $0x3,-0x1238(%rbp)
   1d84c:	03 00 00 00 
   1d850:	48 83 bd c8 ed ff ff 	cmpq   $0x8,-0x1238(%rbp)
   1d857:	08 
   1d858:	77 0c                	ja     1d866 <func_29+0xc4d>
   1d85a:	48 8b 85 c0 ed ff ff 	mov    -0x1240(%rbp),%rax
   1d861:	e9 f0 05 00 00       	jmpq   1de56 <func_29+0x123d>
   1d866:	48 8b 05 7b ed 00 00 	mov    0xed7b(%rip),%rax        # 2c5e8 <g_100>
   1d86d:	8b 15 01 af 00 00    	mov    0xaf01(%rip),%edx        # 28774 <g_391>
   1d873:	89 10                	mov    %edx,(%rax)
   1d875:	e9 39 05 00 00       	jmpq   1ddb3 <func_29+0x119a>
   1d87a:	48 8d 05 a3 fb 00 00 	lea    0xfba3(%rip),%rax        # 2d424 <g_59+0x4>
   1d881:	48 89 85 00 ee ff ff 	mov    %rax,-0x1200(%rbp)
   1d888:	c7 85 5c ed ff ff 06 	movl   $0x6,-0x12a4(%rbp)
   1d88f:	00 00 00 
   1d892:	c7 85 60 ed ff ff ff 	movl   $0xffffffff,-0x12a0(%rbp)
   1d899:	ff ff ff 
   1d89c:	c7 85 64 ed ff ff ff 	movl   $0xffffffff,-0x129c(%rbp)
   1d8a3:	ff ff ff 
   1d8a6:	c7 85 68 ed ff ff ff 	movl   $0xffffffff,-0x1298(%rbp)
   1d8ad:	ff ff ff 
   1d8b0:	c7 85 6c ed ff ff ff 	movl   $0xffffffff,-0x1294(%rbp)
   1d8b7:	ff ff ff 
   1d8ba:	c7 85 70 ed ff ff 7a 	movl   $0xdcb467a,-0x1290(%rbp)
   1d8c1:	46 cb 0d 
   1d8c4:	48 8b 05 1d ed 00 00 	mov    0xed1d(%rip),%rax        # 2c5e8 <g_100>
   1d8cb:	8b 15 a7 ae 00 00    	mov    0xaea7(%rip),%edx        # 28778 <g_392>
   1d8d1:	89 10                	mov    %edx,(%rax)
   1d8d3:	48 8b 85 50 ef ff ff 	mov    -0x10b0(%rbp),%rax
   1d8da:	48 85 c0             	test   %rax,%rax
   1d8dd:	0f 85 df 04 00 00    	jne    1ddc2 <func_29+0x11a9>
   1d8e3:	48 8b 85 e0 ed ff ff 	mov    -0x1220(%rbp),%rax
   1d8ea:	48 3b 85 e8 ed ff ff 	cmp    -0x1218(%rbp),%rax
   1d8f1:	0f 95 c0             	setne  %al
   1d8f4:	0f b6 d0             	movzbl %al,%edx
   1d8f7:	48 8b 85 00 ee ff ff 	mov    -0x1200(%rbp),%rax
   1d8fe:	66 89 10             	mov    %dx,(%rax)
   1d901:	48 8b 85 00 ee ff ff 	mov    -0x1200(%rbp),%rax
   1d908:	0f b7 00             	movzwl (%rax),%eax
   1d90b:	0f b7 c0             	movzwl %ax,%eax
   1d90e:	39 85 0c ed ff ff    	cmp    %eax,-0x12f4(%rbp)
   1d914:	0f 9d c0             	setge  %al
   1d917:	0f b6 d0             	movzbl %al,%edx
   1d91a:	48 83 bd d8 ed ff ff 	cmpq   $0x0,-0x1228(%rbp)
   1d921:	00 
   1d922:	0f 95 c0             	setne  %al
   1d925:	0f b6 c0             	movzbl %al,%eax
   1d928:	39 c2                	cmp    %eax,%edx
   1d92a:	0f 8c 58 04 00 00    	jl     1dd88 <func_29+0x116f>
   1d930:	48 8d 05 01 ed 00 00 	lea    0xed01(%rip),%rax        # 2c638 <g_416>
   1d937:	48 89 85 08 ee ff ff 	mov    %rax,-0x11f8(%rbp)
   1d93e:	48 8d 85 d0 ee ff ff 	lea    -0x1130(%rbp),%rax
   1d945:	48 83 c0 10          	add    $0x10,%rax
   1d949:	48 89 85 10 ee ff ff 	mov    %rax,-0x11f0(%rbp)
   1d950:	c7 85 74 ed ff ff 39 	movl   $0xe7fb5f39,-0x128c(%rbp)
   1d957:	5f fb e7 
   1d95a:	48 8d 05 a8 ab 00 00 	lea    0xaba8(%rip),%rax        # 28509 <g_289>
   1d961:	48 89 85 18 ee ff ff 	mov    %rax,-0x11e8(%rbp)
   1d968:	c6 85 1a ed ff ff 35 	movb   $0x35,-0x12e6(%rbp)
   1d96f:	c7 85 78 ed ff ff d5 	movl   $0xdc37d7d5,-0x1288(%rbp)
   1d976:	d7 37 dc 
   1d979:	c7 85 00 f0 ff ff 01 	movl   $0x1,-0x1000(%rbp)
   1d980:	00 00 00 
   1d983:	c7 85 04 f0 ff ff 6f 	movl   $0xfdd9e36f,-0xffc(%rbp)
   1d98a:	e3 d9 fd 
   1d98d:	c7 85 08 f0 ff ff 00 	movl   $0x0,-0xff8(%rbp)
   1d994:	00 00 00 
   1d997:	c7 85 0c f0 ff ff 00 	movl   $0x0,-0xff4(%rbp)
   1d99e:	00 00 00 
   1d9a1:	c7 85 10 f0 ff ff 6f 	movl   $0xfdd9e36f,-0xff0(%rbp)
   1d9a8:	e3 d9 fd 
   1d9ab:	c7 85 14 f0 ff ff 01 	movl   $0x1,-0xfec(%rbp)
   1d9b2:	00 00 00 
   1d9b5:	c7 85 18 f0 ff ff 6f 	movl   $0xfdd9e36f,-0xfe8(%rbp)
   1d9bc:	e3 d9 fd 
   1d9bf:	c7 85 1c f0 ff ff 00 	movl   $0x0,-0xfe4(%rbp)
   1d9c6:	00 00 00 
   1d9c9:	c7 85 20 f0 ff ff 00 	movl   $0x0,-0xfe0(%rbp)
   1d9d0:	00 00 00 
   1d9d3:	c7 85 24 f0 ff ff 6f 	movl   $0xfdd9e36f,-0xfdc(%rbp)
   1d9da:	e3 d9 fd 
   1d9dd:	c7 85 28 f0 ff ff 01 	movl   $0x1,-0xfd8(%rbp)
   1d9e4:	00 00 00 
   1d9e7:	c7 85 2c f0 ff ff 6f 	movl   $0xfdd9e36f,-0xfd4(%rbp)
   1d9ee:	e3 d9 fd 
   1d9f1:	c7 85 30 f0 ff ff 00 	movl   $0x0,-0xfd0(%rbp)
   1d9f8:	00 00 00 
   1d9fb:	c7 85 34 f0 ff ff 00 	movl   $0x0,-0xfcc(%rbp)
   1da02:	00 00 00 
   1da05:	c7 85 38 f0 ff ff 6f 	movl   $0xfdd9e36f,-0xfc8(%rbp)
   1da0c:	e3 d9 fd 
   1da0f:	c7 85 3c f0 ff ff 01 	movl   $0x1,-0xfc4(%rbp)
   1da16:	00 00 00 
   1da19:	c7 85 40 f0 ff ff 6f 	movl   $0xfdd9e36f,-0xfc0(%rbp)
   1da20:	e3 d9 fd 
   1da23:	c7 85 44 f0 ff ff 00 	movl   $0x0,-0xfbc(%rbp)
   1da2a:	00 00 00 
   1da2d:	c7 85 48 f0 ff ff 00 	movl   $0x0,-0xfb8(%rbp)
   1da34:	00 00 00 
   1da37:	c7 85 4c f0 ff ff 6f 	movl   $0xfdd9e36f,-0xfb4(%rbp)
   1da3e:	e3 d9 fd 
   1da41:	c7 85 50 f0 ff ff 01 	movl   $0x1,-0xfb0(%rbp)
   1da48:	00 00 00 
   1da4b:	c7 85 54 f0 ff ff 6f 	movl   $0xfdd9e36f,-0xfac(%rbp)
   1da52:	e3 d9 fd 
   1da55:	c7 85 58 f0 ff ff 00 	movl   $0x0,-0xfa8(%rbp)
   1da5c:	00 00 00 
   1da5f:	c7 85 5c f0 ff ff 00 	movl   $0x0,-0xfa4(%rbp)
   1da66:	00 00 00 
   1da69:	c7 85 60 f0 ff ff 6f 	movl   $0xfdd9e36f,-0xfa0(%rbp)
   1da70:	e3 d9 fd 
   1da73:	c7 85 64 f0 ff ff 01 	movl   $0x1,-0xf9c(%rbp)
   1da7a:	00 00 00 
   1da7d:	c7 85 68 f0 ff ff 6f 	movl   $0xfdd9e36f,-0xf98(%rbp)
   1da84:	e3 d9 fd 
   1da87:	c7 85 6c f0 ff ff 00 	movl   $0x0,-0xf94(%rbp)
   1da8e:	00 00 00 
   1da91:	c7 85 70 f0 ff ff 00 	movl   $0x0,-0xf90(%rbp)
   1da98:	00 00 00 
   1da9b:	c7 85 74 f0 ff ff 6f 	movl   $0xfdd9e36f,-0xf8c(%rbp)
   1daa2:	e3 d9 fd 
   1daa5:	c7 85 78 f0 ff ff 01 	movl   $0x1,-0xf88(%rbp)
   1daac:	00 00 00 
   1daaf:	c7 85 7c f0 ff ff 6f 	movl   $0xfdd9e36f,-0xf84(%rbp)
   1dab6:	e3 d9 fd 
   1dab9:	c7 85 80 f0 ff ff 00 	movl   $0x0,-0xf80(%rbp)
   1dac0:	00 00 00 
   1dac3:	c7 85 84 f0 ff ff 00 	movl   $0x0,-0xf7c(%rbp)
   1daca:	00 00 00 
   1dacd:	c7 85 88 f0 ff ff 6f 	movl   $0xfdd9e36f,-0xf78(%rbp)
   1dad4:	e3 d9 fd 
   1dad7:	c7 85 8c f0 ff ff 01 	movl   $0x1,-0xf74(%rbp)
   1dade:	00 00 00 
   1dae1:	c7 85 90 f0 ff ff 6f 	movl   $0xfdd9e36f,-0xf70(%rbp)
   1dae8:	e3 d9 fd 
   1daeb:	c7 85 94 f0 ff ff 00 	movl   $0x0,-0xf6c(%rbp)
   1daf2:	00 00 00 
   1daf5:	c7 85 98 f0 ff ff 00 	movl   $0x0,-0xf68(%rbp)
   1dafc:	00 00 00 
   1daff:	c7 85 9c f0 ff ff 6f 	movl   $0xfdd9e36f,-0xf64(%rbp)
   1db06:	e3 d9 fd 
   1db09:	c7 85 a0 f0 ff ff 01 	movl   $0x1,-0xf60(%rbp)
   1db10:	00 00 00 
   1db13:	c7 85 a4 f0 ff ff 6f 	movl   $0xfdd9e36f,-0xf5c(%rbp)
   1db1a:	e3 d9 fd 
   1db1d:	c7 85 a8 f0 ff ff 00 	movl   $0x0,-0xf58(%rbp)
   1db24:	00 00 00 
   1db27:	c7 85 ac f0 ff ff 00 	movl   $0x0,-0xf54(%rbp)
   1db2e:	00 00 00 
   1db31:	c7 85 b0 f0 ff ff 6f 	movl   $0xfdd9e36f,-0xf50(%rbp)
   1db38:	e3 d9 fd 
   1db3b:	c7 85 b4 f0 ff ff 01 	movl   $0x1,-0xf4c(%rbp)
   1db42:	00 00 00 
   1db45:	c7 85 b8 f0 ff ff 6f 	movl   $0xfdd9e36f,-0xf48(%rbp)
   1db4c:	e3 d9 fd 
   1db4f:	c7 85 bc f0 ff ff 00 	movl   $0x0,-0xf44(%rbp)
   1db56:	00 00 00 
   1db59:	c7 85 c0 f0 ff ff 00 	movl   $0x0,-0xf40(%rbp)
   1db60:	00 00 00 
   1db63:	c7 85 c4 f0 ff ff 6f 	movl   $0xfdd9e36f,-0xf3c(%rbp)
   1db6a:	e3 d9 fd 
   1db6d:	48 b8 3e 4d 19 a1 bd 	movabs $0x9c07cabda1194d3e,%rax
   1db74:	ca 07 9c 
   1db77:	48 89 85 20 ee ff ff 	mov    %rax,-0x11e0(%rbp)
   1db7e:	0f b7 05 a7 f8 00 00 	movzwl 0xf8a7(%rip),%eax        # 2d42c <g_59+0xc>
   1db85:	0f b7 d8             	movzwl %ax,%ebx
   1db88:	48 8b 05 a1 ea 00 00 	mov    0xeaa1(%rip),%rax        # 2c630 <g_417>
   1db8f:	0f b7 10             	movzwl (%rax),%edx
   1db92:	83 c2 01             	add    $0x1,%edx
   1db95:	66 89 10             	mov    %dx,(%rax)
   1db98:	8b 05 d6 ab 00 00    	mov    0xabd6(%rip),%eax        # 28774 <g_391>
   1db9e:	8b 85 0c ed ff ff    	mov    -0x12f4(%rbp),%eax
   1dba4:	48 98                	cltq   
   1dba6:	48 89 c7             	mov    %rax,%rdi
   1dba9:	e8 6b f4 fe ff       	callq  d019 <safe_unary_minus_func_uint64_t_u>
   1dbae:	8b 85 0c ed ff ff    	mov    -0x12f4(%rbp),%eax
   1dbb4:	0f bf d0             	movswl %ax,%edx
   1dbb7:	48 8b 85 c0 ed ff ff 	mov    -0x1240(%rbp),%rax
   1dbbe:	8b 00                	mov    (%rax),%eax
   1dbc0:	39 85 74 ed ff ff    	cmp    %eax,-0x128c(%rbp)
   1dbc6:	0f 9c c0             	setl   %al
   1dbc9:	0f b6 c8             	movzbl %al,%ecx
   1dbcc:	0f b7 05 05 a9 00 00 	movzwl 0xa905(%rip),%eax        # 284d8 <g_130>
   1dbd3:	09 c8                	or     %ecx,%eax
   1dbd5:	66 89 05 fc a8 00 00 	mov    %ax,0xa8fc(%rip)        # 284d8 <g_130>
   1dbdc:	0f b7 05 f5 a8 00 00 	movzwl 0xa8f5(%rip),%eax        # 284d8 <g_130>
   1dbe3:	98                   	cwtl   
   1dbe4:	89 d6                	mov    %edx,%esi
   1dbe6:	89 c7                	mov    %eax,%edi
   1dbe8:	e8 68 e8 fe ff       	callq  c455 <safe_div_func_int16_t_s_s>
   1dbed:	98                   	cwtl   
   1dbee:	39 85 48 ed ff ff    	cmp    %eax,-0x12b8(%rbp)
   1dbf4:	0f 95 c0             	setne  %al
   1dbf7:	0f b6 d0             	movzbl %al,%edx
   1dbfa:	0f b6 05 7f a4 00 00 	movzbl 0xa47f(%rip),%eax        # 28080 <g_38>
   1dc01:	0f be c0             	movsbl %al,%eax
   1dc04:	89 d6                	mov    %edx,%esi
   1dc06:	89 c7                	mov    %eax,%edi
   1dc08:	e8 05 e6 fe ff       	callq  c212 <safe_mul_func_int8_t_s_s>
   1dc0d:	0f be d0             	movsbl %al,%edx
   1dc10:	0f b6 05 f2 a8 00 00 	movzbl 0xa8f2(%rip),%eax        # 28509 <g_289>
   1dc17:	0f be c0             	movsbl %al,%eax
   1dc1a:	21 d0                	and    %edx,%eax
   1dc1c:	89 c2                	mov    %eax,%edx
   1dc1e:	8b 05 d4 a8 00 00    	mov    0xa8d4(%rip),%eax        # 284f8 <g_146+0x18>
   1dc24:	39 c2                	cmp    %eax,%edx
   1dc26:	0f 92 c0             	setb   %al
   1dc29:	0f b6 d0             	movzbl %al,%edx
   1dc2c:	48 8b 0d 05 ea 00 00 	mov    0xea05(%rip),%rcx        # 2c638 <g_416>
   1dc33:	48 8b 85 08 ee ff ff 	mov    -0x11f8(%rbp),%rax
   1dc3a:	48 89 08             	mov    %rcx,(%rax)
   1dc3d:	48 8b 85 08 ee ff ff 	mov    -0x11f8(%rbp),%rax
   1dc44:	48 8b 30             	mov    (%rax),%rsi
   1dc47:	48 8b 8d e0 ee ff ff 	mov    -0x1120(%rbp),%rcx
   1dc4e:	48 8b 85 10 ee ff ff 	mov    -0x11f0(%rbp),%rax
   1dc55:	48 89 08             	mov    %rcx,(%rax)
   1dc58:	48 8b 85 10 ee ff ff 	mov    -0x11f0(%rbp),%rax
   1dc5f:	48 8b 00             	mov    (%rax),%rax
   1dc62:	48 39 c6             	cmp    %rax,%rsi
   1dc65:	0f 95 c0             	setne  %al
   1dc68:	0f b6 c0             	movzbl %al,%eax
   1dc6b:	89 d6                	mov    %edx,%esi
   1dc6d:	89 c7                	mov    %eax,%edi
   1dc6f:	e8 8b f0 fe ff       	callq  ccff <safe_add_func_uint16_t_u_u>
   1dc74:	66 85 c0             	test   %ax,%ax
   1dc77:	74 10                	je     1dc89 <func_29+0x1070>
   1dc79:	83 bd 0c ed ff ff 00 	cmpl   $0x0,-0x12f4(%rbp)
   1dc80:	74 07                	je     1dc89 <func_29+0x1070>
   1dc82:	b8 01 00 00 00       	mov    $0x1,%eax
   1dc87:	eb 05                	jmp    1dc8e <func_29+0x1075>
   1dc89:	b8 00 00 00 00       	mov    $0x0,%eax
   1dc8e:	89 c2                	mov    %eax,%edx
   1dc90:	48 8b 85 18 ee ff ff 	mov    -0x11e8(%rbp),%rax
   1dc97:	88 10                	mov    %dl,(%rax)
   1dc99:	48 8b 85 18 ee ff ff 	mov    -0x11e8(%rbp),%rax
   1dca0:	0f b6 00             	movzbl (%rax),%eax
   1dca3:	0f be c0             	movsbl %al,%eax
   1dca6:	be 06 00 00 00       	mov    $0x6,%esi
   1dcab:	89 c7                	mov    %eax,%edi
   1dcad:	e8 ba e6 fe ff       	callq  c36c <safe_rshift_func_int8_t_s_u>
   1dcb2:	48 0f be c0          	movsbq %al,%rax
   1dcb6:	48 89 c6             	mov    %rax,%rsi
   1dcb9:	48 bf 12 cb 81 8e 33 	movabs $0x7259fa338e81cb12,%rdi
   1dcc0:	fa 59 72 
   1dcc3:	e8 b8 f3 fe ff       	callq  d080 <safe_mod_func_uint64_t_u_u>
   1dcc8:	f7 d0                	not    %eax
   1dcca:	98                   	cwtl   
   1dccb:	be 02 00 00 00       	mov    $0x2,%esi
   1dcd0:	89 c7                	mov    %eax,%edi
   1dcd2:	e8 bb e7 fe ff       	callq  c492 <safe_lshift_func_int16_t_s_s>
   1dcd7:	98                   	cwtl   
   1dcd8:	8b 95 5c ed ff ff    	mov    -0x12a4(%rbp),%edx
   1dcde:	89 d6                	mov    %edx,%esi
   1dce0:	89 c7                	mov    %eax,%edi
   1dce2:	e8 43 e8 fe ff       	callq  c52a <safe_rshift_func_int16_t_s_s>
   1dce7:	66 85 c0             	test   %ax,%ax
   1dcea:	74 07                	je     1dcf3 <func_29+0x10da>
   1dcec:	b8 01 00 00 00       	mov    $0x1,%eax
   1dcf1:	eb 05                	jmp    1dcf8 <func_29+0x10df>
   1dcf3:	b8 00 00 00 00       	mov    $0x0,%eax
   1dcf8:	3b 85 0c ed ff ff    	cmp    -0x12f4(%rbp),%eax
   1dcfe:	be 0a 00 00 00       	mov    $0xa,%esi
   1dd03:	bf 01 00 00 00       	mov    $0x1,%edi
   1dd08:	e8 56 e8 fe ff       	callq  c563 <safe_rshift_func_int16_t_s_u>
   1dd0d:	0f bf d0             	movswl %ax,%edx
   1dd10:	0f b6 05 b1 a3 00 00 	movzbl 0xa3b1(%rip),%eax        # 280c8 <g_69>
   1dd17:	0f b6 c0             	movzbl %al,%eax
   1dd1a:	39 c2                	cmp    %eax,%edx
   1dd1c:	0f 9d c0             	setge  %al
   1dd1f:	0f b6 c0             	movzbl %al,%eax
   1dd22:	89 de                	mov    %ebx,%esi
   1dd24:	89 c7                	mov    %eax,%edi
   1dd26:	e8 ff e7 fe ff       	callq  c52a <safe_rshift_func_int16_t_s_s>
   1dd2b:	98                   	cwtl   
   1dd2c:	39 85 0c ed ff ff    	cmp    %eax,-0x12f4(%rbp)
   1dd32:	74 10                	je     1dd44 <func_29+0x112b>
   1dd34:	83 bd 0c ed ff ff 00 	cmpl   $0x0,-0x12f4(%rbp)
   1dd3b:	74 07                	je     1dd44 <func_29+0x112b>
   1dd3d:	b8 01 00 00 00       	mov    $0x1,%eax
   1dd42:	eb 05                	jmp    1dd49 <func_29+0x1130>
   1dd44:	b8 00 00 00 00       	mov    $0x0,%eax
   1dd49:	23 85 34 ed ff ff    	and    -0x12cc(%rbp),%eax
   1dd4f:	30 85 1a ed ff ff    	xor    %al,-0x12e6(%rbp)
   1dd55:	0f b7 05 20 aa 00 00 	movzwl 0xaa20(%rip),%eax        # 2877c <g_450>
   1dd5c:	83 e8 01             	sub    $0x1,%eax
   1dd5f:	66 89 05 16 aa 00 00 	mov    %ax,0xaa16(%rip)        # 2877c <g_450>
   1dd66:	48 8b 85 f8 ed ff ff 	mov    -0x1208(%rbp),%rax
   1dd6d:	48 89 85 18 fe ff ff 	mov    %rax,-0x1e8(%rbp)
   1dd74:	48 8b 85 88 ee ff ff 	mov    -0x1178(%rbp),%rax
   1dd7b:	48 83 c0 01          	add    $0x1,%rax
   1dd7f:	48 89 85 88 ee ff ff 	mov    %rax,-0x1178(%rbp)
   1dd86:	eb 21                	jmp    1dda9 <func_29+0x1190>
   1dd88:	48 8b 15 59 e8 00 00 	mov    0xe859(%rip),%rdx        # 2c5e8 <g_100>
   1dd8f:	48 8b 05 4a e8 00 00 	mov    0xe84a(%rip),%rax        # 2c5e0 <g_66>
   1dd96:	8b 12                	mov    (%rdx),%edx
   1dd98:	89 10                	mov    %edx,(%rax)
   1dd9a:	48 8b 05 47 e8 00 00 	mov    0xe847(%rip),%rax        # 2c5e8 <g_100>
   1dda1:	8b 15 d9 a9 00 00    	mov    0xa9d9(%rip),%edx        # 28780 <g_459>
   1dda7:	89 10                	mov    %edx,(%rax)
   1dda9:	8b 85 98 ee ff ff    	mov    -0x1168(%rbp),%eax
   1ddaf:	85 c0                	test   %eax,%eax
   1ddb1:	75 12                	jne    1ddc5 <func_29+0x11ac>
   1ddb3:	48 8b 05 86 e8 00 00 	mov    0xe886(%rip),%rax        # 2c640 <g_460>
   1ddba:	e9 97 00 00 00       	jmpq   1de56 <func_29+0x123d>
   1ddbf:	90                   	nop
   1ddc0:	eb 04                	jmp    1ddc6 <func_29+0x11ad>
   1ddc2:	90                   	nop
   1ddc3:	eb 01                	jmp    1ddc6 <func_29+0x11ad>
   1ddc5:	90                   	nop
   1ddc6:	8b 05 00 a3 00 00    	mov    0xa300(%rip),%eax        # 280cc <g_71>
   1ddcc:	0f b6 c0             	movzbl %al,%eax
   1ddcf:	be 08 00 00 00       	mov    $0x8,%esi
   1ddd4:	89 c7                	mov    %eax,%edi
   1ddd6:	e8 7f ed fe ff       	callq  cb5a <safe_add_func_uint8_t_u_u>
   1dddb:	0f b6 c0             	movzbl %al,%eax
   1ddde:	89 05 e8 a2 00 00    	mov    %eax,0xa2e8(%rip)        # 280cc <g_71>
   1dde4:	8b 05 e2 a2 00 00    	mov    0xa2e2(%rip),%eax        # 280cc <g_71>
   1ddea:	83 f8 06             	cmp    $0x6,%eax
   1dded:	0f 85 d8 f0 ff ff    	jne    1cecb <func_29+0x2b2>
   1ddf3:	48 8b 85 c8 ed ff ff 	mov    -0x1238(%rbp),%rax
   1ddfa:	0f b7 c0             	movzwl %ax,%eax
   1ddfd:	89 c6                	mov    %eax,%esi
   1ddff:	bf 0c 84 00 00       	mov    $0x840c,%edi
   1de04:	e8 16 ef fe ff       	callq  cd1f <safe_sub_func_uint16_t_u_u>
   1de09:	48 8b 95 c0 ed ff ff 	mov    -0x1240(%rbp),%rdx
   1de10:	8b 12                	mov    (%rdx),%edx
   1de12:	0f b7 c0             	movzwl %ax,%eax
   1de15:	31 c2                	xor    %eax,%edx
   1de17:	48 8b 85 c0 ed ff ff 	mov    -0x1240(%rbp),%rax
   1de1e:	89 10                	mov    %edx,(%rax)
   1de20:	8b 05 d2 a6 00 00    	mov    0xa6d2(%rip),%eax        # 284f8 <g_146+0x18>
   1de26:	83 c0 01             	add    $0x1,%eax
   1de29:	89 05 c9 a6 00 00    	mov    %eax,0xa6c9(%rip)        # 284f8 <g_146+0x18>
   1de2f:	8b 05 c3 a6 00 00    	mov    0xa6c3(%rip),%eax        # 284f8 <g_146+0x18>
   1de35:	83 f8 1f             	cmp    $0x1f,%eax
   1de38:	0f 87 82 ef ff ff    	ja     1cdc0 <func_29+0x1a7>
   1de3e:	83 bd 0c ed ff ff 00 	cmpl   $0x0,-0x12f4(%rbp)
   1de45:	74 05                	je     1de4c <func_29+0x1233>
   1de47:	e9 54 ef ff ff       	jmpq   1cda0 <func_29+0x187>
   1de4c:	48 8b 05 cd e7 00 00 	mov    0xe7cd(%rip),%rax        # 2c620 <g_287>
   1de53:	48 8b 00             	mov    (%rax),%rax
   1de56:	48 8b 5d d8          	mov    -0x28(%rbp),%rbx
   1de5a:	64 48 33 1c 25 28 00 	xor    %fs:0x28,%rbx
   1de61:	00 00 
   1de63:	74 05                	je     1de6a <func_29+0x1251>
   1de65:	e8 06 e2 fe ff       	callq  c070 <__stack_chk_fail@plt>
   1de6a:	48 81 c4 e0 12 00 00 	add    $0x12e0,%rsp
   1de71:	5b                   	pop    %rbx
   1de72:	41 5c                	pop    %r12
   1de74:	41 5d                	pop    %r13
   1de76:	41 5e                	pop    %r14
   1de78:	5d                   	pop    %rbp
   1de79:	c3                   	retq   

000000000001de7a <func_31>:
   1de7a:	f3 0f 1e fa          	endbr64 
   1de7e:	55                   	push   %rbp
   1de7f:	48 89 e5             	mov    %rsp,%rbp
   1de82:	41 57                	push   %r15
   1de84:	41 56                	push   %r14
   1de86:	41 55                	push   %r13
   1de88:	41 54                	push   %r12
   1de8a:	53                   	push   %rbx
   1de8b:	48 81 ec 00 10 00 00 	sub    $0x1000,%rsp
   1de92:	48 83 0c 24 00       	orq    $0x0,(%rsp)
   1de97:	48 81 ec f8 01 00 00 	sub    $0x1f8,%rsp
   1de9e:	89 f8                	mov    %edi,%eax
   1dea0:	48 89 b5 f0 ed ff ff 	mov    %rsi,-0x1210(%rbp)
   1dea7:	48 89 95 e8 ed ff ff 	mov    %rdx,-0x1218(%rbp)
   1deae:	48 89 8d e0 ed ff ff 	mov    %rcx,-0x1220(%rbp)
   1deb5:	88 85 fc ed ff ff    	mov    %al,-0x1204(%rbp)
   1debb:	64 48 8b 04 25 28 00 	mov    %fs:0x28,%rax
   1dec2:	00 00 
   1dec4:	48 89 45 c8          	mov    %rax,-0x38(%rbp)
   1dec8:	31 c0                	xor    %eax,%eax
   1deca:	c6 85 10 ee ff ff 01 	movb   $0x1,-0x11f0(%rbp)
   1ded1:	48 8d 05 e8 a1 00 00 	lea    0xa1e8(%rip),%rax        # 280c0 <g_68>
   1ded8:	48 89 85 58 ee ff ff 	mov    %rax,-0x11a8(%rbp)
   1dedf:	48 8d 85 58 ee ff ff 	lea    -0x11a8(%rbp),%rax
   1dee6:	48 89 85 80 ee ff ff 	mov    %rax,-0x1180(%rbp)
   1deed:	c7 85 1c ee ff ff fc 	movl   $0xfffffffc,-0x11e4(%rbp)
   1def4:	ff ff ff 
   1def7:	48 8d 05 ce a1 00 00 	lea    0xa1ce(%rip),%rax        # 280cc <g_71>
   1defe:	48 89 85 b0 f0 ff ff 	mov    %rax,-0xf50(%rbp)
   1df05:	48 8d 05 c0 a1 00 00 	lea    0xa1c0(%rip),%rax        # 280cc <g_71>
   1df0c:	48 89 85 b8 f0 ff ff 	mov    %rax,-0xf48(%rbp)
   1df13:	48 8d 05 b2 a1 00 00 	lea    0xa1b2(%rip),%rax        # 280cc <g_71>
   1df1a:	48 89 85 c0 f0 ff ff 	mov    %rax,-0xf40(%rbp)
   1df21:	48 8d 05 a4 a1 00 00 	lea    0xa1a4(%rip),%rax        # 280cc <g_71>
   1df28:	48 89 85 c8 f0 ff ff 	mov    %rax,-0xf38(%rbp)
   1df2f:	48 8d 05 96 a1 00 00 	lea    0xa196(%rip),%rax        # 280cc <g_71>
   1df36:	48 89 85 d0 f0 ff ff 	mov    %rax,-0xf30(%rbp)
   1df3d:	48 8d 05 88 a1 00 00 	lea    0xa188(%rip),%rax        # 280cc <g_71>
   1df44:	48 89 85 d8 f0 ff ff 	mov    %rax,-0xf28(%rbp)
   1df4b:	48 8d 05 7a a1 00 00 	lea    0xa17a(%rip),%rax        # 280cc <g_71>
   1df52:	48 89 85 e0 f0 ff ff 	mov    %rax,-0xf20(%rbp)
   1df59:	48 8d 05 6c a1 00 00 	lea    0xa16c(%rip),%rax        # 280cc <g_71>
   1df60:	48 89 85 e8 f0 ff ff 	mov    %rax,-0xf18(%rbp)
   1df67:	48 8d 05 5e a1 00 00 	lea    0xa15e(%rip),%rax        # 280cc <g_71>
   1df6e:	48 89 85 f0 f0 ff ff 	mov    %rax,-0xf10(%rbp)
   1df75:	48 8d 05 50 a1 00 00 	lea    0xa150(%rip),%rax        # 280cc <g_71>
   1df7c:	48 89 85 f8 f0 ff ff 	mov    %rax,-0xf08(%rbp)
   1df83:	48 c7 85 00 f1 ff ff 	movq   $0x0,-0xf00(%rbp)
   1df8a:	00 00 00 00 
   1df8e:	48 8d 05 37 a1 00 00 	lea    0xa137(%rip),%rax        # 280cc <g_71>
   1df95:	48 89 85 08 f1 ff ff 	mov    %rax,-0xef8(%rbp)
   1df9c:	48 8d 05 09 a1 00 00 	lea    0xa109(%rip),%rax        # 280ac <g_63+0xc>
   1dfa3:	48 89 85 88 ee ff ff 	mov    %rax,-0x1178(%rbp)
   1dfaa:	66 c7 85 12 ee ff ff 	movw   $0x60d1,-0x11ee(%rbp)
   1dfb1:	d1 60 
   1dfb3:	48 b8 38 4e e8 3a 7f 	movabs $0xe96a0b7f3ae84e38,%rax
   1dfba:	0b 6a e9 
   1dfbd:	48 89 85 90 ee ff ff 	mov    %rax,-0x1170(%rbp)
   1dfc4:	48 8d 05 0d a5 00 00 	lea    0xa50d(%rip),%rax        # 284d8 <g_130>
   1dfcb:	48 89 85 98 ee ff ff 	mov    %rax,-0x1168(%rbp)
   1dfd2:	48 b8 15 30 ce 93 be 	movabs $0x10cbdebe93ce3015,%rax
   1dfd9:	de cb 10 
   1dfdc:	48 89 85 10 f1 ff ff 	mov    %rax,-0xef0(%rbp)
   1dfe3:	48 c7 85 18 f1 ff ff 	movq   $0xfffffffffffffff9,-0xee8(%rbp)
   1dfea:	f9 ff ff ff 
   1dfee:	48 bb 41 4e af 2d 45 	movabs $0xe851f4452daf4e41,%rbx
   1dff5:	f4 51 e8 
   1dff8:	48 89 9d 20 f1 ff ff 	mov    %rbx,-0xee0(%rbp)
   1dfff:	c7 85 28 f1 ff ff 28 	movl   $0x60e20428,-0xed8(%rbp)
   1e006:	04 e2 60 
   1e009:	48 c7 85 2c f1 ff ff 	movq   $0x0,-0xed4(%rbp)
   1e010:	00 00 00 00 
   1e014:	66 c7 85 34 f1 ff ff 	movw   $0xffff,-0xecc(%rbp)
   1e01b:	ff ff 
   1e01d:	48 89 85 36 f1 ff ff 	mov    %rax,-0xeca(%rbp)
   1e024:	48 c7 85 3e f1 ff ff 	movq   $0xfffffffffffffff9,-0xec2(%rbp)
   1e02b:	f9 ff ff ff 
   1e02f:	48 89 9d 46 f1 ff ff 	mov    %rbx,-0xeba(%rbp)
   1e036:	c7 85 4e f1 ff ff 28 	movl   $0x60e20428,-0xeb2(%rbp)
   1e03d:	04 e2 60 
   1e040:	48 c7 85 52 f1 ff ff 	movq   $0x0,-0xeae(%rbp)
   1e047:	00 00 00 00 
   1e04b:	66 c7 85 5a f1 ff ff 	movw   $0xffff,-0xea6(%rbp)
   1e052:	ff ff 
   1e054:	48 89 85 5c f1 ff ff 	mov    %rax,-0xea4(%rbp)
   1e05b:	48 c7 85 64 f1 ff ff 	movq   $0xfffffffffffffff9,-0xe9c(%rbp)
   1e062:	f9 ff ff ff 
   1e066:	48 89 9d 6c f1 ff ff 	mov    %rbx,-0xe94(%rbp)
   1e06d:	c7 85 74 f1 ff ff 28 	movl   $0x60e20428,-0xe8c(%rbp)
   1e074:	04 e2 60 
   1e077:	48 c7 85 78 f1 ff ff 	movq   $0x0,-0xe88(%rbp)
   1e07e:	00 00 00 00 
   1e082:	66 c7 85 80 f1 ff ff 	movw   $0xffff,-0xe80(%rbp)
   1e089:	ff ff 
   1e08b:	48 89 85 82 f1 ff ff 	mov    %rax,-0xe7e(%rbp)
   1e092:	48 c7 85 8a f1 ff ff 	movq   $0xfffffffffffffff9,-0xe76(%rbp)
   1e099:	f9 ff ff ff 
   1e09d:	48 89 9d 92 f1 ff ff 	mov    %rbx,-0xe6e(%rbp)
   1e0a4:	c7 85 9a f1 ff ff 28 	movl   $0x60e20428,-0xe66(%rbp)
   1e0ab:	04 e2 60 
   1e0ae:	48 c7 85 9e f1 ff ff 	movq   $0x0,-0xe62(%rbp)
   1e0b5:	00 00 00 00 
   1e0b9:	66 c7 85 a6 f1 ff ff 	movw   $0xffff,-0xe5a(%rbp)
   1e0c0:	ff ff 
   1e0c2:	48 c7 85 a0 ee ff ff 	movq   $0x0,-0x1160(%rbp)
   1e0c9:	00 00 00 00 
   1e0cd:	c7 05 31 f3 00 00 04 	movl   $0x4,0xf331(%rip)        # 2d408 <g_17>
   1e0d4:	00 00 00 
   1e0d7:	e9 fe 02 00 00       	jmpq   1e3da <func_31+0x560>
   1e0dc:	c7 85 78 ee ff ff ff 	movl   $0xffffffff,-0x1188(%rbp)
   1e0e3:	ff ff ff 
   1e0e6:	48 8d 05 37 f3 00 00 	lea    0xf337(%rip),%rax        # 2d424 <g_59+0x4>
   1e0ed:	48 89 85 20 ef ff ff 	mov    %rax,-0x10e0(%rbp)
   1e0f4:	48 8d 85 78 ee ff ff 	lea    -0x1188(%rbp),%rax
   1e0fb:	48 89 85 28 ef ff ff 	mov    %rax,-0x10d8(%rbp)
   1e102:	48 8d 05 b7 9f 00 00 	lea    0x9fb7(%rip),%rax        # 280c0 <g_68>
   1e109:	48 89 85 40 f8 ff ff 	mov    %rax,-0x7c0(%rbp)
   1e110:	48 8d 05 a9 9f 00 00 	lea    0x9fa9(%rip),%rax        # 280c0 <g_68>
   1e117:	48 89 85 48 f8 ff ff 	mov    %rax,-0x7b8(%rbp)
   1e11e:	48 8d 05 9b 9f 00 00 	lea    0x9f9b(%rip),%rax        # 280c0 <g_68>
   1e125:	48 89 85 50 f8 ff ff 	mov    %rax,-0x7b0(%rbp)
   1e12c:	48 c7 85 58 f8 ff ff 	movq   $0x0,-0x7a8(%rbp)
   1e133:	00 00 00 00 
   1e137:	48 8d 05 82 9f 00 00 	lea    0x9f82(%rip),%rax        # 280c0 <g_68>
   1e13e:	48 89 85 60 f8 ff ff 	mov    %rax,-0x7a0(%rbp)
   1e145:	48 c7 85 68 f8 ff ff 	movq   $0x0,-0x798(%rbp)
   1e14c:	00 00 00 00 
   1e150:	48 8d 05 69 9f 00 00 	lea    0x9f69(%rip),%rax        # 280c0 <g_68>
   1e157:	48 89 85 70 f8 ff ff 	mov    %rax,-0x790(%rbp)
   1e15e:	48 8d 05 5b 9f 00 00 	lea    0x9f5b(%rip),%rax        # 280c0 <g_68>
   1e165:	48 89 85 78 f8 ff ff 	mov    %rax,-0x788(%rbp)
   1e16c:	48 8d 05 4d 9f 00 00 	lea    0x9f4d(%rip),%rax        # 280c0 <g_68>
   1e173:	48 89 85 80 f8 ff ff 	mov    %rax,-0x780(%rbp)
   1e17a:	48 c7 85 88 f8 ff ff 	movq   $0x0,-0x778(%rbp)
   1e181:	00 00 00 00 
   1e185:	48 8d 05 34 9f 00 00 	lea    0x9f34(%rip),%rax        # 280c0 <g_68>
   1e18c:	48 89 85 90 f8 ff ff 	mov    %rax,-0x770(%rbp)
   1e193:	48 8d 05 26 9f 00 00 	lea    0x9f26(%rip),%rax        # 280c0 <g_68>
   1e19a:	48 89 85 98 f8 ff ff 	mov    %rax,-0x768(%rbp)
   1e1a1:	48 8d 05 18 9f 00 00 	lea    0x9f18(%rip),%rax        # 280c0 <g_68>
   1e1a8:	48 89 85 a0 f8 ff ff 	mov    %rax,-0x760(%rbp)
   1e1af:	48 c7 85 a8 f8 ff ff 	movq   $0x0,-0x758(%rbp)
   1e1b6:	00 00 00 00 
   1e1ba:	48 8d 05 ff 9e 00 00 	lea    0x9eff(%rip),%rax        # 280c0 <g_68>
   1e1c1:	48 89 85 b0 f8 ff ff 	mov    %rax,-0x750(%rbp)
   1e1c8:	48 8d 05 f1 9e 00 00 	lea    0x9ef1(%rip),%rax        # 280c0 <g_68>
   1e1cf:	48 89 85 b8 f8 ff ff 	mov    %rax,-0x748(%rbp)
   1e1d6:	48 8d 05 e3 9e 00 00 	lea    0x9ee3(%rip),%rax        # 280c0 <g_68>
   1e1dd:	48 89 85 c0 f8 ff ff 	mov    %rax,-0x740(%rbp)
   1e1e4:	48 c7 85 c8 f8 ff ff 	movq   $0x0,-0x738(%rbp)
   1e1eb:	00 00 00 00 
   1e1ef:	48 8d 05 ca 9e 00 00 	lea    0x9eca(%rip),%rax        # 280c0 <g_68>
   1e1f6:	48 89 85 d0 f8 ff ff 	mov    %rax,-0x730(%rbp)
   1e1fd:	48 c7 85 d8 f8 ff ff 	movq   $0x0,-0x728(%rbp)
   1e204:	00 00 00 00 
   1e208:	48 8d 05 b1 9e 00 00 	lea    0x9eb1(%rip),%rax        # 280c0 <g_68>
   1e20f:	48 89 85 e0 f8 ff ff 	mov    %rax,-0x720(%rbp)
   1e216:	48 8d 05 a3 9e 00 00 	lea    0x9ea3(%rip),%rax        # 280c0 <g_68>
   1e21d:	48 89 85 e8 f8 ff ff 	mov    %rax,-0x718(%rbp)
   1e224:	48 8d 05 95 9e 00 00 	lea    0x9e95(%rip),%rax        # 280c0 <g_68>
   1e22b:	48 89 85 f0 f8 ff ff 	mov    %rax,-0x710(%rbp)
   1e232:	48 c7 85 f8 f8 ff ff 	movq   $0x0,-0x708(%rbp)
   1e239:	00 00 00 00 
   1e23d:	48 8d 05 7c 9e 00 00 	lea    0x9e7c(%rip),%rax        # 280c0 <g_68>
   1e244:	48 89 85 00 f9 ff ff 	mov    %rax,-0x700(%rbp)
   1e24b:	48 8d 05 6e 9e 00 00 	lea    0x9e6e(%rip),%rax        # 280c0 <g_68>
   1e252:	48 89 85 08 f9 ff ff 	mov    %rax,-0x6f8(%rbp)
   1e259:	48 8d 05 60 9e 00 00 	lea    0x9e60(%rip),%rax        # 280c0 <g_68>
   1e260:	48 89 85 10 f9 ff ff 	mov    %rax,-0x6f0(%rbp)
   1e267:	48 c7 85 18 f9 ff ff 	movq   $0x0,-0x6e8(%rbp)
   1e26e:	00 00 00 00 
   1e272:	48 8d 05 53 9e 00 00 	lea    0x9e53(%rip),%rax        # 280cc <g_71>
   1e279:	48 89 85 30 ef ff ff 	mov    %rax,-0x10d0(%rbp)
   1e280:	0f b6 85 10 ee ff ff 	movzbl -0x11f0(%rbp),%eax
   1e287:	83 c0 01             	add    $0x1,%eax
   1e28a:	88 85 10 ee ff ff    	mov    %al,-0x11f0(%rbp)
   1e290:	44 0f b6 a5 fc ed ff 	movzbl -0x1204(%rbp),%r12d
   1e297:	ff 
   1e298:	8b 85 78 ee ff ff    	mov    -0x1188(%rbp),%eax
   1e29e:	48 63 d8             	movslq %eax,%rbx
   1e2a1:	8b 05 61 f1 00 00    	mov    0xf161(%rip),%eax        # 2d408 <g_17>
   1e2a7:	41 89 c5             	mov    %eax,%r13d
   1e2aa:	48 8b 05 5f f1 00 00 	mov    0xf15f(%rip),%rax        # 2d410 <g_21>
   1e2b1:	48 85 c0             	test   %rax,%rax
   1e2b4:	0f 95 c0             	setne  %al
   1e2b7:	0f b6 d0             	movzbl %al,%edx
   1e2ba:	0f b6 85 fc ed ff ff 	movzbl -0x1204(%rbp),%eax
   1e2c1:	89 d6                	mov    %edx,%esi
   1e2c3:	89 c7                	mov    %eax,%edi
   1e2c5:	e8 17 e2 fe ff       	callq  c4e1 <safe_lshift_func_int16_t_s_u>
   1e2ca:	0f b6 95 10 ee ff ff 	movzbl -0x11f0(%rbp),%edx
   1e2d1:	8b 85 78 ee ff ff    	mov    -0x1188(%rbp),%eax
   1e2d7:	39 c2                	cmp    %eax,%edx
   1e2d9:	0f 9f c0             	setg   %al
   1e2dc:	0f b6 c0             	movzbl %al,%eax
   1e2df:	48 89 c7             	mov    %rax,%rdi
   1e2e2:	e8 2f e5 fe ff       	callq  c816 <safe_unary_minus_func_int64_t_s>
   1e2e7:	0f b6 95 10 ee ff ff 	movzbl -0x11f0(%rbp),%edx
   1e2ee:	48 21 d0             	and    %rdx,%rax
   1e2f1:	48 83 f8 01          	cmp    $0x1,%rax
   1e2f5:	0f 95 c0             	setne  %al
   1e2f8:	0f b6 c0             	movzbl %al,%eax
   1e2fb:	44 89 ee             	mov    %r13d,%esi
   1e2fe:	89 c7                	mov    %eax,%edi
   1e300:	e8 75 eb fe ff       	callq  ce7a <safe_rshift_func_uint16_t_u_u>
   1e305:	66 85 c0             	test   %ax,%ax
   1e308:	0f 95 c0             	setne  %al
   1e30b:	44 0f b6 e8          	movzbl %al,%r13d
   1e30f:	be 01 00 00 00       	mov    $0x1,%esi
   1e314:	bf 1d 00 00 00       	mov    $0x1d,%edi
   1e319:	e8 e7 e8 fe ff       	callq  cc05 <safe_lshift_func_uint8_t_u_s>
   1e31e:	84 c0                	test   %al,%al
   1e320:	75 08                	jne    1e32a <func_31+0x4b0>
   1e322:	8b 85 78 ee ff ff    	mov    -0x1188(%rbp),%eax
   1e328:	85 c0                	test   %eax,%eax
   1e32a:	48 8b 85 20 ef ff ff 	mov    -0x10e0(%rbp),%rax
   1e331:	0f b7 00             	movzwl (%rax),%eax
   1e334:	89 c2                	mov    %eax,%edx
   1e336:	44 89 e8             	mov    %r13d,%eax
   1e339:	21 d0                	and    %edx,%eax
   1e33b:	89 c2                	mov    %eax,%edx
   1e33d:	48 8b 85 20 ef ff ff 	mov    -0x10e0(%rbp),%rax
   1e344:	66 89 10             	mov    %dx,(%rax)
   1e347:	0f b6 95 fc ed ff ff 	movzbl -0x1204(%rbp),%edx
   1e34e:	8b 85 78 ee ff ff    	mov    -0x1188(%rbp),%eax
   1e354:	39 c2                	cmp    %eax,%edx
   1e356:	48 8d 95 78 ee ff ff 	lea    -0x1188(%rbp),%rdx
   1e35d:	48 8b 85 28 ef ff ff 	mov    -0x10d8(%rbp),%rax
   1e364:	49 89 d0             	mov    %rdx,%r8
   1e367:	4c 89 e1             	mov    %r12,%rcx
   1e36a:	48 89 c2             	mov    %rax,%rdx
   1e36d:	48 89 de             	mov    %rbx,%rsi
   1e370:	bf cd be f1 fa       	mov    $0xfaf1becd,%edi
   1e375:	e8 e2 0d 00 00       	callq  1f15c <func_45>
   1e37a:	48 8b 15 3f 9d 00 00 	mov    0x9d3f(%rip),%rdx        # 280c0 <g_68>
   1e381:	48 21 d0             	and    %rdx,%rax
   1e384:	48 89 05 35 9d 00 00 	mov    %rax,0x9d35(%rip)        # 280c0 <g_68>
   1e38b:	48 8b 05 2e 9d 00 00 	mov    0x9d2e(%rip),%rax        # 280c0 <g_68>
   1e392:	89 c2                	mov    %eax,%edx
   1e394:	0f b6 05 2d 9d 00 00 	movzbl 0x9d2d(%rip),%eax        # 280c8 <g_69>
   1e39b:	31 d0                	xor    %edx,%eax
   1e39d:	88 05 25 9d 00 00    	mov    %al,0x9d25(%rip)        # 280c8 <g_69>
   1e3a3:	80 bd 10 ee ff ff 01 	cmpb   $0x1,-0x11f0(%rbp)
   1e3aa:	0f 97 c0             	seta   %al
   1e3ad:	0f b6 d0             	movzbl %al,%edx
   1e3b0:	48 8b 85 30 ef ff ff 	mov    -0x10d0(%rbp),%rax
   1e3b7:	8b 00                	mov    (%rax),%eax
   1e3b9:	21 c2                	and    %eax,%edx
   1e3bb:	48 8b 85 30 ef ff ff 	mov    -0x10d0(%rbp),%rax
   1e3c2:	89 10                	mov    %edx,(%rax)
   1e3c4:	80 bd 10 ee ff ff 00 	cmpb   $0x0,-0x11f0(%rbp)
   1e3cb:	8b 05 37 f0 00 00    	mov    0xf037(%rip),%eax        # 2d408 <g_17>
   1e3d1:	83 e8 01             	sub    $0x1,%eax
   1e3d4:	89 05 2e f0 00 00    	mov    %eax,0xf02e(%rip)        # 2d408 <g_17>
   1e3da:	8b 05 28 f0 00 00    	mov    0xf028(%rip),%eax        # 2d408 <g_17>
   1e3e0:	83 f8 fb             	cmp    $0xfffffffb,%eax
   1e3e3:	0f 8d f3 fc ff ff    	jge    1e0dc <func_31+0x262>
   1e3e9:	0f b6 9d fc ed ff ff 	movzbl -0x1204(%rbp),%ebx
   1e3f0:	48 8b 85 80 ee ff ff 	mov    -0x1180(%rbp),%rax
   1e3f7:	48 8d 15 c2 9c 00 00 	lea    0x9cc2(%rip),%rdx        # 280c0 <g_68>
   1e3fe:	48 89 10             	mov    %rdx,(%rax)
   1e401:	48 8b 85 80 ee ff ff 	mov    -0x1180(%rbp),%rax
   1e408:	48 8b 00             	mov    (%rax),%rax
   1e40b:	48 8d 15 ae 9c 00 00 	lea    0x9cae(%rip),%rdx        # 280c0 <g_68>
   1e412:	48 39 d0             	cmp    %rdx,%rax
   1e415:	0f 95 85 fb ed ff ff 	setne  -0x1205(%rbp)
   1e41c:	44 0f b6 ad fc ed ff 	movzbl -0x1204(%rbp),%r13d
   1e423:	ff 
   1e424:	8b 85 1c ee ff ff    	mov    -0x11e4(%rbp),%eax
   1e42a:	44 0f bf e0          	movswl %ax,%r12d
   1e42e:	44 0f b6 b5 10 ee ff 	movzbl -0x11f0(%rbp),%r14d
   1e435:	ff 
   1e436:	4c 8b 3d 0b 9c 00 00 	mov    0x9c0b(%rip),%r15        # 28048 <g_18+0x8>
   1e43d:	0f b6 85 fc ed ff ff 	movzbl -0x1204(%rbp),%eax
   1e444:	be 06 00 00 00       	mov    $0x6,%esi
   1e449:	89 c7                	mov    %eax,%edi
   1e44b:	e8 b5 e7 fe ff       	callq  cc05 <safe_lshift_func_uint8_t_u_s>
   1e450:	89 c2                	mov    %eax,%edx
   1e452:	0f b6 85 10 ee ff ff 	movzbl -0x11f0(%rbp),%eax
   1e459:	0a 85 fc ed ff ff    	or     -0x1204(%rbp),%al
   1e45f:	09 d0                	or     %edx,%eax
   1e461:	0f b6 c0             	movzbl %al,%eax
   1e464:	49 39 c7             	cmp    %rax,%r15
   1e467:	0f 93 c0             	setae  %al
   1e46a:	0f b6 c0             	movzbl %al,%eax
   1e46d:	41 39 c6             	cmp    %eax,%r14d
   1e470:	0f 9c c0             	setl   %al
   1e473:	0f b6 c0             	movzbl %al,%eax
   1e476:	44 89 e6             	mov    %r12d,%esi
   1e479:	89 c7                	mov    %eax,%edi
   1e47b:	e8 d5 df fe ff       	callq  c455 <safe_div_func_int16_t_s_s>
   1e480:	80 bd fc ed ff ff 01 	cmpb   $0x1,-0x1204(%rbp)
   1e487:	75 09                	jne    1e492 <func_31+0x618>
   1e489:	83 bd 1c ee ff ff 00 	cmpl   $0x0,-0x11e4(%rbp)
   1e490:	74 07                	je     1e499 <func_31+0x61f>
   1e492:	b8 01 00 00 00       	mov    $0x1,%eax
   1e497:	eb 05                	jmp    1e49e <func_31+0x624>
   1e499:	b8 00 00 00 00       	mov    $0x0,%eax
   1e49e:	3d c2 00 00 00       	cmp    $0xc2,%eax
   1e4a3:	0f 9f c0             	setg   %al
   1e4a6:	0f b6 c0             	movzbl %al,%eax
   1e4a9:	41 39 c5             	cmp    %eax,%r13d
   1e4ac:	0f 9f c0             	setg   %al
   1e4af:	0a 85 fb ed ff ff    	or     -0x1205(%rbp),%al
   1e4b5:	0f b6 c0             	movzbl %al,%eax
   1e4b8:	89 de                	mov    %ebx,%esi
   1e4ba:	89 c7                	mov    %eax,%edi
   1e4bc:	e8 3e e8 fe ff       	callq  ccff <safe_add_func_uint16_t_u_u>
   1e4c1:	0f b7 c0             	movzwl %ax,%eax
   1e4c4:	89 85 1c ee ff ff    	mov    %eax,-0x11e4(%rbp)
   1e4ca:	0f b6 05 ff 9b 00 00 	movzbl 0x9bff(%rip),%eax        # 280d0 <g_82>
   1e4d1:	83 c0 01             	add    $0x1,%eax
   1e4d4:	88 05 f6 9b 00 00    	mov    %al,0x9bf6(%rip)        # 280d0 <g_82>
   1e4da:	c6 05 e7 9b 00 00 00 	movb   $0x0,0x9be7(%rip)        # 280c8 <g_69>
   1e4e1:	e9 39 0c 00 00       	jmpq   1f11f <func_31+0x12a5>
   1e4e6:	c6 85 0f ee ff ff 29 	movb   $0x29,-0x11f1(%rbp)
   1e4ed:	c7 45 c3 01 01 01 01 	movl   $0x1010101,-0x3d(%rbp)
   1e4f4:	c6 45 c7 01          	movb   $0x1,-0x39(%rbp)
   1e4f8:	c7 85 18 ee ff ff 03 	movl   $0x3,-0x11e8(%rbp)
   1e4ff:	00 00 00 
   1e502:	48 8d 05 b7 9b 00 00 	lea    0x9bb7(%rip),%rax        # 280c0 <g_68>
   1e509:	48 89 85 b0 ef ff ff 	mov    %rax,-0x1050(%rbp)
   1e510:	48 8d 05 a9 9b 00 00 	lea    0x9ba9(%rip),%rax        # 280c0 <g_68>
   1e517:	48 89 85 b8 ef ff ff 	mov    %rax,-0x1048(%rbp)
   1e51e:	48 8d 05 9b 9b 00 00 	lea    0x9b9b(%rip),%rax        # 280c0 <g_68>
   1e525:	48 89 85 c0 ef ff ff 	mov    %rax,-0x1040(%rbp)
   1e52c:	48 8d 05 8d 9b 00 00 	lea    0x9b8d(%rip),%rax        # 280c0 <g_68>
   1e533:	48 89 85 c8 ef ff ff 	mov    %rax,-0x1038(%rbp)
   1e53a:	48 8d 05 7f 9b 00 00 	lea    0x9b7f(%rip),%rax        # 280c0 <g_68>
   1e541:	48 89 85 d0 ef ff ff 	mov    %rax,-0x1030(%rbp)
   1e548:	48 8d 05 71 9b 00 00 	lea    0x9b71(%rip),%rax        # 280c0 <g_68>
   1e54f:	48 89 85 d8 ef ff ff 	mov    %rax,-0x1028(%rbp)
   1e556:	48 8d 05 63 9b 00 00 	lea    0x9b63(%rip),%rax        # 280c0 <g_68>
   1e55d:	48 89 85 e0 ef ff ff 	mov    %rax,-0x1020(%rbp)
   1e564:	48 8d 05 55 9b 00 00 	lea    0x9b55(%rip),%rax        # 280c0 <g_68>
   1e56b:	48 89 85 e8 ef ff ff 	mov    %rax,-0x1018(%rbp)
   1e572:	48 8d 05 47 9b 00 00 	lea    0x9b47(%rip),%rax        # 280c0 <g_68>
   1e579:	48 89 85 f0 ef ff ff 	mov    %rax,-0x1010(%rbp)
   1e580:	48 8d 85 40 f8 ff ff 	lea    -0x7c0(%rbp),%rax
   1e587:	48 8d 15 d2 d6 00 00 	lea    0xd6d2(%rip),%rdx        # 2bc60 <g_2631+0x3238>
   1e58e:	b9 f0 00 00 00       	mov    $0xf0,%ecx
   1e593:	48 89 c7             	mov    %rax,%rdi
   1e596:	48 89 d6             	mov    %rdx,%rsi
   1e599:	f3 48 a5             	rep movsq %ds:(%rsi),%es:(%rdi)
   1e59c:	48 8d 05 49 9c 00 00 	lea    0x9c49(%rip),%rax        # 281ec <g_87+0x10c>
   1e5a3:	48 89 85 60 ee ff ff 	mov    %rax,-0x11a0(%rbp)
   1e5aa:	48 8d 85 60 ee ff ff 	lea    -0x11a0(%rbp),%rax
   1e5b1:	48 89 85 a8 ee ff ff 	mov    %rax,-0x1158(%rbp)
   1e5b8:	48 8d 05 19 9f 00 00 	lea    0x9f19(%rip),%rax        # 284d8 <g_130>
   1e5bf:	48 89 85 b0 ee ff ff 	mov    %rax,-0x1150(%rbp)
   1e5c6:	48 c7 85 b8 ee ff ff 	movq   $0x0,-0x1148(%rbp)
   1e5cd:	00 00 00 00 
   1e5d1:	48 8d 85 0f ee ff ff 	lea    -0x11f1(%rbp),%rax
   1e5d8:	48 89 85 c0 ee ff ff 	mov    %rax,-0x1140(%rbp)
   1e5df:	48 8d 05 5e ee 00 00 	lea    0xee5e(%rip),%rax        # 2d444 <g_121>
   1e5e6:	48 89 85 68 ee ff ff 	mov    %rax,-0x1198(%rbp)
   1e5ed:	48 8d 85 68 ee ff ff 	lea    -0x1198(%rbp),%rax
   1e5f4:	48 89 85 c8 ee ff ff 	mov    %rax,-0x1138(%rbp)
   1e5fb:	48 8d 85 f0 f2 ff ff 	lea    -0xd10(%rbp),%rax
   1e602:	48 8d 15 d7 dd 00 00 	lea    0xddd7(%rip),%rdx        # 2c3e0 <g_2631+0x39b8>
   1e609:	b9 40 00 00 00       	mov    $0x40,%ecx
   1e60e:	48 89 c7             	mov    %rax,%rdi
   1e611:	48 89 d6             	mov    %rdx,%rsi
   1e614:	f3 48 a5             	rep movsq %ds:(%rsi),%es:(%rdi)
   1e617:	48 8d 05 e8 9e 00 00 	lea    0x9ee8(%rip),%rax        # 28506 <g_171>
   1e61e:	48 89 85 80 ef ff ff 	mov    %rax,-0x1080(%rbp)
   1e625:	48 8d 05 da 9e 00 00 	lea    0x9eda(%rip),%rax        # 28506 <g_171>
   1e62c:	48 89 85 88 ef ff ff 	mov    %rax,-0x1078(%rbp)
   1e633:	48 8d 05 cc 9e 00 00 	lea    0x9ecc(%rip),%rax        # 28506 <g_171>
   1e63a:	48 89 85 90 ef ff ff 	mov    %rax,-0x1070(%rbp)
   1e641:	48 8d 05 be 9e 00 00 	lea    0x9ebe(%rip),%rax        # 28506 <g_171>
   1e648:	48 89 85 98 ef ff ff 	mov    %rax,-0x1068(%rbp)
   1e64f:	48 8d 05 b0 9e 00 00 	lea    0x9eb0(%rip),%rax        # 28506 <g_171>
   1e656:	48 89 85 a0 ef ff ff 	mov    %rax,-0x1060(%rbp)
   1e65d:	c7 85 2c ee ff ff 07 	movl   $0x7,-0x11d4(%rbp)
   1e664:	00 00 00 
   1e667:	c7 85 30 ee ff ff 01 	movl   $0x1,-0x11d0(%rbp)
   1e66e:	00 00 00 
   1e671:	c7 85 34 ee ff ff 1d 	movl   $0x28dc9b1d,-0x11cc(%rbp)
   1e678:	9b dc 28 
   1e67b:	c7 85 38 ee ff ff a3 	movl   $0xd733aea3,-0x11c8(%rbp)
   1e682:	ae 33 d7 
   1e685:	48 8d 85 f0 f4 ff ff 	lea    -0xb10(%rbp),%rax
   1e68c:	48 8d 15 4d 56 00 00 	lea    0x564d(%rip),%rdx        # 23ce0 <g_1963+0x2bcc>
   1e693:	b9 69 00 00 00       	mov    $0x69,%ecx
   1e698:	48 89 c7             	mov    %rax,%rdi
   1e69b:	48 89 d6             	mov    %rdx,%rsi
   1e69e:	f3 48 a5             	rep movsq %ds:(%rsi),%es:(%rdi)
   1e6a1:	c7 85 20 ee ff ff 00 	movl   $0x0,-0x11e0(%rbp)
   1e6a8:	00 00 00 
   1e6ab:	eb 1b                	jmp    1e6c8 <func_31+0x84e>
   1e6ad:	8b 85 20 ee ff ff    	mov    -0x11e0(%rbp),%eax
   1e6b3:	48 98                	cltq   
   1e6b5:	48 8d 55 c3          	lea    -0x3d(%rbp),%rdx
   1e6b9:	48 89 94 c5 38 ef ff 	mov    %rdx,-0x10c8(%rbp,%rax,8)
   1e6c0:	ff 
   1e6c1:	83 85 20 ee ff ff 01 	addl   $0x1,-0x11e0(%rbp)
   1e6c8:	83 bd 20 ee ff ff 00 	cmpl   $0x0,-0x11e0(%rbp)
   1e6cf:	7e dc                	jle    1e6ad <func_31+0x833>
   1e6d1:	c7 85 1c ee ff ff 08 	movl   $0x8,-0x11e4(%rbp)
   1e6d8:	00 00 00 
   1e6db:	e9 6c 04 00 00       	jmpq   1eb4c <func_31+0xcd2>
   1e6e0:	48 8d 05 e1 9d 00 00 	lea    0x9de1(%rip),%rax        # 284c8 <g_111>
   1e6e7:	48 89 85 e8 ee ff ff 	mov    %rax,-0x1118(%rbp)
   1e6ee:	48 8d 05 df 9d 00 00 	lea    0x9ddf(%rip),%rax        # 284d4 <g_116>
   1e6f5:	48 89 85 f0 ee ff ff 	mov    %rax,-0x1110(%rbp)
   1e6fc:	c7 85 54 ee ff ff 09 	movl   $0x9,-0x11ac(%rbp)
   1e703:	00 00 00 
   1e706:	48 8d 05 cb 9d 00 00 	lea    0x9dcb(%rip),%rax        # 284d8 <g_130>
   1e70d:	48 89 85 f8 ee ff ff 	mov    %rax,-0x1108(%rbp)
   1e714:	48 c7 85 70 ee ff ff 	movq   $0x0,-0x1190(%rbp)
   1e71b:	00 00 00 00 
   1e71f:	48 8d 85 70 ee ff ff 	lea    -0x1190(%rbp),%rax
   1e726:	48 89 85 00 ef ff ff 	mov    %rax,-0x1100(%rbp)
   1e72d:	c6 85 10 ee ff ff 00 	movb   $0x0,-0x11f0(%rbp)
   1e734:	e9 9c 02 00 00       	jmpq   1e9d5 <func_31+0xb5b>
   1e739:	48 8d 05 c8 ec 00 00 	lea    0xecc8(%rip),%rax        # 2d408 <g_17>
   1e740:	48 89 85 10 ef ff ff 	mov    %rax,-0x10f0(%rbp)
   1e747:	48 8d 05 82 9d 00 00 	lea    0x9d82(%rip),%rax        # 284d0 <g_114>
   1e74e:	48 89 85 78 ee ff ff 	mov    %rax,-0x1188(%rbp)
   1e755:	48 c7 85 18 ef ff ff 	movq   $0x4,-0x10e8(%rbp)
   1e75c:	04 00 00 00 
   1e760:	c7 85 24 ee ff ff 00 	movl   $0x0,-0x11dc(%rbp)
   1e767:	00 00 00 
   1e76a:	eb 1e                	jmp    1e78a <func_31+0x910>
   1e76c:	8b 85 24 ee ff ff    	mov    -0x11dc(%rbp),%eax
   1e772:	48 98                	cltq   
   1e774:	48 8d 95 78 ee ff ff 	lea    -0x1188(%rbp),%rdx
   1e77b:	48 89 94 c5 50 f0 ff 	mov    %rdx,-0xfb0(%rbp,%rax,8)
   1e782:	ff 
   1e783:	83 85 24 ee ff ff 01 	addl   $0x1,-0x11dc(%rbp)
   1e78a:	83 bd 24 ee ff ff 00 	cmpl   $0x0,-0x11dc(%rbp)
   1e791:	7e d9                	jle    1e76c <func_31+0x8f2>
   1e793:	c7 85 24 ee ff ff 00 	movl   $0x0,-0x11dc(%rbp)
   1e79a:	00 00 00 
   1e79d:	eb 4a                	jmp    1e7e9 <func_31+0x96f>
   1e79f:	c7 85 28 ee ff ff 00 	movl   $0x0,-0x11d8(%rbp)
   1e7a6:	00 00 00 
   1e7a9:	eb 2e                	jmp    1e7d9 <func_31+0x95f>
   1e7ab:	8b 85 28 ee ff ff    	mov    -0x11d8(%rbp),%eax
   1e7b1:	48 98                	cltq   
   1e7b3:	8b 95 24 ee ff ff    	mov    -0x11dc(%rbp),%edx
   1e7b9:	48 63 d2             	movslq %edx,%rdx
   1e7bc:	48 c1 e2 02          	shl    $0x2,%rdx
   1e7c0:	48 01 d0             	add    %rdx,%rax
   1e7c3:	48 8d 15 7a ec 00 00 	lea    0xec7a(%rip),%rdx        # 2d444 <g_121>
   1e7ca:	48 89 94 c5 b0 f1 ff 	mov    %rdx,-0xe50(%rbp,%rax,8)
   1e7d1:	ff 
   1e7d2:	83 85 28 ee ff ff 01 	addl   $0x1,-0x11d8(%rbp)
   1e7d9:	83 bd 28 ee ff ff 03 	cmpl   $0x3,-0x11d8(%rbp)
   1e7e0:	7e c9                	jle    1e7ab <func_31+0x931>
   1e7e2:	83 85 24 ee ff ff 01 	addl   $0x1,-0x11dc(%rbp)
   1e7e9:	83 bd 24 ee ff ff 00 	cmpl   $0x0,-0x11dc(%rbp)
   1e7f0:	7e ad                	jle    1e79f <func_31+0x925>
   1e7f2:	8b 05 74 9a 00 00    	mov    0x9a74(%rip),%eax        # 2826c <g_87+0x18c>
   1e7f8:	8b 05 ce 98 00 00    	mov    0x98ce(%rip),%eax        # 280cc <g_71>
   1e7fe:	0f bf d8             	movswl %ax,%ebx
   1e801:	8b 85 1c ee ff ff    	mov    -0x11e4(%rbp),%eax
   1e807:	48 98                	cltq   
   1e809:	48 8d 14 00          	lea    (%rax,%rax,1),%rdx
   1e80d:	48 8d 05 0c ec 00 00 	lea    0xec0c(%rip),%rax        # 2d420 <g_59>
   1e814:	0f b7 04 02          	movzwl (%rdx,%rax,1),%eax
   1e818:	8d 50 01             	lea    0x1(%rax),%edx
   1e81b:	8b 8d 1c ee ff ff    	mov    -0x11e4(%rbp),%ecx
   1e821:	48 63 c9             	movslq %ecx,%rcx
   1e824:	48 8d 34 09          	lea    (%rcx,%rcx,1),%rsi
   1e828:	48 8d 0d f1 eb 00 00 	lea    0xebf1(%rip),%rcx        # 2d420 <g_59>
   1e82f:	66 89 14 0e          	mov    %dx,(%rsi,%rcx,1)
   1e833:	66 85 c0             	test   %ax,%ax
   1e836:	0f 84 1f 01 00 00    	je     1e95b <func_31+0xae1>
   1e83c:	48 8b 85 18 ef ff ff 	mov    -0x10e8(%rbp),%rax
   1e843:	44 0f b6 e0          	movzbl %al,%r12d
   1e847:	0f b6 05 32 98 00 00 	movzbl 0x9832(%rip),%eax        # 28080 <g_38>
   1e84e:	44 0f be e8          	movsbl %al,%r13d
   1e852:	0f b6 85 10 ee ff ff 	movzbl -0x11f0(%rbp),%eax
   1e859:	83 c0 01             	add    $0x1,%eax
   1e85c:	48 98                	cltq   
   1e85e:	48 8d 14 00          	lea    (%rax,%rax,1),%rdx
   1e862:	48 8d 05 b7 eb 00 00 	lea    0xebb7(%rip),%rax        # 2d420 <g_59>
   1e869:	0f b7 04 02          	movzwl (%rdx,%rax,1),%eax
   1e86d:	0f b6 d0             	movzbl %al,%edx
   1e870:	48 8b 85 88 ee ff ff 	mov    -0x1178(%rbp),%rax
   1e877:	48 89 85 f0 ee ff ff 	mov    %rax,-0x1110(%rbp)
   1e87e:	48 8b 85 f0 ee ff ff 	mov    -0x1110(%rbp),%rax
   1e885:	48 3b 85 e8 ee ff ff 	cmp    -0x1118(%rbp),%rax
   1e88c:	0f 95 c0             	setne  %al
   1e88f:	0f b6 c0             	movzbl %al,%eax
   1e892:	89 d6                	mov    %edx,%esi
   1e894:	89 c7                	mov    %eax,%edi
   1e896:	e8 f8 e2 fe ff       	callq  cb93 <safe_mul_func_uint8_t_u_u>
   1e89b:	44 89 ee             	mov    %r13d,%esi
   1e89e:	bf 00 00 00 00       	mov    $0x0,%edi
   1e8a3:	e8 82 dc fe ff       	callq  c52a <safe_rshift_func_int16_t_s_s>
   1e8a8:	0f b6 95 0f ee ff ff 	movzbl -0x11f1(%rbp),%edx
   1e8af:	66 0f be d2          	movsbw %dl,%dx
   1e8b3:	66 39 d0             	cmp    %dx,%ax
   1e8b6:	0f 9e c0             	setle  %al
   1e8b9:	0f b6 c0             	movzbl %al,%eax
   1e8bc:	be 06 00 00 00       	mov    $0x6,%esi
   1e8c1:	89 c7                	mov    %eax,%edi
   1e8c3:	e8 9b dc fe ff       	callq  c563 <safe_rshift_func_int16_t_s_u>
   1e8c8:	0f b6 c0             	movzbl %al,%eax
   1e8cb:	44 89 e6             	mov    %r12d,%esi
   1e8ce:	89 c7                	mov    %eax,%edi
   1e8d0:	e8 d9 e2 fe ff       	callq  cbae <safe_mod_func_uint8_t_u_u>
   1e8d5:	44 0f b6 e0          	movzbl %al,%r12d
   1e8d9:	48 8b 85 10 ef ff ff 	mov    -0x10f0(%rbp),%rax
   1e8e0:	8b 10                	mov    (%rax),%edx
   1e8e2:	0f b6 85 10 ee ff ff 	movzbl -0x11f0(%rbp),%eax
   1e8e9:	48 98                	cltq   
   1e8eb:	48 8d 0c 00          	lea    (%rax,%rax,1),%rcx
   1e8ef:	48 8d 05 2a eb 00 00 	lea    0xeb2a(%rip),%rax        # 2d420 <g_59>
   1e8f6:	0f b7 04 01          	movzwl (%rcx,%rax,1),%eax
   1e8fa:	0f b7 c0             	movzwl %ax,%eax
   1e8fd:	21 c2                	and    %eax,%edx
   1e8ff:	48 8b 85 10 ef ff ff 	mov    -0x10f0(%rbp),%rax
   1e906:	89 10                	mov    %edx,(%rax)
   1e908:	48 8b 05 d9 dc 00 00 	mov    0xdcd9(%rip),%rax        # 2c5e8 <g_100>
   1e90f:	48 39 85 88 ee ff ff 	cmp    %rax,-0x1178(%rbp)
   1e916:	0f 95 c0             	setne  %al
   1e919:	0f b6 c0             	movzbl %al,%eax
   1e91c:	48 89 c7             	mov    %rax,%rdi
   1e91f:	e8 f2 de fe ff       	callq  c816 <safe_unary_minus_func_int64_t_s>
   1e924:	98                   	cwtl   
   1e925:	44 89 e6             	mov    %r12d,%esi
   1e928:	89 c7                	mov    %eax,%edi
   1e92a:	e8 34 dc fe ff       	callq  c563 <safe_rshift_func_int16_t_s_u>
   1e92f:	0f bf d0             	movswl %ax,%edx
   1e932:	0f b6 85 10 ee ff ff 	movzbl -0x11f0(%rbp),%eax
   1e939:	83 c0 01             	add    $0x1,%eax
   1e93c:	48 98                	cltq   
   1e93e:	48 8d 0c 00          	lea    (%rax,%rax,1),%rcx
   1e942:	48 8d 05 d7 ea 00 00 	lea    0xead7(%rip),%rax        # 2d420 <g_59>
   1e949:	0f b7 04 01          	movzwl (%rcx,%rax,1),%eax
   1e94d:	0f b7 c0             	movzwl %ax,%eax
   1e950:	39 c2                	cmp    %eax,%edx
   1e952:	74 07                	je     1e95b <func_31+0xae1>
   1e954:	ba 01 00 00 00       	mov    $0x1,%edx
   1e959:	eb 05                	jmp    1e960 <func_31+0xae6>
   1e95b:	ba 00 00 00 00       	mov    $0x0,%edx
   1e960:	0f b6 05 69 97 00 00 	movzbl 0x9769(%rip),%eax        # 280d0 <g_82>
   1e967:	0f b6 c0             	movzbl %al,%eax
   1e96a:	39 c2                	cmp    %eax,%edx
   1e96c:	0f 95 c0             	setne  %al
   1e96f:	0f b6 c0             	movzbl %al,%eax
   1e972:	be 04 00 00 00       	mov    $0x4,%esi
   1e977:	89 c7                	mov    %eax,%edi
   1e979:	e8 ce e2 fe ff       	callq  cc4c <safe_lshift_func_uint8_t_u_u>
   1e97e:	0f b6 c0             	movzbl %al,%eax
   1e981:	89 de                	mov    %ebx,%esi
   1e983:	89 c7                	mov    %eax,%edi
   1e985:	e8 6b da fe ff       	callq  c3f5 <safe_mul_func_int16_t_s_s>
   1e98a:	0f bf d0             	movswl %ax,%edx
   1e98d:	8b 05 b1 ea 00 00    	mov    0xeab1(%rip),%eax        # 2d444 <g_121>
   1e993:	31 d0                	xor    %edx,%eax
   1e995:	89 05 a9 ea 00 00    	mov    %eax,0xeaa9(%rip)        # 2d444 <g_121>
   1e99b:	8b 05 a3 ea 00 00    	mov    0xeaa3(%rip),%eax        # 2d444 <g_121>
   1e9a1:	3d 84 ce ab a6       	cmp    $0xa6abce84,%eax
   1e9a6:	0f b6 45 c5          	movzbl -0x3b(%rbp),%eax
   1e9aa:	83 c8 01             	or     $0x1,%eax
   1e9ad:	0f b6 c0             	movzbl %al,%eax
   1e9b0:	89 85 18 ee ff ff    	mov    %eax,-0x11e8(%rbp)
   1e9b6:	8b 85 54 ee ff ff    	mov    -0x11ac(%rbp),%eax
   1e9bc:	89 c2                	mov    %eax,%edx
   1e9be:	0f b7 85 12 ee ff ff 	movzwl -0x11ee(%rbp),%eax
   1e9c5:	09 d0                	or     %edx,%eax
   1e9c7:	66 89 85 12 ee ff ff 	mov    %ax,-0x11ee(%rbp)
   1e9ce:	80 85 10 ee ff ff 01 	addb   $0x1,-0x11f0(%rbp)
   1e9d5:	80 bd 10 ee ff ff 07 	cmpb   $0x7,-0x11f0(%rbp)
   1e9dc:	0f 86 57 fd ff ff    	jbe    1e739 <func_31+0x8bf>
   1e9e2:	83 bd 54 ee ff ff 00 	cmpl   $0x0,-0x11ac(%rbp)
   1e9e9:	0f 84 af 00 00 00    	je     1ea9e <func_31+0xc24>
   1e9ef:	48 8b 85 00 ef ff ff 	mov    -0x1100(%rbp),%rax
   1e9f6:	48 8d 95 12 ee ff ff 	lea    -0x11ee(%rbp),%rdx
   1e9fd:	48 89 10             	mov    %rdx,(%rax)
   1ea00:	8b 05 02 ea 00 00    	mov    0xea02(%rip),%eax        # 2d408 <g_17>
   1ea06:	48 63 d8             	movslq %eax,%rbx
   1ea09:	0f b6 85 0f ee ff ff 	movzbl -0x11f1(%rbp),%eax
   1ea10:	66 0f be d0          	movsbw %al,%dx
   1ea14:	48 8b 85 f8 ee ff ff 	mov    -0x1108(%rbp),%rax
   1ea1b:	66 89 10             	mov    %dx,(%rax)
   1ea1e:	48 8b 85 f8 ee ff ff 	mov    -0x1108(%rbp),%rax
   1ea25:	0f b7 00             	movzwl (%rax),%eax
   1ea28:	44 0f bf e8          	movswl %ax,%r13d
   1ea2c:	48 8b 05 89 9a 00 00 	mov    0x9a89(%rip),%rax        # 284bc <g_98+0x1c>
   1ea33:	48 85 c0             	test   %rax,%rax
   1ea36:	75 37                	jne    1ea6f <func_31+0xbf5>
   1ea38:	0f b6 85 0f ee ff ff 	movzbl -0x11f1(%rbp),%eax
   1ea3f:	66 98                	cbtw   
   1ea41:	44 0f b7 e0          	movzwl %ax,%r12d
   1ea45:	0f b7 05 d8 e9 00 00 	movzwl 0xe9d8(%rip),%eax        # 2d424 <g_59+0x4>
   1ea4c:	0f be c0             	movsbl %al,%eax
   1ea4f:	be 01 00 00 00       	mov    $0x1,%esi
   1ea54:	89 c7                	mov    %eax,%edi
   1ea56:	e8 93 d8 fe ff       	callq  c2ee <safe_lshift_func_int8_t_s_u>
   1ea5b:	66 98                	cbtw   
   1ea5d:	0f b7 c0             	movzwl %ax,%eax
   1ea60:	44 89 e6             	mov    %r12d,%esi
   1ea63:	89 c7                	mov    %eax,%edi
   1ea65:	e8 d3 e2 fe ff       	callq  cd3d <safe_mul_func_uint16_t_u_u>
   1ea6a:	66 85 c0             	test   %ax,%ax
   1ea6d:	74 07                	je     1ea76 <func_31+0xbfc>
   1ea6f:	b8 01 00 00 00       	mov    $0x1,%eax
   1ea74:	eb 05                	jmp    1ea7b <func_31+0xc01>
   1ea76:	b8 00 00 00 00       	mov    $0x0,%eax
   1ea7b:	44 39 e8             	cmp    %r13d,%eax
   1ea7e:	0f 9c c0             	setl   %al
   1ea81:	0f b6 c0             	movzbl %al,%eax
   1ea84:	48 89 de             	mov    %rbx,%rsi
   1ea87:	48 89 c7             	mov    %rax,%rdi
   1ea8a:	e8 20 e6 fe ff       	callq  d0af <safe_div_func_uint64_t_u_u>
   1ea8f:	0f be c0             	movsbl %al,%eax
   1ea92:	be 01 00 00 00       	mov    $0x1,%esi
   1ea97:	89 c7                	mov    %eax,%edi
   1ea99:	e8 54 d7 fe ff       	callq  c1f2 <safe_sub_func_int8_t_s_s>
   1ea9e:	48 8d 05 bb 95 00 00 	lea    0x95bb(%rip),%rax        # 28060 <g_18+0x20>
   1eaa5:	48 89 85 08 ef ff ff 	mov    %rax,-0x10f8(%rbp)
   1eaac:	48 8b 85 d0 ef ff ff 	mov    -0x1030(%rbp),%rax
   1eab3:	48 89 85 d0 ef ff ff 	mov    %rax,-0x1030(%rbp)
   1eaba:	48 8b 95 d0 ef ff ff 	mov    -0x1030(%rbp),%rdx
   1eac1:	48 8b 85 d0 fd ff ff 	mov    -0x230(%rbp),%rax
   1eac8:	48 39 c2             	cmp    %rax,%rdx
   1eacb:	0f 95 c0             	setne  %al
   1eace:	0f b6 c0             	movzbl %al,%eax
   1ead1:	8b 95 54 ee ff ff    	mov    -0x11ac(%rbp),%edx
   1ead7:	89 d6                	mov    %edx,%esi
   1ead9:	89 c7                	mov    %eax,%edi
   1eadb:	e8 1f dc fe ff       	callq  c6ff <safe_div_func_int32_t_s_s>
   1eae0:	85 c0                	test   %eax,%eax
   1eae2:	74 24                	je     1eb08 <func_31+0xc8e>
   1eae4:	48 8b 85 08 ef ff ff 	mov    -0x10f8(%rbp),%rax
   1eaeb:	48 8b 00             	mov    (%rax),%rax
   1eaee:	48 8d 48 01          	lea    0x1(%rax),%rcx
   1eaf2:	48 8b 95 08 ef ff ff 	mov    -0x10f8(%rbp),%rdx
   1eaf9:	48 89 0a             	mov    %rcx,(%rdx)
   1eafc:	48 85 c0             	test   %rax,%rax
   1eaff:	74 07                	je     1eb08 <func_31+0xc8e>
   1eb01:	b8 01 00 00 00       	mov    $0x1,%eax
   1eb06:	eb 05                	jmp    1eb0d <func_31+0xc93>
   1eb08:	b8 00 00 00 00       	mov    $0x0,%eax
   1eb0d:	c1 e0 03             	shl    $0x3,%eax
   1eb10:	c0 f8 03             	sar    $0x3,%al
   1eb13:	83 e0 1f             	and    $0x1f,%eax
   1eb16:	89 c2                	mov    %eax,%edx
   1eb18:	0f b6 05 4d 97 00 00 	movzbl 0x974d(%rip),%eax        # 2826c <g_87+0x18c>
   1eb1f:	83 e0 e0             	and    $0xffffffe0,%eax
   1eb22:	09 d0                	or     %edx,%eax
   1eb24:	88 05 42 97 00 00    	mov    %al,0x9742(%rip)        # 2826c <g_87+0x18c>
   1eb2a:	48 83 bd 90 ee ff ff 	cmpq   $0x0,-0x1170(%rbp)
   1eb31:	00 
   1eb32:	74 09                	je     1eb3d <func_31+0xcc3>
   1eb34:	83 ad 1c ee ff ff 01 	subl   $0x1,-0x11e4(%rbp)
   1eb3b:	eb 0f                	jmp    1eb4c <func_31+0xcd2>
   1eb3d:	0f b7 05 c0 99 00 00 	movzwl 0x99c0(%rip),%eax        # 28504 <g_146+0x24>
   1eb44:	0f b7 c0             	movzwl %ax,%eax
   1eb47:	e9 ea 05 00 00       	jmpq   1f136 <func_31+0x12bc>
   1eb4c:	83 bd 1c ee ff ff 00 	cmpl   $0x0,-0x11e4(%rbp)
   1eb53:	0f 89 87 fb ff ff    	jns    1e6e0 <func_31+0x866>
   1eb59:	48 8b 85 a8 ee ff ff 	mov    -0x1158(%rbp),%rax
   1eb60:	48 8d 15 bd 97 00 00 	lea    0x97bd(%rip),%rdx        # 28324 <g_87+0x244>
   1eb67:	48 89 10             	mov    %rdx,(%rax)
   1eb6a:	0f b7 05 b3 e8 00 00 	movzwl 0xe8b3(%rip),%eax        # 2d424 <g_59+0x4>
   1eb71:	0f b7 d8             	movzwl %ax,%ebx
   1eb74:	0f b6 85 fc ed ff ff 	movzbl -0x1204(%rbp),%eax
   1eb7b:	0f be c0             	movsbl %al,%eax
   1eb7e:	be 00 00 00 00       	mov    $0x0,%esi
   1eb83:	89 c7                	mov    %eax,%edi
   1eb85:	e8 e2 d7 fe ff       	callq  c36c <safe_rshift_func_int8_t_s_u>
   1eb8a:	48 8b 95 c0 ee ff ff 	mov    -0x1140(%rbp),%rdx
   1eb91:	88 02                	mov    %al,(%rdx)
   1eb93:	8b 05 ab e8 00 00    	mov    0xe8ab(%rip),%eax        # 2d444 <g_121>
   1eb99:	44 0f b7 e0          	movzwl %ax,%r12d
   1eb9d:	8b 85 18 ee ff ff    	mov    -0x11e8(%rbp),%eax
   1eba3:	c1 e8 1f             	shr    $0x1f,%eax
   1eba6:	0f b6 d0             	movzbl %al,%edx
   1eba9:	80 8d fc ed ff ff 01 	orb    $0x1,-0x1204(%rbp)
   1ebb0:	0f b6 85 fc ed ff ff 	movzbl -0x1204(%rbp),%eax
   1ebb7:	89 d6                	mov    %edx,%esi
   1ebb9:	89 c7                	mov    %eax,%edi
   1ebbb:	e8 9a df fe ff       	callq  cb5a <safe_add_func_uint8_t_u_u>
   1ebc0:	0f b6 c0             	movzbl %al,%eax
   1ebc3:	44 89 e6             	mov    %r12d,%esi
   1ebc6:	89 c7                	mov    %eax,%edi
   1ebc8:	e8 32 e1 fe ff       	callq  ccff <safe_add_func_uint16_t_u_u>
   1ebcd:	48 8b 85 98 ee ff ff 	mov    -0x1168(%rbp),%rax
   1ebd4:	48 89 85 b0 ee ff ff 	mov    %rax,-0x1150(%rbp)
   1ebdb:	48 83 bd b0 ee ff ff 	cmpq   $0x0,-0x1150(%rbp)
   1ebe2:	00 
   1ebe3:	0f 94 c0             	sete   %al
   1ebe6:	0f b6 c0             	movzbl %al,%eax
   1ebe9:	89 de                	mov    %ebx,%esi
   1ebeb:	89 c7                	mov    %eax,%edi
   1ebed:	e8 56 e2 fe ff       	callq  ce48 <safe_rshift_func_uint16_t_u_s>
   1ebf2:	0f b6 55 c7          	movzbl -0x39(%rbp),%edx
   1ebf6:	0f b6 d2             	movzbl %dl,%edx
   1ebf9:	66 39 d0             	cmp    %dx,%ax
   1ebfc:	74 0c                	je     1ec0a <func_31+0xd90>
   1ebfe:	48 8b 05 b7 98 00 00 	mov    0x98b7(%rip),%rax        # 284bc <g_98+0x1c>
   1ec05:	48 85 c0             	test   %rax,%rax
   1ec08:	75 08                	jne    1ec12 <func_31+0xd98>
   1ec0a:	8b 85 18 ee ff ff    	mov    -0x11e8(%rbp),%eax
   1ec10:	85 c0                	test   %eax,%eax
   1ec12:	90                   	nop
   1ec13:	c7 85 18 ee ff ff 00 	movl   $0x0,-0x11e8(%rbp)
   1ec1a:	00 00 00 
   1ec1d:	48 8b 85 c0 ee ff ff 	mov    -0x1140(%rbp),%rax
   1ec24:	0f b6 10             	movzbl (%rax),%edx
   1ec27:	0f b6 85 fc ed ff ff 	movzbl -0x1204(%rbp),%eax
   1ec2e:	31 c2                	xor    %eax,%edx
   1ec30:	48 8b 85 c0 ee ff ff 	mov    -0x1140(%rbp),%rax
   1ec37:	88 10                	mov    %dl,(%rax)
   1ec39:	48 8b 85 c0 ee ff ff 	mov    -0x1140(%rbp),%rax
   1ec40:	0f b6 00             	movzbl (%rax),%eax
   1ec43:	83 c8 01             	or     $0x1,%eax
   1ec46:	0f be d0             	movsbl %al,%edx
   1ec49:	48 8b 85 b0 ee ff ff 	mov    -0x1150(%rbp),%rax
   1ec50:	0f b7 00             	movzwl (%rax),%eax
   1ec53:	66 35 12 7d          	xor    $0x7d12,%ax
   1ec57:	89 c1                	mov    %eax,%ecx
   1ec59:	48 8b 85 b0 ee ff ff 	mov    -0x1150(%rbp),%rax
   1ec60:	66 89 08             	mov    %cx,(%rax)
   1ec63:	48 8b 85 b0 ee ff ff 	mov    -0x1150(%rbp),%rax
   1ec6a:	0f b7 00             	movzwl (%rax),%eax
   1ec6d:	66 89 05 92 98 00 00 	mov    %ax,0x9892(%rip)        # 28506 <g_171>
   1ec74:	0f b7 05 8b 98 00 00 	movzwl 0x988b(%rip),%eax        # 28506 <g_171>
   1ec7b:	98                   	cwtl   
   1ec7c:	89 d6                	mov    %edx,%esi
   1ec7e:	89 c7                	mov    %eax,%edi
   1ec80:	e8 91 d7 fe ff       	callq  c416 <safe_mod_func_int16_t_s_s>
   1ec85:	0f b6 45 c5          	movzbl -0x3b(%rbp),%eax
   1ec89:	84 c0                	test   %al,%al
   1ec8b:	0f 84 ce 03 00 00    	je     1f05f <func_31+0x11e5>
   1ec91:	48 b8 98 6d 77 46 ab 	movabs $0x7da6fab46776d98,%rax
   1ec98:	6f da 07 
   1ec9b:	48 89 85 00 f0 ff ff 	mov    %rax,-0x1000(%rbp)
   1eca2:	48 c7 85 08 f0 ff ff 	movq   $0x0,-0xff8(%rbp)
   1eca9:	00 00 00 00 
   1ecad:	48 c7 85 10 f0 ff ff 	movq   $0x0,-0xff0(%rbp)
   1ecb4:	00 00 00 00 
   1ecb8:	48 89 85 18 f0 ff ff 	mov    %rax,-0xfe8(%rbp)
   1ecbf:	48 c7 85 20 f0 ff ff 	movq   $0xfffffffffffffffe,-0xfe0(%rbp)
   1ecc6:	fe ff ff ff 
   1ecca:	48 89 85 28 f0 ff ff 	mov    %rax,-0xfd8(%rbp)
   1ecd1:	48 c7 85 30 f0 ff ff 	movq   $0x0,-0xfd0(%rbp)
   1ecd8:	00 00 00 00 
   1ecdc:	48 c7 85 38 f0 ff ff 	movq   $0x0,-0xfc8(%rbp)
   1ece3:	00 00 00 00 
   1ece7:	48 89 85 40 f0 ff ff 	mov    %rax,-0xfc0(%rbp)
   1ecee:	48 c7 85 48 f0 ff ff 	movq   $0xfffffffffffffffe,-0xfb8(%rbp)
   1ecf5:	fe ff ff ff 
   1ecf9:	c7 85 3c ee ff ff 7a 	movl   $0xa190077a,-0x11c4(%rbp)
   1ed00:	07 90 a1 
   1ed03:	c7 85 40 ee ff ff fa 	movl   $0xfffffffa,-0x11c0(%rbp)
   1ed0a:	ff ff ff 
   1ed0d:	c7 85 44 ee ff ff ff 	movl   $0xffffffff,-0x11bc(%rbp)
   1ed14:	ff ff ff 
   1ed17:	c7 85 50 f0 ff ff 06 	movl   $0x6,-0xfb0(%rbp)
   1ed1e:	00 00 00 
   1ed21:	c7 85 54 f0 ff ff 01 	movl   $0x1,-0xfac(%rbp)
   1ed28:	00 00 00 
   1ed2b:	c7 85 58 f0 ff ff 00 	movl   $0x0,-0xfa8(%rbp)
   1ed32:	00 00 00 
   1ed35:	c7 85 5c f0 ff ff 00 	movl   $0x0,-0xfa4(%rbp)
   1ed3c:	00 00 00 
   1ed3f:	c7 85 60 f0 ff ff 00 	movl   $0x0,-0xfa0(%rbp)
   1ed46:	00 00 00 
   1ed49:	c7 85 64 f0 ff ff 00 	movl   $0x0,-0xf9c(%rbp)
   1ed50:	00 00 00 
   1ed53:	c7 85 68 f0 ff ff 01 	movl   $0x1,-0xf98(%rbp)
   1ed5a:	00 00 00 
   1ed5d:	c7 85 6c f0 ff ff 06 	movl   $0x6,-0xf94(%rbp)
   1ed64:	00 00 00 
   1ed67:	c7 85 70 f0 ff ff 01 	movl   $0x1,-0xf90(%rbp)
   1ed6e:	00 00 00 
   1ed71:	c7 85 74 f0 ff ff 00 	movl   $0x0,-0xf8c(%rbp)
   1ed78:	00 00 00 
   1ed7b:	c7 85 78 f0 ff ff 00 	movl   $0x0,-0xf88(%rbp)
   1ed82:	00 00 00 
   1ed85:	c7 85 7c f0 ff ff 00 	movl   $0x0,-0xf84(%rbp)
   1ed8c:	00 00 00 
   1ed8f:	c7 85 80 f0 ff ff 00 	movl   $0x0,-0xf80(%rbp)
   1ed96:	00 00 00 
   1ed99:	c7 85 84 f0 ff ff 01 	movl   $0x1,-0xf7c(%rbp)
   1eda0:	00 00 00 
   1eda3:	c7 85 88 f0 ff ff 06 	movl   $0x6,-0xf78(%rbp)
   1edaa:	00 00 00 
   1edad:	c7 85 8c f0 ff ff 01 	movl   $0x1,-0xf74(%rbp)
   1edb4:	00 00 00 
   1edb7:	c7 85 90 f0 ff ff 00 	movl   $0x0,-0xf70(%rbp)
   1edbe:	00 00 00 
   1edc1:	c7 85 94 f0 ff ff 00 	movl   $0x0,-0xf6c(%rbp)
   1edc8:	00 00 00 
   1edcb:	c7 85 98 f0 ff ff 00 	movl   $0x0,-0xf68(%rbp)
   1edd2:	00 00 00 
   1edd5:	c7 85 9c f0 ff ff 00 	movl   $0x0,-0xf64(%rbp)
   1eddc:	00 00 00 
   1eddf:	c7 85 a0 f0 ff ff 01 	movl   $0x1,-0xf60(%rbp)
   1ede6:	00 00 00 
   1ede9:	48 c7 85 40 ef ff ff 	movq   $0x0,-0x10c0(%rbp)
   1edf0:	00 00 00 00 
   1edf4:	48 c7 85 48 ef ff ff 	movq   $0x0,-0x10b8(%rbp)
   1edfb:	00 00 00 00 
   1edff:	66 c7 85 50 ef ff ff 	movw   $0x0,-0x10b0(%rbp)
   1ee06:	00 00 
   1ee08:	48 8d 85 40 f8 ff ff 	lea    -0x7c0(%rbp),%rax
   1ee0f:	48 05 90 05 00 00    	add    $0x590,%rax
   1ee15:	48 89 85 d0 ee ff ff 	mov    %rax,-0x1130(%rbp)
   1ee1c:	66 c7 85 14 ee ff ff 	movw   $0x50b9,-0x11ec(%rbp)
   1ee23:	b9 50 
   1ee25:	48 8d 45 c3          	lea    -0x3d(%rbp),%rax
   1ee29:	48 83 c0 04          	add    $0x4,%rax
   1ee2d:	48 89 85 d8 ee ff ff 	mov    %rax,-0x1128(%rbp)
   1ee34:	c7 85 60 ef ff ff f6 	movl   $0xf601f6f6,-0x10a0(%rbp)
   1ee3b:	f6 01 f6 
   1ee3e:	c6 85 64 ef ff ff f6 	movb   $0xf6,-0x109c(%rbp)
   1ee45:	c7 85 65 ef ff ff 9f 	movl   $0x9f9fbc9f,-0x109b(%rbp)
   1ee4c:	bc 9f 9f 
   1ee4f:	c6 85 69 ef ff ff bc 	movb   $0xbc,-0x1097(%rbp)
   1ee56:	c7 85 6a ef ff ff f6 	movl   $0xf63131f6,-0x1096(%rbp)
   1ee5d:	31 31 f6 
   1ee60:	c6 85 6e ef ff ff 31 	movb   $0x31,-0x1092(%rbp)
   1ee67:	c7 85 6f ef ff ff bc 	movl   $0xbcffbcbc,-0x1091(%rbp)
   1ee6e:	bc ff bc 
   1ee71:	c6 85 73 ef ff ff bc 	movb   $0xbc,-0x108d(%rbp)
   1ee78:	c7 85 74 ef ff ff 31 	movl   $0x3131f631,-0x108c(%rbp)
   1ee7f:	f6 31 31 
   1ee82:	c6 85 78 ef ff ff f6 	movb   $0xf6,-0x1088(%rbp)
   1ee89:	c7 85 79 ef ff ff bc 	movl   $0xbc9f9fbc,-0x1087(%rbp)
   1ee90:	9f 9f bc 
   1ee93:	c6 85 7d ef ff ff 9f 	movb   $0x9f,-0x1083(%rbp)
   1ee9a:	48 8d 85 50 f0 ff ff 	lea    -0xfb0(%rbp),%rax
   1eea1:	48 83 c0 20          	add    $0x20,%rax
   1eea5:	48 89 85 e0 ee ff ff 	mov    %rax,-0x1120(%rbp)
   1eeac:	66 c7 85 16 ee ff ff 	movw   $0x66f9,-0x11ea(%rbp)
   1eeb3:	f9 66 
   1eeb5:	c7 85 48 ee ff ff ef 	movl   $0x5be2f3ef,-0x11b8(%rbp)
   1eebc:	f3 e2 5b 
   1eebf:	c7 85 4c ee ff ff 76 	movl   $0x1bbc4476,-0x11b4(%rbp)
   1eec6:	44 bc 1b 
   1eec9:	c7 85 50 ee ff ff 85 	movl   $0x568a4185,-0x11b0(%rbp)
   1eed0:	41 8a 56 
   1eed3:	48 8d 85 b0 f1 ff ff 	lea    -0xe50(%rbp),%rax
   1eeda:	48 8d 15 5f 51 00 00 	lea    0x515f(%rip),%rdx        # 24040 <g_1963+0x2f2c>
   1eee1:	b9 28 00 00 00       	mov    $0x28,%ecx
   1eee6:	48 89 c7             	mov    %rax,%rdi
   1eee9:	48 89 d6             	mov    %rdx,%rsi
   1eeec:	f3 48 a5             	rep movsq %ds:(%rsi),%es:(%rdi)
   1eeef:	0f b7 85 40 ef ff ff 	movzwl -0x10c0(%rbp),%eax
   1eef6:	83 c0 01             	add    $0x1,%eax
   1eef9:	66 89 85 40 ef ff ff 	mov    %ax,-0x10c0(%rbp)
   1ef00:	48 83 bd d0 ee ff ff 	cmpq   $0x0,-0x1130(%rbp)
   1ef07:	00 
   1ef08:	0f 95 c0             	setne  %al
   1ef0b:	0f b6 c0             	movzbl %al,%eax
   1ef0e:	89 c6                	mov    %eax,%esi
   1ef10:	bf bd ff ff ff       	mov    $0xffffffbd,%edi
   1ef15:	e8 f8 d2 fe ff       	callq  c212 <safe_mul_func_int8_t_s_s>
   1ef1a:	84 c0                	test   %al,%al
   1ef1c:	0f 84 d8 00 00 00    	je     1effa <func_31+0x1180>
   1ef22:	c6 85 11 ee ff ff ff 	movb   $0xff,-0x11ef(%rbp)
   1ef29:	48 8b 05 90 91 00 00 	mov    0x9190(%rip),%rax        # 280c0 <g_68>
   1ef30:	0f b7 d8             	movzwl %ax,%ebx
   1ef33:	44 0f b6 a5 fc ed ff 	movzbl -0x1204(%rbp),%r12d
   1ef3a:	ff 
   1ef3b:	4c 8b 2d 1e 91 00 00 	mov    0x911e(%rip),%r13        # 28060 <g_18+0x20>
   1ef42:	8b 05 b0 95 00 00    	mov    0x95b0(%rip),%eax        # 284f8 <g_146+0x18>
   1ef48:	85 c0                	test   %eax,%eax
   1ef4a:	0f 95 c0             	setne  %al
   1ef4d:	0f b6 d0             	movzbl %al,%edx
   1ef50:	8b 05 ea e4 00 00    	mov    0xe4ea(%rip),%eax        # 2d440 <g_101>
   1ef56:	c1 e0 03             	shl    $0x3,%eax
   1ef59:	c0 f8 03             	sar    $0x3,%al
   1ef5c:	0f be c8             	movsbl %al,%ecx
   1ef5f:	80 ad 11 ee ff ff 01 	subb   $0x1,-0x11ef(%rbp)
   1ef66:	0f b6 85 11 ee ff ff 	movzbl -0x11ef(%rbp),%eax
   1ef6d:	39 c1                	cmp    %eax,%ecx
   1ef6f:	0f 95 c0             	setne  %al
   1ef72:	0f b6 c0             	movzbl %al,%eax
   1ef75:	89 d6                	mov    %edx,%esi
   1ef77:	89 c7                	mov    %eax,%edi
   1ef79:	e8 56 d2 fe ff       	callq  c1d4 <safe_add_func_int8_t_s_s>
   1ef7e:	48 0f be c0          	movsbq %al,%rax
   1ef82:	49 39 c5             	cmp    %rax,%r13
   1ef85:	0f 96 c0             	setbe  %al
   1ef88:	0f b6 c0             	movzbl %al,%eax
   1ef8b:	be 0f 00 00 00       	mov    $0xf,%esi
   1ef90:	89 c7                	mov    %eax,%edi
   1ef92:	e8 4a d5 fe ff       	callq  c4e1 <safe_lshift_func_int16_t_s_u>
   1ef97:	48 be 1d 31 99 e6 ea 	movabs $0x84f62feae699311d,%rsi
   1ef9e:	2f f6 84 
   1efa1:	48 c7 c7 fb ff ff ff 	mov    $0xfffffffffffffffb,%rdi
   1efa8:	e8 fb d8 fe ff       	callq  c8a8 <safe_sub_func_int64_t_s_s>
   1efad:	48 3d 28 4d 52 22    	cmp    $0x22524d28,%rax
   1efb3:	0f 9f c0             	setg   %al
   1efb6:	0f b6 c0             	movzbl %al,%eax
   1efb9:	44 89 e6             	mov    %r12d,%esi
   1efbc:	89 c7                	mov    %eax,%edi
   1efbe:	e8 f3 d5 fe ff       	callq  c5b6 <safe_add_func_int32_t_s_s>
   1efc3:	0f b7 c0             	movzwl %ax,%eax
   1efc6:	89 de                	mov    %ebx,%esi
   1efc8:	89 c7                	mov    %eax,%edi
   1efca:	e8 6e dd fe ff       	callq  cd3d <safe_mul_func_uint16_t_u_u>
   1efcf:	0f b7 c0             	movzwl %ax,%eax
   1efd2:	89 85 3c ee ff ff    	mov    %eax,-0x11c4(%rbp)
   1efd8:	8b 95 3c ee ff ff    	mov    -0x11c4(%rbp),%edx
   1efde:	8b 85 70 f0 ff ff    	mov    -0xf90(%rbp),%eax
   1efe4:	31 d0                	xor    %edx,%eax
   1efe6:	89 85 70 f0 ff ff    	mov    %eax,-0xf90(%rbp)
   1efec:	83 bd 3c ee ff ff 00 	cmpl   $0x0,-0x11c4(%rbp)
   1eff3:	74 11                	je     1f006 <func_31+0x118c>
   1eff5:	e9 34 01 00 00       	jmpq   1f12e <func_31+0x12b4>
   1effa:	0f b6 85 fc ed ff ff 	movzbl -0x1204(%rbp),%eax
   1f001:	e9 30 01 00 00       	jmpq   1f136 <func_31+0x12bc>
   1f006:	0f b6 05 fb 94 00 00 	movzbl 0x94fb(%rip),%eax        # 28508 <g_208>
   1f00d:	83 e8 01             	sub    $0x1,%eax
   1f010:	88 05 f2 94 00 00    	mov    %al,0x94f2(%rip)        # 28508 <g_208>
   1f016:	48 8b 15 d3 d5 00 00 	mov    0xd5d3(%rip),%rdx        # 2c5f0 <g_259>
   1f01d:	48 8b 05 f4 d5 00 00 	mov    0xd5f4(%rip),%rax        # 2c618 <g_286>
   1f024:	48 8b 12             	mov    (%rdx),%rdx
   1f027:	48 89 10             	mov    %rdx,(%rax)
   1f02a:	48 8b 15 bf d5 00 00 	mov    0xd5bf(%rip),%rdx        # 2c5f0 <g_259>
   1f031:	48 8b 05 e8 d5 00 00 	mov    0xd5e8(%rip),%rax        # 2c620 <g_287>
   1f038:	48 8b 12             	mov    (%rdx),%rdx
   1f03b:	48 89 10             	mov    %rdx,(%rax)
   1f03e:	0f b6 05 83 90 00 00 	movzbl 0x9083(%rip),%eax        # 280c8 <g_69>
   1f045:	0f b6 c0             	movzbl %al,%eax
   1f048:	be 03 00 00 00       	mov    $0x3,%esi
   1f04d:	89 c7                	mov    %eax,%edi
   1f04f:	e8 06 db fe ff       	callq  cb5a <safe_add_func_uint8_t_u_u>
   1f054:	88 05 6e 90 00 00    	mov    %al,0x906e(%rip)        # 280c8 <g_69>
   1f05a:	e9 c0 00 00 00       	jmpq   1f11f <func_31+0x12a5>
   1f05f:	66 c7 85 b0 f1 ff ff 	movw   $0x5,-0xe50(%rbp)
   1f066:	05 00 
   1f068:	66 c7 85 b2 f1 ff ff 	movw   $0x5,-0xe4e(%rbp)
   1f06f:	05 00 
   1f071:	66 c7 85 b4 f1 ff ff 	movw   $0x5,-0xe4c(%rbp)
   1f078:	05 00 
   1f07a:	66 c7 85 b6 f1 ff ff 	movw   $0x5,-0xe4a(%rbp)
   1f081:	05 00 
   1f083:	66 c7 85 b8 f1 ff ff 	movw   $0x5,-0xe48(%rbp)
   1f08a:	05 00 
   1f08c:	66 c7 85 ba f1 ff ff 	movw   $0x5,-0xe46(%rbp)
   1f093:	05 00 
   1f095:	66 c7 85 bc f1 ff ff 	movw   $0x5,-0xe44(%rbp)
   1f09c:	05 00 
   1f09e:	66 c7 85 be f1 ff ff 	movw   $0x5,-0xe42(%rbp)
   1f0a5:	05 00 
   1f0a7:	66 c7 85 c0 f1 ff ff 	movw   $0x5,-0xe40(%rbp)
   1f0ae:	05 00 
   1f0b0:	66 c7 85 c2 f1 ff ff 	movw   $0x5,-0xe3e(%rbp)
   1f0b7:	05 00 
   1f0b9:	66 c7 85 c4 f1 ff ff 	movw   $0x5,-0xe3c(%rbp)
   1f0c0:	05 00 
   1f0c2:	66 c7 85 c6 f1 ff ff 	movw   $0x5,-0xe3a(%rbp)
   1f0c9:	05 00 
   1f0cb:	66 c7 85 c8 f1 ff ff 	movw   $0x5,-0xe38(%rbp)
   1f0d2:	05 00 
   1f0d4:	66 c7 85 ca f1 ff ff 	movw   $0x5,-0xe36(%rbp)
   1f0db:	05 00 
   1f0dd:	66 c7 85 cc f1 ff ff 	movw   $0x5,-0xe34(%rbp)
   1f0e4:	05 00 
   1f0e6:	66 c7 85 ce f1 ff ff 	movw   $0x5,-0xe32(%rbp)
   1f0ed:	05 00 
   1f0ef:	66 c7 85 d0 f1 ff ff 	movw   $0x5,-0xe30(%rbp)
   1f0f6:	05 00 
   1f0f8:	66 c7 85 d2 f1 ff ff 	movw   $0x5,-0xe2e(%rbp)
   1f0ff:	05 00 
   1f101:	66 c7 85 d4 f1 ff ff 	movw   $0x5,-0xe2c(%rbp)
   1f108:	05 00 
   1f10a:	66 c7 85 d6 f1 ff ff 	movw   $0x5,-0xe2a(%rbp)
   1f111:	05 00 
   1f113:	0f b7 85 b6 f1 ff ff 	movzwl -0xe4a(%rbp),%eax
   1f11a:	0f b7 c0             	movzwl %ax,%eax
   1f11d:	eb 17                	jmp    1f136 <func_31+0x12bc>
   1f11f:	0f b6 05 a2 8f 00 00 	movzbl 0x8fa2(%rip),%eax        # 280c8 <g_69>
   1f126:	3c 28                	cmp    $0x28,%al
   1f128:	0f 86 b8 f3 ff ff    	jbe    1e4e6 <func_31+0x66c>
   1f12e:	0f b7 05 d1 93 00 00 	movzwl 0x93d1(%rip),%eax        # 28506 <g_171>
   1f135:	98                   	cwtl   
   1f136:	48 8b 4d c8          	mov    -0x38(%rbp),%rcx
   1f13a:	64 48 33 0c 25 28 00 	xor    %fs:0x28,%rcx
   1f141:	00 00 
   1f143:	74 05                	je     1f14a <func_31+0x12d0>
   1f145:	e8 26 cf fe ff       	callq  c070 <__stack_chk_fail@plt>
   1f14a:	48 81 c4 f8 11 00 00 	add    $0x11f8,%rsp
   1f151:	5b                   	pop    %rbx
   1f152:	41 5c                	pop    %r12
   1f154:	41 5d                	pop    %r13
   1f156:	41 5e                	pop    %r14
   1f158:	41 5f                	pop    %r15
   1f15a:	5d                   	pop    %rbp
   1f15b:	c3                   	retq   

000000000001f15c <func_45>:
   1f15c:	f3 0f 1e fa          	endbr64 
   1f160:	55                   	push   %rbp
   1f161:	48 89 e5             	mov    %rsp,%rbp
   1f164:	48 83 ec 38          	sub    $0x38,%rsp
   1f168:	89 7d ec             	mov    %edi,-0x14(%rbp)
   1f16b:	48 89 75 e0          	mov    %rsi,-0x20(%rbp)
   1f16f:	48 89 55 d8          	mov    %rdx,-0x28(%rbp)
   1f173:	48 89 4d d0          	mov    %rcx,-0x30(%rbp)
   1f177:	4c 89 45 c8          	mov    %r8,-0x38(%rbp)
   1f17b:	48 c7 45 f8 00 00 00 	movq   $0x0,-0x8(%rbp)
   1f182:	00 
   1f183:	c6 05 f6 8e 00 00 05 	movb   $0x5,0x8ef6(%rip)        # 28080 <g_38>
   1f18a:	eb 2a                	jmp    1f1b6 <func_45+0x5a>
   1f18c:	48 8b 05 ad 8e 00 00 	mov    0x8ead(%rip),%rax        # 28040 <g_18>
   1f193:	48 85 c0             	test   %rax,%rax
   1f196:	75 2b                	jne    1f1c3 <func_45+0x67>
   1f198:	0f b6 05 e1 8e 00 00 	movzbl 0x8ee1(%rip),%eax        # 28080 <g_38>
   1f19f:	48 0f be c0          	movsbq %al,%rax
   1f1a3:	be 07 00 00 00       	mov    $0x7,%esi
   1f1a8:	48 89 c7             	mov    %rax,%rdi
   1f1ab:	e8 f8 d6 fe ff       	callq  c8a8 <safe_sub_func_int64_t_s_s>
   1f1b0:	88 05 ca 8e 00 00    	mov    %al,0x8eca(%rip)        # 28080 <g_38>
   1f1b6:	0f b6 05 c3 8e 00 00 	movzbl 0x8ec3(%rip),%eax        # 28080 <g_38>
   1f1bd:	3c e2                	cmp    $0xe2,%al
   1f1bf:	75 cb                	jne    1f18c <func_45+0x30>
   1f1c1:	eb 01                	jmp    1f1c4 <func_45+0x68>
   1f1c3:	90                   	nop
   1f1c4:	48 8b 05 15 d4 00 00 	mov    0xd415(%rip),%rax        # 2c5e0 <g_66>
   1f1cb:	8b 15 d7 8e 00 00    	mov    0x8ed7(%rip),%edx        # 280a8 <g_63+0x8>
   1f1d1:	89 10                	mov    %edx,(%rax)
   1f1d3:	48 8b 45 e0          	mov    -0x20(%rbp),%rax
   1f1d7:	c9                   	leaveq 
   1f1d8:	c3                   	retq   

000000000001f1d9 <main>:
   1f1d9:	f3 0f 1e fa          	endbr64 
   1f1dd:	55                   	push   %rbp
   1f1de:	48 89 e5             	mov    %rsp,%rbp
   1f1e1:	48 83 ec 60          	sub    $0x60,%rsp
   1f1e5:	89 7d dc             	mov    %edi,-0x24(%rbp)
   1f1e8:	48 89 75 d0          	mov    %rsi,-0x30(%rbp)
   1f1ec:	64 48 8b 04 25 28 00 	mov    %fs:0x28,%rax
   1f1f3:	00 00 
   1f1f5:	48 89 45 f8          	mov    %rax,-0x8(%rbp)
   1f1f9:	31 c0                	xor    %eax,%eax
   1f1fb:	c7 45 f4 00 00 00 00 	movl   $0x0,-0xc(%rbp)
   1f202:	83 7d dc 02          	cmpl   $0x2,-0x24(%rbp)
   1f206:	74 25                	je     1f22d <main+0x54>
   1f208:	48 8b 45 d0          	mov    -0x30(%rbp),%rax
   1f20c:	48 83 c0 08          	add    $0x8,%rax
   1f210:	48 8b 00             	mov    (%rax),%rax
   1f213:	48 8d 35 66 4f 00 00 	lea    0x4f66(%rip),%rsi        # 24180 <g_1963+0x306c>
   1f21a:	48 89 c7             	mov    %rax,%rdi
   1f21d:	e8 6e ce fe ff       	callq  c090 <strcmp@plt>
   1f222:	85 c0                	test   %eax,%eax
   1f224:	74 07                	je     1f22d <main+0x54>
   1f226:	c7 45 f4 01 00 00 00 	movl   $0x1,-0xc(%rbp)
   1f22d:	e8 57 cf fe ff       	callq  c189 <platform_main_begin>
   1f232:	e8 61 e3 fe ff       	callq  d598 <crc32_gentab>
   1f237:	48 8d 45 a0          	lea    -0x60(%rbp),%rax
   1f23b:	48 89 c7             	mov    %rax,%rdi
   1f23e:	e8 72 e5 fe ff       	callq  d7b5 <func_1>
   1f243:	8b 05 bf e1 00 00    	mov    0xe1bf(%rip),%eax        # 2d408 <g_17>
   1f249:	48 98                	cltq   
   1f24b:	8b 55 f4             	mov    -0xc(%rbp),%edx
   1f24e:	48 8d 35 2d 4f 00 00 	lea    0x4f2d(%rip),%rsi        # 24182 <g_1963+0x306e>
   1f255:	48 89 c7             	mov    %rax,%rdi
   1f258:	e8 96 e4 fe ff       	callq  d6f3 <transparent_crc>
   1f25d:	c7 45 e8 00 00 00 00 	movl   $0x0,-0x18(%rbp)
   1f264:	e9 8c 00 00 00       	jmpq   1f2f5 <main+0x11c>
   1f269:	c7 45 ec 00 00 00 00 	movl   $0x0,-0x14(%rbp)
   1f270:	eb 79                	jmp    1f2eb <main+0x112>
   1f272:	c7 45 f0 00 00 00 00 	movl   $0x0,-0x10(%rbp)
   1f279:	eb 66                	jmp    1f2e1 <main+0x108>
   1f27b:	8b 45 f0             	mov    -0x10(%rbp),%eax
   1f27e:	48 63 d0             	movslq %eax,%rdx
   1f281:	8b 45 ec             	mov    -0x14(%rbp),%eax
   1f284:	48 98                	cltq   
   1f286:	8b 4d e8             	mov    -0x18(%rbp),%ecx
   1f289:	48 63 c9             	movslq %ecx,%rcx
   1f28c:	48 c1 e1 03          	shl    $0x3,%rcx
   1f290:	48 01 ca             	add    %rcx,%rdx
   1f293:	48 01 d0             	add    %rdx,%rax
   1f296:	48 8d 14 c5 00 00 00 	lea    0x0(,%rax,8),%rdx
   1f29d:	00 
   1f29e:	48 8d 05 9b 8d 00 00 	lea    0x8d9b(%rip),%rax        # 28040 <g_18>
   1f2a5:	48 8b 04 02          	mov    (%rdx,%rax,1),%rax
   1f2a9:	8b 55 f4             	mov    -0xc(%rbp),%edx
   1f2ac:	48 8d 35 d4 4e 00 00 	lea    0x4ed4(%rip),%rsi        # 24187 <g_1963+0x3073>
   1f2b3:	48 89 c7             	mov    %rax,%rdi
   1f2b6:	e8 38 e4 fe ff       	callq  d6f3 <transparent_crc>
   1f2bb:	83 7d f4 00          	cmpl   $0x0,-0xc(%rbp)
   1f2bf:	74 1c                	je     1f2dd <main+0x104>
   1f2c1:	8b 4d f0             	mov    -0x10(%rbp),%ecx
   1f2c4:	8b 55 ec             	mov    -0x14(%rbp),%edx
   1f2c7:	8b 45 e8             	mov    -0x18(%rbp),%eax
   1f2ca:	89 c6                	mov    %eax,%esi
   1f2cc:	48 8d 3d c2 4e 00 00 	lea    0x4ec2(%rip),%rdi        # 24195 <g_1963+0x3081>
   1f2d3:	b8 00 00 00 00       	mov    $0x0,%eax
   1f2d8:	e8 a3 cd fe ff       	callq  c080 <printf@plt>
   1f2dd:	83 45 f0 01          	addl   $0x1,-0x10(%rbp)
   1f2e1:	83 7d f0 00          	cmpl   $0x0,-0x10(%rbp)
   1f2e5:	7e 94                	jle    1f27b <main+0xa2>
   1f2e7:	83 45 ec 01          	addl   $0x1,-0x14(%rbp)
   1f2eb:	83 7d ec 07          	cmpl   $0x7,-0x14(%rbp)
   1f2ef:	7e 81                	jle    1f272 <main+0x99>
   1f2f1:	83 45 e8 01          	addl   $0x1,-0x18(%rbp)
   1f2f5:	83 7d e8 00          	cmpl   $0x0,-0x18(%rbp)
   1f2f9:	0f 8e 6a ff ff ff    	jle    1f269 <main+0x90>
   1f2ff:	0f b6 05 7a 8d 00 00 	movzbl 0x8d7a(%rip),%eax        # 28080 <g_38>
   1f306:	48 0f be c0          	movsbq %al,%rax
   1f30a:	8b 55 f4             	mov    -0xc(%rbp),%edx
   1f30d:	48 8d 35 97 4e 00 00 	lea    0x4e97(%rip),%rsi        # 241ab <g_1963+0x3097>
   1f314:	48 89 c7             	mov    %rax,%rdi
   1f317:	e8 d7 e3 fe ff       	callq  d6f3 <transparent_crc>
   1f31c:	c7 45 e8 00 00 00 00 	movl   $0x0,-0x18(%rbp)
   1f323:	eb 49                	jmp    1f36e <main+0x195>
   1f325:	8b 45 e8             	mov    -0x18(%rbp),%eax
   1f328:	48 98                	cltq   
   1f32a:	48 8d 14 00          	lea    (%rax,%rax,1),%rdx
   1f32e:	48 8d 05 eb e0 00 00 	lea    0xe0eb(%rip),%rax        # 2d420 <g_59>
   1f335:	0f b7 04 02          	movzwl (%rdx,%rax,1),%eax
   1f339:	0f b7 c0             	movzwl %ax,%eax
   1f33c:	8b 55 f4             	mov    -0xc(%rbp),%edx
   1f33f:	48 8d 35 6a 4e 00 00 	lea    0x4e6a(%rip),%rsi        # 241b0 <g_1963+0x309c>
   1f346:	48 89 c7             	mov    %rax,%rdi
   1f349:	e8 a5 e3 fe ff       	callq  d6f3 <transparent_crc>
   1f34e:	83 7d f4 00          	cmpl   $0x0,-0xc(%rbp)
   1f352:	74 16                	je     1f36a <main+0x191>
   1f354:	8b 45 e8             	mov    -0x18(%rbp),%eax
   1f357:	89 c6                	mov    %eax,%esi
   1f359:	48 8d 3d 58 4e 00 00 	lea    0x4e58(%rip),%rdi        # 241b8 <g_1963+0x30a4>
   1f360:	b8 00 00 00 00       	mov    $0x0,%eax
   1f365:	e8 16 cd fe ff       	callq  c080 <printf@plt>
   1f36a:	83 45 e8 01          	addl   $0x1,-0x18(%rbp)
   1f36e:	83 7d e8 08          	cmpl   $0x8,-0x18(%rbp)
   1f372:	7e b1                	jle    1f325 <main+0x14c>
   1f374:	c7 45 e8 00 00 00 00 	movl   $0x0,-0x18(%rbp)
   1f37b:	eb 53                	jmp    1f3d0 <main+0x1f7>
   1f37d:	8b 45 e8             	mov    -0x18(%rbp),%eax
   1f380:	48 98                	cltq   
   1f382:	48 8d 14 85 00 00 00 	lea    0x0(,%rax,4),%rdx
   1f389:	00 
   1f38a:	48 8d 05 0f 8d 00 00 	lea    0x8d0f(%rip),%rax        # 280a0 <g_63>
   1f391:	8b 04 02             	mov    (%rdx,%rax,1),%eax
   1f394:	c1 e0 03             	shl    $0x3,%eax
   1f397:	c0 f8 03             	sar    $0x3,%al
   1f39a:	48 0f be c0          	movsbq %al,%rax
   1f39e:	8b 55 f4             	mov    -0xc(%rbp),%edx
   1f3a1:	48 8d 35 1e 4e 00 00 	lea    0x4e1e(%rip),%rsi        # 241c6 <g_1963+0x30b2>
   1f3a8:	48 89 c7             	mov    %rax,%rdi
   1f3ab:	e8 43 e3 fe ff       	callq  d6f3 <transparent_crc>
   1f3b0:	83 7d f4 00          	cmpl   $0x0,-0xc(%rbp)
   1f3b4:	74 16                	je     1f3cc <main+0x1f3>
   1f3b6:	8b 45 e8             	mov    -0x18(%rbp),%eax
   1f3b9:	89 c6                	mov    %eax,%esi
   1f3bb:	48 8d 3d f6 4d 00 00 	lea    0x4df6(%rip),%rdi        # 241b8 <g_1963+0x30a4>
   1f3c2:	b8 00 00 00 00       	mov    $0x0,%eax
   1f3c7:	e8 b4 cc fe ff       	callq  c080 <printf@plt>
   1f3cc:	83 45 e8 01          	addl   $0x1,-0x18(%rbp)
   1f3d0:	83 7d e8 07          	cmpl   $0x7,-0x18(%rbp)
   1f3d4:	7e a7                	jle    1f37d <main+0x1a4>
   1f3d6:	48 8b 05 e3 8c 00 00 	mov    0x8ce3(%rip),%rax        # 280c0 <g_68>
   1f3dd:	48 89 c1             	mov    %rax,%rcx
   1f3e0:	8b 45 f4             	mov    -0xc(%rbp),%eax
   1f3e3:	89 c2                	mov    %eax,%edx
   1f3e5:	48 8d 35 e5 4d 00 00 	lea    0x4de5(%rip),%rsi        # 241d1 <g_1963+0x30bd>
   1f3ec:	48 89 cf             	mov    %rcx,%rdi
   1f3ef:	e8 ff e2 fe ff       	callq  d6f3 <transparent_crc>
   1f3f4:	0f b6 05 cd 8c 00 00 	movzbl 0x8ccd(%rip),%eax        # 280c8 <g_69>
   1f3fb:	0f b6 c0             	movzbl %al,%eax
   1f3fe:	8b 55 f4             	mov    -0xc(%rbp),%edx
   1f401:	48 8d 35 ce 4d 00 00 	lea    0x4dce(%rip),%rsi        # 241d6 <g_1963+0x30c2>
   1f408:	48 89 c7             	mov    %rax,%rdi
   1f40b:	e8 e3 e2 fe ff       	callq  d6f3 <transparent_crc>
   1f410:	8b 05 b6 8c 00 00    	mov    0x8cb6(%rip),%eax        # 280cc <g_71>
   1f416:	48 98                	cltq   
   1f418:	8b 55 f4             	mov    -0xc(%rbp),%edx
   1f41b:	48 8d 35 b9 4d 00 00 	lea    0x4db9(%rip),%rsi        # 241db <g_1963+0x30c7>
   1f422:	48 89 c7             	mov    %rax,%rdi
   1f425:	e8 c9 e2 fe ff       	callq  d6f3 <transparent_crc>
   1f42a:	0f b6 05 9f 8c 00 00 	movzbl 0x8c9f(%rip),%eax        # 280d0 <g_82>
   1f431:	0f b6 c0             	movzbl %al,%eax
   1f434:	8b 55 f4             	mov    -0xc(%rbp),%edx
   1f437:	48 8d 35 a2 4d 00 00 	lea    0x4da2(%rip),%rsi        # 241e0 <g_1963+0x30cc>
   1f43e:	48 89 c7             	mov    %rax,%rdi
   1f441:	e8 ad e2 fe ff       	callq  d6f3 <transparent_crc>
   1f446:	c7 45 e8 00 00 00 00 	movl   $0x0,-0x18(%rbp)
   1f44d:	e9 ad 00 00 00       	jmpq   1f4ff <main+0x326>
   1f452:	c7 45 ec 00 00 00 00 	movl   $0x0,-0x14(%rbp)
   1f459:	e9 93 00 00 00       	jmpq   1f4f1 <main+0x318>
   1f45e:	c7 45 f0 00 00 00 00 	movl   $0x0,-0x10(%rbp)
   1f465:	eb 7c                	jmp    1f4e3 <main+0x30a>
   1f467:	8b 45 f0             	mov    -0x10(%rbp),%eax
   1f46a:	48 63 c8             	movslq %eax,%rcx
   1f46d:	8b 45 e8             	mov    -0x18(%rbp),%eax
   1f470:	48 63 d0             	movslq %eax,%rdx
   1f473:	8b 45 ec             	mov    -0x14(%rbp),%eax
   1f476:	48 63 f0             	movslq %eax,%rsi
   1f479:	48 89 d0             	mov    %rdx,%rax
   1f47c:	48 01 c0             	add    %rax,%rax
   1f47f:	48 01 d0             	add    %rdx,%rax
   1f482:	48 01 c0             	add    %rax,%rax
   1f485:	48 01 f0             	add    %rsi,%rax
   1f488:	48 c1 e0 03          	shl    $0x3,%rax
   1f48c:	48 01 c8             	add    %rcx,%rax
   1f48f:	48 8d 14 85 00 00 00 	lea    0x0(,%rax,4),%rdx
   1f496:	00 
   1f497:	48 8d 05 42 8c 00 00 	lea    0x8c42(%rip),%rax        # 280e0 <g_87>
   1f49e:	8b 04 02             	mov    (%rdx,%rax,1),%eax
   1f4a1:	c1 e0 03             	shl    $0x3,%eax
   1f4a4:	c0 f8 03             	sar    $0x3,%al
   1f4a7:	48 0f be c0          	movsbq %al,%rax
   1f4ab:	8b 55 f4             	mov    -0xc(%rbp),%edx
   1f4ae:	48 8d 35 30 4d 00 00 	lea    0x4d30(%rip),%rsi        # 241e5 <g_1963+0x30d1>
   1f4b5:	48 89 c7             	mov    %rax,%rdi
   1f4b8:	e8 36 e2 fe ff       	callq  d6f3 <transparent_crc>
   1f4bd:	83 7d f4 00          	cmpl   $0x0,-0xc(%rbp)
   1f4c1:	74 1c                	je     1f4df <main+0x306>
   1f4c3:	8b 4d f0             	mov    -0x10(%rbp),%ecx
   1f4c6:	8b 55 ec             	mov    -0x14(%rbp),%edx
   1f4c9:	8b 45 e8             	mov    -0x18(%rbp),%eax
   1f4cc:	89 c6                	mov    %eax,%esi
   1f4ce:	48 8d 3d c0 4c 00 00 	lea    0x4cc0(%rip),%rdi        # 24195 <g_1963+0x3081>
   1f4d5:	b8 00 00 00 00       	mov    $0x0,%eax
   1f4da:	e8 a1 cb fe ff       	callq  c080 <printf@plt>
   1f4df:	83 45 f0 01          	addl   $0x1,-0x10(%rbp)
   1f4e3:	83 7d f0 07          	cmpl   $0x7,-0x10(%rbp)
   1f4e7:	0f 8e 7a ff ff ff    	jle    1f467 <main+0x28e>
   1f4ed:	83 45 ec 01          	addl   $0x1,-0x14(%rbp)
   1f4f1:	83 7d ec 05          	cmpl   $0x5,-0x14(%rbp)
   1f4f5:	0f 8e 63 ff ff ff    	jle    1f45e <main+0x285>
   1f4fb:	83 45 e8 01          	addl   $0x1,-0x18(%rbp)
   1f4ff:	83 7d e8 04          	cmpl   $0x4,-0x18(%rbp)
   1f503:	0f 8e 49 ff ff ff    	jle    1f452 <main+0x279>
   1f509:	48 8b 05 90 8f 00 00 	mov    0x8f90(%rip),%rax        # 284a0 <g_98>
   1f510:	8b 55 f4             	mov    -0xc(%rbp),%edx
   1f513:	48 8d 35 dc 4c 00 00 	lea    0x4cdc(%rip),%rsi        # 241f6 <g_1963+0x30e2>
   1f51a:	48 89 c7             	mov    %rax,%rdi
   1f51d:	e8 d1 e1 fe ff       	callq  d6f3 <transparent_crc>
   1f522:	48 8b 05 7f 8f 00 00 	mov    0x8f7f(%rip),%rax        # 284a8 <g_98+0x8>
   1f529:	8b 55 f4             	mov    -0xc(%rbp),%edx
   1f52c:	48 8d 35 cb 4c 00 00 	lea    0x4ccb(%rip),%rsi        # 241fe <g_1963+0x30ea>
   1f533:	48 89 c7             	mov    %rax,%rdi
   1f536:	e8 b8 e1 fe ff       	callq  d6f3 <transparent_crc>
   1f53b:	48 8b 05 6e 8f 00 00 	mov    0x8f6e(%rip),%rax        # 284b0 <g_98+0x10>
   1f542:	48 89 c1             	mov    %rax,%rcx
   1f545:	8b 45 f4             	mov    -0xc(%rbp),%eax
   1f548:	89 c2                	mov    %eax,%edx
   1f54a:	48 8d 35 b5 4c 00 00 	lea    0x4cb5(%rip),%rsi        # 24206 <g_1963+0x30f2>
   1f551:	48 89 cf             	mov    %rcx,%rdi
   1f554:	e8 9a e1 fe ff       	callq  d6f3 <transparent_crc>
   1f559:	8b 05 59 8f 00 00    	mov    0x8f59(%rip),%eax        # 284b8 <g_98+0x18>
   1f55f:	89 c1                	mov    %eax,%ecx
   1f561:	8b 45 f4             	mov    -0xc(%rbp),%eax
   1f564:	89 c2                	mov    %eax,%edx
   1f566:	48 8d 35 a1 4c 00 00 	lea    0x4ca1(%rip),%rsi        # 2420e <g_1963+0x30fa>
   1f56d:	48 89 cf             	mov    %rcx,%rdi
   1f570:	e8 7e e1 fe ff       	callq  d6f3 <transparent_crc>
   1f575:	48 8b 05 40 8f 00 00 	mov    0x8f40(%rip),%rax        # 284bc <g_98+0x1c>
   1f57c:	8b 55 f4             	mov    -0xc(%rbp),%edx
   1f57f:	48 8d 35 90 4c 00 00 	lea    0x4c90(%rip),%rsi        # 24216 <g_1963+0x3102>
   1f586:	48 89 c7             	mov    %rax,%rdi
   1f589:	e8 65 e1 fe ff       	callq  d6f3 <transparent_crc>
   1f58e:	0f b7 05 2f 8f 00 00 	movzwl 0x8f2f(%rip),%eax        # 284c4 <g_98+0x24>
   1f595:	0f b7 c0             	movzwl %ax,%eax
   1f598:	8b 55 f4             	mov    -0xc(%rbp),%edx
   1f59b:	48 8d 35 7c 4c 00 00 	lea    0x4c7c(%rip),%rsi        # 2421e <g_1963+0x310a>
   1f5a2:	48 89 c7             	mov    %rax,%rdi
   1f5a5:	e8 49 e1 fe ff       	callq  d6f3 <transparent_crc>
   1f5aa:	8b 05 90 de 00 00    	mov    0xde90(%rip),%eax        # 2d440 <g_101>
   1f5b0:	c1 e0 03             	shl    $0x3,%eax
   1f5b3:	c0 f8 03             	sar    $0x3,%al
   1f5b6:	48 0f be c0          	movsbq %al,%rax
   1f5ba:	8b 55 f4             	mov    -0xc(%rbp),%edx
   1f5bd:	48 8d 35 62 4c 00 00 	lea    0x4c62(%rip),%rsi        # 24226 <g_1963+0x3112>
   1f5c4:	48 89 c7             	mov    %rax,%rdi
   1f5c7:	e8 27 e1 fe ff       	callq  d6f3 <transparent_crc>
   1f5cc:	c7 45 e8 00 00 00 00 	movl   $0x0,-0x18(%rbp)
   1f5d3:	eb 53                	jmp    1f628 <main+0x44f>
   1f5d5:	8b 45 e8             	mov    -0x18(%rbp),%eax
   1f5d8:	48 98                	cltq   
   1f5da:	48 8d 14 85 00 00 00 	lea    0x0(,%rax,4),%rdx
   1f5e1:	00 
   1f5e2:	48 8d 05 df 8e 00 00 	lea    0x8edf(%rip),%rax        # 284c8 <g_111>
   1f5e9:	8b 04 02             	mov    (%rdx,%rax,1),%eax
   1f5ec:	c1 e0 03             	shl    $0x3,%eax
   1f5ef:	c0 f8 03             	sar    $0x3,%al
   1f5f2:	48 0f be c0          	movsbq %al,%rax
   1f5f6:	8b 55 f4             	mov    -0xc(%rbp),%edx
   1f5f9:	48 8d 35 2f 4c 00 00 	lea    0x4c2f(%rip),%rsi        # 2422f <g_1963+0x311b>
   1f600:	48 89 c7             	mov    %rax,%rdi
   1f603:	e8 eb e0 fe ff       	callq  d6f3 <transparent_crc>
   1f608:	83 7d f4 00          	cmpl   $0x0,-0xc(%rbp)
   1f60c:	74 16                	je     1f624 <main+0x44b>
   1f60e:	8b 45 e8             	mov    -0x18(%rbp),%eax
   1f611:	89 c6                	mov    %eax,%esi
   1f613:	48 8d 3d 9e 4b 00 00 	lea    0x4b9e(%rip),%rdi        # 241b8 <g_1963+0x30a4>
   1f61a:	b8 00 00 00 00       	mov    $0x0,%eax
   1f61f:	e8 5c ca fe ff       	callq  c080 <printf@plt>
   1f624:	83 45 e8 01          	addl   $0x1,-0x18(%rbp)
   1f628:	83 7d e8 01          	cmpl   $0x1,-0x18(%rbp)
   1f62c:	7e a7                	jle    1f5d5 <main+0x3fc>
   1f62e:	8b 05 9c 8e 00 00    	mov    0x8e9c(%rip),%eax        # 284d0 <g_114>
   1f634:	c1 e0 03             	shl    $0x3,%eax
   1f637:	c0 f8 03             	sar    $0x3,%al
   1f63a:	48 0f be c0          	movsbq %al,%rax
   1f63e:	8b 55 f4             	mov    -0xc(%rbp),%edx
   1f641:	48 8d 35 f3 4b 00 00 	lea    0x4bf3(%rip),%rsi        # 2423b <g_1963+0x3127>
   1f648:	48 89 c7             	mov    %rax,%rdi
   1f64b:	e8 a3 e0 fe ff       	callq  d6f3 <transparent_crc>
   1f650:	8b 05 7e 8e 00 00    	mov    0x8e7e(%rip),%eax        # 284d4 <g_116>
   1f656:	c1 e0 03             	shl    $0x3,%eax
   1f659:	c0 f8 03             	sar    $0x3,%al
   1f65c:	48 0f be c0          	movsbq %al,%rax
   1f660:	8b 55 f4             	mov    -0xc(%rbp),%edx
   1f663:	48 8d 35 da 4b 00 00 	lea    0x4bda(%rip),%rsi        # 24244 <g_1963+0x3130>
   1f66a:	48 89 c7             	mov    %rax,%rdi
   1f66d:	e8 81 e0 fe ff       	callq  d6f3 <transparent_crc>
   1f672:	8b 05 cc dd 00 00    	mov    0xddcc(%rip),%eax        # 2d444 <g_121>
   1f678:	89 c1                	mov    %eax,%ecx
   1f67a:	8b 45 f4             	mov    -0xc(%rbp),%eax
   1f67d:	89 c2                	mov    %eax,%edx
   1f67f:	48 8d 35 c7 4b 00 00 	lea    0x4bc7(%rip),%rsi        # 2424d <g_1963+0x3139>
   1f686:	48 89 cf             	mov    %rcx,%rdi
   1f689:	e8 65 e0 fe ff       	callq  d6f3 <transparent_crc>
   1f68e:	0f b7 05 43 8e 00 00 	movzwl 0x8e43(%rip),%eax        # 284d8 <g_130>
   1f695:	48 0f bf c0          	movswq %ax,%rax
   1f699:	8b 55 f4             	mov    -0xc(%rbp),%edx
   1f69c:	48 8d 35 b0 4b 00 00 	lea    0x4bb0(%rip),%rsi        # 24253 <g_1963+0x313f>
   1f6a3:	48 89 c7             	mov    %rax,%rdi
   1f6a6:	e8 48 e0 fe ff       	callq  d6f3 <transparent_crc>
   1f6ab:	48 8b 05 2e 8e 00 00 	mov    0x8e2e(%rip),%rax        # 284e0 <g_146>
   1f6b2:	8b 55 f4             	mov    -0xc(%rbp),%edx
   1f6b5:	48 8d 35 9d 4b 00 00 	lea    0x4b9d(%rip),%rsi        # 24259 <g_1963+0x3145>
   1f6bc:	48 89 c7             	mov    %rax,%rdi
   1f6bf:	e8 2f e0 fe ff       	callq  d6f3 <transparent_crc>
   1f6c4:	48 8b 05 1d 8e 00 00 	mov    0x8e1d(%rip),%rax        # 284e8 <g_146+0x8>
   1f6cb:	8b 55 f4             	mov    -0xc(%rbp),%edx
   1f6ce:	48 8d 35 8d 4b 00 00 	lea    0x4b8d(%rip),%rsi        # 24262 <g_1963+0x314e>
   1f6d5:	48 89 c7             	mov    %rax,%rdi
   1f6d8:	e8 16 e0 fe ff       	callq  d6f3 <transparent_crc>
   1f6dd:	48 8b 05 0c 8e 00 00 	mov    0x8e0c(%rip),%rax        # 284f0 <g_146+0x10>
   1f6e4:	48 89 c1             	mov    %rax,%rcx
   1f6e7:	8b 45 f4             	mov    -0xc(%rbp),%eax
   1f6ea:	89 c2                	mov    %eax,%edx
   1f6ec:	48 8d 35 78 4b 00 00 	lea    0x4b78(%rip),%rsi        # 2426b <g_1963+0x3157>
   1f6f3:	48 89 cf             	mov    %rcx,%rdi
   1f6f6:	e8 f8 df fe ff       	callq  d6f3 <transparent_crc>
   1f6fb:	8b 05 f7 8d 00 00    	mov    0x8df7(%rip),%eax        # 284f8 <g_146+0x18>
   1f701:	89 c1                	mov    %eax,%ecx
   1f703:	8b 45 f4             	mov    -0xc(%rbp),%eax
   1f706:	89 c2                	mov    %eax,%edx
   1f708:	48 8d 35 65 4b 00 00 	lea    0x4b65(%rip),%rsi        # 24274 <g_1963+0x3160>
   1f70f:	48 89 cf             	mov    %rcx,%rdi
   1f712:	e8 dc df fe ff       	callq  d6f3 <transparent_crc>
   1f717:	48 8b 05 de 8d 00 00 	mov    0x8dde(%rip),%rax        # 284fc <g_146+0x1c>
   1f71e:	8b 55 f4             	mov    -0xc(%rbp),%edx
   1f721:	48 8d 35 55 4b 00 00 	lea    0x4b55(%rip),%rsi        # 2427d <g_1963+0x3169>
   1f728:	48 89 c7             	mov    %rax,%rdi
   1f72b:	e8 c3 df fe ff       	callq  d6f3 <transparent_crc>
   1f730:	0f b7 05 cd 8d 00 00 	movzwl 0x8dcd(%rip),%eax        # 28504 <g_146+0x24>
   1f737:	0f b7 c0             	movzwl %ax,%eax
   1f73a:	8b 55 f4             	mov    -0xc(%rbp),%edx
   1f73d:	48 8d 35 42 4b 00 00 	lea    0x4b42(%rip),%rsi        # 24286 <g_1963+0x3172>
   1f744:	48 89 c7             	mov    %rax,%rdi
   1f747:	e8 a7 df fe ff       	callq  d6f3 <transparent_crc>
   1f74c:	0f b7 05 b3 8d 00 00 	movzwl 0x8db3(%rip),%eax        # 28506 <g_171>
   1f753:	48 0f bf c0          	movswq %ax,%rax
   1f757:	8b 55 f4             	mov    -0xc(%rbp),%edx
   1f75a:	48 8d 35 2e 4b 00 00 	lea    0x4b2e(%rip),%rsi        # 2428f <g_1963+0x317b>
   1f761:	48 89 c7             	mov    %rax,%rdi
   1f764:	e8 8a df fe ff       	callq  d6f3 <transparent_crc>
   1f769:	0f b6 05 98 8d 00 00 	movzbl 0x8d98(%rip),%eax        # 28508 <g_208>
   1f770:	0f b6 c0             	movzbl %al,%eax
   1f773:	8b 55 f4             	mov    -0xc(%rbp),%edx
   1f776:	48 8d 35 18 4b 00 00 	lea    0x4b18(%rip),%rsi        # 24295 <g_1963+0x3181>
   1f77d:	48 89 c7             	mov    %rax,%rdi
   1f780:	e8 6e df fe ff       	callq  d6f3 <transparent_crc>
   1f785:	0f b6 05 7d 8d 00 00 	movzbl 0x8d7d(%rip),%eax        # 28509 <g_289>
   1f78c:	48 0f be c0          	movsbq %al,%rax
   1f790:	8b 55 f4             	mov    -0xc(%rbp),%edx
   1f793:	48 8d 35 01 4b 00 00 	lea    0x4b01(%rip),%rsi        # 2429b <g_1963+0x3187>
   1f79a:	48 89 c7             	mov    %rax,%rdi
   1f79d:	e8 51 df fe ff       	callq  d6f3 <transparent_crc>
   1f7a2:	8b 05 a8 dc 00 00    	mov    0xdca8(%rip),%eax        # 2d450 <g_346>
   1f7a8:	c1 e0 03             	shl    $0x3,%eax
   1f7ab:	c0 f8 03             	sar    $0x3,%al
   1f7ae:	48 0f be c0          	movsbq %al,%rax
   1f7b2:	8b 55 f4             	mov    -0xc(%rbp),%edx
   1f7b5:	48 8d 35 e5 4a 00 00 	lea    0x4ae5(%rip),%rsi        # 242a1 <g_1963+0x318d>
   1f7bc:	48 89 c7             	mov    %rax,%rdi
   1f7bf:	e8 2f df fe ff       	callq  d6f3 <transparent_crc>
   1f7c4:	c7 45 e8 00 00 00 00 	movl   $0x0,-0x18(%rbp)
   1f7cb:	e9 a6 00 00 00       	jmpq   1f876 <main+0x69d>
   1f7d0:	c7 45 ec 00 00 00 00 	movl   $0x0,-0x14(%rbp)
   1f7d7:	e9 8c 00 00 00       	jmpq   1f868 <main+0x68f>
   1f7dc:	c7 45 f0 00 00 00 00 	movl   $0x0,-0x10(%rbp)
   1f7e3:	eb 79                	jmp    1f85e <main+0x685>
   1f7e5:	8b 45 f0             	mov    -0x10(%rbp),%eax
   1f7e8:	48 63 c8             	movslq %eax,%rcx
   1f7eb:	8b 45 e8             	mov    -0x18(%rbp),%eax
   1f7ee:	48 98                	cltq   
   1f7f0:	8b 55 ec             	mov    -0x14(%rbp),%edx
   1f7f3:	48 63 d2             	movslq %edx,%rdx
   1f7f6:	48 6b f0 46          	imul   $0x46,%rax,%rsi
   1f7fa:	48 89 d0             	mov    %rdx,%rax
   1f7fd:	48 c1 e0 03          	shl    $0x3,%rax
   1f801:	48 29 d0             	sub    %rdx,%rax
   1f804:	48 01 f0             	add    %rsi,%rax
   1f807:	48 01 c8             	add    %rcx,%rax
   1f80a:	48 8d 14 85 00 00 00 	lea    0x0(,%rax,4),%rdx
   1f811:	00 
   1f812:	48 8d 05 07 8d 00 00 	lea    0x8d07(%rip),%rax        # 28520 <g_365>
   1f819:	8b 04 02             	mov    (%rdx,%rax,1),%eax
   1f81c:	c1 e0 03             	shl    $0x3,%eax
   1f81f:	c0 f8 03             	sar    $0x3,%al
   1f822:	48 0f be c0          	movsbq %al,%rax
   1f826:	8b 55 f4             	mov    -0xc(%rbp),%edx
   1f829:	48 8d 35 7a 4a 00 00 	lea    0x4a7a(%rip),%rsi        # 242aa <g_1963+0x3196>
   1f830:	48 89 c7             	mov    %rax,%rdi
   1f833:	e8 bb de fe ff       	callq  d6f3 <transparent_crc>
   1f838:	83 7d f4 00          	cmpl   $0x0,-0xc(%rbp)
   1f83c:	74 1c                	je     1f85a <main+0x681>
   1f83e:	8b 4d f0             	mov    -0x10(%rbp),%ecx
   1f841:	8b 55 ec             	mov    -0x14(%rbp),%edx
   1f844:	8b 45 e8             	mov    -0x18(%rbp),%eax
   1f847:	89 c6                	mov    %eax,%esi
   1f849:	48 8d 3d 45 49 00 00 	lea    0x4945(%rip),%rdi        # 24195 <g_1963+0x3081>
   1f850:	b8 00 00 00 00       	mov    $0x0,%eax
   1f855:	e8 26 c8 fe ff       	callq  c080 <printf@plt>
   1f85a:	83 45 f0 01          	addl   $0x1,-0x10(%rbp)
   1f85e:	83 7d f0 06          	cmpl   $0x6,-0x10(%rbp)
   1f862:	7e 81                	jle    1f7e5 <main+0x60c>
   1f864:	83 45 ec 01          	addl   $0x1,-0x14(%rbp)
   1f868:	83 7d ec 09          	cmpl   $0x9,-0x14(%rbp)
   1f86c:	0f 8e 6a ff ff ff    	jle    1f7dc <main+0x603>
   1f872:	83 45 e8 01          	addl   $0x1,-0x18(%rbp)
   1f876:	83 7d e8 01          	cmpl   $0x1,-0x18(%rbp)
   1f87a:	0f 8e 50 ff ff ff    	jle    1f7d0 <main+0x5f7>
   1f880:	c7 45 e8 00 00 00 00 	movl   $0x0,-0x18(%rbp)
   1f887:	eb 7f                	jmp    1f908 <main+0x72f>
   1f889:	c7 45 ec 00 00 00 00 	movl   $0x0,-0x14(%rbp)
   1f890:	eb 6c                	jmp    1f8fe <main+0x725>
   1f892:	8b 45 ec             	mov    -0x14(%rbp),%eax
   1f895:	48 63 c8             	movslq %eax,%rcx
   1f898:	8b 45 e8             	mov    -0x18(%rbp),%eax
   1f89b:	48 63 d0             	movslq %eax,%rdx
   1f89e:	48 89 d0             	mov    %rdx,%rax
   1f8a1:	48 01 c0             	add    %rax,%rax
   1f8a4:	48 01 d0             	add    %rdx,%rax
   1f8a7:	48 01 c0             	add    %rax,%rax
   1f8aa:	48 01 c8             	add    %rcx,%rax
   1f8ad:	48 8d 14 85 00 00 00 	lea    0x0(,%rax,4),%rdx
   1f8b4:	00 
   1f8b5:	48 8d 05 94 8e 00 00 	lea    0x8e94(%rip),%rax        # 28750 <g_366>
   1f8bc:	8b 04 02             	mov    (%rdx,%rax,1),%eax
   1f8bf:	c1 e0 03             	shl    $0x3,%eax
   1f8c2:	c0 f8 03             	sar    $0x3,%al
   1f8c5:	48 0f be c0          	movsbq %al,%rax
   1f8c9:	8b 55 f4             	mov    -0xc(%rbp),%edx
   1f8cc:	48 8d 35 e9 49 00 00 	lea    0x49e9(%rip),%rsi        # 242bc <g_1963+0x31a8>
   1f8d3:	48 89 c7             	mov    %rax,%rdi
   1f8d6:	e8 18 de fe ff       	callq  d6f3 <transparent_crc>
   1f8db:	83 7d f4 00          	cmpl   $0x0,-0xc(%rbp)
   1f8df:	74 19                	je     1f8fa <main+0x721>
   1f8e1:	8b 55 ec             	mov    -0x14(%rbp),%edx
   1f8e4:	8b 45 e8             	mov    -0x18(%rbp),%eax
   1f8e7:	89 c6                	mov    %eax,%esi
   1f8e9:	48 8d 3d db 49 00 00 	lea    0x49db(%rip),%rdi        # 242cb <g_1963+0x31b7>
   1f8f0:	b8 00 00 00 00       	mov    $0x0,%eax
   1f8f5:	e8 86 c7 fe ff       	callq  c080 <printf@plt>
   1f8fa:	83 45 ec 01          	addl   $0x1,-0x14(%rbp)
   1f8fe:	83 7d ec 05          	cmpl   $0x5,-0x14(%rbp)
   1f902:	7e 8e                	jle    1f892 <main+0x6b9>
   1f904:	83 45 e8 01          	addl   $0x1,-0x18(%rbp)
   1f908:	83 7d e8 00          	cmpl   $0x0,-0x18(%rbp)
   1f90c:	0f 8e 77 ff ff ff    	jle    1f889 <main+0x6b0>
   1f912:	8b 05 50 8e 00 00    	mov    0x8e50(%rip),%eax        # 28768 <g_369>
   1f918:	c1 e0 03             	shl    $0x3,%eax
   1f91b:	c0 f8 03             	sar    $0x3,%al
   1f91e:	48 0f be c0          	movsbq %al,%rax
   1f922:	8b 55 f4             	mov    -0xc(%rbp),%edx
   1f925:	48 8d 35 b1 49 00 00 	lea    0x49b1(%rip),%rsi        # 242dd <g_1963+0x31c9>
   1f92c:	48 89 c7             	mov    %rax,%rdi
   1f92f:	e8 bf dd fe ff       	callq  d6f3 <transparent_crc>
   1f934:	8b 05 32 8e 00 00    	mov    0x8e32(%rip),%eax        # 2876c <g_376>
   1f93a:	c1 e0 03             	shl    $0x3,%eax
   1f93d:	c0 f8 03             	sar    $0x3,%al
   1f940:	48 0f be c0          	movsbq %al,%rax
   1f944:	8b 55 f4             	mov    -0xc(%rbp),%edx
   1f947:	48 8d 35 98 49 00 00 	lea    0x4998(%rip),%rsi        # 242e6 <g_1963+0x31d2>
   1f94e:	48 89 c7             	mov    %rax,%rdi
   1f951:	e8 9d dd fe ff       	callq  d6f3 <transparent_crc>
   1f956:	8b 05 14 8e 00 00    	mov    0x8e14(%rip),%eax        # 28770 <g_388>
   1f95c:	c1 e0 03             	shl    $0x3,%eax
   1f95f:	c0 f8 03             	sar    $0x3,%al
   1f962:	48 0f be c0          	movsbq %al,%rax
   1f966:	8b 55 f4             	mov    -0xc(%rbp),%edx
   1f969:	48 8d 35 7f 49 00 00 	lea    0x497f(%rip),%rsi        # 242ef <g_1963+0x31db>
   1f970:	48 89 c7             	mov    %rax,%rdi
   1f973:	e8 7b dd fe ff       	callq  d6f3 <transparent_crc>
   1f978:	8b 05 f6 8d 00 00    	mov    0x8df6(%rip),%eax        # 28774 <g_391>
   1f97e:	c1 e0 03             	shl    $0x3,%eax
   1f981:	c0 f8 03             	sar    $0x3,%al
   1f984:	48 0f be c0          	movsbq %al,%rax
   1f988:	8b 55 f4             	mov    -0xc(%rbp),%edx
   1f98b:	48 8d 35 66 49 00 00 	lea    0x4966(%rip),%rsi        # 242f8 <g_1963+0x31e4>
   1f992:	48 89 c7             	mov    %rax,%rdi
   1f995:	e8 59 dd fe ff       	callq  d6f3 <transparent_crc>
   1f99a:	8b 05 d8 8d 00 00    	mov    0x8dd8(%rip),%eax        # 28778 <g_392>
   1f9a0:	c1 e0 03             	shl    $0x3,%eax
   1f9a3:	c0 f8 03             	sar    $0x3,%al
   1f9a6:	48 0f be c0          	movsbq %al,%rax
   1f9aa:	8b 55 f4             	mov    -0xc(%rbp),%edx
   1f9ad:	48 8d 35 4d 49 00 00 	lea    0x494d(%rip),%rsi        # 24301 <g_1963+0x31ed>
   1f9b4:	48 89 c7             	mov    %rax,%rdi
   1f9b7:	e8 37 dd fe ff       	callq  d6f3 <transparent_crc>
   1f9bc:	0f b7 05 b9 8d 00 00 	movzwl 0x8db9(%rip),%eax        # 2877c <g_450>
   1f9c3:	0f b7 c0             	movzwl %ax,%eax
   1f9c6:	8b 55 f4             	mov    -0xc(%rbp),%edx
   1f9c9:	48 8d 35 3a 49 00 00 	lea    0x493a(%rip),%rsi        # 2430a <g_1963+0x31f6>
   1f9d0:	48 89 c7             	mov    %rax,%rdi
   1f9d3:	e8 1b dd fe ff       	callq  d6f3 <transparent_crc>
   1f9d8:	8b 05 a2 8d 00 00    	mov    0x8da2(%rip),%eax        # 28780 <g_459>
   1f9de:	c1 e0 03             	shl    $0x3,%eax
   1f9e1:	c0 f8 03             	sar    $0x3,%al
   1f9e4:	48 0f be c0          	movsbq %al,%rax
   1f9e8:	8b 55 f4             	mov    -0xc(%rbp),%edx
   1f9eb:	48 8d 35 1e 49 00 00 	lea    0x491e(%rip),%rsi        # 24310 <g_1963+0x31fc>
   1f9f2:	48 89 c7             	mov    %rax,%rdi
   1f9f5:	e8 f9 dc fe ff       	callq  d6f3 <transparent_crc>
   1f9fa:	8b 05 84 8d 00 00    	mov    0x8d84(%rip),%eax        # 28784 <g_480>
   1fa00:	c1 e0 03             	shl    $0x3,%eax
   1fa03:	c0 f8 03             	sar    $0x3,%al
   1fa06:	48 0f be c0          	movsbq %al,%rax
   1fa0a:	8b 55 f4             	mov    -0xc(%rbp),%edx
   1fa0d:	48 8d 35 05 49 00 00 	lea    0x4905(%rip),%rsi        # 24319 <g_1963+0x3205>
   1fa14:	48 89 c7             	mov    %rax,%rdi
   1fa17:	e8 d7 dc fe ff       	callq  d6f3 <transparent_crc>
   1fa1c:	b8 0a e2 d6 b5       	mov    $0xb5d6e20a,%eax
   1fa21:	89 c1                	mov    %eax,%ecx
   1fa23:	8b 45 f4             	mov    -0xc(%rbp),%eax
   1fa26:	89 c2                	mov    %eax,%edx
   1fa28:	48 8d 35 f3 48 00 00 	lea    0x48f3(%rip),%rsi        # 24322 <g_1963+0x320e>
   1fa2f:	48 89 cf             	mov    %rcx,%rdi
   1fa32:	e8 bc dc fe ff       	callq  d6f3 <transparent_crc>
   1fa37:	8b 05 4b 8d 00 00    	mov    0x8d4b(%rip),%eax        # 28788 <g_519>
   1fa3d:	48 98                	cltq   
   1fa3f:	8b 55 f4             	mov    -0xc(%rbp),%edx
   1fa42:	48 8d 35 df 48 00 00 	lea    0x48df(%rip),%rsi        # 24328 <g_1963+0x3214>
   1fa49:	48 89 c7             	mov    %rax,%rdi
   1fa4c:	e8 a2 dc fe ff       	callq  d6f3 <transparent_crc>
   1fa51:	8b 05 35 8d 00 00    	mov    0x8d35(%rip),%eax        # 2878c <g_520>
   1fa57:	c1 e0 03             	shl    $0x3,%eax
   1fa5a:	c0 f8 03             	sar    $0x3,%al
   1fa5d:	48 0f be c0          	movsbq %al,%rax
   1fa61:	8b 55 f4             	mov    -0xc(%rbp),%edx
   1fa64:	48 8d 35 c3 48 00 00 	lea    0x48c3(%rip),%rsi        # 2432e <g_1963+0x321a>
   1fa6b:	48 89 c7             	mov    %rax,%rdi
   1fa6e:	e8 80 dc fe ff       	callq  d6f3 <transparent_crc>
   1fa73:	8b 05 17 8d 00 00    	mov    0x8d17(%rip),%eax        # 28790 <g_623>
   1fa79:	48 98                	cltq   
   1fa7b:	8b 55 f4             	mov    -0xc(%rbp),%edx
   1fa7e:	48 8d 35 b2 48 00 00 	lea    0x48b2(%rip),%rsi        # 24337 <g_1963+0x3223>
   1fa85:	48 89 c7             	mov    %rax,%rdi
   1fa88:	e8 66 dc fe ff       	callq  d6f3 <transparent_crc>
   1fa8d:	0f b7 05 00 8d 00 00 	movzwl 0x8d00(%rip),%eax        # 28794 <g_625>
   1fa94:	0f b7 c0             	movzwl %ax,%eax
   1fa97:	8b 55 f4             	mov    -0xc(%rbp),%edx
   1fa9a:	48 8d 35 9c 48 00 00 	lea    0x489c(%rip),%rsi        # 2433d <g_1963+0x3229>
   1faa1:	48 89 c7             	mov    %rax,%rdi
   1faa4:	e8 4a dc fe ff       	callq  d6f3 <transparent_crc>
   1faa9:	8b 05 e9 8c 00 00    	mov    0x8ce9(%rip),%eax        # 28798 <g_646>
   1faaf:	48 98                	cltq   
   1fab1:	8b 55 f4             	mov    -0xc(%rbp),%edx
   1fab4:	48 8d 35 88 48 00 00 	lea    0x4888(%rip),%rsi        # 24343 <g_1963+0x322f>
   1fabb:	48 89 c7             	mov    %rax,%rdi
   1fabe:	e8 30 dc fe ff       	callq  d6f3 <transparent_crc>
   1fac3:	8b 05 9f d9 00 00    	mov    0xd99f(%rip),%eax        # 2d468 <g_868>
   1fac9:	c1 e0 03             	shl    $0x3,%eax
   1facc:	c0 f8 03             	sar    $0x3,%al
   1facf:	48 0f be c0          	movsbq %al,%rax
   1fad3:	8b 55 f4             	mov    -0xc(%rbp),%edx
   1fad6:	48 8d 35 6c 48 00 00 	lea    0x486c(%rip),%rsi        # 24349 <g_1963+0x3235>
   1fadd:	48 89 c7             	mov    %rax,%rdi
   1fae0:	e8 0e dc fe ff       	callq  d6f3 <transparent_crc>
   1fae5:	8b 05 b1 8c 00 00    	mov    0x8cb1(%rip),%eax        # 2879c <g_946>
   1faeb:	c1 e0 03             	shl    $0x3,%eax
   1faee:	c0 f8 03             	sar    $0x3,%al
   1faf1:	48 0f be c0          	movsbq %al,%rax
   1faf5:	8b 55 f4             	mov    -0xc(%rbp),%edx
   1faf8:	48 8d 35 53 48 00 00 	lea    0x4853(%rip),%rsi        # 24352 <g_1963+0x323e>
   1faff:	48 89 c7             	mov    %rax,%rdi
   1fb02:	e8 ec db fe ff       	callq  d6f3 <transparent_crc>
   1fb07:	48 8b 05 92 8c 00 00 	mov    0x8c92(%rip),%rax        # 287a0 <g_1037>
   1fb0e:	8b 55 f4             	mov    -0xc(%rbp),%edx
   1fb11:	48 8d 35 43 48 00 00 	lea    0x4843(%rip),%rsi        # 2435b <g_1963+0x3247>
   1fb18:	48 89 c7             	mov    %rax,%rdi
   1fb1b:	e8 d3 db fe ff       	callq  d6f3 <transparent_crc>
   1fb20:	48 8b 05 81 8c 00 00 	mov    0x8c81(%rip),%rax        # 287a8 <g_1037+0x8>
   1fb27:	8b 55 f4             	mov    -0xc(%rbp),%edx
   1fb2a:	48 8d 35 34 48 00 00 	lea    0x4834(%rip),%rsi        # 24365 <g_1963+0x3251>
   1fb31:	48 89 c7             	mov    %rax,%rdi
   1fb34:	e8 ba db fe ff       	callq  d6f3 <transparent_crc>
   1fb39:	48 8b 05 70 8c 00 00 	mov    0x8c70(%rip),%rax        # 287b0 <g_1037+0x10>
   1fb40:	48 89 c1             	mov    %rax,%rcx
   1fb43:	8b 45 f4             	mov    -0xc(%rbp),%eax
   1fb46:	89 c2                	mov    %eax,%edx
   1fb48:	48 8d 35 20 48 00 00 	lea    0x4820(%rip),%rsi        # 2436f <g_1963+0x325b>
   1fb4f:	48 89 cf             	mov    %rcx,%rdi
   1fb52:	e8 9c db fe ff       	callq  d6f3 <transparent_crc>
   1fb57:	8b 05 5b 8c 00 00    	mov    0x8c5b(%rip),%eax        # 287b8 <g_1037+0x18>
   1fb5d:	89 c1                	mov    %eax,%ecx
   1fb5f:	8b 45 f4             	mov    -0xc(%rbp),%eax
   1fb62:	89 c2                	mov    %eax,%edx
   1fb64:	48 8d 35 0e 48 00 00 	lea    0x480e(%rip),%rsi        # 24379 <g_1963+0x3265>
   1fb6b:	48 89 cf             	mov    %rcx,%rdi
   1fb6e:	e8 80 db fe ff       	callq  d6f3 <transparent_crc>
   1fb73:	48 8b 05 42 8c 00 00 	mov    0x8c42(%rip),%rax        # 287bc <g_1037+0x1c>
   1fb7a:	8b 55 f4             	mov    -0xc(%rbp),%edx
   1fb7d:	48 8d 35 ff 47 00 00 	lea    0x47ff(%rip),%rsi        # 24383 <g_1963+0x326f>
   1fb84:	48 89 c7             	mov    %rax,%rdi
   1fb87:	e8 67 db fe ff       	callq  d6f3 <transparent_crc>
   1fb8c:	0f b7 05 31 8c 00 00 	movzwl 0x8c31(%rip),%eax        # 287c4 <g_1037+0x24>
   1fb93:	0f b7 c0             	movzwl %ax,%eax
   1fb96:	8b 55 f4             	mov    -0xc(%rbp),%edx
   1fb99:	48 8d 35 ed 47 00 00 	lea    0x47ed(%rip),%rsi        # 2438d <g_1963+0x3279>
   1fba0:	48 89 c7             	mov    %rax,%rdi
   1fba3:	e8 4b db fe ff       	callq  d6f3 <transparent_crc>
   1fba8:	8b 05 1a 8c 00 00    	mov    0x8c1a(%rip),%eax        # 287c8 <g_1127>
   1fbae:	c1 e0 03             	shl    $0x3,%eax
   1fbb1:	c0 f8 03             	sar    $0x3,%al
   1fbb4:	48 0f be c0          	movsbq %al,%rax
   1fbb8:	8b 55 f4             	mov    -0xc(%rbp),%edx
   1fbbb:	48 8d 35 d5 47 00 00 	lea    0x47d5(%rip),%rsi        # 24397 <g_1963+0x3283>
   1fbc2:	48 89 c7             	mov    %rax,%rdi
   1fbc5:	e8 29 db fe ff       	callq  d6f3 <transparent_crc>
   1fbca:	8b 05 fc 8b 00 00    	mov    0x8bfc(%rip),%eax        # 287cc <g_1150>
   1fbd0:	c1 e0 03             	shl    $0x3,%eax
   1fbd3:	c0 f8 03             	sar    $0x3,%al
   1fbd6:	48 0f be c0          	movsbq %al,%rax
   1fbda:	8b 55 f4             	mov    -0xc(%rbp),%edx
   1fbdd:	48 8d 35 bd 47 00 00 	lea    0x47bd(%rip),%rsi        # 243a1 <g_1963+0x328d>
   1fbe4:	48 89 c7             	mov    %rax,%rdi
   1fbe7:	e8 07 db fe ff       	callq  d6f3 <transparent_crc>
   1fbec:	b8 6e 00 00 00       	mov    $0x6e,%eax
   1fbf1:	0f b6 c0             	movzbl %al,%eax
   1fbf4:	8b 55 f4             	mov    -0xc(%rbp),%edx
   1fbf7:	48 8d 35 ad 47 00 00 	lea    0x47ad(%rip),%rsi        # 243ab <g_1963+0x3297>
   1fbfe:	48 89 c7             	mov    %rax,%rdi
   1fc01:	e8 ed da fe ff       	callq  d6f3 <transparent_crc>
   1fc06:	8b 05 c4 8b 00 00    	mov    0x8bc4(%rip),%eax        # 287d0 <g_1182>
   1fc0c:	c1 e0 03             	shl    $0x3,%eax
   1fc0f:	c0 f8 03             	sar    $0x3,%al
   1fc12:	48 0f be c0          	movsbq %al,%rax
   1fc16:	8b 55 f4             	mov    -0xc(%rbp),%edx
   1fc19:	48 8d 35 92 47 00 00 	lea    0x4792(%rip),%rsi        # 243b2 <g_1963+0x329e>
   1fc20:	48 89 c7             	mov    %rax,%rdi
   1fc23:	e8 cb da fe ff       	callq  d6f3 <transparent_crc>
   1fc28:	c7 45 e8 00 00 00 00 	movl   $0x0,-0x18(%rbp)
   1fc2f:	eb 53                	jmp    1fc84 <main+0xaab>
   1fc31:	8b 45 e8             	mov    -0x18(%rbp),%eax
   1fc34:	48 98                	cltq   
   1fc36:	48 8d 14 85 00 00 00 	lea    0x0(,%rax,4),%rdx
   1fc3d:	00 
   1fc3e:	48 8d 05 9b 8b 00 00 	lea    0x8b9b(%rip),%rax        # 287e0 <g_1205>
   1fc45:	8b 04 02             	mov    (%rdx,%rax,1),%eax
   1fc48:	c1 e0 03             	shl    $0x3,%eax
   1fc4b:	c0 f8 03             	sar    $0x3,%al
   1fc4e:	48 0f be c0          	movsbq %al,%rax
   1fc52:	8b 55 f4             	mov    -0xc(%rbp),%edx
   1fc55:	48 8d 35 60 47 00 00 	lea    0x4760(%rip),%rsi        # 243bc <g_1963+0x32a8>
   1fc5c:	48 89 c7             	mov    %rax,%rdi
   1fc5f:	e8 8f da fe ff       	callq  d6f3 <transparent_crc>
   1fc64:	83 7d f4 00          	cmpl   $0x0,-0xc(%rbp)
   1fc68:	74 16                	je     1fc80 <main+0xaa7>
   1fc6a:	8b 45 e8             	mov    -0x18(%rbp),%eax
   1fc6d:	89 c6                	mov    %eax,%esi
   1fc6f:	48 8d 3d 42 45 00 00 	lea    0x4542(%rip),%rdi        # 241b8 <g_1963+0x30a4>
   1fc76:	b8 00 00 00 00       	mov    $0x0,%eax
   1fc7b:	e8 00 c4 fe ff       	callq  c080 <printf@plt>
   1fc80:	83 45 e8 01          	addl   $0x1,-0x18(%rbp)
   1fc84:	83 7d e8 09          	cmpl   $0x9,-0x18(%rbp)
   1fc88:	7e a7                	jle    1fc31 <main+0xa58>
   1fc8a:	0f b6 05 77 8b 00 00 	movzbl 0x8b77(%rip),%eax        # 28808 <g_1250>
   1fc91:	48 0f be c0          	movsbq %al,%rax
   1fc95:	8b 55 f4             	mov    -0xc(%rbp),%edx
   1fc98:	48 8d 35 2a 47 00 00 	lea    0x472a(%rip),%rsi        # 243c9 <g_1963+0x32b5>
   1fc9f:	48 89 c7             	mov    %rax,%rdi
   1fca2:	e8 4c da fe ff       	callq  d6f3 <transparent_crc>
   1fca7:	8b 05 5f 8b 00 00    	mov    0x8b5f(%rip),%eax        # 2880c <g_1279>
   1fcad:	c1 e0 03             	shl    $0x3,%eax
   1fcb0:	c0 f8 03             	sar    $0x3,%al
   1fcb3:	48 0f be c0          	movsbq %al,%rax
   1fcb7:	8b 55 f4             	mov    -0xc(%rbp),%edx
   1fcba:	48 8d 35 0f 47 00 00 	lea    0x470f(%rip),%rsi        # 243d0 <g_1963+0x32bc>
   1fcc1:	48 89 c7             	mov    %rax,%rdi
   1fcc4:	e8 2a da fe ff       	callq  d6f3 <transparent_crc>
   1fcc9:	8b 05 41 8b 00 00    	mov    0x8b41(%rip),%eax        # 28810 <g_1307>
   1fccf:	c1 e0 03             	shl    $0x3,%eax
   1fcd2:	c0 f8 03             	sar    $0x3,%al
   1fcd5:	48 0f be c0          	movsbq %al,%rax
   1fcd9:	8b 55 f4             	mov    -0xc(%rbp),%edx
   1fcdc:	48 8d 35 f7 46 00 00 	lea    0x46f7(%rip),%rsi        # 243da <g_1963+0x32c6>
   1fce3:	48 89 c7             	mov    %rax,%rdi
   1fce6:	e8 08 da fe ff       	callq  d6f3 <transparent_crc>
   1fceb:	8b 05 23 8b 00 00    	mov    0x8b23(%rip),%eax        # 28814 <g_1308>
   1fcf1:	c1 e0 03             	shl    $0x3,%eax
   1fcf4:	c0 f8 03             	sar    $0x3,%al
   1fcf7:	48 0f be c0          	movsbq %al,%rax
   1fcfb:	8b 55 f4             	mov    -0xc(%rbp),%edx
   1fcfe:	48 8d 35 df 46 00 00 	lea    0x46df(%rip),%rsi        # 243e4 <g_1963+0x32d0>
   1fd05:	48 89 c7             	mov    %rax,%rdi
   1fd08:	e8 e6 d9 fe ff       	callq  d6f3 <transparent_crc>
   1fd0d:	8b 05 05 8b 00 00    	mov    0x8b05(%rip),%eax        # 28818 <g_1368>
   1fd13:	48 98                	cltq   
   1fd15:	8b 55 f4             	mov    -0xc(%rbp),%edx
   1fd18:	48 8d 35 cf 46 00 00 	lea    0x46cf(%rip),%rsi        # 243ee <g_1963+0x32da>
   1fd1f:	48 89 c7             	mov    %rax,%rdi
   1fd22:	e8 cc d9 fe ff       	callq  d6f3 <transparent_crc>
   1fd27:	c7 45 e8 00 00 00 00 	movl   $0x0,-0x18(%rbp)
   1fd2e:	eb 4f                	jmp    1fd7f <main+0xba6>
   1fd30:	8b 45 e8             	mov    -0x18(%rbp),%eax
   1fd33:	48 98                	cltq   
   1fd35:	48 8d 14 c5 00 00 00 	lea    0x0(,%rax,8),%rdx
   1fd3c:	00 
   1fd3d:	48 8d 05 dc 8a 00 00 	lea    0x8adc(%rip),%rax        # 28820 <g_1398>
   1fd44:	48 8b 04 02          	mov    (%rdx,%rax,1),%rax
   1fd48:	48 89 c1             	mov    %rax,%rcx
   1fd4b:	8b 45 f4             	mov    -0xc(%rbp),%eax
   1fd4e:	89 c2                	mov    %eax,%edx
   1fd50:	48 8d 35 9e 46 00 00 	lea    0x469e(%rip),%rsi        # 243f5 <g_1963+0x32e1>
   1fd57:	48 89 cf             	mov    %rcx,%rdi
   1fd5a:	e8 94 d9 fe ff       	callq  d6f3 <transparent_crc>
   1fd5f:	83 7d f4 00          	cmpl   $0x0,-0xc(%rbp)
   1fd63:	74 16                	je     1fd7b <main+0xba2>
   1fd65:	8b 45 e8             	mov    -0x18(%rbp),%eax
   1fd68:	89 c6                	mov    %eax,%esi
   1fd6a:	48 8d 3d 47 44 00 00 	lea    0x4447(%rip),%rdi        # 241b8 <g_1963+0x30a4>
   1fd71:	b8 00 00 00 00       	mov    $0x0,%eax
   1fd76:	e8 05 c3 fe ff       	callq  c080 <printf@plt>
   1fd7b:	83 45 e8 01          	addl   $0x1,-0x18(%rbp)
   1fd7f:	83 7d e8 00          	cmpl   $0x0,-0x18(%rbp)
   1fd83:	7e ab                	jle    1fd30 <main+0xb57>
   1fd85:	8b 05 9d 8a 00 00    	mov    0x8a9d(%rip),%eax        # 28828 <g_1419>
   1fd8b:	c1 e0 03             	shl    $0x3,%eax
   1fd8e:	c0 f8 03             	sar    $0x3,%al
   1fd91:	48 0f be c0          	movsbq %al,%rax
   1fd95:	8b 55 f4             	mov    -0xc(%rbp),%edx
   1fd98:	48 8d 35 60 46 00 00 	lea    0x4660(%rip),%rsi        # 243ff <g_1963+0x32eb>
   1fd9f:	48 89 c7             	mov    %rax,%rdi
   1fda2:	e8 4c d9 fe ff       	callq  d6f3 <transparent_crc>
   1fda7:	b8 a9 bb ff ff       	mov    $0xffffbba9,%eax
   1fdac:	0f b7 c0             	movzwl %ax,%eax
   1fdaf:	8b 55 f4             	mov    -0xc(%rbp),%edx
   1fdb2:	48 8d 35 50 46 00 00 	lea    0x4650(%rip),%rsi        # 24409 <g_1963+0x32f5>
   1fdb9:	48 89 c7             	mov    %rax,%rdi
   1fdbc:	e8 32 d9 fe ff       	callq  d6f3 <transparent_crc>
   1fdc1:	c7 45 e8 00 00 00 00 	movl   $0x0,-0x18(%rbp)
   1fdc8:	eb 76                	jmp    1fe40 <main+0xc67>
   1fdca:	c7 45 ec 00 00 00 00 	movl   $0x0,-0x14(%rbp)
   1fdd1:	eb 63                	jmp    1fe36 <main+0xc5d>
   1fdd3:	8b 45 ec             	mov    -0x14(%rbp),%eax
   1fdd6:	48 63 c8             	movslq %eax,%rcx
   1fdd9:	8b 45 e8             	mov    -0x18(%rbp),%eax
   1fddc:	48 63 d0             	movslq %eax,%rdx
   1fddf:	48 89 d0             	mov    %rdx,%rax
   1fde2:	48 c1 e0 02          	shl    $0x2,%rax
   1fde6:	48 01 d0             	add    %rdx,%rax
   1fde9:	48 01 c0             	add    %rax,%rax
   1fdec:	48 01 c8             	add    %rcx,%rax
   1fdef:	48 8d 14 00          	lea    (%rax,%rax,1),%rdx
   1fdf3:	48 8d 05 66 12 00 00 	lea    0x1266(%rip),%rax        # 21060 <g_1479>
   1fdfa:	0f b7 04 02          	movzwl (%rdx,%rax,1),%eax
   1fdfe:	0f b7 c0             	movzwl %ax,%eax
   1fe01:	8b 55 f4             	mov    -0xc(%rbp),%edx
   1fe04:	48 8d 35 05 46 00 00 	lea    0x4605(%rip),%rsi        # 24410 <g_1963+0x32fc>
   1fe0b:	48 89 c7             	mov    %rax,%rdi
   1fe0e:	e8 e0 d8 fe ff       	callq  d6f3 <transparent_crc>
   1fe13:	83 7d f4 00          	cmpl   $0x0,-0xc(%rbp)
   1fe17:	74 19                	je     1fe32 <main+0xc59>
   1fe19:	8b 55 ec             	mov    -0x14(%rbp),%edx
   1fe1c:	8b 45 e8             	mov    -0x18(%rbp),%eax
   1fe1f:	89 c6                	mov    %eax,%esi
   1fe21:	48 8d 3d a3 44 00 00 	lea    0x44a3(%rip),%rdi        # 242cb <g_1963+0x31b7>
   1fe28:	b8 00 00 00 00       	mov    $0x0,%eax
   1fe2d:	e8 4e c2 fe ff       	callq  c080 <printf@plt>
   1fe32:	83 45 ec 01          	addl   $0x1,-0x14(%rbp)
   1fe36:	83 7d ec 09          	cmpl   $0x9,-0x14(%rbp)
   1fe3a:	7e 97                	jle    1fdd3 <main+0xbfa>
   1fe3c:	83 45 e8 01          	addl   $0x1,-0x18(%rbp)
   1fe40:	83 7d e8 08          	cmpl   $0x8,-0x18(%rbp)
   1fe44:	7e 84                	jle    1fdca <main+0xbf1>
   1fe46:	c7 45 e8 00 00 00 00 	movl   $0x0,-0x18(%rbp)
   1fe4d:	e9 b6 00 00 00       	jmpq   1ff08 <main+0xd2f>
   1fe52:	c7 45 ec 00 00 00 00 	movl   $0x0,-0x14(%rbp)
   1fe59:	e9 9c 00 00 00       	jmpq   1fefa <main+0xd21>
   1fe5e:	c7 45 f0 00 00 00 00 	movl   $0x0,-0x10(%rbp)
   1fe65:	e9 82 00 00 00       	jmpq   1feec <main+0xd13>
   1fe6a:	8b 45 f0             	mov    -0x10(%rbp),%eax
   1fe6d:	48 63 f0             	movslq %eax,%rsi
   1fe70:	8b 45 e8             	mov    -0x18(%rbp),%eax
   1fe73:	48 63 d0             	movslq %eax,%rdx
   1fe76:	8b 45 ec             	mov    -0x14(%rbp),%eax
   1fe79:	48 63 c8             	movslq %eax,%rcx
   1fe7c:	48 89 d0             	mov    %rdx,%rax
   1fe7f:	48 c1 e0 02          	shl    $0x2,%rax
   1fe83:	48 01 d0             	add    %rdx,%rax
   1fe86:	48 c1 e0 02          	shl    $0x2,%rax
   1fe8a:	48 01 d0             	add    %rdx,%rax
   1fe8d:	48 01 c0             	add    %rax,%rax
   1fe90:	48 89 ca             	mov    %rcx,%rdx
   1fe93:	48 01 d2             	add    %rdx,%rdx
   1fe96:	48 01 ca             	add    %rcx,%rdx
   1fe99:	48 01 d2             	add    %rdx,%rdx
   1fe9c:	48 01 d0             	add    %rdx,%rax
   1fe9f:	48 01 f0             	add    %rsi,%rax
   1fea2:	48 8d 14 00          	lea    (%rax,%rax,1),%rdx
   1fea6:	48 8d 05 93 89 00 00 	lea    0x8993(%rip),%rax        # 28840 <g_1514>
   1fead:	0f b7 04 02          	movzwl (%rdx,%rax,1),%eax
   1feb1:	0f b7 c0             	movzwl %ax,%eax
   1feb4:	8b 55 f4             	mov    -0xc(%rbp),%edx
   1feb7:	48 8d 35 5f 45 00 00 	lea    0x455f(%rip),%rsi        # 2441d <g_1963+0x3309>
   1febe:	48 89 c7             	mov    %rax,%rdi
   1fec1:	e8 2d d8 fe ff       	callq  d6f3 <transparent_crc>
   1fec6:	83 7d f4 00          	cmpl   $0x0,-0xc(%rbp)
   1feca:	74 1c                	je     1fee8 <main+0xd0f>
   1fecc:	8b 4d f0             	mov    -0x10(%rbp),%ecx
   1fecf:	8b 55 ec             	mov    -0x14(%rbp),%edx
   1fed2:	8b 45 e8             	mov    -0x18(%rbp),%eax
   1fed5:	89 c6                	mov    %eax,%esi
   1fed7:	48 8d 3d b7 42 00 00 	lea    0x42b7(%rip),%rdi        # 24195 <g_1963+0x3081>
   1fede:	b8 00 00 00 00       	mov    $0x0,%eax
   1fee3:	e8 98 c1 fe ff       	callq  c080 <printf@plt>
   1fee8:	83 45 f0 01          	addl   $0x1,-0x10(%rbp)
   1feec:	83 7d f0 05          	cmpl   $0x5,-0x10(%rbp)
   1fef0:	0f 8e 74 ff ff ff    	jle    1fe6a <main+0xc91>
   1fef6:	83 45 ec 01          	addl   $0x1,-0x14(%rbp)
   1fefa:	83 7d ec 06          	cmpl   $0x6,-0x14(%rbp)
   1fefe:	0f 8e 5a ff ff ff    	jle    1fe5e <main+0xc85>
   1ff04:	83 45 e8 01          	addl   $0x1,-0x18(%rbp)
   1ff08:	83 7d e8 03          	cmpl   $0x3,-0x18(%rbp)
   1ff0c:	0f 8e 40 ff ff ff    	jle    1fe52 <main+0xc79>
   1ff12:	8b 05 78 8a 00 00    	mov    0x8a78(%rip),%eax        # 28990 <g_1519>
   1ff18:	c1 e0 03             	shl    $0x3,%eax
   1ff1b:	c0 f8 03             	sar    $0x3,%al
   1ff1e:	48 0f be c0          	movsbq %al,%rax
   1ff22:	8b 55 f4             	mov    -0xc(%rbp),%edx
   1ff25:	48 8d 35 01 45 00 00 	lea    0x4501(%rip),%rsi        # 2442d <g_1963+0x3319>
   1ff2c:	48 89 c7             	mov    %rax,%rdi
   1ff2f:	e8 bf d7 fe ff       	callq  d6f3 <transparent_crc>
   1ff34:	48 8b 05 5d 8a 00 00 	mov    0x8a5d(%rip),%rax        # 28998 <g_1562>
   1ff3b:	48 89 c1             	mov    %rax,%rcx
   1ff3e:	8b 45 f4             	mov    -0xc(%rbp),%eax
   1ff41:	89 c2                	mov    %eax,%edx
   1ff43:	48 8d 35 ed 44 00 00 	lea    0x44ed(%rip),%rsi        # 24437 <g_1963+0x3323>
   1ff4a:	48 89 cf             	mov    %rcx,%rdi
   1ff4d:	e8 a1 d7 fe ff       	callq  d6f3 <transparent_crc>
   1ff52:	48 8b 05 27 d5 00 00 	mov    0xd527(%rip),%rax        # 2d480 <g_1565>
   1ff59:	8b 55 f4             	mov    -0xc(%rbp),%edx
   1ff5c:	48 8d 35 db 44 00 00 	lea    0x44db(%rip),%rsi        # 2443e <g_1963+0x332a>
   1ff63:	48 89 c7             	mov    %rax,%rdi
   1ff66:	e8 88 d7 fe ff       	callq  d6f3 <transparent_crc>
   1ff6b:	8b 05 17 d5 00 00    	mov    0xd517(%rip),%eax        # 2d488 <g_1571>
   1ff71:	c1 e0 03             	shl    $0x3,%eax
   1ff74:	c0 f8 03             	sar    $0x3,%al
   1ff77:	48 0f be c0          	movsbq %al,%rax
   1ff7b:	8b 55 f4             	mov    -0xc(%rbp),%edx
   1ff7e:	48 8d 35 c0 44 00 00 	lea    0x44c0(%rip),%rsi        # 24445 <g_1963+0x3331>
   1ff85:	48 89 c7             	mov    %rax,%rdi
   1ff88:	e8 66 d7 fe ff       	callq  d6f3 <transparent_crc>
   1ff8d:	c7 45 e8 00 00 00 00 	movl   $0x0,-0x18(%rbp)
   1ff94:	eb 49                	jmp    1ffdf <main+0xe06>
   1ff96:	8b 45 e8             	mov    -0x18(%rbp),%eax
   1ff99:	48 98                	cltq   
   1ff9b:	48 8d 14 00          	lea    (%rax,%rax,1),%rdx
   1ff9f:	48 8d 05 fa 89 00 00 	lea    0x89fa(%rip),%rax        # 289a0 <g_1687>
   1ffa6:	0f b7 04 02          	movzwl (%rdx,%rax,1),%eax
   1ffaa:	0f b7 c0             	movzwl %ax,%eax
   1ffad:	8b 55 f4             	mov    -0xc(%rbp),%edx
   1ffb0:	48 8d 35 98 44 00 00 	lea    0x4498(%rip),%rsi        # 2444f <g_1963+0x333b>
   1ffb7:	48 89 c7             	mov    %rax,%rdi
   1ffba:	e8 34 d7 fe ff       	callq  d6f3 <transparent_crc>
   1ffbf:	83 7d f4 00          	cmpl   $0x0,-0xc(%rbp)
   1ffc3:	74 16                	je     1ffdb <main+0xe02>
   1ffc5:	8b 45 e8             	mov    -0x18(%rbp),%eax
   1ffc8:	89 c6                	mov    %eax,%esi
   1ffca:	48 8d 3d e7 41 00 00 	lea    0x41e7(%rip),%rdi        # 241b8 <g_1963+0x30a4>
   1ffd1:	b8 00 00 00 00       	mov    $0x0,%eax
   1ffd6:	e8 a5 c0 fe ff       	callq  c080 <printf@plt>
   1ffdb:	83 45 e8 01          	addl   $0x1,-0x18(%rbp)
   1ffdf:	83 7d e8 06          	cmpl   $0x6,-0x18(%rbp)
   1ffe3:	7e b1                	jle    1ff96 <main+0xdbd>
   1ffe5:	0f b7 05 c2 89 00 00 	movzwl 0x89c2(%rip),%eax        # 289ae <g_1694>
   1ffec:	48 0f bf c0          	movswq %ax,%rax
   1fff0:	8b 55 f4             	mov    -0xc(%rbp),%edx
   1fff3:	48 8d 35 5f 44 00 00 	lea    0x445f(%rip),%rsi        # 24459 <g_1963+0x3345>
   1fffa:	48 89 c7             	mov    %rax,%rdi
   1fffd:	e8 f1 d6 fe ff       	callq  d6f3 <transparent_crc>
   20002:	8b 05 a8 89 00 00    	mov    0x89a8(%rip),%eax        # 289b0 <g_1734>
   20008:	c1 e0 03             	shl    $0x3,%eax
   2000b:	c0 f8 03             	sar    $0x3,%al
   2000e:	48 0f be c0          	movsbq %al,%rax
   20012:	8b 55 f4             	mov    -0xc(%rbp),%edx
   20015:	48 8d 35 44 44 00 00 	lea    0x4444(%rip),%rsi        # 24460 <g_1963+0x334c>
   2001c:	48 89 c7             	mov    %rax,%rdi
   2001f:	e8 cf d6 fe ff       	callq  d6f3 <transparent_crc>
   20024:	48 8b 05 8d 89 00 00 	mov    0x898d(%rip),%rax        # 289b8 <g_1754>
   2002b:	48 89 c1             	mov    %rax,%rcx
   2002e:	8b 45 f4             	mov    -0xc(%rbp),%eax
   20031:	89 c2                	mov    %eax,%edx
   20033:	48 8d 35 30 44 00 00 	lea    0x4430(%rip),%rsi        # 2446a <g_1963+0x3356>
   2003a:	48 89 cf             	mov    %rcx,%rdi
   2003d:	e8 b1 d6 fe ff       	callq  d6f3 <transparent_crc>
   20042:	c7 45 e8 00 00 00 00 	movl   $0x0,-0x18(%rbp)
   20049:	eb 7d                	jmp    200c8 <main+0xeef>
   2004b:	c7 45 ec 00 00 00 00 	movl   $0x0,-0x14(%rbp)
   20052:	eb 6a                	jmp    200be <main+0xee5>
   20054:	8b 45 ec             	mov    -0x14(%rbp),%eax
   20057:	48 63 c8             	movslq %eax,%rcx
   2005a:	8b 45 e8             	mov    -0x18(%rbp),%eax
   2005d:	48 63 d0             	movslq %eax,%rdx
   20060:	48 89 d0             	mov    %rdx,%rax
   20063:	48 c1 e0 02          	shl    $0x2,%rax
   20067:	48 01 d0             	add    %rdx,%rax
   2006a:	48 01 c8             	add    %rcx,%rax
   2006d:	48 8d 14 85 00 00 00 	lea    0x0(,%rax,4),%rdx
   20074:	00 
   20075:	48 8d 05 44 89 00 00 	lea    0x8944(%rip),%rax        # 289c0 <g_1790>
   2007c:	8b 04 02             	mov    (%rdx,%rax,1),%eax
   2007f:	c1 e0 03             	shl    $0x3,%eax
   20082:	c0 f8 03             	sar    $0x3,%al
   20085:	48 0f be c0          	movsbq %al,%rax
   20089:	8b 55 f4             	mov    -0xc(%rbp),%edx
   2008c:	48 8d 35 de 43 00 00 	lea    0x43de(%rip),%rsi        # 24471 <g_1963+0x335d>
   20093:	48 89 c7             	mov    %rax,%rdi
   20096:	e8 58 d6 fe ff       	callq  d6f3 <transparent_crc>
   2009b:	83 7d f4 00          	cmpl   $0x0,-0xc(%rbp)
   2009f:	74 19                	je     200ba <main+0xee1>
   200a1:	8b 55 ec             	mov    -0x14(%rbp),%edx
   200a4:	8b 45 e8             	mov    -0x18(%rbp),%eax
   200a7:	89 c6                	mov    %eax,%esi
   200a9:	48 8d 3d 1b 42 00 00 	lea    0x421b(%rip),%rdi        # 242cb <g_1963+0x31b7>
   200b0:	b8 00 00 00 00       	mov    $0x0,%eax
   200b5:	e8 c6 bf fe ff       	callq  c080 <printf@plt>
   200ba:	83 45 ec 01          	addl   $0x1,-0x14(%rbp)
   200be:	83 7d ec 04          	cmpl   $0x4,-0x14(%rbp)
   200c2:	7e 90                	jle    20054 <main+0xe7b>
   200c4:	83 45 e8 01          	addl   $0x1,-0x18(%rbp)
   200c8:	83 7d e8 00          	cmpl   $0x0,-0x18(%rbp)
   200cc:	0f 8e 79 ff ff ff    	jle    2004b <main+0xe72>
   200d2:	b8 0d 88 37 73       	mov    $0x7337880d,%eax
   200d7:	48 98                	cltq   
   200d9:	8b 55 f4             	mov    -0xc(%rbp),%edx
   200dc:	48 8d 35 9e 43 00 00 	lea    0x439e(%rip),%rsi        # 24481 <g_1963+0x336d>
   200e3:	48 89 c7             	mov    %rax,%rdi
   200e6:	e8 08 d6 fe ff       	callq  d6f3 <transparent_crc>
   200eb:	8b 05 e3 88 00 00    	mov    0x88e3(%rip),%eax        # 289d4 <g_2070>
   200f1:	c1 e0 03             	shl    $0x3,%eax
   200f4:	c0 f8 03             	sar    $0x3,%al
   200f7:	48 0f be c0          	movsbq %al,%rax
   200fb:	8b 55 f4             	mov    -0xc(%rbp),%edx
   200fe:	48 8d 35 83 43 00 00 	lea    0x4383(%rip),%rsi        # 24488 <g_1963+0x3374>
   20105:	48 89 c7             	mov    %rax,%rdi
   20108:	e8 e6 d5 fe ff       	callq  d6f3 <transparent_crc>
   2010d:	8b 05 c5 88 00 00    	mov    0x88c5(%rip),%eax        # 289d8 <g_2163>
   20113:	48 98                	cltq   
   20115:	8b 55 f4             	mov    -0xc(%rbp),%edx
   20118:	48 8d 35 73 43 00 00 	lea    0x4373(%rip),%rsi        # 24492 <g_1963+0x337e>
   2011f:	48 89 c7             	mov    %rax,%rdi
   20122:	e8 cc d5 fe ff       	callq  d6f3 <transparent_crc>
   20127:	8b 05 af 88 00 00    	mov    0x88af(%rip),%eax        # 289dc <g_2185>
   2012d:	c1 e0 03             	shl    $0x3,%eax
   20130:	c0 f8 03             	sar    $0x3,%al
   20133:	48 0f be c0          	movsbq %al,%rax
   20137:	8b 55 f4             	mov    -0xc(%rbp),%edx
   2013a:	48 8d 35 58 43 00 00 	lea    0x4358(%rip),%rsi        # 24499 <g_1963+0x3385>
   20141:	48 89 c7             	mov    %rax,%rdi
   20144:	e8 aa d5 fe ff       	callq  d6f3 <transparent_crc>
   20149:	8b 05 91 88 00 00    	mov    0x8891(%rip),%eax        # 289e0 <g_2297>
   2014f:	c1 e0 03             	shl    $0x3,%eax
   20152:	c0 f8 03             	sar    $0x3,%al
   20155:	48 0f be c0          	movsbq %al,%rax
   20159:	8b 55 f4             	mov    -0xc(%rbp),%edx
   2015c:	48 8d 35 40 43 00 00 	lea    0x4340(%rip),%rsi        # 244a3 <g_1963+0x338f>
   20163:	48 89 c7             	mov    %rax,%rdi
   20166:	e8 88 d5 fe ff       	callq  d6f3 <transparent_crc>
   2016b:	0f b6 05 72 88 00 00 	movzbl 0x8872(%rip),%eax        # 289e4 <g_2331>
   20172:	48 0f be c0          	movsbq %al,%rax
   20176:	8b 55 f4             	mov    -0xc(%rbp),%edx
   20179:	48 8d 35 2d 43 00 00 	lea    0x432d(%rip),%rsi        # 244ad <g_1963+0x3399>
   20180:	48 89 c7             	mov    %rax,%rdi
   20183:	e8 6b d5 fe ff       	callq  d6f3 <transparent_crc>
   20188:	8b 05 5a 88 00 00    	mov    0x885a(%rip),%eax        # 289e8 <g_2344>
   2018e:	c1 e0 03             	shl    $0x3,%eax
   20191:	c0 f8 03             	sar    $0x3,%al
   20194:	48 0f be c0          	movsbq %al,%rax
   20198:	8b 55 f4             	mov    -0xc(%rbp),%edx
   2019b:	48 8d 35 12 43 00 00 	lea    0x4312(%rip),%rsi        # 244b4 <g_1963+0x33a0>
   201a2:	48 89 c7             	mov    %rax,%rdi
   201a5:	e8 49 d5 fe ff       	callq  d6f3 <transparent_crc>
   201aa:	c7 45 e8 00 00 00 00 	movl   $0x0,-0x18(%rbp)
   201b1:	eb 45                	jmp    201f8 <main+0x101f>
   201b3:	8b 45 e8             	mov    -0x18(%rbp),%eax
   201b6:	48 98                	cltq   
   201b8:	48 8d 15 2d 88 00 00 	lea    0x882d(%rip),%rdx        # 289ec <g_2433>
   201bf:	0f b6 04 10          	movzbl (%rax,%rdx,1),%eax
   201c3:	0f b6 c0             	movzbl %al,%eax
   201c6:	8b 55 f4             	mov    -0xc(%rbp),%edx
   201c9:	48 8d 35 ee 42 00 00 	lea    0x42ee(%rip),%rsi        # 244be <g_1963+0x33aa>
   201d0:	48 89 c7             	mov    %rax,%rdi
   201d3:	e8 1b d5 fe ff       	callq  d6f3 <transparent_crc>
   201d8:	83 7d f4 00          	cmpl   $0x0,-0xc(%rbp)
   201dc:	74 16                	je     201f4 <main+0x101b>
   201de:	8b 45 e8             	mov    -0x18(%rbp),%eax
   201e1:	89 c6                	mov    %eax,%esi
   201e3:	48 8d 3d ce 3f 00 00 	lea    0x3fce(%rip),%rdi        # 241b8 <g_1963+0x30a4>
   201ea:	b8 00 00 00 00       	mov    $0x0,%eax
   201ef:	e8 8c be fe ff       	callq  c080 <printf@plt>
   201f4:	83 45 e8 01          	addl   $0x1,-0x18(%rbp)
   201f8:	83 7d e8 03          	cmpl   $0x3,-0x18(%rbp)
   201fc:	7e b5                	jle    201b3 <main+0xfda>
   201fe:	8b 05 ec 87 00 00    	mov    0x87ec(%rip),%eax        # 289f0 <g_2435>
   20204:	c1 e0 03             	shl    $0x3,%eax
   20207:	c0 f8 03             	sar    $0x3,%al
   2020a:	48 0f be c0          	movsbq %al,%rax
   2020e:	8b 55 f4             	mov    -0xc(%rbp),%edx
   20211:	48 8d 35 b0 42 00 00 	lea    0x42b0(%rip),%rsi        # 244c8 <g_1963+0x33b4>
   20218:	48 89 c7             	mov    %rax,%rdi
   2021b:	e8 d3 d4 fe ff       	callq  d6f3 <transparent_crc>
   20220:	48 8b 05 d9 87 00 00 	mov    0x87d9(%rip),%rax        # 28a00 <g_2562>
   20227:	8b 55 f4             	mov    -0xc(%rbp),%edx
   2022a:	48 8d 35 a1 42 00 00 	lea    0x42a1(%rip),%rsi        # 244d2 <g_1963+0x33be>
   20231:	48 89 c7             	mov    %rax,%rdi
   20234:	e8 ba d4 fe ff       	callq  d6f3 <transparent_crc>
   20239:	48 8b 05 c8 87 00 00 	mov    0x87c8(%rip),%rax        # 28a08 <g_2562+0x8>
   20240:	8b 55 f4             	mov    -0xc(%rbp),%edx
   20243:	48 8d 35 92 42 00 00 	lea    0x4292(%rip),%rsi        # 244dc <g_1963+0x33c8>
   2024a:	48 89 c7             	mov    %rax,%rdi
   2024d:	e8 a1 d4 fe ff       	callq  d6f3 <transparent_crc>
   20252:	48 8b 05 b7 87 00 00 	mov    0x87b7(%rip),%rax        # 28a10 <g_2562+0x10>
   20259:	48 89 c1             	mov    %rax,%rcx
   2025c:	8b 45 f4             	mov    -0xc(%rbp),%eax
   2025f:	89 c2                	mov    %eax,%edx
   20261:	48 8d 35 7e 42 00 00 	lea    0x427e(%rip),%rsi        # 244e6 <g_1963+0x33d2>
   20268:	48 89 cf             	mov    %rcx,%rdi
   2026b:	e8 83 d4 fe ff       	callq  d6f3 <transparent_crc>
   20270:	8b 05 a2 87 00 00    	mov    0x87a2(%rip),%eax        # 28a18 <g_2562+0x18>
   20276:	89 c1                	mov    %eax,%ecx
   20278:	8b 45 f4             	mov    -0xc(%rbp),%eax
   2027b:	89 c2                	mov    %eax,%edx
   2027d:	48 8d 35 6c 42 00 00 	lea    0x426c(%rip),%rsi        # 244f0 <g_1963+0x33dc>
   20284:	48 89 cf             	mov    %rcx,%rdi
   20287:	e8 67 d4 fe ff       	callq  d6f3 <transparent_crc>
   2028c:	48 8b 05 89 87 00 00 	mov    0x8789(%rip),%rax        # 28a1c <g_2562+0x1c>
   20293:	8b 55 f4             	mov    -0xc(%rbp),%edx
   20296:	48 8d 35 5d 42 00 00 	lea    0x425d(%rip),%rsi        # 244fa <g_1963+0x33e6>
   2029d:	48 89 c7             	mov    %rax,%rdi
   202a0:	e8 4e d4 fe ff       	callq  d6f3 <transparent_crc>
   202a5:	0f b7 05 78 87 00 00 	movzwl 0x8778(%rip),%eax        # 28a24 <g_2562+0x24>
   202ac:	0f b7 c0             	movzwl %ax,%eax
   202af:	8b 55 f4             	mov    -0xc(%rbp),%edx
   202b2:	48 8d 35 4b 42 00 00 	lea    0x424b(%rip),%rsi        # 24504 <g_1963+0x33f0>
   202b9:	48 89 c7             	mov    %rax,%rdi
   202bc:	e8 32 d4 fe ff       	callq  d6f3 <transparent_crc>
   202c1:	8b 05 61 87 00 00    	mov    0x8761(%rip),%eax        # 28a28 <g_2631>
   202c7:	c1 e0 03             	shl    $0x3,%eax
   202ca:	c0 f8 03             	sar    $0x3,%al
   202cd:	48 0f be c0          	movsbq %al,%rax
   202d1:	8b 55 f4             	mov    -0xc(%rbp),%edx
   202d4:	48 8d 35 33 42 00 00 	lea    0x4233(%rip),%rsi        # 2450e <g_1963+0x33fa>
   202db:	48 89 c7             	mov    %rax,%rdi
   202de:	e8 10 d4 fe ff       	callq  d6f3 <transparent_crc>
   202e3:	8b 05 0f d2 00 00    	mov    0xd20f(%rip),%eax        # 2d4f8 <g_2674>
   202e9:	c1 e0 03             	shl    $0x3,%eax
   202ec:	c0 f8 03             	sar    $0x3,%al
   202ef:	48 0f be c0          	movsbq %al,%rax
   202f3:	8b 55 f4             	mov    -0xc(%rbp),%edx
   202f6:	48 8d 35 1b 42 00 00 	lea    0x421b(%rip),%rsi        # 24518 <g_1963+0x3404>
   202fd:	48 89 c7             	mov    %rax,%rdi
   20300:	e8 ee d3 fe ff       	callq  d6f3 <transparent_crc>
   20305:	8b 05 15 7d 00 00    	mov    0x7d15(%rip),%eax        # 28020 <crc32_context>
   2030b:	f7 d0                	not    %eax
   2030d:	89 c2                	mov    %eax,%edx
   2030f:	8b 45 f4             	mov    -0xc(%rbp),%eax
   20312:	89 c6                	mov    %eax,%esi
   20314:	89 d7                	mov    %edx,%edi
   20316:	e8 79 be fe ff       	callq  c194 <platform_main_end>
   2031b:	b8 00 00 00 00       	mov    $0x0,%eax
   20320:	48 8b 4d f8          	mov    -0x8(%rbp),%rcx
   20324:	64 48 33 0c 25 28 00 	xor    %fs:0x28,%rcx
   2032b:	00 00 
   2032d:	74 05                	je     20334 <main+0x115b>
   2032f:	e8 3c bd fe ff       	callq  c070 <__stack_chk_fail@plt>
   20334:	c9                   	leaveq 
   20335:	c3                   	retq   
   20336:	66 2e 0f 1f 84 00 00 	nopw   %cs:0x0(%rax,%rax,1)
   2033d:	00 00 00 

0000000000020340 <__libc_csu_init>:
   20340:	f3 0f 1e fa          	endbr64 
   20344:	41 57                	push   %r15
   20346:	4c 8d 3d 03 78 00 00 	lea    0x7803(%rip),%r15        # 27b50 <__frame_dummy_init_array_entry>
   2034d:	41 56                	push   %r14
   2034f:	49 89 d6             	mov    %rdx,%r14
   20352:	41 55                	push   %r13
   20354:	49 89 f5             	mov    %rsi,%r13
   20357:	41 54                	push   %r12
   20359:	41 89 fc             	mov    %edi,%r12d
   2035c:	55                   	push   %rbp
   2035d:	48 8d 2d f4 77 00 00 	lea    0x77f4(%rip),%rbp        # 27b58 <__do_global_dtors_aux_fini_array_entry>
   20364:	53                   	push   %rbx
   20365:	4c 29 fd             	sub    %r15,%rbp
   20368:	48 83 ec 08          	sub    $0x8,%rsp
   2036c:	e8 8f bc fe ff       	callq  c000 <_init>
   20371:	48 c1 fd 03          	sar    $0x3,%rbp
   20375:	74 1f                	je     20396 <__libc_csu_init+0x56>
   20377:	31 db                	xor    %ebx,%ebx
   20379:	0f 1f 80 00 00 00 00 	nopl   0x0(%rax)
   20380:	4c 89 f2             	mov    %r14,%rdx
   20383:	4c 89 ee             	mov    %r13,%rsi
   20386:	44 89 e7             	mov    %r12d,%edi
   20389:	41 ff 14 df          	callq  *(%r15,%rbx,8)
   2038d:	48 83 c3 01          	add    $0x1,%rbx
   20391:	48 39 dd             	cmp    %rbx,%rbp
   20394:	75 ea                	jne    20380 <__libc_csu_init+0x40>
   20396:	48 83 c4 08          	add    $0x8,%rsp
   2039a:	5b                   	pop    %rbx
   2039b:	5d                   	pop    %rbp
   2039c:	41 5c                	pop    %r12
   2039e:	41 5d                	pop    %r13
   203a0:	41 5e                	pop    %r14
   203a2:	41 5f                	pop    %r15
   203a4:	c3                   	retq   
   203a5:	66 66 2e 0f 1f 84 00 	data16 nopw %cs:0x0(%rax,%rax,1)
   203ac:	00 00 00 00 

00000000000203b0 <__libc_csu_fini>:
   203b0:	f3 0f 1e fa          	endbr64 
   203b4:	c3                   	retq   
