


Disassembly of section .text:

00000000000030a0 <_start>:
    30a0:	f3 0f 1e fa          	endbr64 
    30a4:	31 ed                	xor    %ebp,%ebp
    30a6:	49 89 d1             	mov    %rdx,%r9
    30a9:	5e                   	pop    %rsi
    30aa:	48 89 e2             	mov    %rsp,%rdx
    30ad:	48 83 e4 f0          	and    $0xfffffffffffffff0,%rsp
    30b1:	50                   	push   %rax
    30b2:	54                   	push   %rsp
    30b3:	4c 8d 05 96 a3 00 00 	lea    0xa396(%rip),%r8        # d450 <__libc_csu_fini>
    30ba:	48 8d 0d 1f a3 00 00 	lea    0xa31f(%rip),%rcx        # d3e0 <__libc_csu_init>
    30c1:	48 8d 3d dd 8f 00 00 	lea    0x8fdd(%rip),%rdi        # c0a5 <main>
    30c8:	ff 15 0a df 00 00    	callq  *0xdf0a(%rip)        # 10fd8 <__libc_start_main@GLIBC_2.2.5>
    30ce:	f4                   	hlt    
    30cf:	90                   	nop

00000000000030d0 <deregister_tm_clones>:
    30d0:	48 8d 3d 21 0e 01 00 	lea    0x10e21(%rip),%rdi        # 13ef8 <__TMC_END__>
    30d7:	48 8d 05 1a 0e 01 00 	lea    0x10e1a(%rip),%rax        # 13ef8 <__TMC_END__>
    30de:	48 39 f8             	cmp    %rdi,%rax
    30e1:	74 15                	je     30f8 <deregister_tm_clones+0x28>
    30e3:	48 8b 05 e6 de 00 00 	mov    0xdee6(%rip),%rax        # 10fd0 <_ITM_deregisterTMCloneTable>
    30ea:	48 85 c0             	test   %rax,%rax
    30ed:	74 09                	je     30f8 <deregister_tm_clones+0x28>
    30ef:	ff e0                	jmpq   *%rax
    30f1:	0f 1f 80 00 00 00 00 	nopl   0x0(%rax)
    30f8:	c3                   	retq   
    30f9:	0f 1f 80 00 00 00 00 	nopl   0x0(%rax)

0000000000003100 <register_tm_clones>:
    3100:	48 8d 3d f1 0d 01 00 	lea    0x10df1(%rip),%rdi        # 13ef8 <__TMC_END__>
    3107:	48 8d 35 ea 0d 01 00 	lea    0x10dea(%rip),%rsi        # 13ef8 <__TMC_END__>
    310e:	48 29 fe             	sub    %rdi,%rsi
    3111:	48 89 f0             	mov    %rsi,%rax
    3114:	48 c1 ee 3f          	shr    $0x3f,%rsi
    3118:	48 c1 f8 03          	sar    $0x3,%rax
    311c:	48 01 c6             	add    %rax,%rsi
    311f:	48 d1 fe             	sar    %rsi
    3122:	74 14                	je     3138 <register_tm_clones+0x38>
    3124:	48 8b 05 bd de 00 00 	mov    0xdebd(%rip),%rax        # 10fe8 <_ITM_registerTMCloneTable>
    312b:	48 85 c0             	test   %rax,%rax
    312e:	74 08                	je     3138 <register_tm_clones+0x38>
    3130:	ff e0                	jmpq   *%rax
    3132:	66 0f 1f 44 00 00    	nopw   0x0(%rax,%rax,1)
    3138:	c3                   	retq   
    3139:	0f 1f 80 00 00 00 00 	nopl   0x0(%rax)

0000000000003140 <__do_global_dtors_aux>:
    3140:	f3 0f 1e fa          	endbr64 
    3144:	80 3d b5 0d 01 00 00 	cmpb   $0x0,0x10db5(%rip)        # 13f00 <completed.8061>
    314b:	75 2b                	jne    3178 <__do_global_dtors_aux+0x38>
    314d:	55                   	push   %rbp
    314e:	48 83 3d 9a de 00 00 	cmpq   $0x0,0xde9a(%rip)        # 10ff0 <__cxa_finalize@GLIBC_2.2.5>
    3155:	00 
    3156:	48 89 e5             	mov    %rsp,%rbp
    3159:	74 0c                	je     3167 <__do_global_dtors_aux+0x27>
    315b:	48 8b 3d a6 de 00 00 	mov    0xdea6(%rip),%rdi        # 11008 <__dso_handle>
    3162:	e8 f9 fe ff ff       	callq  3060 <__cxa_finalize@plt>
    3167:	e8 64 ff ff ff       	callq  30d0 <deregister_tm_clones>
    316c:	c6 05 8d 0d 01 00 01 	movb   $0x1,0x10d8d(%rip)        # 13f00 <completed.8061>
    3173:	5d                   	pop    %rbp
    3174:	c3                   	retq   
    3175:	0f 1f 00             	nopl   (%rax)
    3178:	c3                   	retq   
    3179:	0f 1f 80 00 00 00 00 	nopl   0x0(%rax)

0000000000003180 <frame_dummy>:
    3180:	f3 0f 1e fa          	endbr64 
    3184:	e9 77 ff ff ff       	jmpq   3100 <register_tm_clones>

0000000000003189 <platform_main_begin>:
    3189:	f3 0f 1e fa          	endbr64 
    318d:	55                   	push   %rbp
    318e:	48 89 e5             	mov    %rsp,%rbp
    3191:	90                   	nop
    3192:	5d                   	pop    %rbp
    3193:	c3                   	retq   

0000000000003194 <platform_main_end>:
    3194:	f3 0f 1e fa          	endbr64 
    3198:	55                   	push   %rbp
    3199:	48 89 e5             	mov    %rsp,%rbp
    319c:	48 83 ec 10          	sub    $0x10,%rsp
    31a0:	89 7d fc             	mov    %edi,-0x4(%rbp)
    31a3:	89 75 f8             	mov    %esi,-0x8(%rbp)
    31a6:	8b 45 fc             	mov    -0x4(%rbp),%eax
    31a9:	89 c6                	mov    %eax,%esi
    31ab:	48 8d 3d 6e ae 00 00 	lea    0xae6e(%rip),%rdi        # e020 <_IO_stdin_used+0x20>
    31b2:	b8 00 00 00 00       	mov    $0x0,%eax
    31b7:	e8 c4 fe ff ff       	callq  3080 <printf@plt>
    31bc:	90                   	nop
    31bd:	c9                   	leaveq 
    31be:	c3                   	retq   

00000000000031bf <safe_unary_minus_func_int8_t_s>:
    31bf:	f3 0f 1e fa          	endbr64 
    31c3:	55                   	push   %rbp
    31c4:	48 89 e5             	mov    %rsp,%rbp
    31c7:	89 f8                	mov    %edi,%eax
    31c9:	88 45 fc             	mov    %al,-0x4(%rbp)
    31cc:	0f b6 45 fc          	movzbl -0x4(%rbp),%eax
    31d0:	f7 d8                	neg    %eax
    31d2:	5d                   	pop    %rbp
    31d3:	c3                   	retq   

00000000000031d4 <safe_add_func_int8_t_s_s>:
    31d4:	f3 0f 1e fa          	endbr64 
    31d8:	55                   	push   %rbp
    31d9:	48 89 e5             	mov    %rsp,%rbp
    31dc:	89 fa                	mov    %edi,%edx
    31de:	89 f0                	mov    %esi,%eax
    31e0:	88 55 fc             	mov    %dl,-0x4(%rbp)
    31e3:	88 45 f8             	mov    %al,-0x8(%rbp)
    31e6:	0f b6 55 fc          	movzbl -0x4(%rbp),%edx
    31ea:	0f b6 45 f8          	movzbl -0x8(%rbp),%eax
    31ee:	01 d0                	add    %edx,%eax
    31f0:	5d                   	pop    %rbp
    31f1:	c3                   	retq   

00000000000031f2 <safe_sub_func_int8_t_s_s>:
    31f2:	f3 0f 1e fa          	endbr64 
    31f6:	55                   	push   %rbp
    31f7:	48 89 e5             	mov    %rsp,%rbp
    31fa:	89 fa                	mov    %edi,%edx
    31fc:	89 f0                	mov    %esi,%eax
    31fe:	88 55 fc             	mov    %dl,-0x4(%rbp)
    3201:	88 45 f8             	mov    %al,-0x8(%rbp)
    3204:	0f b6 55 fc          	movzbl -0x4(%rbp),%edx
    3208:	0f b6 45 f8          	movzbl -0x8(%rbp),%eax
    320c:	29 c2                	sub    %eax,%edx
    320e:	89 d0                	mov    %edx,%eax
    3210:	5d                   	pop    %rbp
    3211:	c3                   	retq   

0000000000003212 <safe_mul_func_int8_t_s_s>:
    3212:	f3 0f 1e fa          	endbr64 
    3216:	55                   	push   %rbp
    3217:	48 89 e5             	mov    %rsp,%rbp
    321a:	89 fa                	mov    %edi,%edx
    321c:	89 f0                	mov    %esi,%eax
    321e:	88 55 fc             	mov    %dl,-0x4(%rbp)
    3221:	88 45 f8             	mov    %al,-0x8(%rbp)
    3224:	0f b6 45 fc          	movzbl -0x4(%rbp),%eax
    3228:	0f b6 55 f8          	movzbl -0x8(%rbp),%edx
    322c:	0f af c2             	imul   %edx,%eax
    322f:	5d                   	pop    %rbp
    3230:	c3                   	retq   

0000000000003231 <safe_mod_func_int8_t_s_s>:
    3231:	f3 0f 1e fa          	endbr64 
    3235:	55                   	push   %rbp
    3236:	48 89 e5             	mov    %rsp,%rbp
    3239:	89 fa                	mov    %edi,%edx
    323b:	89 f0                	mov    %esi,%eax
    323d:	88 55 fc             	mov    %dl,-0x4(%rbp)
    3240:	88 45 f8             	mov    %al,-0x8(%rbp)
    3243:	80 7d f8 00          	cmpb   $0x0,-0x8(%rbp)
    3247:	74 1b                	je     3264 <safe_mod_func_int8_t_s_s+0x33>
    3249:	80 7d fc 80          	cmpb   $0x80,-0x4(%rbp)
    324d:	75 06                	jne    3255 <safe_mod_func_int8_t_s_s+0x24>
    324f:	80 7d f8 ff          	cmpb   $0xff,-0x8(%rbp)
    3253:	74 0f                	je     3264 <safe_mod_func_int8_t_s_s+0x33>
    3255:	0f be 45 fc          	movsbl -0x4(%rbp),%eax
    3259:	0f be 4d f8          	movsbl -0x8(%rbp),%ecx
    325d:	99                   	cltd   
    325e:	f7 f9                	idiv   %ecx
    3260:	89 d0                	mov    %edx,%eax
    3262:	eb 04                	jmp    3268 <safe_mod_func_int8_t_s_s+0x37>
    3264:	0f b6 45 fc          	movzbl -0x4(%rbp),%eax
    3268:	5d                   	pop    %rbp
    3269:	c3                   	retq   

000000000000326a <safe_div_func_int8_t_s_s>:
    326a:	f3 0f 1e fa          	endbr64 
    326e:	55                   	push   %rbp
    326f:	48 89 e5             	mov    %rsp,%rbp
    3272:	89 fa                	mov    %edi,%edx
    3274:	89 f0                	mov    %esi,%eax
    3276:	88 55 fc             	mov    %dl,-0x4(%rbp)
    3279:	88 45 f8             	mov    %al,-0x8(%rbp)
    327c:	80 7d f8 00          	cmpb   $0x0,-0x8(%rbp)
    3280:	74 19                	je     329b <safe_div_func_int8_t_s_s+0x31>
    3282:	80 7d fc 80          	cmpb   $0x80,-0x4(%rbp)
    3286:	75 06                	jne    328e <safe_div_func_int8_t_s_s+0x24>
    3288:	80 7d f8 ff          	cmpb   $0xff,-0x8(%rbp)
    328c:	74 0d                	je     329b <safe_div_func_int8_t_s_s+0x31>
    328e:	0f be 45 fc          	movsbl -0x4(%rbp),%eax
    3292:	0f be 4d f8          	movsbl -0x8(%rbp),%ecx
    3296:	99                   	cltd   
    3297:	f7 f9                	idiv   %ecx
    3299:	eb 04                	jmp    329f <safe_div_func_int8_t_s_s+0x35>
    329b:	0f b6 45 fc          	movzbl -0x4(%rbp),%eax
    329f:	5d                   	pop    %rbp
    32a0:	c3                   	retq   

00000000000032a1 <safe_lshift_func_int8_t_s_s>:
    32a1:	f3 0f 1e fa          	endbr64 
    32a5:	55                   	push   %rbp
    32a6:	48 89 e5             	mov    %rsp,%rbp
    32a9:	89 f8                	mov    %edi,%eax
    32ab:	89 75 f8             	mov    %esi,-0x8(%rbp)
    32ae:	88 45 fc             	mov    %al,-0x4(%rbp)
    32b1:	80 7d fc 00          	cmpb   $0x0,-0x4(%rbp)
    32b5:	78 31                	js     32e8 <safe_lshift_func_int8_t_s_s+0x47>
    32b7:	83 7d f8 00          	cmpl   $0x0,-0x8(%rbp)
    32bb:	78 2b                	js     32e8 <safe_lshift_func_int8_t_s_s+0x47>
    32bd:	83 7d f8 1f          	cmpl   $0x1f,-0x8(%rbp)
    32c1:	7f 25                	jg     32e8 <safe_lshift_func_int8_t_s_s+0x47>
    32c3:	0f be 55 fc          	movsbl -0x4(%rbp),%edx
    32c7:	8b 45 f8             	mov    -0x8(%rbp),%eax
    32ca:	be 7f 00 00 00       	mov    $0x7f,%esi
    32cf:	89 c1                	mov    %eax,%ecx
    32d1:	d3 fe                	sar    %cl,%esi
    32d3:	89 f0                	mov    %esi,%eax
    32d5:	39 c2                	cmp    %eax,%edx
    32d7:	7f 0f                	jg     32e8 <safe_lshift_func_int8_t_s_s+0x47>
    32d9:	0f be 55 fc          	movsbl -0x4(%rbp),%edx
    32dd:	8b 45 f8             	mov    -0x8(%rbp),%eax
    32e0:	89 c1                	mov    %eax,%ecx
    32e2:	d3 e2                	shl    %cl,%edx
    32e4:	89 d0                	mov    %edx,%eax
    32e6:	eb 04                	jmp    32ec <safe_lshift_func_int8_t_s_s+0x4b>
    32e8:	0f b6 45 fc          	movzbl -0x4(%rbp),%eax
    32ec:	5d                   	pop    %rbp
    32ed:	c3                   	retq   

00000000000032ee <safe_lshift_func_int8_t_s_u>:
    32ee:	f3 0f 1e fa          	endbr64 
    32f2:	55                   	push   %rbp
    32f3:	48 89 e5             	mov    %rsp,%rbp
    32f6:	89 f8                	mov    %edi,%eax
    32f8:	89 75 f8             	mov    %esi,-0x8(%rbp)
    32fb:	88 45 fc             	mov    %al,-0x4(%rbp)
    32fe:	80 7d fc 00          	cmpb   $0x0,-0x4(%rbp)
    3302:	78 2b                	js     332f <safe_lshift_func_int8_t_s_u+0x41>
    3304:	83 7d f8 1f          	cmpl   $0x1f,-0x8(%rbp)
    3308:	77 25                	ja     332f <safe_lshift_func_int8_t_s_u+0x41>
    330a:	0f be 55 fc          	movsbl -0x4(%rbp),%edx
    330e:	8b 45 f8             	mov    -0x8(%rbp),%eax
    3311:	be 7f 00 00 00       	mov    $0x7f,%esi
    3316:	89 c1                	mov    %eax,%ecx
    3318:	d3 fe                	sar    %cl,%esi
    331a:	89 f0                	mov    %esi,%eax
    331c:	39 c2                	cmp    %eax,%edx
    331e:	7f 0f                	jg     332f <safe_lshift_func_int8_t_s_u+0x41>
    3320:	0f be 55 fc          	movsbl -0x4(%rbp),%edx
    3324:	8b 45 f8             	mov    -0x8(%rbp),%eax
    3327:	89 c1                	mov    %eax,%ecx
    3329:	d3 e2                	shl    %cl,%edx
    332b:	89 d0                	mov    %edx,%eax
    332d:	eb 04                	jmp    3333 <safe_lshift_func_int8_t_s_u+0x45>
    332f:	0f b6 45 fc          	movzbl -0x4(%rbp),%eax
    3333:	5d                   	pop    %rbp
    3334:	c3                   	retq   

0000000000003335 <safe_rshift_func_int8_t_s_s>:
    3335:	f3 0f 1e fa          	endbr64 
    3339:	55                   	push   %rbp
    333a:	48 89 e5             	mov    %rsp,%rbp
    333d:	89 f8                	mov    %edi,%eax
    333f:	89 75 f8             	mov    %esi,-0x8(%rbp)
    3342:	88 45 fc             	mov    %al,-0x4(%rbp)
    3345:	80 7d fc 00          	cmpb   $0x0,-0x4(%rbp)
    3349:	78 1b                	js     3366 <safe_rshift_func_int8_t_s_s+0x31>
    334b:	83 7d f8 00          	cmpl   $0x0,-0x8(%rbp)
    334f:	78 15                	js     3366 <safe_rshift_func_int8_t_s_s+0x31>
    3351:	83 7d f8 1f          	cmpl   $0x1f,-0x8(%rbp)
    3355:	7f 0f                	jg     3366 <safe_rshift_func_int8_t_s_s+0x31>
    3357:	0f be 55 fc          	movsbl -0x4(%rbp),%edx
    335b:	8b 45 f8             	mov    -0x8(%rbp),%eax
    335e:	89 c1                	mov    %eax,%ecx
    3360:	d3 fa                	sar    %cl,%edx
    3362:	89 d0                	mov    %edx,%eax
    3364:	eb 04                	jmp    336a <safe_rshift_func_int8_t_s_s+0x35>
    3366:	0f b6 45 fc          	movzbl -0x4(%rbp),%eax
    336a:	5d                   	pop    %rbp
    336b:	c3                   	retq   

000000000000336c <safe_rshift_func_int8_t_s_u>:
    336c:	f3 0f 1e fa          	endbr64 
    3370:	55                   	push   %rbp
    3371:	48 89 e5             	mov    %rsp,%rbp
    3374:	89 f8                	mov    %edi,%eax
    3376:	89 75 f8             	mov    %esi,-0x8(%rbp)
    3379:	88 45 fc             	mov    %al,-0x4(%rbp)
    337c:	80 7d fc 00          	cmpb   $0x0,-0x4(%rbp)
    3380:	78 15                	js     3397 <safe_rshift_func_int8_t_s_u+0x2b>
    3382:	83 7d f8 1f          	cmpl   $0x1f,-0x8(%rbp)
    3386:	77 0f                	ja     3397 <safe_rshift_func_int8_t_s_u+0x2b>
    3388:	0f be 55 fc          	movsbl -0x4(%rbp),%edx
    338c:	8b 45 f8             	mov    -0x8(%rbp),%eax
    338f:	89 c1                	mov    %eax,%ecx
    3391:	d3 fa                	sar    %cl,%edx
    3393:	89 d0                	mov    %edx,%eax
    3395:	eb 04                	jmp    339b <safe_rshift_func_int8_t_s_u+0x2f>
    3397:	0f b6 45 fc          	movzbl -0x4(%rbp),%eax
    339b:	5d                   	pop    %rbp
    339c:	c3                   	retq   

000000000000339d <safe_unary_minus_func_int16_t_s>:
    339d:	f3 0f 1e fa          	endbr64 
    33a1:	55                   	push   %rbp
    33a2:	48 89 e5             	mov    %rsp,%rbp
    33a5:	89 f8                	mov    %edi,%eax
    33a7:	66 89 45 fc          	mov    %ax,-0x4(%rbp)
    33ab:	0f b7 45 fc          	movzwl -0x4(%rbp),%eax
    33af:	f7 d8                	neg    %eax
    33b1:	5d                   	pop    %rbp
    33b2:	c3                   	retq   

00000000000033b3 <safe_add_func_int16_t_s_s>:
    33b3:	f3 0f 1e fa          	endbr64 
    33b7:	55                   	push   %rbp
    33b8:	48 89 e5             	mov    %rsp,%rbp
    33bb:	89 fa                	mov    %edi,%edx
    33bd:	89 f0                	mov    %esi,%eax
    33bf:	66 89 55 fc          	mov    %dx,-0x4(%rbp)
    33c3:	66 89 45 f8          	mov    %ax,-0x8(%rbp)
    33c7:	0f b7 55 fc          	movzwl -0x4(%rbp),%edx
    33cb:	0f b7 45 f8          	movzwl -0x8(%rbp),%eax
    33cf:	01 d0                	add    %edx,%eax
    33d1:	5d                   	pop    %rbp
    33d2:	c3                   	retq   

00000000000033d3 <safe_sub_func_int16_t_s_s>:
    33d3:	f3 0f 1e fa          	endbr64 
    33d7:	55                   	push   %rbp
    33d8:	48 89 e5             	mov    %rsp,%rbp
    33db:	89 fa                	mov    %edi,%edx
    33dd:	89 f0                	mov    %esi,%eax
    33df:	66 89 55 fc          	mov    %dx,-0x4(%rbp)
    33e3:	66 89 45 f8          	mov    %ax,-0x8(%rbp)
    33e7:	0f b7 55 fc          	movzwl -0x4(%rbp),%edx
    33eb:	0f b7 45 f8          	movzwl -0x8(%rbp),%eax
    33ef:	29 c2                	sub    %eax,%edx
    33f1:	89 d0                	mov    %edx,%eax
    33f3:	5d                   	pop    %rbp
    33f4:	c3                   	retq   

00000000000033f5 <safe_mul_func_int16_t_s_s>:
    33f5:	f3 0f 1e fa          	endbr64 
    33f9:	55                   	push   %rbp
    33fa:	48 89 e5             	mov    %rsp,%rbp
    33fd:	89 fa                	mov    %edi,%edx
    33ff:	89 f0                	mov    %esi,%eax
    3401:	66 89 55 fc          	mov    %dx,-0x4(%rbp)
    3405:	66 89 45 f8          	mov    %ax,-0x8(%rbp)
    3409:	0f b7 55 fc          	movzwl -0x4(%rbp),%edx
    340d:	0f b7 45 f8          	movzwl -0x8(%rbp),%eax
    3411:	0f af c2             	imul   %edx,%eax
    3414:	5d                   	pop    %rbp
    3415:	c3                   	retq   

0000000000003416 <safe_mod_func_int16_t_s_s>:
    3416:	f3 0f 1e fa          	endbr64 
    341a:	55                   	push   %rbp
    341b:	48 89 e5             	mov    %rsp,%rbp
    341e:	89 fa                	mov    %edi,%edx
    3420:	89 f0                	mov    %esi,%eax
    3422:	66 89 55 fc          	mov    %dx,-0x4(%rbp)
    3426:	66 89 45 f8          	mov    %ax,-0x8(%rbp)
    342a:	66 83 7d f8 00       	cmpw   $0x0,-0x8(%rbp)
    342f:	74 1e                	je     344f <safe_mod_func_int16_t_s_s+0x39>
    3431:	66 81 7d fc 00 80    	cmpw   $0x8000,-0x4(%rbp)
    3437:	75 07                	jne    3440 <safe_mod_func_int16_t_s_s+0x2a>
    3439:	66 83 7d f8 ff       	cmpw   $0xffff,-0x8(%rbp)
    343e:	74 0f                	je     344f <safe_mod_func_int16_t_s_s+0x39>
    3440:	0f bf 45 fc          	movswl -0x4(%rbp),%eax
    3444:	0f bf 4d f8          	movswl -0x8(%rbp),%ecx
    3448:	99                   	cltd   
    3449:	f7 f9                	idiv   %ecx
    344b:	89 d0                	mov    %edx,%eax
    344d:	eb 04                	jmp    3453 <safe_mod_func_int16_t_s_s+0x3d>
    344f:	0f b7 45 fc          	movzwl -0x4(%rbp),%eax
    3453:	5d                   	pop    %rbp
    3454:	c3                   	retq   

0000000000003455 <safe_div_func_int16_t_s_s>:
    3455:	f3 0f 1e fa          	endbr64 
    3459:	55                   	push   %rbp
    345a:	48 89 e5             	mov    %rsp,%rbp
    345d:	89 fa                	mov    %edi,%edx
    345f:	89 f0                	mov    %esi,%eax
    3461:	66 89 55 fc          	mov    %dx,-0x4(%rbp)
    3465:	66 89 45 f8          	mov    %ax,-0x8(%rbp)
    3469:	66 83 7d f8 00       	cmpw   $0x0,-0x8(%rbp)
    346e:	74 1c                	je     348c <safe_div_func_int16_t_s_s+0x37>
    3470:	66 81 7d fc 00 80    	cmpw   $0x8000,-0x4(%rbp)
    3476:	75 07                	jne    347f <safe_div_func_int16_t_s_s+0x2a>
    3478:	66 83 7d f8 ff       	cmpw   $0xffff,-0x8(%rbp)
    347d:	74 0d                	je     348c <safe_div_func_int16_t_s_s+0x37>
    347f:	0f bf 45 fc          	movswl -0x4(%rbp),%eax
    3483:	0f bf 4d f8          	movswl -0x8(%rbp),%ecx
    3487:	99                   	cltd   
    3488:	f7 f9                	idiv   %ecx
    348a:	eb 04                	jmp    3490 <safe_div_func_int16_t_s_s+0x3b>
    348c:	0f b7 45 fc          	movzwl -0x4(%rbp),%eax
    3490:	5d                   	pop    %rbp
    3491:	c3                   	retq   

0000000000003492 <safe_lshift_func_int16_t_s_s>:
    3492:	f3 0f 1e fa          	endbr64 
    3496:	55                   	push   %rbp
    3497:	48 89 e5             	mov    %rsp,%rbp
    349a:	89 f8                	mov    %edi,%eax
    349c:	89 75 f8             	mov    %esi,-0x8(%rbp)
    349f:	66 89 45 fc          	mov    %ax,-0x4(%rbp)
    34a3:	66 83 7d fc 00       	cmpw   $0x0,-0x4(%rbp)
    34a8:	78 31                	js     34db <safe_lshift_func_int16_t_s_s+0x49>
    34aa:	83 7d f8 00          	cmpl   $0x0,-0x8(%rbp)
    34ae:	78 2b                	js     34db <safe_lshift_func_int16_t_s_s+0x49>
    34b0:	83 7d f8 1f          	cmpl   $0x1f,-0x8(%rbp)
    34b4:	7f 25                	jg     34db <safe_lshift_func_int16_t_s_s+0x49>
    34b6:	0f bf 55 fc          	movswl -0x4(%rbp),%edx
    34ba:	8b 45 f8             	mov    -0x8(%rbp),%eax
    34bd:	be ff 7f 00 00       	mov    $0x7fff,%esi
    34c2:	89 c1                	mov    %eax,%ecx
    34c4:	d3 fe                	sar    %cl,%esi
    34c6:	89 f0                	mov    %esi,%eax
    34c8:	39 c2                	cmp    %eax,%edx
    34ca:	7f 0f                	jg     34db <safe_lshift_func_int16_t_s_s+0x49>
    34cc:	0f bf 55 fc          	movswl -0x4(%rbp),%edx
    34d0:	8b 45 f8             	mov    -0x8(%rbp),%eax
    34d3:	89 c1                	mov    %eax,%ecx
    34d5:	d3 e2                	shl    %cl,%edx
    34d7:	89 d0                	mov    %edx,%eax
    34d9:	eb 04                	jmp    34df <safe_lshift_func_int16_t_s_s+0x4d>
    34db:	0f b7 45 fc          	movzwl -0x4(%rbp),%eax
    34df:	5d                   	pop    %rbp
    34e0:	c3                   	retq   

00000000000034e1 <safe_lshift_func_int16_t_s_u>:
    34e1:	f3 0f 1e fa          	endbr64 
    34e5:	55                   	push   %rbp
    34e6:	48 89 e5             	mov    %rsp,%rbp
    34e9:	89 f8                	mov    %edi,%eax
    34eb:	89 75 f8             	mov    %esi,-0x8(%rbp)
    34ee:	66 89 45 fc          	mov    %ax,-0x4(%rbp)
    34f2:	66 83 7d fc 00       	cmpw   $0x0,-0x4(%rbp)
    34f7:	78 2b                	js     3524 <safe_lshift_func_int16_t_s_u+0x43>
    34f9:	83 7d f8 1f          	cmpl   $0x1f,-0x8(%rbp)
    34fd:	77 25                	ja     3524 <safe_lshift_func_int16_t_s_u+0x43>
    34ff:	0f bf 55 fc          	movswl -0x4(%rbp),%edx
    3503:	8b 45 f8             	mov    -0x8(%rbp),%eax
    3506:	be ff 7f 00 00       	mov    $0x7fff,%esi
    350b:	89 c1                	mov    %eax,%ecx
    350d:	d3 fe                	sar    %cl,%esi
    350f:	89 f0                	mov    %esi,%eax
    3511:	39 c2                	cmp    %eax,%edx
    3513:	7f 0f                	jg     3524 <safe_lshift_func_int16_t_s_u+0x43>
    3515:	0f bf 55 fc          	movswl -0x4(%rbp),%edx
    3519:	8b 45 f8             	mov    -0x8(%rbp),%eax
    351c:	89 c1                	mov    %eax,%ecx
    351e:	d3 e2                	shl    %cl,%edx
    3520:	89 d0                	mov    %edx,%eax
    3522:	eb 04                	jmp    3528 <safe_lshift_func_int16_t_s_u+0x47>
    3524:	0f b7 45 fc          	movzwl -0x4(%rbp),%eax
    3528:	5d                   	pop    %rbp
    3529:	c3                   	retq   

000000000000352a <safe_rshift_func_int16_t_s_s>:
    352a:	f3 0f 1e fa          	endbr64 
    352e:	55                   	push   %rbp
    352f:	48 89 e5             	mov    %rsp,%rbp
    3532:	89 f8                	mov    %edi,%eax
    3534:	89 75 f8             	mov    %esi,-0x8(%rbp)
    3537:	66 89 45 fc          	mov    %ax,-0x4(%rbp)
    353b:	66 83 7d fc 00       	cmpw   $0x0,-0x4(%rbp)
    3540:	78 1b                	js     355d <safe_rshift_func_int16_t_s_s+0x33>
    3542:	83 7d f8 00          	cmpl   $0x0,-0x8(%rbp)
    3546:	78 15                	js     355d <safe_rshift_func_int16_t_s_s+0x33>
    3548:	83 7d f8 1f          	cmpl   $0x1f,-0x8(%rbp)
    354c:	7f 0f                	jg     355d <safe_rshift_func_int16_t_s_s+0x33>
    354e:	0f bf 55 fc          	movswl -0x4(%rbp),%edx
    3552:	8b 45 f8             	mov    -0x8(%rbp),%eax
    3555:	89 c1                	mov    %eax,%ecx
    3557:	d3 fa                	sar    %cl,%edx
    3559:	89 d0                	mov    %edx,%eax
    355b:	eb 04                	jmp    3561 <safe_rshift_func_int16_t_s_s+0x37>
    355d:	0f b7 45 fc          	movzwl -0x4(%rbp),%eax
    3561:	5d                   	pop    %rbp
    3562:	c3                   	retq   

0000000000003563 <safe_rshift_func_int16_t_s_u>:
    3563:	f3 0f 1e fa          	endbr64 
    3567:	55                   	push   %rbp
    3568:	48 89 e5             	mov    %rsp,%rbp
    356b:	89 f8                	mov    %edi,%eax
    356d:	89 75 f8             	mov    %esi,-0x8(%rbp)
    3570:	66 89 45 fc          	mov    %ax,-0x4(%rbp)
    3574:	66 83 7d fc 00       	cmpw   $0x0,-0x4(%rbp)
    3579:	78 15                	js     3590 <safe_rshift_func_int16_t_s_u+0x2d>
    357b:	83 7d f8 1f          	cmpl   $0x1f,-0x8(%rbp)
    357f:	77 0f                	ja     3590 <safe_rshift_func_int16_t_s_u+0x2d>
    3581:	0f bf 55 fc          	movswl -0x4(%rbp),%edx
    3585:	8b 45 f8             	mov    -0x8(%rbp),%eax
    3588:	89 c1                	mov    %eax,%ecx
    358a:	d3 fa                	sar    %cl,%edx
    358c:	89 d0                	mov    %edx,%eax
    358e:	eb 04                	jmp    3594 <safe_rshift_func_int16_t_s_u+0x31>
    3590:	0f b7 45 fc          	movzwl -0x4(%rbp),%eax
    3594:	5d                   	pop    %rbp
    3595:	c3                   	retq   

0000000000003596 <safe_unary_minus_func_int32_t_s>:
    3596:	f3 0f 1e fa          	endbr64 
    359a:	55                   	push   %rbp
    359b:	48 89 e5             	mov    %rsp,%rbp
    359e:	89 7d fc             	mov    %edi,-0x4(%rbp)
    35a1:	81 7d fc 00 00 00 80 	cmpl   $0x80000000,-0x4(%rbp)
    35a8:	74 07                	je     35b1 <safe_unary_minus_func_int32_t_s+0x1b>
    35aa:	8b 45 fc             	mov    -0x4(%rbp),%eax
    35ad:	f7 d8                	neg    %eax
    35af:	eb 03                	jmp    35b4 <safe_unary_minus_func_int32_t_s+0x1e>
    35b1:	8b 45 fc             	mov    -0x4(%rbp),%eax
    35b4:	5d                   	pop    %rbp
    35b5:	c3                   	retq   

00000000000035b6 <safe_add_func_int32_t_s_s>:
    35b6:	f3 0f 1e fa          	endbr64 
    35ba:	55                   	push   %rbp
    35bb:	48 89 e5             	mov    %rsp,%rbp
    35be:	89 7d fc             	mov    %edi,-0x4(%rbp)
    35c1:	89 75 f8             	mov    %esi,-0x8(%rbp)
    35c4:	83 7d fc 00          	cmpl   $0x0,-0x4(%rbp)
    35c8:	7e 13                	jle    35dd <safe_add_func_int32_t_s_s+0x27>
    35ca:	83 7d f8 00          	cmpl   $0x0,-0x8(%rbp)
    35ce:	7e 0d                	jle    35dd <safe_add_func_int32_t_s_s+0x27>
    35d0:	b8 ff ff ff 7f       	mov    $0x7fffffff,%eax
    35d5:	2b 45 f8             	sub    -0x8(%rbp),%eax
    35d8:	39 45 fc             	cmp    %eax,-0x4(%rbp)
    35db:	7f 23                	jg     3600 <safe_add_func_int32_t_s_s+0x4a>
    35dd:	83 7d fc 00          	cmpl   $0x0,-0x4(%rbp)
    35e1:	79 13                	jns    35f6 <safe_add_func_int32_t_s_s+0x40>
    35e3:	83 7d f8 00          	cmpl   $0x0,-0x8(%rbp)
    35e7:	79 0d                	jns    35f6 <safe_add_func_int32_t_s_s+0x40>
    35e9:	b8 00 00 00 80       	mov    $0x80000000,%eax
    35ee:	2b 45 f8             	sub    -0x8(%rbp),%eax
    35f1:	39 45 fc             	cmp    %eax,-0x4(%rbp)
    35f4:	7c 0a                	jl     3600 <safe_add_func_int32_t_s_s+0x4a>
    35f6:	8b 55 fc             	mov    -0x4(%rbp),%edx
    35f9:	8b 45 f8             	mov    -0x8(%rbp),%eax
    35fc:	01 d0                	add    %edx,%eax
    35fe:	eb 03                	jmp    3603 <safe_add_func_int32_t_s_s+0x4d>
    3600:	8b 45 fc             	mov    -0x4(%rbp),%eax
    3603:	5d                   	pop    %rbp
    3604:	c3                   	retq   

0000000000003605 <safe_sub_func_int32_t_s_s>:
    3605:	f3 0f 1e fa          	endbr64 
    3609:	55                   	push   %rbp
    360a:	48 89 e5             	mov    %rsp,%rbp
    360d:	89 7d fc             	mov    %edi,-0x4(%rbp)
    3610:	89 75 f8             	mov    %esi,-0x8(%rbp)
    3613:	8b 45 fc             	mov    -0x4(%rbp),%eax
    3616:	33 45 f8             	xor    -0x8(%rbp),%eax
    3619:	89 c2                	mov    %eax,%edx
    361b:	8b 45 fc             	mov    -0x4(%rbp),%eax
    361e:	33 45 f8             	xor    -0x8(%rbp),%eax
    3621:	25 00 00 00 80       	and    $0x80000000,%eax
    3626:	33 45 fc             	xor    -0x4(%rbp),%eax
    3629:	2b 45 f8             	sub    -0x8(%rbp),%eax
    362c:	33 45 f8             	xor    -0x8(%rbp),%eax
    362f:	21 d0                	and    %edx,%eax
    3631:	85 c0                	test   %eax,%eax
    3633:	78 08                	js     363d <safe_sub_func_int32_t_s_s+0x38>
    3635:	8b 45 fc             	mov    -0x4(%rbp),%eax
    3638:	2b 45 f8             	sub    -0x8(%rbp),%eax
    363b:	eb 03                	jmp    3640 <safe_sub_func_int32_t_s_s+0x3b>
    363d:	8b 45 fc             	mov    -0x4(%rbp),%eax
    3640:	5d                   	pop    %rbp
    3641:	c3                   	retq   

0000000000003642 <safe_mul_func_int32_t_s_s>:
    3642:	f3 0f 1e fa          	endbr64 
    3646:	55                   	push   %rbp
    3647:	48 89 e5             	mov    %rsp,%rbp
    364a:	89 7d fc             	mov    %edi,-0x4(%rbp)
    364d:	89 75 f8             	mov    %esi,-0x8(%rbp)
    3650:	83 7d fc 00          	cmpl   $0x0,-0x4(%rbp)
    3654:	7e 14                	jle    366a <safe_mul_func_int32_t_s_s+0x28>
    3656:	83 7d f8 00          	cmpl   $0x0,-0x8(%rbp)
    365a:	7e 0e                	jle    366a <safe_mul_func_int32_t_s_s+0x28>
    365c:	b8 ff ff ff 7f       	mov    $0x7fffffff,%eax
    3661:	99                   	cltd   
    3662:	f7 7d f8             	idivl  -0x8(%rbp)
    3665:	39 45 fc             	cmp    %eax,-0x4(%rbp)
    3668:	7f 5d                	jg     36c7 <safe_mul_func_int32_t_s_s+0x85>
    366a:	83 7d fc 00          	cmpl   $0x0,-0x4(%rbp)
    366e:	7e 14                	jle    3684 <safe_mul_func_int32_t_s_s+0x42>
    3670:	83 7d f8 00          	cmpl   $0x0,-0x8(%rbp)
    3674:	7f 0e                	jg     3684 <safe_mul_func_int32_t_s_s+0x42>
    3676:	b8 00 00 00 80       	mov    $0x80000000,%eax
    367b:	99                   	cltd   
    367c:	f7 7d fc             	idivl  -0x4(%rbp)
    367f:	39 45 f8             	cmp    %eax,-0x8(%rbp)
    3682:	7c 43                	jl     36c7 <safe_mul_func_int32_t_s_s+0x85>
    3684:	83 7d fc 00          	cmpl   $0x0,-0x4(%rbp)
    3688:	7f 14                	jg     369e <safe_mul_func_int32_t_s_s+0x5c>
    368a:	83 7d f8 00          	cmpl   $0x0,-0x8(%rbp)
    368e:	7e 0e                	jle    369e <safe_mul_func_int32_t_s_s+0x5c>
    3690:	b8 00 00 00 80       	mov    $0x80000000,%eax
    3695:	99                   	cltd   
    3696:	f7 7d f8             	idivl  -0x8(%rbp)
    3699:	39 45 fc             	cmp    %eax,-0x4(%rbp)
    369c:	7c 29                	jl     36c7 <safe_mul_func_int32_t_s_s+0x85>
    369e:	83 7d fc 00          	cmpl   $0x0,-0x4(%rbp)
    36a2:	7f 1a                	jg     36be <safe_mul_func_int32_t_s_s+0x7c>
    36a4:	83 7d f8 00          	cmpl   $0x0,-0x8(%rbp)
    36a8:	7f 14                	jg     36be <safe_mul_func_int32_t_s_s+0x7c>
    36aa:	83 7d fc 00          	cmpl   $0x0,-0x4(%rbp)
    36ae:	74 0e                	je     36be <safe_mul_func_int32_t_s_s+0x7c>
    36b0:	b8 ff ff ff 7f       	mov    $0x7fffffff,%eax
    36b5:	99                   	cltd   
    36b6:	f7 7d fc             	idivl  -0x4(%rbp)
    36b9:	39 45 f8             	cmp    %eax,-0x8(%rbp)
    36bc:	7c 09                	jl     36c7 <safe_mul_func_int32_t_s_s+0x85>
    36be:	8b 45 fc             	mov    -0x4(%rbp),%eax
    36c1:	0f af 45 f8          	imul   -0x8(%rbp),%eax
    36c5:	eb 03                	jmp    36ca <safe_mul_func_int32_t_s_s+0x88>
    36c7:	8b 45 fc             	mov    -0x4(%rbp),%eax
    36ca:	5d                   	pop    %rbp
    36cb:	c3                   	retq   

00000000000036cc <safe_mod_func_int32_t_s_s>:
    36cc:	f3 0f 1e fa          	endbr64 
    36d0:	55                   	push   %rbp
    36d1:	48 89 e5             	mov    %rsp,%rbp
    36d4:	89 7d fc             	mov    %edi,-0x4(%rbp)
    36d7:	89 75 f8             	mov    %esi,-0x8(%rbp)
    36da:	83 7d f8 00          	cmpl   $0x0,-0x8(%rbp)
    36de:	74 1a                	je     36fa <safe_mod_func_int32_t_s_s+0x2e>
    36e0:	81 7d fc 00 00 00 80 	cmpl   $0x80000000,-0x4(%rbp)
    36e7:	75 06                	jne    36ef <safe_mod_func_int32_t_s_s+0x23>
    36e9:	83 7d f8 ff          	cmpl   $0xffffffff,-0x8(%rbp)
    36ed:	74 0b                	je     36fa <safe_mod_func_int32_t_s_s+0x2e>
    36ef:	8b 45 fc             	mov    -0x4(%rbp),%eax
    36f2:	99                   	cltd   
    36f3:	f7 7d f8             	idivl  -0x8(%rbp)
    36f6:	89 d0                	mov    %edx,%eax
    36f8:	eb 03                	jmp    36fd <safe_mod_func_int32_t_s_s+0x31>
    36fa:	8b 45 fc             	mov    -0x4(%rbp),%eax
    36fd:	5d                   	pop    %rbp
    36fe:	c3                   	retq   

00000000000036ff <safe_div_func_int32_t_s_s>:
    36ff:	f3 0f 1e fa          	endbr64 
    3703:	55                   	push   %rbp
    3704:	48 89 e5             	mov    %rsp,%rbp
    3707:	89 7d fc             	mov    %edi,-0x4(%rbp)
    370a:	89 75 f8             	mov    %esi,-0x8(%rbp)
    370d:	83 7d f8 00          	cmpl   $0x0,-0x8(%rbp)
    3711:	74 18                	je     372b <safe_div_func_int32_t_s_s+0x2c>
    3713:	81 7d fc 00 00 00 80 	cmpl   $0x80000000,-0x4(%rbp)
    371a:	75 06                	jne    3722 <safe_div_func_int32_t_s_s+0x23>
    371c:	83 7d f8 ff          	cmpl   $0xffffffff,-0x8(%rbp)
    3720:	74 09                	je     372b <safe_div_func_int32_t_s_s+0x2c>
    3722:	8b 45 fc             	mov    -0x4(%rbp),%eax
    3725:	99                   	cltd   
    3726:	f7 7d f8             	idivl  -0x8(%rbp)
    3729:	eb 03                	jmp    372e <safe_div_func_int32_t_s_s+0x2f>
    372b:	8b 45 fc             	mov    -0x4(%rbp),%eax
    372e:	5d                   	pop    %rbp
    372f:	c3                   	retq   

0000000000003730 <safe_lshift_func_int32_t_s_s>:
    3730:	f3 0f 1e fa          	endbr64 
    3734:	55                   	push   %rbp
    3735:	48 89 e5             	mov    %rsp,%rbp
    3738:	89 7d fc             	mov    %edi,-0x4(%rbp)
    373b:	89 75 f8             	mov    %esi,-0x8(%rbp)
    373e:	83 7d fc 00          	cmpl   $0x0,-0x4(%rbp)
    3742:	78 2d                	js     3771 <safe_lshift_func_int32_t_s_s+0x41>
    3744:	83 7d f8 00          	cmpl   $0x0,-0x8(%rbp)
    3748:	78 27                	js     3771 <safe_lshift_func_int32_t_s_s+0x41>
    374a:	83 7d f8 1f          	cmpl   $0x1f,-0x8(%rbp)
    374e:	7f 21                	jg     3771 <safe_lshift_func_int32_t_s_s+0x41>
    3750:	8b 45 f8             	mov    -0x8(%rbp),%eax
    3753:	ba ff ff ff 7f       	mov    $0x7fffffff,%edx
    3758:	89 c1                	mov    %eax,%ecx
    375a:	d3 fa                	sar    %cl,%edx
    375c:	89 d0                	mov    %edx,%eax
    375e:	39 45 fc             	cmp    %eax,-0x4(%rbp)
    3761:	7f 0e                	jg     3771 <safe_lshift_func_int32_t_s_s+0x41>
    3763:	8b 45 f8             	mov    -0x8(%rbp),%eax
    3766:	8b 55 fc             	mov    -0x4(%rbp),%edx
    3769:	89 c1                	mov    %eax,%ecx
    376b:	d3 e2                	shl    %cl,%edx
    376d:	89 d0                	mov    %edx,%eax
    376f:	eb 03                	jmp    3774 <safe_lshift_func_int32_t_s_s+0x44>
    3771:	8b 45 fc             	mov    -0x4(%rbp),%eax
    3774:	5d                   	pop    %rbp
    3775:	c3                   	retq   

0000000000003776 <safe_lshift_func_int32_t_s_u>:
    3776:	f3 0f 1e fa          	endbr64 
    377a:	55                   	push   %rbp
    377b:	48 89 e5             	mov    %rsp,%rbp
    377e:	89 7d fc             	mov    %edi,-0x4(%rbp)
    3781:	89 75 f8             	mov    %esi,-0x8(%rbp)
    3784:	83 7d fc 00          	cmpl   $0x0,-0x4(%rbp)
    3788:	78 27                	js     37b1 <safe_lshift_func_int32_t_s_u+0x3b>
    378a:	83 7d f8 1f          	cmpl   $0x1f,-0x8(%rbp)
    378e:	77 21                	ja     37b1 <safe_lshift_func_int32_t_s_u+0x3b>
    3790:	8b 45 f8             	mov    -0x8(%rbp),%eax
    3793:	ba ff ff ff 7f       	mov    $0x7fffffff,%edx
    3798:	89 c1                	mov    %eax,%ecx
    379a:	d3 fa                	sar    %cl,%edx
    379c:	89 d0                	mov    %edx,%eax
    379e:	39 45 fc             	cmp    %eax,-0x4(%rbp)
    37a1:	7f 0e                	jg     37b1 <safe_lshift_func_int32_t_s_u+0x3b>
    37a3:	8b 45 f8             	mov    -0x8(%rbp),%eax
    37a6:	8b 55 fc             	mov    -0x4(%rbp),%edx
    37a9:	89 c1                	mov    %eax,%ecx
    37ab:	d3 e2                	shl    %cl,%edx
    37ad:	89 d0                	mov    %edx,%eax
    37af:	eb 03                	jmp    37b4 <safe_lshift_func_int32_t_s_u+0x3e>
    37b1:	8b 45 fc             	mov    -0x4(%rbp),%eax
    37b4:	5d                   	pop    %rbp
    37b5:	c3                   	retq   

00000000000037b6 <safe_rshift_func_int32_t_s_s>:
    37b6:	f3 0f 1e fa          	endbr64 
    37ba:	55                   	push   %rbp
    37bb:	48 89 e5             	mov    %rsp,%rbp
    37be:	89 7d fc             	mov    %edi,-0x4(%rbp)
    37c1:	89 75 f8             	mov    %esi,-0x8(%rbp)
    37c4:	83 7d fc 00          	cmpl   $0x0,-0x4(%rbp)
    37c8:	78 1a                	js     37e4 <safe_rshift_func_int32_t_s_s+0x2e>
    37ca:	83 7d f8 00          	cmpl   $0x0,-0x8(%rbp)
    37ce:	78 14                	js     37e4 <safe_rshift_func_int32_t_s_s+0x2e>
    37d0:	83 7d f8 1f          	cmpl   $0x1f,-0x8(%rbp)
    37d4:	7f 0e                	jg     37e4 <safe_rshift_func_int32_t_s_s+0x2e>
    37d6:	8b 45 f8             	mov    -0x8(%rbp),%eax
    37d9:	8b 55 fc             	mov    -0x4(%rbp),%edx
    37dc:	89 c1                	mov    %eax,%ecx
    37de:	d3 fa                	sar    %cl,%edx
    37e0:	89 d0                	mov    %edx,%eax
    37e2:	eb 03                	jmp    37e7 <safe_rshift_func_int32_t_s_s+0x31>
    37e4:	8b 45 fc             	mov    -0x4(%rbp),%eax
    37e7:	5d                   	pop    %rbp
    37e8:	c3                   	retq   

00000000000037e9 <safe_rshift_func_int32_t_s_u>:
    37e9:	f3 0f 1e fa          	endbr64 
    37ed:	55                   	push   %rbp
    37ee:	48 89 e5             	mov    %rsp,%rbp
    37f1:	89 7d fc             	mov    %edi,-0x4(%rbp)
    37f4:	89 75 f8             	mov    %esi,-0x8(%rbp)
    37f7:	83 7d fc 00          	cmpl   $0x0,-0x4(%rbp)
    37fb:	78 14                	js     3811 <safe_rshift_func_int32_t_s_u+0x28>
    37fd:	83 7d f8 1f          	cmpl   $0x1f,-0x8(%rbp)
    3801:	77 0e                	ja     3811 <safe_rshift_func_int32_t_s_u+0x28>
    3803:	8b 45 f8             	mov    -0x8(%rbp),%eax
    3806:	8b 55 fc             	mov    -0x4(%rbp),%edx
    3809:	89 c1                	mov    %eax,%ecx
    380b:	d3 fa                	sar    %cl,%edx
    380d:	89 d0                	mov    %edx,%eax
    380f:	eb 03                	jmp    3814 <safe_rshift_func_int32_t_s_u+0x2b>
    3811:	8b 45 fc             	mov    -0x4(%rbp),%eax
    3814:	5d                   	pop    %rbp
    3815:	c3                   	retq   

0000000000003816 <safe_unary_minus_func_int64_t_s>:
    3816:	f3 0f 1e fa          	endbr64 
    381a:	55                   	push   %rbp
    381b:	48 89 e5             	mov    %rsp,%rbp
    381e:	48 89 7d f8          	mov    %rdi,-0x8(%rbp)
    3822:	48 b8 00 00 00 00 00 	movabs $0x8000000000000000,%rax
    3829:	00 00 80 
    382c:	48 39 45 f8          	cmp    %rax,-0x8(%rbp)
    3830:	74 09                	je     383b <safe_unary_minus_func_int64_t_s+0x25>
    3832:	48 8b 45 f8          	mov    -0x8(%rbp),%rax
    3836:	48 f7 d8             	neg    %rax
    3839:	eb 04                	jmp    383f <safe_unary_minus_func_int64_t_s+0x29>
    383b:	48 8b 45 f8          	mov    -0x8(%rbp),%rax
    383f:	5d                   	pop    %rbp
    3840:	c3                   	retq   

0000000000003841 <safe_add_func_int64_t_s_s>:
    3841:	f3 0f 1e fa          	endbr64 
    3845:	55                   	push   %rbp
    3846:	48 89 e5             	mov    %rsp,%rbp
    3849:	48 89 7d f8          	mov    %rdi,-0x8(%rbp)
    384d:	48 89 75 f0          	mov    %rsi,-0x10(%rbp)
    3851:	48 83 7d f8 00       	cmpq   $0x0,-0x8(%rbp)
    3856:	7e 1b                	jle    3873 <safe_add_func_int64_t_s_s+0x32>
    3858:	48 83 7d f0 00       	cmpq   $0x0,-0x10(%rbp)
    385d:	7e 14                	jle    3873 <safe_add_func_int64_t_s_s+0x32>
    385f:	48 b8 ff ff ff ff ff 	movabs $0x7fffffffffffffff,%rax
    3866:	ff ff 7f 
    3869:	48 2b 45 f0          	sub    -0x10(%rbp),%rax
    386d:	48 39 45 f8          	cmp    %rax,-0x8(%rbp)
    3871:	7f 2f                	jg     38a2 <safe_add_func_int64_t_s_s+0x61>
    3873:	48 83 7d f8 00       	cmpq   $0x0,-0x8(%rbp)
    3878:	79 1b                	jns    3895 <safe_add_func_int64_t_s_s+0x54>
    387a:	48 83 7d f0 00       	cmpq   $0x0,-0x10(%rbp)
    387f:	79 14                	jns    3895 <safe_add_func_int64_t_s_s+0x54>
    3881:	48 b8 00 00 00 00 00 	movabs $0x8000000000000000,%rax
    3888:	00 00 80 
    388b:	48 2b 45 f0          	sub    -0x10(%rbp),%rax
    388f:	48 39 45 f8          	cmp    %rax,-0x8(%rbp)
    3893:	7c 0d                	jl     38a2 <safe_add_func_int64_t_s_s+0x61>
    3895:	48 8b 55 f8          	mov    -0x8(%rbp),%rdx
    3899:	48 8b 45 f0          	mov    -0x10(%rbp),%rax
    389d:	48 01 d0             	add    %rdx,%rax
    38a0:	eb 04                	jmp    38a6 <safe_add_func_int64_t_s_s+0x65>
    38a2:	48 8b 45 f8          	mov    -0x8(%rbp),%rax
    38a6:	5d                   	pop    %rbp
    38a7:	c3                   	retq   

00000000000038a8 <safe_sub_func_int64_t_s_s>:
    38a8:	f3 0f 1e fa          	endbr64 
    38ac:	55                   	push   %rbp
    38ad:	48 89 e5             	mov    %rsp,%rbp
    38b0:	48 89 7d f8          	mov    %rdi,-0x8(%rbp)
    38b4:	48 89 75 f0          	mov    %rsi,-0x10(%rbp)
    38b8:	48 8b 45 f8          	mov    -0x8(%rbp),%rax
    38bc:	48 33 45 f0          	xor    -0x10(%rbp),%rax
    38c0:	48 89 c2             	mov    %rax,%rdx
    38c3:	48 8b 45 f8          	mov    -0x8(%rbp),%rax
    38c7:	48 33 45 f0          	xor    -0x10(%rbp),%rax
    38cb:	48 b9 00 00 00 00 00 	movabs $0x8000000000000000,%rcx
    38d2:	00 00 80 
    38d5:	48 21 c8             	and    %rcx,%rax
    38d8:	48 33 45 f8          	xor    -0x8(%rbp),%rax
    38dc:	48 2b 45 f0          	sub    -0x10(%rbp),%rax
    38e0:	48 33 45 f0          	xor    -0x10(%rbp),%rax
    38e4:	48 21 d0             	and    %rdx,%rax
    38e7:	48 85 c0             	test   %rax,%rax
    38ea:	78 0a                	js     38f6 <safe_sub_func_int64_t_s_s+0x4e>
    38ec:	48 8b 45 f8          	mov    -0x8(%rbp),%rax
    38f0:	48 2b 45 f0          	sub    -0x10(%rbp),%rax
    38f4:	eb 04                	jmp    38fa <safe_sub_func_int64_t_s_s+0x52>
    38f6:	48 8b 45 f8          	mov    -0x8(%rbp),%rax
    38fa:	5d                   	pop    %rbp
    38fb:	c3                   	retq   

00000000000038fc <safe_mul_func_int64_t_s_s>:
    38fc:	f3 0f 1e fa          	endbr64 
    3900:	55                   	push   %rbp
    3901:	48 89 e5             	mov    %rsp,%rbp
    3904:	48 89 7d f8          	mov    %rdi,-0x8(%rbp)
    3908:	48 89 75 f0          	mov    %rsi,-0x10(%rbp)
    390c:	48 83 7d f8 00       	cmpq   $0x0,-0x8(%rbp)
    3911:	7e 1d                	jle    3930 <safe_mul_func_int64_t_s_s+0x34>
    3913:	48 83 7d f0 00       	cmpq   $0x0,-0x10(%rbp)
    3918:	7e 16                	jle    3930 <safe_mul_func_int64_t_s_s+0x34>
    391a:	48 b8 ff ff ff ff ff 	movabs $0x7fffffffffffffff,%rax
    3921:	ff ff 7f 
    3924:	48 99                	cqto   
    3926:	48 f7 7d f0          	idivq  -0x10(%rbp)
    392a:	48 39 45 f8          	cmp    %rax,-0x8(%rbp)
    392e:	7f 7e                	jg     39ae <safe_mul_func_int64_t_s_s+0xb2>
    3930:	48 83 7d f8 00       	cmpq   $0x0,-0x8(%rbp)
    3935:	7e 1d                	jle    3954 <safe_mul_func_int64_t_s_s+0x58>
    3937:	48 83 7d f0 00       	cmpq   $0x0,-0x10(%rbp)
    393c:	7f 16                	jg     3954 <safe_mul_func_int64_t_s_s+0x58>
    393e:	48 b8 00 00 00 00 00 	movabs $0x8000000000000000,%rax
    3945:	00 00 80 
    3948:	48 99                	cqto   
    394a:	48 f7 7d f8          	idivq  -0x8(%rbp)
    394e:	48 39 45 f0          	cmp    %rax,-0x10(%rbp)
    3952:	7c 5a                	jl     39ae <safe_mul_func_int64_t_s_s+0xb2>
    3954:	48 83 7d f8 00       	cmpq   $0x0,-0x8(%rbp)
    3959:	7f 1d                	jg     3978 <safe_mul_func_int64_t_s_s+0x7c>
    395b:	48 83 7d f0 00       	cmpq   $0x0,-0x10(%rbp)
    3960:	7e 16                	jle    3978 <safe_mul_func_int64_t_s_s+0x7c>
    3962:	48 b8 00 00 00 00 00 	movabs $0x8000000000000000,%rax
    3969:	00 00 80 
    396c:	48 99                	cqto   
    396e:	48 f7 7d f0          	idivq  -0x10(%rbp)
    3972:	48 39 45 f8          	cmp    %rax,-0x8(%rbp)
    3976:	7c 36                	jl     39ae <safe_mul_func_int64_t_s_s+0xb2>
    3978:	48 83 7d f8 00       	cmpq   $0x0,-0x8(%rbp)
    397d:	7f 24                	jg     39a3 <safe_mul_func_int64_t_s_s+0xa7>
    397f:	48 83 7d f0 00       	cmpq   $0x0,-0x10(%rbp)
    3984:	7f 1d                	jg     39a3 <safe_mul_func_int64_t_s_s+0xa7>
    3986:	48 83 7d f8 00       	cmpq   $0x0,-0x8(%rbp)
    398b:	74 16                	je     39a3 <safe_mul_func_int64_t_s_s+0xa7>
    398d:	48 b8 ff ff ff ff ff 	movabs $0x7fffffffffffffff,%rax
    3994:	ff ff 7f 
    3997:	48 99                	cqto   
    3999:	48 f7 7d f8          	idivq  -0x8(%rbp)
    399d:	48 39 45 f0          	cmp    %rax,-0x10(%rbp)
    39a1:	7c 0b                	jl     39ae <safe_mul_func_int64_t_s_s+0xb2>
    39a3:	48 8b 45 f8          	mov    -0x8(%rbp),%rax
    39a7:	48 0f af 45 f0       	imul   -0x10(%rbp),%rax
    39ac:	eb 04                	jmp    39b2 <safe_mul_func_int64_t_s_s+0xb6>
    39ae:	48 8b 45 f8          	mov    -0x8(%rbp),%rax
    39b2:	5d                   	pop    %rbp
    39b3:	c3                   	retq   

00000000000039b4 <safe_mod_func_int64_t_s_s>:
    39b4:	f3 0f 1e fa          	endbr64 
    39b8:	55                   	push   %rbp
    39b9:	48 89 e5             	mov    %rsp,%rbp
    39bc:	48 89 7d f8          	mov    %rdi,-0x8(%rbp)
    39c0:	48 89 75 f0          	mov    %rsi,-0x10(%rbp)
    39c4:	48 83 7d f0 00       	cmpq   $0x0,-0x10(%rbp)
    39c9:	74 26                	je     39f1 <safe_mod_func_int64_t_s_s+0x3d>
    39cb:	48 b8 00 00 00 00 00 	movabs $0x8000000000000000,%rax
    39d2:	00 00 80 
    39d5:	48 39 45 f8          	cmp    %rax,-0x8(%rbp)
    39d9:	75 07                	jne    39e2 <safe_mod_func_int64_t_s_s+0x2e>
    39db:	48 83 7d f0 ff       	cmpq   $0xffffffffffffffff,-0x10(%rbp)
    39e0:	74 0f                	je     39f1 <safe_mod_func_int64_t_s_s+0x3d>
    39e2:	48 8b 45 f8          	mov    -0x8(%rbp),%rax
    39e6:	48 99                	cqto   
    39e8:	48 f7 7d f0          	idivq  -0x10(%rbp)
    39ec:	48 89 d0             	mov    %rdx,%rax
    39ef:	eb 04                	jmp    39f5 <safe_mod_func_int64_t_s_s+0x41>
    39f1:	48 8b 45 f8          	mov    -0x8(%rbp),%rax
    39f5:	5d                   	pop    %rbp
    39f6:	c3                   	retq   

00000000000039f7 <safe_div_func_int64_t_s_s>:
    39f7:	f3 0f 1e fa          	endbr64 
    39fb:	55                   	push   %rbp
    39fc:	48 89 e5             	mov    %rsp,%rbp
    39ff:	48 89 7d f8          	mov    %rdi,-0x8(%rbp)
    3a03:	48 89 75 f0          	mov    %rsi,-0x10(%rbp)
    3a07:	48 83 7d f0 00       	cmpq   $0x0,-0x10(%rbp)
    3a0c:	74 23                	je     3a31 <safe_div_func_int64_t_s_s+0x3a>
    3a0e:	48 b8 00 00 00 00 00 	movabs $0x8000000000000000,%rax
    3a15:	00 00 80 
    3a18:	48 39 45 f8          	cmp    %rax,-0x8(%rbp)
    3a1c:	75 07                	jne    3a25 <safe_div_func_int64_t_s_s+0x2e>
    3a1e:	48 83 7d f0 ff       	cmpq   $0xffffffffffffffff,-0x10(%rbp)
    3a23:	74 0c                	je     3a31 <safe_div_func_int64_t_s_s+0x3a>
    3a25:	48 8b 45 f8          	mov    -0x8(%rbp),%rax
    3a29:	48 99                	cqto   
    3a2b:	48 f7 7d f0          	idivq  -0x10(%rbp)
    3a2f:	eb 04                	jmp    3a35 <safe_div_func_int64_t_s_s+0x3e>
    3a31:	48 8b 45 f8          	mov    -0x8(%rbp),%rax
    3a35:	5d                   	pop    %rbp
    3a36:	c3                   	retq   

0000000000003a37 <safe_lshift_func_int64_t_s_s>:
    3a37:	f3 0f 1e fa          	endbr64 
    3a3b:	55                   	push   %rbp
    3a3c:	48 89 e5             	mov    %rsp,%rbp
    3a3f:	48 89 7d f8          	mov    %rdi,-0x8(%rbp)
    3a43:	89 75 f4             	mov    %esi,-0xc(%rbp)
    3a46:	48 83 7d f8 00       	cmpq   $0x0,-0x8(%rbp)
    3a4b:	78 38                	js     3a85 <safe_lshift_func_int64_t_s_s+0x4e>
    3a4d:	83 7d f4 00          	cmpl   $0x0,-0xc(%rbp)
    3a51:	78 32                	js     3a85 <safe_lshift_func_int64_t_s_s+0x4e>
    3a53:	83 7d f4 1f          	cmpl   $0x1f,-0xc(%rbp)
    3a57:	7f 2c                	jg     3a85 <safe_lshift_func_int64_t_s_s+0x4e>
    3a59:	8b 45 f4             	mov    -0xc(%rbp),%eax
    3a5c:	48 ba ff ff ff ff ff 	movabs $0x7fffffffffffffff,%rdx
    3a63:	ff ff 7f 
    3a66:	89 c1                	mov    %eax,%ecx
    3a68:	48 d3 fa             	sar    %cl,%rdx
    3a6b:	48 89 d0             	mov    %rdx,%rax
    3a6e:	48 39 45 f8          	cmp    %rax,-0x8(%rbp)
    3a72:	7f 11                	jg     3a85 <safe_lshift_func_int64_t_s_s+0x4e>
    3a74:	8b 45 f4             	mov    -0xc(%rbp),%eax
    3a77:	48 8b 55 f8          	mov    -0x8(%rbp),%rdx
    3a7b:	89 c1                	mov    %eax,%ecx
    3a7d:	48 d3 e2             	shl    %cl,%rdx
    3a80:	48 89 d0             	mov    %rdx,%rax
    3a83:	eb 04                	jmp    3a89 <safe_lshift_func_int64_t_s_s+0x52>
    3a85:	48 8b 45 f8          	mov    -0x8(%rbp),%rax
    3a89:	5d                   	pop    %rbp
    3a8a:	c3                   	retq   

0000000000003a8b <safe_lshift_func_int64_t_s_u>:
    3a8b:	f3 0f 1e fa          	endbr64 
    3a8f:	55                   	push   %rbp
    3a90:	48 89 e5             	mov    %rsp,%rbp
    3a93:	48 89 7d f8          	mov    %rdi,-0x8(%rbp)
    3a97:	89 75 f4             	mov    %esi,-0xc(%rbp)
    3a9a:	48 83 7d f8 00       	cmpq   $0x0,-0x8(%rbp)
    3a9f:	78 32                	js     3ad3 <safe_lshift_func_int64_t_s_u+0x48>
    3aa1:	83 7d f4 1f          	cmpl   $0x1f,-0xc(%rbp)
    3aa5:	77 2c                	ja     3ad3 <safe_lshift_func_int64_t_s_u+0x48>
    3aa7:	8b 45 f4             	mov    -0xc(%rbp),%eax
    3aaa:	48 ba ff ff ff ff ff 	movabs $0x7fffffffffffffff,%rdx
    3ab1:	ff ff 7f 
    3ab4:	89 c1                	mov    %eax,%ecx
    3ab6:	48 d3 fa             	sar    %cl,%rdx
    3ab9:	48 89 d0             	mov    %rdx,%rax
    3abc:	48 39 45 f8          	cmp    %rax,-0x8(%rbp)
    3ac0:	7f 11                	jg     3ad3 <safe_lshift_func_int64_t_s_u+0x48>
    3ac2:	8b 45 f4             	mov    -0xc(%rbp),%eax
    3ac5:	48 8b 55 f8          	mov    -0x8(%rbp),%rdx
    3ac9:	89 c1                	mov    %eax,%ecx
    3acb:	48 d3 e2             	shl    %cl,%rdx
    3ace:	48 89 d0             	mov    %rdx,%rax
    3ad1:	eb 04                	jmp    3ad7 <safe_lshift_func_int64_t_s_u+0x4c>
    3ad3:	48 8b 45 f8          	mov    -0x8(%rbp),%rax
    3ad7:	5d                   	pop    %rbp
    3ad8:	c3                   	retq   

0000000000003ad9 <safe_rshift_func_int64_t_s_s>:
    3ad9:	f3 0f 1e fa          	endbr64 
    3add:	55                   	push   %rbp
    3ade:	48 89 e5             	mov    %rsp,%rbp
    3ae1:	48 89 7d f8          	mov    %rdi,-0x8(%rbp)
    3ae5:	89 75 f4             	mov    %esi,-0xc(%rbp)
    3ae8:	48 83 7d f8 00       	cmpq   $0x0,-0x8(%rbp)
    3aed:	78 1d                	js     3b0c <safe_rshift_func_int64_t_s_s+0x33>
    3aef:	83 7d f4 00          	cmpl   $0x0,-0xc(%rbp)
    3af3:	78 17                	js     3b0c <safe_rshift_func_int64_t_s_s+0x33>
    3af5:	83 7d f4 1f          	cmpl   $0x1f,-0xc(%rbp)
    3af9:	7f 11                	jg     3b0c <safe_rshift_func_int64_t_s_s+0x33>
    3afb:	8b 45 f4             	mov    -0xc(%rbp),%eax
    3afe:	48 8b 55 f8          	mov    -0x8(%rbp),%rdx
    3b02:	89 c1                	mov    %eax,%ecx
    3b04:	48 d3 fa             	sar    %cl,%rdx
    3b07:	48 89 d0             	mov    %rdx,%rax
    3b0a:	eb 04                	jmp    3b10 <safe_rshift_func_int64_t_s_s+0x37>
    3b0c:	48 8b 45 f8          	mov    -0x8(%rbp),%rax
    3b10:	5d                   	pop    %rbp
    3b11:	c3                   	retq   

0000000000003b12 <safe_rshift_func_int64_t_s_u>:
    3b12:	f3 0f 1e fa          	endbr64 
    3b16:	55                   	push   %rbp
    3b17:	48 89 e5             	mov    %rsp,%rbp
    3b1a:	48 89 7d f8          	mov    %rdi,-0x8(%rbp)
    3b1e:	89 75 f4             	mov    %esi,-0xc(%rbp)
    3b21:	48 83 7d f8 00       	cmpq   $0x0,-0x8(%rbp)
    3b26:	78 17                	js     3b3f <safe_rshift_func_int64_t_s_u+0x2d>
    3b28:	83 7d f4 1f          	cmpl   $0x1f,-0xc(%rbp)
    3b2c:	77 11                	ja     3b3f <safe_rshift_func_int64_t_s_u+0x2d>
    3b2e:	8b 45 f4             	mov    -0xc(%rbp),%eax
    3b31:	48 8b 55 f8          	mov    -0x8(%rbp),%rdx
    3b35:	89 c1                	mov    %eax,%ecx
    3b37:	48 d3 fa             	sar    %cl,%rdx
    3b3a:	48 89 d0             	mov    %rdx,%rax
    3b3d:	eb 04                	jmp    3b43 <safe_rshift_func_int64_t_s_u+0x31>
    3b3f:	48 8b 45 f8          	mov    -0x8(%rbp),%rax
    3b43:	5d                   	pop    %rbp
    3b44:	c3                   	retq   

0000000000003b45 <safe_unary_minus_func_uint8_t_u>:
    3b45:	f3 0f 1e fa          	endbr64 
    3b49:	55                   	push   %rbp
    3b4a:	48 89 e5             	mov    %rsp,%rbp
    3b4d:	89 f8                	mov    %edi,%eax
    3b4f:	88 45 fc             	mov    %al,-0x4(%rbp)
    3b52:	0f b6 45 fc          	movzbl -0x4(%rbp),%eax
    3b56:	f7 d8                	neg    %eax
    3b58:	5d                   	pop    %rbp
    3b59:	c3                   	retq   

0000000000003b5a <safe_add_func_uint8_t_u_u>:
    3b5a:	f3 0f 1e fa          	endbr64 
    3b5e:	55                   	push   %rbp
    3b5f:	48 89 e5             	mov    %rsp,%rbp
    3b62:	89 fa                	mov    %edi,%edx
    3b64:	89 f0                	mov    %esi,%eax
    3b66:	88 55 fc             	mov    %dl,-0x4(%rbp)
    3b69:	88 45 f8             	mov    %al,-0x8(%rbp)
    3b6c:	0f b6 55 fc          	movzbl -0x4(%rbp),%edx
    3b70:	0f b6 45 f8          	movzbl -0x8(%rbp),%eax
    3b74:	01 d0                	add    %edx,%eax
    3b76:	5d                   	pop    %rbp
    3b77:	c3                   	retq   

0000000000003b78 <safe_sub_func_uint8_t_u_u>:
    3b78:	f3 0f 1e fa          	endbr64 
    3b7c:	55                   	push   %rbp
    3b7d:	48 89 e5             	mov    %rsp,%rbp
    3b80:	89 fa                	mov    %edi,%edx
    3b82:	89 f0                	mov    %esi,%eax
    3b84:	88 55 fc             	mov    %dl,-0x4(%rbp)
    3b87:	88 45 f8             	mov    %al,-0x8(%rbp)
    3b8a:	0f b6 45 fc          	movzbl -0x4(%rbp),%eax
    3b8e:	2a 45 f8             	sub    -0x8(%rbp),%al
    3b91:	5d                   	pop    %rbp
    3b92:	c3                   	retq   

0000000000003b93 <safe_mul_func_uint8_t_u_u>:
    3b93:	f3 0f 1e fa          	endbr64 
    3b97:	55                   	push   %rbp
    3b98:	48 89 e5             	mov    %rsp,%rbp
    3b9b:	89 fa                	mov    %edi,%edx
    3b9d:	89 f0                	mov    %esi,%eax
    3b9f:	88 55 fc             	mov    %dl,-0x4(%rbp)
    3ba2:	88 45 f8             	mov    %al,-0x8(%rbp)
    3ba5:	0f b6 45 fc          	movzbl -0x4(%rbp),%eax
    3ba9:	f6 65 f8             	mulb   -0x8(%rbp)
    3bac:	5d                   	pop    %rbp
    3bad:	c3                   	retq   

0000000000003bae <safe_mod_func_uint8_t_u_u>:
    3bae:	f3 0f 1e fa          	endbr64 
    3bb2:	55                   	push   %rbp
    3bb3:	48 89 e5             	mov    %rsp,%rbp
    3bb6:	89 fa                	mov    %edi,%edx
    3bb8:	89 f0                	mov    %esi,%eax
    3bba:	88 55 fc             	mov    %dl,-0x4(%rbp)
    3bbd:	88 45 f8             	mov    %al,-0x8(%rbp)
    3bc0:	80 7d f8 00          	cmpb   $0x0,-0x8(%rbp)
    3bc4:	74 0f                	je     3bd5 <safe_mod_func_uint8_t_u_u+0x27>
    3bc6:	0f b6 45 fc          	movzbl -0x4(%rbp),%eax
    3bca:	0f b6 c0             	movzbl %al,%eax
    3bcd:	f6 75 f8             	divb   -0x8(%rbp)
    3bd0:	0f b6 c4             	movzbl %ah,%eax
    3bd3:	eb 04                	jmp    3bd9 <safe_mod_func_uint8_t_u_u+0x2b>
    3bd5:	0f b6 45 fc          	movzbl -0x4(%rbp),%eax
    3bd9:	5d                   	pop    %rbp
    3bda:	c3                   	retq   

0000000000003bdb <safe_div_func_uint8_t_u_u>:
    3bdb:	f3 0f 1e fa          	endbr64 
    3bdf:	55                   	push   %rbp
    3be0:	48 89 e5             	mov    %rsp,%rbp
    3be3:	89 fa                	mov    %edi,%edx
    3be5:	89 f0                	mov    %esi,%eax
    3be7:	88 55 fc             	mov    %dl,-0x4(%rbp)
    3bea:	88 45 f8             	mov    %al,-0x8(%rbp)
    3bed:	80 7d f8 00          	cmpb   $0x0,-0x8(%rbp)
    3bf1:	74 0c                	je     3bff <safe_div_func_uint8_t_u_u+0x24>
    3bf3:	0f b6 45 fc          	movzbl -0x4(%rbp),%eax
    3bf7:	0f b6 c0             	movzbl %al,%eax
    3bfa:	f6 75 f8             	divb   -0x8(%rbp)
    3bfd:	eb 04                	jmp    3c03 <safe_div_func_uint8_t_u_u+0x28>
    3bff:	0f b6 45 fc          	movzbl -0x4(%rbp),%eax
    3c03:	5d                   	pop    %rbp
    3c04:	c3                   	retq   

0000000000003c05 <safe_lshift_func_uint8_t_u_s>:
    3c05:	f3 0f 1e fa          	endbr64 
    3c09:	55                   	push   %rbp
    3c0a:	48 89 e5             	mov    %rsp,%rbp
    3c0d:	89 f8                	mov    %edi,%eax
    3c0f:	89 75 f8             	mov    %esi,-0x8(%rbp)
    3c12:	88 45 fc             	mov    %al,-0x4(%rbp)
    3c15:	83 7d f8 00          	cmpl   $0x0,-0x8(%rbp)
    3c19:	78 2b                	js     3c46 <safe_lshift_func_uint8_t_u_s+0x41>
    3c1b:	83 7d f8 1f          	cmpl   $0x1f,-0x8(%rbp)
    3c1f:	7f 25                	jg     3c46 <safe_lshift_func_uint8_t_u_s+0x41>
    3c21:	0f b6 55 fc          	movzbl -0x4(%rbp),%edx
    3c25:	8b 45 f8             	mov    -0x8(%rbp),%eax
    3c28:	be ff 00 00 00       	mov    $0xff,%esi
    3c2d:	89 c1                	mov    %eax,%ecx
    3c2f:	d3 fe                	sar    %cl,%esi
    3c31:	89 f0                	mov    %esi,%eax
    3c33:	39 c2                	cmp    %eax,%edx
    3c35:	7f 0f                	jg     3c46 <safe_lshift_func_uint8_t_u_s+0x41>
    3c37:	0f b6 55 fc          	movzbl -0x4(%rbp),%edx
    3c3b:	8b 45 f8             	mov    -0x8(%rbp),%eax
    3c3e:	89 c1                	mov    %eax,%ecx
    3c40:	d3 e2                	shl    %cl,%edx
    3c42:	89 d0                	mov    %edx,%eax
    3c44:	eb 04                	jmp    3c4a <safe_lshift_func_uint8_t_u_s+0x45>
    3c46:	0f b6 45 fc          	movzbl -0x4(%rbp),%eax
    3c4a:	5d                   	pop    %rbp
    3c4b:	c3                   	retq   

0000000000003c4c <safe_lshift_func_uint8_t_u_u>:
    3c4c:	f3 0f 1e fa          	endbr64 
    3c50:	55                   	push   %rbp
    3c51:	48 89 e5             	mov    %rsp,%rbp
    3c54:	89 f8                	mov    %edi,%eax
    3c56:	89 75 f8             	mov    %esi,-0x8(%rbp)
    3c59:	88 45 fc             	mov    %al,-0x4(%rbp)
    3c5c:	83 7d f8 1f          	cmpl   $0x1f,-0x8(%rbp)
    3c60:	77 25                	ja     3c87 <safe_lshift_func_uint8_t_u_u+0x3b>
    3c62:	0f b6 55 fc          	movzbl -0x4(%rbp),%edx
    3c66:	8b 45 f8             	mov    -0x8(%rbp),%eax
    3c69:	be ff 00 00 00       	mov    $0xff,%esi
    3c6e:	89 c1                	mov    %eax,%ecx
    3c70:	d3 fe                	sar    %cl,%esi
    3c72:	89 f0                	mov    %esi,%eax
    3c74:	39 c2                	cmp    %eax,%edx
    3c76:	7f 0f                	jg     3c87 <safe_lshift_func_uint8_t_u_u+0x3b>
    3c78:	0f b6 55 fc          	movzbl -0x4(%rbp),%edx
    3c7c:	8b 45 f8             	mov    -0x8(%rbp),%eax
    3c7f:	89 c1                	mov    %eax,%ecx
    3c81:	d3 e2                	shl    %cl,%edx
    3c83:	89 d0                	mov    %edx,%eax
    3c85:	eb 04                	jmp    3c8b <safe_lshift_func_uint8_t_u_u+0x3f>
    3c87:	0f b6 45 fc          	movzbl -0x4(%rbp),%eax
    3c8b:	5d                   	pop    %rbp
    3c8c:	c3                   	retq   

0000000000003c8d <safe_rshift_func_uint8_t_u_s>:
    3c8d:	f3 0f 1e fa          	endbr64 
    3c91:	55                   	push   %rbp
    3c92:	48 89 e5             	mov    %rsp,%rbp
    3c95:	89 f8                	mov    %edi,%eax
    3c97:	89 75 f8             	mov    %esi,-0x8(%rbp)
    3c9a:	88 45 fc             	mov    %al,-0x4(%rbp)
    3c9d:	83 7d f8 00          	cmpl   $0x0,-0x8(%rbp)
    3ca1:	78 15                	js     3cb8 <safe_rshift_func_uint8_t_u_s+0x2b>
    3ca3:	83 7d f8 1f          	cmpl   $0x1f,-0x8(%rbp)
    3ca7:	7f 0f                	jg     3cb8 <safe_rshift_func_uint8_t_u_s+0x2b>
    3ca9:	0f b6 55 fc          	movzbl -0x4(%rbp),%edx
    3cad:	8b 45 f8             	mov    -0x8(%rbp),%eax
    3cb0:	89 c1                	mov    %eax,%ecx
    3cb2:	d3 fa                	sar    %cl,%edx
    3cb4:	89 d0                	mov    %edx,%eax
    3cb6:	eb 04                	jmp    3cbc <safe_rshift_func_uint8_t_u_s+0x2f>
    3cb8:	0f b6 45 fc          	movzbl -0x4(%rbp),%eax
    3cbc:	5d                   	pop    %rbp
    3cbd:	c3                   	retq   

0000000000003cbe <safe_rshift_func_uint8_t_u_u>:
    3cbe:	f3 0f 1e fa          	endbr64 
    3cc2:	55                   	push   %rbp
    3cc3:	48 89 e5             	mov    %rsp,%rbp
    3cc6:	89 f8                	mov    %edi,%eax
    3cc8:	89 75 f8             	mov    %esi,-0x8(%rbp)
    3ccb:	88 45 fc             	mov    %al,-0x4(%rbp)
    3cce:	83 7d f8 1f          	cmpl   $0x1f,-0x8(%rbp)
    3cd2:	77 0f                	ja     3ce3 <safe_rshift_func_uint8_t_u_u+0x25>
    3cd4:	0f b6 55 fc          	movzbl -0x4(%rbp),%edx
    3cd8:	8b 45 f8             	mov    -0x8(%rbp),%eax
    3cdb:	89 c1                	mov    %eax,%ecx
    3cdd:	d3 fa                	sar    %cl,%edx
    3cdf:	89 d0                	mov    %edx,%eax
    3ce1:	eb 04                	jmp    3ce7 <safe_rshift_func_uint8_t_u_u+0x29>
    3ce3:	0f b6 45 fc          	movzbl -0x4(%rbp),%eax
    3ce7:	5d                   	pop    %rbp
    3ce8:	c3                   	retq   

0000000000003ce9 <safe_unary_minus_func_uint16_t_u>:
    3ce9:	f3 0f 1e fa          	endbr64 
    3ced:	55                   	push   %rbp
    3cee:	48 89 e5             	mov    %rsp,%rbp
    3cf1:	89 f8                	mov    %edi,%eax
    3cf3:	66 89 45 fc          	mov    %ax,-0x4(%rbp)
    3cf7:	0f b7 45 fc          	movzwl -0x4(%rbp),%eax
    3cfb:	f7 d8                	neg    %eax
    3cfd:	5d                   	pop    %rbp
    3cfe:	c3                   	retq   

0000000000003cff <safe_add_func_uint16_t_u_u>:
    3cff:	f3 0f 1e fa          	endbr64 
    3d03:	55                   	push   %rbp
    3d04:	48 89 e5             	mov    %rsp,%rbp
    3d07:	89 fa                	mov    %edi,%edx
    3d09:	89 f0                	mov    %esi,%eax
    3d0b:	66 89 55 fc          	mov    %dx,-0x4(%rbp)
    3d0f:	66 89 45 f8          	mov    %ax,-0x8(%rbp)
    3d13:	0f b7 55 fc          	movzwl -0x4(%rbp),%edx
    3d17:	0f b7 45 f8          	movzwl -0x8(%rbp),%eax
    3d1b:	01 d0                	add    %edx,%eax
    3d1d:	5d                   	pop    %rbp
    3d1e:	c3                   	retq   

0000000000003d1f <safe_sub_func_uint16_t_u_u>:
    3d1f:	f3 0f 1e fa          	endbr64 
    3d23:	55                   	push   %rbp
    3d24:	48 89 e5             	mov    %rsp,%rbp
    3d27:	89 fa                	mov    %edi,%edx
    3d29:	89 f0                	mov    %esi,%eax
    3d2b:	66 89 55 fc          	mov    %dx,-0x4(%rbp)
    3d2f:	66 89 45 f8          	mov    %ax,-0x8(%rbp)
    3d33:	0f b7 45 fc          	movzwl -0x4(%rbp),%eax
    3d37:	66 2b 45 f8          	sub    -0x8(%rbp),%ax
    3d3b:	5d                   	pop    %rbp
    3d3c:	c3                   	retq   

0000000000003d3d <safe_mul_func_uint16_t_u_u>:
    3d3d:	f3 0f 1e fa          	endbr64 
    3d41:	55                   	push   %rbp
    3d42:	48 89 e5             	mov    %rsp,%rbp
    3d45:	89 fa                	mov    %edi,%edx
    3d47:	89 f0                	mov    %esi,%eax
    3d49:	66 89 55 fc          	mov    %dx,-0x4(%rbp)
    3d4d:	66 89 45 f8          	mov    %ax,-0x8(%rbp)
    3d51:	0f b7 45 fc          	movzwl -0x4(%rbp),%eax
    3d55:	66 0f af 45 f8       	imul   -0x8(%rbp),%ax
    3d5a:	5d                   	pop    %rbp
    3d5b:	c3                   	retq   

0000000000003d5c <safe_mod_func_uint16_t_u_u>:
    3d5c:	f3 0f 1e fa          	endbr64 
    3d60:	55                   	push   %rbp
    3d61:	48 89 e5             	mov    %rsp,%rbp
    3d64:	89 fa                	mov    %edi,%edx
    3d66:	89 f0                	mov    %esi,%eax
    3d68:	66 89 55 fc          	mov    %dx,-0x4(%rbp)
    3d6c:	66 89 45 f8          	mov    %ax,-0x8(%rbp)
    3d70:	66 83 7d f8 00       	cmpw   $0x0,-0x8(%rbp)
    3d75:	74 11                	je     3d88 <safe_mod_func_uint16_t_u_u+0x2c>
    3d77:	0f b7 45 fc          	movzwl -0x4(%rbp),%eax
    3d7b:	ba 00 00 00 00       	mov    $0x0,%edx
    3d80:	66 f7 75 f8          	divw   -0x8(%rbp)
    3d84:	89 d0                	mov    %edx,%eax
    3d86:	eb 04                	jmp    3d8c <safe_mod_func_uint16_t_u_u+0x30>
    3d88:	0f b7 45 fc          	movzwl -0x4(%rbp),%eax
    3d8c:	5d                   	pop    %rbp
    3d8d:	c3                   	retq   

0000000000003d8e <safe_div_func_uint16_t_u_u>:
    3d8e:	f3 0f 1e fa          	endbr64 
    3d92:	55                   	push   %rbp
    3d93:	48 89 e5             	mov    %rsp,%rbp
    3d96:	89 fa                	mov    %edi,%edx
    3d98:	89 f0                	mov    %esi,%eax
    3d9a:	66 89 55 fc          	mov    %dx,-0x4(%rbp)
    3d9e:	66 89 45 f8          	mov    %ax,-0x8(%rbp)
    3da2:	66 83 7d f8 00       	cmpw   $0x0,-0x8(%rbp)
    3da7:	74 0f                	je     3db8 <safe_div_func_uint16_t_u_u+0x2a>
    3da9:	0f b7 45 fc          	movzwl -0x4(%rbp),%eax
    3dad:	ba 00 00 00 00       	mov    $0x0,%edx
    3db2:	66 f7 75 f8          	divw   -0x8(%rbp)
    3db6:	eb 04                	jmp    3dbc <safe_div_func_uint16_t_u_u+0x2e>
    3db8:	0f b7 45 fc          	movzwl -0x4(%rbp),%eax
    3dbc:	5d                   	pop    %rbp
    3dbd:	c3                   	retq   

0000000000003dbe <safe_lshift_func_uint16_t_u_s>:
    3dbe:	f3 0f 1e fa          	endbr64 
    3dc2:	55                   	push   %rbp
    3dc3:	48 89 e5             	mov    %rsp,%rbp
    3dc6:	89 f8                	mov    %edi,%eax
    3dc8:	89 75 f8             	mov    %esi,-0x8(%rbp)
    3dcb:	66 89 45 fc          	mov    %ax,-0x4(%rbp)
    3dcf:	83 7d f8 00          	cmpl   $0x0,-0x8(%rbp)
    3dd3:	78 2b                	js     3e00 <safe_lshift_func_uint16_t_u_s+0x42>
    3dd5:	83 7d f8 1f          	cmpl   $0x1f,-0x8(%rbp)
    3dd9:	7f 25                	jg     3e00 <safe_lshift_func_uint16_t_u_s+0x42>
    3ddb:	0f b7 55 fc          	movzwl -0x4(%rbp),%edx
    3ddf:	8b 45 f8             	mov    -0x8(%rbp),%eax
    3de2:	be ff ff 00 00       	mov    $0xffff,%esi
    3de7:	89 c1                	mov    %eax,%ecx
    3de9:	d3 fe                	sar    %cl,%esi
    3deb:	89 f0                	mov    %esi,%eax
    3ded:	39 c2                	cmp    %eax,%edx
    3def:	7f 0f                	jg     3e00 <safe_lshift_func_uint16_t_u_s+0x42>
    3df1:	0f b7 55 fc          	movzwl -0x4(%rbp),%edx
    3df5:	8b 45 f8             	mov    -0x8(%rbp),%eax
    3df8:	89 c1                	mov    %eax,%ecx
    3dfa:	d3 e2                	shl    %cl,%edx
    3dfc:	89 d0                	mov    %edx,%eax
    3dfe:	eb 04                	jmp    3e04 <safe_lshift_func_uint16_t_u_s+0x46>
    3e00:	0f b7 45 fc          	movzwl -0x4(%rbp),%eax
    3e04:	5d                   	pop    %rbp
    3e05:	c3                   	retq   

0000000000003e06 <safe_lshift_func_uint16_t_u_u>:
    3e06:	f3 0f 1e fa          	endbr64 
    3e0a:	55                   	push   %rbp
    3e0b:	48 89 e5             	mov    %rsp,%rbp
    3e0e:	89 f8                	mov    %edi,%eax
    3e10:	89 75 f8             	mov    %esi,-0x8(%rbp)
    3e13:	66 89 45 fc          	mov    %ax,-0x4(%rbp)
    3e17:	83 7d f8 1f          	cmpl   $0x1f,-0x8(%rbp)
    3e1b:	77 25                	ja     3e42 <safe_lshift_func_uint16_t_u_u+0x3c>
    3e1d:	0f b7 55 fc          	movzwl -0x4(%rbp),%edx
    3e21:	8b 45 f8             	mov    -0x8(%rbp),%eax
    3e24:	be ff ff 00 00       	mov    $0xffff,%esi
    3e29:	89 c1                	mov    %eax,%ecx
    3e2b:	d3 fe                	sar    %cl,%esi
    3e2d:	89 f0                	mov    %esi,%eax
    3e2f:	39 c2                	cmp    %eax,%edx
    3e31:	7f 0f                	jg     3e42 <safe_lshift_func_uint16_t_u_u+0x3c>
    3e33:	0f b7 55 fc          	movzwl -0x4(%rbp),%edx
    3e37:	8b 45 f8             	mov    -0x8(%rbp),%eax
    3e3a:	89 c1                	mov    %eax,%ecx
    3e3c:	d3 e2                	shl    %cl,%edx
    3e3e:	89 d0                	mov    %edx,%eax
    3e40:	eb 04                	jmp    3e46 <safe_lshift_func_uint16_t_u_u+0x40>
    3e42:	0f b7 45 fc          	movzwl -0x4(%rbp),%eax
    3e46:	5d                   	pop    %rbp
    3e47:	c3                   	retq   

0000000000003e48 <safe_rshift_func_uint16_t_u_s>:
    3e48:	f3 0f 1e fa          	endbr64 
    3e4c:	55                   	push   %rbp
    3e4d:	48 89 e5             	mov    %rsp,%rbp
    3e50:	89 f8                	mov    %edi,%eax
    3e52:	89 75 f8             	mov    %esi,-0x8(%rbp)
    3e55:	66 89 45 fc          	mov    %ax,-0x4(%rbp)
    3e59:	83 7d f8 00          	cmpl   $0x0,-0x8(%rbp)
    3e5d:	78 15                	js     3e74 <safe_rshift_func_uint16_t_u_s+0x2c>
    3e5f:	83 7d f8 1f          	cmpl   $0x1f,-0x8(%rbp)
    3e63:	7f 0f                	jg     3e74 <safe_rshift_func_uint16_t_u_s+0x2c>
    3e65:	0f b7 55 fc          	movzwl -0x4(%rbp),%edx
    3e69:	8b 45 f8             	mov    -0x8(%rbp),%eax
    3e6c:	89 c1                	mov    %eax,%ecx
    3e6e:	d3 fa                	sar    %cl,%edx
    3e70:	89 d0                	mov    %edx,%eax
    3e72:	eb 04                	jmp    3e78 <safe_rshift_func_uint16_t_u_s+0x30>
    3e74:	0f b7 45 fc          	movzwl -0x4(%rbp),%eax
    3e78:	5d                   	pop    %rbp
    3e79:	c3                   	retq   

0000000000003e7a <safe_rshift_func_uint16_t_u_u>:
    3e7a:	f3 0f 1e fa          	endbr64 
    3e7e:	55                   	push   %rbp
    3e7f:	48 89 e5             	mov    %rsp,%rbp
    3e82:	89 f8                	mov    %edi,%eax
    3e84:	89 75 f8             	mov    %esi,-0x8(%rbp)
    3e87:	66 89 45 fc          	mov    %ax,-0x4(%rbp)
    3e8b:	83 7d f8 1f          	cmpl   $0x1f,-0x8(%rbp)
    3e8f:	77 0f                	ja     3ea0 <safe_rshift_func_uint16_t_u_u+0x26>
    3e91:	0f b7 55 fc          	movzwl -0x4(%rbp),%edx
    3e95:	8b 45 f8             	mov    -0x8(%rbp),%eax
    3e98:	89 c1                	mov    %eax,%ecx
    3e9a:	d3 fa                	sar    %cl,%edx
    3e9c:	89 d0                	mov    %edx,%eax
    3e9e:	eb 04                	jmp    3ea4 <safe_rshift_func_uint16_t_u_u+0x2a>
    3ea0:	0f b7 45 fc          	movzwl -0x4(%rbp),%eax
    3ea4:	5d                   	pop    %rbp
    3ea5:	c3                   	retq   

0000000000003ea6 <safe_unary_minus_func_uint32_t_u>:
    3ea6:	f3 0f 1e fa          	endbr64 
    3eaa:	55                   	push   %rbp
    3eab:	48 89 e5             	mov    %rsp,%rbp
    3eae:	89 7d fc             	mov    %edi,-0x4(%rbp)
    3eb1:	8b 45 fc             	mov    -0x4(%rbp),%eax
    3eb4:	f7 d8                	neg    %eax
    3eb6:	5d                   	pop    %rbp
    3eb7:	c3                   	retq   

0000000000003eb8 <safe_add_func_uint32_t_u_u>:
    3eb8:	f3 0f 1e fa          	endbr64 
    3ebc:	55                   	push   %rbp
    3ebd:	48 89 e5             	mov    %rsp,%rbp
    3ec0:	89 7d fc             	mov    %edi,-0x4(%rbp)
    3ec3:	89 75 f8             	mov    %esi,-0x8(%rbp)
    3ec6:	8b 55 fc             	mov    -0x4(%rbp),%edx
    3ec9:	8b 45 f8             	mov    -0x8(%rbp),%eax
    3ecc:	01 d0                	add    %edx,%eax
    3ece:	5d                   	pop    %rbp
    3ecf:	c3                   	retq   

0000000000003ed0 <safe_sub_func_uint32_t_u_u>:
    3ed0:	f3 0f 1e fa          	endbr64 
    3ed4:	55                   	push   %rbp
    3ed5:	48 89 e5             	mov    %rsp,%rbp
    3ed8:	89 7d fc             	mov    %edi,-0x4(%rbp)
    3edb:	89 75 f8             	mov    %esi,-0x8(%rbp)
    3ede:	8b 45 fc             	mov    -0x4(%rbp),%eax
    3ee1:	2b 45 f8             	sub    -0x8(%rbp),%eax
    3ee4:	5d                   	pop    %rbp
    3ee5:	c3                   	retq   

0000000000003ee6 <safe_mul_func_uint32_t_u_u>:
    3ee6:	f3 0f 1e fa          	endbr64 
    3eea:	55                   	push   %rbp
    3eeb:	48 89 e5             	mov    %rsp,%rbp
    3eee:	89 7d fc             	mov    %edi,-0x4(%rbp)
    3ef1:	89 75 f8             	mov    %esi,-0x8(%rbp)
    3ef4:	8b 45 fc             	mov    -0x4(%rbp),%eax
    3ef7:	0f af 45 f8          	imul   -0x8(%rbp),%eax
    3efb:	5d                   	pop    %rbp
    3efc:	c3                   	retq   

0000000000003efd <safe_mod_func_uint32_t_u_u>:
    3efd:	f3 0f 1e fa          	endbr64 
    3f01:	55                   	push   %rbp
    3f02:	48 89 e5             	mov    %rsp,%rbp
    3f05:	89 7d fc             	mov    %edi,-0x4(%rbp)
    3f08:	89 75 f8             	mov    %esi,-0x8(%rbp)
    3f0b:	83 7d f8 00          	cmpl   $0x0,-0x8(%rbp)
    3f0f:	74 0f                	je     3f20 <safe_mod_func_uint32_t_u_u+0x23>
    3f11:	8b 45 fc             	mov    -0x4(%rbp),%eax
    3f14:	ba 00 00 00 00       	mov    $0x0,%edx
    3f19:	f7 75 f8             	divl   -0x8(%rbp)
    3f1c:	89 d0                	mov    %edx,%eax
    3f1e:	eb 03                	jmp    3f23 <safe_mod_func_uint32_t_u_u+0x26>
    3f20:	8b 45 fc             	mov    -0x4(%rbp),%eax
    3f23:	5d                   	pop    %rbp
    3f24:	c3                   	retq   

0000000000003f25 <safe_div_func_uint32_t_u_u>:
    3f25:	f3 0f 1e fa          	endbr64 
    3f29:	55                   	push   %rbp
    3f2a:	48 89 e5             	mov    %rsp,%rbp
    3f2d:	89 7d fc             	mov    %edi,-0x4(%rbp)
    3f30:	89 75 f8             	mov    %esi,-0x8(%rbp)
    3f33:	83 7d f8 00          	cmpl   $0x0,-0x8(%rbp)
    3f37:	74 0d                	je     3f46 <safe_div_func_uint32_t_u_u+0x21>
    3f39:	8b 45 fc             	mov    -0x4(%rbp),%eax
    3f3c:	ba 00 00 00 00       	mov    $0x0,%edx
    3f41:	f7 75 f8             	divl   -0x8(%rbp)
    3f44:	eb 03                	jmp    3f49 <safe_div_func_uint32_t_u_u+0x24>
    3f46:	8b 45 fc             	mov    -0x4(%rbp),%eax
    3f49:	5d                   	pop    %rbp
    3f4a:	c3                   	retq   

0000000000003f4b <safe_lshift_func_uint32_t_u_s>:
    3f4b:	f3 0f 1e fa          	endbr64 
    3f4f:	55                   	push   %rbp
    3f50:	48 89 e5             	mov    %rsp,%rbp
    3f53:	89 7d fc             	mov    %edi,-0x4(%rbp)
    3f56:	89 75 f8             	mov    %esi,-0x8(%rbp)
    3f59:	83 7d f8 00          	cmpl   $0x0,-0x8(%rbp)
    3f5d:	78 27                	js     3f86 <safe_lshift_func_uint32_t_u_s+0x3b>
    3f5f:	83 7d f8 1f          	cmpl   $0x1f,-0x8(%rbp)
    3f63:	7f 21                	jg     3f86 <safe_lshift_func_uint32_t_u_s+0x3b>
    3f65:	8b 45 f8             	mov    -0x8(%rbp),%eax
    3f68:	ba ff ff ff ff       	mov    $0xffffffff,%edx
    3f6d:	89 c1                	mov    %eax,%ecx
    3f6f:	d3 ea                	shr    %cl,%edx
    3f71:	89 d0                	mov    %edx,%eax
    3f73:	39 45 fc             	cmp    %eax,-0x4(%rbp)
    3f76:	77 0e                	ja     3f86 <safe_lshift_func_uint32_t_u_s+0x3b>
    3f78:	8b 45 f8             	mov    -0x8(%rbp),%eax
    3f7b:	8b 55 fc             	mov    -0x4(%rbp),%edx
    3f7e:	89 c1                	mov    %eax,%ecx
    3f80:	d3 e2                	shl    %cl,%edx
    3f82:	89 d0                	mov    %edx,%eax
    3f84:	eb 03                	jmp    3f89 <safe_lshift_func_uint32_t_u_s+0x3e>
    3f86:	8b 45 fc             	mov    -0x4(%rbp),%eax
    3f89:	5d                   	pop    %rbp
    3f8a:	c3                   	retq   

0000000000003f8b <safe_lshift_func_uint32_t_u_u>:
    3f8b:	f3 0f 1e fa          	endbr64 
    3f8f:	55                   	push   %rbp
    3f90:	48 89 e5             	mov    %rsp,%rbp
    3f93:	89 7d fc             	mov    %edi,-0x4(%rbp)
    3f96:	89 75 f8             	mov    %esi,-0x8(%rbp)
    3f99:	83 7d f8 1f          	cmpl   $0x1f,-0x8(%rbp)
    3f9d:	77 21                	ja     3fc0 <safe_lshift_func_uint32_t_u_u+0x35>
    3f9f:	8b 45 f8             	mov    -0x8(%rbp),%eax
    3fa2:	ba ff ff ff ff       	mov    $0xffffffff,%edx
    3fa7:	89 c1                	mov    %eax,%ecx
    3fa9:	d3 ea                	shr    %cl,%edx
    3fab:	89 d0                	mov    %edx,%eax
    3fad:	39 45 fc             	cmp    %eax,-0x4(%rbp)
    3fb0:	77 0e                	ja     3fc0 <safe_lshift_func_uint32_t_u_u+0x35>
    3fb2:	8b 45 f8             	mov    -0x8(%rbp),%eax
    3fb5:	8b 55 fc             	mov    -0x4(%rbp),%edx
    3fb8:	89 c1                	mov    %eax,%ecx
    3fba:	d3 e2                	shl    %cl,%edx
    3fbc:	89 d0                	mov    %edx,%eax
    3fbe:	eb 03                	jmp    3fc3 <safe_lshift_func_uint32_t_u_u+0x38>
    3fc0:	8b 45 fc             	mov    -0x4(%rbp),%eax
    3fc3:	5d                   	pop    %rbp
    3fc4:	c3                   	retq   

0000000000003fc5 <safe_rshift_func_uint32_t_u_s>:
    3fc5:	f3 0f 1e fa          	endbr64 
    3fc9:	55                   	push   %rbp
    3fca:	48 89 e5             	mov    %rsp,%rbp
    3fcd:	89 7d fc             	mov    %edi,-0x4(%rbp)
    3fd0:	89 75 f8             	mov    %esi,-0x8(%rbp)
    3fd3:	83 7d f8 00          	cmpl   $0x0,-0x8(%rbp)
    3fd7:	78 14                	js     3fed <safe_rshift_func_uint32_t_u_s+0x28>
    3fd9:	83 7d f8 1f          	cmpl   $0x1f,-0x8(%rbp)
    3fdd:	7f 0e                	jg     3fed <safe_rshift_func_uint32_t_u_s+0x28>
    3fdf:	8b 45 f8             	mov    -0x8(%rbp),%eax
    3fe2:	8b 55 fc             	mov    -0x4(%rbp),%edx
    3fe5:	89 c1                	mov    %eax,%ecx
    3fe7:	d3 ea                	shr    %cl,%edx
    3fe9:	89 d0                	mov    %edx,%eax
    3feb:	eb 03                	jmp    3ff0 <safe_rshift_func_uint32_t_u_s+0x2b>
    3fed:	8b 45 fc             	mov    -0x4(%rbp),%eax
    3ff0:	5d                   	pop    %rbp
    3ff1:	c3                   	retq   

0000000000003ff2 <safe_rshift_func_uint32_t_u_u>:
    3ff2:	f3 0f 1e fa          	endbr64 
    3ff6:	55                   	push   %rbp
    3ff7:	48 89 e5             	mov    %rsp,%rbp
    3ffa:	89 7d fc             	mov    %edi,-0x4(%rbp)
    3ffd:	89 75 f8             	mov    %esi,-0x8(%rbp)
    4000:	83 7d f8 1f          	cmpl   $0x1f,-0x8(%rbp)
    4004:	77 0e                	ja     4014 <safe_rshift_func_uint32_t_u_u+0x22>
    4006:	8b 45 f8             	mov    -0x8(%rbp),%eax
    4009:	8b 55 fc             	mov    -0x4(%rbp),%edx
    400c:	89 c1                	mov    %eax,%ecx
    400e:	d3 ea                	shr    %cl,%edx
    4010:	89 d0                	mov    %edx,%eax
    4012:	eb 03                	jmp    4017 <safe_rshift_func_uint32_t_u_u+0x25>
    4014:	8b 45 fc             	mov    -0x4(%rbp),%eax
    4017:	5d                   	pop    %rbp
    4018:	c3                   	retq   

0000000000004019 <safe_unary_minus_func_uint64_t_u>:
    4019:	f3 0f 1e fa          	endbr64 
    401d:	55                   	push   %rbp
    401e:	48 89 e5             	mov    %rsp,%rbp
    4021:	48 89 7d f8          	mov    %rdi,-0x8(%rbp)
    4025:	48 8b 45 f8          	mov    -0x8(%rbp),%rax
    4029:	48 f7 d8             	neg    %rax
    402c:	5d                   	pop    %rbp
    402d:	c3                   	retq   

000000000000402e <safe_add_func_uint64_t_u_u>:
    402e:	f3 0f 1e fa          	endbr64 
    4032:	55                   	push   %rbp
    4033:	48 89 e5             	mov    %rsp,%rbp
    4036:	48 89 7d f8          	mov    %rdi,-0x8(%rbp)
    403a:	48 89 75 f0          	mov    %rsi,-0x10(%rbp)
    403e:	48 8b 55 f8          	mov    -0x8(%rbp),%rdx
    4042:	48 8b 45 f0          	mov    -0x10(%rbp),%rax
    4046:	48 01 d0             	add    %rdx,%rax
    4049:	5d                   	pop    %rbp
    404a:	c3                   	retq   

000000000000404b <safe_sub_func_uint64_t_u_u>:
    404b:	f3 0f 1e fa          	endbr64 
    404f:	55                   	push   %rbp
    4050:	48 89 e5             	mov    %rsp,%rbp
    4053:	48 89 7d f8          	mov    %rdi,-0x8(%rbp)
    4057:	48 89 75 f0          	mov    %rsi,-0x10(%rbp)
    405b:	48 8b 45 f8          	mov    -0x8(%rbp),%rax
    405f:	48 2b 45 f0          	sub    -0x10(%rbp),%rax
    4063:	5d                   	pop    %rbp
    4064:	c3                   	retq   

0000000000004065 <safe_mul_func_uint64_t_u_u>:
    4065:	f3 0f 1e fa          	endbr64 
    4069:	55                   	push   %rbp
    406a:	48 89 e5             	mov    %rsp,%rbp
    406d:	48 89 7d f8          	mov    %rdi,-0x8(%rbp)
    4071:	48 89 75 f0          	mov    %rsi,-0x10(%rbp)
    4075:	48 8b 45 f8          	mov    -0x8(%rbp),%rax
    4079:	48 0f af 45 f0       	imul   -0x10(%rbp),%rax
    407e:	5d                   	pop    %rbp
    407f:	c3                   	retq   

0000000000004080 <safe_mod_func_uint64_t_u_u>:
    4080:	f3 0f 1e fa          	endbr64 
    4084:	55                   	push   %rbp
    4085:	48 89 e5             	mov    %rsp,%rbp
    4088:	48 89 7d f8          	mov    %rdi,-0x8(%rbp)
    408c:	48 89 75 f0          	mov    %rsi,-0x10(%rbp)
    4090:	48 83 7d f0 00       	cmpq   $0x0,-0x10(%rbp)
    4095:	74 12                	je     40a9 <safe_mod_func_uint64_t_u_u+0x29>
    4097:	48 8b 45 f8          	mov    -0x8(%rbp),%rax
    409b:	ba 00 00 00 00       	mov    $0x0,%edx
    40a0:	48 f7 75 f0          	divq   -0x10(%rbp)
    40a4:	48 89 d0             	mov    %rdx,%rax
    40a7:	eb 04                	jmp    40ad <safe_mod_func_uint64_t_u_u+0x2d>
    40a9:	48 8b 45 f8          	mov    -0x8(%rbp),%rax
    40ad:	5d                   	pop    %rbp
    40ae:	c3                   	retq   

00000000000040af <safe_div_func_uint64_t_u_u>:
    40af:	f3 0f 1e fa          	endbr64 
    40b3:	55                   	push   %rbp
    40b4:	48 89 e5             	mov    %rsp,%rbp
    40b7:	48 89 7d f8          	mov    %rdi,-0x8(%rbp)
    40bb:	48 89 75 f0          	mov    %rsi,-0x10(%rbp)
    40bf:	48 83 7d f0 00       	cmpq   $0x0,-0x10(%rbp)
    40c4:	74 0f                	je     40d5 <safe_div_func_uint64_t_u_u+0x26>
    40c6:	48 8b 45 f8          	mov    -0x8(%rbp),%rax
    40ca:	ba 00 00 00 00       	mov    $0x0,%edx
    40cf:	48 f7 75 f0          	divq   -0x10(%rbp)
    40d3:	eb 04                	jmp    40d9 <safe_div_func_uint64_t_u_u+0x2a>
    40d5:	48 8b 45 f8          	mov    -0x8(%rbp),%rax
    40d9:	5d                   	pop    %rbp
    40da:	c3                   	retq   

00000000000040db <safe_lshift_func_uint64_t_u_s>:
    40db:	f3 0f 1e fa          	endbr64 
    40df:	55                   	push   %rbp
    40e0:	48 89 e5             	mov    %rsp,%rbp
    40e3:	48 89 7d f8          	mov    %rdi,-0x8(%rbp)
    40e7:	89 75 f4             	mov    %esi,-0xc(%rbp)
    40ea:	83 7d f4 00          	cmpl   $0x0,-0xc(%rbp)
    40ee:	78 2f                	js     411f <safe_lshift_func_uint64_t_u_s+0x44>
    40f0:	83 7d f4 1f          	cmpl   $0x1f,-0xc(%rbp)
    40f4:	7f 29                	jg     411f <safe_lshift_func_uint64_t_u_s+0x44>
    40f6:	8b 45 f4             	mov    -0xc(%rbp),%eax
    40f9:	48 c7 c2 ff ff ff ff 	mov    $0xffffffffffffffff,%rdx
    4100:	89 c1                	mov    %eax,%ecx
    4102:	48 d3 ea             	shr    %cl,%rdx
    4105:	48 89 d0             	mov    %rdx,%rax
    4108:	48 39 45 f8          	cmp    %rax,-0x8(%rbp)
    410c:	77 11                	ja     411f <safe_lshift_func_uint64_t_u_s+0x44>
    410e:	8b 45 f4             	mov    -0xc(%rbp),%eax
    4111:	48 8b 55 f8          	mov    -0x8(%rbp),%rdx
    4115:	89 c1                	mov    %eax,%ecx
    4117:	48 d3 e2             	shl    %cl,%rdx
    411a:	48 89 d0             	mov    %rdx,%rax
    411d:	eb 04                	jmp    4123 <safe_lshift_func_uint64_t_u_s+0x48>
    411f:	48 8b 45 f8          	mov    -0x8(%rbp),%rax
    4123:	5d                   	pop    %rbp
    4124:	c3                   	retq   

0000000000004125 <safe_lshift_func_uint64_t_u_u>:
    4125:	f3 0f 1e fa          	endbr64 
    4129:	55                   	push   %rbp
    412a:	48 89 e5             	mov    %rsp,%rbp
    412d:	48 89 7d f8          	mov    %rdi,-0x8(%rbp)
    4131:	89 75 f4             	mov    %esi,-0xc(%rbp)
    4134:	83 7d f4 1f          	cmpl   $0x1f,-0xc(%rbp)
    4138:	77 29                	ja     4163 <safe_lshift_func_uint64_t_u_u+0x3e>
    413a:	8b 45 f4             	mov    -0xc(%rbp),%eax
    413d:	48 c7 c2 ff ff ff ff 	mov    $0xffffffffffffffff,%rdx
    4144:	89 c1                	mov    %eax,%ecx
    4146:	48 d3 ea             	shr    %cl,%rdx
    4149:	48 89 d0             	mov    %rdx,%rax
    414c:	48 39 45 f8          	cmp    %rax,-0x8(%rbp)
    4150:	77 11                	ja     4163 <safe_lshift_func_uint64_t_u_u+0x3e>
    4152:	8b 45 f4             	mov    -0xc(%rbp),%eax
    4155:	48 8b 55 f8          	mov    -0x8(%rbp),%rdx
    4159:	89 c1                	mov    %eax,%ecx
    415b:	48 d3 e2             	shl    %cl,%rdx
    415e:	48 89 d0             	mov    %rdx,%rax
    4161:	eb 04                	jmp    4167 <safe_lshift_func_uint64_t_u_u+0x42>
    4163:	48 8b 45 f8          	mov    -0x8(%rbp),%rax
    4167:	5d                   	pop    %rbp
    4168:	c3                   	retq   

0000000000004169 <safe_rshift_func_uint64_t_u_s>:
    4169:	f3 0f 1e fa          	endbr64 
    416d:	55                   	push   %rbp
    416e:	48 89 e5             	mov    %rsp,%rbp
    4171:	48 89 7d f8          	mov    %rdi,-0x8(%rbp)
    4175:	89 75 f4             	mov    %esi,-0xc(%rbp)
    4178:	83 7d f4 00          	cmpl   $0x0,-0xc(%rbp)
    417c:	78 17                	js     4195 <safe_rshift_func_uint64_t_u_s+0x2c>
    417e:	83 7d f4 1f          	cmpl   $0x1f,-0xc(%rbp)
    4182:	7f 11                	jg     4195 <safe_rshift_func_uint64_t_u_s+0x2c>
    4184:	8b 45 f4             	mov    -0xc(%rbp),%eax
    4187:	48 8b 55 f8          	mov    -0x8(%rbp),%rdx
    418b:	89 c1                	mov    %eax,%ecx
    418d:	48 d3 ea             	shr    %cl,%rdx
    4190:	48 89 d0             	mov    %rdx,%rax
    4193:	eb 04                	jmp    4199 <safe_rshift_func_uint64_t_u_s+0x30>
    4195:	48 8b 45 f8          	mov    -0x8(%rbp),%rax
    4199:	5d                   	pop    %rbp
    419a:	c3                   	retq   

000000000000419b <safe_rshift_func_uint64_t_u_u>:
    419b:	f3 0f 1e fa          	endbr64 
    419f:	55                   	push   %rbp
    41a0:	48 89 e5             	mov    %rsp,%rbp
    41a3:	48 89 7d f8          	mov    %rdi,-0x8(%rbp)
    41a7:	89 75 f4             	mov    %esi,-0xc(%rbp)
    41aa:	83 7d f4 1f          	cmpl   $0x1f,-0xc(%rbp)
    41ae:	77 11                	ja     41c1 <safe_rshift_func_uint64_t_u_u+0x26>
    41b0:	8b 45 f4             	mov    -0xc(%rbp),%eax
    41b3:	48 8b 55 f8          	mov    -0x8(%rbp),%rdx
    41b7:	89 c1                	mov    %eax,%ecx
    41b9:	48 d3 ea             	shr    %cl,%rdx
    41bc:	48 89 d0             	mov    %rdx,%rax
    41bf:	eb 04                	jmp    41c5 <safe_rshift_func_uint64_t_u_u+0x2a>
    41c1:	48 8b 45 f8          	mov    -0x8(%rbp),%rax
    41c5:	5d                   	pop    %rbp
    41c6:	c3                   	retq   

00000000000041c7 <safe_add_func_float_f_f>:
    41c7:	f3 0f 1e fa          	endbr64 
    41cb:	55                   	push   %rbp
    41cc:	48 89 e5             	mov    %rsp,%rbp
    41cf:	f3 0f 11 45 fc       	movss  %xmm0,-0x4(%rbp)
    41d4:	f3 0f 11 4d f8       	movss  %xmm1,-0x8(%rbp)
    41d9:	f3 0f 10 4d fc       	movss  -0x4(%rbp),%xmm1
    41de:	f3 0f 10 05 ae a4 00 	movss  0xa4ae(%rip),%xmm0        # e694 <g_1185+0x54c>
    41e5:	00 
    41e6:	f3 0f 59 c8          	mulss  %xmm0,%xmm1
    41ea:	f3 0f 10 55 f8       	movss  -0x8(%rbp),%xmm2
    41ef:	f3 0f 10 05 9d a4 00 	movss  0xa49d(%rip),%xmm0        # e694 <g_1185+0x54c>
    41f6:	00 
    41f7:	f3 0f 59 c2          	mulss  %xmm2,%xmm0
    41fb:	f3 0f 58 c1          	addss  %xmm1,%xmm0
    41ff:	f3 0f 10 0d 99 a4 00 	movss  0xa499(%rip),%xmm1        # e6a0 <g_1185+0x558>
    4206:	00 
    4207:	0f 54 c1             	andps  %xmm1,%xmm0
    420a:	0f 2f 05 9f a4 00 00 	comiss 0xa49f(%rip),%xmm0        # e6b0 <g_1185+0x568>
    4211:	76 07                	jbe    421a <safe_add_func_float_f_f+0x53>
    4213:	f3 0f 10 45 fc       	movss  -0x4(%rbp),%xmm0
    4218:	eb 0a                	jmp    4224 <safe_add_func_float_f_f+0x5d>
    421a:	f3 0f 10 45 fc       	movss  -0x4(%rbp),%xmm0
    421f:	f3 0f 58 45 f8       	addss  -0x8(%rbp),%xmm0
    4224:	5d                   	pop    %rbp
    4225:	c3                   	retq   

0000000000004226 <safe_sub_func_float_f_f>:
    4226:	f3 0f 1e fa          	endbr64 
    422a:	55                   	push   %rbp
    422b:	48 89 e5             	mov    %rsp,%rbp
    422e:	f3 0f 11 45 fc       	movss  %xmm0,-0x4(%rbp)
    4233:	f3 0f 11 4d f8       	movss  %xmm1,-0x8(%rbp)
    4238:	f3 0f 10 4d fc       	movss  -0x4(%rbp),%xmm1
    423d:	f3 0f 10 05 4f a4 00 	movss  0xa44f(%rip),%xmm0        # e694 <g_1185+0x54c>
    4244:	00 
    4245:	f3 0f 59 c1          	mulss  %xmm1,%xmm0
    4249:	f3 0f 10 55 f8       	movss  -0x8(%rbp),%xmm2
    424e:	f3 0f 10 0d 3e a4 00 	movss  0xa43e(%rip),%xmm1        # e694 <g_1185+0x54c>
    4255:	00 
    4256:	f3 0f 59 ca          	mulss  %xmm2,%xmm1
    425a:	f3 0f 5c c1          	subss  %xmm1,%xmm0
    425e:	f3 0f 10 0d 3a a4 00 	movss  0xa43a(%rip),%xmm1        # e6a0 <g_1185+0x558>
    4265:	00 
    4266:	0f 54 c1             	andps  %xmm1,%xmm0
    4269:	0f 2f 05 40 a4 00 00 	comiss 0xa440(%rip),%xmm0        # e6b0 <g_1185+0x568>
    4270:	76 07                	jbe    4279 <safe_sub_func_float_f_f+0x53>
    4272:	f3 0f 10 45 fc       	movss  -0x4(%rbp),%xmm0
    4277:	eb 0a                	jmp    4283 <safe_sub_func_float_f_f+0x5d>
    4279:	f3 0f 10 45 fc       	movss  -0x4(%rbp),%xmm0
    427e:	f3 0f 5c 45 f8       	subss  -0x8(%rbp),%xmm0
    4283:	5d                   	pop    %rbp
    4284:	c3                   	retq   

0000000000004285 <safe_mul_func_float_f_f>:
    4285:	f3 0f 1e fa          	endbr64 
    4289:	55                   	push   %rbp
    428a:	48 89 e5             	mov    %rsp,%rbp
    428d:	f3 0f 11 45 fc       	movss  %xmm0,-0x4(%rbp)
    4292:	f3 0f 11 4d f8       	movss  %xmm1,-0x8(%rbp)
    4297:	f3 0f 10 4d fc       	movss  -0x4(%rbp),%xmm1
    429c:	f3 0f 10 05 10 a4 00 	movss  0xa410(%rip),%xmm0        # e6b4 <g_1185+0x56c>
    42a3:	00 
    42a4:	f3 0f 59 c8          	mulss  %xmm0,%xmm1
    42a8:	f3 0f 10 55 f8       	movss  -0x8(%rbp),%xmm2
    42ad:	f3 0f 10 05 03 a4 00 	movss  0xa403(%rip),%xmm0        # e6b8 <g_1185+0x570>
    42b4:	00 
    42b5:	f3 0f 59 c2          	mulss  %xmm2,%xmm0
    42b9:	f3 0f 59 c1          	mulss  %xmm1,%xmm0
    42bd:	f3 0f 10 0d db a3 00 	movss  0xa3db(%rip),%xmm1        # e6a0 <g_1185+0x558>
    42c4:	00 
    42c5:	0f 54 c1             	andps  %xmm1,%xmm0
    42c8:	0f 2f 05 ed a3 00 00 	comiss 0xa3ed(%rip),%xmm0        # e6bc <g_1185+0x574>
    42cf:	76 07                	jbe    42d8 <safe_mul_func_float_f_f+0x53>
    42d1:	f3 0f 10 45 fc       	movss  -0x4(%rbp),%xmm0
    42d6:	eb 0a                	jmp    42e2 <safe_mul_func_float_f_f+0x5d>
    42d8:	f3 0f 10 45 fc       	movss  -0x4(%rbp),%xmm0
    42dd:	f3 0f 59 45 f8       	mulss  -0x8(%rbp),%xmm0
    42e2:	5d                   	pop    %rbp
    42e3:	c3                   	retq   

00000000000042e4 <safe_div_func_float_f_f>:
    42e4:	f3 0f 1e fa          	endbr64 
    42e8:	55                   	push   %rbp
    42e9:	48 89 e5             	mov    %rsp,%rbp
    42ec:	f3 0f 11 45 fc       	movss  %xmm0,-0x4(%rbp)
    42f1:	f3 0f 11 4d f8       	movss  %xmm1,-0x8(%rbp)
    42f6:	f3 0f 10 45 f8       	movss  -0x8(%rbp),%xmm0
    42fb:	f3 0f 10 0d 9d a3 00 	movss  0xa39d(%rip),%xmm1        # e6a0 <g_1185+0x558>
    4302:	00 
    4303:	0f 54 c8             	andps  %xmm0,%xmm1
    4306:	f3 0f 10 05 b2 a3 00 	movss  0xa3b2(%rip),%xmm0        # e6c0 <g_1185+0x578>
    430d:	00 
    430e:	0f 2f c1             	comiss %xmm1,%xmm0
    4311:	0f 97 c0             	seta   %al
    4314:	83 f0 01             	xor    $0x1,%eax
    4317:	84 c0                	test   %al,%al
    4319:	75 56                	jne    4371 <safe_div_func_float_f_f+0x8d>
    431b:	66 0f ef c0          	pxor   %xmm0,%xmm0
    431f:	0f 2e 45 f8          	ucomiss -0x8(%rbp),%xmm0
    4323:	7a 0a                	jp     432f <safe_div_func_float_f_f+0x4b>
    4325:	66 0f ef c0          	pxor   %xmm0,%xmm0
    4329:	0f 2e 45 f8          	ucomiss -0x8(%rbp),%xmm0
    432d:	74 4e                	je     437d <safe_div_func_float_f_f+0x99>
    432f:	f3 0f 10 4d fc       	movss  -0x4(%rbp),%xmm1
    4334:	f3 0f 10 05 88 a3 00 	movss  0xa388(%rip),%xmm0        # e6c4 <g_1185+0x57c>
    433b:	00 
    433c:	f3 0f 59 c1          	mulss  %xmm1,%xmm0
    4340:	f3 0f 10 55 f8       	movss  -0x8(%rbp),%xmm2
    4345:	f3 0f 10 0d 7b a3 00 	movss  0xa37b(%rip),%xmm1        # e6c8 <g_1185+0x580>
    434c:	00 
    434d:	f3 0f 59 ca          	mulss  %xmm2,%xmm1
    4351:	f3 0f 5e c1          	divss  %xmm1,%xmm0
    4355:	f3 0f 10 0d 43 a3 00 	movss  0xa343(%rip),%xmm1        # e6a0 <g_1185+0x558>
    435c:	00 
    435d:	0f 54 c1             	andps  %xmm1,%xmm0
    4360:	0f 2f 05 65 a3 00 00 	comiss 0xa365(%rip),%xmm0        # e6cc <g_1185+0x584>
    4367:	0f 97 c0             	seta   %al
    436a:	83 f0 01             	xor    $0x1,%eax
    436d:	84 c0                	test   %al,%al
    436f:	74 0c                	je     437d <safe_div_func_float_f_f+0x99>
    4371:	f3 0f 10 45 fc       	movss  -0x4(%rbp),%xmm0
    4376:	f3 0f 5e 45 f8       	divss  -0x8(%rbp),%xmm0
    437b:	eb 05                	jmp    4382 <safe_div_func_float_f_f+0x9e>
    437d:	f3 0f 10 45 fc       	movss  -0x4(%rbp),%xmm0
    4382:	5d                   	pop    %rbp
    4383:	c3                   	retq   

0000000000004384 <safe_add_func_double_f_f>:
    4384:	f3 0f 1e fa          	endbr64 
    4388:	55                   	push   %rbp
    4389:	48 89 e5             	mov    %rsp,%rbp
    438c:	f2 0f 11 45 f8       	movsd  %xmm0,-0x8(%rbp)
    4391:	f2 0f 11 4d f0       	movsd  %xmm1,-0x10(%rbp)
    4396:	f2 0f 10 4d f8       	movsd  -0x8(%rbp),%xmm1
    439b:	f2 0f 10 05 2d a3 00 	movsd  0xa32d(%rip),%xmm0        # e6d0 <g_1185+0x588>
    43a2:	00 
    43a3:	f2 0f 59 c8          	mulsd  %xmm0,%xmm1
    43a7:	f2 0f 10 55 f0       	movsd  -0x10(%rbp),%xmm2
    43ac:	f2 0f 10 05 1c a3 00 	movsd  0xa31c(%rip),%xmm0        # e6d0 <g_1185+0x588>
    43b3:	00 
    43b4:	f2 0f 59 c2          	mulsd  %xmm2,%xmm0
    43b8:	f2 0f 58 c1          	addsd  %xmm1,%xmm0
    43bc:	f3 0f 7e 0d 1c a3 00 	movq   0xa31c(%rip),%xmm1        # e6e0 <g_1185+0x598>
    43c3:	00 
    43c4:	66 0f 54 c1          	andpd  %xmm1,%xmm0
    43c8:	66 0f 2f 05 20 a3 00 	comisd 0xa320(%rip),%xmm0        # e6f0 <g_1185+0x5a8>
    43cf:	00 
    43d0:	76 07                	jbe    43d9 <safe_add_func_double_f_f+0x55>
    43d2:	f2 0f 10 45 f8       	movsd  -0x8(%rbp),%xmm0
    43d7:	eb 0a                	jmp    43e3 <safe_add_func_double_f_f+0x5f>
    43d9:	f2 0f 10 45 f8       	movsd  -0x8(%rbp),%xmm0
    43de:	f2 0f 58 45 f0       	addsd  -0x10(%rbp),%xmm0
    43e3:	5d                   	pop    %rbp
    43e4:	c3                   	retq   

00000000000043e5 <safe_sub_func_double_f_f>:
    43e5:	f3 0f 1e fa          	endbr64 
    43e9:	55                   	push   %rbp
    43ea:	48 89 e5             	mov    %rsp,%rbp
    43ed:	f2 0f 11 45 f8       	movsd  %xmm0,-0x8(%rbp)
    43f2:	f2 0f 11 4d f0       	movsd  %xmm1,-0x10(%rbp)
    43f7:	f2 0f 10 4d f8       	movsd  -0x8(%rbp),%xmm1
    43fc:	f2 0f 10 05 cc a2 00 	movsd  0xa2cc(%rip),%xmm0        # e6d0 <g_1185+0x588>
    4403:	00 
    4404:	f2 0f 59 c1          	mulsd  %xmm1,%xmm0
    4408:	f2 0f 10 55 f0       	movsd  -0x10(%rbp),%xmm2
    440d:	f2 0f 10 0d bb a2 00 	movsd  0xa2bb(%rip),%xmm1        # e6d0 <g_1185+0x588>
    4414:	00 
    4415:	f2 0f 59 ca          	mulsd  %xmm2,%xmm1
    4419:	f2 0f 5c c1          	subsd  %xmm1,%xmm0
    441d:	f3 0f 7e 0d bb a2 00 	movq   0xa2bb(%rip),%xmm1        # e6e0 <g_1185+0x598>
    4424:	00 
    4425:	66 0f 54 c1          	andpd  %xmm1,%xmm0
    4429:	66 0f 2f 05 bf a2 00 	comisd 0xa2bf(%rip),%xmm0        # e6f0 <g_1185+0x5a8>
    4430:	00 
    4431:	76 07                	jbe    443a <safe_sub_func_double_f_f+0x55>
    4433:	f2 0f 10 45 f8       	movsd  -0x8(%rbp),%xmm0
    4438:	eb 0a                	jmp    4444 <safe_sub_func_double_f_f+0x5f>
    443a:	f2 0f 10 45 f8       	movsd  -0x8(%rbp),%xmm0
    443f:	f2 0f 5c 45 f0       	subsd  -0x10(%rbp),%xmm0
    4444:	5d                   	pop    %rbp
    4445:	c3                   	retq   

0000000000004446 <safe_mul_func_double_f_f>:
    4446:	f3 0f 1e fa          	endbr64 
    444a:	55                   	push   %rbp
    444b:	48 89 e5             	mov    %rsp,%rbp
    444e:	f2 0f 11 45 f8       	movsd  %xmm0,-0x8(%rbp)
    4453:	f2 0f 11 4d f0       	movsd  %xmm1,-0x10(%rbp)
    4458:	f2 0f 10 4d f8       	movsd  -0x8(%rbp),%xmm1
    445d:	f2 0f 10 05 93 a2 00 	movsd  0xa293(%rip),%xmm0        # e6f8 <g_1185+0x5b0>
    4464:	00 
    4465:	f2 0f 59 c8          	mulsd  %xmm0,%xmm1
    4469:	f2 0f 10 55 f0       	movsd  -0x10(%rbp),%xmm2
    446e:	f2 0f 10 05 8a a2 00 	movsd  0xa28a(%rip),%xmm0        # e700 <g_1185+0x5b8>
    4475:	00 
    4476:	f2 0f 59 c2          	mulsd  %xmm2,%xmm0
    447a:	f2 0f 59 c1          	mulsd  %xmm1,%xmm0
    447e:	f3 0f 7e 0d 5a a2 00 	movq   0xa25a(%rip),%xmm1        # e6e0 <g_1185+0x598>
    4485:	00 
    4486:	66 0f 54 c1          	andpd  %xmm1,%xmm0
    448a:	66 0f 2f 05 76 a2 00 	comisd 0xa276(%rip),%xmm0        # e708 <g_1185+0x5c0>
    4491:	00 
    4492:	76 07                	jbe    449b <safe_mul_func_double_f_f+0x55>
    4494:	f2 0f 10 45 f8       	movsd  -0x8(%rbp),%xmm0
    4499:	eb 0a                	jmp    44a5 <safe_mul_func_double_f_f+0x5f>
    449b:	f2 0f 10 45 f8       	movsd  -0x8(%rbp),%xmm0
    44a0:	f2 0f 59 45 f0       	mulsd  -0x10(%rbp),%xmm0
    44a5:	5d                   	pop    %rbp
    44a6:	c3                   	retq   

00000000000044a7 <safe_div_func_double_f_f>:
    44a7:	f3 0f 1e fa          	endbr64 
    44ab:	55                   	push   %rbp
    44ac:	48 89 e5             	mov    %rsp,%rbp
    44af:	f2 0f 11 45 f8       	movsd  %xmm0,-0x8(%rbp)
    44b4:	f2 0f 11 4d f0       	movsd  %xmm1,-0x10(%rbp)
    44b9:	f2 0f 10 45 f0       	movsd  -0x10(%rbp),%xmm0
    44be:	f3 0f 7e 0d 1a a2 00 	movq   0xa21a(%rip),%xmm1        # e6e0 <g_1185+0x598>
    44c5:	00 
    44c6:	66 0f 54 c8          	andpd  %xmm0,%xmm1
    44ca:	f2 0f 10 05 3e a2 00 	movsd  0xa23e(%rip),%xmm0        # e710 <g_1185+0x5c8>
    44d1:	00 
    44d2:	66 0f 2f c1          	comisd %xmm1,%xmm0
    44d6:	0f 97 c0             	seta   %al
    44d9:	83 f0 01             	xor    $0x1,%eax
    44dc:	84 c0                	test   %al,%al
    44de:	75 5a                	jne    453a <safe_div_func_double_f_f+0x93>
    44e0:	66 0f ef c0          	pxor   %xmm0,%xmm0
    44e4:	66 0f 2e 45 f0       	ucomisd -0x10(%rbp),%xmm0
    44e9:	7a 0b                	jp     44f6 <safe_div_func_double_f_f+0x4f>
    44eb:	66 0f ef c0          	pxor   %xmm0,%xmm0
    44ef:	66 0f 2e 45 f0       	ucomisd -0x10(%rbp),%xmm0
    44f4:	74 50                	je     4546 <safe_div_func_double_f_f+0x9f>
    44f6:	f2 0f 10 4d f8       	movsd  -0x8(%rbp),%xmm1
    44fb:	f2 0f 10 05 15 a2 00 	movsd  0xa215(%rip),%xmm0        # e718 <g_1185+0x5d0>
    4502:	00 
    4503:	f2 0f 59 c1          	mulsd  %xmm1,%xmm0
    4507:	f2 0f 10 55 f0       	movsd  -0x10(%rbp),%xmm2
    450c:	f2 0f 10 0d 0c a2 00 	movsd  0xa20c(%rip),%xmm1        # e720 <g_1185+0x5d8>
    4513:	00 
    4514:	f2 0f 59 ca          	mulsd  %xmm2,%xmm1
    4518:	f2 0f 5e c1          	divsd  %xmm1,%xmm0
    451c:	f3 0f 7e 0d bc a1 00 	movq   0xa1bc(%rip),%xmm1        # e6e0 <g_1185+0x598>
    4523:	00 
    4524:	66 0f 54 c1          	andpd  %xmm1,%xmm0
    4528:	66 0f 2f 05 f8 a1 00 	comisd 0xa1f8(%rip),%xmm0        # e728 <g_1185+0x5e0>
    452f:	00 
    4530:	0f 97 c0             	seta   %al
    4533:	83 f0 01             	xor    $0x1,%eax
    4536:	84 c0                	test   %al,%al
    4538:	74 0c                	je     4546 <safe_div_func_double_f_f+0x9f>
    453a:	f2 0f 10 45 f8       	movsd  -0x8(%rbp),%xmm0
    453f:	f2 0f 5e 45 f0       	divsd  -0x10(%rbp),%xmm0
    4544:	eb 05                	jmp    454b <safe_div_func_double_f_f+0xa4>
    4546:	f2 0f 10 45 f8       	movsd  -0x8(%rbp),%xmm0
    454b:	5d                   	pop    %rbp
    454c:	c3                   	retq   

000000000000454d <safe_convert_func_float_to_int32_t>:
    454d:	f3 0f 1e fa          	endbr64 
    4551:	55                   	push   %rbp
    4552:	48 89 e5             	mov    %rsp,%rbp
    4555:	f3 0f 11 45 fc       	movss  %xmm0,-0x4(%rbp)
    455a:	f3 0f 10 05 ce a1 00 	movss  0xa1ce(%rip),%xmm0        # e730 <g_1185+0x5e8>
    4561:	00 
    4562:	0f 2f 45 fc          	comiss -0x4(%rbp),%xmm0
    4566:	0f 93 c0             	setae  %al
    4569:	83 f0 01             	xor    $0x1,%eax
    456c:	84 c0                	test   %al,%al
    456e:	74 21                	je     4591 <safe_convert_func_float_to_int32_t+0x44>
    4570:	f3 0f 10 45 fc       	movss  -0x4(%rbp),%xmm0
    4575:	0f 2f 05 b8 a1 00 00 	comiss 0xa1b8(%rip),%xmm0        # e734 <g_1185+0x5ec>
    457c:	0f 93 c0             	setae  %al
    457f:	83 f0 01             	xor    $0x1,%eax
    4582:	84 c0                	test   %al,%al
    4584:	74 0b                	je     4591 <safe_convert_func_float_to_int32_t+0x44>
    4586:	f3 0f 10 45 fc       	movss  -0x4(%rbp),%xmm0
    458b:	f3 0f 2c c0          	cvttss2si %xmm0,%eax
    458f:	eb 05                	jmp    4596 <safe_convert_func_float_to_int32_t+0x49>
    4591:	b8 ff ff ff 7f       	mov    $0x7fffffff,%eax
    4596:	5d                   	pop    %rbp
    4597:	c3                   	retq   

0000000000004598 <crc32_gentab>:
    4598:	f3 0f 1e fa          	endbr64 
    459c:	55                   	push   %rbp
    459d:	48 89 e5             	mov    %rsp,%rbp
    45a0:	c7 45 fc 20 83 b8 ed 	movl   $0xedb88320,-0x4(%rbp)
    45a7:	c7 45 f4 00 00 00 00 	movl   $0x0,-0xc(%rbp)
    45ae:	eb 51                	jmp    4601 <crc32_gentab+0x69>
    45b0:	8b 45 f4             	mov    -0xc(%rbp),%eax
    45b3:	89 45 f0             	mov    %eax,-0x10(%rbp)
    45b6:	c7 45 f8 08 00 00 00 	movl   $0x8,-0x8(%rbp)
    45bd:	eb 1e                	jmp    45dd <crc32_gentab+0x45>
    45bf:	8b 45 f0             	mov    -0x10(%rbp),%eax
    45c2:	83 e0 01             	and    $0x1,%eax
    45c5:	85 c0                	test   %eax,%eax
    45c7:	74 0d                	je     45d6 <crc32_gentab+0x3e>
    45c9:	8b 45 f0             	mov    -0x10(%rbp),%eax
    45cc:	d1 e8                	shr    %eax
    45ce:	33 45 fc             	xor    -0x4(%rbp),%eax
    45d1:	89 45 f0             	mov    %eax,-0x10(%rbp)
    45d4:	eb 03                	jmp    45d9 <crc32_gentab+0x41>
    45d6:	d1 6d f0             	shrl   -0x10(%rbp)
    45d9:	83 6d f8 01          	subl   $0x1,-0x8(%rbp)
    45dd:	83 7d f8 00          	cmpl   $0x0,-0x8(%rbp)
    45e1:	7f dc                	jg     45bf <crc32_gentab+0x27>
    45e3:	8b 45 f4             	mov    -0xc(%rbp),%eax
    45e6:	48 98                	cltq   
    45e8:	48 8d 0c 85 00 00 00 	lea    0x0(,%rax,4),%rcx
    45ef:	00 
    45f0:	48 8d 15 29 f9 00 00 	lea    0xf929(%rip),%rdx        # 13f20 <crc32_tab>
    45f7:	8b 45 f0             	mov    -0x10(%rbp),%eax
    45fa:	89 04 11             	mov    %eax,(%rcx,%rdx,1)
    45fd:	83 45 f4 01          	addl   $0x1,-0xc(%rbp)
    4601:	81 7d f4 ff 00 00 00 	cmpl   $0xff,-0xc(%rbp)
    4608:	7e a6                	jle    45b0 <crc32_gentab+0x18>
    460a:	90                   	nop
    460b:	90                   	nop
    460c:	5d                   	pop    %rbp
    460d:	c3                   	retq   

000000000000460e <crc32_byte>:
    460e:	f3 0f 1e fa          	endbr64 
    4612:	55                   	push   %rbp
    4613:	48 89 e5             	mov    %rsp,%rbp
    4616:	89 f8                	mov    %edi,%eax
    4618:	88 45 fc             	mov    %al,-0x4(%rbp)
    461b:	8b 05 ff c9 00 00    	mov    0xc9ff(%rip),%eax        # 11020 <crc32_context>
    4621:	c1 e8 08             	shr    $0x8,%eax
    4624:	89 c1                	mov    %eax,%ecx
    4626:	0f b6 55 fc          	movzbl -0x4(%rbp),%edx
    462a:	8b 05 f0 c9 00 00    	mov    0xc9f0(%rip),%eax        # 11020 <crc32_context>
    4630:	31 d0                	xor    %edx,%eax
    4632:	0f b6 c0             	movzbl %al,%eax
    4635:	89 c0                	mov    %eax,%eax
    4637:	48 8d 14 85 00 00 00 	lea    0x0(,%rax,4),%rdx
    463e:	00 
    463f:	48 8d 05 da f8 00 00 	lea    0xf8da(%rip),%rax        # 13f20 <crc32_tab>
    4646:	8b 04 02             	mov    (%rdx,%rax,1),%eax
    4649:	31 c8                	xor    %ecx,%eax
    464b:	89 05 cf c9 00 00    	mov    %eax,0xc9cf(%rip)        # 11020 <crc32_context>
    4651:	90                   	nop
    4652:	5d                   	pop    %rbp
    4653:	c3                   	retq   

0000000000004654 <crc32_8bytes>:
    4654:	f3 0f 1e fa          	endbr64 
    4658:	55                   	push   %rbp
    4659:	48 89 e5             	mov    %rsp,%rbp
    465c:	48 83 ec 08          	sub    $0x8,%rsp
    4660:	48 89 7d f8          	mov    %rdi,-0x8(%rbp)
    4664:	48 8b 45 f8          	mov    -0x8(%rbp),%rax
    4668:	0f b6 c0             	movzbl %al,%eax
    466b:	89 c7                	mov    %eax,%edi
    466d:	e8 9c ff ff ff       	callq  460e <crc32_byte>
    4672:	48 8b 45 f8          	mov    -0x8(%rbp),%rax
    4676:	48 c1 e8 08          	shr    $0x8,%rax
    467a:	0f b6 c0             	movzbl %al,%eax
    467d:	89 c7                	mov    %eax,%edi
    467f:	e8 8a ff ff ff       	callq  460e <crc32_byte>
    4684:	48 8b 45 f8          	mov    -0x8(%rbp),%rax
    4688:	48 c1 e8 10          	shr    $0x10,%rax
    468c:	0f b6 c0             	movzbl %al,%eax
    468f:	89 c7                	mov    %eax,%edi
    4691:	e8 78 ff ff ff       	callq  460e <crc32_byte>
    4696:	48 8b 45 f8          	mov    -0x8(%rbp),%rax
    469a:	48 c1 e8 18          	shr    $0x18,%rax
    469e:	0f b6 c0             	movzbl %al,%eax
    46a1:	89 c7                	mov    %eax,%edi
    46a3:	e8 66 ff ff ff       	callq  460e <crc32_byte>
    46a8:	48 8b 45 f8          	mov    -0x8(%rbp),%rax
    46ac:	48 c1 e8 20          	shr    $0x20,%rax
    46b0:	0f b6 c0             	movzbl %al,%eax
    46b3:	89 c7                	mov    %eax,%edi
    46b5:	e8 54 ff ff ff       	callq  460e <crc32_byte>
    46ba:	48 8b 45 f8          	mov    -0x8(%rbp),%rax
    46be:	48 c1 e8 28          	shr    $0x28,%rax
    46c2:	0f b6 c0             	movzbl %al,%eax
    46c5:	89 c7                	mov    %eax,%edi
    46c7:	e8 42 ff ff ff       	callq  460e <crc32_byte>
    46cc:	48 8b 45 f8          	mov    -0x8(%rbp),%rax
    46d0:	48 c1 e8 30          	shr    $0x30,%rax
    46d4:	0f b6 c0             	movzbl %al,%eax
    46d7:	89 c7                	mov    %eax,%edi
    46d9:	e8 30 ff ff ff       	callq  460e <crc32_byte>
    46de:	48 8b 45 f8          	mov    -0x8(%rbp),%rax
    46e2:	48 c1 e8 38          	shr    $0x38,%rax
    46e6:	0f b6 c0             	movzbl %al,%eax
    46e9:	89 c7                	mov    %eax,%edi
    46eb:	e8 1e ff ff ff       	callq  460e <crc32_byte>
    46f0:	90                   	nop
    46f1:	c9                   	leaveq 
    46f2:	c3                   	retq   

00000000000046f3 <transparent_crc>:
    46f3:	f3 0f 1e fa          	endbr64 
    46f7:	55                   	push   %rbp
    46f8:	48 89 e5             	mov    %rsp,%rbp
    46fb:	48 83 ec 20          	sub    $0x20,%rsp
    46ff:	48 89 7d f8          	mov    %rdi,-0x8(%rbp)
    4703:	48 89 75 f0          	mov    %rsi,-0x10(%rbp)
    4707:	89 55 ec             	mov    %edx,-0x14(%rbp)
    470a:	48 8b 45 f8          	mov    -0x8(%rbp),%rax
    470e:	48 89 c7             	mov    %rax,%rdi
    4711:	e8 3e ff ff ff       	callq  4654 <crc32_8bytes>
    4716:	83 7d ec 00          	cmpl   $0x0,-0x14(%rbp)
    471a:	74 22                	je     473e <transparent_crc+0x4b>
    471c:	8b 05 fe c8 00 00    	mov    0xc8fe(%rip),%eax        # 11020 <crc32_context>
    4722:	f7 d0                	not    %eax
    4724:	89 c2                	mov    %eax,%edx
    4726:	48 8b 45 f0          	mov    -0x10(%rbp),%rax
    472a:	48 89 c6             	mov    %rax,%rsi
    472d:	48 8d 3d fc 98 00 00 	lea    0x98fc(%rip),%rdi        # e030 <_IO_stdin_used+0x30>
    4734:	b8 00 00 00 00       	mov    $0x0,%eax
    4739:	e8 42 e9 ff ff       	callq  3080 <printf@plt>
    473e:	90                   	nop
    473f:	c9                   	leaveq 
    4740:	c3                   	retq   

0000000000004741 <transparent_crc_bytes>:
    4741:	f3 0f 1e fa          	endbr64 
    4745:	55                   	push   %rbp
    4746:	48 89 e5             	mov    %rsp,%rbp
    4749:	48 83 ec 30          	sub    $0x30,%rsp
    474d:	48 89 7d e8          	mov    %rdi,-0x18(%rbp)
    4751:	89 75 e4             	mov    %esi,-0x1c(%rbp)
    4754:	48 89 55 d8          	mov    %rdx,-0x28(%rbp)
    4758:	89 4d e0             	mov    %ecx,-0x20(%rbp)
    475b:	c7 45 fc 00 00 00 00 	movl   $0x0,-0x4(%rbp)
    4762:	eb 1e                	jmp    4782 <transparent_crc_bytes+0x41>
    4764:	8b 45 fc             	mov    -0x4(%rbp),%eax
    4767:	48 63 d0             	movslq %eax,%rdx
    476a:	48 8b 45 e8          	mov    -0x18(%rbp),%rax
    476e:	48 01 d0             	add    %rdx,%rax
    4771:	0f b6 00             	movzbl (%rax),%eax
    4774:	0f b6 c0             	movzbl %al,%eax
    4777:	89 c7                	mov    %eax,%edi
    4779:	e8 90 fe ff ff       	callq  460e <crc32_byte>
    477e:	83 45 fc 01          	addl   $0x1,-0x4(%rbp)
    4782:	8b 45 fc             	mov    -0x4(%rbp),%eax
    4785:	3b 45 e4             	cmp    -0x1c(%rbp),%eax
    4788:	7c da                	jl     4764 <transparent_crc_bytes+0x23>
    478a:	83 7d e0 00          	cmpl   $0x0,-0x20(%rbp)
    478e:	74 22                	je     47b2 <transparent_crc_bytes+0x71>
    4790:	8b 05 8a c8 00 00    	mov    0xc88a(%rip),%eax        # 11020 <crc32_context>
    4796:	f7 d0                	not    %eax
    4798:	89 c2                	mov    %eax,%edx
    479a:	48 8b 45 d8          	mov    -0x28(%rbp),%rax
    479e:	48 89 c6             	mov    %rax,%rsi
    47a1:	48 8d 3d 88 98 00 00 	lea    0x9888(%rip),%rdi        # e030 <_IO_stdin_used+0x30>
    47a8:	b8 00 00 00 00       	mov    $0x0,%eax
    47ad:	e8 ce e8 ff ff       	callq  3080 <printf@plt>
    47b2:	90                   	nop
    47b3:	c9                   	leaveq 
    47b4:	c3                   	retq   

00000000000047b5 <func_1>:
    47b5:	f3 0f 1e fa          	endbr64 
    47b9:	55                   	push   %rbp
    47ba:	48 89 e5             	mov    %rsp,%rbp
    47bd:	41 57                	push   %r15
    47bf:	41 56                	push   %r14
    47c1:	41 55                	push   %r13
    47c3:	41 54                	push   %r12
    47c5:	53                   	push   %rbx
    47c6:	48 81 ec 38 02 00 00 	sub    $0x238,%rsp
    47cd:	64 48 8b 04 25 28 00 	mov    %fs:0x28,%rax
    47d4:	00 00 
    47d6:	48 89 45 c8          	mov    %rax,-0x38(%rbp)
    47da:	31 c0                	xor    %eax,%eax
    47dc:	c7 85 b0 fd ff ff ff 	movl   $0xffffffff,-0x250(%rbp)
    47e3:	ff ff ff 
    47e6:	48 8d 05 43 c8 00 00 	lea    0xc843(%rip),%rax        # 11030 <g_19>
    47ed:	48 89 85 d8 fd ff ff 	mov    %rax,-0x228(%rbp)
    47f4:	48 8d 85 60 fe ff ff 	lea    -0x1a0(%rbp),%rax
    47fb:	48 8d 15 3e ea 00 00 	lea    0xea3e(%rip),%rdx        # 13240 <g_1297+0x20>
    4802:	b9 2d 00 00 00       	mov    $0x2d,%ecx
    4807:	48 89 c7             	mov    %rax,%rdi
    480a:	48 89 d6             	mov    %rdx,%rsi
    480d:	f3 48 a5             	rep movsq %ds:(%rsi),%es:(%rdi)
    4810:	c7 85 40 fe ff ff fa 	movl   $0xfffffffa,-0x1c0(%rbp)
    4817:	ff ff ff 
    481a:	c7 85 44 fe ff ff f6 	movl   $0xfffffff6,-0x1bc(%rbp)
    4821:	ff ff ff 
    4824:	c7 85 48 fe ff ff fa 	movl   $0xfffffffa,-0x1b8(%rbp)
    482b:	ff ff ff 
    482e:	c7 85 4c fe ff ff fa 	movl   $0xfffffffa,-0x1b4(%rbp)
    4835:	ff ff ff 
    4838:	c7 85 50 fe ff ff f6 	movl   $0xfffffff6,-0x1b0(%rbp)
    483f:	ff ff ff 
    4842:	c7 85 54 fe ff ff fa 	movl   $0xfffffffa,-0x1ac(%rbp)
    4849:	ff ff ff 
    484c:	c7 85 58 fe ff ff fa 	movl   $0xfffffffa,-0x1a8(%rbp)
    4853:	ff ff ff 
    4856:	c7 85 b8 fd ff ff 98 	movl   $0x2888b398,-0x248(%rbp)
    485d:	b3 88 28 
    4860:	c7 85 bc fd ff ff 04 	movl   $0x4,-0x244(%rbp)
    4867:	00 00 00 
    486a:	8b 9d b0 fd ff ff    	mov    -0x250(%rbp),%ebx
    4870:	0f b6 05 19 ca 00 00 	movzbl 0xca19(%rip),%eax        # 11290 <g_715>
    4877:	01 c0                	add    %eax,%eax
    4879:	d0 f8                	sar    %al
    487b:	4c 0f be e0          	movsbq %al,%r12
    487f:	0f b6 05 ea cd 00 00 	movzbl 0xcdea(%rip),%eax        # 11670 <g_1077>
    4886:	01 c0                	add    %eax,%eax
    4888:	d0 f8                	sar    %al
    488a:	4c 0f be e8          	movsbq %al,%r13
    488e:	48 8b 05 ab f3 00 00 	mov    0xf3ab(%rip),%rax        # 13c40 <g_29>
    4895:	0f b6 00             	movzbl (%rax),%eax
    4898:	44 0f be f0          	movsbl %al,%r14d
    489c:	83 bd b0 fd ff ff 00 	cmpl   $0x0,-0x250(%rbp)
    48a3:	0f 84 9c 00 00 00    	je     4945 <func_1+0x190>
    48a9:	48 8b 85 d8 fd ff ff 	mov    -0x228(%rbp),%rax
    48b0:	c6 00 ff             	movb   $0xff,(%rax)
    48b3:	8b 85 b0 fd ff ff    	mov    -0x250(%rbp),%eax
    48b9:	44 0f b6 f8          	movzbl %al,%r15d
    48bd:	8b 85 b0 fd ff ff    	mov    -0x250(%rbp),%eax
    48c3:	48 63 d0             	movslq %eax,%rdx
    48c6:	48 8b 05 5b c7 00 00 	mov    0xc75b(%rip),%rax        # 11028 <g_4>
    48cd:	48 39 c2             	cmp    %rax,%rdx
    48d0:	0f 95 c0             	setne  %al
    48d3:	0f b6 c0             	movzbl %al,%eax
    48d6:	89 c6                	mov    %eax,%esi
    48d8:	bf c8 ff ff ff       	mov    $0xffffffc8,%edi
    48dd:	e8 8a ea ff ff       	callq  336c <safe_rshift_func_int8_t_s_u>
    48e2:	84 c0                	test   %al,%al
    48e4:	75 2c                	jne    4912 <func_1+0x15d>
    48e6:	48 8b 0d 53 f3 00 00 	mov    0xf353(%rip),%rcx        # 13c40 <g_29>
    48ed:	48 8b 05 34 c7 00 00 	mov    0xc734(%rip),%rax        # 11028 <g_4>
    48f4:	0f be d0             	movsbl %al,%edx
    48f7:	8b 85 b0 fd ff ff    	mov    -0x250(%rbp),%eax
    48fd:	48 98                	cltq   
    48ff:	8b b5 b0 fd ff ff    	mov    -0x250(%rbp),%esi
    4905:	48 89 c7             	mov    %rax,%rdi
    4908:	e8 e4 05 00 00       	callq  4ef1 <func_24>
    490d:	66 85 c0             	test   %ax,%ax
    4910:	74 07                	je     4919 <func_1+0x164>
    4912:	b8 01 00 00 00       	mov    $0x1,%eax
    4917:	eb 05                	jmp    491e <func_1+0x169>
    4919:	b8 00 00 00 00       	mov    $0x0,%eax
    491e:	0f b6 c0             	movzbl %al,%eax
    4921:	44 89 fe             	mov    %r15d,%esi
    4924:	89 c7                	mov    %eax,%edi
    4926:	e8 68 f2 ff ff       	callq  3b93 <safe_mul_func_uint8_t_u_u>
    492b:	8b 85 b0 fd ff ff    	mov    -0x250(%rbp),%eax
    4931:	48 98                	cltq   
    4933:	83 e0 01             	and    $0x1,%eax
    4936:	48 3d 73 26 00 00    	cmp    $0x2673,%rax
    493c:	7e 07                	jle    4945 <func_1+0x190>
    493e:	b8 01 00 00 00       	mov    $0x1,%eax
    4943:	eb 05                	jmp    494a <func_1+0x195>
    4945:	b8 00 00 00 00       	mov    $0x0,%eax
    494a:	0f be c0             	movsbl %al,%eax
    494d:	44 89 f6             	mov    %r14d,%esi
    4950:	89 c7                	mov    %eax,%edi
    4952:	e8 9b e8 ff ff       	callq  31f2 <safe_sub_func_int8_t_s_s>
    4957:	0f be d0             	movsbl %al,%edx
    495a:	48 8b 05 7f f5 00 00 	mov    0xf57f(%rip),%rax        # 13ee0 <g_1057>
    4961:	0f b7 00             	movzwl (%rax),%eax
    4964:	98                   	cwtl   
    4965:	21 d0                	and    %edx,%eax
    4967:	48 98                	cltq   
    4969:	4c 89 ee             	mov    %r13,%rsi
    496c:	48 89 c7             	mov    %rax,%rdi
    496f:	e8 ba f6 ff ff       	callq  402e <safe_add_func_uint64_t_u_u>
    4974:	4c 89 e6             	mov    %r12,%rsi
    4977:	48 89 c7             	mov    %rax,%rdi
    497a:	e8 cc f6 ff ff       	callq  404b <safe_sub_func_uint64_t_u_u>
    497f:	48 8b 15 f6 c8 00 00 	mov    0xc8f6(%rip),%rdx        # 1127c <g_712+0xc>
    4986:	48 21 d0             	and    %rdx,%rax
    4989:	48 89 05 ec c8 00 00 	mov    %rax,0xc8ec(%rip)        # 1127c <g_712+0xc>
    4990:	48 8b 05 e5 c8 00 00 	mov    0xc8e5(%rip),%rax        # 1127c <g_712+0xc>
    4997:	48 be af e5 2a 90 e7 	movabs $0x89f070e7902ae5af,%rsi
    499e:	70 f0 89 
    49a1:	48 89 c7             	mov    %rax,%rdi
    49a4:	e8 0b f0 ff ff       	callq  39b4 <safe_mod_func_int64_t_s_s>
    49a9:	8b 85 b0 fd ff ff    	mov    -0x250(%rbp),%eax
    49af:	89 c7                	mov    %eax,%edi
    49b1:	e8 e0 eb ff ff       	callq  3596 <safe_unary_minus_func_int32_t_s>
    49b6:	98                   	cwtl   
    49b7:	89 de                	mov    %ebx,%esi
    49b9:	89 c7                	mov    %eax,%edi
    49bb:	e8 a3 eb ff ff       	callq  3563 <safe_rshift_func_int16_t_s_u>
    49c0:	0f b6 d0             	movzbl %al,%edx
    49c3:	48 8b 05 5e c6 00 00 	mov    0xc65e(%rip),%rax        # 11028 <g_4>
    49ca:	0f b6 c0             	movzbl %al,%eax
    49cd:	89 d6                	mov    %edx,%esi
    49cf:	89 c7                	mov    %eax,%edi
    49d1:	e8 84 f1 ff ff       	callq  3b5a <safe_add_func_uint8_t_u_u>
    49d6:	0f b6 c0             	movzbl %al,%eax
    49d9:	39 85 b0 fd ff ff    	cmp    %eax,-0x250(%rbp)
    49df:	0f 9e c0             	setle  %al
    49e2:	0f b6 d0             	movzbl %al,%edx
    49e5:	48 8b 05 3c c6 00 00 	mov    0xc63c(%rip),%rax        # 11028 <g_4>
    49ec:	48 39 c2             	cmp    %rax,%rdx
    49ef:	0f 84 2b 04 00 00    	je     4e20 <func_1+0x66b>
    49f5:	c7 85 c8 fd ff ff 29 	movl   $0x485ae429,-0x238(%rbp)
    49fc:	e4 5a 48 
    49ff:	c7 85 ac fd ff ff 4e 	movl   $0x2e69594e,-0x254(%rbp)
    4a06:	59 69 2e 
    4a09:	66 c7 85 aa fd ff ff 	movw   $0x392,-0x256(%rbp)
    4a10:	92 03 
    4a12:	c7 85 b4 fd ff ff 00 	movl   $0x0,-0x24c(%rbp)
    4a19:	00 00 00 
    4a1c:	eb 22                	jmp    4a40 <func_1+0x28b>
    4a1e:	8b 85 b4 fd ff ff    	mov    -0x24c(%rbp),%eax
    4a24:	48 98                	cltq   
    4a26:	48 8d 95 40 fe ff ff 	lea    -0x1c0(%rbp),%rdx
    4a2d:	48 83 c2 04          	add    $0x4,%rdx
    4a31:	48 89 94 c5 30 fe ff 	mov    %rdx,-0x1d0(%rbp,%rax,8)
    4a38:	ff 
    4a39:	83 85 b4 fd ff ff 01 	addl   $0x1,-0x24c(%rbp)
    4a40:	83 bd b4 fd ff ff 01 	cmpl   $0x1,-0x24c(%rbp)
    4a47:	7e d5                	jle    4a1e <func_1+0x269>
    4a49:	48 c7 05 38 c6 00 00 	movq   $0x0,0xc638(%rip)        # 1108c <g_208+0xc>
    4a50:	00 00 00 00 
    4a54:	e9 95 03 00 00       	jmpq   4dee <func_1+0x639>
    4a59:	c7 85 cc fd ff ff 46 	movl   $0x80190c46,-0x234(%rbp)
    4a60:	0c 19 80 
    4a63:	48 c7 85 d0 fd ff ff 	movq   $0x0,-0x230(%rbp)
    4a6a:	00 00 00 00 
    4a6e:	48 8d 85 d0 fd ff ff 	lea    -0x230(%rbp),%rax
    4a75:	48 89 85 e8 fd ff ff 	mov    %rax,-0x218(%rbp)
    4a7c:	48 8d 05 15 c6 00 00 	lea    0xc615(%rip),%rax        # 11098 <g_212>
    4a83:	48 89 85 f0 fd ff ff 	mov    %rax,-0x210(%rbp)
    4a8a:	48 8d 85 ac fd ff ff 	lea    -0x254(%rbp),%rax
    4a91:	48 89 85 f8 fd ff ff 	mov    %rax,-0x208(%rbp)
    4a98:	c6 05 d6 c5 00 00 ee 	movb   $0xee,0xc5d6(%rip)        # 11075 <g_181>
    4a9f:	e9 11 02 00 00       	jmpq   4cb5 <func_1+0x500>
    4aa4:	48 8d 05 8d f8 00 00 	lea    0xf88d(%rip),%rax        # 14338 <g_183>
    4aab:	48 89 85 00 fe ff ff 	mov    %rax,-0x200(%rbp)
    4ab2:	48 8d 05 a5 c5 00 00 	lea    0xc5a5(%rip),%rax        # 1105e <g_143>
    4ab9:	48 89 85 08 fe ff ff 	mov    %rax,-0x1f8(%rbp)
    4ac0:	48 8d 05 21 cb 00 00 	lea    0xcb21(%rip),%rax        # 115e8 <g_935>
    4ac7:	48 89 85 10 fe ff ff 	mov    %rax,-0x1f0(%rbp)
    4ace:	48 8d 05 c3 c6 00 00 	lea    0xc6c3(%rip),%rax        # 11198 <g_586>
    4ad5:	48 89 85 18 fe ff ff 	mov    %rax,-0x1e8(%rbp)
    4adc:	48 8d 05 11 c6 00 00 	lea    0xc611(%rip),%rax        # 110f4 <g_415>
    4ae3:	48 89 85 20 fe ff ff 	mov    %rax,-0x1e0(%rbp)
    4aea:	48 8d 05 67 c5 00 00 	lea    0xc567(%rip),%rax        # 11058 <g_105>
    4af1:	48 89 85 28 fe ff ff 	mov    %rax,-0x1d8(%rbp)
    4af8:	8b 85 54 fe ff ff    	mov    -0x1ac(%rbp),%eax
    4afe:	41 89 c5             	mov    %eax,%r13d
    4b01:	48 8b 05 48 f1 00 00 	mov    0xf148(%rip),%rax        # 13c50 <g_119>
    4b08:	48 8b 00             	mov    (%rax),%rax
    4b0b:	48 8b 00             	mov    (%rax),%rax
    4b0e:	0f b6 00             	movzbl (%rax),%eax
    4b11:	0f b6 d8             	movzbl %al,%ebx
    4b14:	48 8b 85 00 fe ff ff 	mov    -0x200(%rbp),%rax
    4b1b:	8b 95 b0 fd ff ff    	mov    -0x250(%rbp),%edx
    4b21:	89 10                	mov    %edx,(%rax)
    4b23:	48 8b 85 00 fe ff ff 	mov    -0x200(%rbp),%rax
    4b2a:	8b 00                	mov    (%rax),%eax
    4b2c:	85 c0                	test   %eax,%eax
    4b2e:	74 62                	je     4b92 <func_1+0x3dd>
    4b30:	48 8b 85 00 fe ff ff 	mov    -0x200(%rbp),%rax
    4b37:	8b 00                	mov    (%rax),%eax
    4b39:	0f be c0             	movsbl %al,%eax
    4b3c:	be 02 00 00 00       	mov    $0x2,%esi
    4b41:	89 c7                	mov    %eax,%edi
    4b43:	e8 ed e7 ff ff       	callq  3335 <safe_rshift_func_int8_t_s_s>
    4b48:	0f be c0             	movsbl %al,%eax
    4b4b:	48 8b 95 08 fe ff ff 	mov    -0x1f8(%rbp),%rdx
    4b52:	c6 02 ff             	movb   $0xff,(%rdx)
    4b55:	89 c6                	mov    %eax,%esi
    4b57:	bf ff ff ff ff       	mov    $0xffffffff,%edi
    4b5c:	e8 09 e7 ff ff       	callq  326a <safe_div_func_int8_t_s_s>
    4b61:	44 0f be e0          	movsbl %al,%r12d
    4b65:	0f b7 05 f0 c4 00 00 	movzwl 0xc4f0(%rip),%eax        # 1105c <g_126>
    4b6c:	98                   	cwtl   
    4b6d:	48 8b 95 10 fe ff ff 	mov    -0x1f0(%rbp),%rdx
    4b74:	c7 02 01 00 00 00    	movl   $0x1,(%rdx)
    4b7a:	8b 95 cc fd ff ff    	mov    -0x234(%rbp),%edx
    4b80:	23 95 c8 fd ff ff    	and    -0x238(%rbp),%edx
    4b86:	89 c6                	mov    %eax,%esi
    4b88:	89 d7                	mov    %edx,%edi
    4b8a:	e8 76 ea ff ff       	callq  3605 <safe_sub_func_int32_t_s_s>
    4b8f:	41 39 c4             	cmp    %eax,%r12d
    4b92:	48 8b 05 af f0 00 00 	mov    0xf0af(%rip),%rax        # 13c48 <g_120>
    4b99:	48 8b 00             	mov    (%rax),%rax
    4b9c:	0f b6 00             	movzbl (%rax),%eax
    4b9f:	0f b6 c0             	movzbl %al,%eax
    4ba2:	89 de                	mov    %ebx,%esi
    4ba4:	89 c7                	mov    %eax,%edi
    4ba6:	e8 13 f1 ff ff       	callq  3cbe <safe_rshift_func_uint8_t_u_u>
    4bab:	0f b6 d0             	movzbl %al,%edx
    4bae:	0f b7 05 f3 c4 00 00 	movzwl 0xc4f3(%rip),%eax        # 110a8 <g_267+0x8>
    4bb5:	66 39 c2             	cmp    %ax,%dx
    4bb8:	0f 92 c0             	setb   %al
    4bbb:	0f b6 d0             	movzbl %al,%edx
    4bbe:	48 8b 05 7b f7 00 00 	mov    0xf77b(%rip),%rax        # 14340 <g_225>
    4bc5:	48 09 c2             	or     %rax,%rdx
    4bc8:	48 8b 05 11 f3 00 00 	mov    0xf311(%rip),%rax        # 13ee0 <g_1057>
    4bcf:	0f b7 00             	movzwl (%rax),%eax
    4bd2:	48 0f bf c0          	movswq %ax,%rax
    4bd6:	48 09 d0             	or     %rdx,%rax
    4bd9:	89 c2                	mov    %eax,%edx
    4bdb:	8b 85 ac fd ff ff    	mov    -0x254(%rbp),%eax
    4be1:	31 d0                	xor    %edx,%eax
    4be3:	89 85 ac fd ff ff    	mov    %eax,-0x254(%rbp)
    4be9:	8b 85 ac fd ff ff    	mov    -0x254(%rbp),%eax
    4bef:	83 f0 01             	xor    $0x1,%eax
    4bf2:	89 85 b0 fd ff ff    	mov    %eax,-0x250(%rbp)
    4bf8:	0f b6 05 91 c6 00 00 	movzbl 0xc691(%rip),%eax        # 11290 <g_715>
    4bff:	01 c0                	add    %eax,%eax
    4c01:	d0 f8                	sar    %al
    4c03:	0f be c0             	movsbl %al,%eax
    4c06:	33 85 b0 fd ff ff    	xor    -0x250(%rbp),%eax
    4c0c:	89 c2                	mov    %eax,%edx
    4c0e:	48 8b 05 33 f0 00 00 	mov    0xf033(%rip),%rax        # 13c48 <g_120>
    4c15:	48 8b 00             	mov    (%rax),%rax
    4c18:	0f b6 00             	movzbl (%rax),%eax
    4c1b:	0f b6 c0             	movzbl %al,%eax
    4c1e:	39 c2                	cmp    %eax,%edx
    4c20:	48 8b 85 18 fe ff ff 	mov    -0x1e8(%rbp),%rax
    4c27:	c7 00 8c e9 56 88    	movl   $0x8856e98c,(%rax)
    4c2d:	48 8b 85 18 fe ff ff 	mov    -0x1e8(%rbp),%rax
    4c34:	8b 00                	mov    (%rax),%eax
    4c36:	3d 8a 54 f1 e8       	cmp    $0xe8f1548a,%eax
    4c3b:	0f 97 c0             	seta   %al
    4c3e:	0f b6 d0             	movzbl %al,%edx
    4c41:	48 8b 85 20 fe ff ff 	mov    -0x1e0(%rbp),%rax
    4c48:	0f b7 00             	movzwl (%rax),%eax
    4c4b:	89 c1                	mov    %eax,%ecx
    4c4d:	89 d0                	mov    %edx,%eax
    4c4f:	09 c8                	or     %ecx,%eax
    4c51:	89 c2                	mov    %eax,%edx
    4c53:	48 8b 85 20 fe ff ff 	mov    -0x1e0(%rbp),%rax
    4c5a:	66 89 10             	mov    %dx,(%rax)
    4c5d:	48 8b 85 20 fe ff ff 	mov    -0x1e0(%rbp),%rax
    4c64:	0f b7 00             	movzwl (%rax),%eax
    4c67:	0f b7 d0             	movzwl %ax,%edx
    4c6a:	8b 85 54 fe ff ff    	mov    -0x1ac(%rbp),%eax
    4c70:	39 c2                	cmp    %eax,%edx
    4c72:	0f 95 c0             	setne  %al
    4c75:	0f b6 c0             	movzbl %al,%eax
    4c78:	44 89 ee             	mov    %r13d,%esi
    4c7b:	89 c7                	mov    %eax,%edi
    4c7d:	e8 f8 f1 ff ff       	callq  3e7a <safe_rshift_func_uint16_t_u_u>
    4c82:	0f b7 c0             	movzwl %ax,%eax
    4c85:	39 85 c8 fd ff ff    	cmp    %eax,-0x238(%rbp)
    4c8b:	0f 93 c0             	setae  %al
    4c8e:	0f b6 d0             	movzbl %al,%edx
    4c91:	48 8b 85 28 fe ff ff 	mov    -0x1d8(%rbp),%rax
    4c98:	8b 00                	mov    (%rax),%eax
    4c9a:	09 c2                	or     %eax,%edx
    4c9c:	48 8b 85 28 fe ff ff 	mov    -0x1d8(%rbp),%rax
    4ca3:	89 10                	mov    %edx,(%rax)
    4ca5:	0f b6 05 c9 c3 00 00 	movzbl 0xc3c9(%rip),%eax        # 11075 <g_181>
    4cac:	83 c0 01             	add    $0x1,%eax
    4caf:	88 05 c0 c3 00 00    	mov    %al,0xc3c0(%rip)        # 11075 <g_181>
    4cb5:	0f b6 05 b9 c3 00 00 	movzbl 0xc3b9(%rip),%eax        # 11075 <g_181>
    4cbc:	3c 31                	cmp    $0x31,%al
    4cbe:	0f 86 e0 fd ff ff    	jbe    4aa4 <func_1+0x2ef>
    4cc4:	8b 85 cc fd ff ff    	mov    -0x234(%rbp),%eax
    4cca:	89 c6                	mov    %eax,%esi
    4ccc:	bf fe ff ff ff       	mov    $0xfffffffe,%edi
    4cd1:	e8 5f e6 ff ff       	callq  3335 <safe_rshift_func_int8_t_s_s>
    4cd6:	84 c0                	test   %al,%al
    4cd8:	0f 84 cb 00 00 00    	je     4da9 <func_1+0x5f4>
    4cde:	48 8b 05 5f c3 00 00 	mov    0xc35f(%rip),%rax        # 11044 <g_88+0x4>
    4ce5:	89 c3                	mov    %eax,%ebx
    4ce7:	8b 85 ac fd ff ff    	mov    -0x254(%rbp),%eax
    4ced:	48 98                	cltq   
    4cef:	83 e0 04             	and    $0x4,%eax
    4cf2:	48 89 c2             	mov    %rax,%rdx
    4cf5:	48 8b 85 f0 fd ff ff 	mov    -0x210(%rbp),%rax
    4cfc:	48 89 10             	mov    %rdx,(%rax)
    4cff:	48 8b 85 f0 fd ff ff 	mov    -0x210(%rbp),%rax
    4d06:	48 8b 00             	mov    (%rax),%rax
    4d09:	89 85 54 fe ff ff    	mov    %eax,-0x1ac(%rbp)
    4d0f:	8b 85 54 fe ff ff    	mov    -0x1ac(%rbp),%eax
    4d15:	48 63 d0             	movslq %eax,%rdx
    4d18:	48 8b 8d d0 fd ff ff 	mov    -0x230(%rbp),%rcx
    4d1f:	48 8b 85 e8 fd ff ff 	mov    -0x218(%rbp),%rax
    4d26:	48 89 08             	mov    %rcx,(%rax)
    4d29:	48 8b 85 e8 fd ff ff 	mov    -0x218(%rbp),%rax
    4d30:	48 8b 00             	mov    (%rax),%rax
    4d33:	48 8d 0d ee f0 00 00 	lea    0xf0ee(%rip),%rcx        # 13e28 <g_654>
    4d3a:	48 39 c8             	cmp    %rcx,%rax
    4d3d:	0f 95 c0             	setne  %al
    4d40:	0f b6 c0             	movzbl %al,%eax
    4d43:	39 85 b0 fd ff ff    	cmp    %eax,-0x250(%rbp)
    4d49:	0f 9c c0             	setl   %al
    4d4c:	0f b6 c0             	movzbl %al,%eax
    4d4f:	48 89 d6             	mov    %rdx,%rsi
    4d52:	48 89 c7             	mov    %rax,%rdi
    4d55:	e8 f1 f2 ff ff       	callq  404b <safe_sub_func_uint64_t_u_u>
    4d5a:	ba f5 ff ff ff       	mov    $0xfffffff5,%edx
    4d5f:	48 39 d0             	cmp    %rdx,%rax
    4d62:	0f 96 c0             	setbe  %al
    4d65:	0f b6 c0             	movzbl %al,%eax
    4d68:	89 de                	mov    %ebx,%esi
    4d6a:	89 c7                	mov    %eax,%edi
    4d6c:	e8 45 e8 ff ff       	callq  35b6 <safe_add_func_int32_t_s_s>
    4d71:	48 8b 05 d0 ee 00 00 	mov    0xeed0(%rip),%rax        # 13c48 <g_120>
    4d78:	48 8b 00             	mov    (%rax),%rax
    4d7b:	0f b6 00             	movzbl (%rax),%eax
    4d7e:	3c 01                	cmp    $0x1,%al
    4d80:	0f 95 c0             	setne  %al
    4d83:	0f b6 c0             	movzbl %al,%eax
    4d86:	be 01 00 00 00       	mov    $0x1,%esi
    4d8b:	89 c7                	mov    %eax,%edi
    4d8d:	e8 21 e6 ff ff       	callq  33b3 <safe_add_func_int16_t_s_s>
    4d92:	48 0f bf d0          	movswq %ax,%rdx
    4d96:	48 8b 05 a3 f5 00 00 	mov    0xf5a3(%rip),%rax        # 14340 <g_225>
    4d9d:	48 39 c2             	cmp    %rax,%rdx
    4da0:	74 07                	je     4da9 <func_1+0x5f4>
    4da2:	ba 01 00 00 00       	mov    $0x1,%edx
    4da7:	eb 05                	jmp    4dae <func_1+0x5f9>
    4da9:	ba 00 00 00 00       	mov    $0x0,%edx
    4dae:	0f b7 05 3f c3 00 00 	movzwl 0xc33f(%rip),%eax        # 110f4 <g_415>
    4db5:	0f b7 c0             	movzwl %ax,%eax
    4db8:	39 c2                	cmp    %eax,%edx
    4dba:	48 8b 85 f8 fd ff ff 	mov    -0x208(%rbp),%rax
    4dc1:	8b 95 b0 fd ff ff    	mov    -0x250(%rbp),%edx
    4dc7:	89 10                	mov    %edx,(%rax)
    4dc9:	83 bd b8 fd ff ff 00 	cmpl   $0x0,-0x248(%rbp)
    4dd0:	75 2f                	jne    4e01 <func_1+0x64c>
    4dd2:	48 8b 05 b3 c2 00 00 	mov    0xc2b3(%rip),%rax        # 1108c <g_208+0xc>
    4dd9:	be 07 00 00 00       	mov    $0x7,%esi
    4dde:	89 c7                	mov    %eax,%edi
    4de0:	e8 20 e8 ff ff       	callq  3605 <safe_sub_func_int32_t_s_s>
    4de5:	48 98                	cltq   
    4de7:	48 89 05 9e c2 00 00 	mov    %rax,0xc29e(%rip)        # 1108c <g_208+0xc>
    4dee:	48 8b 05 97 c2 00 00 	mov    0xc297(%rip),%rax        # 1108c <g_208+0xc>
    4df5:	48 83 f8 e7          	cmp    $0xffffffffffffffe7,%rax
    4df9:	0f 8c 5a fc ff ff    	jl     4a59 <func_1+0x2a4>
    4dff:	eb 01                	jmp    4e02 <func_1+0x64d>
    4e01:	90                   	nop
    4e02:	66 83 85 aa fd ff ff 	addw   $0x1,-0x256(%rbp)
    4e09:	01 
    4e0a:	8b 85 54 fe ff ff    	mov    -0x1ac(%rbp),%eax
    4e10:	25 ff 0b ff 9e       	and    $0x9eff0bff,%eax
    4e15:	89 85 54 fe ff ff    	mov    %eax,-0x1ac(%rbp)
    4e1b:	e9 a5 00 00 00       	jmpq   4ec5 <func_1+0x710>
    4e20:	48 b8 96 6b 45 47 3a 	movabs $0x8b7be13a47456b96,%rax
    4e27:	e1 7b 8b 
    4e2a:	48 89 85 e0 fd ff ff 	mov    %rax,-0x220(%rbp)
    4e31:	c7 85 c0 fd ff ff 03 	movl   $0x3,-0x240(%rbp)
    4e38:	00 00 00 
    4e3b:	c7 85 c4 fd ff ff 01 	movl   $0x1,-0x23c(%rbp)
    4e42:	00 00 00 
    4e45:	48 8b 05 94 f0 00 00 	mov    0xf094(%rip),%rax        # 13ee0 <g_1057>
    4e4c:	66 c7 00 00 00       	movw   $0x0,(%rax)
    4e51:	8b 9d 4c fe ff ff    	mov    -0x1b4(%rbp),%ebx
    4e57:	be 04 00 00 00       	mov    $0x4,%esi
    4e5c:	bf 01 00 00 00       	mov    $0x1,%edi
    4e61:	e8 fd e6 ff ff       	callq  3563 <safe_rshift_func_int16_t_s_u>
    4e66:	98                   	cwtl   
    4e67:	39 c3                	cmp    %eax,%ebx
    4e69:	7f 07                	jg     4e72 <func_1+0x6bd>
    4e6b:	ba a3 00 00 00       	mov    $0xa3,%edx
    4e70:	eb 05                	jmp    4e77 <func_1+0x6c2>
    4e72:	ba a2 00 00 00       	mov    $0xa2,%edx
    4e77:	48 8b 85 e0 fd ff ff 	mov    -0x220(%rbp),%rax
    4e7e:	21 d0                	and    %edx,%eax
    4e80:	98                   	cwtl   
    4e81:	89 c6                	mov    %eax,%esi
    4e83:	bf 00 00 00 00       	mov    $0x0,%edi
    4e88:	e8 68 e5 ff ff       	callq  33f5 <safe_mul_func_int16_t_s_s>
    4e8d:	0f bf d0             	movswl %ax,%edx
    4e90:	48 8b 05 91 ef 00 00 	mov    0xef91(%rip),%rax        # 13e28 <g_654>
    4e97:	48 8b 00             	mov    (%rax),%rax
    4e9a:	48 85 c0             	test   %rax,%rax
    4e9d:	0f 95 c0             	setne  %al
    4ea0:	0f b6 c0             	movzbl %al,%eax
    4ea3:	31 d0                	xor    %edx,%eax
    4ea5:	f7 d0                	not    %eax
    4ea7:	39 85 bc fd ff ff    	cmp    %eax,-0x244(%rbp)
    4ead:	0f 9c c0             	setl   %al
    4eb0:	0f b6 c0             	movzbl %al,%eax
    4eb3:	89 85 c0 fd ff ff    	mov    %eax,-0x240(%rbp)
    4eb9:	8b 85 c0 fd ff ff    	mov    -0x240(%rbp),%eax
    4ebf:	89 85 c4 fd ff ff    	mov    %eax,-0x23c(%rbp)
    4ec5:	8b 85 50 fe ff ff    	mov    -0x1b0(%rbp),%eax
    4ecb:	48 8b 5d c8          	mov    -0x38(%rbp),%rbx
    4ecf:	64 48 33 1c 25 28 00 	xor    %fs:0x28,%rbx
    4ed6:	00 00 
    4ed8:	74 05                	je     4edf <func_1+0x72a>
    4eda:	e8 91 e1 ff ff       	callq  3070 <__stack_chk_fail@plt>
    4edf:	48 81 c4 38 02 00 00 	add    $0x238,%rsp
    4ee6:	5b                   	pop    %rbx
    4ee7:	41 5c                	pop    %r12
    4ee9:	41 5d                	pop    %r13
    4eeb:	41 5e                	pop    %r14
    4eed:	41 5f                	pop    %r15
    4eef:	5d                   	pop    %rbp
    4ef0:	c3                   	retq   

0000000000004ef1 <func_24>:
    4ef1:	f3 0f 1e fa          	endbr64 
    4ef5:	55                   	push   %rbp
    4ef6:	48 89 e5             	mov    %rsp,%rbp
    4ef9:	48 81 ec a0 00 00 00 	sub    $0xa0,%rsp
    4f00:	48 89 bd 78 ff ff ff 	mov    %rdi,-0x88(%rbp)
    4f07:	89 b5 74 ff ff ff    	mov    %esi,-0x8c(%rbp)
    4f0d:	89 d0                	mov    %edx,%eax
    4f0f:	48 89 8d 68 ff ff ff 	mov    %rcx,-0x98(%rbp)
    4f16:	88 85 70 ff ff ff    	mov    %al,-0x90(%rbp)
    4f1c:	64 48 8b 04 25 28 00 	mov    %fs:0x28,%rax
    4f23:	00 00 
    4f25:	48 89 45 f8          	mov    %rax,-0x8(%rbp)
    4f29:	31 c0                	xor    %eax,%eax
    4f2b:	48 8d 05 ff c0 00 00 	lea    0xc0ff(%rip),%rax        # 11031 <g_30>
    4f32:	48 89 45 98          	mov    %rax,-0x68(%rbp)
    4f36:	c7 45 84 00 00 00 00 	movl   $0x0,-0x7c(%rbp)
    4f3d:	8b 45 94             	mov    -0x6c(%rbp),%eax
    4f40:	25 00 00 00 fc       	and    $0xfc000000,%eax
    4f45:	0d a0 07 00 00       	or     $0x7a0,%eax
    4f4a:	89 45 94             	mov    %eax,-0x6c(%rbp)
    4f4d:	48 8d 05 dd c0 00 00 	lea    0xc0dd(%rip),%rax        # 11031 <g_30>
    4f54:	48 89 45 a0          	mov    %rax,-0x60(%rbp)
    4f58:	48 c7 45 a8 00 00 00 	movq   $0x0,-0x58(%rbp)
    4f5f:	00 
    4f60:	48 8d 05 89 c6 00 00 	lea    0xc689(%rip),%rax        # 115f0 <g_943>
    4f67:	48 89 45 b0          	mov    %rax,-0x50(%rbp)
    4f6b:	48 b8 51 44 60 71 16 	movabs $0xb89edb1671604451,%rax
    4f72:	db 9e b8 
    4f75:	48 89 45 b8          	mov    %rax,-0x48(%rbp)
    4f79:	c7 45 88 07 00 00 00 	movl   $0x7,-0x78(%rbp)
    4f80:	48 8d 05 d1 f3 00 00 	lea    0xf3d1(%rip),%rax        # 14358 <g_1076>
    4f87:	48 89 45 c0          	mov    %rax,-0x40(%rbp)
    4f8b:	c7 45 8c 2b 99 3b fc 	movl   $0xfc3b992b,-0x74(%rbp)
    4f92:	c7 45 90 ff ff ff ff 	movl   $0xffffffff,-0x70(%rbp)
    4f99:	c7 45 80 00 00 00 00 	movl   $0x0,-0x80(%rbp)
    4fa0:	eb 11                	jmp    4fb3 <func_24+0xc2>
    4fa2:	8b 45 80             	mov    -0x80(%rbp),%eax
    4fa5:	48 98                	cltq   
    4fa7:	c7 44 85 d0 00 00 00 	movl   $0x0,-0x30(%rbp,%rax,4)
    4fae:	00 
    4faf:	83 45 80 01          	addl   $0x1,-0x80(%rbp)
    4fb3:	83 7d 80 06          	cmpl   $0x6,-0x80(%rbp)
    4fb7:	7e e9                	jle    4fa2 <func_24+0xb1>
    4fb9:	c7 45 80 00 00 00 00 	movl   $0x0,-0x80(%rbp)
    4fc0:	eb 10                	jmp    4fd2 <func_24+0xe1>
    4fc2:	8b 45 80             	mov    -0x80(%rbp),%eax
    4fc5:	48 98                	cltq   
    4fc7:	66 c7 44 45 ce 01 00 	movw   $0x1,-0x32(%rbp,%rax,2)
    4fce:	83 45 80 01          	addl   $0x1,-0x80(%rbp)
    4fd2:	83 7d 80 00          	cmpl   $0x0,-0x80(%rbp)
    4fd6:	7e ea                	jle    4fc2 <func_24+0xd1>
    4fd8:	48 8b 05 09 ef 00 00 	mov    0xef09(%rip),%rax        # 13ee8 <g_1056>
    4fdf:	48 8b 00             	mov    (%rax),%rax
    4fe2:	0f b7 00             	movzwl (%rax),%eax
    4fe5:	48 8b 55 f8          	mov    -0x8(%rbp),%rdx
    4fe9:	64 48 33 14 25 28 00 	xor    %fs:0x28,%rdx
    4ff0:	00 00 
    4ff2:	74 05                	je     4ff9 <func_24+0x108>
    4ff4:	e8 77 e0 ff ff       	callq  3070 <__stack_chk_fail@plt>
    4ff9:	c9                   	leaveq 
    4ffa:	c3                   	retq   

0000000000004ffb <func_31>:
    4ffb:	f3 0f 1e fa          	endbr64 
    4fff:	55                   	push   %rbp
    5000:	48 89 e5             	mov    %rsp,%rbp
    5003:	48 83 ec 50          	sub    $0x50,%rsp
    5007:	48 89 7d d8          	mov    %rdi,-0x28(%rbp)
    500b:	89 f0                	mov    %esi,%eax
    500d:	48 89 55 c8          	mov    %rdx,-0x38(%rbp)
    5011:	48 89 4d c0          	mov    %rcx,-0x40(%rbp)
    5015:	4c 89 45 b8          	mov    %r8,-0x48(%rbp)
    5019:	4c 89 4d b0          	mov    %r9,-0x50(%rbp)
    501d:	88 45 d4             	mov    %al,-0x2c(%rbp)
    5020:	64 48 8b 04 25 28 00 	mov    %fs:0x28,%rax
    5027:	00 00 
    5029:	48 89 45 f8          	mov    %rax,-0x8(%rbp)
    502d:	31 c0                	xor    %eax,%eax
    502f:	48 8d 05 22 c0 00 00 	lea    0xc022(%rip),%rax        # 11058 <g_105>
    5036:	48 89 45 e8          	mov    %rax,-0x18(%rbp)
    503a:	48 c7 45 e0 00 00 00 	movq   $0x0,-0x20(%rbp)
    5041:	00 
    5042:	48 8d 45 e0          	lea    -0x20(%rbp),%rax
    5046:	48 89 45 f0          	mov    %rax,-0x10(%rbp)
    504a:	48 8b 45 e8          	mov    -0x18(%rbp),%rax
    504e:	c7 00 f8 ff ff ff    	movl   $0xfffffff8,(%rax)
    5054:	0f b6 45 d4          	movzbl -0x2c(%rbp),%eax
    5058:	48 be c8 b2 8e 16 89 	movabs $0xac715389168eb2c8,%rsi
    505f:	53 71 ac 
    5062:	48 89 c7             	mov    %rax,%rdi
    5065:	e8 45 f0 ff ff       	callq  40af <safe_div_func_uint64_t_u_u>
    506a:	89 c2                	mov    %eax,%edx
    506c:	48 8b 45 e8          	mov    -0x18(%rbp),%rax
    5070:	89 10                	mov    %edx,(%rax)
    5072:	48 8b 05 77 ee 00 00 	mov    0xee77(%rip),%rax        # 13ef0 <g_1075>
    5079:	48 8b 55 f0          	mov    -0x10(%rbp),%rdx
    507d:	48 89 10             	mov    %rdx,(%rax)
    5080:	48 8b 4d d8          	mov    -0x28(%rbp),%rcx
    5084:	48 8b 05 e5 c5 00 00 	mov    0xc5e5(%rip),%rax        # 11670 <g_1077>
    508b:	48 8b 15 e6 c5 00 00 	mov    0xc5e6(%rip),%rdx        # 11678 <g_1077+0x8>
    5092:	48 89 01             	mov    %rax,(%rcx)
    5095:	48 89 51 08          	mov    %rdx,0x8(%rcx)
    5099:	8b 05 e1 c5 00 00    	mov    0xc5e1(%rip),%eax        # 11680 <g_1077+0x10>
    509f:	89 41 10             	mov    %eax,0x10(%rcx)
    50a2:	48 8b 45 f8          	mov    -0x8(%rbp),%rax
    50a6:	64 48 33 04 25 28 00 	xor    %fs:0x28,%rax
    50ad:	00 00 
    50af:	74 05                	je     50b6 <func_31+0xbb>
    50b1:	e8 ba df ff ff       	callq  3070 <__stack_chk_fail@plt>
    50b6:	48 8b 45 d8          	mov    -0x28(%rbp),%rax
    50ba:	c9                   	leaveq 
    50bb:	c3                   	retq   

00000000000050bc <func_37>:
    50bc:	f3 0f 1e fa          	endbr64 
    50c0:	55                   	push   %rbp
    50c1:	48 89 e5             	mov    %rsp,%rbp
    50c4:	41 57                	push   %r15
    50c6:	41 56                	push   %r14
    50c8:	41 55                	push   %r13
    50ca:	41 54                	push   %r12
    50cc:	53                   	push   %rbx
    50cd:	48 81 ec 88 03 00 00 	sub    $0x388,%rsp
    50d4:	48 89 bd 68 fc ff ff 	mov    %rdi,-0x398(%rbp)
    50db:	48 89 b5 60 fc ff ff 	mov    %rsi,-0x3a0(%rbp)
    50e2:	48 89 95 58 fc ff ff 	mov    %rdx,-0x3a8(%rbp)
    50e9:	89 c8                	mov    %ecx,%eax
    50eb:	66 89 85 54 fc ff ff 	mov    %ax,-0x3ac(%rbp)
    50f2:	64 48 8b 04 25 28 00 	mov    %fs:0x28,%rax
    50f9:	00 00 
    50fb:	48 89 45 c8          	mov    %rax,-0x38(%rbp)
    50ff:	31 c0                	xor    %eax,%eax
    5101:	c7 85 90 fc ff ff 64 	movl   $0xeed80d64,-0x370(%rbp)
    5108:	0d d8 ee 
    510b:	48 8d 05 92 c1 00 00 	lea    0xc192(%rip),%rax        # 112a4 <g_742>
    5112:	48 89 85 90 fd ff ff 	mov    %rax,-0x270(%rbp)
    5119:	48 8d 05 3e bf 00 00 	lea    0xbf3e(%rip),%rax        # 1105e <g_143>
    5120:	48 89 85 98 fd ff ff 	mov    %rax,-0x268(%rbp)
    5127:	48 8d 05 06 c1 00 00 	lea    0xc106(%rip),%rax        # 11234 <g_626+0x74>
    512e:	48 89 85 a0 fd ff ff 	mov    %rax,-0x260(%rbp)
    5135:	48 c7 85 a8 fd ff ff 	movq   $0x0,-0x258(%rbp)
    513c:	00 00 00 00 
    5140:	48 c7 85 b0 fd ff ff 	movq   $0x0,-0x250(%rbp)
    5147:	00 00 00 00 
    514b:	48 8d 05 52 c1 00 00 	lea    0xc152(%rip),%rax        # 112a4 <g_742>
    5152:	48 89 85 b8 fd ff ff 	mov    %rax,-0x248(%rbp)
    5159:	48 8d 05 fe be 00 00 	lea    0xbefe(%rip),%rax        # 1105e <g_143>
    5160:	48 89 85 c0 fd ff ff 	mov    %rax,-0x240(%rbp)
    5167:	48 8d 05 f0 be 00 00 	lea    0xbef0(%rip),%rax        # 1105e <g_143>
    516e:	48 89 85 c8 fd ff ff 	mov    %rax,-0x238(%rbp)
    5175:	48 8d 05 e2 be 00 00 	lea    0xbee2(%rip),%rax        # 1105e <g_143>
    517c:	48 89 85 d0 fd ff ff 	mov    %rax,-0x230(%rbp)
    5183:	48 8d 05 1a c1 00 00 	lea    0xc11a(%rip),%rax        # 112a4 <g_742>
    518a:	48 89 85 d8 fd ff ff 	mov    %rax,-0x228(%rbp)
    5191:	48 8d 05 dc be 00 00 	lea    0xbedc(%rip),%rax        # 11074 <g_162>
    5198:	48 89 85 e0 fd ff ff 	mov    %rax,-0x220(%rbp)
    519f:	48 8d 05 b8 be 00 00 	lea    0xbeb8(%rip),%rax        # 1105e <g_143>
    51a6:	48 89 85 e8 fd ff ff 	mov    %rax,-0x218(%rbp)
    51ad:	48 8d 05 aa be 00 00 	lea    0xbeaa(%rip),%rax        # 1105e <g_143>
    51b4:	48 89 85 f0 fd ff ff 	mov    %rax,-0x210(%rbp)
    51bb:	48 8d 05 5b c0 00 00 	lea    0xc05b(%rip),%rax        # 1121d <g_626+0x5d>
    51c2:	48 89 85 f8 fd ff ff 	mov    %rax,-0x208(%rbp)
    51c9:	48 8d 05 8e be 00 00 	lea    0xbe8e(%rip),%rax        # 1105e <g_143>
    51d0:	48 89 85 00 fe ff ff 	mov    %rax,-0x200(%rbp)
    51d7:	48 c7 85 08 fe ff ff 	movq   $0x0,-0x1f8(%rbp)
    51de:	00 00 00 00 
    51e2:	48 8d 05 bb c0 00 00 	lea    0xc0bb(%rip),%rax        # 112a4 <g_742>
    51e9:	48 89 85 10 fe ff ff 	mov    %rax,-0x1f0(%rbp)
    51f0:	48 8d 05 67 be 00 00 	lea    0xbe67(%rip),%rax        # 1105e <g_143>
    51f7:	48 89 85 18 fe ff ff 	mov    %rax,-0x1e8(%rbp)
    51fe:	48 8d 05 9f c0 00 00 	lea    0xc09f(%rip),%rax        # 112a4 <g_742>
    5205:	48 89 85 20 fe ff ff 	mov    %rax,-0x1e0(%rbp)
    520c:	48 8d 05 91 c0 00 00 	lea    0xc091(%rip),%rax        # 112a4 <g_742>
    5213:	48 89 85 28 fe ff ff 	mov    %rax,-0x1d8(%rbp)
    521a:	48 8d 05 3d be 00 00 	lea    0xbe3d(%rip),%rax        # 1105e <g_143>
    5221:	48 89 85 30 fe ff ff 	mov    %rax,-0x1d0(%rbp)
    5228:	48 8d 05 ee bf 00 00 	lea    0xbfee(%rip),%rax        # 1121d <g_626+0x5d>
    522f:	48 89 85 38 fe ff ff 	mov    %rax,-0x1c8(%rbp)
    5236:	48 8d 05 67 c0 00 00 	lea    0xc067(%rip),%rax        # 112a4 <g_742>
    523d:	48 89 85 40 fe ff ff 	mov    %rax,-0x1c0(%rbp)
    5244:	48 8d 05 59 c0 00 00 	lea    0xc059(%rip),%rax        # 112a4 <g_742>
    524b:	48 89 85 48 fe ff ff 	mov    %rax,-0x1b8(%rbp)
    5252:	48 8d 05 05 be 00 00 	lea    0xbe05(%rip),%rax        # 1105e <g_143>
    5259:	48 89 85 50 fe ff ff 	mov    %rax,-0x1b0(%rbp)
    5260:	48 8d 05 b6 bf 00 00 	lea    0xbfb6(%rip),%rax        # 1121d <g_626+0x5d>
    5267:	48 89 85 58 fe ff ff 	mov    %rax,-0x1a8(%rbp)
    526e:	48 8d 05 bf bf 00 00 	lea    0xbfbf(%rip),%rax        # 11234 <g_626+0x74>
    5275:	48 89 85 60 fe ff ff 	mov    %rax,-0x1a0(%rbp)
    527c:	c7 85 80 fc ff ff 53 	movl   $0x2134d653,-0x380(%rbp)
    5283:	d6 34 21 
    5286:	c7 85 84 fc ff ff df 	movl   $0xfadae7df,-0x37c(%rbp)
    528d:	e7 da fa 
    5290:	48 8d 85 84 fc ff ff 	lea    -0x37c(%rbp),%rax
    5297:	48 89 85 c0 fc ff ff 	mov    %rax,-0x340(%rbp)
    529e:	8b 85 30 fd ff ff    	mov    -0x2d0(%rbp),%eax
    52a4:	25 00 00 00 fc       	and    $0xfc000000,%eax
    52a9:	0d c1 01 00 00       	or     $0x1c1,%eax
    52ae:	89 85 30 fd ff ff    	mov    %eax,-0x2d0(%rbp)
    52b4:	8b 85 34 fd ff ff    	mov    -0x2cc(%rbp),%eax
    52ba:	25 00 00 00 fc       	and    $0xfc000000,%eax
    52bf:	0d c1 01 00 00       	or     $0x1c1,%eax
    52c4:	89 85 34 fd ff ff    	mov    %eax,-0x2cc(%rbp)
    52ca:	8b 85 38 fd ff ff    	mov    -0x2c8(%rbp),%eax
    52d0:	25 00 00 00 fc       	and    $0xfc000000,%eax
    52d5:	0d c1 01 00 00       	or     $0x1c1,%eax
    52da:	89 85 38 fd ff ff    	mov    %eax,-0x2c8(%rbp)
    52e0:	8b 85 3c fd ff ff    	mov    -0x2c4(%rbp),%eax
    52e6:	25 00 00 00 fc       	and    $0xfc000000,%eax
    52eb:	0d c1 01 00 00       	or     $0x1c1,%eax
    52f0:	89 85 3c fd ff ff    	mov    %eax,-0x2c4(%rbp)
    52f6:	8b 85 40 fd ff ff    	mov    -0x2c0(%rbp),%eax
    52fc:	25 00 00 00 fc       	and    $0xfc000000,%eax
    5301:	0d c1 01 00 00       	or     $0x1c1,%eax
    5306:	89 85 40 fd ff ff    	mov    %eax,-0x2c0(%rbp)
    530c:	8b 85 44 fd ff ff    	mov    -0x2bc(%rbp),%eax
    5312:	25 00 00 00 fc       	and    $0xfc000000,%eax
    5317:	0d c1 01 00 00       	or     $0x1c1,%eax
    531c:	89 85 44 fd ff ff    	mov    %eax,-0x2bc(%rbp)
    5322:	8b 85 48 fd ff ff    	mov    -0x2b8(%rbp),%eax
    5328:	25 00 00 00 fc       	and    $0xfc000000,%eax
    532d:	0d c1 01 00 00       	or     $0x1c1,%eax
    5332:	89 85 48 fd ff ff    	mov    %eax,-0x2b8(%rbp)
    5338:	8b 85 4c fd ff ff    	mov    -0x2b4(%rbp),%eax
    533e:	25 00 00 00 fc       	and    $0xfc000000,%eax
    5343:	0d c1 01 00 00       	or     $0x1c1,%eax
    5348:	89 85 4c fd ff ff    	mov    %eax,-0x2b4(%rbp)
    534e:	48 8d 05 e3 ef 00 00 	lea    0xefe3(%rip),%rax        # 14338 <g_183>
    5355:	48 89 85 c8 fc ff ff 	mov    %rax,-0x338(%rbp)
    535c:	48 c7 85 98 fc ff ff 	movq   $0x0,-0x368(%rbp)
    5363:	00 00 00 00 
    5367:	48 8d 85 98 fc ff ff 	lea    -0x368(%rbp),%rax
    536e:	48 89 85 a0 fc ff ff 	mov    %rax,-0x360(%rbp)
    5375:	48 8d 85 a0 fc ff ff 	lea    -0x360(%rbp),%rax
    537c:	48 89 85 a8 fc ff ff 	mov    %rax,-0x358(%rbp)
    5383:	48 8d 85 a8 fc ff ff 	lea    -0x358(%rbp),%rax
    538a:	48 89 85 d0 fc ff ff 	mov    %rax,-0x330(%rbp)
    5391:	48 8d 85 a0 fc ff ff 	lea    -0x360(%rbp),%rax
    5398:	48 89 85 b0 fc ff ff 	mov    %rax,-0x350(%rbp)
    539f:	48 8d 85 b0 fc ff ff 	lea    -0x350(%rbp),%rax
    53a6:	48 89 85 d8 fc ff ff 	mov    %rax,-0x328(%rbp)
    53ad:	48 8d 05 fd be 00 00 	lea    0xbefd(%rip),%rax        # 112b1 <g_746+0x1>
    53b4:	48 89 85 e0 fc ff ff 	mov    %rax,-0x320(%rbp)
    53bb:	48 8d 05 9a bc 00 00 	lea    0xbc9a(%rip),%rax        # 1105c <g_126>
    53c2:	48 89 85 e8 fc ff ff 	mov    %rax,-0x318(%rbp)
    53c9:	48 8d 05 48 bd 00 00 	lea    0xbd48(%rip),%rax        # 11118 <g_417+0x18>
    53d0:	48 89 85 f0 fc ff ff 	mov    %rax,-0x310(%rbp)
    53d7:	48 c7 85 f8 fc ff ff 	movq   $0x1,-0x308(%rbp)
    53de:	01 00 00 00 
    53e2:	c7 85 8c fc ff ff 00 	movl   $0x0,-0x374(%rbp)
    53e9:	00 00 00 
    53ec:	eb 1a                	jmp    5408 <func_37+0x34c>
    53ee:	8b 85 8c fc ff ff    	mov    -0x374(%rbp),%eax
    53f4:	48 98                	cltq   
    53f6:	c7 84 85 24 fd ff ff 	movl   $0xffffffff,-0x2dc(%rbp,%rax,4)
    53fd:	ff ff ff ff 
    5401:	83 85 8c fc ff ff 01 	addl   $0x1,-0x374(%rbp)
    5408:	83 bd 8c fc ff ff 02 	cmpl   $0x2,-0x374(%rbp)
    540f:	7e dd                	jle    53ee <func_37+0x332>
    5411:	81 8d 90 fc ff ff d4 	orl    $0x11d4,-0x370(%rbp)
    5418:	11 00 00 
    541b:	48 8b 05 1e e8 00 00 	mov    0xe81e(%rip),%rax        # 13c40 <g_29>
    5422:	0f b6 00             	movzbl (%rax),%eax
    5425:	0f b6 d8             	movzbl %al,%ebx
    5428:	0f b6 05 41 be 00 00 	movzbl 0xbe41(%rip),%eax        # 11270 <g_712>
    542f:	01 c0                	add    %eax,%eax
    5431:	d0 f8                	sar    %al
    5433:	0f be d0             	movsbl %al,%edx
    5436:	0f b7 85 54 fc ff ff 	movzwl -0x3ac(%rbp),%eax
    543d:	89 85 80 fc ff ff    	mov    %eax,-0x380(%rbp)
    5443:	8b 85 80 fc ff ff    	mov    -0x380(%rbp),%eax
    5449:	0f be c0             	movsbl %al,%eax
    544c:	89 d6                	mov    %edx,%esi
    544e:	89 c7                	mov    %eax,%edi
    5450:	e8 9d dd ff ff       	callq  31f2 <safe_sub_func_int8_t_s_s>
    5455:	0f be d0             	movsbl %al,%edx
    5458:	c7 85 24 fd ff ff 00 	movl   $0x0,-0x2dc(%rbp)
    545f:	00 00 00 
    5462:	8b 85 24 fd ff ff    	mov    -0x2dc(%rbp),%eax
    5468:	39 c2                	cmp    %eax,%edx
    546a:	0f 95 c0             	setne  %al
    546d:	0f b6 c0             	movzbl %al,%eax
    5470:	09 d8                	or     %ebx,%eax
    5472:	83 f8 f9             	cmp    $0xfffffff9,%eax
    5475:	0f 9d c0             	setge  %al
    5478:	0f b6 c0             	movzbl %al,%eax
    547b:	39 85 90 fc ff ff    	cmp    %eax,-0x370(%rbp)
    5481:	0f 97 c0             	seta   %al
    5484:	0f b6 d0             	movzbl %al,%edx
    5487:	0f b7 85 54 fc ff ff 	movzwl -0x3ac(%rbp),%eax
    548e:	39 c2                	cmp    %eax,%edx
    5490:	0f 9f c0             	setg   %al
    5493:	0f b6 d0             	movzbl %al,%edx
    5496:	8b 85 84 fc ff ff    	mov    -0x37c(%rbp),%eax
    549c:	39 c2                	cmp    %eax,%edx
    549e:	0f 95 c0             	setne  %al
    54a1:	0f b6 d0             	movzbl %al,%edx
    54a4:	48 8b 85 c0 fc ff ff 	mov    -0x340(%rbp),%rax
    54ab:	89 10                	mov    %edx,(%rax)
    54ad:	48 8b 85 c0 fc ff ff 	mov    -0x340(%rbp),%rax
    54b4:	8b 00                	mov    (%rax),%eax
    54b6:	0f bf d8             	movswl %ax,%ebx
    54b9:	48 8b 85 c0 fc ff ff 	mov    -0x340(%rbp),%rax
    54c0:	8b 00                	mov    (%rax),%eax
    54c2:	41 89 c6             	mov    %eax,%r14d
    54c5:	48 8b 85 c0 fc ff ff 	mov    -0x340(%rbp),%rax
    54cc:	8b 00                	mov    (%rax),%eax
    54ce:	4c 63 e0             	movslq %eax,%r12
    54d1:	0f b6 05 5a bb 00 00 	movzbl 0xbb5a(%rip),%eax        # 11032 <g_61>
    54d8:	0f b6 15 54 bb 00 00 	movzbl 0xbb54(%rip),%edx        # 11033 <g_61+0x1>
    54df:	48 c1 e2 08          	shl    $0x8,%rdx
    54e3:	48 09 c2             	or     %rax,%rdx
    54e6:	0f b6 05 47 bb 00 00 	movzbl 0xbb47(%rip),%eax        # 11034 <g_61+0x2>
    54ed:	48 c1 e0 10          	shl    $0x10,%rax
    54f1:	48 09 c2             	or     %rax,%rdx
    54f4:	0f b6 05 3a bb 00 00 	movzbl 0xbb3a(%rip),%eax        # 11035 <g_61+0x3>
    54fb:	83 e0 03             	and    $0x3,%eax
    54fe:	48 c1 e0 18          	shl    $0x18,%rax
    5502:	48 09 d0             	or     %rdx,%rax
    5505:	44 0f b6 e8          	movzbl %al,%r13d
    5509:	48 8b 85 c0 fc ff ff 	mov    -0x340(%rbp),%rax
    5510:	8b 10                	mov    (%rax),%edx
    5512:	48 8b 85 c8 fc ff ff 	mov    -0x338(%rbp),%rax
    5519:	89 10                	mov    %edx,(%rax)
    551b:	48 8b 85 c8 fc ff ff 	mov    -0x338(%rbp),%rax
    5522:	8b 00                	mov    (%rax),%eax
    5524:	89 c6                	mov    %eax,%esi
    5526:	bf 01 00 00 00       	mov    $0x1,%edi
    552b:	e8 9c e1 ff ff       	callq  36cc <safe_mod_func_int32_t_s_s>
    5530:	0f b6 c0             	movzbl %al,%eax
    5533:	44 89 ee             	mov    %r13d,%esi
    5536:	89 c7                	mov    %eax,%edi
    5538:	e8 9e e6 ff ff       	callq  3bdb <safe_div_func_uint8_t_u_u>
    553d:	0f b6 c0             	movzbl %al,%eax
    5540:	66 39 85 54 fc ff ff 	cmp    %ax,-0x3ac(%rbp)
    5547:	0f 93 c0             	setae  %al
    554a:	0f b6 c0             	movzbl %al,%eax
    554d:	be 00 00 00 00       	mov    $0x0,%esi
    5552:	89 c7                	mov    %eax,%edi
    5554:	e8 3a e6 ff ff       	callq  3b93 <safe_mul_func_uint8_t_u_u>
    5559:	48 8b 05 6c bb 00 00 	mov    0xbb6c(%rip),%rax        # 110cc <g_311+0xc>
    5560:	ba 01 00 00 00       	mov    $0x1,%edx
    5565:	0f b7 85 54 fc ff ff 	movzwl -0x3ac(%rbp),%eax
    556c:	39 c2                	cmp    %eax,%edx
    556e:	0f 9d c0             	setge  %al
    5571:	0f b6 c0             	movzbl %al,%eax
    5574:	4c 89 e6             	mov    %r12,%rsi
    5577:	48 89 c7             	mov    %rax,%rdi
    557a:	e8 cc ea ff ff       	callq  404b <safe_sub_func_uint64_t_u_u>
    557f:	89 c2                	mov    %eax,%edx
    5581:	48 b8 51 51 58 6d d5 	movabs $0xcc8f09d56d585151,%rax
    5588:	09 8f cc 
    558b:	31 d0                	xor    %edx,%eax
    558d:	0f b7 c0             	movzwl %ax,%eax
    5590:	44 89 f6             	mov    %r14d,%esi
    5593:	89 c7                	mov    %eax,%edi
    5595:	e8 e0 e8 ff ff       	callq  3e7a <safe_rshift_func_uint16_t_u_u>
    559a:	66 85 c0             	test   %ax,%ax
    559d:	74 07                	je     55a6 <func_37+0x4ea>
    559f:	b8 01 00 00 00       	mov    $0x1,%eax
    55a4:	eb 05                	jmp    55ab <func_37+0x4ef>
    55a6:	b8 00 00 00 00       	mov    $0x0,%eax
    55ab:	0f b7 c0             	movzwl %ax,%eax
    55ae:	be f9 ff 00 00       	mov    $0xfff9,%esi
    55b3:	89 c7                	mov    %eax,%edi
    55b5:	e8 d4 e7 ff ff       	callq  3d8e <safe_div_func_uint16_t_u_u>
    55ba:	66 39 85 54 fc ff ff 	cmp    %ax,-0x3ac(%rbp)
    55c1:	0f 92 c0             	setb   %al
    55c4:	0f b6 d0             	movzbl %al,%edx
    55c7:	48 8b 05 5a ba 00 00 	mov    0xba5a(%rip),%rax        # 11028 <g_4>
    55ce:	48 39 c2             	cmp    %rax,%rdx
    55d1:	0f 95 c0             	setne  %al
    55d4:	0f b6 c0             	movzbl %al,%eax
    55d7:	89 de                	mov    %ebx,%esi
    55d9:	89 c7                	mov    %eax,%edi
    55db:	e8 15 de ff ff       	callq  33f5 <safe_mul_func_int16_t_s_s>
    55e0:	48 8b 0d 89 e6 00 00 	mov    0xe689(%rip),%rcx        # 13c70 <g_337>
    55e7:	48 8b 05 42 c0 00 00 	mov    0xc042(%rip),%rax        # 11630 <g_1006>
    55ee:	48 8b 15 43 c0 00 00 	mov    0xc043(%rip),%rdx        # 11638 <g_1006+0x8>
    55f5:	48 89 01             	mov    %rax,(%rcx)
    55f8:	48 89 51 08          	mov    %rdx,0x8(%rcx)
    55fc:	8b 05 3e c0 00 00    	mov    0xc03e(%rip),%eax        # 11640 <g_1006+0x10>
    5602:	89 41 10             	mov    %eax,0x10(%rcx)
    5605:	48 8b 85 c0 fc ff ff 	mov    -0x340(%rbp),%rax
    560c:	8b 18                	mov    (%rax),%ebx
    560e:	0f b7 05 91 bc 00 00 	movzwl 0xbc91(%rip),%eax        # 112a6 <g_744>
    5615:	8b 05 cd bf 00 00    	mov    0xbfcd(%rip),%eax        # 115e8 <g_935>
    561b:	44 0f b6 e0          	movzbl %al,%r12d
    561f:	44 0f b7 bd 54 fc ff 	movzwl -0x3ac(%rbp),%r15d
    5626:	ff 
    5627:	0f b6 05 62 bc 00 00 	movzbl 0xbc62(%rip),%eax        # 11290 <g_715>
    562e:	01 c0                	add    %eax,%eax
    5630:	d0 f8                	sar    %al
    5632:	44 0f be e8          	movsbl %al,%r13d
    5636:	48 8b 85 c0 fc ff ff 	mov    -0x340(%rbp),%rax
    563d:	8b 00                	mov    (%rax),%eax
    563f:	44 0f b7 f0          	movzwl %ax,%r14d
    5643:	0f b7 05 aa ba 00 00 	movzwl 0xbaaa(%rip),%eax        # 110f4 <g_415>
    564a:	0f b7 d0             	movzwl %ax,%edx
    564d:	0f b7 85 54 fc ff ff 	movzwl -0x3ac(%rbp),%eax
    5654:	89 d6                	mov    %edx,%esi
    5656:	89 c7                	mov    %eax,%edi
    5658:	e8 a8 df ff ff       	callq  3605 <safe_sub_func_int32_t_s_s>
    565d:	83 f8 01             	cmp    $0x1,%eax
    5660:	0f 9f c0             	setg   %al
    5663:	0f b6 d0             	movzbl %al,%edx
    5666:	8b 05 e4 ba 00 00    	mov    0xbae4(%rip),%eax        # 11150 <g_417+0x50>
    566c:	39 c2                	cmp    %eax,%edx
    566e:	0f 97 c0             	seta   %al
    5671:	0f b6 c0             	movzbl %al,%eax
    5674:	44 89 f6             	mov    %r14d,%esi
    5677:	89 c7                	mov    %eax,%edi
    5679:	e8 a1 e6 ff ff       	callq  3d1f <safe_sub_func_uint16_t_u_u>
    567e:	0f b6 c0             	movzbl %al,%eax
    5681:	be 00 00 00 00       	mov    $0x0,%esi
    5686:	89 c7                	mov    %eax,%edi
    5688:	e8 eb e4 ff ff       	callq  3b78 <safe_sub_func_uint8_t_u_u>
    568d:	0f b6 d0             	movzbl %al,%edx
    5690:	48 8b 85 c0 fc ff ff 	mov    -0x340(%rbp),%rax
    5697:	8b 00                	mov    (%rax),%eax
    5699:	39 c2                	cmp    %eax,%edx
    569b:	0f 9d c0             	setge  %al
    569e:	0f b6 c0             	movzbl %al,%eax
    56a1:	44 89 ee             	mov    %r13d,%esi
    56a4:	89 c7                	mov    %eax,%edi
    56a6:	e8 6b dd ff ff       	callq  3416 <safe_mod_func_int16_t_s_s>
    56ab:	48 8b 95 e8 fc ff ff 	mov    -0x318(%rbp),%rdx
    56b2:	66 89 02             	mov    %ax,(%rdx)
    56b5:	48 8b 85 e8 fc ff ff 	mov    -0x318(%rbp),%rax
    56bc:	0f b7 00             	movzwl (%rax),%eax
    56bf:	0f bf d0             	movswl %ax,%edx
    56c2:	8b 05 20 bf 00 00    	mov    0xbf20(%rip),%eax        # 115e8 <g_935>
    56c8:	39 c2                	cmp    %eax,%edx
    56ca:	75 0a                	jne    56d6 <func_37+0x61a>
    56cc:	66 83 bd 54 fc ff ff 	cmpw   $0x0,-0x3ac(%rbp)
    56d3:	00 
    56d4:	74 07                	je     56dd <func_37+0x621>
    56d6:	b8 01 00 00 00       	mov    $0x1,%eax
    56db:	eb 05                	jmp    56e2 <func_37+0x626>
    56dd:	b8 00 00 00 00       	mov    $0x0,%eax
    56e2:	44 39 f8             	cmp    %r15d,%eax
    56e5:	0f 9e c0             	setle  %al
    56e8:	0f b6 d0             	movzbl %al,%edx
    56eb:	0f b6 05 3f b9 00 00 	movzbl 0xb93f(%rip),%eax        # 11031 <g_30>
    56f2:	0f b6 c0             	movzbl %al,%eax
    56f5:	39 c2                	cmp    %eax,%edx
    56f7:	0f 9d c0             	setge  %al
    56fa:	0f b6 d0             	movzbl %al,%edx
    56fd:	0f b6 05 ec be 00 00 	movzbl 0xbeec(%rip),%eax        # 115f0 <g_943>
    5704:	01 c0                	add    %eax,%eax
    5706:	d0 f8                	sar    %al
    5708:	0f be c0             	movsbl %al,%eax
    570b:	39 c2                	cmp    %eax,%edx
    570d:	0f 95 c0             	setne  %al
    5710:	0f b6 c0             	movzbl %al,%eax
    5713:	44 89 e6             	mov    %r12d,%esi
    5716:	89 c7                	mov    %eax,%edi
    5718:	e8 3d e4 ff ff       	callq  3b5a <safe_add_func_uint8_t_u_u>
    571d:	0f b6 d0             	movzbl %al,%edx
    5720:	48 8b 85 f0 fc ff ff 	mov    -0x310(%rbp),%rax
    5727:	89 10                	mov    %edx,(%rax)
    5729:	89 de                	mov    %ebx,%esi
    572b:	bf cd 00 00 00       	mov    $0xcd,%edi
    5730:	e8 97 df ff ff       	callq  36cc <safe_mod_func_int32_t_s_s>
    5735:	48 98                	cltq   
    5737:	48 89 85 f8 fc ff ff 	mov    %rax,-0x308(%rbp)
    573e:	48 8b 85 c8 fc ff ff 	mov    -0x338(%rbp),%rax
    5745:	8b 00                	mov    (%rax),%eax
    5747:	48 98                	cltq   
    5749:	48 39 85 f8 fc ff ff 	cmp    %rax,-0x308(%rbp)
    5750:	72 07                	jb     5759 <func_37+0x69d>
    5752:	b8 03 00 00 00       	mov    $0x3,%eax
    5757:	eb 05                	jmp    575e <func_37+0x6a2>
    5759:	b8 02 00 00 00       	mov    $0x2,%eax
    575e:	be fa ff 00 00       	mov    $0xfffa,%esi
    5763:	89 c7                	mov    %eax,%edi
    5765:	e8 f2 e5 ff ff       	callq  3d5c <safe_mod_func_uint16_t_u_u>
    576a:	66 83 bd 54 fc ff ff 	cmpw   $0x0,-0x3ac(%rbp)
    5771:	00 
    5772:	0f 84 8e 04 00 00    	je     5c06 <func_37+0xb4a>
    5778:	48 8d 85 24 fd ff ff 	lea    -0x2dc(%rbp),%rax
    577f:	48 89 85 70 fe ff ff 	mov    %rax,-0x190(%rbp)
    5786:	48 8d 85 24 fd ff ff 	lea    -0x2dc(%rbp),%rax
    578d:	48 89 85 78 fe ff ff 	mov    %rax,-0x188(%rbp)
    5794:	48 8d 85 24 fd ff ff 	lea    -0x2dc(%rbp),%rax
    579b:	48 89 85 80 fe ff ff 	mov    %rax,-0x180(%rbp)
    57a2:	48 8d 85 24 fd ff ff 	lea    -0x2dc(%rbp),%rax
    57a9:	48 89 85 88 fe ff ff 	mov    %rax,-0x178(%rbp)
    57b0:	48 8d 85 24 fd ff ff 	lea    -0x2dc(%rbp),%rax
    57b7:	48 89 85 90 fe ff ff 	mov    %rax,-0x170(%rbp)
    57be:	48 8d 85 24 fd ff ff 	lea    -0x2dc(%rbp),%rax
    57c5:	48 89 85 98 fe ff ff 	mov    %rax,-0x168(%rbp)
    57cc:	48 8d 85 24 fd ff ff 	lea    -0x2dc(%rbp),%rax
    57d3:	48 89 85 a0 fe ff ff 	mov    %rax,-0x160(%rbp)
    57da:	48 8d 85 24 fd ff ff 	lea    -0x2dc(%rbp),%rax
    57e1:	48 83 c0 04          	add    $0x4,%rax
    57e5:	48 89 85 a8 fe ff ff 	mov    %rax,-0x158(%rbp)
    57ec:	48 8d 85 24 fd ff ff 	lea    -0x2dc(%rbp),%rax
    57f3:	48 83 c0 04          	add    $0x4,%rax
    57f7:	48 89 85 b0 fe ff ff 	mov    %rax,-0x150(%rbp)
    57fe:	48 8d 85 24 fd ff ff 	lea    -0x2dc(%rbp),%rax
    5805:	48 83 c0 04          	add    $0x4,%rax
    5809:	48 89 85 b8 fe ff ff 	mov    %rax,-0x148(%rbp)
    5810:	48 8d 85 24 fd ff ff 	lea    -0x2dc(%rbp),%rax
    5817:	48 83 c0 04          	add    $0x4,%rax
    581b:	48 89 85 c0 fe ff ff 	mov    %rax,-0x140(%rbp)
    5822:	48 8d 85 24 fd ff ff 	lea    -0x2dc(%rbp),%rax
    5829:	48 83 c0 04          	add    $0x4,%rax
    582d:	48 89 85 c8 fe ff ff 	mov    %rax,-0x138(%rbp)
    5834:	48 8d 85 24 fd ff ff 	lea    -0x2dc(%rbp),%rax
    583b:	48 83 c0 04          	add    $0x4,%rax
    583f:	48 89 85 d0 fe ff ff 	mov    %rax,-0x130(%rbp)
    5846:	48 8d 85 24 fd ff ff 	lea    -0x2dc(%rbp),%rax
    584d:	48 83 c0 04          	add    $0x4,%rax
    5851:	48 89 85 d8 fe ff ff 	mov    %rax,-0x128(%rbp)
    5858:	48 8d 85 24 fd ff ff 	lea    -0x2dc(%rbp),%rax
    585f:	48 89 85 e0 fe ff ff 	mov    %rax,-0x120(%rbp)
    5866:	48 8d 85 24 fd ff ff 	lea    -0x2dc(%rbp),%rax
    586d:	48 89 85 e8 fe ff ff 	mov    %rax,-0x118(%rbp)
    5874:	48 8d 85 24 fd ff ff 	lea    -0x2dc(%rbp),%rax
    587b:	48 89 85 f0 fe ff ff 	mov    %rax,-0x110(%rbp)
    5882:	48 8d 85 24 fd ff ff 	lea    -0x2dc(%rbp),%rax
    5889:	48 89 85 f8 fe ff ff 	mov    %rax,-0x108(%rbp)
    5890:	48 8d 85 24 fd ff ff 	lea    -0x2dc(%rbp),%rax
    5897:	48 89 85 00 ff ff ff 	mov    %rax,-0x100(%rbp)
    589e:	48 8d 85 24 fd ff ff 	lea    -0x2dc(%rbp),%rax
    58a5:	48 89 85 08 ff ff ff 	mov    %rax,-0xf8(%rbp)
    58ac:	48 8d 85 24 fd ff ff 	lea    -0x2dc(%rbp),%rax
    58b3:	48 89 85 10 ff ff ff 	mov    %rax,-0xf0(%rbp)
    58ba:	48 8d 85 24 fd ff ff 	lea    -0x2dc(%rbp),%rax
    58c1:	48 83 c0 04          	add    $0x4,%rax
    58c5:	48 89 85 18 ff ff ff 	mov    %rax,-0xe8(%rbp)
    58cc:	48 8d 85 24 fd ff ff 	lea    -0x2dc(%rbp),%rax
    58d3:	48 83 c0 04          	add    $0x4,%rax
    58d7:	48 89 85 20 ff ff ff 	mov    %rax,-0xe0(%rbp)
    58de:	48 8d 85 24 fd ff ff 	lea    -0x2dc(%rbp),%rax
    58e5:	48 83 c0 04          	add    $0x4,%rax
    58e9:	48 89 85 28 ff ff ff 	mov    %rax,-0xd8(%rbp)
    58f0:	48 8d 85 24 fd ff ff 	lea    -0x2dc(%rbp),%rax
    58f7:	48 83 c0 04          	add    $0x4,%rax
    58fb:	48 89 85 30 ff ff ff 	mov    %rax,-0xd0(%rbp)
    5902:	48 8d 85 24 fd ff ff 	lea    -0x2dc(%rbp),%rax
    5909:	48 83 c0 04          	add    $0x4,%rax
    590d:	48 89 85 38 ff ff ff 	mov    %rax,-0xc8(%rbp)
    5914:	48 8d 85 24 fd ff ff 	lea    -0x2dc(%rbp),%rax
    591b:	48 83 c0 04          	add    $0x4,%rax
    591f:	48 89 85 40 ff ff ff 	mov    %rax,-0xc0(%rbp)
    5926:	48 8d 85 24 fd ff ff 	lea    -0x2dc(%rbp),%rax
    592d:	48 83 c0 04          	add    $0x4,%rax
    5931:	48 89 85 48 ff ff ff 	mov    %rax,-0xb8(%rbp)
    5938:	48 8d 85 24 fd ff ff 	lea    -0x2dc(%rbp),%rax
    593f:	48 89 85 50 ff ff ff 	mov    %rax,-0xb0(%rbp)
    5946:	48 8d 85 24 fd ff ff 	lea    -0x2dc(%rbp),%rax
    594d:	48 89 85 58 ff ff ff 	mov    %rax,-0xa8(%rbp)
    5954:	48 8d 85 24 fd ff ff 	lea    -0x2dc(%rbp),%rax
    595b:	48 89 85 60 ff ff ff 	mov    %rax,-0xa0(%rbp)
    5962:	48 8d 85 24 fd ff ff 	lea    -0x2dc(%rbp),%rax
    5969:	48 89 85 68 ff ff ff 	mov    %rax,-0x98(%rbp)
    5970:	48 8d 85 24 fd ff ff 	lea    -0x2dc(%rbp),%rax
    5977:	48 89 85 70 ff ff ff 	mov    %rax,-0x90(%rbp)
    597e:	48 8d 85 24 fd ff ff 	lea    -0x2dc(%rbp),%rax
    5985:	48 89 85 78 ff ff ff 	mov    %rax,-0x88(%rbp)
    598c:	48 8d 85 24 fd ff ff 	lea    -0x2dc(%rbp),%rax
    5993:	48 89 45 80          	mov    %rax,-0x80(%rbp)
    5997:	48 8d 85 24 fd ff ff 	lea    -0x2dc(%rbp),%rax
    599e:	48 83 c0 04          	add    $0x4,%rax
    59a2:	48 89 45 88          	mov    %rax,-0x78(%rbp)
    59a6:	48 8d 85 24 fd ff ff 	lea    -0x2dc(%rbp),%rax
    59ad:	48 83 c0 04          	add    $0x4,%rax
    59b1:	48 89 45 90          	mov    %rax,-0x70(%rbp)
    59b5:	48 8d 85 24 fd ff ff 	lea    -0x2dc(%rbp),%rax
    59bc:	48 83 c0 04          	add    $0x4,%rax
    59c0:	48 89 45 98          	mov    %rax,-0x68(%rbp)
    59c4:	48 8d 85 24 fd ff ff 	lea    -0x2dc(%rbp),%rax
    59cb:	48 83 c0 04          	add    $0x4,%rax
    59cf:	48 89 45 a0          	mov    %rax,-0x60(%rbp)
    59d3:	48 8d 85 24 fd ff ff 	lea    -0x2dc(%rbp),%rax
    59da:	48 83 c0 04          	add    $0x4,%rax
    59de:	48 89 45 a8          	mov    %rax,-0x58(%rbp)
    59e2:	48 8d 85 24 fd ff ff 	lea    -0x2dc(%rbp),%rax
    59e9:	48 83 c0 04          	add    $0x4,%rax
    59ed:	48 89 45 b0          	mov    %rax,-0x50(%rbp)
    59f1:	48 8d 85 24 fd ff ff 	lea    -0x2dc(%rbp),%rax
    59f8:	48 83 c0 04          	add    $0x4,%rax
    59fc:	48 89 45 b8          	mov    %rax,-0x48(%rbp)
    5a00:	48 8d 05 41 e2 00 00 	lea    0xe241(%rip),%rax        # 13c48 <g_120>
    5a07:	48 89 85 50 fd ff ff 	mov    %rax,-0x2b0(%rbp)
    5a0e:	48 8d 05 33 e2 00 00 	lea    0xe233(%rip),%rax        # 13c48 <g_120>
    5a15:	48 89 85 58 fd ff ff 	mov    %rax,-0x2a8(%rbp)
    5a1c:	48 8d 05 25 e2 00 00 	lea    0xe225(%rip),%rax        # 13c48 <g_120>
    5a23:	48 89 85 60 fd ff ff 	mov    %rax,-0x2a0(%rbp)
    5a2a:	48 8d 05 17 e2 00 00 	lea    0xe217(%rip),%rax        # 13c48 <g_120>
    5a31:	48 89 85 68 fd ff ff 	mov    %rax,-0x298(%rbp)
    5a38:	48 8d 05 09 e2 00 00 	lea    0xe209(%rip),%rax        # 13c48 <g_120>
    5a3f:	48 89 85 70 fd ff ff 	mov    %rax,-0x290(%rbp)
    5a46:	48 8d 05 fb e1 00 00 	lea    0xe1fb(%rip),%rax        # 13c48 <g_120>
    5a4d:	48 89 85 78 fd ff ff 	mov    %rax,-0x288(%rbp)
    5a54:	48 8d 05 ed e1 00 00 	lea    0xe1ed(%rip),%rax        # 13c48 <g_120>
    5a5b:	48 89 85 80 fd ff ff 	mov    %rax,-0x280(%rbp)
    5a62:	c7 85 94 fc ff ff 54 	movl   $0x174bbb54,-0x36c(%rbp)
    5a69:	bb 4b 17 
    5a6c:	c7 85 88 fc ff ff fc 	movl   $0xc0d739fc,-0x378(%rbp)
    5a73:	39 d7 c0 
    5a76:	48 8d 05 cb e1 00 00 	lea    0xe1cb(%rip),%rax        # 13c48 <g_120>
    5a7d:	48 89 85 b8 fc ff ff 	mov    %rax,-0x348(%rbp)
    5a84:	48 8d 85 b8 fc ff ff 	lea    -0x348(%rbp),%rax
    5a8b:	48 89 85 18 fd ff ff 	mov    %rax,-0x2e8(%rbp)
    5a92:	48 8d 85 24 fd ff ff 	lea    -0x2dc(%rbp),%rax
    5a99:	48 89 85 48 ff ff ff 	mov    %rax,-0xb8(%rbp)
    5aa0:	4c 8b ad 58 fd ff ff 	mov    -0x2a8(%rbp),%r13
    5aa7:	48 8b 85 c8 fc ff ff 	mov    -0x338(%rbp),%rax
    5aae:	8b 00                	mov    (%rax),%eax
    5ab0:	0f bf d8             	movswl %ax,%ebx
    5ab3:	48 8b 05 2e e4 00 00 	mov    0xe42e(%rip),%rax        # 13ee8 <g_1056>
    5aba:	48 8b 00             	mov    (%rax),%rax
    5abd:	0f b7 00             	movzwl (%rax),%eax
    5ac0:	44 0f b7 e0          	movzwl %ax,%r12d
    5ac4:	8b 85 88 fc ff ff    	mov    -0x378(%rbp),%eax
    5aca:	85 c0                	test   %eax,%eax
    5acc:	0f 85 88 00 00 00    	jne    5b5a <func_37+0xa9e>
    5ad2:	8b 05 bc b6 00 00    	mov    0xb6bc(%rip),%eax        # 11194 <g_498>
    5ad8:	48 98                	cltq   
    5ada:	48 89 c6             	mov    %rax,%rsi
    5add:	48 c7 c7 fc ff ff ff 	mov    $0xfffffffffffffffc,%rdi
    5ae4:	e8 0e df ff ff       	callq  39f7 <safe_div_func_int64_t_s_s>
    5ae9:	48 85 c0             	test   %rax,%rax
    5aec:	74 11                	je     5aff <func_37+0xa43>
    5aee:	66 83 bd 54 fc ff ff 	cmpw   $0x0,-0x3ac(%rbp)
    5af5:	00 
    5af6:	74 07                	je     5aff <func_37+0xa43>
    5af8:	b8 01 00 00 00       	mov    $0x1,%eax
    5afd:	eb 05                	jmp    5b04 <func_37+0xa48>
    5aff:	b8 00 00 00 00       	mov    $0x0,%eax
    5b04:	89 c2                	mov    %eax,%edx
    5b06:	8b 05 14 b6 00 00    	mov    0xb614(%rip),%eax        # 11120 <g_417+0x20>
    5b0c:	39 c2                	cmp    %eax,%edx
    5b0e:	0f 93 c0             	setae  %al
    5b11:	0f b6 d0             	movzbl %al,%edx
    5b14:	48 8b 85 c0 fc ff ff 	mov    -0x340(%rbp),%rax
    5b1b:	8b 00                	mov    (%rax),%eax
    5b1d:	39 c2                	cmp    %eax,%edx
    5b1f:	48 8b 05 c2 e3 00 00 	mov    0xe3c2(%rip),%rax        # 13ee8 <g_1056>
    5b26:	48 85 c0             	test   %rax,%rax
    5b29:	0f 95 c0             	setne  %al
    5b2c:	0f b6 d0             	movzbl %al,%edx
    5b2f:	0f b6 05 1a bb 00 00 	movzbl 0xbb1a(%rip),%eax        # 11650 <g_1055>
    5b36:	01 c0                	add    %eax,%eax
    5b38:	d0 f8                	sar    %al
    5b3a:	0f be c0             	movsbl %al,%eax
    5b3d:	39 c2                	cmp    %eax,%edx
    5b3f:	0f 9e c0             	setle  %al
    5b42:	0f b6 c0             	movzbl %al,%eax
    5b45:	be ff ff 00 00       	mov    $0xffff,%esi
    5b4a:	89 c7                	mov    %eax,%edi
    5b4c:	e8 ce e1 ff ff       	callq  3d1f <safe_sub_func_uint16_t_u_u>
    5b51:	66 39 85 54 fc ff ff 	cmp    %ax,-0x3ac(%rbp)
    5b58:	74 07                	je     5b61 <func_37+0xaa5>
    5b5a:	b8 01 00 00 00       	mov    $0x1,%eax
    5b5f:	eb 05                	jmp    5b66 <func_37+0xaaa>
    5b61:	b8 00 00 00 00       	mov    $0x0,%eax
    5b66:	f7 d0                	not    %eax
    5b68:	89 c2                	mov    %eax,%edx
    5b6a:	8b 85 94 fc ff ff    	mov    -0x36c(%rbp),%eax
    5b70:	89 d6                	mov    %edx,%esi
    5b72:	89 c7                	mov    %eax,%edi
    5b74:	e8 86 db ff ff       	callq  36ff <safe_div_func_int32_t_s_s>
    5b79:	0f b7 95 54 fc ff ff 	movzwl -0x3ac(%rbp),%edx
    5b80:	0f b7 85 54 fc ff ff 	movzwl -0x3ac(%rbp),%eax
    5b87:	89 d6                	mov    %edx,%esi
    5b89:	89 c7                	mov    %eax,%edi
    5b8b:	e8 6f db ff ff       	callq  36ff <safe_div_func_int32_t_s_s>
    5b90:	0f b7 c0             	movzwl %ax,%eax
    5b93:	44 89 e6             	mov    %r12d,%esi
    5b96:	89 c7                	mov    %eax,%edi
    5b98:	e8 a0 e1 ff ff       	callq  3d3d <safe_mul_func_uint16_t_u_u>
    5b9d:	98                   	cwtl   
    5b9e:	89 de                	mov    %ebx,%esi
    5ba0:	89 c7                	mov    %eax,%edi
    5ba2:	e8 4e d8 ff ff       	callq  33f5 <safe_mul_func_int16_t_s_s>
    5ba7:	0f bf d0             	movswl %ax,%edx
    5baa:	48 8b 85 c0 fc ff ff 	mov    -0x340(%rbp),%rax
    5bb1:	8b 00                	mov    (%rax),%eax
    5bb3:	89 d6                	mov    %edx,%esi
    5bb5:	89 c7                	mov    %eax,%edi
    5bb7:	e8 49 da ff ff       	callq  3605 <safe_sub_func_int32_t_s_s>
    5bbc:	48 8b 85 18 fd ff ff 	mov    -0x2e8(%rbp),%rax
    5bc3:	48 c7 00 00 00 00 00 	movq   $0x0,(%rax)
    5bca:	48 8b 85 18 fd ff ff 	mov    -0x2e8(%rbp),%rax
    5bd1:	48 8b 00             	mov    (%rax),%rax
    5bd4:	49 39 c5             	cmp    %rax,%r13
    5bd7:	66 83 bd 54 fc ff ff 	cmpw   $0x0,-0x3ac(%rbp)
    5bde:	00 
    5bdf:	48 8b 35 82 e0 00 00 	mov    0xe082(%rip),%rsi        # 13c68 <g_312>
    5be6:	48 8b 0d 83 e0 00 00 	mov    0xe083(%rip),%rcx        # 13c70 <g_337>
    5bed:	48 8b 06             	mov    (%rsi),%rax
    5bf0:	48 8b 56 08          	mov    0x8(%rsi),%rdx
    5bf4:	48 89 01             	mov    %rax,(%rcx)
    5bf7:	48 89 51 08          	mov    %rdx,0x8(%rcx)
    5bfb:	8b 46 10             	mov    0x10(%rsi),%eax
    5bfe:	89 41 10             	mov    %eax,0x10(%rcx)
    5c01:	e9 d8 01 00 00       	jmpq   5dde <func_37+0xd22>
    5c06:	66 c7 85 7c fc ff ff 	movw   $0xb796,-0x384(%rbp)
    5c0d:	96 b7 
    5c0f:	48 8d 05 42 b4 00 00 	lea    0xb442(%rip),%rax        # 11058 <g_105>
    5c16:	48 89 85 00 fd ff ff 	mov    %rax,-0x300(%rbp)
    5c1d:	48 8d 85 24 fd ff ff 	lea    -0x2dc(%rbp),%rax
    5c24:	48 89 85 08 fd ff ff 	mov    %rax,-0x2f8(%rbp)
    5c2b:	48 8d 85 24 fd ff ff 	lea    -0x2dc(%rbp),%rax
    5c32:	48 89 85 10 fd ff ff 	mov    %rax,-0x2f0(%rbp)
    5c39:	48 8d 85 24 fd ff ff 	lea    -0x2dc(%rbp),%rax
    5c40:	48 83 c0 08          	add    $0x8,%rax
    5c44:	48 89 85 70 fe ff ff 	mov    %rax,-0x190(%rbp)
    5c4b:	48 8d 85 24 fd ff ff 	lea    -0x2dc(%rbp),%rax
    5c52:	48 83 c0 08          	add    $0x8,%rax
    5c56:	48 89 85 78 fe ff ff 	mov    %rax,-0x188(%rbp)
    5c5d:	48 c7 85 80 fe ff ff 	movq   $0x0,-0x180(%rbp)
    5c64:	00 00 00 00 
    5c68:	48 c7 85 88 fe ff ff 	movq   $0x0,-0x178(%rbp)
    5c6f:	00 00 00 00 
    5c73:	48 8d 05 be e6 00 00 	lea    0xe6be(%rip),%rax        # 14338 <g_183>
    5c7a:	48 89 85 90 fe ff ff 	mov    %rax,-0x170(%rbp)
    5c81:	48 8d 85 84 fc ff ff 	lea    -0x37c(%rbp),%rax
    5c88:	48 89 85 98 fe ff ff 	mov    %rax,-0x168(%rbp)
    5c8f:	48 c7 85 a0 fe ff ff 	movq   $0x0,-0x160(%rbp)
    5c96:	00 00 00 00 
    5c9a:	48 c7 85 a8 fe ff ff 	movq   $0x0,-0x158(%rbp)
    5ca1:	00 00 00 00 
    5ca5:	48 8d 85 84 fc ff ff 	lea    -0x37c(%rbp),%rax
    5cac:	48 89 85 b0 fe ff ff 	mov    %rax,-0x150(%rbp)
    5cb3:	48 8d 85 24 fd ff ff 	lea    -0x2dc(%rbp),%rax
    5cba:	48 83 c0 08          	add    $0x8,%rax
    5cbe:	48 89 85 b8 fe ff ff 	mov    %rax,-0x148(%rbp)
    5cc5:	48 8d 85 84 fc ff ff 	lea    -0x37c(%rbp),%rax
    5ccc:	48 89 85 c0 fe ff ff 	mov    %rax,-0x140(%rbp)
    5cd3:	48 c7 85 c8 fe ff ff 	movq   $0x0,-0x138(%rbp)
    5cda:	00 00 00 00 
    5cde:	48 8d 05 53 e6 00 00 	lea    0xe653(%rip),%rax        # 14338 <g_183>
    5ce5:	48 89 85 d0 fe ff ff 	mov    %rax,-0x130(%rbp)
    5cec:	48 8d 05 45 e6 00 00 	lea    0xe645(%rip),%rax        # 14338 <g_183>
    5cf3:	48 89 85 d8 fe ff ff 	mov    %rax,-0x128(%rbp)
    5cfa:	48 c7 85 e0 fe ff ff 	movq   $0x0,-0x120(%rbp)
    5d01:	00 00 00 00 
    5d05:	48 8d 85 24 fd ff ff 	lea    -0x2dc(%rbp),%rax
    5d0c:	48 83 c0 08          	add    $0x8,%rax
    5d10:	48 89 85 e8 fe ff ff 	mov    %rax,-0x118(%rbp)
    5d17:	48 c7 85 f0 fe ff ff 	movq   $0x0,-0x110(%rbp)
    5d1e:	00 00 00 00 
    5d22:	48 8d 05 0f e6 00 00 	lea    0xe60f(%rip),%rax        # 14338 <g_183>
    5d29:	48 89 85 f8 fe ff ff 	mov    %rax,-0x108(%rbp)
    5d30:	48 c7 85 00 ff ff ff 	movq   $0x0,-0x100(%rbp)
    5d37:	00 00 00 00 
    5d3b:	48 c7 85 08 ff ff ff 	movq   $0x0,-0xf8(%rbp)
    5d42:	00 00 00 00 
    5d46:	48 c7 85 10 ff ff ff 	movq   $0x0,-0xf0(%rbp)
    5d4d:	00 00 00 00 
    5d51:	48 8d 85 24 fd ff ff 	lea    -0x2dc(%rbp),%rax
    5d58:	48 83 c0 08          	add    $0x8,%rax
    5d5c:	48 89 85 18 ff ff ff 	mov    %rax,-0xe8(%rbp)
    5d63:	48 c7 85 20 ff ff ff 	movq   $0x0,-0xe0(%rbp)
    5d6a:	00 00 00 00 
    5d6e:	48 8d 05 c3 e5 00 00 	lea    0xe5c3(%rip),%rax        # 14338 <g_183>
    5d75:	48 89 85 28 ff ff ff 	mov    %rax,-0xd8(%rbp)
    5d7c:	48 c7 85 30 ff ff ff 	movq   $0x0,-0xd0(%rbp)
    5d83:	00 00 00 00 
    5d87:	48 c7 85 38 ff ff ff 	movq   $0x0,-0xc8(%rbp)
    5d8e:	00 00 00 00 
    5d92:	48 8d 85 84 fc ff ff 	lea    -0x37c(%rbp),%rax
    5d99:	48 89 85 40 ff ff ff 	mov    %rax,-0xc0(%rbp)
    5da0:	48 c7 85 48 ff ff ff 	movq   $0x0,-0xb8(%rbp)
    5da7:	00 00 00 00 
    5dab:	48 8d 85 84 fc ff ff 	lea    -0x37c(%rbp),%rax
    5db2:	48 89 85 50 ff ff ff 	mov    %rax,-0xb0(%rbp)
    5db9:	48 c7 85 58 ff ff ff 	movq   $0x0,-0xa8(%rbp)
    5dc0:	00 00 00 00 
    5dc4:	66 c7 85 7e fc ff ff 	movw   $0xc55c,-0x382(%rbp)
    5dcb:	5c c5 
    5dcd:	0f b7 85 7e fc ff ff 	movzwl -0x382(%rbp),%eax
    5dd4:	83 c0 01             	add    $0x1,%eax
    5dd7:	66 89 85 7e fc ff ff 	mov    %ax,-0x382(%rbp)
    5dde:	48 8b 8d 68 fc ff ff 	mov    -0x398(%rbp),%rcx
    5de5:	48 8b 05 34 83 00 00 	mov    0x8334(%rip),%rax        # e120 <g_1068+0xa0>
    5dec:	48 8b 15 35 83 00 00 	mov    0x8335(%rip),%rdx        # e128 <g_1068+0xa8>
    5df3:	48 89 01             	mov    %rax,(%rcx)
    5df6:	48 89 51 08          	mov    %rdx,0x8(%rcx)
    5dfa:	8b 05 30 83 00 00    	mov    0x8330(%rip),%eax        # e130 <g_1068+0xb0>
    5e00:	89 41 10             	mov    %eax,0x10(%rcx)
    5e03:	48 8b 45 c8          	mov    -0x38(%rbp),%rax
    5e07:	64 48 33 04 25 28 00 	xor    %fs:0x28,%rax
    5e0e:	00 00 
    5e10:	74 05                	je     5e17 <func_37+0xd5b>
    5e12:	e8 59 d2 ff ff       	callq  3070 <__stack_chk_fail@plt>
    5e17:	48 8b 85 68 fc ff ff 	mov    -0x398(%rbp),%rax
    5e1e:	48 81 c4 88 03 00 00 	add    $0x388,%rsp
    5e25:	5b                   	pop    %rbx
    5e26:	41 5c                	pop    %r12
    5e28:	41 5d                	pop    %r13
    5e2a:	41 5e                	pop    %r14
    5e2c:	41 5f                	pop    %r15
    5e2e:	5d                   	pop    %rbp
    5e2f:	c3                   	retq   

0000000000005e30 <func_41>:
    5e30:	f3 0f 1e fa          	endbr64 
    5e34:	55                   	push   %rbp
    5e35:	48 89 e5             	mov    %rsp,%rbp
    5e38:	41 56                	push   %r14
    5e3a:	41 55                	push   %r13
    5e3c:	41 54                	push   %r12
    5e3e:	53                   	push   %rbx
    5e3f:	48 81 ec 00 10 00 00 	sub    $0x1000,%rsp
    5e46:	48 83 0c 24 00       	orq    $0x0,(%rsp)
    5e4b:	48 81 ec e0 04 00 00 	sub    $0x4e0,%rsp
    5e52:	89 bd 0c eb ff ff    	mov    %edi,-0x14f4(%rbp)
    5e58:	48 89 b5 00 eb ff ff 	mov    %rsi,-0x1500(%rbp)
    5e5f:	64 48 8b 04 25 28 00 	mov    %fs:0x28,%rax
    5e66:	00 00 
    5e68:	48 89 45 d8          	mov    %rax,-0x28(%rbp)
    5e6c:	31 c0                	xor    %eax,%eax
    5e6e:	66 c7 85 20 eb ff ff 	movw   $0xd804,-0x14e0(%rbp)
    5e75:	04 d8 
    5e77:	48 c7 85 f0 ec ff ff 	movq   $0x0,-0x1310(%rbp)
    5e7e:	00 00 00 00 
    5e82:	48 c7 85 f8 ec ff ff 	movq   $0x0,-0x1308(%rbp)
    5e89:	00 00 00 00 
    5e8d:	48 c7 85 00 ed ff ff 	movq   $0x0,-0x1300(%rbp)
    5e94:	00 00 00 00 
    5e98:	48 c7 85 08 ed ff ff 	movq   $0x0,-0x12f8(%rbp)
    5e9f:	00 00 00 00 
    5ea3:	c7 85 24 eb ff ff f9 	movl   $0xfffffff9,-0x14dc(%rbp)
    5eaa:	ff ff ff 
    5ead:	48 8d 05 c8 b2 00 00 	lea    0xb2c8(%rip),%rax        # 1117c <g_417+0x7c>
    5eb4:	48 89 85 00 ec ff ff 	mov    %rax,-0x1400(%rbp)
    5ebb:	48 8d 05 96 b1 00 00 	lea    0xb196(%rip),%rax        # 11058 <g_105>
    5ec2:	48 89 85 f8 eb ff ff 	mov    %rax,-0x1408(%rbp)
    5ec9:	48 8d 05 a4 b1 00 00 	lea    0xb1a4(%rip),%rax        # 11074 <g_162>
    5ed0:	48 89 85 a0 eb ff ff 	mov    %rax,-0x1460(%rbp)
    5ed7:	48 8d 05 5a e4 00 00 	lea    0xe45a(%rip),%rax        # 14338 <g_183>
    5ede:	48 89 85 a8 eb ff ff 	mov    %rax,-0x1458(%rbp)
    5ee5:	48 c7 85 f0 eb ff ff 	movq   $0x0,-0x1410(%rbp)
    5eec:	00 00 00 00 
    5ef0:	66 c7 85 1e eb ff ff 	movw   $0x7f44,-0x14e2(%rbp)
    5ef7:	44 7f 
    5ef9:	48 8d 05 70 dd 00 00 	lea    0xdd70(%rip),%rax        # 13c70 <g_337>
    5f00:	48 89 85 d0 eb ff ff 	mov    %rax,-0x1430(%rbp)
    5f07:	66 c7 85 1c eb ff ff 	movw   $0xc9d4,-0x14e4(%rbp)
    5f0e:	d4 c9 
    5f10:	48 c7 85 b0 eb ff ff 	movq   $0x0,-0x1450(%rbp)
    5f17:	00 00 00 00 
    5f1b:	48 8d 85 b0 eb ff ff 	lea    -0x1450(%rbp),%rax
    5f22:	48 89 85 d8 eb ff ff 	mov    %rax,-0x1428(%rbp)
    5f29:	8b 85 90 eb ff ff    	mov    -0x1470(%rbp),%eax
    5f2f:	25 00 00 00 fc       	and    $0xfc000000,%eax
    5f34:	0d e5 11 00 00       	or     $0x11e5,%eax
    5f39:	89 85 90 eb ff ff    	mov    %eax,-0x1470(%rbp)
    5f3f:	48 8d 85 40 ed ff ff 	lea    -0x12c0(%rbp),%rax
    5f46:	48 83 c0 20          	add    $0x20,%rax
    5f4a:	48 89 85 e0 eb ff ff 	mov    %rax,-0x1420(%rbp)
    5f51:	48 8d 05 fe b0 00 00 	lea    0xb0fe(%rip),%rax        # 11056 <g_103>
    5f58:	48 89 85 e8 eb ff ff 	mov    %rax,-0x1418(%rbp)
    5f5f:	c7 85 34 eb ff ff 00 	movl   $0x0,-0x14cc(%rbp)
    5f66:	00 00 00 
    5f69:	eb 1e                	jmp    5f89 <func_41+0x159>
    5f6b:	8b 85 34 eb ff ff    	mov    -0x14cc(%rbp),%eax
    5f71:	48 98                	cltq   
    5f73:	48 8d 15 fa 80 00 00 	lea    0x80fa(%rip),%rdx        # e074 <g_972>
    5f7a:	48 89 94 c5 40 ed ff 	mov    %rdx,-0x12c0(%rbp,%rax,8)
    5f81:	ff 
    5f82:	83 85 34 eb ff ff 01 	addl   $0x1,-0x14cc(%rbp)
    5f89:	83 bd 34 eb ff ff 06 	cmpl   $0x6,-0x14cc(%rbp)
    5f90:	7e d9                	jle    5f6b <func_41+0x13b>
    5f92:	8b 85 0c eb ff ff    	mov    -0x14f4(%rbp),%eax
    5f98:	48 98                	cltq   
    5f9a:	48 89 c7             	mov    %rax,%rdi
    5f9d:	e8 77 e0 ff ff       	callq  4019 <safe_unary_minus_func_uint64_t_u>
    5fa2:	48 8b 15 b7 dc 00 00 	mov    0xdcb7(%rip),%rdx        # 13c60 <g_266>
    5fa9:	0f b7 12             	movzwl (%rdx),%edx
    5fac:	89 c1                	mov    %eax,%ecx
    5fae:	48 8b 05 ab dc 00 00 	mov    0xdcab(%rip),%rax        # 13c60 <g_266>
    5fb5:	31 ca                	xor    %ecx,%edx
    5fb7:	66 89 10             	mov    %dx,(%rax)
    5fba:	0f b7 00             	movzwl (%rax),%eax
    5fbd:	66 0b 85 20 eb ff ff 	or     -0x14e0(%rbp),%ax
    5fc4:	0f b7 d0             	movzwl %ax,%edx
    5fc7:	8b 85 0c eb ff ff    	mov    -0x14f4(%rbp),%eax
    5fcd:	98                   	cwtl   
    5fce:	89 d6                	mov    %edx,%esi
    5fd0:	89 c7                	mov    %eax,%edi
    5fd2:	e8 0a d5 ff ff       	callq  34e1 <safe_lshift_func_int16_t_s_u>
    5fd7:	f7 d0                	not    %eax
    5fd9:	66 c1 e8 0f          	shr    $0xf,%ax
    5fdd:	0f b6 d0             	movzbl %al,%edx
    5fe0:	8b 85 24 eb ff ff    	mov    -0x14dc(%rbp),%eax
    5fe6:	21 d0                	and    %edx,%eax
    5fe8:	89 85 24 eb ff ff    	mov    %eax,-0x14dc(%rbp)
    5fee:	8b 85 24 eb ff ff    	mov    -0x14dc(%rbp),%eax
    5ff4:	85 c0                	test   %eax,%eax
    5ff6:	0f 84 02 01 00 00    	je     60fe <func_41+0x2ce>
    5ffc:	8b 85 0c eb ff ff    	mov    -0x14f4(%rbp),%eax
    6002:	89 c3                	mov    %eax,%ebx
    6004:	8b 85 0c eb ff ff    	mov    -0x14f4(%rbp),%eax
    600a:	41 89 c4             	mov    %eax,%r12d
    600d:	0f b7 95 20 eb ff ff 	movzwl -0x14e0(%rbp),%edx
    6014:	48 8b 0d 71 b0 00 00 	mov    0xb071(%rip),%rcx        # 1108c <g_208+0xc>
    601b:	8b 85 24 eb ff ff    	mov    -0x14dc(%rbp),%eax
    6021:	48 98                	cltq   
    6023:	48 21 c8             	and    %rcx,%rax
    6026:	48 89 05 5f b0 00 00 	mov    %rax,0xb05f(%rip)        # 1108c <g_208+0xc>
    602d:	48 8b 05 58 b0 00 00 	mov    0xb058(%rip),%rax        # 1108c <g_208+0xc>
    6034:	48 89 d6             	mov    %rdx,%rsi
    6037:	48 89 c7             	mov    %rax,%rdi
    603a:	e8 b8 d9 ff ff       	callq  39f7 <safe_div_func_int64_t_s_s>
    603f:	0f be c0             	movsbl %al,%eax
    6042:	be 00 00 00 00       	mov    $0x0,%esi
    6047:	89 c7                	mov    %eax,%edi
    6049:	e8 e7 d2 ff ff       	callq  3335 <safe_rshift_func_int8_t_s_s>
    604e:	48 0f be c0          	movsbq %al,%rax
    6052:	0c b9                	or     $0xb9,%al
    6054:	48 89 c2             	mov    %rax,%rdx
    6057:	48 8b 05 66 b0 00 00 	mov    0xb066(%rip),%rax        # 110c4 <g_311+0x4>
    605e:	48 39 c2             	cmp    %rax,%rdx
    6061:	0f 95 c0             	setne  %al
    6064:	0f b6 d0             	movzbl %al,%edx
    6067:	8b 85 24 eb ff ff    	mov    -0x14dc(%rbp),%eax
    606d:	39 c2                	cmp    %eax,%edx
    606f:	0f 95 c0             	setne  %al
    6072:	0f b6 c0             	movzbl %al,%eax
    6075:	44 89 e6             	mov    %r12d,%esi
    6078:	89 c7                	mov    %eax,%edi
    607a:	e8 a6 de ff ff       	callq  3f25 <safe_div_func_uint32_t_u_u>
    607f:	89 c2                	mov    %eax,%edx
    6081:	48 8b 85 00 ec ff ff 	mov    -0x1400(%rbp),%rax
    6088:	8b 00                	mov    (%rax),%eax
    608a:	8d 70 01             	lea    0x1(%rax),%esi
    608d:	48 8b 8d 00 ec ff ff 	mov    -0x1400(%rbp),%rcx
    6094:	89 31                	mov    %esi,(%rcx)
    6096:	48 8b 8d f8 eb ff ff 	mov    -0x1408(%rbp),%rcx
    609d:	8b 09                	mov    (%rcx),%ecx
    609f:	21 ca                	and    %ecx,%edx
    60a1:	89 d1                	mov    %edx,%ecx
    60a3:	48 8b 95 f8 eb ff ff 	mov    -0x1408(%rbp),%rdx
    60aa:	89 0a                	mov    %ecx,(%rdx)
    60ac:	48 8b 95 f8 eb ff ff 	mov    -0x1408(%rbp),%rdx
    60b3:	8b 12                	mov    (%rdx),%edx
    60b5:	39 d0                	cmp    %edx,%eax
    60b7:	0f 93 c0             	setae  %al
    60ba:	0f b6 d0             	movzbl %al,%edx
    60bd:	8b 85 0c eb ff ff    	mov    -0x14f4(%rbp),%eax
    60c3:	39 c2                	cmp    %eax,%edx
    60c5:	0f 9d c0             	setge  %al
    60c8:	0f b6 d0             	movzbl %al,%edx
    60cb:	8b 05 c3 b0 00 00    	mov    0xb0c3(%rip),%eax        # 11194 <g_498>
    60d1:	39 c2                	cmp    %eax,%edx
    60d3:	0f 9d c0             	setge  %al
    60d6:	0f b6 c0             	movzbl %al,%eax
    60d9:	be 00 00 00 00       	mov    $0x0,%esi
    60de:	48 89 c7             	mov    %rax,%rdi
    60e1:	e8 65 df ff ff       	callq  404b <safe_sub_func_uint64_t_u_u>
    60e6:	89 de                	mov    %ebx,%esi
    60e8:	bf 01 00 00 00       	mov    $0x1,%edi
    60ed:	e8 ef d3 ff ff       	callq  34e1 <safe_lshift_func_int16_t_s_u>
    60f2:	66 85 c0             	test   %ax,%ax
    60f5:	74 07                	je     60fe <func_41+0x2ce>
    60f7:	b9 01 00 00 00       	mov    $0x1,%ecx
    60fc:	eb 05                	jmp    6103 <func_41+0x2d3>
    60fe:	b9 00 00 00 00       	mov    $0x0,%ecx
    6103:	48 8b 85 a0 eb ff ff 	mov    -0x1460(%rbp),%rax
    610a:	0f b6 10             	movzbl (%rax),%edx
    610d:	48 8b 85 a0 eb ff ff 	mov    -0x1460(%rbp),%rax
    6114:	21 ca                	and    %ecx,%edx
    6116:	88 10                	mov    %dl,(%rax)
    6118:	0f b6 00             	movzbl (%rax),%eax
    611b:	84 c0                	test   %al,%al
    611d:	75 0d                	jne    612c <func_41+0x2fc>
    611f:	48 8b 85 f8 eb ff ff 	mov    -0x1408(%rbp),%rax
    6126:	8b 00                	mov    (%rax),%eax
    6128:	85 c0                	test   %eax,%eax
    612a:	74 07                	je     6133 <func_41+0x303>
    612c:	b8 01 00 00 00       	mov    $0x1,%eax
    6131:	eb 05                	jmp    6138 <func_41+0x308>
    6133:	b8 00 00 00 00       	mov    $0x0,%eax
    6138:	89 c2                	mov    %eax,%edx
    613a:	8b 05 58 b0 00 00    	mov    0xb058(%rip),%eax        # 11198 <g_586>
    6140:	39 c2                	cmp    %eax,%edx
    6142:	0f 96 c0             	setbe  %al
    6145:	0f b6 d0             	movzbl %al,%edx
    6148:	8b 85 0c eb ff ff    	mov    -0x14f4(%rbp),%eax
    614e:	89 d1                	mov    %edx,%ecx
    6150:	09 c1                	or     %eax,%ecx
    6152:	48 8b 85 a8 eb ff ff 	mov    -0x1458(%rbp),%rax
    6159:	8b 10                	mov    (%rax),%edx
    615b:	48 8b 85 a8 eb ff ff 	mov    -0x1458(%rbp),%rax
    6162:	31 ca                	xor    %ecx,%edx
    6164:	89 10                	mov    %edx,(%rax)
    6166:	c7 05 28 b0 00 00 00 	movl   $0x0,0xb028(%rip)        # 11198 <g_586>
    616d:	00 00 00 
    6170:	90                   	nop
    6171:	8b 05 21 b0 00 00    	mov    0xb021(%rip),%eax        # 11198 <g_586>
    6177:	83 f8 03             	cmp    $0x3,%eax
    617a:	0f 87 50 2b 00 00    	ja     8cd0 <func_41+0x2ea0>
    6180:	48 8d 05 d1 da 00 00 	lea    0xdad1(%rip),%rax        # 13c58 <g_168>
    6187:	48 89 85 b8 eb ff ff 	mov    %rax,-0x1448(%rbp)
    618e:	48 8d 85 b8 eb ff ff 	lea    -0x1448(%rbp),%rax
    6195:	48 89 85 50 f8 ff ff 	mov    %rax,-0x7b0(%rbp)
    619c:	48 8d 85 b8 eb ff ff 	lea    -0x1448(%rbp),%rax
    61a3:	48 89 85 58 f8 ff ff 	mov    %rax,-0x7a8(%rbp)
    61aa:	48 8d 85 b8 eb ff ff 	lea    -0x1448(%rbp),%rax
    61b1:	48 89 85 60 f8 ff ff 	mov    %rax,-0x7a0(%rbp)
    61b8:	48 8d 85 b8 eb ff ff 	lea    -0x1448(%rbp),%rax
    61bf:	48 89 85 68 f8 ff ff 	mov    %rax,-0x798(%rbp)
    61c6:	48 8d 85 b8 eb ff ff 	lea    -0x1448(%rbp),%rax
    61cd:	48 89 85 70 f8 ff ff 	mov    %rax,-0x790(%rbp)
    61d4:	48 8d 85 b8 eb ff ff 	lea    -0x1448(%rbp),%rax
    61db:	48 89 85 78 f8 ff ff 	mov    %rax,-0x788(%rbp)
    61e2:	48 8d 85 b8 eb ff ff 	lea    -0x1448(%rbp),%rax
    61e9:	48 89 85 80 f8 ff ff 	mov    %rax,-0x780(%rbp)
    61f0:	48 8d 85 b8 eb ff ff 	lea    -0x1448(%rbp),%rax
    61f7:	48 89 85 88 f8 ff ff 	mov    %rax,-0x778(%rbp)
    61fe:	48 c7 85 90 f8 ff ff 	movq   $0x0,-0x770(%rbp)
    6205:	00 00 00 00 
    6209:	48 8d 85 b8 eb ff ff 	lea    -0x1448(%rbp),%rax
    6210:	48 89 85 98 f8 ff ff 	mov    %rax,-0x768(%rbp)
    6217:	48 8d 85 b8 eb ff ff 	lea    -0x1448(%rbp),%rax
    621e:	48 89 85 a0 f8 ff ff 	mov    %rax,-0x760(%rbp)
    6225:	48 c7 85 a8 f8 ff ff 	movq   $0x0,-0x758(%rbp)
    622c:	00 00 00 00 
    6230:	48 8d 85 b8 eb ff ff 	lea    -0x1448(%rbp),%rax
    6237:	48 89 85 b0 f8 ff ff 	mov    %rax,-0x750(%rbp)
    623e:	48 8d 85 b8 eb ff ff 	lea    -0x1448(%rbp),%rax
    6245:	48 89 85 b8 f8 ff ff 	mov    %rax,-0x748(%rbp)
    624c:	48 8d 85 b8 eb ff ff 	lea    -0x1448(%rbp),%rax
    6253:	48 89 85 c0 f8 ff ff 	mov    %rax,-0x740(%rbp)
    625a:	48 8d 85 b8 eb ff ff 	lea    -0x1448(%rbp),%rax
    6261:	48 89 85 c8 f8 ff ff 	mov    %rax,-0x738(%rbp)
    6268:	48 c7 85 d0 f8 ff ff 	movq   $0x0,-0x730(%rbp)
    626f:	00 00 00 00 
    6273:	48 8d 85 b8 eb ff ff 	lea    -0x1448(%rbp),%rax
    627a:	48 89 85 d8 f8 ff ff 	mov    %rax,-0x728(%rbp)
    6281:	48 8d 85 b8 eb ff ff 	lea    -0x1448(%rbp),%rax
    6288:	48 89 85 e0 f8 ff ff 	mov    %rax,-0x720(%rbp)
    628f:	48 8d 85 b8 eb ff ff 	lea    -0x1448(%rbp),%rax
    6296:	48 89 85 e8 f8 ff ff 	mov    %rax,-0x718(%rbp)
    629d:	48 8d 85 b8 eb ff ff 	lea    -0x1448(%rbp),%rax
    62a4:	48 89 85 f0 f8 ff ff 	mov    %rax,-0x710(%rbp)
    62ab:	48 c7 85 f8 f8 ff ff 	movq   $0x0,-0x708(%rbp)
    62b2:	00 00 00 00 
    62b6:	48 8d 85 b8 eb ff ff 	lea    -0x1448(%rbp),%rax
    62bd:	48 89 85 00 f9 ff ff 	mov    %rax,-0x700(%rbp)
    62c4:	48 8d 85 b8 eb ff ff 	lea    -0x1448(%rbp),%rax
    62cb:	48 89 85 08 f9 ff ff 	mov    %rax,-0x6f8(%rbp)
    62d2:	48 8d 85 b8 eb ff ff 	lea    -0x1448(%rbp),%rax
    62d9:	48 89 85 10 f9 ff ff 	mov    %rax,-0x6f0(%rbp)
    62e0:	48 8d 85 b8 eb ff ff 	lea    -0x1448(%rbp),%rax
    62e7:	48 89 85 18 f9 ff ff 	mov    %rax,-0x6e8(%rbp)
    62ee:	48 8d 85 b8 eb ff ff 	lea    -0x1448(%rbp),%rax
    62f5:	48 89 85 20 f9 ff ff 	mov    %rax,-0x6e0(%rbp)
    62fc:	48 8d 85 b8 eb ff ff 	lea    -0x1448(%rbp),%rax
    6303:	48 89 85 28 f9 ff ff 	mov    %rax,-0x6d8(%rbp)
    630a:	48 8d 85 b8 eb ff ff 	lea    -0x1448(%rbp),%rax
    6311:	48 89 85 30 f9 ff ff 	mov    %rax,-0x6d0(%rbp)
    6318:	48 8d 85 b8 eb ff ff 	lea    -0x1448(%rbp),%rax
    631f:	48 89 85 38 f9 ff ff 	mov    %rax,-0x6c8(%rbp)
    6326:	48 8d 85 b8 eb ff ff 	lea    -0x1448(%rbp),%rax
    632d:	48 89 85 40 f9 ff ff 	mov    %rax,-0x6c0(%rbp)
    6334:	48 8d 85 b8 eb ff ff 	lea    -0x1448(%rbp),%rax
    633b:	48 89 85 48 f9 ff ff 	mov    %rax,-0x6b8(%rbp)
    6342:	48 c7 85 50 f9 ff ff 	movq   $0x0,-0x6b0(%rbp)
    6349:	00 00 00 00 
    634d:	48 8d 85 b8 eb ff ff 	lea    -0x1448(%rbp),%rax
    6354:	48 89 85 58 f9 ff ff 	mov    %rax,-0x6a8(%rbp)
    635b:	48 c7 85 60 f9 ff ff 	movq   $0x0,-0x6a0(%rbp)
    6362:	00 00 00 00 
    6366:	48 c7 85 68 f9 ff ff 	movq   $0x0,-0x698(%rbp)
    636d:	00 00 00 00 
    6371:	48 c7 85 70 f9 ff ff 	movq   $0x0,-0x690(%rbp)
    6378:	00 00 00 00 
    637c:	48 8d 85 b8 eb ff ff 	lea    -0x1448(%rbp),%rax
    6383:	48 89 85 78 f9 ff ff 	mov    %rax,-0x688(%rbp)
    638a:	48 8d 85 b8 eb ff ff 	lea    -0x1448(%rbp),%rax
    6391:	48 89 85 80 f9 ff ff 	mov    %rax,-0x680(%rbp)
    6398:	48 c7 85 88 f9 ff ff 	movq   $0x0,-0x678(%rbp)
    639f:	00 00 00 00 
    63a3:	48 8d 85 b8 eb ff ff 	lea    -0x1448(%rbp),%rax
    63aa:	48 89 85 90 f9 ff ff 	mov    %rax,-0x670(%rbp)
    63b1:	48 8d 85 b8 eb ff ff 	lea    -0x1448(%rbp),%rax
    63b8:	48 89 85 98 f9 ff ff 	mov    %rax,-0x668(%rbp)
    63bf:	48 8d 85 b8 eb ff ff 	lea    -0x1448(%rbp),%rax
    63c6:	48 89 85 a0 f9 ff ff 	mov    %rax,-0x660(%rbp)
    63cd:	48 8d 85 b8 eb ff ff 	lea    -0x1448(%rbp),%rax
    63d4:	48 89 85 a8 f9 ff ff 	mov    %rax,-0x658(%rbp)
    63db:	48 8d 85 b8 eb ff ff 	lea    -0x1448(%rbp),%rax
    63e2:	48 89 85 b0 f9 ff ff 	mov    %rax,-0x650(%rbp)
    63e9:	48 8d 85 b8 eb ff ff 	lea    -0x1448(%rbp),%rax
    63f0:	48 89 85 b8 f9 ff ff 	mov    %rax,-0x648(%rbp)
    63f7:	48 8d 85 b8 eb ff ff 	lea    -0x1448(%rbp),%rax
    63fe:	48 89 85 c0 f9 ff ff 	mov    %rax,-0x640(%rbp)
    6405:	48 8d 85 b8 eb ff ff 	lea    -0x1448(%rbp),%rax
    640c:	48 89 85 c8 f9 ff ff 	mov    %rax,-0x638(%rbp)
    6413:	48 8d 85 b8 eb ff ff 	lea    -0x1448(%rbp),%rax
    641a:	48 89 85 d0 f9 ff ff 	mov    %rax,-0x630(%rbp)
    6421:	48 8d 85 b8 eb ff ff 	lea    -0x1448(%rbp),%rax
    6428:	48 89 85 d8 f9 ff ff 	mov    %rax,-0x628(%rbp)
    642f:	48 8d 85 b8 eb ff ff 	lea    -0x1448(%rbp),%rax
    6436:	48 89 85 e0 f9 ff ff 	mov    %rax,-0x620(%rbp)
    643d:	48 8d 85 b8 eb ff ff 	lea    -0x1448(%rbp),%rax
    6444:	48 89 85 e8 f9 ff ff 	mov    %rax,-0x618(%rbp)
    644b:	48 8d 85 b8 eb ff ff 	lea    -0x1448(%rbp),%rax
    6452:	48 89 85 f0 f9 ff ff 	mov    %rax,-0x610(%rbp)
    6459:	48 8d 85 b8 eb ff ff 	lea    -0x1448(%rbp),%rax
    6460:	48 89 85 f8 f9 ff ff 	mov    %rax,-0x608(%rbp)
    6467:	48 c7 85 00 fa ff ff 	movq   $0x0,-0x600(%rbp)
    646e:	00 00 00 00 
    6472:	48 8d 85 b8 eb ff ff 	lea    -0x1448(%rbp),%rax
    6479:	48 89 85 08 fa ff ff 	mov    %rax,-0x5f8(%rbp)
    6480:	48 c7 85 10 fa ff ff 	movq   $0x0,-0x5f0(%rbp)
    6487:	00 00 00 00 
    648b:	48 8d 85 b8 eb ff ff 	lea    -0x1448(%rbp),%rax
    6492:	48 89 85 18 fa ff ff 	mov    %rax,-0x5e8(%rbp)
    6499:	48 8d 85 b8 eb ff ff 	lea    -0x1448(%rbp),%rax
    64a0:	48 89 85 20 fa ff ff 	mov    %rax,-0x5e0(%rbp)
    64a7:	48 8d 85 b8 eb ff ff 	lea    -0x1448(%rbp),%rax
    64ae:	48 89 85 28 fa ff ff 	mov    %rax,-0x5d8(%rbp)
    64b5:	48 8d 85 b8 eb ff ff 	lea    -0x1448(%rbp),%rax
    64bc:	48 89 85 30 fa ff ff 	mov    %rax,-0x5d0(%rbp)
    64c3:	48 8d 85 b8 eb ff ff 	lea    -0x1448(%rbp),%rax
    64ca:	48 89 85 38 fa ff ff 	mov    %rax,-0x5c8(%rbp)
    64d1:	48 8d 85 b8 eb ff ff 	lea    -0x1448(%rbp),%rax
    64d8:	48 89 85 40 fa ff ff 	mov    %rax,-0x5c0(%rbp)
    64df:	48 8d 85 b8 eb ff ff 	lea    -0x1448(%rbp),%rax
    64e6:	48 89 85 48 fa ff ff 	mov    %rax,-0x5b8(%rbp)
    64ed:	48 8d 85 b8 eb ff ff 	lea    -0x1448(%rbp),%rax
    64f4:	48 89 85 50 fa ff ff 	mov    %rax,-0x5b0(%rbp)
    64fb:	48 8d 85 b8 eb ff ff 	lea    -0x1448(%rbp),%rax
    6502:	48 89 85 58 fa ff ff 	mov    %rax,-0x5a8(%rbp)
    6509:	48 8d 85 b8 eb ff ff 	lea    -0x1448(%rbp),%rax
    6510:	48 89 85 60 fa ff ff 	mov    %rax,-0x5a0(%rbp)
    6517:	48 8d 85 b8 eb ff ff 	lea    -0x1448(%rbp),%rax
    651e:	48 89 85 68 fa ff ff 	mov    %rax,-0x598(%rbp)
    6525:	48 8d 85 b8 eb ff ff 	lea    -0x1448(%rbp),%rax
    652c:	48 89 85 70 fa ff ff 	mov    %rax,-0x590(%rbp)
    6533:	48 8d 85 b8 eb ff ff 	lea    -0x1448(%rbp),%rax
    653a:	48 89 85 78 fa ff ff 	mov    %rax,-0x588(%rbp)
    6541:	48 8d 85 b8 eb ff ff 	lea    -0x1448(%rbp),%rax
    6548:	48 89 85 80 fa ff ff 	mov    %rax,-0x580(%rbp)
    654f:	48 c7 85 88 fa ff ff 	movq   $0x0,-0x578(%rbp)
    6556:	00 00 00 00 
    655a:	48 8d 85 b8 eb ff ff 	lea    -0x1448(%rbp),%rax
    6561:	48 89 85 90 fa ff ff 	mov    %rax,-0x570(%rbp)
    6568:	48 8d 85 b8 eb ff ff 	lea    -0x1448(%rbp),%rax
    656f:	48 89 85 98 fa ff ff 	mov    %rax,-0x568(%rbp)
    6576:	48 8d 85 b8 eb ff ff 	lea    -0x1448(%rbp),%rax
    657d:	48 89 85 a0 fa ff ff 	mov    %rax,-0x560(%rbp)
    6584:	48 8d 85 b8 eb ff ff 	lea    -0x1448(%rbp),%rax
    658b:	48 89 85 a8 fa ff ff 	mov    %rax,-0x558(%rbp)
    6592:	48 8d 85 b8 eb ff ff 	lea    -0x1448(%rbp),%rax
    6599:	48 89 85 b0 fa ff ff 	mov    %rax,-0x550(%rbp)
    65a0:	48 8d 85 b8 eb ff ff 	lea    -0x1448(%rbp),%rax
    65a7:	48 89 85 b8 fa ff ff 	mov    %rax,-0x548(%rbp)
    65ae:	48 8d 85 b8 eb ff ff 	lea    -0x1448(%rbp),%rax
    65b5:	48 89 85 c0 fa ff ff 	mov    %rax,-0x540(%rbp)
    65bc:	48 8d 85 b8 eb ff ff 	lea    -0x1448(%rbp),%rax
    65c3:	48 89 85 c8 fa ff ff 	mov    %rax,-0x538(%rbp)
    65ca:	48 8d 85 b8 eb ff ff 	lea    -0x1448(%rbp),%rax
    65d1:	48 89 85 d0 fa ff ff 	mov    %rax,-0x530(%rbp)
    65d8:	48 8d 85 b8 eb ff ff 	lea    -0x1448(%rbp),%rax
    65df:	48 89 85 d8 fa ff ff 	mov    %rax,-0x528(%rbp)
    65e6:	48 8d 85 b8 eb ff ff 	lea    -0x1448(%rbp),%rax
    65ed:	48 89 85 e0 fa ff ff 	mov    %rax,-0x520(%rbp)
    65f4:	48 8d 85 b8 eb ff ff 	lea    -0x1448(%rbp),%rax
    65fb:	48 89 85 e8 fa ff ff 	mov    %rax,-0x518(%rbp)
    6602:	48 8d 85 b8 eb ff ff 	lea    -0x1448(%rbp),%rax
    6609:	48 89 85 f0 fa ff ff 	mov    %rax,-0x510(%rbp)
    6610:	48 8d 85 b8 eb ff ff 	lea    -0x1448(%rbp),%rax
    6617:	48 89 85 f8 fa ff ff 	mov    %rax,-0x508(%rbp)
    661e:	48 c7 85 00 fb ff ff 	movq   $0x0,-0x500(%rbp)
    6625:	00 00 00 00 
    6629:	48 8d 85 b8 eb ff ff 	lea    -0x1448(%rbp),%rax
    6630:	48 89 85 08 fb ff ff 	mov    %rax,-0x4f8(%rbp)
    6637:	48 8d 85 b8 eb ff ff 	lea    -0x1448(%rbp),%rax
    663e:	48 89 85 10 fb ff ff 	mov    %rax,-0x4f0(%rbp)
    6645:	48 8d 85 b8 eb ff ff 	lea    -0x1448(%rbp),%rax
    664c:	48 89 85 18 fb ff ff 	mov    %rax,-0x4e8(%rbp)
    6653:	48 8d 85 b8 eb ff ff 	lea    -0x1448(%rbp),%rax
    665a:	48 89 85 20 fb ff ff 	mov    %rax,-0x4e0(%rbp)
    6661:	48 8d 85 b8 eb ff ff 	lea    -0x1448(%rbp),%rax
    6668:	48 89 85 28 fb ff ff 	mov    %rax,-0x4d8(%rbp)
    666f:	48 8d 85 b8 eb ff ff 	lea    -0x1448(%rbp),%rax
    6676:	48 89 85 30 fb ff ff 	mov    %rax,-0x4d0(%rbp)
    667d:	48 8d 85 b8 eb ff ff 	lea    -0x1448(%rbp),%rax
    6684:	48 89 85 38 fb ff ff 	mov    %rax,-0x4c8(%rbp)
    668b:	48 8d 85 b8 eb ff ff 	lea    -0x1448(%rbp),%rax
    6692:	48 89 85 40 fb ff ff 	mov    %rax,-0x4c0(%rbp)
    6699:	48 c7 85 48 fb ff ff 	movq   $0x0,-0x4b8(%rbp)
    66a0:	00 00 00 00 
    66a4:	48 8d 85 b8 eb ff ff 	lea    -0x1448(%rbp),%rax
    66ab:	48 89 85 50 fb ff ff 	mov    %rax,-0x4b0(%rbp)
    66b2:	48 8d 85 b8 eb ff ff 	lea    -0x1448(%rbp),%rax
    66b9:	48 89 85 58 fb ff ff 	mov    %rax,-0x4a8(%rbp)
    66c0:	48 8d 85 b8 eb ff ff 	lea    -0x1448(%rbp),%rax
    66c7:	48 89 85 60 fb ff ff 	mov    %rax,-0x4a0(%rbp)
    66ce:	48 8d 85 b8 eb ff ff 	lea    -0x1448(%rbp),%rax
    66d5:	48 89 85 68 fb ff ff 	mov    %rax,-0x498(%rbp)
    66dc:	48 8d 85 b8 eb ff ff 	lea    -0x1448(%rbp),%rax
    66e3:	48 89 85 70 fb ff ff 	mov    %rax,-0x490(%rbp)
    66ea:	48 8d 85 b8 eb ff ff 	lea    -0x1448(%rbp),%rax
    66f1:	48 89 85 78 fb ff ff 	mov    %rax,-0x488(%rbp)
    66f8:	48 8d 85 b8 eb ff ff 	lea    -0x1448(%rbp),%rax
    66ff:	48 89 85 80 fb ff ff 	mov    %rax,-0x480(%rbp)
    6706:	48 8d 85 b8 eb ff ff 	lea    -0x1448(%rbp),%rax
    670d:	48 89 85 88 fb ff ff 	mov    %rax,-0x478(%rbp)
    6714:	48 8d 85 b8 eb ff ff 	lea    -0x1448(%rbp),%rax
    671b:	48 89 85 90 fb ff ff 	mov    %rax,-0x470(%rbp)
    6722:	48 8d 85 b8 eb ff ff 	lea    -0x1448(%rbp),%rax
    6729:	48 89 85 98 fb ff ff 	mov    %rax,-0x468(%rbp)
    6730:	48 8d 85 b8 eb ff ff 	lea    -0x1448(%rbp),%rax
    6737:	48 89 85 a0 fb ff ff 	mov    %rax,-0x460(%rbp)
    673e:	48 c7 85 a8 fb ff ff 	movq   $0x0,-0x458(%rbp)
    6745:	00 00 00 00 
    6749:	48 8d 85 b8 eb ff ff 	lea    -0x1448(%rbp),%rax
    6750:	48 89 85 b0 fb ff ff 	mov    %rax,-0x450(%rbp)
    6757:	48 c7 85 b8 fb ff ff 	movq   $0x0,-0x448(%rbp)
    675e:	00 00 00 00 
    6762:	48 8d 85 b8 eb ff ff 	lea    -0x1448(%rbp),%rax
    6769:	48 89 85 c0 fb ff ff 	mov    %rax,-0x440(%rbp)
    6770:	48 8d 85 b8 eb ff ff 	lea    -0x1448(%rbp),%rax
    6777:	48 89 85 c8 fb ff ff 	mov    %rax,-0x438(%rbp)
    677e:	48 8d 85 b8 eb ff ff 	lea    -0x1448(%rbp),%rax
    6785:	48 89 85 d0 fb ff ff 	mov    %rax,-0x430(%rbp)
    678c:	48 8d 85 b8 eb ff ff 	lea    -0x1448(%rbp),%rax
    6793:	48 89 85 d8 fb ff ff 	mov    %rax,-0x428(%rbp)
    679a:	48 8d 85 b8 eb ff ff 	lea    -0x1448(%rbp),%rax
    67a1:	48 89 85 e0 fb ff ff 	mov    %rax,-0x420(%rbp)
    67a8:	48 8d 85 b8 eb ff ff 	lea    -0x1448(%rbp),%rax
    67af:	48 89 85 e8 fb ff ff 	mov    %rax,-0x418(%rbp)
    67b6:	48 8d 85 b8 eb ff ff 	lea    -0x1448(%rbp),%rax
    67bd:	48 89 85 f0 fb ff ff 	mov    %rax,-0x410(%rbp)
    67c4:	48 8d 85 b8 eb ff ff 	lea    -0x1448(%rbp),%rax
    67cb:	48 89 85 f8 fb ff ff 	mov    %rax,-0x408(%rbp)
    67d2:	48 8d 85 b8 eb ff ff 	lea    -0x1448(%rbp),%rax
    67d9:	48 89 85 00 fc ff ff 	mov    %rax,-0x400(%rbp)
    67e0:	48 8d 85 b8 eb ff ff 	lea    -0x1448(%rbp),%rax
    67e7:	48 89 85 08 fc ff ff 	mov    %rax,-0x3f8(%rbp)
    67ee:	48 8d 85 b8 eb ff ff 	lea    -0x1448(%rbp),%rax
    67f5:	48 89 85 10 fc ff ff 	mov    %rax,-0x3f0(%rbp)
    67fc:	48 8d 85 b8 eb ff ff 	lea    -0x1448(%rbp),%rax
    6803:	48 89 85 18 fc ff ff 	mov    %rax,-0x3e8(%rbp)
    680a:	48 8d 85 b8 eb ff ff 	lea    -0x1448(%rbp),%rax
    6811:	48 89 85 20 fc ff ff 	mov    %rax,-0x3e0(%rbp)
    6818:	48 8d 85 b8 eb ff ff 	lea    -0x1448(%rbp),%rax
    681f:	48 89 85 28 fc ff ff 	mov    %rax,-0x3d8(%rbp)
    6826:	48 c7 85 30 fc ff ff 	movq   $0x0,-0x3d0(%rbp)
    682d:	00 00 00 00 
    6831:	48 8d 85 b8 eb ff ff 	lea    -0x1448(%rbp),%rax
    6838:	48 89 85 38 fc ff ff 	mov    %rax,-0x3c8(%rbp)
    683f:	48 8d 85 b8 eb ff ff 	lea    -0x1448(%rbp),%rax
    6846:	48 89 85 40 fc ff ff 	mov    %rax,-0x3c0(%rbp)
    684d:	48 8d 85 b8 eb ff ff 	lea    -0x1448(%rbp),%rax
    6854:	48 89 85 48 fc ff ff 	mov    %rax,-0x3b8(%rbp)
    685b:	48 8d 85 b8 eb ff ff 	lea    -0x1448(%rbp),%rax
    6862:	48 89 85 50 fc ff ff 	mov    %rax,-0x3b0(%rbp)
    6869:	48 8d 85 b8 eb ff ff 	lea    -0x1448(%rbp),%rax
    6870:	48 89 85 58 fc ff ff 	mov    %rax,-0x3a8(%rbp)
    6877:	48 8d 85 b8 eb ff ff 	lea    -0x1448(%rbp),%rax
    687e:	48 89 85 60 fc ff ff 	mov    %rax,-0x3a0(%rbp)
    6885:	48 8d 85 b8 eb ff ff 	lea    -0x1448(%rbp),%rax
    688c:	48 89 85 68 fc ff ff 	mov    %rax,-0x398(%rbp)
    6893:	48 8d 85 b8 eb ff ff 	lea    -0x1448(%rbp),%rax
    689a:	48 89 85 70 fc ff ff 	mov    %rax,-0x390(%rbp)
    68a1:	48 8d 85 b8 eb ff ff 	lea    -0x1448(%rbp),%rax
    68a8:	48 89 85 78 fc ff ff 	mov    %rax,-0x388(%rbp)
    68af:	48 8d 85 b8 eb ff ff 	lea    -0x1448(%rbp),%rax
    68b6:	48 89 85 80 fc ff ff 	mov    %rax,-0x380(%rbp)
    68bd:	48 8d 85 b8 eb ff ff 	lea    -0x1448(%rbp),%rax
    68c4:	48 89 85 88 fc ff ff 	mov    %rax,-0x378(%rbp)
    68cb:	48 8d 85 b8 eb ff ff 	lea    -0x1448(%rbp),%rax
    68d2:	48 89 85 90 fc ff ff 	mov    %rax,-0x370(%rbp)
    68d9:	48 8d 85 b8 eb ff ff 	lea    -0x1448(%rbp),%rax
    68e0:	48 89 85 98 fc ff ff 	mov    %rax,-0x368(%rbp)
    68e7:	48 8d 85 b8 eb ff ff 	lea    -0x1448(%rbp),%rax
    68ee:	48 89 85 a0 fc ff ff 	mov    %rax,-0x360(%rbp)
    68f5:	48 8d 85 b8 eb ff ff 	lea    -0x1448(%rbp),%rax
    68fc:	48 89 85 a8 fc ff ff 	mov    %rax,-0x358(%rbp)
    6903:	48 8d 85 b8 eb ff ff 	lea    -0x1448(%rbp),%rax
    690a:	48 89 85 b0 fc ff ff 	mov    %rax,-0x350(%rbp)
    6911:	48 8d 85 b8 eb ff ff 	lea    -0x1448(%rbp),%rax
    6918:	48 89 85 b8 fc ff ff 	mov    %rax,-0x348(%rbp)
    691f:	48 8d 85 b8 eb ff ff 	lea    -0x1448(%rbp),%rax
    6926:	48 89 85 c0 fc ff ff 	mov    %rax,-0x340(%rbp)
    692d:	48 8d 85 b8 eb ff ff 	lea    -0x1448(%rbp),%rax
    6934:	48 89 85 c8 fc ff ff 	mov    %rax,-0x338(%rbp)
    693b:	48 8d 85 b8 eb ff ff 	lea    -0x1448(%rbp),%rax
    6942:	48 89 85 d0 fc ff ff 	mov    %rax,-0x330(%rbp)
    6949:	48 8d 85 b8 eb ff ff 	lea    -0x1448(%rbp),%rax
    6950:	48 89 85 d8 fc ff ff 	mov    %rax,-0x328(%rbp)
    6957:	48 8d 85 b8 eb ff ff 	lea    -0x1448(%rbp),%rax
    695e:	48 89 85 e0 fc ff ff 	mov    %rax,-0x320(%rbp)
    6965:	48 8d 85 b8 eb ff ff 	lea    -0x1448(%rbp),%rax
    696c:	48 89 85 e8 fc ff ff 	mov    %rax,-0x318(%rbp)
    6973:	48 8d 85 b8 eb ff ff 	lea    -0x1448(%rbp),%rax
    697a:	48 89 85 f0 fc ff ff 	mov    %rax,-0x310(%rbp)
    6981:	48 8d 85 b8 eb ff ff 	lea    -0x1448(%rbp),%rax
    6988:	48 89 85 f8 fc ff ff 	mov    %rax,-0x308(%rbp)
    698f:	48 8d 85 b8 eb ff ff 	lea    -0x1448(%rbp),%rax
    6996:	48 89 85 00 fd ff ff 	mov    %rax,-0x300(%rbp)
    699d:	48 8d 85 b8 eb ff ff 	lea    -0x1448(%rbp),%rax
    69a4:	48 89 85 08 fd ff ff 	mov    %rax,-0x2f8(%rbp)
    69ab:	48 8d 85 b8 eb ff ff 	lea    -0x1448(%rbp),%rax
    69b2:	48 89 85 10 fd ff ff 	mov    %rax,-0x2f0(%rbp)
    69b9:	48 8d 85 b8 eb ff ff 	lea    -0x1448(%rbp),%rax
    69c0:	48 89 85 18 fd ff ff 	mov    %rax,-0x2e8(%rbp)
    69c7:	48 8d 85 b8 eb ff ff 	lea    -0x1448(%rbp),%rax
    69ce:	48 89 85 20 fd ff ff 	mov    %rax,-0x2e0(%rbp)
    69d5:	48 8d 85 b8 eb ff ff 	lea    -0x1448(%rbp),%rax
    69dc:	48 89 85 28 fd ff ff 	mov    %rax,-0x2d8(%rbp)
    69e3:	48 8d 85 b8 eb ff ff 	lea    -0x1448(%rbp),%rax
    69ea:	48 89 85 30 fd ff ff 	mov    %rax,-0x2d0(%rbp)
    69f1:	48 c7 85 38 fd ff ff 	movq   $0x0,-0x2c8(%rbp)
    69f8:	00 00 00 00 
    69fc:	48 8d 85 b8 eb ff ff 	lea    -0x1448(%rbp),%rax
    6a03:	48 89 85 40 fd ff ff 	mov    %rax,-0x2c0(%rbp)
    6a0a:	48 8d 85 b8 eb ff ff 	lea    -0x1448(%rbp),%rax
    6a11:	48 89 85 48 fd ff ff 	mov    %rax,-0x2b8(%rbp)
    6a18:	48 8d 85 b8 eb ff ff 	lea    -0x1448(%rbp),%rax
    6a1f:	48 89 85 50 fd ff ff 	mov    %rax,-0x2b0(%rbp)
    6a26:	48 8d 85 b8 eb ff ff 	lea    -0x1448(%rbp),%rax
    6a2d:	48 89 85 58 fd ff ff 	mov    %rax,-0x2a8(%rbp)
    6a34:	48 8d 85 b8 eb ff ff 	lea    -0x1448(%rbp),%rax
    6a3b:	48 89 85 60 fd ff ff 	mov    %rax,-0x2a0(%rbp)
    6a42:	48 8d 85 b8 eb ff ff 	lea    -0x1448(%rbp),%rax
    6a49:	48 89 85 68 fd ff ff 	mov    %rax,-0x298(%rbp)
    6a50:	48 8d 85 b8 eb ff ff 	lea    -0x1448(%rbp),%rax
    6a57:	48 89 85 70 fd ff ff 	mov    %rax,-0x290(%rbp)
    6a5e:	48 8d 85 b8 eb ff ff 	lea    -0x1448(%rbp),%rax
    6a65:	48 89 85 78 fd ff ff 	mov    %rax,-0x288(%rbp)
    6a6c:	48 8d 85 b8 eb ff ff 	lea    -0x1448(%rbp),%rax
    6a73:	48 89 85 80 fd ff ff 	mov    %rax,-0x280(%rbp)
    6a7a:	48 8d 85 b8 eb ff ff 	lea    -0x1448(%rbp),%rax
    6a81:	48 89 85 88 fd ff ff 	mov    %rax,-0x278(%rbp)
    6a88:	48 8d 85 b8 eb ff ff 	lea    -0x1448(%rbp),%rax
    6a8f:	48 89 85 90 fd ff ff 	mov    %rax,-0x270(%rbp)
    6a96:	48 8d 85 b8 eb ff ff 	lea    -0x1448(%rbp),%rax
    6a9d:	48 89 85 98 fd ff ff 	mov    %rax,-0x268(%rbp)
    6aa4:	48 8d 85 b8 eb ff ff 	lea    -0x1448(%rbp),%rax
    6aab:	48 89 85 a0 fd ff ff 	mov    %rax,-0x260(%rbp)
    6ab2:	48 8d 85 b8 eb ff ff 	lea    -0x1448(%rbp),%rax
    6ab9:	48 89 85 a8 fd ff ff 	mov    %rax,-0x258(%rbp)
    6ac0:	48 8d 85 b8 eb ff ff 	lea    -0x1448(%rbp),%rax
    6ac7:	48 89 85 b0 fd ff ff 	mov    %rax,-0x250(%rbp)
    6ace:	48 8d 85 b8 eb ff ff 	lea    -0x1448(%rbp),%rax
    6ad5:	48 89 85 b8 fd ff ff 	mov    %rax,-0x248(%rbp)
    6adc:	48 8d 85 b8 eb ff ff 	lea    -0x1448(%rbp),%rax
    6ae3:	48 89 85 c0 fd ff ff 	mov    %rax,-0x240(%rbp)
    6aea:	48 8d 85 b8 eb ff ff 	lea    -0x1448(%rbp),%rax
    6af1:	48 89 85 c8 fd ff ff 	mov    %rax,-0x238(%rbp)
    6af8:	48 8d 85 b8 eb ff ff 	lea    -0x1448(%rbp),%rax
    6aff:	48 89 85 d0 fd ff ff 	mov    %rax,-0x230(%rbp)
    6b06:	48 8d 85 b8 eb ff ff 	lea    -0x1448(%rbp),%rax
    6b0d:	48 89 85 d8 fd ff ff 	mov    %rax,-0x228(%rbp)
    6b14:	48 8d 85 b8 eb ff ff 	lea    -0x1448(%rbp),%rax
    6b1b:	48 89 85 e0 fd ff ff 	mov    %rax,-0x220(%rbp)
    6b22:	48 c7 85 e8 fd ff ff 	movq   $0x0,-0x218(%rbp)
    6b29:	00 00 00 00 
    6b2d:	48 8d 85 b8 eb ff ff 	lea    -0x1448(%rbp),%rax
    6b34:	48 89 85 f0 fd ff ff 	mov    %rax,-0x210(%rbp)
    6b3b:	48 8d 85 b8 eb ff ff 	lea    -0x1448(%rbp),%rax
    6b42:	48 89 85 f8 fd ff ff 	mov    %rax,-0x208(%rbp)
    6b49:	48 8d 85 b8 eb ff ff 	lea    -0x1448(%rbp),%rax
    6b50:	48 89 85 00 fe ff ff 	mov    %rax,-0x200(%rbp)
    6b57:	48 8d 85 b8 eb ff ff 	lea    -0x1448(%rbp),%rax
    6b5e:	48 89 85 08 fe ff ff 	mov    %rax,-0x1f8(%rbp)
    6b65:	48 8d 85 b8 eb ff ff 	lea    -0x1448(%rbp),%rax
    6b6c:	48 89 85 10 fe ff ff 	mov    %rax,-0x1f0(%rbp)
    6b73:	48 c7 85 18 fe ff ff 	movq   $0x0,-0x1e8(%rbp)
    6b7a:	00 00 00 00 
    6b7e:	48 8d 85 b8 eb ff ff 	lea    -0x1448(%rbp),%rax
    6b85:	48 89 85 20 fe ff ff 	mov    %rax,-0x1e0(%rbp)
    6b8c:	48 8d 85 b8 eb ff ff 	lea    -0x1448(%rbp),%rax
    6b93:	48 89 85 28 fe ff ff 	mov    %rax,-0x1d8(%rbp)
    6b9a:	48 c7 85 30 fe ff ff 	movq   $0x0,-0x1d0(%rbp)
    6ba1:	00 00 00 00 
    6ba5:	48 8d 85 b8 eb ff ff 	lea    -0x1448(%rbp),%rax
    6bac:	48 89 85 38 fe ff ff 	mov    %rax,-0x1c8(%rbp)
    6bb3:	48 8d 85 b8 eb ff ff 	lea    -0x1448(%rbp),%rax
    6bba:	48 89 85 40 fe ff ff 	mov    %rax,-0x1c0(%rbp)
    6bc1:	48 8d 85 b8 eb ff ff 	lea    -0x1448(%rbp),%rax
    6bc8:	48 89 85 48 fe ff ff 	mov    %rax,-0x1b8(%rbp)
    6bcf:	48 8d 85 b8 eb ff ff 	lea    -0x1448(%rbp),%rax
    6bd6:	48 89 85 50 fe ff ff 	mov    %rax,-0x1b0(%rbp)
    6bdd:	48 8d 85 b8 eb ff ff 	lea    -0x1448(%rbp),%rax
    6be4:	48 89 85 58 fe ff ff 	mov    %rax,-0x1a8(%rbp)
    6beb:	48 c7 85 60 fe ff ff 	movq   $0x0,-0x1a0(%rbp)
    6bf2:	00 00 00 00 
    6bf6:	48 8d 85 b8 eb ff ff 	lea    -0x1448(%rbp),%rax
    6bfd:	48 89 85 68 fe ff ff 	mov    %rax,-0x198(%rbp)
    6c04:	48 8d 85 b8 eb ff ff 	lea    -0x1448(%rbp),%rax
    6c0b:	48 89 85 70 fe ff ff 	mov    %rax,-0x190(%rbp)
    6c12:	48 8d 85 b8 eb ff ff 	lea    -0x1448(%rbp),%rax
    6c19:	48 89 85 78 fe ff ff 	mov    %rax,-0x188(%rbp)
    6c20:	48 8d 85 b8 eb ff ff 	lea    -0x1448(%rbp),%rax
    6c27:	48 89 85 80 fe ff ff 	mov    %rax,-0x180(%rbp)
    6c2e:	48 c7 85 88 fe ff ff 	movq   $0x0,-0x178(%rbp)
    6c35:	00 00 00 00 
    6c39:	48 8d 85 b8 eb ff ff 	lea    -0x1448(%rbp),%rax
    6c40:	48 89 85 90 fe ff ff 	mov    %rax,-0x170(%rbp)
    6c47:	48 8d 85 b8 eb ff ff 	lea    -0x1448(%rbp),%rax
    6c4e:	48 89 85 98 fe ff ff 	mov    %rax,-0x168(%rbp)
    6c55:	48 8d 85 b8 eb ff ff 	lea    -0x1448(%rbp),%rax
    6c5c:	48 89 85 a0 fe ff ff 	mov    %rax,-0x160(%rbp)
    6c63:	48 8d 85 b8 eb ff ff 	lea    -0x1448(%rbp),%rax
    6c6a:	48 89 85 a8 fe ff ff 	mov    %rax,-0x158(%rbp)
    6c71:	48 8d 85 b8 eb ff ff 	lea    -0x1448(%rbp),%rax
    6c78:	48 89 85 b0 fe ff ff 	mov    %rax,-0x150(%rbp)
    6c7f:	48 8d 85 b8 eb ff ff 	lea    -0x1448(%rbp),%rax
    6c86:	48 89 85 b8 fe ff ff 	mov    %rax,-0x148(%rbp)
    6c8d:	48 8d 85 b8 eb ff ff 	lea    -0x1448(%rbp),%rax
    6c94:	48 89 85 c0 fe ff ff 	mov    %rax,-0x140(%rbp)
    6c9b:	48 8d 85 b8 eb ff ff 	lea    -0x1448(%rbp),%rax
    6ca2:	48 89 85 c8 fe ff ff 	mov    %rax,-0x138(%rbp)
    6ca9:	48 8d 85 b8 eb ff ff 	lea    -0x1448(%rbp),%rax
    6cb0:	48 89 85 d0 fe ff ff 	mov    %rax,-0x130(%rbp)
    6cb7:	48 8d 85 b8 eb ff ff 	lea    -0x1448(%rbp),%rax
    6cbe:	48 89 85 d8 fe ff ff 	mov    %rax,-0x128(%rbp)
    6cc5:	48 8d 85 b8 eb ff ff 	lea    -0x1448(%rbp),%rax
    6ccc:	48 89 85 e0 fe ff ff 	mov    %rax,-0x120(%rbp)
    6cd3:	48 8d 85 b8 eb ff ff 	lea    -0x1448(%rbp),%rax
    6cda:	48 89 85 e8 fe ff ff 	mov    %rax,-0x118(%rbp)
    6ce1:	48 8d 85 b8 eb ff ff 	lea    -0x1448(%rbp),%rax
    6ce8:	48 89 85 f0 fe ff ff 	mov    %rax,-0x110(%rbp)
    6cef:	48 8d 85 b8 eb ff ff 	lea    -0x1448(%rbp),%rax
    6cf6:	48 89 85 f8 fe ff ff 	mov    %rax,-0x108(%rbp)
    6cfd:	48 8d 85 b8 eb ff ff 	lea    -0x1448(%rbp),%rax
    6d04:	48 89 85 00 ff ff ff 	mov    %rax,-0x100(%rbp)
    6d0b:	48 8d 85 b8 eb ff ff 	lea    -0x1448(%rbp),%rax
    6d12:	48 89 85 08 ff ff ff 	mov    %rax,-0xf8(%rbp)
    6d19:	48 8d 85 b8 eb ff ff 	lea    -0x1448(%rbp),%rax
    6d20:	48 89 85 10 ff ff ff 	mov    %rax,-0xf0(%rbp)
    6d27:	48 8d 85 b8 eb ff ff 	lea    -0x1448(%rbp),%rax
    6d2e:	48 89 85 18 ff ff ff 	mov    %rax,-0xe8(%rbp)
    6d35:	48 8d 85 b8 eb ff ff 	lea    -0x1448(%rbp),%rax
    6d3c:	48 89 85 20 ff ff ff 	mov    %rax,-0xe0(%rbp)
    6d43:	48 8d 85 b8 eb ff ff 	lea    -0x1448(%rbp),%rax
    6d4a:	48 89 85 28 ff ff ff 	mov    %rax,-0xd8(%rbp)
    6d51:	48 8d 85 b8 eb ff ff 	lea    -0x1448(%rbp),%rax
    6d58:	48 89 85 30 ff ff ff 	mov    %rax,-0xd0(%rbp)
    6d5f:	48 8d 85 b8 eb ff ff 	lea    -0x1448(%rbp),%rax
    6d66:	48 89 85 38 ff ff ff 	mov    %rax,-0xc8(%rbp)
    6d6d:	48 c7 85 40 ff ff ff 	movq   $0x0,-0xc0(%rbp)
    6d74:	00 00 00 00 
    6d78:	48 8d 85 b8 eb ff ff 	lea    -0x1448(%rbp),%rax
    6d7f:	48 89 85 48 ff ff ff 	mov    %rax,-0xb8(%rbp)
    6d86:	48 8d 85 b8 eb ff ff 	lea    -0x1448(%rbp),%rax
    6d8d:	48 89 85 50 ff ff ff 	mov    %rax,-0xb0(%rbp)
    6d94:	c7 85 28 eb ff ff 01 	movl   $0x1,-0x14d8(%rbp)
    6d9b:	00 00 00 
    6d9e:	48 c7 85 08 ec ff ff 	movq   $0x0,-0x13f8(%rbp)
    6da5:	00 00 00 00 
    6da9:	8b 85 94 eb ff ff    	mov    -0x146c(%rbp),%eax
    6daf:	25 00 00 00 fc       	and    $0xfc000000,%eax
    6db4:	0d e1 11 00 00       	or     $0x11e1,%eax
    6db9:	89 85 94 eb ff ff    	mov    %eax,-0x146c(%rbp)
    6dbf:	48 8d 05 ee a2 00 00 	lea    0xa2ee(%rip),%rax        # 110b4 <g_298>
    6dc6:	48 89 85 10 ec ff ff 	mov    %rax,-0x13f0(%rbp)
    6dcd:	48 c7 85 18 ec ff ff 	movq   $0xfffffffffffffffd,-0x13e8(%rbp)
    6dd4:	fd ff ff ff 
    6dd8:	c7 85 54 eb ff ff ff 	movl   $0xffffffff,-0x14ac(%rbp)
    6ddf:	ff ff ff 
    6de2:	48 8d 05 87 ce 00 00 	lea    0xce87(%rip),%rax        # 13c70 <g_337>
    6de9:	48 89 85 20 ec ff ff 	mov    %rax,-0x13e0(%rbp)
    6df0:	48 8d 85 f0 ef ff ff 	lea    -0x1010(%rbp),%rax
    6df7:	48 8d 15 c2 c5 00 00 	lea    0xc5c2(%rip),%rdx        # 133c0 <g_1297+0x1a0>
    6dfe:	b9 64 00 00 00       	mov    $0x64,%ecx
    6e03:	48 89 c7             	mov    %rax,%rdi
    6e06:	48 89 d6             	mov    %rdx,%rsi
    6e09:	f3 48 a5             	rep movsq %ds:(%rsi),%es:(%rdi)
    6e0c:	c7 85 58 eb ff ff 73 	movl   $0x99a0ec73,-0x14a8(%rbp)
    6e13:	ec a0 99 
    6e16:	66 c7 85 22 eb ff ff 	movw   $0x9,-0x14de(%rbp)
    6e1d:	09 00 
    6e1f:	48 8d 05 8d a4 00 00 	lea    0xa48d(%rip),%rax        # 112b3 <g_746+0x3>
    6e26:	48 89 85 28 ec ff ff 	mov    %rax,-0x13d8(%rbp)
    6e2d:	c7 85 50 eb ff ff 00 	movl   $0x0,-0x14b0(%rbp)
    6e34:	00 00 00 
    6e37:	eb 19                	jmp    6e52 <func_41+0x1022>
    6e39:	8b 85 50 eb ff ff    	mov    -0x14b0(%rbp),%eax
    6e3f:	48 98                	cltq   
    6e41:	66 c7 84 45 c4 ec ff 	movw   $0x1a51,-0x133c(%rbp,%rax,2)
    6e48:	ff 51 1a 
    6e4b:	83 85 50 eb ff ff 01 	addl   $0x1,-0x14b0(%rbp)
    6e52:	83 bd 50 eb ff ff 01 	cmpl   $0x1,-0x14b0(%rbp)
    6e59:	7e de                	jle    6e39 <func_41+0x1009>
    6e5b:	48 8b 15 de cf 00 00 	mov    0xcfde(%rip),%rdx        # 13e40 <g_653>
    6e62:	48 8b 85 28 fe ff ff 	mov    -0x1d8(%rbp),%rax
    6e69:	48 39 c2             	cmp    %rax,%rdx
    6e6c:	74 16                	je     6e84 <func_41+0x1054>
    6e6e:	48 8b 85 f8 eb ff ff 	mov    -0x1408(%rbp),%rax
    6e75:	8b 00                	mov    (%rax),%eax
    6e77:	85 c0                	test   %eax,%eax
    6e79:	0f 84 37 1e 00 00    	je     8cb6 <func_41+0x2e86>
    6e7f:	e9 4c 1e 00 00       	jmpq   8cd0 <func_41+0x2ea0>
    6e84:	48 b8 c6 fc 1a 28 f1 	movabs $0x16f1ecf1281afcc6,%rax
    6e8b:	ec f1 16 
    6e8e:	48 89 85 30 ec ff ff 	mov    %rax,-0x13d0(%rbp)
    6e95:	c7 85 2c eb ff ff ff 	movl   $0xffffffff,-0x14d4(%rbp)
    6e9c:	ff ff ff 
    6e9f:	c7 85 5c eb ff ff 2d 	movl   $0x31f65f2d,-0x14a4(%rbp)
    6ea6:	5f f6 31 
    6ea9:	c7 85 30 eb ff ff 00 	movl   $0x0,-0x14d0(%rbp)
    6eb0:	00 00 00 
    6eb3:	c7 85 10 ed ff ff 81 	movl   $0xfed4e281,-0x12f0(%rbp)
    6eba:	e2 d4 fe 
    6ebd:	c7 85 14 ed ff ff 37 	movl   $0xe2d41837,-0x12ec(%rbp)
    6ec4:	18 d4 e2 
    6ec7:	c7 85 18 ed ff ff 81 	movl   $0xfed4e281,-0x12e8(%rbp)
    6ece:	e2 d4 fe 
    6ed1:	c7 85 1c ed ff ff 37 	movl   $0xe2d41837,-0x12e4(%rbp)
    6ed8:	18 d4 e2 
    6edb:	c7 85 20 ed ff ff 81 	movl   $0xfed4e281,-0x12e0(%rbp)
    6ee2:	e2 d4 fe 
    6ee5:	c7 85 24 ed ff ff 37 	movl   $0xe2d41837,-0x12dc(%rbp)
    6eec:	18 d4 e2 
    6eef:	c7 85 28 ed ff ff 81 	movl   $0xfed4e281,-0x12d8(%rbp)
    6ef6:	e2 d4 fe 
    6ef9:	c7 85 2c ed ff ff 37 	movl   $0xe2d41837,-0x12d4(%rbp)
    6f00:	18 d4 e2 
    6f03:	c7 85 30 ed ff ff 81 	movl   $0xfed4e281,-0x12d0(%rbp)
    6f0a:	e2 d4 fe 
    6f0d:	c7 85 34 ed ff ff 37 	movl   $0xe2d41837,-0x12cc(%rbp)
    6f14:	18 d4 e2 
    6f17:	66 c7 85 d0 ec ff ff 	movw   $0xffff,-0x1330(%rbp)
    6f1e:	ff ff 
    6f20:	66 c7 85 d2 ec ff ff 	movw   $0x1,-0x132e(%rbp)
    6f27:	01 00 
    6f29:	66 c7 85 d4 ec ff ff 	movw   $0x0,-0x132c(%rbp)
    6f30:	00 00 
    6f32:	66 c7 85 d6 ec ff ff 	movw   $0x0,-0x132a(%rbp)
    6f39:	00 00 
    6f3b:	66 c7 85 d8 ec ff ff 	movw   $0x1,-0x1328(%rbp)
    6f42:	01 00 
    6f44:	66 c7 85 da ec ff ff 	movw   $0xffff,-0x1326(%rbp)
    6f4b:	ff ff 
    6f4d:	66 c7 85 dc ec ff ff 	movw   $0x1,-0x1324(%rbp)
    6f54:	01 00 
    6f56:	66 c7 85 de ec ff ff 	movw   $0x0,-0x1322(%rbp)
    6f5d:	00 00 
    6f5f:	66 c7 85 e0 ec ff ff 	movw   $0x0,-0x1320(%rbp)
    6f66:	00 00 
    6f68:	66 c7 85 e2 ec ff ff 	movw   $0x1,-0x131e(%rbp)
    6f6f:	01 00 
    6f71:	48 8d 05 f8 cc 00 00 	lea    0xccf8(%rip),%rax        # 13c70 <g_337>
    6f78:	48 89 85 c0 eb ff ff 	mov    %rax,-0x1440(%rbp)
    6f7f:	8b 85 98 eb ff ff    	mov    -0x1468(%rbp),%eax
    6f85:	25 00 00 00 fc       	and    $0xfc000000,%eax
    6f8a:	0d 21 1e 00 00       	or     $0x1e21,%eax
    6f8f:	89 85 98 eb ff ff    	mov    %eax,-0x1468(%rbp)
    6f95:	48 8d 05 1c a2 00 00 	lea    0xa21c(%rip),%rax        # 111b8 <g_624>
    6f9c:	48 89 85 38 ec ff ff 	mov    %rax,-0x13c8(%rbp)
    6fa3:	48 8d 05 b6 cc 00 00 	lea    0xccb6(%rip),%rax        # 13c60 <g_266>
    6faa:	48 89 85 40 ec ff ff 	mov    %rax,-0x13c0(%rbp)
    6fb1:	48 8d 05 a0 cc 00 00 	lea    0xcca0(%rip),%rax        # 13c58 <g_168>
    6fb8:	48 89 85 48 ec ff ff 	mov    %rax,-0x13b8(%rbp)
    6fbf:	48 8d 05 49 a2 00 00 	lea    0xa249(%rip),%rax        # 1120f <g_626+0x4f>
    6fc6:	48 89 85 50 ec ff ff 	mov    %rax,-0x13b0(%rbp)
    6fcd:	48 c7 85 c8 eb ff ff 	movq   $0x0,-0x1438(%rbp)
    6fd4:	00 00 00 00 
    6fd8:	48 8d 85 c8 eb ff ff 	lea    -0x1438(%rbp),%rax
    6fdf:	48 89 85 58 ec ff ff 	mov    %rax,-0x13a8(%rbp)
    6fe6:	48 8d 05 ab a5 00 00 	lea    0xa5ab(%rip),%rax        # 11598 <g_878+0x1f8>
    6fed:	48 89 85 60 ec ff ff 	mov    %rax,-0x13a0(%rbp)
    6ff4:	48 c7 85 68 ec ff ff 	movq   $0x0,-0x1398(%rbp)
    6ffb:	00 00 00 00 
    6fff:	c7 85 4c eb ff ff 00 	movl   $0x0,-0x14b4(%rbp)
    7006:	00 00 00 
    7009:	eb 1e                	jmp    7029 <func_41+0x11f9>
    700b:	8b 85 4c eb ff ff    	mov    -0x14b4(%rbp),%eax
    7011:	48 98                	cltq   
    7013:	48 8d 95 28 eb ff ff 	lea    -0x14d8(%rbp),%rdx
    701a:	48 89 94 c5 80 ed ff 	mov    %rdx,-0x1280(%rbp,%rax,8)
    7021:	ff 
    7022:	83 85 4c eb ff ff 01 	addl   $0x1,-0x14b4(%rbp)
    7029:	83 bd 4c eb ff ff 08 	cmpl   $0x8,-0x14b4(%rbp)
    7030:	7e d9                	jle    700b <func_41+0x11db>
    7032:	66 c7 05 21 a0 00 00 	movw   $0x0,0xa021(%rip)        # 1105c <g_126>
    7039:	00 00 
    703b:	e9 37 1c 00 00       	jmpq   8c77 <func_41+0x2e47>
    7040:	c7 85 60 eb ff ff 03 	movl   $0x3,-0x14a0(%rbp)
    7047:	00 00 00 
    704a:	48 8d 05 cc a1 00 00 	lea    0xa1cc(%rip),%rax        # 1121d <g_626+0x5d>
    7051:	48 89 85 70 ec ff ff 	mov    %rax,-0x1390(%rbp)
    7058:	c7 85 64 eb ff ff f7 	movl   $0xfffffff7,-0x149c(%rbp)
    705f:	ff ff ff 
    7062:	48 c7 85 78 ec ff ff 	movq   $0x0,-0x1388(%rbp)
    7069:	00 00 00 00 
    706d:	8b 85 d0 ed ff ff    	mov    -0x1230(%rbp),%eax
    7073:	25 00 00 00 fc       	and    $0xfc000000,%eax
    7078:	0d 21 06 00 00       	or     $0x621,%eax
    707d:	89 85 d0 ed ff ff    	mov    %eax,-0x1230(%rbp)
    7083:	8b 85 d4 ed ff ff    	mov    -0x122c(%rbp),%eax
    7089:	25 00 00 00 fc       	and    $0xfc000000,%eax
    708e:	0d 7f 13 00 00       	or     $0x137f,%eax
    7093:	89 85 d4 ed ff ff    	mov    %eax,-0x122c(%rbp)
    7099:	8b 85 d8 ed ff ff    	mov    -0x1228(%rbp),%eax
    709f:	25 00 00 00 fc       	and    $0xfc000000,%eax
    70a4:	0d 21 06 00 00       	or     $0x621,%eax
    70a9:	89 85 d8 ed ff ff    	mov    %eax,-0x1228(%rbp)
    70af:	8b 85 dc ed ff ff    	mov    -0x1224(%rbp),%eax
    70b5:	25 00 00 00 fc       	and    $0xfc000000,%eax
    70ba:	0d 21 06 00 00       	or     $0x621,%eax
    70bf:	89 85 dc ed ff ff    	mov    %eax,-0x1224(%rbp)
    70c5:	8b 85 e0 ed ff ff    	mov    -0x1220(%rbp),%eax
    70cb:	25 00 00 00 fc       	and    $0xfc000000,%eax
    70d0:	0d 7f 13 00 00       	or     $0x137f,%eax
    70d5:	89 85 e0 ed ff ff    	mov    %eax,-0x1220(%rbp)
    70db:	8b 85 e4 ed ff ff    	mov    -0x121c(%rbp),%eax
    70e1:	25 00 00 00 fc       	and    $0xfc000000,%eax
    70e6:	0d 21 06 00 00       	or     $0x621,%eax
    70eb:	89 85 e4 ed ff ff    	mov    %eax,-0x121c(%rbp)
    70f1:	8b 85 e8 ed ff ff    	mov    -0x1218(%rbp),%eax
    70f7:	25 00 00 00 fc       	and    $0xfc000000,%eax
    70fc:	0d 21 06 00 00       	or     $0x621,%eax
    7101:	89 85 e8 ed ff ff    	mov    %eax,-0x1218(%rbp)
    7107:	8b 85 ec ed ff ff    	mov    -0x1214(%rbp),%eax
    710d:	25 00 00 00 fc       	and    $0xfc000000,%eax
    7112:	0d 7f 13 00 00       	or     $0x137f,%eax
    7117:	89 85 ec ed ff ff    	mov    %eax,-0x1214(%rbp)
    711d:	8b 85 f0 ed ff ff    	mov    -0x1210(%rbp),%eax
    7123:	25 00 00 00 fc       	and    $0xfc000000,%eax
    7128:	0d 21 06 00 00       	or     $0x621,%eax
    712d:	89 85 f0 ed ff ff    	mov    %eax,-0x1210(%rbp)
    7133:	8b 85 f4 ed ff ff    	mov    -0x120c(%rbp),%eax
    7139:	25 00 00 00 fc       	and    $0xfc000000,%eax
    713e:	0d 21 06 00 00       	or     $0x621,%eax
    7143:	89 85 f4 ed ff ff    	mov    %eax,-0x120c(%rbp)
    7149:	8b 85 f8 ed ff ff    	mov    -0x1208(%rbp),%eax
    714f:	25 00 00 00 fc       	and    $0xfc000000,%eax
    7154:	0d 7f 13 00 00       	or     $0x137f,%eax
    7159:	89 85 f8 ed ff ff    	mov    %eax,-0x1208(%rbp)
    715f:	8b 85 fc ed ff ff    	mov    -0x1204(%rbp),%eax
    7165:	25 00 00 00 fc       	and    $0xfc000000,%eax
    716a:	0d 21 06 00 00       	or     $0x621,%eax
    716f:	89 85 fc ed ff ff    	mov    %eax,-0x1204(%rbp)
    7175:	8b 85 00 ee ff ff    	mov    -0x1200(%rbp),%eax
    717b:	25 00 00 00 fc       	and    $0xfc000000,%eax
    7180:	0d 21 06 00 00       	or     $0x621,%eax
    7185:	89 85 00 ee ff ff    	mov    %eax,-0x1200(%rbp)
    718b:	8b 85 04 ee ff ff    	mov    -0x11fc(%rbp),%eax
    7191:	25 00 00 00 fc       	and    $0xfc000000,%eax
    7196:	0d 7f 13 00 00       	or     $0x137f,%eax
    719b:	89 85 04 ee ff ff    	mov    %eax,-0x11fc(%rbp)
    71a1:	8b 85 08 ee ff ff    	mov    -0x11f8(%rbp),%eax
    71a7:	25 00 00 00 fc       	and    $0xfc000000,%eax
    71ac:	0d 21 06 00 00       	or     $0x621,%eax
    71b1:	89 85 08 ee ff ff    	mov    %eax,-0x11f8(%rbp)
    71b7:	8b 85 0c ee ff ff    	mov    -0x11f4(%rbp),%eax
    71bd:	25 00 00 00 fc       	and    $0xfc000000,%eax
    71c2:	0d 21 06 00 00       	or     $0x621,%eax
    71c7:	89 85 0c ee ff ff    	mov    %eax,-0x11f4(%rbp)
    71cd:	8b 85 10 ee ff ff    	mov    -0x11f0(%rbp),%eax
    71d3:	25 00 00 00 fc       	and    $0xfc000000,%eax
    71d8:	0d 7f 13 00 00       	or     $0x137f,%eax
    71dd:	89 85 10 ee ff ff    	mov    %eax,-0x11f0(%rbp)
    71e3:	8b 85 14 ee ff ff    	mov    -0x11ec(%rbp),%eax
    71e9:	25 00 00 00 fc       	and    $0xfc000000,%eax
    71ee:	0d 21 06 00 00       	or     $0x621,%eax
    71f3:	89 85 14 ee ff ff    	mov    %eax,-0x11ec(%rbp)
    71f9:	8b 85 18 ee ff ff    	mov    -0x11e8(%rbp),%eax
    71ff:	25 00 00 00 fc       	and    $0xfc000000,%eax
    7204:	0d 21 06 00 00       	or     $0x621,%eax
    7209:	89 85 18 ee ff ff    	mov    %eax,-0x11e8(%rbp)
    720f:	8b 85 1c ee ff ff    	mov    -0x11e4(%rbp),%eax
    7215:	25 00 00 00 fc       	and    $0xfc000000,%eax
    721a:	0d 7f 13 00 00       	or     $0x137f,%eax
    721f:	89 85 1c ee ff ff    	mov    %eax,-0x11e4(%rbp)
    7225:	8b 85 20 ee ff ff    	mov    -0x11e0(%rbp),%eax
    722b:	25 00 00 00 fc       	and    $0xfc000000,%eax
    7230:	0d 21 06 00 00       	or     $0x621,%eax
    7235:	89 85 20 ee ff ff    	mov    %eax,-0x11e0(%rbp)
    723b:	8b 85 24 ee ff ff    	mov    -0x11dc(%rbp),%eax
    7241:	25 00 00 00 fc       	and    $0xfc000000,%eax
    7246:	0d 21 06 00 00       	or     $0x621,%eax
    724b:	89 85 24 ee ff ff    	mov    %eax,-0x11dc(%rbp)
    7251:	8b 85 28 ee ff ff    	mov    -0x11d8(%rbp),%eax
    7257:	25 00 00 00 fc       	and    $0xfc000000,%eax
    725c:	0d 7f 13 00 00       	or     $0x137f,%eax
    7261:	89 85 28 ee ff ff    	mov    %eax,-0x11d8(%rbp)
    7267:	8b 85 2c ee ff ff    	mov    -0x11d4(%rbp),%eax
    726d:	25 00 00 00 fc       	and    $0xfc000000,%eax
    7272:	0d 21 06 00 00       	or     $0x621,%eax
    7277:	89 85 2c ee ff ff    	mov    %eax,-0x11d4(%rbp)
    727d:	8b 85 30 ee ff ff    	mov    -0x11d0(%rbp),%eax
    7283:	25 00 00 00 fc       	and    $0xfc000000,%eax
    7288:	0d 21 06 00 00       	or     $0x621,%eax
    728d:	89 85 30 ee ff ff    	mov    %eax,-0x11d0(%rbp)
    7293:	8b 85 34 ee ff ff    	mov    -0x11cc(%rbp),%eax
    7299:	25 00 00 00 fc       	and    $0xfc000000,%eax
    729e:	0d 7f 13 00 00       	or     $0x137f,%eax
    72a3:	89 85 34 ee ff ff    	mov    %eax,-0x11cc(%rbp)
    72a9:	8b 85 38 ee ff ff    	mov    -0x11c8(%rbp),%eax
    72af:	25 00 00 00 fc       	and    $0xfc000000,%eax
    72b4:	0d 21 06 00 00       	or     $0x621,%eax
    72b9:	89 85 38 ee ff ff    	mov    %eax,-0x11c8(%rbp)
    72bf:	8b 85 3c ee ff ff    	mov    -0x11c4(%rbp),%eax
    72c5:	25 00 00 00 fc       	and    $0xfc000000,%eax
    72ca:	0d 21 06 00 00       	or     $0x621,%eax
    72cf:	89 85 3c ee ff ff    	mov    %eax,-0x11c4(%rbp)
    72d5:	8b 85 40 ee ff ff    	mov    -0x11c0(%rbp),%eax
    72db:	25 00 00 00 fc       	and    $0xfc000000,%eax
    72e0:	0d 7f 13 00 00       	or     $0x137f,%eax
    72e5:	89 85 40 ee ff ff    	mov    %eax,-0x11c0(%rbp)
    72eb:	8b 85 44 ee ff ff    	mov    -0x11bc(%rbp),%eax
    72f1:	25 00 00 00 fc       	and    $0xfc000000,%eax
    72f6:	0d 21 06 00 00       	or     $0x621,%eax
    72fb:	89 85 44 ee ff ff    	mov    %eax,-0x11bc(%rbp)
    7301:	8b 85 48 ee ff ff    	mov    -0x11b8(%rbp),%eax
    7307:	25 00 00 00 fc       	and    $0xfc000000,%eax
    730c:	0d 21 06 00 00       	or     $0x621,%eax
    7311:	89 85 48 ee ff ff    	mov    %eax,-0x11b8(%rbp)
    7317:	8b 85 4c ee ff ff    	mov    -0x11b4(%rbp),%eax
    731d:	25 00 00 00 fc       	and    $0xfc000000,%eax
    7322:	0d 7f 13 00 00       	or     $0x137f,%eax
    7327:	89 85 4c ee ff ff    	mov    %eax,-0x11b4(%rbp)
    732d:	8b 85 50 ee ff ff    	mov    -0x11b0(%rbp),%eax
    7333:	25 00 00 00 fc       	and    $0xfc000000,%eax
    7338:	0d 21 06 00 00       	or     $0x621,%eax
    733d:	89 85 50 ee ff ff    	mov    %eax,-0x11b0(%rbp)
    7343:	8b 85 54 ee ff ff    	mov    -0x11ac(%rbp),%eax
    7349:	25 00 00 00 fc       	and    $0xfc000000,%eax
    734e:	0d 21 06 00 00       	or     $0x621,%eax
    7353:	89 85 54 ee ff ff    	mov    %eax,-0x11ac(%rbp)
    7359:	8b 85 58 ee ff ff    	mov    -0x11a8(%rbp),%eax
    735f:	25 00 00 00 fc       	and    $0xfc000000,%eax
    7364:	0d 7f 13 00 00       	or     $0x137f,%eax
    7369:	89 85 58 ee ff ff    	mov    %eax,-0x11a8(%rbp)
    736f:	8b 85 5c ee ff ff    	mov    -0x11a4(%rbp),%eax
    7375:	25 00 00 00 fc       	and    $0xfc000000,%eax
    737a:	0d 21 06 00 00       	or     $0x621,%eax
    737f:	89 85 5c ee ff ff    	mov    %eax,-0x11a4(%rbp)
    7385:	8b 85 60 ee ff ff    	mov    -0x11a0(%rbp),%eax
    738b:	25 00 00 00 fc       	and    $0xfc000000,%eax
    7390:	0d 21 06 00 00       	or     $0x621,%eax
    7395:	89 85 60 ee ff ff    	mov    %eax,-0x11a0(%rbp)
    739b:	8b 85 64 ee ff ff    	mov    -0x119c(%rbp),%eax
    73a1:	25 00 00 00 fc       	and    $0xfc000000,%eax
    73a6:	0d 7f 13 00 00       	or     $0x137f,%eax
    73ab:	89 85 64 ee ff ff    	mov    %eax,-0x119c(%rbp)
    73b1:	8b 85 68 ee ff ff    	mov    -0x1198(%rbp),%eax
    73b7:	25 00 00 00 fc       	and    $0xfc000000,%eax
    73bc:	0d 21 06 00 00       	or     $0x621,%eax
    73c1:	89 85 68 ee ff ff    	mov    %eax,-0x1198(%rbp)
    73c7:	8b 85 6c ee ff ff    	mov    -0x1194(%rbp),%eax
    73cd:	25 00 00 00 fc       	and    $0xfc000000,%eax
    73d2:	0d 21 06 00 00       	or     $0x621,%eax
    73d7:	89 85 6c ee ff ff    	mov    %eax,-0x1194(%rbp)
    73dd:	8b 85 70 ee ff ff    	mov    -0x1190(%rbp),%eax
    73e3:	25 00 00 00 fc       	and    $0xfc000000,%eax
    73e8:	0d 7f 13 00 00       	or     $0x137f,%eax
    73ed:	89 85 70 ee ff ff    	mov    %eax,-0x1190(%rbp)
    73f3:	8b 85 74 ee ff ff    	mov    -0x118c(%rbp),%eax
    73f9:	25 00 00 00 fc       	and    $0xfc000000,%eax
    73fe:	0d 21 06 00 00       	or     $0x621,%eax
    7403:	89 85 74 ee ff ff    	mov    %eax,-0x118c(%rbp)
    7409:	8b 85 78 ee ff ff    	mov    -0x1188(%rbp),%eax
    740f:	25 00 00 00 fc       	and    $0xfc000000,%eax
    7414:	0d 21 06 00 00       	or     $0x621,%eax
    7419:	89 85 78 ee ff ff    	mov    %eax,-0x1188(%rbp)
    741f:	8b 85 7c ee ff ff    	mov    -0x1184(%rbp),%eax
    7425:	25 00 00 00 fc       	and    $0xfc000000,%eax
    742a:	0d 7f 13 00 00       	or     $0x137f,%eax
    742f:	89 85 7c ee ff ff    	mov    %eax,-0x1184(%rbp)
    7435:	8b 85 80 ee ff ff    	mov    -0x1180(%rbp),%eax
    743b:	25 00 00 00 fc       	and    $0xfc000000,%eax
    7440:	0d 21 06 00 00       	or     $0x621,%eax
    7445:	89 85 80 ee ff ff    	mov    %eax,-0x1180(%rbp)
    744b:	8b 85 84 ee ff ff    	mov    -0x117c(%rbp),%eax
    7451:	25 00 00 00 fc       	and    $0xfc000000,%eax
    7456:	0d 21 06 00 00       	or     $0x621,%eax
    745b:	89 85 84 ee ff ff    	mov    %eax,-0x117c(%rbp)
    7461:	8b 85 88 ee ff ff    	mov    -0x1178(%rbp),%eax
    7467:	25 00 00 00 fc       	and    $0xfc000000,%eax
    746c:	0d 7f 13 00 00       	or     $0x137f,%eax
    7471:	89 85 88 ee ff ff    	mov    %eax,-0x1178(%rbp)
    7477:	8b 85 8c ee ff ff    	mov    -0x1174(%rbp),%eax
    747d:	25 00 00 00 fc       	and    $0xfc000000,%eax
    7482:	0d 21 06 00 00       	or     $0x621,%eax
    7487:	89 85 8c ee ff ff    	mov    %eax,-0x1174(%rbp)
    748d:	8b 85 90 ee ff ff    	mov    -0x1170(%rbp),%eax
    7493:	25 00 00 00 fc       	and    $0xfc000000,%eax
    7498:	0d 21 06 00 00       	or     $0x621,%eax
    749d:	89 85 90 ee ff ff    	mov    %eax,-0x1170(%rbp)
    74a3:	8b 85 94 ee ff ff    	mov    -0x116c(%rbp),%eax
    74a9:	25 00 00 00 fc       	and    $0xfc000000,%eax
    74ae:	0d 7f 13 00 00       	or     $0x137f,%eax
    74b3:	89 85 94 ee ff ff    	mov    %eax,-0x116c(%rbp)
    74b9:	8b 85 98 ee ff ff    	mov    -0x1168(%rbp),%eax
    74bf:	25 00 00 00 fc       	and    $0xfc000000,%eax
    74c4:	0d 21 06 00 00       	or     $0x621,%eax
    74c9:	89 85 98 ee ff ff    	mov    %eax,-0x1168(%rbp)
    74cf:	8b 85 9c ee ff ff    	mov    -0x1164(%rbp),%eax
    74d5:	25 00 00 00 fc       	and    $0xfc000000,%eax
    74da:	0d 21 06 00 00       	or     $0x621,%eax
    74df:	89 85 9c ee ff ff    	mov    %eax,-0x1164(%rbp)
    74e5:	8b 85 a0 ee ff ff    	mov    -0x1160(%rbp),%eax
    74eb:	25 00 00 00 fc       	and    $0xfc000000,%eax
    74f0:	0d 7f 13 00 00       	or     $0x137f,%eax
    74f5:	89 85 a0 ee ff ff    	mov    %eax,-0x1160(%rbp)
    74fb:	8b 85 a4 ee ff ff    	mov    -0x115c(%rbp),%eax
    7501:	25 00 00 00 fc       	and    $0xfc000000,%eax
    7506:	0d 21 06 00 00       	or     $0x621,%eax
    750b:	89 85 a4 ee ff ff    	mov    %eax,-0x115c(%rbp)
    7511:	48 8d 05 58 c7 00 00 	lea    0xc758(%rip),%rax        # 13c70 <g_337>
    7518:	48 89 85 80 ec ff ff 	mov    %rax,-0x1380(%rbp)
    751f:	c7 85 44 eb ff ff 00 	movl   $0x0,-0x14bc(%rbp)
    7526:	00 00 00 
    7529:	eb 72                	jmp    759d <func_41+0x176d>
    752b:	c7 85 48 eb ff ff 00 	movl   $0x0,-0x14b8(%rbp)
    7532:	00 00 00 
    7535:	eb 56                	jmp    758d <func_41+0x175d>
    7537:	c7 85 38 eb ff ff 00 	movl   $0x0,-0x14c8(%rbp)
    753e:	00 00 00 
    7541:	eb 3a                	jmp    757d <func_41+0x174d>
    7543:	8b 85 38 eb ff ff    	mov    -0x14c8(%rbp),%eax
    7549:	48 63 d0             	movslq %eax,%rdx
    754c:	8b 85 48 eb ff ff    	mov    -0x14b8(%rbp),%eax
    7552:	48 98                	cltq   
    7554:	8b 8d 44 eb ff ff    	mov    -0x14bc(%rbp),%ecx
    755a:	48 63 c9             	movslq %ecx,%rcx
    755d:	48 c1 e1 03          	shl    $0x3,%rcx
    7561:	48 01 ca             	add    %rcx,%rdx
    7564:	48 01 d0             	add    %rdx,%rax
    7567:	48 8d 15 3a 9b 00 00 	lea    0x9b3a(%rip),%rdx        # 110a8 <g_267+0x8>
    756e:	48 89 94 c5 b0 ee ff 	mov    %rdx,-0x1150(%rbp,%rax,8)
    7575:	ff 
    7576:	83 85 38 eb ff ff 01 	addl   $0x1,-0x14c8(%rbp)
    757d:	83 bd 38 eb ff ff 00 	cmpl   $0x0,-0x14c8(%rbp)
    7584:	7e bd                	jle    7543 <func_41+0x1713>
    7586:	83 85 48 eb ff ff 01 	addl   $0x1,-0x14b8(%rbp)
    758d:	83 bd 48 eb ff ff 07 	cmpl   $0x7,-0x14b8(%rbp)
    7594:	7e a1                	jle    7537 <func_41+0x1707>
    7596:	83 85 44 eb ff ff 01 	addl   $0x1,-0x14bc(%rbp)
    759d:	83 bd 44 eb ff ff 04 	cmpl   $0x4,-0x14bc(%rbp)
    75a4:	7e 85                	jle    752b <func_41+0x16fb>
    75a6:	48 83 bd 30 ec ff ff 	cmpq   $0x0,-0x13d0(%rbp)
    75ad:	00 
    75ae:	0f 9f c0             	setg   %al
    75b1:	0f b6 d0             	movzbl %al,%edx
    75b4:	8b 85 60 eb ff ff    	mov    -0x14a0(%rbp),%eax
    75ba:	0f b7 c0             	movzwl %ax,%eax
    75bd:	89 d6                	mov    %edx,%esi
    75bf:	89 c7                	mov    %eax,%edi
    75c1:	e8 40 c8 ff ff       	callq  3e06 <safe_lshift_func_uint16_t_u_u>
    75c6:	66 85 c0             	test   %ax,%ax
    75c9:	0f 84 df 05 00 00    	je     7bae <func_41+0x1d7e>
    75cf:	48 c7 85 88 ec ff ff 	movq   $0xffffffffffffffff,-0x1378(%rbp)
    75d6:	ff ff ff ff 
    75da:	c7 85 68 eb ff ff ff 	movl   $0xffffffff,-0x1498(%rbp)
    75e1:	ff ff ff 
    75e4:	c7 85 6c eb ff ff 01 	movl   $0x1,-0x1494(%rbp)
    75eb:	00 00 00 
    75ee:	c7 85 70 eb ff ff 60 	movl   $0x49328860,-0x1490(%rbp)
    75f5:	88 32 49 
    75f8:	8b 85 9c eb ff ff    	mov    -0x1464(%rbp),%eax
    75fe:	25 00 00 00 fc       	and    $0xfc000000,%eax
    7603:	0d a1 07 00 00       	or     $0x7a1,%eax
    7608:	89 85 9c eb ff ff    	mov    %eax,-0x1464(%rbp)
    760e:	48 8d 85 a8 eb ff ff 	lea    -0x1458(%rbp),%rax
    7615:	48 89 85 90 ec ff ff 	mov    %rax,-0x1370(%rbp)
    761c:	48 8b 05 61 9b 00 00 	mov    0x9b61(%rip),%rax        # 11184 <g_448+0x4>
    7623:	98                   	cwtl   
    7624:	be 0d 00 00 00       	mov    $0xd,%esi
    7629:	89 c7                	mov    %eax,%edi
    762b:	e8 fa be ff ff       	callq  352a <safe_rshift_func_int16_t_s_s>
    7630:	44 0f bf e0          	movswl %ax,%r12d
    7634:	48 8b 85 30 ec ff ff 	mov    -0x13d0(%rbp),%rax
    763b:	41 89 c5             	mov    %eax,%r13d
    763e:	8b 85 0c eb ff ff    	mov    -0x14f4(%rbp),%eax
    7644:	0f be d8             	movsbl %al,%ebx
    7647:	8b 85 60 eb ff ff    	mov    -0x14a0(%rbp),%eax
    764d:	89 c6                	mov    %eax,%esi
    764f:	bf 01 00 00 00       	mov    $0x1,%edi
    7654:	e8 cc c8 ff ff       	callq  3f25 <safe_div_func_uint32_t_u_u>
    7659:	0f b7 c0             	movzwl %ax,%eax
    765c:	be 0d 00 00 00       	mov    $0xd,%esi
    7661:	89 c7                	mov    %eax,%edi
    7663:	e8 56 c7 ff ff       	callq  3dbe <safe_lshift_func_uint16_t_u_s>
    7668:	0f b7 d0             	movzwl %ax,%edx
    766b:	8b 85 0c eb ff ff    	mov    -0x14f4(%rbp),%eax
    7671:	39 c2                	cmp    %eax,%edx
    7673:	0f 95 c0             	setne  %al
    7676:	0f b6 d0             	movzbl %al,%edx
    7679:	8b 85 0c eb ff ff    	mov    -0x14f4(%rbp),%eax
    767f:	39 c2                	cmp    %eax,%edx
    7681:	0f 9e c0             	setle  %al
    7684:	0f b6 d0             	movzbl %al,%edx
    7687:	8b 85 0c eb ff ff    	mov    -0x14f4(%rbp),%eax
    768d:	39 c2                	cmp    %eax,%edx
    768f:	0f 95 c0             	setne  %al
    7692:	89 c2                	mov    %eax,%edx
    7694:	8b 85 60 eb ff ff    	mov    -0x14a0(%rbp),%eax
    769a:	21 c2                	and    %eax,%edx
    769c:	48 8b 85 a8 eb ff ff 	mov    -0x1458(%rbp),%rax
    76a3:	8b 00                	mov    (%rax),%eax
    76a5:	31 d0                	xor    %edx,%eax
    76a7:	0f be c0             	movsbl %al,%eax
    76aa:	89 de                	mov    %ebx,%esi
    76ac:	89 c7                	mov    %eax,%edi
    76ae:	e8 5f bb ff ff       	callq  3212 <safe_mul_func_int8_t_s_s>
    76b3:	84 c0                	test   %al,%al
    76b5:	0f 94 c0             	sete   %al
    76b8:	89 c2                	mov    %eax,%edx
    76ba:	48 8b 85 f8 eb ff ff 	mov    -0x1408(%rbp),%rax
    76c1:	8b 00                	mov    (%rax),%eax
    76c3:	21 d0                	and    %edx,%eax
    76c5:	0f be c0             	movsbl %al,%eax
    76c8:	be 05 00 00 00       	mov    $0x5,%esi
    76cd:	89 c7                	mov    %eax,%edi
    76cf:	e8 98 bc ff ff       	callq  336c <safe_rshift_func_int8_t_s_u>
    76d4:	0f be c0             	movsbl %al,%eax
    76d7:	89 c6                	mov    %eax,%esi
    76d9:	bf 06 00 00 00       	mov    $0x6,%edi
    76de:	e8 42 c8 ff ff       	callq  3f25 <safe_div_func_uint32_t_u_u>
    76e3:	89 c2                	mov    %eax,%edx
    76e5:	48 8b 85 30 ec ff ff 	mov    -0x13d0(%rbp),%rax
    76ec:	31 d0                	xor    %edx,%eax
    76ee:	0f b7 c0             	movzwl %ax,%eax
    76f1:	44 89 ee             	mov    %r13d,%esi
    76f4:	89 c7                	mov    %eax,%edi
    76f6:	e8 c3 c6 ff ff       	callq  3dbe <safe_lshift_func_uint16_t_u_s>
    76fb:	66 85 c0             	test   %ax,%ax
    76fe:	75 0a                	jne    770a <func_41+0x18da>
    7700:	8b 85 0c eb ff ff    	mov    -0x14f4(%rbp),%eax
    7706:	85 c0                	test   %eax,%eax
    7708:	74 07                	je     7711 <func_41+0x18e1>
    770a:	b8 01 00 00 00       	mov    $0x1,%eax
    770f:	eb 05                	jmp    7716 <func_41+0x18e6>
    7711:	b8 00 00 00 00       	mov    $0x0,%eax
    7716:	85 c0                	test   %eax,%eax
    7718:	74 11                	je     772b <func_41+0x18fb>
    771a:	8b 85 0c eb ff ff    	mov    -0x14f4(%rbp),%eax
    7720:	85 c0                	test   %eax,%eax
    7722:	74 07                	je     772b <func_41+0x18fb>
    7724:	b8 01 00 00 00       	mov    $0x1,%eax
    7729:	eb 05                	jmp    7730 <func_41+0x1900>
    772b:	b8 00 00 00 00       	mov    $0x0,%eax
    7730:	44 21 e0             	and    %r12d,%eax
    7733:	3d d2 38 00 00       	cmp    $0x38d2,%eax
    7738:	0f 9f c0             	setg   %al
    773b:	0f b6 d0             	movzbl %al,%edx
    773e:	48 8b 85 f8 eb ff ff 	mov    -0x1408(%rbp),%rax
    7745:	89 10                	mov    %edx,(%rax)
    7747:	48 8b 85 f8 eb ff ff 	mov    -0x1408(%rbp),%rax
    774e:	8b 00                	mov    (%rax),%eax
    7750:	48 98                	cltq   
    7752:	48 8b 95 88 ec ff ff 	mov    -0x1378(%rbp),%rdx
    7759:	48 89 d6             	mov    %rdx,%rsi
    775c:	48 89 c7             	mov    %rax,%rdi
    775f:	e8 1c c9 ff ff       	callq  4080 <safe_mod_func_uint64_t_u_u>
    7764:	48 81 bd 30 ec ff ff 	cmpq   $0x645fc40b,-0x13d0(%rbp)
    776b:	0b c4 5f 64 
    776f:	0f 9e c0             	setle  %al
    7772:	0f b6 c0             	movzbl %al,%eax
    7775:	89 c6                	mov    %eax,%esi
    7777:	bf fc ff ff ff       	mov    $0xfffffffc,%edi
    777c:	e8 91 ba ff ff       	callq  3212 <safe_mul_func_int8_t_s_s>
    7781:	89 c2                	mov    %eax,%edx
    7783:	48 8b 85 a8 eb ff ff 	mov    -0x1458(%rbp),%rax
    778a:	0f be d2             	movsbl %dl,%edx
    778d:	89 10                	mov    %edx,(%rax)
    778f:	8b 00                	mov    (%rax),%eax
    7791:	85 c0                	test   %eax,%eax
    7793:	0f 84 6b 03 00 00    	je     7b04 <func_41+0x1cd4>
    7799:	48 8d 05 c0 c4 00 00 	lea    0xc4c0(%rip),%rax        # 13c60 <g_266>
    77a0:	48 89 85 98 ec ff ff 	mov    %rax,-0x1368(%rbp)
    77a7:	c7 85 74 eb ff ff 01 	movl   $0x1,-0x148c(%rbp)
    77ae:	00 00 00 
    77b1:	c7 85 78 eb ff ff bb 	movl   $0x1b70debb,-0x1488(%rbp)
    77b8:	de 70 1b 
    77bb:	48 8d 85 2c eb ff ff 	lea    -0x14d4(%rbp),%rax
    77c2:	48 89 85 a0 ec ff ff 	mov    %rax,-0x1360(%rbp)
    77c9:	48 8d 85 a0 eb ff ff 	lea    -0x1460(%rbp),%rax
    77d0:	48 89 85 a8 ec ff ff 	mov    %rax,-0x1358(%rbp)
    77d7:	c7 85 7c eb ff ff 31 	movl   $0x946fe931,-0x1484(%rbp)
    77de:	e9 6f 94 
    77e1:	c7 85 80 eb ff ff 5d 	movl   $0xd0c57e5d,-0x1480(%rbp)
    77e8:	7e c5 d0 
    77eb:	c7 85 84 eb ff ff 33 	movl   $0xa99d0033,-0x147c(%rbp)
    77f2:	00 9d a9 
    77f5:	c7 85 88 eb ff ff 7b 	movl   $0x35f1fd7b,-0x1478(%rbp)
    77fc:	fd f1 35 
    77ff:	c7 85 3c eb ff ff 00 	movl   $0x0,-0x14c4(%rbp)
    7806:	00 00 00 
    7809:	eb 1e                	jmp    7829 <func_41+0x19f9>
    780b:	8b 85 3c eb ff ff    	mov    -0x14c4(%rbp),%eax
    7811:	48 98                	cltq   
    7813:	48 8d 15 0e c6 00 00 	lea    0xc60e(%rip),%rdx        # 13e28 <g_654>
    781a:	48 89 94 c5 10 f3 ff 	mov    %rdx,-0xcf0(%rbp,%rax,8)
    7821:	ff 
    7822:	83 85 3c eb ff ff 01 	addl   $0x1,-0x14c4(%rbp)
    7829:	83 bd 3c eb ff ff 09 	cmpl   $0x9,-0x14c4(%rbp)
    7830:	7e d9                	jle    780b <func_41+0x19db>
    7832:	0f b6 05 3b 98 00 00 	movzbl 0x983b(%rip),%eax        # 11074 <g_162>
    7839:	0f be c0             	movsbl %al,%eax
    783c:	be 00 00 00 00       	mov    $0x0,%esi
    7841:	89 c7                	mov    %eax,%edi
    7843:	e8 59 ba ff ff       	callq  32a1 <safe_lshift_func_int8_t_s_s>
    7848:	8b 85 0c eb ff ff    	mov    -0x14f4(%rbp),%eax
    784e:	4c 63 e8             	movslq %eax,%r13
    7851:	48 8b 1d 8c 98 00 00 	mov    0x988c(%rip),%rbx        # 110e4 <g_341+0x4>
    7858:	8b 85 0c eb ff ff    	mov    -0x14f4(%rbp),%eax
    785e:	44 0f b7 e0          	movzwl %ax,%r12d
    7862:	8b 85 2c eb ff ff    	mov    -0x14d4(%rbp),%eax
    7868:	89 c6                	mov    %eax,%esi
    786a:	bf 1c 00 00 00       	mov    $0x1c,%edi
    786f:	e8 7a ba ff ff       	callq  32ee <safe_lshift_func_int8_t_s_u>
    7874:	44 89 e6             	mov    %r12d,%esi
    7877:	bf 00 00 00 00       	mov    $0x0,%edi
    787c:	e8 bc c4 ff ff       	callq  3d3d <safe_mul_func_uint16_t_u_u>
    7881:	8b 85 0c eb ff ff    	mov    -0x14f4(%rbp),%eax
    7887:	85 c0                	test   %eax,%eax
    7889:	0f 9f c0             	setg   %al
    788c:	0f b6 d0             	movzbl %al,%edx
    788f:	48 8b 8d c8 ef ff ff 	mov    -0x1038(%rbp),%rcx
    7896:	48 8b 85 98 ec ff ff 	mov    -0x1368(%rbp),%rax
    789d:	48 89 08             	mov    %rcx,(%rax)
    78a0:	48 8b 85 98 ec ff ff 	mov    -0x1368(%rbp),%rax
    78a7:	48 8b 00             	mov    (%rax),%rax
    78aa:	48 39 85 08 ec ff ff 	cmp    %rax,-0x13f8(%rbp)
    78b1:	0f 95 c0             	setne  %al
    78b4:	0f b6 c0             	movzbl %al,%eax
    78b7:	89 d6                	mov    %edx,%esi
    78b9:	89 c7                	mov    %eax,%edi
    78bb:	e8 7d c4 ff ff       	callq  3d3d <safe_mul_func_uint16_t_u_u>
    78c0:	0f b7 c0             	movzwl %ax,%eax
    78c3:	48 89 de             	mov    %rbx,%rsi
    78c6:	48 89 c7             	mov    %rax,%rdi
    78c9:	e8 73 bf ff ff       	callq  3841 <safe_add_func_int64_t_s_s>
    78ce:	48 83 f0 01          	xor    $0x1,%rax
    78d2:	48 89 c2             	mov    %rax,%rdx
    78d5:	0f b7 05 d6 97 00 00 	movzwl 0x97d6(%rip),%eax        # 110b2 <g_267+0x12>
    78dc:	0f b7 c0             	movzwl %ax,%eax
    78df:	48 09 d0             	or     %rdx,%rax
    78e2:	49 39 c5             	cmp    %rax,%r13
    78e5:	ba 01 00 00 00       	mov    $0x1,%edx
    78ea:	48 8b 85 f8 eb ff ff 	mov    -0x1408(%rbp),%rax
    78f1:	8b 00                	mov    (%rax),%eax
    78f3:	09 c2                	or     %eax,%edx
    78f5:	48 8b 85 f8 eb ff ff 	mov    -0x1408(%rbp),%rax
    78fc:	89 10                	mov    %edx,(%rax)
    78fe:	48 8b 05 93 97 00 00 	mov    0x9793(%rip),%rax        # 11098 <g_212>
    7905:	0f be d8             	movsbl %al,%ebx
    7908:	44 8b a5 60 eb ff ff 	mov    -0x14a0(%rbp),%r12d
    790f:	81 8d 78 eb ff ff ff 	orl    $0xffff,-0x1488(%rbp)
    7916:	ff 00 00 
    7919:	48 8b 85 a0 eb ff ff 	mov    -0x1460(%rbp),%rax
    7920:	0f b6 10             	movzbl (%rax),%edx
    7923:	48 8b 85 28 f3 ff ff 	mov    -0xcd8(%rbp),%rax
    792a:	48 8d 0d f7 c4 00 00 	lea    0xc4f7(%rip),%rcx        # 13e28 <g_654>
    7931:	48 39 c8             	cmp    %rcx,%rax
    7934:	0f 95 c0             	setne  %al
    7937:	89 c1                	mov    %eax,%ecx
    7939:	8b 85 0c eb ff ff    	mov    -0x14f4(%rbp),%eax
    793f:	09 c1                	or     %eax,%ecx
    7941:	48 8b 85 a0 eb ff ff 	mov    -0x1460(%rbp),%rax
    7948:	21 ca                	and    %ecx,%edx
    794a:	88 10                	mov    %dl,(%rax)
    794c:	48 8b 85 90 ed ff ff 	mov    -0x1270(%rbp),%rax
    7953:	48 85 c0             	test   %rax,%rax
    7956:	74 0c                	je     7964 <func_41+0x1b34>
    7958:	48 b8 bd 6a 30 3f 19 	movabs $0x101bb9193f306abd,%rax
    795f:	b9 1b 10 
    7962:	eb 0a                	jmp    796e <func_41+0x1b3e>
    7964:	48 b8 bc 6a 30 3f 19 	movabs $0x101bb9193f306abc,%rax
    796b:	b9 1b 10 
    796e:	48 8b 95 00 eb ff ff 	mov    -0x1500(%rbp),%rdx
    7975:	0f b6 12             	movzbl (%rdx),%edx
    7978:	0f b6 d2             	movzbl %dl,%edx
    797b:	48 39 d0             	cmp    %rdx,%rax
    797e:	0f 9e c0             	setle  %al
    7981:	0f b6 d0             	movzbl %al,%edx
    7984:	48 8b 05 59 97 00 00 	mov    0x9759(%rip),%rax        # 110e4 <g_341+0x4>
    798b:	98                   	cwtl   
    798c:	89 d6                	mov    %edx,%esi
    798e:	89 c7                	mov    %eax,%edi
    7990:	e8 60 ba ff ff       	callq  33f5 <safe_mul_func_int16_t_s_s>
    7995:	0f b7 c0             	movzwl %ax,%eax
    7998:	44 89 e6             	mov    %r12d,%esi
    799b:	89 c7                	mov    %eax,%edi
    799d:	e8 64 c4 ff ff       	callq  3e06 <safe_lshift_func_uint16_t_u_u>
    79a2:	0f be c0             	movsbl %al,%eax
    79a5:	89 de                	mov    %ebx,%esi
    79a7:	89 c7                	mov    %eax,%edi
    79a9:	e8 bc b8 ff ff       	callq  326a <safe_div_func_int8_t_s_s>
    79ae:	48 8b 85 a0 ec ff ff 	mov    -0x1360(%rbp),%rax
    79b5:	c7 00 00 00 00 00    	movl   $0x0,(%rax)
    79bb:	48 8b 0d ae c2 00 00 	mov    0xc2ae(%rip),%rcx        # 13c70 <g_337>
    79c2:	48 8b 05 a7 98 00 00 	mov    0x98a7(%rip),%rax        # 11270 <g_712>
    79c9:	48 8b 15 a8 98 00 00 	mov    0x98a8(%rip),%rdx        # 11278 <g_712+0x8>
    79d0:	48 89 01             	mov    %rax,(%rcx)
    79d3:	48 89 51 08          	mov    %rdx,0x8(%rcx)
    79d7:	8b 05 a3 98 00 00    	mov    0x98a3(%rip),%eax        # 11280 <g_712+0x10>
    79dd:	89 41 10             	mov    %eax,0x10(%rcx)
    79e0:	48 8b 85 30 ec ff ff 	mov    -0x13d0(%rbp),%rax
    79e7:	0f bf d8             	movswl %ax,%ebx
    79ea:	48 8b 85 00 ec ff ff 	mov    -0x1400(%rbp),%rax
    79f1:	8b 00                	mov    (%rax),%eax
    79f3:	8d 50 ff             	lea    -0x1(%rax),%edx
    79f6:	48 8b 85 00 ec ff ff 	mov    -0x1400(%rbp),%rax
    79fd:	89 10                	mov    %edx,(%rax)
    79ff:	48 8b 85 00 ec ff ff 	mov    -0x1400(%rbp),%rax
    7a06:	8b 00                	mov    (%rax),%eax
    7a08:	be ff ff ff ff       	mov    $0xffffffff,%esi
    7a0d:	89 c7                	mov    %eax,%edi
    7a0f:	e8 11 c5 ff ff       	callq  3f25 <safe_div_func_uint32_t_u_u>
    7a14:	41 89 c4             	mov    %eax,%r12d
    7a17:	8b 85 0c eb ff ff    	mov    -0x14f4(%rbp),%eax
    7a1d:	21 85 60 eb ff ff    	and    %eax,-0x14a0(%rbp)
    7a23:	48 8b 85 a8 ec ff ff 	mov    -0x1358(%rbp),%rax
    7a2a:	48 8d 15 2d 96 00 00 	lea    0x962d(%rip),%rdx        # 1105e <g_143>
    7a31:	48 89 10             	mov    %rdx,(%rax)
    7a34:	48 8d 05 23 96 00 00 	lea    0x9623(%rip),%rax        # 1105e <g_143>
    7a3b:	48 39 85 70 ec ff ff 	cmp    %rax,-0x1390(%rbp)
    7a42:	0f 95 c0             	setne  %al
    7a45:	0f b6 c0             	movzbl %al,%eax
    7a48:	8b 95 60 eb ff ff    	mov    -0x14a0(%rbp),%edx
    7a4e:	89 d6                	mov    %edx,%esi
    7a50:	89 c7                	mov    %eax,%edi
    7a52:	e8 d3 ba ff ff       	callq  352a <safe_rshift_func_int16_t_s_s>
    7a57:	98                   	cwtl   
    7a58:	89 85 5c eb ff ff    	mov    %eax,-0x14a4(%rbp)
    7a5e:	48 83 bd f0 eb ff ff 	cmpq   $0x0,-0x1410(%rbp)
    7a65:	00 
    7a66:	0f 95 c0             	setne  %al
    7a69:	0f b6 d0             	movzbl %al,%edx
    7a6c:	48 8b 05 09 98 00 00 	mov    0x9809(%rip),%rax        # 1127c <g_712+0xc>
    7a73:	f7 d0                	not    %eax
    7a75:	98                   	cwtl   
    7a76:	89 d6                	mov    %edx,%esi
    7a78:	89 c7                	mov    %eax,%edi
    7a7a:	e8 54 b9 ff ff       	callq  33d3 <safe_sub_func_int16_t_s_s>
    7a7f:	66 85 c0             	test   %ax,%ax
    7a82:	0f 9f c0             	setg   %al
    7a85:	0f b6 c0             	movzbl %al,%eax
    7a88:	be 01 00 00 00       	mov    $0x1,%esi
    7a8d:	89 c7                	mov    %eax,%edi
    7a8f:	e8 47 c1 ff ff       	callq  3bdb <safe_div_func_uint8_t_u_u>
    7a94:	0f b7 05 bb 95 00 00 	movzwl 0x95bb(%rip),%eax        # 11056 <g_103>
    7a9b:	48 0f bf d0          	movswq %ax,%rdx
    7a9f:	48 8b 05 de 96 00 00 	mov    0x96de(%rip),%rax        # 11184 <g_448+0x4>
    7aa6:	48 39 c2             	cmp    %rax,%rdx
    7aa9:	0f 9f c0             	setg   %al
    7aac:	0f b6 d0             	movzbl %al,%edx
    7aaf:	8b 85 0c eb ff ff    	mov    -0x14f4(%rbp),%eax
    7ab5:	98                   	cwtl   
    7ab6:	89 d6                	mov    %edx,%esi
    7ab8:	89 c7                	mov    %eax,%edi
    7aba:	e8 36 b9 ff ff       	callq  33f5 <safe_mul_func_int16_t_s_s>
    7abf:	44 31 e0             	xor    %r12d,%eax
    7ac2:	98                   	cwtl   
    7ac3:	89 de                	mov    %ebx,%esi
    7ac5:	89 c7                	mov    %eax,%edi
    7ac7:	e8 29 b9 ff ff       	callq  33f5 <safe_mul_func_int16_t_s_s>
    7acc:	98                   	cwtl   
    7acd:	89 85 0c eb ff ff    	mov    %eax,-0x14f4(%rbp)
    7ad3:	0f b6 05 d7 97 00 00 	movzbl 0x97d7(%rip),%eax        # 112b1 <g_746+0x1>
    7ada:	83 c0 01             	add    $0x1,%eax
    7add:	88 05 ce 97 00 00    	mov    %al,0x97ce(%rip)        # 112b1 <g_746+0x1>
    7ae3:	8b 85 0c eb ff ff    	mov    -0x14f4(%rbp),%eax
    7ae9:	3d 98 ec 00 00       	cmp    $0xec98,%eax
    7aee:	0f 95 c0             	setne  %al
    7af1:	0f b6 c0             	movzbl %al,%eax
    7af4:	48 89 c7             	mov    %rax,%rdi
    7af7:	e8 1a bd ff ff       	callq  3816 <safe_unary_minus_func_int64_t_s>
    7afc:	48 83 f8 f8          	cmp    $0xfffffffffffffff8,%rax
    7b00:	74 38                	je     7b3a <func_41+0x1d0a>
    7b02:	eb 0c                	jmp    7b10 <func_41+0x1ce0>
    7b04:	48 8d 05 bd 97 00 00 	lea    0x97bd(%rip),%rax        # 112c8 <g_746+0x18>
    7b0b:	e9 70 1f 00 00       	jmpq   9a80 <func_41+0x3c50>
    7b10:	48 8b 0d 59 c1 00 00 	mov    0xc159(%rip),%rcx        # 13c70 <g_337>
    7b17:	48 8b 05 b2 97 00 00 	mov    0x97b2(%rip),%rax        # 112d0 <g_751>
    7b1e:	48 8b 15 b3 97 00 00 	mov    0x97b3(%rip),%rdx        # 112d8 <g_751+0x8>
    7b25:	48 89 01             	mov    %rax,(%rcx)
    7b28:	48 89 51 08          	mov    %rdx,0x8(%rcx)
    7b2c:	8b 05 ae 97 00 00    	mov    0x97ae(%rip),%eax        # 112e0 <g_751+0x10>
    7b32:	89 41 10             	mov    %eax,0x10(%rcx)
    7b35:	e9 8e 00 00 00       	jmpq   7bc8 <func_41+0x1d98>
    7b3a:	48 8b 85 78 ec ff ff 	mov    -0x1388(%rbp),%rax
    7b41:	48 3b 85 90 ec ff ff 	cmp    -0x1370(%rbp),%rax
    7b48:	0f 95 c2             	setne  %dl
    7b4b:	48 8b 85 a8 eb ff ff 	mov    -0x1458(%rbp),%rax
    7b52:	0f b6 d2             	movzbl %dl,%edx
    7b55:	89 10                	mov    %edx,(%rax)
    7b57:	48 c7 05 c6 97 00 00 	movq   $0x0,0x97c6(%rip)        # 11328 <g_755+0x28>
    7b5e:	00 00 00 00 
    7b62:	48 c7 05 c3 97 00 00 	movq   $0x0,0x97c3(%rip)        # 11330 <g_755+0x30>
    7b69:	00 00 00 00 
    7b6d:	c7 05 c1 97 00 00 00 	movl   $0x0,0x97c1(%rip)        # 11338 <g_755+0x38>
    7b74:	00 00 00 
    7b77:	0f b6 05 aa 97 00 00 	movzbl 0x97aa(%rip),%eax        # 11328 <g_755+0x28>
    7b7e:	83 e0 80             	and    $0xffffff80,%eax
    7b81:	83 c8 06             	or     $0x6,%eax
    7b84:	88 05 9e 97 00 00    	mov    %al,0x979e(%rip)        # 11328 <g_755+0x28>
    7b8a:	48 b8 72 73 3b f0 01 	movabs $0xe7125901f03b7372,%rax
    7b91:	59 12 e7 
    7b94:	48 89 05 91 97 00 00 	mov    %rax,0x9791(%rip)        # 1132c <g_755+0x2c>
    7b9b:	48 b8 51 51 58 6d d5 	movabs $0xcc8f09d56d585151,%rax
    7ba2:	09 8f cc 
    7ba5:	48 89 05 88 97 00 00 	mov    %rax,0x9788(%rip)        # 11334 <g_755+0x34>
    7bac:	eb 1a                	jmp    7bc8 <func_41+0x1d98>
    7bae:	48 8b 85 a8 eb ff ff 	mov    -0x1458(%rbp),%rax
    7bb5:	8b 08                	mov    (%rax),%ecx
    7bb7:	8b 95 0c eb ff ff    	mov    -0x14f4(%rbp),%edx
    7bbd:	48 8b 85 a8 eb ff ff 	mov    -0x1458(%rbp),%rax
    7bc4:	09 ca                	or     %ecx,%edx
    7bc6:	89 10                	mov    %edx,(%rax)
    7bc8:	c7 05 c2 95 00 00 00 	movl   $0x0,0x95c2(%rip)        # 11194 <g_498>
    7bcf:	00 00 00 
    7bd2:	90                   	nop
    7bd3:	8b 05 bb 95 00 00    	mov    0x95bb(%rip),%eax        # 11194 <g_498>
    7bd9:	83 f8 05             	cmp    $0x5,%eax
    7bdc:	0f 8f 25 01 00 00    	jg     7d07 <func_41+0x1ed7>
    7be2:	48 c7 85 b8 ec ff ff 	movq   $0x0,-0x1348(%rbp)
    7be9:	00 00 00 00 
    7bed:	48 8b 05 88 96 00 00 	mov    0x9688(%rip),%rax        # 1127c <g_712+0xc>
    7bf4:	48 85 c0             	test   %rax,%rax
    7bf7:	0f 95 c0             	setne  %al
    7bfa:	0f b6 c0             	movzbl %al,%eax
    7bfd:	39 85 64 eb ff ff    	cmp    %eax,-0x149c(%rbp)
    7c03:	0f 9d c2             	setge  %dl
    7c06:	48 8b 05 53 c0 00 00 	mov    0xc053(%rip),%rax        # 13c60 <g_266>
    7c0d:	0f b6 d2             	movzbl %dl,%edx
    7c10:	66 89 10             	mov    %dx,(%rax)
    7c13:	0f b7 00             	movzwl (%rax),%eax
    7c16:	0f b7 d8             	movzwl %ax,%ebx
    7c19:	8b 85 0c eb ff ff    	mov    -0x14f4(%rbp),%eax
    7c1f:	89 c7                	mov    %eax,%edi
    7c21:	0f b7 05 34 94 00 00 	movzwl 0x9434(%rip),%eax        # 1105c <g_126>
    7c28:	98                   	cwtl   
    7c29:	8d 50 01             	lea    0x1(%rax),%edx
    7c2c:	0f b7 05 29 94 00 00 	movzwl 0x9429(%rip),%eax        # 1105c <g_126>
    7c33:	98                   	cwtl   
    7c34:	8d 70 02             	lea    0x2(%rax),%esi
    7c37:	8b 05 57 95 00 00    	mov    0x9557(%rip),%eax        # 11194 <g_498>
    7c3d:	83 c0 01             	add    $0x1,%eax
    7c40:	48 63 c8             	movslq %eax,%rcx
    7c43:	48 63 d2             	movslq %edx,%rdx
    7c46:	48 63 f6             	movslq %esi,%rsi
    7c49:	48 89 d0             	mov    %rdx,%rax
    7c4c:	48 c1 e0 02          	shl    $0x2,%rax
    7c50:	48 01 d0             	add    %rdx,%rax
    7c53:	48 01 f0             	add    %rsi,%rax
    7c56:	48 c1 e0 03          	shl    $0x3,%rax
    7c5a:	48 8d 14 08          	lea    (%rax,%rcx,1),%rdx
    7c5e:	48 8d 05 5b 95 00 00 	lea    0x955b(%rip),%rax        # 111c0 <g_626>
    7c65:	48 01 d0             	add    %rdx,%rax
    7c68:	0f b6 00             	movzbl (%rax),%eax
    7c6b:	0f be c0             	movsbl %al,%eax
    7c6e:	89 fe                	mov    %edi,%esi
    7c70:	89 c7                	mov    %eax,%edi
    7c72:	e8 86 c2 ff ff       	callq  3efd <safe_mod_func_uint32_t_u_u>
    7c77:	8b 85 0c eb ff ff    	mov    -0x14f4(%rbp),%eax
    7c7d:	0f b7 c0             	movzwl %ax,%eax
    7c80:	89 de                	mov    %ebx,%esi
    7c82:	89 c7                	mov    %eax,%edi
    7c84:	e8 b4 c0 ff ff       	callq  3d3d <safe_mul_func_uint16_t_u_u>
    7c89:	48 8d 85 00 eb ff ff 	lea    -0x1500(%rbp),%rax
    7c90:	48 39 85 b8 ec ff ff 	cmp    %rax,-0x1348(%rbp)
    7c97:	0f 95 c0             	setne  %al
    7c9a:	0f b6 d0             	movzbl %al,%edx
    7c9d:	8b 0d f5 94 00 00    	mov    0x94f5(%rip),%ecx        # 11198 <g_586>
    7ca3:	8b 35 ef 94 00 00    	mov    0x94ef(%rip),%esi        # 11198 <g_586>
    7ca9:	8b 05 e9 94 00 00    	mov    0x94e9(%rip),%eax        # 11198 <g_586>
    7caf:	83 c0 01             	add    $0x1,%eax
    7cb2:	89 c7                	mov    %eax,%edi
    7cb4:	89 c9                	mov    %ecx,%ecx
    7cb6:	89 f6                	mov    %esi,%esi
    7cb8:	48 89 c8             	mov    %rcx,%rax
    7cbb:	48 c1 e0 02          	shl    $0x2,%rax
    7cbf:	48 01 c8             	add    %rcx,%rax
    7cc2:	48 01 f0             	add    %rsi,%rax
    7cc5:	48 c1 e0 03          	shl    $0x3,%rax
    7cc9:	48 8d 0c 38          	lea    (%rax,%rdi,1),%rcx
    7ccd:	48 8d 05 ec 94 00 00 	lea    0x94ec(%rip),%rax        # 111c0 <g_626>
    7cd4:	48 01 c8             	add    %rcx,%rax
    7cd7:	0f b6 00             	movzbl (%rax),%eax
    7cda:	0f be c8             	movsbl %al,%ecx
    7cdd:	8b 85 0c eb ff ff    	mov    -0x14f4(%rbp),%eax
    7ce3:	39 c1                	cmp    %eax,%ecx
    7ce5:	0f 9d c0             	setge  %al
    7ce8:	0f b6 c0             	movzbl %al,%eax
    7ceb:	39 c2                	cmp    %eax,%edx
    7ced:	7e 0c                	jle    7cfb <func_41+0x1ecb>
    7cef:	48 8b 85 00 eb ff ff 	mov    -0x1500(%rbp),%rax
    7cf6:	e9 85 1d 00 00       	jmpq   9a80 <func_41+0x3c50>
    7cfb:	48 8b 85 10 ec ff ff 	mov    -0x13f0(%rbp),%rax
    7d02:	e9 79 1d 00 00       	jmpq   9a80 <func_41+0x3c50>
    7d07:	c7 85 28 eb ff ff 00 	movl   $0x0,-0x14d8(%rbp)
    7d0e:	00 00 00 
    7d11:	e9 3f 0f 00 00       	jmpq   8c55 <func_41+0x2e25>
    7d16:	48 8d 05 ab c0 00 00 	lea    0xc0ab(%rip),%rax        # 13dc8 <g_522+0x148>
    7d1d:	48 89 85 10 f3 ff ff 	mov    %rax,-0xcf0(%rbp)
    7d24:	48 c7 85 18 f3 ff ff 	movq   $0x0,-0xce8(%rbp)
    7d2b:	00 00 00 00 
    7d2f:	48 c7 85 20 f3 ff ff 	movq   $0x0,-0xce0(%rbp)
    7d36:	00 00 00 00 
    7d3a:	48 8d 05 5f c0 00 00 	lea    0xc05f(%rip),%rax        # 13da0 <g_522+0x120>
    7d41:	48 89 85 28 f3 ff ff 	mov    %rax,-0xcd8(%rbp)
    7d48:	48 8d 05 51 c0 00 00 	lea    0xc051(%rip),%rax        # 13da0 <g_522+0x120>
    7d4f:	48 89 85 30 f3 ff ff 	mov    %rax,-0xcd0(%rbp)
    7d56:	8b 05 3c 94 00 00    	mov    0x943c(%rip),%eax        # 11198 <g_586>
    7d5c:	8d 48 01             	lea    0x1(%rax),%ecx
    7d5f:	8b 85 28 eb ff ff    	mov    -0x14d8(%rbp),%eax
    7d65:	83 c0 01             	add    $0x1,%eax
    7d68:	89 c2                	mov    %eax,%edx
    7d6a:	89 c8                	mov    %ecx,%eax
    7d6c:	48 c1 e0 03          	shl    $0x3,%rax
    7d70:	48 01 d0             	add    %rdx,%rax
    7d73:	48 8d 14 c5 00 00 00 	lea    0x0(,%rax,8),%rdx
    7d7a:	00 
    7d7b:	48 8d 05 fe be 00 00 	lea    0xbefe(%rip),%rax        # 13c80 <g_522>
    7d82:	48 01 d0             	add    %rdx,%rax
    7d85:	48 89 85 38 f3 ff ff 	mov    %rax,-0xcc8(%rbp)
    7d8c:	48 c7 85 40 f3 ff ff 	movq   $0x0,-0xcc0(%rbp)
    7d93:	00 00 00 00 
    7d97:	48 8d 85 c0 eb ff ff 	lea    -0x1440(%rbp),%rax
    7d9e:	48 89 85 48 f3 ff ff 	mov    %rax,-0xcb8(%rbp)
    7da5:	48 8d 85 c0 eb ff ff 	lea    -0x1440(%rbp),%rax
    7dac:	48 89 85 50 f3 ff ff 	mov    %rax,-0xcb0(%rbp)
    7db3:	48 8d 85 c0 eb ff ff 	lea    -0x1440(%rbp),%rax
    7dba:	48 89 85 58 f3 ff ff 	mov    %rax,-0xca8(%rbp)
    7dc1:	48 8d 05 d8 bf 00 00 	lea    0xbfd8(%rip),%rax        # 13da0 <g_522+0x120>
    7dc8:	48 89 85 60 f3 ff ff 	mov    %rax,-0xca0(%rbp)
    7dcf:	48 c7 85 68 f3 ff ff 	movq   $0x0,-0xc98(%rbp)
    7dd6:	00 00 00 00 
    7dda:	48 8d 05 e7 be 00 00 	lea    0xbee7(%rip),%rax        # 13cc8 <g_522+0x48>
    7de1:	48 89 85 70 f3 ff ff 	mov    %rax,-0xc90(%rbp)
    7de8:	48 8d 05 b1 bf 00 00 	lea    0xbfb1(%rip),%rax        # 13da0 <g_522+0x120>
    7def:	48 89 85 78 f3 ff ff 	mov    %rax,-0xc88(%rbp)
    7df6:	48 c7 85 80 f3 ff ff 	movq   $0x0,-0xc80(%rbp)
    7dfd:	00 00 00 00 
    7e01:	48 8d 05 98 bf 00 00 	lea    0xbf98(%rip),%rax        # 13da0 <g_522+0x120>
    7e08:	48 89 85 88 f3 ff ff 	mov    %rax,-0xc78(%rbp)
    7e0f:	48 8d 05 c2 be 00 00 	lea    0xbec2(%rip),%rax        # 13cd8 <g_522+0x58>
    7e16:	48 89 85 90 f3 ff ff 	mov    %rax,-0xc70(%rbp)
    7e1d:	8b 05 75 93 00 00    	mov    0x9375(%rip),%eax        # 11198 <g_586>
    7e23:	8d 48 01             	lea    0x1(%rax),%ecx
    7e26:	8b 85 28 eb ff ff    	mov    -0x14d8(%rbp),%eax
    7e2c:	83 c0 01             	add    $0x1,%eax
    7e2f:	89 c2                	mov    %eax,%edx
    7e31:	89 c8                	mov    %ecx,%eax
    7e33:	48 c1 e0 03          	shl    $0x3,%rax
    7e37:	48 01 d0             	add    %rdx,%rax
    7e3a:	48 8d 14 c5 00 00 00 	lea    0x0(,%rax,8),%rdx
    7e41:	00 
    7e42:	48 8d 05 37 be 00 00 	lea    0xbe37(%rip),%rax        # 13c80 <g_522>
    7e49:	48 01 d0             	add    %rdx,%rax
    7e4c:	48 89 85 98 f3 ff ff 	mov    %rax,-0xc68(%rbp)
    7e53:	48 8d 05 ee be 00 00 	lea    0xbeee(%rip),%rax        # 13d48 <g_522+0xc8>
    7e5a:	48 89 85 a0 f3 ff ff 	mov    %rax,-0xc60(%rbp)
    7e61:	8b 05 31 93 00 00    	mov    0x9331(%rip),%eax        # 11198 <g_586>
    7e67:	8d 48 01             	lea    0x1(%rax),%ecx
    7e6a:	8b 85 28 eb ff ff    	mov    -0x14d8(%rbp),%eax
    7e70:	83 c0 01             	add    $0x1,%eax
    7e73:	89 c2                	mov    %eax,%edx
    7e75:	89 c8                	mov    %ecx,%eax
    7e77:	48 c1 e0 03          	shl    $0x3,%rax
    7e7b:	48 01 d0             	add    %rdx,%rax
    7e7e:	48 8d 14 c5 00 00 00 	lea    0x0(,%rax,8),%rdx
    7e85:	00 
    7e86:	48 8d 05 f3 bd 00 00 	lea    0xbdf3(%rip),%rax        # 13c80 <g_522>
    7e8d:	48 01 d0             	add    %rdx,%rax
    7e90:	48 89 85 a8 f3 ff ff 	mov    %rax,-0xc58(%rbp)
    7e97:	48 8d 05 02 bf 00 00 	lea    0xbf02(%rip),%rax        # 13da0 <g_522+0x120>
    7e9e:	48 89 85 b0 f3 ff ff 	mov    %rax,-0xc50(%rbp)
    7ea5:	8b 05 ed 92 00 00    	mov    0x92ed(%rip),%eax        # 11198 <g_586>
    7eab:	8d 48 01             	lea    0x1(%rax),%ecx
    7eae:	8b 85 28 eb ff ff    	mov    -0x14d8(%rbp),%eax
    7eb4:	83 c0 01             	add    $0x1,%eax
    7eb7:	89 c2                	mov    %eax,%edx
    7eb9:	89 c8                	mov    %ecx,%eax
    7ebb:	48 c1 e0 03          	shl    $0x3,%rax
    7ebf:	48 01 d0             	add    %rdx,%rax
    7ec2:	48 8d 14 c5 00 00 00 	lea    0x0(,%rax,8),%rdx
    7ec9:	00 
    7eca:	48 8d 05 af bd 00 00 	lea    0xbdaf(%rip),%rax        # 13c80 <g_522>
    7ed1:	48 01 d0             	add    %rdx,%rax
    7ed4:	48 89 85 b8 f3 ff ff 	mov    %rax,-0xc48(%rbp)
    7edb:	48 8d 85 c0 eb ff ff 	lea    -0x1440(%rbp),%rax
    7ee2:	48 89 85 c0 f3 ff ff 	mov    %rax,-0xc40(%rbp)
    7ee9:	48 8d 05 d8 be 00 00 	lea    0xbed8(%rip),%rax        # 13dc8 <g_522+0x148>
    7ef0:	48 89 85 c8 f3 ff ff 	mov    %rax,-0xc38(%rbp)
    7ef7:	48 c7 85 d0 f3 ff ff 	movq   $0x0,-0xc30(%rbp)
    7efe:	00 00 00 00 
    7f02:	48 8d 85 c0 eb ff ff 	lea    -0x1440(%rbp),%rax
    7f09:	48 89 85 d8 f3 ff ff 	mov    %rax,-0xc28(%rbp)
    7f10:	48 8d 85 c0 eb ff ff 	lea    -0x1440(%rbp),%rax
    7f17:	48 89 85 e0 f3 ff ff 	mov    %rax,-0xc20(%rbp)
    7f1e:	48 8d 85 c0 eb ff ff 	lea    -0x1440(%rbp),%rax
    7f25:	48 89 85 e8 f3 ff ff 	mov    %rax,-0xc18(%rbp)
    7f2c:	48 8d 05 6d be 00 00 	lea    0xbe6d(%rip),%rax        # 13da0 <g_522+0x120>
    7f33:	48 89 85 f0 f3 ff ff 	mov    %rax,-0xc10(%rbp)
    7f3a:	48 8d 85 c0 eb ff ff 	lea    -0x1440(%rbp),%rax
    7f41:	48 89 85 f8 f3 ff ff 	mov    %rax,-0xc08(%rbp)
    7f48:	48 8d 85 c0 eb ff ff 	lea    -0x1440(%rbp),%rax
    7f4f:	48 89 85 00 f4 ff ff 	mov    %rax,-0xc00(%rbp)
    7f56:	48 8d 85 c0 eb ff ff 	lea    -0x1440(%rbp),%rax
    7f5d:	48 89 85 08 f4 ff ff 	mov    %rax,-0xbf8(%rbp)
    7f64:	48 c7 85 10 f4 ff ff 	movq   $0x0,-0xbf0(%rbp)
    7f6b:	00 00 00 00 
    7f6f:	48 8d 05 d2 bd 00 00 	lea    0xbdd2(%rip),%rax        # 13d48 <g_522+0xc8>
    7f76:	48 89 85 18 f4 ff ff 	mov    %rax,-0xbe8(%rbp)
    7f7d:	48 c7 85 20 f4 ff ff 	movq   $0x0,-0xbe0(%rbp)
    7f84:	00 00 00 00 
    7f88:	48 c7 85 28 f4 ff ff 	movq   $0x0,-0xbd8(%rbp)
    7f8f:	00 00 00 00 
    7f93:	48 8d 05 06 be 00 00 	lea    0xbe06(%rip),%rax        # 13da0 <g_522+0x120>
    7f9a:	48 89 85 30 f4 ff ff 	mov    %rax,-0xbd0(%rbp)
    7fa1:	48 8d 05 d0 bd 00 00 	lea    0xbdd0(%rip),%rax        # 13d78 <g_522+0xf8>
    7fa8:	48 89 85 38 f4 ff ff 	mov    %rax,-0xbc8(%rbp)
    7faf:	48 8d 05 12 be 00 00 	lea    0xbe12(%rip),%rax        # 13dc8 <g_522+0x148>
    7fb6:	48 89 85 40 f4 ff ff 	mov    %rax,-0xbc0(%rbp)
    7fbd:	8b 05 d5 91 00 00    	mov    0x91d5(%rip),%eax        # 11198 <g_586>
    7fc3:	8d 48 01             	lea    0x1(%rax),%ecx
    7fc6:	8b 85 28 eb ff ff    	mov    -0x14d8(%rbp),%eax
    7fcc:	83 c0 01             	add    $0x1,%eax
    7fcf:	89 c2                	mov    %eax,%edx
    7fd1:	89 c8                	mov    %ecx,%eax
    7fd3:	48 c1 e0 03          	shl    $0x3,%rax
    7fd7:	48 01 d0             	add    %rdx,%rax
    7fda:	48 8d 14 c5 00 00 00 	lea    0x0(,%rax,8),%rdx
    7fe1:	00 
    7fe2:	48 8d 05 97 bc 00 00 	lea    0xbc97(%rip),%rax        # 13c80 <g_522>
    7fe9:	48 01 d0             	add    %rdx,%rax
    7fec:	48 89 85 48 f4 ff ff 	mov    %rax,-0xbb8(%rbp)
    7ff3:	48 8d 05 a6 bd 00 00 	lea    0xbda6(%rip),%rax        # 13da0 <g_522+0x120>
    7ffa:	48 89 85 50 f4 ff ff 	mov    %rax,-0xbb0(%rbp)
    8001:	48 8d 05 40 bd 00 00 	lea    0xbd40(%rip),%rax        # 13d48 <g_522+0xc8>
    8008:	48 89 85 58 f4 ff ff 	mov    %rax,-0xba8(%rbp)
    800f:	8b 05 83 91 00 00    	mov    0x9183(%rip),%eax        # 11198 <g_586>
    8015:	8d 48 01             	lea    0x1(%rax),%ecx
    8018:	8b 85 28 eb ff ff    	mov    -0x14d8(%rbp),%eax
    801e:	83 c0 01             	add    $0x1,%eax
    8021:	89 c2                	mov    %eax,%edx
    8023:	89 c8                	mov    %ecx,%eax
    8025:	48 c1 e0 03          	shl    $0x3,%rax
    8029:	48 01 d0             	add    %rdx,%rax
    802c:	48 8d 14 c5 00 00 00 	lea    0x0(,%rax,8),%rdx
    8033:	00 
    8034:	48 8d 05 45 bc 00 00 	lea    0xbc45(%rip),%rax        # 13c80 <g_522>
    803b:	48 01 d0             	add    %rdx,%rax
    803e:	48 89 85 60 f4 ff ff 	mov    %rax,-0xba0(%rbp)
    8045:	48 8d 05 54 bd 00 00 	lea    0xbd54(%rip),%rax        # 13da0 <g_522+0x120>
    804c:	48 89 85 68 f4 ff ff 	mov    %rax,-0xb98(%rbp)
    8053:	48 8d 85 c0 eb ff ff 	lea    -0x1440(%rbp),%rax
    805a:	48 89 85 70 f4 ff ff 	mov    %rax,-0xb90(%rbp)
    8061:	8b 05 31 91 00 00    	mov    0x9131(%rip),%eax        # 11198 <g_586>
    8067:	8d 48 01             	lea    0x1(%rax),%ecx
    806a:	8b 85 28 eb ff ff    	mov    -0x14d8(%rbp),%eax
    8070:	83 c0 01             	add    $0x1,%eax
    8073:	89 c2                	mov    %eax,%edx
    8075:	89 c8                	mov    %ecx,%eax
    8077:	48 c1 e0 03          	shl    $0x3,%rax
    807b:	48 01 d0             	add    %rdx,%rax
    807e:	48 8d 14 c5 00 00 00 	lea    0x0(,%rax,8),%rdx
    8085:	00 
    8086:	48 8d 05 f3 bb 00 00 	lea    0xbbf3(%rip),%rax        # 13c80 <g_522>
    808d:	48 01 d0             	add    %rdx,%rax
    8090:	48 89 85 78 f4 ff ff 	mov    %rax,-0xb88(%rbp)
    8097:	48 c7 85 80 f4 ff ff 	movq   $0x0,-0xb80(%rbp)
    809e:	00 00 00 00 
    80a2:	48 8d 05 f7 bc 00 00 	lea    0xbcf7(%rip),%rax        # 13da0 <g_522+0x120>
    80a9:	48 89 85 88 f4 ff ff 	mov    %rax,-0xb78(%rbp)
    80b0:	48 8d 05 e9 bc 00 00 	lea    0xbce9(%rip),%rax        # 13da0 <g_522+0x120>
    80b7:	48 89 85 90 f4 ff ff 	mov    %rax,-0xb70(%rbp)
    80be:	48 8d 05 db bc 00 00 	lea    0xbcdb(%rip),%rax        # 13da0 <g_522+0x120>
    80c5:	48 89 85 98 f4 ff ff 	mov    %rax,-0xb68(%rbp)
    80cc:	48 8d 85 c0 eb ff ff 	lea    -0x1440(%rbp),%rax
    80d3:	48 89 85 a0 f4 ff ff 	mov    %rax,-0xb60(%rbp)
    80da:	48 c7 85 a8 f4 ff ff 	movq   $0x0,-0xb58(%rbp)
    80e1:	00 00 00 00 
    80e5:	8b 05 ad 90 00 00    	mov    0x90ad(%rip),%eax        # 11198 <g_586>
    80eb:	8d 48 01             	lea    0x1(%rax),%ecx
    80ee:	8b 85 28 eb ff ff    	mov    -0x14d8(%rbp),%eax
    80f4:	83 c0 01             	add    $0x1,%eax
    80f7:	89 c2                	mov    %eax,%edx
    80f9:	89 c8                	mov    %ecx,%eax
    80fb:	48 c1 e0 03          	shl    $0x3,%rax
    80ff:	48 01 d0             	add    %rdx,%rax
    8102:	48 8d 14 c5 00 00 00 	lea    0x0(,%rax,8),%rdx
    8109:	00 
    810a:	48 8d 05 6f bb 00 00 	lea    0xbb6f(%rip),%rax        # 13c80 <g_522>
    8111:	48 01 d0             	add    %rdx,%rax
    8114:	48 89 85 b0 f4 ff ff 	mov    %rax,-0xb50(%rbp)
    811b:	48 8d 85 c0 eb ff ff 	lea    -0x1440(%rbp),%rax
    8122:	48 89 85 b8 f4 ff ff 	mov    %rax,-0xb48(%rbp)
    8129:	48 8d 05 18 bc 00 00 	lea    0xbc18(%rip),%rax        # 13d48 <g_522+0xc8>
    8130:	48 89 85 c0 f4 ff ff 	mov    %rax,-0xb40(%rbp)
    8137:	48 8d 05 02 bc 00 00 	lea    0xbc02(%rip),%rax        # 13d40 <g_522+0xc0>
    813e:	48 89 85 c8 f4 ff ff 	mov    %rax,-0xb38(%rbp)
    8145:	48 8d 05 9c bb 00 00 	lea    0xbb9c(%rip),%rax        # 13ce8 <g_522+0x68>
    814c:	48 89 85 d0 f4 ff ff 	mov    %rax,-0xb30(%rbp)
    8153:	48 c7 85 d8 f4 ff ff 	movq   $0x0,-0xb28(%rbp)
    815a:	00 00 00 00 
    815e:	48 c7 85 e0 f4 ff ff 	movq   $0x0,-0xb20(%rbp)
    8165:	00 00 00 00 
    8169:	48 8d 05 30 bc 00 00 	lea    0xbc30(%rip),%rax        # 13da0 <g_522+0x120>
    8170:	48 89 85 e8 f4 ff ff 	mov    %rax,-0xb18(%rbp)
    8177:	8b 05 1b 90 00 00    	mov    0x901b(%rip),%eax        # 11198 <g_586>
    817d:	8d 48 01             	lea    0x1(%rax),%ecx
    8180:	8b 85 28 eb ff ff    	mov    -0x14d8(%rbp),%eax
    8186:	83 c0 01             	add    $0x1,%eax
    8189:	89 c2                	mov    %eax,%edx
    818b:	89 c8                	mov    %ecx,%eax
    818d:	48 c1 e0 03          	shl    $0x3,%rax
    8191:	48 01 d0             	add    %rdx,%rax
    8194:	48 8d 14 c5 00 00 00 	lea    0x0(,%rax,8),%rdx
    819b:	00 
    819c:	48 8d 05 dd ba 00 00 	lea    0xbadd(%rip),%rax        # 13c80 <g_522>
    81a3:	48 01 d0             	add    %rdx,%rax
    81a6:	48 89 85 f0 f4 ff ff 	mov    %rax,-0xb10(%rbp)
    81ad:	48 8d 85 c0 eb ff ff 	lea    -0x1440(%rbp),%rax
    81b4:	48 89 85 f8 f4 ff ff 	mov    %rax,-0xb08(%rbp)
    81bb:	8b 05 d7 8f 00 00    	mov    0x8fd7(%rip),%eax        # 11198 <g_586>
    81c1:	8d 48 01             	lea    0x1(%rax),%ecx
    81c4:	8b 85 28 eb ff ff    	mov    -0x14d8(%rbp),%eax
    81ca:	83 c0 01             	add    $0x1,%eax
    81cd:	89 c2                	mov    %eax,%edx
    81cf:	89 c8                	mov    %ecx,%eax
    81d1:	48 c1 e0 03          	shl    $0x3,%rax
    81d5:	48 01 d0             	add    %rdx,%rax
    81d8:	48 8d 14 c5 00 00 00 	lea    0x0(,%rax,8),%rdx
    81df:	00 
    81e0:	48 8d 05 99 ba 00 00 	lea    0xba99(%rip),%rax        # 13c80 <g_522>
    81e7:	48 01 d0             	add    %rdx,%rax
    81ea:	48 89 85 00 f5 ff ff 	mov    %rax,-0xb00(%rbp)
    81f1:	48 c7 85 08 f5 ff ff 	movq   $0x0,-0xaf8(%rbp)
    81f8:	00 00 00 00 
    81fc:	8b 05 96 8f 00 00    	mov    0x8f96(%rip),%eax        # 11198 <g_586>
    8202:	8d 48 01             	lea    0x1(%rax),%ecx
    8205:	8b 85 28 eb ff ff    	mov    -0x14d8(%rbp),%eax
    820b:	83 c0 01             	add    $0x1,%eax
    820e:	89 c2                	mov    %eax,%edx
    8210:	89 c8                	mov    %ecx,%eax
    8212:	48 c1 e0 03          	shl    $0x3,%rax
    8216:	48 01 d0             	add    %rdx,%rax
    8219:	48 8d 14 c5 00 00 00 	lea    0x0(,%rax,8),%rdx
    8220:	00 
    8221:	48 8d 05 58 ba 00 00 	lea    0xba58(%rip),%rax        # 13c80 <g_522>
    8228:	48 01 d0             	add    %rdx,%rax
    822b:	48 89 85 10 f5 ff ff 	mov    %rax,-0xaf0(%rbp)
    8232:	8b 05 60 8f 00 00    	mov    0x8f60(%rip),%eax        # 11198 <g_586>
    8238:	8d 48 01             	lea    0x1(%rax),%ecx
    823b:	8b 85 28 eb ff ff    	mov    -0x14d8(%rbp),%eax
    8241:	83 c0 01             	add    $0x1,%eax
    8244:	89 c2                	mov    %eax,%edx
    8246:	89 c8                	mov    %ecx,%eax
    8248:	48 c1 e0 03          	shl    $0x3,%rax
    824c:	48 01 d0             	add    %rdx,%rax
    824f:	48 8d 14 c5 00 00 00 	lea    0x0(,%rax,8),%rdx
    8256:	00 
    8257:	48 8d 05 22 ba 00 00 	lea    0xba22(%rip),%rax        # 13c80 <g_522>
    825e:	48 01 d0             	add    %rdx,%rax
    8261:	48 89 85 18 f5 ff ff 	mov    %rax,-0xae8(%rbp)
    8268:	48 8d 05 31 bb 00 00 	lea    0xbb31(%rip),%rax        # 13da0 <g_522+0x120>
    826f:	48 89 85 20 f5 ff ff 	mov    %rax,-0xae0(%rbp)
    8276:	48 8d 05 23 bb 00 00 	lea    0xbb23(%rip),%rax        # 13da0 <g_522+0x120>
    827d:	48 89 85 28 f5 ff ff 	mov    %rax,-0xad8(%rbp)
    8284:	8b 05 0e 8f 00 00    	mov    0x8f0e(%rip),%eax        # 11198 <g_586>
    828a:	8d 48 01             	lea    0x1(%rax),%ecx
    828d:	8b 85 28 eb ff ff    	mov    -0x14d8(%rbp),%eax
    8293:	83 c0 01             	add    $0x1,%eax
    8296:	89 c2                	mov    %eax,%edx
    8298:	89 c8                	mov    %ecx,%eax
    829a:	48 c1 e0 03          	shl    $0x3,%rax
    829e:	48 01 d0             	add    %rdx,%rax
    82a1:	48 8d 14 c5 00 00 00 	lea    0x0(,%rax,8),%rdx
    82a8:	00 
    82a9:	48 8d 05 d0 b9 00 00 	lea    0xb9d0(%rip),%rax        # 13c80 <g_522>
    82b0:	48 01 d0             	add    %rdx,%rax
    82b3:	48 89 85 30 f5 ff ff 	mov    %rax,-0xad0(%rbp)
    82ba:	8b 05 d8 8e 00 00    	mov    0x8ed8(%rip),%eax        # 11198 <g_586>
    82c0:	8d 48 01             	lea    0x1(%rax),%ecx
    82c3:	8b 85 28 eb ff ff    	mov    -0x14d8(%rbp),%eax
    82c9:	83 c0 01             	add    $0x1,%eax
    82cc:	89 c2                	mov    %eax,%edx
    82ce:	89 c8                	mov    %ecx,%eax
    82d0:	48 c1 e0 03          	shl    $0x3,%rax
    82d4:	48 01 d0             	add    %rdx,%rax
    82d7:	48 8d 14 c5 00 00 00 	lea    0x0(,%rax,8),%rdx
    82de:	00 
    82df:	48 8d 05 9a b9 00 00 	lea    0xb99a(%rip),%rax        # 13c80 <g_522>
    82e6:	48 01 d0             	add    %rdx,%rax
    82e9:	48 89 85 38 f5 ff ff 	mov    %rax,-0xac8(%rbp)
    82f0:	48 8d 85 c0 eb ff ff 	lea    -0x1440(%rbp),%rax
    82f7:	48 89 85 40 f5 ff ff 	mov    %rax,-0xac0(%rbp)
    82fe:	48 8d 85 c0 eb ff ff 	lea    -0x1440(%rbp),%rax
    8305:	48 89 85 48 f5 ff ff 	mov    %rax,-0xab8(%rbp)
    830c:	48 8d 05 8d ba 00 00 	lea    0xba8d(%rip),%rax        # 13da0 <g_522+0x120>
    8313:	48 89 85 50 f5 ff ff 	mov    %rax,-0xab0(%rbp)
    831a:	48 8d 85 c0 eb ff ff 	lea    -0x1440(%rbp),%rax
    8321:	48 89 85 58 f5 ff ff 	mov    %rax,-0xaa8(%rbp)
    8328:	48 8d 05 71 ba 00 00 	lea    0xba71(%rip),%rax        # 13da0 <g_522+0x120>
    832f:	48 89 85 60 f5 ff ff 	mov    %rax,-0xaa0(%rbp)
    8336:	48 8d 05 8b b9 00 00 	lea    0xb98b(%rip),%rax        # 13cc8 <g_522+0x48>
    833d:	48 89 85 68 f5 ff ff 	mov    %rax,-0xa98(%rbp)
    8344:	48 8d 85 c0 eb ff ff 	lea    -0x1440(%rbp),%rax
    834b:	48 89 85 70 f5 ff ff 	mov    %rax,-0xa90(%rbp)
    8352:	48 c7 85 78 f5 ff ff 	movq   $0x0,-0xa88(%rbp)
    8359:	00 00 00 00 
    835d:	8b 05 35 8e 00 00    	mov    0x8e35(%rip),%eax        # 11198 <g_586>
    8363:	8d 48 01             	lea    0x1(%rax),%ecx
    8366:	8b 85 28 eb ff ff    	mov    -0x14d8(%rbp),%eax
    836c:	83 c0 01             	add    $0x1,%eax
    836f:	89 c2                	mov    %eax,%edx
    8371:	89 c8                	mov    %ecx,%eax
    8373:	48 c1 e0 03          	shl    $0x3,%rax
    8377:	48 01 d0             	add    %rdx,%rax
    837a:	48 8d 14 c5 00 00 00 	lea    0x0(,%rax,8),%rdx
    8381:	00 
    8382:	48 8d 05 f7 b8 00 00 	lea    0xb8f7(%rip),%rax        # 13c80 <g_522>
    8389:	48 01 d0             	add    %rdx,%rax
    838c:	48 89 85 80 f5 ff ff 	mov    %rax,-0xa80(%rbp)
    8393:	48 8d 85 c0 eb ff ff 	lea    -0x1440(%rbp),%rax
    839a:	48 89 85 88 f5 ff ff 	mov    %rax,-0xa78(%rbp)
    83a1:	48 c7 85 90 f5 ff ff 	movq   $0x0,-0xa70(%rbp)
    83a8:	00 00 00 00 
    83ac:	8b 05 e6 8d 00 00    	mov    0x8de6(%rip),%eax        # 11198 <g_586>
    83b2:	8d 48 01             	lea    0x1(%rax),%ecx
    83b5:	8b 85 28 eb ff ff    	mov    -0x14d8(%rbp),%eax
    83bb:	83 c0 01             	add    $0x1,%eax
    83be:	89 c2                	mov    %eax,%edx
    83c0:	89 c8                	mov    %ecx,%eax
    83c2:	48 c1 e0 03          	shl    $0x3,%rax
    83c6:	48 01 d0             	add    %rdx,%rax
    83c9:	48 8d 14 c5 00 00 00 	lea    0x0(,%rax,8),%rdx
    83d0:	00 
    83d1:	48 8d 05 a8 b8 00 00 	lea    0xb8a8(%rip),%rax        # 13c80 <g_522>
    83d8:	48 01 d0             	add    %rdx,%rax
    83db:	48 89 85 98 f5 ff ff 	mov    %rax,-0xa68(%rbp)
    83e2:	8b 05 b0 8d 00 00    	mov    0x8db0(%rip),%eax        # 11198 <g_586>
    83e8:	8d 48 01             	lea    0x1(%rax),%ecx
    83eb:	8b 85 28 eb ff ff    	mov    -0x14d8(%rbp),%eax
    83f1:	83 c0 01             	add    $0x1,%eax
    83f4:	89 c2                	mov    %eax,%edx
    83f6:	89 c8                	mov    %ecx,%eax
    83f8:	48 c1 e0 03          	shl    $0x3,%rax
    83fc:	48 01 d0             	add    %rdx,%rax
    83ff:	48 8d 14 c5 00 00 00 	lea    0x0(,%rax,8),%rdx
    8406:	00 
    8407:	48 8d 05 72 b8 00 00 	lea    0xb872(%rip),%rax        # 13c80 <g_522>
    840e:	48 01 d0             	add    %rdx,%rax
    8411:	48 89 85 a0 f5 ff ff 	mov    %rax,-0xa60(%rbp)
    8418:	48 c7 85 a8 f5 ff ff 	movq   $0x0,-0xa58(%rbp)
    841f:	00 00 00 00 
    8423:	48 c7 85 b0 f5 ff ff 	movq   $0x0,-0xa50(%rbp)
    842a:	00 00 00 00 
    842e:	48 8d 05 6b b9 00 00 	lea    0xb96b(%rip),%rax        # 13da0 <g_522+0x120>
    8435:	48 89 85 b8 f5 ff ff 	mov    %rax,-0xa48(%rbp)
    843c:	48 8d 05 5d b9 00 00 	lea    0xb95d(%rip),%rax        # 13da0 <g_522+0x120>
    8443:	48 89 85 c0 f5 ff ff 	mov    %rax,-0xa40(%rbp)
    844a:	48 8d 85 c0 eb ff ff 	lea    -0x1440(%rbp),%rax
    8451:	48 89 85 c8 f5 ff ff 	mov    %rax,-0xa38(%rbp)
    8458:	48 8d 05 f9 b8 00 00 	lea    0xb8f9(%rip),%rax        # 13d58 <g_522+0xd8>
    845f:	48 89 85 d0 f5 ff ff 	mov    %rax,-0xa30(%rbp)
    8466:	48 c7 85 d8 f5 ff ff 	movq   $0x0,-0xa28(%rbp)
    846d:	00 00 00 00 
    8471:	8b 05 21 8d 00 00    	mov    0x8d21(%rip),%eax        # 11198 <g_586>
    8477:	8d 48 01             	lea    0x1(%rax),%ecx
    847a:	8b 85 28 eb ff ff    	mov    -0x14d8(%rbp),%eax
    8480:	83 c0 01             	add    $0x1,%eax
    8483:	89 c2                	mov    %eax,%edx
    8485:	89 c8                	mov    %ecx,%eax
    8487:	48 c1 e0 03          	shl    $0x3,%rax
    848b:	48 01 d0             	add    %rdx,%rax
    848e:	48 8d 14 c5 00 00 00 	lea    0x0(,%rax,8),%rdx
    8495:	00 
    8496:	48 8d 05 e3 b7 00 00 	lea    0xb7e3(%rip),%rax        # 13c80 <g_522>
    849d:	48 01 d0             	add    %rdx,%rax
    84a0:	48 89 85 e0 f5 ff ff 	mov    %rax,-0xa20(%rbp)
    84a7:	48 8d 85 c0 eb ff ff 	lea    -0x1440(%rbp),%rax
    84ae:	48 89 85 e8 f5 ff ff 	mov    %rax,-0xa18(%rbp)
    84b5:	48 c7 85 f0 f5 ff ff 	movq   $0x0,-0xa10(%rbp)
    84bc:	00 00 00 00 
    84c0:	48 8d 85 c0 eb ff ff 	lea    -0x1440(%rbp),%rax
    84c7:	48 89 85 f8 f5 ff ff 	mov    %rax,-0xa08(%rbp)
    84ce:	48 8d 05 cb b8 00 00 	lea    0xb8cb(%rip),%rax        # 13da0 <g_522+0x120>
    84d5:	48 89 85 00 f6 ff ff 	mov    %rax,-0xa00(%rbp)
    84dc:	48 8d 85 c0 eb ff ff 	lea    -0x1440(%rbp),%rax
    84e3:	48 89 85 08 f6 ff ff 	mov    %rax,-0x9f8(%rbp)
    84ea:	48 c7 85 10 f6 ff ff 	movq   $0x0,-0x9f0(%rbp)
    84f1:	00 00 00 00 
    84f5:	48 8d 05 a4 b8 00 00 	lea    0xb8a4(%rip),%rax        # 13da0 <g_522+0x120>
    84fc:	48 89 85 18 f6 ff ff 	mov    %rax,-0x9e8(%rbp)
    8503:	48 8d 05 96 b8 00 00 	lea    0xb896(%rip),%rax        # 13da0 <g_522+0x120>
    850a:	48 89 85 20 f6 ff ff 	mov    %rax,-0x9e0(%rbp)
    8511:	48 c7 85 28 f6 ff ff 	movq   $0x0,-0x9d8(%rbp)
    8518:	00 00 00 00 
    851c:	48 8d 05 7d b8 00 00 	lea    0xb87d(%rip),%rax        # 13da0 <g_522+0x120>
    8523:	48 89 85 30 f6 ff ff 	mov    %rax,-0x9d0(%rbp)
    852a:	48 8d 05 6f b8 00 00 	lea    0xb86f(%rip),%rax        # 13da0 <g_522+0x120>
    8531:	48 89 85 38 f6 ff ff 	mov    %rax,-0x9c8(%rbp)
    8538:	48 c7 85 40 f6 ff ff 	movq   $0x0,-0x9c0(%rbp)
    853f:	00 00 00 00 
    8543:	48 c7 85 48 f6 ff ff 	movq   $0x0,-0x9b8(%rbp)
    854a:	00 00 00 00 
    854e:	48 8d 05 7b b7 00 00 	lea    0xb77b(%rip),%rax        # 13cd0 <g_522+0x50>
    8555:	48 89 85 50 f6 ff ff 	mov    %rax,-0x9b0(%rbp)
    855c:	48 8d 05 1d b7 00 00 	lea    0xb71d(%rip),%rax        # 13c80 <g_522>
    8563:	48 89 85 58 f6 ff ff 	mov    %rax,-0x9a8(%rbp)
    856a:	48 8d 05 2f b8 00 00 	lea    0xb82f(%rip),%rax        # 13da0 <g_522+0x120>
    8571:	48 89 85 60 f6 ff ff 	mov    %rax,-0x9a0(%rbp)
    8578:	48 c7 85 68 f6 ff ff 	movq   $0x0,-0x998(%rbp)
    857f:	00 00 00 00 
    8583:	8b 05 0f 8c 00 00    	mov    0x8c0f(%rip),%eax        # 11198 <g_586>
    8589:	8d 48 01             	lea    0x1(%rax),%ecx
    858c:	8b 85 28 eb ff ff    	mov    -0x14d8(%rbp),%eax
    8592:	83 c0 01             	add    $0x1,%eax
    8595:	89 c2                	mov    %eax,%edx
    8597:	89 c8                	mov    %ecx,%eax
    8599:	48 c1 e0 03          	shl    $0x3,%rax
    859d:	48 01 d0             	add    %rdx,%rax
    85a0:	48 8d 14 c5 00 00 00 	lea    0x0(,%rax,8),%rdx
    85a7:	00 
    85a8:	48 8d 05 d1 b6 00 00 	lea    0xb6d1(%rip),%rax        # 13c80 <g_522>
    85af:	48 01 d0             	add    %rdx,%rax
    85b2:	48 89 85 70 f6 ff ff 	mov    %rax,-0x990(%rbp)
    85b9:	48 8d 85 c0 eb ff ff 	lea    -0x1440(%rbp),%rax
    85c0:	48 89 85 78 f6 ff ff 	mov    %rax,-0x988(%rbp)
    85c7:	48 8d 05 d2 b7 00 00 	lea    0xb7d2(%rip),%rax        # 13da0 <g_522+0x120>
    85ce:	48 89 85 80 f6 ff ff 	mov    %rax,-0x980(%rbp)
    85d5:	48 8d 85 c0 eb ff ff 	lea    -0x1440(%rbp),%rax
    85dc:	48 89 85 88 f6 ff ff 	mov    %rax,-0x978(%rbp)
    85e3:	48 8d 05 e6 b6 00 00 	lea    0xb6e6(%rip),%rax        # 13cd0 <g_522+0x50>
    85ea:	48 89 85 90 f6 ff ff 	mov    %rax,-0x970(%rbp)
    85f1:	48 8d 05 98 b6 00 00 	lea    0xb698(%rip),%rax        # 13c90 <g_522+0x10>
    85f8:	48 89 85 98 f6 ff ff 	mov    %rax,-0x968(%rbp)
    85ff:	48 8d 05 9a b7 00 00 	lea    0xb79a(%rip),%rax        # 13da0 <g_522+0x120>
    8606:	48 89 85 a0 f6 ff ff 	mov    %rax,-0x960(%rbp)
    860d:	8b 05 85 8b 00 00    	mov    0x8b85(%rip),%eax        # 11198 <g_586>
    8613:	8d 48 01             	lea    0x1(%rax),%ecx
    8616:	8b 85 28 eb ff ff    	mov    -0x14d8(%rbp),%eax
    861c:	83 c0 01             	add    $0x1,%eax
    861f:	89 c2                	mov    %eax,%edx
    8621:	89 c8                	mov    %ecx,%eax
    8623:	48 c1 e0 03          	shl    $0x3,%rax
    8627:	48 01 d0             	add    %rdx,%rax
    862a:	48 8d 14 c5 00 00 00 	lea    0x0(,%rax,8),%rdx
    8631:	00 
    8632:	48 8d 05 47 b6 00 00 	lea    0xb647(%rip),%rax        # 13c80 <g_522>
    8639:	48 01 d0             	add    %rdx,%rax
    863c:	48 89 85 a8 f6 ff ff 	mov    %rax,-0x958(%rbp)
    8643:	48 8d 05 56 b7 00 00 	lea    0xb756(%rip),%rax        # 13da0 <g_522+0x120>
    864a:	48 89 85 b0 f6 ff ff 	mov    %rax,-0x950(%rbp)
    8651:	48 8d 85 c0 eb ff ff 	lea    -0x1440(%rbp),%rax
    8658:	48 89 85 b8 f6 ff ff 	mov    %rax,-0x948(%rbp)
    865f:	48 8d 85 c0 eb ff ff 	lea    -0x1440(%rbp),%rax
    8666:	48 89 85 c0 f6 ff ff 	mov    %rax,-0x940(%rbp)
    866d:	48 8d 85 c0 eb ff ff 	lea    -0x1440(%rbp),%rax
    8674:	48 89 85 c8 f6 ff ff 	mov    %rax,-0x938(%rbp)
    867b:	48 8d 05 0e b6 00 00 	lea    0xb60e(%rip),%rax        # 13c90 <g_522+0x10>
    8682:	48 89 85 d0 f6 ff ff 	mov    %rax,-0x930(%rbp)
    8689:	48 8d 05 10 b7 00 00 	lea    0xb710(%rip),%rax        # 13da0 <g_522+0x120>
    8690:	48 89 85 d8 f6 ff ff 	mov    %rax,-0x928(%rbp)
    8697:	48 8d 05 2a b7 00 00 	lea    0xb72a(%rip),%rax        # 13dc8 <g_522+0x148>
    869e:	48 89 85 e0 f6 ff ff 	mov    %rax,-0x920(%rbp)
    86a5:	48 8d 05 44 b7 00 00 	lea    0xb744(%rip),%rax        # 13df0 <g_522+0x170>
    86ac:	48 89 85 e8 f6 ff ff 	mov    %rax,-0x918(%rbp)
    86b3:	48 c7 85 f0 f6 ff ff 	movq   $0x0,-0x910(%rbp)
    86ba:	00 00 00 00 
    86be:	48 c7 85 f8 f6 ff ff 	movq   $0x0,-0x908(%rbp)
    86c5:	00 00 00 00 
    86c9:	48 8d 05 d0 b6 00 00 	lea    0xb6d0(%rip),%rax        # 13da0 <g_522+0x120>
    86d0:	48 89 85 00 f7 ff ff 	mov    %rax,-0x900(%rbp)
    86d7:	48 8d 05 c2 b6 00 00 	lea    0xb6c2(%rip),%rax        # 13da0 <g_522+0x120>
    86de:	48 89 85 08 f7 ff ff 	mov    %rax,-0x8f8(%rbp)
    86e5:	48 8d 05 b4 b6 00 00 	lea    0xb6b4(%rip),%rax        # 13da0 <g_522+0x120>
    86ec:	48 89 85 10 f7 ff ff 	mov    %rax,-0x8f0(%rbp)
    86f3:	48 8d 85 c0 eb ff ff 	lea    -0x1440(%rbp),%rax
    86fa:	48 89 85 18 f7 ff ff 	mov    %rax,-0x8e8(%rbp)
    8701:	48 8d 05 78 b5 00 00 	lea    0xb578(%rip),%rax        # 13c80 <g_522>
    8708:	48 89 85 20 f7 ff ff 	mov    %rax,-0x8e0(%rbp)
    870f:	8b 05 83 8a 00 00    	mov    0x8a83(%rip),%eax        # 11198 <g_586>
    8715:	8d 48 01             	lea    0x1(%rax),%ecx
    8718:	8b 85 28 eb ff ff    	mov    -0x14d8(%rbp),%eax
    871e:	83 c0 01             	add    $0x1,%eax
    8721:	89 c2                	mov    %eax,%edx
    8723:	89 c8                	mov    %ecx,%eax
    8725:	48 c1 e0 03          	shl    $0x3,%rax
    8729:	48 01 d0             	add    %rdx,%rax
    872c:	48 8d 14 c5 00 00 00 	lea    0x0(,%rax,8),%rdx
    8733:	00 
    8734:	48 8d 05 45 b5 00 00 	lea    0xb545(%rip),%rax        # 13c80 <g_522>
    873b:	48 01 d0             	add    %rdx,%rax
    873e:	48 89 85 28 f7 ff ff 	mov    %rax,-0x8d8(%rbp)
    8745:	48 c7 85 30 f7 ff ff 	movq   $0x0,-0x8d0(%rbp)
    874c:	00 00 00 00 
    8750:	48 8d 05 49 b6 00 00 	lea    0xb649(%rip),%rax        # 13da0 <g_522+0x120>
    8757:	48 89 85 38 f7 ff ff 	mov    %rax,-0x8c8(%rbp)
    875e:	48 c7 85 40 f7 ff ff 	movq   $0x0,-0x8c0(%rbp)
    8765:	00 00 00 00 
    8769:	48 8d 05 30 b6 00 00 	lea    0xb630(%rip),%rax        # 13da0 <g_522+0x120>
    8770:	48 89 85 48 f7 ff ff 	mov    %rax,-0x8b8(%rbp)
    8777:	48 c7 85 50 f7 ff ff 	movq   $0x0,-0x8b0(%rbp)
    877e:	00 00 00 00 
    8782:	48 c7 85 58 f7 ff ff 	movq   $0x0,-0x8a8(%rbp)
    8789:	00 00 00 00 
    878d:	8b 05 05 8a 00 00    	mov    0x8a05(%rip),%eax        # 11198 <g_586>
    8793:	8d 48 01             	lea    0x1(%rax),%ecx
    8796:	8b 85 28 eb ff ff    	mov    -0x14d8(%rbp),%eax
    879c:	83 c0 01             	add    $0x1,%eax
    879f:	89 c2                	mov    %eax,%edx
    87a1:	89 c8                	mov    %ecx,%eax
    87a3:	48 c1 e0 03          	shl    $0x3,%rax
    87a7:	48 01 d0             	add    %rdx,%rax
    87aa:	48 8d 14 c5 00 00 00 	lea    0x0(,%rax,8),%rdx
    87b1:	00 
    87b2:	48 8d 05 c7 b4 00 00 	lea    0xb4c7(%rip),%rax        # 13c80 <g_522>
    87b9:	48 01 d0             	add    %rdx,%rax
    87bc:	48 89 85 60 f7 ff ff 	mov    %rax,-0x8a0(%rbp)
    87c3:	48 c7 85 68 f7 ff ff 	movq   $0x0,-0x898(%rbp)
    87ca:	00 00 00 00 
    87ce:	8b 05 c4 89 00 00    	mov    0x89c4(%rip),%eax        # 11198 <g_586>
    87d4:	8d 48 01             	lea    0x1(%rax),%ecx
    87d7:	8b 85 28 eb ff ff    	mov    -0x14d8(%rbp),%eax
    87dd:	83 c0 01             	add    $0x1,%eax
    87e0:	89 c2                	mov    %eax,%edx
    87e2:	89 c8                	mov    %ecx,%eax
    87e4:	48 c1 e0 03          	shl    $0x3,%rax
    87e8:	48 01 d0             	add    %rdx,%rax
    87eb:	48 8d 14 c5 00 00 00 	lea    0x0(,%rax,8),%rdx
    87f2:	00 
    87f3:	48 8d 05 86 b4 00 00 	lea    0xb486(%rip),%rax        # 13c80 <g_522>
    87fa:	48 01 d0             	add    %rdx,%rax
    87fd:	48 89 85 70 f7 ff ff 	mov    %rax,-0x890(%rbp)
    8804:	48 c7 85 78 f7 ff ff 	movq   $0x0,-0x888(%rbp)
    880b:	00 00 00 00 
    880f:	48 c7 85 80 f7 ff ff 	movq   $0x0,-0x880(%rbp)
    8816:	00 00 00 00 
    881a:	8b 05 78 89 00 00    	mov    0x8978(%rip),%eax        # 11198 <g_586>
    8820:	8d 48 01             	lea    0x1(%rax),%ecx
    8823:	8b 85 28 eb ff ff    	mov    -0x14d8(%rbp),%eax
    8829:	83 c0 01             	add    $0x1,%eax
    882c:	89 c2                	mov    %eax,%edx
    882e:	89 c8                	mov    %ecx,%eax
    8830:	48 c1 e0 03          	shl    $0x3,%rax
    8834:	48 01 d0             	add    %rdx,%rax
    8837:	48 8d 14 c5 00 00 00 	lea    0x0(,%rax,8),%rdx
    883e:	00 
    883f:	48 8d 05 3a b4 00 00 	lea    0xb43a(%rip),%rax        # 13c80 <g_522>
    8846:	48 01 d0             	add    %rdx,%rax
    8849:	48 89 85 88 f7 ff ff 	mov    %rax,-0x878(%rbp)
    8850:	48 8d 85 c0 eb ff ff 	lea    -0x1440(%rbp),%rax
    8857:	48 89 85 90 f7 ff ff 	mov    %rax,-0x870(%rbp)
    885e:	48 c7 85 98 f7 ff ff 	movq   $0x0,-0x868(%rbp)
    8865:	00 00 00 00 
    8869:	48 8d 05 30 b5 00 00 	lea    0xb530(%rip),%rax        # 13da0 <g_522+0x120>
    8870:	48 89 85 a0 f7 ff ff 	mov    %rax,-0x860(%rbp)
    8877:	48 8d 05 fa b4 00 00 	lea    0xb4fa(%rip),%rax        # 13d78 <g_522+0xf8>
    887e:	48 89 85 a8 f7 ff ff 	mov    %rax,-0x858(%rbp)
    8885:	48 8d 05 14 b5 00 00 	lea    0xb514(%rip),%rax        # 13da0 <g_522+0x120>
    888c:	48 89 85 b0 f7 ff ff 	mov    %rax,-0x850(%rbp)
    8893:	48 c7 85 b8 f7 ff ff 	movq   $0x0,-0x848(%rbp)
    889a:	00 00 00 00 
    889e:	48 8d 05 fb b4 00 00 	lea    0xb4fb(%rip),%rax        # 13da0 <g_522+0x120>
    88a5:	48 89 85 c0 f7 ff ff 	mov    %rax,-0x840(%rbp)
    88ac:	48 8d 85 c0 eb ff ff 	lea    -0x1440(%rbp),%rax
    88b3:	48 89 85 c8 f7 ff ff 	mov    %rax,-0x838(%rbp)
    88ba:	8b 05 d8 88 00 00    	mov    0x88d8(%rip),%eax        # 11198 <g_586>
    88c0:	8d 48 01             	lea    0x1(%rax),%ecx
    88c3:	8b 85 28 eb ff ff    	mov    -0x14d8(%rbp),%eax
    88c9:	83 c0 01             	add    $0x1,%eax
    88cc:	89 c2                	mov    %eax,%edx
    88ce:	89 c8                	mov    %ecx,%eax
    88d0:	48 c1 e0 03          	shl    $0x3,%rax
    88d4:	48 01 d0             	add    %rdx,%rax
    88d7:	48 8d 14 c5 00 00 00 	lea    0x0(,%rax,8),%rdx
    88de:	00 
    88df:	48 8d 05 9a b3 00 00 	lea    0xb39a(%rip),%rax        # 13c80 <g_522>
    88e6:	48 01 d0             	add    %rdx,%rax
    88e9:	48 89 85 d0 f7 ff ff 	mov    %rax,-0x830(%rbp)
    88f0:	8b 05 a2 88 00 00    	mov    0x88a2(%rip),%eax        # 11198 <g_586>
    88f6:	8d 48 01             	lea    0x1(%rax),%ecx
    88f9:	8b 85 28 eb ff ff    	mov    -0x14d8(%rbp),%eax
    88ff:	83 c0 01             	add    $0x1,%eax
    8902:	89 c2                	mov    %eax,%edx
    8904:	89 c8                	mov    %ecx,%eax
    8906:	48 c1 e0 03          	shl    $0x3,%rax
    890a:	48 01 d0             	add    %rdx,%rax
    890d:	48 8d 14 c5 00 00 00 	lea    0x0(,%rax,8),%rdx
    8914:	00 
    8915:	48 8d 05 64 b3 00 00 	lea    0xb364(%rip),%rax        # 13c80 <g_522>
    891c:	48 01 d0             	add    %rdx,%rax
    891f:	48 89 85 d8 f7 ff ff 	mov    %rax,-0x828(%rbp)
    8926:	48 8d 05 a3 b3 00 00 	lea    0xb3a3(%rip),%rax        # 13cd0 <g_522+0x50>
    892d:	48 89 85 e0 f7 ff ff 	mov    %rax,-0x820(%rbp)
    8934:	8b 05 5e 88 00 00    	mov    0x885e(%rip),%eax        # 11198 <g_586>
    893a:	8d 48 01             	lea    0x1(%rax),%ecx
    893d:	8b 85 28 eb ff ff    	mov    -0x14d8(%rbp),%eax
    8943:	83 c0 01             	add    $0x1,%eax
    8946:	89 c2                	mov    %eax,%edx
    8948:	89 c8                	mov    %ecx,%eax
    894a:	48 c1 e0 03          	shl    $0x3,%rax
    894e:	48 01 d0             	add    %rdx,%rax
    8951:	48 8d 14 c5 00 00 00 	lea    0x0(,%rax,8),%rdx
    8958:	00 
    8959:	48 8d 05 20 b3 00 00 	lea    0xb320(%rip),%rax        # 13c80 <g_522>
    8960:	48 01 d0             	add    %rdx,%rax
    8963:	48 89 85 e8 f7 ff ff 	mov    %rax,-0x818(%rbp)
    896a:	8b 05 28 88 00 00    	mov    0x8828(%rip),%eax        # 11198 <g_586>
    8970:	8d 48 01             	lea    0x1(%rax),%ecx
    8973:	8b 85 28 eb ff ff    	mov    -0x14d8(%rbp),%eax
    8979:	83 c0 01             	add    $0x1,%eax
    897c:	89 c2                	mov    %eax,%edx
    897e:	89 c8                	mov    %ecx,%eax
    8980:	48 c1 e0 03          	shl    $0x3,%rax
    8984:	48 01 d0             	add    %rdx,%rax
    8987:	48 8d 14 c5 00 00 00 	lea    0x0(,%rax,8),%rdx
    898e:	00 
    898f:	48 8d 05 ea b2 00 00 	lea    0xb2ea(%rip),%rax        # 13c80 <g_522>
    8996:	48 01 d0             	add    %rdx,%rax
    8999:	48 89 85 f0 f7 ff ff 	mov    %rax,-0x810(%rbp)
    89a0:	48 8d 05 f9 b3 00 00 	lea    0xb3f9(%rip),%rax        # 13da0 <g_522+0x120>
    89a7:	48 89 85 f8 f7 ff ff 	mov    %rax,-0x808(%rbp)
    89ae:	48 8d 85 c0 eb ff ff 	lea    -0x1440(%rbp),%rax
    89b5:	48 89 85 00 f8 ff ff 	mov    %rax,-0x800(%rbp)
    89bc:	48 8d 05 cd b2 00 00 	lea    0xb2cd(%rip),%rax        # 13c90 <g_522+0x10>
    89c3:	48 89 85 08 f8 ff ff 	mov    %rax,-0x7f8(%rbp)
    89ca:	48 8d 05 cf b3 00 00 	lea    0xb3cf(%rip),%rax        # 13da0 <g_522+0x120>
    89d1:	48 89 85 10 f8 ff ff 	mov    %rax,-0x7f0(%rbp)
    89d8:	48 c7 85 18 f8 ff ff 	movq   $0x0,-0x7e8(%rbp)
    89df:	00 00 00 00 
    89e3:	48 8d 85 c0 eb ff ff 	lea    -0x1440(%rbp),%rax
    89ea:	48 89 85 20 f8 ff ff 	mov    %rax,-0x7e0(%rbp)
    89f1:	48 8d 05 50 b3 00 00 	lea    0xb350(%rip),%rax        # 13d48 <g_522+0xc8>
    89f8:	48 89 85 28 f8 ff ff 	mov    %rax,-0x7d8(%rbp)
    89ff:	8b 05 93 87 00 00    	mov    0x8793(%rip),%eax        # 11198 <g_586>
    8a05:	8d 48 01             	lea    0x1(%rax),%ecx
    8a08:	8b 85 28 eb ff ff    	mov    -0x14d8(%rbp),%eax
    8a0e:	83 c0 01             	add    $0x1,%eax
    8a11:	89 c2                	mov    %eax,%edx
    8a13:	89 c8                	mov    %ecx,%eax
    8a15:	48 c1 e0 03          	shl    $0x3,%rax
    8a19:	48 01 d0             	add    %rdx,%rax
    8a1c:	48 8d 14 c5 00 00 00 	lea    0x0(,%rax,8),%rdx
    8a23:	00 
    8a24:	48 8d 05 55 b2 00 00 	lea    0xb255(%rip),%rax        # 13c80 <g_522>
    8a2b:	48 01 d0             	add    %rdx,%rax
    8a2e:	48 89 85 30 f8 ff ff 	mov    %rax,-0x7d0(%rbp)
    8a35:	8b 05 5d 87 00 00    	mov    0x875d(%rip),%eax        # 11198 <g_586>
    8a3b:	8d 48 01             	lea    0x1(%rax),%ecx
    8a3e:	8b 85 28 eb ff ff    	mov    -0x14d8(%rbp),%eax
    8a44:	83 c0 01             	add    $0x1,%eax
    8a47:	89 c2                	mov    %eax,%edx
    8a49:	89 c8                	mov    %ecx,%eax
    8a4b:	48 c1 e0 03          	shl    $0x3,%rax
    8a4f:	48 01 d0             	add    %rdx,%rax
    8a52:	48 8d 14 c5 00 00 00 	lea    0x0(,%rax,8),%rdx
    8a59:	00 
    8a5a:	48 8d 05 1f b2 00 00 	lea    0xb21f(%rip),%rax        # 13c80 <g_522>
    8a61:	48 01 d0             	add    %rdx,%rax
    8a64:	48 89 85 38 f8 ff ff 	mov    %rax,-0x7c8(%rbp)
    8a6b:	48 8d 05 5e b2 00 00 	lea    0xb25e(%rip),%rax        # 13cd0 <g_522+0x50>
    8a72:	48 89 85 40 f8 ff ff 	mov    %rax,-0x7c0(%rbp)
    8a79:	48 c7 85 48 f8 ff ff 	movq   $0x0,-0x7b8(%rbp)
    8a80:	00 00 00 00 
    8a84:	c7 85 8c eb ff ff 16 	movl   $0xe751b116,-0x1474(%rbp)
    8a8b:	b1 51 e7 
    8a8e:	c7 85 40 eb ff ff 00 	movl   $0x0,-0x14c0(%rbp)
    8a95:	00 00 00 
    8a98:	eb 1a                	jmp    8ab4 <func_41+0x2c84>
    8a9a:	8b 85 40 eb ff ff    	mov    -0x14c0(%rbp),%eax
    8aa0:	48 98                	cltq   
    8aa2:	c7 84 85 c8 ec ff ff 	movl   $0xfffffff6,-0x1338(%rbp,%rax,4)
    8aa9:	f6 ff ff ff 
    8aad:	83 85 40 eb ff ff 01 	addl   $0x1,-0x14c0(%rbp)
    8ab4:	83 bd 40 eb ff ff 01 	cmpl   $0x1,-0x14c0(%rbp)
    8abb:	7e dd                	jle    8a9a <func_41+0x2c6a>
    8abd:	8b 85 0c eb ff ff    	mov    -0x14f4(%rbp),%eax
    8ac3:	85 c0                	test   %eax,%eax
    8ac5:	0f 85 9a 01 00 00    	jne    8c65 <func_41+0x2e35>
    8acb:	8b 05 c3 86 00 00    	mov    0x86c3(%rip),%eax        # 11194 <g_498>
    8ad1:	48 63 d8             	movslq %eax,%rbx
    8ad4:	48 8b 05 85 b1 00 00 	mov    0xb185(%rip),%rax        # 13c60 <g_266>
    8adb:	0f b7 10             	movzwl (%rax),%edx
    8ade:	8d 4a 01             	lea    0x1(%rdx),%ecx
    8ae1:	66 89 08             	mov    %cx,(%rax)
    8ae4:	0f b7 d2             	movzwl %dx,%edx
    8ae7:	48 8b 85 c0 eb ff ff 	mov    -0x1440(%rbp),%rax
    8aee:	48 89 85 80 ec ff ff 	mov    %rax,-0x1380(%rbp)
    8af5:	48 8b 85 80 ec ff ff 	mov    -0x1380(%rbp),%rax
    8afc:	48 3b 85 d0 eb ff ff 	cmp    -0x1430(%rbp),%rax
    8b03:	0f 95 c0             	setne  %al
    8b06:	0f b6 c0             	movzbl %al,%eax
    8b09:	39 c2                	cmp    %eax,%edx
    8b0b:	0f 9d c0             	setge  %al
    8b0e:	44 0f b6 f0          	movzbl %al,%r14d
    8b12:	8b 85 cc ec ff ff    	mov    -0x1334(%rbp),%eax
    8b18:	44 0f b6 e0          	movzbl %al,%r12d
    8b1c:	0f b7 85 1c eb ff ff 	movzwl -0x14e4(%rbp),%eax
    8b23:	44 0f bf e8          	movswl %ax,%r13d
    8b27:	8b 85 0c eb ff ff    	mov    -0x14f4(%rbp),%eax
    8b2d:	0f b7 d0             	movzwl %ax,%edx
    8b30:	48 8b 85 f8 eb ff ff 	mov    -0x1408(%rbp),%rax
    8b37:	8b 00                	mov    (%rax),%eax
    8b39:	0f b7 c0             	movzwl %ax,%eax
    8b3c:	89 d6                	mov    %edx,%esi
    8b3e:	89 c7                	mov    %eax,%edi
    8b40:	e8 f8 b1 ff ff       	callq  3d3d <safe_mul_func_uint16_t_u_u>
    8b45:	48 8b 85 00 eb ff ff 	mov    -0x1500(%rbp),%rax
    8b4c:	0f b6 00             	movzbl (%rax),%eax
    8b4f:	3c 01                	cmp    $0x1,%al
    8b51:	0f 97 c0             	seta   %al
    8b54:	0f b6 d0             	movzbl %al,%edx
    8b57:	8b 85 0c eb ff ff    	mov    -0x14f4(%rbp),%eax
    8b5d:	39 c2                	cmp    %eax,%edx
    8b5f:	0f 9e c0             	setle  %al
    8b62:	0f b6 c0             	movzbl %al,%eax
    8b65:	09 85 8c eb ff ff    	or     %eax,-0x1474(%rbp)
    8b6b:	be 0f 00 00 00       	mov    $0xf,%esi
    8b70:	bf 01 00 00 00       	mov    $0x1,%edi
    8b75:	e8 ce b2 ff ff       	callq  3e48 <safe_rshift_func_uint16_t_u_s>
    8b7a:	48 8b 05 37 86 00 00 	mov    0x8637(%rip),%rax        # 111b8 <g_624>
    8b81:	98                   	cwtl   
    8b82:	44 89 ee             	mov    %r13d,%esi
    8b85:	89 c7                	mov    %eax,%edi
    8b87:	e8 27 a8 ff ff       	callq  33b3 <safe_add_func_int16_t_s_s>
    8b8c:	8b 95 34 ed ff ff    	mov    -0x12cc(%rbp),%edx
    8b92:	8b 85 0c eb ff ff    	mov    -0x14f4(%rbp),%eax
    8b98:	09 c2                	or     %eax,%edx
    8b9a:	0f b6 05 d4 84 00 00 	movzbl 0x84d4(%rip),%eax        # 11075 <g_181>
    8ba1:	0f b6 c0             	movzbl %al,%eax
    8ba4:	39 c2                	cmp    %eax,%edx
    8ba6:	0f 9e c0             	setle  %al
    8ba9:	0f b6 c0             	movzbl %al,%eax
    8bac:	44 89 e6             	mov    %r12d,%esi
    8baf:	89 c7                	mov    %eax,%edi
    8bb1:	e8 f8 af ff ff       	callq  3bae <safe_mod_func_uint8_t_u_u>
    8bb6:	0f b6 c0             	movzbl %al,%eax
    8bb9:	44 31 f0             	xor    %r14d,%eax
    8bbc:	48 98                	cltq   
    8bbe:	48 89 05 7b b7 00 00 	mov    %rax,0xb77b(%rip)        # 14340 <g_225>
    8bc5:	48 8b 05 74 b7 00 00 	mov    0xb774(%rip),%rax        # 14340 <g_225>
    8bcc:	48 89 de             	mov    %rbx,%rsi
    8bcf:	48 89 c7             	mov    %rax,%rdi
    8bd2:	e8 74 b4 ff ff       	callq  404b <safe_sub_func_uint64_t_u_u>
    8bd7:	48 85 c0             	test   %rax,%rax
    8bda:	74 33                	je     8c0f <func_41+0x2ddf>
    8bdc:	48 8d 85 10 ed ff ff 	lea    -0x12f0(%rbp),%rax
    8be3:	48 83 c0 14          	add    $0x14,%rax
    8be7:	48 89 85 b0 ec ff ff 	mov    %rax,-0x1350(%rbp)
    8bee:	48 8b 05 63 b0 00 00 	mov    0xb063(%rip),%rax        # 13c58 <g_168>
    8bf5:	48 8d 95 c8 ec ff ff 	lea    -0x1338(%rbp),%rdx
    8bfc:	48 83 c2 04          	add    $0x4,%rdx
    8c00:	48 89 10             	mov    %rdx,(%rax)
    8c03:	48 8b 00             	mov    (%rax),%rax
    8c06:	48 89 85 b0 ec ff ff 	mov    %rax,-0x1350(%rbp)
    8c0d:	eb 37                	jmp    8c46 <func_41+0x2e16>
    8c0f:	48 8b 85 c0 eb ff ff 	mov    -0x1440(%rbp),%rax
    8c16:	48 8b 30             	mov    (%rax),%rsi
    8c19:	48 8b 85 c0 eb ff ff 	mov    -0x1440(%rbp),%rax
    8c20:	48 8b 08             	mov    (%rax),%rcx
    8c23:	48 8b 06             	mov    (%rsi),%rax
    8c26:	48 8b 56 08          	mov    0x8(%rsi),%rdx
    8c2a:	48 89 01             	mov    %rax,(%rcx)
    8c2d:	48 89 51 08          	mov    %rdx,0x8(%rcx)
    8c31:	8b 46 10             	mov    0x10(%rsi),%eax
    8c34:	89 41 10             	mov    %eax,0x10(%rcx)
    8c37:	8b 95 0c eb ff ff    	mov    -0x14f4(%rbp),%edx
    8c3d:	48 8b 85 f8 eb ff ff 	mov    -0x1408(%rbp),%rax
    8c44:	89 10                	mov    %edx,(%rax)
    8c46:	8b 85 28 eb ff ff    	mov    -0x14d8(%rbp),%eax
    8c4c:	83 c0 01             	add    $0x1,%eax
    8c4f:	89 85 28 eb ff ff    	mov    %eax,-0x14d8(%rbp)
    8c55:	8b 85 28 eb ff ff    	mov    -0x14d8(%rbp),%eax
    8c5b:	85 c0                	test   %eax,%eax
    8c5d:	0f 84 b3 f0 ff ff    	je     7d16 <func_41+0x1ee6>
    8c63:	eb 01                	jmp    8c66 <func_41+0x2e36>
    8c65:	90                   	nop
    8c66:	0f b7 05 ef 83 00 00 	movzwl 0x83ef(%rip),%eax        # 1105c <g_126>
    8c6d:	83 e8 01             	sub    $0x1,%eax
    8c70:	66 89 05 e5 83 00 00 	mov    %ax,0x83e5(%rip)        # 1105c <g_126>
    8c77:	0f b7 05 de 83 00 00 	movzwl 0x83de(%rip),%eax        # 1105c <g_126>
    8c7e:	66 85 c0             	test   %ax,%ax
    8c81:	0f 89 b9 e3 ff ff    	jns    7040 <func_41+0x1210>
    8c87:	be 03 00 00 00       	mov    $0x3,%esi
    8c8c:	bf 02 00 00 00       	mov    $0x2,%edi
    8c91:	e8 b6 af ff ff       	callq  3c4c <safe_lshift_func_uint8_t_u_u>
    8c96:	48 8b 85 38 ec ff ff 	mov    -0x13c8(%rbp),%rax
    8c9d:	48 8b 10             	mov    (%rax),%rdx
    8ca0:	48 8b 85 38 ec ff ff 	mov    -0x13c8(%rbp),%rax
    8ca7:	48 89 10             	mov    %rdx,(%rax)
    8caa:	48 8b 85 00 eb ff ff 	mov    -0x1500(%rbp),%rax
    8cb1:	e9 ca 0d 00 00       	jmpq   9a80 <func_41+0x3c50>
    8cb6:	48 8d 85 24 eb ff ff 	lea    -0x14dc(%rbp),%rax
    8cbd:	48 89 85 a8 eb ff ff 	mov    %rax,-0x1458(%rbp)
    8cc4:	48 8b 85 00 eb ff ff 	mov    -0x1500(%rbp),%rax
    8ccb:	e9 b0 0d 00 00       	jmpq   9a80 <func_41+0x3c50>
    8cd0:	48 8b 85 a8 eb ff ff 	mov    -0x1458(%rbp),%rax
    8cd7:	8b 18                	mov    (%rax),%ebx
    8cd9:	48 8b 05 48 83 00 00 	mov    0x8348(%rip),%rax        # 11028 <g_4>
    8ce0:	0f be c0             	movsbl %al,%eax
    8ce3:	be b4 ff ff ff       	mov    $0xffffffb4,%esi
    8ce8:	89 c7                	mov    %eax,%edi
    8cea:	e8 42 a5 ff ff       	callq  3231 <safe_mod_func_int8_t_s_s>
    8cef:	0f be c0             	movsbl %al,%eax
    8cf2:	21 d8                	and    %ebx,%eax
    8cf4:	4c 63 e0             	movslq %eax,%r12
    8cf7:	8b 85 0c eb ff ff    	mov    -0x14f4(%rbp),%eax
    8cfd:	48 63 d8             	movslq %eax,%rbx
    8d00:	48 8b 85 a8 eb ff ff 	mov    -0x1458(%rbp),%rax
    8d07:	8b 00                	mov    (%rax),%eax
    8d09:	66 35 76 44          	xor    $0x4476,%ax
    8d0d:	0f bf d0             	movswl %ax,%edx
    8d10:	48 8b 8d b0 eb ff ff 	mov    -0x1450(%rbp),%rcx
    8d17:	48 8b 85 e0 eb ff ff 	mov    -0x1420(%rbp),%rax
    8d1e:	48 89 08             	mov    %rcx,(%rax)
    8d21:	48 8b 85 e0 eb ff ff 	mov    -0x1420(%rbp),%rax
    8d28:	48 8b 00             	mov    (%rax),%rax
    8d2b:	48 39 85 f0 eb ff ff 	cmp    %rax,-0x1410(%rbp)
    8d32:	0f 95 c0             	setne  %al
    8d35:	0f b6 c0             	movzbl %al,%eax
    8d38:	89 d6                	mov    %edx,%esi
    8d3a:	89 c7                	mov    %eax,%edi
    8d3c:	e8 d5 a6 ff ff       	callq  3416 <safe_mod_func_int16_t_s_s>
    8d41:	0f bf d0             	movswl %ax,%edx
    8d44:	8b 85 0c eb ff ff    	mov    -0x14f4(%rbp),%eax
    8d4a:	09 c2                	or     %eax,%edx
    8d4c:	8b 85 0c eb ff ff    	mov    -0x14f4(%rbp),%eax
    8d52:	39 c2                	cmp    %eax,%edx
    8d54:	7f 12                	jg     8d68 <func_41+0x2f38>
    8d56:	0f b6 05 d4 82 00 00 	movzbl 0x82d4(%rip),%eax        # 11031 <g_30>
    8d5d:	84 c0                	test   %al,%al
    8d5f:	74 07                	je     8d68 <func_41+0x2f38>
    8d61:	b8 01 00 00 00       	mov    $0x1,%eax
    8d66:	eb 05                	jmp    8d6d <func_41+0x2f3d>
    8d68:	b8 00 00 00 00       	mov    $0x0,%eax
    8d6d:	3d 71 74 00 00       	cmp    $0x7471,%eax
    8d72:	0f 9e c0             	setle  %al
    8d75:	0f b6 c0             	movzbl %al,%eax
    8d78:	89 c6                	mov    %eax,%esi
    8d7a:	bf 1a 41 00 00       	mov    $0x411a,%edi
    8d7f:	e8 9b af ff ff       	callq  3d1f <safe_sub_func_uint16_t_u_u>
    8d84:	48 8b 85 f8 eb ff ff 	mov    -0x1408(%rbp),%rax
    8d8b:	8b 00                	mov    (%rax),%eax
    8d8d:	be 09 00 00 00       	mov    $0x9,%esi
    8d92:	89 c7                	mov    %eax,%edi
    8d94:	e8 33 a9 ff ff       	callq  36cc <safe_mod_func_int32_t_s_s>
    8d99:	48 98                	cltq   
    8d9b:	48 89 de             	mov    %rbx,%rsi
    8d9e:	48 89 c7             	mov    %rax,%rdi
    8da1:	e8 9b aa ff ff       	callq  3841 <safe_add_func_int64_t_s_s>
    8da6:	49 39 c4             	cmp    %rax,%r12
    8da9:	0f 8d b9 0c 00 00    	jge    9a68 <func_41+0x3c38>
    8daf:	48 8d 05 a6 82 00 00 	lea    0x82a6(%rip),%rax        # 1105c <g_126>
    8db6:	48 89 85 c8 eb ff ff 	mov    %rax,-0x1438(%rbp)
    8dbd:	48 8d 85 c8 eb ff ff 	lea    -0x1438(%rbp),%rax
    8dc4:	48 89 85 50 f8 ff ff 	mov    %rax,-0x7b0(%rbp)
    8dcb:	48 8d 85 c8 eb ff ff 	lea    -0x1438(%rbp),%rax
    8dd2:	48 89 85 58 f8 ff ff 	mov    %rax,-0x7a8(%rbp)
    8dd9:	48 8d 85 c8 eb ff ff 	lea    -0x1438(%rbp),%rax
    8de0:	48 89 85 60 f8 ff ff 	mov    %rax,-0x7a0(%rbp)
    8de7:	48 8d 85 c8 eb ff ff 	lea    -0x1438(%rbp),%rax
    8dee:	48 89 85 68 f8 ff ff 	mov    %rax,-0x798(%rbp)
    8df5:	48 8d 85 c8 eb ff ff 	lea    -0x1438(%rbp),%rax
    8dfc:	48 89 85 70 f8 ff ff 	mov    %rax,-0x790(%rbp)
    8e03:	48 8d 85 c8 eb ff ff 	lea    -0x1438(%rbp),%rax
    8e0a:	48 89 85 78 f8 ff ff 	mov    %rax,-0x788(%rbp)
    8e11:	48 c7 85 80 f8 ff ff 	movq   $0x0,-0x780(%rbp)
    8e18:	00 00 00 00 
    8e1c:	48 8d 85 c8 eb ff ff 	lea    -0x1438(%rbp),%rax
    8e23:	48 89 85 88 f8 ff ff 	mov    %rax,-0x778(%rbp)
    8e2a:	48 8d 85 c8 eb ff ff 	lea    -0x1438(%rbp),%rax
    8e31:	48 89 85 90 f8 ff ff 	mov    %rax,-0x770(%rbp)
    8e38:	48 c7 85 98 f8 ff ff 	movq   $0x0,-0x768(%rbp)
    8e3f:	00 00 00 00 
    8e43:	48 8d 85 c8 eb ff ff 	lea    -0x1438(%rbp),%rax
    8e4a:	48 89 85 a0 f8 ff ff 	mov    %rax,-0x760(%rbp)
    8e51:	48 8d 85 c8 eb ff ff 	lea    -0x1438(%rbp),%rax
    8e58:	48 89 85 a8 f8 ff ff 	mov    %rax,-0x758(%rbp)
    8e5f:	48 8d 85 c8 eb ff ff 	lea    -0x1438(%rbp),%rax
    8e66:	48 89 85 b0 f8 ff ff 	mov    %rax,-0x750(%rbp)
    8e6d:	48 8d 85 c8 eb ff ff 	lea    -0x1438(%rbp),%rax
    8e74:	48 89 85 b8 f8 ff ff 	mov    %rax,-0x748(%rbp)
    8e7b:	48 8d 85 c8 eb ff ff 	lea    -0x1438(%rbp),%rax
    8e82:	48 89 85 c0 f8 ff ff 	mov    %rax,-0x740(%rbp)
    8e89:	48 8d 85 c8 eb ff ff 	lea    -0x1438(%rbp),%rax
    8e90:	48 89 85 c8 f8 ff ff 	mov    %rax,-0x738(%rbp)
    8e97:	48 8d 85 c8 eb ff ff 	lea    -0x1438(%rbp),%rax
    8e9e:	48 89 85 d0 f8 ff ff 	mov    %rax,-0x730(%rbp)
    8ea5:	48 8d 85 c8 eb ff ff 	lea    -0x1438(%rbp),%rax
    8eac:	48 89 85 d8 f8 ff ff 	mov    %rax,-0x728(%rbp)
    8eb3:	48 8d 85 c8 eb ff ff 	lea    -0x1438(%rbp),%rax
    8eba:	48 89 85 e0 f8 ff ff 	mov    %rax,-0x720(%rbp)
    8ec1:	48 c7 85 e8 f8 ff ff 	movq   $0x0,-0x718(%rbp)
    8ec8:	00 00 00 00 
    8ecc:	48 8d 85 c8 eb ff ff 	lea    -0x1438(%rbp),%rax
    8ed3:	48 89 85 f0 f8 ff ff 	mov    %rax,-0x710(%rbp)
    8eda:	48 c7 85 f8 f8 ff ff 	movq   $0x0,-0x708(%rbp)
    8ee1:	00 00 00 00 
    8ee5:	48 8d 85 c8 eb ff ff 	lea    -0x1438(%rbp),%rax
    8eec:	48 89 85 00 f9 ff ff 	mov    %rax,-0x700(%rbp)
    8ef3:	48 c7 85 08 f9 ff ff 	movq   $0x0,-0x6f8(%rbp)
    8efa:	00 00 00 00 
    8efe:	48 c7 85 10 f9 ff ff 	movq   $0x0,-0x6f0(%rbp)
    8f05:	00 00 00 00 
    8f09:	48 c7 85 18 f9 ff ff 	movq   $0x0,-0x6e8(%rbp)
    8f10:	00 00 00 00 
    8f14:	48 8d 85 c8 eb ff ff 	lea    -0x1438(%rbp),%rax
    8f1b:	48 89 85 20 f9 ff ff 	mov    %rax,-0x6e0(%rbp)
    8f22:	48 8d 85 c8 eb ff ff 	lea    -0x1438(%rbp),%rax
    8f29:	48 89 85 28 f9 ff ff 	mov    %rax,-0x6d8(%rbp)
    8f30:	48 8d 85 c8 eb ff ff 	lea    -0x1438(%rbp),%rax
    8f37:	48 89 85 30 f9 ff ff 	mov    %rax,-0x6d0(%rbp)
    8f3e:	48 8d 85 c8 eb ff ff 	lea    -0x1438(%rbp),%rax
    8f45:	48 89 85 38 f9 ff ff 	mov    %rax,-0x6c8(%rbp)
    8f4c:	48 8d 85 c8 eb ff ff 	lea    -0x1438(%rbp),%rax
    8f53:	48 89 85 40 f9 ff ff 	mov    %rax,-0x6c0(%rbp)
    8f5a:	48 8d 85 c8 eb ff ff 	lea    -0x1438(%rbp),%rax
    8f61:	48 89 85 48 f9 ff ff 	mov    %rax,-0x6b8(%rbp)
    8f68:	48 8d 85 c8 eb ff ff 	lea    -0x1438(%rbp),%rax
    8f6f:	48 89 85 50 f9 ff ff 	mov    %rax,-0x6b0(%rbp)
    8f76:	48 8d 85 c8 eb ff ff 	lea    -0x1438(%rbp),%rax
    8f7d:	48 89 85 58 f9 ff ff 	mov    %rax,-0x6a8(%rbp)
    8f84:	48 8d 85 c8 eb ff ff 	lea    -0x1438(%rbp),%rax
    8f8b:	48 89 85 60 f9 ff ff 	mov    %rax,-0x6a0(%rbp)
    8f92:	48 8d 85 c8 eb ff ff 	lea    -0x1438(%rbp),%rax
    8f99:	48 89 85 68 f9 ff ff 	mov    %rax,-0x698(%rbp)
    8fa0:	48 8d 85 c8 eb ff ff 	lea    -0x1438(%rbp),%rax
    8fa7:	48 89 85 70 f9 ff ff 	mov    %rax,-0x690(%rbp)
    8fae:	48 8d 85 c8 eb ff ff 	lea    -0x1438(%rbp),%rax
    8fb5:	48 89 85 78 f9 ff ff 	mov    %rax,-0x688(%rbp)
    8fbc:	48 8d 85 c8 eb ff ff 	lea    -0x1438(%rbp),%rax
    8fc3:	48 89 85 80 f9 ff ff 	mov    %rax,-0x680(%rbp)
    8fca:	48 c7 85 88 f9 ff ff 	movq   $0x0,-0x678(%rbp)
    8fd1:	00 00 00 00 
    8fd5:	48 8d 85 c8 eb ff ff 	lea    -0x1438(%rbp),%rax
    8fdc:	48 89 85 90 f9 ff ff 	mov    %rax,-0x670(%rbp)
    8fe3:	48 8d 85 c8 eb ff ff 	lea    -0x1438(%rbp),%rax
    8fea:	48 89 85 98 f9 ff ff 	mov    %rax,-0x668(%rbp)
    8ff1:	48 8d 85 c8 eb ff ff 	lea    -0x1438(%rbp),%rax
    8ff8:	48 89 85 a0 f9 ff ff 	mov    %rax,-0x660(%rbp)
    8fff:	48 c7 85 a8 f9 ff ff 	movq   $0x0,-0x658(%rbp)
    9006:	00 00 00 00 
    900a:	48 8d 85 c8 eb ff ff 	lea    -0x1438(%rbp),%rax
    9011:	48 89 85 b0 f9 ff ff 	mov    %rax,-0x650(%rbp)
    9018:	48 c7 85 b8 f9 ff ff 	movq   $0x0,-0x648(%rbp)
    901f:	00 00 00 00 
    9023:	48 8d 85 c8 eb ff ff 	lea    -0x1438(%rbp),%rax
    902a:	48 89 85 c0 f9 ff ff 	mov    %rax,-0x640(%rbp)
    9031:	48 8d 85 c8 eb ff ff 	lea    -0x1438(%rbp),%rax
    9038:	48 89 85 c8 f9 ff ff 	mov    %rax,-0x638(%rbp)
    903f:	48 8d 85 c8 eb ff ff 	lea    -0x1438(%rbp),%rax
    9046:	48 89 85 d0 f9 ff ff 	mov    %rax,-0x630(%rbp)
    904d:	48 c7 85 d8 f9 ff ff 	movq   $0x0,-0x628(%rbp)
    9054:	00 00 00 00 
    9058:	48 8d 85 c8 eb ff ff 	lea    -0x1438(%rbp),%rax
    905f:	48 89 85 e0 f9 ff ff 	mov    %rax,-0x620(%rbp)
    9066:	48 8d 85 c8 eb ff ff 	lea    -0x1438(%rbp),%rax
    906d:	48 89 85 e8 f9 ff ff 	mov    %rax,-0x618(%rbp)
    9074:	48 8d 85 c8 eb ff ff 	lea    -0x1438(%rbp),%rax
    907b:	48 89 85 f0 f9 ff ff 	mov    %rax,-0x610(%rbp)
    9082:	48 8d 85 c8 eb ff ff 	lea    -0x1438(%rbp),%rax
    9089:	48 89 85 f8 f9 ff ff 	mov    %rax,-0x608(%rbp)
    9090:	48 8d 85 c8 eb ff ff 	lea    -0x1438(%rbp),%rax
    9097:	48 89 85 00 fa ff ff 	mov    %rax,-0x600(%rbp)
    909e:	48 8d 85 c8 eb ff ff 	lea    -0x1438(%rbp),%rax
    90a5:	48 89 85 08 fa ff ff 	mov    %rax,-0x5f8(%rbp)
    90ac:	48 8d 85 c8 eb ff ff 	lea    -0x1438(%rbp),%rax
    90b3:	48 89 85 10 fa ff ff 	mov    %rax,-0x5f0(%rbp)
    90ba:	48 8d 85 c8 eb ff ff 	lea    -0x1438(%rbp),%rax
    90c1:	48 89 85 18 fa ff ff 	mov    %rax,-0x5e8(%rbp)
    90c8:	48 8d 85 c8 eb ff ff 	lea    -0x1438(%rbp),%rax
    90cf:	48 89 85 20 fa ff ff 	mov    %rax,-0x5e0(%rbp)
    90d6:	48 8d 85 c8 eb ff ff 	lea    -0x1438(%rbp),%rax
    90dd:	48 89 85 28 fa ff ff 	mov    %rax,-0x5d8(%rbp)
    90e4:	48 8d 85 c8 eb ff ff 	lea    -0x1438(%rbp),%rax
    90eb:	48 89 85 30 fa ff ff 	mov    %rax,-0x5d0(%rbp)
    90f2:	48 8d 85 c8 eb ff ff 	lea    -0x1438(%rbp),%rax
    90f9:	48 89 85 38 fa ff ff 	mov    %rax,-0x5c8(%rbp)
    9100:	48 8d 85 c8 eb ff ff 	lea    -0x1438(%rbp),%rax
    9107:	48 89 85 40 fa ff ff 	mov    %rax,-0x5c0(%rbp)
    910e:	48 8d 85 c8 eb ff ff 	lea    -0x1438(%rbp),%rax
    9115:	48 89 85 48 fa ff ff 	mov    %rax,-0x5b8(%rbp)
    911c:	48 8d 85 c8 eb ff ff 	lea    -0x1438(%rbp),%rax
    9123:	48 89 85 50 fa ff ff 	mov    %rax,-0x5b0(%rbp)
    912a:	48 8d 85 c8 eb ff ff 	lea    -0x1438(%rbp),%rax
    9131:	48 89 85 58 fa ff ff 	mov    %rax,-0x5a8(%rbp)
    9138:	48 8d 85 c8 eb ff ff 	lea    -0x1438(%rbp),%rax
    913f:	48 89 85 60 fa ff ff 	mov    %rax,-0x5a0(%rbp)
    9146:	48 8d 85 c8 eb ff ff 	lea    -0x1438(%rbp),%rax
    914d:	48 89 85 68 fa ff ff 	mov    %rax,-0x598(%rbp)
    9154:	48 8d 85 c8 eb ff ff 	lea    -0x1438(%rbp),%rax
    915b:	48 89 85 70 fa ff ff 	mov    %rax,-0x590(%rbp)
    9162:	48 8d 85 c8 eb ff ff 	lea    -0x1438(%rbp),%rax
    9169:	48 89 85 78 fa ff ff 	mov    %rax,-0x588(%rbp)
    9170:	48 c7 85 80 fa ff ff 	movq   $0x0,-0x580(%rbp)
    9177:	00 00 00 00 
    917b:	48 8d 85 c8 eb ff ff 	lea    -0x1438(%rbp),%rax
    9182:	48 89 85 88 fa ff ff 	mov    %rax,-0x578(%rbp)
    9189:	48 c7 85 90 fa ff ff 	movq   $0x0,-0x570(%rbp)
    9190:	00 00 00 00 
    9194:	48 8d 85 c8 eb ff ff 	lea    -0x1438(%rbp),%rax
    919b:	48 89 85 98 fa ff ff 	mov    %rax,-0x568(%rbp)
    91a2:	48 8d 85 c8 eb ff ff 	lea    -0x1438(%rbp),%rax
    91a9:	48 89 85 a0 fa ff ff 	mov    %rax,-0x560(%rbp)
    91b0:	48 8d 85 c8 eb ff ff 	lea    -0x1438(%rbp),%rax
    91b7:	48 89 85 a8 fa ff ff 	mov    %rax,-0x558(%rbp)
    91be:	48 8d 85 c8 eb ff ff 	lea    -0x1438(%rbp),%rax
    91c5:	48 89 85 b0 fa ff ff 	mov    %rax,-0x550(%rbp)
    91cc:	48 8d 85 c8 eb ff ff 	lea    -0x1438(%rbp),%rax
    91d3:	48 89 85 b8 fa ff ff 	mov    %rax,-0x548(%rbp)
    91da:	48 8d 85 c8 eb ff ff 	lea    -0x1438(%rbp),%rax
    91e1:	48 89 85 c0 fa ff ff 	mov    %rax,-0x540(%rbp)
    91e8:	48 8d 85 c8 eb ff ff 	lea    -0x1438(%rbp),%rax
    91ef:	48 89 85 c8 fa ff ff 	mov    %rax,-0x538(%rbp)
    91f6:	48 8d 85 c8 eb ff ff 	lea    -0x1438(%rbp),%rax
    91fd:	48 89 85 d0 fa ff ff 	mov    %rax,-0x530(%rbp)
    9204:	48 8d 85 c8 eb ff ff 	lea    -0x1438(%rbp),%rax
    920b:	48 89 85 d8 fa ff ff 	mov    %rax,-0x528(%rbp)
    9212:	48 8d 85 c8 eb ff ff 	lea    -0x1438(%rbp),%rax
    9219:	48 89 85 e0 fa ff ff 	mov    %rax,-0x520(%rbp)
    9220:	48 c7 85 e8 fa ff ff 	movq   $0x0,-0x518(%rbp)
    9227:	00 00 00 00 
    922b:	48 8d 85 c8 eb ff ff 	lea    -0x1438(%rbp),%rax
    9232:	48 89 85 f0 fa ff ff 	mov    %rax,-0x510(%rbp)
    9239:	48 c7 85 f8 fa ff ff 	movq   $0x0,-0x508(%rbp)
    9240:	00 00 00 00 
    9244:	48 8d 85 c8 eb ff ff 	lea    -0x1438(%rbp),%rax
    924b:	48 89 85 00 fb ff ff 	mov    %rax,-0x500(%rbp)
    9252:	48 8d 85 c8 eb ff ff 	lea    -0x1438(%rbp),%rax
    9259:	48 89 85 08 fb ff ff 	mov    %rax,-0x4f8(%rbp)
    9260:	48 8d 85 c8 eb ff ff 	lea    -0x1438(%rbp),%rax
    9267:	48 89 85 10 fb ff ff 	mov    %rax,-0x4f0(%rbp)
    926e:	48 8d 85 c8 eb ff ff 	lea    -0x1438(%rbp),%rax
    9275:	48 89 85 18 fb ff ff 	mov    %rax,-0x4e8(%rbp)
    927c:	48 8d 85 c8 eb ff ff 	lea    -0x1438(%rbp),%rax
    9283:	48 89 85 20 fb ff ff 	mov    %rax,-0x4e0(%rbp)
    928a:	48 8d 85 c8 eb ff ff 	lea    -0x1438(%rbp),%rax
    9291:	48 89 85 28 fb ff ff 	mov    %rax,-0x4d8(%rbp)
    9298:	48 8d 85 c8 eb ff ff 	lea    -0x1438(%rbp),%rax
    929f:	48 89 85 30 fb ff ff 	mov    %rax,-0x4d0(%rbp)
    92a6:	48 8d 85 c8 eb ff ff 	lea    -0x1438(%rbp),%rax
    92ad:	48 89 85 38 fb ff ff 	mov    %rax,-0x4c8(%rbp)
    92b4:	48 8d 85 c8 eb ff ff 	lea    -0x1438(%rbp),%rax
    92bb:	48 89 85 40 fb ff ff 	mov    %rax,-0x4c0(%rbp)
    92c2:	48 8d 85 c8 eb ff ff 	lea    -0x1438(%rbp),%rax
    92c9:	48 89 85 48 fb ff ff 	mov    %rax,-0x4b8(%rbp)
    92d0:	48 8d 85 c8 eb ff ff 	lea    -0x1438(%rbp),%rax
    92d7:	48 89 85 50 fb ff ff 	mov    %rax,-0x4b0(%rbp)
    92de:	48 c7 85 58 fb ff ff 	movq   $0x0,-0x4a8(%rbp)
    92e5:	00 00 00 00 
    92e9:	48 8d 85 c8 eb ff ff 	lea    -0x1438(%rbp),%rax
    92f0:	48 89 85 60 fb ff ff 	mov    %rax,-0x4a0(%rbp)
    92f7:	48 c7 85 68 fb ff ff 	movq   $0x0,-0x498(%rbp)
    92fe:	00 00 00 00 
    9302:	48 8d 85 c8 eb ff ff 	lea    -0x1438(%rbp),%rax
    9309:	48 89 85 70 fb ff ff 	mov    %rax,-0x490(%rbp)
    9310:	48 8d 85 c8 eb ff ff 	lea    -0x1438(%rbp),%rax
    9317:	48 89 85 78 fb ff ff 	mov    %rax,-0x488(%rbp)
    931e:	48 8d 85 c8 eb ff ff 	lea    -0x1438(%rbp),%rax
    9325:	48 89 85 80 fb ff ff 	mov    %rax,-0x480(%rbp)
    932c:	48 8d 85 c8 eb ff ff 	lea    -0x1438(%rbp),%rax
    9333:	48 89 85 88 fb ff ff 	mov    %rax,-0x478(%rbp)
    933a:	48 8d 85 c8 eb ff ff 	lea    -0x1438(%rbp),%rax
    9341:	48 89 85 90 fb ff ff 	mov    %rax,-0x470(%rbp)
    9348:	48 c7 85 98 fb ff ff 	movq   $0x0,-0x468(%rbp)
    934f:	00 00 00 00 
    9353:	48 8d 85 c8 eb ff ff 	lea    -0x1438(%rbp),%rax
    935a:	48 89 85 a0 fb ff ff 	mov    %rax,-0x460(%rbp)
    9361:	48 8d 85 c8 eb ff ff 	lea    -0x1438(%rbp),%rax
    9368:	48 89 85 a8 fb ff ff 	mov    %rax,-0x458(%rbp)
    936f:	48 8d 85 c8 eb ff ff 	lea    -0x1438(%rbp),%rax
    9376:	48 89 85 b0 fb ff ff 	mov    %rax,-0x450(%rbp)
    937d:	48 8d 85 c8 eb ff ff 	lea    -0x1438(%rbp),%rax
    9384:	48 89 85 b8 fb ff ff 	mov    %rax,-0x448(%rbp)
    938b:	48 8d 85 c8 eb ff ff 	lea    -0x1438(%rbp),%rax
    9392:	48 89 85 c0 fb ff ff 	mov    %rax,-0x440(%rbp)
    9399:	48 8d 85 c8 eb ff ff 	lea    -0x1438(%rbp),%rax
    93a0:	48 89 85 c8 fb ff ff 	mov    %rax,-0x438(%rbp)
    93a7:	48 c7 85 d0 fb ff ff 	movq   $0x0,-0x430(%rbp)
    93ae:	00 00 00 00 
    93b2:	48 8d 85 c8 eb ff ff 	lea    -0x1438(%rbp),%rax
    93b9:	48 89 85 d8 fb ff ff 	mov    %rax,-0x428(%rbp)
    93c0:	48 8d 85 c8 eb ff ff 	lea    -0x1438(%rbp),%rax
    93c7:	48 89 85 e0 fb ff ff 	mov    %rax,-0x420(%rbp)
    93ce:	48 8d 85 c8 eb ff ff 	lea    -0x1438(%rbp),%rax
    93d5:	48 89 85 e8 fb ff ff 	mov    %rax,-0x418(%rbp)
    93dc:	48 8d 85 c8 eb ff ff 	lea    -0x1438(%rbp),%rax
    93e3:	48 89 85 f0 fb ff ff 	mov    %rax,-0x410(%rbp)
    93ea:	48 8d 85 c8 eb ff ff 	lea    -0x1438(%rbp),%rax
    93f1:	48 89 85 f8 fb ff ff 	mov    %rax,-0x408(%rbp)
    93f8:	48 8d 85 c8 eb ff ff 	lea    -0x1438(%rbp),%rax
    93ff:	48 89 85 00 fc ff ff 	mov    %rax,-0x400(%rbp)
    9406:	48 8d 85 c8 eb ff ff 	lea    -0x1438(%rbp),%rax
    940d:	48 89 85 08 fc ff ff 	mov    %rax,-0x3f8(%rbp)
    9414:	48 c7 85 10 fc ff ff 	movq   $0x0,-0x3f0(%rbp)
    941b:	00 00 00 00 
    941f:	48 8d 85 c8 eb ff ff 	lea    -0x1438(%rbp),%rax
    9426:	48 89 85 18 fc ff ff 	mov    %rax,-0x3e8(%rbp)
    942d:	48 8d 85 c8 eb ff ff 	lea    -0x1438(%rbp),%rax
    9434:	48 89 85 20 fc ff ff 	mov    %rax,-0x3e0(%rbp)
    943b:	48 c7 85 28 fc ff ff 	movq   $0x0,-0x3d8(%rbp)
    9442:	00 00 00 00 
    9446:	48 8d 85 c8 eb ff ff 	lea    -0x1438(%rbp),%rax
    944d:	48 89 85 30 fc ff ff 	mov    %rax,-0x3d0(%rbp)
    9454:	48 8d 85 c8 eb ff ff 	lea    -0x1438(%rbp),%rax
    945b:	48 89 85 38 fc ff ff 	mov    %rax,-0x3c8(%rbp)
    9462:	48 8d 85 c8 eb ff ff 	lea    -0x1438(%rbp),%rax
    9469:	48 89 85 40 fc ff ff 	mov    %rax,-0x3c0(%rbp)
    9470:	48 8d 85 c8 eb ff ff 	lea    -0x1438(%rbp),%rax
    9477:	48 89 85 48 fc ff ff 	mov    %rax,-0x3b8(%rbp)
    947e:	48 8d 85 c8 eb ff ff 	lea    -0x1438(%rbp),%rax
    9485:	48 89 85 50 fc ff ff 	mov    %rax,-0x3b0(%rbp)
    948c:	48 8d 85 c8 eb ff ff 	lea    -0x1438(%rbp),%rax
    9493:	48 89 85 58 fc ff ff 	mov    %rax,-0x3a8(%rbp)
    949a:	48 8d 85 c8 eb ff ff 	lea    -0x1438(%rbp),%rax
    94a1:	48 89 85 60 fc ff ff 	mov    %rax,-0x3a0(%rbp)
    94a8:	48 8d 85 c8 eb ff ff 	lea    -0x1438(%rbp),%rax
    94af:	48 89 85 68 fc ff ff 	mov    %rax,-0x398(%rbp)
    94b6:	48 8d 85 c8 eb ff ff 	lea    -0x1438(%rbp),%rax
    94bd:	48 89 85 70 fc ff ff 	mov    %rax,-0x390(%rbp)
    94c4:	48 c7 85 78 fc ff ff 	movq   $0x0,-0x388(%rbp)
    94cb:	00 00 00 00 
    94cf:	48 8d 85 c8 eb ff ff 	lea    -0x1438(%rbp),%rax
    94d6:	48 89 85 80 fc ff ff 	mov    %rax,-0x380(%rbp)
    94dd:	48 c7 85 88 fc ff ff 	movq   $0x0,-0x378(%rbp)
    94e4:	00 00 00 00 
    94e8:	48 8d 85 c8 eb ff ff 	lea    -0x1438(%rbp),%rax
    94ef:	48 89 85 90 fc ff ff 	mov    %rax,-0x370(%rbp)
    94f6:	48 8d 85 c8 eb ff ff 	lea    -0x1438(%rbp),%rax
    94fd:	48 89 85 98 fc ff ff 	mov    %rax,-0x368(%rbp)
    9504:	48 8d 85 c8 eb ff ff 	lea    -0x1438(%rbp),%rax
    950b:	48 89 85 a0 fc ff ff 	mov    %rax,-0x360(%rbp)
    9512:	48 8d 85 c8 eb ff ff 	lea    -0x1438(%rbp),%rax
    9519:	48 89 85 a8 fc ff ff 	mov    %rax,-0x358(%rbp)
    9520:	48 8d 85 c8 eb ff ff 	lea    -0x1438(%rbp),%rax
    9527:	48 89 85 b0 fc ff ff 	mov    %rax,-0x350(%rbp)
    952e:	48 8d 85 c8 eb ff ff 	lea    -0x1438(%rbp),%rax
    9535:	48 89 85 b8 fc ff ff 	mov    %rax,-0x348(%rbp)
    953c:	48 8d 85 c8 eb ff ff 	lea    -0x1438(%rbp),%rax
    9543:	48 89 85 c0 fc ff ff 	mov    %rax,-0x340(%rbp)
    954a:	48 8d 85 c8 eb ff ff 	lea    -0x1438(%rbp),%rax
    9551:	48 89 85 c8 fc ff ff 	mov    %rax,-0x338(%rbp)
    9558:	48 8d 85 c8 eb ff ff 	lea    -0x1438(%rbp),%rax
    955f:	48 89 85 d0 fc ff ff 	mov    %rax,-0x330(%rbp)
    9566:	48 8d 85 c8 eb ff ff 	lea    -0x1438(%rbp),%rax
    956d:	48 89 85 d8 fc ff ff 	mov    %rax,-0x328(%rbp)
    9574:	48 8d 85 c8 eb ff ff 	lea    -0x1438(%rbp),%rax
    957b:	48 89 85 e0 fc ff ff 	mov    %rax,-0x320(%rbp)
    9582:	48 c7 85 e8 fc ff ff 	movq   $0x0,-0x318(%rbp)
    9589:	00 00 00 00 
    958d:	48 8d 85 c8 eb ff ff 	lea    -0x1438(%rbp),%rax
    9594:	48 89 85 f0 fc ff ff 	mov    %rax,-0x310(%rbp)
    959b:	48 8d 85 c8 eb ff ff 	lea    -0x1438(%rbp),%rax
    95a2:	48 89 85 f8 fc ff ff 	mov    %rax,-0x308(%rbp)
    95a9:	48 8d 85 c8 eb ff ff 	lea    -0x1438(%rbp),%rax
    95b0:	48 89 85 00 fd ff ff 	mov    %rax,-0x300(%rbp)
    95b7:	48 8d 85 c8 eb ff ff 	lea    -0x1438(%rbp),%rax
    95be:	48 89 85 08 fd ff ff 	mov    %rax,-0x2f8(%rbp)
    95c5:	48 8d 85 c8 eb ff ff 	lea    -0x1438(%rbp),%rax
    95cc:	48 89 85 10 fd ff ff 	mov    %rax,-0x2f0(%rbp)
    95d3:	48 8d 85 c8 eb ff ff 	lea    -0x1438(%rbp),%rax
    95da:	48 89 85 18 fd ff ff 	mov    %rax,-0x2e8(%rbp)
    95e1:	48 8d 85 c8 eb ff ff 	lea    -0x1438(%rbp),%rax
    95e8:	48 89 85 20 fd ff ff 	mov    %rax,-0x2e0(%rbp)
    95ef:	48 8d 85 c8 eb ff ff 	lea    -0x1438(%rbp),%rax
    95f6:	48 89 85 28 fd ff ff 	mov    %rax,-0x2d8(%rbp)
    95fd:	48 8d 85 c8 eb ff ff 	lea    -0x1438(%rbp),%rax
    9604:	48 89 85 30 fd ff ff 	mov    %rax,-0x2d0(%rbp)
    960b:	48 8d 85 c8 eb ff ff 	lea    -0x1438(%rbp),%rax
    9612:	48 89 85 38 fd ff ff 	mov    %rax,-0x2c8(%rbp)
    9619:	48 c7 85 40 fd ff ff 	movq   $0x0,-0x2c0(%rbp)
    9620:	00 00 00 00 
    9624:	48 8d 85 c8 eb ff ff 	lea    -0x1438(%rbp),%rax
    962b:	48 89 85 48 fd ff ff 	mov    %rax,-0x2b8(%rbp)
    9632:	48 8d 85 c8 eb ff ff 	lea    -0x1438(%rbp),%rax
    9639:	48 89 85 50 fd ff ff 	mov    %rax,-0x2b0(%rbp)
    9640:	48 8d 85 c8 eb ff ff 	lea    -0x1438(%rbp),%rax
    9647:	48 89 85 58 fd ff ff 	mov    %rax,-0x2a8(%rbp)
    964e:	48 c7 85 60 fd ff ff 	movq   $0x0,-0x2a0(%rbp)
    9655:	00 00 00 00 
    9659:	48 8d 85 c8 eb ff ff 	lea    -0x1438(%rbp),%rax
    9660:	48 89 85 68 fd ff ff 	mov    %rax,-0x298(%rbp)
    9667:	48 8d 85 c8 eb ff ff 	lea    -0x1438(%rbp),%rax
    966e:	48 89 85 70 fd ff ff 	mov    %rax,-0x290(%rbp)
    9675:	48 c7 85 78 fd ff ff 	movq   $0x0,-0x288(%rbp)
    967c:	00 00 00 00 
    9680:	48 8d 85 c8 eb ff ff 	lea    -0x1438(%rbp),%rax
    9687:	48 89 85 80 fd ff ff 	mov    %rax,-0x280(%rbp)
    968e:	48 8d 85 c8 eb ff ff 	lea    -0x1438(%rbp),%rax
    9695:	48 89 85 88 fd ff ff 	mov    %rax,-0x278(%rbp)
    969c:	48 8d 85 c8 eb ff ff 	lea    -0x1438(%rbp),%rax
    96a3:	48 89 85 90 fd ff ff 	mov    %rax,-0x270(%rbp)
    96aa:	48 c7 85 98 fd ff ff 	movq   $0x0,-0x268(%rbp)
    96b1:	00 00 00 00 
    96b5:	48 8d 85 c8 eb ff ff 	lea    -0x1438(%rbp),%rax
    96bc:	48 89 85 a0 fd ff ff 	mov    %rax,-0x260(%rbp)
    96c3:	48 8d 85 c8 eb ff ff 	lea    -0x1438(%rbp),%rax
    96ca:	48 89 85 a8 fd ff ff 	mov    %rax,-0x258(%rbp)
    96d1:	48 8d 85 c8 eb ff ff 	lea    -0x1438(%rbp),%rax
    96d8:	48 89 85 b0 fd ff ff 	mov    %rax,-0x250(%rbp)
    96df:	48 8d 85 c8 eb ff ff 	lea    -0x1438(%rbp),%rax
    96e6:	48 89 85 b8 fd ff ff 	mov    %rax,-0x248(%rbp)
    96ed:	48 c7 85 c0 fd ff ff 	movq   $0x0,-0x240(%rbp)
    96f4:	00 00 00 00 
    96f8:	48 8d 85 c8 eb ff ff 	lea    -0x1438(%rbp),%rax
    96ff:	48 89 85 c8 fd ff ff 	mov    %rax,-0x238(%rbp)
    9706:	48 c7 85 d0 fd ff ff 	movq   $0x0,-0x230(%rbp)
    970d:	00 00 00 00 
    9711:	48 8d 85 c8 eb ff ff 	lea    -0x1438(%rbp),%rax
    9718:	48 89 85 d8 fd ff ff 	mov    %rax,-0x228(%rbp)
    971f:	48 8d 85 c8 eb ff ff 	lea    -0x1438(%rbp),%rax
    9726:	48 89 85 e0 fd ff ff 	mov    %rax,-0x220(%rbp)
    972d:	48 8d 85 c8 eb ff ff 	lea    -0x1438(%rbp),%rax
    9734:	48 89 85 e8 fd ff ff 	mov    %rax,-0x218(%rbp)
    973b:	48 8d 85 c8 eb ff ff 	lea    -0x1438(%rbp),%rax
    9742:	48 89 85 f0 fd ff ff 	mov    %rax,-0x210(%rbp)
    9749:	48 8d 85 c8 eb ff ff 	lea    -0x1438(%rbp),%rax
    9750:	48 89 85 f8 fd ff ff 	mov    %rax,-0x208(%rbp)
    9757:	48 8d 85 c8 eb ff ff 	lea    -0x1438(%rbp),%rax
    975e:	48 89 85 00 fe ff ff 	mov    %rax,-0x200(%rbp)
    9765:	48 8d 85 c8 eb ff ff 	lea    -0x1438(%rbp),%rax
    976c:	48 89 85 08 fe ff ff 	mov    %rax,-0x1f8(%rbp)
    9773:	48 8d 85 c8 eb ff ff 	lea    -0x1438(%rbp),%rax
    977a:	48 89 85 10 fe ff ff 	mov    %rax,-0x1f0(%rbp)
    9781:	48 8d 85 c8 eb ff ff 	lea    -0x1438(%rbp),%rax
    9788:	48 89 85 18 fe ff ff 	mov    %rax,-0x1e8(%rbp)
    978f:	48 8d 85 c8 eb ff ff 	lea    -0x1438(%rbp),%rax
    9796:	48 89 85 20 fe ff ff 	mov    %rax,-0x1e0(%rbp)
    979d:	48 8d 85 c8 eb ff ff 	lea    -0x1438(%rbp),%rax
    97a4:	48 89 85 28 fe ff ff 	mov    %rax,-0x1d8(%rbp)
    97ab:	48 8d 85 c8 eb ff ff 	lea    -0x1438(%rbp),%rax
    97b2:	48 89 85 30 fe ff ff 	mov    %rax,-0x1d0(%rbp)
    97b9:	48 8d 85 c8 eb ff ff 	lea    -0x1438(%rbp),%rax
    97c0:	48 89 85 38 fe ff ff 	mov    %rax,-0x1c8(%rbp)
    97c7:	48 8d 85 c8 eb ff ff 	lea    -0x1438(%rbp),%rax
    97ce:	48 89 85 40 fe ff ff 	mov    %rax,-0x1c0(%rbp)
    97d5:	48 8d 85 c8 eb ff ff 	lea    -0x1438(%rbp),%rax
    97dc:	48 89 85 48 fe ff ff 	mov    %rax,-0x1b8(%rbp)
    97e3:	48 8d 85 c8 eb ff ff 	lea    -0x1438(%rbp),%rax
    97ea:	48 89 85 50 fe ff ff 	mov    %rax,-0x1b0(%rbp)
    97f1:	48 c7 85 58 fe ff ff 	movq   $0x0,-0x1a8(%rbp)
    97f8:	00 00 00 00 
    97fc:	48 8d 85 c8 eb ff ff 	lea    -0x1438(%rbp),%rax
    9803:	48 89 85 60 fe ff ff 	mov    %rax,-0x1a0(%rbp)
    980a:	48 8d 85 c8 eb ff ff 	lea    -0x1438(%rbp),%rax
    9811:	48 89 85 68 fe ff ff 	mov    %rax,-0x198(%rbp)
    9818:	48 c7 85 70 fe ff ff 	movq   $0x0,-0x190(%rbp)
    981f:	00 00 00 00 
    9823:	48 8d 85 c8 eb ff ff 	lea    -0x1438(%rbp),%rax
    982a:	48 89 85 78 fe ff ff 	mov    %rax,-0x188(%rbp)
    9831:	48 c7 85 80 fe ff ff 	movq   $0x0,-0x180(%rbp)
    9838:	00 00 00 00 
    983c:	48 8d 85 c8 eb ff ff 	lea    -0x1438(%rbp),%rax
    9843:	48 89 85 88 fe ff ff 	mov    %rax,-0x178(%rbp)
    984a:	48 8d 85 c8 eb ff ff 	lea    -0x1438(%rbp),%rax
    9851:	48 89 85 90 fe ff ff 	mov    %rax,-0x170(%rbp)
    9858:	48 8d 85 c8 eb ff ff 	lea    -0x1438(%rbp),%rax
    985f:	48 89 85 98 fe ff ff 	mov    %rax,-0x168(%rbp)
    9866:	48 8d 85 c8 eb ff ff 	lea    -0x1438(%rbp),%rax
    986d:	48 89 85 a0 fe ff ff 	mov    %rax,-0x160(%rbp)
    9874:	48 8d 85 c8 eb ff ff 	lea    -0x1438(%rbp),%rax
    987b:	48 89 85 a8 fe ff ff 	mov    %rax,-0x158(%rbp)
    9882:	48 8d 85 c8 eb ff ff 	lea    -0x1438(%rbp),%rax
    9889:	48 89 85 b0 fe ff ff 	mov    %rax,-0x150(%rbp)
    9890:	48 8d 85 c8 eb ff ff 	lea    -0x1438(%rbp),%rax
    9897:	48 89 85 b8 fe ff ff 	mov    %rax,-0x148(%rbp)
    989e:	48 8d 85 c8 eb ff ff 	lea    -0x1438(%rbp),%rax
    98a5:	48 89 85 c0 fe ff ff 	mov    %rax,-0x140(%rbp)
    98ac:	48 c7 85 c8 fe ff ff 	movq   $0x0,-0x138(%rbp)
    98b3:	00 00 00 00 
    98b7:	48 8d 85 c8 eb ff ff 	lea    -0x1438(%rbp),%rax
    98be:	48 89 85 d0 fe ff ff 	mov    %rax,-0x130(%rbp)
    98c5:	48 8d 85 c8 eb ff ff 	lea    -0x1438(%rbp),%rax
    98cc:	48 89 85 d8 fe ff ff 	mov    %rax,-0x128(%rbp)
    98d3:	48 c7 85 e0 fe ff ff 	movq   $0x0,-0x120(%rbp)
    98da:	00 00 00 00 
    98de:	48 8d 85 c8 eb ff ff 	lea    -0x1438(%rbp),%rax
    98e5:	48 89 85 e8 fe ff ff 	mov    %rax,-0x118(%rbp)
    98ec:	48 8d 85 c8 eb ff ff 	lea    -0x1438(%rbp),%rax
    98f3:	48 89 85 f0 fe ff ff 	mov    %rax,-0x110(%rbp)
    98fa:	48 8d 85 c8 eb ff ff 	lea    -0x1438(%rbp),%rax
    9901:	48 89 85 f8 fe ff ff 	mov    %rax,-0x108(%rbp)
    9908:	48 c7 85 00 ff ff ff 	movq   $0x0,-0x100(%rbp)
    990f:	00 00 00 00 
    9913:	48 c7 85 08 ff ff ff 	movq   $0x0,-0xf8(%rbp)
    991a:	00 00 00 00 
    991e:	48 8d 85 c8 eb ff ff 	lea    -0x1438(%rbp),%rax
    9925:	48 89 85 10 ff ff ff 	mov    %rax,-0xf0(%rbp)
    992c:	48 c7 85 18 ff ff ff 	movq   $0x0,-0xe8(%rbp)
    9933:	00 00 00 00 
    9937:	48 8d 85 c8 eb ff ff 	lea    -0x1438(%rbp),%rax
    993e:	48 89 85 20 ff ff ff 	mov    %rax,-0xe0(%rbp)
    9945:	48 8d 85 c8 eb ff ff 	lea    -0x1438(%rbp),%rax
    994c:	48 89 85 28 ff ff ff 	mov    %rax,-0xd8(%rbp)
    9953:	48 8d 85 c8 eb ff ff 	lea    -0x1438(%rbp),%rax
    995a:	48 89 85 30 ff ff ff 	mov    %rax,-0xd0(%rbp)
    9961:	48 c7 85 38 ff ff ff 	movq   $0x0,-0xc8(%rbp)
    9968:	00 00 00 00 
    996c:	48 8d 85 c8 eb ff ff 	lea    -0x1438(%rbp),%rax
    9973:	48 89 85 40 ff ff ff 	mov    %rax,-0xc0(%rbp)
    997a:	48 8d 85 c8 eb ff ff 	lea    -0x1438(%rbp),%rax
    9981:	48 89 85 48 ff ff ff 	mov    %rax,-0xb8(%rbp)
    9988:	48 c7 85 50 ff ff ff 	movq   $0x0,-0xb0(%rbp)
    998f:	00 00 00 00 
    9993:	48 c7 85 58 ff ff ff 	movq   $0x0,-0xa8(%rbp)
    999a:	00 00 00 00 
    999e:	48 8d 85 c8 eb ff ff 	lea    -0x1438(%rbp),%rax
    99a5:	48 89 85 60 ff ff ff 	mov    %rax,-0xa0(%rbp)
    99ac:	48 c7 85 68 ff ff ff 	movq   $0x0,-0x98(%rbp)
    99b3:	00 00 00 00 
    99b7:	48 8d 85 c8 eb ff ff 	lea    -0x1438(%rbp),%rax
    99be:	48 89 85 70 ff ff ff 	mov    %rax,-0x90(%rbp)
    99c5:	48 8d 85 c8 eb ff ff 	lea    -0x1438(%rbp),%rax
    99cc:	48 89 85 78 ff ff ff 	mov    %rax,-0x88(%rbp)
    99d3:	48 8d 85 c8 eb ff ff 	lea    -0x1438(%rbp),%rax
    99da:	48 89 45 80          	mov    %rax,-0x80(%rbp)
    99de:	48 8d 85 c8 eb ff ff 	lea    -0x1438(%rbp),%rax
    99e5:	48 89 45 88          	mov    %rax,-0x78(%rbp)
    99e9:	48 8d 85 c8 eb ff ff 	lea    -0x1438(%rbp),%rax
    99f0:	48 89 45 90          	mov    %rax,-0x70(%rbp)
    99f4:	48 c7 45 98 00 00 00 	movq   $0x0,-0x68(%rbp)
    99fb:	00 
    99fc:	48 8d 85 c8 eb ff ff 	lea    -0x1438(%rbp),%rax
    9a03:	48 89 45 a0          	mov    %rax,-0x60(%rbp)
    9a07:	48 8d 85 c8 eb ff ff 	lea    -0x1438(%rbp),%rax
    9a0e:	48 89 45 a8          	mov    %rax,-0x58(%rbp)
    9a12:	48 8d 85 c8 eb ff ff 	lea    -0x1438(%rbp),%rax
    9a19:	48 89 45 b0          	mov    %rax,-0x50(%rbp)
    9a1d:	48 8d 85 c8 eb ff ff 	lea    -0x1438(%rbp),%rax
    9a24:	48 89 45 b8          	mov    %rax,-0x48(%rbp)
    9a28:	48 8d 85 c8 eb ff ff 	lea    -0x1438(%rbp),%rax
    9a2f:	48 89 45 c0          	mov    %rax,-0x40(%rbp)
    9a33:	48 8d 85 c8 eb ff ff 	lea    -0x1438(%rbp),%rax
    9a3a:	48 89 45 c8          	mov    %rax,-0x38(%rbp)
    9a3e:	48 c7 85 e8 eb ff ff 	movq   $0x0,-0x1418(%rbp)
    9a45:	00 00 00 00 
    9a49:	48 8d 05 0c 76 00 00 	lea    0x760c(%rip),%rax        # 1105c <g_126>
    9a50:	48 39 85 e8 eb ff ff 	cmp    %rax,-0x1418(%rbp)
    9a57:	0f 95 c2             	setne  %dl
    9a5a:	48 8b 85 a8 eb ff ff 	mov    -0x1458(%rbp),%rax
    9a61:	0f b6 d2             	movzbl %dl,%edx
    9a64:	89 10                	mov    %edx,(%rax)
    9a66:	eb 11                	jmp    9a79 <func_41+0x3c49>
    9a68:	48 8b 05 e9 a1 00 00 	mov    0xa1e9(%rip),%rax        # 13c58 <g_168>
    9a6f:	48 8d 95 0c eb ff ff 	lea    -0x14f4(%rbp),%rdx
    9a76:	48 89 10             	mov    %rdx,(%rax)
    9a79:	48 8b 05 08 73 00 00 	mov    0x7308(%rip),%rax        # 10d88 <l_976.4266+0x8>
    9a80:	48 8b 5d d8          	mov    -0x28(%rbp),%rbx
    9a84:	64 48 33 1c 25 28 00 	xor    %fs:0x28,%rbx
    9a8b:	00 00 
    9a8d:	74 05                	je     9a94 <func_41+0x3c64>
    9a8f:	e8 dc 95 ff ff       	callq  3070 <__stack_chk_fail@plt>
    9a94:	48 81 c4 e0 14 00 00 	add    $0x14e0,%rsp
    9a9b:	5b                   	pop    %rbx
    9a9c:	41 5c                	pop    %r12
    9a9e:	41 5d                	pop    %r13
    9aa0:	41 5e                	pop    %r14
    9aa2:	5d                   	pop    %rbp
    9aa3:	c3                   	retq   

0000000000009aa4 <func_50>:
    9aa4:	f3 0f 1e fa          	endbr64 
    9aa8:	55                   	push   %rbp
    9aa9:	48 89 e5             	mov    %rsp,%rbp
    9aac:	41 56                	push   %r14
    9aae:	41 55                	push   %r13
    9ab0:	41 54                	push   %r12
    9ab2:	53                   	push   %rbx
    9ab3:	48 81 ec 70 01 00 00 	sub    $0x170,%rsp
    9aba:	48 89 bd 88 fe ff ff 	mov    %rdi,-0x178(%rbp)
    9ac1:	89 b5 84 fe ff ff    	mov    %esi,-0x17c(%rbp)
    9ac7:	48 89 95 78 fe ff ff 	mov    %rdx,-0x188(%rbp)
    9ace:	48 89 8d 70 fe ff ff 	mov    %rcx,-0x190(%rbp)
    9ad5:	64 48 8b 04 25 28 00 	mov    %fs:0x28,%rax
    9adc:	00 00 
    9ade:	48 89 45 d8          	mov    %rax,-0x28(%rbp)
    9ae2:	31 c0                	xor    %eax,%eax
    9ae4:	48 c7 85 c8 fe ff ff 	movq   $0x0,-0x138(%rbp)
    9aeb:	00 00 00 00 
    9aef:	48 c7 85 d0 fe ff ff 	movq   $0x0,-0x130(%rbp)
    9af6:	00 00 00 00 
    9afa:	48 c7 85 d8 fe ff ff 	movq   $0x0,-0x128(%rbp)
    9b01:	00 00 00 00 
    9b05:	48 8d 05 54 a1 00 00 	lea    0xa154(%rip),%rax        # 13c60 <g_266>
    9b0c:	48 89 85 b8 fe ff ff 	mov    %rax,-0x148(%rbp)
    9b13:	48 8d 85 b8 fe ff ff 	lea    -0x148(%rbp),%rax
    9b1a:	48 89 85 e0 fe ff ff 	mov    %rax,-0x120(%rbp)
    9b21:	c7 85 94 fe ff ff 6e 	movl   $0x1b4a5d6e,-0x16c(%rbp)
    9b28:	5d 4a 1b 
    9b2b:	c7 85 a8 fe ff ff 52 	movl   $0x20f41b52,-0x158(%rbp)
    9b32:	1b f4 20 
    9b35:	48 8d 05 5c 75 00 00 	lea    0x755c(%rip),%rax        # 11098 <g_212>
    9b3c:	48 89 85 e8 fe ff ff 	mov    %rax,-0x118(%rbp)
    9b43:	48 8d 05 06 76 00 00 	lea    0x7606(%rip),%rax        # 11150 <g_417+0x50>
    9b4a:	48 89 85 f0 fe ff ff 	mov    %rax,-0x110(%rbp)
    9b51:	c7 85 ac fe ff ff 31 	movl   $0xe1c5da31,-0x154(%rbp)
    9b58:	da c5 e1 
    9b5b:	c7 85 b0 fe ff ff da 	movl   $0x9e501cda,-0x150(%rbp)
    9b62:	1c 50 9e 
    9b65:	c7 85 b4 fe ff ff f9 	movl   $0xfffffff9,-0x14c(%rbp)
    9b6c:	ff ff ff 
    9b6f:	c7 85 9c fe ff ff 00 	movl   $0x0,-0x164(%rbp)
    9b76:	00 00 00 
    9b79:	eb 1a                	jmp    9b95 <func_50+0xf1>
    9b7b:	8b 85 9c fe ff ff    	mov    -0x164(%rbp),%eax
    9b81:	48 98                	cltq   
    9b83:	c7 84 85 68 ff ff ff 	movl   $0xe9225af8,-0x98(%rbp,%rax,4)
    9b8a:	f8 5a 22 e9 
    9b8e:	83 85 9c fe ff ff 01 	addl   $0x1,-0x164(%rbp)
    9b95:	83 bd 9c fe ff ff 01 	cmpl   $0x1,-0x164(%rbp)
    9b9c:	7e dd                	jle    9b7b <func_50+0xd7>
    9b9e:	0f b6 85 84 fe ff ff 	movzbl -0x17c(%rbp),%eax
    9ba5:	0f b6 95 85 fe ff ff 	movzbl -0x17b(%rbp),%edx
    9bac:	48 c1 e2 08          	shl    $0x8,%rdx
    9bb0:	48 09 c2             	or     %rax,%rdx
    9bb3:	0f b6 85 86 fe ff ff 	movzbl -0x17a(%rbp),%eax
    9bba:	48 c1 e0 10          	shl    $0x10,%rax
    9bbe:	48 09 c2             	or     %rax,%rdx
    9bc1:	0f b6 85 87 fe ff ff 	movzbl -0x179(%rbp),%eax
    9bc8:	83 e0 03             	and    $0x3,%eax
    9bcb:	48 c1 e0 18          	shl    $0x18,%rax
    9bcf:	48 09 d0             	or     %rdx,%rax
    9bd2:	41 89 c5             	mov    %eax,%r13d
    9bd5:	48 8b 85 d0 fe ff ff 	mov    -0x130(%rbp),%rax
    9bdc:	48 89 05 2d a2 00 00 	mov    %rax,0xa22d(%rip)        # 13e10 <g_548>
    9be3:	48 8b 0d 26 a2 00 00 	mov    0xa226(%rip),%rcx        # 13e10 <g_548>
    9bea:	48 8b 85 e0 fe ff ff 	mov    -0x120(%rbp),%rax
    9bf1:	48 8b 95 d0 fe ff ff 	mov    -0x130(%rbp),%rdx
    9bf8:	48 89 10             	mov    %rdx,(%rax)
    9bfb:	48 8b 85 e0 fe ff ff 	mov    -0x120(%rbp),%rax
    9c02:	48 8b 00             	mov    (%rax),%rax
    9c05:	48 39 c1             	cmp    %rax,%rcx
    9c08:	0f 95 c0             	setne  %al
    9c0b:	0f b6 c0             	movzbl %al,%eax
    9c0e:	89 c7                	mov    %eax,%edi
    9c10:	e8 81 99 ff ff       	callq  3596 <safe_unary_minus_func_int32_t_s>
    9c15:	8b 95 94 fe ff ff    	mov    -0x16c(%rbp),%edx
    9c1b:	39 d0                	cmp    %edx,%eax
    9c1d:	0f 9c c0             	setl   %al
    9c20:	0f b6 d0             	movzbl %al,%edx
    9c23:	0f b6 85 84 fe ff ff 	movzbl -0x17c(%rbp),%eax
    9c2a:	0f b6 8d 85 fe ff ff 	movzbl -0x17b(%rbp),%ecx
    9c31:	48 c1 e1 08          	shl    $0x8,%rcx
    9c35:	48 09 c1             	or     %rax,%rcx
    9c38:	0f b6 85 86 fe ff ff 	movzbl -0x17a(%rbp),%eax
    9c3f:	48 c1 e0 10          	shl    $0x10,%rax
    9c43:	48 09 c1             	or     %rax,%rcx
    9c46:	0f b6 85 87 fe ff ff 	movzbl -0x179(%rbp),%eax
    9c4d:	83 e0 03             	and    $0x3,%eax
    9c50:	48 c1 e0 18          	shl    $0x18,%rax
    9c54:	48 09 c8             	or     %rcx,%rax
    9c57:	0f be c0             	movsbl %al,%eax
    9c5a:	89 d6                	mov    %edx,%esi
    9c5c:	89 c7                	mov    %eax,%edi
    9c5e:	e8 af 95 ff ff       	callq  3212 <safe_mul_func_int8_t_s_s>
    9c63:	4c 0f be e0          	movsbq %al,%r12
    9c67:	8b 9d a8 fe ff ff    	mov    -0x158(%rbp),%ebx
    9c6d:	48 8b 85 78 fe ff ff 	mov    -0x188(%rbp),%rax
    9c74:	0f b6 00             	movzbl (%rax),%eax
    9c77:	0f b6 d0             	movzbl %al,%edx
    9c7a:	0f b6 05 f3 73 00 00 	movzbl 0x73f3(%rip),%eax        # 11074 <g_162>
    9c81:	83 f0 01             	xor    $0x1,%eax
    9c84:	88 05 ea 73 00 00    	mov    %al,0x73ea(%rip)        # 11074 <g_162>
    9c8a:	8b 85 94 fe ff ff    	mov    -0x16c(%rbp),%eax
    9c90:	0f be c0             	movsbl %al,%eax
    9c93:	89 d6                	mov    %edx,%esi
    9c95:	89 c7                	mov    %eax,%edi
    9c97:	e8 52 96 ff ff       	callq  32ee <safe_lshift_func_int8_t_s_u>
    9c9c:	0f be d0             	movsbl %al,%edx
    9c9f:	0f b7 05 b0 73 00 00 	movzwl 0x73b0(%rip),%eax        # 11056 <g_103>
    9ca6:	98                   	cwtl   
    9ca7:	31 d0                	xor    %edx,%eax
    9ca9:	48 98                	cltq   
    9cab:	48 89 de             	mov    %rbx,%rsi
    9cae:	48 89 c7             	mov    %rax,%rdi
    9cb1:	e8 95 a3 ff ff       	callq  404b <safe_sub_func_uint64_t_u_u>
    9cb6:	49 39 c4             	cmp    %rax,%r12
    9cb9:	0f 96 c0             	setbe  %al
    9cbc:	0f b6 c0             	movzbl %al,%eax
    9cbf:	89 c7                	mov    %eax,%edi
    9cc1:	e8 23 a0 ff ff       	callq  3ce9 <safe_unary_minus_func_uint16_t_u>
    9cc6:	0f b6 85 84 fe ff ff 	movzbl -0x17c(%rbp),%eax
    9ccd:	0f b6 95 85 fe ff ff 	movzbl -0x17b(%rbp),%edx
    9cd4:	48 c1 e2 08          	shl    $0x8,%rdx
    9cd8:	48 09 c2             	or     %rax,%rdx
    9cdb:	0f b6 85 86 fe ff ff 	movzbl -0x17a(%rbp),%eax
    9ce2:	48 c1 e0 10          	shl    $0x10,%rax
    9ce6:	48 09 c2             	or     %rax,%rdx
    9ce9:	0f b6 85 87 fe ff ff 	movzbl -0x179(%rbp),%eax
    9cf0:	83 e0 03             	and    $0x3,%eax
    9cf3:	48 c1 e0 18          	shl    $0x18,%rax
    9cf7:	48 09 d0             	or     %rdx,%rax
    9cfa:	44 89 ee             	mov    %r13d,%esi
    9cfd:	89 c7                	mov    %eax,%edi
    9cff:	e8 01 99 ff ff       	callq  3605 <safe_sub_func_int32_t_s_s>
    9d04:	0f b7 c0             	movzwl %ax,%eax
    9d07:	be 01 00 00 00       	mov    $0x1,%esi
    9d0c:	89 c7                	mov    %eax,%edi
    9d0e:	e8 0c a0 ff ff       	callq  3d1f <safe_sub_func_uint16_t_u_u>
    9d13:	b8 01 00 00 00       	mov    $0x1,%eax
    9d18:	0f b7 c0             	movzwl %ax,%eax
    9d1b:	be 00 00 00 00       	mov    $0x0,%esi
    9d20:	89 c7                	mov    %eax,%edi
    9d22:	e8 df a0 ff ff       	callq  3e06 <safe_lshift_func_uint16_t_u_u>
    9d27:	48 8b 95 e8 fe ff ff 	mov    -0x118(%rbp),%rdx
    9d2e:	48 8b 12             	mov    (%rdx),%rdx
    9d31:	0f b7 c0             	movzwl %ax,%eax
    9d34:	48 09 c2             	or     %rax,%rdx
    9d37:	48 8b 85 e8 fe ff ff 	mov    -0x118(%rbp),%rax
    9d3e:	48 89 10             	mov    %rdx,(%rax)
    9d41:	48 8b 85 e8 fe ff ff 	mov    -0x118(%rbp),%rax
    9d48:	48 8b 00             	mov    (%rax),%rax
    9d4b:	48 c7 c6 fa ff ff ff 	mov    $0xfffffffffffffffa,%rsi
    9d52:	48 89 c7             	mov    %rax,%rdi
    9d55:	e8 d4 a2 ff ff       	callq  402e <safe_add_func_uint64_t_u_u>
    9d5a:	48 85 c0             	test   %rax,%rax
    9d5d:	0f 84 3a 05 00 00    	je     a29d <func_50+0x7f9>
    9d63:	66 c7 85 92 fe ff ff 	movw   $0x8,-0x16e(%rbp)
    9d6a:	08 00 
    9d6c:	c7 85 98 fe ff ff 01 	movl   $0x1,-0x168(%rbp)
    9d73:	00 00 00 
    9d76:	48 8d 05 d9 72 00 00 	lea    0x72d9(%rip),%rax        # 11056 <g_103>
    9d7d:	48 89 85 38 ff ff ff 	mov    %rax,-0xc8(%rbp)
    9d84:	48 8d 05 0d 74 00 00 	lea    0x740d(%rip),%rax        # 11198 <g_586>
    9d8b:	48 89 85 40 ff ff ff 	mov    %rax,-0xc0(%rbp)
    9d92:	48 c7 85 48 ff ff ff 	movq   $0x0,-0xb8(%rbp)
    9d99:	00 00 00 00 
    9d9d:	48 8d 05 94 a5 00 00 	lea    0xa594(%rip),%rax        # 14338 <g_183>
    9da4:	48 89 85 50 ff ff ff 	mov    %rax,-0xb0(%rbp)
    9dab:	48 c7 85 58 ff ff ff 	movq   $0x0,-0xa8(%rbp)
    9db2:	00 00 00 00 
    9db6:	48 8d 05 75 72 00 00 	lea    0x7275(%rip),%rax        # 11032 <g_61>
    9dbd:	48 89 85 c0 fe ff ff 	mov    %rax,-0x140(%rbp)
    9dc4:	48 8d 85 c0 fe ff ff 	lea    -0x140(%rbp),%rax
    9dcb:	48 89 85 60 ff ff ff 	mov    %rax,-0xa0(%rbp)
    9dd2:	c7 85 a0 fe ff ff 00 	movl   $0x0,-0x160(%rbp)
    9dd9:	00 00 00 
    9ddc:	eb 1b                	jmp    9df9 <func_50+0x355>
    9dde:	8b 85 a0 fe ff ff    	mov    -0x160(%rbp),%eax
    9de4:	48 98                	cltq   
    9de6:	48 8d 15 d3 9e 00 00 	lea    0x9ed3(%rip),%rdx        # 13cc0 <g_522+0x40>
    9ded:	48 89 54 c5 90       	mov    %rdx,-0x70(%rbp,%rax,8)
    9df2:	83 85 a0 fe ff ff 01 	addl   $0x1,-0x160(%rbp)
    9df9:	83 bd a0 fe ff ff 00 	cmpl   $0x0,-0x160(%rbp)
    9e00:	7e dc                	jle    9dde <func_50+0x33a>
    9e02:	0f b7 05 53 72 00 00 	movzwl 0x7253(%rip),%eax        # 1105c <g_126>
    9e09:	0f bf d8             	movswl %ax,%ebx
    9e0c:	48 8b 05 2d 9e 00 00 	mov    0x9e2d(%rip),%rax        # 13c40 <g_29>
    9e13:	0f b6 10             	movzbl (%rax),%edx
    9e16:	48 8b 85 70 fe ff ff 	mov    -0x190(%rbp),%rax
    9e1d:	88 10                	mov    %dl,(%rax)
    9e1f:	48 8b 85 70 fe ff ff 	mov    -0x190(%rbp),%rax
    9e26:	0f b6 00             	movzbl (%rax),%eax
    9e29:	44 0f b6 e8          	movzbl %al,%r13d
    9e2d:	8b 85 98 fe ff ff    	mov    -0x168(%rbp),%eax
    9e33:	44 0f b7 e0          	movzwl %ax,%r12d
    9e37:	0f b6 85 84 fe ff ff 	movzbl -0x17c(%rbp),%eax
    9e3e:	0f b6 95 85 fe ff ff 	movzbl -0x17b(%rbp),%edx
    9e45:	48 c1 e2 08          	shl    $0x8,%rdx
    9e49:	48 09 c2             	or     %rax,%rdx
    9e4c:	0f b6 85 86 fe ff ff 	movzbl -0x17a(%rbp),%eax
    9e53:	48 c1 e0 10          	shl    $0x10,%rax
    9e57:	48 09 c2             	or     %rax,%rdx
    9e5a:	0f b6 85 87 fe ff ff 	movzbl -0x179(%rbp),%eax
    9e61:	83 e0 03             	and    $0x3,%eax
    9e64:	48 c1 e0 18          	shl    $0x18,%rax
    9e68:	48 09 d0             	or     %rdx,%rax
    9e6b:	41 89 c6             	mov    %eax,%r14d
    9e6e:	8b 85 a8 fe ff ff    	mov    -0x158(%rbp),%eax
    9e74:	0f b6 d0             	movzbl %al,%edx
    9e77:	48 8b 85 78 fe ff ff 	mov    -0x188(%rbp),%rax
    9e7e:	0f b6 00             	movzbl (%rax),%eax
    9e81:	84 c0                	test   %al,%al
    9e83:	0f 95 c0             	setne  %al
    9e86:	89 c1                	mov    %eax,%ecx
    9e88:	48 8b 05 fd 71 00 00 	mov    0x71fd(%rip),%rax        # 1108c <g_208+0xc>
    9e8f:	31 c8                	xor    %ecx,%eax
    9e91:	0f b6 c0             	movzbl %al,%eax
    9e94:	89 d6                	mov    %edx,%esi
    9e96:	89 c7                	mov    %eax,%edi
    9e98:	e8 f6 9c ff ff       	callq  3b93 <safe_mul_func_uint8_t_u_u>
    9e9d:	84 c0                	test   %al,%al
    9e9f:	0f 94 c0             	sete   %al
    9ea2:	0f b6 c0             	movzbl %al,%eax
    9ea5:	be 8f 8e ff ff       	mov    $0xffff8e8f,%esi
    9eaa:	89 c7                	mov    %eax,%edi
    9eac:	e8 44 95 ff ff       	callq  33f5 <safe_mul_func_int16_t_s_s>
    9eb1:	8b 85 94 fe ff ff    	mov    -0x16c(%rbp),%eax
    9eb7:	85 c0                	test   %eax,%eax
    9eb9:	0f 9f c0             	setg   %al
    9ebc:	0f b6 d0             	movzbl %al,%edx
    9ebf:	48 8b 05 7a 9d 00 00 	mov    0x9d7a(%rip),%rax        # 13c40 <g_29>
    9ec6:	0f b6 00             	movzbl (%rax),%eax
    9ec9:	0f b6 c0             	movzbl %al,%eax
    9ecc:	89 d1                	mov    %edx,%ecx
    9ece:	21 c1                	and    %eax,%ecx
    9ed0:	0f b6 85 84 fe ff ff 	movzbl -0x17c(%rbp),%eax
    9ed7:	0f b6 95 85 fe ff ff 	movzbl -0x17b(%rbp),%edx
    9ede:	48 c1 e2 08          	shl    $0x8,%rdx
    9ee2:	48 09 c2             	or     %rax,%rdx
    9ee5:	0f b6 85 86 fe ff ff 	movzbl -0x17a(%rbp),%eax
    9eec:	48 c1 e0 10          	shl    $0x10,%rax
    9ef0:	48 09 c2             	or     %rax,%rdx
    9ef3:	0f b6 85 87 fe ff ff 	movzbl -0x179(%rbp),%eax
    9efa:	83 e0 03             	and    $0x3,%eax
    9efd:	48 c1 e0 18          	shl    $0x18,%rax
    9f01:	48 09 d0             	or     %rdx,%rax
    9f04:	39 c1                	cmp    %eax,%ecx
    9f06:	0f 9d c0             	setge  %al
    9f09:	0f b6 c0             	movzbl %al,%eax
    9f0c:	89 c6                	mov    %eax,%esi
    9f0e:	bf 23 07 00 00       	mov    $0x723,%edi
    9f13:	e8 dd 94 ff ff       	callq  33f5 <safe_mul_func_int16_t_s_s>
    9f18:	0f bf d0             	movswl %ax,%edx
    9f1b:	8b 85 94 fe ff ff    	mov    -0x16c(%rbp),%eax
    9f21:	39 c2                	cmp    %eax,%edx
    9f23:	0f 9f c0             	setg   %al
    9f26:	0f b6 c0             	movzbl %al,%eax
    9f29:	0f b6 95 84 fe ff ff 	movzbl -0x17c(%rbp),%edx
    9f30:	0f b6 8d 85 fe ff ff 	movzbl -0x17b(%rbp),%ecx
    9f37:	48 c1 e1 08          	shl    $0x8,%rcx
    9f3b:	48 09 d1             	or     %rdx,%rcx
    9f3e:	0f b6 95 86 fe ff ff 	movzbl -0x17a(%rbp),%edx
    9f45:	48 c1 e2 10          	shl    $0x10,%rdx
    9f49:	48 09 d1             	or     %rdx,%rcx
    9f4c:	0f b6 95 87 fe ff ff 	movzbl -0x179(%rbp),%edx
    9f53:	83 e2 03             	and    $0x3,%edx
    9f56:	48 c1 e2 18          	shl    $0x18,%rdx
    9f5a:	48 09 ca             	or     %rcx,%rdx
    9f5d:	09 d0                	or     %edx,%eax
    9f5f:	3d 20 aa 3e 68       	cmp    $0x683eaa20,%eax
    9f64:	0f 9f c0             	setg   %al
    9f67:	0f b6 d0             	movzbl %al,%edx
    9f6a:	8b 85 a8 fe ff ff    	mov    -0x158(%rbp),%eax
    9f70:	66 89 85 92 fe ff ff 	mov    %ax,-0x16e(%rbp)
    9f77:	0f b7 85 92 fe ff ff 	movzwl -0x16e(%rbp),%eax
    9f7e:	0f b7 c0             	movzwl %ax,%eax
    9f81:	89 d6                	mov    %edx,%esi
    9f83:	89 c7                	mov    %eax,%edi
    9f85:	e8 b3 9d ff ff       	callq  3d3d <safe_mul_func_uint16_t_u_u>
    9f8a:	0f b7 d0             	movzwl %ax,%edx
    9f8d:	48 8b 05 38 71 00 00 	mov    0x7138(%rip),%rax        # 110cc <g_311+0xc>
    9f94:	48 39 c2             	cmp    %rax,%rdx
    9f97:	0f 95 c0             	setne  %al
    9f9a:	0f b6 d0             	movzbl %al,%edx
    9f9d:	0f b6 85 84 fe ff ff 	movzbl -0x17c(%rbp),%eax
    9fa4:	0f b6 8d 85 fe ff ff 	movzbl -0x17b(%rbp),%ecx
    9fab:	48 c1 e1 08          	shl    $0x8,%rcx
    9faf:	48 09 c1             	or     %rax,%rcx
    9fb2:	0f b6 85 86 fe ff ff 	movzbl -0x17a(%rbp),%eax
    9fb9:	48 c1 e0 10          	shl    $0x10,%rax
    9fbd:	48 09 c1             	or     %rax,%rcx
    9fc0:	0f b6 85 87 fe ff ff 	movzbl -0x179(%rbp),%eax
    9fc7:	83 e0 03             	and    $0x3,%eax
    9fca:	48 c1 e0 18          	shl    $0x18,%rax
    9fce:	48 09 c8             	or     %rcx,%rax
    9fd1:	98                   	cwtl   
    9fd2:	89 d6                	mov    %edx,%esi
    9fd4:	89 c7                	mov    %eax,%edi
    9fd6:	e8 88 95 ff ff       	callq  3563 <safe_rshift_func_int16_t_s_u>
    9fdb:	48 8b 95 38 ff ff ff 	mov    -0xc8(%rbp),%rdx
    9fe2:	66 89 02             	mov    %ax,(%rdx)
    9fe5:	48 8b 85 38 ff ff ff 	mov    -0xc8(%rbp),%rax
    9fec:	0f b7 00             	movzwl (%rax),%eax
    9fef:	98                   	cwtl   
    9ff0:	89 c7                	mov    %eax,%edi
    9ff2:	e8 a6 93 ff ff       	callq  339d <safe_unary_minus_func_int16_t_s>
    9ff7:	98                   	cwtl   
    9ff8:	44 89 f6             	mov    %r14d,%esi
    9ffb:	89 c7                	mov    %eax,%edi
    9ffd:	e8 28 95 ff ff       	callq  352a <safe_rshift_func_int16_t_s_s>
    a002:	0f b7 c0             	movzwl %ax,%eax
    a005:	44 89 e6             	mov    %r12d,%esi
    a008:	89 c7                	mov    %eax,%edi
    a00a:	e8 7f 9d ff ff       	callq  3d8e <safe_div_func_uint16_t_u_u>
    a00f:	0f b7 c0             	movzwl %ax,%eax
    a012:	0f b6 95 84 fe ff ff 	movzbl -0x17c(%rbp),%edx
    a019:	0f b6 8d 85 fe ff ff 	movzbl -0x17b(%rbp),%ecx
    a020:	48 c1 e1 08          	shl    $0x8,%rcx
    a024:	48 09 d1             	or     %rdx,%rcx
    a027:	0f b6 95 86 fe ff ff 	movzbl -0x17a(%rbp),%edx
    a02e:	48 c1 e2 10          	shl    $0x10,%rdx
    a032:	48 09 d1             	or     %rdx,%rcx
    a035:	0f b6 95 87 fe ff ff 	movzbl -0x179(%rbp),%edx
    a03c:	83 e2 03             	and    $0x3,%edx
    a03f:	48 c1 e2 18          	shl    $0x18,%rdx
    a043:	48 09 ca             	or     %rcx,%rdx
    a046:	39 d0                	cmp    %edx,%eax
    a048:	0f 9f c0             	setg   %al
    a04b:	0f b6 c0             	movzbl %al,%eax
    a04e:	89 85 94 fe ff ff    	mov    %eax,-0x16c(%rbp)
    a054:	8b 85 94 fe ff ff    	mov    -0x16c(%rbp),%eax
    a05a:	be f7 ff ff ff       	mov    $0xfffffff7,%esi
    a05f:	89 c7                	mov    %eax,%edi
    a061:	e8 66 96 ff ff       	callq  36cc <safe_mod_func_int32_t_s_s>
    a066:	0f b7 15 33 70 00 00 	movzwl 0x7033(%rip),%edx        # 110a0 <g_267>
    a06d:	0f b7 d2             	movzwl %dx,%edx
    a070:	39 d0                	cmp    %edx,%eax
    a072:	0f 9f c0             	setg   %al
    a075:	0f b6 c0             	movzbl %al,%eax
    a078:	41 39 c5             	cmp    %eax,%r13d
    a07b:	0f 95 c0             	setne  %al
    a07e:	0f b6 c0             	movzbl %al,%eax
    a081:	89 05 85 70 00 00    	mov    %eax,0x7085(%rip)        # 1110c <g_417+0xc>
    a087:	8b 15 7f 70 00 00    	mov    0x707f(%rip),%edx        # 1110c <g_417+0xc>
    a08d:	48 8b 85 40 ff ff ff 	mov    -0xc0(%rbp),%rax
    a094:	89 10                	mov    %edx,(%rax)
    a096:	48 8b 85 40 ff ff ff 	mov    -0xc0(%rbp),%rax
    a09d:	8b 00                	mov    (%rax),%eax
    a09f:	89 de                	mov    %ebx,%esi
    a0a1:	89 c7                	mov    %eax,%edi
    a0a3:	e8 55 9e ff ff       	callq  3efd <safe_mod_func_uint32_t_u_u>
    a0a8:	89 c2                	mov    %eax,%edx
    a0aa:	8b 85 a8 fe ff ff    	mov    -0x158(%rbp),%eax
    a0b0:	21 d0                	and    %edx,%eax
    a0b2:	0f be c0             	movsbl %al,%eax
    a0b5:	be fb ff ff ff       	mov    $0xfffffffb,%esi
    a0ba:	89 c7                	mov    %eax,%edi
    a0bc:	e8 31 91 ff ff       	callq  31f2 <safe_sub_func_int8_t_s_s>
    a0c1:	ba 74 8e 6e 7a       	mov    $0x7a6e8e74,%edx
    a0c6:	48 8b 85 50 ff ff ff 	mov    -0xb0(%rbp),%rax
    a0cd:	8b 00                	mov    (%rax),%eax
    a0cf:	21 c2                	and    %eax,%edx
    a0d1:	48 8b 85 50 ff ff ff 	mov    -0xb0(%rbp),%rax
    a0d8:	89 10                	mov    %edx,(%rax)
    a0da:	0f b6 85 84 fe ff ff 	movzbl -0x17c(%rbp),%eax
    a0e1:	0f b6 95 85 fe ff ff 	movzbl -0x17b(%rbp),%edx
    a0e8:	48 c1 e2 08          	shl    $0x8,%rdx
    a0ec:	48 09 c2             	or     %rax,%rdx
    a0ef:	0f b6 85 86 fe ff ff 	movzbl -0x17a(%rbp),%eax
    a0f6:	48 c1 e0 10          	shl    $0x10,%rax
    a0fa:	48 09 c2             	or     %rax,%rdx
    a0fd:	0f b6 85 87 fe ff ff 	movzbl -0x179(%rbp),%eax
    a104:	83 e0 03             	and    $0x3,%eax
    a107:	48 c1 e0 18          	shl    $0x18,%rax
    a10b:	48 09 d0             	or     %rdx,%rax
    a10e:	89 c1                	mov    %eax,%ecx
    a110:	48 8b 05 49 9b 00 00 	mov    0x9b49(%rip),%rax        # 13c60 <g_266>
    a117:	0f b7 10             	movzwl (%rax),%edx
    a11a:	83 ea 01             	sub    $0x1,%edx
    a11d:	66 89 10             	mov    %dx,(%rax)
    a120:	0f b7 00             	movzwl (%rax),%eax
    a123:	0f b7 c0             	movzwl %ax,%eax
    a126:	23 85 a8 fe ff ff    	and    -0x158(%rbp),%eax
    a12c:	85 c0                	test   %eax,%eax
    a12e:	0f 95 c0             	setne  %al
    a131:	0f b6 c0             	movzbl %al,%eax
    a134:	f7 d0                	not    %eax
    a136:	0f b7 c0             	movzwl %ax,%eax
    a139:	89 ce                	mov    %ecx,%esi
    a13b:	89 c7                	mov    %eax,%edi
    a13d:	e8 06 9d ff ff       	callq  3e48 <safe_rshift_func_uint16_t_u_s>
    a142:	0f be c0             	movsbl %al,%eax
    a145:	89 c6                	mov    %eax,%esi
    a147:	bf ff ff ff ff       	mov    $0xffffffff,%edi
    a14c:	e8 83 90 ff ff       	callq  31d4 <safe_add_func_int8_t_s_s>
    a151:	0f be c0             	movsbl %al,%eax
    a154:	39 85 a8 fe ff ff    	cmp    %eax,-0x158(%rbp)
    a15a:	0f 94 c0             	sete   %al
    a15d:	0f b6 d0             	movzbl %al,%edx
    a160:	8b 05 f2 6e 00 00    	mov    0x6ef2(%rip),%eax        # 11058 <g_105>
    a166:	39 c2                	cmp    %eax,%edx
    a168:	0f 95 c0             	setne  %al
    a16b:	0f b6 c0             	movzbl %al,%eax
    a16e:	0f b6 95 84 fe ff ff 	movzbl -0x17c(%rbp),%edx
    a175:	0f b6 8d 85 fe ff ff 	movzbl -0x17b(%rbp),%ecx
    a17c:	48 c1 e1 08          	shl    $0x8,%rcx
    a180:	48 09 d1             	or     %rdx,%rcx
    a183:	0f b6 95 86 fe ff ff 	movzbl -0x17a(%rbp),%edx
    a18a:	48 c1 e2 10          	shl    $0x10,%rdx
    a18e:	48 09 d1             	or     %rdx,%rcx
    a191:	0f b6 95 87 fe ff ff 	movzbl -0x179(%rbp),%edx
    a198:	83 e2 03             	and    $0x3,%edx
    a19b:	48 c1 e2 18          	shl    $0x18,%rdx
    a19f:	48 09 ca             	or     %rcx,%rdx
    a1a2:	39 d0                	cmp    %edx,%eax
    a1a4:	0f 9e c0             	setle  %al
    a1a7:	0f b6 c0             	movzbl %al,%eax
    a1aa:	be 06 00 00 00       	mov    $0x6,%esi
    a1af:	89 c7                	mov    %eax,%edi
    a1b1:	e8 f8 99 ff ff       	callq  3bae <safe_mod_func_uint8_t_u_u>
    a1b6:	0f b6 d0             	movzbl %al,%edx
    a1b9:	8b 85 94 fe ff ff    	mov    -0x16c(%rbp),%eax
    a1bf:	21 d0                	and    %edx,%eax
    a1c1:	89 85 94 fe ff ff    	mov    %eax,-0x16c(%rbp)
    a1c7:	8b 95 94 fe ff ff    	mov    -0x16c(%rbp),%edx
    a1cd:	0f b6 05 5d 6e 00 00 	movzbl 0x6e5d(%rip),%eax        # 11031 <g_30>
    a1d4:	0f b6 c0             	movzbl %al,%eax
    a1d7:	39 c2                	cmp    %eax,%edx
    a1d9:	0f 95 c0             	setne  %al
    a1dc:	0f b6 c0             	movzbl %al,%eax
    a1df:	89 c7                	mov    %eax,%edi
    a1e1:	e8 5f 99 ff ff       	callq  3b45 <safe_unary_minus_func_uint8_t_u>
    a1e6:	0f b6 85 84 fe ff ff 	movzbl -0x17c(%rbp),%eax
    a1ed:	0f b6 95 85 fe ff ff 	movzbl -0x17b(%rbp),%edx
    a1f4:	48 c1 e2 08          	shl    $0x8,%rdx
    a1f8:	48 09 c2             	or     %rax,%rdx
    a1fb:	0f b6 85 86 fe ff ff 	movzbl -0x17a(%rbp),%eax
    a202:	48 c1 e0 10          	shl    $0x10,%rax
    a206:	48 09 c2             	or     %rax,%rdx
    a209:	0f b6 85 87 fe ff ff 	movzbl -0x179(%rbp),%eax
    a210:	83 e0 03             	and    $0x3,%eax
    a213:	48 c1 e0 18          	shl    $0x18,%rax
    a217:	48 09 d0             	or     %rdx,%rax
    a21a:	89 c0                	mov    %eax,%eax
    a21c:	48 89 c6             	mov    %rax,%rsi
    a21f:	bf 01 00 00 00       	mov    $0x1,%edi
    a224:	e8 22 9e ff ff       	callq  404b <safe_sub_func_uint64_t_u_u>
    a229:	48 83 bd f0 fe ff ff 	cmpq   $0x0,-0x110(%rbp)
    a230:	00 
    a231:	74 07                	je     a23a <func_50+0x796>
    a233:	ba 01 00 00 00       	mov    $0x1,%edx
    a238:	eb 05                	jmp    a23f <func_50+0x79b>
    a23a:	ba 00 00 00 00       	mov    $0x0,%edx
    a23f:	48 8b 85 58 ff ff ff 	mov    -0xa8(%rbp),%rax
    a246:	21 d0                	and    %edx,%eax
    a248:	0f b7 c0             	movzwl %ax,%eax
    a24b:	be 0a 00 00 00       	mov    $0xa,%esi
    a250:	89 c7                	mov    %eax,%edi
    a252:	e8 67 9b ff ff       	callq  3dbe <safe_lshift_func_uint16_t_u_s>
    a257:	48 8b 35 12 9a 00 00 	mov    0x9a12(%rip),%rsi        # 13c70 <g_337>
    a25e:	48 8b 0d 0b 9a 00 00 	mov    0x9a0b(%rip),%rcx        # 13c70 <g_337>
    a265:	48 8b 06             	mov    (%rsi),%rax
    a268:	48 8b 56 08          	mov    0x8(%rsi),%rdx
    a26c:	48 89 01             	mov    %rax,(%rcx)
    a26f:	48 89 51 08          	mov    %rdx,0x8(%rcx)
    a273:	8b 46 10             	mov    0x10(%rsi),%eax
    a276:	89 41 10             	mov    %eax,0x10(%rcx)
    a279:	48 8b 85 60 ff ff ff 	mov    -0xa0(%rbp),%rax
    a280:	48 8d 95 84 fe ff ff 	lea    -0x17c(%rbp),%rdx
    a287:	48 89 10             	mov    %rdx,(%rax)
    a28a:	48 8d 85 98 fe ff ff 	lea    -0x168(%rbp),%rax
    a291:	48 89 85 50 ff ff ff 	mov    %rax,-0xb0(%rbp)
    a298:	e9 5c 01 00 00       	jmpq   a3f9 <func_50+0x955>
    a29d:	48 c7 85 f8 fe ff ff 	movq   $0xfffffffffffffffa,-0x108(%rbp)
    a2a4:	fa ff ff ff 
    a2a8:	c7 45 90 11 26 71 be 	movl   $0xbe712611,-0x70(%rbp)
    a2af:	c7 45 94 08 00 00 00 	movl   $0x8,-0x6c(%rbp)
    a2b6:	c7 45 98 11 26 71 be 	movl   $0xbe712611,-0x68(%rbp)
    a2bd:	c7 45 9c 08 00 00 00 	movl   $0x8,-0x64(%rbp)
    a2c4:	c7 45 a0 11 26 71 be 	movl   $0xbe712611,-0x60(%rbp)
    a2cb:	c7 45 a4 08 00 00 00 	movl   $0x8,-0x5c(%rbp)
    a2d2:	c7 45 a8 11 26 71 be 	movl   $0xbe712611,-0x58(%rbp)
    a2d9:	c7 45 ac 08 00 00 00 	movl   $0x8,-0x54(%rbp)
    a2e0:	c7 45 b0 11 26 71 be 	movl   $0xbe712611,-0x50(%rbp)
    a2e7:	c7 45 b4 08 00 00 00 	movl   $0x8,-0x4c(%rbp)
    a2ee:	c7 45 b8 11 26 71 be 	movl   $0xbe712611,-0x48(%rbp)
    a2f5:	c7 45 bc 08 00 00 00 	movl   $0x8,-0x44(%rbp)
    a2fc:	c7 45 c0 11 26 71 be 	movl   $0xbe712611,-0x40(%rbp)
    a303:	c7 45 c4 08 00 00 00 	movl   $0x8,-0x3c(%rbp)
    a30a:	c7 45 c8 11 26 71 be 	movl   $0xbe712611,-0x38(%rbp)
    a311:	c7 45 cc 08 00 00 00 	movl   $0x8,-0x34(%rbp)
    a318:	c7 05 16 a0 00 00 00 	movl   $0x0,0xa016(%rip)        # 14338 <g_183>
    a31f:	00 00 00 
    a322:	e9 c3 00 00 00       	jmpq   a3ea <func_50+0x946>
    a327:	48 c7 85 00 ff ff ff 	movq   $0x0,-0x100(%rbp)
    a32e:	00 00 00 00 
    a332:	48 8d 05 1f 6d 00 00 	lea    0x6d1f(%rip),%rax        # 11058 <g_105>
    a339:	48 89 85 08 ff ff ff 	mov    %rax,-0xf8(%rbp)
    a340:	48 8d 05 11 6d 00 00 	lea    0x6d11(%rip),%rax        # 11058 <g_105>
    a347:	48 89 85 10 ff ff ff 	mov    %rax,-0xf0(%rbp)
    a34e:	48 8d 85 94 fe ff ff 	lea    -0x16c(%rbp),%rax
    a355:	48 89 85 18 ff ff ff 	mov    %rax,-0xe8(%rbp)
    a35c:	48 8d 85 94 fe ff ff 	lea    -0x16c(%rbp),%rax
    a363:	48 89 85 20 ff ff ff 	mov    %rax,-0xe0(%rbp)
    a36a:	48 8d 05 e7 6c 00 00 	lea    0x6ce7(%rip),%rax        # 11058 <g_105>
    a371:	48 89 85 28 ff ff ff 	mov    %rax,-0xd8(%rbp)
    a378:	48 8d 85 94 fe ff ff 	lea    -0x16c(%rbp),%rax
    a37f:	48 89 85 30 ff ff ff 	mov    %rax,-0xd0(%rbp)
    a386:	c7 85 a4 fe ff ff 00 	movl   $0x0,-0x15c(%rbp)
    a38d:	00 00 00 
    a390:	eb 1e                	jmp    a3b0 <func_50+0x90c>
    a392:	8b 85 a4 fe ff ff    	mov    -0x15c(%rbp),%eax
    a398:	48 98                	cltq   
    a39a:	48 8d 15 b7 6c 00 00 	lea    0x6cb7(%rip),%rdx        # 11058 <g_105>
    a3a1:	48 89 94 c5 70 ff ff 	mov    %rdx,-0x90(%rbp,%rax,8)
    a3a8:	ff 
    a3a9:	83 85 a4 fe ff ff 01 	addl   $0x1,-0x15c(%rbp)
    a3b0:	83 bd a4 fe ff ff 03 	cmpl   $0x3,-0x15c(%rbp)
    a3b7:	7e d9                	jle    a392 <func_50+0x8ee>
    a3b9:	48 8b 05 98 98 00 00 	mov    0x9898(%rip),%rax        # 13c58 <g_168>
    a3c0:	48 8b 95 00 ff ff ff 	mov    -0x100(%rbp),%rdx
    a3c7:	48 89 10             	mov    %rdx,(%rax)
    a3ca:	0f b7 05 8f 6e 00 00 	movzwl 0x6e8f(%rip),%eax        # 11260 <g_627>
    a3d1:	83 e8 01             	sub    $0x1,%eax
    a3d4:	66 89 05 85 6e 00 00 	mov    %ax,0x6e85(%rip)        # 11260 <g_627>
    a3db:	8b 05 57 9f 00 00    	mov    0x9f57(%rip),%eax        # 14338 <g_183>
    a3e1:	83 c0 01             	add    $0x1,%eax
    a3e4:	89 05 4e 9f 00 00    	mov    %eax,0x9f4e(%rip)        # 14338 <g_183>
    a3ea:	8b 05 48 9f 00 00    	mov    0x9f48(%rip),%eax        # 14338 <g_183>
    a3f0:	83 f8 17             	cmp    $0x17,%eax
    a3f3:	0f 85 2e ff ff ff    	jne    a327 <func_50+0x883>
    a3f9:	0f b6 85 84 fe ff ff 	movzbl -0x17c(%rbp),%eax
    a400:	0f b6 95 85 fe ff ff 	movzbl -0x17b(%rbp),%edx
    a407:	48 c1 e2 08          	shl    $0x8,%rdx
    a40b:	48 09 c2             	or     %rax,%rdx
    a40e:	0f b6 85 86 fe ff ff 	movzbl -0x17a(%rbp),%eax
    a415:	48 c1 e0 10          	shl    $0x10,%rax
    a419:	48 09 c2             	or     %rax,%rdx
    a41c:	0f b6 85 87 fe ff ff 	movzbl -0x179(%rbp),%eax
    a423:	83 e0 03             	and    $0x3,%eax
    a426:	48 c1 e0 18          	shl    $0x18,%rax
    a42a:	48 09 d0             	or     %rdx,%rax
    a42d:	48 8b 5d d8          	mov    -0x28(%rbp),%rbx
    a431:	64 48 33 1c 25 28 00 	xor    %fs:0x28,%rbx
    a438:	00 00 
    a43a:	74 05                	je     a441 <func_50+0x99d>
    a43c:	e8 2f 8c ff ff       	callq  3070 <__stack_chk_fail@plt>
    a441:	48 81 c4 70 01 00 00 	add    $0x170,%rsp
    a448:	5b                   	pop    %rbx
    a449:	41 5c                	pop    %r12
    a44b:	41 5d                	pop    %r13
    a44d:	41 5e                	pop    %r14
    a44f:	5d                   	pop    %rbp
    a450:	c3                   	retq   

000000000000a451 <func_55>:
    a451:	f3 0f 1e fa          	endbr64 
    a455:	55                   	push   %rbp
    a456:	48 89 e5             	mov    %rsp,%rbp
    a459:	41 57                	push   %r15
    a45b:	41 56                	push   %r14
    a45d:	41 55                	push   %r13
    a45f:	41 54                	push   %r12
    a461:	53                   	push   %rbx
    a462:	48 81 ec 38 05 00 00 	sub    $0x538,%rsp
    a469:	89 f8                	mov    %edi,%eax
    a46b:	89 b5 c8 fa ff ff    	mov    %esi,-0x538(%rbp)
    a471:	48 89 95 c0 fa ff ff 	mov    %rdx,-0x540(%rbp)
    a478:	89 8d bc fa ff ff    	mov    %ecx,-0x544(%rbp)
    a47e:	44 89 85 b8 fa ff ff 	mov    %r8d,-0x548(%rbp)
    a485:	88 85 cc fa ff ff    	mov    %al,-0x534(%rbp)
    a48b:	64 48 8b 04 25 28 00 	mov    %fs:0x28,%rax
    a492:	00 00 
    a494:	48 89 45 c8          	mov    %rax,-0x38(%rbp)
    a498:	31 c0                	xor    %eax,%eax
    a49a:	c6 85 d3 fa ff ff 96 	movb   $0x96,-0x52d(%rbp)
    a4a1:	48 8d 05 ac 6b 00 00 	lea    0x6bac(%rip),%rax        # 11054 <g_101>
    a4a8:	48 89 85 80 fb ff ff 	mov    %rax,-0x480(%rbp)
    a4af:	48 8d 05 a0 6b 00 00 	lea    0x6ba0(%rip),%rax        # 11056 <g_103>
    a4b6:	48 89 85 c8 fb ff ff 	mov    %rax,-0x438(%rbp)
    a4bd:	48 8d 05 94 6b 00 00 	lea    0x6b94(%rip),%rax        # 11058 <g_105>
    a4c4:	48 89 85 88 fb ff ff 	mov    %rax,-0x478(%rbp)
    a4cb:	c7 85 e0 fa ff ff dc 	movl   $0x223669dc,-0x520(%rbp)
    a4d2:	69 36 22 
    a4d5:	c7 85 ec fa ff ff fc 	movl   $0xfffffffc,-0x514(%rbp)
    a4dc:	ff ff ff 
    a4df:	48 8d 05 62 97 00 00 	lea    0x9762(%rip),%rax        # 13c48 <g_120>
    a4e6:	48 89 85 d0 fb ff ff 	mov    %rax,-0x430(%rbp)
    a4ed:	48 c7 85 90 fb ff ff 	movq   $0x0,-0x470(%rbp)
    a4f4:	00 00 00 00 
    a4f8:	48 8d 05 81 6b 00 00 	lea    0x6b81(%rip),%rax        # 11080 <g_208>
    a4ff:	48 89 85 98 fb ff ff 	mov    %rax,-0x468(%rbp)
    a506:	c7 85 e4 fa ff ff 04 	movl   $0x4,-0x51c(%rbp)
    a50d:	00 00 00 
    a510:	c7 85 04 fb ff ff fe 	movl   $0xfffffffe,-0x4fc(%rbp)
    a517:	ff ff ff 
    a51a:	c7 85 e0 fc ff ff 04 	movl   $0x4,-0x320(%rbp)
    a521:	00 00 00 
    a524:	c7 85 e4 fc ff ff 04 	movl   $0x4,-0x31c(%rbp)
    a52b:	00 00 00 
    a52e:	c7 85 e8 fc ff ff 04 	movl   $0x4,-0x318(%rbp)
    a535:	00 00 00 
    a538:	c7 85 ec fc ff ff 04 	movl   $0x4,-0x314(%rbp)
    a53f:	00 00 00 
    a542:	48 c7 85 d8 fb ff ff 	movq   $0x0,-0x428(%rbp)
    a549:	00 00 00 00 
    a54d:	48 8d 85 e0 fc ff ff 	lea    -0x320(%rbp),%rax
    a554:	48 89 85 e0 fb ff ff 	mov    %rax,-0x420(%rbp)
    a55b:	c7 85 08 fb ff ff f6 	movl   $0xfffffff6,-0x4f8(%rbp)
    a562:	ff ff ff 
    a565:	48 8d 85 e0 fa ff ff 	lea    -0x520(%rbp),%rax
    a56c:	48 89 85 e8 fb ff ff 	mov    %rax,-0x418(%rbp)
    a573:	48 8d 85 e0 fc ff ff 	lea    -0x320(%rbp),%rax
    a57a:	48 83 c0 08          	add    $0x8,%rax
    a57e:	48 89 85 f0 fb ff ff 	mov    %rax,-0x410(%rbp)
    a585:	48 8d 05 ac 9d 00 00 	lea    0x9dac(%rip),%rax        # 14338 <g_183>
    a58c:	48 89 85 f8 fb ff ff 	mov    %rax,-0x408(%rbp)
    a593:	48 8d 05 9e 9d 00 00 	lea    0x9d9e(%rip),%rax        # 14338 <g_183>
    a59a:	48 89 85 00 fc ff ff 	mov    %rax,-0x400(%rbp)
    a5a1:	c7 85 0c fb ff ff 94 	movl   $0x9ee5b194,-0x4f4(%rbp)
    a5a8:	b1 e5 9e 
    a5ab:	c7 85 f0 fa ff ff 00 	movl   $0x0,-0x510(%rbp)
    a5b2:	00 00 00 
    a5b5:	eb 1a                	jmp    a5d1 <func_55+0x180>
    a5b7:	8b 85 f0 fa ff ff    	mov    -0x510(%rbp),%eax
    a5bd:	48 98                	cltq   
    a5bf:	c7 84 85 d0 fc ff ff 	movl   $0x5,-0x330(%rbp,%rax,4)
    a5c6:	05 00 00 00 
    a5ca:	83 85 f0 fa ff ff 01 	addl   $0x1,-0x510(%rbp)
    a5d1:	83 bd f0 fa ff ff 03 	cmpl   $0x3,-0x510(%rbp)
    a5d8:	7e dd                	jle    a5b7 <func_55+0x166>
    a5da:	90                   	nop
    a5db:	0f b6 85 d3 fa ff ff 	movzbl -0x52d(%rbp),%eax
    a5e2:	0f b6 d8             	movzbl %al,%ebx
    a5e5:	0f b6 85 d3 fa ff ff 	movzbl -0x52d(%rbp),%eax
    a5ec:	44 0f b6 e0          	movzbl %al,%r12d
    a5f0:	0f b6 85 d3 fa ff ff 	movzbl -0x52d(%rbp),%eax
    a5f7:	0f be d0             	movsbl %al,%edx
    a5fa:	0f b6 05 31 6a 00 00 	movzbl 0x6a31(%rip),%eax        # 11032 <g_61>
    a601:	0f b6 0d 2b 6a 00 00 	movzbl 0x6a2b(%rip),%ecx        # 11033 <g_61+0x1>
    a608:	48 c1 e1 08          	shl    $0x8,%rcx
    a60c:	48 09 c1             	or     %rax,%rcx
    a60f:	0f b6 05 1e 6a 00 00 	movzbl 0x6a1e(%rip),%eax        # 11034 <g_61+0x2>
    a616:	48 c1 e0 10          	shl    $0x10,%rax
    a61a:	48 09 c1             	or     %rax,%rcx
    a61d:	0f b6 05 11 6a 00 00 	movzbl 0x6a11(%rip),%eax        # 11035 <g_61+0x3>
    a624:	83 e0 03             	and    $0x3,%eax
    a627:	48 c1 e0 18          	shl    $0x18,%rax
    a62b:	48 09 c8             	or     %rcx,%rax
    a62e:	0f be c0             	movsbl %al,%eax
    a631:	89 d6                	mov    %edx,%esi
    a633:	89 c7                	mov    %eax,%edi
    a635:	e8 30 8c ff ff       	callq  326a <safe_div_func_int8_t_s_s>
    a63a:	89 c2                	mov    %eax,%edx
    a63c:	48 8b 85 80 fb ff ff 	mov    -0x480(%rbp),%rax
    a643:	0f b6 00             	movzbl (%rax),%eax
    a646:	09 c2                	or     %eax,%edx
    a648:	48 8b 85 80 fb ff ff 	mov    -0x480(%rbp),%rax
    a64f:	88 10                	mov    %dl,(%rax)
    a651:	0f b6 00             	movzbl (%rax),%eax
    a654:	0f b6 c0             	movzbl %al,%eax
    a657:	be f7 00 00 00       	mov    $0xf7,%esi
    a65c:	89 c7                	mov    %eax,%edi
    a65e:	e8 15 95 ff ff       	callq  3b78 <safe_sub_func_uint8_t_u_u>
    a663:	0f be c0             	movsbl %al,%eax
    a666:	be 05 00 00 00       	mov    $0x5,%esi
    a66b:	89 c7                	mov    %eax,%edi
    a66d:	e8 80 8b ff ff       	callq  31f2 <safe_sub_func_int8_t_s_s>
    a672:	0f b6 c0             	movzbl %al,%eax
    a675:	be 91 00 00 00       	mov    $0x91,%esi
    a67a:	89 c7                	mov    %eax,%edi
    a67c:	e8 d9 94 ff ff       	callq  3b5a <safe_add_func_uint8_t_u_u>
    a681:	0f b6 c0             	movzbl %al,%eax
    a684:	44 89 e6             	mov    %r12d,%esi
    a687:	89 c7                	mov    %eax,%edi
    a689:	e8 be 95 ff ff       	callq  3c4c <safe_lshift_func_uint8_t_u_u>
    a68e:	0f b6 d0             	movzbl %al,%edx
    a691:	48 8b 85 c8 fb ff ff 	mov    -0x438(%rbp),%rax
    a698:	66 89 10             	mov    %dx,(%rax)
    a69b:	48 8b 85 c8 fb ff ff 	mov    -0x438(%rbp),%rax
    a6a2:	0f b7 00             	movzwl (%rax),%eax
    a6a5:	98                   	cwtl   
    a6a6:	89 de                	mov    %ebx,%esi
    a6a8:	89 c7                	mov    %eax,%edi
    a6aa:	e8 67 8d ff ff       	callq  3416 <safe_mod_func_int16_t_s_s>
    a6af:	be ff ff 00 00       	mov    $0xffff,%esi
    a6b4:	bf 01 00 00 00       	mov    $0x1,%edi
    a6b9:	e8 61 96 ff ff       	callq  3d1f <safe_sub_func_uint16_t_u_u>
    a6be:	8b 85 b8 fa ff ff    	mov    -0x548(%rbp),%eax
    a6c4:	0f b7 c0             	movzwl %ax,%eax
    a6c7:	be ff ff 00 00       	mov    $0xffff,%esi
    a6cc:	89 c7                	mov    %eax,%edi
    a6ce:	e8 89 96 ff ff       	callq  3d5c <safe_mod_func_uint16_t_u_u>
    a6d3:	0f be c0             	movsbl %al,%eax
    a6d6:	be f6 ff ff ff       	mov    $0xfffffff6,%esi
    a6db:	89 c7                	mov    %eax,%edi
    a6dd:	e8 10 8b ff ff       	callq  31f2 <safe_sub_func_int8_t_s_s>
    a6e2:	89 c2                	mov    %eax,%edx
    a6e4:	48 8b 85 88 fb ff ff 	mov    -0x478(%rbp),%rax
    a6eb:	0f be d2             	movsbl %dl,%edx
    a6ee:	89 10                	mov    %edx,(%rax)
    a6f0:	48 8b 85 88 fb ff ff 	mov    -0x478(%rbp),%rax
    a6f7:	c7 00 00 00 00 00    	movl   $0x0,(%rax)
    a6fd:	48 8b 85 88 fb ff ff 	mov    -0x478(%rbp),%rax
    a704:	8b 00                	mov    (%rax),%eax
    a706:	85 c0                	test   %eax,%eax
    a708:	0f 84 2e 18 00 00    	je     bf3c <func_55+0x1aeb>
    a70e:	48 8d 05 43 69 00 00 	lea    0x6943(%rip),%rax        # 11058 <g_105>
    a715:	48 89 85 10 fd ff ff 	mov    %rax,-0x2f0(%rbp)
    a71c:	48 8d 05 35 69 00 00 	lea    0x6935(%rip),%rax        # 11058 <g_105>
    a723:	48 89 85 18 fd ff ff 	mov    %rax,-0x2e8(%rbp)
    a72a:	48 8d 05 27 69 00 00 	lea    0x6927(%rip),%rax        # 11058 <g_105>
    a731:	48 89 85 20 fd ff ff 	mov    %rax,-0x2e0(%rbp)
    a738:	48 8d 05 19 69 00 00 	lea    0x6919(%rip),%rax        # 11058 <g_105>
    a73f:	48 89 85 28 fd ff ff 	mov    %rax,-0x2d8(%rbp)
    a746:	c7 85 e8 fa ff ff 79 	movl   $0x767a1e79,-0x518(%rbp)
    a74d:	1e 7a 76 
    a750:	48 c7 85 a0 fb ff ff 	movq   $0xfffffffffffffff8,-0x460(%rbp)
    a757:	f8 ff ff ff 
    a75b:	48 8d 05 4e 69 00 00 	lea    0x694e(%rip),%rax        # 110b0 <g_267+0x10>
    a762:	48 89 85 08 fc ff ff 	mov    %rax,-0x3f8(%rbp)
    a769:	48 8d 05 04 69 00 00 	lea    0x6904(%rip),%rax        # 11074 <g_162>
    a770:	48 89 85 30 fd ff ff 	mov    %rax,-0x2d0(%rbp)
    a777:	48 8d 05 f6 68 00 00 	lea    0x68f6(%rip),%rax        # 11074 <g_162>
    a77e:	48 89 85 38 fd ff ff 	mov    %rax,-0x2c8(%rbp)
    a785:	48 8d 05 e8 68 00 00 	lea    0x68e8(%rip),%rax        # 11074 <g_162>
    a78c:	48 89 85 40 fd ff ff 	mov    %rax,-0x2c0(%rbp)
    a793:	48 8d 05 da 68 00 00 	lea    0x68da(%rip),%rax        # 11074 <g_162>
    a79a:	48 89 85 48 fd ff ff 	mov    %rax,-0x2b8(%rbp)
    a7a1:	48 8d 05 cc 68 00 00 	lea    0x68cc(%rip),%rax        # 11074 <g_162>
    a7a8:	48 89 85 50 fd ff ff 	mov    %rax,-0x2b0(%rbp)
    a7af:	48 8d 05 be 68 00 00 	lea    0x68be(%rip),%rax        # 11074 <g_162>
    a7b6:	48 89 85 58 fd ff ff 	mov    %rax,-0x2a8(%rbp)
    a7bd:	8b 85 7c fb ff ff    	mov    -0x484(%rbp),%eax
    a7c3:	25 00 00 00 fc       	and    $0xfc000000,%eax
    a7c8:	0d 4b 1e 00 00       	or     $0x1e4b,%eax
    a7cd:	89 85 7c fb ff ff    	mov    %eax,-0x484(%rbp)
    a7d3:	66 c7 85 d6 fa ff ff 	movw   $0x5,-0x52a(%rbp)
    a7da:	05 00 
    a7dc:	66 c7 85 d8 fa ff ff 	movw   $0x6ec2,-0x528(%rbp)
    a7e3:	c2 6e 
    a7e5:	48 8d 85 e4 fa ff ff 	lea    -0x51c(%rbp),%rax
    a7ec:	48 89 85 a8 fb ff ff 	mov    %rax,-0x458(%rbp)
    a7f3:	48 8d 85 a8 fb ff ff 	lea    -0x458(%rbp),%rax
    a7fa:	48 89 85 10 fc ff ff 	mov    %rax,-0x3f0(%rbp)
    a801:	66 c7 85 f0 fc ff ff 	movw   $0xb0fd,-0x310(%rbp)
    a808:	fd b0 
    a80a:	66 c7 85 f2 fc ff ff 	movw   $0x4c,-0x30e(%rbp)
    a811:	4c 00 
    a813:	66 c7 85 f4 fc ff ff 	movw   $0x4c,-0x30c(%rbp)
    a81a:	4c 00 
    a81c:	66 c7 85 f6 fc ff ff 	movw   $0xb0fd,-0x30a(%rbp)
    a823:	fd b0 
    a825:	66 c7 85 f8 fc ff ff 	movw   $0x4c,-0x308(%rbp)
    a82c:	4c 00 
    a82e:	66 c7 85 fa fc ff ff 	movw   $0x4c,-0x306(%rbp)
    a835:	4c 00 
    a837:	66 c7 85 fc fc ff ff 	movw   $0xb0fd,-0x304(%rbp)
    a83e:	fd b0 
    a840:	66 c7 85 fe fc ff ff 	movw   $0x4c,-0x302(%rbp)
    a847:	4c 00 
    a849:	66 c7 85 00 fd ff ff 	movw   $0x4c,-0x300(%rbp)
    a850:	4c 00 
    a852:	66 c7 85 02 fd ff ff 	movw   $0xb0fd,-0x2fe(%rbp)
    a859:	fd b0 
    a85b:	c6 85 cc fa ff ff 00 	movb   $0x0,-0x534(%rbp)
    a862:	e9 10 10 00 00       	jmpq   b877 <func_55+0x1426>
    a867:	48 b8 3d 7f 97 c0 bb 	movabs $0x77a780bbc0977f3d,%rax
    a86e:	80 a7 77 
    a871:	48 89 85 18 fc ff ff 	mov    %rax,-0x3e8(%rbp)
    a878:	48 c7 85 20 fc ff ff 	movq   $0x0,-0x3e0(%rbp)
    a87f:	00 00 00 00 
    a883:	48 8d 05 ce 67 00 00 	lea    0x67ce(%rip),%rax        # 11058 <g_105>
    a88a:	48 89 85 28 fc ff ff 	mov    %rax,-0x3d8(%rbp)
    a891:	66 c7 85 da fa ff ff 	movw   $0x5,-0x526(%rbp)
    a898:	05 00 
    a89a:	c7 85 90 fd ff ff 74 	movl   $0x395fe74,-0x270(%rbp)
    a8a1:	fe 95 03 
    a8a4:	c7 85 94 fd ff ff 01 	movl   $0xe7ff0101,-0x26c(%rbp)
    a8ab:	01 ff e7 
    a8ae:	c7 85 98 fd ff ff 16 	movl   $0xff01de16,-0x268(%rbp)
    a8b5:	de 01 ff 
    a8b8:	c7 85 9c fd ff ff 8a 	movl   $0x168a,-0x264(%rbp)
    a8bf:	16 00 00 
    a8c2:	c7 85 a0 fd ff ff fe 	movl   $0xfbe7fffe,-0x260(%rbp)
    a8c9:	ff e7 fb 
    a8cc:	c7 85 a4 fd ff ff d3 	movl   $0x10195d3,-0x25c(%rbp)
    a8d3:	95 01 01 
    a8d6:	c7 85 a8 fd ff ff ff 	movl   $0x1de00ff,-0x258(%rbp)
    a8dd:	00 de 01 
    a8e0:	c7 85 ac fd ff ff 00 	movl   $0xfeff1600,-0x254(%rbp)
    a8e7:	16 ff fe 
    a8ea:	c7 85 b0 fd ff ff ad 	movl   $0xdbdb01ad,-0x250(%rbp)
    a8f1:	01 db db 
    a8f4:	c7 85 b4 fd ff ff c9 	movl   $0x6406c9c9,-0x24c(%rbp)
    a8fb:	c9 06 64 
    a8fe:	c7 85 b8 fd ff ff 8a 	movl   $0x1fb018a,-0x248(%rbp)
    a905:	01 fb 01 
    a908:	c7 85 bc fd ff ff 04 	movl   $0xfb03fb04,-0x244(%rbp)
    a90f:	fb 03 fb 
    a912:	c7 85 c0 fd ff ff 95 	movl   $0x1f96495,-0x240(%rbp)
    a919:	64 f9 01 
    a91c:	c7 85 c4 fd ff ff 64 	movl   $0x3170064,-0x23c(%rbp)
    a923:	00 17 03 
    a926:	c7 85 c8 fd ff ff ff 	movl   $0x60130ff,-0x238(%rbp)
    a92d:	30 01 06 
    a930:	c7 85 cc fd ff ff 01 	movl   $0x104fe01,-0x234(%rbp)
    a937:	fe 04 01 
    a93a:	c7 85 d0 fd ff ff 17 	movl   $0x6fc97517,-0x230(%rbp)
    a941:	75 c9 6f 
    a944:	c7 85 d4 fd ff ff ff 	movl   $0xdefbff,-0x22c(%rbp)
    a94b:	fb de 00 
    a94e:	c7 85 d8 fd ff ff 93 	movl   $0xfeff0193,-0x228(%rbp)
    a955:	01 ff fe 
    a958:	c7 85 dc fd ff ff 00 	movl   $0xfb648a00,-0x224(%rbp)
    a95f:	8a 64 fb 
    a962:	c7 85 e0 fd ff ff 01 	movl   $0xe7179501,-0x220(%rbp)
    a969:	95 17 e7 
    a96c:	c7 85 e4 fd ff ff 5b 	movl   $0x5b175b,-0x21c(%rbp)
    a973:	17 5b 00 
    a976:	c7 85 e8 fd ff ff fb 	movl   $0x1fefb,-0x218(%rbp)
    a97d:	fe 01 00 
    a980:	c7 85 ec fd ff ff 01 	movl   $0xfe040001,-0x214(%rbp)
    a987:	00 04 fe 
    a98a:	c7 85 f0 fd ff ff ff 	movl   $0xff0401ff,-0x210(%rbp)
    a991:	01 04 ff 
    a994:	c7 85 f4 fd ff ff 01 	movl   $0xfe015b01,-0x20c(%rbp)
    a99b:	5b 01 fe 
    a99e:	c7 85 f8 fd ff ff fb 	movl   $0x745bf9fb,-0x208(%rbp)
    a9a5:	f9 5b 74 
    a9a8:	c7 85 fc fd ff ff 5b 	movl   $0xff17745b,-0x204(%rbp)
    a9af:	74 17 ff 
    a9b2:	c7 85 00 fe ff ff 01 	movl   $0xff640101,-0x200(%rbp)
    a9b9:	01 64 ff 
    a9bc:	c7 85 04 fe ff ff 00 	movl   $0xfbfffe00,-0x1fc(%rbp)
    a9c3:	fe ff fb 
    a9c6:	c7 85 08 fe ff ff 93 	movl   $0x43deff93,-0x1f8(%rbp)
    a9cd:	ff de 43 
    a9d0:	c7 85 0c fe ff ff ff 	movl   $0x95c9ffff,-0x1f4(%rbp)
    a9d7:	ff c9 95 
    a9da:	c7 85 10 fe ff ff 17 	movl   $0xfe04ff17,-0x1f0(%rbp)
    a9e1:	ff 04 fe 
    a9e4:	c7 85 14 fe ff ff 01 	movl   $0x1010101,-0x1ec(%rbp)
    a9eb:	01 01 01 
    a9ee:	c7 85 18 fe ff ff ff 	movl   $0xdb1701ff,-0x1e8(%rbp)
    a9f5:	01 17 db 
    a9f8:	c7 85 1c fe ff ff 64 	movl   $0x4f99364,-0x1e4(%rbp)
    a9ff:	93 f9 04 
    aa02:	c7 85 20 fe ff ff 95 	movl   $0x400fe95,-0x1e0(%rbp)
    aa09:	fe 00 04 
    aa0c:	c7 85 24 fe ff ff ff 	movl   $0xdbfe93ff,-0x1dc(%rbp)
    aa13:	93 fe db 
    aa16:	c7 85 28 fe ff ff ff 	movl   $0x1ff01ff,-0x1d8(%rbp)
    aa1d:	01 ff 01 
    aa20:	c7 85 2c fe ff ff 30 	movl   $0xfe060130,-0x1d4(%rbp)
    aa27:	01 06 fe 
    aa2a:	c7 85 30 fe ff ff ff 	movl   $0x958affff,-0x1d0(%rbp)
    aa31:	ff 8a 95 
    aa34:	c7 85 34 fe ff ff 01 	movl   $0x4317ff01,-0x1cc(%rbp)
    aa3b:	ff 17 43 
    aa3e:	c7 85 38 fe ff ff 8a 	movl   $0xfbffff8a,-0x1c8(%rbp)
    aa45:	ff ff fb 
    aa48:	c7 85 3c fe ff ff 74 	movl   $0xff00fe74,-0x1c4(%rbp)
    aa4f:	fe 00 ff 
    aa52:	c7 85 40 fe ff ff 00 	movl   $0xfffa0100,-0x1c0(%rbp)
    aa59:	01 fa ff 
    aa5c:	c7 85 44 fe ff ff ff 	movl   $0x741674ff,-0x1bc(%rbp)
    aa63:	74 16 74 
    aa66:	c7 85 48 fe ff ff 75 	movl   $0xfefbf975,-0x1b8(%rbp)
    aa6d:	f9 fb fe 
    aa70:	c7 85 4c fe ff ff 01 	movl   $0xff015b01,-0x1b4(%rbp)
    aa77:	5b 01 ff 
    aa7a:	c7 85 50 fe ff ff f9 	movl   $0xfe1701f9,-0x1b0(%rbp)
    aa81:	01 17 fe 
    aa84:	c7 85 54 fe ff ff f9 	movl   $0x100f9,-0x1ac(%rbp)
    aa8b:	00 01 00 
    aa8e:	c7 85 58 fe ff ff 01 	movl   $0xfbfe01,-0x1a8(%rbp)
    aa95:	fe fb 00 
    aa98:	c7 85 5c fe ff ff 75 	movl   $0xe7161775,-0x1a4(%rbp)
    aa9f:	17 16 e7 
    aaa2:	c7 85 60 fe ff ff ff 	movl   $0xfbfa95ff,-0x1a0(%rbp)
    aaa9:	95 fa fb 
    aaac:	c7 85 64 fe ff ff 00 	movl   $0xfe008a00,-0x19c(%rbp)
    aab3:	8a 00 fe 
    aab6:	c7 85 68 fe ff ff 74 	movl   $0xff0174,-0x198(%rbp)
    aabd:	01 ff 00 
    aac0:	c7 85 6c fe ff ff 8a 	movl   $0x6f17fb8a,-0x194(%rbp)
    aac7:	fb 17 6f 
    aaca:	48 8d 05 77 91 00 00 	lea    0x9177(%rip),%rax        # 13c48 <g_120>
    aad1:	48 89 85 30 fc ff ff 	mov    %rax,-0x3d0(%rbp)
    aad8:	48 8d 05 81 91 00 00 	lea    0x9181(%rip),%rax        # 13c60 <g_266>
    aadf:	48 89 85 38 fc ff ff 	mov    %rax,-0x3c8(%rbp)
    aae6:	48 8d 05 9f 65 00 00 	lea    0x659f(%rip),%rax        # 1108c <g_208+0xc>
    aaed:	48 89 85 40 fc ff ff 	mov    %rax,-0x3c0(%rbp)
    aaf4:	c7 85 10 fb ff ff fc 	movl   $0xfffffffc,-0x4f0(%rbp)
    aafb:	ff ff ff 
    aafe:	c7 85 14 fb ff ff 2f 	movl   $0xfec8d32f,-0x4ec(%rbp)
    ab05:	d3 c8 fe 
    ab08:	c7 85 18 fb ff ff d7 	movl   $0xea8cc6d7,-0x4e8(%rbp)
    ab0f:	c6 8c ea 
    ab12:	c7 85 1c fb ff ff cb 	movl   $0x36743ccb,-0x4e4(%rbp)
    ab19:	3c 74 36 
    ab1c:	c7 85 20 fb ff ff ff 	movl   $0xffffffff,-0x4e0(%rbp)
    ab23:	ff ff ff 
    ab26:	48 c7 85 48 fc ff ff 	movq   $0x0,-0x3b8(%rbp)
    ab2d:	00 00 00 00 
    ab31:	48 8d 85 d0 fc ff ff 	lea    -0x330(%rbp),%rax
    ab38:	48 83 c0 04          	add    $0x4,%rax
    ab3c:	48 89 85 50 fc ff ff 	mov    %rax,-0x3b0(%rbp)
    ab43:	c7 85 bc fa ff ff 00 	movl   $0x0,-0x544(%rbp)
    ab4a:	00 00 00 
    ab4d:	e9 1b 03 00 00       	jmpq   ae6d <func_55+0xa1c>
    ab52:	c6 85 d4 fa ff ff 01 	movb   $0x1,-0x52c(%rbp)
    ab59:	48 8b 85 88 fb ff ff 	mov    -0x478(%rbp),%rax
    ab60:	c7 00 ff ff ff ff    	movl   $0xffffffff,(%rax)
    ab66:	83 bd bc fa ff ff 00 	cmpl   $0x0,-0x544(%rbp)
    ab6d:	0f 84 4f 01 00 00    	je     acc2 <func_55+0x871>
    ab73:	48 8d 05 de 64 00 00 	lea    0x64de(%rip),%rax        # 11058 <g_105>
    ab7a:	48 89 85 70 fe ff ff 	mov    %rax,-0x190(%rbp)
    ab81:	48 8d 05 d0 64 00 00 	lea    0x64d0(%rip),%rax        # 11058 <g_105>
    ab88:	48 89 85 78 fe ff ff 	mov    %rax,-0x188(%rbp)
    ab8f:	48 8d 05 c2 64 00 00 	lea    0x64c2(%rip),%rax        # 11058 <g_105>
    ab96:	48 89 85 80 fe ff ff 	mov    %rax,-0x180(%rbp)
    ab9d:	48 8d 05 b4 64 00 00 	lea    0x64b4(%rip),%rax        # 11058 <g_105>
    aba4:	48 89 85 88 fe ff ff 	mov    %rax,-0x178(%rbp)
    abab:	48 8d 05 a6 64 00 00 	lea    0x64a6(%rip),%rax        # 11058 <g_105>
    abb2:	48 89 85 90 fe ff ff 	mov    %rax,-0x170(%rbp)
    abb9:	48 8d 05 98 64 00 00 	lea    0x6498(%rip),%rax        # 11058 <g_105>
    abc0:	48 89 85 98 fe ff ff 	mov    %rax,-0x168(%rbp)
    abc7:	48 8d 05 8a 64 00 00 	lea    0x648a(%rip),%rax        # 11058 <g_105>
    abce:	48 89 85 a0 fe ff ff 	mov    %rax,-0x160(%rbp)
    abd5:	48 8d 05 7c 64 00 00 	lea    0x647c(%rip),%rax        # 11058 <g_105>
    abdc:	48 89 85 a8 fe ff ff 	mov    %rax,-0x158(%rbp)
    abe3:	48 8d 05 6e 64 00 00 	lea    0x646e(%rip),%rax        # 11058 <g_105>
    abea:	48 89 85 b0 fe ff ff 	mov    %rax,-0x150(%rbp)
    abf1:	48 8d 05 60 64 00 00 	lea    0x6460(%rip),%rax        # 11058 <g_105>
    abf8:	48 89 85 b8 fe ff ff 	mov    %rax,-0x148(%rbp)
    abff:	48 8d 05 52 64 00 00 	lea    0x6452(%rip),%rax        # 11058 <g_105>
    ac06:	48 89 85 c0 fe ff ff 	mov    %rax,-0x140(%rbp)
    ac0d:	48 8d 05 44 64 00 00 	lea    0x6444(%rip),%rax        # 11058 <g_105>
    ac14:	48 89 85 c8 fe ff ff 	mov    %rax,-0x138(%rbp)
    ac1b:	48 8d 05 36 64 00 00 	lea    0x6436(%rip),%rax        # 11058 <g_105>
    ac22:	48 89 85 d0 fe ff ff 	mov    %rax,-0x130(%rbp)
    ac29:	48 8d 05 28 64 00 00 	lea    0x6428(%rip),%rax        # 11058 <g_105>
    ac30:	48 89 85 d8 fe ff ff 	mov    %rax,-0x128(%rbp)
    ac37:	48 8d 05 1a 64 00 00 	lea    0x641a(%rip),%rax        # 11058 <g_105>
    ac3e:	48 89 85 e0 fe ff ff 	mov    %rax,-0x120(%rbp)
    ac45:	48 8d 05 0c 64 00 00 	lea    0x640c(%rip),%rax        # 11058 <g_105>
    ac4c:	48 89 85 e8 fe ff ff 	mov    %rax,-0x118(%rbp)
    ac53:	48 8d 05 fe 63 00 00 	lea    0x63fe(%rip),%rax        # 11058 <g_105>
    ac5a:	48 89 85 f0 fe ff ff 	mov    %rax,-0x110(%rbp)
    ac61:	48 8d 05 f0 63 00 00 	lea    0x63f0(%rip),%rax        # 11058 <g_105>
    ac68:	48 89 85 f8 fe ff ff 	mov    %rax,-0x108(%rbp)
    ac6f:	c7 85 34 fb ff ff ff 	movl   $0xffffffff,-0x4cc(%rbp)
    ac76:	ff ff ff 
    ac79:	48 8b 05 c0 63 00 00 	mov    0x63c0(%rip),%rax        # 11040 <g_88>
    ac80:	48 8b 85 e8 fe ff ff 	mov    -0x118(%rbp),%rax
    ac87:	48 8d 15 ca 63 00 00 	lea    0x63ca(%rip),%rdx        # 11058 <g_105>
    ac8e:	48 39 d0             	cmp    %rdx,%rax
    ac91:	74 23                	je     acb6 <func_55+0x865>
    ac93:	0f b6 85 d4 fa ff ff 	movzbl -0x52c(%rbp),%eax
    ac9a:	83 c0 01             	add    $0x1,%eax
    ac9d:	88 85 d4 fa ff ff    	mov    %al,-0x52c(%rbp)
    aca3:	83 85 34 fb ff ff 01 	addl   $0x1,-0x4cc(%rbp)
    acaa:	48 8b 85 20 fc ff ff 	mov    -0x3e0(%rbp),%rax
    acb1:	e9 05 13 00 00       	jmpq   bfbb <func_55+0x1b6a>
    acb6:	48 8d 05 97 63 00 00 	lea    0x6397(%rip),%rax        # 11054 <g_101>
    acbd:	e9 f9 12 00 00       	jmpq   bfbb <func_55+0x1b6a>
    acc2:	48 8b 85 88 fb ff ff 	mov    -0x478(%rbp),%rax
    acc9:	8b 10                	mov    (%rax),%edx
    accb:	48 8b 85 88 fb ff ff 	mov    -0x478(%rbp),%rax
    acd2:	23 95 bc fa ff ff    	and    -0x544(%rbp),%edx
    acd8:	89 10                	mov    %edx,(%rax)
    acda:	48 8b 05 6f 8f 00 00 	mov    0x8f6f(%rip),%rax        # 13c50 <g_119>
    ace1:	48 8d 95 c0 fa ff ff 	lea    -0x540(%rbp),%rdx
    ace8:	48 89 10             	mov    %rdx,(%rax)
    aceb:	66 c7 05 62 63 00 00 	movw   $0x0,0x6362(%rip)        # 11056 <g_103>
    acf2:	00 00 
    acf4:	e9 5c 01 00 00       	jmpq   ae55 <func_55+0xa04>
    acf9:	48 8d 85 70 fe ff ff 	lea    -0x190(%rbp),%rax
    ad00:	48 8d 15 d9 89 00 00 	lea    0x89d9(%rip),%rdx        # 136e0 <g_1297+0x4c0>
    ad07:	b9 2a 00 00 00       	mov    $0x2a,%ecx
    ad0c:	48 89 c7             	mov    %rax,%rdi
    ad0f:	48 89 d6             	mov    %rdx,%rsi
    ad12:	f3 48 a5             	rep movsq %ds:(%rsi),%es:(%rdi)
    ad15:	c7 85 b8 fa ff ff 00 	movl   $0x0,-0x548(%rbp)
    ad1c:	00 00 00 
    ad1f:	83 bd b8 fa ff ff 03 	cmpl   $0x3,-0x548(%rbp)
    ad26:	77 1a                	ja     ad42 <func_55+0x8f1>
    ad28:	48 8d 05 25 63 00 00 	lea    0x6325(%rip),%rax        # 11054 <g_101>
    ad2f:	48 89 85 78 fc ff ff 	mov    %rax,-0x388(%rbp)
    ad36:	48 8b 85 78 fc ff ff 	mov    -0x388(%rbp),%rax
    ad3d:	e9 79 12 00 00       	jmpq   bfbb <func_55+0x1b6a>
    ad42:	48 8d 05 0f 63 00 00 	lea    0x630f(%rip),%rax        # 11058 <g_105>
    ad49:	48 89 85 28 fd ff ff 	mov    %rax,-0x2d8(%rbp)
    ad50:	83 bd b8 fa ff ff 00 	cmpl   $0x0,-0x548(%rbp)
    ad57:	0f 85 9a 0b 00 00    	jne    b8f7 <func_55+0x14a6>
    ad5d:	0f b7 05 f8 62 00 00 	movzwl 0x62f8(%rip),%eax        # 1105c <g_126>
    ad64:	66 85 c0             	test   %ax,%ax
    ad67:	0f 85 8f 00 00 00    	jne    adfc <func_55+0x9ab>
    ad6d:	66 0f be 85 cc fa ff 	movsbw -0x534(%rbp),%ax
    ad74:	ff 
    ad75:	0f b7 d8             	movzwl %ax,%ebx
    ad78:	48 8b 05 c1 8e 00 00 	mov    0x8ec1(%rip),%rax        # 13c40 <g_29>
    ad7f:	0f b6 00             	movzbl (%rax),%eax
    ad82:	0f b6 c0             	movzbl %al,%eax
    ad85:	be 02 00 00 00       	mov    $0x2,%esi
    ad8a:	89 c7                	mov    %eax,%edi
    ad8c:	e8 2d 8f ff ff       	callq  3cbe <safe_rshift_func_uint8_t_u_u>
    ad91:	0f b6 d0             	movzbl %al,%edx
    ad94:	0f b6 85 d4 fa ff ff 	movzbl -0x52c(%rbp),%eax
    ad9b:	48 89 d6             	mov    %rdx,%rsi
    ad9e:	48 89 c7             	mov    %rax,%rdi
    ada1:	e8 02 8b ff ff       	callq  38a8 <safe_sub_func_int64_t_s_s>
    ada6:	83 c8 44             	or     $0x44,%eax
    ada9:	0f b7 c0             	movzwl %ax,%eax
    adac:	89 de                	mov    %ebx,%esi
    adae:	89 c7                	mov    %eax,%edi
    adb0:	e8 4a 8f ff ff       	callq  3cff <safe_add_func_uint16_t_u_u>
    adb5:	0f b7 c0             	movzwl %ax,%eax
    adb8:	0f b6 95 c8 fa ff ff 	movzbl -0x538(%rbp),%edx
    adbf:	0f b6 8d c9 fa ff ff 	movzbl -0x537(%rbp),%ecx
    adc6:	48 c1 e1 08          	shl    $0x8,%rcx
    adca:	48 09 d1             	or     %rdx,%rcx
    adcd:	0f b6 95 ca fa ff ff 	movzbl -0x536(%rbp),%edx
    add4:	48 c1 e2 10          	shl    $0x10,%rdx
    add8:	48 09 d1             	or     %rdx,%rcx
    addb:	0f b6 95 cb fa ff ff 	movzbl -0x535(%rbp),%edx
    ade2:	83 e2 03             	and    $0x3,%edx
    ade5:	48 c1 e2 18          	shl    $0x18,%rdx
    ade9:	48 09 ca             	or     %rcx,%rdx
    adec:	39 d0                	cmp    %edx,%eax
    adee:	0f 95 c0             	setne  %al
    adf1:	0f b6 d0             	movzbl %al,%edx
    adf4:	8b 85 e8 fa ff ff    	mov    -0x518(%rbp),%eax
    adfa:	39 c2                	cmp    %eax,%edx
    adfc:	8b 05 56 62 00 00    	mov    0x6256(%rip),%eax        # 11058 <g_105>
    ae02:	39 85 b8 fa ff ff    	cmp    %eax,-0x548(%rbp)
    ae08:	0f 97 c0             	seta   %al
    ae0b:	0f b6 c0             	movzbl %al,%eax
    ae0e:	48 8d 15 41 62 00 00 	lea    0x6241(%rip),%rdx        # 11056 <g_103>
    ae15:	48 89 95 b8 fe ff ff 	mov    %rdx,-0x148(%rbp)
    ae1c:	89 c6                	mov    %eax,%esi
    ae1e:	bf 01 00 00 00       	mov    $0x1,%edi
    ae23:	e8 15 8f ff ff       	callq  3d3d <safe_mul_func_uint16_t_u_u>
    ae28:	48 8b 95 c0 fa ff ff 	mov    -0x540(%rbp),%rdx
    ae2f:	0f b6 12             	movzbl (%rdx),%edx
    ae32:	0f b6 d2             	movzbl %dl,%edx
    ae35:	66 39 d0             	cmp    %dx,%ax
    ae38:	0f 92 c0             	setb   %al
    ae3b:	0f b6 c0             	movzbl %al,%eax
    ae3e:	89 05 14 62 00 00    	mov    %eax,0x6214(%rip)        # 11058 <g_105>
    ae44:	0f b7 05 0b 62 00 00 	movzwl 0x620b(%rip),%eax        # 11056 <g_103>
    ae4b:	83 c0 01             	add    $0x1,%eax
    ae4e:	66 89 05 01 62 00 00 	mov    %ax,0x6201(%rip)        # 11056 <g_103>
    ae55:	0f b7 05 fa 61 00 00 	movzwl 0x61fa(%rip),%eax        # 11056 <g_103>
    ae5c:	66 83 f8 03          	cmp    $0x3,%ax
    ae60:	0f 8e 93 fe ff ff    	jle    acf9 <func_55+0x8a8>
    ae66:	83 ad bc fa ff ff 01 	subl   $0x1,-0x544(%rbp)
    ae6d:	83 bd bc fa ff ff fe 	cmpl   $0xfffffffe,-0x544(%rbp)
    ae74:	0f 85 d8 fc ff ff    	jne    ab52 <func_55+0x701>
    ae7a:	66 c7 05 d9 61 00 00 	movw   $0x3,0x61d9(%rip)        # 1105c <g_126>
    ae81:	03 00 
    ae83:	e9 8d 00 00 00       	jmpq   af15 <func_55+0xac4>
    ae88:	48 c7 85 68 fc ff ff 	movq   $0x0,-0x398(%rbp)
    ae8f:	00 00 00 00 
    ae93:	48 8d 05 be 61 00 00 	lea    0x61be(%rip),%rax        # 11058 <g_105>
    ae9a:	48 89 85 70 fc ff ff 	mov    %rax,-0x390(%rbp)
    aea1:	c7 85 2c fb ff ff 00 	movl   $0x0,-0x4d4(%rbp)
    aea8:	00 00 00 
    aeab:	c7 85 30 fb ff ff ec 	movl   $0x9547baec,-0x4d0(%rbp)
    aeb2:	ba 47 95 
    aeb5:	48 8d 85 70 fe ff ff 	lea    -0x190(%rbp),%rax
    aebc:	48 8d 15 9d 32 00 00 	lea    0x329d(%rip),%rdx        # e160 <g_1185+0x18>
    aec3:	b9 23 00 00 00       	mov    $0x23,%ecx
    aec8:	48 89 c7             	mov    %rax,%rdi
    aecb:	48 89 d6             	mov    %rdx,%rsi
    aece:	f3 48 a5             	rep movsq %ds:(%rsi),%es:(%rdi)
    aed1:	c7 85 f4 fa ff ff 00 	movl   $0x0,-0x50c(%rbp)
    aed8:	00 00 00 
    aedb:	eb 1e                	jmp    aefb <func_55+0xaaa>
    aedd:	8b 85 f4 fa ff ff    	mov    -0x50c(%rbp),%eax
    aee3:	48 98                	cltq   
    aee5:	48 8d 15 72 61 00 00 	lea    0x6172(%rip),%rdx        # 1105e <g_143>
    aeec:	48 89 94 c5 60 fd ff 	mov    %rdx,-0x2a0(%rbp,%rax,8)
    aef3:	ff 
    aef4:	83 85 f4 fa ff ff 01 	addl   $0x1,-0x50c(%rbp)
    aefb:	83 bd f4 fa ff ff 05 	cmpl   $0x5,-0x50c(%rbp)
    af02:	7e d9                	jle    aedd <func_55+0xa8c>
    af04:	0f b7 05 51 61 00 00 	movzwl 0x6151(%rip),%eax        # 1105c <g_126>
    af0b:	83 e8 01             	sub    $0x1,%eax
    af0e:	66 89 05 47 61 00 00 	mov    %ax,0x6147(%rip)        # 1105c <g_126>
    af15:	0f b7 05 40 61 00 00 	movzwl 0x6140(%rip),%eax        # 1105c <g_126>
    af1c:	66 85 c0             	test   %ax,%ax
    af1f:	0f 89 63 ff ff ff    	jns    ae88 <func_55+0xa37>
    af25:	0f b6 05 54 61 00 00 	movzbl 0x6154(%rip),%eax        # 11080 <g_208>
    af2c:	83 e0 7f             	and    $0x7f,%eax
    af2f:	84 c0                	test   %al,%al
    af31:	0f 85 49 01 00 00    	jne    b080 <func_55+0xc2f>
    af37:	0f b7 05 1e 61 00 00 	movzwl 0x611e(%rip),%eax        # 1105c <g_126>
    af3e:	44 0f bf f0          	movswl %ax,%r14d
    af42:	48 8b 85 28 fc ff ff 	mov    -0x3d8(%rbp),%rax
    af49:	8b 00                	mov    (%rax),%eax
    af4b:	89 85 b4 fa ff ff    	mov    %eax,-0x54c(%rbp)
    af51:	0f b6 05 fc 60 00 00 	movzbl 0x60fc(%rip),%eax        # 11054 <g_101>
    af58:	0f b6 d8             	movzbl %al,%ebx
    af5b:	48 8b 85 90 fb ff ff 	mov    -0x470(%rbp),%rax
    af62:	44 0f be e0          	movsbl %al,%r12d
    af66:	48 8b 85 88 fb ff ff 	mov    -0x478(%rbp),%rax
    af6d:	44 8b 28             	mov    (%rax),%r13d
    af70:	0f b6 05 e7 60 00 00 	movzbl 0x60e7(%rip),%eax        # 1105e <g_143>
    af77:	4c 0f be f8          	movsbq %al,%r15
    af7b:	48 8b 85 a0 fb ff ff 	mov    -0x460(%rbp),%rax
    af82:	48 89 c2             	mov    %rax,%rdx
    af85:	48 8b 05 d8 60 00 00 	mov    0x60d8(%rip),%rax        # 11064 <g_146+0x4>
    af8c:	48 89 d6             	mov    %rdx,%rsi
    af8f:	48 89 c7             	mov    %rax,%rdi
    af92:	e8 b4 90 ff ff       	callq  404b <safe_sub_func_uint64_t_u_u>
    af97:	49 39 c7             	cmp    %rax,%r15
    af9a:	72 58                	jb     aff4 <func_55+0xba3>
    af9c:	0f be 85 cc fa ff ff 	movsbl -0x534(%rbp),%eax
    afa3:	be 06 00 00 00       	mov    $0x6,%esi
    afa8:	89 c7                	mov    %eax,%edi
    afaa:	e8 3f 83 ff ff       	callq  32ee <safe_lshift_func_int8_t_s_u>
    afaf:	84 c0                	test   %al,%al
    afb1:	74 07                	je     afba <func_55+0xb69>
    afb3:	ba 01 00 00 00       	mov    $0x1,%edx
    afb8:	eb 05                	jmp    afbf <func_55+0xb6e>
    afba:	ba 00 00 00 00       	mov    $0x0,%edx
    afbf:	8b 05 93 60 00 00    	mov    0x6093(%rip),%eax        # 11058 <g_105>
    afc5:	39 c2                	cmp    %eax,%edx
    afc7:	0f 9e c0             	setle  %al
    afca:	0f b6 c8             	movzbl %al,%ecx
    afcd:	48 8b 85 40 fc ff ff 	mov    -0x3c0(%rbp),%rax
    afd4:	48 8b 10             	mov    (%rax),%rdx
    afd7:	48 63 c1             	movslq %ecx,%rax
    afda:	48 21 c2             	and    %rax,%rdx
    afdd:	48 8b 85 40 fc ff ff 	mov    -0x3c0(%rbp),%rax
    afe4:	48 89 10             	mov    %rdx,(%rax)
    afe7:	48 8b 85 40 fc ff ff 	mov    -0x3c0(%rbp),%rax
    afee:	48 8b 00             	mov    (%rax),%rax
    aff1:	48 85 c0             	test   %rax,%rax
    aff4:	48 8b 15 65 8c 00 00 	mov    0x8c65(%rip),%rdx        # 13c60 <g_266>
    affb:	48 8b 85 38 fc ff ff 	mov    -0x3c8(%rbp),%rax
    b002:	48 89 10             	mov    %rdx,(%rax)
    b005:	48 8b 85 38 fc ff ff 	mov    -0x3c8(%rbp),%rax
    b00c:	48 8b 00             	mov    (%rax),%rax
    b00f:	48 85 c0             	test   %rax,%rax
    b012:	0f 95 c0             	setne  %al
    b015:	0f b6 c0             	movzbl %al,%eax
    b018:	44 89 ee             	mov    %r13d,%esi
    b01b:	89 c7                	mov    %eax,%edi
    b01d:	e8 dd 86 ff ff       	callq  36ff <safe_div_func_int32_t_s_s>
    b022:	48 83 bd 08 fc ff ff 	cmpq   $0x0,-0x3f8(%rbp)
    b029:	00 
    b02a:	74 07                	je     b033 <func_55+0xbe2>
    b02c:	b8 fb ff ff ff       	mov    $0xfffffffb,%eax
    b031:	eb 05                	jmp    b038 <func_55+0xbe7>
    b033:	b8 fa ff ff ff       	mov    $0xfffffffa,%eax
    b038:	44 89 e6             	mov    %r12d,%esi
    b03b:	89 c7                	mov    %eax,%edi
    b03d:	e8 28 82 ff ff       	callq  326a <safe_div_func_int8_t_s_s>
    b042:	48 8b 85 28 fc ff ff 	mov    -0x3d8(%rbp),%rax
    b049:	8b 00                	mov    (%rax),%eax
    b04b:	48 98                	cltq   
    b04d:	48 89 de             	mov    %rbx,%rsi
    b050:	48 89 c7             	mov    %rax,%rdi
    b053:	e8 50 88 ff ff       	callq  38a8 <safe_sub_func_int64_t_s_s>
    b058:	0f be c0             	movsbl %al,%eax
    b05b:	8b b5 b4 fa ff ff    	mov    -0x54c(%rbp),%esi
    b061:	89 c7                	mov    %eax,%edi
    b063:	e8 04 83 ff ff       	callq  336c <safe_rshift_func_int8_t_s_u>
    b068:	48 8b 85 88 fb ff ff 	mov    -0x478(%rbp),%rax
    b06f:	c7 00 b9 4e 00 00    	movl   $0x4eb9,(%rax)
    b075:	8b 00                	mov    (%rax),%eax
    b077:	41 39 c6             	cmp    %eax,%r14d
    b07a:	0f 84 a3 04 00 00    	je     b523 <func_55+0x10d2>
    b080:	48 8d 85 90 fb ff ff 	lea    -0x470(%rbp),%rax
    b087:	48 89 85 58 fc ff ff 	mov    %rax,-0x3a8(%rbp)
    b08e:	c7 85 28 fb ff ff e1 	movl   $0xb4315be1,-0x4d8(%rbp)
    b095:	5b 31 b4 
    b098:	48 8b 05 c1 8b 00 00 	mov    0x8bc1(%rip),%rax        # 13c60 <g_266>
    b09f:	0f b7 00             	movzwl (%rax),%eax
    b0a2:	0f bf d8             	movswl %ax,%ebx
    b0a5:	48 8b 05 94 8b 00 00 	mov    0x8b94(%rip),%rax        # 13c40 <g_29>
    b0ac:	0f b6 00             	movzbl (%rax),%eax
    b0af:	44 0f be e0          	movsbl %al,%r12d
    b0b3:	48 8b 85 30 fd ff ff 	mov    -0x2d0(%rbp),%rax
    b0ba:	48 8d 95 90 fd ff ff 	lea    -0x270(%rbp),%rdx
    b0c1:	48 81 c2 c3 00 00 00 	add    $0xc3,%rdx
    b0c8:	48 39 d0             	cmp    %rdx,%rax
    b0cb:	0f 95 c0             	setne  %al
    b0ce:	44 0f b6 f8          	movzbl %al,%r15d
    b0d2:	0f b6 05 9b 5f 00 00 	movzbl 0x5f9b(%rip),%eax        # 11074 <g_162>
    b0d9:	4c 0f be e8          	movsbq %al,%r13
    b0dd:	48 8b 85 28 fc ff ff 	mov    -0x3d8(%rbp),%rax
    b0e4:	8b 00                	mov    (%rax),%eax
    b0e6:	44 0f b6 f0          	movzbl %al,%r14d
    b0ea:	83 bd b8 fa ff ff 00 	cmpl   $0x0,-0x548(%rbp)
    b0f1:	75 0b                	jne    b0fe <func_55+0xcad>
    b0f3:	0f b6 05 ba 5f 00 00 	movzbl 0x5fba(%rip),%eax        # 110b4 <g_298>
    b0fa:	84 c0                	test   %al,%al
    b0fc:	74 07                	je     b105 <func_55+0xcb4>
    b0fe:	b9 01 00 00 00       	mov    $0x1,%ecx
    b103:	eb 05                	jmp    b10a <func_55+0xcb9>
    b105:	b9 00 00 00 00       	mov    $0x0,%ecx
    b10a:	0f b6 85 c8 fa ff ff 	movzbl -0x538(%rbp),%eax
    b111:	0f b6 95 c9 fa ff ff 	movzbl -0x537(%rbp),%edx
    b118:	48 c1 e2 08          	shl    $0x8,%rdx
    b11c:	48 09 c2             	or     %rax,%rdx
    b11f:	0f b6 85 ca fa ff ff 	movzbl -0x536(%rbp),%eax
    b126:	48 c1 e0 10          	shl    $0x10,%rax
    b12a:	48 09 c2             	or     %rax,%rdx
    b12d:	0f b6 85 cb fa ff ff 	movzbl -0x535(%rbp),%eax
    b134:	83 e0 03             	and    $0x3,%eax
    b137:	48 c1 e0 18          	shl    $0x18,%rax
    b13b:	48 09 d0             	or     %rdx,%rax
    b13e:	39 c1                	cmp    %eax,%ecx
    b140:	0f 9f c0             	setg   %al
    b143:	0f b6 d0             	movzbl %al,%edx
    b146:	48 8b 85 c8 fb ff ff 	mov    -0x438(%rbp),%rax
    b14d:	66 89 10             	mov    %dx,(%rax)
    b150:	48 8b 85 c8 fb ff ff 	mov    -0x438(%rbp),%rax
    b157:	0f b7 00             	movzwl (%rax),%eax
    b15a:	0f bf d0             	movswl %ax,%edx
    b15d:	48 8b 05 00 5f 00 00 	mov    0x5f00(%rip),%rax        # 11064 <g_146+0x4>
    b164:	48 f7 d0             	not    %rax
    b167:	48 c1 e8 3f          	shr    $0x3f,%rax
    b16b:	0f b6 c0             	movzbl %al,%eax
    b16e:	89 d6                	mov    %edx,%esi
    b170:	89 c7                	mov    %eax,%edi
    b172:	e8 7e 82 ff ff       	callq  33f5 <safe_mul_func_int16_t_s_s>
    b177:	48 0f bf d0          	movswq %ax,%rdx
    b17b:	8b 85 b8 fa ff ff    	mov    -0x548(%rbp),%eax
    b181:	48 89 d6             	mov    %rdx,%rsi
    b184:	48 89 c7             	mov    %rax,%rdi
    b187:	e8 a2 8e ff ff       	callq  402e <safe_add_func_uint64_t_u_u>
    b18c:	48 8b 95 58 fc ff ff 	mov    -0x3a8(%rbp),%rdx
    b193:	48 89 02             	mov    %rax,(%rdx)
    b196:	48 8b 85 58 fc ff ff 	mov    -0x3a8(%rbp),%rax
    b19d:	48 8b 00             	mov    (%rax),%rax
    b1a0:	89 c2                	mov    %eax,%edx
    b1a2:	48 8b 85 28 fc ff ff 	mov    -0x3d8(%rbp),%rax
    b1a9:	8b 00                	mov    (%rax),%eax
    b1ab:	21 d0                	and    %edx,%eax
    b1ad:	0f bf d0             	movswl %ax,%edx
    b1b0:	8b 05 a2 5e 00 00    	mov    0x5ea2(%rip),%eax        # 11058 <g_105>
    b1b6:	98                   	cwtl   
    b1b7:	89 d6                	mov    %edx,%esi
    b1b9:	89 c7                	mov    %eax,%edi
    b1bb:	e8 35 82 ff ff       	callq  33f5 <safe_mul_func_int16_t_s_s>
    b1c0:	be 04 00 00 00       	mov    $0x4,%esi
    b1c5:	bf 7f 00 00 00       	mov    $0x7f,%edi
    b1ca:	e8 66 81 ff ff       	callq  3335 <safe_rshift_func_int8_t_s_s>
    b1cf:	48 8b 05 7a 8a 00 00 	mov    0x8a7a(%rip),%rax        # 13c50 <g_119>
    b1d6:	48 8b 00             	mov    (%rax),%rax
    b1d9:	48 8b 00             	mov    (%rax),%rax
    b1dc:	0f b6 00             	movzbl (%rax),%eax
    b1df:	0f b6 c0             	movzbl %al,%eax
    b1e2:	44 89 f6             	mov    %r14d,%esi
    b1e5:	89 c7                	mov    %eax,%edi
    b1e7:	e8 a7 89 ff ff       	callq  3b93 <safe_mul_func_uint8_t_u_u>
    b1ec:	bf ff ff ff ff       	mov    $0xffffffff,%edi
    b1f1:	e8 b0 8c ff ff       	callq  3ea6 <safe_unary_minus_func_uint32_t_u>
    b1f6:	89 c0                	mov    %eax,%eax
    b1f8:	4c 89 ee             	mov    %r13,%rsi
    b1fb:	48 89 c7             	mov    %rax,%rdi
    b1fe:	e8 f4 87 ff ff       	callq  39f7 <safe_div_func_int64_t_s_s>
    b203:	48 8b 95 c0 fa ff ff 	mov    -0x540(%rbp),%rdx
    b20a:	0f b6 12             	movzbl (%rdx),%edx
    b20d:	0f b6 d2             	movzbl %dl,%edx
    b210:	48 21 d0             	and    %rdx,%rax
    b213:	49 39 c7             	cmp    %rax,%r15
    b216:	0f 9f c0             	setg   %al
    b219:	0f b6 c0             	movzbl %al,%eax
    b21c:	be a6 66 00 00       	mov    $0x66a6,%esi
    b221:	89 c7                	mov    %eax,%edi
    b223:	e8 cd 81 ff ff       	callq  33f5 <safe_mul_func_int16_t_s_s>
    b228:	0f be c0             	movsbl %al,%eax
    b22b:	44 89 e6             	mov    %r12d,%esi
    b22e:	89 c7                	mov    %eax,%edi
    b230:	e8 fc 7f ff ff       	callq  3231 <safe_mod_func_int8_t_s_s>
    b235:	0f be c0             	movsbl %al,%eax
    b238:	89 de                	mov    %ebx,%esi
    b23a:	89 c7                	mov    %eax,%edi
    b23c:	e8 d5 81 ff ff       	callq  3416 <safe_mod_func_int16_t_s_s>
    b241:	98                   	cwtl   
    b242:	21 85 28 fb ff ff    	and    %eax,-0x4d8(%rbp)
    b248:	83 bd 28 fb ff ff 00 	cmpl   $0x0,-0x4d8(%rbp)
    b24f:	0f 84 4d 01 00 00    	je     b3a2 <func_55+0xf51>
    b255:	48 8b 05 04 8a 00 00 	mov    0x8a04(%rip),%rax        # 13c60 <g_266>
    b25c:	0f b7 00             	movzwl (%rax),%eax
    b25f:	0f b7 d0             	movzwl %ax,%edx
    b262:	48 8b 05 f7 89 00 00 	mov    0x89f7(%rip),%rax        # 13c60 <g_266>
    b269:	0f b7 00             	movzwl (%rax),%eax
    b26c:	0f b7 c8             	movzwl %ax,%ecx
    b26f:	48 8b 85 88 fb ff ff 	mov    -0x478(%rbp),%rax
    b276:	8b 00                	mov    (%rax),%eax
    b278:	89 c6                	mov    %eax,%esi
    b27a:	48 8b 85 c8 fb ff ff 	mov    -0x438(%rbp),%rax
    b281:	66 89 30             	mov    %si,(%rax)
    b284:	48 8b 85 c8 fb ff ff 	mov    -0x438(%rbp),%rax
    b28b:	0f b7 00             	movzwl (%rax),%eax
    b28e:	98                   	cwtl   
    b28f:	39 c1                	cmp    %eax,%ecx
    b291:	0f 9d c0             	setge  %al
    b294:	0f b6 c0             	movzbl %al,%eax
    b297:	89 d6                	mov    %edx,%esi
    b299:	89 c7                	mov    %eax,%edi
    b29b:	e8 da 8b ff ff       	callq  3e7a <safe_rshift_func_uint16_t_u_u>
    b2a0:	89 c2                	mov    %eax,%edx
    b2a2:	8b 85 bc fa ff ff    	mov    -0x544(%rbp),%eax
    b2a8:	09 d0                	or     %edx,%eax
    b2aa:	98                   	cwtl   
    b2ab:	8b 95 b8 fa ff ff    	mov    -0x548(%rbp),%edx
    b2b1:	89 d6                	mov    %edx,%esi
    b2b3:	89 c7                	mov    %eax,%edi
    b2b5:	e8 a9 82 ff ff       	callq  3563 <safe_rshift_func_int16_t_s_u>
    b2ba:	48 0f bf c0          	movswq %ax,%rax
    b2be:	0f b6 95 c8 fa ff ff 	movzbl -0x538(%rbp),%edx
    b2c5:	0f b6 8d c9 fa ff ff 	movzbl -0x537(%rbp),%ecx
    b2cc:	48 c1 e1 08          	shl    $0x8,%rcx
    b2d0:	48 09 d1             	or     %rdx,%rcx
    b2d3:	0f b6 95 ca fa ff ff 	movzbl -0x536(%rbp),%edx
    b2da:	48 c1 e2 10          	shl    $0x10,%rdx
    b2de:	48 09 d1             	or     %rdx,%rcx
    b2e1:	0f b6 95 cb fa ff ff 	movzbl -0x535(%rbp),%edx
    b2e8:	83 e2 03             	and    $0x3,%edx
    b2eb:	48 c1 e2 18          	shl    $0x18,%rdx
    b2ef:	48 09 ca             	or     %rcx,%rdx
    b2f2:	89 d2                	mov    %edx,%edx
    b2f4:	48 89 c6             	mov    %rax,%rsi
    b2f7:	48 89 d7             	mov    %rdx,%rdi
    b2fa:	e8 4c 8d ff ff       	callq  404b <safe_sub_func_uint64_t_u_u>
    b2ff:	48 85 c0             	test   %rax,%rax
    b302:	0f 95 c2             	setne  %dl
    b305:	48 8b 85 80 fb ff ff 	mov    -0x480(%rbp),%rax
    b30c:	88 10                	mov    %dl,(%rax)
    b30e:	0f b6 00             	movzbl (%rax),%eax
    b311:	84 c0                	test   %al,%al
    b313:	74 07                	je     b31c <func_55+0xecb>
    b315:	ba 01 00 00 00       	mov    $0x1,%edx
    b31a:	eb 05                	jmp    b321 <func_55+0xed0>
    b31c:	ba 00 00 00 00       	mov    $0x0,%edx
    b321:	8b 85 e0 fa ff ff    	mov    -0x520(%rbp),%eax
    b327:	21 d0                	and    %edx,%eax
    b329:	89 85 e0 fa ff ff    	mov    %eax,-0x520(%rbp)
    b32f:	48 c7 05 5e 5d 00 00 	movq   $0x0,0x5d5e(%rip)        # 11098 <g_212>
    b336:	00 00 00 00 
    b33a:	eb 1f                	jmp    b35b <func_55+0xf0a>
    b33c:	48 8b 85 88 fb ff ff 	mov    -0x478(%rbp),%rax
    b343:	8b 00                	mov    (%rax),%eax
    b345:	85 c0                	test   %eax,%eax
    b347:	75 21                	jne    b36a <func_55+0xf19>
    b349:	48 8b 05 48 5d 00 00 	mov    0x5d48(%rip),%rax        # 11098 <g_212>
    b350:	48 83 c0 01          	add    $0x1,%rax
    b354:	48 89 05 3d 5d 00 00 	mov    %rax,0x5d3d(%rip)        # 11098 <g_212>
    b35b:	48 8b 05 36 5d 00 00 	mov    0x5d36(%rip),%rax        # 11098 <g_212>
    b362:	48 83 f8 03          	cmp    $0x3,%rax
    b366:	76 d4                	jbe    b33c <func_55+0xeeb>
    b368:	eb 01                	jmp    b36b <func_55+0xf1a>
    b36a:	90                   	nop
    b36b:	83 bd bc fa ff ff 00 	cmpl   $0x0,-0x544(%rbp)
    b372:	0f 85 0e 05 00 00    	jne    b886 <func_55+0x1435>
    b378:	48 8b 0d e9 88 00 00 	mov    0x88e9(%rip),%rcx        # 13c68 <g_312>
    b37f:	48 8b 05 3a 5d 00 00 	mov    0x5d3a(%rip),%rax        # 110c0 <g_311>
    b386:	48 8b 15 3b 5d 00 00 	mov    0x5d3b(%rip),%rdx        # 110c8 <g_311+0x8>
    b38d:	48 89 01             	mov    %rax,(%rcx)
    b390:	48 89 51 08          	mov    %rdx,0x8(%rcx)
    b394:	8b 05 36 5d 00 00    	mov    0x5d36(%rip),%eax        # 110d0 <g_311+0x10>
    b39a:	89 41 10             	mov    %eax,0x10(%rcx)
    b39d:	e9 6e 01 00 00       	jmpq   b510 <func_55+0x10bf>
    b3a2:	48 c7 85 c0 fb ff ff 	movq   $0xffffffffffffffff,-0x440(%rbp)
    b3a9:	ff ff ff ff 
    b3ad:	c7 85 ec fa ff ff ef 	movl   $0xffffffef,-0x514(%rbp)
    b3b4:	ff ff ff 
    b3b7:	eb 7a                	jmp    b433 <func_55+0xfe2>
    b3b9:	48 b8 e0 18 b8 67 fa 	movabs $0x8a6071fa67b818e0,%rax
    b3c0:	71 60 8a 
    b3c3:	48 89 85 60 fc ff ff 	mov    %rax,-0x3a0(%rbp)
    b3ca:	c7 85 70 fe ff ff a9 	movl   $0xe304bba9,-0x190(%rbp)
    b3d1:	bb 04 e3 
    b3d4:	c7 85 74 fe ff ff a9 	movl   $0xe304bba9,-0x18c(%rbp)
    b3db:	bb 04 e3 
    b3de:	c7 85 78 fe ff ff a9 	movl   $0xe304bba9,-0x188(%rbp)
    b3e5:	bb 04 e3 
    b3e8:	c7 85 7c fe ff ff a9 	movl   $0xe304bba9,-0x184(%rbp)
    b3ef:	bb 04 e3 
    b3f2:	c7 85 80 fe ff ff a9 	movl   $0xe304bba9,-0x180(%rbp)
    b3f9:	bb 04 e3 
    b3fc:	c7 85 84 fe ff ff a9 	movl   $0xe304bba9,-0x17c(%rbp)
    b403:	bb 04 e3 
    b406:	c7 85 88 fe ff ff a9 	movl   $0xe304bba9,-0x178(%rbp)
    b40d:	bb 04 e3 
    b410:	c7 85 8c fe ff ff a9 	movl   $0xe304bba9,-0x174(%rbp)
    b417:	bb 04 e3 
    b41a:	48 83 bd 60 fc ff ff 	cmpq   $0x0,-0x3a0(%rbp)
    b421:	00 
    b422:	75 1e                	jne    b442 <func_55+0xff1>
    b424:	48 83 85 c0 fb ff ff 	addq   $0x1,-0x440(%rbp)
    b42b:	01 
    b42c:	83 85 ec fa ff ff 01 	addl   $0x1,-0x514(%rbp)
    b433:	83 bd ec fa ff ff 05 	cmpl   $0x5,-0x514(%rbp)
    b43a:	0f 86 79 ff ff ff    	jbe    b3b9 <func_55+0xf68>
    b440:	eb 01                	jmp    b443 <func_55+0xff2>
    b442:	90                   	nop
    b443:	0f b6 85 c8 fa ff ff 	movzbl -0x538(%rbp),%eax
    b44a:	0f b6 95 c9 fa ff ff 	movzbl -0x537(%rbp),%edx
    b451:	48 c1 e2 08          	shl    $0x8,%rdx
    b455:	48 09 c2             	or     %rax,%rdx
    b458:	0f b6 85 ca fa ff ff 	movzbl -0x536(%rbp),%eax
    b45f:	48 c1 e0 10          	shl    $0x10,%rax
    b463:	48 09 c2             	or     %rax,%rdx
    b466:	0f b6 85 cb fa ff ff 	movzbl -0x535(%rbp),%eax
    b46d:	83 e0 03             	and    $0x3,%eax
    b470:	48 c1 e0 18          	shl    $0x18,%rax
    b474:	48 09 d0             	or     %rdx,%rax
    b477:	41 89 c4             	mov    %eax,%r12d
    b47a:	0f be 9d cc fa ff ff 	movsbl -0x534(%rbp),%ebx
    b481:	be 01 00 00 00       	mov    $0x1,%esi
    b486:	bf 06 00 00 00       	mov    $0x6,%edi
    b48b:	e8 2e 89 ff ff       	callq  3dbe <safe_lshift_func_uint16_t_u_s>
    b490:	98                   	cwtl   
    b491:	89 de                	mov    %ebx,%esi
    b493:	89 c7                	mov    %eax,%edi
    b495:	e8 19 7f ff ff       	callq  33b3 <safe_add_func_int16_t_s_s>
    b49a:	66 85 c0             	test   %ax,%ax
    b49d:	0f 95 c0             	setne  %al
    b4a0:	0f b6 c0             	movzbl %al,%eax
    b4a3:	44 89 e6             	mov    %r12d,%esi
    b4a6:	89 c7                	mov    %eax,%edi
    b4a8:	e8 b6 80 ff ff       	callq  3563 <safe_rshift_func_int16_t_s_u>
    b4ad:	8b 85 28 fb ff ff    	mov    -0x4d8(%rbp),%eax
    b4b3:	48 63 d8             	movslq %eax,%rbx
    b4b6:	48 8b 85 c0 fa ff ff 	mov    -0x540(%rbp),%rax
    b4bd:	0f b6 00             	movzbl (%rax),%eax
    b4c0:	0f be d0             	movsbl %al,%edx
    b4c3:	8b 85 b8 fa ff ff    	mov    -0x548(%rbp),%eax
    b4c9:	0f be c0             	movsbl %al,%eax
    b4cc:	89 d6                	mov    %edx,%esi
    b4ce:	89 c7                	mov    %eax,%edi
    b4d0:	e8 1d 7d ff ff       	callq  31f2 <safe_sub_func_int8_t_s_s>
    b4d5:	3c f9                	cmp    $0xf9,%al
    b4d7:	0f 95 c0             	setne  %al
    b4da:	0f b6 c0             	movzbl %al,%eax
    b4dd:	23 85 b8 fa ff ff    	and    -0x548(%rbp),%eax
    b4e3:	85 c0                	test   %eax,%eax
    b4e5:	0f 95 c0             	setne  %al
    b4e8:	0f b6 c0             	movzbl %al,%eax
    b4eb:	be 02 00 00 00       	mov    $0x2,%esi
    b4f0:	89 c7                	mov    %eax,%edi
    b4f2:	e8 0e 87 ff ff       	callq  3c05 <safe_lshift_func_uint8_t_u_s>
    b4f7:	0f b6 c0             	movzbl %al,%eax
    b4fa:	48 89 de             	mov    %rbx,%rsi
    b4fd:	48 89 c7             	mov    %rax,%rdi
    b500:	e8 29 8b ff ff       	callq  402e <safe_add_func_uint64_t_u_u>
    b505:	89 c2                	mov    %eax,%edx
    b507:	48 8b 85 28 fc ff ff 	mov    -0x3d8(%rbp),%rax
    b50e:	89 10                	mov    %edx,(%rax)
    b510:	48 8b 85 98 fb ff ff 	mov    -0x468(%rbp),%rax
    b517:	48 89 05 52 87 00 00 	mov    %rax,0x8752(%rip)        # 13c70 <g_337>
    b51e:	e9 4d 01 00 00       	jmpq   b670 <func_55+0x121f>
    b523:	c7 85 f8 fa ff ff 11 	movl   $0x86bb9511,-0x508(%rbp)
    b52a:	95 bb 86 
    b52d:	c7 85 24 fb ff ff 04 	movl   $0x4,-0x4dc(%rbp)
    b534:	00 00 00 
    b537:	48 8b 05 12 87 00 00 	mov    0x8712(%rip),%rax        # 13c50 <g_119>
    b53e:	48 8b 10             	mov    (%rax),%rdx
    b541:	48 8b 85 d0 fb ff ff 	mov    -0x430(%rbp),%rax
    b548:	48 89 10             	mov    %rdx,(%rax)
    b54b:	0f b6 85 d3 fa ff ff 	movzbl -0x52d(%rbp),%eax
    b552:	84 c0                	test   %al,%al
    b554:	0f 85 11 03 00 00    	jne    b86b <func_55+0x141a>
    b55a:	c7 85 ec fa ff ff 00 	movl   $0x0,-0x514(%rbp)
    b561:	00 00 00 
    b564:	e9 d4 00 00 00       	jmpq   b63d <func_55+0x11ec>
    b569:	48 8b 0d 00 87 00 00 	mov    0x8700(%rip),%rcx        # 13c70 <g_337>
    b570:	48 8b 05 69 5b 00 00 	mov    0x5b69(%rip),%rax        # 110e0 <g_341>
    b577:	48 8b 15 6a 5b 00 00 	mov    0x5b6a(%rip),%rdx        # 110e8 <g_341+0x8>
    b57e:	48 89 01             	mov    %rax,(%rcx)
    b581:	48 89 51 08          	mov    %rdx,0x8(%rcx)
    b585:	8b 05 65 5b 00 00    	mov    0x5b65(%rip),%eax        # 110f0 <g_341+0x10>
    b58b:	89 41 10             	mov    %eax,0x10(%rcx)
    b58e:	8b 95 b8 fa ff ff    	mov    -0x548(%rbp),%edx
    b594:	0f b6 85 c8 fa ff ff 	movzbl -0x538(%rbp),%eax
    b59b:	0f b6 8d c9 fa ff ff 	movzbl -0x537(%rbp),%ecx
    b5a2:	48 c1 e1 08          	shl    $0x8,%rcx
    b5a6:	48 09 c1             	or     %rax,%rcx
    b5a9:	0f b6 85 ca fa ff ff 	movzbl -0x536(%rbp),%eax
    b5b0:	48 c1 e0 10          	shl    $0x10,%rax
    b5b4:	48 09 c1             	or     %rax,%rcx
    b5b7:	0f b6 85 cb fa ff ff 	movzbl -0x535(%rbp),%eax
    b5be:	83 e0 03             	and    $0x3,%eax
    b5c1:	48 c1 e0 18          	shl    $0x18,%rax
    b5c5:	48 09 c8             	or     %rcx,%rax
    b5c8:	0f b7 c0             	movzwl %ax,%eax
    b5cb:	89 d6                	mov    %edx,%esi
    b5cd:	89 c7                	mov    %eax,%edi
    b5cf:	e8 ea 87 ff ff       	callq  3dbe <safe_lshift_func_uint16_t_u_s>
    b5d4:	0f b7 d0             	movzwl %ax,%edx
    b5d7:	48 8b 85 88 fb ff ff 	mov    -0x478(%rbp),%rax
    b5de:	8b 00                	mov    (%rax),%eax
    b5e0:	83 f8 06             	cmp    $0x6,%eax
    b5e3:	0f 9e c0             	setle  %al
    b5e6:	0f b6 c8             	movzbl %al,%ecx
    b5e9:	8b 85 bc fa ff ff    	mov    -0x544(%rbp),%eax
    b5ef:	89 c6                	mov    %eax,%esi
    b5f1:	48 8b 85 c8 fb ff ff 	mov    -0x438(%rbp),%rax
    b5f8:	66 89 30             	mov    %si,(%rax)
    b5fb:	48 8b 85 c8 fb ff ff 	mov    -0x438(%rbp),%rax
    b602:	0f b7 00             	movzwl (%rax),%eax
    b605:	98                   	cwtl   
    b606:	39 c1                	cmp    %eax,%ecx
    b608:	0f 95 c0             	setne  %al
    b60b:	0f b6 c0             	movzbl %al,%eax
    b60e:	21 d0                	and    %edx,%eax
    b610:	21 85 f8 fa ff ff    	and    %eax,-0x508(%rbp)
    b616:	0f b6 85 d3 fa ff ff 	movzbl -0x52d(%rbp),%eax
    b61d:	84 c0                	test   %al,%al
    b61f:	74 05                	je     b626 <func_55+0x11d5>
    b621:	e9 ca f0 ff ff       	jmpq   a6f0 <func_55+0x29f>
    b626:	0f b7 05 2f 5a 00 00 	movzwl 0x5a2f(%rip),%eax        # 1105c <g_126>
    b62d:	66 85 c0             	test   %ax,%ax
    b630:	0f 85 3b 02 00 00    	jne    b871 <func_55+0x1420>
    b636:	83 85 ec fa ff ff 01 	addl   $0x1,-0x514(%rbp)
    b63d:	83 bd ec fa ff ff 11 	cmpl   $0x11,-0x514(%rbp)
    b644:	0f 86 1f ff ff ff    	jbe    b569 <func_55+0x1118>
    b64a:	48 8b 85 28 fc ff ff 	mov    -0x3d8(%rbp),%rax
    b651:	8b 00                	mov    (%rax),%eax
    b653:	83 c8 fe             	or     $0xfffffffe,%eax
    b656:	89 c2                	mov    %eax,%edx
    b658:	48 8b 85 28 fc ff ff 	mov    -0x3d8(%rbp),%rax
    b65f:	89 10                	mov    %edx,(%rax)
    b661:	48 8b 85 28 fc ff ff 	mov    -0x3d8(%rbp),%rax
    b668:	8b 00                	mov    (%rax),%eax
    b66a:	31 85 24 fb ff ff    	xor    %eax,-0x4dc(%rbp)
    b670:	48 8b 85 28 fc ff ff 	mov    -0x3d8(%rbp),%rax
    b677:	8b 00                	mov    (%rax),%eax
    b679:	89 85 b4 fa ff ff    	mov    %eax,-0x54c(%rbp)
    b67f:	48 8b 85 28 fc ff ff 	mov    -0x3d8(%rbp),%rax
    b686:	8b 00                	mov    (%rax),%eax
    b688:	0f be d8             	movsbl %al,%ebx
    b68b:	44 0f be a5 cc fa ff 	movsbl -0x534(%rbp),%r12d
    b692:	ff 
    b693:	4c 8b 2d f2 59 00 00 	mov    0x59f2(%rip),%r13        # 1108c <g_208+0xc>
    b69a:	44 0f bf b5 d6 fa ff 	movswl -0x52a(%rbp),%r14d
    b6a1:	ff 
    b6a2:	48 8b 05 17 5a 00 00 	mov    0x5a17(%rip),%rax        # 110c0 <g_311>
    b6a9:	01 c0                	add    %eax,%eax
    b6ab:	d0 f8                	sar    %al
    b6ad:	0f be c8             	movsbl %al,%ecx
    b6b0:	89 8d b0 fa ff ff    	mov    %ecx,-0x550(%rbp)
    b6b6:	48 8b 85 28 fc ff ff 	mov    -0x3d8(%rbp),%rax
    b6bd:	8b 00                	mov    (%rax),%eax
    b6bf:	44 0f b7 f8          	movzwl %ax,%r15d
    b6c3:	0f b6 05 b6 59 00 00 	movzbl 0x59b6(%rip),%eax        # 11080 <g_208>
    b6ca:	01 c0                	add    %eax,%eax
    b6cc:	d0 f8                	sar    %al
    b6ce:	0f b6 f8             	movzbl %al,%edi
    b6d1:	89 bd ac fa ff ff    	mov    %edi,-0x554(%rbp)
    b6d7:	be 04 00 00 00       	mov    $0x4,%esi
    b6dc:	bf 00 00 00 00       	mov    $0x0,%edi
    b6e1:	e8 ac 7d ff ff       	callq  3492 <safe_lshift_func_int16_t_s_s>
    b6e6:	48 8b 05 5b 85 00 00 	mov    0x855b(%rip),%rax        # 13c48 <g_120>
    b6ed:	48 8b 00             	mov    (%rax),%rax
    b6f0:	0f b6 00             	movzbl (%rax),%eax
    b6f3:	0f b6 c0             	movzbl %al,%eax
    b6f6:	8b b5 ac fa ff ff    	mov    -0x554(%rbp),%esi
    b6fc:	89 c7                	mov    %eax,%edi
    b6fe:	e8 57 84 ff ff       	callq  3b5a <safe_add_func_uint8_t_u_u>
    b703:	0f b6 c0             	movzbl %al,%eax
    b706:	44 89 fe             	mov    %r15d,%esi
    b709:	89 c7                	mov    %eax,%edi
    b70b:	e8 7e 86 ff ff       	callq  3d8e <safe_div_func_uint16_t_u_u>
    b710:	0f b7 c0             	movzwl %ax,%eax
    b713:	39 85 b0 fa ff ff    	cmp    %eax,-0x550(%rbp)
    b719:	0f 9f c0             	setg   %al
    b71c:	0f b6 d0             	movzbl %al,%edx
    b71f:	48 8b 05 72 59 00 00 	mov    0x5972(%rip),%rax        # 11098 <g_212>
    b726:	48 39 c2             	cmp    %rax,%rdx
    b729:	44 89 f6             	mov    %r14d,%esi
    b72c:	bf 06 00 00 00       	mov    $0x6,%edi
    b731:	e8 bf 7c ff ff       	callq  33f5 <safe_mul_func_int16_t_s_s>
    b736:	48 0f bf c0          	movswq %ax,%rax
    b73a:	4c 89 ee             	mov    %r13,%rsi
    b73d:	48 89 c7             	mov    %rax,%rdi
    b740:	e8 b2 82 ff ff       	callq  39f7 <safe_div_func_int64_t_s_s>
    b745:	0f b6 c0             	movzbl %al,%eax
    b748:	be 05 00 00 00       	mov    $0x5,%esi
    b74d:	89 c7                	mov    %eax,%edi
    b74f:	e8 39 85 ff ff       	callq  3c8d <safe_rshift_func_uint8_t_u_s>
    b754:	0f b6 c0             	movzbl %al,%eax
    b757:	89 85 e0 fa ff ff    	mov    %eax,-0x520(%rbp)
    b75d:	ba fc ff ff ff       	mov    $0xfffffffc,%edx
    b762:	48 8b 85 50 fc ff ff 	mov    -0x3b0(%rbp),%rax
    b769:	8b 00                	mov    (%rax),%eax
    b76b:	21 c2                	and    %eax,%edx
    b76d:	48 8b 85 50 fc ff ff 	mov    -0x3b0(%rbp),%rax
    b774:	89 10                	mov    %edx,(%rax)
    b776:	48 8b 85 50 fc ff ff 	mov    -0x3b0(%rbp),%rax
    b77d:	8b 00                	mov    (%rax),%eax
    b77f:	89 c6                	mov    %eax,%esi
    b781:	bf 01 00 00 00       	mov    $0x1,%edi
    b786:	e8 7a 7e ff ff       	callq  3605 <safe_sub_func_int32_t_s_s>
    b78b:	b8 01 00 00 00       	mov    $0x1,%eax
    b790:	98                   	cwtl   
    b791:	44 89 e6             	mov    %r12d,%esi
    b794:	89 c7                	mov    %eax,%edi
    b796:	e8 46 7d ff ff       	callq  34e1 <safe_lshift_func_int16_t_s_u>
    b79b:	44 0f b6 e0          	movzbl %al,%r12d
    b79f:	8b 85 bc fa ff ff    	mov    -0x544(%rbp),%eax
    b7a5:	0f be c0             	movsbl %al,%eax
    b7a8:	be 05 00 00 00       	mov    $0x5,%esi
    b7ad:	89 c7                	mov    %eax,%edi
    b7af:	e8 b8 7b ff ff       	callq  336c <safe_rshift_func_int8_t_s_u>
    b7b4:	0f b6 c0             	movzbl %al,%eax
    b7b7:	44 89 e6             	mov    %r12d,%esi
    b7ba:	89 c7                	mov    %eax,%edi
    b7bc:	e8 d2 83 ff ff       	callq  3b93 <safe_mul_func_uint8_t_u_u>
    b7c1:	0f be c0             	movsbl %al,%eax
    b7c4:	89 de                	mov    %ebx,%esi
    b7c6:	89 c7                	mov    %eax,%edi
    b7c8:	e8 64 7a ff ff       	callq  3231 <safe_mod_func_int8_t_s_s>
    b7cd:	0f be c0             	movsbl %al,%eax
    b7d0:	be c7 ff ff ff       	mov    $0xffffffc7,%esi
    b7d5:	89 c7                	mov    %eax,%edi
    b7d7:	e8 55 7a ff ff       	callq  3231 <safe_mod_func_int8_t_s_s>
    b7dc:	0f be d0             	movsbl %al,%edx
    b7df:	48 8b 05 62 84 00 00 	mov    0x8462(%rip),%rax        # 13c48 <g_120>
    b7e6:	48 8b 00             	mov    (%rax),%rax
    b7e9:	0f b6 00             	movzbl (%rax),%eax
    b7ec:	0f b6 c0             	movzbl %al,%eax
    b7ef:	39 c2                	cmp    %eax,%edx
    b7f1:	0f 9e c0             	setle  %al
    b7f4:	0f b6 c0             	movzbl %al,%eax
    b7f7:	39 85 b4 fa ff ff    	cmp    %eax,-0x54c(%rbp)
    b7fd:	0f 95 c0             	setne  %al
    b800:	0f b6 d0             	movzbl %al,%edx
    b803:	8b 85 e4 fa ff ff    	mov    -0x51c(%rbp),%eax
    b809:	98                   	cwtl   
    b80a:	89 d6                	mov    %edx,%esi
    b80c:	89 c7                	mov    %eax,%edi
    b80e:	e8 e2 7b ff ff       	callq  33f5 <safe_mul_func_int16_t_s_s>
    b813:	83 f0 01             	xor    $0x1,%eax
    b816:	0f bf d0             	movswl %ax,%edx
    b819:	0f be 85 cc fa ff ff 	movsbl -0x534(%rbp),%eax
    b820:	31 c2                	xor    %eax,%edx
    b822:	0f be 85 cc fa ff ff 	movsbl -0x534(%rbp),%eax
    b829:	39 c2                	cmp    %eax,%edx
    b82b:	0f 9e c0             	setle  %al
    b82e:	0f b6 c0             	movzbl %al,%eax
    b831:	39 85 b8 fa ff ff    	cmp    %eax,-0x548(%rbp)
    b837:	74 07                	je     b840 <func_55+0x13ef>
    b839:	ba 01 00 00 00       	mov    $0x1,%edx
    b83e:	eb 05                	jmp    b845 <func_55+0x13f4>
    b840:	ba 00 00 00 00       	mov    $0x0,%edx
    b845:	48 8b 85 88 fb ff ff 	mov    -0x478(%rbp),%rax
    b84c:	89 10                	mov    %edx,(%rax)
    b84e:	48 0f be 85 cc fa ff 	movsbq -0x534(%rbp),%rax
    b855:	ff 
    b856:	be 03 00 00 00       	mov    $0x3,%esi
    b85b:	48 89 c7             	mov    %rax,%rdi
    b85e:	e8 e8 87 ff ff       	callq  404b <safe_sub_func_uint64_t_u_u>
    b863:	88 85 cc fa ff ff    	mov    %al,-0x534(%rbp)
    b869:	eb 0c                	jmp    b877 <func_55+0x1426>
    b86b:	90                   	nop
    b86c:	e9 6a ed ff ff       	jmpq   a5db <func_55+0x18a>
    b871:	90                   	nop
    b872:	e9 64 ed ff ff       	jmpq   a5db <func_55+0x18a>
    b877:	80 bd cc fa ff ff f4 	cmpb   $0xf4,-0x534(%rbp)
    b87e:	0f 85 e3 ef ff ff    	jne    a867 <func_55+0x416>
    b884:	eb 01                	jmp    b887 <func_55+0x1436>
    b886:	90                   	nop
    b887:	c6 05 d0 57 00 00 e3 	movb   $0xe3,0x57d0(%rip)        # 1105e <g_143>
    b88e:	eb 59                	jmp    b8e9 <func_55+0x1498>
    b890:	c7 85 38 fb ff ff ea 	movl   $0xe87006ea,-0x4c8(%rbp)
    b897:	06 70 e8 
    b89a:	0f b6 85 c8 fa ff ff 	movzbl -0x538(%rbp),%eax
    b8a1:	0f b6 95 c9 fa ff ff 	movzbl -0x537(%rbp),%edx
    b8a8:	48 c1 e2 08          	shl    $0x8,%rdx
    b8ac:	48 09 c2             	or     %rax,%rdx
    b8af:	0f b6 85 ca fa ff ff 	movzbl -0x536(%rbp),%eax
    b8b6:	48 c1 e0 10          	shl    $0x10,%rax
    b8ba:	48 09 c2             	or     %rax,%rdx
    b8bd:	0f b6 85 cb fa ff ff 	movzbl -0x535(%rbp),%eax
    b8c4:	83 e0 03             	and    $0x3,%eax
    b8c7:	48 c1 e0 18          	shl    $0x18,%rax
    b8cb:	48 09 d0             	or     %rdx,%rax
    b8ce:	85 c0                	test   %eax,%eax
    b8d0:	75 24                	jne    b8f6 <func_55+0x14a5>
    b8d2:	83 85 38 fb ff ff 01 	addl   $0x1,-0x4c8(%rbp)
    b8d9:	0f b6 05 7e 57 00 00 	movzbl 0x577e(%rip),%eax        # 1105e <g_143>
    b8e0:	83 c0 01             	add    $0x1,%eax
    b8e3:	88 05 75 57 00 00    	mov    %al,0x5775(%rip)        # 1105e <g_143>
    b8e9:	0f b6 05 6e 57 00 00 	movzbl 0x576e(%rip),%eax        # 1105e <g_143>
    b8f0:	3c fe                	cmp    $0xfe,%al
    b8f2:	75 9c                	jne    b890 <func_55+0x143f>
    b8f4:	eb 01                	jmp    b8f7 <func_55+0x14a6>
    b8f6:	90                   	nop
    b8f7:	c7 85 b8 fa ff ff fc 	movl   $0xfffffffc,-0x548(%rbp)
    b8fe:	ff ff ff 
    b901:	eb 71                	jmp    b974 <func_55+0x1523>
    b903:	48 c7 85 b8 fc ff ff 	movq   $0x0,-0x348(%rbp)
    b90a:	00 00 00 00 
    b90e:	48 c7 85 c0 fc ff ff 	movq   $0x0,-0x340(%rbp)
    b915:	00 00 00 00 
    b919:	48 8d 85 a0 fb ff ff 	lea    -0x460(%rbp),%rax
    b920:	48 89 85 c8 fc ff ff 	mov    %rax,-0x338(%rbp)
    b927:	c7 85 70 fe ff ff 22 	movl   $0x31279222,-0x190(%rbp)
    b92e:	92 27 31 
    b931:	c7 85 74 fe ff ff 01 	movl   $0x1,-0x18c(%rbp)
    b938:	00 00 00 
    b93b:	c7 85 78 fe ff ff 01 	movl   $0x1,-0x188(%rbp)
    b942:	00 00 00 
    b945:	c7 85 7c fe ff ff 22 	movl   $0x31279222,-0x184(%rbp)
    b94c:	92 27 31 
    b94f:	c7 85 80 fe ff ff 01 	movl   $0x1,-0x180(%rbp)
    b956:	00 00 00 
    b959:	c7 85 84 fe ff ff 01 	movl   $0x1,-0x17c(%rbp)
    b960:	00 00 00 
    b963:	c7 85 88 fe ff ff 22 	movl   $0x31279222,-0x178(%rbp)
    b96a:	92 27 31 
    b96d:	83 85 b8 fa ff ff 01 	addl   $0x1,-0x548(%rbp)
    b974:	83 bd b8 fa ff ff 24 	cmpl   $0x24,-0x548(%rbp)
    b97b:	76 86                	jbe    b903 <func_55+0x14b2>
    b97d:	48 c7 05 10 57 00 00 	movq   $0x0,0x5710(%rip)        # 11098 <g_212>
    b984:	00 00 00 00 
    b988:	e9 9c 05 00 00       	jmpq   bf29 <func_55+0x1ad8>
    b98d:	66 c7 85 dc fa ff ff 	movw   $0x9956,-0x524(%rbp)
    b994:	56 99 
    b996:	c7 85 3c fb ff ff f6 	movl   $0xfffffff6,-0x4c4(%rbp)
    b99d:	ff ff ff 
    b9a0:	c7 85 40 fb ff ff 06 	movl   $0x6,-0x4c0(%rbp)
    b9a7:	00 00 00 
    b9aa:	c7 85 44 fb ff ff f9 	movl   $0xfffffff9,-0x4bc(%rbp)
    b9b1:	ff ff ff 
    b9b4:	c7 85 48 fb ff ff 07 	movl   $0x7,-0x4b8(%rbp)
    b9bb:	00 00 00 
    b9be:	c7 85 4c fb ff ff 81 	movl   $0xf79ccd81,-0x4b4(%rbp)
    b9c5:	cd 9c f7 
    b9c8:	c7 85 50 fb ff ff 77 	movl   $0x3eeab777,-0x4b0(%rbp)
    b9cf:	b7 ea 3e 
    b9d2:	c7 85 fc fa ff ff 09 	movl   $0x9,-0x504(%rbp)
    b9d9:	00 00 00 
    b9dc:	48 8d 85 80 fb ff ff 	lea    -0x480(%rbp),%rax
    b9e3:	48 89 85 80 fc ff ff 	mov    %rax,-0x380(%rbp)
    b9ea:	48 c7 85 88 fc ff ff 	movq   $0x0,-0x378(%rbp)
    b9f1:	00 00 00 00 
    b9f5:	48 8d 85 a0 fb ff ff 	lea    -0x460(%rbp),%rax
    b9fc:	48 89 85 90 fc ff ff 	mov    %rax,-0x370(%rbp)
    ba03:	0f b7 85 dc fa ff ff 	movzwl -0x524(%rbp),%eax
    ba0a:	83 c0 01             	add    $0x1,%eax
    ba0d:	66 89 85 dc fa ff ff 	mov    %ax,-0x524(%rbp)
    ba14:	83 bd bc fa ff ff 00 	cmpl   $0x0,-0x544(%rbp)
    ba1b:	0f 85 8b 05 00 00    	jne    bfac <func_55+0x1b5b>
    ba21:	c7 85 e0 fa ff ff 01 	movl   $0x1,-0x520(%rbp)
    ba28:	00 00 00 
    ba2b:	90                   	nop
    ba2c:	8b 85 e0 fa ff ff    	mov    -0x520(%rbp),%eax
    ba32:	83 f8 05             	cmp    $0x5,%eax
    ba35:	0f 8f dc 04 00 00    	jg     bf17 <func_55+0x1ac6>
    ba3b:	c6 85 d5 fa ff ff fb 	movb   $0xfb,-0x52b(%rbp)
    ba42:	48 8d 85 80 fb ff ff 	lea    -0x480(%rbp),%rax
    ba49:	48 89 85 b0 fb ff ff 	mov    %rax,-0x450(%rbp)
    ba50:	c7 85 54 fb ff ff 97 	movl   $0xf7015397,-0x4ac(%rbp)
    ba57:	53 01 f7 
    ba5a:	c7 85 58 fb ff ff 59 	movl   $0xba321759,-0x4a8(%rbp)
    ba61:	17 32 ba 
    ba64:	c7 85 70 fe ff ff e5 	movl   $0x4013ace5,-0x190(%rbp)
    ba6b:	ac 13 40 
    ba6e:	c7 85 74 fe ff ff e5 	movl   $0x4013ace5,-0x18c(%rbp)
    ba75:	ac 13 40 
    ba78:	c7 85 78 fe ff ff e5 	movl   $0x4013ace5,-0x188(%rbp)
    ba7f:	ac 13 40 
    ba82:	c7 85 7c fe ff ff e5 	movl   $0x4013ace5,-0x184(%rbp)
    ba89:	ac 13 40 
    ba8c:	c7 85 80 fe ff ff e5 	movl   $0x4013ace5,-0x180(%rbp)
    ba93:	ac 13 40 
    ba96:	48 8d 05 ef 55 00 00 	lea    0x55ef(%rip),%rax        # 1108c <g_208+0xc>
    ba9d:	48 89 85 98 fc ff ff 	mov    %rax,-0x368(%rbp)
    baa4:	0f b6 05 86 55 00 00 	movzbl 0x5586(%rip),%eax        # 11031 <g_30>
    baab:	0f b6 d8             	movzbl %al,%ebx
    baae:	0f b6 85 d5 fa ff ff 	movzbl -0x52b(%rbp),%eax
    bab5:	44 0f b6 e0          	movzbl %al,%r12d
    bab9:	48 8b 05 a0 81 00 00 	mov    0x81a0(%rip),%rax        # 13c60 <g_266>
    bac0:	0f b7 00             	movzwl (%rax),%eax
    bac3:	44 0f b7 e8          	movzwl %ax,%r13d
    bac7:	8b 85 bc fa ff ff    	mov    -0x544(%rbp),%eax
    bacd:	33 85 b8 fa ff ff    	xor    -0x548(%rbp),%eax
    bad3:	89 c2                	mov    %eax,%edx
    bad5:	48 8b 05 9c 55 00 00 	mov    0x559c(%rip),%rax        # 11078 <g_199>
    badc:	48 39 c2             	cmp    %rax,%rdx
    badf:	0f 9e c0             	setle  %al
    bae2:	0f b6 c0             	movzbl %al,%eax
    bae5:	be 07 00 00 00       	mov    $0x7,%esi
    baea:	89 c7                	mov    %eax,%edi
    baec:	e8 57 83 ff ff       	callq  3e48 <safe_rshift_func_uint16_t_u_s>
    baf1:	0f b7 d0             	movzwl %ax,%edx
    baf4:	66 0f be 85 d5 fa ff 	movsbw -0x52b(%rbp),%ax
    bafb:	ff 
    bafc:	0f b7 c0             	movzwl %ax,%eax
    baff:	89 d6                	mov    %edx,%esi
    bb01:	89 c7                	mov    %eax,%edi
    bb03:	e8 35 82 ff ff       	callq  3d3d <safe_mul_func_uint16_t_u_u>
    bb08:	48 8b 95 b0 fb ff ff 	mov    -0x450(%rbp),%rdx
    bb0f:	48 8d 85 c0 fa ff ff 	lea    -0x540(%rbp),%rax
    bb16:	48 39 c2             	cmp    %rax,%rdx
    bb19:	75 0a                	jne    bb25 <func_55+0x16d4>
    bb1b:	66 83 bd dc fa ff ff 	cmpw   $0x0,-0x524(%rbp)
    bb22:	00 
    bb23:	74 07                	je     bb2c <func_55+0x16db>
    bb25:	b8 01 00 00 00       	mov    $0x1,%eax
    bb2a:	eb 05                	jmp    bb31 <func_55+0x16e0>
    bb2c:	b8 00 00 00 00       	mov    $0x0,%eax
    bb31:	0f be d0             	movsbl %al,%edx
    bb34:	c6 05 39 55 00 00 fb 	movb   $0xfb,0x5539(%rip)        # 11074 <g_162>
    bb3b:	48 8b 85 88 fb ff ff 	mov    -0x478(%rbp),%rax
    bb42:	c7 00 06 00 00 00    	movl   $0x6,(%rax)
    bb48:	8b 00                	mov    (%rax),%eax
    bb4a:	83 f8 fb             	cmp    $0xfffffffb,%eax
    bb4d:	0f 95 c0             	setne  %al
    bb50:	0f b6 c8             	movzbl %al,%ecx
    bb53:	48 8b 05 26 56 00 00 	mov    0x5626(%rip),%rax        # 11180 <g_448>
    bb5a:	01 c0                	add    %eax,%eax
    bb5c:	d0 f8                	sar    %al
    bb5e:	0f be c0             	movsbl %al,%eax
    bb61:	09 c8                	or     %ecx,%eax
    bb63:	85 c0                	test   %eax,%eax
    bb65:	74 13                	je     bb7a <func_55+0x1729>
    bb67:	48 8b 05 d6 54 00 00 	mov    0x54d6(%rip),%rax        # 11044 <g_88+0x4>
    bb6e:	48 85 c0             	test   %rax,%rax
    bb71:	74 07                	je     bb7a <func_55+0x1729>
    bb73:	be 01 00 00 00       	mov    $0x1,%esi
    bb78:	eb 05                	jmp    bb7f <func_55+0x172e>
    bb7a:	be 00 00 00 00       	mov    $0x0,%esi
    bb7f:	0f b6 85 c8 fa ff ff 	movzbl -0x538(%rbp),%eax
    bb86:	0f b6 8d c9 fa ff ff 	movzbl -0x537(%rbp),%ecx
    bb8d:	48 c1 e1 08          	shl    $0x8,%rcx
    bb91:	48 09 c1             	or     %rax,%rcx
    bb94:	0f b6 85 ca fa ff ff 	movzbl -0x536(%rbp),%eax
    bb9b:	48 c1 e0 10          	shl    $0x10,%rax
    bb9f:	48 09 c1             	or     %rax,%rcx
    bba2:	0f b6 85 cb fa ff ff 	movzbl -0x535(%rbp),%eax
    bba9:	83 e0 03             	and    $0x3,%eax
    bbac:	48 c1 e0 18          	shl    $0x18,%rax
    bbb0:	48 09 c8             	or     %rcx,%rax
    bbb3:	39 c6                	cmp    %eax,%esi
    bbb5:	0f 95 c0             	setne  %al
    bbb8:	0f b6 c0             	movzbl %al,%eax
    bbbb:	89 d6                	mov    %edx,%esi
    bbbd:	89 c7                	mov    %eax,%edi
    bbbf:	e8 10 76 ff ff       	callq  31d4 <safe_add_func_int8_t_s_s>
    bbc4:	0f be c0             	movsbl %al,%eax
    bbc7:	be 01 00 00 00       	mov    $0x1,%esi
    bbcc:	89 c7                	mov    %eax,%edi
    bbce:	e8 ce 76 ff ff       	callq  32a1 <safe_lshift_func_int8_t_s_s>
    bbd3:	be 06 00 00 00       	mov    $0x6,%esi
    bbd8:	bf d6 00 00 00       	mov    $0xd6,%edi
    bbdd:	e8 cc 7f ff ff       	callq  3bae <safe_mod_func_uint8_t_u_u>
    bbe2:	0f b6 c0             	movzbl %al,%eax
    bbe5:	44 89 ee             	mov    %r13d,%esi
    bbe8:	89 c7                	mov    %eax,%edi
    bbea:	e8 74 79 ff ff       	callq  3563 <safe_rshift_func_int16_t_s_u>
    bbef:	66 85 c0             	test   %ax,%ax
    bbf2:	74 07                	je     bbfb <func_55+0x17aa>
    bbf4:	b8 01 00 00 00       	mov    $0x1,%eax
    bbf9:	eb 05                	jmp    bc00 <func_55+0x17af>
    bbfb:	b8 00 00 00 00       	mov    $0x0,%eax
    bc00:	39 85 b8 fa ff ff    	cmp    %eax,-0x548(%rbp)
    bc06:	0f 97 c0             	seta   %al
    bc09:	0f b6 c0             	movzbl %al,%eax
    bc0c:	09 85 54 fb ff ff    	or     %eax,-0x4ac(%rbp)
    bc12:	8b 85 54 fb ff ff    	mov    -0x4ac(%rbp),%eax
    bc18:	0f b6 c0             	movzbl %al,%eax
    bc1b:	44 89 e6             	mov    %r12d,%esi
    bc1e:	89 c7                	mov    %eax,%edi
    bc20:	e8 6e 7f ff ff       	callq  3b93 <safe_mul_func_uint8_t_u_u>
    bc25:	0f b6 c0             	movzbl %al,%eax
    bc28:	89 de                	mov    %ebx,%esi
    bc2a:	89 c7                	mov    %eax,%edi
    bc2c:	e8 82 77 ff ff       	callq  33b3 <safe_add_func_int16_t_s_s>
    bc31:	0f bf d0             	movswl %ax,%edx
    bc34:	0f b6 05 79 54 00 00 	movzbl 0x5479(%rip),%eax        # 110b4 <g_298>
    bc3b:	0f b6 c0             	movzbl %al,%eax
    bc3e:	21 d0                	and    %edx,%eax
    bc40:	08 85 cc fa ff ff    	or     %al,-0x534(%rbp)
    bc46:	0f b6 8d cc fa ff ff 	movzbl -0x534(%rbp),%ecx
    bc4d:	48 8b 85 80 fb ff ff 	mov    -0x480(%rbp),%rax
    bc54:	0f b6 10             	movzbl (%rax),%edx
    bc57:	83 c2 01             	add    $0x1,%edx
    bc5a:	88 10                	mov    %dl,(%rax)
    bc5c:	0f b6 00             	movzbl (%rax),%eax
    bc5f:	0f b6 d0             	movzbl %al,%edx
    bc62:	0f b6 05 f5 53 00 00 	movzbl 0x53f5(%rip),%eax        # 1105e <g_143>
    bc69:	21 c8                	and    %ecx,%eax
    bc6b:	88 05 ed 53 00 00    	mov    %al,0x53ed(%rip)        # 1105e <g_143>
    bc71:	0f b6 05 e6 53 00 00 	movzbl 0x53e6(%rip),%eax        # 1105e <g_143>
    bc78:	0f be c0             	movsbl %al,%eax
    bc7b:	39 c2                	cmp    %eax,%edx
    bc7d:	75 0c                	jne    bc8b <func_55+0x183a>
    bc7f:	48 8b 05 c6 53 00 00 	mov    0x53c6(%rip),%rax        # 1104c <g_88+0xc>
    bc86:	48 85 c0             	test   %rax,%rax
    bc89:	74 07                	je     bc92 <func_55+0x1841>
    bc8b:	b8 01 00 00 00       	mov    $0x1,%eax
    bc90:	eb 05                	jmp    bc97 <func_55+0x1846>
    bc92:	b8 00 00 00 00       	mov    $0x0,%eax
    bc97:	3d c5 c7 00 00       	cmp    $0xc7c5,%eax
    bc9c:	0f 9e c0             	setle  %al
    bc9f:	0f b6 c0             	movzbl %al,%eax
    bca2:	89 c6                	mov    %eax,%esi
    bca4:	bf ff ff 00 00       	mov    $0xffff,%edi
    bca9:	e8 8f 80 ff ff       	callq  3d3d <safe_mul_func_uint16_t_u_u>
    bcae:	0f b6 05 ff 53 00 00 	movzbl 0x53ff(%rip),%eax        # 110b4 <g_298>
    bcb5:	0f b6 c0             	movzbl %al,%eax
    bcb8:	f7 d0                	not    %eax
    bcba:	89 c2                	mov    %eax,%edx
    bcbc:	48 8b 85 c0 fa ff ff 	mov    -0x540(%rbp),%rax
    bcc3:	0f b6 00             	movzbl (%rax),%eax
    bcc6:	0f b6 c0             	movzbl %al,%eax
    bcc9:	39 85 bc fa ff ff    	cmp    %eax,-0x544(%rbp)
    bccf:	0f 9c c0             	setl   %al
    bcd2:	0f b6 c0             	movzbl %al,%eax
    bcd5:	39 c2                	cmp    %eax,%edx
    bcd7:	0f 95 c0             	setne  %al
    bcda:	0f b6 d0             	movzbl %al,%edx
    bcdd:	48 8b 85 c0 fa ff ff 	mov    -0x540(%rbp),%rax
    bce4:	0f b6 00             	movzbl (%rax),%eax
    bce7:	0f b6 c0             	movzbl %al,%eax
    bcea:	39 c2                	cmp    %eax,%edx
    bcec:	0f 9c c0             	setl   %al
    bcef:	0f b6 c0             	movzbl %al,%eax
    bcf2:	89 85 3c fb ff ff    	mov    %eax,-0x4c4(%rbp)
    bcf8:	83 bd 3c fb ff ff 00 	cmpl   $0x0,-0x4c4(%rbp)
    bcff:	74 7b                	je     bd7c <func_55+0x192b>
    bd01:	c7 85 e8 fa ff ff 00 	movl   $0x0,-0x518(%rbp)
    bd08:	00 00 00 
    bd0b:	eb 5f                	jmp    bd6c <func_55+0x191b>
    bd0d:	66 c7 85 de fa ff ff 	movw   $0xeead,-0x522(%rbp)
    bd14:	ad ee 
    bd16:	48 8b 85 88 fb ff ff 	mov    -0x478(%rbp),%rax
    bd1d:	8b 08                	mov    (%rax),%ecx
    bd1f:	48 83 bd 10 fc ff ff 	cmpq   $0x0,-0x3f0(%rbp)
    bd26:	00 
    bd27:	0f 95 c0             	setne  %al
    bd2a:	0f b6 d0             	movzbl %al,%edx
    bd2d:	48 8b 85 88 fb ff ff 	mov    -0x478(%rbp),%rax
    bd34:	31 ca                	xor    %ecx,%edx
    bd36:	89 10                	mov    %edx,(%rax)
    bd38:	48 8b 15 19 7f 00 00 	mov    0x7f19(%rip),%rdx        # 13c58 <g_168>
    bd3f:	48 8b 05 12 7f 00 00 	mov    0x7f12(%rip),%rax        # 13c58 <g_168>
    bd46:	48 8b 12             	mov    (%rdx),%rdx
    bd49:	48 89 10             	mov    %rdx,(%rax)
    bd4c:	0f b7 85 de fa ff ff 	movzwl -0x522(%rbp),%eax
    bd53:	83 c0 01             	add    $0x1,%eax
    bd56:	66 89 85 de fa ff ff 	mov    %ax,-0x522(%rbp)
    bd5d:	8b 85 e8 fa ff ff    	mov    -0x518(%rbp),%eax
    bd63:	83 c0 01             	add    $0x1,%eax
    bd66:	89 85 e8 fa ff ff    	mov    %eax,-0x518(%rbp)
    bd6c:	8b 85 e8 fa ff ff    	mov    -0x518(%rbp),%eax
    bd72:	83 f8 03             	cmp    $0x3,%eax
    bd75:	7e 96                	jle    bd0d <func_55+0x18bc>
    bd77:	e9 8f 01 00 00       	jmpq   bf0b <func_55+0x1aba>
    bd7c:	c7 85 5c fb ff ff 25 	movl   $0xaf10a225,-0x4a4(%rbp)
    bd83:	a2 10 af 
    bd86:	c7 85 60 fb ff ff 89 	movl   $0x3f70aa89,-0x4a0(%rbp)
    bd8d:	aa 70 3f 
    bd90:	c7 85 00 fb ff ff 3e 	movl   $0xbea343e,-0x500(%rbp)
    bd97:	34 ea 0b 
    bd9a:	c7 85 64 fb ff ff 29 	movl   $0x76638f29,-0x49c(%rbp)
    bda1:	8f 63 76 
    bda4:	c7 85 68 fb ff ff 2f 	movl   $0x98f9a72f,-0x498(%rbp)
    bdab:	a7 f9 98 
    bdae:	c7 85 ec fa ff ff 00 	movl   $0x0,-0x514(%rbp)
    bdb5:	00 00 00 
    bdb8:	e9 08 01 00 00       	jmpq   bec5 <func_55+0x1a74>
    bdbd:	48 b8 f4 9c a8 4c 90 	movabs $0xf3d1af904ca89cf4,%rax
    bdc4:	af d1 f3 
    bdc7:	48 89 85 a0 fc ff ff 	mov    %rax,-0x360(%rbp)
    bdce:	c7 85 6c fb ff ff 48 	movl   $0x2d40b248,-0x494(%rbp)
    bdd5:	b2 40 2d 
    bdd8:	c7 85 70 fb ff ff cf 	movl   $0x1940f7cf,-0x490(%rbp)
    bddf:	f7 40 19 
    bde2:	c7 85 74 fb ff ff b3 	movl   $0xc5235fb3,-0x48c(%rbp)
    bde9:	5f 23 c5 
    bdec:	c7 85 78 fb ff ff 12 	movl   $0xcb32f412,-0x488(%rbp)
    bdf3:	f4 32 cb 
    bdf6:	48 8d 85 b0 fb ff ff 	lea    -0x450(%rbp),%rax
    bdfd:	48 89 85 a8 fc ff ff 	mov    %rax,-0x358(%rbp)
    be04:	48 8d 05 4d 7e 00 00 	lea    0x7e4d(%rip),%rax        # 13c58 <g_168>
    be0b:	48 89 85 b8 fb ff ff 	mov    %rax,-0x448(%rbp)
    be12:	48 8d 85 b8 fb ff ff 	lea    -0x448(%rbp),%rax
    be19:	48 89 85 b0 fc ff ff 	mov    %rax,-0x350(%rbp)
    be20:	83 ad 00 fb ff ff 01 	subl   $0x1,-0x500(%rbp)
    be27:	83 ad fc fa ff ff 01 	subl   $0x1,-0x504(%rbp)
    be2e:	48 8b 05 1b 7e 00 00 	mov    0x7e1b(%rip),%rax        # 13c50 <g_119>
    be35:	48 8b 95 80 fc ff ff 	mov    -0x380(%rbp),%rdx
    be3c:	48 89 10             	mov    %rdx,(%rax)
    be3f:	48 8b 10             	mov    (%rax),%rdx
    be42:	48 8b 85 a8 fc ff ff 	mov    -0x358(%rbp),%rax
    be49:	48 89 10             	mov    %rdx,(%rax)
    be4c:	48 8b 85 b0 fc ff ff 	mov    -0x350(%rbp),%rax
    be53:	48 8d 15 fe 7d 00 00 	lea    0x7dfe(%rip),%rdx        # 13c58 <g_168>
    be5a:	48 89 10             	mov    %rdx,(%rax)
    be5d:	48 8b 85 b0 fc ff ff 	mov    -0x350(%rbp),%rax
    be64:	48 8b 00             	mov    (%rax),%rax
    be67:	48 39 85 88 fc ff ff 	cmp    %rax,-0x378(%rbp)
    be6e:	0f 95 c0             	setne  %al
    be71:	0f b6 c0             	movzbl %al,%eax
    be74:	be 43 c3 00 00       	mov    $0xc343,%esi
    be79:	89 c7                	mov    %eax,%edi
    be7b:	e8 3e 7f ff ff       	callq  3dbe <safe_lshift_func_uint16_t_u_s>
    be80:	48 8b 85 88 fb ff ff 	mov    -0x478(%rbp),%rax
    be87:	8b 00                	mov    (%rax),%eax
    be89:	f7 d0                	not    %eax
    be8b:	c1 e8 1f             	shr    $0x1f,%eax
    be8e:	0f b6 d0             	movzbl %al,%edx
    be91:	48 8d 05 e0 51 00 00 	lea    0x51e0(%rip),%rax        # 11078 <g_199>
    be98:	48 39 85 98 fc ff ff 	cmp    %rax,-0x368(%rbp)
    be9f:	0f 95 c0             	setne  %al
    bea2:	0f b6 c0             	movzbl %al,%eax
    bea5:	48 89 d6             	mov    %rdx,%rsi
    bea8:	48 89 c7             	mov    %rax,%rdi
    beab:	e8 f8 79 ff ff       	callq  38a8 <safe_sub_func_int64_t_s_s>
    beb0:	48 85 c0             	test   %rax,%rax
    beb3:	b8 01 00 00 00       	mov    $0x1,%eax
    beb8:	21 85 6c fb ff ff    	and    %eax,-0x494(%rbp)
    bebe:	83 85 ec fa ff ff 01 	addl   $0x1,-0x514(%rbp)
    bec5:	83 bd ec fa ff ff 03 	cmpl   $0x3,-0x514(%rbp)
    becc:	0f 86 eb fe ff ff    	jbe    bdbd <func_55+0x196c>
    bed2:	48 8b 05 7f 7d 00 00 	mov    0x7d7f(%rip),%rax        # 13c58 <g_168>
    bed9:	48 8d 95 e8 fa ff ff 	lea    -0x518(%rbp),%rdx
    bee0:	48 89 10             	mov    %rdx,(%rax)
    bee3:	48 8b 85 88 fb ff ff 	mov    -0x478(%rbp),%rax
    beea:	8b 08                	mov    (%rax),%ecx
    beec:	48 8d 05 85 51 00 00 	lea    0x5185(%rip),%rax        # 11078 <g_199>
    bef3:	48 39 85 90 fc ff ff 	cmp    %rax,-0x370(%rbp)
    befa:	0f 95 c0             	setne  %al
    befd:	0f b6 d0             	movzbl %al,%edx
    bf00:	48 8b 85 88 fb ff ff 	mov    -0x478(%rbp),%rax
    bf07:	09 ca                	or     %ecx,%edx
    bf09:	89 10                	mov    %edx,(%rax)
    bf0b:	48 8b 85 c0 fa ff ff 	mov    -0x540(%rbp),%rax
    bf12:	e9 a4 00 00 00       	jmpq   bfbb <func_55+0x1b6a>
    bf17:	48 8b 05 7a 51 00 00 	mov    0x517a(%rip),%rax        # 11098 <g_212>
    bf1e:	48 83 c0 01          	add    $0x1,%rax
    bf22:	48 89 05 6f 51 00 00 	mov    %rax,0x516f(%rip)        # 11098 <g_212>
    bf29:	48 8b 05 68 51 00 00 	mov    0x5168(%rip),%rax        # 11098 <g_212>
    bf30:	48 83 f8 05          	cmp    $0x5,%rax
    bf34:	0f 86 53 fa ff ff    	jbe    b98d <func_55+0x153c>
    bf3a:	eb 71                	jmp    bfad <func_55+0x1b5c>
    bf3c:	48 c7 85 70 fe ff ff 	movq   $0x0,-0x190(%rbp)
    bf43:	00 00 00 00 
    bf47:	48 8d 85 98 fb ff ff 	lea    -0x468(%rbp),%rax
    bf4e:	48 89 85 78 fe ff ff 	mov    %rax,-0x188(%rbp)
    bf55:	48 8d 85 98 fb ff ff 	lea    -0x468(%rbp),%rax
    bf5c:	48 89 85 80 fe ff ff 	mov    %rax,-0x180(%rbp)
    bf63:	48 c7 85 88 fe ff ff 	movq   $0x0,-0x178(%rbp)
    bf6a:	00 00 00 00 
    bf6e:	48 8d 85 98 fb ff ff 	lea    -0x468(%rbp),%rax
    bf75:	48 89 85 90 fe ff ff 	mov    %rax,-0x170(%rbp)
    bf7c:	48 8d 85 98 fb ff ff 	lea    -0x468(%rbp),%rax
    bf83:	48 89 85 98 fe ff ff 	mov    %rax,-0x168(%rbp)
    bf8a:	48 8b 05 6f 7e 00 00 	mov    0x7e6f(%rip),%rax        # 13e00 <g_521>
    bf91:	48 8b 95 78 fe ff ff 	mov    -0x188(%rbp),%rdx
    bf98:	48 89 10             	mov    %rdx,(%rax)
    bf9b:	48 8b 85 88 fb ff ff 	mov    -0x478(%rbp),%rax
    bfa2:	8b 95 b8 fa ff ff    	mov    -0x548(%rbp),%edx
    bfa8:	89 10                	mov    %edx,(%rax)
    bfaa:	eb 01                	jmp    bfad <func_55+0x1b5c>
    bfac:	90                   	nop
    bfad:	83 ad 0c fb ff ff 01 	subl   $0x1,-0x4f4(%rbp)
    bfb4:	48 8b 85 c0 fa ff ff 	mov    -0x540(%rbp),%rax
    bfbb:	48 8b 5d c8          	mov    -0x38(%rbp),%rbx
    bfbf:	64 48 33 1c 25 28 00 	xor    %fs:0x28,%rbx
    bfc6:	00 00 
    bfc8:	74 05                	je     bfcf <func_55+0x1b7e>
    bfca:	e8 a1 70 ff ff       	callq  3070 <__stack_chk_fail@plt>
    bfcf:	48 81 c4 38 05 00 00 	add    $0x538,%rsp
    bfd6:	5b                   	pop    %rbx
    bfd7:	41 5c                	pop    %r12
    bfd9:	41 5d                	pop    %r13
    bfdb:	41 5e                	pop    %r14
    bfdd:	41 5f                	pop    %r15
    bfdf:	5d                   	pop    %rbp
    bfe0:	c3                   	retq   

000000000000bfe1 <func_62>:
    bfe1:	f3 0f 1e fa          	endbr64 
    bfe5:	55                   	push   %rbp
    bfe6:	48 89 e5             	mov    %rsp,%rbp
    bfe9:	48 89 7d f8          	mov    %rdi,-0x8(%rbp)
    bfed:	48 89 75 f0          	mov    %rsi,-0x10(%rbp)
    bff1:	48 8b 45 f8          	mov    -0x8(%rbp),%rax
    bff5:	5d                   	pop    %rbp
    bff6:	c3                   	retq   

000000000000bff7 <func_65>:
    bff7:	f3 0f 1e fa          	endbr64 
    bffb:	55                   	push   %rbp
    bffc:	48 89 e5             	mov    %rsp,%rbp
    bfff:	48 89 7d f8          	mov    %rdi,-0x8(%rbp)
    c003:	48 89 75 f0          	mov    %rsi,-0x10(%rbp)
    c007:	89 55 ec             	mov    %edx,-0x14(%rbp)
    c00a:	48 89 4d e0          	mov    %rcx,-0x20(%rbp)
    c00e:	44 89 45 e8          	mov    %r8d,-0x18(%rbp)
    c012:	48 8d 05 18 50 00 00 	lea    0x5018(%rip),%rax        # 11031 <g_30>
    c019:	5d                   	pop    %rbp
    c01a:	c3                   	retq   

000000000000c01b <func_71>:
    c01b:	f3 0f 1e fa          	endbr64 
    c01f:	55                   	push   %rbp
    c020:	48 89 e5             	mov    %rsp,%rbp
    c023:	48 81 ec 30 04 00 00 	sub    $0x430,%rsp
    c02a:	48 89 bd e8 fb ff ff 	mov    %rdi,-0x418(%rbp)
    c031:	48 89 b5 e0 fb ff ff 	mov    %rsi,-0x420(%rbp)
    c038:	89 d0                	mov    %edx,%eax
    c03a:	66 89 85 dc fb ff ff 	mov    %ax,-0x424(%rbp)
    c041:	64 48 8b 04 25 28 00 	mov    %fs:0x28,%rax
    c048:	00 00 
    c04a:	48 89 45 f8          	mov    %rax,-0x8(%rbp)
    c04e:	31 c0                	xor    %eax,%eax
    c050:	48 8d 85 00 fc ff ff 	lea    -0x400(%rbp),%rax
    c057:	48 8d 15 e2 77 00 00 	lea    0x77e2(%rip),%rdx        # 13840 <g_1297+0x620>
    c05e:	b9 7e 00 00 00       	mov    $0x7e,%ecx
    c063:	48 89 c7             	mov    %rax,%rdi
    c066:	48 89 d6             	mov    %rdx,%rsi
    c069:	f3 48 a5             	rep movsq %ds:(%rsi),%es:(%rdi)
    c06c:	48 8d 05 be 4f 00 00 	lea    0x4fbe(%rip),%rax        # 11031 <g_30>
    c073:	48 89 85 f8 fb ff ff 	mov    %rax,-0x408(%rbp)
    c07a:	48 8b 05 a7 82 00 00 	mov    0x82a7(%rip),%rax        # 14328 <g_76>
    c081:	48 89 05 a0 82 00 00 	mov    %rax,0x82a0(%rip)        # 14328 <g_76>
    c088:	48 8b 85 f8 fb ff ff 	mov    -0x408(%rbp),%rax
    c08f:	48 8b 4d f8          	mov    -0x8(%rbp),%rcx
    c093:	64 48 33 0c 25 28 00 	xor    %fs:0x28,%rcx
    c09a:	00 00 
    c09c:	74 05                	je     c0a3 <func_71+0x88>
    c09e:	e8 cd 6f ff ff       	callq  3070 <__stack_chk_fail@plt>
    c0a3:	c9                   	leaveq 
    c0a4:	c3                   	retq   

000000000000c0a5 <main>:
    c0a5:	f3 0f 1e fa          	endbr64 
    c0a9:	55                   	push   %rbp
    c0aa:	48 89 e5             	mov    %rsp,%rbp
    c0ad:	48 83 ec 20          	sub    $0x20,%rsp
    c0b1:	89 7d ec             	mov    %edi,-0x14(%rbp)
    c0b4:	48 89 75 e0          	mov    %rsi,-0x20(%rbp)
    c0b8:	c7 45 fc 00 00 00 00 	movl   $0x0,-0x4(%rbp)
    c0bf:	83 7d ec 02          	cmpl   $0x2,-0x14(%rbp)
    c0c3:	74 25                	je     c0ea <main+0x45>
    c0c5:	48 8b 45 e0          	mov    -0x20(%rbp),%rax
    c0c9:	48 83 c0 08          	add    $0x8,%rax
    c0cd:	48 8b 00             	mov    (%rax),%rax
    c0d0:	48 8d 35 a1 21 00 00 	lea    0x21a1(%rip),%rsi        # e278 <g_1185+0x130>
    c0d7:	48 89 c7             	mov    %rax,%rdi
    c0da:	e8 b1 6f ff ff       	callq  3090 <strcmp@plt>
    c0df:	85 c0                	test   %eax,%eax
    c0e1:	74 07                	je     c0ea <main+0x45>
    c0e3:	c7 45 fc 01 00 00 00 	movl   $0x1,-0x4(%rbp)
    c0ea:	e8 9a 70 ff ff       	callq  3189 <platform_main_begin>
    c0ef:	e8 a4 84 ff ff       	callq  4598 <crc32_gentab>
    c0f4:	e8 bc 86 ff ff       	callq  47b5 <func_1>
    c0f9:	48 8b 05 28 4f 00 00 	mov    0x4f28(%rip),%rax        # 11028 <g_4>
    c100:	8b 55 fc             	mov    -0x4(%rbp),%edx
    c103:	48 8d 35 70 21 00 00 	lea    0x2170(%rip),%rsi        # e27a <g_1185+0x132>
    c10a:	48 89 c7             	mov    %rax,%rdi
    c10d:	e8 e1 85 ff ff       	callq  46f3 <transparent_crc>
    c112:	0f b6 05 17 4f 00 00 	movzbl 0x4f17(%rip),%eax        # 11030 <g_19>
    c119:	0f b6 c0             	movzbl %al,%eax
    c11c:	8b 55 fc             	mov    -0x4(%rbp),%edx
    c11f:	48 8d 35 58 21 00 00 	lea    0x2158(%rip),%rsi        # e27e <g_1185+0x136>
    c126:	48 89 c7             	mov    %rax,%rdi
    c129:	e8 c5 85 ff ff       	callq  46f3 <transparent_crc>
    c12e:	0f b6 05 fc 4e 00 00 	movzbl 0x4efc(%rip),%eax        # 11031 <g_30>
    c135:	0f b6 c0             	movzbl %al,%eax
    c138:	8b 55 fc             	mov    -0x4(%rbp),%edx
    c13b:	48 8d 35 41 21 00 00 	lea    0x2141(%rip),%rsi        # e283 <g_1185+0x13b>
    c142:	48 89 c7             	mov    %rax,%rdi
    c145:	e8 a9 85 ff ff       	callq  46f3 <transparent_crc>
    c14a:	0f b6 05 e1 4e 00 00 	movzbl 0x4ee1(%rip),%eax        # 11032 <g_61>
    c151:	0f b6 15 db 4e 00 00 	movzbl 0x4edb(%rip),%edx        # 11033 <g_61+0x1>
    c158:	48 c1 e2 08          	shl    $0x8,%rdx
    c15c:	48 09 c2             	or     %rax,%rdx
    c15f:	0f b6 05 ce 4e 00 00 	movzbl 0x4ece(%rip),%eax        # 11034 <g_61+0x2>
    c166:	48 c1 e0 10          	shl    $0x10,%rax
    c16a:	48 09 c2             	or     %rax,%rdx
    c16d:	0f b6 05 c1 4e 00 00 	movzbl 0x4ec1(%rip),%eax        # 11035 <g_61+0x3>
    c174:	83 e0 03             	and    $0x3,%eax
    c177:	48 c1 e0 18          	shl    $0x18,%rax
    c17b:	48 09 d0             	or     %rdx,%rax
    c17e:	89 c1                	mov    %eax,%ecx
    c180:	8b 45 fc             	mov    -0x4(%rbp),%eax
    c183:	89 c2                	mov    %eax,%edx
    c185:	48 8d 35 fc 20 00 00 	lea    0x20fc(%rip),%rsi        # e288 <g_1185+0x140>
    c18c:	48 89 cf             	mov    %rcx,%rdi
    c18f:	e8 5f 85 ff ff       	callq  46f3 <transparent_crc>
    c194:	48 8b 05 a5 4e 00 00 	mov    0x4ea5(%rip),%rax        # 11040 <g_88>
    c19b:	01 c0                	add    %eax,%eax
    c19d:	d0 f8                	sar    %al
    c19f:	48 0f be c0          	movsbq %al,%rax
    c1a3:	8b 55 fc             	mov    -0x4(%rbp),%edx
    c1a6:	48 8d 35 e3 20 00 00 	lea    0x20e3(%rip),%rsi        # e290 <g_1185+0x148>
    c1ad:	48 89 c7             	mov    %rax,%rdi
    c1b0:	e8 3e 85 ff ff       	callq  46f3 <transparent_crc>
    c1b5:	48 8b 05 88 4e 00 00 	mov    0x4e88(%rip),%rax        # 11044 <g_88+0x4>
    c1bc:	48 89 c1             	mov    %rax,%rcx
    c1bf:	8b 45 fc             	mov    -0x4(%rbp),%eax
    c1c2:	89 c2                	mov    %eax,%edx
    c1c4:	48 8d 35 cd 20 00 00 	lea    0x20cd(%rip),%rsi        # e298 <g_1185+0x150>
    c1cb:	48 89 cf             	mov    %rcx,%rdi
    c1ce:	e8 20 85 ff ff       	callq  46f3 <transparent_crc>
    c1d3:	48 8b 05 72 4e 00 00 	mov    0x4e72(%rip),%rax        # 1104c <g_88+0xc>
    c1da:	48 89 c1             	mov    %rax,%rcx
    c1dd:	8b 45 fc             	mov    -0x4(%rbp),%eax
    c1e0:	89 c2                	mov    %eax,%edx
    c1e2:	48 8d 35 b7 20 00 00 	lea    0x20b7(%rip),%rsi        # e2a0 <g_1185+0x158>
    c1e9:	48 89 cf             	mov    %rcx,%rdi
    c1ec:	e8 02 85 ff ff       	callq  46f3 <transparent_crc>
    c1f1:	0f b6 05 5c 4e 00 00 	movzbl 0x4e5c(%rip),%eax        # 11054 <g_101>
    c1f8:	0f b6 c0             	movzbl %al,%eax
    c1fb:	8b 55 fc             	mov    -0x4(%rbp),%edx
    c1fe:	48 8d 35 a3 20 00 00 	lea    0x20a3(%rip),%rsi        # e2a8 <g_1185+0x160>
    c205:	48 89 c7             	mov    %rax,%rdi
    c208:	e8 e6 84 ff ff       	callq  46f3 <transparent_crc>
    c20d:	0f b7 05 42 4e 00 00 	movzwl 0x4e42(%rip),%eax        # 11056 <g_103>
    c214:	48 0f bf c0          	movswq %ax,%rax
    c218:	8b 55 fc             	mov    -0x4(%rbp),%edx
    c21b:	48 8d 35 8c 20 00 00 	lea    0x208c(%rip),%rsi        # e2ae <g_1185+0x166>
    c222:	48 89 c7             	mov    %rax,%rdi
    c225:	e8 c9 84 ff ff       	callq  46f3 <transparent_crc>
    c22a:	8b 05 28 4e 00 00    	mov    0x4e28(%rip),%eax        # 11058 <g_105>
    c230:	48 98                	cltq   
    c232:	8b 55 fc             	mov    -0x4(%rbp),%edx
    c235:	48 8d 35 78 20 00 00 	lea    0x2078(%rip),%rsi        # e2b4 <g_1185+0x16c>
    c23c:	48 89 c7             	mov    %rax,%rdi
    c23f:	e8 af 84 ff ff       	callq  46f3 <transparent_crc>
    c244:	0f b7 05 11 4e 00 00 	movzwl 0x4e11(%rip),%eax        # 1105c <g_126>
    c24b:	48 0f bf c0          	movswq %ax,%rax
    c24f:	8b 55 fc             	mov    -0x4(%rbp),%edx
    c252:	48 8d 35 61 20 00 00 	lea    0x2061(%rip),%rsi        # e2ba <g_1185+0x172>
    c259:	48 89 c7             	mov    %rax,%rdi
    c25c:	e8 92 84 ff ff       	callq  46f3 <transparent_crc>
    c261:	0f b6 05 f6 4d 00 00 	movzbl 0x4df6(%rip),%eax        # 1105e <g_143>
    c268:	48 0f be c0          	movsbq %al,%rax
    c26c:	8b 55 fc             	mov    -0x4(%rbp),%edx
    c26f:	48 8d 35 4a 20 00 00 	lea    0x204a(%rip),%rsi        # e2c0 <g_1185+0x178>
    c276:	48 89 c7             	mov    %rax,%rdi
    c279:	e8 75 84 ff ff       	callq  46f3 <transparent_crc>
    c27e:	48 8b 05 db 4d 00 00 	mov    0x4ddb(%rip),%rax        # 11060 <g_146>
    c285:	01 c0                	add    %eax,%eax
    c287:	d0 f8                	sar    %al
    c289:	48 0f be c0          	movsbq %al,%rax
    c28d:	8b 55 fc             	mov    -0x4(%rbp),%edx
    c290:	48 8d 35 2f 20 00 00 	lea    0x202f(%rip),%rsi        # e2c6 <g_1185+0x17e>
    c297:	48 89 c7             	mov    %rax,%rdi
    c29a:	e8 54 84 ff ff       	callq  46f3 <transparent_crc>
    c29f:	48 8b 05 be 4d 00 00 	mov    0x4dbe(%rip),%rax        # 11064 <g_146+0x4>
    c2a6:	48 89 c1             	mov    %rax,%rcx
    c2a9:	8b 45 fc             	mov    -0x4(%rbp),%eax
    c2ac:	89 c2                	mov    %eax,%edx
    c2ae:	48 8d 35 1a 20 00 00 	lea    0x201a(%rip),%rsi        # e2cf <g_1185+0x187>
    c2b5:	48 89 cf             	mov    %rcx,%rdi
    c2b8:	e8 36 84 ff ff       	callq  46f3 <transparent_crc>
    c2bd:	48 8b 05 a8 4d 00 00 	mov    0x4da8(%rip),%rax        # 1106c <g_146+0xc>
    c2c4:	48 89 c1             	mov    %rax,%rcx
    c2c7:	8b 45 fc             	mov    -0x4(%rbp),%eax
    c2ca:	89 c2                	mov    %eax,%edx
    c2cc:	48 8d 35 05 20 00 00 	lea    0x2005(%rip),%rsi        # e2d8 <g_1185+0x190>
    c2d3:	48 89 cf             	mov    %rcx,%rdi
    c2d6:	e8 18 84 ff ff       	callq  46f3 <transparent_crc>
    c2db:	0f b6 05 92 4d 00 00 	movzbl 0x4d92(%rip),%eax        # 11074 <g_162>
    c2e2:	48 0f be c0          	movsbq %al,%rax
    c2e6:	8b 55 fc             	mov    -0x4(%rbp),%edx
    c2e9:	48 8d 35 f1 1f 00 00 	lea    0x1ff1(%rip),%rsi        # e2e1 <g_1185+0x199>
    c2f0:	48 89 c7             	mov    %rax,%rdi
    c2f3:	e8 fb 83 ff ff       	callq  46f3 <transparent_crc>
    c2f8:	0f b6 05 76 4d 00 00 	movzbl 0x4d76(%rip),%eax        # 11075 <g_181>
    c2ff:	0f b6 c0             	movzbl %al,%eax
    c302:	8b 55 fc             	mov    -0x4(%rbp),%edx
    c305:	48 8d 35 db 1f 00 00 	lea    0x1fdb(%rip),%rsi        # e2e7 <g_1185+0x19f>
    c30c:	48 89 c7             	mov    %rax,%rdi
    c30f:	e8 df 83 ff ff       	callq  46f3 <transparent_crc>
    c314:	8b 05 1e 80 00 00    	mov    0x801e(%rip),%eax        # 14338 <g_183>
    c31a:	48 98                	cltq   
    c31c:	8b 55 fc             	mov    -0x4(%rbp),%edx
    c31f:	48 8d 35 c7 1f 00 00 	lea    0x1fc7(%rip),%rsi        # e2ed <g_1185+0x1a5>
    c326:	48 89 c7             	mov    %rax,%rdi
    c329:	e8 c5 83 ff ff       	callq  46f3 <transparent_crc>
    c32e:	48 8b 05 43 4d 00 00 	mov    0x4d43(%rip),%rax        # 11078 <g_199>
    c335:	48 89 c1             	mov    %rax,%rcx
    c338:	8b 45 fc             	mov    -0x4(%rbp),%eax
    c33b:	89 c2                	mov    %eax,%edx
    c33d:	48 8d 35 af 1f 00 00 	lea    0x1faf(%rip),%rsi        # e2f3 <g_1185+0x1ab>
    c344:	48 89 cf             	mov    %rcx,%rdi
    c347:	e8 a7 83 ff ff       	callq  46f3 <transparent_crc>
    c34c:	0f b6 05 2d 4d 00 00 	movzbl 0x4d2d(%rip),%eax        # 11080 <g_208>
    c353:	01 c0                	add    %eax,%eax
    c355:	d0 f8                	sar    %al
    c357:	48 0f be c0          	movsbq %al,%rax
    c35b:	8b 55 fc             	mov    -0x4(%rbp),%edx
    c35e:	48 8d 35 94 1f 00 00 	lea    0x1f94(%rip),%rsi        # e2f9 <g_1185+0x1b1>
    c365:	48 89 c7             	mov    %rax,%rdi
    c368:	e8 86 83 ff ff       	callq  46f3 <transparent_crc>
    c36d:	48 8b 05 10 4d 00 00 	mov    0x4d10(%rip),%rax        # 11084 <g_208+0x4>
    c374:	48 89 c1             	mov    %rax,%rcx
    c377:	8b 45 fc             	mov    -0x4(%rbp),%eax
    c37a:	89 c2                	mov    %eax,%edx
    c37c:	48 8d 35 7f 1f 00 00 	lea    0x1f7f(%rip),%rsi        # e302 <g_1185+0x1ba>
    c383:	48 89 cf             	mov    %rcx,%rdi
    c386:	e8 68 83 ff ff       	callq  46f3 <transparent_crc>
    c38b:	48 8b 05 fa 4c 00 00 	mov    0x4cfa(%rip),%rax        # 1108c <g_208+0xc>
    c392:	48 89 c1             	mov    %rax,%rcx
    c395:	8b 45 fc             	mov    -0x4(%rbp),%eax
    c398:	89 c2                	mov    %eax,%edx
    c39a:	48 8d 35 6a 1f 00 00 	lea    0x1f6a(%rip),%rsi        # e30b <g_1185+0x1c3>
    c3a1:	48 89 cf             	mov    %rcx,%rdi
    c3a4:	e8 4a 83 ff ff       	callq  46f3 <transparent_crc>
    c3a9:	48 8b 05 e8 4c 00 00 	mov    0x4ce8(%rip),%rax        # 11098 <g_212>
    c3b0:	8b 55 fc             	mov    -0x4(%rbp),%edx
    c3b3:	48 8d 35 5a 1f 00 00 	lea    0x1f5a(%rip),%rsi        # e314 <g_1185+0x1cc>
    c3ba:	48 89 c7             	mov    %rax,%rdi
    c3bd:	e8 31 83 ff ff       	callq  46f3 <transparent_crc>
    c3c2:	48 8b 05 77 7f 00 00 	mov    0x7f77(%rip),%rax        # 14340 <g_225>
    c3c9:	8b 55 fc             	mov    -0x4(%rbp),%edx
    c3cc:	48 8d 35 47 1f 00 00 	lea    0x1f47(%rip),%rsi        # e31a <g_1185+0x1d2>
    c3d3:	48 89 c7             	mov    %rax,%rdi
    c3d6:	e8 18 83 ff ff       	callq  46f3 <transparent_crc>
    c3db:	c7 45 f0 00 00 00 00 	movl   $0x0,-0x10(%rbp)
    c3e2:	eb 73                	jmp    c457 <main+0x3b2>
    c3e4:	c7 45 f4 00 00 00 00 	movl   $0x0,-0xc(%rbp)
    c3eb:	eb 60                	jmp    c44d <main+0x3a8>
    c3ed:	8b 45 f4             	mov    -0xc(%rbp),%eax
    c3f0:	48 63 c8             	movslq %eax,%rcx
    c3f3:	8b 45 f0             	mov    -0x10(%rbp),%eax
    c3f6:	48 63 d0             	movslq %eax,%rdx
    c3f9:	48 89 d0             	mov    %rdx,%rax
    c3fc:	48 c1 e0 02          	shl    $0x2,%rax
    c400:	48 01 d0             	add    %rdx,%rax
    c403:	48 01 c8             	add    %rcx,%rax
    c406:	48 8d 14 00          	lea    (%rax,%rax,1),%rdx
    c40a:	48 8d 05 8f 4c 00 00 	lea    0x4c8f(%rip),%rax        # 110a0 <g_267>
    c411:	0f b7 04 02          	movzwl (%rdx,%rax,1),%eax
    c415:	0f b7 c0             	movzwl %ax,%eax
    c418:	8b 55 fc             	mov    -0x4(%rbp),%edx
    c41b:	48 8d 35 fe 1e 00 00 	lea    0x1efe(%rip),%rsi        # e320 <g_1185+0x1d8>
    c422:	48 89 c7             	mov    %rax,%rdi
    c425:	e8 c9 82 ff ff       	callq  46f3 <transparent_crc>
    c42a:	83 7d fc 00          	cmpl   $0x0,-0x4(%rbp)
    c42e:	74 19                	je     c449 <main+0x3a4>
    c430:	8b 55 f4             	mov    -0xc(%rbp),%edx
    c433:	8b 45 f0             	mov    -0x10(%rbp),%eax
    c436:	89 c6                	mov    %eax,%esi
    c438:	48 8d 3d ed 1e 00 00 	lea    0x1eed(%rip),%rdi        # e32c <g_1185+0x1e4>
    c43f:	b8 00 00 00 00       	mov    $0x0,%eax
    c444:	e8 37 6c ff ff       	callq  3080 <printf@plt>
    c449:	83 45 f4 01          	addl   $0x1,-0xc(%rbp)
    c44d:	83 7d f4 04          	cmpl   $0x4,-0xc(%rbp)
    c451:	7e 9a                	jle    c3ed <main+0x348>
    c453:	83 45 f0 01          	addl   $0x1,-0x10(%rbp)
    c457:	83 7d f0 01          	cmpl   $0x1,-0x10(%rbp)
    c45b:	7e 87                	jle    c3e4 <main+0x33f>
    c45d:	0f b6 05 50 4c 00 00 	movzbl 0x4c50(%rip),%eax        # 110b4 <g_298>
    c464:	0f b6 c0             	movzbl %al,%eax
    c467:	8b 55 fc             	mov    -0x4(%rbp),%edx
    c46a:	48 8d 35 cd 1e 00 00 	lea    0x1ecd(%rip),%rsi        # e33e <g_1185+0x1f6>
    c471:	48 89 c7             	mov    %rax,%rdi
    c474:	e8 7a 82 ff ff       	callq  46f3 <transparent_crc>
    c479:	48 8b 05 40 4c 00 00 	mov    0x4c40(%rip),%rax        # 110c0 <g_311>
    c480:	01 c0                	add    %eax,%eax
    c482:	d0 f8                	sar    %al
    c484:	48 0f be c0          	movsbq %al,%rax
    c488:	8b 55 fc             	mov    -0x4(%rbp),%edx
    c48b:	48 8d 35 b2 1e 00 00 	lea    0x1eb2(%rip),%rsi        # e344 <g_1185+0x1fc>
    c492:	48 89 c7             	mov    %rax,%rdi
    c495:	e8 59 82 ff ff       	callq  46f3 <transparent_crc>
    c49a:	48 8b 05 23 4c 00 00 	mov    0x4c23(%rip),%rax        # 110c4 <g_311+0x4>
    c4a1:	48 89 c1             	mov    %rax,%rcx
    c4a4:	8b 45 fc             	mov    -0x4(%rbp),%eax
    c4a7:	89 c2                	mov    %eax,%edx
    c4a9:	48 8d 35 9d 1e 00 00 	lea    0x1e9d(%rip),%rsi        # e34d <g_1185+0x205>
    c4b0:	48 89 cf             	mov    %rcx,%rdi
    c4b3:	e8 3b 82 ff ff       	callq  46f3 <transparent_crc>
    c4b8:	48 8b 05 0d 4c 00 00 	mov    0x4c0d(%rip),%rax        # 110cc <g_311+0xc>
    c4bf:	48 89 c1             	mov    %rax,%rcx
    c4c2:	8b 45 fc             	mov    -0x4(%rbp),%eax
    c4c5:	89 c2                	mov    %eax,%edx
    c4c7:	48 8d 35 88 1e 00 00 	lea    0x1e88(%rip),%rsi        # e356 <g_1185+0x20e>
    c4ce:	48 89 cf             	mov    %rcx,%rdi
    c4d1:	e8 1d 82 ff ff       	callq  46f3 <transparent_crc>
    c4d6:	48 8b 05 03 4c 00 00 	mov    0x4c03(%rip),%rax        # 110e0 <g_341>
    c4dd:	01 c0                	add    %eax,%eax
    c4df:	d0 f8                	sar    %al
    c4e1:	48 0f be c0          	movsbq %al,%rax
    c4e5:	8b 55 fc             	mov    -0x4(%rbp),%edx
    c4e8:	48 8d 35 70 1e 00 00 	lea    0x1e70(%rip),%rsi        # e35f <g_1185+0x217>
    c4ef:	48 89 c7             	mov    %rax,%rdi
    c4f2:	e8 fc 81 ff ff       	callq  46f3 <transparent_crc>
    c4f7:	48 8b 05 e6 4b 00 00 	mov    0x4be6(%rip),%rax        # 110e4 <g_341+0x4>
    c4fe:	48 89 c1             	mov    %rax,%rcx
    c501:	8b 45 fc             	mov    -0x4(%rbp),%eax
    c504:	89 c2                	mov    %eax,%edx
    c506:	48 8d 35 5b 1e 00 00 	lea    0x1e5b(%rip),%rsi        # e368 <g_1185+0x220>
    c50d:	48 89 cf             	mov    %rcx,%rdi
    c510:	e8 de 81 ff ff       	callq  46f3 <transparent_crc>
    c515:	48 8b 05 d0 4b 00 00 	mov    0x4bd0(%rip),%rax        # 110ec <g_341+0xc>
    c51c:	48 89 c1             	mov    %rax,%rcx
    c51f:	8b 45 fc             	mov    -0x4(%rbp),%eax
    c522:	89 c2                	mov    %eax,%edx
    c524:	48 8d 35 46 1e 00 00 	lea    0x1e46(%rip),%rsi        # e371 <g_1185+0x229>
    c52b:	48 89 cf             	mov    %rcx,%rdi
    c52e:	e8 c0 81 ff ff       	callq  46f3 <transparent_crc>
    c533:	0f b7 05 ba 4b 00 00 	movzwl 0x4bba(%rip),%eax        # 110f4 <g_415>
    c53a:	0f b7 c0             	movzwl %ax,%eax
    c53d:	8b 55 fc             	mov    -0x4(%rbp),%edx
    c540:	48 8d 35 33 1e 00 00 	lea    0x1e33(%rip),%rsi        # e37a <g_1185+0x232>
    c547:	48 89 c7             	mov    %rax,%rdi
    c54a:	e8 a4 81 ff ff       	callq  46f3 <transparent_crc>
    c54f:	c7 45 f0 00 00 00 00 	movl   $0x0,-0x10(%rbp)
    c556:	eb 70                	jmp    c5c8 <main+0x523>
    c558:	c7 45 f4 00 00 00 00 	movl   $0x0,-0xc(%rbp)
    c55f:	eb 5d                	jmp    c5be <main+0x519>
    c561:	8b 45 f4             	mov    -0xc(%rbp),%eax
    c564:	48 98                	cltq   
    c566:	8b 55 f0             	mov    -0x10(%rbp),%edx
    c569:	48 63 d2             	movslq %edx,%rdx
    c56c:	48 c1 e2 02          	shl    $0x2,%rdx
    c570:	48 01 d0             	add    %rdx,%rax
    c573:	48 8d 14 85 00 00 00 	lea    0x0(,%rax,4),%rdx
    c57a:	00 
    c57b:	48 8d 05 7e 4b 00 00 	lea    0x4b7e(%rip),%rax        # 11100 <g_417>
    c582:	8b 04 02             	mov    (%rdx,%rax,1),%eax
    c585:	89 c1                	mov    %eax,%ecx
    c587:	8b 45 fc             	mov    -0x4(%rbp),%eax
    c58a:	89 c2                	mov    %eax,%edx
    c58c:	48 8d 35 ed 1d 00 00 	lea    0x1ded(%rip),%rsi        # e380 <g_1185+0x238>
    c593:	48 89 cf             	mov    %rcx,%rdi
    c596:	e8 58 81 ff ff       	callq  46f3 <transparent_crc>
    c59b:	83 7d fc 00          	cmpl   $0x0,-0x4(%rbp)
    c59f:	74 19                	je     c5ba <main+0x515>
    c5a1:	8b 55 f4             	mov    -0xc(%rbp),%edx
    c5a4:	8b 45 f0             	mov    -0x10(%rbp),%eax
    c5a7:	89 c6                	mov    %eax,%esi
    c5a9:	48 8d 3d 7c 1d 00 00 	lea    0x1d7c(%rip),%rdi        # e32c <g_1185+0x1e4>
    c5b0:	b8 00 00 00 00       	mov    $0x0,%eax
    c5b5:	e8 c6 6a ff ff       	callq  3080 <printf@plt>
    c5ba:	83 45 f4 01          	addl   $0x1,-0xc(%rbp)
    c5be:	83 7d f4 03          	cmpl   $0x3,-0xc(%rbp)
    c5c2:	7e 9d                	jle    c561 <main+0x4bc>
    c5c4:	83 45 f0 01          	addl   $0x1,-0x10(%rbp)
    c5c8:	83 7d f0 07          	cmpl   $0x7,-0x10(%rbp)
    c5cc:	7e 8a                	jle    c558 <main+0x4b3>
    c5ce:	48 8b 05 ab 4b 00 00 	mov    0x4bab(%rip),%rax        # 11180 <g_448>
    c5d5:	01 c0                	add    %eax,%eax
    c5d7:	d0 f8                	sar    %al
    c5d9:	48 0f be c0          	movsbq %al,%rax
    c5dd:	8b 55 fc             	mov    -0x4(%rbp),%edx
    c5e0:	48 8d 35 a5 1d 00 00 	lea    0x1da5(%rip),%rsi        # e38c <g_1185+0x244>
    c5e7:	48 89 c7             	mov    %rax,%rdi
    c5ea:	e8 04 81 ff ff       	callq  46f3 <transparent_crc>
    c5ef:	48 8b 05 8e 4b 00 00 	mov    0x4b8e(%rip),%rax        # 11184 <g_448+0x4>
    c5f6:	48 89 c1             	mov    %rax,%rcx
    c5f9:	8b 45 fc             	mov    -0x4(%rbp),%eax
    c5fc:	89 c2                	mov    %eax,%edx
    c5fe:	48 8d 35 90 1d 00 00 	lea    0x1d90(%rip),%rsi        # e395 <g_1185+0x24d>
    c605:	48 89 cf             	mov    %rcx,%rdi
    c608:	e8 e6 80 ff ff       	callq  46f3 <transparent_crc>
    c60d:	48 8b 05 78 4b 00 00 	mov    0x4b78(%rip),%rax        # 1118c <g_448+0xc>
    c614:	48 89 c1             	mov    %rax,%rcx
    c617:	8b 45 fc             	mov    -0x4(%rbp),%eax
    c61a:	89 c2                	mov    %eax,%edx
    c61c:	48 8d 35 7b 1d 00 00 	lea    0x1d7b(%rip),%rsi        # e39e <g_1185+0x256>
    c623:	48 89 cf             	mov    %rcx,%rdi
    c626:	e8 c8 80 ff ff       	callq  46f3 <transparent_crc>
    c62b:	8b 05 63 4b 00 00    	mov    0x4b63(%rip),%eax        # 11194 <g_498>
    c631:	48 98                	cltq   
    c633:	8b 55 fc             	mov    -0x4(%rbp),%edx
    c636:	48 8d 35 6a 1d 00 00 	lea    0x1d6a(%rip),%rsi        # e3a7 <g_1185+0x25f>
    c63d:	48 89 c7             	mov    %rax,%rdi
    c640:	e8 ae 80 ff ff       	callq  46f3 <transparent_crc>
    c645:	8b 05 4d 4b 00 00    	mov    0x4b4d(%rip),%eax        # 11198 <g_586>
    c64b:	89 c1                	mov    %eax,%ecx
    c64d:	8b 45 fc             	mov    -0x4(%rbp),%eax
    c650:	89 c2                	mov    %eax,%edx
    c652:	48 8d 35 54 1d 00 00 	lea    0x1d54(%rip),%rsi        # e3ad <g_1185+0x265>
    c659:	48 89 cf             	mov    %rcx,%rdi
    c65c:	e8 92 80 ff ff       	callq  46f3 <transparent_crc>
    c661:	48 8b 05 38 4b 00 00 	mov    0x4b38(%rip),%rax        # 111a0 <g_594>
    c668:	01 c0                	add    %eax,%eax
    c66a:	d0 f8                	sar    %al
    c66c:	48 0f be c0          	movsbq %al,%rax
    c670:	8b 55 fc             	mov    -0x4(%rbp),%edx
    c673:	48 8d 35 39 1d 00 00 	lea    0x1d39(%rip),%rsi        # e3b3 <g_1185+0x26b>
    c67a:	48 89 c7             	mov    %rax,%rdi
    c67d:	e8 71 80 ff ff       	callq  46f3 <transparent_crc>
    c682:	48 8b 05 1b 4b 00 00 	mov    0x4b1b(%rip),%rax        # 111a4 <g_594+0x4>
    c689:	48 89 c1             	mov    %rax,%rcx
    c68c:	8b 45 fc             	mov    -0x4(%rbp),%eax
    c68f:	89 c2                	mov    %eax,%edx
    c691:	48 8d 35 24 1d 00 00 	lea    0x1d24(%rip),%rsi        # e3bc <g_1185+0x274>
    c698:	48 89 cf             	mov    %rcx,%rdi
    c69b:	e8 53 80 ff ff       	callq  46f3 <transparent_crc>
    c6a0:	48 8b 05 05 4b 00 00 	mov    0x4b05(%rip),%rax        # 111ac <g_594+0xc>
    c6a7:	48 89 c1             	mov    %rax,%rcx
    c6aa:	8b 45 fc             	mov    -0x4(%rbp),%eax
    c6ad:	89 c2                	mov    %eax,%edx
    c6af:	48 8d 35 0f 1d 00 00 	lea    0x1d0f(%rip),%rsi        # e3c5 <g_1185+0x27d>
    c6b6:	48 89 cf             	mov    %rcx,%rdi
    c6b9:	e8 35 80 ff ff       	callq  46f3 <transparent_crc>
    c6be:	48 8b 05 f3 4a 00 00 	mov    0x4af3(%rip),%rax        # 111b8 <g_624>
    c6c5:	48 89 c1             	mov    %rax,%rcx
    c6c8:	8b 45 fc             	mov    -0x4(%rbp),%eax
    c6cb:	89 c2                	mov    %eax,%edx
    c6cd:	48 8d 35 fa 1c 00 00 	lea    0x1cfa(%rip),%rsi        # e3ce <g_1185+0x286>
    c6d4:	48 89 cf             	mov    %rcx,%rdi
    c6d7:	e8 17 80 ff ff       	callq  46f3 <transparent_crc>
    c6dc:	c7 45 f0 00 00 00 00 	movl   $0x0,-0x10(%rbp)
    c6e3:	e9 9d 00 00 00       	jmpq   c785 <main+0x6e0>
    c6e8:	c7 45 f4 00 00 00 00 	movl   $0x0,-0xc(%rbp)
    c6ef:	e9 83 00 00 00       	jmpq   c777 <main+0x6d2>
    c6f4:	c7 45 f8 00 00 00 00 	movl   $0x0,-0x8(%rbp)
    c6fb:	eb 70                	jmp    c76d <main+0x6c8>
    c6fd:	8b 45 f8             	mov    -0x8(%rbp),%eax
    c700:	48 63 c8             	movslq %eax,%rcx
    c703:	8b 45 f0             	mov    -0x10(%rbp),%eax
    c706:	48 63 d0             	movslq %eax,%rdx
    c709:	8b 45 f4             	mov    -0xc(%rbp),%eax
    c70c:	48 63 f0             	movslq %eax,%rsi
    c70f:	48 89 d0             	mov    %rdx,%rax
    c712:	48 c1 e0 02          	shl    $0x2,%rax
    c716:	48 01 d0             	add    %rdx,%rax
    c719:	48 01 f0             	add    %rsi,%rax
    c71c:	48 c1 e0 03          	shl    $0x3,%rax
    c720:	48 8d 14 08          	lea    (%rax,%rcx,1),%rdx
    c724:	48 8d 05 95 4a 00 00 	lea    0x4a95(%rip),%rax        # 111c0 <g_626>
    c72b:	48 01 d0             	add    %rdx,%rax
    c72e:	0f b6 00             	movzbl (%rax),%eax
    c731:	48 0f be c0          	movsbq %al,%rax
    c735:	8b 55 fc             	mov    -0x4(%rbp),%edx
    c738:	48 8d 35 95 1c 00 00 	lea    0x1c95(%rip),%rsi        # e3d4 <g_1185+0x28c>
    c73f:	48 89 c7             	mov    %rax,%rdi
    c742:	e8 ac 7f ff ff       	callq  46f3 <transparent_crc>
    c747:	83 7d fc 00          	cmpl   $0x0,-0x4(%rbp)
    c74b:	74 1c                	je     c769 <main+0x6c4>
    c74d:	8b 4d f8             	mov    -0x8(%rbp),%ecx
    c750:	8b 55 f4             	mov    -0xc(%rbp),%edx
    c753:	8b 45 f0             	mov    -0x10(%rbp),%eax
    c756:	89 c6                	mov    %eax,%esi
    c758:	48 8d 3d 84 1c 00 00 	lea    0x1c84(%rip),%rdi        # e3e3 <g_1185+0x29b>
    c75f:	b8 00 00 00 00       	mov    $0x0,%eax
    c764:	e8 17 69 ff ff       	callq  3080 <printf@plt>
    c769:	83 45 f8 01          	addl   $0x1,-0x8(%rbp)
    c76d:	83 7d f8 07          	cmpl   $0x7,-0x8(%rbp)
    c771:	7e 8a                	jle    c6fd <main+0x658>
    c773:	83 45 f4 01          	addl   $0x1,-0xc(%rbp)
    c777:	83 7d f4 04          	cmpl   $0x4,-0xc(%rbp)
    c77b:	0f 8e 73 ff ff ff    	jle    c6f4 <main+0x64f>
    c781:	83 45 f0 01          	addl   $0x1,-0x10(%rbp)
    c785:	83 7d f0 03          	cmpl   $0x3,-0x10(%rbp)
    c789:	0f 8e 59 ff ff ff    	jle    c6e8 <main+0x643>
    c78f:	0f b7 05 ca 4a 00 00 	movzwl 0x4aca(%rip),%eax        # 11260 <g_627>
    c796:	0f b7 c0             	movzwl %ax,%eax
    c799:	8b 55 fc             	mov    -0x4(%rbp),%edx
    c79c:	48 8d 35 56 1c 00 00 	lea    0x1c56(%rip),%rsi        # e3f9 <g_1185+0x2b1>
    c7a3:	48 89 c7             	mov    %rax,%rdi
    c7a6:	e8 48 7f ff ff       	callq  46f3 <transparent_crc>
    c7ab:	0f b6 05 be 4a 00 00 	movzbl 0x4abe(%rip),%eax        # 11270 <g_712>
    c7b2:	01 c0                	add    %eax,%eax
    c7b4:	d0 f8                	sar    %al
    c7b6:	48 0f be c0          	movsbq %al,%rax
    c7ba:	8b 55 fc             	mov    -0x4(%rbp),%edx
    c7bd:	48 8d 35 3b 1c 00 00 	lea    0x1c3b(%rip),%rsi        # e3ff <g_1185+0x2b7>
    c7c4:	48 89 c7             	mov    %rax,%rdi
    c7c7:	e8 27 7f ff ff       	callq  46f3 <transparent_crc>
    c7cc:	48 8b 05 a1 4a 00 00 	mov    0x4aa1(%rip),%rax        # 11274 <g_712+0x4>
    c7d3:	48 89 c1             	mov    %rax,%rcx
    c7d6:	8b 45 fc             	mov    -0x4(%rbp),%eax
    c7d9:	89 c2                	mov    %eax,%edx
    c7db:	48 8d 35 26 1c 00 00 	lea    0x1c26(%rip),%rsi        # e408 <g_1185+0x2c0>
    c7e2:	48 89 cf             	mov    %rcx,%rdi
    c7e5:	e8 09 7f ff ff       	callq  46f3 <transparent_crc>
    c7ea:	48 8b 05 8b 4a 00 00 	mov    0x4a8b(%rip),%rax        # 1127c <g_712+0xc>
    c7f1:	48 89 c1             	mov    %rax,%rcx
    c7f4:	8b 45 fc             	mov    -0x4(%rbp),%eax
    c7f7:	89 c2                	mov    %eax,%edx
    c7f9:	48 8d 35 11 1c 00 00 	lea    0x1c11(%rip),%rsi        # e411 <g_1185+0x2c9>
    c800:	48 89 cf             	mov    %rcx,%rdi
    c803:	e8 eb 7e ff ff       	callq  46f3 <transparent_crc>
    c808:	0f b6 05 81 4a 00 00 	movzbl 0x4a81(%rip),%eax        # 11290 <g_715>
    c80f:	01 c0                	add    %eax,%eax
    c811:	d0 f8                	sar    %al
    c813:	48 0f be c0          	movsbq %al,%rax
    c817:	8b 55 fc             	mov    -0x4(%rbp),%edx
    c81a:	48 8d 35 f9 1b 00 00 	lea    0x1bf9(%rip),%rsi        # e41a <g_1185+0x2d2>
    c821:	48 89 c7             	mov    %rax,%rdi
    c824:	e8 ca 7e ff ff       	callq  46f3 <transparent_crc>
    c829:	48 8b 05 64 4a 00 00 	mov    0x4a64(%rip),%rax        # 11294 <g_715+0x4>
    c830:	48 89 c1             	mov    %rax,%rcx
    c833:	8b 45 fc             	mov    -0x4(%rbp),%eax
    c836:	89 c2                	mov    %eax,%edx
    c838:	48 8d 35 e4 1b 00 00 	lea    0x1be4(%rip),%rsi        # e423 <g_1185+0x2db>
    c83f:	48 89 cf             	mov    %rcx,%rdi
    c842:	e8 ac 7e ff ff       	callq  46f3 <transparent_crc>
    c847:	48 8b 05 4e 4a 00 00 	mov    0x4a4e(%rip),%rax        # 1129c <g_715+0xc>
    c84e:	48 89 c1             	mov    %rax,%rcx
    c851:	8b 45 fc             	mov    -0x4(%rbp),%eax
    c854:	89 c2                	mov    %eax,%edx
    c856:	48 8d 35 cf 1b 00 00 	lea    0x1bcf(%rip),%rsi        # e42c <g_1185+0x2e4>
    c85d:	48 89 cf             	mov    %rcx,%rdi
    c860:	e8 8e 7e ff ff       	callq  46f3 <transparent_crc>
    c865:	0f b6 05 38 4a 00 00 	movzbl 0x4a38(%rip),%eax        # 112a4 <g_742>
    c86c:	48 0f be c0          	movsbq %al,%rax
    c870:	8b 55 fc             	mov    -0x4(%rbp),%edx
    c873:	48 8d 35 bb 1b 00 00 	lea    0x1bbb(%rip),%rsi        # e435 <g_1185+0x2ed>
    c87a:	48 89 c7             	mov    %rax,%rdi
    c87d:	e8 71 7e ff ff       	callq  46f3 <transparent_crc>
    c882:	0f b7 05 1d 4a 00 00 	movzwl 0x4a1d(%rip),%eax        # 112a6 <g_744>
    c889:	48 0f bf c0          	movswq %ax,%rax
    c88d:	8b 55 fc             	mov    -0x4(%rbp),%edx
    c890:	48 8d 35 a4 1b 00 00 	lea    0x1ba4(%rip),%rsi        # e43b <g_1185+0x2f3>
    c897:	48 89 c7             	mov    %rax,%rdi
    c89a:	e8 54 7e ff ff       	callq  46f3 <transparent_crc>
    c89f:	c7 45 f0 00 00 00 00 	movl   $0x0,-0x10(%rbp)
    c8a6:	eb 74                	jmp    c91c <main+0x877>
    c8a8:	c7 45 f4 00 00 00 00 	movl   $0x0,-0xc(%rbp)
    c8af:	eb 61                	jmp    c912 <main+0x86d>
    c8b1:	8b 45 f4             	mov    -0xc(%rbp),%eax
    c8b4:	48 63 c8             	movslq %eax,%rcx
    c8b7:	8b 45 f0             	mov    -0x10(%rbp),%eax
    c8ba:	48 63 d0             	movslq %eax,%rdx
    c8bd:	48 89 d0             	mov    %rdx,%rax
    c8c0:	48 01 c0             	add    %rax,%rax
    c8c3:	48 01 d0             	add    %rdx,%rax
    c8c6:	48 01 c0             	add    %rax,%rax
    c8c9:	48 8d 14 08          	lea    (%rax,%rcx,1),%rdx
    c8cd:	48 8d 05 dc 49 00 00 	lea    0x49dc(%rip),%rax        # 112b0 <g_746>
    c8d4:	48 01 d0             	add    %rdx,%rax
    c8d7:	0f b6 00             	movzbl (%rax),%eax
    c8da:	0f b6 c0             	movzbl %al,%eax
    c8dd:	8b 55 fc             	mov    -0x4(%rbp),%edx
    c8e0:	48 8d 35 5a 1b 00 00 	lea    0x1b5a(%rip),%rsi        # e441 <g_1185+0x2f9>
    c8e7:	48 89 c7             	mov    %rax,%rdi
    c8ea:	e8 04 7e ff ff       	callq  46f3 <transparent_crc>
    c8ef:	83 7d fc 00          	cmpl   $0x0,-0x4(%rbp)
    c8f3:	74 19                	je     c90e <main+0x869>
    c8f5:	8b 55 f4             	mov    -0xc(%rbp),%edx
    c8f8:	8b 45 f0             	mov    -0x10(%rbp),%eax
    c8fb:	89 c6                	mov    %eax,%esi
    c8fd:	48 8d 3d 28 1a 00 00 	lea    0x1a28(%rip),%rdi        # e32c <g_1185+0x1e4>
    c904:	b8 00 00 00 00       	mov    $0x0,%eax
    c909:	e8 72 67 ff ff       	callq  3080 <printf@plt>
    c90e:	83 45 f4 01          	addl   $0x1,-0xc(%rbp)
    c912:	83 7d f4 05          	cmpl   $0x5,-0xc(%rbp)
    c916:	7e 99                	jle    c8b1 <main+0x80c>
    c918:	83 45 f0 01          	addl   $0x1,-0x10(%rbp)
    c91c:	83 7d f0 04          	cmpl   $0x4,-0x10(%rbp)
    c920:	7e 86                	jle    c8a8 <main+0x803>
    c922:	48 8b 05 a7 49 00 00 	mov    0x49a7(%rip),%rax        # 112d0 <g_751>
    c929:	01 c0                	add    %eax,%eax
    c92b:	d0 f8                	sar    %al
    c92d:	48 0f be c0          	movsbq %al,%rax
    c931:	8b 55 fc             	mov    -0x4(%rbp),%edx
    c934:	48 8d 35 12 1b 00 00 	lea    0x1b12(%rip),%rsi        # e44d <g_1185+0x305>
    c93b:	48 89 c7             	mov    %rax,%rdi
    c93e:	e8 b0 7d ff ff       	callq  46f3 <transparent_crc>
    c943:	48 8b 05 8a 49 00 00 	mov    0x498a(%rip),%rax        # 112d4 <g_751+0x4>
    c94a:	48 89 c1             	mov    %rax,%rcx
    c94d:	8b 45 fc             	mov    -0x4(%rbp),%eax
    c950:	89 c2                	mov    %eax,%edx
    c952:	48 8d 35 fd 1a 00 00 	lea    0x1afd(%rip),%rsi        # e456 <g_1185+0x30e>
    c959:	48 89 cf             	mov    %rcx,%rdi
    c95c:	e8 92 7d ff ff       	callq  46f3 <transparent_crc>
    c961:	48 8b 05 74 49 00 00 	mov    0x4974(%rip),%rax        # 112dc <g_751+0xc>
    c968:	48 89 c1             	mov    %rax,%rcx
    c96b:	8b 45 fc             	mov    -0x4(%rbp),%eax
    c96e:	89 c2                	mov    %eax,%edx
    c970:	48 8d 35 e8 1a 00 00 	lea    0x1ae8(%rip),%rsi        # e45f <g_1185+0x317>
    c977:	48 89 cf             	mov    %rcx,%rdi
    c97a:	e8 74 7d ff ff       	callq  46f3 <transparent_crc>
    c97f:	b8 06 00 00 00       	mov    $0x6,%eax
    c984:	48 0f be c0          	movsbq %al,%rax
    c988:	8b 55 fc             	mov    -0x4(%rbp),%edx
    c98b:	48 8d 35 d6 1a 00 00 	lea    0x1ad6(%rip),%rsi        # e468 <g_1185+0x320>
    c992:	48 89 c7             	mov    %rax,%rdi
    c995:	e8 59 7d ff ff       	callq  46f3 <transparent_crc>
    c99a:	48 8b 05 c3 16 00 00 	mov    0x16c3(%rip),%rax        # e064 <g_754+0x4>
    c9a1:	48 89 c1             	mov    %rax,%rcx
    c9a4:	8b 45 fc             	mov    -0x4(%rbp),%eax
    c9a7:	89 c2                	mov    %eax,%edx
    c9a9:	48 8d 35 c1 1a 00 00 	lea    0x1ac1(%rip),%rsi        # e471 <g_1185+0x329>
    c9b0:	48 89 cf             	mov    %rcx,%rdi
    c9b3:	e8 3b 7d ff ff       	callq  46f3 <transparent_crc>
    c9b8:	48 b8 51 51 58 6d d5 	movabs $0xcc8f09d56d585151,%rax
    c9bf:	09 8f cc 
    c9c2:	48 89 c1             	mov    %rax,%rcx
    c9c5:	8b 45 fc             	mov    -0x4(%rbp),%eax
    c9c8:	89 c2                	mov    %eax,%edx
    c9ca:	48 8d 35 a9 1a 00 00 	lea    0x1aa9(%rip),%rsi        # e47a <g_1185+0x332>
    c9d1:	48 89 cf             	mov    %rcx,%rdi
    c9d4:	e8 1a 7d ff ff       	callq  46f3 <transparent_crc>
    c9d9:	c7 45 f0 00 00 00 00 	movl   $0x0,-0x10(%rbp)
    c9e0:	e9 d0 00 00 00       	jmpq   cab5 <main+0xa10>
    c9e5:	8b 45 f0             	mov    -0x10(%rbp),%eax
    c9e8:	48 63 d0             	movslq %eax,%rdx
    c9eb:	48 89 d0             	mov    %rdx,%rax
    c9ee:	48 c1 e0 02          	shl    $0x2,%rax
    c9f2:	48 01 d0             	add    %rdx,%rax
    c9f5:	48 c1 e0 02          	shl    $0x2,%rax
    c9f9:	48 89 c2             	mov    %rax,%rdx
    c9fc:	48 8d 05 fd 48 00 00 	lea    0x48fd(%rip),%rax        # 11300 <g_755>
    ca03:	0f b6 04 02          	movzbl (%rdx,%rax,1),%eax
    ca07:	01 c0                	add    %eax,%eax
    ca09:	d0 f8                	sar    %al
    ca0b:	48 0f be c0          	movsbq %al,%rax
    ca0f:	8b 55 fc             	mov    -0x4(%rbp),%edx
    ca12:	48 8d 35 6a 1a 00 00 	lea    0x1a6a(%rip),%rsi        # e483 <g_1185+0x33b>
    ca19:	48 89 c7             	mov    %rax,%rdi
    ca1c:	e8 d2 7c ff ff       	callq  46f3 <transparent_crc>
    ca21:	8b 45 f0             	mov    -0x10(%rbp),%eax
    ca24:	48 63 d0             	movslq %eax,%rdx
    ca27:	48 89 d0             	mov    %rdx,%rax
    ca2a:	48 c1 e0 02          	shl    $0x2,%rax
    ca2e:	48 01 d0             	add    %rdx,%rax
    ca31:	48 c1 e0 02          	shl    $0x2,%rax
    ca35:	48 89 c2             	mov    %rax,%rdx
    ca38:	48 8d 05 c1 48 00 00 	lea    0x48c1(%rip),%rax        # 11300 <g_755>
    ca3f:	48 8b 44 02 04       	mov    0x4(%rdx,%rax,1),%rax
    ca44:	48 89 c1             	mov    %rax,%rcx
    ca47:	8b 45 fc             	mov    -0x4(%rbp),%eax
    ca4a:	89 c2                	mov    %eax,%edx
    ca4c:	48 8d 35 3c 1a 00 00 	lea    0x1a3c(%rip),%rsi        # e48f <g_1185+0x347>
    ca53:	48 89 cf             	mov    %rcx,%rdi
    ca56:	e8 98 7c ff ff       	callq  46f3 <transparent_crc>
    ca5b:	8b 45 f0             	mov    -0x10(%rbp),%eax
    ca5e:	48 63 d0             	movslq %eax,%rdx
    ca61:	48 89 d0             	mov    %rdx,%rax
    ca64:	48 c1 e0 02          	shl    $0x2,%rax
    ca68:	48 01 d0             	add    %rdx,%rax
    ca6b:	48 c1 e0 02          	shl    $0x2,%rax
    ca6f:	48 89 c2             	mov    %rax,%rdx
    ca72:	48 8d 05 87 48 00 00 	lea    0x4887(%rip),%rax        # 11300 <g_755>
    ca79:	48 8b 44 02 0c       	mov    0xc(%rdx,%rax,1),%rax
    ca7e:	48 89 c1             	mov    %rax,%rcx
    ca81:	8b 45 fc             	mov    -0x4(%rbp),%eax
    ca84:	89 c2                	mov    %eax,%edx
    ca86:	48 8d 35 0e 1a 00 00 	lea    0x1a0e(%rip),%rsi        # e49b <g_1185+0x353>
    ca8d:	48 89 cf             	mov    %rcx,%rdi
    ca90:	e8 5e 7c ff ff       	callq  46f3 <transparent_crc>
    ca95:	83 7d fc 00          	cmpl   $0x0,-0x4(%rbp)
    ca99:	74 16                	je     cab1 <main+0xa0c>
    ca9b:	8b 45 f0             	mov    -0x10(%rbp),%eax
    ca9e:	89 c6                	mov    %eax,%esi
    caa0:	48 8d 3d 00 1a 00 00 	lea    0x1a00(%rip),%rdi        # e4a7 <g_1185+0x35f>
    caa7:	b8 00 00 00 00       	mov    $0x0,%eax
    caac:	e8 cf 65 ff ff       	callq  3080 <printf@plt>
    cab1:	83 45 f0 01          	addl   $0x1,-0x10(%rbp)
    cab5:	83 7d f0 05          	cmpl   $0x5,-0x10(%rbp)
    cab9:	0f 8e 26 ff ff ff    	jle    c9e5 <main+0x940>
    cabf:	0f b6 05 ba 48 00 00 	movzbl 0x48ba(%rip),%eax        # 11380 <g_771>
    cac6:	01 c0                	add    %eax,%eax
    cac8:	d0 f8                	sar    %al
    caca:	48 0f be c0          	movsbq %al,%rax
    cace:	8b 55 fc             	mov    -0x4(%rbp),%edx
    cad1:	48 8d 35 dd 19 00 00 	lea    0x19dd(%rip),%rsi        # e4b5 <g_1185+0x36d>
    cad8:	48 89 c7             	mov    %rax,%rdi
    cadb:	e8 13 7c ff ff       	callq  46f3 <transparent_crc>
    cae0:	48 8b 05 9d 48 00 00 	mov    0x489d(%rip),%rax        # 11384 <g_771+0x4>
    cae7:	48 89 c1             	mov    %rax,%rcx
    caea:	8b 45 fc             	mov    -0x4(%rbp),%eax
    caed:	89 c2                	mov    %eax,%edx
    caef:	48 8d 35 c8 19 00 00 	lea    0x19c8(%rip),%rsi        # e4be <g_1185+0x376>
    caf6:	48 89 cf             	mov    %rcx,%rdi
    caf9:	e8 f5 7b ff ff       	callq  46f3 <transparent_crc>
    cafe:	48 8b 05 87 48 00 00 	mov    0x4887(%rip),%rax        # 1138c <g_771+0xc>
    cb05:	48 89 c1             	mov    %rax,%rcx
    cb08:	8b 45 fc             	mov    -0x4(%rbp),%eax
    cb0b:	89 c2                	mov    %eax,%edx
    cb0d:	48 8d 35 b3 19 00 00 	lea    0x19b3(%rip),%rsi        # e4c7 <g_1185+0x37f>
    cb14:	48 89 cf             	mov    %rcx,%rdi
    cb17:	e8 d7 7b ff ff       	callq  46f3 <transparent_crc>
    cb1c:	48 8b 05 75 48 00 00 	mov    0x4875(%rip),%rax        # 11398 <g_850>
    cb23:	8b 55 fc             	mov    -0x4(%rbp),%edx
    cb26:	48 8d 35 a3 19 00 00 	lea    0x19a3(%rip),%rsi        # e4d0 <g_1185+0x388>
    cb2d:	48 89 c7             	mov    %rax,%rdi
    cb30:	e8 be 7b ff ff       	callq  46f3 <transparent_crc>
    cb35:	c7 45 f0 00 00 00 00 	movl   $0x0,-0x10(%rbp)
    cb3c:	e9 be 00 00 00       	jmpq   cbff <main+0xb5a>
    cb41:	c7 45 f4 00 00 00 00 	movl   $0x0,-0xc(%rbp)
    cb48:	e9 a4 00 00 00       	jmpq   cbf1 <main+0xb4c>
    cb4d:	c7 45 f8 00 00 00 00 	movl   $0x0,-0x8(%rbp)
    cb54:	e9 8a 00 00 00       	jmpq   cbe3 <main+0xb3e>
    cb59:	8b 45 f8             	mov    -0x8(%rbp),%eax
    cb5c:	48 63 f0             	movslq %eax,%rsi
    cb5f:	8b 45 f0             	mov    -0x10(%rbp),%eax
    cb62:	48 98                	cltq   
    cb64:	8b 55 f4             	mov    -0xc(%rbp),%edx
    cb67:	48 63 ca             	movslq %edx,%rcx
    cb6a:	48 89 c2             	mov    %rax,%rdx
    cb6d:	48 01 d2             	add    %rdx,%rdx
    cb70:	48 01 c2             	add    %rax,%rdx
    cb73:	48 8d 04 d5 00 00 00 	lea    0x0(,%rdx,8),%rax
    cb7a:	00 
    cb7b:	48 89 c2             	mov    %rax,%rdx
    cb7e:	48 89 c8             	mov    %rcx,%rax
    cb81:	48 01 c0             	add    %rax,%rax
    cb84:	48 01 c8             	add    %rcx,%rax
    cb87:	48 01 c0             	add    %rax,%rax
    cb8a:	48 01 d0             	add    %rdx,%rax
    cb8d:	48 01 f0             	add    %rsi,%rax
    cb90:	48 8d 14 85 00 00 00 	lea    0x0(,%rax,4),%rdx
    cb97:	00 
    cb98:	48 8d 05 01 48 00 00 	lea    0x4801(%rip),%rax        # 113a0 <g_878>
    cb9f:	8b 04 02             	mov    (%rdx,%rax,1),%eax
    cba2:	25 ff ff ff 03       	and    $0x3ffffff,%eax
    cba7:	89 c1                	mov    %eax,%ecx
    cba9:	8b 45 fc             	mov    -0x4(%rbp),%eax
    cbac:	89 c2                	mov    %eax,%edx
    cbae:	48 8d 35 21 19 00 00 	lea    0x1921(%rip),%rsi        # e4d6 <g_1185+0x38e>
    cbb5:	48 89 cf             	mov    %rcx,%rdi
    cbb8:	e8 36 7b ff ff       	callq  46f3 <transparent_crc>
    cbbd:	83 7d fc 00          	cmpl   $0x0,-0x4(%rbp)
    cbc1:	74 1c                	je     cbdf <main+0xb3a>
    cbc3:	8b 4d f8             	mov    -0x8(%rbp),%ecx
    cbc6:	8b 55 f4             	mov    -0xc(%rbp),%edx
    cbc9:	8b 45 f0             	mov    -0x10(%rbp),%eax
    cbcc:	89 c6                	mov    %eax,%esi
    cbce:	48 8d 3d 0e 18 00 00 	lea    0x180e(%rip),%rdi        # e3e3 <g_1185+0x29b>
    cbd5:	b8 00 00 00 00       	mov    $0x0,%eax
    cbda:	e8 a1 64 ff ff       	callq  3080 <printf@plt>
    cbdf:	83 45 f8 01          	addl   $0x1,-0x8(%rbp)
    cbe3:	83 7d f8 05          	cmpl   $0x5,-0x8(%rbp)
    cbe7:	0f 8e 6c ff ff ff    	jle    cb59 <main+0xab4>
    cbed:	83 45 f4 01          	addl   $0x1,-0xc(%rbp)
    cbf1:	83 7d f4 03          	cmpl   $0x3,-0xc(%rbp)
    cbf5:	0f 8e 52 ff ff ff    	jle    cb4d <main+0xaa8>
    cbfb:	83 45 f0 01          	addl   $0x1,-0x10(%rbp)
    cbff:	83 7d f0 05          	cmpl   $0x5,-0x10(%rbp)
    cc03:	0f 8e 38 ff ff ff    	jle    cb41 <main+0xa9c>
    cc09:	48 8b 05 d0 49 00 00 	mov    0x49d0(%rip),%rax        # 115e0 <g_885>
    cc10:	48 89 c1             	mov    %rax,%rcx
    cc13:	8b 45 fc             	mov    -0x4(%rbp),%eax
    cc16:	89 c2                	mov    %eax,%edx
    cc18:	48 8d 35 c9 18 00 00 	lea    0x18c9(%rip),%rsi        # e4e8 <g_1185+0x3a0>
    cc1f:	48 89 cf             	mov    %rcx,%rdi
    cc22:	e8 cc 7a ff ff       	callq  46f3 <transparent_crc>
    cc27:	8b 05 bb 49 00 00    	mov    0x49bb(%rip),%eax        # 115e8 <g_935>
    cc2d:	48 98                	cltq   
    cc2f:	8b 55 fc             	mov    -0x4(%rbp),%edx
    cc32:	48 8d 35 b5 18 00 00 	lea    0x18b5(%rip),%rsi        # e4ee <g_1185+0x3a6>
    cc39:	48 89 c7             	mov    %rax,%rdi
    cc3c:	e8 b2 7a ff ff       	callq  46f3 <transparent_crc>
    cc41:	0f b6 05 a8 49 00 00 	movzbl 0x49a8(%rip),%eax        # 115f0 <g_943>
    cc48:	01 c0                	add    %eax,%eax
    cc4a:	d0 f8                	sar    %al
    cc4c:	48 0f be c0          	movsbq %al,%rax
    cc50:	8b 55 fc             	mov    -0x4(%rbp),%edx
    cc53:	48 8d 35 9a 18 00 00 	lea    0x189a(%rip),%rsi        # e4f4 <g_1185+0x3ac>
    cc5a:	48 89 c7             	mov    %rax,%rdi
    cc5d:	e8 91 7a ff ff       	callq  46f3 <transparent_crc>
    cc62:	48 8b 05 8b 49 00 00 	mov    0x498b(%rip),%rax        # 115f4 <g_943+0x4>
    cc69:	48 89 c1             	mov    %rax,%rcx
    cc6c:	8b 45 fc             	mov    -0x4(%rbp),%eax
    cc6f:	89 c2                	mov    %eax,%edx
    cc71:	48 8d 35 85 18 00 00 	lea    0x1885(%rip),%rsi        # e4fd <g_1185+0x3b5>
    cc78:	48 89 cf             	mov    %rcx,%rdi
    cc7b:	e8 73 7a ff ff       	callq  46f3 <transparent_crc>
    cc80:	48 8b 05 75 49 00 00 	mov    0x4975(%rip),%rax        # 115fc <g_943+0xc>
    cc87:	48 89 c1             	mov    %rax,%rcx
    cc8a:	8b 45 fc             	mov    -0x4(%rbp),%eax
    cc8d:	89 c2                	mov    %eax,%edx
    cc8f:	48 8d 35 70 18 00 00 	lea    0x1870(%rip),%rsi        # e506 <g_1185+0x3be>
    cc96:	48 89 cf             	mov    %rcx,%rdi
    cc99:	e8 55 7a ff ff       	callq  46f3 <transparent_crc>
    cc9e:	0f b6 05 6b 49 00 00 	movzbl 0x496b(%rip),%eax        # 11610 <g_951>
    cca5:	01 c0                	add    %eax,%eax
    cca7:	d0 f8                	sar    %al
    cca9:	48 0f be c0          	movsbq %al,%rax
    ccad:	8b 55 fc             	mov    -0x4(%rbp),%edx
    ccb0:	48 8d 35 58 18 00 00 	lea    0x1858(%rip),%rsi        # e50f <g_1185+0x3c7>
    ccb7:	48 89 c7             	mov    %rax,%rdi
    ccba:	e8 34 7a ff ff       	callq  46f3 <transparent_crc>
    ccbf:	48 8b 05 4e 49 00 00 	mov    0x494e(%rip),%rax        # 11614 <g_951+0x4>
    ccc6:	48 89 c1             	mov    %rax,%rcx
    ccc9:	8b 45 fc             	mov    -0x4(%rbp),%eax
    cccc:	89 c2                	mov    %eax,%edx
    ccce:	48 8d 35 43 18 00 00 	lea    0x1843(%rip),%rsi        # e518 <g_1185+0x3d0>
    ccd5:	48 89 cf             	mov    %rcx,%rdi
    ccd8:	e8 16 7a ff ff       	callq  46f3 <transparent_crc>
    ccdd:	48 8b 05 38 49 00 00 	mov    0x4938(%rip),%rax        # 1161c <g_951+0xc>
    cce4:	48 89 c1             	mov    %rax,%rcx
    cce7:	8b 45 fc             	mov    -0x4(%rbp),%eax
    ccea:	89 c2                	mov    %eax,%edx
    ccec:	48 8d 35 2e 18 00 00 	lea    0x182e(%rip),%rsi        # e521 <g_1185+0x3d9>
    ccf3:	48 89 cf             	mov    %rcx,%rdi
    ccf6:	e8 f8 79 ff ff       	callq  46f3 <transparent_crc>
    ccfb:	b8 f7 ff ff ff       	mov    $0xfffffff7,%eax
    cd00:	89 c1                	mov    %eax,%ecx
    cd02:	8b 45 fc             	mov    -0x4(%rbp),%eax
    cd05:	89 c2                	mov    %eax,%edx
    cd07:	48 8d 35 1c 18 00 00 	lea    0x181c(%rip),%rsi        # e52a <g_1185+0x3e2>
    cd0e:	48 89 cf             	mov    %rcx,%rdi
    cd11:	e8 dd 79 ff ff       	callq  46f3 <transparent_crc>
    cd16:	0f b6 05 13 49 00 00 	movzbl 0x4913(%rip),%eax        # 11630 <g_1006>
    cd1d:	01 c0                	add    %eax,%eax
    cd1f:	d0 f8                	sar    %al
    cd21:	48 0f be c0          	movsbq %al,%rax
    cd25:	8b 55 fc             	mov    -0x4(%rbp),%edx
    cd28:	48 8d 35 01 18 00 00 	lea    0x1801(%rip),%rsi        # e530 <g_1185+0x3e8>
    cd2f:	48 89 c7             	mov    %rax,%rdi
    cd32:	e8 bc 79 ff ff       	callq  46f3 <transparent_crc>
    cd37:	48 8b 05 f6 48 00 00 	mov    0x48f6(%rip),%rax        # 11634 <g_1006+0x4>
    cd3e:	48 89 c1             	mov    %rax,%rcx
    cd41:	8b 45 fc             	mov    -0x4(%rbp),%eax
    cd44:	89 c2                	mov    %eax,%edx
    cd46:	48 8d 35 ed 17 00 00 	lea    0x17ed(%rip),%rsi        # e53a <g_1185+0x3f2>
    cd4d:	48 89 cf             	mov    %rcx,%rdi
    cd50:	e8 9e 79 ff ff       	callq  46f3 <transparent_crc>
    cd55:	48 8b 05 e0 48 00 00 	mov    0x48e0(%rip),%rax        # 1163c <g_1006+0xc>
    cd5c:	48 89 c1             	mov    %rax,%rcx
    cd5f:	8b 45 fc             	mov    -0x4(%rbp),%eax
    cd62:	89 c2                	mov    %eax,%edx
    cd64:	48 8d 35 d9 17 00 00 	lea    0x17d9(%rip),%rsi        # e544 <g_1185+0x3fc>
    cd6b:	48 89 cf             	mov    %rcx,%rdi
    cd6e:	e8 80 79 ff ff       	callq  46f3 <transparent_crc>
    cd73:	8b 05 cb 48 00 00    	mov    0x48cb(%rip),%eax        # 11644 <g_1022>
    cd79:	89 c1                	mov    %eax,%ecx
    cd7b:	8b 45 fc             	mov    -0x4(%rbp),%eax
    cd7e:	89 c2                	mov    %eax,%edx
    cd80:	48 8d 35 c7 17 00 00 	lea    0x17c7(%rip),%rsi        # e54e <g_1185+0x406>
    cd87:	48 89 cf             	mov    %rcx,%rdi
    cd8a:	e8 64 79 ff ff       	callq  46f3 <transparent_crc>
    cd8f:	0f b6 05 ba 48 00 00 	movzbl 0x48ba(%rip),%eax        # 11650 <g_1055>
    cd96:	01 c0                	add    %eax,%eax
    cd98:	d0 f8                	sar    %al
    cd9a:	48 0f be c0          	movsbq %al,%rax
    cd9e:	8b 55 fc             	mov    -0x4(%rbp),%edx
    cda1:	48 8d 35 ad 17 00 00 	lea    0x17ad(%rip),%rsi        # e555 <g_1185+0x40d>
    cda8:	48 89 c7             	mov    %rax,%rdi
    cdab:	e8 43 79 ff ff       	callq  46f3 <transparent_crc>
    cdb0:	48 8b 05 9d 48 00 00 	mov    0x489d(%rip),%rax        # 11654 <g_1055+0x4>
    cdb7:	48 89 c1             	mov    %rax,%rcx
    cdba:	8b 45 fc             	mov    -0x4(%rbp),%eax
    cdbd:	89 c2                	mov    %eax,%edx
    cdbf:	48 8d 35 99 17 00 00 	lea    0x1799(%rip),%rsi        # e55f <g_1185+0x417>
    cdc6:	48 89 cf             	mov    %rcx,%rdi
    cdc9:	e8 25 79 ff ff       	callq  46f3 <transparent_crc>
    cdce:	48 8b 05 87 48 00 00 	mov    0x4887(%rip),%rax        # 1165c <g_1055+0xc>
    cdd5:	48 89 c1             	mov    %rax,%rcx
    cdd8:	8b 45 fc             	mov    -0x4(%rbp),%eax
    cddb:	89 c2                	mov    %eax,%edx
    cddd:	48 8d 35 85 17 00 00 	lea    0x1785(%rip),%rsi        # e569 <g_1185+0x421>
    cde4:	48 89 cf             	mov    %rcx,%rdi
    cde7:	e8 07 79 ff ff       	callq  46f3 <transparent_crc>
    cdec:	c7 45 f0 00 00 00 00 	movl   $0x0,-0x10(%rbp)
    cdf3:	e9 d0 00 00 00       	jmpq   cec8 <main+0xe23>
    cdf8:	8b 45 f0             	mov    -0x10(%rbp),%eax
    cdfb:	48 63 d0             	movslq %eax,%rdx
    cdfe:	48 89 d0             	mov    %rdx,%rax
    ce01:	48 c1 e0 02          	shl    $0x2,%rax
    ce05:	48 01 d0             	add    %rdx,%rax
    ce08:	48 c1 e0 02          	shl    $0x2,%rax
    ce0c:	48 89 c2             	mov    %rax,%rdx
    ce0f:	48 8d 05 6a 12 00 00 	lea    0x126a(%rip),%rax        # e080 <g_1068>
    ce16:	0f b6 04 02          	movzbl (%rdx,%rax,1),%eax
    ce1a:	01 c0                	add    %eax,%eax
    ce1c:	d0 f8                	sar    %al
    ce1e:	48 0f be c0          	movsbq %al,%rax
    ce22:	8b 55 fc             	mov    -0x4(%rbp),%edx
    ce25:	48 8d 35 47 17 00 00 	lea    0x1747(%rip),%rsi        # e573 <g_1185+0x42b>
    ce2c:	48 89 c7             	mov    %rax,%rdi
    ce2f:	e8 bf 78 ff ff       	callq  46f3 <transparent_crc>
    ce34:	8b 45 f0             	mov    -0x10(%rbp),%eax
    ce37:	48 63 d0             	movslq %eax,%rdx
    ce3a:	48 89 d0             	mov    %rdx,%rax
    ce3d:	48 c1 e0 02          	shl    $0x2,%rax
    ce41:	48 01 d0             	add    %rdx,%rax
    ce44:	48 c1 e0 02          	shl    $0x2,%rax
    ce48:	48 89 c2             	mov    %rax,%rdx
    ce4b:	48 8d 05 2e 12 00 00 	lea    0x122e(%rip),%rax        # e080 <g_1068>
    ce52:	48 8b 44 02 04       	mov    0x4(%rdx,%rax,1),%rax
    ce57:	48 89 c1             	mov    %rax,%rcx
    ce5a:	8b 45 fc             	mov    -0x4(%rbp),%eax
    ce5d:	89 c2                	mov    %eax,%edx
    ce5f:	48 8d 35 1a 17 00 00 	lea    0x171a(%rip),%rsi        # e580 <g_1185+0x438>
    ce66:	48 89 cf             	mov    %rcx,%rdi
    ce69:	e8 85 78 ff ff       	callq  46f3 <transparent_crc>
    ce6e:	8b 45 f0             	mov    -0x10(%rbp),%eax
    ce71:	48 63 d0             	movslq %eax,%rdx
    ce74:	48 89 d0             	mov    %rdx,%rax
    ce77:	48 c1 e0 02          	shl    $0x2,%rax
    ce7b:	48 01 d0             	add    %rdx,%rax
    ce7e:	48 c1 e0 02          	shl    $0x2,%rax
    ce82:	48 89 c2             	mov    %rax,%rdx
    ce85:	48 8d 05 f4 11 00 00 	lea    0x11f4(%rip),%rax        # e080 <g_1068>
    ce8c:	48 8b 44 02 0c       	mov    0xc(%rdx,%rax,1),%rax
    ce91:	48 89 c1             	mov    %rax,%rcx
    ce94:	8b 45 fc             	mov    -0x4(%rbp),%eax
    ce97:	89 c2                	mov    %eax,%edx
    ce99:	48 8d 35 ed 16 00 00 	lea    0x16ed(%rip),%rsi        # e58d <g_1185+0x445>
    cea0:	48 89 cf             	mov    %rcx,%rdi
    cea3:	e8 4b 78 ff ff       	callq  46f3 <transparent_crc>
    cea8:	83 7d fc 00          	cmpl   $0x0,-0x4(%rbp)
    ceac:	74 16                	je     cec4 <main+0xe1f>
    ceae:	8b 45 f0             	mov    -0x10(%rbp),%eax
    ceb1:	89 c6                	mov    %eax,%esi
    ceb3:	48 8d 3d ed 15 00 00 	lea    0x15ed(%rip),%rdi        # e4a7 <g_1185+0x35f>
    ceba:	b8 00 00 00 00       	mov    $0x0,%eax
    cebf:	e8 bc 61 ff ff       	callq  3080 <printf@plt>
    cec4:	83 45 f0 01          	addl   $0x1,-0x10(%rbp)
    cec8:	83 7d f0 09          	cmpl   $0x9,-0x10(%rbp)
    cecc:	0f 8e 26 ff ff ff    	jle    cdf8 <main+0xd53>
    ced2:	0f b6 05 97 47 00 00 	movzbl 0x4797(%rip),%eax        # 11670 <g_1077>
    ced9:	01 c0                	add    %eax,%eax
    cedb:	d0 f8                	sar    %al
    cedd:	48 0f be c0          	movsbq %al,%rax
    cee1:	8b 55 fc             	mov    -0x4(%rbp),%edx
    cee4:	48 8d 35 af 16 00 00 	lea    0x16af(%rip),%rsi        # e59a <g_1185+0x452>
    ceeb:	48 89 c7             	mov    %rax,%rdi
    ceee:	e8 00 78 ff ff       	callq  46f3 <transparent_crc>
    cef3:	48 8b 05 7a 47 00 00 	mov    0x477a(%rip),%rax        # 11674 <g_1077+0x4>
    cefa:	48 89 c1             	mov    %rax,%rcx
    cefd:	8b 45 fc             	mov    -0x4(%rbp),%eax
    cf00:	89 c2                	mov    %eax,%edx
    cf02:	48 8d 35 9b 16 00 00 	lea    0x169b(%rip),%rsi        # e5a4 <g_1185+0x45c>
    cf09:	48 89 cf             	mov    %rcx,%rdi
    cf0c:	e8 e2 77 ff ff       	callq  46f3 <transparent_crc>
    cf11:	48 8b 05 64 47 00 00 	mov    0x4764(%rip),%rax        # 1167c <g_1077+0xc>
    cf18:	48 89 c1             	mov    %rax,%rcx
    cf1b:	8b 45 fc             	mov    -0x4(%rbp),%eax
    cf1e:	89 c2                	mov    %eax,%edx
    cf20:	48 8d 35 87 16 00 00 	lea    0x1687(%rip),%rsi        # e5ae <g_1185+0x466>
    cf27:	48 89 cf             	mov    %rcx,%rdi
    cf2a:	e8 c4 77 ff ff       	callq  46f3 <transparent_crc>
    cf2f:	0f b6 05 5a 47 00 00 	movzbl 0x475a(%rip),%eax        # 11690 <g_1151>
    cf36:	01 c0                	add    %eax,%eax
    cf38:	d0 f8                	sar    %al
    cf3a:	48 0f be c0          	movsbq %al,%rax
    cf3e:	8b 55 fc             	mov    -0x4(%rbp),%edx
    cf41:	48 8d 35 70 16 00 00 	lea    0x1670(%rip),%rsi        # e5b8 <g_1185+0x470>
    cf48:	48 89 c7             	mov    %rax,%rdi
    cf4b:	e8 a3 77 ff ff       	callq  46f3 <transparent_crc>
    cf50:	48 8b 05 3d 47 00 00 	mov    0x473d(%rip),%rax        # 11694 <g_1151+0x4>
    cf57:	48 89 c1             	mov    %rax,%rcx
    cf5a:	8b 45 fc             	mov    -0x4(%rbp),%eax
    cf5d:	89 c2                	mov    %eax,%edx
    cf5f:	48 8d 35 5c 16 00 00 	lea    0x165c(%rip),%rsi        # e5c2 <g_1185+0x47a>
    cf66:	48 89 cf             	mov    %rcx,%rdi
    cf69:	e8 85 77 ff ff       	callq  46f3 <transparent_crc>
    cf6e:	48 8b 05 27 47 00 00 	mov    0x4727(%rip),%rax        # 1169c <g_1151+0xc>
    cf75:	48 89 c1             	mov    %rax,%rcx
    cf78:	8b 45 fc             	mov    -0x4(%rbp),%eax
    cf7b:	89 c2                	mov    %eax,%edx
    cf7d:	48 8d 35 48 16 00 00 	lea    0x1648(%rip),%rsi        # e5cc <g_1185+0x484>
    cf84:	48 89 cf             	mov    %rcx,%rdi
    cf87:	e8 67 77 ff ff       	callq  46f3 <transparent_crc>
    cf8c:	8b 05 12 47 00 00    	mov    0x4712(%rip),%eax        # 116a4 <g_1161>
    cf92:	89 c1                	mov    %eax,%ecx
    cf94:	8b 45 fc             	mov    -0x4(%rbp),%eax
    cf97:	89 c2                	mov    %eax,%edx
    cf99:	48 8d 35 36 16 00 00 	lea    0x1636(%rip),%rsi        # e5d6 <g_1185+0x48e>
    cfa0:	48 89 cf             	mov    %rcx,%rdi
    cfa3:	e8 4b 77 ff ff       	callq  46f3 <transparent_crc>
    cfa8:	b8 19 bd 08 c9       	mov    $0xc908bd19,%eax
    cfad:	48 98                	cltq   
    cfaf:	8b 55 fc             	mov    -0x4(%rbp),%edx
    cfb2:	48 8d 35 24 16 00 00 	lea    0x1624(%rip),%rsi        # e5dd <g_1185+0x495>
    cfb9:	48 89 c7             	mov    %rax,%rdi
    cfbc:	e8 32 77 ff ff       	callq  46f3 <transparent_crc>
    cfc1:	c7 45 f0 00 00 00 00 	movl   $0x0,-0x10(%rbp)
    cfc8:	e9 8e 01 00 00       	jmpq   d15b <main+0x10b6>
    cfcd:	c7 45 f4 00 00 00 00 	movl   $0x0,-0xc(%rbp)
    cfd4:	e9 74 01 00 00       	jmpq   d14d <main+0x10a8>
    cfd9:	c7 45 f8 00 00 00 00 	movl   $0x0,-0x8(%rbp)
    cfe0:	e9 5a 01 00 00       	jmpq   d13f <main+0x109a>
    cfe5:	8b 45 f8             	mov    -0x8(%rbp),%eax
    cfe8:	48 98                	cltq   
    cfea:	8b 55 f4             	mov    -0xc(%rbp),%edx
    cfed:	48 63 ca             	movslq %edx,%rcx
    cff0:	8b 55 f0             	mov    -0x10(%rbp),%edx
    cff3:	48 63 f2             	movslq %edx,%rsi
    cff6:	48 89 c2             	mov    %rax,%rdx
    cff9:	48 c1 e2 02          	shl    $0x2,%rdx
    cffd:	48 01 c2             	add    %rax,%rdx
    d000:	48 8d 04 95 00 00 00 	lea    0x0(,%rdx,4),%rax
    d007:	00 
    d008:	48 89 c2             	mov    %rax,%rdx
    d00b:	48 89 c8             	mov    %rcx,%rax
    d00e:	48 c1 e0 02          	shl    $0x2,%rax
    d012:	48 01 c8             	add    %rcx,%rax
    d015:	48 c1 e0 03          	shl    $0x3,%rax
    d019:	48 01 c2             	add    %rax,%rdx
    d01c:	48 69 c6 68 01 00 00 	imul   $0x168,%rsi,%rax
    d023:	48 01 c2             	add    %rax,%rdx
    d026:	48 8d 05 93 46 00 00 	lea    0x4693(%rip),%rax        # 116c0 <g_1196>
    d02d:	48 01 d0             	add    %rdx,%rax
    d030:	0f b6 00             	movzbl (%rax),%eax
    d033:	01 c0                	add    %eax,%eax
    d035:	d0 f8                	sar    %al
    d037:	48 0f be c0          	movsbq %al,%rax
    d03b:	8b 55 fc             	mov    -0x4(%rbp),%edx
    d03e:	48 8d 35 9f 15 00 00 	lea    0x159f(%rip),%rsi        # e5e4 <g_1185+0x49c>
    d045:	48 89 c7             	mov    %rax,%rdi
    d048:	e8 a6 76 ff ff       	callq  46f3 <transparent_crc>
    d04d:	8b 45 f8             	mov    -0x8(%rbp),%eax
    d050:	48 98                	cltq   
    d052:	8b 55 f4             	mov    -0xc(%rbp),%edx
    d055:	48 63 ca             	movslq %edx,%rcx
    d058:	8b 55 f0             	mov    -0x10(%rbp),%edx
    d05b:	48 63 f2             	movslq %edx,%rsi
    d05e:	48 89 c2             	mov    %rax,%rdx
    d061:	48 c1 e2 02          	shl    $0x2,%rdx
    d065:	48 01 c2             	add    %rax,%rdx
    d068:	48 8d 04 95 00 00 00 	lea    0x0(,%rdx,4),%rax
    d06f:	00 
    d070:	48 89 c2             	mov    %rax,%rdx
    d073:	48 89 c8             	mov    %rcx,%rax
    d076:	48 c1 e0 02          	shl    $0x2,%rax
    d07a:	48 01 c8             	add    %rcx,%rax
    d07d:	48 c1 e0 03          	shl    $0x3,%rax
    d081:	48 01 c2             	add    %rax,%rdx
    d084:	48 69 c6 68 01 00 00 	imul   $0x168,%rsi,%rax
    d08b:	48 01 c2             	add    %rax,%rdx
    d08e:	48 8d 05 2b 46 00 00 	lea    0x462b(%rip),%rax        # 116c0 <g_1196>
    d095:	48 01 d0             	add    %rdx,%rax
    d098:	48 8b 40 04          	mov    0x4(%rax),%rax
    d09c:	48 89 c1             	mov    %rax,%rcx
    d09f:	8b 45 fc             	mov    -0x4(%rbp),%eax
    d0a2:	89 c2                	mov    %eax,%edx
    d0a4:	48 8d 35 4c 15 00 00 	lea    0x154c(%rip),%rsi        # e5f7 <g_1185+0x4af>
    d0ab:	48 89 cf             	mov    %rcx,%rdi
    d0ae:	e8 40 76 ff ff       	callq  46f3 <transparent_crc>
    d0b3:	8b 45 f8             	mov    -0x8(%rbp),%eax
    d0b6:	48 98                	cltq   
    d0b8:	8b 55 f4             	mov    -0xc(%rbp),%edx
    d0bb:	48 63 ca             	movslq %edx,%rcx
    d0be:	8b 55 f0             	mov    -0x10(%rbp),%edx
    d0c1:	48 63 f2             	movslq %edx,%rsi
    d0c4:	48 89 c2             	mov    %rax,%rdx
    d0c7:	48 c1 e2 02          	shl    $0x2,%rdx
    d0cb:	48 01 c2             	add    %rax,%rdx
    d0ce:	48 8d 04 95 00 00 00 	lea    0x0(,%rdx,4),%rax
    d0d5:	00 
    d0d6:	48 89 c2             	mov    %rax,%rdx
    d0d9:	48 89 c8             	mov    %rcx,%rax
    d0dc:	48 c1 e0 02          	shl    $0x2,%rax
    d0e0:	48 01 c8             	add    %rcx,%rax
    d0e3:	48 c1 e0 03          	shl    $0x3,%rax
    d0e7:	48 01 c2             	add    %rax,%rdx
    d0ea:	48 69 c6 68 01 00 00 	imul   $0x168,%rsi,%rax
    d0f1:	48 01 c2             	add    %rax,%rdx
    d0f4:	48 8d 05 c5 45 00 00 	lea    0x45c5(%rip),%rax        # 116c0 <g_1196>
    d0fb:	48 01 d0             	add    %rdx,%rax
    d0fe:	48 8b 40 0c          	mov    0xc(%rax),%rax
    d102:	48 89 c1             	mov    %rax,%rcx
    d105:	8b 45 fc             	mov    -0x4(%rbp),%eax
    d108:	89 c2                	mov    %eax,%edx
    d10a:	48 8d 35 f9 14 00 00 	lea    0x14f9(%rip),%rsi        # e60a <g_1185+0x4c2>
    d111:	48 89 cf             	mov    %rcx,%rdi
    d114:	e8 da 75 ff ff       	callq  46f3 <transparent_crc>
    d119:	83 7d fc 00          	cmpl   $0x0,-0x4(%rbp)
    d11d:	74 1c                	je     d13b <main+0x1096>
    d11f:	8b 4d f8             	mov    -0x8(%rbp),%ecx
    d122:	8b 55 f4             	mov    -0xc(%rbp),%edx
    d125:	8b 45 f0             	mov    -0x10(%rbp),%eax
    d128:	89 c6                	mov    %eax,%esi
    d12a:	48 8d 3d b2 12 00 00 	lea    0x12b2(%rip),%rdi        # e3e3 <g_1185+0x29b>
    d131:	b8 00 00 00 00       	mov    $0x0,%eax
    d136:	e8 45 5f ff ff       	callq  3080 <printf@plt>
    d13b:	83 45 f8 01          	addl   $0x1,-0x8(%rbp)
    d13f:	83 7d f8 01          	cmpl   $0x1,-0x8(%rbp)
    d143:	0f 8e 9c fe ff ff    	jle    cfe5 <main+0xf40>
    d149:	83 45 f4 01          	addl   $0x1,-0xc(%rbp)
    d14d:	83 7d f4 08          	cmpl   $0x8,-0xc(%rbp)
    d151:	0f 8e 82 fe ff ff    	jle    cfd9 <main+0xf34>
    d157:	83 45 f0 01          	addl   $0x1,-0x10(%rbp)
    d15b:	83 7d f0 09          	cmpl   $0x9,-0x10(%rbp)
    d15f:	0f 8e 68 fe ff ff    	jle    cfcd <main+0xf28>
    d165:	c7 45 f0 00 00 00 00 	movl   $0x0,-0x10(%rbp)
    d16c:	e9 8d 01 00 00       	jmpq   d2fe <main+0x1259>
    d171:	c7 45 f4 00 00 00 00 	movl   $0x0,-0xc(%rbp)
    d178:	e9 73 01 00 00       	jmpq   d2f0 <main+0x124b>
    d17d:	c7 45 f8 00 00 00 00 	movl   $0x0,-0x8(%rbp)
    d184:	e9 59 01 00 00       	jmpq   d2e2 <main+0x123d>
    d189:	8b 45 f8             	mov    -0x8(%rbp),%eax
    d18c:	48 98                	cltq   
    d18e:	8b 55 f4             	mov    -0xc(%rbp),%edx
    d191:	48 63 ca             	movslq %edx,%rcx
    d194:	8b 55 f0             	mov    -0x10(%rbp),%edx
    d197:	48 63 f2             	movslq %edx,%rsi
    d19a:	48 89 c2             	mov    %rax,%rdx
    d19d:	48 c1 e2 02          	shl    $0x2,%rdx
    d1a1:	48 01 c2             	add    %rax,%rdx
    d1a4:	48 8d 04 95 00 00 00 	lea    0x0(,%rdx,4),%rax
    d1ab:	00 
    d1ac:	48 89 c2             	mov    %rax,%rdx
    d1af:	48 89 c8             	mov    %rcx,%rax
    d1b2:	48 c1 e0 02          	shl    $0x2,%rax
    d1b6:	48 01 c8             	add    %rcx,%rax
    d1b9:	48 c1 e0 05          	shl    $0x5,%rax
    d1bd:	48 01 c2             	add    %rax,%rdx
    d1c0:	48 69 c6 60 04 00 00 	imul   $0x460,%rsi,%rax
    d1c7:	48 01 c2             	add    %rax,%rdx
    d1ca:	48 8d 05 0f 53 00 00 	lea    0x530f(%rip),%rax        # 124e0 <g_1200>
    d1d1:	48 01 d0             	add    %rdx,%rax
    d1d4:	8b 00                	mov    (%rax),%eax
    d1d6:	01 c0                	add    %eax,%eax
    d1d8:	d0 f8                	sar    %al
    d1da:	48 0f be c0          	movsbq %al,%rax
    d1de:	8b 55 fc             	mov    -0x4(%rbp),%edx
    d1e1:	48 8d 35 35 14 00 00 	lea    0x1435(%rip),%rsi        # e61d <g_1185+0x4d5>
    d1e8:	48 89 c7             	mov    %rax,%rdi
    d1eb:	e8 03 75 ff ff       	callq  46f3 <transparent_crc>
    d1f0:	8b 45 f8             	mov    -0x8(%rbp),%eax
    d1f3:	48 98                	cltq   
    d1f5:	8b 55 f4             	mov    -0xc(%rbp),%edx
    d1f8:	48 63 ca             	movslq %edx,%rcx
    d1fb:	8b 55 f0             	mov    -0x10(%rbp),%edx
    d1fe:	48 63 f2             	movslq %edx,%rsi
    d201:	48 89 c2             	mov    %rax,%rdx
    d204:	48 c1 e2 02          	shl    $0x2,%rdx
    d208:	48 01 c2             	add    %rax,%rdx
    d20b:	48 8d 04 95 00 00 00 	lea    0x0(,%rdx,4),%rax
    d212:	00 
    d213:	48 89 c2             	mov    %rax,%rdx
    d216:	48 89 c8             	mov    %rcx,%rax
    d219:	48 c1 e0 02          	shl    $0x2,%rax
    d21d:	48 01 c8             	add    %rcx,%rax
    d220:	48 c1 e0 05          	shl    $0x5,%rax
    d224:	48 01 c2             	add    %rax,%rdx
    d227:	48 69 c6 60 04 00 00 	imul   $0x460,%rsi,%rax
    d22e:	48 01 c2             	add    %rax,%rdx
    d231:	48 8d 05 a8 52 00 00 	lea    0x52a8(%rip),%rax        # 124e0 <g_1200>
    d238:	48 01 d0             	add    %rdx,%rax
    d23b:	48 8b 40 04          	mov    0x4(%rax),%rax
    d23f:	48 89 c1             	mov    %rax,%rcx
    d242:	8b 45 fc             	mov    -0x4(%rbp),%eax
    d245:	89 c2                	mov    %eax,%edx
    d247:	48 8d 35 e2 13 00 00 	lea    0x13e2(%rip),%rsi        # e630 <g_1185+0x4e8>
    d24e:	48 89 cf             	mov    %rcx,%rdi
    d251:	e8 9d 74 ff ff       	callq  46f3 <transparent_crc>
    d256:	8b 45 f8             	mov    -0x8(%rbp),%eax
    d259:	48 98                	cltq   
    d25b:	8b 55 f4             	mov    -0xc(%rbp),%edx
    d25e:	48 63 ca             	movslq %edx,%rcx
    d261:	8b 55 f0             	mov    -0x10(%rbp),%edx
    d264:	48 63 f2             	movslq %edx,%rsi
    d267:	48 89 c2             	mov    %rax,%rdx
    d26a:	48 c1 e2 02          	shl    $0x2,%rdx
    d26e:	48 01 c2             	add    %rax,%rdx
    d271:	48 8d 04 95 00 00 00 	lea    0x0(,%rdx,4),%rax
    d278:	00 
    d279:	48 89 c2             	mov    %rax,%rdx
    d27c:	48 89 c8             	mov    %rcx,%rax
    d27f:	48 c1 e0 02          	shl    $0x2,%rax
    d283:	48 01 c8             	add    %rcx,%rax
    d286:	48 c1 e0 05          	shl    $0x5,%rax
    d28a:	48 01 c2             	add    %rax,%rdx
    d28d:	48 69 c6 60 04 00 00 	imul   $0x460,%rsi,%rax
    d294:	48 01 c2             	add    %rax,%rdx
    d297:	48 8d 05 42 52 00 00 	lea    0x5242(%rip),%rax        # 124e0 <g_1200>
    d29e:	48 01 d0             	add    %rdx,%rax
    d2a1:	48 8b 40 0c          	mov    0xc(%rax),%rax
    d2a5:	48 89 c1             	mov    %rax,%rcx
    d2a8:	8b 45 fc             	mov    -0x4(%rbp),%eax
    d2ab:	89 c2                	mov    %eax,%edx
    d2ad:	48 8d 35 8f 13 00 00 	lea    0x138f(%rip),%rsi        # e643 <g_1185+0x4fb>
    d2b4:	48 89 cf             	mov    %rcx,%rdi
    d2b7:	e8 37 74 ff ff       	callq  46f3 <transparent_crc>
    d2bc:	83 7d fc 00          	cmpl   $0x0,-0x4(%rbp)
    d2c0:	74 1c                	je     d2de <main+0x1239>
    d2c2:	8b 4d f8             	mov    -0x8(%rbp),%ecx
    d2c5:	8b 55 f4             	mov    -0xc(%rbp),%edx
    d2c8:	8b 45 f0             	mov    -0x10(%rbp),%eax
    d2cb:	89 c6                	mov    %eax,%esi
    d2cd:	48 8d 3d 0f 11 00 00 	lea    0x110f(%rip),%rdi        # e3e3 <g_1185+0x29b>
    d2d4:	b8 00 00 00 00       	mov    $0x0,%eax
    d2d9:	e8 a2 5d ff ff       	callq  3080 <printf@plt>
    d2de:	83 45 f8 01          	addl   $0x1,-0x8(%rbp)
    d2e2:	83 7d f8 07          	cmpl   $0x7,-0x8(%rbp)
    d2e6:	0f 8e 9d fe ff ff    	jle    d189 <main+0x10e4>
    d2ec:	83 45 f4 01          	addl   $0x1,-0xc(%rbp)
    d2f0:	83 7d f4 06          	cmpl   $0x6,-0xc(%rbp)
    d2f4:	0f 8e 83 fe ff ff    	jle    d17d <main+0x10d8>
    d2fa:	83 45 f0 01          	addl   $0x1,-0x10(%rbp)
    d2fe:	83 7d f0 02          	cmpl   $0x2,-0x10(%rbp)
    d302:	0f 8e 69 fe ff ff    	jle    d171 <main+0x10cc>
    d308:	48 8b 05 f1 5e 00 00 	mov    0x5ef1(%rip),%rax        # 13200 <g_1296>
    d30f:	01 c0                	add    %eax,%eax
    d311:	d0 f8                	sar    %al
    d313:	48 0f be c0          	movsbq %al,%rax
    d317:	8b 55 fc             	mov    -0x4(%rbp),%edx
    d31a:	48 8d 35 35 13 00 00 	lea    0x1335(%rip),%rsi        # e656 <g_1185+0x50e>
    d321:	48 89 c7             	mov    %rax,%rdi
    d324:	e8 ca 73 ff ff       	callq  46f3 <transparent_crc>
    d329:	48 8b 05 d4 5e 00 00 	mov    0x5ed4(%rip),%rax        # 13204 <g_1296+0x4>
    d330:	48 89 c1             	mov    %rax,%rcx
    d333:	8b 45 fc             	mov    -0x4(%rbp),%eax
    d336:	89 c2                	mov    %eax,%edx
    d338:	48 8d 35 21 13 00 00 	lea    0x1321(%rip),%rsi        # e660 <g_1185+0x518>
    d33f:	48 89 cf             	mov    %rcx,%rdi
    d342:	e8 ac 73 ff ff       	callq  46f3 <transparent_crc>
    d347:	48 8b 05 be 5e 00 00 	mov    0x5ebe(%rip),%rax        # 1320c <g_1296+0xc>
    d34e:	48 89 c1             	mov    %rax,%rcx
    d351:	8b 45 fc             	mov    -0x4(%rbp),%eax
    d354:	89 c2                	mov    %eax,%edx
    d356:	48 8d 35 0d 13 00 00 	lea    0x130d(%rip),%rsi        # e66a <g_1185+0x522>
    d35d:	48 89 cf             	mov    %rcx,%rdi
    d360:	e8 8e 73 ff ff       	callq  46f3 <transparent_crc>
    d365:	0f b6 05 b4 5e 00 00 	movzbl 0x5eb4(%rip),%eax        # 13220 <g_1297>
    d36c:	01 c0                	add    %eax,%eax
    d36e:	d0 f8                	sar    %al
    d370:	48 0f be c0          	movsbq %al,%rax
    d374:	8b 55 fc             	mov    -0x4(%rbp),%edx
    d377:	48 8d 35 f6 12 00 00 	lea    0x12f6(%rip),%rsi        # e674 <g_1185+0x52c>
    d37e:	48 89 c7             	mov    %rax,%rdi
    d381:	e8 6d 73 ff ff       	callq  46f3 <transparent_crc>
    d386:	48 8b 05 97 5e 00 00 	mov    0x5e97(%rip),%rax        # 13224 <g_1297+0x4>
    d38d:	48 89 c1             	mov    %rax,%rcx
    d390:	8b 45 fc             	mov    -0x4(%rbp),%eax
    d393:	89 c2                	mov    %eax,%edx
    d395:	48 8d 35 e2 12 00 00 	lea    0x12e2(%rip),%rsi        # e67e <g_1185+0x536>
    d39c:	48 89 cf             	mov    %rcx,%rdi
    d39f:	e8 4f 73 ff ff       	callq  46f3 <transparent_crc>
    d3a4:	48 8b 05 81 5e 00 00 	mov    0x5e81(%rip),%rax        # 1322c <g_1297+0xc>
    d3ab:	48 89 c1             	mov    %rax,%rcx
    d3ae:	8b 45 fc             	mov    -0x4(%rbp),%eax
    d3b1:	89 c2                	mov    %eax,%edx
    d3b3:	48 8d 35 ce 12 00 00 	lea    0x12ce(%rip),%rsi        # e688 <g_1185+0x540>
    d3ba:	48 89 cf             	mov    %rcx,%rdi
    d3bd:	e8 31 73 ff ff       	callq  46f3 <transparent_crc>
    d3c2:	8b 05 58 3c 00 00    	mov    0x3c58(%rip),%eax        # 11020 <crc32_context>
    d3c8:	f7 d0                	not    %eax
    d3ca:	89 c2                	mov    %eax,%edx
    d3cc:	8b 45 fc             	mov    -0x4(%rbp),%eax
    d3cf:	89 c6                	mov    %eax,%esi
    d3d1:	89 d7                	mov    %edx,%edi
    d3d3:	e8 bc 5d ff ff       	callq  3194 <platform_main_end>
    d3d8:	b8 00 00 00 00       	mov    $0x0,%eax
    d3dd:	c9                   	leaveq 
    d3de:	c3                   	retq   
    d3df:	90                   	nop

000000000000d3e0 <__libc_csu_init>:
    d3e0:	f3 0f 1e fa          	endbr64 
    d3e4:	41 57                	push   %r15
    d3e6:	4c 8d 3d 83 39 00 00 	lea    0x3983(%rip),%r15        # 10d70 <__frame_dummy_init_array_entry>
    d3ed:	41 56                	push   %r14
    d3ef:	49 89 d6             	mov    %rdx,%r14
    d3f2:	41 55                	push   %r13
    d3f4:	49 89 f5             	mov    %rsi,%r13
    d3f7:	41 54                	push   %r12
    d3f9:	41 89 fc             	mov    %edi,%r12d
    d3fc:	55                   	push   %rbp
    d3fd:	48 8d 2d 74 39 00 00 	lea    0x3974(%rip),%rbp        # 10d78 <__do_global_dtors_aux_fini_array_entry>
    d404:	53                   	push   %rbx
    d405:	4c 29 fd             	sub    %r15,%rbp
    d408:	48 83 ec 08          	sub    $0x8,%rsp
    d40c:	e8 ef 5b ff ff       	callq  3000 <_init>
    d411:	48 c1 fd 03          	sar    $0x3,%rbp
    d415:	74 1f                	je     d436 <__libc_csu_init+0x56>
    d417:	31 db                	xor    %ebx,%ebx
    d419:	0f 1f 80 00 00 00 00 	nopl   0x0(%rax)
    d420:	4c 89 f2             	mov    %r14,%rdx
    d423:	4c 89 ee             	mov    %r13,%rsi
    d426:	44 89 e7             	mov    %r12d,%edi
    d429:	41 ff 14 df          	callq  *(%r15,%rbx,8)
    d42d:	48 83 c3 01          	add    $0x1,%rbx
    d431:	48 39 dd             	cmp    %rbx,%rbp
    d434:	75 ea                	jne    d420 <__libc_csu_init+0x40>
    d436:	48 83 c4 08          	add    $0x8,%rsp
    d43a:	5b                   	pop    %rbx
    d43b:	5d                   	pop    %rbp
    d43c:	41 5c                	pop    %r12
    d43e:	41 5d                	pop    %r13
    d440:	41 5e                	pop    %r14
    d442:	41 5f                	pop    %r15
    d444:	c3                   	retq   
    d445:	66 66 2e 0f 1f 84 00 	data16 nopw %cs:0x0(%rax,%rax,1)
    d44c:	00 00 00 00 

000000000000d450 <__libc_csu_fini>:
    d450:	f3 0f 1e fa          	endbr64 
    d454:	c3                   	retq   
