


Disassembly of section .text:

00000000000060a0 <_start>:
    60a0:	f3 0f 1e fa          	endbr64 
    60a4:	31 ed                	xor    %ebp,%ebp
    60a6:	49 89 d1             	mov    %rdx,%r9
    60a9:	5e                   	pop    %rsi
    60aa:	48 89 e2             	mov    %rsp,%rdx
    60ad:	48 83 e4 f0          	and    $0xfffffffffffffff0,%rsp
    60b1:	50                   	push   %rax
    60b2:	54                   	push   %rsp
    60b3:	4c 8d 05 56 af 00 00 	lea    0xaf56(%rip),%r8        # 11010 <__libc_csu_fini>
    60ba:	48 8d 0d df ae 00 00 	lea    0xaedf(%rip),%rcx        # 10fa0 <__libc_csu_init>
    60c1:	48 8d 3d fc 99 00 00 	lea    0x99fc(%rip),%rdi        # fac4 <main>
    60c8:	ff 15 fa 0e 01 00    	callq  *0x10efa(%rip)        # 16fc8 <__libc_start_main@GLIBC_2.2.5>
    60ce:	f4                   	hlt    
    60cf:	90                   	nop

00000000000060d0 <deregister_tm_clones>:
    60d0:	48 8d 3d 49 35 01 00 	lea    0x13549(%rip),%rdi        # 19620 <__TMC_END__>
    60d7:	48 8d 05 42 35 01 00 	lea    0x13542(%rip),%rax        # 19620 <__TMC_END__>
    60de:	48 39 f8             	cmp    %rdi,%rax
    60e1:	74 15                	je     60f8 <deregister_tm_clones+0x28>
    60e3:	48 8b 05 d6 0e 01 00 	mov    0x10ed6(%rip),%rax        # 16fc0 <_ITM_deregisterTMCloneTable>
    60ea:	48 85 c0             	test   %rax,%rax
    60ed:	74 09                	je     60f8 <deregister_tm_clones+0x28>
    60ef:	ff e0                	jmpq   *%rax
    60f1:	0f 1f 80 00 00 00 00 	nopl   0x0(%rax)
    60f8:	c3                   	retq   
    60f9:	0f 1f 80 00 00 00 00 	nopl   0x0(%rax)

0000000000006100 <register_tm_clones>:
    6100:	48 8d 3d 19 35 01 00 	lea    0x13519(%rip),%rdi        # 19620 <__TMC_END__>
    6107:	48 8d 35 12 35 01 00 	lea    0x13512(%rip),%rsi        # 19620 <__TMC_END__>
    610e:	48 29 fe             	sub    %rdi,%rsi
    6111:	48 89 f0             	mov    %rsi,%rax
    6114:	48 c1 ee 3f          	shr    $0x3f,%rsi
    6118:	48 c1 f8 03          	sar    $0x3,%rax
    611c:	48 01 c6             	add    %rax,%rsi
    611f:	48 d1 fe             	sar    %rsi
    6122:	74 14                	je     6138 <register_tm_clones+0x38>
    6124:	48 8b 05 ad 0e 01 00 	mov    0x10ead(%rip),%rax        # 16fd8 <_ITM_registerTMCloneTable>
    612b:	48 85 c0             	test   %rax,%rax
    612e:	74 08                	je     6138 <register_tm_clones+0x38>
    6130:	ff e0                	jmpq   *%rax
    6132:	66 0f 1f 44 00 00    	nopw   0x0(%rax,%rax,1)
    6138:	c3                   	retq   
    6139:	0f 1f 80 00 00 00 00 	nopl   0x0(%rax)

0000000000006140 <__do_global_dtors_aux>:
    6140:	f3 0f 1e fa          	endbr64 
    6144:	80 3d d5 34 01 00 00 	cmpb   $0x0,0x134d5(%rip)        # 19620 <__TMC_END__>
    614b:	75 2b                	jne    6178 <__do_global_dtors_aux+0x38>
    614d:	55                   	push   %rbp
    614e:	48 83 3d 8a 0e 01 00 	cmpq   $0x0,0x10e8a(%rip)        # 16fe0 <__cxa_finalize@GLIBC_2.2.5>
    6155:	00 
    6156:	48 89 e5             	mov    %rsp,%rbp
    6159:	74 0c                	je     6167 <__do_global_dtors_aux+0x27>
    615b:	48 8b 3d a6 0e 01 00 	mov    0x10ea6(%rip),%rdi        # 17008 <__dso_handle>
    6162:	e8 f9 fe ff ff       	callq  6060 <__cxa_finalize@plt>
    6167:	e8 64 ff ff ff       	callq  60d0 <deregister_tm_clones>
    616c:	c6 05 ad 34 01 00 01 	movb   $0x1,0x134ad(%rip)        # 19620 <__TMC_END__>
    6173:	5d                   	pop    %rbp
    6174:	c3                   	retq   
    6175:	0f 1f 00             	nopl   (%rax)
    6178:	c3                   	retq   
    6179:	0f 1f 80 00 00 00 00 	nopl   0x0(%rax)

0000000000006180 <frame_dummy>:
    6180:	f3 0f 1e fa          	endbr64 
    6184:	e9 77 ff ff ff       	jmpq   6100 <register_tm_clones>

0000000000006189 <platform_main_begin>:
    6189:	f3 0f 1e fa          	endbr64 
    618d:	55                   	push   %rbp
    618e:	48 89 e5             	mov    %rsp,%rbp
    6191:	90                   	nop
    6192:	5d                   	pop    %rbp
    6193:	c3                   	retq   

0000000000006194 <platform_main_end>:
    6194:	f3 0f 1e fa          	endbr64 
    6198:	55                   	push   %rbp
    6199:	48 89 e5             	mov    %rsp,%rbp
    619c:	48 83 ec 10          	sub    $0x10,%rsp
    61a0:	89 7d fc             	mov    %edi,-0x4(%rbp)
    61a3:	89 75 f8             	mov    %esi,-0x8(%rbp)
    61a6:	8b 45 fc             	mov    -0x4(%rbp),%eax
    61a9:	89 c6                	mov    %eax,%esi
    61ab:	48 8d 3d 6e be 00 00 	lea    0xbe6e(%rip),%rdi        # 12020 <_IO_stdin_used+0x20>
    61b2:	b8 00 00 00 00       	mov    $0x0,%eax
    61b7:	e8 c4 fe ff ff       	callq  6080 <printf@plt>
    61bc:	90                   	nop
    61bd:	c9                   	leaveq 
    61be:	c3                   	retq   

00000000000061bf <safe_unary_minus_func_int8_t_s>:
    61bf:	f3 0f 1e fa          	endbr64 
    61c3:	55                   	push   %rbp
    61c4:	48 89 e5             	mov    %rsp,%rbp
    61c7:	89 f8                	mov    %edi,%eax
    61c9:	88 45 fc             	mov    %al,-0x4(%rbp)
    61cc:	0f b6 45 fc          	movzbl -0x4(%rbp),%eax
    61d0:	f7 d8                	neg    %eax
    61d2:	5d                   	pop    %rbp
    61d3:	c3                   	retq   

00000000000061d4 <safe_add_func_int8_t_s_s>:
    61d4:	f3 0f 1e fa          	endbr64 
    61d8:	55                   	push   %rbp
    61d9:	48 89 e5             	mov    %rsp,%rbp
    61dc:	89 fa                	mov    %edi,%edx
    61de:	89 f0                	mov    %esi,%eax
    61e0:	88 55 fc             	mov    %dl,-0x4(%rbp)
    61e3:	88 45 f8             	mov    %al,-0x8(%rbp)
    61e6:	0f b6 55 fc          	movzbl -0x4(%rbp),%edx
    61ea:	0f b6 45 f8          	movzbl -0x8(%rbp),%eax
    61ee:	01 d0                	add    %edx,%eax
    61f0:	5d                   	pop    %rbp
    61f1:	c3                   	retq   

00000000000061f2 <safe_sub_func_int8_t_s_s>:
    61f2:	f3 0f 1e fa          	endbr64 
    61f6:	55                   	push   %rbp
    61f7:	48 89 e5             	mov    %rsp,%rbp
    61fa:	89 fa                	mov    %edi,%edx
    61fc:	89 f0                	mov    %esi,%eax
    61fe:	88 55 fc             	mov    %dl,-0x4(%rbp)
    6201:	88 45 f8             	mov    %al,-0x8(%rbp)
    6204:	0f b6 55 fc          	movzbl -0x4(%rbp),%edx
    6208:	0f b6 45 f8          	movzbl -0x8(%rbp),%eax
    620c:	29 c2                	sub    %eax,%edx
    620e:	89 d0                	mov    %edx,%eax
    6210:	5d                   	pop    %rbp
    6211:	c3                   	retq   

0000000000006212 <safe_mul_func_int8_t_s_s>:
    6212:	f3 0f 1e fa          	endbr64 
    6216:	55                   	push   %rbp
    6217:	48 89 e5             	mov    %rsp,%rbp
    621a:	89 fa                	mov    %edi,%edx
    621c:	89 f0                	mov    %esi,%eax
    621e:	88 55 fc             	mov    %dl,-0x4(%rbp)
    6221:	88 45 f8             	mov    %al,-0x8(%rbp)
    6224:	0f b6 45 fc          	movzbl -0x4(%rbp),%eax
    6228:	0f b6 55 f8          	movzbl -0x8(%rbp),%edx
    622c:	0f af c2             	imul   %edx,%eax
    622f:	5d                   	pop    %rbp
    6230:	c3                   	retq   

0000000000006231 <safe_mod_func_int8_t_s_s>:
    6231:	f3 0f 1e fa          	endbr64 
    6235:	55                   	push   %rbp
    6236:	48 89 e5             	mov    %rsp,%rbp
    6239:	89 fa                	mov    %edi,%edx
    623b:	89 f0                	mov    %esi,%eax
    623d:	88 55 fc             	mov    %dl,-0x4(%rbp)
    6240:	88 45 f8             	mov    %al,-0x8(%rbp)
    6243:	80 7d f8 00          	cmpb   $0x0,-0x8(%rbp)
    6247:	74 1b                	je     6264 <safe_mod_func_int8_t_s_s+0x33>
    6249:	80 7d fc 80          	cmpb   $0x80,-0x4(%rbp)
    624d:	75 06                	jne    6255 <safe_mod_func_int8_t_s_s+0x24>
    624f:	80 7d f8 ff          	cmpb   $0xff,-0x8(%rbp)
    6253:	74 0f                	je     6264 <safe_mod_func_int8_t_s_s+0x33>
    6255:	0f be 45 fc          	movsbl -0x4(%rbp),%eax
    6259:	0f be 4d f8          	movsbl -0x8(%rbp),%ecx
    625d:	99                   	cltd   
    625e:	f7 f9                	idiv   %ecx
    6260:	89 d0                	mov    %edx,%eax
    6262:	eb 04                	jmp    6268 <safe_mod_func_int8_t_s_s+0x37>
    6264:	0f b6 45 fc          	movzbl -0x4(%rbp),%eax
    6268:	5d                   	pop    %rbp
    6269:	c3                   	retq   

000000000000626a <safe_div_func_int8_t_s_s>:
    626a:	f3 0f 1e fa          	endbr64 
    626e:	55                   	push   %rbp
    626f:	48 89 e5             	mov    %rsp,%rbp
    6272:	89 fa                	mov    %edi,%edx
    6274:	89 f0                	mov    %esi,%eax
    6276:	88 55 fc             	mov    %dl,-0x4(%rbp)
    6279:	88 45 f8             	mov    %al,-0x8(%rbp)
    627c:	80 7d f8 00          	cmpb   $0x0,-0x8(%rbp)
    6280:	74 19                	je     629b <safe_div_func_int8_t_s_s+0x31>
    6282:	80 7d fc 80          	cmpb   $0x80,-0x4(%rbp)
    6286:	75 06                	jne    628e <safe_div_func_int8_t_s_s+0x24>
    6288:	80 7d f8 ff          	cmpb   $0xff,-0x8(%rbp)
    628c:	74 0d                	je     629b <safe_div_func_int8_t_s_s+0x31>
    628e:	0f be 45 fc          	movsbl -0x4(%rbp),%eax
    6292:	0f be 4d f8          	movsbl -0x8(%rbp),%ecx
    6296:	99                   	cltd   
    6297:	f7 f9                	idiv   %ecx
    6299:	eb 04                	jmp    629f <safe_div_func_int8_t_s_s+0x35>
    629b:	0f b6 45 fc          	movzbl -0x4(%rbp),%eax
    629f:	5d                   	pop    %rbp
    62a0:	c3                   	retq   

00000000000062a1 <safe_lshift_func_int8_t_s_s>:
    62a1:	f3 0f 1e fa          	endbr64 
    62a5:	55                   	push   %rbp
    62a6:	48 89 e5             	mov    %rsp,%rbp
    62a9:	89 f8                	mov    %edi,%eax
    62ab:	89 75 f8             	mov    %esi,-0x8(%rbp)
    62ae:	88 45 fc             	mov    %al,-0x4(%rbp)
    62b1:	80 7d fc 00          	cmpb   $0x0,-0x4(%rbp)
    62b5:	78 31                	js     62e8 <safe_lshift_func_int8_t_s_s+0x47>
    62b7:	83 7d f8 00          	cmpl   $0x0,-0x8(%rbp)
    62bb:	78 2b                	js     62e8 <safe_lshift_func_int8_t_s_s+0x47>
    62bd:	83 7d f8 1f          	cmpl   $0x1f,-0x8(%rbp)
    62c1:	7f 25                	jg     62e8 <safe_lshift_func_int8_t_s_s+0x47>
    62c3:	0f be 55 fc          	movsbl -0x4(%rbp),%edx
    62c7:	8b 45 f8             	mov    -0x8(%rbp),%eax
    62ca:	be 7f 00 00 00       	mov    $0x7f,%esi
    62cf:	89 c1                	mov    %eax,%ecx
    62d1:	d3 fe                	sar    %cl,%esi
    62d3:	89 f0                	mov    %esi,%eax
    62d5:	39 c2                	cmp    %eax,%edx
    62d7:	7f 0f                	jg     62e8 <safe_lshift_func_int8_t_s_s+0x47>
    62d9:	0f be 55 fc          	movsbl -0x4(%rbp),%edx
    62dd:	8b 45 f8             	mov    -0x8(%rbp),%eax
    62e0:	89 c1                	mov    %eax,%ecx
    62e2:	d3 e2                	shl    %cl,%edx
    62e4:	89 d0                	mov    %edx,%eax
    62e6:	eb 04                	jmp    62ec <safe_lshift_func_int8_t_s_s+0x4b>
    62e8:	0f b6 45 fc          	movzbl -0x4(%rbp),%eax
    62ec:	5d                   	pop    %rbp
    62ed:	c3                   	retq   

00000000000062ee <safe_lshift_func_int8_t_s_u>:
    62ee:	f3 0f 1e fa          	endbr64 
    62f2:	55                   	push   %rbp
    62f3:	48 89 e5             	mov    %rsp,%rbp
    62f6:	89 f8                	mov    %edi,%eax
    62f8:	89 75 f8             	mov    %esi,-0x8(%rbp)
    62fb:	88 45 fc             	mov    %al,-0x4(%rbp)
    62fe:	80 7d fc 00          	cmpb   $0x0,-0x4(%rbp)
    6302:	78 2b                	js     632f <safe_lshift_func_int8_t_s_u+0x41>
    6304:	83 7d f8 1f          	cmpl   $0x1f,-0x8(%rbp)
    6308:	77 25                	ja     632f <safe_lshift_func_int8_t_s_u+0x41>
    630a:	0f be 55 fc          	movsbl -0x4(%rbp),%edx
    630e:	8b 45 f8             	mov    -0x8(%rbp),%eax
    6311:	be 7f 00 00 00       	mov    $0x7f,%esi
    6316:	89 c1                	mov    %eax,%ecx
    6318:	d3 fe                	sar    %cl,%esi
    631a:	89 f0                	mov    %esi,%eax
    631c:	39 c2                	cmp    %eax,%edx
    631e:	7f 0f                	jg     632f <safe_lshift_func_int8_t_s_u+0x41>
    6320:	0f be 55 fc          	movsbl -0x4(%rbp),%edx
    6324:	8b 45 f8             	mov    -0x8(%rbp),%eax
    6327:	89 c1                	mov    %eax,%ecx
    6329:	d3 e2                	shl    %cl,%edx
    632b:	89 d0                	mov    %edx,%eax
    632d:	eb 04                	jmp    6333 <safe_lshift_func_int8_t_s_u+0x45>
    632f:	0f b6 45 fc          	movzbl -0x4(%rbp),%eax
    6333:	5d                   	pop    %rbp
    6334:	c3                   	retq   

0000000000006335 <safe_rshift_func_int8_t_s_s>:
    6335:	f3 0f 1e fa          	endbr64 
    6339:	55                   	push   %rbp
    633a:	48 89 e5             	mov    %rsp,%rbp
    633d:	89 f8                	mov    %edi,%eax
    633f:	89 75 f8             	mov    %esi,-0x8(%rbp)
    6342:	88 45 fc             	mov    %al,-0x4(%rbp)
    6345:	80 7d fc 00          	cmpb   $0x0,-0x4(%rbp)
    6349:	78 1b                	js     6366 <safe_rshift_func_int8_t_s_s+0x31>
    634b:	83 7d f8 00          	cmpl   $0x0,-0x8(%rbp)
    634f:	78 15                	js     6366 <safe_rshift_func_int8_t_s_s+0x31>
    6351:	83 7d f8 1f          	cmpl   $0x1f,-0x8(%rbp)
    6355:	7f 0f                	jg     6366 <safe_rshift_func_int8_t_s_s+0x31>
    6357:	0f be 55 fc          	movsbl -0x4(%rbp),%edx
    635b:	8b 45 f8             	mov    -0x8(%rbp),%eax
    635e:	89 c1                	mov    %eax,%ecx
    6360:	d3 fa                	sar    %cl,%edx
    6362:	89 d0                	mov    %edx,%eax
    6364:	eb 04                	jmp    636a <safe_rshift_func_int8_t_s_s+0x35>
    6366:	0f b6 45 fc          	movzbl -0x4(%rbp),%eax
    636a:	5d                   	pop    %rbp
    636b:	c3                   	retq   

000000000000636c <safe_rshift_func_int8_t_s_u>:
    636c:	f3 0f 1e fa          	endbr64 
    6370:	55                   	push   %rbp
    6371:	48 89 e5             	mov    %rsp,%rbp
    6374:	89 f8                	mov    %edi,%eax
    6376:	89 75 f8             	mov    %esi,-0x8(%rbp)
    6379:	88 45 fc             	mov    %al,-0x4(%rbp)
    637c:	80 7d fc 00          	cmpb   $0x0,-0x4(%rbp)
    6380:	78 15                	js     6397 <safe_rshift_func_int8_t_s_u+0x2b>
    6382:	83 7d f8 1f          	cmpl   $0x1f,-0x8(%rbp)
    6386:	77 0f                	ja     6397 <safe_rshift_func_int8_t_s_u+0x2b>
    6388:	0f be 55 fc          	movsbl -0x4(%rbp),%edx
    638c:	8b 45 f8             	mov    -0x8(%rbp),%eax
    638f:	89 c1                	mov    %eax,%ecx
    6391:	d3 fa                	sar    %cl,%edx
    6393:	89 d0                	mov    %edx,%eax
    6395:	eb 04                	jmp    639b <safe_rshift_func_int8_t_s_u+0x2f>
    6397:	0f b6 45 fc          	movzbl -0x4(%rbp),%eax
    639b:	5d                   	pop    %rbp
    639c:	c3                   	retq   

000000000000639d <safe_unary_minus_func_int16_t_s>:
    639d:	f3 0f 1e fa          	endbr64 
    63a1:	55                   	push   %rbp
    63a2:	48 89 e5             	mov    %rsp,%rbp
    63a5:	89 f8                	mov    %edi,%eax
    63a7:	66 89 45 fc          	mov    %ax,-0x4(%rbp)
    63ab:	0f b7 45 fc          	movzwl -0x4(%rbp),%eax
    63af:	f7 d8                	neg    %eax
    63b1:	5d                   	pop    %rbp
    63b2:	c3                   	retq   

00000000000063b3 <safe_add_func_int16_t_s_s>:
    63b3:	f3 0f 1e fa          	endbr64 
    63b7:	55                   	push   %rbp
    63b8:	48 89 e5             	mov    %rsp,%rbp
    63bb:	89 fa                	mov    %edi,%edx
    63bd:	89 f0                	mov    %esi,%eax
    63bf:	66 89 55 fc          	mov    %dx,-0x4(%rbp)
    63c3:	66 89 45 f8          	mov    %ax,-0x8(%rbp)
    63c7:	0f b7 55 fc          	movzwl -0x4(%rbp),%edx
    63cb:	0f b7 45 f8          	movzwl -0x8(%rbp),%eax
    63cf:	01 d0                	add    %edx,%eax
    63d1:	5d                   	pop    %rbp
    63d2:	c3                   	retq   

00000000000063d3 <safe_sub_func_int16_t_s_s>:
    63d3:	f3 0f 1e fa          	endbr64 
    63d7:	55                   	push   %rbp
    63d8:	48 89 e5             	mov    %rsp,%rbp
    63db:	89 fa                	mov    %edi,%edx
    63dd:	89 f0                	mov    %esi,%eax
    63df:	66 89 55 fc          	mov    %dx,-0x4(%rbp)
    63e3:	66 89 45 f8          	mov    %ax,-0x8(%rbp)
    63e7:	0f b7 55 fc          	movzwl -0x4(%rbp),%edx
    63eb:	0f b7 45 f8          	movzwl -0x8(%rbp),%eax
    63ef:	29 c2                	sub    %eax,%edx
    63f1:	89 d0                	mov    %edx,%eax
    63f3:	5d                   	pop    %rbp
    63f4:	c3                   	retq   

00000000000063f5 <safe_mul_func_int16_t_s_s>:
    63f5:	f3 0f 1e fa          	endbr64 
    63f9:	55                   	push   %rbp
    63fa:	48 89 e5             	mov    %rsp,%rbp
    63fd:	89 fa                	mov    %edi,%edx
    63ff:	89 f0                	mov    %esi,%eax
    6401:	66 89 55 fc          	mov    %dx,-0x4(%rbp)
    6405:	66 89 45 f8          	mov    %ax,-0x8(%rbp)
    6409:	0f b7 55 fc          	movzwl -0x4(%rbp),%edx
    640d:	0f b7 45 f8          	movzwl -0x8(%rbp),%eax
    6411:	0f af c2             	imul   %edx,%eax
    6414:	5d                   	pop    %rbp
    6415:	c3                   	retq   

0000000000006416 <safe_mod_func_int16_t_s_s>:
    6416:	f3 0f 1e fa          	endbr64 
    641a:	55                   	push   %rbp
    641b:	48 89 e5             	mov    %rsp,%rbp
    641e:	89 fa                	mov    %edi,%edx
    6420:	89 f0                	mov    %esi,%eax
    6422:	66 89 55 fc          	mov    %dx,-0x4(%rbp)
    6426:	66 89 45 f8          	mov    %ax,-0x8(%rbp)
    642a:	66 83 7d f8 00       	cmpw   $0x0,-0x8(%rbp)
    642f:	74 1e                	je     644f <safe_mod_func_int16_t_s_s+0x39>
    6431:	66 81 7d fc 00 80    	cmpw   $0x8000,-0x4(%rbp)
    6437:	75 07                	jne    6440 <safe_mod_func_int16_t_s_s+0x2a>
    6439:	66 83 7d f8 ff       	cmpw   $0xffff,-0x8(%rbp)
    643e:	74 0f                	je     644f <safe_mod_func_int16_t_s_s+0x39>
    6440:	0f bf 45 fc          	movswl -0x4(%rbp),%eax
    6444:	0f bf 4d f8          	movswl -0x8(%rbp),%ecx
    6448:	99                   	cltd   
    6449:	f7 f9                	idiv   %ecx
    644b:	89 d0                	mov    %edx,%eax
    644d:	eb 04                	jmp    6453 <safe_mod_func_int16_t_s_s+0x3d>
    644f:	0f b7 45 fc          	movzwl -0x4(%rbp),%eax
    6453:	5d                   	pop    %rbp
    6454:	c3                   	retq   

0000000000006455 <safe_div_func_int16_t_s_s>:
    6455:	f3 0f 1e fa          	endbr64 
    6459:	55                   	push   %rbp
    645a:	48 89 e5             	mov    %rsp,%rbp
    645d:	89 fa                	mov    %edi,%edx
    645f:	89 f0                	mov    %esi,%eax
    6461:	66 89 55 fc          	mov    %dx,-0x4(%rbp)
    6465:	66 89 45 f8          	mov    %ax,-0x8(%rbp)
    6469:	66 83 7d f8 00       	cmpw   $0x0,-0x8(%rbp)
    646e:	74 1c                	je     648c <safe_div_func_int16_t_s_s+0x37>
    6470:	66 81 7d fc 00 80    	cmpw   $0x8000,-0x4(%rbp)
    6476:	75 07                	jne    647f <safe_div_func_int16_t_s_s+0x2a>
    6478:	66 83 7d f8 ff       	cmpw   $0xffff,-0x8(%rbp)
    647d:	74 0d                	je     648c <safe_div_func_int16_t_s_s+0x37>
    647f:	0f bf 45 fc          	movswl -0x4(%rbp),%eax
    6483:	0f bf 4d f8          	movswl -0x8(%rbp),%ecx
    6487:	99                   	cltd   
    6488:	f7 f9                	idiv   %ecx
    648a:	eb 04                	jmp    6490 <safe_div_func_int16_t_s_s+0x3b>
    648c:	0f b7 45 fc          	movzwl -0x4(%rbp),%eax
    6490:	5d                   	pop    %rbp
    6491:	c3                   	retq   

0000000000006492 <safe_lshift_func_int16_t_s_s>:
    6492:	f3 0f 1e fa          	endbr64 
    6496:	55                   	push   %rbp
    6497:	48 89 e5             	mov    %rsp,%rbp
    649a:	89 f8                	mov    %edi,%eax
    649c:	89 75 f8             	mov    %esi,-0x8(%rbp)
    649f:	66 89 45 fc          	mov    %ax,-0x4(%rbp)
    64a3:	66 83 7d fc 00       	cmpw   $0x0,-0x4(%rbp)
    64a8:	78 31                	js     64db <safe_lshift_func_int16_t_s_s+0x49>
    64aa:	83 7d f8 00          	cmpl   $0x0,-0x8(%rbp)
    64ae:	78 2b                	js     64db <safe_lshift_func_int16_t_s_s+0x49>
    64b0:	83 7d f8 1f          	cmpl   $0x1f,-0x8(%rbp)
    64b4:	7f 25                	jg     64db <safe_lshift_func_int16_t_s_s+0x49>
    64b6:	0f bf 55 fc          	movswl -0x4(%rbp),%edx
    64ba:	8b 45 f8             	mov    -0x8(%rbp),%eax
    64bd:	be ff 7f 00 00       	mov    $0x7fff,%esi
    64c2:	89 c1                	mov    %eax,%ecx
    64c4:	d3 fe                	sar    %cl,%esi
    64c6:	89 f0                	mov    %esi,%eax
    64c8:	39 c2                	cmp    %eax,%edx
    64ca:	7f 0f                	jg     64db <safe_lshift_func_int16_t_s_s+0x49>
    64cc:	0f bf 55 fc          	movswl -0x4(%rbp),%edx
    64d0:	8b 45 f8             	mov    -0x8(%rbp),%eax
    64d3:	89 c1                	mov    %eax,%ecx
    64d5:	d3 e2                	shl    %cl,%edx
    64d7:	89 d0                	mov    %edx,%eax
    64d9:	eb 04                	jmp    64df <safe_lshift_func_int16_t_s_s+0x4d>
    64db:	0f b7 45 fc          	movzwl -0x4(%rbp),%eax
    64df:	5d                   	pop    %rbp
    64e0:	c3                   	retq   

00000000000064e1 <safe_lshift_func_int16_t_s_u>:
    64e1:	f3 0f 1e fa          	endbr64 
    64e5:	55                   	push   %rbp
    64e6:	48 89 e5             	mov    %rsp,%rbp
    64e9:	89 f8                	mov    %edi,%eax
    64eb:	89 75 f8             	mov    %esi,-0x8(%rbp)
    64ee:	66 89 45 fc          	mov    %ax,-0x4(%rbp)
    64f2:	66 83 7d fc 00       	cmpw   $0x0,-0x4(%rbp)
    64f7:	78 2b                	js     6524 <safe_lshift_func_int16_t_s_u+0x43>
    64f9:	83 7d f8 1f          	cmpl   $0x1f,-0x8(%rbp)
    64fd:	77 25                	ja     6524 <safe_lshift_func_int16_t_s_u+0x43>
    64ff:	0f bf 55 fc          	movswl -0x4(%rbp),%edx
    6503:	8b 45 f8             	mov    -0x8(%rbp),%eax
    6506:	be ff 7f 00 00       	mov    $0x7fff,%esi
    650b:	89 c1                	mov    %eax,%ecx
    650d:	d3 fe                	sar    %cl,%esi
    650f:	89 f0                	mov    %esi,%eax
    6511:	39 c2                	cmp    %eax,%edx
    6513:	7f 0f                	jg     6524 <safe_lshift_func_int16_t_s_u+0x43>
    6515:	0f bf 55 fc          	movswl -0x4(%rbp),%edx
    6519:	8b 45 f8             	mov    -0x8(%rbp),%eax
    651c:	89 c1                	mov    %eax,%ecx
    651e:	d3 e2                	shl    %cl,%edx
    6520:	89 d0                	mov    %edx,%eax
    6522:	eb 04                	jmp    6528 <safe_lshift_func_int16_t_s_u+0x47>
    6524:	0f b7 45 fc          	movzwl -0x4(%rbp),%eax
    6528:	5d                   	pop    %rbp
    6529:	c3                   	retq   

000000000000652a <safe_rshift_func_int16_t_s_s>:
    652a:	f3 0f 1e fa          	endbr64 
    652e:	55                   	push   %rbp
    652f:	48 89 e5             	mov    %rsp,%rbp
    6532:	89 f8                	mov    %edi,%eax
    6534:	89 75 f8             	mov    %esi,-0x8(%rbp)
    6537:	66 89 45 fc          	mov    %ax,-0x4(%rbp)
    653b:	66 83 7d fc 00       	cmpw   $0x0,-0x4(%rbp)
    6540:	78 1b                	js     655d <safe_rshift_func_int16_t_s_s+0x33>
    6542:	83 7d f8 00          	cmpl   $0x0,-0x8(%rbp)
    6546:	78 15                	js     655d <safe_rshift_func_int16_t_s_s+0x33>
    6548:	83 7d f8 1f          	cmpl   $0x1f,-0x8(%rbp)
    654c:	7f 0f                	jg     655d <safe_rshift_func_int16_t_s_s+0x33>
    654e:	0f bf 55 fc          	movswl -0x4(%rbp),%edx
    6552:	8b 45 f8             	mov    -0x8(%rbp),%eax
    6555:	89 c1                	mov    %eax,%ecx
    6557:	d3 fa                	sar    %cl,%edx
    6559:	89 d0                	mov    %edx,%eax
    655b:	eb 04                	jmp    6561 <safe_rshift_func_int16_t_s_s+0x37>
    655d:	0f b7 45 fc          	movzwl -0x4(%rbp),%eax
    6561:	5d                   	pop    %rbp
    6562:	c3                   	retq   

0000000000006563 <safe_rshift_func_int16_t_s_u>:
    6563:	f3 0f 1e fa          	endbr64 
    6567:	55                   	push   %rbp
    6568:	48 89 e5             	mov    %rsp,%rbp
    656b:	89 f8                	mov    %edi,%eax
    656d:	89 75 f8             	mov    %esi,-0x8(%rbp)
    6570:	66 89 45 fc          	mov    %ax,-0x4(%rbp)
    6574:	66 83 7d fc 00       	cmpw   $0x0,-0x4(%rbp)
    6579:	78 15                	js     6590 <safe_rshift_func_int16_t_s_u+0x2d>
    657b:	83 7d f8 1f          	cmpl   $0x1f,-0x8(%rbp)
    657f:	77 0f                	ja     6590 <safe_rshift_func_int16_t_s_u+0x2d>
    6581:	0f bf 55 fc          	movswl -0x4(%rbp),%edx
    6585:	8b 45 f8             	mov    -0x8(%rbp),%eax
    6588:	89 c1                	mov    %eax,%ecx
    658a:	d3 fa                	sar    %cl,%edx
    658c:	89 d0                	mov    %edx,%eax
    658e:	eb 04                	jmp    6594 <safe_rshift_func_int16_t_s_u+0x31>
    6590:	0f b7 45 fc          	movzwl -0x4(%rbp),%eax
    6594:	5d                   	pop    %rbp
    6595:	c3                   	retq   

0000000000006596 <safe_unary_minus_func_int32_t_s>:
    6596:	f3 0f 1e fa          	endbr64 
    659a:	55                   	push   %rbp
    659b:	48 89 e5             	mov    %rsp,%rbp
    659e:	89 7d fc             	mov    %edi,-0x4(%rbp)
    65a1:	81 7d fc 00 00 00 80 	cmpl   $0x80000000,-0x4(%rbp)
    65a8:	74 07                	je     65b1 <safe_unary_minus_func_int32_t_s+0x1b>
    65aa:	8b 45 fc             	mov    -0x4(%rbp),%eax
    65ad:	f7 d8                	neg    %eax
    65af:	eb 03                	jmp    65b4 <safe_unary_minus_func_int32_t_s+0x1e>
    65b1:	8b 45 fc             	mov    -0x4(%rbp),%eax
    65b4:	5d                   	pop    %rbp
    65b5:	c3                   	retq   

00000000000065b6 <safe_add_func_int32_t_s_s>:
    65b6:	f3 0f 1e fa          	endbr64 
    65ba:	55                   	push   %rbp
    65bb:	48 89 e5             	mov    %rsp,%rbp
    65be:	89 7d fc             	mov    %edi,-0x4(%rbp)
    65c1:	89 75 f8             	mov    %esi,-0x8(%rbp)
    65c4:	83 7d fc 00          	cmpl   $0x0,-0x4(%rbp)
    65c8:	7e 13                	jle    65dd <safe_add_func_int32_t_s_s+0x27>
    65ca:	83 7d f8 00          	cmpl   $0x0,-0x8(%rbp)
    65ce:	7e 0d                	jle    65dd <safe_add_func_int32_t_s_s+0x27>
    65d0:	b8 ff ff ff 7f       	mov    $0x7fffffff,%eax
    65d5:	2b 45 f8             	sub    -0x8(%rbp),%eax
    65d8:	39 45 fc             	cmp    %eax,-0x4(%rbp)
    65db:	7f 23                	jg     6600 <safe_add_func_int32_t_s_s+0x4a>
    65dd:	83 7d fc 00          	cmpl   $0x0,-0x4(%rbp)
    65e1:	79 13                	jns    65f6 <safe_add_func_int32_t_s_s+0x40>
    65e3:	83 7d f8 00          	cmpl   $0x0,-0x8(%rbp)
    65e7:	79 0d                	jns    65f6 <safe_add_func_int32_t_s_s+0x40>
    65e9:	b8 00 00 00 80       	mov    $0x80000000,%eax
    65ee:	2b 45 f8             	sub    -0x8(%rbp),%eax
    65f1:	39 45 fc             	cmp    %eax,-0x4(%rbp)
    65f4:	7c 0a                	jl     6600 <safe_add_func_int32_t_s_s+0x4a>
    65f6:	8b 55 fc             	mov    -0x4(%rbp),%edx
    65f9:	8b 45 f8             	mov    -0x8(%rbp),%eax
    65fc:	01 d0                	add    %edx,%eax
    65fe:	eb 03                	jmp    6603 <safe_add_func_int32_t_s_s+0x4d>
    6600:	8b 45 fc             	mov    -0x4(%rbp),%eax
    6603:	5d                   	pop    %rbp
    6604:	c3                   	retq   

0000000000006605 <safe_sub_func_int32_t_s_s>:
    6605:	f3 0f 1e fa          	endbr64 
    6609:	55                   	push   %rbp
    660a:	48 89 e5             	mov    %rsp,%rbp
    660d:	89 7d fc             	mov    %edi,-0x4(%rbp)
    6610:	89 75 f8             	mov    %esi,-0x8(%rbp)
    6613:	8b 45 fc             	mov    -0x4(%rbp),%eax
    6616:	33 45 f8             	xor    -0x8(%rbp),%eax
    6619:	89 c2                	mov    %eax,%edx
    661b:	8b 45 fc             	mov    -0x4(%rbp),%eax
    661e:	33 45 f8             	xor    -0x8(%rbp),%eax
    6621:	25 00 00 00 80       	and    $0x80000000,%eax
    6626:	33 45 fc             	xor    -0x4(%rbp),%eax
    6629:	2b 45 f8             	sub    -0x8(%rbp),%eax
    662c:	33 45 f8             	xor    -0x8(%rbp),%eax
    662f:	21 d0                	and    %edx,%eax
    6631:	85 c0                	test   %eax,%eax
    6633:	78 08                	js     663d <safe_sub_func_int32_t_s_s+0x38>
    6635:	8b 45 fc             	mov    -0x4(%rbp),%eax
    6638:	2b 45 f8             	sub    -0x8(%rbp),%eax
    663b:	eb 03                	jmp    6640 <safe_sub_func_int32_t_s_s+0x3b>
    663d:	8b 45 fc             	mov    -0x4(%rbp),%eax
    6640:	5d                   	pop    %rbp
    6641:	c3                   	retq   

0000000000006642 <safe_mul_func_int32_t_s_s>:
    6642:	f3 0f 1e fa          	endbr64 
    6646:	55                   	push   %rbp
    6647:	48 89 e5             	mov    %rsp,%rbp
    664a:	89 7d fc             	mov    %edi,-0x4(%rbp)
    664d:	89 75 f8             	mov    %esi,-0x8(%rbp)
    6650:	83 7d fc 00          	cmpl   $0x0,-0x4(%rbp)
    6654:	7e 14                	jle    666a <safe_mul_func_int32_t_s_s+0x28>
    6656:	83 7d f8 00          	cmpl   $0x0,-0x8(%rbp)
    665a:	7e 0e                	jle    666a <safe_mul_func_int32_t_s_s+0x28>
    665c:	b8 ff ff ff 7f       	mov    $0x7fffffff,%eax
    6661:	99                   	cltd   
    6662:	f7 7d f8             	idivl  -0x8(%rbp)
    6665:	39 45 fc             	cmp    %eax,-0x4(%rbp)
    6668:	7f 5d                	jg     66c7 <safe_mul_func_int32_t_s_s+0x85>
    666a:	83 7d fc 00          	cmpl   $0x0,-0x4(%rbp)
    666e:	7e 14                	jle    6684 <safe_mul_func_int32_t_s_s+0x42>
    6670:	83 7d f8 00          	cmpl   $0x0,-0x8(%rbp)
    6674:	7f 0e                	jg     6684 <safe_mul_func_int32_t_s_s+0x42>
    6676:	b8 00 00 00 80       	mov    $0x80000000,%eax
    667b:	99                   	cltd   
    667c:	f7 7d fc             	idivl  -0x4(%rbp)
    667f:	39 45 f8             	cmp    %eax,-0x8(%rbp)
    6682:	7c 43                	jl     66c7 <safe_mul_func_int32_t_s_s+0x85>
    6684:	83 7d fc 00          	cmpl   $0x0,-0x4(%rbp)
    6688:	7f 14                	jg     669e <safe_mul_func_int32_t_s_s+0x5c>
    668a:	83 7d f8 00          	cmpl   $0x0,-0x8(%rbp)
    668e:	7e 0e                	jle    669e <safe_mul_func_int32_t_s_s+0x5c>
    6690:	b8 00 00 00 80       	mov    $0x80000000,%eax
    6695:	99                   	cltd   
    6696:	f7 7d f8             	idivl  -0x8(%rbp)
    6699:	39 45 fc             	cmp    %eax,-0x4(%rbp)
    669c:	7c 29                	jl     66c7 <safe_mul_func_int32_t_s_s+0x85>
    669e:	83 7d fc 00          	cmpl   $0x0,-0x4(%rbp)
    66a2:	7f 1a                	jg     66be <safe_mul_func_int32_t_s_s+0x7c>
    66a4:	83 7d f8 00          	cmpl   $0x0,-0x8(%rbp)
    66a8:	7f 14                	jg     66be <safe_mul_func_int32_t_s_s+0x7c>
    66aa:	83 7d fc 00          	cmpl   $0x0,-0x4(%rbp)
    66ae:	74 0e                	je     66be <safe_mul_func_int32_t_s_s+0x7c>
    66b0:	b8 ff ff ff 7f       	mov    $0x7fffffff,%eax
    66b5:	99                   	cltd   
    66b6:	f7 7d fc             	idivl  -0x4(%rbp)
    66b9:	39 45 f8             	cmp    %eax,-0x8(%rbp)
    66bc:	7c 09                	jl     66c7 <safe_mul_func_int32_t_s_s+0x85>
    66be:	8b 45 fc             	mov    -0x4(%rbp),%eax
    66c1:	0f af 45 f8          	imul   -0x8(%rbp),%eax
    66c5:	eb 03                	jmp    66ca <safe_mul_func_int32_t_s_s+0x88>
    66c7:	8b 45 fc             	mov    -0x4(%rbp),%eax
    66ca:	5d                   	pop    %rbp
    66cb:	c3                   	retq   

00000000000066cc <safe_mod_func_int32_t_s_s>:
    66cc:	f3 0f 1e fa          	endbr64 
    66d0:	55                   	push   %rbp
    66d1:	48 89 e5             	mov    %rsp,%rbp
    66d4:	89 7d fc             	mov    %edi,-0x4(%rbp)
    66d7:	89 75 f8             	mov    %esi,-0x8(%rbp)
    66da:	83 7d f8 00          	cmpl   $0x0,-0x8(%rbp)
    66de:	74 1a                	je     66fa <safe_mod_func_int32_t_s_s+0x2e>
    66e0:	81 7d fc 00 00 00 80 	cmpl   $0x80000000,-0x4(%rbp)
    66e7:	75 06                	jne    66ef <safe_mod_func_int32_t_s_s+0x23>
    66e9:	83 7d f8 ff          	cmpl   $0xffffffff,-0x8(%rbp)
    66ed:	74 0b                	je     66fa <safe_mod_func_int32_t_s_s+0x2e>
    66ef:	8b 45 fc             	mov    -0x4(%rbp),%eax
    66f2:	99                   	cltd   
    66f3:	f7 7d f8             	idivl  -0x8(%rbp)
    66f6:	89 d0                	mov    %edx,%eax
    66f8:	eb 03                	jmp    66fd <safe_mod_func_int32_t_s_s+0x31>
    66fa:	8b 45 fc             	mov    -0x4(%rbp),%eax
    66fd:	5d                   	pop    %rbp
    66fe:	c3                   	retq   

00000000000066ff <safe_div_func_int32_t_s_s>:
    66ff:	f3 0f 1e fa          	endbr64 
    6703:	55                   	push   %rbp
    6704:	48 89 e5             	mov    %rsp,%rbp
    6707:	89 7d fc             	mov    %edi,-0x4(%rbp)
    670a:	89 75 f8             	mov    %esi,-0x8(%rbp)
    670d:	83 7d f8 00          	cmpl   $0x0,-0x8(%rbp)
    6711:	74 18                	je     672b <safe_div_func_int32_t_s_s+0x2c>
    6713:	81 7d fc 00 00 00 80 	cmpl   $0x80000000,-0x4(%rbp)
    671a:	75 06                	jne    6722 <safe_div_func_int32_t_s_s+0x23>
    671c:	83 7d f8 ff          	cmpl   $0xffffffff,-0x8(%rbp)
    6720:	74 09                	je     672b <safe_div_func_int32_t_s_s+0x2c>
    6722:	8b 45 fc             	mov    -0x4(%rbp),%eax
    6725:	99                   	cltd   
    6726:	f7 7d f8             	idivl  -0x8(%rbp)
    6729:	eb 03                	jmp    672e <safe_div_func_int32_t_s_s+0x2f>
    672b:	8b 45 fc             	mov    -0x4(%rbp),%eax
    672e:	5d                   	pop    %rbp
    672f:	c3                   	retq   

0000000000006730 <safe_lshift_func_int32_t_s_s>:
    6730:	f3 0f 1e fa          	endbr64 
    6734:	55                   	push   %rbp
    6735:	48 89 e5             	mov    %rsp,%rbp
    6738:	89 7d fc             	mov    %edi,-0x4(%rbp)
    673b:	89 75 f8             	mov    %esi,-0x8(%rbp)
    673e:	83 7d fc 00          	cmpl   $0x0,-0x4(%rbp)
    6742:	78 2d                	js     6771 <safe_lshift_func_int32_t_s_s+0x41>
    6744:	83 7d f8 00          	cmpl   $0x0,-0x8(%rbp)
    6748:	78 27                	js     6771 <safe_lshift_func_int32_t_s_s+0x41>
    674a:	83 7d f8 1f          	cmpl   $0x1f,-0x8(%rbp)
    674e:	7f 21                	jg     6771 <safe_lshift_func_int32_t_s_s+0x41>
    6750:	8b 45 f8             	mov    -0x8(%rbp),%eax
    6753:	ba ff ff ff 7f       	mov    $0x7fffffff,%edx
    6758:	89 c1                	mov    %eax,%ecx
    675a:	d3 fa                	sar    %cl,%edx
    675c:	89 d0                	mov    %edx,%eax
    675e:	39 45 fc             	cmp    %eax,-0x4(%rbp)
    6761:	7f 0e                	jg     6771 <safe_lshift_func_int32_t_s_s+0x41>
    6763:	8b 45 f8             	mov    -0x8(%rbp),%eax
    6766:	8b 55 fc             	mov    -0x4(%rbp),%edx
    6769:	89 c1                	mov    %eax,%ecx
    676b:	d3 e2                	shl    %cl,%edx
    676d:	89 d0                	mov    %edx,%eax
    676f:	eb 03                	jmp    6774 <safe_lshift_func_int32_t_s_s+0x44>
    6771:	8b 45 fc             	mov    -0x4(%rbp),%eax
    6774:	5d                   	pop    %rbp
    6775:	c3                   	retq   

0000000000006776 <safe_lshift_func_int32_t_s_u>:
    6776:	f3 0f 1e fa          	endbr64 
    677a:	55                   	push   %rbp
    677b:	48 89 e5             	mov    %rsp,%rbp
    677e:	89 7d fc             	mov    %edi,-0x4(%rbp)
    6781:	89 75 f8             	mov    %esi,-0x8(%rbp)
    6784:	83 7d fc 00          	cmpl   $0x0,-0x4(%rbp)
    6788:	78 27                	js     67b1 <safe_lshift_func_int32_t_s_u+0x3b>
    678a:	83 7d f8 1f          	cmpl   $0x1f,-0x8(%rbp)
    678e:	77 21                	ja     67b1 <safe_lshift_func_int32_t_s_u+0x3b>
    6790:	8b 45 f8             	mov    -0x8(%rbp),%eax
    6793:	ba ff ff ff 7f       	mov    $0x7fffffff,%edx
    6798:	89 c1                	mov    %eax,%ecx
    679a:	d3 fa                	sar    %cl,%edx
    679c:	89 d0                	mov    %edx,%eax
    679e:	39 45 fc             	cmp    %eax,-0x4(%rbp)
    67a1:	7f 0e                	jg     67b1 <safe_lshift_func_int32_t_s_u+0x3b>
    67a3:	8b 45 f8             	mov    -0x8(%rbp),%eax
    67a6:	8b 55 fc             	mov    -0x4(%rbp),%edx
    67a9:	89 c1                	mov    %eax,%ecx
    67ab:	d3 e2                	shl    %cl,%edx
    67ad:	89 d0                	mov    %edx,%eax
    67af:	eb 03                	jmp    67b4 <safe_lshift_func_int32_t_s_u+0x3e>
    67b1:	8b 45 fc             	mov    -0x4(%rbp),%eax
    67b4:	5d                   	pop    %rbp
    67b5:	c3                   	retq   

00000000000067b6 <safe_rshift_func_int32_t_s_s>:
    67b6:	f3 0f 1e fa          	endbr64 
    67ba:	55                   	push   %rbp
    67bb:	48 89 e5             	mov    %rsp,%rbp
    67be:	89 7d fc             	mov    %edi,-0x4(%rbp)
    67c1:	89 75 f8             	mov    %esi,-0x8(%rbp)
    67c4:	83 7d fc 00          	cmpl   $0x0,-0x4(%rbp)
    67c8:	78 1a                	js     67e4 <safe_rshift_func_int32_t_s_s+0x2e>
    67ca:	83 7d f8 00          	cmpl   $0x0,-0x8(%rbp)
    67ce:	78 14                	js     67e4 <safe_rshift_func_int32_t_s_s+0x2e>
    67d0:	83 7d f8 1f          	cmpl   $0x1f,-0x8(%rbp)
    67d4:	7f 0e                	jg     67e4 <safe_rshift_func_int32_t_s_s+0x2e>
    67d6:	8b 45 f8             	mov    -0x8(%rbp),%eax
    67d9:	8b 55 fc             	mov    -0x4(%rbp),%edx
    67dc:	89 c1                	mov    %eax,%ecx
    67de:	d3 fa                	sar    %cl,%edx
    67e0:	89 d0                	mov    %edx,%eax
    67e2:	eb 03                	jmp    67e7 <safe_rshift_func_int32_t_s_s+0x31>
    67e4:	8b 45 fc             	mov    -0x4(%rbp),%eax
    67e7:	5d                   	pop    %rbp
    67e8:	c3                   	retq   

00000000000067e9 <safe_rshift_func_int32_t_s_u>:
    67e9:	f3 0f 1e fa          	endbr64 
    67ed:	55                   	push   %rbp
    67ee:	48 89 e5             	mov    %rsp,%rbp
    67f1:	89 7d fc             	mov    %edi,-0x4(%rbp)
    67f4:	89 75 f8             	mov    %esi,-0x8(%rbp)
    67f7:	83 7d fc 00          	cmpl   $0x0,-0x4(%rbp)
    67fb:	78 14                	js     6811 <safe_rshift_func_int32_t_s_u+0x28>
    67fd:	83 7d f8 1f          	cmpl   $0x1f,-0x8(%rbp)
    6801:	77 0e                	ja     6811 <safe_rshift_func_int32_t_s_u+0x28>
    6803:	8b 45 f8             	mov    -0x8(%rbp),%eax
    6806:	8b 55 fc             	mov    -0x4(%rbp),%edx
    6809:	89 c1                	mov    %eax,%ecx
    680b:	d3 fa                	sar    %cl,%edx
    680d:	89 d0                	mov    %edx,%eax
    680f:	eb 03                	jmp    6814 <safe_rshift_func_int32_t_s_u+0x2b>
    6811:	8b 45 fc             	mov    -0x4(%rbp),%eax
    6814:	5d                   	pop    %rbp
    6815:	c3                   	retq   

0000000000006816 <safe_unary_minus_func_int64_t_s>:
    6816:	f3 0f 1e fa          	endbr64 
    681a:	55                   	push   %rbp
    681b:	48 89 e5             	mov    %rsp,%rbp
    681e:	48 89 7d f8          	mov    %rdi,-0x8(%rbp)
    6822:	48 b8 00 00 00 00 00 	movabs $0x8000000000000000,%rax
    6829:	00 00 80 
    682c:	48 39 45 f8          	cmp    %rax,-0x8(%rbp)
    6830:	74 09                	je     683b <safe_unary_minus_func_int64_t_s+0x25>
    6832:	48 8b 45 f8          	mov    -0x8(%rbp),%rax
    6836:	48 f7 d8             	neg    %rax
    6839:	eb 04                	jmp    683f <safe_unary_minus_func_int64_t_s+0x29>
    683b:	48 8b 45 f8          	mov    -0x8(%rbp),%rax
    683f:	5d                   	pop    %rbp
    6840:	c3                   	retq   

0000000000006841 <safe_add_func_int64_t_s_s>:
    6841:	f3 0f 1e fa          	endbr64 
    6845:	55                   	push   %rbp
    6846:	48 89 e5             	mov    %rsp,%rbp
    6849:	48 89 7d f8          	mov    %rdi,-0x8(%rbp)
    684d:	48 89 75 f0          	mov    %rsi,-0x10(%rbp)
    6851:	48 83 7d f8 00       	cmpq   $0x0,-0x8(%rbp)
    6856:	7e 1b                	jle    6873 <safe_add_func_int64_t_s_s+0x32>
    6858:	48 83 7d f0 00       	cmpq   $0x0,-0x10(%rbp)
    685d:	7e 14                	jle    6873 <safe_add_func_int64_t_s_s+0x32>
    685f:	48 b8 ff ff ff ff ff 	movabs $0x7fffffffffffffff,%rax
    6866:	ff ff 7f 
    6869:	48 2b 45 f0          	sub    -0x10(%rbp),%rax
    686d:	48 39 45 f8          	cmp    %rax,-0x8(%rbp)
    6871:	7f 2f                	jg     68a2 <safe_add_func_int64_t_s_s+0x61>
    6873:	48 83 7d f8 00       	cmpq   $0x0,-0x8(%rbp)
    6878:	79 1b                	jns    6895 <safe_add_func_int64_t_s_s+0x54>
    687a:	48 83 7d f0 00       	cmpq   $0x0,-0x10(%rbp)
    687f:	79 14                	jns    6895 <safe_add_func_int64_t_s_s+0x54>
    6881:	48 b8 00 00 00 00 00 	movabs $0x8000000000000000,%rax
    6888:	00 00 80 
    688b:	48 2b 45 f0          	sub    -0x10(%rbp),%rax
    688f:	48 39 45 f8          	cmp    %rax,-0x8(%rbp)
    6893:	7c 0d                	jl     68a2 <safe_add_func_int64_t_s_s+0x61>
    6895:	48 8b 55 f8          	mov    -0x8(%rbp),%rdx
    6899:	48 8b 45 f0          	mov    -0x10(%rbp),%rax
    689d:	48 01 d0             	add    %rdx,%rax
    68a0:	eb 04                	jmp    68a6 <safe_add_func_int64_t_s_s+0x65>
    68a2:	48 8b 45 f8          	mov    -0x8(%rbp),%rax
    68a6:	5d                   	pop    %rbp
    68a7:	c3                   	retq   

00000000000068a8 <safe_sub_func_int64_t_s_s>:
    68a8:	f3 0f 1e fa          	endbr64 
    68ac:	55                   	push   %rbp
    68ad:	48 89 e5             	mov    %rsp,%rbp
    68b0:	48 89 7d f8          	mov    %rdi,-0x8(%rbp)
    68b4:	48 89 75 f0          	mov    %rsi,-0x10(%rbp)
    68b8:	48 8b 45 f8          	mov    -0x8(%rbp),%rax
    68bc:	48 33 45 f0          	xor    -0x10(%rbp),%rax
    68c0:	48 89 c2             	mov    %rax,%rdx
    68c3:	48 8b 45 f8          	mov    -0x8(%rbp),%rax
    68c7:	48 33 45 f0          	xor    -0x10(%rbp),%rax
    68cb:	48 b9 00 00 00 00 00 	movabs $0x8000000000000000,%rcx
    68d2:	00 00 80 
    68d5:	48 21 c8             	and    %rcx,%rax
    68d8:	48 33 45 f8          	xor    -0x8(%rbp),%rax
    68dc:	48 2b 45 f0          	sub    -0x10(%rbp),%rax
    68e0:	48 33 45 f0          	xor    -0x10(%rbp),%rax
    68e4:	48 21 d0             	and    %rdx,%rax
    68e7:	48 85 c0             	test   %rax,%rax
    68ea:	78 0a                	js     68f6 <safe_sub_func_int64_t_s_s+0x4e>
    68ec:	48 8b 45 f8          	mov    -0x8(%rbp),%rax
    68f0:	48 2b 45 f0          	sub    -0x10(%rbp),%rax
    68f4:	eb 04                	jmp    68fa <safe_sub_func_int64_t_s_s+0x52>
    68f6:	48 8b 45 f8          	mov    -0x8(%rbp),%rax
    68fa:	5d                   	pop    %rbp
    68fb:	c3                   	retq   

00000000000068fc <safe_mul_func_int64_t_s_s>:
    68fc:	f3 0f 1e fa          	endbr64 
    6900:	55                   	push   %rbp
    6901:	48 89 e5             	mov    %rsp,%rbp
    6904:	48 89 7d f8          	mov    %rdi,-0x8(%rbp)
    6908:	48 89 75 f0          	mov    %rsi,-0x10(%rbp)
    690c:	48 83 7d f8 00       	cmpq   $0x0,-0x8(%rbp)
    6911:	7e 1d                	jle    6930 <safe_mul_func_int64_t_s_s+0x34>
    6913:	48 83 7d f0 00       	cmpq   $0x0,-0x10(%rbp)
    6918:	7e 16                	jle    6930 <safe_mul_func_int64_t_s_s+0x34>
    691a:	48 b8 ff ff ff ff ff 	movabs $0x7fffffffffffffff,%rax
    6921:	ff ff 7f 
    6924:	48 99                	cqto   
    6926:	48 f7 7d f0          	idivq  -0x10(%rbp)
    692a:	48 39 45 f8          	cmp    %rax,-0x8(%rbp)
    692e:	7f 7e                	jg     69ae <safe_mul_func_int64_t_s_s+0xb2>
    6930:	48 83 7d f8 00       	cmpq   $0x0,-0x8(%rbp)
    6935:	7e 1d                	jle    6954 <safe_mul_func_int64_t_s_s+0x58>
    6937:	48 83 7d f0 00       	cmpq   $0x0,-0x10(%rbp)
    693c:	7f 16                	jg     6954 <safe_mul_func_int64_t_s_s+0x58>
    693e:	48 b8 00 00 00 00 00 	movabs $0x8000000000000000,%rax
    6945:	00 00 80 
    6948:	48 99                	cqto   
    694a:	48 f7 7d f8          	idivq  -0x8(%rbp)
    694e:	48 39 45 f0          	cmp    %rax,-0x10(%rbp)
    6952:	7c 5a                	jl     69ae <safe_mul_func_int64_t_s_s+0xb2>
    6954:	48 83 7d f8 00       	cmpq   $0x0,-0x8(%rbp)
    6959:	7f 1d                	jg     6978 <safe_mul_func_int64_t_s_s+0x7c>
    695b:	48 83 7d f0 00       	cmpq   $0x0,-0x10(%rbp)
    6960:	7e 16                	jle    6978 <safe_mul_func_int64_t_s_s+0x7c>
    6962:	48 b8 00 00 00 00 00 	movabs $0x8000000000000000,%rax
    6969:	00 00 80 
    696c:	48 99                	cqto   
    696e:	48 f7 7d f0          	idivq  -0x10(%rbp)
    6972:	48 39 45 f8          	cmp    %rax,-0x8(%rbp)
    6976:	7c 36                	jl     69ae <safe_mul_func_int64_t_s_s+0xb2>
    6978:	48 83 7d f8 00       	cmpq   $0x0,-0x8(%rbp)
    697d:	7f 24                	jg     69a3 <safe_mul_func_int64_t_s_s+0xa7>
    697f:	48 83 7d f0 00       	cmpq   $0x0,-0x10(%rbp)
    6984:	7f 1d                	jg     69a3 <safe_mul_func_int64_t_s_s+0xa7>
    6986:	48 83 7d f8 00       	cmpq   $0x0,-0x8(%rbp)
    698b:	74 16                	je     69a3 <safe_mul_func_int64_t_s_s+0xa7>
    698d:	48 b8 ff ff ff ff ff 	movabs $0x7fffffffffffffff,%rax
    6994:	ff ff 7f 
    6997:	48 99                	cqto   
    6999:	48 f7 7d f8          	idivq  -0x8(%rbp)
    699d:	48 39 45 f0          	cmp    %rax,-0x10(%rbp)
    69a1:	7c 0b                	jl     69ae <safe_mul_func_int64_t_s_s+0xb2>
    69a3:	48 8b 45 f8          	mov    -0x8(%rbp),%rax
    69a7:	48 0f af 45 f0       	imul   -0x10(%rbp),%rax
    69ac:	eb 04                	jmp    69b2 <safe_mul_func_int64_t_s_s+0xb6>
    69ae:	48 8b 45 f8          	mov    -0x8(%rbp),%rax
    69b2:	5d                   	pop    %rbp
    69b3:	c3                   	retq   

00000000000069b4 <safe_mod_func_int64_t_s_s>:
    69b4:	f3 0f 1e fa          	endbr64 
    69b8:	55                   	push   %rbp
    69b9:	48 89 e5             	mov    %rsp,%rbp
    69bc:	48 89 7d f8          	mov    %rdi,-0x8(%rbp)
    69c0:	48 89 75 f0          	mov    %rsi,-0x10(%rbp)
    69c4:	48 83 7d f0 00       	cmpq   $0x0,-0x10(%rbp)
    69c9:	74 26                	je     69f1 <safe_mod_func_int64_t_s_s+0x3d>
    69cb:	48 b8 00 00 00 00 00 	movabs $0x8000000000000000,%rax
    69d2:	00 00 80 
    69d5:	48 39 45 f8          	cmp    %rax,-0x8(%rbp)
    69d9:	75 07                	jne    69e2 <safe_mod_func_int64_t_s_s+0x2e>
    69db:	48 83 7d f0 ff       	cmpq   $0xffffffffffffffff,-0x10(%rbp)
    69e0:	74 0f                	je     69f1 <safe_mod_func_int64_t_s_s+0x3d>
    69e2:	48 8b 45 f8          	mov    -0x8(%rbp),%rax
    69e6:	48 99                	cqto   
    69e8:	48 f7 7d f0          	idivq  -0x10(%rbp)
    69ec:	48 89 d0             	mov    %rdx,%rax
    69ef:	eb 04                	jmp    69f5 <safe_mod_func_int64_t_s_s+0x41>
    69f1:	48 8b 45 f8          	mov    -0x8(%rbp),%rax
    69f5:	5d                   	pop    %rbp
    69f6:	c3                   	retq   

00000000000069f7 <safe_div_func_int64_t_s_s>:
    69f7:	f3 0f 1e fa          	endbr64 
    69fb:	55                   	push   %rbp
    69fc:	48 89 e5             	mov    %rsp,%rbp
    69ff:	48 89 7d f8          	mov    %rdi,-0x8(%rbp)
    6a03:	48 89 75 f0          	mov    %rsi,-0x10(%rbp)
    6a07:	48 83 7d f0 00       	cmpq   $0x0,-0x10(%rbp)
    6a0c:	74 23                	je     6a31 <safe_div_func_int64_t_s_s+0x3a>
    6a0e:	48 b8 00 00 00 00 00 	movabs $0x8000000000000000,%rax
    6a15:	00 00 80 
    6a18:	48 39 45 f8          	cmp    %rax,-0x8(%rbp)
    6a1c:	75 07                	jne    6a25 <safe_div_func_int64_t_s_s+0x2e>
    6a1e:	48 83 7d f0 ff       	cmpq   $0xffffffffffffffff,-0x10(%rbp)
    6a23:	74 0c                	je     6a31 <safe_div_func_int64_t_s_s+0x3a>
    6a25:	48 8b 45 f8          	mov    -0x8(%rbp),%rax
    6a29:	48 99                	cqto   
    6a2b:	48 f7 7d f0          	idivq  -0x10(%rbp)
    6a2f:	eb 04                	jmp    6a35 <safe_div_func_int64_t_s_s+0x3e>
    6a31:	48 8b 45 f8          	mov    -0x8(%rbp),%rax
    6a35:	5d                   	pop    %rbp
    6a36:	c3                   	retq   

0000000000006a37 <safe_lshift_func_int64_t_s_s>:
    6a37:	f3 0f 1e fa          	endbr64 
    6a3b:	55                   	push   %rbp
    6a3c:	48 89 e5             	mov    %rsp,%rbp
    6a3f:	48 89 7d f8          	mov    %rdi,-0x8(%rbp)
    6a43:	89 75 f4             	mov    %esi,-0xc(%rbp)
    6a46:	48 83 7d f8 00       	cmpq   $0x0,-0x8(%rbp)
    6a4b:	78 38                	js     6a85 <safe_lshift_func_int64_t_s_s+0x4e>
    6a4d:	83 7d f4 00          	cmpl   $0x0,-0xc(%rbp)
    6a51:	78 32                	js     6a85 <safe_lshift_func_int64_t_s_s+0x4e>
    6a53:	83 7d f4 1f          	cmpl   $0x1f,-0xc(%rbp)
    6a57:	7f 2c                	jg     6a85 <safe_lshift_func_int64_t_s_s+0x4e>
    6a59:	8b 45 f4             	mov    -0xc(%rbp),%eax
    6a5c:	48 ba ff ff ff ff ff 	movabs $0x7fffffffffffffff,%rdx
    6a63:	ff ff 7f 
    6a66:	89 c1                	mov    %eax,%ecx
    6a68:	48 d3 fa             	sar    %cl,%rdx
    6a6b:	48 89 d0             	mov    %rdx,%rax
    6a6e:	48 39 45 f8          	cmp    %rax,-0x8(%rbp)
    6a72:	7f 11                	jg     6a85 <safe_lshift_func_int64_t_s_s+0x4e>
    6a74:	8b 45 f4             	mov    -0xc(%rbp),%eax
    6a77:	48 8b 55 f8          	mov    -0x8(%rbp),%rdx
    6a7b:	89 c1                	mov    %eax,%ecx
    6a7d:	48 d3 e2             	shl    %cl,%rdx
    6a80:	48 89 d0             	mov    %rdx,%rax
    6a83:	eb 04                	jmp    6a89 <safe_lshift_func_int64_t_s_s+0x52>
    6a85:	48 8b 45 f8          	mov    -0x8(%rbp),%rax
    6a89:	5d                   	pop    %rbp
    6a8a:	c3                   	retq   

0000000000006a8b <safe_lshift_func_int64_t_s_u>:
    6a8b:	f3 0f 1e fa          	endbr64 
    6a8f:	55                   	push   %rbp
    6a90:	48 89 e5             	mov    %rsp,%rbp
    6a93:	48 89 7d f8          	mov    %rdi,-0x8(%rbp)
    6a97:	89 75 f4             	mov    %esi,-0xc(%rbp)
    6a9a:	48 83 7d f8 00       	cmpq   $0x0,-0x8(%rbp)
    6a9f:	78 32                	js     6ad3 <safe_lshift_func_int64_t_s_u+0x48>
    6aa1:	83 7d f4 1f          	cmpl   $0x1f,-0xc(%rbp)
    6aa5:	77 2c                	ja     6ad3 <safe_lshift_func_int64_t_s_u+0x48>
    6aa7:	8b 45 f4             	mov    -0xc(%rbp),%eax
    6aaa:	48 ba ff ff ff ff ff 	movabs $0x7fffffffffffffff,%rdx
    6ab1:	ff ff 7f 
    6ab4:	89 c1                	mov    %eax,%ecx
    6ab6:	48 d3 fa             	sar    %cl,%rdx
    6ab9:	48 89 d0             	mov    %rdx,%rax
    6abc:	48 39 45 f8          	cmp    %rax,-0x8(%rbp)
    6ac0:	7f 11                	jg     6ad3 <safe_lshift_func_int64_t_s_u+0x48>
    6ac2:	8b 45 f4             	mov    -0xc(%rbp),%eax
    6ac5:	48 8b 55 f8          	mov    -0x8(%rbp),%rdx
    6ac9:	89 c1                	mov    %eax,%ecx
    6acb:	48 d3 e2             	shl    %cl,%rdx
    6ace:	48 89 d0             	mov    %rdx,%rax
    6ad1:	eb 04                	jmp    6ad7 <safe_lshift_func_int64_t_s_u+0x4c>
    6ad3:	48 8b 45 f8          	mov    -0x8(%rbp),%rax
    6ad7:	5d                   	pop    %rbp
    6ad8:	c3                   	retq   

0000000000006ad9 <safe_rshift_func_int64_t_s_s>:
    6ad9:	f3 0f 1e fa          	endbr64 
    6add:	55                   	push   %rbp
    6ade:	48 89 e5             	mov    %rsp,%rbp
    6ae1:	48 89 7d f8          	mov    %rdi,-0x8(%rbp)
    6ae5:	89 75 f4             	mov    %esi,-0xc(%rbp)
    6ae8:	48 83 7d f8 00       	cmpq   $0x0,-0x8(%rbp)
    6aed:	78 1d                	js     6b0c <safe_rshift_func_int64_t_s_s+0x33>
    6aef:	83 7d f4 00          	cmpl   $0x0,-0xc(%rbp)
    6af3:	78 17                	js     6b0c <safe_rshift_func_int64_t_s_s+0x33>
    6af5:	83 7d f4 1f          	cmpl   $0x1f,-0xc(%rbp)
    6af9:	7f 11                	jg     6b0c <safe_rshift_func_int64_t_s_s+0x33>
    6afb:	8b 45 f4             	mov    -0xc(%rbp),%eax
    6afe:	48 8b 55 f8          	mov    -0x8(%rbp),%rdx
    6b02:	89 c1                	mov    %eax,%ecx
    6b04:	48 d3 fa             	sar    %cl,%rdx
    6b07:	48 89 d0             	mov    %rdx,%rax
    6b0a:	eb 04                	jmp    6b10 <safe_rshift_func_int64_t_s_s+0x37>
    6b0c:	48 8b 45 f8          	mov    -0x8(%rbp),%rax
    6b10:	5d                   	pop    %rbp
    6b11:	c3                   	retq   

0000000000006b12 <safe_rshift_func_int64_t_s_u>:
    6b12:	f3 0f 1e fa          	endbr64 
    6b16:	55                   	push   %rbp
    6b17:	48 89 e5             	mov    %rsp,%rbp
    6b1a:	48 89 7d f8          	mov    %rdi,-0x8(%rbp)
    6b1e:	89 75 f4             	mov    %esi,-0xc(%rbp)
    6b21:	48 83 7d f8 00       	cmpq   $0x0,-0x8(%rbp)
    6b26:	78 17                	js     6b3f <safe_rshift_func_int64_t_s_u+0x2d>
    6b28:	83 7d f4 1f          	cmpl   $0x1f,-0xc(%rbp)
    6b2c:	77 11                	ja     6b3f <safe_rshift_func_int64_t_s_u+0x2d>
    6b2e:	8b 45 f4             	mov    -0xc(%rbp),%eax
    6b31:	48 8b 55 f8          	mov    -0x8(%rbp),%rdx
    6b35:	89 c1                	mov    %eax,%ecx
    6b37:	48 d3 fa             	sar    %cl,%rdx
    6b3a:	48 89 d0             	mov    %rdx,%rax
    6b3d:	eb 04                	jmp    6b43 <safe_rshift_func_int64_t_s_u+0x31>
    6b3f:	48 8b 45 f8          	mov    -0x8(%rbp),%rax
    6b43:	5d                   	pop    %rbp
    6b44:	c3                   	retq   

0000000000006b45 <safe_unary_minus_func_uint8_t_u>:
    6b45:	f3 0f 1e fa          	endbr64 
    6b49:	55                   	push   %rbp
    6b4a:	48 89 e5             	mov    %rsp,%rbp
    6b4d:	89 f8                	mov    %edi,%eax
    6b4f:	88 45 fc             	mov    %al,-0x4(%rbp)
    6b52:	0f b6 45 fc          	movzbl -0x4(%rbp),%eax
    6b56:	f7 d8                	neg    %eax
    6b58:	5d                   	pop    %rbp
    6b59:	c3                   	retq   

0000000000006b5a <safe_add_func_uint8_t_u_u>:
    6b5a:	f3 0f 1e fa          	endbr64 
    6b5e:	55                   	push   %rbp
    6b5f:	48 89 e5             	mov    %rsp,%rbp
    6b62:	89 fa                	mov    %edi,%edx
    6b64:	89 f0                	mov    %esi,%eax
    6b66:	88 55 fc             	mov    %dl,-0x4(%rbp)
    6b69:	88 45 f8             	mov    %al,-0x8(%rbp)
    6b6c:	0f b6 55 fc          	movzbl -0x4(%rbp),%edx
    6b70:	0f b6 45 f8          	movzbl -0x8(%rbp),%eax
    6b74:	01 d0                	add    %edx,%eax
    6b76:	5d                   	pop    %rbp
    6b77:	c3                   	retq   

0000000000006b78 <safe_sub_func_uint8_t_u_u>:
    6b78:	f3 0f 1e fa          	endbr64 
    6b7c:	55                   	push   %rbp
    6b7d:	48 89 e5             	mov    %rsp,%rbp
    6b80:	89 fa                	mov    %edi,%edx
    6b82:	89 f0                	mov    %esi,%eax
    6b84:	88 55 fc             	mov    %dl,-0x4(%rbp)
    6b87:	88 45 f8             	mov    %al,-0x8(%rbp)
    6b8a:	0f b6 45 fc          	movzbl -0x4(%rbp),%eax
    6b8e:	2a 45 f8             	sub    -0x8(%rbp),%al
    6b91:	5d                   	pop    %rbp
    6b92:	c3                   	retq   

0000000000006b93 <safe_mul_func_uint8_t_u_u>:
    6b93:	f3 0f 1e fa          	endbr64 
    6b97:	55                   	push   %rbp
    6b98:	48 89 e5             	mov    %rsp,%rbp
    6b9b:	89 fa                	mov    %edi,%edx
    6b9d:	89 f0                	mov    %esi,%eax
    6b9f:	88 55 fc             	mov    %dl,-0x4(%rbp)
    6ba2:	88 45 f8             	mov    %al,-0x8(%rbp)
    6ba5:	0f b6 45 fc          	movzbl -0x4(%rbp),%eax
    6ba9:	f6 65 f8             	mulb   -0x8(%rbp)
    6bac:	5d                   	pop    %rbp
    6bad:	c3                   	retq   

0000000000006bae <safe_mod_func_uint8_t_u_u>:
    6bae:	f3 0f 1e fa          	endbr64 
    6bb2:	55                   	push   %rbp
    6bb3:	48 89 e5             	mov    %rsp,%rbp
    6bb6:	89 fa                	mov    %edi,%edx
    6bb8:	89 f0                	mov    %esi,%eax
    6bba:	88 55 fc             	mov    %dl,-0x4(%rbp)
    6bbd:	88 45 f8             	mov    %al,-0x8(%rbp)
    6bc0:	80 7d f8 00          	cmpb   $0x0,-0x8(%rbp)
    6bc4:	74 0f                	je     6bd5 <safe_mod_func_uint8_t_u_u+0x27>
    6bc6:	0f b6 45 fc          	movzbl -0x4(%rbp),%eax
    6bca:	0f b6 c0             	movzbl %al,%eax
    6bcd:	f6 75 f8             	divb   -0x8(%rbp)
    6bd0:	0f b6 c4             	movzbl %ah,%eax
    6bd3:	eb 04                	jmp    6bd9 <safe_mod_func_uint8_t_u_u+0x2b>
    6bd5:	0f b6 45 fc          	movzbl -0x4(%rbp),%eax
    6bd9:	5d                   	pop    %rbp
    6bda:	c3                   	retq   

0000000000006bdb <safe_div_func_uint8_t_u_u>:
    6bdb:	f3 0f 1e fa          	endbr64 
    6bdf:	55                   	push   %rbp
    6be0:	48 89 e5             	mov    %rsp,%rbp
    6be3:	89 fa                	mov    %edi,%edx
    6be5:	89 f0                	mov    %esi,%eax
    6be7:	88 55 fc             	mov    %dl,-0x4(%rbp)
    6bea:	88 45 f8             	mov    %al,-0x8(%rbp)
    6bed:	80 7d f8 00          	cmpb   $0x0,-0x8(%rbp)
    6bf1:	74 0c                	je     6bff <safe_div_func_uint8_t_u_u+0x24>
    6bf3:	0f b6 45 fc          	movzbl -0x4(%rbp),%eax
    6bf7:	0f b6 c0             	movzbl %al,%eax
    6bfa:	f6 75 f8             	divb   -0x8(%rbp)
    6bfd:	eb 04                	jmp    6c03 <safe_div_func_uint8_t_u_u+0x28>
    6bff:	0f b6 45 fc          	movzbl -0x4(%rbp),%eax
    6c03:	5d                   	pop    %rbp
    6c04:	c3                   	retq   

0000000000006c05 <safe_lshift_func_uint8_t_u_s>:
    6c05:	f3 0f 1e fa          	endbr64 
    6c09:	55                   	push   %rbp
    6c0a:	48 89 e5             	mov    %rsp,%rbp
    6c0d:	89 f8                	mov    %edi,%eax
    6c0f:	89 75 f8             	mov    %esi,-0x8(%rbp)
    6c12:	88 45 fc             	mov    %al,-0x4(%rbp)
    6c15:	83 7d f8 00          	cmpl   $0x0,-0x8(%rbp)
    6c19:	78 2b                	js     6c46 <safe_lshift_func_uint8_t_u_s+0x41>
    6c1b:	83 7d f8 1f          	cmpl   $0x1f,-0x8(%rbp)
    6c1f:	7f 25                	jg     6c46 <safe_lshift_func_uint8_t_u_s+0x41>
    6c21:	0f b6 55 fc          	movzbl -0x4(%rbp),%edx
    6c25:	8b 45 f8             	mov    -0x8(%rbp),%eax
    6c28:	be ff 00 00 00       	mov    $0xff,%esi
    6c2d:	89 c1                	mov    %eax,%ecx
    6c2f:	d3 fe                	sar    %cl,%esi
    6c31:	89 f0                	mov    %esi,%eax
    6c33:	39 c2                	cmp    %eax,%edx
    6c35:	7f 0f                	jg     6c46 <safe_lshift_func_uint8_t_u_s+0x41>
    6c37:	0f b6 55 fc          	movzbl -0x4(%rbp),%edx
    6c3b:	8b 45 f8             	mov    -0x8(%rbp),%eax
    6c3e:	89 c1                	mov    %eax,%ecx
    6c40:	d3 e2                	shl    %cl,%edx
    6c42:	89 d0                	mov    %edx,%eax
    6c44:	eb 04                	jmp    6c4a <safe_lshift_func_uint8_t_u_s+0x45>
    6c46:	0f b6 45 fc          	movzbl -0x4(%rbp),%eax
    6c4a:	5d                   	pop    %rbp
    6c4b:	c3                   	retq   

0000000000006c4c <safe_lshift_func_uint8_t_u_u>:
    6c4c:	f3 0f 1e fa          	endbr64 
    6c50:	55                   	push   %rbp
    6c51:	48 89 e5             	mov    %rsp,%rbp
    6c54:	89 f8                	mov    %edi,%eax
    6c56:	89 75 f8             	mov    %esi,-0x8(%rbp)
    6c59:	88 45 fc             	mov    %al,-0x4(%rbp)
    6c5c:	83 7d f8 1f          	cmpl   $0x1f,-0x8(%rbp)
    6c60:	77 25                	ja     6c87 <safe_lshift_func_uint8_t_u_u+0x3b>
    6c62:	0f b6 55 fc          	movzbl -0x4(%rbp),%edx
    6c66:	8b 45 f8             	mov    -0x8(%rbp),%eax
    6c69:	be ff 00 00 00       	mov    $0xff,%esi
    6c6e:	89 c1                	mov    %eax,%ecx
    6c70:	d3 fe                	sar    %cl,%esi
    6c72:	89 f0                	mov    %esi,%eax
    6c74:	39 c2                	cmp    %eax,%edx
    6c76:	7f 0f                	jg     6c87 <safe_lshift_func_uint8_t_u_u+0x3b>
    6c78:	0f b6 55 fc          	movzbl -0x4(%rbp),%edx
    6c7c:	8b 45 f8             	mov    -0x8(%rbp),%eax
    6c7f:	89 c1                	mov    %eax,%ecx
    6c81:	d3 e2                	shl    %cl,%edx
    6c83:	89 d0                	mov    %edx,%eax
    6c85:	eb 04                	jmp    6c8b <safe_lshift_func_uint8_t_u_u+0x3f>
    6c87:	0f b6 45 fc          	movzbl -0x4(%rbp),%eax
    6c8b:	5d                   	pop    %rbp
    6c8c:	c3                   	retq   

0000000000006c8d <safe_rshift_func_uint8_t_u_s>:
    6c8d:	f3 0f 1e fa          	endbr64 
    6c91:	55                   	push   %rbp
    6c92:	48 89 e5             	mov    %rsp,%rbp
    6c95:	89 f8                	mov    %edi,%eax
    6c97:	89 75 f8             	mov    %esi,-0x8(%rbp)
    6c9a:	88 45 fc             	mov    %al,-0x4(%rbp)
    6c9d:	83 7d f8 00          	cmpl   $0x0,-0x8(%rbp)
    6ca1:	78 15                	js     6cb8 <safe_rshift_func_uint8_t_u_s+0x2b>
    6ca3:	83 7d f8 1f          	cmpl   $0x1f,-0x8(%rbp)
    6ca7:	7f 0f                	jg     6cb8 <safe_rshift_func_uint8_t_u_s+0x2b>
    6ca9:	0f b6 55 fc          	movzbl -0x4(%rbp),%edx
    6cad:	8b 45 f8             	mov    -0x8(%rbp),%eax
    6cb0:	89 c1                	mov    %eax,%ecx
    6cb2:	d3 fa                	sar    %cl,%edx
    6cb4:	89 d0                	mov    %edx,%eax
    6cb6:	eb 04                	jmp    6cbc <safe_rshift_func_uint8_t_u_s+0x2f>
    6cb8:	0f b6 45 fc          	movzbl -0x4(%rbp),%eax
    6cbc:	5d                   	pop    %rbp
    6cbd:	c3                   	retq   

0000000000006cbe <safe_rshift_func_uint8_t_u_u>:
    6cbe:	f3 0f 1e fa          	endbr64 
    6cc2:	55                   	push   %rbp
    6cc3:	48 89 e5             	mov    %rsp,%rbp
    6cc6:	89 f8                	mov    %edi,%eax
    6cc8:	89 75 f8             	mov    %esi,-0x8(%rbp)
    6ccb:	88 45 fc             	mov    %al,-0x4(%rbp)
    6cce:	83 7d f8 1f          	cmpl   $0x1f,-0x8(%rbp)
    6cd2:	77 0f                	ja     6ce3 <safe_rshift_func_uint8_t_u_u+0x25>
    6cd4:	0f b6 55 fc          	movzbl -0x4(%rbp),%edx
    6cd8:	8b 45 f8             	mov    -0x8(%rbp),%eax
    6cdb:	89 c1                	mov    %eax,%ecx
    6cdd:	d3 fa                	sar    %cl,%edx
    6cdf:	89 d0                	mov    %edx,%eax
    6ce1:	eb 04                	jmp    6ce7 <safe_rshift_func_uint8_t_u_u+0x29>
    6ce3:	0f b6 45 fc          	movzbl -0x4(%rbp),%eax
    6ce7:	5d                   	pop    %rbp
    6ce8:	c3                   	retq   

0000000000006ce9 <safe_unary_minus_func_uint16_t_u>:
    6ce9:	f3 0f 1e fa          	endbr64 
    6ced:	55                   	push   %rbp
    6cee:	48 89 e5             	mov    %rsp,%rbp
    6cf1:	89 f8                	mov    %edi,%eax
    6cf3:	66 89 45 fc          	mov    %ax,-0x4(%rbp)
    6cf7:	0f b7 45 fc          	movzwl -0x4(%rbp),%eax
    6cfb:	f7 d8                	neg    %eax
    6cfd:	5d                   	pop    %rbp
    6cfe:	c3                   	retq   

0000000000006cff <safe_add_func_uint16_t_u_u>:
    6cff:	f3 0f 1e fa          	endbr64 
    6d03:	55                   	push   %rbp
    6d04:	48 89 e5             	mov    %rsp,%rbp
    6d07:	89 fa                	mov    %edi,%edx
    6d09:	89 f0                	mov    %esi,%eax
    6d0b:	66 89 55 fc          	mov    %dx,-0x4(%rbp)
    6d0f:	66 89 45 f8          	mov    %ax,-0x8(%rbp)
    6d13:	0f b7 55 fc          	movzwl -0x4(%rbp),%edx
    6d17:	0f b7 45 f8          	movzwl -0x8(%rbp),%eax
    6d1b:	01 d0                	add    %edx,%eax
    6d1d:	5d                   	pop    %rbp
    6d1e:	c3                   	retq   

0000000000006d1f <safe_sub_func_uint16_t_u_u>:
    6d1f:	f3 0f 1e fa          	endbr64 
    6d23:	55                   	push   %rbp
    6d24:	48 89 e5             	mov    %rsp,%rbp
    6d27:	89 fa                	mov    %edi,%edx
    6d29:	89 f0                	mov    %esi,%eax
    6d2b:	66 89 55 fc          	mov    %dx,-0x4(%rbp)
    6d2f:	66 89 45 f8          	mov    %ax,-0x8(%rbp)
    6d33:	0f b7 45 fc          	movzwl -0x4(%rbp),%eax
    6d37:	66 2b 45 f8          	sub    -0x8(%rbp),%ax
    6d3b:	5d                   	pop    %rbp
    6d3c:	c3                   	retq   

0000000000006d3d <safe_mul_func_uint16_t_u_u>:
    6d3d:	f3 0f 1e fa          	endbr64 
    6d41:	55                   	push   %rbp
    6d42:	48 89 e5             	mov    %rsp,%rbp
    6d45:	89 fa                	mov    %edi,%edx
    6d47:	89 f0                	mov    %esi,%eax
    6d49:	66 89 55 fc          	mov    %dx,-0x4(%rbp)
    6d4d:	66 89 45 f8          	mov    %ax,-0x8(%rbp)
    6d51:	0f b7 45 fc          	movzwl -0x4(%rbp),%eax
    6d55:	66 0f af 45 f8       	imul   -0x8(%rbp),%ax
    6d5a:	5d                   	pop    %rbp
    6d5b:	c3                   	retq   

0000000000006d5c <safe_mod_func_uint16_t_u_u>:
    6d5c:	f3 0f 1e fa          	endbr64 
    6d60:	55                   	push   %rbp
    6d61:	48 89 e5             	mov    %rsp,%rbp
    6d64:	89 fa                	mov    %edi,%edx
    6d66:	89 f0                	mov    %esi,%eax
    6d68:	66 89 55 fc          	mov    %dx,-0x4(%rbp)
    6d6c:	66 89 45 f8          	mov    %ax,-0x8(%rbp)
    6d70:	66 83 7d f8 00       	cmpw   $0x0,-0x8(%rbp)
    6d75:	74 11                	je     6d88 <safe_mod_func_uint16_t_u_u+0x2c>
    6d77:	0f b7 45 fc          	movzwl -0x4(%rbp),%eax
    6d7b:	ba 00 00 00 00       	mov    $0x0,%edx
    6d80:	66 f7 75 f8          	divw   -0x8(%rbp)
    6d84:	89 d0                	mov    %edx,%eax
    6d86:	eb 04                	jmp    6d8c <safe_mod_func_uint16_t_u_u+0x30>
    6d88:	0f b7 45 fc          	movzwl -0x4(%rbp),%eax
    6d8c:	5d                   	pop    %rbp
    6d8d:	c3                   	retq   

0000000000006d8e <safe_div_func_uint16_t_u_u>:
    6d8e:	f3 0f 1e fa          	endbr64 
    6d92:	55                   	push   %rbp
    6d93:	48 89 e5             	mov    %rsp,%rbp
    6d96:	89 fa                	mov    %edi,%edx
    6d98:	89 f0                	mov    %esi,%eax
    6d9a:	66 89 55 fc          	mov    %dx,-0x4(%rbp)
    6d9e:	66 89 45 f8          	mov    %ax,-0x8(%rbp)
    6da2:	66 83 7d f8 00       	cmpw   $0x0,-0x8(%rbp)
    6da7:	74 0f                	je     6db8 <safe_div_func_uint16_t_u_u+0x2a>
    6da9:	0f b7 45 fc          	movzwl -0x4(%rbp),%eax
    6dad:	ba 00 00 00 00       	mov    $0x0,%edx
    6db2:	66 f7 75 f8          	divw   -0x8(%rbp)
    6db6:	eb 04                	jmp    6dbc <safe_div_func_uint16_t_u_u+0x2e>
    6db8:	0f b7 45 fc          	movzwl -0x4(%rbp),%eax
    6dbc:	5d                   	pop    %rbp
    6dbd:	c3                   	retq   

0000000000006dbe <safe_lshift_func_uint16_t_u_s>:
    6dbe:	f3 0f 1e fa          	endbr64 
    6dc2:	55                   	push   %rbp
    6dc3:	48 89 e5             	mov    %rsp,%rbp
    6dc6:	89 f8                	mov    %edi,%eax
    6dc8:	89 75 f8             	mov    %esi,-0x8(%rbp)
    6dcb:	66 89 45 fc          	mov    %ax,-0x4(%rbp)
    6dcf:	83 7d f8 00          	cmpl   $0x0,-0x8(%rbp)
    6dd3:	78 2b                	js     6e00 <safe_lshift_func_uint16_t_u_s+0x42>
    6dd5:	83 7d f8 1f          	cmpl   $0x1f,-0x8(%rbp)
    6dd9:	7f 25                	jg     6e00 <safe_lshift_func_uint16_t_u_s+0x42>
    6ddb:	0f b7 55 fc          	movzwl -0x4(%rbp),%edx
    6ddf:	8b 45 f8             	mov    -0x8(%rbp),%eax
    6de2:	be ff ff 00 00       	mov    $0xffff,%esi
    6de7:	89 c1                	mov    %eax,%ecx
    6de9:	d3 fe                	sar    %cl,%esi
    6deb:	89 f0                	mov    %esi,%eax
    6ded:	39 c2                	cmp    %eax,%edx
    6def:	7f 0f                	jg     6e00 <safe_lshift_func_uint16_t_u_s+0x42>
    6df1:	0f b7 55 fc          	movzwl -0x4(%rbp),%edx
    6df5:	8b 45 f8             	mov    -0x8(%rbp),%eax
    6df8:	89 c1                	mov    %eax,%ecx
    6dfa:	d3 e2                	shl    %cl,%edx
    6dfc:	89 d0                	mov    %edx,%eax
    6dfe:	eb 04                	jmp    6e04 <safe_lshift_func_uint16_t_u_s+0x46>
    6e00:	0f b7 45 fc          	movzwl -0x4(%rbp),%eax
    6e04:	5d                   	pop    %rbp
    6e05:	c3                   	retq   

0000000000006e06 <safe_lshift_func_uint16_t_u_u>:
    6e06:	f3 0f 1e fa          	endbr64 
    6e0a:	55                   	push   %rbp
    6e0b:	48 89 e5             	mov    %rsp,%rbp
    6e0e:	89 f8                	mov    %edi,%eax
    6e10:	89 75 f8             	mov    %esi,-0x8(%rbp)
    6e13:	66 89 45 fc          	mov    %ax,-0x4(%rbp)
    6e17:	83 7d f8 1f          	cmpl   $0x1f,-0x8(%rbp)
    6e1b:	77 25                	ja     6e42 <safe_lshift_func_uint16_t_u_u+0x3c>
    6e1d:	0f b7 55 fc          	movzwl -0x4(%rbp),%edx
    6e21:	8b 45 f8             	mov    -0x8(%rbp),%eax
    6e24:	be ff ff 00 00       	mov    $0xffff,%esi
    6e29:	89 c1                	mov    %eax,%ecx
    6e2b:	d3 fe                	sar    %cl,%esi
    6e2d:	89 f0                	mov    %esi,%eax
    6e2f:	39 c2                	cmp    %eax,%edx
    6e31:	7f 0f                	jg     6e42 <safe_lshift_func_uint16_t_u_u+0x3c>
    6e33:	0f b7 55 fc          	movzwl -0x4(%rbp),%edx
    6e37:	8b 45 f8             	mov    -0x8(%rbp),%eax
    6e3a:	89 c1                	mov    %eax,%ecx
    6e3c:	d3 e2                	shl    %cl,%edx
    6e3e:	89 d0                	mov    %edx,%eax
    6e40:	eb 04                	jmp    6e46 <safe_lshift_func_uint16_t_u_u+0x40>
    6e42:	0f b7 45 fc          	movzwl -0x4(%rbp),%eax
    6e46:	5d                   	pop    %rbp
    6e47:	c3                   	retq   

0000000000006e48 <safe_rshift_func_uint16_t_u_s>:
    6e48:	f3 0f 1e fa          	endbr64 
    6e4c:	55                   	push   %rbp
    6e4d:	48 89 e5             	mov    %rsp,%rbp
    6e50:	89 f8                	mov    %edi,%eax
    6e52:	89 75 f8             	mov    %esi,-0x8(%rbp)
    6e55:	66 89 45 fc          	mov    %ax,-0x4(%rbp)
    6e59:	83 7d f8 00          	cmpl   $0x0,-0x8(%rbp)
    6e5d:	78 15                	js     6e74 <safe_rshift_func_uint16_t_u_s+0x2c>
    6e5f:	83 7d f8 1f          	cmpl   $0x1f,-0x8(%rbp)
    6e63:	7f 0f                	jg     6e74 <safe_rshift_func_uint16_t_u_s+0x2c>
    6e65:	0f b7 55 fc          	movzwl -0x4(%rbp),%edx
    6e69:	8b 45 f8             	mov    -0x8(%rbp),%eax
    6e6c:	89 c1                	mov    %eax,%ecx
    6e6e:	d3 fa                	sar    %cl,%edx
    6e70:	89 d0                	mov    %edx,%eax
    6e72:	eb 04                	jmp    6e78 <safe_rshift_func_uint16_t_u_s+0x30>
    6e74:	0f b7 45 fc          	movzwl -0x4(%rbp),%eax
    6e78:	5d                   	pop    %rbp
    6e79:	c3                   	retq   

0000000000006e7a <safe_rshift_func_uint16_t_u_u>:
    6e7a:	f3 0f 1e fa          	endbr64 
    6e7e:	55                   	push   %rbp
    6e7f:	48 89 e5             	mov    %rsp,%rbp
    6e82:	89 f8                	mov    %edi,%eax
    6e84:	89 75 f8             	mov    %esi,-0x8(%rbp)
    6e87:	66 89 45 fc          	mov    %ax,-0x4(%rbp)
    6e8b:	83 7d f8 1f          	cmpl   $0x1f,-0x8(%rbp)
    6e8f:	77 0f                	ja     6ea0 <safe_rshift_func_uint16_t_u_u+0x26>
    6e91:	0f b7 55 fc          	movzwl -0x4(%rbp),%edx
    6e95:	8b 45 f8             	mov    -0x8(%rbp),%eax
    6e98:	89 c1                	mov    %eax,%ecx
    6e9a:	d3 fa                	sar    %cl,%edx
    6e9c:	89 d0                	mov    %edx,%eax
    6e9e:	eb 04                	jmp    6ea4 <safe_rshift_func_uint16_t_u_u+0x2a>
    6ea0:	0f b7 45 fc          	movzwl -0x4(%rbp),%eax
    6ea4:	5d                   	pop    %rbp
    6ea5:	c3                   	retq   

0000000000006ea6 <safe_unary_minus_func_uint32_t_u>:
    6ea6:	f3 0f 1e fa          	endbr64 
    6eaa:	55                   	push   %rbp
    6eab:	48 89 e5             	mov    %rsp,%rbp
    6eae:	89 7d fc             	mov    %edi,-0x4(%rbp)
    6eb1:	8b 45 fc             	mov    -0x4(%rbp),%eax
    6eb4:	f7 d8                	neg    %eax
    6eb6:	5d                   	pop    %rbp
    6eb7:	c3                   	retq   

0000000000006eb8 <safe_add_func_uint32_t_u_u>:
    6eb8:	f3 0f 1e fa          	endbr64 
    6ebc:	55                   	push   %rbp
    6ebd:	48 89 e5             	mov    %rsp,%rbp
    6ec0:	89 7d fc             	mov    %edi,-0x4(%rbp)
    6ec3:	89 75 f8             	mov    %esi,-0x8(%rbp)
    6ec6:	8b 55 fc             	mov    -0x4(%rbp),%edx
    6ec9:	8b 45 f8             	mov    -0x8(%rbp),%eax
    6ecc:	01 d0                	add    %edx,%eax
    6ece:	5d                   	pop    %rbp
    6ecf:	c3                   	retq   

0000000000006ed0 <safe_sub_func_uint32_t_u_u>:
    6ed0:	f3 0f 1e fa          	endbr64 
    6ed4:	55                   	push   %rbp
    6ed5:	48 89 e5             	mov    %rsp,%rbp
    6ed8:	89 7d fc             	mov    %edi,-0x4(%rbp)
    6edb:	89 75 f8             	mov    %esi,-0x8(%rbp)
    6ede:	8b 45 fc             	mov    -0x4(%rbp),%eax
    6ee1:	2b 45 f8             	sub    -0x8(%rbp),%eax
    6ee4:	5d                   	pop    %rbp
    6ee5:	c3                   	retq   

0000000000006ee6 <safe_mul_func_uint32_t_u_u>:
    6ee6:	f3 0f 1e fa          	endbr64 
    6eea:	55                   	push   %rbp
    6eeb:	48 89 e5             	mov    %rsp,%rbp
    6eee:	89 7d fc             	mov    %edi,-0x4(%rbp)
    6ef1:	89 75 f8             	mov    %esi,-0x8(%rbp)
    6ef4:	8b 45 fc             	mov    -0x4(%rbp),%eax
    6ef7:	0f af 45 f8          	imul   -0x8(%rbp),%eax
    6efb:	5d                   	pop    %rbp
    6efc:	c3                   	retq   

0000000000006efd <safe_mod_func_uint32_t_u_u>:
    6efd:	f3 0f 1e fa          	endbr64 
    6f01:	55                   	push   %rbp
    6f02:	48 89 e5             	mov    %rsp,%rbp
    6f05:	89 7d fc             	mov    %edi,-0x4(%rbp)
    6f08:	89 75 f8             	mov    %esi,-0x8(%rbp)
    6f0b:	83 7d f8 00          	cmpl   $0x0,-0x8(%rbp)
    6f0f:	74 0f                	je     6f20 <safe_mod_func_uint32_t_u_u+0x23>
    6f11:	8b 45 fc             	mov    -0x4(%rbp),%eax
    6f14:	ba 00 00 00 00       	mov    $0x0,%edx
    6f19:	f7 75 f8             	divl   -0x8(%rbp)
    6f1c:	89 d0                	mov    %edx,%eax
    6f1e:	eb 03                	jmp    6f23 <safe_mod_func_uint32_t_u_u+0x26>
    6f20:	8b 45 fc             	mov    -0x4(%rbp),%eax
    6f23:	5d                   	pop    %rbp
    6f24:	c3                   	retq   

0000000000006f25 <safe_div_func_uint32_t_u_u>:
    6f25:	f3 0f 1e fa          	endbr64 
    6f29:	55                   	push   %rbp
    6f2a:	48 89 e5             	mov    %rsp,%rbp
    6f2d:	89 7d fc             	mov    %edi,-0x4(%rbp)
    6f30:	89 75 f8             	mov    %esi,-0x8(%rbp)
    6f33:	83 7d f8 00          	cmpl   $0x0,-0x8(%rbp)
    6f37:	74 0d                	je     6f46 <safe_div_func_uint32_t_u_u+0x21>
    6f39:	8b 45 fc             	mov    -0x4(%rbp),%eax
    6f3c:	ba 00 00 00 00       	mov    $0x0,%edx
    6f41:	f7 75 f8             	divl   -0x8(%rbp)
    6f44:	eb 03                	jmp    6f49 <safe_div_func_uint32_t_u_u+0x24>
    6f46:	8b 45 fc             	mov    -0x4(%rbp),%eax
    6f49:	5d                   	pop    %rbp
    6f4a:	c3                   	retq   

0000000000006f4b <safe_lshift_func_uint32_t_u_s>:
    6f4b:	f3 0f 1e fa          	endbr64 
    6f4f:	55                   	push   %rbp
    6f50:	48 89 e5             	mov    %rsp,%rbp
    6f53:	89 7d fc             	mov    %edi,-0x4(%rbp)
    6f56:	89 75 f8             	mov    %esi,-0x8(%rbp)
    6f59:	83 7d f8 00          	cmpl   $0x0,-0x8(%rbp)
    6f5d:	78 27                	js     6f86 <safe_lshift_func_uint32_t_u_s+0x3b>
    6f5f:	83 7d f8 1f          	cmpl   $0x1f,-0x8(%rbp)
    6f63:	7f 21                	jg     6f86 <safe_lshift_func_uint32_t_u_s+0x3b>
    6f65:	8b 45 f8             	mov    -0x8(%rbp),%eax
    6f68:	ba ff ff ff ff       	mov    $0xffffffff,%edx
    6f6d:	89 c1                	mov    %eax,%ecx
    6f6f:	d3 ea                	shr    %cl,%edx
    6f71:	89 d0                	mov    %edx,%eax
    6f73:	39 45 fc             	cmp    %eax,-0x4(%rbp)
    6f76:	77 0e                	ja     6f86 <safe_lshift_func_uint32_t_u_s+0x3b>
    6f78:	8b 45 f8             	mov    -0x8(%rbp),%eax
    6f7b:	8b 55 fc             	mov    -0x4(%rbp),%edx
    6f7e:	89 c1                	mov    %eax,%ecx
    6f80:	d3 e2                	shl    %cl,%edx
    6f82:	89 d0                	mov    %edx,%eax
    6f84:	eb 03                	jmp    6f89 <safe_lshift_func_uint32_t_u_s+0x3e>
    6f86:	8b 45 fc             	mov    -0x4(%rbp),%eax
    6f89:	5d                   	pop    %rbp
    6f8a:	c3                   	retq   

0000000000006f8b <safe_lshift_func_uint32_t_u_u>:
    6f8b:	f3 0f 1e fa          	endbr64 
    6f8f:	55                   	push   %rbp
    6f90:	48 89 e5             	mov    %rsp,%rbp
    6f93:	89 7d fc             	mov    %edi,-0x4(%rbp)
    6f96:	89 75 f8             	mov    %esi,-0x8(%rbp)
    6f99:	83 7d f8 1f          	cmpl   $0x1f,-0x8(%rbp)
    6f9d:	77 21                	ja     6fc0 <safe_lshift_func_uint32_t_u_u+0x35>
    6f9f:	8b 45 f8             	mov    -0x8(%rbp),%eax
    6fa2:	ba ff ff ff ff       	mov    $0xffffffff,%edx
    6fa7:	89 c1                	mov    %eax,%ecx
    6fa9:	d3 ea                	shr    %cl,%edx
    6fab:	89 d0                	mov    %edx,%eax
    6fad:	39 45 fc             	cmp    %eax,-0x4(%rbp)
    6fb0:	77 0e                	ja     6fc0 <safe_lshift_func_uint32_t_u_u+0x35>
    6fb2:	8b 45 f8             	mov    -0x8(%rbp),%eax
    6fb5:	8b 55 fc             	mov    -0x4(%rbp),%edx
    6fb8:	89 c1                	mov    %eax,%ecx
    6fba:	d3 e2                	shl    %cl,%edx
    6fbc:	89 d0                	mov    %edx,%eax
    6fbe:	eb 03                	jmp    6fc3 <safe_lshift_func_uint32_t_u_u+0x38>
    6fc0:	8b 45 fc             	mov    -0x4(%rbp),%eax
    6fc3:	5d                   	pop    %rbp
    6fc4:	c3                   	retq   

0000000000006fc5 <safe_rshift_func_uint32_t_u_s>:
    6fc5:	f3 0f 1e fa          	endbr64 
    6fc9:	55                   	push   %rbp
    6fca:	48 89 e5             	mov    %rsp,%rbp
    6fcd:	89 7d fc             	mov    %edi,-0x4(%rbp)
    6fd0:	89 75 f8             	mov    %esi,-0x8(%rbp)
    6fd3:	83 7d f8 00          	cmpl   $0x0,-0x8(%rbp)
    6fd7:	78 14                	js     6fed <safe_rshift_func_uint32_t_u_s+0x28>
    6fd9:	83 7d f8 1f          	cmpl   $0x1f,-0x8(%rbp)
    6fdd:	7f 0e                	jg     6fed <safe_rshift_func_uint32_t_u_s+0x28>
    6fdf:	8b 45 f8             	mov    -0x8(%rbp),%eax
    6fe2:	8b 55 fc             	mov    -0x4(%rbp),%edx
    6fe5:	89 c1                	mov    %eax,%ecx
    6fe7:	d3 ea                	shr    %cl,%edx
    6fe9:	89 d0                	mov    %edx,%eax
    6feb:	eb 03                	jmp    6ff0 <safe_rshift_func_uint32_t_u_s+0x2b>
    6fed:	8b 45 fc             	mov    -0x4(%rbp),%eax
    6ff0:	5d                   	pop    %rbp
    6ff1:	c3                   	retq   

0000000000006ff2 <safe_rshift_func_uint32_t_u_u>:
    6ff2:	f3 0f 1e fa          	endbr64 
    6ff6:	55                   	push   %rbp
    6ff7:	48 89 e5             	mov    %rsp,%rbp
    6ffa:	89 7d fc             	mov    %edi,-0x4(%rbp)
    6ffd:	89 75 f8             	mov    %esi,-0x8(%rbp)
    7000:	83 7d f8 1f          	cmpl   $0x1f,-0x8(%rbp)
    7004:	77 0e                	ja     7014 <safe_rshift_func_uint32_t_u_u+0x22>
    7006:	8b 45 f8             	mov    -0x8(%rbp),%eax
    7009:	8b 55 fc             	mov    -0x4(%rbp),%edx
    700c:	89 c1                	mov    %eax,%ecx
    700e:	d3 ea                	shr    %cl,%edx
    7010:	89 d0                	mov    %edx,%eax
    7012:	eb 03                	jmp    7017 <safe_rshift_func_uint32_t_u_u+0x25>
    7014:	8b 45 fc             	mov    -0x4(%rbp),%eax
    7017:	5d                   	pop    %rbp
    7018:	c3                   	retq   

0000000000007019 <safe_unary_minus_func_uint64_t_u>:
    7019:	f3 0f 1e fa          	endbr64 
    701d:	55                   	push   %rbp
    701e:	48 89 e5             	mov    %rsp,%rbp
    7021:	48 89 7d f8          	mov    %rdi,-0x8(%rbp)
    7025:	48 8b 45 f8          	mov    -0x8(%rbp),%rax
    7029:	48 f7 d8             	neg    %rax
    702c:	5d                   	pop    %rbp
    702d:	c3                   	retq   

000000000000702e <safe_add_func_uint64_t_u_u>:
    702e:	f3 0f 1e fa          	endbr64 
    7032:	55                   	push   %rbp
    7033:	48 89 e5             	mov    %rsp,%rbp
    7036:	48 89 7d f8          	mov    %rdi,-0x8(%rbp)
    703a:	48 89 75 f0          	mov    %rsi,-0x10(%rbp)
    703e:	48 8b 55 f8          	mov    -0x8(%rbp),%rdx
    7042:	48 8b 45 f0          	mov    -0x10(%rbp),%rax
    7046:	48 01 d0             	add    %rdx,%rax
    7049:	5d                   	pop    %rbp
    704a:	c3                   	retq   

000000000000704b <safe_sub_func_uint64_t_u_u>:
    704b:	f3 0f 1e fa          	endbr64 
    704f:	55                   	push   %rbp
    7050:	48 89 e5             	mov    %rsp,%rbp
    7053:	48 89 7d f8          	mov    %rdi,-0x8(%rbp)
    7057:	48 89 75 f0          	mov    %rsi,-0x10(%rbp)
    705b:	48 8b 45 f8          	mov    -0x8(%rbp),%rax
    705f:	48 2b 45 f0          	sub    -0x10(%rbp),%rax
    7063:	5d                   	pop    %rbp
    7064:	c3                   	retq   

0000000000007065 <safe_mul_func_uint64_t_u_u>:
    7065:	f3 0f 1e fa          	endbr64 
    7069:	55                   	push   %rbp
    706a:	48 89 e5             	mov    %rsp,%rbp
    706d:	48 89 7d f8          	mov    %rdi,-0x8(%rbp)
    7071:	48 89 75 f0          	mov    %rsi,-0x10(%rbp)
    7075:	48 8b 45 f8          	mov    -0x8(%rbp),%rax
    7079:	48 0f af 45 f0       	imul   -0x10(%rbp),%rax
    707e:	5d                   	pop    %rbp
    707f:	c3                   	retq   

0000000000007080 <safe_mod_func_uint64_t_u_u>:
    7080:	f3 0f 1e fa          	endbr64 
    7084:	55                   	push   %rbp
    7085:	48 89 e5             	mov    %rsp,%rbp
    7088:	48 89 7d f8          	mov    %rdi,-0x8(%rbp)
    708c:	48 89 75 f0          	mov    %rsi,-0x10(%rbp)
    7090:	48 83 7d f0 00       	cmpq   $0x0,-0x10(%rbp)
    7095:	74 12                	je     70a9 <safe_mod_func_uint64_t_u_u+0x29>
    7097:	48 8b 45 f8          	mov    -0x8(%rbp),%rax
    709b:	ba 00 00 00 00       	mov    $0x0,%edx
    70a0:	48 f7 75 f0          	divq   -0x10(%rbp)
    70a4:	48 89 d0             	mov    %rdx,%rax
    70a7:	eb 04                	jmp    70ad <safe_mod_func_uint64_t_u_u+0x2d>
    70a9:	48 8b 45 f8          	mov    -0x8(%rbp),%rax
    70ad:	5d                   	pop    %rbp
    70ae:	c3                   	retq   

00000000000070af <safe_div_func_uint64_t_u_u>:
    70af:	f3 0f 1e fa          	endbr64 
    70b3:	55                   	push   %rbp
    70b4:	48 89 e5             	mov    %rsp,%rbp
    70b7:	48 89 7d f8          	mov    %rdi,-0x8(%rbp)
    70bb:	48 89 75 f0          	mov    %rsi,-0x10(%rbp)
    70bf:	48 83 7d f0 00       	cmpq   $0x0,-0x10(%rbp)
    70c4:	74 0f                	je     70d5 <safe_div_func_uint64_t_u_u+0x26>
    70c6:	48 8b 45 f8          	mov    -0x8(%rbp),%rax
    70ca:	ba 00 00 00 00       	mov    $0x0,%edx
    70cf:	48 f7 75 f0          	divq   -0x10(%rbp)
    70d3:	eb 04                	jmp    70d9 <safe_div_func_uint64_t_u_u+0x2a>
    70d5:	48 8b 45 f8          	mov    -0x8(%rbp),%rax
    70d9:	5d                   	pop    %rbp
    70da:	c3                   	retq   

00000000000070db <safe_lshift_func_uint64_t_u_s>:
    70db:	f3 0f 1e fa          	endbr64 
    70df:	55                   	push   %rbp
    70e0:	48 89 e5             	mov    %rsp,%rbp
    70e3:	48 89 7d f8          	mov    %rdi,-0x8(%rbp)
    70e7:	89 75 f4             	mov    %esi,-0xc(%rbp)
    70ea:	83 7d f4 00          	cmpl   $0x0,-0xc(%rbp)
    70ee:	78 2f                	js     711f <safe_lshift_func_uint64_t_u_s+0x44>
    70f0:	83 7d f4 1f          	cmpl   $0x1f,-0xc(%rbp)
    70f4:	7f 29                	jg     711f <safe_lshift_func_uint64_t_u_s+0x44>
    70f6:	8b 45 f4             	mov    -0xc(%rbp),%eax
    70f9:	48 c7 c2 ff ff ff ff 	mov    $0xffffffffffffffff,%rdx
    7100:	89 c1                	mov    %eax,%ecx
    7102:	48 d3 ea             	shr    %cl,%rdx
    7105:	48 89 d0             	mov    %rdx,%rax
    7108:	48 39 45 f8          	cmp    %rax,-0x8(%rbp)
    710c:	77 11                	ja     711f <safe_lshift_func_uint64_t_u_s+0x44>
    710e:	8b 45 f4             	mov    -0xc(%rbp),%eax
    7111:	48 8b 55 f8          	mov    -0x8(%rbp),%rdx
    7115:	89 c1                	mov    %eax,%ecx
    7117:	48 d3 e2             	shl    %cl,%rdx
    711a:	48 89 d0             	mov    %rdx,%rax
    711d:	eb 04                	jmp    7123 <safe_lshift_func_uint64_t_u_s+0x48>
    711f:	48 8b 45 f8          	mov    -0x8(%rbp),%rax
    7123:	5d                   	pop    %rbp
    7124:	c3                   	retq   

0000000000007125 <safe_lshift_func_uint64_t_u_u>:
    7125:	f3 0f 1e fa          	endbr64 
    7129:	55                   	push   %rbp
    712a:	48 89 e5             	mov    %rsp,%rbp
    712d:	48 89 7d f8          	mov    %rdi,-0x8(%rbp)
    7131:	89 75 f4             	mov    %esi,-0xc(%rbp)
    7134:	83 7d f4 1f          	cmpl   $0x1f,-0xc(%rbp)
    7138:	77 29                	ja     7163 <safe_lshift_func_uint64_t_u_u+0x3e>
    713a:	8b 45 f4             	mov    -0xc(%rbp),%eax
    713d:	48 c7 c2 ff ff ff ff 	mov    $0xffffffffffffffff,%rdx
    7144:	89 c1                	mov    %eax,%ecx
    7146:	48 d3 ea             	shr    %cl,%rdx
    7149:	48 89 d0             	mov    %rdx,%rax
    714c:	48 39 45 f8          	cmp    %rax,-0x8(%rbp)
    7150:	77 11                	ja     7163 <safe_lshift_func_uint64_t_u_u+0x3e>
    7152:	8b 45 f4             	mov    -0xc(%rbp),%eax
    7155:	48 8b 55 f8          	mov    -0x8(%rbp),%rdx
    7159:	89 c1                	mov    %eax,%ecx
    715b:	48 d3 e2             	shl    %cl,%rdx
    715e:	48 89 d0             	mov    %rdx,%rax
    7161:	eb 04                	jmp    7167 <safe_lshift_func_uint64_t_u_u+0x42>
    7163:	48 8b 45 f8          	mov    -0x8(%rbp),%rax
    7167:	5d                   	pop    %rbp
    7168:	c3                   	retq   

0000000000007169 <safe_rshift_func_uint64_t_u_s>:
    7169:	f3 0f 1e fa          	endbr64 
    716d:	55                   	push   %rbp
    716e:	48 89 e5             	mov    %rsp,%rbp
    7171:	48 89 7d f8          	mov    %rdi,-0x8(%rbp)
    7175:	89 75 f4             	mov    %esi,-0xc(%rbp)
    7178:	83 7d f4 00          	cmpl   $0x0,-0xc(%rbp)
    717c:	78 17                	js     7195 <safe_rshift_func_uint64_t_u_s+0x2c>
    717e:	83 7d f4 1f          	cmpl   $0x1f,-0xc(%rbp)
    7182:	7f 11                	jg     7195 <safe_rshift_func_uint64_t_u_s+0x2c>
    7184:	8b 45 f4             	mov    -0xc(%rbp),%eax
    7187:	48 8b 55 f8          	mov    -0x8(%rbp),%rdx
    718b:	89 c1                	mov    %eax,%ecx
    718d:	48 d3 ea             	shr    %cl,%rdx
    7190:	48 89 d0             	mov    %rdx,%rax
    7193:	eb 04                	jmp    7199 <safe_rshift_func_uint64_t_u_s+0x30>
    7195:	48 8b 45 f8          	mov    -0x8(%rbp),%rax
    7199:	5d                   	pop    %rbp
    719a:	c3                   	retq   

000000000000719b <safe_rshift_func_uint64_t_u_u>:
    719b:	f3 0f 1e fa          	endbr64 
    719f:	55                   	push   %rbp
    71a0:	48 89 e5             	mov    %rsp,%rbp
    71a3:	48 89 7d f8          	mov    %rdi,-0x8(%rbp)
    71a7:	89 75 f4             	mov    %esi,-0xc(%rbp)
    71aa:	83 7d f4 1f          	cmpl   $0x1f,-0xc(%rbp)
    71ae:	77 11                	ja     71c1 <safe_rshift_func_uint64_t_u_u+0x26>
    71b0:	8b 45 f4             	mov    -0xc(%rbp),%eax
    71b3:	48 8b 55 f8          	mov    -0x8(%rbp),%rdx
    71b7:	89 c1                	mov    %eax,%ecx
    71b9:	48 d3 ea             	shr    %cl,%rdx
    71bc:	48 89 d0             	mov    %rdx,%rax
    71bf:	eb 04                	jmp    71c5 <safe_rshift_func_uint64_t_u_u+0x2a>
    71c1:	48 8b 45 f8          	mov    -0x8(%rbp),%rax
    71c5:	5d                   	pop    %rbp
    71c6:	c3                   	retq   

00000000000071c7 <safe_add_func_float_f_f>:
    71c7:	f3 0f 1e fa          	endbr64 
    71cb:	55                   	push   %rbp
    71cc:	48 89 e5             	mov    %rsp,%rbp
    71cf:	f3 0f 11 45 fc       	movss  %xmm0,-0x4(%rbp)
    71d4:	f3 0f 11 4d f8       	movss  %xmm1,-0x8(%rbp)
    71d9:	f3 0f 10 4d fc       	movss  -0x4(%rbp),%xmm1
    71de:	f3 0f 10 05 a2 c4 00 	movss  0xc4a2(%rip),%xmm0        # 13688 <l_811.4489+0x18>
    71e5:	00 
    71e6:	f3 0f 59 c8          	mulss  %xmm0,%xmm1
    71ea:	f3 0f 10 55 f8       	movss  -0x8(%rbp),%xmm2
    71ef:	f3 0f 10 05 91 c4 00 	movss  0xc491(%rip),%xmm0        # 13688 <l_811.4489+0x18>
    71f6:	00 
    71f7:	f3 0f 59 c2          	mulss  %xmm2,%xmm0
    71fb:	f3 0f 58 c1          	addss  %xmm1,%xmm0
    71ff:	f3 0f 10 0d 89 c4 00 	movss  0xc489(%rip),%xmm1        # 13690 <l_811.4489+0x20>
    7206:	00 
    7207:	0f 54 c1             	andps  %xmm1,%xmm0
    720a:	0f 2f 05 8f c4 00 00 	comiss 0xc48f(%rip),%xmm0        # 136a0 <l_811.4489+0x30>
    7211:	76 07                	jbe    721a <safe_add_func_float_f_f+0x53>
    7213:	f3 0f 10 45 fc       	movss  -0x4(%rbp),%xmm0
    7218:	eb 0a                	jmp    7224 <safe_add_func_float_f_f+0x5d>
    721a:	f3 0f 10 45 fc       	movss  -0x4(%rbp),%xmm0
    721f:	f3 0f 58 45 f8       	addss  -0x8(%rbp),%xmm0
    7224:	5d                   	pop    %rbp
    7225:	c3                   	retq   

0000000000007226 <safe_sub_func_float_f_f>:
    7226:	f3 0f 1e fa          	endbr64 
    722a:	55                   	push   %rbp
    722b:	48 89 e5             	mov    %rsp,%rbp
    722e:	f3 0f 11 45 fc       	movss  %xmm0,-0x4(%rbp)
    7233:	f3 0f 11 4d f8       	movss  %xmm1,-0x8(%rbp)
    7238:	f3 0f 10 4d fc       	movss  -0x4(%rbp),%xmm1
    723d:	f3 0f 10 05 43 c4 00 	movss  0xc443(%rip),%xmm0        # 13688 <l_811.4489+0x18>
    7244:	00 
    7245:	f3 0f 59 c1          	mulss  %xmm1,%xmm0
    7249:	f3 0f 10 55 f8       	movss  -0x8(%rbp),%xmm2
    724e:	f3 0f 10 0d 32 c4 00 	movss  0xc432(%rip),%xmm1        # 13688 <l_811.4489+0x18>
    7255:	00 
    7256:	f3 0f 59 ca          	mulss  %xmm2,%xmm1
    725a:	f3 0f 5c c1          	subss  %xmm1,%xmm0
    725e:	f3 0f 10 0d 2a c4 00 	movss  0xc42a(%rip),%xmm1        # 13690 <l_811.4489+0x20>
    7265:	00 
    7266:	0f 54 c1             	andps  %xmm1,%xmm0
    7269:	0f 2f 05 30 c4 00 00 	comiss 0xc430(%rip),%xmm0        # 136a0 <l_811.4489+0x30>
    7270:	76 07                	jbe    7279 <safe_sub_func_float_f_f+0x53>
    7272:	f3 0f 10 45 fc       	movss  -0x4(%rbp),%xmm0
    7277:	eb 0a                	jmp    7283 <safe_sub_func_float_f_f+0x5d>
    7279:	f3 0f 10 45 fc       	movss  -0x4(%rbp),%xmm0
    727e:	f3 0f 5c 45 f8       	subss  -0x8(%rbp),%xmm0
    7283:	5d                   	pop    %rbp
    7284:	c3                   	retq   

0000000000007285 <safe_mul_func_float_f_f>:
    7285:	f3 0f 1e fa          	endbr64 
    7289:	55                   	push   %rbp
    728a:	48 89 e5             	mov    %rsp,%rbp
    728d:	f3 0f 11 45 fc       	movss  %xmm0,-0x4(%rbp)
    7292:	f3 0f 11 4d f8       	movss  %xmm1,-0x8(%rbp)
    7297:	f3 0f 10 4d fc       	movss  -0x4(%rbp),%xmm1
    729c:	f3 0f 10 05 00 c4 00 	movss  0xc400(%rip),%xmm0        # 136a4 <l_811.4489+0x34>
    72a3:	00 
    72a4:	f3 0f 59 c8          	mulss  %xmm0,%xmm1
    72a8:	f3 0f 10 55 f8       	movss  -0x8(%rbp),%xmm2
    72ad:	f3 0f 10 05 f3 c3 00 	movss  0xc3f3(%rip),%xmm0        # 136a8 <l_811.4489+0x38>
    72b4:	00 
    72b5:	f3 0f 59 c2          	mulss  %xmm2,%xmm0
    72b9:	f3 0f 59 c1          	mulss  %xmm1,%xmm0
    72bd:	f3 0f 10 0d cb c3 00 	movss  0xc3cb(%rip),%xmm1        # 13690 <l_811.4489+0x20>
    72c4:	00 
    72c5:	0f 54 c1             	andps  %xmm1,%xmm0
    72c8:	0f 2f 05 dd c3 00 00 	comiss 0xc3dd(%rip),%xmm0        # 136ac <l_811.4489+0x3c>
    72cf:	76 07                	jbe    72d8 <safe_mul_func_float_f_f+0x53>
    72d1:	f3 0f 10 45 fc       	movss  -0x4(%rbp),%xmm0
    72d6:	eb 0a                	jmp    72e2 <safe_mul_func_float_f_f+0x5d>
    72d8:	f3 0f 10 45 fc       	movss  -0x4(%rbp),%xmm0
    72dd:	f3 0f 59 45 f8       	mulss  -0x8(%rbp),%xmm0
    72e2:	5d                   	pop    %rbp
    72e3:	c3                   	retq   

00000000000072e4 <safe_div_func_float_f_f>:
    72e4:	f3 0f 1e fa          	endbr64 
    72e8:	55                   	push   %rbp
    72e9:	48 89 e5             	mov    %rsp,%rbp
    72ec:	f3 0f 11 45 fc       	movss  %xmm0,-0x4(%rbp)
    72f1:	f3 0f 11 4d f8       	movss  %xmm1,-0x8(%rbp)
    72f6:	f3 0f 10 45 f8       	movss  -0x8(%rbp),%xmm0
    72fb:	f3 0f 10 0d 8d c3 00 	movss  0xc38d(%rip),%xmm1        # 13690 <l_811.4489+0x20>
    7302:	00 
    7303:	0f 54 c8             	andps  %xmm0,%xmm1
    7306:	f3 0f 10 05 a2 c3 00 	movss  0xc3a2(%rip),%xmm0        # 136b0 <l_811.4489+0x40>
    730d:	00 
    730e:	0f 2f c1             	comiss %xmm1,%xmm0
    7311:	0f 97 c0             	seta   %al
    7314:	83 f0 01             	xor    $0x1,%eax
    7317:	84 c0                	test   %al,%al
    7319:	75 56                	jne    7371 <safe_div_func_float_f_f+0x8d>
    731b:	66 0f ef c0          	pxor   %xmm0,%xmm0
    731f:	0f 2e 45 f8          	ucomiss -0x8(%rbp),%xmm0
    7323:	7a 0a                	jp     732f <safe_div_func_float_f_f+0x4b>
    7325:	66 0f ef c0          	pxor   %xmm0,%xmm0
    7329:	0f 2e 45 f8          	ucomiss -0x8(%rbp),%xmm0
    732d:	74 4e                	je     737d <safe_div_func_float_f_f+0x99>
    732f:	f3 0f 10 4d fc       	movss  -0x4(%rbp),%xmm1
    7334:	f3 0f 10 05 78 c3 00 	movss  0xc378(%rip),%xmm0        # 136b4 <l_811.4489+0x44>
    733b:	00 
    733c:	f3 0f 59 c1          	mulss  %xmm1,%xmm0
    7340:	f3 0f 10 55 f8       	movss  -0x8(%rbp),%xmm2
    7345:	f3 0f 10 0d 6b c3 00 	movss  0xc36b(%rip),%xmm1        # 136b8 <l_811.4489+0x48>
    734c:	00 
    734d:	f3 0f 59 ca          	mulss  %xmm2,%xmm1
    7351:	f3 0f 5e c1          	divss  %xmm1,%xmm0
    7355:	f3 0f 10 0d 33 c3 00 	movss  0xc333(%rip),%xmm1        # 13690 <l_811.4489+0x20>
    735c:	00 
    735d:	0f 54 c1             	andps  %xmm1,%xmm0
    7360:	0f 2f 05 55 c3 00 00 	comiss 0xc355(%rip),%xmm0        # 136bc <l_811.4489+0x4c>
    7367:	0f 97 c0             	seta   %al
    736a:	83 f0 01             	xor    $0x1,%eax
    736d:	84 c0                	test   %al,%al
    736f:	74 0c                	je     737d <safe_div_func_float_f_f+0x99>
    7371:	f3 0f 10 45 fc       	movss  -0x4(%rbp),%xmm0
    7376:	f3 0f 5e 45 f8       	divss  -0x8(%rbp),%xmm0
    737b:	eb 05                	jmp    7382 <safe_div_func_float_f_f+0x9e>
    737d:	f3 0f 10 45 fc       	movss  -0x4(%rbp),%xmm0
    7382:	5d                   	pop    %rbp
    7383:	c3                   	retq   

0000000000007384 <safe_add_func_double_f_f>:
    7384:	f3 0f 1e fa          	endbr64 
    7388:	55                   	push   %rbp
    7389:	48 89 e5             	mov    %rsp,%rbp
    738c:	f2 0f 11 45 f8       	movsd  %xmm0,-0x8(%rbp)
    7391:	f2 0f 11 4d f0       	movsd  %xmm1,-0x10(%rbp)
    7396:	f2 0f 10 4d f8       	movsd  -0x8(%rbp),%xmm1
    739b:	f2 0f 10 05 1d c3 00 	movsd  0xc31d(%rip),%xmm0        # 136c0 <l_811.4489+0x50>
    73a2:	00 
    73a3:	f2 0f 59 c8          	mulsd  %xmm0,%xmm1
    73a7:	f2 0f 10 55 f0       	movsd  -0x10(%rbp),%xmm2
    73ac:	f2 0f 10 05 0c c3 00 	movsd  0xc30c(%rip),%xmm0        # 136c0 <l_811.4489+0x50>
    73b3:	00 
    73b4:	f2 0f 59 c2          	mulsd  %xmm2,%xmm0
    73b8:	f2 0f 58 c1          	addsd  %xmm1,%xmm0
    73bc:	f3 0f 7e 0d 0c c3 00 	movq   0xc30c(%rip),%xmm1        # 136d0 <l_811.4489+0x60>
    73c3:	00 
    73c4:	66 0f 54 c1          	andpd  %xmm1,%xmm0
    73c8:	66 0f 2f 05 10 c3 00 	comisd 0xc310(%rip),%xmm0        # 136e0 <l_811.4489+0x70>
    73cf:	00 
    73d0:	76 07                	jbe    73d9 <safe_add_func_double_f_f+0x55>
    73d2:	f2 0f 10 45 f8       	movsd  -0x8(%rbp),%xmm0
    73d7:	eb 0a                	jmp    73e3 <safe_add_func_double_f_f+0x5f>
    73d9:	f2 0f 10 45 f8       	movsd  -0x8(%rbp),%xmm0
    73de:	f2 0f 58 45 f0       	addsd  -0x10(%rbp),%xmm0
    73e3:	5d                   	pop    %rbp
    73e4:	c3                   	retq   

00000000000073e5 <safe_sub_func_double_f_f>:
    73e5:	f3 0f 1e fa          	endbr64 
    73e9:	55                   	push   %rbp
    73ea:	48 89 e5             	mov    %rsp,%rbp
    73ed:	f2 0f 11 45 f8       	movsd  %xmm0,-0x8(%rbp)
    73f2:	f2 0f 11 4d f0       	movsd  %xmm1,-0x10(%rbp)
    73f7:	f2 0f 10 4d f8       	movsd  -0x8(%rbp),%xmm1
    73fc:	f2 0f 10 05 bc c2 00 	movsd  0xc2bc(%rip),%xmm0        # 136c0 <l_811.4489+0x50>
    7403:	00 
    7404:	f2 0f 59 c1          	mulsd  %xmm1,%xmm0
    7408:	f2 0f 10 55 f0       	movsd  -0x10(%rbp),%xmm2
    740d:	f2 0f 10 0d ab c2 00 	movsd  0xc2ab(%rip),%xmm1        # 136c0 <l_811.4489+0x50>
    7414:	00 
    7415:	f2 0f 59 ca          	mulsd  %xmm2,%xmm1
    7419:	f2 0f 5c c1          	subsd  %xmm1,%xmm0
    741d:	f3 0f 7e 0d ab c2 00 	movq   0xc2ab(%rip),%xmm1        # 136d0 <l_811.4489+0x60>
    7424:	00 
    7425:	66 0f 54 c1          	andpd  %xmm1,%xmm0
    7429:	66 0f 2f 05 af c2 00 	comisd 0xc2af(%rip),%xmm0        # 136e0 <l_811.4489+0x70>
    7430:	00 
    7431:	76 07                	jbe    743a <safe_sub_func_double_f_f+0x55>
    7433:	f2 0f 10 45 f8       	movsd  -0x8(%rbp),%xmm0
    7438:	eb 0a                	jmp    7444 <safe_sub_func_double_f_f+0x5f>
    743a:	f2 0f 10 45 f8       	movsd  -0x8(%rbp),%xmm0
    743f:	f2 0f 5c 45 f0       	subsd  -0x10(%rbp),%xmm0
    7444:	5d                   	pop    %rbp
    7445:	c3                   	retq   

0000000000007446 <safe_mul_func_double_f_f>:
    7446:	f3 0f 1e fa          	endbr64 
    744a:	55                   	push   %rbp
    744b:	48 89 e5             	mov    %rsp,%rbp
    744e:	f2 0f 11 45 f8       	movsd  %xmm0,-0x8(%rbp)
    7453:	f2 0f 11 4d f0       	movsd  %xmm1,-0x10(%rbp)
    7458:	f2 0f 10 4d f8       	movsd  -0x8(%rbp),%xmm1
    745d:	f2 0f 10 05 83 c2 00 	movsd  0xc283(%rip),%xmm0        # 136e8 <l_811.4489+0x78>
    7464:	00 
    7465:	f2 0f 59 c8          	mulsd  %xmm0,%xmm1
    7469:	f2 0f 10 55 f0       	movsd  -0x10(%rbp),%xmm2
    746e:	f2 0f 10 05 7a c2 00 	movsd  0xc27a(%rip),%xmm0        # 136f0 <l_811.4489+0x80>
    7475:	00 
    7476:	f2 0f 59 c2          	mulsd  %xmm2,%xmm0
    747a:	f2 0f 59 c1          	mulsd  %xmm1,%xmm0
    747e:	f3 0f 7e 0d 4a c2 00 	movq   0xc24a(%rip),%xmm1        # 136d0 <l_811.4489+0x60>
    7485:	00 
    7486:	66 0f 54 c1          	andpd  %xmm1,%xmm0
    748a:	66 0f 2f 05 66 c2 00 	comisd 0xc266(%rip),%xmm0        # 136f8 <l_811.4489+0x88>
    7491:	00 
    7492:	76 07                	jbe    749b <safe_mul_func_double_f_f+0x55>
    7494:	f2 0f 10 45 f8       	movsd  -0x8(%rbp),%xmm0
    7499:	eb 0a                	jmp    74a5 <safe_mul_func_double_f_f+0x5f>
    749b:	f2 0f 10 45 f8       	movsd  -0x8(%rbp),%xmm0
    74a0:	f2 0f 59 45 f0       	mulsd  -0x10(%rbp),%xmm0
    74a5:	5d                   	pop    %rbp
    74a6:	c3                   	retq   

00000000000074a7 <safe_div_func_double_f_f>:
    74a7:	f3 0f 1e fa          	endbr64 
    74ab:	55                   	push   %rbp
    74ac:	48 89 e5             	mov    %rsp,%rbp
    74af:	f2 0f 11 45 f8       	movsd  %xmm0,-0x8(%rbp)
    74b4:	f2 0f 11 4d f0       	movsd  %xmm1,-0x10(%rbp)
    74b9:	f2 0f 10 45 f0       	movsd  -0x10(%rbp),%xmm0
    74be:	f3 0f 7e 0d 0a c2 00 	movq   0xc20a(%rip),%xmm1        # 136d0 <l_811.4489+0x60>
    74c5:	00 
    74c6:	66 0f 54 c8          	andpd  %xmm0,%xmm1
    74ca:	f2 0f 10 05 2e c2 00 	movsd  0xc22e(%rip),%xmm0        # 13700 <l_811.4489+0x90>
    74d1:	00 
    74d2:	66 0f 2f c1          	comisd %xmm1,%xmm0
    74d6:	0f 97 c0             	seta   %al
    74d9:	83 f0 01             	xor    $0x1,%eax
    74dc:	84 c0                	test   %al,%al
    74de:	75 5a                	jne    753a <safe_div_func_double_f_f+0x93>
    74e0:	66 0f ef c0          	pxor   %xmm0,%xmm0
    74e4:	66 0f 2e 45 f0       	ucomisd -0x10(%rbp),%xmm0
    74e9:	7a 0b                	jp     74f6 <safe_div_func_double_f_f+0x4f>
    74eb:	66 0f ef c0          	pxor   %xmm0,%xmm0
    74ef:	66 0f 2e 45 f0       	ucomisd -0x10(%rbp),%xmm0
    74f4:	74 50                	je     7546 <safe_div_func_double_f_f+0x9f>
    74f6:	f2 0f 10 4d f8       	movsd  -0x8(%rbp),%xmm1
    74fb:	f2 0f 10 05 05 c2 00 	movsd  0xc205(%rip),%xmm0        # 13708 <l_811.4489+0x98>
    7502:	00 
    7503:	f2 0f 59 c1          	mulsd  %xmm1,%xmm0
    7507:	f2 0f 10 55 f0       	movsd  -0x10(%rbp),%xmm2
    750c:	f2 0f 10 0d fc c1 00 	movsd  0xc1fc(%rip),%xmm1        # 13710 <l_811.4489+0xa0>
    7513:	00 
    7514:	f2 0f 59 ca          	mulsd  %xmm2,%xmm1
    7518:	f2 0f 5e c1          	divsd  %xmm1,%xmm0
    751c:	f3 0f 7e 0d ac c1 00 	movq   0xc1ac(%rip),%xmm1        # 136d0 <l_811.4489+0x60>
    7523:	00 
    7524:	66 0f 54 c1          	andpd  %xmm1,%xmm0
    7528:	66 0f 2f 05 e8 c1 00 	comisd 0xc1e8(%rip),%xmm0        # 13718 <l_811.4489+0xa8>
    752f:	00 
    7530:	0f 97 c0             	seta   %al
    7533:	83 f0 01             	xor    $0x1,%eax
    7536:	84 c0                	test   %al,%al
    7538:	74 0c                	je     7546 <safe_div_func_double_f_f+0x9f>
    753a:	f2 0f 10 45 f8       	movsd  -0x8(%rbp),%xmm0
    753f:	f2 0f 5e 45 f0       	divsd  -0x10(%rbp),%xmm0
    7544:	eb 05                	jmp    754b <safe_div_func_double_f_f+0xa4>
    7546:	f2 0f 10 45 f8       	movsd  -0x8(%rbp),%xmm0
    754b:	5d                   	pop    %rbp
    754c:	c3                   	retq   

000000000000754d <safe_convert_func_float_to_int32_t>:
    754d:	f3 0f 1e fa          	endbr64 
    7551:	55                   	push   %rbp
    7552:	48 89 e5             	mov    %rsp,%rbp
    7555:	f3 0f 11 45 fc       	movss  %xmm0,-0x4(%rbp)
    755a:	f3 0f 10 05 be c1 00 	movss  0xc1be(%rip),%xmm0        # 13720 <l_811.4489+0xb0>
    7561:	00 
    7562:	0f 2f 45 fc          	comiss -0x4(%rbp),%xmm0
    7566:	0f 93 c0             	setae  %al
    7569:	83 f0 01             	xor    $0x1,%eax
    756c:	84 c0                	test   %al,%al
    756e:	74 21                	je     7591 <safe_convert_func_float_to_int32_t+0x44>
    7570:	f3 0f 10 45 fc       	movss  -0x4(%rbp),%xmm0
    7575:	0f 2f 05 a8 c1 00 00 	comiss 0xc1a8(%rip),%xmm0        # 13724 <l_811.4489+0xb4>
    757c:	0f 93 c0             	setae  %al
    757f:	83 f0 01             	xor    $0x1,%eax
    7582:	84 c0                	test   %al,%al
    7584:	74 0b                	je     7591 <safe_convert_func_float_to_int32_t+0x44>
    7586:	f3 0f 10 45 fc       	movss  -0x4(%rbp),%xmm0
    758b:	f3 0f 2c c0          	cvttss2si %xmm0,%eax
    758f:	eb 05                	jmp    7596 <safe_convert_func_float_to_int32_t+0x49>
    7591:	b8 ff ff ff 7f       	mov    $0x7fffffff,%eax
    7596:	5d                   	pop    %rbp
    7597:	c3                   	retq   

0000000000007598 <crc32_gentab>:
    7598:	f3 0f 1e fa          	endbr64 
    759c:	55                   	push   %rbp
    759d:	48 89 e5             	mov    %rsp,%rbp
    75a0:	c7 45 fc 20 83 b8 ed 	movl   $0xedb88320,-0x4(%rbp)
    75a7:	c7 45 f4 00 00 00 00 	movl   $0x0,-0xc(%rbp)
    75ae:	eb 51                	jmp    7601 <crc32_gentab+0x69>
    75b0:	8b 45 f4             	mov    -0xc(%rbp),%eax
    75b3:	89 45 f0             	mov    %eax,-0x10(%rbp)
    75b6:	c7 45 f8 08 00 00 00 	movl   $0x8,-0x8(%rbp)
    75bd:	eb 1e                	jmp    75dd <crc32_gentab+0x45>
    75bf:	8b 45 f0             	mov    -0x10(%rbp),%eax
    75c2:	83 e0 01             	and    $0x1,%eax
    75c5:	85 c0                	test   %eax,%eax
    75c7:	74 0d                	je     75d6 <crc32_gentab+0x3e>
    75c9:	8b 45 f0             	mov    -0x10(%rbp),%eax
    75cc:	d1 e8                	shr    %eax
    75ce:	33 45 fc             	xor    -0x4(%rbp),%eax
    75d1:	89 45 f0             	mov    %eax,-0x10(%rbp)
    75d4:	eb 03                	jmp    75d9 <crc32_gentab+0x41>
    75d6:	d1 6d f0             	shrl   -0x10(%rbp)
    75d9:	83 6d f8 01          	subl   $0x1,-0x8(%rbp)
    75dd:	83 7d f8 00          	cmpl   $0x0,-0x8(%rbp)
    75e1:	7f dc                	jg     75bf <crc32_gentab+0x27>
    75e3:	8b 45 f4             	mov    -0xc(%rbp),%eax
    75e6:	48 98                	cltq   
    75e8:	48 8d 0c 85 00 00 00 	lea    0x0(,%rax,4),%rcx
    75ef:	00 
    75f0:	48 8d 15 49 20 01 00 	lea    0x12049(%rip),%rdx        # 19640 <crc32_tab>
    75f7:	8b 45 f0             	mov    -0x10(%rbp),%eax
    75fa:	89 04 11             	mov    %eax,(%rcx,%rdx,1)
    75fd:	83 45 f4 01          	addl   $0x1,-0xc(%rbp)
    7601:	81 7d f4 ff 00 00 00 	cmpl   $0xff,-0xc(%rbp)
    7608:	7e a6                	jle    75b0 <crc32_gentab+0x18>
    760a:	90                   	nop
    760b:	90                   	nop
    760c:	5d                   	pop    %rbp
    760d:	c3                   	retq   

000000000000760e <crc32_byte>:
    760e:	f3 0f 1e fa          	endbr64 
    7612:	55                   	push   %rbp
    7613:	48 89 e5             	mov    %rsp,%rbp
    7616:	89 f8                	mov    %edi,%eax
    7618:	88 45 fc             	mov    %al,-0x4(%rbp)
    761b:	8b 05 ff f9 00 00    	mov    0xf9ff(%rip),%eax        # 17020 <crc32_context>
    7621:	c1 e8 08             	shr    $0x8,%eax
    7624:	89 c1                	mov    %eax,%ecx
    7626:	0f b6 55 fc          	movzbl -0x4(%rbp),%edx
    762a:	8b 05 f0 f9 00 00    	mov    0xf9f0(%rip),%eax        # 17020 <crc32_context>
    7630:	31 d0                	xor    %edx,%eax
    7632:	0f b6 c0             	movzbl %al,%eax
    7635:	89 c0                	mov    %eax,%eax
    7637:	48 8d 14 85 00 00 00 	lea    0x0(,%rax,4),%rdx
    763e:	00 
    763f:	48 8d 05 fa 1f 01 00 	lea    0x11ffa(%rip),%rax        # 19640 <crc32_tab>
    7646:	8b 04 02             	mov    (%rdx,%rax,1),%eax
    7649:	31 c8                	xor    %ecx,%eax
    764b:	89 05 cf f9 00 00    	mov    %eax,0xf9cf(%rip)        # 17020 <crc32_context>
    7651:	90                   	nop
    7652:	5d                   	pop    %rbp
    7653:	c3                   	retq   

0000000000007654 <crc32_8bytes>:
    7654:	f3 0f 1e fa          	endbr64 
    7658:	55                   	push   %rbp
    7659:	48 89 e5             	mov    %rsp,%rbp
    765c:	48 83 ec 08          	sub    $0x8,%rsp
    7660:	48 89 7d f8          	mov    %rdi,-0x8(%rbp)
    7664:	48 8b 45 f8          	mov    -0x8(%rbp),%rax
    7668:	0f b6 c0             	movzbl %al,%eax
    766b:	89 c7                	mov    %eax,%edi
    766d:	e8 9c ff ff ff       	callq  760e <crc32_byte>
    7672:	48 8b 45 f8          	mov    -0x8(%rbp),%rax
    7676:	48 c1 e8 08          	shr    $0x8,%rax
    767a:	0f b6 c0             	movzbl %al,%eax
    767d:	89 c7                	mov    %eax,%edi
    767f:	e8 8a ff ff ff       	callq  760e <crc32_byte>
    7684:	48 8b 45 f8          	mov    -0x8(%rbp),%rax
    7688:	48 c1 e8 10          	shr    $0x10,%rax
    768c:	0f b6 c0             	movzbl %al,%eax
    768f:	89 c7                	mov    %eax,%edi
    7691:	e8 78 ff ff ff       	callq  760e <crc32_byte>
    7696:	48 8b 45 f8          	mov    -0x8(%rbp),%rax
    769a:	48 c1 e8 18          	shr    $0x18,%rax
    769e:	0f b6 c0             	movzbl %al,%eax
    76a1:	89 c7                	mov    %eax,%edi
    76a3:	e8 66 ff ff ff       	callq  760e <crc32_byte>
    76a8:	48 8b 45 f8          	mov    -0x8(%rbp),%rax
    76ac:	48 c1 e8 20          	shr    $0x20,%rax
    76b0:	0f b6 c0             	movzbl %al,%eax
    76b3:	89 c7                	mov    %eax,%edi
    76b5:	e8 54 ff ff ff       	callq  760e <crc32_byte>
    76ba:	48 8b 45 f8          	mov    -0x8(%rbp),%rax
    76be:	48 c1 e8 28          	shr    $0x28,%rax
    76c2:	0f b6 c0             	movzbl %al,%eax
    76c5:	89 c7                	mov    %eax,%edi
    76c7:	e8 42 ff ff ff       	callq  760e <crc32_byte>
    76cc:	48 8b 45 f8          	mov    -0x8(%rbp),%rax
    76d0:	48 c1 e8 30          	shr    $0x30,%rax
    76d4:	0f b6 c0             	movzbl %al,%eax
    76d7:	89 c7                	mov    %eax,%edi
    76d9:	e8 30 ff ff ff       	callq  760e <crc32_byte>
    76de:	48 8b 45 f8          	mov    -0x8(%rbp),%rax
    76e2:	48 c1 e8 38          	shr    $0x38,%rax
    76e6:	0f b6 c0             	movzbl %al,%eax
    76e9:	89 c7                	mov    %eax,%edi
    76eb:	e8 1e ff ff ff       	callq  760e <crc32_byte>
    76f0:	90                   	nop
    76f1:	c9                   	leaveq 
    76f2:	c3                   	retq   

00000000000076f3 <transparent_crc>:
    76f3:	f3 0f 1e fa          	endbr64 
    76f7:	55                   	push   %rbp
    76f8:	48 89 e5             	mov    %rsp,%rbp
    76fb:	48 83 ec 20          	sub    $0x20,%rsp
    76ff:	48 89 7d f8          	mov    %rdi,-0x8(%rbp)
    7703:	48 89 75 f0          	mov    %rsi,-0x10(%rbp)
    7707:	89 55 ec             	mov    %edx,-0x14(%rbp)
    770a:	48 8b 45 f8          	mov    -0x8(%rbp),%rax
    770e:	48 89 c7             	mov    %rax,%rdi
    7711:	e8 3e ff ff ff       	callq  7654 <crc32_8bytes>
    7716:	83 7d ec 00          	cmpl   $0x0,-0x14(%rbp)
    771a:	74 22                	je     773e <transparent_crc+0x4b>
    771c:	8b 05 fe f8 00 00    	mov    0xf8fe(%rip),%eax        # 17020 <crc32_context>
    7722:	f7 d0                	not    %eax
    7724:	89 c2                	mov    %eax,%edx
    7726:	48 8b 45 f0          	mov    -0x10(%rbp),%rax
    772a:	48 89 c6             	mov    %rax,%rsi
    772d:	48 8d 3d fc a8 00 00 	lea    0xa8fc(%rip),%rdi        # 12030 <_IO_stdin_used+0x30>
    7734:	b8 00 00 00 00       	mov    $0x0,%eax
    7739:	e8 42 e9 ff ff       	callq  6080 <printf@plt>
    773e:	90                   	nop
    773f:	c9                   	leaveq 
    7740:	c3                   	retq   

0000000000007741 <transparent_crc_bytes>:
    7741:	f3 0f 1e fa          	endbr64 
    7745:	55                   	push   %rbp
    7746:	48 89 e5             	mov    %rsp,%rbp
    7749:	48 83 ec 30          	sub    $0x30,%rsp
    774d:	48 89 7d e8          	mov    %rdi,-0x18(%rbp)
    7751:	89 75 e4             	mov    %esi,-0x1c(%rbp)
    7754:	48 89 55 d8          	mov    %rdx,-0x28(%rbp)
    7758:	89 4d e0             	mov    %ecx,-0x20(%rbp)
    775b:	c7 45 fc 00 00 00 00 	movl   $0x0,-0x4(%rbp)
    7762:	eb 1e                	jmp    7782 <transparent_crc_bytes+0x41>
    7764:	8b 45 fc             	mov    -0x4(%rbp),%eax
    7767:	48 63 d0             	movslq %eax,%rdx
    776a:	48 8b 45 e8          	mov    -0x18(%rbp),%rax
    776e:	48 01 d0             	add    %rdx,%rax
    7771:	0f b6 00             	movzbl (%rax),%eax
    7774:	0f b6 c0             	movzbl %al,%eax
    7777:	89 c7                	mov    %eax,%edi
    7779:	e8 90 fe ff ff       	callq  760e <crc32_byte>
    777e:	83 45 fc 01          	addl   $0x1,-0x4(%rbp)
    7782:	8b 45 fc             	mov    -0x4(%rbp),%eax
    7785:	3b 45 e4             	cmp    -0x1c(%rbp),%eax
    7788:	7c da                	jl     7764 <transparent_crc_bytes+0x23>
    778a:	83 7d e0 00          	cmpl   $0x0,-0x20(%rbp)
    778e:	74 22                	je     77b2 <transparent_crc_bytes+0x71>
    7790:	8b 05 8a f8 00 00    	mov    0xf88a(%rip),%eax        # 17020 <crc32_context>
    7796:	f7 d0                	not    %eax
    7798:	89 c2                	mov    %eax,%edx
    779a:	48 8b 45 d8          	mov    -0x28(%rbp),%rax
    779e:	48 89 c6             	mov    %rax,%rsi
    77a1:	48 8d 3d 88 a8 00 00 	lea    0xa888(%rip),%rdi        # 12030 <_IO_stdin_used+0x30>
    77a8:	b8 00 00 00 00       	mov    $0x0,%eax
    77ad:	e8 ce e8 ff ff       	callq  6080 <printf@plt>
    77b2:	90                   	nop
    77b3:	c9                   	leaveq 
    77b4:	c3                   	retq   

00000000000077b5 <func_1>:
    77b5:	f3 0f 1e fa          	endbr64 
    77b9:	55                   	push   %rbp
    77ba:	48 89 e5             	mov    %rsp,%rbp
    77bd:	48 81 ec 80 02 00 00 	sub    $0x280,%rsp
    77c4:	64 48 8b 04 25 28 00 	mov    %fs:0x28,%rax
    77cb:	00 00 
    77cd:	48 89 45 f8          	mov    %rax,-0x8(%rbp)
    77d1:	31 c0                	xor    %eax,%eax
    77d3:	c7 85 98 fd ff ff 06 	movl   $0x6,-0x268(%rbp)
    77da:	00 00 00 
    77dd:	48 c7 85 d8 fd ff ff 	movq   $0x0,-0x228(%rbp)
    77e4:	00 00 00 00 
    77e8:	c7 85 9c fd ff ff e9 	movl   $0x4d5f1ce9,-0x264(%rbp)
    77ef:	1c 5f 4d 
    77f2:	48 8d 05 97 fb 00 00 	lea    0xfb97(%rip),%rax        # 17390 <g_370>
    77f9:	48 89 85 e0 fd ff ff 	mov    %rax,-0x220(%rbp)
    7800:	c7 85 a0 fd ff ff 29 	movl   $0x9f8ef429,-0x260(%rbp)
    7807:	f4 8e 9f 
    780a:	c7 85 20 ff ff ff 08 	movl   $0x8,-0xe0(%rbp)
    7811:	00 00 00 
    7814:	c7 85 24 ff ff ff 3f 	movl   $0x7bb5003f,-0xdc(%rbp)
    781b:	00 b5 7b 
    781e:	c7 85 28 ff ff ff 3f 	movl   $0x7bb5003f,-0xd8(%rbp)
    7825:	00 b5 7b 
    7828:	c7 85 2c ff ff ff 08 	movl   $0x8,-0xd4(%rbp)
    782f:	00 00 00 
    7832:	c7 85 30 ff ff ff 08 	movl   $0x8,-0xd0(%rbp)
    7839:	00 00 00 
    783c:	c7 85 34 ff ff ff 3f 	movl   $0x7bb5003f,-0xcc(%rbp)
    7843:	00 b5 7b 
    7846:	c7 85 38 ff ff ff 08 	movl   $0x8,-0xc8(%rbp)
    784d:	00 00 00 
    7850:	c7 85 3c ff ff ff 08 	movl   $0x8,-0xc4(%rbp)
    7857:	00 00 00 
    785a:	c7 85 40 ff ff ff 3f 	movl   $0x7bb5003f,-0xc0(%rbp)
    7861:	00 b5 7b 
    7864:	c7 85 44 ff ff ff 3f 	movl   $0x7bb5003f,-0xbc(%rbp)
    786b:	00 b5 7b 
    786e:	c7 85 48 ff ff ff 08 	movl   $0x8,-0xb8(%rbp)
    7875:	00 00 00 
    7878:	c7 85 4c ff ff ff 08 	movl   $0x8,-0xb4(%rbp)
    787f:	00 00 00 
    7882:	c7 85 50 ff ff ff 08 	movl   $0x8,-0xb0(%rbp)
    7889:	00 00 00 
    788c:	c7 85 54 ff ff ff 3f 	movl   $0x7bb5003f,-0xac(%rbp)
    7893:	00 b5 7b 
    7896:	c7 85 58 ff ff ff 3f 	movl   $0x7bb5003f,-0xa8(%rbp)
    789d:	00 b5 7b 
    78a0:	c7 85 5c ff ff ff 08 	movl   $0x8,-0xa4(%rbp)
    78a7:	00 00 00 
    78aa:	c7 85 60 ff ff ff 08 	movl   $0x8,-0xa0(%rbp)
    78b1:	00 00 00 
    78b4:	c7 85 64 ff ff ff 3f 	movl   $0x7bb5003f,-0x9c(%rbp)
    78bb:	00 b5 7b 
    78be:	c7 85 68 ff ff ff 08 	movl   $0x8,-0x98(%rbp)
    78c5:	00 00 00 
    78c8:	c7 85 6c ff ff ff 08 	movl   $0x8,-0x94(%rbp)
    78cf:	00 00 00 
    78d2:	c7 85 70 ff ff ff 3f 	movl   $0x7bb5003f,-0x90(%rbp)
    78d9:	00 b5 7b 
    78dc:	c7 85 74 ff ff ff 3f 	movl   $0x7bb5003f,-0x8c(%rbp)
    78e3:	00 b5 7b 
    78e6:	c7 85 78 ff ff ff 08 	movl   $0x8,-0x88(%rbp)
    78ed:	00 00 00 
    78f0:	c7 85 7c ff ff ff 08 	movl   $0x8,-0x84(%rbp)
    78f7:	00 00 00 
    78fa:	c7 45 80 08 00 00 00 	movl   $0x8,-0x80(%rbp)
    7901:	c7 45 84 3f 00 b5 7b 	movl   $0x7bb5003f,-0x7c(%rbp)
    7908:	c7 45 88 3f 00 b5 7b 	movl   $0x7bb5003f,-0x78(%rbp)
    790f:	c7 45 8c 08 00 00 00 	movl   $0x8,-0x74(%rbp)
    7916:	c7 45 90 08 00 00 00 	movl   $0x8,-0x70(%rbp)
    791d:	c7 45 94 3f 00 b5 7b 	movl   $0x7bb5003f,-0x6c(%rbp)
    7924:	c7 45 98 08 00 00 00 	movl   $0x8,-0x68(%rbp)
    792b:	c7 45 9c 08 00 00 00 	movl   $0x8,-0x64(%rbp)
    7932:	c7 45 a0 3f 00 b5 7b 	movl   $0x7bb5003f,-0x60(%rbp)
    7939:	c7 45 a4 3f 00 b5 7b 	movl   $0x7bb5003f,-0x5c(%rbp)
    7940:	c7 45 a8 08 00 00 00 	movl   $0x8,-0x58(%rbp)
    7947:	c7 45 ac 08 00 00 00 	movl   $0x8,-0x54(%rbp)
    794e:	c7 45 b0 08 00 00 00 	movl   $0x8,-0x50(%rbp)
    7955:	c7 45 b4 3f 00 b5 7b 	movl   $0x7bb5003f,-0x4c(%rbp)
    795c:	c7 45 b8 3f 00 b5 7b 	movl   $0x7bb5003f,-0x48(%rbp)
    7963:	c7 45 bc 08 00 00 00 	movl   $0x8,-0x44(%rbp)
    796a:	c7 45 c0 08 00 00 00 	movl   $0x8,-0x40(%rbp)
    7971:	c7 45 c4 3f 00 b5 7b 	movl   $0x7bb5003f,-0x3c(%rbp)
    7978:	c7 45 c8 08 00 00 00 	movl   $0x8,-0x38(%rbp)
    797f:	c7 45 cc 08 00 00 00 	movl   $0x8,-0x34(%rbp)
    7986:	c7 45 d0 3f 00 b5 7b 	movl   $0x7bb5003f,-0x30(%rbp)
    798d:	c7 45 d4 3f 00 b5 7b 	movl   $0x7bb5003f,-0x2c(%rbp)
    7994:	c7 45 d8 08 00 00 00 	movl   $0x8,-0x28(%rbp)
    799b:	c7 45 dc 08 00 00 00 	movl   $0x8,-0x24(%rbp)
    79a2:	c7 45 e0 08 00 00 00 	movl   $0x8,-0x20(%rbp)
    79a9:	c7 45 e4 3f 00 b5 7b 	movl   $0x7bb5003f,-0x1c(%rbp)
    79b0:	c7 45 e8 3f 00 b5 7b 	movl   $0x7bb5003f,-0x18(%rbp)
    79b7:	c7 45 ec 08 00 00 00 	movl   $0x8,-0x14(%rbp)
    79be:	c7 45 f0 08 00 00 00 	movl   $0x8,-0x10(%rbp)
    79c5:	c7 45 f4 3f 00 b5 7b 	movl   $0x7bb5003f,-0xc(%rbp)
    79cc:	c7 85 90 fd ff ff 08 	movl   $0x8,-0x270(%rbp)
    79d3:	00 00 00 
    79d6:	c7 05 b8 f6 00 00 01 	movl   $0x1,0xf6b8(%rip)        # 17098 <g_5>
    79dd:	00 00 00 
    79e0:	e9 c2 02 00 00       	jmpq   7ca7 <func_1+0x4f2>
    79e5:	c7 85 a4 fd ff ff 00 	movl   $0x0,-0x25c(%rbp)
    79ec:	00 00 00 
    79ef:	48 c7 85 b8 fd ff ff 	movq   $0x0,-0x248(%rbp)
    79f6:	00 00 00 00 
    79fa:	48 8d 85 b8 fd ff ff 	lea    -0x248(%rbp),%rax
    7a01:	48 89 85 e8 fd ff ff 	mov    %rax,-0x218(%rbp)
    7a08:	48 8d 05 c5 f6 00 00 	lea    0xf6c5(%rip),%rax        # 170d4 <g_11+0x14>
    7a0f:	48 89 85 c0 fd ff ff 	mov    %rax,-0x240(%rbp)
    7a16:	48 8d 85 c0 fd ff ff 	lea    -0x240(%rbp),%rax
    7a1d:	48 89 85 c8 fd ff ff 	mov    %rax,-0x238(%rbp)
    7a24:	48 8d 85 c8 fd ff ff 	lea    -0x238(%rbp),%rax
    7a2b:	48 89 85 f0 fd ff ff 	mov    %rax,-0x210(%rbp)
    7a32:	48 c7 85 60 fe ff ff 	movq   $0x0,-0x1a0(%rbp)
    7a39:	00 00 00 00 
    7a3d:	48 c7 85 68 fe ff ff 	movq   $0x0,-0x198(%rbp)
    7a44:	00 00 00 00 
    7a48:	48 c7 85 70 fe ff ff 	movq   $0x0,-0x190(%rbp)
    7a4f:	00 00 00 00 
    7a53:	48 c7 85 78 fe ff ff 	movq   $0x0,-0x188(%rbp)
    7a5a:	00 00 00 00 
    7a5e:	48 c7 85 f8 fd ff ff 	movq   $0x0,-0x208(%rbp)
    7a65:	00 00 00 00 
    7a69:	c7 85 a8 fd ff ff 86 	movl   $0xa2d49886,-0x258(%rbp)
    7a70:	98 d4 a2 
    7a73:	c7 85 94 fd ff ff 00 	movl   $0x0,-0x26c(%rbp)
    7a7a:	00 00 00 
    7a7d:	eb 1b                	jmp    7a9a <func_1+0x2e5>
    7a7f:	8b 85 94 fd ff ff    	mov    -0x26c(%rbp),%eax
    7a85:	48 98                	cltq   
    7a87:	48 c7 84 c5 80 fe ff 	movq   $0x0,-0x180(%rbp,%rax,8)
    7a8e:	ff 00 00 00 00 
    7a93:	83 85 94 fd ff ff 01 	addl   $0x1,-0x26c(%rbp)
    7a9a:	83 bd 94 fd ff ff 08 	cmpl   $0x8,-0x26c(%rbp)
    7aa1:	7e dc                	jle    7a7f <func_1+0x2ca>
    7aa3:	c7 05 2f f6 00 00 00 	movl   $0x0,0xf62f(%rip)        # 170dc <g_11+0x1c>
    7aaa:	00 00 00 
    7aad:	e9 d7 01 00 00       	jmpq   7c89 <func_1+0x4d4>
    7ab2:	c6 85 8f fd ff ff ee 	movb   $0xee,-0x271(%rbp)
    7ab9:	c7 85 ac fd ff ff 01 	movl   $0x1,-0x254(%rbp)
    7ac0:	00 00 00 
    7ac3:	c7 85 40 fe ff ff bd 	movl   $0x524dfebd,-0x1c0(%rbp)
    7aca:	fe 4d 52 
    7acd:	c7 85 44 fe ff ff bd 	movl   $0x524dfebd,-0x1bc(%rbp)
    7ad4:	fe 4d 52 
    7ad7:	c7 85 48 fe ff ff bd 	movl   $0x524dfebd,-0x1b8(%rbp)
    7ade:	fe 4d 52 
    7ae1:	c7 85 4c fe ff ff bd 	movl   $0x524dfebd,-0x1b4(%rbp)
    7ae8:	fe 4d 52 
    7aeb:	c7 85 50 fe ff ff bd 	movl   $0x524dfebd,-0x1b0(%rbp)
    7af2:	fe 4d 52 
    7af5:	c7 85 54 fe ff ff bd 	movl   $0x524dfebd,-0x1ac(%rbp)
    7afc:	fe 4d 52 
    7aff:	c7 85 58 fe ff ff bd 	movl   $0x524dfebd,-0x1a8(%rbp)
    7b06:	fe 4d 52 
    7b09:	c7 05 d9 f5 00 00 01 	movl   $0x1,0xf5d9(%rip)        # 170ec <g_13>
    7b10:	00 00 00 
    7b13:	e9 4c 01 00 00       	jmpq   7c64 <func_1+0x4af>
    7b18:	c7 85 b0 fd ff ff f7 	movl   $0xa7ab5bf7,-0x250(%rbp)
    7b1f:	5b ab a7 
    7b22:	48 c7 85 00 fe ff ff 	movq   $0xfffffffffffffffa,-0x200(%rbp)
    7b29:	fa ff ff ff 
    7b2d:	c6 85 20 fe ff ff 01 	movb   $0x1,-0x1e0(%rbp)
    7b34:	48 b8 6f 5e 39 f3 00 	movabs $0x659cc400f3395e6f,%rax
    7b3b:	c4 9c 65 
    7b3e:	48 89 85 28 fe ff ff 	mov    %rax,-0x1d8(%rbp)
    7b45:	0f b7 85 30 fe ff ff 	movzwl -0x1d0(%rbp),%eax
    7b4c:	66 25 00 f8          	and    $0xf800,%ax
    7b50:	83 c8 12             	or     $0x12,%eax
    7b53:	66 89 85 30 fe ff ff 	mov    %ax,-0x1d0(%rbp)
    7b5a:	48 8d 05 97 1a 01 00 	lea    0x11a97(%rip),%rax        # 195f8 <g_950>
    7b61:	48 89 85 d0 fd ff ff 	mov    %rax,-0x230(%rbp)
    7b68:	48 8d 85 d0 fd ff ff 	lea    -0x230(%rbp),%rax
    7b6f:	48 89 85 08 fe ff ff 	mov    %rax,-0x1f8(%rbp)
    7b76:	c7 05 74 f5 00 00 06 	movl   $0x6,0xf574(%rip)        # 170f4 <g_15>
    7b7d:	00 00 00 
    7b80:	e9 c1 00 00 00       	jmpq   7c46 <func_1+0x491>
    7b85:	48 8d 05 6c f5 00 00 	lea    0xf56c(%rip),%rax        # 170f8 <g_27>
    7b8c:	48 89 85 10 fe ff ff 	mov    %rax,-0x1f0(%rbp)
    7b93:	48 8d 05 66 f5 00 00 	lea    0xf566(%rip),%rax        # 17100 <g_31>
    7b9a:	48 89 85 d0 fe ff ff 	mov    %rax,-0x130(%rbp)
    7ba1:	48 8d 05 e8 f7 00 00 	lea    0xf7e8(%rip),%rax        # 17390 <g_370>
    7ba8:	48 89 85 d8 fe ff ff 	mov    %rax,-0x128(%rbp)
    7baf:	48 8d 05 da f7 00 00 	lea    0xf7da(%rip),%rax        # 17390 <g_370>
    7bb6:	48 89 85 e0 fe ff ff 	mov    %rax,-0x120(%rbp)
    7bbd:	48 8d 05 3c f5 00 00 	lea    0xf53c(%rip),%rax        # 17100 <g_31>
    7bc4:	48 89 85 e8 fe ff ff 	mov    %rax,-0x118(%rbp)
    7bcb:	48 8d 05 be f7 00 00 	lea    0xf7be(%rip),%rax        # 17390 <g_370>
    7bd2:	48 89 85 f0 fe ff ff 	mov    %rax,-0x110(%rbp)
    7bd9:	48 8d 05 b0 f7 00 00 	lea    0xf7b0(%rip),%rax        # 17390 <g_370>
    7be0:	48 89 85 f8 fe ff ff 	mov    %rax,-0x108(%rbp)
    7be7:	48 8d 05 12 f5 00 00 	lea    0xf512(%rip),%rax        # 17100 <g_31>
    7bee:	48 89 85 00 ff ff ff 	mov    %rax,-0x100(%rbp)
    7bf5:	48 8d 05 94 f7 00 00 	lea    0xf794(%rip),%rax        # 17390 <g_370>
    7bfc:	48 89 85 08 ff ff ff 	mov    %rax,-0xf8(%rbp)
    7c03:	48 8d 05 86 f7 00 00 	lea    0xf786(%rip),%rax        # 17390 <g_370>
    7c0a:	48 89 85 10 ff ff ff 	mov    %rax,-0xf0(%rbp)
    7c11:	48 8d 05 e8 f4 00 00 	lea    0xf4e8(%rip),%rax        # 17100 <g_31>
    7c18:	48 89 85 18 ff ff ff 	mov    %rax,-0xe8(%rbp)
    7c1f:	c7 85 b4 fd ff ff ff 	movl   $0xffffffff,-0x24c(%rbp)
    7c26:	ff ff ff 
    7c29:	48 8d 05 88 f8 00 00 	lea    0xf888(%rip),%rax        # 174b8 <g_712+0x78>
    7c30:	48 89 85 18 fe ff ff 	mov    %rax,-0x1e8(%rbp)
    7c37:	8b 05 b7 f4 00 00    	mov    0xf4b7(%rip),%eax        # 170f4 <g_15>
    7c3d:	83 e8 01             	sub    $0x1,%eax
    7c40:	89 05 ae f4 00 00    	mov    %eax,0xf4ae(%rip)        # 170f4 <g_15>
    7c46:	8b 05 a8 f4 00 00    	mov    0xf4a8(%rip),%eax        # 170f4 <g_15>
    7c4c:	83 f8 02             	cmp    $0x2,%eax
    7c4f:	0f 8f 30 ff ff ff    	jg     7b85 <func_1+0x3d0>
    7c55:	8b 05 91 f4 00 00    	mov    0xf491(%rip),%eax        # 170ec <g_13>
    7c5b:	83 c0 01             	add    $0x1,%eax
    7c5e:	89 05 88 f4 00 00    	mov    %eax,0xf488(%rip)        # 170ec <g_13>
    7c64:	8b 05 82 f4 00 00    	mov    0xf482(%rip),%eax        # 170ec <g_13>
    7c6a:	83 f8 09             	cmp    $0x9,%eax
    7c6d:	0f 8e a5 fe ff ff    	jle    7b18 <func_1+0x363>
    7c73:	83 ad 90 fd ff ff 01 	subl   $0x1,-0x270(%rbp)
    7c7a:	8b 05 5c f4 00 00    	mov    0xf45c(%rip),%eax        # 170dc <g_11+0x1c>
    7c80:	83 c0 01             	add    $0x1,%eax
    7c83:	89 05 53 f4 00 00    	mov    %eax,0xf453(%rip)        # 170dc <g_11+0x1c>
    7c89:	8b 05 4d f4 00 00    	mov    0xf44d(%rip),%eax        # 170dc <g_11+0x1c>
    7c8f:	83 f8 09             	cmp    $0x9,%eax
    7c92:	0f 8e 1a fe ff ff    	jle    7ab2 <func_1+0x2fd>
    7c98:	8b 05 fa f3 00 00    	mov    0xf3fa(%rip),%eax        # 17098 <g_5>
    7c9e:	83 c0 01             	add    $0x1,%eax
    7ca1:	89 05 f1 f3 00 00    	mov    %eax,0xf3f1(%rip)        # 17098 <g_5>
    7ca7:	8b 05 eb f3 00 00    	mov    0xf3eb(%rip),%eax        # 17098 <g_5>
    7cad:	83 f8 09             	cmp    $0x9,%eax
    7cb0:	0f 8e 2f fd ff ff    	jle    79e5 <func_1+0x230>
    7cb6:	48 8b 05 33 f9 00 00 	mov    0xf933(%rip),%rax        # 175f0 <g_849>
    7cbd:	48 8b 55 f8          	mov    -0x8(%rbp),%rdx
    7cc1:	64 48 33 14 25 28 00 	xor    %fs:0x28,%rdx
    7cc8:	00 00 
    7cca:	74 05                	je     7cd1 <func_1+0x51c>
    7ccc:	e8 9f e3 ff ff       	callq  6070 <__stack_chk_fail@plt>
    7cd1:	c9                   	leaveq 
    7cd2:	c3                   	retq   

0000000000007cd3 <func_16>:
    7cd3:	f3 0f 1e fa          	endbr64 
    7cd7:	55                   	push   %rbp
    7cd8:	48 89 e5             	mov    %rsp,%rbp
    7cdb:	48 89 7d d8          	mov    %rdi,-0x28(%rbp)
    7cdf:	48 89 75 d0          	mov    %rsi,-0x30(%rbp)
    7ce3:	89 d0                	mov    %edx,%eax
    7ce5:	89 4d c8             	mov    %ecx,-0x38(%rbp)
    7ce8:	66 89 45 cc          	mov    %ax,-0x34(%rbp)
    7cec:	c6 45 e0 06          	movb   $0x6,-0x20(%rbp)
    7cf0:	48 b8 5b a9 88 b7 be 	movabs $0x518504beb788a95b,%rax
    7cf7:	04 85 51 
    7cfa:	48 89 45 e8          	mov    %rax,-0x18(%rbp)
    7cfe:	0f b7 45 f0          	movzwl -0x10(%rbp),%eax
    7d02:	66 25 00 f8          	and    $0xf800,%ax
    7d06:	83 c8 26             	or     $0x26,%eax
    7d09:	66 89 45 f0          	mov    %ax,-0x10(%rbp)
    7d0d:	48 8b 4d d8          	mov    -0x28(%rbp),%rcx
    7d11:	48 8b 45 e0          	mov    -0x20(%rbp),%rax
    7d15:	48 8b 55 e8          	mov    -0x18(%rbp),%rdx
    7d19:	48 89 01             	mov    %rax,(%rcx)
    7d1c:	48 89 51 08          	mov    %rdx,0x8(%rcx)
    7d20:	48 8b 45 f0          	mov    -0x10(%rbp),%rax
    7d24:	48 89 41 10          	mov    %rax,0x10(%rcx)
    7d28:	48 8b 45 d8          	mov    -0x28(%rbp),%rax
    7d2c:	5d                   	pop    %rbp
    7d2d:	c3                   	retq   

0000000000007d2e <func_28>:
    7d2e:	f3 0f 1e fa          	endbr64 
    7d32:	55                   	push   %rbp
    7d33:	48 89 e5             	mov    %rsp,%rbp
    7d36:	48 83 ec 30          	sub    $0x30,%rsp
    7d3a:	48 89 7d d8          	mov    %rdi,-0x28(%rbp)
    7d3e:	64 48 8b 04 25 28 00 	mov    %fs:0x28,%rax
    7d45:	00 00 
    7d47:	48 89 45 f8          	mov    %rax,-0x8(%rbp)
    7d4b:	31 c0                	xor    %eax,%eax
    7d4d:	48 c7 45 e8 00 00 00 	movq   $0x0,-0x18(%rbp)
    7d54:	00 
    7d55:	48 8d 05 64 f3 00 00 	lea    0xf364(%rip),%rax        # 170c0 <g_11>
    7d5c:	48 89 45 e0          	mov    %rax,-0x20(%rbp)
    7d60:	48 8d 45 e0          	lea    -0x20(%rbp),%rax
    7d64:	48 89 45 f0          	mov    %rax,-0x10(%rbp)
    7d68:	48 8b 45 18          	mov    0x18(%rbp),%rax
    7d6c:	0f b6 c0             	movzbl %al,%eax
    7d6f:	89 c7                	mov    %eax,%edi
    7d71:	e8 25 00 00 00       	callq  7d9b <func_33>
    7d76:	48 8b 55 f0          	mov    -0x10(%rbp),%rdx
    7d7a:	48 89 02             	mov    %rax,(%rdx)
    7d7d:	0f b6 45 10          	movzbl 0x10(%rbp),%eax
    7d81:	48 0f be c0          	movsbq %al,%rax
    7d85:	48 8b 4d f8          	mov    -0x8(%rbp),%rcx
    7d89:	64 48 33 0c 25 28 00 	xor    %fs:0x28,%rcx
    7d90:	00 00 
    7d92:	74 05                	je     7d99 <func_28+0x6b>
    7d94:	e8 d7 e2 ff ff       	callq  6070 <__stack_chk_fail@plt>
    7d99:	c9                   	leaveq 
    7d9a:	c3                   	retq   

0000000000007d9b <func_33>:
    7d9b:	f3 0f 1e fa          	endbr64 
    7d9f:	55                   	push   %rbp
    7da0:	48 89 e5             	mov    %rsp,%rbp
    7da3:	41 57                	push   %r15
    7da5:	41 56                	push   %r14
    7da7:	41 55                	push   %r13
    7da9:	41 54                	push   %r12
    7dab:	53                   	push   %rbx
    7dac:	48 81 ec b8 00 00 00 	sub    $0xb8,%rsp
    7db3:	89 f8                	mov    %edi,%eax
    7db5:	88 85 2c ff ff ff    	mov    %al,-0xd4(%rbp)
    7dbb:	64 48 8b 04 25 28 00 	mov    %fs:0x28,%rax
    7dc2:	00 00 
    7dc4:	48 89 45 c8          	mov    %rax,-0x38(%rbp)
    7dc8:	31 c0                	xor    %eax,%eax
    7dca:	48 8d 05 2f f3 00 00 	lea    0xf32f(%rip),%rax        # 17100 <g_31>
    7dd1:	48 89 85 50 ff ff ff 	mov    %rax,-0xb0(%rbp)
    7dd8:	c7 85 38 ff ff ff 04 	movl   $0x4,-0xc8(%rbp)
    7ddf:	00 00 00 
    7de2:	48 c7 85 58 ff ff ff 	movq   $0x0,-0xa8(%rbp)
    7de9:	00 00 00 00 
    7ded:	c7 85 3c ff ff ff 30 	movl   $0xcb0bb930,-0xc4(%rbp)
    7df4:	b9 0b cb 
    7df7:	48 8d 05 4c f3 00 00 	lea    0xf34c(%rip),%rax        # 1714a <g_114+0x2a>
    7dfe:	48 89 85 48 ff ff ff 	mov    %rax,-0xb8(%rbp)
    7e05:	48 8d 85 48 ff ff ff 	lea    -0xb8(%rbp),%rax
    7e0c:	48 89 85 60 ff ff ff 	mov    %rax,-0xa0(%rbp)
    7e13:	48 8d 05 00 f6 00 00 	lea    0xf600(%rip),%rax        # 1741a <g_639+0x1a>
    7e1a:	48 89 45 80          	mov    %rax,-0x80(%rbp)
    7e1e:	48 8d 05 f5 f5 00 00 	lea    0xf5f5(%rip),%rax        # 1741a <g_639+0x1a>
    7e25:	48 89 45 88          	mov    %rax,-0x78(%rbp)
    7e29:	48 8d 05 ea f5 00 00 	lea    0xf5ea(%rip),%rax        # 1741a <g_639+0x1a>
    7e30:	48 89 45 90          	mov    %rax,-0x70(%rbp)
    7e34:	48 8d 05 df f5 00 00 	lea    0xf5df(%rip),%rax        # 1741a <g_639+0x1a>
    7e3b:	48 89 45 98          	mov    %rax,-0x68(%rbp)
    7e3f:	48 8d 05 d4 f5 00 00 	lea    0xf5d4(%rip),%rax        # 1741a <g_639+0x1a>
    7e46:	48 89 45 a0          	mov    %rax,-0x60(%rbp)
    7e4a:	48 8d 05 c9 f5 00 00 	lea    0xf5c9(%rip),%rax        # 1741a <g_639+0x1a>
    7e51:	48 89 45 a8          	mov    %rax,-0x58(%rbp)
    7e55:	48 8d 05 be f5 00 00 	lea    0xf5be(%rip),%rax        # 1741a <g_639+0x1a>
    7e5c:	48 89 45 b0          	mov    %rax,-0x50(%rbp)
    7e60:	48 8d 05 b3 f5 00 00 	lea    0xf5b3(%rip),%rax        # 1741a <g_639+0x1a>
    7e67:	48 89 45 b8          	mov    %rax,-0x48(%rbp)
    7e6b:	48 8d 05 a8 f5 00 00 	lea    0xf5a8(%rip),%rax        # 1741a <g_639+0x1a>
    7e72:	48 89 45 c0          	mov    %rax,-0x40(%rbp)
    7e76:	c7 85 40 ff ff ff 01 	movl   $0x1,-0xc0(%rbp)
    7e7d:	00 00 00 
    7e80:	c7 85 44 ff ff ff 71 	movl   $0x801ff771,-0xbc(%rbp)
    7e87:	f7 1f 80 
    7e8a:	48 c7 85 68 ff ff ff 	movq   $0x0,-0x98(%rbp)
    7e91:	00 00 00 00 
    7e95:	48 8d 05 80 f2 00 00 	lea    0xf280(%rip),%rax        # 1711c <g_92>
    7e9c:	48 89 85 70 ff ff ff 	mov    %rax,-0x90(%rbp)
    7ea3:	48 8d 05 b6 1b 01 00 	lea    0x11bb6(%rip),%rax        # 19a60 <g_607>
    7eaa:	48 89 85 78 ff ff ff 	mov    %rax,-0x88(%rbp)
    7eb1:	0f b6 9d 2c ff ff ff 	movzbl -0xd4(%rbp),%ebx
    7eb8:	44 0f b6 a5 2c ff ff 	movzbl -0xd4(%rbp),%r12d
    7ebf:	ff 
    7ec0:	44 0f b6 ad 2c ff ff 	movzbl -0xd4(%rbp),%r13d
    7ec7:	ff 
    7ec8:	8b 85 38 ff ff ff    	mov    -0xc8(%rbp),%eax
    7ece:	44 0f b7 f8          	movzwl %ax,%r15d
    7ed2:	b8 ff ff ff ff       	mov    $0xffffffff,%eax
    7ed7:	85 c0                	test   %eax,%eax
    7ed9:	75 1e                	jne    7ef9 <func_33+0x15e>
    7edb:	be 04 f6 ff ff       	mov    $0xfffff604,%esi
    7ee0:	bf 0c 29 00 00       	mov    $0x290c,%edi
    7ee5:	e8 0b e5 ff ff       	callq  63f5 <safe_mul_func_int16_t_s_s>
    7eea:	be 04 00 00 00       	mov    $0x4,%esi
    7eef:	bf f0 a5 ff ff       	mov    $0xffffa5f0,%edi
    7ef4:	e8 e8 e5 ff ff       	callq  64e1 <safe_lshift_func_int16_t_s_u>
    7ef9:	b8 01 00 00 00       	mov    $0x1,%eax
    7efe:	48 63 d0             	movslq %eax,%rdx
    7f01:	48 8b 05 70 f1 00 00 	mov    0xf170(%rip),%rax        # 17078 <g_2+0x38>
    7f08:	48 39 c2             	cmp    %rax,%rdx
    7f0b:	0f 97 c0             	seta   %al
    7f0e:	0f b6 c0             	movzbl %al,%eax
    7f11:	39 85 38 ff ff ff    	cmp    %eax,-0xc8(%rbp)
    7f17:	0f 95 c0             	setne  %al
    7f1a:	44 0f b6 f0          	movzbl %al,%r14d
    7f1e:	0f b6 05 db f1 00 00 	movzbl 0xf1db(%rip),%eax        # 17100 <g_31>
    7f25:	0f be c0             	movsbl %al,%eax
    7f28:	89 c7                	mov    %eax,%edi
    7f2a:	e8 f9 43 00 00       	callq  c328 <func_51>
    7f2f:	48 89 c6             	mov    %rax,%rsi
    7f32:	0f b6 05 c7 f1 00 00 	movzbl 0xf1c7(%rip),%eax        # 17100 <g_31>
    7f39:	0f be c0             	movsbl %al,%eax
    7f3c:	48 8b 95 50 ff ff ff 	mov    -0xb0(%rbp),%rdx
    7f43:	45 89 f8             	mov    %r15d,%r8d
    7f46:	44 89 f1             	mov    %r14d,%ecx
    7f49:	89 c7                	mov    %eax,%edi
    7f4b:	e8 6d 43 00 00       	callq  c2bd <func_45>
    7f50:	44 89 ee             	mov    %r13d,%esi
    7f53:	48 89 c7             	mov    %rax,%rdi
    7f56:	e8 69 30 00 00       	callq  afc4 <func_42>
    7f5b:	48 89 c1             	mov    %rax,%rcx
    7f5e:	48 8b 05 a3 f1 00 00 	mov    0xf1a3(%rip),%rax        # 17108 <g_31+0x8>
    7f65:	0f be c0             	movsbl %al,%eax
    7f68:	44 89 e2             	mov    %r12d,%edx
    7f6b:	48 89 ce             	mov    %rcx,%rsi
    7f6e:	89 c7                	mov    %eax,%edi
    7f70:	e8 22 05 00 00       	callq  8497 <func_38>
    7f75:	48 89 05 94 16 01 00 	mov    %rax,0x11694(%rip)        # 19610 <g_1127>
    7f7c:	48 8b 05 8d 16 01 00 	mov    0x1168d(%rip),%rax        # 19610 <g_1127>
    7f83:	89 de                	mov    %ebx,%esi
    7f85:	48 89 c7             	mov    %rax,%rdi
    7f88:	e8 7e 01 00 00       	callq  810b <func_35>
    7f8d:	48 89 85 50 ff ff ff 	mov    %rax,-0xb0(%rbp)
    7f94:	8b 95 3c ff ff ff    	mov    -0xc4(%rbp),%edx
    7f9a:	8b 85 38 ff ff ff    	mov    -0xc8(%rbp),%eax
    7fa0:	89 d6                	mov    %edx,%esi
    7fa2:	89 c7                	mov    %eax,%edi
    7fa4:	e8 5c e6 ff ff       	callq  6605 <safe_sub_func_int32_t_s_s>
    7fa9:	0f b7 c0             	movzwl %ax,%eax
    7fac:	be 06 00 00 00       	mov    $0x6,%esi
    7fb1:	89 c7                	mov    %eax,%edi
    7fb3:	e8 06 ee ff ff       	callq  6dbe <safe_lshift_func_uint16_t_u_s>
    7fb8:	44 0f b7 e0          	movzwl %ax,%r12d
    7fbc:	83 bd 38 ff ff ff 01 	cmpl   $0x1,-0xc8(%rbp)
    7fc3:	0f 95 c2             	setne  %dl
    7fc6:	48 83 bd 60 ff ff ff 	cmpq   $0x0,-0xa0(%rbp)
    7fcd:	00 
    7fce:	0f 94 c0             	sete   %al
    7fd1:	31 d0                	xor    %edx,%eax
    7fd3:	84 c0                	test   %al,%al
    7fd5:	0f 84 8c 00 00 00    	je     8067 <func_33+0x2cc>
    7fdb:	8b 85 38 ff ff ff    	mov    -0xc8(%rbp),%eax
    7fe1:	48 63 d8             	movslq %eax,%rbx
    7fe4:	48 8b 05 0d 16 01 00 	mov    0x1160d(%rip),%rax        # 195f8 <g_950>
    7feb:	0f b7 00             	movzwl (%rax),%eax
    7fee:	0f b7 c0             	movzwl %ax,%eax
    7ff1:	be 04 00 00 00       	mov    $0x4,%esi
    7ff6:	89 c7                	mov    %eax,%edi
    7ff8:	e8 09 ee ff ff       	callq  6e06 <safe_lshift_func_uint16_t_u_u>
    7ffd:	0f b7 c0             	movzwl %ax,%eax
    8000:	0f b6 95 2c ff ff ff 	movzbl -0xd4(%rbp),%edx
    8007:	89 95 40 ff ff ff    	mov    %edx,-0xc0(%rbp)
    800d:	0b 85 40 ff ff ff    	or     -0xc0(%rbp),%eax
    8013:	39 85 3c ff ff ff    	cmp    %eax,-0xc4(%rbp)
    8019:	be 05 00 00 00       	mov    $0x5,%esi
    801e:	bf 93 ff ff ff       	mov    $0xffffff93,%edi
    8023:	e8 c6 e2 ff ff       	callq  62ee <safe_lshift_func_int8_t_s_u>
    8028:	0f be c0             	movsbl %al,%eax
    802b:	be 42 d1 59 32       	mov    $0x3259d142,%esi
    8030:	89 c7                	mov    %eax,%edi
    8032:	e8 c6 ee ff ff       	callq  6efd <safe_mod_func_uint32_t_u_u>
    8037:	f7 d0                	not    %eax
    8039:	89 c2                	mov    %eax,%edx
    803b:	0f b6 85 2c ff ff ff 	movzbl -0xd4(%rbp),%eax
    8042:	39 c2                	cmp    %eax,%edx
    8044:	0f 92 c0             	setb   %al
    8047:	0f b6 c0             	movzbl %al,%eax
    804a:	48 89 de             	mov    %rbx,%rsi
    804d:	48 89 c7             	mov    %rax,%rdi
    8050:	e8 f6 ef ff ff       	callq  704b <safe_sub_func_uint64_t_u_u>
    8055:	8b 95 3c ff ff ff    	mov    -0xc4(%rbp),%edx
    805b:	48 39 d0             	cmp    %rdx,%rax
    805e:	75 07                	jne    8067 <func_33+0x2cc>
    8060:	b8 01 00 00 00       	mov    $0x1,%eax
    8065:	eb 05                	jmp    806c <func_33+0x2d1>
    8067:	b8 00 00 00 00       	mov    $0x0,%eax
    806c:	44 39 e0             	cmp    %r12d,%eax
    806f:	0f 9d c0             	setge  %al
    8072:	0f b6 c0             	movzbl %al,%eax
    8075:	21 85 44 ff ff ff    	and    %eax,-0xbc(%rbp)
    807b:	0f b6 85 2c ff ff ff 	movzbl -0xd4(%rbp),%eax
    8082:	23 85 44 ff ff ff    	and    -0xbc(%rbp),%eax
    8088:	89 c2                	mov    %eax,%edx
    808a:	48 8b 05 7f 0d 01 00 	mov    0x10d7f(%rip),%rax        # 18e10 <g_376>
    8091:	0f b6 00             	movzbl (%rax),%eax
    8094:	0f be c0             	movsbl %al,%eax
    8097:	09 c2                	or     %eax,%edx
    8099:	48 8b 05 58 15 01 00 	mov    0x11558(%rip),%rax        # 195f8 <g_950>
    80a0:	0f b7 00             	movzwl (%rax),%eax
    80a3:	0f b7 c0             	movzwl %ax,%eax
    80a6:	39 c2                	cmp    %eax,%edx
    80a8:	0f 9c c0             	setl   %al
    80ab:	0f b6 c0             	movzbl %al,%eax
    80ae:	89 85 38 ff ff ff    	mov    %eax,-0xc8(%rbp)
    80b4:	ba 01 00 00 00       	mov    $0x1,%edx
    80b9:	48 8b 85 70 ff ff ff 	mov    -0x90(%rbp),%rax
    80c0:	8b 00                	mov    (%rax),%eax
    80c2:	31 c2                	xor    %eax,%edx
    80c4:	48 8b 85 70 ff ff ff 	mov    -0x90(%rbp),%rax
    80cb:	89 10                	mov    %edx,(%rax)
    80cd:	48 8b 85 78 ff ff ff 	mov    -0x88(%rbp),%rax
    80d4:	48 8d 15 85 9f 00 00 	lea    0x9f85(%rip),%rdx        # 12060 <g_332>
    80db:	48 89 10             	mov    %rdx,(%rax)
    80de:	48 8d 05 8b f4 00 00 	lea    0xf48b(%rip),%rax        # 17570 <g_736+0x10>
    80e5:	48 8b 4d c8          	mov    -0x38(%rbp),%rcx
    80e9:	64 48 33 0c 25 28 00 	xor    %fs:0x28,%rcx
    80f0:	00 00 
    80f2:	74 05                	je     80f9 <func_33+0x35e>
    80f4:	e8 77 df ff ff       	callq  6070 <__stack_chk_fail@plt>
    80f9:	48 81 c4 b8 00 00 00 	add    $0xb8,%rsp
    8100:	5b                   	pop    %rbx
    8101:	41 5c                	pop    %r12
    8103:	41 5d                	pop    %r13
    8105:	41 5e                	pop    %r14
    8107:	41 5f                	pop    %r15
    8109:	5d                   	pop    %rbp
    810a:	c3                   	retq   

000000000000810b <func_35>:
    810b:	f3 0f 1e fa          	endbr64 
    810f:	55                   	push   %rbp
    8110:	48 89 e5             	mov    %rsp,%rbp
    8113:	53                   	push   %rbx
    8114:	48 81 ec a8 08 00 00 	sub    $0x8a8,%rsp
    811b:	48 89 bd 58 f7 ff ff 	mov    %rdi,-0x8a8(%rbp)
    8122:	89 f0                	mov    %esi,%eax
    8124:	66 89 85 54 f7 ff ff 	mov    %ax,-0x8ac(%rbp)
    812b:	64 48 8b 04 25 28 00 	mov    %fs:0x28,%rax
    8132:	00 00 
    8134:	48 89 45 e8          	mov    %rax,-0x18(%rbp)
    8138:	31 c0                	xor    %eax,%eax
    813a:	48 8d 85 60 f8 ff ff 	lea    -0x7a0(%rbp),%rax
    8141:	48 8d 15 d8 fd 00 00 	lea    0xfdd8(%rip),%rdx        # 17f20 <g_1189+0x8>
    8148:	b9 f0 00 00 00       	mov    $0xf0,%ecx
    814d:	48 89 c7             	mov    %rax,%rdi
    8150:	48 89 d6             	mov    %rdx,%rsi
    8153:	f3 48 a5             	rep movsq %ds:(%rsi),%es:(%rdi)
    8156:	c7 85 64 f7 ff ff 95 	movl   $0xd7800895,-0x89c(%rbp)
    815d:	08 80 d7 
    8160:	c7 85 90 f7 ff ff 00 	movl   $0x0,-0x870(%rbp)
    8167:	00 00 00 
    816a:	c7 85 94 f7 ff ff d4 	movl   $0x79a89fd4,-0x86c(%rbp)
    8171:	9f a8 79 
    8174:	c7 85 98 f7 ff ff 38 	movl   $0x6f1be938,-0x868(%rbp)
    817b:	e9 1b 6f 
    817e:	c7 85 9c f7 ff ff 38 	movl   $0x6f1be938,-0x864(%rbp)
    8185:	e9 1b 6f 
    8188:	c7 85 a0 f7 ff ff d4 	movl   $0x79a89fd4,-0x860(%rbp)
    818f:	9f a8 79 
    8192:	c7 85 a4 f7 ff ff 00 	movl   $0x0,-0x85c(%rbp)
    8199:	00 00 00 
    819c:	c7 85 a8 f7 ff ff 0f 	movl   $0xb00fbe0f,-0x858(%rbp)
    81a3:	be 0f b0 
    81a6:	c7 85 ac f7 ff ff 5f 	movl   $0xe499ea5f,-0x854(%rbp)
    81ad:	ea 99 e4 
    81b0:	c7 85 b0 f7 ff ff fc 	movl   $0xc471d2fc,-0x850(%rbp)
    81b7:	d2 71 c4 
    81ba:	c7 85 b4 f7 ff ff 06 	movl   $0x6,-0x84c(%rbp)
    81c1:	00 00 00 
    81c4:	c7 85 b8 f7 ff ff 00 	movl   $0x0,-0x848(%rbp)
    81cb:	00 00 00 
    81ce:	c7 85 bc f7 ff ff 0f 	movl   $0xb00fbe0f,-0x844(%rbp)
    81d5:	be 0f b0 
    81d8:	c7 85 c0 f7 ff ff 5f 	movl   $0xe499ea5f,-0x840(%rbp)
    81df:	ea 99 e4 
    81e2:	c7 85 c4 f7 ff ff fc 	movl   $0xc471d2fc,-0x83c(%rbp)
    81e9:	d2 71 c4 
    81ec:	c7 85 c8 f7 ff ff 06 	movl   $0x6,-0x838(%rbp)
    81f3:	00 00 00 
    81f6:	c7 85 cc f7 ff ff 00 	movl   $0x0,-0x834(%rbp)
    81fd:	00 00 00 
    8200:	c7 85 d0 f7 ff ff 61 	movl   $0xf261f261,-0x830(%rbp)
    8207:	f2 61 f2 
    820a:	c7 85 d4 f7 ff ff 01 	movl   $0x1,-0x82c(%rbp)
    8211:	00 00 00 
    8214:	c7 85 d8 f7 ff ff 1d 	movl   $0x4ceae71d,-0x828(%rbp)
    821b:	e7 ea 4c 
    821e:	c7 85 dc f7 ff ff f7 	movl   $0xfffffff7,-0x824(%rbp)
    8225:	ff ff ff 
    8228:	c7 85 e0 f7 ff ff 00 	movl   $0x0,-0x820(%rbp)
    822f:	00 00 00 
    8232:	c7 85 e4 f7 ff ff 61 	movl   $0xf261f261,-0x81c(%rbp)
    8239:	f2 61 f2 
    823c:	c7 85 e8 f7 ff ff 01 	movl   $0x1,-0x818(%rbp)
    8243:	00 00 00 
    8246:	c7 85 ec f7 ff ff 1d 	movl   $0x4ceae71d,-0x814(%rbp)
    824d:	e7 ea 4c 
    8250:	c7 85 f0 f7 ff ff f7 	movl   $0xfffffff7,-0x810(%rbp)
    8257:	ff ff ff 
    825a:	c7 85 f4 f7 ff ff 00 	movl   $0x0,-0x80c(%rbp)
    8261:	00 00 00 
    8264:	c7 85 f8 f7 ff ff f7 	movl   $0xfffffff7,-0x808(%rbp)
    826b:	ff ff ff 
    826e:	c7 85 fc f7 ff ff 1d 	movl   $0x4ceae71d,-0x804(%rbp)
    8275:	e7 ea 4c 
    8278:	c7 85 00 f8 ff ff 01 	movl   $0x1,-0x800(%rbp)
    827f:	00 00 00 
    8282:	c7 85 04 f8 ff ff 61 	movl   $0xf261f261,-0x7fc(%rbp)
    8289:	f2 61 f2 
    828c:	c7 85 08 f8 ff ff 00 	movl   $0x0,-0x7f8(%rbp)
    8293:	00 00 00 
    8296:	c7 85 0c f8 ff ff f7 	movl   $0xfffffff7,-0x7f4(%rbp)
    829d:	ff ff ff 
    82a0:	c7 85 10 f8 ff ff 1d 	movl   $0x4ceae71d,-0x7f0(%rbp)
    82a7:	e7 ea 4c 
    82aa:	c7 85 14 f8 ff ff 01 	movl   $0x1,-0x7ec(%rbp)
    82b1:	00 00 00 
    82b4:	c7 85 18 f8 ff ff 61 	movl   $0xf261f261,-0x7e8(%rbp)
    82bb:	f2 61 f2 
    82be:	c7 85 1c f8 ff ff 00 	movl   $0x0,-0x7e4(%rbp)
    82c5:	00 00 00 
    82c8:	c7 85 20 f8 ff ff 06 	movl   $0x6,-0x7e0(%rbp)
    82cf:	00 00 00 
    82d2:	c7 85 24 f8 ff ff fc 	movl   $0xc471d2fc,-0x7dc(%rbp)
    82d9:	d2 71 c4 
    82dc:	c7 85 28 f8 ff ff 5f 	movl   $0xe499ea5f,-0x7d8(%rbp)
    82e3:	ea 99 e4 
    82e6:	c7 85 2c f8 ff ff 0f 	movl   $0xb00fbe0f,-0x7d4(%rbp)
    82ed:	be 0f b0 
    82f0:	c7 85 30 f8 ff ff 00 	movl   $0x0,-0x7d0(%rbp)
    82f7:	00 00 00 
    82fa:	c7 85 34 f8 ff ff 06 	movl   $0x6,-0x7cc(%rbp)
    8301:	00 00 00 
    8304:	c7 85 38 f8 ff ff fc 	movl   $0xc471d2fc,-0x7c8(%rbp)
    830b:	d2 71 c4 
    830e:	c7 85 3c f8 ff ff 5f 	movl   $0xe499ea5f,-0x7c4(%rbp)
    8315:	ea 99 e4 
    8318:	c7 85 40 f8 ff ff 0f 	movl   $0xb00fbe0f,-0x7c0(%rbp)
    831f:	be 0f b0 
    8322:	c7 85 44 f8 ff ff 00 	movl   $0x0,-0x7bc(%rbp)
    8329:	00 00 00 
    832c:	c7 85 48 f8 ff ff d4 	movl   $0x79a89fd4,-0x7b8(%rbp)
    8333:	9f a8 79 
    8336:	c7 85 4c f8 ff ff 38 	movl   $0x6f1be938,-0x7b4(%rbp)
    833d:	e9 1b 6f 
    8340:	c7 85 50 f8 ff ff 38 	movl   $0x6f1be938,-0x7b0(%rbp)
    8347:	e9 1b 6f 
    834a:	c7 85 54 f8 ff ff d4 	movl   $0x79a89fd4,-0x7ac(%rbp)
    8351:	9f a8 79 
    8354:	48 8d 05 05 f2 00 00 	lea    0xf205(%rip),%rax        # 17560 <g_736>
    835b:	48 89 85 68 f7 ff ff 	mov    %rax,-0x898(%rbp)
    8362:	48 8d 05 27 f0 00 00 	lea    0xf027(%rip),%rax        # 17390 <g_370>
    8369:	48 89 85 70 f7 ff ff 	mov    %rax,-0x890(%rbp)
    8370:	48 8d 05 19 f0 00 00 	lea    0xf019(%rip),%rax        # 17390 <g_370>
    8377:	48 89 85 78 f7 ff ff 	mov    %rax,-0x888(%rbp)
    837e:	48 8d 05 0b f0 00 00 	lea    0xf00b(%rip),%rax        # 17390 <g_370>
    8385:	48 89 85 80 f7 ff ff 	mov    %rax,-0x880(%rbp)
    838c:	48 8d 05 fd ef 00 00 	lea    0xeffd(%rip),%rax        # 17390 <g_370>
    8393:	48 89 85 88 f7 ff ff 	mov    %rax,-0x878(%rbp)
    839a:	8b 1d b0 b2 00 00    	mov    0xb2b0(%rip),%ebx        # 13650 <l_1203.4240>
    83a0:	be 02 00 00 00       	mov    $0x2,%esi
    83a5:	bf e6 ff ff ff       	mov    $0xffffffe6,%edi
    83aa:	e8 3f df ff ff       	callq  62ee <safe_lshift_func_int8_t_s_u>
    83af:	0f be c0             	movsbl %al,%eax
    83b2:	39 c3                	cmp    %eax,%ebx
    83b4:	7c 2b                	jl     83e1 <func_35+0x2d6>
    83b6:	0f bf 85 54 f7 ff ff 	movswl -0x8ac(%rbp),%eax
    83bd:	89 85 64 f7 ff ff    	mov    %eax,-0x89c(%rbp)
    83c3:	8b 85 64 f7 ff ff    	mov    -0x89c(%rbp),%eax
    83c9:	89 85 00 f8 ff ff    	mov    %eax,-0x800(%rbp)
    83cf:	8b 85 00 f8 ff ff    	mov    -0x800(%rbp),%eax
    83d5:	83 f8 7a             	cmp    $0x7a,%eax
    83d8:	75 07                	jne    83e1 <func_35+0x2d6>
    83da:	b8 01 00 00 00       	mov    $0x1,%eax
    83df:	eb 05                	jmp    83e6 <func_35+0x2db>
    83e1:	b8 00 00 00 00       	mov    $0x0,%eax
    83e6:	0f b6 c0             	movzbl %al,%eax
    83e9:	89 c6                	mov    %eax,%esi
    83eb:	bf ff 00 00 00       	mov    $0xff,%edi
    83f0:	e8 9e e7 ff ff       	callq  6b93 <safe_mul_func_uint8_t_u_u>
    83f5:	0f b6 c0             	movzbl %al,%eax
    83f8:	89 c6                	mov    %eax,%esi
    83fa:	bf 01 00 00 00       	mov    $0x1,%edi
    83ff:	e8 01 e2 ff ff       	callq  6605 <safe_sub_func_int32_t_s_s>
    8404:	85 c0                	test   %eax,%eax
    8406:	74 07                	je     840f <func_35+0x304>
    8408:	ba 01 00 00 00       	mov    $0x1,%edx
    840d:	eb 05                	jmp    8414 <func_35+0x309>
    840f:	ba 00 00 00 00       	mov    $0x0,%edx
    8414:	8b 05 3a b2 00 00    	mov    0xb23a(%rip),%eax        # 13654 <l_1203.4240+0x4>
    841a:	09 c2                	or     %eax,%edx
    841c:	48 8b 85 68 f7 ff ff 	mov    -0x898(%rbp),%rax
    8423:	8b 00                	mov    (%rax),%eax
    8425:	31 c2                	xor    %eax,%edx
    8427:	48 8b 85 68 f7 ff ff 	mov    -0x898(%rbp),%rax
    842e:	89 10                	mov    %edx,(%rax)
    8430:	c6 05 95 ef 00 00 01 	movb   $0x1,0xef95(%rip)        # 173cc <g_543>
    8437:	90                   	nop
    8438:	0f b6 05 8d ef 00 00 	movzbl 0xef8d(%rip),%eax        # 173cc <g_543>
    843f:	3c 04                	cmp    $0x4,%al
    8441:	7f 2f                	jg     8472 <func_35+0x367>
    8443:	0f b6 05 82 ef 00 00 	movzbl 0xef82(%rip),%eax        # 173cc <g_543>
    844a:	0f be d0             	movsbl %al,%edx
    844d:	0f bf 85 54 f7 ff ff 	movswl -0x8ac(%rbp),%eax
    8454:	48 63 d2             	movslq %edx,%rdx
    8457:	48 8d 0c 95 00 00 00 	lea    0x0(,%rdx,4),%rcx
    845e:	00 
    845f:	48 8d 15 fa f0 00 00 	lea    0xf0fa(%rip),%rdx        # 17560 <g_736>
    8466:	89 04 11             	mov    %eax,(%rcx,%rdx,1)
    8469:	48 8b 85 88 f7 ff ff 	mov    -0x878(%rbp),%rax
    8470:	eb 07                	jmp    8479 <func_35+0x36e>
    8472:	48 8b 85 88 f7 ff ff 	mov    -0x878(%rbp),%rax
    8479:	48 8b 5d e8          	mov    -0x18(%rbp),%rbx
    847d:	64 48 33 1c 25 28 00 	xor    %fs:0x28,%rbx
    8484:	00 00 
    8486:	74 05                	je     848d <func_35+0x382>
    8488:	e8 e3 db ff ff       	callq  6070 <__stack_chk_fail@plt>
    848d:	48 81 c4 a8 08 00 00 	add    $0x8a8,%rsp
    8494:	5b                   	pop    %rbx
    8495:	5d                   	pop    %rbp
    8496:	c3                   	retq   

0000000000008497 <func_38>:
    8497:	f3 0f 1e fa          	endbr64 
    849b:	55                   	push   %rbp
    849c:	48 89 e5             	mov    %rsp,%rbp
    849f:	41 57                	push   %r15
    84a1:	41 56                	push   %r14
    84a3:	41 55                	push   %r13
    84a5:	41 54                	push   %r12
    84a7:	53                   	push   %rbx
    84a8:	48 81 ec 00 10 00 00 	sub    $0x1000,%rsp
    84af:	48 83 0c 24 00       	orq    $0x0,(%rsp)
    84b4:	48 81 ec 98 0a 00 00 	sub    $0xa98,%rsp
    84bb:	89 f8                	mov    %edi,%eax
    84bd:	48 89 b5 50 e5 ff ff 	mov    %rsi,-0x1ab0(%rbp)
    84c4:	89 95 58 e5 ff ff    	mov    %edx,-0x1aa8(%rbp)
    84ca:	88 85 5c e5 ff ff    	mov    %al,-0x1aa4(%rbp)
    84d0:	64 48 8b 04 25 28 00 	mov    %fs:0x28,%rax
    84d7:	00 00 
    84d9:	48 89 45 c8          	mov    %rax,-0x38(%rbp)
    84dd:	31 c0                	xor    %eax,%eax
    84df:	48 8d 85 a0 f2 ff ff 	lea    -0xd60(%rbp),%rax
    84e6:	48 8d 15 93 9b 00 00 	lea    0x9b93(%rip),%rdx        # 12080 <g_332+0x20>
    84ed:	b9 b4 00 00 00       	mov    $0xb4,%ecx
    84f2:	48 89 c7             	mov    %rax,%rdi
    84f5:	48 89 d6             	mov    %rdx,%rsi
    84f8:	f3 48 a5             	rep movsq %ds:(%rsi),%es:(%rdi)
    84fb:	c7 85 78 e5 ff ff cf 	movl   $0x717c58cf,-0x1a88(%rbp)
    8502:	58 7c 71 
    8505:	c7 85 7c e5 ff ff cc 	movl   $0xab3608cc,-0x1a84(%rbp)
    850c:	08 36 ab 
    850f:	c7 85 80 e5 ff ff 4f 	movl   $0xebce334f,-0x1a80(%rbp)
    8516:	33 ce eb 
    8519:	48 8d 05 e8 eb 00 00 	lea    0xebe8(%rip),%rax        # 17108 <g_31+0x8>
    8520:	48 89 85 d0 e5 ff ff 	mov    %rax,-0x1a30(%rbp)
    8527:	48 c7 85 40 f8 ff ff 	movq   $0x0,-0x7c0(%rbp)
    852e:	00 00 00 00 
    8532:	48 c7 85 48 f8 ff ff 	movq   $0x0,-0x7b8(%rbp)
    8539:	00 00 00 00 
    853d:	48 8d 85 d0 e5 ff ff 	lea    -0x1a30(%rbp),%rax
    8544:	48 89 85 50 f8 ff ff 	mov    %rax,-0x7b0(%rbp)
    854b:	48 8d 85 d0 e5 ff ff 	lea    -0x1a30(%rbp),%rax
    8552:	48 89 85 58 f8 ff ff 	mov    %rax,-0x7a8(%rbp)
    8559:	48 c7 85 60 f8 ff ff 	movq   $0x0,-0x7a0(%rbp)
    8560:	00 00 00 00 
    8564:	48 8d 85 d0 e5 ff ff 	lea    -0x1a30(%rbp),%rax
    856b:	48 89 85 68 f8 ff ff 	mov    %rax,-0x798(%rbp)
    8572:	48 c7 85 70 f8 ff ff 	movq   $0x0,-0x790(%rbp)
    8579:	00 00 00 00 
    857d:	48 8d 85 d0 e5 ff ff 	lea    -0x1a30(%rbp),%rax
    8584:	48 89 85 78 f8 ff ff 	mov    %rax,-0x788(%rbp)
    858b:	48 c7 85 80 f8 ff ff 	movq   $0x0,-0x780(%rbp)
    8592:	00 00 00 00 
    8596:	48 c7 85 88 f8 ff ff 	movq   $0x0,-0x778(%rbp)
    859d:	00 00 00 00 
    85a1:	48 8d 85 d0 e5 ff ff 	lea    -0x1a30(%rbp),%rax
    85a8:	48 89 85 90 f8 ff ff 	mov    %rax,-0x770(%rbp)
    85af:	48 8d 85 d0 e5 ff ff 	lea    -0x1a30(%rbp),%rax
    85b6:	48 89 85 98 f8 ff ff 	mov    %rax,-0x768(%rbp)
    85bd:	48 8d 85 d0 e5 ff ff 	lea    -0x1a30(%rbp),%rax
    85c4:	48 89 85 a0 f8 ff ff 	mov    %rax,-0x760(%rbp)
    85cb:	48 8d 85 d0 e5 ff ff 	lea    -0x1a30(%rbp),%rax
    85d2:	48 89 85 a8 f8 ff ff 	mov    %rax,-0x758(%rbp)
    85d9:	48 c7 85 b0 f8 ff ff 	movq   $0x0,-0x750(%rbp)
    85e0:	00 00 00 00 
    85e4:	48 c7 85 b8 f8 ff ff 	movq   $0x0,-0x748(%rbp)
    85eb:	00 00 00 00 
    85ef:	48 c7 85 c0 f8 ff ff 	movq   $0x0,-0x740(%rbp)
    85f6:	00 00 00 00 
    85fa:	48 8d 85 d0 e5 ff ff 	lea    -0x1a30(%rbp),%rax
    8601:	48 89 85 c8 f8 ff ff 	mov    %rax,-0x738(%rbp)
    8608:	48 c7 85 d0 f8 ff ff 	movq   $0x0,-0x730(%rbp)
    860f:	00 00 00 00 
    8613:	48 c7 85 d8 f8 ff ff 	movq   $0x0,-0x728(%rbp)
    861a:	00 00 00 00 
    861e:	48 8d 85 d0 e5 ff ff 	lea    -0x1a30(%rbp),%rax
    8625:	48 89 85 e0 f8 ff ff 	mov    %rax,-0x720(%rbp)
    862c:	48 c7 85 e8 f8 ff ff 	movq   $0x0,-0x718(%rbp)
    8633:	00 00 00 00 
    8637:	48 8d 85 d0 e5 ff ff 	lea    -0x1a30(%rbp),%rax
    863e:	48 89 85 f0 f8 ff ff 	mov    %rax,-0x710(%rbp)
    8645:	48 8d 85 d0 e5 ff ff 	lea    -0x1a30(%rbp),%rax
    864c:	48 89 85 f8 f8 ff ff 	mov    %rax,-0x708(%rbp)
    8653:	48 c7 85 00 f9 ff ff 	movq   $0x0,-0x700(%rbp)
    865a:	00 00 00 00 
    865e:	48 8d 85 d0 e5 ff ff 	lea    -0x1a30(%rbp),%rax
    8665:	48 89 85 08 f9 ff ff 	mov    %rax,-0x6f8(%rbp)
    866c:	48 8d 85 d0 e5 ff ff 	lea    -0x1a30(%rbp),%rax
    8673:	48 89 85 10 f9 ff ff 	mov    %rax,-0x6f0(%rbp)
    867a:	48 8d 85 d0 e5 ff ff 	lea    -0x1a30(%rbp),%rax
    8681:	48 89 85 18 f9 ff ff 	mov    %rax,-0x6e8(%rbp)
    8688:	48 c7 85 20 f9 ff ff 	movq   $0x0,-0x6e0(%rbp)
    868f:	00 00 00 00 
    8693:	48 c7 85 28 f9 ff ff 	movq   $0x0,-0x6d8(%rbp)
    869a:	00 00 00 00 
    869e:	48 c7 85 30 f9 ff ff 	movq   $0x0,-0x6d0(%rbp)
    86a5:	00 00 00 00 
    86a9:	48 8d 85 d0 e5 ff ff 	lea    -0x1a30(%rbp),%rax
    86b0:	48 89 85 38 f9 ff ff 	mov    %rax,-0x6c8(%rbp)
    86b7:	48 c7 85 40 f9 ff ff 	movq   $0x0,-0x6c0(%rbp)
    86be:	00 00 00 00 
    86c2:	48 8d 85 d0 e5 ff ff 	lea    -0x1a30(%rbp),%rax
    86c9:	48 89 85 48 f9 ff ff 	mov    %rax,-0x6b8(%rbp)
    86d0:	48 c7 85 50 f9 ff ff 	movq   $0x0,-0x6b0(%rbp)
    86d7:	00 00 00 00 
    86db:	48 c7 85 58 f9 ff ff 	movq   $0x0,-0x6a8(%rbp)
    86e2:	00 00 00 00 
    86e6:	48 8d 85 d0 e5 ff ff 	lea    -0x1a30(%rbp),%rax
    86ed:	48 89 85 60 f9 ff ff 	mov    %rax,-0x6a0(%rbp)
    86f4:	48 8d 85 d0 e5 ff ff 	lea    -0x1a30(%rbp),%rax
    86fb:	48 89 85 68 f9 ff ff 	mov    %rax,-0x698(%rbp)
    8702:	48 c7 85 70 f9 ff ff 	movq   $0x0,-0x690(%rbp)
    8709:	00 00 00 00 
    870d:	48 8d 85 d0 e5 ff ff 	lea    -0x1a30(%rbp),%rax
    8714:	48 89 85 78 f9 ff ff 	mov    %rax,-0x688(%rbp)
    871b:	48 c7 85 80 f9 ff ff 	movq   $0x0,-0x680(%rbp)
    8722:	00 00 00 00 
    8726:	48 c7 85 88 f9 ff ff 	movq   $0x0,-0x678(%rbp)
    872d:	00 00 00 00 
    8731:	48 c7 85 90 f9 ff ff 	movq   $0x0,-0x670(%rbp)
    8738:	00 00 00 00 
    873c:	48 8d 85 d0 e5 ff ff 	lea    -0x1a30(%rbp),%rax
    8743:	48 89 85 98 f9 ff ff 	mov    %rax,-0x668(%rbp)
    874a:	48 8d 85 d0 e5 ff ff 	lea    -0x1a30(%rbp),%rax
    8751:	48 89 85 a0 f9 ff ff 	mov    %rax,-0x660(%rbp)
    8758:	48 8d 85 d0 e5 ff ff 	lea    -0x1a30(%rbp),%rax
    875f:	48 89 85 a8 f9 ff ff 	mov    %rax,-0x658(%rbp)
    8766:	48 8d 85 d0 e5 ff ff 	lea    -0x1a30(%rbp),%rax
    876d:	48 89 85 b0 f9 ff ff 	mov    %rax,-0x650(%rbp)
    8774:	48 8d 85 d0 e5 ff ff 	lea    -0x1a30(%rbp),%rax
    877b:	48 89 85 b8 f9 ff ff 	mov    %rax,-0x648(%rbp)
    8782:	48 c7 85 c0 f9 ff ff 	movq   $0x0,-0x640(%rbp)
    8789:	00 00 00 00 
    878d:	48 8d 85 d0 e5 ff ff 	lea    -0x1a30(%rbp),%rax
    8794:	48 89 85 c8 f9 ff ff 	mov    %rax,-0x638(%rbp)
    879b:	48 c7 85 d0 f9 ff ff 	movq   $0x0,-0x630(%rbp)
    87a2:	00 00 00 00 
    87a6:	48 c7 85 d8 f9 ff ff 	movq   $0x0,-0x628(%rbp)
    87ad:	00 00 00 00 
    87b1:	48 8d 85 d0 e5 ff ff 	lea    -0x1a30(%rbp),%rax
    87b8:	48 89 85 e0 f9 ff ff 	mov    %rax,-0x620(%rbp)
    87bf:	48 c7 85 e8 f9 ff ff 	movq   $0x0,-0x618(%rbp)
    87c6:	00 00 00 00 
    87ca:	48 8d 85 d0 e5 ff ff 	lea    -0x1a30(%rbp),%rax
    87d1:	48 89 85 f0 f9 ff ff 	mov    %rax,-0x610(%rbp)
    87d8:	48 8d 85 d0 e5 ff ff 	lea    -0x1a30(%rbp),%rax
    87df:	48 89 85 f8 f9 ff ff 	mov    %rax,-0x608(%rbp)
    87e6:	48 c7 85 00 fa ff ff 	movq   $0x0,-0x600(%rbp)
    87ed:	00 00 00 00 
    87f1:	48 8d 85 d0 e5 ff ff 	lea    -0x1a30(%rbp),%rax
    87f8:	48 89 85 08 fa ff ff 	mov    %rax,-0x5f8(%rbp)
    87ff:	48 8d 85 d0 e5 ff ff 	lea    -0x1a30(%rbp),%rax
    8806:	48 89 85 10 fa ff ff 	mov    %rax,-0x5f0(%rbp)
    880d:	48 8d 85 d0 e5 ff ff 	lea    -0x1a30(%rbp),%rax
    8814:	48 89 85 18 fa ff ff 	mov    %rax,-0x5e8(%rbp)
    881b:	48 c7 85 20 fa ff ff 	movq   $0x0,-0x5e0(%rbp)
    8822:	00 00 00 00 
    8826:	48 8d 85 d0 e5 ff ff 	lea    -0x1a30(%rbp),%rax
    882d:	48 89 85 28 fa ff ff 	mov    %rax,-0x5d8(%rbp)
    8834:	48 8d 85 d0 e5 ff ff 	lea    -0x1a30(%rbp),%rax
    883b:	48 89 85 30 fa ff ff 	mov    %rax,-0x5d0(%rbp)
    8842:	48 8d 85 d0 e5 ff ff 	lea    -0x1a30(%rbp),%rax
    8849:	48 89 85 38 fa ff ff 	mov    %rax,-0x5c8(%rbp)
    8850:	48 8d 85 d0 e5 ff ff 	lea    -0x1a30(%rbp),%rax
    8857:	48 89 85 40 fa ff ff 	mov    %rax,-0x5c0(%rbp)
    885e:	48 8d 85 d0 e5 ff ff 	lea    -0x1a30(%rbp),%rax
    8865:	48 89 85 48 fa ff ff 	mov    %rax,-0x5b8(%rbp)
    886c:	48 8d 85 d0 e5 ff ff 	lea    -0x1a30(%rbp),%rax
    8873:	48 89 85 50 fa ff ff 	mov    %rax,-0x5b0(%rbp)
    887a:	48 8d 85 d0 e5 ff ff 	lea    -0x1a30(%rbp),%rax
    8881:	48 89 85 58 fa ff ff 	mov    %rax,-0x5a8(%rbp)
    8888:	48 c7 85 60 fa ff ff 	movq   $0x0,-0x5a0(%rbp)
    888f:	00 00 00 00 
    8893:	48 8d 85 d0 e5 ff ff 	lea    -0x1a30(%rbp),%rax
    889a:	48 89 85 68 fa ff ff 	mov    %rax,-0x598(%rbp)
    88a1:	48 8d 85 d0 e5 ff ff 	lea    -0x1a30(%rbp),%rax
    88a8:	48 89 85 70 fa ff ff 	mov    %rax,-0x590(%rbp)
    88af:	48 8d 85 d0 e5 ff ff 	lea    -0x1a30(%rbp),%rax
    88b6:	48 89 85 78 fa ff ff 	mov    %rax,-0x588(%rbp)
    88bd:	48 8d 85 d0 e5 ff ff 	lea    -0x1a30(%rbp),%rax
    88c4:	48 89 85 80 fa ff ff 	mov    %rax,-0x580(%rbp)
    88cb:	48 c7 85 88 fa ff ff 	movq   $0x0,-0x578(%rbp)
    88d2:	00 00 00 00 
    88d6:	48 8d 85 d0 e5 ff ff 	lea    -0x1a30(%rbp),%rax
    88dd:	48 89 85 90 fa ff ff 	mov    %rax,-0x570(%rbp)
    88e4:	48 c7 85 98 fa ff ff 	movq   $0x0,-0x568(%rbp)
    88eb:	00 00 00 00 
    88ef:	48 8d 85 d0 e5 ff ff 	lea    -0x1a30(%rbp),%rax
    88f6:	48 89 85 a0 fa ff ff 	mov    %rax,-0x560(%rbp)
    88fd:	48 c7 85 a8 fa ff ff 	movq   $0x0,-0x558(%rbp)
    8904:	00 00 00 00 
    8908:	48 8d 85 d0 e5 ff ff 	lea    -0x1a30(%rbp),%rax
    890f:	48 89 85 b0 fa ff ff 	mov    %rax,-0x550(%rbp)
    8916:	48 8d 85 d0 e5 ff ff 	lea    -0x1a30(%rbp),%rax
    891d:	48 89 85 b8 fa ff ff 	mov    %rax,-0x548(%rbp)
    8924:	48 c7 85 c0 fa ff ff 	movq   $0x0,-0x540(%rbp)
    892b:	00 00 00 00 
    892f:	48 8d 85 d0 e5 ff ff 	lea    -0x1a30(%rbp),%rax
    8936:	48 89 85 c8 fa ff ff 	mov    %rax,-0x538(%rbp)
    893d:	48 8d 85 d0 e5 ff ff 	lea    -0x1a30(%rbp),%rax
    8944:	48 89 85 d0 fa ff ff 	mov    %rax,-0x530(%rbp)
    894b:	48 8d 85 d0 e5 ff ff 	lea    -0x1a30(%rbp),%rax
    8952:	48 89 85 d8 fa ff ff 	mov    %rax,-0x528(%rbp)
    8959:	48 8d 85 d0 e5 ff ff 	lea    -0x1a30(%rbp),%rax
    8960:	48 89 85 e0 fa ff ff 	mov    %rax,-0x520(%rbp)
    8967:	48 8d 85 d0 e5 ff ff 	lea    -0x1a30(%rbp),%rax
    896e:	48 89 85 e8 fa ff ff 	mov    %rax,-0x518(%rbp)
    8975:	48 8d 85 d0 e5 ff ff 	lea    -0x1a30(%rbp),%rax
    897c:	48 89 85 f0 fa ff ff 	mov    %rax,-0x510(%rbp)
    8983:	48 8d 85 d0 e5 ff ff 	lea    -0x1a30(%rbp),%rax
    898a:	48 89 85 f8 fa ff ff 	mov    %rax,-0x508(%rbp)
    8991:	48 c7 85 00 fb ff ff 	movq   $0x0,-0x500(%rbp)
    8998:	00 00 00 00 
    899c:	48 8d 85 d0 e5 ff ff 	lea    -0x1a30(%rbp),%rax
    89a3:	48 89 85 08 fb ff ff 	mov    %rax,-0x4f8(%rbp)
    89aa:	48 8d 85 d0 e5 ff ff 	lea    -0x1a30(%rbp),%rax
    89b1:	48 89 85 10 fb ff ff 	mov    %rax,-0x4f0(%rbp)
    89b8:	48 c7 85 18 fb ff ff 	movq   $0x0,-0x4e8(%rbp)
    89bf:	00 00 00 00 
    89c3:	48 8d 85 d0 e5 ff ff 	lea    -0x1a30(%rbp),%rax
    89ca:	48 89 85 20 fb ff ff 	mov    %rax,-0x4e0(%rbp)
    89d1:	48 8d 85 d0 e5 ff ff 	lea    -0x1a30(%rbp),%rax
    89d8:	48 89 85 28 fb ff ff 	mov    %rax,-0x4d8(%rbp)
    89df:	48 8d 85 d0 e5 ff ff 	lea    -0x1a30(%rbp),%rax
    89e6:	48 89 85 30 fb ff ff 	mov    %rax,-0x4d0(%rbp)
    89ed:	48 c7 85 38 fb ff ff 	movq   $0x0,-0x4c8(%rbp)
    89f4:	00 00 00 00 
    89f8:	48 8d 85 d0 e5 ff ff 	lea    -0x1a30(%rbp),%rax
    89ff:	48 89 85 40 fb ff ff 	mov    %rax,-0x4c0(%rbp)
    8a06:	48 8d 85 d0 e5 ff ff 	lea    -0x1a30(%rbp),%rax
    8a0d:	48 89 85 48 fb ff ff 	mov    %rax,-0x4b8(%rbp)
    8a14:	48 8d 85 d0 e5 ff ff 	lea    -0x1a30(%rbp),%rax
    8a1b:	48 89 85 50 fb ff ff 	mov    %rax,-0x4b0(%rbp)
    8a22:	48 c7 85 58 fb ff ff 	movq   $0x0,-0x4a8(%rbp)
    8a29:	00 00 00 00 
    8a2d:	48 c7 85 60 fb ff ff 	movq   $0x0,-0x4a0(%rbp)
    8a34:	00 00 00 00 
    8a38:	48 c7 85 68 fb ff ff 	movq   $0x0,-0x498(%rbp)
    8a3f:	00 00 00 00 
    8a43:	48 8d 85 d0 e5 ff ff 	lea    -0x1a30(%rbp),%rax
    8a4a:	48 89 85 70 fb ff ff 	mov    %rax,-0x490(%rbp)
    8a51:	48 8d 85 d0 e5 ff ff 	lea    -0x1a30(%rbp),%rax
    8a58:	48 89 85 78 fb ff ff 	mov    %rax,-0x488(%rbp)
    8a5f:	48 8d 85 d0 e5 ff ff 	lea    -0x1a30(%rbp),%rax
    8a66:	48 89 85 80 fb ff ff 	mov    %rax,-0x480(%rbp)
    8a6d:	48 8d 85 d0 e5 ff ff 	lea    -0x1a30(%rbp),%rax
    8a74:	48 89 85 88 fb ff ff 	mov    %rax,-0x478(%rbp)
    8a7b:	48 8d 85 d0 e5 ff ff 	lea    -0x1a30(%rbp),%rax
    8a82:	48 89 85 90 fb ff ff 	mov    %rax,-0x470(%rbp)
    8a89:	48 c7 85 98 fb ff ff 	movq   $0x0,-0x468(%rbp)
    8a90:	00 00 00 00 
    8a94:	48 8d 85 d0 e5 ff ff 	lea    -0x1a30(%rbp),%rax
    8a9b:	48 89 85 a0 fb ff ff 	mov    %rax,-0x460(%rbp)
    8aa2:	48 8d 85 d0 e5 ff ff 	lea    -0x1a30(%rbp),%rax
    8aa9:	48 89 85 a8 fb ff ff 	mov    %rax,-0x458(%rbp)
    8ab0:	48 8d 85 d0 e5 ff ff 	lea    -0x1a30(%rbp),%rax
    8ab7:	48 89 85 b0 fb ff ff 	mov    %rax,-0x450(%rbp)
    8abe:	48 c7 85 b8 fb ff ff 	movq   $0x0,-0x448(%rbp)
    8ac5:	00 00 00 00 
    8ac9:	48 c7 85 c0 fb ff ff 	movq   $0x0,-0x440(%rbp)
    8ad0:	00 00 00 00 
    8ad4:	48 8d 85 d0 e5 ff ff 	lea    -0x1a30(%rbp),%rax
    8adb:	48 89 85 c8 fb ff ff 	mov    %rax,-0x438(%rbp)
    8ae2:	48 c7 85 d0 fb ff ff 	movq   $0x0,-0x430(%rbp)
    8ae9:	00 00 00 00 
    8aed:	48 8d 85 d0 e5 ff ff 	lea    -0x1a30(%rbp),%rax
    8af4:	48 89 85 d8 fb ff ff 	mov    %rax,-0x428(%rbp)
    8afb:	48 c7 85 e0 fb ff ff 	movq   $0x0,-0x420(%rbp)
    8b02:	00 00 00 00 
    8b06:	48 8d 85 d0 e5 ff ff 	lea    -0x1a30(%rbp),%rax
    8b0d:	48 89 85 e8 fb ff ff 	mov    %rax,-0x418(%rbp)
    8b14:	48 8d 85 d0 e5 ff ff 	lea    -0x1a30(%rbp),%rax
    8b1b:	48 89 85 f0 fb ff ff 	mov    %rax,-0x410(%rbp)
    8b22:	48 8d 85 d0 e5 ff ff 	lea    -0x1a30(%rbp),%rax
    8b29:	48 89 85 f8 fb ff ff 	mov    %rax,-0x408(%rbp)
    8b30:	48 8d 85 d0 e5 ff ff 	lea    -0x1a30(%rbp),%rax
    8b37:	48 89 85 00 fc ff ff 	mov    %rax,-0x400(%rbp)
    8b3e:	48 8d 85 d0 e5 ff ff 	lea    -0x1a30(%rbp),%rax
    8b45:	48 89 85 08 fc ff ff 	mov    %rax,-0x3f8(%rbp)
    8b4c:	48 c7 85 10 fc ff ff 	movq   $0x0,-0x3f0(%rbp)
    8b53:	00 00 00 00 
    8b57:	48 c7 85 18 fc ff ff 	movq   $0x0,-0x3e8(%rbp)
    8b5e:	00 00 00 00 
    8b62:	48 c7 85 20 fc ff ff 	movq   $0x0,-0x3e0(%rbp)
    8b69:	00 00 00 00 
    8b6d:	48 c7 85 28 fc ff ff 	movq   $0x0,-0x3d8(%rbp)
    8b74:	00 00 00 00 
    8b78:	48 c7 85 30 fc ff ff 	movq   $0x0,-0x3d0(%rbp)
    8b7f:	00 00 00 00 
    8b83:	48 c7 85 38 fc ff ff 	movq   $0x0,-0x3c8(%rbp)
    8b8a:	00 00 00 00 
    8b8e:	48 c7 85 40 fc ff ff 	movq   $0x0,-0x3c0(%rbp)
    8b95:	00 00 00 00 
    8b99:	48 c7 85 48 fc ff ff 	movq   $0x0,-0x3b8(%rbp)
    8ba0:	00 00 00 00 
    8ba4:	48 c7 85 50 fc ff ff 	movq   $0x0,-0x3b0(%rbp)
    8bab:	00 00 00 00 
    8baf:	48 8d 85 d0 e5 ff ff 	lea    -0x1a30(%rbp),%rax
    8bb6:	48 89 85 58 fc ff ff 	mov    %rax,-0x3a8(%rbp)
    8bbd:	48 8d 85 d0 e5 ff ff 	lea    -0x1a30(%rbp),%rax
    8bc4:	48 89 85 60 fc ff ff 	mov    %rax,-0x3a0(%rbp)
    8bcb:	48 8d 85 d0 e5 ff ff 	lea    -0x1a30(%rbp),%rax
    8bd2:	48 89 85 68 fc ff ff 	mov    %rax,-0x398(%rbp)
    8bd9:	48 c7 85 70 fc ff ff 	movq   $0x0,-0x390(%rbp)
    8be0:	00 00 00 00 
    8be4:	48 8d 85 d0 e5 ff ff 	lea    -0x1a30(%rbp),%rax
    8beb:	48 89 85 78 fc ff ff 	mov    %rax,-0x388(%rbp)
    8bf2:	48 8d 85 d0 e5 ff ff 	lea    -0x1a30(%rbp),%rax
    8bf9:	48 89 85 80 fc ff ff 	mov    %rax,-0x380(%rbp)
    8c00:	48 8d 85 d0 e5 ff ff 	lea    -0x1a30(%rbp),%rax
    8c07:	48 89 85 88 fc ff ff 	mov    %rax,-0x378(%rbp)
    8c0e:	48 c7 85 90 fc ff ff 	movq   $0x0,-0x370(%rbp)
    8c15:	00 00 00 00 
    8c19:	48 8d 85 d0 e5 ff ff 	lea    -0x1a30(%rbp),%rax
    8c20:	48 89 85 98 fc ff ff 	mov    %rax,-0x368(%rbp)
    8c27:	48 c7 85 a0 fc ff ff 	movq   $0x0,-0x360(%rbp)
    8c2e:	00 00 00 00 
    8c32:	48 8d 85 d0 e5 ff ff 	lea    -0x1a30(%rbp),%rax
    8c39:	48 89 85 a8 fc ff ff 	mov    %rax,-0x358(%rbp)
    8c40:	48 8d 85 d0 e5 ff ff 	lea    -0x1a30(%rbp),%rax
    8c47:	48 89 85 b0 fc ff ff 	mov    %rax,-0x350(%rbp)
    8c4e:	48 8d 85 d0 e5 ff ff 	lea    -0x1a30(%rbp),%rax
    8c55:	48 89 85 b8 fc ff ff 	mov    %rax,-0x348(%rbp)
    8c5c:	48 8d 85 d0 e5 ff ff 	lea    -0x1a30(%rbp),%rax
    8c63:	48 89 85 c0 fc ff ff 	mov    %rax,-0x340(%rbp)
    8c6a:	48 8d 85 d0 e5 ff ff 	lea    -0x1a30(%rbp),%rax
    8c71:	48 89 85 c8 fc ff ff 	mov    %rax,-0x338(%rbp)
    8c78:	48 c7 85 d0 fc ff ff 	movq   $0x0,-0x330(%rbp)
    8c7f:	00 00 00 00 
    8c83:	48 8d 85 d0 e5 ff ff 	lea    -0x1a30(%rbp),%rax
    8c8a:	48 89 85 d8 fc ff ff 	mov    %rax,-0x328(%rbp)
    8c91:	48 8d 85 d0 e5 ff ff 	lea    -0x1a30(%rbp),%rax
    8c98:	48 89 85 e0 fc ff ff 	mov    %rax,-0x320(%rbp)
    8c9f:	48 c7 85 e8 fc ff ff 	movq   $0x0,-0x318(%rbp)
    8ca6:	00 00 00 00 
    8caa:	48 c7 85 f0 fc ff ff 	movq   $0x0,-0x310(%rbp)
    8cb1:	00 00 00 00 
    8cb5:	48 c7 85 f8 fc ff ff 	movq   $0x0,-0x308(%rbp)
    8cbc:	00 00 00 00 
    8cc0:	48 c7 85 00 fd ff ff 	movq   $0x0,-0x300(%rbp)
    8cc7:	00 00 00 00 
    8ccb:	48 8d 85 d0 e5 ff ff 	lea    -0x1a30(%rbp),%rax
    8cd2:	48 89 85 08 fd ff ff 	mov    %rax,-0x2f8(%rbp)
    8cd9:	48 8d 85 d0 e5 ff ff 	lea    -0x1a30(%rbp),%rax
    8ce0:	48 89 85 10 fd ff ff 	mov    %rax,-0x2f0(%rbp)
    8ce7:	48 c7 85 18 fd ff ff 	movq   $0x0,-0x2e8(%rbp)
    8cee:	00 00 00 00 
    8cf2:	48 8d 85 d0 e5 ff ff 	lea    -0x1a30(%rbp),%rax
    8cf9:	48 89 85 20 fd ff ff 	mov    %rax,-0x2e0(%rbp)
    8d00:	48 8d 85 d0 e5 ff ff 	lea    -0x1a30(%rbp),%rax
    8d07:	48 89 85 28 fd ff ff 	mov    %rax,-0x2d8(%rbp)
    8d0e:	48 c7 85 30 fd ff ff 	movq   $0x0,-0x2d0(%rbp)
    8d15:	00 00 00 00 
    8d19:	48 8d 85 d0 e5 ff ff 	lea    -0x1a30(%rbp),%rax
    8d20:	48 89 85 38 fd ff ff 	mov    %rax,-0x2c8(%rbp)
    8d27:	48 c7 85 40 fd ff ff 	movq   $0x0,-0x2c0(%rbp)
    8d2e:	00 00 00 00 
    8d32:	48 c7 85 48 fd ff ff 	movq   $0x0,-0x2b8(%rbp)
    8d39:	00 00 00 00 
    8d3d:	48 8d 85 d0 e5 ff ff 	lea    -0x1a30(%rbp),%rax
    8d44:	48 89 85 50 fd ff ff 	mov    %rax,-0x2b0(%rbp)
    8d4b:	48 8d 85 d0 e5 ff ff 	lea    -0x1a30(%rbp),%rax
    8d52:	48 89 85 58 fd ff ff 	mov    %rax,-0x2a8(%rbp)
    8d59:	48 8d 85 d0 e5 ff ff 	lea    -0x1a30(%rbp),%rax
    8d60:	48 89 85 60 fd ff ff 	mov    %rax,-0x2a0(%rbp)
    8d67:	48 8d 85 d0 e5 ff ff 	lea    -0x1a30(%rbp),%rax
    8d6e:	48 89 85 68 fd ff ff 	mov    %rax,-0x298(%rbp)
    8d75:	48 c7 85 70 fd ff ff 	movq   $0x0,-0x290(%rbp)
    8d7c:	00 00 00 00 
    8d80:	48 c7 85 78 fd ff ff 	movq   $0x0,-0x288(%rbp)
    8d87:	00 00 00 00 
    8d8b:	48 8d 85 d0 e5 ff ff 	lea    -0x1a30(%rbp),%rax
    8d92:	48 89 85 80 fd ff ff 	mov    %rax,-0x280(%rbp)
    8d99:	48 8d 85 d0 e5 ff ff 	lea    -0x1a30(%rbp),%rax
    8da0:	48 89 85 88 fd ff ff 	mov    %rax,-0x278(%rbp)
    8da7:	48 c7 85 90 fd ff ff 	movq   $0x0,-0x270(%rbp)
    8dae:	00 00 00 00 
    8db2:	48 c7 85 98 fd ff ff 	movq   $0x0,-0x268(%rbp)
    8db9:	00 00 00 00 
    8dbd:	48 c7 85 a0 fd ff ff 	movq   $0x0,-0x260(%rbp)
    8dc4:	00 00 00 00 
    8dc8:	48 8d 85 d0 e5 ff ff 	lea    -0x1a30(%rbp),%rax
    8dcf:	48 89 85 a8 fd ff ff 	mov    %rax,-0x258(%rbp)
    8dd6:	48 8d 85 d0 e5 ff ff 	lea    -0x1a30(%rbp),%rax
    8ddd:	48 89 85 b0 fd ff ff 	mov    %rax,-0x250(%rbp)
    8de4:	48 8d 85 d0 e5 ff ff 	lea    -0x1a30(%rbp),%rax
    8deb:	48 89 85 b8 fd ff ff 	mov    %rax,-0x248(%rbp)
    8df2:	48 8d 85 d0 e5 ff ff 	lea    -0x1a30(%rbp),%rax
    8df9:	48 89 85 c0 fd ff ff 	mov    %rax,-0x240(%rbp)
    8e00:	48 c7 85 c8 fd ff ff 	movq   $0x0,-0x238(%rbp)
    8e07:	00 00 00 00 
    8e0b:	48 c7 85 d0 fd ff ff 	movq   $0x0,-0x230(%rbp)
    8e12:	00 00 00 00 
    8e16:	48 c7 85 d8 fd ff ff 	movq   $0x0,-0x228(%rbp)
    8e1d:	00 00 00 00 
    8e21:	48 c7 85 e0 fd ff ff 	movq   $0x0,-0x220(%rbp)
    8e28:	00 00 00 00 
    8e2c:	48 8d 85 d0 e5 ff ff 	lea    -0x1a30(%rbp),%rax
    8e33:	48 89 85 e8 fd ff ff 	mov    %rax,-0x218(%rbp)
    8e3a:	48 c7 85 f0 fd ff ff 	movq   $0x0,-0x210(%rbp)
    8e41:	00 00 00 00 
    8e45:	48 c7 85 f8 fd ff ff 	movq   $0x0,-0x208(%rbp)
    8e4c:	00 00 00 00 
    8e50:	48 c7 85 00 fe ff ff 	movq   $0x0,-0x200(%rbp)
    8e57:	00 00 00 00 
    8e5b:	48 8d 85 d0 e5 ff ff 	lea    -0x1a30(%rbp),%rax
    8e62:	48 89 85 08 fe ff ff 	mov    %rax,-0x1f8(%rbp)
    8e69:	48 c7 85 10 fe ff ff 	movq   $0x0,-0x1f0(%rbp)
    8e70:	00 00 00 00 
    8e74:	48 c7 85 18 fe ff ff 	movq   $0x0,-0x1e8(%rbp)
    8e7b:	00 00 00 00 
    8e7f:	48 8d 85 d0 e5 ff ff 	lea    -0x1a30(%rbp),%rax
    8e86:	48 89 85 20 fe ff ff 	mov    %rax,-0x1e0(%rbp)
    8e8d:	48 8d 85 d0 e5 ff ff 	lea    -0x1a30(%rbp),%rax
    8e94:	48 89 85 28 fe ff ff 	mov    %rax,-0x1d8(%rbp)
    8e9b:	48 c7 85 30 fe ff ff 	movq   $0x0,-0x1d0(%rbp)
    8ea2:	00 00 00 00 
    8ea6:	48 8d 85 d0 e5 ff ff 	lea    -0x1a30(%rbp),%rax
    8ead:	48 89 85 38 fe ff ff 	mov    %rax,-0x1c8(%rbp)
    8eb4:	48 c7 85 40 fe ff ff 	movq   $0x0,-0x1c0(%rbp)
    8ebb:	00 00 00 00 
    8ebf:	48 c7 85 48 fe ff ff 	movq   $0x0,-0x1b8(%rbp)
    8ec6:	00 00 00 00 
    8eca:	48 c7 85 50 fe ff ff 	movq   $0x0,-0x1b0(%rbp)
    8ed1:	00 00 00 00 
    8ed5:	48 8d 85 d0 e5 ff ff 	lea    -0x1a30(%rbp),%rax
    8edc:	48 89 85 58 fe ff ff 	mov    %rax,-0x1a8(%rbp)
    8ee3:	48 8d 85 d0 e5 ff ff 	lea    -0x1a30(%rbp),%rax
    8eea:	48 89 85 60 fe ff ff 	mov    %rax,-0x1a0(%rbp)
    8ef1:	48 8d 85 d0 e5 ff ff 	lea    -0x1a30(%rbp),%rax
    8ef8:	48 89 85 68 fe ff ff 	mov    %rax,-0x198(%rbp)
    8eff:	48 8d 85 d0 e5 ff ff 	lea    -0x1a30(%rbp),%rax
    8f06:	48 89 85 70 fe ff ff 	mov    %rax,-0x190(%rbp)
    8f0d:	48 8d 85 d0 e5 ff ff 	lea    -0x1a30(%rbp),%rax
    8f14:	48 89 85 78 fe ff ff 	mov    %rax,-0x188(%rbp)
    8f1b:	48 c7 85 80 fe ff ff 	movq   $0x0,-0x180(%rbp)
    8f22:	00 00 00 00 
    8f26:	48 8d 85 d0 e5 ff ff 	lea    -0x1a30(%rbp),%rax
    8f2d:	48 89 85 88 fe ff ff 	mov    %rax,-0x178(%rbp)
    8f34:	48 c7 85 90 fe ff ff 	movq   $0x0,-0x170(%rbp)
    8f3b:	00 00 00 00 
    8f3f:	48 c7 85 98 fe ff ff 	movq   $0x0,-0x168(%rbp)
    8f46:	00 00 00 00 
    8f4a:	48 8d 85 d0 e5 ff ff 	lea    -0x1a30(%rbp),%rax
    8f51:	48 89 85 a0 fe ff ff 	mov    %rax,-0x160(%rbp)
    8f58:	48 c7 85 a8 fe ff ff 	movq   $0x0,-0x158(%rbp)
    8f5f:	00 00 00 00 
    8f63:	48 8d 85 d0 e5 ff ff 	lea    -0x1a30(%rbp),%rax
    8f6a:	48 89 85 b0 fe ff ff 	mov    %rax,-0x150(%rbp)
    8f71:	48 8d 85 d0 e5 ff ff 	lea    -0x1a30(%rbp),%rax
    8f78:	48 89 85 b8 fe ff ff 	mov    %rax,-0x148(%rbp)
    8f7f:	48 c7 85 c0 fe ff ff 	movq   $0x0,-0x140(%rbp)
    8f86:	00 00 00 00 
    8f8a:	48 8d 85 d0 e5 ff ff 	lea    -0x1a30(%rbp),%rax
    8f91:	48 89 85 c8 fe ff ff 	mov    %rax,-0x138(%rbp)
    8f98:	48 8d 85 d0 e5 ff ff 	lea    -0x1a30(%rbp),%rax
    8f9f:	48 89 85 d0 fe ff ff 	mov    %rax,-0x130(%rbp)
    8fa6:	48 8d 85 d0 e5 ff ff 	lea    -0x1a30(%rbp),%rax
    8fad:	48 89 85 d8 fe ff ff 	mov    %rax,-0x128(%rbp)
    8fb4:	48 c7 85 e0 fe ff ff 	movq   $0x0,-0x120(%rbp)
    8fbb:	00 00 00 00 
    8fbf:	48 8d 85 d0 e5 ff ff 	lea    -0x1a30(%rbp),%rax
    8fc6:	48 89 85 e8 fe ff ff 	mov    %rax,-0x118(%rbp)
    8fcd:	48 8d 85 d0 e5 ff ff 	lea    -0x1a30(%rbp),%rax
    8fd4:	48 89 85 f0 fe ff ff 	mov    %rax,-0x110(%rbp)
    8fdb:	48 8d 85 d0 e5 ff ff 	lea    -0x1a30(%rbp),%rax
    8fe2:	48 89 85 f8 fe ff ff 	mov    %rax,-0x108(%rbp)
    8fe9:	48 8d 85 d0 e5 ff ff 	lea    -0x1a30(%rbp),%rax
    8ff0:	48 89 85 00 ff ff ff 	mov    %rax,-0x100(%rbp)
    8ff7:	48 8d 85 d0 e5 ff ff 	lea    -0x1a30(%rbp),%rax
    8ffe:	48 89 85 08 ff ff ff 	mov    %rax,-0xf8(%rbp)
    9005:	48 8d 85 d0 e5 ff ff 	lea    -0x1a30(%rbp),%rax
    900c:	48 89 85 10 ff ff ff 	mov    %rax,-0xf0(%rbp)
    9013:	48 8d 85 d0 e5 ff ff 	lea    -0x1a30(%rbp),%rax
    901a:	48 89 85 18 ff ff ff 	mov    %rax,-0xe8(%rbp)
    9021:	48 c7 85 20 ff ff ff 	movq   $0x0,-0xe0(%rbp)
    9028:	00 00 00 00 
    902c:	48 8d 85 d0 e5 ff ff 	lea    -0x1a30(%rbp),%rax
    9033:	48 89 85 28 ff ff ff 	mov    %rax,-0xd8(%rbp)
    903a:	48 8d 85 d0 e5 ff ff 	lea    -0x1a30(%rbp),%rax
    9041:	48 89 85 30 ff ff ff 	mov    %rax,-0xd0(%rbp)
    9048:	48 8d 85 d0 e5 ff ff 	lea    -0x1a30(%rbp),%rax
    904f:	48 89 85 38 ff ff ff 	mov    %rax,-0xc8(%rbp)
    9056:	48 8d 85 d0 e5 ff ff 	lea    -0x1a30(%rbp),%rax
    905d:	48 89 85 40 ff ff ff 	mov    %rax,-0xc0(%rbp)
    9064:	48 8d 85 d0 e5 ff ff 	lea    -0x1a30(%rbp),%rax
    906b:	48 89 85 48 ff ff ff 	mov    %rax,-0xb8(%rbp)
    9072:	48 c7 85 50 ff ff ff 	movq   $0x0,-0xb0(%rbp)
    9079:	00 00 00 00 
    907d:	48 c7 85 58 ff ff ff 	movq   $0x0,-0xa8(%rbp)
    9084:	00 00 00 00 
    9088:	48 8d 85 d0 e5 ff ff 	lea    -0x1a30(%rbp),%rax
    908f:	48 89 85 60 ff ff ff 	mov    %rax,-0xa0(%rbp)
    9096:	48 c7 85 68 ff ff ff 	movq   $0x0,-0x98(%rbp)
    909d:	00 00 00 00 
    90a1:	48 c7 85 70 ff ff ff 	movq   $0x0,-0x90(%rbp)
    90a8:	00 00 00 00 
    90ac:	48 c7 85 78 ff ff ff 	movq   $0x0,-0x88(%rbp)
    90b3:	00 00 00 00 
    90b7:	48 c7 45 80 00 00 00 	movq   $0x0,-0x80(%rbp)
    90be:	00 
    90bf:	48 c7 45 88 00 00 00 	movq   $0x0,-0x78(%rbp)
    90c6:	00 
    90c7:	48 8d 85 d0 e5 ff ff 	lea    -0x1a30(%rbp),%rax
    90ce:	48 89 45 90          	mov    %rax,-0x70(%rbp)
    90d2:	48 c7 45 98 00 00 00 	movq   $0x0,-0x68(%rbp)
    90d9:	00 
    90da:	48 8d 85 d0 e5 ff ff 	lea    -0x1a30(%rbp),%rax
    90e1:	48 89 45 a0          	mov    %rax,-0x60(%rbp)
    90e5:	48 c7 45 a8 00 00 00 	movq   $0x0,-0x58(%rbp)
    90ec:	00 
    90ed:	48 c7 45 b0 00 00 00 	movq   $0x0,-0x50(%rbp)
    90f4:	00 
    90f5:	48 8d 85 d0 e5 ff ff 	lea    -0x1a30(%rbp),%rax
    90fc:	48 89 45 b8          	mov    %rax,-0x48(%rbp)
    9100:	48 b8 82 49 b6 12 a7 	movabs $0x792e83a712b64982,%rax
    9107:	83 2e 79 
    910a:	48 89 85 10 e6 ff ff 	mov    %rax,-0x19f0(%rbp)
    9111:	66 c7 85 20 e8 ff ff 	movw   $0xfffc,-0x17e0(%rbp)
    9118:	fc ff 
    911a:	66 c7 85 22 e8 ff ff 	movw   $0xffff,-0x17de(%rbp)
    9121:	ff ff 
    9123:	66 c7 85 24 e8 ff ff 	movw   $0xffff,-0x17dc(%rbp)
    912a:	ff ff 
    912c:	66 c7 85 26 e8 ff ff 	movw   $0xfffc,-0x17da(%rbp)
    9133:	fc ff 
    9135:	66 c7 85 28 e8 ff ff 	movw   $0x0,-0x17d8(%rbp)
    913c:	00 00 
    913e:	66 c7 85 2a e8 ff ff 	movw   $0xfffc,-0x17d6(%rbp)
    9145:	fc ff 
    9147:	66 c7 85 2c e8 ff ff 	movw   $0xfff6,-0x17d4(%rbp)
    914e:	f6 ff 
    9150:	66 c7 85 2e e8 ff ff 	movw   $0x6e7f,-0x17d2(%rbp)
    9157:	7f 6e 
    9159:	66 c7 85 30 e8 ff ff 	movw   $0xe219,-0x17d0(%rbp)
    9160:	19 e2 
    9162:	66 c7 85 32 e8 ff ff 	movw   $0xfff6,-0x17ce(%rbp)
    9169:	f6 ff 
    916b:	66 c7 85 34 e8 ff ff 	movw   $0x0,-0x17cc(%rbp)
    9172:	00 00 
    9174:	66 c7 85 36 e8 ff ff 	movw   $0xf280,-0x17ca(%rbp)
    917b:	80 f2 
    917d:	66 c7 85 38 e8 ff ff 	movw   $0xf382,-0x17c8(%rbp)
    9184:	82 f3 
    9186:	66 c7 85 3a e8 ff ff 	movw   $0xffff,-0x17c6(%rbp)
    918d:	ff ff 
    918f:	66 c7 85 3c e8 ff ff 	movw   $0x5c5c,-0x17c4(%rbp)
    9196:	5c 5c 
    9198:	66 c7 85 3e e8 ff ff 	movw   $0xf280,-0x17c2(%rbp)
    919f:	80 f2 
    91a1:	66 c7 85 40 e8 ff ff 	movw   $0x0,-0x17c0(%rbp)
    91a8:	00 00 
    91aa:	66 c7 85 42 e8 ff ff 	movw   $0xffff,-0x17be(%rbp)
    91b1:	ff ff 
    91b3:	66 c7 85 44 e8 ff ff 	movw   $0xe219,-0x17bc(%rbp)
    91ba:	19 e2 
    91bc:	66 c7 85 46 e8 ff ff 	movw   $0xffff,-0x17ba(%rbp)
    91c3:	ff ff 
    91c5:	66 c7 85 48 e8 ff ff 	movw   $0xfff6,-0x17b8(%rbp)
    91cc:	f6 ff 
    91ce:	66 c7 85 4a e8 ff ff 	movw   $0xfffc,-0x17b6(%rbp)
    91d5:	fc ff 
    91d7:	66 c7 85 4c e8 ff ff 	movw   $0x6223,-0x17b4(%rbp)
    91de:	23 62 
    91e0:	66 c7 85 4e e8 ff ff 	movw   $0xfffc,-0x17b2(%rbp)
    91e7:	fc ff 
    91e9:	66 c7 85 50 e8 ff ff 	movw   $0xfff6,-0x17b0(%rbp)
    91f0:	f6 ff 
    91f2:	66 c7 85 52 e8 ff ff 	movw   $0xffff,-0x17ae(%rbp)
    91f9:	ff ff 
    91fb:	66 c7 85 54 e8 ff ff 	movw   $0xfffc,-0x17ac(%rbp)
    9202:	fc ff 
    9204:	66 c7 85 56 e8 ff ff 	movw   $0x0,-0x17aa(%rbp)
    920b:	00 00 
    920d:	66 c7 85 58 e8 ff ff 	movw   $0x1,-0x17a8(%rbp)
    9214:	01 00 
    9216:	66 c7 85 5a e8 ff ff 	movw   $0xffff,-0x17a6(%rbp)
    921d:	ff ff 
    921f:	66 c7 85 5c e8 ff ff 	movw   $0xffff,-0x17a4(%rbp)
    9226:	ff ff 
    9228:	66 c7 85 5e e8 ff ff 	movw   $0x0,-0x17a2(%rbp)
    922f:	00 00 
    9231:	66 c7 85 60 e8 ff ff 	movw   $0xffff,-0x17a0(%rbp)
    9238:	ff ff 
    923a:	66 c7 85 62 e8 ff ff 	movw   $0xfff6,-0x179e(%rbp)
    9241:	f6 ff 
    9243:	66 c7 85 64 e8 ff ff 	movw   $0x3875,-0x179c(%rbp)
    924a:	75 38 
    924c:	66 c7 85 66 e8 ff ff 	movw   $0xfffc,-0x179a(%rbp)
    9253:	fc ff 
    9255:	66 c7 85 68 e8 ff ff 	movw   $0xf280,-0x1798(%rbp)
    925c:	80 f2 
    925e:	66 c7 85 6a e8 ff ff 	movw   $0x678b,-0x1796(%rbp)
    9265:	8b 67 
    9267:	66 c7 85 6c e8 ff ff 	movw   $0xfffc,-0x1794(%rbp)
    926e:	fc ff 
    9270:	66 c7 85 6e e8 ff ff 	movw   $0xffff,-0x1792(%rbp)
    9277:	ff ff 
    9279:	66 c7 85 70 e8 ff ff 	movw   $0x0,-0x1790(%rbp)
    9280:	00 00 
    9282:	66 c7 85 72 e8 ff ff 	movw   $0xfff6,-0x178e(%rbp)
    9289:	f6 ff 
    928b:	66 c7 85 74 e8 ff ff 	movw   $0xf382,-0x178c(%rbp)
    9292:	82 f3 
    9294:	66 c7 85 76 e8 ff ff 	movw   $0xf382,-0x178a(%rbp)
    929b:	82 f3 
    929d:	66 c7 85 78 e8 ff ff 	movw   $0xfff6,-0x1788(%rbp)
    92a4:	f6 ff 
    92a6:	48 c7 85 d8 e5 ff ff 	movq   $0x0,-0x1a28(%rbp)
    92ad:	00 00 00 00 
    92b1:	c6 85 6d e5 ff ff 90 	movb   $0x90,-0x1a93(%rbp)
    92b8:	c7 85 a0 e5 ff ff 04 	movl   $0x4,-0x1a60(%rbp)
    92bf:	00 00 00 
    92c2:	48 8d 85 60 eb ff ff 	lea    -0x14a0(%rbp),%rax
    92c9:	48 8d 15 d0 f3 00 00 	lea    0xf3d0(%rip),%rdx        # 186a0 <g_1189+0x788>
    92d0:	b9 6c 00 00 00       	mov    $0x6c,%ecx
    92d5:	48 89 c7             	mov    %rax,%rdi
    92d8:	48 89 d6             	mov    %rdx,%rsi
    92db:	f3 48 a5             	rep movsq %ds:(%rsi),%es:(%rdi)
    92de:	66 c7 85 70 e5 ff ff 	movw   $0xd723,-0x1a90(%rbp)
    92e5:	23 d7 
    92e7:	48 c7 85 18 e6 ff ff 	movq   $0x0,-0x19e8(%rbp)
    92ee:	00 00 00 00 
    92f2:	48 8d 85 a0 f2 ff ff 	lea    -0xd60(%rbp),%rax
    92f9:	48 05 58 02 00 00    	add    $0x258,%rax
    92ff:	48 89 85 20 e6 ff ff 	mov    %rax,-0x19e0(%rbp)
    9306:	c7 85 84 e5 ff ff 00 	movl   $0x0,-0x1a7c(%rbp)
    930d:	00 00 00 
    9310:	eb 1b                	jmp    932d <func_38+0xe96>
    9312:	8b 85 84 e5 ff ff    	mov    -0x1a7c(%rbp),%eax
    9318:	48 98                	cltq   
    931a:	48 c7 84 c5 80 e7 ff 	movq   $0x0,-0x1880(%rbp,%rax,8)
    9321:	ff 00 00 00 00 
    9326:	83 85 84 e5 ff ff 01 	addl   $0x1,-0x1a7c(%rbp)
    932d:	83 bd 84 e5 ff ff 01 	cmpl   $0x1,-0x1a7c(%rbp)
    9334:	7e dc                	jle    9312 <func_38+0xe7b>
    9336:	80 bd 5c e5 ff ff 00 	cmpb   $0x0,-0x1aa4(%rbp)
    933d:	0f 84 b8 0a 00 00    	je     9dfb <func_38+0x1964>
    9343:	48 8d 05 96 e0 00 00 	lea    0xe096(%rip),%rax        # 173e0 <g_638>
    934a:	48 89 85 a8 e6 ff ff 	mov    %rax,-0x1958(%rbp)
    9351:	c7 85 88 e5 ff ff 13 	movl   $0xf2e29313,-0x1a78(%rbp)
    9358:	93 e2 f2 
    935b:	48 c7 85 b0 e6 ff ff 	movq   $0x0,-0x1950(%rbp)
    9362:	00 00 00 00 
    9366:	c7 85 8c e5 ff ff f9 	movl   $0xfffffff9,-0x1a74(%rbp)
    936d:	ff ff ff 
    9370:	48 8d 05 31 e0 00 00 	lea    0xe031(%rip),%rax        # 173a8 <g_433>
    9377:	48 89 85 20 e9 ff ff 	mov    %rax,-0x16e0(%rbp)
    937e:	48 c7 85 28 e9 ff ff 	movq   $0x0,-0x16d8(%rbp)
    9385:	00 00 00 00 
    9389:	48 c7 85 30 e9 ff ff 	movq   $0x0,-0x16d0(%rbp)
    9390:	00 00 00 00 
    9394:	48 8d 05 0d e0 00 00 	lea    0xe00d(%rip),%rax        # 173a8 <g_433>
    939b:	48 89 85 38 e9 ff ff 	mov    %rax,-0x16c8(%rbp)
    93a2:	48 c7 85 40 e9 ff ff 	movq   $0x0,-0x16c0(%rbp)
    93a9:	00 00 00 00 
    93ad:	48 c7 85 48 e9 ff ff 	movq   $0x0,-0x16b8(%rbp)
    93b4:	00 00 00 00 
    93b8:	48 8d 05 e9 df 00 00 	lea    0xdfe9(%rip),%rax        # 173a8 <g_433>
    93bf:	48 89 85 50 e9 ff ff 	mov    %rax,-0x16b0(%rbp)
    93c6:	c7 05 f8 df 00 00 01 	movl   $0x1,0xdff8(%rip)        # 173c8 <g_499>
    93cd:	00 00 00 
    93d0:	90                   	nop
    93d1:	8b 05 f1 df 00 00    	mov    0xdff1(%rip),%eax        # 173c8 <g_499>
    93d7:	83 f8 04             	cmp    $0x4,%eax
    93da:	77 3f                	ja     941b <func_38+0xf84>
    93dc:	48 8b 05 c5 f9 00 00 	mov    0xf9c5(%rip),%rax        # 18da8 <g_65>
    93e3:	48 8b 08             	mov    (%rax),%rcx
    93e6:	48 8b 01             	mov    (%rcx),%rax
    93e9:	48 8b 51 08          	mov    0x8(%rcx),%rdx
    93ed:	48 89 85 f8 f4 ff ff 	mov    %rax,-0xb08(%rbp)
    93f4:	48 89 95 00 f5 ff ff 	mov    %rdx,-0xb00(%rbp)
    93fb:	48 8b 41 10          	mov    0x10(%rcx),%rax
    93ff:	48 89 85 08 f5 ff ff 	mov    %rax,-0xaf8(%rbp)
    9406:	83 bd 58 e5 ff ff 00 	cmpl   $0x0,-0x1aa8(%rbp)
    940d:	75 0f                	jne    941e <func_38+0xf87>
    940f:	48 8b 85 a8 e6 ff ff 	mov    -0x1958(%rbp),%rax
    9416:	e9 83 1b 00 00       	jmpq   af9e <func_38+0x2b07>
    941b:	90                   	nop
    941c:	eb 01                	jmp    941f <func_38+0xf88>
    941e:	90                   	nop
    941f:	48 8b 05 32 fb 00 00 	mov    0xfb32(%rip),%rax        # 18f58 <g_822>
    9426:	48 8d 15 23 fb 00 00 	lea    0xfb23(%rip),%rdx        # 18f50 <g_823>
    942d:	48 39 d0             	cmp    %rdx,%rax
    9430:	83 bd 88 e5 ff ff 00 	cmpl   $0x0,-0x1a78(%rbp)
    9437:	75 09                	jne    9442 <func_38+0xfab>
    9439:	83 bd 58 e5 ff ff 00 	cmpl   $0x0,-0x1aa8(%rbp)
    9440:	74 07                	je     9449 <func_38+0xfb2>
    9442:	b8 01 00 00 00       	mov    $0x1,%eax
    9447:	eb 05                	jmp    944e <func_38+0xfb7>
    9449:	b8 00 00 00 00       	mov    $0x0,%eax
    944e:	4c 63 e0             	movslq %eax,%r12
    9451:	48 0f be 9d 5c e5 ff 	movsbq -0x1aa4(%rbp),%rbx
    9458:	ff 
    9459:	8b 95 58 e5 ff ff    	mov    -0x1aa8(%rbp),%edx
    945f:	48 8d 05 02 fe 00 00 	lea    0xfe02(%rip),%rax        # 19268 <g_838+0x308>
    9466:	48 85 c0             	test   %rax,%rax
    9469:	0f 95 c0             	setne  %al
    946c:	0f b6 c0             	movzbl %al,%eax
    946f:	8b 8d 88 e5 ff ff    	mov    -0x1a78(%rbp),%ecx
    9475:	09 c8                	or     %ecx,%eax
    9477:	0f b7 c0             	movzwl %ax,%eax
    947a:	89 d6                	mov    %edx,%esi
    947c:	89 c7                	mov    %eax,%edi
    947e:	e8 c5 d9 ff ff       	callq  6e48 <safe_rshift_func_uint16_t_u_s>
    9483:	48 c7 85 88 e7 ff ff 	movq   $0x0,-0x1878(%rbp)
    948a:	00 00 00 00 
    948e:	48 8b 85 88 e7 ff ff 	mov    -0x1878(%rbp),%rax
    9495:	48 8d 15 58 dc 00 00 	lea    0xdc58(%rip),%rdx        # 170f4 <g_15>
    949c:	48 39 d0             	cmp    %rdx,%rax
    949f:	0f 94 c0             	sete   %al
    94a2:	0f b6 c0             	movzbl %al,%eax
    94a5:	be fb 75 00 00       	mov    $0x75fb,%esi
    94aa:	89 c7                	mov    %eax,%edi
    94ac:	e8 ab d8 ff ff       	callq  6d5c <safe_mod_func_uint16_t_u_u>
    94b1:	0f b7 c0             	movzwl %ax,%eax
    94b4:	be 01 00 00 00       	mov    $0x1,%esi
    94b9:	89 c7                	mov    %eax,%edi
    94bb:	e8 ce d8 ff ff       	callq  6d8e <safe_div_func_uint16_t_u_u>
    94c0:	48 8b 05 79 f9 00 00 	mov    0xf979(%rip),%rax        # 18e40 <g_784>
    94c7:	0f b7 00             	movzwl (%rax),%eax
    94ca:	98                   	cwtl   
    94cb:	83 e0 01             	and    $0x1,%eax
    94ce:	85 c0                	test   %eax,%eax
    94d0:	74 07                	je     94d9 <func_38+0x1042>
    94d2:	83 bd 58 e5 ff ff 00 	cmpl   $0x0,-0x1aa8(%rbp)
    94d9:	83 bd 88 e5 ff ff 00 	cmpl   $0x0,-0x1a78(%rbp)
    94e0:	74 07                	je     94e9 <func_38+0x1052>
    94e2:	b8 01 00 00 00       	mov    $0x1,%eax
    94e7:	eb 05                	jmp    94ee <func_38+0x1057>
    94e9:	b8 00 00 00 00       	mov    $0x0,%eax
    94ee:	48 98                	cltq   
    94f0:	48 89 de             	mov    %rbx,%rsi
    94f3:	48 89 c7             	mov    %rax,%rdi
    94f6:	e8 33 db ff ff       	callq  702e <safe_add_func_uint64_t_u_u>
    94fb:	49 39 c4             	cmp    %rax,%r12
    94fe:	0f 96 c0             	setbe  %al
    9501:	0f b6 c0             	movzbl %al,%eax
    9504:	89 85 78 e5 ff ff    	mov    %eax,-0x1a88(%rbp)
    950a:	8b 85 78 e5 ff ff    	mov    -0x1a88(%rbp),%eax
    9510:	25 ca bf 97 e0       	and    $0xe097bfca,%eax
    9515:	89 85 88 e5 ff ff    	mov    %eax,-0x1a78(%rbp)
    951b:	0f be 85 5c e5 ff ff 	movsbl -0x1aa4(%rbp),%eax
    9522:	39 85 8c e5 ff ff    	cmp    %eax,-0x1a74(%rbp)
    9528:	0f 97 c0             	seta   %al
    952b:	0f b6 c0             	movzbl %al,%eax
    952e:	89 c7                	mov    %eax,%edi
    9530:	e8 8a cc ff ff       	callq  61bf <safe_unary_minus_func_int8_t_s>
    9535:	8b 85 8c e5 ff ff    	mov    -0x1a74(%rbp),%eax
    953b:	0f b7 c0             	movzwl %ax,%eax
    953e:	be 02 00 00 00       	mov    $0x2,%esi
    9543:	89 c7                	mov    %eax,%edi
    9545:	e8 f3 d7 ff ff       	callq  6d3d <safe_mul_func_uint16_t_u_u>
    954a:	0f b7 c0             	movzwl %ax,%eax
    954d:	31 85 7c e5 ff ff    	xor    %eax,-0x1a84(%rbp)
    9553:	8b 85 7c e5 ff ff    	mov    -0x1a84(%rbp),%eax
    9559:	89 85 80 e5 ff ff    	mov    %eax,-0x1a80(%rbp)
    955f:	c7 85 8c e5 ff ff f2 	movl   $0xfffffff2,-0x1a74(%rbp)
    9566:	ff ff ff 
    9569:	e9 7b 08 00 00       	jmpq   9de9 <func_38+0x1952>
    956e:	66 c7 85 76 e5 ff ff 	movw   $0xcc7b,-0x1a8a(%rbp)
    9575:	7b cc 
    9577:	48 8d 05 72 00 01 00 	lea    0x10072(%rip),%rax        # 195f0 <g_926>
    957e:	48 89 85 b8 e6 ff ff 	mov    %rax,-0x1948(%rbp)
    9585:	48 8d 05 54 ff 00 00 	lea    0xff54(%rip),%rax        # 194e0 <g_927+0x120>
    958c:	48 89 85 00 e6 ff ff 	mov    %rax,-0x1a00(%rbp)
    9593:	48 8d 85 00 e6 ff ff 	lea    -0x1a00(%rbp),%rax
    959a:	48 89 85 c0 e6 ff ff 	mov    %rax,-0x1940(%rbp)
    95a1:	48 c7 85 c8 e6 ff ff 	movq   $0x0,-0x1938(%rbp)
    95a8:	00 00 00 00 
    95ac:	48 8d 05 86 db 00 00 	lea    0xdb86(%rip),%rax        # 17139 <g_114+0x19>
    95b3:	48 89 85 d0 e6 ff ff 	mov    %rax,-0x1930(%rbp)
    95ba:	c7 85 80 e8 ff ff 99 	movl   $0x48fdd999,-0x1780(%rbp)
    95c1:	d9 fd 48 
    95c4:	c7 85 84 e8 ff ff 03 	movl   $0x3,-0x177c(%rbp)
    95cb:	00 00 00 
    95ce:	c7 85 88 e8 ff ff 99 	movl   $0x48fdd999,-0x1778(%rbp)
    95d5:	d9 fd 48 
    95d8:	c7 85 8c e8 ff ff 99 	movl   $0x48fdd999,-0x1774(%rbp)
    95df:	d9 fd 48 
    95e2:	c7 85 90 e8 ff ff 03 	movl   $0x3,-0x1770(%rbp)
    95e9:	00 00 00 
    95ec:	c7 85 94 e8 ff ff 99 	movl   $0x48fdd999,-0x176c(%rbp)
    95f3:	d9 fd 48 
    95f6:	c7 85 98 e8 ff ff 99 	movl   $0x48fdd999,-0x1768(%rbp)
    95fd:	d9 fd 48 
    9600:	48 8d 05 c7 dd 00 00 	lea    0xddc7(%rip),%rax        # 173ce <g_545>
    9607:	48 89 85 d8 e6 ff ff 	mov    %rax,-0x1928(%rbp)
    960e:	48 8d 05 b7 dd 00 00 	lea    0xddb7(%rip),%rax        # 173cc <g_543>
    9615:	48 89 85 e0 e6 ff ff 	mov    %rax,-0x1920(%rbp)
    961c:	48 8d 05 69 db 00 00 	lea    0xdb69(%rip),%rax        # 1718c <g_172>
    9623:	48 89 85 e8 e6 ff ff 	mov    %rax,-0x1918(%rbp)
    962a:	48 8d 05 cf da 00 00 	lea    0xdacf(%rip),%rax        # 17100 <g_31>
    9631:	48 89 85 f0 e6 ff ff 	mov    %rax,-0x1910(%rbp)
    9638:	48 c7 85 f8 e6 ff ff 	movq   $0x0,-0x1908(%rbp)
    963f:	00 00 00 00 
    9643:	48 8d 05 7e dd 00 00 	lea    0xdd7e(%rip),%rax        # 173c8 <g_499>
    964a:	48 89 85 00 e7 ff ff 	mov    %rax,-0x1900(%rbp)
    9651:	c7 85 90 e5 ff ff 23 	movl   $0x481cbd23,-0x1a70(%rbp)
    9658:	bd 1c 48 
    965b:	48 c7 85 08 e7 ff ff 	movq   $0x0,-0x18f8(%rbp)
    9662:	00 00 00 00 
    9666:	48 8d 85 80 e7 ff ff 	lea    -0x1880(%rbp),%rax
    966d:	48 83 c0 08          	add    $0x8,%rax
    9671:	48 89 85 08 e6 ff ff 	mov    %rax,-0x19f8(%rbp)
    9678:	48 c7 85 10 e7 ff ff 	movq   $0x0,-0x18f0(%rbp)
    967f:	00 00 00 00 
    9683:	48 c7 85 18 e7 ff ff 	movq   $0x0,-0x18e8(%rbp)
    968a:	00 00 00 00 
    968e:	48 8d 85 20 e9 ff ff 	lea    -0x16e0(%rbp),%rax
    9695:	48 83 c0 10          	add    $0x10,%rax
    9699:	48 89 85 20 e7 ff ff 	mov    %rax,-0x18e0(%rbp)
    96a0:	48 8d 85 08 e6 ff ff 	lea    -0x19f8(%rbp),%rax
    96a7:	48 89 85 60 e7 ff ff 	mov    %rax,-0x18a0(%rbp)
    96ae:	48 8d 85 60 e7 ff ff 	lea    -0x18a0(%rbp),%rax
    96b5:	48 89 85 28 e7 ff ff 	mov    %rax,-0x18d8(%rbp)
    96bc:	48 8d 05 b1 de 00 00 	lea    0xdeb1(%rip),%rax        # 17574 <g_755>
    96c3:	48 89 85 c0 ee ff ff 	mov    %rax,-0x1140(%rbp)
    96ca:	48 8d 05 a3 de 00 00 	lea    0xdea3(%rip),%rax        # 17574 <g_755>
    96d1:	48 89 85 c8 ee ff ff 	mov    %rax,-0x1138(%rbp)
    96d8:	48 8d 05 95 de 00 00 	lea    0xde95(%rip),%rax        # 17574 <g_755>
    96df:	48 89 85 d0 ee ff ff 	mov    %rax,-0x1130(%rbp)
    96e6:	48 8d 05 87 de 00 00 	lea    0xde87(%rip),%rax        # 17574 <g_755>
    96ed:	48 89 85 d8 ee ff ff 	mov    %rax,-0x1128(%rbp)
    96f4:	48 8d 05 79 de 00 00 	lea    0xde79(%rip),%rax        # 17574 <g_755>
    96fb:	48 89 85 e0 ee ff ff 	mov    %rax,-0x1120(%rbp)
    9702:	48 8d 05 6b de 00 00 	lea    0xde6b(%rip),%rax        # 17574 <g_755>
    9709:	48 89 85 e8 ee ff ff 	mov    %rax,-0x1118(%rbp)
    9710:	48 8d 05 5d de 00 00 	lea    0xde5d(%rip),%rax        # 17574 <g_755>
    9717:	48 89 85 f0 ee ff ff 	mov    %rax,-0x1110(%rbp)
    971e:	48 c7 85 30 e7 ff ff 	movq   $0xfffffffffffffff6,-0x18d0(%rbp)
    9725:	f6 ff ff ff 
    9729:	48 8d 05 a0 dc 00 00 	lea    0xdca0(%rip),%rax        # 173d0 <g_558>
    9730:	48 89 85 38 e7 ff ff 	mov    %rax,-0x18c8(%rbp)
    9737:	48 c7 85 40 e7 ff ff 	movq   $0xfffffffffffffffa,-0x18c0(%rbp)
    973e:	fa ff ff ff 
    9742:	48 8b 05 5f f6 00 00 	mov    0xf65f(%rip),%rax        # 18da8 <g_65>
    9749:	48 8b 30             	mov    (%rax),%rsi
    974c:	48 8b 0d 4d f6 00 00 	mov    0xf64d(%rip),%rcx        # 18da0 <g_66>
    9753:	48 8b 06             	mov    (%rsi),%rax
    9756:	48 8b 56 08          	mov    0x8(%rsi),%rdx
    975a:	48 89 01             	mov    %rax,(%rcx)
    975d:	48 89 51 08          	mov    %rdx,0x8(%rcx)
    9761:	48 8b 46 10          	mov    0x10(%rsi),%rax
    9765:	48 89 41 10          	mov    %rax,0x10(%rcx)
    9769:	0f b7 9d 76 e5 ff ff 	movzwl -0x1a8a(%rbp),%ebx
    9770:	44 0f be a5 5c e5 ff 	movsbl -0x1aa4(%rbp),%r12d
    9777:	ff 
    9778:	48 8b 05 99 f6 00 00 	mov    0xf699(%rip),%rax        # 18e18 <g_375>
    977f:	48 8b 00             	mov    (%rax),%rax
    9782:	0f b6 00             	movzbl (%rax),%eax
    9785:	44 0f be e8          	movsbl %al,%r13d
    9789:	0f b7 85 76 e5 ff ff 	movzwl -0x1a8a(%rbp),%eax
    9790:	83 bd 58 e5 ff ff 00 	cmpl   $0x0,-0x1aa8(%rbp)
    9797:	75 09                	jne    97a2 <func_38+0x130b>
    9799:	83 bd 58 e5 ff ff 00 	cmpl   $0x0,-0x1aa8(%rbp)
    97a0:	74 11                	je     97b3 <func_38+0x131c>
    97a2:	66 83 bd 76 e5 ff ff 	cmpw   $0x0,-0x1a8a(%rbp)
    97a9:	00 
    97aa:	74 07                	je     97b3 <func_38+0x131c>
    97ac:	ba 01 00 00 00       	mov    $0x1,%edx
    97b1:	eb 05                	jmp    97b8 <func_38+0x1321>
    97b3:	ba 00 00 00 00       	mov    $0x0,%edx
    97b8:	39 c2                	cmp    %eax,%edx
    97ba:	0f 9e c0             	setle  %al
    97bd:	0f b6 c0             	movzbl %al,%eax
    97c0:	89 85 4c e5 ff ff    	mov    %eax,-0x1ab4(%rbp)
    97c6:	0f b7 85 76 e5 ff ff 	movzwl -0x1a8a(%rbp),%eax
    97cd:	44 0f b6 f0          	movzbl %al,%r14d
    97d1:	44 0f b7 bd 76 e5 ff 	movzwl -0x1a8a(%rbp),%r15d
    97d8:	ff 
    97d9:	48 8b 85 d0 e6 ff ff 	mov    -0x1930(%rbp),%rax
    97e0:	0f b6 00             	movzbl (%rax),%eax
    97e3:	8d 50 ff             	lea    -0x1(%rax),%edx
    97e6:	48 8b 85 d0 e6 ff ff 	mov    -0x1930(%rbp),%rax
    97ed:	88 10                	mov    %dl,(%rax)
    97ef:	48 8b 85 d0 e6 ff ff 	mov    -0x1930(%rbp),%rax
    97f6:	0f b6 00             	movzbl (%rax),%eax
    97f9:	0f b6 f8             	movzbl %al,%edi
    97fc:	89 bd 48 e5 ff ff    	mov    %edi,-0x1ab8(%rbp)
    9802:	0f b7 85 76 e5 ff ff 	movzwl -0x1a8a(%rbp),%eax
    9809:	48 be 88 46 b2 90 e2 	movabs $0xc40a65e290b24688,%rsi
    9810:	65 0a c4 
    9813:	48 89 35 96 dc 00 00 	mov    %rsi,0xdc96(%rip)        # 174b0 <g_712+0x70>
    981a:	48 8b 0d 8f dc 00 00 	mov    0xdc8f(%rip),%rcx        # 174b0 <g_712+0x70>
    9821:	8b 95 58 e5 ff ff    	mov    -0x1aa8(%rbp),%edx
    9827:	48 39 d1             	cmp    %rdx,%rcx
    982a:	0f 95 c2             	setne  %dl
    982d:	0f b6 ca             	movzbl %dl,%ecx
    9830:	0f b7 95 76 e5 ff ff 	movzwl -0x1a8a(%rbp),%edx
    9837:	31 ca                	xor    %ecx,%edx
    9839:	89 c6                	mov    %eax,%esi
    983b:	89 d7                	mov    %edx,%edi
    983d:	e8 8e d6 ff ff       	callq  6ed0 <safe_sub_func_uint32_t_u_u>
    9842:	39 85 48 e5 ff ff    	cmp    %eax,-0x1ab8(%rbp)
    9848:	0f 97 c0             	seta   %al
    984b:	0f b6 d0             	movzbl %al,%edx
    984e:	0f b7 85 76 e5 ff ff 	movzwl -0x1a8a(%rbp),%eax
    9855:	39 c2                	cmp    %eax,%edx
    9857:	0f 9c c0             	setl   %al
    985a:	0f b6 c0             	movzbl %al,%eax
    985d:	89 85 84 e8 ff ff    	mov    %eax,-0x177c(%rbp)
    9863:	8b 85 84 e8 ff ff    	mov    -0x177c(%rbp),%eax
    9869:	89 c2                	mov    %eax,%edx
    986b:	48 8b 85 d8 e6 ff ff 	mov    -0x1928(%rbp),%rax
    9872:	66 89 10             	mov    %dx,(%rax)
    9875:	8b 85 80 e8 ff ff    	mov    -0x1780(%rbp),%eax
    987b:	0f bf d0             	movswl %ax,%edx
    987e:	48 8b b5 b8 fc ff ff 	mov    -0x348(%rbp),%rsi
    9885:	48 8b 0d 64 fd 00 00 	mov    0xfd64(%rip),%rcx        # 195f0 <g_926>
    988c:	48 8b 85 b8 e6 ff ff 	mov    -0x1948(%rbp),%rax
    9893:	48 89 08             	mov    %rcx,(%rax)
    9896:	48 8b 85 b8 e6 ff ff 	mov    -0x1948(%rbp),%rax
    989d:	48 8b 08             	mov    (%rax),%rcx
    98a0:	48 8b 85 c0 e6 ff ff 	mov    -0x1940(%rbp),%rax
    98a7:	48 89 08             	mov    %rcx,(%rax)
    98aa:	48 8b 85 c0 e6 ff ff 	mov    -0x1940(%rbp),%rax
    98b1:	48 8b 00             	mov    (%rax),%rax
    98b4:	48 39 c6             	cmp    %rax,%rsi
    98b7:	0f 95 c0             	setne  %al
    98ba:	0f b6 c0             	movzbl %al,%eax
    98bd:	89 d6                	mov    %edx,%esi
    98bf:	89 c7                	mov    %eax,%edi
    98c1:	e8 2f cb ff ff       	callq  63f5 <safe_mul_func_int16_t_s_s>
    98c6:	0f b7 c0             	movzwl %ax,%eax
    98c9:	be 00 00 00 00       	mov    $0x0,%esi
    98ce:	89 c7                	mov    %eax,%edi
    98d0:	e8 68 d4 ff ff       	callq  6d3d <safe_mul_func_uint16_t_u_u>
    98d5:	0f b7 c0             	movzwl %ax,%eax
    98d8:	be 0e 8c 00 00       	mov    $0x8c0e,%esi
    98dd:	89 c7                	mov    %eax,%edi
    98df:	e8 59 d4 ff ff       	callq  6d3d <safe_mul_func_uint16_t_u_u>
    98e4:	89 c2                	mov    %eax,%edx
    98e6:	48 8b 85 e0 e6 ff ff 	mov    -0x1920(%rbp),%rax
    98ed:	88 10                	mov    %dl,(%rax)
    98ef:	48 8b 85 e0 e6 ff ff 	mov    -0x1920(%rbp),%rax
    98f6:	0f b6 00             	movzbl (%rax),%eax
    98f9:	0f be c0             	movsbl %al,%eax
    98fc:	be a0 ff ff ff       	mov    $0xffffffa0,%esi
    9901:	89 c7                	mov    %eax,%edi
    9903:	e8 0a c9 ff ff       	callq  6212 <safe_mul_func_int8_t_s_s>
    9908:	0f be c0             	movsbl %al,%eax
    990b:	39 85 58 e5 ff ff    	cmp    %eax,-0x1aa8(%rbp)
    9911:	0f 93 c0             	setae  %al
    9914:	0f b6 c0             	movzbl %al,%eax
    9917:	44 89 fe             	mov    %r15d,%esi
    991a:	89 c7                	mov    %eax,%edi
    991c:	e8 fe d3 ff ff       	callq  6d1f <safe_sub_func_uint16_t_u_u>
    9921:	0f b7 05 f0 d7 00 00 	movzwl 0xd7f0(%rip),%eax        # 17118 <g_81>
    9928:	0f b6 c0             	movzbl %al,%eax
    992b:	44 89 f6             	mov    %r14d,%esi
    992e:	89 c7                	mov    %eax,%edi
    9930:	e8 a6 d2 ff ff       	callq  6bdb <safe_div_func_uint8_t_u_u>
    9935:	be 07 00 00 00       	mov    $0x7,%esi
    993a:	bf 00 00 00 00       	mov    $0x0,%edi
    993f:	e8 08 d3 ff ff       	callq  6c4c <safe_lshift_func_uint8_t_u_u>
    9944:	0f b6 c0             	movzbl %al,%eax
    9947:	39 85 4c e5 ff ff    	cmp    %eax,-0x1ab4(%rbp)
    994d:	0f 9c c0             	setl   %al
    9950:	0f b6 c0             	movzbl %al,%eax
    9953:	44 89 ee             	mov    %r13d,%esi
    9956:	89 c7                	mov    %eax,%edi
    9958:	e8 0d c9 ff ff       	callq  626a <safe_div_func_int8_t_s_s>
    995d:	48 8b 95 e8 e6 ff ff 	mov    -0x1918(%rbp),%rdx
    9964:	88 02                	mov    %al,(%rdx)
    9966:	48 8b 85 e8 e6 ff ff 	mov    -0x1918(%rbp),%rax
    996d:	0f b6 10             	movzbl (%rax),%edx
    9970:	48 8b 85 f0 e6 ff ff 	mov    -0x1910(%rbp),%rax
    9977:	88 10                	mov    %dl,(%rax)
    9979:	48 8b 85 f0 e6 ff ff 	mov    -0x1910(%rbp),%rax
    9980:	0f b6 00             	movzbl (%rax),%eax
    9983:	0f be c0             	movsbl %al,%eax
    9986:	44 89 e6             	mov    %r12d,%esi
    9989:	89 c7                	mov    %eax,%edi
    998b:	e8 5e c9 ff ff       	callq  62ee <safe_lshift_func_int8_t_s_u>
    9990:	0f b7 95 76 e5 ff ff 	movzwl -0x1a8a(%rbp),%edx
    9997:	21 d0                	and    %edx,%eax
    9999:	0f be c0             	movsbl %al,%eax
    999c:	be 07 00 00 00       	mov    $0x7,%esi
    99a1:	89 c7                	mov    %eax,%edi
    99a3:	e8 f9 c8 ff ff       	callq  62a1 <safe_lshift_func_int8_t_s_s>
    99a8:	48 8b 95 00 e7 ff ff 	mov    -0x1900(%rbp),%rdx
    99af:	8b 12                	mov    (%rdx),%edx
    99b1:	0f be c0             	movsbl %al,%eax
    99b4:	31 c2                	xor    %eax,%edx
    99b6:	48 8b 85 00 e7 ff ff 	mov    -0x1900(%rbp),%rax
    99bd:	89 10                	mov    %edx,(%rax)
    99bf:	48 8b 85 00 e7 ff ff 	mov    -0x1900(%rbp),%rax
    99c6:	8b 00                	mov    (%rax),%eax
    99c8:	85 c0                	test   %eax,%eax
    99ca:	b8 01 00 00 00       	mov    $0x1,%eax
    99cf:	31 85 90 e5 ff ff    	xor    %eax,-0x1a70(%rbp)
    99d5:	8b 85 90 e5 ff ff    	mov    -0x1a70(%rbp),%eax
    99db:	0f b7 c0             	movzwl %ax,%eax
    99de:	89 de                	mov    %ebx,%esi
    99e0:	89 c7                	mov    %eax,%edi
    99e2:	e8 56 d3 ff ff       	callq  6d3d <safe_mul_func_uint16_t_u_u>
    99e7:	66 85 c0             	test   %ax,%ax
    99ea:	0f 84 63 01 00 00    	je     9b53 <func_38+0x16bc>
    99f0:	66 c7 85 72 e5 ff ff 	movw   $0xffff,-0x1a8e(%rbp)
    99f7:	ff ff 
    99f9:	c6 05 1a d7 00 00 00 	movb   $0x0,0xd71a(%rip)        # 1711a <g_85>
    9a00:	e9 2d 01 00 00       	jmpq   9b32 <func_38+0x169b>
    9a05:	c7 85 c8 e5 ff ff 00 	movl   $0x0,-0x1a38(%rbp)
    9a0c:	00 00 00 
    9a0f:	c7 85 cc e5 ff ff 06 	movl   $0x6,-0x1a34(%rbp)
    9a16:	00 00 00 
    9a19:	c7 85 c0 e7 ff ff 02 	movl   $0x2,-0x1840(%rbp)
    9a20:	00 00 00 
    9a23:	c7 85 c4 e7 ff ff 02 	movl   $0x2,-0x183c(%rbp)
    9a2a:	00 00 00 
    9a2d:	c7 85 c8 e7 ff ff 02 	movl   $0x2,-0x1838(%rbp)
    9a34:	00 00 00 
    9a37:	c7 85 cc e7 ff ff 02 	movl   $0x2,-0x1834(%rbp)
    9a3e:	00 00 00 
    9a41:	c7 85 d0 e7 ff ff 02 	movl   $0x2,-0x1830(%rbp)
    9a48:	00 00 00 
    9a4b:	c7 85 d4 e7 ff ff 02 	movl   $0x2,-0x182c(%rbp)
    9a52:	00 00 00 
    9a55:	48 8b 85 10 e6 ff ff 	mov    -0x19f0(%rbp),%rax
    9a5c:	89 c1                	mov    %eax,%ecx
    9a5e:	48 8b 05 e3 f3 00 00 	mov    0xf3e3(%rip),%rax        # 18e48 <g_783>
    9a65:	48 8b 00             	mov    (%rax),%rax
    9a68:	0f b7 10             	movzwl (%rax),%edx
    9a6b:	48 8b 05 d6 f3 00 00 	mov    0xf3d6(%rip),%rax        # 18e48 <g_783>
    9a72:	48 8b 00             	mov    (%rax),%rax
    9a75:	83 e2 07             	and    $0x7,%edx
    9a78:	66 89 10             	mov    %dx,(%rax)
    9a7b:	0f b7 00             	movzwl (%rax),%eax
    9a7e:	98                   	cwtl   
    9a7f:	89 ce                	mov    %ecx,%esi
    9a81:	89 c7                	mov    %eax,%edi
    9a83:	e8 0a ca ff ff       	callq  6492 <safe_lshift_func_int16_t_s_s>
    9a88:	98                   	cwtl   
    9a89:	31 85 90 e5 ff ff    	xor    %eax,-0x1a70(%rbp)
    9a8f:	c7 85 84 e8 ff ff 01 	movl   $0x1,-0x177c(%rbp)
    9a96:	00 00 00 
    9a99:	48 8b 05 58 fb 00 00 	mov    0xfb58(%rip),%rax        # 195f8 <g_950>
    9aa0:	48 8d 15 71 d6 00 00 	lea    0xd671(%rip),%rdx        # 17118 <g_81>
    9aa7:	48 39 d0             	cmp    %rdx,%rax
    9aaa:	74 47                	je     9af3 <func_38+0x165c>
    9aac:	48 8d 85 20 e9 ff ff 	lea    -0x16e0(%rbp),%rax
    9ab3:	48 83 c0 28          	add    $0x28,%rax
    9ab7:	48 89 85 58 e7 ff ff 	mov    %rax,-0x18a8(%rbp)
    9abe:	48 8b 05 43 d6 00 00 	mov    0xd643(%rip),%rax        # 17108 <g_31+0x8>
    9ac5:	48 85 c0             	test   %rax,%rax
    9ac8:	74 05                	je     9acf <func_38+0x1638>
    9aca:	e9 50 f9 ff ff       	jmpq   941f <func_38+0xf88>
    9acf:	48 8b 85 58 e7 ff ff 	mov    -0x18a8(%rbp),%rax
    9ad6:	48 8b 95 50 e5 ff ff 	mov    -0x1ab0(%rbp),%rdx
    9add:	48 89 10             	mov    %rdx,(%rax)
    9ae0:	0f b7 85 72 e5 ff ff 	movzwl -0x1a8e(%rbp),%eax
    9ae7:	83 c0 01             	add    $0x1,%eax
    9aea:	66 89 85 72 e5 ff ff 	mov    %ax,-0x1a8e(%rbp)
    9af1:	eb 17                	jmp    9b0a <func_38+0x1673>
    9af3:	83 bd 8c e5 ff ff 00 	cmpl   $0x0,-0x1a74(%rbp)
    9afa:	74 05                	je     9b01 <func_38+0x166a>
    9afc:	e9 c5 f8 ff ff       	jmpq   93c6 <func_38+0xf2f>
    9b01:	80 bd 5c e5 ff ff 00 	cmpb   $0x0,-0x1aa4(%rbp)
    9b08:	75 39                	jne    9b43 <func_38+0x16ac>
    9b0a:	8b 85 cc e5 ff ff    	mov    -0x1a34(%rbp),%eax
    9b10:	89 05 06 d6 00 00    	mov    %eax,0xd606(%rip)        # 1711c <g_92>
    9b16:	0f b6 05 fd d5 00 00 	movzbl 0xd5fd(%rip),%eax        # 1711a <g_85>
    9b1d:	0f be c0             	movsbl %al,%eax
    9b20:	be 04 00 00 00       	mov    $0x4,%esi
    9b25:	89 c7                	mov    %eax,%edi
    9b27:	e8 8a ca ff ff       	callq  65b6 <safe_add_func_int32_t_s_s>
    9b2c:	88 05 e8 d5 00 00    	mov    %al,0xd5e8(%rip)        # 1711a <g_85>
    9b32:	0f b6 05 e1 d5 00 00 	movzbl 0xd5e1(%rip),%eax        # 1711a <g_85>
    9b39:	3c 10                	cmp    $0x10,%al
    9b3b:	0f 8e c4 fe ff ff    	jle    9a05 <func_38+0x156e>
    9b41:	eb 01                	jmp    9b44 <func_38+0x16ad>
    9b43:	90                   	nop
    9b44:	48 8b 05 5d f2 00 00 	mov    0xf25d(%rip),%rax        # 18da8 <g_65>
    9b4b:	48 8b 00             	mov    (%rax),%rax
    9b4e:	e9 4b 14 00 00       	jmpq   af9e <func_38+0x2b07>
    9b53:	48 8d 85 20 e9 ff ff 	lea    -0x16e0(%rbp),%rax
    9b5a:	48 83 c0 10          	add    $0x10,%rax
    9b5e:	48 89 85 48 e7 ff ff 	mov    %rax,-0x18b8(%rbp)
    9b65:	48 8d 85 80 e7 ff ff 	lea    -0x1880(%rbp),%rax
    9b6c:	48 83 c0 08          	add    $0x8,%rax
    9b70:	48 89 85 50 e7 ff ff 	mov    %rax,-0x18b0(%rbp)
    9b77:	c7 85 c4 e5 ff ff ff 	movl   $0xffffffff,-0x1a3c(%rbp)
    9b7e:	ff ff ff 
    9b81:	48 8b 85 48 e7 ff ff 	mov    -0x18b8(%rbp),%rax
    9b88:	48 8b 95 50 e5 ff ff 	mov    -0x1ab0(%rbp),%rdx
    9b8f:	48 89 10             	mov    %rdx,(%rax)
    9b92:	48 8b 85 48 e7 ff ff 	mov    -0x18b8(%rbp),%rax
    9b99:	48 8b 10             	mov    (%rax),%rdx
    9b9c:	48 8b 85 50 e7 ff ff 	mov    -0x18b0(%rbp),%rax
    9ba3:	48 89 10             	mov    %rdx,(%rax)
    9ba6:	66 0f be 85 5c e5 ff 	movsbw -0x1aa4(%rbp),%ax
    9bad:	ff 
    9bae:	0f b7 c0             	movzwl %ax,%eax
    9bb1:	be 0f 00 00 00       	mov    $0xf,%esi
    9bb6:	89 c7                	mov    %eax,%edi
    9bb8:	e8 8b d2 ff ff       	callq  6e48 <safe_rshift_func_uint16_t_u_s>
    9bbd:	0f b7 d0             	movzwl %ax,%edx
    9bc0:	0f be 8d 5c e5 ff ff 	movsbl -0x1aa4(%rbp),%ecx
    9bc7:	48 8b 05 72 f2 00 00 	mov    0xf272(%rip),%rax        # 18e40 <g_784>
    9bce:	0f b7 00             	movzwl (%rax),%eax
    9bd1:	66 85 c0             	test   %ax,%ax
    9bd4:	75 0a                	jne    9be0 <func_38+0x1749>
    9bd6:	8b 85 84 e8 ff ff    	mov    -0x177c(%rbp),%eax
    9bdc:	85 c0                	test   %eax,%eax
    9bde:	74 07                	je     9be7 <func_38+0x1750>
    9be0:	b8 01 00 00 00       	mov    $0x1,%eax
    9be5:	eb 05                	jmp    9bec <func_38+0x1755>
    9be7:	b8 00 00 00 00       	mov    $0x0,%eax
    9bec:	39 c8                	cmp    %ecx,%eax
    9bee:	0f 9f c0             	setg   %al
    9bf1:	0f b6 c0             	movzbl %al,%eax
    9bf4:	21 d0                	and    %edx,%eax
    9bf6:	21 85 90 e5 ff ff    	and    %eax,-0x1a70(%rbp)
    9bfc:	80 bd 5c e5 ff ff 00 	cmpb   $0x0,-0x1aa4(%rbp)
    9c03:	0f 85 d8 01 00 00    	jne    9de1 <func_38+0x194a>
    9c09:	c7 05 c1 d7 00 00 08 	movl   $0x8,0xd7c1(%rip)        # 173d4 <g_602>
    9c10:	00 00 00 
    9c13:	eb 63                	jmp    9c78 <func_38+0x17e1>
    9c15:	c6 85 c0 e7 ff ff 00 	movb   $0x0,-0x1840(%rbp)
    9c1c:	c6 85 c1 e7 ff ff fa 	movb   $0xfa,-0x183f(%rbp)
    9c23:	c6 85 c2 e7 ff ff 00 	movb   $0x0,-0x183e(%rbp)
    9c2a:	c6 85 c3 e7 ff ff fa 	movb   $0xfa,-0x183d(%rbp)
    9c31:	c6 85 c4 e7 ff ff 00 	movb   $0x0,-0x183c(%rbp)
    9c38:	c6 85 c5 e7 ff ff fa 	movb   $0xfa,-0x183b(%rbp)
    9c3f:	c6 85 c6 e7 ff ff 00 	movb   $0x0,-0x183a(%rbp)
    9c46:	c7 85 c4 e5 ff ff ff 	movl   $0xffffffff,-0x1a3c(%rbp)
    9c4d:	ff ff ff 
    9c50:	0f b6 85 c3 e7 ff ff 	movzbl -0x183d(%rbp),%eax
    9c57:	83 c0 01             	add    $0x1,%eax
    9c5a:	88 85 c3 e7 ff ff    	mov    %al,-0x183d(%rbp)
    9c60:	83 bd 58 e5 ff ff 00 	cmpl   $0x0,-0x1aa8(%rbp)
    9c67:	75 1c                	jne    9c85 <func_38+0x17ee>
    9c69:	8b 05 65 d7 00 00    	mov    0xd765(%rip),%eax        # 173d4 <g_602>
    9c6f:	83 c0 01             	add    $0x1,%eax
    9c72:	89 05 5c d7 00 00    	mov    %eax,0xd75c(%rip)        # 173d4 <g_602>
    9c78:	8b 05 56 d7 00 00    	mov    0xd756(%rip),%eax        # 173d4 <g_602>
    9c7e:	83 f8 16             	cmp    $0x16,%eax
    9c81:	76 92                	jbe    9c15 <func_38+0x177e>
    9c83:	eb 01                	jmp    9c86 <func_38+0x17ef>
    9c85:	90                   	nop
    9c86:	48 8b 85 08 e6 ff ff 	mov    -0x19f8(%rbp),%rax
    9c8d:	48 8b 95 50 e5 ff ff 	mov    -0x1ab0(%rbp),%rdx
    9c94:	48 89 10             	mov    %rdx,(%rax)
    9c97:	48 8b 10             	mov    (%rax),%rdx
    9c9a:	48 8b 85 20 e7 ff ff 	mov    -0x18e0(%rbp),%rax
    9ca1:	48 89 10             	mov    %rdx,(%rax)
    9ca4:	48 c7 85 30 e7 ff ff 	movq   $0x2bb2056,-0x18d0(%rbp)
    9cab:	56 20 bb 02 
    9caf:	48 83 bd 28 e7 ff ff 	cmpq   $0x0,-0x18d8(%rbp)
    9cb6:	00 
    9cb7:	48 8b 85 40 e7 ff ff 	mov    -0x18c0(%rbp),%rax
    9cbe:	41 89 c4             	mov    %eax,%r12d
    9cc1:	48 8b 05 30 f9 00 00 	mov    0xf930(%rip),%rax        # 195f8 <g_950>
    9cc8:	0f b7 00             	movzwl (%rax),%eax
    9ccb:	0f b7 d8             	movzwl %ax,%ebx
    9cce:	8b 85 58 e5 ff ff    	mov    -0x1aa8(%rbp),%eax
    9cd4:	89 c6                	mov    %eax,%esi
    9cd6:	bf 01 00 00 00       	mov    $0x1,%edi
    9cdb:	e8 01 c8 ff ff       	callq  64e1 <safe_lshift_func_int16_t_s_u>
    9ce0:	66 85 c0             	test   %ax,%ax
    9ce3:	75 09                	jne    9cee <func_38+0x1857>
    9ce5:	80 bd 5c e5 ff ff 00 	cmpb   $0x0,-0x1aa4(%rbp)
    9cec:	74 07                	je     9cf5 <func_38+0x185e>
    9cee:	b8 01 00 00 00       	mov    $0x1,%eax
    9cf3:	eb 05                	jmp    9cfa <func_38+0x1863>
    9cf5:	b8 00 00 00 00       	mov    $0x0,%eax
    9cfa:	0f b7 c0             	movzwl %ax,%eax
    9cfd:	89 de                	mov    %ebx,%esi
    9cff:	89 c7                	mov    %eax,%edi
    9d01:	e8 19 d0 ff ff       	callq  6d1f <safe_sub_func_uint16_t_u_u>
    9d06:	0f be c0             	movsbl %al,%eax
    9d09:	be ac ff ff ff       	mov    $0xffffffac,%esi
    9d0e:	89 c7                	mov    %eax,%edi
    9d10:	e8 55 c5 ff ff       	callq  626a <safe_div_func_int8_t_s_s>
    9d15:	0f be c0             	movsbl %al,%eax
    9d18:	be 1a fb a5 32       	mov    $0x32a5fb1a,%esi
    9d1d:	89 c7                	mov    %eax,%edi
    9d1f:	e8 e1 c8 ff ff       	callq  6605 <safe_sub_func_int32_t_s_s>
    9d24:	83 f0 3e             	xor    $0x3e,%eax
    9d27:	0f be c0             	movsbl %al,%eax
    9d2a:	be fd ff ff ff       	mov    $0xfffffffd,%esi
    9d2f:	89 c7                	mov    %eax,%edi
    9d31:	e8 dc c4 ff ff       	callq  6212 <safe_mul_func_int8_t_s_s>
    9d36:	66 98                	cbtw   
    9d38:	0f b7 d0             	movzwl %ax,%edx
    9d3b:	66 0f be 85 5c e5 ff 	movsbw -0x1aa4(%rbp),%ax
    9d42:	ff 
    9d43:	0f b7 c0             	movzwl %ax,%eax
    9d46:	89 d6                	mov    %edx,%esi
    9d48:	89 c7                	mov    %eax,%edi
    9d4a:	e8 ee cf ff ff       	callq  6d3d <safe_mul_func_uint16_t_u_u>
    9d4f:	48 8b 95 38 e7 ff ff 	mov    -0x18c8(%rbp),%rdx
    9d56:	0f b7 12             	movzwl (%rdx),%edx
    9d59:	09 c2                	or     %eax,%edx
    9d5b:	48 8b 85 38 e7 ff ff 	mov    -0x18c8(%rbp),%rax
    9d62:	66 89 10             	mov    %dx,(%rax)
    9d65:	48 8b 85 38 e7 ff ff 	mov    -0x18c8(%rbp),%rax
    9d6c:	0f b7 00             	movzwl (%rax),%eax
    9d6f:	0f b7 d0             	movzwl %ax,%edx
    9d72:	0f be 85 5c e5 ff ff 	movsbl -0x1aa4(%rbp),%eax
    9d79:	21 d0                	and    %edx,%eax
    9d7b:	48 98                	cltq   
    9d7d:	48 8b 15 74 f8 00 00 	mov    0xf874(%rip),%rdx        # 195f8 <g_950>
    9d84:	0f b7 12             	movzwl (%rdx),%edx
    9d87:	0f b7 d2             	movzwl %dx,%edx
    9d8a:	23 95 58 e5 ff ff    	and    -0x1aa8(%rbp),%edx
    9d90:	89 d2                	mov    %edx,%edx
    9d92:	48 89 c6             	mov    %rax,%rsi
    9d95:	48 89 d7             	mov    %rdx,%rdi
    9d98:	e8 0b cb ff ff       	callq  68a8 <safe_sub_func_int64_t_s_s>
    9d9d:	48 89 c2             	mov    %rax,%rdx
    9da0:	48 8b 05 99 f0 00 00 	mov    0xf099(%rip),%rax        # 18e40 <g_784>
    9da7:	66 89 10             	mov    %dx,(%rax)
    9daa:	44 89 e6             	mov    %r12d,%esi
    9dad:	bf 00 00 00 00       	mov    $0x0,%edi
    9db2:	e8 19 d1 ff ff       	callq  6ed0 <safe_sub_func_uint32_t_u_u>
    9db7:	83 f8 03             	cmp    $0x3,%eax
    9dba:	0f be 85 5c e5 ff ff 	movsbl -0x1aa4(%rbp),%eax
    9dc1:	39 85 58 e5 ff ff    	cmp    %eax,-0x1aa8(%rbp)
    9dc7:	0f 96 c0             	setbe  %al
    9dca:	0f b6 c0             	movzbl %al,%eax
    9dcd:	89 05 99 d7 00 00    	mov    %eax,0xd799(%rip)        # 1756c <g_736+0xc>
    9dd3:	8b 05 93 d7 00 00    	mov    0xd793(%rip),%eax        # 1756c <g_736+0xc>
    9dd9:	89 05 c9 d5 00 00    	mov    %eax,0xd5c9(%rip)        # 173a8 <g_433>
    9ddf:	eb 01                	jmp    9de2 <func_38+0x194b>
    9de1:	90                   	nop
    9de2:	83 85 8c e5 ff ff 01 	addl   $0x1,-0x1a74(%rbp)
    9de9:	83 bd 8c e5 ff ff 39 	cmpl   $0x39,-0x1a74(%rbp)
    9df0:	0f 87 78 f7 ff ff    	ja     956e <func_38+0x10d7>
    9df6:	e9 5f 11 00 00       	jmpq   af5a <func_38+0x2ac3>
    9dfb:	48 b8 9b e1 10 38 37 	movabs $0xb1693373810e19b,%rax
    9e02:	93 16 0b 
    9e05:	48 89 85 28 e6 ff ff 	mov    %rax,-0x19d8(%rbp)
    9e0c:	c7 85 c0 e7 ff ff ff 	movl   $0xffffffff,-0x1840(%rbp)
    9e13:	ff ff ff 
    9e16:	c7 85 c4 e7 ff ff ff 	movl   $0xffffffff,-0x183c(%rbp)
    9e1d:	ff ff ff 
    9e20:	c7 85 c8 e7 ff ff ff 	movl   $0xffffffff,-0x1838(%rbp)
    9e27:	ff ff ff 
    9e2a:	c7 85 cc e7 ff ff 01 	movl   $0x1,-0x1834(%rbp)
    9e31:	00 00 00 
    9e34:	c7 85 d0 e7 ff ff 01 	movl   $0x1,-0x1830(%rbp)
    9e3b:	00 00 00 
    9e3e:	c7 85 d4 e7 ff ff 01 	movl   $0x1,-0x182c(%rbp)
    9e45:	00 00 00 
    9e48:	c7 85 d8 e7 ff ff ff 	movl   $0xffffffff,-0x1828(%rbp)
    9e4f:	ff ff ff 
    9e52:	c7 85 dc e7 ff ff ff 	movl   $0xffffffff,-0x1824(%rbp)
    9e59:	ff ff ff 
    9e5c:	c7 85 e0 e7 ff ff ff 	movl   $0xffffffff,-0x1820(%rbp)
    9e63:	ff ff ff 
    9e66:	c7 85 e4 e7 ff ff 01 	movl   $0x1,-0x181c(%rbp)
    9e6d:	00 00 00 
    9e70:	c7 85 e8 e7 ff ff 01 	movl   $0x1,-0x1818(%rbp)
    9e77:	00 00 00 
    9e7a:	c7 85 ec e7 ff ff 01 	movl   $0x1,-0x1814(%rbp)
    9e81:	00 00 00 
    9e84:	c7 85 f0 e7 ff ff ff 	movl   $0xffffffff,-0x1810(%rbp)
    9e8b:	ff ff ff 
    9e8e:	c7 85 f4 e7 ff ff ff 	movl   $0xffffffff,-0x180c(%rbp)
    9e95:	ff ff ff 
    9e98:	c7 85 f8 e7 ff ff ff 	movl   $0xffffffff,-0x1808(%rbp)
    9e9f:	ff ff ff 
    9ea2:	c7 85 fc e7 ff ff 01 	movl   $0x1,-0x1804(%rbp)
    9ea9:	00 00 00 
    9eac:	c7 85 00 e8 ff ff 01 	movl   $0x1,-0x1800(%rbp)
    9eb3:	00 00 00 
    9eb6:	c7 85 04 e8 ff ff 01 	movl   $0x1,-0x17fc(%rbp)
    9ebd:	00 00 00 
    9ec0:	c7 85 08 e8 ff ff ff 	movl   $0xffffffff,-0x17f8(%rbp)
    9ec7:	ff ff ff 
    9eca:	c7 85 0c e8 ff ff ff 	movl   $0xffffffff,-0x17f4(%rbp)
    9ed1:	ff ff ff 
    9ed4:	c7 85 10 e8 ff ff ff 	movl   $0xffffffff,-0x17f0(%rbp)
    9edb:	ff ff ff 
    9ede:	c7 85 80 e8 ff ff 01 	movl   $0x1,-0x1780(%rbp)
    9ee5:	00 00 00 
    9ee8:	c7 85 84 e8 ff ff 00 	movl   $0x0,-0x177c(%rbp)
    9eef:	00 00 00 
    9ef2:	c7 85 88 e8 ff ff 81 	movl   $0xe67a4a81,-0x1778(%rbp)
    9ef9:	4a 7a e6 
    9efc:	c7 85 8c e8 ff ff 00 	movl   $0x0,-0x1774(%rbp)
    9f03:	00 00 00 
    9f06:	c7 85 90 e8 ff ff 01 	movl   $0x1,-0x1770(%rbp)
    9f0d:	00 00 00 
    9f10:	c7 85 94 e8 ff ff 00 	movl   $0x0,-0x176c(%rbp)
    9f17:	00 00 00 
    9f1a:	c7 85 98 e8 ff ff 81 	movl   $0xe67a4a81,-0x1768(%rbp)
    9f21:	4a 7a e6 
    9f24:	c7 85 9c e8 ff ff 00 	movl   $0x0,-0x1764(%rbp)
    9f2b:	00 00 00 
    9f2e:	c7 85 a0 e8 ff ff 01 	movl   $0x1,-0x1760(%rbp)
    9f35:	00 00 00 
    9f38:	c7 85 a4 e8 ff ff 00 	movl   $0x0,-0x175c(%rbp)
    9f3f:	00 00 00 
    9f42:	c7 85 a8 e8 ff ff 81 	movl   $0xe67a4a81,-0x1758(%rbp)
    9f49:	4a 7a e6 
    9f4c:	c7 85 ac e8 ff ff 00 	movl   $0x0,-0x1754(%rbp)
    9f53:	00 00 00 
    9f56:	c7 85 b0 e8 ff ff 01 	movl   $0x1,-0x1750(%rbp)
    9f5d:	00 00 00 
    9f60:	c7 85 b4 e8 ff ff 00 	movl   $0x0,-0x174c(%rbp)
    9f67:	00 00 00 
    9f6a:	c7 85 b8 e8 ff ff 81 	movl   $0xe67a4a81,-0x1748(%rbp)
    9f71:	4a 7a e6 
    9f74:	c7 85 bc e8 ff ff 00 	movl   $0x0,-0x1744(%rbp)
    9f7b:	00 00 00 
    9f7e:	c7 85 c0 e8 ff ff 01 	movl   $0x1,-0x1740(%rbp)
    9f85:	00 00 00 
    9f88:	c7 85 c4 e8 ff ff 00 	movl   $0x0,-0x173c(%rbp)
    9f8f:	00 00 00 
    9f92:	c7 85 c8 e8 ff ff 81 	movl   $0xe67a4a81,-0x1738(%rbp)
    9f99:	4a 7a e6 
    9f9c:	c7 85 cc e8 ff ff 00 	movl   $0x0,-0x1734(%rbp)
    9fa3:	00 00 00 
    9fa6:	c7 85 d0 e8 ff ff 01 	movl   $0x1,-0x1730(%rbp)
    9fad:	00 00 00 
    9fb0:	c7 85 d4 e8 ff ff 00 	movl   $0x0,-0x172c(%rbp)
    9fb7:	00 00 00 
    9fba:	c7 85 d8 e8 ff ff 81 	movl   $0xe67a4a81,-0x1728(%rbp)
    9fc1:	4a 7a e6 
    9fc4:	c7 85 dc e8 ff ff 00 	movl   $0x0,-0x1724(%rbp)
    9fcb:	00 00 00 
    9fce:	c7 85 e0 e8 ff ff 01 	movl   $0x1,-0x1720(%rbp)
    9fd5:	00 00 00 
    9fd8:	c7 85 e4 e8 ff ff 00 	movl   $0x0,-0x171c(%rbp)
    9fdf:	00 00 00 
    9fe2:	c7 85 e8 e8 ff ff 81 	movl   $0xe67a4a81,-0x1718(%rbp)
    9fe9:	4a 7a e6 
    9fec:	c7 85 ec e8 ff ff 00 	movl   $0x0,-0x1714(%rbp)
    9ff3:	00 00 00 
    9ff6:	c7 85 f0 e8 ff ff 01 	movl   $0x1,-0x1710(%rbp)
    9ffd:	00 00 00 
    a000:	c7 85 f4 e8 ff ff 00 	movl   $0x0,-0x170c(%rbp)
    a007:	00 00 00 
    a00a:	c7 85 f8 e8 ff ff 81 	movl   $0xe67a4a81,-0x1708(%rbp)
    a011:	4a 7a e6 
    a014:	c7 85 fc e8 ff ff 00 	movl   $0x0,-0x1704(%rbp)
    a01b:	00 00 00 
    a01e:	c7 85 00 e9 ff ff 01 	movl   $0x1,-0x1700(%rbp)
    a025:	00 00 00 
    a028:	c7 85 04 e9 ff ff 00 	movl   $0x0,-0x16fc(%rbp)
    a02f:	00 00 00 
    a032:	c7 85 08 e9 ff ff 81 	movl   $0xe67a4a81,-0x16f8(%rbp)
    a039:	4a 7a e6 
    a03c:	c7 85 0c e9 ff ff 00 	movl   $0x0,-0x16f4(%rbp)
    a043:	00 00 00 
    a046:	c7 85 10 e9 ff ff 01 	movl   $0x1,-0x16f0(%rbp)
    a04d:	00 00 00 
    a050:	c7 85 14 e9 ff ff 00 	movl   $0x0,-0x16ec(%rbp)
    a057:	00 00 00 
    a05a:	c7 85 18 e9 ff ff 81 	movl   $0xe67a4a81,-0x16e8(%rbp)
    a061:	4a 7a e6 
    a064:	c7 85 1c e9 ff ff 00 	movl   $0x0,-0x16e4(%rbp)
    a06b:	00 00 00 
    a06e:	48 8d 05 c4 d0 00 00 	lea    0xd0c4(%rip),%rax        # 17139 <g_114+0x19>
    a075:	48 89 85 e0 e5 ff ff 	mov    %rax,-0x1a20(%rbp)
    a07c:	48 8d 85 e0 e5 ff ff 	lea    -0x1a20(%rbp),%rax
    a083:	48 89 85 30 e6 ff ff 	mov    %rax,-0x19d0(%rbp)
    a08a:	48 c7 85 38 e6 ff ff 	movq   $0x0,-0x19c8(%rbp)
    a091:	00 00 00 00 
    a095:	c7 85 a4 e5 ff ff 02 	movl   $0x2,-0x1a5c(%rbp)
    a09c:	00 00 00 
    a09f:	48 c7 85 40 e6 ff ff 	movq   $0x0,-0x19c0(%rbp)
    a0a6:	00 00 00 00 
    a0aa:	48 c7 85 e8 e5 ff ff 	movq   $0x0,-0x1a18(%rbp)
    a0b1:	00 00 00 00 
    a0b5:	48 8d 05 0c d3 00 00 	lea    0xd30c(%rip),%rax        # 173c8 <g_499>
    a0bc:	48 89 85 f0 e5 ff ff 	mov    %rax,-0x1a10(%rbp)
    a0c3:	48 8d 85 f0 e5 ff ff 	lea    -0x1a10(%rbp),%rax
    a0ca:	48 89 85 f8 e5 ff ff 	mov    %rax,-0x1a08(%rbp)
    a0d1:	48 8d 85 f8 e5 ff ff 	lea    -0x1a08(%rbp),%rax
    a0d8:	48 89 85 90 e7 ff ff 	mov    %rax,-0x1870(%rbp)
    a0df:	48 8d 85 f8 e5 ff ff 	lea    -0x1a08(%rbp),%rax
    a0e6:	48 89 85 98 e7 ff ff 	mov    %rax,-0x1868(%rbp)
    a0ed:	48 8d 85 f8 e5 ff ff 	lea    -0x1a08(%rbp),%rax
    a0f4:	48 89 85 a0 e7 ff ff 	mov    %rax,-0x1860(%rbp)
    a0fb:	48 8d 85 f8 e5 ff ff 	lea    -0x1a08(%rbp),%rax
    a102:	48 89 85 a8 e7 ff ff 	mov    %rax,-0x1858(%rbp)
    a109:	48 8d 85 f8 e5 ff ff 	lea    -0x1a08(%rbp),%rax
    a110:	48 89 85 b0 e7 ff ff 	mov    %rax,-0x1850(%rbp)
    a117:	8b 9d 58 e5 ff ff    	mov    -0x1aa8(%rbp),%ebx
    a11d:	8b 85 58 e5 ff ff    	mov    -0x1aa8(%rbp),%eax
    a123:	44 0f b7 e0          	movzwl %ax,%r12d
    a127:	4c 0f be ad 5c e5 ff 	movsbq -0x1aa4(%rbp),%r13
    a12e:	ff 
    a12f:	44 0f be b5 5c e5 ff 	movsbl -0x1aa4(%rbp),%r14d
    a136:	ff 
    a137:	0f be 95 6d e5 ff ff 	movsbl -0x1a93(%rbp),%edx
    a13e:	80 bd 5c e5 ff ff 01 	cmpb   $0x1,-0x1aa4(%rbp)
    a145:	0f 94 c0             	sete   %al
    a148:	0f b6 c0             	movzbl %al,%eax
    a14b:	89 d6                	mov    %edx,%esi
    a14d:	89 c7                	mov    %eax,%edi
    a14f:	e8 3e c3 ff ff       	callq  6492 <safe_lshift_func_int16_t_s_s>
    a154:	98                   	cwtl   
    a155:	44 89 f6             	mov    %r14d,%esi
    a158:	89 c7                	mov    %eax,%edi
    a15a:	e8 96 c2 ff ff       	callq  63f5 <safe_mul_func_int16_t_s_s>
    a15f:	48 0f bf c0          	movswq %ax,%rax
    a163:	4c 89 ee             	mov    %r13,%rsi
    a166:	48 89 c7             	mov    %rax,%rdi
    a169:	e8 46 c8 ff ff       	callq  69b4 <safe_mod_func_int64_t_s_s>
    a16e:	8b 85 58 e5 ff ff    	mov    -0x1aa8(%rbp),%eax
    a174:	48 39 85 28 e6 ff ff 	cmp    %rax,-0x19d8(%rbp)
    a17b:	0f 9f c0             	setg   %al
    a17e:	0f b6 c0             	movzbl %al,%eax
    a181:	48 39 85 28 e6 ff ff 	cmp    %rax,-0x19d8(%rbp)
    a188:	0f 9d c0             	setge  %al
    a18b:	0f b6 d0             	movzbl %al,%edx
    a18e:	48 8b 05 63 f4 00 00 	mov    0xf463(%rip),%rax        # 195f8 <g_950>
    a195:	0f b7 00             	movzwl (%rax),%eax
    a198:	89 c1                	mov    %eax,%ecx
    a19a:	89 d0                	mov    %edx,%eax
    a19c:	21 c1                	and    %eax,%ecx
    a19e:	89 ca                	mov    %ecx,%edx
    a1a0:	48 8b 05 51 f4 00 00 	mov    0xf451(%rip),%rax        # 195f8 <g_950>
    a1a7:	66 89 10             	mov    %dx,(%rax)
    a1aa:	0f b7 00             	movzwl (%rax),%eax
    a1ad:	0f b7 c0             	movzwl %ax,%eax
    a1b0:	44 89 e6             	mov    %r12d,%esi
    a1b3:	89 c7                	mov    %eax,%edi
    a1b5:	e8 83 cb ff ff       	callq  6d3d <safe_mul_func_uint16_t_u_u>
    a1ba:	0f b7 c0             	movzwl %ax,%eax
    a1bd:	89 de                	mov    %ebx,%esi
    a1bf:	89 c7                	mov    %eax,%edi
    a1c1:	e8 f0 c3 ff ff       	callq  65b6 <safe_add_func_int32_t_s_s>
    a1c6:	0f be c0             	movsbl %al,%eax
    a1c9:	be 03 00 00 00       	mov    $0x3,%esi
    a1ce:	89 c7                	mov    %eax,%edi
    a1d0:	e8 cc c0 ff ff       	callq  62a1 <safe_lshift_func_int8_t_s_s>
    a1d5:	8b 15 91 d3 00 00    	mov    0xd391(%rip),%edx        # 1756c <g_736+0xc>
    a1db:	0f be c0             	movsbl %al,%eax
    a1de:	09 d0                	or     %edx,%eax
    a1e0:	89 05 86 d3 00 00    	mov    %eax,0xd386(%rip)        # 1756c <g_736+0xc>
    a1e6:	8b 05 80 d3 00 00    	mov    0xd380(%rip),%eax        # 1756c <g_736+0xc>
    a1ec:	85 c0                	test   %eax,%eax
    a1ee:	0f 84 22 0b 00 00    	je     ad16 <func_38+0x287f>
    a1f4:	c7 85 94 e5 ff ff ff 	movl   $0xffffffff,-0x1a6c(%rbp)
    a1fb:	ff ff ff 
    a1fe:	c7 85 ac e5 ff ff ff 	movl   $0xffffffff,-0x1a54(%rbp)
    a205:	ff ff ff 
    a208:	48 8d 05 d1 d1 00 00 	lea    0xd1d1(%rip),%rax        # 173e0 <g_638>
    a20f:	48 89 85 68 e6 ff ff 	mov    %rax,-0x1998(%rbp)
    a216:	48 c7 85 70 e6 ff ff 	movq   $0x0,-0x1990(%rbp)
    a21d:	00 00 00 00 
    a221:	48 c7 85 c0 ee ff ff 	movq   $0x0,-0x1140(%rbp)
    a228:	00 00 00 00 
    a22c:	48 8d 85 80 e7 ff ff 	lea    -0x1880(%rbp),%rax
    a233:	48 83 c0 08          	add    $0x8,%rax
    a237:	48 89 85 c8 ee ff ff 	mov    %rax,-0x1138(%rbp)
    a23e:	48 8d 85 80 e7 ff ff 	lea    -0x1880(%rbp),%rax
    a245:	48 83 c0 08          	add    $0x8,%rax
    a249:	48 89 85 d0 ee ff ff 	mov    %rax,-0x1130(%rbp)
    a250:	48 c7 85 d8 ee ff ff 	movq   $0x0,-0x1128(%rbp)
    a257:	00 00 00 00 
    a25b:	48 8d 85 80 e7 ff ff 	lea    -0x1880(%rbp),%rax
    a262:	48 83 c0 08          	add    $0x8,%rax
    a266:	48 89 85 e0 ee ff ff 	mov    %rax,-0x1120(%rbp)
    a26d:	48 c7 85 e8 ee ff ff 	movq   $0x0,-0x1118(%rbp)
    a274:	00 00 00 00 
    a278:	48 c7 85 f0 ee ff ff 	movq   $0x0,-0x1110(%rbp)
    a27f:	00 00 00 00 
    a283:	48 8d 85 80 e7 ff ff 	lea    -0x1880(%rbp),%rax
    a28a:	48 83 c0 08          	add    $0x8,%rax
    a28e:	48 89 85 f8 ee ff ff 	mov    %rax,-0x1108(%rbp)
    a295:	48 c7 85 00 ef ff ff 	movq   $0x0,-0x1100(%rbp)
    a29c:	00 00 00 00 
    a2a0:	48 c7 85 08 ef ff ff 	movq   $0x0,-0x10f8(%rbp)
    a2a7:	00 00 00 00 
    a2ab:	48 8d 85 80 e7 ff ff 	lea    -0x1880(%rbp),%rax
    a2b2:	48 89 85 10 ef ff ff 	mov    %rax,-0x10f0(%rbp)
    a2b9:	48 8d 85 80 e7 ff ff 	lea    -0x1880(%rbp),%rax
    a2c0:	48 83 c0 08          	add    $0x8,%rax
    a2c4:	48 89 85 18 ef ff ff 	mov    %rax,-0x10e8(%rbp)
    a2cb:	48 8d 85 80 e7 ff ff 	lea    -0x1880(%rbp),%rax
    a2d2:	48 83 c0 08          	add    $0x8,%rax
    a2d6:	48 89 85 20 ef ff ff 	mov    %rax,-0x10e0(%rbp)
    a2dd:	48 8d 85 80 e7 ff ff 	lea    -0x1880(%rbp),%rax
    a2e4:	48 83 c0 08          	add    $0x8,%rax
    a2e8:	48 89 85 28 ef ff ff 	mov    %rax,-0x10d8(%rbp)
    a2ef:	48 8d 85 80 e7 ff ff 	lea    -0x1880(%rbp),%rax
    a2f6:	48 89 85 30 ef ff ff 	mov    %rax,-0x10d0(%rbp)
    a2fd:	48 8d 85 80 e7 ff ff 	lea    -0x1880(%rbp),%rax
    a304:	48 83 c0 08          	add    $0x8,%rax
    a308:	48 89 85 38 ef ff ff 	mov    %rax,-0x10c8(%rbp)
    a30f:	48 8d 85 80 e7 ff ff 	lea    -0x1880(%rbp),%rax
    a316:	48 83 c0 08          	add    $0x8,%rax
    a31a:	48 89 85 40 ef ff ff 	mov    %rax,-0x10c0(%rbp)
    a321:	48 c7 85 48 ef ff ff 	movq   $0x0,-0x10b8(%rbp)
    a328:	00 00 00 00 
    a32c:	48 c7 85 50 ef ff ff 	movq   $0x0,-0x10b0(%rbp)
    a333:	00 00 00 00 
    a337:	48 8d 85 80 e7 ff ff 	lea    -0x1880(%rbp),%rax
    a33e:	48 83 c0 08          	add    $0x8,%rax
    a342:	48 89 85 58 ef ff ff 	mov    %rax,-0x10a8(%rbp)
    a349:	48 8d 85 80 e7 ff ff 	lea    -0x1880(%rbp),%rax
    a350:	48 83 c0 08          	add    $0x8,%rax
    a354:	48 89 85 60 ef ff ff 	mov    %rax,-0x10a0(%rbp)
    a35b:	48 8d 85 80 e7 ff ff 	lea    -0x1880(%rbp),%rax
    a362:	48 83 c0 08          	add    $0x8,%rax
    a366:	48 89 85 68 ef ff ff 	mov    %rax,-0x1098(%rbp)
    a36d:	48 c7 85 70 ef ff ff 	movq   $0x0,-0x1090(%rbp)
    a374:	00 00 00 00 
    a378:	48 c7 85 78 ef ff ff 	movq   $0x0,-0x1088(%rbp)
    a37f:	00 00 00 00 
    a383:	48 8d 85 80 e7 ff ff 	lea    -0x1880(%rbp),%rax
    a38a:	48 83 c0 08          	add    $0x8,%rax
    a38e:	48 89 85 80 ef ff ff 	mov    %rax,-0x1080(%rbp)
    a395:	48 8d 85 80 e7 ff ff 	lea    -0x1880(%rbp),%rax
    a39c:	48 83 c0 08          	add    $0x8,%rax
    a3a0:	48 89 85 88 ef ff ff 	mov    %rax,-0x1078(%rbp)
    a3a7:	48 8d 85 80 e7 ff ff 	lea    -0x1880(%rbp),%rax
    a3ae:	48 83 c0 08          	add    $0x8,%rax
    a3b2:	48 89 85 90 ef ff ff 	mov    %rax,-0x1070(%rbp)
    a3b9:	48 8d 85 80 e7 ff ff 	lea    -0x1880(%rbp),%rax
    a3c0:	48 83 c0 08          	add    $0x8,%rax
    a3c4:	48 89 85 98 ef ff ff 	mov    %rax,-0x1068(%rbp)
    a3cb:	48 8d 85 80 e7 ff ff 	lea    -0x1880(%rbp),%rax
    a3d2:	48 89 85 a0 ef ff ff 	mov    %rax,-0x1060(%rbp)
    a3d9:	48 8d 85 80 e7 ff ff 	lea    -0x1880(%rbp),%rax
    a3e0:	48 83 c0 08          	add    $0x8,%rax
    a3e4:	48 89 85 a8 ef ff ff 	mov    %rax,-0x1058(%rbp)
    a3eb:	48 8d 85 80 e7 ff ff 	lea    -0x1880(%rbp),%rax
    a3f2:	48 83 c0 08          	add    $0x8,%rax
    a3f6:	48 89 85 b0 ef ff ff 	mov    %rax,-0x1050(%rbp)
    a3fd:	48 c7 85 b8 ef ff ff 	movq   $0x0,-0x1048(%rbp)
    a404:	00 00 00 00 
    a408:	48 8d 85 80 e7 ff ff 	lea    -0x1880(%rbp),%rax
    a40f:	48 89 85 c0 ef ff ff 	mov    %rax,-0x1040(%rbp)
    a416:	48 c7 85 c8 ef ff ff 	movq   $0x0,-0x1038(%rbp)
    a41d:	00 00 00 00 
    a421:	48 8d 85 80 e7 ff ff 	lea    -0x1880(%rbp),%rax
    a428:	48 89 85 d0 ef ff ff 	mov    %rax,-0x1030(%rbp)
    a42f:	48 c7 85 d8 ef ff ff 	movq   $0x0,-0x1028(%rbp)
    a436:	00 00 00 00 
    a43a:	48 8d 85 80 e7 ff ff 	lea    -0x1880(%rbp),%rax
    a441:	48 83 c0 08          	add    $0x8,%rax
    a445:	48 89 85 e0 ef ff ff 	mov    %rax,-0x1020(%rbp)
    a44c:	48 8d 85 80 e7 ff ff 	lea    -0x1880(%rbp),%rax
    a453:	48 83 c0 08          	add    $0x8,%rax
    a457:	48 89 85 e8 ef ff ff 	mov    %rax,-0x1018(%rbp)
    a45e:	48 c7 85 f0 ef ff ff 	movq   $0x0,-0x1010(%rbp)
    a465:	00 00 00 00 
    a469:	48 c7 85 f8 ef ff ff 	movq   $0x0,-0x1008(%rbp)
    a470:	00 00 00 00 
    a474:	48 8d 85 80 e7 ff ff 	lea    -0x1880(%rbp),%rax
    a47b:	48 83 c0 08          	add    $0x8,%rax
    a47f:	48 89 85 00 f0 ff ff 	mov    %rax,-0x1000(%rbp)
    a486:	48 c7 85 08 f0 ff ff 	movq   $0x0,-0xff8(%rbp)
    a48d:	00 00 00 00 
    a491:	48 8d 85 80 e7 ff ff 	lea    -0x1880(%rbp),%rax
    a498:	48 83 c0 08          	add    $0x8,%rax
    a49c:	48 89 85 10 f0 ff ff 	mov    %rax,-0xff0(%rbp)
    a4a3:	48 8d 85 80 e7 ff ff 	lea    -0x1880(%rbp),%rax
    a4aa:	48 83 c0 08          	add    $0x8,%rax
    a4ae:	48 89 85 18 f0 ff ff 	mov    %rax,-0xfe8(%rbp)
    a4b5:	48 8d 85 80 e7 ff ff 	lea    -0x1880(%rbp),%rax
    a4bc:	48 83 c0 08          	add    $0x8,%rax
    a4c0:	48 89 85 20 f0 ff ff 	mov    %rax,-0xfe0(%rbp)
    a4c7:	48 8d 85 80 e7 ff ff 	lea    -0x1880(%rbp),%rax
    a4ce:	48 83 c0 08          	add    $0x8,%rax
    a4d2:	48 89 85 28 f0 ff ff 	mov    %rax,-0xfd8(%rbp)
    a4d9:	48 c7 85 30 f0 ff ff 	movq   $0x0,-0xfd0(%rbp)
    a4e0:	00 00 00 00 
    a4e4:	48 8d 85 80 e7 ff ff 	lea    -0x1880(%rbp),%rax
    a4eb:	48 83 c0 08          	add    $0x8,%rax
    a4ef:	48 89 85 38 f0 ff ff 	mov    %rax,-0xfc8(%rbp)
    a4f6:	48 8d 85 80 e7 ff ff 	lea    -0x1880(%rbp),%rax
    a4fd:	48 83 c0 08          	add    $0x8,%rax
    a501:	48 89 85 40 f0 ff ff 	mov    %rax,-0xfc0(%rbp)
    a508:	48 8d 85 80 e7 ff ff 	lea    -0x1880(%rbp),%rax
    a50f:	48 83 c0 08          	add    $0x8,%rax
    a513:	48 89 85 48 f0 ff ff 	mov    %rax,-0xfb8(%rbp)
    a51a:	48 8d 85 80 e7 ff ff 	lea    -0x1880(%rbp),%rax
    a521:	48 83 c0 08          	add    $0x8,%rax
    a525:	48 89 85 50 f0 ff ff 	mov    %rax,-0xfb0(%rbp)
    a52c:	48 c7 85 58 f0 ff ff 	movq   $0x0,-0xfa8(%rbp)
    a533:	00 00 00 00 
    a537:	48 8d 85 80 e7 ff ff 	lea    -0x1880(%rbp),%rax
    a53e:	48 83 c0 08          	add    $0x8,%rax
    a542:	48 89 85 60 f0 ff ff 	mov    %rax,-0xfa0(%rbp)
    a549:	48 8d 85 80 e7 ff ff 	lea    -0x1880(%rbp),%rax
    a550:	48 83 c0 08          	add    $0x8,%rax
    a554:	48 89 85 68 f0 ff ff 	mov    %rax,-0xf98(%rbp)
    a55b:	48 8d 85 80 e7 ff ff 	lea    -0x1880(%rbp),%rax
    a562:	48 83 c0 08          	add    $0x8,%rax
    a566:	48 89 85 70 f0 ff ff 	mov    %rax,-0xf90(%rbp)
    a56d:	48 8d 85 80 e7 ff ff 	lea    -0x1880(%rbp),%rax
    a574:	48 83 c0 08          	add    $0x8,%rax
    a578:	48 89 85 78 f0 ff ff 	mov    %rax,-0xf88(%rbp)
    a57f:	48 8d 85 80 e7 ff ff 	lea    -0x1880(%rbp),%rax
    a586:	48 83 c0 08          	add    $0x8,%rax
    a58a:	48 89 85 80 f0 ff ff 	mov    %rax,-0xf80(%rbp)
    a591:	48 c7 85 88 f0 ff ff 	movq   $0x0,-0xf78(%rbp)
    a598:	00 00 00 00 
    a59c:	48 8d 85 80 e7 ff ff 	lea    -0x1880(%rbp),%rax
    a5a3:	48 83 c0 08          	add    $0x8,%rax
    a5a7:	48 89 85 90 f0 ff ff 	mov    %rax,-0xf70(%rbp)
    a5ae:	48 8d 85 80 e7 ff ff 	lea    -0x1880(%rbp),%rax
    a5b5:	48 83 c0 08          	add    $0x8,%rax
    a5b9:	48 89 85 98 f0 ff ff 	mov    %rax,-0xf68(%rbp)
    a5c0:	48 8d 85 80 e7 ff ff 	lea    -0x1880(%rbp),%rax
    a5c7:	48 89 85 a0 f0 ff ff 	mov    %rax,-0xf60(%rbp)
    a5ce:	48 c7 85 a8 f0 ff ff 	movq   $0x0,-0xf58(%rbp)
    a5d5:	00 00 00 00 
    a5d9:	48 c7 85 b0 f0 ff ff 	movq   $0x0,-0xf50(%rbp)
    a5e0:	00 00 00 00 
    a5e4:	48 c7 85 b8 f0 ff ff 	movq   $0x0,-0xf48(%rbp)
    a5eb:	00 00 00 00 
    a5ef:	48 8d 85 80 e7 ff ff 	lea    -0x1880(%rbp),%rax
    a5f6:	48 89 85 c0 f0 ff ff 	mov    %rax,-0xf40(%rbp)
    a5fd:	48 8d 85 80 e7 ff ff 	lea    -0x1880(%rbp),%rax
    a604:	48 89 85 c8 f0 ff ff 	mov    %rax,-0xf38(%rbp)
    a60b:	48 c7 85 d0 f0 ff ff 	movq   $0x0,-0xf30(%rbp)
    a612:	00 00 00 00 
    a616:	48 c7 85 d8 f0 ff ff 	movq   $0x0,-0xf28(%rbp)
    a61d:	00 00 00 00 
    a621:	48 8d 85 80 e7 ff ff 	lea    -0x1880(%rbp),%rax
    a628:	48 83 c0 08          	add    $0x8,%rax
    a62c:	48 89 85 e0 f0 ff ff 	mov    %rax,-0xf20(%rbp)
    a633:	48 8d 85 80 e7 ff ff 	lea    -0x1880(%rbp),%rax
    a63a:	48 83 c0 08          	add    $0x8,%rax
    a63e:	48 89 85 e8 f0 ff ff 	mov    %rax,-0xf18(%rbp)
    a645:	48 8d 85 80 e7 ff ff 	lea    -0x1880(%rbp),%rax
    a64c:	48 83 c0 08          	add    $0x8,%rax
    a650:	48 89 85 f0 f0 ff ff 	mov    %rax,-0xf10(%rbp)
    a657:	48 c7 85 f8 f0 ff ff 	movq   $0x0,-0xf08(%rbp)
    a65e:	00 00 00 00 
    a662:	48 8d 85 80 e7 ff ff 	lea    -0x1880(%rbp),%rax
    a669:	48 83 c0 08          	add    $0x8,%rax
    a66d:	48 89 85 00 f1 ff ff 	mov    %rax,-0xf00(%rbp)
    a674:	48 c7 85 08 f1 ff ff 	movq   $0x0,-0xef8(%rbp)
    a67b:	00 00 00 00 
    a67f:	48 c7 85 10 f1 ff ff 	movq   $0x0,-0xef0(%rbp)
    a686:	00 00 00 00 
    a68a:	48 8d 85 80 e7 ff ff 	lea    -0x1880(%rbp),%rax
    a691:	48 83 c0 08          	add    $0x8,%rax
    a695:	48 89 85 18 f1 ff ff 	mov    %rax,-0xee8(%rbp)
    a69c:	48 c7 85 20 f1 ff ff 	movq   $0x0,-0xee0(%rbp)
    a6a3:	00 00 00 00 
    a6a7:	48 c7 85 28 f1 ff ff 	movq   $0x0,-0xed8(%rbp)
    a6ae:	00 00 00 00 
    a6b2:	48 8d 85 80 e7 ff ff 	lea    -0x1880(%rbp),%rax
    a6b9:	48 83 c0 08          	add    $0x8,%rax
    a6bd:	48 89 85 30 f1 ff ff 	mov    %rax,-0xed0(%rbp)
    a6c4:	48 c7 85 38 f1 ff ff 	movq   $0x0,-0xec8(%rbp)
    a6cb:	00 00 00 00 
    a6cf:	48 8d 85 80 e7 ff ff 	lea    -0x1880(%rbp),%rax
    a6d6:	48 83 c0 08          	add    $0x8,%rax
    a6da:	48 89 85 40 f1 ff ff 	mov    %rax,-0xec0(%rbp)
    a6e1:	48 c7 85 48 f1 ff ff 	movq   $0x0,-0xeb8(%rbp)
    a6e8:	00 00 00 00 
    a6ec:	48 8d 85 80 e7 ff ff 	lea    -0x1880(%rbp),%rax
    a6f3:	48 83 c0 08          	add    $0x8,%rax
    a6f7:	48 89 85 50 f1 ff ff 	mov    %rax,-0xeb0(%rbp)
    a6fe:	48 c7 85 58 f1 ff ff 	movq   $0x0,-0xea8(%rbp)
    a705:	00 00 00 00 
    a709:	48 c7 85 60 f1 ff ff 	movq   $0x0,-0xea0(%rbp)
    a710:	00 00 00 00 
    a714:	48 8d 85 80 e7 ff ff 	lea    -0x1880(%rbp),%rax
    a71b:	48 83 c0 08          	add    $0x8,%rax
    a71f:	48 89 85 68 f1 ff ff 	mov    %rax,-0xe98(%rbp)
    a726:	48 8d 85 80 e7 ff ff 	lea    -0x1880(%rbp),%rax
    a72d:	48 83 c0 08          	add    $0x8,%rax
    a731:	48 89 85 70 f1 ff ff 	mov    %rax,-0xe90(%rbp)
    a738:	48 c7 85 78 f1 ff ff 	movq   $0x0,-0xe88(%rbp)
    a73f:	00 00 00 00 
    a743:	48 c7 85 80 f1 ff ff 	movq   $0x0,-0xe80(%rbp)
    a74a:	00 00 00 00 
    a74e:	48 8d 85 80 e7 ff ff 	lea    -0x1880(%rbp),%rax
    a755:	48 83 c0 08          	add    $0x8,%rax
    a759:	48 89 85 88 f1 ff ff 	mov    %rax,-0xe78(%rbp)
    a760:	48 8b 05 e9 c8 00 00 	mov    0xc8e9(%rip),%rax        # 17050 <g_2+0x10>
    a767:	89 c2                	mov    %eax,%edx
    a769:	0f b7 05 00 ca 00 00 	movzwl 0xca00(%rip),%eax        # 17170 <g_115>
    a770:	0f b7 c0             	movzwl %ax,%eax
    a773:	31 d0                	xor    %edx,%eax
    a775:	89 c2                	mov    %eax,%edx
    a777:	0f b7 05 10 ca 00 00 	movzwl 0xca10(%rip),%eax        # 1718e <g_193>
    a77e:	98                   	cwtl   
    a77f:	89 d6                	mov    %edx,%esi
    a781:	89 c7                	mov    %eax,%edi
    a783:	e8 44 bf ff ff       	callq  66cc <safe_mod_func_int32_t_s_s>
    a788:	8b 95 e8 e7 ff ff    	mov    -0x1818(%rbp),%edx
    a78e:	39 d0                	cmp    %edx,%eax
    a790:	0f 85 40 03 00 00    	jne    aad6 <func_38+0x263f>
    a796:	c6 85 6c e5 ff ff 00 	movb   $0x0,-0x1a94(%rbp)
    a79d:	66 c7 05 e8 c9 00 00 	movw   $0x10,0xc9e8(%rip)        # 1718e <g_193>
    a7a4:	10 00 
    a7a6:	e9 0e 03 00 00       	jmpq   aab9 <func_38+0x2622>
    a7ab:	c6 85 60 e7 ff ff 86 	movb   $0x86,-0x18a0(%rbp)
    a7b2:	48 b8 ec 9f f8 c8 d2 	movabs $0x61352ed2c8f89fec,%rax
    a7b9:	2e 35 61 
    a7bc:	48 89 85 68 e7 ff ff 	mov    %rax,-0x1898(%rbp)
    a7c3:	0f b7 85 70 e7 ff ff 	movzwl -0x1890(%rbp),%eax
    a7ca:	66 25 00 f8          	and    $0xf800,%ax
    a7ce:	83 c8 20             	or     $0x20,%eax
    a7d1:	66 89 85 70 e7 ff ff 	mov    %ax,-0x1890(%rbp)
    a7d8:	48 8d 85 60 e7 ff ff 	lea    -0x18a0(%rbp),%rax
    a7df:	48 89 85 88 e6 ff ff 	mov    %rax,-0x1978(%rbp)
    a7e6:	0f b6 85 6c e5 ff ff 	movzbl -0x1a94(%rbp),%eax
    a7ed:	83 e8 01             	sub    $0x1,%eax
    a7f0:	88 85 6c e5 ff ff    	mov    %al,-0x1a94(%rbp)
    a7f6:	8b 9d 94 e5 ff ff    	mov    -0x1a6c(%rbp),%ebx
    a7fc:	83 bd 58 e5 ff ff 00 	cmpl   $0x0,-0x1aa8(%rbp)
    a803:	0f 85 a7 00 00 00    	jne    a8b0 <func_38+0x2419>
    a809:	8b 85 ac e5 ff ff    	mov    -0x1a54(%rbp),%eax
    a80f:	4c 63 e0             	movslq %eax,%r12
    a812:	48 8b 85 28 e6 ff ff 	mov    -0x19d8(%rbp),%rax
    a819:	44 0f b7 e8          	movzwl %ax,%r13d
    a81d:	44 8b b5 58 e5 ff ff 	mov    -0x1aa8(%rbp),%r14d
    a824:	48 8b 85 88 e6 ff ff 	mov    -0x1978(%rbp),%rax
    a82b:	0f b6 00             	movzbl (%rax),%eax
    a82e:	80 bd 6c e5 ff ff 00 	cmpb   $0x0,-0x1a94(%rbp)
    a835:	0f 94 c2             	sete   %dl
    a838:	21 c2                	and    %eax,%edx
    a83a:	48 8b 85 88 e6 ff ff 	mov    -0x1978(%rbp),%rax
    a841:	88 10                	mov    %dl,(%rax)
    a843:	80 bd 6c e5 ff ff 00 	cmpb   $0x0,-0x1a94(%rbp)
    a84a:	74 10                	je     a85c <func_38+0x23c5>
    a84c:	83 bd ac e5 ff ff 00 	cmpl   $0x0,-0x1a54(%rbp)
    a853:	74 07                	je     a85c <func_38+0x23c5>
    a855:	b8 01 00 00 00       	mov    $0x1,%eax
    a85a:	eb 05                	jmp    a861 <func_38+0x23ca>
    a85c:	b8 00 00 00 00       	mov    $0x0,%eax
    a861:	0f b6 c0             	movzbl %al,%eax
    a864:	be 01 00 00 00       	mov    $0x1,%esi
    a869:	89 c7                	mov    %eax,%edi
    a86b:	e8 95 c3 ff ff       	callq  6c05 <safe_lshift_func_uint8_t_u_s>
    a870:	0f b6 c0             	movzbl %al,%eax
    a873:	25 fe 00 00 00       	and    $0xfe,%eax
    a878:	49 39 c6             	cmp    %rax,%r14
    a87b:	0f 97 c0             	seta   %al
    a87e:	0f b6 d0             	movzbl %al,%edx
    a881:	8b 85 ac e5 ff ff    	mov    -0x1a54(%rbp),%eax
    a887:	89 d6                	mov    %edx,%esi
    a889:	89 c7                	mov    %eax,%edi
    a88b:	e8 40 c6 ff ff       	callq  6ed0 <safe_sub_func_uint32_t_u_u>
    a890:	0f b7 c0             	movzwl %ax,%eax
    a893:	44 89 ee             	mov    %r13d,%esi
    a896:	89 c7                	mov    %eax,%edi
    a898:	e8 62 c4 ff ff       	callq  6cff <safe_add_func_uint16_t_u_u>
    a89d:	0f b7 c0             	movzwl %ax,%eax
    a8a0:	4c 89 e6             	mov    %r12,%rsi
    a8a3:	48 89 c7             	mov    %rax,%rdi
    a8a6:	e8 96 bf ff ff       	callq  6841 <safe_add_func_int64_t_s_s>
    a8ab:	48 85 c0             	test   %rax,%rax
    a8ae:	74 07                	je     a8b7 <func_38+0x2420>
    a8b0:	b8 01 00 00 00       	mov    $0x1,%eax
    a8b5:	eb 05                	jmp    a8bc <func_38+0x2425>
    a8b7:	b8 00 00 00 00       	mov    $0x0,%eax
    a8bc:	83 f8 01             	cmp    $0x1,%eax
    a8bf:	0f 94 c0             	sete   %al
    a8c2:	0f b6 c0             	movzbl %al,%eax
    a8c5:	89 de                	mov    %ebx,%esi
    a8c7:	89 c7                	mov    %eax,%edi
    a8c9:	e8 57 c6 ff ff       	callq  6f25 <safe_div_func_uint32_t_u_u>
    a8ce:	83 f8 01             	cmp    $0x1,%eax
    a8d1:	77 23                	ja     a8f6 <func_38+0x245f>
    a8d3:	48 8b 05 ce e4 00 00 	mov    0xe4ce(%rip),%rax        # 18da8 <g_65>
    a8da:	48 8b 95 68 e6 ff ff 	mov    -0x1998(%rbp),%rdx
    a8e1:	48 89 10             	mov    %rdx,(%rax)
    a8e4:	83 bd a0 e5 ff ff 00 	cmpl   $0x0,-0x1a60(%rbp)
    a8eb:	0f 84 27 01 00 00    	je     aa18 <func_38+0x2581>
    a8f1:	e9 d4 01 00 00       	jmpq   aaca <func_38+0x2633>
    a8f6:	48 c7 85 90 e6 ff ff 	movq   $0xfffffffffffffffe,-0x1970(%rbp)
    a8fd:	fe ff ff ff 
    a901:	be 09 00 00 00       	mov    $0x9,%esi
    a906:	bf ff ff ff ff       	mov    $0xffffffff,%edi
    a90b:	e8 1a bc ff ff       	callq  652a <safe_rshift_func_int16_t_s_s>
    a910:	98                   	cwtl   
    a911:	89 85 fc e7 ff ff    	mov    %eax,-0x1804(%rbp)
    a917:	48 8b 95 d0 e5 ff ff 	mov    -0x1a30(%rbp),%rdx
    a91e:	48 8b 02             	mov    (%rdx),%rax
    a921:	48 8d 48 01          	lea    0x1(%rax),%rcx
    a925:	48 89 0a             	mov    %rcx,(%rdx)
    a928:	48 85 c0             	test   %rax,%rax
    a92b:	0f 85 bc 00 00 00    	jne    a9ed <func_38+0x2556>
    a931:	48 8b 05 70 e4 00 00 	mov    0xe470(%rip),%rax        # 18da8 <g_65>
    a938:	48 8d 95 60 e7 ff ff 	lea    -0x18a0(%rbp),%rdx
    a93f:	48 89 10             	mov    %rdx,(%rax)
    a942:	48 8b 10             	mov    (%rax),%rdx
    a945:	48 8d 85 60 e7 ff ff 	lea    -0x18a0(%rbp),%rax
    a94c:	48 39 c2             	cmp    %rax,%rdx
    a94f:	c7 05 c3 c7 00 00 07 	movl   $0x7,0xc7c3(%rip)        # 1711c <g_92>
    a956:	00 00 00 
    a959:	8b 05 bd c7 00 00    	mov    0xc7bd(%rip),%eax        # 1711c <g_92>
    a95f:	f7 d0                	not    %eax
    a961:	89 c1                	mov    %eax,%ecx
    a963:	8b 95 ec e7 ff ff    	mov    -0x1814(%rbp),%edx
    a969:	48 8b 05 a0 e4 00 00 	mov    0xe4a0(%rip),%rax        # 18e10 <g_376>
    a970:	0f b6 00             	movzbl (%rax),%eax
    a973:	0f be c0             	movsbl %al,%eax
    a976:	31 d0                	xor    %edx,%eax
    a978:	89 85 ec e7 ff ff    	mov    %eax,-0x1814(%rbp)
    a97e:	8b 85 ec e7 ff ff    	mov    -0x1814(%rbp),%eax
    a984:	39 c1                	cmp    %eax,%ecx
    a986:	0f 94 c0             	sete   %al
    a989:	0f b6 d8             	movzbl %al,%ebx
    a98c:	48 8b 85 90 e6 ff ff 	mov    -0x1970(%rbp),%rax
    a993:	48 c7 c6 ff ff ff ff 	mov    $0xffffffffffffffff,%rsi
    a99a:	48 89 c7             	mov    %rax,%rdi
    a99d:	e8 de c6 ff ff       	callq  7080 <safe_mod_func_uint64_t_u_u>
    a9a2:	80 bd 5c e5 ff ff 00 	cmpb   $0x0,-0x1aa4(%rbp)
    a9a9:	48 8b 85 88 e6 ff ff 	mov    -0x1978(%rbp),%rax
    a9b0:	0f b6 00             	movzbl (%rax),%eax
    a9b3:	89 da                	mov    %ebx,%edx
    a9b5:	21 c2                	and    %eax,%edx
    a9b7:	48 8b 85 88 e6 ff ff 	mov    -0x1978(%rbp),%rax
    a9be:	88 10                	mov    %dl,(%rax)
    a9c0:	48 8b 85 88 e6 ff ff 	mov    -0x1978(%rbp),%rax
    a9c7:	0f b6 00             	movzbl (%rax),%eax
    a9ca:	0f be c0             	movsbl %al,%eax
    a9cd:	39 85 58 e5 ff ff    	cmp    %eax,-0x1aa8(%rbp)
    a9d3:	0f 96 c0             	setbe  %al
    a9d6:	0f b6 d0             	movzbl %al,%edx
    a9d9:	48 8b 05 60 e4 00 00 	mov    0xe460(%rip),%rax        # 18e40 <g_784>
    a9e0:	0f b7 00             	movzwl (%rax),%eax
    a9e3:	98                   	cwtl   
    a9e4:	89 d6                	mov    %edx,%esi
    a9e6:	89 c7                	mov    %eax,%edi
    a9e8:	e8 c6 b9 ff ff       	callq  63b3 <safe_add_func_int16_t_s_s>
    a9ed:	80 bd 6c e5 ff ff 01 	cmpb   $0x1,-0x1a94(%rbp)
    a9f4:	0f 96 c0             	setbe  %al
    a9f7:	0f b6 c0             	movzbl %al,%eax
    a9fa:	89 85 94 e5 ff ff    	mov    %eax,-0x1a6c(%rbp)
    aa00:	8b 85 94 e5 ff ff    	mov    -0x1a6c(%rbp),%eax
    aa06:	39 85 58 e5 ff ff    	cmp    %eax,-0x1aa8(%rbp)
    aa0c:	0f 97 c0             	seta   %al
    aa0f:	0f b6 c0             	movzbl %al,%eax
    aa12:	89 85 cc e8 ff ff    	mov    %eax,-0x1734(%rbp)
    aa18:	c7 85 7c e5 ff ff fd 	movl   $0xfffffffd,-0x1a84(%rbp)
    aa1f:	ff ff ff 
    aa22:	eb 42                	jmp    aa66 <func_38+0x25cf>
    aa24:	48 8d 05 5d c7 00 00 	lea    0xc75d(%rip),%rax        # 17188 <g_171>
    aa2b:	48 89 85 a0 e6 ff ff 	mov    %rax,-0x1960(%rbp)
    aa32:	48 83 bd a0 e6 ff ff 	cmpq   $0x0,-0x1960(%rbp)
    aa39:	00 
    aa3a:	0f 95 c0             	setne  %al
    aa3d:	0f b6 d0             	movzbl %al,%edx
    aa40:	8b 05 62 c9 00 00    	mov    0xc962(%rip),%eax        # 173a8 <g_433>
    aa46:	09 d0                	or     %edx,%eax
    aa48:	89 05 5a c9 00 00    	mov    %eax,0xc95a(%rip)        # 173a8 <g_433>
    aa4e:	8b 85 7c e5 ff ff    	mov    -0x1a84(%rbp),%eax
    aa54:	be 03 00 00 00       	mov    $0x3,%esi
    aa59:	89 c7                	mov    %eax,%edi
    aa5b:	e8 58 c4 ff ff       	callq  6eb8 <safe_add_func_uint32_t_u_u>
    aa60:	89 85 7c e5 ff ff    	mov    %eax,-0x1a84(%rbp)
    aa66:	83 bd 7c e5 ff ff 10 	cmpl   $0x10,-0x1a84(%rbp)
    aa6d:	7f b5                	jg     aa24 <func_38+0x258d>
    aa6f:	c7 85 7c e5 ff ff 00 	movl   $0x0,-0x1a84(%rbp)
    aa76:	00 00 00 
    aa79:	83 bd 7c e5 ff ff ed 	cmpl   $0xffffffed,-0x1a84(%rbp)
    aa80:	7c 1a                	jl     aa9c <func_38+0x2605>
    aa82:	48 8d 05 57 c9 00 00 	lea    0xc957(%rip),%rax        # 173e0 <g_638>
    aa89:	48 89 85 98 e6 ff ff 	mov    %rax,-0x1968(%rbp)
    aa90:	48 8b 85 98 e6 ff ff 	mov    -0x1968(%rbp),%rax
    aa97:	e9 02 05 00 00       	jmpq   af9e <func_38+0x2b07>
    aa9c:	0f b7 05 eb c6 00 00 	movzwl 0xc6eb(%rip),%eax        # 1718e <g_193>
    aaa3:	0f b7 c0             	movzwl %ax,%eax
    aaa6:	be 03 00 00 00       	mov    $0x3,%esi
    aaab:	89 c7                	mov    %eax,%edi
    aaad:	e8 6d c2 ff ff       	callq  6d1f <safe_sub_func_uint16_t_u_u>
    aab2:	66 89 05 d5 c6 00 00 	mov    %ax,0xc6d5(%rip)        # 1718e <g_193>
    aab9:	0f b7 05 ce c6 00 00 	movzwl 0xc6ce(%rip),%eax        # 1718e <g_193>
    aac0:	66 83 f8 01          	cmp    $0x1,%ax
    aac4:	0f 8f e1 fc ff ff    	jg     a7ab <func_38+0x2314>
    aaca:	48 8b 85 68 e6 ff ff 	mov    -0x1998(%rbp),%rax
    aad1:	e9 c8 04 00 00       	jmpq   af9e <func_38+0x2b07>
    aad6:	48 8d 85 80 e7 ff ff 	lea    -0x1880(%rbp),%rax
    aadd:	48 83 c0 08          	add    $0x8,%rax
    aae1:	48 89 85 00 e6 ff ff 	mov    %rax,-0x1a00(%rbp)
    aae8:	48 8d 05 34 c6 00 00 	lea    0xc634(%rip),%rax        # 17123 <g_114+0x3>
    aaef:	48 89 85 08 e6 ff ff 	mov    %rax,-0x19f8(%rbp)
    aaf6:	48 8d 85 08 e6 ff ff 	lea    -0x19f8(%rbp),%rax
    aafd:	48 89 85 60 e7 ff ff 	mov    %rax,-0x18a0(%rbp)
    ab04:	48 8d 85 60 e7 ff ff 	lea    -0x18a0(%rbp),%rax
    ab0b:	48 89 85 20 e9 ff ff 	mov    %rax,-0x16e0(%rbp)
    ab12:	48 8d 85 60 e7 ff ff 	lea    -0x18a0(%rbp),%rax
    ab19:	48 89 85 28 e9 ff ff 	mov    %rax,-0x16d8(%rbp)
    ab20:	48 8d 85 60 e7 ff ff 	lea    -0x18a0(%rbp),%rax
    ab27:	48 89 85 30 e9 ff ff 	mov    %rax,-0x16d0(%rbp)
    ab2e:	48 8d 85 60 e7 ff ff 	lea    -0x18a0(%rbp),%rax
    ab35:	48 89 85 38 e9 ff ff 	mov    %rax,-0x16c8(%rbp)
    ab3c:	48 8d 85 60 e7 ff ff 	lea    -0x18a0(%rbp),%rax
    ab43:	48 89 85 40 e9 ff ff 	mov    %rax,-0x16c0(%rbp)
    ab4a:	48 8d 85 60 e7 ff ff 	lea    -0x18a0(%rbp),%rax
    ab51:	48 89 85 48 e9 ff ff 	mov    %rax,-0x16b8(%rbp)
    ab58:	48 8d 85 60 e7 ff ff 	lea    -0x18a0(%rbp),%rax
    ab5f:	48 89 85 50 e9 ff ff 	mov    %rax,-0x16b0(%rbp)
    ab66:	48 8d 85 60 e7 ff ff 	lea    -0x18a0(%rbp),%rax
    ab6d:	48 89 85 58 e9 ff ff 	mov    %rax,-0x16a8(%rbp)
    ab74:	48 8d 85 60 e7 ff ff 	lea    -0x18a0(%rbp),%rax
    ab7b:	48 89 85 60 e9 ff ff 	mov    %rax,-0x16a0(%rbp)
    ab82:	48 8d 85 e0 e5 ff ff 	lea    -0x1a20(%rbp),%rax
    ab89:	48 89 85 78 e6 ff ff 	mov    %rax,-0x1988(%rbp)
    ab90:	c7 85 58 e5 ff ff 0c 	movl   $0xc,-0x1aa8(%rbp)
    ab97:	00 00 00 
    ab9a:	eb 39                	jmp    abd5 <func_38+0x273e>
    ab9c:	48 8d 85 00 e6 ff ff 	lea    -0x1a00(%rbp),%rax
    aba3:	48 89 85 80 e6 ff ff 	mov    %rax,-0x1980(%rbp)
    abaa:	48 8b 95 00 e6 ff ff 	mov    -0x1a00(%rbp),%rdx
    abb1:	48 8b 85 80 e6 ff ff 	mov    -0x1980(%rbp),%rax
    abb8:	48 89 10             	mov    %rdx,(%rax)
    abbb:	8b 85 58 e5 ff ff    	mov    -0x1aa8(%rbp),%eax
    abc1:	98                   	cwtl   
    abc2:	be 01 00 00 00       	mov    $0x1,%esi
    abc7:	89 c7                	mov    %eax,%edi
    abc9:	e8 e5 b7 ff ff       	callq  63b3 <safe_add_func_int16_t_s_s>
    abce:	98                   	cwtl   
    abcf:	89 85 58 e5 ff ff    	mov    %eax,-0x1aa8(%rbp)
    abd5:	83 bd 58 e5 ff ff 28 	cmpl   $0x28,-0x1aa8(%rbp)
    abdc:	77 be                	ja     ab9c <func_38+0x2705>
    abde:	48 8b 85 60 e7 ff ff 	mov    -0x18a0(%rbp),%rax
    abe5:	48 89 85 30 e6 ff ff 	mov    %rax,-0x19d0(%rbp)
    abec:	48 8b 85 30 e6 ff ff 	mov    -0x19d0(%rbp),%rax
    abf3:	48 89 85 78 e6 ff ff 	mov    %rax,-0x1988(%rbp)
    abfa:	48 83 bd 28 e6 ff ff 	cmpq   $0x0,-0x19d8(%rbp)
    ac01:	00 
    ac02:	0f 94 c0             	sete   %al
    ac05:	0f b6 c0             	movzbl %al,%eax
    ac08:	21 85 ac e5 ff ff    	and    %eax,-0x1a54(%rbp)
    ac0e:	48 8b 05 f3 e9 00 00 	mov    0xe9f3(%rip),%rax        # 19608 <g_1081>
    ac15:	48 89 85 70 ed ff ff 	mov    %rax,-0x1290(%rbp)
    ac1c:	48 8b 95 70 ed ff ff 	mov    -0x1290(%rbp),%rdx
    ac23:	48 8b 05 f6 ba 00 00 	mov    0xbaf6(%rip),%rax        # 16720 <l_1084.4356+0x100>
    ac2a:	48 39 c2             	cmp    %rax,%rdx
    ac2d:	0f 94 c0             	sete   %al
    ac30:	0f b6 c0             	movzbl %al,%eax
    ac33:	89 c6                	mov    %eax,%esi
    ac35:	48 8d 3d 6c c7 00 00 	lea    0xc76c(%rip),%rdi        # 173a8 <g_433>
    ac3c:	e8 83 03 00 00       	callq  afc4 <func_42>
    ac41:	48 89 85 38 e6 ff ff 	mov    %rax,-0x19c8(%rbp)
    ac48:	c7 85 78 e5 ff ff 00 	movl   $0x0,-0x1a88(%rbp)
    ac4f:	00 00 00 
    ac52:	83 bd 78 e5 ff ff 00 	cmpl   $0x0,-0x1a88(%rbp)
    ac59:	0f 88 fb 02 00 00    	js     af5a <func_38+0x2ac3>
    ac5f:	c7 85 b0 e5 ff ff e9 	movl   $0xfec5fbe9,-0x1a50(%rbp)
    ac66:	fb c5 fe 
    ac69:	c7 85 b4 e5 ff ff 13 	movl   $0x73d40313,-0x1a4c(%rbp)
    ac70:	03 d4 73 
    ac73:	66 c7 85 74 e5 ff ff 	movw   $0x2,-0x1a8c(%rbp)
    ac7a:	02 00 
    ac7c:	c7 85 b8 e5 ff ff ed 	movl   $0x9fd24ced,-0x1a48(%rbp)
    ac83:	4c d2 9f 
    ac86:	c7 85 bc e5 ff ff ff 	movl   $0xffffffff,-0x1a44(%rbp)
    ac8d:	ff ff ff 
    ac90:	c7 85 c0 e5 ff ff c6 	movl   $0x783becc6,-0x1a40(%rbp)
    ac97:	ec 3b 78 
    ac9a:	c6 85 6e e5 ff ff 91 	movb   $0x91,-0x1a92(%rbp)
    aca1:	c6 85 6f e5 ff ff 01 	movb   $0x1,-0x1a91(%rbp)
    aca8:	c7 85 98 e5 ff ff 00 	movl   $0x0,-0x1a68(%rbp)
    acaf:	00 00 00 
    acb2:	eb 42                	jmp    acf6 <func_38+0x285f>
    acb4:	c7 85 9c e5 ff ff 00 	movl   $0x0,-0x1a64(%rbp)
    acbb:	00 00 00 
    acbe:	eb 26                	jmp    ace6 <func_38+0x284f>
    acc0:	8b 85 9c e5 ff ff    	mov    -0x1a64(%rbp),%eax
    acc6:	48 63 d0             	movslq %eax,%rdx
    acc9:	8b 85 98 e5 ff ff    	mov    -0x1a68(%rbp),%eax
    accf:	48 98                	cltq   
    acd1:	48 01 d0             	add    %rdx,%rax
    acd4:	c7 84 85 20 e9 ff ff 	movl   $0xffffffff,-0x16e0(%rbp,%rax,4)
    acdb:	ff ff ff ff 
    acdf:	83 85 9c e5 ff ff 01 	addl   $0x1,-0x1a64(%rbp)
    ace6:	83 bd 9c e5 ff ff 00 	cmpl   $0x0,-0x1a64(%rbp)
    aced:	7e d1                	jle    acc0 <func_38+0x2829>
    acef:	83 85 98 e5 ff ff 01 	addl   $0x1,-0x1a68(%rbp)
    acf6:	83 bd 98 e5 ff ff 06 	cmpl   $0x6,-0x1a68(%rbp)
    acfd:	7e b5                	jle    acb4 <func_38+0x281d>
    acff:	66 83 ad 70 e5 ff ff 	subw   $0x1,-0x1a90(%rbp)
    ad06:	01 
    ad07:	48 8b 05 9a e0 00 00 	mov    0xe09a(%rip),%rax        # 18da8 <g_65>
    ad0e:	48 8b 00             	mov    (%rax),%rax
    ad11:	e9 88 02 00 00       	jmpq   af9e <func_38+0x2b07>
    ad16:	48 8d 85 e8 e5 ff ff 	lea    -0x1a18(%rbp),%rax
    ad1d:	48 89 85 48 e6 ff ff 	mov    %rax,-0x19b8(%rbp)
    ad24:	48 c7 85 50 e6 ff ff 	movq   $0x0,-0x19b0(%rbp)
    ad2b:	00 00 00 00 
    ad2f:	48 8d 85 c0 ee ff ff 	lea    -0x1140(%rbp),%rax
    ad36:	48 8d 15 e3 78 00 00 	lea    0x78e3(%rip),%rdx        # 12620 <g_332+0x5c0>
    ad3d:	b9 7a 00 00 00       	mov    $0x7a,%ecx
    ad42:	48 89 c7             	mov    %rax,%rdi
    ad45:	48 89 d6             	mov    %rdx,%rsi
    ad48:	f3 48 a5             	rep movsq %ds:(%rsi),%es:(%rdi)
    ad4b:	48 89 f2             	mov    %rsi,%rdx
    ad4e:	48 89 f8             	mov    %rdi,%rax
    ad51:	8b 0a                	mov    (%rdx),%ecx
    ad53:	89 08                	mov    %ecx,(%rax)
    ad55:	c7 85 a8 e5 ff ff e2 	movl   $0x2b2aa5e2,-0x1a58(%rbp)
    ad5c:	a5 2a 2b 
    ad5f:	c6 85 60 e7 ff ff 01 	movb   $0x1,-0x18a0(%rbp)
    ad66:	48 b8 44 af 23 40 75 	movabs $0x9b7745754023af44,%rax
    ad6d:	45 77 9b 
    ad70:	48 89 85 68 e7 ff ff 	mov    %rax,-0x1898(%rbp)
    ad77:	0f b7 85 70 e7 ff ff 	movzwl -0x1890(%rbp),%eax
    ad7e:	66 25 00 f8          	and    $0xf800,%ax
    ad82:	83 c8 0b             	or     $0xb,%eax
    ad85:	66 89 85 70 e7 ff ff 	mov    %ax,-0x1890(%rbp)
    ad8c:	48 8b 95 e8 e5 ff ff 	mov    -0x1a18(%rbp),%rdx
    ad93:	48 8b 85 48 e6 ff ff 	mov    -0x19b8(%rbp),%rax
    ad9a:	48 89 10             	mov    %rdx,(%rax)
    ad9d:	0f be 85 5c e5 ff ff 	movsbl -0x1aa4(%rbp),%eax
    ada4:	89 c6                	mov    %eax,%esi
    ada6:	bf ba 64 00 00       	mov    $0x64ba,%edi
    adab:	e8 45 b6 ff ff       	callq  63f5 <safe_mul_func_int16_t_s_s>
    adb0:	8b 05 ae c7 00 00    	mov    0xc7ae(%rip),%eax        # 17564 <g_736+0x4>
    adb6:	33 85 58 e5 ff ff    	xor    -0x1aa8(%rbp),%eax
    adbc:	89 05 a2 c7 00 00    	mov    %eax,0xc7a2(%rip)        # 17564 <g_736+0x4>
    adc2:	c7 05 c0 c5 00 00 00 	movl   $0x0,0xc5c0(%rip)        # 1738c <g_313>
    adc9:	00 00 00 
    adcc:	e9 71 01 00 00       	jmpq   af42 <func_38+0x2aab>
    add1:	48 c7 85 00 e6 ff ff 	movq   $0x0,-0x1a00(%rbp)
    add8:	00 00 00 00 
    addc:	c7 85 78 e5 ff ff 0e 	movl   $0xe,-0x1a88(%rbp)
    ade3:	00 00 00 
    ade6:	e9 3b 01 00 00       	jmpq   af26 <func_38+0x2a8f>
    adeb:	48 8d 05 16 c6 00 00 	lea    0xc616(%rip),%rax        # 17408 <g_639+0x8>
    adf2:	48 89 85 08 e6 ff ff 	mov    %rax,-0x19f8(%rbp)
    adf9:	48 8d 85 08 e6 ff ff 	lea    -0x19f8(%rbp),%rax
    ae00:	48 89 85 58 e6 ff ff 	mov    %rax,-0x19a8(%rbp)
    ae07:	48 8d 85 00 e6 ff ff 	lea    -0x1a00(%rbp),%rax
    ae0e:	48 89 85 60 e6 ff ff 	mov    %rax,-0x19a0(%rbp)
    ae15:	48 8d 85 20 e9 ff ff 	lea    -0x16e0(%rbp),%rax
    ae1c:	48 8d 15 dd 7b 00 00 	lea    0x7bdd(%rip),%rdx        # 12a00 <g_332+0x9a0>
    ae23:	b9 48 00 00 00       	mov    $0x48,%ecx
    ae28:	48 89 c7             	mov    %rax,%rdi
    ae2b:	48 89 d6             	mov    %rdx,%rsi
    ae2e:	f3 48 a5             	rep movsq %ds:(%rsi),%es:(%rdi)
    ae31:	48 8b 05 e0 df 00 00 	mov    0xdfe0(%rip),%rax        # 18e18 <g_375>
    ae38:	48 8b 00             	mov    (%rax),%rax
    ae3b:	0f b6 00             	movzbl (%rax),%eax
    ae3e:	0f be d8             	movsbl %al,%ebx
    ae41:	48 8b 05 00 e0 00 00 	mov    0xe000(%rip),%rax        # 18e48 <g_783>
    ae48:	48 8d 95 20 e8 ff ff 	lea    -0x17e0(%rbp),%rdx
    ae4f:	48 83 c2 38          	add    $0x38,%rdx
    ae53:	48 89 10             	mov    %rdx,(%rax)
    ae56:	48 8b 10             	mov    (%rax),%rdx
    ae59:	48 8b 85 58 e6 ff ff 	mov    -0x19a8(%rbp),%rax
    ae60:	48 89 10             	mov    %rdx,(%rax)
    ae63:	48 8b 85 58 e6 ff ff 	mov    -0x19a8(%rbp),%rax
    ae6a:	48 8b 08             	mov    (%rax),%rcx
    ae6d:	48 8b 95 00 e6 ff ff 	mov    -0x1a00(%rbp),%rdx
    ae74:	48 8b 85 60 e6 ff ff 	mov    -0x19a0(%rbp),%rax
    ae7b:	48 89 10             	mov    %rdx,(%rax)
    ae7e:	48 8b 85 60 e6 ff ff 	mov    -0x19a0(%rbp),%rax
    ae85:	48 8b 00             	mov    (%rax),%rax
    ae88:	48 39 c1             	cmp    %rax,%rcx
    ae8b:	0f 94 c0             	sete   %al
    ae8e:	0f b6 c0             	movzbl %al,%eax
    ae91:	be 00 00 00 00       	mov    $0x0,%esi
    ae96:	89 c7                	mov    %eax,%edi
    ae98:	e8 04 b4 ff ff       	callq  62a1 <safe_lshift_func_int8_t_s_s>
    ae9d:	48 8b 05 dc c5 00 00 	mov    0xc5dc(%rip),%rax        # 17480 <g_712+0x40>
    aea4:	48 85 c0             	test   %rax,%rax
    aea7:	0f 9e c0             	setle  %al
    aeaa:	0f b6 c0             	movzbl %al,%eax
    aead:	be 01 00 00 00       	mov    $0x1,%esi
    aeb2:	89 c7                	mov    %eax,%edi
    aeb4:	e8 28 b6 ff ff       	callq  64e1 <safe_lshift_func_int16_t_s_u>
    aeb9:	66 85 c0             	test   %ax,%ax
    aebc:	79 07                	jns    aec5 <func_38+0x2a2e>
    aebe:	ba 01 00 00 00       	mov    $0x1,%edx
    aec3:	eb 05                	jmp    aeca <func_38+0x2a33>
    aec5:	ba 00 00 00 00       	mov    $0x0,%edx
    aeca:	48 8b 05 27 e7 00 00 	mov    0xe727(%rip),%rax        # 195f8 <g_950>
    aed1:	66 89 10             	mov    %dx,(%rax)
    aed4:	89 de                	mov    %ebx,%esi
    aed6:	bf f9 ff ff ff       	mov    $0xfffffff9,%edi
    aedb:	e8 55 b4 ff ff       	callq  6335 <safe_rshift_func_int8_t_s_s>
    aee0:	0f be d0             	movsbl %al,%edx
    aee3:	48 8b 05 26 df 00 00 	mov    0xdf26(%rip),%rax        # 18e10 <g_376>
    aeea:	0f b6 00             	movzbl (%rax),%eax
    aeed:	0f be c0             	movsbl %al,%eax
    aef0:	89 d6                	mov    %edx,%esi
    aef2:	89 c7                	mov    %eax,%edi
    aef4:	e8 3c b4 ff ff       	callq  6335 <safe_rshift_func_int8_t_s_s>
    aef9:	0f be d0             	movsbl %al,%edx
    aefc:	8b 05 a6 c4 00 00    	mov    0xc4a6(%rip),%eax        # 173a8 <g_433>
    af02:	31 d0                	xor    %edx,%eax
    af04:	89 05 9e c4 00 00    	mov    %eax,0xc49e(%rip)        # 173a8 <g_433>
    af0a:	48 8b 85 50 e5 ff ff 	mov    -0x1ab0(%rbp),%rax
    af11:	48 89 05 48 eb 00 00 	mov    %rax,0xeb48(%rip)        # 19a60 <g_607>
    af18:	80 bd 5c e5 ff ff 00 	cmpb   $0x0,-0x1aa4(%rbp)
    af1f:	83 ad 78 e5 ff ff 01 	subl   $0x1,-0x1a88(%rbp)
    af26:	83 bd 78 e5 ff ff eb 	cmpl   $0xffffffeb,-0x1a88(%rbp)
    af2d:	0f 8d b8 fe ff ff    	jge    adeb <func_38+0x2954>
    af33:	8b 05 53 c4 00 00    	mov    0xc453(%rip),%eax        # 1738c <g_313>
    af39:	83 c0 01             	add    $0x1,%eax
    af3c:	89 05 4a c4 00 00    	mov    %eax,0xc44a(%rip)        # 1738c <g_313>
    af42:	8b 05 44 c4 00 00    	mov    0xc444(%rip),%eax        # 1738c <g_313>
    af48:	83 f8 15             	cmp    $0x15,%eax
    af4b:	0f 86 80 fe ff ff    	jbe    add1 <func_38+0x293a>
    af51:	48 8b 05 b8 e6 00 00 	mov    0xe6b8(%rip),%rax        # 19610 <g_1127>
    af58:	eb 44                	jmp    af9e <func_38+0x2b07>
    af5a:	48 83 85 18 e6 ff ff 	addq   $0x1,-0x19e8(%rbp)
    af61:	01 
    af62:	66 c7 85 70 e5 ff ff 	movw   $0x1d,-0x1a90(%rbp)
    af69:	1d 00 
    af6b:	eb 1d                	jmp    af8a <func_38+0x2af3>
    af6d:	0f be 95 5c e5 ff ff 	movsbl -0x1aa4(%rbp),%edx
    af74:	8b 05 2e c4 00 00    	mov    0xc42e(%rip),%eax        # 173a8 <g_433>
    af7a:	21 d0                	and    %edx,%eax
    af7c:	89 05 26 c4 00 00    	mov    %eax,0xc426(%rip)        # 173a8 <g_433>
    af82:	66 83 85 70 e5 ff ff 	addw   $0x1,-0x1a90(%rbp)
    af89:	01 
    af8a:	66 83 bd 70 e5 ff ff 	cmpw   $0x3b,-0x1a90(%rbp)
    af91:	3b 
    af92:	75 d9                	jne    af6d <func_38+0x2ad6>
    af94:	48 8b 05 0d de 00 00 	mov    0xde0d(%rip),%rax        # 18da8 <g_65>
    af9b:	48 8b 00             	mov    (%rax),%rax
    af9e:	48 8b 5d c8          	mov    -0x38(%rbp),%rbx
    afa2:	64 48 33 1c 25 28 00 	xor    %fs:0x28,%rbx
    afa9:	00 00 
    afab:	74 05                	je     afb2 <func_38+0x2b1b>
    afad:	e8 be b0 ff ff       	callq  6070 <__stack_chk_fail@plt>
    afb2:	48 81 c4 98 1a 00 00 	add    $0x1a98,%rsp
    afb9:	5b                   	pop    %rbx
    afba:	41 5c                	pop    %r12
    afbc:	41 5d                	pop    %r13
    afbe:	41 5e                	pop    %r14
    afc0:	41 5f                	pop    %r15
    afc2:	5d                   	pop    %rbp
    afc3:	c3                   	retq   

000000000000afc4 <func_42>:
    afc4:	f3 0f 1e fa          	endbr64 
    afc8:	55                   	push   %rbp
    afc9:	48 89 e5             	mov    %rsp,%rbp
    afcc:	53                   	push   %rbx
    afcd:	48 81 ec 28 0e 00 00 	sub    $0xe28,%rsp
    afd4:	48 89 bd d8 f1 ff ff 	mov    %rdi,-0xe28(%rbp)
    afdb:	89 b5 d4 f1 ff ff    	mov    %esi,-0xe2c(%rbp)
    afe1:	64 48 8b 04 25 28 00 	mov    %fs:0x28,%rax
    afe8:	00 00 
    afea:	48 89 45 e8          	mov    %rax,-0x18(%rbp)
    afee:	31 c0                	xor    %eax,%eax
    aff0:	c7 85 00 f2 ff ff ff 	movl   $0xffffffff,-0xe00(%rbp)
    aff7:	ff ff ff 
    affa:	c7 85 04 f2 ff ff 09 	movl   $0x9,-0xdfc(%rbp)
    b001:	00 00 00 
    b004:	c7 85 08 f2 ff ff 95 	movl   $0x7bd63f95,-0xdf8(%rbp)
    b00b:	3f d6 7b 
    b00e:	c7 85 f0 f1 ff ff 01 	movl   $0x1,-0xe10(%rbp)
    b015:	00 00 00 
    b018:	c7 85 f4 f1 ff ff 4d 	movl   $0xb02f824d,-0xe0c(%rbp)
    b01f:	82 2f b0 
    b022:	48 c7 85 28 f2 ff ff 	movq   $0x0,-0xdd8(%rbp)
    b029:	00 00 00 00 
    b02d:	48 8d 85 28 f2 ff ff 	lea    -0xdd8(%rbp),%rax
    b034:	48 89 85 68 f2 ff ff 	mov    %rax,-0xd98(%rbp)
    b03b:	48 8d 05 08 c1 00 00 	lea    0xc108(%rip),%rax        # 1714a <g_114+0x2a>
    b042:	48 89 85 70 f2 ff ff 	mov    %rax,-0xd90(%rbp)
    b049:	48 8d 05 58 dd 00 00 	lea    0xdd58(%rip),%rax        # 18da8 <g_65>
    b050:	48 89 85 30 f2 ff ff 	mov    %rax,-0xdd0(%rbp)
    b057:	48 8d 85 30 f2 ff ff 	lea    -0xdd0(%rbp),%rax
    b05e:	48 89 85 78 f2 ff ff 	mov    %rax,-0xd88(%rbp)
    b065:	48 c7 85 80 f2 ff ff 	movq   $0xffffffffffffffff,-0xd80(%rbp)
    b06c:	ff ff ff ff 
    b070:	48 b8 bb e2 4d 6f a8 	movabs $0xa2e80aa86f4de2bb,%rax
    b077:	0a e8 a2 
    b07a:	48 89 85 88 f2 ff ff 	mov    %rax,-0xd78(%rbp)
    b081:	c7 85 0c f2 ff ff f8 	movl   $0xfffffff8,-0xdf4(%rbp)
    b088:	ff ff ff 
    b08b:	c7 85 f8 f1 ff ff f6 	movl   $0xfffffff6,-0xe08(%rbp)
    b092:	ff ff ff 
    b095:	48 8d 85 80 f7 ff ff 	lea    -0x880(%rbp),%rax
    b09c:	48 8d 15 9d 7b 00 00 	lea    0x7b9d(%rip),%rdx        # 12c40 <g_332+0xbe0>
    b0a3:	b9 69 00 00 00       	mov    $0x69,%ecx
    b0a8:	48 89 c7             	mov    %rax,%rdi
    b0ab:	48 89 d6             	mov    %rdx,%rsi
    b0ae:	f3 48 a5             	rep movsq %ds:(%rsi),%es:(%rdi)
    b0b1:	48 8d 85 f0 f1 ff ff 	lea    -0xe10(%rbp),%rax
    b0b8:	48 89 85 90 f2 ff ff 	mov    %rax,-0xd70(%rbp)
    b0bf:	48 8d 05 3a c0 00 00 	lea    0xc03a(%rip),%rax        # 17100 <g_31>
    b0c6:	48 89 85 98 f2 ff ff 	mov    %rax,-0xd68(%rbp)
    b0cd:	48 8d 05 24 c0 00 00 	lea    0xc024(%rip),%rax        # 170f8 <g_27>
    b0d4:	48 89 85 a0 f2 ff ff 	mov    %rax,-0xd60(%rbp)
    b0db:	48 8d 05 9e c3 00 00 	lea    0xc39e(%rip),%rax        # 17480 <g_712+0x40>
    b0e2:	48 89 85 a8 f2 ff ff 	mov    %rax,-0xd58(%rbp)
    b0e9:	48 8d 05 ec bf 00 00 	lea    0xbfec(%rip),%rax        # 170dc <g_11+0x1c>
    b0f0:	48 89 85 d0 fa ff ff 	mov    %rax,-0x530(%rbp)
    b0f7:	48 8d 05 1e c0 00 00 	lea    0xc01e(%rip),%rax        # 1711c <g_92>
    b0fe:	48 89 85 d8 fa ff ff 	mov    %rax,-0x528(%rbp)
    b105:	48 8d 85 f0 f1 ff ff 	lea    -0xe10(%rbp),%rax
    b10c:	48 89 85 e0 fa ff ff 	mov    %rax,-0x520(%rbp)
    b113:	48 c7 85 e8 fa ff ff 	movq   $0x0,-0x518(%rbp)
    b11a:	00 00 00 00 
    b11e:	48 8d 85 80 f7 ff ff 	lea    -0x880(%rbp),%rax
    b125:	48 05 98 02 00 00    	add    $0x298,%rax
    b12b:	48 89 85 f0 fa ff ff 	mov    %rax,-0x510(%rbp)
    b132:	48 8d 05 a3 bf 00 00 	lea    0xbfa3(%rip),%rax        # 170dc <g_11+0x1c>
    b139:	48 89 85 f8 fa ff ff 	mov    %rax,-0x508(%rbp)
    b140:	48 8d 85 80 f7 ff ff 	lea    -0x880(%rbp),%rax
    b147:	48 83 c0 50          	add    $0x50,%rax
    b14b:	48 89 85 00 fb ff ff 	mov    %rax,-0x500(%rbp)
    b152:	48 8d 05 4f c2 00 00 	lea    0xc24f(%rip),%rax        # 173a8 <g_433>
    b159:	48 89 85 08 fb ff ff 	mov    %rax,-0x4f8(%rbp)
    b160:	48 8d 05 5d bf 00 00 	lea    0xbf5d(%rip),%rax        # 170c4 <g_11+0x4>
    b167:	48 89 85 10 fb ff ff 	mov    %rax,-0x4f0(%rbp)
    b16e:	48 8d 05 7f bf 00 00 	lea    0xbf7f(%rip),%rax        # 170f4 <g_15>
    b175:	48 89 85 18 fb ff ff 	mov    %rax,-0x4e8(%rbp)
    b17c:	48 8d 85 80 f7 ff ff 	lea    -0x880(%rbp),%rax
    b183:	48 05 98 02 00 00    	add    $0x298,%rax
    b189:	48 89 85 20 fb ff ff 	mov    %rax,-0x4e0(%rbp)
    b190:	48 8d 85 f0 f1 ff ff 	lea    -0xe10(%rbp),%rax
    b197:	48 89 85 28 fb ff ff 	mov    %rax,-0x4d8(%rbp)
    b19e:	48 c7 85 30 fb ff ff 	movq   $0x0,-0x4d0(%rbp)
    b1a5:	00 00 00 00 
    b1a9:	48 8d 05 6c bf 00 00 	lea    0xbf6c(%rip),%rax        # 1711c <g_92>
    b1b0:	48 89 85 38 fb ff ff 	mov    %rax,-0x4c8(%rbp)
    b1b7:	48 8d 05 1e bf 00 00 	lea    0xbf1e(%rip),%rax        # 170dc <g_11+0x1c>
    b1be:	48 89 85 40 fb ff ff 	mov    %rax,-0x4c0(%rbp)
    b1c5:	48 8d 85 80 f7 ff ff 	lea    -0x880(%rbp),%rax
    b1cc:	48 05 00 03 00 00    	add    $0x300,%rax
    b1d2:	48 89 85 48 fb ff ff 	mov    %rax,-0x4b8(%rbp)
    b1d9:	48 8d 85 80 f7 ff ff 	lea    -0x880(%rbp),%rax
    b1e0:	48 05 00 03 00 00    	add    $0x300,%rax
    b1e6:	48 89 85 50 fb ff ff 	mov    %rax,-0x4b0(%rbp)
    b1ed:	48 8d 85 80 f7 ff ff 	lea    -0x880(%rbp),%rax
    b1f4:	48 05 98 02 00 00    	add    $0x298,%rax
    b1fa:	48 89 85 58 fb ff ff 	mov    %rax,-0x4a8(%rbp)
    b201:	48 8d 05 bc be 00 00 	lea    0xbebc(%rip),%rax        # 170c4 <g_11+0x4>
    b208:	48 89 85 60 fb ff ff 	mov    %rax,-0x4a0(%rbp)
    b20f:	48 8d 85 80 f7 ff ff 	lea    -0x880(%rbp),%rax
    b216:	48 05 c4 02 00 00    	add    $0x2c4,%rax
    b21c:	48 89 85 68 fb ff ff 	mov    %rax,-0x498(%rbp)
    b223:	48 c7 85 70 fb ff ff 	movq   $0x0,-0x490(%rbp)
    b22a:	00 00 00 00 
    b22e:	48 8d 05 63 be 00 00 	lea    0xbe63(%rip),%rax        # 17098 <g_5>
    b235:	48 89 85 78 fb ff ff 	mov    %rax,-0x488(%rbp)
    b23c:	48 8d 85 80 f7 ff ff 	lea    -0x880(%rbp),%rax
    b243:	48 83 c0 50          	add    $0x50,%rax
    b247:	48 89 85 80 fb ff ff 	mov    %rax,-0x480(%rbp)
    b24e:	48 8d 05 87 be 00 00 	lea    0xbe87(%rip),%rax        # 170dc <g_11+0x1c>
    b255:	48 89 85 88 fb ff ff 	mov    %rax,-0x478(%rbp)
    b25c:	48 c7 85 90 fb ff ff 	movq   $0x0,-0x470(%rbp)
    b263:	00 00 00 00 
    b267:	48 8d 85 80 f7 ff ff 	lea    -0x880(%rbp),%rax
    b26e:	48 83 c0 50          	add    $0x50,%rax
    b272:	48 89 85 98 fb ff ff 	mov    %rax,-0x468(%rbp)
    b279:	48 c7 85 a0 fb ff ff 	movq   $0x0,-0x460(%rbp)
    b280:	00 00 00 00 
    b284:	48 8d 85 f0 f1 ff ff 	lea    -0xe10(%rbp),%rax
    b28b:	48 89 85 a8 fb ff ff 	mov    %rax,-0x458(%rbp)
    b292:	48 8d 05 ff bd 00 00 	lea    0xbdff(%rip),%rax        # 17098 <g_5>
    b299:	48 89 85 b0 fb ff ff 	mov    %rax,-0x450(%rbp)
    b2a0:	48 8d 05 35 be 00 00 	lea    0xbe35(%rip),%rax        # 170dc <g_11+0x1c>
    b2a7:	48 89 85 b8 fb ff ff 	mov    %rax,-0x448(%rbp)
    b2ae:	48 8d 85 80 f7 ff ff 	lea    -0x880(%rbp),%rax
    b2b5:	48 05 d4 02 00 00    	add    $0x2d4,%rax
    b2bb:	48 89 85 c0 fb ff ff 	mov    %rax,-0x440(%rbp)
    b2c2:	48 8d 85 f4 f1 ff ff 	lea    -0xe0c(%rbp),%rax
    b2c9:	48 89 85 c8 fb ff ff 	mov    %rax,-0x438(%rbp)
    b2d0:	48 c7 85 d0 fb ff ff 	movq   $0x0,-0x430(%rbp)
    b2d7:	00 00 00 00 
    b2db:	48 8d 85 80 f7 ff ff 	lea    -0x880(%rbp),%rax
    b2e2:	48 05 98 02 00 00    	add    $0x298,%rax
    b2e8:	48 89 85 d8 fb ff ff 	mov    %rax,-0x428(%rbp)
    b2ef:	48 8d 85 80 f7 ff ff 	lea    -0x880(%rbp),%rax
    b2f6:	48 83 c0 50          	add    $0x50,%rax
    b2fa:	48 89 85 e0 fb ff ff 	mov    %rax,-0x420(%rbp)
    b301:	48 8d 85 80 f7 ff ff 	lea    -0x880(%rbp),%rax
    b308:	48 05 98 02 00 00    	add    $0x298,%rax
    b30e:	48 89 85 e8 fb ff ff 	mov    %rax,-0x418(%rbp)
    b315:	48 8d 05 d0 bd 00 00 	lea    0xbdd0(%rip),%rax        # 170ec <g_13>
    b31c:	48 89 85 f0 fb ff ff 	mov    %rax,-0x410(%rbp)
    b323:	48 8d 85 80 f7 ff ff 	lea    -0x880(%rbp),%rax
    b32a:	48 05 54 02 00 00    	add    $0x254,%rax
    b330:	48 89 85 f8 fb ff ff 	mov    %rax,-0x408(%rbp)
    b337:	48 8d 05 9e bd 00 00 	lea    0xbd9e(%rip),%rax        # 170dc <g_11+0x1c>
    b33e:	48 89 85 00 fc ff ff 	mov    %rax,-0x400(%rbp)
    b345:	48 8d 05 a8 bd 00 00 	lea    0xbda8(%rip),%rax        # 170f4 <g_15>
    b34c:	48 89 85 08 fc ff ff 	mov    %rax,-0x3f8(%rbp)
    b353:	48 8d 05 6a bd 00 00 	lea    0xbd6a(%rip),%rax        # 170c4 <g_11+0x4>
    b35a:	48 89 85 10 fc ff ff 	mov    %rax,-0x3f0(%rbp)
    b361:	48 8d 85 f0 f1 ff ff 	lea    -0xe10(%rbp),%rax
    b368:	48 89 85 18 fc ff ff 	mov    %rax,-0x3e8(%rbp)
    b36f:	48 8d 85 80 f7 ff ff 	lea    -0x880(%rbp),%rax
    b376:	48 05 54 02 00 00    	add    $0x254,%rax
    b37c:	48 89 85 20 fc ff ff 	mov    %rax,-0x3e0(%rbp)
    b383:	48 c7 85 28 fc ff ff 	movq   $0x0,-0x3d8(%rbp)
    b38a:	00 00 00 00 
    b38e:	48 8d 05 2f bd 00 00 	lea    0xbd2f(%rip),%rax        # 170c4 <g_11+0x4>
    b395:	48 89 85 30 fc ff ff 	mov    %rax,-0x3d0(%rbp)
    b39c:	48 8d 85 f8 f1 ff ff 	lea    -0xe08(%rbp),%rax
    b3a3:	48 89 85 38 fc ff ff 	mov    %rax,-0x3c8(%rbp)
    b3aa:	48 8d 85 f0 f1 ff ff 	lea    -0xe10(%rbp),%rax
    b3b1:	48 89 85 40 fc ff ff 	mov    %rax,-0x3c0(%rbp)
    b3b8:	48 8d 05 1d bd 00 00 	lea    0xbd1d(%rip),%rax        # 170dc <g_11+0x1c>
    b3bf:	48 89 85 48 fc ff ff 	mov    %rax,-0x3b8(%rbp)
    b3c6:	48 8d 85 80 f7 ff ff 	lea    -0x880(%rbp),%rax
    b3cd:	48 05 54 02 00 00    	add    $0x254,%rax
    b3d3:	48 89 85 50 fc ff ff 	mov    %rax,-0x3b0(%rbp)
    b3da:	48 c7 85 58 fc ff ff 	movq   $0x0,-0x3a8(%rbp)
    b3e1:	00 00 00 00 
    b3e5:	48 8d 85 f0 f1 ff ff 	lea    -0xe10(%rbp),%rax
    b3ec:	48 89 85 60 fc ff ff 	mov    %rax,-0x3a0(%rbp)
    b3f3:	48 8d 05 fa bc 00 00 	lea    0xbcfa(%rip),%rax        # 170f4 <g_15>
    b3fa:	48 89 85 68 fc ff ff 	mov    %rax,-0x398(%rbp)
    b401:	48 8d 05 c8 bc 00 00 	lea    0xbcc8(%rip),%rax        # 170d0 <g_11+0x10>
    b408:	48 89 85 70 fc ff ff 	mov    %rax,-0x390(%rbp)
    b40f:	48 8d 05 ba bc 00 00 	lea    0xbcba(%rip),%rax        # 170d0 <g_11+0x10>
    b416:	48 89 85 78 fc ff ff 	mov    %rax,-0x388(%rbp)
    b41d:	48 8d 05 c8 bc 00 00 	lea    0xbcc8(%rip),%rax        # 170ec <g_13>
    b424:	48 89 85 80 fc ff ff 	mov    %rax,-0x380(%rbp)
    b42b:	48 8d 05 92 bc 00 00 	lea    0xbc92(%rip),%rax        # 170c4 <g_11+0x4>
    b432:	48 89 85 88 fc ff ff 	mov    %rax,-0x378(%rbp)
    b439:	48 8d 85 80 f7 ff ff 	lea    -0x880(%rbp),%rax
    b440:	48 05 c4 02 00 00    	add    $0x2c4,%rax
    b446:	48 89 85 90 fc ff ff 	mov    %rax,-0x370(%rbp)
    b44d:	48 8d 85 80 f7 ff ff 	lea    -0x880(%rbp),%rax
    b454:	48 05 98 02 00 00    	add    $0x298,%rax
    b45a:	48 89 85 98 fc ff ff 	mov    %rax,-0x368(%rbp)
    b461:	48 8d 85 f8 f1 ff ff 	lea    -0xe08(%rbp),%rax
    b468:	48 89 85 a0 fc ff ff 	mov    %rax,-0x360(%rbp)
    b46f:	48 8d 05 76 bc 00 00 	lea    0xbc76(%rip),%rax        # 170ec <g_13>
    b476:	48 89 85 a8 fc ff ff 	mov    %rax,-0x358(%rbp)
    b47d:	48 8d 85 80 f7 ff ff 	lea    -0x880(%rbp),%rax
    b484:	48 05 d4 02 00 00    	add    $0x2d4,%rax
    b48a:	48 89 85 b0 fc ff ff 	mov    %rax,-0x350(%rbp)
    b491:	48 8d 05 44 bc 00 00 	lea    0xbc44(%rip),%rax        # 170dc <g_11+0x1c>
    b498:	48 89 85 b8 fc ff ff 	mov    %rax,-0x348(%rbp)
    b49f:	48 c7 85 c0 fc ff ff 	movq   $0x0,-0x340(%rbp)
    b4a6:	00 00 00 00 
    b4aa:	48 8d 85 f0 f1 ff ff 	lea    -0xe10(%rbp),%rax
    b4b1:	48 89 85 c8 fc ff ff 	mov    %rax,-0x338(%rbp)
    b4b8:	48 c7 85 d0 fc ff ff 	movq   $0x0,-0x330(%rbp)
    b4bf:	00 00 00 00 
    b4c3:	48 8d 85 80 f7 ff ff 	lea    -0x880(%rbp),%rax
    b4ca:	48 05 00 03 00 00    	add    $0x300,%rax
    b4d0:	48 89 85 d8 fc ff ff 	mov    %rax,-0x328(%rbp)
    b4d7:	48 c7 85 e0 fc ff ff 	movq   $0x0,-0x320(%rbp)
    b4de:	00 00 00 00 
    b4e2:	48 8d 05 f3 bb 00 00 	lea    0xbbf3(%rip),%rax        # 170dc <g_11+0x1c>
    b4e9:	48 89 85 e8 fc ff ff 	mov    %rax,-0x318(%rbp)
    b4f0:	48 8d 85 80 f7 ff ff 	lea    -0x880(%rbp),%rax
    b4f7:	48 83 c0 50          	add    $0x50,%rax
    b4fb:	48 89 85 f0 fc ff ff 	mov    %rax,-0x310(%rbp)
    b502:	48 8d 05 8f bb 00 00 	lea    0xbb8f(%rip),%rax        # 17098 <g_5>
    b509:	48 89 85 f8 fc ff ff 	mov    %rax,-0x308(%rbp)
    b510:	48 8d 85 f8 f1 ff ff 	lea    -0xe08(%rbp),%rax
    b517:	48 89 85 00 fd ff ff 	mov    %rax,-0x300(%rbp)
    b51e:	48 8d 05 cf bb 00 00 	lea    0xbbcf(%rip),%rax        # 170f4 <g_15>
    b525:	48 89 85 08 fd ff ff 	mov    %rax,-0x2f8(%rbp)
    b52c:	48 8d 05 91 bb 00 00 	lea    0xbb91(%rip),%rax        # 170c4 <g_11+0x4>
    b533:	48 89 85 10 fd ff ff 	mov    %rax,-0x2f0(%rbp)
    b53a:	48 8d 05 83 bb 00 00 	lea    0xbb83(%rip),%rax        # 170c4 <g_11+0x4>
    b541:	48 89 85 18 fd ff ff 	mov    %rax,-0x2e8(%rbp)
    b548:	48 8d 05 8d bb 00 00 	lea    0xbb8d(%rip),%rax        # 170dc <g_11+0x1c>
    b54f:	48 89 85 20 fd ff ff 	mov    %rax,-0x2e0(%rbp)
    b556:	48 8d 85 80 f7 ff ff 	lea    -0x880(%rbp),%rax
    b55d:	48 05 00 03 00 00    	add    $0x300,%rax
    b563:	48 89 85 28 fd ff ff 	mov    %rax,-0x2d8(%rbp)
    b56a:	48 8d 05 5f bb 00 00 	lea    0xbb5f(%rip),%rax        # 170d0 <g_11+0x10>
    b571:	48 89 85 30 fd ff ff 	mov    %rax,-0x2d0(%rbp)
    b578:	48 8d 05 75 bb 00 00 	lea    0xbb75(%rip),%rax        # 170f4 <g_15>
    b57f:	48 89 85 38 fd ff ff 	mov    %rax,-0x2c8(%rbp)
    b586:	48 c7 85 40 fd ff ff 	movq   $0x0,-0x2c0(%rbp)
    b58d:	00 00 00 00 
    b591:	48 c7 85 48 fd ff ff 	movq   $0x0,-0x2b8(%rbp)
    b598:	00 00 00 00 
    b59c:	48 8d 05 51 bb 00 00 	lea    0xbb51(%rip),%rax        # 170f4 <g_15>
    b5a3:	48 89 85 50 fd ff ff 	mov    %rax,-0x2b0(%rbp)
    b5aa:	48 8d 05 43 bb 00 00 	lea    0xbb43(%rip),%rax        # 170f4 <g_15>
    b5b1:	48 89 85 58 fd ff ff 	mov    %rax,-0x2a8(%rbp)
    b5b8:	48 8d 85 f0 f1 ff ff 	lea    -0xe10(%rbp),%rax
    b5bf:	48 89 85 60 fd ff ff 	mov    %rax,-0x2a0(%rbp)
    b5c6:	48 8d 05 cb ba 00 00 	lea    0xbacb(%rip),%rax        # 17098 <g_5>
    b5cd:	48 89 85 68 fd ff ff 	mov    %rax,-0x298(%rbp)
    b5d4:	48 8d 85 80 f7 ff ff 	lea    -0x880(%rbp),%rax
    b5db:	48 83 c0 50          	add    $0x50,%rax
    b5df:	48 89 85 70 fd ff ff 	mov    %rax,-0x290(%rbp)
    b5e6:	48 c7 85 78 fd ff ff 	movq   $0x0,-0x288(%rbp)
    b5ed:	00 00 00 00 
    b5f1:	48 8d 05 fc ba 00 00 	lea    0xbafc(%rip),%rax        # 170f4 <g_15>
    b5f8:	48 89 85 80 fd ff ff 	mov    %rax,-0x280(%rbp)
    b5ff:	48 c7 85 88 fd ff ff 	movq   $0x0,-0x278(%rbp)
    b606:	00 00 00 00 
    b60a:	48 8d 05 b3 ba 00 00 	lea    0xbab3(%rip),%rax        # 170c4 <g_11+0x4>
    b611:	48 89 85 90 fd ff ff 	mov    %rax,-0x270(%rbp)
    b618:	48 8d 05 d5 ba 00 00 	lea    0xbad5(%rip),%rax        # 170f4 <g_15>
    b61f:	48 89 85 98 fd ff ff 	mov    %rax,-0x268(%rbp)
    b626:	48 8d 05 af ba 00 00 	lea    0xbaaf(%rip),%rax        # 170dc <g_11+0x1c>
    b62d:	48 89 85 a0 fd ff ff 	mov    %rax,-0x260(%rbp)
    b634:	48 8d 85 80 f7 ff ff 	lea    -0x880(%rbp),%rax
    b63b:	48 05 54 02 00 00    	add    $0x254,%rax
    b641:	48 89 85 a8 fd ff ff 	mov    %rax,-0x258(%rbp)
    b648:	48 8d 05 8d ba 00 00 	lea    0xba8d(%rip),%rax        # 170dc <g_11+0x1c>
    b64f:	48 89 85 b0 fd ff ff 	mov    %rax,-0x250(%rbp)
    b656:	48 c7 85 b8 fd ff ff 	movq   $0x0,-0x248(%rbp)
    b65d:	00 00 00 00 
    b661:	48 8d 85 80 f7 ff ff 	lea    -0x880(%rbp),%rax
    b668:	48 83 c0 50          	add    $0x50,%rax
    b66c:	48 89 85 c0 fd ff ff 	mov    %rax,-0x240(%rbp)
    b673:	48 8d 05 7a ba 00 00 	lea    0xba7a(%rip),%rax        # 170f4 <g_15>
    b67a:	48 89 85 c8 fd ff ff 	mov    %rax,-0x238(%rbp)
    b681:	48 8d 05 54 ba 00 00 	lea    0xba54(%rip),%rax        # 170dc <g_11+0x1c>
    b688:	48 89 85 d0 fd ff ff 	mov    %rax,-0x230(%rbp)
    b68f:	48 8d 05 12 bd 00 00 	lea    0xbd12(%rip),%rax        # 173a8 <g_433>
    b696:	48 89 85 d8 fd ff ff 	mov    %rax,-0x228(%rbp)
    b69d:	48 8d 85 80 f7 ff ff 	lea    -0x880(%rbp),%rax
    b6a4:	48 05 d4 02 00 00    	add    $0x2d4,%rax
    b6aa:	48 89 85 e0 fd ff ff 	mov    %rax,-0x220(%rbp)
    b6b1:	48 8d 85 f0 f1 ff ff 	lea    -0xe10(%rbp),%rax
    b6b8:	48 89 85 e8 fd ff ff 	mov    %rax,-0x218(%rbp)
    b6bf:	48 8d 85 f8 f1 ff ff 	lea    -0xe08(%rbp),%rax
    b6c6:	48 89 85 f0 fd ff ff 	mov    %rax,-0x210(%rbp)
    b6cd:	48 8d 85 f0 f1 ff ff 	lea    -0xe10(%rbp),%rax
    b6d4:	48 89 85 f8 fd ff ff 	mov    %rax,-0x208(%rbp)
    b6db:	48 8d 85 80 f7 ff ff 	lea    -0x880(%rbp),%rax
    b6e2:	48 05 c4 02 00 00    	add    $0x2c4,%rax
    b6e8:	48 89 85 00 fe ff ff 	mov    %rax,-0x200(%rbp)
    b6ef:	48 8d 85 80 f7 ff ff 	lea    -0x880(%rbp),%rax
    b6f6:	48 05 d4 02 00 00    	add    $0x2d4,%rax
    b6fc:	48 89 85 08 fe ff ff 	mov    %rax,-0x1f8(%rbp)
    b703:	48 c7 85 10 fe ff ff 	movq   $0x0,-0x1f0(%rbp)
    b70a:	00 00 00 00 
    b70e:	48 8d 85 f0 f1 ff ff 	lea    -0xe10(%rbp),%rax
    b715:	48 89 85 18 fe ff ff 	mov    %rax,-0x1e8(%rbp)
    b71c:	48 8d 05 c9 b9 00 00 	lea    0xb9c9(%rip),%rax        # 170ec <g_13>
    b723:	48 89 85 20 fe ff ff 	mov    %rax,-0x1e0(%rbp)
    b72a:	48 8d 05 67 b9 00 00 	lea    0xb967(%rip),%rax        # 17098 <g_5>
    b731:	48 89 85 28 fe ff ff 	mov    %rax,-0x1d8(%rbp)
    b738:	48 8d 05 9d b9 00 00 	lea    0xb99d(%rip),%rax        # 170dc <g_11+0x1c>
    b73f:	48 89 85 30 fe ff ff 	mov    %rax,-0x1d0(%rbp)
    b746:	48 8d 05 77 b9 00 00 	lea    0xb977(%rip),%rax        # 170c4 <g_11+0x4>
    b74d:	48 89 85 38 fe ff ff 	mov    %rax,-0x1c8(%rbp)
    b754:	48 8d 05 69 b9 00 00 	lea    0xb969(%rip),%rax        # 170c4 <g_11+0x4>
    b75b:	48 89 85 40 fe ff ff 	mov    %rax,-0x1c0(%rbp)
    b762:	48 8d 85 80 f7 ff ff 	lea    -0x880(%rbp),%rax
    b769:	48 83 c0 50          	add    $0x50,%rax
    b76d:	48 89 85 48 fe ff ff 	mov    %rax,-0x1b8(%rbp)
    b774:	48 8d 85 f0 f1 ff ff 	lea    -0xe10(%rbp),%rax
    b77b:	48 89 85 50 fe ff ff 	mov    %rax,-0x1b0(%rbp)
    b782:	48 8d 85 80 f7 ff ff 	lea    -0x880(%rbp),%rax
    b789:	48 05 00 03 00 00    	add    $0x300,%rax
    b78f:	48 89 85 58 fe ff ff 	mov    %rax,-0x1a8(%rbp)
    b796:	48 8d 05 4f b9 00 00 	lea    0xb94f(%rip),%rax        # 170ec <g_13>
    b79d:	48 89 85 60 fe ff ff 	mov    %rax,-0x1a0(%rbp)
    b7a4:	48 8d 85 80 f7 ff ff 	lea    -0x880(%rbp),%rax
    b7ab:	48 05 c4 02 00 00    	add    $0x2c4,%rax
    b7b1:	48 89 85 68 fe ff ff 	mov    %rax,-0x198(%rbp)
    b7b8:	48 c7 85 70 fe ff ff 	movq   $0x0,-0x190(%rbp)
    b7bf:	00 00 00 00 
    b7c3:	48 8d 05 12 b9 00 00 	lea    0xb912(%rip),%rax        # 170dc <g_11+0x1c>
    b7ca:	48 89 85 78 fe ff ff 	mov    %rax,-0x188(%rbp)
    b7d1:	48 c7 85 80 fe ff ff 	movq   $0x0,-0x180(%rbp)
    b7d8:	00 00 00 00 
    b7dc:	48 8d 05 11 b9 00 00 	lea    0xb911(%rip),%rax        # 170f4 <g_15>
    b7e3:	48 89 85 88 fe ff ff 	mov    %rax,-0x178(%rbp)
    b7ea:	48 c7 85 90 fe ff ff 	movq   $0x0,-0x170(%rbp)
    b7f1:	00 00 00 00 
    b7f5:	48 8d 05 f8 b8 00 00 	lea    0xb8f8(%rip),%rax        # 170f4 <g_15>
    b7fc:	48 89 85 98 fe ff ff 	mov    %rax,-0x168(%rbp)
    b803:	48 8d 85 80 f7 ff ff 	lea    -0x880(%rbp),%rax
    b80a:	48 83 c0 50          	add    $0x50,%rax
    b80e:	48 89 85 a0 fe ff ff 	mov    %rax,-0x160(%rbp)
    b815:	48 8d 05 d8 b8 00 00 	lea    0xb8d8(%rip),%rax        # 170f4 <g_15>
    b81c:	48 89 85 a8 fe ff ff 	mov    %rax,-0x158(%rbp)
    b823:	48 c7 85 b0 fe ff ff 	movq   $0x0,-0x150(%rbp)
    b82a:	00 00 00 00 
    b82e:	48 c7 85 b8 fe ff ff 	movq   $0x0,-0x148(%rbp)
    b835:	00 00 00 00 
    b839:	48 8d 05 dc b8 00 00 	lea    0xb8dc(%rip),%rax        # 1711c <g_92>
    b840:	48 89 85 c0 fe ff ff 	mov    %rax,-0x140(%rbp)
    b847:	48 8d 85 80 f7 ff ff 	lea    -0x880(%rbp),%rax
    b84e:	48 05 c4 02 00 00    	add    $0x2c4,%rax
    b854:	48 89 85 c8 fe ff ff 	mov    %rax,-0x138(%rbp)
    b85b:	48 8d 05 7a b8 00 00 	lea    0xb87a(%rip),%rax        # 170dc <g_11+0x1c>
    b862:	48 89 85 d0 fe ff ff 	mov    %rax,-0x130(%rbp)
    b869:	48 8d 85 f0 f1 ff ff 	lea    -0xe10(%rbp),%rax
    b870:	48 89 85 d8 fe ff ff 	mov    %rax,-0x128(%rbp)
    b877:	48 8d 85 f0 f1 ff ff 	lea    -0xe10(%rbp),%rax
    b87e:	48 89 85 e0 fe ff ff 	mov    %rax,-0x120(%rbp)
    b885:	48 c7 85 e8 fe ff ff 	movq   $0x0,-0x118(%rbp)
    b88c:	00 00 00 00 
    b890:	48 8d 85 80 f7 ff ff 	lea    -0x880(%rbp),%rax
    b897:	48 83 c0 50          	add    $0x50,%rax
    b89b:	48 89 85 f0 fe ff ff 	mov    %rax,-0x110(%rbp)
    b8a2:	48 8d 05 1b b8 00 00 	lea    0xb81b(%rip),%rax        # 170c4 <g_11+0x4>
    b8a9:	48 89 85 f8 fe ff ff 	mov    %rax,-0x108(%rbp)
    b8b0:	48 8d 05 25 b8 00 00 	lea    0xb825(%rip),%rax        # 170dc <g_11+0x1c>
    b8b7:	48 89 85 00 ff ff ff 	mov    %rax,-0x100(%rbp)
    b8be:	48 8d 85 f8 f1 ff ff 	lea    -0xe08(%rbp),%rax
    b8c5:	48 89 85 08 ff ff ff 	mov    %rax,-0xf8(%rbp)
    b8cc:	48 8d 05 19 b8 00 00 	lea    0xb819(%rip),%rax        # 170ec <g_13>
    b8d3:	48 89 85 10 ff ff ff 	mov    %rax,-0xf0(%rbp)
    b8da:	48 8d 85 80 f7 ff ff 	lea    -0x880(%rbp),%rax
    b8e1:	48 83 c0 50          	add    $0x50,%rax
    b8e5:	48 89 85 18 ff ff ff 	mov    %rax,-0xe8(%rbp)
    b8ec:	48 8d 05 e9 b7 00 00 	lea    0xb7e9(%rip),%rax        # 170dc <g_11+0x1c>
    b8f3:	48 89 85 20 ff ff ff 	mov    %rax,-0xe0(%rbp)
    b8fa:	48 8d 85 80 f7 ff ff 	lea    -0x880(%rbp),%rax
    b901:	48 05 d4 02 00 00    	add    $0x2d4,%rax
    b907:	48 89 85 28 ff ff ff 	mov    %rax,-0xd8(%rbp)
    b90e:	48 8d 05 07 b8 00 00 	lea    0xb807(%rip),%rax        # 1711c <g_92>
    b915:	48 89 85 30 ff ff ff 	mov    %rax,-0xd0(%rbp)
    b91c:	48 8d 05 b9 b7 00 00 	lea    0xb7b9(%rip),%rax        # 170dc <g_11+0x1c>
    b923:	48 89 85 38 ff ff ff 	mov    %rax,-0xc8(%rbp)
    b92a:	48 8d 85 f8 f1 ff ff 	lea    -0xe08(%rbp),%rax
    b931:	48 89 85 40 ff ff ff 	mov    %rax,-0xc0(%rbp)
    b938:	48 8d 85 80 f7 ff ff 	lea    -0x880(%rbp),%rax
    b93f:	48 83 c0 50          	add    $0x50,%rax
    b943:	48 89 85 48 ff ff ff 	mov    %rax,-0xb8(%rbp)
    b94a:	48 c7 85 50 ff ff ff 	movq   $0x0,-0xb0(%rbp)
    b951:	00 00 00 00 
    b955:	48 8d 05 4c ba 00 00 	lea    0xba4c(%rip),%rax        # 173a8 <g_433>
    b95c:	48 89 85 58 ff ff ff 	mov    %rax,-0xa8(%rbp)
    b963:	48 8d 05 72 b7 00 00 	lea    0xb772(%rip),%rax        # 170dc <g_11+0x1c>
    b96a:	48 89 85 60 ff ff ff 	mov    %rax,-0xa0(%rbp)
    b971:	48 c7 85 68 ff ff ff 	movq   $0x0,-0x98(%rbp)
    b978:	00 00 00 00 
    b97c:	48 8d 85 f0 f1 ff ff 	lea    -0xe10(%rbp),%rax
    b983:	48 89 85 70 ff ff ff 	mov    %rax,-0x90(%rbp)
    b98a:	48 c7 85 78 ff ff ff 	movq   $0x0,-0x88(%rbp)
    b991:	00 00 00 00 
    b995:	48 c7 45 80 00 00 00 	movq   $0x0,-0x80(%rbp)
    b99c:	00 
    b99d:	48 8d 85 80 f7 ff ff 	lea    -0x880(%rbp),%rax
    b9a4:	48 83 c0 50          	add    $0x50,%rax
    b9a8:	48 89 45 88          	mov    %rax,-0x78(%rbp)
    b9ac:	48 8d 05 29 b7 00 00 	lea    0xb729(%rip),%rax        # 170dc <g_11+0x1c>
    b9b3:	48 89 45 90          	mov    %rax,-0x70(%rbp)
    b9b7:	48 8d 85 80 f7 ff ff 	lea    -0x880(%rbp),%rax
    b9be:	48 05 98 02 00 00    	add    $0x298,%rax
    b9c4:	48 89 45 98          	mov    %rax,-0x68(%rbp)
    b9c8:	48 c7 45 a0 00 00 00 	movq   $0x0,-0x60(%rbp)
    b9cf:	00 
    b9d0:	48 c7 45 a8 00 00 00 	movq   $0x0,-0x58(%rbp)
    b9d7:	00 
    b9d8:	48 8d 85 80 f7 ff ff 	lea    -0x880(%rbp),%rax
    b9df:	48 83 c0 50          	add    $0x50,%rax
    b9e3:	48 89 45 b0          	mov    %rax,-0x50(%rbp)
    b9e7:	48 8d 05 2e b7 00 00 	lea    0xb72e(%rip),%rax        # 1711c <g_92>
    b9ee:	48 89 45 b8          	mov    %rax,-0x48(%rbp)
    b9f2:	48 8d 85 80 f7 ff ff 	lea    -0x880(%rbp),%rax
    b9f9:	48 83 c0 50          	add    $0x50,%rax
    b9fd:	48 89 45 c0          	mov    %rax,-0x40(%rbp)
    ba01:	48 8d 05 c8 b6 00 00 	lea    0xb6c8(%rip),%rax        # 170d0 <g_11+0x10>
    ba08:	48 89 45 c8          	mov    %rax,-0x38(%rbp)
    ba0c:	48 c7 45 d0 00 00 00 	movq   $0x0,-0x30(%rbp)
    ba13:	00 
    ba14:	48 8d 05 d9 b6 00 00 	lea    0xb6d9(%rip),%rax        # 170f4 <g_15>
    ba1b:	48 89 45 d8          	mov    %rax,-0x28(%rbp)
    ba1f:	c6 05 f4 b6 00 00 00 	movb   $0x0,0xb6f4(%rip)        # 1711a <g_85>
    ba26:	e9 2a 07 00 00       	jmpq   c155 <func_42+0x1191>
    ba2b:	66 c7 85 ec f1 ff ff 	movw   $0xea96,-0xe14(%rbp)
    ba32:	96 ea 
    ba34:	48 8d 05 a1 b6 00 00 	lea    0xb6a1(%rip),%rax        # 170dc <g_11+0x1c>
    ba3b:	48 89 85 38 f2 ff ff 	mov    %rax,-0xdc8(%rbp)
    ba42:	48 8d 05 97 d3 00 00 	lea    0xd397(%rip),%rax        # 18de0 <g_343+0x20>
    ba49:	48 89 85 b8 f2 ff ff 	mov    %rax,-0xd48(%rbp)
    ba50:	c7 85 30 f3 ff ff ff 	movl   $0xffffffff,-0xcd0(%rbp)
    ba57:	ff ff ff 
    ba5a:	c7 85 34 f3 ff ff 5a 	movl   $0x3506c35a,-0xccc(%rbp)
    ba61:	c3 06 35 
    ba64:	c7 85 38 f3 ff ff fc 	movl   $0xfffffffc,-0xcc8(%rbp)
    ba6b:	ff ff ff 
    ba6e:	c7 85 3c f3 ff ff fc 	movl   $0xfffffffc,-0xcc4(%rbp)
    ba75:	ff ff ff 
    ba78:	c7 85 40 f3 ff ff 5a 	movl   $0x3506c35a,-0xcc0(%rbp)
    ba7f:	c3 06 35 
    ba82:	c7 85 44 f3 ff ff fd 	movl   $0xfffffffd,-0xcbc(%rbp)
    ba89:	ff ff ff 
    ba8c:	c7 85 48 f3 ff ff ff 	movl   $0xffffffff,-0xcb8(%rbp)
    ba93:	ff ff ff 
    ba96:	c7 85 4c f3 ff ff a9 	movl   $0x42ac23a9,-0xcb4(%rbp)
    ba9d:	23 ac 42 
    baa0:	c7 85 50 f3 ff ff 06 	movl   $0x6,-0xcb0(%rbp)
    baa7:	00 00 00 
    baaa:	c7 85 54 f3 ff ff 06 	movl   $0x6,-0xcac(%rbp)
    bab1:	00 00 00 
    bab4:	c7 85 58 f3 ff ff 10 	movl   $0x10ef6010,-0xca8(%rbp)
    babb:	60 ef 10 
    babe:	c7 85 5c f3 ff ff 00 	movl   $0x0,-0xca4(%rbp)
    bac5:	00 00 00 
    bac8:	c7 85 60 f3 ff ff 10 	movl   $0x10ef6010,-0xca0(%rbp)
    bacf:	60 ef 10 
    bad2:	c7 85 64 f3 ff ff fc 	movl   $0xfffffffc,-0xc9c(%rbp)
    bad9:	ff ff ff 
    badc:	c7 85 68 f3 ff ff b4 	movl   $0x1211d8b4,-0xc98(%rbp)
    bae3:	d8 11 12 
    bae6:	c7 85 6c f3 ff ff 78 	movl   $0x72a61a78,-0xc94(%rbp)
    baed:	1a a6 72 
    baf0:	c7 85 70 f3 ff ff d2 	movl   $0x5b625fd2,-0xc90(%rbp)
    baf7:	5f 62 5b 
    bafa:	c7 85 74 f3 ff ff 06 	movl   $0x6,-0xc8c(%rbp)
    bb01:	00 00 00 
    bb04:	c7 85 78 f3 ff ff d2 	movl   $0x5b625fd2,-0xc88(%rbp)
    bb0b:	5f 62 5b 
    bb0e:	c7 85 7c f3 ff ff 78 	movl   $0x72a61a78,-0xc84(%rbp)
    bb15:	1a a6 72 
    bb18:	c7 85 80 f3 ff ff 10 	movl   $0x10ef6010,-0xc80(%rbp)
    bb1f:	60 ef 10 
    bb22:	c7 85 84 f3 ff ff ff 	movl   $0xffffffff,-0xc7c(%rbp)
    bb29:	ff ff ff 
    bb2c:	c7 85 88 f3 ff ff 00 	movl   $0x0,-0xc78(%rbp)
    bb33:	00 00 00 
    bb36:	c7 85 8c f3 ff ff 5a 	movl   $0x3506c35a,-0xc74(%rbp)
    bb3d:	c3 06 35 
    bb40:	c7 85 90 f3 ff ff 00 	movl   $0x0,-0xc70(%rbp)
    bb47:	00 00 00 
    bb4a:	c7 85 94 f3 ff ff fd 	movl   $0xfffffffd,-0xc6c(%rbp)
    bb51:	ff ff ff 
    bb54:	c7 85 98 f3 ff ff fd 	movl   $0xfffffffd,-0xc68(%rbp)
    bb5b:	ff ff ff 
    bb5e:	c7 85 9c f3 ff ff 06 	movl   $0x6,-0xc64(%rbp)
    bb65:	00 00 00 
    bb68:	c7 85 a0 f3 ff ff 78 	movl   $0x72a61a78,-0xc60(%rbp)
    bb6f:	1a a6 72 
    bb72:	c7 85 a4 f3 ff ff 0d 	movl   $0xe4bf430d,-0xc5c(%rbp)
    bb79:	43 bf e4 
    bb7c:	c7 85 a8 f3 ff ff ff 	movl   $0xffffffff,-0xc58(%rbp)
    bb83:	ff ff ff 
    bb86:	c7 85 ac f3 ff ff 10 	movl   $0x10ef6010,-0xc54(%rbp)
    bb8d:	60 ef 10 
    bb90:	c7 85 b0 f3 ff ff 10 	movl   $0x10ef6010,-0xc50(%rbp)
    bb97:	60 ef 10 
    bb9a:	c7 85 b4 f3 ff ff ff 	movl   $0xffffffff,-0xc4c(%rbp)
    bba1:	ff ff ff 
    bba4:	c7 85 b8 f3 ff ff 00 	movl   $0x0,-0xc48(%rbp)
    bbab:	00 00 00 
    bbae:	c7 85 bc f3 ff ff d2 	movl   $0x5b625fd2,-0xc44(%rbp)
    bbb5:	5f 62 5b 
    bbb8:	c7 85 c0 f3 ff ff 78 	movl   $0x72a61a78,-0xc40(%rbp)
    bbbf:	1a a6 72 
    bbc2:	c7 85 c4 f3 ff ff a9 	movl   $0x42ac23a9,-0xc3c(%rbp)
    bbc9:	23 ac 42 
    bbcc:	c7 85 c8 f3 ff ff a9 	movl   $0x42ac23a9,-0xc38(%rbp)
    bbd3:	23 ac 42 
    bbd6:	c7 85 cc f3 ff ff 78 	movl   $0x72a61a78,-0xc34(%rbp)
    bbdd:	1a a6 72 
    bbe0:	48 c7 85 40 f2 ff ff 	movq   $0x0,-0xdc0(%rbp)
    bbe7:	00 00 00 00 
    bbeb:	48 8d 85 30 f2 ff ff 	lea    -0xdd0(%rbp),%rax
    bbf2:	48 89 85 c0 f4 ff ff 	mov    %rax,-0xb40(%rbp)
    bbf9:	48 8d 85 30 f2 ff ff 	lea    -0xdd0(%rbp),%rax
    bc00:	48 89 85 c8 f4 ff ff 	mov    %rax,-0xb38(%rbp)
    bc07:	48 8d 85 30 f2 ff ff 	lea    -0xdd0(%rbp),%rax
    bc0e:	48 89 85 d0 f4 ff ff 	mov    %rax,-0xb30(%rbp)
    bc15:	48 8d 85 30 f2 ff ff 	lea    -0xdd0(%rbp),%rax
    bc1c:	48 89 85 d8 f4 ff ff 	mov    %rax,-0xb28(%rbp)
    bc23:	48 8d 85 30 f2 ff ff 	lea    -0xdd0(%rbp),%rax
    bc2a:	48 89 85 e0 f4 ff ff 	mov    %rax,-0xb20(%rbp)
    bc31:	48 8d 85 30 f2 ff ff 	lea    -0xdd0(%rbp),%rax
    bc38:	48 89 85 e8 f4 ff ff 	mov    %rax,-0xb18(%rbp)
    bc3f:	48 8d 85 30 f2 ff ff 	lea    -0xdd0(%rbp),%rax
    bc46:	48 89 85 f0 f4 ff ff 	mov    %rax,-0xb10(%rbp)
    bc4d:	48 8d 85 30 f2 ff ff 	lea    -0xdd0(%rbp),%rax
    bc54:	48 89 85 f8 f4 ff ff 	mov    %rax,-0xb08(%rbp)
    bc5b:	48 8d 85 30 f2 ff ff 	lea    -0xdd0(%rbp),%rax
    bc62:	48 89 85 00 f5 ff ff 	mov    %rax,-0xb00(%rbp)
    bc69:	48 8d 85 30 f2 ff ff 	lea    -0xdd0(%rbp),%rax
    bc70:	48 89 85 08 f5 ff ff 	mov    %rax,-0xaf8(%rbp)
    bc77:	48 8d 85 30 f2 ff ff 	lea    -0xdd0(%rbp),%rax
    bc7e:	48 89 85 10 f5 ff ff 	mov    %rax,-0xaf0(%rbp)
    bc85:	48 8d 85 30 f2 ff ff 	lea    -0xdd0(%rbp),%rax
    bc8c:	48 89 85 18 f5 ff ff 	mov    %rax,-0xae8(%rbp)
    bc93:	48 8d 85 30 f2 ff ff 	lea    -0xdd0(%rbp),%rax
    bc9a:	48 89 85 20 f5 ff ff 	mov    %rax,-0xae0(%rbp)
    bca1:	48 8d 85 30 f2 ff ff 	lea    -0xdd0(%rbp),%rax
    bca8:	48 89 85 28 f5 ff ff 	mov    %rax,-0xad8(%rbp)
    bcaf:	48 8d 85 30 f2 ff ff 	lea    -0xdd0(%rbp),%rax
    bcb6:	48 89 85 30 f5 ff ff 	mov    %rax,-0xad0(%rbp)
    bcbd:	48 8d 85 30 f2 ff ff 	lea    -0xdd0(%rbp),%rax
    bcc4:	48 89 85 38 f5 ff ff 	mov    %rax,-0xac8(%rbp)
    bccb:	48 8d 85 30 f2 ff ff 	lea    -0xdd0(%rbp),%rax
    bcd2:	48 89 85 40 f5 ff ff 	mov    %rax,-0xac0(%rbp)
    bcd9:	48 8d 85 30 f2 ff ff 	lea    -0xdd0(%rbp),%rax
    bce0:	48 89 85 48 f5 ff ff 	mov    %rax,-0xab8(%rbp)
    bce7:	48 8d 85 30 f2 ff ff 	lea    -0xdd0(%rbp),%rax
    bcee:	48 89 85 50 f5 ff ff 	mov    %rax,-0xab0(%rbp)
    bcf5:	48 8d 85 30 f2 ff ff 	lea    -0xdd0(%rbp),%rax
    bcfc:	48 89 85 58 f5 ff ff 	mov    %rax,-0xaa8(%rbp)
    bd03:	48 8d 85 30 f2 ff ff 	lea    -0xdd0(%rbp),%rax
    bd0a:	48 89 85 60 f5 ff ff 	mov    %rax,-0xaa0(%rbp)
    bd11:	48 8d 85 30 f2 ff ff 	lea    -0xdd0(%rbp),%rax
    bd18:	48 89 85 68 f5 ff ff 	mov    %rax,-0xa98(%rbp)
    bd1f:	48 8d 85 30 f2 ff ff 	lea    -0xdd0(%rbp),%rax
    bd26:	48 89 85 70 f5 ff ff 	mov    %rax,-0xa90(%rbp)
    bd2d:	48 8d 85 30 f2 ff ff 	lea    -0xdd0(%rbp),%rax
    bd34:	48 89 85 78 f5 ff ff 	mov    %rax,-0xa88(%rbp)
    bd3b:	48 8d 85 30 f2 ff ff 	lea    -0xdd0(%rbp),%rax
    bd42:	48 89 85 80 f5 ff ff 	mov    %rax,-0xa80(%rbp)
    bd49:	48 8d 85 30 f2 ff ff 	lea    -0xdd0(%rbp),%rax
    bd50:	48 89 85 88 f5 ff ff 	mov    %rax,-0xa78(%rbp)
    bd57:	48 8d 85 30 f2 ff ff 	lea    -0xdd0(%rbp),%rax
    bd5e:	48 89 85 90 f5 ff ff 	mov    %rax,-0xa70(%rbp)
    bd65:	48 8d 85 30 f2 ff ff 	lea    -0xdd0(%rbp),%rax
    bd6c:	48 89 85 98 f5 ff ff 	mov    %rax,-0xa68(%rbp)
    bd73:	48 8d 85 30 f2 ff ff 	lea    -0xdd0(%rbp),%rax
    bd7a:	48 89 85 a0 f5 ff ff 	mov    %rax,-0xa60(%rbp)
    bd81:	48 8d 85 30 f2 ff ff 	lea    -0xdd0(%rbp),%rax
    bd88:	48 89 85 a8 f5 ff ff 	mov    %rax,-0xa58(%rbp)
    bd8f:	48 8d 85 30 f2 ff ff 	lea    -0xdd0(%rbp),%rax
    bd96:	48 89 85 b0 f5 ff ff 	mov    %rax,-0xa50(%rbp)
    bd9d:	48 8d 85 30 f2 ff ff 	lea    -0xdd0(%rbp),%rax
    bda4:	48 89 85 b8 f5 ff ff 	mov    %rax,-0xa48(%rbp)
    bdab:	48 8d 85 30 f2 ff ff 	lea    -0xdd0(%rbp),%rax
    bdb2:	48 89 85 c0 f5 ff ff 	mov    %rax,-0xa40(%rbp)
    bdb9:	48 8d 85 30 f2 ff ff 	lea    -0xdd0(%rbp),%rax
    bdc0:	48 89 85 c8 f5 ff ff 	mov    %rax,-0xa38(%rbp)
    bdc7:	48 8d 85 30 f2 ff ff 	lea    -0xdd0(%rbp),%rax
    bdce:	48 89 85 d0 f5 ff ff 	mov    %rax,-0xa30(%rbp)
    bdd5:	48 8d 85 30 f2 ff ff 	lea    -0xdd0(%rbp),%rax
    bddc:	48 89 85 d8 f5 ff ff 	mov    %rax,-0xa28(%rbp)
    bde3:	48 8d 85 30 f2 ff ff 	lea    -0xdd0(%rbp),%rax
    bdea:	48 89 85 e0 f5 ff ff 	mov    %rax,-0xa20(%rbp)
    bdf1:	48 8d 85 30 f2 ff ff 	lea    -0xdd0(%rbp),%rax
    bdf8:	48 89 85 e8 f5 ff ff 	mov    %rax,-0xa18(%rbp)
    bdff:	48 8d 85 30 f2 ff ff 	lea    -0xdd0(%rbp),%rax
    be06:	48 89 85 f0 f5 ff ff 	mov    %rax,-0xa10(%rbp)
    be0d:	48 8d 85 30 f2 ff ff 	lea    -0xdd0(%rbp),%rax
    be14:	48 89 85 f8 f5 ff ff 	mov    %rax,-0xa08(%rbp)
    be1b:	48 8d 85 30 f2 ff ff 	lea    -0xdd0(%rbp),%rax
    be22:	48 89 85 00 f6 ff ff 	mov    %rax,-0xa00(%rbp)
    be29:	48 8d 85 30 f2 ff ff 	lea    -0xdd0(%rbp),%rax
    be30:	48 89 85 08 f6 ff ff 	mov    %rax,-0x9f8(%rbp)
    be37:	48 8d 85 38 f2 ff ff 	lea    -0xdc8(%rbp),%rax
    be3e:	48 89 85 48 f2 ff ff 	mov    %rax,-0xdb8(%rbp)
    be45:	48 c7 85 d0 f3 ff ff 	movq   $0x0,-0xc30(%rbp)
    be4c:	00 00 00 00 
    be50:	48 8d 85 48 f2 ff ff 	lea    -0xdb8(%rbp),%rax
    be57:	48 89 85 d8 f3 ff ff 	mov    %rax,-0xc28(%rbp)
    be5e:	48 8d 85 48 f2 ff ff 	lea    -0xdb8(%rbp),%rax
    be65:	48 89 85 e0 f3 ff ff 	mov    %rax,-0xc20(%rbp)
    be6c:	48 8d 85 48 f2 ff ff 	lea    -0xdb8(%rbp),%rax
    be73:	48 89 85 e8 f3 ff ff 	mov    %rax,-0xc18(%rbp)
    be7a:	48 c7 85 f0 f3 ff ff 	movq   $0x0,-0xc10(%rbp)
    be81:	00 00 00 00 
    be85:	48 c7 85 f8 f3 ff ff 	movq   $0x0,-0xc08(%rbp)
    be8c:	00 00 00 00 
    be90:	48 c7 85 00 f4 ff ff 	movq   $0x0,-0xc00(%rbp)
    be97:	00 00 00 00 
    be9b:	48 c7 85 08 f4 ff ff 	movq   $0x0,-0xbf8(%rbp)
    bea2:	00 00 00 00 
    bea6:	48 c7 85 10 f4 ff ff 	movq   $0x0,-0xbf0(%rbp)
    bead:	00 00 00 00 
    beb1:	48 c7 85 18 f4 ff ff 	movq   $0x0,-0xbe8(%rbp)
    beb8:	00 00 00 00 
    bebc:	48 8d 85 48 f2 ff ff 	lea    -0xdb8(%rbp),%rax
    bec3:	48 89 85 20 f4 ff ff 	mov    %rax,-0xbe0(%rbp)
    beca:	48 8d 85 48 f2 ff ff 	lea    -0xdb8(%rbp),%rax
    bed1:	48 89 85 28 f4 ff ff 	mov    %rax,-0xbd8(%rbp)
    bed8:	48 8d 85 48 f2 ff ff 	lea    -0xdb8(%rbp),%rax
    bedf:	48 89 85 30 f4 ff ff 	mov    %rax,-0xbd0(%rbp)
    bee6:	48 c7 85 38 f4 ff ff 	movq   $0x0,-0xbc8(%rbp)
    beed:	00 00 00 00 
    bef1:	48 8d 85 48 f2 ff ff 	lea    -0xdb8(%rbp),%rax
    bef8:	48 89 85 40 f4 ff ff 	mov    %rax,-0xbc0(%rbp)
    beff:	48 8d 85 48 f2 ff ff 	lea    -0xdb8(%rbp),%rax
    bf06:	48 89 85 48 f4 ff ff 	mov    %rax,-0xbb8(%rbp)
    bf0d:	48 c7 85 50 f4 ff ff 	movq   $0x0,-0xbb0(%rbp)
    bf14:	00 00 00 00 
    bf18:	48 c7 85 58 f4 ff ff 	movq   $0x0,-0xba8(%rbp)
    bf1f:	00 00 00 00 
    bf23:	48 c7 85 60 f4 ff ff 	movq   $0x0,-0xba0(%rbp)
    bf2a:	00 00 00 00 
    bf2e:	48 8d 85 48 f2 ff ff 	lea    -0xdb8(%rbp),%rax
    bf35:	48 89 85 68 f4 ff ff 	mov    %rax,-0xb98(%rbp)
    bf3c:	48 8d 85 48 f2 ff ff 	lea    -0xdb8(%rbp),%rax
    bf43:	48 89 85 70 f4 ff ff 	mov    %rax,-0xb90(%rbp)
    bf4a:	48 c7 85 78 f4 ff ff 	movq   $0x0,-0xb88(%rbp)
    bf51:	00 00 00 00 
    bf55:	48 8d 85 48 f2 ff ff 	lea    -0xdb8(%rbp),%rax
    bf5c:	48 89 85 80 f4 ff ff 	mov    %rax,-0xb80(%rbp)
    bf63:	48 8d 85 48 f2 ff ff 	lea    -0xdb8(%rbp),%rax
    bf6a:	48 89 85 88 f4 ff ff 	mov    %rax,-0xb78(%rbp)
    bf71:	48 8d 85 48 f2 ff ff 	lea    -0xdb8(%rbp),%rax
    bf78:	48 89 85 90 f4 ff ff 	mov    %rax,-0xb70(%rbp)
    bf7f:	48 c7 85 98 f4 ff ff 	movq   $0x0,-0xb68(%rbp)
    bf86:	00 00 00 00 
    bf8a:	48 c7 85 a0 f4 ff ff 	movq   $0x0,-0xb60(%rbp)
    bf91:	00 00 00 00 
    bf95:	48 c7 85 a8 f4 ff ff 	movq   $0x0,-0xb58(%rbp)
    bf9c:	00 00 00 00 
    bfa0:	48 c7 85 b0 f4 ff ff 	movq   $0x0,-0xb50(%rbp)
    bfa7:	00 00 00 00 
    bfab:	48 c7 85 b8 f4 ff ff 	movq   $0x0,-0xb48(%rbp)
    bfb2:	00 00 00 00 
    bfb6:	48 c7 85 50 f2 ff ff 	movq   $0x0,-0xdb0(%rbp)
    bfbd:	00 00 00 00 
    bfc1:	48 8d 85 50 f2 ff ff 	lea    -0xdb0(%rbp),%rax
    bfc8:	48 89 85 58 f2 ff ff 	mov    %rax,-0xda8(%rbp)
    bfcf:	48 8d 85 58 f2 ff ff 	lea    -0xda8(%rbp),%rax
    bfd6:	48 89 85 c0 f2 ff ff 	mov    %rax,-0xd40(%rbp)
    bfdd:	c7 05 11 b1 00 00 e7 	movl   $0xffffffe7,0xb111(%rip)        # 170f8 <g_27>
    bfe4:	ff ff ff 
    bfe7:	e9 3e 01 00 00       	jmpq   c12a <func_42+0x1166>
    bfec:	48 8d 05 b5 b3 00 00 	lea    0xb3b5(%rip),%rax        # 173a8 <g_433>
    bff3:	48 89 85 c8 f2 ff ff 	mov    %rax,-0xd38(%rbp)
    bffa:	48 8d 05 6f b3 00 00 	lea    0xb36f(%rip),%rax        # 17370 <g_312+0x70>
    c001:	48 89 85 d0 f2 ff ff 	mov    %rax,-0xd30(%rbp)
    c008:	48 8d 05 81 b3 00 00 	lea    0xb381(%rip),%rax        # 17390 <g_370>
    c00f:	48 89 85 d8 f2 ff ff 	mov    %rax,-0xd28(%rbp)
    c016:	c7 85 10 f2 ff ff ff 	movl   $0xffffffff,-0xdf0(%rbp)
    c01d:	ff ff ff 
    c020:	c7 85 14 f2 ff ff f8 	movl   $0xfffffff8,-0xdec(%rbp)
    c027:	ff ff ff 
    c02a:	48 8d 85 40 f2 ff ff 	lea    -0xdc0(%rbp),%rax
    c031:	48 89 85 e0 f2 ff ff 	mov    %rax,-0xd20(%rbp)
    c038:	48 8d 05 59 b3 00 00 	lea    0xb359(%rip),%rax        # 17398 <g_370+0x8>
    c03f:	48 89 85 60 f2 ff ff 	mov    %rax,-0xda0(%rbp)
    c046:	48 8d 85 60 f2 ff ff 	lea    -0xda0(%rbp),%rax
    c04d:	48 89 85 e8 f2 ff ff 	mov    %rax,-0xd18(%rbp)
    c054:	48 8d 85 10 f6 ff ff 	lea    -0x9f0(%rbp),%rax
    c05b:	48 8d 15 3e 6f 00 00 	lea    0x6f3e(%rip),%rdx        # 12fa0 <g_332+0xf40>
    c062:	b9 2d 00 00 00       	mov    $0x2d,%ecx
    c067:	48 89 c7             	mov    %rax,%rdi
    c06a:	48 89 d6             	mov    %rdx,%rsi
    c06d:	f3 48 a5             	rep movsq %ds:(%rsi),%es:(%rdi)
    c070:	66 c7 85 ee f1 ff ff 	movw   $0x0,-0xe12(%rbp)
    c077:	00 00 
    c079:	c7 85 18 f2 ff ff 41 	movl   $0xc5a6d941,-0xde8(%rbp)
    c080:	d9 a6 c5 
    c083:	c7 85 1c f2 ff ff 00 	movl   $0x0,-0xde4(%rbp)
    c08a:	00 00 00 
    c08d:	c7 85 20 f2 ff ff 03 	movl   $0x3,-0xde0(%rbp)
    c094:	00 00 00 
    c097:	c7 85 24 f2 ff ff e2 	movl   $0x1698ae2,-0xddc(%rbp)
    c09e:	8a 69 01 
    c0a1:	c6 85 f0 f2 ff ff 00 	movb   $0x0,-0xd10(%rbp)
    c0a8:	48 c7 85 f8 f2 ff ff 	movq   $0xffffffffffffffff,-0xd08(%rbp)
    c0af:	ff ff ff ff 
    c0b3:	0f b7 85 00 f3 ff ff 	movzwl -0xd00(%rbp),%eax
    c0ba:	66 25 00 f8          	and    $0xf800,%ax
    c0be:	83 c8 2a             	or     $0x2a,%eax
    c0c1:	66 89 85 00 f3 ff ff 	mov    %ax,-0xd00(%rbp)
    c0c8:	c7 85 fc f1 ff ff 00 	movl   $0x0,-0xe04(%rbp)
    c0cf:	00 00 00 
    c0d2:	eb 1a                	jmp    c0ee <func_42+0x112a>
    c0d4:	8b 85 fc f1 ff ff    	mov    -0xe04(%rbp),%eax
    c0da:	48 98                	cltq   
    c0dc:	c7 84 85 10 f3 ff ff 	movl   $0x0,-0xcf0(%rbp,%rax,4)
    c0e3:	00 00 00 00 
    c0e7:	83 85 fc f1 ff ff 01 	addl   $0x1,-0xe04(%rbp)
    c0ee:	83 bd fc f1 ff ff 04 	cmpl   $0x4,-0xe04(%rbp)
    c0f5:	7e dd                	jle    c0d4 <func_42+0x1110>
    c0f7:	48 8b 85 c8 f2 ff ff 	mov    -0xd38(%rbp),%rax
    c0fe:	8b 00                	mov    (%rax),%eax
    c100:	25 20 2a 60 8b       	and    $0x8b602a20,%eax
    c105:	89 c2                	mov    %eax,%edx
    c107:	48 8b 85 c8 f2 ff ff 	mov    -0xd38(%rbp),%rax
    c10e:	89 10                	mov    %edx,(%rax)
    c110:	8b 05 e2 af 00 00    	mov    0xafe2(%rip),%eax        # 170f8 <g_27>
    c116:	98                   	cwtl   
    c117:	be 01 00 00 00       	mov    $0x1,%esi
    c11c:	89 c7                	mov    %eax,%edi
    c11e:	e8 90 a2 ff ff       	callq  63b3 <safe_add_func_int16_t_s_s>
    c123:	98                   	cwtl   
    c124:	89 05 ce af 00 00    	mov    %eax,0xafce(%rip)        # 170f8 <g_27>
    c12a:	8b 05 c8 af 00 00    	mov    0xafc8(%rip),%eax        # 170f8 <g_27>
    c130:	83 f8 23             	cmp    $0x23,%eax
    c133:	0f 84 b3 fe ff ff    	je     bfec <func_42+0x1028>
    c139:	0f b6 05 da af 00 00 	movzbl 0xafda(%rip),%eax        # 1711a <g_85>
    c140:	0f be c0             	movsbl %al,%eax
    c143:	be 04 00 00 00       	mov    $0x4,%esi
    c148:	89 c7                	mov    %eax,%edi
    c14a:	e8 81 ad ff ff       	callq  6ed0 <safe_sub_func_uint32_t_u_u>
    c14f:	88 05 c5 af 00 00    	mov    %al,0xafc5(%rip)        # 1711a <g_85>
    c155:	0f b6 05 be af 00 00 	movzbl 0xafbe(%rip),%eax        # 1711a <g_85>
    c15c:	3c e5                	cmp    $0xe5,%al
    c15e:	0f 8c c7 f8 ff ff    	jl     ba2b <func_42+0xa67>
    c164:	8b 85 d4 f1 ff ff    	mov    -0xe2c(%rbp),%eax
    c16a:	0f be d8             	movsbl %al,%ebx
    c16d:	48 8b 85 a0 f2 ff ff 	mov    -0xd60(%rbp),%rax
    c174:	c7 00 01 00 00 00    	movl   $0x1,(%rax)
    c17a:	48 8b 85 a0 f2 ff ff 	mov    -0xd60(%rbp),%rax
    c181:	8b 95 d4 f1 ff ff    	mov    -0xe2c(%rbp),%edx
    c187:	89 10                	mov    %edx,(%rax)
    c189:	48 8b 85 a0 f2 ff ff 	mov    -0xd60(%rbp),%rax
    c190:	8b 00                	mov    (%rax),%eax
    c192:	83 e0 02             	and    $0x2,%eax
    c195:	89 c7                	mov    %eax,%edi
    c197:	e8 0a ad ff ff       	callq  6ea6 <safe_unary_minus_func_uint32_t_u>
    c19c:	89 c2                	mov    %eax,%edx
    c19e:	48 8b 85 a8 f2 ff ff 	mov    -0xd58(%rbp),%rax
    c1a5:	48 89 10             	mov    %rdx,(%rax)
    c1a8:	48 8b 85 a8 f2 ff ff 	mov    -0xd58(%rbp),%rax
    c1af:	48 8b 00             	mov    (%rax),%rax
    c1b2:	48 be 7a 77 56 cd 7a 	movabs $0x58a78b7acd56777a,%rsi
    c1b9:	8b a7 58 
    c1bc:	48 89 c7             	mov    %rax,%rdi
    c1bf:	e8 f0 a7 ff ff       	callq  69b4 <safe_mod_func_int64_t_s_s>
    c1c4:	0f be c0             	movsbl %al,%eax
    c1c7:	89 de                	mov    %ebx,%esi
    c1c9:	89 c7                	mov    %eax,%edi
    c1cb:	e8 22 a0 ff ff       	callq  61f2 <safe_sub_func_int8_t_s_s>
    c1d0:	0f be c0             	movsbl %al,%eax
    c1d3:	39 85 d4 f1 ff ff    	cmp    %eax,-0xe2c(%rbp)
    c1d9:	48 8b 85 90 f2 ff ff 	mov    -0xd70(%rbp),%rax
    c1e0:	8b 00                	mov    (%rax),%eax
    c1e2:	89 c2                	mov    %eax,%edx
    c1e4:	48 8b 85 98 f2 ff ff 	mov    -0xd68(%rbp),%rax
    c1eb:	88 10                	mov    %dl,(%rax)
    c1ed:	48 8b 85 98 f2 ff ff 	mov    -0xd68(%rbp),%rax
    c1f4:	0f b6 00             	movzbl (%rax),%eax
    c1f7:	66 0f be c8          	movsbw %al,%cx
    c1fb:	48 8b 85 d8 fb ff ff 	mov    -0x428(%rbp),%rax
    c202:	48 8d 15 e3 ae 00 00 	lea    0xaee3(%rip),%rdx        # 170ec <g_13>
    c209:	48 39 d0             	cmp    %rdx,%rax
    c20c:	0f 95 c0             	setne  %al
    c20f:	0f b6 d0             	movzbl %al,%edx
    c212:	48 8b 05 27 cc 00 00 	mov    0xcc27(%rip),%rax        # 18e40 <g_784>
    c219:	21 ca                	and    %ecx,%edx
    c21b:	66 89 10             	mov    %dx,(%rax)
    c21e:	8b 85 d4 f1 ff ff    	mov    -0xe2c(%rbp),%eax
    c224:	89 c6                	mov    %eax,%esi
    c226:	bf 51 00 00 00       	mov    $0x51,%edi
    c22b:	e8 3c a1 ff ff       	callq  636c <safe_rshift_func_int8_t_s_u>
    c230:	84 c0                	test   %al,%al
    c232:	74 2f                	je     c263 <func_42+0x129f>
    c234:	c6 85 eb f1 ff ff fe 	movb   $0xfe,-0xe15(%rbp)
    c23b:	48 8b 85 90 f2 ff ff 	mov    -0xd70(%rbp),%rax
    c242:	8b 10                	mov    (%rax),%edx
    c244:	8b 05 1a b3 00 00    	mov    0xb31a(%rip),%eax        # 17564 <g_736+0x4>
    c24a:	39 85 d4 f1 ff ff    	cmp    %eax,-0xe2c(%rbp)
    c250:	0f 92 c0             	setb   %al
    c253:	0f b6 c0             	movzbl %al,%eax
    c256:	21 c2                	and    %eax,%edx
    c258:	48 8b 85 90 f2 ff ff 	mov    -0xd70(%rbp),%rax
    c25f:	89 10                	mov    %edx,(%rax)
    c261:	eb 35                	jmp    c298 <func_42+0x12d4>
    c263:	48 8d 05 76 b1 00 00 	lea    0xb176(%rip),%rax        # 173e0 <g_638>
    c26a:	48 89 85 b0 f2 ff ff 	mov    %rax,-0xd50(%rbp)
    c271:	48 8b 05 30 cb 00 00 	mov    0xcb30(%rip),%rax        # 18da8 <g_65>
    c278:	48 8b 30             	mov    (%rax),%rsi
    c27b:	48 8b 8d b0 f2 ff ff 	mov    -0xd50(%rbp),%rcx
    c282:	48 8b 06             	mov    (%rsi),%rax
    c285:	48 8b 56 08          	mov    0x8(%rsi),%rdx
    c289:	48 89 01             	mov    %rax,(%rcx)
    c28c:	48 89 51 08          	mov    %rdx,0x8(%rcx)
    c290:	48 8b 46 10          	mov    0x10(%rsi),%rax
    c294:	48 89 41 10          	mov    %rax,0x10(%rcx)
    c298:	48 8b 85 d8 f1 ff ff 	mov    -0xe28(%rbp),%rax
    c29f:	48 8b 5d e8          	mov    -0x18(%rbp),%rbx
    c2a3:	64 48 33 1c 25 28 00 	xor    %fs:0x28,%rbx
    c2aa:	00 00 
    c2ac:	74 05                	je     c2b3 <func_42+0x12ef>
    c2ae:	e8 bd 9d ff ff       	callq  6070 <__stack_chk_fail@plt>
    c2b3:	48 81 c4 28 0e 00 00 	add    $0xe28,%rsp
    c2ba:	5b                   	pop    %rbx
    c2bb:	5d                   	pop    %rbp
    c2bc:	c3                   	retq   

000000000000c2bd <func_45>:
    c2bd:	f3 0f 1e fa          	endbr64 
    c2c1:	55                   	push   %rbp
    c2c2:	48 89 e5             	mov    %rsp,%rbp
    c2c5:	48 83 ec 40          	sub    $0x40,%rsp
    c2c9:	89 7d dc             	mov    %edi,-0x24(%rbp)
    c2cc:	48 89 75 d0          	mov    %rsi,-0x30(%rbp)
    c2d0:	48 89 55 c8          	mov    %rdx,-0x38(%rbp)
    c2d4:	89 4d d8             	mov    %ecx,-0x28(%rbp)
    c2d7:	44 89 c0             	mov    %r8d,%eax
    c2da:	66 89 45 c4          	mov    %ax,-0x3c(%rbp)
    c2de:	64 48 8b 04 25 28 00 	mov    %fs:0x28,%rax
    c2e5:	00 00 
    c2e7:	48 89 45 f8          	mov    %rax,-0x8(%rbp)
    c2eb:	31 c0                	xor    %eax,%eax
    c2ed:	c7 45 ec 00 00 00 00 	movl   $0x0,-0x14(%rbp)
    c2f4:	eb 12                	jmp    c308 <func_45+0x4b>
    c2f6:	8b 45 ec             	mov    -0x14(%rbp),%eax
    c2f9:	48 98                	cltq   
    c2fb:	48 c7 44 c5 f0 00 00 	movq   $0x0,-0x10(%rbp,%rax,8)
    c302:	00 00 
    c304:	83 45 ec 01          	addl   $0x1,-0x14(%rbp)
    c308:	83 7d ec 00          	cmpl   $0x0,-0x14(%rbp)
    c30c:	7e e8                	jle    c2f6 <func_45+0x39>
    c30e:	48 8b 45 f0          	mov    -0x10(%rbp),%rax
    c312:	48 8b 55 f8          	mov    -0x8(%rbp),%rdx
    c316:	64 48 33 14 25 28 00 	xor    %fs:0x28,%rdx
    c31d:	00 00 
    c31f:	74 05                	je     c326 <func_45+0x69>
    c321:	e8 4a 9d ff ff       	callq  6070 <__stack_chk_fail@plt>
    c326:	c9                   	leaveq 
    c327:	c3                   	retq   

000000000000c328 <func_51>:
    c328:	f3 0f 1e fa          	endbr64 
    c32c:	55                   	push   %rbp
    c32d:	48 89 e5             	mov    %rsp,%rbp
    c330:	53                   	push   %rbx
    c331:	48 81 ec 28 01 00 00 	sub    $0x128,%rsp
    c338:	89 f8                	mov    %edi,%eax
    c33a:	88 85 dc fe ff ff    	mov    %al,-0x124(%rbp)
    c340:	64 48 8b 04 25 28 00 	mov    %fs:0x28,%rax
    c347:	00 00 
    c349:	48 89 45 e8          	mov    %rax,-0x18(%rbp)
    c34d:	31 c0                	xor    %eax,%eax
    c34f:	c7 85 e8 fe ff ff 87 	movl   $0xcf2ec287,-0x118(%rbp)
    c356:	c2 2e cf 
    c359:	48 8d 85 e8 fe ff ff 	lea    -0x118(%rbp),%rax
    c360:	48 89 85 f0 fe ff ff 	mov    %rax,-0x110(%rbp)
    c367:	48 8d 85 f0 fe ff ff 	lea    -0x110(%rbp),%rax
    c36e:	48 89 85 30 ff ff ff 	mov    %rax,-0xd0(%rbp)
    c375:	48 8d 85 f0 fe ff ff 	lea    -0x110(%rbp),%rax
    c37c:	48 89 85 38 ff ff ff 	mov    %rax,-0xc8(%rbp)
    c383:	48 8d 85 f0 fe ff ff 	lea    -0x110(%rbp),%rax
    c38a:	48 89 85 40 ff ff ff 	mov    %rax,-0xc0(%rbp)
    c391:	48 8d 85 f0 fe ff ff 	lea    -0x110(%rbp),%rax
    c398:	48 89 85 48 ff ff ff 	mov    %rax,-0xb8(%rbp)
    c39f:	48 8d 85 f0 fe ff ff 	lea    -0x110(%rbp),%rax
    c3a6:	48 89 85 50 ff ff ff 	mov    %rax,-0xb0(%rbp)
    c3ad:	48 8d 85 f0 fe ff ff 	lea    -0x110(%rbp),%rax
    c3b4:	48 89 85 58 ff ff ff 	mov    %rax,-0xa8(%rbp)
    c3bb:	48 8d 85 f0 fe ff ff 	lea    -0x110(%rbp),%rax
    c3c2:	48 89 85 60 ff ff ff 	mov    %rax,-0xa0(%rbp)
    c3c9:	48 8d 85 f0 fe ff ff 	lea    -0x110(%rbp),%rax
    c3d0:	48 89 85 f8 fe ff ff 	mov    %rax,-0x108(%rbp)
    c3d7:	c7 85 10 ff ff ff 00 	movl   $0x4290900,-0xf0(%rbp)
    c3de:	09 29 04 
    c3e1:	c7 85 14 ff ff ff 00 	movl   $0x4290900,-0xec(%rbp)
    c3e8:	09 29 04 
    c3eb:	c7 85 18 ff ff ff 00 	movl   $0x4290900,-0xe8(%rbp)
    c3f2:	09 29 04 
    c3f5:	c7 85 1c ff ff ff 00 	movl   $0x4290900,-0xe4(%rbp)
    c3fc:	09 29 04 
    c3ff:	c7 85 20 ff ff ff 00 	movl   $0x4290900,-0xe0(%rbp)
    c406:	09 29 04 
    c409:	c7 85 24 ff ff ff 00 	movl   $0x4290900,-0xdc(%rbp)
    c410:	09 29 04 
    c413:	c7 85 70 ff ff ff 05 	movl   $0x5,-0x90(%rbp)
    c41a:	00 00 00 
    c41d:	c7 85 74 ff ff ff 01 	movl   $0x1,-0x8c(%rbp)
    c424:	00 00 00 
    c427:	c7 85 78 ff ff ff 01 	movl   $0x1,-0x88(%rbp)
    c42e:	00 00 00 
    c431:	c7 85 7c ff ff ff 05 	movl   $0x5,-0x84(%rbp)
    c438:	00 00 00 
    c43b:	c7 45 80 01 00 00 00 	movl   $0x1,-0x80(%rbp)
    c442:	c7 45 84 01 00 00 00 	movl   $0x1,-0x7c(%rbp)
    c449:	c7 45 88 05 00 00 00 	movl   $0x5,-0x78(%rbp)
    c450:	c7 45 8c 01 00 00 00 	movl   $0x1,-0x74(%rbp)
    c457:	c7 45 90 01 00 00 00 	movl   $0x1,-0x70(%rbp)
    c45e:	c7 45 94 05 00 00 00 	movl   $0x5,-0x6c(%rbp)
    c465:	c7 45 98 01 00 00 00 	movl   $0x1,-0x68(%rbp)
    c46c:	c7 45 9c 01 00 00 00 	movl   $0x1,-0x64(%rbp)
    c473:	c7 45 a0 05 00 00 00 	movl   $0x5,-0x60(%rbp)
    c47a:	c7 45 a4 01 00 00 00 	movl   $0x1,-0x5c(%rbp)
    c481:	c7 45 a8 01 00 00 00 	movl   $0x1,-0x58(%rbp)
    c488:	c7 45 ac 05 00 00 00 	movl   $0x5,-0x54(%rbp)
    c48f:	c7 45 b0 01 00 00 00 	movl   $0x1,-0x50(%rbp)
    c496:	c7 45 b4 01 00 00 00 	movl   $0x1,-0x4c(%rbp)
    c49d:	c7 45 b8 05 00 00 00 	movl   $0x5,-0x48(%rbp)
    c4a4:	c7 45 bc 01 00 00 00 	movl   $0x1,-0x44(%rbp)
    c4ab:	c7 45 c0 01 00 00 00 	movl   $0x1,-0x40(%rbp)
    c4b2:	c7 45 c4 05 00 00 00 	movl   $0x5,-0x3c(%rbp)
    c4b9:	c7 45 c8 01 00 00 00 	movl   $0x1,-0x38(%rbp)
    c4c0:	c7 45 cc 01 00 00 00 	movl   $0x1,-0x34(%rbp)
    c4c7:	c7 45 d0 05 00 00 00 	movl   $0x5,-0x30(%rbp)
    c4ce:	c7 45 d4 01 00 00 00 	movl   $0x1,-0x2c(%rbp)
    c4d5:	c7 45 d8 01 00 00 00 	movl   $0x1,-0x28(%rbp)
    c4dc:	c7 45 dc 05 00 00 00 	movl   $0x5,-0x24(%rbp)
    c4e3:	c7 45 e0 01 00 00 00 	movl   $0x1,-0x20(%rbp)
    c4ea:	c7 45 e4 01 00 00 00 	movl   $0x1,-0x1c(%rbp)
    c4f1:	66 c7 85 e6 fe ff ff 	movw   $0xffff,-0x11a(%rbp)
    c4f8:	ff ff 
    c4fa:	c7 85 ec fe ff ff 00 	movl   $0x0,-0x114(%rbp)
    c501:	00 00 00 
    c504:	eb 1e                	jmp    c524 <func_51+0x1fc>
    c506:	8b 85 ec fe ff ff    	mov    -0x114(%rbp),%eax
    c50c:	48 98                	cltq   
    c50e:	48 8d 15 93 c8 00 00 	lea    0xc893(%rip),%rdx        # 18da8 <g_65>
    c515:	48 89 94 c5 00 ff ff 	mov    %rdx,-0x100(%rbp,%rax,8)
    c51c:	ff 
    c51d:	83 85 ec fe ff ff 01 	addl   $0x1,-0x114(%rbp)
    c524:	83 bd ec fe ff ff 01 	cmpl   $0x1,-0x114(%rbp)
    c52b:	7e d9                	jle    c506 <func_51+0x1de>
    c52d:	8b 55 a4             	mov    -0x5c(%rbp),%edx
    c530:	0f be 85 dc fe ff ff 	movsbl -0x124(%rbp),%eax
    c537:	09 d0                	or     %edx,%eax
    c539:	89 05 69 ae 00 00    	mov    %eax,0xae69(%rip)        # 173a8 <g_433>
    c53f:	8b 05 63 ae 00 00    	mov    0xae63(%rip),%eax        # 173a8 <g_433>
    c545:	89 05 61 ae 00 00    	mov    %eax,0xae61(%rip)        # 173ac <g_434>
    c54b:	8b 1d 5b ae 00 00    	mov    0xae5b(%rip),%ebx        # 173ac <g_434>
    c551:	8b 05 95 ab 00 00    	mov    0xab95(%rip),%eax        # 170ec <g_13>
    c557:	89 c6                	mov    %eax,%esi
    c559:	bf 01 00 00 00       	mov    $0x1,%edi
    c55e:	e8 2f 9f ff ff       	callq  6492 <safe_lshift_func_int16_t_s_s>
    c563:	0f bf d0             	movswl %ax,%edx
    c566:	0f be 85 dc fe ff ff 	movsbl -0x124(%rbp),%eax
    c56d:	09 d0                	or     %edx,%eax
    c56f:	39 c3                	cmp    %eax,%ebx
    c571:	0f 9d c0             	setge  %al
    c574:	0f b6 d0             	movzbl %al,%edx
    c577:	8b 05 1b ab 00 00    	mov    0xab1b(%rip),%eax        # 17098 <g_5>
    c57d:	39 c2                	cmp    %eax,%edx
    c57f:	0f 9f c0             	setg   %al
    c582:	0f b6 d8             	movzbl %al,%ebx
    c585:	8b 85 24 ff ff ff    	mov    -0xdc(%rbp),%eax
    c58b:	0f bf f8             	movswl %ax,%edi
    c58e:	48 8b 0d 13 c8 00 00 	mov    0xc813(%rip),%rcx        # 18da8 <g_65>
    c595:	48 8b 85 f8 fe ff ff 	mov    -0x108(%rbp),%rax
    c59c:	48 8d 95 e8 fe ff ff 	lea    -0x118(%rbp),%rdx
    c5a3:	48 89 10             	mov    %rdx,(%rax)
    c5a6:	48 8b 85 f8 fe ff ff 	mov    -0x108(%rbp),%rax
    c5ad:	48 8b 10             	mov    (%rax),%rdx
    c5b0:	8b 05 36 ab 00 00    	mov    0xab36(%rip),%eax        # 170ec <g_13>
    c5b6:	0f bf f0             	movswl %ax,%esi
    c5b9:	8b 85 e8 fe ff ff    	mov    -0x118(%rbp),%eax
    c5bf:	41 89 f8             	mov    %edi,%r8d
    c5c2:	89 c7                	mov    %eax,%edi
    c5c4:	e8 3f 00 00 00       	callq  c608 <func_55>
    c5c9:	0f b6 c0             	movzbl %al,%eax
    c5cc:	89 de                	mov    %ebx,%esi
    c5ce:	89 c7                	mov    %eax,%edi
    c5d0:	e8 30 a6 ff ff       	callq  6c05 <safe_lshift_func_uint8_t_u_s>
    c5d5:	48 c7 05 50 c8 00 00 	movq   $0x0,0xc850(%rip)        # 18e30 <g_439>
    c5dc:	00 00 00 00 
    c5e0:	48 8b 05 c1 c7 00 00 	mov    0xc7c1(%rip),%rax        # 18da8 <g_65>
    c5e7:	48 8b 00             	mov    (%rax),%rax
    c5ea:	48 8b 4d e8          	mov    -0x18(%rbp),%rcx
    c5ee:	64 48 33 0c 25 28 00 	xor    %fs:0x28,%rcx
    c5f5:	00 00 
    c5f7:	74 05                	je     c5fe <func_51+0x2d6>
    c5f9:	e8 72 9a ff ff       	callq  6070 <__stack_chk_fail@plt>
    c5fe:	48 81 c4 28 01 00 00 	add    $0x128,%rsp
    c605:	5b                   	pop    %rbx
    c606:	5d                   	pop    %rbp
    c607:	c3                   	retq   

000000000000c608 <func_55>:
    c608:	f3 0f 1e fa          	endbr64 
    c60c:	55                   	push   %rbp
    c60d:	48 89 e5             	mov    %rsp,%rbp
    c610:	41 57                	push   %r15
    c612:	41 56                	push   %r14
    c614:	41 55                	push   %r13
    c616:	41 54                	push   %r12
    c618:	53                   	push   %rbx
    c619:	48 81 ec 00 10 00 00 	sub    $0x1000,%rsp
    c620:	48 83 0c 24 00       	orq    $0x0,(%rsp)
    c625:	48 81 ec 08 01 00 00 	sub    $0x108,%rsp
    c62c:	89 bd fc ee ff ff    	mov    %edi,-0x1104(%rbp)
    c632:	89 f0                	mov    %esi,%eax
    c634:	48 89 95 f0 ee ff ff 	mov    %rdx,-0x1110(%rbp)
    c63b:	48 89 8d e8 ee ff ff 	mov    %rcx,-0x1118(%rbp)
    c642:	44 89 c2             	mov    %r8d,%edx
    c645:	66 89 85 f8 ee ff ff 	mov    %ax,-0x1108(%rbp)
    c64c:	89 d0                	mov    %edx,%eax
    c64e:	66 89 85 e4 ee ff ff 	mov    %ax,-0x111c(%rbp)
    c655:	64 48 8b 04 25 28 00 	mov    %fs:0x28,%rax
    c65c:	00 00 
    c65e:	48 89 45 c8          	mov    %rax,-0x38(%rbp)
    c662:	31 c0                	xor    %eax,%eax
    c664:	66 c7 85 04 ef ff ff 	movw   $0xfffd,-0x10fc(%rbp)
    c66b:	fd ff 
    c66d:	48 8d 05 a6 aa 00 00 	lea    0xaaa6(%rip),%rax        # 1711a <g_85>
    c674:	48 89 85 68 ef ff ff 	mov    %rax,-0x1098(%rbp)
    c67b:	66 c7 85 06 ef ff ff 	movw   $0xbb0c,-0x10fa(%rbp)
    c682:	0c bb 
    c684:	48 8d 05 69 aa 00 00 	lea    0xaa69(%rip),%rax        # 170f4 <g_15>
    c68b:	48 89 85 70 ef ff ff 	mov    %rax,-0x1090(%rbp)
    c692:	48 b8 4e 45 e3 97 b9 	movabs $0xb2fd71b997e3454e,%rax
    c699:	71 fd b2 
    c69c:	48 89 85 78 ef ff ff 	mov    %rax,-0x1088(%rbp)
    c6a3:	c7 85 0c ef ff ff fd 	movl   $0xfffffffd,-0x10f4(%rbp)
    c6aa:	ff ff ff 
    c6ad:	48 c7 85 b8 ef ff ff 	movq   $0x0,-0x1048(%rbp)
    c6b4:	00 00 00 00 
    c6b8:	48 8d 05 39 aa 00 00 	lea    0xaa39(%rip),%rax        # 170f8 <g_27>
    c6bf:	48 89 85 c0 ef ff ff 	mov    %rax,-0x1040(%rbp)
    c6c6:	48 8d 05 bf aa 00 00 	lea    0xaabf(%rip),%rax        # 1718c <g_172>
    c6cd:	48 89 85 80 ef ff ff 	mov    %rax,-0x1080(%rbp)
    c6d4:	48 8d 85 80 ef ff ff 	lea    -0x1080(%rbp),%rax
    c6db:	48 89 85 88 ef ff ff 	mov    %rax,-0x1078(%rbp)
    c6e2:	48 8d 85 88 ef ff ff 	lea    -0x1078(%rbp),%rax
    c6e9:	48 89 85 c8 ef ff ff 	mov    %rax,-0x1038(%rbp)
    c6f0:	48 c7 85 90 ef ff ff 	movq   $0x0,-0x1070(%rbp)
    c6f7:	00 00 00 00 
    c6fb:	c7 85 18 ef ff ff 00 	movl   $0x0,-0x10e8(%rbp)
    c702:	00 00 00 
    c705:	eb 55                	jmp    c75c <func_55+0x154>
    c707:	c7 85 1c ef ff ff 00 	movl   $0x0,-0x10e4(%rbp)
    c70e:	00 00 00 
    c711:	eb 39                	jmp    c74c <func_55+0x144>
    c713:	8b 85 1c ef ff ff    	mov    -0x10e4(%rbp),%eax
    c719:	48 63 c8             	movslq %eax,%rcx
    c71c:	8b 85 18 ef ff ff    	mov    -0x10e8(%rbp),%eax
    c722:	48 63 d0             	movslq %eax,%rdx
    c725:	48 89 d0             	mov    %rdx,%rax
    c728:	48 c1 e0 02          	shl    $0x2,%rax
    c72c:	48 01 d0             	add    %rdx,%rax
    c72f:	48 01 c0             	add    %rax,%rax
    c732:	48 8d 14 08          	lea    (%rax,%rcx,1),%rdx
    c736:	48 8d 85 90 ef ff ff 	lea    -0x1070(%rbp),%rax
    c73d:	48 89 84 d5 b0 f1 ff 	mov    %rax,-0xe50(%rbp,%rdx,8)
    c744:	ff 
    c745:	83 85 1c ef ff ff 01 	addl   $0x1,-0x10e4(%rbp)
    c74c:	83 bd 1c ef ff ff 09 	cmpl   $0x9,-0x10e4(%rbp)
    c753:	7e be                	jle    c713 <func_55+0x10b>
    c755:	83 85 18 ef ff ff 01 	addl   $0x1,-0x10e8(%rbp)
    c75c:	83 bd 18 ef ff ff 04 	cmpl   $0x4,-0x10e8(%rbp)
    c763:	7e a2                	jle    c707 <func_55+0xff>
    c765:	48 0f bf 9d 06 ef ff 	movswq -0x10fa(%rbp),%rbx
    c76c:	ff 
    c76d:	44 0f bf a5 04 ef ff 	movswl -0x10fc(%rbp),%r12d
    c774:	ff 
    c775:	0f b7 85 04 ef ff ff 	movzwl -0x10fc(%rbp),%eax
    c77c:	0f be d0             	movsbl %al,%edx
    c77f:	0f b7 85 04 ef ff ff 	movzwl -0x10fc(%rbp),%eax
    c786:	0f be c0             	movsbl %al,%eax
    c789:	89 d6                	mov    %edx,%esi
    c78b:	89 c7                	mov    %eax,%edi
    c78d:	e8 60 9a ff ff       	callq  61f2 <safe_sub_func_int8_t_s_s>
    c792:	8b 05 28 a9 00 00    	mov    0xa928(%rip),%eax        # 170c0 <g_11>
    c798:	0f b6 d0             	movzbl %al,%edx
    c79b:	0f b7 05 76 a9 00 00 	movzwl 0xa976(%rip),%eax        # 17118 <g_81>
    c7a2:	83 c0 01             	add    $0x1,%eax
    c7a5:	66 89 05 6c a9 00 00 	mov    %ax,0xa96c(%rip)        # 17118 <g_81>
    c7ac:	0f b7 05 65 a9 00 00 	movzwl 0xa965(%rip),%eax        # 17118 <g_81>
    c7b3:	66 85 c0             	test   %ax,%ax
    c7b6:	75 14                	jne    c7cc <func_55+0x1c4>
    c7b8:	48 8b 85 68 ef ff ff 	mov    -0x1098(%rbp),%rax
    c7bf:	c6 00 09             	movb   $0x9,(%rax)
    c7c2:	8b 05 24 a9 00 00    	mov    0xa924(%rip),%eax        # 170ec <g_13>
    c7c8:	85 c0                	test   %eax,%eax
    c7ca:	74 07                	je     c7d3 <func_55+0x1cb>
    c7cc:	b8 01 00 00 00       	mov    $0x1,%eax
    c7d1:	eb 05                	jmp    c7d8 <func_55+0x1d0>
    c7d3:	b8 00 00 00 00       	mov    $0x0,%eax
    c7d8:	0f b6 c0             	movzbl %al,%eax
    c7db:	89 d6                	mov    %edx,%esi
    c7dd:	89 c7                	mov    %eax,%edi
    c7df:	e8 af a3 ff ff       	callq  6b93 <safe_mul_func_uint8_t_u_u>
    c7e4:	0f b6 c0             	movzbl %al,%eax
    c7e7:	be c5 2d 00 00       	mov    $0x2dc5,%esi
    c7ec:	89 c7                	mov    %eax,%edi
    c7ee:	e8 9b a5 ff ff       	callq  6d8e <safe_div_func_uint16_t_u_u>
    c7f3:	be 00 00 00 00       	mov    $0x0,%esi
    c7f8:	bf 00 00 00 00       	mov    $0x0,%edi
    c7fd:	e8 bc a4 ff ff       	callq  6cbe <safe_rshift_func_uint8_t_u_u>
    c802:	48 8b 05 ff a8 00 00 	mov    0xa8ff(%rip),%rax        # 17108 <g_31+0x8>
    c809:	44 89 e6             	mov    %r12d,%esi
    c80c:	89 c7                	mov    %eax,%edi
    c80e:	e8 f2 9d ff ff       	callq  6605 <safe_sub_func_int32_t_s_s>
    c813:	48 98                	cltq   
    c815:	48 89 de             	mov    %rbx,%rsi
    c818:	48 89 c7             	mov    %rax,%rdi
    c81b:	e8 0e a8 ff ff       	callq  702e <safe_add_func_uint64_t_u_u>
    c820:	48 89 c2             	mov    %rax,%rdx
    c823:	48 8b 85 f0 ee ff ff 	mov    -0x1110(%rbp),%rax
    c82a:	89 10                	mov    %edx,(%rax)
    c82c:	8b 00                	mov    (%rax),%eax
    c82e:	85 c0                	test   %eax,%eax
    c830:	0f 84 4c 02 00 00    	je     ca82 <func_55+0x47a>
    c836:	48 8d 05 df a8 00 00 	lea    0xa8df(%rip),%rax        # 1711c <g_92>
    c83d:	48 89 85 a8 ef ff ff 	mov    %rax,-0x1058(%rbp)
    c844:	48 8d 05 b5 a8 00 00 	lea    0xa8b5(%rip),%rax        # 17100 <g_31>
    c84b:	48 89 85 e0 f0 ff ff 	mov    %rax,-0xf20(%rbp)
    c852:	48 8d 05 f1 a8 00 00 	lea    0xa8f1(%rip),%rax        # 1714a <g_114+0x2a>
    c859:	48 89 85 e8 f0 ff ff 	mov    %rax,-0xf18(%rbp)
    c860:	48 8d 05 b1 a8 00 00 	lea    0xa8b1(%rip),%rax        # 17118 <g_81>
    c867:	48 89 85 f0 f0 ff ff 	mov    %rax,-0xf10(%rbp)
    c86e:	c7 85 20 ef ff ff 00 	movl   $0x0,-0x10e0(%rbp)
    c875:	00 00 00 
    c878:	eb 1e                	jmp    c898 <func_55+0x290>
    c87a:	8b 85 20 ef ff ff    	mov    -0x10e0(%rbp),%eax
    c880:	48 98                	cltq   
    c882:	48 8d 15 f7 a8 00 00 	lea    0xa8f7(%rip),%rdx        # 17180 <g_119>
    c889:	48 89 94 c5 00 f9 ff 	mov    %rdx,-0x700(%rbp,%rax,8)
    c890:	ff 
    c891:	83 85 20 ef ff ff 01 	addl   $0x1,-0x10e0(%rbp)
    c898:	83 bd 20 ef ff ff 02 	cmpl   $0x2,-0x10e0(%rbp)
    c89f:	7e d9                	jle    c87a <func_55+0x272>
    c8a1:	66 c7 85 e4 ee ff ff 	movw   $0x0,-0x111c(%rbp)
    c8a8:	00 00 
    c8aa:	eb 36                	jmp    c8e2 <func_55+0x2da>
    c8ac:	48 c7 85 f8 f0 ff ff 	movq   $0x0,-0xf08(%rbp)
    c8b3:	00 00 00 00 
    c8b7:	48 8b 85 70 ef ff ff 	mov    -0x1090(%rbp),%rax
    c8be:	48 89 85 a8 ef ff ff 	mov    %rax,-0x1058(%rbp)
    c8c5:	0f b7 85 e4 ee ff ff 	movzwl -0x111c(%rbp),%eax
    c8cc:	0f b7 c0             	movzwl %ax,%eax
    c8cf:	be 01 00 00 00       	mov    $0x1,%esi
    c8d4:	89 c7                	mov    %eax,%edi
    c8d6:	e8 44 a4 ff ff       	callq  6d1f <safe_sub_func_uint16_t_u_u>
    c8db:	66 89 85 e4 ee ff ff 	mov    %ax,-0x111c(%rbp)
    c8e2:	66 83 bd e4 ee ff ff 	cmpw   $0xffe6,-0x111c(%rbp)
    c8e9:	e6 
    c8ea:	75 c0                	jne    c8ac <func_55+0x2a4>
    c8ec:	66 c7 85 f8 ee ff ff 	movw   $0x0,-0x1108(%rbp)
    c8f3:	00 00 
    c8f5:	eb 2c                	jmp    c923 <func_55+0x31b>
    c8f7:	0f b7 85 f8 ee ff ff 	movzwl -0x1108(%rbp),%eax
    c8fe:	98                   	cwtl   
    c8ff:	48 98                	cltq   
    c901:	48 8d 14 00          	lea    (%rax,%rax,1),%rdx
    c905:	48 8d 05 0c a8 00 00 	lea    0xa80c(%rip),%rax        # 17118 <g_81>
    c90c:	66 c7 04 02 00 00    	movw   $0x0,(%rdx,%rax,1)
    c912:	0f b7 85 f8 ee ff ff 	movzwl -0x1108(%rbp),%eax
    c919:	83 c0 01             	add    $0x1,%eax
    c91c:	66 89 85 f8 ee ff ff 	mov    %ax,-0x1108(%rbp)
    c923:	0f b7 85 f8 ee ff ff 	movzwl -0x1108(%rbp),%eax
    c92a:	66 85 c0             	test   %ax,%ax
    c92d:	7e c8                	jle    c8f7 <func_55+0x2ef>
    c92f:	8b 85 fc ee ff ff    	mov    -0x1104(%rbp),%eax
    c935:	88 05 df a7 00 00    	mov    %al,0xa7df(%rip)        # 1711a <g_85>
    c93b:	0f b6 05 d8 a7 00 00 	movzbl 0xa7d8(%rip),%eax        # 1711a <g_85>
    c942:	0f b6 d0             	movzbl %al,%edx
    c945:	48 83 bd e0 f0 ff ff 	cmpq   $0x0,-0xf20(%rbp)
    c94c:	00 
    c94d:	0f 94 c0             	sete   %al
    c950:	0f b6 c0             	movzbl %al,%eax
    c953:	89 d6                	mov    %edx,%esi
    c955:	89 c7                	mov    %eax,%edi
    c957:	e8 37 a2 ff ff       	callq  6b93 <safe_mul_func_uint8_t_u_u>
    c95c:	44 0f b6 e0          	movzbl %al,%r12d
    c960:	48 8b 85 a8 ef ff ff 	mov    -0x1058(%rbp),%rax
    c967:	8b 18                	mov    (%rax),%ebx
    c969:	48 8b 85 a8 ef ff ff 	mov    -0x1058(%rbp),%rax
    c970:	8b 00                	mov    (%rax),%eax
    c972:	41 89 c5             	mov    %eax,%r13d
    c975:	48 c7 05 f8 a7 00 00 	movq   $0x0,0xa7f8(%rip)        # 17178 <g_116>
    c97c:	00 00 00 00 
    c980:	48 8b 05 f1 a7 00 00 	mov    0xa7f1(%rip),%rax        # 17178 <g_116>
    c987:	0f b6 d0             	movzbl %al,%edx
    c98a:	0f b7 85 f8 ee ff ff 	movzwl -0x1108(%rbp),%eax
    c991:	89 c1                	mov    %eax,%ecx
    c993:	48 8b 85 e8 f0 ff ff 	mov    -0xf18(%rbp),%rax
    c99a:	88 08                	mov    %cl,(%rax)
    c99c:	48 8b 85 e8 f0 ff ff 	mov    -0xf18(%rbp),%rax
    c9a3:	0f b6 00             	movzbl (%rax),%eax
    c9a6:	0f b6 c0             	movzbl %al,%eax
    c9a9:	89 d6                	mov    %edx,%esi
    c9ab:	89 c7                	mov    %eax,%edi
    c9ad:	e8 a8 a1 ff ff       	callq  6b5a <safe_add_func_uint8_t_u_u>
    c9b2:	0f b6 c0             	movzbl %al,%eax
    c9b5:	48 c7 c6 fc ff ff ff 	mov    $0xfffffffffffffffc,%rsi
    c9bc:	48 89 c7             	mov    %rax,%rdi
    c9bf:	e8 33 a0 ff ff       	callq  69f7 <safe_div_func_int64_t_s_s>
    c9c4:	0f b7 95 f8 ee ff ff 	movzwl -0x1108(%rbp),%edx
    c9cb:	48 0f bf d2          	movswq %dx,%rdx
    c9cf:	48 39 d0             	cmp    %rdx,%rax
    c9d2:	8b 05 04 a7 00 00    	mov    0xa704(%rip),%eax        # 170dc <g_11+0x1c>
    c9d8:	0f be c0             	movsbl %al,%eax
    c9db:	44 89 ee             	mov    %r13d,%esi
    c9de:	89 c7                	mov    %eax,%edi
    c9e0:	e8 09 99 ff ff       	callq  62ee <safe_lshift_func_int8_t_s_u>
    c9e5:	66 0f be d0          	movsbw %al,%dx
    c9e9:	48 8b 85 f0 f0 ff ff 	mov    -0xf10(%rbp),%rax
    c9f0:	66 89 10             	mov    %dx,(%rax)
    c9f3:	48 8b 85 f0 f0 ff ff 	mov    -0xf10(%rbp),%rax
    c9fa:	0f b7 00             	movzwl (%rax),%eax
    c9fd:	0f b7 c0             	movzwl %ax,%eax
    ca00:	89 de                	mov    %ebx,%esi
    ca02:	89 c7                	mov    %eax,%edi
    ca04:	e8 b5 a3 ff ff       	callq  6dbe <safe_lshift_func_uint16_t_u_s>
    ca09:	0f b6 05 f0 a6 00 00 	movzbl 0xa6f0(%rip),%eax        # 17100 <g_31>
    ca10:	84 c0                	test   %al,%al
    ca12:	75 07                	jne    ca1b <func_55+0x413>
    ca14:	b8 01 00 00 00       	mov    $0x1,%eax
    ca19:	eb 05                	jmp    ca20 <func_55+0x418>
    ca1b:	b8 00 00 00 00       	mov    $0x0,%eax
    ca20:	44 09 e0             	or     %r12d,%eax
    ca23:	be 77 95 05 8c       	mov    $0x8c059577,%esi
    ca28:	89 c7                	mov    %eax,%edi
    ca2a:	e8 ce a4 ff ff       	callq  6efd <safe_mod_func_uint32_t_u_u>
    ca2f:	8b 15 4b a7 00 00    	mov    0xa74b(%rip),%edx        # 17180 <g_119>
    ca35:	09 d0                	or     %edx,%eax
    ca37:	89 05 43 a7 00 00    	mov    %eax,0xa743(%rip)        # 17180 <g_119>
    ca3d:	48 8b 85 70 ef ff ff 	mov    -0x1090(%rbp),%rax
    ca44:	8b 10                	mov    (%rax),%edx
    ca46:	8b 85 fc ee ff ff    	mov    -0x1104(%rbp),%eax
    ca4c:	39 c2                	cmp    %eax,%edx
    ca4e:	0f 95 c0             	setne  %al
    ca51:	0f b6 c0             	movzbl %al,%eax
    ca54:	be 03 00 00 00       	mov    $0x3,%esi
    ca59:	89 c7                	mov    %eax,%edi
    ca5b:	e8 0c 99 ff ff       	callq  636c <safe_rshift_func_int8_t_s_u>
    ca60:	be 0f 00 00 00       	mov    $0xf,%esi
    ca65:	bf 01 00 00 00       	mov    $0x1,%edi
    ca6a:	e8 97 a3 ff ff       	callq  6e06 <safe_lshift_func_uint16_t_u_u>
    ca6f:	89 c2                	mov    %eax,%edx
    ca71:	48 8b 85 f0 ee ff ff 	mov    -0x1110(%rbp),%rax
    ca78:	0f b7 d2             	movzwl %dx,%edx
    ca7b:	89 10                	mov    %edx,(%rax)
    ca7d:	e9 16 30 00 00       	jmpq   fa98 <func_55+0x3490>
    ca82:	c6 85 00 f1 ff ff 01 	movb   $0x1,-0xf00(%rbp)
    ca89:	48 b8 66 47 f9 40 8a 	movabs $0xe82d738a40f94766,%rax
    ca90:	73 2d e8 
    ca93:	48 89 85 08 f1 ff ff 	mov    %rax,-0xef8(%rbp)
    ca9a:	0f b7 85 10 f1 ff ff 	movzwl -0xef0(%rbp),%eax
    caa1:	66 25 00 f8          	and    $0xf800,%ax
    caa5:	83 c8 0f             	or     $0xf,%eax
    caa8:	66 89 85 10 f1 ff ff 	mov    %ax,-0xef0(%rbp)
    caaf:	48 8d 85 00 f1 ff ff 	lea    -0xf00(%rbp),%rax
    cab6:	48 89 85 d0 ef ff ff 	mov    %rax,-0x1030(%rbp)
    cabd:	48 c7 85 98 ef ff ff 	movq   $0x0,-0x1068(%rbp)
    cac4:	00 00 00 00 
    cac8:	66 c7 85 02 ef ff ff 	movw   $0xfffc,-0x10fe(%rbp)
    cacf:	fc ff 
    cad1:	c7 85 24 ef ff ff ed 	movl   $0x929d46ed,-0x10dc(%rbp)
    cad8:	46 9d 92 
    cadb:	48 8d 85 78 ef ff ff 	lea    -0x1088(%rbp),%rax
    cae2:	48 89 85 d8 ef ff ff 	mov    %rax,-0x1028(%rbp)
    cae9:	48 b8 34 d8 23 19 9c 	movabs $0xabe1c99c1923d834,%rax
    caf0:	c9 e1 ab 
    caf3:	48 89 85 e0 ef ff ff 	mov    %rax,-0x1020(%rbp)
    cafa:	66 c7 85 06 ef ff ff 	movw   $0xffe2,-0x10fa(%rbp)
    cb01:	e2 ff 
    cb03:	e9 82 2f 00 00       	jmpq   fa8a <func_55+0x3482>
    cb08:	c6 85 00 ef ff ff ce 	movb   $0xce,-0x1100(%rbp)
    cb0f:	c7 85 10 ef ff ff ff 	movl   $0xffffffff,-0x10f0(%rbp)
    cb16:	ff ff ff 
    cb19:	c7 85 28 ef ff ff ff 	movl   $0xffffffff,-0x10d8(%rbp)
    cb20:	ff ff ff 
    cb23:	66 c7 85 08 ef ff ff 	movw   $0x3,-0x10f8(%rbp)
    cb2a:	03 00 
    cb2c:	c7 85 2c ef ff ff 00 	movl   $0x0,-0x10d4(%rbp)
    cb33:	00 00 00 
    cb36:	eb 1b                	jmp    cb53 <func_55+0x54b>
    cb38:	8b 85 2c ef ff ff    	mov    -0x10d4(%rbp),%eax
    cb3e:	48 98                	cltq   
    cb40:	48 c7 84 c5 60 f1 ff 	movq   $0x0,-0xea0(%rbp,%rax,8)
    cb47:	ff 00 00 00 00 
    cb4c:	83 85 2c ef ff ff 01 	addl   $0x1,-0x10d4(%rbp)
    cb53:	83 bd 2c ef ff ff 03 	cmpl   $0x3,-0x10d4(%rbp)
    cb5a:	7e dc                	jle    cb38 <func_55+0x530>
    cb5c:	66 c7 85 04 ef ff ff 	movw   $0x2,-0x10fc(%rbp)
    cb63:	02 00 
    cb65:	e9 b7 15 00 00       	jmpq   e121 <func_55+0x1b19>
    cb6a:	48 8d 85 40 f3 ff ff 	lea    -0xcc0(%rbp),%rax
    cb71:	48 83 c0 08          	add    $0x8,%rax
    cb75:	48 89 85 78 f0 ff ff 	mov    %rax,-0xf88(%rbp)
    cb7c:	48 8d 85 98 ef ff ff 	lea    -0x1068(%rbp),%rax
    cb83:	48 89 85 80 f0 ff ff 	mov    %rax,-0xf80(%rbp)
    cb8a:	48 8d 05 4b a5 00 00 	lea    0xa54b(%rip),%rax        # 170dc <g_11+0x1c>
    cb91:	48 89 85 b0 ef ff ff 	mov    %rax,-0x1050(%rbp)
    cb98:	48 8d 05 4d a5 00 00 	lea    0xa54d(%rip),%rax        # 170ec <g_13>
    cb9f:	48 89 85 88 f0 ff ff 	mov    %rax,-0xf78(%rbp)
    cba6:	c7 85 30 ef ff ff 00 	movl   $0x0,-0x10d0(%rbp)
    cbad:	00 00 00 
    cbb0:	eb 4e                	jmp    cc00 <func_55+0x5f8>
    cbb2:	c7 85 34 ef ff ff 00 	movl   $0x0,-0x10cc(%rbp)
    cbb9:	00 00 00 
    cbbc:	eb 32                	jmp    cbf0 <func_55+0x5e8>
    cbbe:	8b 85 34 ef ff ff    	mov    -0x10cc(%rbp),%eax
    cbc4:	48 63 c8             	movslq %eax,%rcx
    cbc7:	8b 85 30 ef ff ff    	mov    -0x10d0(%rbp),%eax
    cbcd:	48 63 d0             	movslq %eax,%rdx
    cbd0:	48 89 d0             	mov    %rdx,%rax
    cbd3:	48 01 c0             	add    %rax,%rax
    cbd6:	48 01 d0             	add    %rdx,%rax
    cbd9:	48 01 c0             	add    %rax,%rax
    cbdc:	48 01 c8             	add    %rcx,%rax
    cbdf:	66 c7 84 45 40 f3 ff 	movw   $0x0,-0xcc0(%rbp,%rax,2)
    cbe6:	ff 00 00 
    cbe9:	83 85 34 ef ff ff 01 	addl   $0x1,-0x10cc(%rbp)
    cbf0:	83 bd 34 ef ff ff 05 	cmpl   $0x5,-0x10cc(%rbp)
    cbf7:	7e c5                	jle    cbbe <func_55+0x5b6>
    cbf9:	83 85 30 ef ff ff 01 	addl   $0x1,-0x10d0(%rbp)
    cc00:	83 bd 30 ef ff ff 01 	cmpl   $0x1,-0x10d0(%rbp)
    cc07:	7e a9                	jle    cbb2 <func_55+0x5aa>
    cc09:	c7 85 30 ef ff ff 00 	movl   $0x0,-0x10d0(%rbp)
    cc10:	00 00 00 
    cc13:	eb 1e                	jmp    cc33 <func_55+0x62b>
    cc15:	8b 85 30 ef ff ff    	mov    -0x10d0(%rbp),%eax
    cc1b:	48 98                	cltq   
    cc1d:	48 8d 15 4c a5 00 00 	lea    0xa54c(%rip),%rdx        # 17170 <g_115>
    cc24:	48 89 94 c5 80 f1 ff 	mov    %rdx,-0xe80(%rbp,%rax,8)
    cc2b:	ff 
    cc2c:	83 85 30 ef ff ff 01 	addl   $0x1,-0x10d0(%rbp)
    cc33:	83 bd 30 ef ff ff 01 	cmpl   $0x1,-0x10d0(%rbp)
    cc3a:	7e d9                	jle    cc15 <func_55+0x60d>
    cc3c:	48 8b 05 65 c1 00 00 	mov    0xc165(%rip),%rax        # 18da8 <g_65>
    cc43:	48 8b 08             	mov    (%rax),%rcx
    cc46:	48 8b 01             	mov    (%rcx),%rax
    cc49:	48 8b 51 08          	mov    0x8(%rcx),%rdx
    cc4d:	48 89 85 00 f1 ff ff 	mov    %rax,-0xf00(%rbp)
    cc54:	48 89 95 08 f1 ff ff 	mov    %rdx,-0xef8(%rbp)
    cc5b:	48 8b 41 10          	mov    0x10(%rcx),%rax
    cc5f:	48 89 85 10 f1 ff ff 	mov    %rax,-0xef0(%rbp)
    cc66:	c7 05 88 a4 00 00 00 	movl   $0x0,0xa488(%rip)        # 170f8 <g_27>
    cc6d:	00 00 00 
    cc70:	e9 10 11 00 00       	jmpq   dd85 <func_55+0x177d>
    cc75:	48 8d 85 68 ef ff ff 	lea    -0x1098(%rbp),%rax
    cc7c:	48 89 85 90 f0 ff ff 	mov    %rax,-0xf70(%rbp)
    cc83:	c7 85 60 ef ff ff 08 	movl   $0x8,-0x10a0(%rbp)
    cc8a:	00 00 00 
    cc8d:	48 8d 85 00 f7 ff ff 	lea    -0x900(%rbp),%rax
    cc94:	48 8d 15 65 bd 00 00 	lea    0xbd65(%rip),%rdx        # 18a00 <g_1189+0xae8>
    cc9b:	b9 31 00 00 00       	mov    $0x31,%ecx
    cca0:	48 89 c7             	mov    %rax,%rdi
    cca3:	48 89 d6             	mov    %rdx,%rsi
    cca6:	f3 48 a5             	rep movsq %ds:(%rsi),%es:(%rdi)
    cca9:	c7 85 64 ef ff ff ee 	movl   $0xdcd5fee,-0x109c(%rbp)
    ccb0:	5f cd 0d 
    ccb3:	66 c7 85 0a ef ff ff 	movw   $0x1,-0x10f6(%rbp)
    ccba:	01 00 
    ccbc:	48 8d 05 cb a4 00 00 	lea    0xa4cb(%rip),%rax        # 1718e <g_193>
    ccc3:	48 89 85 98 f0 ff ff 	mov    %rax,-0xf68(%rbp)
    ccca:	48 8b 85 90 f0 ff ff 	mov    -0xf70(%rbp),%rax
    ccd1:	48 8d 15 42 a4 00 00 	lea    0xa442(%rip),%rdx        # 1711a <g_85>
    ccd8:	48 89 10             	mov    %rdx,(%rax)
    ccdb:	0f bf 85 04 ef ff ff 	movswl -0x10fc(%rbp),%eax
    cce2:	8b 15 10 a4 00 00    	mov    0xa410(%rip),%edx        # 170f8 <g_27>
    cce8:	83 c2 04             	add    $0x4,%edx
    cceb:	89 d2                	mov    %edx,%edx
    cced:	48 98                	cltq   
    ccef:	48 c1 e0 03          	shl    $0x3,%rax
    ccf3:	48 01 c2             	add    %rax,%rdx
    ccf6:	48 8d 05 23 a4 00 00 	lea    0xa423(%rip),%rax        # 17120 <g_114>
    ccfd:	48 01 d0             	add    %rdx,%rax
    cd00:	0f b6 00             	movzbl (%rax),%eax
    cd03:	0f b6 c0             	movzbl %al,%eax
    cd06:	be 03 00 00 00       	mov    $0x3,%esi
    cd0b:	89 c7                	mov    %eax,%edi
    cd0d:	e8 68 a1 ff ff       	callq  6e7a <safe_rshift_func_uint16_t_u_u>
    cd12:	0f b7 d0             	movzwl %ax,%edx
    cd15:	48 8d 05 fe a3 00 00 	lea    0xa3fe(%rip),%rax        # 1711a <g_85>
    cd1c:	48 39 85 d0 ef ff ff 	cmp    %rax,-0x1030(%rbp)
    cd23:	0f 95 c0             	setne  %al
    cd26:	0f b6 c0             	movzbl %al,%eax
    cd29:	21 d0                	and    %edx,%eax
    cd2b:	48 63 d0             	movslq %eax,%rdx
    cd2e:	48 8b 85 78 ef ff ff 	mov    -0x1088(%rbp),%rax
    cd35:	48 31 d0             	xor    %rdx,%rax
    cd38:	48 89 85 78 ef ff ff 	mov    %rax,-0x1088(%rbp)
    cd3f:	8b 05 b3 a3 00 00    	mov    0xa3b3(%rip),%eax        # 170f8 <g_27>
    cd45:	8d 48 09             	lea    0x9(%rax),%ecx
    cd48:	8b 05 aa a3 00 00    	mov    0xa3aa(%rip),%eax        # 170f8 <g_27>
    cd4e:	89 c2                	mov    %eax,%edx
    cd50:	89 c8                	mov    %ecx,%eax
    cd52:	48 c1 e0 03          	shl    $0x3,%rax
    cd56:	48 01 c2             	add    %rax,%rdx
    cd59:	48 8d 05 c0 a3 00 00 	lea    0xa3c0(%rip),%rax        # 17120 <g_114>
    cd60:	48 01 d0             	add    %rdx,%rax
    cd63:	0f b6 00             	movzbl (%rax),%eax
    cd66:	0f b6 d0             	movzbl %al,%edx
    cd69:	0f b7 05 a8 a3 00 00 	movzwl 0xa3a8(%rip),%eax        # 17118 <g_81>
    cd70:	66 83 f8 fa          	cmp    $0xfffa,%ax
    cd74:	0f 95 c0             	setne  %al
    cd77:	0f b6 c0             	movzbl %al,%eax
    cd7a:	09 d0                	or     %edx,%eax
    cd7c:	85 c0                	test   %eax,%eax
    cd7e:	74 0b                	je     cd8b <func_55+0x783>
    cd80:	8b 85 fc ee ff ff    	mov    -0x1104(%rbp),%eax
    cd86:	e9 13 2d 00 00       	jmpq   fa9e <func_55+0x3496>
    cd8b:	48 8d 85 20 f5 ff ff 	lea    -0xae0(%rbp),%rax
    cd92:	48 89 85 a0 f0 ff ff 	mov    %rax,-0xf60(%rbp)
    cd99:	48 c7 85 a8 f0 ff ff 	movq   $0x0,-0xf58(%rbp)
    cda0:	00 00 00 00 
    cda4:	48 c7 85 b0 f0 ff ff 	movq   $0x0,-0xf50(%rbp)
    cdab:	00 00 00 00 
    cdaf:	48 c7 85 00 f9 ff ff 	movq   $0x0,-0x700(%rbp)
    cdb6:	00 00 00 00 
    cdba:	48 c7 85 08 f9 ff ff 	movq   $0x0,-0x6f8(%rbp)
    cdc1:	00 00 00 00 
    cdc5:	48 c7 85 10 f9 ff ff 	movq   $0x0,-0x6f0(%rbp)
    cdcc:	00 00 00 00 
    cdd0:	48 c7 85 18 f9 ff ff 	movq   $0x0,-0x6e8(%rbp)
    cdd7:	00 00 00 00 
    cddb:	48 c7 85 20 f9 ff ff 	movq   $0x0,-0x6e0(%rbp)
    cde2:	00 00 00 00 
    cde6:	48 8d 85 00 f9 ff ff 	lea    -0x700(%rbp),%rax
    cded:	48 83 c0 08          	add    $0x8,%rax
    cdf1:	48 89 85 b8 f0 ff ff 	mov    %rax,-0xf48(%rbp)
    cdf8:	48 8d 85 70 ef ff ff 	lea    -0x1090(%rbp),%rax
    cdff:	48 89 85 c0 f0 ff ff 	mov    %rax,-0xf40(%rbp)
    ce06:	48 8d 05 7b a3 00 00 	lea    0xa37b(%rip),%rax        # 17188 <g_171>
    ce0d:	48 89 85 c8 f0 ff ff 	mov    %rax,-0xf38(%rbp)
    ce14:	c7 85 38 ef ff ff 00 	movl   $0x0,-0x10c8(%rbp)
    ce1b:	00 00 00 
    ce1e:	eb 1e                	jmp    ce3e <func_55+0x836>
    ce20:	8b 85 38 ef ff ff    	mov    -0x10c8(%rbp),%eax
    ce26:	48 98                	cltq   
    ce28:	48 8d 15 ed a2 00 00 	lea    0xa2ed(%rip),%rdx        # 1711c <g_92>
    ce2f:	48 89 94 c5 20 f5 ff 	mov    %rdx,-0xae0(%rbp,%rax,8)
    ce36:	ff 
    ce37:	83 85 38 ef ff ff 01 	addl   $0x1,-0x10c8(%rbp)
    ce3e:	83 bd 38 ef ff ff 02 	cmpl   $0x2,-0x10c8(%rbp)
    ce45:	7e d9                	jle    ce20 <func_55+0x818>
    ce47:	0f b7 85 48 f3 ff ff 	movzwl -0xcb8(%rbp),%eax
    ce4e:	83 c0 01             	add    $0x1,%eax
    ce51:	66 89 85 48 f3 ff ff 	mov    %ax,-0xcb8(%rbp)
    ce58:	48 8b 85 a0 f0 ff ff 	mov    -0xf60(%rbp),%rax
    ce5f:	48 8d 15 62 a2 00 00 	lea    0xa262(%rip),%rdx        # 170c8 <g_11+0x8>
    ce66:	48 89 10             	mov    %rdx,(%rax)
    ce69:	8b 85 fc ee ff ff    	mov    -0x1104(%rbp),%eax
    ce6f:	48 63 d8             	movslq %eax,%rbx
    ce72:	8b 05 80 a2 00 00    	mov    0xa280(%rip),%eax        # 170f8 <g_27>
    ce78:	89 c0                	mov    %eax,%eax
    ce7a:	48 8d 14 85 00 00 00 	lea    0x0(,%rax,4),%rdx
    ce81:	00 
    ce82:	48 8d 05 f7 a2 00 00 	lea    0xa2f7(%rip),%rax        # 17180 <g_119>
    ce89:	8b 04 02             	mov    (%rdx,%rax,1),%eax
    ce8c:	44 0f b7 e0          	movzwl %ax,%r12d
    ce90:	0f b7 85 f8 ee ff ff 	movzwl -0x1108(%rbp),%eax
    ce97:	44 0f bf e8          	movswl %ax,%r13d
    ce9b:	48 8b 85 98 ef ff ff 	mov    -0x1068(%rbp),%rax
    cea2:	48 89 85 78 f0 ff ff 	mov    %rax,-0xf88(%rbp)
    cea9:	48 83 bd 78 f0 ff ff 	cmpq   $0x0,-0xf88(%rbp)
    ceb0:	00 
    ceb1:	8b 85 fc ee ff ff    	mov    -0x1104(%rbp),%eax
    ceb7:	89 c1                	mov    %eax,%ecx
    ceb9:	0f bf 95 e4 ee ff ff 	movswl -0x111c(%rbp),%edx
    cec0:	48 8b 85 b8 f0 ff ff 	mov    -0xf48(%rbp),%rax
    cec7:	48 c7 00 00 00 00 00 	movq   $0x0,(%rax)
    cece:	48 8b 85 b8 f0 ff ff 	mov    -0xf48(%rbp),%rax
    ced5:	48 8b 00             	mov    (%rax),%rax
    ced8:	48 39 85 80 f0 ff ff 	cmp    %rax,-0xf80(%rbp)
    cedf:	0f 95 c0             	setne  %al
    cee2:	0f b6 c0             	movzbl %al,%eax
    cee5:	39 c2                	cmp    %eax,%edx
    cee7:	0f 94 c0             	sete   %al
    ceea:	0f b6 c0             	movzbl %al,%eax
    ceed:	89 ce                	mov    %ecx,%esi
    ceef:	89 c7                	mov    %eax,%edi
    cef1:	e8 6d 96 ff ff       	callq  6563 <safe_rshift_func_int16_t_s_u>
    cef6:	44 89 ee             	mov    %r13d,%esi
    cef9:	bf 00 00 00 00       	mov    $0x0,%edi
    cefe:	e8 45 9f ff ff       	callq  6e48 <safe_rshift_func_uint16_t_u_s>
    cf03:	66 83 f8 5d          	cmp    $0x5d,%ax
    cf07:	0f 96 c0             	setbe  %al
    cf0a:	0f b6 c0             	movzbl %al,%eax
    cf0d:	be 0f 00 00 00       	mov    $0xf,%esi
    cf12:	89 c7                	mov    %eax,%edi
    cf14:	e8 a5 9e ff ff       	callq  6dbe <safe_lshift_func_uint16_t_u_s>
    cf19:	0f b7 c0             	movzwl %ax,%eax
    cf1c:	44 89 e6             	mov    %r12d,%esi
    cf1f:	89 c7                	mov    %eax,%edi
    cf21:	e8 68 9e ff ff       	callq  6d8e <safe_div_func_uint16_t_u_u>
    cf26:	0f b7 c0             	movzwl %ax,%eax
    cf29:	48 89 de             	mov    %rbx,%rsi
    cf2c:	48 89 c7             	mov    %rax,%rdi
    cf2f:	e8 7b a1 ff ff       	callq  70af <safe_div_func_uint64_t_u_u>
    cf34:	48 8b 85 a0 f0 ff ff 	mov    -0xf60(%rbp),%rax
    cf3b:	48 8d 15 9a a1 00 00 	lea    0xa19a(%rip),%rdx        # 170dc <g_11+0x1c>
    cf42:	48 89 10             	mov    %rdx,(%rax)
    cf45:	48 8b 85 a0 f0 ff ff 	mov    -0xf60(%rbp),%rax
    cf4c:	48 8b 10             	mov    (%rax),%rdx
    cf4f:	48 8b 85 c0 f0 ff ff 	mov    -0xf40(%rbp),%rax
    cf56:	48 89 10             	mov    %rdx,(%rax)
    cf59:	8b 05 bd a1 00 00    	mov    0xa1bd(%rip),%eax        # 1711c <g_92>
    cf5f:	0f b6 d0             	movzbl %al,%edx
    cf62:	0f b7 85 10 f1 ff ff 	movzwl -0xef0(%rbp),%eax
    cf69:	66 25 ff 07          	and    $0x7ff,%ax
    cf6d:	0f b6 c0             	movzbl %al,%eax
    cf70:	89 d6                	mov    %edx,%esi
    cf72:	89 c7                	mov    %eax,%edi
    cf74:	e8 62 9c ff ff       	callq  6bdb <safe_div_func_uint8_t_u_u>
    cf79:	41 89 c4             	mov    %eax,%r12d
    cf7c:	8b 05 5a a1 00 00    	mov    0xa15a(%rip),%eax        # 170dc <g_11+0x1c>
    cf82:	0f b6 d8             	movzbl %al,%ebx
    cf85:	8b 35 6d a1 00 00    	mov    0xa16d(%rip),%esi        # 170f8 <g_27>
    cf8b:	89 f0                	mov    %esi,%eax
    cf8d:	48 8d 14 00          	lea    (%rax,%rax,1),%rdx
    cf91:	48 8d 05 80 a1 00 00 	lea    0xa180(%rip),%rax        # 17118 <g_81>
    cf98:	0f b7 04 02          	movzwl (%rdx,%rax,1),%eax
    cf9c:	8d 48 01             	lea    0x1(%rax),%ecx
    cf9f:	89 f0                	mov    %esi,%eax
    cfa1:	48 8d 14 00          	lea    (%rax,%rax,1),%rdx
    cfa5:	48 8d 05 6c a1 00 00 	lea    0xa16c(%rip),%rax        # 17118 <g_81>
    cfac:	66 89 0c 02          	mov    %cx,(%rdx,%rax,1)
    cfb0:	8b 05 42 a1 00 00    	mov    0xa142(%rip),%eax        # 170f8 <g_27>
    cfb6:	8d 48 09             	lea    0x9(%rax),%ecx
    cfb9:	8b 05 39 a1 00 00    	mov    0xa139(%rip),%eax        # 170f8 <g_27>
    cfbf:	89 c2                	mov    %eax,%edx
    cfc1:	89 c8                	mov    %ecx,%eax
    cfc3:	48 c1 e0 03          	shl    $0x3,%rax
    cfc7:	48 01 c2             	add    %rax,%rdx
    cfca:	48 8d 05 4f a1 00 00 	lea    0xa14f(%rip),%rax        # 17120 <g_114>
    cfd1:	48 01 d0             	add    %rdx,%rax
    cfd4:	0f b6 00             	movzbl (%rax),%eax
    cfd7:	0f b6 c0             	movzbl %al,%eax
    cfda:	89 c6                	mov    %eax,%esi
    cfdc:	bf 01 00 00 00       	mov    $0x1,%edi
    cfe1:	e8 0f 94 ff ff       	callq  63f5 <safe_mul_func_int16_t_s_s>
    cfe6:	66 85 c0             	test   %ax,%ax
    cfe9:	74 08                	je     cff3 <func_55+0x9eb>
    cfeb:	8b 85 fc ee ff ff    	mov    -0x1104(%rbp),%eax
    cff1:	85 c0                	test   %eax,%eax
    cff3:	be ff ff ff ff       	mov    $0xffffffff,%esi
    cff8:	bf 06 00 00 00       	mov    $0x6,%edi
    cffd:	e8 b4 95 ff ff       	callq  65b6 <safe_add_func_int32_t_s_s>
    d002:	48 98                	cltq   
    d004:	48 89 c6             	mov    %rax,%rsi
    d007:	48 c7 c7 f7 ff ff ff 	mov    $0xfffffffffffffff7,%rdi
    d00e:	e8 6d a0 ff ff       	callq  7080 <safe_mod_func_uint64_t_u_u>
    d013:	0f b6 d0             	movzbl %al,%edx
    d016:	0f b7 85 e4 ee ff ff 	movzwl -0x111c(%rbp),%eax
    d01d:	0f b6 c0             	movzbl %al,%eax
    d020:	89 d6                	mov    %edx,%esi
    d022:	89 c7                	mov    %eax,%edi
    d024:	e8 85 9b ff ff       	callq  6bae <safe_mod_func_uint8_t_u_u>
    d029:	0f b6 d0             	movzbl %al,%edx
    d02c:	8b 85 fc ee ff ff    	mov    -0x1104(%rbp),%eax
    d032:	09 d0                	or     %edx,%eax
    d034:	85 c0                	test   %eax,%eax
    d036:	75 09                	jne    d041 <func_55+0xa39>
    d038:	0f b6 85 00 ef ff ff 	movzbl -0x1100(%rbp),%eax
    d03f:	84 c0                	test   %al,%al
    d041:	48 8b 85 c8 f0 ff ff 	mov    -0xf38(%rbp),%rax
    d048:	c7 00 00 00 00 00    	movl   $0x0,(%rax)
    d04e:	b8 00 00 00 00       	mov    $0x0,%eax
    d053:	48 85 c0             	test   %rax,%rax
    d056:	0f bf 85 04 ef ff ff 	movswl -0x10fc(%rbp),%eax
    d05d:	8b 15 95 a0 00 00    	mov    0xa095(%rip),%edx        # 170f8 <g_27>
    d063:	83 c2 04             	add    $0x4,%edx
    d066:	89 d2                	mov    %edx,%edx
    d068:	48 98                	cltq   
    d06a:	48 c1 e0 03          	shl    $0x3,%rax
    d06e:	48 01 c2             	add    %rax,%rdx
    d071:	48 8d 05 a8 a0 00 00 	lea    0xa0a8(%rip),%rax        # 17120 <g_114>
    d078:	48 01 d0             	add    %rdx,%rax
    d07b:	0f b6 00             	movzbl (%rax),%eax
    d07e:	84 c0                	test   %al,%al
    d080:	89 de                	mov    %ebx,%esi
    d082:	bf 01 00 00 00       	mov    $0x1,%edi
    d087:	e8 ec 9a ff ff       	callq  6b78 <safe_sub_func_uint8_t_u_u>
    d08c:	41 38 c4             	cmp    %al,%r12b
    d08f:	0f 95 c0             	setne  %al
    d092:	0f b6 c0             	movzbl %al,%eax
    d095:	89 c2                	mov    %eax,%edx
    d097:	0f b6 05 ee a0 00 00 	movzbl 0xa0ee(%rip),%eax        # 1718c <g_172>
    d09e:	09 d0                	or     %edx,%eax
    d0a0:	88 05 e6 a0 00 00    	mov    %al,0xa0e6(%rip)        # 1718c <g_172>
    d0a6:	48 8b 85 f0 ee ff ff 	mov    -0x1110(%rbp),%rax
    d0ad:	8b 00                	mov    (%rax),%eax
    d0af:	85 c0                	test   %eax,%eax
    d0b1:	0f 85 de 0c 00 00    	jne    dd95 <func_55+0x178d>
    d0b7:	0f b6 05 42 a0 00 00 	movzbl 0xa042(%rip),%eax        # 17100 <g_31>
    d0be:	48 0f be d8          	movsbq %al,%rbx
    d0c2:	0f b7 85 10 f1 ff ff 	movzwl -0xef0(%rbp),%eax
    d0c9:	66 25 ff 07          	and    $0x7ff,%ax
    d0cd:	44 0f b7 e0          	movzwl %ax,%r12d
    d0d1:	8b 05 b1 a0 00 00    	mov    0xa0b1(%rip),%eax        # 17188 <g_171>
    d0d7:	8d 50 01             	lea    0x1(%rax),%edx
    d0da:	89 15 a8 a0 00 00    	mov    %edx,0xa0a8(%rip)        # 17188 <g_171>
    d0e0:	89 c7                	mov    %eax,%edi
    d0e2:	e8 bf 9d ff ff       	callq  6ea6 <safe_unary_minus_func_uint32_t_u>
    d0e7:	89 c0                	mov    %eax,%eax
    d0e9:	4c 89 e6             	mov    %r12,%rsi
    d0ec:	48 89 c7             	mov    %rax,%rdi
    d0ef:	e8 03 99 ff ff       	callq  69f7 <safe_div_func_int64_t_s_s>
    d0f4:	b9 19 44 49 e9       	mov    $0xe9494419,%ecx
    d0f9:	48 8b 85 f0 ee ff ff 	mov    -0x1110(%rbp),%rax
    d100:	8b 10                	mov    (%rax),%edx
    d102:	48 8b 85 f0 ee ff ff 	mov    -0x1110(%rbp),%rax
    d109:	09 ca                	or     %ecx,%edx
    d10b:	89 10                	mov    %edx,(%rax)
    d10d:	8b 10                	mov    (%rax),%edx
    d10f:	8b 85 fc ee ff ff    	mov    -0x1104(%rbp),%eax
    d115:	8b 0d dd 9f 00 00    	mov    0x9fdd(%rip),%ecx        # 170f8 <g_27>
    d11b:	8d 71 01             	lea    0x1(%rcx),%esi
    d11e:	89 d1                	mov    %edx,%ecx
    d120:	31 c1                	xor    %eax,%ecx
    d122:	89 f0                	mov    %esi,%eax
    d124:	48 8d 14 85 00 00 00 	lea    0x0(,%rax,4),%rdx
    d12b:	00 
    d12c:	48 8d 05 4d a0 00 00 	lea    0xa04d(%rip),%rax        # 17180 <g_119>
    d133:	89 0c 02             	mov    %ecx,(%rdx,%rax,1)
    d136:	0f b7 05 d3 9f 00 00 	movzwl 0x9fd3(%rip),%eax        # 17110 <g_31+0x10>
    d13d:	66 25 ff 07          	and    $0x7ff,%ax
    d141:	66 83 f8 04          	cmp    $0x4,%ax
    d145:	0f 97 c0             	seta   %al
    d148:	0f b6 c0             	movzbl %al,%eax
    d14b:	0b 85 60 ef ff ff    	or     -0x10a0(%rbp),%eax
    d151:	89 c2                	mov    %eax,%edx
    d153:	0f b7 85 0a ef ff ff 	movzwl -0x10f6(%rbp),%eax
    d15a:	09 d0                	or     %edx,%eax
    d15c:	66 89 85 0a ef ff ff 	mov    %ax,-0x10f6(%rbp)
    d163:	0f bf 95 0a ef ff ff 	movswl -0x10f6(%rbp),%edx
    d16a:	48 8b 8d 08 f1 ff ff 	mov    -0xef8(%rbp),%rcx
    d171:	48 8b 85 90 f0 ff ff 	mov    -0xf70(%rbp),%rax
    d178:	48 8b 30             	mov    (%rax),%rsi
    d17b:	48 8d 85 00 ef ff ff 	lea    -0x1100(%rbp),%rax
    d182:	48 39 c6             	cmp    %rax,%rsi
    d185:	0f 95 c0             	setne  %al
    d188:	0f b6 c0             	movzbl %al,%eax
    d18b:	48 39 c1             	cmp    %rax,%rcx
    d18e:	0f 97 c0             	seta   %al
    d191:	0f b6 c0             	movzbl %al,%eax
    d194:	89 d6                	mov    %edx,%esi
    d196:	89 c7                	mov    %eax,%edi
    d198:	e8 33 9d ff ff       	callq  6ed0 <safe_sub_func_uint32_t_u_u>
    d19d:	89 c2                	mov    %eax,%edx
    d19f:	48 8b 85 98 f0 ff ff 	mov    -0xf68(%rbp),%rax
    d1a6:	66 89 10             	mov    %dx,(%rax)
    d1a9:	48 8b 85 98 f0 ff ff 	mov    -0xf68(%rbp),%rax
    d1b0:	0f b7 00             	movzwl (%rax),%eax
    d1b3:	0f b7 15 60 a0 00 00 	movzwl 0xa060(%rip),%edx        # 1721a <g_194+0x7a>
    d1ba:	31 d0                	xor    %edx,%eax
    d1bc:	66 89 05 57 a0 00 00 	mov    %ax,0xa057(%rip)        # 1721a <g_194+0x7a>
    d1c3:	0f b7 05 50 a0 00 00 	movzwl 0xa050(%rip),%eax        # 1721a <g_194+0x7a>
    d1ca:	0f b7 c0             	movzwl %ax,%eax
    d1cd:	0b 85 64 ef ff ff    	or     -0x109c(%rbp),%eax
    d1d3:	89 85 10 ef ff ff    	mov    %eax,-0x10f0(%rbp)
    d1d9:	8b 95 10 ef ff ff    	mov    -0x10f0(%rbp),%edx
    d1df:	0f b7 85 e4 ee ff ff 	movzwl -0x111c(%rbp),%eax
    d1e6:	0f b7 c0             	movzwl %ax,%eax
    d1e9:	89 d6                	mov    %edx,%esi
    d1eb:	89 c7                	mov    %eax,%edi
    d1ed:	e8 cc 9b ff ff       	callq  6dbe <safe_lshift_func_uint16_t_u_s>
    d1f2:	0f b7 85 f8 ee ff ff 	movzwl -0x1108(%rbp),%eax
    d1f9:	0f bf d0             	movswl %ax,%edx
    d1fc:	48 8d 85 fc ee ff ff 	lea    -0x1104(%rbp),%rax
    d203:	48 39 85 b0 ef ff ff 	cmp    %rax,-0x1050(%rbp)
    d20a:	0f 95 c0             	setne  %al
    d20d:	0f b6 c0             	movzbl %al,%eax
    d210:	39 c2                	cmp    %eax,%edx
    d212:	0f 9e c0             	setle  %al
    d215:	0f b6 c0             	movzbl %al,%eax
    d218:	48 89 de             	mov    %rbx,%rsi
    d21b:	48 89 c7             	mov    %rax,%rdi
    d21e:	e8 0b 9e ff ff       	callq  702e <safe_add_func_uint64_t_u_u>
    d223:	89 c6                	mov    %eax,%esi
    d225:	bf b2 51 00 00       	mov    $0x51b2,%edi
    d22a:	e8 fb 92 ff ff       	callq  652a <safe_rshift_func_int16_t_s_s>
    d22f:	66 85 c0             	test   %ax,%ax
    d232:	74 21                	je     d255 <func_55+0xc4d>
    d234:	48 8d 85 70 ef ff ff 	lea    -0x1090(%rbp),%rax
    d23b:	48 89 85 d0 f0 ff ff 	mov    %rax,-0xf30(%rbp)
    d242:	48 8b 85 d0 f0 ff ff 	mov    -0xf30(%rbp),%rax
    d249:	48 c7 00 00 00 00 00 	movq   $0x0,(%rax)
    d250:	e9 21 0b 00 00       	jmpq   dd76 <func_55+0x176e>
    d255:	48 c7 85 00 f9 ff ff 	movq   $0x0,-0x700(%rbp)
    d25c:	00 00 00 00 
    d260:	48 8d 85 70 ef ff ff 	lea    -0x1090(%rbp),%rax
    d267:	48 89 85 08 f9 ff ff 	mov    %rax,-0x6f8(%rbp)
    d26e:	48 8d 85 70 ef ff ff 	lea    -0x1090(%rbp),%rax
    d275:	48 89 85 10 f9 ff ff 	mov    %rax,-0x6f0(%rbp)
    d27c:	48 c7 85 18 f9 ff ff 	movq   $0x0,-0x6e8(%rbp)
    d283:	00 00 00 00 
    d287:	48 8d 85 70 ef ff ff 	lea    -0x1090(%rbp),%rax
    d28e:	48 89 85 20 f9 ff ff 	mov    %rax,-0x6e0(%rbp)
    d295:	48 8d 85 70 ef ff ff 	lea    -0x1090(%rbp),%rax
    d29c:	48 89 85 28 f9 ff ff 	mov    %rax,-0x6d8(%rbp)
    d2a3:	48 c7 85 30 f9 ff ff 	movq   $0x0,-0x6d0(%rbp)
    d2aa:	00 00 00 00 
    d2ae:	48 c7 85 38 f9 ff ff 	movq   $0x0,-0x6c8(%rbp)
    d2b5:	00 00 00 00 
    d2b9:	48 8d 85 70 ef ff ff 	lea    -0x1090(%rbp),%rax
    d2c0:	48 89 85 40 f9 ff ff 	mov    %rax,-0x6c0(%rbp)
    d2c7:	48 8d 85 70 ef ff ff 	lea    -0x1090(%rbp),%rax
    d2ce:	48 89 85 48 f9 ff ff 	mov    %rax,-0x6b8(%rbp)
    d2d5:	48 c7 85 50 f9 ff ff 	movq   $0x0,-0x6b0(%rbp)
    d2dc:	00 00 00 00 
    d2e0:	48 8d 85 70 ef ff ff 	lea    -0x1090(%rbp),%rax
    d2e7:	48 89 85 58 f9 ff ff 	mov    %rax,-0x6a8(%rbp)
    d2ee:	48 8d 85 70 ef ff ff 	lea    -0x1090(%rbp),%rax
    d2f5:	48 89 85 60 f9 ff ff 	mov    %rax,-0x6a0(%rbp)
    d2fc:	48 c7 85 68 f9 ff ff 	movq   $0x0,-0x698(%rbp)
    d303:	00 00 00 00 
    d307:	48 8d 85 70 ef ff ff 	lea    -0x1090(%rbp),%rax
    d30e:	48 89 85 70 f9 ff ff 	mov    %rax,-0x690(%rbp)
    d315:	48 8d 85 70 ef ff ff 	lea    -0x1090(%rbp),%rax
    d31c:	48 89 85 78 f9 ff ff 	mov    %rax,-0x688(%rbp)
    d323:	48 8d 85 70 ef ff ff 	lea    -0x1090(%rbp),%rax
    d32a:	48 89 85 80 f9 ff ff 	mov    %rax,-0x680(%rbp)
    d331:	48 8d 85 70 ef ff ff 	lea    -0x1090(%rbp),%rax
    d338:	48 89 85 88 f9 ff ff 	mov    %rax,-0x678(%rbp)
    d33f:	48 8d 85 70 ef ff ff 	lea    -0x1090(%rbp),%rax
    d346:	48 89 85 90 f9 ff ff 	mov    %rax,-0x670(%rbp)
    d34d:	48 8d 85 70 ef ff ff 	lea    -0x1090(%rbp),%rax
    d354:	48 89 85 98 f9 ff ff 	mov    %rax,-0x668(%rbp)
    d35b:	48 8d 85 70 ef ff ff 	lea    -0x1090(%rbp),%rax
    d362:	48 89 85 a0 f9 ff ff 	mov    %rax,-0x660(%rbp)
    d369:	48 8d 85 70 ef ff ff 	lea    -0x1090(%rbp),%rax
    d370:	48 89 85 a8 f9 ff ff 	mov    %rax,-0x658(%rbp)
    d377:	48 c7 85 b0 f9 ff ff 	movq   $0x0,-0x650(%rbp)
    d37e:	00 00 00 00 
    d382:	48 8d 85 70 ef ff ff 	lea    -0x1090(%rbp),%rax
    d389:	48 89 85 b8 f9 ff ff 	mov    %rax,-0x648(%rbp)
    d390:	48 8d 85 70 ef ff ff 	lea    -0x1090(%rbp),%rax
    d397:	48 89 85 c0 f9 ff ff 	mov    %rax,-0x640(%rbp)
    d39e:	48 8d 85 70 ef ff ff 	lea    -0x1090(%rbp),%rax
    d3a5:	48 89 85 c8 f9 ff ff 	mov    %rax,-0x638(%rbp)
    d3ac:	48 c7 85 d0 f9 ff ff 	movq   $0x0,-0x630(%rbp)
    d3b3:	00 00 00 00 
    d3b7:	48 8d 85 70 ef ff ff 	lea    -0x1090(%rbp),%rax
    d3be:	48 89 85 d8 f9 ff ff 	mov    %rax,-0x628(%rbp)
    d3c5:	48 c7 85 e0 f9 ff ff 	movq   $0x0,-0x620(%rbp)
    d3cc:	00 00 00 00 
    d3d0:	48 8d 85 70 ef ff ff 	lea    -0x1090(%rbp),%rax
    d3d7:	48 89 85 e8 f9 ff ff 	mov    %rax,-0x618(%rbp)
    d3de:	48 8d 85 70 ef ff ff 	lea    -0x1090(%rbp),%rax
    d3e5:	48 89 85 f0 f9 ff ff 	mov    %rax,-0x610(%rbp)
    d3ec:	48 8d 85 70 ef ff ff 	lea    -0x1090(%rbp),%rax
    d3f3:	48 89 85 f8 f9 ff ff 	mov    %rax,-0x608(%rbp)
    d3fa:	48 8d 85 70 ef ff ff 	lea    -0x1090(%rbp),%rax
    d401:	48 89 85 00 fa ff ff 	mov    %rax,-0x600(%rbp)
    d408:	48 c7 85 08 fa ff ff 	movq   $0x0,-0x5f8(%rbp)
    d40f:	00 00 00 00 
    d413:	48 c7 85 10 fa ff ff 	movq   $0x0,-0x5f0(%rbp)
    d41a:	00 00 00 00 
    d41e:	48 c7 85 18 fa ff ff 	movq   $0x0,-0x5e8(%rbp)
    d425:	00 00 00 00 
    d429:	48 8d 85 70 ef ff ff 	lea    -0x1090(%rbp),%rax
    d430:	48 89 85 20 fa ff ff 	mov    %rax,-0x5e0(%rbp)
    d437:	48 8d 85 70 ef ff ff 	lea    -0x1090(%rbp),%rax
    d43e:	48 89 85 28 fa ff ff 	mov    %rax,-0x5d8(%rbp)
    d445:	48 8d 85 70 ef ff ff 	lea    -0x1090(%rbp),%rax
    d44c:	48 89 85 30 fa ff ff 	mov    %rax,-0x5d0(%rbp)
    d453:	48 8d 85 70 ef ff ff 	lea    -0x1090(%rbp),%rax
    d45a:	48 89 85 38 fa ff ff 	mov    %rax,-0x5c8(%rbp)
    d461:	48 c7 85 40 fa ff ff 	movq   $0x0,-0x5c0(%rbp)
    d468:	00 00 00 00 
    d46c:	48 c7 85 48 fa ff ff 	movq   $0x0,-0x5b8(%rbp)
    d473:	00 00 00 00 
    d477:	48 8d 85 70 ef ff ff 	lea    -0x1090(%rbp),%rax
    d47e:	48 89 85 50 fa ff ff 	mov    %rax,-0x5b0(%rbp)
    d485:	48 8d 85 70 ef ff ff 	lea    -0x1090(%rbp),%rax
    d48c:	48 89 85 58 fa ff ff 	mov    %rax,-0x5a8(%rbp)
    d493:	48 8d 85 70 ef ff ff 	lea    -0x1090(%rbp),%rax
    d49a:	48 89 85 60 fa ff ff 	mov    %rax,-0x5a0(%rbp)
    d4a1:	48 8d 85 70 ef ff ff 	lea    -0x1090(%rbp),%rax
    d4a8:	48 89 85 68 fa ff ff 	mov    %rax,-0x598(%rbp)
    d4af:	48 8d 85 70 ef ff ff 	lea    -0x1090(%rbp),%rax
    d4b6:	48 89 85 70 fa ff ff 	mov    %rax,-0x590(%rbp)
    d4bd:	48 8d 85 70 ef ff ff 	lea    -0x1090(%rbp),%rax
    d4c4:	48 89 85 78 fa ff ff 	mov    %rax,-0x588(%rbp)
    d4cb:	48 8d 85 70 ef ff ff 	lea    -0x1090(%rbp),%rax
    d4d2:	48 89 85 80 fa ff ff 	mov    %rax,-0x580(%rbp)
    d4d9:	48 8d 85 70 ef ff ff 	lea    -0x1090(%rbp),%rax
    d4e0:	48 89 85 88 fa ff ff 	mov    %rax,-0x578(%rbp)
    d4e7:	48 c7 85 90 fa ff ff 	movq   $0x0,-0x570(%rbp)
    d4ee:	00 00 00 00 
    d4f2:	48 8d 85 70 ef ff ff 	lea    -0x1090(%rbp),%rax
    d4f9:	48 89 85 98 fa ff ff 	mov    %rax,-0x568(%rbp)
    d500:	48 8d 85 70 ef ff ff 	lea    -0x1090(%rbp),%rax
    d507:	48 89 85 a0 fa ff ff 	mov    %rax,-0x560(%rbp)
    d50e:	48 8d 85 70 ef ff ff 	lea    -0x1090(%rbp),%rax
    d515:	48 89 85 a8 fa ff ff 	mov    %rax,-0x558(%rbp)
    d51c:	48 8d 85 70 ef ff ff 	lea    -0x1090(%rbp),%rax
    d523:	48 89 85 b0 fa ff ff 	mov    %rax,-0x550(%rbp)
    d52a:	48 8d 85 70 ef ff ff 	lea    -0x1090(%rbp),%rax
    d531:	48 89 85 b8 fa ff ff 	mov    %rax,-0x548(%rbp)
    d538:	48 8d 85 70 ef ff ff 	lea    -0x1090(%rbp),%rax
    d53f:	48 89 85 c0 fa ff ff 	mov    %rax,-0x540(%rbp)
    d546:	48 c7 85 c8 fa ff ff 	movq   $0x0,-0x538(%rbp)
    d54d:	00 00 00 00 
    d551:	48 8d 85 70 ef ff ff 	lea    -0x1090(%rbp),%rax
    d558:	48 89 85 d0 fa ff ff 	mov    %rax,-0x530(%rbp)
    d55f:	48 8d 85 70 ef ff ff 	lea    -0x1090(%rbp),%rax
    d566:	48 89 85 d8 fa ff ff 	mov    %rax,-0x528(%rbp)
    d56d:	48 8d 85 70 ef ff ff 	lea    -0x1090(%rbp),%rax
    d574:	48 89 85 e0 fa ff ff 	mov    %rax,-0x520(%rbp)
    d57b:	48 8d 85 70 ef ff ff 	lea    -0x1090(%rbp),%rax
    d582:	48 89 85 e8 fa ff ff 	mov    %rax,-0x518(%rbp)
    d589:	48 8d 85 70 ef ff ff 	lea    -0x1090(%rbp),%rax
    d590:	48 89 85 f0 fa ff ff 	mov    %rax,-0x510(%rbp)
    d597:	48 8d 85 70 ef ff ff 	lea    -0x1090(%rbp),%rax
    d59e:	48 89 85 f8 fa ff ff 	mov    %rax,-0x508(%rbp)
    d5a5:	48 c7 85 00 fb ff ff 	movq   $0x0,-0x500(%rbp)
    d5ac:	00 00 00 00 
    d5b0:	48 8d 85 70 ef ff ff 	lea    -0x1090(%rbp),%rax
    d5b7:	48 89 85 08 fb ff ff 	mov    %rax,-0x4f8(%rbp)
    d5be:	48 8d 85 70 ef ff ff 	lea    -0x1090(%rbp),%rax
    d5c5:	48 89 85 10 fb ff ff 	mov    %rax,-0x4f0(%rbp)
    d5cc:	48 8d 85 70 ef ff ff 	lea    -0x1090(%rbp),%rax
    d5d3:	48 89 85 18 fb ff ff 	mov    %rax,-0x4e8(%rbp)
    d5da:	48 c7 85 20 fb ff ff 	movq   $0x0,-0x4e0(%rbp)
    d5e1:	00 00 00 00 
    d5e5:	48 8d 85 70 ef ff ff 	lea    -0x1090(%rbp),%rax
    d5ec:	48 89 85 28 fb ff ff 	mov    %rax,-0x4d8(%rbp)
    d5f3:	48 c7 85 30 fb ff ff 	movq   $0x0,-0x4d0(%rbp)
    d5fa:	00 00 00 00 
    d5fe:	48 8d 85 70 ef ff ff 	lea    -0x1090(%rbp),%rax
    d605:	48 89 85 38 fb ff ff 	mov    %rax,-0x4c8(%rbp)
    d60c:	48 8d 85 70 ef ff ff 	lea    -0x1090(%rbp),%rax
    d613:	48 89 85 40 fb ff ff 	mov    %rax,-0x4c0(%rbp)
    d61a:	48 8d 85 70 ef ff ff 	lea    -0x1090(%rbp),%rax
    d621:	48 89 85 48 fb ff ff 	mov    %rax,-0x4b8(%rbp)
    d628:	48 8d 85 70 ef ff ff 	lea    -0x1090(%rbp),%rax
    d62f:	48 89 85 50 fb ff ff 	mov    %rax,-0x4b0(%rbp)
    d636:	48 c7 85 58 fb ff ff 	movq   $0x0,-0x4a8(%rbp)
    d63d:	00 00 00 00 
    d641:	48 c7 85 60 fb ff ff 	movq   $0x0,-0x4a0(%rbp)
    d648:	00 00 00 00 
    d64c:	48 c7 85 68 fb ff ff 	movq   $0x0,-0x498(%rbp)
    d653:	00 00 00 00 
    d657:	48 8d 85 70 ef ff ff 	lea    -0x1090(%rbp),%rax
    d65e:	48 89 85 70 fb ff ff 	mov    %rax,-0x490(%rbp)
    d665:	48 8d 85 70 ef ff ff 	lea    -0x1090(%rbp),%rax
    d66c:	48 89 85 78 fb ff ff 	mov    %rax,-0x488(%rbp)
    d673:	48 8d 85 70 ef ff ff 	lea    -0x1090(%rbp),%rax
    d67a:	48 89 85 80 fb ff ff 	mov    %rax,-0x480(%rbp)
    d681:	48 8d 85 70 ef ff ff 	lea    -0x1090(%rbp),%rax
    d688:	48 89 85 88 fb ff ff 	mov    %rax,-0x478(%rbp)
    d68f:	48 c7 85 90 fb ff ff 	movq   $0x0,-0x470(%rbp)
    d696:	00 00 00 00 
    d69a:	48 c7 85 98 fb ff ff 	movq   $0x0,-0x468(%rbp)
    d6a1:	00 00 00 00 
    d6a5:	48 8d 85 70 ef ff ff 	lea    -0x1090(%rbp),%rax
    d6ac:	48 89 85 a0 fb ff ff 	mov    %rax,-0x460(%rbp)
    d6b3:	48 8d 85 70 ef ff ff 	lea    -0x1090(%rbp),%rax
    d6ba:	48 89 85 a8 fb ff ff 	mov    %rax,-0x458(%rbp)
    d6c1:	48 8d 85 70 ef ff ff 	lea    -0x1090(%rbp),%rax
    d6c8:	48 89 85 b0 fb ff ff 	mov    %rax,-0x450(%rbp)
    d6cf:	48 8d 85 70 ef ff ff 	lea    -0x1090(%rbp),%rax
    d6d6:	48 89 85 b8 fb ff ff 	mov    %rax,-0x448(%rbp)
    d6dd:	48 8d 85 70 ef ff ff 	lea    -0x1090(%rbp),%rax
    d6e4:	48 89 85 c0 fb ff ff 	mov    %rax,-0x440(%rbp)
    d6eb:	48 8d 85 70 ef ff ff 	lea    -0x1090(%rbp),%rax
    d6f2:	48 89 85 c8 fb ff ff 	mov    %rax,-0x438(%rbp)
    d6f9:	48 8d 85 70 ef ff ff 	lea    -0x1090(%rbp),%rax
    d700:	48 89 85 d0 fb ff ff 	mov    %rax,-0x430(%rbp)
    d707:	48 8d 85 70 ef ff ff 	lea    -0x1090(%rbp),%rax
    d70e:	48 89 85 d8 fb ff ff 	mov    %rax,-0x428(%rbp)
    d715:	48 c7 85 e0 fb ff ff 	movq   $0x0,-0x420(%rbp)
    d71c:	00 00 00 00 
    d720:	48 8d 85 70 ef ff ff 	lea    -0x1090(%rbp),%rax
    d727:	48 89 85 e8 fb ff ff 	mov    %rax,-0x418(%rbp)
    d72e:	48 8d 85 70 ef ff ff 	lea    -0x1090(%rbp),%rax
    d735:	48 89 85 f0 fb ff ff 	mov    %rax,-0x410(%rbp)
    d73c:	48 8d 85 70 ef ff ff 	lea    -0x1090(%rbp),%rax
    d743:	48 89 85 f8 fb ff ff 	mov    %rax,-0x408(%rbp)
    d74a:	48 8d 85 70 ef ff ff 	lea    -0x1090(%rbp),%rax
    d751:	48 89 85 00 fc ff ff 	mov    %rax,-0x400(%rbp)
    d758:	48 8d 85 70 ef ff ff 	lea    -0x1090(%rbp),%rax
    d75f:	48 89 85 08 fc ff ff 	mov    %rax,-0x3f8(%rbp)
    d766:	48 8d 85 70 ef ff ff 	lea    -0x1090(%rbp),%rax
    d76d:	48 89 85 10 fc ff ff 	mov    %rax,-0x3f0(%rbp)
    d774:	48 c7 85 18 fc ff ff 	movq   $0x0,-0x3e8(%rbp)
    d77b:	00 00 00 00 
    d77f:	48 8d 85 70 ef ff ff 	lea    -0x1090(%rbp),%rax
    d786:	48 89 85 20 fc ff ff 	mov    %rax,-0x3e0(%rbp)
    d78d:	48 8d 85 70 ef ff ff 	lea    -0x1090(%rbp),%rax
    d794:	48 89 85 28 fc ff ff 	mov    %rax,-0x3d8(%rbp)
    d79b:	48 8d 85 70 ef ff ff 	lea    -0x1090(%rbp),%rax
    d7a2:	48 89 85 30 fc ff ff 	mov    %rax,-0x3d0(%rbp)
    d7a9:	48 8d 85 70 ef ff ff 	lea    -0x1090(%rbp),%rax
    d7b0:	48 89 85 38 fc ff ff 	mov    %rax,-0x3c8(%rbp)
    d7b7:	48 8d 85 70 ef ff ff 	lea    -0x1090(%rbp),%rax
    d7be:	48 89 85 40 fc ff ff 	mov    %rax,-0x3c0(%rbp)
    d7c5:	48 8d 85 70 ef ff ff 	lea    -0x1090(%rbp),%rax
    d7cc:	48 89 85 48 fc ff ff 	mov    %rax,-0x3b8(%rbp)
    d7d3:	48 c7 85 50 fc ff ff 	movq   $0x0,-0x3b0(%rbp)
    d7da:	00 00 00 00 
    d7de:	48 8d 85 70 ef ff ff 	lea    -0x1090(%rbp),%rax
    d7e5:	48 89 85 58 fc ff ff 	mov    %rax,-0x3a8(%rbp)
    d7ec:	48 8d 85 70 ef ff ff 	lea    -0x1090(%rbp),%rax
    d7f3:	48 89 85 60 fc ff ff 	mov    %rax,-0x3a0(%rbp)
    d7fa:	48 8d 85 70 ef ff ff 	lea    -0x1090(%rbp),%rax
    d801:	48 89 85 68 fc ff ff 	mov    %rax,-0x398(%rbp)
    d808:	48 c7 85 70 fc ff ff 	movq   $0x0,-0x390(%rbp)
    d80f:	00 00 00 00 
    d813:	48 8d 85 70 ef ff ff 	lea    -0x1090(%rbp),%rax
    d81a:	48 89 85 78 fc ff ff 	mov    %rax,-0x388(%rbp)
    d821:	48 c7 85 80 fc ff ff 	movq   $0x0,-0x380(%rbp)
    d828:	00 00 00 00 
    d82c:	48 8d 85 70 ef ff ff 	lea    -0x1090(%rbp),%rax
    d833:	48 89 85 88 fc ff ff 	mov    %rax,-0x378(%rbp)
    d83a:	48 8d 85 70 ef ff ff 	lea    -0x1090(%rbp),%rax
    d841:	48 89 85 90 fc ff ff 	mov    %rax,-0x370(%rbp)
    d848:	48 8d 85 70 ef ff ff 	lea    -0x1090(%rbp),%rax
    d84f:	48 89 85 98 fc ff ff 	mov    %rax,-0x368(%rbp)
    d856:	48 8d 85 70 ef ff ff 	lea    -0x1090(%rbp),%rax
    d85d:	48 89 85 a0 fc ff ff 	mov    %rax,-0x360(%rbp)
    d864:	48 c7 85 a8 fc ff ff 	movq   $0x0,-0x358(%rbp)
    d86b:	00 00 00 00 
    d86f:	48 c7 85 b0 fc ff ff 	movq   $0x0,-0x350(%rbp)
    d876:	00 00 00 00 
    d87a:	48 c7 85 b8 fc ff ff 	movq   $0x0,-0x348(%rbp)
    d881:	00 00 00 00 
    d885:	48 8d 85 70 ef ff ff 	lea    -0x1090(%rbp),%rax
    d88c:	48 89 85 c0 fc ff ff 	mov    %rax,-0x340(%rbp)
    d893:	48 8d 85 70 ef ff ff 	lea    -0x1090(%rbp),%rax
    d89a:	48 89 85 c8 fc ff ff 	mov    %rax,-0x338(%rbp)
    d8a1:	48 8d 85 70 ef ff ff 	lea    -0x1090(%rbp),%rax
    d8a8:	48 89 85 d0 fc ff ff 	mov    %rax,-0x330(%rbp)
    d8af:	48 8d 85 70 ef ff ff 	lea    -0x1090(%rbp),%rax
    d8b6:	48 89 85 d8 fc ff ff 	mov    %rax,-0x328(%rbp)
    d8bd:	48 c7 85 e0 fc ff ff 	movq   $0x0,-0x320(%rbp)
    d8c4:	00 00 00 00 
    d8c8:	48 c7 85 e8 fc ff ff 	movq   $0x0,-0x318(%rbp)
    d8cf:	00 00 00 00 
    d8d3:	48 8d 85 70 ef ff ff 	lea    -0x1090(%rbp),%rax
    d8da:	48 89 85 f0 fc ff ff 	mov    %rax,-0x310(%rbp)
    d8e1:	48 8d 85 70 ef ff ff 	lea    -0x1090(%rbp),%rax
    d8e8:	48 89 85 f8 fc ff ff 	mov    %rax,-0x308(%rbp)
    d8ef:	48 8d 85 70 ef ff ff 	lea    -0x1090(%rbp),%rax
    d8f6:	48 89 85 00 fd ff ff 	mov    %rax,-0x300(%rbp)
    d8fd:	48 8d 85 70 ef ff ff 	lea    -0x1090(%rbp),%rax
    d904:	48 89 85 08 fd ff ff 	mov    %rax,-0x2f8(%rbp)
    d90b:	48 8d 85 70 ef ff ff 	lea    -0x1090(%rbp),%rax
    d912:	48 89 85 10 fd ff ff 	mov    %rax,-0x2f0(%rbp)
    d919:	48 8d 85 70 ef ff ff 	lea    -0x1090(%rbp),%rax
    d920:	48 89 85 18 fd ff ff 	mov    %rax,-0x2e8(%rbp)
    d927:	48 8d 85 70 ef ff ff 	lea    -0x1090(%rbp),%rax
    d92e:	48 89 85 20 fd ff ff 	mov    %rax,-0x2e0(%rbp)
    d935:	48 8d 85 70 ef ff ff 	lea    -0x1090(%rbp),%rax
    d93c:	48 89 85 28 fd ff ff 	mov    %rax,-0x2d8(%rbp)
    d943:	48 c7 85 30 fd ff ff 	movq   $0x0,-0x2d0(%rbp)
    d94a:	00 00 00 00 
    d94e:	48 8d 85 70 ef ff ff 	lea    -0x1090(%rbp),%rax
    d955:	48 89 85 38 fd ff ff 	mov    %rax,-0x2c8(%rbp)
    d95c:	48 8d 85 70 ef ff ff 	lea    -0x1090(%rbp),%rax
    d963:	48 89 85 40 fd ff ff 	mov    %rax,-0x2c0(%rbp)
    d96a:	48 8d 85 70 ef ff ff 	lea    -0x1090(%rbp),%rax
    d971:	48 89 85 48 fd ff ff 	mov    %rax,-0x2b8(%rbp)
    d978:	48 8d 85 70 ef ff ff 	lea    -0x1090(%rbp),%rax
    d97f:	48 89 85 50 fd ff ff 	mov    %rax,-0x2b0(%rbp)
    d986:	48 8d 85 70 ef ff ff 	lea    -0x1090(%rbp),%rax
    d98d:	48 89 85 58 fd ff ff 	mov    %rax,-0x2a8(%rbp)
    d994:	48 8d 85 70 ef ff ff 	lea    -0x1090(%rbp),%rax
    d99b:	48 89 85 60 fd ff ff 	mov    %rax,-0x2a0(%rbp)
    d9a2:	48 c7 85 68 fd ff ff 	movq   $0x0,-0x298(%rbp)
    d9a9:	00 00 00 00 
    d9ad:	48 8d 85 70 ef ff ff 	lea    -0x1090(%rbp),%rax
    d9b4:	48 89 85 70 fd ff ff 	mov    %rax,-0x290(%rbp)
    d9bb:	48 8d 85 70 ef ff ff 	lea    -0x1090(%rbp),%rax
    d9c2:	48 89 85 78 fd ff ff 	mov    %rax,-0x288(%rbp)
    d9c9:	48 8d 85 70 ef ff ff 	lea    -0x1090(%rbp),%rax
    d9d0:	48 89 85 80 fd ff ff 	mov    %rax,-0x280(%rbp)
    d9d7:	48 8d 85 70 ef ff ff 	lea    -0x1090(%rbp),%rax
    d9de:	48 89 85 88 fd ff ff 	mov    %rax,-0x278(%rbp)
    d9e5:	48 8d 85 70 ef ff ff 	lea    -0x1090(%rbp),%rax
    d9ec:	48 89 85 90 fd ff ff 	mov    %rax,-0x270(%rbp)
    d9f3:	48 8d 85 70 ef ff ff 	lea    -0x1090(%rbp),%rax
    d9fa:	48 89 85 98 fd ff ff 	mov    %rax,-0x268(%rbp)
    da01:	48 c7 85 a0 fd ff ff 	movq   $0x0,-0x260(%rbp)
    da08:	00 00 00 00 
    da0c:	48 8d 85 70 ef ff ff 	lea    -0x1090(%rbp),%rax
    da13:	48 89 85 a8 fd ff ff 	mov    %rax,-0x258(%rbp)
    da1a:	48 8d 85 70 ef ff ff 	lea    -0x1090(%rbp),%rax
    da21:	48 89 85 b0 fd ff ff 	mov    %rax,-0x250(%rbp)
    da28:	48 8d 85 70 ef ff ff 	lea    -0x1090(%rbp),%rax
    da2f:	48 89 85 b8 fd ff ff 	mov    %rax,-0x248(%rbp)
    da36:	48 c7 85 c0 fd ff ff 	movq   $0x0,-0x240(%rbp)
    da3d:	00 00 00 00 
    da41:	48 8d 85 70 ef ff ff 	lea    -0x1090(%rbp),%rax
    da48:	48 89 85 c8 fd ff ff 	mov    %rax,-0x238(%rbp)
    da4f:	48 c7 85 d0 fd ff ff 	movq   $0x0,-0x230(%rbp)
    da56:	00 00 00 00 
    da5a:	48 8d 85 70 ef ff ff 	lea    -0x1090(%rbp),%rax
    da61:	48 89 85 d8 fd ff ff 	mov    %rax,-0x228(%rbp)
    da68:	48 8d 85 70 ef ff ff 	lea    -0x1090(%rbp),%rax
    da6f:	48 89 85 e0 fd ff ff 	mov    %rax,-0x220(%rbp)
    da76:	48 8d 85 70 ef ff ff 	lea    -0x1090(%rbp),%rax
    da7d:	48 89 85 e8 fd ff ff 	mov    %rax,-0x218(%rbp)
    da84:	48 8d 85 70 ef ff ff 	lea    -0x1090(%rbp),%rax
    da8b:	48 89 85 f0 fd ff ff 	mov    %rax,-0x210(%rbp)
    da92:	48 c7 85 f8 fd ff ff 	movq   $0x0,-0x208(%rbp)
    da99:	00 00 00 00 
    da9d:	48 c7 85 00 fe ff ff 	movq   $0x0,-0x200(%rbp)
    daa4:	00 00 00 00 
    daa8:	48 c7 85 08 fe ff ff 	movq   $0x0,-0x1f8(%rbp)
    daaf:	00 00 00 00 
    dab3:	48 8d 85 70 ef ff ff 	lea    -0x1090(%rbp),%rax
    daba:	48 89 85 10 fe ff ff 	mov    %rax,-0x1f0(%rbp)
    dac1:	48 8d 85 70 ef ff ff 	lea    -0x1090(%rbp),%rax
    dac8:	48 89 85 18 fe ff ff 	mov    %rax,-0x1e8(%rbp)
    dacf:	48 8d 85 70 ef ff ff 	lea    -0x1090(%rbp),%rax
    dad6:	48 89 85 20 fe ff ff 	mov    %rax,-0x1e0(%rbp)
    dadd:	48 8d 85 70 ef ff ff 	lea    -0x1090(%rbp),%rax
    dae4:	48 89 85 28 fe ff ff 	mov    %rax,-0x1d8(%rbp)
    daeb:	48 c7 85 30 fe ff ff 	movq   $0x0,-0x1d0(%rbp)
    daf2:	00 00 00 00 
    daf6:	48 c7 85 38 fe ff ff 	movq   $0x0,-0x1c8(%rbp)
    dafd:	00 00 00 00 
    db01:	48 8d 85 70 ef ff ff 	lea    -0x1090(%rbp),%rax
    db08:	48 89 85 40 fe ff ff 	mov    %rax,-0x1c0(%rbp)
    db0f:	48 8d 85 70 ef ff ff 	lea    -0x1090(%rbp),%rax
    db16:	48 89 85 48 fe ff ff 	mov    %rax,-0x1b8(%rbp)
    db1d:	48 8d 85 70 ef ff ff 	lea    -0x1090(%rbp),%rax
    db24:	48 89 85 50 fe ff ff 	mov    %rax,-0x1b0(%rbp)
    db2b:	48 8d 85 70 ef ff ff 	lea    -0x1090(%rbp),%rax
    db32:	48 89 85 58 fe ff ff 	mov    %rax,-0x1a8(%rbp)
    db39:	48 8d 85 70 ef ff ff 	lea    -0x1090(%rbp),%rax
    db40:	48 89 85 60 fe ff ff 	mov    %rax,-0x1a0(%rbp)
    db47:	48 8d 85 70 ef ff ff 	lea    -0x1090(%rbp),%rax
    db4e:	48 89 85 68 fe ff ff 	mov    %rax,-0x198(%rbp)
    db55:	48 8d 85 70 ef ff ff 	lea    -0x1090(%rbp),%rax
    db5c:	48 89 85 70 fe ff ff 	mov    %rax,-0x190(%rbp)
    db63:	48 8d 85 70 ef ff ff 	lea    -0x1090(%rbp),%rax
    db6a:	48 89 85 78 fe ff ff 	mov    %rax,-0x188(%rbp)
    db71:	48 c7 85 80 fe ff ff 	movq   $0x0,-0x180(%rbp)
    db78:	00 00 00 00 
    db7c:	48 8d 85 70 ef ff ff 	lea    -0x1090(%rbp),%rax
    db83:	48 89 85 88 fe ff ff 	mov    %rax,-0x178(%rbp)
    db8a:	48 8d 85 70 ef ff ff 	lea    -0x1090(%rbp),%rax
    db91:	48 89 85 90 fe ff ff 	mov    %rax,-0x170(%rbp)
    db98:	48 8d 85 70 ef ff ff 	lea    -0x1090(%rbp),%rax
    db9f:	48 89 85 98 fe ff ff 	mov    %rax,-0x168(%rbp)
    dba6:	48 8d 85 70 ef ff ff 	lea    -0x1090(%rbp),%rax
    dbad:	48 89 85 a0 fe ff ff 	mov    %rax,-0x160(%rbp)
    dbb4:	48 8d 85 70 ef ff ff 	lea    -0x1090(%rbp),%rax
    dbbb:	48 89 85 a8 fe ff ff 	mov    %rax,-0x158(%rbp)
    dbc2:	48 8d 85 70 ef ff ff 	lea    -0x1090(%rbp),%rax
    dbc9:	48 89 85 b0 fe ff ff 	mov    %rax,-0x150(%rbp)
    dbd0:	48 c7 85 b8 fe ff ff 	movq   $0x0,-0x148(%rbp)
    dbd7:	00 00 00 00 
    dbdb:	48 8d 85 70 ef ff ff 	lea    -0x1090(%rbp),%rax
    dbe2:	48 89 85 c0 fe ff ff 	mov    %rax,-0x140(%rbp)
    dbe9:	48 8d 85 70 ef ff ff 	lea    -0x1090(%rbp),%rax
    dbf0:	48 89 85 c8 fe ff ff 	mov    %rax,-0x138(%rbp)
    dbf7:	48 8d 85 70 ef ff ff 	lea    -0x1090(%rbp),%rax
    dbfe:	48 89 85 d0 fe ff ff 	mov    %rax,-0x130(%rbp)
    dc05:	48 8d 85 70 ef ff ff 	lea    -0x1090(%rbp),%rax
    dc0c:	48 89 85 d8 fe ff ff 	mov    %rax,-0x128(%rbp)
    dc13:	48 8d 85 70 ef ff ff 	lea    -0x1090(%rbp),%rax
    dc1a:	48 89 85 e0 fe ff ff 	mov    %rax,-0x120(%rbp)
    dc21:	48 8d 85 70 ef ff ff 	lea    -0x1090(%rbp),%rax
    dc28:	48 89 85 e8 fe ff ff 	mov    %rax,-0x118(%rbp)
    dc2f:	48 c7 85 f0 fe ff ff 	movq   $0x0,-0x110(%rbp)
    dc36:	00 00 00 00 
    dc3a:	48 8d 85 70 ef ff ff 	lea    -0x1090(%rbp),%rax
    dc41:	48 89 85 f8 fe ff ff 	mov    %rax,-0x108(%rbp)
    dc48:	48 8d 85 70 ef ff ff 	lea    -0x1090(%rbp),%rax
    dc4f:	48 89 85 00 ff ff ff 	mov    %rax,-0x100(%rbp)
    dc56:	48 8d 85 70 ef ff ff 	lea    -0x1090(%rbp),%rax
    dc5d:	48 89 85 08 ff ff ff 	mov    %rax,-0xf8(%rbp)
    dc64:	48 c7 85 10 ff ff ff 	movq   $0x0,-0xf0(%rbp)
    dc6b:	00 00 00 00 
    dc6f:	48 8d 85 70 ef ff ff 	lea    -0x1090(%rbp),%rax
    dc76:	48 89 85 18 ff ff ff 	mov    %rax,-0xe8(%rbp)
    dc7d:	48 c7 85 20 ff ff ff 	movq   $0x0,-0xe0(%rbp)
    dc84:	00 00 00 00 
    dc88:	48 8d 85 70 ef ff ff 	lea    -0x1090(%rbp),%rax
    dc8f:	48 89 85 28 ff ff ff 	mov    %rax,-0xd8(%rbp)
    dc96:	48 8d 85 70 ef ff ff 	lea    -0x1090(%rbp),%rax
    dc9d:	48 89 85 30 ff ff ff 	mov    %rax,-0xd0(%rbp)
    dca4:	48 8d 85 70 ef ff ff 	lea    -0x1090(%rbp),%rax
    dcab:	48 89 85 38 ff ff ff 	mov    %rax,-0xc8(%rbp)
    dcb2:	48 8d 85 70 ef ff ff 	lea    -0x1090(%rbp),%rax
    dcb9:	48 89 85 40 ff ff ff 	mov    %rax,-0xc0(%rbp)
    dcc0:	48 c7 85 48 ff ff ff 	movq   $0x0,-0xb8(%rbp)
    dcc7:	00 00 00 00 
    dccb:	48 c7 85 50 ff ff ff 	movq   $0x0,-0xb0(%rbp)
    dcd2:	00 00 00 00 
    dcd6:	48 c7 85 58 ff ff ff 	movq   $0x0,-0xa8(%rbp)
    dcdd:	00 00 00 00 
    dce1:	48 8d 85 70 ef ff ff 	lea    -0x1090(%rbp),%rax
    dce8:	48 89 85 60 ff ff ff 	mov    %rax,-0xa0(%rbp)
    dcef:	48 8d 85 70 ef ff ff 	lea    -0x1090(%rbp),%rax
    dcf6:	48 89 85 68 ff ff ff 	mov    %rax,-0x98(%rbp)
    dcfd:	48 8d 85 70 ef ff ff 	lea    -0x1090(%rbp),%rax
    dd04:	48 89 85 70 ff ff ff 	mov    %rax,-0x90(%rbp)
    dd0b:	48 c7 85 78 ff ff ff 	movq   $0x0,-0x88(%rbp)
    dd12:	00 00 00 00 
    dd16:	48 8d 85 70 ef ff ff 	lea    -0x1090(%rbp),%rax
    dd1d:	48 89 45 80          	mov    %rax,-0x80(%rbp)
    dd21:	48 8d 85 70 ef ff ff 	lea    -0x1090(%rbp),%rax
    dd28:	48 89 45 88          	mov    %rax,-0x78(%rbp)
    dd2c:	48 8d 85 70 ef ff ff 	lea    -0x1090(%rbp),%rax
    dd33:	48 89 45 90          	mov    %rax,-0x70(%rbp)
    dd37:	48 8d 85 70 ef ff ff 	lea    -0x1090(%rbp),%rax
    dd3e:	48 89 45 98          	mov    %rax,-0x68(%rbp)
    dd42:	48 c7 45 a0 00 00 00 	movq   $0x0,-0x60(%rbp)
    dd49:	00 
    dd4a:	48 8d 85 70 ef ff ff 	lea    -0x1090(%rbp),%rax
    dd51:	48 89 45 a8          	mov    %rax,-0x58(%rbp)
    dd55:	48 c7 45 b0 00 00 00 	movq   $0x0,-0x50(%rbp)
    dd5c:	00 
    dd5d:	48 8d 85 70 ef ff ff 	lea    -0x1090(%rbp),%rax
    dd64:	48 89 45 b8          	mov    %rax,-0x48(%rbp)
    dd68:	48 8d 85 fc ee ff ff 	lea    -0x1104(%rbp),%rax
    dd6f:	48 89 85 b0 ef ff ff 	mov    %rax,-0x1050(%rbp)
    dd76:	8b 05 7c 93 00 00    	mov    0x937c(%rip),%eax        # 170f8 <g_27>
    dd7c:	83 c0 01             	add    $0x1,%eax
    dd7f:	89 05 73 93 00 00    	mov    %eax,0x9373(%rip)        # 170f8 <g_27>
    dd85:	8b 05 6d 93 00 00    	mov    0x936d(%rip),%eax        # 170f8 <g_27>
    dd8b:	85 c0                	test   %eax,%eax
    dd8d:	0f 84 e2 ee ff ff    	je     cc75 <func_55+0x66d>
    dd93:	eb 01                	jmp    dd96 <func_55+0x178e>
    dd95:	90                   	nop
    dd96:	66 c7 05 ef 93 00 00 	movw   $0x0,0x93ef(%rip)        # 1718e <g_193>
    dd9d:	00 00 
    dd9f:	e9 10 02 00 00       	jmpq   dfb4 <func_55+0x19ac>
    dda4:	48 8d 85 70 ef ff ff 	lea    -0x1090(%rbp),%rax
    ddab:	48 89 85 d8 f0 ff ff 	mov    %rax,-0xf28(%rbp)
    ddb2:	8b 85 fc ee ff ff    	mov    -0x1104(%rbp),%eax
    ddb8:	89 85 d8 ee ff ff    	mov    %eax,-0x1128(%rbp)
    ddbe:	48 8b 85 b0 ef ff ff 	mov    -0x1050(%rbp),%rax
    ddc5:	8b 00                	mov    (%rax),%eax
    ddc7:	0f be c0             	movsbl %al,%eax
    ddca:	be 02 00 00 00       	mov    $0x2,%esi
    ddcf:	89 c7                	mov    %eax,%edi
    ddd1:	e8 96 85 ff ff       	callq  636c <safe_rshift_func_int8_t_s_u>
    ddd6:	0f bf 9d 08 ef ff ff 	movswl -0x10f8(%rbp),%ebx
    dddd:	0f b7 85 f8 ee ff ff 	movzwl -0x1108(%rbp),%eax
    dde4:	44 0f be e0          	movsbl %al,%r12d
    dde8:	4c 8b bd 08 f1 ff ff 	mov    -0xef8(%rbp),%r15
    ddef:	48 8b 05 12 93 00 00 	mov    0x9312(%rip),%rax        # 17108 <g_31+0x8>
    ddf6:	48 89 85 d0 ee ff ff 	mov    %rax,-0x1130(%rbp)
    ddfd:	8b 85 fc ee ff ff    	mov    -0x1104(%rbp),%eax
    de03:	44 0f b6 e8          	movzbl %al,%r13d
    de07:	44 8b b5 fc ee ff ff 	mov    -0x1104(%rbp),%r14d
    de0e:	8b 05 e4 92 00 00    	mov    0x92e4(%rip),%eax        # 170f8 <g_27>
    de14:	48 8b 95 b0 ef ff ff 	mov    -0x1050(%rbp),%rdx
    de1b:	8b 12                	mov    (%rdx),%edx
    de1d:	80 ca ab             	or     $0xab,%dl
    de20:	89 c6                	mov    %eax,%esi
    de22:	89 d7                	mov    %edx,%edi
    de24:	e8 a7 90 ff ff       	callq  6ed0 <safe_sub_func_uint32_t_u_u>
    de29:	0f b6 15 d0 92 00 00 	movzbl 0x92d0(%rip),%edx        # 17100 <g_31>
    de30:	0f be d2             	movsbl %dl,%edx
    de33:	21 c2                	and    %eax,%edx
    de35:	0f bf 85 e4 ee ff ff 	movswl -0x111c(%rbp),%eax
    de3c:	39 c2                	cmp    %eax,%edx
    de3e:	0f 97 c0             	seta   %al
    de41:	0f b6 d0             	movzbl %al,%edx
    de44:	0f bf 85 e4 ee ff ff 	movswl -0x111c(%rbp),%eax
    de4b:	39 c2                	cmp    %eax,%edx
    de4d:	0f 9e c0             	setle  %al
    de50:	0f b6 c0             	movzbl %al,%eax
    de53:	44 89 f6             	mov    %r14d,%esi
    de56:	89 c7                	mov    %eax,%edi
    de58:	e8 35 86 ff ff       	callq  6492 <safe_lshift_func_int16_t_s_s>
    de5d:	0f bf d0             	movswl %ax,%edx
    de60:	48 8b 85 b0 ef ff ff 	mov    -0x1050(%rbp),%rax
    de67:	8b 00                	mov    (%rax),%eax
    de69:	09 d0                	or     %edx,%eax
    de6b:	85 c0                	test   %eax,%eax
    de6d:	75 0e                	jne    de7d <func_55+0x1875>
    de6f:	0f b7 85 10 f1 ff ff 	movzwl -0xef0(%rbp),%eax
    de76:	66 25 ff 07          	and    $0x7ff,%ax
    de7a:	66 85 c0             	test   %ax,%ax
    de7d:	44 89 ee             	mov    %r13d,%esi
    de80:	bf 71 00 00 00       	mov    $0x71,%edi
    de85:	e8 d0 8c ff ff       	callq  6b5a <safe_add_func_uint8_t_u_u>
    de8a:	0f b6 c0             	movzbl %al,%eax
    de8d:	48 0b 85 d0 ee ff ff 	or     -0x1130(%rbp),%rax
    de94:	4c 89 fa             	mov    %r15,%rdx
    de97:	48 31 c2             	xor    %rax,%rdx
    de9a:	8b 85 fc ee ff ff    	mov    -0x1104(%rbp),%eax
    dea0:	48 98                	cltq   
    dea2:	48 39 c2             	cmp    %rax,%rdx
    dea5:	0f 95 c0             	setne  %al
    dea8:	0f b6 c0             	movzbl %al,%eax
    deab:	be de 6c 77 c3       	mov    $0xc3776cde,%esi
    deb0:	89 c7                	mov    %eax,%edi
    deb2:	e8 46 90 ff ff       	callq  6efd <safe_mod_func_uint32_t_u_u>
    deb7:	0f be c0             	movsbl %al,%eax
    deba:	44 89 e6             	mov    %r12d,%esi
    debd:	89 c7                	mov    %eax,%edi
    debf:	e8 6d 83 ff ff       	callq  6231 <safe_mod_func_int8_t_s_s>
    dec4:	0f be d0             	movsbl %al,%edx
    dec7:	8b 85 fc ee ff ff    	mov    -0x1104(%rbp),%eax
    decd:	39 c2                	cmp    %eax,%edx
    decf:	0f 95 c0             	setne  %al
    ded2:	0f b6 c0             	movzbl %al,%eax
    ded5:	be 04 00 00 00       	mov    $0x4,%esi
    deda:	89 c7                	mov    %eax,%edi
    dedc:	e8 6b 8d ff ff       	callq  6c4c <safe_lshift_func_uint8_t_u_u>
    dee1:	0f b7 05 a6 92 00 00 	movzwl 0x92a6(%rip),%eax        # 1718e <g_193>
    dee8:	98                   	cwtl   
    dee9:	48 98                	cltq   
    deeb:	48 8d 14 85 00 00 00 	lea    0x0(,%rax,4),%rdx
    def2:	00 
    def3:	48 8d 05 86 92 00 00 	lea    0x9286(%rip),%rax        # 17180 <g_119>
    defa:	8b 04 02             	mov    (%rdx,%rax,1),%eax
    defd:	83 f8 01             	cmp    $0x1,%eax
    df00:	0f 9e c0             	setle  %al
    df03:	0f b6 c0             	movzbl %al,%eax
    df06:	89 de                	mov    %ebx,%esi
    df08:	89 c7                	mov    %eax,%edi
    df0a:	e8 c4 84 ff ff       	callq  63d3 <safe_sub_func_int16_t_s_s>
    df0f:	48 8b 85 d8 f0 ff ff 	mov    -0xf28(%rbp),%rax
    df16:	48 8b 95 88 f0 ff ff 	mov    -0xf78(%rbp),%rdx
    df1d:	48 89 10             	mov    %rdx,(%rax)
    df20:	48 8b 85 d8 f0 ff ff 	mov    -0xf28(%rbp),%rax
    df27:	48 8b 10             	mov    (%rax),%rdx
    df2a:	48 8d 85 fc ee ff ff 	lea    -0x1104(%rbp),%rax
    df31:	48 39 c2             	cmp    %rax,%rdx
    df34:	0f 94 c0             	sete   %al
    df37:	0f b6 c0             	movzbl %al,%eax
    df3a:	8b 95 28 ef ff ff    	mov    -0x10d8(%rbp),%edx
    df40:	89 d6                	mov    %edx,%esi
    df42:	89 c7                	mov    %eax,%edi
    df44:	e8 75 8e ff ff       	callq  6dbe <safe_lshift_func_uint16_t_u_s>
    df49:	be 03 00 00 00       	mov    $0x3,%esi
    df4e:	bf 01 00 00 00       	mov    $0x1,%edi
    df53:	e8 96 83 ff ff       	callq  62ee <safe_lshift_func_int8_t_s_u>
    df58:	0f be d0             	movsbl %al,%edx
    df5b:	0f b7 85 10 f1 ff ff 	movzwl -0xef0(%rbp),%eax
    df62:	66 25 ff 07          	and    $0x7ff,%ax
    df66:	0f b7 c0             	movzwl %ax,%eax
    df69:	39 c2                	cmp    %eax,%edx
    df6b:	0f 94 c0             	sete   %al
    df6e:	0f b6 c0             	movzbl %al,%eax
    df71:	8b b5 d8 ee ff ff    	mov    -0x1128(%rbp),%esi
    df77:	89 c7                	mov    %eax,%edi
    df79:	e8 70 83 ff ff       	callq  62ee <safe_lshift_func_int8_t_s_u>
    df7e:	0f be d0             	movsbl %al,%edx
    df81:	8b 05 95 91 00 00    	mov    0x9195(%rip),%eax        # 1711c <g_92>
    df87:	09 d0                	or     %edx,%eax
    df89:	89 05 8d 91 00 00    	mov    %eax,0x918d(%rip)        # 1711c <g_92>
    df8f:	8b 15 87 91 00 00    	mov    0x9187(%rip),%edx        # 1711c <g_92>
    df95:	8b 85 0c ef ff ff    	mov    -0x10f4(%rbp),%eax
    df9b:	31 d0                	xor    %edx,%eax
    df9d:	89 85 0c ef ff ff    	mov    %eax,-0x10f4(%rbp)
    dfa3:	0f b7 05 e4 91 00 00 	movzwl 0x91e4(%rip),%eax        # 1718e <g_193>
    dfaa:	83 c0 01             	add    $0x1,%eax
    dfad:	66 89 05 da 91 00 00 	mov    %ax,0x91da(%rip)        # 1718e <g_193>
    dfb4:	0f b7 05 d3 91 00 00 	movzwl 0x91d3(%rip),%eax        # 1718e <g_193>
    dfbb:	66 83 f8 01          	cmp    $0x1,%ax
    dfbf:	0f 8e df fd ff ff    	jle    dda4 <func_55+0x179c>
    dfc5:	0f b7 85 08 ef ff ff 	movzwl -0x10f8(%rbp),%eax
    dfcc:	0f be d8             	movsbl %al,%ebx
    dfcf:	8b 85 fc ee ff ff    	mov    -0x1104(%rbp),%eax
    dfd5:	4c 63 e0             	movslq %eax,%r12
    dfd8:	48 8b 85 88 f0 ff ff 	mov    -0xf78(%rbp),%rax
    dfdf:	8b 00                	mov    (%rax),%eax
    dfe1:	44 0f bf e8          	movswl %ax,%r13d
    dfe5:	0f b7 85 f8 ee ff ff 	movzwl -0x1108(%rbp),%eax
    dfec:	0f b6 c0             	movzbl %al,%eax
    dfef:	be ff 00 00 00       	mov    $0xff,%esi
    dff4:	89 c7                	mov    %eax,%edi
    dff6:	e8 e0 8b ff ff       	callq  6bdb <safe_div_func_uint8_t_u_u>
    dffb:	44 0f b6 f8          	movzbl %al,%r15d
    dfff:	48 8b 05 52 90 00 00 	mov    0x9052(%rip),%rax        # 17058 <g_2+0x18>
    e006:	44 0f b7 f0          	movzwl %ax,%r14d
    e00a:	8b 05 0c 91 00 00    	mov    0x910c(%rip),%eax        # 1711c <g_92>
    e010:	0f b7 d0             	movzwl %ax,%edx
    e013:	48 8b 05 8e ad 00 00 	mov    0xad8e(%rip),%rax        # 18da8 <g_65>
    e01a:	48 8b 00             	mov    (%rax),%rax
    e01d:	48 85 c0             	test   %rax,%rax
    e020:	0f 94 c0             	sete   %al
    e023:	0f b6 c8             	movzbl %al,%ecx
    e026:	8b 85 10 ef ff ff    	mov    -0x10f0(%rbp),%eax
    e02c:	31 c8                	xor    %ecx,%eax
    e02e:	89 85 10 ef ff ff    	mov    %eax,-0x10f0(%rbp)
    e034:	8b 85 10 ef ff ff    	mov    -0x10f0(%rbp),%eax
    e03a:	0f b7 c0             	movzwl %ax,%eax
    e03d:	89 d6                	mov    %edx,%esi
    e03f:	89 c7                	mov    %eax,%edi
    e041:	e8 f7 8c ff ff       	callq  6d3d <safe_mul_func_uint16_t_u_u>
    e046:	0f b7 c0             	movzwl %ax,%eax
    e049:	44 89 f6             	mov    %r14d,%esi
    e04c:	89 c7                	mov    %eax,%edi
    e04e:	e8 09 8d ff ff       	callq  6d5c <safe_mod_func_uint16_t_u_u>
    e053:	0f b7 c0             	movzwl %ax,%eax
    e056:	48 8b 15 2b 90 00 00 	mov    0x902b(%rip),%rdx        # 17088 <g_2+0x48>
    e05d:	89 c6                	mov    %eax,%esi
    e05f:	89 d7                	mov    %edx,%edi
    e061:	e8 9f 85 ff ff       	callq  6605 <safe_sub_func_int32_t_s_s>
    e066:	41 39 c7             	cmp    %eax,%r15d
    e069:	0f 9e c0             	setle  %al
    e06c:	0f b6 d0             	movzbl %al,%edx
    e06f:	8b 05 67 90 00 00    	mov    0x9067(%rip),%eax        # 170dc <g_11+0x1c>
    e075:	39 c2                	cmp    %eax,%edx
    e077:	0f 9f c0             	setg   %al
    e07a:	0f b6 d0             	movzbl %al,%edx
    e07d:	8b 05 71 90 00 00    	mov    0x9071(%rip),%eax        # 170f4 <g_15>
    e083:	48 98                	cltq   
    e085:	48 89 d6             	mov    %rdx,%rsi
    e088:	48 89 c7             	mov    %rax,%rdi
    e08b:	e8 bb 8f ff ff       	callq  704b <safe_sub_func_uint64_t_u_u>
    e090:	be 03 00 00 00       	mov    $0x3,%esi
    e095:	89 c7                	mov    %eax,%edi
    e097:	e8 61 8e ff ff       	callq  6efd <safe_mod_func_uint32_t_u_u>
    e09c:	98                   	cwtl   
    e09d:	44 89 ee             	mov    %r13d,%esi
    e0a0:	89 c7                	mov    %eax,%edi
    e0a2:	e8 2c 83 ff ff       	callq  63d3 <safe_sub_func_int16_t_s_s>
    e0a7:	48 0f bf c0          	movswq %ax,%rax
    e0ab:	4c 89 e6             	mov    %r12,%rsi
    e0ae:	48 89 c7             	mov    %rax,%rdi
    e0b1:	e8 95 8f ff ff       	callq  704b <safe_sub_func_uint64_t_u_u>
    e0b6:	49 89 c4             	mov    %rax,%r12
    e0b9:	0f b7 05 ce 90 00 00 	movzwl 0x90ce(%rip),%eax        # 1718e <g_193>
    e0c0:	0f bf d0             	movswl %ax,%edx
    e0c3:	0f b7 85 f8 ee ff ff 	movzwl -0x1108(%rbp),%eax
    e0ca:	98                   	cwtl   
    e0cb:	89 d6                	mov    %edx,%esi
    e0cd:	89 c7                	mov    %eax,%edi
    e0cf:	e8 e4 8d ff ff       	callq  6eb8 <safe_add_func_uint32_t_u_u>
    e0d4:	0f b7 85 f8 ee ff ff 	movzwl -0x1108(%rbp),%eax
    e0db:	48 0f bf c0          	movswq %ax,%rax
    e0df:	4c 89 e6             	mov    %r12,%rsi
    e0e2:	48 89 c7             	mov    %rax,%rdi
    e0e5:	e8 57 87 ff ff       	callq  6841 <safe_add_func_int64_t_s_s>
    e0ea:	0f be c0             	movsbl %al,%eax
    e0ed:	89 de                	mov    %ebx,%esi
    e0ef:	89 c7                	mov    %eax,%edi
    e0f1:	e8 1c 81 ff ff       	callq  6212 <safe_mul_func_int8_t_s_s>
    e0f6:	8b 0d 84 90 00 00    	mov    0x9084(%rip),%ecx        # 17180 <g_119>
    e0fc:	48 8b 85 f0 ee ff ff 	mov    -0x1110(%rbp),%rax
    e103:	8b 10                	mov    (%rax),%edx
    e105:	48 8b 85 f0 ee ff ff 	mov    -0x1110(%rbp),%rax
    e10c:	21 ca                	and    %ecx,%edx
    e10e:	89 10                	mov    %edx,(%rax)
    e110:	0f b7 85 04 ef ff ff 	movzwl -0x10fc(%rbp),%eax
    e117:	83 c0 01             	add    $0x1,%eax
    e11a:	66 89 85 04 ef ff ff 	mov    %ax,-0x10fc(%rbp)
    e121:	66 83 bd 04 ef ff ff 	cmpw   $0x7,-0x10fc(%rbp)
    e128:	07 
    e129:	0f 8e 3b ea ff ff    	jle    cb6a <func_55+0x562>
    e12f:	66 c7 05 56 90 00 00 	movw   $0x1,0x9056(%rip)        # 1718e <g_193>
    e136:	01 00 
    e138:	e9 22 19 00 00       	jmpq   fa5f <func_55+0x3457>
    e13d:	c7 85 14 ef ff ff 09 	movl   $0x9,-0x10ec(%rbp)
    e144:	00 00 00 
    e147:	48 8d 85 78 ef ff ff 	lea    -0x1088(%rbp),%rax
    e14e:	48 89 85 e8 ef ff ff 	mov    %rax,-0x1018(%rbp)
    e155:	48 8d 85 00 f7 ff ff 	lea    -0x900(%rbp),%rax
    e15c:	48 8d 15 3d aa 00 00 	lea    0xaa3d(%rip),%rdx        # 18ba0 <g_1189+0xc88>
    e163:	b9 40 00 00 00       	mov    $0x40,%ecx
    e168:	48 89 c7             	mov    %rax,%rdi
    e16b:	48 89 d6             	mov    %rdx,%rsi
    e16e:	f3 48 a5             	rep movsq %ds:(%rsi),%es:(%rdi)
    e171:	c6 85 20 f1 ff ff dd 	movb   $0xdd,-0xee0(%rbp)
    e178:	48 c7 85 28 f1 ff ff 	movq   $0xfffffffffffffffd,-0xed8(%rbp)
    e17f:	fd ff ff ff 
    e183:	0f b7 85 30 f1 ff ff 	movzwl -0xed0(%rbp),%eax
    e18a:	66 25 00 f8          	and    $0xf800,%ax
    e18e:	83 c8 05             	or     $0x5,%eax
    e191:	66 89 85 30 f1 ff ff 	mov    %ax,-0xed0(%rbp)
    e198:	c6 85 01 ef ff ff fd 	movb   $0xfd,-0x10ff(%rbp)
    e19f:	c7 85 3c ef ff ff 00 	movl   $0x0,-0x10c4(%rbp)
    e1a6:	00 00 00 
    e1a9:	eb 7c                	jmp    e227 <func_55+0x1c1f>
    e1ab:	c7 85 40 ef ff ff 00 	movl   $0x0,-0x10c0(%rbp)
    e1b2:	00 00 00 
    e1b5:	eb 60                	jmp    e217 <func_55+0x1c0f>
    e1b7:	c7 85 44 ef ff ff 00 	movl   $0x0,-0x10bc(%rbp)
    e1be:	00 00 00 
    e1c1:	eb 44                	jmp    e207 <func_55+0x1bff>
    e1c3:	8b 85 44 ef ff ff    	mov    -0x10bc(%rbp),%eax
    e1c9:	48 63 c8             	movslq %eax,%rcx
    e1cc:	8b 85 3c ef ff ff    	mov    -0x10c4(%rbp),%eax
    e1d2:	48 63 d0             	movslq %eax,%rdx
    e1d5:	8b 85 40 ef ff ff    	mov    -0x10c0(%rbp),%eax
    e1db:	48 63 f0             	movslq %eax,%rsi
    e1de:	48 89 d0             	mov    %rdx,%rax
    e1e1:	48 c1 e0 02          	shl    $0x2,%rax
    e1e5:	48 01 d0             	add    %rdx,%rax
    e1e8:	48 01 f0             	add    %rsi,%rax
    e1eb:	48 01 c0             	add    %rax,%rax
    e1ee:	48 01 c8             	add    %rcx,%rax
    e1f1:	48 8d 15 52 8f 00 00 	lea    0x8f52(%rip),%rdx        # 1714a <g_114+0x2a>
    e1f8:	48 89 94 c5 40 f3 ff 	mov    %rdx,-0xcc0(%rbp,%rax,8)
    e1ff:	ff 
    e200:	83 85 44 ef ff ff 01 	addl   $0x1,-0x10bc(%rbp)
    e207:	83 bd 44 ef ff ff 01 	cmpl   $0x1,-0x10bc(%rbp)
    e20e:	7e b3                	jle    e1c3 <func_55+0x1bbb>
    e210:	83 85 40 ef ff ff 01 	addl   $0x1,-0x10c0(%rbp)
    e217:	83 bd 40 ef ff ff 04 	cmpl   $0x4,-0x10c0(%rbp)
    e21e:	7e 97                	jle    e1b7 <func_55+0x1baf>
    e220:	83 85 3c ef ff ff 01 	addl   $0x1,-0x10c4(%rbp)
    e227:	83 bd 3c ef ff ff 05 	cmpl   $0x5,-0x10c4(%rbp)
    e22e:	0f 8e 77 ff ff ff    	jle    e1ab <func_55+0x1ba3>
    e234:	8b 85 fc ee ff ff    	mov    -0x1104(%rbp),%eax
    e23a:	0f b6 d8             	movzbl %al,%ebx
    e23d:	0f b7 85 02 ef ff ff 	movzwl -0x10fe(%rbp),%eax
    e244:	66 85 c0             	test   %ax,%ax
    e247:	0f 84 54 01 00 00    	je     e3a1 <func_55+0x1d99>
    e24d:	8b 05 2d 8f 00 00    	mov    0x8f2d(%rip),%eax        # 17180 <g_119>
    e253:	44 0f be e0          	movsbl %al,%r12d
    e257:	8b 05 6b 8e 00 00    	mov    0x8e6b(%rip),%eax        # 170c8 <g_11+0x8>
    e25d:	4c 63 e8             	movslq %eax,%r13
    e260:	c7 85 14 ef ff ff 07 	movl   $0x7,-0x10ec(%rbp)
    e267:	00 00 00 
    e26a:	0f b7 85 10 f1 ff ff 	movzwl -0xef0(%rbp),%eax
    e271:	66 25 ff 07          	and    $0x7ff,%ax
    e275:	44 0f b7 f0          	movzwl %ax,%r14d
    e279:	0f b7 85 02 ef ff ff 	movzwl -0x10fe(%rbp),%eax
    e280:	44 0f b7 f8          	movzwl %ax,%r15d
    e284:	8b 85 10 ef ff ff    	mov    -0x10f0(%rbp),%eax
    e28a:	89 85 d8 ee ff ff    	mov    %eax,-0x1128(%rbp)
    e290:	8b 05 2a 8e 00 00    	mov    0x8e2a(%rip),%eax        # 170c0 <g_11>
    e296:	89 c6                	mov    %eax,%esi
    e298:	bf 00 00 00 00       	mov    $0x0,%edi
    e29d:	e8 aa 89 ff ff       	callq  6c4c <safe_lshift_func_uint8_t_u_u>
    e2a2:	8b b5 d8 ee ff ff    	mov    -0x1128(%rbp),%esi
    e2a8:	bf e1 ff ff ff       	mov    $0xffffffe1,%edi
    e2ad:	e8 ba 80 ff ff       	callq  636c <safe_rshift_func_int8_t_s_u>
    e2b2:	66 98                	cbtw   
    e2b4:	0f b7 c0             	movzwl %ax,%eax
    e2b7:	44 89 fe             	mov    %r15d,%esi
    e2ba:	89 c7                	mov    %eax,%edi
    e2bc:	e8 3e 8a ff ff       	callq  6cff <safe_add_func_uint16_t_u_u>
    e2c1:	0f b7 c0             	movzwl %ax,%eax
    e2c4:	44 89 f6             	mov    %r14d,%esi
    e2c7:	89 c7                	mov    %eax,%edi
    e2c9:	e8 e8 82 ff ff       	callq  65b6 <safe_add_func_int32_t_s_s>
    e2ce:	0f b7 15 b9 8e 00 00 	movzwl 0x8eb9(%rip),%edx        # 1718e <g_193>
    e2d5:	0f bf d2             	movswl %dx,%edx
    e2d8:	39 d0                	cmp    %edx,%eax
    e2da:	75 0b                	jne    e2e7 <func_55+0x1cdf>
    e2dc:	0f b6 85 00 f1 ff ff 	movzbl -0xf00(%rbp),%eax
    e2e3:	84 c0                	test   %al,%al
    e2e5:	74 07                	je     e2ee <func_55+0x1ce6>
    e2e7:	b8 01 00 00 00       	mov    $0x1,%eax
    e2ec:	eb 05                	jmp    e2f3 <func_55+0x1ceb>
    e2ee:	b8 00 00 00 00       	mov    $0x0,%eax
    e2f3:	48 63 d0             	movslq %eax,%rdx
    e2f6:	48 8b 85 e8 ef ff ff 	mov    -0x1018(%rbp),%rax
    e2fd:	48 89 10             	mov    %rdx,(%rax)
    e300:	48 8b 85 e8 ef ff ff 	mov    -0x1018(%rbp),%rax
    e307:	48 8b 10             	mov    (%rax),%rdx
    e30a:	0f b7 05 7d 8e 00 00 	movzwl 0x8e7d(%rip),%eax        # 1718e <g_193>
    e311:	98                   	cwtl   
    e312:	48 98                	cltq   
    e314:	48 8d 0c 85 00 00 00 	lea    0x0(,%rax,4),%rcx
    e31b:	00 
    e31c:	48 8d 05 5d 8e 00 00 	lea    0x8e5d(%rip),%rax        # 17180 <g_119>
    e323:	8b 04 01             	mov    (%rcx,%rax,1),%eax
    e326:	48 98                	cltq   
    e328:	48 39 c2             	cmp    %rax,%rdx
    e32b:	0f 9f c0             	setg   %al
    e32e:	0f b6 c0             	movzbl %al,%eax
    e331:	4c 89 ee             	mov    %r13,%rsi
    e334:	48 89 c7             	mov    %rax,%rdi
    e337:	e8 44 8d ff ff       	callq  7080 <safe_mod_func_uint64_t_u_u>
    e33c:	44 89 e6             	mov    %r12d,%esi
    e33f:	bf 01 00 00 00       	mov    $0x1,%edi
    e344:	e8 a9 7e ff ff       	callq  61f2 <safe_sub_func_int8_t_s_s>
    e349:	0f be c0             	movsbl %al,%eax
    e34c:	be 0c 00 00 00       	mov    $0xc,%esi
    e351:	89 c7                	mov    %eax,%edi
    e353:	e8 d2 81 ff ff       	callq  652a <safe_rshift_func_int16_t_s_s>
    e358:	0f bf d0             	movswl %ax,%edx
    e35b:	8b 85 fc ee ff ff    	mov    -0x1104(%rbp),%eax
    e361:	39 c2                	cmp    %eax,%edx
    e363:	0f 94 c0             	sete   %al
    e366:	0f b6 d0             	movzbl %al,%edx
    e369:	48 8b 85 68 ef ff ff 	mov    -0x1098(%rbp),%rax
    e370:	0f b6 08             	movzbl (%rax),%ecx
    e373:	48 8b 05 2e aa 00 00 	mov    0xaa2e(%rip),%rax        # 18da8 <g_65>
    e37a:	48 8b 00             	mov    (%rax),%rax
    e37d:	48 85 c0             	test   %rax,%rax
    e380:	0f 94 c0             	sete   %al
    e383:	89 c6                	mov    %eax,%esi
    e385:	48 8b 85 68 ef ff ff 	mov    -0x1098(%rbp),%rax
    e38c:	09 f1                	or     %esi,%ecx
    e38e:	88 08                	mov    %cl,(%rax)
    e390:	0f b6 00             	movzbl (%rax),%eax
    e393:	0f be c0             	movsbl %al,%eax
    e396:	89 d6                	mov    %edx,%esi
    e398:	89 c7                	mov    %eax,%edi
    e39a:	e8 53 7e ff ff       	callq  61f2 <safe_sub_func_int8_t_s_s>
    e39f:	84 c0                	test   %al,%al
    e3a1:	8b 85 fc ee ff ff    	mov    -0x1104(%rbp),%eax
    e3a7:	48 63 d0             	movslq %eax,%rdx
    e3aa:	48 8b 05 57 8d 00 00 	mov    0x8d57(%rip),%rax        # 17108 <g_31+0x8>
    e3b1:	48 39 c2             	cmp    %rax,%rdx
    e3b4:	0f 95 c0             	setne  %al
    e3b7:	0f b6 c0             	movzbl %al,%eax
    e3ba:	89 de                	mov    %ebx,%esi
    e3bc:	89 c7                	mov    %eax,%edi
    e3be:	e8 97 87 ff ff       	callq  6b5a <safe_add_func_uint8_t_u_u>
    e3c3:	0f be c0             	movsbl %al,%eax
    e3c6:	be 67 00 00 00       	mov    $0x67,%esi
    e3cb:	89 c7                	mov    %eax,%edi
    e3cd:	e8 98 7e ff ff       	callq  626a <safe_div_func_int8_t_s_s>
    e3d2:	84 c0                	test   %al,%al
    e3d4:	0f 84 f1 0a 00 00    	je     eecb <func_55+0x28c3>
    e3da:	48 8d 05 c7 a9 00 00 	lea    0xa9c7(%rip),%rax        # 18da8 <g_65>
    e3e1:	48 89 85 f0 ef ff ff 	mov    %rax,-0x1010(%rbp)
    e3e8:	c7 85 a0 ef ff ff 07 	movl   $0x7,-0x1060(%rbp)
    e3ef:	00 00 00 
    e3f2:	48 8d 05 8f 8d 00 00 	lea    0x8d8f(%rip),%rax        # 17188 <g_171>
    e3f9:	48 89 85 f8 ef ff ff 	mov    %rax,-0x1008(%rbp)
    e400:	c7 85 54 ef ff ff fa 	movl   $0xfffffffa,-0x10ac(%rbp)
    e407:	ff ff ff 
    e40a:	48 c7 85 00 f0 ff ff 	movq   $0x0,-0x1000(%rbp)
    e411:	00 00 00 00 
    e415:	48 8d 85 00 f1 ff ff 	lea    -0xf00(%rbp),%rax
    e41c:	48 89 85 08 f0 ff ff 	mov    %rax,-0xff8(%rbp)
    e423:	c7 85 48 ef ff ff 00 	movl   $0x0,-0x10b8(%rbp)
    e42a:	00 00 00 
    e42d:	eb 25                	jmp    e454 <func_55+0x1e4c>
    e42f:	8b 85 48 ef ff ff    	mov    -0x10b8(%rbp),%eax
    e435:	48 98                	cltq   
    e437:	48 8d 95 00 f7 ff ff 	lea    -0x900(%rbp),%rdx
    e43e:	48 81 c2 e0 01 00 00 	add    $0x1e0,%rdx
    e445:	48 89 94 c5 20 f5 ff 	mov    %rdx,-0xae0(%rbp,%rax,8)
    e44c:	ff 
    e44d:	83 85 48 ef ff ff 01 	addl   $0x1,-0x10b8(%rbp)
    e454:	83 bd 48 ef ff ff 09 	cmpl   $0x9,-0x10b8(%rbp)
    e45b:	7e d2                	jle    e42f <func_55+0x1e27>
    e45d:	8b 05 21 8d 00 00    	mov    0x8d21(%rip),%eax        # 17184 <g_119+0x4>
    e463:	0f b6 d8             	movzbl %al,%ebx
    e466:	0f b7 05 21 8d 00 00 	movzwl 0x8d21(%rip),%eax        # 1718e <g_193>
    e46d:	98                   	cwtl   
    e46e:	48 98                	cltq   
    e470:	48 8d 14 85 00 00 00 	lea    0x0(,%rax,4),%rdx
    e477:	00 
    e478:	48 8d 05 01 8d 00 00 	lea    0x8d01(%rip),%rax        # 17180 <g_119>
    e47f:	8b 04 02             	mov    (%rdx,%rax,1),%eax
    e482:	44 0f bf e0          	movswl %ax,%r12d
    e486:	0f b7 85 02 ef ff ff 	movzwl -0x10fe(%rbp),%eax
    e48d:	44 0f bf e8          	movswl %ax,%r13d
    e491:	44 8b 35 44 8c 00 00 	mov    0x8c44(%rip),%r14d        # 170dc <g_11+0x1c>
    e498:	0f b6 05 61 8c 00 00 	movzbl 0x8c61(%rip),%eax        # 17100 <g_31>
    e49f:	66 98                	cbtw   
    e4a1:	44 0f b7 f8          	movzwl %ax,%r15d
    e4a5:	48 8b 05 cc 8c 00 00 	mov    0x8ccc(%rip),%rax        # 17178 <g_116>
    e4ac:	48 89 85 d8 ee ff ff 	mov    %rax,-0x1128(%rbp)
    e4b3:	8b 05 63 8c 00 00    	mov    0x8c63(%rip),%eax        # 1711c <g_92>
    e4b9:	0f be c8             	movsbl %al,%ecx
    e4bc:	89 8d d0 ee ff ff    	mov    %ecx,-0x1130(%rbp)
    e4c2:	48 8b 95 e8 ee ff ff 	mov    -0x1118(%rbp),%rdx
    e4c9:	48 8b 85 f0 ef ff ff 	mov    -0x1010(%rbp),%rax
    e4d0:	48 89 10             	mov    %rdx,(%rax)
    e4d3:	48 8b 85 f0 ef ff ff 	mov    -0x1010(%rbp),%rax
    e4da:	48 8b 10             	mov    (%rax),%rdx
    e4dd:	48 8b 85 e8 ee ff ff 	mov    -0x1118(%rbp),%rax
    e4e4:	48 39 c2             	cmp    %rax,%rdx
    e4e7:	0f 95 c0             	setne  %al
    e4ea:	0f b6 c0             	movzbl %al,%eax
    e4ed:	be 04 00 00 00       	mov    $0x4,%esi
    e4f2:	89 c7                	mov    %eax,%edi
    e4f4:	e8 99 7f ff ff       	callq  6492 <safe_lshift_func_int16_t_s_s>
    e4f9:	0f b7 85 f8 ee ff ff 	movzwl -0x1108(%rbp),%eax
    e500:	0f be f8             	movsbl %al,%edi
    e503:	89 bd e0 ee ff ff    	mov    %edi,-0x1120(%rbp)
    e509:	8b 85 a0 ef ff ff    	mov    -0x1060(%rbp),%eax
    e50f:	48 98                	cltq   
    e511:	48 89 c6             	mov    %rax,%rsi
    e514:	bf 01 00 00 00       	mov    $0x1,%edi
    e519:	e8 23 83 ff ff       	callq  6841 <safe_add_func_int64_t_s_s>
    e51e:	0f b7 95 f8 ee ff ff 	movzwl -0x1108(%rbp),%edx
    e525:	48 0f bf d2          	movswq %dx,%rdx
    e529:	48 31 c2             	xor    %rax,%rdx
    e52c:	48 8b 85 e8 ef ff ff 	mov    -0x1018(%rbp),%rax
    e533:	48 89 10             	mov    %rdx,(%rax)
    e536:	48 8b 85 e8 ef ff ff 	mov    -0x1018(%rbp),%rax
    e53d:	48 8b 00             	mov    (%rax),%rax
    e540:	48 89 c2             	mov    %rax,%rdx
    e543:	48 8b 85 08 f1 ff ff 	mov    -0xef8(%rbp),%rax
    e54a:	48 39 c2             	cmp    %rax,%rdx
    e54d:	0f 93 c0             	setae  %al
    e550:	0f b6 c0             	movzbl %al,%eax
    e553:	8b b5 e0 ee ff ff    	mov    -0x1120(%rbp),%esi
    e559:	89 c7                	mov    %eax,%edi
    e55b:	e8 0a 7d ff ff       	callq  626a <safe_div_func_int8_t_s_s>
    e560:	0f be c0             	movsbl %al,%eax
    e563:	8b 15 2f 8b 00 00    	mov    0x8b2f(%rip),%edx        # 17098 <g_5>
    e569:	83 f2 40             	xor    $0x40,%edx
    e56c:	89 c6                	mov    %eax,%esi
    e56e:	89 d7                	mov    %edx,%edi
    e570:	e8 43 89 ff ff       	callq  6eb8 <safe_add_func_uint32_t_u_u>
    e575:	0f b6 95 00 f1 ff ff 	movzbl -0xf00(%rbp),%edx
    e57c:	0f be d2             	movsbl %dl,%edx
    e57f:	39 d0                	cmp    %edx,%eax
    e581:	0f 93 c0             	setae  %al
    e584:	0f b6 c0             	movzbl %al,%eax
    e587:	be 6f f3 5f 56       	mov    $0x565ff36f,%esi
    e58c:	89 c7                	mov    %eax,%edi
    e58e:	e8 6c 81 ff ff       	callq  66ff <safe_div_func_int32_t_s_s>
    e593:	0f be c0             	movsbl %al,%eax
    e596:	8b b5 d0 ee ff ff    	mov    -0x1130(%rbp),%esi
    e59c:	89 c7                	mov    %eax,%edi
    e59e:	e8 31 7c ff ff       	callq  61d4 <safe_add_func_int8_t_s_s>
    e5a3:	0f be c0             	movsbl %al,%eax
    e5a6:	be 04 00 00 00       	mov    $0x4,%esi
    e5ab:	89 c7                	mov    %eax,%edi
    e5ad:	e8 2f 7f ff ff       	callq  64e1 <safe_lshift_func_int16_t_s_u>
    e5b2:	0f b6 05 61 8b 00 00 	movzbl 0x8b61(%rip),%eax        # 1711a <g_85>
    e5b9:	48 0f be c0          	movsbq %al,%rax
    e5bd:	48 8b b5 d8 ee ff ff 	mov    -0x1128(%rbp),%rsi
    e5c4:	48 89 c7             	mov    %rax,%rdi
    e5c7:	e8 75 82 ff ff       	callq  6841 <safe_add_func_int64_t_s_s>
    e5cc:	0f b7 c0             	movzwl %ax,%eax
    e5cf:	44 89 fe             	mov    %r15d,%esi
    e5d2:	89 c7                	mov    %eax,%edi
    e5d4:	e8 b5 87 ff ff       	callq  6d8e <safe_div_func_uint16_t_u_u>
    e5d9:	44 89 f6             	mov    %r14d,%esi
    e5dc:	bf 00 00 00 00       	mov    $0x0,%edi
    e5e1:	e8 bb 7c ff ff       	callq  62a1 <safe_lshift_func_int8_t_s_s>
    e5e6:	0f be c0             	movsbl %al,%eax
    e5e9:	44 89 ee             	mov    %r13d,%esi
    e5ec:	89 c7                	mov    %eax,%edi
    e5ee:	e8 9f 7e ff ff       	callq  6492 <safe_lshift_func_int16_t_s_s>
    e5f3:	0f bf d0             	movswl %ax,%edx
    e5f6:	48 8b 85 f8 ef ff ff 	mov    -0x1008(%rbp),%rax
    e5fd:	89 10                	mov    %edx,(%rax)
    e5ff:	48 8b 85 f8 ef ff ff 	mov    -0x1008(%rbp),%rax
    e606:	8b 00                	mov    (%rax),%eax
    e608:	89 c2                	mov    %eax,%edx
    e60a:	0f b6 05 ef 8a 00 00 	movzbl 0x8aef(%rip),%eax        # 17100 <g_31>
    e611:	0f be c0             	movsbl %al,%eax
    e614:	89 d6                	mov    %edx,%esi
    e616:	89 c7                	mov    %eax,%edi
    e618:	e8 e2 80 ff ff       	callq  66ff <safe_div_func_int32_t_s_s>
    e61d:	98                   	cwtl   
    e61e:	44 89 e6             	mov    %r12d,%esi
    e621:	89 c7                	mov    %eax,%edi
    e623:	e8 cd 7d ff ff       	callq  63f5 <safe_mul_func_int16_t_s_s>
    e628:	66 3d f9 00          	cmp    $0xf9,%ax
    e62c:	0f 9f c0             	setg   %al
    e62f:	0f b6 c0             	movzbl %al,%eax
    e632:	89 de                	mov    %ebx,%esi
    e634:	89 c7                	mov    %eax,%edi
    e636:	e8 3d 85 ff ff       	callq  6b78 <safe_sub_func_uint8_t_u_u>
    e63b:	0f b6 d0             	movzbl %al,%edx
    e63e:	0f b7 85 10 f1 ff ff 	movzwl -0xef0(%rbp),%eax
    e645:	66 25 ff 07          	and    $0x7ff,%ax
    e649:	0f b7 c0             	movzwl %ax,%eax
    e64c:	39 c2                	cmp    %eax,%edx
    e64e:	0f 8c 43 04 00 00    	jl     ea97 <func_55+0x248f>
    e654:	48 c7 85 28 f0 ff ff 	movq   $0x0,-0xfd8(%rbp)
    e65b:	00 00 00 00 
    e65f:	48 8d 85 14 ef ff ff 	lea    -0x10ec(%rbp),%rax
    e666:	48 89 85 30 f0 ff ff 	mov    %rax,-0xfd0(%rbp)
    e66d:	48 8d 05 78 8a 00 00 	lea    0x8a78(%rip),%rax        # 170ec <g_13>
    e674:	48 89 85 00 f9 ff ff 	mov    %rax,-0x700(%rbp)
    e67b:	48 c7 85 08 f9 ff ff 	movq   $0x0,-0x6f8(%rbp)
    e682:	00 00 00 00 
    e686:	48 c7 85 10 f9 ff ff 	movq   $0x0,-0x6f0(%rbp)
    e68d:	00 00 00 00 
    e691:	48 c7 85 18 f9 ff ff 	movq   $0x0,-0x6e8(%rbp)
    e698:	00 00 00 00 
    e69c:	48 8d 05 79 8a 00 00 	lea    0x8a79(%rip),%rax        # 1711c <g_92>
    e6a3:	48 89 85 20 f9 ff ff 	mov    %rax,-0x6e0(%rbp)
    e6aa:	48 8d 85 10 ef ff ff 	lea    -0x10f0(%rbp),%rax
    e6b1:	48 89 85 28 f9 ff ff 	mov    %rax,-0x6d8(%rbp)
    e6b8:	48 8d 05 25 8a 00 00 	lea    0x8a25(%rip),%rax        # 170e4 <g_11+0x24>
    e6bf:	48 89 85 30 f9 ff ff 	mov    %rax,-0x6d0(%rbp)
    e6c6:	48 8d 05 17 8a 00 00 	lea    0x8a17(%rip),%rax        # 170e4 <g_11+0x24>
    e6cd:	48 89 85 38 f9 ff ff 	mov    %rax,-0x6c8(%rbp)
    e6d4:	48 8d 85 10 ef ff ff 	lea    -0x10f0(%rbp),%rax
    e6db:	48 89 85 40 f9 ff ff 	mov    %rax,-0x6c0(%rbp)
    e6e2:	48 c7 85 48 f9 ff ff 	movq   $0x0,-0x6b8(%rbp)
    e6e9:	00 00 00 00 
    e6ed:	48 8d 85 10 ef ff ff 	lea    -0x10f0(%rbp),%rax
    e6f4:	48 89 85 50 f9 ff ff 	mov    %rax,-0x6b0(%rbp)
    e6fb:	48 c7 85 58 f9 ff ff 	movq   $0x0,-0x6a8(%rbp)
    e702:	00 00 00 00 
    e706:	48 8d 85 10 ef ff ff 	lea    -0x10f0(%rbp),%rax
    e70d:	48 89 85 60 f9 ff ff 	mov    %rax,-0x6a0(%rbp)
    e714:	48 c7 85 68 f9 ff ff 	movq   $0x0,-0x698(%rbp)
    e71b:	00 00 00 00 
    e71f:	48 8d 05 ce 89 00 00 	lea    0x89ce(%rip),%rax        # 170f4 <g_15>
    e726:	48 89 85 70 f9 ff ff 	mov    %rax,-0x690(%rbp)
    e72d:	48 8d 05 b0 89 00 00 	lea    0x89b0(%rip),%rax        # 170e4 <g_11+0x24>
    e734:	48 89 85 78 f9 ff ff 	mov    %rax,-0x688(%rbp)
    e73b:	48 c7 85 80 f9 ff ff 	movq   $0x0,-0x680(%rbp)
    e742:	00 00 00 00 
    e746:	48 c7 85 88 f9 ff ff 	movq   $0x0,-0x678(%rbp)
    e74d:	00 00 00 00 
    e751:	48 8d 85 0c ef ff ff 	lea    -0x10f4(%rbp),%rax
    e758:	48 89 85 90 f9 ff ff 	mov    %rax,-0x670(%rbp)
    e75f:	48 8d 85 14 ef ff ff 	lea    -0x10ec(%rbp),%rax
    e766:	48 89 85 98 f9 ff ff 	mov    %rax,-0x668(%rbp)
    e76d:	48 c7 85 a0 f9 ff ff 	movq   $0x0,-0x660(%rbp)
    e774:	00 00 00 00 
    e778:	48 8d 85 a0 ef ff ff 	lea    -0x1060(%rbp),%rax
    e77f:	48 89 85 a8 f9 ff ff 	mov    %rax,-0x658(%rbp)
    e786:	48 8d 85 10 ef ff ff 	lea    -0x10f0(%rbp),%rax
    e78d:	48 89 85 b0 f9 ff ff 	mov    %rax,-0x650(%rbp)
    e794:	48 8d 85 0c ef ff ff 	lea    -0x10f4(%rbp),%rax
    e79b:	48 89 85 b8 f9 ff ff 	mov    %rax,-0x648(%rbp)
    e7a2:	48 8d 05 73 89 00 00 	lea    0x8973(%rip),%rax        # 1711c <g_92>
    e7a9:	48 89 85 c0 f9 ff ff 	mov    %rax,-0x640(%rbp)
    e7b0:	48 8d 05 0d 89 00 00 	lea    0x890d(%rip),%rax        # 170c4 <g_11+0x4>
    e7b7:	48 89 85 c8 f9 ff ff 	mov    %rax,-0x638(%rbp)
    e7be:	48 c7 85 d0 f9 ff ff 	movq   $0x0,-0x630(%rbp)
    e7c5:	00 00 00 00 
    e7c9:	48 c7 85 d8 f9 ff ff 	movq   $0x0,-0x628(%rbp)
    e7d0:	00 00 00 00 
    e7d4:	48 c7 85 e0 f9 ff ff 	movq   $0x0,-0x620(%rbp)
    e7db:	00 00 00 00 
    e7df:	48 c7 85 e8 f9 ff ff 	movq   $0x0,-0x618(%rbp)
    e7e6:	00 00 00 00 
    e7ea:	48 8d 05 d3 88 00 00 	lea    0x88d3(%rip),%rax        # 170c4 <g_11+0x4>
    e7f1:	48 89 85 f0 f9 ff ff 	mov    %rax,-0x610(%rbp)
    e7f8:	48 c7 85 f8 f9 ff ff 	movq   $0x0,-0x608(%rbp)
    e7ff:	00 00 00 00 
    e803:	48 8d 05 ea 88 00 00 	lea    0x88ea(%rip),%rax        # 170f4 <g_15>
    e80a:	48 89 85 00 fa ff ff 	mov    %rax,-0x600(%rbp)
    e811:	48 8d 05 dc 88 00 00 	lea    0x88dc(%rip),%rax        # 170f4 <g_15>
    e818:	48 89 85 08 fa ff ff 	mov    %rax,-0x5f8(%rbp)
    e81f:	48 c7 85 10 fa ff ff 	movq   $0x0,-0x5f0(%rbp)
    e826:	00 00 00 00 
    e82a:	48 8d 05 93 88 00 00 	lea    0x8893(%rip),%rax        # 170c4 <g_11+0x4>
    e831:	48 89 85 18 fa ff ff 	mov    %rax,-0x5e8(%rbp)
    e838:	48 c7 85 20 fa ff ff 	movq   $0x0,-0x5e0(%rbp)
    e83f:	00 00 00 00 
    e843:	48 8d 05 92 88 00 00 	lea    0x8892(%rip),%rax        # 170dc <g_11+0x1c>
    e84a:	48 89 85 28 fa ff ff 	mov    %rax,-0x5d8(%rbp)
    e851:	48 c7 85 30 fa ff ff 	movq   $0x0,-0x5d0(%rbp)
    e858:	00 00 00 00 
    e85c:	48 8d 85 0c ef ff ff 	lea    -0x10f4(%rbp),%rax
    e863:	48 89 85 38 fa ff ff 	mov    %rax,-0x5c8(%rbp)
    e86a:	48 c7 85 40 fa ff ff 	movq   $0x0,-0x5c0(%rbp)
    e871:	00 00 00 00 
    e875:	48 8d 85 10 ef ff ff 	lea    -0x10f0(%rbp),%rax
    e87c:	48 89 85 48 fa ff ff 	mov    %rax,-0x5b8(%rbp)
    e883:	48 8d 05 52 88 00 00 	lea    0x8852(%rip),%rax        # 170dc <g_11+0x1c>
    e88a:	48 89 85 50 fa ff ff 	mov    %rax,-0x5b0(%rbp)
    e891:	48 8d 85 a0 ef ff ff 	lea    -0x1060(%rbp),%rax
    e898:	48 89 85 58 fa ff ff 	mov    %rax,-0x5a8(%rbp)
    e89f:	48 8d 85 10 ef ff ff 	lea    -0x10f0(%rbp),%rax
    e8a6:	48 89 85 60 fa ff ff 	mov    %rax,-0x5a0(%rbp)
    e8ad:	48 8d 85 10 ef ff ff 	lea    -0x10f0(%rbp),%rax
    e8b4:	48 89 85 68 fa ff ff 	mov    %rax,-0x598(%rbp)
    e8bb:	48 8d 85 0c ef ff ff 	lea    -0x10f4(%rbp),%rax
    e8c2:	48 89 85 70 fa ff ff 	mov    %rax,-0x590(%rbp)
    e8c9:	48 8d 05 14 88 00 00 	lea    0x8814(%rip),%rax        # 170e4 <g_11+0x24>
    e8d0:	48 89 85 78 fa ff ff 	mov    %rax,-0x588(%rbp)
    e8d7:	48 c7 85 80 fa ff ff 	movq   $0x0,-0x580(%rbp)
    e8de:	00 00 00 00 
    e8e2:	48 8d 85 10 ef ff ff 	lea    -0x10f0(%rbp),%rax
    e8e9:	48 89 85 88 fa ff ff 	mov    %rax,-0x578(%rbp)
    e8f0:	48 8d 05 f5 87 00 00 	lea    0x87f5(%rip),%rax        # 170ec <g_13>
    e8f7:	48 89 85 90 fa ff ff 	mov    %rax,-0x570(%rbp)
    e8fe:	48 8d 85 10 ef ff ff 	lea    -0x10f0(%rbp),%rax
    e905:	48 89 85 98 fa ff ff 	mov    %rax,-0x568(%rbp)
    e90c:	48 c7 85 a0 fa ff ff 	movq   $0x0,-0x560(%rbp)
    e913:	00 00 00 00 
    e917:	48 8d 85 10 ef ff ff 	lea    -0x10f0(%rbp),%rax
    e91e:	48 89 85 a8 fa ff ff 	mov    %rax,-0x558(%rbp)
    e925:	48 8d 85 10 ef ff ff 	lea    -0x10f0(%rbp),%rax
    e92c:	48 89 85 b0 fa ff ff 	mov    %rax,-0x550(%rbp)
    e933:	48 8d 05 aa 87 00 00 	lea    0x87aa(%rip),%rax        # 170e4 <g_11+0x24>
    e93a:	48 89 85 b8 fa ff ff 	mov    %rax,-0x548(%rbp)
    e941:	48 c7 85 c0 fa ff ff 	movq   $0x0,-0x540(%rbp)
    e948:	00 00 00 00 
    e94c:	48 8d 85 0c ef ff ff 	lea    -0x10f4(%rbp),%rax
    e953:	48 89 85 c8 fa ff ff 	mov    %rax,-0x538(%rbp)
    e95a:	48 c7 85 d0 fa ff ff 	movq   $0x0,-0x530(%rbp)
    e961:	00 00 00 00 
    e965:	48 c7 85 d8 fa ff ff 	movq   $0x0,-0x528(%rbp)
    e96c:	00 00 00 00 
    e970:	48 8d 85 0c ef ff ff 	lea    -0x10f4(%rbp),%rax
    e977:	48 89 85 e0 fa ff ff 	mov    %rax,-0x520(%rbp)
    e97e:	48 c7 85 e8 fa ff ff 	movq   $0x0,-0x518(%rbp)
    e985:	00 00 00 00 
    e989:	48 8d 05 54 87 00 00 	lea    0x8754(%rip),%rax        # 170e4 <g_11+0x24>
    e990:	48 89 85 f0 fa ff ff 	mov    %rax,-0x510(%rbp)
    e997:	48 8d 85 0c ef ff ff 	lea    -0x10f4(%rbp),%rax
    e99e:	48 89 85 f8 fa ff ff 	mov    %rax,-0x508(%rbp)
    e9a5:	48 c7 85 00 fb ff ff 	movq   $0x0,-0x500(%rbp)
    e9ac:	00 00 00 00 
    e9b0:	48 c7 85 08 fb ff ff 	movq   $0x0,-0x4f8(%rbp)
    e9b7:	00 00 00 00 
    e9bb:	48 8d 05 02 87 00 00 	lea    0x8702(%rip),%rax        # 170c4 <g_11+0x4>
    e9c2:	48 89 85 10 fb ff ff 	mov    %rax,-0x4f0(%rbp)
    e9c9:	48 8d 05 4c 87 00 00 	lea    0x874c(%rip),%rax        # 1711c <g_92>
    e9d0:	48 89 85 18 fb ff ff 	mov    %rax,-0x4e8(%rbp)
    e9d7:	48 8d 85 0c ef ff ff 	lea    -0x10f4(%rbp),%rax
    e9de:	48 89 85 20 fb ff ff 	mov    %rax,-0x4e0(%rbp)
    e9e5:	48 8d 85 10 ef ff ff 	lea    -0x10f0(%rbp),%rax
    e9ec:	48 89 85 28 fb ff ff 	mov    %rax,-0x4d8(%rbp)
    e9f3:	48 8d 85 a0 ef ff ff 	lea    -0x1060(%rbp),%rax
    e9fa:	48 89 85 30 fb ff ff 	mov    %rax,-0x4d0(%rbp)
    ea01:	48 c7 85 38 fb ff ff 	movq   $0x0,-0x4c8(%rbp)
    ea08:	00 00 00 00 
    ea0c:	48 8d 05 85 86 00 00 	lea    0x8685(%rip),%rax        # 17098 <g_5>
    ea13:	48 89 85 40 fb ff ff 	mov    %rax,-0x4c0(%rbp)
    ea1a:	48 c7 85 48 fb ff ff 	movq   $0x0,-0x4b8(%rbp)
    ea21:	00 00 00 00 
    ea25:	48 8d 05 b8 86 00 00 	lea    0x86b8(%rip),%rax        # 170e4 <g_11+0x24>
    ea2c:	48 89 85 50 fb ff ff 	mov    %rax,-0x4b0(%rbp)
    ea33:	48 8d 85 a0 ef ff ff 	lea    -0x1060(%rbp),%rax
    ea3a:	48 89 85 58 fb ff ff 	mov    %rax,-0x4a8(%rbp)
    ea41:	48 c7 85 60 fb ff ff 	movq   $0x0,-0x4a0(%rbp)
    ea48:	00 00 00 00 
    ea4c:	48 c7 85 68 fb ff ff 	movq   $0x0,-0x498(%rbp)
    ea53:	00 00 00 00 
    ea57:	48 8d 05 96 86 00 00 	lea    0x8696(%rip),%rax        # 170f4 <g_15>
    ea5e:	48 89 85 70 fb ff ff 	mov    %rax,-0x490(%rbp)
    ea65:	48 8d 85 0c ef ff ff 	lea    -0x10f4(%rbp),%rax
    ea6c:	48 89 85 78 fb ff ff 	mov    %rax,-0x488(%rbp)
    ea73:	48 8d 85 a0 ef ff ff 	lea    -0x1060(%rbp),%rax
    ea7a:	48 89 85 80 fb ff ff 	mov    %rax,-0x480(%rbp)
    ea81:	0f b7 05 58 88 00 00 	movzwl 0x8858(%rip),%eax        # 172e0 <g_307+0x10>
    ea88:	83 c0 01             	add    $0x1,%eax
    ea8b:	66 89 05 4e 88 00 00 	mov    %ax,0x884e(%rip)        # 172e0 <g_307+0x10>
    ea92:	e9 8a 02 00 00       	jmpq   ed21 <func_55+0x2719>
    ea97:	48 8d 05 c2 35 00 00 	lea    0x35c2(%rip),%rax        # 12060 <g_332>
    ea9e:	48 89 85 40 f1 ff ff 	mov    %rax,-0xec0(%rbp)
    eaa5:	48 8d 85 40 f1 ff ff 	lea    -0xec0(%rbp),%rax
    eaac:	48 89 85 10 f0 ff ff 	mov    %rax,-0xff0(%rbp)
    eab3:	48 8d 05 92 88 00 00 	lea    0x8892(%rip),%rax        # 1734c <g_312+0x4c>
    eaba:	48 89 85 18 f0 ff ff 	mov    %rax,-0xfe8(%rbp)
    eac1:	48 8d 05 52 87 00 00 	lea    0x8752(%rip),%rax        # 1721a <g_194+0x7a>
    eac8:	48 89 85 00 f9 ff ff 	mov    %rax,-0x700(%rbp)
    eacf:	48 c7 85 08 f9 ff ff 	movq   $0x0,-0x6f8(%rbp)
    ead6:	00 00 00 00 
    eada:	48 8d 05 39 87 00 00 	lea    0x8739(%rip),%rax        # 1721a <g_194+0x7a>
    eae1:	48 89 85 10 f9 ff ff 	mov    %rax,-0x6f0(%rbp)
    eae8:	48 8d 05 2b 87 00 00 	lea    0x872b(%rip),%rax        # 1721a <g_194+0x7a>
    eaef:	48 89 85 18 f9 ff ff 	mov    %rax,-0x6e8(%rbp)
    eaf6:	48 c7 85 20 f9 ff ff 	movq   $0x0,-0x6e0(%rbp)
    eafd:	00 00 00 00 
    eb01:	48 8d 05 12 87 00 00 	lea    0x8712(%rip),%rax        # 1721a <g_194+0x7a>
    eb08:	48 89 85 28 f9 ff ff 	mov    %rax,-0x6d8(%rbp)
    eb0f:	48 8d 05 04 87 00 00 	lea    0x8704(%rip),%rax        # 1721a <g_194+0x7a>
    eb16:	48 89 85 30 f9 ff ff 	mov    %rax,-0x6d0(%rbp)
    eb1d:	48 8d 05 d4 85 00 00 	lea    0x85d4(%rip),%rax        # 170f8 <g_27>
    eb24:	48 89 85 20 f0 ff ff 	mov    %rax,-0xfe0(%rbp)
    eb2b:	c7 85 4c ef ff ff 00 	movl   $0x0,-0x10b4(%rbp)
    eb32:	00 00 00 
    eb35:	eb 50                	jmp    eb87 <func_55+0x257f>
    eb37:	c7 85 50 ef ff ff 00 	movl   $0x0,-0x10b0(%rbp)
    eb3e:	00 00 00 
    eb41:	eb 34                	jmp    eb77 <func_55+0x256f>
    eb43:	8b 85 50 ef ff ff    	mov    -0x10b0(%rbp),%eax
    eb49:	48 63 c8             	movslq %eax,%rcx
    eb4c:	8b 85 4c ef ff ff    	mov    -0x10b4(%rbp),%eax
    eb52:	48 63 d0             	movslq %eax,%rdx
    eb55:	48 89 d0             	mov    %rdx,%rax
    eb58:	48 01 c0             	add    %rax,%rax
    eb5b:	48 01 d0             	add    %rdx,%rax
    eb5e:	48 01 c0             	add    %rax,%rax
    eb61:	48 01 c8             	add    %rcx,%rax
    eb64:	48 c7 84 c5 80 f1 ff 	movq   $0x0,-0xe80(%rbp,%rax,8)
    eb6b:	ff 00 00 00 00 
    eb70:	83 85 50 ef ff ff 01 	addl   $0x1,-0x10b0(%rbp)
    eb77:	83 bd 50 ef ff ff 05 	cmpl   $0x5,-0x10b0(%rbp)
    eb7e:	7e c3                	jle    eb43 <func_55+0x253b>
    eb80:	83 85 4c ef ff ff 01 	addl   $0x1,-0x10b4(%rbp)
    eb87:	83 bd 4c ef ff ff 00 	cmpl   $0x0,-0x10b4(%rbp)
    eb8e:	7e a7                	jle    eb37 <func_55+0x252f>
    eb90:	8b 05 f6 87 00 00    	mov    0x87f6(%rip),%eax        # 1738c <g_313>
    eb96:	83 e8 01             	sub    $0x1,%eax
    eb99:	89 05 ed 87 00 00    	mov    %eax,0x87ed(%rip)        # 1738c <g_313>
    eb9f:	0f b7 05 72 85 00 00 	movzwl 0x8572(%rip),%eax        # 17118 <g_81>
    eba6:	0f b7 d8             	movzwl %ax,%ebx
    eba9:	48 8b 85 b8 ef ff ff 	mov    -0x1048(%rbp),%rax
    ebb0:	44 0f b6 e0          	movzbl %al,%r12d
    ebb4:	0f b6 05 d1 85 00 00 	movzbl 0x85d1(%rip),%eax        # 1718c <g_172>
    ebbb:	44 0f be e8          	movsbl %al,%r13d
    ebbf:	48 8b 85 10 f0 ff ff 	mov    -0xff0(%rbp),%rax
    ebc6:	48 c7 00 00 00 00 00 	movq   $0x0,(%rax)
    ebcd:	0f b7 85 f8 ee ff ff 	movzwl -0x1108(%rbp),%eax
    ebd4:	66 85 c0             	test   %ax,%ax
    ebd7:	74 07                	je     ebe0 <func_55+0x25d8>
    ebd9:	b8 01 00 00 00       	mov    $0x1,%eax
    ebde:	eb 05                	jmp    ebe5 <func_55+0x25dd>
    ebe0:	b8 00 00 00 00       	mov    $0x0,%eax
    ebe5:	89 c1                	mov    %eax,%ecx
    ebe7:	0f b6 05 51 85 00 00 	movzbl 0x8551(%rip),%eax        # 1713f <g_114+0x1f>
    ebee:	89 c2                	mov    %eax,%edx
    ebf0:	48 8b 85 68 ef ff ff 	mov    -0x1098(%rbp),%rax
    ebf7:	21 ca                	and    %ecx,%edx
    ebf9:	88 10                	mov    %dl,(%rax)
    ebfb:	0f b6 00             	movzbl (%rax),%eax
    ebfe:	84 c0                	test   %al,%al
    ec00:	74 12                	je     ec14 <func_55+0x260c>
    ec02:	0f b6 05 4a 85 00 00 	movzbl 0x854a(%rip),%eax        # 17153 <g_114+0x33>
    ec09:	84 c0                	test   %al,%al
    ec0b:	74 07                	je     ec14 <func_55+0x260c>
    ec0d:	b8 01 00 00 00       	mov    $0x1,%eax
    ec12:	eb 05                	jmp    ec19 <func_55+0x2611>
    ec14:	b8 00 00 00 00       	mov    $0x0,%eax
    ec19:	44 0f b6 f0          	movzbl %al,%r14d
    ec1d:	bf 90 de 72 21       	mov    $0x2172de90,%edi
    ec22:	e8 7f 82 ff ff       	callq  6ea6 <safe_unary_minus_func_uint32_t_u>
    ec27:	8b 15 c7 84 00 00    	mov    0x84c7(%rip),%edx        # 170f4 <g_15>
    ec2d:	c1 ea 1f             	shr    $0x1f,%edx
    ec30:	0f b6 d2             	movzbl %dl,%edx
    ec33:	39 d0                	cmp    %edx,%eax
    ec35:	0f 95 c0             	setne  %al
    ec38:	0f b6 c0             	movzbl %al,%eax
    ec3b:	44 89 f6             	mov    %r14d,%esi
    ec3e:	89 c7                	mov    %eax,%edi
    ec40:	e8 69 7f ff ff       	callq  6bae <safe_mod_func_uint8_t_u_u>
    ec45:	0f b6 c0             	movzbl %al,%eax
    ec48:	44 89 ee             	mov    %r13d,%esi
    ec4b:	89 c7                	mov    %eax,%edi
    ec4d:	e8 f6 81 ff ff       	callq  6e48 <safe_rshift_func_uint16_t_u_s>
    ec52:	0f b6 05 a7 84 00 00 	movzbl 0x84a7(%rip),%eax        # 17100 <g_31>
    ec59:	0f b6 c0             	movzbl %al,%eax
    ec5c:	44 89 e6             	mov    %r12d,%esi
    ec5f:	89 c7                	mov    %eax,%edi
    ec61:	e8 f4 7e ff ff       	callq  6b5a <safe_add_func_uint8_t_u_u>
    ec66:	0f b6 d0             	movzbl %al,%edx
    ec69:	48 8b 85 18 f0 ff ff 	mov    -0xfe8(%rbp),%rax
    ec70:	66 89 10             	mov    %dx,(%rax)
    ec73:	48 8d 05 fe 84 00 00 	lea    0x84fe(%rip),%rax        # 17178 <g_116>
    ec7a:	48 39 85 d8 ef ff ff 	cmp    %rax,-0x1028(%rbp)
    ec81:	0f 94 c0             	sete   %al
    ec84:	0f b6 c0             	movzbl %al,%eax
    ec87:	89 de                	mov    %ebx,%esi
    ec89:	89 c7                	mov    %eax,%edi
    ec8b:	e8 cc 80 ff ff       	callq  6d5c <safe_mod_func_uint16_t_u_u>
    ec90:	89 c2                	mov    %eax,%edx
    ec92:	0f b7 85 f8 ee ff ff 	movzwl -0x1108(%rbp),%eax
    ec99:	98                   	cwtl   
    ec9a:	0f b7 d2             	movzwl %dx,%edx
    ec9d:	31 95 28 ef ff ff    	xor    %edx,-0x10d8(%rbp)
    eca3:	39 85 28 ef ff ff    	cmp    %eax,-0x10d8(%rbp)
    eca9:	0f 9c c0             	setl   %al
    ecac:	0f b6 d0             	movzbl %al,%edx
    ecaf:	0f b7 05 d8 84 00 00 	movzwl 0x84d8(%rip),%eax        # 1718e <g_193>
    ecb6:	98                   	cwtl   
    ecb7:	39 c2                	cmp    %eax,%edx
    ecb9:	0f 95 c0             	setne  %al
    ecbc:	0f b6 d0             	movzbl %al,%edx
    ecbf:	48 8b 85 20 f0 ff ff 	mov    -0xfe0(%rbp),%rax
    ecc6:	8b 00                	mov    (%rax),%eax
    ecc8:	09 c2                	or     %eax,%edx
    ecca:	48 8b 85 20 f0 ff ff 	mov    -0xfe0(%rbp),%rax
    ecd1:	89 10                	mov    %edx,(%rax)
    ecd3:	be ba 00 00 00       	mov    $0xba,%esi
    ecd8:	bf 00 00 00 00       	mov    $0x0,%edi
    ecdd:	e8 f9 7e ff ff       	callq  6bdb <safe_div_func_uint8_t_u_u>
    ece2:	0f b6 d0             	movzbl %al,%edx
    ece5:	0f b7 85 10 f1 ff ff 	movzwl -0xef0(%rbp),%eax
    ecec:	66 25 ff 07          	and    $0x7ff,%ax
    ecf0:	0f b7 c0             	movzwl %ax,%eax
    ecf3:	21 d0                	and    %edx,%eax
    ecf5:	f7 d0                	not    %eax
    ecf7:	89 85 14 ef ff ff    	mov    %eax,-0x10ec(%rbp)
    ecfd:	48 8b 85 f0 ee ff ff 	mov    -0x1110(%rbp),%rax
    ed04:	c7 00 34 26 28 af    	movl   $0xaf282634,(%rax)
    ed0a:	8b 00                	mov    (%rax),%eax
    ed0c:	48 98                	cltq   
    ed0e:	48 89 85 e0 ef ff ff 	mov    %rax,-0x1020(%rbp)
    ed15:	8b 85 14 ef ff ff    	mov    -0x10ec(%rbp),%eax
    ed1b:	21 85 28 ef ff ff    	and    %eax,-0x10d8(%rbp)
    ed21:	48 8b 85 70 ef ff ff 	mov    -0x1090(%rbp),%rax
    ed28:	48 8d 15 55 84 00 00 	lea    0x8455(%rip),%rdx        # 17184 <g_119+0x4>
    ed2f:	48 39 d0             	cmp    %rdx,%rax
    ed32:	0f 84 ad 00 00 00    	je     ede5 <func_55+0x27dd>
    ed38:	48 8d 05 b9 83 00 00 	lea    0x83b9(%rip),%rax        # 170f8 <g_27>
    ed3f:	48 89 85 c0 ef ff ff 	mov    %rax,-0x1040(%rbp)
    ed46:	48 8b 85 e0 f8 ff ff 	mov    -0x720(%rbp),%rax
    ed4d:	48 89 05 74 a0 00 00 	mov    %rax,0xa074(%rip)        # 18dc8 <g_343+0x8>
    ed54:	48 8b 05 6d a0 00 00 	mov    0xa06d(%rip),%rax        # 18dc8 <g_343+0x8>
    ed5b:	48 89 85 70 f1 ff ff 	mov    %rax,-0xe90(%rbp)
    ed62:	48 8b 85 70 f1 ff ff 	mov    -0xe90(%rbp),%rax
    ed69:	48 39 85 c0 ef ff ff 	cmp    %rax,-0x1040(%rbp)
    ed70:	0f 94 c0             	sete   %al
    ed73:	0f b6 d8             	movzbl %al,%ebx
    ed76:	48 8b 85 f0 ee ff ff 	mov    -0x1110(%rbp),%rax
    ed7d:	c7 00 fd ff ff ff    	movl   $0xfffffffd,(%rax)
    ed83:	8b 10                	mov    (%rax),%edx
    ed85:	8b 85 10 ef ff ff    	mov    -0x10f0(%rbp),%eax
    ed8b:	89 d6                	mov    %edx,%esi
    ed8d:	89 c7                	mov    %eax,%edi
    ed8f:	e8 6b 79 ff ff       	callq  66ff <safe_div_func_int32_t_s_s>
    ed94:	89 c2                	mov    %eax,%edx
    ed96:	8b 85 28 ef ff ff    	mov    -0x10d8(%rbp),%eax
    ed9c:	0f be c0             	movsbl %al,%eax
    ed9f:	89 d6                	mov    %edx,%esi
    eda1:	89 c7                	mov    %eax,%edi
    eda3:	e8 8d 75 ff ff       	callq  6335 <safe_rshift_func_int8_t_s_s>
    eda8:	0f be c0             	movsbl %al,%eax
    edab:	31 d8                	xor    %ebx,%eax
    edad:	83 f8 06             	cmp    $0x6,%eax
    edb0:	0f 96 c0             	setbe  %al
    edb3:	0f b6 c0             	movzbl %al,%eax
    edb6:	89 05 3c 83 00 00    	mov    %eax,0x833c(%rip)        # 170f8 <g_27>
    edbc:	8b 85 fc ee ff ff    	mov    -0x1104(%rbp),%eax
    edc2:	0f b6 c0             	movzbl %al,%eax
    edc5:	be 01 00 00 00       	mov    $0x1,%esi
    edca:	89 c7                	mov    %eax,%edi
    edcc:	e8 a7 7d ff ff       	callq  6b78 <safe_sub_func_uint8_t_u_u>
    edd1:	0f b6 d0             	movzbl %al,%edx
    edd4:	8b 05 be 82 00 00    	mov    0x82be(%rip),%eax        # 17098 <g_5>
    edda:	39 c2                	cmp    %eax,%edx
    eddc:	74 07                	je     ede5 <func_55+0x27dd>
    edde:	b8 01 00 00 00       	mov    $0x1,%eax
    ede3:	eb 05                	jmp    edea <func_55+0x27e2>
    ede5:	b8 00 00 00 00       	mov    $0x0,%eax
    edea:	89 85 14 ef ff ff    	mov    %eax,-0x10ec(%rbp)
    edf0:	8b 85 fc ee ff ff    	mov    -0x1104(%rbp),%eax
    edf6:	0f b6 d8             	movzbl %al,%ebx
    edf9:	0f b7 85 f8 ee ff ff 	movzwl -0x1108(%rbp),%eax
    ee00:	44 0f bf e0          	movswl %ax,%r12d
    ee04:	44 8b ad 54 ef ff ff 	mov    -0x10ac(%rbp),%r13d
    ee0b:	0f b7 85 f8 ee ff ff 	movzwl -0x1108(%rbp),%eax
    ee12:	0f be c0             	movsbl %al,%eax
    ee15:	be 01 00 00 00       	mov    $0x1,%esi
    ee1a:	89 c7                	mov    %eax,%edi
    ee1c:	e8 4b 75 ff ff       	callq  636c <safe_rshift_func_int8_t_s_u>
    ee21:	0f be c0             	movsbl %al,%eax
    ee24:	44 89 ee             	mov    %r13d,%esi
    ee27:	89 c7                	mov    %eax,%edi
    ee29:	e8 a2 80 ff ff       	callq  6ed0 <safe_sub_func_uint32_t_u_u>
    ee2e:	98                   	cwtl   
    ee2f:	be 06 00 00 00       	mov    $0x6,%esi
    ee34:	89 c7                	mov    %eax,%edi
    ee36:	e8 a6 76 ff ff       	callq  64e1 <safe_lshift_func_int16_t_s_u>
    ee3b:	0f b6 c0             	movzbl %al,%eax
    ee3e:	44 89 e6             	mov    %r12d,%esi
    ee41:	89 c7                	mov    %eax,%edi
    ee43:	e8 76 7e ff ff       	callq  6cbe <safe_rshift_func_uint8_t_u_u>
    ee48:	f7 d0                	not    %eax
    ee4a:	0f b6 c0             	movzbl %al,%eax
    ee4d:	89 de                	mov    %ebx,%esi
    ee4f:	89 c7                	mov    %eax,%edi
    ee51:	e8 3d 7d ff ff       	callq  6b93 <safe_mul_func_uint8_t_u_u>
    ee56:	0f b6 d0             	movzbl %al,%edx
    ee59:	8b 05 39 82 00 00    	mov    0x8239(%rip),%eax        # 17098 <g_5>
    ee5f:	39 c2                	cmp    %eax,%edx
    ee61:	be 07 00 00 00       	mov    $0x7,%esi
    ee66:	bf 00 00 00 00       	mov    $0x0,%edi
    ee6b:	e8 f3 76 ff ff       	callq  6563 <safe_rshift_func_int16_t_s_u>
    ee70:	0f b7 95 f8 ee ff ff 	movzwl -0x1108(%rbp),%edx
    ee77:	66 39 d0             	cmp    %dx,%ax
    ee7a:	0f b7 05 ef 84 00 00 	movzwl 0x84ef(%rip),%eax        # 17370 <g_312+0x70>
    ee81:	98                   	cwtl   
    ee82:	89 05 94 82 00 00    	mov    %eax,0x8294(%rip)        # 1711c <g_92>
    ee88:	48 8b 85 f0 ee ff ff 	mov    -0x1110(%rbp),%rax
    ee8f:	8b 00                	mov    (%rax),%eax
    ee91:	85 c0                	test   %eax,%eax
    ee93:	0f 95 c0             	setne  %al
    ee96:	0f b6 c0             	movzbl %al,%eax
    ee99:	89 85 28 ef ff ff    	mov    %eax,-0x10d8(%rbp)
    ee9f:	48 8b 85 e8 ee ff ff 	mov    -0x1118(%rbp),%rax
    eea6:	48 8b 30             	mov    (%rax),%rsi
    eea9:	48 8b 8d 08 f0 ff ff 	mov    -0xff8(%rbp),%rcx
    eeb0:	48 8b 06             	mov    (%rsi),%rax
    eeb3:	48 8b 56 08          	mov    0x8(%rsi),%rdx
    eeb7:	48 89 01             	mov    %rax,(%rcx)
    eeba:	48 89 51 08          	mov    %rdx,0x8(%rcx)
    eebe:	48 8b 46 10          	mov    0x10(%rsi),%rax
    eec2:	48 89 41 10          	mov    %rax,0x10(%rcx)
    eec6:	e9 98 00 00 00       	jmpq   ef63 <func_55+0x295b>
    eecb:	c7 85 0c ef ff ff 02 	movl   $0x2,-0x10f4(%rbp)
    eed2:	00 00 00 
    eed5:	eb 7e                	jmp    ef55 <func_55+0x294d>
    eed7:	48 8b 85 e8 ee ff ff 	mov    -0x1118(%rbp),%rax
    eede:	48 8b 08             	mov    (%rax),%rcx
    eee1:	48 8b 01             	mov    (%rcx),%rax
    eee4:	48 8b 51 08          	mov    0x8(%rcx),%rdx
    eee8:	48 89 85 20 f1 ff ff 	mov    %rax,-0xee0(%rbp)
    eeef:	48 89 95 28 f1 ff ff 	mov    %rdx,-0xed8(%rbp)
    eef6:	48 8b 41 10          	mov    0x10(%rcx),%rax
    eefa:	48 89 85 30 f1 ff ff 	mov    %rax,-0xed0(%rbp)
    ef01:	48 8b 0d 98 9e 00 00 	mov    0x9e98(%rip),%rcx        # 18da0 <g_66>
    ef08:	48 8b 01             	mov    (%rcx),%rax
    ef0b:	48 8b 51 08          	mov    0x8(%rcx),%rdx
    ef0f:	48 89 85 00 f1 ff ff 	mov    %rax,-0xf00(%rbp)
    ef16:	48 89 95 08 f1 ff ff 	mov    %rdx,-0xef8(%rbp)
    ef1d:	48 8b 41 10          	mov    0x10(%rcx),%rax
    ef21:	48 89 85 10 f1 ff ff 	mov    %rax,-0xef0(%rbp)
    ef28:	8b 05 ee 81 00 00    	mov    0x81ee(%rip),%eax        # 1711c <g_92>
    ef2e:	35 74 5a 44 b3       	xor    $0xb3445a74,%eax
    ef33:	89 05 e3 81 00 00    	mov    %eax,0x81e3(%rip)        # 1711c <g_92>
    ef39:	48 8b 85 f0 ee ff ff 	mov    -0x1110(%rbp),%rax
    ef40:	c7 00 97 35 1b 6a    	movl   $0x6a1b3597,(%rax)
    ef46:	8b 85 0c ef ff ff    	mov    -0x10f4(%rbp),%eax
    ef4c:	83 e8 01             	sub    $0x1,%eax
    ef4f:	89 85 0c ef ff ff    	mov    %eax,-0x10f4(%rbp)
    ef55:	8b 85 0c ef ff ff    	mov    -0x10f4(%rbp),%eax
    ef5b:	85 c0                	test   %eax,%eax
    ef5d:	0f 89 74 ff ff ff    	jns    eed7 <func_55+0x28cf>
    ef63:	c7 05 1b 82 00 00 00 	movl   $0x0,0x821b(%rip)        # 17188 <g_171>
    ef6a:	00 00 00 
    ef6d:	e9 94 07 00 00       	jmpq   f706 <func_55+0x30fe>
    ef72:	48 8d 85 20 f1 ff ff 	lea    -0xee0(%rbp),%rax
    ef79:	48 83 c0 08          	add    $0x8,%rax
    ef7d:	48 89 85 58 f0 ff ff 	mov    %rax,-0xfa8(%rbp)
    ef84:	c6 85 40 f1 ff ff 00 	movb   $0x0,-0xec0(%rbp)
    ef8b:	48 c7 85 48 f1 ff ff 	movq   $0x1,-0xeb8(%rbp)
    ef92:	01 00 00 00 
    ef96:	0f b7 85 50 f1 ff ff 	movzwl -0xeb0(%rbp),%eax
    ef9d:	66 25 00 f8          	and    $0xf800,%ax
    efa1:	83 c8 1c             	or     $0x1c,%eax
    efa4:	66 89 85 50 f1 ff ff 	mov    %ax,-0xeb0(%rbp)
    efab:	48 8d 05 6a 81 00 00 	lea    0x816a(%rip),%rax        # 1711c <g_92>
    efb2:	48 89 85 60 f0 ff ff 	mov    %rax,-0xfa0(%rbp)
    efb9:	48 8d 85 20 f5 ff ff 	lea    -0xae0(%rbp),%rax
    efc0:	48 8d 15 59 41 00 00 	lea    0x4159(%rip),%rdx        # 13120 <g_332+0x10c0>
    efc7:	b9 3c 00 00 00       	mov    $0x3c,%ecx
    efcc:	48 89 c7             	mov    %rax,%rdi
    efcf:	48 89 d6             	mov    %rdx,%rsi
    efd2:	f3 48 a5             	rep movsq %ds:(%rsi),%es:(%rdi)
    efd5:	48 8b 85 58 f0 ff ff 	mov    -0xfa8(%rbp),%rax
    efdc:	48 8b 00             	mov    (%rax),%rax
    efdf:	48 8d 50 ff          	lea    -0x1(%rax),%rdx
    efe3:	48 8b 85 58 f0 ff ff 	mov    -0xfa8(%rbp),%rax
    efea:	48 89 10             	mov    %rdx,(%rax)
    efed:	48 8b 85 58 f0 ff ff 	mov    -0xfa8(%rbp),%rax
    eff4:	48 8b 10             	mov    (%rax),%rdx
    eff7:	48 8b 85 d8 ef ff ff 	mov    -0x1028(%rbp),%rax
    effe:	48 8b 00             	mov    (%rax),%rax
    f001:	48 83 f0 09          	xor    $0x9,%rax
    f005:	48 89 c1             	mov    %rax,%rcx
    f008:	48 8b 85 d8 ef ff ff 	mov    -0x1028(%rbp),%rax
    f00f:	48 89 08             	mov    %rcx,(%rax)
    f012:	48 8b 85 d8 ef ff ff 	mov    -0x1028(%rbp),%rax
    f019:	48 8b 00             	mov    (%rax),%rax
    f01c:	48 39 c2             	cmp    %rax,%rdx
    f01f:	0f 87 57 05 00 00    	ja     f57c <func_55+0x2f74>
    f025:	48 8d 85 70 ef ff ff 	lea    -0x1090(%rbp),%rax
    f02c:	48 89 85 00 f9 ff ff 	mov    %rax,-0x700(%rbp)
    f033:	48 8d 85 70 ef ff ff 	lea    -0x1090(%rbp),%rax
    f03a:	48 89 85 08 f9 ff ff 	mov    %rax,-0x6f8(%rbp)
    f041:	48 8d 85 70 ef ff ff 	lea    -0x1090(%rbp),%rax
    f048:	48 89 85 10 f9 ff ff 	mov    %rax,-0x6f0(%rbp)
    f04f:	48 8d 85 70 ef ff ff 	lea    -0x1090(%rbp),%rax
    f056:	48 89 85 18 f9 ff ff 	mov    %rax,-0x6e8(%rbp)
    f05d:	48 c7 85 20 f9 ff ff 	movq   $0x0,-0x6e0(%rbp)
    f064:	00 00 00 00 
    f068:	48 c7 85 28 f9 ff ff 	movq   $0x0,-0x6d8(%rbp)
    f06f:	00 00 00 00 
    f073:	48 8d 85 70 ef ff ff 	lea    -0x1090(%rbp),%rax
    f07a:	48 89 85 30 f9 ff ff 	mov    %rax,-0x6d0(%rbp)
    f081:	48 8d 85 70 ef ff ff 	lea    -0x1090(%rbp),%rax
    f088:	48 89 85 38 f9 ff ff 	mov    %rax,-0x6c8(%rbp)
    f08f:	48 c7 85 40 f9 ff ff 	movq   $0x0,-0x6c0(%rbp)
    f096:	00 00 00 00 
    f09a:	48 8d 85 70 ef ff ff 	lea    -0x1090(%rbp),%rax
    f0a1:	48 89 85 48 f9 ff ff 	mov    %rax,-0x6b8(%rbp)
    f0a8:	48 c7 85 50 f9 ff ff 	movq   $0x0,-0x6b0(%rbp)
    f0af:	00 00 00 00 
    f0b3:	48 8d 85 70 ef ff ff 	lea    -0x1090(%rbp),%rax
    f0ba:	48 89 85 58 f9 ff ff 	mov    %rax,-0x6a8(%rbp)
    f0c1:	48 c7 85 60 f9 ff ff 	movq   $0x0,-0x6a0(%rbp)
    f0c8:	00 00 00 00 
    f0cc:	48 8d 85 70 ef ff ff 	lea    -0x1090(%rbp),%rax
    f0d3:	48 89 85 68 f9 ff ff 	mov    %rax,-0x698(%rbp)
    f0da:	48 8d 85 70 ef ff ff 	lea    -0x1090(%rbp),%rax
    f0e1:	48 89 85 70 f9 ff ff 	mov    %rax,-0x690(%rbp)
    f0e8:	48 c7 85 78 f9 ff ff 	movq   $0x0,-0x688(%rbp)
    f0ef:	00 00 00 00 
    f0f3:	48 c7 85 80 f9 ff ff 	movq   $0x0,-0x680(%rbp)
    f0fa:	00 00 00 00 
    f0fe:	48 8d 85 70 ef ff ff 	lea    -0x1090(%rbp),%rax
    f105:	48 89 85 88 f9 ff ff 	mov    %rax,-0x678(%rbp)
    f10c:	48 8d 85 70 ef ff ff 	lea    -0x1090(%rbp),%rax
    f113:	48 89 85 90 f9 ff ff 	mov    %rax,-0x670(%rbp)
    f11a:	48 8d 85 70 ef ff ff 	lea    -0x1090(%rbp),%rax
    f121:	48 89 85 98 f9 ff ff 	mov    %rax,-0x668(%rbp)
    f128:	48 8d 85 70 ef ff ff 	lea    -0x1090(%rbp),%rax
    f12f:	48 89 85 a0 f9 ff ff 	mov    %rax,-0x660(%rbp)
    f136:	48 8d 85 70 ef ff ff 	lea    -0x1090(%rbp),%rax
    f13d:	48 89 85 a8 f9 ff ff 	mov    %rax,-0x658(%rbp)
    f144:	48 8d 85 70 ef ff ff 	lea    -0x1090(%rbp),%rax
    f14b:	48 89 85 b0 f9 ff ff 	mov    %rax,-0x650(%rbp)
    f152:	48 8d 85 70 ef ff ff 	lea    -0x1090(%rbp),%rax
    f159:	48 89 85 b8 f9 ff ff 	mov    %rax,-0x648(%rbp)
    f160:	48 c7 85 c0 f9 ff ff 	movq   $0x0,-0x640(%rbp)
    f167:	00 00 00 00 
    f16b:	48 c7 85 c8 f9 ff ff 	movq   $0x0,-0x638(%rbp)
    f172:	00 00 00 00 
    f176:	48 8d 85 70 ef ff ff 	lea    -0x1090(%rbp),%rax
    f17d:	48 89 85 d0 f9 ff ff 	mov    %rax,-0x630(%rbp)
    f184:	48 8d 85 70 ef ff ff 	lea    -0x1090(%rbp),%rax
    f18b:	48 89 85 d8 f9 ff ff 	mov    %rax,-0x628(%rbp)
    f192:	48 c7 85 e0 f9 ff ff 	movq   $0x0,-0x620(%rbp)
    f199:	00 00 00 00 
    f19d:	48 8d 85 70 ef ff ff 	lea    -0x1090(%rbp),%rax
    f1a4:	48 89 85 e8 f9 ff ff 	mov    %rax,-0x618(%rbp)
    f1ab:	48 c7 85 f0 f9 ff ff 	movq   $0x0,-0x610(%rbp)
    f1b2:	00 00 00 00 
    f1b6:	48 8d 85 70 ef ff ff 	lea    -0x1090(%rbp),%rax
    f1bd:	48 89 85 f8 f9 ff ff 	mov    %rax,-0x608(%rbp)
    f1c4:	48 c7 85 00 fa ff ff 	movq   $0x0,-0x600(%rbp)
    f1cb:	00 00 00 00 
    f1cf:	48 8d 85 70 ef ff ff 	lea    -0x1090(%rbp),%rax
    f1d6:	48 89 85 08 fa ff ff 	mov    %rax,-0x5f8(%rbp)
    f1dd:	48 8d 85 70 ef ff ff 	lea    -0x1090(%rbp),%rax
    f1e4:	48 89 85 10 fa ff ff 	mov    %rax,-0x5f0(%rbp)
    f1eb:	48 c7 85 18 fa ff ff 	movq   $0x0,-0x5e8(%rbp)
    f1f2:	00 00 00 00 
    f1f6:	48 c7 85 20 fa ff ff 	movq   $0x0,-0x5e0(%rbp)
    f1fd:	00 00 00 00 
    f201:	48 8d 85 70 ef ff ff 	lea    -0x1090(%rbp),%rax
    f208:	48 89 85 28 fa ff ff 	mov    %rax,-0x5d8(%rbp)
    f20f:	48 8d 85 70 ef ff ff 	lea    -0x1090(%rbp),%rax
    f216:	48 89 85 30 fa ff ff 	mov    %rax,-0x5d0(%rbp)
    f21d:	48 8d 85 70 ef ff ff 	lea    -0x1090(%rbp),%rax
    f224:	48 89 85 38 fa ff ff 	mov    %rax,-0x5c8(%rbp)
    f22b:	48 8d 85 70 ef ff ff 	lea    -0x1090(%rbp),%rax
    f232:	48 89 85 40 fa ff ff 	mov    %rax,-0x5c0(%rbp)
    f239:	48 8d 85 70 ef ff ff 	lea    -0x1090(%rbp),%rax
    f240:	48 89 85 48 fa ff ff 	mov    %rax,-0x5b8(%rbp)
    f247:	48 8d 85 70 ef ff ff 	lea    -0x1090(%rbp),%rax
    f24e:	48 89 85 50 fa ff ff 	mov    %rax,-0x5b0(%rbp)
    f255:	48 8d 85 70 ef ff ff 	lea    -0x1090(%rbp),%rax
    f25c:	48 89 85 58 fa ff ff 	mov    %rax,-0x5a8(%rbp)
    f263:	48 c7 85 60 fa ff ff 	movq   $0x0,-0x5a0(%rbp)
    f26a:	00 00 00 00 
    f26e:	48 c7 85 68 fa ff ff 	movq   $0x0,-0x598(%rbp)
    f275:	00 00 00 00 
    f279:	48 8d 85 70 ef ff ff 	lea    -0x1090(%rbp),%rax
    f280:	48 89 85 70 fa ff ff 	mov    %rax,-0x590(%rbp)
    f287:	48 8d 85 70 ef ff ff 	lea    -0x1090(%rbp),%rax
    f28e:	48 89 85 78 fa ff ff 	mov    %rax,-0x588(%rbp)
    f295:	48 c7 85 80 fa ff ff 	movq   $0x0,-0x580(%rbp)
    f29c:	00 00 00 00 
    f2a0:	48 8d 85 70 ef ff ff 	lea    -0x1090(%rbp),%rax
    f2a7:	48 89 85 88 fa ff ff 	mov    %rax,-0x578(%rbp)
    f2ae:	48 c7 85 90 fa ff ff 	movq   $0x0,-0x570(%rbp)
    f2b5:	00 00 00 00 
    f2b9:	48 8d 85 70 ef ff ff 	lea    -0x1090(%rbp),%rax
    f2c0:	48 89 85 98 fa ff ff 	mov    %rax,-0x568(%rbp)
    f2c7:	48 c7 85 a0 fa ff ff 	movq   $0x0,-0x560(%rbp)
    f2ce:	00 00 00 00 
    f2d2:	48 8d 85 70 ef ff ff 	lea    -0x1090(%rbp),%rax
    f2d9:	48 89 85 a8 fa ff ff 	mov    %rax,-0x558(%rbp)
    f2e0:	48 8d 85 70 ef ff ff 	lea    -0x1090(%rbp),%rax
    f2e7:	48 89 85 b0 fa ff ff 	mov    %rax,-0x550(%rbp)
    f2ee:	48 c7 85 b8 fa ff ff 	movq   $0x0,-0x548(%rbp)
    f2f5:	00 00 00 00 
    f2f9:	48 c7 85 c0 fa ff ff 	movq   $0x0,-0x540(%rbp)
    f300:	00 00 00 00 
    f304:	48 8d 85 70 ef ff ff 	lea    -0x1090(%rbp),%rax
    f30b:	48 89 85 c8 fa ff ff 	mov    %rax,-0x538(%rbp)
    f312:	48 8d 85 70 ef ff ff 	lea    -0x1090(%rbp),%rax
    f319:	48 89 85 d0 fa ff ff 	mov    %rax,-0x530(%rbp)
    f320:	48 8d 85 70 ef ff ff 	lea    -0x1090(%rbp),%rax
    f327:	48 89 85 d8 fa ff ff 	mov    %rax,-0x528(%rbp)
    f32e:	48 8d 85 70 ef ff ff 	lea    -0x1090(%rbp),%rax
    f335:	48 89 85 e0 fa ff ff 	mov    %rax,-0x520(%rbp)
    f33c:	48 8d 85 70 ef ff ff 	lea    -0x1090(%rbp),%rax
    f343:	48 89 85 e8 fa ff ff 	mov    %rax,-0x518(%rbp)
    f34a:	48 8d 85 70 ef ff ff 	lea    -0x1090(%rbp),%rax
    f351:	48 89 85 f0 fa ff ff 	mov    %rax,-0x510(%rbp)
    f358:	48 8d 85 70 ef ff ff 	lea    -0x1090(%rbp),%rax
    f35f:	48 89 85 f8 fa ff ff 	mov    %rax,-0x508(%rbp)
    f366:	48 c7 85 00 fb ff ff 	movq   $0x0,-0x500(%rbp)
    f36d:	00 00 00 00 
    f371:	48 c7 85 08 fb ff ff 	movq   $0x0,-0x4f8(%rbp)
    f378:	00 00 00 00 
    f37c:	48 8d 85 70 ef ff ff 	lea    -0x1090(%rbp),%rax
    f383:	48 89 85 10 fb ff ff 	mov    %rax,-0x4f0(%rbp)
    f38a:	48 8d 85 70 ef ff ff 	lea    -0x1090(%rbp),%rax
    f391:	48 89 85 18 fb ff ff 	mov    %rax,-0x4e8(%rbp)
    f398:	48 c7 85 20 fb ff ff 	movq   $0x0,-0x4e0(%rbp)
    f39f:	00 00 00 00 
    f3a3:	48 8d 85 70 ef ff ff 	lea    -0x1090(%rbp),%rax
    f3aa:	48 89 85 28 fb ff ff 	mov    %rax,-0x4d8(%rbp)
    f3b1:	48 c7 85 30 fb ff ff 	movq   $0x0,-0x4d0(%rbp)
    f3b8:	00 00 00 00 
    f3bc:	48 8d 85 70 ef ff ff 	lea    -0x1090(%rbp),%rax
    f3c3:	48 89 85 38 fb ff ff 	mov    %rax,-0x4c8(%rbp)
    f3ca:	48 c7 85 40 fb ff ff 	movq   $0x0,-0x4c0(%rbp)
    f3d1:	00 00 00 00 
    f3d5:	48 8d 85 70 ef ff ff 	lea    -0x1090(%rbp),%rax
    f3dc:	48 89 85 48 fb ff ff 	mov    %rax,-0x4b8(%rbp)
    f3e3:	48 8d 85 70 ef ff ff 	lea    -0x1090(%rbp),%rax
    f3ea:	48 89 85 50 fb ff ff 	mov    %rax,-0x4b0(%rbp)
    f3f1:	48 c7 85 58 fb ff ff 	movq   $0x0,-0x4a8(%rbp)
    f3f8:	00 00 00 00 
    f3fc:	48 c7 85 60 fb ff ff 	movq   $0x0,-0x4a0(%rbp)
    f403:	00 00 00 00 
    f407:	48 8d 85 70 ef ff ff 	lea    -0x1090(%rbp),%rax
    f40e:	48 89 85 68 fb ff ff 	mov    %rax,-0x498(%rbp)
    f415:	48 8d 85 70 ef ff ff 	lea    -0x1090(%rbp),%rax
    f41c:	48 89 85 70 fb ff ff 	mov    %rax,-0x490(%rbp)
    f423:	48 8d 85 70 ef ff ff 	lea    -0x1090(%rbp),%rax
    f42a:	48 89 85 78 fb ff ff 	mov    %rax,-0x488(%rbp)
    f431:	48 8d 85 70 ef ff ff 	lea    -0x1090(%rbp),%rax
    f438:	48 89 85 80 fb ff ff 	mov    %rax,-0x480(%rbp)
    f43f:	48 8d 85 70 ef ff ff 	lea    -0x1090(%rbp),%rax
    f446:	48 89 85 88 fb ff ff 	mov    %rax,-0x478(%rbp)
    f44d:	48 8d 85 70 ef ff ff 	lea    -0x1090(%rbp),%rax
    f454:	48 89 85 90 fb ff ff 	mov    %rax,-0x470(%rbp)
    f45b:	48 8d 85 70 ef ff ff 	lea    -0x1090(%rbp),%rax
    f462:	48 89 85 98 fb ff ff 	mov    %rax,-0x468(%rbp)
    f469:	48 c7 85 a0 fb ff ff 	movq   $0x0,-0x460(%rbp)
    f470:	00 00 00 00 
    f474:	48 c7 85 a8 fb ff ff 	movq   $0x0,-0x458(%rbp)
    f47b:	00 00 00 00 
    f47f:	48 8d 85 70 ef ff ff 	lea    -0x1090(%rbp),%rax
    f486:	48 89 85 b0 fb ff ff 	mov    %rax,-0x450(%rbp)
    f48d:	48 8d 85 70 ef ff ff 	lea    -0x1090(%rbp),%rax
    f494:	48 89 85 b8 fb ff ff 	mov    %rax,-0x448(%rbp)
    f49b:	48 c7 85 c0 fb ff ff 	movq   $0x0,-0x440(%rbp)
    f4a2:	00 00 00 00 
    f4a6:	48 8d 85 70 ef ff ff 	lea    -0x1090(%rbp),%rax
    f4ad:	48 89 85 c8 fb ff ff 	mov    %rax,-0x438(%rbp)
    f4b4:	48 c7 85 d0 fb ff ff 	movq   $0x0,-0x430(%rbp)
    f4bb:	00 00 00 00 
    f4bf:	48 8d 85 70 ef ff ff 	lea    -0x1090(%rbp),%rax
    f4c6:	48 89 85 d8 fb ff ff 	mov    %rax,-0x428(%rbp)
    f4cd:	48 c7 85 e0 fb ff ff 	movq   $0x0,-0x420(%rbp)
    f4d4:	00 00 00 00 
    f4d8:	48 8d 85 70 ef ff ff 	lea    -0x1090(%rbp),%rax
    f4df:	48 89 85 e8 fb ff ff 	mov    %rax,-0x418(%rbp)
    f4e6:	48 8d 85 70 ef ff ff 	lea    -0x1090(%rbp),%rax
    f4ed:	48 89 85 f0 fb ff ff 	mov    %rax,-0x410(%rbp)
    f4f4:	48 c7 85 f8 fb ff ff 	movq   $0x0,-0x408(%rbp)
    f4fb:	00 00 00 00 
    f4ff:	48 c7 85 00 fc ff ff 	movq   $0x0,-0x400(%rbp)
    f506:	00 00 00 00 
    f50a:	48 8d 85 70 ef ff ff 	lea    -0x1090(%rbp),%rax
    f511:	48 89 85 08 fc ff ff 	mov    %rax,-0x3f8(%rbp)
    f518:	48 8d 85 70 ef ff ff 	lea    -0x1090(%rbp),%rax
    f51f:	48 89 85 10 fc ff ff 	mov    %rax,-0x3f0(%rbp)
    f526:	48 8d 85 70 ef ff ff 	lea    -0x1090(%rbp),%rax
    f52d:	48 89 85 18 fc ff ff 	mov    %rax,-0x3e8(%rbp)
    f534:	48 8b 85 40 f1 ff ff 	mov    -0xec0(%rbp),%rax
    f53b:	48 8b 95 48 f1 ff ff 	mov    -0xeb8(%rbp),%rdx
    f542:	48 89 05 47 7e 00 00 	mov    %rax,0x7e47(%rip)        # 17390 <g_370>
    f549:	48 89 15 48 7e 00 00 	mov    %rdx,0x7e48(%rip)        # 17398 <g_370+0x8>
    f550:	48 8b 85 50 f1 ff ff 	mov    -0xeb0(%rbp),%rax
    f557:	48 89 05 42 7e 00 00 	mov    %rax,0x7e42(%rip)        # 173a0 <g_370+0x10>
    f55e:	48 8b 85 c8 ef ff ff 	mov    -0x1038(%rbp),%rax
    f565:	48 89 05 b4 98 00 00 	mov    %rax,0x98b4(%rip)        # 18e20 <g_374>
    f56c:	48 c7 85 60 f0 ff ff 	movq   $0x0,-0xfa0(%rbp)
    f573:	00 00 00 00 
    f577:	e9 7b 01 00 00       	jmpq   f6f7 <func_55+0x30ef>
    f57c:	48 8d 85 70 ef ff ff 	lea    -0x1090(%rbp),%rax
    f583:	48 89 85 68 f0 ff ff 	mov    %rax,-0xf98(%rbp)
    f58a:	48 8d 05 17 98 00 00 	lea    0x9817(%rip),%rax        # 18da8 <g_65>
    f591:	48 89 85 a0 ef ff ff 	mov    %rax,-0x1060(%rbp)
    f598:	48 8d 85 a0 ef ff ff 	lea    -0x1060(%rbp),%rax
    f59f:	48 89 85 70 f0 ff ff 	mov    %rax,-0xf90(%rbp)
    f5a6:	48 8b 85 68 f0 ff ff 	mov    -0xf98(%rbp),%rax
    f5ad:	48 8d 15 28 7b 00 00 	lea    0x7b28(%rip),%rdx        # 170dc <g_11+0x1c>
    f5b4:	48 89 10             	mov    %rdx,(%rax)
    f5b7:	48 8b 85 68 f0 ff ff 	mov    -0xf98(%rbp),%rax
    f5be:	48 8b 95 60 f0 ff ff 	mov    -0xfa0(%rbp),%rdx
    f5c5:	48 89 10             	mov    %rdx,(%rax)
    f5c8:	48 8b 85 70 f0 ff ff 	mov    -0xf90(%rbp),%rax
    f5cf:	48 8d 95 e8 ee ff ff 	lea    -0x1118(%rbp),%rdx
    f5d6:	48 89 10             	mov    %rdx,(%rax)
    f5d9:	0f b6 05 b0 7d 00 00 	movzbl 0x7db0(%rip),%eax        # 17390 <g_370>
    f5e0:	84 c0                	test   %al,%al
    f5e2:	78 77                	js     f65b <func_55+0x3053>
    f5e4:	0f b7 85 f8 ee ff ff 	movzwl -0x1108(%rbp),%eax
    f5eb:	0f bf d8             	movswl %ax,%ebx
    f5ee:	48 8b 85 f0 ee ff ff 	mov    -0x1110(%rbp),%rax
    f5f5:	8b 00                	mov    (%rax),%eax
    f5f7:	41 89 c4             	mov    %eax,%r12d
    f5fa:	0f b7 85 f8 ee ff ff 	movzwl -0x1108(%rbp),%eax
    f601:	0f bf d0             	movswl %ax,%edx
    f604:	48 8b 05 45 7a 00 00 	mov    0x7a45(%rip),%rax        # 17050 <g_2+0x10>
    f60b:	98                   	cwtl   
    f60c:	89 d6                	mov    %edx,%esi
    f60e:	89 c7                	mov    %eax,%edi
    f610:	e8 40 6e ff ff       	callq  6455 <safe_div_func_int16_t_s_s>
    f615:	66 39 85 e4 ee ff ff 	cmp    %ax,-0x111c(%rbp)
    f61c:	0f 95 c0             	setne  %al
    f61f:	0f b6 c0             	movzbl %al,%eax
    f622:	44 89 e6             	mov    %r12d,%esi
    f625:	89 c7                	mov    %eax,%edi
    f627:	e8 a4 78 ff ff       	callq  6ed0 <safe_sub_func_uint32_t_u_u>
    f62c:	be 0d 00 00 00       	mov    $0xd,%esi
    f631:	bf 00 00 00 00       	mov    $0x0,%edi
    f636:	e8 0d 78 ff ff       	callq  6e48 <safe_rshift_func_uint16_t_u_s>
    f63b:	0f b7 c0             	movzwl %ax,%eax
    f63e:	89 de                	mov    %ebx,%esi
    f640:	89 c7                	mov    %eax,%edi
    f642:	e8 bf 77 ff ff       	callq  6e06 <safe_lshift_func_uint16_t_u_u>
    f647:	48 8b 85 58 f5 ff ff 	mov    -0xaa8(%rbp),%rax
    f64e:	48 83 f8 01          	cmp    $0x1,%rax
    f652:	7e 07                	jle    f65b <func_55+0x3053>
    f654:	b8 01 00 00 00       	mov    $0x1,%eax
    f659:	eb 05                	jmp    f660 <func_55+0x3058>
    f65b:	b8 00 00 00 00       	mov    $0x0,%eax
    f660:	0f b6 c8             	movzbl %al,%ecx
    f663:	8b 05 1f 7b 00 00    	mov    0x7b1f(%rip),%eax        # 17188 <g_171>
    f669:	8d 78 02             	lea    0x2(%rax),%edi
    f66c:	8b 15 16 7b 00 00    	mov    0x7b16(%rip),%edx        # 17188 <g_171>
    f672:	0f b7 05 15 7b 00 00 	movzwl 0x7b15(%rip),%eax        # 1718e <g_193>
    f679:	98                   	cwtl   
    f67a:	83 c0 04             	add    $0x4,%eax
    f67d:	48 63 f0             	movslq %eax,%rsi
    f680:	89 f8                	mov    %edi,%eax
    f682:	89 d7                	mov    %edx,%edi
    f684:	48 89 c2             	mov    %rax,%rdx
    f687:	48 c1 e2 04          	shl    $0x4,%rdx
    f68b:	48 29 c2             	sub    %rax,%rdx
    f68e:	48 8d 04 12          	lea    (%rdx,%rdx,1),%rax
    f692:	48 89 c2             	mov    %rax,%rdx
    f695:	48 89 f8             	mov    %rdi,%rax
    f698:	48 c1 e0 02          	shl    $0x2,%rax
    f69c:	48 01 f8             	add    %rdi,%rax
    f69f:	48 01 c0             	add    %rax,%rax
    f6a2:	48 01 d0             	add    %rdx,%rax
    f6a5:	48 01 f0             	add    %rsi,%rax
    f6a8:	48 8d 14 00          	lea    (%rax,%rax,1),%rdx
    f6ac:	48 8d 05 ed 7a 00 00 	lea    0x7aed(%rip),%rax        # 171a0 <g_194>
    f6b3:	0f b7 04 02          	movzwl (%rdx,%rax,1),%eax
    f6b7:	0f b6 c0             	movzbl %al,%eax
    f6ba:	89 ce                	mov    %ecx,%esi
    f6bc:	89 c7                	mov    %eax,%edi
    f6be:	e8 b5 74 ff ff       	callq  6b78 <safe_sub_func_uint8_t_u_u>
    f6c3:	84 c0                	test   %al,%al
    f6c5:	74 13                	je     f6da <func_55+0x30d2>
    f6c7:	48 8b 85 28 f1 ff ff 	mov    -0xed8(%rbp),%rax
    f6ce:	48 85 c0             	test   %rax,%rax
    f6d1:	74 07                	je     f6da <func_55+0x30d2>
    f6d3:	b8 01 00 00 00       	mov    $0x1,%eax
    f6d8:	eb 05                	jmp    f6df <func_55+0x30d7>
    f6da:	b8 00 00 00 00       	mov    $0x0,%eax
    f6df:	f7 d0                	not    %eax
    f6e1:	89 c1                	mov    %eax,%ecx
    f6e3:	48 8b 85 70 ef ff ff 	mov    -0x1090(%rbp),%rax
    f6ea:	8b 10                	mov    (%rax),%edx
    f6ec:	48 8b 85 70 ef ff ff 	mov    -0x1090(%rbp),%rax
    f6f3:	31 ca                	xor    %ecx,%edx
    f6f5:	89 10                	mov    %edx,(%rax)
    f6f7:	8b 05 8b 7a 00 00    	mov    0x7a8b(%rip),%eax        # 17188 <g_171>
    f6fd:	83 c0 01             	add    $0x1,%eax
    f700:	89 05 82 7a 00 00    	mov    %eax,0x7a82(%rip)        # 17188 <g_171>
    f706:	8b 05 7c 7a 00 00    	mov    0x7a7c(%rip),%eax        # 17188 <g_171>
    f70c:	83 f8 02             	cmp    $0x2,%eax
    f70f:	0f 86 5d f8 ff ff    	jbe    ef72 <func_55+0x296a>
    f715:	c6 85 00 ef ff ff 00 	movb   $0x0,-0x1100(%rbp)
    f71c:	e9 1e 03 00 00       	jmpq   fa3f <func_55+0x3437>
    f721:	48 c7 85 00 f9 ff ff 	movq   $0x0,-0x700(%rbp)
    f728:	00 00 00 00 
    f72c:	48 c7 85 08 f9 ff ff 	movq   $0x0,-0x6f8(%rbp)
    f733:	00 00 00 00 
    f737:	48 c7 85 10 f9 ff ff 	movq   $0x0,-0x6f0(%rbp)
    f73e:	00 00 00 00 
    f742:	48 c7 85 18 f9 ff ff 	movq   $0x0,-0x6e8(%rbp)
    f749:	00 00 00 00 
    f74d:	48 8d 85 00 f9 ff ff 	lea    -0x700(%rbp),%rax
    f754:	48 83 c0 08          	add    $0x8,%rax
    f758:	48 89 85 38 f0 ff ff 	mov    %rax,-0xfc8(%rbp)
    f75f:	c7 85 58 ef ff ff 00 	movl   $0x0,-0x10a8(%rbp)
    f766:	00 00 00 
    f769:	c7 85 5c ef ff ff f8 	movl   $0xfffffff8,-0x10a4(%rbp)
    f770:	ff ff ff 
    f773:	48 8d 85 02 ef ff ff 	lea    -0x10fe(%rbp),%rax
    f77a:	48 89 85 40 f0 ff ff 	mov    %rax,-0xfc0(%rbp)
    f781:	48 8d 85 0c ef ff ff 	lea    -0x10f4(%rbp),%rax
    f788:	48 89 85 40 f1 ff ff 	mov    %rax,-0xec0(%rbp)
    f78f:	48 8d 85 40 f1 ff ff 	lea    -0xec0(%rbp),%rax
    f796:	48 89 85 48 f0 ff ff 	mov    %rax,-0xfb8(%rbp)
    f79d:	c7 85 24 ef ff ff 02 	movl   $0x2,-0x10dc(%rbp)
    f7a4:	00 00 00 
    f7a7:	eb 2d                	jmp    f7d6 <func_55+0x31ce>
    f7a9:	48 8d 85 70 ef ff ff 	lea    -0x1090(%rbp),%rax
    f7b0:	48 89 85 50 f0 ff ff 	mov    %rax,-0xfb0(%rbp)
    f7b7:	48 8b 85 50 f0 ff ff 	mov    -0xfb0(%rbp),%rax
    f7be:	48 8d 15 2f 79 00 00 	lea    0x792f(%rip),%rdx        # 170f4 <g_15>
    f7c5:	48 89 10             	mov    %rdx,(%rax)
    f7c8:	80 ad 01 ef ff ff 01 	subb   $0x1,-0x10ff(%rbp)
    f7cf:	83 ad 24 ef ff ff 01 	subl   $0x1,-0x10dc(%rbp)
    f7d6:	83 bd 24 ef ff ff 00 	cmpl   $0x0,-0x10dc(%rbp)
    f7dd:	79 ca                	jns    f7a9 <func_55+0x31a1>
    f7df:	48 8b 1d 92 79 00 00 	mov    0x7992(%rip),%rbx        # 17178 <g_116>
    f7e6:	0f b7 85 e4 ee ff ff 	movzwl -0x111c(%rbp),%eax
    f7ed:	44 0f b6 e0          	movzbl %al,%r12d
    f7f1:	44 0f bf ad e4 ee ff 	movswl -0x111c(%rbp),%r13d
    f7f8:	ff 
    f7f9:	8b 85 fc ee ff ff    	mov    -0x1104(%rbp),%eax
    f7ff:	85 c0                	test   %eax,%eax
    f801:	0f 84 6f 01 00 00    	je     f976 <func_55+0x336e>
    f807:	8b 85 fc ee ff ff    	mov    -0x1104(%rbp),%eax
    f80d:	4c 63 f0             	movslq %eax,%r14
    f810:	0f b7 85 e4 ee ff ff 	movzwl -0x111c(%rbp),%eax
    f817:	88 85 d8 ee ff ff    	mov    %al,-0x1128(%rbp)
    f81d:	48 8b 85 d0 f2 ff ff 	mov    -0xd30(%rbp),%rax
    f824:	48 85 c0             	test   %rax,%rax
    f827:	0f 85 ca 00 00 00    	jne    f8f7 <func_55+0x32ef>
    f82d:	8b 85 fc ee ff ff    	mov    -0x1104(%rbp),%eax
    f833:	89 85 d0 ee ff ff    	mov    %eax,-0x1130(%rbp)
    f839:	0f b6 05 e3 78 00 00 	movzbl 0x78e3(%rip),%eax        # 17123 <g_114+0x3>
    f840:	44 0f b6 f8          	movzbl %al,%r15d
    f844:	0f b7 05 43 79 00 00 	movzwl 0x7943(%rip),%eax        # 1718e <g_193>
    f84b:	48 0f bf c0          	movswq %ax,%rax
    f84f:	0f b6 15 c4 78 00 00 	movzbl 0x78c4(%rip),%edx        # 1711a <g_85>
    f856:	84 d2                	test   %dl,%dl
    f858:	75 08                	jne    f862 <func_55+0x325a>
    f85a:	66 83 bd 08 ef ff ff 	cmpw   $0x0,-0x10f8(%rbp)
    f861:	00 
    f862:	48 89 c6             	mov    %rax,%rsi
    f865:	48 bf 56 a1 22 18 6a 	movabs $0x7f9ca66a1822a156,%rdi
    f86c:	a6 9c 7f 
    f86f:	e8 0c 78 ff ff       	callq  7080 <safe_mod_func_uint64_t_u_u>
    f874:	89 85 58 ef ff ff    	mov    %eax,-0x10a8(%rbp)
    f87a:	8b 85 58 ef ff ff    	mov    -0x10a8(%rbp),%eax
    f880:	c1 e8 1f             	shr    $0x1f,%eax
    f883:	0f b6 c0             	movzbl %al,%eax
    f886:	44 89 fe             	mov    %r15d,%esi
    f889:	89 c7                	mov    %eax,%edi
    f88b:	e8 c5 6b ff ff       	callq  6455 <safe_div_func_int16_t_s_s>
    f890:	0f bf d0             	movswl %ax,%edx
    f893:	8b 05 5f 78 00 00    	mov    0x785f(%rip),%eax        # 170f8 <g_27>
    f899:	39 c2                	cmp    %eax,%edx
    f89b:	0f 93 c0             	setae  %al
    f89e:	89 c1                	mov    %eax,%ecx
    f8a0:	8b 85 5c ef ff ff    	mov    -0x10a4(%rbp),%eax
    f8a6:	89 c2                	mov    %eax,%edx
    f8a8:	48 8b 85 68 ef ff ff 	mov    -0x1098(%rbp),%rax
    f8af:	31 ca                	xor    %ecx,%edx
    f8b1:	88 10                	mov    %dl,(%rax)
    f8b3:	0f b6 00             	movzbl (%rax),%eax
    f8b6:	0f be c0             	movsbl %al,%eax
    f8b9:	8b b5 d0 ee ff ff    	mov    -0x1130(%rbp),%esi
    f8bf:	89 c7                	mov    %eax,%edi
    f8c1:	e8 a6 6a ff ff       	callq  636c <safe_rshift_func_int8_t_s_u>
    f8c6:	66 0f be d0          	movsbw %al,%dx
    f8ca:	48 8b 85 40 f0 ff ff 	mov    -0xfc0(%rbp),%rax
    f8d1:	66 89 10             	mov    %dx,(%rax)
    f8d4:	48 8b 85 40 f0 ff ff 	mov    -0xfc0(%rbp),%rax
    f8db:	0f b7 00             	movzwl (%rax),%eax
    f8de:	98                   	cwtl   
    f8df:	be fa d0 ff ff       	mov    $0xffffd0fa,%esi
    f8e4:	89 c7                	mov    %eax,%edi
    f8e6:	e8 2b 6b ff ff       	callq  6416 <safe_mod_func_int16_t_s_s>
    f8eb:	66 85 c0             	test   %ax,%ax
    f8ee:	74 07                	je     f8f7 <func_55+0x32ef>
    f8f0:	b8 01 00 00 00       	mov    $0x1,%eax
    f8f5:	eb 05                	jmp    f8fc <func_55+0x32f4>
    f8f7:	b8 00 00 00 00       	mov    $0x0,%eax
    f8fc:	48 63 d0             	movslq %eax,%rdx
    f8ff:	48 8b 85 08 f1 ff ff 	mov    -0xef8(%rbp),%rax
    f906:	48 39 c2             	cmp    %rax,%rdx
    f909:	0f 97 c0             	seta   %al
    f90c:	89 c2                	mov    %eax,%edx
    f90e:	48 8b 05 f3 77 00 00 	mov    0x77f3(%rip),%rax        # 17108 <g_31+0x8>
    f915:	09 d0                	or     %edx,%eax
    f917:	0a 85 d8 ee ff ff    	or     -0x1128(%rbp),%al
    f91d:	0f b6 d0             	movzbl %al,%edx
    f920:	0f b6 85 20 f1 ff ff 	movzbl -0xee0(%rbp),%eax
    f927:	0f be c0             	movsbl %al,%eax
    f92a:	89 85 24 ef ff ff    	mov    %eax,-0x10dc(%rbp)
    f930:	8b 85 24 ef ff ff    	mov    -0x10dc(%rbp),%eax
    f936:	0f b6 c0             	movzbl %al,%eax
    f939:	89 d6                	mov    %edx,%esi
    f93b:	89 c7                	mov    %eax,%edi
    f93d:	e8 6c 72 ff ff       	callq  6bae <safe_mod_func_uint8_t_u_u>
    f942:	8b 05 50 77 00 00    	mov    0x7750(%rip),%eax        # 17098 <g_5>
    f948:	48 63 d0             	movslq %eax,%rdx
    f94b:	48 8b 85 e8 ef ff ff 	mov    -0x1018(%rbp),%rax
    f952:	48 89 10             	mov    %rdx,(%rax)
    f955:	48 8b 85 e8 ef ff ff 	mov    -0x1018(%rbp),%rax
    f95c:	48 8b 00             	mov    (%rax),%rax
    f95f:	4c 89 f6             	mov    %r14,%rsi
    f962:	48 89 c7             	mov    %rax,%rdi
    f965:	e8 d7 6e ff ff       	callq  6841 <safe_add_func_int64_t_s_s>
    f96a:	48 85 c0             	test   %rax,%rax
    f96d:	74 07                	je     f976 <func_55+0x336e>
    f96f:	b8 01 00 00 00       	mov    $0x1,%eax
    f974:	eb 05                	jmp    f97b <func_55+0x3373>
    f976:	b8 00 00 00 00       	mov    $0x0,%eax
    f97b:	98                   	cwtl   
    f97c:	83 e0 01             	and    $0x1,%eax
    f97f:	44 89 ee             	mov    %r13d,%esi
    f982:	89 c7                	mov    %eax,%edi
    f984:	e8 8d 6a ff ff       	callq  6416 <safe_mod_func_int16_t_s_s>
    f989:	be ff ff 00 00       	mov    $0xffff,%esi
    f98e:	bf 6e 2f 00 00       	mov    $0x2f6e,%edi
    f993:	e8 c4 73 ff ff       	callq  6d5c <safe_mod_func_uint16_t_u_u>
    f998:	0f b6 c0             	movzbl %al,%eax
    f99b:	44 89 e6             	mov    %r12d,%esi
    f99e:	89 c7                	mov    %eax,%edi
    f9a0:	e8 d3 71 ff ff       	callq  6b78 <safe_sub_func_uint8_t_u_u>
    f9a5:	0f b6 d0             	movzbl %al,%edx
    f9a8:	48 8b 85 38 f0 ff ff 	mov    -0xfc8(%rbp),%rax
    f9af:	48 c7 00 00 00 00 00 	movq   $0x0,(%rax)
    f9b6:	48 8b 85 38 f0 ff ff 	mov    -0xfc8(%rbp),%rax
    f9bd:	48 8b 08             	mov    (%rax),%rcx
    f9c0:	48 8d 85 f8 ee ff ff 	lea    -0x1108(%rbp),%rax
    f9c7:	48 39 c1             	cmp    %rax,%rcx
    f9ca:	0f 94 c1             	sete   %cl
    f9cd:	48 8b 85 f0 ee ff ff 	mov    -0x1110(%rbp),%rax
    f9d4:	0f b6 c9             	movzbl %cl,%ecx
    f9d7:	89 08                	mov    %ecx,(%rax)
    f9d9:	8b 00                	mov    (%rax),%eax
    f9db:	89 d6                	mov    %edx,%esi
    f9dd:	89 c7                	mov    %eax,%edi
    f9df:	e8 21 6c ff ff       	callq  6605 <safe_sub_func_int32_t_s_s>
    f9e4:	48 98                	cltq   
    f9e6:	48 89 de             	mov    %rbx,%rsi
    f9e9:	48 89 c7             	mov    %rax,%rdi
    f9ec:	e8 c3 6f ff ff       	callq  69b4 <safe_mod_func_int64_t_s_s>
    f9f1:	f7 d0                	not    %eax
    f9f3:	89 c1                	mov    %eax,%ecx
    f9f5:	0f b7 85 30 f1 ff ff 	movzwl -0xed0(%rbp),%eax
    f9fc:	66 25 ff 07          	and    $0x7ff,%ax
    fa00:	0f b7 d0             	movzwl %ax,%edx
    fa03:	48 8b 85 40 f1 ff ff 	mov    -0xec0(%rbp),%rax
    fa0a:	31 ca                	xor    %ecx,%edx
    fa0c:	89 10                	mov    %edx,(%rax)
    fa0e:	48 8b 85 40 f1 ff ff 	mov    -0xec0(%rbp),%rax
    fa15:	8b 00                	mov    (%rax),%eax
    fa17:	85 c0                	test   %eax,%eax
    fa19:	75 13                	jne    fa2e <func_55+0x3426>
    fa1b:	48 8b 85 48 f0 ff ff 	mov    -0xfb8(%rbp),%rax
    fa22:	48 8d 95 fc ee ff ff 	lea    -0x1104(%rbp),%rdx
    fa29:	48 89 10             	mov    %rdx,(%rax)
    fa2c:	eb 01                	jmp    fa2f <func_55+0x3427>
    fa2e:	90                   	nop
    fa2f:	0f b6 85 00 ef ff ff 	movzbl -0x1100(%rbp),%eax
    fa36:	83 c0 01             	add    $0x1,%eax
    fa39:	88 85 00 ef ff ff    	mov    %al,-0x1100(%rbp)
    fa3f:	0f b6 85 00 ef ff ff 	movzbl -0x1100(%rbp),%eax
    fa46:	3c 02                	cmp    $0x2,%al
    fa48:	0f 8e d3 fc ff ff    	jle    f721 <func_55+0x3119>
    fa4e:	0f b7 05 39 77 00 00 	movzwl 0x7739(%rip),%eax        # 1718e <g_193>
    fa55:	83 e8 01             	sub    $0x1,%eax
    fa58:	66 89 05 2f 77 00 00 	mov    %ax,0x772f(%rip)        # 1718e <g_193>
    fa5f:	0f b7 05 28 77 00 00 	movzwl 0x7728(%rip),%eax        # 1718e <g_193>
    fa66:	66 85 c0             	test   %ax,%ax
    fa69:	0f 89 ce e6 ff ff    	jns    e13d <func_55+0x1b35>
    fa6f:	48 8b 05 22 79 00 00 	mov    0x7922(%rip),%rax        # 17398 <g_370+0x8>
    fa76:	48 85 c0             	test   %rax,%rax
    fa79:	0f b7 85 06 ef ff ff 	movzwl -0x10fa(%rbp),%eax
    fa80:	83 c0 01             	add    $0x1,%eax
    fa83:	66 89 85 06 ef ff ff 	mov    %ax,-0x10fa(%rbp)
    fa8a:	66 83 bd 06 ef ff ff 	cmpw   $0x1c,-0x10fa(%rbp)
    fa91:	1c 
    fa92:	0f 8f 70 d0 ff ff    	jg     cb08 <func_55+0x500>
    fa98:	8b 85 fc ee ff ff    	mov    -0x1104(%rbp),%eax
    fa9e:	48 8b 5d c8          	mov    -0x38(%rbp),%rbx
    faa2:	64 48 33 1c 25 28 00 	xor    %fs:0x28,%rbx
    faa9:	00 00 
    faab:	74 05                	je     fab2 <func_55+0x34aa>
    faad:	e8 be 65 ff ff       	callq  6070 <__stack_chk_fail@plt>
    fab2:	48 81 c4 08 11 00 00 	add    $0x1108,%rsp
    fab9:	5b                   	pop    %rbx
    faba:	41 5c                	pop    %r12
    fabc:	41 5d                	pop    %r13
    fabe:	41 5e                	pop    %r14
    fac0:	41 5f                	pop    %r15
    fac2:	5d                   	pop    %rbp
    fac3:	c3                   	retq   

000000000000fac4 <main>:
    fac4:	f3 0f 1e fa          	endbr64 
    fac8:	55                   	push   %rbp
    fac9:	48 89 e5             	mov    %rsp,%rbp
    facc:	48 83 ec 20          	sub    $0x20,%rsp
    fad0:	89 7d ec             	mov    %edi,-0x14(%rbp)
    fad3:	48 89 75 e0          	mov    %rsi,-0x20(%rbp)
    fad7:	c7 45 fc 00 00 00 00 	movl   $0x0,-0x4(%rbp)
    fade:	83 7d ec 02          	cmpl   $0x2,-0x14(%rbp)
    fae2:	75 25                	jne    fb09 <main+0x45>
    fae4:	48 8b 45 e0          	mov    -0x20(%rbp),%rax
    fae8:	48 83 c0 08          	add    $0x8,%rax
    faec:	48 8b 00             	mov    (%rax),%rax
    faef:	48 8d 35 0a 38 00 00 	lea    0x380a(%rip),%rsi        # 13300 <g_332+0x12a0>
    faf6:	48 89 c7             	mov    %rax,%rdi
    faf9:	e8 92 65 ff ff       	callq  6090 <strcmp@plt>
    fafe:	85 c0                	test   %eax,%eax
    fb00:	75 07                	jne    fb09 <main+0x45>
    fb02:	c7 45 fc 01 00 00 00 	movl   $0x1,-0x4(%rbp)
    fb09:	e8 7b 66 ff ff       	callq  6189 <platform_main_begin>
    fb0e:	e8 85 7a ff ff       	callq  7598 <crc32_gentab>
    fb13:	e8 9d 7c ff ff       	callq  77b5 <func_1>
    fb18:	c7 45 f0 00 00 00 00 	movl   $0x0,-0x10(%rbp)
    fb1f:	eb 4a                	jmp    fb6b <main+0xa7>
    fb21:	8b 45 f0             	mov    -0x10(%rbp),%eax
    fb24:	48 98                	cltq   
    fb26:	48 8d 14 c5 00 00 00 	lea    0x0(,%rax,8),%rdx
    fb2d:	00 
    fb2e:	48 8d 05 0b 75 00 00 	lea    0x750b(%rip),%rax        # 17040 <g_2>
    fb35:	48 8b 04 02          	mov    (%rdx,%rax,1),%rax
    fb39:	8b 55 fc             	mov    -0x4(%rbp),%edx
    fb3c:	48 8d 35 bf 37 00 00 	lea    0x37bf(%rip),%rsi        # 13302 <g_332+0x12a2>
    fb43:	48 89 c7             	mov    %rax,%rdi
    fb46:	e8 a8 7b ff ff       	callq  76f3 <transparent_crc>
    fb4b:	83 7d fc 00          	cmpl   $0x0,-0x4(%rbp)
    fb4f:	74 16                	je     fb67 <main+0xa3>
    fb51:	8b 45 f0             	mov    -0x10(%rbp),%eax
    fb54:	89 c6                	mov    %eax,%esi
    fb56:	48 8d 3d ac 37 00 00 	lea    0x37ac(%rip),%rdi        # 13309 <g_332+0x12a9>
    fb5d:	b8 00 00 00 00       	mov    $0x0,%eax
    fb62:	e8 19 65 ff ff       	callq  6080 <printf@plt>
    fb67:	83 45 f0 01          	addl   $0x1,-0x10(%rbp)
    fb6b:	83 7d f0 09          	cmpl   $0x9,-0x10(%rbp)
    fb6f:	7e b0                	jle    fb21 <main+0x5d>
    fb71:	8b 05 19 75 00 00    	mov    0x7519(%rip),%eax        # 17090 <g_3>
    fb77:	48 98                	cltq   
    fb79:	8b 55 fc             	mov    -0x4(%rbp),%edx
    fb7c:	48 8d 35 94 37 00 00 	lea    0x3794(%rip),%rsi        # 13317 <g_332+0x12b7>
    fb83:	48 89 c7             	mov    %rax,%rdi
    fb86:	e8 68 7b ff ff       	callq  76f3 <transparent_crc>
    fb8b:	8b 05 03 75 00 00    	mov    0x7503(%rip),%eax        # 17094 <g_4>
    fb91:	48 98                	cltq   
    fb93:	8b 55 fc             	mov    -0x4(%rbp),%edx
    fb96:	48 8d 35 7e 37 00 00 	lea    0x377e(%rip),%rsi        # 1331b <g_332+0x12bb>
    fb9d:	48 89 c7             	mov    %rax,%rdi
    fba0:	e8 4e 7b ff ff       	callq  76f3 <transparent_crc>
    fba5:	8b 05 ed 74 00 00    	mov    0x74ed(%rip),%eax        # 17098 <g_5>
    fbab:	48 98                	cltq   
    fbad:	8b 55 fc             	mov    -0x4(%rbp),%edx
    fbb0:	48 8d 35 68 37 00 00 	lea    0x3768(%rip),%rsi        # 1331f <g_332+0x12bf>
    fbb7:	48 89 c7             	mov    %rax,%rdi
    fbba:	e8 34 7b ff ff       	callq  76f3 <transparent_crc>
    fbbf:	8b 05 83 9e 00 00    	mov    0x9e83(%rip),%eax        # 19a48 <g_6>
    fbc5:	48 98                	cltq   
    fbc7:	8b 55 fc             	mov    -0x4(%rbp),%edx
    fbca:	48 8d 35 52 37 00 00 	lea    0x3752(%rip),%rsi        # 13323 <g_332+0x12c3>
    fbd1:	48 89 c7             	mov    %rax,%rdi
    fbd4:	e8 1a 7b ff ff       	callq  76f3 <transparent_crc>
    fbd9:	8b 05 bd 74 00 00    	mov    0x74bd(%rip),%eax        # 1709c <g_7>
    fbdf:	48 98                	cltq   
    fbe1:	8b 55 fc             	mov    -0x4(%rbp),%edx
    fbe4:	48 8d 35 3c 37 00 00 	lea    0x373c(%rip),%rsi        # 13327 <g_332+0x12c7>
    fbeb:	48 89 c7             	mov    %rax,%rdi
    fbee:	e8 00 7b ff ff       	callq  76f3 <transparent_crc>
    fbf3:	8b 05 a7 74 00 00    	mov    0x74a7(%rip),%eax        # 170a0 <g_8>
    fbf9:	48 98                	cltq   
    fbfb:	8b 55 fc             	mov    -0x4(%rbp),%edx
    fbfe:	48 8d 35 26 37 00 00 	lea    0x3726(%rip),%rsi        # 1332b <g_332+0x12cb>
    fc05:	48 89 c7             	mov    %rax,%rdi
    fc08:	e8 e6 7a ff ff       	callq  76f3 <transparent_crc>
    fc0d:	8b 05 91 74 00 00    	mov    0x7491(%rip),%eax        # 170a4 <g_9>
    fc13:	48 98                	cltq   
    fc15:	8b 55 fc             	mov    -0x4(%rbp),%edx
    fc18:	48 8d 35 10 37 00 00 	lea    0x3710(%rip),%rsi        # 1332f <g_332+0x12cf>
    fc1f:	48 89 c7             	mov    %rax,%rdi
    fc22:	e8 cc 7a ff ff       	callq  76f3 <transparent_crc>
    fc27:	8b 05 7b 74 00 00    	mov    0x747b(%rip),%eax        # 170a8 <g_10>
    fc2d:	48 98                	cltq   
    fc2f:	8b 55 fc             	mov    -0x4(%rbp),%edx
    fc32:	48 8d 35 fa 36 00 00 	lea    0x36fa(%rip),%rsi        # 13333 <g_332+0x12d3>
    fc39:	48 89 c7             	mov    %rax,%rdi
    fc3c:	e8 b2 7a ff ff       	callq  76f3 <transparent_crc>
    fc41:	c7 45 f0 00 00 00 00 	movl   $0x0,-0x10(%rbp)
    fc48:	eb 4b                	jmp    fc95 <main+0x1d1>
    fc4a:	8b 45 f0             	mov    -0x10(%rbp),%eax
    fc4d:	48 98                	cltq   
    fc4f:	48 8d 14 85 00 00 00 	lea    0x0(,%rax,4),%rdx
    fc56:	00 
    fc57:	48 8d 05 62 74 00 00 	lea    0x7462(%rip),%rax        # 170c0 <g_11>
    fc5e:	8b 04 02             	mov    (%rdx,%rax,1),%eax
    fc61:	48 98                	cltq   
    fc63:	8b 55 fc             	mov    -0x4(%rbp),%edx
    fc66:	48 8d 35 cb 36 00 00 	lea    0x36cb(%rip),%rsi        # 13338 <g_332+0x12d8>
    fc6d:	48 89 c7             	mov    %rax,%rdi
    fc70:	e8 7e 7a ff ff       	callq  76f3 <transparent_crc>
    fc75:	83 7d fc 00          	cmpl   $0x0,-0x4(%rbp)
    fc79:	74 16                	je     fc91 <main+0x1cd>
    fc7b:	8b 45 f0             	mov    -0x10(%rbp),%eax
    fc7e:	89 c6                	mov    %eax,%esi
    fc80:	48 8d 3d 82 36 00 00 	lea    0x3682(%rip),%rdi        # 13309 <g_332+0x12a9>
    fc87:	b8 00 00 00 00       	mov    $0x0,%eax
    fc8c:	e8 ef 63 ff ff       	callq  6080 <printf@plt>
    fc91:	83 45 f0 01          	addl   $0x1,-0x10(%rbp)
    fc95:	83 7d f0 09          	cmpl   $0x9,-0x10(%rbp)
    fc99:	7e af                	jle    fc4a <main+0x186>
    fc9b:	8b 05 47 74 00 00    	mov    0x7447(%rip),%eax        # 170e8 <g_12>
    fca1:	48 98                	cltq   
    fca3:	8b 55 fc             	mov    -0x4(%rbp),%edx
    fca6:	48 8d 35 93 36 00 00 	lea    0x3693(%rip),%rsi        # 13340 <g_332+0x12e0>
    fcad:	48 89 c7             	mov    %rax,%rdi
    fcb0:	e8 3e 7a ff ff       	callq  76f3 <transparent_crc>
    fcb5:	8b 05 31 74 00 00    	mov    0x7431(%rip),%eax        # 170ec <g_13>
    fcbb:	48 98                	cltq   
    fcbd:	8b 55 fc             	mov    -0x4(%rbp),%edx
    fcc0:	48 8d 35 7e 36 00 00 	lea    0x367e(%rip),%rsi        # 13345 <g_332+0x12e5>
    fcc7:	48 89 c7             	mov    %rax,%rdi
    fcca:	e8 24 7a ff ff       	callq  76f3 <transparent_crc>
    fccf:	8b 05 1b 74 00 00    	mov    0x741b(%rip),%eax        # 170f0 <g_14>
    fcd5:	48 98                	cltq   
    fcd7:	8b 55 fc             	mov    -0x4(%rbp),%edx
    fcda:	48 8d 35 69 36 00 00 	lea    0x3669(%rip),%rsi        # 1334a <g_332+0x12ea>
    fce1:	48 89 c7             	mov    %rax,%rdi
    fce4:	e8 0a 7a ff ff       	callq  76f3 <transparent_crc>
    fce9:	8b 05 05 74 00 00    	mov    0x7405(%rip),%eax        # 170f4 <g_15>
    fcef:	48 98                	cltq   
    fcf1:	8b 55 fc             	mov    -0x4(%rbp),%edx
    fcf4:	48 8d 35 54 36 00 00 	lea    0x3654(%rip),%rsi        # 1334f <g_332+0x12ef>
    fcfb:	48 89 c7             	mov    %rax,%rdi
    fcfe:	e8 f0 79 ff ff       	callq  76f3 <transparent_crc>
    fd03:	8b 05 ef 73 00 00    	mov    0x73ef(%rip),%eax        # 170f8 <g_27>
    fd09:	89 c1                	mov    %eax,%ecx
    fd0b:	8b 45 fc             	mov    -0x4(%rbp),%eax
    fd0e:	89 c2                	mov    %eax,%edx
    fd10:	48 8d 35 3d 36 00 00 	lea    0x363d(%rip),%rsi        # 13354 <g_332+0x12f4>
    fd17:	48 89 cf             	mov    %rcx,%rdi
    fd1a:	e8 d4 79 ff ff       	callq  76f3 <transparent_crc>
    fd1f:	0f b6 05 da 73 00 00 	movzbl 0x73da(%rip),%eax        # 17100 <g_31>
    fd26:	48 0f be c0          	movsbq %al,%rax
    fd2a:	8b 55 fc             	mov    -0x4(%rbp),%edx
    fd2d:	48 8d 35 25 36 00 00 	lea    0x3625(%rip),%rsi        # 13359 <g_332+0x12f9>
    fd34:	48 89 c7             	mov    %rax,%rdi
    fd37:	e8 b7 79 ff ff       	callq  76f3 <transparent_crc>
    fd3c:	48 8b 05 c5 73 00 00 	mov    0x73c5(%rip),%rax        # 17108 <g_31+0x8>
    fd43:	8b 55 fc             	mov    -0x4(%rbp),%edx
    fd46:	48 8d 35 14 36 00 00 	lea    0x3614(%rip),%rsi        # 13361 <g_332+0x1301>
    fd4d:	48 89 c7             	mov    %rax,%rdi
    fd50:	e8 9e 79 ff ff       	callq  76f3 <transparent_crc>
    fd55:	0f b7 05 b4 73 00 00 	movzwl 0x73b4(%rip),%eax        # 17110 <g_31+0x10>
    fd5c:	66 25 ff 07          	and    $0x7ff,%ax
    fd60:	0f b7 c0             	movzwl %ax,%eax
    fd63:	8b 55 fc             	mov    -0x4(%rbp),%edx
    fd66:	48 8d 35 fc 35 00 00 	lea    0x35fc(%rip),%rsi        # 13369 <g_332+0x1309>
    fd6d:	48 89 c7             	mov    %rax,%rdi
    fd70:	e8 7e 79 ff ff       	callq  76f3 <transparent_crc>
    fd75:	c7 45 f0 00 00 00 00 	movl   $0x0,-0x10(%rbp)
    fd7c:	eb 49                	jmp    fdc7 <main+0x303>
    fd7e:	8b 45 f0             	mov    -0x10(%rbp),%eax
    fd81:	48 98                	cltq   
    fd83:	48 8d 14 00          	lea    (%rax,%rax,1),%rdx
    fd87:	48 8d 05 8a 73 00 00 	lea    0x738a(%rip),%rax        # 17118 <g_81>
    fd8e:	0f b7 04 02          	movzwl (%rdx,%rax,1),%eax
    fd92:	0f b7 c0             	movzwl %ax,%eax
    fd95:	8b 55 fc             	mov    -0x4(%rbp),%edx
    fd98:	48 8d 35 d2 35 00 00 	lea    0x35d2(%rip),%rsi        # 13371 <g_332+0x1311>
    fd9f:	48 89 c7             	mov    %rax,%rdi
    fda2:	e8 4c 79 ff ff       	callq  76f3 <transparent_crc>
    fda7:	83 7d fc 00          	cmpl   $0x0,-0x4(%rbp)
    fdab:	74 16                	je     fdc3 <main+0x2ff>
    fdad:	8b 45 f0             	mov    -0x10(%rbp),%eax
    fdb0:	89 c6                	mov    %eax,%esi
    fdb2:	48 8d 3d 50 35 00 00 	lea    0x3550(%rip),%rdi        # 13309 <g_332+0x12a9>
    fdb9:	b8 00 00 00 00       	mov    $0x0,%eax
    fdbe:	e8 bd 62 ff ff       	callq  6080 <printf@plt>
    fdc3:	83 45 f0 01          	addl   $0x1,-0x10(%rbp)
    fdc7:	83 7d f0 00          	cmpl   $0x0,-0x10(%rbp)
    fdcb:	7e b1                	jle    fd7e <main+0x2ba>
    fdcd:	0f b6 05 46 73 00 00 	movzbl 0x7346(%rip),%eax        # 1711a <g_85>
    fdd4:	48 0f be c0          	movsbq %al,%rax
    fdd8:	8b 55 fc             	mov    -0x4(%rbp),%edx
    fddb:	48 8d 35 97 35 00 00 	lea    0x3597(%rip),%rsi        # 13379 <g_332+0x1319>
    fde2:	48 89 c7             	mov    %rax,%rdi
    fde5:	e8 09 79 ff ff       	callq  76f3 <transparent_crc>
    fdea:	8b 05 2c 73 00 00    	mov    0x732c(%rip),%eax        # 1711c <g_92>
    fdf0:	48 98                	cltq   
    fdf2:	8b 55 fc             	mov    -0x4(%rbp),%edx
    fdf5:	48 8d 35 82 35 00 00 	lea    0x3582(%rip),%rsi        # 1337e <g_332+0x131e>
    fdfc:	48 89 c7             	mov    %rax,%rdi
    fdff:	e8 ef 78 ff ff       	callq  76f3 <transparent_crc>
    fe04:	c7 45 f0 00 00 00 00 	movl   $0x0,-0x10(%rbp)
    fe0b:	eb 6a                	jmp    fe77 <main+0x3b3>
    fe0d:	c7 45 f4 00 00 00 00 	movl   $0x0,-0xc(%rbp)
    fe14:	eb 57                	jmp    fe6d <main+0x3a9>
    fe16:	8b 45 f4             	mov    -0xc(%rbp),%eax
    fe19:	48 98                	cltq   
    fe1b:	8b 55 f0             	mov    -0x10(%rbp),%edx
    fe1e:	48 63 d2             	movslq %edx,%rdx
    fe21:	48 c1 e2 03          	shl    $0x3,%rdx
    fe25:	48 01 c2             	add    %rax,%rdx
    fe28:	48 8d 05 f1 72 00 00 	lea    0x72f1(%rip),%rax        # 17120 <g_114>
    fe2f:	48 01 d0             	add    %rdx,%rax
    fe32:	0f b6 00             	movzbl (%rax),%eax
    fe35:	0f b6 c0             	movzbl %al,%eax
    fe38:	8b 55 fc             	mov    -0x4(%rbp),%edx
    fe3b:	48 8d 35 41 35 00 00 	lea    0x3541(%rip),%rsi        # 13383 <g_332+0x1323>
    fe42:	48 89 c7             	mov    %rax,%rdi
    fe45:	e8 a9 78 ff ff       	callq  76f3 <transparent_crc>
    fe4a:	83 7d fc 00          	cmpl   $0x0,-0x4(%rbp)
    fe4e:	74 19                	je     fe69 <main+0x3a5>
    fe50:	8b 55 f4             	mov    -0xc(%rbp),%edx
    fe53:	8b 45 f0             	mov    -0x10(%rbp),%eax
    fe56:	89 c6                	mov    %eax,%esi
    fe58:	48 8d 3d 30 35 00 00 	lea    0x3530(%rip),%rdi        # 1338f <g_332+0x132f>
    fe5f:	b8 00 00 00 00       	mov    $0x0,%eax
    fe64:	e8 17 62 ff ff       	callq  6080 <printf@plt>
    fe69:	83 45 f4 01          	addl   $0x1,-0xc(%rbp)
    fe6d:	83 7d f4 07          	cmpl   $0x7,-0xc(%rbp)
    fe71:	7e a3                	jle    fe16 <main+0x352>
    fe73:	83 45 f0 01          	addl   $0x1,-0x10(%rbp)
    fe77:	83 7d f0 09          	cmpl   $0x9,-0x10(%rbp)
    fe7b:	7e 90                	jle    fe0d <main+0x349>
    fe7d:	0f b7 05 ec 72 00 00 	movzwl 0x72ec(%rip),%eax        # 17170 <g_115>
    fe84:	0f b7 c0             	movzwl %ax,%eax
    fe87:	8b 55 fc             	mov    -0x4(%rbp),%edx
    fe8a:	48 8d 35 10 35 00 00 	lea    0x3510(%rip),%rsi        # 133a1 <g_332+0x1341>
    fe91:	48 89 c7             	mov    %rax,%rdi
    fe94:	e8 5a 78 ff ff       	callq  76f3 <transparent_crc>
    fe99:	48 8b 05 d8 72 00 00 	mov    0x72d8(%rip),%rax        # 17178 <g_116>
    fea0:	48 89 c1             	mov    %rax,%rcx
    fea3:	8b 45 fc             	mov    -0x4(%rbp),%eax
    fea6:	89 c2                	mov    %eax,%edx
    fea8:	48 8d 35 f8 34 00 00 	lea    0x34f8(%rip),%rsi        # 133a7 <g_332+0x1347>
    feaf:	48 89 cf             	mov    %rcx,%rdi
    feb2:	e8 3c 78 ff ff       	callq  76f3 <transparent_crc>
    feb7:	c7 45 f0 00 00 00 00 	movl   $0x0,-0x10(%rbp)
    febe:	eb 4b                	jmp    ff0b <main+0x447>
    fec0:	8b 45 f0             	mov    -0x10(%rbp),%eax
    fec3:	48 98                	cltq   
    fec5:	48 8d 14 85 00 00 00 	lea    0x0(,%rax,4),%rdx
    fecc:	00 
    fecd:	48 8d 05 ac 72 00 00 	lea    0x72ac(%rip),%rax        # 17180 <g_119>
    fed4:	8b 04 02             	mov    (%rdx,%rax,1),%eax
    fed7:	48 98                	cltq   
    fed9:	8b 55 fc             	mov    -0x4(%rbp),%edx
    fedc:	48 8d 35 ca 34 00 00 	lea    0x34ca(%rip),%rsi        # 133ad <g_332+0x134d>
    fee3:	48 89 c7             	mov    %rax,%rdi
    fee6:	e8 08 78 ff ff       	callq  76f3 <transparent_crc>
    feeb:	83 7d fc 00          	cmpl   $0x0,-0x4(%rbp)
    feef:	74 16                	je     ff07 <main+0x443>
    fef1:	8b 45 f0             	mov    -0x10(%rbp),%eax
    fef4:	89 c6                	mov    %eax,%esi
    fef6:	48 8d 3d 0c 34 00 00 	lea    0x340c(%rip),%rdi        # 13309 <g_332+0x12a9>
    fefd:	b8 00 00 00 00       	mov    $0x0,%eax
    ff02:	e8 79 61 ff ff       	callq  6080 <printf@plt>
    ff07:	83 45 f0 01          	addl   $0x1,-0x10(%rbp)
    ff0b:	83 7d f0 01          	cmpl   $0x1,-0x10(%rbp)
    ff0f:	7e af                	jle    fec0 <main+0x3fc>
    ff11:	8b 05 71 72 00 00    	mov    0x7271(%rip),%eax        # 17188 <g_171>
    ff17:	89 c1                	mov    %eax,%ecx
    ff19:	8b 45 fc             	mov    -0x4(%rbp),%eax
    ff1c:	89 c2                	mov    %eax,%edx
    ff1e:	48 8d 35 91 34 00 00 	lea    0x3491(%rip),%rsi        # 133b6 <g_332+0x1356>
    ff25:	48 89 cf             	mov    %rcx,%rdi
    ff28:	e8 c6 77 ff ff       	callq  76f3 <transparent_crc>
    ff2d:	0f b6 05 58 72 00 00 	movzbl 0x7258(%rip),%eax        # 1718c <g_172>
    ff34:	48 0f be c0          	movsbq %al,%rax
    ff38:	8b 55 fc             	mov    -0x4(%rbp),%edx
    ff3b:	48 8d 35 7a 34 00 00 	lea    0x347a(%rip),%rsi        # 133bc <g_332+0x135c>
    ff42:	48 89 c7             	mov    %rax,%rdi
    ff45:	e8 a9 77 ff ff       	callq  76f3 <transparent_crc>
    ff4a:	0f b7 05 3d 72 00 00 	movzwl 0x723d(%rip),%eax        # 1718e <g_193>
    ff51:	48 0f bf c0          	movswq %ax,%rax
    ff55:	8b 55 fc             	mov    -0x4(%rbp),%edx
    ff58:	48 8d 35 63 34 00 00 	lea    0x3463(%rip),%rsi        # 133c2 <g_332+0x1362>
    ff5f:	48 89 c7             	mov    %rax,%rdi
    ff62:	e8 8c 77 ff ff       	callq  76f3 <transparent_crc>
    ff67:	c7 45 f0 00 00 00 00 	movl   $0x0,-0x10(%rbp)
    ff6e:	e9 b0 00 00 00       	jmpq   10023 <main+0x55f>
    ff73:	c7 45 f4 00 00 00 00 	movl   $0x0,-0xc(%rbp)
    ff7a:	e9 96 00 00 00       	jmpq   10015 <main+0x551>
    ff7f:	c7 45 f8 00 00 00 00 	movl   $0x0,-0x8(%rbp)
    ff86:	eb 7f                	jmp    10007 <main+0x543>
    ff88:	8b 45 f8             	mov    -0x8(%rbp),%eax
    ff8b:	48 63 f0             	movslq %eax,%rsi
    ff8e:	8b 45 f0             	mov    -0x10(%rbp),%eax
    ff91:	48 98                	cltq   
    ff93:	8b 55 f4             	mov    -0xc(%rbp),%edx
    ff96:	48 63 ca             	movslq %edx,%rcx
    ff99:	48 89 c2             	mov    %rax,%rdx
    ff9c:	48 c1 e2 04          	shl    $0x4,%rdx
    ffa0:	48 29 c2             	sub    %rax,%rdx
    ffa3:	48 8d 04 12          	lea    (%rdx,%rdx,1),%rax
    ffa7:	48 89 c2             	mov    %rax,%rdx
    ffaa:	48 89 c8             	mov    %rcx,%rax
    ffad:	48 c1 e0 02          	shl    $0x2,%rax
    ffb1:	48 01 c8             	add    %rcx,%rax
    ffb4:	48 01 c0             	add    %rax,%rax
    ffb7:	48 01 d0             	add    %rdx,%rax
    ffba:	48 01 f0             	add    %rsi,%rax
    ffbd:	48 8d 14 00          	lea    (%rax,%rax,1),%rdx
    ffc1:	48 8d 05 d8 71 00 00 	lea    0x71d8(%rip),%rax        # 171a0 <g_194>
    ffc8:	0f b7 04 02          	movzwl (%rdx,%rax,1),%eax
    ffcc:	0f b7 c0             	movzwl %ax,%eax
    ffcf:	8b 55 fc             	mov    -0x4(%rbp),%edx
    ffd2:	48 8d 35 ef 33 00 00 	lea    0x33ef(%rip),%rsi        # 133c8 <g_332+0x1368>
    ffd9:	48 89 c7             	mov    %rax,%rdi
    ffdc:	e8 12 77 ff ff       	callq  76f3 <transparent_crc>
    ffe1:	83 7d fc 00          	cmpl   $0x0,-0x4(%rbp)
    ffe5:	74 1c                	je     10003 <main+0x53f>
    ffe7:	8b 4d f8             	mov    -0x8(%rbp),%ecx
    ffea:	8b 55 f4             	mov    -0xc(%rbp),%edx
    ffed:	8b 45 f0             	mov    -0x10(%rbp),%eax
    fff0:	89 c6                	mov    %eax,%esi
    fff2:	48 8d 3d de 33 00 00 	lea    0x33de(%rip),%rdi        # 133d7 <g_332+0x1377>
    fff9:	b8 00 00 00 00       	mov    $0x0,%eax
    fffe:	e8 7d 60 ff ff       	callq  6080 <printf@plt>
   10003:	83 45 f8 01          	addl   $0x1,-0x8(%rbp)
   10007:	83 7d f8 09          	cmpl   $0x9,-0x8(%rbp)
   1000b:	0f 8e 77 ff ff ff    	jle    ff88 <main+0x4c4>
   10011:	83 45 f4 01          	addl   $0x1,-0xc(%rbp)
   10015:	83 7d f4 02          	cmpl   $0x2,-0xc(%rbp)
   10019:	0f 8e 60 ff ff ff    	jle    ff7f <main+0x4bb>
   1001f:	83 45 f0 01          	addl   $0x1,-0x10(%rbp)
   10023:	83 7d f0 04          	cmpl   $0x4,-0x10(%rbp)
   10027:	0f 8e 46 ff ff ff    	jle    ff73 <main+0x4af>
   1002d:	c7 45 f0 00 00 00 00 	movl   $0x0,-0x10(%rbp)
   10034:	e9 a5 00 00 00       	jmpq   100de <main+0x61a>
   10039:	c7 45 f4 00 00 00 00 	movl   $0x0,-0xc(%rbp)
   10040:	e9 8b 00 00 00       	jmpq   100d0 <main+0x60c>
   10045:	c7 45 f8 00 00 00 00 	movl   $0x0,-0x8(%rbp)
   1004c:	eb 78                	jmp    100c6 <main+0x602>
   1004e:	8b 45 f8             	mov    -0x8(%rbp),%eax
   10051:	48 63 f0             	movslq %eax,%rsi
   10054:	8b 45 f0             	mov    -0x10(%rbp),%eax
   10057:	48 63 d0             	movslq %eax,%rdx
   1005a:	8b 45 f4             	mov    -0xc(%rbp),%eax
   1005d:	48 63 c8             	movslq %eax,%rcx
   10060:	48 89 d0             	mov    %rdx,%rax
   10063:	48 01 c0             	add    %rax,%rax
   10066:	48 01 d0             	add    %rdx,%rax
   10069:	48 c1 e0 02          	shl    $0x2,%rax
   1006d:	48 89 ca             	mov    %rcx,%rdx
   10070:	48 01 d2             	add    %rdx,%rdx
   10073:	48 01 ca             	add    %rcx,%rdx
   10076:	48 01 d0             	add    %rdx,%rax
   10079:	48 01 f0             	add    %rsi,%rax
   1007c:	48 8d 14 00          	lea    (%rax,%rax,1),%rdx
   10080:	48 8d 05 49 72 00 00 	lea    0x7249(%rip),%rax        # 172d0 <g_307>
   10087:	0f b7 04 02          	movzwl (%rdx,%rax,1),%eax
   1008b:	0f b7 c0             	movzwl %ax,%eax
   1008e:	8b 55 fc             	mov    -0x4(%rbp),%edx
   10091:	48 8d 35 55 33 00 00 	lea    0x3355(%rip),%rsi        # 133ed <g_332+0x138d>
   10098:	48 89 c7             	mov    %rax,%rdi
   1009b:	e8 53 76 ff ff       	callq  76f3 <transparent_crc>
   100a0:	83 7d fc 00          	cmpl   $0x0,-0x4(%rbp)
   100a4:	74 1c                	je     100c2 <main+0x5fe>
   100a6:	8b 4d f8             	mov    -0x8(%rbp),%ecx
   100a9:	8b 55 f4             	mov    -0xc(%rbp),%edx
   100ac:	8b 45 f0             	mov    -0x10(%rbp),%eax
   100af:	89 c6                	mov    %eax,%esi
   100b1:	48 8d 3d 1f 33 00 00 	lea    0x331f(%rip),%rdi        # 133d7 <g_332+0x1377>
   100b8:	b8 00 00 00 00       	mov    $0x0,%eax
   100bd:	e8 be 5f ff ff       	callq  6080 <printf@plt>
   100c2:	83 45 f8 01          	addl   $0x1,-0x8(%rbp)
   100c6:	83 7d f8 02          	cmpl   $0x2,-0x8(%rbp)
   100ca:	7e 82                	jle    1004e <main+0x58a>
   100cc:	83 45 f4 01          	addl   $0x1,-0xc(%rbp)
   100d0:	83 7d f4 03          	cmpl   $0x3,-0xc(%rbp)
   100d4:	0f 8e 6b ff ff ff    	jle    10045 <main+0x581>
   100da:	83 45 f0 01          	addl   $0x1,-0x10(%rbp)
   100de:	83 7d f0 00          	cmpl   $0x0,-0x10(%rbp)
   100e2:	0f 8e 51 ff ff ff    	jle    10039 <main+0x575>
   100e8:	c7 45 f0 00 00 00 00 	movl   $0x0,-0x10(%rbp)
   100ef:	e9 9d 00 00 00       	jmpq   10191 <main+0x6cd>
   100f4:	c7 45 f4 00 00 00 00 	movl   $0x0,-0xc(%rbp)
   100fb:	e9 83 00 00 00       	jmpq   10183 <main+0x6bf>
   10100:	c7 45 f8 00 00 00 00 	movl   $0x0,-0x8(%rbp)
   10107:	eb 70                	jmp    10179 <main+0x6b5>
   10109:	8b 45 f8             	mov    -0x8(%rbp),%eax
   1010c:	48 63 c8             	movslq %eax,%rcx
   1010f:	8b 45 f0             	mov    -0x10(%rbp),%eax
   10112:	48 98                	cltq   
   10114:	8b 55 f4             	mov    -0xc(%rbp),%edx
   10117:	48 63 d2             	movslq %edx,%rdx
   1011a:	48 6b f0 46          	imul   $0x46,%rax,%rsi
   1011e:	48 89 d0             	mov    %rdx,%rax
   10121:	48 c1 e0 03          	shl    $0x3,%rax
   10125:	48 29 d0             	sub    %rdx,%rax
   10128:	48 01 f0             	add    %rsi,%rax
   1012b:	48 01 c8             	add    %rcx,%rax
   1012e:	48 8d 14 00          	lea    (%rax,%rax,1),%rdx
   10132:	48 8d 05 c7 71 00 00 	lea    0x71c7(%rip),%rax        # 17300 <g_312>
   10139:	0f b7 04 02          	movzwl (%rdx,%rax,1),%eax
   1013d:	48 0f bf c0          	movswq %ax,%rax
   10141:	8b 55 fc             	mov    -0x4(%rbp),%edx
   10144:	48 8d 35 b1 32 00 00 	lea    0x32b1(%rip),%rsi        # 133fc <g_332+0x139c>
   1014b:	48 89 c7             	mov    %rax,%rdi
   1014e:	e8 a0 75 ff ff       	callq  76f3 <transparent_crc>
   10153:	83 7d fc 00          	cmpl   $0x0,-0x4(%rbp)
   10157:	74 1c                	je     10175 <main+0x6b1>
   10159:	8b 4d f8             	mov    -0x8(%rbp),%ecx
   1015c:	8b 55 f4             	mov    -0xc(%rbp),%edx
   1015f:	8b 45 f0             	mov    -0x10(%rbp),%eax
   10162:	89 c6                	mov    %eax,%esi
   10164:	48 8d 3d 6c 32 00 00 	lea    0x326c(%rip),%rdi        # 133d7 <g_332+0x1377>
   1016b:	b8 00 00 00 00       	mov    $0x0,%eax
   10170:	e8 0b 5f ff ff       	callq  6080 <printf@plt>
   10175:	83 45 f8 01          	addl   $0x1,-0x8(%rbp)
   10179:	83 7d f8 06          	cmpl   $0x6,-0x8(%rbp)
   1017d:	7e 8a                	jle    10109 <main+0x645>
   1017f:	83 45 f4 01          	addl   $0x1,-0xc(%rbp)
   10183:	83 7d f4 09          	cmpl   $0x9,-0xc(%rbp)
   10187:	0f 8e 73 ff ff ff    	jle    10100 <main+0x63c>
   1018d:	83 45 f0 01          	addl   $0x1,-0x10(%rbp)
   10191:	83 7d f0 00          	cmpl   $0x0,-0x10(%rbp)
   10195:	0f 8e 59 ff ff ff    	jle    100f4 <main+0x630>
   1019b:	8b 05 eb 71 00 00    	mov    0x71eb(%rip),%eax        # 1738c <g_313>
   101a1:	89 c1                	mov    %eax,%ecx
   101a3:	8b 45 fc             	mov    -0x4(%rbp),%eax
   101a6:	89 c2                	mov    %eax,%edx
   101a8:	48 8d 35 5c 32 00 00 	lea    0x325c(%rip),%rsi        # 1340b <g_332+0x13ab>
   101af:	48 89 cf             	mov    %rcx,%rdi
   101b2:	e8 3c 75 ff ff       	callq  76f3 <transparent_crc>
   101b7:	b8 ff ff ff ff       	mov    $0xffffffff,%eax
   101bc:	48 98                	cltq   
   101be:	8b 55 fc             	mov    -0x4(%rbp),%edx
   101c1:	48 8d 35 49 32 00 00 	lea    0x3249(%rip),%rsi        # 13411 <g_332+0x13b1>
   101c8:	48 89 c7             	mov    %rax,%rdi
   101cb:	e8 23 75 ff ff       	callq  76f3 <transparent_crc>
   101d0:	0f b6 05 b9 71 00 00 	movzbl 0x71b9(%rip),%eax        # 17390 <g_370>
   101d7:	48 0f be c0          	movsbq %al,%rax
   101db:	8b 55 fc             	mov    -0x4(%rbp),%edx
   101de:	48 8d 35 32 32 00 00 	lea    0x3232(%rip),%rsi        # 13417 <g_332+0x13b7>
   101e5:	48 89 c7             	mov    %rax,%rdi
   101e8:	e8 06 75 ff ff       	callq  76f3 <transparent_crc>
   101ed:	48 8b 05 a4 71 00 00 	mov    0x71a4(%rip),%rax        # 17398 <g_370+0x8>
   101f4:	8b 55 fc             	mov    -0x4(%rbp),%edx
   101f7:	48 8d 35 22 32 00 00 	lea    0x3222(%rip),%rsi        # 13420 <g_332+0x13c0>
   101fe:	48 89 c7             	mov    %rax,%rdi
   10201:	e8 ed 74 ff ff       	callq  76f3 <transparent_crc>
   10206:	0f b7 05 93 71 00 00 	movzwl 0x7193(%rip),%eax        # 173a0 <g_370+0x10>
   1020d:	66 25 ff 07          	and    $0x7ff,%ax
   10211:	0f b7 c0             	movzwl %ax,%eax
   10214:	8b 55 fc             	mov    -0x4(%rbp),%edx
   10217:	48 8d 35 0b 32 00 00 	lea    0x320b(%rip),%rsi        # 13429 <g_332+0x13c9>
   1021e:	48 89 c7             	mov    %rax,%rdi
   10221:	e8 cd 74 ff ff       	callq  76f3 <transparent_crc>
   10226:	8b 05 7c 71 00 00    	mov    0x717c(%rip),%eax        # 173a8 <g_433>
   1022c:	48 98                	cltq   
   1022e:	8b 55 fc             	mov    -0x4(%rbp),%edx
   10231:	48 8d 35 fa 31 00 00 	lea    0x31fa(%rip),%rsi        # 13432 <g_332+0x13d2>
   10238:	48 89 c7             	mov    %rax,%rdi
   1023b:	e8 b3 74 ff ff       	callq  76f3 <transparent_crc>
   10240:	8b 05 66 71 00 00    	mov    0x7166(%rip),%eax        # 173ac <g_434>
   10246:	48 98                	cltq   
   10248:	8b 55 fc             	mov    -0x4(%rbp),%edx
   1024b:	48 8d 35 e6 31 00 00 	lea    0x31e6(%rip),%rsi        # 13438 <g_332+0x13d8>
   10252:	48 89 c7             	mov    %rax,%rdi
   10255:	e8 99 74 ff ff       	callq  76f3 <transparent_crc>
   1025a:	0f b6 05 4f 71 00 00 	movzbl 0x714f(%rip),%eax        # 173b0 <g_441>
   10261:	48 0f be c0          	movsbq %al,%rax
   10265:	8b 55 fc             	mov    -0x4(%rbp),%edx
   10268:	48 8d 35 cf 31 00 00 	lea    0x31cf(%rip),%rsi        # 1343e <g_332+0x13de>
   1026f:	48 89 c7             	mov    %rax,%rdi
   10272:	e8 7c 74 ff ff       	callq  76f3 <transparent_crc>
   10277:	48 8b 05 3a 71 00 00 	mov    0x713a(%rip),%rax        # 173b8 <g_441+0x8>
   1027e:	8b 55 fc             	mov    -0x4(%rbp),%edx
   10281:	48 8d 35 bf 31 00 00 	lea    0x31bf(%rip),%rsi        # 13447 <g_332+0x13e7>
   10288:	48 89 c7             	mov    %rax,%rdi
   1028b:	e8 63 74 ff ff       	callq  76f3 <transparent_crc>
   10290:	48 8b 05 29 71 00 00 	mov    0x7129(%rip),%rax        # 173c0 <g_441+0x10>
   10297:	66 25 ff 07          	and    $0x7ff,%ax
   1029b:	0f b7 c0             	movzwl %ax,%eax
   1029e:	8b 55 fc             	mov    -0x4(%rbp),%edx
   102a1:	48 8d 35 a8 31 00 00 	lea    0x31a8(%rip),%rsi        # 13450 <g_332+0x13f0>
   102a8:	48 89 c7             	mov    %rax,%rdi
   102ab:	e8 43 74 ff ff       	callq  76f3 <transparent_crc>
   102b0:	8b 05 12 71 00 00    	mov    0x7112(%rip),%eax        # 173c8 <g_499>
   102b6:	89 c1                	mov    %eax,%ecx
   102b8:	8b 45 fc             	mov    -0x4(%rbp),%eax
   102bb:	89 c2                	mov    %eax,%edx
   102bd:	48 8d 35 95 31 00 00 	lea    0x3195(%rip),%rsi        # 13459 <g_332+0x13f9>
   102c4:	48 89 cf             	mov    %rcx,%rdi
   102c7:	e8 27 74 ff ff       	callq  76f3 <transparent_crc>
   102cc:	0f b6 05 f9 70 00 00 	movzbl 0x70f9(%rip),%eax        # 173cc <g_543>
   102d3:	48 0f be c0          	movsbq %al,%rax
   102d7:	8b 55 fc             	mov    -0x4(%rbp),%edx
   102da:	48 8d 35 7e 31 00 00 	lea    0x317e(%rip),%rsi        # 1345f <g_332+0x13ff>
   102e1:	48 89 c7             	mov    %rax,%rdi
   102e4:	e8 0a 74 ff ff       	callq  76f3 <transparent_crc>
   102e9:	0f b7 05 de 70 00 00 	movzwl 0x70de(%rip),%eax        # 173ce <g_545>
   102f0:	0f b7 c0             	movzwl %ax,%eax
   102f3:	8b 55 fc             	mov    -0x4(%rbp),%edx
   102f6:	48 8d 35 68 31 00 00 	lea    0x3168(%rip),%rsi        # 13465 <g_332+0x1405>
   102fd:	48 89 c7             	mov    %rax,%rdi
   10300:	e8 ee 73 ff ff       	callq  76f3 <transparent_crc>
   10305:	0f b7 05 c4 70 00 00 	movzwl 0x70c4(%rip),%eax        # 173d0 <g_558>
   1030c:	0f b7 c0             	movzwl %ax,%eax
   1030f:	8b 55 fc             	mov    -0x4(%rbp),%edx
   10312:	48 8d 35 52 31 00 00 	lea    0x3152(%rip),%rsi        # 1346b <g_332+0x140b>
   10319:	48 89 c7             	mov    %rax,%rdi
   1031c:	e8 d2 73 ff ff       	callq  76f3 <transparent_crc>
   10321:	8b 05 ad 70 00 00    	mov    0x70ad(%rip),%eax        # 173d4 <g_602>
   10327:	89 c1                	mov    %eax,%ecx
   10329:	8b 45 fc             	mov    -0x4(%rbp),%eax
   1032c:	89 c2                	mov    %eax,%edx
   1032e:	48 8d 35 3c 31 00 00 	lea    0x313c(%rip),%rsi        # 13471 <g_332+0x1411>
   10335:	48 89 cf             	mov    %rcx,%rdi
   10338:	e8 b6 73 ff ff       	callq  76f3 <transparent_crc>
   1033d:	c7 45 f0 00 00 00 00 	movl   $0x0,-0x10(%rbp)
   10344:	e9 c4 00 00 00       	jmpq   1040d <main+0x949>
   10349:	8b 45 f0             	mov    -0x10(%rbp),%eax
   1034c:	48 63 d0             	movslq %eax,%rdx
   1034f:	48 89 d0             	mov    %rdx,%rax
   10352:	48 01 c0             	add    %rax,%rax
   10355:	48 01 d0             	add    %rdx,%rax
   10358:	48 c1 e0 03          	shl    $0x3,%rax
   1035c:	48 89 c2             	mov    %rax,%rdx
   1035f:	48 8d 05 7a 70 00 00 	lea    0x707a(%rip),%rax        # 173e0 <g_638>
   10366:	0f b6 04 02          	movzbl (%rdx,%rax,1),%eax
   1036a:	48 0f be c0          	movsbq %al,%rax
   1036e:	8b 55 fc             	mov    -0x4(%rbp),%edx
   10371:	48 8d 35 ff 30 00 00 	lea    0x30ff(%rip),%rsi        # 13477 <g_332+0x1417>
   10378:	48 89 c7             	mov    %rax,%rdi
   1037b:	e8 73 73 ff ff       	callq  76f3 <transparent_crc>
   10380:	8b 45 f0             	mov    -0x10(%rbp),%eax
   10383:	48 63 d0             	movslq %eax,%rdx
   10386:	48 89 d0             	mov    %rdx,%rax
   10389:	48 01 c0             	add    %rax,%rax
   1038c:	48 01 d0             	add    %rdx,%rax
   1038f:	48 c1 e0 03          	shl    $0x3,%rax
   10393:	48 89 c2             	mov    %rax,%rdx
   10396:	48 8d 05 4b 70 00 00 	lea    0x704b(%rip),%rax        # 173e8 <g_638+0x8>
   1039d:	48 8b 04 02          	mov    (%rdx,%rax,1),%rax
   103a1:	8b 55 fc             	mov    -0x4(%rbp),%edx
   103a4:	48 8d 35 d8 30 00 00 	lea    0x30d8(%rip),%rsi        # 13483 <g_332+0x1423>
   103ab:	48 89 c7             	mov    %rax,%rdi
   103ae:	e8 40 73 ff ff       	callq  76f3 <transparent_crc>
   103b3:	8b 45 f0             	mov    -0x10(%rbp),%eax
   103b6:	48 63 d0             	movslq %eax,%rdx
   103b9:	48 89 d0             	mov    %rdx,%rax
   103bc:	48 01 c0             	add    %rax,%rax
   103bf:	48 01 d0             	add    %rdx,%rax
   103c2:	48 c1 e0 03          	shl    $0x3,%rax
   103c6:	48 89 c2             	mov    %rax,%rdx
   103c9:	48 8d 05 20 70 00 00 	lea    0x7020(%rip),%rax        # 173f0 <g_638+0x10>
   103d0:	0f b7 04 02          	movzwl (%rdx,%rax,1),%eax
   103d4:	66 25 ff 07          	and    $0x7ff,%ax
   103d8:	0f b7 c0             	movzwl %ax,%eax
   103db:	8b 55 fc             	mov    -0x4(%rbp),%edx
   103de:	48 8d 35 aa 30 00 00 	lea    0x30aa(%rip),%rsi        # 1348f <g_332+0x142f>
   103e5:	48 89 c7             	mov    %rax,%rdi
   103e8:	e8 06 73 ff ff       	callq  76f3 <transparent_crc>
   103ed:	83 7d fc 00          	cmpl   $0x0,-0x4(%rbp)
   103f1:	74 16                	je     10409 <main+0x945>
   103f3:	8b 45 f0             	mov    -0x10(%rbp),%eax
   103f6:	89 c6                	mov    %eax,%esi
   103f8:	48 8d 3d 0a 2f 00 00 	lea    0x2f0a(%rip),%rdi        # 13309 <g_332+0x12a9>
   103ff:	b8 00 00 00 00       	mov    $0x0,%eax
   10404:	e8 77 5c ff ff       	callq  6080 <printf@plt>
   10409:	83 45 f0 01          	addl   $0x1,-0x10(%rbp)
   1040d:	83 7d f0 00          	cmpl   $0x0,-0x10(%rbp)
   10411:	0f 8e 32 ff ff ff    	jle    10349 <main+0x885>
   10417:	c7 45 f0 00 00 00 00 	movl   $0x0,-0x10(%rbp)
   1041e:	e9 8c 00 00 00       	jmpq   104af <main+0x9eb>
   10423:	c7 45 f4 00 00 00 00 	movl   $0x0,-0xc(%rbp)
   1042a:	eb 79                	jmp    104a5 <main+0x9e1>
   1042c:	c7 45 f8 00 00 00 00 	movl   $0x0,-0x8(%rbp)
   10433:	eb 66                	jmp    1049b <main+0x9d7>
   10435:	8b 45 f8             	mov    -0x8(%rbp),%eax
   10438:	48 98                	cltq   
   1043a:	8b 55 f0             	mov    -0x10(%rbp),%edx
   1043d:	48 63 ca             	movslq %edx,%rcx
   10440:	8b 55 f4             	mov    -0xc(%rbp),%edx
   10443:	48 63 d2             	movslq %edx,%rdx
   10446:	48 01 ca             	add    %rcx,%rdx
   10449:	48 c1 e2 02          	shl    $0x2,%rdx
   1044d:	48 01 d0             	add    %rdx,%rax
   10450:	48 8d 14 00          	lea    (%rax,%rax,1),%rdx
   10454:	48 8d 05 a5 6f 00 00 	lea    0x6fa5(%rip),%rax        # 17400 <g_639>
   1045b:	0f b7 04 02          	movzwl (%rdx,%rax,1),%eax
   1045f:	48 0f bf c0          	movswq %ax,%rax
   10463:	8b 55 fc             	mov    -0x4(%rbp),%edx
   10466:	48 8d 35 2e 30 00 00 	lea    0x302e(%rip),%rsi        # 1349b <g_332+0x143b>
   1046d:	48 89 c7             	mov    %rax,%rdi
   10470:	e8 7e 72 ff ff       	callq  76f3 <transparent_crc>
   10475:	83 7d fc 00          	cmpl   $0x0,-0x4(%rbp)
   10479:	74 1c                	je     10497 <main+0x9d3>
   1047b:	8b 4d f8             	mov    -0x8(%rbp),%ecx
   1047e:	8b 55 f4             	mov    -0xc(%rbp),%edx
   10481:	8b 45 f0             	mov    -0x10(%rbp),%eax
   10484:	89 c6                	mov    %eax,%esi
   10486:	48 8d 3d 4a 2f 00 00 	lea    0x2f4a(%rip),%rdi        # 133d7 <g_332+0x1377>
   1048d:	b8 00 00 00 00       	mov    $0x0,%eax
   10492:	e8 e9 5b ff ff       	callq  6080 <printf@plt>
   10497:	83 45 f8 01          	addl   $0x1,-0x8(%rbp)
   1049b:	83 7d f8 03          	cmpl   $0x3,-0x8(%rbp)
   1049f:	7e 94                	jle    10435 <main+0x971>
   104a1:	83 45 f4 01          	addl   $0x1,-0xc(%rbp)
   104a5:	83 7d f4 00          	cmpl   $0x0,-0xc(%rbp)
   104a9:	7e 81                	jle    1042c <main+0x968>
   104ab:	83 45 f0 01          	addl   $0x1,-0x10(%rbp)
   104af:	83 7d f0 04          	cmpl   $0x4,-0x10(%rbp)
   104b3:	0f 8e 6a ff ff ff    	jle    10423 <main+0x95f>
   104b9:	c7 45 f0 00 00 00 00 	movl   $0x0,-0x10(%rbp)
   104c0:	eb 79                	jmp    1053b <main+0xa77>
   104c2:	c7 45 f4 00 00 00 00 	movl   $0x0,-0xc(%rbp)
   104c9:	eb 66                	jmp    10531 <main+0xa6d>
   104cb:	8b 45 f4             	mov    -0xc(%rbp),%eax
   104ce:	48 63 c8             	movslq %eax,%rcx
   104d1:	8b 45 f0             	mov    -0x10(%rbp),%eax
   104d4:	48 63 d0             	movslq %eax,%rdx
   104d7:	48 89 d0             	mov    %rdx,%rax
   104da:	48 c1 e0 03          	shl    $0x3,%rax
   104de:	48 29 d0             	sub    %rdx,%rax
   104e1:	48 01 c8             	add    %rcx,%rax
   104e4:	48 8d 14 c5 00 00 00 	lea    0x0(,%rax,8),%rdx
   104eb:	00 
   104ec:	48 8d 05 4d 6f 00 00 	lea    0x6f4d(%rip),%rax        # 17440 <g_712>
   104f3:	48 8b 04 02          	mov    (%rdx,%rax,1),%rax
   104f7:	48 89 c1             	mov    %rax,%rcx
   104fa:	8b 45 fc             	mov    -0x4(%rbp),%eax
   104fd:	89 c2                	mov    %eax,%edx
   104ff:	48 8d 35 a4 2f 00 00 	lea    0x2fa4(%rip),%rsi        # 134aa <g_332+0x144a>
   10506:	48 89 cf             	mov    %rcx,%rdi
   10509:	e8 e5 71 ff ff       	callq  76f3 <transparent_crc>
   1050e:	83 7d fc 00          	cmpl   $0x0,-0x4(%rbp)
   10512:	74 19                	je     1052d <main+0xa69>
   10514:	8b 55 f4             	mov    -0xc(%rbp),%edx
   10517:	8b 45 f0             	mov    -0x10(%rbp),%eax
   1051a:	89 c6                	mov    %eax,%esi
   1051c:	48 8d 3d 6c 2e 00 00 	lea    0x2e6c(%rip),%rdi        # 1338f <g_332+0x132f>
   10523:	b8 00 00 00 00       	mov    $0x0,%eax
   10528:	e8 53 5b ff ff       	callq  6080 <printf@plt>
   1052d:	83 45 f4 01          	addl   $0x1,-0xc(%rbp)
   10531:	83 7d f4 06          	cmpl   $0x6,-0xc(%rbp)
   10535:	7e 94                	jle    104cb <main+0xa07>
   10537:	83 45 f0 01          	addl   $0x1,-0x10(%rbp)
   1053b:	83 7d f0 04          	cmpl   $0x4,-0x10(%rbp)
   1053f:	7e 81                	jle    104c2 <main+0x9fe>
   10541:	c7 45 f0 00 00 00 00 	movl   $0x0,-0x10(%rbp)
   10548:	eb 4b                	jmp    10595 <main+0xad1>
   1054a:	8b 45 f0             	mov    -0x10(%rbp),%eax
   1054d:	48 98                	cltq   
   1054f:	48 8d 14 85 00 00 00 	lea    0x0(,%rax,4),%rdx
   10556:	00 
   10557:	48 8d 05 02 70 00 00 	lea    0x7002(%rip),%rax        # 17560 <g_736>
   1055e:	8b 04 02             	mov    (%rdx,%rax,1),%eax
   10561:	48 98                	cltq   
   10563:	8b 55 fc             	mov    -0x4(%rbp),%edx
   10566:	48 8d 35 49 2f 00 00 	lea    0x2f49(%rip),%rsi        # 134b6 <g_332+0x1456>
   1056d:	48 89 c7             	mov    %rax,%rdi
   10570:	e8 7e 71 ff ff       	callq  76f3 <transparent_crc>
   10575:	83 7d fc 00          	cmpl   $0x0,-0x4(%rbp)
   10579:	74 16                	je     10591 <main+0xacd>
   1057b:	8b 45 f0             	mov    -0x10(%rbp),%eax
   1057e:	89 c6                	mov    %eax,%esi
   10580:	48 8d 3d 82 2d 00 00 	lea    0x2d82(%rip),%rdi        # 13309 <g_332+0x12a9>
   10587:	b8 00 00 00 00       	mov    $0x0,%eax
   1058c:	e8 ef 5a ff ff       	callq  6080 <printf@plt>
   10591:	83 45 f0 01          	addl   $0x1,-0x10(%rbp)
   10595:	83 7d f0 04          	cmpl   $0x4,-0x10(%rbp)
   10599:	7e af                	jle    1054a <main+0xa86>
   1059b:	8b 05 d3 6f 00 00    	mov    0x6fd3(%rip),%eax        # 17574 <g_755>
   105a1:	89 c1                	mov    %eax,%ecx
   105a3:	8b 45 fc             	mov    -0x4(%rbp),%eax
   105a6:	89 c2                	mov    %eax,%edx
   105a8:	48 8d 35 10 2f 00 00 	lea    0x2f10(%rip),%rsi        # 134bf <g_332+0x145f>
   105af:	48 89 cf             	mov    %rcx,%rdi
   105b2:	e8 3c 71 ff ff       	callq  76f3 <transparent_crc>
   105b7:	c7 45 f0 00 00 00 00 	movl   $0x0,-0x10(%rbp)
   105be:	eb 4a                	jmp    1060a <main+0xb46>
   105c0:	8b 45 f0             	mov    -0x10(%rbp),%eax
   105c3:	48 98                	cltq   
   105c5:	48 8d 14 c5 00 00 00 	lea    0x0(,%rax,8),%rdx
   105cc:	00 
   105cd:	48 8d 05 ac 6f 00 00 	lea    0x6fac(%rip),%rax        # 17580 <g_839>
   105d4:	48 8b 04 02          	mov    (%rdx,%rax,1),%rax
   105d8:	8b 55 fc             	mov    -0x4(%rbp),%edx
   105db:	48 8d 35 e3 2e 00 00 	lea    0x2ee3(%rip),%rsi        # 134c5 <g_332+0x1465>
   105e2:	48 89 c7             	mov    %rax,%rdi
   105e5:	e8 09 71 ff ff       	callq  76f3 <transparent_crc>
   105ea:	83 7d fc 00          	cmpl   $0x0,-0x4(%rbp)
   105ee:	74 16                	je     10606 <main+0xb42>
   105f0:	8b 45 f0             	mov    -0x10(%rbp),%eax
   105f3:	89 c6                	mov    %eax,%esi
   105f5:	48 8d 3d 0d 2d 00 00 	lea    0x2d0d(%rip),%rdi        # 13309 <g_332+0x12a9>
   105fc:	b8 00 00 00 00       	mov    $0x0,%eax
   10601:	e8 7a 5a ff ff       	callq  6080 <printf@plt>
   10606:	83 45 f0 01          	addl   $0x1,-0x10(%rbp)
   1060a:	83 7d f0 05          	cmpl   $0x5,-0x10(%rbp)
   1060e:	7e b0                	jle    105c0 <main+0xafc>
   10610:	48 8b 05 99 6f 00 00 	mov    0x6f99(%rip),%rax        # 175b0 <g_840>
   10617:	8b 55 fc             	mov    -0x4(%rbp),%edx
   1061a:	48 8d 35 ad 2e 00 00 	lea    0x2ead(%rip),%rsi        # 134ce <g_332+0x146e>
   10621:	48 89 c7             	mov    %rax,%rdi
   10624:	e8 ca 70 ff ff       	callq  76f3 <transparent_crc>
   10629:	48 8b 05 88 6f 00 00 	mov    0x6f88(%rip),%rax        # 175b8 <g_841>
   10630:	8b 55 fc             	mov    -0x4(%rbp),%edx
   10633:	48 8d 35 9a 2e 00 00 	lea    0x2e9a(%rip),%rsi        # 134d4 <g_332+0x1474>
   1063a:	48 89 c7             	mov    %rax,%rdi
   1063d:	e8 b1 70 ff ff       	callq  76f3 <transparent_crc>
   10642:	48 8b 05 77 6f 00 00 	mov    0x6f77(%rip),%rax        # 175c0 <g_842>
   10649:	8b 55 fc             	mov    -0x4(%rbp),%edx
   1064c:	48 8d 35 87 2e 00 00 	lea    0x2e87(%rip),%rsi        # 134da <g_332+0x147a>
   10653:	48 89 c7             	mov    %rax,%rdi
   10656:	e8 98 70 ff ff       	callq  76f3 <transparent_crc>
   1065b:	48 8b 05 66 6f 00 00 	mov    0x6f66(%rip),%rax        # 175c8 <g_843>
   10662:	8b 55 fc             	mov    -0x4(%rbp),%edx
   10665:	48 8d 35 74 2e 00 00 	lea    0x2e74(%rip),%rsi        # 134e0 <g_332+0x1480>
   1066c:	48 89 c7             	mov    %rax,%rdi
   1066f:	e8 7f 70 ff ff       	callq  76f3 <transparent_crc>
   10674:	48 8b 05 55 6f 00 00 	mov    0x6f55(%rip),%rax        # 175d0 <g_844>
   1067b:	8b 55 fc             	mov    -0x4(%rbp),%edx
   1067e:	48 8d 35 61 2e 00 00 	lea    0x2e61(%rip),%rsi        # 134e6 <g_332+0x1486>
   10685:	48 89 c7             	mov    %rax,%rdi
   10688:	e8 66 70 ff ff       	callq  76f3 <transparent_crc>
   1068d:	48 8b 05 44 6f 00 00 	mov    0x6f44(%rip),%rax        # 175d8 <g_845>
   10694:	8b 55 fc             	mov    -0x4(%rbp),%edx
   10697:	48 8d 35 4e 2e 00 00 	lea    0x2e4e(%rip),%rsi        # 134ec <g_332+0x148c>
   1069e:	48 89 c7             	mov    %rax,%rdi
   106a1:	e8 4d 70 ff ff       	callq  76f3 <transparent_crc>
   106a6:	48 8b 05 33 6f 00 00 	mov    0x6f33(%rip),%rax        # 175e0 <g_846>
   106ad:	8b 55 fc             	mov    -0x4(%rbp),%edx
   106b0:	48 8d 35 3b 2e 00 00 	lea    0x2e3b(%rip),%rsi        # 134f2 <g_332+0x1492>
   106b7:	48 89 c7             	mov    %rax,%rdi
   106ba:	e8 34 70 ff ff       	callq  76f3 <transparent_crc>
   106bf:	48 8b 05 22 6f 00 00 	mov    0x6f22(%rip),%rax        # 175e8 <g_847>
   106c6:	8b 55 fc             	mov    -0x4(%rbp),%edx
   106c9:	48 8d 35 28 2e 00 00 	lea    0x2e28(%rip),%rsi        # 134f8 <g_332+0x1498>
   106d0:	48 89 c7             	mov    %rax,%rdi
   106d3:	e8 1b 70 ff ff       	callq  76f3 <transparent_crc>
   106d8:	48 8b 05 89 93 00 00 	mov    0x9389(%rip),%rax        # 19a68 <g_848>
   106df:	8b 55 fc             	mov    -0x4(%rbp),%edx
   106e2:	48 8d 35 15 2e 00 00 	lea    0x2e15(%rip),%rsi        # 134fe <g_332+0x149e>
   106e9:	48 89 c7             	mov    %rax,%rdi
   106ec:	e8 02 70 ff ff       	callq  76f3 <transparent_crc>
   106f1:	c7 45 f0 00 00 00 00 	movl   $0x0,-0x10(%rbp)
   106f8:	eb 4a                	jmp    10744 <main+0xc80>
   106fa:	8b 45 f0             	mov    -0x10(%rbp),%eax
   106fd:	48 98                	cltq   
   106ff:	48 8d 14 c5 00 00 00 	lea    0x0(,%rax,8),%rdx
   10706:	00 
   10707:	48 8d 05 e2 6e 00 00 	lea    0x6ee2(%rip),%rax        # 175f0 <g_849>
   1070e:	48 8b 04 02          	mov    (%rdx,%rax,1),%rax
   10712:	8b 55 fc             	mov    -0x4(%rbp),%edx
   10715:	48 8d 35 e8 2d 00 00 	lea    0x2de8(%rip),%rsi        # 13504 <g_332+0x14a4>
   1071c:	48 89 c7             	mov    %rax,%rdi
   1071f:	e8 cf 6f ff ff       	callq  76f3 <transparent_crc>
   10724:	83 7d fc 00          	cmpl   $0x0,-0x4(%rbp)
   10728:	74 16                	je     10740 <main+0xc7c>
   1072a:	8b 45 f0             	mov    -0x10(%rbp),%eax
   1072d:	89 c6                	mov    %eax,%esi
   1072f:	48 8d 3d d3 2b 00 00 	lea    0x2bd3(%rip),%rdi        # 13309 <g_332+0x12a9>
   10736:	b8 00 00 00 00       	mov    $0x0,%eax
   1073b:	e8 40 59 ff ff       	callq  6080 <printf@plt>
   10740:	83 45 f0 01          	addl   $0x1,-0x10(%rbp)
   10744:	83 7d f0 02          	cmpl   $0x2,-0x10(%rbp)
   10748:	7e b0                	jle    106fa <main+0xc36>
   1074a:	48 8b 05 b7 6e 00 00 	mov    0x6eb7(%rip),%rax        # 17608 <g_850>
   10751:	8b 55 fc             	mov    -0x4(%rbp),%edx
   10754:	48 8d 35 b2 2d 00 00 	lea    0x2db2(%rip),%rsi        # 1350d <g_332+0x14ad>
   1075b:	48 89 c7             	mov    %rax,%rdi
   1075e:	e8 90 6f ff ff       	callq  76f3 <transparent_crc>
   10763:	48 8b 05 a6 6e 00 00 	mov    0x6ea6(%rip),%rax        # 17610 <g_851>
   1076a:	8b 55 fc             	mov    -0x4(%rbp),%edx
   1076d:	48 8d 35 9f 2d 00 00 	lea    0x2d9f(%rip),%rsi        # 13513 <g_332+0x14b3>
   10774:	48 89 c7             	mov    %rax,%rdi
   10777:	e8 77 6f ff ff       	callq  76f3 <transparent_crc>
   1077c:	c7 45 f0 00 00 00 00 	movl   $0x0,-0x10(%rbp)
   10783:	eb 73                	jmp    107f8 <main+0xd34>
   10785:	c7 45 f4 00 00 00 00 	movl   $0x0,-0xc(%rbp)
   1078c:	eb 60                	jmp    107ee <main+0xd2a>
   1078e:	8b 45 f4             	mov    -0xc(%rbp),%eax
   10791:	48 63 c8             	movslq %eax,%rcx
   10794:	8b 45 f0             	mov    -0x10(%rbp),%eax
   10797:	48 63 d0             	movslq %eax,%rdx
   1079a:	48 89 d0             	mov    %rdx,%rax
   1079d:	48 01 c0             	add    %rax,%rax
   107a0:	48 01 d0             	add    %rdx,%rax
   107a3:	48 01 c8             	add    %rcx,%rax
   107a6:	48 8d 14 c5 00 00 00 	lea    0x0(,%rax,8),%rdx
   107ad:	00 
   107ae:	48 8d 05 6b 6e 00 00 	lea    0x6e6b(%rip),%rax        # 17620 <g_852>
   107b5:	48 8b 04 02          	mov    (%rdx,%rax,1),%rax
   107b9:	8b 55 fc             	mov    -0x4(%rbp),%edx
   107bc:	48 8d 35 56 2d 00 00 	lea    0x2d56(%rip),%rsi        # 13519 <g_332+0x14b9>
   107c3:	48 89 c7             	mov    %rax,%rdi
   107c6:	e8 28 6f ff ff       	callq  76f3 <transparent_crc>
   107cb:	83 7d fc 00          	cmpl   $0x0,-0x4(%rbp)
   107cf:	74 19                	je     107ea <main+0xd26>
   107d1:	8b 55 f4             	mov    -0xc(%rbp),%edx
   107d4:	8b 45 f0             	mov    -0x10(%rbp),%eax
   107d7:	89 c6                	mov    %eax,%esi
   107d9:	48 8d 3d af 2b 00 00 	lea    0x2baf(%rip),%rdi        # 1338f <g_332+0x132f>
   107e0:	b8 00 00 00 00       	mov    $0x0,%eax
   107e5:	e8 96 58 ff ff       	callq  6080 <printf@plt>
   107ea:	83 45 f4 01          	addl   $0x1,-0xc(%rbp)
   107ee:	83 7d f4 02          	cmpl   $0x2,-0xc(%rbp)
   107f2:	7e 9a                	jle    1078e <main+0xcca>
   107f4:	83 45 f0 01          	addl   $0x1,-0x10(%rbp)
   107f8:	83 7d f0 03          	cmpl   $0x3,-0x10(%rbp)
   107fc:	7e 87                	jle    10785 <main+0xcc1>
   107fe:	c7 45 f0 00 00 00 00 	movl   $0x0,-0x10(%rbp)
   10805:	eb 4a                	jmp    10851 <main+0xd8d>
   10807:	8b 45 f0             	mov    -0x10(%rbp),%eax
   1080a:	48 98                	cltq   
   1080c:	48 8d 14 c5 00 00 00 	lea    0x0(,%rax,8),%rdx
   10813:	00 
   10814:	48 8d 05 65 6e 00 00 	lea    0x6e65(%rip),%rax        # 17680 <g_853>
   1081b:	48 8b 04 02          	mov    (%rdx,%rax,1),%rax
   1081f:	8b 55 fc             	mov    -0x4(%rbp),%edx
   10822:	48 8d 35 fc 2c 00 00 	lea    0x2cfc(%rip),%rsi        # 13525 <g_332+0x14c5>
   10829:	48 89 c7             	mov    %rax,%rdi
   1082c:	e8 c2 6e ff ff       	callq  76f3 <transparent_crc>
   10831:	83 7d fc 00          	cmpl   $0x0,-0x4(%rbp)
   10835:	74 16                	je     1084d <main+0xd89>
   10837:	8b 45 f0             	mov    -0x10(%rbp),%eax
   1083a:	89 c6                	mov    %eax,%esi
   1083c:	48 8d 3d c6 2a 00 00 	lea    0x2ac6(%rip),%rdi        # 13309 <g_332+0x12a9>
   10843:	b8 00 00 00 00       	mov    $0x0,%eax
   10848:	e8 33 58 ff ff       	callq  6080 <printf@plt>
   1084d:	83 45 f0 01          	addl   $0x1,-0x10(%rbp)
   10851:	83 7d f0 02          	cmpl   $0x2,-0x10(%rbp)
   10855:	7e b0                	jle    10807 <main+0xd43>
   10857:	c7 45 f0 00 00 00 00 	movl   $0x0,-0x10(%rbp)
   1085e:	eb 4a                	jmp    108aa <main+0xde6>
   10860:	8b 45 f0             	mov    -0x10(%rbp),%eax
   10863:	48 98                	cltq   
   10865:	48 8d 14 c5 00 00 00 	lea    0x0(,%rax,8),%rdx
   1086c:	00 
   1086d:	48 8d 05 2c 6e 00 00 	lea    0x6e2c(%rip),%rax        # 176a0 <g_854>
   10874:	48 8b 04 02          	mov    (%rdx,%rax,1),%rax
   10878:	8b 55 fc             	mov    -0x4(%rbp),%edx
   1087b:	48 8d 35 ac 2c 00 00 	lea    0x2cac(%rip),%rsi        # 1352e <g_332+0x14ce>
   10882:	48 89 c7             	mov    %rax,%rdi
   10885:	e8 69 6e ff ff       	callq  76f3 <transparent_crc>
   1088a:	83 7d fc 00          	cmpl   $0x0,-0x4(%rbp)
   1088e:	74 16                	je     108a6 <main+0xde2>
   10890:	8b 45 f0             	mov    -0x10(%rbp),%eax
   10893:	89 c6                	mov    %eax,%esi
   10895:	48 8d 3d 6d 2a 00 00 	lea    0x2a6d(%rip),%rdi        # 13309 <g_332+0x12a9>
   1089c:	b8 00 00 00 00       	mov    $0x0,%eax
   108a1:	e8 da 57 ff ff       	callq  6080 <printf@plt>
   108a6:	83 45 f0 01          	addl   $0x1,-0x10(%rbp)
   108aa:	83 7d f0 05          	cmpl   $0x5,-0x10(%rbp)
   108ae:	7e b0                	jle    10860 <main+0xd9c>
   108b0:	48 8b 05 b9 91 00 00 	mov    0x91b9(%rip),%rax        # 19a70 <g_855>
   108b7:	8b 55 fc             	mov    -0x4(%rbp),%edx
   108ba:	48 8d 35 76 2c 00 00 	lea    0x2c76(%rip),%rsi        # 13537 <g_332+0x14d7>
   108c1:	48 89 c7             	mov    %rax,%rdi
   108c4:	e8 2a 6e ff ff       	callq  76f3 <transparent_crc>
   108c9:	48 8b 05 00 6e 00 00 	mov    0x6e00(%rip),%rax        # 176d0 <g_856>
   108d0:	8b 55 fc             	mov    -0x4(%rbp),%edx
   108d3:	48 8d 35 63 2c 00 00 	lea    0x2c63(%rip),%rsi        # 1353d <g_332+0x14dd>
   108da:	48 89 c7             	mov    %rax,%rdi
   108dd:	e8 11 6e ff ff       	callq  76f3 <transparent_crc>
   108e2:	c7 45 f0 00 00 00 00 	movl   $0x0,-0x10(%rbp)
   108e9:	eb 74                	jmp    1095f <main+0xe9b>
   108eb:	c7 45 f4 00 00 00 00 	movl   $0x0,-0xc(%rbp)
   108f2:	eb 61                	jmp    10955 <main+0xe91>
   108f4:	8b 45 f4             	mov    -0xc(%rbp),%eax
   108f7:	48 63 c8             	movslq %eax,%rcx
   108fa:	8b 45 f0             	mov    -0x10(%rbp),%eax
   108fd:	48 63 d0             	movslq %eax,%rdx
   10900:	48 89 d0             	mov    %rdx,%rax
   10903:	48 c1 e0 02          	shl    $0x2,%rax
   10907:	48 01 d0             	add    %rdx,%rax
   1090a:	48 01 c8             	add    %rcx,%rax
   1090d:	48 8d 14 c5 00 00 00 	lea    0x0(,%rax,8),%rdx
   10914:	00 
   10915:	48 8d 05 c4 6d 00 00 	lea    0x6dc4(%rip),%rax        # 176e0 <g_857>
   1091c:	48 8b 04 02          	mov    (%rdx,%rax,1),%rax
   10920:	8b 55 fc             	mov    -0x4(%rbp),%edx
   10923:	48 8d 35 19 2c 00 00 	lea    0x2c19(%rip),%rsi        # 13543 <g_332+0x14e3>
   1092a:	48 89 c7             	mov    %rax,%rdi
   1092d:	e8 c1 6d ff ff       	callq  76f3 <transparent_crc>
   10932:	83 7d fc 00          	cmpl   $0x0,-0x4(%rbp)
   10936:	74 19                	je     10951 <main+0xe8d>
   10938:	8b 55 f4             	mov    -0xc(%rbp),%edx
   1093b:	8b 45 f0             	mov    -0x10(%rbp),%eax
   1093e:	89 c6                	mov    %eax,%esi
   10940:	48 8d 3d 48 2a 00 00 	lea    0x2a48(%rip),%rdi        # 1338f <g_332+0x132f>
   10947:	b8 00 00 00 00       	mov    $0x0,%eax
   1094c:	e8 2f 57 ff ff       	callq  6080 <printf@plt>
   10951:	83 45 f4 01          	addl   $0x1,-0xc(%rbp)
   10955:	83 7d f4 04          	cmpl   $0x4,-0xc(%rbp)
   10959:	7e 99                	jle    108f4 <main+0xe30>
   1095b:	83 45 f0 01          	addl   $0x1,-0x10(%rbp)
   1095f:	83 7d f0 05          	cmpl   $0x5,-0x10(%rbp)
   10963:	7e 86                	jle    108eb <main+0xe27>
   10965:	48 8b 05 64 6e 00 00 	mov    0x6e64(%rip),%rax        # 177d0 <g_858>
   1096c:	8b 55 fc             	mov    -0x4(%rbp),%edx
   1096f:	48 8d 35 d9 2b 00 00 	lea    0x2bd9(%rip),%rsi        # 1354f <g_332+0x14ef>
   10976:	48 89 c7             	mov    %rax,%rdi
   10979:	e8 75 6d ff ff       	callq  76f3 <transparent_crc>
   1097e:	48 8b 05 53 6e 00 00 	mov    0x6e53(%rip),%rax        # 177d8 <g_859>
   10985:	8b 55 fc             	mov    -0x4(%rbp),%edx
   10988:	48 8d 35 c6 2b 00 00 	lea    0x2bc6(%rip),%rsi        # 13555 <g_332+0x14f5>
   1098f:	48 89 c7             	mov    %rax,%rdi
   10992:	e8 5c 6d ff ff       	callq  76f3 <transparent_crc>
   10997:	c7 45 f0 00 00 00 00 	movl   $0x0,-0x10(%rbp)
   1099e:	eb 6d                	jmp    10a0d <main+0xf49>
   109a0:	c7 45 f4 00 00 00 00 	movl   $0x0,-0xc(%rbp)
   109a7:	eb 5a                	jmp    10a03 <main+0xf3f>
   109a9:	8b 45 f4             	mov    -0xc(%rbp),%eax
   109ac:	48 98                	cltq   
   109ae:	8b 55 f0             	mov    -0x10(%rbp),%edx
   109b1:	48 63 d2             	movslq %edx,%rdx
   109b4:	48 c1 e2 02          	shl    $0x2,%rdx
   109b8:	48 01 d0             	add    %rdx,%rax
   109bb:	48 8d 14 c5 00 00 00 	lea    0x0(,%rax,8),%rdx
   109c2:	00 
   109c3:	48 8d 05 16 6e 00 00 	lea    0x6e16(%rip),%rax        # 177e0 <g_860>
   109ca:	48 8b 04 02          	mov    (%rdx,%rax,1),%rax
   109ce:	8b 55 fc             	mov    -0x4(%rbp),%edx
   109d1:	48 8d 35 83 2b 00 00 	lea    0x2b83(%rip),%rsi        # 1355b <g_332+0x14fb>
   109d8:	48 89 c7             	mov    %rax,%rdi
   109db:	e8 13 6d ff ff       	callq  76f3 <transparent_crc>
   109e0:	83 7d fc 00          	cmpl   $0x0,-0x4(%rbp)
   109e4:	74 19                	je     109ff <main+0xf3b>
   109e6:	8b 55 f4             	mov    -0xc(%rbp),%edx
   109e9:	8b 45 f0             	mov    -0x10(%rbp),%eax
   109ec:	89 c6                	mov    %eax,%esi
   109ee:	48 8d 3d 9a 29 00 00 	lea    0x299a(%rip),%rdi        # 1338f <g_332+0x132f>
   109f5:	b8 00 00 00 00       	mov    $0x0,%eax
   109fa:	e8 81 56 ff ff       	callq  6080 <printf@plt>
   109ff:	83 45 f4 01          	addl   $0x1,-0xc(%rbp)
   10a03:	83 7d f4 03          	cmpl   $0x3,-0xc(%rbp)
   10a07:	7e a0                	jle    109a9 <main+0xee5>
   10a09:	83 45 f0 01          	addl   $0x1,-0x10(%rbp)
   10a0d:	83 7d f0 00          	cmpl   $0x0,-0x10(%rbp)
   10a11:	7e 8d                	jle    109a0 <main+0xedc>
   10a13:	48 8b 05 e6 6d 00 00 	mov    0x6de6(%rip),%rax        # 17800 <g_861>
   10a1a:	8b 55 fc             	mov    -0x4(%rbp),%edx
   10a1d:	48 8d 35 43 2b 00 00 	lea    0x2b43(%rip),%rsi        # 13567 <g_332+0x1507>
   10a24:	48 89 c7             	mov    %rax,%rdi
   10a27:	e8 c7 6c ff ff       	callq  76f3 <transparent_crc>
   10a2c:	48 8b 05 d5 6d 00 00 	mov    0x6dd5(%rip),%rax        # 17808 <g_862>
   10a33:	8b 55 fc             	mov    -0x4(%rbp),%edx
   10a36:	48 8d 35 30 2b 00 00 	lea    0x2b30(%rip),%rsi        # 1356d <g_332+0x150d>
   10a3d:	48 89 c7             	mov    %rax,%rdi
   10a40:	e8 ae 6c ff ff       	callq  76f3 <transparent_crc>
   10a45:	c7 45 f0 00 00 00 00 	movl   $0x0,-0x10(%rbp)
   10a4c:	eb 74                	jmp    10ac2 <main+0xffe>
   10a4e:	c7 45 f4 00 00 00 00 	movl   $0x0,-0xc(%rbp)
   10a55:	eb 61                	jmp    10ab8 <main+0xff4>
   10a57:	8b 45 f4             	mov    -0xc(%rbp),%eax
   10a5a:	48 63 c8             	movslq %eax,%rcx
   10a5d:	8b 45 f0             	mov    -0x10(%rbp),%eax
   10a60:	48 63 d0             	movslq %eax,%rdx
   10a63:	48 89 d0             	mov    %rdx,%rax
   10a66:	48 c1 e0 02          	shl    $0x2,%rax
   10a6a:	48 01 d0             	add    %rdx,%rax
   10a6d:	48 01 c8             	add    %rcx,%rax
   10a70:	48 8d 14 c5 00 00 00 	lea    0x0(,%rax,8),%rdx
   10a77:	00 
   10a78:	48 8d 05 a1 6d 00 00 	lea    0x6da1(%rip),%rax        # 17820 <g_863>
   10a7f:	48 8b 04 02          	mov    (%rdx,%rax,1),%rax
   10a83:	8b 55 fc             	mov    -0x4(%rbp),%edx
   10a86:	48 8d 35 e6 2a 00 00 	lea    0x2ae6(%rip),%rsi        # 13573 <g_332+0x1513>
   10a8d:	48 89 c7             	mov    %rax,%rdi
   10a90:	e8 5e 6c ff ff       	callq  76f3 <transparent_crc>
   10a95:	83 7d fc 00          	cmpl   $0x0,-0x4(%rbp)
   10a99:	74 19                	je     10ab4 <main+0xff0>
   10a9b:	8b 55 f4             	mov    -0xc(%rbp),%edx
   10a9e:	8b 45 f0             	mov    -0x10(%rbp),%eax
   10aa1:	89 c6                	mov    %eax,%esi
   10aa3:	48 8d 3d e5 28 00 00 	lea    0x28e5(%rip),%rdi        # 1338f <g_332+0x132f>
   10aaa:	b8 00 00 00 00       	mov    $0x0,%eax
   10aaf:	e8 cc 55 ff ff       	callq  6080 <printf@plt>
   10ab4:	83 45 f4 01          	addl   $0x1,-0xc(%rbp)
   10ab8:	83 7d f4 04          	cmpl   $0x4,-0xc(%rbp)
   10abc:	7e 99                	jle    10a57 <main+0xf93>
   10abe:	83 45 f0 01          	addl   $0x1,-0x10(%rbp)
   10ac2:	83 7d f0 04          	cmpl   $0x4,-0x10(%rbp)
   10ac6:	7e 86                	jle    10a4e <main+0xf8a>
   10ac8:	48 8b 05 19 6e 00 00 	mov    0x6e19(%rip),%rax        # 178e8 <g_864>
   10acf:	8b 55 fc             	mov    -0x4(%rbp),%edx
   10ad2:	48 8d 35 a6 2a 00 00 	lea    0x2aa6(%rip),%rsi        # 1357f <g_332+0x151f>
   10ad9:	48 89 c7             	mov    %rax,%rdi
   10adc:	e8 12 6c ff ff       	callq  76f3 <transparent_crc>
   10ae1:	48 8b 05 08 6e 00 00 	mov    0x6e08(%rip),%rax        # 178f0 <g_865>
   10ae8:	8b 55 fc             	mov    -0x4(%rbp),%edx
   10aeb:	48 8d 35 93 2a 00 00 	lea    0x2a93(%rip),%rsi        # 13585 <g_332+0x1525>
   10af2:	48 89 c7             	mov    %rax,%rdi
   10af5:	e8 f9 6b ff ff       	callq  76f3 <transparent_crc>
   10afa:	48 8b 05 f7 6d 00 00 	mov    0x6df7(%rip),%rax        # 178f8 <g_866>
   10b01:	8b 55 fc             	mov    -0x4(%rbp),%edx
   10b04:	48 8d 35 80 2a 00 00 	lea    0x2a80(%rip),%rsi        # 1358b <g_332+0x152b>
   10b0b:	48 89 c7             	mov    %rax,%rdi
   10b0e:	e8 e0 6b ff ff       	callq  76f3 <transparent_crc>
   10b13:	c7 45 f0 00 00 00 00 	movl   $0x0,-0x10(%rbp)
   10b1a:	eb 4a                	jmp    10b66 <main+0x10a2>
   10b1c:	8b 45 f0             	mov    -0x10(%rbp),%eax
   10b1f:	48 98                	cltq   
   10b21:	48 8d 14 c5 00 00 00 	lea    0x0(,%rax,8),%rdx
   10b28:	00 
   10b29:	48 8d 05 d0 6d 00 00 	lea    0x6dd0(%rip),%rax        # 17900 <g_867>
   10b30:	48 8b 04 02          	mov    (%rdx,%rax,1),%rax
   10b34:	8b 55 fc             	mov    -0x4(%rbp),%edx
   10b37:	48 8d 35 53 2a 00 00 	lea    0x2a53(%rip),%rsi        # 13591 <g_332+0x1531>
   10b3e:	48 89 c7             	mov    %rax,%rdi
   10b41:	e8 ad 6b ff ff       	callq  76f3 <transparent_crc>
   10b46:	83 7d fc 00          	cmpl   $0x0,-0x4(%rbp)
   10b4a:	74 16                	je     10b62 <main+0x109e>
   10b4c:	8b 45 f0             	mov    -0x10(%rbp),%eax
   10b4f:	89 c6                	mov    %eax,%esi
   10b51:	48 8d 3d b1 27 00 00 	lea    0x27b1(%rip),%rdi        # 13309 <g_332+0x12a9>
   10b58:	b8 00 00 00 00       	mov    $0x0,%eax
   10b5d:	e8 1e 55 ff ff       	callq  6080 <printf@plt>
   10b62:	83 45 f0 01          	addl   $0x1,-0x10(%rbp)
   10b66:	83 7d f0 01          	cmpl   $0x1,-0x10(%rbp)
   10b6a:	7e b0                	jle    10b1c <main+0x1058>
   10b6c:	48 8b 05 9d 6d 00 00 	mov    0x6d9d(%rip),%rax        # 17910 <g_868>
   10b73:	8b 55 fc             	mov    -0x4(%rbp),%edx
   10b76:	48 8d 35 1d 2a 00 00 	lea    0x2a1d(%rip),%rsi        # 1359a <g_332+0x153a>
   10b7d:	48 89 c7             	mov    %rax,%rdi
   10b80:	e8 6e 6b ff ff       	callq  76f3 <transparent_crc>
   10b85:	48 8b 05 8c 6d 00 00 	mov    0x6d8c(%rip),%rax        # 17918 <g_869>
   10b8c:	8b 55 fc             	mov    -0x4(%rbp),%edx
   10b8f:	48 8d 35 0a 2a 00 00 	lea    0x2a0a(%rip),%rsi        # 135a0 <g_332+0x1540>
   10b96:	48 89 c7             	mov    %rax,%rdi
   10b99:	e8 55 6b ff ff       	callq  76f3 <transparent_crc>
   10b9e:	c7 45 f0 00 00 00 00 	movl   $0x0,-0x10(%rbp)
   10ba5:	eb 4a                	jmp    10bf1 <main+0x112d>
   10ba7:	8b 45 f0             	mov    -0x10(%rbp),%eax
   10baa:	48 98                	cltq   
   10bac:	48 8d 14 c5 00 00 00 	lea    0x0(,%rax,8),%rdx
   10bb3:	00 
   10bb4:	48 8d 05 65 6d 00 00 	lea    0x6d65(%rip),%rax        # 17920 <g_870>
   10bbb:	48 8b 04 02          	mov    (%rdx,%rax,1),%rax
   10bbf:	8b 55 fc             	mov    -0x4(%rbp),%edx
   10bc2:	48 8d 35 dd 29 00 00 	lea    0x29dd(%rip),%rsi        # 135a6 <g_332+0x1546>
   10bc9:	48 89 c7             	mov    %rax,%rdi
   10bcc:	e8 22 6b ff ff       	callq  76f3 <transparent_crc>
   10bd1:	83 7d fc 00          	cmpl   $0x0,-0x4(%rbp)
   10bd5:	74 16                	je     10bed <main+0x1129>
   10bd7:	8b 45 f0             	mov    -0x10(%rbp),%eax
   10bda:	89 c6                	mov    %eax,%esi
   10bdc:	48 8d 3d 26 27 00 00 	lea    0x2726(%rip),%rdi        # 13309 <g_332+0x12a9>
   10be3:	b8 00 00 00 00       	mov    $0x0,%eax
   10be8:	e8 93 54 ff ff       	callq  6080 <printf@plt>
   10bed:	83 45 f0 01          	addl   $0x1,-0x10(%rbp)
   10bf1:	83 7d f0 05          	cmpl   $0x5,-0x10(%rbp)
   10bf5:	7e b0                	jle    10ba7 <main+0x10e3>
   10bf7:	48 8b 05 52 6d 00 00 	mov    0x6d52(%rip),%rax        # 17950 <g_871>
   10bfe:	8b 55 fc             	mov    -0x4(%rbp),%edx
   10c01:	48 8d 35 a7 29 00 00 	lea    0x29a7(%rip),%rsi        # 135af <g_332+0x154f>
   10c08:	48 89 c7             	mov    %rax,%rdi
   10c0b:	e8 e3 6a ff ff       	callq  76f3 <transparent_crc>
   10c10:	48 8b 05 41 6d 00 00 	mov    0x6d41(%rip),%rax        # 17958 <g_872>
   10c17:	8b 55 fc             	mov    -0x4(%rbp),%edx
   10c1a:	48 8d 35 94 29 00 00 	lea    0x2994(%rip),%rsi        # 135b5 <g_332+0x1555>
   10c21:	48 89 c7             	mov    %rax,%rdi
   10c24:	e8 ca 6a ff ff       	callq  76f3 <transparent_crc>
   10c29:	48 8b 05 30 6d 00 00 	mov    0x6d30(%rip),%rax        # 17960 <g_873>
   10c30:	8b 55 fc             	mov    -0x4(%rbp),%edx
   10c33:	48 8d 35 81 29 00 00 	lea    0x2981(%rip),%rsi        # 135bb <g_332+0x155b>
   10c3a:	48 89 c7             	mov    %rax,%rdi
   10c3d:	e8 b1 6a ff ff       	callq  76f3 <transparent_crc>
   10c42:	48 8b 05 1f 6d 00 00 	mov    0x6d1f(%rip),%rax        # 17968 <g_874>
   10c49:	8b 55 fc             	mov    -0x4(%rbp),%edx
   10c4c:	48 8d 35 6e 29 00 00 	lea    0x296e(%rip),%rsi        # 135c1 <g_332+0x1561>
   10c53:	48 89 c7             	mov    %rax,%rdi
   10c56:	e8 98 6a ff ff       	callq  76f3 <transparent_crc>
   10c5b:	c7 45 f0 00 00 00 00 	movl   $0x0,-0x10(%rbp)
   10c62:	eb 4a                	jmp    10cae <main+0x11ea>
   10c64:	8b 45 f0             	mov    -0x10(%rbp),%eax
   10c67:	48 98                	cltq   
   10c69:	48 8d 14 c5 00 00 00 	lea    0x0(,%rax,8),%rdx
   10c70:	00 
   10c71:	48 8d 05 f8 6c 00 00 	lea    0x6cf8(%rip),%rax        # 17970 <g_875>
   10c78:	48 8b 04 02          	mov    (%rdx,%rax,1),%rax
   10c7c:	8b 55 fc             	mov    -0x4(%rbp),%edx
   10c7f:	48 8d 35 41 29 00 00 	lea    0x2941(%rip),%rsi        # 135c7 <g_332+0x1567>
   10c86:	48 89 c7             	mov    %rax,%rdi
   10c89:	e8 65 6a ff ff       	callq  76f3 <transparent_crc>
   10c8e:	83 7d fc 00          	cmpl   $0x0,-0x4(%rbp)
   10c92:	74 16                	je     10caa <main+0x11e6>
   10c94:	8b 45 f0             	mov    -0x10(%rbp),%eax
   10c97:	89 c6                	mov    %eax,%esi
   10c99:	48 8d 3d 69 26 00 00 	lea    0x2669(%rip),%rdi        # 13309 <g_332+0x12a9>
   10ca0:	b8 00 00 00 00       	mov    $0x0,%eax
   10ca5:	e8 d6 53 ff ff       	callq  6080 <printf@plt>
   10caa:	83 45 f0 01          	addl   $0x1,-0x10(%rbp)
   10cae:	83 7d f0 02          	cmpl   $0x2,-0x10(%rbp)
   10cb2:	7e b0                	jle    10c64 <main+0x11a0>
   10cb4:	c7 45 f0 00 00 00 00 	movl   $0x0,-0x10(%rbp)
   10cbb:	e9 a0 00 00 00       	jmpq   10d60 <main+0x129c>
   10cc0:	c7 45 f4 00 00 00 00 	movl   $0x0,-0xc(%rbp)
   10cc7:	e9 86 00 00 00       	jmpq   10d52 <main+0x128e>
   10ccc:	c7 45 f8 00 00 00 00 	movl   $0x0,-0x8(%rbp)
   10cd3:	eb 73                	jmp    10d48 <main+0x1284>
   10cd5:	8b 45 f8             	mov    -0x8(%rbp),%eax
   10cd8:	48 63 c8             	movslq %eax,%rcx
   10cdb:	8b 45 f0             	mov    -0x10(%rbp),%eax
   10cde:	48 63 d0             	movslq %eax,%rdx
   10ce1:	8b 45 f4             	mov    -0xc(%rbp),%eax
   10ce4:	48 63 f0             	movslq %eax,%rsi
   10ce7:	48 89 d0             	mov    %rdx,%rax
   10cea:	48 01 c0             	add    %rax,%rax
   10ced:	48 01 d0             	add    %rdx,%rax
   10cf0:	48 01 c0             	add    %rax,%rax
   10cf3:	48 01 f0             	add    %rsi,%rax
   10cf6:	48 c1 e0 03          	shl    $0x3,%rax
   10cfa:	48 01 c8             	add    %rcx,%rax
   10cfd:	48 8d 14 c5 00 00 00 	lea    0x0(,%rax,8),%rdx
   10d04:	00 
   10d05:	48 8d 05 94 6c 00 00 	lea    0x6c94(%rip),%rax        # 179a0 <g_876>
   10d0c:	48 8b 04 02          	mov    (%rdx,%rax,1),%rax
   10d10:	8b 55 fc             	mov    -0x4(%rbp),%edx
   10d13:	48 8d 35 b6 28 00 00 	lea    0x28b6(%rip),%rsi        # 135d0 <g_332+0x1570>
   10d1a:	48 89 c7             	mov    %rax,%rdi
   10d1d:	e8 d1 69 ff ff       	callq  76f3 <transparent_crc>
   10d22:	83 7d fc 00          	cmpl   $0x0,-0x4(%rbp)
   10d26:	74 1c                	je     10d44 <main+0x1280>
   10d28:	8b 4d f8             	mov    -0x8(%rbp),%ecx
   10d2b:	8b 55 f4             	mov    -0xc(%rbp),%edx
   10d2e:	8b 45 f0             	mov    -0x10(%rbp),%eax
   10d31:	89 c6                	mov    %eax,%esi
   10d33:	48 8d 3d 9d 26 00 00 	lea    0x269d(%rip),%rdi        # 133d7 <g_332+0x1377>
   10d3a:	b8 00 00 00 00       	mov    $0x0,%eax
   10d3f:	e8 3c 53 ff ff       	callq  6080 <printf@plt>
   10d44:	83 45 f8 01          	addl   $0x1,-0x8(%rbp)
   10d48:	83 7d f8 07          	cmpl   $0x7,-0x8(%rbp)
   10d4c:	7e 87                	jle    10cd5 <main+0x1211>
   10d4e:	83 45 f4 01          	addl   $0x1,-0xc(%rbp)
   10d52:	83 7d f4 05          	cmpl   $0x5,-0xc(%rbp)
   10d56:	0f 8e 70 ff ff ff    	jle    10ccc <main+0x1208>
   10d5c:	83 45 f0 01          	addl   $0x1,-0x10(%rbp)
   10d60:	83 7d f0 02          	cmpl   $0x2,-0x10(%rbp)
   10d64:	0f 8e 56 ff ff ff    	jle    10cc0 <main+0x11fc>
   10d6a:	48 8b 05 af 70 00 00 	mov    0x70af(%rip),%rax        # 17e20 <g_877>
   10d71:	8b 55 fc             	mov    -0x4(%rbp),%edx
   10d74:	48 8d 35 64 28 00 00 	lea    0x2864(%rip),%rsi        # 135df <g_332+0x157f>
   10d7b:	48 89 c7             	mov    %rax,%rdi
   10d7e:	e8 70 69 ff ff       	callq  76f3 <transparent_crc>
   10d83:	48 8b 05 9e 70 00 00 	mov    0x709e(%rip),%rax        # 17e28 <g_878>
   10d8a:	8b 55 fc             	mov    -0x4(%rbp),%edx
   10d8d:	48 8d 35 51 28 00 00 	lea    0x2851(%rip),%rsi        # 135e5 <g_332+0x1585>
   10d94:	48 89 c7             	mov    %rax,%rdi
   10d97:	e8 57 69 ff ff       	callq  76f3 <transparent_crc>
   10d9c:	48 8b 05 8d 70 00 00 	mov    0x708d(%rip),%rax        # 17e30 <g_879>
   10da3:	8b 55 fc             	mov    -0x4(%rbp),%edx
   10da6:	48 8d 35 3e 28 00 00 	lea    0x283e(%rip),%rsi        # 135eb <g_332+0x158b>
   10dad:	48 89 c7             	mov    %rax,%rdi
   10db0:	e8 3e 69 ff ff       	callq  76f3 <transparent_crc>
   10db5:	48 8b 05 7c 70 00 00 	mov    0x707c(%rip),%rax        # 17e38 <g_880>
   10dbc:	8b 55 fc             	mov    -0x4(%rbp),%edx
   10dbf:	48 8d 35 2b 28 00 00 	lea    0x282b(%rip),%rsi        # 135f1 <g_332+0x1591>
   10dc6:	48 89 c7             	mov    %rax,%rdi
   10dc9:	e8 25 69 ff ff       	callq  76f3 <transparent_crc>
   10dce:	48 8b 05 6b 70 00 00 	mov    0x706b(%rip),%rax        # 17e40 <g_881>
   10dd5:	8b 55 fc             	mov    -0x4(%rbp),%edx
   10dd8:	48 8d 35 18 28 00 00 	lea    0x2818(%rip),%rsi        # 135f7 <g_332+0x1597>
   10ddf:	48 89 c7             	mov    %rax,%rdi
   10de2:	e8 0c 69 ff ff       	callq  76f3 <transparent_crc>
   10de7:	48 8b 05 5a 70 00 00 	mov    0x705a(%rip),%rax        # 17e48 <g_882>
   10dee:	8b 55 fc             	mov    -0x4(%rbp),%edx
   10df1:	48 8d 35 05 28 00 00 	lea    0x2805(%rip),%rsi        # 135fd <g_332+0x159d>
   10df8:	48 89 c7             	mov    %rax,%rdi
   10dfb:	e8 f3 68 ff ff       	callq  76f3 <transparent_crc>
   10e00:	48 8b 05 49 70 00 00 	mov    0x7049(%rip),%rax        # 17e50 <g_883>
   10e07:	8b 55 fc             	mov    -0x4(%rbp),%edx
   10e0a:	48 8d 35 f2 27 00 00 	lea    0x27f2(%rip),%rsi        # 13603 <g_332+0x15a3>
   10e11:	48 89 c7             	mov    %rax,%rdi
   10e14:	e8 da 68 ff ff       	callq  76f3 <transparent_crc>
   10e19:	c7 45 f0 00 00 00 00 	movl   $0x0,-0x10(%rbp)
   10e20:	eb 4a                	jmp    10e6c <main+0x13a8>
   10e22:	8b 45 f0             	mov    -0x10(%rbp),%eax
   10e25:	48 98                	cltq   
   10e27:	48 8d 14 c5 00 00 00 	lea    0x0(,%rax,8),%rdx
   10e2e:	00 
   10e2f:	48 8d 05 2a 70 00 00 	lea    0x702a(%rip),%rax        # 17e60 <g_884>
   10e36:	48 8b 04 02          	mov    (%rdx,%rax,1),%rax
   10e3a:	8b 55 fc             	mov    -0x4(%rbp),%edx
   10e3d:	48 8d 35 c5 27 00 00 	lea    0x27c5(%rip),%rsi        # 13609 <g_332+0x15a9>
   10e44:	48 89 c7             	mov    %rax,%rdi
   10e47:	e8 a7 68 ff ff       	callq  76f3 <transparent_crc>
   10e4c:	83 7d fc 00          	cmpl   $0x0,-0x4(%rbp)
   10e50:	74 16                	je     10e68 <main+0x13a4>
   10e52:	8b 45 f0             	mov    -0x10(%rbp),%eax
   10e55:	89 c6                	mov    %eax,%esi
   10e57:	48 8d 3d ab 24 00 00 	lea    0x24ab(%rip),%rdi        # 13309 <g_332+0x12a9>
   10e5e:	b8 00 00 00 00       	mov    $0x0,%eax
   10e63:	e8 18 52 ff ff       	callq  6080 <printf@plt>
   10e68:	83 45 f0 01          	addl   $0x1,-0x10(%rbp)
   10e6c:	83 7d f0 03          	cmpl   $0x3,-0x10(%rbp)
   10e70:	7e b0                	jle    10e22 <main+0x135e>
   10e72:	48 8b 05 07 70 00 00 	mov    0x7007(%rip),%rax        # 17e80 <g_885>
   10e79:	8b 55 fc             	mov    -0x4(%rbp),%edx
   10e7c:	48 8d 35 8f 27 00 00 	lea    0x278f(%rip),%rsi        # 13612 <g_332+0x15b2>
   10e83:	48 89 c7             	mov    %rax,%rdi
   10e86:	e8 68 68 ff ff       	callq  76f3 <transparent_crc>
   10e8b:	c7 45 f0 00 00 00 00 	movl   $0x0,-0x10(%rbp)
   10e92:	eb 4a                	jmp    10ede <main+0x141a>
   10e94:	8b 45 f0             	mov    -0x10(%rbp),%eax
   10e97:	48 98                	cltq   
   10e99:	48 8d 14 c5 00 00 00 	lea    0x0(,%rax,8),%rdx
   10ea0:	00 
   10ea1:	48 8d 05 f8 6f 00 00 	lea    0x6ff8(%rip),%rax        # 17ea0 <g_886>
   10ea8:	48 8b 04 02          	mov    (%rdx,%rax,1),%rax
   10eac:	8b 55 fc             	mov    -0x4(%rbp),%edx
   10eaf:	48 8d 35 62 27 00 00 	lea    0x2762(%rip),%rsi        # 13618 <g_332+0x15b8>
   10eb6:	48 89 c7             	mov    %rax,%rdi
   10eb9:	e8 35 68 ff ff       	callq  76f3 <transparent_crc>
   10ebe:	83 7d fc 00          	cmpl   $0x0,-0x4(%rbp)
   10ec2:	74 16                	je     10eda <main+0x1416>
   10ec4:	8b 45 f0             	mov    -0x10(%rbp),%eax
   10ec7:	89 c6                	mov    %eax,%esi
   10ec9:	48 8d 3d 39 24 00 00 	lea    0x2439(%rip),%rdi        # 13309 <g_332+0x12a9>
   10ed0:	b8 00 00 00 00       	mov    $0x0,%eax
   10ed5:	e8 a6 51 ff ff       	callq  6080 <printf@plt>
   10eda:	83 45 f0 01          	addl   $0x1,-0x10(%rbp)
   10ede:	83 7d f0 09          	cmpl   $0x9,-0x10(%rbp)
   10ee2:	7e b0                	jle    10e94 <main+0x13d0>
   10ee4:	48 8b 05 05 70 00 00 	mov    0x7005(%rip),%rax        # 17ef0 <g_887>
   10eeb:	8b 55 fc             	mov    -0x4(%rbp),%edx
   10eee:	48 8d 35 2c 27 00 00 	lea    0x272c(%rip),%rsi        # 13621 <g_332+0x15c1>
   10ef5:	48 89 c7             	mov    %rax,%rdi
   10ef8:	e8 f6 67 ff ff       	callq  76f3 <transparent_crc>
   10efd:	48 8b 05 f4 6f 00 00 	mov    0x6ff4(%rip),%rax        # 17ef8 <g_888>
   10f04:	8b 55 fc             	mov    -0x4(%rbp),%edx
   10f07:	48 8d 35 19 27 00 00 	lea    0x2719(%rip),%rsi        # 13627 <g_332+0x15c7>
   10f0e:	48 89 c7             	mov    %rax,%rdi
   10f11:	e8 dd 67 ff ff       	callq  76f3 <transparent_crc>
   10f16:	48 8b 05 e3 6f 00 00 	mov    0x6fe3(%rip),%rax        # 17f00 <g_889>
   10f1d:	8b 55 fc             	mov    -0x4(%rbp),%edx
   10f20:	48 8d 35 06 27 00 00 	lea    0x2706(%rip),%rsi        # 1362d <g_332+0x15cd>
   10f27:	48 89 c7             	mov    %rax,%rdi
   10f2a:	e8 c4 67 ff ff       	callq  76f3 <transparent_crc>
   10f2f:	48 8b 05 d2 6f 00 00 	mov    0x6fd2(%rip),%rax        # 17f08 <g_890>
   10f36:	8b 55 fc             	mov    -0x4(%rbp),%edx
   10f39:	48 8d 35 f3 26 00 00 	lea    0x26f3(%rip),%rsi        # 13633 <g_332+0x15d3>
   10f40:	48 89 c7             	mov    %rax,%rdi
   10f43:	e8 ab 67 ff ff       	callq  76f3 <transparent_crc>
   10f48:	48 8b 05 c1 6f 00 00 	mov    0x6fc1(%rip),%rax        # 17f10 <g_891>
   10f4f:	8b 55 fc             	mov    -0x4(%rbp),%edx
   10f52:	48 8d 35 e0 26 00 00 	lea    0x26e0(%rip),%rsi        # 13639 <g_332+0x15d9>
   10f59:	48 89 c7             	mov    %rax,%rdi
   10f5c:	e8 92 67 ff ff       	callq  76f3 <transparent_crc>
   10f61:	0f b6 05 b0 6f 00 00 	movzbl 0x6fb0(%rip),%eax        # 17f18 <g_1189>
   10f68:	48 0f be c0          	movsbq %al,%rax
   10f6c:	8b 55 fc             	mov    -0x4(%rbp),%edx
   10f6f:	48 8d 35 c9 26 00 00 	lea    0x26c9(%rip),%rsi        # 1363f <g_332+0x15df>
   10f76:	48 89 c7             	mov    %rax,%rdi
   10f79:	e8 75 67 ff ff       	callq  76f3 <transparent_crc>
   10f7e:	8b 05 9c 60 00 00    	mov    0x609c(%rip),%eax        # 17020 <crc32_context>
   10f84:	f7 d0                	not    %eax
   10f86:	89 c2                	mov    %eax,%edx
   10f88:	8b 45 fc             	mov    -0x4(%rbp),%eax
   10f8b:	89 c6                	mov    %eax,%esi
   10f8d:	89 d7                	mov    %edx,%edi
   10f8f:	e8 00 52 ff ff       	callq  6194 <platform_main_end>
   10f94:	b8 00 00 00 00       	mov    $0x0,%eax
   10f99:	c9                   	leaveq 
   10f9a:	c3                   	retq   
   10f9b:	0f 1f 44 00 00       	nopl   0x0(%rax,%rax,1)

0000000000010fa0 <__libc_csu_init>:
   10fa0:	f3 0f 1e fa          	endbr64 
   10fa4:	41 57                	push   %r15
   10fa6:	4c 8d 3d 43 56 00 00 	lea    0x5643(%rip),%r15        # 165f0 <__frame_dummy_init_array_entry>
   10fad:	41 56                	push   %r14
   10faf:	49 89 d6             	mov    %rdx,%r14
   10fb2:	41 55                	push   %r13
   10fb4:	49 89 f5             	mov    %rsi,%r13
   10fb7:	41 54                	push   %r12
   10fb9:	41 89 fc             	mov    %edi,%r12d
   10fbc:	55                   	push   %rbp
   10fbd:	48 8d 2d 34 56 00 00 	lea    0x5634(%rip),%rbp        # 165f8 <__do_global_dtors_aux_fini_array_entry>
   10fc4:	53                   	push   %rbx
   10fc5:	4c 29 fd             	sub    %r15,%rbp
   10fc8:	48 83 ec 08          	sub    $0x8,%rsp
   10fcc:	e8 2f 50 ff ff       	callq  6000 <_init>
   10fd1:	48 c1 fd 03          	sar    $0x3,%rbp
   10fd5:	74 1f                	je     10ff6 <__libc_csu_init+0x56>
   10fd7:	31 db                	xor    %ebx,%ebx
   10fd9:	0f 1f 80 00 00 00 00 	nopl   0x0(%rax)
   10fe0:	4c 89 f2             	mov    %r14,%rdx
   10fe3:	4c 89 ee             	mov    %r13,%rsi
   10fe6:	44 89 e7             	mov    %r12d,%edi
   10fe9:	41 ff 14 df          	callq  *(%r15,%rbx,8)
   10fed:	48 83 c3 01          	add    $0x1,%rbx
   10ff1:	48 39 dd             	cmp    %rbx,%rbp
   10ff4:	75 ea                	jne    10fe0 <__libc_csu_init+0x40>
   10ff6:	48 83 c4 08          	add    $0x8,%rsp
   10ffa:	5b                   	pop    %rbx
   10ffb:	5d                   	pop    %rbp
   10ffc:	41 5c                	pop    %r12
   10ffe:	41 5d                	pop    %r13
   11000:	41 5e                	pop    %r14
   11002:	41 5f                	pop    %r15
   11004:	c3                   	retq   
   11005:	66 66 2e 0f 1f 84 00 	data16 nopw %cs:0x0(%rax,%rax,1)
   1100c:	00 00 00 00 

0000000000011010 <__libc_csu_fini>:
   11010:	f3 0f 1e fa          	endbr64 
   11014:	c3                   	retq   
