


Disassembly of section .text:

00000000000090a0 <_start>:
    90a0:	f3 0f 1e fa          	endbr64 
    90a4:	31 ed                	xor    %ebp,%ebp
    90a6:	49 89 d1             	mov    %rdx,%r9
    90a9:	5e                   	pop    %rsi
    90aa:	48 89 e2             	mov    %rsp,%rdx
    90ad:	48 83 e4 f0          	and    $0xfffffffffffffff0,%rsp
    90b1:	50                   	push   %rax
    90b2:	54                   	push   %rsp
    90b3:	4c 8d 05 a6 ab 00 00 	lea    0xaba6(%rip),%r8        # 13c60 <__libc_csu_fini>
    90ba:	48 8d 0d 2f ab 00 00 	lea    0xab2f(%rip),%rcx        # 13bf0 <__libc_csu_init>
    90c1:	48 8d 3d d1 a3 00 00 	lea    0xa3d1(%rip),%rdi        # 13499 <main>
    90c8:	ff 15 12 ef 00 00    	callq  *0xef12(%rip)        # 17fe0 <__libc_start_main@GLIBC_2.2.5>
    90ce:	f4                   	hlt    
    90cf:	90                   	nop

00000000000090d0 <deregister_tm_clones>:
    90d0:	48 8d 3d e9 22 01 00 	lea    0x122e9(%rip),%rdi        # 1b3c0 <__TMC_END__>
    90d7:	48 8d 05 e2 22 01 00 	lea    0x122e2(%rip),%rax        # 1b3c0 <__TMC_END__>
    90de:	48 39 f8             	cmp    %rdi,%rax
    90e1:	74 15                	je     90f8 <deregister_tm_clones+0x28>
    90e3:	48 8b 05 ee ee 00 00 	mov    0xeeee(%rip),%rax        # 17fd8 <_ITM_deregisterTMCloneTable>
    90ea:	48 85 c0             	test   %rax,%rax
    90ed:	74 09                	je     90f8 <deregister_tm_clones+0x28>
    90ef:	ff e0                	jmpq   *%rax
    90f1:	0f 1f 80 00 00 00 00 	nopl   0x0(%rax)
    90f8:	c3                   	retq   
    90f9:	0f 1f 80 00 00 00 00 	nopl   0x0(%rax)

0000000000009100 <register_tm_clones>:
    9100:	48 8d 3d b9 22 01 00 	lea    0x122b9(%rip),%rdi        # 1b3c0 <__TMC_END__>
    9107:	48 8d 35 b2 22 01 00 	lea    0x122b2(%rip),%rsi        # 1b3c0 <__TMC_END__>
    910e:	48 29 fe             	sub    %rdi,%rsi
    9111:	48 89 f0             	mov    %rsi,%rax
    9114:	48 c1 ee 3f          	shr    $0x3f,%rsi
    9118:	48 c1 f8 03          	sar    $0x3,%rax
    911c:	48 01 c6             	add    %rax,%rsi
    911f:	48 d1 fe             	sar    %rsi
    9122:	74 14                	je     9138 <register_tm_clones+0x38>
    9124:	48 8b 05 c5 ee 00 00 	mov    0xeec5(%rip),%rax        # 17ff0 <_ITM_registerTMCloneTable>
    912b:	48 85 c0             	test   %rax,%rax
    912e:	74 08                	je     9138 <register_tm_clones+0x38>
    9130:	ff e0                	jmpq   *%rax
    9132:	66 0f 1f 44 00 00    	nopw   0x0(%rax,%rax,1)
    9138:	c3                   	retq   
    9139:	0f 1f 80 00 00 00 00 	nopl   0x0(%rax)

0000000000009140 <__do_global_dtors_aux>:
    9140:	f3 0f 1e fa          	endbr64 
    9144:	80 3d 75 22 01 00 00 	cmpb   $0x0,0x12275(%rip)        # 1b3c0 <__TMC_END__>
    914b:	75 2b                	jne    9178 <__do_global_dtors_aux+0x38>
    914d:	55                   	push   %rbp
    914e:	48 83 3d a2 ee 00 00 	cmpq   $0x0,0xeea2(%rip)        # 17ff8 <__cxa_finalize@GLIBC_2.2.5>
    9155:	00 
    9156:	48 89 e5             	mov    %rsp,%rbp
    9159:	74 0c                	je     9167 <__do_global_dtors_aux+0x27>
    915b:	48 8b 3d a6 ee 00 00 	mov    0xeea6(%rip),%rdi        # 18008 <__dso_handle>
    9162:	e8 f9 fe ff ff       	callq  9060 <__cxa_finalize@plt>
    9167:	e8 64 ff ff ff       	callq  90d0 <deregister_tm_clones>
    916c:	c6 05 4d 22 01 00 01 	movb   $0x1,0x1224d(%rip)        # 1b3c0 <__TMC_END__>
    9173:	5d                   	pop    %rbp
    9174:	c3                   	retq   
    9175:	0f 1f 00             	nopl   (%rax)
    9178:	c3                   	retq   
    9179:	0f 1f 80 00 00 00 00 	nopl   0x0(%rax)

0000000000009180 <frame_dummy>:
    9180:	f3 0f 1e fa          	endbr64 
    9184:	e9 77 ff ff ff       	jmpq   9100 <register_tm_clones>

0000000000009189 <platform_main_begin>:
    9189:	f3 0f 1e fa          	endbr64 
    918d:	55                   	push   %rbp
    918e:	48 89 e5             	mov    %rsp,%rbp
    9191:	90                   	nop
    9192:	5d                   	pop    %rbp
    9193:	c3                   	retq   

0000000000009194 <platform_main_end>:
    9194:	f3 0f 1e fa          	endbr64 
    9198:	55                   	push   %rbp
    9199:	48 89 e5             	mov    %rsp,%rbp
    919c:	48 83 ec 10          	sub    $0x10,%rsp
    91a0:	89 7d fc             	mov    %edi,-0x4(%rbp)
    91a3:	89 75 f8             	mov    %esi,-0x8(%rbp)
    91a6:	8b 45 fc             	mov    -0x4(%rbp),%eax
    91a9:	89 c6                	mov    %eax,%esi
    91ab:	48 8d 3d 6e ae 00 00 	lea    0xae6e(%rip),%rdi        # 14020 <_IO_stdin_used+0x20>
    91b2:	b8 00 00 00 00       	mov    $0x0,%eax
    91b7:	e8 c4 fe ff ff       	callq  9080 <printf@plt>
    91bc:	90                   	nop
    91bd:	c9                   	leaveq 
    91be:	c3                   	retq   

00000000000091bf <safe_unary_minus_func_int8_t_s>:
    91bf:	f3 0f 1e fa          	endbr64 
    91c3:	55                   	push   %rbp
    91c4:	48 89 e5             	mov    %rsp,%rbp
    91c7:	89 f8                	mov    %edi,%eax
    91c9:	88 45 fc             	mov    %al,-0x4(%rbp)
    91cc:	0f b6 45 fc          	movzbl -0x4(%rbp),%eax
    91d0:	f7 d8                	neg    %eax
    91d2:	5d                   	pop    %rbp
    91d3:	c3                   	retq   

00000000000091d4 <safe_add_func_int8_t_s_s>:
    91d4:	f3 0f 1e fa          	endbr64 
    91d8:	55                   	push   %rbp
    91d9:	48 89 e5             	mov    %rsp,%rbp
    91dc:	89 fa                	mov    %edi,%edx
    91de:	89 f0                	mov    %esi,%eax
    91e0:	88 55 fc             	mov    %dl,-0x4(%rbp)
    91e3:	88 45 f8             	mov    %al,-0x8(%rbp)
    91e6:	0f b6 55 fc          	movzbl -0x4(%rbp),%edx
    91ea:	0f b6 45 f8          	movzbl -0x8(%rbp),%eax
    91ee:	01 d0                	add    %edx,%eax
    91f0:	5d                   	pop    %rbp
    91f1:	c3                   	retq   

00000000000091f2 <safe_sub_func_int8_t_s_s>:
    91f2:	f3 0f 1e fa          	endbr64 
    91f6:	55                   	push   %rbp
    91f7:	48 89 e5             	mov    %rsp,%rbp
    91fa:	89 fa                	mov    %edi,%edx
    91fc:	89 f0                	mov    %esi,%eax
    91fe:	88 55 fc             	mov    %dl,-0x4(%rbp)
    9201:	88 45 f8             	mov    %al,-0x8(%rbp)
    9204:	0f b6 55 fc          	movzbl -0x4(%rbp),%edx
    9208:	0f b6 45 f8          	movzbl -0x8(%rbp),%eax
    920c:	29 c2                	sub    %eax,%edx
    920e:	89 d0                	mov    %edx,%eax
    9210:	5d                   	pop    %rbp
    9211:	c3                   	retq   

0000000000009212 <safe_mul_func_int8_t_s_s>:
    9212:	f3 0f 1e fa          	endbr64 
    9216:	55                   	push   %rbp
    9217:	48 89 e5             	mov    %rsp,%rbp
    921a:	89 fa                	mov    %edi,%edx
    921c:	89 f0                	mov    %esi,%eax
    921e:	88 55 fc             	mov    %dl,-0x4(%rbp)
    9221:	88 45 f8             	mov    %al,-0x8(%rbp)
    9224:	0f b6 45 fc          	movzbl -0x4(%rbp),%eax
    9228:	0f b6 55 f8          	movzbl -0x8(%rbp),%edx
    922c:	0f af c2             	imul   %edx,%eax
    922f:	5d                   	pop    %rbp
    9230:	c3                   	retq   

0000000000009231 <safe_mod_func_int8_t_s_s>:
    9231:	f3 0f 1e fa          	endbr64 
    9235:	55                   	push   %rbp
    9236:	48 89 e5             	mov    %rsp,%rbp
    9239:	89 fa                	mov    %edi,%edx
    923b:	89 f0                	mov    %esi,%eax
    923d:	88 55 fc             	mov    %dl,-0x4(%rbp)
    9240:	88 45 f8             	mov    %al,-0x8(%rbp)
    9243:	80 7d f8 00          	cmpb   $0x0,-0x8(%rbp)
    9247:	74 1b                	je     9264 <safe_mod_func_int8_t_s_s+0x33>
    9249:	80 7d fc 80          	cmpb   $0x80,-0x4(%rbp)
    924d:	75 06                	jne    9255 <safe_mod_func_int8_t_s_s+0x24>
    924f:	80 7d f8 ff          	cmpb   $0xff,-0x8(%rbp)
    9253:	74 0f                	je     9264 <safe_mod_func_int8_t_s_s+0x33>
    9255:	0f be 45 fc          	movsbl -0x4(%rbp),%eax
    9259:	0f be 4d f8          	movsbl -0x8(%rbp),%ecx
    925d:	99                   	cltd   
    925e:	f7 f9                	idiv   %ecx
    9260:	89 d0                	mov    %edx,%eax
    9262:	eb 04                	jmp    9268 <safe_mod_func_int8_t_s_s+0x37>
    9264:	0f b6 45 fc          	movzbl -0x4(%rbp),%eax
    9268:	5d                   	pop    %rbp
    9269:	c3                   	retq   

000000000000926a <safe_div_func_int8_t_s_s>:
    926a:	f3 0f 1e fa          	endbr64 
    926e:	55                   	push   %rbp
    926f:	48 89 e5             	mov    %rsp,%rbp
    9272:	89 fa                	mov    %edi,%edx
    9274:	89 f0                	mov    %esi,%eax
    9276:	88 55 fc             	mov    %dl,-0x4(%rbp)
    9279:	88 45 f8             	mov    %al,-0x8(%rbp)
    927c:	80 7d f8 00          	cmpb   $0x0,-0x8(%rbp)
    9280:	74 19                	je     929b <safe_div_func_int8_t_s_s+0x31>
    9282:	80 7d fc 80          	cmpb   $0x80,-0x4(%rbp)
    9286:	75 06                	jne    928e <safe_div_func_int8_t_s_s+0x24>
    9288:	80 7d f8 ff          	cmpb   $0xff,-0x8(%rbp)
    928c:	74 0d                	je     929b <safe_div_func_int8_t_s_s+0x31>
    928e:	0f be 45 fc          	movsbl -0x4(%rbp),%eax
    9292:	0f be 4d f8          	movsbl -0x8(%rbp),%ecx
    9296:	99                   	cltd   
    9297:	f7 f9                	idiv   %ecx
    9299:	eb 04                	jmp    929f <safe_div_func_int8_t_s_s+0x35>
    929b:	0f b6 45 fc          	movzbl -0x4(%rbp),%eax
    929f:	5d                   	pop    %rbp
    92a0:	c3                   	retq   

00000000000092a1 <safe_lshift_func_int8_t_s_s>:
    92a1:	f3 0f 1e fa          	endbr64 
    92a5:	55                   	push   %rbp
    92a6:	48 89 e5             	mov    %rsp,%rbp
    92a9:	89 f8                	mov    %edi,%eax
    92ab:	89 75 f8             	mov    %esi,-0x8(%rbp)
    92ae:	88 45 fc             	mov    %al,-0x4(%rbp)
    92b1:	80 7d fc 00          	cmpb   $0x0,-0x4(%rbp)
    92b5:	78 31                	js     92e8 <safe_lshift_func_int8_t_s_s+0x47>
    92b7:	83 7d f8 00          	cmpl   $0x0,-0x8(%rbp)
    92bb:	78 2b                	js     92e8 <safe_lshift_func_int8_t_s_s+0x47>
    92bd:	83 7d f8 1f          	cmpl   $0x1f,-0x8(%rbp)
    92c1:	7f 25                	jg     92e8 <safe_lshift_func_int8_t_s_s+0x47>
    92c3:	0f be 55 fc          	movsbl -0x4(%rbp),%edx
    92c7:	8b 45 f8             	mov    -0x8(%rbp),%eax
    92ca:	be 7f 00 00 00       	mov    $0x7f,%esi
    92cf:	89 c1                	mov    %eax,%ecx
    92d1:	d3 fe                	sar    %cl,%esi
    92d3:	89 f0                	mov    %esi,%eax
    92d5:	39 c2                	cmp    %eax,%edx
    92d7:	7f 0f                	jg     92e8 <safe_lshift_func_int8_t_s_s+0x47>
    92d9:	0f be 55 fc          	movsbl -0x4(%rbp),%edx
    92dd:	8b 45 f8             	mov    -0x8(%rbp),%eax
    92e0:	89 c1                	mov    %eax,%ecx
    92e2:	d3 e2                	shl    %cl,%edx
    92e4:	89 d0                	mov    %edx,%eax
    92e6:	eb 04                	jmp    92ec <safe_lshift_func_int8_t_s_s+0x4b>
    92e8:	0f b6 45 fc          	movzbl -0x4(%rbp),%eax
    92ec:	5d                   	pop    %rbp
    92ed:	c3                   	retq   

00000000000092ee <safe_lshift_func_int8_t_s_u>:
    92ee:	f3 0f 1e fa          	endbr64 
    92f2:	55                   	push   %rbp
    92f3:	48 89 e5             	mov    %rsp,%rbp
    92f6:	89 f8                	mov    %edi,%eax
    92f8:	89 75 f8             	mov    %esi,-0x8(%rbp)
    92fb:	88 45 fc             	mov    %al,-0x4(%rbp)
    92fe:	80 7d fc 00          	cmpb   $0x0,-0x4(%rbp)
    9302:	78 2b                	js     932f <safe_lshift_func_int8_t_s_u+0x41>
    9304:	83 7d f8 1f          	cmpl   $0x1f,-0x8(%rbp)
    9308:	77 25                	ja     932f <safe_lshift_func_int8_t_s_u+0x41>
    930a:	0f be 55 fc          	movsbl -0x4(%rbp),%edx
    930e:	8b 45 f8             	mov    -0x8(%rbp),%eax
    9311:	be 7f 00 00 00       	mov    $0x7f,%esi
    9316:	89 c1                	mov    %eax,%ecx
    9318:	d3 fe                	sar    %cl,%esi
    931a:	89 f0                	mov    %esi,%eax
    931c:	39 c2                	cmp    %eax,%edx
    931e:	7f 0f                	jg     932f <safe_lshift_func_int8_t_s_u+0x41>
    9320:	0f be 55 fc          	movsbl -0x4(%rbp),%edx
    9324:	8b 45 f8             	mov    -0x8(%rbp),%eax
    9327:	89 c1                	mov    %eax,%ecx
    9329:	d3 e2                	shl    %cl,%edx
    932b:	89 d0                	mov    %edx,%eax
    932d:	eb 04                	jmp    9333 <safe_lshift_func_int8_t_s_u+0x45>
    932f:	0f b6 45 fc          	movzbl -0x4(%rbp),%eax
    9333:	5d                   	pop    %rbp
    9334:	c3                   	retq   

0000000000009335 <safe_rshift_func_int8_t_s_s>:
    9335:	f3 0f 1e fa          	endbr64 
    9339:	55                   	push   %rbp
    933a:	48 89 e5             	mov    %rsp,%rbp
    933d:	89 f8                	mov    %edi,%eax
    933f:	89 75 f8             	mov    %esi,-0x8(%rbp)
    9342:	88 45 fc             	mov    %al,-0x4(%rbp)
    9345:	80 7d fc 00          	cmpb   $0x0,-0x4(%rbp)
    9349:	78 1b                	js     9366 <safe_rshift_func_int8_t_s_s+0x31>
    934b:	83 7d f8 00          	cmpl   $0x0,-0x8(%rbp)
    934f:	78 15                	js     9366 <safe_rshift_func_int8_t_s_s+0x31>
    9351:	83 7d f8 1f          	cmpl   $0x1f,-0x8(%rbp)
    9355:	7f 0f                	jg     9366 <safe_rshift_func_int8_t_s_s+0x31>
    9357:	0f be 55 fc          	movsbl -0x4(%rbp),%edx
    935b:	8b 45 f8             	mov    -0x8(%rbp),%eax
    935e:	89 c1                	mov    %eax,%ecx
    9360:	d3 fa                	sar    %cl,%edx
    9362:	89 d0                	mov    %edx,%eax
    9364:	eb 04                	jmp    936a <safe_rshift_func_int8_t_s_s+0x35>
    9366:	0f b6 45 fc          	movzbl -0x4(%rbp),%eax
    936a:	5d                   	pop    %rbp
    936b:	c3                   	retq   

000000000000936c <safe_rshift_func_int8_t_s_u>:
    936c:	f3 0f 1e fa          	endbr64 
    9370:	55                   	push   %rbp
    9371:	48 89 e5             	mov    %rsp,%rbp
    9374:	89 f8                	mov    %edi,%eax
    9376:	89 75 f8             	mov    %esi,-0x8(%rbp)
    9379:	88 45 fc             	mov    %al,-0x4(%rbp)
    937c:	80 7d fc 00          	cmpb   $0x0,-0x4(%rbp)
    9380:	78 15                	js     9397 <safe_rshift_func_int8_t_s_u+0x2b>
    9382:	83 7d f8 1f          	cmpl   $0x1f,-0x8(%rbp)
    9386:	77 0f                	ja     9397 <safe_rshift_func_int8_t_s_u+0x2b>
    9388:	0f be 55 fc          	movsbl -0x4(%rbp),%edx
    938c:	8b 45 f8             	mov    -0x8(%rbp),%eax
    938f:	89 c1                	mov    %eax,%ecx
    9391:	d3 fa                	sar    %cl,%edx
    9393:	89 d0                	mov    %edx,%eax
    9395:	eb 04                	jmp    939b <safe_rshift_func_int8_t_s_u+0x2f>
    9397:	0f b6 45 fc          	movzbl -0x4(%rbp),%eax
    939b:	5d                   	pop    %rbp
    939c:	c3                   	retq   

000000000000939d <safe_unary_minus_func_int16_t_s>:
    939d:	f3 0f 1e fa          	endbr64 
    93a1:	55                   	push   %rbp
    93a2:	48 89 e5             	mov    %rsp,%rbp
    93a5:	89 f8                	mov    %edi,%eax
    93a7:	66 89 45 fc          	mov    %ax,-0x4(%rbp)
    93ab:	0f b7 45 fc          	movzwl -0x4(%rbp),%eax
    93af:	f7 d8                	neg    %eax
    93b1:	5d                   	pop    %rbp
    93b2:	c3                   	retq   

00000000000093b3 <safe_add_func_int16_t_s_s>:
    93b3:	f3 0f 1e fa          	endbr64 
    93b7:	55                   	push   %rbp
    93b8:	48 89 e5             	mov    %rsp,%rbp
    93bb:	89 fa                	mov    %edi,%edx
    93bd:	89 f0                	mov    %esi,%eax
    93bf:	66 89 55 fc          	mov    %dx,-0x4(%rbp)
    93c3:	66 89 45 f8          	mov    %ax,-0x8(%rbp)
    93c7:	0f b7 55 fc          	movzwl -0x4(%rbp),%edx
    93cb:	0f b7 45 f8          	movzwl -0x8(%rbp),%eax
    93cf:	01 d0                	add    %edx,%eax
    93d1:	5d                   	pop    %rbp
    93d2:	c3                   	retq   

00000000000093d3 <safe_sub_func_int16_t_s_s>:
    93d3:	f3 0f 1e fa          	endbr64 
    93d7:	55                   	push   %rbp
    93d8:	48 89 e5             	mov    %rsp,%rbp
    93db:	89 fa                	mov    %edi,%edx
    93dd:	89 f0                	mov    %esi,%eax
    93df:	66 89 55 fc          	mov    %dx,-0x4(%rbp)
    93e3:	66 89 45 f8          	mov    %ax,-0x8(%rbp)
    93e7:	0f b7 55 fc          	movzwl -0x4(%rbp),%edx
    93eb:	0f b7 45 f8          	movzwl -0x8(%rbp),%eax
    93ef:	29 c2                	sub    %eax,%edx
    93f1:	89 d0                	mov    %edx,%eax
    93f3:	5d                   	pop    %rbp
    93f4:	c3                   	retq   

00000000000093f5 <safe_mul_func_int16_t_s_s>:
    93f5:	f3 0f 1e fa          	endbr64 
    93f9:	55                   	push   %rbp
    93fa:	48 89 e5             	mov    %rsp,%rbp
    93fd:	89 fa                	mov    %edi,%edx
    93ff:	89 f0                	mov    %esi,%eax
    9401:	66 89 55 fc          	mov    %dx,-0x4(%rbp)
    9405:	66 89 45 f8          	mov    %ax,-0x8(%rbp)
    9409:	0f b7 55 fc          	movzwl -0x4(%rbp),%edx
    940d:	0f b7 45 f8          	movzwl -0x8(%rbp),%eax
    9411:	0f af c2             	imul   %edx,%eax
    9414:	5d                   	pop    %rbp
    9415:	c3                   	retq   

0000000000009416 <safe_mod_func_int16_t_s_s>:
    9416:	f3 0f 1e fa          	endbr64 
    941a:	55                   	push   %rbp
    941b:	48 89 e5             	mov    %rsp,%rbp
    941e:	89 fa                	mov    %edi,%edx
    9420:	89 f0                	mov    %esi,%eax
    9422:	66 89 55 fc          	mov    %dx,-0x4(%rbp)
    9426:	66 89 45 f8          	mov    %ax,-0x8(%rbp)
    942a:	66 83 7d f8 00       	cmpw   $0x0,-0x8(%rbp)
    942f:	74 1e                	je     944f <safe_mod_func_int16_t_s_s+0x39>
    9431:	66 81 7d fc 00 80    	cmpw   $0x8000,-0x4(%rbp)
    9437:	75 07                	jne    9440 <safe_mod_func_int16_t_s_s+0x2a>
    9439:	66 83 7d f8 ff       	cmpw   $0xffff,-0x8(%rbp)
    943e:	74 0f                	je     944f <safe_mod_func_int16_t_s_s+0x39>
    9440:	0f bf 45 fc          	movswl -0x4(%rbp),%eax
    9444:	0f bf 4d f8          	movswl -0x8(%rbp),%ecx
    9448:	99                   	cltd   
    9449:	f7 f9                	idiv   %ecx
    944b:	89 d0                	mov    %edx,%eax
    944d:	eb 04                	jmp    9453 <safe_mod_func_int16_t_s_s+0x3d>
    944f:	0f b7 45 fc          	movzwl -0x4(%rbp),%eax
    9453:	5d                   	pop    %rbp
    9454:	c3                   	retq   

0000000000009455 <safe_div_func_int16_t_s_s>:
    9455:	f3 0f 1e fa          	endbr64 
    9459:	55                   	push   %rbp
    945a:	48 89 e5             	mov    %rsp,%rbp
    945d:	89 fa                	mov    %edi,%edx
    945f:	89 f0                	mov    %esi,%eax
    9461:	66 89 55 fc          	mov    %dx,-0x4(%rbp)
    9465:	66 89 45 f8          	mov    %ax,-0x8(%rbp)
    9469:	66 83 7d f8 00       	cmpw   $0x0,-0x8(%rbp)
    946e:	74 1c                	je     948c <safe_div_func_int16_t_s_s+0x37>
    9470:	66 81 7d fc 00 80    	cmpw   $0x8000,-0x4(%rbp)
    9476:	75 07                	jne    947f <safe_div_func_int16_t_s_s+0x2a>
    9478:	66 83 7d f8 ff       	cmpw   $0xffff,-0x8(%rbp)
    947d:	74 0d                	je     948c <safe_div_func_int16_t_s_s+0x37>
    947f:	0f bf 45 fc          	movswl -0x4(%rbp),%eax
    9483:	0f bf 4d f8          	movswl -0x8(%rbp),%ecx
    9487:	99                   	cltd   
    9488:	f7 f9                	idiv   %ecx
    948a:	eb 04                	jmp    9490 <safe_div_func_int16_t_s_s+0x3b>
    948c:	0f b7 45 fc          	movzwl -0x4(%rbp),%eax
    9490:	5d                   	pop    %rbp
    9491:	c3                   	retq   

0000000000009492 <safe_lshift_func_int16_t_s_s>:
    9492:	f3 0f 1e fa          	endbr64 
    9496:	55                   	push   %rbp
    9497:	48 89 e5             	mov    %rsp,%rbp
    949a:	89 f8                	mov    %edi,%eax
    949c:	89 75 f8             	mov    %esi,-0x8(%rbp)
    949f:	66 89 45 fc          	mov    %ax,-0x4(%rbp)
    94a3:	66 83 7d fc 00       	cmpw   $0x0,-0x4(%rbp)
    94a8:	78 31                	js     94db <safe_lshift_func_int16_t_s_s+0x49>
    94aa:	83 7d f8 00          	cmpl   $0x0,-0x8(%rbp)
    94ae:	78 2b                	js     94db <safe_lshift_func_int16_t_s_s+0x49>
    94b0:	83 7d f8 1f          	cmpl   $0x1f,-0x8(%rbp)
    94b4:	7f 25                	jg     94db <safe_lshift_func_int16_t_s_s+0x49>
    94b6:	0f bf 55 fc          	movswl -0x4(%rbp),%edx
    94ba:	8b 45 f8             	mov    -0x8(%rbp),%eax
    94bd:	be ff 7f 00 00       	mov    $0x7fff,%esi
    94c2:	89 c1                	mov    %eax,%ecx
    94c4:	d3 fe                	sar    %cl,%esi
    94c6:	89 f0                	mov    %esi,%eax
    94c8:	39 c2                	cmp    %eax,%edx
    94ca:	7f 0f                	jg     94db <safe_lshift_func_int16_t_s_s+0x49>
    94cc:	0f bf 55 fc          	movswl -0x4(%rbp),%edx
    94d0:	8b 45 f8             	mov    -0x8(%rbp),%eax
    94d3:	89 c1                	mov    %eax,%ecx
    94d5:	d3 e2                	shl    %cl,%edx
    94d7:	89 d0                	mov    %edx,%eax
    94d9:	eb 04                	jmp    94df <safe_lshift_func_int16_t_s_s+0x4d>
    94db:	0f b7 45 fc          	movzwl -0x4(%rbp),%eax
    94df:	5d                   	pop    %rbp
    94e0:	c3                   	retq   

00000000000094e1 <safe_lshift_func_int16_t_s_u>:
    94e1:	f3 0f 1e fa          	endbr64 
    94e5:	55                   	push   %rbp
    94e6:	48 89 e5             	mov    %rsp,%rbp
    94e9:	89 f8                	mov    %edi,%eax
    94eb:	89 75 f8             	mov    %esi,-0x8(%rbp)
    94ee:	66 89 45 fc          	mov    %ax,-0x4(%rbp)
    94f2:	66 83 7d fc 00       	cmpw   $0x0,-0x4(%rbp)
    94f7:	78 2b                	js     9524 <safe_lshift_func_int16_t_s_u+0x43>
    94f9:	83 7d f8 1f          	cmpl   $0x1f,-0x8(%rbp)
    94fd:	77 25                	ja     9524 <safe_lshift_func_int16_t_s_u+0x43>
    94ff:	0f bf 55 fc          	movswl -0x4(%rbp),%edx
    9503:	8b 45 f8             	mov    -0x8(%rbp),%eax
    9506:	be ff 7f 00 00       	mov    $0x7fff,%esi
    950b:	89 c1                	mov    %eax,%ecx
    950d:	d3 fe                	sar    %cl,%esi
    950f:	89 f0                	mov    %esi,%eax
    9511:	39 c2                	cmp    %eax,%edx
    9513:	7f 0f                	jg     9524 <safe_lshift_func_int16_t_s_u+0x43>
    9515:	0f bf 55 fc          	movswl -0x4(%rbp),%edx
    9519:	8b 45 f8             	mov    -0x8(%rbp),%eax
    951c:	89 c1                	mov    %eax,%ecx
    951e:	d3 e2                	shl    %cl,%edx
    9520:	89 d0                	mov    %edx,%eax
    9522:	eb 04                	jmp    9528 <safe_lshift_func_int16_t_s_u+0x47>
    9524:	0f b7 45 fc          	movzwl -0x4(%rbp),%eax
    9528:	5d                   	pop    %rbp
    9529:	c3                   	retq   

000000000000952a <safe_rshift_func_int16_t_s_s>:
    952a:	f3 0f 1e fa          	endbr64 
    952e:	55                   	push   %rbp
    952f:	48 89 e5             	mov    %rsp,%rbp
    9532:	89 f8                	mov    %edi,%eax
    9534:	89 75 f8             	mov    %esi,-0x8(%rbp)
    9537:	66 89 45 fc          	mov    %ax,-0x4(%rbp)
    953b:	66 83 7d fc 00       	cmpw   $0x0,-0x4(%rbp)
    9540:	78 1b                	js     955d <safe_rshift_func_int16_t_s_s+0x33>
    9542:	83 7d f8 00          	cmpl   $0x0,-0x8(%rbp)
    9546:	78 15                	js     955d <safe_rshift_func_int16_t_s_s+0x33>
    9548:	83 7d f8 1f          	cmpl   $0x1f,-0x8(%rbp)
    954c:	7f 0f                	jg     955d <safe_rshift_func_int16_t_s_s+0x33>
    954e:	0f bf 55 fc          	movswl -0x4(%rbp),%edx
    9552:	8b 45 f8             	mov    -0x8(%rbp),%eax
    9555:	89 c1                	mov    %eax,%ecx
    9557:	d3 fa                	sar    %cl,%edx
    9559:	89 d0                	mov    %edx,%eax
    955b:	eb 04                	jmp    9561 <safe_rshift_func_int16_t_s_s+0x37>
    955d:	0f b7 45 fc          	movzwl -0x4(%rbp),%eax
    9561:	5d                   	pop    %rbp
    9562:	c3                   	retq   

0000000000009563 <safe_rshift_func_int16_t_s_u>:
    9563:	f3 0f 1e fa          	endbr64 
    9567:	55                   	push   %rbp
    9568:	48 89 e5             	mov    %rsp,%rbp
    956b:	89 f8                	mov    %edi,%eax
    956d:	89 75 f8             	mov    %esi,-0x8(%rbp)
    9570:	66 89 45 fc          	mov    %ax,-0x4(%rbp)
    9574:	66 83 7d fc 00       	cmpw   $0x0,-0x4(%rbp)
    9579:	78 15                	js     9590 <safe_rshift_func_int16_t_s_u+0x2d>
    957b:	83 7d f8 1f          	cmpl   $0x1f,-0x8(%rbp)
    957f:	77 0f                	ja     9590 <safe_rshift_func_int16_t_s_u+0x2d>
    9581:	0f bf 55 fc          	movswl -0x4(%rbp),%edx
    9585:	8b 45 f8             	mov    -0x8(%rbp),%eax
    9588:	89 c1                	mov    %eax,%ecx
    958a:	d3 fa                	sar    %cl,%edx
    958c:	89 d0                	mov    %edx,%eax
    958e:	eb 04                	jmp    9594 <safe_rshift_func_int16_t_s_u+0x31>
    9590:	0f b7 45 fc          	movzwl -0x4(%rbp),%eax
    9594:	5d                   	pop    %rbp
    9595:	c3                   	retq   

0000000000009596 <safe_unary_minus_func_int32_t_s>:
    9596:	f3 0f 1e fa          	endbr64 
    959a:	55                   	push   %rbp
    959b:	48 89 e5             	mov    %rsp,%rbp
    959e:	89 7d fc             	mov    %edi,-0x4(%rbp)
    95a1:	81 7d fc 00 00 00 80 	cmpl   $0x80000000,-0x4(%rbp)
    95a8:	74 07                	je     95b1 <safe_unary_minus_func_int32_t_s+0x1b>
    95aa:	8b 45 fc             	mov    -0x4(%rbp),%eax
    95ad:	f7 d8                	neg    %eax
    95af:	eb 03                	jmp    95b4 <safe_unary_minus_func_int32_t_s+0x1e>
    95b1:	8b 45 fc             	mov    -0x4(%rbp),%eax
    95b4:	5d                   	pop    %rbp
    95b5:	c3                   	retq   

00000000000095b6 <safe_add_func_int32_t_s_s>:
    95b6:	f3 0f 1e fa          	endbr64 
    95ba:	55                   	push   %rbp
    95bb:	48 89 e5             	mov    %rsp,%rbp
    95be:	89 7d fc             	mov    %edi,-0x4(%rbp)
    95c1:	89 75 f8             	mov    %esi,-0x8(%rbp)
    95c4:	83 7d fc 00          	cmpl   $0x0,-0x4(%rbp)
    95c8:	7e 13                	jle    95dd <safe_add_func_int32_t_s_s+0x27>
    95ca:	83 7d f8 00          	cmpl   $0x0,-0x8(%rbp)
    95ce:	7e 0d                	jle    95dd <safe_add_func_int32_t_s_s+0x27>
    95d0:	b8 ff ff ff 7f       	mov    $0x7fffffff,%eax
    95d5:	2b 45 f8             	sub    -0x8(%rbp),%eax
    95d8:	39 45 fc             	cmp    %eax,-0x4(%rbp)
    95db:	7f 23                	jg     9600 <safe_add_func_int32_t_s_s+0x4a>
    95dd:	83 7d fc 00          	cmpl   $0x0,-0x4(%rbp)
    95e1:	79 13                	jns    95f6 <safe_add_func_int32_t_s_s+0x40>
    95e3:	83 7d f8 00          	cmpl   $0x0,-0x8(%rbp)
    95e7:	79 0d                	jns    95f6 <safe_add_func_int32_t_s_s+0x40>
    95e9:	b8 00 00 00 80       	mov    $0x80000000,%eax
    95ee:	2b 45 f8             	sub    -0x8(%rbp),%eax
    95f1:	39 45 fc             	cmp    %eax,-0x4(%rbp)
    95f4:	7c 0a                	jl     9600 <safe_add_func_int32_t_s_s+0x4a>
    95f6:	8b 55 fc             	mov    -0x4(%rbp),%edx
    95f9:	8b 45 f8             	mov    -0x8(%rbp),%eax
    95fc:	01 d0                	add    %edx,%eax
    95fe:	eb 03                	jmp    9603 <safe_add_func_int32_t_s_s+0x4d>
    9600:	8b 45 fc             	mov    -0x4(%rbp),%eax
    9603:	5d                   	pop    %rbp
    9604:	c3                   	retq   

0000000000009605 <safe_sub_func_int32_t_s_s>:
    9605:	f3 0f 1e fa          	endbr64 
    9609:	55                   	push   %rbp
    960a:	48 89 e5             	mov    %rsp,%rbp
    960d:	89 7d fc             	mov    %edi,-0x4(%rbp)
    9610:	89 75 f8             	mov    %esi,-0x8(%rbp)
    9613:	8b 45 fc             	mov    -0x4(%rbp),%eax
    9616:	33 45 f8             	xor    -0x8(%rbp),%eax
    9619:	89 c2                	mov    %eax,%edx
    961b:	8b 45 fc             	mov    -0x4(%rbp),%eax
    961e:	33 45 f8             	xor    -0x8(%rbp),%eax
    9621:	25 00 00 00 80       	and    $0x80000000,%eax
    9626:	33 45 fc             	xor    -0x4(%rbp),%eax
    9629:	2b 45 f8             	sub    -0x8(%rbp),%eax
    962c:	33 45 f8             	xor    -0x8(%rbp),%eax
    962f:	21 d0                	and    %edx,%eax
    9631:	85 c0                	test   %eax,%eax
    9633:	78 08                	js     963d <safe_sub_func_int32_t_s_s+0x38>
    9635:	8b 45 fc             	mov    -0x4(%rbp),%eax
    9638:	2b 45 f8             	sub    -0x8(%rbp),%eax
    963b:	eb 03                	jmp    9640 <safe_sub_func_int32_t_s_s+0x3b>
    963d:	8b 45 fc             	mov    -0x4(%rbp),%eax
    9640:	5d                   	pop    %rbp
    9641:	c3                   	retq   

0000000000009642 <safe_mul_func_int32_t_s_s>:
    9642:	f3 0f 1e fa          	endbr64 
    9646:	55                   	push   %rbp
    9647:	48 89 e5             	mov    %rsp,%rbp
    964a:	89 7d fc             	mov    %edi,-0x4(%rbp)
    964d:	89 75 f8             	mov    %esi,-0x8(%rbp)
    9650:	83 7d fc 00          	cmpl   $0x0,-0x4(%rbp)
    9654:	7e 14                	jle    966a <safe_mul_func_int32_t_s_s+0x28>
    9656:	83 7d f8 00          	cmpl   $0x0,-0x8(%rbp)
    965a:	7e 0e                	jle    966a <safe_mul_func_int32_t_s_s+0x28>
    965c:	b8 ff ff ff 7f       	mov    $0x7fffffff,%eax
    9661:	99                   	cltd   
    9662:	f7 7d f8             	idivl  -0x8(%rbp)
    9665:	39 45 fc             	cmp    %eax,-0x4(%rbp)
    9668:	7f 5d                	jg     96c7 <safe_mul_func_int32_t_s_s+0x85>
    966a:	83 7d fc 00          	cmpl   $0x0,-0x4(%rbp)
    966e:	7e 14                	jle    9684 <safe_mul_func_int32_t_s_s+0x42>
    9670:	83 7d f8 00          	cmpl   $0x0,-0x8(%rbp)
    9674:	7f 0e                	jg     9684 <safe_mul_func_int32_t_s_s+0x42>
    9676:	b8 00 00 00 80       	mov    $0x80000000,%eax
    967b:	99                   	cltd   
    967c:	f7 7d fc             	idivl  -0x4(%rbp)
    967f:	39 45 f8             	cmp    %eax,-0x8(%rbp)
    9682:	7c 43                	jl     96c7 <safe_mul_func_int32_t_s_s+0x85>
    9684:	83 7d fc 00          	cmpl   $0x0,-0x4(%rbp)
    9688:	7f 14                	jg     969e <safe_mul_func_int32_t_s_s+0x5c>
    968a:	83 7d f8 00          	cmpl   $0x0,-0x8(%rbp)
    968e:	7e 0e                	jle    969e <safe_mul_func_int32_t_s_s+0x5c>
    9690:	b8 00 00 00 80       	mov    $0x80000000,%eax
    9695:	99                   	cltd   
    9696:	f7 7d f8             	idivl  -0x8(%rbp)
    9699:	39 45 fc             	cmp    %eax,-0x4(%rbp)
    969c:	7c 29                	jl     96c7 <safe_mul_func_int32_t_s_s+0x85>
    969e:	83 7d fc 00          	cmpl   $0x0,-0x4(%rbp)
    96a2:	7f 1a                	jg     96be <safe_mul_func_int32_t_s_s+0x7c>
    96a4:	83 7d f8 00          	cmpl   $0x0,-0x8(%rbp)
    96a8:	7f 14                	jg     96be <safe_mul_func_int32_t_s_s+0x7c>
    96aa:	83 7d fc 00          	cmpl   $0x0,-0x4(%rbp)
    96ae:	74 0e                	je     96be <safe_mul_func_int32_t_s_s+0x7c>
    96b0:	b8 ff ff ff 7f       	mov    $0x7fffffff,%eax
    96b5:	99                   	cltd   
    96b6:	f7 7d fc             	idivl  -0x4(%rbp)
    96b9:	39 45 f8             	cmp    %eax,-0x8(%rbp)
    96bc:	7c 09                	jl     96c7 <safe_mul_func_int32_t_s_s+0x85>
    96be:	8b 45 fc             	mov    -0x4(%rbp),%eax
    96c1:	0f af 45 f8          	imul   -0x8(%rbp),%eax
    96c5:	eb 03                	jmp    96ca <safe_mul_func_int32_t_s_s+0x88>
    96c7:	8b 45 fc             	mov    -0x4(%rbp),%eax
    96ca:	5d                   	pop    %rbp
    96cb:	c3                   	retq   

00000000000096cc <safe_mod_func_int32_t_s_s>:
    96cc:	f3 0f 1e fa          	endbr64 
    96d0:	55                   	push   %rbp
    96d1:	48 89 e5             	mov    %rsp,%rbp
    96d4:	89 7d fc             	mov    %edi,-0x4(%rbp)
    96d7:	89 75 f8             	mov    %esi,-0x8(%rbp)
    96da:	83 7d f8 00          	cmpl   $0x0,-0x8(%rbp)
    96de:	74 1a                	je     96fa <safe_mod_func_int32_t_s_s+0x2e>
    96e0:	81 7d fc 00 00 00 80 	cmpl   $0x80000000,-0x4(%rbp)
    96e7:	75 06                	jne    96ef <safe_mod_func_int32_t_s_s+0x23>
    96e9:	83 7d f8 ff          	cmpl   $0xffffffff,-0x8(%rbp)
    96ed:	74 0b                	je     96fa <safe_mod_func_int32_t_s_s+0x2e>
    96ef:	8b 45 fc             	mov    -0x4(%rbp),%eax
    96f2:	99                   	cltd   
    96f3:	f7 7d f8             	idivl  -0x8(%rbp)
    96f6:	89 d0                	mov    %edx,%eax
    96f8:	eb 03                	jmp    96fd <safe_mod_func_int32_t_s_s+0x31>
    96fa:	8b 45 fc             	mov    -0x4(%rbp),%eax
    96fd:	5d                   	pop    %rbp
    96fe:	c3                   	retq   

00000000000096ff <safe_div_func_int32_t_s_s>:
    96ff:	f3 0f 1e fa          	endbr64 
    9703:	55                   	push   %rbp
    9704:	48 89 e5             	mov    %rsp,%rbp
    9707:	89 7d fc             	mov    %edi,-0x4(%rbp)
    970a:	89 75 f8             	mov    %esi,-0x8(%rbp)
    970d:	83 7d f8 00          	cmpl   $0x0,-0x8(%rbp)
    9711:	74 18                	je     972b <safe_div_func_int32_t_s_s+0x2c>
    9713:	81 7d fc 00 00 00 80 	cmpl   $0x80000000,-0x4(%rbp)
    971a:	75 06                	jne    9722 <safe_div_func_int32_t_s_s+0x23>
    971c:	83 7d f8 ff          	cmpl   $0xffffffff,-0x8(%rbp)
    9720:	74 09                	je     972b <safe_div_func_int32_t_s_s+0x2c>
    9722:	8b 45 fc             	mov    -0x4(%rbp),%eax
    9725:	99                   	cltd   
    9726:	f7 7d f8             	idivl  -0x8(%rbp)
    9729:	eb 03                	jmp    972e <safe_div_func_int32_t_s_s+0x2f>
    972b:	8b 45 fc             	mov    -0x4(%rbp),%eax
    972e:	5d                   	pop    %rbp
    972f:	c3                   	retq   

0000000000009730 <safe_lshift_func_int32_t_s_s>:
    9730:	f3 0f 1e fa          	endbr64 
    9734:	55                   	push   %rbp
    9735:	48 89 e5             	mov    %rsp,%rbp
    9738:	89 7d fc             	mov    %edi,-0x4(%rbp)
    973b:	89 75 f8             	mov    %esi,-0x8(%rbp)
    973e:	83 7d fc 00          	cmpl   $0x0,-0x4(%rbp)
    9742:	78 2d                	js     9771 <safe_lshift_func_int32_t_s_s+0x41>
    9744:	83 7d f8 00          	cmpl   $0x0,-0x8(%rbp)
    9748:	78 27                	js     9771 <safe_lshift_func_int32_t_s_s+0x41>
    974a:	83 7d f8 1f          	cmpl   $0x1f,-0x8(%rbp)
    974e:	7f 21                	jg     9771 <safe_lshift_func_int32_t_s_s+0x41>
    9750:	8b 45 f8             	mov    -0x8(%rbp),%eax
    9753:	ba ff ff ff 7f       	mov    $0x7fffffff,%edx
    9758:	89 c1                	mov    %eax,%ecx
    975a:	d3 fa                	sar    %cl,%edx
    975c:	89 d0                	mov    %edx,%eax
    975e:	39 45 fc             	cmp    %eax,-0x4(%rbp)
    9761:	7f 0e                	jg     9771 <safe_lshift_func_int32_t_s_s+0x41>
    9763:	8b 45 f8             	mov    -0x8(%rbp),%eax
    9766:	8b 55 fc             	mov    -0x4(%rbp),%edx
    9769:	89 c1                	mov    %eax,%ecx
    976b:	d3 e2                	shl    %cl,%edx
    976d:	89 d0                	mov    %edx,%eax
    976f:	eb 03                	jmp    9774 <safe_lshift_func_int32_t_s_s+0x44>
    9771:	8b 45 fc             	mov    -0x4(%rbp),%eax
    9774:	5d                   	pop    %rbp
    9775:	c3                   	retq   

0000000000009776 <safe_lshift_func_int32_t_s_u>:
    9776:	f3 0f 1e fa          	endbr64 
    977a:	55                   	push   %rbp
    977b:	48 89 e5             	mov    %rsp,%rbp
    977e:	89 7d fc             	mov    %edi,-0x4(%rbp)
    9781:	89 75 f8             	mov    %esi,-0x8(%rbp)
    9784:	83 7d fc 00          	cmpl   $0x0,-0x4(%rbp)
    9788:	78 27                	js     97b1 <safe_lshift_func_int32_t_s_u+0x3b>
    978a:	83 7d f8 1f          	cmpl   $0x1f,-0x8(%rbp)
    978e:	77 21                	ja     97b1 <safe_lshift_func_int32_t_s_u+0x3b>
    9790:	8b 45 f8             	mov    -0x8(%rbp),%eax
    9793:	ba ff ff ff 7f       	mov    $0x7fffffff,%edx
    9798:	89 c1                	mov    %eax,%ecx
    979a:	d3 fa                	sar    %cl,%edx
    979c:	89 d0                	mov    %edx,%eax
    979e:	39 45 fc             	cmp    %eax,-0x4(%rbp)
    97a1:	7f 0e                	jg     97b1 <safe_lshift_func_int32_t_s_u+0x3b>
    97a3:	8b 45 f8             	mov    -0x8(%rbp),%eax
    97a6:	8b 55 fc             	mov    -0x4(%rbp),%edx
    97a9:	89 c1                	mov    %eax,%ecx
    97ab:	d3 e2                	shl    %cl,%edx
    97ad:	89 d0                	mov    %edx,%eax
    97af:	eb 03                	jmp    97b4 <safe_lshift_func_int32_t_s_u+0x3e>
    97b1:	8b 45 fc             	mov    -0x4(%rbp),%eax
    97b4:	5d                   	pop    %rbp
    97b5:	c3                   	retq   

00000000000097b6 <safe_rshift_func_int32_t_s_s>:
    97b6:	f3 0f 1e fa          	endbr64 
    97ba:	55                   	push   %rbp
    97bb:	48 89 e5             	mov    %rsp,%rbp
    97be:	89 7d fc             	mov    %edi,-0x4(%rbp)
    97c1:	89 75 f8             	mov    %esi,-0x8(%rbp)
    97c4:	83 7d fc 00          	cmpl   $0x0,-0x4(%rbp)
    97c8:	78 1a                	js     97e4 <safe_rshift_func_int32_t_s_s+0x2e>
    97ca:	83 7d f8 00          	cmpl   $0x0,-0x8(%rbp)
    97ce:	78 14                	js     97e4 <safe_rshift_func_int32_t_s_s+0x2e>
    97d0:	83 7d f8 1f          	cmpl   $0x1f,-0x8(%rbp)
    97d4:	7f 0e                	jg     97e4 <safe_rshift_func_int32_t_s_s+0x2e>
    97d6:	8b 45 f8             	mov    -0x8(%rbp),%eax
    97d9:	8b 55 fc             	mov    -0x4(%rbp),%edx
    97dc:	89 c1                	mov    %eax,%ecx
    97de:	d3 fa                	sar    %cl,%edx
    97e0:	89 d0                	mov    %edx,%eax
    97e2:	eb 03                	jmp    97e7 <safe_rshift_func_int32_t_s_s+0x31>
    97e4:	8b 45 fc             	mov    -0x4(%rbp),%eax
    97e7:	5d                   	pop    %rbp
    97e8:	c3                   	retq   

00000000000097e9 <safe_rshift_func_int32_t_s_u>:
    97e9:	f3 0f 1e fa          	endbr64 
    97ed:	55                   	push   %rbp
    97ee:	48 89 e5             	mov    %rsp,%rbp
    97f1:	89 7d fc             	mov    %edi,-0x4(%rbp)
    97f4:	89 75 f8             	mov    %esi,-0x8(%rbp)
    97f7:	83 7d fc 00          	cmpl   $0x0,-0x4(%rbp)
    97fb:	78 14                	js     9811 <safe_rshift_func_int32_t_s_u+0x28>
    97fd:	83 7d f8 1f          	cmpl   $0x1f,-0x8(%rbp)
    9801:	77 0e                	ja     9811 <safe_rshift_func_int32_t_s_u+0x28>
    9803:	8b 45 f8             	mov    -0x8(%rbp),%eax
    9806:	8b 55 fc             	mov    -0x4(%rbp),%edx
    9809:	89 c1                	mov    %eax,%ecx
    980b:	d3 fa                	sar    %cl,%edx
    980d:	89 d0                	mov    %edx,%eax
    980f:	eb 03                	jmp    9814 <safe_rshift_func_int32_t_s_u+0x2b>
    9811:	8b 45 fc             	mov    -0x4(%rbp),%eax
    9814:	5d                   	pop    %rbp
    9815:	c3                   	retq   

0000000000009816 <safe_unary_minus_func_int64_t_s>:
    9816:	f3 0f 1e fa          	endbr64 
    981a:	55                   	push   %rbp
    981b:	48 89 e5             	mov    %rsp,%rbp
    981e:	48 89 7d f8          	mov    %rdi,-0x8(%rbp)
    9822:	48 b8 00 00 00 00 00 	movabs $0x8000000000000000,%rax
    9829:	00 00 80 
    982c:	48 39 45 f8          	cmp    %rax,-0x8(%rbp)
    9830:	74 09                	je     983b <safe_unary_minus_func_int64_t_s+0x25>
    9832:	48 8b 45 f8          	mov    -0x8(%rbp),%rax
    9836:	48 f7 d8             	neg    %rax
    9839:	eb 04                	jmp    983f <safe_unary_minus_func_int64_t_s+0x29>
    983b:	48 8b 45 f8          	mov    -0x8(%rbp),%rax
    983f:	5d                   	pop    %rbp
    9840:	c3                   	retq   

0000000000009841 <safe_add_func_int64_t_s_s>:
    9841:	f3 0f 1e fa          	endbr64 
    9845:	55                   	push   %rbp
    9846:	48 89 e5             	mov    %rsp,%rbp
    9849:	48 89 7d f8          	mov    %rdi,-0x8(%rbp)
    984d:	48 89 75 f0          	mov    %rsi,-0x10(%rbp)
    9851:	48 83 7d f8 00       	cmpq   $0x0,-0x8(%rbp)
    9856:	7e 1b                	jle    9873 <safe_add_func_int64_t_s_s+0x32>
    9858:	48 83 7d f0 00       	cmpq   $0x0,-0x10(%rbp)
    985d:	7e 14                	jle    9873 <safe_add_func_int64_t_s_s+0x32>
    985f:	48 b8 ff ff ff ff ff 	movabs $0x7fffffffffffffff,%rax
    9866:	ff ff 7f 
    9869:	48 2b 45 f0          	sub    -0x10(%rbp),%rax
    986d:	48 39 45 f8          	cmp    %rax,-0x8(%rbp)
    9871:	7f 2f                	jg     98a2 <safe_add_func_int64_t_s_s+0x61>
    9873:	48 83 7d f8 00       	cmpq   $0x0,-0x8(%rbp)
    9878:	79 1b                	jns    9895 <safe_add_func_int64_t_s_s+0x54>
    987a:	48 83 7d f0 00       	cmpq   $0x0,-0x10(%rbp)
    987f:	79 14                	jns    9895 <safe_add_func_int64_t_s_s+0x54>
    9881:	48 b8 00 00 00 00 00 	movabs $0x8000000000000000,%rax
    9888:	00 00 80 
    988b:	48 2b 45 f0          	sub    -0x10(%rbp),%rax
    988f:	48 39 45 f8          	cmp    %rax,-0x8(%rbp)
    9893:	7c 0d                	jl     98a2 <safe_add_func_int64_t_s_s+0x61>
    9895:	48 8b 55 f8          	mov    -0x8(%rbp),%rdx
    9899:	48 8b 45 f0          	mov    -0x10(%rbp),%rax
    989d:	48 01 d0             	add    %rdx,%rax
    98a0:	eb 04                	jmp    98a6 <safe_add_func_int64_t_s_s+0x65>
    98a2:	48 8b 45 f8          	mov    -0x8(%rbp),%rax
    98a6:	5d                   	pop    %rbp
    98a7:	c3                   	retq   

00000000000098a8 <safe_sub_func_int64_t_s_s>:
    98a8:	f3 0f 1e fa          	endbr64 
    98ac:	55                   	push   %rbp
    98ad:	48 89 e5             	mov    %rsp,%rbp
    98b0:	48 89 7d f8          	mov    %rdi,-0x8(%rbp)
    98b4:	48 89 75 f0          	mov    %rsi,-0x10(%rbp)
    98b8:	48 8b 45 f8          	mov    -0x8(%rbp),%rax
    98bc:	48 33 45 f0          	xor    -0x10(%rbp),%rax
    98c0:	48 89 c2             	mov    %rax,%rdx
    98c3:	48 8b 45 f8          	mov    -0x8(%rbp),%rax
    98c7:	48 33 45 f0          	xor    -0x10(%rbp),%rax
    98cb:	48 b9 00 00 00 00 00 	movabs $0x8000000000000000,%rcx
    98d2:	00 00 80 
    98d5:	48 21 c8             	and    %rcx,%rax
    98d8:	48 33 45 f8          	xor    -0x8(%rbp),%rax
    98dc:	48 2b 45 f0          	sub    -0x10(%rbp),%rax
    98e0:	48 33 45 f0          	xor    -0x10(%rbp),%rax
    98e4:	48 21 d0             	and    %rdx,%rax
    98e7:	48 85 c0             	test   %rax,%rax
    98ea:	78 0a                	js     98f6 <safe_sub_func_int64_t_s_s+0x4e>
    98ec:	48 8b 45 f8          	mov    -0x8(%rbp),%rax
    98f0:	48 2b 45 f0          	sub    -0x10(%rbp),%rax
    98f4:	eb 04                	jmp    98fa <safe_sub_func_int64_t_s_s+0x52>
    98f6:	48 8b 45 f8          	mov    -0x8(%rbp),%rax
    98fa:	5d                   	pop    %rbp
    98fb:	c3                   	retq   

00000000000098fc <safe_mul_func_int64_t_s_s>:
    98fc:	f3 0f 1e fa          	endbr64 
    9900:	55                   	push   %rbp
    9901:	48 89 e5             	mov    %rsp,%rbp
    9904:	48 89 7d f8          	mov    %rdi,-0x8(%rbp)
    9908:	48 89 75 f0          	mov    %rsi,-0x10(%rbp)
    990c:	48 83 7d f8 00       	cmpq   $0x0,-0x8(%rbp)
    9911:	7e 1d                	jle    9930 <safe_mul_func_int64_t_s_s+0x34>
    9913:	48 83 7d f0 00       	cmpq   $0x0,-0x10(%rbp)
    9918:	7e 16                	jle    9930 <safe_mul_func_int64_t_s_s+0x34>
    991a:	48 b8 ff ff ff ff ff 	movabs $0x7fffffffffffffff,%rax
    9921:	ff ff 7f 
    9924:	48 99                	cqto   
    9926:	48 f7 7d f0          	idivq  -0x10(%rbp)
    992a:	48 39 45 f8          	cmp    %rax,-0x8(%rbp)
    992e:	7f 7e                	jg     99ae <safe_mul_func_int64_t_s_s+0xb2>
    9930:	48 83 7d f8 00       	cmpq   $0x0,-0x8(%rbp)
    9935:	7e 1d                	jle    9954 <safe_mul_func_int64_t_s_s+0x58>
    9937:	48 83 7d f0 00       	cmpq   $0x0,-0x10(%rbp)
    993c:	7f 16                	jg     9954 <safe_mul_func_int64_t_s_s+0x58>
    993e:	48 b8 00 00 00 00 00 	movabs $0x8000000000000000,%rax
    9945:	00 00 80 
    9948:	48 99                	cqto   
    994a:	48 f7 7d f8          	idivq  -0x8(%rbp)
    994e:	48 39 45 f0          	cmp    %rax,-0x10(%rbp)
    9952:	7c 5a                	jl     99ae <safe_mul_func_int64_t_s_s+0xb2>
    9954:	48 83 7d f8 00       	cmpq   $0x0,-0x8(%rbp)
    9959:	7f 1d                	jg     9978 <safe_mul_func_int64_t_s_s+0x7c>
    995b:	48 83 7d f0 00       	cmpq   $0x0,-0x10(%rbp)
    9960:	7e 16                	jle    9978 <safe_mul_func_int64_t_s_s+0x7c>
    9962:	48 b8 00 00 00 00 00 	movabs $0x8000000000000000,%rax
    9969:	00 00 80 
    996c:	48 99                	cqto   
    996e:	48 f7 7d f0          	idivq  -0x10(%rbp)
    9972:	48 39 45 f8          	cmp    %rax,-0x8(%rbp)
    9976:	7c 36                	jl     99ae <safe_mul_func_int64_t_s_s+0xb2>
    9978:	48 83 7d f8 00       	cmpq   $0x0,-0x8(%rbp)
    997d:	7f 24                	jg     99a3 <safe_mul_func_int64_t_s_s+0xa7>
    997f:	48 83 7d f0 00       	cmpq   $0x0,-0x10(%rbp)
    9984:	7f 1d                	jg     99a3 <safe_mul_func_int64_t_s_s+0xa7>
    9986:	48 83 7d f8 00       	cmpq   $0x0,-0x8(%rbp)
    998b:	74 16                	je     99a3 <safe_mul_func_int64_t_s_s+0xa7>
    998d:	48 b8 ff ff ff ff ff 	movabs $0x7fffffffffffffff,%rax
    9994:	ff ff 7f 
    9997:	48 99                	cqto   
    9999:	48 f7 7d f8          	idivq  -0x8(%rbp)
    999d:	48 39 45 f0          	cmp    %rax,-0x10(%rbp)
    99a1:	7c 0b                	jl     99ae <safe_mul_func_int64_t_s_s+0xb2>
    99a3:	48 8b 45 f8          	mov    -0x8(%rbp),%rax
    99a7:	48 0f af 45 f0       	imul   -0x10(%rbp),%rax
    99ac:	eb 04                	jmp    99b2 <safe_mul_func_int64_t_s_s+0xb6>
    99ae:	48 8b 45 f8          	mov    -0x8(%rbp),%rax
    99b2:	5d                   	pop    %rbp
    99b3:	c3                   	retq   

00000000000099b4 <safe_mod_func_int64_t_s_s>:
    99b4:	f3 0f 1e fa          	endbr64 
    99b8:	55                   	push   %rbp
    99b9:	48 89 e5             	mov    %rsp,%rbp
    99bc:	48 89 7d f8          	mov    %rdi,-0x8(%rbp)
    99c0:	48 89 75 f0          	mov    %rsi,-0x10(%rbp)
    99c4:	48 83 7d f0 00       	cmpq   $0x0,-0x10(%rbp)
    99c9:	74 26                	je     99f1 <safe_mod_func_int64_t_s_s+0x3d>
    99cb:	48 b8 00 00 00 00 00 	movabs $0x8000000000000000,%rax
    99d2:	00 00 80 
    99d5:	48 39 45 f8          	cmp    %rax,-0x8(%rbp)
    99d9:	75 07                	jne    99e2 <safe_mod_func_int64_t_s_s+0x2e>
    99db:	48 83 7d f0 ff       	cmpq   $0xffffffffffffffff,-0x10(%rbp)
    99e0:	74 0f                	je     99f1 <safe_mod_func_int64_t_s_s+0x3d>
    99e2:	48 8b 45 f8          	mov    -0x8(%rbp),%rax
    99e6:	48 99                	cqto   
    99e8:	48 f7 7d f0          	idivq  -0x10(%rbp)
    99ec:	48 89 d0             	mov    %rdx,%rax
    99ef:	eb 04                	jmp    99f5 <safe_mod_func_int64_t_s_s+0x41>
    99f1:	48 8b 45 f8          	mov    -0x8(%rbp),%rax
    99f5:	5d                   	pop    %rbp
    99f6:	c3                   	retq   

00000000000099f7 <safe_div_func_int64_t_s_s>:
    99f7:	f3 0f 1e fa          	endbr64 
    99fb:	55                   	push   %rbp
    99fc:	48 89 e5             	mov    %rsp,%rbp
    99ff:	48 89 7d f8          	mov    %rdi,-0x8(%rbp)
    9a03:	48 89 75 f0          	mov    %rsi,-0x10(%rbp)
    9a07:	48 83 7d f0 00       	cmpq   $0x0,-0x10(%rbp)
    9a0c:	74 23                	je     9a31 <safe_div_func_int64_t_s_s+0x3a>
    9a0e:	48 b8 00 00 00 00 00 	movabs $0x8000000000000000,%rax
    9a15:	00 00 80 
    9a18:	48 39 45 f8          	cmp    %rax,-0x8(%rbp)
    9a1c:	75 07                	jne    9a25 <safe_div_func_int64_t_s_s+0x2e>
    9a1e:	48 83 7d f0 ff       	cmpq   $0xffffffffffffffff,-0x10(%rbp)
    9a23:	74 0c                	je     9a31 <safe_div_func_int64_t_s_s+0x3a>
    9a25:	48 8b 45 f8          	mov    -0x8(%rbp),%rax
    9a29:	48 99                	cqto   
    9a2b:	48 f7 7d f0          	idivq  -0x10(%rbp)
    9a2f:	eb 04                	jmp    9a35 <safe_div_func_int64_t_s_s+0x3e>
    9a31:	48 8b 45 f8          	mov    -0x8(%rbp),%rax
    9a35:	5d                   	pop    %rbp
    9a36:	c3                   	retq   

0000000000009a37 <safe_lshift_func_int64_t_s_s>:
    9a37:	f3 0f 1e fa          	endbr64 
    9a3b:	55                   	push   %rbp
    9a3c:	48 89 e5             	mov    %rsp,%rbp
    9a3f:	48 89 7d f8          	mov    %rdi,-0x8(%rbp)
    9a43:	89 75 f4             	mov    %esi,-0xc(%rbp)
    9a46:	48 83 7d f8 00       	cmpq   $0x0,-0x8(%rbp)
    9a4b:	78 38                	js     9a85 <safe_lshift_func_int64_t_s_s+0x4e>
    9a4d:	83 7d f4 00          	cmpl   $0x0,-0xc(%rbp)
    9a51:	78 32                	js     9a85 <safe_lshift_func_int64_t_s_s+0x4e>
    9a53:	83 7d f4 1f          	cmpl   $0x1f,-0xc(%rbp)
    9a57:	7f 2c                	jg     9a85 <safe_lshift_func_int64_t_s_s+0x4e>
    9a59:	8b 45 f4             	mov    -0xc(%rbp),%eax
    9a5c:	48 ba ff ff ff ff ff 	movabs $0x7fffffffffffffff,%rdx
    9a63:	ff ff 7f 
    9a66:	89 c1                	mov    %eax,%ecx
    9a68:	48 d3 fa             	sar    %cl,%rdx
    9a6b:	48 89 d0             	mov    %rdx,%rax
    9a6e:	48 39 45 f8          	cmp    %rax,-0x8(%rbp)
    9a72:	7f 11                	jg     9a85 <safe_lshift_func_int64_t_s_s+0x4e>
    9a74:	8b 45 f4             	mov    -0xc(%rbp),%eax
    9a77:	48 8b 55 f8          	mov    -0x8(%rbp),%rdx
    9a7b:	89 c1                	mov    %eax,%ecx
    9a7d:	48 d3 e2             	shl    %cl,%rdx
    9a80:	48 89 d0             	mov    %rdx,%rax
    9a83:	eb 04                	jmp    9a89 <safe_lshift_func_int64_t_s_s+0x52>
    9a85:	48 8b 45 f8          	mov    -0x8(%rbp),%rax
    9a89:	5d                   	pop    %rbp
    9a8a:	c3                   	retq   

0000000000009a8b <safe_lshift_func_int64_t_s_u>:
    9a8b:	f3 0f 1e fa          	endbr64 
    9a8f:	55                   	push   %rbp
    9a90:	48 89 e5             	mov    %rsp,%rbp
    9a93:	48 89 7d f8          	mov    %rdi,-0x8(%rbp)
    9a97:	89 75 f4             	mov    %esi,-0xc(%rbp)
    9a9a:	48 83 7d f8 00       	cmpq   $0x0,-0x8(%rbp)
    9a9f:	78 32                	js     9ad3 <safe_lshift_func_int64_t_s_u+0x48>
    9aa1:	83 7d f4 1f          	cmpl   $0x1f,-0xc(%rbp)
    9aa5:	77 2c                	ja     9ad3 <safe_lshift_func_int64_t_s_u+0x48>
    9aa7:	8b 45 f4             	mov    -0xc(%rbp),%eax
    9aaa:	48 ba ff ff ff ff ff 	movabs $0x7fffffffffffffff,%rdx
    9ab1:	ff ff 7f 
    9ab4:	89 c1                	mov    %eax,%ecx
    9ab6:	48 d3 fa             	sar    %cl,%rdx
    9ab9:	48 89 d0             	mov    %rdx,%rax
    9abc:	48 39 45 f8          	cmp    %rax,-0x8(%rbp)
    9ac0:	7f 11                	jg     9ad3 <safe_lshift_func_int64_t_s_u+0x48>
    9ac2:	8b 45 f4             	mov    -0xc(%rbp),%eax
    9ac5:	48 8b 55 f8          	mov    -0x8(%rbp),%rdx
    9ac9:	89 c1                	mov    %eax,%ecx
    9acb:	48 d3 e2             	shl    %cl,%rdx
    9ace:	48 89 d0             	mov    %rdx,%rax
    9ad1:	eb 04                	jmp    9ad7 <safe_lshift_func_int64_t_s_u+0x4c>
    9ad3:	48 8b 45 f8          	mov    -0x8(%rbp),%rax
    9ad7:	5d                   	pop    %rbp
    9ad8:	c3                   	retq   

0000000000009ad9 <safe_rshift_func_int64_t_s_s>:
    9ad9:	f3 0f 1e fa          	endbr64 
    9add:	55                   	push   %rbp
    9ade:	48 89 e5             	mov    %rsp,%rbp
    9ae1:	48 89 7d f8          	mov    %rdi,-0x8(%rbp)
    9ae5:	89 75 f4             	mov    %esi,-0xc(%rbp)
    9ae8:	48 83 7d f8 00       	cmpq   $0x0,-0x8(%rbp)
    9aed:	78 1d                	js     9b0c <safe_rshift_func_int64_t_s_s+0x33>
    9aef:	83 7d f4 00          	cmpl   $0x0,-0xc(%rbp)
    9af3:	78 17                	js     9b0c <safe_rshift_func_int64_t_s_s+0x33>
    9af5:	83 7d f4 1f          	cmpl   $0x1f,-0xc(%rbp)
    9af9:	7f 11                	jg     9b0c <safe_rshift_func_int64_t_s_s+0x33>
    9afb:	8b 45 f4             	mov    -0xc(%rbp),%eax
    9afe:	48 8b 55 f8          	mov    -0x8(%rbp),%rdx
    9b02:	89 c1                	mov    %eax,%ecx
    9b04:	48 d3 fa             	sar    %cl,%rdx
    9b07:	48 89 d0             	mov    %rdx,%rax
    9b0a:	eb 04                	jmp    9b10 <safe_rshift_func_int64_t_s_s+0x37>
    9b0c:	48 8b 45 f8          	mov    -0x8(%rbp),%rax
    9b10:	5d                   	pop    %rbp
    9b11:	c3                   	retq   

0000000000009b12 <safe_rshift_func_int64_t_s_u>:
    9b12:	f3 0f 1e fa          	endbr64 
    9b16:	55                   	push   %rbp
    9b17:	48 89 e5             	mov    %rsp,%rbp
    9b1a:	48 89 7d f8          	mov    %rdi,-0x8(%rbp)
    9b1e:	89 75 f4             	mov    %esi,-0xc(%rbp)
    9b21:	48 83 7d f8 00       	cmpq   $0x0,-0x8(%rbp)
    9b26:	78 17                	js     9b3f <safe_rshift_func_int64_t_s_u+0x2d>
    9b28:	83 7d f4 1f          	cmpl   $0x1f,-0xc(%rbp)
    9b2c:	77 11                	ja     9b3f <safe_rshift_func_int64_t_s_u+0x2d>
    9b2e:	8b 45 f4             	mov    -0xc(%rbp),%eax
    9b31:	48 8b 55 f8          	mov    -0x8(%rbp),%rdx
    9b35:	89 c1                	mov    %eax,%ecx
    9b37:	48 d3 fa             	sar    %cl,%rdx
    9b3a:	48 89 d0             	mov    %rdx,%rax
    9b3d:	eb 04                	jmp    9b43 <safe_rshift_func_int64_t_s_u+0x31>
    9b3f:	48 8b 45 f8          	mov    -0x8(%rbp),%rax
    9b43:	5d                   	pop    %rbp
    9b44:	c3                   	retq   

0000000000009b45 <safe_unary_minus_func_uint8_t_u>:
    9b45:	f3 0f 1e fa          	endbr64 
    9b49:	55                   	push   %rbp
    9b4a:	48 89 e5             	mov    %rsp,%rbp
    9b4d:	89 f8                	mov    %edi,%eax
    9b4f:	88 45 fc             	mov    %al,-0x4(%rbp)
    9b52:	0f b6 45 fc          	movzbl -0x4(%rbp),%eax
    9b56:	f7 d8                	neg    %eax
    9b58:	5d                   	pop    %rbp
    9b59:	c3                   	retq   

0000000000009b5a <safe_add_func_uint8_t_u_u>:
    9b5a:	f3 0f 1e fa          	endbr64 
    9b5e:	55                   	push   %rbp
    9b5f:	48 89 e5             	mov    %rsp,%rbp
    9b62:	89 fa                	mov    %edi,%edx
    9b64:	89 f0                	mov    %esi,%eax
    9b66:	88 55 fc             	mov    %dl,-0x4(%rbp)
    9b69:	88 45 f8             	mov    %al,-0x8(%rbp)
    9b6c:	0f b6 55 fc          	movzbl -0x4(%rbp),%edx
    9b70:	0f b6 45 f8          	movzbl -0x8(%rbp),%eax
    9b74:	01 d0                	add    %edx,%eax
    9b76:	5d                   	pop    %rbp
    9b77:	c3                   	retq   

0000000000009b78 <safe_sub_func_uint8_t_u_u>:
    9b78:	f3 0f 1e fa          	endbr64 
    9b7c:	55                   	push   %rbp
    9b7d:	48 89 e5             	mov    %rsp,%rbp
    9b80:	89 fa                	mov    %edi,%edx
    9b82:	89 f0                	mov    %esi,%eax
    9b84:	88 55 fc             	mov    %dl,-0x4(%rbp)
    9b87:	88 45 f8             	mov    %al,-0x8(%rbp)
    9b8a:	0f b6 45 fc          	movzbl -0x4(%rbp),%eax
    9b8e:	2a 45 f8             	sub    -0x8(%rbp),%al
    9b91:	5d                   	pop    %rbp
    9b92:	c3                   	retq   

0000000000009b93 <safe_mul_func_uint8_t_u_u>:
    9b93:	f3 0f 1e fa          	endbr64 
    9b97:	55                   	push   %rbp
    9b98:	48 89 e5             	mov    %rsp,%rbp
    9b9b:	89 fa                	mov    %edi,%edx
    9b9d:	89 f0                	mov    %esi,%eax
    9b9f:	88 55 fc             	mov    %dl,-0x4(%rbp)
    9ba2:	88 45 f8             	mov    %al,-0x8(%rbp)
    9ba5:	0f b6 45 fc          	movzbl -0x4(%rbp),%eax
    9ba9:	f6 65 f8             	mulb   -0x8(%rbp)
    9bac:	5d                   	pop    %rbp
    9bad:	c3                   	retq   

0000000000009bae <safe_mod_func_uint8_t_u_u>:
    9bae:	f3 0f 1e fa          	endbr64 
    9bb2:	55                   	push   %rbp
    9bb3:	48 89 e5             	mov    %rsp,%rbp
    9bb6:	89 fa                	mov    %edi,%edx
    9bb8:	89 f0                	mov    %esi,%eax
    9bba:	88 55 fc             	mov    %dl,-0x4(%rbp)
    9bbd:	88 45 f8             	mov    %al,-0x8(%rbp)
    9bc0:	80 7d f8 00          	cmpb   $0x0,-0x8(%rbp)
    9bc4:	74 0f                	je     9bd5 <safe_mod_func_uint8_t_u_u+0x27>
    9bc6:	0f b6 45 fc          	movzbl -0x4(%rbp),%eax
    9bca:	0f b6 c0             	movzbl %al,%eax
    9bcd:	f6 75 f8             	divb   -0x8(%rbp)
    9bd0:	0f b6 c4             	movzbl %ah,%eax
    9bd3:	eb 04                	jmp    9bd9 <safe_mod_func_uint8_t_u_u+0x2b>
    9bd5:	0f b6 45 fc          	movzbl -0x4(%rbp),%eax
    9bd9:	5d                   	pop    %rbp
    9bda:	c3                   	retq   

0000000000009bdb <safe_div_func_uint8_t_u_u>:
    9bdb:	f3 0f 1e fa          	endbr64 
    9bdf:	55                   	push   %rbp
    9be0:	48 89 e5             	mov    %rsp,%rbp
    9be3:	89 fa                	mov    %edi,%edx
    9be5:	89 f0                	mov    %esi,%eax
    9be7:	88 55 fc             	mov    %dl,-0x4(%rbp)
    9bea:	88 45 f8             	mov    %al,-0x8(%rbp)
    9bed:	80 7d f8 00          	cmpb   $0x0,-0x8(%rbp)
    9bf1:	74 0c                	je     9bff <safe_div_func_uint8_t_u_u+0x24>
    9bf3:	0f b6 45 fc          	movzbl -0x4(%rbp),%eax
    9bf7:	0f b6 c0             	movzbl %al,%eax
    9bfa:	f6 75 f8             	divb   -0x8(%rbp)
    9bfd:	eb 04                	jmp    9c03 <safe_div_func_uint8_t_u_u+0x28>
    9bff:	0f b6 45 fc          	movzbl -0x4(%rbp),%eax
    9c03:	5d                   	pop    %rbp
    9c04:	c3                   	retq   

0000000000009c05 <safe_lshift_func_uint8_t_u_s>:
    9c05:	f3 0f 1e fa          	endbr64 
    9c09:	55                   	push   %rbp
    9c0a:	48 89 e5             	mov    %rsp,%rbp
    9c0d:	89 f8                	mov    %edi,%eax
    9c0f:	89 75 f8             	mov    %esi,-0x8(%rbp)
    9c12:	88 45 fc             	mov    %al,-0x4(%rbp)
    9c15:	83 7d f8 00          	cmpl   $0x0,-0x8(%rbp)
    9c19:	78 2b                	js     9c46 <safe_lshift_func_uint8_t_u_s+0x41>
    9c1b:	83 7d f8 1f          	cmpl   $0x1f,-0x8(%rbp)
    9c1f:	7f 25                	jg     9c46 <safe_lshift_func_uint8_t_u_s+0x41>
    9c21:	0f b6 55 fc          	movzbl -0x4(%rbp),%edx
    9c25:	8b 45 f8             	mov    -0x8(%rbp),%eax
    9c28:	be ff 00 00 00       	mov    $0xff,%esi
    9c2d:	89 c1                	mov    %eax,%ecx
    9c2f:	d3 fe                	sar    %cl,%esi
    9c31:	89 f0                	mov    %esi,%eax
    9c33:	39 c2                	cmp    %eax,%edx
    9c35:	7f 0f                	jg     9c46 <safe_lshift_func_uint8_t_u_s+0x41>
    9c37:	0f b6 55 fc          	movzbl -0x4(%rbp),%edx
    9c3b:	8b 45 f8             	mov    -0x8(%rbp),%eax
    9c3e:	89 c1                	mov    %eax,%ecx
    9c40:	d3 e2                	shl    %cl,%edx
    9c42:	89 d0                	mov    %edx,%eax
    9c44:	eb 04                	jmp    9c4a <safe_lshift_func_uint8_t_u_s+0x45>
    9c46:	0f b6 45 fc          	movzbl -0x4(%rbp),%eax
    9c4a:	5d                   	pop    %rbp
    9c4b:	c3                   	retq   

0000000000009c4c <safe_lshift_func_uint8_t_u_u>:
    9c4c:	f3 0f 1e fa          	endbr64 
    9c50:	55                   	push   %rbp
    9c51:	48 89 e5             	mov    %rsp,%rbp
    9c54:	89 f8                	mov    %edi,%eax
    9c56:	89 75 f8             	mov    %esi,-0x8(%rbp)
    9c59:	88 45 fc             	mov    %al,-0x4(%rbp)
    9c5c:	83 7d f8 1f          	cmpl   $0x1f,-0x8(%rbp)
    9c60:	77 25                	ja     9c87 <safe_lshift_func_uint8_t_u_u+0x3b>
    9c62:	0f b6 55 fc          	movzbl -0x4(%rbp),%edx
    9c66:	8b 45 f8             	mov    -0x8(%rbp),%eax
    9c69:	be ff 00 00 00       	mov    $0xff,%esi
    9c6e:	89 c1                	mov    %eax,%ecx
    9c70:	d3 fe                	sar    %cl,%esi
    9c72:	89 f0                	mov    %esi,%eax
    9c74:	39 c2                	cmp    %eax,%edx
    9c76:	7f 0f                	jg     9c87 <safe_lshift_func_uint8_t_u_u+0x3b>
    9c78:	0f b6 55 fc          	movzbl -0x4(%rbp),%edx
    9c7c:	8b 45 f8             	mov    -0x8(%rbp),%eax
    9c7f:	89 c1                	mov    %eax,%ecx
    9c81:	d3 e2                	shl    %cl,%edx
    9c83:	89 d0                	mov    %edx,%eax
    9c85:	eb 04                	jmp    9c8b <safe_lshift_func_uint8_t_u_u+0x3f>
    9c87:	0f b6 45 fc          	movzbl -0x4(%rbp),%eax
    9c8b:	5d                   	pop    %rbp
    9c8c:	c3                   	retq   

0000000000009c8d <safe_rshift_func_uint8_t_u_s>:
    9c8d:	f3 0f 1e fa          	endbr64 
    9c91:	55                   	push   %rbp
    9c92:	48 89 e5             	mov    %rsp,%rbp
    9c95:	89 f8                	mov    %edi,%eax
    9c97:	89 75 f8             	mov    %esi,-0x8(%rbp)
    9c9a:	88 45 fc             	mov    %al,-0x4(%rbp)
    9c9d:	83 7d f8 00          	cmpl   $0x0,-0x8(%rbp)
    9ca1:	78 15                	js     9cb8 <safe_rshift_func_uint8_t_u_s+0x2b>
    9ca3:	83 7d f8 1f          	cmpl   $0x1f,-0x8(%rbp)
    9ca7:	7f 0f                	jg     9cb8 <safe_rshift_func_uint8_t_u_s+0x2b>
    9ca9:	0f b6 55 fc          	movzbl -0x4(%rbp),%edx
    9cad:	8b 45 f8             	mov    -0x8(%rbp),%eax
    9cb0:	89 c1                	mov    %eax,%ecx
    9cb2:	d3 fa                	sar    %cl,%edx
    9cb4:	89 d0                	mov    %edx,%eax
    9cb6:	eb 04                	jmp    9cbc <safe_rshift_func_uint8_t_u_s+0x2f>
    9cb8:	0f b6 45 fc          	movzbl -0x4(%rbp),%eax
    9cbc:	5d                   	pop    %rbp
    9cbd:	c3                   	retq   

0000000000009cbe <safe_rshift_func_uint8_t_u_u>:
    9cbe:	f3 0f 1e fa          	endbr64 
    9cc2:	55                   	push   %rbp
    9cc3:	48 89 e5             	mov    %rsp,%rbp
    9cc6:	89 f8                	mov    %edi,%eax
    9cc8:	89 75 f8             	mov    %esi,-0x8(%rbp)
    9ccb:	88 45 fc             	mov    %al,-0x4(%rbp)
    9cce:	83 7d f8 1f          	cmpl   $0x1f,-0x8(%rbp)
    9cd2:	77 0f                	ja     9ce3 <safe_rshift_func_uint8_t_u_u+0x25>
    9cd4:	0f b6 55 fc          	movzbl -0x4(%rbp),%edx
    9cd8:	8b 45 f8             	mov    -0x8(%rbp),%eax
    9cdb:	89 c1                	mov    %eax,%ecx
    9cdd:	d3 fa                	sar    %cl,%edx
    9cdf:	89 d0                	mov    %edx,%eax
    9ce1:	eb 04                	jmp    9ce7 <safe_rshift_func_uint8_t_u_u+0x29>
    9ce3:	0f b6 45 fc          	movzbl -0x4(%rbp),%eax
    9ce7:	5d                   	pop    %rbp
    9ce8:	c3                   	retq   

0000000000009ce9 <safe_unary_minus_func_uint16_t_u>:
    9ce9:	f3 0f 1e fa          	endbr64 
    9ced:	55                   	push   %rbp
    9cee:	48 89 e5             	mov    %rsp,%rbp
    9cf1:	89 f8                	mov    %edi,%eax
    9cf3:	66 89 45 fc          	mov    %ax,-0x4(%rbp)
    9cf7:	0f b7 45 fc          	movzwl -0x4(%rbp),%eax
    9cfb:	f7 d8                	neg    %eax
    9cfd:	5d                   	pop    %rbp
    9cfe:	c3                   	retq   

0000000000009cff <safe_add_func_uint16_t_u_u>:
    9cff:	f3 0f 1e fa          	endbr64 
    9d03:	55                   	push   %rbp
    9d04:	48 89 e5             	mov    %rsp,%rbp
    9d07:	89 fa                	mov    %edi,%edx
    9d09:	89 f0                	mov    %esi,%eax
    9d0b:	66 89 55 fc          	mov    %dx,-0x4(%rbp)
    9d0f:	66 89 45 f8          	mov    %ax,-0x8(%rbp)
    9d13:	0f b7 55 fc          	movzwl -0x4(%rbp),%edx
    9d17:	0f b7 45 f8          	movzwl -0x8(%rbp),%eax
    9d1b:	01 d0                	add    %edx,%eax
    9d1d:	5d                   	pop    %rbp
    9d1e:	c3                   	retq   

0000000000009d1f <safe_sub_func_uint16_t_u_u>:
    9d1f:	f3 0f 1e fa          	endbr64 
    9d23:	55                   	push   %rbp
    9d24:	48 89 e5             	mov    %rsp,%rbp
    9d27:	89 fa                	mov    %edi,%edx
    9d29:	89 f0                	mov    %esi,%eax
    9d2b:	66 89 55 fc          	mov    %dx,-0x4(%rbp)
    9d2f:	66 89 45 f8          	mov    %ax,-0x8(%rbp)
    9d33:	0f b7 45 fc          	movzwl -0x4(%rbp),%eax
    9d37:	66 2b 45 f8          	sub    -0x8(%rbp),%ax
    9d3b:	5d                   	pop    %rbp
    9d3c:	c3                   	retq   

0000000000009d3d <safe_mul_func_uint16_t_u_u>:
    9d3d:	f3 0f 1e fa          	endbr64 
    9d41:	55                   	push   %rbp
    9d42:	48 89 e5             	mov    %rsp,%rbp
    9d45:	89 fa                	mov    %edi,%edx
    9d47:	89 f0                	mov    %esi,%eax
    9d49:	66 89 55 fc          	mov    %dx,-0x4(%rbp)
    9d4d:	66 89 45 f8          	mov    %ax,-0x8(%rbp)
    9d51:	0f b7 45 fc          	movzwl -0x4(%rbp),%eax
    9d55:	66 0f af 45 f8       	imul   -0x8(%rbp),%ax
    9d5a:	5d                   	pop    %rbp
    9d5b:	c3                   	retq   

0000000000009d5c <safe_mod_func_uint16_t_u_u>:
    9d5c:	f3 0f 1e fa          	endbr64 
    9d60:	55                   	push   %rbp
    9d61:	48 89 e5             	mov    %rsp,%rbp
    9d64:	89 fa                	mov    %edi,%edx
    9d66:	89 f0                	mov    %esi,%eax
    9d68:	66 89 55 fc          	mov    %dx,-0x4(%rbp)
    9d6c:	66 89 45 f8          	mov    %ax,-0x8(%rbp)
    9d70:	66 83 7d f8 00       	cmpw   $0x0,-0x8(%rbp)
    9d75:	74 11                	je     9d88 <safe_mod_func_uint16_t_u_u+0x2c>
    9d77:	0f b7 45 fc          	movzwl -0x4(%rbp),%eax
    9d7b:	ba 00 00 00 00       	mov    $0x0,%edx
    9d80:	66 f7 75 f8          	divw   -0x8(%rbp)
    9d84:	89 d0                	mov    %edx,%eax
    9d86:	eb 04                	jmp    9d8c <safe_mod_func_uint16_t_u_u+0x30>
    9d88:	0f b7 45 fc          	movzwl -0x4(%rbp),%eax
    9d8c:	5d                   	pop    %rbp
    9d8d:	c3                   	retq   

0000000000009d8e <safe_div_func_uint16_t_u_u>:
    9d8e:	f3 0f 1e fa          	endbr64 
    9d92:	55                   	push   %rbp
    9d93:	48 89 e5             	mov    %rsp,%rbp
    9d96:	89 fa                	mov    %edi,%edx
    9d98:	89 f0                	mov    %esi,%eax
    9d9a:	66 89 55 fc          	mov    %dx,-0x4(%rbp)
    9d9e:	66 89 45 f8          	mov    %ax,-0x8(%rbp)
    9da2:	66 83 7d f8 00       	cmpw   $0x0,-0x8(%rbp)
    9da7:	74 0f                	je     9db8 <safe_div_func_uint16_t_u_u+0x2a>
    9da9:	0f b7 45 fc          	movzwl -0x4(%rbp),%eax
    9dad:	ba 00 00 00 00       	mov    $0x0,%edx
    9db2:	66 f7 75 f8          	divw   -0x8(%rbp)
    9db6:	eb 04                	jmp    9dbc <safe_div_func_uint16_t_u_u+0x2e>
    9db8:	0f b7 45 fc          	movzwl -0x4(%rbp),%eax
    9dbc:	5d                   	pop    %rbp
    9dbd:	c3                   	retq   

0000000000009dbe <safe_lshift_func_uint16_t_u_s>:
    9dbe:	f3 0f 1e fa          	endbr64 
    9dc2:	55                   	push   %rbp
    9dc3:	48 89 e5             	mov    %rsp,%rbp
    9dc6:	89 f8                	mov    %edi,%eax
    9dc8:	89 75 f8             	mov    %esi,-0x8(%rbp)
    9dcb:	66 89 45 fc          	mov    %ax,-0x4(%rbp)
    9dcf:	83 7d f8 00          	cmpl   $0x0,-0x8(%rbp)
    9dd3:	78 2b                	js     9e00 <safe_lshift_func_uint16_t_u_s+0x42>
    9dd5:	83 7d f8 1f          	cmpl   $0x1f,-0x8(%rbp)
    9dd9:	7f 25                	jg     9e00 <safe_lshift_func_uint16_t_u_s+0x42>
    9ddb:	0f b7 55 fc          	movzwl -0x4(%rbp),%edx
    9ddf:	8b 45 f8             	mov    -0x8(%rbp),%eax
    9de2:	be ff ff 00 00       	mov    $0xffff,%esi
    9de7:	89 c1                	mov    %eax,%ecx
    9de9:	d3 fe                	sar    %cl,%esi
    9deb:	89 f0                	mov    %esi,%eax
    9ded:	39 c2                	cmp    %eax,%edx
    9def:	7f 0f                	jg     9e00 <safe_lshift_func_uint16_t_u_s+0x42>
    9df1:	0f b7 55 fc          	movzwl -0x4(%rbp),%edx
    9df5:	8b 45 f8             	mov    -0x8(%rbp),%eax
    9df8:	89 c1                	mov    %eax,%ecx
    9dfa:	d3 e2                	shl    %cl,%edx
    9dfc:	89 d0                	mov    %edx,%eax
    9dfe:	eb 04                	jmp    9e04 <safe_lshift_func_uint16_t_u_s+0x46>
    9e00:	0f b7 45 fc          	movzwl -0x4(%rbp),%eax
    9e04:	5d                   	pop    %rbp
    9e05:	c3                   	retq   

0000000000009e06 <safe_lshift_func_uint16_t_u_u>:
    9e06:	f3 0f 1e fa          	endbr64 
    9e0a:	55                   	push   %rbp
    9e0b:	48 89 e5             	mov    %rsp,%rbp
    9e0e:	89 f8                	mov    %edi,%eax
    9e10:	89 75 f8             	mov    %esi,-0x8(%rbp)
    9e13:	66 89 45 fc          	mov    %ax,-0x4(%rbp)
    9e17:	83 7d f8 1f          	cmpl   $0x1f,-0x8(%rbp)
    9e1b:	77 25                	ja     9e42 <safe_lshift_func_uint16_t_u_u+0x3c>
    9e1d:	0f b7 55 fc          	movzwl -0x4(%rbp),%edx
    9e21:	8b 45 f8             	mov    -0x8(%rbp),%eax
    9e24:	be ff ff 00 00       	mov    $0xffff,%esi
    9e29:	89 c1                	mov    %eax,%ecx
    9e2b:	d3 fe                	sar    %cl,%esi
    9e2d:	89 f0                	mov    %esi,%eax
    9e2f:	39 c2                	cmp    %eax,%edx
    9e31:	7f 0f                	jg     9e42 <safe_lshift_func_uint16_t_u_u+0x3c>
    9e33:	0f b7 55 fc          	movzwl -0x4(%rbp),%edx
    9e37:	8b 45 f8             	mov    -0x8(%rbp),%eax
    9e3a:	89 c1                	mov    %eax,%ecx
    9e3c:	d3 e2                	shl    %cl,%edx
    9e3e:	89 d0                	mov    %edx,%eax
    9e40:	eb 04                	jmp    9e46 <safe_lshift_func_uint16_t_u_u+0x40>
    9e42:	0f b7 45 fc          	movzwl -0x4(%rbp),%eax
    9e46:	5d                   	pop    %rbp
    9e47:	c3                   	retq   

0000000000009e48 <safe_rshift_func_uint16_t_u_s>:
    9e48:	f3 0f 1e fa          	endbr64 
    9e4c:	55                   	push   %rbp
    9e4d:	48 89 e5             	mov    %rsp,%rbp
    9e50:	89 f8                	mov    %edi,%eax
    9e52:	89 75 f8             	mov    %esi,-0x8(%rbp)
    9e55:	66 89 45 fc          	mov    %ax,-0x4(%rbp)
    9e59:	83 7d f8 00          	cmpl   $0x0,-0x8(%rbp)
    9e5d:	78 15                	js     9e74 <safe_rshift_func_uint16_t_u_s+0x2c>
    9e5f:	83 7d f8 1f          	cmpl   $0x1f,-0x8(%rbp)
    9e63:	7f 0f                	jg     9e74 <safe_rshift_func_uint16_t_u_s+0x2c>
    9e65:	0f b7 55 fc          	movzwl -0x4(%rbp),%edx
    9e69:	8b 45 f8             	mov    -0x8(%rbp),%eax
    9e6c:	89 c1                	mov    %eax,%ecx
    9e6e:	d3 fa                	sar    %cl,%edx
    9e70:	89 d0                	mov    %edx,%eax
    9e72:	eb 04                	jmp    9e78 <safe_rshift_func_uint16_t_u_s+0x30>
    9e74:	0f b7 45 fc          	movzwl -0x4(%rbp),%eax
    9e78:	5d                   	pop    %rbp
    9e79:	c3                   	retq   

0000000000009e7a <safe_rshift_func_uint16_t_u_u>:
    9e7a:	f3 0f 1e fa          	endbr64 
    9e7e:	55                   	push   %rbp
    9e7f:	48 89 e5             	mov    %rsp,%rbp
    9e82:	89 f8                	mov    %edi,%eax
    9e84:	89 75 f8             	mov    %esi,-0x8(%rbp)
    9e87:	66 89 45 fc          	mov    %ax,-0x4(%rbp)
    9e8b:	83 7d f8 1f          	cmpl   $0x1f,-0x8(%rbp)
    9e8f:	77 0f                	ja     9ea0 <safe_rshift_func_uint16_t_u_u+0x26>
    9e91:	0f b7 55 fc          	movzwl -0x4(%rbp),%edx
    9e95:	8b 45 f8             	mov    -0x8(%rbp),%eax
    9e98:	89 c1                	mov    %eax,%ecx
    9e9a:	d3 fa                	sar    %cl,%edx
    9e9c:	89 d0                	mov    %edx,%eax
    9e9e:	eb 04                	jmp    9ea4 <safe_rshift_func_uint16_t_u_u+0x2a>
    9ea0:	0f b7 45 fc          	movzwl -0x4(%rbp),%eax
    9ea4:	5d                   	pop    %rbp
    9ea5:	c3                   	retq   

0000000000009ea6 <safe_unary_minus_func_uint32_t_u>:
    9ea6:	f3 0f 1e fa          	endbr64 
    9eaa:	55                   	push   %rbp
    9eab:	48 89 e5             	mov    %rsp,%rbp
    9eae:	89 7d fc             	mov    %edi,-0x4(%rbp)
    9eb1:	8b 45 fc             	mov    -0x4(%rbp),%eax
    9eb4:	f7 d8                	neg    %eax
    9eb6:	5d                   	pop    %rbp
    9eb7:	c3                   	retq   

0000000000009eb8 <safe_add_func_uint32_t_u_u>:
    9eb8:	f3 0f 1e fa          	endbr64 
    9ebc:	55                   	push   %rbp
    9ebd:	48 89 e5             	mov    %rsp,%rbp
    9ec0:	89 7d fc             	mov    %edi,-0x4(%rbp)
    9ec3:	89 75 f8             	mov    %esi,-0x8(%rbp)
    9ec6:	8b 55 fc             	mov    -0x4(%rbp),%edx
    9ec9:	8b 45 f8             	mov    -0x8(%rbp),%eax
    9ecc:	01 d0                	add    %edx,%eax
    9ece:	5d                   	pop    %rbp
    9ecf:	c3                   	retq   

0000000000009ed0 <safe_sub_func_uint32_t_u_u>:
    9ed0:	f3 0f 1e fa          	endbr64 
    9ed4:	55                   	push   %rbp
    9ed5:	48 89 e5             	mov    %rsp,%rbp
    9ed8:	89 7d fc             	mov    %edi,-0x4(%rbp)
    9edb:	89 75 f8             	mov    %esi,-0x8(%rbp)
    9ede:	8b 45 fc             	mov    -0x4(%rbp),%eax
    9ee1:	2b 45 f8             	sub    -0x8(%rbp),%eax
    9ee4:	5d                   	pop    %rbp
    9ee5:	c3                   	retq   

0000000000009ee6 <safe_mul_func_uint32_t_u_u>:
    9ee6:	f3 0f 1e fa          	endbr64 
    9eea:	55                   	push   %rbp
    9eeb:	48 89 e5             	mov    %rsp,%rbp
    9eee:	89 7d fc             	mov    %edi,-0x4(%rbp)
    9ef1:	89 75 f8             	mov    %esi,-0x8(%rbp)
    9ef4:	8b 45 fc             	mov    -0x4(%rbp),%eax
    9ef7:	0f af 45 f8          	imul   -0x8(%rbp),%eax
    9efb:	5d                   	pop    %rbp
    9efc:	c3                   	retq   

0000000000009efd <safe_mod_func_uint32_t_u_u>:
    9efd:	f3 0f 1e fa          	endbr64 
    9f01:	55                   	push   %rbp
    9f02:	48 89 e5             	mov    %rsp,%rbp
    9f05:	89 7d fc             	mov    %edi,-0x4(%rbp)
    9f08:	89 75 f8             	mov    %esi,-0x8(%rbp)
    9f0b:	83 7d f8 00          	cmpl   $0x0,-0x8(%rbp)
    9f0f:	74 0f                	je     9f20 <safe_mod_func_uint32_t_u_u+0x23>
    9f11:	8b 45 fc             	mov    -0x4(%rbp),%eax
    9f14:	ba 00 00 00 00       	mov    $0x0,%edx
    9f19:	f7 75 f8             	divl   -0x8(%rbp)
    9f1c:	89 d0                	mov    %edx,%eax
    9f1e:	eb 03                	jmp    9f23 <safe_mod_func_uint32_t_u_u+0x26>
    9f20:	8b 45 fc             	mov    -0x4(%rbp),%eax
    9f23:	5d                   	pop    %rbp
    9f24:	c3                   	retq   

0000000000009f25 <safe_div_func_uint32_t_u_u>:
    9f25:	f3 0f 1e fa          	endbr64 
    9f29:	55                   	push   %rbp
    9f2a:	48 89 e5             	mov    %rsp,%rbp
    9f2d:	89 7d fc             	mov    %edi,-0x4(%rbp)
    9f30:	89 75 f8             	mov    %esi,-0x8(%rbp)
    9f33:	83 7d f8 00          	cmpl   $0x0,-0x8(%rbp)
    9f37:	74 0d                	je     9f46 <safe_div_func_uint32_t_u_u+0x21>
    9f39:	8b 45 fc             	mov    -0x4(%rbp),%eax
    9f3c:	ba 00 00 00 00       	mov    $0x0,%edx
    9f41:	f7 75 f8             	divl   -0x8(%rbp)
    9f44:	eb 03                	jmp    9f49 <safe_div_func_uint32_t_u_u+0x24>
    9f46:	8b 45 fc             	mov    -0x4(%rbp),%eax
    9f49:	5d                   	pop    %rbp
    9f4a:	c3                   	retq   

0000000000009f4b <safe_lshift_func_uint32_t_u_s>:
    9f4b:	f3 0f 1e fa          	endbr64 
    9f4f:	55                   	push   %rbp
    9f50:	48 89 e5             	mov    %rsp,%rbp
    9f53:	89 7d fc             	mov    %edi,-0x4(%rbp)
    9f56:	89 75 f8             	mov    %esi,-0x8(%rbp)
    9f59:	83 7d f8 00          	cmpl   $0x0,-0x8(%rbp)
    9f5d:	78 27                	js     9f86 <safe_lshift_func_uint32_t_u_s+0x3b>
    9f5f:	83 7d f8 1f          	cmpl   $0x1f,-0x8(%rbp)
    9f63:	7f 21                	jg     9f86 <safe_lshift_func_uint32_t_u_s+0x3b>
    9f65:	8b 45 f8             	mov    -0x8(%rbp),%eax
    9f68:	ba ff ff ff ff       	mov    $0xffffffff,%edx
    9f6d:	89 c1                	mov    %eax,%ecx
    9f6f:	d3 ea                	shr    %cl,%edx
    9f71:	89 d0                	mov    %edx,%eax
    9f73:	39 45 fc             	cmp    %eax,-0x4(%rbp)
    9f76:	77 0e                	ja     9f86 <safe_lshift_func_uint32_t_u_s+0x3b>
    9f78:	8b 45 f8             	mov    -0x8(%rbp),%eax
    9f7b:	8b 55 fc             	mov    -0x4(%rbp),%edx
    9f7e:	89 c1                	mov    %eax,%ecx
    9f80:	d3 e2                	shl    %cl,%edx
    9f82:	89 d0                	mov    %edx,%eax
    9f84:	eb 03                	jmp    9f89 <safe_lshift_func_uint32_t_u_s+0x3e>
    9f86:	8b 45 fc             	mov    -0x4(%rbp),%eax
    9f89:	5d                   	pop    %rbp
    9f8a:	c3                   	retq   

0000000000009f8b <safe_lshift_func_uint32_t_u_u>:
    9f8b:	f3 0f 1e fa          	endbr64 
    9f8f:	55                   	push   %rbp
    9f90:	48 89 e5             	mov    %rsp,%rbp
    9f93:	89 7d fc             	mov    %edi,-0x4(%rbp)
    9f96:	89 75 f8             	mov    %esi,-0x8(%rbp)
    9f99:	83 7d f8 1f          	cmpl   $0x1f,-0x8(%rbp)
    9f9d:	77 21                	ja     9fc0 <safe_lshift_func_uint32_t_u_u+0x35>
    9f9f:	8b 45 f8             	mov    -0x8(%rbp),%eax
    9fa2:	ba ff ff ff ff       	mov    $0xffffffff,%edx
    9fa7:	89 c1                	mov    %eax,%ecx
    9fa9:	d3 ea                	shr    %cl,%edx
    9fab:	89 d0                	mov    %edx,%eax
    9fad:	39 45 fc             	cmp    %eax,-0x4(%rbp)
    9fb0:	77 0e                	ja     9fc0 <safe_lshift_func_uint32_t_u_u+0x35>
    9fb2:	8b 45 f8             	mov    -0x8(%rbp),%eax
    9fb5:	8b 55 fc             	mov    -0x4(%rbp),%edx
    9fb8:	89 c1                	mov    %eax,%ecx
    9fba:	d3 e2                	shl    %cl,%edx
    9fbc:	89 d0                	mov    %edx,%eax
    9fbe:	eb 03                	jmp    9fc3 <safe_lshift_func_uint32_t_u_u+0x38>
    9fc0:	8b 45 fc             	mov    -0x4(%rbp),%eax
    9fc3:	5d                   	pop    %rbp
    9fc4:	c3                   	retq   

0000000000009fc5 <safe_rshift_func_uint32_t_u_s>:
    9fc5:	f3 0f 1e fa          	endbr64 
    9fc9:	55                   	push   %rbp
    9fca:	48 89 e5             	mov    %rsp,%rbp
    9fcd:	89 7d fc             	mov    %edi,-0x4(%rbp)
    9fd0:	89 75 f8             	mov    %esi,-0x8(%rbp)
    9fd3:	83 7d f8 00          	cmpl   $0x0,-0x8(%rbp)
    9fd7:	78 14                	js     9fed <safe_rshift_func_uint32_t_u_s+0x28>
    9fd9:	83 7d f8 1f          	cmpl   $0x1f,-0x8(%rbp)
    9fdd:	7f 0e                	jg     9fed <safe_rshift_func_uint32_t_u_s+0x28>
    9fdf:	8b 45 f8             	mov    -0x8(%rbp),%eax
    9fe2:	8b 55 fc             	mov    -0x4(%rbp),%edx
    9fe5:	89 c1                	mov    %eax,%ecx
    9fe7:	d3 ea                	shr    %cl,%edx
    9fe9:	89 d0                	mov    %edx,%eax
    9feb:	eb 03                	jmp    9ff0 <safe_rshift_func_uint32_t_u_s+0x2b>
    9fed:	8b 45 fc             	mov    -0x4(%rbp),%eax
    9ff0:	5d                   	pop    %rbp
    9ff1:	c3                   	retq   

0000000000009ff2 <safe_rshift_func_uint32_t_u_u>:
    9ff2:	f3 0f 1e fa          	endbr64 
    9ff6:	55                   	push   %rbp
    9ff7:	48 89 e5             	mov    %rsp,%rbp
    9ffa:	89 7d fc             	mov    %edi,-0x4(%rbp)
    9ffd:	89 75 f8             	mov    %esi,-0x8(%rbp)
    a000:	83 7d f8 1f          	cmpl   $0x1f,-0x8(%rbp)
    a004:	77 0e                	ja     a014 <safe_rshift_func_uint32_t_u_u+0x22>
    a006:	8b 45 f8             	mov    -0x8(%rbp),%eax
    a009:	8b 55 fc             	mov    -0x4(%rbp),%edx
    a00c:	89 c1                	mov    %eax,%ecx
    a00e:	d3 ea                	shr    %cl,%edx
    a010:	89 d0                	mov    %edx,%eax
    a012:	eb 03                	jmp    a017 <safe_rshift_func_uint32_t_u_u+0x25>
    a014:	8b 45 fc             	mov    -0x4(%rbp),%eax
    a017:	5d                   	pop    %rbp
    a018:	c3                   	retq   

000000000000a019 <safe_unary_minus_func_uint64_t_u>:
    a019:	f3 0f 1e fa          	endbr64 
    a01d:	55                   	push   %rbp
    a01e:	48 89 e5             	mov    %rsp,%rbp
    a021:	48 89 7d f8          	mov    %rdi,-0x8(%rbp)
    a025:	48 8b 45 f8          	mov    -0x8(%rbp),%rax
    a029:	48 f7 d8             	neg    %rax
    a02c:	5d                   	pop    %rbp
    a02d:	c3                   	retq   

000000000000a02e <safe_add_func_uint64_t_u_u>:
    a02e:	f3 0f 1e fa          	endbr64 
    a032:	55                   	push   %rbp
    a033:	48 89 e5             	mov    %rsp,%rbp
    a036:	48 89 7d f8          	mov    %rdi,-0x8(%rbp)
    a03a:	48 89 75 f0          	mov    %rsi,-0x10(%rbp)
    a03e:	48 8b 55 f8          	mov    -0x8(%rbp),%rdx
    a042:	48 8b 45 f0          	mov    -0x10(%rbp),%rax
    a046:	48 01 d0             	add    %rdx,%rax
    a049:	5d                   	pop    %rbp
    a04a:	c3                   	retq   

000000000000a04b <safe_sub_func_uint64_t_u_u>:
    a04b:	f3 0f 1e fa          	endbr64 
    a04f:	55                   	push   %rbp
    a050:	48 89 e5             	mov    %rsp,%rbp
    a053:	48 89 7d f8          	mov    %rdi,-0x8(%rbp)
    a057:	48 89 75 f0          	mov    %rsi,-0x10(%rbp)
    a05b:	48 8b 45 f8          	mov    -0x8(%rbp),%rax
    a05f:	48 2b 45 f0          	sub    -0x10(%rbp),%rax
    a063:	5d                   	pop    %rbp
    a064:	c3                   	retq   

000000000000a065 <safe_mul_func_uint64_t_u_u>:
    a065:	f3 0f 1e fa          	endbr64 
    a069:	55                   	push   %rbp
    a06a:	48 89 e5             	mov    %rsp,%rbp
    a06d:	48 89 7d f8          	mov    %rdi,-0x8(%rbp)
    a071:	48 89 75 f0          	mov    %rsi,-0x10(%rbp)
    a075:	48 8b 45 f8          	mov    -0x8(%rbp),%rax
    a079:	48 0f af 45 f0       	imul   -0x10(%rbp),%rax
    a07e:	5d                   	pop    %rbp
    a07f:	c3                   	retq   

000000000000a080 <safe_mod_func_uint64_t_u_u>:
    a080:	f3 0f 1e fa          	endbr64 
    a084:	55                   	push   %rbp
    a085:	48 89 e5             	mov    %rsp,%rbp
    a088:	48 89 7d f8          	mov    %rdi,-0x8(%rbp)
    a08c:	48 89 75 f0          	mov    %rsi,-0x10(%rbp)
    a090:	48 83 7d f0 00       	cmpq   $0x0,-0x10(%rbp)
    a095:	74 12                	je     a0a9 <safe_mod_func_uint64_t_u_u+0x29>
    a097:	48 8b 45 f8          	mov    -0x8(%rbp),%rax
    a09b:	ba 00 00 00 00       	mov    $0x0,%edx
    a0a0:	48 f7 75 f0          	divq   -0x10(%rbp)
    a0a4:	48 89 d0             	mov    %rdx,%rax
    a0a7:	eb 04                	jmp    a0ad <safe_mod_func_uint64_t_u_u+0x2d>
    a0a9:	48 8b 45 f8          	mov    -0x8(%rbp),%rax
    a0ad:	5d                   	pop    %rbp
    a0ae:	c3                   	retq   

000000000000a0af <safe_div_func_uint64_t_u_u>:
    a0af:	f3 0f 1e fa          	endbr64 
    a0b3:	55                   	push   %rbp
    a0b4:	48 89 e5             	mov    %rsp,%rbp
    a0b7:	48 89 7d f8          	mov    %rdi,-0x8(%rbp)
    a0bb:	48 89 75 f0          	mov    %rsi,-0x10(%rbp)
    a0bf:	48 83 7d f0 00       	cmpq   $0x0,-0x10(%rbp)
    a0c4:	74 0f                	je     a0d5 <safe_div_func_uint64_t_u_u+0x26>
    a0c6:	48 8b 45 f8          	mov    -0x8(%rbp),%rax
    a0ca:	ba 00 00 00 00       	mov    $0x0,%edx
    a0cf:	48 f7 75 f0          	divq   -0x10(%rbp)
    a0d3:	eb 04                	jmp    a0d9 <safe_div_func_uint64_t_u_u+0x2a>
    a0d5:	48 8b 45 f8          	mov    -0x8(%rbp),%rax
    a0d9:	5d                   	pop    %rbp
    a0da:	c3                   	retq   

000000000000a0db <safe_lshift_func_uint64_t_u_s>:
    a0db:	f3 0f 1e fa          	endbr64 
    a0df:	55                   	push   %rbp
    a0e0:	48 89 e5             	mov    %rsp,%rbp
    a0e3:	48 89 7d f8          	mov    %rdi,-0x8(%rbp)
    a0e7:	89 75 f4             	mov    %esi,-0xc(%rbp)
    a0ea:	83 7d f4 00          	cmpl   $0x0,-0xc(%rbp)
    a0ee:	78 2f                	js     a11f <safe_lshift_func_uint64_t_u_s+0x44>
    a0f0:	83 7d f4 1f          	cmpl   $0x1f,-0xc(%rbp)
    a0f4:	7f 29                	jg     a11f <safe_lshift_func_uint64_t_u_s+0x44>
    a0f6:	8b 45 f4             	mov    -0xc(%rbp),%eax
    a0f9:	48 c7 c2 ff ff ff ff 	mov    $0xffffffffffffffff,%rdx
    a100:	89 c1                	mov    %eax,%ecx
    a102:	48 d3 ea             	shr    %cl,%rdx
    a105:	48 89 d0             	mov    %rdx,%rax
    a108:	48 39 45 f8          	cmp    %rax,-0x8(%rbp)
    a10c:	77 11                	ja     a11f <safe_lshift_func_uint64_t_u_s+0x44>
    a10e:	8b 45 f4             	mov    -0xc(%rbp),%eax
    a111:	48 8b 55 f8          	mov    -0x8(%rbp),%rdx
    a115:	89 c1                	mov    %eax,%ecx
    a117:	48 d3 e2             	shl    %cl,%rdx
    a11a:	48 89 d0             	mov    %rdx,%rax
    a11d:	eb 04                	jmp    a123 <safe_lshift_func_uint64_t_u_s+0x48>
    a11f:	48 8b 45 f8          	mov    -0x8(%rbp),%rax
    a123:	5d                   	pop    %rbp
    a124:	c3                   	retq   

000000000000a125 <safe_lshift_func_uint64_t_u_u>:
    a125:	f3 0f 1e fa          	endbr64 
    a129:	55                   	push   %rbp
    a12a:	48 89 e5             	mov    %rsp,%rbp
    a12d:	48 89 7d f8          	mov    %rdi,-0x8(%rbp)
    a131:	89 75 f4             	mov    %esi,-0xc(%rbp)
    a134:	83 7d f4 1f          	cmpl   $0x1f,-0xc(%rbp)
    a138:	77 29                	ja     a163 <safe_lshift_func_uint64_t_u_u+0x3e>
    a13a:	8b 45 f4             	mov    -0xc(%rbp),%eax
    a13d:	48 c7 c2 ff ff ff ff 	mov    $0xffffffffffffffff,%rdx
    a144:	89 c1                	mov    %eax,%ecx
    a146:	48 d3 ea             	shr    %cl,%rdx
    a149:	48 89 d0             	mov    %rdx,%rax
    a14c:	48 39 45 f8          	cmp    %rax,-0x8(%rbp)
    a150:	77 11                	ja     a163 <safe_lshift_func_uint64_t_u_u+0x3e>
    a152:	8b 45 f4             	mov    -0xc(%rbp),%eax
    a155:	48 8b 55 f8          	mov    -0x8(%rbp),%rdx
    a159:	89 c1                	mov    %eax,%ecx
    a15b:	48 d3 e2             	shl    %cl,%rdx
    a15e:	48 89 d0             	mov    %rdx,%rax
    a161:	eb 04                	jmp    a167 <safe_lshift_func_uint64_t_u_u+0x42>
    a163:	48 8b 45 f8          	mov    -0x8(%rbp),%rax
    a167:	5d                   	pop    %rbp
    a168:	c3                   	retq   

000000000000a169 <safe_rshift_func_uint64_t_u_s>:
    a169:	f3 0f 1e fa          	endbr64 
    a16d:	55                   	push   %rbp
    a16e:	48 89 e5             	mov    %rsp,%rbp
    a171:	48 89 7d f8          	mov    %rdi,-0x8(%rbp)
    a175:	89 75 f4             	mov    %esi,-0xc(%rbp)
    a178:	83 7d f4 00          	cmpl   $0x0,-0xc(%rbp)
    a17c:	78 17                	js     a195 <safe_rshift_func_uint64_t_u_s+0x2c>
    a17e:	83 7d f4 1f          	cmpl   $0x1f,-0xc(%rbp)
    a182:	7f 11                	jg     a195 <safe_rshift_func_uint64_t_u_s+0x2c>
    a184:	8b 45 f4             	mov    -0xc(%rbp),%eax
    a187:	48 8b 55 f8          	mov    -0x8(%rbp),%rdx
    a18b:	89 c1                	mov    %eax,%ecx
    a18d:	48 d3 ea             	shr    %cl,%rdx
    a190:	48 89 d0             	mov    %rdx,%rax
    a193:	eb 04                	jmp    a199 <safe_rshift_func_uint64_t_u_s+0x30>
    a195:	48 8b 45 f8          	mov    -0x8(%rbp),%rax
    a199:	5d                   	pop    %rbp
    a19a:	c3                   	retq   

000000000000a19b <safe_rshift_func_uint64_t_u_u>:
    a19b:	f3 0f 1e fa          	endbr64 
    a19f:	55                   	push   %rbp
    a1a0:	48 89 e5             	mov    %rsp,%rbp
    a1a3:	48 89 7d f8          	mov    %rdi,-0x8(%rbp)
    a1a7:	89 75 f4             	mov    %esi,-0xc(%rbp)
    a1aa:	83 7d f4 1f          	cmpl   $0x1f,-0xc(%rbp)
    a1ae:	77 11                	ja     a1c1 <safe_rshift_func_uint64_t_u_u+0x26>
    a1b0:	8b 45 f4             	mov    -0xc(%rbp),%eax
    a1b3:	48 8b 55 f8          	mov    -0x8(%rbp),%rdx
    a1b7:	89 c1                	mov    %eax,%ecx
    a1b9:	48 d3 ea             	shr    %cl,%rdx
    a1bc:	48 89 d0             	mov    %rdx,%rax
    a1bf:	eb 04                	jmp    a1c5 <safe_rshift_func_uint64_t_u_u+0x2a>
    a1c1:	48 8b 45 f8          	mov    -0x8(%rbp),%rax
    a1c5:	5d                   	pop    %rbp
    a1c6:	c3                   	retq   

000000000000a1c7 <safe_add_func_float_f_f>:
    a1c7:	f3 0f 1e fa          	endbr64 
    a1cb:	55                   	push   %rbp
    a1cc:	48 89 e5             	mov    %rsp,%rbp
    a1cf:	f3 0f 11 45 fc       	movss  %xmm0,-0x4(%rbp)
    a1d4:	f3 0f 11 4d f8       	movss  %xmm1,-0x8(%rbp)
    a1d9:	f3 0f 10 4d fc       	movss  -0x4(%rbp),%xmm1
    a1de:	f3 0f 10 05 2a b1 00 	movss  0xb12a(%rip),%xmm0        # 15310 <l_1543.4132+0x150>
    a1e5:	00 
    a1e6:	f3 0f 59 c8          	mulss  %xmm0,%xmm1
    a1ea:	f3 0f 10 55 f8       	movss  -0x8(%rbp),%xmm2
    a1ef:	f3 0f 10 05 19 b1 00 	movss  0xb119(%rip),%xmm0        # 15310 <l_1543.4132+0x150>
    a1f6:	00 
    a1f7:	f3 0f 59 c2          	mulss  %xmm2,%xmm0
    a1fb:	f3 0f 58 c1          	addss  %xmm1,%xmm0
    a1ff:	f3 0f 10 0d 19 b1 00 	movss  0xb119(%rip),%xmm1        # 15320 <l_1543.4132+0x160>
    a206:	00 
    a207:	0f 54 c1             	andps  %xmm1,%xmm0
    a20a:	0f 2f 05 1f b1 00 00 	comiss 0xb11f(%rip),%xmm0        # 15330 <l_1543.4132+0x170>
    a211:	76 07                	jbe    a21a <safe_add_func_float_f_f+0x53>
    a213:	f3 0f 10 45 fc       	movss  -0x4(%rbp),%xmm0
    a218:	eb 0a                	jmp    a224 <safe_add_func_float_f_f+0x5d>
    a21a:	f3 0f 10 45 fc       	movss  -0x4(%rbp),%xmm0
    a21f:	f3 0f 58 45 f8       	addss  -0x8(%rbp),%xmm0
    a224:	5d                   	pop    %rbp
    a225:	c3                   	retq   

000000000000a226 <safe_sub_func_float_f_f>:
    a226:	f3 0f 1e fa          	endbr64 
    a22a:	55                   	push   %rbp
    a22b:	48 89 e5             	mov    %rsp,%rbp
    a22e:	f3 0f 11 45 fc       	movss  %xmm0,-0x4(%rbp)
    a233:	f3 0f 11 4d f8       	movss  %xmm1,-0x8(%rbp)
    a238:	f3 0f 10 4d fc       	movss  -0x4(%rbp),%xmm1
    a23d:	f3 0f 10 05 cb b0 00 	movss  0xb0cb(%rip),%xmm0        # 15310 <l_1543.4132+0x150>
    a244:	00 
    a245:	f3 0f 59 c1          	mulss  %xmm1,%xmm0
    a249:	f3 0f 10 55 f8       	movss  -0x8(%rbp),%xmm2
    a24e:	f3 0f 10 0d ba b0 00 	movss  0xb0ba(%rip),%xmm1        # 15310 <l_1543.4132+0x150>
    a255:	00 
    a256:	f3 0f 59 ca          	mulss  %xmm2,%xmm1
    a25a:	f3 0f 5c c1          	subss  %xmm1,%xmm0
    a25e:	f3 0f 10 0d ba b0 00 	movss  0xb0ba(%rip),%xmm1        # 15320 <l_1543.4132+0x160>
    a265:	00 
    a266:	0f 54 c1             	andps  %xmm1,%xmm0
    a269:	0f 2f 05 c0 b0 00 00 	comiss 0xb0c0(%rip),%xmm0        # 15330 <l_1543.4132+0x170>
    a270:	76 07                	jbe    a279 <safe_sub_func_float_f_f+0x53>
    a272:	f3 0f 10 45 fc       	movss  -0x4(%rbp),%xmm0
    a277:	eb 0a                	jmp    a283 <safe_sub_func_float_f_f+0x5d>
    a279:	f3 0f 10 45 fc       	movss  -0x4(%rbp),%xmm0
    a27e:	f3 0f 5c 45 f8       	subss  -0x8(%rbp),%xmm0
    a283:	5d                   	pop    %rbp
    a284:	c3                   	retq   

000000000000a285 <safe_mul_func_float_f_f>:
    a285:	f3 0f 1e fa          	endbr64 
    a289:	55                   	push   %rbp
    a28a:	48 89 e5             	mov    %rsp,%rbp
    a28d:	f3 0f 11 45 fc       	movss  %xmm0,-0x4(%rbp)
    a292:	f3 0f 11 4d f8       	movss  %xmm1,-0x8(%rbp)
    a297:	f3 0f 10 4d fc       	movss  -0x4(%rbp),%xmm1
    a29c:	f3 0f 10 05 90 b0 00 	movss  0xb090(%rip),%xmm0        # 15334 <l_1543.4132+0x174>
    a2a3:	00 
    a2a4:	f3 0f 59 c8          	mulss  %xmm0,%xmm1
    a2a8:	f3 0f 10 55 f8       	movss  -0x8(%rbp),%xmm2
    a2ad:	f3 0f 10 05 83 b0 00 	movss  0xb083(%rip),%xmm0        # 15338 <l_1543.4132+0x178>
    a2b4:	00 
    a2b5:	f3 0f 59 c2          	mulss  %xmm2,%xmm0
    a2b9:	f3 0f 59 c1          	mulss  %xmm1,%xmm0
    a2bd:	f3 0f 10 0d 5b b0 00 	movss  0xb05b(%rip),%xmm1        # 15320 <l_1543.4132+0x160>
    a2c4:	00 
    a2c5:	0f 54 c1             	andps  %xmm1,%xmm0
    a2c8:	0f 2f 05 6d b0 00 00 	comiss 0xb06d(%rip),%xmm0        # 1533c <l_1543.4132+0x17c>
    a2cf:	76 07                	jbe    a2d8 <safe_mul_func_float_f_f+0x53>
    a2d1:	f3 0f 10 45 fc       	movss  -0x4(%rbp),%xmm0
    a2d6:	eb 0a                	jmp    a2e2 <safe_mul_func_float_f_f+0x5d>
    a2d8:	f3 0f 10 45 fc       	movss  -0x4(%rbp),%xmm0
    a2dd:	f3 0f 59 45 f8       	mulss  -0x8(%rbp),%xmm0
    a2e2:	5d                   	pop    %rbp
    a2e3:	c3                   	retq   

000000000000a2e4 <safe_div_func_float_f_f>:
    a2e4:	f3 0f 1e fa          	endbr64 
    a2e8:	55                   	push   %rbp
    a2e9:	48 89 e5             	mov    %rsp,%rbp
    a2ec:	f3 0f 11 45 fc       	movss  %xmm0,-0x4(%rbp)
    a2f1:	f3 0f 11 4d f8       	movss  %xmm1,-0x8(%rbp)
    a2f6:	f3 0f 10 45 f8       	movss  -0x8(%rbp),%xmm0
    a2fb:	f3 0f 10 0d 1d b0 00 	movss  0xb01d(%rip),%xmm1        # 15320 <l_1543.4132+0x160>
    a302:	00 
    a303:	0f 54 c8             	andps  %xmm0,%xmm1
    a306:	f3 0f 10 05 32 b0 00 	movss  0xb032(%rip),%xmm0        # 15340 <l_1543.4132+0x180>
    a30d:	00 
    a30e:	0f 2f c1             	comiss %xmm1,%xmm0
    a311:	0f 97 c0             	seta   %al
    a314:	83 f0 01             	xor    $0x1,%eax
    a317:	84 c0                	test   %al,%al
    a319:	75 56                	jne    a371 <safe_div_func_float_f_f+0x8d>
    a31b:	66 0f ef c0          	pxor   %xmm0,%xmm0
    a31f:	0f 2e 45 f8          	ucomiss -0x8(%rbp),%xmm0
    a323:	7a 0a                	jp     a32f <safe_div_func_float_f_f+0x4b>
    a325:	66 0f ef c0          	pxor   %xmm0,%xmm0
    a329:	0f 2e 45 f8          	ucomiss -0x8(%rbp),%xmm0
    a32d:	74 4e                	je     a37d <safe_div_func_float_f_f+0x99>
    a32f:	f3 0f 10 4d fc       	movss  -0x4(%rbp),%xmm1
    a334:	f3 0f 10 05 08 b0 00 	movss  0xb008(%rip),%xmm0        # 15344 <l_1543.4132+0x184>
    a33b:	00 
    a33c:	f3 0f 59 c1          	mulss  %xmm1,%xmm0
    a340:	f3 0f 10 55 f8       	movss  -0x8(%rbp),%xmm2
    a345:	f3 0f 10 0d fb af 00 	movss  0xaffb(%rip),%xmm1        # 15348 <l_1543.4132+0x188>
    a34c:	00 
    a34d:	f3 0f 59 ca          	mulss  %xmm2,%xmm1
    a351:	f3 0f 5e c1          	divss  %xmm1,%xmm0
    a355:	f3 0f 10 0d c3 af 00 	movss  0xafc3(%rip),%xmm1        # 15320 <l_1543.4132+0x160>
    a35c:	00 
    a35d:	0f 54 c1             	andps  %xmm1,%xmm0
    a360:	0f 2f 05 e5 af 00 00 	comiss 0xafe5(%rip),%xmm0        # 1534c <l_1543.4132+0x18c>
    a367:	0f 97 c0             	seta   %al
    a36a:	83 f0 01             	xor    $0x1,%eax
    a36d:	84 c0                	test   %al,%al
    a36f:	74 0c                	je     a37d <safe_div_func_float_f_f+0x99>
    a371:	f3 0f 10 45 fc       	movss  -0x4(%rbp),%xmm0
    a376:	f3 0f 5e 45 f8       	divss  -0x8(%rbp),%xmm0
    a37b:	eb 05                	jmp    a382 <safe_div_func_float_f_f+0x9e>
    a37d:	f3 0f 10 45 fc       	movss  -0x4(%rbp),%xmm0
    a382:	5d                   	pop    %rbp
    a383:	c3                   	retq   

000000000000a384 <safe_add_func_double_f_f>:
    a384:	f3 0f 1e fa          	endbr64 
    a388:	55                   	push   %rbp
    a389:	48 89 e5             	mov    %rsp,%rbp
    a38c:	f2 0f 11 45 f8       	movsd  %xmm0,-0x8(%rbp)
    a391:	f2 0f 11 4d f0       	movsd  %xmm1,-0x10(%rbp)
    a396:	f2 0f 10 4d f8       	movsd  -0x8(%rbp),%xmm1
    a39b:	f2 0f 10 05 ad af 00 	movsd  0xafad(%rip),%xmm0        # 15350 <l_1543.4132+0x190>
    a3a2:	00 
    a3a3:	f2 0f 59 c8          	mulsd  %xmm0,%xmm1
    a3a7:	f2 0f 10 55 f0       	movsd  -0x10(%rbp),%xmm2
    a3ac:	f2 0f 10 05 9c af 00 	movsd  0xaf9c(%rip),%xmm0        # 15350 <l_1543.4132+0x190>
    a3b3:	00 
    a3b4:	f2 0f 59 c2          	mulsd  %xmm2,%xmm0
    a3b8:	f2 0f 58 c1          	addsd  %xmm1,%xmm0
    a3bc:	f3 0f 7e 0d 9c af 00 	movq   0xaf9c(%rip),%xmm1        # 15360 <l_1543.4132+0x1a0>
    a3c3:	00 
    a3c4:	66 0f 54 c1          	andpd  %xmm1,%xmm0
    a3c8:	66 0f 2f 05 a0 af 00 	comisd 0xafa0(%rip),%xmm0        # 15370 <l_1543.4132+0x1b0>
    a3cf:	00 
    a3d0:	76 07                	jbe    a3d9 <safe_add_func_double_f_f+0x55>
    a3d2:	f2 0f 10 45 f8       	movsd  -0x8(%rbp),%xmm0
    a3d7:	eb 0a                	jmp    a3e3 <safe_add_func_double_f_f+0x5f>
    a3d9:	f2 0f 10 45 f8       	movsd  -0x8(%rbp),%xmm0
    a3de:	f2 0f 58 45 f0       	addsd  -0x10(%rbp),%xmm0
    a3e3:	5d                   	pop    %rbp
    a3e4:	c3                   	retq   

000000000000a3e5 <safe_sub_func_double_f_f>:
    a3e5:	f3 0f 1e fa          	endbr64 
    a3e9:	55                   	push   %rbp
    a3ea:	48 89 e5             	mov    %rsp,%rbp
    a3ed:	f2 0f 11 45 f8       	movsd  %xmm0,-0x8(%rbp)
    a3f2:	f2 0f 11 4d f0       	movsd  %xmm1,-0x10(%rbp)
    a3f7:	f2 0f 10 4d f8       	movsd  -0x8(%rbp),%xmm1
    a3fc:	f2 0f 10 05 4c af 00 	movsd  0xaf4c(%rip),%xmm0        # 15350 <l_1543.4132+0x190>
    a403:	00 
    a404:	f2 0f 59 c1          	mulsd  %xmm1,%xmm0
    a408:	f2 0f 10 55 f0       	movsd  -0x10(%rbp),%xmm2
    a40d:	f2 0f 10 0d 3b af 00 	movsd  0xaf3b(%rip),%xmm1        # 15350 <l_1543.4132+0x190>
    a414:	00 
    a415:	f2 0f 59 ca          	mulsd  %xmm2,%xmm1
    a419:	f2 0f 5c c1          	subsd  %xmm1,%xmm0
    a41d:	f3 0f 7e 0d 3b af 00 	movq   0xaf3b(%rip),%xmm1        # 15360 <l_1543.4132+0x1a0>
    a424:	00 
    a425:	66 0f 54 c1          	andpd  %xmm1,%xmm0
    a429:	66 0f 2f 05 3f af 00 	comisd 0xaf3f(%rip),%xmm0        # 15370 <l_1543.4132+0x1b0>
    a430:	00 
    a431:	76 07                	jbe    a43a <safe_sub_func_double_f_f+0x55>
    a433:	f2 0f 10 45 f8       	movsd  -0x8(%rbp),%xmm0
    a438:	eb 0a                	jmp    a444 <safe_sub_func_double_f_f+0x5f>
    a43a:	f2 0f 10 45 f8       	movsd  -0x8(%rbp),%xmm0
    a43f:	f2 0f 5c 45 f0       	subsd  -0x10(%rbp),%xmm0
    a444:	5d                   	pop    %rbp
    a445:	c3                   	retq   

000000000000a446 <safe_mul_func_double_f_f>:
    a446:	f3 0f 1e fa          	endbr64 
    a44a:	55                   	push   %rbp
    a44b:	48 89 e5             	mov    %rsp,%rbp
    a44e:	f2 0f 11 45 f8       	movsd  %xmm0,-0x8(%rbp)
    a453:	f2 0f 11 4d f0       	movsd  %xmm1,-0x10(%rbp)
    a458:	f2 0f 10 4d f8       	movsd  -0x8(%rbp),%xmm1
    a45d:	f2 0f 10 05 13 af 00 	movsd  0xaf13(%rip),%xmm0        # 15378 <l_1543.4132+0x1b8>
    a464:	00 
    a465:	f2 0f 59 c8          	mulsd  %xmm0,%xmm1
    a469:	f2 0f 10 55 f0       	movsd  -0x10(%rbp),%xmm2
    a46e:	f2 0f 10 05 0a af 00 	movsd  0xaf0a(%rip),%xmm0        # 15380 <l_1543.4132+0x1c0>
    a475:	00 
    a476:	f2 0f 59 c2          	mulsd  %xmm2,%xmm0
    a47a:	f2 0f 59 c1          	mulsd  %xmm1,%xmm0
    a47e:	f3 0f 7e 0d da ae 00 	movq   0xaeda(%rip),%xmm1        # 15360 <l_1543.4132+0x1a0>
    a485:	00 
    a486:	66 0f 54 c1          	andpd  %xmm1,%xmm0
    a48a:	66 0f 2f 05 f6 ae 00 	comisd 0xaef6(%rip),%xmm0        # 15388 <l_1543.4132+0x1c8>
    a491:	00 
    a492:	76 07                	jbe    a49b <safe_mul_func_double_f_f+0x55>
    a494:	f2 0f 10 45 f8       	movsd  -0x8(%rbp),%xmm0
    a499:	eb 0a                	jmp    a4a5 <safe_mul_func_double_f_f+0x5f>
    a49b:	f2 0f 10 45 f8       	movsd  -0x8(%rbp),%xmm0
    a4a0:	f2 0f 59 45 f0       	mulsd  -0x10(%rbp),%xmm0
    a4a5:	5d                   	pop    %rbp
    a4a6:	c3                   	retq   

000000000000a4a7 <safe_div_func_double_f_f>:
    a4a7:	f3 0f 1e fa          	endbr64 
    a4ab:	55                   	push   %rbp
    a4ac:	48 89 e5             	mov    %rsp,%rbp
    a4af:	f2 0f 11 45 f8       	movsd  %xmm0,-0x8(%rbp)
    a4b4:	f2 0f 11 4d f0       	movsd  %xmm1,-0x10(%rbp)
    a4b9:	f2 0f 10 45 f0       	movsd  -0x10(%rbp),%xmm0
    a4be:	f3 0f 7e 0d 9a ae 00 	movq   0xae9a(%rip),%xmm1        # 15360 <l_1543.4132+0x1a0>
    a4c5:	00 
    a4c6:	66 0f 54 c8          	andpd  %xmm0,%xmm1
    a4ca:	f2 0f 10 05 be ae 00 	movsd  0xaebe(%rip),%xmm0        # 15390 <l_1543.4132+0x1d0>
    a4d1:	00 
    a4d2:	66 0f 2f c1          	comisd %xmm1,%xmm0
    a4d6:	0f 97 c0             	seta   %al
    a4d9:	83 f0 01             	xor    $0x1,%eax
    a4dc:	84 c0                	test   %al,%al
    a4de:	75 5a                	jne    a53a <safe_div_func_double_f_f+0x93>
    a4e0:	66 0f ef c0          	pxor   %xmm0,%xmm0
    a4e4:	66 0f 2e 45 f0       	ucomisd -0x10(%rbp),%xmm0
    a4e9:	7a 0b                	jp     a4f6 <safe_div_func_double_f_f+0x4f>
    a4eb:	66 0f ef c0          	pxor   %xmm0,%xmm0
    a4ef:	66 0f 2e 45 f0       	ucomisd -0x10(%rbp),%xmm0
    a4f4:	74 50                	je     a546 <safe_div_func_double_f_f+0x9f>
    a4f6:	f2 0f 10 4d f8       	movsd  -0x8(%rbp),%xmm1
    a4fb:	f2 0f 10 05 95 ae 00 	movsd  0xae95(%rip),%xmm0        # 15398 <l_1543.4132+0x1d8>
    a502:	00 
    a503:	f2 0f 59 c1          	mulsd  %xmm1,%xmm0
    a507:	f2 0f 10 55 f0       	movsd  -0x10(%rbp),%xmm2
    a50c:	f2 0f 10 0d 8c ae 00 	movsd  0xae8c(%rip),%xmm1        # 153a0 <l_1543.4132+0x1e0>
    a513:	00 
    a514:	f2 0f 59 ca          	mulsd  %xmm2,%xmm1
    a518:	f2 0f 5e c1          	divsd  %xmm1,%xmm0
    a51c:	f3 0f 7e 0d 3c ae 00 	movq   0xae3c(%rip),%xmm1        # 15360 <l_1543.4132+0x1a0>
    a523:	00 
    a524:	66 0f 54 c1          	andpd  %xmm1,%xmm0
    a528:	66 0f 2f 05 78 ae 00 	comisd 0xae78(%rip),%xmm0        # 153a8 <l_1543.4132+0x1e8>
    a52f:	00 
    a530:	0f 97 c0             	seta   %al
    a533:	83 f0 01             	xor    $0x1,%eax
    a536:	84 c0                	test   %al,%al
    a538:	74 0c                	je     a546 <safe_div_func_double_f_f+0x9f>
    a53a:	f2 0f 10 45 f8       	movsd  -0x8(%rbp),%xmm0
    a53f:	f2 0f 5e 45 f0       	divsd  -0x10(%rbp),%xmm0
    a544:	eb 05                	jmp    a54b <safe_div_func_double_f_f+0xa4>
    a546:	f2 0f 10 45 f8       	movsd  -0x8(%rbp),%xmm0
    a54b:	5d                   	pop    %rbp
    a54c:	c3                   	retq   

000000000000a54d <safe_convert_func_float_to_int32_t>:
    a54d:	f3 0f 1e fa          	endbr64 
    a551:	55                   	push   %rbp
    a552:	48 89 e5             	mov    %rsp,%rbp
    a555:	f3 0f 11 45 fc       	movss  %xmm0,-0x4(%rbp)
    a55a:	f3 0f 10 05 4e ae 00 	movss  0xae4e(%rip),%xmm0        # 153b0 <l_1543.4132+0x1f0>
    a561:	00 
    a562:	0f 2f 45 fc          	comiss -0x4(%rbp),%xmm0
    a566:	0f 93 c0             	setae  %al
    a569:	83 f0 01             	xor    $0x1,%eax
    a56c:	84 c0                	test   %al,%al
    a56e:	74 21                	je     a591 <safe_convert_func_float_to_int32_t+0x44>
    a570:	f3 0f 10 45 fc       	movss  -0x4(%rbp),%xmm0
    a575:	0f 2f 05 38 ae 00 00 	comiss 0xae38(%rip),%xmm0        # 153b4 <l_1543.4132+0x1f4>
    a57c:	0f 93 c0             	setae  %al
    a57f:	83 f0 01             	xor    $0x1,%eax
    a582:	84 c0                	test   %al,%al
    a584:	74 0b                	je     a591 <safe_convert_func_float_to_int32_t+0x44>
    a586:	f3 0f 10 45 fc       	movss  -0x4(%rbp),%xmm0
    a58b:	f3 0f 2c c0          	cvttss2si %xmm0,%eax
    a58f:	eb 05                	jmp    a596 <safe_convert_func_float_to_int32_t+0x49>
    a591:	b8 ff ff ff 7f       	mov    $0x7fffffff,%eax
    a596:	5d                   	pop    %rbp
    a597:	c3                   	retq   

000000000000a598 <crc32_gentab>:
    a598:	f3 0f 1e fa          	endbr64 
    a59c:	55                   	push   %rbp
    a59d:	48 89 e5             	mov    %rsp,%rbp
    a5a0:	c7 45 fc 20 83 b8 ed 	movl   $0xedb88320,-0x4(%rbp)
    a5a7:	c7 45 f4 00 00 00 00 	movl   $0x0,-0xc(%rbp)
    a5ae:	eb 51                	jmp    a601 <crc32_gentab+0x69>
    a5b0:	8b 45 f4             	mov    -0xc(%rbp),%eax
    a5b3:	89 45 f0             	mov    %eax,-0x10(%rbp)
    a5b6:	c7 45 f8 08 00 00 00 	movl   $0x8,-0x8(%rbp)
    a5bd:	eb 1e                	jmp    a5dd <crc32_gentab+0x45>
    a5bf:	8b 45 f0             	mov    -0x10(%rbp),%eax
    a5c2:	83 e0 01             	and    $0x1,%eax
    a5c5:	85 c0                	test   %eax,%eax
    a5c7:	74 0d                	je     a5d6 <crc32_gentab+0x3e>
    a5c9:	8b 45 f0             	mov    -0x10(%rbp),%eax
    a5cc:	d1 e8                	shr    %eax
    a5ce:	33 45 fc             	xor    -0x4(%rbp),%eax
    a5d1:	89 45 f0             	mov    %eax,-0x10(%rbp)
    a5d4:	eb 03                	jmp    a5d9 <crc32_gentab+0x41>
    a5d6:	d1 6d f0             	shrl   -0x10(%rbp)
    a5d9:	83 6d f8 01          	subl   $0x1,-0x8(%rbp)
    a5dd:	83 7d f8 00          	cmpl   $0x0,-0x8(%rbp)
    a5e1:	7f dc                	jg     a5bf <crc32_gentab+0x27>
    a5e3:	8b 45 f4             	mov    -0xc(%rbp),%eax
    a5e6:	48 98                	cltq   
    a5e8:	48 8d 0c 85 00 00 00 	lea    0x0(,%rax,4),%rcx
    a5ef:	00 
    a5f0:	48 8d 15 e9 0d 01 00 	lea    0x10de9(%rip),%rdx        # 1b3e0 <crc32_tab>
    a5f7:	8b 45 f0             	mov    -0x10(%rbp),%eax
    a5fa:	89 04 11             	mov    %eax,(%rcx,%rdx,1)
    a5fd:	83 45 f4 01          	addl   $0x1,-0xc(%rbp)
    a601:	81 7d f4 ff 00 00 00 	cmpl   $0xff,-0xc(%rbp)
    a608:	7e a6                	jle    a5b0 <crc32_gentab+0x18>
    a60a:	90                   	nop
    a60b:	90                   	nop
    a60c:	5d                   	pop    %rbp
    a60d:	c3                   	retq   

000000000000a60e <crc32_byte>:
    a60e:	f3 0f 1e fa          	endbr64 
    a612:	55                   	push   %rbp
    a613:	48 89 e5             	mov    %rsp,%rbp
    a616:	89 f8                	mov    %edi,%eax
    a618:	88 45 fc             	mov    %al,-0x4(%rbp)
    a61b:	8b 05 ff d9 00 00    	mov    0xd9ff(%rip),%eax        # 18020 <crc32_context>
    a621:	c1 e8 08             	shr    $0x8,%eax
    a624:	89 c1                	mov    %eax,%ecx
    a626:	0f b6 55 fc          	movzbl -0x4(%rbp),%edx
    a62a:	8b 05 f0 d9 00 00    	mov    0xd9f0(%rip),%eax        # 18020 <crc32_context>
    a630:	31 d0                	xor    %edx,%eax
    a632:	0f b6 c0             	movzbl %al,%eax
    a635:	89 c0                	mov    %eax,%eax
    a637:	48 8d 14 85 00 00 00 	lea    0x0(,%rax,4),%rdx
    a63e:	00 
    a63f:	48 8d 05 9a 0d 01 00 	lea    0x10d9a(%rip),%rax        # 1b3e0 <crc32_tab>
    a646:	8b 04 02             	mov    (%rdx,%rax,1),%eax
    a649:	31 c8                	xor    %ecx,%eax
    a64b:	89 05 cf d9 00 00    	mov    %eax,0xd9cf(%rip)        # 18020 <crc32_context>
    a651:	90                   	nop
    a652:	5d                   	pop    %rbp
    a653:	c3                   	retq   

000000000000a654 <crc32_8bytes>:
    a654:	f3 0f 1e fa          	endbr64 
    a658:	55                   	push   %rbp
    a659:	48 89 e5             	mov    %rsp,%rbp
    a65c:	48 83 ec 08          	sub    $0x8,%rsp
    a660:	48 89 7d f8          	mov    %rdi,-0x8(%rbp)
    a664:	48 8b 45 f8          	mov    -0x8(%rbp),%rax
    a668:	0f b6 c0             	movzbl %al,%eax
    a66b:	89 c7                	mov    %eax,%edi
    a66d:	e8 9c ff ff ff       	callq  a60e <crc32_byte>
    a672:	48 8b 45 f8          	mov    -0x8(%rbp),%rax
    a676:	48 c1 e8 08          	shr    $0x8,%rax
    a67a:	0f b6 c0             	movzbl %al,%eax
    a67d:	89 c7                	mov    %eax,%edi
    a67f:	e8 8a ff ff ff       	callq  a60e <crc32_byte>
    a684:	48 8b 45 f8          	mov    -0x8(%rbp),%rax
    a688:	48 c1 e8 10          	shr    $0x10,%rax
    a68c:	0f b6 c0             	movzbl %al,%eax
    a68f:	89 c7                	mov    %eax,%edi
    a691:	e8 78 ff ff ff       	callq  a60e <crc32_byte>
    a696:	48 8b 45 f8          	mov    -0x8(%rbp),%rax
    a69a:	48 c1 e8 18          	shr    $0x18,%rax
    a69e:	0f b6 c0             	movzbl %al,%eax
    a6a1:	89 c7                	mov    %eax,%edi
    a6a3:	e8 66 ff ff ff       	callq  a60e <crc32_byte>
    a6a8:	48 8b 45 f8          	mov    -0x8(%rbp),%rax
    a6ac:	48 c1 e8 20          	shr    $0x20,%rax
    a6b0:	0f b6 c0             	movzbl %al,%eax
    a6b3:	89 c7                	mov    %eax,%edi
    a6b5:	e8 54 ff ff ff       	callq  a60e <crc32_byte>
    a6ba:	48 8b 45 f8          	mov    -0x8(%rbp),%rax
    a6be:	48 c1 e8 28          	shr    $0x28,%rax
    a6c2:	0f b6 c0             	movzbl %al,%eax
    a6c5:	89 c7                	mov    %eax,%edi
    a6c7:	e8 42 ff ff ff       	callq  a60e <crc32_byte>
    a6cc:	48 8b 45 f8          	mov    -0x8(%rbp),%rax
    a6d0:	48 c1 e8 30          	shr    $0x30,%rax
    a6d4:	0f b6 c0             	movzbl %al,%eax
    a6d7:	89 c7                	mov    %eax,%edi
    a6d9:	e8 30 ff ff ff       	callq  a60e <crc32_byte>
    a6de:	48 8b 45 f8          	mov    -0x8(%rbp),%rax
    a6e2:	48 c1 e8 38          	shr    $0x38,%rax
    a6e6:	0f b6 c0             	movzbl %al,%eax
    a6e9:	89 c7                	mov    %eax,%edi
    a6eb:	e8 1e ff ff ff       	callq  a60e <crc32_byte>
    a6f0:	90                   	nop
    a6f1:	c9                   	leaveq 
    a6f2:	c3                   	retq   

000000000000a6f3 <transparent_crc>:
    a6f3:	f3 0f 1e fa          	endbr64 
    a6f7:	55                   	push   %rbp
    a6f8:	48 89 e5             	mov    %rsp,%rbp
    a6fb:	48 83 ec 20          	sub    $0x20,%rsp
    a6ff:	48 89 7d f8          	mov    %rdi,-0x8(%rbp)
    a703:	48 89 75 f0          	mov    %rsi,-0x10(%rbp)
    a707:	89 55 ec             	mov    %edx,-0x14(%rbp)
    a70a:	48 8b 45 f8          	mov    -0x8(%rbp),%rax
    a70e:	48 89 c7             	mov    %rax,%rdi
    a711:	e8 3e ff ff ff       	callq  a654 <crc32_8bytes>
    a716:	83 7d ec 00          	cmpl   $0x0,-0x14(%rbp)
    a71a:	74 22                	je     a73e <transparent_crc+0x4b>
    a71c:	8b 05 fe d8 00 00    	mov    0xd8fe(%rip),%eax        # 18020 <crc32_context>
    a722:	f7 d0                	not    %eax
    a724:	89 c2                	mov    %eax,%edx
    a726:	48 8b 45 f0          	mov    -0x10(%rbp),%rax
    a72a:	48 89 c6             	mov    %rax,%rsi
    a72d:	48 8d 3d fc 98 00 00 	lea    0x98fc(%rip),%rdi        # 14030 <_IO_stdin_used+0x30>
    a734:	b8 00 00 00 00       	mov    $0x0,%eax
    a739:	e8 42 e9 ff ff       	callq  9080 <printf@plt>
    a73e:	90                   	nop
    a73f:	c9                   	leaveq 
    a740:	c3                   	retq   

000000000000a741 <transparent_crc_bytes>:
    a741:	f3 0f 1e fa          	endbr64 
    a745:	55                   	push   %rbp
    a746:	48 89 e5             	mov    %rsp,%rbp
    a749:	48 83 ec 30          	sub    $0x30,%rsp
    a74d:	48 89 7d e8          	mov    %rdi,-0x18(%rbp)
    a751:	89 75 e4             	mov    %esi,-0x1c(%rbp)
    a754:	48 89 55 d8          	mov    %rdx,-0x28(%rbp)
    a758:	89 4d e0             	mov    %ecx,-0x20(%rbp)
    a75b:	c7 45 fc 00 00 00 00 	movl   $0x0,-0x4(%rbp)
    a762:	eb 1e                	jmp    a782 <transparent_crc_bytes+0x41>
    a764:	8b 45 fc             	mov    -0x4(%rbp),%eax
    a767:	48 63 d0             	movslq %eax,%rdx
    a76a:	48 8b 45 e8          	mov    -0x18(%rbp),%rax
    a76e:	48 01 d0             	add    %rdx,%rax
    a771:	0f b6 00             	movzbl (%rax),%eax
    a774:	0f b6 c0             	movzbl %al,%eax
    a777:	89 c7                	mov    %eax,%edi
    a779:	e8 90 fe ff ff       	callq  a60e <crc32_byte>
    a77e:	83 45 fc 01          	addl   $0x1,-0x4(%rbp)
    a782:	8b 45 fc             	mov    -0x4(%rbp),%eax
    a785:	3b 45 e4             	cmp    -0x1c(%rbp),%eax
    a788:	7c da                	jl     a764 <transparent_crc_bytes+0x23>
    a78a:	83 7d e0 00          	cmpl   $0x0,-0x20(%rbp)
    a78e:	74 22                	je     a7b2 <transparent_crc_bytes+0x71>
    a790:	8b 05 8a d8 00 00    	mov    0xd88a(%rip),%eax        # 18020 <crc32_context>
    a796:	f7 d0                	not    %eax
    a798:	89 c2                	mov    %eax,%edx
    a79a:	48 8b 45 d8          	mov    -0x28(%rbp),%rax
    a79e:	48 89 c6             	mov    %rax,%rsi
    a7a1:	48 8d 3d 88 98 00 00 	lea    0x9888(%rip),%rdi        # 14030 <_IO_stdin_used+0x30>
    a7a8:	b8 00 00 00 00       	mov    $0x0,%eax
    a7ad:	e8 ce e8 ff ff       	callq  9080 <printf@plt>
    a7b2:	90                   	nop
    a7b3:	c9                   	leaveq 
    a7b4:	c3                   	retq   

000000000000a7b5 <func_1>:
    a7b5:	f3 0f 1e fa          	endbr64 
    a7b9:	55                   	push   %rbp
    a7ba:	48 89 e5             	mov    %rsp,%rbp
    a7bd:	41 55                	push   %r13
    a7bf:	41 54                	push   %r12
    a7c1:	53                   	push   %rbx
    a7c2:	48 81 ec 38 0e 00 00 	sub    $0xe38,%rsp
    a7c9:	64 48 8b 04 25 28 00 	mov    %fs:0x28,%rax
    a7d0:	00 00 
    a7d2:	48 89 45 d8          	mov    %rax,-0x28(%rbp)
    a7d6:	31 c0                	xor    %eax,%eax
    a7d8:	c7 85 d0 f1 ff ff 01 	movl   $0x1,-0xe30(%rbp)
    a7df:	00 00 00 
    a7e2:	c7 85 f4 f2 ff ff 6f 	movl   $0xae0fc36f,-0xd0c(%rbp)
    a7e9:	c3 0f ae 
    a7ec:	c7 85 f8 f2 ff ff 6f 	movl   $0xae0fc36f,-0xd08(%rbp)
    a7f3:	c3 0f ae 
    a7f6:	c7 85 30 f5 ff ff 01 	movl   $0x1,-0xad0(%rbp)
    a7fd:	00 00 00 
    a800:	c7 85 34 f5 ff ff 25 	movl   $0xf717c925,-0xacc(%rbp)
    a807:	c9 17 f7 
    a80a:	c7 85 38 f5 ff ff 01 	movl   $0x1,-0xac8(%rbp)
    a811:	00 00 00 
    a814:	c7 85 3c f5 ff ff 01 	movl   $0x1,-0xac4(%rbp)
    a81b:	00 00 00 
    a81e:	c7 85 40 f5 ff ff ff 	movl   $0xffffffff,-0xac0(%rbp)
    a825:	ff ff ff 
    a828:	c7 85 44 f5 ff ff 25 	movl   $0xf717c925,-0xabc(%rbp)
    a82f:	c9 17 f7 
    a832:	c7 85 48 f5 ff ff ff 	movl   $0xffffffff,-0xab8(%rbp)
    a839:	ff ff ff 
    a83c:	c7 85 4c f5 ff ff 01 	movl   $0x1,-0xab4(%rbp)
    a843:	00 00 00 
    a846:	c7 85 50 f5 ff ff 01 	movl   $0x1,-0xab0(%rbp)
    a84d:	00 00 00 
    a850:	c7 85 54 f5 ff ff 25 	movl   $0xf717c925,-0xaac(%rbp)
    a857:	c9 17 f7 
    a85a:	c7 85 58 f5 ff ff 01 	movl   $0x1,-0xaa8(%rbp)
    a861:	00 00 00 
    a864:	c7 85 5c f5 ff ff ae 	movl   $0x32d748ae,-0xaa4(%rbp)
    a86b:	48 d7 32 
    a86e:	c7 85 60 f5 ff ff 07 	movl   $0x7,-0xaa0(%rbp)
    a875:	00 00 00 
    a878:	c7 85 64 f5 ff ff ff 	movl   $0xffffffff,-0xa9c(%rbp)
    a87f:	ff ff ff 
    a882:	c7 85 68 f5 ff ff ff 	movl   $0xffffffff,-0xa98(%rbp)
    a889:	ff ff ff 
    a88c:	c7 85 6c f5 ff ff 25 	movl   $0xf717c925,-0xa94(%rbp)
    a893:	c9 17 f7 
    a896:	c7 85 70 f5 ff ff 25 	movl   $0xf717c925,-0xa90(%rbp)
    a89d:	c9 17 f7 
    a8a0:	c7 85 74 f5 ff ff ff 	movl   $0xffffffff,-0xa8c(%rbp)
    a8a7:	ff ff ff 
    a8aa:	c7 85 78 f5 ff ff ff 	movl   $0xffffffff,-0xa88(%rbp)
    a8b1:	ff ff ff 
    a8b4:	c7 85 7c f5 ff ff 07 	movl   $0x7,-0xa84(%rbp)
    a8bb:	00 00 00 
    a8be:	c7 85 80 f5 ff ff ae 	movl   $0x32d748ae,-0xa80(%rbp)
    a8c5:	48 d7 32 
    a8c8:	48 8d 05 19 0f 01 00 	lea    0x10f19(%rip),%rax        # 1b7e8 <g_4>
    a8cf:	48 89 85 28 f2 ff ff 	mov    %rax,-0xdd8(%rbp)
    a8d6:	48 c7 85 08 f2 ff ff 	movq   $0x0,-0xdf8(%rbp)
    a8dd:	00 00 00 00 
    a8e1:	48 8d 85 08 f2 ff ff 	lea    -0xdf8(%rbp),%rax
    a8e8:	48 89 85 30 f2 ff ff 	mov    %rax,-0xdd0(%rbp)
    a8ef:	c7 85 20 f3 ff ff fb 	movl   $0xfbfb31fb,-0xce0(%rbp)
    a8f6:	31 fb fb 
    a8f9:	66 c7 85 24 f3 ff ff 	movw   $0xfb31,-0xcdc(%rbp)
    a900:	31 fb 
    a902:	c6 85 26 f3 ff ff fb 	movb   $0xfb,-0xcda(%rbp)
    a909:	c7 85 27 f3 ff ff 31 	movl   $0x31043131,-0xcd9(%rbp)
    a910:	31 04 31 
    a913:	66 c7 85 2b f3 ff ff 	movw   $0x431,-0xcd5(%rbp)
    a91a:	31 04 
    a91c:	c6 85 2d f3 ff ff 31 	movb   $0x31,-0xcd3(%rbp)
    a923:	c7 85 2e f3 ff ff 31 	movl   $0x31fbfb31,-0xcd2(%rbp)
    a92a:	fb fb 31 
    a92d:	66 c7 85 32 f3 ff ff 	movw   $0xfbfb,-0xcce(%rbp)
    a934:	fb fb 
    a936:	c6 85 34 f3 ff ff 31 	movb   $0x31,-0xccc(%rbp)
    a93d:	66 c7 85 c4 f1 ff ff 	movw   $0x2,-0xe3c(%rbp)
    a944:	02 00 
    a946:	c6 85 be f1 ff ff 01 	movb   $0x1,-0xe42(%rbp)
    a94d:	c7 85 e4 f1 ff ff 64 	movl   $0x7ddb0364,-0xe1c(%rbp)
    a954:	03 db 7d 
    a957:	c6 85 bf f1 ff ff 11 	movb   $0x11,-0xe41(%rbp)
    a95e:	c6 85 c0 f1 ff ff 08 	movb   $0x8,-0xe40(%rbp)
    a965:	66 c7 85 c6 f1 ff ff 	movw   $0x16de,-0xe3a(%rbp)
    a96c:	de 16 
    a96e:	48 8d 05 f3 f4 00 00 	lea    0xf4f3(%rip),%rax        # 19e68 <g_471>
    a975:	48 89 85 38 f2 ff ff 	mov    %rax,-0xdc8(%rbp)
    a97c:	48 8d 05 5d 02 01 00 	lea    0x1025d(%rip),%rax        # 1abe0 <g_474+0x5e0>
    a983:	48 89 85 40 f2 ff ff 	mov    %rax,-0xdc0(%rbp)
    a98a:	48 8d 85 70 f6 ff ff 	lea    -0x990(%rbp),%rax
    a991:	48 8d 15 48 d9 00 00 	lea    0xd948(%rip),%rdx        # 182e0 <g_1941+0x10>
    a998:	b9 3c 00 00 00       	mov    $0x3c,%ecx
    a99d:	48 89 c7             	mov    %rax,%rdi
    a9a0:	48 89 d6             	mov    %rdx,%rsi
    a9a3:	f3 48 a5             	rep movsq %ds:(%rsi),%es:(%rdi)
    a9a6:	48 c7 85 10 f2 ff ff 	movq   $0x0,-0xdf0(%rbp)
    a9ad:	00 00 00 00 
    a9b1:	66 c7 85 90 f5 ff ff 	movw   $0xfeff,-0xa70(%rbp)
    a9b8:	ff fe 
    a9ba:	c6 85 92 f5 ff ff ff 	movb   $0xff,-0xa6e(%rbp)
    a9c1:	66 c7 85 93 f5 ff ff 	movw   $0xfef6,-0xa6d(%rbp)
    a9c8:	f6 fe 
    a9ca:	c6 85 95 f5 ff ff 01 	movb   $0x1,-0xa6b(%rbp)
    a9d1:	66 c7 85 96 f5 ff ff 	movw   $0xa61c,-0xa6a(%rbp)
    a9d8:	1c a6 
    a9da:	c6 85 98 f5 ff ff ff 	movb   $0xff,-0xa68(%rbp)
    a9e1:	66 c7 85 99 f5 ff ff 	movw   $0xa6ff,-0xa67(%rbp)
    a9e8:	ff a6 
    a9ea:	c6 85 9b f5 ff ff 99 	movb   $0x99,-0xa65(%rbp)
    a9f1:	66 c7 85 9c f5 ff ff 	movw   $0xff08,-0xa64(%rbp)
    a9f8:	08 ff 
    a9fa:	c6 85 9e f5 ff ff 92 	movb   $0x92,-0xa62(%rbp)
    aa01:	66 c7 85 9f f5 ff ff 	movw   $0xd3ff,-0xa61(%rbp)
    aa08:	ff d3 
    aa0a:	c6 85 a1 f5 ff ff 02 	movb   $0x2,-0xa5f(%rbp)
    aa11:	66 c7 85 a2 f5 ff ff 	movw   $0xd21c,-0xa5e(%rbp)
    aa18:	1c d2 
    aa1a:	c6 85 a4 f5 ff ff d2 	movb   $0xd2,-0xa5c(%rbp)
    aa21:	66 c7 85 a5 f5 ff ff 	movw   $0xf6,-0xa5b(%rbp)
    aa28:	f6 00 
    aa2a:	c6 85 a7 f5 ff ff ff 	movb   $0xff,-0xa59(%rbp)
    aa31:	66 c7 85 a8 f5 ff ff 	movw   $0x8ff,-0xa58(%rbp)
    aa38:	ff 08 
    aa3a:	c6 85 aa f5 ff ff 04 	movb   $0x4,-0xa56(%rbp)
    aa41:	66 c7 85 ab f5 ff ff 	movw   $0xa003,-0xa55(%rbp)
    aa48:	03 a0 
    aa4a:	c6 85 ad f5 ff ff ff 	movb   $0xff,-0xa53(%rbp)
    aa51:	66 c7 85 ae f5 ff ff 	movw   $0xf800,-0xa52(%rbp)
    aa58:	00 f8 
    aa5a:	c6 85 b0 f5 ff ff 06 	movb   $0x6,-0xa50(%rbp)
    aa61:	66 c7 85 b1 f5 ff ff 	movw   $0xa0ff,-0xa4f(%rbp)
    aa68:	ff a0 
    aa6a:	c6 85 b3 f5 ff ff c4 	movb   $0xc4,-0xa4d(%rbp)
    aa71:	66 c7 85 b4 f5 ff ff 	movw   $0x85a,-0xa4c(%rbp)
    aa78:	5a 08 
    aa7a:	c6 85 b6 f5 ff ff 1c 	movb   $0x1c,-0xa4a(%rbp)
    aa81:	66 c7 85 b7 f5 ff ff 	movw   $0x99,-0xa49(%rbp)
    aa88:	99 00 
    aa8a:	c6 85 b9 f5 ff ff 01 	movb   $0x1,-0xa47(%rbp)
    aa91:	66 c7 85 ba f5 ff ff 	movw   $0xd206,-0xa46(%rbp)
    aa98:	06 d2 
    aa9a:	c6 85 bc f5 ff ff fb 	movb   $0xfb,-0xa44(%rbp)
    aaa1:	66 c7 85 bd f5 ff ff 	movw   $0xd3ff,-0xa43(%rbp)
    aaa8:	ff d3 
    aaaa:	c6 85 bf f5 ff ff 29 	movb   $0x29,-0xa41(%rbp)
    aab1:	66 c7 85 c0 f5 ff ff 	movw   $0xfffb,-0xa40(%rbp)
    aab8:	fb ff 
    aaba:	c6 85 c2 f5 ff ff 5a 	movb   $0x5a,-0xa3e(%rbp)
    aac1:	66 c7 85 c3 f5 ff ff 	movw   $0xa604,-0xa3d(%rbp)
    aac8:	04 a6 
    aaca:	c6 85 c5 f5 ff ff 29 	movb   $0x29,-0xa3b(%rbp)
    aad1:	66 c7 85 c6 f5 ff ff 	movw   $0xa643,-0xa3a(%rbp)
    aad8:	43 a6 
    aada:	c6 85 c8 f5 ff ff fb 	movb   $0xfb,-0xa38(%rbp)
    aae1:	66 c7 85 c9 f5 ff ff 	movw   $0xfe01,-0xa37(%rbp)
    aae8:	01 fe 
    aaea:	c6 85 cb f5 ff ff 01 	movb   $0x1,-0xa35(%rbp)
    aaf1:	66 c7 85 cc f5 ff ff 	movw   $0xfe06,-0xa34(%rbp)
    aaf8:	06 fe 
    aafa:	c6 85 ce f5 ff ff 1c 	movb   $0x1c,-0xa32(%rbp)
    ab01:	66 c7 85 cf f5 ff ff 	movw   $0x101,-0xa31(%rbp)
    ab08:	01 01 
    ab0a:	c6 85 d1 f5 ff ff c4 	movb   $0xc4,-0xa2f(%rbp)
    ab11:	66 c7 85 d2 f5 ff ff 	movw   $0x5afe,-0xa2e(%rbp)
    ab18:	fe 5a 
    ab1a:	c6 85 d4 f5 ff ff 06 	movb   $0x6,-0xa2c(%rbp)
    ab21:	66 c7 85 d5 f5 ff ff 	movw   $0x6cfc,-0xa2b(%rbp)
    ab28:	fc 6c 
    ab2a:	c6 85 d7 f5 ff ff ff 	movb   $0xff,-0xa29(%rbp)
    ab31:	66 c7 85 d8 f5 ff ff 	movw   $0x1fe,-0xa28(%rbp)
    ab38:	fe 01 
    ab3a:	c6 85 da f5 ff ff 04 	movb   $0x4,-0xa26(%rbp)
    ab41:	66 c7 85 db f5 ff ff 	movw   $0x6b01,-0xa25(%rbp)
    ab48:	01 6b 
    ab4a:	c6 85 dd f5 ff ff ff 	movb   $0xff,-0xa23(%rbp)
    ab51:	66 c7 85 de f5 ff ff 	movw   $0x606,-0xa22(%rbp)
    ab58:	06 06 
    ab5a:	c6 85 e0 f5 ff ff d2 	movb   $0xd2,-0xa20(%rbp)
    ab61:	66 c7 85 e1 f5 ff ff 	movw   $0xad01,-0xa1f(%rbp)
    ab68:	01 ad 
    ab6a:	c6 85 e3 f5 ff ff 02 	movb   $0x2,-0xa1d(%rbp)
    ab71:	66 c7 85 e4 f5 ff ff 	movw   $0xff43,-0xa1c(%rbp)
    ab78:	43 ff 
    ab7a:	c6 85 e6 f5 ff ff 92 	movb   $0x92,-0xa1a(%rbp)
    ab81:	66 c7 85 e7 f5 ff ff 	movw   $0x5c04,-0xa19(%rbp)
    ab88:	04 5c 
    ab8a:	c6 85 e9 f5 ff ff 99 	movb   $0x99,-0xa17(%rbp)
    ab91:	66 c7 85 ea f5 ff ff 	movw   $0xfffb,-0xa16(%rbp)
    ab98:	fb ff 
    ab9a:	c6 85 ec f5 ff ff ff 	movb   $0xff,-0xa14(%rbp)
    aba1:	66 c7 85 ed f5 ff ff 	movw   $0xadff,-0xa13(%rbp)
    aba8:	ff ad 
    abaa:	c6 85 ef f5 ff ff 01 	movb   $0x1,-0xa11(%rbp)
    abb1:	66 c7 85 f0 f5 ff ff 	movw   $0x606,-0xa10(%rbp)
    abb8:	06 06 
    abba:	c6 85 f2 f5 ff ff ff 	movb   $0xff,-0xa0e(%rbp)
    abc1:	66 c7 85 f3 f5 ff ff 	movw   $0x6b99,-0xa0d(%rbp)
    abc8:	99 6b 
    abca:	c6 85 f5 f5 ff ff ff 	movb   $0xff,-0xa0b(%rbp)
    abd1:	66 c7 85 f6 f5 ff ff 	movw   $0x15a,-0xa0a(%rbp)
    abd8:	5a 01 
    abda:	c6 85 f8 f5 ff ff 04 	movb   $0x4,-0xa08(%rbp)
    abe1:	66 c7 85 f9 f5 ff ff 	movw   $0x6cff,-0xa07(%rbp)
    abe8:	ff 6c 
    abea:	c6 85 fb f5 ff ff ff 	movb   $0xff,-0xa05(%rbp)
    abf1:	66 c7 85 fc f5 ff ff 	movw   $0x5a00,-0xa04(%rbp)
    abf8:	00 5a 
    abfa:	c6 85 fe f5 ff ff 04 	movb   $0x4,-0xa02(%rbp)
    ac01:	66 c7 85 ff f5 ff ff 	movw   $0x103,-0xa01(%rbp)
    ac08:	03 01 
    ac0a:	c6 85 01 f6 ff ff ff 	movb   $0xff,-0x9ff(%rbp)
    ac11:	66 c7 85 02 f6 ff ff 	movw   $0xfeff,-0x9fe(%rbp)
    ac18:	ff fe 
    ac1a:	c6 85 04 f6 ff ff ff 	movb   $0xff,-0x9fc(%rbp)
    ac21:	66 c7 85 05 f6 ff ff 	movw   $0xfef6,-0x9fb(%rbp)
    ac28:	f6 fe 
    ac2a:	c6 85 07 f6 ff ff 01 	movb   $0x1,-0x9f9(%rbp)
    ac31:	66 c7 85 08 f6 ff ff 	movw   $0xa61c,-0x9f8(%rbp)
    ac38:	1c a6 
    ac3a:	c6 85 0a f6 ff ff ff 	movb   $0xff,-0x9f6(%rbp)
    ac41:	66 c7 85 0b f6 ff ff 	movw   $0xa6ff,-0x9f5(%rbp)
    ac48:	ff a6 
    ac4a:	c6 85 0d f6 ff ff 99 	movb   $0x99,-0x9f3(%rbp)
    ac51:	66 c7 85 0e f6 ff ff 	movw   $0xff08,-0x9f2(%rbp)
    ac58:	08 ff 
    ac5a:	c6 85 10 f6 ff ff 92 	movb   $0x92,-0x9f0(%rbp)
    ac61:	66 c7 85 11 f6 ff ff 	movw   $0xd3ff,-0x9ef(%rbp)
    ac68:	ff d3 
    ac6a:	c6 85 13 f6 ff ff 02 	movb   $0x2,-0x9ed(%rbp)
    ac71:	66 c7 85 14 f6 ff ff 	movw   $0xd21c,-0x9ec(%rbp)
    ac78:	1c d2 
    ac7a:	c6 85 16 f6 ff ff d2 	movb   $0xd2,-0x9ea(%rbp)
    ac81:	66 c7 85 17 f6 ff ff 	movw   $0xf6,-0x9e9(%rbp)
    ac88:	f6 00 
    ac8a:	c6 85 19 f6 ff ff ff 	movb   $0xff,-0x9e7(%rbp)
    ac91:	66 c7 85 1a f6 ff ff 	movw   $0x8ff,-0x9e6(%rbp)
    ac98:	ff 08 
    ac9a:	c6 85 1c f6 ff ff 04 	movb   $0x4,-0x9e4(%rbp)
    aca1:	66 c7 85 1d f6 ff ff 	movw   $0xa003,-0x9e3(%rbp)
    aca8:	03 a0 
    acaa:	c6 85 1f f6 ff ff ff 	movb   $0xff,-0x9e1(%rbp)
    acb1:	66 c7 85 20 f6 ff ff 	movw   $0xf800,-0x9e0(%rbp)
    acb8:	00 f8 
    acba:	c6 85 22 f6 ff ff 06 	movb   $0x6,-0x9de(%rbp)
    acc1:	66 c7 85 23 f6 ff ff 	movw   $0xa0ff,-0x9dd(%rbp)
    acc8:	ff a0 
    acca:	c6 85 25 f6 ff ff c4 	movb   $0xc4,-0x9db(%rbp)
    acd1:	66 c7 85 26 f6 ff ff 	movw   $0x85a,-0x9da(%rbp)
    acd8:	5a 08 
    acda:	c6 85 28 f6 ff ff 1c 	movb   $0x1c,-0x9d8(%rbp)
    ace1:	66 c7 85 29 f6 ff ff 	movw   $0x99,-0x9d7(%rbp)
    ace8:	99 00 
    acea:	c6 85 2b f6 ff ff 01 	movb   $0x1,-0x9d5(%rbp)
    acf1:	66 c7 85 2c f6 ff ff 	movw   $0xd206,-0x9d4(%rbp)
    acf8:	06 d2 
    acfa:	c6 85 2e f6 ff ff fb 	movb   $0xfb,-0x9d2(%rbp)
    ad01:	66 c7 85 2f f6 ff ff 	movw   $0xd3ff,-0x9d1(%rbp)
    ad08:	ff d3 
    ad0a:	c6 85 31 f6 ff ff 29 	movb   $0x29,-0x9cf(%rbp)
    ad11:	66 c7 85 32 f6 ff ff 	movw   $0xfffb,-0x9ce(%rbp)
    ad18:	fb ff 
    ad1a:	c6 85 34 f6 ff ff 5a 	movb   $0x5a,-0x9cc(%rbp)
    ad21:	66 c7 85 35 f6 ff ff 	movw   $0xa604,-0x9cb(%rbp)
    ad28:	04 a6 
    ad2a:	c6 85 37 f6 ff ff 29 	movb   $0x29,-0x9c9(%rbp)
    ad31:	66 c7 85 38 f6 ff ff 	movw   $0xa643,-0x9c8(%rbp)
    ad38:	43 a6 
    ad3a:	c6 85 3a f6 ff ff 1c 	movb   $0x1c,-0x9c6(%rbp)
    ad41:	66 c7 85 3b f6 ff ff 	movw   $0x6cf6,-0x9c5(%rbp)
    ad48:	f6 6c 
    ad4a:	c6 85 3d f6 ff ff f6 	movb   $0xf6,-0x9c3(%rbp)
    ad51:	66 c7 85 3e f6 ff ff 	movw   $0xff01,-0x9c2(%rbp)
    ad58:	01 ff 
    ad5a:	c6 85 40 f6 ff ff ff 	movb   $0xff,-0x9c0(%rbp)
    ad61:	66 c7 85 41 f6 ff ff 	movw   $0x5c01,-0x9bf(%rbp)
    ad68:	01 5c 
    ad6a:	c6 85 43 f6 ff ff 03 	movb   $0x3,-0x9bd(%rbp)
    ad71:	66 c7 85 44 f6 ff ff 	movw   $0x8ff,-0x9bc(%rbp)
    ad78:	ff 08 
    ad7a:	c6 85 46 f6 ff ff 00 	movb   $0x0,-0x9ba(%rbp)
    ad81:	66 c7 85 47 f6 ff ff 	movw   $0x35ff,-0x9b9(%rbp)
    ad88:	ff 35 
    ad8a:	c6 85 49 f6 ff ff ff 	movb   $0xff,-0x9b7(%rbp)
    ad91:	66 c7 85 4a f6 ff ff 	movw   $0x4ff,-0x9b6(%rbp)
    ad98:	ff 04 
    ad9a:	c6 85 4c f6 ff ff 5a 	movb   $0x5a,-0x9b4(%rbp)
    ada1:	66 c7 85 4d f6 ff ff 	movw   $0x1,-0x9b3(%rbp)
    ada8:	01 00 
    adaa:	c6 85 4f f6 ff ff 99 	movb   $0x99,-0x9b1(%rbp)
    adb1:	66 c7 85 50 f6 ff ff 	movw   $0x1,-0x9b0(%rbp)
    adb8:	01 00 
    adba:	c6 85 52 f6 ff ff 06 	movb   $0x6,-0x9ae(%rbp)
    adc1:	66 c7 85 53 f6 ff ff 	movw   $0x6bf6,-0x9ad(%rbp)
    adc8:	f6 6b 
    adca:	c6 85 55 f6 ff ff ff 	movb   $0xff,-0x9ab(%rbp)
    add1:	66 c7 85 56 f6 ff ff 	movw   $0x692,-0x9aa(%rbp)
    add8:	92 06 
    adda:	c6 85 58 f6 ff ff fb 	movb   $0xfb,-0x9a8(%rbp)
    ade1:	66 c7 85 59 f6 ff ff 	movw   $0x935a,-0x9a7(%rbp)
    ade8:	5a 93 
    adea:	c6 85 5b f6 ff ff 04 	movb   $0x4,-0x9a5(%rbp)
    adf1:	66 c7 85 5c f6 ff ff 	movw   $0x61c,-0x9a4(%rbp)
    adf8:	1c 06 
    adfa:	c6 85 5e f6 ff ff 43 	movb   $0x43,-0x9a2(%rbp)
    ae01:	66 c7 85 5f f6 ff ff 	movw   $0x6bfc,-0x9a1(%rbp)
    ae08:	fc 6b 
    ae0a:	c6 85 61 f6 ff ff 01 	movb   $0x1,-0x99f(%rbp)
    ae11:	c7 85 e8 f1 ff ff 8b 	movl   $0xd694938b,-0xe18(%rbp)
    ae18:	93 94 d6 
    ae1b:	c7 85 60 f3 ff ff 61 	movl   $0x12cb2f61,-0xca0(%rbp)
    ae22:	2f cb 12 
    ae25:	c7 85 64 f3 ff ff 02 	movl   $0xee3f3b02,-0xc9c(%rbp)
    ae2c:	3b 3f ee 
    ae2f:	c7 85 68 f3 ff ff 61 	movl   $0x12cb2f61,-0xc98(%rbp)
    ae36:	2f cb 12 
    ae39:	c7 85 6c f3 ff ff 61 	movl   $0x12cb2f61,-0xc94(%rbp)
    ae40:	2f cb 12 
    ae43:	c7 85 70 f3 ff ff 02 	movl   $0xee3f3b02,-0xc90(%rbp)
    ae4a:	3b 3f ee 
    ae4d:	c7 85 74 f3 ff ff 61 	movl   $0x12cb2f61,-0xc8c(%rbp)
    ae54:	2f cb 12 
    ae57:	c7 85 78 f3 ff ff 61 	movl   $0x12cb2f61,-0xc88(%rbp)
    ae5e:	2f cb 12 
    ae61:	c7 85 7c f3 ff ff 02 	movl   $0xee3f3b02,-0xc84(%rbp)
    ae68:	3b 3f ee 
    ae6b:	c7 85 80 f3 ff ff 61 	movl   $0x12cb2f61,-0xc80(%rbp)
    ae72:	2f cb 12 
    ae75:	48 8d 05 fc 03 01 00 	lea    0x103fc(%rip),%rax        # 1b278 <g_1436+0x1b8>
    ae7c:	48 89 85 18 f2 ff ff 	mov    %rax,-0xde8(%rbp)
    ae83:	48 c7 85 48 f2 ff ff 	movq   $0x0,-0xdb8(%rbp)
    ae8a:	00 00 00 00 
    ae8e:	66 c7 85 c8 f1 ff ff 	movw   $0x4ba1,-0xe38(%rbp)
    ae95:	a1 4b 
    ae97:	c7 85 ec f1 ff ff 00 	movl   $0x0,-0xe14(%rbp)
    ae9e:	00 00 00 
    aea1:	48 c7 85 50 f2 ff ff 	movq   $0x0,-0xdb0(%rbp)
    aea8:	00 00 00 00 
    aeac:	48 8d 05 d9 d1 00 00 	lea    0xd1d9(%rip),%rax        # 1808c <g_176>
    aeb3:	48 89 85 58 f2 ff ff 	mov    %rax,-0xda8(%rbp)
    aeba:	48 c7 85 60 f2 ff ff 	movq   $0x0,-0xda0(%rbp)
    aec1:	00 00 00 00 
    aec5:	c6 85 c1 f1 ff ff 00 	movb   $0x0,-0xe3f(%rbp)
    aecc:	48 c7 85 68 f2 ff ff 	movq   $0x0,-0xd98(%rbp)
    aed3:	00 00 00 00 
    aed7:	48 c7 85 70 f2 ff ff 	movq   $0x0,-0xd90(%rbp)
    aede:	00 00 00 00 
    aee2:	48 c7 85 78 f2 ff ff 	movq   $0x0,-0xd88(%rbp)
    aee9:	00 00 00 00 
    aeed:	48 8d 85 d0 f1 ff ff 	lea    -0xe30(%rbp),%rax
    aef4:	48 89 85 80 f2 ff ff 	mov    %rax,-0xd80(%rbp)
    aefb:	c7 85 d4 f1 ff ff 00 	movl   $0x0,-0xe2c(%rbp)
    af02:	00 00 00 
    af05:	eb 1a                	jmp    af21 <func_1+0x76c>
    af07:	8b 85 d4 f1 ff ff    	mov    -0xe2c(%rbp),%eax
    af0d:	48 98                	cltq   
    af0f:	c7 84 85 fc f2 ff ff 	movl   $0xfffffff8,-0xd04(%rbp,%rax,4)
    af16:	f8 ff ff ff 
    af1a:	83 85 d4 f1 ff ff 01 	addl   $0x1,-0xe2c(%rbp)
    af21:	83 bd d4 f1 ff ff 01 	cmpl   $0x1,-0xe2c(%rbp)
    af28:	7e dd                	jle    af07 <func_1+0x752>
    af2a:	c7 85 d4 f1 ff ff 00 	movl   $0x0,-0xe2c(%rbp)
    af31:	00 00 00 
    af34:	eb 1a                	jmp    af50 <func_1+0x79b>
    af36:	8b 85 d4 f1 ff ff    	mov    -0xe2c(%rbp),%eax
    af3c:	48 98                	cltq   
    af3e:	c7 84 85 04 f3 ff ff 	movl   $0xffffffff,-0xcfc(%rbp,%rax,4)
    af45:	ff ff ff ff 
    af49:	83 85 d4 f1 ff ff 01 	addl   $0x1,-0xe2c(%rbp)
    af50:	83 bd d4 f1 ff ff 02 	cmpl   $0x2,-0xe2c(%rbp)
    af57:	7e dd                	jle    af36 <func_1+0x781>
    af59:	c7 85 d4 f1 ff ff 00 	movl   $0x0,-0xe2c(%rbp)
    af60:	00 00 00 
    af63:	eb 1e                	jmp    af83 <func_1+0x7ce>
    af65:	8b 85 d4 f1 ff ff    	mov    -0xe2c(%rbp),%eax
    af6b:	48 98                	cltq   
    af6d:	48 8d 15 1c d1 00 00 	lea    0xd11c(%rip),%rdx        # 18090 <g_191>
    af74:	48 89 94 c5 e0 f2 ff 	mov    %rdx,-0xd20(%rbp,%rax,8)
    af7b:	ff 
    af7c:	83 85 d4 f1 ff ff 01 	addl   $0x1,-0xe2c(%rbp)
    af83:	83 bd d4 f1 ff ff 00 	cmpl   $0x0,-0xe2c(%rbp)
    af8a:	7e d9                	jle    af65 <func_1+0x7b0>
    af8c:	c7 85 d4 f1 ff ff 00 	movl   $0x0,-0xe2c(%rbp)
    af93:	00 00 00 
    af96:	eb 78                	jmp    b010 <func_1+0x85b>
    af98:	c7 85 d8 f1 ff ff 00 	movl   $0x0,-0xe28(%rbp)
    af9f:	00 00 00 
    afa2:	eb 5c                	jmp    b000 <func_1+0x84b>
    afa4:	c7 85 dc f1 ff ff 00 	movl   $0x0,-0xe24(%rbp)
    afab:	00 00 00 
    afae:	eb 40                	jmp    aff0 <func_1+0x83b>
    afb0:	8b 85 dc f1 ff ff    	mov    -0xe24(%rbp),%eax
    afb6:	48 63 f0             	movslq %eax,%rsi
    afb9:	8b 85 d8 f1 ff ff    	mov    -0xe28(%rbp),%eax
    afbf:	48 63 c8             	movslq %eax,%rcx
    afc2:	8b 85 d4 f1 ff ff    	mov    -0xe2c(%rbp),%eax
    afc8:	48 63 d0             	movslq %eax,%rdx
    afcb:	48 89 d0             	mov    %rdx,%rax
    afce:	48 01 c0             	add    %rax,%rax
    afd1:	48 01 d0             	add    %rdx,%rax
    afd4:	48 01 f0             	add    %rsi,%rax
    afd7:	48 01 c8             	add    %rcx,%rax
    afda:	48 8d 15 b5 d0 00 00 	lea    0xd0b5(%rip),%rdx        # 18096 <g_251>
    afe1:	48 89 94 c5 40 f4 ff 	mov    %rdx,-0xbc0(%rbp,%rax,8)
    afe8:	ff 
    afe9:	83 85 dc f1 ff ff 01 	addl   $0x1,-0xe24(%rbp)
    aff0:	83 bd dc f1 ff ff 00 	cmpl   $0x0,-0xe24(%rbp)
    aff7:	7e b7                	jle    afb0 <func_1+0x7fb>
    aff9:	83 85 d8 f1 ff ff 01 	addl   $0x1,-0xe28(%rbp)
    b000:	83 bd d8 f1 ff ff 02 	cmpl   $0x2,-0xe28(%rbp)
    b007:	7e 9b                	jle    afa4 <func_1+0x7ef>
    b009:	83 85 d4 f1 ff ff 01 	addl   $0x1,-0xe2c(%rbp)
    b010:	83 bd d4 f1 ff ff 02 	cmpl   $0x2,-0xe2c(%rbp)
    b017:	0f 8e 7b ff ff ff    	jle    af98 <func_1+0x7e3>
    b01d:	c7 85 d4 f1 ff ff 00 	movl   $0x0,-0xe2c(%rbp)
    b024:	00 00 00 
    b027:	eb 1e                	jmp    b047 <func_1+0x892>
    b029:	8b 85 d4 f1 ff ff    	mov    -0xe2c(%rbp),%eax
    b02f:	48 98                	cltq   
    b031:	48 8d 95 10 f2 ff ff 	lea    -0xdf0(%rbp),%rdx
    b038:	48 89 94 c5 90 f3 ff 	mov    %rdx,-0xc70(%rbp,%rax,8)
    b03f:	ff 
    b040:	83 85 d4 f1 ff ff 01 	addl   $0x1,-0xe2c(%rbp)
    b047:	83 bd d4 f1 ff ff 05 	cmpl   $0x5,-0xe2c(%rbp)
    b04e:	7e d9                	jle    b029 <func_1+0x874>
    b050:	c7 85 d4 f1 ff ff 00 	movl   $0x0,-0xe2c(%rbp)
    b057:	00 00 00 
    b05a:	eb 1e                	jmp    b07a <func_1+0x8c5>
    b05c:	8b 85 d4 f1 ff ff    	mov    -0xe2c(%rbp),%eax
    b062:	48 98                	cltq   
    b064:	48 8d 95 18 f2 ff ff 	lea    -0xde8(%rbp),%rdx
    b06b:	48 89 94 c5 e0 f4 ff 	mov    %rdx,-0xb20(%rbp,%rax,8)
    b072:	ff 
    b073:	83 85 d4 f1 ff ff 01 	addl   $0x1,-0xe2c(%rbp)
    b07a:	83 bd d4 f1 ff ff 09 	cmpl   $0x9,-0xe2c(%rbp)
    b081:	7e d9                	jle    b05c <func_1+0x8a7>
    b083:	c7 05 5b 07 01 00 ff 	movl   $0xffffffff,0x1075b(%rip)        # 1b7e8 <g_4>
    b08a:	ff ff ff 
    b08d:	e9 f4 02 00 00       	jmpq   b386 <func_1+0xbd1>
    b092:	48 8d 05 4f 07 01 00 	lea    0x1074f(%rip),%rax        # 1b7e8 <g_4>
    b099:	48 89 85 c0 f3 ff ff 	mov    %rax,-0xc40(%rbp)
    b0a0:	48 8d 05 41 07 01 00 	lea    0x10741(%rip),%rax        # 1b7e8 <g_4>
    b0a7:	48 89 85 c8 f3 ff ff 	mov    %rax,-0xc38(%rbp)
    b0ae:	48 8d 05 33 07 01 00 	lea    0x10733(%rip),%rax        # 1b7e8 <g_4>
    b0b5:	48 89 85 d0 f3 ff ff 	mov    %rax,-0xc30(%rbp)
    b0bc:	48 8d 05 25 07 01 00 	lea    0x10725(%rip),%rax        # 1b7e8 <g_4>
    b0c3:	48 89 85 d8 f3 ff ff 	mov    %rax,-0xc28(%rbp)
    b0ca:	48 8d 05 17 07 01 00 	lea    0x10717(%rip),%rax        # 1b7e8 <g_4>
    b0d1:	48 89 85 e0 f3 ff ff 	mov    %rax,-0xc20(%rbp)
    b0d8:	48 8d 05 09 07 01 00 	lea    0x10709(%rip),%rax        # 1b7e8 <g_4>
    b0df:	48 89 85 e8 f3 ff ff 	mov    %rax,-0xc18(%rbp)
    b0e6:	48 8d 05 fb 06 01 00 	lea    0x106fb(%rip),%rax        # 1b7e8 <g_4>
    b0ed:	48 89 85 f0 f3 ff ff 	mov    %rax,-0xc10(%rbp)
    b0f4:	48 8d 05 31 cf 00 00 	lea    0xcf31(%rip),%rax        # 1802c <g_34>
    b0fb:	48 89 85 88 f2 ff ff 	mov    %rax,-0xd78(%rbp)
    b102:	48 8d 05 27 cf 00 00 	lea    0xcf27(%rip),%rax        # 18030 <g_36>
    b109:	48 89 85 90 f2 ff ff 	mov    %rax,-0xd70(%rbp)
    b110:	48 8d 85 50 f8 ff ff 	lea    -0x7b0(%rbp),%rax
    b117:	48 8d 15 a2 d3 00 00 	lea    0xd3a2(%rip),%rdx        # 184c0 <g_1941+0x1f0>
    b11e:	b9 f0 00 00 00       	mov    $0xf0,%ecx
    b123:	48 89 c7             	mov    %rax,%rdi
    b126:	48 89 d6             	mov    %rdx,%rsi
    b129:	f3 48 a5             	rep movsq %ds:(%rsi),%es:(%rdi)
    b12c:	48 8d 05 15 fd 00 00 	lea    0xfd15(%rip),%rax        # 1ae48 <g_726+0x48>
    b133:	48 89 85 98 f2 ff ff 	mov    %rax,-0xd68(%rbp)
    b13a:	48 c7 85 a0 f2 ff ff 	movq   $0x0,-0xd60(%rbp)
    b141:	00 00 00 00 
    b145:	c7 85 f0 f1 ff ff 09 	movl   $0x9,-0xe10(%rbp)
    b14c:	00 00 00 
    b14f:	48 c7 85 40 f3 ff ff 	movq   $0x0,-0xcc0(%rbp)
    b156:	00 00 00 00 
    b15a:	48 c7 85 48 f3 ff ff 	movq   $0x0,-0xcb8(%rbp)
    b161:	00 00 00 00 
    b165:	48 c7 85 50 f3 ff ff 	movq   $0x0,-0xcb0(%rbp)
    b16c:	00 00 00 00 
    b170:	48 c7 85 58 f3 ff ff 	movq   $0x0,-0xca8(%rbp)
    b177:	00 00 00 00 
    b17b:	48 8d 85 40 f3 ff ff 	lea    -0xcc0(%rbp),%rax
    b182:	48 83 c0 10          	add    $0x10,%rax
    b186:	48 89 85 a8 f2 ff ff 	mov    %rax,-0xd58(%rbp)
    b18d:	c7 85 f4 f1 ff ff ff 	movl   $0xffffffff,-0xe0c(%rbp)
    b194:	ff ff ff 
    b197:	c7 85 f8 f1 ff ff 2a 	movl   $0x4130b2a,-0xe08(%rbp)
    b19e:	0b 13 04 
    b1a1:	48 c7 85 b0 f2 ff ff 	movq   $0x0,-0xd50(%rbp)
    b1a8:	00 00 00 00 
    b1ac:	48 8d 05 0d fd 00 00 	lea    0xfd0d(%rip),%rax        # 1aec0 <g_1038>
    b1b3:	48 89 85 90 f4 ff ff 	mov    %rax,-0xb70(%rbp)
    b1ba:	48 c7 85 98 f4 ff ff 	movq   $0x0,-0xb68(%rbp)
    b1c1:	00 00 00 00 
    b1c5:	48 8d 05 f4 fc 00 00 	lea    0xfcf4(%rip),%rax        # 1aec0 <g_1038>
    b1cc:	48 89 85 a0 f4 ff ff 	mov    %rax,-0xb60(%rbp)
    b1d3:	48 c7 85 a8 f4 ff ff 	movq   $0x0,-0xb58(%rbp)
    b1da:	00 00 00 00 
    b1de:	48 8d 05 db fc 00 00 	lea    0xfcdb(%rip),%rax        # 1aec0 <g_1038>
    b1e5:	48 89 85 b0 f4 ff ff 	mov    %rax,-0xb50(%rbp)
    b1ec:	48 c7 85 b8 f4 ff ff 	movq   $0x0,-0xb48(%rbp)
    b1f3:	00 00 00 00 
    b1f7:	48 8d 05 c2 fc 00 00 	lea    0xfcc2(%rip),%rax        # 1aec0 <g_1038>
    b1fe:	48 89 85 c0 f4 ff ff 	mov    %rax,-0xb40(%rbp)
    b205:	48 c7 85 c8 f4 ff ff 	movq   $0x0,-0xb38(%rbp)
    b20c:	00 00 00 00 
    b210:	48 8d 05 a9 fc 00 00 	lea    0xfca9(%rip),%rax        # 1aec0 <g_1038>
    b217:	48 89 85 d0 f4 ff ff 	mov    %rax,-0xb30(%rbp)
    b21e:	66 c7 85 ca f1 ff ff 	movw   $0xfff6,-0xe36(%rbp)
    b225:	f6 ff 
    b227:	66 c7 85 cc f1 ff ff 	movw   $0xfffb,-0xe34(%rbp)
    b22e:	fb ff 
    b230:	48 c7 85 b8 f2 ff ff 	movq   $0x0,-0xd48(%rbp)
    b237:	00 00 00 00 
    b23b:	48 8d 05 4a ce 00 00 	lea    0xce4a(%rip),%rax        # 1808c <g_176>
    b242:	48 89 85 20 f2 ff ff 	mov    %rax,-0xde0(%rbp)
    b249:	c7 85 fc f1 ff ff 01 	movl   $0x1,-0xe04(%rbp)
    b250:	00 00 00 
    b253:	48 8d 85 e8 f2 ff ff 	lea    -0xd18(%rbp),%rax
    b25a:	48 89 85 c0 f2 ff ff 	mov    %rax,-0xd40(%rbp)
    b261:	48 8d 85 fc f2 ff ff 	lea    -0xd04(%rbp),%rax
    b268:	48 89 85 c8 f2 ff ff 	mov    %rax,-0xd38(%rbp)
    b26f:	c6 85 c2 f1 ff ff ff 	movb   $0xff,-0xe3e(%rbp)
    b276:	48 8d 05 cb e7 00 00 	lea    0xe7cb(%rip),%rax        # 19a48 <g_98>
    b27d:	48 89 85 d0 f2 ff ff 	mov    %rax,-0xd30(%rbp)
    b284:	66 c7 85 ce f1 ff ff 	movw   $0xffff,-0xe32(%rbp)
    b28b:	ff ff 
    b28d:	c7 85 00 f2 ff ff 62 	movl   $0xf6755e62,-0xe00(%rbp)
    b294:	5e 75 f6 
    b297:	c7 85 04 f2 ff ff 19 	movl   $0x4aaa019,-0xdfc(%rbp)
    b29e:	a0 aa 04 
    b2a1:	c6 85 c3 f1 ff ff 04 	movb   $0x4,-0xe3d(%rbp)
    b2a8:	c7 85 e0 f1 ff ff 00 	movl   $0x0,-0xe20(%rbp)
    b2af:	00 00 00 
    b2b2:	eb 1e                	jmp    b2d2 <func_1+0xb1d>
    b2b4:	8b 85 e0 f1 ff ff    	mov    -0xe20(%rbp),%eax
    b2ba:	48 98                	cltq   
    b2bc:	48 8d 95 d0 f1 ff ff 	lea    -0xe30(%rbp),%rdx
    b2c3:	48 89 94 c5 e8 f2 ff 	mov    %rdx,-0xd18(%rbp,%rax,8)
    b2ca:	ff 
    b2cb:	83 85 e0 f1 ff ff 01 	addl   $0x1,-0xe20(%rbp)
    b2d2:	83 bd e0 f1 ff ff 00 	cmpl   $0x0,-0xe20(%rbp)
    b2d9:	7e d9                	jle    b2b4 <func_1+0xaff>
    b2db:	c7 85 e0 f1 ff ff 00 	movl   $0x0,-0xe20(%rbp)
    b2e2:	00 00 00 
    b2e5:	eb 1b                	jmp    b302 <func_1+0xb4d>
    b2e7:	8b 85 e0 f1 ff ff    	mov    -0xe20(%rbp),%eax
    b2ed:	48 98                	cltq   
    b2ef:	48 c7 84 c5 00 f4 ff 	movq   $0x0,-0xc00(%rbp,%rax,8)
    b2f6:	ff 00 00 00 00 
    b2fb:	83 85 e0 f1 ff ff 01 	addl   $0x1,-0xe20(%rbp)
    b302:	83 bd e0 f1 ff ff 06 	cmpl   $0x6,-0xe20(%rbp)
    b309:	7e dc                	jle    b2e7 <func_1+0xb32>
    b30b:	c7 85 e0 f1 ff ff 00 	movl   $0x0,-0xe20(%rbp)
    b312:	00 00 00 
    b315:	eb 1e                	jmp    b335 <func_1+0xb80>
    b317:	8b 85 e0 f1 ff ff    	mov    -0xe20(%rbp),%eax
    b31d:	48 98                	cltq   
    b31f:	48 8d 95 20 f2 ff ff 	lea    -0xde0(%rbp),%rdx
    b326:	48 89 94 c5 10 f3 ff 	mov    %rdx,-0xcf0(%rbp,%rax,8)
    b32d:	ff 
    b32e:	83 85 e0 f1 ff ff 01 	addl   $0x1,-0xe20(%rbp)
    b335:	83 bd e0 f1 ff ff 01 	cmpl   $0x1,-0xe20(%rbp)
    b33c:	7e d9                	jle    b317 <func_1+0xb62>
    b33e:	c7 85 e0 f1 ff ff 00 	movl   $0x0,-0xe20(%rbp)
    b345:	00 00 00 
    b348:	eb 19                	jmp    b363 <func_1+0xbae>
    b34a:	8b 85 e0 f1 ff ff    	mov    -0xe20(%rbp),%eax
    b350:	48 98                	cltq   
    b352:	66 c7 84 45 da f2 ff 	movw   $0x0,-0xd26(%rbp,%rax,2)
    b359:	ff 00 00 
    b35c:	83 85 e0 f1 ff ff 01 	addl   $0x1,-0xe20(%rbp)
    b363:	83 bd e0 f1 ff ff 02 	cmpl   $0x2,-0xe20(%rbp)
    b36a:	7e de                	jle    b34a <func_1+0xb95>
    b36c:	8b 05 76 04 01 00    	mov    0x10476(%rip),%eax        # 1b7e8 <g_4>
    b372:	98                   	cwtl   
    b373:	be 06 00 00 00       	mov    $0x6,%esi
    b378:	89 c7                	mov    %eax,%edi
    b37a:	e8 34 e0 ff ff       	callq  93b3 <safe_add_func_int16_t_s_s>
    b37f:	98                   	cwtl   
    b380:	89 05 62 04 01 00    	mov    %eax,0x10462(%rip)        # 1b7e8 <g_4>
    b386:	8b 05 5c 04 01 00    	mov    0x1045c(%rip),%eax        # 1b7e8 <g_4>
    b38c:	83 f8 03             	cmp    $0x3,%eax
    b38f:	0f 84 fd fc ff ff    	je     b092 <func_1+0x8dd>
    b395:	48 8b 05 bc e6 00 00 	mov    0xe6bc(%rip),%rax        # 19a58 <g_210>
    b39c:	8b 00                	mov    (%rax),%eax
    b39e:	41 89 c5             	mov    %eax,%r13d
    b3a1:	0f b6 9d c1 f1 ff ff 	movzbl -0xe3f(%rbp),%ebx
    b3a8:	48 8b 85 60 f2 ff ff 	mov    -0xda0(%rbp),%rax
    b3af:	44 0f b7 e0          	movzwl %ax,%r12d
    b3b3:	48 8b 05 f6 fa 00 00 	mov    0xfaf6(%rip),%rax        # 1aeb0 <g_1019>
    b3ba:	be 01 00 00 00       	mov    $0x1,%esi
    b3bf:	bf 01 00 00 00       	mov    $0x1,%edi
    b3c4:	e8 a3 df ff ff       	callq  936c <safe_rshift_func_int8_t_s_u>
    b3c9:	48 8b 95 58 f2 ff ff 	mov    -0xda8(%rbp),%rdx
    b3d0:	0f b7 12             	movzwl (%rdx),%edx
    b3d3:	66 98                	cbtw   
    b3d5:	09 d0                	or     %edx,%eax
    b3d7:	89 c2                	mov    %eax,%edx
    b3d9:	48 8b 85 58 f2 ff ff 	mov    -0xda8(%rbp),%rax
    b3e0:	66 89 10             	mov    %dx,(%rax)
    b3e3:	48 8b 85 58 f2 ff ff 	mov    -0xda8(%rbp),%rax
    b3ea:	0f b7 00             	movzwl (%rax),%eax
    b3ed:	0f b7 c0             	movzwl %ax,%eax
    b3f0:	44 89 e6             	mov    %r12d,%esi
    b3f3:	89 c7                	mov    %eax,%edi
    b3f5:	e8 94 e9 ff ff       	callq  9d8e <safe_div_func_uint16_t_u_u>
    b3fa:	48 8b 85 e8 f4 ff ff 	mov    -0xb18(%rbp),%rax
    b401:	48 89 85 f0 f4 ff ff 	mov    %rax,-0xb10(%rbp)
    b408:	48 8b 85 f0 f4 ff ff 	mov    -0xb10(%rbp),%rax
    b40f:	48 8d 15 52 fc 00 00 	lea    0xfc52(%rip),%rdx        # 1b068 <g_1221+0x8>
    b416:	48 39 d0             	cmp    %rdx,%rax
    b419:	74 27                	je     b442 <func_1+0xc8d>
    b41b:	48 8b 05 8e ff 00 00 	mov    0xff8e(%rip),%rax        # 1b3b0 <g_1815>
    b422:	0f b7 10             	movzwl (%rax),%edx
    b425:	8d 4a ff             	lea    -0x1(%rdx),%ecx
    b428:	66 89 08             	mov    %cx,(%rax)
    b42b:	0f b7 d2             	movzwl %dx,%edx
    b42e:	48 8b 85 28 f2 ff ff 	mov    -0xdd8(%rbp),%rax
    b435:	89 10                	mov    %edx,(%rax)
    b437:	48 8b 85 28 f2 ff ff 	mov    -0xdd8(%rbp),%rax
    b43e:	8b 00                	mov    (%rax),%eax
    b440:	85 c0                	test   %eax,%eax
    b442:	89 de                	mov    %ebx,%esi
    b444:	bf 00 00 00 00       	mov    $0x0,%edi
    b449:	e8 a0 de ff ff       	callq  92ee <safe_lshift_func_int8_t_s_u>
    b44e:	89 c2                	mov    %eax,%edx
    b450:	48 8b 05 f1 e5 00 00 	mov    0xe5f1(%rip),%rax        # 19a48 <g_98>
    b457:	48 8b 00             	mov    (%rax),%rax
    b45a:	48 0f be d2          	movsbq %dl,%rdx
    b45e:	48 89 10             	mov    %rdx,(%rax)
    b461:	48 8b 00             	mov    (%rax),%rax
    b464:	48 85 c0             	test   %rax,%rax
    b467:	74 07                	je     b470 <func_1+0xcbb>
    b469:	b8 01 00 00 00       	mov    $0x1,%eax
    b46e:	eb 05                	jmp    b475 <func_1+0xcc0>
    b470:	b8 00 00 00 00       	mov    $0x0,%eax
    b475:	44 89 ee             	mov    %r13d,%esi
    b478:	89 c7                	mov    %eax,%edi
    b47a:	e8 39 ea ff ff       	callq  9eb8 <safe_add_func_uint32_t_u_u>
    b47f:	89 c2                	mov    %eax,%edx
    b481:	48 8b 05 f0 f8 00 00 	mov    0xf8f0(%rip),%rax        # 1ad78 <g_575>
    b488:	89 10                	mov    %edx,(%rax)
    b48a:	48 8b 85 38 f2 ff ff 	mov    -0xdc8(%rbp),%rax
    b491:	48 8b 10             	mov    (%rax),%rdx
    b494:	48 8b 85 80 f2 ff ff 	mov    -0xd80(%rbp),%rax
    b49b:	8b 12                	mov    (%rdx),%edx
    b49d:	89 10                	mov    %edx,(%rax)
    b49f:	48 8b 85 38 f2 ff ff 	mov    -0xdc8(%rbp),%rax
    b4a6:	48 8b 00             	mov    (%rax),%rax
    b4a9:	48 8b 1d e8 fe 00 00 	mov    0xfee8(%rip),%rbx        # 1b398 <g_1667>
    b4b0:	48 8b 95 80 f2 ff ff 	mov    -0xd80(%rbp),%rdx
    b4b7:	8b 32                	mov    (%rdx),%esi
    b4b9:	8b 38                	mov    (%rax),%edi
    b4bb:	e8 58 47 00 00       	callq  fc18 <func_22>
    b4c0:	48 89 03             	mov    %rax,(%rbx)
    b4c3:	48 8b 85 28 f2 ff ff 	mov    -0xdd8(%rbp),%rax
    b4ca:	8b 18                	mov    (%rax),%ebx
    b4cc:	48 8b 85 28 f2 ff ff 	mov    -0xdd8(%rbp),%rax
    b4d3:	8b 00                	mov    (%rax),%eax
    b4d5:	89 c7                	mov    %eax,%edi
    b4d7:	e8 ba e0 ff ff       	callq  9596 <safe_unary_minus_func_int32_t_s>
    b4dc:	48 63 d0             	movslq %eax,%rdx
    b4df:	48 8b 05 1a e9 00 00 	mov    0xe91a(%rip),%rax        # 19e00 <g_406>
    b4e6:	48 8b 00             	mov    (%rax),%rax
    b4e9:	48 8b 00             	mov    (%rax),%rax
    b4ec:	48 8b 00             	mov    (%rax),%rax
    b4ef:	48 21 c2             	and    %rax,%rdx
    b4f2:	48 8b 05 47 e5 00 00 	mov    0xe547(%rip),%rax        # 19a40 <g_99>
    b4f9:	48 89 10             	mov    %rdx,(%rax)
    b4fc:	48 8b 00             	mov    (%rax),%rax
    b4ff:	48 ba 61 4c 1c 41 e9 	movabs $0x8e3a82e9411c4c61,%rdx
    b506:	82 3a 8e 
    b509:	48 39 d0             	cmp    %rdx,%rax
    b50c:	74 1e                	je     b52c <func_1+0xd77>
    b50e:	48 8b 05 9b fe 00 00 	mov    0xfe9b(%rip),%rax        # 1b3b0 <g_1815>
    b515:	0f b7 00             	movzwl (%rax),%eax
    b518:	0f b7 c0             	movzwl %ax,%eax
    b51b:	be 08 00 00 00       	mov    $0x8,%esi
    b520:	89 c7                	mov    %eax,%edi
    b522:	e8 53 e9 ff ff       	callq  9e7a <safe_rshift_func_uint16_t_u_u>
    b527:	66 85 c0             	test   %ax,%ax
    b52a:	74 07                	je     b533 <func_1+0xd7e>
    b52c:	b8 01 00 00 00       	mov    $0x1,%eax
    b531:	eb 05                	jmp    b538 <func_1+0xd83>
    b533:	b8 00 00 00 00       	mov    $0x0,%eax
    b538:	0f b7 c0             	movzwl %ax,%eax
    b53b:	be f6 ff 00 00       	mov    $0xfff6,%esi
    b540:	89 c7                	mov    %eax,%edi
    b542:	e8 47 e8 ff ff       	callq  9d8e <safe_div_func_uint16_t_u_u>
    b547:	0f b7 c0             	movzwl %ax,%eax
    b54a:	21 d8                	and    %ebx,%eax
    b54c:	48 98                	cltq   
    b54e:	48 89 c7             	mov    %rax,%rdi
    b551:	e8 c0 e2 ff ff       	callq  9816 <safe_unary_minus_func_int64_t_s>
    b556:	48 8b 15 1b f8 00 00 	mov    0xf81b(%rip),%rdx        # 1ad78 <g_575>
    b55d:	8b 12                	mov    (%rdx),%edx
    b55f:	89 c1                	mov    %eax,%ecx
    b561:	48 8b 05 10 f8 00 00 	mov    0xf810(%rip),%rax        # 1ad78 <g_575>
    b568:	21 ca                	and    %ecx,%edx
    b56a:	89 10                	mov    %edx,(%rax)
    b56c:	48 8b 85 28 f2 ff ff 	mov    -0xdd8(%rbp),%rax
    b573:	8b 00                	mov    (%rax),%eax
    b575:	48 8b 5d d8          	mov    -0x28(%rbp),%rbx
    b579:	64 48 33 1c 25 28 00 	xor    %fs:0x28,%rbx
    b580:	00 00 
    b582:	74 05                	je     b589 <func_1+0xdd4>
    b584:	e8 e7 da ff ff       	callq  9070 <__stack_chk_fail@plt>
    b589:	48 81 c4 38 0e 00 00 	add    $0xe38,%rsp
    b590:	5b                   	pop    %rbx
    b591:	41 5c                	pop    %r12
    b593:	41 5d                	pop    %r13
    b595:	5d                   	pop    %rbp
    b596:	c3                   	retq   

000000000000b597 <func_7>:
    b597:	f3 0f 1e fa          	endbr64 
    b59b:	55                   	push   %rbp
    b59c:	48 89 e5             	mov    %rsp,%rbp
    b59f:	41 55                	push   %r13
    b5a1:	41 54                	push   %r12
    b5a3:	53                   	push   %rbx
    b5a4:	48 81 ec 00 10 00 00 	sub    $0x1000,%rsp
    b5ab:	48 83 0c 24 00       	orq    $0x0,(%rsp)
    b5b0:	48 81 ec a8 00 00 00 	sub    $0xa8,%rsp
    b5b7:	89 f8                	mov    %edi,%eax
    b5b9:	48 89 b5 40 ef ff ff 	mov    %rsi,-0x10c0(%rbp)
    b5c0:	66 89 85 4c ef ff ff 	mov    %ax,-0x10b4(%rbp)
    b5c7:	64 48 8b 04 25 28 00 	mov    %fs:0x28,%rax
    b5ce:	00 00 
    b5d0:	48 89 45 d8          	mov    %rax,-0x28(%rbp)
    b5d4:	31 c0                	xor    %eax,%eax
    b5d6:	48 c7 85 c8 ef ff ff 	movq   $0x0,-0x1038(%rbp)
    b5dd:	00 00 00 00 
    b5e1:	48 8d 85 c8 ef ff ff 	lea    -0x1038(%rbp),%rax
    b5e8:	48 89 85 d0 ef ff ff 	mov    %rax,-0x1030(%rbp)
    b5ef:	48 8d 85 d0 ef ff ff 	lea    -0x1030(%rbp),%rax
    b5f6:	48 89 85 d8 ef ff ff 	mov    %rax,-0x1028(%rbp)
    b5fd:	48 8d 85 d8 ef ff ff 	lea    -0x1028(%rbp),%rax
    b604:	48 89 85 40 f1 ff ff 	mov    %rax,-0xec0(%rbp)
    b60b:	48 8d 85 d8 ef ff ff 	lea    -0x1028(%rbp),%rax
    b612:	48 89 85 48 f1 ff ff 	mov    %rax,-0xeb8(%rbp)
    b619:	48 8d 85 d8 ef ff ff 	lea    -0x1028(%rbp),%rax
    b620:	48 89 85 50 f1 ff ff 	mov    %rax,-0xeb0(%rbp)
    b627:	48 8d 85 d8 ef ff ff 	lea    -0x1028(%rbp),%rax
    b62e:	48 89 85 58 f1 ff ff 	mov    %rax,-0xea8(%rbp)
    b635:	48 8d 85 d8 ef ff ff 	lea    -0x1028(%rbp),%rax
    b63c:	48 89 85 60 f1 ff ff 	mov    %rax,-0xea0(%rbp)
    b643:	48 8d 85 d8 ef ff ff 	lea    -0x1028(%rbp),%rax
    b64a:	48 89 85 68 f1 ff ff 	mov    %rax,-0xe98(%rbp)
    b651:	48 8d 85 d8 ef ff ff 	lea    -0x1028(%rbp),%rax
    b658:	48 89 85 70 f1 ff ff 	mov    %rax,-0xe90(%rbp)
    b65f:	48 8d 85 d8 ef ff ff 	lea    -0x1028(%rbp),%rax
    b666:	48 89 85 78 f1 ff ff 	mov    %rax,-0xe88(%rbp)
    b66d:	48 8d 85 d8 ef ff ff 	lea    -0x1028(%rbp),%rax
    b674:	48 89 85 80 f1 ff ff 	mov    %rax,-0xe80(%rbp)
    b67b:	48 8d 85 d8 ef ff ff 	lea    -0x1028(%rbp),%rax
    b682:	48 89 85 88 f1 ff ff 	mov    %rax,-0xe78(%rbp)
    b689:	c7 85 60 ef ff ff cf 	movl   $0x2041bccf,-0x10a0(%rbp)
    b690:	bc 41 20 
    b693:	48 8d 85 20 f5 ff ff 	lea    -0xae0(%rbp),%rax
    b69a:	48 8d 15 9f d5 00 00 	lea    0xd59f(%rip),%rdx        # 18c40 <g_1941+0x970>
    b6a1:	b9 5a 00 00 00       	mov    $0x5a,%ecx
    b6a6:	48 89 c7             	mov    %rax,%rdi
    b6a9:	48 89 d6             	mov    %rdx,%rsi
    b6ac:	f3 48 a5             	rep movsq %ds:(%rsi),%es:(%rdi)
    b6af:	48 c7 85 f8 ef ff ff 	movq   $0x0,-0x1008(%rbp)
    b6b6:	00 00 00 00 
    b6ba:	48 8d 05 cf c9 00 00 	lea    0xc9cf(%rip),%rax        # 18090 <g_191>
    b6c1:	48 89 85 00 f0 ff ff 	mov    %rax,-0x1000(%rbp)
    b6c8:	48 b8 98 ad 9b cd a5 	movabs $0x8ec971a5cd9bad98,%rax
    b6cf:	71 c9 8e 
    b6d2:	48 89 85 08 f0 ff ff 	mov    %rax,-0xff8(%rbp)
    b6d9:	c7 85 6c ef ff ff 06 	movl   $0x6,-0x1094(%rbp)
    b6e0:	00 00 00 
    b6e3:	c7 85 70 ef ff ff 00 	movl   $0x0,-0x1090(%rbp)
    b6ea:	00 00 00 
    b6ed:	c6 85 58 ef ff ff 99 	movb   $0x99,-0x10a8(%rbp)
    b6f4:	c6 85 59 ef ff ff 2a 	movb   $0x2a,-0x10a7(%rbp)
    b6fb:	66 c7 85 10 f1 ff ff 	movw   $0xfffc,-0xef0(%rbp)
    b702:	fc ff 
    b704:	66 c7 85 12 f1 ff ff 	movw   $0xfffc,-0xeee(%rbp)
    b70b:	fc ff 
    b70d:	66 c7 85 14 f1 ff ff 	movw   $0xfffb,-0xeec(%rbp)
    b714:	fb ff 
    b716:	66 c7 85 16 f1 ff ff 	movw   $0xfffc,-0xeea(%rbp)
    b71d:	fc ff 
    b71f:	66 c7 85 18 f1 ff ff 	movw   $0xfffc,-0xee8(%rbp)
    b726:	fc ff 
    b728:	66 c7 85 1a f1 ff ff 	movw   $0xfffb,-0xee6(%rbp)
    b72f:	fb ff 
    b731:	66 c7 85 1c f1 ff ff 	movw   $0xfffc,-0xee4(%rbp)
    b738:	fc ff 
    b73a:	66 c7 85 1e f1 ff ff 	movw   $0xfffc,-0xee2(%rbp)
    b741:	fc ff 
    b743:	66 c7 85 20 f1 ff ff 	movw   $0xfffb,-0xee0(%rbp)
    b74a:	fb ff 
    b74c:	66 c7 85 22 f1 ff ff 	movw   $0xfffc,-0xede(%rbp)
    b753:	fc ff 
    b755:	66 c7 85 24 f1 ff ff 	movw   $0xfffc,-0xedc(%rbp)
    b75c:	fc ff 
    b75e:	66 c7 85 26 f1 ff ff 	movw   $0xfffb,-0xeda(%rbp)
    b765:	fb ff 
    b767:	66 c7 85 28 f1 ff ff 	movw   $0xfffc,-0xed8(%rbp)
    b76e:	fc ff 
    b770:	66 c7 85 2a f1 ff ff 	movw   $0xfffc,-0xed6(%rbp)
    b777:	fc ff 
    b779:	66 c7 85 2c f1 ff ff 	movw   $0xfffb,-0xed4(%rbp)
    b780:	fb ff 
    b782:	66 c7 85 2e f1 ff ff 	movw   $0xfffc,-0xed2(%rbp)
    b789:	fc ff 
    b78b:	66 c7 85 30 f1 ff ff 	movw   $0xfffc,-0xed0(%rbp)
    b792:	fc ff 
    b794:	66 c7 85 32 f1 ff ff 	movw   $0xfffb,-0xece(%rbp)
    b79b:	fb ff 
    b79d:	66 c7 85 34 f1 ff ff 	movw   $0xfffc,-0xecc(%rbp)
    b7a4:	fc ff 
    b7a6:	66 c7 85 36 f1 ff ff 	movw   $0xfffc,-0xeca(%rbp)
    b7ad:	fc ff 
    b7af:	66 c7 85 38 f1 ff ff 	movw   $0xfffb,-0xec8(%rbp)
    b7b6:	fb ff 
    b7b8:	48 8d 05 41 00 01 00 	lea    0x10041(%rip),%rax        # 1b800 <g_137>
    b7bf:	48 89 85 10 f0 ff ff 	mov    %rax,-0xff0(%rbp)
    b7c6:	48 8d 05 cb f8 00 00 	lea    0xf8cb(%rip),%rax        # 1b098 <g_1267>
    b7cd:	48 89 85 18 f0 ff ff 	mov    %rax,-0xfe8(%rbp)
    b7d4:	48 8d 05 15 00 01 00 	lea    0x10015(%rip),%rax        # 1b7f0 <g_46>
    b7db:	48 89 85 20 f0 ff ff 	mov    %rax,-0xfe0(%rbp)
    b7e2:	48 c7 85 28 f0 ff ff 	movq   $0x0,-0xfd8(%rbp)
    b7e9:	00 00 00 00 
    b7ed:	48 8d 85 f0 f7 ff ff 	lea    -0x810(%rbp),%rax
    b7f4:	48 8d 15 85 88 00 00 	lea    0x8885(%rip),%rdx        # 14080 <g_1784+0x18>
    b7fb:	b9 fc 00 00 00       	mov    $0xfc,%ecx
    b800:	48 89 c7             	mov    %rax,%rdi
    b803:	48 89 d6             	mov    %rdx,%rsi
    b806:	f3 48 a5             	rep movsq %ds:(%rsi),%es:(%rdi)
    b809:	66 c7 85 e0 f0 ff ff 	movw   $0xcc4b,-0xf20(%rbp)
    b810:	4b cc 
    b812:	66 c7 85 e2 f0 ff ff 	movw   $0xcc4b,-0xf1e(%rbp)
    b819:	4b cc 
    b81b:	66 c7 85 e4 f0 ff ff 	movw   $0xc692,-0xf1c(%rbp)
    b822:	92 c6 
    b824:	66 c7 85 e6 f0 ff ff 	movw   $0xcc4b,-0xf1a(%rbp)
    b82b:	4b cc 
    b82d:	66 c7 85 e8 f0 ff ff 	movw   $0xcc4b,-0xf18(%rbp)
    b834:	4b cc 
    b836:	66 c7 85 ea f0 ff ff 	movw   $0xc692,-0xf16(%rbp)
    b83d:	92 c6 
    b83f:	66 c7 85 ec f0 ff ff 	movw   $0xcc4b,-0xf14(%rbp)
    b846:	4b cc 
    b848:	66 c7 85 ee f0 ff ff 	movw   $0xcc4b,-0xf12(%rbp)
    b84f:	4b cc 
    b851:	66 c7 85 f0 f0 ff ff 	movw   $0xc692,-0xf10(%rbp)
    b858:	92 c6 
    b85a:	66 c7 85 f2 f0 ff ff 	movw   $0xcc4b,-0xf0e(%rbp)
    b861:	4b cc 
    b863:	66 c7 85 f4 f0 ff ff 	movw   $0xcc4b,-0xf0c(%rbp)
    b86a:	4b cc 
    b86c:	66 c7 85 f6 f0 ff ff 	movw   $0xc692,-0xf0a(%rbp)
    b873:	92 c6 
    b875:	66 c7 85 f8 f0 ff ff 	movw   $0xcc4b,-0xf08(%rbp)
    b87c:	4b cc 
    b87e:	66 c7 85 fa f0 ff ff 	movw   $0xcc4b,-0xf06(%rbp)
    b885:	4b cc 
    b887:	66 c7 85 fc f0 ff ff 	movw   $0xc692,-0xf04(%rbp)
    b88e:	92 c6 
    b890:	66 c7 85 fe f0 ff ff 	movw   $0xcc4b,-0xf02(%rbp)
    b897:	4b cc 
    b899:	66 c7 85 00 f1 ff ff 	movw   $0xcc4b,-0xf00(%rbp)
    b8a0:	4b cc 
    b8a2:	66 c7 85 02 f1 ff ff 	movw   $0xc692,-0xefe(%rbp)
    b8a9:	92 c6 
    b8ab:	48 8d 05 0e f6 00 00 	lea    0xf60e(%rip),%rax        # 1aec0 <g_1038>
    b8b2:	48 89 85 30 f0 ff ff 	mov    %rax,-0xfd0(%rbp)
    b8b9:	48 c7 85 38 f0 ff ff 	movq   $0x0,-0xfc8(%rbp)
    b8c0:	00 00 00 00 
    b8c4:	c7 85 80 ef ff ff 01 	movl   $0x1,-0x1080(%rbp)
    b8cb:	00 00 00 
    b8ce:	c6 85 5a ef ff ff 19 	movb   $0x19,-0x10a6(%rbp)
    b8d5:	48 8d 85 58 ef ff ff 	lea    -0x10a8(%rbp),%rax
    b8dc:	48 89 85 e0 ef ff ff 	mov    %rax,-0x1020(%rbp)
    b8e3:	48 8d 85 e0 ef ff ff 	lea    -0x1020(%rbp),%rax
    b8ea:	48 89 85 e8 ef ff ff 	mov    %rax,-0x1018(%rbp)
    b8f1:	c7 85 84 ef ff ff cf 	movl   $0xcdf70cf,-0x107c(%rbp)
    b8f8:	70 df 0c 
    b8fb:	66 c7 85 5c ef ff ff 	movw   $0xfffe,-0x10a4(%rbp)
    b902:	fe ff 
    b904:	c7 85 64 ef ff ff 05 	movl   $0x5,-0x109c(%rbp)
    b90b:	00 00 00 
    b90e:	48 8d 85 64 ef ff ff 	lea    -0x109c(%rbp),%rax
    b915:	48 89 85 40 f0 ff ff 	mov    %rax,-0xfc0(%rbp)
    b91c:	48 c7 85 48 f0 ff ff 	movq   $0x0,-0xfb8(%rbp)
    b923:	00 00 00 00 
    b927:	48 8d 85 b4 f0 ff ff 	lea    -0xf4c(%rbp),%rax
    b92e:	48 83 c0 04          	add    $0x4,%rax
    b932:	48 89 85 50 f0 ff ff 	mov    %rax,-0xfb0(%rbp)
    b939:	c7 85 7c ef ff ff 00 	movl   $0x0,-0x1084(%rbp)
    b940:	00 00 00 
    b943:	eb 1a                	jmp    b95f <func_7+0x3c8>
    b945:	8b 85 7c ef ff ff    	mov    -0x1084(%rbp),%eax
    b94b:	48 98                	cltq   
    b94d:	c7 84 85 b4 f0 ff ff 	movl   $0x142a6335,-0xf4c(%rbp,%rax,4)
    b954:	35 63 2a 14 
    b958:	83 85 7c ef ff ff 01 	addl   $0x1,-0x1084(%rbp)
    b95f:	83 bd 7c ef ff ff 02 	cmpl   $0x2,-0x1084(%rbp)
    b966:	7e dd                	jle    b945 <func_7+0x3ae>
    b968:	48 8b 85 40 ef ff ff 	mov    -0x10c0(%rbp),%rax
    b96f:	41 89 c4             	mov    %eax,%r12d
    b972:	0f b7 85 4c ef ff ff 	movzwl -0x10b4(%rbp),%eax
    b979:	0f b7 d0             	movzwl %ax,%edx
    b97c:	0f b7 05 11 c7 00 00 	movzwl 0xc711(%rip),%eax        # 18094 <g_201>
    b983:	98                   	cwtl   
    b984:	89 85 60 ef ff ff    	mov    %eax,-0x10a0(%rbp)
    b98a:	8b 85 60 ef ff ff    	mov    -0x10a0(%rbp),%eax
    b990:	0f b7 c0             	movzwl %ax,%eax
    b993:	89 d6                	mov    %edx,%esi
    b995:	89 c7                	mov    %eax,%edi
    b997:	e8 f2 e3 ff ff       	callq  9d8e <safe_div_func_uint16_t_u_u>
    b99c:	8b 05 96 c6 00 00    	mov    0xc696(%rip),%eax        # 18038 <g_55>
    b9a2:	89 c6                	mov    %eax,%esi
    b9a4:	bf 01 00 00 00       	mov    $0x1,%edi
    b9a9:	e8 58 e4 ff ff       	callq  9e06 <safe_lshift_func_uint16_t_u_u>
    b9ae:	0f b7 c0             	movzwl %ax,%eax
    b9b1:	48 be 52 92 92 92 e6 	movabs $0xb0441de692929252,%rsi
    b9b8:	1d 44 b0 
    b9bb:	48 89 c7             	mov    %rax,%rdi
    b9be:	e8 7e de ff ff       	callq  9841 <safe_add_func_int64_t_s_s>
    b9c3:	48 8b 05 2e e4 00 00 	mov    0xe42e(%rip),%rax        # 19df8 <g_407>
    b9ca:	48 8b 00             	mov    (%rax),%rax
    b9cd:	48 8b 00             	mov    (%rax),%rax
    b9d0:	89 c2                	mov    %eax,%edx
    b9d2:	8b 85 60 ef ff ff    	mov    -0x10a0(%rbp),%eax
    b9d8:	31 d0                	xor    %edx,%eax
    b9da:	0f bf d8             	movswl %ax,%ebx
    b9dd:	48 83 bd 40 ef ff ff 	cmpq   $0x0,-0x10c0(%rbp)
    b9e4:	00 
    b9e5:	75 29                	jne    ba10 <func_7+0x479>
    b9e7:	be 00 00 00 00       	mov    $0x0,%esi
    b9ec:	bf ff ff ff ff       	mov    $0xffffffff,%edi
    b9f1:	e8 3f d9 ff ff       	callq  9335 <safe_rshift_func_int8_t_s_s>
    b9f6:	0f be d0             	movsbl %al,%edx
    b9f9:	48 8b 85 40 ef ff ff 	mov    -0x10c0(%rbp),%rax
    ba00:	0f be c0             	movsbl %al,%eax
    ba03:	89 d6                	mov    %edx,%esi
    ba05:	89 c7                	mov    %eax,%edi
    ba07:	e8 e2 d8 ff ff       	callq  92ee <safe_lshift_func_int8_t_s_u>
    ba0c:	84 c0                	test   %al,%al
    ba0e:	74 07                	je     ba17 <func_7+0x480>
    ba10:	b8 01 00 00 00       	mov    $0x1,%eax
    ba15:	eb 05                	jmp    ba1c <func_7+0x485>
    ba17:	b8 00 00 00 00       	mov    $0x0,%eax
    ba1c:	98                   	cwtl   
    ba1d:	89 de                	mov    %ebx,%esi
    ba1f:	89 c7                	mov    %eax,%edi
    ba21:	e8 f0 d9 ff ff       	callq  9416 <safe_mod_func_int16_t_s_s>
    ba26:	66 89 85 4c ef ff ff 	mov    %ax,-0x10b4(%rbp)
    ba2d:	48 8b 85 00 f0 ff ff 	mov    -0x1000(%rbp),%rax
    ba34:	0f b7 95 4c ef ff ff 	movzwl -0x10b4(%rbp),%edx
    ba3b:	66 89 10             	mov    %dx,(%rax)
    ba3e:	48 8b 85 d8 ef ff ff 	mov    -0x1028(%rbp),%rax
    ba45:	48 89 05 04 f6 00 00 	mov    %rax,0xf604(%rip)        # 1b050 <g_1217>
    ba4c:	48 8b 05 fd f5 00 00 	mov    0xf5fd(%rip),%rax        # 1b050 <g_1217>
    ba53:	48 89 05 06 f6 00 00 	mov    %rax,0xf606(%rip)        # 1b060 <g_1221>
    ba5a:	48 8b 05 ff f5 00 00 	mov    0xf5ff(%rip),%rax        # 1b060 <g_1221>
    ba61:	48 85 c0             	test   %rax,%rax
    ba64:	0f 94 c0             	sete   %al
    ba67:	0f b6 c0             	movzbl %al,%eax
    ba6a:	44 89 e6             	mov    %r12d,%esi
    ba6d:	89 c7                	mov    %eax,%edi
    ba6f:	e8 4a e2 ff ff       	callq  9cbe <safe_rshift_func_uint8_t_u_u>
    ba74:	48 c7 85 58 f0 ff ff 	movq   $0x3,-0xfa8(%rbp)
    ba7b:	03 00 00 00 
    ba7f:	c7 85 88 ef ff ff ff 	movl   $0xffffffff,-0x1078(%rbp)
    ba86:	ff ff ff 
    ba89:	c7 85 8c ef ff ff bb 	movl   $0x44221dbb,-0x1074(%rbp)
    ba90:	1d 22 44 
    ba93:	48 c7 85 f0 ef ff ff 	movq   $0x0,-0x1010(%rbp)
    ba9a:	00 00 00 00 
    ba9e:	48 8d 85 f0 ef ff ff 	lea    -0x1010(%rbp),%rax
    baa5:	48 89 85 60 f0 ff ff 	mov    %rax,-0xfa0(%rbp)
    baac:	48 c7 85 e0 f1 ff ff 	movq   $0x0,-0xe20(%rbp)
    bab3:	00 00 00 00 
    bab7:	48 8d 05 d8 c5 00 00 	lea    0xc5d8(%rip),%rax        # 18096 <g_251>
    babe:	48 89 85 e8 f1 ff ff 	mov    %rax,-0xe18(%rbp)
    bac5:	48 c7 85 f0 f1 ff ff 	movq   $0x0,-0xe10(%rbp)
    bacc:	00 00 00 00 
    bad0:	48 8d 05 bf c5 00 00 	lea    0xc5bf(%rip),%rax        # 18096 <g_251>
    bad7:	48 89 85 f8 f1 ff ff 	mov    %rax,-0xe08(%rbp)
    bade:	48 8d 05 b1 c5 00 00 	lea    0xc5b1(%rip),%rax        # 18096 <g_251>
    bae5:	48 89 85 00 f2 ff ff 	mov    %rax,-0xe00(%rbp)
    baec:	48 8d 05 a3 c5 00 00 	lea    0xc5a3(%rip),%rax        # 18096 <g_251>
    baf3:	48 89 85 08 f2 ff ff 	mov    %rax,-0xdf8(%rbp)
    bafa:	48 8d 85 59 ef ff ff 	lea    -0x10a7(%rbp),%rax
    bb01:	48 89 85 10 f2 ff ff 	mov    %rax,-0xdf0(%rbp)
    bb08:	48 8d 05 87 c5 00 00 	lea    0xc587(%rip),%rax        # 18096 <g_251>
    bb0f:	48 89 85 18 f2 ff ff 	mov    %rax,-0xde8(%rbp)
    bb16:	48 8d 85 59 ef ff ff 	lea    -0x10a7(%rbp),%rax
    bb1d:	48 89 85 20 f2 ff ff 	mov    %rax,-0xde0(%rbp)
    bb24:	48 8d 05 6b c5 00 00 	lea    0xc56b(%rip),%rax        # 18096 <g_251>
    bb2b:	48 89 85 28 f2 ff ff 	mov    %rax,-0xdd8(%rbp)
    bb32:	48 8d 85 59 ef ff ff 	lea    -0x10a7(%rbp),%rax
    bb39:	48 89 85 30 f2 ff ff 	mov    %rax,-0xdd0(%rbp)
    bb40:	48 8d 85 59 ef ff ff 	lea    -0x10a7(%rbp),%rax
    bb47:	48 89 85 38 f2 ff ff 	mov    %rax,-0xdc8(%rbp)
    bb4e:	48 8d 05 41 c5 00 00 	lea    0xc541(%rip),%rax        # 18096 <g_251>
    bb55:	48 89 85 40 f2 ff ff 	mov    %rax,-0xdc0(%rbp)
    bb5c:	48 8d 05 33 c5 00 00 	lea    0xc533(%rip),%rax        # 18096 <g_251>
    bb63:	48 89 85 48 f2 ff ff 	mov    %rax,-0xdb8(%rbp)
    bb6a:	48 c7 85 50 f2 ff ff 	movq   $0x0,-0xdb0(%rbp)
    bb71:	00 00 00 00 
    bb75:	48 c7 85 58 f2 ff ff 	movq   $0x0,-0xda8(%rbp)
    bb7c:	00 00 00 00 
    bb80:	48 8d 05 0f c5 00 00 	lea    0xc50f(%rip),%rax        # 18096 <g_251>
    bb87:	48 89 85 60 f2 ff ff 	mov    %rax,-0xda0(%rbp)
    bb8e:	48 8d 05 01 c5 00 00 	lea    0xc501(%rip),%rax        # 18096 <g_251>
    bb95:	48 89 85 68 f2 ff ff 	mov    %rax,-0xd98(%rbp)
    bb9c:	48 8d 85 59 ef ff ff 	lea    -0x10a7(%rbp),%rax
    bba3:	48 89 85 70 f2 ff ff 	mov    %rax,-0xd90(%rbp)
    bbaa:	48 8d 05 e5 c4 00 00 	lea    0xc4e5(%rip),%rax        # 18096 <g_251>
    bbb1:	48 89 85 78 f2 ff ff 	mov    %rax,-0xd88(%rbp)
    bbb8:	48 8d 85 59 ef ff ff 	lea    -0x10a7(%rbp),%rax
    bbbf:	48 89 85 80 f2 ff ff 	mov    %rax,-0xd80(%rbp)
    bbc6:	48 c7 85 88 f2 ff ff 	movq   $0x0,-0xd78(%rbp)
    bbcd:	00 00 00 00 
    bbd1:	48 8d 85 59 ef ff ff 	lea    -0x10a7(%rbp),%rax
    bbd8:	48 89 85 90 f2 ff ff 	mov    %rax,-0xd70(%rbp)
    bbdf:	48 8d 85 59 ef ff ff 	lea    -0x10a7(%rbp),%rax
    bbe6:	48 89 85 98 f2 ff ff 	mov    %rax,-0xd68(%rbp)
    bbed:	48 8d 05 a2 c4 00 00 	lea    0xc4a2(%rip),%rax        # 18096 <g_251>
    bbf4:	48 89 85 a0 f2 ff ff 	mov    %rax,-0xd60(%rbp)
    bbfb:	48 c7 85 a8 f2 ff ff 	movq   $0x0,-0xd58(%rbp)
    bc02:	00 00 00 00 
    bc06:	48 c7 85 b0 f2 ff ff 	movq   $0x0,-0xd50(%rbp)
    bc0d:	00 00 00 00 
    bc11:	48 8d 05 7e c4 00 00 	lea    0xc47e(%rip),%rax        # 18096 <g_251>
    bc18:	48 89 85 b8 f2 ff ff 	mov    %rax,-0xd48(%rbp)
    bc1f:	48 c7 85 c0 f2 ff ff 	movq   $0x0,-0xd40(%rbp)
    bc26:	00 00 00 00 
    bc2a:	48 8d 05 65 c4 00 00 	lea    0xc465(%rip),%rax        # 18096 <g_251>
    bc31:	48 89 85 c8 f2 ff ff 	mov    %rax,-0xd38(%rbp)
    bc38:	48 8d 05 57 c4 00 00 	lea    0xc457(%rip),%rax        # 18096 <g_251>
    bc3f:	48 89 85 d0 f2 ff ff 	mov    %rax,-0xd30(%rbp)
    bc46:	48 c7 85 d8 f2 ff ff 	movq   $0x0,-0xd28(%rbp)
    bc4d:	00 00 00 00 
    bc51:	c7 85 78 ef ff ff 00 	movl   $0x0,-0x1088(%rbp)
    bc58:	00 00 00 
    bc5b:	eb 1a                	jmp    bc77 <func_7+0x6e0>
    bc5d:	8b 85 78 ef ff ff    	mov    -0x1088(%rbp),%eax
    bc63:	48 98                	cltq   
    bc65:	c7 84 85 c0 f0 ff ff 	movl   $0x5a6504de,-0xf40(%rbp,%rax,4)
    bc6c:	de 04 65 5a 
    bc70:	83 85 78 ef ff ff 01 	addl   $0x1,-0x1088(%rbp)
    bc77:	83 bd 78 ef ff ff 06 	cmpl   $0x6,-0x1088(%rbp)
    bc7e:	7e dd                	jle    bc5d <func_7+0x6c6>
    bc80:	c7 05 46 c4 00 00 00 	movl   $0x0,0xc446(%rip)        # 180d0 <g_1210>
    bc87:	00 00 00 
    bc8a:	e9 0e 04 00 00       	jmpq   c09d <func_7+0xb06>
    bc8f:	48 c7 85 a8 f0 ff ff 	movq   $0x2,-0xf58(%rbp)
    bc96:	02 00 00 00 
    bc9a:	48 8d 05 ab c3 00 00 	lea    0xc3ab(%rip),%rax        # 1804c <g_57+0xc>
    bca1:	48 89 85 e0 f2 ff ff 	mov    %rax,-0xd20(%rbp)
    bca8:	48 8d 05 39 fb 00 00 	lea    0xfb39(%rip),%rax        # 1b7e8 <g_4>
    bcaf:	48 89 85 e8 f2 ff ff 	mov    %rax,-0xd18(%rbp)
    bcb6:	48 8d 05 7b c3 00 00 	lea    0xc37b(%rip),%rax        # 18038 <g_55>
    bcbd:	48 89 85 f0 f2 ff ff 	mov    %rax,-0xd10(%rbp)
    bcc4:	48 8d 05 6d c3 00 00 	lea    0xc36d(%rip),%rax        # 18038 <g_55>
    bccb:	48 89 85 f8 f2 ff ff 	mov    %rax,-0xd08(%rbp)
    bcd2:	48 8d 05 0f fb 00 00 	lea    0xfb0f(%rip),%rax        # 1b7e8 <g_4>
    bcd9:	48 89 85 00 f3 ff ff 	mov    %rax,-0xd00(%rbp)
    bce0:	48 8d 05 65 c3 00 00 	lea    0xc365(%rip),%rax        # 1804c <g_57+0xc>
    bce7:	48 89 85 08 f3 ff ff 	mov    %rax,-0xcf8(%rbp)
    bcee:	48 8d 05 57 c3 00 00 	lea    0xc357(%rip),%rax        # 1804c <g_57+0xc>
    bcf5:	48 89 85 10 f3 ff ff 	mov    %rax,-0xcf0(%rbp)
    bcfc:	48 8d 05 49 c3 00 00 	lea    0xc349(%rip),%rax        # 1804c <g_57+0xc>
    bd03:	48 89 85 18 f3 ff ff 	mov    %rax,-0xce8(%rbp)
    bd0a:	48 c7 85 20 f3 ff ff 	movq   $0x0,-0xce0(%rbp)
    bd11:	00 00 00 00 
    bd15:	48 8d 05 6c c3 00 00 	lea    0xc36c(%rip),%rax        # 18088 <g_141>
    bd1c:	48 89 85 28 f3 ff ff 	mov    %rax,-0xcd8(%rbp)
    bd23:	48 8d 05 a6 c3 00 00 	lea    0xc3a6(%rip),%rax        # 180d0 <g_1210>
    bd2a:	48 89 85 30 f3 ff ff 	mov    %rax,-0xcd0(%rbp)
    bd31:	48 8d 05 14 c3 00 00 	lea    0xc314(%rip),%rax        # 1804c <g_57+0xc>
    bd38:	48 89 85 38 f3 ff ff 	mov    %rax,-0xcc8(%rbp)
    bd3f:	48 8d 05 a2 fa 00 00 	lea    0xfaa2(%rip),%rax        # 1b7e8 <g_4>
    bd46:	48 89 85 40 f3 ff ff 	mov    %rax,-0xcc0(%rbp)
    bd4d:	48 c7 85 48 f3 ff ff 	movq   $0x0,-0xcb8(%rbp)
    bd54:	00 00 00 00 
    bd58:	48 8d 05 6d c3 00 00 	lea    0xc36d(%rip),%rax        # 180cc <g_1207>
    bd5f:	48 89 85 50 f3 ff ff 	mov    %rax,-0xcb0(%rbp)
    bd66:	48 8d 05 63 c3 00 00 	lea    0xc363(%rip),%rax        # 180d0 <g_1210>
    bd6d:	48 89 85 58 f3 ff ff 	mov    %rax,-0xca8(%rbp)
    bd74:	48 c7 85 60 f3 ff ff 	movq   $0x0,-0xca0(%rbp)
    bd7b:	00 00 00 00 
    bd7f:	48 8d 05 c6 c2 00 00 	lea    0xc2c6(%rip),%rax        # 1804c <g_57+0xc>
    bd86:	48 89 85 68 f3 ff ff 	mov    %rax,-0xc98(%rbp)
    bd8d:	48 c7 85 70 f3 ff ff 	movq   $0x0,-0xc90(%rbp)
    bd94:	00 00 00 00 
    bd98:	48 8d 05 ad c2 00 00 	lea    0xc2ad(%rip),%rax        # 1804c <g_57+0xc>
    bd9f:	48 89 85 78 f3 ff ff 	mov    %rax,-0xc88(%rbp)
    bda6:	48 8d 05 8b c2 00 00 	lea    0xc28b(%rip),%rax        # 18038 <g_55>
    bdad:	48 89 85 80 f3 ff ff 	mov    %rax,-0xc80(%rbp)
    bdb4:	48 8d 05 91 c2 00 00 	lea    0xc291(%rip),%rax        # 1804c <g_57+0xc>
    bdbb:	48 89 85 88 f3 ff ff 	mov    %rax,-0xc78(%rbp)
    bdc2:	48 c7 85 90 f3 ff ff 	movq   $0x0,-0xc70(%rbp)
    bdc9:	00 00 00 00 
    bdcd:	48 8d 05 78 c2 00 00 	lea    0xc278(%rip),%rax        # 1804c <g_57+0xc>
    bdd4:	48 89 85 98 f3 ff ff 	mov    %rax,-0xc68(%rbp)
    bddb:	48 8d 05 ee c2 00 00 	lea    0xc2ee(%rip),%rax        # 180d0 <g_1210>
    bde2:	48 89 85 a0 f3 ff ff 	mov    %rax,-0xc60(%rbp)
    bde9:	48 c7 85 a8 f3 ff ff 	movq   $0x0,-0xc58(%rbp)
    bdf0:	00 00 00 00 
    bdf4:	48 8d 05 3d c2 00 00 	lea    0xc23d(%rip),%rax        # 18038 <g_55>
    bdfb:	48 89 85 b0 f3 ff ff 	mov    %rax,-0xc50(%rbp)
    be02:	48 8d 05 2f c2 00 00 	lea    0xc22f(%rip),%rax        # 18038 <g_55>
    be09:	48 89 85 b8 f3 ff ff 	mov    %rax,-0xc48(%rbp)
    be10:	48 8d 05 b9 c2 00 00 	lea    0xc2b9(%rip),%rax        # 180d0 <g_1210>
    be17:	48 89 85 c0 f3 ff ff 	mov    %rax,-0xc40(%rbp)
    be1e:	48 c7 85 c8 f3 ff ff 	movq   $0x0,-0xc38(%rbp)
    be25:	00 00 00 00 
    be29:	48 8d 05 b8 f9 00 00 	lea    0xf9b8(%rip),%rax        # 1b7e8 <g_4>
    be30:	48 89 85 d0 f3 ff ff 	mov    %rax,-0xc30(%rbp)
    be37:	48 8d 85 60 ef ff ff 	lea    -0x10a0(%rbp),%rax
    be3e:	48 89 85 d8 f3 ff ff 	mov    %rax,-0xc28(%rbp)
    be45:	48 8d 05 ec c1 00 00 	lea    0xc1ec(%rip),%rax        # 18038 <g_55>
    be4c:	48 89 85 e0 f3 ff ff 	mov    %rax,-0xc20(%rbp)
    be53:	48 8d 05 f2 c1 00 00 	lea    0xc1f2(%rip),%rax        # 1804c <g_57+0xc>
    be5a:	48 89 85 e8 f3 ff ff 	mov    %rax,-0xc18(%rbp)
    be61:	48 8d 05 20 c2 00 00 	lea    0xc220(%rip),%rax        # 18088 <g_141>
    be68:	48 89 85 f0 f3 ff ff 	mov    %rax,-0xc10(%rbp)
    be6f:	48 8d 05 c2 c1 00 00 	lea    0xc1c2(%rip),%rax        # 18038 <g_55>
    be76:	48 89 85 f8 f3 ff ff 	mov    %rax,-0xc08(%rbp)
    be7d:	48 8d 05 4c c2 00 00 	lea    0xc24c(%rip),%rax        # 180d0 <g_1210>
    be84:	48 89 85 00 f4 ff ff 	mov    %rax,-0xc00(%rbp)
    be8b:	48 8d 05 56 f9 00 00 	lea    0xf956(%rip),%rax        # 1b7e8 <g_4>
    be92:	48 89 85 08 f4 ff ff 	mov    %rax,-0xbf8(%rbp)
    be99:	48 8d 05 48 f9 00 00 	lea    0xf948(%rip),%rax        # 1b7e8 <g_4>
    bea0:	48 89 85 10 f4 ff ff 	mov    %rax,-0xbf0(%rbp)
    bea7:	48 8d 05 22 c2 00 00 	lea    0xc222(%rip),%rax        # 180d0 <g_1210>
    beae:	48 89 85 18 f4 ff ff 	mov    %rax,-0xbe8(%rbp)
    beb5:	48 c7 85 20 f4 ff ff 	movq   $0x0,-0xbe0(%rbp)
    bebc:	00 00 00 00 
    bec0:	48 8d 05 71 c1 00 00 	lea    0xc171(%rip),%rax        # 18038 <g_55>
    bec7:	48 89 85 28 f4 ff ff 	mov    %rax,-0xbd8(%rbp)
    bece:	48 8d 05 63 c1 00 00 	lea    0xc163(%rip),%rax        # 18038 <g_55>
    bed5:	48 89 85 30 f4 ff ff 	mov    %rax,-0xbd0(%rbp)
    bedc:	48 c7 85 38 f4 ff ff 	movq   $0x0,-0xbc8(%rbp)
    bee3:	00 00 00 00 
    bee7:	48 8d 05 9a c1 00 00 	lea    0xc19a(%rip),%rax        # 18088 <g_141>
    beee:	48 89 85 40 f4 ff ff 	mov    %rax,-0xbc0(%rbp)
    bef5:	48 8d 05 d4 c1 00 00 	lea    0xc1d4(%rip),%rax        # 180d0 <g_1210>
    befc:	48 89 85 48 f4 ff ff 	mov    %rax,-0xbb8(%rbp)
    bf03:	48 8d 05 42 c1 00 00 	lea    0xc142(%rip),%rax        # 1804c <g_57+0xc>
    bf0a:	48 89 85 50 f4 ff ff 	mov    %rax,-0xbb0(%rbp)
    bf11:	48 8d 05 d0 f8 00 00 	lea    0xf8d0(%rip),%rax        # 1b7e8 <g_4>
    bf18:	48 89 85 58 f4 ff ff 	mov    %rax,-0xba8(%rbp)
    bf1f:	48 8d 05 62 c1 00 00 	lea    0xc162(%rip),%rax        # 18088 <g_141>
    bf26:	48 89 85 60 f4 ff ff 	mov    %rax,-0xba0(%rbp)
    bf2d:	48 8d 05 9c c1 00 00 	lea    0xc19c(%rip),%rax        # 180d0 <g_1210>
    bf34:	48 89 85 68 f4 ff ff 	mov    %rax,-0xb98(%rbp)
    bf3b:	48 8d 05 0a c1 00 00 	lea    0xc10a(%rip),%rax        # 1804c <g_57+0xc>
    bf42:	48 89 85 70 f4 ff ff 	mov    %rax,-0xb90(%rbp)
    bf49:	48 8d 05 98 f8 00 00 	lea    0xf898(%rip),%rax        # 1b7e8 <g_4>
    bf50:	48 89 85 78 f4 ff ff 	mov    %rax,-0xb88(%rbp)
    bf57:	48 c7 85 80 f4 ff ff 	movq   $0x0,-0xb80(%rbp)
    bf5e:	00 00 00 00 
    bf62:	48 8d 05 63 c1 00 00 	lea    0xc163(%rip),%rax        # 180cc <g_1207>
    bf69:	48 89 85 88 f4 ff ff 	mov    %rax,-0xb78(%rbp)
    bf70:	48 8d 05 59 c1 00 00 	lea    0xc159(%rip),%rax        # 180d0 <g_1210>
    bf77:	48 89 85 90 f4 ff ff 	mov    %rax,-0xb70(%rbp)
    bf7e:	48 8d 05 c7 c0 00 00 	lea    0xc0c7(%rip),%rax        # 1804c <g_57+0xc>
    bf85:	48 89 85 98 f4 ff ff 	mov    %rax,-0xb68(%rbp)
    bf8c:	48 8d 05 55 f8 00 00 	lea    0xf855(%rip),%rax        # 1b7e8 <g_4>
    bf93:	48 89 85 a0 f4 ff ff 	mov    %rax,-0xb60(%rbp)
    bf9a:	48 8d 05 2f c1 00 00 	lea    0xc12f(%rip),%rax        # 180d0 <g_1210>
    bfa1:	48 89 85 a8 f4 ff ff 	mov    %rax,-0xb58(%rbp)
    bfa8:	48 8d 05 9d c0 00 00 	lea    0xc09d(%rip),%rax        # 1804c <g_57+0xc>
    bfaf:	48 89 85 b0 f4 ff ff 	mov    %rax,-0xb50(%rbp)
    bfb6:	48 8d 05 7b c0 00 00 	lea    0xc07b(%rip),%rax        # 18038 <g_55>
    bfbd:	48 89 85 b8 f4 ff ff 	mov    %rax,-0xb48(%rbp)
    bfc4:	48 8d 05 81 c0 00 00 	lea    0xc081(%rip),%rax        # 1804c <g_57+0xc>
    bfcb:	48 89 85 c0 f4 ff ff 	mov    %rax,-0xb40(%rbp)
    bfd2:	48 8d 05 f7 c0 00 00 	lea    0xc0f7(%rip),%rax        # 180d0 <g_1210>
    bfd9:	48 89 85 c8 f4 ff ff 	mov    %rax,-0xb38(%rbp)
    bfe0:	48 8d 05 01 f8 00 00 	lea    0xf801(%rip),%rax        # 1b7e8 <g_4>
    bfe7:	48 89 85 d0 f4 ff ff 	mov    %rax,-0xb30(%rbp)
    bfee:	48 8d 05 43 c0 00 00 	lea    0xc043(%rip),%rax        # 18038 <g_55>
    bff5:	48 89 85 d8 f4 ff ff 	mov    %rax,-0xb28(%rbp)
    bffc:	48 c7 85 e0 f4 ff ff 	movq   $0x0,-0xb20(%rbp)
    c003:	00 00 00 00 
    c007:	48 8d 05 2a c0 00 00 	lea    0xc02a(%rip),%rax        # 18038 <g_55>
    c00e:	48 89 85 e8 f4 ff ff 	mov    %rax,-0xb18(%rbp)
    c015:	48 8d 05 1c c0 00 00 	lea    0xc01c(%rip),%rax        # 18038 <g_55>
    c01c:	48 89 85 f0 f4 ff ff 	mov    %rax,-0xb10(%rbp)
    c023:	48 8d 05 a6 c0 00 00 	lea    0xc0a6(%rip),%rax        # 180d0 <g_1210>
    c02a:	48 89 85 f8 f4 ff ff 	mov    %rax,-0xb08(%rbp)
    c031:	48 c7 85 00 f5 ff ff 	movq   $0x0,-0xb00(%rbp)
    c038:	00 00 00 00 
    c03c:	48 8d 05 a5 f7 00 00 	lea    0xf7a5(%rip),%rax        # 1b7e8 <g_4>
    c043:	48 89 85 08 f5 ff ff 	mov    %rax,-0xaf8(%rbp)
    c04a:	48 8d 85 60 ef ff ff 	lea    -0x10a0(%rbp),%rax
    c051:	48 89 85 10 f5 ff ff 	mov    %rax,-0xaf0(%rbp)
    c058:	48 8d 05 89 f7 00 00 	lea    0xf789(%rip),%rax        # 1b7e8 <g_4>
    c05f:	48 89 85 18 f5 ff ff 	mov    %rax,-0xae8(%rbp)
    c066:	48 8b 05 0b ed 00 00 	mov    0xed0b(%rip),%rax        # 1ad78 <g_575>
    c06d:	48 8b 95 a8 f0 ff ff 	mov    -0xf58(%rbp),%rdx
    c074:	89 10                	mov    %edx,(%rax)
    c076:	48 83 85 08 f0 ff ff 	addq   $0x1,-0xff8(%rbp)
    c07d:	01 
    c07e:	0f b6 85 59 ef ff ff 	movzbl -0x10a7(%rbp),%eax
    c085:	83 c0 01             	add    $0x1,%eax
    c088:	88 85 59 ef ff ff    	mov    %al,-0x10a7(%rbp)
    c08e:	8b 05 3c c0 00 00    	mov    0xc03c(%rip),%eax        # 180d0 <g_1210>
    c094:	83 c0 01             	add    $0x1,%eax
    c097:	89 05 33 c0 00 00    	mov    %eax,0xc033(%rip)        # 180d0 <g_1210>
    c09d:	8b 05 2d c0 00 00    	mov    0xc02d(%rip),%eax        # 180d0 <g_1210>
    c0a3:	83 f8 09             	cmp    $0x9,%eax
    c0a6:	0f 85 e3 fb ff ff    	jne    bc8f <func_7+0x6f8>
    c0ac:	0f bf 95 4c ef ff ff 	movswl -0x10b4(%rbp),%edx
    c0b3:	48 0f bf b5 4c ef ff 	movswq -0x10b4(%rbp),%rsi
    c0ba:	ff 
    c0bb:	0f b7 85 36 f1 ff ff 	movzwl -0xeca(%rbp),%eax
    c0c2:	0f be c0             	movsbl %al,%eax
    c0c5:	48 8b 8d 10 f0 ff ff 	mov    -0xff0(%rbp),%rcx
    c0cc:	89 c7                	mov    %eax,%edi
    c0ce:	e8 84 5d 00 00       	callq  11e57 <func_71>
    c0d3:	8b 85 d4 f0 ff ff    	mov    -0xf2c(%rbp),%eax
    c0d9:	48 63 d0             	movslq %eax,%rdx
    c0dc:	48 8b 05 5d d9 00 00 	mov    0xd95d(%rip),%rax        # 19a40 <g_99>
    c0e3:	48 8b 00             	mov    (%rax),%rax
    c0e6:	48 39 c2             	cmp    %rax,%rdx
    c0e9:	0f 9d c0             	setge  %al
    c0ec:	0f b6 d8             	movzbl %al,%ebx
    c0ef:	8b 95 bc f0 ff ff    	mov    -0xf44(%rbp),%edx
    c0f5:	48 8b 85 40 ef ff ff 	mov    -0x10c0(%rbp),%rax
    c0fc:	83 c8 9b             	or     $0xffffff9b,%eax
    c0ff:	0f b6 c0             	movzbl %al,%eax
    c102:	89 d6                	mov    %edx,%esi
    c104:	89 c7                	mov    %eax,%edi
    c106:	e8 82 db ff ff       	callq  9c8d <safe_rshift_func_uint8_t_u_s>
    c10b:	0f b6 d0             	movzbl %al,%edx
    c10e:	0f b6 85 58 ef ff ff 	movzbl -0x10a8(%rbp),%eax
    c115:	0f be c0             	movsbl %al,%eax
    c118:	39 c2                	cmp    %eax,%edx
    c11a:	0f 95 c0             	setne  %al
    c11d:	0f b6 c0             	movzbl %al,%eax
    c120:	be ff ff ff ff       	mov    $0xffffffff,%esi
    c125:	89 c7                	mov    %eax,%edi
    c127:	e8 a8 d0 ff ff       	callq  91d4 <safe_add_func_int8_t_s_s>
    c12c:	0f be c0             	movsbl %al,%eax
    c12f:	39 c3                	cmp    %eax,%ebx
    c131:	0f 94 c0             	sete   %al
    c134:	0f b6 c0             	movzbl %al,%eax
    c137:	09 85 88 ef ff ff    	or     %eax,-0x1078(%rbp)
    c13d:	c7 85 70 ef ff ff 00 	movl   $0x0,-0x1090(%rbp)
    c144:	00 00 00 
    c147:	e9 89 01 00 00       	jmpq   c2d5 <func_7+0xd3e>
    c14c:	48 8d 85 e0 f2 ff ff 	lea    -0xd20(%rbp),%rax
    c153:	48 8d 15 c6 cd 00 00 	lea    0xcdc6(%rip),%rdx        # 18f20 <g_1941+0xc50>
    c15a:	b9 24 00 00 00       	mov    $0x24,%ecx
    c15f:	48 89 c7             	mov    %rax,%rdi
    c162:	48 89 d6             	mov    %rdx,%rsi
    c165:	f3 48 a5             	rep movsq %ds:(%rsi),%es:(%rdi)
    c168:	48 8d 05 2d bf 00 00 	lea    0xbf2d(%rip),%rax        # 1809c <g_318>
    c16f:	48 89 85 68 f0 ff ff 	mov    %rax,-0xf98(%rbp)
    c176:	c7 85 90 ef ff ff d4 	movl   $0x8a08add4,-0x1070(%rbp)
    c17d:	ad 08 8a 
    c180:	c7 85 94 ef ff ff dc 	movl   $0xb1ed4fdc,-0x106c(%rbp)
    c187:	4f ed b1 
    c18a:	c6 85 5b ef ff ff 01 	movb   $0x1,-0x10a5(%rbp)
    c191:	c7 85 98 ef ff ff 2e 	movl   $0x88176e2e,-0x1068(%rbp)
    c198:	6e 17 88 
    c19b:	c7 85 9c ef ff ff e4 	movl   $0x497056e4,-0x1064(%rbp)
    c1a2:	56 70 49 
    c1a5:	c7 85 a0 ef ff ff 9b 	movl   $0x32c91c9b,-0x1060(%rbp)
    c1ac:	1c c9 32 
    c1af:	48 8d 05 e0 be 00 00 	lea    0xbee0(%rip),%rax        # 18096 <g_251>
    c1b6:	48 89 85 70 f0 ff ff 	mov    %rax,-0xf90(%rbp)
    c1bd:	48 8d 05 94 d8 00 00 	lea    0xd894(%rip),%rax        # 19a58 <g_210>
    c1c4:	48 89 85 78 f0 ff ff 	mov    %rax,-0xf88(%rbp)
    c1cb:	48 8d 05 c6 be 00 00 	lea    0xbec6(%rip),%rax        # 18098 <g_314>
    c1d2:	48 89 85 80 f0 ff ff 	mov    %rax,-0xf80(%rbp)
    c1d9:	48 c7 05 c4 be 00 00 	movq   $0xe,0xbec4(%rip)        # 180a8 <g_484>
    c1e0:	0e 00 00 00 
    c1e4:	e9 cb 00 00 00       	jmpq   c2b4 <func_7+0xd1d>
    c1e9:	48 8d 05 b0 ee 00 00 	lea    0xeeb0(%rip),%rax        # 1b0a0 <g_1266>
    c1f0:	48 89 85 88 f0 ff ff 	mov    %rax,-0xf78(%rbp)
    c1f7:	66 c7 85 5e ef ff ff 	movw   $0x5,-0x10a2(%rbp)
    c1fe:	05 00 
    c200:	c7 85 a4 ef ff ff 05 	movl   $0x5,-0x105c(%rbp)
    c207:	00 00 00 
    c20a:	c7 85 a8 ef ff ff ff 	movl   $0xffffffff,-0x1058(%rbp)
    c211:	ff ff ff 
    c214:	c7 85 ac ef ff ff ff 	movl   $0xe2f43ff,-0x1054(%rbp)
    c21b:	43 2f 0e 
    c21e:	c7 85 b0 ef ff ff 1a 	movl   $0xb1186a1a,-0x1050(%rbp)
    c225:	6a 18 b1 
    c228:	c7 85 b4 ef ff ff 00 	movl   $0x0,-0x104c(%rbp)
    c22f:	00 00 00 
    c232:	c7 85 b8 ef ff ff 01 	movl   $0x1,-0x1048(%rbp)
    c239:	00 00 00 
    c23c:	c7 85 bc ef ff ff 01 	movl   $0x1,-0x1044(%rbp)
    c243:	00 00 00 
    c246:	c7 85 c0 ef ff ff e7 	movl   $0x6540b9e7,-0x1040(%rbp)
    c24d:	b9 40 65 
    c250:	c7 85 68 ef ff ff 37 	movl   $0xcc588d37,-0x1098(%rbp)
    c257:	8d 58 cc 
    c25a:	48 8d 05 e7 ed 00 00 	lea    0xede7(%rip),%rax        # 1b048 <g_1218>
    c261:	48 89 85 90 f0 ff ff 	mov    %rax,-0xf70(%rbp)
    c268:	c7 85 74 ef ff ff 00 	movl   $0x0,-0x108c(%rbp)
    c26f:	00 00 00 
    c272:	eb 1b                	jmp    c28f <func_7+0xcf8>
    c274:	8b 85 74 ef ff ff    	mov    -0x108c(%rbp),%eax
    c27a:	48 98                	cltq   
    c27c:	48 c7 84 c5 90 f1 ff 	movq   $0x0,-0xe70(%rbp,%rax,8)
    c283:	ff 00 00 00 00 
    c288:	83 85 74 ef ff ff 01 	addl   $0x1,-0x108c(%rbp)
    c28f:	83 bd 74 ef ff ff 09 	cmpl   $0x9,-0x108c(%rbp)
    c296:	7e dc                	jle    c274 <func_7+0xcdd>
    c298:	48 8b 05 09 be 00 00 	mov    0xbe09(%rip),%rax        # 180a8 <g_484>
    c29f:	be 08 00 00 00       	mov    $0x8,%esi
    c2a4:	89 c7                	mov    %eax,%edi
    c2a6:	e8 25 dc ff ff       	callq  9ed0 <safe_sub_func_uint32_t_u_u>
    c2ab:	89 c0                	mov    %eax,%eax
    c2ad:	48 89 05 f4 bd 00 00 	mov    %rax,0xbdf4(%rip)        # 180a8 <g_484>
    c2b4:	48 8b 05 ed bd 00 00 	mov    0xbded(%rip),%rax        # 180a8 <g_484>
    c2bb:	48 83 f8 0a          	cmp    $0xa,%rax
    c2bf:	0f 86 24 ff ff ff    	jbe    c1e9 <func_7+0xc52>
    c2c5:	83 bd 88 ef ff ff 00 	cmpl   $0x0,-0x1078(%rbp)
    c2cc:	75 16                	jne    c2e4 <func_7+0xd4d>
    c2ce:	83 85 70 ef ff ff 01 	addl   $0x1,-0x1090(%rbp)
    c2d5:	83 bd 70 ef ff ff 16 	cmpl   $0x16,-0x1090(%rbp)
    c2dc:	0f 8f 6a fe ff ff    	jg     c14c <func_7+0xbb5>
    c2e2:	eb 01                	jmp    c2e5 <func_7+0xd4e>
    c2e4:	90                   	nop
    c2e5:	48 c7 05 b8 bd 00 00 	movq   $0x0,0xbdb8(%rip)        # 180a8 <g_484>
    c2ec:	00 00 00 00 
    c2f0:	90                   	nop
    c2f1:	48 8b 05 b0 bd 00 00 	mov    0xbdb0(%rip),%rax        # 180a8 <g_484>
    c2f8:	48 85 c0             	test   %rax,%rax
    c2fb:	0f 85 ba 01 00 00    	jne    c4bb <func_7+0xf24>
    c301:	c7 85 c4 ef ff ff 08 	movl   $0x8,-0x103c(%rbp)
    c308:	00 00 00 
    c30b:	c7 85 e0 f2 ff ff ff 	movl   $0xffffffff,-0xd20(%rbp)
    c312:	ff ff ff 
    c315:	c7 85 e4 f2 ff ff ff 	movl   $0xffffffff,-0xd1c(%rbp)
    c31c:	ff ff ff 
    c31f:	c7 85 e8 f2 ff ff ff 	movl   $0xffffffff,-0xd18(%rbp)
    c326:	ff ff ff 
    c329:	c7 85 ec f2 ff ff ff 	movl   $0xffffffff,-0xd14(%rbp)
    c330:	ff ff ff 
    c333:	c7 85 f0 f2 ff ff ff 	movl   $0xffffffff,-0xd10(%rbp)
    c33a:	ff ff ff 
    c33d:	c7 85 f4 f2 ff ff ff 	movl   $0xffffffff,-0xd0c(%rbp)
    c344:	ff ff ff 
    c347:	c7 85 f8 f2 ff ff ff 	movl   $0xffffffff,-0xd08(%rbp)
    c34e:	ff ff ff 
    c351:	c7 85 fc f2 ff ff ff 	movl   $0xffffffff,-0xd04(%rbp)
    c358:	ff ff ff 
    c35b:	c7 85 00 f3 ff ff ff 	movl   $0xffffffff,-0xd00(%rbp)
    c362:	ff ff ff 
    c365:	c7 85 04 f3 ff ff ff 	movl   $0xffffffff,-0xcfc(%rbp)
    c36c:	ff ff ff 
    c36f:	48 8d 85 60 ef ff ff 	lea    -0x10a0(%rbp),%rax
    c376:	48 89 85 98 f0 ff ff 	mov    %rax,-0xf68(%rbp)
    c37d:	48 8d 05 c8 bc 00 00 	lea    0xbcc8(%rip),%rax        # 1804c <g_57+0xc>
    c384:	48 89 85 a0 f0 ff ff 	mov    %rax,-0xf60(%rbp)
    c38b:	48 8b 05 e6 e9 00 00 	mov    0xe9e6(%rip),%rax        # 1ad78 <g_575>
    c392:	8b 10                	mov    (%rax),%edx
    c394:	48 8b 05 dd e9 00 00 	mov    0xe9dd(%rip),%rax        # 1ad78 <g_575>
    c39b:	83 ca fd             	or     $0xfffffffd,%edx
    c39e:	89 10                	mov    %edx,(%rax)
    c3a0:	b8 2b 0b a6 28       	mov    $0x28a60b2b,%eax
    c3a5:	41 89 c5             	mov    %eax,%r13d
    c3a8:	48 8d 05 25 bd 00 00 	lea    0xbd25(%rip),%rax        # 180d4 <g_1220>
    c3af:	0f b6 00             	movzbl (%rax),%eax
    c3b2:	0f be d8             	movsbl %al,%ebx
    c3b5:	48 83 bd 40 ef ff ff 	cmpq   $0x0,-0x10c0(%rbp)
    c3bc:	00 
    c3bd:	0f 84 9a 00 00 00    	je     c45d <func_7+0xec6>
    c3c3:	48 8b 05 a6 da 00 00 	mov    0xdaa6(%rip),%rax        # 19e70 <g_470>
    c3ca:	0f b6 85 5a ef ff ff 	movzbl -0x10a6(%rbp),%eax
    c3d1:	89 85 c4 ef ff ff    	mov    %eax,-0x103c(%rbp)
    c3d7:	44 8b a5 c4 ef ff ff 	mov    -0x103c(%rbp),%r12d
    c3de:	8b 85 ec f2 ff ff    	mov    -0xd14(%rbp),%eax
    c3e4:	89 c6                	mov    %eax,%esi
    c3e6:	bf a1 e3 95 43       	mov    $0x4395e3a1,%edi
    c3eb:	e8 c8 da ff ff       	callq  9eb8 <safe_add_func_uint32_t_u_u>
    c3f0:	8b 8d bc f0 ff ff    	mov    -0xf44(%rbp),%ecx
    c3f6:	8b 95 d4 f0 ff ff    	mov    -0xf2c(%rbp),%edx
    c3fc:	09 ca                	or     %ecx,%edx
    c3fe:	89 95 bc f0 ff ff    	mov    %edx,-0xf44(%rbp)
    c404:	8b 95 bc f0 ff ff    	mov    -0xf44(%rbp),%edx
    c40a:	21 d0                	and    %edx,%eax
    c40c:	41 39 c4             	cmp    %eax,%r12d
    c40f:	75 0b                	jne    c41c <func_7+0xe85>
    c411:	48 8b 05 f0 d9 00 00 	mov    0xd9f0(%rip),%rax        # 19e08 <g_444>
    c418:	8b 00                	mov    (%rax),%eax
    c41a:	85 c0                	test   %eax,%eax
    c41c:	ba 00 00 00 00       	mov    $0x0,%edx
    c421:	48 8b 85 98 f0 ff ff 	mov    -0xf68(%rbp),%rax
    c428:	8b 00                	mov    (%rax),%eax
    c42a:	21 c2                	and    %eax,%edx
    c42c:	48 8b 85 98 f0 ff ff 	mov    -0xf68(%rbp),%rax
    c433:	89 10                	mov    %edx,(%rax)
    c435:	48 8b 85 98 f0 ff ff 	mov    -0xf68(%rbp),%rax
    c43c:	8b 00                	mov    (%rax),%eax
    c43e:	89 c2                	mov    %eax,%edx
    c440:	48 8b 05 c1 d9 00 00 	mov    0xd9c1(%rip),%rax        # 19e08 <g_444>
    c447:	8b 00                	mov    (%rax),%eax
    c449:	09 d0                	or     %edx,%eax
    c44b:	89 c7                	mov    %eax,%edi
    c44d:	e8 44 d1 ff ff       	callq  9596 <safe_unary_minus_func_int32_t_s>
    c452:	85 c0                	test   %eax,%eax
    c454:	74 07                	je     c45d <func_7+0xec6>
    c456:	b8 01 00 00 00       	mov    $0x1,%eax
    c45b:	eb 05                	jmp    c462 <func_7+0xecb>
    c45d:	b8 00 00 00 00       	mov    $0x0,%eax
    c462:	89 c2                	mov    %eax,%edx
    c464:	48 8b 85 40 ef ff ff 	mov    -0x10c0(%rbp),%rax
    c46b:	09 d0                	or     %edx,%eax
    c46d:	0f be c0             	movsbl %al,%eax
    c470:	89 de                	mov    %ebx,%esi
    c472:	89 c7                	mov    %eax,%edi
    c474:	e8 28 ce ff ff       	callq  92a1 <safe_lshift_func_int8_t_s_s>
    c479:	48 0f be f0          	movsbq %al,%rsi
    c47d:	48 8b 85 40 ef ff ff 	mov    -0x10c0(%rbp),%rax
    c484:	0f be c0             	movsbl %al,%eax
    c487:	48 8d 95 f0 f7 ff ff 	lea    -0x810(%rbp),%rdx
    c48e:	48 81 c2 50 06 00 00 	add    $0x650,%rdx
    c495:	48 89 d1             	mov    %rdx,%rcx
    c498:	44 89 ea             	mov    %r13d,%edx
    c49b:	89 c7                	mov    %eax,%edi
    c49d:	e8 b5 59 00 00       	callq  11e57 <func_71>
    c4a2:	48 8b 05 cf e8 00 00 	mov    0xe8cf(%rip),%rax        # 1ad78 <g_575>
    c4a9:	c7 00 00 00 00 00    	movl   $0x0,(%rax)
    c4af:	48 8b 85 a0 f0 ff ff 	mov    -0xf60(%rbp),%rax
    c4b6:	e9 43 01 00 00       	jmpq   c5fe <func_7+0x1067>
    c4bb:	48 8b 05 b6 e8 00 00 	mov    0xe8b6(%rip),%rax        # 1ad78 <g_575>
    c4c2:	8b 08                	mov    (%rax),%ecx
    c4c4:	0f bf 95 4c ef ff ff 	movswl -0x10b4(%rbp),%edx
    c4cb:	48 8b 05 a6 e8 00 00 	mov    0xe8a6(%rip),%rax        # 1ad78 <g_575>
    c4d2:	31 ca                	xor    %ecx,%edx
    c4d4:	89 10                	mov    %edx,(%rax)
    c4d6:	0f b7 85 4c ef ff ff 	movzwl -0x10b4(%rbp),%eax
    c4dd:	0f b6 d8             	movzbl %al,%ebx
    c4e0:	66 83 bd 5c ef ff ff 	cmpw   $0x0,-0x10a4(%rbp)
    c4e7:	00 
    c4e8:	75 5a                	jne    c544 <func_7+0xfad>
    c4ea:	8b 85 64 ef ff ff    	mov    -0x109c(%rbp),%eax
    c4f0:	89 c2                	mov    %eax,%edx
    c4f2:	8b 85 80 ef ff ff    	mov    -0x1080(%rbp),%eax
    c4f8:	48 98                	cltq   
    c4fa:	48 89 d6             	mov    %rdx,%rsi
    c4fd:	48 89 c7             	mov    %rax,%rdi
    c500:	e8 aa db ff ff       	callq  a0af <safe_div_func_uint64_t_u_u>
    c505:	48 85 c0             	test   %rax,%rax
    c508:	0f 94 c0             	sete   %al
    c50b:	0f b6 d0             	movzbl %al,%edx
    c50e:	0f b6 85 59 ef ff ff 	movzbl -0x10a7(%rbp),%eax
    c515:	0f b6 c0             	movzbl %al,%eax
    c518:	39 c2                	cmp    %eax,%edx
    c51a:	0f 94 c2             	sete   %dl
    c51d:	48 8b 05 54 e8 00 00 	mov    0xe854(%rip),%rax        # 1ad78 <g_575>
    c524:	0f b6 d2             	movzbl %dl,%edx
    c527:	89 10                	mov    %edx,(%rax)
    c529:	48 8b 85 40 ef ff ff 	mov    -0x10c0(%rbp),%rax
    c530:	0f be c0             	movsbl %al,%eax
    c533:	8b 95 70 ef ff ff    	mov    -0x1090(%rbp),%edx
    c539:	89 d6                	mov    %edx,%esi
    c53b:	89 c7                	mov    %eax,%edi
    c53d:	e8 5f cd ff ff       	callq  92a1 <safe_lshift_func_int8_t_s_s>
    c542:	84 c0                	test   %al,%al
    c544:	89 de                	mov    %ebx,%esi
    c546:	bf 00 00 00 00       	mov    $0x0,%edi
    c54b:	e8 28 d6 ff ff       	callq  9b78 <safe_sub_func_uint8_t_u_u>
    c550:	0f b6 d0             	movzbl %al,%edx
    c553:	48 8b 85 40 f0 ff ff 	mov    -0xfc0(%rbp),%rax
    c55a:	89 10                	mov    %edx,(%rax)
    c55c:	48 8b 05 e5 ea 00 00 	mov    0xeae5(%rip),%rax        # 1b048 <g_1218>
    c563:	48 8b 00             	mov    (%rax),%rax
    c566:	0f b6 00             	movzbl (%rax),%eax
    c569:	0f be c0             	movsbl %al,%eax
    c56c:	21 85 84 ef ff ff    	and    %eax,-0x107c(%rbp)
    c572:	48 8b 05 cf ea 00 00 	mov    0xeacf(%rip),%rax        # 1b048 <g_1218>
    c579:	48 8b 00             	mov    (%rax),%rax
    c57c:	0f b6 00             	movzbl (%rax),%eax
    c57f:	0f be c0             	movsbl %al,%eax
    c582:	39 85 84 ef ff ff    	cmp    %eax,-0x107c(%rbp)
    c588:	0f 94 c0             	sete   %al
    c58b:	0f b6 d0             	movzbl %al,%edx
    c58e:	0f b6 05 e3 ba 00 00 	movzbl 0xbae3(%rip),%eax        # 18078 <g_104+0x8>
    c595:	0f be c0             	movsbl %al,%eax
    c598:	39 c2                	cmp    %eax,%edx
    c59a:	0f 9d c0             	setge  %al
    c59d:	0f b6 c0             	movzbl %al,%eax
    c5a0:	48 8d 1d 2d bb 00 00 	lea    0xbb2d(%rip),%rbx        # 180d4 <g_1220>
    c5a7:	be 03 00 00 00       	mov    $0x3,%esi
    c5ac:	89 c7                	mov    %eax,%edi
    c5ae:	e8 3b cd ff ff       	callq  92ee <safe_lshift_func_int8_t_s_u>
    c5b3:	88 03                	mov    %al,(%rbx)
    c5b5:	0f b6 13             	movzbl (%rbx),%edx
    c5b8:	48 8b 05 e9 ea 00 00 	mov    0xeae9(%rip),%rax        # 1b0a8 <g_1437>
    c5bf:	83 e2 ac             	and    $0xffffffac,%edx
    c5c2:	88 10                	mov    %dl,(%rax)
    c5c4:	0f b6 00             	movzbl (%rax),%eax
    c5c7:	0f b6 d0             	movzbl %al,%edx
    c5ca:	0f b7 85 4c ef ff ff 	movzwl -0x10b4(%rbp),%eax
    c5d1:	0f b6 c0             	movzbl %al,%eax
    c5d4:	89 d6                	mov    %edx,%esi
    c5d6:	89 c7                	mov    %eax,%edi
    c5d8:	e8 7d d5 ff ff       	callq  9b5a <safe_add_func_uint8_t_u_u>
    c5dd:	48 8b 95 50 f0 ff ff 	mov    -0xfb0(%rbp),%rdx
    c5e4:	8b 12                	mov    (%rdx),%edx
    c5e6:	0f b6 c0             	movzbl %al,%eax
    c5e9:	31 c2                	xor    %eax,%edx
    c5eb:	48 8b 85 50 f0 ff ff 	mov    -0xfb0(%rbp),%rax
    c5f2:	89 10                	mov    %edx,(%rax)
    c5f4:	48 8b 05 b5 e7 00 00 	mov    0xe7b5(%rip),%rax        # 1adb0 <g_577>
    c5fb:	48 8b 00             	mov    (%rax),%rax
    c5fe:	48 8b 5d d8          	mov    -0x28(%rbp),%rbx
    c602:	64 48 33 1c 25 28 00 	xor    %fs:0x28,%rbx
    c609:	00 00 
    c60b:	74 05                	je     c612 <func_7+0x107b>
    c60d:	e8 5e ca ff ff       	callq  9070 <__stack_chk_fail@plt>
    c612:	48 81 c4 a8 10 00 00 	add    $0x10a8,%rsp
    c619:	5b                   	pop    %rbx
    c61a:	41 5c                	pop    %r12
    c61c:	41 5d                	pop    %r13
    c61e:	5d                   	pop    %rbp
    c61f:	c3                   	retq   

000000000000c620 <func_15>:
    c620:	f3 0f 1e fa          	endbr64 
    c624:	55                   	push   %rbp
    c625:	48 89 e5             	mov    %rsp,%rbp
    c628:	53                   	push   %rbx
    c629:	48 81 ec a8 03 00 00 	sub    $0x3a8,%rsp
    c630:	89 bd 5c fc ff ff    	mov    %edi,-0x3a4(%rbp)
    c636:	48 89 b5 50 fc ff ff 	mov    %rsi,-0x3b0(%rbp)
    c63d:	64 48 8b 04 25 28 00 	mov    %fs:0x28,%rax
    c644:	00 00 
    c646:	48 89 45 e8          	mov    %rax,-0x18(%rbp)
    c64a:	31 c0                	xor    %eax,%eax
    c64c:	48 8d 05 3d ba 00 00 	lea    0xba3d(%rip),%rax        # 18090 <g_191>
    c653:	48 89 85 70 fc ff ff 	mov    %rax,-0x390(%rbp)
    c65a:	c7 85 6c fc ff ff fa 	movl   $0xb8309bfa,-0x394(%rbp)
    c661:	9b 30 b8 
    c664:	48 8d 05 e5 d5 00 00 	lea    0xd5e5(%rip),%rax        # 19c50 <g_261+0x1f0>
    c66b:	48 89 85 78 fc ff ff 	mov    %rax,-0x388(%rbp)
    c672:	48 8d 05 bf b9 00 00 	lea    0xb9bf(%rip),%rax        # 18038 <g_55>
    c679:	48 89 85 80 fc ff ff 	mov    %rax,-0x380(%rbp)
    c680:	48 8d 05 b1 b9 00 00 	lea    0xb9b1(%rip),%rax        # 18038 <g_55>
    c687:	48 89 85 88 fc ff ff 	mov    %rax,-0x378(%rbp)
    c68e:	48 8d 05 a3 b9 00 00 	lea    0xb9a3(%rip),%rax        # 18038 <g_55>
    c695:	48 89 85 90 fc ff ff 	mov    %rax,-0x370(%rbp)
    c69c:	48 8d 05 95 b9 00 00 	lea    0xb995(%rip),%rax        # 18038 <g_55>
    c6a3:	48 89 85 98 fc ff ff 	mov    %rax,-0x368(%rbp)
    c6aa:	48 8d 05 87 b9 00 00 	lea    0xb987(%rip),%rax        # 18038 <g_55>
    c6b1:	48 89 85 a0 fc ff ff 	mov    %rax,-0x360(%rbp)
    c6b8:	48 8d 05 79 b9 00 00 	lea    0xb979(%rip),%rax        # 18038 <g_55>
    c6bf:	48 89 85 a8 fc ff ff 	mov    %rax,-0x358(%rbp)
    c6c6:	48 8d 05 6b b9 00 00 	lea    0xb96b(%rip),%rax        # 18038 <g_55>
    c6cd:	48 89 85 b0 fc ff ff 	mov    %rax,-0x350(%rbp)
    c6d4:	48 8d 05 5d b9 00 00 	lea    0xb95d(%rip),%rax        # 18038 <g_55>
    c6db:	48 89 85 b8 fc ff ff 	mov    %rax,-0x348(%rbp)
    c6e2:	0f b6 85 6c fc ff ff 	movzbl -0x394(%rbp),%eax
    c6e9:	0f be d8             	movsbl %al,%ebx
    c6ec:	be 01 00 00 00       	mov    $0x1,%esi
    c6f1:	bf 97 00 00 00       	mov    $0x97,%edi
    c6f6:	e8 0a d5 ff ff       	callq  9c05 <safe_lshift_func_uint8_t_u_s>
    c6fb:	0f b6 c0             	movzbl %al,%eax
    c6fe:	89 de                	mov    %ebx,%esi
    c700:	89 c7                	mov    %eax,%edi
    c702:	e8 ff d6 ff ff       	callq  9e06 <safe_lshift_func_uint16_t_u_u>
    c707:	8b 95 6c fc ff ff    	mov    -0x394(%rbp),%edx
    c70d:	48 8b 05 64 e6 00 00 	mov    0xe664(%rip),%rax        # 1ad78 <g_575>
    c714:	89 10                	mov    %edx,(%rax)
    c716:	c7 85 5c fc ff ff 00 	movl   $0x0,-0x3a4(%rbp)
    c71d:	00 00 00 
    c720:	eb 35                	jmp    c757 <func_15+0x137>
    c722:	48 8d 85 c0 fc ff ff 	lea    -0x340(%rbp),%rax
    c729:	48 8d 15 10 c9 00 00 	lea    0xc910(%rip),%rdx        # 19040 <g_1941+0xd70>
    c730:	b9 64 00 00 00       	mov    $0x64,%ecx
    c735:	48 89 c7             	mov    %rax,%rdi
    c738:	48 89 d6             	mov    %rdx,%rsi
    c73b:	f3 48 a5             	rep movsq %ds:(%rsi),%es:(%rdi)
    c73e:	8b 85 5c fc ff ff    	mov    -0x3a4(%rbp),%eax
    c744:	be 09 00 00 00       	mov    $0x9,%esi
    c749:	48 89 c7             	mov    %rax,%rdi
    c74c:	e8 f0 d0 ff ff       	callq  9841 <safe_add_func_int64_t_s_s>
    c751:	89 85 5c fc ff ff    	mov    %eax,-0x3a4(%rbp)
    c757:	83 bd 5c fc ff ff 13 	cmpl   $0x13,-0x3a4(%rbp)
    c75e:	77 c2                	ja     c722 <func_15+0x102>
    c760:	48 8b 05 79 d6 00 00 	mov    0xd679(%rip),%rax        # 19de0 <g_260>
    c767:	48 8b 10             	mov    (%rax),%rdx
    c76a:	48 8b 85 78 fc ff ff 	mov    -0x388(%rbp),%rax
    c771:	48 89 10             	mov    %rdx,(%rax)
    c774:	48 8b 85 b8 fc ff ff 	mov    -0x348(%rbp),%rax
    c77b:	48 8b 4d e8          	mov    -0x18(%rbp),%rcx
    c77f:	64 48 33 0c 25 28 00 	xor    %fs:0x28,%rcx
    c786:	00 00 
    c788:	74 05                	je     c78f <func_15+0x16f>
    c78a:	e8 e1 c8 ff ff       	callq  9070 <__stack_chk_fail@plt>
    c78f:	48 81 c4 a8 03 00 00 	add    $0x3a8,%rsp
    c796:	5b                   	pop    %rbx
    c797:	5d                   	pop    %rbp
    c798:	c3                   	retq   

000000000000c799 <func_18>:
    c799:	f3 0f 1e fa          	endbr64 
    c79d:	55                   	push   %rbp
    c79e:	48 89 e5             	mov    %rsp,%rbp
    c7a1:	41 57                	push   %r15
    c7a3:	41 56                	push   %r14
    c7a5:	41 55                	push   %r13
    c7a7:	41 54                	push   %r12
    c7a9:	53                   	push   %rbx
    c7aa:	48 81 ec 00 10 00 00 	sub    $0x1000,%rsp
    c7b1:	48 83 0c 24 00       	orq    $0x0,(%rsp)
    c7b6:	48 81 ec b8 00 00 00 	sub    $0xb8,%rsp
    c7bd:	48 89 bd 38 ef ff ff 	mov    %rdi,-0x10c8(%rbp)
    c7c4:	48 89 b5 30 ef ff ff 	mov    %rsi,-0x10d0(%rbp)
    c7cb:	48 89 95 28 ef ff ff 	mov    %rdx,-0x10d8(%rbp)
    c7d2:	64 48 8b 04 25 28 00 	mov    %fs:0x28,%rax
    c7d9:	00 00 
    c7db:	48 89 45 c8          	mov    %rax,-0x38(%rbp)
    c7df:	31 c0                	xor    %eax,%eax
    c7e1:	48 8d 05 44 b8 00 00 	lea    0xb844(%rip),%rax        # 1802c <g_34>
    c7e8:	48 89 85 20 f0 ff ff 	mov    %rax,-0xfe0(%rbp)
    c7ef:	c7 85 54 ef ff ff 01 	movl   $0x1,-0x10ac(%rbp)
    c7f6:	00 00 00 
    c7f9:	c7 85 58 ef ff ff ac 	movl   $0xaf71faac,-0x10a8(%rbp)
    c800:	fa 71 af 
    c803:	48 8d 05 92 b8 00 00 	lea    0xb892(%rip),%rax        # 1809c <g_318>
    c80a:	48 89 85 e0 ef ff ff 	mov    %rax,-0x1020(%rbp)
    c811:	48 8d 05 88 b8 00 00 	lea    0xb888(%rip),%rax        # 180a0 <g_445>
    c818:	48 89 85 28 f0 ff ff 	mov    %rax,-0xfd8(%rbp)
    c81f:	48 8d 05 7e b8 00 00 	lea    0xb87e(%rip),%rax        # 180a4 <g_460>
    c826:	48 89 85 30 f0 ff ff 	mov    %rax,-0xfd0(%rbp)
    c82d:	48 8d 05 d4 d5 00 00 	lea    0xd5d4(%rip),%rax        # 19e08 <g_444>
    c834:	48 89 85 38 f0 ff ff 	mov    %rax,-0xfc8(%rbp)
    c83b:	48 8d 05 5a b8 00 00 	lea    0xb85a(%rip),%rax        # 1809c <g_318>
    c842:	48 89 85 40 f0 ff ff 	mov    %rax,-0xfc0(%rbp)
    c849:	48 8d 85 78 f1 ff ff 	lea    -0xe88(%rbp),%rax
    c850:	48 89 85 e8 ef ff ff 	mov    %rax,-0x1018(%rbp)
    c857:	c7 85 7c ef ff ff d9 	movl   $0x6a29ccd9,-0x1084(%rbp)
    c85e:	cc 29 6a 
    c861:	48 8d 05 f8 b7 00 00 	lea    0xb7f8(%rip),%rax        # 18060 <g_83>
    c868:	48 89 85 f0 ef ff ff 	mov    %rax,-0x1010(%rbp)
    c86f:	66 c7 85 4e ef ff ff 	movw   $0xfff7,-0x10b2(%rbp)
    c876:	f7 ff 
    c878:	48 c7 85 48 f0 ff ff 	movq   $0x0,-0xfb8(%rbp)
    c87f:	00 00 00 00 
    c883:	48 c7 85 f8 ef ff ff 	movq   $0x0,-0x1008(%rbp)
    c88a:	00 00 00 00 
    c88e:	48 8d 85 f8 ef ff ff 	lea    -0x1008(%rbp),%rax
    c895:	48 89 85 50 f0 ff ff 	mov    %rax,-0xfb0(%rbp)
    c89c:	c7 85 80 ef ff ff 8b 	movl   $0xdd8d1c8b,-0x1080(%rbp)
    c8a3:	1c 8d dd 
    c8a6:	c7 85 84 ef ff ff 09 	movl   $0x9,-0x107c(%rbp)
    c8ad:	00 00 00 
    c8b0:	c7 85 88 ef ff ff 1c 	movl   $0xcee0711c,-0x1078(%rbp)
    c8b7:	71 e0 ce 
    c8ba:	c7 85 8c ef ff ff db 	movl   $0xe6469db,-0x1074(%rbp)
    c8c1:	69 64 0e 
    c8c4:	c7 85 90 ef ff ff 05 	movl   $0x5,-0x1070(%rbp)
    c8cb:	00 00 00 
    c8ce:	c7 85 64 ef ff ff 00 	movl   $0x0,-0x109c(%rbp)
    c8d5:	00 00 00 
    c8d8:	eb 1b                	jmp    c8f5 <func_18+0x15c>
    c8da:	8b 85 64 ef ff ff    	mov    -0x109c(%rbp),%eax
    c8e0:	48 98                	cltq   
    c8e2:	48 c7 84 c5 78 f1 ff 	movq   $0x0,-0xe88(%rbp,%rax,8)
    c8e9:	ff 00 00 00 00 
    c8ee:	83 85 64 ef ff ff 01 	addl   $0x1,-0x109c(%rbp)
    c8f5:	83 bd 64 ef ff ff 00 	cmpl   $0x0,-0x109c(%rbp)
    c8fc:	7e dc                	jle    c8da <func_18+0x141>
    c8fe:	8b 85 54 ef ff ff    	mov    -0x10ac(%rbp),%eax
    c904:	89 c2                	mov    %eax,%edx
    c906:	48 8b 85 20 f0 ff ff 	mov    -0xfe0(%rbp),%rax
    c90d:	c6 00 08             	movb   $0x8,(%rax)
    c910:	89 d6                	mov    %edx,%esi
    c912:	bf 01 00 00 00       	mov    $0x1,%edi
    c917:	e8 a2 d3 ff ff       	callq  9cbe <safe_rshift_func_uint8_t_u_u>
    c91c:	0f b6 d0             	movzbl %al,%edx
    c91f:	8b 85 58 ef ff ff    	mov    -0x10a8(%rbp),%eax
    c925:	21 d0                	and    %edx,%eax
    c927:	89 85 58 ef ff ff    	mov    %eax,-0x10a8(%rbp)
    c92d:	48 8b 05 14 d1 00 00 	mov    0xd114(%rip),%rax        # 19a48 <g_98>
    c934:	48 8b 18             	mov    (%rax),%rbx
    c937:	48 8b 85 38 f0 ff ff 	mov    -0xfc8(%rbp),%rax
    c93e:	48 8b 95 30 ef ff ff 	mov    -0x10d0(%rbp),%rdx
    c945:	48 89 10             	mov    %rdx,(%rax)
    c948:	48 8b 85 38 f0 ff ff 	mov    -0xfc8(%rbp),%rax
    c94f:	48 8b 00             	mov    (%rax),%rax
    c952:	48 39 85 30 f0 ff ff 	cmp    %rax,-0xfd0(%rbp)
    c959:	0f 94 c0             	sete   %al
    c95c:	0f b6 c0             	movzbl %al,%eax
    c95f:	48 c7 c6 fe ff ff ff 	mov    $0xfffffffffffffffe,%rsi
    c966:	48 89 c7             	mov    %rax,%rdi
    c969:	e8 89 d0 ff ff       	callq  99f7 <safe_div_func_int64_t_s_s>
    c96e:	8b 95 54 ef ff ff    	mov    -0x10ac(%rbp),%edx
    c974:	48 63 d2             	movslq %edx,%rdx
    c977:	48 39 d0             	cmp    %rdx,%rax
    c97a:	0f 94 c0             	sete   %al
    c97d:	0f b6 d0             	movzbl %al,%edx
    c980:	48 8b 05 c1 d0 00 00 	mov    0xd0c1(%rip),%rax        # 19a48 <g_98>
    c987:	48 8b 00             	mov    (%rax),%rax
    c98a:	48 b9 33 ec 81 0a 05 	movabs $0x84a312050a81ec33,%rcx
    c991:	12 a3 84 
    c994:	48 89 08             	mov    %rcx,(%rax)
    c997:	48 8b 08             	mov    (%rax),%rcx
    c99a:	48 8b 85 28 ef ff ff 	mov    -0x10d8(%rbp),%rax
    c9a1:	48 89 85 28 f0 ff ff 	mov    %rax,-0xfd8(%rbp)
    c9a8:	48 8b 85 28 f0 ff ff 	mov    -0xfd8(%rbp),%rax
    c9af:	48 3b 85 28 ef ff ff 	cmp    -0x10d8(%rbp),%rax
    c9b6:	0f 94 c0             	sete   %al
    c9b9:	0f b6 c0             	movzbl %al,%eax
    c9bc:	48 39 c1             	cmp    %rax,%rcx
    c9bf:	0f 9c c0             	setl   %al
    c9c2:	0f b6 f0             	movzbl %al,%esi
    c9c5:	48 8b 85 e0 ef ff ff 	mov    -0x1020(%rbp),%rax
    c9cc:	0f b6 38             	movzbl (%rax),%edi
    c9cf:	48 8b 05 9a e3 00 00 	mov    0xe39a(%rip),%rax        # 1ad70 <g_556>
    c9d6:	48 8b 00             	mov    (%rax),%rax
    c9d9:	0f b6 08             	movzbl (%rax),%ecx
    c9dc:	48 8b 85 e0 ef ff ff 	mov    -0x1020(%rbp),%rax
    c9e3:	31 f9                	xor    %edi,%ecx
    c9e5:	88 08                	mov    %cl,(%rax)
    c9e7:	0f b6 00             	movzbl (%rax),%eax
    c9ea:	0f be c0             	movsbl %al,%eax
    c9ed:	48 89 d9             	mov    %rbx,%rcx
    c9f0:	89 c7                	mov    %eax,%edi
    c9f2:	e8 60 54 00 00       	callq  11e57 <func_71>
    c9f7:	48 8b 85 38 ef ff ff 	mov    -0x10c8(%rbp),%rax
    c9fe:	8b 00                	mov    (%rax),%eax
    ca00:	85 c0                	test   %eax,%eax
    ca02:	0f 84 90 01 00 00    	je     cb98 <func_18+0x3ff>
    ca08:	48 8d 05 8d b6 00 00 	lea    0xb68d(%rip),%rax        # 1809c <g_318>
    ca0f:	48 89 85 18 f0 ff ff 	mov    %rax,-0xfe8(%rbp)
    ca16:	48 8d 05 5b e3 00 00 	lea    0xe35b(%rip),%rax        # 1ad78 <g_575>
    ca1d:	48 89 85 b0 f0 ff ff 	mov    %rax,-0xf50(%rbp)
    ca24:	c7 85 68 ef ff ff 00 	movl   $0x0,-0x1098(%rbp)
    ca2b:	00 00 00 
    ca2e:	eb 1e                	jmp    ca4e <func_18+0x2b5>
    ca30:	8b 85 68 ef ff ff    	mov    -0x1098(%rbp),%eax
    ca36:	48 98                	cltq   
    ca38:	48 8d 95 18 f0 ff ff 	lea    -0xfe8(%rbp),%rdx
    ca3f:	48 89 94 c5 40 f8 ff 	mov    %rdx,-0x7c0(%rbp,%rax,8)
    ca46:	ff 
    ca47:	83 85 68 ef ff ff 01 	addl   $0x1,-0x1098(%rbp)
    ca4e:	83 bd 68 ef ff ff 01 	cmpl   $0x1,-0x1098(%rbp)
    ca55:	7e d9                	jle    ca30 <func_18+0x297>
    ca57:	48 8b 05 4a e4 00 00 	mov    0xe44a(%rip),%rax        # 1aea8 <g_755>
    ca5e:	48 8b 95 18 f0 ff ff 	mov    -0xfe8(%rbp),%rdx
    ca65:	48 89 10             	mov    %rdx,(%rax)
    ca68:	48 8b 00             	mov    (%rax),%rax
    ca6b:	48 89 85 40 f0 ff ff 	mov    %rax,-0xfc0(%rbp)
    ca72:	48 8b 05 df cf 00 00 	mov    0xcfdf(%rip),%rax        # 19a58 <g_210>
    ca79:	c7 00 02 00 00 00    	movl   $0x2,(%rax)
    ca7f:	48 8b 85 b0 f0 ff ff 	mov    -0xf50(%rbp),%rax
    ca86:	48 8b 95 30 ef ff ff 	mov    -0x10d0(%rbp),%rdx
    ca8d:	48 89 10             	mov    %rdx,(%rax)
    ca90:	0f b6 05 95 b5 00 00 	movzbl 0xb595(%rip),%eax        # 1802c <g_34>
    ca97:	66 98                	cbtw   
    ca99:	0f b7 d8             	movzwl %ax,%ebx
    ca9c:	48 8b 05 5d d3 00 00 	mov    0xd35d(%rip),%rax        # 19e00 <g_406>
    caa3:	48 8b 00             	mov    (%rax),%rax
    caa6:	48 8b 00             	mov    (%rax),%rax
    caa9:	48 8b 00             	mov    (%rax),%rax
    caac:	48 85 c0             	test   %rax,%rax
    caaf:	ba 01 00 00 00       	mov    $0x1,%edx
    cab4:	8b 85 54 ef ff ff    	mov    -0x10ac(%rbp),%eax
    caba:	39 c2                	cmp    %eax,%edx
    cabc:	0f 94 c0             	sete   %al
    cabf:	0f b6 c0             	movzbl %al,%eax
    cac2:	be 03 a3 2a 0e       	mov    $0xe2aa303,%esi
    cac7:	89 c7                	mov    %eax,%edi
    cac9:	e8 02 d4 ff ff       	callq  9ed0 <safe_sub_func_uint32_t_u_u>
    cace:	44 8b a5 54 ef ff ff 	mov    -0x10ac(%rbp),%r12d
    cad5:	be 07 00 00 00       	mov    $0x7,%esi
    cada:	bf fb ff ff ff       	mov    $0xfffffffb,%edi
    cadf:	e8 88 c8 ff ff       	callq  936c <safe_rshift_func_int8_t_s_u>
    cae4:	0f be c0             	movsbl %al,%eax
    cae7:	44 89 e6             	mov    %r12d,%esi
    caea:	89 c7                	mov    %eax,%edi
    caec:	e8 c5 ca ff ff       	callq  95b6 <safe_add_func_int32_t_s_s>
    caf1:	48 98                	cltq   
    caf3:	48 c7 c6 f6 ff ff ff 	mov    $0xfffffffffffffff6,%rsi
    cafa:	48 89 c7             	mov    %rax,%rdi
    cafd:	e8 49 d5 ff ff       	callq  a04b <safe_sub_func_uint64_t_u_u>
    cb02:	48 ba b0 16 98 70 47 	movabs $0x65d5d47709816b0,%rdx
    cb09:	5d 5d 06 
    cb0c:	48 39 d0             	cmp    %rdx,%rax
    cb0f:	0f 96 c0             	setbe  %al
    cb12:	0f b6 d0             	movzbl %al,%edx
    cb15:	8b 85 58 ef ff ff    	mov    -0x10a8(%rbp),%eax
    cb1b:	89 85 58 ef ff ff    	mov    %eax,-0x10a8(%rbp)
    cb21:	8b 85 58 ef ff ff    	mov    -0x10a8(%rbp),%eax
    cb27:	83 f0 01             	xor    $0x1,%eax
    cb2a:	89 c1                	mov    %eax,%ecx
    cb2c:	8b 85 54 ef ff ff    	mov    -0x10ac(%rbp),%eax
    cb32:	09 c8                	or     %ecx,%eax
    cb34:	48 98                	cltq   
    cb36:	48 b9 9b 88 cc 81 72 	movabs $0x32d8287281cc889b,%rcx
    cb3d:	28 d8 32 
    cb40:	48 09 c8             	or     %rcx,%rax
    cb43:	48 39 c2             	cmp    %rax,%rdx
    cb46:	0f 92 c0             	setb   %al
    cb49:	0f b6 c0             	movzbl %al,%eax
    cb4c:	39 85 7c ef ff ff    	cmp    %eax,-0x1084(%rbp)
    cb52:	0f 96 c0             	setbe  %al
    cb55:	0f b6 d0             	movzbl %al,%edx
    cb58:	48 8b 05 a9 d2 00 00 	mov    0xd2a9(%rip),%rax        # 19e08 <g_444>
    cb5f:	8b 00                	mov    (%rax),%eax
    cb61:	89 d6                	mov    %edx,%esi
    cb63:	89 c7                	mov    %eax,%edi
    cb65:	e8 7c d3 ff ff       	callq  9ee6 <safe_mul_func_uint32_t_u_u>
    cb6a:	0f b7 c0             	movzwl %ax,%eax
    cb6d:	89 de                	mov    %ebx,%esi
    cb6f:	89 c7                	mov    %eax,%edi
    cb71:	e8 89 d1 ff ff       	callq  9cff <safe_add_func_uint16_t_u_u>
    cb76:	0f b7 d0             	movzwl %ax,%edx
    cb79:	48 8b 05 88 d2 00 00 	mov    0xd288(%rip),%rax        # 19e08 <g_444>
    cb80:	8b 00                	mov    (%rax),%eax
    cb82:	39 c2                	cmp    %eax,%edx
    cb84:	0f 92 c0             	setb   %al
    cb87:	0f b6 d0             	movzbl %al,%edx
    cb8a:	48 8b 85 30 ef ff ff 	mov    -0x10d0(%rbp),%rax
    cb91:	89 10                	mov    %edx,(%rax)
    cb93:	e9 69 0e 00 00       	jmpq   da01 <func_18+0x1268>
    cb98:	48 b8 ad 9b 46 d9 e4 	movabs $0xa60c6e4d9469bad,%rax
    cb9f:	c6 60 0a 
    cba2:	48 89 85 18 f0 ff ff 	mov    %rax,-0xfe8(%rbp)
    cba9:	48 8d 05 dc b4 00 00 	lea    0xb4dc(%rip),%rax        # 1808c <g_176>
    cbb0:	48 89 85 58 f0 ff ff 	mov    %rax,-0xfa8(%rbp)
    cbb7:	c7 85 10 f0 ff ff 00 	movl   $0x0,-0xff0(%rbp)
    cbbe:	00 00 00 
    cbc1:	48 8d 05 a0 d2 00 00 	lea    0xd2a0(%rip),%rax        # 19e68 <g_471>
    cbc8:	48 89 85 60 f0 ff ff 	mov    %rax,-0xfa0(%rbp)
    cbcf:	48 8d 85 10 f0 ff ff 	lea    -0xff0(%rbp),%rax
    cbd6:	48 89 85 68 f0 ff ff 	mov    %rax,-0xf98(%rbp)
    cbdd:	48 c7 85 70 f0 ff ff 	movq   $0x0,-0xf90(%rbp)
    cbe4:	00 00 00 00 
    cbe8:	66 c7 05 9f b4 00 00 	movw   $0x1,0xb49f(%rip)        # 18090 <g_191>
    cbef:	01 00 
    cbf1:	e9 c1 00 00 00       	jmpq   ccb7 <func_18+0x51e>
    cbf6:	48 8d 05 4f b4 00 00 	lea    0xb44f(%rip),%rax        # 1804c <g_57+0xc>
    cbfd:	48 89 85 90 f0 ff ff 	mov    %rax,-0xf70(%rbp)
    cc04:	48 c7 85 98 f0 ff ff 	movq   $0x0,-0xf68(%rbp)
    cc0b:	00 00 00 00 
    cc0f:	48 8d 85 58 ef ff ff 	lea    -0x10a8(%rbp),%rax
    cc16:	48 89 85 a0 f0 ff ff 	mov    %rax,-0xf60(%rbp)
    cc1d:	0f b7 05 6c b4 00 00 	movzwl 0xb46c(%rip),%eax        # 18090 <g_191>
    cc24:	98                   	cwtl   
    cc25:	48 98                	cltq   
    cc27:	48 8d 14 85 00 00 00 	lea    0x0(,%rax,4),%rdx
    cc2e:	00 
    cc2f:	48 8d 05 0a b4 00 00 	lea    0xb40a(%rip),%rax        # 18040 <g_57>
    cc36:	48 01 d0             	add    %rdx,%rax
    cc39:	48 89 85 a8 f0 ff ff 	mov    %rax,-0xf58(%rbp)
    cc40:	48 8d 85 54 ef ff ff 	lea    -0x10ac(%rbp),%rax
    cc47:	48 89 85 40 f8 ff ff 	mov    %rax,-0x7c0(%rbp)
    cc4e:	48 8d 85 54 ef ff ff 	lea    -0x10ac(%rbp),%rax
    cc55:	48 89 85 48 f8 ff ff 	mov    %rax,-0x7b8(%rbp)
    cc5c:	48 8d 85 54 ef ff ff 	lea    -0x10ac(%rbp),%rax
    cc63:	48 89 85 50 f8 ff ff 	mov    %rax,-0x7b0(%rbp)
    cc6a:	48 8d 85 54 ef ff ff 	lea    -0x10ac(%rbp),%rax
    cc71:	48 89 85 58 f8 ff ff 	mov    %rax,-0x7a8(%rbp)
    cc78:	48 8d 85 54 ef ff ff 	lea    -0x10ac(%rbp),%rax
    cc7f:	48 89 85 60 f8 ff ff 	mov    %rax,-0x7a0(%rbp)
    cc86:	48 8d 85 54 ef ff ff 	lea    -0x10ac(%rbp),%rax
    cc8d:	48 89 85 68 f8 ff ff 	mov    %rax,-0x798(%rbp)
    cc94:	48 8b 85 18 f0 ff ff 	mov    -0xfe8(%rbp),%rax
    cc9b:	48 83 e8 01          	sub    $0x1,%rax
    cc9f:	48 89 85 18 f0 ff ff 	mov    %rax,-0xfe8(%rbp)
    cca6:	0f b7 05 e3 b3 00 00 	movzwl 0xb3e3(%rip),%eax        # 18090 <g_191>
    ccad:	83 c0 01             	add    $0x1,%eax
    ccb0:	66 89 05 d9 b3 00 00 	mov    %ax,0xb3d9(%rip)        # 18090 <g_191>
    ccb7:	0f b7 05 d2 b3 00 00 	movzwl 0xb3d2(%rip),%eax        # 18090 <g_191>
    ccbe:	66 83 f8 07          	cmp    $0x7,%ax
    ccc2:	0f 8e 2e ff ff ff    	jle    cbf6 <func_18+0x45d>
    ccc8:	c7 85 54 ef ff ff 00 	movl   $0x0,-0x10ac(%rbp)
    cccf:	00 00 00 
    ccd2:	8b 95 58 ef ff ff    	mov    -0x10a8(%rbp),%edx
    ccd8:	48 8b 85 f0 ef ff ff 	mov    -0x1010(%rbp),%rax
    ccdf:	48 63 d2             	movslq %edx,%rdx
    cce2:	48 89 10             	mov    %rdx,(%rax)
    cce5:	8b 85 54 ef ff ff    	mov    -0x10ac(%rbp),%eax
    cceb:	98                   	cwtl   
    ccec:	be 06 00 00 00       	mov    $0x6,%esi
    ccf1:	89 c7                	mov    %eax,%edi
    ccf3:	e8 9a c7 ff ff       	callq  9492 <safe_lshift_func_int16_t_s_s>
    ccf8:	8b 85 58 ef ff ff    	mov    -0x10a8(%rbp),%eax
    ccfe:	48 98                	cltq   
    cd00:	be 01 00 00 00       	mov    $0x1,%esi
    cd05:	48 89 c7             	mov    %rax,%rdi
    cd08:	e8 34 cb ff ff       	callq  9841 <safe_add_func_int64_t_s_s>
    cd0d:	48 8b 15 ec d0 00 00 	mov    0xd0ec(%rip),%rdx        # 19e00 <g_406>
    cd14:	48 8b 12             	mov    (%rdx),%rdx
    cd17:	48 8b 0a             	mov    (%rdx),%rcx
    cd1a:	48 8b 95 f0 ef ff ff 	mov    -0x1010(%rbp),%rdx
    cd21:	48 39 d1             	cmp    %rdx,%rcx
    cd24:	0f 95 c2             	setne  %dl
    cd27:	0f b6 ca             	movzbl %dl,%ecx
    cd2a:	48 8b 95 58 f0 ff ff 	mov    -0xfa8(%rbp),%rdx
    cd31:	0f b7 12             	movzwl (%rdx),%edx
    cd34:	31 d0                	xor    %edx,%eax
    cd36:	89 c2                	mov    %eax,%edx
    cd38:	48 8b 85 58 f0 ff ff 	mov    -0xfa8(%rbp),%rax
    cd3f:	66 89 10             	mov    %dx,(%rax)
    cd42:	48 8b 85 58 f0 ff ff 	mov    -0xfa8(%rbp),%rax
    cd49:	0f b7 00             	movzwl (%rax),%eax
    cd4c:	0f b7 c0             	movzwl %ax,%eax
    cd4f:	39 c1                	cmp    %eax,%ecx
    cd51:	0f 8e 4d 0a 00 00    	jle    d7a4 <func_18+0x100b>
    cd57:	48 c7 85 80 f0 ff ff 	movq   $0xffffffffffffffff,-0xf80(%rbp)
    cd5e:	ff ff ff ff 
    cd62:	66 c7 85 50 ef ff ff 	movw   $0xffff,-0x10b0(%rbp)
    cd69:	ff ff 
    cd6b:	48 8d 05 36 b3 00 00 	lea    0xb336(%rip),%rax        # 180a8 <g_484>
    cd72:	48 89 85 40 f8 ff ff 	mov    %rax,-0x7c0(%rbp)
    cd79:	48 8d 05 28 b3 00 00 	lea    0xb328(%rip),%rax        # 180a8 <g_484>
    cd80:	48 89 85 48 f8 ff ff 	mov    %rax,-0x7b8(%rbp)
    cd87:	48 8d 85 18 f0 ff ff 	lea    -0xfe8(%rbp),%rax
    cd8e:	48 89 85 50 f8 ff ff 	mov    %rax,-0x7b0(%rbp)
    cd95:	48 8d 05 14 b3 00 00 	lea    0xb314(%rip),%rax        # 180b0 <g_527>
    cd9c:	48 89 85 58 f8 ff ff 	mov    %rax,-0x7a8(%rbp)
    cda3:	48 c7 85 60 f8 ff ff 	movq   $0x0,-0x7a0(%rbp)
    cdaa:	00 00 00 00 
    cdae:	48 8d 85 18 f0 ff ff 	lea    -0xfe8(%rbp),%rax
    cdb5:	48 89 85 68 f8 ff ff 	mov    %rax,-0x798(%rbp)
    cdbc:	48 c7 85 70 f8 ff ff 	movq   $0x0,-0x790(%rbp)
    cdc3:	00 00 00 00 
    cdc7:	48 8d 05 da b2 00 00 	lea    0xb2da(%rip),%rax        # 180a8 <g_484>
    cdce:	48 89 85 78 f8 ff ff 	mov    %rax,-0x788(%rbp)
    cdd5:	48 8d 05 cc b2 00 00 	lea    0xb2cc(%rip),%rax        # 180a8 <g_484>
    cddc:	48 89 85 80 f8 ff ff 	mov    %rax,-0x780(%rbp)
    cde3:	48 8d 05 c6 b2 00 00 	lea    0xb2c6(%rip),%rax        # 180b0 <g_527>
    cdea:	48 89 85 88 f8 ff ff 	mov    %rax,-0x778(%rbp)
    cdf1:	48 8d 05 38 b2 00 00 	lea    0xb238(%rip),%rax        # 18030 <g_36>
    cdf8:	48 89 85 90 f8 ff ff 	mov    %rax,-0x770(%rbp)
    cdff:	48 c7 85 98 f8 ff ff 	movq   $0x0,-0x768(%rbp)
    ce06:	00 00 00 00 
    ce0a:	48 8d 05 97 b2 00 00 	lea    0xb297(%rip),%rax        # 180a8 <g_484>
    ce11:	48 89 85 a0 f8 ff ff 	mov    %rax,-0x760(%rbp)
    ce18:	48 8d 05 91 b2 00 00 	lea    0xb291(%rip),%rax        # 180b0 <g_527>
    ce1f:	48 89 85 a8 f8 ff ff 	mov    %rax,-0x758(%rbp)
    ce26:	48 8d 05 03 b2 00 00 	lea    0xb203(%rip),%rax        # 18030 <g_36>
    ce2d:	48 89 85 b0 f8 ff ff 	mov    %rax,-0x750(%rbp)
    ce34:	48 8d 05 6d b2 00 00 	lea    0xb26d(%rip),%rax        # 180a8 <g_484>
    ce3b:	48 89 85 b8 f8 ff ff 	mov    %rax,-0x748(%rbp)
    ce42:	48 8d 05 67 b2 00 00 	lea    0xb267(%rip),%rax        # 180b0 <g_527>
    ce49:	48 89 85 c0 f8 ff ff 	mov    %rax,-0x740(%rbp)
    ce50:	48 8d 85 18 f0 ff ff 	lea    -0xfe8(%rbp),%rax
    ce57:	48 89 85 c8 f8 ff ff 	mov    %rax,-0x738(%rbp)
    ce5e:	48 8d 85 18 f0 ff ff 	lea    -0xfe8(%rbp),%rax
    ce65:	48 89 85 d0 f8 ff ff 	mov    %rax,-0x730(%rbp)
    ce6c:	48 8d 05 3d b2 00 00 	lea    0xb23d(%rip),%rax        # 180b0 <g_527>
    ce73:	48 89 85 d8 f8 ff ff 	mov    %rax,-0x728(%rbp)
    ce7a:	48 8d 85 18 f0 ff ff 	lea    -0xfe8(%rbp),%rax
    ce81:	48 89 85 e0 f8 ff ff 	mov    %rax,-0x720(%rbp)
    ce88:	48 8d 05 19 b2 00 00 	lea    0xb219(%rip),%rax        # 180a8 <g_484>
    ce8f:	48 89 85 e8 f8 ff ff 	mov    %rax,-0x718(%rbp)
    ce96:	48 8d 85 18 f0 ff ff 	lea    -0xfe8(%rbp),%rax
    ce9d:	48 89 85 f0 f8 ff ff 	mov    %rax,-0x710(%rbp)
    cea4:	48 8d 85 18 f0 ff ff 	lea    -0xfe8(%rbp),%rax
    ceab:	48 89 85 f8 f8 ff ff 	mov    %rax,-0x708(%rbp)
    ceb2:	48 8d 85 18 f0 ff ff 	lea    -0xfe8(%rbp),%rax
    ceb9:	48 89 85 00 f9 ff ff 	mov    %rax,-0x700(%rbp)
    cec0:	48 8d 05 e1 b1 00 00 	lea    0xb1e1(%rip),%rax        # 180a8 <g_484>
    cec7:	48 89 85 08 f9 ff ff 	mov    %rax,-0x6f8(%rbp)
    cece:	48 8d 05 5b b1 00 00 	lea    0xb15b(%rip),%rax        # 18030 <g_36>
    ced5:	48 89 85 10 f9 ff ff 	mov    %rax,-0x6f0(%rbp)
    cedc:	48 8d 05 c5 b1 00 00 	lea    0xb1c5(%rip),%rax        # 180a8 <g_484>
    cee3:	48 89 85 18 f9 ff ff 	mov    %rax,-0x6e8(%rbp)
    ceea:	48 8d 05 b7 b1 00 00 	lea    0xb1b7(%rip),%rax        # 180a8 <g_484>
    cef1:	48 89 85 20 f9 ff ff 	mov    %rax,-0x6e0(%rbp)
    cef8:	48 8d 05 b1 b1 00 00 	lea    0xb1b1(%rip),%rax        # 180b0 <g_527>
    ceff:	48 89 85 28 f9 ff ff 	mov    %rax,-0x6d8(%rbp)
    cf06:	48 8d 85 18 f0 ff ff 	lea    -0xfe8(%rbp),%rax
    cf0d:	48 89 85 30 f9 ff ff 	mov    %rax,-0x6d0(%rbp)
    cf14:	48 8d 85 18 f0 ff ff 	lea    -0xfe8(%rbp),%rax
    cf1b:	48 89 85 38 f9 ff ff 	mov    %rax,-0x6c8(%rbp)
    cf22:	48 8d 05 7f b1 00 00 	lea    0xb17f(%rip),%rax        # 180a8 <g_484>
    cf29:	48 89 85 40 f9 ff ff 	mov    %rax,-0x6c0(%rbp)
    cf30:	48 8d 05 71 b1 00 00 	lea    0xb171(%rip),%rax        # 180a8 <g_484>
    cf37:	48 89 85 48 f9 ff ff 	mov    %rax,-0x6b8(%rbp)
    cf3e:	48 c7 85 50 f9 ff ff 	movq   $0x0,-0x6b0(%rbp)
    cf45:	00 00 00 00 
    cf49:	48 8d 85 18 f0 ff ff 	lea    -0xfe8(%rbp),%rax
    cf50:	48 89 85 58 f9 ff ff 	mov    %rax,-0x6a8(%rbp)
    cf57:	48 8d 05 4a b1 00 00 	lea    0xb14a(%rip),%rax        # 180a8 <g_484>
    cf5e:	48 89 85 60 f9 ff ff 	mov    %rax,-0x6a0(%rbp)
    cf65:	48 c7 85 68 f9 ff ff 	movq   $0x0,-0x698(%rbp)
    cf6c:	00 00 00 00 
    cf70:	48 8d 85 18 f0 ff ff 	lea    -0xfe8(%rbp),%rax
    cf77:	48 89 85 70 f9 ff ff 	mov    %rax,-0x690(%rbp)
    cf7e:	48 8d 05 2b b1 00 00 	lea    0xb12b(%rip),%rax        # 180b0 <g_527>
    cf85:	48 89 85 78 f9 ff ff 	mov    %rax,-0x688(%rbp)
    cf8c:	48 8d 05 15 b1 00 00 	lea    0xb115(%rip),%rax        # 180a8 <g_484>
    cf93:	48 89 85 80 f9 ff ff 	mov    %rax,-0x680(%rbp)
    cf9a:	48 8d 85 18 f0 ff ff 	lea    -0xfe8(%rbp),%rax
    cfa1:	48 89 85 88 f9 ff ff 	mov    %rax,-0x678(%rbp)
    cfa8:	48 c7 85 90 f9 ff ff 	movq   $0x0,-0x670(%rbp)
    cfaf:	00 00 00 00 
    cfb3:	48 8d 05 ee b0 00 00 	lea    0xb0ee(%rip),%rax        # 180a8 <g_484>
    cfba:	48 89 85 98 f9 ff ff 	mov    %rax,-0x668(%rbp)
    cfc1:	48 8d 05 e0 b0 00 00 	lea    0xb0e0(%rip),%rax        # 180a8 <g_484>
    cfc8:	48 89 85 a0 f9 ff ff 	mov    %rax,-0x660(%rbp)
    cfcf:	48 8d 05 da b0 00 00 	lea    0xb0da(%rip),%rax        # 180b0 <g_527>
    cfd6:	48 89 85 a8 f9 ff ff 	mov    %rax,-0x658(%rbp)
    cfdd:	48 8d 85 18 f0 ff ff 	lea    -0xfe8(%rbp),%rax
    cfe4:	48 89 85 b0 f9 ff ff 	mov    %rax,-0x650(%rbp)
    cfeb:	48 c7 85 b8 f9 ff ff 	movq   $0x0,-0x648(%rbp)
    cff2:	00 00 00 00 
    cff6:	48 8d 05 ab b0 00 00 	lea    0xb0ab(%rip),%rax        # 180a8 <g_484>
    cffd:	48 89 85 c0 f9 ff ff 	mov    %rax,-0x640(%rbp)
    d004:	48 8d 85 18 f0 ff ff 	lea    -0xfe8(%rbp),%rax
    d00b:	48 89 85 c8 f9 ff ff 	mov    %rax,-0x638(%rbp)
    d012:	48 8d 05 17 b0 00 00 	lea    0xb017(%rip),%rax        # 18030 <g_36>
    d019:	48 89 85 d0 f9 ff ff 	mov    %rax,-0x630(%rbp)
    d020:	48 c7 85 d8 f9 ff ff 	movq   $0x0,-0x628(%rbp)
    d027:	00 00 00 00 
    d02b:	48 8d 85 18 f0 ff ff 	lea    -0xfe8(%rbp),%rax
    d032:	48 89 85 e0 f9 ff ff 	mov    %rax,-0x620(%rbp)
    d039:	48 8d 85 18 f0 ff ff 	lea    -0xfe8(%rbp),%rax
    d040:	48 89 85 e8 f9 ff ff 	mov    %rax,-0x618(%rbp)
    d047:	48 8d 85 18 f0 ff ff 	lea    -0xfe8(%rbp),%rax
    d04e:	48 89 85 f0 f9 ff ff 	mov    %rax,-0x610(%rbp)
    d055:	48 8d 85 18 f0 ff ff 	lea    -0xfe8(%rbp),%rax
    d05c:	48 89 85 f8 f9 ff ff 	mov    %rax,-0x608(%rbp)
    d063:	48 8d 85 18 f0 ff ff 	lea    -0xfe8(%rbp),%rax
    d06a:	48 89 85 00 fa ff ff 	mov    %rax,-0x600(%rbp)
    d071:	48 8d 05 30 b0 00 00 	lea    0xb030(%rip),%rax        # 180a8 <g_484>
    d078:	48 89 85 08 fa ff ff 	mov    %rax,-0x5f8(%rbp)
    d07f:	48 8d 85 18 f0 ff ff 	lea    -0xfe8(%rbp),%rax
    d086:	48 89 85 10 fa ff ff 	mov    %rax,-0x5f0(%rbp)
    d08d:	48 8d 85 18 f0 ff ff 	lea    -0xfe8(%rbp),%rax
    d094:	48 89 85 18 fa ff ff 	mov    %rax,-0x5e8(%rbp)
    d09b:	48 8d 05 0e b0 00 00 	lea    0xb00e(%rip),%rax        # 180b0 <g_527>
    d0a2:	48 89 85 20 fa ff ff 	mov    %rax,-0x5e0(%rbp)
    d0a9:	48 8d 85 18 f0 ff ff 	lea    -0xfe8(%rbp),%rax
    d0b0:	48 89 85 28 fa ff ff 	mov    %rax,-0x5d8(%rbp)
    d0b7:	48 8d 05 72 af 00 00 	lea    0xaf72(%rip),%rax        # 18030 <g_36>
    d0be:	48 89 85 30 fa ff ff 	mov    %rax,-0x5d0(%rbp)
    d0c5:	48 8d 05 dc af 00 00 	lea    0xafdc(%rip),%rax        # 180a8 <g_484>
    d0cc:	48 89 85 38 fa ff ff 	mov    %rax,-0x5c8(%rbp)
    d0d3:	48 8d 05 ce af 00 00 	lea    0xafce(%rip),%rax        # 180a8 <g_484>
    d0da:	48 89 85 40 fa ff ff 	mov    %rax,-0x5c0(%rbp)
    d0e1:	48 8d 05 c8 af 00 00 	lea    0xafc8(%rip),%rax        # 180b0 <g_527>
    d0e8:	48 89 85 48 fa ff ff 	mov    %rax,-0x5b8(%rbp)
    d0ef:	48 8d 05 3a af 00 00 	lea    0xaf3a(%rip),%rax        # 18030 <g_36>
    d0f6:	48 89 85 50 fa ff ff 	mov    %rax,-0x5b0(%rbp)
    d0fd:	48 8d 05 a4 af 00 00 	lea    0xafa4(%rip),%rax        # 180a8 <g_484>
    d104:	48 89 85 58 fa ff ff 	mov    %rax,-0x5a8(%rbp)
    d10b:	48 8d 05 96 af 00 00 	lea    0xaf96(%rip),%rax        # 180a8 <g_484>
    d112:	48 89 85 60 fa ff ff 	mov    %rax,-0x5a0(%rbp)
    d119:	48 8d 85 18 f0 ff ff 	lea    -0xfe8(%rbp),%rax
    d120:	48 89 85 68 fa ff ff 	mov    %rax,-0x598(%rbp)
    d127:	48 c7 85 70 fa ff ff 	movq   $0x0,-0x590(%rbp)
    d12e:	00 00 00 00 
    d132:	48 8d 85 18 f0 ff ff 	lea    -0xfe8(%rbp),%rax
    d139:	48 89 85 78 fa ff ff 	mov    %rax,-0x588(%rbp)
    d140:	48 c7 85 80 fa ff ff 	movq   $0x0,-0x580(%rbp)
    d147:	00 00 00 00 
    d14b:	48 8d 05 56 af 00 00 	lea    0xaf56(%rip),%rax        # 180a8 <g_484>
    d152:	48 89 85 88 fa ff ff 	mov    %rax,-0x578(%rbp)
    d159:	48 8d 85 18 f0 ff ff 	lea    -0xfe8(%rbp),%rax
    d160:	48 89 85 90 fa ff ff 	mov    %rax,-0x570(%rbp)
    d167:	48 8d 85 18 f0 ff ff 	lea    -0xfe8(%rbp),%rax
    d16e:	48 89 85 98 fa ff ff 	mov    %rax,-0x568(%rbp)
    d175:	48 8d 05 2c af 00 00 	lea    0xaf2c(%rip),%rax        # 180a8 <g_484>
    d17c:	48 89 85 a0 fa ff ff 	mov    %rax,-0x560(%rbp)
    d183:	48 8d 85 18 f0 ff ff 	lea    -0xfe8(%rbp),%rax
    d18a:	48 89 85 a8 fa ff ff 	mov    %rax,-0x558(%rbp)
    d191:	48 8d 85 18 f0 ff ff 	lea    -0xfe8(%rbp),%rax
    d198:	48 89 85 b0 fa ff ff 	mov    %rax,-0x550(%rbp)
    d19f:	48 c7 85 b8 fa ff ff 	movq   $0x0,-0x548(%rbp)
    d1a6:	00 00 00 00 
    d1aa:	48 8d 05 f7 ae 00 00 	lea    0xaef7(%rip),%rax        # 180a8 <g_484>
    d1b1:	48 89 85 c0 fa ff ff 	mov    %rax,-0x540(%rbp)
    d1b8:	48 8d 85 18 f0 ff ff 	lea    -0xfe8(%rbp),%rax
    d1bf:	48 89 85 c8 fa ff ff 	mov    %rax,-0x538(%rbp)
    d1c6:	48 8d 05 db ae 00 00 	lea    0xaedb(%rip),%rax        # 180a8 <g_484>
    d1cd:	48 89 85 d0 fa ff ff 	mov    %rax,-0x530(%rbp)
    d1d4:	48 c7 85 d8 fa ff ff 	movq   $0x0,-0x528(%rbp)
    d1db:	00 00 00 00 
    d1df:	48 8d 85 18 f0 ff ff 	lea    -0xfe8(%rbp),%rax
    d1e6:	48 89 85 e0 fa ff ff 	mov    %rax,-0x520(%rbp)
    d1ed:	48 8d 05 bc ae 00 00 	lea    0xaebc(%rip),%rax        # 180b0 <g_527>
    d1f4:	48 89 85 e8 fa ff ff 	mov    %rax,-0x518(%rbp)
    d1fb:	48 8d 05 2e ae 00 00 	lea    0xae2e(%rip),%rax        # 18030 <g_36>
    d202:	48 89 85 f0 fa ff ff 	mov    %rax,-0x510(%rbp)
    d209:	48 8d 05 98 ae 00 00 	lea    0xae98(%rip),%rax        # 180a8 <g_484>
    d210:	48 89 85 f8 fa ff ff 	mov    %rax,-0x508(%rbp)
    d217:	48 8d 05 92 ae 00 00 	lea    0xae92(%rip),%rax        # 180b0 <g_527>
    d21e:	48 89 85 00 fb ff ff 	mov    %rax,-0x500(%rbp)
    d225:	48 8d 85 18 f0 ff ff 	lea    -0xfe8(%rbp),%rax
    d22c:	48 89 85 08 fb ff ff 	mov    %rax,-0x4f8(%rbp)
    d233:	48 8d 05 76 ae 00 00 	lea    0xae76(%rip),%rax        # 180b0 <g_527>
    d23a:	48 89 85 10 fb ff ff 	mov    %rax,-0x4f0(%rbp)
    d241:	48 8d 05 68 ae 00 00 	lea    0xae68(%rip),%rax        # 180b0 <g_527>
    d248:	48 89 85 18 fb ff ff 	mov    %rax,-0x4e8(%rbp)
    d24f:	48 8d 85 18 f0 ff ff 	lea    -0xfe8(%rbp),%rax
    d256:	48 89 85 20 fb ff ff 	mov    %rax,-0x4e0(%rbp)
    d25d:	48 c7 85 28 fb ff ff 	movq   $0x0,-0x4d8(%rbp)
    d264:	00 00 00 00 
    d268:	48 8d 05 41 ae 00 00 	lea    0xae41(%rip),%rax        # 180b0 <g_527>
    d26f:	48 89 85 30 fb ff ff 	mov    %rax,-0x4d0(%rbp)
    d276:	48 8d 85 18 f0 ff ff 	lea    -0xfe8(%rbp),%rax
    d27d:	48 89 85 38 fb ff ff 	mov    %rax,-0x4c8(%rbp)
    d284:	48 8d 05 25 ae 00 00 	lea    0xae25(%rip),%rax        # 180b0 <g_527>
    d28b:	48 89 85 40 fb ff ff 	mov    %rax,-0x4c0(%rbp)
    d292:	48 8d 05 0f ae 00 00 	lea    0xae0f(%rip),%rax        # 180a8 <g_484>
    d299:	48 89 85 48 fb ff ff 	mov    %rax,-0x4b8(%rbp)
    d2a0:	48 8d 05 89 ad 00 00 	lea    0xad89(%rip),%rax        # 18030 <g_36>
    d2a7:	48 89 85 50 fb ff ff 	mov    %rax,-0x4b0(%rbp)
    d2ae:	48 8d 85 18 f0 ff ff 	lea    -0xfe8(%rbp),%rax
    d2b5:	48 89 85 58 fb ff ff 	mov    %rax,-0x4a8(%rbp)
    d2bc:	48 8d 85 18 f0 ff ff 	lea    -0xfe8(%rbp),%rax
    d2c3:	48 89 85 60 fb ff ff 	mov    %rax,-0x4a0(%rbp)
    d2ca:	48 8d 05 df ad 00 00 	lea    0xaddf(%rip),%rax        # 180b0 <g_527>
    d2d1:	48 89 85 68 fb ff ff 	mov    %rax,-0x498(%rbp)
    d2d8:	48 8d 05 c9 ad 00 00 	lea    0xadc9(%rip),%rax        # 180a8 <g_484>
    d2df:	48 89 85 70 fb ff ff 	mov    %rax,-0x490(%rbp)
    d2e6:	48 c7 85 78 fb ff ff 	movq   $0x0,-0x488(%rbp)
    d2ed:	00 00 00 00 
    d2f1:	48 8d 05 b0 ad 00 00 	lea    0xadb0(%rip),%rax        # 180a8 <g_484>
    d2f8:	48 89 85 80 fb ff ff 	mov    %rax,-0x480(%rbp)
    d2ff:	48 c7 85 88 fb ff ff 	movq   $0x0,-0x478(%rbp)
    d306:	00 00 00 00 
    d30a:	48 8d 05 1f ad 00 00 	lea    0xad1f(%rip),%rax        # 18030 <g_36>
    d311:	48 89 85 90 fb ff ff 	mov    %rax,-0x470(%rbp)
    d318:	48 8d 05 11 ad 00 00 	lea    0xad11(%rip),%rax        # 18030 <g_36>
    d31f:	48 89 85 98 fb ff ff 	mov    %rax,-0x468(%rbp)
    d326:	48 8d 05 03 ad 00 00 	lea    0xad03(%rip),%rax        # 18030 <g_36>
    d32d:	48 89 85 a0 fb ff ff 	mov    %rax,-0x460(%rbp)
    d334:	48 8d 05 f5 ac 00 00 	lea    0xacf5(%rip),%rax        # 18030 <g_36>
    d33b:	48 89 85 a8 fb ff ff 	mov    %rax,-0x458(%rbp)
    d342:	48 c7 85 b0 fb ff ff 	movq   $0x0,-0x450(%rbp)
    d349:	00 00 00 00 
    d34d:	48 8d 85 18 f0 ff ff 	lea    -0xfe8(%rbp),%rax
    d354:	48 89 85 b8 fb ff ff 	mov    %rax,-0x448(%rbp)
    d35b:	48 8d 85 18 f0 ff ff 	lea    -0xfe8(%rbp),%rax
    d362:	48 89 85 c0 fb ff ff 	mov    %rax,-0x440(%rbp)
    d369:	48 8d 05 38 ad 00 00 	lea    0xad38(%rip),%rax        # 180a8 <g_484>
    d370:	48 89 85 c8 fb ff ff 	mov    %rax,-0x438(%rbp)
    d377:	48 8d 05 b2 ac 00 00 	lea    0xacb2(%rip),%rax        # 18030 <g_36>
    d37e:	48 89 85 d0 fb ff ff 	mov    %rax,-0x430(%rbp)
    d385:	48 8d 05 1c ad 00 00 	lea    0xad1c(%rip),%rax        # 180a8 <g_484>
    d38c:	48 89 85 d8 fb ff ff 	mov    %rax,-0x428(%rbp)
    d393:	48 8d 05 0e ad 00 00 	lea    0xad0e(%rip),%rax        # 180a8 <g_484>
    d39a:	48 89 85 e0 fb ff ff 	mov    %rax,-0x420(%rbp)
    d3a1:	48 8d 85 18 f0 ff ff 	lea    -0xfe8(%rbp),%rax
    d3a8:	48 89 85 e8 fb ff ff 	mov    %rax,-0x418(%rbp)
    d3af:	48 8d 05 f2 ac 00 00 	lea    0xacf2(%rip),%rax        # 180a8 <g_484>
    d3b6:	48 89 85 f0 fb ff ff 	mov    %rax,-0x410(%rbp)
    d3bd:	48 8d 05 6c ac 00 00 	lea    0xac6c(%rip),%rax        # 18030 <g_36>
    d3c4:	48 89 85 f8 fb ff ff 	mov    %rax,-0x408(%rbp)
    d3cb:	48 c7 85 00 fc ff ff 	movq   $0x0,-0x400(%rbp)
    d3d2:	00 00 00 00 
    d3d6:	48 8d 85 18 f0 ff ff 	lea    -0xfe8(%rbp),%rax
    d3dd:	48 89 85 08 fc ff ff 	mov    %rax,-0x3f8(%rbp)
    d3e4:	48 8d 05 bd ac 00 00 	lea    0xacbd(%rip),%rax        # 180a8 <g_484>
    d3eb:	48 89 85 10 fc ff ff 	mov    %rax,-0x3f0(%rbp)
    d3f2:	48 8d 05 af ac 00 00 	lea    0xacaf(%rip),%rax        # 180a8 <g_484>
    d3f9:	48 89 85 18 fc ff ff 	mov    %rax,-0x3e8(%rbp)
    d400:	48 8d 85 18 f0 ff ff 	lea    -0xfe8(%rbp),%rax
    d407:	48 89 85 20 fc ff ff 	mov    %rax,-0x3e0(%rbp)
    d40e:	48 8d 05 93 ac 00 00 	lea    0xac93(%rip),%rax        # 180a8 <g_484>
    d415:	48 89 85 28 fc ff ff 	mov    %rax,-0x3d8(%rbp)
    d41c:	48 8d 85 18 f0 ff ff 	lea    -0xfe8(%rbp),%rax
    d423:	48 89 85 30 fc ff ff 	mov    %rax,-0x3d0(%rbp)
    d42a:	48 8d 85 18 f0 ff ff 	lea    -0xfe8(%rbp),%rax
    d431:	48 89 85 38 fc ff ff 	mov    %rax,-0x3c8(%rbp)
    d438:	48 8d 85 18 f0 ff ff 	lea    -0xfe8(%rbp),%rax
    d43f:	48 89 85 40 fc ff ff 	mov    %rax,-0x3c0(%rbp)
    d446:	48 8d 05 e3 ab 00 00 	lea    0xabe3(%rip),%rax        # 18030 <g_36>
    d44d:	48 89 85 48 fc ff ff 	mov    %rax,-0x3b8(%rbp)
    d454:	48 8d 05 4d ac 00 00 	lea    0xac4d(%rip),%rax        # 180a8 <g_484>
    d45b:	48 89 85 50 fc ff ff 	mov    %rax,-0x3b0(%rbp)
    d462:	48 8d 05 c7 ab 00 00 	lea    0xabc7(%rip),%rax        # 18030 <g_36>
    d469:	48 89 85 58 fc ff ff 	mov    %rax,-0x3a8(%rbp)
    d470:	48 8d 85 18 f0 ff ff 	lea    -0xfe8(%rbp),%rax
    d477:	48 89 85 60 fc ff ff 	mov    %rax,-0x3a0(%rbp)
    d47e:	48 c7 85 68 fc ff ff 	movq   $0x0,-0x398(%rbp)
    d485:	00 00 00 00 
    d489:	48 8d 05 18 ac 00 00 	lea    0xac18(%rip),%rax        # 180a8 <g_484>
    d490:	48 89 85 70 fc ff ff 	mov    %rax,-0x390(%rbp)
    d497:	48 c7 85 78 fc ff ff 	movq   $0x0,-0x388(%rbp)
    d49e:	00 00 00 00 
    d4a2:	48 8d 85 18 f0 ff ff 	lea    -0xfe8(%rbp),%rax
    d4a9:	48 89 85 80 fc ff ff 	mov    %rax,-0x380(%rbp)
    d4b0:	48 8d 05 79 ab 00 00 	lea    0xab79(%rip),%rax        # 18030 <g_36>
    d4b7:	48 89 85 88 fc ff ff 	mov    %rax,-0x378(%rbp)
    d4be:	48 8d 85 18 f0 ff ff 	lea    -0xfe8(%rbp),%rax
    d4c5:	48 89 85 90 fc ff ff 	mov    %rax,-0x370(%rbp)
    d4cc:	48 c7 85 98 fc ff ff 	movq   $0x0,-0x368(%rbp)
    d4d3:	00 00 00 00 
    d4d7:	48 8d 05 ca ab 00 00 	lea    0xabca(%rip),%rax        # 180a8 <g_484>
    d4de:	48 89 85 a0 fc ff ff 	mov    %rax,-0x360(%rbp)
    d4e5:	48 8d 85 18 f0 ff ff 	lea    -0xfe8(%rbp),%rax
    d4ec:	48 89 85 a8 fc ff ff 	mov    %rax,-0x358(%rbp)
    d4f3:	48 8d 05 b6 ab 00 00 	lea    0xabb6(%rip),%rax        # 180b0 <g_527>
    d4fa:	48 89 85 b0 fc ff ff 	mov    %rax,-0x350(%rbp)
    d501:	48 8d 05 28 ab 00 00 	lea    0xab28(%rip),%rax        # 18030 <g_36>
    d508:	48 89 85 b8 fc ff ff 	mov    %rax,-0x348(%rbp)
    d50f:	48 8d 05 92 ab 00 00 	lea    0xab92(%rip),%rax        # 180a8 <g_484>
    d516:	48 89 85 c0 fc ff ff 	mov    %rax,-0x340(%rbp)
    d51d:	48 8d 85 18 f0 ff ff 	lea    -0xfe8(%rbp),%rax
    d524:	48 89 85 c8 fc ff ff 	mov    %rax,-0x338(%rbp)
    d52b:	48 c7 85 d0 fc ff ff 	movq   $0x0,-0x330(%rbp)
    d532:	00 00 00 00 
    d536:	48 8d 05 73 ab 00 00 	lea    0xab73(%rip),%rax        # 180b0 <g_527>
    d53d:	48 89 85 d8 fc ff ff 	mov    %rax,-0x328(%rbp)
    d544:	48 8d 05 5d ab 00 00 	lea    0xab5d(%rip),%rax        # 180a8 <g_484>
    d54b:	48 89 85 e0 fc ff ff 	mov    %rax,-0x320(%rbp)
    d552:	48 8d 05 4f ab 00 00 	lea    0xab4f(%rip),%rax        # 180a8 <g_484>
    d559:	48 89 85 e8 fc ff ff 	mov    %rax,-0x318(%rbp)
    d560:	48 8d 05 49 ab 00 00 	lea    0xab49(%rip),%rax        # 180b0 <g_527>
    d567:	48 89 85 f0 fc ff ff 	mov    %rax,-0x310(%rbp)
    d56e:	48 8d 05 bb aa 00 00 	lea    0xaabb(%rip),%rax        # 18030 <g_36>
    d575:	48 89 85 f8 fc ff ff 	mov    %rax,-0x308(%rbp)
    d57c:	48 8d 05 25 ab 00 00 	lea    0xab25(%rip),%rax        # 180a8 <g_484>
    d583:	48 89 85 00 fd ff ff 	mov    %rax,-0x300(%rbp)
    d58a:	48 8d 05 1f ab 00 00 	lea    0xab1f(%rip),%rax        # 180b0 <g_527>
    d591:	48 89 85 08 fd ff ff 	mov    %rax,-0x2f8(%rbp)
    d598:	48 8d 85 18 f0 ff ff 	lea    -0xfe8(%rbp),%rax
    d59f:	48 89 85 10 fd ff ff 	mov    %rax,-0x2f0(%rbp)
    d5a6:	48 8d 05 83 aa 00 00 	lea    0xaa83(%rip),%rax        # 18030 <g_36>
    d5ad:	48 89 85 18 fd ff ff 	mov    %rax,-0x2e8(%rbp)
    d5b4:	48 8d 85 18 f0 ff ff 	lea    -0xfe8(%rbp),%rax
    d5bb:	48 89 85 20 fd ff ff 	mov    %rax,-0x2e0(%rbp)
    d5c2:	48 8d 85 18 f0 ff ff 	lea    -0xfe8(%rbp),%rax
    d5c9:	48 89 85 28 fd ff ff 	mov    %rax,-0x2d8(%rbp)
    d5d0:	48 8d 05 d1 aa 00 00 	lea    0xaad1(%rip),%rax        # 180a8 <g_484>
    d5d7:	48 89 85 30 fd ff ff 	mov    %rax,-0x2d0(%rbp)
    d5de:	48 8d 85 18 f0 ff ff 	lea    -0xfe8(%rbp),%rax
    d5e5:	48 89 85 38 fd ff ff 	mov    %rax,-0x2c8(%rbp)
    d5ec:	48 c7 85 88 f0 ff ff 	movq   $0x0,-0xf78(%rbp)
    d5f3:	00 00 00 00 
    d5f7:	48 8d 85 54 ef ff ff 	lea    -0x10ac(%rbp),%rax
    d5fe:	48 89 85 b0 f5 ff ff 	mov    %rax,-0xa50(%rbp)
    d605:	48 8d 85 54 ef ff ff 	lea    -0x10ac(%rbp),%rax
    d60c:	48 89 85 b8 f5 ff ff 	mov    %rax,-0xa48(%rbp)
    d613:	48 8d 85 54 ef ff ff 	lea    -0x10ac(%rbp),%rax
    d61a:	48 89 85 c0 f5 ff ff 	mov    %rax,-0xa40(%rbp)
    d621:	48 8d 85 54 ef ff ff 	lea    -0x10ac(%rbp),%rax
    d628:	48 89 85 c8 f5 ff ff 	mov    %rax,-0xa38(%rbp)
    d62f:	48 8d 85 54 ef ff ff 	lea    -0x10ac(%rbp),%rax
    d636:	48 89 85 d0 f5 ff ff 	mov    %rax,-0xa30(%rbp)
    d63d:	48 8b 85 18 f0 ff ff 	mov    -0xfe8(%rbp),%rax
    d644:	89 c3                	mov    %eax,%ebx
    d646:	48 8b 85 18 f0 ff ff 	mov    -0xfe8(%rbp),%rax
    d64d:	48 89 85 80 f0 ff ff 	mov    %rax,-0xf80(%rbp)
    d654:	48 8b 05 a5 c7 00 00 	mov    0xc7a5(%rip),%rax        # 19e00 <g_406>
    d65b:	48 8b 00             	mov    (%rax),%rax
    d65e:	48 8b 00             	mov    (%rax),%rax
    d661:	48 8b 00             	mov    (%rax),%rax
    d664:	48 85 c0             	test   %rax,%rax
    d667:	0f 84 8b 00 00 00    	je     d6f8 <func_18+0xf5f>
    d66d:	48 8b 95 80 f0 ff ff 	mov    -0xf80(%rbp),%rdx
    d674:	48 8b 85 58 f0 ff ff 	mov    -0xfa8(%rbp),%rax
    d67b:	66 c7 00 01 00       	movw   $0x1,(%rax)
    d680:	48 8b 85 58 f0 ff ff 	mov    -0xfa8(%rbp),%rax
    d687:	0f b7 00             	movzwl (%rax),%eax
    d68a:	0f b7 c8             	movzwl %ax,%ecx
    d68d:	0f b7 05 36 aa 00 00 	movzwl 0xaa36(%rip),%eax        # 180ca <g_1002>
    d694:	98                   	cwtl   
    d695:	39 c1                	cmp    %eax,%ecx
    d697:	0f 9c c0             	setl   %al
    d69a:	0f b6 c8             	movzbl %al,%ecx
    d69d:	48 8b 05 a4 c3 00 00 	mov    0xc3a4(%rip),%rax        # 19a48 <g_98>
    d6a4:	48 8b 00             	mov    (%rax),%rax
    d6a7:	48 8b 30             	mov    (%rax),%rsi
    d6aa:	48 63 c9             	movslq %ecx,%rcx
    d6ad:	48 8b 05 94 c3 00 00 	mov    0xc394(%rip),%rax        # 19a48 <g_98>
    d6b4:	48 8b 00             	mov    (%rax),%rax
    d6b7:	48 31 f1             	xor    %rsi,%rcx
    d6ba:	48 89 08             	mov    %rcx,(%rax)
    d6bd:	8b 05 b5 a9 00 00    	mov    0xa9b5(%rip),%eax        # 18078 <g_104+0x8>
    d6c3:	39 85 7c ef ff ff    	cmp    %eax,-0x1084(%rbp)
    d6c9:	48 8b 05 28 c7 00 00 	mov    0xc728(%rip),%rax        # 19df8 <g_407>
    d6d0:	48 8b 00             	mov    (%rax),%rax
    d6d3:	48 8b 00             	mov    (%rax),%rax
    d6d6:	48 89 d6             	mov    %rdx,%rsi
    d6d9:	48 89 c7             	mov    %rax,%rdi
    d6dc:	e8 ce c9 ff ff       	callq  a0af <safe_div_func_uint64_t_u_u>
    d6e1:	48 8b 15 88 d6 00 00 	mov    0xd688(%rip),%rdx        # 1ad70 <g_556>
    d6e8:	48 8b 12             	mov    (%rdx),%rdx
    d6eb:	0f b6 12             	movzbl (%rdx),%edx
    d6ee:	48 0f be d2          	movsbq %dl,%rdx
    d6f2:	48 21 d0             	and    %rdx,%rax
    d6f5:	48 85 c0             	test   %rax,%rax
    d6f8:	b8 00 00 00 00       	mov    $0x0,%eax
    d6fd:	48 63 d0             	movslq %eax,%rdx
    d700:	48 8b 05 f9 e0 00 00 	mov    0xe0f9(%rip),%rax        # 1b800 <g_137>
    d707:	48 09 d0             	or     %rdx,%rax
    d70a:	48 89 05 ef e0 00 00 	mov    %rax,0xe0ef(%rip)        # 1b800 <g_137>
    d711:	0f b7 85 4e ef ff ff 	movzwl -0x10b2(%rbp),%eax
    d718:	48 0f bf d0          	movswq %ax,%rdx
    d71c:	48 8b 05 8d a9 00 00 	mov    0xa98d(%rip),%rax        # 180b0 <g_527>
    d723:	48 21 d0             	and    %rdx,%rax
    d726:	48 89 05 83 a9 00 00 	mov    %rax,0xa983(%rip)        # 180b0 <g_527>
    d72d:	48 8b 15 7c a9 00 00 	mov    0xa97c(%rip),%rdx        # 180b0 <g_527>
    d734:	48 8b 85 18 f0 ff ff 	mov    -0xfe8(%rbp),%rax
    d73b:	48 89 d6             	mov    %rdx,%rsi
    d73e:	48 89 c7             	mov    %rax,%rdi
    d741:	e8 69 c9 ff ff       	callq  a0af <safe_div_func_uint64_t_u_u>
    d746:	be 02 00 00 00       	mov    $0x2,%esi
    d74b:	bf 00 00 00 00       	mov    $0x0,%edi
    d750:	e8 69 c6 ff ff       	callq  9dbe <safe_lshift_func_uint16_t_u_s>
    d755:	48 8b 85 88 f0 ff ff 	mov    -0xf78(%rbp),%rax
    d75c:	48 3b 85 38 ef ff ff 	cmp    -0x10c8(%rbp),%rax
    d763:	0f b7 85 4e ef ff ff 	movzwl -0x10b2(%rbp),%eax
    d76a:	0f b6 c0             	movzbl %al,%eax
    d76d:	89 de                	mov    %ebx,%esi
    d76f:	89 c7                	mov    %eax,%edi
    d771:	e8 8f c4 ff ff       	callq  9c05 <safe_lshift_func_uint8_t_u_s>
    d776:	0f b6 c0             	movzbl %al,%eax
    d779:	89 c7                	mov    %eax,%edi
    d77b:	e8 69 c5 ff ff       	callq  9ce9 <safe_unary_minus_func_uint16_t_u>
    d780:	66 85 c0             	test   %ax,%ax
    d783:	74 07                	je     d78c <func_18+0xff3>
    d785:	ba 01 00 00 00       	mov    $0x1,%edx
    d78a:	eb 05                	jmp    d791 <func_18+0xff8>
    d78c:	ba 00 00 00 00       	mov    $0x0,%edx
    d791:	8b 85 10 f0 ff ff    	mov    -0xff0(%rbp),%eax
    d797:	21 d0                	and    %edx,%eax
    d799:	89 85 10 f0 ff ff    	mov    %eax,-0xff0(%rbp)
    d79f:	e9 5d 01 00 00       	jmpq   d901 <func_18+0x1168>
    d7a4:	48 c7 05 01 a9 00 00 	movq   $0x0,0xa901(%rip)        # 180b0 <g_527>
    d7ab:	00 00 00 00 
    d7af:	e9 3c 01 00 00       	jmpq   d8f0 <func_18+0x1157>
    d7b4:	48 8b 15 f5 a8 00 00 	mov    0xa8f5(%rip),%rdx        # 180b0 <g_527>
    d7bb:	8b 85 10 f0 ff ff    	mov    -0xff0(%rbp),%eax
    d7c1:	48 8d 0c 95 00 00 00 	lea    0x0(,%rdx,4),%rcx
    d7c8:	00 
    d7c9:	48 8d 15 70 a8 00 00 	lea    0xa870(%rip),%rdx        # 18040 <g_57>
    d7d0:	89 04 11             	mov    %eax,(%rcx,%rdx,1)
    d7d3:	66 c7 05 b4 a8 00 00 	movw   $0x5,0xa8b4(%rip)        # 18090 <g_191>
    d7da:	05 00 
    d7dc:	e9 ed 00 00 00       	jmpq   d8ce <func_18+0x1135>
    d7e1:	48 8d 05 a0 a8 00 00 	lea    0xa8a0(%rip),%rax        # 18088 <g_141>
    d7e8:	48 89 85 78 f0 ff ff 	mov    %rax,-0xf88(%rbp)
    d7ef:	48 8b 85 78 f0 ff ff 	mov    -0xf88(%rbp),%rax
    d7f6:	8b 10                	mov    (%rax),%edx
    d7f8:	0f b7 85 4e ef ff ff 	movzwl -0x10b2(%rbp),%eax
    d7ff:	0f bf c8             	movswl %ax,%ecx
    d802:	48 83 bd 60 f0 ff ff 	cmpq   $0x0,-0xfa0(%rbp)
    d809:	00 
    d80a:	0f 94 c0             	sete   %al
    d80d:	0f b6 f0             	movzbl %al,%esi
    d810:	48 8b 05 99 a8 00 00 	mov    0xa899(%rip),%rax        # 180b0 <g_527>
    d817:	48 8d 3c 85 00 00 00 	lea    0x0(,%rax,4),%rdi
    d81e:	00 
    d81f:	48 8d 05 1a a8 00 00 	lea    0xa81a(%rip),%rax        # 18040 <g_57>
    d826:	8b 04 07             	mov    (%rdi,%rax,1),%eax
    d829:	39 c6                	cmp    %eax,%esi
    d82b:	0f 9e c0             	setle  %al
    d82e:	0f b6 c0             	movzbl %al,%eax
    d831:	39 c1                	cmp    %eax,%ecx
    d833:	0f 9f c0             	setg   %al
    d836:	0f b6 c0             	movzbl %al,%eax
    d839:	09 c2                	or     %eax,%edx
    d83b:	48 8b 85 78 f0 ff ff 	mov    -0xf88(%rbp),%rax
    d842:	89 10                	mov    %edx,(%rax)
    d844:	c6 05 35 a8 00 00 00 	movb   $0x0,0xa835(%rip)        # 18080 <g_119>
    d84b:	eb 2d                	jmp    d87a <func_18+0x10e1>
    d84d:	48 8b 85 78 f0 ff ff 	mov    -0xf88(%rbp),%rax
    d854:	8b 10                	mov    (%rax),%edx
    d856:	48 8b 85 30 ef ff ff 	mov    -0x10d0(%rbp),%rax
    d85d:	8b 00                	mov    (%rax),%eax
    d85f:	21 c2                	and    %eax,%edx
    d861:	48 8b 85 78 f0 ff ff 	mov    -0xf88(%rbp),%rax
    d868:	89 10                	mov    %edx,(%rax)
    d86a:	0f b6 05 0f a8 00 00 	movzbl 0xa80f(%rip),%eax        # 18080 <g_119>
    d871:	83 c0 01             	add    $0x1,%eax
    d874:	88 05 06 a8 00 00    	mov    %al,0xa806(%rip)        # 18080 <g_119>
    d87a:	0f b6 05 ff a7 00 00 	movzbl 0xa7ff(%rip),%eax        # 18080 <g_119>
    d881:	3c 02                	cmp    $0x2,%al
    d883:	7e c8                	jle    d84d <func_18+0x10b4>
    d885:	66 c7 85 4e ef ff ff 	movw   $0x0,-0x10b2(%rbp)
    d88c:	00 00 
    d88e:	eb 20                	jmp    d8b0 <func_18+0x1117>
    d890:	8b 05 f2 a7 00 00    	mov    0xa7f2(%rip),%eax        # 18088 <g_141>
    d896:	85 c0                	test   %eax,%eax
    d898:	74 05                	je     d89f <func_18+0x1106>
    d89a:	e9 49 f3 ff ff       	jmpq   cbe8 <func_18+0x44f>
    d89f:	0f b7 85 4e ef ff ff 	movzwl -0x10b2(%rbp),%eax
    d8a6:	83 c0 01             	add    $0x1,%eax
    d8a9:	66 89 85 4e ef ff ff 	mov    %ax,-0x10b2(%rbp)
    d8b0:	0f b7 85 4e ef ff ff 	movzwl -0x10b2(%rbp),%eax
    d8b7:	66 83 f8 02          	cmp    $0x2,%ax
    d8bb:	7e d3                	jle    d890 <func_18+0x10f7>
    d8bd:	0f b7 05 cc a7 00 00 	movzwl 0xa7cc(%rip),%eax        # 18090 <g_191>
    d8c4:	83 e8 01             	sub    $0x1,%eax
    d8c7:	66 89 05 c2 a7 00 00 	mov    %ax,0xa7c2(%rip)        # 18090 <g_191>
    d8ce:	0f b7 05 bb a7 00 00 	movzwl 0xa7bb(%rip),%eax        # 18090 <g_191>
    d8d5:	66 85 c0             	test   %ax,%ax
    d8d8:	0f 89 03 ff ff ff    	jns    d7e1 <func_18+0x1048>
    d8de:	48 8b 05 cb a7 00 00 	mov    0xa7cb(%rip),%rax        # 180b0 <g_527>
    d8e5:	48 83 c0 01          	add    $0x1,%rax
    d8e9:	48 89 05 c0 a7 00 00 	mov    %rax,0xa7c0(%rip)        # 180b0 <g_527>
    d8f0:	48 8b 05 b9 a7 00 00 	mov    0xa7b9(%rip),%rax        # 180b0 <g_527>
    d8f7:	48 83 f8 07          	cmp    $0x7,%rax
    d8fb:	0f 86 b3 fe ff ff    	jbe    d7b4 <func_18+0x101b>
    d901:	0f b6 05 70 a7 00 00 	movzbl 0xa770(%rip),%eax        # 18078 <g_104+0x8>
    d908:	0f be d0             	movsbl %al,%edx
    d90b:	8b 85 58 ef ff ff    	mov    -0x10a8(%rbp),%eax
    d911:	39 c2                	cmp    %eax,%edx
    d913:	0f 9e c0             	setle  %al
    d916:	0f b6 c0             	movzbl %al,%eax
    d919:	39 85 7c ef ff ff    	cmp    %eax,-0x1084(%rbp)
    d91f:	0f 97 c0             	seta   %al
    d922:	89 c2                	mov    %eax,%edx
    d924:	48 8b 85 20 f0 ff ff 	mov    -0xfe0(%rbp),%rax
    d92b:	88 10                	mov    %dl,(%rax)
    d92d:	8b 85 58 ef ff ff    	mov    -0x10a8(%rbp),%eax
    d933:	0f be d8             	movsbl %al,%ebx
    d936:	48 8b 85 18 f0 ff ff 	mov    -0xfe8(%rbp),%rax
    d93d:	48 85 c0             	test   %rax,%rax
    d940:	0f 95 c0             	setne  %al
    d943:	0f b6 c0             	movzbl %al,%eax
    d946:	89 c6                	mov    %eax,%esi
    d948:	bf 01 00 00 00       	mov    $0x1,%edi
    d94d:	e8 7a bd ff ff       	callq  96cc <safe_mod_func_int32_t_s_s>
    d952:	48 63 d0             	movslq %eax,%rdx
    d955:	48 8b 85 18 f0 ff ff 	mov    -0xfe8(%rbp),%rax
    d95c:	48 39 c2             	cmp    %rax,%rdx
    d95f:	0f 94 c0             	sete   %al
    d962:	0f b6 d0             	movzbl %al,%edx
    d965:	0f b7 05 20 a7 00 00 	movzwl 0xa720(%rip),%eax        # 1808c <g_176>
    d96c:	0f b7 c0             	movzwl %ax,%eax
    d96f:	39 c2                	cmp    %eax,%edx
    d971:	0f 9e c0             	setle  %al
    d974:	0f b6 d0             	movzbl %al,%edx
    d977:	8b 85 10 f0 ff ff    	mov    -0xff0(%rbp),%eax
    d97d:	39 c2                	cmp    %eax,%edx
    d97f:	0f 9f c0             	setg   %al
    d982:	89 c2                	mov    %eax,%edx
    d984:	8b 85 58 ef ff ff    	mov    -0x10a8(%rbp),%eax
    d98a:	21 d0                	and    %edx,%eax
    d98c:	0f be c0             	movsbl %al,%eax
    d98f:	89 de                	mov    %ebx,%esi
    d991:	89 c7                	mov    %eax,%edi
    d993:	e8 7a b8 ff ff       	callq  9212 <safe_mul_func_int8_t_s_s>
    d998:	84 c0                	test   %al,%al
    d99a:	74 13                	je     d9af <func_18+0x1216>
    d99c:	48 8b 85 18 f0 ff ff 	mov    -0xfe8(%rbp),%rax
    d9a3:	48 85 c0             	test   %rax,%rax
    d9a6:	74 07                	je     d9af <func_18+0x1216>
    d9a8:	b8 01 00 00 00       	mov    $0x1,%eax
    d9ad:	eb 05                	jmp    d9b4 <func_18+0x121b>
    d9af:	b8 00 00 00 00       	mov    $0x0,%eax
    d9b4:	0f be c0             	movsbl %al,%eax
    d9b7:	be 6a 00 00 00       	mov    $0x6a,%esi
    d9bc:	89 c7                	mov    %eax,%edi
    d9be:	e8 4f b8 ff ff       	callq  9212 <safe_mul_func_int8_t_s_s>
    d9c3:	48 8b 05 e6 d4 00 00 	mov    0xd4e6(%rip),%rax        # 1aeb0 <g_1019>
    d9ca:	48 8b 95 68 f0 ff ff 	mov    -0xf98(%rbp),%rdx
    d9d1:	48 89 10             	mov    %rdx,(%rax)
    d9d4:	48 c7 05 81 a6 00 00 	movq   $0x0,0xa681(%rip)        # 18060 <g_83>
    d9db:	00 00 00 00 
    d9df:	90                   	nop
    d9e0:	48 8b 05 79 a6 00 00 	mov    0xa679(%rip),%rax        # 18060 <g_83>
    d9e7:	48 85 c0             	test   %rax,%rax
    d9ea:	75 15                	jne    da01 <func_18+0x1268>
    d9ec:	c7 85 94 ef ff ff 06 	movl   $0x6,-0x106c(%rbp)
    d9f3:	00 00 00 
    d9f6:	8b 85 94 ef ff ff    	mov    -0x106c(%rbp),%eax
    d9fc:	e9 f1 21 00 00       	jmpq   fbf2 <func_18+0x3459>
    da01:	c7 05 7d a6 00 00 00 	movl   $0x0,0xa67d(%rip)        # 18088 <g_141>
    da08:	00 00 00 
    da0b:	e9 c1 00 00 00       	jmpq   dad1 <func_18+0x1338>
    da10:	c7 85 60 ef ff ff 00 	movl   $0x0,-0x10a0(%rbp)
    da17:	00 00 00 
    da1a:	eb 21                	jmp    da3d <func_18+0x12a4>
    da1c:	8b 85 60 ef ff ff    	mov    -0x10a0(%rbp),%eax
    da22:	48 98                	cltq   
    da24:	48 bb 2c 63 b7 68 73 	movabs $0xf101307368b7632c,%rbx
    da2b:	30 01 f1 
    da2e:	48 89 9c c5 40 f8 ff 	mov    %rbx,-0x7c0(%rbp,%rax,8)
    da35:	ff 
    da36:	83 85 60 ef ff ff 01 	addl   $0x1,-0x10a0(%rbp)
    da3d:	83 bd 60 ef ff ff 02 	cmpl   $0x2,-0x10a0(%rbp)
    da44:	7e d6                	jle    da1c <func_18+0x1283>
    da46:	8b 85 54 ef ff ff    	mov    -0x10ac(%rbp),%eax
    da4c:	85 c0                	test   %eax,%eax
    da4e:	0f 85 8e 00 00 00    	jne    dae2 <func_18+0x1349>
    da54:	48 8b 05 fd bf 00 00 	mov    0xbffd(%rip),%rax        # 19a58 <g_210>
    da5b:	c7 00 fa ff ff ff    	movl   $0xfffffffa,(%rax)
    da61:	48 8b 95 40 f8 ff ff 	mov    -0x7c0(%rbp),%rdx
    da68:	48 8b 05 09 d3 00 00 	mov    0xd309(%rip),%rax        # 1ad78 <g_575>
    da6f:	89 10                	mov    %edx,(%rax)
    da71:	c6 05 08 a6 00 00 fa 	movb   $0xfa,0xa608(%rip)        # 18080 <g_119>
    da78:	eb 2b                	jmp    daa5 <func_18+0x130c>
    da7a:	48 8b 85 28 ef ff ff 	mov    -0x10d8(%rbp),%rax
    da81:	8b 00                	mov    (%rax),%eax
    da83:	85 c0                	test   %eax,%eax
    da85:	75 2b                	jne    dab2 <func_18+0x1319>
    da87:	0f b6 05 f2 a5 00 00 	movzbl 0xa5f2(%rip),%eax        # 18080 <g_119>
    da8e:	48 0f be c0          	movsbq %al,%rax
    da92:	be 09 00 00 00       	mov    $0x9,%esi
    da97:	48 89 c7             	mov    %rax,%rdi
    da9a:	e8 8f c5 ff ff       	callq  a02e <safe_add_func_uint64_t_u_u>
    da9f:	88 05 db a5 00 00    	mov    %al,0xa5db(%rip)        # 18080 <g_119>
    daa5:	0f b6 05 d4 a5 00 00 	movzbl 0xa5d4(%rip),%eax        # 18080 <g_119>
    daac:	3c 10                	cmp    $0x10,%al
    daae:	74 ca                	je     da7a <func_18+0x12e1>
    dab0:	eb 01                	jmp    dab3 <func_18+0x131a>
    dab2:	90                   	nop
    dab3:	8b 05 cf a5 00 00    	mov    0xa5cf(%rip),%eax        # 18088 <g_141>
    dab9:	0f be c0             	movsbl %al,%eax
    dabc:	be 01 00 00 00       	mov    $0x1,%esi
    dac1:	89 c7                	mov    %eax,%edi
    dac3:	e8 0c b7 ff ff       	callq  91d4 <safe_add_func_int8_t_s_s>
    dac8:	0f be c0             	movsbl %al,%eax
    dacb:	89 05 b7 a5 00 00    	mov    %eax,0xa5b7(%rip)        # 18088 <g_141>
    dad1:	8b 05 b1 a5 00 00    	mov    0xa5b1(%rip),%eax        # 18088 <g_141>
    dad7:	83 f8 03             	cmp    $0x3,%eax
    dada:	0f 85 30 ff ff ff    	jne    da10 <func_18+0x1277>
    dae0:	eb 01                	jmp    dae3 <func_18+0x134a>
    dae2:	90                   	nop
    dae3:	48 8b 85 28 ef ff ff 	mov    -0x10d8(%rbp),%rax
    daea:	8b 00                	mov    (%rax),%eax
    daec:	85 c0                	test   %eax,%eax
    daee:	74 1c                	je     db0c <func_18+0x1373>
    daf0:	48 8b 05 c1 d3 00 00 	mov    0xd3c1(%rip),%rax        # 1aeb8 <g_1026>
    daf7:	48 8b 95 28 ef ff ff 	mov    -0x10d8(%rbp),%rdx
    dafe:	48 89 10             	mov    %rdx,(%rax)
    db01:	8b 85 8c ef ff ff    	mov    -0x1074(%rbp),%eax
    db07:	e9 e6 20 00 00       	jmpq   fbf2 <func_18+0x3459>
    db0c:	c7 85 98 ef ff ff fa 	movl   $0xfffffffa,-0x1068(%rbp)
    db13:	ff ff ff 
    db16:	48 8d 05 db d0 00 00 	lea    0xd0db(%rip),%rax        # 1abf8 <g_474+0x5f8>
    db1d:	48 89 85 00 f0 ff ff 	mov    %rax,-0x1000(%rbp)
    db24:	48 8d 85 00 f0 ff ff 	lea    -0x1000(%rbp),%rax
    db2b:	48 89 85 70 f2 ff ff 	mov    %rax,-0xd90(%rbp)
    db32:	48 8d 85 00 f0 ff ff 	lea    -0x1000(%rbp),%rax
    db39:	48 89 85 78 f2 ff ff 	mov    %rax,-0xd88(%rbp)
    db40:	48 8d 85 00 f0 ff ff 	lea    -0x1000(%rbp),%rax
    db47:	48 89 85 80 f2 ff ff 	mov    %rax,-0xd80(%rbp)
    db4e:	48 8d 85 00 f0 ff ff 	lea    -0x1000(%rbp),%rax
    db55:	48 89 85 88 f2 ff ff 	mov    %rax,-0xd78(%rbp)
    db5c:	48 8d 85 00 f0 ff ff 	lea    -0x1000(%rbp),%rax
    db63:	48 89 85 90 f2 ff ff 	mov    %rax,-0xd70(%rbp)
    db6a:	48 8d 85 00 f0 ff ff 	lea    -0x1000(%rbp),%rax
    db71:	48 89 85 98 f2 ff ff 	mov    %rax,-0xd68(%rbp)
    db78:	48 8d 85 00 f0 ff ff 	lea    -0x1000(%rbp),%rax
    db7f:	48 89 85 a0 f2 ff ff 	mov    %rax,-0xd60(%rbp)
    db86:	48 8d 85 00 f0 ff ff 	lea    -0x1000(%rbp),%rax
    db8d:	48 89 85 a8 f2 ff ff 	mov    %rax,-0xd58(%rbp)
    db94:	48 8d 85 00 f0 ff ff 	lea    -0x1000(%rbp),%rax
    db9b:	48 89 85 b0 f2 ff ff 	mov    %rax,-0xd50(%rbp)
    dba2:	48 8d 85 00 f0 ff ff 	lea    -0x1000(%rbp),%rax
    dba9:	48 89 85 b8 f2 ff ff 	mov    %rax,-0xd48(%rbp)
    dbb0:	c7 85 9c ef ff ff 82 	movl   $0x24da482,-0x1064(%rbp)
    dbb7:	a4 4d 02 
    dbba:	48 8d 05 3f dc 00 00 	lea    0xdc3f(%rip),%rax        # 1b800 <g_137>
    dbc1:	48 89 85 b8 f0 ff ff 	mov    %rax,-0xf48(%rbp)
    dbc8:	48 8d 85 e8 ef ff ff 	lea    -0x1018(%rbp),%rax
    dbcf:	48 89 85 c0 f0 ff ff 	mov    %rax,-0xf40(%rbp)
    dbd6:	48 8d 85 e0 ef ff ff 	lea    -0x1020(%rbp),%rax
    dbdd:	48 89 85 20 f2 ff ff 	mov    %rax,-0xde0(%rbp)
    dbe4:	48 8d 85 e0 ef ff ff 	lea    -0x1020(%rbp),%rax
    dbeb:	48 89 85 28 f2 ff ff 	mov    %rax,-0xdd8(%rbp)
    dbf2:	48 8d 85 e0 ef ff ff 	lea    -0x1020(%rbp),%rax
    dbf9:	48 89 85 30 f2 ff ff 	mov    %rax,-0xdd0(%rbp)
    dc00:	48 8d 85 e0 ef ff ff 	lea    -0x1020(%rbp),%rax
    dc07:	48 89 85 38 f2 ff ff 	mov    %rax,-0xdc8(%rbp)
    dc0e:	48 8d 85 e0 ef ff ff 	lea    -0x1020(%rbp),%rax
    dc15:	48 89 85 40 f2 ff ff 	mov    %rax,-0xdc0(%rbp)
    dc1c:	48 8d 85 e0 ef ff ff 	lea    -0x1020(%rbp),%rax
    dc23:	48 89 85 48 f2 ff ff 	mov    %rax,-0xdb8(%rbp)
    dc2a:	48 8d 85 e0 ef ff ff 	lea    -0x1020(%rbp),%rax
    dc31:	48 89 85 50 f2 ff ff 	mov    %rax,-0xdb0(%rbp)
    dc38:	48 8d 85 e0 ef ff ff 	lea    -0x1020(%rbp),%rax
    dc3f:	48 89 85 58 f2 ff ff 	mov    %rax,-0xda8(%rbp)
    dc46:	48 8d 85 e0 ef ff ff 	lea    -0x1020(%rbp),%rax
    dc4d:	48 89 85 60 f2 ff ff 	mov    %rax,-0xda0(%rbp)
    dc54:	48 8d 85 20 f2 ff ff 	lea    -0xde0(%rbp),%rax
    dc5b:	48 83 c0 40          	add    $0x40,%rax
    dc5f:	48 89 85 c8 f0 ff ff 	mov    %rax,-0xf38(%rbp)
    dc66:	48 c7 85 c0 f1 ff ff 	movq   $0x0,-0xe40(%rbp)
    dc6d:	00 00 00 00 
    dc71:	48 c7 85 c8 f1 ff ff 	movq   $0x0,-0xe38(%rbp)
    dc78:	00 00 00 00 
    dc7c:	48 c7 85 d0 f1 ff ff 	movq   $0x0,-0xe30(%rbp)
    dc83:	00 00 00 00 
    dc87:	48 c7 85 d8 f1 ff ff 	movq   $0x0,-0xe28(%rbp)
    dc8e:	00 00 00 00 
    dc92:	48 c7 85 e0 f1 ff ff 	movq   $0x0,-0xe20(%rbp)
    dc99:	00 00 00 00 
    dc9d:	c7 85 a0 ef ff ff 01 	movl   $0x1,-0x1060(%rbp)
    dca4:	00 00 00 
    dca7:	48 8d 85 b0 f3 ff ff 	lea    -0xc50(%rbp),%rax
    dcae:	48 8d 15 ab 6b 00 00 	lea    0x6bab(%rip),%rdx        # 14860 <g_1784+0x7f8>
    dcb5:	b9 3f 00 00 00       	mov    $0x3f,%ecx
    dcba:	48 89 c7             	mov    %rax,%rdi
    dcbd:	48 89 d6             	mov    %rdx,%rsi
    dcc0:	f3 48 a5             	rep movsq %ds:(%rsi),%es:(%rdi)
    dcc3:	be 0f 00 00 00       	mov    $0xf,%esi
    dcc8:	bf ff ff 00 00       	mov    $0xffff,%edi
    dccd:	e8 a8 c1 ff ff       	callq  9e7a <safe_rshift_func_uint16_t_u_u>
    dcd2:	48 8b 05 17 c1 00 00 	mov    0xc117(%rip),%rax        # 19df0 <g_408>
    dcd9:	48 8b 18             	mov    (%rax),%rbx
    dcdc:	48 8d 53 01          	lea    0x1(%rbx),%rdx
    dce0:	48 89 10             	mov    %rdx,(%rax)
    dce3:	c7 05 ab a3 00 00 08 	movl   $0x8,0xa3ab(%rip)        # 18098 <g_314>
    dcea:	00 00 00 
    dced:	48 8b 85 00 f0 ff ff 	mov    -0x1000(%rbp),%rax
    dcf4:	48 89 05 c5 d1 00 00 	mov    %rax,0xd1c5(%rip)        # 1aec0 <g_1038>
    dcfb:	48 8b 05 be d1 00 00 	mov    0xd1be(%rip),%rax        # 1aec0 <g_1038>
    dd02:	48 39 85 48 f0 ff ff 	cmp    %rax,-0xfb8(%rbp)
    dd09:	0f 94 c0             	sete   %al
    dd0c:	0f b6 c0             	movzbl %al,%eax
    dd0f:	89 85 9c ef ff ff    	mov    %eax,-0x1064(%rbp)
    dd15:	48 8b 85 30 ef ff ff 	mov    -0x10d0(%rbp),%rax
    dd1c:	8b 10                	mov    (%rax),%edx
    dd1e:	0f b7 85 4e ef ff ff 	movzwl -0x10b2(%rbp),%eax
    dd25:	98                   	cwtl   
    dd26:	39 c2                	cmp    %eax,%edx
    dd28:	be 08 00 00 00       	mov    $0x8,%esi
    dd2d:	48 c7 c7 fa ff ff ff 	mov    $0xfffffffffffffffa,%rdi
    dd34:	e8 76 c3 ff ff       	callq  a0af <safe_div_func_uint64_t_u_u>
    dd39:	0f b7 95 4e ef ff ff 	movzwl -0x10b2(%rbp),%edx
    dd40:	48 0f bf d2          	movswq %dx,%rdx
    dd44:	48 39 d0             	cmp    %rdx,%rax
    dd47:	0f 96 c0             	setbe  %al
    dd4a:	0f b6 d0             	movzbl %al,%edx
    dd4d:	48 8b 05 f4 bc 00 00 	mov    0xbcf4(%rip),%rax        # 19a48 <g_98>
    dd54:	48 8b 00             	mov    (%rax),%rax
    dd57:	48 8b 00             	mov    (%rax),%rax
    dd5a:	48 09 d0             	or     %rdx,%rax
    dd5d:	48 c1 e8 3f          	shr    $0x3f,%rax
    dd61:	0f b6 c0             	movzbl %al,%eax
    dd64:	48 09 d8             	or     %rbx,%rax
    dd67:	48 85 c0             	test   %rax,%rax
    dd6a:	0f 84 b6 11 00 00    	je     ef26 <func_18+0x278d>
    dd70:	48 c7 85 18 f0 ff ff 	movq   $0x0,-0xfe8(%rbp)
    dd77:	00 00 00 00 
    dd7b:	48 8d 85 18 f0 ff ff 	lea    -0xfe8(%rbp),%rax
    dd82:	48 89 85 40 f8 ff ff 	mov    %rax,-0x7c0(%rbp)
    dd89:	48 8d 85 18 f0 ff ff 	lea    -0xfe8(%rbp),%rax
    dd90:	48 89 85 48 f8 ff ff 	mov    %rax,-0x7b8(%rbp)
    dd97:	48 8d 85 18 f0 ff ff 	lea    -0xfe8(%rbp),%rax
    dd9e:	48 89 85 50 f8 ff ff 	mov    %rax,-0x7b0(%rbp)
    dda5:	48 8d 85 18 f0 ff ff 	lea    -0xfe8(%rbp),%rax
    ddac:	48 89 85 58 f8 ff ff 	mov    %rax,-0x7a8(%rbp)
    ddb3:	48 8d 85 18 f0 ff ff 	lea    -0xfe8(%rbp),%rax
    ddba:	48 89 85 60 f8 ff ff 	mov    %rax,-0x7a0(%rbp)
    ddc1:	48 c7 85 68 f8 ff ff 	movq   $0x0,-0x798(%rbp)
    ddc8:	00 00 00 00 
    ddcc:	48 8d 85 18 f0 ff ff 	lea    -0xfe8(%rbp),%rax
    ddd3:	48 89 85 70 f8 ff ff 	mov    %rax,-0x790(%rbp)
    ddda:	48 8d 85 18 f0 ff ff 	lea    -0xfe8(%rbp),%rax
    dde1:	48 89 85 78 f8 ff ff 	mov    %rax,-0x788(%rbp)
    dde8:	48 8d 85 18 f0 ff ff 	lea    -0xfe8(%rbp),%rax
    ddef:	48 89 85 80 f8 ff ff 	mov    %rax,-0x780(%rbp)
    ddf6:	48 8d 85 18 f0 ff ff 	lea    -0xfe8(%rbp),%rax
    ddfd:	48 89 85 88 f8 ff ff 	mov    %rax,-0x778(%rbp)
    de04:	48 8d 85 18 f0 ff ff 	lea    -0xfe8(%rbp),%rax
    de0b:	48 89 85 90 f8 ff ff 	mov    %rax,-0x770(%rbp)
    de12:	48 c7 85 98 f8 ff ff 	movq   $0x0,-0x768(%rbp)
    de19:	00 00 00 00 
    de1d:	48 8d 85 18 f0 ff ff 	lea    -0xfe8(%rbp),%rax
    de24:	48 89 85 a0 f8 ff ff 	mov    %rax,-0x760(%rbp)
    de2b:	48 8d 85 18 f0 ff ff 	lea    -0xfe8(%rbp),%rax
    de32:	48 89 85 a8 f8 ff ff 	mov    %rax,-0x758(%rbp)
    de39:	48 8d 85 18 f0 ff ff 	lea    -0xfe8(%rbp),%rax
    de40:	48 89 85 b0 f8 ff ff 	mov    %rax,-0x750(%rbp)
    de47:	48 c7 85 b8 f8 ff ff 	movq   $0x0,-0x748(%rbp)
    de4e:	00 00 00 00 
    de52:	48 8d 85 18 f0 ff ff 	lea    -0xfe8(%rbp),%rax
    de59:	48 89 85 c0 f8 ff ff 	mov    %rax,-0x740(%rbp)
    de60:	48 8d 85 18 f0 ff ff 	lea    -0xfe8(%rbp),%rax
    de67:	48 89 85 c8 f8 ff ff 	mov    %rax,-0x738(%rbp)
    de6e:	48 8d 85 18 f0 ff ff 	lea    -0xfe8(%rbp),%rax
    de75:	48 89 85 d0 f8 ff ff 	mov    %rax,-0x730(%rbp)
    de7c:	48 8d 85 18 f0 ff ff 	lea    -0xfe8(%rbp),%rax
    de83:	48 89 85 d8 f8 ff ff 	mov    %rax,-0x728(%rbp)
    de8a:	48 8d 85 18 f0 ff ff 	lea    -0xfe8(%rbp),%rax
    de91:	48 89 85 e0 f8 ff ff 	mov    %rax,-0x720(%rbp)
    de98:	48 8d 85 18 f0 ff ff 	lea    -0xfe8(%rbp),%rax
    de9f:	48 89 85 e8 f8 ff ff 	mov    %rax,-0x718(%rbp)
    dea6:	48 8d 85 18 f0 ff ff 	lea    -0xfe8(%rbp),%rax
    dead:	48 89 85 f0 f8 ff ff 	mov    %rax,-0x710(%rbp)
    deb4:	48 8d 85 18 f0 ff ff 	lea    -0xfe8(%rbp),%rax
    debb:	48 89 85 f8 f8 ff ff 	mov    %rax,-0x708(%rbp)
    dec2:	48 8d 85 18 f0 ff ff 	lea    -0xfe8(%rbp),%rax
    dec9:	48 89 85 00 f9 ff ff 	mov    %rax,-0x700(%rbp)
    ded0:	48 8d 85 18 f0 ff ff 	lea    -0xfe8(%rbp),%rax
    ded7:	48 89 85 08 f9 ff ff 	mov    %rax,-0x6f8(%rbp)
    dede:	48 8d 85 18 f0 ff ff 	lea    -0xfe8(%rbp),%rax
    dee5:	48 89 85 10 f9 ff ff 	mov    %rax,-0x6f0(%rbp)
    deec:	48 8d 85 18 f0 ff ff 	lea    -0xfe8(%rbp),%rax
    def3:	48 89 85 18 f9 ff ff 	mov    %rax,-0x6e8(%rbp)
    defa:	48 c7 85 20 f9 ff ff 	movq   $0x0,-0x6e0(%rbp)
    df01:	00 00 00 00 
    df05:	48 c7 85 28 f9 ff ff 	movq   $0x0,-0x6d8(%rbp)
    df0c:	00 00 00 00 
    df10:	48 8d 85 18 f0 ff ff 	lea    -0xfe8(%rbp),%rax
    df17:	48 89 85 30 f9 ff ff 	mov    %rax,-0x6d0(%rbp)
    df1e:	48 8d 85 18 f0 ff ff 	lea    -0xfe8(%rbp),%rax
    df25:	48 89 85 38 f9 ff ff 	mov    %rax,-0x6c8(%rbp)
    df2c:	48 8d 85 18 f0 ff ff 	lea    -0xfe8(%rbp),%rax
    df33:	48 89 85 40 f9 ff ff 	mov    %rax,-0x6c0(%rbp)
    df3a:	48 8d 85 18 f0 ff ff 	lea    -0xfe8(%rbp),%rax
    df41:	48 89 85 48 f9 ff ff 	mov    %rax,-0x6b8(%rbp)
    df48:	48 8d 85 18 f0 ff ff 	lea    -0xfe8(%rbp),%rax
    df4f:	48 89 85 50 f9 ff ff 	mov    %rax,-0x6b0(%rbp)
    df56:	48 8d 85 18 f0 ff ff 	lea    -0xfe8(%rbp),%rax
    df5d:	48 89 85 58 f9 ff ff 	mov    %rax,-0x6a8(%rbp)
    df64:	48 8d 85 18 f0 ff ff 	lea    -0xfe8(%rbp),%rax
    df6b:	48 89 85 60 f9 ff ff 	mov    %rax,-0x6a0(%rbp)
    df72:	48 8d 85 18 f0 ff ff 	lea    -0xfe8(%rbp),%rax
    df79:	48 89 85 68 f9 ff ff 	mov    %rax,-0x698(%rbp)
    df80:	48 8d 85 18 f0 ff ff 	lea    -0xfe8(%rbp),%rax
    df87:	48 89 85 70 f9 ff ff 	mov    %rax,-0x690(%rbp)
    df8e:	48 8d 85 18 f0 ff ff 	lea    -0xfe8(%rbp),%rax
    df95:	48 89 85 78 f9 ff ff 	mov    %rax,-0x688(%rbp)
    df9c:	48 c7 85 80 f9 ff ff 	movq   $0x0,-0x680(%rbp)
    dfa3:	00 00 00 00 
    dfa7:	48 8d 85 18 f0 ff ff 	lea    -0xfe8(%rbp),%rax
    dfae:	48 89 85 88 f9 ff ff 	mov    %rax,-0x678(%rbp)
    dfb5:	48 8d 85 18 f0 ff ff 	lea    -0xfe8(%rbp),%rax
    dfbc:	48 89 85 90 f9 ff ff 	mov    %rax,-0x670(%rbp)
    dfc3:	48 c7 85 98 f9 ff ff 	movq   $0x0,-0x668(%rbp)
    dfca:	00 00 00 00 
    dfce:	48 c7 85 a0 f9 ff ff 	movq   $0x0,-0x660(%rbp)
    dfd5:	00 00 00 00 
    dfd9:	48 8d 85 18 f0 ff ff 	lea    -0xfe8(%rbp),%rax
    dfe0:	48 89 85 a8 f9 ff ff 	mov    %rax,-0x658(%rbp)
    dfe7:	48 c7 85 b0 f9 ff ff 	movq   $0x0,-0x650(%rbp)
    dfee:	00 00 00 00 
    dff2:	48 8d 85 18 f0 ff ff 	lea    -0xfe8(%rbp),%rax
    dff9:	48 89 85 b8 f9 ff ff 	mov    %rax,-0x648(%rbp)
    e000:	48 8d 85 18 f0 ff ff 	lea    -0xfe8(%rbp),%rax
    e007:	48 89 85 c0 f9 ff ff 	mov    %rax,-0x640(%rbp)
    e00e:	48 8d 85 18 f0 ff ff 	lea    -0xfe8(%rbp),%rax
    e015:	48 89 85 c8 f9 ff ff 	mov    %rax,-0x638(%rbp)
    e01c:	48 8d 85 18 f0 ff ff 	lea    -0xfe8(%rbp),%rax
    e023:	48 89 85 d0 f9 ff ff 	mov    %rax,-0x630(%rbp)
    e02a:	48 c7 85 d8 f9 ff ff 	movq   $0x0,-0x628(%rbp)
    e031:	00 00 00 00 
    e035:	48 8d 85 18 f0 ff ff 	lea    -0xfe8(%rbp),%rax
    e03c:	48 89 85 e0 f9 ff ff 	mov    %rax,-0x620(%rbp)
    e043:	48 8d 85 18 f0 ff ff 	lea    -0xfe8(%rbp),%rax
    e04a:	48 89 85 e8 f9 ff ff 	mov    %rax,-0x618(%rbp)
    e051:	48 8d 85 18 f0 ff ff 	lea    -0xfe8(%rbp),%rax
    e058:	48 89 85 f0 f9 ff ff 	mov    %rax,-0x610(%rbp)
    e05f:	48 8d 85 18 f0 ff ff 	lea    -0xfe8(%rbp),%rax
    e066:	48 89 85 f8 f9 ff ff 	mov    %rax,-0x608(%rbp)
    e06d:	48 8d 85 18 f0 ff ff 	lea    -0xfe8(%rbp),%rax
    e074:	48 89 85 00 fa ff ff 	mov    %rax,-0x600(%rbp)
    e07b:	48 8d 85 18 f0 ff ff 	lea    -0xfe8(%rbp),%rax
    e082:	48 89 85 08 fa ff ff 	mov    %rax,-0x5f8(%rbp)
    e089:	48 8d 85 18 f0 ff ff 	lea    -0xfe8(%rbp),%rax
    e090:	48 89 85 10 fa ff ff 	mov    %rax,-0x5f0(%rbp)
    e097:	48 8d 85 18 f0 ff ff 	lea    -0xfe8(%rbp),%rax
    e09e:	48 89 85 18 fa ff ff 	mov    %rax,-0x5e8(%rbp)
    e0a5:	48 8d 85 18 f0 ff ff 	lea    -0xfe8(%rbp),%rax
    e0ac:	48 89 85 20 fa ff ff 	mov    %rax,-0x5e0(%rbp)
    e0b3:	48 c7 85 28 fa ff ff 	movq   $0x0,-0x5d8(%rbp)
    e0ba:	00 00 00 00 
    e0be:	48 c7 85 30 fa ff ff 	movq   $0x0,-0x5d0(%rbp)
    e0c5:	00 00 00 00 
    e0c9:	48 8d 85 18 f0 ff ff 	lea    -0xfe8(%rbp),%rax
    e0d0:	48 89 85 38 fa ff ff 	mov    %rax,-0x5c8(%rbp)
    e0d7:	48 8d 85 18 f0 ff ff 	lea    -0xfe8(%rbp),%rax
    e0de:	48 89 85 40 fa ff ff 	mov    %rax,-0x5c0(%rbp)
    e0e5:	48 8d 85 18 f0 ff ff 	lea    -0xfe8(%rbp),%rax
    e0ec:	48 89 85 48 fa ff ff 	mov    %rax,-0x5b8(%rbp)
    e0f3:	48 8d 85 18 f0 ff ff 	lea    -0xfe8(%rbp),%rax
    e0fa:	48 89 85 50 fa ff ff 	mov    %rax,-0x5b0(%rbp)
    e101:	48 c7 85 58 fa ff ff 	movq   $0x0,-0x5a8(%rbp)
    e108:	00 00 00 00 
    e10c:	48 8d 85 18 f0 ff ff 	lea    -0xfe8(%rbp),%rax
    e113:	48 89 85 60 fa ff ff 	mov    %rax,-0x5a0(%rbp)
    e11a:	48 c7 85 68 fa ff ff 	movq   $0x0,-0x598(%rbp)
    e121:	00 00 00 00 
    e125:	48 8d 85 18 f0 ff ff 	lea    -0xfe8(%rbp),%rax
    e12c:	48 89 85 70 fa ff ff 	mov    %rax,-0x590(%rbp)
    e133:	48 8d 85 18 f0 ff ff 	lea    -0xfe8(%rbp),%rax
    e13a:	48 89 85 78 fa ff ff 	mov    %rax,-0x588(%rbp)
    e141:	48 8d 85 18 f0 ff ff 	lea    -0xfe8(%rbp),%rax
    e148:	48 89 85 80 fa ff ff 	mov    %rax,-0x580(%rbp)
    e14f:	48 8d 85 18 f0 ff ff 	lea    -0xfe8(%rbp),%rax
    e156:	48 89 85 88 fa ff ff 	mov    %rax,-0x578(%rbp)
    e15d:	48 c7 85 90 fa ff ff 	movq   $0x0,-0x570(%rbp)
    e164:	00 00 00 00 
    e168:	48 8d 85 18 f0 ff ff 	lea    -0xfe8(%rbp),%rax
    e16f:	48 89 85 98 fa ff ff 	mov    %rax,-0x568(%rbp)
    e176:	48 8d 85 18 f0 ff ff 	lea    -0xfe8(%rbp),%rax
    e17d:	48 89 85 a0 fa ff ff 	mov    %rax,-0x560(%rbp)
    e184:	48 8d 85 18 f0 ff ff 	lea    -0xfe8(%rbp),%rax
    e18b:	48 89 85 a8 fa ff ff 	mov    %rax,-0x558(%rbp)
    e192:	48 c7 85 b0 fa ff ff 	movq   $0x0,-0x550(%rbp)
    e199:	00 00 00 00 
    e19d:	48 8d 85 18 f0 ff ff 	lea    -0xfe8(%rbp),%rax
    e1a4:	48 89 85 b8 fa ff ff 	mov    %rax,-0x548(%rbp)
    e1ab:	48 c7 85 c0 fa ff ff 	movq   $0x0,-0x540(%rbp)
    e1b2:	00 00 00 00 
    e1b6:	48 c7 85 c8 fa ff ff 	movq   $0x0,-0x538(%rbp)
    e1bd:	00 00 00 00 
    e1c1:	48 c7 85 d0 fa ff ff 	movq   $0x0,-0x530(%rbp)
    e1c8:	00 00 00 00 
    e1cc:	48 c7 85 d8 fa ff ff 	movq   $0x0,-0x528(%rbp)
    e1d3:	00 00 00 00 
    e1d7:	48 c7 85 e0 fa ff ff 	movq   $0x0,-0x520(%rbp)
    e1de:	00 00 00 00 
    e1e2:	48 c7 85 e8 fa ff ff 	movq   $0x0,-0x518(%rbp)
    e1e9:	00 00 00 00 
    e1ed:	48 c7 85 f0 fa ff ff 	movq   $0x0,-0x510(%rbp)
    e1f4:	00 00 00 00 
    e1f8:	48 8d 85 18 f0 ff ff 	lea    -0xfe8(%rbp),%rax
    e1ff:	48 89 85 f8 fa ff ff 	mov    %rax,-0x508(%rbp)
    e206:	48 c7 85 00 fb ff ff 	movq   $0x0,-0x500(%rbp)
    e20d:	00 00 00 00 
    e211:	48 8d 85 18 f0 ff ff 	lea    -0xfe8(%rbp),%rax
    e218:	48 89 85 08 fb ff ff 	mov    %rax,-0x4f8(%rbp)
    e21f:	48 8d 85 18 f0 ff ff 	lea    -0xfe8(%rbp),%rax
    e226:	48 89 85 10 fb ff ff 	mov    %rax,-0x4f0(%rbp)
    e22d:	48 8d 85 18 f0 ff ff 	lea    -0xfe8(%rbp),%rax
    e234:	48 89 85 18 fb ff ff 	mov    %rax,-0x4e8(%rbp)
    e23b:	48 8d 85 18 f0 ff ff 	lea    -0xfe8(%rbp),%rax
    e242:	48 89 85 20 fb ff ff 	mov    %rax,-0x4e0(%rbp)
    e249:	48 8d 85 18 f0 ff ff 	lea    -0xfe8(%rbp),%rax
    e250:	48 89 85 28 fb ff ff 	mov    %rax,-0x4d8(%rbp)
    e257:	48 8d 85 18 f0 ff ff 	lea    -0xfe8(%rbp),%rax
    e25e:	48 89 85 30 fb ff ff 	mov    %rax,-0x4d0(%rbp)
    e265:	48 c7 85 38 fb ff ff 	movq   $0x0,-0x4c8(%rbp)
    e26c:	00 00 00 00 
    e270:	48 c7 85 40 fb ff ff 	movq   $0x0,-0x4c0(%rbp)
    e277:	00 00 00 00 
    e27b:	48 8d 85 18 f0 ff ff 	lea    -0xfe8(%rbp),%rax
    e282:	48 89 85 48 fb ff ff 	mov    %rax,-0x4b8(%rbp)
    e289:	48 8d 85 18 f0 ff ff 	lea    -0xfe8(%rbp),%rax
    e290:	48 89 85 50 fb ff ff 	mov    %rax,-0x4b0(%rbp)
    e297:	48 8d 85 18 f0 ff ff 	lea    -0xfe8(%rbp),%rax
    e29e:	48 89 85 58 fb ff ff 	mov    %rax,-0x4a8(%rbp)
    e2a5:	48 c7 85 60 fb ff ff 	movq   $0x0,-0x4a0(%rbp)
    e2ac:	00 00 00 00 
    e2b0:	48 8d 85 18 f0 ff ff 	lea    -0xfe8(%rbp),%rax
    e2b7:	48 89 85 68 fb ff ff 	mov    %rax,-0x498(%rbp)
    e2be:	48 8d 85 18 f0 ff ff 	lea    -0xfe8(%rbp),%rax
    e2c5:	48 89 85 70 fb ff ff 	mov    %rax,-0x490(%rbp)
    e2cc:	48 8d 85 18 f0 ff ff 	lea    -0xfe8(%rbp),%rax
    e2d3:	48 89 85 78 fb ff ff 	mov    %rax,-0x488(%rbp)
    e2da:	48 c7 85 80 fb ff ff 	movq   $0x0,-0x480(%rbp)
    e2e1:	00 00 00 00 
    e2e5:	48 8d 85 18 f0 ff ff 	lea    -0xfe8(%rbp),%rax
    e2ec:	48 89 85 88 fb ff ff 	mov    %rax,-0x478(%rbp)
    e2f3:	48 8d 85 18 f0 ff ff 	lea    -0xfe8(%rbp),%rax
    e2fa:	48 89 85 90 fb ff ff 	mov    %rax,-0x470(%rbp)
    e301:	48 c7 85 98 fb ff ff 	movq   $0x0,-0x468(%rbp)
    e308:	00 00 00 00 
    e30c:	48 8d 85 18 f0 ff ff 	lea    -0xfe8(%rbp),%rax
    e313:	48 89 85 a0 fb ff ff 	mov    %rax,-0x460(%rbp)
    e31a:	48 8d 85 18 f0 ff ff 	lea    -0xfe8(%rbp),%rax
    e321:	48 89 85 a8 fb ff ff 	mov    %rax,-0x458(%rbp)
    e328:	48 c7 85 b0 fb ff ff 	movq   $0x0,-0x450(%rbp)
    e32f:	00 00 00 00 
    e333:	48 8d 85 18 f0 ff ff 	lea    -0xfe8(%rbp),%rax
    e33a:	48 89 85 b8 fb ff ff 	mov    %rax,-0x448(%rbp)
    e341:	48 8d 85 18 f0 ff ff 	lea    -0xfe8(%rbp),%rax
    e348:	48 89 85 c0 fb ff ff 	mov    %rax,-0x440(%rbp)
    e34f:	48 8d 85 18 f0 ff ff 	lea    -0xfe8(%rbp),%rax
    e356:	48 89 85 c8 fb ff ff 	mov    %rax,-0x438(%rbp)
    e35d:	48 c7 85 d0 fb ff ff 	movq   $0x0,-0x430(%rbp)
    e364:	00 00 00 00 
    e368:	48 8d 85 18 f0 ff ff 	lea    -0xfe8(%rbp),%rax
    e36f:	48 89 85 d8 fb ff ff 	mov    %rax,-0x428(%rbp)
    e376:	48 c7 85 e0 fb ff ff 	movq   $0x0,-0x420(%rbp)
    e37d:	00 00 00 00 
    e381:	48 8d 85 18 f0 ff ff 	lea    -0xfe8(%rbp),%rax
    e388:	48 89 85 e8 fb ff ff 	mov    %rax,-0x418(%rbp)
    e38f:	48 8d 85 18 f0 ff ff 	lea    -0xfe8(%rbp),%rax
    e396:	48 89 85 f0 fb ff ff 	mov    %rax,-0x410(%rbp)
    e39d:	48 8d 85 18 f0 ff ff 	lea    -0xfe8(%rbp),%rax
    e3a4:	48 89 85 f8 fb ff ff 	mov    %rax,-0x408(%rbp)
    e3ab:	48 8d 85 18 f0 ff ff 	lea    -0xfe8(%rbp),%rax
    e3b2:	48 89 85 00 fc ff ff 	mov    %rax,-0x400(%rbp)
    e3b9:	48 8d 85 18 f0 ff ff 	lea    -0xfe8(%rbp),%rax
    e3c0:	48 89 85 08 fc ff ff 	mov    %rax,-0x3f8(%rbp)
    e3c7:	48 8d 85 18 f0 ff ff 	lea    -0xfe8(%rbp),%rax
    e3ce:	48 89 85 10 fc ff ff 	mov    %rax,-0x3f0(%rbp)
    e3d5:	48 8d 85 18 f0 ff ff 	lea    -0xfe8(%rbp),%rax
    e3dc:	48 89 85 18 fc ff ff 	mov    %rax,-0x3e8(%rbp)
    e3e3:	48 8d 85 18 f0 ff ff 	lea    -0xfe8(%rbp),%rax
    e3ea:	48 89 85 20 fc ff ff 	mov    %rax,-0x3e0(%rbp)
    e3f1:	48 8d 85 18 f0 ff ff 	lea    -0xfe8(%rbp),%rax
    e3f8:	48 89 85 28 fc ff ff 	mov    %rax,-0x3d8(%rbp)
    e3ff:	48 8d 85 18 f0 ff ff 	lea    -0xfe8(%rbp),%rax
    e406:	48 89 85 30 fc ff ff 	mov    %rax,-0x3d0(%rbp)
    e40d:	48 8d 85 18 f0 ff ff 	lea    -0xfe8(%rbp),%rax
    e414:	48 89 85 38 fc ff ff 	mov    %rax,-0x3c8(%rbp)
    e41b:	48 c7 85 40 fc ff ff 	movq   $0x0,-0x3c0(%rbp)
    e422:	00 00 00 00 
    e426:	48 8d 85 18 f0 ff ff 	lea    -0xfe8(%rbp),%rax
    e42d:	48 89 85 48 fc ff ff 	mov    %rax,-0x3b8(%rbp)
    e434:	48 8d 85 18 f0 ff ff 	lea    -0xfe8(%rbp),%rax
    e43b:	48 89 85 50 fc ff ff 	mov    %rax,-0x3b0(%rbp)
    e442:	48 8d 85 18 f0 ff ff 	lea    -0xfe8(%rbp),%rax
    e449:	48 89 85 58 fc ff ff 	mov    %rax,-0x3a8(%rbp)
    e450:	48 8d 85 18 f0 ff ff 	lea    -0xfe8(%rbp),%rax
    e457:	48 89 85 60 fc ff ff 	mov    %rax,-0x3a0(%rbp)
    e45e:	48 8d 85 18 f0 ff ff 	lea    -0xfe8(%rbp),%rax
    e465:	48 89 85 68 fc ff ff 	mov    %rax,-0x398(%rbp)
    e46c:	48 8d 85 18 f0 ff ff 	lea    -0xfe8(%rbp),%rax
    e473:	48 89 85 70 fc ff ff 	mov    %rax,-0x390(%rbp)
    e47a:	48 8d 85 18 f0 ff ff 	lea    -0xfe8(%rbp),%rax
    e481:	48 89 85 78 fc ff ff 	mov    %rax,-0x388(%rbp)
    e488:	48 c7 85 80 fc ff ff 	movq   $0x0,-0x380(%rbp)
    e48f:	00 00 00 00 
    e493:	48 8d 85 18 f0 ff ff 	lea    -0xfe8(%rbp),%rax
    e49a:	48 89 85 88 fc ff ff 	mov    %rax,-0x378(%rbp)
    e4a1:	48 c7 85 90 fc ff ff 	movq   $0x0,-0x370(%rbp)
    e4a8:	00 00 00 00 
    e4ac:	48 8d 85 18 f0 ff ff 	lea    -0xfe8(%rbp),%rax
    e4b3:	48 89 85 98 fc ff ff 	mov    %rax,-0x368(%rbp)
    e4ba:	48 8d 85 18 f0 ff ff 	lea    -0xfe8(%rbp),%rax
    e4c1:	48 89 85 a0 fc ff ff 	mov    %rax,-0x360(%rbp)
    e4c8:	48 8d 85 18 f0 ff ff 	lea    -0xfe8(%rbp),%rax
    e4cf:	48 89 85 a8 fc ff ff 	mov    %rax,-0x358(%rbp)
    e4d6:	48 8d 85 18 f0 ff ff 	lea    -0xfe8(%rbp),%rax
    e4dd:	48 89 85 b0 fc ff ff 	mov    %rax,-0x350(%rbp)
    e4e4:	48 8d 85 18 f0 ff ff 	lea    -0xfe8(%rbp),%rax
    e4eb:	48 89 85 b8 fc ff ff 	mov    %rax,-0x348(%rbp)
    e4f2:	48 8d 85 18 f0 ff ff 	lea    -0xfe8(%rbp),%rax
    e4f9:	48 89 85 c0 fc ff ff 	mov    %rax,-0x340(%rbp)
    e500:	48 c7 85 c8 fc ff ff 	movq   $0x0,-0x338(%rbp)
    e507:	00 00 00 00 
    e50b:	48 c7 85 d0 fc ff ff 	movq   $0x0,-0x330(%rbp)
    e512:	00 00 00 00 
    e516:	48 8d 85 18 f0 ff ff 	lea    -0xfe8(%rbp),%rax
    e51d:	48 89 85 d8 fc ff ff 	mov    %rax,-0x328(%rbp)
    e524:	48 8d 85 18 f0 ff ff 	lea    -0xfe8(%rbp),%rax
    e52b:	48 89 85 e0 fc ff ff 	mov    %rax,-0x320(%rbp)
    e532:	48 8d 85 18 f0 ff ff 	lea    -0xfe8(%rbp),%rax
    e539:	48 89 85 e8 fc ff ff 	mov    %rax,-0x318(%rbp)
    e540:	48 8d 85 18 f0 ff ff 	lea    -0xfe8(%rbp),%rax
    e547:	48 89 85 f0 fc ff ff 	mov    %rax,-0x310(%rbp)
    e54e:	48 8d 85 18 f0 ff ff 	lea    -0xfe8(%rbp),%rax
    e555:	48 89 85 f8 fc ff ff 	mov    %rax,-0x308(%rbp)
    e55c:	48 8d 85 18 f0 ff ff 	lea    -0xfe8(%rbp),%rax
    e563:	48 89 85 00 fd ff ff 	mov    %rax,-0x300(%rbp)
    e56a:	48 8d 85 18 f0 ff ff 	lea    -0xfe8(%rbp),%rax
    e571:	48 89 85 08 fd ff ff 	mov    %rax,-0x2f8(%rbp)
    e578:	48 8d 85 18 f0 ff ff 	lea    -0xfe8(%rbp),%rax
    e57f:	48 89 85 10 fd ff ff 	mov    %rax,-0x2f0(%rbp)
    e586:	48 8d 85 18 f0 ff ff 	lea    -0xfe8(%rbp),%rax
    e58d:	48 89 85 18 fd ff ff 	mov    %rax,-0x2e8(%rbp)
    e594:	48 c7 85 20 fd ff ff 	movq   $0x0,-0x2e0(%rbp)
    e59b:	00 00 00 00 
    e59f:	48 c7 85 28 fd ff ff 	movq   $0x0,-0x2d8(%rbp)
    e5a6:	00 00 00 00 
    e5aa:	48 8d 85 18 f0 ff ff 	lea    -0xfe8(%rbp),%rax
    e5b1:	48 89 85 30 fd ff ff 	mov    %rax,-0x2d0(%rbp)
    e5b8:	48 8d 85 18 f0 ff ff 	lea    -0xfe8(%rbp),%rax
    e5bf:	48 89 85 38 fd ff ff 	mov    %rax,-0x2c8(%rbp)
    e5c6:	48 8d 85 18 f0 ff ff 	lea    -0xfe8(%rbp),%rax
    e5cd:	48 89 85 40 fd ff ff 	mov    %rax,-0x2c0(%rbp)
    e5d4:	48 c7 85 48 fd ff ff 	movq   $0x0,-0x2b8(%rbp)
    e5db:	00 00 00 00 
    e5df:	48 8d 85 18 f0 ff ff 	lea    -0xfe8(%rbp),%rax
    e5e6:	48 89 85 50 fd ff ff 	mov    %rax,-0x2b0(%rbp)
    e5ed:	48 8d 85 18 f0 ff ff 	lea    -0xfe8(%rbp),%rax
    e5f4:	48 89 85 58 fd ff ff 	mov    %rax,-0x2a8(%rbp)
    e5fb:	48 8d 85 18 f0 ff ff 	lea    -0xfe8(%rbp),%rax
    e602:	48 89 85 60 fd ff ff 	mov    %rax,-0x2a0(%rbp)
    e609:	48 8d 85 18 f0 ff ff 	lea    -0xfe8(%rbp),%rax
    e610:	48 89 85 68 fd ff ff 	mov    %rax,-0x298(%rbp)
    e617:	48 8d 85 18 f0 ff ff 	lea    -0xfe8(%rbp),%rax
    e61e:	48 89 85 70 fd ff ff 	mov    %rax,-0x290(%rbp)
    e625:	48 8d 85 18 f0 ff ff 	lea    -0xfe8(%rbp),%rax
    e62c:	48 89 85 78 fd ff ff 	mov    %rax,-0x288(%rbp)
    e633:	48 c7 85 80 fd ff ff 	movq   $0x0,-0x280(%rbp)
    e63a:	00 00 00 00 
    e63e:	48 c7 85 88 fd ff ff 	movq   $0x0,-0x278(%rbp)
    e645:	00 00 00 00 
    e649:	48 8d 85 18 f0 ff ff 	lea    -0xfe8(%rbp),%rax
    e650:	48 89 85 90 fd ff ff 	mov    %rax,-0x270(%rbp)
    e657:	48 8d 85 18 f0 ff ff 	lea    -0xfe8(%rbp),%rax
    e65e:	48 89 85 98 fd ff ff 	mov    %rax,-0x268(%rbp)
    e665:	48 8d 85 18 f0 ff ff 	lea    -0xfe8(%rbp),%rax
    e66c:	48 89 85 a0 fd ff ff 	mov    %rax,-0x260(%rbp)
    e673:	48 8d 85 18 f0 ff ff 	lea    -0xfe8(%rbp),%rax
    e67a:	48 89 85 a8 fd ff ff 	mov    %rax,-0x258(%rbp)
    e681:	48 8d 85 18 f0 ff ff 	lea    -0xfe8(%rbp),%rax
    e688:	48 89 85 b0 fd ff ff 	mov    %rax,-0x250(%rbp)
    e68f:	48 8d 85 18 f0 ff ff 	lea    -0xfe8(%rbp),%rax
    e696:	48 89 85 b8 fd ff ff 	mov    %rax,-0x248(%rbp)
    e69d:	48 8d 85 18 f0 ff ff 	lea    -0xfe8(%rbp),%rax
    e6a4:	48 89 85 c0 fd ff ff 	mov    %rax,-0x240(%rbp)
    e6ab:	48 8d 85 18 f0 ff ff 	lea    -0xfe8(%rbp),%rax
    e6b2:	48 89 85 c8 fd ff ff 	mov    %rax,-0x238(%rbp)
    e6b9:	48 8d 85 18 f0 ff ff 	lea    -0xfe8(%rbp),%rax
    e6c0:	48 89 85 d0 fd ff ff 	mov    %rax,-0x230(%rbp)
    e6c7:	48 8d 85 18 f0 ff ff 	lea    -0xfe8(%rbp),%rax
    e6ce:	48 89 85 d8 fd ff ff 	mov    %rax,-0x228(%rbp)
    e6d5:	48 8d 85 18 f0 ff ff 	lea    -0xfe8(%rbp),%rax
    e6dc:	48 89 85 e0 fd ff ff 	mov    %rax,-0x220(%rbp)
    e6e3:	48 8d 85 18 f0 ff ff 	lea    -0xfe8(%rbp),%rax
    e6ea:	48 89 85 e8 fd ff ff 	mov    %rax,-0x218(%rbp)
    e6f1:	48 8d 85 18 f0 ff ff 	lea    -0xfe8(%rbp),%rax
    e6f8:	48 89 85 f0 fd ff ff 	mov    %rax,-0x210(%rbp)
    e6ff:	48 c7 85 f8 fd ff ff 	movq   $0x0,-0x208(%rbp)
    e706:	00 00 00 00 
    e70a:	48 8d 85 18 f0 ff ff 	lea    -0xfe8(%rbp),%rax
    e711:	48 89 85 00 fe ff ff 	mov    %rax,-0x200(%rbp)
    e718:	48 8d 85 18 f0 ff ff 	lea    -0xfe8(%rbp),%rax
    e71f:	48 89 85 08 fe ff ff 	mov    %rax,-0x1f8(%rbp)
    e726:	48 8d 85 18 f0 ff ff 	lea    -0xfe8(%rbp),%rax
    e72d:	48 89 85 10 fe ff ff 	mov    %rax,-0x1f0(%rbp)
    e734:	48 8d 85 18 f0 ff ff 	lea    -0xfe8(%rbp),%rax
    e73b:	48 89 85 18 fe ff ff 	mov    %rax,-0x1e8(%rbp)
    e742:	48 8d 85 18 f0 ff ff 	lea    -0xfe8(%rbp),%rax
    e749:	48 89 85 20 fe ff ff 	mov    %rax,-0x1e0(%rbp)
    e750:	48 8d 85 18 f0 ff ff 	lea    -0xfe8(%rbp),%rax
    e757:	48 89 85 28 fe ff ff 	mov    %rax,-0x1d8(%rbp)
    e75e:	48 8d 85 18 f0 ff ff 	lea    -0xfe8(%rbp),%rax
    e765:	48 89 85 30 fe ff ff 	mov    %rax,-0x1d0(%rbp)
    e76c:	48 8d 85 18 f0 ff ff 	lea    -0xfe8(%rbp),%rax
    e773:	48 89 85 38 fe ff ff 	mov    %rax,-0x1c8(%rbp)
    e77a:	48 8d 85 18 f0 ff ff 	lea    -0xfe8(%rbp),%rax
    e781:	48 89 85 40 fe ff ff 	mov    %rax,-0x1c0(%rbp)
    e788:	48 8d 85 18 f0 ff ff 	lea    -0xfe8(%rbp),%rax
    e78f:	48 89 85 48 fe ff ff 	mov    %rax,-0x1b8(%rbp)
    e796:	48 8d 85 18 f0 ff ff 	lea    -0xfe8(%rbp),%rax
    e79d:	48 89 85 50 fe ff ff 	mov    %rax,-0x1b0(%rbp)
    e7a4:	48 c7 85 58 fe ff ff 	movq   $0x0,-0x1a8(%rbp)
    e7ab:	00 00 00 00 
    e7af:	48 c7 85 60 fe ff ff 	movq   $0x0,-0x1a0(%rbp)
    e7b6:	00 00 00 00 
    e7ba:	48 8d 85 18 f0 ff ff 	lea    -0xfe8(%rbp),%rax
    e7c1:	48 89 85 68 fe ff ff 	mov    %rax,-0x198(%rbp)
    e7c8:	48 8d 85 18 f0 ff ff 	lea    -0xfe8(%rbp),%rax
    e7cf:	48 89 85 70 fe ff ff 	mov    %rax,-0x190(%rbp)
    e7d6:	48 8d 85 18 f0 ff ff 	lea    -0xfe8(%rbp),%rax
    e7dd:	48 89 85 78 fe ff ff 	mov    %rax,-0x188(%rbp)
    e7e4:	48 8d 85 18 f0 ff ff 	lea    -0xfe8(%rbp),%rax
    e7eb:	48 89 85 80 fe ff ff 	mov    %rax,-0x180(%rbp)
    e7f2:	48 c7 85 88 fe ff ff 	movq   $0x0,-0x178(%rbp)
    e7f9:	00 00 00 00 
    e7fd:	48 8d 85 18 f0 ff ff 	lea    -0xfe8(%rbp),%rax
    e804:	48 89 85 90 fe ff ff 	mov    %rax,-0x170(%rbp)
    e80b:	48 8d 85 18 f0 ff ff 	lea    -0xfe8(%rbp),%rax
    e812:	48 89 85 98 fe ff ff 	mov    %rax,-0x168(%rbp)
    e819:	48 8d 85 18 f0 ff ff 	lea    -0xfe8(%rbp),%rax
    e820:	48 89 85 a0 fe ff ff 	mov    %rax,-0x160(%rbp)
    e827:	48 8d 85 18 f0 ff ff 	lea    -0xfe8(%rbp),%rax
    e82e:	48 89 85 a8 fe ff ff 	mov    %rax,-0x158(%rbp)
    e835:	48 8d 85 18 f0 ff ff 	lea    -0xfe8(%rbp),%rax
    e83c:	48 89 85 b0 fe ff ff 	mov    %rax,-0x150(%rbp)
    e843:	48 8d 85 18 f0 ff ff 	lea    -0xfe8(%rbp),%rax
    e84a:	48 89 85 b8 fe ff ff 	mov    %rax,-0x148(%rbp)
    e851:	48 8d 85 18 f0 ff ff 	lea    -0xfe8(%rbp),%rax
    e858:	48 89 85 c0 fe ff ff 	mov    %rax,-0x140(%rbp)
    e85f:	48 8d 85 18 f0 ff ff 	lea    -0xfe8(%rbp),%rax
    e866:	48 89 85 c8 fe ff ff 	mov    %rax,-0x138(%rbp)
    e86d:	48 8d 85 18 f0 ff ff 	lea    -0xfe8(%rbp),%rax
    e874:	48 89 85 d0 fe ff ff 	mov    %rax,-0x130(%rbp)
    e87b:	48 8d 85 18 f0 ff ff 	lea    -0xfe8(%rbp),%rax
    e882:	48 89 85 d8 fe ff ff 	mov    %rax,-0x128(%rbp)
    e889:	48 8d 85 18 f0 ff ff 	lea    -0xfe8(%rbp),%rax
    e890:	48 89 85 e0 fe ff ff 	mov    %rax,-0x120(%rbp)
    e897:	48 8d 85 18 f0 ff ff 	lea    -0xfe8(%rbp),%rax
    e89e:	48 89 85 e8 fe ff ff 	mov    %rax,-0x118(%rbp)
    e8a5:	48 8d 85 18 f0 ff ff 	lea    -0xfe8(%rbp),%rax
    e8ac:	48 89 85 f0 fe ff ff 	mov    %rax,-0x110(%rbp)
    e8b3:	48 8d 85 18 f0 ff ff 	lea    -0xfe8(%rbp),%rax
    e8ba:	48 89 85 f8 fe ff ff 	mov    %rax,-0x108(%rbp)
    e8c1:	48 8d 85 18 f0 ff ff 	lea    -0xfe8(%rbp),%rax
    e8c8:	48 89 85 00 ff ff ff 	mov    %rax,-0x100(%rbp)
    e8cf:	48 c7 85 08 ff ff ff 	movq   $0x0,-0xf8(%rbp)
    e8d6:	00 00 00 00 
    e8da:	48 c7 85 10 ff ff ff 	movq   $0x0,-0xf0(%rbp)
    e8e1:	00 00 00 00 
    e8e5:	48 8d 85 18 f0 ff ff 	lea    -0xfe8(%rbp),%rax
    e8ec:	48 89 85 18 ff ff ff 	mov    %rax,-0xe8(%rbp)
    e8f3:	48 8d 85 18 f0 ff ff 	lea    -0xfe8(%rbp),%rax
    e8fa:	48 89 85 20 ff ff ff 	mov    %rax,-0xe0(%rbp)
    e901:	48 c7 85 28 ff ff ff 	movq   $0x0,-0xd8(%rbp)
    e908:	00 00 00 00 
    e90c:	48 8d 85 18 f0 ff ff 	lea    -0xfe8(%rbp),%rax
    e913:	48 89 85 30 ff ff ff 	mov    %rax,-0xd0(%rbp)
    e91a:	48 8d 85 18 f0 ff ff 	lea    -0xfe8(%rbp),%rax
    e921:	48 89 85 38 ff ff ff 	mov    %rax,-0xc8(%rbp)
    e928:	48 8d 85 18 f0 ff ff 	lea    -0xfe8(%rbp),%rax
    e92f:	48 89 85 40 ff ff ff 	mov    %rax,-0xc0(%rbp)
    e936:	48 8d 85 18 f0 ff ff 	lea    -0xfe8(%rbp),%rax
    e93d:	48 89 85 48 ff ff ff 	mov    %rax,-0xb8(%rbp)
    e944:	48 c7 85 50 ff ff ff 	movq   $0x0,-0xb0(%rbp)
    e94b:	00 00 00 00 
    e94f:	48 c7 85 58 ff ff ff 	movq   $0x0,-0xa8(%rbp)
    e956:	00 00 00 00 
    e95a:	48 8d 85 18 f0 ff ff 	lea    -0xfe8(%rbp),%rax
    e961:	48 89 85 60 ff ff ff 	mov    %rax,-0xa0(%rbp)
    e968:	48 8d 85 18 f0 ff ff 	lea    -0xfe8(%rbp),%rax
    e96f:	48 89 85 68 ff ff ff 	mov    %rax,-0x98(%rbp)
    e976:	48 8d 85 18 f0 ff ff 	lea    -0xfe8(%rbp),%rax
    e97d:	48 89 85 70 ff ff ff 	mov    %rax,-0x90(%rbp)
    e984:	48 8d 85 18 f0 ff ff 	lea    -0xfe8(%rbp),%rax
    e98b:	48 89 85 78 ff ff ff 	mov    %rax,-0x88(%rbp)
    e992:	48 8d 85 18 f0 ff ff 	lea    -0xfe8(%rbp),%rax
    e999:	48 89 45 80          	mov    %rax,-0x80(%rbp)
    e99d:	48 8d 85 18 f0 ff ff 	lea    -0xfe8(%rbp),%rax
    e9a4:	48 89 45 88          	mov    %rax,-0x78(%rbp)
    e9a8:	48 8d 85 18 f0 ff ff 	lea    -0xfe8(%rbp),%rax
    e9af:	48 89 45 90          	mov    %rax,-0x70(%rbp)
    e9b3:	48 8d 85 18 f0 ff ff 	lea    -0xfe8(%rbp),%rax
    e9ba:	48 89 45 98          	mov    %rax,-0x68(%rbp)
    e9be:	48 8d 85 18 f0 ff ff 	lea    -0xfe8(%rbp),%rax
    e9c5:	48 89 45 a0          	mov    %rax,-0x60(%rbp)
    e9c9:	48 c7 45 a8 00 00 00 	movq   $0x0,-0x58(%rbp)
    e9d0:	00 
    e9d1:	48 8d 85 18 f0 ff ff 	lea    -0xfe8(%rbp),%rax
    e9d8:	48 89 45 b0          	mov    %rax,-0x50(%rbp)
    e9dc:	48 8d 85 18 f0 ff ff 	lea    -0xfe8(%rbp),%rax
    e9e3:	48 89 45 b8          	mov    %rax,-0x48(%rbp)
    e9e7:	c7 85 10 f3 ff ff 01 	movl   $0x1,-0xcf0(%rbp)
    e9ee:	00 00 00 
    e9f1:	c7 85 14 f3 ff ff 01 	movl   $0x1,-0xcec(%rbp)
    e9f8:	00 00 00 
    e9fb:	c7 85 18 f3 ff ff 01 	movl   $0x1,-0xce8(%rbp)
    ea02:	00 00 00 
    ea05:	c7 85 1c f3 ff ff 01 	movl   $0x1,-0xce4(%rbp)
    ea0c:	00 00 00 
    ea0f:	c7 85 20 f3 ff ff 01 	movl   $0x1,-0xce0(%rbp)
    ea16:	00 00 00 
    ea19:	c7 85 24 f3 ff ff 01 	movl   $0x1,-0xcdc(%rbp)
    ea20:	00 00 00 
    ea23:	c7 85 28 f3 ff ff 01 	movl   $0x1,-0xcd8(%rbp)
    ea2a:	00 00 00 
    ea2d:	c7 85 2c f3 ff ff 01 	movl   $0x1,-0xcd4(%rbp)
    ea34:	00 00 00 
    ea37:	c7 85 30 f3 ff ff 01 	movl   $0x1,-0xcd0(%rbp)
    ea3e:	00 00 00 
    ea41:	c7 85 34 f3 ff ff 01 	movl   $0x1,-0xccc(%rbp)
    ea48:	00 00 00 
    ea4b:	48 8d 05 3a 96 00 00 	lea    0x963a(%rip),%rax        # 1808c <g_176>
    ea52:	48 89 85 70 f1 ff ff 	mov    %rax,-0xe90(%rbp)
    ea59:	48 8d 05 30 96 00 00 	lea    0x9630(%rip),%rax        # 18090 <g_191>
    ea60:	48 89 85 b0 f5 ff ff 	mov    %rax,-0xa50(%rbp)
    ea67:	48 8d 85 4e ef ff ff 	lea    -0x10b2(%rbp),%rax
    ea6e:	48 89 85 b8 f5 ff ff 	mov    %rax,-0xa48(%rbp)
    ea75:	48 8d 85 4e ef ff ff 	lea    -0x10b2(%rbp),%rax
    ea7c:	48 89 85 c0 f5 ff ff 	mov    %rax,-0xa40(%rbp)
    ea83:	48 8d 05 06 96 00 00 	lea    0x9606(%rip),%rax        # 18090 <g_191>
    ea8a:	48 89 85 c8 f5 ff ff 	mov    %rax,-0xa38(%rbp)
    ea91:	48 8d 85 4e ef ff ff 	lea    -0x10b2(%rbp),%rax
    ea98:	48 89 85 d0 f5 ff ff 	mov    %rax,-0xa30(%rbp)
    ea9f:	48 8d 85 4e ef ff ff 	lea    -0x10b2(%rbp),%rax
    eaa6:	48 89 85 d8 f5 ff ff 	mov    %rax,-0xa28(%rbp)
    eaad:	48 8d 05 dc 95 00 00 	lea    0x95dc(%rip),%rax        # 18090 <g_191>
    eab4:	48 89 85 e0 f5 ff ff 	mov    %rax,-0xa20(%rbp)
    eabb:	48 8d 85 4e ef ff ff 	lea    -0x10b2(%rbp),%rax
    eac2:	48 89 85 e8 f5 ff ff 	mov    %rax,-0xa18(%rbp)
    eac9:	48 c7 85 f0 f5 ff ff 	movq   $0x0,-0xa10(%rbp)
    ead0:	00 00 00 00 
    ead4:	48 8d 85 4e ef ff ff 	lea    -0x10b2(%rbp),%rax
    eadb:	48 89 85 f8 f5 ff ff 	mov    %rax,-0xa08(%rbp)
    eae2:	48 8d 85 4e ef ff ff 	lea    -0x10b2(%rbp),%rax
    eae9:	48 89 85 00 f6 ff ff 	mov    %rax,-0xa00(%rbp)
    eaf0:	48 c7 85 08 f6 ff ff 	movq   $0x0,-0x9f8(%rbp)
    eaf7:	00 00 00 00 
    eafb:	48 8d 85 4e ef ff ff 	lea    -0x10b2(%rbp),%rax
    eb02:	48 89 85 10 f6 ff ff 	mov    %rax,-0x9f0(%rbp)
    eb09:	48 8d 85 4e ef ff ff 	lea    -0x10b2(%rbp),%rax
    eb10:	48 89 85 18 f6 ff ff 	mov    %rax,-0x9e8(%rbp)
    eb17:	48 8d 05 72 95 00 00 	lea    0x9572(%rip),%rax        # 18090 <g_191>
    eb1e:	48 89 85 20 f6 ff ff 	mov    %rax,-0x9e0(%rbp)
    eb25:	48 8d 05 64 95 00 00 	lea    0x9564(%rip),%rax        # 18090 <g_191>
    eb2c:	48 89 85 28 f6 ff ff 	mov    %rax,-0x9d8(%rbp)
    eb33:	48 8d 05 56 95 00 00 	lea    0x9556(%rip),%rax        # 18090 <g_191>
    eb3a:	48 89 85 30 f6 ff ff 	mov    %rax,-0x9d0(%rbp)
    eb41:	48 8d 05 48 95 00 00 	lea    0x9548(%rip),%rax        # 18090 <g_191>
    eb48:	48 89 85 38 f6 ff ff 	mov    %rax,-0x9c8(%rbp)
    eb4f:	48 8d 05 3a 95 00 00 	lea    0x953a(%rip),%rax        # 18090 <g_191>
    eb56:	48 89 85 40 f6 ff ff 	mov    %rax,-0x9c0(%rbp)
    eb5d:	48 8d 05 2c 95 00 00 	lea    0x952c(%rip),%rax        # 18090 <g_191>
    eb64:	48 89 85 48 f6 ff ff 	mov    %rax,-0x9b8(%rbp)
    eb6b:	48 8d 05 1e 95 00 00 	lea    0x951e(%rip),%rax        # 18090 <g_191>
    eb72:	48 89 85 50 f6 ff ff 	mov    %rax,-0x9b0(%rbp)
    eb79:	48 c7 85 58 f6 ff ff 	movq   $0x0,-0x9a8(%rbp)
    eb80:	00 00 00 00 
    eb84:	48 8d 85 4e ef ff ff 	lea    -0x10b2(%rbp),%rax
    eb8b:	48 89 85 60 f6 ff ff 	mov    %rax,-0x9a0(%rbp)
    eb92:	48 8d 85 4e ef ff ff 	lea    -0x10b2(%rbp),%rax
    eb99:	48 89 85 68 f6 ff ff 	mov    %rax,-0x998(%rbp)
    eba0:	48 c7 85 70 f6 ff ff 	movq   $0x0,-0x990(%rbp)
    eba7:	00 00 00 00 
    ebab:	48 8d 85 4e ef ff ff 	lea    -0x10b2(%rbp),%rax
    ebb2:	48 89 85 78 f6 ff ff 	mov    %rax,-0x988(%rbp)
    ebb9:	48 8d 85 4e ef ff ff 	lea    -0x10b2(%rbp),%rax
    ebc0:	48 89 85 80 f6 ff ff 	mov    %rax,-0x980(%rbp)
    ebc7:	48 c7 85 88 f6 ff ff 	movq   $0x0,-0x978(%rbp)
    ebce:	00 00 00 00 
    ebd2:	48 8d 85 4e ef ff ff 	lea    -0x10b2(%rbp),%rax
    ebd9:	48 89 85 90 f6 ff ff 	mov    %rax,-0x970(%rbp)
    ebe0:	48 8d 05 a9 94 00 00 	lea    0x94a9(%rip),%rax        # 18090 <g_191>
    ebe7:	48 89 85 98 f6 ff ff 	mov    %rax,-0x968(%rbp)
    ebee:	48 8d 85 4e ef ff ff 	lea    -0x10b2(%rbp),%rax
    ebf5:	48 89 85 a0 f6 ff ff 	mov    %rax,-0x960(%rbp)
    ebfc:	48 8d 85 4e ef ff ff 	lea    -0x10b2(%rbp),%rax
    ec03:	48 89 85 a8 f6 ff ff 	mov    %rax,-0x958(%rbp)
    ec0a:	48 8d 05 7f 94 00 00 	lea    0x947f(%rip),%rax        # 18090 <g_191>
    ec11:	48 89 85 b0 f6 ff ff 	mov    %rax,-0x950(%rbp)
    ec18:	48 8d 85 4e ef ff ff 	lea    -0x10b2(%rbp),%rax
    ec1f:	48 89 85 b8 f6 ff ff 	mov    %rax,-0x948(%rbp)
    ec26:	48 8d 85 4e ef ff ff 	lea    -0x10b2(%rbp),%rax
    ec2d:	48 89 85 c0 f6 ff ff 	mov    %rax,-0x940(%rbp)
    ec34:	48 c7 85 c8 f6 ff ff 	movq   $0x0,-0x938(%rbp)
    ec3b:	00 00 00 00 
    ec3f:	48 c7 85 d0 f6 ff ff 	movq   $0x0,-0x930(%rbp)
    ec46:	00 00 00 00 
    ec4a:	48 8d 85 4e ef ff ff 	lea    -0x10b2(%rbp),%rax
    ec51:	48 89 85 d8 f6 ff ff 	mov    %rax,-0x928(%rbp)
    ec58:	48 c7 85 e0 f6 ff ff 	movq   $0x0,-0x920(%rbp)
    ec5f:	00 00 00 00 
    ec63:	48 c7 85 e8 f6 ff ff 	movq   $0x0,-0x918(%rbp)
    ec6a:	00 00 00 00 
    ec6e:	48 8d 85 4e ef ff ff 	lea    -0x10b2(%rbp),%rax
    ec75:	48 89 85 f0 f6 ff ff 	mov    %rax,-0x910(%rbp)
    ec7c:	48 c7 85 f8 f6 ff ff 	movq   $0x0,-0x908(%rbp)
    ec83:	00 00 00 00 
    ec87:	48 8d 05 02 94 00 00 	lea    0x9402(%rip),%rax        # 18090 <g_191>
    ec8e:	48 89 85 00 f7 ff ff 	mov    %rax,-0x900(%rbp)
    ec95:	48 8d 85 4e ef ff ff 	lea    -0x10b2(%rbp),%rax
    ec9c:	48 89 85 08 f7 ff ff 	mov    %rax,-0x8f8(%rbp)
    eca3:	48 8d 85 4e ef ff ff 	lea    -0x10b2(%rbp),%rax
    ecaa:	48 89 85 10 f7 ff ff 	mov    %rax,-0x8f0(%rbp)
    ecb1:	48 8d 05 d8 93 00 00 	lea    0x93d8(%rip),%rax        # 18090 <g_191>
    ecb8:	48 89 85 18 f7 ff ff 	mov    %rax,-0x8e8(%rbp)
    ecbf:	48 8d 85 4e ef ff ff 	lea    -0x10b2(%rbp),%rax
    ecc6:	48 89 85 20 f7 ff ff 	mov    %rax,-0x8e0(%rbp)
    eccd:	48 8d 85 4e ef ff ff 	lea    -0x10b2(%rbp),%rax
    ecd4:	48 89 85 28 f7 ff ff 	mov    %rax,-0x8d8(%rbp)
    ecdb:	48 8d 05 ae 93 00 00 	lea    0x93ae(%rip),%rax        # 18090 <g_191>
    ece2:	48 89 85 30 f7 ff ff 	mov    %rax,-0x8d0(%rbp)
    ece9:	48 8d 85 4e ef ff ff 	lea    -0x10b2(%rbp),%rax
    ecf0:	48 89 85 38 f7 ff ff 	mov    %rax,-0x8c8(%rbp)
    ecf7:	48 c7 85 40 f7 ff ff 	movq   $0x0,-0x8c0(%rbp)
    ecfe:	00 00 00 00 
    ed02:	48 8d 85 4e ef ff ff 	lea    -0x10b2(%rbp),%rax
    ed09:	48 89 85 48 f7 ff ff 	mov    %rax,-0x8b8(%rbp)
    ed10:	48 8d 85 4e ef ff ff 	lea    -0x10b2(%rbp),%rax
    ed17:	48 89 85 50 f7 ff ff 	mov    %rax,-0x8b0(%rbp)
    ed1e:	48 c7 85 58 f7 ff ff 	movq   $0x0,-0x8a8(%rbp)
    ed25:	00 00 00 00 
    ed29:	48 8d 85 4e ef ff ff 	lea    -0x10b2(%rbp),%rax
    ed30:	48 89 85 60 f7 ff ff 	mov    %rax,-0x8a0(%rbp)
    ed37:	48 8d 85 4e ef ff ff 	lea    -0x10b2(%rbp),%rax
    ed3e:	48 89 85 68 f7 ff ff 	mov    %rax,-0x898(%rbp)
    ed45:	48 8d 05 44 93 00 00 	lea    0x9344(%rip),%rax        # 18090 <g_191>
    ed4c:	48 89 85 70 f7 ff ff 	mov    %rax,-0x890(%rbp)
    ed53:	48 8d 05 36 93 00 00 	lea    0x9336(%rip),%rax        # 18090 <g_191>
    ed5a:	48 89 85 78 f7 ff ff 	mov    %rax,-0x888(%rbp)
    ed61:	48 8d 05 28 93 00 00 	lea    0x9328(%rip),%rax        # 18090 <g_191>
    ed68:	48 89 85 80 f7 ff ff 	mov    %rax,-0x880(%rbp)
    ed6f:	48 8d 05 1a 93 00 00 	lea    0x931a(%rip),%rax        # 18090 <g_191>
    ed76:	48 89 85 88 f7 ff ff 	mov    %rax,-0x878(%rbp)
    ed7d:	48 8d 05 0c 93 00 00 	lea    0x930c(%rip),%rax        # 18090 <g_191>
    ed84:	48 89 85 90 f7 ff ff 	mov    %rax,-0x870(%rbp)
    ed8b:	48 8d 05 fe 92 00 00 	lea    0x92fe(%rip),%rax        # 18090 <g_191>
    ed92:	48 89 85 98 f7 ff ff 	mov    %rax,-0x868(%rbp)
    ed99:	48 8d 05 f0 92 00 00 	lea    0x92f0(%rip),%rax        # 18090 <g_191>
    eda0:	48 89 85 a0 f7 ff ff 	mov    %rax,-0x860(%rbp)
    eda7:	48 c7 85 a8 f7 ff ff 	movq   $0x0,-0x858(%rbp)
    edae:	00 00 00 00 
    edb2:	48 8d 85 4e ef ff ff 	lea    -0x10b2(%rbp),%rax
    edb9:	48 89 85 b0 f7 ff ff 	mov    %rax,-0x850(%rbp)
    edc0:	48 8d 85 4e ef ff ff 	lea    -0x10b2(%rbp),%rax
    edc7:	48 89 85 b8 f7 ff ff 	mov    %rax,-0x848(%rbp)
    edce:	48 c7 85 c0 f7 ff ff 	movq   $0x0,-0x840(%rbp)
    edd5:	00 00 00 00 
    edd9:	48 8d 85 4e ef ff ff 	lea    -0x10b2(%rbp),%rax
    ede0:	48 89 85 c8 f7 ff ff 	mov    %rax,-0x838(%rbp)
    ede7:	48 8d 85 4e ef ff ff 	lea    -0x10b2(%rbp),%rax
    edee:	48 89 85 d0 f7 ff ff 	mov    %rax,-0x830(%rbp)
    edf5:	48 c7 85 d8 f7 ff ff 	movq   $0x0,-0x828(%rbp)
    edfc:	00 00 00 00 
    ee00:	48 8b 85 30 f0 ff ff 	mov    -0xfd0(%rbp),%rax
    ee07:	8b 10                	mov    (%rax),%edx
    ee09:	48 83 bd b8 f0 ff ff 	cmpq   $0x0,-0xf48(%rbp)
    ee10:	00 
    ee11:	0f 94 c0             	sete   %al
    ee14:	0f b6 c0             	movzbl %al,%eax
    ee17:	21 c2                	and    %eax,%edx
    ee19:	48 8b 85 30 f0 ff ff 	mov    -0xfd0(%rbp),%rax
    ee20:	89 10                	mov    %edx,(%rax)
    ee22:	48 8b 85 30 f0 ff ff 	mov    -0xfd0(%rbp),%rax
    ee29:	8b 00                	mov    (%rax),%eax
    ee2b:	be 01 00 00 00       	mov    $0x1,%esi
    ee30:	89 c7                	mov    %eax,%edi
    ee32:	e8 99 b0 ff ff       	callq  9ed0 <safe_sub_func_uint32_t_u_u>
    ee37:	85 c0                	test   %eax,%eax
    ee39:	0f 84 9a 00 00 00    	je     eed9 <func_18+0x2740>
    ee3f:	8b 85 10 f3 ff ff    	mov    -0xcf0(%rbp),%eax
    ee45:	89 c3                	mov    %eax,%ebx
    ee47:	8b 95 10 f3 ff ff    	mov    -0xcf0(%rbp),%edx
    ee4d:	48 8b 85 28 ef ff ff 	mov    -0x10d8(%rbp),%rax
    ee54:	8b 00                	mov    (%rax),%eax
    ee56:	21 d0                	and    %edx,%eax
    ee58:	c7 85 58 ef ff ff 1c 	movl   $0x1c,-0x10a8(%rbp)
    ee5f:	00 00 00 
    ee62:	89 c6                	mov    %eax,%esi
    ee64:	bf 1c 00 00 00       	mov    $0x1c,%edi
    ee69:	e8 50 ae ff ff       	callq  9cbe <safe_rshift_func_uint8_t_u_u>
    ee6e:	48 8b 05 fb af 00 00 	mov    0xaffb(%rip),%rax        # 19e70 <g_470>
    ee75:	b9 00 00 00 00       	mov    $0x0,%ecx
    ee7a:	48 8b 85 18 f0 ff ff 	mov    -0xfe8(%rbp),%rax
    ee81:	48 89 05 40 c0 00 00 	mov    %rax,0xc040(%rip)        # 1aec8 <g_1048>
    ee88:	48 8b 05 39 c0 00 00 	mov    0xc039(%rip),%rax        # 1aec8 <g_1048>
    ee8f:	48 39 85 c0 f0 ff ff 	cmp    %rax,-0xf40(%rbp)
    ee96:	48 8b 85 70 f1 ff ff 	mov    -0xe90(%rbp),%rax
    ee9d:	0f b7 00             	movzwl (%rax),%eax
    eea0:	89 c2                	mov    %eax,%edx
    eea2:	89 c8                	mov    %ecx,%eax
    eea4:	09 d0                	or     %edx,%eax
    eea6:	89 c2                	mov    %eax,%edx
    eea8:	48 8b 85 70 f1 ff ff 	mov    -0xe90(%rbp),%rax
    eeaf:	66 89 10             	mov    %dx,(%rax)
    eeb2:	8b 85 54 ef ff ff    	mov    -0x10ac(%rbp),%eax
    eeb8:	85 c0                	test   %eax,%eax
    eeba:	0f 9f c0             	setg   %al
    eebd:	0f b6 c0             	movzbl %al,%eax
    eec0:	89 de                	mov    %ebx,%esi
    eec2:	89 c7                	mov    %eax,%edi
    eec4:	e8 9a a6 ff ff       	callq  9563 <safe_rshift_func_int16_t_s_u>
    eec9:	83 bd 7c ef ff ff 00 	cmpl   $0x0,-0x1084(%rbp)
    eed0:	74 07                	je     eed9 <func_18+0x2740>
    eed2:	b8 01 00 00 00       	mov    $0x1,%eax
    eed7:	eb 05                	jmp    eede <func_18+0x2745>
    eed9:	b8 00 00 00 00       	mov    $0x0,%eax
    eede:	89 85 9c ef ff ff    	mov    %eax,-0x1064(%rbp)
    eee4:	0f b6 05 ce 91 00 00 	movzbl 0x91ce(%rip),%eax        # 180b9 <g_607+0x1>
    eeeb:	0f be c0             	movsbl %al,%eax
    eeee:	39 85 9c ef ff ff    	cmp    %eax,-0x1064(%rbp)
    eef4:	74 07                	je     eefd <func_18+0x2764>
    eef6:	ba 35 7a b6 2e       	mov    $0x2eb67a35,%edx
    eefb:	eb 05                	jmp    ef02 <func_18+0x2769>
    eefd:	ba 34 7a b6 2e       	mov    $0x2eb67a34,%edx
    ef02:	48 b8 9b 88 cc 81 72 	movabs $0x32d8287281cc889b,%rax
    ef09:	28 d8 32 
    ef0c:	21 d0                	and    %edx,%eax
    ef0e:	89 c2                	mov    %eax,%edx
    ef10:	48 8b 85 30 ef ff ff 	mov    -0x10d0(%rbp),%rax
    ef17:	89 10                	mov    %edx,(%rax)
    ef19:	0f b7 05 74 91 00 00 	movzwl 0x9174(%rip),%eax        # 18094 <g_201>
    ef20:	98                   	cwtl   
    ef21:	e9 cc 0c 00 00       	jmpq   fbf2 <func_18+0x3459>
    ef26:	48 8d 05 13 91 00 00 	lea    0x9113(%rip),%rax        # 18040 <g_57>
    ef2d:	48 89 85 08 f0 ff ff 	mov    %rax,-0xff8(%rbp)
    ef34:	48 8d 85 08 f0 ff ff 	lea    -0xff8(%rbp),%rax
    ef3b:	48 89 85 d0 f0 ff ff 	mov    %rax,-0xf30(%rbp)
    ef42:	48 c7 85 d8 f0 ff ff 	movq   $0x0,-0xf28(%rbp)
    ef49:	00 00 00 00 
    ef4d:	48 8d 85 c0 f2 ff ff 	lea    -0xd40(%rbp),%rax
    ef54:	48 83 c0 40          	add    $0x40,%rax
    ef58:	48 89 85 10 f0 ff ff 	mov    %rax,-0xff0(%rbp)
    ef5f:	48 c7 85 e0 f0 ff ff 	movq   $0x0,-0xf20(%rbp)
    ef66:	00 00 00 00 
    ef6a:	c7 85 a4 ef ff ff fe 	movl   $0x82eb98fe,-0x105c(%rbp)
    ef71:	98 eb 82 
    ef74:	c7 85 a8 ef ff ff e0 	movl   $0xa79be5e0,-0x1058(%rbp)
    ef7b:	e5 9b a7 
    ef7e:	c7 85 ac ef ff ff ff 	movl   $0xffffffff,-0x1054(%rbp)
    ef85:	ff ff ff 
    ef88:	c7 85 b0 ef ff ff ff 	movl   $0xffffffff,-0x1050(%rbp)
    ef8f:	ff ff ff 
    ef92:	c6 85 4c ef ff ff fd 	movb   $0xfd,-0x10b4(%rbp)
    ef99:	c7 85 6c ef ff ff 00 	movl   $0x0,-0x1094(%rbp)
    efa0:	00 00 00 
    efa3:	eb 1e                	jmp    efc3 <func_18+0x282a>
    efa5:	8b 85 6c ef ff ff    	mov    -0x1094(%rbp),%eax
    efab:	48 98                	cltq   
    efad:	48 8d 15 ac 90 00 00 	lea    0x90ac(%rip),%rdx        # 18060 <g_83>
    efb4:	48 89 94 c5 80 f1 ff 	mov    %rdx,-0xe80(%rbp,%rax,8)
    efbb:	ff 
    efbc:	83 85 6c ef ff ff 01 	addl   $0x1,-0x1094(%rbp)
    efc3:	83 bd 6c ef ff ff 00 	cmpl   $0x0,-0x1094(%rbp)
    efca:	7e d9                	jle    efa5 <func_18+0x280c>
    efcc:	c7 85 6c ef ff ff 00 	movl   $0x0,-0x1094(%rbp)
    efd3:	00 00 00 
    efd6:	eb 1e                	jmp    eff6 <func_18+0x285d>
    efd8:	8b 85 6c ef ff ff    	mov    -0x1094(%rbp),%eax
    efde:	48 98                	cltq   
    efe0:	48 8d 95 80 f1 ff ff 	lea    -0xe80(%rbp),%rdx
    efe7:	48 89 94 c5 c0 f2 ff 	mov    %rdx,-0xd40(%rbp,%rax,8)
    efee:	ff 
    efef:	83 85 6c ef ff ff 01 	addl   $0x1,-0x1094(%rbp)
    eff6:	83 bd 6c ef ff ff 09 	cmpl   $0x9,-0x1094(%rbp)
    effd:	7e d9                	jle    efd8 <func_18+0x283f>
    efff:	48 8b 95 08 f0 ff ff 	mov    -0xff8(%rbp),%rdx
    f006:	48 8b 85 d0 f0 ff ff 	mov    -0xf30(%rbp),%rax
    f00d:	48 89 10             	mov    %rdx,(%rax)
    f010:	48 8b 05 61 bd 00 00 	mov    0xbd61(%rip),%rax        # 1ad78 <g_575>
    f017:	c7 00 2a a0 33 72    	movl   $0x7233a02a,(%rax)
    f01d:	48 c7 05 38 90 00 00 	movq   $0xffffffffffffffe5,0x9038(%rip)        # 18060 <g_83>
    f024:	e5 ff ff ff 
    f028:	e9 ae 0b 00 00       	jmpq   fbdb <func_18+0x3442>
    f02d:	48 c7 85 18 f0 ff ff 	movq   $0x0,-0xfe8(%rbp)
    f034:	00 00 00 00 
    f038:	48 8d 85 18 f0 ff ff 	lea    -0xfe8(%rbp),%rax
    f03f:	48 89 85 e8 f0 ff ff 	mov    %rax,-0xf18(%rbp)
    f046:	c7 85 b4 ef ff ff 07 	movl   $0x7,-0x104c(%rbp)
    f04d:	00 00 00 
    f050:	48 8d 05 e1 8f 00 00 	lea    0x8fe1(%rip),%rax        # 18038 <g_55>
    f057:	48 89 85 f0 f0 ff ff 	mov    %rax,-0xf10(%rbp)
    f05e:	48 8d 05 0b bd 00 00 	lea    0xbd0b(%rip),%rax        # 1ad70 <g_556>
    f065:	48 89 85 f8 f0 ff ff 	mov    %rax,-0xf08(%rbp)
    f06c:	c7 85 b8 ef ff ff f4 	movl   $0x3688d6f4,-0x1048(%rbp)
    f073:	d6 88 36 
    f076:	c7 85 bc ef ff ff 08 	movl   $0x8,-0x1044(%rbp)
    f07d:	00 00 00 
    f080:	c7 85 c0 ef ff ff 00 	movl   $0x0,-0x1040(%rbp)
    f087:	00 00 00 
    f08a:	c7 85 c4 ef ff ff fc 	movl   $0xfffffffc,-0x103c(%rbp)
    f091:	ff ff ff 
    f094:	c7 85 c8 ef ff ff 87 	movl   $0x8a1ff687,-0x1038(%rbp)
    f09b:	f6 1f 8a 
    f09e:	c7 85 70 ef ff ff fc 	movl   $0xfffffffc,-0x1090(%rbp)
    f0a5:	ff ff ff 
    f0a8:	c7 85 74 ef ff ff 00 	movl   $0x0,-0x108c(%rbp)
    f0af:	00 00 00 
    f0b2:	eb 1e                	jmp    f0d2 <func_18+0x2939>
    f0b4:	8b 85 74 ef ff ff    	mov    -0x108c(%rbp),%eax
    f0ba:	48 98                	cltq   
    f0bc:	48 8d 15 c9 8f 00 00 	lea    0x8fc9(%rip),%rdx        # 1808c <g_176>
    f0c3:	48 89 94 c5 88 f1 ff 	mov    %rdx,-0xe78(%rbp,%rax,8)
    f0ca:	ff 
    f0cb:	83 85 74 ef ff ff 01 	addl   $0x1,-0x108c(%rbp)
    f0d2:	83 bd 74 ef ff ff 00 	cmpl   $0x0,-0x108c(%rbp)
    f0d9:	7e d9                	jle    f0b4 <func_18+0x291b>
    f0db:	be de 00 00 00       	mov    $0xde,%esi
    f0e0:	bf ff 00 00 00       	mov    $0xff,%edi
    f0e5:	e8 a9 aa ff ff       	callq  9b93 <safe_mul_func_uint8_t_u_u>
    f0ea:	0f b6 d0             	movzbl %al,%edx
    f0ed:	48 8b 85 38 ef ff ff 	mov    -0x10c8(%rbp),%rax
    f0f4:	8b 00                	mov    (%rax),%eax
    f0f6:	39 85 9c ef ff ff    	cmp    %eax,-0x1064(%rbp)
    f0fc:	0f 9d c0             	setge  %al
    f0ff:	0f b6 c0             	movzbl %al,%eax
    f102:	89 85 54 ef ff ff    	mov    %eax,-0x10ac(%rbp)
    f108:	8b 85 54 ef ff ff    	mov    -0x10ac(%rbp),%eax
    f10e:	39 85 9c ef ff ff    	cmp    %eax,-0x1064(%rbp)
    f114:	0f 9f c0             	setg   %al
    f117:	0f b6 c0             	movzbl %al,%eax
    f11a:	48 89 d6             	mov    %rdx,%rsi
    f11d:	48 89 c7             	mov    %rax,%rdi
    f120:	e8 09 af ff ff       	callq  a02e <safe_add_func_uint64_t_u_u>
    f125:	8b 15 21 8f 00 00    	mov    0x8f21(%rip),%edx        # 1804c <g_57+0xc>
    f12b:	48 63 d2             	movslq %edx,%rdx
    f12e:	48 39 d0             	cmp    %rdx,%rax
    f131:	76 09                	jbe    f13c <func_18+0x29a3>
    f133:	83 bd 9c ef ff ff 00 	cmpl   $0x0,-0x1064(%rbp)
    f13a:	74 07                	je     f143 <func_18+0x29aa>
    f13c:	ba 01 00 00 00       	mov    $0x1,%edx
    f141:	eb 05                	jmp    f148 <func_18+0x29af>
    f143:	ba 00 00 00 00       	mov    $0x0,%edx
    f148:	48 8b 05 29 bc 00 00 	mov    0xbc29(%rip),%rax        # 1ad78 <g_575>
    f14f:	89 10                	mov    %edx,(%rax)
    f151:	8b 10                	mov    (%rax),%edx
    f153:	48 8b 85 f0 f0 ff ff 	mov    -0xf10(%rbp),%rax
    f15a:	89 10                	mov    %edx,(%rax)
    f15c:	48 8b 85 f0 f0 ff ff 	mov    -0xf10(%rbp),%rax
    f163:	8b 00                	mov    (%rax),%eax
    f165:	85 c0                	test   %eax,%eax
    f167:	0f 84 e3 06 00 00    	je     f850 <func_18+0x30b7>
    f16d:	48 c7 85 48 f1 ff ff 	movq   $0xfffffffffffffffb,-0xeb8(%rbp)
    f174:	fb ff ff ff 
    f178:	48 8b 05 f9 bb 00 00 	mov    0xbbf9(%rip),%rax        # 1ad78 <g_575>
    f17f:	c7 00 2d 9a e5 2d    	movl   $0x2de59a2d,(%rax)
    f185:	8b 10                	mov    (%rax),%edx
    f187:	48 8b 85 f0 f0 ff ff 	mov    -0xf10(%rbp),%rax
    f18e:	89 10                	mov    %edx,(%rax)
    f190:	48 8b 85 38 f0 ff ff 	mov    -0xfc8(%rbp),%rax
    f197:	48 8b 00             	mov    (%rax),%rax
    f19a:	8b 10                	mov    (%rax),%edx
    f19c:	48 8b 85 38 f0 ff ff 	mov    -0xfc8(%rbp),%rax
    f1a3:	48 8b 00             	mov    (%rax),%rax
    f1a6:	0b 95 98 ef ff ff    	or     -0x1068(%rbp),%edx
    f1ac:	89 10                	mov    %edx,(%rax)
    f1ae:	48 8b 85 28 ef ff ff 	mov    -0x10d8(%rbp),%rax
    f1b5:	8b 18                	mov    (%rax),%ebx
    f1b7:	48 8d 05 62 c6 00 00 	lea    0xc662(%rip),%rax        # 1b820 <g_1049>
    f1be:	48 39 85 c0 f0 ff ff 	cmp    %rax,-0xf40(%rbp)
    f1c5:	0f 95 c0             	setne  %al
    f1c8:	44 0f b6 e0          	movzbl %al,%r12d
    f1cc:	48 8b 05 9d bb 00 00 	mov    0xbb9d(%rip),%rax        # 1ad70 <g_556>
    f1d3:	48 8b 00             	mov    (%rax),%rax
    f1d6:	0f b6 00             	movzbl (%rax),%eax
    f1d9:	0f be c0             	movsbl %al,%eax
    f1dc:	89 c6                	mov    %eax,%esi
    f1de:	bf f7 00 00 00       	mov    $0xf7,%edi
    f1e3:	e8 a5 aa ff ff       	callq  9c8d <safe_rshift_func_uint8_t_u_s>
    f1e8:	0f b6 c0             	movzbl %al,%eax
    f1eb:	41 39 c4             	cmp    %eax,%r12d
    f1ee:	0f 94 c0             	sete   %al
    f1f1:	0f b6 c0             	movzbl %al,%eax
    f1f4:	be 01 00 00 00       	mov    $0x1,%esi
    f1f9:	89 c7                	mov    %eax,%edi
    f1fb:	e8 b6 a3 ff ff       	callq  95b6 <safe_add_func_int32_t_s_s>
    f200:	89 de                	mov    %ebx,%esi
    f202:	89 c7                	mov    %eax,%edi
    f204:	e8 c3 a4 ff ff       	callq  96cc <safe_mod_func_int32_t_s_s>
    f209:	48 8b 95 f0 f0 ff ff 	mov    -0xf10(%rbp),%rdx
    f210:	8b 12                	mov    (%rdx),%edx
    f212:	31 c2                	xor    %eax,%edx
    f214:	48 8b 85 f0 f0 ff ff 	mov    -0xf10(%rbp),%rax
    f21b:	89 10                	mov    %edx,(%rax)
    f21d:	48 8b 85 f0 f0 ff ff 	mov    -0xf10(%rbp),%rax
    f224:	8b 00                	mov    (%rax),%eax
    f226:	0f bf d0             	movswl %ax,%edx
    f229:	48 8b 05 c8 ab 00 00 	mov    0xabc8(%rip),%rax        # 19df8 <g_407>
    f230:	8b 05 ee 8d 00 00    	mov    0x8dee(%rip),%eax        # 18024 <g_2>
    f236:	98                   	cwtl   
    f237:	89 d6                	mov    %edx,%esi
    f239:	89 c7                	mov    %eax,%edi
    f23b:	e8 b5 a1 ff ff       	callq  93f5 <safe_mul_func_int16_t_s_s>
    f240:	48 8b 85 08 f0 ff ff 	mov    -0xff8(%rbp),%rax
    f247:	8b 00                	mov    (%rax),%eax
    f249:	85 c0                	test   %eax,%eax
    f24b:	74 07                	je     f254 <func_18+0x2abb>
    f24d:	b8 01 00 00 00       	mov    $0x1,%eax
    f252:	eb 05                	jmp    f259 <func_18+0x2ac0>
    f254:	b8 00 00 00 00       	mov    $0x0,%eax
    f259:	48 98                	cltq   
    f25b:	48 89 85 48 f1 ff ff 	mov    %rax,-0xeb8(%rbp)
    f262:	48 83 bd 48 f1 ff ff 	cmpq   $0x0,-0xeb8(%rbp)
    f269:	00 
    f26a:	74 29                	je     f295 <func_18+0x2afc>
    f26c:	48 8b 85 f0 f0 ff ff 	mov    -0xf10(%rbp),%rax
    f273:	8b 10                	mov    (%rax),%edx
    f275:	0f b6 05 1a 8e 00 00 	movzbl 0x8e1a(%rip),%eax        # 18096 <g_251>
    f27c:	0f b6 c0             	movzbl %al,%eax
    f27f:	39 c2                	cmp    %eax,%edx
    f281:	0f 9c c2             	setl   %dl
    f284:	48 8b 05 ed ba 00 00 	mov    0xbaed(%rip),%rax        # 1ad78 <g_575>
    f28b:	0f b6 d2             	movzbl %dl,%edx
    f28e:	89 10                	mov    %edx,(%rax)
    f290:	e9 34 09 00 00       	jmpq   fbc9 <func_18+0x3430>
    f295:	48 c7 85 40 f8 ff ff 	movq   $0x0,-0x7c0(%rbp)
    f29c:	00 00 00 00 
    f2a0:	48 c7 85 48 f8 ff ff 	movq   $0x0,-0x7b8(%rbp)
    f2a7:	00 00 00 00 
    f2ab:	48 c7 85 50 f8 ff ff 	movq   $0x0,-0x7b0(%rbp)
    f2b2:	00 00 00 00 
    f2b6:	48 8d 85 f0 ef ff ff 	lea    -0x1010(%rbp),%rax
    f2bd:	48 89 85 58 f8 ff ff 	mov    %rax,-0x7a8(%rbp)
    f2c4:	48 8d 85 f0 ef ff ff 	lea    -0x1010(%rbp),%rax
    f2cb:	48 89 85 60 f8 ff ff 	mov    %rax,-0x7a0(%rbp)
    f2d2:	48 8d 85 f0 ef ff ff 	lea    -0x1010(%rbp),%rax
    f2d9:	48 89 85 68 f8 ff ff 	mov    %rax,-0x798(%rbp)
    f2e0:	48 c7 85 70 f8 ff ff 	movq   $0x0,-0x790(%rbp)
    f2e7:	00 00 00 00 
    f2eb:	48 c7 85 78 f8 ff ff 	movq   $0x0,-0x788(%rbp)
    f2f2:	00 00 00 00 
    f2f6:	48 c7 85 80 f8 ff ff 	movq   $0x0,-0x780(%rbp)
    f2fd:	00 00 00 00 
    f301:	48 8d 85 f0 ef ff ff 	lea    -0x1010(%rbp),%rax
    f308:	48 89 85 88 f8 ff ff 	mov    %rax,-0x778(%rbp)
    f30f:	48 8d 85 f0 ef ff ff 	lea    -0x1010(%rbp),%rax
    f316:	48 89 85 90 f8 ff ff 	mov    %rax,-0x770(%rbp)
    f31d:	48 8d 85 f0 ef ff ff 	lea    -0x1010(%rbp),%rax
    f324:	48 89 85 98 f8 ff ff 	mov    %rax,-0x768(%rbp)
    f32b:	48 c7 85 a0 f8 ff ff 	movq   $0x0,-0x760(%rbp)
    f332:	00 00 00 00 
    f336:	48 c7 85 a8 f8 ff ff 	movq   $0x0,-0x758(%rbp)
    f33d:	00 00 00 00 
    f341:	48 c7 85 b0 f8 ff ff 	movq   $0x0,-0x750(%rbp)
    f348:	00 00 00 00 
    f34c:	48 8d 85 f0 ef ff ff 	lea    -0x1010(%rbp),%rax
    f353:	48 89 85 b8 f8 ff ff 	mov    %rax,-0x748(%rbp)
    f35a:	48 8d 85 f0 ef ff ff 	lea    -0x1010(%rbp),%rax
    f361:	48 89 85 c0 f8 ff ff 	mov    %rax,-0x740(%rbp)
    f368:	48 8d 85 f0 ef ff ff 	lea    -0x1010(%rbp),%rax
    f36f:	48 89 85 c8 f8 ff ff 	mov    %rax,-0x738(%rbp)
    f376:	48 c7 85 d0 f8 ff ff 	movq   $0x0,-0x730(%rbp)
    f37d:	00 00 00 00 
    f381:	48 c7 85 d8 f8 ff ff 	movq   $0x0,-0x728(%rbp)
    f388:	00 00 00 00 
    f38c:	48 c7 85 e0 f8 ff ff 	movq   $0x0,-0x720(%rbp)
    f393:	00 00 00 00 
    f397:	48 8d 85 f0 ef ff ff 	lea    -0x1010(%rbp),%rax
    f39e:	48 89 85 e8 f8 ff ff 	mov    %rax,-0x718(%rbp)
    f3a5:	48 8d 85 f0 ef ff ff 	lea    -0x1010(%rbp),%rax
    f3ac:	48 89 85 f0 f8 ff ff 	mov    %rax,-0x710(%rbp)
    f3b3:	48 8d 85 f0 ef ff ff 	lea    -0x1010(%rbp),%rax
    f3ba:	48 89 85 f8 f8 ff ff 	mov    %rax,-0x708(%rbp)
    f3c1:	48 c7 85 00 f9 ff ff 	movq   $0x0,-0x700(%rbp)
    f3c8:	00 00 00 00 
    f3cc:	48 c7 85 08 f9 ff ff 	movq   $0x0,-0x6f8(%rbp)
    f3d3:	00 00 00 00 
    f3d7:	48 c7 85 10 f9 ff ff 	movq   $0x0,-0x6f0(%rbp)
    f3de:	00 00 00 00 
    f3e2:	48 8d 85 f0 ef ff ff 	lea    -0x1010(%rbp),%rax
    f3e9:	48 89 85 18 f9 ff ff 	mov    %rax,-0x6e8(%rbp)
    f3f0:	48 8d 85 f0 ef ff ff 	lea    -0x1010(%rbp),%rax
    f3f7:	48 89 85 20 f9 ff ff 	mov    %rax,-0x6e0(%rbp)
    f3fe:	48 8d 85 f0 ef ff ff 	lea    -0x1010(%rbp),%rax
    f405:	48 89 85 28 f9 ff ff 	mov    %rax,-0x6d8(%rbp)
    f40c:	48 c7 85 30 f9 ff ff 	movq   $0x0,-0x6d0(%rbp)
    f413:	00 00 00 00 
    f417:	48 c7 85 38 f9 ff ff 	movq   $0x0,-0x6c8(%rbp)
    f41e:	00 00 00 00 
    f422:	48 c7 85 40 f9 ff ff 	movq   $0x0,-0x6c0(%rbp)
    f429:	00 00 00 00 
    f42d:	48 8d 85 f0 ef ff ff 	lea    -0x1010(%rbp),%rax
    f434:	48 89 85 48 f9 ff ff 	mov    %rax,-0x6b8(%rbp)
    f43b:	48 8d 85 f0 ef ff ff 	lea    -0x1010(%rbp),%rax
    f442:	48 89 85 50 f9 ff ff 	mov    %rax,-0x6b0(%rbp)
    f449:	48 8d 85 f0 ef ff ff 	lea    -0x1010(%rbp),%rax
    f450:	48 89 85 58 f9 ff ff 	mov    %rax,-0x6a8(%rbp)
    f457:	48 c7 85 60 f9 ff ff 	movq   $0x0,-0x6a0(%rbp)
    f45e:	00 00 00 00 
    f462:	48 c7 85 68 f9 ff ff 	movq   $0x0,-0x698(%rbp)
    f469:	00 00 00 00 
    f46d:	48 c7 85 70 f9 ff ff 	movq   $0x0,-0x690(%rbp)
    f474:	00 00 00 00 
    f478:	48 8d 85 f0 ef ff ff 	lea    -0x1010(%rbp),%rax
    f47f:	48 89 85 78 f9 ff ff 	mov    %rax,-0x688(%rbp)
    f486:	48 8d 85 f0 ef ff ff 	lea    -0x1010(%rbp),%rax
    f48d:	48 89 85 80 f9 ff ff 	mov    %rax,-0x680(%rbp)
    f494:	48 8d 85 f0 ef ff ff 	lea    -0x1010(%rbp),%rax
    f49b:	48 89 85 88 f9 ff ff 	mov    %rax,-0x678(%rbp)
    f4a2:	48 c7 85 90 f9 ff ff 	movq   $0x0,-0x670(%rbp)
    f4a9:	00 00 00 00 
    f4ad:	48 c7 85 98 f9 ff ff 	movq   $0x0,-0x668(%rbp)
    f4b4:	00 00 00 00 
    f4b8:	48 c7 85 a0 f9 ff ff 	movq   $0x0,-0x660(%rbp)
    f4bf:	00 00 00 00 
    f4c3:	48 8d 85 f0 ef ff ff 	lea    -0x1010(%rbp),%rax
    f4ca:	48 89 85 a8 f9 ff ff 	mov    %rax,-0x658(%rbp)
    f4d1:	48 8d 85 f0 ef ff ff 	lea    -0x1010(%rbp),%rax
    f4d8:	48 89 85 b0 f9 ff ff 	mov    %rax,-0x650(%rbp)
    f4df:	48 8d 85 f0 ef ff ff 	lea    -0x1010(%rbp),%rax
    f4e6:	48 89 85 b8 f9 ff ff 	mov    %rax,-0x648(%rbp)
    f4ed:	48 c7 85 c0 f9 ff ff 	movq   $0x0,-0x640(%rbp)
    f4f4:	00 00 00 00 
    f4f8:	48 c7 85 c8 f9 ff ff 	movq   $0x0,-0x638(%rbp)
    f4ff:	00 00 00 00 
    f503:	48 c7 85 d0 f9 ff ff 	movq   $0x0,-0x630(%rbp)
    f50a:	00 00 00 00 
    f50e:	48 8d 85 f0 ef ff ff 	lea    -0x1010(%rbp),%rax
    f515:	48 89 85 d8 f9 ff ff 	mov    %rax,-0x628(%rbp)
    f51c:	48 8d 85 f0 ef ff ff 	lea    -0x1010(%rbp),%rax
    f523:	48 89 85 e0 f9 ff ff 	mov    %rax,-0x620(%rbp)
    f52a:	48 8d 85 f0 ef ff ff 	lea    -0x1010(%rbp),%rax
    f531:	48 89 85 e8 f9 ff ff 	mov    %rax,-0x618(%rbp)
    f538:	48 8d 85 40 f8 ff ff 	lea    -0x7c0(%rbp),%rax
    f53f:	48 05 58 01 00 00    	add    $0x158,%rax
    f545:	48 89 85 50 f1 ff ff 	mov    %rax,-0xeb0(%rbp)
    f54c:	48 c7 85 10 f3 ff ff 	movq   $0x0,-0xcf0(%rbp)
    f553:	00 00 00 00 
    f557:	48 8d 85 10 f0 ff ff 	lea    -0xff0(%rbp),%rax
    f55e:	48 89 85 18 f3 ff ff 	mov    %rax,-0xce8(%rbp)
    f565:	48 8d 85 10 f0 ff ff 	lea    -0xff0(%rbp),%rax
    f56c:	48 89 85 20 f3 ff ff 	mov    %rax,-0xce0(%rbp)
    f573:	48 c7 85 28 f3 ff ff 	movq   $0x0,-0xcd8(%rbp)
    f57a:	00 00 00 00 
    f57e:	48 8d 85 10 f0 ff ff 	lea    -0xff0(%rbp),%rax
    f585:	48 89 85 30 f3 ff ff 	mov    %rax,-0xcd0(%rbp)
    f58c:	48 8d 85 10 f0 ff ff 	lea    -0xff0(%rbp),%rax
    f593:	48 89 85 38 f3 ff ff 	mov    %rax,-0xcc8(%rbp)
    f59a:	48 8d 85 10 f0 ff ff 	lea    -0xff0(%rbp),%rax
    f5a1:	48 89 85 40 f3 ff ff 	mov    %rax,-0xcc0(%rbp)
    f5a8:	48 8d 85 10 f0 ff ff 	lea    -0xff0(%rbp),%rax
    f5af:	48 89 85 48 f3 ff ff 	mov    %rax,-0xcb8(%rbp)
    f5b6:	48 8d 85 10 f0 ff ff 	lea    -0xff0(%rbp),%rax
    f5bd:	48 89 85 50 f3 ff ff 	mov    %rax,-0xcb0(%rbp)
    f5c4:	48 8d 85 10 f0 ff ff 	lea    -0xff0(%rbp),%rax
    f5cb:	48 89 85 58 f3 ff ff 	mov    %rax,-0xca8(%rbp)
    f5d2:	48 c7 85 60 f3 ff ff 	movq   $0x0,-0xca0(%rbp)
    f5d9:	00 00 00 00 
    f5dd:	48 8d 85 10 f0 ff ff 	lea    -0xff0(%rbp),%rax
    f5e4:	48 89 85 68 f3 ff ff 	mov    %rax,-0xc98(%rbp)
    f5eb:	48 8d 85 10 f0 ff ff 	lea    -0xff0(%rbp),%rax
    f5f2:	48 89 85 70 f3 ff ff 	mov    %rax,-0xc90(%rbp)
    f5f9:	48 c7 85 78 f3 ff ff 	movq   $0x0,-0xc88(%rbp)
    f600:	00 00 00 00 
    f604:	48 8d 85 10 f0 ff ff 	lea    -0xff0(%rbp),%rax
    f60b:	48 89 85 80 f3 ff ff 	mov    %rax,-0xc80(%rbp)
    f612:	48 8d 85 10 f0 ff ff 	lea    -0xff0(%rbp),%rax
    f619:	48 89 85 88 f3 ff ff 	mov    %rax,-0xc78(%rbp)
    f620:	48 8d 85 10 f0 ff ff 	lea    -0xff0(%rbp),%rax
    f627:	48 89 85 90 f3 ff ff 	mov    %rax,-0xc70(%rbp)
    f62e:	48 8d 85 10 f0 ff ff 	lea    -0xff0(%rbp),%rax
    f635:	48 89 85 98 f3 ff ff 	mov    %rax,-0xc68(%rbp)
    f63c:	48 8d 85 10 f0 ff ff 	lea    -0xff0(%rbp),%rax
    f643:	48 89 85 a0 f3 ff ff 	mov    %rax,-0xc60(%rbp)
    f64a:	48 8d 85 10 f0 ff ff 	lea    -0xff0(%rbp),%rax
    f651:	48 89 85 a8 f3 ff ff 	mov    %rax,-0xc58(%rbp)
    f658:	48 c7 85 58 f1 ff ff 	movq   $0x0,-0xea8(%rbp)
    f65f:	00 00 00 00 
    f663:	48 c7 85 60 f1 ff ff 	movq   $0x0,-0xea0(%rbp)
    f66a:	00 00 00 00 
    f66e:	48 8d 95 b0 f5 ff ff 	lea    -0xa50(%rbp),%rdx
    f675:	b8 00 00 00 00       	mov    $0x0,%eax
    f67a:	b9 1e 00 00 00       	mov    $0x1e,%ecx
    f67f:	48 89 d7             	mov    %rdx,%rdi
    f682:	f3 48 ab             	rep stos %rax,%es:(%rdi)
    f685:	c7 85 dc ef ff ff 6f 	movl   $0x3585d76f,-0x1024(%rbp)
    f68c:	d7 85 35 
    f68f:	48 c7 85 68 f1 ff ff 	movq   $0x0,-0xe98(%rbp)
    f696:	00 00 00 00 
    f69a:	c7 85 78 ef ff ff 00 	movl   $0x0,-0x1088(%rbp)
    f6a1:	00 00 00 
    f6a4:	eb 1a                	jmp    f6c0 <func_18+0x2f27>
    f6a6:	8b 85 78 ef ff ff    	mov    -0x1088(%rbp),%eax
    f6ac:	48 98                	cltq   
    f6ae:	c7 84 85 f0 f1 ff ff 	movl   $0xfffffffb,-0xe10(%rbp,%rax,4)
    f6b5:	fb ff ff ff 
    f6b9:	83 85 78 ef ff ff 01 	addl   $0x1,-0x1088(%rbp)
    f6c0:	83 bd 78 ef ff ff 05 	cmpl   $0x5,-0x1088(%rbp)
    f6c7:	7e dd                	jle    f6a6 <func_18+0x2f0d>
    f6c9:	8b 85 f8 f1 ff ff    	mov    -0xe08(%rbp),%eax
    f6cf:	0f b6 d8             	movzbl %al,%ebx
    f6d2:	8b 85 f8 f1 ff ff    	mov    -0xe08(%rbp),%eax
    f6d8:	4c 63 e0             	movslq %eax,%r12
    f6db:	48 8b 05 96 b6 00 00 	mov    0xb696(%rip),%rax        # 1ad78 <g_575>
    f6e2:	44 8b 28             	mov    (%rax),%r13d
    f6e5:	48 8b 85 d0 f0 ff ff 	mov    -0xf30(%rbp),%rax
    f6ec:	48 8b 00             	mov    (%rax),%rax
    f6ef:	44 8b 38             	mov    (%rax),%r15d
    f6f2:	8b 05 ac 89 00 00    	mov    0x89ac(%rip),%eax        # 180a4 <g_460>
    f6f8:	44 0f bf f0          	movswl %ax,%r14d
    f6fc:	48 8b 85 10 f0 ff ff 	mov    -0xff0(%rbp),%rax
    f703:	48 89 05 4e c1 00 00 	mov    %rax,0xc14e(%rip)        # 1b858 <g_1105+0x18>
    f70a:	48 8b 85 38 ef ff ff 	mov    -0x10c8(%rbp),%rax
    f711:	8b 10                	mov    (%rax),%edx
    f713:	48 c7 05 6a b8 00 00 	movq   $0x0,0xb86a(%rip)        # 1af88 <g_1111+0xa8>
    f71a:	00 00 00 00 
    f71e:	48 8b 85 88 f1 ff ff 	mov    -0xe78(%rbp),%rax
    f725:	48 85 c0             	test   %rax,%rax
    f728:	0f 95 c0             	setne  %al
    f72b:	0f b6 c8             	movzbl %al,%ecx
    f72e:	48 8b 85 f0 f0 ff ff 	mov    -0xf10(%rbp),%rax
    f735:	89 08                	mov    %ecx,(%rax)
    f737:	48 8b 85 f0 f0 ff ff 	mov    -0xf10(%rbp),%rax
    f73e:	8b 00                	mov    (%rax),%eax
    f740:	89 d6                	mov    %edx,%esi
    f742:	89 c7                	mov    %eax,%edi
    f744:	e8 b6 9f ff ff       	callq  96ff <safe_div_func_int32_t_s_s>
    f749:	0f b6 c0             	movzbl %al,%eax
    f74c:	66 89 05 3d 89 00 00 	mov    %ax,0x893d(%rip)        # 18090 <g_191>
    f753:	0f b7 05 36 89 00 00 	movzwl 0x8936(%rip),%eax        # 18090 <g_191>
    f75a:	98                   	cwtl   
    f75b:	44 89 f6             	mov    %r14d,%esi
    f75e:	89 c7                	mov    %eax,%edi
    f760:	e8 90 9c ff ff       	callq  93f5 <safe_mul_func_int16_t_s_s>
    f765:	98                   	cwtl   
    f766:	89 c6                	mov    %eax,%esi
    f768:	bf ff 5d 00 00       	mov    $0x5dff,%edi
    f76d:	e8 6f 9d ff ff       	callq  94e1 <safe_lshift_func_int16_t_s_u>
    f772:	98                   	cwtl   
    f773:	41 39 c7             	cmp    %eax,%r15d
    f776:	0f 9e c0             	setle  %al
    f779:	0f b6 d0             	movzbl %al,%edx
    f77c:	48 8b 85 d0 f0 ff ff 	mov    -0xf30(%rbp),%rax
    f783:	48 8b 00             	mov    (%rax),%rax
    f786:	8b 00                	mov    (%rax),%eax
    f788:	39 c2                	cmp    %eax,%edx
    f78a:	0f 9c c0             	setl   %al
    f78d:	0f b6 c0             	movzbl %al,%eax
    f790:	44 89 ee             	mov    %r13d,%esi
    f793:	89 c7                	mov    %eax,%edi
    f795:	e8 32 9f ff ff       	callq  96cc <safe_mod_func_int32_t_s_s>
    f79a:	48 98                	cltq   
    f79c:	4c 89 e6             	mov    %r12,%rsi
    f79f:	48 89 c7             	mov    %rax,%rdi
    f7a2:	e8 a4 a8 ff ff       	callq  a04b <safe_sub_func_uint64_t_u_u>
    f7a7:	0f b6 c0             	movzbl %al,%eax
    f7aa:	be e9 00 00 00       	mov    $0xe9,%esi
    f7af:	89 c7                	mov    %eax,%edi
    f7b1:	e8 a4 a3 ff ff       	callq  9b5a <safe_add_func_uint8_t_u_u>
    f7b6:	0f b6 d0             	movzbl %al,%edx
    f7b9:	8b 85 58 ef ff ff    	mov    -0x10a8(%rbp),%eax
    f7bf:	39 c2                	cmp    %eax,%edx
    f7c1:	0f 94 c0             	sete   %al
    f7c4:	0f b6 c0             	movzbl %al,%eax
    f7c7:	48 39 85 48 f1 ff ff 	cmp    %rax,-0xeb8(%rbp)
    f7ce:	0f 9e c0             	setle  %al
    f7d1:	0f b6 c0             	movzbl %al,%eax
    f7d4:	89 de                	mov    %ebx,%esi
    f7d6:	89 c7                	mov    %eax,%edi
    f7d8:	e8 d1 a3 ff ff       	callq  9bae <safe_mod_func_uint8_t_u_u>
    f7dd:	0f b6 c0             	movzbl %al,%eax
    f7e0:	8b 95 9c ef ff ff    	mov    -0x1064(%rbp),%edx
    f7e6:	89 d6                	mov    %edx,%esi
    f7e8:	89 c7                	mov    %eax,%edi
    f7ea:	e8 10 9f ff ff       	callq  96ff <safe_div_func_int32_t_s_s>
    f7ef:	85 c0                	test   %eax,%eax
    f7f1:	74 07                	je     f7fa <func_18+0x3061>
    f7f3:	83 bd dc ef ff ff 00 	cmpl   $0x0,-0x1024(%rbp)
    f7fa:	0f b6 05 9b 88 00 00 	movzbl 0x889b(%rip),%eax        # 1809c <g_318>
    f801:	3c 04                	cmp    $0x4,%al
    f803:	7f 07                	jg     f80c <func_18+0x3073>
    f805:	ba 86 ff ff ff       	mov    $0xffffff86,%edx
    f80a:	eb 05                	jmp    f811 <func_18+0x3078>
    f80c:	ba 87 ff ff ff       	mov    $0xffffff87,%edx
    f811:	48 8b 85 08 f0 ff ff 	mov    -0xff8(%rbp),%rax
    f818:	8b 00                	mov    (%rax),%eax
    f81a:	0f be c0             	movsbl %al,%eax
    f81d:	89 d6                	mov    %edx,%esi
    f81f:	89 c7                	mov    %eax,%edi
    f821:	e8 cc 99 ff ff       	callq  91f2 <safe_sub_func_int8_t_s_s>
    f826:	0f be c8             	movsbl %al,%ecx
    f829:	48 8b 85 28 ef ff ff 	mov    -0x10d8(%rbp),%rax
    f830:	8b 10                	mov    (%rax),%edx
    f832:	48 8b 05 3f b5 00 00 	mov    0xb53f(%rip),%rax        # 1ad78 <g_575>
    f839:	09 ca                	or     %ecx,%edx
    f83b:	89 10                	mov    %edx,(%rax)
    f83d:	48 8d 05 2c b5 00 00 	lea    0xb52c(%rip),%rax        # 1ad70 <g_556>
    f844:	48 89 85 f8 f0 ff ff 	mov    %rax,-0xf08(%rbp)
    f84b:	e9 79 03 00 00       	jmpq   fbc9 <func_18+0x3430>
    f850:	c7 85 90 f1 ff ff a4 	movl   $0xf6b2ca4,-0xe70(%rbp)
    f857:	2c 6b 0f 
    f85a:	c7 85 94 f1 ff ff 01 	movl   $0x1,-0xe6c(%rbp)
    f861:	00 00 00 
    f864:	c7 85 98 f1 ff ff a4 	movl   $0xf6b2ca4,-0xe68(%rbp)
    f86b:	2c 6b 0f 
    f86e:	c7 85 9c f1 ff ff 01 	movl   $0x1,-0xe64(%rbp)
    f875:	00 00 00 
    f878:	c7 85 a0 f1 ff ff a4 	movl   $0xf6b2ca4,-0xe60(%rbp)
    f87f:	2c 6b 0f 
    f882:	c7 85 a4 f1 ff ff 01 	movl   $0x1,-0xe5c(%rbp)
    f889:	00 00 00 
    f88c:	c7 85 a8 f1 ff ff a4 	movl   $0xf6b2ca4,-0xe58(%rbp)
    f893:	2c 6b 0f 
    f896:	c7 85 ac f1 ff ff 01 	movl   $0x1,-0xe54(%rbp)
    f89d:	00 00 00 
    f8a0:	c7 85 b0 f1 ff ff a4 	movl   $0xf6b2ca4,-0xe50(%rbp)
    f8a7:	2c 6b 0f 
    f8aa:	c7 85 5c ef ff ff 77 	movl   $0xaf9fa077,-0x10a4(%rbp)
    f8b1:	a0 9f af 
    f8b4:	c7 85 cc ef ff ff a3 	movl   $0xd74a8fa3,-0x1034(%rbp)
    f8bb:	8f 4a d7 
    f8be:	c7 85 d0 ef ff ff 18 	movl   $0x2c322e18,-0x1030(%rbp)
    f8c5:	2e 32 2c 
    f8c8:	c7 85 d4 ef ff ff 33 	movl   $0x3cbcb933,-0x102c(%rbp)
    f8cf:	b9 bc 3c 
    f8d2:	48 8d 85 40 f8 ff ff 	lea    -0x7c0(%rbp),%rax
    f8d9:	48 8d 15 80 51 00 00 	lea    0x5180(%rip),%rdx        # 14a60 <g_1784+0x9f8>
    f8e0:	b9 5a 00 00 00       	mov    $0x5a,%ecx
    f8e5:	48 89 c7             	mov    %rax,%rdi
    f8e8:	48 89 d6             	mov    %rdx,%rsi
    f8eb:	f3 48 a5             	rep movsq %ds:(%rsi),%es:(%rdi)
    f8ee:	c6 85 4d ef ff ff 89 	movb   $0x89,-0x10b3(%rbp)
    f8f5:	48 8d 05 50 87 00 00 	lea    0x8750(%rip),%rax        # 1804c <g_57+0xc>
    f8fc:	48 89 85 10 f3 ff ff 	mov    %rax,-0xcf0(%rbp)
    f903:	48 8d 85 b0 f3 ff ff 	lea    -0xc50(%rbp),%rax
    f90a:	48 89 85 18 f3 ff ff 	mov    %rax,-0xce8(%rbp)
    f911:	48 8d 85 b0 f3 ff ff 	lea    -0xc50(%rbp),%rax
    f918:	48 89 85 20 f3 ff ff 	mov    %rax,-0xce0(%rbp)
    f91f:	48 8d 05 26 87 00 00 	lea    0x8726(%rip),%rax        # 1804c <g_57+0xc>
    f926:	48 89 85 28 f3 ff ff 	mov    %rax,-0xcd8(%rbp)
    f92d:	48 8d 85 b0 f3 ff ff 	lea    -0xc50(%rbp),%rax
    f934:	48 89 85 30 f3 ff ff 	mov    %rax,-0xcd0(%rbp)
    f93b:	48 8d 85 b0 f3 ff ff 	lea    -0xc50(%rbp),%rax
    f942:	48 89 85 38 f3 ff ff 	mov    %rax,-0xcc8(%rbp)
    f949:	c6 05 46 87 00 00 18 	movb   $0x18,0x8746(%rip)        # 18096 <g_251>
    f950:	e9 55 02 00 00       	jmpq   fbaa <func_18+0x3411>
    f955:	66 c7 85 52 ef ff ff 	movw   $0x7,-0x10ae(%rbp)
    f95c:	07 00 
    f95e:	48 8d 85 b0 f5 ff ff 	lea    -0xa50(%rbp),%rax
    f965:	48 8d 15 f4 99 00 00 	lea    0x99f4(%rip),%rdx        # 19360 <g_1941+0x1090>
    f96c:	b9 51 00 00 00       	mov    $0x51,%ecx
    f971:	48 89 c7             	mov    %rax,%rdi
    f974:	48 89 d6             	mov    %rdx,%rsi
    f977:	f3 48 a5             	rep movsq %ds:(%rsi),%es:(%rdi)
    f97a:	48 8d 85 58 ef ff ff 	lea    -0x10a8(%rbp),%rax
    f981:	48 89 85 00 f1 ff ff 	mov    %rax,-0xf00(%rbp)
    f988:	48 c7 85 08 f1 ff ff 	movq   $0x0,-0xef8(%rbp)
    f98f:	00 00 00 00 
    f993:	48 8d 05 ae 86 00 00 	lea    0x86ae(%rip),%rax        # 18048 <g_57+0x8>
    f99a:	48 89 85 10 f1 ff ff 	mov    %rax,-0xef0(%rbp)
    f9a1:	48 8d 05 9c 86 00 00 	lea    0x869c(%rip),%rax        # 18044 <g_57+0x4>
    f9a8:	48 89 85 18 f1 ff ff 	mov    %rax,-0xee8(%rbp)
    f9af:	48 8d 85 54 ef ff ff 	lea    -0x10ac(%rbp),%rax
    f9b6:	48 89 85 20 f1 ff ff 	mov    %rax,-0xee0(%rbp)
    f9bd:	48 8d 85 5c ef ff ff 	lea    -0x10a4(%rbp),%rax
    f9c4:	48 89 85 28 f1 ff ff 	mov    %rax,-0xed8(%rbp)
    f9cb:	48 c7 85 30 f1 ff ff 	movq   $0x0,-0xed0(%rbp)
    f9d2:	00 00 00 00 
    f9d6:	48 c7 85 38 f1 ff ff 	movq   $0x0,-0xec8(%rbp)
    f9dd:	00 00 00 00 
    f9e1:	48 c7 85 40 f1 ff ff 	movq   $0x0,-0xec0(%rbp)
    f9e8:	00 00 00 00 
    f9ec:	48 c7 85 f0 f1 ff ff 	movq   $0x0,-0xe10(%rbp)
    f9f3:	00 00 00 00 
    f9f7:	48 c7 85 f8 f1 ff ff 	movq   $0x0,-0xe08(%rbp)
    f9fe:	00 00 00 00 
    fa02:	48 c7 85 00 f2 ff ff 	movq   $0x0,-0xe00(%rbp)
    fa09:	00 00 00 00 
    fa0d:	48 c7 85 08 f2 ff ff 	movq   $0x0,-0xdf8(%rbp)
    fa14:	00 00 00 00 
    fa18:	48 c7 85 10 f2 ff ff 	movq   $0x0,-0xdf0(%rbp)
    fa1f:	00 00 00 00 
    fa23:	c7 85 d8 ef ff ff 1d 	movl   $0xd3bdcf1d,-0x1028(%rbp)
    fa2a:	cf bd d3 
    fa2d:	8b 85 9c f1 ff ff    	mov    -0xe64(%rbp),%eax
    fa33:	41 89 c6             	mov    %eax,%r14d
    fa36:	48 8b 85 d0 f0 ff ff 	mov    -0xf30(%rbp),%rax
    fa3d:	48 8b 00             	mov    (%rax),%rax
    fa40:	8b 00                	mov    (%rax),%eax
    fa42:	0f bf d8             	movswl %ax,%ebx
    fa45:	0f bf 95 52 ef ff ff 	movswl -0x10ae(%rbp),%edx
    fa4c:	66 83 bd 52 ef ff ff 	cmpw   $0x0,-0x10ae(%rbp)
    fa53:	00 
    fa54:	74 25                	je     fa7b <func_18+0x32e2>
    fa56:	48 8b 85 d0 f1 ff ff 	mov    -0xe30(%rbp),%rax
    fa5d:	48 89 85 50 f0 ff ff 	mov    %rax,-0xfb0(%rbp)
    fa64:	48 8b 85 50 f0 ff ff 	mov    -0xfb0(%rbp),%rax
    fa6b:	48 3b 85 e0 f0 ff ff 	cmp    -0xf20(%rbp),%rax
    fa72:	74 07                	je     fa7b <func_18+0x32e2>
    fa74:	b8 01 00 00 00       	mov    $0x1,%eax
    fa79:	eb 05                	jmp    fa80 <func_18+0x32e7>
    fa7b:	b8 00 00 00 00       	mov    $0x0,%eax
    fa80:	31 d0                	xor    %edx,%eax
    fa82:	41 89 c5             	mov    %eax,%r13d
    fa85:	8b 85 9c ef ff ff    	mov    -0x1064(%rbp),%eax
    fa8b:	44 0f be e0          	movsbl %al,%r12d
    fa8f:	48 83 bd f8 f0 ff ff 	cmpq   $0x0,-0xf08(%rbp)
    fa96:	00 
    fa97:	0f 94 c0             	sete   %al
    fa9a:	0f b6 c0             	movzbl %al,%eax
    fa9d:	be 6c 5d 1e ff       	mov    $0xff1e5d6c,%esi
    faa2:	89 c7                	mov    %eax,%edi
    faa4:	e8 7c a4 ff ff       	callq  9f25 <safe_div_func_uint32_t_u_u>
    faa9:	0f be d0             	movsbl %al,%edx
    faac:	0f b7 85 52 ef ff ff 	movzwl -0x10ae(%rbp),%eax
    fab3:	0f be c0             	movsbl %al,%eax
    fab6:	89 d6                	mov    %edx,%esi
    fab8:	89 c7                	mov    %eax,%edi
    faba:	e8 33 97 ff ff       	callq  91f2 <safe_sub_func_int8_t_s_s>
    fabf:	be f1 00 00 00       	mov    $0xf1,%esi
    fac4:	bf 01 00 00 00       	mov    $0x1,%edi
    fac9:	e8 c5 a0 ff ff       	callq  9b93 <safe_mul_func_uint8_t_u_u>
    face:	0f b6 d0             	movzbl %al,%edx
    fad1:	48 8b 85 f0 f0 ff ff 	mov    -0xf10(%rbp),%rax
    fad8:	8b 00                	mov    (%rax),%eax
    fada:	0f b6 c0             	movzbl %al,%eax
    fadd:	89 d6                	mov    %edx,%esi
    fadf:	89 c7                	mov    %eax,%edi
    fae1:	e8 ad a0 ff ff       	callq  9b93 <safe_mul_func_uint8_t_u_u>
    fae6:	83 bd 98 ef ff ff 00 	cmpl   $0x0,-0x1068(%rbp)
    faed:	74 07                	je     faf6 <func_18+0x335d>
    faef:	b8 01 00 00 00       	mov    $0x1,%eax
    faf4:	eb 05                	jmp    fafb <func_18+0x3362>
    faf6:	b8 00 00 00 00       	mov    $0x0,%eax
    fafb:	89 c2                	mov    %eax,%edx
    fafd:	8b 85 a8 f1 ff ff    	mov    -0xe58(%rbp),%eax
    fb03:	39 c2                	cmp    %eax,%edx
    fb05:	0f 95 c0             	setne  %al
    fb08:	0f b6 d0             	movzbl %al,%edx
    fb0b:	48 8b 85 38 ef ff ff 	mov    -0x10c8(%rbp),%rax
    fb12:	8b 00                	mov    (%rax),%eax
    fb14:	39 c2                	cmp    %eax,%edx
    fb16:	0f 94 c0             	sete   %al
    fb19:	0f b6 c0             	movzbl %al,%eax
    fb1c:	44 89 e6             	mov    %r12d,%esi
    fb1f:	89 c7                	mov    %eax,%edi
    fb21:	e8 ec 96 ff ff       	callq  9212 <safe_mul_func_int8_t_s_s>
    fb26:	0f be c0             	movsbl %al,%eax
    fb29:	41 39 c5             	cmp    %eax,%r13d
    fb2c:	0f 9d c0             	setge  %al
    fb2f:	0f b6 c0             	movzbl %al,%eax
    fb32:	89 de                	mov    %ebx,%esi
    fb34:	89 c7                	mov    %eax,%edi
    fb36:	e8 db 98 ff ff       	callq  9416 <safe_mod_func_int16_t_s_s>
    fb3b:	48 0f bf c0          	movswq %ax,%rax
    fb3f:	4c 89 f6             	mov    %r14,%rsi
    fb42:	48 89 c7             	mov    %rax,%rdi
    fb45:	e8 f7 9c ff ff       	callq  9841 <safe_add_func_int64_t_s_s>
    fb4a:	48 89 c2             	mov    %rax,%rdx
    fb4d:	48 b8 42 08 8e 25 78 	movabs $0xc7f91278258e0842,%rax
    fb54:	12 f9 c7 
    fb57:	48 39 c2             	cmp    %rax,%rdx
    fb5a:	0f 97 c0             	seta   %al
    fb5d:	0f b6 d0             	movzbl %al,%edx
    fb60:	8b 85 5c ef ff ff    	mov    -0x10a4(%rbp),%eax
    fb66:	21 d0                	and    %edx,%eax
    fb68:	89 85 5c ef ff ff    	mov    %eax,-0x10a4(%rbp)
    fb6e:	83 ad 70 ef ff ff 01 	subl   $0x1,-0x1090(%rbp)
    fb75:	48 8b 05 dc 9e 00 00 	mov    0x9edc(%rip),%rax        # 19a58 <g_210>
    fb7c:	8b 00                	mov    (%rax),%eax
    fb7e:	89 c7                	mov    %eax,%edi
    fb80:	e8 11 9a ff ff       	callq  9596 <safe_unary_minus_func_int32_t_s>
    fb85:	48 8b 95 28 f1 ff ff 	mov    -0xed8(%rbp),%rdx
    fb8c:	89 02                	mov    %eax,(%rdx)
    fb8e:	0f b6 05 01 85 00 00 	movzbl 0x8501(%rip),%eax        # 18096 <g_251>
    fb95:	0f b6 c0             	movzbl %al,%eax
    fb98:	be 05 00 00 00       	mov    $0x5,%esi
    fb9d:	89 c7                	mov    %eax,%edi
    fb9f:	e8 d4 9f ff ff       	callq  9b78 <safe_sub_func_uint8_t_u_u>
    fba4:	88 05 ec 84 00 00    	mov    %al,0x84ec(%rip)        # 18096 <g_251>
    fbaa:	0f b6 05 e5 84 00 00 	movzbl 0x84e5(%rip),%eax        # 18096 <g_251>
    fbb1:	3c 08                	cmp    $0x8,%al
    fbb3:	0f 86 9c fd ff ff    	jbe    f955 <func_18+0x31bc>
    fbb9:	0f b6 85 4c ef ff ff 	movzbl -0x10b4(%rbp),%eax
    fbc0:	83 e8 01             	sub    $0x1,%eax
    fbc3:	88 85 4c ef ff ff    	mov    %al,-0x10b4(%rbp)
    fbc9:	48 8b 05 90 84 00 00 	mov    0x8490(%rip),%rax        # 18060 <g_83>
    fbd0:	48 83 c0 01          	add    $0x1,%rax
    fbd4:	48 89 05 85 84 00 00 	mov    %rax,0x8485(%rip)        # 18060 <g_83>
    fbdb:	48 8b 05 7e 84 00 00 	mov    0x847e(%rip),%rax        # 18060 <g_83>
    fbe2:	48 83 f8 2e          	cmp    $0x2e,%rax
    fbe6:	0f 86 41 f4 ff ff    	jbe    f02d <func_18+0x2894>
    fbec:	8b 85 58 ef ff ff    	mov    -0x10a8(%rbp),%eax
    fbf2:	48 8b 5d c8          	mov    -0x38(%rbp),%rbx
    fbf6:	64 48 33 1c 25 28 00 	xor    %fs:0x28,%rbx
    fbfd:	00 00 
    fbff:	74 05                	je     fc06 <func_18+0x346d>
    fc01:	e8 6a 94 ff ff       	callq  9070 <__stack_chk_fail@plt>
    fc06:	48 81 c4 b8 10 00 00 	add    $0x10b8,%rsp
    fc0d:	5b                   	pop    %rbx
    fc0e:	41 5c                	pop    %r12
    fc10:	41 5d                	pop    %r13
    fc12:	41 5e                	pop    %r14
    fc14:	41 5f                	pop    %r15
    fc16:	5d                   	pop    %rbp
    fc17:	c3                   	retq   

000000000000fc18 <func_22>:
    fc18:	f3 0f 1e fa          	endbr64 
    fc1c:	55                   	push   %rbp
    fc1d:	48 89 e5             	mov    %rsp,%rbp
    fc20:	48 81 ec b0 04 00 00 	sub    $0x4b0,%rsp
    fc27:	89 bd 5c fb ff ff    	mov    %edi,-0x4a4(%rbp)
    fc2d:	89 b5 58 fb ff ff    	mov    %esi,-0x4a8(%rbp)
    fc33:	64 48 8b 04 25 28 00 	mov    %fs:0x28,%rax
    fc3a:	00 00 
    fc3c:	48 89 45 f8          	mov    %rax,-0x8(%rbp)
    fc40:	31 c0                	xor    %eax,%eax
    fc42:	48 8d 05 0f a2 00 00 	lea    0xa20f(%rip),%rax        # 19e58 <g_443+0x38>
    fc49:	48 89 85 98 fb ff ff 	mov    %rax,-0x468(%rbp)
    fc50:	48 c7 85 a0 fb ff ff 	movq   $0x0,-0x460(%rbp)
    fc57:	00 00 00 00 
    fc5b:	48 8d 05 fe 83 00 00 	lea    0x83fe(%rip),%rax        # 18060 <g_83>
    fc62:	48 89 85 a8 fb ff ff 	mov    %rax,-0x458(%rbp)
    fc69:	c7 85 6c fb ff ff 78 	movl   $0x81aff978,-0x494(%rbp)
    fc70:	f9 af 81 
    fc73:	c6 85 67 fb ff ff cf 	movb   $0xcf,-0x499(%rbp)
    fc7a:	48 8d 05 27 a6 00 00 	lea    0xa627(%rip),%rax        # 1a2a8 <g_475+0x428>
    fc81:	48 89 85 b0 fb ff ff 	mov    %rax,-0x450(%rbp)
    fc88:	c7 85 70 fb ff ff e4 	movl   $0xa438a6e4,-0x490(%rbp)
    fc8f:	a6 38 a4 
    fc92:	48 8d 85 6c fb ff ff 	lea    -0x494(%rbp),%rax
    fc99:	48 89 85 b8 fb ff ff 	mov    %rax,-0x448(%rbp)
    fca0:	48 8d 05 bd 43 00 00 	lea    0x43bd(%rip),%rax        # 14064 <g_601>
    fca7:	48 89 85 c0 fb ff ff 	mov    %rax,-0x440(%rbp)
    fcae:	48 8d 05 97 83 00 00 	lea    0x8397(%rip),%rax        # 1804c <g_57+0xc>
    fcb5:	48 89 85 c8 fb ff ff 	mov    %rax,-0x438(%rbp)
    fcbc:	48 c7 85 d0 fb ff ff 	movq   $0x0,-0x430(%rbp)
    fcc3:	00 00 00 00 
    fcc7:	48 b8 fb d8 b7 4a ef 	movabs $0x7f2e73ef4ab7d8fb,%rax
    fcce:	73 2e 7f 
    fcd1:	48 89 85 d8 fb ff ff 	mov    %rax,-0x428(%rbp)
    fcd8:	48 c7 85 50 fc ff ff 	movq   $0x0,-0x3b0(%rbp)
    fcdf:	00 00 00 00 
    fce3:	48 c7 85 58 fc ff ff 	movq   $0x0,-0x3a8(%rbp)
    fcea:	00 00 00 00 
    fcee:	48 8d 05 53 9d 00 00 	lea    0x9d53(%rip),%rax        # 19a48 <g_98>
    fcf5:	48 89 85 60 fc ff ff 	mov    %rax,-0x3a0(%rbp)
    fcfc:	48 c7 85 68 fc ff ff 	movq   $0x0,-0x398(%rbp)
    fd03:	00 00 00 00 
    fd07:	48 c7 85 70 fc ff ff 	movq   $0x0,-0x390(%rbp)
    fd0e:	00 00 00 00 
    fd12:	48 8d 05 2f 9d 00 00 	lea    0x9d2f(%rip),%rax        # 19a48 <g_98>
    fd19:	48 89 85 78 fc ff ff 	mov    %rax,-0x388(%rbp)
    fd20:	48 c7 85 80 fc ff ff 	movq   $0x0,-0x380(%rbp)
    fd27:	00 00 00 00 
    fd2b:	48 c7 85 88 fc ff ff 	movq   $0x0,-0x378(%rbp)
    fd32:	00 00 00 00 
    fd36:	48 8d 05 0b 9d 00 00 	lea    0x9d0b(%rip),%rax        # 19a48 <g_98>
    fd3d:	48 89 85 90 fc ff ff 	mov    %rax,-0x370(%rbp)
    fd44:	48 c7 85 98 fc ff ff 	movq   $0x0,-0x368(%rbp)
    fd4b:	00 00 00 00 
    fd4f:	48 c7 85 e0 fb ff ff 	movq   $0x4,-0x420(%rbp)
    fd56:	04 00 00 00 
    fd5a:	66 c7 85 68 fb ff ff 	movw   $0x1,-0x498(%rbp)
    fd61:	01 00 
    fd63:	66 c7 85 6a fb ff ff 	movw   $0x1,-0x496(%rbp)
    fd6a:	01 00 
    fd6c:	c7 85 84 fb ff ff c3 	movl   $0x97867ac3,-0x47c(%rbp)
    fd73:	7a 86 97 
    fd76:	c7 85 88 fb ff ff 72 	movl   $0xbce3c472,-0x478(%rbp)
    fd7d:	c4 e3 bc 
    fd80:	48 8d 05 b1 82 00 00 	lea    0x82b1(%rip),%rax        # 18038 <g_55>
    fd87:	48 89 85 e8 fb ff ff 	mov    %rax,-0x418(%rbp)
    fd8e:	c7 85 7c fb ff ff 00 	movl   $0x0,-0x484(%rbp)
    fd95:	00 00 00 
    fd98:	eb 1e                	jmp    fdb8 <func_22+0x1a0>
    fd9a:	8b 85 7c fb ff ff    	mov    -0x484(%rbp),%eax
    fda0:	48 98                	cltq   
    fda2:	48 8d 15 7b 82 00 00 	lea    0x827b(%rip),%rdx        # 18024 <g_2>
    fda9:	48 89 94 c5 00 fc ff 	mov    %rdx,-0x400(%rbp,%rax,8)
    fdb0:	ff 
    fdb1:	83 85 7c fb ff ff 01 	addl   $0x1,-0x484(%rbp)
    fdb8:	83 bd 7c fb ff ff 01 	cmpl   $0x1,-0x484(%rbp)
    fdbf:	7e d9                	jle    fd9a <func_22+0x182>
    fdc1:	48 8b 15 90 a0 00 00 	mov    0xa090(%rip),%rdx        # 19e58 <g_443+0x38>
    fdc8:	48 8b 85 98 fb ff ff 	mov    -0x468(%rbp),%rax
    fdcf:	48 89 10             	mov    %rdx,(%rax)
    fdd2:	c7 85 58 fb ff ff 00 	movl   $0x0,-0x4a8(%rbp)
    fdd9:	00 00 00 
    fddc:	e9 99 01 00 00       	jmpq   ff7a <func_22+0x362>
    fde1:	48 8d 05 b4 82 00 00 	lea    0x82b4(%rip),%rax        # 1809c <g_318>
    fde8:	48 89 85 90 fb ff ff 	mov    %rax,-0x470(%rbp)
    fdef:	c7 85 74 fb ff ff f9 	movl   $0xfffffff9,-0x48c(%rbp)
    fdf6:	ff ff ff 
    fdf9:	c7 85 78 fb ff ff 01 	movl   $0x1,-0x488(%rbp)
    fe00:	00 00 00 
    fe03:	48 8d 05 46 a1 00 00 	lea    0xa146(%rip),%rax        # 19f50 <g_475+0xd0>
    fe0a:	48 89 85 f0 fb ff ff 	mov    %rax,-0x410(%rbp)
    fe11:	48 8d 05 8c 82 00 00 	lea    0x828c(%rip),%rax        # 180a4 <g_460>
    fe18:	48 89 85 f8 fb ff ff 	mov    %rax,-0x408(%rbp)
    fe1f:	48 8d 85 30 fe ff ff 	lea    -0x1d0(%rbp),%rax
    fe26:	48 8d 15 13 4f 00 00 	lea    0x4f13(%rip),%rdx        # 14d40 <g_1784+0xcd8>
    fe2d:	b9 38 00 00 00       	mov    $0x38,%ecx
    fe32:	48 89 c7             	mov    %rax,%rdi
    fe35:	48 89 d6             	mov    %rdx,%rsi
    fe38:	f3 48 a5             	rep movsq %ds:(%rsi),%es:(%rdi)
    fe3b:	48 8d 85 f0 fc ff ff 	lea    -0x310(%rbp),%rax
    fe42:	48 8d 15 b7 50 00 00 	lea    0x50b7(%rip),%rdx        # 14f00 <g_1784+0xe98>
    fe49:	b9 28 00 00 00       	mov    $0x28,%ecx
    fe4e:	48 89 c7             	mov    %rax,%rdi
    fe51:	48 89 d6             	mov    %rdx,%rsi
    fe54:	f3 48 a5             	rep movsq %ds:(%rsi),%es:(%rdi)
    fe57:	c7 85 8c fb ff ff 4e 	movl   $0xa4acd14e,-0x474(%rbp)
    fe5e:	d1 ac a4 
    fe61:	48 8d 05 dc 81 00 00 	lea    0x81dc(%rip),%rax        # 18044 <g_57+0x4>
    fe68:	48 89 85 a0 fc ff ff 	mov    %rax,-0x360(%rbp)
    fe6f:	48 8d 05 ce 81 00 00 	lea    0x81ce(%rip),%rax        # 18044 <g_57+0x4>
    fe76:	48 89 85 a8 fc ff ff 	mov    %rax,-0x358(%rbp)
    fe7d:	48 8d 85 78 fb ff ff 	lea    -0x488(%rbp),%rax
    fe84:	48 89 85 b0 fc ff ff 	mov    %rax,-0x350(%rbp)
    fe8b:	48 8d 85 74 fb ff ff 	lea    -0x48c(%rbp),%rax
    fe92:	48 89 85 b8 fc ff ff 	mov    %rax,-0x348(%rbp)
    fe99:	48 8d 85 78 fb ff ff 	lea    -0x488(%rbp),%rax
    fea0:	48 89 85 c0 fc ff ff 	mov    %rax,-0x340(%rbp)
    fea7:	48 8d 05 96 81 00 00 	lea    0x8196(%rip),%rax        # 18044 <g_57+0x4>
    feae:	48 89 85 c8 fc ff ff 	mov    %rax,-0x338(%rbp)
    feb5:	48 8d 05 88 81 00 00 	lea    0x8188(%rip),%rax        # 18044 <g_57+0x4>
    febc:	48 89 85 d0 fc ff ff 	mov    %rax,-0x330(%rbp)
    fec3:	48 8d 85 78 fb ff ff 	lea    -0x488(%rbp),%rax
    feca:	48 89 85 d8 fc ff ff 	mov    %rax,-0x328(%rbp)
    fed1:	48 8d 85 74 fb ff ff 	lea    -0x48c(%rbp),%rax
    fed8:	48 89 85 e0 fc ff ff 	mov    %rax,-0x320(%rbp)
    fedf:	48 8d 85 78 fb ff ff 	lea    -0x488(%rbp),%rax
    fee6:	48 89 85 e8 fc ff ff 	mov    %rax,-0x318(%rbp)
    feed:	c7 85 80 fb ff ff 00 	movl   $0x0,-0x480(%rbp)
    fef4:	00 00 00 
    fef7:	eb 1e                	jmp    ff17 <func_22+0x2ff>
    fef9:	8b 85 80 fb ff ff    	mov    -0x480(%rbp),%eax
    feff:	48 98                	cltq   
    ff01:	48 8d 95 90 fb ff ff 	lea    -0x470(%rbp),%rdx
    ff08:	48 89 94 c5 10 fc ff 	mov    %rdx,-0x3f0(%rbp,%rax,8)
    ff0f:	ff 
    ff10:	83 85 80 fb ff ff 01 	addl   $0x1,-0x480(%rbp)
    ff17:	83 bd 80 fb ff ff 02 	cmpl   $0x2,-0x480(%rbp)
    ff1e:	7e d9                	jle    fef9 <func_22+0x2e1>
    ff20:	c7 85 80 fb ff ff 00 	movl   $0x0,-0x480(%rbp)
    ff27:	00 00 00 
    ff2a:	eb 1a                	jmp    ff46 <func_22+0x32e>
    ff2c:	8b 85 80 fb ff ff    	mov    -0x480(%rbp),%eax
    ff32:	48 98                	cltq   
    ff34:	c7 84 85 30 fc ff ff 	movl   $0x1,-0x3d0(%rbp,%rax,4)
    ff3b:	01 00 00 00 
    ff3f:	83 85 80 fb ff ff 01 	addl   $0x1,-0x480(%rbp)
    ff46:	83 bd 80 fb ff ff 05 	cmpl   $0x5,-0x480(%rbp)
    ff4d:	7e dd                	jle    ff2c <func_22+0x314>
    ff4f:	8b 85 58 fb ff ff    	mov    -0x4a8(%rbp),%eax
    ff55:	89 c0                	mov    %eax,%eax
    ff57:	48 8d 14 00          	lea    (%rax,%rax,1),%rdx
    ff5b:	48 8d 05 20 81 00 00 	lea    0x8120(%rip),%rax        # 18082 <g_130>
    ff62:	0f b7 04 02          	movzwl (%rdx,%rax,1),%eax
    ff66:	66 85 c0             	test   %ax,%ax
    ff69:	75 1f                	jne    ff8a <func_22+0x372>
    ff6b:	8b 85 58 fb ff ff    	mov    -0x4a8(%rbp),%eax
    ff71:	83 c0 01             	add    $0x1,%eax
    ff74:	89 85 58 fb ff ff    	mov    %eax,-0x4a8(%rbp)
    ff7a:	8b 85 58 fb ff ff    	mov    -0x4a8(%rbp),%eax
    ff80:	85 c0                	test   %eax,%eax
    ff82:	0f 84 59 fe ff ff    	je     fde1 <func_22+0x1c9>
    ff88:	eb 01                	jmp    ff8b <func_22+0x373>
    ff8a:	90                   	nop
    ff8b:	48 8b 05 a6 ad 00 00 	mov    0xada6(%rip),%rax        # 1ad38 <g_528>
    ff92:	48 8b 00             	mov    (%rax),%rax
    ff95:	48 8b 4d f8          	mov    -0x8(%rbp),%rcx
    ff99:	64 48 33 0c 25 28 00 	xor    %fs:0x28,%rcx
    ffa0:	00 00 
    ffa2:	74 05                	je     ffa9 <func_22+0x391>
    ffa4:	e8 c7 90 ff ff       	callq  9070 <__stack_chk_fail@plt>
    ffa9:	c9                   	leaveq 
    ffaa:	c3                   	retq   

000000000000ffab <func_28>:
    ffab:	f3 0f 1e fa          	endbr64 
    ffaf:	55                   	push   %rbp
    ffb0:	48 89 e5             	mov    %rsp,%rbp
    ffb3:	48 89 7d f8          	mov    %rdi,-0x8(%rbp)
    ffb7:	89 75 f4             	mov    %esi,-0xc(%rbp)
    ffba:	89 55 f0             	mov    %edx,-0x10(%rbp)
    ffbd:	48 8b 05 8c 9a 00 00 	mov    0x9a8c(%rip),%rax        # 19a50 <g_103>
    ffc4:	8b 00                	mov    (%rax),%eax
    ffc6:	5d                   	pop    %rbp
    ffc7:	c3                   	retq   

000000000000ffc8 <func_39>:
    ffc8:	f3 0f 1e fa          	endbr64 
    ffcc:	55                   	push   %rbp
    ffcd:	48 89 e5             	mov    %rsp,%rbp
    ffd0:	41 56                	push   %r14
    ffd2:	41 55                	push   %r13
    ffd4:	41 54                	push   %r12
    ffd6:	53                   	push   %rbx
    ffd7:	48 81 ec f0 04 00 00 	sub    $0x4f0,%rsp
    ffde:	89 f8                	mov    %edi,%eax
    ffe0:	48 89 b5 f0 fa ff ff 	mov    %rsi,-0x510(%rbp)
    ffe7:	66 89 85 fc fa ff ff 	mov    %ax,-0x504(%rbp)
    ffee:	89 d0                	mov    %edx,%eax
    fff0:	88 85 f8 fa ff ff    	mov    %al,-0x508(%rbp)
    fff6:	64 48 8b 04 25 28 00 	mov    %fs:0x28,%rax
    fffd:	00 00 
    ffff:	48 89 45 d8          	mov    %rax,-0x28(%rbp)
   10003:	31 c0                	xor    %eax,%eax
   10005:	66 c7 85 04 fb ff ff 	movw   $0x8,-0x4fc(%rbp)
   1000c:	08 00 
   1000e:	48 8d 05 db b7 00 00 	lea    0xb7db(%rip),%rax        # 1b7f0 <g_46>
   10015:	48 89 85 a0 fb ff ff 	mov    %rax,-0x460(%rbp)
   1001c:	c7 85 14 fb ff ff fe 	movl   $0xfffffffe,-0x4ec(%rbp)
   10023:	ff ff ff 
   10026:	c7 85 2c fb ff ff 00 	movl   $0x0,-0x4d4(%rbp)
   1002d:	00 00 00 
   10030:	66 c7 85 06 fb ff ff 	movw   $0xfffa,-0x4fa(%rbp)
   10037:	fa ff 
   10039:	c7 85 18 fb ff ff cc 	movl   $0xe66c45cc,-0x4e8(%rbp)
   10040:	45 6c e6 
   10043:	48 8d 05 4e 80 00 00 	lea    0x804e(%rip),%rax        # 18098 <g_314>
   1004a:	48 89 85 a8 fb ff ff 	mov    %rax,-0x458(%rbp)
   10051:	c6 85 01 fb ff ff 01 	movb   $0x1,-0x4ff(%rbp)
   10058:	48 8d 05 3d 80 00 00 	lea    0x803d(%rip),%rax        # 1809c <g_318>
   1005f:	48 89 85 80 fb ff ff 	mov    %rax,-0x480(%rbp)
   10066:	48 8d 05 cb 7f 00 00 	lea    0x7fcb(%rip),%rax        # 18038 <g_55>
   1006d:	48 89 85 b0 fb ff ff 	mov    %rax,-0x450(%rbp)
   10074:	c7 85 30 fb ff ff 05 	movl   $0x5,-0x4d0(%rbp)
   1007b:	00 00 00 
   1007e:	66 c7 85 08 fb ff ff 	movw   $0xd042,-0x4f8(%rbp)
   10085:	42 d0 
   10087:	c7 85 0c fb ff ff 00 	movl   $0x0,-0x4f4(%rbp)
   1008e:	00 00 00 
   10091:	eb 42                	jmp    100d5 <func_39+0x10d>
   10093:	c7 85 10 fb ff ff 00 	movl   $0x0,-0x4f0(%rbp)
   1009a:	00 00 00 
   1009d:	eb 26                	jmp    100c5 <func_39+0xfd>
   1009f:	8b 85 10 fb ff ff    	mov    -0x4f0(%rbp),%eax
   100a5:	48 63 d0             	movslq %eax,%rdx
   100a8:	8b 85 0c fb ff ff    	mov    -0x4f4(%rbp),%eax
   100ae:	48 98                	cltq   
   100b0:	48 01 d0             	add    %rdx,%rax
   100b3:	c7 84 85 64 fc ff ff 	movl   $0xfffffffb,-0x39c(%rbp,%rax,4)
   100ba:	fb ff ff ff 
   100be:	83 85 10 fb ff ff 01 	addl   $0x1,-0x4f0(%rbp)
   100c5:	83 bd 10 fb ff ff 00 	cmpl   $0x0,-0x4f0(%rbp)
   100cc:	7e d1                	jle    1009f <func_39+0xd7>
   100ce:	83 85 0c fb ff ff 01 	addl   $0x1,-0x4f4(%rbp)
   100d5:	83 bd 0c fb ff ff 00 	cmpl   $0x0,-0x4f4(%rbp)
   100dc:	7e b5                	jle    10093 <func_39+0xcb>
   100de:	c7 85 0c fb ff ff 00 	movl   $0x0,-0x4f4(%rbp)
   100e5:	00 00 00 
   100e8:	eb 1a                	jmp    10104 <func_39+0x13c>
   100ea:	8b 85 0c fb ff ff    	mov    -0x4f4(%rbp),%eax
   100f0:	48 98                	cltq   
   100f2:	c7 84 85 80 fc ff ff 	movl   $0x9a4367d4,-0x380(%rbp,%rax,4)
   100f9:	d4 67 43 9a 
   100fd:	83 85 0c fb ff ff 01 	addl   $0x1,-0x4f4(%rbp)
   10104:	83 bd 0c fb ff ff 04 	cmpl   $0x4,-0x4f4(%rbp)
   1010b:	7e dd                	jle    100ea <func_39+0x122>
   1010d:	c7 85 0c fb ff ff 00 	movl   $0x0,-0x4f4(%rbp)
   10114:	00 00 00 
   10117:	eb 1e                	jmp    10137 <func_39+0x16f>
   10119:	8b 85 0c fb ff ff    	mov    -0x4f4(%rbp),%eax
   1011f:	48 98                	cltq   
   10121:	48 8d 15 64 7f 00 00 	lea    0x7f64(%rip),%rdx        # 1808c <g_176>
   10128:	48 89 94 c5 00 fd ff 	mov    %rdx,-0x300(%rbp,%rax,8)
   1012f:	ff 
   10130:	83 85 0c fb ff ff 01 	addl   $0x1,-0x4f4(%rbp)
   10137:	83 bd 0c fb ff ff 07 	cmpl   $0x7,-0x4f4(%rbp)
   1013e:	7e d9                	jle    10119 <func_39+0x151>
   10140:	c7 85 0c fb ff ff 00 	movl   $0x0,-0x4f4(%rbp)
   10147:	00 00 00 
   1014a:	eb 1e                	jmp    1016a <func_39+0x1a2>
   1014c:	8b 85 0c fb ff ff    	mov    -0x4f4(%rbp),%eax
   10152:	48 98                	cltq   
   10154:	48 8d 15 2d 7f 00 00 	lea    0x7f2d(%rip),%rdx        # 18088 <g_141>
   1015b:	48 89 94 c5 a0 fc ff 	mov    %rdx,-0x360(%rbp,%rax,8)
   10162:	ff 
   10163:	83 85 0c fb ff ff 01 	addl   $0x1,-0x4f4(%rbp)
   1016a:	83 bd 0c fb ff ff 02 	cmpl   $0x2,-0x4f4(%rbp)
   10171:	7e d9                	jle    1014c <func_39+0x184>
   10173:	c7 85 0c fb ff ff 00 	movl   $0x0,-0x4f4(%rbp)
   1017a:	00 00 00 
   1017d:	eb 4c                	jmp    101cb <func_39+0x203>
   1017f:	c7 85 10 fb ff ff 00 	movl   $0x0,-0x4f0(%rbp)
   10186:	00 00 00 
   10189:	eb 30                	jmp    101bb <func_39+0x1f3>
   1018b:	8b 85 10 fb ff ff    	mov    -0x4f0(%rbp),%eax
   10191:	48 63 c8             	movslq %eax,%rcx
   10194:	8b 85 0c fb ff ff    	mov    -0x4f4(%rbp),%eax
   1019a:	48 63 d0             	movslq %eax,%rdx
   1019d:	48 89 d0             	mov    %rdx,%rax
   101a0:	48 01 c0             	add    %rax,%rax
   101a3:	48 01 d0             	add    %rdx,%rax
   101a6:	48 01 c8             	add    %rcx,%rax
   101a9:	c7 84 85 74 fc ff ff 	movl   $0x94976834,-0x38c(%rbp,%rax,4)
   101b0:	34 68 97 94 
   101b4:	83 85 10 fb ff ff 01 	addl   $0x1,-0x4f0(%rbp)
   101bb:	83 bd 10 fb ff ff 02 	cmpl   $0x2,-0x4f0(%rbp)
   101c2:	7e c7                	jle    1018b <func_39+0x1c3>
   101c4:	83 85 0c fb ff ff 01 	addl   $0x1,-0x4f4(%rbp)
   101cb:	83 bd 0c fb ff ff 00 	cmpl   $0x0,-0x4f4(%rbp)
   101d2:	7e ab                	jle    1017f <func_39+0x1b7>
   101d4:	48 c7 05 11 b6 00 00 	movq   $0x0,0xb611(%rip)        # 1b7f0 <g_46>
   101db:	00 00 00 00 
   101df:	e9 6d 02 00 00       	jmpq   10451 <func_39+0x489>
   101e4:	c7 85 90 fb ff ff ff 	movl   $0xffffffff,-0x470(%rbp)
   101eb:	ff ff ff 
   101ee:	c7 85 74 fb ff ff ff 	movl   $0xffffffff,-0x48c(%rbp)
   101f5:	ff ff ff 
   101f8:	48 8d 85 64 fc ff ff 	lea    -0x39c(%rbp),%rax
   101ff:	48 89 85 08 fc ff ff 	mov    %rax,-0x3f8(%rbp)
   10206:	48 8d 05 7b 7e 00 00 	lea    0x7e7b(%rip),%rax        # 18088 <g_141>
   1020d:	48 89 85 10 fc ff ff 	mov    %rax,-0x3f0(%rbp)
   10214:	48 8d 85 90 fb ff ff 	lea    -0x470(%rbp),%rax
   1021b:	48 89 85 18 fc ff ff 	mov    %rax,-0x3e8(%rbp)
   10222:	48 8d 05 5f 7e 00 00 	lea    0x7e5f(%rip),%rax        # 18088 <g_141>
   10229:	48 89 85 20 fc ff ff 	mov    %rax,-0x3e0(%rbp)
   10230:	48 8d 85 90 fb ff ff 	lea    -0x470(%rbp),%rax
   10237:	48 89 85 28 fc ff ff 	mov    %rax,-0x3d8(%rbp)
   1023e:	48 c7 85 90 fd ff ff 	movq   $0x0,-0x270(%rbp)
   10245:	00 00 00 00 
   10249:	48 c7 85 98 fd ff ff 	movq   $0x0,-0x268(%rbp)
   10250:	00 00 00 00 
   10254:	48 c7 85 a0 fd ff ff 	movq   $0x0,-0x260(%rbp)
   1025b:	00 00 00 00 
   1025f:	48 c7 85 a8 fd ff ff 	movq   $0x0,-0x258(%rbp)
   10266:	00 00 00 00 
   1026a:	48 c7 85 b0 fd ff ff 	movq   $0x0,-0x250(%rbp)
   10271:	00 00 00 00 
   10275:	48 c7 85 b8 fd ff ff 	movq   $0x0,-0x248(%rbp)
   1027c:	00 00 00 00 
   10280:	48 c7 85 c0 fd ff ff 	movq   $0x0,-0x240(%rbp)
   10287:	00 00 00 00 
   1028b:	48 c7 85 f0 fa ff ff 	movq   $0xfffffffffffffff5,-0x510(%rbp)
   10292:	f5 ff ff ff 
   10296:	e9 7a 01 00 00       	jmpq   10415 <func_39+0x44d>
   1029b:	48 8d 05 4e b5 00 00 	lea    0xb54e(%rip),%rax        # 1b7f0 <g_46>
   102a2:	48 89 85 98 fb ff ff 	mov    %rax,-0x468(%rbp)
   102a9:	c7 85 78 fb ff ff 9b 	movl   $0x3f19709b,-0x488(%rbp)
   102b0:	70 19 3f 
   102b3:	48 c7 85 30 fc ff ff 	movq   $0x0,-0x3d0(%rbp)
   102ba:	00 00 00 00 
   102be:	48 8d 05 c3 7d 00 00 	lea    0x7dc3(%rip),%rax        # 18088 <g_141>
   102c5:	48 89 85 38 fc ff ff 	mov    %rax,-0x3c8(%rbp)
   102cc:	48 8d 05 89 7d 00 00 	lea    0x7d89(%rip),%rax        # 1805c <g_57+0x1c>
   102d3:	48 89 85 40 fc ff ff 	mov    %rax,-0x3c0(%rbp)
   102da:	48 8d 05 07 b5 00 00 	lea    0xb507(%rip),%rax        # 1b7e8 <g_4>
   102e1:	48 89 85 40 fd ff ff 	mov    %rax,-0x2c0(%rbp)
   102e8:	48 8d 05 f9 b4 00 00 	lea    0xb4f9(%rip),%rax        # 1b7e8 <g_4>
   102ef:	48 89 85 48 fd ff ff 	mov    %rax,-0x2b8(%rbp)
   102f6:	48 8d 05 eb b4 00 00 	lea    0xb4eb(%rip),%rax        # 1b7e8 <g_4>
   102fd:	48 89 85 50 fd ff ff 	mov    %rax,-0x2b0(%rbp)
   10304:	48 8d 05 dd b4 00 00 	lea    0xb4dd(%rip),%rax        # 1b7e8 <g_4>
   1030b:	48 89 85 58 fd ff ff 	mov    %rax,-0x2a8(%rbp)
   10312:	c7 85 1c fb ff ff 00 	movl   $0x0,-0x4e4(%rbp)
   10319:	00 00 00 
   1031c:	eb 1e                	jmp    1033c <func_39+0x374>
   1031e:	8b 85 1c fb ff ff    	mov    -0x4e4(%rbp),%eax
   10324:	48 98                	cltq   
   10326:	48 8d 95 98 fb ff ff 	lea    -0x468(%rbp),%rdx
   1032d:	48 89 94 c5 c0 fc ff 	mov    %rdx,-0x340(%rbp,%rax,8)
   10334:	ff 
   10335:	83 85 1c fb ff ff 01 	addl   $0x1,-0x4e4(%rbp)
   1033c:	83 bd 1c fb ff ff 00 	cmpl   $0x0,-0x4e4(%rbp)
   10343:	7e d9                	jle    1031e <func_39+0x356>
   10345:	66 c7 85 fc fa ff ff 	movw   $0x0,-0x504(%rbp)
   1034c:	00 00 
   1034e:	e9 8b 00 00 00       	jmpq   103de <func_39+0x416>
   10353:	48 8d 05 de 7c 00 00 	lea    0x7cde(%rip),%rax        # 18038 <g_55>
   1035a:	48 89 85 48 fc ff ff 	mov    %rax,-0x3b8(%rbp)
   10361:	48 8d 05 e4 7c 00 00 	lea    0x7ce4(%rip),%rax        # 1804c <g_57+0xc>
   10368:	48 89 85 50 fc ff ff 	mov    %rax,-0x3b0(%rbp)
   1036f:	48 8d 05 7a b4 00 00 	lea    0xb47a(%rip),%rax        # 1b7f0 <g_46>
   10376:	48 89 85 58 fc ff ff 	mov    %rax,-0x3a8(%rbp)
   1037d:	c7 85 7c fb ff ff fc 	movl   $0xfffffffc,-0x484(%rbp)
   10384:	ff ff ff 
   10387:	8b 05 9b 7c 00 00    	mov    0x7c9b(%rip),%eax        # 18028 <g_3>
   1038d:	85 c0                	test   %eax,%eax
   1038f:	75 60                	jne    103f1 <func_39+0x429>
   10391:	0f b7 85 fc fa ff ff 	movzwl -0x504(%rbp),%eax
   10398:	0f bf d0             	movswl %ax,%edx
   1039b:	48 8b 85 48 fc ff ff 	mov    -0x3b8(%rbp),%rax
   103a2:	89 10                	mov    %edx,(%rax)
   103a4:	48 8b 85 48 fc ff ff 	mov    -0x3b8(%rbp),%rax
   103ab:	8b 10                	mov    (%rax),%edx
   103ad:	48 8b 85 50 fc ff ff 	mov    -0x3b0(%rbp),%rax
   103b4:	89 10                	mov    %edx,(%rax)
   103b6:	66 83 bd 04 fb ff ff 	cmpw   $0x0,-0x4fc(%rbp)
   103bd:	00 
   103be:	0f b7 85 fc fa ff ff 	movzwl -0x504(%rbp),%eax
   103c5:	0f b6 c0             	movzbl %al,%eax
   103c8:	be 01 00 00 00       	mov    $0x1,%esi
   103cd:	89 c7                	mov    %eax,%edi
   103cf:	e8 a4 97 ff ff       	callq  9b78 <safe_sub_func_uint8_t_u_u>
   103d4:	0f b6 c0             	movzbl %al,%eax
   103d7:	66 89 85 fc fa ff ff 	mov    %ax,-0x504(%rbp)
   103de:	0f b7 85 fc fa ff ff 	movzwl -0x504(%rbp),%eax
   103e5:	66 83 f8 f7          	cmp    $0xfff7,%ax
   103e9:	0f 84 64 ff ff ff    	je     10353 <func_39+0x38b>
   103ef:	eb 01                	jmp    103f2 <func_39+0x42a>
   103f1:	90                   	nop
   103f2:	83 ad 14 fb ff ff 01 	subl   $0x1,-0x4ec(%rbp)
   103f9:	48 8b 85 f0 fa ff ff 	mov    -0x510(%rbp),%rax
   10400:	be 07 00 00 00       	mov    $0x7,%esi
   10405:	89 c7                	mov    %eax,%edi
   10407:	e8 ac 9a ff ff       	callq  9eb8 <safe_add_func_uint32_t_u_u>
   1040c:	89 c0                	mov    %eax,%eax
   1040e:	48 89 85 f0 fa ff ff 	mov    %rax,-0x510(%rbp)
   10415:	48 8b 85 f0 fa ff ff 	mov    -0x510(%rbp),%rax
   1041c:	48 83 f8 37          	cmp    $0x37,%rax
   10420:	0f 86 75 fe ff ff    	jbe    1029b <func_39+0x2d3>
   10426:	8b 85 80 fc ff ff    	mov    -0x380(%rbp),%eax
   1042c:	83 c0 01             	add    $0x1,%eax
   1042f:	89 85 80 fc ff ff    	mov    %eax,-0x380(%rbp)
   10435:	48 8b 05 b4 b3 00 00 	mov    0xb3b4(%rip),%rax        # 1b7f0 <g_46>
   1043c:	be 02 00 00 00       	mov    $0x2,%esi
   10441:	89 c7                	mov    %eax,%edi
   10443:	e8 bd 91 ff ff       	callq  9605 <safe_sub_func_int32_t_s_s>
   10448:	48 98                	cltq   
   1044a:	48 89 05 9f b3 00 00 	mov    %rax,0xb39f(%rip)        # 1b7f0 <g_46>
   10451:	48 8b 05 98 b3 00 00 	mov    0xb398(%rip),%rax        # 1b7f0 <g_46>
   10458:	48 83 f8 ee          	cmp    $0xffffffffffffffee,%rax
   1045c:	0f 85 82 fd ff ff    	jne    101e4 <func_39+0x21c>
   10462:	90                   	nop
   10463:	48 c7 05 92 b3 00 00 	movq   $0x0,0xb392(%rip)        # 1b800 <g_137>
   1046a:	00 00 00 00 
   1046e:	90                   	nop
   1046f:	48 8b 05 8a b3 00 00 	mov    0xb38a(%rip),%rax        # 1b800 <g_137>
   10476:	48 83 f8 08          	cmp    $0x8,%rax
   1047a:	7e 3d                	jle    104b9 <func_39+0x4f1>
   1047c:	8b 05 b6 7b 00 00    	mov    0x7bb6(%rip),%eax        # 18038 <g_55>
   10482:	0f b7 c0             	movzwl %ax,%eax
   10485:	be 08 00 00 00       	mov    $0x8,%esi
   1048a:	89 c7                	mov    %eax,%edi
   1048c:	e8 b7 99 ff ff       	callq  9e48 <safe_rshift_func_uint16_t_u_s>
   10491:	b9 01 00 00 00       	mov    $0x1,%ecx
   10496:	48 8b 05 bb 95 00 00 	mov    0x95bb(%rip),%rax        # 19a58 <g_210>
   1049d:	8b 10                	mov    (%rax),%edx
   1049f:	48 8b 05 b2 95 00 00 	mov    0x95b2(%rip),%rax        # 19a58 <g_210>
   104a6:	09 ca                	or     %ecx,%edx
   104a8:	89 10                	mov    %edx,(%rax)
   104aa:	0f b6 05 e5 7b 00 00 	movzbl 0x7be5(%rip),%eax        # 18096 <g_251>
   104b1:	0f b6 c0             	movzbl %al,%eax
   104b4:	e9 17 0c 00 00       	jmpq   110d0 <func_39+0x1108>
   104b9:	48 8b 05 30 b3 00 00 	mov    0xb330(%rip),%rax        # 1b7f0 <g_46>
   104c0:	48 85 c0             	test   %rax,%rax
   104c3:	0f 95 c0             	setne  %al
   104c6:	44 0f b6 e8          	movzbl %al,%r13d
   104ca:	0f b7 85 fc fa ff ff 	movzwl -0x504(%rbp),%eax
   104d1:	0f bf d8             	movswl %ax,%ebx
   104d4:	44 8b a5 64 fc ff ff 	mov    -0x39c(%rbp),%r12d
   104db:	48 8b 85 f0 fa ff ff 	mov    -0x510(%rbp),%rax
   104e2:	89 c2                	mov    %eax,%edx
   104e4:	0f b7 85 fc fa ff ff 	movzwl -0x504(%rbp),%eax
   104eb:	98                   	cwtl   
   104ec:	89 d6                	mov    %edx,%esi
   104ee:	89 c7                	mov    %eax,%edi
   104f0:	e8 d7 91 ff ff       	callq  96cc <safe_mod_func_int32_t_s_s>
   104f5:	8b 15 8d 7b 00 00    	mov    0x7b8d(%rip),%edx        # 18088 <g_141>
   104fb:	09 d0                	or     %edx,%eax
   104fd:	31 85 18 fb ff ff    	xor    %eax,-0x4e8(%rbp)
   10503:	8b 85 18 fb ff ff    	mov    -0x4e8(%rbp),%eax
   10509:	0f b6 c0             	movzbl %al,%eax
   1050c:	44 89 e6             	mov    %r12d,%esi
   1050f:	89 c7                	mov    %eax,%edi
   10511:	e8 77 97 ff ff       	callq  9c8d <safe_rshift_func_uint8_t_u_s>
   10516:	0f be c0             	movsbl %al,%eax
   10519:	be 07 00 00 00       	mov    $0x7,%esi
   1051e:	89 c7                	mov    %eax,%edi
   10520:	e8 7c 8d ff ff       	callq  92a1 <safe_lshift_func_int8_t_s_s>
   10525:	8b 05 bd b2 00 00    	mov    0xb2bd(%rip),%eax        # 1b7e8 <g_4>
   1052b:	0f b6 c0             	movzbl %al,%eax
   1052e:	be 10 00 00 00       	mov    $0x10,%esi
   10533:	89 c7                	mov    %eax,%edi
   10535:	e8 59 96 ff ff       	callq  9b93 <safe_mul_func_uint8_t_u_u>
   1053a:	0f b6 c0             	movzbl %al,%eax
   1053d:	be 08 00 00 00       	mov    $0x8,%esi
   10542:	89 c7                	mov    %eax,%edi
   10544:	e8 75 98 ff ff       	callq  9dbe <safe_lshift_func_uint16_t_u_s>
   10549:	48 8b 95 a8 fb ff ff 	mov    -0x458(%rbp),%rdx
   10550:	8b 12                	mov    (%rdx),%edx
   10552:	0f b7 c0             	movzwl %ax,%eax
   10555:	09 c2                	or     %eax,%edx
   10557:	48 8b 85 a8 fb ff ff 	mov    -0x458(%rbp),%rax
   1055e:	89 10                	mov    %edx,(%rax)
   10560:	48 8b 85 f0 fa ff ff 	mov    -0x510(%rbp),%rax
   10567:	48 83 f8 01          	cmp    $0x1,%rax
   1056b:	0f 97 c0             	seta   %al
   1056e:	0f b6 c0             	movzbl %al,%eax
   10571:	89 de                	mov    %ebx,%esi
   10573:	89 c7                	mov    %eax,%edi
   10575:	e8 44 97 ff ff       	callq  9cbe <safe_rshift_func_uint8_t_u_u>
   1057a:	0f b6 d0             	movzbl %al,%edx
   1057d:	0f bf 85 04 fb ff ff 	movswl -0x4fc(%rbp),%eax
   10584:	31 c2                	xor    %eax,%edx
   10586:	0f be 85 01 fb ff ff 	movsbl -0x4ff(%rbp),%eax
   1058d:	39 c2                	cmp    %eax,%edx
   1058f:	75 07                	jne    10598 <func_39+0x5d0>
   10591:	ba 01 00 00 00       	mov    $0x1,%edx
   10596:	eb 05                	jmp    1059d <func_39+0x5d5>
   10598:	ba 00 00 00 00       	mov    $0x0,%edx
   1059d:	0f b6 85 f8 fa ff ff 	movzbl -0x508(%rbp),%eax
   105a4:	39 c2                	cmp    %eax,%edx
   105a6:	74 0c                	je     105b4 <func_39+0x5ec>
   105a8:	48 b8 15 1b 67 c5 37 	movabs $0x7992e37c5671b15,%rax
   105af:	2e 99 07 
   105b2:	eb 0a                	jmp    105be <func_39+0x5f6>
   105b4:	48 b8 14 1b 67 c5 37 	movabs $0x7992e37c5671b14,%rax
   105bb:	2e 99 07 
   105be:	4c 39 e8             	cmp    %r13,%rax
   105c1:	0f 9c c0             	setl   %al
   105c4:	0f b6 c0             	movzbl %al,%eax
   105c7:	89 05 bb 7a 00 00    	mov    %eax,0x7abb(%rip)        # 18088 <g_141>
   105cd:	8b 05 b5 7a 00 00    	mov    0x7ab5(%rip),%eax        # 18088 <g_141>
   105d3:	83 e0 01             	and    $0x1,%eax
   105d6:	89 c3                	mov    %eax,%ebx
   105d8:	8b 95 64 fc ff ff    	mov    -0x39c(%rbp),%edx
   105de:	8b 85 64 fc ff ff    	mov    -0x39c(%rbp),%eax
   105e4:	98                   	cwtl   
   105e5:	89 d6                	mov    %edx,%esi
   105e7:	89 c7                	mov    %eax,%edi
   105e9:	e8 a4 8e ff ff       	callq  9492 <safe_lshift_func_int16_t_s_s>
   105ee:	0f bf d0             	movswl %ax,%edx
   105f1:	8b 85 84 fc ff ff    	mov    -0x37c(%rbp),%eax
   105f7:	39 c2                	cmp    %eax,%edx
   105f9:	0f 94 c2             	sete   %dl
   105fc:	48 8b 05 55 94 00 00 	mov    0x9455(%rip),%rax        # 19a58 <g_210>
   10603:	0f b6 d2             	movzbl %dl,%edx
   10606:	89 10                	mov    %edx,(%rax)
   10608:	8b 00                	mov    (%rax),%eax
   1060a:	89 de                	mov    %ebx,%esi
   1060c:	89 c7                	mov    %eax,%edi
   1060e:	e8 b9 90 ff ff       	callq  96cc <safe_mod_func_int32_t_s_s>
   10613:	0f be d0             	movsbl %al,%edx
   10616:	8b 85 64 fc ff ff    	mov    -0x39c(%rbp),%eax
   1061c:	0f be c0             	movsbl %al,%eax
   1061f:	89 d6                	mov    %edx,%esi
   10621:	89 c7                	mov    %eax,%edi
   10623:	e8 09 8c ff ff       	callq  9231 <safe_mod_func_int8_t_s_s>
   10628:	c7 85 2c fb ff ff 75 	movl   $0x6a75,-0x4d4(%rbp)
   1062f:	6a 00 00 
   10632:	be 00 00 00 00       	mov    $0x0,%esi
   10637:	bf 75 6a 00 00       	mov    $0x6a75,%edi
   1063c:	e8 de 96 ff ff       	callq  9d1f <safe_sub_func_uint16_t_u_u>
   10641:	0f b7 c0             	movzwl %ax,%eax
   10644:	ba 48 41 1c c3       	mov    $0xc31c4148,%edx
   10649:	48 09 c2             	or     %rax,%rdx
   1064c:	0f b6 05 3b 7a 00 00 	movzbl 0x7a3b(%rip),%eax        # 1808e <g_179>
   10653:	48 0f be c0          	movsbq %al,%rax
   10657:	48 39 c2             	cmp    %rax,%rdx
   1065a:	75 4c                	jne    106a8 <func_39+0x6e0>
   1065c:	c7 85 20 fb ff ff 00 	movl   $0x0,-0x4e0(%rbp)
   10663:	00 00 00 
   10666:	eb 1e                	jmp    10686 <func_39+0x6be>
   10668:	8b 85 20 fb ff ff    	mov    -0x4e0(%rbp),%eax
   1066e:	48 98                	cltq   
   10670:	48 8d 95 80 fb ff ff 	lea    -0x480(%rbp),%rdx
   10677:	48 89 94 c5 90 fd ff 	mov    %rdx,-0x270(%rbp,%rax,8)
   1067e:	ff 
   1067f:	83 85 20 fb ff ff 01 	addl   $0x1,-0x4e0(%rbp)
   10686:	83 bd 20 fb ff ff 01 	cmpl   $0x1,-0x4e0(%rbp)
   1068d:	7e d9                	jle    10668 <func_39+0x6a0>
   1068f:	48 8b 85 80 fb ff ff 	mov    -0x480(%rbp),%rax
   10696:	48 89 85 80 fb ff ff 	mov    %rax,-0x480(%rbp)
   1069d:	8b 05 a9 79 00 00    	mov    0x79a9(%rip),%eax        # 1804c <g_57+0xc>
   106a3:	e9 28 0a 00 00       	jmpq   110d0 <func_39+0x1108>
   106a8:	c7 85 34 fb ff ff 69 	movl   $0xfe0e4c69,-0x4cc(%rbp)
   106af:	4c 0e fe 
   106b2:	c7 85 40 fd ff ff 62 	movl   $0x6d55ae62,-0x2c0(%rbp)
   106b9:	ae 55 6d 
   106bc:	c7 85 44 fd ff ff 00 	movl   $0x0,-0x2bc(%rbp)
   106c3:	00 00 00 
   106c6:	c7 85 48 fd ff ff 62 	movl   $0x6d55ae62,-0x2b8(%rbp)
   106cd:	ae 55 6d 
   106d0:	c7 85 4c fd ff ff 00 	movl   $0x0,-0x2b4(%rbp)
   106d7:	00 00 00 
   106da:	c7 85 50 fd ff ff 62 	movl   $0x6d55ae62,-0x2b0(%rbp)
   106e1:	ae 55 6d 
   106e4:	c7 85 54 fd ff ff 00 	movl   $0x0,-0x2ac(%rbp)
   106eb:	00 00 00 
   106ee:	c7 85 58 fd ff ff 62 	movl   $0x6d55ae62,-0x2a8(%rbp)
   106f5:	ae 55 6d 
   106f8:	c7 85 5c fd ff ff 00 	movl   $0x0,-0x2a4(%rbp)
   106ff:	00 00 00 
   10702:	c7 85 60 fd ff ff 62 	movl   $0x6d55ae62,-0x2a0(%rbp)
   10709:	ae 55 6d 
   1070c:	c7 85 64 fd ff ff 06 	movl   $0x6,-0x29c(%rbp)
   10713:	00 00 00 
   10716:	c7 85 68 fd ff ff 06 	movl   $0x6,-0x298(%rbp)
   1071d:	00 00 00 
   10720:	c7 85 6c fd ff ff 06 	movl   $0x6,-0x294(%rbp)
   10727:	00 00 00 
   1072a:	c7 85 70 fd ff ff 06 	movl   $0x6,-0x290(%rbp)
   10731:	00 00 00 
   10734:	c7 85 74 fd ff ff 06 	movl   $0x6,-0x28c(%rbp)
   1073b:	00 00 00 
   1073e:	c7 85 78 fd ff ff 06 	movl   $0x6,-0x288(%rbp)
   10745:	00 00 00 
   10748:	c7 85 7c fd ff ff 06 	movl   $0x6,-0x284(%rbp)
   1074f:	00 00 00 
   10752:	c7 85 80 fd ff ff 06 	movl   $0x6,-0x280(%rbp)
   10759:	00 00 00 
   1075c:	c7 85 84 fd ff ff 06 	movl   $0x6,-0x27c(%rbp)
   10763:	00 00 00 
   10766:	c6 85 02 fb ff ff 00 	movb   $0x0,-0x4fe(%rbp)
   1076d:	48 8d 05 ec 78 00 00 	lea    0x78ec(%rip),%rax        # 18060 <g_83>
   10774:	48 89 85 88 fb ff ff 	mov    %rax,-0x478(%rbp)
   1077b:	48 8d 85 88 fb ff ff 	lea    -0x478(%rbp),%rax
   10782:	48 89 85 90 fb ff ff 	mov    %rax,-0x470(%rbp)
   10789:	48 8d 85 90 fb ff ff 	lea    -0x470(%rbp),%rax
   10790:	48 89 85 b8 fb ff ff 	mov    %rax,-0x448(%rbp)
   10797:	48 c7 85 c0 fb ff ff 	movq   $0x0,-0x440(%rbp)
   1079e:	00 00 00 00 
   107a2:	48 8d 05 db 78 00 00 	lea    0x78db(%rip),%rax        # 18084 <g_130+0x2>
   107a9:	48 89 85 c8 fb ff ff 	mov    %rax,-0x438(%rbp)
   107b0:	c7 85 38 fb ff ff f0 	movl   $0x60b660f0,-0x4c8(%rbp)
   107b7:	60 b6 60 
   107ba:	48 c7 85 98 fb ff ff 	movq   $0xffffffffffffffff,-0x468(%rbp)
   107c1:	ff ff ff ff 
   107c5:	66 c7 85 0a fb ff ff 	movw   $0xb4b9,-0x4f6(%rbp)
   107cc:	b9 b4 
   107ce:	c6 85 00 fb ff ff 24 	movb   $0x24,-0x500(%rbp)
   107d5:	c6 05 c0 78 00 00 00 	movb   $0x0,0x78c0(%rip)        # 1809c <g_318>
   107dc:	e9 75 03 00 00       	jmpq   10b56 <func_39+0xb8e>
   107e1:	c6 85 03 fb ff ff 0a 	movb   $0xa,-0x4fd(%rbp)
   107e8:	48 c7 85 f8 fb ff ff 	movq   $0x0,-0x408(%rbp)
   107ef:	00 00 00 00 
   107f3:	48 8d 85 a0 fc ff ff 	lea    -0x360(%rbp),%rax
   107fa:	48 83 c0 10          	add    $0x10,%rax
   107fe:	48 89 85 00 fc ff ff 	mov    %rax,-0x400(%rbp)
   10805:	c7 85 68 fb ff ff f9 	movl   $0xa6fdfdf9,-0x498(%rbp)
   1080c:	fd fd a6 
   1080f:	c7 85 c0 fc ff ff 01 	movl   $0x1,-0x340(%rbp)
   10816:	00 00 00 
   10819:	c7 85 c4 fc ff ff f4 	movl   $0x705520f4,-0x33c(%rbp)
   10820:	20 55 70 
   10823:	c7 85 c8 fc ff ff f4 	movl   $0x705520f4,-0x338(%rbp)
   1082a:	20 55 70 
   1082d:	c7 85 cc fc ff ff 01 	movl   $0x1,-0x334(%rbp)
   10834:	00 00 00 
   10837:	c7 85 d0 fc ff ff f4 	movl   $0x705520f4,-0x330(%rbp)
   1083e:	20 55 70 
   10841:	c7 85 d4 fc ff ff f4 	movl   $0x705520f4,-0x32c(%rbp)
   10848:	20 55 70 
   1084b:	48 8b 05 9e af 00 00 	mov    0xaf9e(%rip),%rax        # 1b7f0 <g_46>
   10852:	0f b7 d8             	movzwl %ax,%ebx
   10855:	80 bd 03 fb ff ff 00 	cmpb   $0x0,-0x4fd(%rbp)
   1085c:	75 0f                	jne    1086d <func_39+0x8a5>
   1085e:	0f b6 95 f8 fa ff ff 	movzbl -0x508(%rbp),%edx
   10865:	8b 05 b9 77 00 00    	mov    0x77b9(%rip),%eax        # 18024 <g_2>
   1086b:	39 c2                	cmp    %eax,%edx
   1086d:	0f b6 85 f8 fa ff ff 	movzbl -0x508(%rbp),%eax
   10874:	44 0f be e0          	movsbl %al,%r12d
   10878:	83 bd 34 fb ff ff 00 	cmpl   $0x0,-0x4cc(%rbp)
   1087f:	0f 94 c0             	sete   %al
   10882:	44 0f b6 e8          	movzbl %al,%r13d
   10886:	8b 05 fc 77 00 00    	mov    0x77fc(%rip),%eax        # 18088 <g_141>
   1088c:	48 63 d0             	movslq %eax,%rdx
   1088f:	48 8b 85 f0 fa ff ff 	mov    -0x510(%rbp),%rax
   10896:	48 39 c2             	cmp    %rax,%rdx
   10899:	0f 94 c0             	sete   %al
   1089c:	0f b6 c0             	movzbl %al,%eax
   1089f:	be 00 00 00 00       	mov    $0x0,%esi
   108a4:	89 c7                	mov    %eax,%edi
   108a6:	e8 36 8c ff ff       	callq  94e1 <safe_lshift_func_int16_t_s_u>
   108ab:	66 83 f8 03          	cmp    $0x3,%ax
   108af:	0f 9f c0             	setg   %al
   108b2:	0f b6 d0             	movzbl %al,%edx
   108b5:	0f b6 05 bc 77 00 00 	movzbl 0x77bc(%rip),%eax        # 18078 <g_104+0x8>
   108bc:	66 98                	cbtw   
   108be:	66 35 c3 94          	xor    $0x94c3,%ax
   108c2:	98                   	cwtl   
   108c3:	89 d6                	mov    %edx,%esi
   108c5:	89 c7                	mov    %eax,%edi
   108c7:	e8 15 8c ff ff       	callq  94e1 <safe_lshift_func_int16_t_s_u>
   108cc:	89 c2                	mov    %eax,%edx
   108ce:	8b 85 34 fb ff ff    	mov    -0x4cc(%rbp),%eax
   108d4:	21 d0                	and    %edx,%eax
   108d6:	0f b7 c0             	movzwl %ax,%eax
   108d9:	be 0b 00 00 00       	mov    $0xb,%esi
   108de:	89 c7                	mov    %eax,%edi
   108e0:	e8 63 95 ff ff       	callq  9e48 <safe_rshift_func_uint16_t_u_s>
   108e5:	66 85 c0             	test   %ax,%ax
   108e8:	74 13                	je     108fd <func_39+0x935>
   108ea:	0f b7 85 fc fa ff ff 	movzwl -0x504(%rbp),%eax
   108f1:	66 85 c0             	test   %ax,%ax
   108f4:	74 07                	je     108fd <func_39+0x935>
   108f6:	b8 01 00 00 00       	mov    $0x1,%eax
   108fb:	eb 05                	jmp    10902 <func_39+0x93a>
   108fd:	b8 00 00 00 00       	mov    $0x0,%eax
   10902:	48 63 d0             	movslq %eax,%rdx
   10905:	48 8b 05 54 77 00 00 	mov    0x7754(%rip),%rax        # 18060 <g_83>
   1090c:	48 21 d0             	and    %rdx,%rax
   1090f:	49 39 c5             	cmp    %rax,%r13
   10912:	0f 96 c0             	setbe  %al
   10915:	0f b6 c0             	movzbl %al,%eax
   10918:	89 85 84 fd ff ff    	mov    %eax,-0x27c(%rbp)
   1091e:	8b 85 84 fd ff ff    	mov    -0x27c(%rbp),%eax
   10924:	0f be c0             	movsbl %al,%eax
   10927:	44 89 e6             	mov    %r12d,%esi
   1092a:	89 c7                	mov    %eax,%edi
   1092c:	e8 00 89 ff ff       	callq  9231 <safe_mod_func_int8_t_s_s>
   10931:	66 98                	cbtw   
   10933:	0f b7 c0             	movzwl %ax,%eax
   10936:	89 de                	mov    %ebx,%esi
   10938:	89 c7                	mov    %eax,%edi
   1093a:	e8 fe 93 ff ff       	callq  9d3d <safe_mul_func_uint16_t_u_u>
   1093f:	48 8b 85 00 fc ff ff 	mov    -0x400(%rbp),%rax
   10946:	48 8b 95 b0 fb ff ff 	mov    -0x450(%rbp),%rdx
   1094d:	48 89 10             	mov    %rdx,(%rax)
   10950:	c6 85 f8 fa ff ff 00 	movb   $0x0,-0x508(%rbp)
   10957:	e9 dd 01 00 00       	jmpq   10b39 <func_39+0xb71>
   1095c:	c7 85 6c fb ff ff 2a 	movl   $0x67eac62a,-0x494(%rbp)
   10963:	c6 ea 67 
   10966:	c7 85 90 fd ff ff aa 	movl   $0x29d404aa,-0x270(%rbp)
   1096d:	04 d4 29 
   10970:	c7 85 94 fd ff ff 05 	movl   $0x5,-0x26c(%rbp)
   10977:	00 00 00 
   1097a:	c7 85 98 fd ff ff aa 	movl   $0x29d404aa,-0x268(%rbp)
   10981:	04 d4 29 
   10984:	c7 85 9c fd ff ff 05 	movl   $0x5,-0x264(%rbp)
   1098b:	00 00 00 
   1098e:	c7 85 a0 fd ff ff aa 	movl   $0x29d404aa,-0x260(%rbp)
   10995:	04 d4 29 
   10998:	c7 85 a4 fd ff ff 05 	movl   $0x5,-0x25c(%rbp)
   1099f:	00 00 00 
   109a2:	c7 85 a8 fd ff ff aa 	movl   $0x29d404aa,-0x258(%rbp)
   109a9:	04 d4 29 
   109ac:	c7 85 ac fd ff ff 05 	movl   $0x5,-0x254(%rbp)
   109b3:	00 00 00 
   109b6:	c7 85 b0 fd ff ff aa 	movl   $0x29d404aa,-0x250(%rbp)
   109bd:	04 d4 29 
   109c0:	c7 85 70 fb ff ff 9b 	movl   $0x3cee7e9b,-0x490(%rbp)
   109c7:	7e ee 3c 
   109ca:	48 8b 85 00 fc ff ff 	mov    -0x400(%rbp),%rax
   109d1:	48 8b 00             	mov    (%rax),%rax
   109d4:	8b 00                	mov    (%rax),%eax
   109d6:	0f be d8             	movsbl %al,%ebx
   109d9:	0f b7 85 fc fa ff ff 	movzwl -0x504(%rbp),%eax
   109e0:	44 0f bf e0          	movswl %ax,%r12d
   109e4:	48 b8 16 ae 89 94 4e 	movabs $0xd1bed84e9489ae16,%rax
   109eb:	d8 be d1 
   109ee:	48 89 85 f0 fa ff ff 	mov    %rax,-0x510(%rbp)
   109f5:	48 8b 05 04 ae 00 00 	mov    0xae04(%rip),%rax        # 1b800 <g_137>
   109fc:	41 89 c5             	mov    %eax,%r13d
   109ff:	48 8b 05 52 90 00 00 	mov    0x9052(%rip),%rax        # 19a58 <g_210>
   10a06:	8b 10                	mov    (%rax),%edx
   10a08:	8b 85 34 fb ff ff    	mov    -0x4cc(%rbp),%eax
   10a0e:	89 d6                	mov    %edx,%esi
   10a10:	89 c7                	mov    %eax,%edi
   10a12:	e8 b5 8c ff ff       	callq  96cc <safe_mod_func_int32_t_s_s>
   10a17:	83 c8 01             	or     $0x1,%eax
   10a1a:	0f b7 c0             	movzwl %ax,%eax
   10a1d:	44 89 ee             	mov    %r13d,%esi
   10a20:	89 c7                	mov    %eax,%edi
   10a22:	e8 21 94 ff ff       	callq  9e48 <safe_rshift_func_uint16_t_u_s>
   10a27:	0f b6 05 6e 76 00 00 	movzbl 0x766e(%rip),%eax        # 1809c <g_318>
   10a2e:	0f be c0             	movsbl %al,%eax
   10a31:	83 c0 02             	add    $0x2,%eax
   10a34:	48 98                	cltq   
   10a36:	48 8d 14 85 00 00 00 	lea    0x0(,%rax,4),%rdx
   10a3d:	00 
   10a3e:	48 8d 05 2b 76 00 00 	lea    0x762b(%rip),%rax        # 18070 <g_104>
   10a45:	8b 04 02             	mov    (%rdx,%rax,1),%eax
   10a48:	0f b6 85 f8 fa ff ff 	movzbl -0x508(%rbp),%eax
   10a4f:	48 be a7 4c 2f d4 41 	movabs $0xb3690f41d42f4ca7,%rsi
   10a56:	0f 69 b3 
   10a59:	48 89 c7             	mov    %rax,%rdi
   10a5c:	e8 96 8f ff ff       	callq  99f7 <safe_div_func_int64_t_s_s>
   10a61:	41 89 c5             	mov    %eax,%r13d
   10a64:	0f b7 85 fc fa ff ff 	movzwl -0x504(%rbp),%eax
   10a6b:	48 0f bf c0          	movswq %ax,%rax
   10a6f:	48 89 c6             	mov    %rax,%rsi
   10a72:	48 c7 c7 ff ff ff ff 	mov    $0xffffffffffffffff,%rdi
   10a79:	e8 c3 8d ff ff       	callq  9841 <safe_add_func_int64_t_s_s>
   10a7e:	44 89 ee             	mov    %r13d,%esi
   10a81:	89 c7                	mov    %eax,%edi
   10a83:	e8 77 8c ff ff       	callq  96ff <safe_div_func_int32_t_s_s>
   10a88:	f7 d0                	not    %eax
   10a8a:	c1 e8 1f             	shr    $0x1f,%eax
   10a8d:	0f b6 d0             	movzbl %al,%edx
   10a90:	0f b6 85 f8 fa ff ff 	movzbl -0x508(%rbp),%eax
   10a97:	39 c2                	cmp    %eax,%edx
   10a99:	7c 07                	jl     10aa2 <func_39+0xada>
   10a9b:	b8 01 00 00 00       	mov    $0x1,%eax
   10aa0:	eb 05                	jmp    10aa7 <func_39+0xadf>
   10aa2:	b8 00 00 00 00       	mov    $0x0,%eax
   10aa7:	98                   	cwtl   
   10aa8:	44 89 e6             	mov    %r12d,%esi
   10aab:	89 c7                	mov    %eax,%edi
   10aad:	e8 43 89 ff ff       	callq  93f5 <safe_mul_func_int16_t_s_s>
   10ab2:	89 de                	mov    %ebx,%esi
   10ab4:	bf 00 00 00 00       	mov    $0x0,%edi
   10ab9:	e8 54 87 ff ff       	callq  9212 <safe_mul_func_int8_t_s_s>
   10abe:	0f be d0             	movsbl %al,%edx
   10ac1:	48 8b 85 b0 fb ff ff 	mov    -0x450(%rbp),%rax
   10ac8:	89 10                	mov    %edx,(%rax)
   10aca:	83 85 70 fb ff ff 01 	addl   $0x1,-0x490(%rbp)
   10ad1:	66 c7 05 b6 75 00 00 	movw   $0x0,0x75b6(%rip)        # 18090 <g_191>
   10ad8:	00 00 
   10ada:	eb 49                	jmp    10b25 <func_39+0xb5d>
   10adc:	c7 05 b2 75 00 00 03 	movl   $0x3,0x75b2(%rip)        # 18098 <g_314>
   10ae3:	00 00 00 
   10ae6:	90                   	nop
   10ae7:	8b 05 ab 75 00 00    	mov    0x75ab(%rip),%eax        # 18098 <g_314>
   10aed:	85 c0                	test   %eax,%eax
   10aef:	78 0d                	js     10afe <func_39+0xb36>
   10af1:	0f b7 05 9c 75 00 00 	movzwl 0x759c(%rip),%eax        # 18094 <g_201>
   10af8:	98                   	cwtl   
   10af9:	e9 d2 05 00 00       	jmpq   110d0 <func_39+0x1108>
   10afe:	0f b7 85 fc fa ff ff 	movzwl -0x504(%rbp),%eax
   10b05:	66 85 c0             	test   %ax,%ax
   10b08:	75 09                	jne    10b13 <func_39+0xb4b>
   10b0a:	83 bd 34 fb ff ff 00 	cmpl   $0x0,-0x4cc(%rbp)
   10b11:	eb 01                	jmp    10b14 <func_39+0xb4c>
   10b13:	90                   	nop
   10b14:	0f b7 05 75 75 00 00 	movzwl 0x7575(%rip),%eax        # 18090 <g_191>
   10b1b:	83 c0 01             	add    $0x1,%eax
   10b1e:	66 89 05 6b 75 00 00 	mov    %ax,0x756b(%rip)        # 18090 <g_191>
   10b25:	0f b7 05 64 75 00 00 	movzwl 0x7564(%rip),%eax        # 18090 <g_191>
   10b2c:	66 83 f8 01          	cmp    $0x1,%ax
   10b30:	7e aa                	jle    10adc <func_39+0xb14>
   10b32:	80 85 f8 fa ff ff 01 	addb   $0x1,-0x508(%rbp)
   10b39:	80 bd f8 fa ff ff 03 	cmpb   $0x3,-0x508(%rbp)
   10b40:	0f 86 16 fe ff ff    	jbe    1095c <func_39+0x994>
   10b46:	0f b6 05 4f 75 00 00 	movzbl 0x754f(%rip),%eax        # 1809c <g_318>
   10b4d:	83 c0 01             	add    $0x1,%eax
   10b50:	88 05 46 75 00 00    	mov    %al,0x7546(%rip)        # 1809c <g_318>
   10b56:	0f b6 05 3f 75 00 00 	movzbl 0x753f(%rip),%eax        # 1809c <g_318>
   10b5d:	3c 01                	cmp    $0x1,%al
   10b5f:	0f 8e 7c fc ff ff    	jle    107e1 <func_39+0x819>
   10b65:	c6 85 02 fb ff ff ff 	movb   $0xff,-0x4fe(%rbp)
   10b6c:	0f b7 05 11 75 00 00 	movzwl 0x7511(%rip),%eax        # 18084 <g_130+0x2>
   10b73:	83 c0 01             	add    $0x1,%eax
   10b76:	66 89 05 07 75 00 00 	mov    %ax,0x7507(%rip)        # 18084 <g_130+0x2>
   10b7d:	0f b7 05 00 75 00 00 	movzwl 0x7500(%rip),%eax        # 18084 <g_130+0x2>
   10b84:	0f b7 c0             	movzwl %ax,%eax
   10b87:	be ff ff 00 00       	mov    $0xffff,%esi
   10b8c:	89 c7                	mov    %eax,%edi
   10b8e:	e8 aa 91 ff ff       	callq  9d3d <safe_mul_func_uint16_t_u_u>
   10b93:	0f b7 d0             	movzwl %ax,%edx
   10b96:	48 8b 85 b0 fb ff ff 	mov    -0x450(%rbp),%rax
   10b9d:	89 10                	mov    %edx,(%rax)
   10b9f:	48 8b 95 90 fb ff ff 	mov    -0x470(%rbp),%rdx
   10ba6:	48 8b 85 b8 fb ff ff 	mov    -0x448(%rbp),%rax
   10bad:	48 89 10             	mov    %rdx,(%rax)
   10bb0:	41 bc 01 00 00 00    	mov    $0x1,%r12d
   10bb6:	48 8b 85 f0 fa ff ff 	mov    -0x510(%rbp),%rax
   10bbd:	0f be d8             	movsbl %al,%ebx
   10bc0:	8b 85 74 fd ff ff    	mov    -0x28c(%rbp),%eax
   10bc6:	48 63 d0             	movslq %eax,%rdx
   10bc9:	48 8d 05 c8 74 00 00 	lea    0x74c8(%rip),%rax        # 18098 <g_314>
   10bd0:	48 89 05 11 92 00 00 	mov    %rax,0x9211(%rip)        # 19de8 <g_384>
   10bd7:	48 8b 85 f0 fa ff ff 	mov    -0x510(%rbp),%rax
   10bde:	48 85 c0             	test   %rax,%rax
   10be1:	0f 95 c0             	setne  %al
   10be4:	0f b6 c0             	movzbl %al,%eax
   10be7:	48 89 d6             	mov    %rdx,%rsi
   10bea:	48 89 c7             	mov    %rax,%rdi
   10bed:	e8 bd 94 ff ff       	callq  a0af <safe_div_func_uint64_t_u_u>
   10bf2:	48 83 f8 fb          	cmp    $0xfffffffffffffffb,%rax
   10bf6:	0f 97 c0             	seta   %al
   10bf9:	0f b6 c0             	movzbl %al,%eax
   10bfc:	be 1a e4 a5 2a       	mov    $0x2aa5e41a,%esi
   10c01:	89 c7                	mov    %eax,%edi
   10c03:	e8 f7 8a ff ff       	callq  96ff <safe_div_func_int32_t_s_s>
   10c08:	85 c0                	test   %eax,%eax
   10c0a:	74 10                	je     10c1c <func_39+0xc54>
   10c0c:	83 bd 34 fb ff ff 00 	cmpl   $0x0,-0x4cc(%rbp)
   10c13:	74 07                	je     10c1c <func_39+0xc54>
   10c15:	ba 01 00 00 00       	mov    $0x1,%edx
   10c1a:	eb 05                	jmp    10c21 <func_39+0xc59>
   10c1c:	ba 00 00 00 00       	mov    $0x0,%edx
   10c21:	0f b7 85 fc fa ff ff 	movzwl -0x504(%rbp),%eax
   10c28:	0f b6 c0             	movzbl %al,%eax
   10c2b:	89 d6                	mov    %edx,%esi
   10c2d:	89 c7                	mov    %eax,%edi
   10c2f:	e8 d1 8f ff ff       	callq  9c05 <safe_lshift_func_uint8_t_u_s>
   10c34:	0f be c0             	movsbl %al,%eax
   10c37:	89 de                	mov    %ebx,%esi
   10c39:	89 c7                	mov    %eax,%edi
   10c3b:	e8 d2 85 ff ff       	callq  9212 <safe_mul_func_int8_t_s_s>
   10c40:	0f be c0             	movsbl %al,%eax
   10c43:	be 00 00 00 00       	mov    $0x0,%esi
   10c48:	89 c7                	mov    %eax,%edi
   10c4a:	e8 f3 89 ff ff       	callq  9642 <safe_mul_func_int32_t_s_s>
   10c4f:	8b 15 23 74 00 00    	mov    0x7423(%rip),%edx        # 18078 <g_104+0x8>
   10c55:	44 89 e0             	mov    %r12d,%eax
   10c58:	30 85 f8 fa ff ff    	xor    %al,-0x508(%rbp)
   10c5e:	0f b6 85 f8 fa ff ff 	movzbl -0x508(%rbp),%eax
   10c65:	89 d1                	mov    %edx,%ecx
   10c67:	31 c1                	xor    %eax,%ecx
   10c69:	48 8b 85 10 fd ff ff 	mov    -0x2f0(%rbp),%rax
   10c70:	48 39 85 c8 fb ff ff 	cmp    %rax,-0x438(%rbp)
   10c77:	0f 95 c0             	setne  %al
   10c7a:	0f b6 d0             	movzbl %al,%edx
   10c7d:	8b 85 40 fd ff ff    	mov    -0x2c0(%rbp),%eax
   10c83:	21 c2                	and    %eax,%edx
   10c85:	48 8b 85 b0 fb ff ff 	mov    -0x450(%rbp),%rax
   10c8c:	8b 00                	mov    (%rax),%eax
   10c8e:	09 d0                	or     %edx,%eax
   10c90:	f7 d0                	not    %eax
   10c92:	39 85 38 fb ff ff    	cmp    %eax,-0x4c8(%rbp)
   10c98:	0f 96 c0             	setbe  %al
   10c9b:	0f b6 c0             	movzbl %al,%eax
   10c9e:	39 c1                	cmp    %eax,%ecx
   10ca0:	0f 95 c0             	setne  %al
   10ca3:	0f b6 c0             	movzbl %al,%eax
   10ca6:	be 05 00 00 00       	mov    $0x5,%esi
   10cab:	89 c7                	mov    %eax,%edi
   10cad:	e8 0c 91 ff ff       	callq  9dbe <safe_lshift_func_uint16_t_u_s>
   10cb2:	48 8b 15 9f 8d 00 00 	mov    0x8d9f(%rip),%rdx        # 19a58 <g_210>
   10cb9:	8b 0a                	mov    (%rdx),%ecx
   10cbb:	0f b7 d0             	movzwl %ax,%edx
   10cbe:	48 8b 05 93 8d 00 00 	mov    0x8d93(%rip),%rax        # 19a58 <g_210>
   10cc5:	21 ca                	and    %ecx,%edx
   10cc7:	89 10                	mov    %edx,(%rax)
   10cc9:	c7 05 65 73 00 00 00 	movl   $0x0,0x7365(%rip)        # 18038 <g_55>
   10cd0:	00 00 00 
   10cd3:	e9 e0 03 00 00       	jmpq   110b8 <func_39+0x10f0>
   10cd8:	48 8d 85 90 fd ff ff 	lea    -0x270(%rbp),%rax
   10cdf:	48 8d 15 1a 89 00 00 	lea    0x891a(%rip),%rdx        # 19600 <g_1941+0x1330>
   10ce6:	b9 48 00 00 00       	mov    $0x48,%ecx
   10ceb:	48 89 c7             	mov    %rax,%rdi
   10cee:	48 89 d6             	mov    %rdx,%rsi
   10cf1:	f3 48 a5             	rep movsq %ds:(%rsi),%es:(%rdi)
   10cf4:	c7 85 3c fb ff ff 65 	movl   $0x9ba46365,-0x4c4(%rbp)
   10cfb:	63 a4 9b 
   10cfe:	48 8d 85 80 fc ff ff 	lea    -0x380(%rbp),%rax
   10d05:	48 89 85 d0 fb ff ff 	mov    %rax,-0x430(%rbp)
   10d0c:	48 8d 05 7b 73 00 00 	lea    0x737b(%rip),%rax        # 1808e <g_179>
   10d13:	48 89 85 d8 fb ff ff 	mov    %rax,-0x428(%rbp)
   10d1a:	c7 85 40 fb ff ff 5c 	movl   $0x7bc7d45c,-0x4c0(%rbp)
   10d21:	d4 c7 7b 
   10d24:	48 8d 85 90 fb ff ff 	lea    -0x470(%rbp),%rax
   10d2b:	48 89 85 e0 fb ff ff 	mov    %rax,-0x420(%rbp)
   10d32:	c7 85 44 fb ff ff ff 	movl   $0xffffffff,-0x4bc(%rbp)
   10d39:	ff ff ff 
   10d3c:	c7 85 48 fb ff ff ff 	movl   $0xffffffff,-0x4b8(%rbp)
   10d43:	ff ff ff 
   10d46:	c7 85 4c fb ff ff ff 	movl   $0xffffffff,-0x4b4(%rbp)
   10d4d:	ff ff ff 
   10d50:	48 8d 85 80 fb ff ff 	lea    -0x480(%rbp),%rax
   10d57:	48 89 85 c0 fc ff ff 	mov    %rax,-0x340(%rbp)
   10d5e:	48 8d 85 80 fb ff ff 	lea    -0x480(%rbp),%rax
   10d65:	48 89 85 c8 fc ff ff 	mov    %rax,-0x338(%rbp)
   10d6c:	48 8d 85 80 fb ff ff 	lea    -0x480(%rbp),%rax
   10d73:	48 89 85 d0 fc ff ff 	mov    %rax,-0x330(%rbp)
   10d7a:	48 8d 85 80 fb ff ff 	lea    -0x480(%rbp),%rax
   10d81:	48 89 85 d8 fc ff ff 	mov    %rax,-0x328(%rbp)
   10d88:	48 8d 85 80 fb ff ff 	lea    -0x480(%rbp),%rax
   10d8f:	48 89 85 e0 fc ff ff 	mov    %rax,-0x320(%rbp)
   10d96:	48 8d 85 80 fb ff ff 	lea    -0x480(%rbp),%rax
   10d9d:	48 89 85 e8 fc ff ff 	mov    %rax,-0x318(%rbp)
   10da4:	48 8d 85 80 fb ff ff 	lea    -0x480(%rbp),%rax
   10dab:	48 89 85 f0 fc ff ff 	mov    %rax,-0x310(%rbp)
   10db2:	48 8b 05 9f 8c 00 00 	mov    0x8c9f(%rip),%rax        # 19a58 <g_210>
   10db9:	c7 00 ff ff ff ff    	movl   $0xffffffff,(%rax)
   10dbf:	8b 85 3c fb ff ff    	mov    -0x4c4(%rbp),%eax
   10dc5:	0f be d8             	movsbl %al,%ebx
   10dc8:	48 8b 85 b8 fe ff ff 	mov    -0x148(%rbp),%rax
   10dcf:	48 85 c0             	test   %rax,%rax
   10dd2:	8b 85 3c fb ff ff    	mov    -0x4c4(%rbp),%eax
   10dd8:	0f b7 d0             	movzwl %ax,%edx
   10ddb:	48 8b 85 f0 fa ff ff 	mov    -0x510(%rbp),%rax
   10de2:	83 c8 01             	or     $0x1,%eax
   10de5:	0f b7 c0             	movzwl %ax,%eax
   10de8:	89 d6                	mov    %edx,%esi
   10dea:	89 c7                	mov    %eax,%edi
   10dec:	e8 4c 8f ff ff       	callq  9d3d <safe_mul_func_uint16_t_u_u>
   10df1:	8b 95 3c fb ff ff    	mov    -0x4c4(%rbp),%edx
   10df7:	48 8b 85 d0 fb ff ff 	mov    -0x430(%rbp),%rax
   10dfe:	8b 08                	mov    (%rax),%ecx
   10e00:	48 0f be b5 02 fb ff 	movsbq -0x4fe(%rbp),%rsi
   10e07:	ff 
   10e08:	48 8b 85 f0 fa ff ff 	mov    -0x510(%rbp),%rax
   10e0f:	48 39 c6             	cmp    %rax,%rsi
   10e12:	0f 95 c0             	setne  %al
   10e15:	0f b6 f0             	movzbl %al,%esi
   10e18:	0f b6 05 7d 72 00 00 	movzbl 0x727d(%rip),%eax        # 1809c <g_318>
   10e1f:	0f be c0             	movsbl %al,%eax
   10e22:	39 c6                	cmp    %eax,%esi
   10e24:	0f 9c c0             	setl   %al
   10e27:	0f b6 c0             	movzbl %al,%eax
   10e2a:	21 c1                	and    %eax,%ecx
   10e2c:	48 8b 85 d0 fb ff ff 	mov    -0x430(%rbp),%rax
   10e33:	89 08                	mov    %ecx,(%rax)
   10e35:	48 8b 85 d0 fb ff ff 	mov    -0x430(%rbp),%rax
   10e3c:	8b 00                	mov    (%rax),%eax
   10e3e:	89 d6                	mov    %edx,%esi
   10e40:	89 c7                	mov    %eax,%edi
   10e42:	e8 89 90 ff ff       	callq  9ed0 <safe_sub_func_uint32_t_u_u>
   10e47:	0f be c0             	movsbl %al,%eax
   10e4a:	89 de                	mov    %ebx,%esi
   10e4c:	89 c7                	mov    %eax,%edi
   10e4e:	e8 bf 83 ff ff       	callq  9212 <safe_mul_func_int8_t_s_s>
   10e53:	0f be c0             	movsbl %al,%eax
   10e56:	89 85 3c fb ff ff    	mov    %eax,-0x4c4(%rbp)
   10e5c:	48 8b 05 f5 8b 00 00 	mov    0x8bf5(%rip),%rax        # 19a58 <g_210>
   10e63:	8b 00                	mov    (%rax),%eax
   10e65:	85 c0                	test   %eax,%eax
   10e67:	0f 85 5c 02 00 00    	jne    110c9 <func_39+0x1101>
   10e6d:	48 8d 85 98 fb ff ff 	lea    -0x468(%rbp),%rax
   10e74:	48 89 85 e8 fb ff ff 	mov    %rax,-0x418(%rbp)
   10e7b:	c7 85 50 fb ff ff 4e 	movl   $0x531f7f4e,-0x4b0(%rbp)
   10e82:	7f 1f 53 
   10e85:	c7 85 24 fb ff ff ff 	movl   $0xffffffff,-0x4dc(%rbp)
   10e8c:	ff ff ff 
   10e8f:	c7 85 54 fb ff ff 01 	movl   $0x1,-0x4ac(%rbp)
   10e96:	00 00 00 
   10e99:	c7 85 58 fb ff ff 01 	movl   $0x1,-0x4a8(%rbp)
   10ea0:	00 00 00 
   10ea3:	c7 85 5c fb ff ff 00 	movl   $0x0,-0x4a4(%rbp)
   10eaa:	00 00 00 
   10ead:	c7 85 60 fb ff ff 87 	movl   $0x46b6e087,-0x4a0(%rbp)
   10eb4:	e0 b6 46 
   10eb7:	c7 85 64 fb ff ff 03 	movl   $0x3,-0x49c(%rbp)
   10ebe:	00 00 00 
   10ec1:	c7 85 28 fb ff ff 00 	movl   $0x0,-0x4d8(%rbp)
   10ec8:	00 00 00 
   10ecb:	eb 1e                	jmp    10eeb <func_39+0xf23>
   10ecd:	8b 85 28 fb ff ff    	mov    -0x4d8(%rbp),%eax
   10ed3:	48 98                	cltq   
   10ed5:	48 8d 15 b4 71 00 00 	lea    0x71b4(%rip),%rdx        # 18090 <g_191>
   10edc:	48 89 94 c5 68 fc ff 	mov    %rdx,-0x398(%rbp,%rax,8)
   10ee3:	ff 
   10ee4:	83 85 28 fb ff ff 01 	addl   $0x1,-0x4d8(%rbp)
   10eeb:	83 bd 28 fb ff ff 00 	cmpl   $0x0,-0x4d8(%rbp)
   10ef2:	7e d9                	jle    10ecd <func_39+0xf05>
   10ef4:	48 8b 85 f0 fa ff ff 	mov    -0x510(%rbp),%rax
   10efb:	41 89 c4             	mov    %eax,%r12d
   10efe:	48 8b 05 43 8b 00 00 	mov    0x8b43(%rip),%rax        # 19a48 <g_98>
   10f05:	48 8b 10             	mov    (%rax),%rdx
   10f08:	48 8b 85 88 fb ff ff 	mov    -0x478(%rbp),%rax
   10f0f:	48 39 c2             	cmp    %rax,%rdx
   10f12:	0f 95 c0             	setne  %al
   10f15:	0f b6 c0             	movzbl %al,%eax
   10f18:	66 89 85 fc fa ff ff 	mov    %ax,-0x504(%rbp)
   10f1f:	0f b7 85 fc fa ff ff 	movzwl -0x504(%rbp),%eax
   10f26:	98                   	cwtl   
   10f27:	be 05 00 00 00       	mov    $0x5,%esi
   10f2c:	89 c7                	mov    %eax,%edi
   10f2e:	e8 30 86 ff ff       	callq  9563 <safe_rshift_func_int16_t_s_u>
   10f33:	89 c2                	mov    %eax,%edx
   10f35:	48 8b 85 d8 fb ff ff 	mov    -0x428(%rbp),%rax
   10f3c:	88 10                	mov    %dl,(%rax)
   10f3e:	8b 85 34 fb ff ff    	mov    -0x4cc(%rbp),%eax
   10f44:	0f b6 d8             	movzbl %al,%ebx
   10f47:	0f b7 85 0a fb ff ff 	movzwl -0x4f6(%rbp),%eax
   10f4e:	41 89 c6             	mov    %eax,%r14d
   10f51:	8b 05 41 71 00 00    	mov    0x7141(%rip),%eax        # 18098 <g_314>
   10f57:	41 89 c5             	mov    %eax,%r13d
   10f5a:	48 8b 05 9f 8e 00 00 	mov    0x8e9f(%rip),%rax        # 19e00 <g_406>
   10f61:	48 8b 00             	mov    (%rax),%rax
   10f64:	48 8b 00             	mov    (%rax),%rax
   10f67:	48 8b 10             	mov    (%rax),%rdx
   10f6a:	48 8b 85 e8 fb ff ff 	mov    -0x418(%rbp),%rax
   10f71:	48 8b 00             	mov    (%rax),%rax
   10f74:	48 31 c2             	xor    %rax,%rdx
   10f77:	48 8b 85 e8 fb ff ff 	mov    -0x418(%rbp),%rax
   10f7e:	48 89 10             	mov    %rdx,(%rax)
   10f81:	8b 85 84 fd ff ff    	mov    -0x27c(%rbp),%eax
   10f87:	0f b7 c0             	movzwl %ax,%eax
   10f8a:	89 c6                	mov    %eax,%esi
   10f8c:	bf fd ec 00 00       	mov    $0xecfd,%edi
   10f91:	e8 a7 8d ff ff       	callq  9d3d <safe_mul_func_uint16_t_u_u>
   10f96:	0f b7 c0             	movzwl %ax,%eax
   10f99:	48 83 c8 fd          	or     $0xfffffffffffffffd,%rax
   10f9d:	48 89 c2             	mov    %rax,%rdx
   10fa0:	48 8b 85 f0 fa ff ff 	mov    -0x510(%rbp),%rax
   10fa7:	48 39 c2             	cmp    %rax,%rdx
   10faa:	0f 95 c0             	setne  %al
   10fad:	0f b6 c0             	movzbl %al,%eax
   10fb0:	0b 85 3c fb ff ff    	or     -0x4c4(%rbp),%eax
   10fb6:	48 63 d0             	movslq %eax,%rdx
   10fb9:	48 8b 85 a0 fb ff ff 	mov    -0x460(%rbp),%rax
   10fc0:	48 89 10             	mov    %rdx,(%rax)
   10fc3:	b8 01 00 00 00       	mov    $0x1,%eax
   10fc8:	89 85 50 fb ff ff    	mov    %eax,-0x4b0(%rbp)
   10fce:	8b 85 50 fb ff ff    	mov    -0x4b0(%rbp),%eax
   10fd4:	98                   	cwtl   
   10fd5:	44 89 ee             	mov    %r13d,%esi
   10fd8:	89 c7                	mov    %eax,%edi
   10fda:	e8 02 85 ff ff       	callq  94e1 <safe_lshift_func_int16_t_s_u>
   10fdf:	44 21 f0             	and    %r14d,%eax
   10fe2:	0f b6 c0             	movzbl %al,%eax
   10fe5:	89 de                	mov    %ebx,%esi
   10fe7:	89 c7                	mov    %eax,%edi
   10fe9:	e8 a5 8b ff ff       	callq  9b93 <safe_mul_func_uint8_t_u_u>
   10fee:	8b 85 40 fb ff ff    	mov    -0x4c0(%rbp),%eax
   10ff4:	3b 85 30 fb ff ff    	cmp    -0x4d0(%rbp),%eax
   10ffa:	0f 97 c0             	seta   %al
   10ffd:	0f b6 c0             	movzbl %al,%eax
   11000:	89 85 24 fb ff ff    	mov    %eax,-0x4dc(%rbp)
   11006:	48 8b 85 e0 fb ff ff 	mov    -0x420(%rbp),%rax
   1100d:	48 89 85 b8 fb ff ff 	mov    %rax,-0x448(%rbp)
   11014:	b8 01 00 00 00       	mov    $0x1,%eax
   11019:	89 c2                	mov    %eax,%edx
   1101b:	0f b6 05 7a 70 00 00 	movzbl 0x707a(%rip),%eax        # 1809c <g_318>
   11022:	66 98                	cbtw   
   11024:	09 d0                	or     %edx,%eax
   11026:	0f b7 c0             	movzwl %ax,%eax
   11029:	44 89 e6             	mov    %r12d,%esi
   1102c:	89 c7                	mov    %eax,%edi
   1102e:	e8 15 8e ff ff       	callq  9e48 <safe_rshift_func_uint16_t_u_s>
   11033:	0f b7 c0             	movzwl %ax,%eax
   11036:	21 85 54 fb ff ff    	and    %eax,-0x4ac(%rbp)
   1103c:	0f b6 85 00 fb ff ff 	movzbl -0x500(%rbp),%eax
   11043:	83 e8 01             	sub    $0x1,%eax
   11046:	88 85 00 fb ff ff    	mov    %al,-0x500(%rbp)
   1104c:	c7 85 24 fb ff ff 00 	movl   $0x0,-0x4dc(%rbp)
   11053:	00 00 00 
   11056:	eb 3a                	jmp    11092 <func_39+0x10ca>
   11058:	48 8d 85 a0 fc ff ff 	lea    -0x360(%rbp),%rax
   1105f:	48 83 c0 08          	add    $0x8,%rax
   11063:	48 89 85 f0 fb ff ff 	mov    %rax,-0x410(%rbp)
   1106a:	48 8d 85 64 fc ff ff 	lea    -0x39c(%rbp),%rax
   11071:	8b 95 24 fb ff ff    	mov    -0x4dc(%rbp),%edx
   11077:	48 63 d2             	movslq %edx,%rdx
   1107a:	48 c1 e2 03          	shl    $0x3,%rdx
   1107e:	48 01 c2             	add    %rax,%rdx
   11081:	48 8b 85 f0 fb ff ff 	mov    -0x410(%rbp),%rax
   11088:	48 89 10             	mov    %rdx,(%rax)
   1108b:	83 85 24 fb ff ff 01 	addl   $0x1,-0x4dc(%rbp)
   11092:	83 bd 24 fb ff ff 00 	cmpl   $0x0,-0x4dc(%rbp)
   11099:	7e bd                	jle    11058 <func_39+0x1090>
   1109b:	83 bd 40 fb ff ff 00 	cmpl   $0x0,-0x4c0(%rbp)
   110a2:	74 05                	je     110a9 <func_39+0x10e1>
   110a4:	e9 ba f3 ff ff       	jmpq   10463 <func_39+0x49b>
   110a9:	8b 05 89 6f 00 00    	mov    0x6f89(%rip),%eax        # 18038 <g_55>
   110af:	83 c0 01             	add    $0x1,%eax
   110b2:	89 05 80 6f 00 00    	mov    %eax,0x6f80(%rip)        # 18038 <g_55>
   110b8:	8b 05 7a 6f 00 00    	mov    0x6f7a(%rip),%eax        # 18038 <g_55>
   110be:	83 f8 07             	cmp    $0x7,%eax
   110c1:	0f 8f 11 fc ff ff    	jg     10cd8 <func_39+0xd10>
   110c7:	eb 01                	jmp    110ca <func_39+0x1102>
   110c9:	90                   	nop
   110ca:	8b 85 7c fc ff ff    	mov    -0x384(%rbp),%eax
   110d0:	48 8b 5d d8          	mov    -0x28(%rbp),%rbx
   110d4:	64 48 33 1c 25 28 00 	xor    %fs:0x28,%rbx
   110db:	00 00 
   110dd:	74 05                	je     110e4 <func_39+0x111c>
   110df:	e8 8c 7f ff ff       	callq  9070 <__stack_chk_fail@plt>
   110e4:	48 81 c4 f0 04 00 00 	add    $0x4f0,%rsp
   110eb:	5b                   	pop    %rbx
   110ec:	41 5c                	pop    %r12
   110ee:	41 5d                	pop    %r13
   110f0:	41 5e                	pop    %r14
   110f2:	5d                   	pop    %rbp
   110f3:	c3                   	retq   

00000000000110f4 <func_69>:
   110f4:	f3 0f 1e fa          	endbr64 
   110f8:	55                   	push   %rbp
   110f9:	48 89 e5             	mov    %rsp,%rbp
   110fc:	41 56                	push   %r14
   110fe:	41 55                	push   %r13
   11100:	41 54                	push   %r12
   11102:	53                   	push   %rbx
   11103:	48 81 ec f0 03 00 00 	sub    $0x3f0,%rsp
   1110a:	89 bd fc fb ff ff    	mov    %edi,-0x404(%rbp)
   11110:	64 48 8b 04 25 28 00 	mov    %fs:0x28,%rax
   11117:	00 00 
   11119:	48 89 45 d8          	mov    %rax,-0x28(%rbp)
   1111d:	31 c0                	xor    %eax,%eax
   1111f:	48 8d 05 fe 6e 00 00 	lea    0x6efe(%rip),%rax        # 18024 <g_2>
   11126:	48 89 85 38 fc ff ff 	mov    %rax,-0x3c8(%rbp)
   1112d:	48 8d 05 18 6f 00 00 	lea    0x6f18(%rip),%rax        # 1804c <g_57+0xc>
   11134:	48 89 85 40 fc ff ff 	mov    %rax,-0x3c0(%rbp)
   1113b:	c7 85 08 fc ff ff cd 	movl   $0xc46319cd,-0x3f8(%rbp)
   11142:	19 63 c4 
   11145:	48 8d 05 a4 a6 00 00 	lea    0xa6a4(%rip),%rax        # 1b7f0 <g_46>
   1114c:	48 89 85 48 fc ff ff 	mov    %rax,-0x3b8(%rbp)
   11153:	48 b8 aa 3c 37 24 ee 	movabs $0xf3bd94ee24373caa,%rax
   1115a:	94 bd f3 
   1115d:	48 89 85 20 fc ff ff 	mov    %rax,-0x3e0(%rbp)
   11164:	c7 85 0c fc ff ff 00 	movl   $0x0,-0x3f4(%rbp)
   1116b:	00 00 00 
   1116e:	c6 85 02 fc ff ff 0e 	movb   $0xe,-0x3fe(%rbp)
   11175:	66 c7 85 04 fc ff ff 	movw   $0xb70b,-0x3fc(%rbp)
   1117c:	0b b7 
   1117e:	c7 85 10 fc ff ff 00 	movl   $0x0,-0x3f0(%rbp)
   11185:	00 00 00 
   11188:	eb 1e                	jmp    111a8 <func_69+0xb4>
   1118a:	8b 85 10 fc ff ff    	mov    -0x3f0(%rbp),%eax
   11190:	48 98                	cltq   
   11192:	48 8d 15 4f a6 00 00 	lea    0xa64f(%rip),%rdx        # 1b7e8 <g_4>
   11199:	48 89 94 c5 a0 fc ff 	mov    %rdx,-0x360(%rbp,%rax,8)
   111a0:	ff 
   111a1:	83 85 10 fc ff ff 01 	addl   $0x1,-0x3f0(%rbp)
   111a8:	83 bd 10 fc ff ff 02 	cmpl   $0x2,-0x3f0(%rbp)
   111af:	7e d9                	jle    1118a <func_69+0x96>
   111b1:	c7 85 10 fc ff ff 00 	movl   $0x0,-0x3f0(%rbp)
   111b8:	00 00 00 
   111bb:	eb 1e                	jmp    111db <func_69+0xe7>
   111bd:	8b 85 10 fc ff ff    	mov    -0x3f0(%rbp),%eax
   111c3:	48 98                	cltq   
   111c5:	48 8d 15 8c 6e 00 00 	lea    0x6e8c(%rip),%rdx        # 18058 <g_57+0x18>
   111cc:	48 89 94 c5 c0 fc ff 	mov    %rdx,-0x340(%rbp,%rax,8)
   111d3:	ff 
   111d4:	83 85 10 fc ff ff 01 	addl   $0x1,-0x3f0(%rbp)
   111db:	83 bd 10 fc ff ff 03 	cmpl   $0x3,-0x3f0(%rbp)
   111e2:	7e d9                	jle    111bd <func_69+0xc9>
   111e4:	48 8d 05 39 6e 00 00 	lea    0x6e39(%rip),%rax        # 18024 <g_2>
   111eb:	48 89 85 38 fc ff ff 	mov    %rax,-0x3c8(%rbp)
   111f2:	48 8b 85 38 fc ff ff 	mov    -0x3c8(%rbp),%rax
   111f9:	8b 10                	mov    (%rax),%edx
   111fb:	48 8b 85 40 fc ff ff 	mov    -0x3c0(%rbp),%rax
   11202:	8b 00                	mov    (%rax),%eax
   11204:	09 c2                	or     %eax,%edx
   11206:	48 8b 85 40 fc ff ff 	mov    -0x3c0(%rbp),%rax
   1120d:	89 10                	mov    %edx,(%rax)
   1120f:	c7 05 6f 6e 00 00 00 	movl   $0x0,0x6e6f(%rip)        # 18088 <g_141>
   11216:	00 00 00 
   11219:	e9 f9 08 00 00       	jmpq   11b17 <func_69+0xa23>
   1121e:	48 c7 85 80 fc ff ff 	movq   $0x0,-0x380(%rbp)
   11225:	00 00 00 00 
   11229:	c7 85 1c fc ff ff 6a 	movl   $0xe2074a6a,-0x3e4(%rbp)
   11230:	4a 07 e2 
   11233:	c7 85 00 fd ff ff f9 	movl   $0xfffffff9,-0x300(%rbp)
   1123a:	ff ff ff 
   1123d:	c7 85 04 fd ff ff f9 	movl   $0xfffffff9,-0x2fc(%rbp)
   11244:	ff ff ff 
   11247:	c7 85 08 fd ff ff f9 	movl   $0xfffffff9,-0x2f8(%rbp)
   1124e:	ff ff ff 
   11251:	c7 85 0c fd ff ff f9 	movl   $0xfffffff9,-0x2f4(%rbp)
   11258:	ff ff ff 
   1125b:	c7 85 10 fd ff ff f9 	movl   $0xfffffff9,-0x2f0(%rbp)
   11262:	ff ff ff 
   11265:	c7 85 14 fd ff ff f9 	movl   $0xfffffff9,-0x2ec(%rbp)
   1126c:	ff ff ff 
   1126f:	c7 85 18 fd ff ff f9 	movl   $0xfffffff9,-0x2e8(%rbp)
   11276:	ff ff ff 
   11279:	c7 85 1c fd ff ff f9 	movl   $0xfffffff9,-0x2e4(%rbp)
   11280:	ff ff ff 
   11283:	c7 85 20 fd ff ff f9 	movl   $0xfffffff9,-0x2e0(%rbp)
   1128a:	ff ff ff 
   1128d:	c7 85 24 fd ff ff f9 	movl   $0xfffffff9,-0x2dc(%rbp)
   11294:	ff ff ff 
   11297:	48 8d 05 f2 6d 00 00 	lea    0x6df2(%rip),%rax        # 18090 <g_191>
   1129e:	48 89 85 88 fc ff ff 	mov    %rax,-0x378(%rbp)
   112a5:	48 c7 05 50 a5 00 00 	movq   $0x0,0xa550(%rip)        # 1b800 <g_137>
   112ac:	00 00 00 00 
   112b0:	e9 85 03 00 00       	jmpq   1163a <func_69+0x546>
   112b5:	48 8d 85 a0 fc ff ff 	lea    -0x360(%rbp),%rax
   112bc:	48 83 c0 08          	add    $0x8,%rax
   112c0:	48 89 85 70 fd ff ff 	mov    %rax,-0x290(%rbp)
   112c7:	48 8d 85 a0 fc ff ff 	lea    -0x360(%rbp),%rax
   112ce:	48 83 c0 08          	add    $0x8,%rax
   112d2:	48 89 85 78 fd ff ff 	mov    %rax,-0x288(%rbp)
   112d9:	48 8d 85 a0 fc ff ff 	lea    -0x360(%rbp),%rax
   112e0:	48 83 c0 08          	add    $0x8,%rax
   112e4:	48 89 85 80 fd ff ff 	mov    %rax,-0x280(%rbp)
   112eb:	48 8d 85 a0 fc ff ff 	lea    -0x360(%rbp),%rax
   112f2:	48 83 c0 08          	add    $0x8,%rax
   112f6:	48 89 85 88 fd ff ff 	mov    %rax,-0x278(%rbp)
   112fd:	48 8d 85 a0 fc ff ff 	lea    -0x360(%rbp),%rax
   11304:	48 83 c0 08          	add    $0x8,%rax
   11308:	48 89 85 90 fd ff ff 	mov    %rax,-0x270(%rbp)
   1130f:	48 8d 85 a0 fc ff ff 	lea    -0x360(%rbp),%rax
   11316:	48 83 c0 08          	add    $0x8,%rax
   1131a:	48 89 85 98 fd ff ff 	mov    %rax,-0x268(%rbp)
   11321:	48 8d 85 a0 fc ff ff 	lea    -0x360(%rbp),%rax
   11328:	48 83 c0 08          	add    $0x8,%rax
   1132c:	48 89 85 a0 fd ff ff 	mov    %rax,-0x260(%rbp)
   11333:	48 8d 85 a0 fc ff ff 	lea    -0x360(%rbp),%rax
   1133a:	48 83 c0 08          	add    $0x8,%rax
   1133e:	48 89 85 a8 fd ff ff 	mov    %rax,-0x258(%rbp)
   11345:	48 8d 85 a0 fc ff ff 	lea    -0x360(%rbp),%rax
   1134c:	48 83 c0 08          	add    $0x8,%rax
   11350:	48 89 85 b0 fd ff ff 	mov    %rax,-0x250(%rbp)
   11357:	48 8d 05 2e 6d 00 00 	lea    0x6d2e(%rip),%rax        # 1808c <g_176>
   1135e:	48 89 85 90 fc ff ff 	mov    %rax,-0x370(%rbp)
   11365:	48 8d 05 f4 6c 00 00 	lea    0x6cf4(%rip),%rax        # 18060 <g_83>
   1136c:	48 89 85 98 fc ff ff 	mov    %rax,-0x368(%rbp)
   11373:	48 8d 85 d0 fd ff ff 	lea    -0x230(%rbp),%rax
   1137a:	48 8d 15 bf 84 00 00 	lea    0x84bf(%rip),%rdx        # 19840 <g_1941+0x1570>
   11381:	b9 40 00 00 00       	mov    $0x40,%ecx
   11386:	48 89 c7             	mov    %rax,%rdi
   11389:	48 89 d6             	mov    %rdx,%rsi
   1138c:	f3 48 a5             	rep movsq %ds:(%rsi),%es:(%rdi)
   1138f:	48 8b 05 5a a4 00 00 	mov    0xa45a(%rip),%rax        # 1b7f0 <g_46>
   11396:	41 89 c6             	mov    %eax,%r14d
   11399:	8b 9d fc fb ff ff    	mov    -0x404(%rbp),%ebx
   1139f:	48 8b 05 ba 6c 00 00 	mov    0x6cba(%rip),%rax        # 18060 <g_83>
   113a6:	44 0f b6 e0          	movzbl %al,%r12d
   113aa:	0f b6 85 fc fb ff ff 	movzbl -0x404(%rbp),%eax
   113b1:	44 0f b6 e8          	movzbl %al,%r13d
   113b5:	48 8b 05 a4 6c 00 00 	mov    0x6ca4(%rip),%rax        # 18060 <g_83>
   113bc:	0f be d0             	movsbl %al,%edx
   113bf:	8b 85 fc fb ff ff    	mov    -0x404(%rbp),%eax
   113c5:	0f be c0             	movsbl %al,%eax
   113c8:	89 d6                	mov    %edx,%esi
   113ca:	89 c7                	mov    %eax,%edi
   113cc:	e8 99 7e ff ff       	callq  926a <safe_div_func_int8_t_s_s>
   113d1:	48 8b 85 90 fc ff ff 	mov    -0x370(%rbp),%rax
   113d8:	0f b7 00             	movzwl (%rax),%eax
   113db:	89 c2                	mov    %eax,%edx
   113dd:	8b 85 08 fc ff ff    	mov    -0x3f8(%rbp),%eax
   113e3:	09 d0                	or     %edx,%eax
   113e5:	89 c2                	mov    %eax,%edx
   113e7:	48 8b 85 90 fc ff ff 	mov    -0x370(%rbp),%rax
   113ee:	66 89 10             	mov    %dx,(%rax)
   113f1:	48 8b 85 90 fc ff ff 	mov    -0x370(%rbp),%rax
   113f8:	0f b7 00             	movzwl (%rax),%eax
   113fb:	0f b7 c0             	movzwl %ax,%eax
   113fe:	0b 85 1c fc ff ff    	or     -0x3e4(%rbp),%eax
   11404:	89 c2                	mov    %eax,%edx
   11406:	0f b6 05 73 6c 00 00 	movzbl 0x6c73(%rip),%eax        # 18080 <g_119>
   1140d:	0f b6 c0             	movzbl %al,%eax
   11410:	89 d6                	mov    %edx,%esi
   11412:	89 c7                	mov    %eax,%edi
   11414:	e8 a5 88 ff ff       	callq  9cbe <safe_rshift_func_uint8_t_u_u>
   11419:	0f b6 05 60 6c 00 00 	movzbl 0x6c60(%rip),%eax        # 18080 <g_119>
   11420:	0f be d0             	movsbl %al,%edx
   11423:	0f b7 05 58 6c 00 00 	movzwl 0x6c58(%rip),%eax        # 18082 <g_130>
   1142a:	0f b7 c0             	movzwl %ax,%eax
   1142d:	89 d6                	mov    %edx,%esi
   1142f:	89 c7                	mov    %eax,%edi
   11431:	e8 82 8a ff ff       	callq  9eb8 <safe_add_func_uint32_t_u_u>
   11436:	0f b6 c0             	movzbl %al,%eax
   11439:	44 89 ee             	mov    %r13d,%esi
   1143c:	89 c7                	mov    %eax,%edi
   1143e:	e8 35 87 ff ff       	callq  9b78 <safe_sub_func_uint8_t_u_u>
   11443:	0f b6 85 fc fb ff ff 	movzbl -0x404(%rbp),%eax
   1144a:	0f be d0             	movsbl %al,%edx
   1144d:	8b 05 95 a3 00 00    	mov    0xa395(%rip),%eax        # 1b7e8 <g_4>
   11453:	39 c2                	cmp    %eax,%edx
   11455:	0f 9f c0             	setg   %al
   11458:	0f b6 c0             	movzbl %al,%eax
   1145b:	be 05 00 00 00       	mov    $0x5,%esi
   11460:	89 c7                	mov    %eax,%edi
   11462:	e8 05 7f ff ff       	callq  936c <safe_rshift_func_int8_t_s_u>
   11467:	48 8b 85 40 fc ff ff 	mov    -0x3c0(%rbp),%rax
   1146e:	8b 00                	mov    (%rax),%eax
   11470:	f7 d0                	not    %eax
   11472:	c1 e8 1f             	shr    $0x1f,%eax
   11475:	0f b6 d0             	movzbl %al,%edx
   11478:	0f b6 85 fc fb ff ff 	movzbl -0x404(%rbp),%eax
   1147f:	0f be c0             	movsbl %al,%eax
   11482:	39 c2                	cmp    %eax,%edx
   11484:	0f 94 c0             	sete   %al
   11487:	0f b6 c0             	movzbl %al,%eax
   1148a:	be 00 00 00 00       	mov    $0x0,%esi
   1148f:	89 c7                	mov    %eax,%edi
   11491:	e8 a7 88 ff ff       	callq  9d3d <safe_mul_func_uint16_t_u_u>
   11496:	0f b6 c0             	movzbl %al,%eax
   11499:	44 89 e6             	mov    %r12d,%esi
   1149c:	89 c7                	mov    %eax,%edi
   1149e:	e8 d5 86 ff ff       	callq  9b78 <safe_sub_func_uint8_t_u_u>
   114a3:	48 8d 05 b6 6b 00 00 	lea    0x6bb6(%rip),%rax        # 18060 <g_83>
   114aa:	48 39 85 98 fc ff ff 	cmp    %rax,-0x368(%rbp)
   114b1:	0f 94 c0             	sete   %al
   114b4:	0f b6 c0             	movzbl %al,%eax
   114b7:	89 de                	mov    %ebx,%esi
   114b9:	89 c7                	mov    %eax,%edi
   114bb:	e8 2e 7e ff ff       	callq  92ee <safe_lshift_func_int8_t_s_u>
   114c0:	0f b6 15 c7 6b 00 00 	movzbl 0x6bc7(%rip),%edx        # 1808e <g_179>
   114c7:	31 d0                	xor    %edx,%eax
   114c9:	88 05 bf 6b 00 00    	mov    %al,0x6bbf(%rip)        # 1808e <g_179>
   114cf:	0f b6 05 b8 6b 00 00 	movzbl 0x6bb8(%rip),%eax        # 1808e <g_179>
   114d6:	0f be c0             	movsbl %al,%eax
   114d9:	be ac ff ff ff       	mov    $0xffffffac,%esi
   114de:	89 c7                	mov    %eax,%edi
   114e0:	e8 ef 7c ff ff       	callq  91d4 <safe_add_func_int8_t_s_s>
   114e5:	66 98                	cbtw   
   114e7:	0f b7 c0             	movzwl %ax,%eax
   114ea:	25 a9 69 00 00       	and    $0x69a9,%eax
   114ef:	44 89 f6             	mov    %r14d,%esi
   114f2:	89 c7                	mov    %eax,%edi
   114f4:	e8 4f 89 ff ff       	callq  9e48 <safe_rshift_func_uint16_t_u_s>
   114f9:	0f be d0             	movsbl %al,%edx
   114fc:	8b 05 22 6b 00 00    	mov    0x6b22(%rip),%eax        # 18024 <g_2>
   11502:	0f be c0             	movsbl %al,%eax
   11505:	89 d6                	mov    %edx,%esi
   11507:	89 c7                	mov    %eax,%edi
   11509:	e8 04 7d ff ff       	callq  9212 <safe_mul_func_int8_t_s_s>
   1150e:	48 8b 85 a8 fc ff ff 	mov    -0x358(%rbp),%rax
   11515:	48 89 85 80 fc ff ff 	mov    %rax,-0x380(%rbp)
   1151c:	48 8d 05 29 6b 00 00 	lea    0x6b29(%rip),%rax        # 1804c <g_57+0xc>
   11523:	48 39 85 80 fc ff ff 	cmp    %rax,-0x380(%rbp)
   1152a:	74 22                	je     1154e <func_69+0x45a>
   1152c:	0f b7 05 59 6b 00 00 	movzwl 0x6b59(%rip),%eax        # 1808c <g_176>
   11533:	0f b7 c0             	movzwl %ax,%eax
   11536:	89 05 10 6b 00 00    	mov    %eax,0x6b10(%rip)        # 1804c <g_57+0xc>
   1153c:	48 8b 85 80 fc ff ff 	mov    -0x380(%rbp),%rax
   11543:	8b 00                	mov    (%rax),%eax
   11545:	85 c0                	test   %eax,%eax
   11547:	74 18                	je     11561 <func_69+0x46d>
   11549:	e9 da 00 00 00       	jmpq   11628 <func_69+0x534>
   1154e:	c6 85 03 fc ff ff f8 	movb   $0xf8,-0x3fd(%rbp)
   11555:	0f b6 85 03 fc ff ff 	movzbl -0x3fd(%rbp),%eax
   1155c:	e9 d2 08 00 00       	jmpq   11e33 <func_69+0xd3f>
   11561:	8b 05 81 a2 00 00    	mov    0xa281(%rip),%eax        # 1b7e8 <g_4>
   11567:	0f b7 c0             	movzwl %ax,%eax
   1156a:	be 04 00 00 00       	mov    $0x4,%esi
   1156f:	89 c7                	mov    %eax,%edi
   11571:	e8 48 88 ff ff       	callq  9dbe <safe_lshift_func_uint16_t_u_s>
   11576:	be d6 4c 00 00       	mov    $0x4cd6,%esi
   1157b:	bf 01 00 00 00       	mov    $0x1,%edi
   11580:	e8 91 7e ff ff       	callq  9416 <safe_mod_func_int16_t_s_s>
   11585:	be 01 00 00 00       	mov    $0x1,%esi
   1158a:	bf 01 00 00 00       	mov    $0x1,%edi
   1158f:	e8 1f 7e ff ff       	callq  93b3 <safe_add_func_int16_t_s_s>
   11594:	66 89 05 f5 6a 00 00 	mov    %ax,0x6af5(%rip)        # 18090 <g_191>
   1159b:	0f b7 05 ee 6a 00 00 	movzwl 0x6aee(%rip),%eax        # 18090 <g_191>
   115a2:	48 0f bf c0          	movswq %ax,%rax
   115a6:	48 0d 9e 9b 00 00    	or     $0x9b9e,%rax
   115ac:	48 89 c2             	mov    %rax,%rdx
   115af:	48 b8 88 93 ad 69 5d 	movabs $0xbb44e65d69ad9388,%rax
   115b6:	e6 44 bb 
   115b9:	48 31 c2             	xor    %rax,%rdx
   115bc:	0f b6 05 b5 6a 00 00 	movzbl 0x6ab5(%rip),%eax        # 18078 <g_104+0x8>
   115c3:	48 0f be c0          	movsbq %al,%rax
   115c7:	48 39 c2             	cmp    %rax,%rdx
   115ca:	0f b6 05 a7 6a 00 00 	movzbl 0x6aa7(%rip),%eax        # 18078 <g_104+0x8>
   115d1:	48 8b 05 28 a2 00 00 	mov    0xa228(%rip),%rax        # 1b800 <g_137>
   115d8:	48 85 c0             	test   %rax,%rax
   115db:	0f 9e c0             	setle  %al
   115de:	0f b6 c0             	movzbl %al,%eax
   115e1:	48 63 d0             	movslq %eax,%rdx
   115e4:	48 8b 05 75 6a 00 00 	mov    0x6a75(%rip),%rax        # 18060 <g_83>
   115eb:	48 21 d0             	and    %rdx,%rax
   115ee:	48 85 c0             	test   %rax,%rax
   115f1:	74 07                	je     115fa <func_69+0x506>
   115f3:	b8 01 00 00 00       	mov    $0x1,%eax
   115f8:	eb 05                	jmp    115ff <func_69+0x50b>
   115fa:	b8 00 00 00 00       	mov    $0x0,%eax
   115ff:	0f b7 d0             	movzwl %ax,%edx
   11602:	8b 05 80 6a 00 00    	mov    0x6a80(%rip),%eax        # 18088 <g_141>
   11608:	0f b7 c0             	movzwl %ax,%eax
   1160b:	89 d6                	mov    %edx,%esi
   1160d:	89 c7                	mov    %eax,%edi
   1160f:	e8 29 87 ff ff       	callq  9d3d <safe_mul_func_uint16_t_u_u>
   11614:	88 05 78 6a 00 00    	mov    %al,0x6a78(%rip)        # 18092 <g_192>
   1161a:	48 8d 85 08 fc ff ff 	lea    -0x3f8(%rbp),%rax
   11621:	48 89 85 a8 fc ff ff 	mov    %rax,-0x358(%rbp)
   11628:	48 8b 05 d1 a1 00 00 	mov    0xa1d1(%rip),%rax        # 1b800 <g_137>
   1162f:	48 83 e8 01          	sub    $0x1,%rax
   11633:	48 89 05 c6 a1 00 00 	mov    %rax,0xa1c6(%rip)        # 1b800 <g_137>
   1163a:	48 8b 05 bf a1 00 00 	mov    0xa1bf(%rip),%rax        # 1b800 <g_137>
   11641:	48 83 f8 f7          	cmp    $0xfffffffffffffff7,%rax
   11645:	0f 8d 6a fc ff ff    	jge    112b5 <func_69+0x1c1>
   1164b:	48 8b 85 20 fc ff ff 	mov    -0x3e0(%rbp),%rax
   11652:	48 83 c0 01          	add    $0x1,%rax
   11656:	48 89 85 20 fc ff ff 	mov    %rax,-0x3e0(%rbp)
   1165d:	c6 05 1c 6a 00 00 f7 	movb   $0xf7,0x6a1c(%rip)        # 18080 <g_119>
   11664:	e9 cc 03 00 00       	jmpq   11a35 <func_69+0x941>
   11669:	48 b8 52 b6 07 d9 c2 	movabs $0x4ead8c2d907b652,%rax
   11670:	d8 ea 04 
   11673:	48 89 85 e0 fc ff ff 	mov    %rax,-0x320(%rbp)
   1167a:	48 89 85 e8 fc ff ff 	mov    %rax,-0x318(%rbp)
   11681:	48 89 85 f0 fc ff ff 	mov    %rax,-0x310(%rbp)
   11688:	48 89 85 f8 fc ff ff 	mov    %rax,-0x308(%rbp)
   1168f:	c7 85 d0 fd ff ff fd 	movl   $0xfffffffd,-0x230(%rbp)
   11696:	ff ff ff 
   11699:	c7 85 d4 fd ff ff 02 	movl   $0x2,-0x22c(%rbp)
   116a0:	00 00 00 
   116a3:	c7 85 d8 fd ff ff 08 	movl   $0x80532108,-0x228(%rbp)
   116aa:	21 53 80 
   116ad:	c7 85 dc fd ff ff b7 	movl   $0x3b9d00b7,-0x224(%rbp)
   116b4:	00 9d 3b 
   116b7:	c7 85 e0 fd ff ff 01 	movl   $0x1,-0x220(%rbp)
   116be:	00 00 00 
   116c1:	c7 85 e4 fd ff ff 91 	movl   $0xeb7b0691,-0x21c(%rbp)
   116c8:	06 7b eb 
   116cb:	c7 85 e8 fd ff ff ff 	movl   $0xffffffff,-0x218(%rbp)
   116d2:	ff ff ff 
   116d5:	c7 85 ec fd ff ff b5 	movl   $0xc46fe8b5,-0x214(%rbp)
   116dc:	e8 6f c4 
   116df:	c7 85 f0 fd ff ff 01 	movl   $0x1,-0x210(%rbp)
   116e6:	00 00 00 
   116e9:	c7 85 f4 fd ff ff 08 	movl   $0x80532108,-0x20c(%rbp)
   116f0:	21 53 80 
   116f3:	c7 85 f8 fd ff ff 08 	movl   $0x80532108,-0x208(%rbp)
   116fa:	21 53 80 
   116fd:	c7 85 fc fd ff ff 01 	movl   $0x1,-0x204(%rbp)
   11704:	00 00 00 
   11707:	c7 85 00 fe ff ff fd 	movl   $0xfffffffd,-0x200(%rbp)
   1170e:	ff ff ff 
   11711:	c7 85 04 fe ff ff b5 	movl   $0xc46fe8b5,-0x1fc(%rbp)
   11718:	e8 6f c4 
   1171b:	c7 85 08 fe ff ff b7 	movl   $0x3b9d00b7,-0x1f8(%rbp)
   11722:	00 9d 3b 
   11725:	c7 85 0c fe ff ff 08 	movl   $0x80532108,-0x1f4(%rbp)
   1172c:	21 53 80 
   1172f:	c7 85 10 fe ff ff b5 	movl   $0xc46fe8b5,-0x1f0(%rbp)
   11736:	e8 6f c4 
   11739:	c7 85 14 fe ff ff 91 	movl   $0xeb7b0691,-0x1ec(%rbp)
   11740:	06 7b eb 
   11743:	c7 85 18 fe ff ff ff 	movl   $0xffffffff,-0x1e8(%rbp)
   1174a:	ff ff ff 
   1174d:	c7 85 1c fe ff ff 76 	movl   $0xe52f0d76,-0x1e4(%rbp)
   11754:	0d 2f e5 
   11757:	c7 85 20 fe ff ff 02 	movl   $0x2,-0x1e0(%rbp)
   1175e:	00 00 00 
   11761:	c7 85 24 fe ff ff fd 	movl   $0xfffffffd,-0x1dc(%rbp)
   11768:	ff ff ff 
   1176b:	c7 85 28 fe ff ff 08 	movl   $0x80532108,-0x1d8(%rbp)
   11772:	21 53 80 
   11775:	c7 85 2c fe ff ff 76 	movl   $0xe52f0d76,-0x1d4(%rbp)
   1177c:	0d 2f e5 
   1177f:	c7 85 30 fe ff ff 31 	movl   $0xd6885c31,-0x1d0(%rbp)
   11786:	5c 88 d6 
   11789:	c7 85 34 fe ff ff 91 	movl   $0xeb7b0691,-0x1cc(%rbp)
   11790:	06 7b eb 
   11793:	c7 85 38 fe ff ff 31 	movl   $0xd6885c31,-0x1c8(%rbp)
   1179a:	5c 88 d6 
   1179d:	c7 85 3c fe ff ff 08 	movl   $0x80532108,-0x1c4(%rbp)
   117a4:	21 53 80 
   117a7:	c7 85 40 fe ff ff 01 	movl   $0x1,-0x1c0(%rbp)
   117ae:	00 00 00 
   117b1:	c7 85 44 fe ff ff b5 	movl   $0xc46fe8b5,-0x1bc(%rbp)
   117b8:	e8 6f c4 
   117bb:	c7 85 48 fe ff ff 00 	movl   $0x0,-0x1b8(%rbp)
   117c2:	00 00 00 
   117c5:	c7 85 4c fe ff ff 01 	movl   $0x1,-0x1b4(%rbp)
   117cc:	00 00 00 
   117cf:	c7 85 50 fe ff ff 02 	movl   $0x2,-0x1b0(%rbp)
   117d6:	00 00 00 
   117d9:	c7 85 54 fe ff ff 08 	movl   $0x80532108,-0x1ac(%rbp)
   117e0:	21 53 80 
   117e3:	c7 85 58 fe ff ff b7 	movl   $0x3b9d00b7,-0x1a8(%rbp)
   117ea:	00 9d 3b 
   117ed:	c7 85 5c fe ff ff b5 	movl   $0xc46fe8b5,-0x1a4(%rbp)
   117f4:	e8 6f c4 
   117f7:	c7 85 60 fe ff ff 08 	movl   $0x80532108,-0x1a0(%rbp)
   117fe:	21 53 80 
   11801:	c7 85 64 fe ff ff 91 	movl   $0xeb7b0691,-0x19c(%rbp)
   11808:	06 7b eb 
   1180b:	c7 85 68 fe ff ff b7 	movl   $0x3b9d00b7,-0x198(%rbp)
   11812:	00 9d 3b 
   11815:	c7 85 6c fe ff ff b7 	movl   $0x3b9d00b7,-0x194(%rbp)
   1181c:	00 9d 3b 
   1181f:	c7 85 70 fe ff ff 02 	movl   $0x2,-0x190(%rbp)
   11826:	00 00 00 
   11829:	c7 85 74 fe ff ff 02 	movl   $0x2,-0x18c(%rbp)
   11830:	00 00 00 
   11833:	c7 85 78 fe ff ff 00 	movl   $0x0,-0x188(%rbp)
   1183a:	00 00 00 
   1183d:	c7 85 7c fe ff ff 76 	movl   $0xe52f0d76,-0x184(%rbp)
   11844:	0d 2f e5 
   11847:	c7 85 80 fe ff ff 01 	movl   $0x1,-0x180(%rbp)
   1184e:	00 00 00 
   11851:	c7 85 84 fe ff ff fc 	movl   $0x8c2c0afc,-0x17c(%rbp)
   11858:	0a 2c 8c 
   1185b:	c7 85 88 fe ff ff 31 	movl   $0xd6885c31,-0x178(%rbp)
   11862:	5c 88 d6 
   11865:	c7 85 8c fe ff ff b5 	movl   $0xc46fe8b5,-0x174(%rbp)
   1186c:	e8 6f c4 
   1186f:	c7 85 90 fe ff ff 31 	movl   $0xd6885c31,-0x170(%rbp)
   11876:	5c 88 d6 
   11879:	c7 85 94 fe ff ff b5 	movl   $0xc46fe8b5,-0x16c(%rbp)
   11880:	e8 6f c4 
   11883:	c7 85 98 fe ff ff 08 	movl   $0x80532108,-0x168(%rbp)
   1188a:	21 53 80 
   1188d:	c7 85 9c fe ff ff 31 	movl   $0xd6885c31,-0x164(%rbp)
   11894:	5c 88 d6 
   11897:	c7 85 a0 fe ff ff 02 	movl   $0x2,-0x160(%rbp)
   1189e:	00 00 00 
   118a1:	c7 85 a4 fe ff ff b5 	movl   $0xc46fe8b5,-0x15c(%rbp)
   118a8:	e8 6f c4 
   118ab:	c7 85 a8 fe ff ff ff 	movl   $0xffffffff,-0x158(%rbp)
   118b2:	ff ff ff 
   118b5:	c7 85 ac fe ff ff b5 	movl   $0xc46fe8b5,-0x154(%rbp)
   118bc:	e8 6f c4 
   118bf:	c7 85 b0 fe ff ff b5 	movl   $0xc46fe8b5,-0x150(%rbp)
   118c6:	e8 6f c4 
   118c9:	c7 85 b4 fe ff ff fc 	movl   $0x8c2c0afc,-0x14c(%rbp)
   118d0:	0a 2c 8c 
   118d3:	c7 85 b8 fe ff ff b7 	movl   $0x3b9d00b7,-0x148(%rbp)
   118da:	00 9d 3b 
   118dd:	c7 85 bc fe ff ff 76 	movl   $0xe52f0d76,-0x144(%rbp)
   118e4:	0d 2f e5 
   118e7:	c7 85 c0 fe ff ff fd 	movl   $0xfffffffd,-0x140(%rbp)
   118ee:	ff ff ff 
   118f1:	c7 85 c4 fe ff ff 02 	movl   $0x2,-0x13c(%rbp)
   118f8:	00 00 00 
   118fb:	c7 85 c8 fe ff ff 08 	movl   $0x80532108,-0x138(%rbp)
   11902:	21 53 80 
   11905:	c7 85 cc fe ff ff b7 	movl   $0x3b9d00b7,-0x134(%rbp)
   1190c:	00 9d 3b 
   1190f:	83 85 0c fc ff ff 01 	addl   $0x1,-0x3f4(%rbp)
   11916:	48 8b 85 e8 fc ff ff 	mov    -0x318(%rbp),%rax
   1191d:	48 85 c0             	test   %rax,%rax
   11920:	0f 85 fe 00 00 00    	jne    11a24 <func_69+0x930>
   11926:	c7 85 0c fc ff ff 00 	movl   $0x0,-0x3f4(%rbp)
   1192d:	00 00 00 
   11930:	e9 e0 00 00 00       	jmpq   11a15 <func_69+0x921>
   11935:	48 8d 05 fc 66 00 00 	lea    0x66fc(%rip),%rax        # 18038 <g_55>
   1193c:	48 89 85 30 fd ff ff 	mov    %rax,-0x2d0(%rbp)
   11943:	48 8d 05 ee 66 00 00 	lea    0x66ee(%rip),%rax        # 18038 <g_55>
   1194a:	48 89 85 38 fd ff ff 	mov    %rax,-0x2c8(%rbp)
   11951:	48 8d 05 e0 66 00 00 	lea    0x66e0(%rip),%rax        # 18038 <g_55>
   11958:	48 89 85 40 fd ff ff 	mov    %rax,-0x2c0(%rbp)
   1195f:	48 8d 05 d2 66 00 00 	lea    0x66d2(%rip),%rax        # 18038 <g_55>
   11966:	48 89 85 48 fd ff ff 	mov    %rax,-0x2b8(%rbp)
   1196d:	48 8d 05 c4 66 00 00 	lea    0x66c4(%rip),%rax        # 18038 <g_55>
   11974:	48 89 85 50 fd ff ff 	mov    %rax,-0x2b0(%rbp)
   1197b:	48 8d 05 b6 66 00 00 	lea    0x66b6(%rip),%rax        # 18038 <g_55>
   11982:	48 89 85 58 fd ff ff 	mov    %rax,-0x2a8(%rbp)
   11989:	48 8d 05 a8 66 00 00 	lea    0x66a8(%rip),%rax        # 18038 <g_55>
   11990:	48 89 85 60 fd ff ff 	mov    %rax,-0x2a0(%rbp)
   11997:	c7 85 14 fc ff ff 00 	movl   $0x0,-0x3ec(%rbp)
   1199e:	00 00 00 
   119a1:	eb 54                	jmp    119f7 <func_69+0x903>
   119a3:	c7 85 18 fc ff ff 00 	movl   $0x0,-0x3e8(%rbp)
   119aa:	00 00 00 
   119ad:	eb 38                	jmp    119e7 <func_69+0x8f3>
   119af:	8b 85 18 fc ff ff    	mov    -0x3e8(%rbp),%eax
   119b5:	48 63 c8             	movslq %eax,%rcx
   119b8:	8b 85 14 fc ff ff    	mov    -0x3ec(%rbp),%eax
   119be:	48 63 d0             	movslq %eax,%rdx
   119c1:	48 89 d0             	mov    %rdx,%rax
   119c4:	48 01 c0             	add    %rax,%rax
   119c7:	48 01 d0             	add    %rdx,%rax
   119ca:	48 01 c8             	add    %rcx,%rax
   119cd:	48 8d 95 30 fd ff ff 	lea    -0x2d0(%rbp),%rdx
   119d4:	48 83 c2 10          	add    $0x10,%rdx
   119d8:	48 89 94 c5 70 fd ff 	mov    %rdx,-0x290(%rbp,%rax,8)
   119df:	ff 
   119e0:	83 85 18 fc ff ff 01 	addl   $0x1,-0x3e8(%rbp)
   119e7:	83 bd 18 fc ff ff 02 	cmpl   $0x2,-0x3e8(%rbp)
   119ee:	7e bf                	jle    119af <func_69+0x8bb>
   119f0:	83 85 14 fc ff ff 01 	addl   $0x1,-0x3ec(%rbp)
   119f7:	83 bd 14 fc ff ff 03 	cmpl   $0x3,-0x3ec(%rbp)
   119fe:	7e a3                	jle    119a3 <func_69+0x8af>
   11a00:	48 8b 85 60 fd ff ff 	mov    -0x2a0(%rbp),%rax
   11a07:	48 89 05 4a 80 00 00 	mov    %rax,0x804a(%rip)        # 19a58 <g_210>
   11a0e:	83 85 0c fc ff ff 01 	addl   $0x1,-0x3f4(%rbp)
   11a15:	83 bd 0c fc ff ff 39 	cmpl   $0x39,-0x3f4(%rbp)
   11a1c:	0f 85 13 ff ff ff    	jne    11935 <func_69+0x841>
   11a22:	eb 01                	jmp    11a25 <func_69+0x931>
   11a24:	90                   	nop
   11a25:	0f b6 05 54 66 00 00 	movzbl 0x6654(%rip),%eax        # 18080 <g_119>
   11a2c:	83 e8 01             	sub    $0x1,%eax
   11a2f:	88 05 4b 66 00 00    	mov    %al,0x664b(%rip)        # 18080 <g_119>
   11a35:	0f b6 05 44 66 00 00 	movzbl 0x6644(%rip),%eax        # 18080 <g_119>
   11a3c:	3c e8                	cmp    $0xe8,%al
   11a3e:	0f 8c 25 fc ff ff    	jl     11669 <func_69+0x575>
   11a44:	c6 05 35 66 00 00 00 	movb   $0x0,0x6635(%rip)        # 18080 <g_119>
   11a4b:	90                   	nop
   11a4c:	0f b6 05 2d 66 00 00 	movzbl 0x662d(%rip),%eax        # 18080 <g_119>
   11a53:	3c 09                	cmp    $0x9,%al
   11a55:	0f 8f 9e 00 00 00    	jg     11af9 <func_69+0xa05>
   11a5b:	0f b6 05 1e 66 00 00 	movzbl 0x661e(%rip),%eax        # 18080 <g_119>
   11a62:	84 c0                	test   %al,%al
   11a64:	74 05                	je     11a6b <func_69+0x977>
   11a66:	e9 87 f7 ff ff       	jmpq   111f2 <func_69+0xfe>
   11a6b:	48 8b 05 8e 9d 00 00 	mov    0x9d8e(%rip),%rax        # 1b800 <g_137>
   11a72:	89 c2                	mov    %eax,%edx
   11a74:	48 8b 05 75 9d 00 00 	mov    0x9d75(%rip),%rax        # 1b7f0 <g_46>
   11a7b:	0f b7 c0             	movzwl %ax,%eax
   11a7e:	89 d6                	mov    %edx,%esi
   11a80:	89 c7                	mov    %eax,%edi
   11a82:	e8 7f 83 ff ff       	callq  9e06 <safe_lshift_func_uint16_t_u_u>
   11a87:	48 8b 05 b2 7f 00 00 	mov    0x7fb2(%rip),%rax        # 19a40 <g_99>
   11a8e:	48 8b 10             	mov    (%rax),%rdx
   11a91:	48 8b 85 40 fc ff ff 	mov    -0x3c0(%rbp),%rax
   11a98:	c7 00 eb d0 2d 55    	movl   $0x552dd0eb,(%rax)
   11a9e:	0f b6 05 db 65 00 00 	movzbl 0x65db(%rip),%eax        # 18080 <g_119>
   11aa5:	0f be c0             	movsbl %al,%eax
   11aa8:	48 98                	cltq   
   11aaa:	8b 84 85 00 fd ff ff 	mov    -0x300(%rbp,%rax,4),%eax
   11ab1:	48 98                	cltq   
   11ab3:	48 89 d6             	mov    %rdx,%rsi
   11ab6:	48 89 c7             	mov    %rax,%rdi
   11ab9:	e8 39 7f ff ff       	callq  99f7 <safe_div_func_int64_t_s_s>
   11abe:	89 c6                	mov    %eax,%esi
   11ac0:	bf fb ff ff ff       	mov    $0xfffffffb,%edi
   11ac5:	e8 24 78 ff ff       	callq  92ee <safe_lshift_func_int8_t_s_u>
   11aca:	0f be c0             	movsbl %al,%eax
   11acd:	be ff ff ff ff       	mov    $0xffffffff,%esi
   11ad2:	89 c7                	mov    %eax,%edi
   11ad4:	e8 7c 79 ff ff       	callq  9455 <safe_div_func_int16_t_s_s>
   11ad9:	0f b6 85 fc fb ff ff 	movzbl -0x404(%rbp),%eax
   11ae0:	3c 01                	cmp    $0x1,%al
   11ae2:	0f 95 c0             	setne  %al
   11ae5:	0f b6 c0             	movzbl %al,%eax
   11ae8:	09 85 1c fc ff ff    	or     %eax,-0x3e4(%rbp)
   11aee:	8b 85 fc fb ff ff    	mov    -0x404(%rbp),%eax
   11af4:	e9 3a 03 00 00       	jmpq   11e33 <func_69+0xd3f>
   11af9:	8b 05 89 65 00 00    	mov    0x6589(%rip),%eax        # 18088 <g_141>
   11aff:	0f be c0             	movsbl %al,%eax
   11b02:	be 01 00 00 00       	mov    $0x1,%esi
   11b07:	89 c7                	mov    %eax,%edi
   11b09:	e8 c6 76 ff ff       	callq  91d4 <safe_add_func_int8_t_s_s>
   11b0e:	0f be c0             	movsbl %al,%eax
   11b11:	89 05 71 65 00 00    	mov    %eax,0x6571(%rip)        # 18088 <g_141>
   11b17:	8b 05 6b 65 00 00    	mov    0x656b(%rip),%eax        # 18088 <g_141>
   11b1d:	83 f8 1a             	cmp    $0x1a,%eax
   11b20:	0f 84 f8 f6 ff ff    	je     1121e <func_69+0x12a>
   11b26:	c6 85 fc fb ff ff 00 	movb   $0x0,-0x404(%rbp)
   11b2d:	e9 eb 02 00 00       	jmpq   11e1d <func_69+0xd29>
   11b32:	48 8d 05 13 65 00 00 	lea    0x6513(%rip),%rax        # 1804c <g_57+0xc>
   11b39:	48 89 85 28 fc ff ff 	mov    %rax,-0x3d8(%rbp)
   11b40:	48 c7 85 d0 fd ff ff 	movq   $0x0,-0x230(%rbp)
   11b47:	00 00 00 00 
   11b4b:	48 8d 85 28 fc ff ff 	lea    -0x3d8(%rbp),%rax
   11b52:	48 89 85 d8 fd ff ff 	mov    %rax,-0x228(%rbp)
   11b59:	48 c7 85 e0 fd ff ff 	movq   $0x0,-0x220(%rbp)
   11b60:	00 00 00 00 
   11b64:	48 8d 85 28 fc ff ff 	lea    -0x3d8(%rbp),%rax
   11b6b:	48 89 85 e8 fd ff ff 	mov    %rax,-0x218(%rbp)
   11b72:	48 c7 85 f0 fd ff ff 	movq   $0x0,-0x210(%rbp)
   11b79:	00 00 00 00 
   11b7d:	48 8d 05 d4 7e 00 00 	lea    0x7ed4(%rip),%rax        # 19a58 <g_210>
   11b84:	48 89 85 f8 fd ff ff 	mov    %rax,-0x208(%rbp)
   11b8b:	48 8d 05 c6 7e 00 00 	lea    0x7ec6(%rip),%rax        # 19a58 <g_210>
   11b92:	48 89 85 00 fe ff ff 	mov    %rax,-0x200(%rbp)
   11b99:	48 8d 05 b8 7e 00 00 	lea    0x7eb8(%rip),%rax        # 19a58 <g_210>
   11ba0:	48 89 85 08 fe ff ff 	mov    %rax,-0x1f8(%rbp)
   11ba7:	48 8d 05 aa 7e 00 00 	lea    0x7eaa(%rip),%rax        # 19a58 <g_210>
   11bae:	48 89 85 10 fe ff ff 	mov    %rax,-0x1f0(%rbp)
   11bb5:	48 8d 05 9c 7e 00 00 	lea    0x7e9c(%rip),%rax        # 19a58 <g_210>
   11bbc:	48 89 85 18 fe ff ff 	mov    %rax,-0x1e8(%rbp)
   11bc3:	48 c7 85 20 fe ff ff 	movq   $0x0,-0x1e0(%rbp)
   11bca:	00 00 00 00 
   11bce:	48 8d 85 28 fc ff ff 	lea    -0x3d8(%rbp),%rax
   11bd5:	48 89 85 28 fe ff ff 	mov    %rax,-0x1d8(%rbp)
   11bdc:	48 c7 85 30 fe ff ff 	movq   $0x0,-0x1d0(%rbp)
   11be3:	00 00 00 00 
   11be7:	48 8d 85 28 fc ff ff 	lea    -0x3d8(%rbp),%rax
   11bee:	48 89 85 38 fe ff ff 	mov    %rax,-0x1c8(%rbp)
   11bf5:	48 c7 85 40 fe ff ff 	movq   $0x0,-0x1c0(%rbp)
   11bfc:	00 00 00 00 
   11c00:	48 8d 05 f1 9b 00 00 	lea    0x9bf1(%rip),%rax        # 1b7f8 <g_93>
   11c07:	48 89 85 30 fc ff ff 	mov    %rax,-0x3d0(%rbp)
   11c0e:	48 8d 85 30 fc ff ff 	lea    -0x3d0(%rbp),%rax
   11c15:	48 89 85 50 fc ff ff 	mov    %rax,-0x3b0(%rbp)
   11c1c:	48 c7 85 58 fc ff ff 	movq   $0x0,-0x3a8(%rbp)
   11c23:	00 00 00 00 
   11c27:	48 8d 05 2a 24 00 00 	lea    0x242a(%rip),%rax        # 14058 <g_232>
   11c2e:	48 89 85 60 fc ff ff 	mov    %rax,-0x3a0(%rbp)
   11c35:	48 8d 05 56 64 00 00 	lea    0x6456(%rip),%rax        # 18092 <g_192>
   11c3c:	48 89 85 68 fc ff ff 	mov    %rax,-0x398(%rbp)
   11c43:	48 8d 85 04 fc ff ff 	lea    -0x3fc(%rbp),%rax
   11c4a:	48 89 85 70 fc ff ff 	mov    %rax,-0x390(%rbp)
   11c51:	48 8d 05 3e 64 00 00 	lea    0x643e(%rip),%rax        # 18096 <g_251>
   11c58:	48 89 85 78 fc ff ff 	mov    %rax,-0x388(%rbp)
   11c5f:	48 8b 85 28 fc ff ff 	mov    -0x3d8(%rbp),%rax
   11c66:	48 89 85 c0 fc ff ff 	mov    %rax,-0x340(%rbp)
   11c6d:	48 8b 85 c0 fc ff ff 	mov    -0x340(%rbp),%rax
   11c74:	48 89 85 40 fc ff ff 	mov    %rax,-0x3c0(%rbp)
   11c7b:	48 8b 95 30 fc ff ff 	mov    -0x3d0(%rbp),%rdx
   11c82:	48 8b 85 50 fc ff ff 	mov    -0x3b0(%rbp),%rax
   11c89:	48 89 10             	mov    %rdx,(%rax)
   11c8c:	48 8b 85 68 fc ff ff 	mov    -0x398(%rbp),%rax
   11c93:	0f b6 00             	movzbl (%rax),%eax
   11c96:	48 8b 15 63 9b 00 00 	mov    0x9b63(%rip),%rdx        # 1b800 <g_137>
   11c9d:	31 c2                	xor    %eax,%edx
   11c9f:	48 8b 85 68 fc ff ff 	mov    -0x398(%rbp),%rax
   11ca6:	88 10                	mov    %dl,(%rax)
   11ca8:	0f b6 85 fc fb ff ff 	movzbl -0x404(%rbp),%eax
   11caf:	48 0f be d8          	movsbq %al,%rbx
   11cb3:	0f b6 85 fc fb ff ff 	movzbl -0x404(%rbp),%eax
   11cba:	0f be c0             	movsbl %al,%eax
   11cbd:	89 c6                	mov    %eax,%esi
   11cbf:	bf 00 00 00 00       	mov    $0x0,%edi
   11cc4:	e8 8c 77 ff ff       	callq  9455 <safe_div_func_int16_t_s_s>
   11cc9:	48 0f bf c0          	movswq %ax,%rax
   11ccd:	48 89 de             	mov    %rbx,%rsi
   11cd0:	48 89 c7             	mov    %rax,%rdi
   11cd3:	e8 1f 7d ff ff       	callq  99f7 <safe_div_func_int64_t_s_s>
   11cd8:	0f b7 c0             	movzwl %ax,%eax
   11cdb:	be fb b8 00 00       	mov    $0xb8fb,%esi
   11ce0:	89 c7                	mov    %eax,%edi
   11ce2:	e8 56 80 ff ff       	callq  9d3d <safe_mul_func_uint16_t_u_u>
   11ce7:	0f b7 d0             	movzwl %ax,%edx
   11cea:	0f be 85 02 fc ff ff 	movsbl -0x3fe(%rbp),%eax
   11cf1:	39 c2                	cmp    %eax,%edx
   11cf3:	0f b7 05 8a 63 00 00 	movzwl 0x638a(%rip),%eax        # 18084 <g_130+0x2>
   11cfa:	66 85 c0             	test   %ax,%ax
   11cfd:	0f 94 c0             	sete   %al
   11d00:	0f b6 d0             	movzbl %al,%edx
   11d03:	48 8b 85 70 fc ff ff 	mov    -0x390(%rbp),%rax
   11d0a:	66 89 10             	mov    %dx,(%rax)
   11d0d:	48 8b 85 70 fc ff ff 	mov    -0x390(%rbp),%rax
   11d14:	0f b7 00             	movzwl (%rax),%eax
   11d17:	98                   	cwtl   
   11d18:	be 3a 6e 00 00       	mov    $0x6e3a,%esi
   11d1d:	89 c7                	mov    %eax,%edi
   11d1f:	e8 af 76 ff ff       	callq  93d3 <safe_sub_func_int16_t_s_s>
   11d24:	98                   	cwtl   
   11d25:	be 00 00 00 00       	mov    $0x0,%esi
   11d2a:	89 c7                	mov    %eax,%edi
   11d2c:	e8 f9 77 ff ff       	callq  952a <safe_rshift_func_int16_t_s_s>
   11d31:	66 85 c0             	test   %ax,%ax
   11d34:	74 0d                	je     11d43 <func_69+0xc4f>
   11d36:	48 8b 85 28 fc ff ff 	mov    -0x3d8(%rbp),%rax
   11d3d:	8b 00                	mov    (%rax),%eax
   11d3f:	85 c0                	test   %eax,%eax
   11d41:	74 07                	je     11d4a <func_69+0xc56>
   11d43:	ba 01 00 00 00       	mov    $0x1,%edx
   11d48:	eb 05                	jmp    11d4f <func_69+0xc5b>
   11d4a:	ba 00 00 00 00       	mov    $0x0,%edx
   11d4f:	48 8b 85 78 fc ff ff 	mov    -0x388(%rbp),%rax
   11d56:	0f b6 00             	movzbl (%rax),%eax
   11d59:	89 c1                	mov    %eax,%ecx
   11d5b:	89 d0                	mov    %edx,%eax
   11d5d:	31 c8                	xor    %ecx,%eax
   11d5f:	89 c2                	mov    %eax,%edx
   11d61:	48 8b 85 78 fc ff ff 	mov    -0x388(%rbp),%rax
   11d68:	88 10                	mov    %dl,(%rax)
   11d6a:	48 8b 85 78 fc ff ff 	mov    -0x388(%rbp),%rax
   11d71:	0f b6 00             	movzbl (%rax),%eax
   11d74:	0f b6 d0             	movzbl %al,%edx
   11d77:	0f b6 85 fc fb ff ff 	movzbl -0x404(%rbp),%eax
   11d7e:	3c 03                	cmp    $0x3,%al
   11d80:	0f 9e c0             	setle  %al
   11d83:	0f b6 c0             	movzbl %al,%eax
   11d86:	89 d6                	mov    %edx,%esi
   11d88:	89 c7                	mov    %eax,%edi
   11d8a:	e8 bd 7e ff ff       	callq  9c4c <safe_lshift_func_uint8_t_u_u>
   11d8f:	48 8d 85 20 fc ff ff 	lea    -0x3e0(%rbp),%rax
   11d96:	48 89 85 60 fc ff ff 	mov    %rax,-0x3a0(%rbp)
   11d9d:	48 8d 05 b4 22 00 00 	lea    0x22b4(%rip),%rax        # 14058 <g_232>
   11da4:	48 39 85 60 fc ff ff 	cmp    %rax,-0x3a0(%rbp)
   11dab:	0f 95 c0             	setne  %al
   11dae:	0f b6 d0             	movzbl %al,%edx
   11db1:	0f b6 85 fc fb ff ff 	movzbl -0x404(%rbp),%eax
   11db8:	0f be c8             	movsbl %al,%ecx
   11dbb:	8b 05 63 62 00 00    	mov    0x6263(%rip),%eax        # 18024 <g_2>
   11dc1:	39 c1                	cmp    %eax,%ecx
   11dc3:	0f 95 c0             	setne  %al
   11dc6:	0f b6 c0             	movzbl %al,%eax
   11dc9:	89 d6                	mov    %edx,%esi
   11dcb:	89 c7                	mov    %eax,%edi
   11dcd:	e8 0f 77 ff ff       	callq  94e1 <safe_lshift_func_int16_t_s_u>
   11dd2:	66 c7 85 06 fc ff ff 	movw   $0x3,-0x3fa(%rbp)
   11dd9:	03 00 
   11ddb:	0f b7 85 06 fc ff ff 	movzwl -0x3fa(%rbp),%eax
   11de2:	83 c0 01             	add    $0x1,%eax
   11de5:	66 89 85 06 fc ff ff 	mov    %ax,-0x3fa(%rbp)
   11dec:	48 8b 85 28 fc ff ff 	mov    -0x3d8(%rbp),%rax
   11df3:	8b 10                	mov    (%rax),%edx
   11df5:	48 8b 85 28 fc ff ff 	mov    -0x3d8(%rbp),%rax
   11dfc:	83 ca f6             	or     $0xfffffff6,%edx
   11dff:	89 10                	mov    %edx,(%rax)
   11e01:	0f b6 85 fc fb ff ff 	movzbl -0x404(%rbp),%eax
   11e08:	0f be c0             	movsbl %al,%eax
   11e0b:	be 02 00 00 00       	mov    $0x2,%esi
   11e10:	89 c7                	mov    %eax,%edi
   11e12:	e8 a1 80 ff ff       	callq  9eb8 <safe_add_func_uint32_t_u_u>
   11e17:	88 85 fc fb ff ff    	mov    %al,-0x404(%rbp)
   11e1d:	0f b6 85 fc fb ff ff 	movzbl -0x404(%rbp),%eax
   11e24:	3c 0e                	cmp    $0xe,%al
   11e26:	0f 8e 06 fd ff ff    	jle    11b32 <func_69+0xa3e>
   11e2c:	0f b6 85 fc fb ff ff 	movzbl -0x404(%rbp),%eax
   11e33:	48 8b 5d d8          	mov    -0x28(%rbp),%rbx
   11e37:	64 48 33 1c 25 28 00 	xor    %fs:0x28,%rbx
   11e3e:	00 00 
   11e40:	74 05                	je     11e47 <func_69+0xd53>
   11e42:	e8 29 72 ff ff       	callq  9070 <__stack_chk_fail@plt>
   11e47:	48 81 c4 f0 03 00 00 	add    $0x3f0,%rsp
   11e4e:	5b                   	pop    %rbx
   11e4f:	41 5c                	pop    %r12
   11e51:	41 5d                	pop    %r13
   11e53:	41 5e                	pop    %r14
   11e55:	5d                   	pop    %rbp
   11e56:	c3                   	retq   

0000000000011e57 <func_71>:
   11e57:	f3 0f 1e fa          	endbr64 
   11e5b:	55                   	push   %rbp
   11e5c:	48 89 e5             	mov    %rsp,%rbp
   11e5f:	41 54                	push   %r12
   11e61:	53                   	push   %rbx
   11e62:	48 81 ec e0 07 00 00 	sub    $0x7e0,%rsp
   11e69:	89 f8                	mov    %edi,%eax
   11e6b:	48 89 b5 20 f8 ff ff 	mov    %rsi,-0x7e0(%rbp)
   11e72:	89 95 28 f8 ff ff    	mov    %edx,-0x7d8(%rbp)
   11e78:	48 89 8d 18 f8 ff ff 	mov    %rcx,-0x7e8(%rbp)
   11e7f:	88 85 2c f8 ff ff    	mov    %al,-0x7d4(%rbp)
   11e85:	64 48 8b 04 25 28 00 	mov    %fs:0x28,%rax
   11e8c:	00 00 
   11e8e:	48 89 45 e8          	mov    %rax,-0x18(%rbp)
   11e92:	31 c0                	xor    %eax,%eax
   11e94:	c7 85 34 f8 ff ff 69 	movl   $0x5f0d2369,-0x7cc(%rbp)
   11e9b:	23 0d 5f 
   11e9e:	c7 85 38 f8 ff ff 00 	movl   $0x0,-0x7c8(%rbp)
   11ea5:	00 00 00 
   11ea8:	c6 85 2c f8 ff ff 00 	movb   $0x0,-0x7d4(%rbp)
   11eaf:	e9 79 13 00 00       	jmpq   1322d <func_71+0x13d6>
   11eb4:	c7 85 3c f8 ff ff 01 	movl   $0x1,-0x7c4(%rbp)
   11ebb:	00 00 00 
   11ebe:	c7 85 28 f8 ff ff 00 	movl   $0x0,-0x7d8(%rbp)
   11ec5:	00 00 00 
   11ec8:	e9 43 13 00 00       	jmpq   13210 <func_71+0x13b9>
   11ecd:	48 8d 05 ac 61 00 00 	lea    0x61ac(%rip),%rax        # 18080 <g_119>
   11ed4:	48 89 85 40 f8 ff ff 	mov    %rax,-0x7c0(%rbp)
   11edb:	48 8d 05 a2 61 00 00 	lea    0x61a2(%rip),%rax        # 18084 <g_130+0x2>
   11ee2:	48 89 85 48 f8 ff ff 	mov    %rax,-0x7b8(%rbp)
   11ee9:	48 8d 05 10 99 00 00 	lea    0x9910(%rip),%rax        # 1b800 <g_137>
   11ef0:	48 89 85 50 f8 ff ff 	mov    %rax,-0x7b0(%rbp)
   11ef7:	48 c7 85 58 f8 ff ff 	movq   $0xffffffffffffffff,-0x7a8(%rbp)
   11efe:	ff ff ff ff 
   11f02:	48 8d 05 7f 61 00 00 	lea    0x617f(%rip),%rax        # 18088 <g_141>
   11f09:	48 89 85 60 f8 ff ff 	mov    %rax,-0x7a0(%rbp)
   11f10:	48 8d 85 34 f8 ff ff 	lea    -0x7cc(%rbp),%rax
   11f17:	48 89 85 68 f8 ff ff 	mov    %rax,-0x798(%rbp)
   11f1e:	48 8d 85 34 f8 ff ff 	lea    -0x7cc(%rbp),%rax
   11f25:	48 89 85 70 f8 ff ff 	mov    %rax,-0x790(%rbp)
   11f2c:	48 8d 05 55 61 00 00 	lea    0x6155(%rip),%rax        # 18088 <g_141>
   11f33:	48 89 85 78 f8 ff ff 	mov    %rax,-0x788(%rbp)
   11f3a:	48 8d 85 34 f8 ff ff 	lea    -0x7cc(%rbp),%rax
   11f41:	48 89 85 80 f8 ff ff 	mov    %rax,-0x780(%rbp)
   11f48:	48 8d 85 34 f8 ff ff 	lea    -0x7cc(%rbp),%rax
   11f4f:	48 89 85 88 f8 ff ff 	mov    %rax,-0x778(%rbp)
   11f56:	48 8d 05 2b 61 00 00 	lea    0x612b(%rip),%rax        # 18088 <g_141>
   11f5d:	48 89 85 90 f8 ff ff 	mov    %rax,-0x770(%rbp)
   11f64:	48 8d 85 34 f8 ff ff 	lea    -0x7cc(%rbp),%rax
   11f6b:	48 89 85 98 f8 ff ff 	mov    %rax,-0x768(%rbp)
   11f72:	48 8d 85 34 f8 ff ff 	lea    -0x7cc(%rbp),%rax
   11f79:	48 89 85 a0 f8 ff ff 	mov    %rax,-0x760(%rbp)
   11f80:	48 8d 05 01 61 00 00 	lea    0x6101(%rip),%rax        # 18088 <g_141>
   11f87:	48 89 85 a8 f8 ff ff 	mov    %rax,-0x758(%rbp)
   11f8e:	48 8d 85 34 f8 ff ff 	lea    -0x7cc(%rbp),%rax
   11f95:	48 89 85 b0 f8 ff ff 	mov    %rax,-0x750(%rbp)
   11f9c:	48 8d 05 e5 60 00 00 	lea    0x60e5(%rip),%rax        # 18088 <g_141>
   11fa3:	48 89 85 b8 f8 ff ff 	mov    %rax,-0x748(%rbp)
   11faa:	48 8d 85 34 f8 ff ff 	lea    -0x7cc(%rbp),%rax
   11fb1:	48 89 85 c0 f8 ff ff 	mov    %rax,-0x740(%rbp)
   11fb8:	48 8d 85 34 f8 ff ff 	lea    -0x7cc(%rbp),%rax
   11fbf:	48 89 85 c8 f8 ff ff 	mov    %rax,-0x738(%rbp)
   11fc6:	48 8d 05 bb 60 00 00 	lea    0x60bb(%rip),%rax        # 18088 <g_141>
   11fcd:	48 89 85 d0 f8 ff ff 	mov    %rax,-0x730(%rbp)
   11fd4:	48 8d 85 34 f8 ff ff 	lea    -0x7cc(%rbp),%rax
   11fdb:	48 89 85 d8 f8 ff ff 	mov    %rax,-0x728(%rbp)
   11fe2:	48 8d 85 34 f8 ff ff 	lea    -0x7cc(%rbp),%rax
   11fe9:	48 89 85 e0 f8 ff ff 	mov    %rax,-0x720(%rbp)
   11ff0:	48 8d 05 91 60 00 00 	lea    0x6091(%rip),%rax        # 18088 <g_141>
   11ff7:	48 89 85 e8 f8 ff ff 	mov    %rax,-0x718(%rbp)
   11ffe:	48 8d 85 34 f8 ff ff 	lea    -0x7cc(%rbp),%rax
   12005:	48 89 85 f0 f8 ff ff 	mov    %rax,-0x710(%rbp)
   1200c:	48 8d 85 34 f8 ff ff 	lea    -0x7cc(%rbp),%rax
   12013:	48 89 85 f8 f8 ff ff 	mov    %rax,-0x708(%rbp)
   1201a:	48 8d 05 67 60 00 00 	lea    0x6067(%rip),%rax        # 18088 <g_141>
   12021:	48 89 85 00 f9 ff ff 	mov    %rax,-0x700(%rbp)
   12028:	48 8d 05 59 60 00 00 	lea    0x6059(%rip),%rax        # 18088 <g_141>
   1202f:	48 89 85 08 f9 ff ff 	mov    %rax,-0x6f8(%rbp)
   12036:	8b 85 28 f8 ff ff    	mov    -0x7d8(%rbp),%eax
   1203c:	48 8d 14 85 00 00 00 	lea    0x0(,%rax,4),%rdx
   12043:	00 
   12044:	48 8d 05 f5 5f 00 00 	lea    0x5ff5(%rip),%rax        # 18040 <g_57>
   1204b:	48 01 d0             	add    %rdx,%rax
   1204e:	48 89 85 10 f9 ff ff 	mov    %rax,-0x6f0(%rbp)
   12055:	48 8d 05 2c 60 00 00 	lea    0x602c(%rip),%rax        # 18088 <g_141>
   1205c:	48 89 85 18 f9 ff ff 	mov    %rax,-0x6e8(%rbp)
   12063:	48 8d 05 1e 60 00 00 	lea    0x601e(%rip),%rax        # 18088 <g_141>
   1206a:	48 89 85 20 f9 ff ff 	mov    %rax,-0x6e0(%rbp)
   12071:	8b 85 28 f8 ff ff    	mov    -0x7d8(%rbp),%eax
   12077:	48 8d 14 85 00 00 00 	lea    0x0(,%rax,4),%rdx
   1207e:	00 
   1207f:	48 8d 05 ba 5f 00 00 	lea    0x5fba(%rip),%rax        # 18040 <g_57>
   12086:	48 01 d0             	add    %rdx,%rax
   12089:	48 89 85 28 f9 ff ff 	mov    %rax,-0x6d8(%rbp)
   12090:	48 8d 05 f1 5f 00 00 	lea    0x5ff1(%rip),%rax        # 18088 <g_141>
   12097:	48 89 85 30 f9 ff ff 	mov    %rax,-0x6d0(%rbp)
   1209e:	48 8d 05 e3 5f 00 00 	lea    0x5fe3(%rip),%rax        # 18088 <g_141>
   120a5:	48 89 85 38 f9 ff ff 	mov    %rax,-0x6c8(%rbp)
   120ac:	8b 85 28 f8 ff ff    	mov    -0x7d8(%rbp),%eax
   120b2:	48 8d 14 85 00 00 00 	lea    0x0(,%rax,4),%rdx
   120b9:	00 
   120ba:	48 8d 05 7f 5f 00 00 	lea    0x5f7f(%rip),%rax        # 18040 <g_57>
   120c1:	48 01 d0             	add    %rdx,%rax
   120c4:	48 89 85 40 f9 ff ff 	mov    %rax,-0x6c0(%rbp)
   120cb:	48 8d 05 b6 5f 00 00 	lea    0x5fb6(%rip),%rax        # 18088 <g_141>
   120d2:	48 89 85 48 f9 ff ff 	mov    %rax,-0x6b8(%rbp)
   120d9:	48 8d 05 a8 5f 00 00 	lea    0x5fa8(%rip),%rax        # 18088 <g_141>
   120e0:	48 89 85 50 f9 ff ff 	mov    %rax,-0x6b0(%rbp)
   120e7:	48 8d 85 34 f8 ff ff 	lea    -0x7cc(%rbp),%rax
   120ee:	48 89 85 58 f9 ff ff 	mov    %rax,-0x6a8(%rbp)
   120f5:	48 8d 85 34 f8 ff ff 	lea    -0x7cc(%rbp),%rax
   120fc:	48 89 85 60 f9 ff ff 	mov    %rax,-0x6a0(%rbp)
   12103:	48 8d 05 7e 5f 00 00 	lea    0x5f7e(%rip),%rax        # 18088 <g_141>
   1210a:	48 89 85 68 f9 ff ff 	mov    %rax,-0x698(%rbp)
   12111:	48 8d 85 34 f8 ff ff 	lea    -0x7cc(%rbp),%rax
   12118:	48 89 85 70 f9 ff ff 	mov    %rax,-0x690(%rbp)
   1211f:	48 8d 85 34 f8 ff ff 	lea    -0x7cc(%rbp),%rax
   12126:	48 89 85 78 f9 ff ff 	mov    %rax,-0x688(%rbp)
   1212d:	48 8d 05 54 5f 00 00 	lea    0x5f54(%rip),%rax        # 18088 <g_141>
   12134:	48 89 85 80 f9 ff ff 	mov    %rax,-0x680(%rbp)
   1213b:	48 8d 85 34 f8 ff ff 	lea    -0x7cc(%rbp),%rax
   12142:	48 89 85 88 f9 ff ff 	mov    %rax,-0x678(%rbp)
   12149:	48 8d 85 34 f8 ff ff 	lea    -0x7cc(%rbp),%rax
   12150:	48 89 85 90 f9 ff ff 	mov    %rax,-0x670(%rbp)
   12157:	48 8d 05 2a 5f 00 00 	lea    0x5f2a(%rip),%rax        # 18088 <g_141>
   1215e:	48 89 85 98 f9 ff ff 	mov    %rax,-0x668(%rbp)
   12165:	48 8d 85 34 f8 ff ff 	lea    -0x7cc(%rbp),%rax
   1216c:	48 89 85 a0 f9 ff ff 	mov    %rax,-0x660(%rbp)
   12173:	48 8d 05 0e 5f 00 00 	lea    0x5f0e(%rip),%rax        # 18088 <g_141>
   1217a:	48 89 85 a8 f9 ff ff 	mov    %rax,-0x658(%rbp)
   12181:	48 8d 85 34 f8 ff ff 	lea    -0x7cc(%rbp),%rax
   12188:	48 89 85 b0 f9 ff ff 	mov    %rax,-0x650(%rbp)
   1218f:	48 8d 85 34 f8 ff ff 	lea    -0x7cc(%rbp),%rax
   12196:	48 89 85 b8 f9 ff ff 	mov    %rax,-0x648(%rbp)
   1219d:	48 8d 05 e4 5e 00 00 	lea    0x5ee4(%rip),%rax        # 18088 <g_141>
   121a4:	48 89 85 c0 f9 ff ff 	mov    %rax,-0x640(%rbp)
   121ab:	48 8d 85 34 f8 ff ff 	lea    -0x7cc(%rbp),%rax
   121b2:	48 89 85 c8 f9 ff ff 	mov    %rax,-0x638(%rbp)
   121b9:	48 8d 85 34 f8 ff ff 	lea    -0x7cc(%rbp),%rax
   121c0:	48 89 85 d0 f9 ff ff 	mov    %rax,-0x630(%rbp)
   121c7:	48 8d 05 ba 5e 00 00 	lea    0x5eba(%rip),%rax        # 18088 <g_141>
   121ce:	48 89 85 d8 f9 ff ff 	mov    %rax,-0x628(%rbp)
   121d5:	48 8d 85 34 f8 ff ff 	lea    -0x7cc(%rbp),%rax
   121dc:	48 89 85 e0 f9 ff ff 	mov    %rax,-0x620(%rbp)
   121e3:	48 8d 85 34 f8 ff ff 	lea    -0x7cc(%rbp),%rax
   121ea:	48 89 85 e8 f9 ff ff 	mov    %rax,-0x618(%rbp)
   121f1:	48 8d 05 90 5e 00 00 	lea    0x5e90(%rip),%rax        # 18088 <g_141>
   121f8:	48 89 85 f0 f9 ff ff 	mov    %rax,-0x610(%rbp)
   121ff:	48 8d 05 82 5e 00 00 	lea    0x5e82(%rip),%rax        # 18088 <g_141>
   12206:	48 89 85 f8 f9 ff ff 	mov    %rax,-0x608(%rbp)
   1220d:	8b 85 28 f8 ff ff    	mov    -0x7d8(%rbp),%eax
   12213:	48 8d 14 85 00 00 00 	lea    0x0(,%rax,4),%rdx
   1221a:	00 
   1221b:	48 8d 05 1e 5e 00 00 	lea    0x5e1e(%rip),%rax        # 18040 <g_57>
   12222:	48 01 d0             	add    %rdx,%rax
   12225:	48 89 85 00 fa ff ff 	mov    %rax,-0x600(%rbp)
   1222c:	48 8d 05 55 5e 00 00 	lea    0x5e55(%rip),%rax        # 18088 <g_141>
   12233:	48 89 85 08 fa ff ff 	mov    %rax,-0x5f8(%rbp)
   1223a:	48 8d 05 47 5e 00 00 	lea    0x5e47(%rip),%rax        # 18088 <g_141>
   12241:	48 89 85 10 fa ff ff 	mov    %rax,-0x5f0(%rbp)
   12248:	8b 85 28 f8 ff ff    	mov    -0x7d8(%rbp),%eax
   1224e:	48 8d 14 85 00 00 00 	lea    0x0(,%rax,4),%rdx
   12255:	00 
   12256:	48 8d 05 e3 5d 00 00 	lea    0x5de3(%rip),%rax        # 18040 <g_57>
   1225d:	48 01 d0             	add    %rdx,%rax
   12260:	48 89 85 18 fa ff ff 	mov    %rax,-0x5e8(%rbp)
   12267:	48 8d 05 1a 5e 00 00 	lea    0x5e1a(%rip),%rax        # 18088 <g_141>
   1226e:	48 89 85 20 fa ff ff 	mov    %rax,-0x5e0(%rbp)
   12275:	48 8d 05 0c 5e 00 00 	lea    0x5e0c(%rip),%rax        # 18088 <g_141>
   1227c:	48 89 85 28 fa ff ff 	mov    %rax,-0x5d8(%rbp)
   12283:	8b 85 28 f8 ff ff    	mov    -0x7d8(%rbp),%eax
   12289:	48 8d 14 85 00 00 00 	lea    0x0(,%rax,4),%rdx
   12290:	00 
   12291:	48 8d 05 a8 5d 00 00 	lea    0x5da8(%rip),%rax        # 18040 <g_57>
   12298:	48 01 d0             	add    %rdx,%rax
   1229b:	48 89 85 30 fa ff ff 	mov    %rax,-0x5d0(%rbp)
   122a2:	48 8d 05 df 5d 00 00 	lea    0x5ddf(%rip),%rax        # 18088 <g_141>
   122a9:	48 89 85 38 fa ff ff 	mov    %rax,-0x5c8(%rbp)
   122b0:	48 8d 05 d1 5d 00 00 	lea    0x5dd1(%rip),%rax        # 18088 <g_141>
   122b7:	48 89 85 40 fa ff ff 	mov    %rax,-0x5c0(%rbp)
   122be:	48 8d 85 34 f8 ff ff 	lea    -0x7cc(%rbp),%rax
   122c5:	48 89 85 48 fa ff ff 	mov    %rax,-0x5b8(%rbp)
   122cc:	48 8d 85 34 f8 ff ff 	lea    -0x7cc(%rbp),%rax
   122d3:	48 89 85 50 fa ff ff 	mov    %rax,-0x5b0(%rbp)
   122da:	48 8d 05 a7 5d 00 00 	lea    0x5da7(%rip),%rax        # 18088 <g_141>
   122e1:	48 89 85 58 fa ff ff 	mov    %rax,-0x5a8(%rbp)
   122e8:	48 8d 85 34 f8 ff ff 	lea    -0x7cc(%rbp),%rax
   122ef:	48 89 85 60 fa ff ff 	mov    %rax,-0x5a0(%rbp)
   122f6:	48 8d 85 34 f8 ff ff 	lea    -0x7cc(%rbp),%rax
   122fd:	48 89 85 68 fa ff ff 	mov    %rax,-0x598(%rbp)
   12304:	48 8d 05 7d 5d 00 00 	lea    0x5d7d(%rip),%rax        # 18088 <g_141>
   1230b:	48 89 85 70 fa ff ff 	mov    %rax,-0x590(%rbp)
   12312:	48 8d 85 34 f8 ff ff 	lea    -0x7cc(%rbp),%rax
   12319:	48 89 85 78 fa ff ff 	mov    %rax,-0x588(%rbp)
   12320:	48 8d 85 34 f8 ff ff 	lea    -0x7cc(%rbp),%rax
   12327:	48 89 85 80 fa ff ff 	mov    %rax,-0x580(%rbp)
   1232e:	48 8d 05 53 5d 00 00 	lea    0x5d53(%rip),%rax        # 18088 <g_141>
   12335:	48 89 85 88 fa ff ff 	mov    %rax,-0x578(%rbp)
   1233c:	48 8d 85 34 f8 ff ff 	lea    -0x7cc(%rbp),%rax
   12343:	48 89 85 90 fa ff ff 	mov    %rax,-0x570(%rbp)
   1234a:	48 8d 05 37 5d 00 00 	lea    0x5d37(%rip),%rax        # 18088 <g_141>
   12351:	48 89 85 98 fa ff ff 	mov    %rax,-0x568(%rbp)
   12358:	48 8d 85 34 f8 ff ff 	lea    -0x7cc(%rbp),%rax
   1235f:	48 89 85 a0 fa ff ff 	mov    %rax,-0x560(%rbp)
   12366:	48 8d 85 34 f8 ff ff 	lea    -0x7cc(%rbp),%rax
   1236d:	48 89 85 a8 fa ff ff 	mov    %rax,-0x558(%rbp)
   12374:	48 8d 05 0d 5d 00 00 	lea    0x5d0d(%rip),%rax        # 18088 <g_141>
   1237b:	48 89 85 b0 fa ff ff 	mov    %rax,-0x550(%rbp)
   12382:	48 8d 85 34 f8 ff ff 	lea    -0x7cc(%rbp),%rax
   12389:	48 89 85 b8 fa ff ff 	mov    %rax,-0x548(%rbp)
   12390:	48 8d 85 34 f8 ff ff 	lea    -0x7cc(%rbp),%rax
   12397:	48 89 85 c0 fa ff ff 	mov    %rax,-0x540(%rbp)
   1239e:	48 8d 05 e3 5c 00 00 	lea    0x5ce3(%rip),%rax        # 18088 <g_141>
   123a5:	48 89 85 c8 fa ff ff 	mov    %rax,-0x538(%rbp)
   123ac:	48 8d 85 34 f8 ff ff 	lea    -0x7cc(%rbp),%rax
   123b3:	48 89 85 d0 fa ff ff 	mov    %rax,-0x530(%rbp)
   123ba:	48 8d 85 34 f8 ff ff 	lea    -0x7cc(%rbp),%rax
   123c1:	48 89 85 d8 fa ff ff 	mov    %rax,-0x528(%rbp)
   123c8:	48 8d 05 b9 5c 00 00 	lea    0x5cb9(%rip),%rax        # 18088 <g_141>
   123cf:	48 89 85 e0 fa ff ff 	mov    %rax,-0x520(%rbp)
   123d6:	48 8d 05 ab 5c 00 00 	lea    0x5cab(%rip),%rax        # 18088 <g_141>
   123dd:	48 89 85 e8 fa ff ff 	mov    %rax,-0x518(%rbp)
   123e4:	8b 85 28 f8 ff ff    	mov    -0x7d8(%rbp),%eax
   123ea:	48 8d 14 85 00 00 00 	lea    0x0(,%rax,4),%rdx
   123f1:	00 
   123f2:	48 8d 05 47 5c 00 00 	lea    0x5c47(%rip),%rax        # 18040 <g_57>
   123f9:	48 01 d0             	add    %rdx,%rax
   123fc:	48 89 85 f0 fa ff ff 	mov    %rax,-0x510(%rbp)
   12403:	48 8d 05 7e 5c 00 00 	lea    0x5c7e(%rip),%rax        # 18088 <g_141>
   1240a:	48 89 85 f8 fa ff ff 	mov    %rax,-0x508(%rbp)
   12411:	48 8d 05 70 5c 00 00 	lea    0x5c70(%rip),%rax        # 18088 <g_141>
   12418:	48 89 85 00 fb ff ff 	mov    %rax,-0x500(%rbp)
   1241f:	8b 85 28 f8 ff ff    	mov    -0x7d8(%rbp),%eax
   12425:	48 8d 14 85 00 00 00 	lea    0x0(,%rax,4),%rdx
   1242c:	00 
   1242d:	48 8d 05 0c 5c 00 00 	lea    0x5c0c(%rip),%rax        # 18040 <g_57>
   12434:	48 01 d0             	add    %rdx,%rax
   12437:	48 89 85 08 fb ff ff 	mov    %rax,-0x4f8(%rbp)
   1243e:	48 8d 05 43 5c 00 00 	lea    0x5c43(%rip),%rax        # 18088 <g_141>
   12445:	48 89 85 10 fb ff ff 	mov    %rax,-0x4f0(%rbp)
   1244c:	48 8d 05 35 5c 00 00 	lea    0x5c35(%rip),%rax        # 18088 <g_141>
   12453:	48 89 85 18 fb ff ff 	mov    %rax,-0x4e8(%rbp)
   1245a:	8b 85 28 f8 ff ff    	mov    -0x7d8(%rbp),%eax
   12460:	48 8d 14 85 00 00 00 	lea    0x0(,%rax,4),%rdx
   12467:	00 
   12468:	48 8d 05 d1 5b 00 00 	lea    0x5bd1(%rip),%rax        # 18040 <g_57>
   1246f:	48 01 d0             	add    %rdx,%rax
   12472:	48 89 85 20 fb ff ff 	mov    %rax,-0x4e0(%rbp)
   12479:	48 8d 05 08 5c 00 00 	lea    0x5c08(%rip),%rax        # 18088 <g_141>
   12480:	48 89 85 28 fb ff ff 	mov    %rax,-0x4d8(%rbp)
   12487:	48 8d 05 fa 5b 00 00 	lea    0x5bfa(%rip),%rax        # 18088 <g_141>
   1248e:	48 89 85 30 fb ff ff 	mov    %rax,-0x4d0(%rbp)
   12495:	48 8d 85 34 f8 ff ff 	lea    -0x7cc(%rbp),%rax
   1249c:	48 89 85 38 fb ff ff 	mov    %rax,-0x4c8(%rbp)
   124a3:	48 8d 85 34 f8 ff ff 	lea    -0x7cc(%rbp),%rax
   124aa:	48 89 85 40 fb ff ff 	mov    %rax,-0x4c0(%rbp)
   124b1:	48 8d 05 d0 5b 00 00 	lea    0x5bd0(%rip),%rax        # 18088 <g_141>
   124b8:	48 89 85 48 fb ff ff 	mov    %rax,-0x4b8(%rbp)
   124bf:	48 8d 85 34 f8 ff ff 	lea    -0x7cc(%rbp),%rax
   124c6:	48 89 85 50 fb ff ff 	mov    %rax,-0x4b0(%rbp)
   124cd:	48 8d 85 34 f8 ff ff 	lea    -0x7cc(%rbp),%rax
   124d4:	48 89 85 58 fb ff ff 	mov    %rax,-0x4a8(%rbp)
   124db:	48 8d 05 a6 5b 00 00 	lea    0x5ba6(%rip),%rax        # 18088 <g_141>
   124e2:	48 89 85 60 fb ff ff 	mov    %rax,-0x4a0(%rbp)
   124e9:	48 8d 85 34 f8 ff ff 	lea    -0x7cc(%rbp),%rax
   124f0:	48 89 85 68 fb ff ff 	mov    %rax,-0x498(%rbp)
   124f7:	48 8d 85 34 f8 ff ff 	lea    -0x7cc(%rbp),%rax
   124fe:	48 89 85 70 fb ff ff 	mov    %rax,-0x490(%rbp)
   12505:	48 8d 05 7c 5b 00 00 	lea    0x5b7c(%rip),%rax        # 18088 <g_141>
   1250c:	48 89 85 78 fb ff ff 	mov    %rax,-0x488(%rbp)
   12513:	48 8d 85 34 f8 ff ff 	lea    -0x7cc(%rbp),%rax
   1251a:	48 89 85 80 fb ff ff 	mov    %rax,-0x480(%rbp)
   12521:	48 8d 85 34 f8 ff ff 	lea    -0x7cc(%rbp),%rax
   12528:	48 89 85 88 fb ff ff 	mov    %rax,-0x478(%rbp)
   1252f:	8b 85 28 f8 ff ff    	mov    -0x7d8(%rbp),%eax
   12535:	48 8d 14 85 00 00 00 	lea    0x0(,%rax,4),%rdx
   1253c:	00 
   1253d:	48 8d 05 fc 5a 00 00 	lea    0x5afc(%rip),%rax        # 18040 <g_57>
   12544:	48 01 d0             	add    %rdx,%rax
   12547:	48 89 85 90 fb ff ff 	mov    %rax,-0x470(%rbp)
   1254e:	8b 85 28 f8 ff ff    	mov    -0x7d8(%rbp),%eax
   12554:	48 8d 14 85 00 00 00 	lea    0x0(,%rax,4),%rdx
   1255b:	00 
   1255c:	48 8d 05 dd 5a 00 00 	lea    0x5add(%rip),%rax        # 18040 <g_57>
   12563:	48 01 d0             	add    %rdx,%rax
   12566:	48 89 85 98 fb ff ff 	mov    %rax,-0x468(%rbp)
   1256d:	48 8d 85 34 f8 ff ff 	lea    -0x7cc(%rbp),%rax
   12574:	48 89 85 a0 fb ff ff 	mov    %rax,-0x460(%rbp)
   1257b:	8b 85 28 f8 ff ff    	mov    -0x7d8(%rbp),%eax
   12581:	48 8d 14 85 00 00 00 	lea    0x0(,%rax,4),%rdx
   12588:	00 
   12589:	48 8d 05 b0 5a 00 00 	lea    0x5ab0(%rip),%rax        # 18040 <g_57>
   12590:	48 01 d0             	add    %rdx,%rax
   12593:	48 89 85 a8 fb ff ff 	mov    %rax,-0x458(%rbp)
   1259a:	8b 85 28 f8 ff ff    	mov    -0x7d8(%rbp),%eax
   125a0:	48 8d 14 85 00 00 00 	lea    0x0(,%rax,4),%rdx
   125a7:	00 
   125a8:	48 8d 05 91 5a 00 00 	lea    0x5a91(%rip),%rax        # 18040 <g_57>
   125af:	48 01 d0             	add    %rdx,%rax
   125b2:	48 89 85 b0 fb ff ff 	mov    %rax,-0x450(%rbp)
   125b9:	48 8d 85 34 f8 ff ff 	lea    -0x7cc(%rbp),%rax
   125c0:	48 89 85 b8 fb ff ff 	mov    %rax,-0x448(%rbp)
   125c7:	8b 85 28 f8 ff ff    	mov    -0x7d8(%rbp),%eax
   125cd:	48 8d 14 85 00 00 00 	lea    0x0(,%rax,4),%rdx
   125d4:	00 
   125d5:	48 8d 05 64 5a 00 00 	lea    0x5a64(%rip),%rax        # 18040 <g_57>
   125dc:	48 01 d0             	add    %rdx,%rax
   125df:	48 89 85 c0 fb ff ff 	mov    %rax,-0x440(%rbp)
   125e6:	8b 85 28 f8 ff ff    	mov    -0x7d8(%rbp),%eax
   125ec:	48 8d 14 85 00 00 00 	lea    0x0(,%rax,4),%rdx
   125f3:	00 
   125f4:	48 8d 05 45 5a 00 00 	lea    0x5a45(%rip),%rax        # 18040 <g_57>
   125fb:	48 01 d0             	add    %rdx,%rax
   125fe:	48 89 85 c8 fb ff ff 	mov    %rax,-0x438(%rbp)
   12605:	48 8d 85 34 f8 ff ff 	lea    -0x7cc(%rbp),%rax
   1260c:	48 89 85 d0 fb ff ff 	mov    %rax,-0x430(%rbp)
   12613:	48 8d 85 34 f8 ff ff 	lea    -0x7cc(%rbp),%rax
   1261a:	48 89 85 d8 fb ff ff 	mov    %rax,-0x428(%rbp)
   12621:	48 8d 05 60 5a 00 00 	lea    0x5a60(%rip),%rax        # 18088 <g_141>
   12628:	48 89 85 e0 fb ff ff 	mov    %rax,-0x420(%rbp)
   1262f:	48 8d 85 34 f8 ff ff 	lea    -0x7cc(%rbp),%rax
   12636:	48 89 85 e8 fb ff ff 	mov    %rax,-0x418(%rbp)
   1263d:	48 8d 85 34 f8 ff ff 	lea    -0x7cc(%rbp),%rax
   12644:	48 89 85 f0 fb ff ff 	mov    %rax,-0x410(%rbp)
   1264b:	48 8d 05 36 5a 00 00 	lea    0x5a36(%rip),%rax        # 18088 <g_141>
   12652:	48 89 85 f8 fb ff ff 	mov    %rax,-0x408(%rbp)
   12659:	48 8d 85 34 f8 ff ff 	lea    -0x7cc(%rbp),%rax
   12660:	48 89 85 00 fc ff ff 	mov    %rax,-0x400(%rbp)
   12667:	48 8d 85 34 f8 ff ff 	lea    -0x7cc(%rbp),%rax
   1266e:	48 89 85 08 fc ff ff 	mov    %rax,-0x3f8(%rbp)
   12675:	48 8d 05 0c 5a 00 00 	lea    0x5a0c(%rip),%rax        # 18088 <g_141>
   1267c:	48 89 85 10 fc ff ff 	mov    %rax,-0x3f0(%rbp)
   12683:	48 8d 85 34 f8 ff ff 	lea    -0x7cc(%rbp),%rax
   1268a:	48 89 85 18 fc ff ff 	mov    %rax,-0x3e8(%rbp)
   12691:	48 8d 85 34 f8 ff ff 	lea    -0x7cc(%rbp),%rax
   12698:	48 89 85 20 fc ff ff 	mov    %rax,-0x3e0(%rbp)
   1269f:	8b 85 28 f8 ff ff    	mov    -0x7d8(%rbp),%eax
   126a5:	48 8d 14 85 00 00 00 	lea    0x0(,%rax,4),%rdx
   126ac:	00 
   126ad:	48 8d 05 8c 59 00 00 	lea    0x598c(%rip),%rax        # 18040 <g_57>
   126b4:	48 01 d0             	add    %rdx,%rax
   126b7:	48 89 85 28 fc ff ff 	mov    %rax,-0x3d8(%rbp)
   126be:	8b 85 28 f8 ff ff    	mov    -0x7d8(%rbp),%eax
   126c4:	48 8d 14 85 00 00 00 	lea    0x0(,%rax,4),%rdx
   126cb:	00 
   126cc:	48 8d 05 6d 59 00 00 	lea    0x596d(%rip),%rax        # 18040 <g_57>
   126d3:	48 01 d0             	add    %rdx,%rax
   126d6:	48 89 85 30 fc ff ff 	mov    %rax,-0x3d0(%rbp)
   126dd:	48 8d 85 34 f8 ff ff 	lea    -0x7cc(%rbp),%rax
   126e4:	48 89 85 38 fc ff ff 	mov    %rax,-0x3c8(%rbp)
   126eb:	8b 85 28 f8 ff ff    	mov    -0x7d8(%rbp),%eax
   126f1:	48 8d 14 85 00 00 00 	lea    0x0(,%rax,4),%rdx
   126f8:	00 
   126f9:	48 8d 05 40 59 00 00 	lea    0x5940(%rip),%rax        # 18040 <g_57>
   12700:	48 01 d0             	add    %rdx,%rax
   12703:	48 89 85 40 fc ff ff 	mov    %rax,-0x3c0(%rbp)
   1270a:	8b 85 28 f8 ff ff    	mov    -0x7d8(%rbp),%eax
   12710:	48 8d 14 85 00 00 00 	lea    0x0(,%rax,4),%rdx
   12717:	00 
   12718:	48 8d 05 21 59 00 00 	lea    0x5921(%rip),%rax        # 18040 <g_57>
   1271f:	48 01 d0             	add    %rdx,%rax
   12722:	48 89 85 48 fc ff ff 	mov    %rax,-0x3b8(%rbp)
   12729:	48 8d 85 34 f8 ff ff 	lea    -0x7cc(%rbp),%rax
   12730:	48 89 85 50 fc ff ff 	mov    %rax,-0x3b0(%rbp)
   12737:	8b 85 28 f8 ff ff    	mov    -0x7d8(%rbp),%eax
   1273d:	48 8d 14 85 00 00 00 	lea    0x0(,%rax,4),%rdx
   12744:	00 
   12745:	48 8d 05 f4 58 00 00 	lea    0x58f4(%rip),%rax        # 18040 <g_57>
   1274c:	48 01 d0             	add    %rdx,%rax
   1274f:	48 89 85 58 fc ff ff 	mov    %rax,-0x3a8(%rbp)
   12756:	8b 85 28 f8 ff ff    	mov    -0x7d8(%rbp),%eax
   1275c:	48 8d 14 85 00 00 00 	lea    0x0(,%rax,4),%rdx
   12763:	00 
   12764:	48 8d 05 d5 58 00 00 	lea    0x58d5(%rip),%rax        # 18040 <g_57>
   1276b:	48 01 d0             	add    %rdx,%rax
   1276e:	48 89 85 60 fc ff ff 	mov    %rax,-0x3a0(%rbp)
   12775:	48 8d 85 34 f8 ff ff 	lea    -0x7cc(%rbp),%rax
   1277c:	48 89 85 68 fc ff ff 	mov    %rax,-0x398(%rbp)
   12783:	8b 85 28 f8 ff ff    	mov    -0x7d8(%rbp),%eax
   12789:	48 8d 14 85 00 00 00 	lea    0x0(,%rax,4),%rdx
   12790:	00 
   12791:	48 8d 05 a8 58 00 00 	lea    0x58a8(%rip),%rax        # 18040 <g_57>
   12798:	48 01 d0             	add    %rdx,%rax
   1279b:	48 89 85 70 fc ff ff 	mov    %rax,-0x390(%rbp)
   127a2:	48 8d 85 34 f8 ff ff 	lea    -0x7cc(%rbp),%rax
   127a9:	48 89 85 78 fc ff ff 	mov    %rax,-0x388(%rbp)
   127b0:	8b 85 28 f8 ff ff    	mov    -0x7d8(%rbp),%eax
   127b6:	48 8d 14 85 00 00 00 	lea    0x0(,%rax,4),%rdx
   127bd:	00 
   127be:	48 8d 05 7b 58 00 00 	lea    0x587b(%rip),%rax        # 18040 <g_57>
   127c5:	48 01 d0             	add    %rdx,%rax
   127c8:	48 89 85 80 fc ff ff 	mov    %rax,-0x380(%rbp)
   127cf:	8b 85 28 f8 ff ff    	mov    -0x7d8(%rbp),%eax
   127d5:	48 8d 14 85 00 00 00 	lea    0x0(,%rax,4),%rdx
   127dc:	00 
   127dd:	48 8d 05 5c 58 00 00 	lea    0x585c(%rip),%rax        # 18040 <g_57>
   127e4:	48 01 d0             	add    %rdx,%rax
   127e7:	48 89 85 88 fc ff ff 	mov    %rax,-0x378(%rbp)
   127ee:	48 8d 85 34 f8 ff ff 	lea    -0x7cc(%rbp),%rax
   127f5:	48 89 85 90 fc ff ff 	mov    %rax,-0x370(%rbp)
   127fc:	8b 85 28 f8 ff ff    	mov    -0x7d8(%rbp),%eax
   12802:	48 8d 14 85 00 00 00 	lea    0x0(,%rax,4),%rdx
   12809:	00 
   1280a:	48 8d 05 2f 58 00 00 	lea    0x582f(%rip),%rax        # 18040 <g_57>
   12811:	48 01 d0             	add    %rdx,%rax
   12814:	48 89 85 98 fc ff ff 	mov    %rax,-0x368(%rbp)
   1281b:	8b 85 28 f8 ff ff    	mov    -0x7d8(%rbp),%eax
   12821:	48 8d 14 85 00 00 00 	lea    0x0(,%rax,4),%rdx
   12828:	00 
   12829:	48 8d 05 10 58 00 00 	lea    0x5810(%rip),%rax        # 18040 <g_57>
   12830:	48 01 d0             	add    %rdx,%rax
   12833:	48 89 85 a0 fc ff ff 	mov    %rax,-0x360(%rbp)
   1283a:	48 8d 85 34 f8 ff ff 	lea    -0x7cc(%rbp),%rax
   12841:	48 89 85 a8 fc ff ff 	mov    %rax,-0x358(%rbp)
   12848:	8b 85 28 f8 ff ff    	mov    -0x7d8(%rbp),%eax
   1284e:	48 8d 14 85 00 00 00 	lea    0x0(,%rax,4),%rdx
   12855:	00 
   12856:	48 8d 05 e3 57 00 00 	lea    0x57e3(%rip),%rax        # 18040 <g_57>
   1285d:	48 01 d0             	add    %rdx,%rax
   12860:	48 89 85 b0 fc ff ff 	mov    %rax,-0x350(%rbp)
   12867:	8b 85 28 f8 ff ff    	mov    -0x7d8(%rbp),%eax
   1286d:	48 8d 14 85 00 00 00 	lea    0x0(,%rax,4),%rdx
   12874:	00 
   12875:	48 8d 05 c4 57 00 00 	lea    0x57c4(%rip),%rax        # 18040 <g_57>
   1287c:	48 01 d0             	add    %rdx,%rax
   1287f:	48 89 85 b8 fc ff ff 	mov    %rax,-0x348(%rbp)
   12886:	48 8d 85 34 f8 ff ff 	lea    -0x7cc(%rbp),%rax
   1288d:	48 89 85 c0 fc ff ff 	mov    %rax,-0x340(%rbp)
   12894:	48 8d 85 34 f8 ff ff 	lea    -0x7cc(%rbp),%rax
   1289b:	48 89 85 c8 fc ff ff 	mov    %rax,-0x338(%rbp)
   128a2:	48 8d 05 df 57 00 00 	lea    0x57df(%rip),%rax        # 18088 <g_141>
   128a9:	48 89 85 d0 fc ff ff 	mov    %rax,-0x330(%rbp)
   128b0:	48 8d 85 34 f8 ff ff 	lea    -0x7cc(%rbp),%rax
   128b7:	48 89 85 d8 fc ff ff 	mov    %rax,-0x328(%rbp)
   128be:	48 8d 85 34 f8 ff ff 	lea    -0x7cc(%rbp),%rax
   128c5:	48 89 85 e0 fc ff ff 	mov    %rax,-0x320(%rbp)
   128cc:	48 8d 05 b5 57 00 00 	lea    0x57b5(%rip),%rax        # 18088 <g_141>
   128d3:	48 89 85 e8 fc ff ff 	mov    %rax,-0x318(%rbp)
   128da:	48 8d 85 34 f8 ff ff 	lea    -0x7cc(%rbp),%rax
   128e1:	48 89 85 f0 fc ff ff 	mov    %rax,-0x310(%rbp)
   128e8:	48 8d 85 34 f8 ff ff 	lea    -0x7cc(%rbp),%rax
   128ef:	48 89 85 f8 fc ff ff 	mov    %rax,-0x308(%rbp)
   128f6:	48 8d 05 8b 57 00 00 	lea    0x578b(%rip),%rax        # 18088 <g_141>
   128fd:	48 89 85 00 fd ff ff 	mov    %rax,-0x300(%rbp)
   12904:	48 8d 85 34 f8 ff ff 	lea    -0x7cc(%rbp),%rax
   1290b:	48 89 85 08 fd ff ff 	mov    %rax,-0x2f8(%rbp)
   12912:	48 8d 85 34 f8 ff ff 	lea    -0x7cc(%rbp),%rax
   12919:	48 89 85 10 fd ff ff 	mov    %rax,-0x2f0(%rbp)
   12920:	8b 85 28 f8 ff ff    	mov    -0x7d8(%rbp),%eax
   12926:	48 8d 14 85 00 00 00 	lea    0x0(,%rax,4),%rdx
   1292d:	00 
   1292e:	48 8d 05 0b 57 00 00 	lea    0x570b(%rip),%rax        # 18040 <g_57>
   12935:	48 01 d0             	add    %rdx,%rax
   12938:	48 89 85 18 fd ff ff 	mov    %rax,-0x2e8(%rbp)
   1293f:	8b 85 28 f8 ff ff    	mov    -0x7d8(%rbp),%eax
   12945:	48 8d 14 85 00 00 00 	lea    0x0(,%rax,4),%rdx
   1294c:	00 
   1294d:	48 8d 05 ec 56 00 00 	lea    0x56ec(%rip),%rax        # 18040 <g_57>
   12954:	48 01 d0             	add    %rdx,%rax
   12957:	48 89 85 20 fd ff ff 	mov    %rax,-0x2e0(%rbp)
   1295e:	48 8d 85 34 f8 ff ff 	lea    -0x7cc(%rbp),%rax
   12965:	48 89 85 28 fd ff ff 	mov    %rax,-0x2d8(%rbp)
   1296c:	8b 85 28 f8 ff ff    	mov    -0x7d8(%rbp),%eax
   12972:	48 8d 14 85 00 00 00 	lea    0x0(,%rax,4),%rdx
   12979:	00 
   1297a:	48 8d 05 bf 56 00 00 	lea    0x56bf(%rip),%rax        # 18040 <g_57>
   12981:	48 01 d0             	add    %rdx,%rax
   12984:	48 89 85 30 fd ff ff 	mov    %rax,-0x2d0(%rbp)
   1298b:	8b 85 28 f8 ff ff    	mov    -0x7d8(%rbp),%eax
   12991:	48 8d 14 85 00 00 00 	lea    0x0(,%rax,4),%rdx
   12998:	00 
   12999:	48 8d 05 a0 56 00 00 	lea    0x56a0(%rip),%rax        # 18040 <g_57>
   129a0:	48 01 d0             	add    %rdx,%rax
   129a3:	48 89 85 38 fd ff ff 	mov    %rax,-0x2c8(%rbp)
   129aa:	48 8d 85 34 f8 ff ff 	lea    -0x7cc(%rbp),%rax
   129b1:	48 89 85 40 fd ff ff 	mov    %rax,-0x2c0(%rbp)
   129b8:	8b 85 28 f8 ff ff    	mov    -0x7d8(%rbp),%eax
   129be:	48 8d 14 85 00 00 00 	lea    0x0(,%rax,4),%rdx
   129c5:	00 
   129c6:	48 8d 05 73 56 00 00 	lea    0x5673(%rip),%rax        # 18040 <g_57>
   129cd:	48 01 d0             	add    %rdx,%rax
   129d0:	48 89 85 48 fd ff ff 	mov    %rax,-0x2b8(%rbp)
   129d7:	8b 85 28 f8 ff ff    	mov    -0x7d8(%rbp),%eax
   129dd:	48 8d 14 85 00 00 00 	lea    0x0(,%rax,4),%rdx
   129e4:	00 
   129e5:	48 8d 05 54 56 00 00 	lea    0x5654(%rip),%rax        # 18040 <g_57>
   129ec:	48 01 d0             	add    %rdx,%rax
   129ef:	48 89 85 50 fd ff ff 	mov    %rax,-0x2b0(%rbp)
   129f6:	48 8d 85 34 f8 ff ff 	lea    -0x7cc(%rbp),%rax
   129fd:	48 89 85 58 fd ff ff 	mov    %rax,-0x2a8(%rbp)
   12a04:	8b 85 28 f8 ff ff    	mov    -0x7d8(%rbp),%eax
   12a0a:	48 8d 14 85 00 00 00 	lea    0x0(,%rax,4),%rdx
   12a11:	00 
   12a12:	48 8d 05 27 56 00 00 	lea    0x5627(%rip),%rax        # 18040 <g_57>
   12a19:	48 01 d0             	add    %rdx,%rax
   12a1c:	48 89 85 60 fd ff ff 	mov    %rax,-0x2a0(%rbp)
   12a23:	48 8d 85 34 f8 ff ff 	lea    -0x7cc(%rbp),%rax
   12a2a:	48 89 85 68 fd ff ff 	mov    %rax,-0x298(%rbp)
   12a31:	8b 85 28 f8 ff ff    	mov    -0x7d8(%rbp),%eax
   12a37:	48 8d 14 85 00 00 00 	lea    0x0(,%rax,4),%rdx
   12a3e:	00 
   12a3f:	48 8d 05 fa 55 00 00 	lea    0x55fa(%rip),%rax        # 18040 <g_57>
   12a46:	48 01 d0             	add    %rdx,%rax
   12a49:	48 89 85 70 fd ff ff 	mov    %rax,-0x290(%rbp)
   12a50:	8b 85 28 f8 ff ff    	mov    -0x7d8(%rbp),%eax
   12a56:	48 8d 14 85 00 00 00 	lea    0x0(,%rax,4),%rdx
   12a5d:	00 
   12a5e:	48 8d 05 db 55 00 00 	lea    0x55db(%rip),%rax        # 18040 <g_57>
   12a65:	48 01 d0             	add    %rdx,%rax
   12a68:	48 89 85 78 fd ff ff 	mov    %rax,-0x288(%rbp)
   12a6f:	48 8d 85 34 f8 ff ff 	lea    -0x7cc(%rbp),%rax
   12a76:	48 89 85 80 fd ff ff 	mov    %rax,-0x280(%rbp)
   12a7d:	8b 85 28 f8 ff ff    	mov    -0x7d8(%rbp),%eax
   12a83:	48 8d 14 85 00 00 00 	lea    0x0(,%rax,4),%rdx
   12a8a:	00 
   12a8b:	48 8d 05 ae 55 00 00 	lea    0x55ae(%rip),%rax        # 18040 <g_57>
   12a92:	48 01 d0             	add    %rdx,%rax
   12a95:	48 89 85 88 fd ff ff 	mov    %rax,-0x278(%rbp)
   12a9c:	8b 85 28 f8 ff ff    	mov    -0x7d8(%rbp),%eax
   12aa2:	48 8d 14 85 00 00 00 	lea    0x0(,%rax,4),%rdx
   12aa9:	00 
   12aaa:	48 8d 05 8f 55 00 00 	lea    0x558f(%rip),%rax        # 18040 <g_57>
   12ab1:	48 01 d0             	add    %rdx,%rax
   12ab4:	48 89 85 90 fd ff ff 	mov    %rax,-0x270(%rbp)
   12abb:	48 8d 85 34 f8 ff ff 	lea    -0x7cc(%rbp),%rax
   12ac2:	48 89 85 98 fd ff ff 	mov    %rax,-0x268(%rbp)
   12ac9:	8b 85 28 f8 ff ff    	mov    -0x7d8(%rbp),%eax
   12acf:	48 8d 14 85 00 00 00 	lea    0x0(,%rax,4),%rdx
   12ad6:	00 
   12ad7:	48 8d 05 62 55 00 00 	lea    0x5562(%rip),%rax        # 18040 <g_57>
   12ade:	48 01 d0             	add    %rdx,%rax
   12ae1:	48 89 85 a0 fd ff ff 	mov    %rax,-0x260(%rbp)
   12ae8:	8b 85 28 f8 ff ff    	mov    -0x7d8(%rbp),%eax
   12aee:	48 8d 14 85 00 00 00 	lea    0x0(,%rax,4),%rdx
   12af5:	00 
   12af6:	48 8d 05 43 55 00 00 	lea    0x5543(%rip),%rax        # 18040 <g_57>
   12afd:	48 01 d0             	add    %rdx,%rax
   12b00:	48 89 85 a8 fd ff ff 	mov    %rax,-0x258(%rbp)
   12b07:	48 8d 85 34 f8 ff ff 	lea    -0x7cc(%rbp),%rax
   12b0e:	48 89 85 b0 fd ff ff 	mov    %rax,-0x250(%rbp)
   12b15:	48 8d 85 34 f8 ff ff 	lea    -0x7cc(%rbp),%rax
   12b1c:	48 89 85 b8 fd ff ff 	mov    %rax,-0x248(%rbp)
   12b23:	48 8d 05 5e 55 00 00 	lea    0x555e(%rip),%rax        # 18088 <g_141>
   12b2a:	48 89 85 c0 fd ff ff 	mov    %rax,-0x240(%rbp)
   12b31:	48 8d 85 34 f8 ff ff 	lea    -0x7cc(%rbp),%rax
   12b38:	48 89 85 c8 fd ff ff 	mov    %rax,-0x238(%rbp)
   12b3f:	48 8d 85 34 f8 ff ff 	lea    -0x7cc(%rbp),%rax
   12b46:	48 89 85 d0 fd ff ff 	mov    %rax,-0x230(%rbp)
   12b4d:	48 8d 05 34 55 00 00 	lea    0x5534(%rip),%rax        # 18088 <g_141>
   12b54:	48 89 85 d8 fd ff ff 	mov    %rax,-0x228(%rbp)
   12b5b:	48 8d 85 34 f8 ff ff 	lea    -0x7cc(%rbp),%rax
   12b62:	48 89 85 e0 fd ff ff 	mov    %rax,-0x220(%rbp)
   12b69:	48 8d 85 34 f8 ff ff 	lea    -0x7cc(%rbp),%rax
   12b70:	48 89 85 e8 fd ff ff 	mov    %rax,-0x218(%rbp)
   12b77:	48 8d 05 0a 55 00 00 	lea    0x550a(%rip),%rax        # 18088 <g_141>
   12b7e:	48 89 85 f0 fd ff ff 	mov    %rax,-0x210(%rbp)
   12b85:	48 8d 85 34 f8 ff ff 	lea    -0x7cc(%rbp),%rax
   12b8c:	48 89 85 f8 fd ff ff 	mov    %rax,-0x208(%rbp)
   12b93:	48 8d 85 34 f8 ff ff 	lea    -0x7cc(%rbp),%rax
   12b9a:	48 89 85 00 fe ff ff 	mov    %rax,-0x200(%rbp)
   12ba1:	8b 85 28 f8 ff ff    	mov    -0x7d8(%rbp),%eax
   12ba7:	48 8d 14 85 00 00 00 	lea    0x0(,%rax,4),%rdx
   12bae:	00 
   12baf:	48 8d 05 8a 54 00 00 	lea    0x548a(%rip),%rax        # 18040 <g_57>
   12bb6:	48 01 d0             	add    %rdx,%rax
   12bb9:	48 89 85 08 fe ff ff 	mov    %rax,-0x1f8(%rbp)
   12bc0:	8b 85 28 f8 ff ff    	mov    -0x7d8(%rbp),%eax
   12bc6:	48 8d 14 85 00 00 00 	lea    0x0(,%rax,4),%rdx
   12bcd:	00 
   12bce:	48 8d 05 6b 54 00 00 	lea    0x546b(%rip),%rax        # 18040 <g_57>
   12bd5:	48 01 d0             	add    %rdx,%rax
   12bd8:	48 89 85 10 fe ff ff 	mov    %rax,-0x1f0(%rbp)
   12bdf:	48 8d 85 34 f8 ff ff 	lea    -0x7cc(%rbp),%rax
   12be6:	48 89 85 18 fe ff ff 	mov    %rax,-0x1e8(%rbp)
   12bed:	8b 85 28 f8 ff ff    	mov    -0x7d8(%rbp),%eax
   12bf3:	48 8d 14 85 00 00 00 	lea    0x0(,%rax,4),%rdx
   12bfa:	00 
   12bfb:	48 8d 05 3e 54 00 00 	lea    0x543e(%rip),%rax        # 18040 <g_57>
   12c02:	48 01 d0             	add    %rdx,%rax
   12c05:	48 89 85 20 fe ff ff 	mov    %rax,-0x1e0(%rbp)
   12c0c:	8b 85 28 f8 ff ff    	mov    -0x7d8(%rbp),%eax
   12c12:	48 8d 14 85 00 00 00 	lea    0x0(,%rax,4),%rdx
   12c19:	00 
   12c1a:	48 8d 05 1f 54 00 00 	lea    0x541f(%rip),%rax        # 18040 <g_57>
   12c21:	48 01 d0             	add    %rdx,%rax
   12c24:	48 89 85 28 fe ff ff 	mov    %rax,-0x1d8(%rbp)
   12c2b:	48 8d 85 34 f8 ff ff 	lea    -0x7cc(%rbp),%rax
   12c32:	48 89 85 30 fe ff ff 	mov    %rax,-0x1d0(%rbp)
   12c39:	8b 85 28 f8 ff ff    	mov    -0x7d8(%rbp),%eax
   12c3f:	48 8d 14 85 00 00 00 	lea    0x0(,%rax,4),%rdx
   12c46:	00 
   12c47:	48 8d 05 f2 53 00 00 	lea    0x53f2(%rip),%rax        # 18040 <g_57>
   12c4e:	48 01 d0             	add    %rdx,%rax
   12c51:	48 89 85 38 fe ff ff 	mov    %rax,-0x1c8(%rbp)
   12c58:	8b 85 28 f8 ff ff    	mov    -0x7d8(%rbp),%eax
   12c5e:	48 8d 14 85 00 00 00 	lea    0x0(,%rax,4),%rdx
   12c65:	00 
   12c66:	48 8d 05 d3 53 00 00 	lea    0x53d3(%rip),%rax        # 18040 <g_57>
   12c6d:	48 01 d0             	add    %rdx,%rax
   12c70:	48 89 85 40 fe ff ff 	mov    %rax,-0x1c0(%rbp)
   12c77:	48 8d 85 34 f8 ff ff 	lea    -0x7cc(%rbp),%rax
   12c7e:	48 89 85 48 fe ff ff 	mov    %rax,-0x1b8(%rbp)
   12c85:	8b 85 28 f8 ff ff    	mov    -0x7d8(%rbp),%eax
   12c8b:	48 8d 14 85 00 00 00 	lea    0x0(,%rax,4),%rdx
   12c92:	00 
   12c93:	48 8d 05 a6 53 00 00 	lea    0x53a6(%rip),%rax        # 18040 <g_57>
   12c9a:	48 01 d0             	add    %rdx,%rax
   12c9d:	48 89 85 50 fe ff ff 	mov    %rax,-0x1b0(%rbp)
   12ca4:	48 8d 85 34 f8 ff ff 	lea    -0x7cc(%rbp),%rax
   12cab:	48 89 85 58 fe ff ff 	mov    %rax,-0x1a8(%rbp)
   12cb2:	8b 85 28 f8 ff ff    	mov    -0x7d8(%rbp),%eax
   12cb8:	48 8d 14 85 00 00 00 	lea    0x0(,%rax,4),%rdx
   12cbf:	00 
   12cc0:	48 8d 05 79 53 00 00 	lea    0x5379(%rip),%rax        # 18040 <g_57>
   12cc7:	48 01 d0             	add    %rdx,%rax
   12cca:	48 89 85 60 fe ff ff 	mov    %rax,-0x1a0(%rbp)
   12cd1:	8b 85 28 f8 ff ff    	mov    -0x7d8(%rbp),%eax
   12cd7:	48 8d 14 85 00 00 00 	lea    0x0(,%rax,4),%rdx
   12cde:	00 
   12cdf:	48 8d 05 5a 53 00 00 	lea    0x535a(%rip),%rax        # 18040 <g_57>
   12ce6:	48 01 d0             	add    %rdx,%rax
   12ce9:	48 89 85 68 fe ff ff 	mov    %rax,-0x198(%rbp)
   12cf0:	48 8d 85 34 f8 ff ff 	lea    -0x7cc(%rbp),%rax
   12cf7:	48 89 85 70 fe ff ff 	mov    %rax,-0x190(%rbp)
   12cfe:	8b 85 28 f8 ff ff    	mov    -0x7d8(%rbp),%eax
   12d04:	48 8d 14 85 00 00 00 	lea    0x0(,%rax,4),%rdx
   12d0b:	00 
   12d0c:	48 8d 05 2d 53 00 00 	lea    0x532d(%rip),%rax        # 18040 <g_57>
   12d13:	48 01 d0             	add    %rdx,%rax
   12d16:	48 89 85 78 fe ff ff 	mov    %rax,-0x188(%rbp)
   12d1d:	8b 85 28 f8 ff ff    	mov    -0x7d8(%rbp),%eax
   12d23:	48 8d 14 85 00 00 00 	lea    0x0(,%rax,4),%rdx
   12d2a:	00 
   12d2b:	48 8d 05 0e 53 00 00 	lea    0x530e(%rip),%rax        # 18040 <g_57>
   12d32:	48 01 d0             	add    %rdx,%rax
   12d35:	48 89 85 80 fe ff ff 	mov    %rax,-0x180(%rbp)
   12d3c:	48 8d 85 34 f8 ff ff 	lea    -0x7cc(%rbp),%rax
   12d43:	48 89 85 88 fe ff ff 	mov    %rax,-0x178(%rbp)
   12d4a:	8b 85 28 f8 ff ff    	mov    -0x7d8(%rbp),%eax
   12d50:	48 8d 14 85 00 00 00 	lea    0x0(,%rax,4),%rdx
   12d57:	00 
   12d58:	48 8d 05 e1 52 00 00 	lea    0x52e1(%rip),%rax        # 18040 <g_57>
   12d5f:	48 01 d0             	add    %rdx,%rax
   12d62:	48 89 85 90 fe ff ff 	mov    %rax,-0x170(%rbp)
   12d69:	8b 85 28 f8 ff ff    	mov    -0x7d8(%rbp),%eax
   12d6f:	48 8d 14 85 00 00 00 	lea    0x0(,%rax,4),%rdx
   12d76:	00 
   12d77:	48 8d 05 c2 52 00 00 	lea    0x52c2(%rip),%rax        # 18040 <g_57>
   12d7e:	48 01 d0             	add    %rdx,%rax
   12d81:	48 89 85 98 fe ff ff 	mov    %rax,-0x168(%rbp)
   12d88:	48 8d 85 34 f8 ff ff 	lea    -0x7cc(%rbp),%rax
   12d8f:	48 89 85 a0 fe ff ff 	mov    %rax,-0x160(%rbp)
   12d96:	48 8d 85 34 f8 ff ff 	lea    -0x7cc(%rbp),%rax
   12d9d:	48 89 85 a8 fe ff ff 	mov    %rax,-0x158(%rbp)
   12da4:	48 8d 05 dd 52 00 00 	lea    0x52dd(%rip),%rax        # 18088 <g_141>
   12dab:	48 89 85 b0 fe ff ff 	mov    %rax,-0x150(%rbp)
   12db2:	48 8d 85 34 f8 ff ff 	lea    -0x7cc(%rbp),%rax
   12db9:	48 89 85 b8 fe ff ff 	mov    %rax,-0x148(%rbp)
   12dc0:	48 8d 85 34 f8 ff ff 	lea    -0x7cc(%rbp),%rax
   12dc7:	48 89 85 c0 fe ff ff 	mov    %rax,-0x140(%rbp)
   12dce:	48 8d 05 b3 52 00 00 	lea    0x52b3(%rip),%rax        # 18088 <g_141>
   12dd5:	48 89 85 c8 fe ff ff 	mov    %rax,-0x138(%rbp)
   12ddc:	48 8d 85 34 f8 ff ff 	lea    -0x7cc(%rbp),%rax
   12de3:	48 89 85 d0 fe ff ff 	mov    %rax,-0x130(%rbp)
   12dea:	48 8d 85 34 f8 ff ff 	lea    -0x7cc(%rbp),%rax
   12df1:	48 89 85 d8 fe ff ff 	mov    %rax,-0x128(%rbp)
   12df8:	48 8d 05 89 52 00 00 	lea    0x5289(%rip),%rax        # 18088 <g_141>
   12dff:	48 89 85 e0 fe ff ff 	mov    %rax,-0x120(%rbp)
   12e06:	48 8d 85 34 f8 ff ff 	lea    -0x7cc(%rbp),%rax
   12e0d:	48 89 85 e8 fe ff ff 	mov    %rax,-0x118(%rbp)
   12e14:	48 8d 85 34 f8 ff ff 	lea    -0x7cc(%rbp),%rax
   12e1b:	48 89 85 f0 fe ff ff 	mov    %rax,-0x110(%rbp)
   12e22:	8b 85 28 f8 ff ff    	mov    -0x7d8(%rbp),%eax
   12e28:	48 8d 14 85 00 00 00 	lea    0x0(,%rax,4),%rdx
   12e2f:	00 
   12e30:	48 8d 05 09 52 00 00 	lea    0x5209(%rip),%rax        # 18040 <g_57>
   12e37:	48 01 d0             	add    %rdx,%rax
   12e3a:	48 89 85 f8 fe ff ff 	mov    %rax,-0x108(%rbp)
   12e41:	8b 85 28 f8 ff ff    	mov    -0x7d8(%rbp),%eax
   12e47:	48 8d 14 85 00 00 00 	lea    0x0(,%rax,4),%rdx
   12e4e:	00 
   12e4f:	48 8d 05 ea 51 00 00 	lea    0x51ea(%rip),%rax        # 18040 <g_57>
   12e56:	48 01 d0             	add    %rdx,%rax
   12e59:	48 89 85 00 ff ff ff 	mov    %rax,-0x100(%rbp)
   12e60:	48 8d 85 34 f8 ff ff 	lea    -0x7cc(%rbp),%rax
   12e67:	48 89 85 08 ff ff ff 	mov    %rax,-0xf8(%rbp)
   12e6e:	8b 85 28 f8 ff ff    	mov    -0x7d8(%rbp),%eax
   12e74:	48 8d 14 85 00 00 00 	lea    0x0(,%rax,4),%rdx
   12e7b:	00 
   12e7c:	48 8d 05 bd 51 00 00 	lea    0x51bd(%rip),%rax        # 18040 <g_57>
   12e83:	48 01 d0             	add    %rdx,%rax
   12e86:	48 89 85 10 ff ff ff 	mov    %rax,-0xf0(%rbp)
   12e8d:	8b 85 28 f8 ff ff    	mov    -0x7d8(%rbp),%eax
   12e93:	48 8d 14 85 00 00 00 	lea    0x0(,%rax,4),%rdx
   12e9a:	00 
   12e9b:	48 8d 05 9e 51 00 00 	lea    0x519e(%rip),%rax        # 18040 <g_57>
   12ea2:	48 01 d0             	add    %rdx,%rax
   12ea5:	48 89 85 18 ff ff ff 	mov    %rax,-0xe8(%rbp)
   12eac:	48 8d 85 34 f8 ff ff 	lea    -0x7cc(%rbp),%rax
   12eb3:	48 89 85 20 ff ff ff 	mov    %rax,-0xe0(%rbp)
   12eba:	8b 85 28 f8 ff ff    	mov    -0x7d8(%rbp),%eax
   12ec0:	48 8d 14 85 00 00 00 	lea    0x0(,%rax,4),%rdx
   12ec7:	00 
   12ec8:	48 8d 05 71 51 00 00 	lea    0x5171(%rip),%rax        # 18040 <g_57>
   12ecf:	48 01 d0             	add    %rdx,%rax
   12ed2:	48 89 85 28 ff ff ff 	mov    %rax,-0xd8(%rbp)
   12ed9:	8b 85 28 f8 ff ff    	mov    -0x7d8(%rbp),%eax
   12edf:	48 8d 14 85 00 00 00 	lea    0x0(,%rax,4),%rdx
   12ee6:	00 
   12ee7:	48 8d 05 52 51 00 00 	lea    0x5152(%rip),%rax        # 18040 <g_57>
   12eee:	48 01 d0             	add    %rdx,%rax
   12ef1:	48 89 85 30 ff ff ff 	mov    %rax,-0xd0(%rbp)
   12ef8:	48 8d 85 34 f8 ff ff 	lea    -0x7cc(%rbp),%rax
   12eff:	48 89 85 38 ff ff ff 	mov    %rax,-0xc8(%rbp)
   12f06:	8b 85 28 f8 ff ff    	mov    -0x7d8(%rbp),%eax
   12f0c:	48 8d 14 85 00 00 00 	lea    0x0(,%rax,4),%rdx
   12f13:	00 
   12f14:	48 8d 05 25 51 00 00 	lea    0x5125(%rip),%rax        # 18040 <g_57>
   12f1b:	48 01 d0             	add    %rdx,%rax
   12f1e:	48 89 85 40 ff ff ff 	mov    %rax,-0xc0(%rbp)
   12f25:	48 8d 85 34 f8 ff ff 	lea    -0x7cc(%rbp),%rax
   12f2c:	48 89 85 48 ff ff ff 	mov    %rax,-0xb8(%rbp)
   12f33:	8b 85 28 f8 ff ff    	mov    -0x7d8(%rbp),%eax
   12f39:	48 8d 14 85 00 00 00 	lea    0x0(,%rax,4),%rdx
   12f40:	00 
   12f41:	48 8d 05 f8 50 00 00 	lea    0x50f8(%rip),%rax        # 18040 <g_57>
   12f48:	48 01 d0             	add    %rdx,%rax
   12f4b:	48 89 85 50 ff ff ff 	mov    %rax,-0xb0(%rbp)
   12f52:	8b 85 28 f8 ff ff    	mov    -0x7d8(%rbp),%eax
   12f58:	48 8d 14 85 00 00 00 	lea    0x0(,%rax,4),%rdx
   12f5f:	00 
   12f60:	48 8d 05 d9 50 00 00 	lea    0x50d9(%rip),%rax        # 18040 <g_57>
   12f67:	48 01 d0             	add    %rdx,%rax
   12f6a:	48 89 85 58 ff ff ff 	mov    %rax,-0xa8(%rbp)
   12f71:	48 8d 85 34 f8 ff ff 	lea    -0x7cc(%rbp),%rax
   12f78:	48 89 85 60 ff ff ff 	mov    %rax,-0xa0(%rbp)
   12f7f:	8b 85 28 f8 ff ff    	mov    -0x7d8(%rbp),%eax
   12f85:	48 8d 14 85 00 00 00 	lea    0x0(,%rax,4),%rdx
   12f8c:	00 
   12f8d:	48 8d 05 ac 50 00 00 	lea    0x50ac(%rip),%rax        # 18040 <g_57>
   12f94:	48 01 d0             	add    %rdx,%rax
   12f97:	48 89 85 68 ff ff ff 	mov    %rax,-0x98(%rbp)
   12f9e:	8b 85 28 f8 ff ff    	mov    -0x7d8(%rbp),%eax
   12fa4:	48 8d 14 85 00 00 00 	lea    0x0(,%rax,4),%rdx
   12fab:	00 
   12fac:	48 8d 05 8d 50 00 00 	lea    0x508d(%rip),%rax        # 18040 <g_57>
   12fb3:	48 01 d0             	add    %rdx,%rax
   12fb6:	48 89 85 70 ff ff ff 	mov    %rax,-0x90(%rbp)
   12fbd:	48 8d 85 34 f8 ff ff 	lea    -0x7cc(%rbp),%rax
   12fc4:	48 89 85 78 ff ff ff 	mov    %rax,-0x88(%rbp)
   12fcb:	8b 85 28 f8 ff ff    	mov    -0x7d8(%rbp),%eax
   12fd1:	48 8d 14 85 00 00 00 	lea    0x0(,%rax,4),%rdx
   12fd8:	00 
   12fd9:	48 8d 05 60 50 00 00 	lea    0x5060(%rip),%rax        # 18040 <g_57>
   12fe0:	48 01 d0             	add    %rdx,%rax
   12fe3:	48 89 45 80          	mov    %rax,-0x80(%rbp)
   12fe7:	8b 85 28 f8 ff ff    	mov    -0x7d8(%rbp),%eax
   12fed:	48 8d 14 85 00 00 00 	lea    0x0(,%rax,4),%rdx
   12ff4:	00 
   12ff5:	48 8d 05 44 50 00 00 	lea    0x5044(%rip),%rax        # 18040 <g_57>
   12ffc:	48 01 d0             	add    %rdx,%rax
   12fff:	48 89 45 88          	mov    %rax,-0x78(%rbp)
   13003:	48 8d 85 34 f8 ff ff 	lea    -0x7cc(%rbp),%rax
   1300a:	48 89 45 90          	mov    %rax,-0x70(%rbp)
   1300e:	48 8d 85 34 f8 ff ff 	lea    -0x7cc(%rbp),%rax
   13015:	48 89 45 98          	mov    %rax,-0x68(%rbp)
   13019:	48 8d 05 68 50 00 00 	lea    0x5068(%rip),%rax        # 18088 <g_141>
   13020:	48 89 45 a0          	mov    %rax,-0x60(%rbp)
   13024:	48 8d 85 34 f8 ff ff 	lea    -0x7cc(%rbp),%rax
   1302b:	48 89 45 a8          	mov    %rax,-0x58(%rbp)
   1302f:	48 8d 85 34 f8 ff ff 	lea    -0x7cc(%rbp),%rax
   13036:	48 89 45 b0          	mov    %rax,-0x50(%rbp)
   1303a:	48 8d 05 47 50 00 00 	lea    0x5047(%rip),%rax        # 18088 <g_141>
   13041:	48 89 45 b8          	mov    %rax,-0x48(%rbp)
   13045:	48 8d 85 34 f8 ff ff 	lea    -0x7cc(%rbp),%rax
   1304c:	48 89 45 c0          	mov    %rax,-0x40(%rbp)
   13050:	48 8d 85 34 f8 ff ff 	lea    -0x7cc(%rbp),%rax
   13057:	48 89 45 c8          	mov    %rax,-0x38(%rbp)
   1305b:	48 8d 05 26 50 00 00 	lea    0x5026(%rip),%rax        # 18088 <g_141>
   13062:	48 89 45 d0          	mov    %rax,-0x30(%rbp)
   13066:	48 8d 85 34 f8 ff ff 	lea    -0x7cc(%rbp),%rax
   1306d:	48 89 45 d8          	mov    %rax,-0x28(%rbp)
   13071:	8b 05 d5 4f 00 00    	mov    0x4fd5(%rip),%eax        # 1804c <g_57+0xc>
   13077:	0f b7 c0             	movzwl %ax,%eax
   1307a:	be 05 00 00 00       	mov    $0x5,%esi
   1307f:	89 c7                	mov    %eax,%edi
   13081:	e8 38 6d ff ff       	callq  9dbe <safe_lshift_func_uint16_t_u_s>
   13086:	0f bf d0             	movswl %ax,%edx
   13089:	8b 05 99 4f 00 00    	mov    0x4f99(%rip),%eax        # 18028 <g_3>
   1308f:	48 63 c8             	movslq %eax,%rcx
   13092:	48 8b 05 c7 4f 00 00 	mov    0x4fc7(%rip),%rax        # 18060 <g_83>
   13099:	48 39 c1             	cmp    %rax,%rcx
   1309c:	0f 94 c0             	sete   %al
   1309f:	0f b6 c0             	movzbl %al,%eax
   130a2:	89 d6                	mov    %edx,%esi
   130a4:	89 c7                	mov    %eax,%edi
   130a6:	e8 4a 63 ff ff       	callq  93f5 <safe_mul_func_int16_t_s_s>
   130ab:	0f bf d8             	movswl %ax,%ebx
   130ae:	8b 95 34 f8 ff ff    	mov    -0x7cc(%rbp),%edx
   130b4:	8b 05 7e 4f 00 00    	mov    0x4f7e(%rip),%eax        # 18038 <g_55>
   130ba:	39 c2                	cmp    %eax,%edx
   130bc:	0f 9f c0             	setg   %al
   130bf:	0f b6 c0             	movzbl %al,%eax
   130c2:	be 07 00 00 00       	mov    $0x7,%esi
   130c7:	89 c7                	mov    %eax,%edi
   130c9:	e8 c4 63 ff ff       	callq  9492 <safe_lshift_func_int16_t_s_s>
   130ce:	98                   	cwtl   
   130cf:	89 de                	mov    %ebx,%esi
   130d1:	89 c7                	mov    %eax,%edi
   130d3:	e8 de 64 ff ff       	callq  95b6 <safe_add_func_int32_t_s_s>
   130d8:	48 8b 95 48 f8 ff ff 	mov    -0x7b8(%rbp),%rdx
   130df:	0f b7 12             	movzwl (%rdx),%edx
   130e2:	31 d0                	xor    %edx,%eax
   130e4:	89 c2                	mov    %eax,%edx
   130e6:	48 8b 85 48 f8 ff ff 	mov    -0x7b8(%rbp),%rax
   130ed:	66 89 10             	mov    %dx,(%rax)
   130f0:	48 8b 85 48 f8 ff ff 	mov    -0x7b8(%rbp),%rax
   130f7:	0f b7 00             	movzwl (%rax),%eax
   130fa:	41 89 c4             	mov    %eax,%r12d
   130fd:	0f be 95 2c f8 ff ff 	movsbl -0x7d4(%rbp),%edx
   13104:	8b 05 2e 4f 00 00    	mov    0x4f2e(%rip),%eax        # 18038 <g_55>
   1310a:	39 c2                	cmp    %eax,%edx
   1310c:	0f 8e 86 00 00 00    	jle    13198 <func_71+0x1341>
   13112:	8b 85 28 f8 ff ff    	mov    -0x7d8(%rbp),%eax
   13118:	48 8d 14 85 00 00 00 	lea    0x0(,%rax,4),%rdx
   1311f:	00 
   13120:	48 8d 05 19 4f 00 00 	lea    0x4f19(%rip),%rax        # 18040 <g_57>
   13127:	8b 04 02             	mov    (%rdx,%rax,1),%eax
   1312a:	0f bf d8             	movswl %ax,%ebx
   1312d:	8b 85 34 f8 ff ff    	mov    -0x7cc(%rbp),%eax
   13133:	48 63 d0             	movslq %eax,%rdx
   13136:	48 8b 85 50 f8 ff ff 	mov    -0x7b0(%rbp),%rax
   1313d:	48 8b 08             	mov    (%rax),%rcx
   13140:	8b 85 34 f8 ff ff    	mov    -0x7cc(%rbp),%eax
   13146:	39 85 28 f8 ff ff    	cmp    %eax,-0x7d8(%rbp)
   1314c:	0f 96 c0             	setbe  %al
   1314f:	0f b6 c0             	movzbl %al,%eax
   13152:	48 09 c1             	or     %rax,%rcx
   13155:	48 8b 85 50 f8 ff ff 	mov    -0x7b0(%rbp),%rax
   1315c:	48 89 08             	mov    %rcx,(%rax)
   1315f:	48 8b 85 50 f8 ff ff 	mov    -0x7b0(%rbp),%rax
   13166:	48 8b 00             	mov    (%rax),%rax
   13169:	48 89 d6             	mov    %rdx,%rsi
   1316c:	48 89 c7             	mov    %rax,%rdi
   1316f:	e8 cd 66 ff ff       	callq  9841 <safe_add_func_int64_t_s_s>
   13174:	98                   	cwtl   
   13175:	89 de                	mov    %ebx,%esi
   13177:	89 c7                	mov    %eax,%edi
   13179:	e8 55 62 ff ff       	callq  93d3 <safe_sub_func_int16_t_s_s>
   1317e:	98                   	cwtl   
   1317f:	39 85 3c f8 ff ff    	cmp    %eax,-0x7c4(%rbp)
   13185:	74 11                	je     13198 <func_71+0x1341>
   13187:	48 83 bd 58 f8 ff ff 	cmpq   $0x0,-0x7a8(%rbp)
   1318e:	00 
   1318f:	74 07                	je     13198 <func_71+0x1341>
   13191:	b8 01 00 00 00       	mov    $0x1,%eax
   13196:	eb 05                	jmp    1319d <func_71+0x1346>
   13198:	b8 00 00 00 00       	mov    $0x0,%eax
   1319d:	44 09 e0             	or     %r12d,%eax
   131a0:	89 c2                	mov    %eax,%edx
   131a2:	8b 85 28 f8 ff ff    	mov    -0x7d8(%rbp),%eax
   131a8:	21 d0                	and    %edx,%eax
   131aa:	0f be d0             	movsbl %al,%edx
   131ad:	8b 85 28 f8 ff ff    	mov    -0x7d8(%rbp),%eax
   131b3:	48 8d 0c 85 00 00 00 	lea    0x0(,%rax,4),%rcx
   131ba:	00 
   131bb:	48 8d 05 7e 4e 00 00 	lea    0x4e7e(%rip),%rax        # 18040 <g_57>
   131c2:	8b 04 01             	mov    (%rcx,%rax,1),%eax
   131c5:	89 c1                	mov    %eax,%ecx
   131c7:	48 8b 85 40 f8 ff ff 	mov    -0x7c0(%rbp),%rax
   131ce:	88 08                	mov    %cl,(%rax)
   131d0:	48 8b 85 40 f8 ff ff 	mov    -0x7c0(%rbp),%rax
   131d7:	0f b6 00             	movzbl (%rax),%eax
   131da:	0f be c0             	movsbl %al,%eax
   131dd:	89 d6                	mov    %edx,%esi
   131df:	89 c7                	mov    %eax,%edi
   131e1:	e8 2c 60 ff ff       	callq  9212 <safe_mul_func_int8_t_s_s>
   131e6:	48 c7 c6 ff ff ff ff 	mov    $0xffffffffffffffff,%rsi
   131ed:	48 c7 c7 f9 ff ff ff 	mov    $0xfffffffffffffff9,%rdi
   131f4:	e8 b6 6e ff ff       	callq  a0af <safe_div_func_uint64_t_u_u>
   131f9:	89 c2                	mov    %eax,%edx
   131fb:	8b 85 38 f8 ff ff    	mov    -0x7c8(%rbp),%eax
   13201:	09 d0                	or     %edx,%eax
   13203:	89 85 38 f8 ff ff    	mov    %eax,-0x7c8(%rbp)
   13209:	83 85 28 f8 ff ff 01 	addl   $0x1,-0x7d8(%rbp)
   13210:	83 bd 28 f8 ff ff 07 	cmpl   $0x7,-0x7d8(%rbp)
   13217:	0f 86 b0 ec ff ff    	jbe    11ecd <func_71+0x76>
   1321d:	0f b6 85 2c f8 ff ff 	movzbl -0x7d4(%rbp),%eax
   13224:	83 c0 01             	add    $0x1,%eax
   13227:	88 85 2c f8 ff ff    	mov    %al,-0x7d4(%rbp)
   1322d:	80 bd 2c f8 ff ff 11 	cmpb   $0x11,-0x7d4(%rbp)
   13234:	0f 8e 7a ec ff ff    	jle    11eb4 <func_71+0x5d>
   1323a:	48 8b 05 0f 68 00 00 	mov    0x680f(%rip),%rax        # 19a50 <g_103>
   13241:	8b 00                	mov    (%rax),%eax
   13243:	48 8b 5d e8          	mov    -0x18(%rbp),%rbx
   13247:	64 48 33 1c 25 28 00 	xor    %fs:0x28,%rbx
   1324e:	00 00 
   13250:	74 05                	je     13257 <func_71+0x1400>
   13252:	e8 19 5e ff ff       	callq  9070 <__stack_chk_fail@plt>
   13257:	48 81 c4 e0 07 00 00 	add    $0x7e0,%rsp
   1325e:	5b                   	pop    %rbx
   1325f:	41 5c                	pop    %r12
   13261:	5d                   	pop    %rbp
   13262:	c3                   	retq   

0000000000013263 <func_76>:
   13263:	f3 0f 1e fa          	endbr64 
   13267:	55                   	push   %rbp
   13268:	48 89 e5             	mov    %rsp,%rbp
   1326b:	48 81 ec 00 01 00 00 	sub    $0x100,%rsp
   13272:	89 f8                	mov    %edi,%eax
   13274:	48 89 b5 00 ff ff ff 	mov    %rsi,-0x100(%rbp)
   1327b:	66 89 85 0c ff ff ff 	mov    %ax,-0xf4(%rbp)
   13282:	89 d0                	mov    %edx,%eax
   13284:	88 85 08 ff ff ff    	mov    %al,-0xf8(%rbp)
   1328a:	64 48 8b 04 25 28 00 	mov    %fs:0x28,%rax
   13291:	00 00 
   13293:	48 89 45 f8          	mov    %rax,-0x8(%rbp)
   13297:	31 c0                	xor    %eax,%eax
   13299:	48 8d 05 b8 4d 00 00 	lea    0x4db8(%rip),%rax        # 18058 <g_57+0x18>
   132a0:	48 89 85 18 ff ff ff 	mov    %rax,-0xe8(%rbp)
   132a7:	48 8d 05 9e 4d 00 00 	lea    0x4d9e(%rip),%rax        # 1804c <g_57+0xc>
   132ae:	48 89 85 20 ff ff ff 	mov    %rax,-0xe0(%rbp)
   132b5:	c7 85 30 ff ff ff f9 	movl   $0x8afaef9,-0xd0(%rbp)
   132bc:	ae af 08 
   132bf:	c7 85 34 ff ff ff fe 	movl   $0xfffffffe,-0xcc(%rbp)
   132c6:	ff ff ff 
   132c9:	c7 85 38 ff ff ff f9 	movl   $0x8afaef9,-0xc8(%rbp)
   132d0:	ae af 08 
   132d3:	c7 85 3c ff ff ff 65 	movl   $0x2deca365,-0xc4(%rbp)
   132da:	a3 ec 2d 
   132dd:	c7 85 40 ff ff ff 8c 	movl   $0x6e08938c,-0xc0(%rbp)
   132e4:	93 08 6e 
   132e7:	c7 85 44 ff ff ff 00 	movl   $0x0,-0xbc(%rbp)
   132ee:	00 00 00 
   132f1:	c7 85 48 ff ff ff 8b 	movl   $0x6f2fec8b,-0xb8(%rbp)
   132f8:	ec 2f 6f 
   132fb:	c7 85 4c ff ff ff 07 	movl   $0x7,-0xb4(%rbp)
   13302:	00 00 00 
   13305:	c7 85 50 ff ff ff 72 	movl   $0x88441872,-0xb0(%rbp)
   1330c:	18 44 88 
   1330f:	c7 85 54 ff ff ff 8c 	movl   $0x6e08938c,-0xac(%rbp)
   13316:	93 08 6e 
   13319:	c7 85 58 ff ff ff f4 	movl   $0xd35785f4,-0xa8(%rbp)
   13320:	85 57 d3 
   13323:	c7 85 5c ff ff ff 00 	movl   $0x0,-0xa4(%rbp)
   1332a:	00 00 00 
   1332d:	c7 85 60 ff ff ff 00 	movl   $0x0,-0xa0(%rbp)
   13334:	00 00 00 
   13337:	c7 85 64 ff ff ff f4 	movl   $0xd35785f4,-0x9c(%rbp)
   1333e:	85 57 d3 
   13341:	c7 85 68 ff ff ff 8c 	movl   $0x6e08938c,-0x98(%rbp)
   13348:	93 08 6e 
   1334b:	c7 85 6c ff ff ff 72 	movl   $0x88441872,-0x94(%rbp)
   13352:	18 44 88 
   13355:	c7 85 70 ff ff ff 72 	movl   $0x88441872,-0x90(%rbp)
   1335c:	18 44 88 
   1335f:	c7 85 74 ff ff ff 65 	movl   $0x2deca365,-0x8c(%rbp)
   13366:	a3 ec 2d 
   13369:	c7 85 78 ff ff ff 8d 	movl   $0x34e2d8d,-0x88(%rbp)
   13370:	2d 4e 03 
   13373:	c7 85 7c ff ff ff f9 	movl   $0x8afaef9,-0x84(%rbp)
   1337a:	ae af 08 
   1337d:	c7 45 80 8c 93 08 6e 	movl   $0x6e08938c,-0x80(%rbp)
   13384:	c7 45 84 00 00 00 00 	movl   $0x0,-0x7c(%rbp)
   1338b:	c7 45 88 f4 85 57 d3 	movl   $0xd35785f4,-0x78(%rbp)
   13392:	c7 45 8c 00 00 00 00 	movl   $0x0,-0x74(%rbp)
   13399:	c7 45 90 f9 ae af 08 	movl   $0x8afaef9,-0x70(%rbp)
   133a0:	c7 45 94 1d 57 b9 73 	movl   $0x73b9571d,-0x6c(%rbp)
   133a7:	c7 45 98 07 00 00 00 	movl   $0x7,-0x68(%rbp)
   133ae:	c7 45 9c 1d 57 b9 73 	movl   $0x73b9571d,-0x64(%rbp)
   133b5:	c7 45 a0 f9 ae af 08 	movl   $0x8afaef9,-0x60(%rbp)
   133bc:	c7 45 a4 00 00 00 00 	movl   $0x0,-0x5c(%rbp)
   133c3:	c7 45 a8 fe ff ff ff 	movl   $0xfffffffe,-0x58(%rbp)
   133ca:	c7 45 ac 8c 93 08 6e 	movl   $0x6e08938c,-0x54(%rbp)
   133d1:	c7 45 b0 8b ec 2f 6f 	movl   $0x6f2fec8b,-0x50(%rbp)
   133d8:	c7 45 b4 65 a3 ec 2d 	movl   $0x2deca365,-0x4c(%rbp)
   133df:	c7 45 b8 1d 57 b9 73 	movl   $0x73b9571d,-0x48(%rbp)
   133e6:	c7 45 bc 9e 8f 34 58 	movl   $0x58348f9e,-0x44(%rbp)
   133ed:	c7 45 c0 f4 85 57 d3 	movl   $0xd35785f4,-0x40(%rbp)
   133f4:	c7 45 c4 f4 85 57 d3 	movl   $0xd35785f4,-0x3c(%rbp)
   133fb:	c7 45 c8 9e 8f 34 58 	movl   $0x58348f9e,-0x38(%rbp)
   13402:	c7 45 cc 1d 57 b9 73 	movl   $0x73b9571d,-0x34(%rbp)
   13409:	c7 45 d0 8c 93 08 6e 	movl   $0x6e08938c,-0x30(%rbp)
   13410:	c7 45 d4 8c 93 08 6e 	movl   $0x6e08938c,-0x2c(%rbp)
   13417:	c7 45 d8 1d 57 b9 73 	movl   $0x73b9571d,-0x28(%rbp)
   1341e:	c7 45 dc 72 18 44 88 	movl   $0x88441872,-0x24(%rbp)
   13425:	c7 45 e0 8d 2d 4e 03 	movl   $0x34e2d8d,-0x20(%rbp)
   1342c:	c7 45 e4 00 00 00 00 	movl   $0x0,-0x1c(%rbp)
   13433:	c7 45 e8 fe ff ff ff 	movl   $0xfffffffe,-0x18(%rbp)
   1343a:	c7 45 ec 8b ec 2f 6f 	movl   $0x6f2fec8b,-0x14(%rbp)
   13441:	c7 85 14 ff ff ff 00 	movl   $0x0,-0xec(%rbp)
   13448:	00 00 00 
   1344b:	eb 1e                	jmp    1346b <func_76+0x208>
   1344d:	8b 85 14 ff ff ff    	mov    -0xec(%rbp),%eax
   13453:	48 98                	cltq   
   13455:	48 8d 15 fc 4b 00 00 	lea    0x4bfc(%rip),%rdx        # 18058 <g_57+0x18>
   1345c:	48 89 94 c5 28 ff ff 	mov    %rdx,-0xd8(%rbp,%rax,8)
   13463:	ff 
   13464:	83 85 14 ff ff ff 01 	addl   $0x1,-0xec(%rbp)
   1346b:	83 bd 14 ff ff ff 00 	cmpl   $0x0,-0xec(%rbp)
   13472:	7e d9                	jle    1344d <func_76+0x1ea>
   13474:	8b 45 c0             	mov    -0x40(%rbp),%eax
   13477:	83 e8 01             	sub    $0x1,%eax
   1347a:	89 45 c0             	mov    %eax,-0x40(%rbp)
   1347d:	8b 05 a1 4b 00 00    	mov    0x4ba1(%rip),%eax        # 18024 <g_2>
   13483:	48 8b 4d f8          	mov    -0x8(%rbp),%rcx
   13487:	64 48 33 0c 25 28 00 	xor    %fs:0x28,%rcx
   1348e:	00 00 
   13490:	74 05                	je     13497 <func_76+0x234>
   13492:	e8 d9 5b ff ff       	callq  9070 <__stack_chk_fail@plt>
   13497:	c9                   	leaveq 
   13498:	c3                   	retq   

0000000000013499 <main>:
   13499:	f3 0f 1e fa          	endbr64 
   1349d:	55                   	push   %rbp
   1349e:	48 89 e5             	mov    %rsp,%rbp
   134a1:	48 83 ec 20          	sub    $0x20,%rsp
   134a5:	89 7d ec             	mov    %edi,-0x14(%rbp)
   134a8:	48 89 75 e0          	mov    %rsi,-0x20(%rbp)
   134ac:	c7 45 fc 00 00 00 00 	movl   $0x0,-0x4(%rbp)
   134b3:	83 7d ec 02          	cmpl   $0x2,-0x14(%rbp)
   134b7:	75 25                	jne    134de <main+0x45>
   134b9:	48 8b 45 e0          	mov    -0x20(%rbp),%rax
   134bd:	48 83 c0 08          	add    $0x8,%rax
   134c1:	48 8b 00             	mov    (%rax),%rax
   134c4:	48 8d 35 75 1b 00 00 	lea    0x1b75(%rip),%rsi        # 15040 <g_1784+0xfd8>
   134cb:	48 89 c7             	mov    %rax,%rdi
   134ce:	e8 bd 5b ff ff       	callq  9090 <strcmp@plt>
   134d3:	85 c0                	test   %eax,%eax
   134d5:	75 07                	jne    134de <main+0x45>
   134d7:	c7 45 fc 01 00 00 00 	movl   $0x1,-0x4(%rbp)
   134de:	e8 a6 5c ff ff       	callq  9189 <platform_main_begin>
   134e3:	e8 b0 70 ff ff       	callq  a598 <crc32_gentab>
   134e8:	e8 c8 72 ff ff       	callq  a7b5 <func_1>
   134ed:	8b 05 31 4b 00 00    	mov    0x4b31(%rip),%eax        # 18024 <g_2>
   134f3:	48 98                	cltq   
   134f5:	8b 55 fc             	mov    -0x4(%rbp),%edx
   134f8:	48 8d 35 43 1b 00 00 	lea    0x1b43(%rip),%rsi        # 15042 <g_1784+0xfda>
   134ff:	48 89 c7             	mov    %rax,%rdi
   13502:	e8 ec 71 ff ff       	callq  a6f3 <transparent_crc>
   13507:	8b 05 1b 4b 00 00    	mov    0x4b1b(%rip),%eax        # 18028 <g_3>
   1350d:	48 98                	cltq   
   1350f:	8b 55 fc             	mov    -0x4(%rbp),%edx
   13512:	48 8d 35 2d 1b 00 00 	lea    0x1b2d(%rip),%rsi        # 15046 <g_1784+0xfde>
   13519:	48 89 c7             	mov    %rax,%rdi
   1351c:	e8 d2 71 ff ff       	callq  a6f3 <transparent_crc>
   13521:	8b 05 c1 82 00 00    	mov    0x82c1(%rip),%eax        # 1b7e8 <g_4>
   13527:	48 98                	cltq   
   13529:	8b 55 fc             	mov    -0x4(%rbp),%edx
   1352c:	48 8d 35 17 1b 00 00 	lea    0x1b17(%rip),%rsi        # 1504a <g_1784+0xfe2>
   13533:	48 89 c7             	mov    %rax,%rdi
   13536:	e8 b8 71 ff ff       	callq  a6f3 <transparent_crc>
   1353b:	0f b6 05 ea 4a 00 00 	movzbl 0x4aea(%rip),%eax        # 1802c <g_34>
   13542:	48 0f be c0          	movsbq %al,%rax
   13546:	8b 55 fc             	mov    -0x4(%rbp),%edx
   13549:	48 8d 35 fe 1a 00 00 	lea    0x1afe(%rip),%rsi        # 1504e <g_1784+0xfe6>
   13550:	48 89 c7             	mov    %rax,%rdi
   13553:	e8 9b 71 ff ff       	callq  a6f3 <transparent_crc>
   13558:	48 8b 05 d1 4a 00 00 	mov    0x4ad1(%rip),%rax        # 18030 <g_36>
   1355f:	8b 55 fc             	mov    -0x4(%rbp),%edx
   13562:	48 8d 35 ea 1a 00 00 	lea    0x1aea(%rip),%rsi        # 15053 <g_1784+0xfeb>
   13569:	48 89 c7             	mov    %rax,%rdi
   1356c:	e8 82 71 ff ff       	callq  a6f3 <transparent_crc>
   13571:	48 8b 05 78 82 00 00 	mov    0x8278(%rip),%rax        # 1b7f0 <g_46>
   13578:	48 89 c1             	mov    %rax,%rcx
   1357b:	8b 45 fc             	mov    -0x4(%rbp),%eax
   1357e:	89 c2                	mov    %eax,%edx
   13580:	48 8d 35 d1 1a 00 00 	lea    0x1ad1(%rip),%rsi        # 15058 <g_1784+0xff0>
   13587:	48 89 cf             	mov    %rcx,%rdi
   1358a:	e8 64 71 ff ff       	callq  a6f3 <transparent_crc>
   1358f:	8b 05 a3 4a 00 00    	mov    0x4aa3(%rip),%eax        # 18038 <g_55>
   13595:	48 98                	cltq   
   13597:	8b 55 fc             	mov    -0x4(%rbp),%edx
   1359a:	48 8d 35 bc 1a 00 00 	lea    0x1abc(%rip),%rsi        # 1505d <g_1784+0xff5>
   135a1:	48 89 c7             	mov    %rax,%rdi
   135a4:	e8 4a 71 ff ff       	callq  a6f3 <transparent_crc>
   135a9:	c7 45 f4 00 00 00 00 	movl   $0x0,-0xc(%rbp)
   135b0:	eb 4b                	jmp    135fd <main+0x164>
   135b2:	8b 45 f4             	mov    -0xc(%rbp),%eax
   135b5:	48 98                	cltq   
   135b7:	48 8d 14 85 00 00 00 	lea    0x0(,%rax,4),%rdx
   135be:	00 
   135bf:	48 8d 05 7a 4a 00 00 	lea    0x4a7a(%rip),%rax        # 18040 <g_57>
   135c6:	8b 04 02             	mov    (%rdx,%rax,1),%eax
   135c9:	48 98                	cltq   
   135cb:	8b 55 fc             	mov    -0x4(%rbp),%edx
   135ce:	48 8d 35 8d 1a 00 00 	lea    0x1a8d(%rip),%rsi        # 15062 <g_1784+0xffa>
   135d5:	48 89 c7             	mov    %rax,%rdi
   135d8:	e8 16 71 ff ff       	callq  a6f3 <transparent_crc>
   135dd:	83 7d fc 00          	cmpl   $0x0,-0x4(%rbp)
   135e1:	74 16                	je     135f9 <main+0x160>
   135e3:	8b 45 f4             	mov    -0xc(%rbp),%eax
   135e6:	89 c6                	mov    %eax,%esi
   135e8:	48 8d 3d 7b 1a 00 00 	lea    0x1a7b(%rip),%rdi        # 1506a <g_1784+0x1002>
   135ef:	b8 00 00 00 00       	mov    $0x0,%eax
   135f4:	e8 87 5a ff ff       	callq  9080 <printf@plt>
   135f9:	83 45 f4 01          	addl   $0x1,-0xc(%rbp)
   135fd:	83 7d f4 07          	cmpl   $0x7,-0xc(%rbp)
   13601:	7e af                	jle    135b2 <main+0x119>
   13603:	48 8b 05 56 4a 00 00 	mov    0x4a56(%rip),%rax        # 18060 <g_83>
   1360a:	8b 55 fc             	mov    -0x4(%rbp),%edx
   1360d:	48 8d 35 64 1a 00 00 	lea    0x1a64(%rip),%rsi        # 15078 <g_1784+0x1010>
   13614:	48 89 c7             	mov    %rax,%rdi
   13617:	e8 d7 70 ff ff       	callq  a6f3 <transparent_crc>
   1361c:	c7 45 f4 00 00 00 00 	movl   $0x0,-0xc(%rbp)
   13623:	eb 7b                	jmp    136a0 <main+0x207>
   13625:	8b 45 f4             	mov    -0xc(%rbp),%eax
   13628:	48 98                	cltq   
   1362a:	48 8d 14 85 00 00 00 	lea    0x0(,%rax,4),%rdx
   13631:	00 
   13632:	48 8d 05 37 4a 00 00 	lea    0x4a37(%rip),%rax        # 18070 <g_104>
   13639:	8b 04 02             	mov    (%rdx,%rax,1),%eax
   1363c:	89 c1                	mov    %eax,%ecx
   1363e:	8b 45 fc             	mov    -0x4(%rbp),%eax
   13641:	89 c2                	mov    %eax,%edx
   13643:	48 8d 35 33 1a 00 00 	lea    0x1a33(%rip),%rsi        # 1507d <g_1784+0x1015>
   1364a:	48 89 cf             	mov    %rcx,%rdi
   1364d:	e8 a1 70 ff ff       	callq  a6f3 <transparent_crc>
   13652:	8b 45 f4             	mov    -0xc(%rbp),%eax
   13655:	48 98                	cltq   
   13657:	48 8d 14 85 00 00 00 	lea    0x0(,%rax,4),%rdx
   1365e:	00 
   1365f:	48 8d 05 0a 4a 00 00 	lea    0x4a0a(%rip),%rax        # 18070 <g_104>
   13666:	0f b6 04 02          	movzbl (%rdx,%rax,1),%eax
   1366a:	48 0f be c0          	movsbq %al,%rax
   1366e:	8b 55 fc             	mov    -0x4(%rbp),%edx
   13671:	48 8d 35 11 1a 00 00 	lea    0x1a11(%rip),%rsi        # 15089 <g_1784+0x1021>
   13678:	48 89 c7             	mov    %rax,%rdi
   1367b:	e8 73 70 ff ff       	callq  a6f3 <transparent_crc>
   13680:	83 7d fc 00          	cmpl   $0x0,-0x4(%rbp)
   13684:	74 16                	je     1369c <main+0x203>
   13686:	8b 45 f4             	mov    -0xc(%rbp),%eax
   13689:	89 c6                	mov    %eax,%esi
   1368b:	48 8d 3d d8 19 00 00 	lea    0x19d8(%rip),%rdi        # 1506a <g_1784+0x1002>
   13692:	b8 00 00 00 00       	mov    $0x0,%eax
   13697:	e8 e4 59 ff ff       	callq  9080 <printf@plt>
   1369c:	83 45 f4 01          	addl   $0x1,-0xc(%rbp)
   136a0:	83 7d f4 03          	cmpl   $0x3,-0xc(%rbp)
   136a4:	0f 8e 7b ff ff ff    	jle    13625 <main+0x18c>
   136aa:	0f b6 05 cf 49 00 00 	movzbl 0x49cf(%rip),%eax        # 18080 <g_119>
   136b1:	48 0f be c0          	movsbq %al,%rax
   136b5:	8b 55 fc             	mov    -0x4(%rbp),%edx
   136b8:	48 8d 35 d6 19 00 00 	lea    0x19d6(%rip),%rsi        # 15095 <g_1784+0x102d>
   136bf:	48 89 c7             	mov    %rax,%rdi
   136c2:	e8 2c 70 ff ff       	callq  a6f3 <transparent_crc>
   136c7:	c7 45 f4 00 00 00 00 	movl   $0x0,-0xc(%rbp)
   136ce:	eb 49                	jmp    13719 <main+0x280>
   136d0:	8b 45 f4             	mov    -0xc(%rbp),%eax
   136d3:	48 98                	cltq   
   136d5:	48 8d 14 00          	lea    (%rax,%rax,1),%rdx
   136d9:	48 8d 05 a2 49 00 00 	lea    0x49a2(%rip),%rax        # 18082 <g_130>
   136e0:	0f b7 04 02          	movzwl (%rdx,%rax,1),%eax
   136e4:	0f b7 c0             	movzwl %ax,%eax
   136e7:	8b 55 fc             	mov    -0x4(%rbp),%edx
   136ea:	48 8d 35 aa 19 00 00 	lea    0x19aa(%rip),%rsi        # 1509b <g_1784+0x1033>
   136f1:	48 89 c7             	mov    %rax,%rdi
   136f4:	e8 fa 6f ff ff       	callq  a6f3 <transparent_crc>
   136f9:	83 7d fc 00          	cmpl   $0x0,-0x4(%rbp)
   136fd:	74 16                	je     13715 <main+0x27c>
   136ff:	8b 45 f4             	mov    -0xc(%rbp),%eax
   13702:	89 c6                	mov    %eax,%esi
   13704:	48 8d 3d 5f 19 00 00 	lea    0x195f(%rip),%rdi        # 1506a <g_1784+0x1002>
   1370b:	b8 00 00 00 00       	mov    $0x0,%eax
   13710:	e8 6b 59 ff ff       	callq  9080 <printf@plt>
   13715:	83 45 f4 01          	addl   $0x1,-0xc(%rbp)
   13719:	83 7d f4 02          	cmpl   $0x2,-0xc(%rbp)
   1371d:	7e b1                	jle    136d0 <main+0x237>
   1371f:	48 8b 05 da 80 00 00 	mov    0x80da(%rip),%rax        # 1b800 <g_137>
   13726:	48 89 c1             	mov    %rax,%rcx
   13729:	8b 45 fc             	mov    -0x4(%rbp),%eax
   1372c:	89 c2                	mov    %eax,%edx
   1372e:	48 8d 35 6f 19 00 00 	lea    0x196f(%rip),%rsi        # 150a4 <g_1784+0x103c>
   13735:	48 89 cf             	mov    %rcx,%rdi
   13738:	e8 b6 6f ff ff       	callq  a6f3 <transparent_crc>
   1373d:	8b 05 45 49 00 00    	mov    0x4945(%rip),%eax        # 18088 <g_141>
   13743:	48 98                	cltq   
   13745:	8b 55 fc             	mov    -0x4(%rbp),%edx
   13748:	48 8d 35 5b 19 00 00 	lea    0x195b(%rip),%rsi        # 150aa <g_1784+0x1042>
   1374f:	48 89 c7             	mov    %rax,%rdi
   13752:	e8 9c 6f ff ff       	callq  a6f3 <transparent_crc>
   13757:	0f b7 05 2e 49 00 00 	movzwl 0x492e(%rip),%eax        # 1808c <g_176>
   1375e:	0f b7 c0             	movzwl %ax,%eax
   13761:	8b 55 fc             	mov    -0x4(%rbp),%edx
   13764:	48 8d 35 45 19 00 00 	lea    0x1945(%rip),%rsi        # 150b0 <g_1784+0x1048>
   1376b:	48 89 c7             	mov    %rax,%rdi
   1376e:	e8 80 6f ff ff       	callq  a6f3 <transparent_crc>
   13773:	0f b6 05 14 49 00 00 	movzbl 0x4914(%rip),%eax        # 1808e <g_179>
   1377a:	48 0f be c0          	movsbq %al,%rax
   1377e:	8b 55 fc             	mov    -0x4(%rbp),%edx
   13781:	48 8d 35 2e 19 00 00 	lea    0x192e(%rip),%rsi        # 150b6 <g_1784+0x104e>
   13788:	48 89 c7             	mov    %rax,%rdi
   1378b:	e8 63 6f ff ff       	callq  a6f3 <transparent_crc>
   13790:	0f b7 05 f9 48 00 00 	movzwl 0x48f9(%rip),%eax        # 18090 <g_191>
   13797:	48 0f bf c0          	movswq %ax,%rax
   1379b:	8b 55 fc             	mov    -0x4(%rbp),%edx
   1379e:	48 8d 35 17 19 00 00 	lea    0x1917(%rip),%rsi        # 150bc <g_1784+0x1054>
   137a5:	48 89 c7             	mov    %rax,%rdi
   137a8:	e8 46 6f ff ff       	callq  a6f3 <transparent_crc>
   137ad:	0f b6 05 de 48 00 00 	movzbl 0x48de(%rip),%eax        # 18092 <g_192>
   137b4:	48 0f be c0          	movsbq %al,%rax
   137b8:	8b 55 fc             	mov    -0x4(%rbp),%edx
   137bb:	48 8d 35 00 19 00 00 	lea    0x1900(%rip),%rsi        # 150c2 <g_1784+0x105a>
   137c2:	48 89 c7             	mov    %rax,%rdi
   137c5:	e8 29 6f ff ff       	callq  a6f3 <transparent_crc>
   137ca:	0f b7 05 c3 48 00 00 	movzwl 0x48c3(%rip),%eax        # 18094 <g_201>
   137d1:	48 0f bf c0          	movswq %ax,%rax
   137d5:	8b 55 fc             	mov    -0x4(%rbp),%edx
   137d8:	48 8d 35 e9 18 00 00 	lea    0x18e9(%rip),%rsi        # 150c8 <g_1784+0x1060>
   137df:	48 89 c7             	mov    %rax,%rdi
   137e2:	e8 0c 6f ff ff       	callq  a6f3 <transparent_crc>
   137e7:	48 b9 9b 88 cc 81 72 	movabs $0x32d8287281cc889b,%rcx
   137ee:	28 d8 32 
   137f1:	8b 45 fc             	mov    -0x4(%rbp),%eax
   137f4:	89 c2                	mov    %eax,%edx
   137f6:	48 8d 35 d1 18 00 00 	lea    0x18d1(%rip),%rsi        # 150ce <g_1784+0x1066>
   137fd:	48 89 cf             	mov    %rcx,%rdi
   13800:	e8 ee 6e ff ff       	callq  a6f3 <transparent_crc>
   13805:	0f b6 05 8a 48 00 00 	movzbl 0x488a(%rip),%eax        # 18096 <g_251>
   1380c:	0f b6 c0             	movzbl %al,%eax
   1380f:	8b 55 fc             	mov    -0x4(%rbp),%edx
   13812:	48 8d 35 bb 18 00 00 	lea    0x18bb(%rip),%rsi        # 150d4 <g_1784+0x106c>
   13819:	48 89 c7             	mov    %rax,%rdi
   1381c:	e8 d2 6e ff ff       	callq  a6f3 <transparent_crc>
   13821:	8b 05 71 48 00 00    	mov    0x4871(%rip),%eax        # 18098 <g_314>
   13827:	48 98                	cltq   
   13829:	8b 55 fc             	mov    -0x4(%rbp),%edx
   1382c:	48 8d 35 a7 18 00 00 	lea    0x18a7(%rip),%rsi        # 150da <g_1784+0x1072>
   13833:	48 89 c7             	mov    %rax,%rdi
   13836:	e8 b8 6e ff ff       	callq  a6f3 <transparent_crc>
   1383b:	8b 05 5b 48 00 00    	mov    0x485b(%rip),%eax        # 1809c <g_318>
   13841:	89 c1                	mov    %eax,%ecx
   13843:	8b 45 fc             	mov    -0x4(%rbp),%eax
   13846:	89 c2                	mov    %eax,%edx
   13848:	48 8d 35 91 18 00 00 	lea    0x1891(%rip),%rsi        # 150e0 <g_1784+0x1078>
   1384f:	48 89 cf             	mov    %rcx,%rdi
   13852:	e8 9c 6e ff ff       	callq  a6f3 <transparent_crc>
   13857:	0f b6 05 3e 48 00 00 	movzbl 0x483e(%rip),%eax        # 1809c <g_318>
   1385e:	48 0f be c0          	movsbq %al,%rax
   13862:	8b 55 fc             	mov    -0x4(%rbp),%edx
   13865:	48 8d 35 7d 18 00 00 	lea    0x187d(%rip),%rsi        # 150e9 <g_1784+0x1081>
   1386c:	48 89 c7             	mov    %rax,%rdi
   1386f:	e8 7f 6e ff ff       	callq  a6f3 <transparent_crc>
   13874:	b8 2b 0b a6 28       	mov    $0x28a60b2b,%eax
   13879:	48 98                	cltq   
   1387b:	8b 55 fc             	mov    -0x4(%rbp),%edx
   1387e:	48 8d 35 6d 18 00 00 	lea    0x186d(%rip),%rsi        # 150f2 <g_1784+0x108a>
   13885:	48 89 c7             	mov    %rax,%rdi
   13888:	e8 66 6e ff ff       	callq  a6f3 <transparent_crc>
   1388d:	8b 05 0d 48 00 00    	mov    0x480d(%rip),%eax        # 180a0 <g_445>
   13893:	89 c1                	mov    %eax,%ecx
   13895:	8b 45 fc             	mov    -0x4(%rbp),%eax
   13898:	89 c2                	mov    %eax,%edx
   1389a:	48 8d 35 57 18 00 00 	lea    0x1857(%rip),%rsi        # 150f8 <g_1784+0x1090>
   138a1:	48 89 cf             	mov    %rcx,%rdi
   138a4:	e8 4a 6e ff ff       	callq  a6f3 <transparent_crc>
   138a9:	8b 05 f5 47 00 00    	mov    0x47f5(%rip),%eax        # 180a4 <g_460>
   138af:	89 c1                	mov    %eax,%ecx
   138b1:	8b 45 fc             	mov    -0x4(%rbp),%eax
   138b4:	89 c2                	mov    %eax,%edx
   138b6:	48 8d 35 41 18 00 00 	lea    0x1841(%rip),%rsi        # 150fe <g_1784+0x1096>
   138bd:	48 89 cf             	mov    %rcx,%rdi
   138c0:	e8 2e 6e ff ff       	callq  a6f3 <transparent_crc>
   138c5:	48 8b 05 dc 47 00 00 	mov    0x47dc(%rip),%rax        # 180a8 <g_484>
   138cc:	8b 55 fc             	mov    -0x4(%rbp),%edx
   138cf:	48 8d 35 2e 18 00 00 	lea    0x182e(%rip),%rsi        # 15104 <g_1784+0x109c>
   138d6:	48 89 c7             	mov    %rax,%rdi
   138d9:	e8 15 6e ff ff       	callq  a6f3 <transparent_crc>
   138de:	48 8b 05 cb 47 00 00 	mov    0x47cb(%rip),%rax        # 180b0 <g_527>
   138e5:	8b 55 fc             	mov    -0x4(%rbp),%edx
   138e8:	48 8d 35 1b 18 00 00 	lea    0x181b(%rip),%rsi        # 1510a <g_1784+0x10a2>
   138ef:	48 89 c7             	mov    %rax,%rdi
   138f2:	e8 fc 6d ff ff       	callq  a6f3 <transparent_crc>
   138f7:	b8 6f ef 84 c3       	mov    $0xc384ef6f,%eax
   138fc:	48 98                	cltq   
   138fe:	8b 55 fc             	mov    -0x4(%rbp),%edx
   13901:	48 8d 35 08 18 00 00 	lea    0x1808(%rip),%rsi        # 15110 <g_1784+0x10a8>
   13908:	48 89 c7             	mov    %rax,%rdi
   1390b:	e8 e3 6d ff ff       	callq  a6f3 <transparent_crc>
   13910:	c7 45 f4 00 00 00 00 	movl   $0x0,-0xc(%rbp)
   13917:	eb 6b                	jmp    13984 <main+0x4eb>
   13919:	c7 45 f8 00 00 00 00 	movl   $0x0,-0x8(%rbp)
   13920:	eb 58                	jmp    1397a <main+0x4e1>
   13922:	8b 45 f8             	mov    -0x8(%rbp),%eax
   13925:	48 98                	cltq   
   13927:	8b 55 f4             	mov    -0xc(%rbp),%edx
   1392a:	48 63 d2             	movslq %edx,%rdx
   1392d:	48 c1 e2 02          	shl    $0x2,%rdx
   13931:	48 01 c2             	add    %rax,%rdx
   13934:	48 8d 05 7d 47 00 00 	lea    0x477d(%rip),%rax        # 180b8 <g_607>
   1393b:	48 01 d0             	add    %rdx,%rax
   1393e:	0f b6 00             	movzbl (%rax),%eax
   13941:	48 0f be c0          	movsbq %al,%rax
   13945:	8b 55 fc             	mov    -0x4(%rbp),%edx
   13948:	48 8d 35 c7 17 00 00 	lea    0x17c7(%rip),%rsi        # 15116 <g_1784+0x10ae>
   1394f:	48 89 c7             	mov    %rax,%rdi
   13952:	e8 9c 6d ff ff       	callq  a6f3 <transparent_crc>
   13957:	83 7d fc 00          	cmpl   $0x0,-0x4(%rbp)
   1395b:	74 19                	je     13976 <main+0x4dd>
   1395d:	8b 55 f8             	mov    -0x8(%rbp),%edx
   13960:	8b 45 f4             	mov    -0xc(%rbp),%eax
   13963:	89 c6                	mov    %eax,%esi
   13965:	48 8d 3d b6 17 00 00 	lea    0x17b6(%rip),%rdi        # 15122 <g_1784+0x10ba>
   1396c:	b8 00 00 00 00       	mov    $0x0,%eax
   13971:	e8 0a 57 ff ff       	callq  9080 <printf@plt>
   13976:	83 45 f8 01          	addl   $0x1,-0x8(%rbp)
   1397a:	83 7d f8 03          	cmpl   $0x3,-0x8(%rbp)
   1397e:	7e a2                	jle    13922 <main+0x489>
   13980:	83 45 f4 01          	addl   $0x1,-0xc(%rbp)
   13984:	83 7d f4 00          	cmpl   $0x0,-0xc(%rbp)
   13988:	7e 8f                	jle    13919 <main+0x480>
   1398a:	48 8b 05 2f 47 00 00 	mov    0x472f(%rip),%rax        # 180c0 <g_788>
   13991:	8b 55 fc             	mov    -0x4(%rbp),%edx
   13994:	48 8d 35 99 17 00 00 	lea    0x1799(%rip),%rsi        # 15134 <g_1784+0x10cc>
   1399b:	48 89 c7             	mov    %rax,%rdi
   1399e:	e8 50 6d ff ff       	callq  a6f3 <transparent_crc>
   139a3:	0f b6 05 1e 47 00 00 	movzbl 0x471e(%rip),%eax        # 180c8 <g_912>
   139aa:	0f b6 c0             	movzbl %al,%eax
   139ad:	8b 55 fc             	mov    -0x4(%rbp),%edx
   139b0:	48 8d 35 83 17 00 00 	lea    0x1783(%rip),%rsi        # 1513a <g_1784+0x10d2>
   139b7:	48 89 c7             	mov    %rax,%rdi
   139ba:	e8 34 6d ff ff       	callq  a6f3 <transparent_crc>
   139bf:	0f b7 05 04 47 00 00 	movzwl 0x4704(%rip),%eax        # 180ca <g_1002>
   139c6:	48 0f bf c0          	movswq %ax,%rax
   139ca:	8b 55 fc             	mov    -0x4(%rbp),%edx
   139cd:	48 8d 35 6c 17 00 00 	lea    0x176c(%rip),%rsi        # 15140 <g_1784+0x10d8>
   139d4:	48 89 c7             	mov    %rax,%rdi
   139d7:	e8 17 6d ff ff       	callq  a6f3 <transparent_crc>
   139dc:	8b 05 ea 46 00 00    	mov    0x46ea(%rip),%eax        # 180cc <g_1207>
   139e2:	48 98                	cltq   
   139e4:	8b 55 fc             	mov    -0x4(%rbp),%edx
   139e7:	48 8d 35 59 17 00 00 	lea    0x1759(%rip),%rsi        # 15147 <g_1784+0x10df>
   139ee:	48 89 c7             	mov    %rax,%rdi
   139f1:	e8 fd 6c ff ff       	callq  a6f3 <transparent_crc>
   139f6:	8b 05 d4 46 00 00    	mov    0x46d4(%rip),%eax        # 180d0 <g_1210>
   139fc:	48 98                	cltq   
   139fe:	8b 55 fc             	mov    -0x4(%rbp),%edx
   13a01:	48 8d 35 46 17 00 00 	lea    0x1746(%rip),%rsi        # 1514e <g_1784+0x10e6>
   13a08:	48 89 c7             	mov    %rax,%rdi
   13a0b:	e8 e3 6c ff ff       	callq  a6f3 <transparent_crc>
   13a10:	0f b6 05 bd 46 00 00 	movzbl 0x46bd(%rip),%eax        # 180d4 <g_1220>
   13a17:	48 0f be c0          	movsbq %al,%rax
   13a1b:	8b 55 fc             	mov    -0x4(%rbp),%edx
   13a1e:	48 8d 35 30 17 00 00 	lea    0x1730(%rip),%rsi        # 15155 <g_1784+0x10ed>
   13a25:	48 89 c7             	mov    %rax,%rdi
   13a28:	e8 c6 6c ff ff       	callq  a6f3 <transparent_crc>
   13a2d:	c7 45 f4 00 00 00 00 	movl   $0x0,-0xc(%rbp)
   13a34:	eb 79                	jmp    13aaf <main+0x616>
   13a36:	c7 45 f8 00 00 00 00 	movl   $0x0,-0x8(%rbp)
   13a3d:	eb 66                	jmp    13aa5 <main+0x60c>
   13a3f:	8b 45 f8             	mov    -0x8(%rbp),%eax
   13a42:	48 63 c8             	movslq %eax,%rcx
   13a45:	8b 45 f4             	mov    -0xc(%rbp),%eax
   13a48:	48 63 d0             	movslq %eax,%rdx
   13a4b:	48 89 d0             	mov    %rdx,%rax
   13a4e:	48 c1 e0 03          	shl    $0x3,%rax
   13a52:	48 29 d0             	sub    %rdx,%rax
   13a55:	48 01 c8             	add    %rcx,%rax
   13a58:	48 8d 14 c5 00 00 00 	lea    0x0(,%rax,8),%rdx
   13a5f:	00 
   13a60:	48 8d 05 79 46 00 00 	lea    0x4679(%rip),%rax        # 180e0 <g_1464>
   13a67:	48 8b 04 02          	mov    (%rdx,%rax,1),%rax
   13a6b:	48 89 c1             	mov    %rax,%rcx
   13a6e:	8b 45 fc             	mov    -0x4(%rbp),%eax
   13a71:	89 c2                	mov    %eax,%edx
   13a73:	48 8d 35 e2 16 00 00 	lea    0x16e2(%rip),%rsi        # 1515c <g_1784+0x10f4>
   13a7a:	48 89 cf             	mov    %rcx,%rdi
   13a7d:	e8 71 6c ff ff       	callq  a6f3 <transparent_crc>
   13a82:	83 7d fc 00          	cmpl   $0x0,-0x4(%rbp)
   13a86:	74 19                	je     13aa1 <main+0x608>
   13a88:	8b 55 f8             	mov    -0x8(%rbp),%edx
   13a8b:	8b 45 f4             	mov    -0xc(%rbp),%eax
   13a8e:	89 c6                	mov    %eax,%esi
   13a90:	48 8d 3d 8b 16 00 00 	lea    0x168b(%rip),%rdi        # 15122 <g_1784+0x10ba>
   13a97:	b8 00 00 00 00       	mov    $0x0,%eax
   13a9c:	e8 df 55 ff ff       	callq  9080 <printf@plt>
   13aa1:	83 45 f8 01          	addl   $0x1,-0x8(%rbp)
   13aa5:	83 7d f8 06          	cmpl   $0x6,-0x8(%rbp)
   13aa9:	7e 94                	jle    13a3f <main+0x5a6>
   13aab:	83 45 f4 01          	addl   $0x1,-0xc(%rbp)
   13aaf:	83 7d f4 07          	cmpl   $0x7,-0xc(%rbp)
   13ab3:	7e 81                	jle    13a36 <main+0x59d>
   13ab5:	0f b6 05 dc 7d 00 00 	movzbl 0x7ddc(%rip),%eax        # 1b898 <g_1484>
   13abc:	0f b6 c0             	movzbl %al,%eax
   13abf:	8b 55 fc             	mov    -0x4(%rbp),%edx
   13ac2:	48 8d 35 a0 16 00 00 	lea    0x16a0(%rip),%rsi        # 15169 <g_1784+0x1101>
   13ac9:	48 89 c7             	mov    %rax,%rdi
   13acc:	e8 22 6c ff ff       	callq  a6f3 <transparent_crc>
   13ad1:	c7 45 f4 00 00 00 00 	movl   $0x0,-0xc(%rbp)
   13ad8:	eb 77                	jmp    13b51 <main+0x6b8>
   13ada:	c7 45 f8 00 00 00 00 	movl   $0x0,-0x8(%rbp)
   13ae1:	eb 64                	jmp    13b47 <main+0x6ae>
   13ae3:	8b 45 f8             	mov    -0x8(%rbp),%eax
   13ae6:	48 63 c8             	movslq %eax,%rcx
   13ae9:	8b 45 f4             	mov    -0xc(%rbp),%eax
   13aec:	48 63 d0             	movslq %eax,%rdx
   13aef:	48 89 d0             	mov    %rdx,%rax
   13af2:	48 c1 e0 02          	shl    $0x2,%rax
   13af6:	48 01 d0             	add    %rdx,%rax
   13af9:	48 01 c0             	add    %rax,%rax
   13afc:	48 01 c8             	add    %rcx,%rax
   13aff:	48 8d 14 00          	lea    (%rax,%rax,1),%rdx
   13b03:	48 8d 05 96 47 00 00 	lea    0x4796(%rip),%rax        # 182a0 <g_1566>
   13b0a:	0f b7 04 02          	movzwl (%rdx,%rax,1),%eax
   13b0e:	48 0f bf c0          	movswq %ax,%rax
   13b12:	8b 55 fc             	mov    -0x4(%rbp),%edx
   13b15:	48 8d 35 54 16 00 00 	lea    0x1654(%rip),%rsi        # 15170 <g_1784+0x1108>
   13b1c:	48 89 c7             	mov    %rax,%rdi
   13b1f:	e8 cf 6b ff ff       	callq  a6f3 <transparent_crc>
   13b24:	83 7d fc 00          	cmpl   $0x0,-0x4(%rbp)
   13b28:	74 19                	je     13b43 <main+0x6aa>
   13b2a:	8b 55 f8             	mov    -0x8(%rbp),%edx
   13b2d:	8b 45 f4             	mov    -0xc(%rbp),%eax
   13b30:	89 c6                	mov    %eax,%esi
   13b32:	48 8d 3d e9 15 00 00 	lea    0x15e9(%rip),%rdi        # 15122 <g_1784+0x10ba>
   13b39:	b8 00 00 00 00       	mov    $0x0,%eax
   13b3e:	e8 3d 55 ff ff       	callq  9080 <printf@plt>
   13b43:	83 45 f8 01          	addl   $0x1,-0x8(%rbp)
   13b47:	83 7d f8 09          	cmpl   $0x9,-0x8(%rbp)
   13b4b:	7e 96                	jle    13ae3 <main+0x64a>
   13b4d:	83 45 f4 01          	addl   $0x1,-0xc(%rbp)
   13b51:	83 7d f4 01          	cmpl   $0x1,-0xc(%rbp)
   13b55:	7e 83                	jle    13ada <main+0x641>
   13b57:	b8 00 00 00 00       	mov    $0x0,%eax
   13b5c:	89 c1                	mov    %eax,%ecx
   13b5e:	8b 45 fc             	mov    -0x4(%rbp),%eax
   13b61:	89 c2                	mov    %eax,%edx
   13b63:	48 8d 35 13 16 00 00 	lea    0x1613(%rip),%rsi        # 1517d <g_1784+0x1115>
   13b6a:	48 89 cf             	mov    %rcx,%rdi
   13b6d:	e8 81 6b ff ff       	callq  a6f3 <transparent_crc>
   13b72:	0f b7 05 4f 47 00 00 	movzwl 0x474f(%rip),%eax        # 182c8 <g_1874>
   13b79:	48 0f bf c0          	movswq %ax,%rax
   13b7d:	8b 55 fc             	mov    -0x4(%rbp),%edx
   13b80:	48 8d 35 fd 15 00 00 	lea    0x15fd(%rip),%rsi        # 15184 <g_1784+0x111c>
   13b87:	48 89 c7             	mov    %rax,%rdi
   13b8a:	e8 64 6b ff ff       	callq  a6f3 <transparent_crc>
   13b8f:	0f b7 05 34 47 00 00 	movzwl 0x4734(%rip),%eax        # 182ca <g_1908>
   13b96:	48 0f bf c0          	movswq %ax,%rax
   13b9a:	8b 55 fc             	mov    -0x4(%rbp),%edx
   13b9d:	48 8d 35 e7 15 00 00 	lea    0x15e7(%rip),%rsi        # 1518b <g_1784+0x1123>
   13ba4:	48 89 c7             	mov    %rax,%rdi
   13ba7:	e8 47 6b ff ff       	callq  a6f3 <transparent_crc>
   13bac:	48 8b 05 1d 47 00 00 	mov    0x471d(%rip),%rax        # 182d0 <g_1941>
   13bb3:	48 89 c1             	mov    %rax,%rcx
   13bb6:	8b 45 fc             	mov    -0x4(%rbp),%eax
   13bb9:	89 c2                	mov    %eax,%edx
   13bbb:	48 8d 35 d0 15 00 00 	lea    0x15d0(%rip),%rsi        # 15192 <g_1784+0x112a>
   13bc2:	48 89 cf             	mov    %rcx,%rdi
   13bc5:	e8 29 6b ff ff       	callq  a6f3 <transparent_crc>
   13bca:	8b 05 50 44 00 00    	mov    0x4450(%rip),%eax        # 18020 <crc32_context>
   13bd0:	f7 d0                	not    %eax
   13bd2:	89 c2                	mov    %eax,%edx
   13bd4:	8b 45 fc             	mov    -0x4(%rbp),%eax
   13bd7:	89 c6                	mov    %eax,%esi
   13bd9:	89 d7                	mov    %edx,%edi
   13bdb:	e8 b4 55 ff ff       	callq  9194 <platform_main_end>
   13be0:	b8 00 00 00 00       	mov    $0x0,%eax
   13be5:	c9                   	leaveq 
   13be6:	c3                   	retq   
   13be7:	66 0f 1f 84 00 00 00 	nopw   0x0(%rax,%rax,1)
   13bee:	00 00 

0000000000013bf0 <__libc_csu_init>:
   13bf0:	f3 0f 1e fa          	endbr64 
   13bf4:	41 57                	push   %r15
   13bf6:	4c 8d 3d a3 41 00 00 	lea    0x41a3(%rip),%r15        # 17da0 <__frame_dummy_init_array_entry>
   13bfd:	41 56                	push   %r14
   13bff:	49 89 d6             	mov    %rdx,%r14
   13c02:	41 55                	push   %r13
   13c04:	49 89 f5             	mov    %rsi,%r13
   13c07:	41 54                	push   %r12
   13c09:	41 89 fc             	mov    %edi,%r12d
   13c0c:	55                   	push   %rbp
   13c0d:	48 8d 2d 94 41 00 00 	lea    0x4194(%rip),%rbp        # 17da8 <__do_global_dtors_aux_fini_array_entry>
   13c14:	53                   	push   %rbx
   13c15:	4c 29 fd             	sub    %r15,%rbp
   13c18:	48 83 ec 08          	sub    $0x8,%rsp
   13c1c:	e8 df 53 ff ff       	callq  9000 <_init>
   13c21:	48 c1 fd 03          	sar    $0x3,%rbp
   13c25:	74 1f                	je     13c46 <__libc_csu_init+0x56>
   13c27:	31 db                	xor    %ebx,%ebx
   13c29:	0f 1f 80 00 00 00 00 	nopl   0x0(%rax)
   13c30:	4c 89 f2             	mov    %r14,%rdx
   13c33:	4c 89 ee             	mov    %r13,%rsi
   13c36:	44 89 e7             	mov    %r12d,%edi
   13c39:	41 ff 14 df          	callq  *(%r15,%rbx,8)
   13c3d:	48 83 c3 01          	add    $0x1,%rbx
   13c41:	48 39 dd             	cmp    %rbx,%rbp
   13c44:	75 ea                	jne    13c30 <__libc_csu_init+0x40>
   13c46:	48 83 c4 08          	add    $0x8,%rsp
   13c4a:	5b                   	pop    %rbx
   13c4b:	5d                   	pop    %rbp
   13c4c:	41 5c                	pop    %r12
   13c4e:	41 5d                	pop    %r13
   13c50:	41 5e                	pop    %r14
   13c52:	41 5f                	pop    %r15
   13c54:	c3                   	retq   
   13c55:	66 66 2e 0f 1f 84 00 	data16 nopw %cs:0x0(%rax,%rax,1)
   13c5c:	00 00 00 00 

0000000000013c60 <__libc_csu_fini>:
   13c60:	f3 0f 1e fa          	endbr64 
   13c64:	c3                   	retq   
