


Disassembly of section .text:

00000000000090a0 <_start>:
    90a0:	f3 0f 1e fa          	endbr64 
    90a4:	31 ed                	xor    %ebp,%ebp
    90a6:	49 89 d1             	mov    %rdx,%r9
    90a9:	5e                   	pop    %rsi
    90aa:	48 89 e2             	mov    %rsp,%rdx
    90ad:	48 83 e4 f0          	and    $0xfffffffffffffff0,%rsp
    90b1:	50                   	push   %rax
    90b2:	54                   	push   %rsp
    90b3:	4c 8d 05 26 b2 00 00 	lea    0xb226(%rip),%r8        # 142e0 <__libc_csu_fini>
    90ba:	48 8d 0d af b1 00 00 	lea    0xb1af(%rip),%rcx        # 14270 <__libc_csu_init>
    90c1:	48 8d 3d a5 9b 00 00 	lea    0x9ba5(%rip),%rdi        # 12c6d <main>
    90c8:	ff 15 12 0f 01 00    	callq  *0x10f12(%rip)        # 19fe0 <__libc_start_main@GLIBC_2.2.5>
    90ce:	f4                   	hlt    
    90cf:	90                   	nop

00000000000090d0 <deregister_tm_clones>:
    90d0:	48 8d 3d f9 50 01 00 	lea    0x150f9(%rip),%rdi        # 1e1d0 <__TMC_END__>
    90d7:	48 8d 05 f2 50 01 00 	lea    0x150f2(%rip),%rax        # 1e1d0 <__TMC_END__>
    90de:	48 39 f8             	cmp    %rdi,%rax
    90e1:	74 15                	je     90f8 <deregister_tm_clones+0x28>
    90e3:	48 8b 05 ee 0e 01 00 	mov    0x10eee(%rip),%rax        # 19fd8 <_ITM_deregisterTMCloneTable>
    90ea:	48 85 c0             	test   %rax,%rax
    90ed:	74 09                	je     90f8 <deregister_tm_clones+0x28>
    90ef:	ff e0                	jmpq   *%rax
    90f1:	0f 1f 80 00 00 00 00 	nopl   0x0(%rax)
    90f8:	c3                   	retq   
    90f9:	0f 1f 80 00 00 00 00 	nopl   0x0(%rax)

0000000000009100 <register_tm_clones>:
    9100:	48 8d 3d c9 50 01 00 	lea    0x150c9(%rip),%rdi        # 1e1d0 <__TMC_END__>
    9107:	48 8d 35 c2 50 01 00 	lea    0x150c2(%rip),%rsi        # 1e1d0 <__TMC_END__>
    910e:	48 29 fe             	sub    %rdi,%rsi
    9111:	48 89 f0             	mov    %rsi,%rax
    9114:	48 c1 ee 3f          	shr    $0x3f,%rsi
    9118:	48 c1 f8 03          	sar    $0x3,%rax
    911c:	48 01 c6             	add    %rax,%rsi
    911f:	48 d1 fe             	sar    %rsi
    9122:	74 14                	je     9138 <register_tm_clones+0x38>
    9124:	48 8b 05 c5 0e 01 00 	mov    0x10ec5(%rip),%rax        # 19ff0 <_ITM_registerTMCloneTable>
    912b:	48 85 c0             	test   %rax,%rax
    912e:	74 08                	je     9138 <register_tm_clones+0x38>
    9130:	ff e0                	jmpq   *%rax
    9132:	66 0f 1f 44 00 00    	nopw   0x0(%rax,%rax,1)
    9138:	c3                   	retq   
    9139:	0f 1f 80 00 00 00 00 	nopl   0x0(%rax)

0000000000009140 <__do_global_dtors_aux>:
    9140:	f3 0f 1e fa          	endbr64 
    9144:	80 3d 95 50 01 00 00 	cmpb   $0x0,0x15095(%rip)        # 1e1e0 <completed.8061>
    914b:	75 2b                	jne    9178 <__do_global_dtors_aux+0x38>
    914d:	55                   	push   %rbp
    914e:	48 83 3d a2 0e 01 00 	cmpq   $0x0,0x10ea2(%rip)        # 19ff8 <__cxa_finalize@GLIBC_2.2.5>
    9155:	00 
    9156:	48 89 e5             	mov    %rsp,%rbp
    9159:	74 0c                	je     9167 <__do_global_dtors_aux+0x27>
    915b:	48 8b 3d a6 0e 01 00 	mov    0x10ea6(%rip),%rdi        # 1a008 <__dso_handle>
    9162:	e8 f9 fe ff ff       	callq  9060 <__cxa_finalize@plt>
    9167:	e8 64 ff ff ff       	callq  90d0 <deregister_tm_clones>
    916c:	c6 05 6d 50 01 00 01 	movb   $0x1,0x1506d(%rip)        # 1e1e0 <completed.8061>
    9173:	5d                   	pop    %rbp
    9174:	c3                   	retq   
    9175:	0f 1f 00             	nopl   (%rax)
    9178:	c3                   	retq   
    9179:	0f 1f 80 00 00 00 00 	nopl   0x0(%rax)

0000000000009180 <frame_dummy>:
    9180:	f3 0f 1e fa          	endbr64 
    9184:	e9 77 ff ff ff       	jmpq   9100 <register_tm_clones>

0000000000009189 <platform_main_begin>:
    9189:	f3 0f 1e fa          	endbr64 
    918d:	55                   	push   %rbp
    918e:	48 89 e5             	mov    %rsp,%rbp
    9191:	90                   	nop
    9192:	5d                   	pop    %rbp
    9193:	c3                   	retq   

0000000000009194 <platform_main_end>:
    9194:	f3 0f 1e fa          	endbr64 
    9198:	55                   	push   %rbp
    9199:	48 89 e5             	mov    %rsp,%rbp
    919c:	48 83 ec 10          	sub    $0x10,%rsp
    91a0:	89 7d fc             	mov    %edi,-0x4(%rbp)
    91a3:	89 75 f8             	mov    %esi,-0x8(%rbp)
    91a6:	8b 45 fc             	mov    -0x4(%rbp),%eax
    91a9:	89 c6                	mov    %eax,%esi
    91ab:	48 8d 3d 6e be 00 00 	lea    0xbe6e(%rip),%rdi        # 15020 <_IO_stdin_used+0x20>
    91b2:	b8 00 00 00 00       	mov    $0x0,%eax
    91b7:	e8 c4 fe ff ff       	callq  9080 <printf@plt>
    91bc:	90                   	nop
    91bd:	c9                   	leaveq 
    91be:	c3                   	retq   

00000000000091bf <safe_unary_minus_func_int8_t_s>:
    91bf:	f3 0f 1e fa          	endbr64 
    91c3:	55                   	push   %rbp
    91c4:	48 89 e5             	mov    %rsp,%rbp
    91c7:	89 f8                	mov    %edi,%eax
    91c9:	88 45 fc             	mov    %al,-0x4(%rbp)
    91cc:	0f b6 45 fc          	movzbl -0x4(%rbp),%eax
    91d0:	f7 d8                	neg    %eax
    91d2:	5d                   	pop    %rbp
    91d3:	c3                   	retq   

00000000000091d4 <safe_add_func_int8_t_s_s>:
    91d4:	f3 0f 1e fa          	endbr64 
    91d8:	55                   	push   %rbp
    91d9:	48 89 e5             	mov    %rsp,%rbp
    91dc:	89 fa                	mov    %edi,%edx
    91de:	89 f0                	mov    %esi,%eax
    91e0:	88 55 fc             	mov    %dl,-0x4(%rbp)
    91e3:	88 45 f8             	mov    %al,-0x8(%rbp)
    91e6:	0f b6 55 fc          	movzbl -0x4(%rbp),%edx
    91ea:	0f b6 45 f8          	movzbl -0x8(%rbp),%eax
    91ee:	01 d0                	add    %edx,%eax
    91f0:	5d                   	pop    %rbp
    91f1:	c3                   	retq   

00000000000091f2 <safe_sub_func_int8_t_s_s>:
    91f2:	f3 0f 1e fa          	endbr64 
    91f6:	55                   	push   %rbp
    91f7:	48 89 e5             	mov    %rsp,%rbp
    91fa:	89 fa                	mov    %edi,%edx
    91fc:	89 f0                	mov    %esi,%eax
    91fe:	88 55 fc             	mov    %dl,-0x4(%rbp)
    9201:	88 45 f8             	mov    %al,-0x8(%rbp)
    9204:	0f b6 55 fc          	movzbl -0x4(%rbp),%edx
    9208:	0f b6 45 f8          	movzbl -0x8(%rbp),%eax
    920c:	29 c2                	sub    %eax,%edx
    920e:	89 d0                	mov    %edx,%eax
    9210:	5d                   	pop    %rbp
    9211:	c3                   	retq   

0000000000009212 <safe_mul_func_int8_t_s_s>:
    9212:	f3 0f 1e fa          	endbr64 
    9216:	55                   	push   %rbp
    9217:	48 89 e5             	mov    %rsp,%rbp
    921a:	89 fa                	mov    %edi,%edx
    921c:	89 f0                	mov    %esi,%eax
    921e:	88 55 fc             	mov    %dl,-0x4(%rbp)
    9221:	88 45 f8             	mov    %al,-0x8(%rbp)
    9224:	0f b6 45 fc          	movzbl -0x4(%rbp),%eax
    9228:	0f b6 55 f8          	movzbl -0x8(%rbp),%edx
    922c:	0f af c2             	imul   %edx,%eax
    922f:	5d                   	pop    %rbp
    9230:	c3                   	retq   

0000000000009231 <safe_mod_func_int8_t_s_s>:
    9231:	f3 0f 1e fa          	endbr64 
    9235:	55                   	push   %rbp
    9236:	48 89 e5             	mov    %rsp,%rbp
    9239:	89 fa                	mov    %edi,%edx
    923b:	89 f0                	mov    %esi,%eax
    923d:	88 55 fc             	mov    %dl,-0x4(%rbp)
    9240:	88 45 f8             	mov    %al,-0x8(%rbp)
    9243:	80 7d f8 00          	cmpb   $0x0,-0x8(%rbp)
    9247:	74 1b                	je     9264 <safe_mod_func_int8_t_s_s+0x33>
    9249:	80 7d fc 80          	cmpb   $0x80,-0x4(%rbp)
    924d:	75 06                	jne    9255 <safe_mod_func_int8_t_s_s+0x24>
    924f:	80 7d f8 ff          	cmpb   $0xff,-0x8(%rbp)
    9253:	74 0f                	je     9264 <safe_mod_func_int8_t_s_s+0x33>
    9255:	0f be 45 fc          	movsbl -0x4(%rbp),%eax
    9259:	0f be 4d f8          	movsbl -0x8(%rbp),%ecx
    925d:	99                   	cltd   
    925e:	f7 f9                	idiv   %ecx
    9260:	89 d0                	mov    %edx,%eax
    9262:	eb 04                	jmp    9268 <safe_mod_func_int8_t_s_s+0x37>
    9264:	0f b6 45 fc          	movzbl -0x4(%rbp),%eax
    9268:	5d                   	pop    %rbp
    9269:	c3                   	retq   

000000000000926a <safe_div_func_int8_t_s_s>:
    926a:	f3 0f 1e fa          	endbr64 
    926e:	55                   	push   %rbp
    926f:	48 89 e5             	mov    %rsp,%rbp
    9272:	89 fa                	mov    %edi,%edx
    9274:	89 f0                	mov    %esi,%eax
    9276:	88 55 fc             	mov    %dl,-0x4(%rbp)
    9279:	88 45 f8             	mov    %al,-0x8(%rbp)
    927c:	80 7d f8 00          	cmpb   $0x0,-0x8(%rbp)
    9280:	74 19                	je     929b <safe_div_func_int8_t_s_s+0x31>
    9282:	80 7d fc 80          	cmpb   $0x80,-0x4(%rbp)
    9286:	75 06                	jne    928e <safe_div_func_int8_t_s_s+0x24>
    9288:	80 7d f8 ff          	cmpb   $0xff,-0x8(%rbp)
    928c:	74 0d                	je     929b <safe_div_func_int8_t_s_s+0x31>
    928e:	0f be 45 fc          	movsbl -0x4(%rbp),%eax
    9292:	0f be 4d f8          	movsbl -0x8(%rbp),%ecx
    9296:	99                   	cltd   
    9297:	f7 f9                	idiv   %ecx
    9299:	eb 04                	jmp    929f <safe_div_func_int8_t_s_s+0x35>
    929b:	0f b6 45 fc          	movzbl -0x4(%rbp),%eax
    929f:	5d                   	pop    %rbp
    92a0:	c3                   	retq   

00000000000092a1 <safe_lshift_func_int8_t_s_s>:
    92a1:	f3 0f 1e fa          	endbr64 
    92a5:	55                   	push   %rbp
    92a6:	48 89 e5             	mov    %rsp,%rbp
    92a9:	89 f8                	mov    %edi,%eax
    92ab:	89 75 f8             	mov    %esi,-0x8(%rbp)
    92ae:	88 45 fc             	mov    %al,-0x4(%rbp)
    92b1:	80 7d fc 00          	cmpb   $0x0,-0x4(%rbp)
    92b5:	78 31                	js     92e8 <safe_lshift_func_int8_t_s_s+0x47>
    92b7:	83 7d f8 00          	cmpl   $0x0,-0x8(%rbp)
    92bb:	78 2b                	js     92e8 <safe_lshift_func_int8_t_s_s+0x47>
    92bd:	83 7d f8 1f          	cmpl   $0x1f,-0x8(%rbp)
    92c1:	7f 25                	jg     92e8 <safe_lshift_func_int8_t_s_s+0x47>
    92c3:	0f be 55 fc          	movsbl -0x4(%rbp),%edx
    92c7:	8b 45 f8             	mov    -0x8(%rbp),%eax
    92ca:	be 7f 00 00 00       	mov    $0x7f,%esi
    92cf:	89 c1                	mov    %eax,%ecx
    92d1:	d3 fe                	sar    %cl,%esi
    92d3:	89 f0                	mov    %esi,%eax
    92d5:	39 c2                	cmp    %eax,%edx
    92d7:	7f 0f                	jg     92e8 <safe_lshift_func_int8_t_s_s+0x47>
    92d9:	0f be 55 fc          	movsbl -0x4(%rbp),%edx
    92dd:	8b 45 f8             	mov    -0x8(%rbp),%eax
    92e0:	89 c1                	mov    %eax,%ecx
    92e2:	d3 e2                	shl    %cl,%edx
    92e4:	89 d0                	mov    %edx,%eax
    92e6:	eb 04                	jmp    92ec <safe_lshift_func_int8_t_s_s+0x4b>
    92e8:	0f b6 45 fc          	movzbl -0x4(%rbp),%eax
    92ec:	5d                   	pop    %rbp
    92ed:	c3                   	retq   

00000000000092ee <safe_lshift_func_int8_t_s_u>:
    92ee:	f3 0f 1e fa          	endbr64 
    92f2:	55                   	push   %rbp
    92f3:	48 89 e5             	mov    %rsp,%rbp
    92f6:	89 f8                	mov    %edi,%eax
    92f8:	89 75 f8             	mov    %esi,-0x8(%rbp)
    92fb:	88 45 fc             	mov    %al,-0x4(%rbp)
    92fe:	80 7d fc 00          	cmpb   $0x0,-0x4(%rbp)
    9302:	78 2b                	js     932f <safe_lshift_func_int8_t_s_u+0x41>
    9304:	83 7d f8 1f          	cmpl   $0x1f,-0x8(%rbp)
    9308:	77 25                	ja     932f <safe_lshift_func_int8_t_s_u+0x41>
    930a:	0f be 55 fc          	movsbl -0x4(%rbp),%edx
    930e:	8b 45 f8             	mov    -0x8(%rbp),%eax
    9311:	be 7f 00 00 00       	mov    $0x7f,%esi
    9316:	89 c1                	mov    %eax,%ecx
    9318:	d3 fe                	sar    %cl,%esi
    931a:	89 f0                	mov    %esi,%eax
    931c:	39 c2                	cmp    %eax,%edx
    931e:	7f 0f                	jg     932f <safe_lshift_func_int8_t_s_u+0x41>
    9320:	0f be 55 fc          	movsbl -0x4(%rbp),%edx
    9324:	8b 45 f8             	mov    -0x8(%rbp),%eax
    9327:	89 c1                	mov    %eax,%ecx
    9329:	d3 e2                	shl    %cl,%edx
    932b:	89 d0                	mov    %edx,%eax
    932d:	eb 04                	jmp    9333 <safe_lshift_func_int8_t_s_u+0x45>
    932f:	0f b6 45 fc          	movzbl -0x4(%rbp),%eax
    9333:	5d                   	pop    %rbp
    9334:	c3                   	retq   

0000000000009335 <safe_rshift_func_int8_t_s_s>:
    9335:	f3 0f 1e fa          	endbr64 
    9339:	55                   	push   %rbp
    933a:	48 89 e5             	mov    %rsp,%rbp
    933d:	89 f8                	mov    %edi,%eax
    933f:	89 75 f8             	mov    %esi,-0x8(%rbp)
    9342:	88 45 fc             	mov    %al,-0x4(%rbp)
    9345:	80 7d fc 00          	cmpb   $0x0,-0x4(%rbp)
    9349:	78 1b                	js     9366 <safe_rshift_func_int8_t_s_s+0x31>
    934b:	83 7d f8 00          	cmpl   $0x0,-0x8(%rbp)
    934f:	78 15                	js     9366 <safe_rshift_func_int8_t_s_s+0x31>
    9351:	83 7d f8 1f          	cmpl   $0x1f,-0x8(%rbp)
    9355:	7f 0f                	jg     9366 <safe_rshift_func_int8_t_s_s+0x31>
    9357:	0f be 55 fc          	movsbl -0x4(%rbp),%edx
    935b:	8b 45 f8             	mov    -0x8(%rbp),%eax
    935e:	89 c1                	mov    %eax,%ecx
    9360:	d3 fa                	sar    %cl,%edx
    9362:	89 d0                	mov    %edx,%eax
    9364:	eb 04                	jmp    936a <safe_rshift_func_int8_t_s_s+0x35>
    9366:	0f b6 45 fc          	movzbl -0x4(%rbp),%eax
    936a:	5d                   	pop    %rbp
    936b:	c3                   	retq   

000000000000936c <safe_rshift_func_int8_t_s_u>:
    936c:	f3 0f 1e fa          	endbr64 
    9370:	55                   	push   %rbp
    9371:	48 89 e5             	mov    %rsp,%rbp
    9374:	89 f8                	mov    %edi,%eax
    9376:	89 75 f8             	mov    %esi,-0x8(%rbp)
    9379:	88 45 fc             	mov    %al,-0x4(%rbp)
    937c:	80 7d fc 00          	cmpb   $0x0,-0x4(%rbp)
    9380:	78 15                	js     9397 <safe_rshift_func_int8_t_s_u+0x2b>
    9382:	83 7d f8 1f          	cmpl   $0x1f,-0x8(%rbp)
    9386:	77 0f                	ja     9397 <safe_rshift_func_int8_t_s_u+0x2b>
    9388:	0f be 55 fc          	movsbl -0x4(%rbp),%edx
    938c:	8b 45 f8             	mov    -0x8(%rbp),%eax
    938f:	89 c1                	mov    %eax,%ecx
    9391:	d3 fa                	sar    %cl,%edx
    9393:	89 d0                	mov    %edx,%eax
    9395:	eb 04                	jmp    939b <safe_rshift_func_int8_t_s_u+0x2f>
    9397:	0f b6 45 fc          	movzbl -0x4(%rbp),%eax
    939b:	5d                   	pop    %rbp
    939c:	c3                   	retq   

000000000000939d <safe_unary_minus_func_int16_t_s>:
    939d:	f3 0f 1e fa          	endbr64 
    93a1:	55                   	push   %rbp
    93a2:	48 89 e5             	mov    %rsp,%rbp
    93a5:	89 f8                	mov    %edi,%eax
    93a7:	66 89 45 fc          	mov    %ax,-0x4(%rbp)
    93ab:	0f b7 45 fc          	movzwl -0x4(%rbp),%eax
    93af:	f7 d8                	neg    %eax
    93b1:	5d                   	pop    %rbp
    93b2:	c3                   	retq   

00000000000093b3 <safe_add_func_int16_t_s_s>:
    93b3:	f3 0f 1e fa          	endbr64 
    93b7:	55                   	push   %rbp
    93b8:	48 89 e5             	mov    %rsp,%rbp
    93bb:	89 fa                	mov    %edi,%edx
    93bd:	89 f0                	mov    %esi,%eax
    93bf:	66 89 55 fc          	mov    %dx,-0x4(%rbp)
    93c3:	66 89 45 f8          	mov    %ax,-0x8(%rbp)
    93c7:	0f b7 55 fc          	movzwl -0x4(%rbp),%edx
    93cb:	0f b7 45 f8          	movzwl -0x8(%rbp),%eax
    93cf:	01 d0                	add    %edx,%eax
    93d1:	5d                   	pop    %rbp
    93d2:	c3                   	retq   

00000000000093d3 <safe_sub_func_int16_t_s_s>:
    93d3:	f3 0f 1e fa          	endbr64 
    93d7:	55                   	push   %rbp
    93d8:	48 89 e5             	mov    %rsp,%rbp
    93db:	89 fa                	mov    %edi,%edx
    93dd:	89 f0                	mov    %esi,%eax
    93df:	66 89 55 fc          	mov    %dx,-0x4(%rbp)
    93e3:	66 89 45 f8          	mov    %ax,-0x8(%rbp)
    93e7:	0f b7 55 fc          	movzwl -0x4(%rbp),%edx
    93eb:	0f b7 45 f8          	movzwl -0x8(%rbp),%eax
    93ef:	29 c2                	sub    %eax,%edx
    93f1:	89 d0                	mov    %edx,%eax
    93f3:	5d                   	pop    %rbp
    93f4:	c3                   	retq   

00000000000093f5 <safe_mul_func_int16_t_s_s>:
    93f5:	f3 0f 1e fa          	endbr64 
    93f9:	55                   	push   %rbp
    93fa:	48 89 e5             	mov    %rsp,%rbp
    93fd:	89 fa                	mov    %edi,%edx
    93ff:	89 f0                	mov    %esi,%eax
    9401:	66 89 55 fc          	mov    %dx,-0x4(%rbp)
    9405:	66 89 45 f8          	mov    %ax,-0x8(%rbp)
    9409:	0f b7 55 fc          	movzwl -0x4(%rbp),%edx
    940d:	0f b7 45 f8          	movzwl -0x8(%rbp),%eax
    9411:	0f af c2             	imul   %edx,%eax
    9414:	5d                   	pop    %rbp
    9415:	c3                   	retq   

0000000000009416 <safe_mod_func_int16_t_s_s>:
    9416:	f3 0f 1e fa          	endbr64 
    941a:	55                   	push   %rbp
    941b:	48 89 e5             	mov    %rsp,%rbp
    941e:	89 fa                	mov    %edi,%edx
    9420:	89 f0                	mov    %esi,%eax
    9422:	66 89 55 fc          	mov    %dx,-0x4(%rbp)
    9426:	66 89 45 f8          	mov    %ax,-0x8(%rbp)
    942a:	66 83 7d f8 00       	cmpw   $0x0,-0x8(%rbp)
    942f:	74 1e                	je     944f <safe_mod_func_int16_t_s_s+0x39>
    9431:	66 81 7d fc 00 80    	cmpw   $0x8000,-0x4(%rbp)
    9437:	75 07                	jne    9440 <safe_mod_func_int16_t_s_s+0x2a>
    9439:	66 83 7d f8 ff       	cmpw   $0xffff,-0x8(%rbp)
    943e:	74 0f                	je     944f <safe_mod_func_int16_t_s_s+0x39>
    9440:	0f bf 45 fc          	movswl -0x4(%rbp),%eax
    9444:	0f bf 4d f8          	movswl -0x8(%rbp),%ecx
    9448:	99                   	cltd   
    9449:	f7 f9                	idiv   %ecx
    944b:	89 d0                	mov    %edx,%eax
    944d:	eb 04                	jmp    9453 <safe_mod_func_int16_t_s_s+0x3d>
    944f:	0f b7 45 fc          	movzwl -0x4(%rbp),%eax
    9453:	5d                   	pop    %rbp
    9454:	c3                   	retq   

0000000000009455 <safe_div_func_int16_t_s_s>:
    9455:	f3 0f 1e fa          	endbr64 
    9459:	55                   	push   %rbp
    945a:	48 89 e5             	mov    %rsp,%rbp
    945d:	89 fa                	mov    %edi,%edx
    945f:	89 f0                	mov    %esi,%eax
    9461:	66 89 55 fc          	mov    %dx,-0x4(%rbp)
    9465:	66 89 45 f8          	mov    %ax,-0x8(%rbp)
    9469:	66 83 7d f8 00       	cmpw   $0x0,-0x8(%rbp)
    946e:	74 1c                	je     948c <safe_div_func_int16_t_s_s+0x37>
    9470:	66 81 7d fc 00 80    	cmpw   $0x8000,-0x4(%rbp)
    9476:	75 07                	jne    947f <safe_div_func_int16_t_s_s+0x2a>
    9478:	66 83 7d f8 ff       	cmpw   $0xffff,-0x8(%rbp)
    947d:	74 0d                	je     948c <safe_div_func_int16_t_s_s+0x37>
    947f:	0f bf 45 fc          	movswl -0x4(%rbp),%eax
    9483:	0f bf 4d f8          	movswl -0x8(%rbp),%ecx
    9487:	99                   	cltd   
    9488:	f7 f9                	idiv   %ecx
    948a:	eb 04                	jmp    9490 <safe_div_func_int16_t_s_s+0x3b>
    948c:	0f b7 45 fc          	movzwl -0x4(%rbp),%eax
    9490:	5d                   	pop    %rbp
    9491:	c3                   	retq   

0000000000009492 <safe_lshift_func_int16_t_s_s>:
    9492:	f3 0f 1e fa          	endbr64 
    9496:	55                   	push   %rbp
    9497:	48 89 e5             	mov    %rsp,%rbp
    949a:	89 f8                	mov    %edi,%eax
    949c:	89 75 f8             	mov    %esi,-0x8(%rbp)
    949f:	66 89 45 fc          	mov    %ax,-0x4(%rbp)
    94a3:	66 83 7d fc 00       	cmpw   $0x0,-0x4(%rbp)
    94a8:	78 31                	js     94db <safe_lshift_func_int16_t_s_s+0x49>
    94aa:	83 7d f8 00          	cmpl   $0x0,-0x8(%rbp)
    94ae:	78 2b                	js     94db <safe_lshift_func_int16_t_s_s+0x49>
    94b0:	83 7d f8 1f          	cmpl   $0x1f,-0x8(%rbp)
    94b4:	7f 25                	jg     94db <safe_lshift_func_int16_t_s_s+0x49>
    94b6:	0f bf 55 fc          	movswl -0x4(%rbp),%edx
    94ba:	8b 45 f8             	mov    -0x8(%rbp),%eax
    94bd:	be ff 7f 00 00       	mov    $0x7fff,%esi
    94c2:	89 c1                	mov    %eax,%ecx
    94c4:	d3 fe                	sar    %cl,%esi
    94c6:	89 f0                	mov    %esi,%eax
    94c8:	39 c2                	cmp    %eax,%edx
    94ca:	7f 0f                	jg     94db <safe_lshift_func_int16_t_s_s+0x49>
    94cc:	0f bf 55 fc          	movswl -0x4(%rbp),%edx
    94d0:	8b 45 f8             	mov    -0x8(%rbp),%eax
    94d3:	89 c1                	mov    %eax,%ecx
    94d5:	d3 e2                	shl    %cl,%edx
    94d7:	89 d0                	mov    %edx,%eax
    94d9:	eb 04                	jmp    94df <safe_lshift_func_int16_t_s_s+0x4d>
    94db:	0f b7 45 fc          	movzwl -0x4(%rbp),%eax
    94df:	5d                   	pop    %rbp
    94e0:	c3                   	retq   

00000000000094e1 <safe_lshift_func_int16_t_s_u>:
    94e1:	f3 0f 1e fa          	endbr64 
    94e5:	55                   	push   %rbp
    94e6:	48 89 e5             	mov    %rsp,%rbp
    94e9:	89 f8                	mov    %edi,%eax
    94eb:	89 75 f8             	mov    %esi,-0x8(%rbp)
    94ee:	66 89 45 fc          	mov    %ax,-0x4(%rbp)
    94f2:	66 83 7d fc 00       	cmpw   $0x0,-0x4(%rbp)
    94f7:	78 2b                	js     9524 <safe_lshift_func_int16_t_s_u+0x43>
    94f9:	83 7d f8 1f          	cmpl   $0x1f,-0x8(%rbp)
    94fd:	77 25                	ja     9524 <safe_lshift_func_int16_t_s_u+0x43>
    94ff:	0f bf 55 fc          	movswl -0x4(%rbp),%edx
    9503:	8b 45 f8             	mov    -0x8(%rbp),%eax
    9506:	be ff 7f 00 00       	mov    $0x7fff,%esi
    950b:	89 c1                	mov    %eax,%ecx
    950d:	d3 fe                	sar    %cl,%esi
    950f:	89 f0                	mov    %esi,%eax
    9511:	39 c2                	cmp    %eax,%edx
    9513:	7f 0f                	jg     9524 <safe_lshift_func_int16_t_s_u+0x43>
    9515:	0f bf 55 fc          	movswl -0x4(%rbp),%edx
    9519:	8b 45 f8             	mov    -0x8(%rbp),%eax
    951c:	89 c1                	mov    %eax,%ecx
    951e:	d3 e2                	shl    %cl,%edx
    9520:	89 d0                	mov    %edx,%eax
    9522:	eb 04                	jmp    9528 <safe_lshift_func_int16_t_s_u+0x47>
    9524:	0f b7 45 fc          	movzwl -0x4(%rbp),%eax
    9528:	5d                   	pop    %rbp
    9529:	c3                   	retq   

000000000000952a <safe_rshift_func_int16_t_s_s>:
    952a:	f3 0f 1e fa          	endbr64 
    952e:	55                   	push   %rbp
    952f:	48 89 e5             	mov    %rsp,%rbp
    9532:	89 f8                	mov    %edi,%eax
    9534:	89 75 f8             	mov    %esi,-0x8(%rbp)
    9537:	66 89 45 fc          	mov    %ax,-0x4(%rbp)
    953b:	66 83 7d fc 00       	cmpw   $0x0,-0x4(%rbp)
    9540:	78 1b                	js     955d <safe_rshift_func_int16_t_s_s+0x33>
    9542:	83 7d f8 00          	cmpl   $0x0,-0x8(%rbp)
    9546:	78 15                	js     955d <safe_rshift_func_int16_t_s_s+0x33>
    9548:	83 7d f8 1f          	cmpl   $0x1f,-0x8(%rbp)
    954c:	7f 0f                	jg     955d <safe_rshift_func_int16_t_s_s+0x33>
    954e:	0f bf 55 fc          	movswl -0x4(%rbp),%edx
    9552:	8b 45 f8             	mov    -0x8(%rbp),%eax
    9555:	89 c1                	mov    %eax,%ecx
    9557:	d3 fa                	sar    %cl,%edx
    9559:	89 d0                	mov    %edx,%eax
    955b:	eb 04                	jmp    9561 <safe_rshift_func_int16_t_s_s+0x37>
    955d:	0f b7 45 fc          	movzwl -0x4(%rbp),%eax
    9561:	5d                   	pop    %rbp
    9562:	c3                   	retq   

0000000000009563 <safe_rshift_func_int16_t_s_u>:
    9563:	f3 0f 1e fa          	endbr64 
    9567:	55                   	push   %rbp
    9568:	48 89 e5             	mov    %rsp,%rbp
    956b:	89 f8                	mov    %edi,%eax
    956d:	89 75 f8             	mov    %esi,-0x8(%rbp)
    9570:	66 89 45 fc          	mov    %ax,-0x4(%rbp)
    9574:	66 83 7d fc 00       	cmpw   $0x0,-0x4(%rbp)
    9579:	78 15                	js     9590 <safe_rshift_func_int16_t_s_u+0x2d>
    957b:	83 7d f8 1f          	cmpl   $0x1f,-0x8(%rbp)
    957f:	77 0f                	ja     9590 <safe_rshift_func_int16_t_s_u+0x2d>
    9581:	0f bf 55 fc          	movswl -0x4(%rbp),%edx
    9585:	8b 45 f8             	mov    -0x8(%rbp),%eax
    9588:	89 c1                	mov    %eax,%ecx
    958a:	d3 fa                	sar    %cl,%edx
    958c:	89 d0                	mov    %edx,%eax
    958e:	eb 04                	jmp    9594 <safe_rshift_func_int16_t_s_u+0x31>
    9590:	0f b7 45 fc          	movzwl -0x4(%rbp),%eax
    9594:	5d                   	pop    %rbp
    9595:	c3                   	retq   

0000000000009596 <safe_unary_minus_func_int32_t_s>:
    9596:	f3 0f 1e fa          	endbr64 
    959a:	55                   	push   %rbp
    959b:	48 89 e5             	mov    %rsp,%rbp
    959e:	89 7d fc             	mov    %edi,-0x4(%rbp)
    95a1:	81 7d fc 00 00 00 80 	cmpl   $0x80000000,-0x4(%rbp)
    95a8:	74 07                	je     95b1 <safe_unary_minus_func_int32_t_s+0x1b>
    95aa:	8b 45 fc             	mov    -0x4(%rbp),%eax
    95ad:	f7 d8                	neg    %eax
    95af:	eb 03                	jmp    95b4 <safe_unary_minus_func_int32_t_s+0x1e>
    95b1:	8b 45 fc             	mov    -0x4(%rbp),%eax
    95b4:	5d                   	pop    %rbp
    95b5:	c3                   	retq   

00000000000095b6 <safe_add_func_int32_t_s_s>:
    95b6:	f3 0f 1e fa          	endbr64 
    95ba:	55                   	push   %rbp
    95bb:	48 89 e5             	mov    %rsp,%rbp
    95be:	89 7d fc             	mov    %edi,-0x4(%rbp)
    95c1:	89 75 f8             	mov    %esi,-0x8(%rbp)
    95c4:	83 7d fc 00          	cmpl   $0x0,-0x4(%rbp)
    95c8:	7e 13                	jle    95dd <safe_add_func_int32_t_s_s+0x27>
    95ca:	83 7d f8 00          	cmpl   $0x0,-0x8(%rbp)
    95ce:	7e 0d                	jle    95dd <safe_add_func_int32_t_s_s+0x27>
    95d0:	b8 ff ff ff 7f       	mov    $0x7fffffff,%eax
    95d5:	2b 45 f8             	sub    -0x8(%rbp),%eax
    95d8:	39 45 fc             	cmp    %eax,-0x4(%rbp)
    95db:	7f 23                	jg     9600 <safe_add_func_int32_t_s_s+0x4a>
    95dd:	83 7d fc 00          	cmpl   $0x0,-0x4(%rbp)
    95e1:	79 13                	jns    95f6 <safe_add_func_int32_t_s_s+0x40>
    95e3:	83 7d f8 00          	cmpl   $0x0,-0x8(%rbp)
    95e7:	79 0d                	jns    95f6 <safe_add_func_int32_t_s_s+0x40>
    95e9:	b8 00 00 00 80       	mov    $0x80000000,%eax
    95ee:	2b 45 f8             	sub    -0x8(%rbp),%eax
    95f1:	39 45 fc             	cmp    %eax,-0x4(%rbp)
    95f4:	7c 0a                	jl     9600 <safe_add_func_int32_t_s_s+0x4a>
    95f6:	8b 55 fc             	mov    -0x4(%rbp),%edx
    95f9:	8b 45 f8             	mov    -0x8(%rbp),%eax
    95fc:	01 d0                	add    %edx,%eax
    95fe:	eb 03                	jmp    9603 <safe_add_func_int32_t_s_s+0x4d>
    9600:	8b 45 fc             	mov    -0x4(%rbp),%eax
    9603:	5d                   	pop    %rbp
    9604:	c3                   	retq   

0000000000009605 <safe_sub_func_int32_t_s_s>:
    9605:	f3 0f 1e fa          	endbr64 
    9609:	55                   	push   %rbp
    960a:	48 89 e5             	mov    %rsp,%rbp
    960d:	89 7d fc             	mov    %edi,-0x4(%rbp)
    9610:	89 75 f8             	mov    %esi,-0x8(%rbp)
    9613:	8b 45 fc             	mov    -0x4(%rbp),%eax
    9616:	33 45 f8             	xor    -0x8(%rbp),%eax
    9619:	89 c2                	mov    %eax,%edx
    961b:	8b 45 fc             	mov    -0x4(%rbp),%eax
    961e:	33 45 f8             	xor    -0x8(%rbp),%eax
    9621:	25 00 00 00 80       	and    $0x80000000,%eax
    9626:	33 45 fc             	xor    -0x4(%rbp),%eax
    9629:	2b 45 f8             	sub    -0x8(%rbp),%eax
    962c:	33 45 f8             	xor    -0x8(%rbp),%eax
    962f:	21 d0                	and    %edx,%eax
    9631:	85 c0                	test   %eax,%eax
    9633:	78 08                	js     963d <safe_sub_func_int32_t_s_s+0x38>
    9635:	8b 45 fc             	mov    -0x4(%rbp),%eax
    9638:	2b 45 f8             	sub    -0x8(%rbp),%eax
    963b:	eb 03                	jmp    9640 <safe_sub_func_int32_t_s_s+0x3b>
    963d:	8b 45 fc             	mov    -0x4(%rbp),%eax
    9640:	5d                   	pop    %rbp
    9641:	c3                   	retq   

0000000000009642 <safe_mul_func_int32_t_s_s>:
    9642:	f3 0f 1e fa          	endbr64 
    9646:	55                   	push   %rbp
    9647:	48 89 e5             	mov    %rsp,%rbp
    964a:	89 7d fc             	mov    %edi,-0x4(%rbp)
    964d:	89 75 f8             	mov    %esi,-0x8(%rbp)
    9650:	83 7d fc 00          	cmpl   $0x0,-0x4(%rbp)
    9654:	7e 14                	jle    966a <safe_mul_func_int32_t_s_s+0x28>
    9656:	83 7d f8 00          	cmpl   $0x0,-0x8(%rbp)
    965a:	7e 0e                	jle    966a <safe_mul_func_int32_t_s_s+0x28>
    965c:	b8 ff ff ff 7f       	mov    $0x7fffffff,%eax
    9661:	99                   	cltd   
    9662:	f7 7d f8             	idivl  -0x8(%rbp)
    9665:	39 45 fc             	cmp    %eax,-0x4(%rbp)
    9668:	7f 5d                	jg     96c7 <safe_mul_func_int32_t_s_s+0x85>
    966a:	83 7d fc 00          	cmpl   $0x0,-0x4(%rbp)
    966e:	7e 14                	jle    9684 <safe_mul_func_int32_t_s_s+0x42>
    9670:	83 7d f8 00          	cmpl   $0x0,-0x8(%rbp)
    9674:	7f 0e                	jg     9684 <safe_mul_func_int32_t_s_s+0x42>
    9676:	b8 00 00 00 80       	mov    $0x80000000,%eax
    967b:	99                   	cltd   
    967c:	f7 7d fc             	idivl  -0x4(%rbp)
    967f:	39 45 f8             	cmp    %eax,-0x8(%rbp)
    9682:	7c 43                	jl     96c7 <safe_mul_func_int32_t_s_s+0x85>
    9684:	83 7d fc 00          	cmpl   $0x0,-0x4(%rbp)
    9688:	7f 14                	jg     969e <safe_mul_func_int32_t_s_s+0x5c>
    968a:	83 7d f8 00          	cmpl   $0x0,-0x8(%rbp)
    968e:	7e 0e                	jle    969e <safe_mul_func_int32_t_s_s+0x5c>
    9690:	b8 00 00 00 80       	mov    $0x80000000,%eax
    9695:	99                   	cltd   
    9696:	f7 7d f8             	idivl  -0x8(%rbp)
    9699:	39 45 fc             	cmp    %eax,-0x4(%rbp)
    969c:	7c 29                	jl     96c7 <safe_mul_func_int32_t_s_s+0x85>
    969e:	83 7d fc 00          	cmpl   $0x0,-0x4(%rbp)
    96a2:	7f 1a                	jg     96be <safe_mul_func_int32_t_s_s+0x7c>
    96a4:	83 7d f8 00          	cmpl   $0x0,-0x8(%rbp)
    96a8:	7f 14                	jg     96be <safe_mul_func_int32_t_s_s+0x7c>
    96aa:	83 7d fc 00          	cmpl   $0x0,-0x4(%rbp)
    96ae:	74 0e                	je     96be <safe_mul_func_int32_t_s_s+0x7c>
    96b0:	b8 ff ff ff 7f       	mov    $0x7fffffff,%eax
    96b5:	99                   	cltd   
    96b6:	f7 7d fc             	idivl  -0x4(%rbp)
    96b9:	39 45 f8             	cmp    %eax,-0x8(%rbp)
    96bc:	7c 09                	jl     96c7 <safe_mul_func_int32_t_s_s+0x85>
    96be:	8b 45 fc             	mov    -0x4(%rbp),%eax
    96c1:	0f af 45 f8          	imul   -0x8(%rbp),%eax
    96c5:	eb 03                	jmp    96ca <safe_mul_func_int32_t_s_s+0x88>
    96c7:	8b 45 fc             	mov    -0x4(%rbp),%eax
    96ca:	5d                   	pop    %rbp
    96cb:	c3                   	retq   

00000000000096cc <safe_mod_func_int32_t_s_s>:
    96cc:	f3 0f 1e fa          	endbr64 
    96d0:	55                   	push   %rbp
    96d1:	48 89 e5             	mov    %rsp,%rbp
    96d4:	89 7d fc             	mov    %edi,-0x4(%rbp)
    96d7:	89 75 f8             	mov    %esi,-0x8(%rbp)
    96da:	83 7d f8 00          	cmpl   $0x0,-0x8(%rbp)
    96de:	74 1a                	je     96fa <safe_mod_func_int32_t_s_s+0x2e>
    96e0:	81 7d fc 00 00 00 80 	cmpl   $0x80000000,-0x4(%rbp)
    96e7:	75 06                	jne    96ef <safe_mod_func_int32_t_s_s+0x23>
    96e9:	83 7d f8 ff          	cmpl   $0xffffffff,-0x8(%rbp)
    96ed:	74 0b                	je     96fa <safe_mod_func_int32_t_s_s+0x2e>
    96ef:	8b 45 fc             	mov    -0x4(%rbp),%eax
    96f2:	99                   	cltd   
    96f3:	f7 7d f8             	idivl  -0x8(%rbp)
    96f6:	89 d0                	mov    %edx,%eax
    96f8:	eb 03                	jmp    96fd <safe_mod_func_int32_t_s_s+0x31>
    96fa:	8b 45 fc             	mov    -0x4(%rbp),%eax
    96fd:	5d                   	pop    %rbp
    96fe:	c3                   	retq   

00000000000096ff <safe_div_func_int32_t_s_s>:
    96ff:	f3 0f 1e fa          	endbr64 
    9703:	55                   	push   %rbp
    9704:	48 89 e5             	mov    %rsp,%rbp
    9707:	89 7d fc             	mov    %edi,-0x4(%rbp)
    970a:	89 75 f8             	mov    %esi,-0x8(%rbp)
    970d:	83 7d f8 00          	cmpl   $0x0,-0x8(%rbp)
    9711:	74 18                	je     972b <safe_div_func_int32_t_s_s+0x2c>
    9713:	81 7d fc 00 00 00 80 	cmpl   $0x80000000,-0x4(%rbp)
    971a:	75 06                	jne    9722 <safe_div_func_int32_t_s_s+0x23>
    971c:	83 7d f8 ff          	cmpl   $0xffffffff,-0x8(%rbp)
    9720:	74 09                	je     972b <safe_div_func_int32_t_s_s+0x2c>
    9722:	8b 45 fc             	mov    -0x4(%rbp),%eax
    9725:	99                   	cltd   
    9726:	f7 7d f8             	idivl  -0x8(%rbp)
    9729:	eb 03                	jmp    972e <safe_div_func_int32_t_s_s+0x2f>
    972b:	8b 45 fc             	mov    -0x4(%rbp),%eax
    972e:	5d                   	pop    %rbp
    972f:	c3                   	retq   

0000000000009730 <safe_lshift_func_int32_t_s_s>:
    9730:	f3 0f 1e fa          	endbr64 
    9734:	55                   	push   %rbp
    9735:	48 89 e5             	mov    %rsp,%rbp
    9738:	89 7d fc             	mov    %edi,-0x4(%rbp)
    973b:	89 75 f8             	mov    %esi,-0x8(%rbp)
    973e:	83 7d fc 00          	cmpl   $0x0,-0x4(%rbp)
    9742:	78 2d                	js     9771 <safe_lshift_func_int32_t_s_s+0x41>
    9744:	83 7d f8 00          	cmpl   $0x0,-0x8(%rbp)
    9748:	78 27                	js     9771 <safe_lshift_func_int32_t_s_s+0x41>
    974a:	83 7d f8 1f          	cmpl   $0x1f,-0x8(%rbp)
    974e:	7f 21                	jg     9771 <safe_lshift_func_int32_t_s_s+0x41>
    9750:	8b 45 f8             	mov    -0x8(%rbp),%eax
    9753:	ba ff ff ff 7f       	mov    $0x7fffffff,%edx
    9758:	89 c1                	mov    %eax,%ecx
    975a:	d3 fa                	sar    %cl,%edx
    975c:	89 d0                	mov    %edx,%eax
    975e:	39 45 fc             	cmp    %eax,-0x4(%rbp)
    9761:	7f 0e                	jg     9771 <safe_lshift_func_int32_t_s_s+0x41>
    9763:	8b 45 f8             	mov    -0x8(%rbp),%eax
    9766:	8b 55 fc             	mov    -0x4(%rbp),%edx
    9769:	89 c1                	mov    %eax,%ecx
    976b:	d3 e2                	shl    %cl,%edx
    976d:	89 d0                	mov    %edx,%eax
    976f:	eb 03                	jmp    9774 <safe_lshift_func_int32_t_s_s+0x44>
    9771:	8b 45 fc             	mov    -0x4(%rbp),%eax
    9774:	5d                   	pop    %rbp
    9775:	c3                   	retq   

0000000000009776 <safe_lshift_func_int32_t_s_u>:
    9776:	f3 0f 1e fa          	endbr64 
    977a:	55                   	push   %rbp
    977b:	48 89 e5             	mov    %rsp,%rbp
    977e:	89 7d fc             	mov    %edi,-0x4(%rbp)
    9781:	89 75 f8             	mov    %esi,-0x8(%rbp)
    9784:	83 7d fc 00          	cmpl   $0x0,-0x4(%rbp)
    9788:	78 27                	js     97b1 <safe_lshift_func_int32_t_s_u+0x3b>
    978a:	83 7d f8 1f          	cmpl   $0x1f,-0x8(%rbp)
    978e:	77 21                	ja     97b1 <safe_lshift_func_int32_t_s_u+0x3b>
    9790:	8b 45 f8             	mov    -0x8(%rbp),%eax
    9793:	ba ff ff ff 7f       	mov    $0x7fffffff,%edx
    9798:	89 c1                	mov    %eax,%ecx
    979a:	d3 fa                	sar    %cl,%edx
    979c:	89 d0                	mov    %edx,%eax
    979e:	39 45 fc             	cmp    %eax,-0x4(%rbp)
    97a1:	7f 0e                	jg     97b1 <safe_lshift_func_int32_t_s_u+0x3b>
    97a3:	8b 45 f8             	mov    -0x8(%rbp),%eax
    97a6:	8b 55 fc             	mov    -0x4(%rbp),%edx
    97a9:	89 c1                	mov    %eax,%ecx
    97ab:	d3 e2                	shl    %cl,%edx
    97ad:	89 d0                	mov    %edx,%eax
    97af:	eb 03                	jmp    97b4 <safe_lshift_func_int32_t_s_u+0x3e>
    97b1:	8b 45 fc             	mov    -0x4(%rbp),%eax
    97b4:	5d                   	pop    %rbp
    97b5:	c3                   	retq   

00000000000097b6 <safe_rshift_func_int32_t_s_s>:
    97b6:	f3 0f 1e fa          	endbr64 
    97ba:	55                   	push   %rbp
    97bb:	48 89 e5             	mov    %rsp,%rbp
    97be:	89 7d fc             	mov    %edi,-0x4(%rbp)
    97c1:	89 75 f8             	mov    %esi,-0x8(%rbp)
    97c4:	83 7d fc 00          	cmpl   $0x0,-0x4(%rbp)
    97c8:	78 1a                	js     97e4 <safe_rshift_func_int32_t_s_s+0x2e>
    97ca:	83 7d f8 00          	cmpl   $0x0,-0x8(%rbp)
    97ce:	78 14                	js     97e4 <safe_rshift_func_int32_t_s_s+0x2e>
    97d0:	83 7d f8 1f          	cmpl   $0x1f,-0x8(%rbp)
    97d4:	7f 0e                	jg     97e4 <safe_rshift_func_int32_t_s_s+0x2e>
    97d6:	8b 45 f8             	mov    -0x8(%rbp),%eax
    97d9:	8b 55 fc             	mov    -0x4(%rbp),%edx
    97dc:	89 c1                	mov    %eax,%ecx
    97de:	d3 fa                	sar    %cl,%edx
    97e0:	89 d0                	mov    %edx,%eax
    97e2:	eb 03                	jmp    97e7 <safe_rshift_func_int32_t_s_s+0x31>
    97e4:	8b 45 fc             	mov    -0x4(%rbp),%eax
    97e7:	5d                   	pop    %rbp
    97e8:	c3                   	retq   

00000000000097e9 <safe_rshift_func_int32_t_s_u>:
    97e9:	f3 0f 1e fa          	endbr64 
    97ed:	55                   	push   %rbp
    97ee:	48 89 e5             	mov    %rsp,%rbp
    97f1:	89 7d fc             	mov    %edi,-0x4(%rbp)
    97f4:	89 75 f8             	mov    %esi,-0x8(%rbp)
    97f7:	83 7d fc 00          	cmpl   $0x0,-0x4(%rbp)
    97fb:	78 14                	js     9811 <safe_rshift_func_int32_t_s_u+0x28>
    97fd:	83 7d f8 1f          	cmpl   $0x1f,-0x8(%rbp)
    9801:	77 0e                	ja     9811 <safe_rshift_func_int32_t_s_u+0x28>
    9803:	8b 45 f8             	mov    -0x8(%rbp),%eax
    9806:	8b 55 fc             	mov    -0x4(%rbp),%edx
    9809:	89 c1                	mov    %eax,%ecx
    980b:	d3 fa                	sar    %cl,%edx
    980d:	89 d0                	mov    %edx,%eax
    980f:	eb 03                	jmp    9814 <safe_rshift_func_int32_t_s_u+0x2b>
    9811:	8b 45 fc             	mov    -0x4(%rbp),%eax
    9814:	5d                   	pop    %rbp
    9815:	c3                   	retq   

0000000000009816 <safe_unary_minus_func_int64_t_s>:
    9816:	f3 0f 1e fa          	endbr64 
    981a:	55                   	push   %rbp
    981b:	48 89 e5             	mov    %rsp,%rbp
    981e:	48 89 7d f8          	mov    %rdi,-0x8(%rbp)
    9822:	48 b8 00 00 00 00 00 	movabs $0x8000000000000000,%rax
    9829:	00 00 80 
    982c:	48 39 45 f8          	cmp    %rax,-0x8(%rbp)
    9830:	74 09                	je     983b <safe_unary_minus_func_int64_t_s+0x25>
    9832:	48 8b 45 f8          	mov    -0x8(%rbp),%rax
    9836:	48 f7 d8             	neg    %rax
    9839:	eb 04                	jmp    983f <safe_unary_minus_func_int64_t_s+0x29>
    983b:	48 8b 45 f8          	mov    -0x8(%rbp),%rax
    983f:	5d                   	pop    %rbp
    9840:	c3                   	retq   

0000000000009841 <safe_add_func_int64_t_s_s>:
    9841:	f3 0f 1e fa          	endbr64 
    9845:	55                   	push   %rbp
    9846:	48 89 e5             	mov    %rsp,%rbp
    9849:	48 89 7d f8          	mov    %rdi,-0x8(%rbp)
    984d:	48 89 75 f0          	mov    %rsi,-0x10(%rbp)
    9851:	48 83 7d f8 00       	cmpq   $0x0,-0x8(%rbp)
    9856:	7e 1b                	jle    9873 <safe_add_func_int64_t_s_s+0x32>
    9858:	48 83 7d f0 00       	cmpq   $0x0,-0x10(%rbp)
    985d:	7e 14                	jle    9873 <safe_add_func_int64_t_s_s+0x32>
    985f:	48 b8 ff ff ff ff ff 	movabs $0x7fffffffffffffff,%rax
    9866:	ff ff 7f 
    9869:	48 2b 45 f0          	sub    -0x10(%rbp),%rax
    986d:	48 39 45 f8          	cmp    %rax,-0x8(%rbp)
    9871:	7f 2f                	jg     98a2 <safe_add_func_int64_t_s_s+0x61>
    9873:	48 83 7d f8 00       	cmpq   $0x0,-0x8(%rbp)
    9878:	79 1b                	jns    9895 <safe_add_func_int64_t_s_s+0x54>
    987a:	48 83 7d f0 00       	cmpq   $0x0,-0x10(%rbp)
    987f:	79 14                	jns    9895 <safe_add_func_int64_t_s_s+0x54>
    9881:	48 b8 00 00 00 00 00 	movabs $0x8000000000000000,%rax
    9888:	00 00 80 
    988b:	48 2b 45 f0          	sub    -0x10(%rbp),%rax
    988f:	48 39 45 f8          	cmp    %rax,-0x8(%rbp)
    9893:	7c 0d                	jl     98a2 <safe_add_func_int64_t_s_s+0x61>
    9895:	48 8b 55 f8          	mov    -0x8(%rbp),%rdx
    9899:	48 8b 45 f0          	mov    -0x10(%rbp),%rax
    989d:	48 01 d0             	add    %rdx,%rax
    98a0:	eb 04                	jmp    98a6 <safe_add_func_int64_t_s_s+0x65>
    98a2:	48 8b 45 f8          	mov    -0x8(%rbp),%rax
    98a6:	5d                   	pop    %rbp
    98a7:	c3                   	retq   

00000000000098a8 <safe_sub_func_int64_t_s_s>:
    98a8:	f3 0f 1e fa          	endbr64 
    98ac:	55                   	push   %rbp
    98ad:	48 89 e5             	mov    %rsp,%rbp
    98b0:	48 89 7d f8          	mov    %rdi,-0x8(%rbp)
    98b4:	48 89 75 f0          	mov    %rsi,-0x10(%rbp)
    98b8:	48 8b 45 f8          	mov    -0x8(%rbp),%rax
    98bc:	48 33 45 f0          	xor    -0x10(%rbp),%rax
    98c0:	48 89 c2             	mov    %rax,%rdx
    98c3:	48 8b 45 f8          	mov    -0x8(%rbp),%rax
    98c7:	48 33 45 f0          	xor    -0x10(%rbp),%rax
    98cb:	48 b9 00 00 00 00 00 	movabs $0x8000000000000000,%rcx
    98d2:	00 00 80 
    98d5:	48 21 c8             	and    %rcx,%rax
    98d8:	48 33 45 f8          	xor    -0x8(%rbp),%rax
    98dc:	48 2b 45 f0          	sub    -0x10(%rbp),%rax
    98e0:	48 33 45 f0          	xor    -0x10(%rbp),%rax
    98e4:	48 21 d0             	and    %rdx,%rax
    98e7:	48 85 c0             	test   %rax,%rax
    98ea:	78 0a                	js     98f6 <safe_sub_func_int64_t_s_s+0x4e>
    98ec:	48 8b 45 f8          	mov    -0x8(%rbp),%rax
    98f0:	48 2b 45 f0          	sub    -0x10(%rbp),%rax
    98f4:	eb 04                	jmp    98fa <safe_sub_func_int64_t_s_s+0x52>
    98f6:	48 8b 45 f8          	mov    -0x8(%rbp),%rax
    98fa:	5d                   	pop    %rbp
    98fb:	c3                   	retq   

00000000000098fc <safe_mul_func_int64_t_s_s>:
    98fc:	f3 0f 1e fa          	endbr64 
    9900:	55                   	push   %rbp
    9901:	48 89 e5             	mov    %rsp,%rbp
    9904:	48 89 7d f8          	mov    %rdi,-0x8(%rbp)
    9908:	48 89 75 f0          	mov    %rsi,-0x10(%rbp)
    990c:	48 83 7d f8 00       	cmpq   $0x0,-0x8(%rbp)
    9911:	7e 1d                	jle    9930 <safe_mul_func_int64_t_s_s+0x34>
    9913:	48 83 7d f0 00       	cmpq   $0x0,-0x10(%rbp)
    9918:	7e 16                	jle    9930 <safe_mul_func_int64_t_s_s+0x34>
    991a:	48 b8 ff ff ff ff ff 	movabs $0x7fffffffffffffff,%rax
    9921:	ff ff 7f 
    9924:	48 99                	cqto   
    9926:	48 f7 7d f0          	idivq  -0x10(%rbp)
    992a:	48 39 45 f8          	cmp    %rax,-0x8(%rbp)
    992e:	7f 7e                	jg     99ae <safe_mul_func_int64_t_s_s+0xb2>
    9930:	48 83 7d f8 00       	cmpq   $0x0,-0x8(%rbp)
    9935:	7e 1d                	jle    9954 <safe_mul_func_int64_t_s_s+0x58>
    9937:	48 83 7d f0 00       	cmpq   $0x0,-0x10(%rbp)
    993c:	7f 16                	jg     9954 <safe_mul_func_int64_t_s_s+0x58>
    993e:	48 b8 00 00 00 00 00 	movabs $0x8000000000000000,%rax
    9945:	00 00 80 
    9948:	48 99                	cqto   
    994a:	48 f7 7d f8          	idivq  -0x8(%rbp)
    994e:	48 39 45 f0          	cmp    %rax,-0x10(%rbp)
    9952:	7c 5a                	jl     99ae <safe_mul_func_int64_t_s_s+0xb2>
    9954:	48 83 7d f8 00       	cmpq   $0x0,-0x8(%rbp)
    9959:	7f 1d                	jg     9978 <safe_mul_func_int64_t_s_s+0x7c>
    995b:	48 83 7d f0 00       	cmpq   $0x0,-0x10(%rbp)
    9960:	7e 16                	jle    9978 <safe_mul_func_int64_t_s_s+0x7c>
    9962:	48 b8 00 00 00 00 00 	movabs $0x8000000000000000,%rax
    9969:	00 00 80 
    996c:	48 99                	cqto   
    996e:	48 f7 7d f0          	idivq  -0x10(%rbp)
    9972:	48 39 45 f8          	cmp    %rax,-0x8(%rbp)
    9976:	7c 36                	jl     99ae <safe_mul_func_int64_t_s_s+0xb2>
    9978:	48 83 7d f8 00       	cmpq   $0x0,-0x8(%rbp)
    997d:	7f 24                	jg     99a3 <safe_mul_func_int64_t_s_s+0xa7>
    997f:	48 83 7d f0 00       	cmpq   $0x0,-0x10(%rbp)
    9984:	7f 1d                	jg     99a3 <safe_mul_func_int64_t_s_s+0xa7>
    9986:	48 83 7d f8 00       	cmpq   $0x0,-0x8(%rbp)
    998b:	74 16                	je     99a3 <safe_mul_func_int64_t_s_s+0xa7>
    998d:	48 b8 ff ff ff ff ff 	movabs $0x7fffffffffffffff,%rax
    9994:	ff ff 7f 
    9997:	48 99                	cqto   
    9999:	48 f7 7d f8          	idivq  -0x8(%rbp)
    999d:	48 39 45 f0          	cmp    %rax,-0x10(%rbp)
    99a1:	7c 0b                	jl     99ae <safe_mul_func_int64_t_s_s+0xb2>
    99a3:	48 8b 45 f8          	mov    -0x8(%rbp),%rax
    99a7:	48 0f af 45 f0       	imul   -0x10(%rbp),%rax
    99ac:	eb 04                	jmp    99b2 <safe_mul_func_int64_t_s_s+0xb6>
    99ae:	48 8b 45 f8          	mov    -0x8(%rbp),%rax
    99b2:	5d                   	pop    %rbp
    99b3:	c3                   	retq   

00000000000099b4 <safe_mod_func_int64_t_s_s>:
    99b4:	f3 0f 1e fa          	endbr64 
    99b8:	55                   	push   %rbp
    99b9:	48 89 e5             	mov    %rsp,%rbp
    99bc:	48 89 7d f8          	mov    %rdi,-0x8(%rbp)
    99c0:	48 89 75 f0          	mov    %rsi,-0x10(%rbp)
    99c4:	48 83 7d f0 00       	cmpq   $0x0,-0x10(%rbp)
    99c9:	74 26                	je     99f1 <safe_mod_func_int64_t_s_s+0x3d>
    99cb:	48 b8 00 00 00 00 00 	movabs $0x8000000000000000,%rax
    99d2:	00 00 80 
    99d5:	48 39 45 f8          	cmp    %rax,-0x8(%rbp)
    99d9:	75 07                	jne    99e2 <safe_mod_func_int64_t_s_s+0x2e>
    99db:	48 83 7d f0 ff       	cmpq   $0xffffffffffffffff,-0x10(%rbp)
    99e0:	74 0f                	je     99f1 <safe_mod_func_int64_t_s_s+0x3d>
    99e2:	48 8b 45 f8          	mov    -0x8(%rbp),%rax
    99e6:	48 99                	cqto   
    99e8:	48 f7 7d f0          	idivq  -0x10(%rbp)
    99ec:	48 89 d0             	mov    %rdx,%rax
    99ef:	eb 04                	jmp    99f5 <safe_mod_func_int64_t_s_s+0x41>
    99f1:	48 8b 45 f8          	mov    -0x8(%rbp),%rax
    99f5:	5d                   	pop    %rbp
    99f6:	c3                   	retq   

00000000000099f7 <safe_div_func_int64_t_s_s>:
    99f7:	f3 0f 1e fa          	endbr64 
    99fb:	55                   	push   %rbp
    99fc:	48 89 e5             	mov    %rsp,%rbp
    99ff:	48 89 7d f8          	mov    %rdi,-0x8(%rbp)
    9a03:	48 89 75 f0          	mov    %rsi,-0x10(%rbp)
    9a07:	48 83 7d f0 00       	cmpq   $0x0,-0x10(%rbp)
    9a0c:	74 23                	je     9a31 <safe_div_func_int64_t_s_s+0x3a>
    9a0e:	48 b8 00 00 00 00 00 	movabs $0x8000000000000000,%rax
    9a15:	00 00 80 
    9a18:	48 39 45 f8          	cmp    %rax,-0x8(%rbp)
    9a1c:	75 07                	jne    9a25 <safe_div_func_int64_t_s_s+0x2e>
    9a1e:	48 83 7d f0 ff       	cmpq   $0xffffffffffffffff,-0x10(%rbp)
    9a23:	74 0c                	je     9a31 <safe_div_func_int64_t_s_s+0x3a>
    9a25:	48 8b 45 f8          	mov    -0x8(%rbp),%rax
    9a29:	48 99                	cqto   
    9a2b:	48 f7 7d f0          	idivq  -0x10(%rbp)
    9a2f:	eb 04                	jmp    9a35 <safe_div_func_int64_t_s_s+0x3e>
    9a31:	48 8b 45 f8          	mov    -0x8(%rbp),%rax
    9a35:	5d                   	pop    %rbp
    9a36:	c3                   	retq   

0000000000009a37 <safe_lshift_func_int64_t_s_s>:
    9a37:	f3 0f 1e fa          	endbr64 
    9a3b:	55                   	push   %rbp
    9a3c:	48 89 e5             	mov    %rsp,%rbp
    9a3f:	48 89 7d f8          	mov    %rdi,-0x8(%rbp)
    9a43:	89 75 f4             	mov    %esi,-0xc(%rbp)
    9a46:	48 83 7d f8 00       	cmpq   $0x0,-0x8(%rbp)
    9a4b:	78 38                	js     9a85 <safe_lshift_func_int64_t_s_s+0x4e>
    9a4d:	83 7d f4 00          	cmpl   $0x0,-0xc(%rbp)
    9a51:	78 32                	js     9a85 <safe_lshift_func_int64_t_s_s+0x4e>
    9a53:	83 7d f4 1f          	cmpl   $0x1f,-0xc(%rbp)
    9a57:	7f 2c                	jg     9a85 <safe_lshift_func_int64_t_s_s+0x4e>
    9a59:	8b 45 f4             	mov    -0xc(%rbp),%eax
    9a5c:	48 ba ff ff ff ff ff 	movabs $0x7fffffffffffffff,%rdx
    9a63:	ff ff 7f 
    9a66:	89 c1                	mov    %eax,%ecx
    9a68:	48 d3 fa             	sar    %cl,%rdx
    9a6b:	48 89 d0             	mov    %rdx,%rax
    9a6e:	48 39 45 f8          	cmp    %rax,-0x8(%rbp)
    9a72:	7f 11                	jg     9a85 <safe_lshift_func_int64_t_s_s+0x4e>
    9a74:	8b 45 f4             	mov    -0xc(%rbp),%eax
    9a77:	48 8b 55 f8          	mov    -0x8(%rbp),%rdx
    9a7b:	89 c1                	mov    %eax,%ecx
    9a7d:	48 d3 e2             	shl    %cl,%rdx
    9a80:	48 89 d0             	mov    %rdx,%rax
    9a83:	eb 04                	jmp    9a89 <safe_lshift_func_int64_t_s_s+0x52>
    9a85:	48 8b 45 f8          	mov    -0x8(%rbp),%rax
    9a89:	5d                   	pop    %rbp
    9a8a:	c3                   	retq   

0000000000009a8b <safe_lshift_func_int64_t_s_u>:
    9a8b:	f3 0f 1e fa          	endbr64 
    9a8f:	55                   	push   %rbp
    9a90:	48 89 e5             	mov    %rsp,%rbp
    9a93:	48 89 7d f8          	mov    %rdi,-0x8(%rbp)
    9a97:	89 75 f4             	mov    %esi,-0xc(%rbp)
    9a9a:	48 83 7d f8 00       	cmpq   $0x0,-0x8(%rbp)
    9a9f:	78 32                	js     9ad3 <safe_lshift_func_int64_t_s_u+0x48>
    9aa1:	83 7d f4 1f          	cmpl   $0x1f,-0xc(%rbp)
    9aa5:	77 2c                	ja     9ad3 <safe_lshift_func_int64_t_s_u+0x48>
    9aa7:	8b 45 f4             	mov    -0xc(%rbp),%eax
    9aaa:	48 ba ff ff ff ff ff 	movabs $0x7fffffffffffffff,%rdx
    9ab1:	ff ff 7f 
    9ab4:	89 c1                	mov    %eax,%ecx
    9ab6:	48 d3 fa             	sar    %cl,%rdx
    9ab9:	48 89 d0             	mov    %rdx,%rax
    9abc:	48 39 45 f8          	cmp    %rax,-0x8(%rbp)
    9ac0:	7f 11                	jg     9ad3 <safe_lshift_func_int64_t_s_u+0x48>
    9ac2:	8b 45 f4             	mov    -0xc(%rbp),%eax
    9ac5:	48 8b 55 f8          	mov    -0x8(%rbp),%rdx
    9ac9:	89 c1                	mov    %eax,%ecx
    9acb:	48 d3 e2             	shl    %cl,%rdx
    9ace:	48 89 d0             	mov    %rdx,%rax
    9ad1:	eb 04                	jmp    9ad7 <safe_lshift_func_int64_t_s_u+0x4c>
    9ad3:	48 8b 45 f8          	mov    -0x8(%rbp),%rax
    9ad7:	5d                   	pop    %rbp
    9ad8:	c3                   	retq   

0000000000009ad9 <safe_rshift_func_int64_t_s_s>:
    9ad9:	f3 0f 1e fa          	endbr64 
    9add:	55                   	push   %rbp
    9ade:	48 89 e5             	mov    %rsp,%rbp
    9ae1:	48 89 7d f8          	mov    %rdi,-0x8(%rbp)
    9ae5:	89 75 f4             	mov    %esi,-0xc(%rbp)
    9ae8:	48 83 7d f8 00       	cmpq   $0x0,-0x8(%rbp)
    9aed:	78 1d                	js     9b0c <safe_rshift_func_int64_t_s_s+0x33>
    9aef:	83 7d f4 00          	cmpl   $0x0,-0xc(%rbp)
    9af3:	78 17                	js     9b0c <safe_rshift_func_int64_t_s_s+0x33>
    9af5:	83 7d f4 1f          	cmpl   $0x1f,-0xc(%rbp)
    9af9:	7f 11                	jg     9b0c <safe_rshift_func_int64_t_s_s+0x33>
    9afb:	8b 45 f4             	mov    -0xc(%rbp),%eax
    9afe:	48 8b 55 f8          	mov    -0x8(%rbp),%rdx
    9b02:	89 c1                	mov    %eax,%ecx
    9b04:	48 d3 fa             	sar    %cl,%rdx
    9b07:	48 89 d0             	mov    %rdx,%rax
    9b0a:	eb 04                	jmp    9b10 <safe_rshift_func_int64_t_s_s+0x37>
    9b0c:	48 8b 45 f8          	mov    -0x8(%rbp),%rax
    9b10:	5d                   	pop    %rbp
    9b11:	c3                   	retq   

0000000000009b12 <safe_rshift_func_int64_t_s_u>:
    9b12:	f3 0f 1e fa          	endbr64 
    9b16:	55                   	push   %rbp
    9b17:	48 89 e5             	mov    %rsp,%rbp
    9b1a:	48 89 7d f8          	mov    %rdi,-0x8(%rbp)
    9b1e:	89 75 f4             	mov    %esi,-0xc(%rbp)
    9b21:	48 83 7d f8 00       	cmpq   $0x0,-0x8(%rbp)
    9b26:	78 17                	js     9b3f <safe_rshift_func_int64_t_s_u+0x2d>
    9b28:	83 7d f4 1f          	cmpl   $0x1f,-0xc(%rbp)
    9b2c:	77 11                	ja     9b3f <safe_rshift_func_int64_t_s_u+0x2d>
    9b2e:	8b 45 f4             	mov    -0xc(%rbp),%eax
    9b31:	48 8b 55 f8          	mov    -0x8(%rbp),%rdx
    9b35:	89 c1                	mov    %eax,%ecx
    9b37:	48 d3 fa             	sar    %cl,%rdx
    9b3a:	48 89 d0             	mov    %rdx,%rax
    9b3d:	eb 04                	jmp    9b43 <safe_rshift_func_int64_t_s_u+0x31>
    9b3f:	48 8b 45 f8          	mov    -0x8(%rbp),%rax
    9b43:	5d                   	pop    %rbp
    9b44:	c3                   	retq   

0000000000009b45 <safe_unary_minus_func_uint8_t_u>:
    9b45:	f3 0f 1e fa          	endbr64 
    9b49:	55                   	push   %rbp
    9b4a:	48 89 e5             	mov    %rsp,%rbp
    9b4d:	89 f8                	mov    %edi,%eax
    9b4f:	88 45 fc             	mov    %al,-0x4(%rbp)
    9b52:	0f b6 45 fc          	movzbl -0x4(%rbp),%eax
    9b56:	f7 d8                	neg    %eax
    9b58:	5d                   	pop    %rbp
    9b59:	c3                   	retq   

0000000000009b5a <safe_add_func_uint8_t_u_u>:
    9b5a:	f3 0f 1e fa          	endbr64 
    9b5e:	55                   	push   %rbp
    9b5f:	48 89 e5             	mov    %rsp,%rbp
    9b62:	89 fa                	mov    %edi,%edx
    9b64:	89 f0                	mov    %esi,%eax
    9b66:	88 55 fc             	mov    %dl,-0x4(%rbp)
    9b69:	88 45 f8             	mov    %al,-0x8(%rbp)
    9b6c:	0f b6 55 fc          	movzbl -0x4(%rbp),%edx
    9b70:	0f b6 45 f8          	movzbl -0x8(%rbp),%eax
    9b74:	01 d0                	add    %edx,%eax
    9b76:	5d                   	pop    %rbp
    9b77:	c3                   	retq   

0000000000009b78 <safe_sub_func_uint8_t_u_u>:
    9b78:	f3 0f 1e fa          	endbr64 
    9b7c:	55                   	push   %rbp
    9b7d:	48 89 e5             	mov    %rsp,%rbp
    9b80:	89 fa                	mov    %edi,%edx
    9b82:	89 f0                	mov    %esi,%eax
    9b84:	88 55 fc             	mov    %dl,-0x4(%rbp)
    9b87:	88 45 f8             	mov    %al,-0x8(%rbp)
    9b8a:	0f b6 45 fc          	movzbl -0x4(%rbp),%eax
    9b8e:	2a 45 f8             	sub    -0x8(%rbp),%al
    9b91:	5d                   	pop    %rbp
    9b92:	c3                   	retq   

0000000000009b93 <safe_mul_func_uint8_t_u_u>:
    9b93:	f3 0f 1e fa          	endbr64 
    9b97:	55                   	push   %rbp
    9b98:	48 89 e5             	mov    %rsp,%rbp
    9b9b:	89 fa                	mov    %edi,%edx
    9b9d:	89 f0                	mov    %esi,%eax
    9b9f:	88 55 fc             	mov    %dl,-0x4(%rbp)
    9ba2:	88 45 f8             	mov    %al,-0x8(%rbp)
    9ba5:	0f b6 45 fc          	movzbl -0x4(%rbp),%eax
    9ba9:	f6 65 f8             	mulb   -0x8(%rbp)
    9bac:	5d                   	pop    %rbp
    9bad:	c3                   	retq   

0000000000009bae <safe_mod_func_uint8_t_u_u>:
    9bae:	f3 0f 1e fa          	endbr64 
    9bb2:	55                   	push   %rbp
    9bb3:	48 89 e5             	mov    %rsp,%rbp
    9bb6:	89 fa                	mov    %edi,%edx
    9bb8:	89 f0                	mov    %esi,%eax
    9bba:	88 55 fc             	mov    %dl,-0x4(%rbp)
    9bbd:	88 45 f8             	mov    %al,-0x8(%rbp)
    9bc0:	80 7d f8 00          	cmpb   $0x0,-0x8(%rbp)
    9bc4:	74 0f                	je     9bd5 <safe_mod_func_uint8_t_u_u+0x27>
    9bc6:	0f b6 45 fc          	movzbl -0x4(%rbp),%eax
    9bca:	0f b6 c0             	movzbl %al,%eax
    9bcd:	f6 75 f8             	divb   -0x8(%rbp)
    9bd0:	0f b6 c4             	movzbl %ah,%eax
    9bd3:	eb 04                	jmp    9bd9 <safe_mod_func_uint8_t_u_u+0x2b>
    9bd5:	0f b6 45 fc          	movzbl -0x4(%rbp),%eax
    9bd9:	5d                   	pop    %rbp
    9bda:	c3                   	retq   

0000000000009bdb <safe_div_func_uint8_t_u_u>:
    9bdb:	f3 0f 1e fa          	endbr64 
    9bdf:	55                   	push   %rbp
    9be0:	48 89 e5             	mov    %rsp,%rbp
    9be3:	89 fa                	mov    %edi,%edx
    9be5:	89 f0                	mov    %esi,%eax
    9be7:	88 55 fc             	mov    %dl,-0x4(%rbp)
    9bea:	88 45 f8             	mov    %al,-0x8(%rbp)
    9bed:	80 7d f8 00          	cmpb   $0x0,-0x8(%rbp)
    9bf1:	74 0c                	je     9bff <safe_div_func_uint8_t_u_u+0x24>
    9bf3:	0f b6 45 fc          	movzbl -0x4(%rbp),%eax
    9bf7:	0f b6 c0             	movzbl %al,%eax
    9bfa:	f6 75 f8             	divb   -0x8(%rbp)
    9bfd:	eb 04                	jmp    9c03 <safe_div_func_uint8_t_u_u+0x28>
    9bff:	0f b6 45 fc          	movzbl -0x4(%rbp),%eax
    9c03:	5d                   	pop    %rbp
    9c04:	c3                   	retq   

0000000000009c05 <safe_lshift_func_uint8_t_u_s>:
    9c05:	f3 0f 1e fa          	endbr64 
    9c09:	55                   	push   %rbp
    9c0a:	48 89 e5             	mov    %rsp,%rbp
    9c0d:	89 f8                	mov    %edi,%eax
    9c0f:	89 75 f8             	mov    %esi,-0x8(%rbp)
    9c12:	88 45 fc             	mov    %al,-0x4(%rbp)
    9c15:	83 7d f8 00          	cmpl   $0x0,-0x8(%rbp)
    9c19:	78 2b                	js     9c46 <safe_lshift_func_uint8_t_u_s+0x41>
    9c1b:	83 7d f8 1f          	cmpl   $0x1f,-0x8(%rbp)
    9c1f:	7f 25                	jg     9c46 <safe_lshift_func_uint8_t_u_s+0x41>
    9c21:	0f b6 55 fc          	movzbl -0x4(%rbp),%edx
    9c25:	8b 45 f8             	mov    -0x8(%rbp),%eax
    9c28:	be ff 00 00 00       	mov    $0xff,%esi
    9c2d:	89 c1                	mov    %eax,%ecx
    9c2f:	d3 fe                	sar    %cl,%esi
    9c31:	89 f0                	mov    %esi,%eax
    9c33:	39 c2                	cmp    %eax,%edx
    9c35:	7f 0f                	jg     9c46 <safe_lshift_func_uint8_t_u_s+0x41>
    9c37:	0f b6 55 fc          	movzbl -0x4(%rbp),%edx
    9c3b:	8b 45 f8             	mov    -0x8(%rbp),%eax
    9c3e:	89 c1                	mov    %eax,%ecx
    9c40:	d3 e2                	shl    %cl,%edx
    9c42:	89 d0                	mov    %edx,%eax
    9c44:	eb 04                	jmp    9c4a <safe_lshift_func_uint8_t_u_s+0x45>
    9c46:	0f b6 45 fc          	movzbl -0x4(%rbp),%eax
    9c4a:	5d                   	pop    %rbp
    9c4b:	c3                   	retq   

0000000000009c4c <safe_lshift_func_uint8_t_u_u>:
    9c4c:	f3 0f 1e fa          	endbr64 
    9c50:	55                   	push   %rbp
    9c51:	48 89 e5             	mov    %rsp,%rbp
    9c54:	89 f8                	mov    %edi,%eax
    9c56:	89 75 f8             	mov    %esi,-0x8(%rbp)
    9c59:	88 45 fc             	mov    %al,-0x4(%rbp)
    9c5c:	83 7d f8 1f          	cmpl   $0x1f,-0x8(%rbp)
    9c60:	77 25                	ja     9c87 <safe_lshift_func_uint8_t_u_u+0x3b>
    9c62:	0f b6 55 fc          	movzbl -0x4(%rbp),%edx
    9c66:	8b 45 f8             	mov    -0x8(%rbp),%eax
    9c69:	be ff 00 00 00       	mov    $0xff,%esi
    9c6e:	89 c1                	mov    %eax,%ecx
    9c70:	d3 fe                	sar    %cl,%esi
    9c72:	89 f0                	mov    %esi,%eax
    9c74:	39 c2                	cmp    %eax,%edx
    9c76:	7f 0f                	jg     9c87 <safe_lshift_func_uint8_t_u_u+0x3b>
    9c78:	0f b6 55 fc          	movzbl -0x4(%rbp),%edx
    9c7c:	8b 45 f8             	mov    -0x8(%rbp),%eax
    9c7f:	89 c1                	mov    %eax,%ecx
    9c81:	d3 e2                	shl    %cl,%edx
    9c83:	89 d0                	mov    %edx,%eax
    9c85:	eb 04                	jmp    9c8b <safe_lshift_func_uint8_t_u_u+0x3f>
    9c87:	0f b6 45 fc          	movzbl -0x4(%rbp),%eax
    9c8b:	5d                   	pop    %rbp
    9c8c:	c3                   	retq   

0000000000009c8d <safe_rshift_func_uint8_t_u_s>:
    9c8d:	f3 0f 1e fa          	endbr64 
    9c91:	55                   	push   %rbp
    9c92:	48 89 e5             	mov    %rsp,%rbp
    9c95:	89 f8                	mov    %edi,%eax
    9c97:	89 75 f8             	mov    %esi,-0x8(%rbp)
    9c9a:	88 45 fc             	mov    %al,-0x4(%rbp)
    9c9d:	83 7d f8 00          	cmpl   $0x0,-0x8(%rbp)
    9ca1:	78 15                	js     9cb8 <safe_rshift_func_uint8_t_u_s+0x2b>
    9ca3:	83 7d f8 1f          	cmpl   $0x1f,-0x8(%rbp)
    9ca7:	7f 0f                	jg     9cb8 <safe_rshift_func_uint8_t_u_s+0x2b>
    9ca9:	0f b6 55 fc          	movzbl -0x4(%rbp),%edx
    9cad:	8b 45 f8             	mov    -0x8(%rbp),%eax
    9cb0:	89 c1                	mov    %eax,%ecx
    9cb2:	d3 fa                	sar    %cl,%edx
    9cb4:	89 d0                	mov    %edx,%eax
    9cb6:	eb 04                	jmp    9cbc <safe_rshift_func_uint8_t_u_s+0x2f>
    9cb8:	0f b6 45 fc          	movzbl -0x4(%rbp),%eax
    9cbc:	5d                   	pop    %rbp
    9cbd:	c3                   	retq   

0000000000009cbe <safe_rshift_func_uint8_t_u_u>:
    9cbe:	f3 0f 1e fa          	endbr64 
    9cc2:	55                   	push   %rbp
    9cc3:	48 89 e5             	mov    %rsp,%rbp
    9cc6:	89 f8                	mov    %edi,%eax
    9cc8:	89 75 f8             	mov    %esi,-0x8(%rbp)
    9ccb:	88 45 fc             	mov    %al,-0x4(%rbp)
    9cce:	83 7d f8 1f          	cmpl   $0x1f,-0x8(%rbp)
    9cd2:	77 0f                	ja     9ce3 <safe_rshift_func_uint8_t_u_u+0x25>
    9cd4:	0f b6 55 fc          	movzbl -0x4(%rbp),%edx
    9cd8:	8b 45 f8             	mov    -0x8(%rbp),%eax
    9cdb:	89 c1                	mov    %eax,%ecx
    9cdd:	d3 fa                	sar    %cl,%edx
    9cdf:	89 d0                	mov    %edx,%eax
    9ce1:	eb 04                	jmp    9ce7 <safe_rshift_func_uint8_t_u_u+0x29>
    9ce3:	0f b6 45 fc          	movzbl -0x4(%rbp),%eax
    9ce7:	5d                   	pop    %rbp
    9ce8:	c3                   	retq   

0000000000009ce9 <safe_unary_minus_func_uint16_t_u>:
    9ce9:	f3 0f 1e fa          	endbr64 
    9ced:	55                   	push   %rbp
    9cee:	48 89 e5             	mov    %rsp,%rbp
    9cf1:	89 f8                	mov    %edi,%eax
    9cf3:	66 89 45 fc          	mov    %ax,-0x4(%rbp)
    9cf7:	0f b7 45 fc          	movzwl -0x4(%rbp),%eax
    9cfb:	f7 d8                	neg    %eax
    9cfd:	5d                   	pop    %rbp
    9cfe:	c3                   	retq   

0000000000009cff <safe_add_func_uint16_t_u_u>:
    9cff:	f3 0f 1e fa          	endbr64 
    9d03:	55                   	push   %rbp
    9d04:	48 89 e5             	mov    %rsp,%rbp
    9d07:	89 fa                	mov    %edi,%edx
    9d09:	89 f0                	mov    %esi,%eax
    9d0b:	66 89 55 fc          	mov    %dx,-0x4(%rbp)
    9d0f:	66 89 45 f8          	mov    %ax,-0x8(%rbp)
    9d13:	0f b7 55 fc          	movzwl -0x4(%rbp),%edx
    9d17:	0f b7 45 f8          	movzwl -0x8(%rbp),%eax
    9d1b:	01 d0                	add    %edx,%eax
    9d1d:	5d                   	pop    %rbp
    9d1e:	c3                   	retq   

0000000000009d1f <safe_sub_func_uint16_t_u_u>:
    9d1f:	f3 0f 1e fa          	endbr64 
    9d23:	55                   	push   %rbp
    9d24:	48 89 e5             	mov    %rsp,%rbp
    9d27:	89 fa                	mov    %edi,%edx
    9d29:	89 f0                	mov    %esi,%eax
    9d2b:	66 89 55 fc          	mov    %dx,-0x4(%rbp)
    9d2f:	66 89 45 f8          	mov    %ax,-0x8(%rbp)
    9d33:	0f b7 45 fc          	movzwl -0x4(%rbp),%eax
    9d37:	66 2b 45 f8          	sub    -0x8(%rbp),%ax
    9d3b:	5d                   	pop    %rbp
    9d3c:	c3                   	retq   

0000000000009d3d <safe_mul_func_uint16_t_u_u>:
    9d3d:	f3 0f 1e fa          	endbr64 
    9d41:	55                   	push   %rbp
    9d42:	48 89 e5             	mov    %rsp,%rbp
    9d45:	89 fa                	mov    %edi,%edx
    9d47:	89 f0                	mov    %esi,%eax
    9d49:	66 89 55 fc          	mov    %dx,-0x4(%rbp)
    9d4d:	66 89 45 f8          	mov    %ax,-0x8(%rbp)
    9d51:	0f b7 45 fc          	movzwl -0x4(%rbp),%eax
    9d55:	66 0f af 45 f8       	imul   -0x8(%rbp),%ax
    9d5a:	5d                   	pop    %rbp
    9d5b:	c3                   	retq   

0000000000009d5c <safe_mod_func_uint16_t_u_u>:
    9d5c:	f3 0f 1e fa          	endbr64 
    9d60:	55                   	push   %rbp
    9d61:	48 89 e5             	mov    %rsp,%rbp
    9d64:	89 fa                	mov    %edi,%edx
    9d66:	89 f0                	mov    %esi,%eax
    9d68:	66 89 55 fc          	mov    %dx,-0x4(%rbp)
    9d6c:	66 89 45 f8          	mov    %ax,-0x8(%rbp)
    9d70:	66 83 7d f8 00       	cmpw   $0x0,-0x8(%rbp)
    9d75:	74 11                	je     9d88 <safe_mod_func_uint16_t_u_u+0x2c>
    9d77:	0f b7 45 fc          	movzwl -0x4(%rbp),%eax
    9d7b:	ba 00 00 00 00       	mov    $0x0,%edx
    9d80:	66 f7 75 f8          	divw   -0x8(%rbp)
    9d84:	89 d0                	mov    %edx,%eax
    9d86:	eb 04                	jmp    9d8c <safe_mod_func_uint16_t_u_u+0x30>
    9d88:	0f b7 45 fc          	movzwl -0x4(%rbp),%eax
    9d8c:	5d                   	pop    %rbp
    9d8d:	c3                   	retq   

0000000000009d8e <safe_div_func_uint16_t_u_u>:
    9d8e:	f3 0f 1e fa          	endbr64 
    9d92:	55                   	push   %rbp
    9d93:	48 89 e5             	mov    %rsp,%rbp
    9d96:	89 fa                	mov    %edi,%edx
    9d98:	89 f0                	mov    %esi,%eax
    9d9a:	66 89 55 fc          	mov    %dx,-0x4(%rbp)
    9d9e:	66 89 45 f8          	mov    %ax,-0x8(%rbp)
    9da2:	66 83 7d f8 00       	cmpw   $0x0,-0x8(%rbp)
    9da7:	74 0f                	je     9db8 <safe_div_func_uint16_t_u_u+0x2a>
    9da9:	0f b7 45 fc          	movzwl -0x4(%rbp),%eax
    9dad:	ba 00 00 00 00       	mov    $0x0,%edx
    9db2:	66 f7 75 f8          	divw   -0x8(%rbp)
    9db6:	eb 04                	jmp    9dbc <safe_div_func_uint16_t_u_u+0x2e>
    9db8:	0f b7 45 fc          	movzwl -0x4(%rbp),%eax
    9dbc:	5d                   	pop    %rbp
    9dbd:	c3                   	retq   

0000000000009dbe <safe_lshift_func_uint16_t_u_s>:
    9dbe:	f3 0f 1e fa          	endbr64 
    9dc2:	55                   	push   %rbp
    9dc3:	48 89 e5             	mov    %rsp,%rbp
    9dc6:	89 f8                	mov    %edi,%eax
    9dc8:	89 75 f8             	mov    %esi,-0x8(%rbp)
    9dcb:	66 89 45 fc          	mov    %ax,-0x4(%rbp)
    9dcf:	83 7d f8 00          	cmpl   $0x0,-0x8(%rbp)
    9dd3:	78 2b                	js     9e00 <safe_lshift_func_uint16_t_u_s+0x42>
    9dd5:	83 7d f8 1f          	cmpl   $0x1f,-0x8(%rbp)
    9dd9:	7f 25                	jg     9e00 <safe_lshift_func_uint16_t_u_s+0x42>
    9ddb:	0f b7 55 fc          	movzwl -0x4(%rbp),%edx
    9ddf:	8b 45 f8             	mov    -0x8(%rbp),%eax
    9de2:	be ff ff 00 00       	mov    $0xffff,%esi
    9de7:	89 c1                	mov    %eax,%ecx
    9de9:	d3 fe                	sar    %cl,%esi
    9deb:	89 f0                	mov    %esi,%eax
    9ded:	39 c2                	cmp    %eax,%edx
    9def:	7f 0f                	jg     9e00 <safe_lshift_func_uint16_t_u_s+0x42>
    9df1:	0f b7 55 fc          	movzwl -0x4(%rbp),%edx
    9df5:	8b 45 f8             	mov    -0x8(%rbp),%eax
    9df8:	89 c1                	mov    %eax,%ecx
    9dfa:	d3 e2                	shl    %cl,%edx
    9dfc:	89 d0                	mov    %edx,%eax
    9dfe:	eb 04                	jmp    9e04 <safe_lshift_func_uint16_t_u_s+0x46>
    9e00:	0f b7 45 fc          	movzwl -0x4(%rbp),%eax
    9e04:	5d                   	pop    %rbp
    9e05:	c3                   	retq   

0000000000009e06 <safe_lshift_func_uint16_t_u_u>:
    9e06:	f3 0f 1e fa          	endbr64 
    9e0a:	55                   	push   %rbp
    9e0b:	48 89 e5             	mov    %rsp,%rbp
    9e0e:	89 f8                	mov    %edi,%eax
    9e10:	89 75 f8             	mov    %esi,-0x8(%rbp)
    9e13:	66 89 45 fc          	mov    %ax,-0x4(%rbp)
    9e17:	83 7d f8 1f          	cmpl   $0x1f,-0x8(%rbp)
    9e1b:	77 25                	ja     9e42 <safe_lshift_func_uint16_t_u_u+0x3c>
    9e1d:	0f b7 55 fc          	movzwl -0x4(%rbp),%edx
    9e21:	8b 45 f8             	mov    -0x8(%rbp),%eax
    9e24:	be ff ff 00 00       	mov    $0xffff,%esi
    9e29:	89 c1                	mov    %eax,%ecx
    9e2b:	d3 fe                	sar    %cl,%esi
    9e2d:	89 f0                	mov    %esi,%eax
    9e2f:	39 c2                	cmp    %eax,%edx
    9e31:	7f 0f                	jg     9e42 <safe_lshift_func_uint16_t_u_u+0x3c>
    9e33:	0f b7 55 fc          	movzwl -0x4(%rbp),%edx
    9e37:	8b 45 f8             	mov    -0x8(%rbp),%eax
    9e3a:	89 c1                	mov    %eax,%ecx
    9e3c:	d3 e2                	shl    %cl,%edx
    9e3e:	89 d0                	mov    %edx,%eax
    9e40:	eb 04                	jmp    9e46 <safe_lshift_func_uint16_t_u_u+0x40>
    9e42:	0f b7 45 fc          	movzwl -0x4(%rbp),%eax
    9e46:	5d                   	pop    %rbp
    9e47:	c3                   	retq   

0000000000009e48 <safe_rshift_func_uint16_t_u_s>:
    9e48:	f3 0f 1e fa          	endbr64 
    9e4c:	55                   	push   %rbp
    9e4d:	48 89 e5             	mov    %rsp,%rbp
    9e50:	89 f8                	mov    %edi,%eax
    9e52:	89 75 f8             	mov    %esi,-0x8(%rbp)
    9e55:	66 89 45 fc          	mov    %ax,-0x4(%rbp)
    9e59:	83 7d f8 00          	cmpl   $0x0,-0x8(%rbp)
    9e5d:	78 15                	js     9e74 <safe_rshift_func_uint16_t_u_s+0x2c>
    9e5f:	83 7d f8 1f          	cmpl   $0x1f,-0x8(%rbp)
    9e63:	7f 0f                	jg     9e74 <safe_rshift_func_uint16_t_u_s+0x2c>
    9e65:	0f b7 55 fc          	movzwl -0x4(%rbp),%edx
    9e69:	8b 45 f8             	mov    -0x8(%rbp),%eax
    9e6c:	89 c1                	mov    %eax,%ecx
    9e6e:	d3 fa                	sar    %cl,%edx
    9e70:	89 d0                	mov    %edx,%eax
    9e72:	eb 04                	jmp    9e78 <safe_rshift_func_uint16_t_u_s+0x30>
    9e74:	0f b7 45 fc          	movzwl -0x4(%rbp),%eax
    9e78:	5d                   	pop    %rbp
    9e79:	c3                   	retq   

0000000000009e7a <safe_rshift_func_uint16_t_u_u>:
    9e7a:	f3 0f 1e fa          	endbr64 
    9e7e:	55                   	push   %rbp
    9e7f:	48 89 e5             	mov    %rsp,%rbp
    9e82:	89 f8                	mov    %edi,%eax
    9e84:	89 75 f8             	mov    %esi,-0x8(%rbp)
    9e87:	66 89 45 fc          	mov    %ax,-0x4(%rbp)
    9e8b:	83 7d f8 1f          	cmpl   $0x1f,-0x8(%rbp)
    9e8f:	77 0f                	ja     9ea0 <safe_rshift_func_uint16_t_u_u+0x26>
    9e91:	0f b7 55 fc          	movzwl -0x4(%rbp),%edx
    9e95:	8b 45 f8             	mov    -0x8(%rbp),%eax
    9e98:	89 c1                	mov    %eax,%ecx
    9e9a:	d3 fa                	sar    %cl,%edx
    9e9c:	89 d0                	mov    %edx,%eax
    9e9e:	eb 04                	jmp    9ea4 <safe_rshift_func_uint16_t_u_u+0x2a>
    9ea0:	0f b7 45 fc          	movzwl -0x4(%rbp),%eax
    9ea4:	5d                   	pop    %rbp
    9ea5:	c3                   	retq   

0000000000009ea6 <safe_unary_minus_func_uint32_t_u>:
    9ea6:	f3 0f 1e fa          	endbr64 
    9eaa:	55                   	push   %rbp
    9eab:	48 89 e5             	mov    %rsp,%rbp
    9eae:	89 7d fc             	mov    %edi,-0x4(%rbp)
    9eb1:	8b 45 fc             	mov    -0x4(%rbp),%eax
    9eb4:	f7 d8                	neg    %eax
    9eb6:	5d                   	pop    %rbp
    9eb7:	c3                   	retq   

0000000000009eb8 <safe_add_func_uint32_t_u_u>:
    9eb8:	f3 0f 1e fa          	endbr64 
    9ebc:	55                   	push   %rbp
    9ebd:	48 89 e5             	mov    %rsp,%rbp
    9ec0:	89 7d fc             	mov    %edi,-0x4(%rbp)
    9ec3:	89 75 f8             	mov    %esi,-0x8(%rbp)
    9ec6:	8b 55 fc             	mov    -0x4(%rbp),%edx
    9ec9:	8b 45 f8             	mov    -0x8(%rbp),%eax
    9ecc:	01 d0                	add    %edx,%eax
    9ece:	5d                   	pop    %rbp
    9ecf:	c3                   	retq   

0000000000009ed0 <safe_sub_func_uint32_t_u_u>:
    9ed0:	f3 0f 1e fa          	endbr64 
    9ed4:	55                   	push   %rbp
    9ed5:	48 89 e5             	mov    %rsp,%rbp
    9ed8:	89 7d fc             	mov    %edi,-0x4(%rbp)
    9edb:	89 75 f8             	mov    %esi,-0x8(%rbp)
    9ede:	8b 45 fc             	mov    -0x4(%rbp),%eax
    9ee1:	2b 45 f8             	sub    -0x8(%rbp),%eax
    9ee4:	5d                   	pop    %rbp
    9ee5:	c3                   	retq   

0000000000009ee6 <safe_mul_func_uint32_t_u_u>:
    9ee6:	f3 0f 1e fa          	endbr64 
    9eea:	55                   	push   %rbp
    9eeb:	48 89 e5             	mov    %rsp,%rbp
    9eee:	89 7d fc             	mov    %edi,-0x4(%rbp)
    9ef1:	89 75 f8             	mov    %esi,-0x8(%rbp)
    9ef4:	8b 45 fc             	mov    -0x4(%rbp),%eax
    9ef7:	0f af 45 f8          	imul   -0x8(%rbp),%eax
    9efb:	5d                   	pop    %rbp
    9efc:	c3                   	retq   

0000000000009efd <safe_mod_func_uint32_t_u_u>:
    9efd:	f3 0f 1e fa          	endbr64 
    9f01:	55                   	push   %rbp
    9f02:	48 89 e5             	mov    %rsp,%rbp
    9f05:	89 7d fc             	mov    %edi,-0x4(%rbp)
    9f08:	89 75 f8             	mov    %esi,-0x8(%rbp)
    9f0b:	83 7d f8 00          	cmpl   $0x0,-0x8(%rbp)
    9f0f:	74 0f                	je     9f20 <safe_mod_func_uint32_t_u_u+0x23>
    9f11:	8b 45 fc             	mov    -0x4(%rbp),%eax
    9f14:	ba 00 00 00 00       	mov    $0x0,%edx
    9f19:	f7 75 f8             	divl   -0x8(%rbp)
    9f1c:	89 d0                	mov    %edx,%eax
    9f1e:	eb 03                	jmp    9f23 <safe_mod_func_uint32_t_u_u+0x26>
    9f20:	8b 45 fc             	mov    -0x4(%rbp),%eax
    9f23:	5d                   	pop    %rbp
    9f24:	c3                   	retq   

0000000000009f25 <safe_div_func_uint32_t_u_u>:
    9f25:	f3 0f 1e fa          	endbr64 
    9f29:	55                   	push   %rbp
    9f2a:	48 89 e5             	mov    %rsp,%rbp
    9f2d:	89 7d fc             	mov    %edi,-0x4(%rbp)
    9f30:	89 75 f8             	mov    %esi,-0x8(%rbp)
    9f33:	83 7d f8 00          	cmpl   $0x0,-0x8(%rbp)
    9f37:	74 0d                	je     9f46 <safe_div_func_uint32_t_u_u+0x21>
    9f39:	8b 45 fc             	mov    -0x4(%rbp),%eax
    9f3c:	ba 00 00 00 00       	mov    $0x0,%edx
    9f41:	f7 75 f8             	divl   -0x8(%rbp)
    9f44:	eb 03                	jmp    9f49 <safe_div_func_uint32_t_u_u+0x24>
    9f46:	8b 45 fc             	mov    -0x4(%rbp),%eax
    9f49:	5d                   	pop    %rbp
    9f4a:	c3                   	retq   

0000000000009f4b <safe_lshift_func_uint32_t_u_s>:
    9f4b:	f3 0f 1e fa          	endbr64 
    9f4f:	55                   	push   %rbp
    9f50:	48 89 e5             	mov    %rsp,%rbp
    9f53:	89 7d fc             	mov    %edi,-0x4(%rbp)
    9f56:	89 75 f8             	mov    %esi,-0x8(%rbp)
    9f59:	83 7d f8 00          	cmpl   $0x0,-0x8(%rbp)
    9f5d:	78 27                	js     9f86 <safe_lshift_func_uint32_t_u_s+0x3b>
    9f5f:	83 7d f8 1f          	cmpl   $0x1f,-0x8(%rbp)
    9f63:	7f 21                	jg     9f86 <safe_lshift_func_uint32_t_u_s+0x3b>
    9f65:	8b 45 f8             	mov    -0x8(%rbp),%eax
    9f68:	ba ff ff ff ff       	mov    $0xffffffff,%edx
    9f6d:	89 c1                	mov    %eax,%ecx
    9f6f:	d3 ea                	shr    %cl,%edx
    9f71:	89 d0                	mov    %edx,%eax
    9f73:	39 45 fc             	cmp    %eax,-0x4(%rbp)
    9f76:	77 0e                	ja     9f86 <safe_lshift_func_uint32_t_u_s+0x3b>
    9f78:	8b 45 f8             	mov    -0x8(%rbp),%eax
    9f7b:	8b 55 fc             	mov    -0x4(%rbp),%edx
    9f7e:	89 c1                	mov    %eax,%ecx
    9f80:	d3 e2                	shl    %cl,%edx
    9f82:	89 d0                	mov    %edx,%eax
    9f84:	eb 03                	jmp    9f89 <safe_lshift_func_uint32_t_u_s+0x3e>
    9f86:	8b 45 fc             	mov    -0x4(%rbp),%eax
    9f89:	5d                   	pop    %rbp
    9f8a:	c3                   	retq   

0000000000009f8b <safe_lshift_func_uint32_t_u_u>:
    9f8b:	f3 0f 1e fa          	endbr64 
    9f8f:	55                   	push   %rbp
    9f90:	48 89 e5             	mov    %rsp,%rbp
    9f93:	89 7d fc             	mov    %edi,-0x4(%rbp)
    9f96:	89 75 f8             	mov    %esi,-0x8(%rbp)
    9f99:	83 7d f8 1f          	cmpl   $0x1f,-0x8(%rbp)
    9f9d:	77 21                	ja     9fc0 <safe_lshift_func_uint32_t_u_u+0x35>
    9f9f:	8b 45 f8             	mov    -0x8(%rbp),%eax
    9fa2:	ba ff ff ff ff       	mov    $0xffffffff,%edx
    9fa7:	89 c1                	mov    %eax,%ecx
    9fa9:	d3 ea                	shr    %cl,%edx
    9fab:	89 d0                	mov    %edx,%eax
    9fad:	39 45 fc             	cmp    %eax,-0x4(%rbp)
    9fb0:	77 0e                	ja     9fc0 <safe_lshift_func_uint32_t_u_u+0x35>
    9fb2:	8b 45 f8             	mov    -0x8(%rbp),%eax
    9fb5:	8b 55 fc             	mov    -0x4(%rbp),%edx
    9fb8:	89 c1                	mov    %eax,%ecx
    9fba:	d3 e2                	shl    %cl,%edx
    9fbc:	89 d0                	mov    %edx,%eax
    9fbe:	eb 03                	jmp    9fc3 <safe_lshift_func_uint32_t_u_u+0x38>
    9fc0:	8b 45 fc             	mov    -0x4(%rbp),%eax
    9fc3:	5d                   	pop    %rbp
    9fc4:	c3                   	retq   

0000000000009fc5 <safe_rshift_func_uint32_t_u_s>:
    9fc5:	f3 0f 1e fa          	endbr64 
    9fc9:	55                   	push   %rbp
    9fca:	48 89 e5             	mov    %rsp,%rbp
    9fcd:	89 7d fc             	mov    %edi,-0x4(%rbp)
    9fd0:	89 75 f8             	mov    %esi,-0x8(%rbp)
    9fd3:	83 7d f8 00          	cmpl   $0x0,-0x8(%rbp)
    9fd7:	78 14                	js     9fed <safe_rshift_func_uint32_t_u_s+0x28>
    9fd9:	83 7d f8 1f          	cmpl   $0x1f,-0x8(%rbp)
    9fdd:	7f 0e                	jg     9fed <safe_rshift_func_uint32_t_u_s+0x28>
    9fdf:	8b 45 f8             	mov    -0x8(%rbp),%eax
    9fe2:	8b 55 fc             	mov    -0x4(%rbp),%edx
    9fe5:	89 c1                	mov    %eax,%ecx
    9fe7:	d3 ea                	shr    %cl,%edx
    9fe9:	89 d0                	mov    %edx,%eax
    9feb:	eb 03                	jmp    9ff0 <safe_rshift_func_uint32_t_u_s+0x2b>
    9fed:	8b 45 fc             	mov    -0x4(%rbp),%eax
    9ff0:	5d                   	pop    %rbp
    9ff1:	c3                   	retq   

0000000000009ff2 <safe_rshift_func_uint32_t_u_u>:
    9ff2:	f3 0f 1e fa          	endbr64 
    9ff6:	55                   	push   %rbp
    9ff7:	48 89 e5             	mov    %rsp,%rbp
    9ffa:	89 7d fc             	mov    %edi,-0x4(%rbp)
    9ffd:	89 75 f8             	mov    %esi,-0x8(%rbp)
    a000:	83 7d f8 1f          	cmpl   $0x1f,-0x8(%rbp)
    a004:	77 0e                	ja     a014 <safe_rshift_func_uint32_t_u_u+0x22>
    a006:	8b 45 f8             	mov    -0x8(%rbp),%eax
    a009:	8b 55 fc             	mov    -0x4(%rbp),%edx
    a00c:	89 c1                	mov    %eax,%ecx
    a00e:	d3 ea                	shr    %cl,%edx
    a010:	89 d0                	mov    %edx,%eax
    a012:	eb 03                	jmp    a017 <safe_rshift_func_uint32_t_u_u+0x25>
    a014:	8b 45 fc             	mov    -0x4(%rbp),%eax
    a017:	5d                   	pop    %rbp
    a018:	c3                   	retq   

000000000000a019 <safe_unary_minus_func_uint64_t_u>:
    a019:	f3 0f 1e fa          	endbr64 
    a01d:	55                   	push   %rbp
    a01e:	48 89 e5             	mov    %rsp,%rbp
    a021:	48 89 7d f8          	mov    %rdi,-0x8(%rbp)
    a025:	48 8b 45 f8          	mov    -0x8(%rbp),%rax
    a029:	48 f7 d8             	neg    %rax
    a02c:	5d                   	pop    %rbp
    a02d:	c3                   	retq   

000000000000a02e <safe_add_func_uint64_t_u_u>:
    a02e:	f3 0f 1e fa          	endbr64 
    a032:	55                   	push   %rbp
    a033:	48 89 e5             	mov    %rsp,%rbp
    a036:	48 89 7d f8          	mov    %rdi,-0x8(%rbp)
    a03a:	48 89 75 f0          	mov    %rsi,-0x10(%rbp)
    a03e:	48 8b 55 f8          	mov    -0x8(%rbp),%rdx
    a042:	48 8b 45 f0          	mov    -0x10(%rbp),%rax
    a046:	48 01 d0             	add    %rdx,%rax
    a049:	5d                   	pop    %rbp
    a04a:	c3                   	retq   

000000000000a04b <safe_sub_func_uint64_t_u_u>:
    a04b:	f3 0f 1e fa          	endbr64 
    a04f:	55                   	push   %rbp
    a050:	48 89 e5             	mov    %rsp,%rbp
    a053:	48 89 7d f8          	mov    %rdi,-0x8(%rbp)
    a057:	48 89 75 f0          	mov    %rsi,-0x10(%rbp)
    a05b:	48 8b 45 f8          	mov    -0x8(%rbp),%rax
    a05f:	48 2b 45 f0          	sub    -0x10(%rbp),%rax
    a063:	5d                   	pop    %rbp
    a064:	c3                   	retq   

000000000000a065 <safe_mul_func_uint64_t_u_u>:
    a065:	f3 0f 1e fa          	endbr64 
    a069:	55                   	push   %rbp
    a06a:	48 89 e5             	mov    %rsp,%rbp
    a06d:	48 89 7d f8          	mov    %rdi,-0x8(%rbp)
    a071:	48 89 75 f0          	mov    %rsi,-0x10(%rbp)
    a075:	48 8b 45 f8          	mov    -0x8(%rbp),%rax
    a079:	48 0f af 45 f0       	imul   -0x10(%rbp),%rax
    a07e:	5d                   	pop    %rbp
    a07f:	c3                   	retq   

000000000000a080 <safe_mod_func_uint64_t_u_u>:
    a080:	f3 0f 1e fa          	endbr64 
    a084:	55                   	push   %rbp
    a085:	48 89 e5             	mov    %rsp,%rbp
    a088:	48 89 7d f8          	mov    %rdi,-0x8(%rbp)
    a08c:	48 89 75 f0          	mov    %rsi,-0x10(%rbp)
    a090:	48 83 7d f0 00       	cmpq   $0x0,-0x10(%rbp)
    a095:	74 12                	je     a0a9 <safe_mod_func_uint64_t_u_u+0x29>
    a097:	48 8b 45 f8          	mov    -0x8(%rbp),%rax
    a09b:	ba 00 00 00 00       	mov    $0x0,%edx
    a0a0:	48 f7 75 f0          	divq   -0x10(%rbp)
    a0a4:	48 89 d0             	mov    %rdx,%rax
    a0a7:	eb 04                	jmp    a0ad <safe_mod_func_uint64_t_u_u+0x2d>
    a0a9:	48 8b 45 f8          	mov    -0x8(%rbp),%rax
    a0ad:	5d                   	pop    %rbp
    a0ae:	c3                   	retq   

000000000000a0af <safe_div_func_uint64_t_u_u>:
    a0af:	f3 0f 1e fa          	endbr64 
    a0b3:	55                   	push   %rbp
    a0b4:	48 89 e5             	mov    %rsp,%rbp
    a0b7:	48 89 7d f8          	mov    %rdi,-0x8(%rbp)
    a0bb:	48 89 75 f0          	mov    %rsi,-0x10(%rbp)
    a0bf:	48 83 7d f0 00       	cmpq   $0x0,-0x10(%rbp)
    a0c4:	74 0f                	je     a0d5 <safe_div_func_uint64_t_u_u+0x26>
    a0c6:	48 8b 45 f8          	mov    -0x8(%rbp),%rax
    a0ca:	ba 00 00 00 00       	mov    $0x0,%edx
    a0cf:	48 f7 75 f0          	divq   -0x10(%rbp)
    a0d3:	eb 04                	jmp    a0d9 <safe_div_func_uint64_t_u_u+0x2a>
    a0d5:	48 8b 45 f8          	mov    -0x8(%rbp),%rax
    a0d9:	5d                   	pop    %rbp
    a0da:	c3                   	retq   

000000000000a0db <safe_lshift_func_uint64_t_u_s>:
    a0db:	f3 0f 1e fa          	endbr64 
    a0df:	55                   	push   %rbp
    a0e0:	48 89 e5             	mov    %rsp,%rbp
    a0e3:	48 89 7d f8          	mov    %rdi,-0x8(%rbp)
    a0e7:	89 75 f4             	mov    %esi,-0xc(%rbp)
    a0ea:	83 7d f4 00          	cmpl   $0x0,-0xc(%rbp)
    a0ee:	78 2f                	js     a11f <safe_lshift_func_uint64_t_u_s+0x44>
    a0f0:	83 7d f4 1f          	cmpl   $0x1f,-0xc(%rbp)
    a0f4:	7f 29                	jg     a11f <safe_lshift_func_uint64_t_u_s+0x44>
    a0f6:	8b 45 f4             	mov    -0xc(%rbp),%eax
    a0f9:	48 c7 c2 ff ff ff ff 	mov    $0xffffffffffffffff,%rdx
    a100:	89 c1                	mov    %eax,%ecx
    a102:	48 d3 ea             	shr    %cl,%rdx
    a105:	48 89 d0             	mov    %rdx,%rax
    a108:	48 39 45 f8          	cmp    %rax,-0x8(%rbp)
    a10c:	77 11                	ja     a11f <safe_lshift_func_uint64_t_u_s+0x44>
    a10e:	8b 45 f4             	mov    -0xc(%rbp),%eax
    a111:	48 8b 55 f8          	mov    -0x8(%rbp),%rdx
    a115:	89 c1                	mov    %eax,%ecx
    a117:	48 d3 e2             	shl    %cl,%rdx
    a11a:	48 89 d0             	mov    %rdx,%rax
    a11d:	eb 04                	jmp    a123 <safe_lshift_func_uint64_t_u_s+0x48>
    a11f:	48 8b 45 f8          	mov    -0x8(%rbp),%rax
    a123:	5d                   	pop    %rbp
    a124:	c3                   	retq   

000000000000a125 <safe_lshift_func_uint64_t_u_u>:
    a125:	f3 0f 1e fa          	endbr64 
    a129:	55                   	push   %rbp
    a12a:	48 89 e5             	mov    %rsp,%rbp
    a12d:	48 89 7d f8          	mov    %rdi,-0x8(%rbp)
    a131:	89 75 f4             	mov    %esi,-0xc(%rbp)
    a134:	83 7d f4 1f          	cmpl   $0x1f,-0xc(%rbp)
    a138:	77 29                	ja     a163 <safe_lshift_func_uint64_t_u_u+0x3e>
    a13a:	8b 45 f4             	mov    -0xc(%rbp),%eax
    a13d:	48 c7 c2 ff ff ff ff 	mov    $0xffffffffffffffff,%rdx
    a144:	89 c1                	mov    %eax,%ecx
    a146:	48 d3 ea             	shr    %cl,%rdx
    a149:	48 89 d0             	mov    %rdx,%rax
    a14c:	48 39 45 f8          	cmp    %rax,-0x8(%rbp)
    a150:	77 11                	ja     a163 <safe_lshift_func_uint64_t_u_u+0x3e>
    a152:	8b 45 f4             	mov    -0xc(%rbp),%eax
    a155:	48 8b 55 f8          	mov    -0x8(%rbp),%rdx
    a159:	89 c1                	mov    %eax,%ecx
    a15b:	48 d3 e2             	shl    %cl,%rdx
    a15e:	48 89 d0             	mov    %rdx,%rax
    a161:	eb 04                	jmp    a167 <safe_lshift_func_uint64_t_u_u+0x42>
    a163:	48 8b 45 f8          	mov    -0x8(%rbp),%rax
    a167:	5d                   	pop    %rbp
    a168:	c3                   	retq   

000000000000a169 <safe_rshift_func_uint64_t_u_s>:
    a169:	f3 0f 1e fa          	endbr64 
    a16d:	55                   	push   %rbp
    a16e:	48 89 e5             	mov    %rsp,%rbp
    a171:	48 89 7d f8          	mov    %rdi,-0x8(%rbp)
    a175:	89 75 f4             	mov    %esi,-0xc(%rbp)
    a178:	83 7d f4 00          	cmpl   $0x0,-0xc(%rbp)
    a17c:	78 17                	js     a195 <safe_rshift_func_uint64_t_u_s+0x2c>
    a17e:	83 7d f4 1f          	cmpl   $0x1f,-0xc(%rbp)
    a182:	7f 11                	jg     a195 <safe_rshift_func_uint64_t_u_s+0x2c>
    a184:	8b 45 f4             	mov    -0xc(%rbp),%eax
    a187:	48 8b 55 f8          	mov    -0x8(%rbp),%rdx
    a18b:	89 c1                	mov    %eax,%ecx
    a18d:	48 d3 ea             	shr    %cl,%rdx
    a190:	48 89 d0             	mov    %rdx,%rax
    a193:	eb 04                	jmp    a199 <safe_rshift_func_uint64_t_u_s+0x30>
    a195:	48 8b 45 f8          	mov    -0x8(%rbp),%rax
    a199:	5d                   	pop    %rbp
    a19a:	c3                   	retq   

000000000000a19b <safe_rshift_func_uint64_t_u_u>:
    a19b:	f3 0f 1e fa          	endbr64 
    a19f:	55                   	push   %rbp
    a1a0:	48 89 e5             	mov    %rsp,%rbp
    a1a3:	48 89 7d f8          	mov    %rdi,-0x8(%rbp)
    a1a7:	89 75 f4             	mov    %esi,-0xc(%rbp)
    a1aa:	83 7d f4 1f          	cmpl   $0x1f,-0xc(%rbp)
    a1ae:	77 11                	ja     a1c1 <safe_rshift_func_uint64_t_u_u+0x26>
    a1b0:	8b 45 f4             	mov    -0xc(%rbp),%eax
    a1b3:	48 8b 55 f8          	mov    -0x8(%rbp),%rdx
    a1b7:	89 c1                	mov    %eax,%ecx
    a1b9:	48 d3 ea             	shr    %cl,%rdx
    a1bc:	48 89 d0             	mov    %rdx,%rax
    a1bf:	eb 04                	jmp    a1c5 <safe_rshift_func_uint64_t_u_u+0x2a>
    a1c1:	48 8b 45 f8          	mov    -0x8(%rbp),%rax
    a1c5:	5d                   	pop    %rbp
    a1c6:	c3                   	retq   

000000000000a1c7 <safe_add_func_float_f_f>:
    a1c7:	f3 0f 1e fa          	endbr64 
    a1cb:	55                   	push   %rbp
    a1cc:	48 89 e5             	mov    %rsp,%rbp
    a1cf:	f3 0f 11 45 fc       	movss  %xmm0,-0x4(%rbp)
    a1d4:	f3 0f 11 4d f8       	movss  %xmm1,-0x8(%rbp)
    a1d9:	f3 0f 10 4d fc       	movss  -0x4(%rbp),%xmm1
    a1de:	f3 0f 10 05 7e c9 00 	movss  0xc97e(%rip),%xmm0        # 16b64 <l_347.5258+0x1a4>
    a1e5:	00 
    a1e6:	f3 0f 59 c8          	mulss  %xmm0,%xmm1
    a1ea:	f3 0f 10 55 f8       	movss  -0x8(%rbp),%xmm2
    a1ef:	f3 0f 10 05 6d c9 00 	movss  0xc96d(%rip),%xmm0        # 16b64 <l_347.5258+0x1a4>
    a1f6:	00 
    a1f7:	f3 0f 59 c2          	mulss  %xmm2,%xmm0
    a1fb:	f3 0f 58 c1          	addss  %xmm1,%xmm0
    a1ff:	f3 0f 10 0d 69 c9 00 	movss  0xc969(%rip),%xmm1        # 16b70 <l_347.5258+0x1b0>
    a206:	00 
    a207:	0f 54 c1             	andps  %xmm1,%xmm0
    a20a:	0f 2f 05 6f c9 00 00 	comiss 0xc96f(%rip),%xmm0        # 16b80 <l_347.5258+0x1c0>
    a211:	76 07                	jbe    a21a <safe_add_func_float_f_f+0x53>
    a213:	f3 0f 10 45 fc       	movss  -0x4(%rbp),%xmm0
    a218:	eb 0a                	jmp    a224 <safe_add_func_float_f_f+0x5d>
    a21a:	f3 0f 10 45 fc       	movss  -0x4(%rbp),%xmm0
    a21f:	f3 0f 58 45 f8       	addss  -0x8(%rbp),%xmm0
    a224:	5d                   	pop    %rbp
    a225:	c3                   	retq   

000000000000a226 <safe_sub_func_float_f_f>:
    a226:	f3 0f 1e fa          	endbr64 
    a22a:	55                   	push   %rbp
    a22b:	48 89 e5             	mov    %rsp,%rbp
    a22e:	f3 0f 11 45 fc       	movss  %xmm0,-0x4(%rbp)
    a233:	f3 0f 11 4d f8       	movss  %xmm1,-0x8(%rbp)
    a238:	f3 0f 10 4d fc       	movss  -0x4(%rbp),%xmm1
    a23d:	f3 0f 10 05 1f c9 00 	movss  0xc91f(%rip),%xmm0        # 16b64 <l_347.5258+0x1a4>
    a244:	00 
    a245:	f3 0f 59 c1          	mulss  %xmm1,%xmm0
    a249:	f3 0f 10 55 f8       	movss  -0x8(%rbp),%xmm2
    a24e:	f3 0f 10 0d 0e c9 00 	movss  0xc90e(%rip),%xmm1        # 16b64 <l_347.5258+0x1a4>
    a255:	00 
    a256:	f3 0f 59 ca          	mulss  %xmm2,%xmm1
    a25a:	f3 0f 5c c1          	subss  %xmm1,%xmm0
    a25e:	f3 0f 10 0d 0a c9 00 	movss  0xc90a(%rip),%xmm1        # 16b70 <l_347.5258+0x1b0>
    a265:	00 
    a266:	0f 54 c1             	andps  %xmm1,%xmm0
    a269:	0f 2f 05 10 c9 00 00 	comiss 0xc910(%rip),%xmm0        # 16b80 <l_347.5258+0x1c0>
    a270:	76 07                	jbe    a279 <safe_sub_func_float_f_f+0x53>
    a272:	f3 0f 10 45 fc       	movss  -0x4(%rbp),%xmm0
    a277:	eb 0a                	jmp    a283 <safe_sub_func_float_f_f+0x5d>
    a279:	f3 0f 10 45 fc       	movss  -0x4(%rbp),%xmm0
    a27e:	f3 0f 5c 45 f8       	subss  -0x8(%rbp),%xmm0
    a283:	5d                   	pop    %rbp
    a284:	c3                   	retq   

000000000000a285 <safe_mul_func_float_f_f>:
    a285:	f3 0f 1e fa          	endbr64 
    a289:	55                   	push   %rbp
    a28a:	48 89 e5             	mov    %rsp,%rbp
    a28d:	f3 0f 11 45 fc       	movss  %xmm0,-0x4(%rbp)
    a292:	f3 0f 11 4d f8       	movss  %xmm1,-0x8(%rbp)
    a297:	f3 0f 10 4d fc       	movss  -0x4(%rbp),%xmm1
    a29c:	f3 0f 10 05 e0 c8 00 	movss  0xc8e0(%rip),%xmm0        # 16b84 <l_347.5258+0x1c4>
    a2a3:	00 
    a2a4:	f3 0f 59 c8          	mulss  %xmm0,%xmm1
    a2a8:	f3 0f 10 55 f8       	movss  -0x8(%rbp),%xmm2
    a2ad:	f3 0f 10 05 d3 c8 00 	movss  0xc8d3(%rip),%xmm0        # 16b88 <l_347.5258+0x1c8>
    a2b4:	00 
    a2b5:	f3 0f 59 c2          	mulss  %xmm2,%xmm0
    a2b9:	f3 0f 59 c1          	mulss  %xmm1,%xmm0
    a2bd:	f3 0f 10 0d ab c8 00 	movss  0xc8ab(%rip),%xmm1        # 16b70 <l_347.5258+0x1b0>
    a2c4:	00 
    a2c5:	0f 54 c1             	andps  %xmm1,%xmm0
    a2c8:	0f 2f 05 bd c8 00 00 	comiss 0xc8bd(%rip),%xmm0        # 16b8c <l_347.5258+0x1cc>
    a2cf:	76 07                	jbe    a2d8 <safe_mul_func_float_f_f+0x53>
    a2d1:	f3 0f 10 45 fc       	movss  -0x4(%rbp),%xmm0
    a2d6:	eb 0a                	jmp    a2e2 <safe_mul_func_float_f_f+0x5d>
    a2d8:	f3 0f 10 45 fc       	movss  -0x4(%rbp),%xmm0
    a2dd:	f3 0f 59 45 f8       	mulss  -0x8(%rbp),%xmm0
    a2e2:	5d                   	pop    %rbp
    a2e3:	c3                   	retq   

000000000000a2e4 <safe_div_func_float_f_f>:
    a2e4:	f3 0f 1e fa          	endbr64 
    a2e8:	55                   	push   %rbp
    a2e9:	48 89 e5             	mov    %rsp,%rbp
    a2ec:	f3 0f 11 45 fc       	movss  %xmm0,-0x4(%rbp)
    a2f1:	f3 0f 11 4d f8       	movss  %xmm1,-0x8(%rbp)
    a2f6:	f3 0f 10 45 f8       	movss  -0x8(%rbp),%xmm0
    a2fb:	f3 0f 10 0d 6d c8 00 	movss  0xc86d(%rip),%xmm1        # 16b70 <l_347.5258+0x1b0>
    a302:	00 
    a303:	0f 54 c8             	andps  %xmm0,%xmm1
    a306:	f3 0f 10 05 82 c8 00 	movss  0xc882(%rip),%xmm0        # 16b90 <l_347.5258+0x1d0>
    a30d:	00 
    a30e:	0f 2f c1             	comiss %xmm1,%xmm0
    a311:	0f 97 c0             	seta   %al
    a314:	83 f0 01             	xor    $0x1,%eax
    a317:	84 c0                	test   %al,%al
    a319:	75 56                	jne    a371 <safe_div_func_float_f_f+0x8d>
    a31b:	66 0f ef c0          	pxor   %xmm0,%xmm0
    a31f:	0f 2e 45 f8          	ucomiss -0x8(%rbp),%xmm0
    a323:	7a 0a                	jp     a32f <safe_div_func_float_f_f+0x4b>
    a325:	66 0f ef c0          	pxor   %xmm0,%xmm0
    a329:	0f 2e 45 f8          	ucomiss -0x8(%rbp),%xmm0
    a32d:	74 4e                	je     a37d <safe_div_func_float_f_f+0x99>
    a32f:	f3 0f 10 4d fc       	movss  -0x4(%rbp),%xmm1
    a334:	f3 0f 10 05 58 c8 00 	movss  0xc858(%rip),%xmm0        # 16b94 <l_347.5258+0x1d4>
    a33b:	00 
    a33c:	f3 0f 59 c1          	mulss  %xmm1,%xmm0
    a340:	f3 0f 10 55 f8       	movss  -0x8(%rbp),%xmm2
    a345:	f3 0f 10 0d 4b c8 00 	movss  0xc84b(%rip),%xmm1        # 16b98 <l_347.5258+0x1d8>
    a34c:	00 
    a34d:	f3 0f 59 ca          	mulss  %xmm2,%xmm1
    a351:	f3 0f 5e c1          	divss  %xmm1,%xmm0
    a355:	f3 0f 10 0d 13 c8 00 	movss  0xc813(%rip),%xmm1        # 16b70 <l_347.5258+0x1b0>
    a35c:	00 
    a35d:	0f 54 c1             	andps  %xmm1,%xmm0
    a360:	0f 2f 05 35 c8 00 00 	comiss 0xc835(%rip),%xmm0        # 16b9c <l_347.5258+0x1dc>
    a367:	0f 97 c0             	seta   %al
    a36a:	83 f0 01             	xor    $0x1,%eax
    a36d:	84 c0                	test   %al,%al
    a36f:	74 0c                	je     a37d <safe_div_func_float_f_f+0x99>
    a371:	f3 0f 10 45 fc       	movss  -0x4(%rbp),%xmm0
    a376:	f3 0f 5e 45 f8       	divss  -0x8(%rbp),%xmm0
    a37b:	eb 05                	jmp    a382 <safe_div_func_float_f_f+0x9e>
    a37d:	f3 0f 10 45 fc       	movss  -0x4(%rbp),%xmm0
    a382:	5d                   	pop    %rbp
    a383:	c3                   	retq   

000000000000a384 <safe_add_func_double_f_f>:
    a384:	f3 0f 1e fa          	endbr64 
    a388:	55                   	push   %rbp
    a389:	48 89 e5             	mov    %rsp,%rbp
    a38c:	f2 0f 11 45 f8       	movsd  %xmm0,-0x8(%rbp)
    a391:	f2 0f 11 4d f0       	movsd  %xmm1,-0x10(%rbp)
    a396:	f2 0f 10 4d f8       	movsd  -0x8(%rbp),%xmm1
    a39b:	f2 0f 10 05 fd c7 00 	movsd  0xc7fd(%rip),%xmm0        # 16ba0 <l_347.5258+0x1e0>
    a3a2:	00 
    a3a3:	f2 0f 59 c8          	mulsd  %xmm0,%xmm1
    a3a7:	f2 0f 10 55 f0       	movsd  -0x10(%rbp),%xmm2
    a3ac:	f2 0f 10 05 ec c7 00 	movsd  0xc7ec(%rip),%xmm0        # 16ba0 <l_347.5258+0x1e0>
    a3b3:	00 
    a3b4:	f2 0f 59 c2          	mulsd  %xmm2,%xmm0
    a3b8:	f2 0f 58 c1          	addsd  %xmm1,%xmm0
    a3bc:	f3 0f 7e 0d ec c7 00 	movq   0xc7ec(%rip),%xmm1        # 16bb0 <l_347.5258+0x1f0>
    a3c3:	00 
    a3c4:	66 0f 54 c1          	andpd  %xmm1,%xmm0
    a3c8:	66 0f 2f 05 f0 c7 00 	comisd 0xc7f0(%rip),%xmm0        # 16bc0 <l_347.5258+0x200>
    a3cf:	00 
    a3d0:	76 07                	jbe    a3d9 <safe_add_func_double_f_f+0x55>
    a3d2:	f2 0f 10 45 f8       	movsd  -0x8(%rbp),%xmm0
    a3d7:	eb 0a                	jmp    a3e3 <safe_add_func_double_f_f+0x5f>
    a3d9:	f2 0f 10 45 f8       	movsd  -0x8(%rbp),%xmm0
    a3de:	f2 0f 58 45 f0       	addsd  -0x10(%rbp),%xmm0
    a3e3:	5d                   	pop    %rbp
    a3e4:	c3                   	retq   

000000000000a3e5 <safe_sub_func_double_f_f>:
    a3e5:	f3 0f 1e fa          	endbr64 
    a3e9:	55                   	push   %rbp
    a3ea:	48 89 e5             	mov    %rsp,%rbp
    a3ed:	f2 0f 11 45 f8       	movsd  %xmm0,-0x8(%rbp)
    a3f2:	f2 0f 11 4d f0       	movsd  %xmm1,-0x10(%rbp)
    a3f7:	f2 0f 10 4d f8       	movsd  -0x8(%rbp),%xmm1
    a3fc:	f2 0f 10 05 9c c7 00 	movsd  0xc79c(%rip),%xmm0        # 16ba0 <l_347.5258+0x1e0>
    a403:	00 
    a404:	f2 0f 59 c1          	mulsd  %xmm1,%xmm0
    a408:	f2 0f 10 55 f0       	movsd  -0x10(%rbp),%xmm2
    a40d:	f2 0f 10 0d 8b c7 00 	movsd  0xc78b(%rip),%xmm1        # 16ba0 <l_347.5258+0x1e0>
    a414:	00 
    a415:	f2 0f 59 ca          	mulsd  %xmm2,%xmm1
    a419:	f2 0f 5c c1          	subsd  %xmm1,%xmm0
    a41d:	f3 0f 7e 0d 8b c7 00 	movq   0xc78b(%rip),%xmm1        # 16bb0 <l_347.5258+0x1f0>
    a424:	00 
    a425:	66 0f 54 c1          	andpd  %xmm1,%xmm0
    a429:	66 0f 2f 05 8f c7 00 	comisd 0xc78f(%rip),%xmm0        # 16bc0 <l_347.5258+0x200>
    a430:	00 
    a431:	76 07                	jbe    a43a <safe_sub_func_double_f_f+0x55>
    a433:	f2 0f 10 45 f8       	movsd  -0x8(%rbp),%xmm0
    a438:	eb 0a                	jmp    a444 <safe_sub_func_double_f_f+0x5f>
    a43a:	f2 0f 10 45 f8       	movsd  -0x8(%rbp),%xmm0
    a43f:	f2 0f 5c 45 f0       	subsd  -0x10(%rbp),%xmm0
    a444:	5d                   	pop    %rbp
    a445:	c3                   	retq   

000000000000a446 <safe_mul_func_double_f_f>:
    a446:	f3 0f 1e fa          	endbr64 
    a44a:	55                   	push   %rbp
    a44b:	48 89 e5             	mov    %rsp,%rbp
    a44e:	f2 0f 11 45 f8       	movsd  %xmm0,-0x8(%rbp)
    a453:	f2 0f 11 4d f0       	movsd  %xmm1,-0x10(%rbp)
    a458:	f2 0f 10 4d f8       	movsd  -0x8(%rbp),%xmm1
    a45d:	f2 0f 10 05 63 c7 00 	movsd  0xc763(%rip),%xmm0        # 16bc8 <l_347.5258+0x208>
    a464:	00 
    a465:	f2 0f 59 c8          	mulsd  %xmm0,%xmm1
    a469:	f2 0f 10 55 f0       	movsd  -0x10(%rbp),%xmm2
    a46e:	f2 0f 10 05 5a c7 00 	movsd  0xc75a(%rip),%xmm0        # 16bd0 <l_347.5258+0x210>
    a475:	00 
    a476:	f2 0f 59 c2          	mulsd  %xmm2,%xmm0
    a47a:	f2 0f 59 c1          	mulsd  %xmm1,%xmm0
    a47e:	f3 0f 7e 0d 2a c7 00 	movq   0xc72a(%rip),%xmm1        # 16bb0 <l_347.5258+0x1f0>
    a485:	00 
    a486:	66 0f 54 c1          	andpd  %xmm1,%xmm0
    a48a:	66 0f 2f 05 46 c7 00 	comisd 0xc746(%rip),%xmm0        # 16bd8 <l_347.5258+0x218>
    a491:	00 
    a492:	76 07                	jbe    a49b <safe_mul_func_double_f_f+0x55>
    a494:	f2 0f 10 45 f8       	movsd  -0x8(%rbp),%xmm0
    a499:	eb 0a                	jmp    a4a5 <safe_mul_func_double_f_f+0x5f>
    a49b:	f2 0f 10 45 f8       	movsd  -0x8(%rbp),%xmm0
    a4a0:	f2 0f 59 45 f0       	mulsd  -0x10(%rbp),%xmm0
    a4a5:	5d                   	pop    %rbp
    a4a6:	c3                   	retq   

000000000000a4a7 <safe_div_func_double_f_f>:
    a4a7:	f3 0f 1e fa          	endbr64 
    a4ab:	55                   	push   %rbp
    a4ac:	48 89 e5             	mov    %rsp,%rbp
    a4af:	f2 0f 11 45 f8       	movsd  %xmm0,-0x8(%rbp)
    a4b4:	f2 0f 11 4d f0       	movsd  %xmm1,-0x10(%rbp)
    a4b9:	f2 0f 10 45 f0       	movsd  -0x10(%rbp),%xmm0
    a4be:	f3 0f 7e 0d ea c6 00 	movq   0xc6ea(%rip),%xmm1        # 16bb0 <l_347.5258+0x1f0>
    a4c5:	00 
    a4c6:	66 0f 54 c8          	andpd  %xmm0,%xmm1
    a4ca:	f2 0f 10 05 0e c7 00 	movsd  0xc70e(%rip),%xmm0        # 16be0 <l_347.5258+0x220>
    a4d1:	00 
    a4d2:	66 0f 2f c1          	comisd %xmm1,%xmm0
    a4d6:	0f 97 c0             	seta   %al
    a4d9:	83 f0 01             	xor    $0x1,%eax
    a4dc:	84 c0                	test   %al,%al
    a4de:	75 5a                	jne    a53a <safe_div_func_double_f_f+0x93>
    a4e0:	66 0f ef c0          	pxor   %xmm0,%xmm0
    a4e4:	66 0f 2e 45 f0       	ucomisd -0x10(%rbp),%xmm0
    a4e9:	7a 0b                	jp     a4f6 <safe_div_func_double_f_f+0x4f>
    a4eb:	66 0f ef c0          	pxor   %xmm0,%xmm0
    a4ef:	66 0f 2e 45 f0       	ucomisd -0x10(%rbp),%xmm0
    a4f4:	74 50                	je     a546 <safe_div_func_double_f_f+0x9f>
    a4f6:	f2 0f 10 4d f8       	movsd  -0x8(%rbp),%xmm1
    a4fb:	f2 0f 10 05 e5 c6 00 	movsd  0xc6e5(%rip),%xmm0        # 16be8 <l_347.5258+0x228>
    a502:	00 
    a503:	f2 0f 59 c1          	mulsd  %xmm1,%xmm0
    a507:	f2 0f 10 55 f0       	movsd  -0x10(%rbp),%xmm2
    a50c:	f2 0f 10 0d dc c6 00 	movsd  0xc6dc(%rip),%xmm1        # 16bf0 <l_347.5258+0x230>
    a513:	00 
    a514:	f2 0f 59 ca          	mulsd  %xmm2,%xmm1
    a518:	f2 0f 5e c1          	divsd  %xmm1,%xmm0
    a51c:	f3 0f 7e 0d 8c c6 00 	movq   0xc68c(%rip),%xmm1        # 16bb0 <l_347.5258+0x1f0>
    a523:	00 
    a524:	66 0f 54 c1          	andpd  %xmm1,%xmm0
    a528:	66 0f 2f 05 c8 c6 00 	comisd 0xc6c8(%rip),%xmm0        # 16bf8 <l_347.5258+0x238>
    a52f:	00 
    a530:	0f 97 c0             	seta   %al
    a533:	83 f0 01             	xor    $0x1,%eax
    a536:	84 c0                	test   %al,%al
    a538:	74 0c                	je     a546 <safe_div_func_double_f_f+0x9f>
    a53a:	f2 0f 10 45 f8       	movsd  -0x8(%rbp),%xmm0
    a53f:	f2 0f 5e 45 f0       	divsd  -0x10(%rbp),%xmm0
    a544:	eb 05                	jmp    a54b <safe_div_func_double_f_f+0xa4>
    a546:	f2 0f 10 45 f8       	movsd  -0x8(%rbp),%xmm0
    a54b:	5d                   	pop    %rbp
    a54c:	c3                   	retq   

000000000000a54d <safe_convert_func_float_to_int32_t>:
    a54d:	f3 0f 1e fa          	endbr64 
    a551:	55                   	push   %rbp
    a552:	48 89 e5             	mov    %rsp,%rbp
    a555:	f3 0f 11 45 fc       	movss  %xmm0,-0x4(%rbp)
    a55a:	f3 0f 10 05 9e c6 00 	movss  0xc69e(%rip),%xmm0        # 16c00 <l_347.5258+0x240>
    a561:	00 
    a562:	0f 2f 45 fc          	comiss -0x4(%rbp),%xmm0
    a566:	0f 93 c0             	setae  %al
    a569:	83 f0 01             	xor    $0x1,%eax
    a56c:	84 c0                	test   %al,%al
    a56e:	74 21                	je     a591 <safe_convert_func_float_to_int32_t+0x44>
    a570:	f3 0f 10 45 fc       	movss  -0x4(%rbp),%xmm0
    a575:	0f 2f 05 88 c6 00 00 	comiss 0xc688(%rip),%xmm0        # 16c04 <l_347.5258+0x244>
    a57c:	0f 93 c0             	setae  %al
    a57f:	83 f0 01             	xor    $0x1,%eax
    a582:	84 c0                	test   %al,%al
    a584:	74 0b                	je     a591 <safe_convert_func_float_to_int32_t+0x44>
    a586:	f3 0f 10 45 fc       	movss  -0x4(%rbp),%xmm0
    a58b:	f3 0f 2c c0          	cvttss2si %xmm0,%eax
    a58f:	eb 05                	jmp    a596 <safe_convert_func_float_to_int32_t+0x49>
    a591:	b8 ff ff ff 7f       	mov    $0x7fffffff,%eax
    a596:	5d                   	pop    %rbp
    a597:	c3                   	retq   

000000000000a598 <crc32_gentab>:
    a598:	f3 0f 1e fa          	endbr64 
    a59c:	55                   	push   %rbp
    a59d:	48 89 e5             	mov    %rsp,%rbp
    a5a0:	c7 45 fc 20 83 b8 ed 	movl   $0xedb88320,-0x4(%rbp)
    a5a7:	c7 45 f4 00 00 00 00 	movl   $0x0,-0xc(%rbp)
    a5ae:	eb 51                	jmp    a601 <crc32_gentab+0x69>
    a5b0:	8b 45 f4             	mov    -0xc(%rbp),%eax
    a5b3:	89 45 f0             	mov    %eax,-0x10(%rbp)
    a5b6:	c7 45 f8 08 00 00 00 	movl   $0x8,-0x8(%rbp)
    a5bd:	eb 1e                	jmp    a5dd <crc32_gentab+0x45>
    a5bf:	8b 45 f0             	mov    -0x10(%rbp),%eax
    a5c2:	83 e0 01             	and    $0x1,%eax
    a5c5:	85 c0                	test   %eax,%eax
    a5c7:	74 0d                	je     a5d6 <crc32_gentab+0x3e>
    a5c9:	8b 45 f0             	mov    -0x10(%rbp),%eax
    a5cc:	d1 e8                	shr    %eax
    a5ce:	33 45 fc             	xor    -0x4(%rbp),%eax
    a5d1:	89 45 f0             	mov    %eax,-0x10(%rbp)
    a5d4:	eb 03                	jmp    a5d9 <crc32_gentab+0x41>
    a5d6:	d1 6d f0             	shrl   -0x10(%rbp)
    a5d9:	83 6d f8 01          	subl   $0x1,-0x8(%rbp)
    a5dd:	83 7d f8 00          	cmpl   $0x0,-0x8(%rbp)
    a5e1:	7f dc                	jg     a5bf <crc32_gentab+0x27>
    a5e3:	8b 45 f4             	mov    -0xc(%rbp),%eax
    a5e6:	48 98                	cltq   
    a5e8:	48 8d 0c 85 00 00 00 	lea    0x0(,%rax,4),%rcx
    a5ef:	00 
    a5f0:	48 8d 15 09 3c 01 00 	lea    0x13c09(%rip),%rdx        # 1e200 <crc32_tab>
    a5f7:	8b 45 f0             	mov    -0x10(%rbp),%eax
    a5fa:	89 04 11             	mov    %eax,(%rcx,%rdx,1)
    a5fd:	83 45 f4 01          	addl   $0x1,-0xc(%rbp)
    a601:	81 7d f4 ff 00 00 00 	cmpl   $0xff,-0xc(%rbp)
    a608:	7e a6                	jle    a5b0 <crc32_gentab+0x18>
    a60a:	90                   	nop
    a60b:	90                   	nop
    a60c:	5d                   	pop    %rbp
    a60d:	c3                   	retq   

000000000000a60e <crc32_byte>:
    a60e:	f3 0f 1e fa          	endbr64 
    a612:	55                   	push   %rbp
    a613:	48 89 e5             	mov    %rsp,%rbp
    a616:	89 f8                	mov    %edi,%eax
    a618:	88 45 fc             	mov    %al,-0x4(%rbp)
    a61b:	8b 05 ff f9 00 00    	mov    0xf9ff(%rip),%eax        # 1a020 <crc32_context>
    a621:	c1 e8 08             	shr    $0x8,%eax
    a624:	89 c1                	mov    %eax,%ecx
    a626:	0f b6 55 fc          	movzbl -0x4(%rbp),%edx
    a62a:	8b 05 f0 f9 00 00    	mov    0xf9f0(%rip),%eax        # 1a020 <crc32_context>
    a630:	31 d0                	xor    %edx,%eax
    a632:	0f b6 c0             	movzbl %al,%eax
    a635:	89 c0                	mov    %eax,%eax
    a637:	48 8d 14 85 00 00 00 	lea    0x0(,%rax,4),%rdx
    a63e:	00 
    a63f:	48 8d 05 ba 3b 01 00 	lea    0x13bba(%rip),%rax        # 1e200 <crc32_tab>
    a646:	8b 04 02             	mov    (%rdx,%rax,1),%eax
    a649:	31 c8                	xor    %ecx,%eax
    a64b:	89 05 cf f9 00 00    	mov    %eax,0xf9cf(%rip)        # 1a020 <crc32_context>
    a651:	90                   	nop
    a652:	5d                   	pop    %rbp
    a653:	c3                   	retq   

000000000000a654 <crc32_8bytes>:
    a654:	f3 0f 1e fa          	endbr64 
    a658:	55                   	push   %rbp
    a659:	48 89 e5             	mov    %rsp,%rbp
    a65c:	48 83 ec 08          	sub    $0x8,%rsp
    a660:	48 89 7d f8          	mov    %rdi,-0x8(%rbp)
    a664:	48 8b 45 f8          	mov    -0x8(%rbp),%rax
    a668:	0f b6 c0             	movzbl %al,%eax
    a66b:	89 c7                	mov    %eax,%edi
    a66d:	e8 9c ff ff ff       	callq  a60e <crc32_byte>
    a672:	48 8b 45 f8          	mov    -0x8(%rbp),%rax
    a676:	48 c1 e8 08          	shr    $0x8,%rax
    a67a:	0f b6 c0             	movzbl %al,%eax
    a67d:	89 c7                	mov    %eax,%edi
    a67f:	e8 8a ff ff ff       	callq  a60e <crc32_byte>
    a684:	48 8b 45 f8          	mov    -0x8(%rbp),%rax
    a688:	48 c1 e8 10          	shr    $0x10,%rax
    a68c:	0f b6 c0             	movzbl %al,%eax
    a68f:	89 c7                	mov    %eax,%edi
    a691:	e8 78 ff ff ff       	callq  a60e <crc32_byte>
    a696:	48 8b 45 f8          	mov    -0x8(%rbp),%rax
    a69a:	48 c1 e8 18          	shr    $0x18,%rax
    a69e:	0f b6 c0             	movzbl %al,%eax
    a6a1:	89 c7                	mov    %eax,%edi
    a6a3:	e8 66 ff ff ff       	callq  a60e <crc32_byte>
    a6a8:	48 8b 45 f8          	mov    -0x8(%rbp),%rax
    a6ac:	48 c1 e8 20          	shr    $0x20,%rax
    a6b0:	0f b6 c0             	movzbl %al,%eax
    a6b3:	89 c7                	mov    %eax,%edi
    a6b5:	e8 54 ff ff ff       	callq  a60e <crc32_byte>
    a6ba:	48 8b 45 f8          	mov    -0x8(%rbp),%rax
    a6be:	48 c1 e8 28          	shr    $0x28,%rax
    a6c2:	0f b6 c0             	movzbl %al,%eax
    a6c5:	89 c7                	mov    %eax,%edi
    a6c7:	e8 42 ff ff ff       	callq  a60e <crc32_byte>
    a6cc:	48 8b 45 f8          	mov    -0x8(%rbp),%rax
    a6d0:	48 c1 e8 30          	shr    $0x30,%rax
    a6d4:	0f b6 c0             	movzbl %al,%eax
    a6d7:	89 c7                	mov    %eax,%edi
    a6d9:	e8 30 ff ff ff       	callq  a60e <crc32_byte>
    a6de:	48 8b 45 f8          	mov    -0x8(%rbp),%rax
    a6e2:	48 c1 e8 38          	shr    $0x38,%rax
    a6e6:	0f b6 c0             	movzbl %al,%eax
    a6e9:	89 c7                	mov    %eax,%edi
    a6eb:	e8 1e ff ff ff       	callq  a60e <crc32_byte>
    a6f0:	90                   	nop
    a6f1:	c9                   	leaveq 
    a6f2:	c3                   	retq   

000000000000a6f3 <transparent_crc>:
    a6f3:	f3 0f 1e fa          	endbr64 
    a6f7:	55                   	push   %rbp
    a6f8:	48 89 e5             	mov    %rsp,%rbp
    a6fb:	48 83 ec 20          	sub    $0x20,%rsp
    a6ff:	48 89 7d f8          	mov    %rdi,-0x8(%rbp)
    a703:	48 89 75 f0          	mov    %rsi,-0x10(%rbp)
    a707:	89 55 ec             	mov    %edx,-0x14(%rbp)
    a70a:	48 8b 45 f8          	mov    -0x8(%rbp),%rax
    a70e:	48 89 c7             	mov    %rax,%rdi
    a711:	e8 3e ff ff ff       	callq  a654 <crc32_8bytes>
    a716:	83 7d ec 00          	cmpl   $0x0,-0x14(%rbp)
    a71a:	74 22                	je     a73e <transparent_crc+0x4b>
    a71c:	8b 05 fe f8 00 00    	mov    0xf8fe(%rip),%eax        # 1a020 <crc32_context>
    a722:	f7 d0                	not    %eax
    a724:	89 c2                	mov    %eax,%edx
    a726:	48 8b 45 f0          	mov    -0x10(%rbp),%rax
    a72a:	48 89 c6             	mov    %rax,%rsi
    a72d:	48 8d 3d fc a8 00 00 	lea    0xa8fc(%rip),%rdi        # 15030 <_IO_stdin_used+0x30>
    a734:	b8 00 00 00 00       	mov    $0x0,%eax
    a739:	e8 42 e9 ff ff       	callq  9080 <printf@plt>
    a73e:	90                   	nop
    a73f:	c9                   	leaveq 
    a740:	c3                   	retq   

000000000000a741 <transparent_crc_bytes>:
    a741:	f3 0f 1e fa          	endbr64 
    a745:	55                   	push   %rbp
    a746:	48 89 e5             	mov    %rsp,%rbp
    a749:	48 83 ec 30          	sub    $0x30,%rsp
    a74d:	48 89 7d e8          	mov    %rdi,-0x18(%rbp)
    a751:	89 75 e4             	mov    %esi,-0x1c(%rbp)
    a754:	48 89 55 d8          	mov    %rdx,-0x28(%rbp)
    a758:	89 4d e0             	mov    %ecx,-0x20(%rbp)
    a75b:	c7 45 fc 00 00 00 00 	movl   $0x0,-0x4(%rbp)
    a762:	eb 1e                	jmp    a782 <transparent_crc_bytes+0x41>
    a764:	8b 45 fc             	mov    -0x4(%rbp),%eax
    a767:	48 63 d0             	movslq %eax,%rdx
    a76a:	48 8b 45 e8          	mov    -0x18(%rbp),%rax
    a76e:	48 01 d0             	add    %rdx,%rax
    a771:	0f b6 00             	movzbl (%rax),%eax
    a774:	0f b6 c0             	movzbl %al,%eax
    a777:	89 c7                	mov    %eax,%edi
    a779:	e8 90 fe ff ff       	callq  a60e <crc32_byte>
    a77e:	83 45 fc 01          	addl   $0x1,-0x4(%rbp)
    a782:	8b 45 fc             	mov    -0x4(%rbp),%eax
    a785:	3b 45 e4             	cmp    -0x1c(%rbp),%eax
    a788:	7c da                	jl     a764 <transparent_crc_bytes+0x23>
    a78a:	83 7d e0 00          	cmpl   $0x0,-0x20(%rbp)
    a78e:	74 22                	je     a7b2 <transparent_crc_bytes+0x71>
    a790:	8b 05 8a f8 00 00    	mov    0xf88a(%rip),%eax        # 1a020 <crc32_context>
    a796:	f7 d0                	not    %eax
    a798:	89 c2                	mov    %eax,%edx
    a79a:	48 8b 45 d8          	mov    -0x28(%rbp),%rax
    a79e:	48 89 c6             	mov    %rax,%rsi
    a7a1:	48 8d 3d 88 a8 00 00 	lea    0xa888(%rip),%rdi        # 15030 <_IO_stdin_used+0x30>
    a7a8:	b8 00 00 00 00       	mov    $0x0,%eax
    a7ad:	e8 ce e8 ff ff       	callq  9080 <printf@plt>
    a7b2:	90                   	nop
    a7b3:	c9                   	leaveq 
    a7b4:	c3                   	retq   

000000000000a7b5 <func_1>:
    a7b5:	f3 0f 1e fa          	endbr64 
    a7b9:	55                   	push   %rbp
    a7ba:	48 89 e5             	mov    %rsp,%rbp
    a7bd:	41 57                	push   %r15
    a7bf:	41 56                	push   %r14
    a7c1:	41 55                	push   %r13
    a7c3:	41 54                	push   %r12
    a7c5:	53                   	push   %rbx
    a7c6:	48 81 ec 00 10 00 00 	sub    $0x1000,%rsp
    a7cd:	48 83 0c 24 00       	orq    $0x0,(%rsp)
    a7d2:	48 81 ec 48 07 00 00 	sub    $0x748,%rsp
    a7d9:	64 48 8b 04 25 28 00 	mov    %fs:0x28,%rax
    a7e0:	00 00 
    a7e2:	48 89 45 c8          	mov    %rax,-0x38(%rbp)
    a7e6:	31 c0                	xor    %eax,%eax
    a7e8:	c7 85 14 e9 ff ff 01 	movl   $0x1,-0x16ec(%rbp)
    a7ef:	00 00 00 
    a7f2:	48 8d 85 00 f2 ff ff 	lea    -0xe00(%rbp),%rax
    a7f9:	48 8d 15 80 a8 00 00 	lea    0xa880(%rip),%rdx        # 15080 <g_2357+0x10>
    a800:	b9 6c 00 00 00       	mov    $0x6c,%ecx
    a805:	48 89 c7             	mov    %rax,%rdi
    a808:	48 89 d6             	mov    %rdx,%rsi
    a80b:	f3 48 a5             	rep movsq %ds:(%rsi),%es:(%rdi)
    a80e:	48 8d 05 13 2c 01 00 	lea    0x12c13(%rip),%rax        # 1d428 <g_1744>
    a815:	48 89 85 d0 e9 ff ff 	mov    %rax,-0x1630(%rbp)
    a81c:	c7 85 18 e9 ff ff 00 	movl   $0x0,-0x16e8(%rbp)
    a823:	00 00 00 
    a826:	48 8d 05 73 34 01 00 	lea    0x13473(%rip),%rax        # 1dca0 <g_2778+0x20>
    a82d:	48 89 85 60 ec ff ff 	mov    %rax,-0x13a0(%rbp)
    a834:	48 8d 05 65 34 01 00 	lea    0x13465(%rip),%rax        # 1dca0 <g_2778+0x20>
    a83b:	48 89 85 68 ec ff ff 	mov    %rax,-0x1398(%rbp)
    a842:	48 8d 05 57 34 01 00 	lea    0x13457(%rip),%rax        # 1dca0 <g_2778+0x20>
    a849:	48 89 85 70 ec ff ff 	mov    %rax,-0x1390(%rbp)
    a850:	48 8d 05 49 34 01 00 	lea    0x13449(%rip),%rax        # 1dca0 <g_2778+0x20>
    a857:	48 89 85 78 ec ff ff 	mov    %rax,-0x1388(%rbp)
    a85e:	48 8d 05 23 34 01 00 	lea    0x13423(%rip),%rax        # 1dc88 <g_2778+0x8>
    a865:	48 89 85 d8 e9 ff ff 	mov    %rax,-0x1628(%rbp)
    a86c:	48 8d 05 a5 2a 01 00 	lea    0x12aa5(%rip),%rax        # 1d318 <g_1656>
    a873:	48 89 85 88 e9 ff ff 	mov    %rax,-0x1678(%rbp)
    a87a:	48 8d 05 9f 29 01 00 	lea    0x1299f(%rip),%rax        # 1d220 <g_1414>
    a881:	48 89 85 e0 e9 ff ff 	mov    %rax,-0x1620(%rbp)
    a888:	48 8d 85 60 f5 ff ff 	lea    -0xaa0(%rbp),%rax
    a88f:	48 8d 15 0a 03 01 00 	lea    0x1030a(%rip),%rdx        # 1aba0 <g_3271+0x1c>
    a896:	b9 78 00 00 00       	mov    $0x78,%ecx
    a89b:	48 89 c7             	mov    %rax,%rdi
    a89e:	48 89 d6             	mov    %rdx,%rsi
    a8a1:	f3 48 a5             	rep movsq %ds:(%rsi),%es:(%rdi)
    a8a4:	48 c7 85 90 e9 ff ff 	movq   $0x1,-0x1670(%rbp)
    a8ab:	01 00 00 00 
    a8af:	c7 85 d4 e8 ff ff 00 	movl   $0x0,-0x172c(%rbp)
    a8b6:	00 00 00 
    a8b9:	66 c7 85 c4 e8 ff ff 	movw   $0xffff,-0x173c(%rbp)
    a8c0:	ff ff 
    a8c2:	c6 85 bd e8 ff ff fa 	movb   $0xfa,-0x1743(%rbp)
    a8c9:	48 b8 94 58 f0 5f 2c 	movabs $0x4f80312c5ff05894,%rax
    a8d0:	31 80 4f 
    a8d3:	48 89 85 e8 e9 ff ff 	mov    %rax,-0x1618(%rbp)
    a8da:	c7 85 d8 e8 ff ff 2c 	movl   $0xbc18062c,-0x1728(%rbp)
    a8e1:	06 18 bc 
    a8e4:	66 c7 85 c6 e8 ff ff 	movw   $0x8ef3,-0x173a(%rbp)
    a8eb:	f3 8e 
    a8ed:	48 8d 85 d0 ec ff ff 	lea    -0x1330(%rbp),%rax
    a8f4:	48 83 c0 49          	add    $0x49,%rax
    a8f8:	48 89 85 f0 e9 ff ff 	mov    %rax,-0x1610(%rbp)
    a8ff:	66 c7 85 c8 e8 ff ff 	movw   $0x3,-0x1738(%rbp)
    a906:	03 00 
    a908:	c7 85 dc e8 ff ff 00 	movl   $0x0,-0x1724(%rbp)
    a90f:	00 00 00 
    a912:	e9 82 00 00 00       	jmpq   a999 <func_1+0x1e4>
    a917:	c7 85 e0 e8 ff ff 00 	movl   $0x0,-0x1720(%rbp)
    a91e:	00 00 00 
    a921:	eb 66                	jmp    a989 <func_1+0x1d4>
    a923:	c7 85 e4 e8 ff ff 00 	movl   $0x0,-0x171c(%rbp)
    a92a:	00 00 00 
    a92d:	eb 4a                	jmp    a979 <func_1+0x1c4>
    a92f:	8b 85 e4 e8 ff ff    	mov    -0x171c(%rbp),%eax
    a935:	48 63 f0             	movslq %eax,%rsi
    a938:	8b 85 dc e8 ff ff    	mov    -0x1724(%rbp),%eax
    a93e:	48 98                	cltq   
    a940:	8b 95 e0 e8 ff ff    	mov    -0x1720(%rbp),%edx
    a946:	48 63 ca             	movslq %edx,%rcx
    a949:	48 89 c2             	mov    %rax,%rdx
    a94c:	48 c1 e2 03          	shl    $0x3,%rdx
    a950:	48 01 c2             	add    %rax,%rdx
    a953:	48 89 c8             	mov    %rcx,%rax
    a956:	48 01 c0             	add    %rax,%rax
    a959:	48 01 c8             	add    %rcx,%rax
    a95c:	48 01 d0             	add    %rdx,%rax
    a95f:	48 8d 5d d0          	lea    -0x30(%rbp),%rbx
    a963:	48 01 d8             	add    %rbx,%rax
    a966:	48 01 f0             	add    %rsi,%rax
    a969:	48 2d 00 13 00 00    	sub    $0x1300,%rax
    a96f:	c6 00 ff             	movb   $0xff,(%rax)
    a972:	83 85 e4 e8 ff ff 01 	addl   $0x1,-0x171c(%rbp)
    a979:	83 bd e4 e8 ff ff 02 	cmpl   $0x2,-0x171c(%rbp)
    a980:	7e ad                	jle    a92f <func_1+0x17a>
    a982:	83 85 e0 e8 ff ff 01 	addl   $0x1,-0x1720(%rbp)
    a989:	83 bd e0 e8 ff ff 02 	cmpl   $0x2,-0x1720(%rbp)
    a990:	7e 91                	jle    a923 <func_1+0x16e>
    a992:	83 85 dc e8 ff ff 01 	addl   $0x1,-0x1724(%rbp)
    a999:	83 bd dc e8 ff ff 08 	cmpl   $0x8,-0x1724(%rbp)
    a9a0:	0f 8e 71 ff ff ff    	jle    a917 <func_1+0x162>
    a9a6:	90                   	nop
    a9a7:	c7 05 6f f7 00 00 02 	movl   $0x2,0xf76f(%rip)        # 1a120 <g_4>
    a9ae:	00 00 00 
    a9b1:	e9 64 01 00 00       	jmpq   ab1a <func_1+0x365>
    a9b6:	48 8d 85 d0 ec ff ff 	lea    -0x1330(%rbp),%rax
    a9bd:	48 83 c0 14          	add    $0x14,%rax
    a9c1:	48 89 85 78 eb ff ff 	mov    %rax,-0x1488(%rbp)
    a9c8:	c6 85 b8 e9 ff ff 01 	movb   $0x1,-0x1648(%rbp)
    a9cf:	48 8d 85 b8 e9 ff ff 	lea    -0x1648(%rbp),%rax
    a9d6:	48 89 85 80 eb ff ff 	mov    %rax,-0x1480(%rbp)
    a9dd:	c7 85 70 e9 ff ff ff 	movl   $0xffffffff,-0x1690(%rbp)
    a9e4:	ff ff ff 
    a9e7:	48 8d 05 f6 fa 00 00 	lea    0xfaf6(%rip),%rax        # 1a4e4 <g_1562>
    a9ee:	48 89 85 88 eb ff ff 	mov    %rax,-0x1478(%rbp)
    a9f5:	c7 85 c0 e9 ff ff e8 	movl   $0x59ab37e8,-0x1640(%rbp)
    a9fc:	37 ab 59 
    a9ff:	c7 85 74 e9 ff ff 6c 	movl   $0x665a4a6c,-0x168c(%rbp)
    aa06:	4a 5a 66 
    aa09:	c7 85 78 e9 ff ff 64 	movl   $0xdfee6664,-0x1688(%rbp)
    aa10:	66 ee df 
    aa13:	c7 85 7c e9 ff ff aa 	movl   $0xc745eaaa,-0x1684(%rbp)
    aa1a:	ea 45 c7 
    aa1d:	48 8d 85 c0 e9 ff ff 	lea    -0x1640(%rbp),%rax
    aa24:	48 89 85 90 eb ff ff 	mov    %rax,-0x1470(%rbp)
    aa2b:	c7 85 c0 ef ff ff e9 	movl   $0x9d5ef3e9,-0x1040(%rbp)
    aa32:	f3 5e 9d 
    aa35:	c7 85 c4 ef ff ff e9 	movl   $0x9d5ef3e9,-0x103c(%rbp)
    aa3c:	f3 5e 9d 
    aa3f:	c7 85 c8 ef ff ff e9 	movl   $0x9d5ef3e9,-0x1038(%rbp)
    aa46:	f3 5e 9d 
    aa49:	c7 85 cc ef ff ff e9 	movl   $0x9d5ef3e9,-0x1034(%rbp)
    aa50:	f3 5e 9d 
    aa53:	c7 85 d0 ef ff ff e9 	movl   $0x9d5ef3e9,-0x1030(%rbp)
    aa5a:	f3 5e 9d 
    aa5d:	48 c7 85 98 eb ff ff 	movq   $0x0,-0x1468(%rbp)
    aa64:	00 00 00 00 
    aa68:	48 8d 05 d1 22 01 00 	lea    0x122d1(%rip),%rax        # 1cd40 <g_153>
    aa6f:	48 89 85 a0 eb ff ff 	mov    %rax,-0x1460(%rbp)
    aa76:	48 8d 85 88 e9 ff ff 	lea    -0x1678(%rbp),%rax
    aa7d:	48 89 85 a8 eb ff ff 	mov    %rax,-0x1458(%rbp)
    aa84:	c7 85 80 e9 ff ff 68 	movl   $0xa87a8d68,-0x1680(%rbp)
    aa8b:	8d 7a a8 
    aa8e:	48 c7 85 b0 eb ff ff 	movq   $0x0,-0x1450(%rbp)
    aa95:	00 00 00 00 
    aa99:	c7 85 84 e9 ff ff 01 	movl   $0x1,-0x167c(%rbp)
    aaa0:	00 00 00 
    aaa3:	c6 85 c3 e8 ff ff 10 	movb   $0x10,-0x173d(%rbp)
    aaaa:	c7 85 e8 e8 ff ff 00 	movl   $0x0,-0x1718(%rbp)
    aab1:	00 00 00 
    aab4:	eb 4c                	jmp    ab02 <func_1+0x34d>
    aab6:	c7 85 ec e8 ff ff 00 	movl   $0x0,-0x1714(%rbp)
    aabd:	00 00 00 
    aac0:	eb 30                	jmp    aaf2 <func_1+0x33d>
    aac2:	8b 85 ec e8 ff ff    	mov    -0x1714(%rbp),%eax
    aac8:	48 63 c8             	movslq %eax,%rcx
    aacb:	8b 85 e8 e8 ff ff    	mov    -0x1718(%rbp),%eax
    aad1:	48 63 d0             	movslq %eax,%rdx
    aad4:	48 89 d0             	mov    %rdx,%rax
    aad7:	48 01 c0             	add    %rax,%rax
    aada:	48 01 d0             	add    %rdx,%rax
    aadd:	48 01 c8             	add    %rcx,%rax
    aae0:	c7 84 85 20 f9 ff ff 	movl   $0x0,-0x6e0(%rbp,%rax,4)
    aae7:	00 00 00 00 
    aaeb:	83 85 ec e8 ff ff 01 	addl   $0x1,-0x1714(%rbp)
    aaf2:	83 bd ec e8 ff ff 02 	cmpl   $0x2,-0x1714(%rbp)
    aaf9:	7e c7                	jle    aac2 <func_1+0x30d>
    aafb:	83 85 e8 e8 ff ff 01 	addl   $0x1,-0x1718(%rbp)
    ab02:	83 bd e8 e8 ff ff 01 	cmpl   $0x1,-0x1718(%rbp)
    ab09:	7e ab                	jle    aab6 <func_1+0x301>
    ab0b:	8b 05 0f f6 00 00    	mov    0xf60f(%rip),%eax        # 1a120 <g_4>
    ab11:	83 e8 01             	sub    $0x1,%eax
    ab14:	89 05 06 f6 00 00    	mov    %eax,0xf606(%rip)        # 1a120 <g_4>
    ab1a:	8b 05 00 f6 00 00    	mov    0xf600(%rip),%eax        # 1a120 <g_4>
    ab20:	85 c0                	test   %eax,%eax
    ab22:	0f 89 8e fe ff ff    	jns    a9b6 <func_1+0x201>
    ab28:	66 c7 05 b3 f9 00 00 	movw   $0x3,0xf9b3(%rip)        # 1a4e4 <g_1562>
    ab2f:	03 00 
    ab31:	e9 e1 39 00 00       	jmpq   e517 <func_1+0x3d62>
    ab36:	48 c7 85 f8 e9 ff ff 	movq   $0x0,-0x1608(%rbp)
    ab3d:	00 00 00 00 
    ab41:	48 8d 05 d8 f5 00 00 	lea    0xf5d8(%rip),%rax        # 1a120 <g_4>
    ab48:	48 89 85 98 e9 ff ff 	mov    %rax,-0x1668(%rbp)
    ab4f:	48 8d 05 5a f6 00 00 	lea    0xf65a(%rip),%rax        # 1a1b0 <g_234>
    ab56:	48 89 85 00 ea ff ff 	mov    %rax,-0x1600(%rbp)
    ab5d:	48 c7 85 08 ea ff ff 	movq   $0x0,-0x15f8(%rbp)
    ab64:	00 00 00 00 
    ab68:	c7 85 1c e9 ff ff ef 	movl   $0xc4b3a9ef,-0x16e4(%rbp)
    ab6f:	a9 b3 c4 
    ab72:	48 8d 05 bf 28 01 00 	lea    0x128bf(%rip),%rax        # 1d438 <g_1823>
    ab79:	48 89 85 a0 e9 ff ff 	mov    %rax,-0x1660(%rbp)
    ab80:	48 c7 85 10 ea ff ff 	movq   $0x0,-0x15f0(%rbp)
    ab87:	00 00 00 00 
    ab8b:	48 c7 85 18 ea ff ff 	movq   $0x0,-0x15e8(%rbp)
    ab92:	00 00 00 00 
    ab96:	c6 85 be e8 ff ff 06 	movb   $0x6,-0x1742(%rbp)
    ab9d:	c7 85 20 e9 ff ff fc 	movl   $0xfffffffc,-0x16e0(%rbp)
    aba4:	ff ff ff 
    aba7:	48 8d 05 12 ff 00 00 	lea    0xff12(%rip),%rax        # 1aac0 <g_2521>
    abae:	48 89 85 20 ea ff ff 	mov    %rax,-0x15e0(%rbp)
    abb5:	c7 85 80 ec ff ff aa 	movl   $0x52ed52aa,-0x1380(%rbp)
    abbc:	52 ed 52 
    abbf:	c7 85 84 ec ff ff b1 	movl   $0x12a13fb1,-0x137c(%rbp)
    abc6:	3f a1 12 
    abc9:	c7 85 88 ec ff ff f9 	movl   $0x29aa00f9,-0x1378(%rbp)
    abd0:	00 aa 29 
    abd3:	c7 85 8c ec ff ff 01 	movl   $0xf9290801,-0x1374(%rbp)
    abda:	08 29 f9 
    abdd:	c7 85 90 ec ff ff 01 	movl   $0xaaaad901,-0x1370(%rbp)
    abe4:	d9 aa aa 
    abe7:	c7 85 94 ec ff ff f9 	movl   $0x36a1f9f9,-0x136c(%rbp)
    abee:	f9 a1 36 
    abf1:	c7 85 98 ec ff ff b1 	movl   $0x3feda1b1,-0x1368(%rbp)
    abf8:	a1 ed 3f 
    abfb:	c7 85 9c ec ff ff aa 	movl   $0xed0627aa,-0x1364(%rbp)
    ac02:	27 06 ed 
    ac05:	c7 85 a0 ec ff ff ed 	movl   $0x3ff927ed,-0x1360(%rbp)
    ac0c:	27 f9 3f 
    ac0f:	c7 85 a4 ec ff ff 27 	movl   $0x3627a127,-0x135c(%rbp)
    ac16:	a1 27 36 
    ac19:	c7 85 a8 ec ff ff d9 	movl   $0xaa00f9d9,-0x1358(%rbp)
    ac20:	f9 00 aa 
    ac23:	c7 85 ac ec ff ff 12 	movl   $0xf936d912,-0x1354(%rbp)
    ac2a:	d9 36 f9 
    ac2d:	c7 85 b0 ec ff ff 3f 	movl   $0x2936083f,-0x1350(%rbp)
    ac34:	08 36 29 
    ac37:	c7 85 b4 ec ff ff 12 	movl   $0x12000012,-0x134c(%rbp)
    ac3e:	00 00 12 
    ac41:	c7 85 b8 ec ff ff d9 	movl   $0x52273fd9,-0x1348(%rbp)
    ac48:	3f 27 52 
    ac4b:	c7 85 bc ec ff ff 27 	movl   $0x8f95227,-0x1344(%rbp)
    ac52:	52 f9 08 
    ac55:	c7 85 c0 ec ff ff ed 	movl   $0x80601ed,-0x1340(%rbp)
    ac5c:	01 06 08 
    ac5f:	c7 85 c4 ec ff ff aa 	movl   $0x52ed52aa,-0x133c(%rbp)
    ac66:	52 ed 52 
    ac69:	c7 85 c8 ec ff ff b1 	movl   $0x12a13fb1,-0x1338(%rbp)
    ac70:	3f a1 12 
    ac73:	c7 85 cc ec ff ff f9 	movl   $0x29aa00f9,-0x1334(%rbp)
    ac7a:	00 aa 29 
    ac7d:	48 c7 85 a8 e9 ff ff 	movq   $0x0,-0x1658(%rbp)
    ac84:	00 00 00 00 
    ac88:	48 8d 85 a8 e9 ff ff 	lea    -0x1658(%rbp),%rax
    ac8f:	48 89 85 28 ea ff ff 	mov    %rax,-0x15d8(%rbp)
    ac96:	48 8d 85 c0 ef ff ff 	lea    -0x1040(%rbp),%rax
    ac9d:	48 8d 15 3c a7 00 00 	lea    0xa73c(%rip),%rdx        # 153e0 <g_2357+0x370>
    aca4:	b9 48 00 00 00       	mov    $0x48,%ecx
    aca9:	48 89 c7             	mov    %rax,%rdi
    acac:	48 89 d6             	mov    %rdx,%rsi
    acaf:	f3 48 a5             	rep movsq %ds:(%rsi),%es:(%rdi)
    acb2:	c7 85 f0 e8 ff ff 00 	movl   $0x0,-0x1710(%rbp)
    acb9:	00 00 00 
    acbc:	eb 25                	jmp    ace3 <func_1+0x52e>
    acbe:	8b 85 f0 e8 ff ff    	mov    -0x1710(%rbp),%eax
    acc4:	48 98                	cltq   
    acc6:	48 8d 95 00 f2 ff ff 	lea    -0xe00(%rbp),%rdx
    accd:	48 81 c2 e4 00 00 00 	add    $0xe4,%rdx
    acd4:	48 89 94 c5 e0 eb ff 	mov    %rdx,-0x1420(%rbp,%rax,8)
    acdb:	ff 
    acdc:	83 85 f0 e8 ff ff 01 	addl   $0x1,-0x1710(%rbp)
    ace3:	83 bd f0 e8 ff ff 02 	cmpl   $0x2,-0x1710(%rbp)
    acea:	7e d2                	jle    acbe <func_1+0x509>
    acec:	c7 85 f0 e8 ff ff 00 	movl   $0x0,-0x1710(%rbp)
    acf3:	00 00 00 
    acf6:	eb 44                	jmp    ad3c <func_1+0x587>
    acf8:	c7 85 f4 e8 ff ff 00 	movl   $0x0,-0x170c(%rbp)
    acff:	00 00 00 
    ad02:	eb 28                	jmp    ad2c <func_1+0x577>
    ad04:	8b 85 f4 e8 ff ff    	mov    -0x170c(%rbp),%eax
    ad0a:	48 98                	cltq   
    ad0c:	8b 95 f0 e8 ff ff    	mov    -0x1710(%rbp),%edx
    ad12:	48 63 d2             	movslq %edx,%rdx
    ad15:	48 01 d2             	add    %rdx,%rdx
    ad18:	48 01 d0             	add    %rdx,%rax
    ad1b:	66 c7 84 45 00 ec ff 	movw   $0x87a1,-0x1400(%rbp,%rax,2)
    ad22:	ff a1 87 
    ad25:	83 85 f4 e8 ff ff 01 	addl   $0x1,-0x170c(%rbp)
    ad2c:	83 bd f4 e8 ff ff 01 	cmpl   $0x1,-0x170c(%rbp)
    ad33:	7e cf                	jle    ad04 <func_1+0x54f>
    ad35:	83 85 f0 e8 ff ff 01 	addl   $0x1,-0x1710(%rbp)
    ad3c:	83 bd f0 e8 ff ff 05 	cmpl   $0x5,-0x1710(%rbp)
    ad43:	7e b3                	jle    acf8 <func_1+0x543>
    ad45:	0f b7 85 0c ec ff ff 	movzwl -0x13f4(%rbp),%eax
    ad4c:	83 e8 01             	sub    $0x1,%eax
    ad4f:	66 89 85 0c ec ff ff 	mov    %ax,-0x13f4(%rbp)
    ad56:	48 8b 05 1b 20 01 00 	mov    0x1201b(%rip),%rax        # 1cd78 <g_418>
    ad5d:	8b 00                	mov    (%rax),%eax
    ad5f:	85 c0                	test   %eax,%eax
    ad61:	0f 85 c3 37 00 00    	jne    e52a <func_1+0x3d75>
    ad67:	48 8b 05 12 2e 01 00 	mov    0x12e12(%rip),%rax        # 1db80 <g_2527>
    ad6e:	48 8b 00             	mov    (%rax),%rax
    ad71:	8b 00                	mov    (%rax),%eax
    ad73:	85 c0                	test   %eax,%eax
    ad75:	0f 84 7e 13 00 00    	je     c0f9 <func_1+0x1944>
    ad7b:	48 8d 85 00 f2 ff ff 	lea    -0xe00(%rbp),%rax
    ad82:	48 05 f4 02 00 00    	add    $0x2f4,%rax
    ad88:	48 89 85 20 f9 ff ff 	mov    %rax,-0x6e0(%rbp)
    ad8f:	48 8d 85 d4 e8 ff ff 	lea    -0x172c(%rbp),%rax
    ad96:	48 89 85 28 f9 ff ff 	mov    %rax,-0x6d8(%rbp)
    ad9d:	48 8d 05 7c f3 00 00 	lea    0xf37c(%rip),%rax        # 1a120 <g_4>
    ada4:	48 89 85 30 f9 ff ff 	mov    %rax,-0x6d0(%rbp)
    adab:	48 8d 05 fe f3 00 00 	lea    0xf3fe(%rip),%rax        # 1a1b0 <g_234>
    adb2:	48 89 85 38 f9 ff ff 	mov    %rax,-0x6c8(%rbp)
    adb9:	48 8d 05 60 f3 00 00 	lea    0xf360(%rip),%rax        # 1a120 <g_4>
    adc0:	48 89 85 40 f9 ff ff 	mov    %rax,-0x6c0(%rbp)
    adc7:	48 8d 85 00 f2 ff ff 	lea    -0xe00(%rbp),%rax
    adce:	48 05 f4 02 00 00    	add    $0x2f4,%rax
    add4:	48 89 85 48 f9 ff ff 	mov    %rax,-0x6b8(%rbp)
    addb:	48 8d 85 00 f2 ff ff 	lea    -0xe00(%rbp),%rax
    ade2:	48 05 f4 02 00 00    	add    $0x2f4,%rax
    ade8:	48 89 85 50 f9 ff ff 	mov    %rax,-0x6b0(%rbp)
    adef:	48 8d 05 ba f3 00 00 	lea    0xf3ba(%rip),%rax        # 1a1b0 <g_234>
    adf6:	48 89 85 58 f9 ff ff 	mov    %rax,-0x6a8(%rbp)
    adfd:	48 8d 05 24 f3 00 00 	lea    0xf324(%rip),%rax        # 1a128 <g_86>
    ae04:	48 89 85 60 f9 ff ff 	mov    %rax,-0x6a0(%rbp)
    ae0b:	48 8d 05 16 f3 00 00 	lea    0xf316(%rip),%rax        # 1a128 <g_86>
    ae12:	48 89 85 68 f9 ff ff 	mov    %rax,-0x698(%rbp)
    ae19:	48 8d 05 90 f3 00 00 	lea    0xf390(%rip),%rax        # 1a1b0 <g_234>
    ae20:	48 89 85 70 f9 ff ff 	mov    %rax,-0x690(%rbp)
    ae27:	48 8d 85 d4 e8 ff ff 	lea    -0x172c(%rbp),%rax
    ae2e:	48 89 85 78 f9 ff ff 	mov    %rax,-0x688(%rbp)
    ae35:	48 8d 05 e4 f2 00 00 	lea    0xf2e4(%rip),%rax        # 1a120 <g_4>
    ae3c:	48 89 85 80 f9 ff ff 	mov    %rax,-0x680(%rbp)
    ae43:	48 8d 05 d6 f2 00 00 	lea    0xf2d6(%rip),%rax        # 1a120 <g_4>
    ae4a:	48 89 85 88 f9 ff ff 	mov    %rax,-0x678(%rbp)
    ae51:	48 8d 85 d4 e8 ff ff 	lea    -0x172c(%rbp),%rax
    ae58:	48 89 85 90 f9 ff ff 	mov    %rax,-0x670(%rbp)
    ae5f:	48 8d 85 d4 e8 ff ff 	lea    -0x172c(%rbp),%rax
    ae66:	48 89 85 98 f9 ff ff 	mov    %rax,-0x668(%rbp)
    ae6d:	48 8d 85 00 f2 ff ff 	lea    -0xe00(%rbp),%rax
    ae74:	48 05 b8 00 00 00    	add    $0xb8,%rax
    ae7a:	48 89 85 a0 f9 ff ff 	mov    %rax,-0x660(%rbp)
    ae81:	48 8d 05 98 f2 00 00 	lea    0xf298(%rip),%rax        # 1a120 <g_4>
    ae88:	48 89 85 a8 f9 ff ff 	mov    %rax,-0x658(%rbp)
    ae8f:	48 8d 85 d4 e8 ff ff 	lea    -0x172c(%rbp),%rax
    ae96:	48 89 85 b0 f9 ff ff 	mov    %rax,-0x650(%rbp)
    ae9d:	48 8d 05 7c f2 00 00 	lea    0xf27c(%rip),%rax        # 1a120 <g_4>
    aea4:	48 89 85 b8 f9 ff ff 	mov    %rax,-0x648(%rbp)
    aeab:	48 8d 85 00 f2 ff ff 	lea    -0xe00(%rbp),%rax
    aeb2:	48 05 e4 00 00 00    	add    $0xe4,%rax
    aeb8:	48 89 85 c0 f9 ff ff 	mov    %rax,-0x640(%rbp)
    aebf:	48 8d 85 d4 e8 ff ff 	lea    -0x172c(%rbp),%rax
    aec6:	48 89 85 c8 f9 ff ff 	mov    %rax,-0x638(%rbp)
    aecd:	48 8d 05 54 f2 00 00 	lea    0xf254(%rip),%rax        # 1a128 <g_86>
    aed4:	48 89 85 d0 f9 ff ff 	mov    %rax,-0x630(%rbp)
    aedb:	48 8d 05 46 f2 00 00 	lea    0xf246(%rip),%rax        # 1a128 <g_86>
    aee2:	48 89 85 d8 f9 ff ff 	mov    %rax,-0x628(%rbp)
    aee9:	48 8d 05 38 f2 00 00 	lea    0xf238(%rip),%rax        # 1a128 <g_86>
    aef0:	48 89 85 e0 f9 ff ff 	mov    %rax,-0x620(%rbp)
    aef7:	48 c7 85 e8 f9 ff ff 	movq   $0x0,-0x618(%rbp)
    aefe:	00 00 00 00 
    af02:	48 8d 85 00 f2 ff ff 	lea    -0xe00(%rbp),%rax
    af09:	48 05 f4 02 00 00    	add    $0x2f4,%rax
    af0f:	48 89 85 f0 f9 ff ff 	mov    %rax,-0x610(%rbp)
    af16:	48 8d 85 d4 e8 ff ff 	lea    -0x172c(%rbp),%rax
    af1d:	48 89 85 f8 f9 ff ff 	mov    %rax,-0x608(%rbp)
    af24:	48 8d 05 f5 f1 00 00 	lea    0xf1f5(%rip),%rax        # 1a120 <g_4>
    af2b:	48 89 85 00 fa ff ff 	mov    %rax,-0x600(%rbp)
    af32:	48 8d 05 77 f2 00 00 	lea    0xf277(%rip),%rax        # 1a1b0 <g_234>
    af39:	48 89 85 08 fa ff ff 	mov    %rax,-0x5f8(%rbp)
    af40:	48 8d 85 00 f2 ff ff 	lea    -0xe00(%rbp),%rax
    af47:	48 89 85 10 fa ff ff 	mov    %rax,-0x5f0(%rbp)
    af4e:	48 8d 85 d4 e8 ff ff 	lea    -0x172c(%rbp),%rax
    af55:	48 89 85 18 fa ff ff 	mov    %rax,-0x5e8(%rbp)
    af5c:	48 8d 85 d4 e8 ff ff 	lea    -0x172c(%rbp),%rax
    af63:	48 89 85 20 fa ff ff 	mov    %rax,-0x5e0(%rbp)
    af6a:	48 8d 85 00 f2 ff ff 	lea    -0xe00(%rbp),%rax
    af71:	48 89 85 28 fa ff ff 	mov    %rax,-0x5d8(%rbp)
    af78:	48 8d 05 31 f2 00 00 	lea    0xf231(%rip),%rax        # 1a1b0 <g_234>
    af7f:	48 89 85 30 fa ff ff 	mov    %rax,-0x5d0(%rbp)
    af86:	48 8d 05 9b f1 00 00 	lea    0xf19b(%rip),%rax        # 1a128 <g_86>
    af8d:	48 89 85 38 fa ff ff 	mov    %rax,-0x5c8(%rbp)
    af94:	48 8d 85 00 f2 ff ff 	lea    -0xe00(%rbp),%rax
    af9b:	48 05 e4 00 00 00    	add    $0xe4,%rax
    afa1:	48 89 85 40 fa ff ff 	mov    %rax,-0x5c0(%rbp)
    afa8:	48 8d 05 79 f1 00 00 	lea    0xf179(%rip),%rax        # 1a128 <g_86>
    afaf:	48 89 85 48 fa ff ff 	mov    %rax,-0x5b8(%rbp)
    afb6:	48 8d 85 00 f2 ff ff 	lea    -0xe00(%rbp),%rax
    afbd:	48 05 f4 02 00 00    	add    $0x2f4,%rax
    afc3:	48 89 85 50 fa ff ff 	mov    %rax,-0x5b0(%rbp)
    afca:	48 8d 05 df f1 00 00 	lea    0xf1df(%rip),%rax        # 1a1b0 <g_234>
    afd1:	48 89 85 58 fa ff ff 	mov    %rax,-0x5a8(%rbp)
    afd8:	48 8d 05 d1 f1 00 00 	lea    0xf1d1(%rip),%rax        # 1a1b0 <g_234>
    afdf:	48 89 85 60 fa ff ff 	mov    %rax,-0x5a0(%rbp)
    afe6:	48 8d 05 3b f1 00 00 	lea    0xf13b(%rip),%rax        # 1a128 <g_86>
    afed:	48 89 85 68 fa ff ff 	mov    %rax,-0x598(%rbp)
    aff4:	48 8d 05 25 f1 00 00 	lea    0xf125(%rip),%rax        # 1a120 <g_4>
    affb:	48 89 85 70 fa ff ff 	mov    %rax,-0x590(%rbp)
    b002:	48 8d 05 a7 f1 00 00 	lea    0xf1a7(%rip),%rax        # 1a1b0 <g_234>
    b009:	48 89 85 78 fa ff ff 	mov    %rax,-0x588(%rbp)
    b010:	48 8d 85 00 f2 ff ff 	lea    -0xe00(%rbp),%rax
    b017:	48 05 e4 00 00 00    	add    $0xe4,%rax
    b01d:	48 89 85 80 fa ff ff 	mov    %rax,-0x580(%rbp)
    b024:	48 8d 05 85 f1 00 00 	lea    0xf185(%rip),%rax        # 1a1b0 <g_234>
    b02b:	48 89 85 88 fa ff ff 	mov    %rax,-0x578(%rbp)
    b032:	48 8d 85 d4 e8 ff ff 	lea    -0x172c(%rbp),%rax
    b039:	48 89 85 90 fa ff ff 	mov    %rax,-0x570(%rbp)
    b040:	48 8d 05 d9 f0 00 00 	lea    0xf0d9(%rip),%rax        # 1a120 <g_4>
    b047:	48 89 85 98 fa ff ff 	mov    %rax,-0x568(%rbp)
    b04e:	48 8d 85 00 f2 ff ff 	lea    -0xe00(%rbp),%rax
    b055:	48 05 f4 02 00 00    	add    $0x2f4,%rax
    b05b:	48 89 85 a0 fa ff ff 	mov    %rax,-0x560(%rbp)
    b062:	48 8d 05 b7 f0 00 00 	lea    0xf0b7(%rip),%rax        # 1a120 <g_4>
    b069:	48 89 85 a8 fa ff ff 	mov    %rax,-0x558(%rbp)
    b070:	48 8d 05 39 f1 00 00 	lea    0xf139(%rip),%rax        # 1a1b0 <g_234>
    b077:	48 89 85 b0 fa ff ff 	mov    %rax,-0x550(%rbp)
    b07e:	48 8d 05 2b f1 00 00 	lea    0xf12b(%rip),%rax        # 1a1b0 <g_234>
    b085:	48 89 85 b8 fa ff ff 	mov    %rax,-0x548(%rbp)
    b08c:	48 8d 05 1d f1 00 00 	lea    0xf11d(%rip),%rax        # 1a1b0 <g_234>
    b093:	48 89 85 c0 fa ff ff 	mov    %rax,-0x540(%rbp)
    b09a:	48 8d 85 00 f2 ff ff 	lea    -0xe00(%rbp),%rax
    b0a1:	48 89 85 c8 fa ff ff 	mov    %rax,-0x538(%rbp)
    b0a8:	48 8d 85 d4 e8 ff ff 	lea    -0x172c(%rbp),%rax
    b0af:	48 89 85 d0 fa ff ff 	mov    %rax,-0x530(%rbp)
    b0b6:	48 8d 05 f3 f0 00 00 	lea    0xf0f3(%rip),%rax        # 1a1b0 <g_234>
    b0bd:	48 89 85 d8 fa ff ff 	mov    %rax,-0x528(%rbp)
    b0c4:	48 8d 85 d4 e8 ff ff 	lea    -0x172c(%rbp),%rax
    b0cb:	48 89 85 e0 fa ff ff 	mov    %rax,-0x520(%rbp)
    b0d2:	48 8d 05 47 f0 00 00 	lea    0xf047(%rip),%rax        # 1a120 <g_4>
    b0d9:	48 89 85 e8 fa ff ff 	mov    %rax,-0x518(%rbp)
    b0e0:	48 8d 05 39 f0 00 00 	lea    0xf039(%rip),%rax        # 1a120 <g_4>
    b0e7:	48 89 85 f0 fa ff ff 	mov    %rax,-0x510(%rbp)
    b0ee:	48 8d 85 d4 e8 ff ff 	lea    -0x172c(%rbp),%rax
    b0f5:	48 89 85 f8 fa ff ff 	mov    %rax,-0x508(%rbp)
    b0fc:	48 8d 85 d4 e8 ff ff 	lea    -0x172c(%rbp),%rax
    b103:	48 89 85 00 fb ff ff 	mov    %rax,-0x500(%rbp)
    b10a:	48 8d 85 00 f2 ff ff 	lea    -0xe00(%rbp),%rax
    b111:	48 05 b8 00 00 00    	add    $0xb8,%rax
    b117:	48 89 85 08 fb ff ff 	mov    %rax,-0x4f8(%rbp)
    b11e:	48 c7 85 10 fb ff ff 	movq   $0x0,-0x4f0(%rbp)
    b125:	00 00 00 00 
    b129:	48 8d 05 f8 ef 00 00 	lea    0xeff8(%rip),%rax        # 1a128 <g_86>
    b130:	48 89 85 18 fb ff ff 	mov    %rax,-0x4e8(%rbp)
    b137:	48 8d 05 e2 ef 00 00 	lea    0xefe2(%rip),%rax        # 1a120 <g_4>
    b13e:	48 89 85 20 fb ff ff 	mov    %rax,-0x4e0(%rbp)
    b145:	48 8d 05 dc ef 00 00 	lea    0xefdc(%rip),%rax        # 1a128 <g_86>
    b14c:	48 89 85 28 fb ff ff 	mov    %rax,-0x4d8(%rbp)
    b153:	48 8d 05 ce ef 00 00 	lea    0xefce(%rip),%rax        # 1a128 <g_86>
    b15a:	48 89 85 30 fb ff ff 	mov    %rax,-0x4d0(%rbp)
    b161:	48 8d 05 c0 ef 00 00 	lea    0xefc0(%rip),%rax        # 1a128 <g_86>
    b168:	48 89 85 38 fb ff ff 	mov    %rax,-0x4c8(%rbp)
    b16f:	48 8d 85 d4 e8 ff ff 	lea    -0x172c(%rbp),%rax
    b176:	48 89 85 40 fb ff ff 	mov    %rax,-0x4c0(%rbp)
    b17d:	48 8d 85 00 f2 ff ff 	lea    -0xe00(%rbp),%rax
    b184:	48 05 e4 00 00 00    	add    $0xe4,%rax
    b18a:	48 89 85 48 fb ff ff 	mov    %rax,-0x4b8(%rbp)
    b191:	48 c7 85 50 fb ff ff 	movq   $0x0,-0x4b0(%rbp)
    b198:	00 00 00 00 
    b19c:	48 8d 05 0d f0 00 00 	lea    0xf00d(%rip),%rax        # 1a1b0 <g_234>
    b1a3:	48 89 85 58 fb ff ff 	mov    %rax,-0x4a8(%rbp)
    b1aa:	48 8d 85 00 f2 ff ff 	lea    -0xe00(%rbp),%rax
    b1b1:	48 05 b8 00 00 00    	add    $0xb8,%rax
    b1b7:	48 89 85 60 fb ff ff 	mov    %rax,-0x4a0(%rbp)
    b1be:	48 8d 05 5b ef 00 00 	lea    0xef5b(%rip),%rax        # 1a120 <g_4>
    b1c5:	48 89 85 68 fb ff ff 	mov    %rax,-0x498(%rbp)
    b1cc:	48 8d 05 dd ef 00 00 	lea    0xefdd(%rip),%rax        # 1a1b0 <g_234>
    b1d3:	48 89 85 70 fb ff ff 	mov    %rax,-0x490(%rbp)
    b1da:	48 8d 05 47 ef 00 00 	lea    0xef47(%rip),%rax        # 1a128 <g_86>
    b1e1:	48 89 85 78 fb ff ff 	mov    %rax,-0x488(%rbp)
    b1e8:	48 8d 85 d4 e8 ff ff 	lea    -0x172c(%rbp),%rax
    b1ef:	48 89 85 80 fb ff ff 	mov    %rax,-0x480(%rbp)
    b1f6:	48 c7 85 88 fb ff ff 	movq   $0x0,-0x478(%rbp)
    b1fd:	00 00 00 00 
    b201:	48 8d 05 20 ef 00 00 	lea    0xef20(%rip),%rax        # 1a128 <g_86>
    b208:	48 89 85 90 fb ff ff 	mov    %rax,-0x470(%rbp)
    b20f:	48 8d 05 9a ef 00 00 	lea    0xef9a(%rip),%rax        # 1a1b0 <g_234>
    b216:	48 89 85 98 fb ff ff 	mov    %rax,-0x468(%rbp)
    b21d:	48 8d 85 d4 e8 ff ff 	lea    -0x172c(%rbp),%rax
    b224:	48 89 85 a0 fb ff ff 	mov    %rax,-0x460(%rbp)
    b22b:	48 8d 85 00 f2 ff ff 	lea    -0xe00(%rbp),%rax
    b232:	48 89 85 a8 fb ff ff 	mov    %rax,-0x458(%rbp)
    b239:	48 8d 05 e8 ee 00 00 	lea    0xeee8(%rip),%rax        # 1a128 <g_86>
    b240:	48 89 85 b0 fb ff ff 	mov    %rax,-0x450(%rbp)
    b247:	48 8d 05 62 ef 00 00 	lea    0xef62(%rip),%rax        # 1a1b0 <g_234>
    b24e:	48 89 85 b8 fb ff ff 	mov    %rax,-0x448(%rbp)
    b255:	48 8d 05 54 ef 00 00 	lea    0xef54(%rip),%rax        # 1a1b0 <g_234>
    b25c:	48 89 85 c0 fb ff ff 	mov    %rax,-0x440(%rbp)
    b263:	48 8d 05 46 ef 00 00 	lea    0xef46(%rip),%rax        # 1a1b0 <g_234>
    b26a:	48 89 85 c8 fb ff ff 	mov    %rax,-0x438(%rbp)
    b271:	48 8d 85 00 f2 ff ff 	lea    -0xe00(%rbp),%rax
    b278:	48 89 85 d0 fb ff ff 	mov    %rax,-0x430(%rbp)
    b27f:	48 8d 05 2a ef 00 00 	lea    0xef2a(%rip),%rax        # 1a1b0 <g_234>
    b286:	48 89 85 d8 fb ff ff 	mov    %rax,-0x428(%rbp)
    b28d:	48 8d 05 1c ef 00 00 	lea    0xef1c(%rip),%rax        # 1a1b0 <g_234>
    b294:	48 89 85 e0 fb ff ff 	mov    %rax,-0x420(%rbp)
    b29b:	48 8d 05 86 ee 00 00 	lea    0xee86(%rip),%rax        # 1a128 <g_86>
    b2a2:	48 89 85 e8 fb ff ff 	mov    %rax,-0x418(%rbp)
    b2a9:	48 8d 05 00 ef 00 00 	lea    0xef00(%rip),%rax        # 1a1b0 <g_234>
    b2b0:	48 89 85 f0 fb ff ff 	mov    %rax,-0x410(%rbp)
    b2b7:	48 8d 85 d4 e8 ff ff 	lea    -0x172c(%rbp),%rax
    b2be:	48 89 85 f8 fb ff ff 	mov    %rax,-0x408(%rbp)
    b2c5:	48 8d 05 e4 ee 00 00 	lea    0xeee4(%rip),%rax        # 1a1b0 <g_234>
    b2cc:	48 89 85 00 fc ff ff 	mov    %rax,-0x400(%rbp)
    b2d3:	48 8d 05 d6 ee 00 00 	lea    0xeed6(%rip),%rax        # 1a1b0 <g_234>
    b2da:	48 89 85 08 fc ff ff 	mov    %rax,-0x3f8(%rbp)
    b2e1:	48 8d 05 38 ee 00 00 	lea    0xee38(%rip),%rax        # 1a120 <g_4>
    b2e8:	48 89 85 10 fc ff ff 	mov    %rax,-0x3f0(%rbp)
    b2ef:	48 8d 05 ba ee 00 00 	lea    0xeeba(%rip),%rax        # 1a1b0 <g_234>
    b2f6:	48 89 85 18 fc ff ff 	mov    %rax,-0x3e8(%rbp)
    b2fd:	48 8d 05 ac ee 00 00 	lea    0xeeac(%rip),%rax        # 1a1b0 <g_234>
    b304:	48 89 85 20 fc ff ff 	mov    %rax,-0x3e0(%rbp)
    b30b:	48 8d 05 9e ee 00 00 	lea    0xee9e(%rip),%rax        # 1a1b0 <g_234>
    b312:	48 89 85 28 fc ff ff 	mov    %rax,-0x3d8(%rbp)
    b319:	48 8d 85 00 f2 ff ff 	lea    -0xe00(%rbp),%rax
    b320:	48 05 e4 00 00 00    	add    $0xe4,%rax
    b326:	48 89 85 30 fc ff ff 	mov    %rax,-0x3d0(%rbp)
    b32d:	48 8d 85 d4 e8 ff ff 	lea    -0x172c(%rbp),%rax
    b334:	48 89 85 38 fc ff ff 	mov    %rax,-0x3c8(%rbp)
    b33b:	48 8d 05 6e ee 00 00 	lea    0xee6e(%rip),%rax        # 1a1b0 <g_234>
    b342:	48 89 85 40 fc ff ff 	mov    %rax,-0x3c0(%rbp)
    b349:	48 8d 05 d8 ed 00 00 	lea    0xedd8(%rip),%rax        # 1a128 <g_86>
    b350:	48 89 85 48 fc ff ff 	mov    %rax,-0x3b8(%rbp)
    b357:	48 8d 05 52 ee 00 00 	lea    0xee52(%rip),%rax        # 1a1b0 <g_234>
    b35e:	48 89 85 50 fc ff ff 	mov    %rax,-0x3b0(%rbp)
    b365:	48 8d 05 b4 ed 00 00 	lea    0xedb4(%rip),%rax        # 1a120 <g_4>
    b36c:	48 89 85 58 fc ff ff 	mov    %rax,-0x3a8(%rbp)
    b373:	48 8d 05 ae ed 00 00 	lea    0xedae(%rip),%rax        # 1a128 <g_86>
    b37a:	48 89 85 60 fc ff ff 	mov    %rax,-0x3a0(%rbp)
    b381:	48 8d 05 a0 ed 00 00 	lea    0xeda0(%rip),%rax        # 1a128 <g_86>
    b388:	48 89 85 68 fc ff ff 	mov    %rax,-0x398(%rbp)
    b38f:	48 8d 85 00 f2 ff ff 	lea    -0xe00(%rbp),%rax
    b396:	48 05 b8 00 00 00    	add    $0xb8,%rax
    b39c:	48 89 85 70 fc ff ff 	mov    %rax,-0x390(%rbp)
    b3a3:	48 8d 05 06 ee 00 00 	lea    0xee06(%rip),%rax        # 1a1b0 <g_234>
    b3aa:	48 89 85 78 fc ff ff 	mov    %rax,-0x388(%rbp)
    b3b1:	48 8d 85 d4 e8 ff ff 	lea    -0x172c(%rbp),%rax
    b3b8:	48 89 85 80 fc ff ff 	mov    %rax,-0x380(%rbp)
    b3bf:	48 8d 05 5a ed 00 00 	lea    0xed5a(%rip),%rax        # 1a120 <g_4>
    b3c6:	48 89 85 88 fc ff ff 	mov    %rax,-0x378(%rbp)
    b3cd:	48 8d 85 00 f2 ff ff 	lea    -0xe00(%rbp),%rax
    b3d4:	48 89 85 90 fc ff ff 	mov    %rax,-0x370(%rbp)
    b3db:	48 8d 85 d4 e8 ff ff 	lea    -0x172c(%rbp),%rax
    b3e2:	48 89 85 98 fc ff ff 	mov    %rax,-0x368(%rbp)
    b3e9:	48 8d 05 38 ed 00 00 	lea    0xed38(%rip),%rax        # 1a128 <g_86>
    b3f0:	48 89 85 a0 fc ff ff 	mov    %rax,-0x360(%rbp)
    b3f7:	48 8d 85 d4 e8 ff ff 	lea    -0x172c(%rbp),%rax
    b3fe:	48 89 85 a8 fc ff ff 	mov    %rax,-0x358(%rbp)
    b405:	48 8d 85 00 f2 ff ff 	lea    -0xe00(%rbp),%rax
    b40c:	48 89 85 b0 fc ff ff 	mov    %rax,-0x350(%rbp)
    b413:	48 c7 85 b8 fc ff ff 	movq   $0x0,-0x348(%rbp)
    b41a:	00 00 00 00 
    b41e:	48 8d 05 8b ed 00 00 	lea    0xed8b(%rip),%rax        # 1a1b0 <g_234>
    b425:	48 89 85 c0 fc ff ff 	mov    %rax,-0x340(%rbp)
    b42c:	48 c7 85 c8 fc ff ff 	movq   $0x0,-0x338(%rbp)
    b433:	00 00 00 00 
    b437:	48 8d 05 e2 ec 00 00 	lea    0xece2(%rip),%rax        # 1a120 <g_4>
    b43e:	48 89 85 d0 fc ff ff 	mov    %rax,-0x330(%rbp)
    b445:	48 8d 85 00 f2 ff ff 	lea    -0xe00(%rbp),%rax
    b44c:	48 05 f4 02 00 00    	add    $0x2f4,%rax
    b452:	48 89 85 d8 fc ff ff 	mov    %rax,-0x328(%rbp)
    b459:	48 8d 85 00 f2 ff ff 	lea    -0xe00(%rbp),%rax
    b460:	48 05 e4 00 00 00    	add    $0xe4,%rax
    b466:	48 89 85 e0 fc ff ff 	mov    %rax,-0x320(%rbp)
    b46d:	48 8d 85 d4 e8 ff ff 	lea    -0x172c(%rbp),%rax
    b474:	48 89 85 e8 fc ff ff 	mov    %rax,-0x318(%rbp)
    b47b:	48 8d 85 00 f2 ff ff 	lea    -0xe00(%rbp),%rax
    b482:	48 05 b8 00 00 00    	add    $0xb8,%rax
    b488:	48 89 85 f0 fc ff ff 	mov    %rax,-0x310(%rbp)
    b48f:	48 8d 85 00 f2 ff ff 	lea    -0xe00(%rbp),%rax
    b496:	48 05 e4 00 00 00    	add    $0xe4,%rax
    b49c:	48 89 85 f8 fc ff ff 	mov    %rax,-0x308(%rbp)
    b4a3:	48 8d 05 06 ed 00 00 	lea    0xed06(%rip),%rax        # 1a1b0 <g_234>
    b4aa:	48 89 85 00 fd ff ff 	mov    %rax,-0x300(%rbp)
    b4b1:	48 8d 85 d4 e8 ff ff 	lea    -0x172c(%rbp),%rax
    b4b8:	48 89 85 08 fd ff ff 	mov    %rax,-0x2f8(%rbp)
    b4bf:	48 8d 05 62 ec 00 00 	lea    0xec62(%rip),%rax        # 1a128 <g_86>
    b4c6:	48 89 85 10 fd ff ff 	mov    %rax,-0x2f0(%rbp)
    b4cd:	48 8d 05 54 ec 00 00 	lea    0xec54(%rip),%rax        # 1a128 <g_86>
    b4d4:	48 89 85 18 fd ff ff 	mov    %rax,-0x2e8(%rbp)
    b4db:	48 8d 05 ce ec 00 00 	lea    0xecce(%rip),%rax        # 1a1b0 <g_234>
    b4e2:	48 89 85 20 fd ff ff 	mov    %rax,-0x2e0(%rbp)
    b4e9:	48 8d 85 00 f2 ff ff 	lea    -0xe00(%rbp),%rax
    b4f0:	48 05 f4 02 00 00    	add    $0x2f4,%rax
    b4f6:	48 89 85 28 fd ff ff 	mov    %rax,-0x2d8(%rbp)
    b4fd:	48 8d 05 ac ec 00 00 	lea    0xecac(%rip),%rax        # 1a1b0 <g_234>
    b504:	48 89 85 30 fd ff ff 	mov    %rax,-0x2d0(%rbp)
    b50b:	48 8d 85 00 f2 ff ff 	lea    -0xe00(%rbp),%rax
    b512:	48 05 e4 00 00 00    	add    $0xe4,%rax
    b518:	48 89 85 38 fd ff ff 	mov    %rax,-0x2c8(%rbp)
    b51f:	48 c7 85 40 fd ff ff 	movq   $0x0,-0x2c0(%rbp)
    b526:	00 00 00 00 
    b52a:	48 8d 05 7f ec 00 00 	lea    0xec7f(%rip),%rax        # 1a1b0 <g_234>
    b531:	48 89 85 48 fd ff ff 	mov    %rax,-0x2b8(%rbp)
    b538:	48 8d 85 00 f2 ff ff 	lea    -0xe00(%rbp),%rax
    b53f:	48 89 85 50 fd ff ff 	mov    %rax,-0x2b0(%rbp)
    b546:	48 8d 85 00 f2 ff ff 	lea    -0xe00(%rbp),%rax
    b54d:	48 05 f4 02 00 00    	add    $0x2f4,%rax
    b553:	48 89 85 58 fd ff ff 	mov    %rax,-0x2a8(%rbp)
    b55a:	48 8d 85 d4 e8 ff ff 	lea    -0x172c(%rbp),%rax
    b561:	48 89 85 60 fd ff ff 	mov    %rax,-0x2a0(%rbp)
    b568:	48 8d 05 b1 eb 00 00 	lea    0xebb1(%rip),%rax        # 1a120 <g_4>
    b56f:	48 89 85 68 fd ff ff 	mov    %rax,-0x298(%rbp)
    b576:	48 8d 05 33 ec 00 00 	lea    0xec33(%rip),%rax        # 1a1b0 <g_234>
    b57d:	48 89 85 70 fd ff ff 	mov    %rax,-0x290(%rbp)
    b584:	48 8d 05 95 eb 00 00 	lea    0xeb95(%rip),%rax        # 1a120 <g_4>
    b58b:	48 89 85 78 fd ff ff 	mov    %rax,-0x288(%rbp)
    b592:	48 8d 85 00 f2 ff ff 	lea    -0xe00(%rbp),%rax
    b599:	48 05 f4 02 00 00    	add    $0x2f4,%rax
    b59f:	48 89 85 80 fd ff ff 	mov    %rax,-0x280(%rbp)
    b5a6:	48 8d 85 00 f2 ff ff 	lea    -0xe00(%rbp),%rax
    b5ad:	48 05 f4 02 00 00    	add    $0x2f4,%rax
    b5b3:	48 89 85 88 fd ff ff 	mov    %rax,-0x278(%rbp)
    b5ba:	48 8d 05 ef eb 00 00 	lea    0xebef(%rip),%rax        # 1a1b0 <g_234>
    b5c1:	48 89 85 90 fd ff ff 	mov    %rax,-0x270(%rbp)
    b5c8:	48 8d 05 59 eb 00 00 	lea    0xeb59(%rip),%rax        # 1a128 <g_86>
    b5cf:	48 89 85 98 fd ff ff 	mov    %rax,-0x268(%rbp)
    b5d6:	48 8d 05 4b eb 00 00 	lea    0xeb4b(%rip),%rax        # 1a128 <g_86>
    b5dd:	48 89 85 a0 fd ff ff 	mov    %rax,-0x260(%rbp)
    b5e4:	48 8d 05 c5 eb 00 00 	lea    0xebc5(%rip),%rax        # 1a1b0 <g_234>
    b5eb:	48 89 85 a8 fd ff ff 	mov    %rax,-0x258(%rbp)
    b5f2:	48 8d 85 d4 e8 ff ff 	lea    -0x172c(%rbp),%rax
    b5f9:	48 89 85 b0 fd ff ff 	mov    %rax,-0x250(%rbp)
    b600:	48 8d 05 19 eb 00 00 	lea    0xeb19(%rip),%rax        # 1a120 <g_4>
    b607:	48 89 85 b8 fd ff ff 	mov    %rax,-0x248(%rbp)
    b60e:	48 8d 05 0b eb 00 00 	lea    0xeb0b(%rip),%rax        # 1a120 <g_4>
    b615:	48 89 85 c0 fd ff ff 	mov    %rax,-0x240(%rbp)
    b61c:	48 8d 85 d4 e8 ff ff 	lea    -0x172c(%rbp),%rax
    b623:	48 89 85 c8 fd ff ff 	mov    %rax,-0x238(%rbp)
    b62a:	48 8d 85 d4 e8 ff ff 	lea    -0x172c(%rbp),%rax
    b631:	48 89 85 d0 fd ff ff 	mov    %rax,-0x230(%rbp)
    b638:	48 8d 85 00 f2 ff ff 	lea    -0xe00(%rbp),%rax
    b63f:	48 05 b8 00 00 00    	add    $0xb8,%rax
    b645:	48 89 85 d8 fd ff ff 	mov    %rax,-0x228(%rbp)
    b64c:	48 8d 05 cd ea 00 00 	lea    0xeacd(%rip),%rax        # 1a120 <g_4>
    b653:	48 89 85 e0 fd ff ff 	mov    %rax,-0x220(%rbp)
    b65a:	48 8d 85 d4 e8 ff ff 	lea    -0x172c(%rbp),%rax
    b661:	48 89 85 e8 fd ff ff 	mov    %rax,-0x218(%rbp)
    b668:	48 8d 05 b1 ea 00 00 	lea    0xeab1(%rip),%rax        # 1a120 <g_4>
    b66f:	48 89 85 f0 fd ff ff 	mov    %rax,-0x210(%rbp)
    b676:	48 8d 85 00 f2 ff ff 	lea    -0xe00(%rbp),%rax
    b67d:	48 05 e4 00 00 00    	add    $0xe4,%rax
    b683:	48 89 85 f8 fd ff ff 	mov    %rax,-0x208(%rbp)
    b68a:	48 8d 85 d4 e8 ff ff 	lea    -0x172c(%rbp),%rax
    b691:	48 89 85 00 fe ff ff 	mov    %rax,-0x200(%rbp)
    b698:	48 8d 05 89 ea 00 00 	lea    0xea89(%rip),%rax        # 1a128 <g_86>
    b69f:	48 89 85 08 fe ff ff 	mov    %rax,-0x1f8(%rbp)
    b6a6:	48 8d 05 7b ea 00 00 	lea    0xea7b(%rip),%rax        # 1a128 <g_86>
    b6ad:	48 89 85 10 fe ff ff 	mov    %rax,-0x1f0(%rbp)
    b6b4:	48 8d 05 6d ea 00 00 	lea    0xea6d(%rip),%rax        # 1a128 <g_86>
    b6bb:	48 89 85 18 fe ff ff 	mov    %rax,-0x1e8(%rbp)
    b6c2:	48 c7 85 20 fe ff ff 	movq   $0x0,-0x1e0(%rbp)
    b6c9:	00 00 00 00 
    b6cd:	48 8d 85 00 f2 ff ff 	lea    -0xe00(%rbp),%rax
    b6d4:	48 05 f4 02 00 00    	add    $0x2f4,%rax
    b6da:	48 89 85 28 fe ff ff 	mov    %rax,-0x1d8(%rbp)
    b6e1:	48 8d 85 d4 e8 ff ff 	lea    -0x172c(%rbp),%rax
    b6e8:	48 89 85 30 fe ff ff 	mov    %rax,-0x1d0(%rbp)
    b6ef:	48 8d 05 2a ea 00 00 	lea    0xea2a(%rip),%rax        # 1a120 <g_4>
    b6f6:	48 89 85 38 fe ff ff 	mov    %rax,-0x1c8(%rbp)
    b6fd:	48 8d 05 ac ea 00 00 	lea    0xeaac(%rip),%rax        # 1a1b0 <g_234>
    b704:	48 89 85 40 fe ff ff 	mov    %rax,-0x1c0(%rbp)
    b70b:	48 8d 85 00 f2 ff ff 	lea    -0xe00(%rbp),%rax
    b712:	48 89 85 48 fe ff ff 	mov    %rax,-0x1b8(%rbp)
    b719:	48 8d 85 d4 e8 ff ff 	lea    -0x172c(%rbp),%rax
    b720:	48 89 85 50 fe ff ff 	mov    %rax,-0x1b0(%rbp)
    b727:	48 8d 85 d4 e8 ff ff 	lea    -0x172c(%rbp),%rax
    b72e:	48 89 85 58 fe ff ff 	mov    %rax,-0x1a8(%rbp)
    b735:	48 8d 85 00 f2 ff ff 	lea    -0xe00(%rbp),%rax
    b73c:	48 89 85 60 fe ff ff 	mov    %rax,-0x1a0(%rbp)
    b743:	48 8d 05 66 ea 00 00 	lea    0xea66(%rip),%rax        # 1a1b0 <g_234>
    b74a:	48 89 85 68 fe ff ff 	mov    %rax,-0x198(%rbp)
    b751:	48 8d 05 d0 e9 00 00 	lea    0xe9d0(%rip),%rax        # 1a128 <g_86>
    b758:	48 89 85 70 fe ff ff 	mov    %rax,-0x190(%rbp)
    b75f:	48 8d 85 00 f2 ff ff 	lea    -0xe00(%rbp),%rax
    b766:	48 05 e4 00 00 00    	add    $0xe4,%rax
    b76c:	48 89 85 78 fe ff ff 	mov    %rax,-0x188(%rbp)
    b773:	48 8d 05 ae e9 00 00 	lea    0xe9ae(%rip),%rax        # 1a128 <g_86>
    b77a:	48 89 85 80 fe ff ff 	mov    %rax,-0x180(%rbp)
    b781:	48 8d 85 00 f2 ff ff 	lea    -0xe00(%rbp),%rax
    b788:	48 05 f4 02 00 00    	add    $0x2f4,%rax
    b78e:	48 89 85 88 fe ff ff 	mov    %rax,-0x178(%rbp)
    b795:	48 8d 05 14 ea 00 00 	lea    0xea14(%rip),%rax        # 1a1b0 <g_234>
    b79c:	48 89 85 90 fe ff ff 	mov    %rax,-0x170(%rbp)
    b7a3:	48 8d 05 06 ea 00 00 	lea    0xea06(%rip),%rax        # 1a1b0 <g_234>
    b7aa:	48 89 85 98 fe ff ff 	mov    %rax,-0x168(%rbp)
    b7b1:	48 8d 05 70 e9 00 00 	lea    0xe970(%rip),%rax        # 1a128 <g_86>
    b7b8:	48 89 85 a0 fe ff ff 	mov    %rax,-0x160(%rbp)
    b7bf:	48 8d 05 5a e9 00 00 	lea    0xe95a(%rip),%rax        # 1a120 <g_4>
    b7c6:	48 89 85 a8 fe ff ff 	mov    %rax,-0x158(%rbp)
    b7cd:	48 8d 05 dc e9 00 00 	lea    0xe9dc(%rip),%rax        # 1a1b0 <g_234>
    b7d4:	48 89 85 b0 fe ff ff 	mov    %rax,-0x150(%rbp)
    b7db:	48 8d 85 00 f2 ff ff 	lea    -0xe00(%rbp),%rax
    b7e2:	48 05 e4 00 00 00    	add    $0xe4,%rax
    b7e8:	48 89 85 b8 fe ff ff 	mov    %rax,-0x148(%rbp)
    b7ef:	48 8d 05 ba e9 00 00 	lea    0xe9ba(%rip),%rax        # 1a1b0 <g_234>
    b7f6:	48 89 85 c0 fe ff ff 	mov    %rax,-0x140(%rbp)
    b7fd:	48 8d 85 d4 e8 ff ff 	lea    -0x172c(%rbp),%rax
    b804:	48 89 85 c8 fe ff ff 	mov    %rax,-0x138(%rbp)
    b80b:	48 c7 85 d0 fe ff ff 	movq   $0x0,-0x130(%rbp)
    b812:	00 00 00 00 
    b816:	48 8d 05 03 e9 00 00 	lea    0xe903(%rip),%rax        # 1a120 <g_4>
    b81d:	48 89 85 d8 fe ff ff 	mov    %rax,-0x128(%rbp)
    b824:	48 8d 05 fd e8 00 00 	lea    0xe8fd(%rip),%rax        # 1a128 <g_86>
    b82b:	48 89 85 e0 fe ff ff 	mov    %rax,-0x120(%rbp)
    b832:	48 c7 85 e8 fe ff ff 	movq   $0x0,-0x118(%rbp)
    b839:	00 00 00 00 
    b83d:	48 8d 05 6c e9 00 00 	lea    0xe96c(%rip),%rax        # 1a1b0 <g_234>
    b844:	48 89 85 f0 fe ff ff 	mov    %rax,-0x110(%rbp)
    b84b:	48 8d 05 5e e9 00 00 	lea    0xe95e(%rip),%rax        # 1a1b0 <g_234>
    b852:	48 89 85 f8 fe ff ff 	mov    %rax,-0x108(%rbp)
    b859:	48 c7 85 00 ff ff ff 	movq   $0x0,-0x100(%rbp)
    b860:	00 00 00 00 
    b864:	48 8d 05 b5 e8 00 00 	lea    0xe8b5(%rip),%rax        # 1a120 <g_4>
    b86b:	48 89 85 08 ff ff ff 	mov    %rax,-0xf8(%rbp)
    b872:	48 8d 05 af e8 00 00 	lea    0xe8af(%rip),%rax        # 1a128 <g_86>
    b879:	48 89 85 10 ff ff ff 	mov    %rax,-0xf0(%rbp)
    b880:	48 8d 05 99 e8 00 00 	lea    0xe899(%rip),%rax        # 1a120 <g_4>
    b887:	48 89 85 18 ff ff ff 	mov    %rax,-0xe8(%rbp)
    b88e:	48 8d 05 93 e8 00 00 	lea    0xe893(%rip),%rax        # 1a128 <g_86>
    b895:	48 89 85 20 ff ff ff 	mov    %rax,-0xe0(%rbp)
    b89c:	48 8d 05 85 e8 00 00 	lea    0xe885(%rip),%rax        # 1a128 <g_86>
    b8a3:	48 89 85 28 ff ff ff 	mov    %rax,-0xd8(%rbp)
    b8aa:	48 8d 05 6f e8 00 00 	lea    0xe86f(%rip),%rax        # 1a120 <g_4>
    b8b1:	48 89 85 30 ff ff ff 	mov    %rax,-0xd0(%rbp)
    b8b8:	48 8d 05 61 e8 00 00 	lea    0xe861(%rip),%rax        # 1a120 <g_4>
    b8bf:	48 89 85 38 ff ff ff 	mov    %rax,-0xc8(%rbp)
    b8c6:	48 8d 05 5b e8 00 00 	lea    0xe85b(%rip),%rax        # 1a128 <g_86>
    b8cd:	48 89 85 40 ff ff ff 	mov    %rax,-0xc0(%rbp)
    b8d4:	48 8d 05 4d e8 00 00 	lea    0xe84d(%rip),%rax        # 1a128 <g_86>
    b8db:	48 89 85 48 ff ff ff 	mov    %rax,-0xb8(%rbp)
    b8e2:	48 8d 05 c7 e8 00 00 	lea    0xe8c7(%rip),%rax        # 1a1b0 <g_234>
    b8e9:	48 89 85 50 ff ff ff 	mov    %rax,-0xb0(%rbp)
    b8f0:	48 8d 05 31 e8 00 00 	lea    0xe831(%rip),%rax        # 1a128 <g_86>
    b8f7:	48 89 85 58 ff ff ff 	mov    %rax,-0xa8(%rbp)
    b8fe:	48 8d 85 d4 e8 ff ff 	lea    -0x172c(%rbp),%rax
    b905:	48 89 85 60 ff ff ff 	mov    %rax,-0xa0(%rbp)
    b90c:	48 8d 05 9d e8 00 00 	lea    0xe89d(%rip),%rax        # 1a1b0 <g_234>
    b913:	48 89 85 68 ff ff ff 	mov    %rax,-0x98(%rbp)
    b91a:	48 8d 05 8f e8 00 00 	lea    0xe88f(%rip),%rax        # 1a1b0 <g_234>
    b921:	48 89 85 70 ff ff ff 	mov    %rax,-0x90(%rbp)
    b928:	48 8d 05 f1 e7 00 00 	lea    0xe7f1(%rip),%rax        # 1a120 <g_4>
    b92f:	48 89 85 78 ff ff ff 	mov    %rax,-0x88(%rbp)
    b936:	48 8d 85 00 f2 ff ff 	lea    -0xe00(%rbp),%rax
    b93d:	48 05 b8 00 00 00    	add    $0xb8,%rax
    b943:	48 89 45 80          	mov    %rax,-0x80(%rbp)
    b947:	48 8d 05 da e7 00 00 	lea    0xe7da(%rip),%rax        # 1a128 <g_86>
    b94e:	48 89 45 88          	mov    %rax,-0x78(%rbp)
    b952:	48 c7 45 90 00 00 00 	movq   $0x0,-0x70(%rbp)
    b959:	00 
    b95a:	48 8d 05 c7 e7 00 00 	lea    0xe7c7(%rip),%rax        # 1a128 <g_86>
    b961:	48 89 45 98          	mov    %rax,-0x68(%rbp)
    b965:	48 8d 05 bc e7 00 00 	lea    0xe7bc(%rip),%rax        # 1a128 <g_86>
    b96c:	48 89 45 a0          	mov    %rax,-0x60(%rbp)
    b970:	48 8d 05 39 e8 00 00 	lea    0xe839(%rip),%rax        # 1a1b0 <g_234>
    b977:	48 89 45 a8          	mov    %rax,-0x58(%rbp)
    b97b:	48 8d 05 a6 1a 01 00 	lea    0x11aa6(%rip),%rax        # 1d428 <g_1744>
    b982:	48 89 85 38 eb ff ff 	mov    %rax,-0x14c8(%rbp)
    b989:	48 8d 05 f8 e9 00 00 	lea    0xe9f8(%rip),%rax        # 1a388 <g_861>
    b990:	48 89 85 40 eb ff ff 	mov    %rax,-0x14c0(%rbp)
    b997:	48 8d 05 da e7 00 00 	lea    0xe7da(%rip),%rax        # 1a178 <g_139>
    b99e:	48 89 85 48 eb ff ff 	mov    %rax,-0x14b8(%rbp)
    b9a5:	48 8d 05 0c ea 00 00 	lea    0xea0c(%rip),%rax        # 1a3b8 <g_941+0x18>
    b9ac:	48 89 85 50 eb ff ff 	mov    %rax,-0x14b0(%rbp)
    b9b3:	c6 05 7a e9 00 00 00 	movb   $0x0,0xe97a(%rip)        # 1a334 <g_476>
    b9ba:	e9 ad 04 00 00       	jmpq   be6c <func_1+0x16b7>
    b9bf:	48 8d 85 98 e9 ff ff 	lea    -0x1668(%rbp),%rax
    b9c6:	48 89 85 58 eb ff ff 	mov    %rax,-0x14a8(%rbp)
    b9cd:	48 8b 95 c8 fd ff ff 	mov    -0x238(%rbp),%rdx
    b9d4:	48 8b 85 58 eb ff ff 	mov    -0x14a8(%rbp),%rax
    b9db:	48 89 10             	mov    %rdx,(%rax)
    b9de:	48 8b 05 e3 16 01 00 	mov    0x116e3(%rip),%rax        # 1d0c8 <g_1352>
    b9e5:	48 8b 00             	mov    (%rax),%rax
    b9e8:	48 85 c0             	test   %rax,%rax
    b9eb:	0f 94 c0             	sete   %al
    b9ee:	0f b6 c0             	movzbl %al,%eax
    b9f1:	89 85 ec f2 ff ff    	mov    %eax,-0xd14(%rbp)
    b9f7:	48 8b 05 0a 19 01 00 	mov    0x1190a(%rip),%rax        # 1d308 <g_1649>
    b9fe:	48 8b 00             	mov    (%rax),%rax
    ba01:	c7 00 4a 27 67 52    	movl   $0x5267274a,(%rax)
    ba07:	c6 05 92 e7 00 00 00 	movb   $0x0,0xe792(%rip)        # 1a1a0 <g_154>
    ba0e:	e9 2b 04 00 00       	jmpq   be3e <func_1+0x1689>
    ba13:	66 c7 85 ce e8 ff ff 	movw   $0x0,-0x1732(%rbp)
    ba1a:	00 00 
    ba1c:	c7 85 6c e9 ff ff 9c 	movl   $0x54fd219c,-0x1694(%rbp)
    ba23:	21 fd 54 
    ba26:	c7 05 a4 f0 00 00 00 	movl   $0x0,0xf0a4(%rip)        # 1aad4 <g_2637>
    ba2d:	00 00 00 
    ba30:	e9 6c 01 00 00       	jmpq   bba1 <func_1+0x13ec>
    ba35:	c6 85 c2 e8 ff ff e0 	movb   $0xe0,-0x173e(%rbp)
    ba3c:	48 8d 05 7d 25 01 00 	lea    0x1257d(%rip),%rax        # 1dfc0 <g_2832>
    ba43:	48 89 85 68 eb ff ff 	mov    %rax,-0x1498(%rbp)
    ba4a:	48 8d 05 2b e7 00 00 	lea    0xe72b(%rip),%rax        # 1a17c <g_141>
    ba51:	48 89 85 70 eb ff ff 	mov    %rax,-0x1490(%rbp)
    ba58:	48 8b 05 19 13 01 00 	mov    0x11319(%rip),%rax        # 1cd78 <g_418>
    ba5f:	8b 00                	mov    (%rax),%eax
    ba61:	41 89 c5             	mov    %eax,%r13d
    ba64:	48 8b 05 25 13 01 00 	mov    0x11325(%rip),%rax        # 1cd90 <g_421>
    ba6b:	48 8b 00             	mov    (%rax),%rax
    ba6e:	0f b6 00             	movzbl (%rax),%eax
    ba71:	0f be d8             	movsbl %al,%ebx
    ba74:	48 8b 05 ad f0 00 00 	mov    0xf0ad(%rip),%rax        # 1ab28 <g_2882+0x8>
    ba7b:	48 8b 85 68 eb ff ff 	mov    -0x1498(%rbp),%rax
    ba82:	48 8b 95 38 eb ff ff 	mov    -0x14c8(%rbp),%rdx
    ba89:	48 89 10             	mov    %rdx,(%rax)
    ba8c:	48 8b 85 68 eb ff ff 	mov    -0x1498(%rbp),%rax
    ba93:	48 8b 00             	mov    (%rax),%rax
    ba96:	48 39 85 38 eb ff ff 	cmp    %rax,-0x14c8(%rbp)
    ba9d:	0f 95 c0             	setne  %al
    baa0:	0f b6 d0             	movzbl %al,%edx
    baa3:	48 8b 05 96 19 01 00 	mov    0x11996(%rip),%rax        # 1d440 <g_1822>
    baaa:	48 8b 00             	mov    (%rax),%rax
    baad:	48 8b 00             	mov    (%rax),%rax
    bab0:	0f b7 00             	movzwl (%rax),%eax
    bab3:	98                   	cwtl   
    bab4:	09 c2                	or     %eax,%edx
    bab6:	41 89 d4             	mov    %edx,%r12d
    bab9:	0f b6 95 c2 e8 ff ff 	movzbl -0x173e(%rbp),%edx
    bac0:	8b 85 18 e9 ff ff    	mov    -0x16e8(%rbp),%eax
    bac6:	0f b7 c0             	movzwl %ax,%eax
    bac9:	89 d6                	mov    %edx,%esi
    bacb:	89 c7                	mov    %eax,%edi
    bacd:	e8 bc e2 ff ff       	callq  9d8e <safe_div_func_uint16_t_u_u>
    bad2:	0f b7 d0             	movzwl %ax,%edx
    bad5:	48 8b 85 70 eb ff ff 	mov    -0x1490(%rbp),%rax
    badc:	0f b7 00             	movzwl (%rax),%eax
    badf:	44 89 e1             	mov    %r12d,%ecx
    bae2:	21 c1                	and    %eax,%ecx
    bae4:	48 8b 85 70 eb ff ff 	mov    -0x1490(%rbp),%rax
    baeb:	66 89 08             	mov    %cx,(%rax)
    baee:	48 8b 85 70 eb ff ff 	mov    -0x1490(%rbp),%rax
    baf5:	0f b7 00             	movzwl (%rax),%eax
    baf8:	98                   	cwtl   
    baf9:	39 c2                	cmp    %eax,%edx
    bafb:	0f 94 c0             	sete   %al
    bafe:	0f b6 c0             	movzbl %al,%eax
    bb01:	89 de                	mov    %ebx,%esi
    bb03:	89 c7                	mov    %eax,%edi
    bb05:	e8 08 d7 ff ff       	callq  9212 <safe_mul_func_int8_t_s_s>
    bb0a:	84 c0                	test   %al,%al
    bb0c:	0f 95 c0             	setne  %al
    bb0f:	0f b6 c0             	movzbl %al,%eax
    bb12:	be 58 00 00 00       	mov    $0x58,%esi
    bb17:	89 c7                	mov    %eax,%edi
    bb19:	e8 90 e0 ff ff       	callq  9bae <safe_mod_func_uint8_t_u_u>
    bb1e:	84 c0                	test   %al,%al
    bb20:	74 10                	je     bb32 <func_1+0x137d>
    bb22:	80 bd c2 e8 ff ff 00 	cmpb   $0x0,-0x173e(%rbp)
    bb29:	74 07                	je     bb32 <func_1+0x137d>
    bb2b:	b8 01 00 00 00       	mov    $0x1,%eax
    bb30:	eb 05                	jmp    bb37 <func_1+0x1382>
    bb32:	b8 00 00 00 00       	mov    $0x0,%eax
    bb37:	0f be c0             	movsbl %al,%eax
    bb3a:	be 07 00 00 00       	mov    $0x7,%esi
    bb3f:	89 c7                	mov    %eax,%edi
    bb41:	e8 5b d7 ff ff       	callq  92a1 <safe_lshift_func_int8_t_s_s>
    bb46:	44 89 ee             	mov    %r13d,%esi
    bb49:	bf 00 00 00 00       	mov    $0x0,%edi
    bb4e:	e8 aa e3 ff ff       	callq  9efd <safe_mod_func_uint32_t_u_u>
    bb53:	0f b7 d0             	movzwl %ax,%edx
    bb56:	48 8b 05 03 19 01 00 	mov    0x11903(%rip),%rax        # 1d460 <g_1991>
    bb5d:	0f b7 00             	movzwl (%rax),%eax
    bb60:	0f b7 c0             	movzwl %ax,%eax
    bb63:	89 d6                	mov    %edx,%esi
    bb65:	89 c7                	mov    %eax,%edi
    bb67:	e8 d1 e1 ff ff       	callq  9d3d <safe_mul_func_uint16_t_u_u>
    bb6c:	0f b7 d0             	movzwl %ax,%edx
    bb6f:	8b 05 bb ad 00 00    	mov    0xadbb(%rip),%eax        # 16930 <l_2884.4322+0x8>
    bb75:	39 c2                	cmp    %eax,%edx
    bb77:	0f 94 c0             	sete   %al
    bb7a:	0f b6 c0             	movzbl %al,%eax
    bb7d:	89 c6                	mov    %eax,%esi
    bb7f:	bf 01 00 00 00       	mov    $0x1,%edi
    bb84:	e8 89 d6 ff ff       	callq  9212 <safe_mul_func_int8_t_s_s>
    bb89:	0f be c0             	movsbl %al,%eax
    bb8c:	89 85 e4 f2 ff ff    	mov    %eax,-0xd1c(%rbp)
    bb92:	8b 05 3c ef 00 00    	mov    0xef3c(%rip),%eax        # 1aad4 <g_2637>
    bb98:	83 c0 01             	add    $0x1,%eax
    bb9b:	89 05 33 ef 00 00    	mov    %eax,0xef33(%rip)        # 1aad4 <g_2637>
    bba1:	8b 05 2d ef 00 00    	mov    0xef2d(%rip),%eax        # 1aad4 <g_2637>
    bba7:	83 f8 04             	cmp    $0x4,%eax
    bbaa:	0f 86 85 fe ff ff    	jbe    ba35 <func_1+0x1280>
    bbb0:	8b 05 76 ad 00 00    	mov    0xad76(%rip),%eax        # 1692c <l_2884.4322+0x4>
    bbb6:	85 c0                	test   %eax,%eax
    bbb8:	0f 85 91 02 00 00    	jne    be4f <func_1+0x169a>
    bbbe:	0f b6 85 bd e8 ff ff 	movzbl -0x1743(%rbp),%eax
    bbc5:	83 e8 01             	sub    $0x1,%eax
    bbc8:	88 85 bd e8 ff ff    	mov    %al,-0x1743(%rbp)
    bbce:	48 c7 05 0f 2b 01 00 	movq   $0x1c,0x12b0f(%rip)        # 1e6e8 <g_1076>
    bbd5:	1c 00 00 00 
    bbd9:	e9 3f 02 00 00       	jmpq   be1d <func_1+0x1668>
    bbde:	66 c7 85 d0 e8 ff ff 	movw   $0x7bf7,-0x1730(%rbp)
    bbe5:	f7 7b 
    bbe7:	66 c7 85 d2 e8 ff ff 	movw   $0xfff9,-0x172e(%rbp)
    bbee:	f9 ff 
    bbf0:	c6 85 c1 e8 ff ff 89 	movb   $0x89,-0x173f(%rbp)
    bbf7:	48 8d 05 fa e8 00 00 	lea    0xe8fa(%rip),%rax        # 1a4f8 <g_1613>
    bbfe:	48 89 85 60 eb ff ff 	mov    %rax,-0x14a0(%rbp)
    bc05:	48 8b 05 2c 13 01 00 	mov    0x1132c(%rip),%rax        # 1cf38 <g_1033>
    bc0c:	0f b7 00             	movzwl (%rax),%eax
    bc0f:	0f bf d8             	movswl %ax,%ebx
    bc12:	48 8b 05 1f 18 01 00 	mov    0x1181f(%rip),%rax        # 1d438 <g_1823>
    bc19:	48 8b 00             	mov    (%rax),%rax
    bc1c:	0f b7 00             	movzwl (%rax),%eax
    bc1f:	66 3d 72 03          	cmp    $0x372,%ax
    bc23:	7f 14                	jg     bc39 <func_1+0x1484>
    bc25:	48 8b 85 00 ea ff ff 	mov    -0x1600(%rbp),%rax
    bc2c:	8b 00                	mov    (%rax),%eax
    bc2e:	85 c0                	test   %eax,%eax
    bc30:	74 07                	je     bc39 <func_1+0x1484>
    bc32:	b8 01 00 00 00       	mov    $0x1,%eax
    bc37:	eb 05                	jmp    bc3e <func_1+0x1489>
    bc39:	b8 00 00 00 00       	mov    $0x0,%eax
    bc3e:	48 98                	cltq   
    bc40:	48 89 c7             	mov    %rax,%rdi
    bc43:	e8 ce db ff ff       	callq  9816 <safe_unary_minus_func_int64_t_s>
    bc48:	49 89 c4             	mov    %rax,%r12
    bc4b:	0f b7 85 d2 e8 ff ff 	movzwl -0x172e(%rbp),%eax
    bc52:	0f b7 c0             	movzwl %ax,%eax
    bc55:	be 0e 00 00 00       	mov    $0xe,%esi
    bc5a:	89 c7                	mov    %eax,%edi
    bc5c:	e8 a5 e1 ff ff       	callq  9e06 <safe_lshift_func_uint16_t_u_u>
    bc61:	0f b7 d0             	movzwl %ax,%edx
    bc64:	0f b7 85 d0 e8 ff ff 	movzwl -0x1730(%rbp),%eax
    bc6b:	89 d6                	mov    %edx,%esi
    bc6d:	89 c7                	mov    %eax,%edi
    bc6f:	e8 b1 e2 ff ff       	callq  9f25 <safe_div_func_uint32_t_u_u>
    bc74:	0f b6 d0             	movzbl %al,%edx
    bc77:	8b 85 18 e9 ff ff    	mov    -0x16e8(%rbp),%eax
    bc7d:	0f b6 c0             	movzbl %al,%eax
    bc80:	89 d6                	mov    %edx,%esi
    bc82:	89 c7                	mov    %eax,%edi
    bc84:	e8 ef de ff ff       	callq  9b78 <safe_sub_func_uint8_t_u_u>
    bc89:	0f b6 d0             	movzbl %al,%edx
    bc8c:	48 8b 05 8d 10 01 00 	mov    0x1108d(%rip),%rax        # 1cd20 <g_85>
    bc93:	8b 08                	mov    (%rax),%ecx
    bc95:	44 89 e6             	mov    %r12d,%esi
    bc98:	48 8b 05 81 10 01 00 	mov    0x11081(%rip),%rax        # 1cd20 <g_85>
    bc9f:	09 f1                	or     %esi,%ecx
    bca1:	89 08                	mov    %ecx,(%rax)
    bca3:	8b 00                	mov    (%rax),%eax
    bca5:	39 c2                	cmp    %eax,%edx
    bca7:	7e 07                	jle    bcb0 <func_1+0x14fb>
    bca9:	b8 2b ad a1 bc       	mov    $0xbca1ad2b,%eax
    bcae:	eb 05                	jmp    bcb5 <func_1+0x1500>
    bcb0:	b8 2a ad a1 bc       	mov    $0xbca1ad2a,%eax
    bcb5:	48 0f bf 95 ce e8 ff 	movswq -0x1732(%rbp),%rdx
    bcbc:	ff 
    bcbd:	48 39 d0             	cmp    %rdx,%rax
    bcc0:	0f 9f c0             	setg   %al
    bcc3:	0f b6 c0             	movzbl %al,%eax
    bcc6:	8b 15 5c ac 00 00    	mov    0xac5c(%rip),%edx        # 16928 <l_2884.4322>
    bccc:	21 d0                	and    %edx,%eax
    bcce:	98                   	cwtl   
    bccf:	89 de                	mov    %ebx,%esi
    bcd1:	89 c7                	mov    %eax,%edi
    bcd3:	e8 ba d7 ff ff       	callq  9492 <safe_lshift_func_int16_t_s_s>
    bcd8:	8b 85 14 e9 ff ff    	mov    -0x16ec(%rbp),%eax
    bcde:	89 c6                	mov    %eax,%esi
    bce0:	bf 00 00 00 00       	mov    $0x0,%edi
    bce5:	e8 a3 df ff ff       	callq  9c8d <safe_rshift_func_uint8_t_u_s>
    bcea:	0f b6 d0             	movzbl %al,%edx
    bced:	48 8b 05 c4 1d 01 00 	mov    0x11dc4(%rip),%rax        # 1dab8 <g_2356>
    bcf4:	48 8b 00             	mov    (%rax),%rax
    bcf7:	48 89 d6             	mov    %rdx,%rsi
    bcfa:	48 89 c7             	mov    %rax,%rdi
    bcfd:	e8 7e e3 ff ff       	callq  a080 <safe_mod_func_uint64_t_u_u>
    bd02:	0f b6 d0             	movzbl %al,%edx
    bd05:	8b 05 21 ac 00 00    	mov    0xac21(%rip),%eax        # 1692c <l_2884.4322+0x4>
    bd0b:	0f b6 c0             	movzbl %al,%eax
    bd0e:	89 d6                	mov    %edx,%esi
    bd10:	89 c7                	mov    %eax,%edi
    bd12:	e8 61 de ff ff       	callq  9b78 <safe_sub_func_uint8_t_u_u>
    bd17:	0f b6 c0             	movzbl %al,%eax
    bd1a:	66 39 85 d0 e8 ff ff 	cmp    %ax,-0x1730(%rbp)
    bd21:	0f 93 c0             	setae  %al
    bd24:	0f b6 d0             	movzbl %al,%edx
    bd27:	8b 85 e4 f2 ff ff    	mov    -0xd1c(%rbp),%eax
    bd2d:	31 d0                	xor    %edx,%eax
    bd2f:	48 98                	cltq   
    bd31:	48 39 85 e8 e9 ff ff 	cmp    %rax,-0x1618(%rbp)
    bd38:	0f 94 c0             	sete   %al
    bd3b:	0f b6 c0             	movzbl %al,%eax
    bd3e:	89 85 e4 f2 ff ff    	mov    %eax,-0xd1c(%rbp)
    bd44:	48 8b 15 05 17 01 00 	mov    0x11705(%rip),%rdx        # 1d450 <g_1917>
    bd4b:	48 8b 05 ee 11 01 00 	mov    0x111ee(%rip),%rax        # 1cf40 <g_1079>
    bd52:	48 8b 12             	mov    (%rdx),%rdx
    bd55:	48 89 10             	mov    %rdx,(%rax)
    bd58:	0f b6 05 a1 e6 00 00 	movzbl 0xe6a1(%rip),%eax        # 1a400 <g_1202>
    bd5f:	48 0f be d8          	movsbq %al,%rbx
    bd63:	48 8b 05 ee 11 01 00 	mov    0x111ee(%rip),%rax        # 1cf58 <g_1198>
    bd6a:	48 8b 00             	mov    (%rax),%rax
    bd6d:	48 8b 00             	mov    (%rax),%rax
    bd70:	8b 00                	mov    (%rax),%eax
    bd72:	25 2e 42 23 60       	and    $0x6023422e,%eax
    bd77:	41 89 c4             	mov    %eax,%r12d
    bd7a:	48 8b 85 e8 e9 ff ff 	mov    -0x1618(%rbp),%rax
    bd81:	0f b6 c0             	movzbl %al,%eax
    bd84:	be 04 00 00 00       	mov    $0x4,%esi
    bd89:	89 c7                	mov    %eax,%edi
    bd8b:	e8 75 de ff ff       	callq  9c05 <safe_lshift_func_uint8_t_u_s>
    bd90:	0f b6 d0             	movzbl %al,%edx
    bd93:	48 8b 05 86 14 01 00 	mov    0x11486(%rip),%rax        # 1d220 <g_1414>
    bd9a:	0f b7 00             	movzwl (%rax),%eax
    bd9d:	98                   	cwtl   
    bd9e:	89 d6                	mov    %edx,%esi
    bda0:	89 c7                	mov    %eax,%edi
    bda2:	e8 2c d6 ff ff       	callq  93d3 <safe_sub_func_int16_t_s_s>
    bda7:	0f be c0             	movsbl %al,%eax
    bdaa:	44 89 e6             	mov    %r12d,%esi
    bdad:	89 c7                	mov    %eax,%edi
    bdaf:	e8 81 d5 ff ff       	callq  9335 <safe_rshift_func_int8_t_s_s>
    bdb4:	84 c0                	test   %al,%al
    bdb6:	0f 94 c0             	sete   %al
    bdb9:	0f b6 c0             	movzbl %al,%eax
    bdbc:	89 c6                	mov    %eax,%esi
    bdbe:	bf 01 00 00 00       	mov    $0x1,%edi
    bdc3:	e8 a4 d5 ff ff       	callq  936c <safe_rshift_func_int8_t_s_u>
    bdc8:	0f be d0             	movsbl %al,%edx
    bdcb:	48 8b 85 60 eb ff ff 	mov    -0x14a0(%rbp),%rax
    bdd2:	89 10                	mov    %edx,(%rax)
    bdd4:	48 8b 85 60 eb ff ff 	mov    -0x14a0(%rbp),%rax
    bddb:	8b 00                	mov    (%rax),%eax
    bddd:	35 96 6f bf cd       	xor    $0xcdbf6f96,%eax
    bde2:	89 c0                	mov    %eax,%eax
    bde4:	48 89 de             	mov    %rbx,%rsi
    bde7:	48 89 c7             	mov    %rax,%rdi
    bdea:	e8 c0 e2 ff ff       	callq  a0af <safe_div_func_uint64_t_u_u>
    bdef:	89 c2                	mov    %eax,%edx
    bdf1:	48 8b 85 00 ea ff ff 	mov    -0x1600(%rbp),%rax
    bdf8:	89 10                	mov    %edx,(%rax)
    bdfa:	8b 05 2c ab 00 00    	mov    0xab2c(%rip),%eax        # 1692c <l_2884.4322+0x4>
    be00:	85 c0                	test   %eax,%eax
    be02:	48 8b 05 df 28 01 00 	mov    0x128df(%rip),%rax        # 1e6e8 <g_1076>
    be09:	be 02 00 00 00       	mov    $0x2,%esi
    be0e:	48 89 c7             	mov    %rax,%rdi
    be11:	e8 92 da ff ff       	callq  98a8 <safe_sub_func_int64_t_s_s>
    be16:	48 89 05 cb 28 01 00 	mov    %rax,0x128cb(%rip)        # 1e6e8 <g_1076>
    be1d:	48 8b 05 c4 28 01 00 	mov    0x128c4(%rip),%rax        # 1e6e8 <g_1076>
    be24:	48 83 f8 0f          	cmp    $0xf,%rax
    be28:	0f 8e b0 fd ff ff    	jle    bbde <func_1+0x1429>
    be2e:	0f b6 05 6b e3 00 00 	movzbl 0xe36b(%rip),%eax        # 1a1a0 <g_154>
    be35:	83 c0 01             	add    $0x1,%eax
    be38:	88 05 62 e3 00 00    	mov    %al,0xe362(%rip)        # 1a1a0 <g_154>
    be3e:	0f b6 05 5b e3 00 00 	movzbl 0xe35b(%rip),%eax        # 1a1a0 <g_154>
    be45:	3c 22                	cmp    $0x22,%al
    be47:	0f 87 c6 fb ff ff    	ja     ba13 <func_1+0x125e>
    be4d:	eb 01                	jmp    be50 <func_1+0x169b>
    be4f:	90                   	nop
    be50:	0f b6 05 dd e4 00 00 	movzbl 0xe4dd(%rip),%eax        # 1a334 <g_476>
    be57:	0f be c0             	movsbl %al,%eax
    be5a:	be 02 00 00 00       	mov    $0x2,%esi
    be5f:	89 c7                	mov    %eax,%edi
    be61:	e8 52 e0 ff ff       	callq  9eb8 <safe_add_func_uint32_t_u_u>
    be66:	88 05 c8 e4 00 00    	mov    %al,0xe4c8(%rip)        # 1a334 <g_476>
    be6c:	0f b6 05 c1 e4 00 00 	movzbl 0xe4c1(%rip),%eax        # 1a334 <g_476>
    be73:	3c 1a                	cmp    $0x1a,%al
    be75:	0f 85 44 fb ff ff    	jne    b9bf <func_1+0x120a>
    be7b:	48 8b 05 de 15 01 00 	mov    0x115de(%rip),%rax        # 1d460 <g_1991>
    be82:	0f b7 00             	movzwl (%rax),%eax
    be85:	0f b7 d8             	movzwl %ax,%ebx
    be88:	48 8b 05 a9 15 01 00 	mov    0x115a9(%rip),%rax        # 1d438 <g_1823>
    be8f:	48 8b 00             	mov    (%rax),%rax
    be92:	0f b7 00             	movzwl (%rax),%eax
    be95:	66 85 c0             	test   %ax,%ax
    be98:	0f 94 c0             	sete   %al
    be9b:	0f b6 c0             	movzbl %al,%eax
    be9e:	89 c6                	mov    %eax,%esi
    bea0:	bf 00 00 00 00       	mov    $0x0,%edi
    bea5:	e8 c2 d4 ff ff       	callq  936c <safe_rshift_func_int8_t_s_u>
    beaa:	be fd ff ff ff       	mov    $0xfffffffd,%esi
    beaf:	bf 01 00 00 00       	mov    $0x1,%edi
    beb4:	e8 3c d5 ff ff       	callq  93f5 <safe_mul_func_int16_t_s_s>
    beb9:	48 8b 05 60 13 01 00 	mov    0x11360(%rip),%rax        # 1d220 <g_1414>
    bec0:	0f b7 00             	movzwl (%rax),%eax
    bec3:	98                   	cwtl   
    bec4:	f7 d0                	not    %eax
    bec6:	89 05 64 e7 00 00    	mov    %eax,0xe764(%rip)        # 1a630 <g_2214>
    becc:	48 8b 85 48 eb ff ff 	mov    -0x14b8(%rbp),%rax
    bed3:	c7 00 a7 13 49 bd    	movl   $0xbd4913a7,(%rax)
    bed9:	48 8b 85 48 eb ff ff 	mov    -0x14b8(%rbp),%rax
    bee0:	8b 10                	mov    (%rax),%edx
    bee2:	48 8b 05 6f 15 01 00 	mov    0x1156f(%rip),%rax        # 1d458 <g_1934>
    bee9:	48 8b 00             	mov    (%rax),%rax
    beec:	8b 00                	mov    (%rax),%eax
    beee:	39 c2                	cmp    %eax,%edx
    bef0:	0f 96 c0             	setbe  %al
    bef3:	0f b6 d0             	movzbl %al,%edx
    bef6:	0f b6 85 bd e8 ff ff 	movzbl -0x1743(%rbp),%eax
    befd:	39 c2                	cmp    %eax,%edx
    beff:	0f 9e c0             	setle  %al
    bf02:	0f b6 c0             	movzbl %al,%eax
    bf05:	89 de                	mov    %ebx,%esi
    bf07:	89 c7                	mov    %eax,%edi
    bf09:	e8 55 d6 ff ff       	callq  9563 <safe_rshift_func_int16_t_s_u>
    bf0e:	0f be d8             	movsbl %al,%ebx
    bf11:	be 06 00 00 00       	mov    $0x6,%esi
    bf16:	bf 01 00 00 00       	mov    $0x1,%edi
    bf1b:	e8 d5 d4 ff ff       	callq  93f5 <safe_mul_func_int16_t_s_s>
    bf20:	48 0f bf d0          	movswq %ax,%rdx
    bf24:	48 8b 85 40 eb ff ff 	mov    -0x14c0(%rbp),%rax
    bf2b:	48 8b 00             	mov    (%rax),%rax
    bf2e:	48 8d 70 01          	lea    0x1(%rax),%rsi
    bf32:	48 8b 8d 40 eb ff ff 	mov    -0x14c0(%rbp),%rcx
    bf39:	48 89 31             	mov    %rsi,(%rcx)
    bf3c:	48 89 d6             	mov    %rdx,%rsi
    bf3f:	48 89 c7             	mov    %rax,%rdi
    bf42:	e8 04 e1 ff ff       	callq  a04b <safe_sub_func_uint64_t_u_u>
    bf47:	0f be c0             	movsbl %al,%eax
    bf4a:	89 de                	mov    %ebx,%esi
    bf4c:	89 c7                	mov    %eax,%edi
    bf4e:	e8 de d2 ff ff       	callq  9231 <safe_mod_func_int8_t_s_s>
    bf53:	48 8b 05 d6 0f 01 00 	mov    0x10fd6(%rip),%rax        # 1cf30 <g_1031>
    bf5a:	0f b7 00             	movzwl (%rax),%eax
    bf5d:	66 85 c0             	test   %ax,%ax
    bf60:	0f 9e c0             	setle  %al
    bf63:	0f b6 c0             	movzbl %al,%eax
    bf66:	8b 95 14 e9 ff ff    	mov    -0x16ec(%rbp),%edx
    bf6c:	89 d6                	mov    %edx,%esi
    bf6e:	89 c7                	mov    %eax,%edi
    bf70:	e8 c0 d3 ff ff       	callq  9335 <safe_rshift_func_int8_t_s_s>
    bf75:	48 8b 05 44 1b 01 00 	mov    0x11b44(%rip),%rax        # 1dac0 <g_2355>
    bf7c:	48 8b 00             	mov    (%rax),%rax
    bf7f:	48 8b 10             	mov    (%rax),%rdx
    bf82:	48 8b 85 50 eb ff ff 	mov    -0x14b0(%rbp),%rax
    bf89:	48 89 10             	mov    %rdx,(%rax)
    bf8c:	48 8b 05 25 20 01 00 	mov    0x12025(%rip),%rax        # 1dfb8 <g_2829>
    bf93:	48 8b 00             	mov    (%rax),%rax
    bf96:	8b 00                	mov    (%rax),%eax
    bf98:	85 c0                	test   %eax,%eax
    bf9a:	0f 84 e1 00 00 00    	je     c081 <func_1+0x18cc>
    bfa0:	c7 85 f8 e8 ff ff 00 	movl   $0x0,-0x1708(%rbp)
    bfa7:	00 00 00 
    bfaa:	eb 21                	jmp    bfcd <func_1+0x1818>
    bfac:	8b 85 f8 e8 ff ff    	mov    -0x1708(%rbp),%eax
    bfb2:	48 98                	cltq   
    bfb4:	48 bb 74 69 27 73 c0 	movabs $0x1c8ee4c073276974,%rbx
    bfbb:	e4 8e 1c 
    bfbe:	48 89 9c c5 30 ee ff 	mov    %rbx,-0x11d0(%rbp,%rax,8)
    bfc5:	ff 
    bfc6:	83 85 f8 e8 ff ff 01 	addl   $0x1,-0x1708(%rbp)
    bfcd:	83 bd f8 e8 ff ff 00 	cmpl   $0x0,-0x1708(%rbp)
    bfd4:	7e d6                	jle    bfac <func_1+0x17f7>
    bfd6:	48 8b 85 30 ee ff ff 	mov    -0x11d0(%rbp),%rax
    bfdd:	48 83 e8 01          	sub    $0x1,%rax
    bfe1:	48 89 85 30 ee ff ff 	mov    %rax,-0x11d0(%rbp)
    bfe8:	48 8b 05 19 13 01 00 	mov    0x11319(%rip),%rax        # 1d308 <g_1649>
    bfef:	48 8b 00             	mov    (%rax),%rax
    bff2:	8b 10                	mov    (%rax),%edx
    bff4:	89 d1                	mov    %edx,%ecx
    bff6:	48 8b 95 30 ee ff ff 	mov    -0x11d0(%rbp),%rdx
    bffd:	31 ca                	xor    %ecx,%edx
    bfff:	89 10                	mov    %edx,(%rax)
    c001:	c6 05 1c e1 00 00 0c 	movb   $0xc,0xe11c(%rip)        # 1a124 <g_49>
    c008:	eb 52                	jmp    c05c <func_1+0x18a7>
    c00a:	c7 05 c0 ea 00 00 02 	movl   $0x2,0xeac0(%rip)        # 1aad4 <g_2637>
    c011:	00 00 00 
    c014:	90                   	nop
    c015:	8b 05 b9 ea 00 00    	mov    0xeab9(%rip),%eax        # 1aad4 <g_2637>
    c01b:	83 f8 06             	cmp    $0x6,%eax
    c01e:	77 20                	ja     c040 <func_1+0x188b>
    c020:	8b 05 ae ea 00 00    	mov    0xeaae(%rip),%eax        # 1aad4 <g_2637>
    c026:	89 c0                	mov    %eax,%eax
    c028:	48 8d 14 00          	lea    (%rax,%rax,1),%rdx
    c02c:	48 8d 05 85 e1 00 00 	lea    0xe185(%rip),%rax        # 1a1b8 <g_331>
    c033:	0f b7 04 02          	movzwl (%rdx,%rax,1),%eax
    c037:	48 0f bf c0          	movswq %ax,%rax
    c03b:	e9 f3 24 00 00       	jmpq   e533 <func_1+0x3d7e>
    c040:	0f b6 05 dd e0 00 00 	movzbl 0xe0dd(%rip),%eax        # 1a124 <g_49>
    c047:	0f be c0             	movsbl %al,%eax
    c04a:	be 02 00 00 00       	mov    $0x2,%esi
    c04f:	89 c7                	mov    %eax,%edi
    c051:	e8 af d5 ff ff       	callq  9605 <safe_sub_func_int32_t_s_s>
    c056:	88 05 c8 e0 00 00    	mov    %al,0xe0c8(%rip)        # 1a124 <g_49>
    c05c:	0f b6 05 c1 e0 00 00 	movzbl 0xe0c1(%rip),%eax        # 1a124 <g_49>
    c063:	3c 09                	cmp    $0x9,%al
    c065:	7e a3                	jle    c00a <func_1+0x1855>
    c067:	0f b6 85 14 ed ff ff 	movzbl -0x12ec(%rbp),%eax
    c06e:	84 c0                	test   %al,%al
    c070:	0f 95 c0             	setne  %al
    c073:	0f b6 d0             	movzbl %al,%edx
    c076:	48 8b 85 00 ea ff ff 	mov    -0x1600(%rbp),%rax
    c07d:	89 10                	mov    %edx,(%rax)
    c07f:	eb 13                	jmp    c094 <func_1+0x18df>
    c081:	48 8b 05 48 12 01 00 	mov    0x11248(%rip),%rax        # 1d2d0 <g_1549>
    c088:	8b 00                	mov    (%rax),%eax
    c08a:	85 c0                	test   %eax,%eax
    c08c:	74 06                	je     c094 <func_1+0x18df>
    c08e:	90                   	nop
    c08f:	e9 96 24 00 00       	jmpq   e52a <func_1+0x3d75>
    c094:	c7 05 da e0 00 00 00 	movl   $0x0,0xe0da(%rip)        # 1a178 <g_139>
    c09b:	00 00 00 
    c09e:	90                   	nop
    c09f:	8b 05 d3 e0 00 00    	mov    0xe0d3(%rip),%eax        # 1a178 <g_139>
    c0a5:	83 f8 03             	cmp    $0x3,%eax
    c0a8:	77 39                	ja     c0e3 <func_1+0x192e>
    c0aa:	8b 05 c8 e0 00 00    	mov    0xe0c8(%rip),%eax        # 1a178 <g_139>
    c0b0:	8d 50 03             	lea    0x3(%rax),%edx
    c0b3:	8b 05 bf e0 00 00    	mov    0xe0bf(%rip),%eax        # 1a178 <g_139>
    c0b9:	89 c1                	mov    %eax,%ecx
    c0bb:	89 d2                	mov    %edx,%edx
    c0bd:	48 89 d0             	mov    %rdx,%rax
    c0c0:	48 c1 e0 02          	shl    $0x2,%rax
    c0c4:	48 01 d0             	add    %rdx,%rax
    c0c7:	48 01 c8             	add    %rcx,%rax
    c0ca:	48 8d 14 85 00 00 00 	lea    0x0(,%rax,4),%rdx
    c0d1:	00 
    c0d2:	48 8d 05 c7 e1 00 00 	lea    0xe1c7(%rip),%rax        # 1a2a0 <g_334>
    c0d9:	8b 04 02             	mov    (%rdx,%rax,1),%eax
    c0dc:	89 c0                	mov    %eax,%eax
    c0de:	e9 50 24 00 00       	jmpq   e533 <func_1+0x3d7e>
    c0e3:	0f b7 05 fa e3 00 00 	movzwl 0xe3fa(%rip),%eax        # 1a4e4 <g_1562>
    c0ea:	83 e8 01             	sub    $0x1,%eax
    c0ed:	66 89 05 f0 e3 00 00 	mov    %ax,0xe3f0(%rip)        # 1a4e4 <g_1562>
    c0f4:	e9 1e 24 00 00       	jmpq   e517 <func_1+0x3d62>
    c0f9:	c6 85 bb e8 ff ff 00 	movb   $0x0,-0x1745(%rbp)
    c100:	48 c7 85 c8 e9 ff ff 	movq   $0x9,-0x1638(%rbp)
    c107:	09 00 00 00 
    c10b:	48 8d 85 30 ee ff ff 	lea    -0x11d0(%rbp),%rax
    c112:	48 8d 15 47 ee 00 00 	lea    0xee47(%rip),%rdx        # 1af60 <g_3271+0x3dc>
    c119:	b9 32 00 00 00       	mov    $0x32,%ecx
    c11e:	48 89 c7             	mov    %rax,%rdi
    c121:	48 89 d6             	mov    %rdx,%rsi
    c124:	f3 48 a5             	rep movsq %ds:(%rsi),%es:(%rdi)
    c127:	c7 85 24 e9 ff ff ce 	movl   $0x85e793ce,-0x16dc(%rbp)
    c12e:	93 e7 85 
    c131:	48 8d 85 88 e9 ff ff 	lea    -0x1678(%rbp),%rax
    c138:	48 89 85 30 ea ff ff 	mov    %rax,-0x15d0(%rbp)
    c13f:	c7 85 40 ec ff ff e4 	movl   $0x2883be4,-0x13c0(%rbp)
    c146:	3b 88 02 
    c149:	c7 85 44 ec ff ff e4 	movl   $0x2883be4,-0x13bc(%rbp)
    c150:	3b 88 02 
    c153:	c7 85 48 ec ff ff f7 	movl   $0xfffffff7,-0x13b8(%rbp)
    c15a:	ff ff ff 
    c15d:	c7 85 4c ec ff ff e4 	movl   $0x2883be4,-0x13b4(%rbp)
    c164:	3b 88 02 
    c167:	c7 85 50 ec ff ff e4 	movl   $0x2883be4,-0x13b0(%rbp)
    c16e:	3b 88 02 
    c171:	c7 85 54 ec ff ff f7 	movl   $0xfffffff7,-0x13ac(%rbp)
    c178:	ff ff ff 
    c17b:	c7 85 58 ec ff ff e4 	movl   $0x2883be4,-0x13a8(%rbp)
    c182:	3b 88 02 
    c185:	48 8d 05 a4 24 01 00 	lea    0x124a4(%rip),%rax        # 1e630 <g_532>
    c18c:	48 89 85 b0 e9 ff ff 	mov    %rax,-0x1650(%rbp)
    c193:	48 8d 85 b0 e9 ff ff 	lea    -0x1650(%rbp),%rax
    c19a:	48 89 85 38 ea ff ff 	mov    %rax,-0x15c8(%rbp)
    c1a1:	c7 85 fc e8 ff ff 00 	movl   $0x0,-0x1704(%rbp)
    c1a8:	00 00 00 
    c1ab:	eb 42                	jmp    c1ef <func_1+0x1a3a>
    c1ad:	c7 85 00 e9 ff ff 00 	movl   $0x0,-0x1700(%rbp)
    c1b4:	00 00 00 
    c1b7:	eb 26                	jmp    c1df <func_1+0x1a2a>
    c1b9:	8b 85 00 e9 ff ff    	mov    -0x1700(%rbp),%eax
    c1bf:	48 63 d0             	movslq %eax,%rdx
    c1c2:	8b 85 fc e8 ff ff    	mov    -0x1704(%rbp),%eax
    c1c8:	48 98                	cltq   
    c1ca:	48 01 d0             	add    %rdx,%rax
    c1cd:	c7 84 85 c4 eb ff ff 	movl   $0x0,-0x143c(%rbp,%rax,4)
    c1d4:	00 00 00 00 
    c1d8:	83 85 00 e9 ff ff 01 	addl   $0x1,-0x1700(%rbp)
    c1df:	83 bd 00 e9 ff ff 00 	cmpl   $0x0,-0x1700(%rbp)
    c1e6:	7e d1                	jle    c1b9 <func_1+0x1a04>
    c1e8:	83 85 fc e8 ff ff 01 	addl   $0x1,-0x1704(%rbp)
    c1ef:	83 bd fc e8 ff ff 02 	cmpl   $0x2,-0x1704(%rbp)
    c1f6:	7e b5                	jle    c1ad <func_1+0x19f8>
    c1f8:	c7 85 fc e8 ff ff 00 	movl   $0x0,-0x1704(%rbp)
    c1ff:	00 00 00 
    c202:	eb 19                	jmp    c21d <func_1+0x1a68>
    c204:	8b 85 fc e8 ff ff    	mov    -0x1704(%rbp),%eax
    c20a:	48 98                	cltq   
    c20c:	66 c7 84 45 d0 eb ff 	movw   $0xa5ef,-0x1430(%rbp,%rax,2)
    c213:	ff ef a5 
    c216:	83 85 fc e8 ff ff 01 	addl   $0x1,-0x1704(%rbp)
    c21d:	83 bd fc e8 ff ff 07 	cmpl   $0x7,-0x1704(%rbp)
    c224:	7e de                	jle    c204 <func_1+0x1a4f>
    c226:	c6 05 73 df 00 00 02 	movb   $0x2,0xdf73(%rip)        # 1a1a0 <g_154>
    c22d:	e9 c8 0d 00 00       	jmpq   cffa <func_1+0x2845>
    c232:	48 c7 85 e0 ea ff ff 	movq   $0x0,-0x1520(%rbp)
    c239:	00 00 00 00 
    c23d:	48 8d 05 54 df 00 00 	lea    0xdf54(%rip),%rax        # 1a198 <g_146+0x18>
    c244:	48 89 85 e8 ea ff ff 	mov    %rax,-0x1518(%rbp)
    c24b:	c7 85 5c e9 ff ff 1e 	movl   $0x2af1b51e,-0x16a4(%rbp)
    c252:	b5 f1 2a 
    c255:	48 8d 05 4c df 00 00 	lea    0xdf4c(%rip),%rax        # 1a1a8 <g_223>
    c25c:	48 89 85 f0 ea ff ff 	mov    %rax,-0x1510(%rbp)
    c263:	48 8d 05 ae 24 01 00 	lea    0x124ae(%rip),%rax        # 1e718 <g_2767>
    c26a:	48 89 85 f8 ea ff ff 	mov    %rax,-0x1508(%rbp)
    c271:	c7 85 30 ed ff ff 5f 	movl   $0x5f5f5f5f,-0x12d0(%rbp)
    c278:	5f 5f 5f 
    c27b:	c7 85 34 ed ff ff 5f 	movl   $0x5f5f5f5f,-0x12cc(%rbp)
    c282:	5f 5f 5f 
    c285:	c7 85 38 ed ff ff 5f 	movl   $0x5f5f5f5f,-0x12c8(%rbp)
    c28c:	5f 5f 5f 
    c28f:	c7 85 3c ed ff ff 5f 	movl   $0x5f5f5f5f,-0x12c4(%rbp)
    c296:	5f 5f 5f 
    c299:	c7 85 40 ed ff ff 5f 	movl   $0x5f5f5f5f,-0x12c0(%rbp)
    c2a0:	5f 5f 5f 
    c2a3:	c7 85 44 ed ff ff 5f 	movl   $0x5f5f5f5f,-0x12bc(%rbp)
    c2aa:	5f 5f 5f 
    c2ad:	c7 85 48 ed ff ff 5f 	movl   $0x5f5f5f5f,-0x12b8(%rbp)
    c2b4:	5f 5f 5f 
    c2b7:	c7 85 4c ed ff ff 5f 	movl   $0x5f5f5f5f,-0x12b4(%rbp)
    c2be:	5f 5f 5f 
    c2c1:	c7 85 50 ed ff ff 5f 	movl   $0x5f5f5f5f,-0x12b0(%rbp)
    c2c8:	5f 5f 5f 
    c2cb:	c7 85 54 ed ff ff 5f 	movl   $0x5f5f5f5f,-0x12ac(%rbp)
    c2d2:	5f 5f 5f 
    c2d5:	c7 85 58 ed ff ff 5f 	movl   $0x5f5f5f5f,-0x12a8(%rbp)
    c2dc:	5f 5f 5f 
    c2df:	c7 85 5c ed ff ff 5f 	movl   $0x5f5f5f5f,-0x12a4(%rbp)
    c2e6:	5f 5f 5f 
    c2e9:	c7 85 60 ed ff ff 5f 	movl   $0x5f5f5f5f,-0x12a0(%rbp)
    c2f0:	5f 5f 5f 
    c2f3:	c7 85 64 ed ff ff 5f 	movl   $0x5f5f5f5f,-0x129c(%rbp)
    c2fa:	5f 5f 5f 
    c2fd:	c7 85 68 ed ff ff 5f 	movl   $0x5f5f5f5f,-0x1298(%rbp)
    c304:	5f 5f 5f 
    c307:	c7 85 6c ed ff ff 5f 	movl   $0x5f5f5f5f,-0x1294(%rbp)
    c30e:	5f 5f 5f 
    c311:	c7 85 70 ed ff ff 5f 	movl   $0x5f5f5f5f,-0x1290(%rbp)
    c318:	5f 5f 5f 
    c31b:	c7 85 74 ed ff ff 5f 	movl   $0x5f5f5f5f,-0x128c(%rbp)
    c322:	5f 5f 5f 
    c325:	c7 85 78 ed ff ff 5f 	movl   $0x5f5f5f5f,-0x1288(%rbp)
    c32c:	5f 5f 5f 
    c32f:	c7 85 7c ed ff ff 5f 	movl   $0x5f5f5f5f,-0x1284(%rbp)
    c336:	5f 5f 5f 
    c339:	c7 85 80 ed ff ff 5f 	movl   $0x5f5f5f5f,-0x1280(%rbp)
    c340:	5f 5f 5f 
    c343:	c7 85 84 ed ff ff 5f 	movl   $0x5f5f5f5f,-0x127c(%rbp)
    c34a:	5f 5f 5f 
    c34d:	c7 85 88 ed ff ff 5f 	movl   $0x5f5f5f5f,-0x1278(%rbp)
    c354:	5f 5f 5f 
    c357:	c7 85 8c ed ff ff 5f 	movl   $0x5f5f5f5f,-0x1274(%rbp)
    c35e:	5f 5f 5f 
    c361:	c7 85 90 ed ff ff 5f 	movl   $0x5f5f5f5f,-0x1270(%rbp)
    c368:	5f 5f 5f 
    c36b:	c7 85 94 ed ff ff 5f 	movl   $0x5f5f5f5f,-0x126c(%rbp)
    c372:	5f 5f 5f 
    c375:	c7 85 98 ed ff ff 5f 	movl   $0x5f5f5f5f,-0x1268(%rbp)
    c37c:	5f 5f 5f 
    c37f:	c7 85 9c ed ff ff 5f 	movl   $0x5f5f5f5f,-0x1264(%rbp)
    c386:	5f 5f 5f 
    c389:	c7 85 a0 ed ff ff 5f 	movl   $0x5f5f5f5f,-0x1260(%rbp)
    c390:	5f 5f 5f 
    c393:	c7 85 a4 ed ff ff 5f 	movl   $0x5f5f5f5f,-0x125c(%rbp)
    c39a:	5f 5f 5f 
    c39d:	c7 85 a8 ed ff ff 5f 	movl   $0x5f5f5f5f,-0x1258(%rbp)
    c3a4:	5f 5f 5f 
    c3a7:	c7 85 ac ed ff ff 5f 	movl   $0x5f5f5f5f,-0x1254(%rbp)
    c3ae:	5f 5f 5f 
    c3b1:	c7 85 b0 ed ff ff 5f 	movl   $0x5f5f5f5f,-0x1250(%rbp)
    c3b8:	5f 5f 5f 
    c3bb:	c7 85 b4 ed ff ff 5f 	movl   $0x5f5f5f5f,-0x124c(%rbp)
    c3c2:	5f 5f 5f 
    c3c5:	c7 85 b8 ed ff ff 5f 	movl   $0x5f5f5f5f,-0x1248(%rbp)
    c3cc:	5f 5f 5f 
    c3cf:	c7 85 bc ed ff ff 5f 	movl   $0x5f5f5f5f,-0x1244(%rbp)
    c3d6:	5f 5f 5f 
    c3d9:	c7 85 c0 ed ff ff 5f 	movl   $0x5f5f5f5f,-0x1240(%rbp)
    c3e0:	5f 5f 5f 
    c3e3:	c7 85 c4 ed ff ff 5f 	movl   $0x5f5f5f5f,-0x123c(%rbp)
    c3ea:	5f 5f 5f 
    c3ed:	c7 85 c8 ed ff ff 5f 	movl   $0x5f5f5f5f,-0x1238(%rbp)
    c3f4:	5f 5f 5f 
    c3f7:	c7 85 cc ed ff ff 5f 	movl   $0x5f5f5f5f,-0x1234(%rbp)
    c3fe:	5f 5f 5f 
    c401:	c7 85 d0 ed ff ff 5f 	movl   $0x5f5f5f5f,-0x1230(%rbp)
    c408:	5f 5f 5f 
    c40b:	c7 85 d4 ed ff ff 5f 	movl   $0x5f5f5f5f,-0x122c(%rbp)
    c412:	5f 5f 5f 
    c415:	c7 85 d8 ed ff ff 5f 	movl   $0x5f5f5f5f,-0x1228(%rbp)
    c41c:	5f 5f 5f 
    c41f:	c7 85 dc ed ff ff 5f 	movl   $0x5f5f5f5f,-0x1224(%rbp)
    c426:	5f 5f 5f 
    c429:	c7 85 e0 ed ff ff 5f 	movl   $0x5f5f5f5f,-0x1220(%rbp)
    c430:	5f 5f 5f 
    c433:	c7 85 e4 ed ff ff 5f 	movl   $0x5f5f5f5f,-0x121c(%rbp)
    c43a:	5f 5f 5f 
    c43d:	c7 85 e8 ed ff ff 5f 	movl   $0x5f5f5f5f,-0x1218(%rbp)
    c444:	5f 5f 5f 
    c447:	c7 85 ec ed ff ff 5f 	movl   $0x5f5f5f5f,-0x1214(%rbp)
    c44e:	5f 5f 5f 
    c451:	c7 85 f0 ed ff ff 5f 	movl   $0x5f5f5f5f,-0x1210(%rbp)
    c458:	5f 5f 5f 
    c45b:	c7 85 f4 ed ff ff 5f 	movl   $0x5f5f5f5f,-0x120c(%rbp)
    c462:	5f 5f 5f 
    c465:	c7 85 f8 ed ff ff 5f 	movl   $0x5f5f5f5f,-0x1208(%rbp)
    c46c:	5f 5f 5f 
    c46f:	c7 85 fc ed ff ff 5f 	movl   $0x5f5f5f5f,-0x1204(%rbp)
    c476:	5f 5f 5f 
    c479:	c7 85 00 ee ff ff 5f 	movl   $0x5f5f5f5f,-0x1200(%rbp)
    c480:	5f 5f 5f 
    c483:	c7 85 04 ee ff ff 5f 	movl   $0x5f5f5f5f,-0x11fc(%rbp)
    c48a:	5f 5f 5f 
    c48d:	c7 85 08 ee ff ff 5f 	movl   $0x5f5f5f5f,-0x11f8(%rbp)
    c494:	5f 5f 5f 
    c497:	c7 85 0c ee ff ff 5f 	movl   $0x5f5f5f5f,-0x11f4(%rbp)
    c49e:	5f 5f 5f 
    c4a1:	c7 85 10 ee ff ff 5f 	movl   $0x5f5f5f5f,-0x11f0(%rbp)
    c4a8:	5f 5f 5f 
    c4ab:	c7 85 14 ee ff ff 5f 	movl   $0x5f5f5f5f,-0x11ec(%rbp)
    c4b2:	5f 5f 5f 
    c4b5:	c7 85 18 ee ff ff 5f 	movl   $0x5f5f5f5f,-0x11e8(%rbp)
    c4bc:	5f 5f 5f 
    c4bf:	c7 85 1c ee ff ff 5f 	movl   $0x5f5f5f5f,-0x11e4(%rbp)
    c4c6:	5f 5f 5f 
    c4c9:	c7 85 20 ee ff ff 5f 	movl   $0x5f5f5f5f,-0x11e0(%rbp)
    c4d0:	5f 5f 5f 
    c4d3:	c7 85 24 ee ff ff 5f 	movl   $0x5f5f5f5f,-0x11dc(%rbp)
    c4da:	5f 5f 5f 
    c4dd:	c7 85 28 ee ff ff 5f 	movl   $0x5f5f5f5f,-0x11d8(%rbp)
    c4e4:	5f 5f 5f 
    c4e7:	c7 85 2c ee ff ff 5f 	movl   $0x5f5f5f5f,-0x11d4(%rbp)
    c4ee:	5f 5f 5f 
    c4f1:	48 b8 fc fc fc fc fc 	movabs $0xfcfcfcfcfcfcfcfc,%rax
    c4f8:	fc fc fc 
    c4fb:	48 89 45 bf          	mov    %rax,-0x41(%rbp)
    c4ff:	c6 45 c7 fc          	movb   $0xfc,-0x39(%rbp)
    c503:	48 8d 05 a6 dc 00 00 	lea    0xdca6(%rip),%rax        # 1a1b0 <g_234>
    c50a:	48 89 85 00 eb ff ff 	mov    %rax,-0x1500(%rbp)
    c511:	0f b6 05 88 dc 00 00 	movzbl 0xdc88(%rip),%eax        # 1a1a0 <g_154>
    c518:	0f b6 c0             	movzbl %al,%eax
    c51b:	48 98                	cltq   
    c51d:	48 8d 14 c5 00 00 00 	lea    0x0(,%rax,8),%rdx
    c524:	00 
    c525:	48 8d 05 14 dc 00 00 	lea    0xdc14(%rip),%rax        # 1a140 <g_91>
    c52c:	48 8b 04 02          	mov    (%rdx,%rax,1),%rax
    c530:	48 8b 05 e9 07 01 00 	mov    0x107e9(%rip),%rax        # 1cd20 <g_85>
    c537:	8b 10                	mov    (%rax),%edx
    c539:	48 8b 85 00 ea ff ff 	mov    -0x1600(%rbp),%rax
    c540:	8b 00                	mov    (%rax),%eax
    c542:	39 c2                	cmp    %eax,%edx
    c544:	48 8b 05 3d 08 01 00 	mov    0x1083d(%rip),%rax        # 1cd88 <g_422>
    c54b:	0f b6 00             	movzbl (%rax),%eax
    c54e:	0f b6 d0             	movzbl %al,%edx
    c551:	8b 85 9c f4 ff ff    	mov    -0xb64(%rbp),%eax
    c557:	0f b6 c0             	movzbl %al,%eax
    c55a:	89 d6                	mov    %edx,%esi
    c55c:	89 c7                	mov    %eax,%edi
    c55e:	e8 78 d6 ff ff       	callq  9bdb <safe_div_func_uint8_t_u_u>
    c563:	48 8b 85 e8 ea ff ff 	mov    -0x1518(%rbp),%rax
    c56a:	48 c7 00 07 00 00 00 	movq   $0x7,(%rax)
    c571:	48 8b 85 e8 ea ff ff 	mov    -0x1518(%rbp),%rax
    c578:	48 8b 00             	mov    (%rax),%rax
    c57b:	25 ea d7 40 1c       	and    $0x1c40d7ea,%eax
    c580:	48 89 c2             	mov    %rax,%rdx
    c583:	0f b6 85 bd e8 ff ff 	movzbl -0x1743(%rbp),%eax
    c58a:	48 39 c2             	cmp    %rax,%rdx
    c58d:	0f 9c c0             	setl   %al
    c590:	0f b6 d8             	movzbl %al,%ebx
    c593:	8b 85 e4 f2 ff ff    	mov    -0xd1c(%rbp),%eax
    c599:	0f b6 d0             	movzbl %al,%edx
    c59c:	48 8b 05 25 0d 01 00 	mov    0x10d25(%rip),%rax        # 1d2c8 <g_1446>
    c5a3:	48 8b 00             	mov    (%rax),%rax
    c5a6:	48 8b 00             	mov    (%rax),%rax
    c5a9:	48 8b 00             	mov    (%rax),%rax
    c5ac:	0f b6 00             	movzbl (%rax),%eax
    c5af:	0f b6 c0             	movzbl %al,%eax
    c5b2:	89 d6                	mov    %edx,%esi
    c5b4:	89 c7                	mov    %eax,%edi
    c5b6:	e8 f3 d5 ff ff       	callq  9bae <safe_mod_func_uint8_t_u_u>
    c5bb:	84 c0                	test   %al,%al
    c5bd:	74 12                	je     c5d1 <func_1+0x1e1c>
    c5bf:	0f b6 85 bb e8 ff ff 	movzbl -0x1745(%rbp),%eax
    c5c6:	84 c0                	test   %al,%al
    c5c8:	74 07                	je     c5d1 <func_1+0x1e1c>
    c5ca:	b8 01 00 00 00       	mov    $0x1,%eax
    c5cf:	eb 05                	jmp    c5d6 <func_1+0x1e21>
    c5d1:	b8 00 00 00 00       	mov    $0x0,%eax
    c5d6:	31 d8                	xor    %ebx,%eax
    c5d8:	09 85 5c e9 ff ff    	or     %eax,-0x16a4(%rbp)
    c5de:	8b 85 5c e9 ff ff    	mov    -0x16a4(%rbp),%eax
    c5e4:	48 63 d8             	movslq %eax,%rbx
    c5e7:	0f b6 85 bb e8 ff ff 	movzbl -0x1745(%rbp),%eax
    c5ee:	66 98                	cbtw   
    c5f0:	44 0f b7 e0          	movzwl %ax,%r12d
    c5f4:	48 8b 85 f0 ea ff ff 	mov    -0x1510(%rbp),%rax
    c5fb:	0f b7 00             	movzwl (%rax),%eax
    c5fe:	8d 48 ff             	lea    -0x1(%rax),%ecx
    c601:	48 8b 95 f0 ea ff ff 	mov    -0x1510(%rbp),%rdx
    c608:	66 89 0a             	mov    %cx,(%rdx)
    c60b:	98                   	cwtl   
    c60c:	89 c6                	mov    %eax,%esi
    c60e:	bf 01 00 00 00       	mov    $0x1,%edi
    c613:	e8 3d ce ff ff       	callq  9455 <safe_div_func_int16_t_s_s>
    c618:	0f b6 85 bb e8 ff ff 	movzbl -0x1745(%rbp),%eax
    c61f:	44 0f b6 e8          	movzbl %al,%r13d
    c623:	48 8b 85 d8 e9 ff ff 	mov    -0x1628(%rbp),%rax
    c62a:	48 8b 00             	mov    (%rax),%rax
    c62d:	48 8b 95 f8 ea ff ff 	mov    -0x1508(%rbp),%rdx
    c634:	48 89 10             	mov    %rdx,(%rax)
    c637:	48 8b 00             	mov    (%rax),%rax
    c63a:	48 85 c0             	test   %rax,%rax
    c63d:	0f 94 c0             	sete   %al
    c640:	0f b6 d0             	movzbl %al,%edx
    c643:	48 8b 85 f0 ea ff ff 	mov    -0x1510(%rbp),%rax
    c64a:	66 89 10             	mov    %dx,(%rax)
    c64d:	48 8b 85 f0 ea ff ff 	mov    -0x1510(%rbp),%rax
    c654:	0f b7 00             	movzwl (%rax),%eax
    c657:	0f b7 d0             	movzwl %ax,%edx
    c65a:	0f b6 85 bb e8 ff ff 	movzbl -0x1745(%rbp),%eax
    c661:	0f be c0             	movsbl %al,%eax
    c664:	39 c2                	cmp    %eax,%edx
    c666:	0f 9c c0             	setl   %al
    c669:	0f b6 d0             	movzbl %al,%edx
    c66c:	48 8b 85 00 ea ff ff 	mov    -0x1600(%rbp),%rax
    c673:	8b 00                	mov    (%rax),%eax
    c675:	83 f0 fe             	xor    $0xfffffffe,%eax
    c678:	98                   	cwtl   
    c679:	89 d6                	mov    %edx,%esi
    c67b:	89 c7                	mov    %eax,%edi
    c67d:	e8 5f ce ff ff       	callq  94e1 <safe_lshift_func_int16_t_s_u>
    c682:	66 85 c0             	test   %ax,%ax
    c685:	74 12                	je     c699 <func_1+0x1ee4>
    c687:	0f b6 85 bb e8 ff ff 	movzbl -0x1745(%rbp),%eax
    c68e:	84 c0                	test   %al,%al
    c690:	74 07                	je     c699 <func_1+0x1ee4>
    c692:	b8 01 00 00 00       	mov    $0x1,%eax
    c697:	eb 05                	jmp    c69e <func_1+0x1ee9>
    c699:	b8 00 00 00 00       	mov    $0x0,%eax
    c69e:	0f b6 c0             	movzbl %al,%eax
    c6a1:	44 89 ee             	mov    %r13d,%esi
    c6a4:	89 c7                	mov    %eax,%edi
    c6a6:	e8 cd d4 ff ff       	callq  9b78 <safe_sub_func_uint8_t_u_u>
    c6ab:	0f b6 c0             	movzbl %al,%eax
    c6ae:	44 89 e6             	mov    %r12d,%esi
    c6b1:	89 c7                	mov    %eax,%edi
    c6b3:	e8 a4 d6 ff ff       	callq  9d5c <safe_mod_func_uint16_t_u_u>
    c6b8:	0f b7 c0             	movzwl %ax,%eax
    c6bb:	48 89 de             	mov    %rbx,%rsi
    c6be:	48 89 c7             	mov    %rax,%rdi
    c6c1:	e8 ee d2 ff ff       	callq  99b4 <safe_mod_func_int64_t_s_s>
    c6c6:	48 8b 05 eb 13 01 00 	mov    0x113eb(%rip),%rax        # 1dab8 <g_2356>
    c6cd:	48 8b 00             	mov    (%rax),%rax
    c6d0:	89 85 d4 e8 ff ff    	mov    %eax,-0x172c(%rbp)
    c6d6:	be 3d e5 00 00       	mov    $0xe53d,%esi
    c6db:	bf 01 00 00 00       	mov    $0x1,%edi
    c6e0:	e8 58 d6 ff ff       	callq  9d3d <safe_mul_func_uint16_t_u_u>
    c6e5:	0f b7 d8             	movzwl %ax,%ebx
    c6e8:	0f b6 05 b1 da 00 00 	movzbl 0xdab1(%rip),%eax        # 1a1a0 <g_154>
    c6ef:	0f b6 c0             	movzbl %al,%eax
    c6f2:	48 98                	cltq   
    c6f4:	48 8d 14 c5 00 00 00 	lea    0x0(,%rax,8),%rdx
    c6fb:	00 
    c6fc:	48 8d 05 3d da 00 00 	lea    0xda3d(%rip),%rax        # 1a140 <g_91>
    c703:	48 8b 04 02          	mov    (%rdx,%rax,1),%rax
    c707:	44 0f bf e0          	movswl %ax,%r12d
    c70b:	8b 85 e0 f3 ff ff    	mov    -0xc20(%rbp),%eax
    c711:	85 c0                	test   %eax,%eax
    c713:	74 29                	je     c73e <func_1+0x1f89>
    c715:	48 8b 05 44 0d 01 00 	mov    0x10d44(%rip),%rax        # 1d460 <g_1991>
    c71c:	0f b7 10             	movzwl (%rax),%edx
    c71f:	83 c2 01             	add    $0x1,%edx
    c722:	66 89 10             	mov    %dx,(%rax)
    c725:	0f b7 00             	movzwl (%rax),%eax
    c728:	0f b7 c0             	movzwl %ax,%eax
    c72b:	89 c7                	mov    %eax,%edi
    c72d:	e8 b7 d5 ff ff       	callq  9ce9 <safe_unary_minus_func_uint16_t_u>
    c732:	66 85 c0             	test   %ax,%ax
    c735:	74 07                	je     c73e <func_1+0x1f89>
    c737:	b8 01 00 00 00       	mov    $0x1,%eax
    c73c:	eb 05                	jmp    c743 <func_1+0x1f8e>
    c73e:	b8 00 00 00 00       	mov    $0x0,%eax
    c743:	98                   	cwtl   
    c744:	44 89 e6             	mov    %r12d,%esi
    c747:	89 c7                	mov    %eax,%edi
    c749:	e8 07 cd ff ff       	callq  9455 <safe_div_func_int16_t_s_s>
    c74e:	0f b7 c0             	movzwl %ax,%eax
    c751:	89 de                	mov    %ebx,%esi
    c753:	89 c7                	mov    %eax,%edi
    c755:	e8 02 d6 ff ff       	callq  9d5c <safe_mod_func_uint16_t_u_u>
    c75a:	48 8b 05 bf 0a 01 00 	mov    0x10abf(%rip),%rax        # 1d220 <g_1414>
    c761:	0f b7 08             	movzwl (%rax),%ecx
    c764:	48 8b 05 c5 07 01 00 	mov    0x107c5(%rip),%rax        # 1cf30 <g_1031>
    c76b:	0f b7 10             	movzwl (%rax),%edx
    c76e:	48 8b 05 ab 0a 01 00 	mov    0x10aab(%rip),%rax        # 1d220 <g_1414>
    c775:	09 ca                	or     %ecx,%edx
    c777:	66 89 10             	mov    %dx,(%rax)
    c77a:	0f b7 00             	movzwl (%rax),%eax
    c77d:	98                   	cwtl   
    c77e:	be 00 00 00 00       	mov    $0x0,%esi
    c783:	89 c7                	mov    %eax,%edi
    c785:	e8 49 cc ff ff       	callq  93d3 <safe_sub_func_int16_t_s_s>
    c78a:	48 0f bf c0          	movswq %ax,%rax
    c78e:	48 39 85 e8 e9 ff ff 	cmp    %rax,-0x1618(%rbp)
    c795:	0f 94 c0             	sete   %al
    c798:	0f b6 c0             	movzbl %al,%eax
    c79b:	09 85 d8 e8 ff ff    	or     %eax,-0x1728(%rbp)
    c7a1:	48 c7 05 dc db 00 00 	movq   $0x0,0xdbdc(%rip)        # 1a388 <g_861>
    c7a8:	00 00 00 00 
    c7ac:	e9 89 03 00 00       	jmpq   cb3a <func_1+0x2385>
    c7b1:	48 b8 bb b0 10 76 19 	movabs $0x963d31197610b0bb,%rax
    c7b8:	31 3d 96 
    c7bb:	48 89 85 28 eb ff ff 	mov    %rax,-0x14d8(%rbp)
    c7c2:	48 c7 85 30 eb ff ff 	movq   $0x0,-0x14d0(%rbp)
    c7c9:	00 00 00 00 
    c7cd:	66 c7 85 c4 e8 ff ff 	movw   $0x0,-0x173c(%rbp)
    c7d4:	00 00 
    c7d6:	e9 d4 00 00 00       	jmpq   c8af <func_1+0x20fa>
    c7db:	c7 85 68 e9 ff ff 3c 	movl   $0xb5874d3c,-0x1698(%rbp)
    c7e2:	4d 87 b5 
    c7e5:	83 bd 18 e9 ff ff 00 	cmpl   $0x0,-0x16e8(%rbp)
    c7ec:	0f 85 fc 07 00 00    	jne    cfee <func_1+0x2839>
    c7f2:	48 8b 15 8f db 00 00 	mov    0xdb8f(%rip),%rdx        # 1a388 <g_861>
    c7f9:	48 8b 05 88 db 00 00 	mov    0xdb88(%rip),%rax        # 1a388 <g_861>
    c800:	48 01 d2             	add    %rdx,%rdx
    c803:	48 01 d0             	add    %rdx,%rax
    c806:	0f b7 84 45 00 ec ff 	movzwl -0x1400(%rbp,%rax,2),%eax
    c80d:	ff 
    c80e:	89 c7                	mov    %eax,%edi
    c810:	0f b7 85 c4 e8 ff ff 	movzwl -0x173c(%rbp),%eax
    c817:	8d 48 01             	lea    0x1(%rax),%ecx
    c81a:	48 8b 05 67 db 00 00 	mov    0xdb67(%rip),%rax        # 1a388 <g_861>
    c821:	48 83 c0 01          	add    $0x1,%rax
    c825:	48 8b 15 5c db 00 00 	mov    0xdb5c(%rip),%rdx        # 1a388 <g_861>
    c82c:	48 8d 72 01          	lea    0x1(%rdx),%rsi
    c830:	48 63 c9             	movslq %ecx,%rcx
    c833:	48 89 c2             	mov    %rax,%rdx
    c836:	48 01 d2             	add    %rdx,%rdx
    c839:	48 01 c2             	add    %rax,%rdx
    c83c:	48 89 c8             	mov    %rcx,%rax
    c83f:	48 c1 e0 03          	shl    $0x3,%rax
    c843:	48 01 c8             	add    %rcx,%rax
    c846:	48 01 d0             	add    %rdx,%rax
    c849:	48 8d 5d d0          	lea    -0x30(%rbp),%rbx
    c84d:	48 01 d8             	add    %rbx,%rax
    c850:	48 01 f0             	add    %rsi,%rax
    c853:	48 2d 00 13 00 00    	sub    $0x1300,%rax
    c859:	0f b6 00             	movzbl (%rax),%eax
    c85c:	66 98                	cbtw   
    c85e:	89 f9                	mov    %edi,%ecx
    c860:	21 c1                	and    %eax,%ecx
    c862:	48 8b 05 1f db 00 00 	mov    0xdb1f(%rip),%rax        # 1a388 <g_861>
    c869:	48 8b 15 18 db 00 00 	mov    0xdb18(%rip),%rdx        # 1a388 <g_861>
    c870:	89 ce                	mov    %ecx,%esi
    c872:	48 8d 0c 00          	lea    (%rax,%rax,1),%rcx
    c876:	48 01 d1             	add    %rdx,%rcx
    c879:	66 89 b4 4d 00 ec ff 	mov    %si,-0x1400(%rbp,%rcx,2)
    c880:	ff 
    c881:	48 01 c0             	add    %rax,%rax
    c884:	48 01 d0             	add    %rdx,%rax
    c887:	0f b7 84 45 00 ec ff 	movzwl -0x1400(%rbp,%rax,2),%eax
    c88e:	ff 
    c88f:	0f b7 c0             	movzwl %ax,%eax
    c892:	be 01 00 00 00       	mov    $0x1,%esi
    c897:	89 c7                	mov    %eax,%edi
    c899:	e8 9f d4 ff ff       	callq  9d3d <safe_mul_func_uint16_t_u_u>
    c89e:	0f b7 c0             	movzwl %ax,%eax
    c8a1:	21 85 68 e9 ff ff    	and    %eax,-0x1698(%rbp)
    c8a7:	66 83 85 c4 e8 ff ff 	addw   $0x1,-0x173c(%rbp)
    c8ae:	01 
    c8af:	66 83 bd c4 e8 ff ff 	cmpw   $0x6,-0x173c(%rbp)
    c8b6:	06 
    c8b7:	0f 86 1e ff ff ff    	jbe    c7db <func_1+0x2026>
    c8bd:	c6 05 60 d8 00 00 00 	movb   $0x0,0xd860(%rip)        # 1a124 <g_49>
    c8c4:	eb 64                	jmp    c92a <func_1+0x2175>
    c8c6:	0f b6 05 d3 d8 00 00 	movzbl 0xd8d3(%rip),%eax        # 1a1a0 <g_154>
    c8cd:	0f b6 c0             	movzbl %al,%eax
    c8d0:	8d 50 01             	lea    0x1(%rax),%edx
    c8d3:	48 8b 0d ae da 00 00 	mov    0xdaae(%rip),%rcx        # 1a388 <g_861>
    c8da:	0f b6 05 43 d8 00 00 	movzbl 0xd843(%rip),%eax        # 1a124 <g_49>
    c8e1:	0f be c0             	movsbl %al,%eax
    c8e4:	83 c0 01             	add    $0x1,%eax
    c8e7:	48 63 f0             	movslq %eax,%rsi
    c8ea:	48 63 c2             	movslq %edx,%rax
    c8ed:	48 89 c2             	mov    %rax,%rdx
    c8f0:	48 c1 e2 03          	shl    $0x3,%rdx
    c8f4:	48 01 c2             	add    %rax,%rdx
    c8f7:	48 89 c8             	mov    %rcx,%rax
    c8fa:	48 01 c0             	add    %rax,%rax
    c8fd:	48 01 c8             	add    %rcx,%rax
    c900:	48 01 d0             	add    %rdx,%rax
    c903:	48 8d 5d d0          	lea    -0x30(%rbp),%rbx
    c907:	48 01 d8             	add    %rbx,%rax
    c90a:	48 01 f0             	add    %rsi,%rax
    c90d:	48 2d 00 13 00 00    	sub    $0x1300,%rax
    c913:	0f b6 00             	movzbl (%rax),%eax
    c916:	84 c0                	test   %al,%al
    c918:	75 1d                	jne    c937 <func_1+0x2182>
    c91a:	0f b6 05 03 d8 00 00 	movzbl 0xd803(%rip),%eax        # 1a124 <g_49>
    c921:	83 c0 01             	add    $0x1,%eax
    c924:	88 05 fa d7 00 00    	mov    %al,0xd7fa(%rip)        # 1a124 <g_49>
    c92a:	0f b6 05 f3 d7 00 00 	movzbl 0xd7f3(%rip),%eax        # 1a124 <g_49>
    c931:	84 c0                	test   %al,%al
    c933:	7e 91                	jle    c8c6 <func_1+0x2111>
    c935:	eb 01                	jmp    c938 <func_1+0x2183>
    c937:	90                   	nop
    c938:	48 8b 05 71 05 01 00 	mov    0x10571(%rip),%rax        # 1ceb0 <g_568>
    c93f:	8b 00                	mov    (%rax),%eax
    c941:	85 c0                	test   %eax,%eax
    c943:	0f 85 de 01 00 00    	jne    cb27 <func_1+0x2372>
    c949:	c6 85 bd e8 ff ff 00 	movb   $0x0,-0x1743(%rbp)
    c950:	eb 26                	jmp    c978 <func_1+0x21c3>
    c952:	0f b6 05 db d9 00 00 	movzbl 0xd9db(%rip),%eax        # 1a334 <g_476>
    c959:	84 c0                	test   %al,%al
    c95b:	0f 85 93 06 00 00    	jne    cff4 <func_1+0x283f>
    c961:	48 8b 05 a0 09 01 00 	mov    0x109a0(%rip),%rax        # 1d308 <g_1649>
    c968:	48 8b 00             	mov    (%rax),%rax
    c96b:	8b 00                	mov    (%rax),%eax
    c96d:	85 c0                	test   %eax,%eax
    c96f:	75 12                	jne    c983 <func_1+0x21ce>
    c971:	80 85 bd e8 ff ff 01 	addb   $0x1,-0x1743(%rbp)
    c978:	80 bd bd e8 ff ff 02 	cmpb   $0x2,-0x1743(%rbp)
    c97f:	76 d1                	jbe    c952 <func_1+0x219d>
    c981:	eb 01                	jmp    c984 <func_1+0x21cf>
    c983:	90                   	nop
    c984:	c7 05 46 e1 00 00 00 	movl   $0x0,0xe146(%rip)        # 1aad4 <g_2637>
    c98b:	00 00 00 
    c98e:	e9 83 01 00 00       	jmpq   cb16 <func_1+0x2361>
    c993:	c7 85 64 e9 ff ff 01 	movl   $0x1,-0x169c(%rbp)
    c99a:	00 00 00 
    c99d:	48 8b 05 a4 03 01 00 	mov    0x103a4(%rip),%rax        # 1cd48 <g_221>
    c9a4:	48 8b 00             	mov    (%rax),%rax
    c9a7:	8b 10                	mov    (%rax),%edx
    c9a9:	48 8b 85 00 ea ff ff 	mov    -0x1600(%rbp),%rax
    c9b0:	8b 00                	mov    (%rax),%eax
    c9b2:	21 c2                	and    %eax,%edx
    c9b4:	48 8b 85 00 ea ff ff 	mov    -0x1600(%rbp),%rax
    c9bb:	89 10                	mov    %edx,(%rax)
    c9bd:	0f b6 85 bb e8 ff ff 	movzbl -0x1745(%rbp),%eax
    c9c4:	0f be d8             	movsbl %al,%ebx
    c9c7:	0f b7 05 aa e1 00 00 	movzwl 0xe1aa(%rip),%eax        # 1ab78 <g_2994>
    c9ce:	44 0f b7 e8          	movzwl %ax,%r13d
    c9d2:	8b 05 48 d7 00 00    	mov    0xd748(%rip),%eax        # 1a120 <g_4>
    c9d8:	4c 63 e0             	movslq %eax,%r12
    c9db:	48 8b 05 96 03 01 00 	mov    0x10396(%rip),%rax        # 1cd78 <g_418>
    c9e2:	8b 00                	mov    (%rax),%eax
    c9e4:	89 c6                	mov    %eax,%esi
    c9e6:	bf ff ff ff ff       	mov    $0xffffffff,%edi
    c9eb:	e8 35 d5 ff ff       	callq  9f25 <safe_div_func_uint32_t_u_u>
    c9f0:	41 89 c6             	mov    %eax,%r14d
    c9f3:	48 8b 85 28 eb ff ff 	mov    -0x14d8(%rbp),%rax
    c9fa:	48 89 c6             	mov    %rax,%rsi
    c9fd:	48 c7 c7 fe ff ff ff 	mov    $0xfffffffffffffffe,%rdi
    ca04:	e8 38 ce ff ff       	callq  9841 <safe_add_func_int64_t_s_s>
    ca09:	89 c1                	mov    %eax,%ecx
    ca0b:	48 8b 05 a6 10 01 00 	mov    0x110a6(%rip),%rax        # 1dab8 <g_2356>
    ca12:	48 8b 00             	mov    (%rax),%rax
    ca15:	48 ba 3c 4e 4c b0 e2 	movabs $0x1cb2c8e2b04c4e3c,%rdx
    ca1c:	c8 b2 1c 
    ca1f:	48 39 d0             	cmp    %rdx,%rax
    ca22:	0f 94 c0             	sete   %al
    ca25:	0f b6 c0             	movzbl %al,%eax
    ca28:	89 ce                	mov    %ecx,%esi
    ca2a:	89 c7                	mov    %eax,%edi
    ca2c:	e8 85 cb ff ff       	callq  95b6 <safe_add_func_int32_t_s_s>
    ca31:	44 09 f0             	or     %r14d,%eax
    ca34:	98                   	cwtl   
    ca35:	be 04 be ff ff       	mov    $0xffffbe04,%esi
    ca3a:	89 c7                	mov    %eax,%edi
    ca3c:	e8 b4 c9 ff ff       	callq  93f5 <safe_mul_func_int16_t_s_s>
    ca41:	48 8b 05 70 08 01 00 	mov    0x10870(%rip),%rax        # 1d2b8 <g_1448>
    ca48:	48 8b 00             	mov    (%rax),%rax
    ca4b:	0f b6 00             	movzbl (%rax),%eax
    ca4e:	0f b6 c0             	movzbl %al,%eax
    ca51:	89 85 c8 eb ff ff    	mov    %eax,-0x1438(%rbp)
    ca57:	48 8b 05 02 0a 01 00 	mov    0x10a02(%rip),%rax        # 1d460 <g_1991>
    ca5e:	0f b7 00             	movzwl (%rax),%eax
    ca61:	0f b7 d0             	movzwl %ax,%edx
    ca64:	48 8b 85 28 eb ff ff 	mov    -0x14d8(%rbp),%rax
    ca6b:	0f b7 c0             	movzwl %ax,%eax
    ca6e:	89 d6                	mov    %edx,%esi
    ca70:	89 c7                	mov    %eax,%edi
    ca72:	e8 c6 d2 ff ff       	callq  9d3d <safe_mul_func_uint16_t_u_u>
    ca77:	0f b7 c0             	movzwl %ax,%eax
    ca7a:	4c 89 e6             	mov    %r12,%rsi
    ca7d:	48 89 c7             	mov    %rax,%rdi
    ca80:	e8 23 ce ff ff       	callq  98a8 <safe_sub_func_int64_t_s_s>
    ca85:	49 39 c5             	cmp    %rax,%r13
    ca88:	0f 94 c0             	sete   %al
    ca8b:	0f b6 c0             	movzbl %al,%eax
    ca8e:	89 de                	mov    %ebx,%esi
    ca90:	89 c7                	mov    %eax,%edi
    ca92:	e8 35 cc ff ff       	callq  96cc <safe_mod_func_int32_t_s_s>
    ca97:	33 85 64 e9 ff ff    	xor    -0x169c(%rbp),%eax
    ca9d:	48 98                	cltq   
    ca9f:	48 23 85 28 eb ff ff 	and    -0x14d8(%rbp),%rax
    caa6:	48 89 c2             	mov    %rax,%rdx
    caa9:	48 8b 05 e0 02 01 00 	mov    0x102e0(%rip),%rax        # 1cd90 <g_421>
    cab0:	48 8b 00             	mov    (%rax),%rax
    cab3:	0f b6 00             	movzbl (%rax),%eax
    cab6:	48 0f be c0          	movsbq %al,%rax
    caba:	48 39 c2             	cmp    %rax,%rdx
    cabd:	0f 94 c0             	sete   %al
    cac0:	0f b6 c0             	movzbl %al,%eax
    cac3:	be ff ff ff ff       	mov    $0xffffffff,%esi
    cac8:	89 c7                	mov    %eax,%edi
    caca:	e8 43 c7 ff ff       	callq  9212 <safe_mul_func_int8_t_s_s>
    cacf:	0f b6 8d 28 ee ff ff 	movzbl -0x11d8(%rbp),%ecx
    cad6:	48 8b 85 00 ea ff ff 	mov    -0x1600(%rbp),%rax
    cadd:	8b 10                	mov    (%rax),%edx
    cadf:	0f b6 c1             	movzbl %cl,%eax
    cae2:	31 c2                	xor    %eax,%edx
    cae4:	48 8b 85 00 ea ff ff 	mov    -0x1600(%rbp),%rax
    caeb:	89 10                	mov    %edx,(%rax)
    caed:	48 8b 05 84 02 01 00 	mov    0x10284(%rip),%rax        # 1cd78 <g_418>
    caf4:	8b 00                	mov    (%rax),%eax
    caf6:	88 45 c1             	mov    %al,-0x3f(%rbp)
    caf9:	48 8b 85 30 eb ff ff 	mov    -0x14d0(%rbp),%rax
    cb00:	48 89 85 00 eb ff ff 	mov    %rax,-0x1500(%rbp)
    cb07:	8b 05 c7 df 00 00    	mov    0xdfc7(%rip),%eax        # 1aad4 <g_2637>
    cb0d:	83 c0 01             	add    $0x1,%eax
    cb10:	89 05 be df 00 00    	mov    %eax,0xdfbe(%rip)        # 1aad4 <g_2637>
    cb16:	8b 05 b8 df 00 00    	mov    0xdfb8(%rip),%eax        # 1aad4 <g_2637>
    cb1c:	83 f8 01             	cmp    $0x1,%eax
    cb1f:	0f 86 6e fe ff ff    	jbe    c993 <func_1+0x21de>
    cb25:	eb 01                	jmp    cb28 <func_1+0x2373>
    cb27:	90                   	nop
    cb28:	48 8b 05 59 d8 00 00 	mov    0xd859(%rip),%rax        # 1a388 <g_861>
    cb2f:	48 83 c0 01          	add    $0x1,%rax
    cb33:	48 89 05 4e d8 00 00 	mov    %rax,0xd84e(%rip)        # 1a388 <g_861>
    cb3a:	48 8b 05 47 d8 00 00 	mov    0xd847(%rip),%rax        # 1a388 <g_861>
    cb41:	48 83 f8 01          	cmp    $0x1,%rax
    cb45:	0f 86 66 fc ff ff    	jbe    c7b1 <func_1+0x1ffc>
    cb4b:	c7 05 d3 d5 00 00 06 	movl   $0x6,0xd5d3(%rip)        # 1a128 <g_86>
    cb52:	00 00 00 
    cb55:	eb 3a                	jmp    cb91 <func_1+0x23dc>
    cb57:	48 8d 85 20 f9 ff ff 	lea    -0x6e0(%rbp),%rax
    cb5e:	48 8d 15 bb 8a 00 00 	lea    0x8abb(%rip),%rdx        # 15620 <g_2357+0x5b0>
    cb65:	b9 78 00 00 00       	mov    $0x78,%ecx
    cb6a:	48 89 c7             	mov    %rax,%rdi
    cb6d:	48 89 d6             	mov    %rdx,%rsi
    cb70:	f3 48 a5             	rep movsq %ds:(%rsi),%es:(%rdi)
    cb73:	8b 85 b4 fa ff ff    	mov    -0x54c(%rbp),%eax
    cb79:	83 c8 f6             	or     $0xfffffff6,%eax
    cb7c:	89 85 b4 fa ff ff    	mov    %eax,-0x54c(%rbp)
    cb82:	8b 05 a0 d5 00 00    	mov    0xd5a0(%rip),%eax        # 1a128 <g_86>
    cb88:	83 e8 01             	sub    $0x1,%eax
    cb8b:	89 05 97 d5 00 00    	mov    %eax,0xd597(%rip)        # 1a128 <g_86>
    cb91:	8b 05 91 d5 00 00    	mov    0xd591(%rip),%eax        # 1a128 <g_86>
    cb97:	85 c0                	test   %eax,%eax
    cb99:	7f bc                	jg     cb57 <func_1+0x23a2>
    cb9b:	c7 05 9f da 00 00 01 	movl   $0x1,0xda9f(%rip)        # 1a644 <g_2280>
    cba2:	00 00 00 
    cba5:	e9 24 04 00 00       	jmpq   cfce <func_1+0x2819>
    cbaa:	48 8d 05 e7 01 01 00 	lea    0x101e7(%rip),%rax        # 1cd98 <g_531>
    cbb1:	48 89 85 08 eb ff ff 	mov    %rax,-0x14f8(%rbp)
    cbb8:	48 8d 85 90 e9 ff ff 	lea    -0x1670(%rbp),%rax
    cbbf:	48 89 85 10 eb ff ff 	mov    %rax,-0x14f0(%rbp)
    cbc6:	48 8d 85 20 f9 ff ff 	lea    -0x6e0(%rbp),%rax
    cbcd:	48 8d 15 2c e5 00 00 	lea    0xe52c(%rip),%rdx        # 1b100 <g_3271+0x57c>
    cbd4:	b9 d2 00 00 00       	mov    $0xd2,%ecx
    cbd9:	48 89 c7             	mov    %rax,%rdi
    cbdc:	48 89 d6             	mov    %rdx,%rsi
    cbdf:	f3 48 a5             	rep movsq %ds:(%rsi),%es:(%rdi)
    cbe2:	c7 85 60 e9 ff ff 03 	movl   $0x3,-0x16a0(%rbp)
    cbe9:	00 00 00 
    cbec:	48 8d 05 4d d7 00 00 	lea    0xd74d(%rip),%rax        # 1a340 <g_758>
    cbf3:	48 89 85 18 eb ff ff 	mov    %rax,-0x14e8(%rbp)
    cbfa:	48 8d 85 a0 e9 ff ff 	lea    -0x1660(%rbp),%rax
    cc01:	48 89 85 20 eb ff ff 	mov    %rax,-0x14e0(%rbp)
    cc08:	c7 85 04 e9 ff ff 00 	movl   $0x0,-0x16fc(%rbp)
    cc0f:	00 00 00 
    cc12:	eb 1e                	jmp    cc32 <func_1+0x247d>
    cc14:	8b 85 04 e9 ff ff    	mov    -0x16fc(%rbp),%eax
    cc1a:	48 98                	cltq   
    cc1c:	48 8d 15 15 1a 01 00 	lea    0x11a15(%rip),%rdx        # 1e638 <g_532+0x8>
    cc23:	48 89 94 c5 20 ec ff 	mov    %rdx,-0x13e0(%rbp,%rax,8)
    cc2a:	ff 
    cc2b:	83 85 04 e9 ff ff 01 	addl   $0x1,-0x16fc(%rbp)
    cc32:	83 bd 04 e9 ff ff 00 	cmpl   $0x0,-0x16fc(%rbp)
    cc39:	7e d9                	jle    cc14 <func_1+0x245f>
    cc3b:	8b 85 d4 e8 ff ff    	mov    -0x172c(%rbp),%eax
    cc41:	85 c0                	test   %eax,%eax
    cc43:	0f 85 9f 00 00 00    	jne    cce8 <func_1+0x2533>
    cc49:	48 8b 85 00 ea ff ff 	mov    -0x1600(%rbp),%rax
    cc50:	c7 00 00 00 00 00    	movl   $0x0,(%rax)
    cc56:	48 8b 8d 20 ec ff ff 	mov    -0x13e0(%rbp),%rcx
    cc5d:	48 8b 05 3c 01 01 00 	mov    0x1013c(%rip),%rax        # 1cda0 <g_530>
    cc64:	48 8b 10             	mov    (%rax),%rdx
    cc67:	48 8b 85 08 eb ff ff 	mov    -0x14f8(%rbp),%rax
    cc6e:	48 89 10             	mov    %rdx,(%rax)
    cc71:	48 8b 85 08 eb ff ff 	mov    -0x14f8(%rbp),%rax
    cc78:	48 8b 00             	mov    (%rax),%rax
    cc7b:	48 39 c1             	cmp    %rax,%rcx
    cc7e:	0f 95 c0             	setne  %al
    cc81:	0f b6 d0             	movzbl %al,%edx
    cc84:	8b 05 da 9c 00 00    	mov    0x9cda(%rip),%eax        # 16964 <l_3020.4437+0x24>
    cc8a:	39 c2                	cmp    %eax,%edx
    cc8c:	0f 9e c0             	setle  %al
    cc8f:	0f b6 c0             	movzbl %al,%eax
    cc92:	be 00 00 00 00       	mov    $0x0,%esi
    cc97:	89 c7                	mov    %eax,%edi
    cc99:	e8 20 d0 ff ff       	callq  9cbe <safe_rshift_func_uint8_t_u_u>
    cc9e:	48 8b 95 e8 ea ff ff 	mov    -0x1518(%rbp),%rdx
    cca5:	48 8b 12             	mov    (%rdx),%rdx
    cca8:	0f b6 c0             	movzbl %al,%eax
    ccab:	48 31 c2             	xor    %rax,%rdx
    ccae:	48 8b 85 e8 ea ff ff 	mov    -0x1518(%rbp),%rax
    ccb5:	48 89 10             	mov    %rdx,(%rax)
    ccb8:	48 8b 85 e8 ea ff ff 	mov    -0x1518(%rbp),%rax
    ccbf:	48 8b 10             	mov    (%rax),%rdx
    ccc2:	48 8b 85 10 eb ff ff 	mov    -0x14f0(%rbp),%rax
    ccc9:	48 8b 00             	mov    (%rax),%rax
    cccc:	48 21 c2             	and    %rax,%rdx
    cccf:	48 8b 85 10 eb ff ff 	mov    -0x14f0(%rbp),%rax
    ccd6:	48 89 10             	mov    %rdx,(%rax)
    ccd9:	48 8b 85 10 eb ff ff 	mov    -0x14f0(%rbp),%rax
    cce0:	48 8b 00             	mov    (%rax),%rax
    cce3:	48 85 c0             	test   %rax,%rax
    cce6:	74 07                	je     ccef <func_1+0x253a>
    cce8:	b8 01 00 00 00       	mov    $0x1,%eax
    cced:	eb 05                	jmp    ccf4 <func_1+0x253f>
    ccef:	b8 00 00 00 00       	mov    $0x0,%eax
    ccf4:	48 98                	cltq   
    ccf6:	48 21 85 c8 e9 ff ff 	and    %rax,-0x1638(%rbp)
    ccfd:	48 8d 05 1c 05 01 00 	lea    0x1051c(%rip),%rax        # 1d220 <g_1414>
    cd04:	48 8b 00             	mov    (%rax),%rax
    cd07:	0f b7 00             	movzwl (%rax),%eax
    cd0a:	0f b7 c0             	movzwl %ax,%eax
    cd0d:	89 c6                	mov    %eax,%esi
    cd0f:	bf 00 00 00 00       	mov    $0x0,%edi
    cd14:	e8 75 d0 ff ff       	callq  9d8e <safe_div_func_uint16_t_u_u>
    cd19:	48 8b 85 00 ea ff ff 	mov    -0x1600(%rbp),%rax
    cd20:	8b 10                	mov    (%rax),%edx
    cd22:	48 8b 85 c0 fc ff ff 	mov    -0x340(%rbp),%rax
    cd29:	48 85 c0             	test   %rax,%rax
    cd2c:	0f 94 c0             	sete   %al
    cd2f:	0f b6 c0             	movzbl %al,%eax
    cd32:	39 c2                	cmp    %eax,%edx
    cd34:	7e 0a                	jle    cd40 <func_1+0x258b>
    cd36:	8b 85 c8 eb ff ff    	mov    -0x1438(%rbp),%eax
    cd3c:	85 c0                	test   %eax,%eax
    cd3e:	74 07                	je     cd47 <func_1+0x2592>
    cd40:	b9 01 00 00 00       	mov    $0x1,%ecx
    cd45:	eb 05                	jmp    cd4c <func_1+0x2597>
    cd47:	b9 00 00 00 00       	mov    $0x0,%ecx
    cd4c:	48 8b 85 98 e9 ff ff 	mov    -0x1668(%rbp),%rax
    cd53:	8b 10                	mov    (%rax),%edx
    cd55:	48 8b 85 98 e9 ff ff 	mov    -0x1668(%rbp),%rax
    cd5c:	21 ca                	and    %ecx,%edx
    cd5e:	89 10                	mov    %edx,(%rax)
    cd60:	8b 9d 1c e9 ff ff    	mov    -0x16e4(%rbp),%ebx
    cd66:	48 8b 85 e8 ea ff ff 	mov    -0x1518(%rbp),%rax
    cd6d:	48 b9 87 f0 04 09 29 	movabs $0x291ced290904f087,%rcx
    cd74:	ed 1c 29 
    cd77:	48 89 08             	mov    %rcx,(%rax)
    cd7a:	48 8b 85 e8 ea ff ff 	mov    -0x1518(%rbp),%rax
    cd81:	4c 8b 30             	mov    (%rax),%r14
    cd84:	48 8b 05 ad 01 01 00 	mov    0x101ad(%rip),%rax        # 1cf38 <g_1033>
    cd8b:	0f b7 00             	movzwl (%rax),%eax
    cd8e:	44 0f bf e0          	movswl %ax,%r12d
    cd92:	44 8b 2d bf 9b 00 00 	mov    0x9bbf(%rip),%r13d        # 16958 <l_3020.4437+0x18>
    cd99:	8b 95 cc eb ff ff    	mov    -0x1434(%rbp),%edx
    cd9f:	48 8b 85 e0 e9 ff ff 	mov    -0x1620(%rbp),%rax
    cda6:	48 8b 00             	mov    (%rax),%rax
    cda9:	66 89 10             	mov    %dx,(%rax)
    cdac:	0f b7 05 95 d5 00 00 	movzwl 0xd595(%rip),%eax        # 1a348 <g_815>
    cdb3:	66 85 c0             	test   %ax,%ax
    cdb6:	74 07                	je     cdbf <func_1+0x260a>
    cdb8:	b8 01 00 00 00       	mov    $0x1,%eax
    cdbd:	eb 05                	jmp    cdc4 <func_1+0x260f>
    cdbf:	b8 00 00 00 00       	mov    $0x0,%eax
    cdc4:	48 98                	cltq   
    cdc6:	48 89 c6             	mov    %rax,%rsi
    cdc9:	48 bf 83 57 b5 37 0f 	movabs $0x42ef130f37b55783,%rdi
    cdd0:	13 ef 42 
    cdd3:	e8 69 ca ff ff       	callq  9841 <safe_add_func_int64_t_s_s>
    cdd8:	41 89 c7             	mov    %eax,%r15d
    cddb:	0f b6 05 9e dd 00 00 	movzbl 0xdd9e(%rip),%eax        # 1ab80 <g_3041>
    cde2:	0f b6 c0             	movzbl %al,%eax
    cde5:	48 39 85 c8 e9 ff ff 	cmp    %rax,-0x1638(%rbp)
    cdec:	0f 94 c0             	sete   %al
    cdef:	0f b6 c0             	movzbl %al,%eax
    cdf2:	be 00 00 00 00       	mov    $0x0,%esi
    cdf7:	89 c7                	mov    %eax,%edi
    cdf9:	e8 d2 d0 ff ff       	callq  9ed0 <safe_sub_func_uint32_t_u_u>
    cdfe:	44 31 f8             	xor    %r15d,%eax
    ce01:	44 89 ee             	mov    %r13d,%esi
    ce04:	89 c7                	mov    %eax,%edi
    ce06:	e8 ab c7 ff ff       	callq  95b6 <safe_add_func_int32_t_s_s>
    ce0b:	98                   	cwtl   
    ce0c:	44 89 e6             	mov    %r12d,%esi
    ce0f:	89 c7                	mov    %eax,%edi
    ce11:	e8 df c5 ff ff       	callq  93f5 <safe_mul_func_int16_t_s_s>
    ce16:	0f b7 c0             	movzwl %ax,%eax
    ce19:	be 0b 00 00 00       	mov    $0xb,%esi
    ce1e:	89 c7                	mov    %eax,%edi
    ce20:	e8 23 d0 ff ff       	callq  9e48 <safe_rshift_func_uint16_t_u_s>
    ce25:	0f b7 c0             	movzwl %ax,%eax
    ce28:	49 39 c6             	cmp    %rax,%r14
    ce2b:	48 8b 05 86 04 01 00 	mov    0x10486(%rip),%rax        # 1d2b8 <g_1448>
    ce32:	48 8b 00             	mov    (%rax),%rax
    ce35:	0f b6 00             	movzbl (%rax),%eax
    ce38:	89 c2                	mov    %eax,%edx
    ce3a:	8b 85 d4 e8 ff ff    	mov    -0x172c(%rbp),%eax
    ce40:	21 d0                	and    %edx,%eax
    ce42:	0f be c0             	movsbl %al,%eax
    ce45:	89 de                	mov    %ebx,%esi
    ce47:	89 c7                	mov    %eax,%edi
    ce49:	e8 e7 c4 ff ff       	callq  9335 <safe_rshift_func_int8_t_s_s>
    ce4e:	48 0f be c0          	movsbq %al,%rax
    ce52:	48 be 7e 2b 6b 2e 67 	movabs $0x44d9ae672e6b2b7e,%rsi
    ce59:	ae d9 44 
    ce5c:	48 89 c7             	mov    %rax,%rdi
    ce5f:	e8 44 ca ff ff       	callq  98a8 <safe_sub_func_int64_t_s_s>
    ce64:	89 c2                	mov    %eax,%edx
    ce66:	48 8b 85 00 ea ff ff 	mov    -0x1600(%rbp),%rax
    ce6d:	89 10                	mov    %edx,(%rax)
    ce6f:	0f b6 85 bd e8 ff ff 	movzbl -0x1743(%rbp),%eax
    ce76:	0f b7 8d c6 e8 ff ff 	movzwl -0x173a(%rbp),%ecx
    ce7d:	8b 15 d1 9a 00 00    	mov    0x9ad1(%rip),%edx        # 16954 <l_3020.4437+0x14>
    ce83:	21 ca                	and    %ecx,%edx
    ce85:	39 d0                	cmp    %edx,%eax
    ce87:	0f 8e 02 01 00 00    	jle    cf8f <func_1+0x27da>
    ce8d:	48 8b 05 a4 05 01 00 	mov    0x105a4(%rip),%rax        # 1d438 <g_1823>
    ce94:	48 8b 00             	mov    (%rax),%rax
    ce97:	0f b7 00             	movzwl (%rax),%eax
    ce9a:	0f b7 d8             	movzwl %ax,%ebx
    ce9d:	48 8b 05 e4 fe 00 00 	mov    0xfee4(%rip),%rax        # 1cd88 <g_422>
    cea4:	0f b6 00             	movzbl (%rax),%eax
    cea7:	44 0f be e0          	movsbl %al,%r12d
    ceab:	48 8b 85 18 eb ff ff 	mov    -0x14e8(%rbp),%rax
    ceb2:	c7 00 1c 13 8e 3b    	movl   $0x3b8e131c,(%rax)
    ceb8:	48 8b 85 18 eb ff ff 	mov    -0x14e8(%rbp),%rax
    cebf:	8b 00                	mov    (%rax),%eax
    cec1:	89 c6                	mov    %eax,%esi
    cec3:	bf 00 00 00 00       	mov    $0x0,%edi
    cec8:	e8 58 d0 ff ff       	callq  9f25 <safe_div_func_uint32_t_u_u>
    cecd:	39 85 60 e9 ff ff    	cmp    %eax,-0x16a0(%rbp)
    ced3:	0f 97 c0             	seta   %al
    ced6:	0f b6 c0             	movzbl %al,%eax
    ced9:	44 89 e6             	mov    %r12d,%esi
    cedc:	89 c7                	mov    %eax,%edi
    cede:	e8 be c3 ff ff       	callq  92a1 <safe_lshift_func_int8_t_s_s>
    cee3:	4c 0f be e0          	movsbq %al,%r12
    cee7:	0f b7 85 c6 e8 ff ff 	movzwl -0x173a(%rbp),%eax
    ceee:	98                   	cwtl   
    ceef:	89 c6                	mov    %eax,%esi
    cef1:	bf 01 00 00 00       	mov    $0x1,%edi
    cef6:	e8 b8 c4 ff ff       	callq  93b3 <safe_add_func_int16_t_s_s>
    cefb:	48 0f bf c0          	movswq %ax,%rax
    ceff:	4c 89 e6             	mov    %r12,%rsi
    cf02:	48 89 c7             	mov    %rax,%rdi
    cf05:	e8 aa ca ff ff       	callq  99b4 <safe_mod_func_int64_t_s_s>
    cf0a:	0f b6 c0             	movzbl %al,%eax
    cf0d:	be 01 00 00 00       	mov    $0x1,%esi
    cf12:	89 c7                	mov    %eax,%edi
    cf14:	e8 c2 cc ff ff       	callq  9bdb <safe_div_func_uint8_t_u_u>
    cf19:	0f be c0             	movsbl %al,%eax
    cf1c:	be 06 00 00 00       	mov    $0x6,%esi
    cf21:	89 c7                	mov    %eax,%edi
    cf23:	e8 79 c3 ff ff       	callq  92a1 <safe_lshift_func_int8_t_s_s>
    cf28:	48 8b 95 a0 e9 ff ff 	mov    -0x1660(%rbp),%rdx
    cf2f:	48 8b 85 20 eb ff ff 	mov    -0x14e0(%rbp),%rax
    cf36:	48 89 10             	mov    %rdx,(%rax)
    cf39:	48 8b 85 20 eb ff ff 	mov    -0x14e0(%rbp),%rax
    cf40:	48 8b 00             	mov    (%rax),%rax
    cf43:	48 85 c0             	test   %rax,%rax
    cf46:	0f 94 c0             	sete   %al
    cf49:	0f b6 d0             	movzbl %al,%edx
    cf4c:	0f b7 05 3d d6 00 00 	movzwl 0xd63d(%rip),%eax        # 1a590 <g_1998>
    cf53:	0f b7 c0             	movzwl %ax,%eax
    cf56:	39 c2                	cmp    %eax,%edx
    cf58:	0f 95 c0             	setne  %al
    cf5b:	0f b6 c0             	movzbl %al,%eax
    cf5e:	89 de                	mov    %ebx,%esi
    cf60:	89 c7                	mov    %eax,%edi
    cf62:	e8 98 cd ff ff       	callq  9cff <safe_add_func_uint16_t_u_u>
    cf67:	66 3d f3 00          	cmp    $0xf3,%ax
    cf6b:	0f 94 c0             	sete   %al
    cf6e:	0f b6 c0             	movzbl %al,%eax
    cf71:	48 be fb ba 37 09 e3 	movabs $0xfbfafee30937bafb,%rsi
    cf78:	fe fa fb 
    cf7b:	48 89 c7             	mov    %rax,%rdi
    cf7e:	e8 fd d0 ff ff       	callq  a080 <safe_mod_func_uint64_t_u_u>
    cf83:	48 85 c0             	test   %rax,%rax
    cf86:	74 07                	je     cf8f <func_1+0x27da>
    cf88:	b8 01 00 00 00       	mov    $0x1,%eax
    cf8d:	eb 05                	jmp    cf94 <func_1+0x27df>
    cf8f:	b8 00 00 00 00       	mov    $0x0,%eax
    cf94:	3d 9b 52 00 00       	cmp    $0x529b,%eax
    cf99:	7e 0f                	jle    cfaa <func_1+0x27f5>
    cf9b:	48 8b 05 be 04 01 00 	mov    0x104be(%rip),%rax        # 1d460 <g_1991>
    cfa2:	0f b7 00             	movzwl (%rax),%eax
    cfa5:	66 85 c0             	test   %ax,%ax
    cfa8:	74 07                	je     cfb1 <func_1+0x27fc>
    cfaa:	ba 01 00 00 00       	mov    $0x1,%edx
    cfaf:	eb 05                	jmp    cfb6 <func_1+0x2801>
    cfb1:	ba 00 00 00 00       	mov    $0x0,%edx
    cfb6:	48 8b 05 8b 04 01 00 	mov    0x1048b(%rip),%rax        # 1d448 <g_1880>
    cfbd:	89 10                	mov    %edx,(%rax)
    cfbf:	8b 05 7f d6 00 00    	mov    0xd67f(%rip),%eax        # 1a644 <g_2280>
    cfc5:	83 e8 01             	sub    $0x1,%eax
    cfc8:	89 05 76 d6 00 00    	mov    %eax,0xd676(%rip)        # 1a644 <g_2280>
    cfce:	8b 05 70 d6 00 00    	mov    0xd670(%rip),%eax        # 1a644 <g_2280>
    cfd4:	85 c0                	test   %eax,%eax
    cfd6:	0f 89 ce fb ff ff    	jns    cbaa <func_1+0x23f5>
    cfdc:	0f b6 05 bd d1 00 00 	movzbl 0xd1bd(%rip),%eax        # 1a1a0 <g_154>
    cfe3:	83 c0 01             	add    $0x1,%eax
    cfe6:	88 05 b4 d1 00 00    	mov    %al,0xd1b4(%rip)        # 1a1a0 <g_154>
    cfec:	eb 0c                	jmp    cffa <func_1+0x2845>
    cfee:	90                   	nop
    cfef:	e9 b3 d9 ff ff       	jmpq   a9a7 <func_1+0x1f2>
    cff4:	90                   	nop
    cff5:	e9 ad d9 ff ff       	jmpq   a9a7 <func_1+0x1f2>
    cffa:	0f b6 05 9f d1 00 00 	movzbl 0xd19f(%rip),%eax        # 1a1a0 <g_154>
    d001:	3c 06                	cmp    $0x6,%al
    d003:	0f 86 29 f2 ff ff    	jbe    c232 <func_1+0x1a7d>
    d009:	48 c7 85 90 e9 ff ff 	movq   $0x0,-0x1670(%rbp)
    d010:	00 00 00 00 
    d014:	e9 be 08 00 00       	jmpq   d8d7 <func_1+0x3122>
    d019:	c7 85 08 e9 ff ff 3f 	movl   $0xd809d63f,-0x16f8(%rbp)
    d020:	d6 09 d8 
    d023:	48 8d 05 fe 03 01 00 	lea    0x103fe(%rip),%rax        # 1d428 <g_1744>
    d02a:	48 89 85 70 ea ff ff 	mov    %rax,-0x1590(%rbp)
    d031:	48 8d 05 f0 03 01 00 	lea    0x103f0(%rip),%rax        # 1d428 <g_1744>
    d038:	48 89 85 78 ea ff ff 	mov    %rax,-0x1588(%rbp)
    d03f:	48 c7 85 b8 e9 ff ff 	movq   $0x0,-0x1648(%rbp)
    d046:	00 00 00 00 
    d04a:	48 8d 05 57 0b 01 00 	lea    0x10b57(%rip),%rax        # 1dba8 <g_2766+0x8>
    d051:	48 89 85 80 ea ff ff 	mov    %rax,-0x1580(%rbp)
    d058:	c7 85 50 e9 ff ff 2b 	movl   $0x6bce702b,-0x16b0(%rbp)
    d05f:	70 ce 6b 
    d062:	48 c7 85 88 ea ff ff 	movq   $0x6,-0x1578(%rbp)
    d069:	06 00 00 00 
    d06d:	66 c7 85 c6 e8 ff ff 	movw   $0x0,-0x173a(%rbp)
    d074:	00 00 
    d076:	e9 12 03 00 00       	jmpq   d38d <func_1+0x2bd8>
    d07b:	c6 85 bc e8 ff ff ff 	movb   $0xff,-0x1744(%rbp)
    d082:	48 8d 05 9c d0 00 00 	lea    0xd09c(%rip),%rax        # 1a125 <g_77>
    d089:	48 89 85 20 f9 ff ff 	mov    %rax,-0x6e0(%rbp)
    d090:	48 8d 85 d0 ec ff ff 	lea    -0x1330(%rbp),%rax
    d097:	48 83 c0 3a          	add    $0x3a,%rax
    d09b:	48 89 85 28 f9 ff ff 	mov    %rax,-0x6d8(%rbp)
    d0a2:	48 c7 85 30 f9 ff ff 	movq   $0x0,-0x6d0(%rbp)
    d0a9:	00 00 00 00 
    d0ad:	48 c7 85 38 f9 ff ff 	movq   $0x0,-0x6c8(%rbp)
    d0b4:	00 00 00 00 
    d0b8:	48 8d 85 d0 ec ff ff 	lea    -0x1330(%rbp),%rax
    d0bf:	48 83 c0 3a          	add    $0x3a,%rax
    d0c3:	48 89 85 40 f9 ff ff 	mov    %rax,-0x6c0(%rbp)
    d0ca:	48 8d 05 54 d0 00 00 	lea    0xd054(%rip),%rax        # 1a125 <g_77>
    d0d1:	48 89 85 48 f9 ff ff 	mov    %rax,-0x6b8(%rbp)
    d0d8:	48 8d 85 d0 ec ff ff 	lea    -0x1330(%rbp),%rax
    d0df:	48 83 c0 3a          	add    $0x3a,%rax
    d0e3:	48 89 85 50 f9 ff ff 	mov    %rax,-0x6b0(%rbp)
    d0ea:	48 c7 85 58 f9 ff ff 	movq   $0x0,-0x6a8(%rbp)
    d0f1:	00 00 00 00 
    d0f5:	48 c7 85 60 f9 ff ff 	movq   $0x0,-0x6a0(%rbp)
    d0fc:	00 00 00 00 
    d100:	48 8d 85 d0 ec ff ff 	lea    -0x1330(%rbp),%rax
    d107:	48 83 c0 3a          	add    $0x3a,%rax
    d10b:	48 89 85 68 f9 ff ff 	mov    %rax,-0x698(%rbp)
    d112:	48 8d 85 20 f9 ff ff 	lea    -0x6e0(%rbp),%rax
    d119:	48 83 c0 18          	add    $0x18,%rax
    d11d:	48 89 85 c8 ea ff ff 	mov    %rax,-0x1538(%rbp)
    d124:	c7 05 a6 d9 00 00 00 	movl   $0x0,0xd9a6(%rip)        # 1aad4 <g_2637>
    d12b:	00 00 00 
    d12e:	e9 9d 01 00 00       	jmpq   d2d0 <func_1+0x2b1b>
    d133:	48 8d 05 86 15 01 00 	lea    0x11586(%rip),%rax        # 1e6c0 <g_811>
    d13a:	48 89 85 c0 e9 ff ff 	mov    %rax,-0x1640(%rbp)
    d141:	48 8d 85 c0 e9 ff ff 	lea    -0x1640(%rbp),%rax
    d148:	48 89 85 d0 ea ff ff 	mov    %rax,-0x1530(%rbp)
    d14f:	48 8d 05 32 d2 00 00 	lea    0xd232(%rip),%rax        # 1a388 <g_861>
    d156:	48 89 85 d8 ea ff ff 	mov    %rax,-0x1528(%rbp)
    d15d:	48 8b 85 90 e9 ff ff 	mov    -0x1670(%rbp),%rax
    d164:	48 8d 14 c5 00 00 00 	lea    0x0(,%rax,8),%rdx
    d16b:	00 
    d16c:	48 8d 05 55 09 01 00 	lea    0x10955(%rip),%rax        # 1dac8 <g_2362>
    d173:	48 8b 04 02          	mov    (%rdx,%rax,1),%rax
    d177:	48 89 05 0a fd 00 00 	mov    %rax,0xfd0a(%rip)        # 1ce88 <g_549+0xc8>
    d17e:	48 8b 05 33 01 01 00 	mov    0x10133(%rip),%rax        # 1d2b8 <g_1448>
    d185:	48 8b 00             	mov    (%rax),%rax
    d188:	0f b6 18             	movzbl (%rax),%ebx
    d18b:	48 8b 05 9e fd 00 00 	mov    0xfd9e(%rip),%rax        # 1cf30 <g_1031>
    d192:	0f b7 00             	movzwl (%rax),%eax
    d195:	98                   	cwtl   
    d196:	be 49 53 00 00       	mov    $0x5349,%esi
    d19b:	89 c7                	mov    %eax,%edi
    d19d:	e8 11 c2 ff ff       	callq  93b3 <safe_add_func_int16_t_s_s>
    d1a2:	0f b6 c0             	movzbl %al,%eax
    d1a5:	be 06 00 00 00       	mov    $0x6,%esi
    d1aa:	89 c7                	mov    %eax,%edi
    d1ac:	e8 54 ca ff ff       	callq  9c05 <safe_lshift_func_uint8_t_u_s>
    d1b1:	38 c3                	cmp    %al,%bl
    d1b3:	0f 93 c0             	setae  %al
    d1b6:	0f b6 d8             	movzbl %al,%ebx
    d1b9:	c6 85 bc e8 ff ff 01 	movb   $0x1,-0x1744(%rbp)
    d1c0:	48 8b 05 99 02 01 00 	mov    0x10299(%rip),%rax        # 1d460 <g_1991>
    d1c7:	0f b7 00             	movzwl (%rax),%eax
    d1ca:	0f b7 c8             	movzwl %ax,%ecx
    d1cd:	48 8b 85 90 e9 ff ff 	mov    -0x1670(%rbp),%rax
    d1d4:	48 8d 50 01          	lea    0x1(%rax),%rdx
    d1d8:	8b 05 f6 d8 00 00    	mov    0xd8f6(%rip),%eax        # 1aad4 <g_2637>
    d1de:	8d 78 03             	lea    0x3(%rax),%edi
    d1e1:	8b 05 ed d8 00 00    	mov    0xd8ed(%rip),%eax        # 1aad4 <g_2637>
    d1e7:	89 c6                	mov    %eax,%esi
    d1e9:	89 ff                	mov    %edi,%edi
    d1eb:	48 89 d0             	mov    %rdx,%rax
    d1ee:	48 c1 e0 02          	shl    $0x2,%rax
    d1f2:	48 01 d0             	add    %rdx,%rax
    d1f5:	48 01 f8             	add    %rdi,%rax
    d1f8:	48 01 c0             	add    %rax,%rax
    d1fb:	48 01 f0             	add    %rsi,%rax
    d1fe:	48 8d 14 00          	lea    (%rax,%rax,1),%rdx
    d202:	48 8d 05 57 d1 00 00 	lea    0xd157(%rip),%rax        # 1a360 <g_838>
    d209:	0f b7 04 02          	movzwl (%rdx,%rax,1),%eax
    d20d:	0f b7 d0             	movzwl %ax,%edx
    d210:	48 8b 05 21 0e 01 00 	mov    0x10e21(%rip),%rax        # 1e038 <g_3072+0x18>
    d217:	48 39 85 d0 ea ff ff 	cmp    %rax,-0x1530(%rbp)
    d21e:	0f 95 c0             	setne  %al
    d221:	0f b6 c0             	movzbl %al,%eax
    d224:	39 c2                	cmp    %eax,%edx
    d226:	0f 9c c0             	setl   %al
    d229:	0f b6 c0             	movzbl %al,%eax
    d22c:	89 ce                	mov    %ecx,%esi
    d22e:	89 c7                	mov    %eax,%edi
    d230:	e8 45 cc ff ff       	callq  9e7a <safe_rshift_func_uint16_t_u_u>
    d235:	89 c2                	mov    %eax,%edx
    d237:	48 8b 05 fa 01 01 00 	mov    0x101fa(%rip),%rax        # 1d438 <g_1823>
    d23e:	48 8b 00             	mov    (%rax),%rax
    d241:	66 89 10             	mov    %dx,(%rax)
    d244:	0f b7 00             	movzwl (%rax),%eax
    d247:	98                   	cwtl   
    d248:	be 01 00 00 00       	mov    $0x1,%esi
    d24d:	89 c7                	mov    %eax,%edi
    d24f:	e8 01 c2 ff ff       	callq  9455 <safe_div_func_int16_t_s_s>
    d254:	98                   	cwtl   
    d255:	f7 d0                	not    %eax
    d257:	48 63 d0             	movslq %eax,%rdx
    d25a:	48 8b 85 d8 ea ff ff 	mov    -0x1528(%rbp),%rax
    d261:	48 89 10             	mov    %rdx,(%rax)
    d264:	48 8b 85 d8 ea ff ff 	mov    -0x1528(%rbp),%rax
    d26b:	48 8b 10             	mov    (%rax),%rdx
    d26e:	48 83 bd 10 ea ff ff 	cmpq   $0x0,-0x15f0(%rbp)
    d275:	00 
    d276:	0f 94 c0             	sete   %al
    d279:	0f b6 c0             	movzbl %al,%eax
    d27c:	48 39 c2             	cmp    %rax,%rdx
    d27f:	0f 94 c0             	sete   %al
    d282:	0f b6 c0             	movzbl %al,%eax
    d285:	89 de                	mov    %ebx,%esi
    d287:	89 c7                	mov    %eax,%edi
    d289:	e8 25 c1 ff ff       	callq  93b3 <safe_add_func_int16_t_s_s>
    d28e:	98                   	cwtl   
    d28f:	89 85 08 e9 ff ff    	mov    %eax,-0x16f8(%rbp)
    d295:	8b 85 08 e9 ff ff    	mov    -0x16f8(%rbp),%eax
    d29b:	0f be c0             	movsbl %al,%eax
    d29e:	be ff ff ff ff       	mov    $0xffffffff,%esi
    d2a3:	89 c7                	mov    %eax,%edi
    d2a5:	e8 c0 bf ff ff       	callq  926a <safe_div_func_int8_t_s_s>
    d2aa:	48 8b 15 6f fa 00 00 	mov    0xfa6f(%rip),%rdx        # 1cd20 <g_85>
    d2b1:	8b 0a                	mov    (%rdx),%ecx
    d2b3:	0f be d0             	movsbl %al,%edx
    d2b6:	48 8b 05 63 fa 00 00 	mov    0xfa63(%rip),%rax        # 1cd20 <g_85>
    d2bd:	21 ca                	and    %ecx,%edx
    d2bf:	89 10                	mov    %edx,(%rax)
    d2c1:	8b 05 0d d8 00 00    	mov    0xd80d(%rip),%eax        # 1aad4 <g_2637>
    d2c7:	83 c0 01             	add    $0x1,%eax
    d2ca:	89 05 04 d8 00 00    	mov    %eax,0xd804(%rip)        # 1aad4 <g_2637>
    d2d0:	8b 05 fe d7 00 00    	mov    0xd7fe(%rip),%eax        # 1aad4 <g_2637>
    d2d6:	83 f8 01             	cmp    $0x1,%eax
    d2d9:	0f 86 54 fe ff ff    	jbe    d133 <func_1+0x297e>
    d2df:	48 8b 85 e8 e9 ff ff 	mov    -0x1618(%rbp),%rax
    d2e6:	0f b6 f8             	movzbl %al,%edi
    d2e9:	48 8b 85 00 ea ff ff 	mov    -0x1600(%rbp),%rax
    d2f0:	8b 00                	mov    (%rax),%eax
    d2f2:	0f bf c8             	movswl %ax,%ecx
    d2f5:	0f b7 05 c4 d7 00 00 	movzwl 0xd7c4(%rip),%eax        # 1aac0 <g_2521>
    d2fc:	48 0f bf d0          	movswq %ax,%rdx
    d300:	48 8b 85 28 ef ff ff 	mov    -0x10d8(%rbp),%rax
    d307:	48 39 85 18 ea ff ff 	cmp    %rax,-0x15e8(%rbp)
    d30e:	0f 95 c0             	setne  %al
    d311:	0f b6 f0             	movzbl %al,%esi
    d314:	0f b6 85 bc e8 ff ff 	movzbl -0x1744(%rbp),%eax
    d31b:	0f b6 c0             	movzbl %al,%eax
    d31e:	48 8b 1d 6b fa 00 00 	mov    0xfa6b(%rip),%rbx        # 1cd90 <g_421>
    d325:	41 89 f8             	mov    %edi,%r8d
    d328:	89 c7                	mov    %eax,%edi
    d32a:	e8 58 48 00 00       	callq  11b87 <func_26>
    d32f:	48 89 03             	mov    %rax,(%rbx)
    d332:	48 8b 13             	mov    (%rbx),%rdx
    d335:	48 8b 85 c8 ea ff ff 	mov    -0x1538(%rbp),%rax
    d33c:	48 89 10             	mov    %rdx,(%rax)
    d33f:	0f b6 85 bc e8 ff ff 	movzbl -0x1744(%rbp),%eax
    d346:	83 f0 01             	xor    $0x1,%eax
    d349:	89 c2                	mov    %eax,%edx
    d34b:	0f b6 85 bc e8 ff ff 	movzbl -0x1744(%rbp),%eax
    d352:	38 c2                	cmp    %al,%dl
    d354:	0f 93 c0             	setae  %al
    d357:	0f b6 c0             	movzbl %al,%eax
    d35a:	be 7c d2 8d d3       	mov    $0xd38dd27c,%esi
    d35f:	89 c7                	mov    %eax,%edi
    d361:	e8 66 c3 ff ff       	callq  96cc <safe_mod_func_int32_t_s_s>
    d366:	3d ff 00 00 00       	cmp    $0xff,%eax
    d36b:	0f 96 c0             	setbe  %al
    d36e:	0f b6 c8             	movzbl %al,%ecx
    d371:	48 8b 85 98 e9 ff ff 	mov    -0x1668(%rbp),%rax
    d378:	8b 10                	mov    (%rax),%edx
    d37a:	48 8b 85 98 e9 ff ff 	mov    -0x1668(%rbp),%rax
    d381:	21 ca                	and    %ecx,%edx
    d383:	89 10                	mov    %edx,(%rax)
    d385:	66 83 85 c6 e8 ff ff 	addw   $0x1,-0x173a(%rbp)
    d38c:	01 
    d38d:	66 83 bd c6 e8 ff ff 	cmpw   $0x0,-0x173a(%rbp)
    d394:	00 
    d395:	0f 84 e0 fc ff ff    	je     d07b <func_1+0x28c6>
    d39b:	48 c7 85 c8 e9 ff ff 	movq   $0xffffffffffffffff,-0x1638(%rbp)
    d3a2:	ff ff ff ff 
    d3a6:	e9 0c 05 00 00       	jmpq   d8b7 <func_1+0x3102>
    d3ab:	48 b8 29 b6 99 33 be 	movabs $0x5022c8be3399b629,%rax
    d3b2:	c8 22 50 
    d3b5:	48 89 85 90 ea ff ff 	mov    %rax,-0x1570(%rbp)
    d3bc:	48 8d 05 e5 07 01 00 	lea    0x107e5(%rip),%rax        # 1dba8 <g_2766+0x8>
    d3c3:	48 89 85 98 ea ff ff 	mov    %rax,-0x1568(%rbp)
    d3ca:	66 c7 85 c4 e8 ff ff 	movw   $0xd,-0x173c(%rbp)
    d3d1:	0d 00 
    d3d3:	66 83 bd c4 e8 ff ff 	cmpw   $0x20,-0x173c(%rbp)
    d3da:	20 
    d3db:	0f 86 47 02 00 00    	jbe    d628 <func_1+0x2e73>
    d3e1:	c6 85 c0 e8 ff ff bd 	movb   $0xbd,-0x1740(%rbp)
    d3e8:	c7 85 58 e9 ff ff 02 	movl   $0x54179502,-0x16a8(%rbp)
    d3ef:	95 17 54 
    d3f2:	48 8b 05 27 f9 00 00 	mov    0xf927(%rip),%rax        # 1cd20 <g_85>
    d3f9:	8b 18                	mov    (%rax),%ebx
    d3fb:	48 8b 05 c6 fe 00 00 	mov    0xfec6(%rip),%rax        # 1d2c8 <g_1446>
    d402:	48 8b 00             	mov    (%rax),%rax
    d405:	48 8b 00             	mov    (%rax),%rax
    d408:	48 8b 00             	mov    (%rax),%rax
    d40b:	0f b6 00             	movzbl (%rax),%eax
    d40e:	44 0f b6 f0          	movzbl %al,%r14d
    d412:	8b 85 08 e9 ff ff    	mov    -0x16f8(%rbp),%eax
    d418:	44 0f bf e0          	movswl %ax,%r12d
    d41c:	48 8b 05 fd f8 00 00 	mov    0xf8fd(%rip),%rax        # 1cd20 <g_85>
    d423:	44 8b 38             	mov    (%rax),%r15d
    d426:	44 0f be ad c0 e8 ff 	movsbl -0x1740(%rbp),%r13d
    d42d:	ff 
    d42e:	48 8b 05 2b 00 01 00 	mov    0x1002b(%rip),%rax        # 1d460 <g_1991>
    d435:	0f b7 00             	movzwl (%rax),%eax
    d438:	66 85 c0             	test   %ax,%ax
    d43b:	0f 85 89 00 00 00    	jne    d4ca <func_1+0x2d15>
    d441:	48 8b 85 90 ea ff ff 	mov    -0x1570(%rbp),%rax
    d448:	0f be c0             	movsbl %al,%eax
    d44b:	be 07 00 00 00       	mov    $0x7,%esi
    d450:	89 c7                	mov    %eax,%edi
    d452:	e8 4a be ff ff       	callq  92a1 <safe_lshift_func_int8_t_s_s>
    d457:	0f be d0             	movsbl %al,%edx
    d45a:	48 8b 85 00 ea ff ff 	mov    -0x1600(%rbp),%rax
    d461:	89 10                	mov    %edx,(%rax)
    d463:	48 8b 85 00 ea ff ff 	mov    -0x1600(%rbp),%rax
    d46a:	8b 00                	mov    (%rax),%eax
    d46c:	80 bd c0 e8 ff ff 00 	cmpb   $0x0,-0x1740(%rbp)
    d473:	75 09                	jne    d47e <func_1+0x2cc9>
    d475:	80 bd be e8 ff ff 00 	cmpb   $0x0,-0x1742(%rbp)
    d47c:	74 10                	je     d48e <func_1+0x2cd9>
    d47e:	83 bd 08 e9 ff ff 00 	cmpl   $0x0,-0x16f8(%rbp)
    d485:	74 07                	je     d48e <func_1+0x2cd9>
    d487:	ba 01 00 00 00       	mov    $0x1,%edx
    d48c:	eb 05                	jmp    d493 <func_1+0x2cde>
    d48e:	ba 00 00 00 00       	mov    $0x0,%edx
    d493:	39 c2                	cmp    %eax,%edx
    d495:	48 8b 85 90 ea ff ff 	mov    -0x1570(%rbp),%rax
    d49c:	48 83 f0 01          	xor    $0x1,%rax
    d4a0:	48 83 f8 fd          	cmp    $0xfffffffffffffffd,%rax
    d4a4:	0f 96 c0             	setbe  %al
    d4a7:	0f b6 c0             	movzbl %al,%eax
    d4aa:	be 06 00 00 00       	mov    $0x6,%esi
    d4af:	89 c7                	mov    %eax,%edi
    d4b1:	e8 eb bd ff ff       	callq  92a1 <safe_lshift_func_int8_t_s_s>
    d4b6:	0f be c0             	movsbl %al,%eax
    d4b9:	be 09 00 00 00       	mov    $0x9,%esi
    d4be:	89 c7                	mov    %eax,%edi
    d4c0:	e8 30 bf ff ff       	callq  93f5 <safe_mul_func_int16_t_s_s>
    d4c5:	66 85 c0             	test   %ax,%ax
    d4c8:	74 07                	je     d4d1 <func_1+0x2d1c>
    d4ca:	b8 01 00 00 00       	mov    $0x1,%eax
    d4cf:	eb 05                	jmp    d4d6 <func_1+0x2d21>
    d4d1:	b8 00 00 00 00       	mov    $0x0,%eax
    d4d6:	83 c8 b2             	or     $0xffffffb2,%eax
    d4d9:	0f be c0             	movsbl %al,%eax
    d4dc:	be c9 ff ff ff       	mov    $0xffffffc9,%esi
    d4e1:	89 c7                	mov    %eax,%edi
    d4e3:	e8 49 bd ff ff       	callq  9231 <safe_mod_func_int8_t_s_s>
    d4e8:	48 8b 05 51 ff 00 00 	mov    0xff51(%rip),%rax        # 1d440 <g_1822>
    d4ef:	48 8b 00             	mov    (%rax),%rax
    d4f2:	48 8b 00             	mov    (%rax),%rax
    d4f5:	0f b7 00             	movzwl (%rax),%eax
    d4f8:	98                   	cwtl   
    d4f9:	44 89 ee             	mov    %r13d,%esi
    d4fc:	89 c7                	mov    %eax,%edi
    d4fe:	e8 8f bf ff ff       	callq  9492 <safe_lshift_func_int16_t_s_s>
    d503:	66 3d 83 08          	cmp    $0x883,%ax
    d507:	0f 95 c0             	setne  %al
    d50a:	0f b6 c0             	movzbl %al,%eax
    d50d:	41 39 c7             	cmp    %eax,%r15d
    d510:	48 8b 85 d0 e9 ff ff 	mov    -0x1630(%rbp),%rax
    d517:	48 89 85 70 ea ff ff 	mov    %rax,-0x1590(%rbp)
    d51e:	48 8b 85 70 ea ff ff 	mov    -0x1590(%rbp),%rax
    d525:	48 3b 85 78 ea ff ff 	cmp    -0x1588(%rbp),%rax
    d52c:	0f b6 85 c0 e8 ff ff 	movzbl -0x1740(%rbp),%eax
    d533:	0f b6 c0             	movzbl %al,%eax
    d536:	83 e0 01             	and    $0x1,%eax
    d539:	89 c2                	mov    %eax,%edx
    d53b:	8b 85 c8 eb ff ff    	mov    -0x1438(%rbp),%eax
    d541:	0f b6 c0             	movzbl %al,%eax
    d544:	89 d6                	mov    %edx,%esi
    d546:	89 c7                	mov    %eax,%edi
    d548:	e8 2b c6 ff ff       	callq  9b78 <safe_sub_func_uint8_t_u_u>
    d54d:	0f b6 c0             	movzbl %al,%eax
    d550:	44 89 e6             	mov    %r12d,%esi
    d553:	89 c7                	mov    %eax,%edi
    d555:	e8 59 be ff ff       	callq  93b3 <safe_add_func_int16_t_s_s>
    d55a:	66 83 f8 01          	cmp    $0x1,%ax
    d55e:	0f 9e c0             	setle  %al
    d561:	0f b6 c0             	movzbl %al,%eax
    d564:	41 39 c6             	cmp    %eax,%r14d
    d567:	75 11                	jne    d57a <func_1+0x2dc5>
    d569:	48 8b 05 48 fd 00 00 	mov    0xfd48(%rip),%rax        # 1d2b8 <g_1448>
    d570:	48 8b 00             	mov    (%rax),%rax
    d573:	0f b6 00             	movzbl (%rax),%eax
    d576:	84 c0                	test   %al,%al
    d578:	74 07                	je     d581 <func_1+0x2dcc>
    d57a:	b8 01 00 00 00       	mov    $0x1,%eax
    d57f:	eb 05                	jmp    d586 <func_1+0x2dd1>
    d581:	b8 00 00 00 00       	mov    $0x0,%eax
    d586:	48 98                	cltq   
    d588:	ba 1c 78 60 9d       	mov    $0x9d60781c,%edx
    d58d:	48 09 c2             	or     %rax,%rdx
    d590:	8b 85 20 e9 ff ff    	mov    -0x16e0(%rbp),%eax
    d596:	48 98                	cltq   
    d598:	48 39 c2             	cmp    %rax,%rdx
    d59b:	0f 9f c0             	setg   %al
    d59e:	0f b6 c0             	movzbl %al,%eax
    d5a1:	89 de                	mov    %ebx,%esi
    d5a3:	89 c7                	mov    %eax,%edi
    d5a5:	e8 22 c1 ff ff       	callq  96cc <safe_mod_func_int32_t_s_s>
    d5aa:	83 f8 53             	cmp    $0x53,%eax
    d5ad:	0f 95 c0             	setne  %al
    d5b0:	0f b6 c0             	movzbl %al,%eax
    d5b3:	be 01 00 00 00       	mov    $0x1,%esi
    d5b8:	48 89 c7             	mov    %rax,%rdi
    d5bb:	e8 f4 c3 ff ff       	callq  99b4 <safe_mod_func_int64_t_s_s>
    d5c0:	48 8b 05 b1 f7 00 00 	mov    0xf7b1(%rip),%rax        # 1cd78 <g_418>
    d5c7:	8b 10                	mov    (%rax),%edx
    d5c9:	48 8b 05 80 fe 00 00 	mov    0xfe80(%rip),%rax        # 1d450 <g_1917>
    d5d0:	48 8b 00             	mov    (%rax),%rax
    d5d3:	8b 00                	mov    (%rax),%eax
    d5d5:	89 d6                	mov    %edx,%esi
    d5d7:	89 c7                	mov    %eax,%edi
    d5d9:	e8 21 c1 ff ff       	callq  96ff <safe_div_func_int32_t_s_s>
    d5de:	48 0f be 85 c0 e8 ff 	movsbq -0x1740(%rbp),%rax
    d5e5:	ff 
    d5e6:	be 01 00 00 00       	mov    $0x1,%esi
    d5eb:	48 89 c7             	mov    %rax,%rdi
    d5ee:	e8 c1 c3 ff ff       	callq  99b4 <safe_mod_func_int64_t_s_s>
    d5f3:	48 8b 05 4e f7 00 00 	mov    0xf74e(%rip),%rax        # 1cd48 <g_221>
    d5fa:	48 8b 00             	mov    (%rax),%rax
    d5fd:	8b 08                	mov    (%rax),%ecx
    d5ff:	48 8b 85 98 e9 ff ff 	mov    -0x1668(%rbp),%rax
    d606:	8b 10                	mov    (%rax),%edx
    d608:	48 8b 85 98 e9 ff ff 	mov    -0x1668(%rbp),%rax
    d60f:	09 ca                	or     %ecx,%edx
    d611:	89 10                	mov    %edx,(%rax)
    d613:	8b 00                	mov    (%rax),%eax
    d615:	31 85 24 e9 ff ff    	xor    %eax,-0x16dc(%rbp)
    d61b:	8b 85 58 e9 ff ff    	mov    -0x16a8(%rbp),%eax
    d621:	48 98                	cltq   
    d623:	e9 0b 0f 00 00       	jmpq   e533 <func_1+0x3d7e>
    d628:	48 c7 05 b5 10 01 00 	movq   $0x0,0x110b5(%rip)        # 1e6e8 <g_1076>
    d62f:	00 00 00 00 
    d633:	e9 0d 02 00 00       	jmpq   d845 <func_1+0x3090>
    d638:	66 c7 85 cc e8 ff ff 	movw   $0x1,-0x1734(%rbp)
    d63f:	01 00 
    d641:	48 8d 05 a8 cd 00 00 	lea    0xcda8(%rip),%rax        # 1a3f0 <g_1080>
    d648:	48 89 85 a0 ea ff ff 	mov    %rax,-0x1560(%rbp)
    d64f:	c7 85 54 e9 ff ff 07 	movl   $0x7,-0x16ac(%rbp)
    d656:	00 00 00 
    d659:	48 8d 85 b8 e9 ff ff 	lea    -0x1648(%rbp),%rax
    d660:	48 89 85 a8 ea ff ff 	mov    %rax,-0x1558(%rbp)
    d667:	48 c7 85 b0 ea ff ff 	movq   $0x0,-0x1550(%rbp)
    d66e:	00 00 00 00 
    d672:	48 8d 05 1f 0b 01 00 	lea    0x10b1f(%rip),%rax        # 1e198 <g_3156+0x118>
    d679:	48 89 85 b8 ea ff ff 	mov    %rax,-0x1548(%rbp)
    d680:	48 8d 05 19 cd 00 00 	lea    0xcd19(%rip),%rax        # 1a3a0 <g_941>
    d687:	48 89 85 c0 ea ff ff 	mov    %rax,-0x1540(%rbp)
    d68e:	c7 85 54 e9 ff ff ff 	movl   $0xffffffff,-0x16ac(%rbp)
    d695:	ff ff ff 
    d698:	48 8b 05 19 09 01 00 	mov    0x10919(%rip),%rax        # 1dfb8 <g_2829>
    d69f:	48 8b 00             	mov    (%rax),%rax
    d6a2:	8b 18                	mov    (%rax),%ebx
    d6a4:	4c 8b a5 90 ea ff ff 	mov    -0x1570(%rbp),%r12
    d6ab:	8b 85 08 e9 ff ff    	mov    -0x16f8(%rbp),%eax
    d6b1:	83 e0 01             	and    $0x1,%eax
    d6b4:	48 89 c2             	mov    %rax,%rdx
    d6b7:	8b 85 cc eb ff ff    	mov    -0x1434(%rbp),%eax
    d6bd:	48 98                	cltq   
    d6bf:	48 39 c2             	cmp    %rax,%rdx
    d6c2:	0f 9d c0             	setge  %al
    d6c5:	0f b6 c0             	movzbl %al,%eax
    d6c8:	89 85 d4 e8 ff ff    	mov    %eax,-0x172c(%rbp)
    d6ce:	8b 85 d4 e8 ff ff    	mov    -0x172c(%rbp),%eax
    d6d4:	48 98                	cltq   
    d6d6:	48 39 85 90 ea ff ff 	cmp    %rax,-0x1570(%rbp)
    d6dd:	0f 95 c0             	setne  %al
    d6e0:	0f b6 c0             	movzbl %al,%eax
    d6e3:	8b 95 08 e9 ff ff    	mov    -0x16f8(%rbp),%edx
    d6e9:	21 d0                	and    %edx,%eax
    d6eb:	98                   	cwtl   
    d6ec:	be 00 00 00 00       	mov    $0x0,%esi
    d6f1:	89 c7                	mov    %eax,%edi
    d6f3:	e8 bb bc ff ff       	callq  93b3 <safe_add_func_int16_t_s_s>
    d6f8:	48 0f bf d0          	movswq %ax,%rdx
    d6fc:	48 8b 85 c0 ea ff ff 	mov    -0x1540(%rbp),%rax
    d703:	48 89 10             	mov    %rdx,(%rax)
    d706:	be 07 00 00 00       	mov    $0x7,%esi
    d70b:	bf ff ff ff ff       	mov    $0xffffffff,%edi
    d710:	e8 7d bd ff ff       	callq  9492 <safe_lshift_func_int16_t_s_s>
    d715:	48 8b 15 7c 0a 01 00 	mov    0x10a7c(%rip),%rdx        # 1e198 <g_3156+0x118>
    d71c:	48 8b 85 b8 ea ff ff 	mov    -0x1548(%rbp),%rax
    d723:	48 89 10             	mov    %rdx,(%rax)
    d726:	48 8b 85 b8 ea ff ff 	mov    -0x1548(%rbp),%rax
    d72d:	48 8b 00             	mov    (%rax),%rax
    d730:	48 39 85 30 ea ff ff 	cmp    %rax,-0x15d0(%rbp)
    d737:	0f 94 c0             	sete   %al
    d73a:	0f b6 d0             	movzbl %al,%edx
    d73d:	48 8b 85 90 ea ff ff 	mov    -0x1570(%rbp),%rax
    d744:	0f b6 c0             	movzbl %al,%eax
    d747:	89 d6                	mov    %edx,%esi
    d749:	89 c7                	mov    %eax,%edi
    d74b:	e8 28 c4 ff ff       	callq  9b78 <safe_sub_func_uint8_t_u_u>
    d750:	0f b6 c0             	movzbl %al,%eax
    d753:	be 00 00 00 00       	mov    $0x0,%esi
    d758:	89 c7                	mov    %eax,%edi
    d75a:	e8 19 c4 ff ff       	callq  9b78 <safe_sub_func_uint8_t_u_u>
    d75f:	0f b6 c0             	movzbl %al,%eax
    d762:	4c 89 e6             	mov    %r12,%rsi
    d765:	48 89 c7             	mov    %rax,%rdi
    d768:	e8 de c8 ff ff       	callq  a04b <safe_sub_func_uint64_t_u_u>
    d76d:	48 8b 05 c4 f7 00 00 	mov    0xf7c4(%rip),%rax        # 1cf38 <g_1033>
    d774:	0f b7 00             	movzwl (%rax),%eax
    d777:	98                   	cwtl   
    d778:	89 85 50 e9 ff ff    	mov    %eax,-0x16b0(%rbp)
    d77e:	48 8b 95 b8 e9 ff ff 	mov    -0x1648(%rbp),%rdx
    d785:	48 8b 85 a8 ea ff ff 	mov    -0x1558(%rbp),%rax
    d78c:	48 89 10             	mov    %rdx,(%rax)
    d78f:	48 8b 85 a8 ea ff ff 	mov    -0x1558(%rbp),%rax
    d796:	48 8b 00             	mov    (%rax),%rax
    d799:	48 85 c0             	test   %rax,%rax
    d79c:	0f 94 c0             	sete   %al
    d79f:	0f b6 d0             	movzbl %al,%edx
    d7a2:	48 8d 05 77 fa 00 00 	lea    0xfa77(%rip),%rax        # 1d220 <g_1414>
    d7a9:	48 8b 00             	mov    (%rax),%rax
    d7ac:	8b 8d 08 e9 ff ff    	mov    -0x16f8(%rbp),%ecx
    d7b2:	66 89 08             	mov    %cx,(%rax)
    d7b5:	0f b7 00             	movzwl (%rax),%eax
    d7b8:	98                   	cwtl   
    d7b9:	89 d6                	mov    %edx,%esi
    d7bb:	89 c7                	mov    %eax,%edi
    d7bd:	e8 d0 bc ff ff       	callq  9492 <safe_lshift_func_int16_t_s_s>
    d7c2:	0f b7 c0             	movzwl %ax,%eax
    d7c5:	8b 95 50 e9 ff ff    	mov    -0x16b0(%rbp),%edx
    d7cb:	89 d6                	mov    %edx,%esi
    d7cd:	89 c7                	mov    %eax,%edi
    d7cf:	e8 74 c6 ff ff       	callq  9e48 <safe_rshift_func_uint16_t_u_s>
    d7d4:	48 8b 15 85 fc 00 00 	mov    0xfc85(%rip),%rdx        # 1d460 <g_1991>
    d7db:	0f b7 12             	movzwl (%rdx),%edx
    d7de:	21 d0                	and    %edx,%eax
    d7e0:	0f b7 c0             	movzwl %ax,%eax
    d7e3:	48 89 85 88 ea ff ff 	mov    %rax,-0x1578(%rbp)
    d7ea:	48 8b 85 88 ea ff ff 	mov    -0x1578(%rbp),%rax
    d7f1:	48 3b 85 c8 e9 ff ff 	cmp    -0x1638(%rbp),%rax
    d7f8:	0f 94 c0             	sete   %al
    d7fb:	0f b6 d0             	movzbl %al,%edx
    d7fe:	48 8b 05 5b fc 00 00 	mov    0xfc5b(%rip),%rax        # 1d460 <g_1991>
    d805:	0f b7 00             	movzwl (%rax),%eax
    d808:	0f b7 c0             	movzwl %ax,%eax
    d80b:	39 c2                	cmp    %eax,%edx
    d80d:	0f 95 c0             	setne  %al
    d810:	0f b6 c0             	movzbl %al,%eax
    d813:	48 8b 15 36 fc 00 00 	mov    0xfc36(%rip),%rdx        # 1d450 <g_1917>
    d81a:	4c 8b 22             	mov    (%rdx),%r12
    d81d:	89 de                	mov    %ebx,%esi
    d81f:	89 c7                	mov    %eax,%edi
    d821:	e8 a6 be ff ff       	callq  96cc <safe_mod_func_int32_t_s_s>
    d826:	41 89 04 24          	mov    %eax,(%r12)
    d82a:	48 8b 05 b7 0e 01 00 	mov    0x10eb7(%rip),%rax        # 1e6e8 <g_1076>
    d831:	be 03 00 00 00       	mov    $0x3,%esi
    d836:	48 89 c7             	mov    %rax,%rdi
    d839:	e8 f0 c7 ff ff       	callq  a02e <safe_add_func_uint64_t_u_u>
    d83e:	48 89 05 a3 0e 01 00 	mov    %rax,0x10ea3(%rip)        # 1e6e8 <g_1076>
    d845:	48 8b 05 9c 0e 01 00 	mov    0x10e9c(%rip),%rax        # 1e6e8 <g_1076>
    d84c:	48 83 f8 16          	cmp    $0x16,%rax
    d850:	0f 8f e2 fd ff ff    	jg     d638 <func_1+0x2e83>
    d856:	48 8b 05 c3 fa 00 00 	mov    0xfac3(%rip),%rax        # 1d320 <g_1655>
    d85d:	48 8b 00             	mov    (%rax),%rax
    d860:	48 8b 10             	mov    (%rax),%rdx
    d863:	48 8b 85 30 ea ff ff 	mov    -0x15d0(%rbp),%rax
    d86a:	48 8b 00             	mov    (%rax),%rax
    d86d:	48 8b 00             	mov    (%rax),%rax
    d870:	48 8b 00             	mov    (%rax),%rax
    d873:	48 39 c2             	cmp    %rax,%rdx
    d876:	0f 95 c2             	setne  %dl
    d879:	48 8b 05 a0 f4 00 00 	mov    0xf4a0(%rip),%rax        # 1cd20 <g_85>
    d880:	0f b6 d2             	movzbl %dl,%edx
    d883:	89 10                	mov    %edx,(%rax)
    d885:	8b 10                	mov    (%rax),%edx
    d887:	48 8b 85 00 ea ff ff 	mov    -0x1600(%rbp),%rax
    d88e:	8b 00                	mov    (%rax),%eax
    d890:	21 c2                	and    %eax,%edx
    d892:	48 8b 85 00 ea ff ff 	mov    -0x1600(%rbp),%rax
    d899:	89 10                	mov    %edx,(%rax)
    d89b:	48 8b 85 c8 e9 ff ff 	mov    -0x1638(%rbp),%rax
    d8a2:	be 02 00 00 00       	mov    $0x2,%esi
    d8a7:	89 c7                	mov    %eax,%edi
    d8a9:	e8 0a c6 ff ff       	callq  9eb8 <safe_add_func_uint32_t_u_u>
    d8ae:	89 c0                	mov    %eax,%eax
    d8b0:	48 89 85 c8 e9 ff ff 	mov    %rax,-0x1638(%rbp)
    d8b7:	48 83 bd c8 e9 ff ff 	cmpq   $0x24,-0x1638(%rbp)
    d8be:	24 
    d8bf:	0f 87 e6 fa ff ff    	ja     d3ab <func_1+0x2bf6>
    d8c5:	48 8b 85 90 e9 ff ff 	mov    -0x1670(%rbp),%rax
    d8cc:	48 83 e8 01          	sub    $0x1,%rax
    d8d0:	48 89 85 90 e9 ff ff 	mov    %rax,-0x1670(%rbp)
    d8d7:	48 8b 85 90 e9 ff ff 	mov    -0x1670(%rbp),%rax
    d8de:	48 85 c0             	test   %rax,%rax
    d8e1:	0f 89 32 f7 ff ff    	jns    d019 <func_1+0x2864>
    d8e7:	66 c7 85 c6 e8 ff ff 	movw   $0x0,-0x173a(%rbp)
    d8ee:	00 00 
    d8f0:	e9 08 0c 00 00       	jmpq   e4fd <func_1+0x3d48>
    d8f5:	c7 85 30 ed ff ff 05 	movl   $0x40501505,-0x12d0(%rbp)
    d8fc:	15 50 40 
    d8ff:	c7 85 34 ed ff ff 05 	movl   $0x40501505,-0x12cc(%rbp)
    d906:	15 50 40 
    d909:	c7 85 38 ed ff ff 06 	movl   $0x6,-0x12c8(%rbp)
    d910:	00 00 00 
    d913:	c7 85 3c ed ff ff 05 	movl   $0x40501505,-0x12c4(%rbp)
    d91a:	15 50 40 
    d91d:	c7 85 40 ed ff ff 05 	movl   $0x40501505,-0x12c0(%rbp)
    d924:	15 50 40 
    d927:	c7 85 44 ed ff ff 06 	movl   $0x6,-0x12bc(%rbp)
    d92e:	00 00 00 
    d931:	c7 85 48 ed ff ff 05 	movl   $0x40501505,-0x12b8(%rbp)
    d938:	15 50 40 
    d93b:	c7 85 4c ed ff ff 05 	movl   $0x40501505,-0x12b4(%rbp)
    d942:	15 50 40 
    d945:	48 8d 85 90 e9 ff ff 	lea    -0x1670(%rbp),%rax
    d94c:	48 89 85 40 ea ff ff 	mov    %rax,-0x15c0(%rbp)
    d953:	c6 85 bf e8 ff ff c4 	movb   $0xc4,-0x1741(%rbp)
    d95a:	48 b8 b6 39 bf 2a d5 	movabs $0x9a8ad52abf39b6,%rax
    d961:	8a 9a 00 
    d964:	48 89 85 48 ea ff ff 	mov    %rax,-0x15b8(%rbp)
    d96b:	8b 85 34 ed ff ff    	mov    -0x12cc(%rbp),%eax
    d971:	0f be d8             	movsbl %al,%ebx
    d974:	0f b6 05 2d c8 00 00 	movzbl 0xc82d(%rip),%eax        # 1a1a8 <g_223>
    d97b:	0f b6 d0             	movzbl %al,%edx
    d97e:	48 8b 85 40 ea ff ff 	mov    -0x15c0(%rbp),%rax
    d985:	48 8b 00             	mov    (%rax),%rax
    d988:	48 83 c8 02          	or     $0x2,%rax
    d98c:	48 89 c1             	mov    %rax,%rcx
    d98f:	48 8b 85 40 ea ff ff 	mov    -0x15c0(%rbp),%rax
    d996:	48 89 08             	mov    %rcx,(%rax)
    d999:	48 8b 85 40 ea ff ff 	mov    -0x15c0(%rbp),%rax
    d9a0:	48 8b 00             	mov    (%rax),%rax
    d9a3:	48 31 d0             	xor    %rdx,%rax
    d9a6:	25 99 00 00 00       	and    $0x99,%eax
    d9ab:	48 85 c0             	test   %rax,%rax
    d9ae:	74 0a                	je     d9ba <func_1+0x3205>
    d9b0:	0f b7 85 da eb ff ff 	movzwl -0x1426(%rbp),%eax
    d9b7:	66 85 c0             	test   %ax,%ax
    d9ba:	8b 95 34 ed ff ff    	mov    -0x12cc(%rbp),%edx
    d9c0:	0f b6 85 bd e8 ff ff 	movzbl -0x1743(%rbp),%eax
    d9c7:	39 c2                	cmp    %eax,%edx
    d9c9:	0f 9e c0             	setle  %al
    d9cc:	0f b6 c0             	movzbl %al,%eax
    d9cf:	be 01 00 00 00       	mov    $0x1,%esi
    d9d4:	89 c7                	mov    %eax,%edi
    d9d6:	e8 f9 b7 ff ff       	callq  91d4 <safe_add_func_int8_t_s_s>
    d9db:	0f be c0             	movsbl %al,%eax
    d9de:	89 de                	mov    %ebx,%esi
    d9e0:	89 c7                	mov    %eax,%edi
    d9e2:	e8 0b b8 ff ff       	callq  91f2 <safe_sub_func_int8_t_s_s>
    d9e7:	48 8b 05 a2 f3 00 00 	mov    0xf3a2(%rip),%rax        # 1cd90 <g_421>
    d9ee:	48 8b 00             	mov    (%rax),%rax
    d9f1:	0f b6 00             	movzbl (%rax),%eax
    d9f4:	84 c0                	test   %al,%al
    d9f6:	74 07                	je     d9ff <func_1+0x324a>
    d9f8:	ba 01 00 00 00       	mov    $0x1,%edx
    d9fd:	eb 05                	jmp    da04 <func_1+0x324f>
    d9ff:	ba 00 00 00 00       	mov    $0x0,%edx
    da04:	48 8b 05 55 fa 00 00 	mov    0xfa55(%rip),%rax        # 1d460 <g_1991>
    da0b:	0f b7 00             	movzwl (%rax),%eax
    da0e:	0f b7 c0             	movzwl %ax,%eax
    da11:	31 d0                	xor    %edx,%eax
    da13:	48 98                	cltq   
    da15:	ba ff ff ff ff       	mov    $0xffffffff,%edx
    da1a:	48 09 c2             	or     %rax,%rdx
    da1d:	48 b8 a9 82 8a 8c 0e 	movabs $0xfcc1fb0e8c8a82a9,%rax
    da24:	fb c1 fc 
    da27:	48 39 c2             	cmp    %rax,%rdx
    da2a:	0f 97 c0             	seta   %al
    da2d:	0f b6 c0             	movzbl %al,%eax
    da30:	be ff ff 00 00       	mov    $0xffff,%esi
    da35:	89 c7                	mov    %eax,%edi
    da37:	e8 01 c3 ff ff       	callq  9d3d <safe_mul_func_uint16_t_u_u>
    da3c:	48 8b 85 00 ea ff ff 	mov    -0x1600(%rbp),%rax
    da43:	8b 00                	mov    (%rax),%eax
    da45:	8b 8d 48 ec ff ff    	mov    -0x13b8(%rbp),%ecx
    da4b:	0f b6 95 bf e8 ff ff 	movzbl -0x1741(%rbp),%edx
    da52:	21 ca                	and    %ecx,%edx
    da54:	09 d0                	or     %edx,%eax
    da56:	be a3 10 62 88       	mov    $0x886210a3,%esi
    da5b:	89 c7                	mov    %eax,%edi
    da5d:	e8 6a bc ff ff       	callq  96cc <safe_mod_func_int32_t_s_s>
    da62:	48 98                	cltq   
    da64:	48 8b 15 ed f2 00 00 	mov    0xf2ed(%rip),%rdx        # 1cd58 <g_365>
    da6b:	8b 12                	mov    (%rdx),%edx
    da6d:	48 89 c6             	mov    %rax,%rsi
    da70:	48 bf b7 59 3f 84 3f 	movabs $0x3b6d553f843f59b7,%rdi
    da77:	55 6d 3b 
    da7a:	e8 c2 bd ff ff       	callq  9841 <safe_add_func_int64_t_s_s>
    da7f:	48 8b 15 3a f8 00 00 	mov    0xf83a(%rip),%rdx        # 1d2c0 <g_1447>
    da86:	48 8b 12             	mov    (%rdx),%rdx
    da89:	48 8b 12             	mov    (%rdx),%rdx
    da8c:	0f b6 12             	movzbl (%rdx),%edx
    da8f:	0f b6 d2             	movzbl %dl,%edx
    da92:	48 39 d0             	cmp    %rdx,%rax
    da95:	0f 9e c0             	setle  %al
    da98:	0f b6 c0             	movzbl %al,%eax
    da9b:	be 05 00 00 00       	mov    $0x5,%esi
    daa0:	89 c7                	mov    %eax,%edi
    daa2:	e8 83 ba ff ff       	callq  952a <safe_rshift_func_int16_t_s_s>
    daa7:	0f bf d0             	movswl %ax,%edx
    daaa:	48 8b 85 00 ea ff ff 	mov    -0x1600(%rbp),%rax
    dab1:	89 10                	mov    %edx,(%rax)
    dab3:	48 c7 05 6a cc 00 00 	movq   $0x2,0xcc6a(%rip)        # 1a728 <g_2366>
    daba:	02 00 00 00 
    dabe:	e9 5d 08 00 00       	jmpq   e320 <func_1+0x3b6b>
    dac3:	c7 85 28 e9 ff ff c3 	movl   $0x67a9c2c3,-0x16d8(%rbp)
    daca:	c2 a9 67 
    dacd:	48 c7 85 50 ea ff ff 	movq   $0x0,-0x15b0(%rbp)
    dad4:	00 00 00 00 
    dad8:	48 8d 05 e1 06 01 00 	lea    0x106e1(%rip),%rax        # 1e1c0 <g_3208>
    dadf:	48 89 85 58 ea ff ff 	mov    %rax,-0x15a8(%rbp)
    dae6:	66 c7 85 ca e8 ff ff 	movw   $0x4d89,-0x1736(%rbp)
    daed:	89 4d 
    daef:	c7 85 2c e9 ff ff 00 	movl   $0x0,-0x16d4(%rbp)
    daf6:	00 00 00 
    daf9:	c7 85 30 e9 ff ff ff 	movl   $0xffffffff,-0x16d0(%rbp)
    db00:	ff ff ff 
    db03:	48 c7 85 60 ea ff ff 	movq   $0x0,-0x15a0(%rbp)
    db0a:	00 00 00 00 
    db0e:	c7 85 0c e9 ff ff 00 	movl   $0x0,-0x16f4(%rbp)
    db15:	00 00 00 
    db18:	eb 1e                	jmp    db38 <func_1+0x3383>
    db1a:	8b 85 0c e9 ff ff    	mov    -0x16f4(%rbp),%eax
    db20:	48 98                	cltq   
    db22:	48 8d 15 1b cb 00 00 	lea    0xcb1b(%rip),%rdx        # 1a644 <g_2280>
    db29:	48 89 94 c5 20 ec ff 	mov    %rdx,-0x13e0(%rbp,%rax,8)
    db30:	ff 
    db31:	83 85 0c e9 ff ff 01 	addl   $0x1,-0x16f4(%rbp)
    db38:	83 bd 0c e9 ff ff 02 	cmpl   $0x2,-0x16f4(%rbp)
    db3f:	7e d9                	jle    db1a <func_1+0x3365>
    db41:	48 8b 85 90 e9 ff ff 	mov    -0x1670(%rbp),%rax
    db48:	0f be c0             	movsbl %al,%eax
    db4b:	be 03 00 00 00       	mov    $0x3,%esi
    db50:	89 c7                	mov    %eax,%edi
    db52:	e8 15 b8 ff ff       	callq  936c <safe_rshift_func_int8_t_s_u>
    db57:	44 0f be e8          	movsbl %al,%r13d
    db5b:	48 8b 05 66 f7 00 00 	mov    0xf766(%rip),%rax        # 1d2c8 <g_1446>
    db62:	48 8b 00             	mov    (%rax),%rax
    db65:	48 8b 00             	mov    (%rax),%rax
    db68:	48 8b 00             	mov    (%rax),%rax
    db6b:	8b 95 28 e9 ff ff    	mov    -0x16d8(%rbp),%edx
    db71:	88 10                	mov    %dl,(%rax)
    db73:	0f b6 9d bf e8 ff ff 	movzbl -0x1741(%rbp),%ebx
    db7a:	8b 85 34 ed ff ff    	mov    -0x12cc(%rbp),%eax
    db80:	44 0f be e0          	movsbl %al,%r12d
    db84:	8b 85 cc f4 ff ff    	mov    -0xb34(%rbp),%eax
    db8a:	98                   	cwtl   
    db8b:	89 c6                	mov    %eax,%esi
    db8d:	bf 01 00 00 00       	mov    $0x1,%edi
    db92:	e8 be b8 ff ff       	callq  9455 <safe_div_func_int16_t_s_s>
    db97:	0f b6 c0             	movzbl %al,%eax
    db9a:	89 c7                	mov    %eax,%edi
    db9c:	e8 a4 bf ff ff       	callq  9b45 <safe_unary_minus_func_uint8_t_u>
    dba1:	0f be c0             	movsbl %al,%eax
    dba4:	be 09 00 00 00       	mov    $0x9,%esi
    dba9:	89 c7                	mov    %eax,%edi
    dbab:	e8 62 b6 ff ff       	callq  9212 <safe_mul_func_int8_t_s_s>
    dbb0:	48 0f be c0          	movsbq %al,%rax
    dbb4:	be 01 00 00 00       	mov    $0x1,%esi
    dbb9:	48 89 c7             	mov    %rax,%rdi
    dbbc:	e8 bf c4 ff ff       	callq  a080 <safe_mod_func_uint64_t_u_u>
    dbc1:	0f be c0             	movsbl %al,%eax
    dbc4:	44 89 e6             	mov    %r12d,%esi
    dbc7:	89 c7                	mov    %eax,%edi
    dbc9:	e8 9c b6 ff ff       	callq  926a <safe_div_func_int8_t_s_s>
    dbce:	84 c0                	test   %al,%al
    dbd0:	0f 95 c0             	setne  %al
    dbd3:	0f b6 c0             	movzbl %al,%eax
    dbd6:	89 de                	mov    %ebx,%esi
    dbd8:	89 c7                	mov    %eax,%edi
    dbda:	e8 d7 b9 ff ff       	callq  95b6 <safe_add_func_int32_t_s_s>
    dbdf:	48 8b 15 da 05 01 00 	mov    0x105da(%rip),%rdx        # 1e1c0 <g_3208>
    dbe6:	48 8b 85 58 ea ff ff 	mov    -0x15a8(%rbp),%rax
    dbed:	48 89 10             	mov    %rdx,(%rax)
    dbf0:	48 8b 85 58 ea ff ff 	mov    -0x15a8(%rbp),%rax
    dbf7:	48 8b 00             	mov    (%rax),%rax
    dbfa:	48 39 85 38 ea ff ff 	cmp    %rax,-0x15c8(%rbp)
    dc01:	0f 95 c0             	setne  %al
    dc04:	0f b6 c0             	movzbl %al,%eax
    dc07:	41 39 c5             	cmp    %eax,%r13d
    dc0a:	0f 95 c0             	setne  %al
    dc0d:	0f b6 c0             	movzbl %al,%eax
    dc10:	be 03 00 00 00       	mov    $0x3,%esi
    dc15:	89 c7                	mov    %eax,%edi
    dc17:	e8 5e c2 ff ff       	callq  9e7a <safe_rshift_func_uint16_t_u_u>
    dc1c:	48 8b 05 9d fe 00 00 	mov    0xfe9d(%rip),%rax        # 1dac0 <g_2355>
    dc23:	48 8b 00             	mov    (%rax),%rax
    dc26:	48 8b 00             	mov    (%rax),%rax
    dc29:	48 83 f8 ff          	cmp    $0xffffffffffffffff,%rax
    dc2d:	0f 85 3e 03 00 00    	jne    df71 <func_1+0x37bc>
    dc33:	c7 85 44 e9 ff ff 96 	movl   $0x54bce496,-0x16bc(%rbp)
    dc3a:	e4 bc 54 
    dc3d:	48 8d 05 a4 0a 01 00 	lea    0x10aa4(%rip),%rax        # 1e6e8 <g_1076>
    dc44:	48 89 85 68 ea ff ff 	mov    %rax,-0x1598(%rbp)
    dc4b:	48 8b 85 30 ec ff ff 	mov    -0x13d0(%rbp),%rax
    dc52:	48 85 c0             	test   %rax,%rax
    dc55:	0f 94 c2             	sete   %dl
    dc58:	48 8b 05 c1 f0 00 00 	mov    0xf0c1(%rip),%rax        # 1cd20 <g_85>
    dc5f:	0f b6 d2             	movzbl %dl,%edx
    dc62:	89 10                	mov    %edx,(%rax)
    dc64:	48 8b 05 65 f6 00 00 	mov    0xf665(%rip),%rax        # 1d2d0 <g_1549>
    dc6b:	8b 00                	mov    (%rax),%eax
    dc6d:	85 c0                	test   %eax,%eax
    dc6f:	0f 85 92 06 00 00    	jne    e307 <func_1+0x3b52>
    dc75:	0f b7 9d ca e8 ff ff 	movzwl -0x1736(%rbp),%ebx
    dc7c:	8b 85 44 e9 ff ff    	mov    -0x16bc(%rbp),%eax
    dc82:	4c 63 e0             	movslq %eax,%r12
    dc85:	0f b6 85 bf e8 ff ff 	movzbl -0x1741(%rbp),%eax
    dc8c:	66 89 85 ae e8 ff ff 	mov    %ax,-0x1752(%rbp)
    dc93:	48 8b 85 00 ea ff ff 	mov    -0x1600(%rbp),%rax
    dc9a:	8b 00                	mov    (%rax),%eax
    dc9c:	4c 63 e8             	movslq %eax,%r13
    dc9f:	48 8b 05 b2 f2 00 00 	mov    0xf2b2(%rip),%rax        # 1cf58 <g_1198>
    dca6:	48 8b 00             	mov    (%rax),%rax
    dca9:	48 8b 00             	mov    (%rax),%rax
    dcac:	8b 00                	mov    (%rax),%eax
    dcae:	89 85 a8 e8 ff ff    	mov    %eax,-0x1758(%rbp)
    dcb4:	48 8b 05 a5 f7 00 00 	mov    0xf7a5(%rip),%rax        # 1d460 <g_1991>
    dcbb:	0f b7 00             	movzwl (%rax),%eax
    dcbe:	44 0f b7 f0          	movzwl %ax,%r14d
    dcc2:	8b 85 34 ed ff ff    	mov    -0x12cc(%rbp),%eax
    dcc8:	44 0f bf f8          	movswl %ax,%r15d
    dccc:	0f bf 8d c8 e8 ff ff 	movswl -0x1738(%rbp),%ecx
    dcd3:	89 8d a4 e8 ff ff    	mov    %ecx,-0x175c(%rbp)
    dcd9:	8b 85 24 e9 ff ff    	mov    -0x16dc(%rbp),%eax
    dcdf:	0f b7 f8             	movzwl %ax,%edi
    dce2:	89 bd a0 e8 ff ff    	mov    %edi,-0x1760(%rbp)
    dce8:	8b 85 44 e9 ff ff    	mov    -0x16bc(%rbp),%eax
    dcee:	0f be d0             	movsbl %al,%edx
    dcf1:	89 95 9c e8 ff ff    	mov    %edx,-0x1764(%rbp)
    dcf7:	48 8b 85 00 ea ff ff 	mov    -0x1600(%rbp),%rax
    dcfe:	8b 10                	mov    (%rax),%edx
    dd00:	48 8b 05 b9 f5 00 00 	mov    0xf5b9(%rip),%rax        # 1d2c0 <g_1447>
    dd07:	48 8b 00             	mov    (%rax),%rax
    dd0a:	48 8b 00             	mov    (%rax),%rax
    dd0d:	0f b6 00             	movzbl (%rax),%eax
    dd10:	0f b6 c0             	movzbl %al,%eax
    dd13:	09 d0                	or     %edx,%eax
    dd15:	89 c6                	mov    %eax,%esi
    dd17:	bf 1f 91 ff ff       	mov    $0xffff911f,%edi
    dd1c:	e8 71 b7 ff ff       	callq  9492 <safe_lshift_func_int16_t_s_s>
    dd21:	48 8b 85 98 e9 ff ff 	mov    -0x1668(%rbp),%rax
    dd28:	8b 00                	mov    (%rax),%eax
    dd2a:	0f be c0             	movsbl %al,%eax
    dd2d:	8b b5 9c e8 ff ff    	mov    -0x1764(%rbp),%esi
    dd33:	89 c7                	mov    %eax,%edi
    dd35:	e8 9a b4 ff ff       	callq  91d4 <safe_add_func_int8_t_s_s>
    dd3a:	0f b7 8d ca e8 ff ff 	movzwl -0x1736(%rbp),%ecx
    dd41:	48 8b 85 40 ea ff ff 	mov    -0x15c0(%rbp),%rax
    dd48:	48 8b 10             	mov    (%rax),%rdx
    dd4b:	0f b7 c1             	movzwl %cx,%eax
    dd4e:	48 31 c2             	xor    %rax,%rdx
    dd51:	48 8b 85 40 ea ff ff 	mov    -0x15c0(%rbp),%rax
    dd58:	48 89 10             	mov    %rdx,(%rax)
    dd5b:	48 8b 05 d6 f6 00 00 	mov    0xf6d6(%rip),%rax        # 1d438 <g_1823>
    dd62:	48 8b 00             	mov    (%rax),%rax
    dd65:	0f b7 00             	movzwl (%rax),%eax
    dd68:	0f bf d0             	movswl %ax,%edx
    dd6b:	0f b7 85 ca e8 ff ff 	movzwl -0x1736(%rbp),%eax
    dd72:	39 c2                	cmp    %eax,%edx
    dd74:	0f 9f c0             	setg   %al
    dd77:	0f b6 c0             	movzbl %al,%eax
    dd7a:	8b b5 a0 e8 ff ff    	mov    -0x1760(%rbp),%esi
    dd80:	89 c7                	mov    %eax,%edi
    dd82:	e8 b6 bf ff ff       	callq  9d3d <safe_mul_func_uint16_t_u_u>
    dd87:	0f b7 c0             	movzwl %ax,%eax
    dd8a:	8b b5 a4 e8 ff ff    	mov    -0x175c(%rbp),%esi
    dd90:	89 c7                	mov    %eax,%edi
    dd92:	e8 8e c1 ff ff       	callq  9f25 <safe_div_func_uint32_t_u_u>
    dd97:	0f b6 95 bb e8 ff ff 	movzbl -0x1745(%rbp),%edx
    dd9e:	0f be d2             	movsbl %dl,%edx
    dda1:	39 d0                	cmp    %edx,%eax
    dda3:	0f 97 c0             	seta   %al
    dda6:	0f b6 c0             	movzbl %al,%eax
    dda9:	44 89 fe             	mov    %r15d,%esi
    ddac:	89 c7                	mov    %eax,%edi
    ddae:	e8 a2 b6 ff ff       	callq  9455 <safe_div_func_int16_t_s_s>
    ddb3:	48 8b 05 c6 ef 00 00 	mov    0xefc6(%rip),%rax        # 1cd80 <g_417>
    ddba:	48 8b 00             	mov    (%rax),%rax
    ddbd:	48 8d 15 64 c3 00 00 	lea    0xc364(%rip),%rdx        # 1a128 <g_86>
    ddc4:	48 39 d0             	cmp    %rdx,%rax
    ddc7:	0f 95 c0             	setne  %al
    ddca:	0f b6 c0             	movzbl %al,%eax
    ddcd:	44 89 f6             	mov    %r14d,%esi
    ddd0:	89 c7                	mov    %eax,%edi
    ddd2:	e8 0a b7 ff ff       	callq  94e1 <safe_lshift_func_int16_t_s_u>
    ddd7:	98                   	cwtl   
    ddd8:	8b b5 a8 e8 ff ff    	mov    -0x1758(%rbp),%esi
    ddde:	89 c7                	mov    %eax,%edi
    dde0:	e8 1a b9 ff ff       	callq  96ff <safe_div_func_int32_t_s_s>
    dde5:	48 63 d0             	movslq %eax,%rdx
    dde8:	48 8b 85 68 ea ff ff 	mov    -0x1598(%rbp),%rax
    ddef:	48 89 10             	mov    %rdx,(%rax)
    ddf2:	48 8b 85 68 ea ff ff 	mov    -0x1598(%rbp),%rax
    ddf9:	48 8b 00             	mov    (%rax),%rax
    ddfc:	4c 89 ee             	mov    %r13,%rsi
    ddff:	48 89 c7             	mov    %rax,%rdi
    de02:	e8 a1 ba ff ff       	callq  98a8 <safe_sub_func_int64_t_s_s>
    de07:	48 8b 05 2a f6 00 00 	mov    0xf62a(%rip),%rax        # 1d438 <g_1823>
    de0e:	48 8b 00             	mov    (%rax),%rax
    de11:	0f b7 00             	movzwl (%rax),%eax
    de14:	0f bf d0             	movswl %ax,%edx
    de17:	48 8b 05 42 f6 00 00 	mov    0xf642(%rip),%rax        # 1d460 <g_1991>
    de1e:	0f b7 00             	movzwl (%rax),%eax
    de21:	0f b7 c0             	movzwl %ax,%eax
    de24:	89 d6                	mov    %edx,%esi
    de26:	89 c7                	mov    %eax,%edi
    de28:	e8 91 bf ff ff       	callq  9dbe <safe_lshift_func_uint16_t_u_s>
    de2d:	48 83 bd e8 e9 ff ff 	cmpq   $0x0,-0x1618(%rbp)
    de34:	00 
    de35:	0f 9f c0             	setg   %al
    de38:	0f b6 c0             	movzbl %al,%eax
    de3b:	be 08 00 00 00       	mov    $0x8,%esi
    de40:	89 c7                	mov    %eax,%edi
    de42:	e8 e3 b6 ff ff       	callq  952a <safe_rshift_func_int16_t_s_s>
    de47:	66 85 c0             	test   %ax,%ax
    de4a:	74 10                	je     de5c <func_1+0x36a7>
    de4c:	83 bd 28 e9 ff ff 00 	cmpl   $0x0,-0x16d8(%rbp)
    de53:	74 07                	je     de5c <func_1+0x36a7>
    de55:	ba 01 00 00 00       	mov    $0x1,%edx
    de5a:	eb 05                	jmp    de61 <func_1+0x36ac>
    de5c:	ba 00 00 00 00       	mov    $0x0,%edx
    de61:	48 8b 05 28 ef 00 00 	mov    0xef28(%rip),%rax        # 1cd90 <g_421>
    de68:	48 8b 00             	mov    (%rax),%rax
    de6b:	0f b6 00             	movzbl (%rax),%eax
    de6e:	0f be c0             	movsbl %al,%eax
    de71:	39 c2                	cmp    %eax,%edx
    de73:	0f 9f c0             	setg   %al
    de76:	0f b6 c0             	movzbl %al,%eax
    de79:	be dc db 00 00       	mov    $0xdbdc,%esi
    de7e:	89 c7                	mov    %eax,%edi
    de80:	e8 b8 be ff ff       	callq  9d3d <safe_mul_func_uint16_t_u_u>
    de85:	66 39 85 ae e8 ff ff 	cmp    %ax,-0x1752(%rbp)
    de8c:	0f 96 c0             	setbe  %al
    de8f:	0f b6 c0             	movzbl %al,%eax
    de92:	4c 89 e6             	mov    %r12,%rsi
    de95:	48 89 c7             	mov    %rax,%rdi
    de98:	e8 17 bb ff ff       	callq  99b4 <safe_mod_func_int64_t_s_s>
    de9d:	0f b6 95 bf e8 ff ff 	movzbl -0x1741(%rbp),%edx
    dea4:	48 39 d0             	cmp    %rdx,%rax
    dea7:	0f 9f c0             	setg   %al
    deaa:	0f b6 c0             	movzbl %al,%eax
    dead:	89 c6                	mov    %eax,%esi
    deaf:	bf 01 00 00 00       	mov    $0x1,%edi
    deb4:	e8 bf bc ff ff       	callq  9b78 <safe_sub_func_uint8_t_u_u>
    deb9:	0f b6 c0             	movzbl %al,%eax
    debc:	48 89 de             	mov    %rbx,%rsi
    debf:	48 89 c7             	mov    %rax,%rdi
    dec2:	e8 ed ba ff ff       	callq  99b4 <safe_mod_func_int64_t_s_s>
    dec7:	48 83 f8 01          	cmp    $0x1,%rax
    decb:	75 0d                	jne    deda <func_1+0x3725>
    decd:	48 8b 85 98 e9 ff ff 	mov    -0x1668(%rbp),%rax
    ded4:	8b 00                	mov    (%rax),%eax
    ded6:	85 c0                	test   %eax,%eax
    ded8:	74 07                	je     dee1 <func_1+0x372c>
    deda:	b8 01 00 00 00       	mov    $0x1,%eax
    dedf:	eb 05                	jmp    dee6 <func_1+0x3731>
    dee1:	b8 00 00 00 00       	mov    $0x0,%eax
    dee6:	83 f8 fb             	cmp    $0xfffffffb,%eax
    dee9:	0f 9d c0             	setge  %al
    deec:	0f b6 c0             	movzbl %al,%eax
    deef:	89 c7                	mov    %eax,%edi
    def1:	e8 f3 bd ff ff       	callq  9ce9 <safe_unary_minus_func_uint16_t_u>
    def6:	48 8b 05 43 f5 00 00 	mov    0xf543(%rip),%rax        # 1d440 <g_1822>
    defd:	48 8b 00             	mov    (%rax),%rax
    df00:	48 8b 00             	mov    (%rax),%rax
    df03:	0f b7 00             	movzwl (%rax),%eax
    df06:	66 3d 8a 10          	cmp    $0x108a,%ax
    df0a:	0f 9f c0             	setg   %al
    df0d:	0f b6 d0             	movzbl %al,%edx
    df10:	48 8b 05 49 f5 00 00 	mov    0xf549(%rip),%rax        # 1d460 <g_1991>
    df17:	0f b7 00             	movzwl (%rax),%eax
    df1a:	0f b7 c0             	movzwl %ax,%eax
    df1d:	39 c2                	cmp    %eax,%edx
    df1f:	0f 9c c0             	setl   %al
    df22:	0f b6 c0             	movzbl %al,%eax
    df25:	be 0b 00 00 00       	mov    $0xb,%esi
    df2a:	89 c7                	mov    %eax,%edi
    df2c:	e8 f9 b5 ff ff       	callq  952a <safe_rshift_func_int16_t_s_s>
    df31:	98                   	cwtl   
    df32:	be d6 06 47 e3       	mov    $0xe34706d6,%esi
    df37:	89 c7                	mov    %eax,%edi
    df39:	e8 bf bf ff ff       	callq  9efd <safe_mod_func_uint32_t_u_u>
    df3e:	48 8b 15 4b ee 00 00 	mov    0xee4b(%rip),%rdx        # 1cd90 <g_421>
    df45:	48 8b 12             	mov    (%rdx),%rdx
    df48:	0f b6 12             	movzbl (%rdx),%edx
    df4b:	0f be d2             	movsbl %dl,%edx
    df4e:	31 c2                	xor    %eax,%edx
    df50:	48 8b 85 98 e9 ff ff 	mov    -0x1668(%rbp),%rax
    df57:	8b 00                	mov    (%rax),%eax
    df59:	31 d0                	xor    %edx,%eax
    df5b:	3d b8 00 00 00       	cmp    $0xb8,%eax
    df60:	0f 94 c2             	sete   %dl
    df63:	48 8b 85 98 e9 ff ff 	mov    -0x1668(%rbp),%rax
    df6a:	0f b6 d2             	movzbl %dl,%edx
    df6d:	89 10                	mov    %edx,(%rax)
    df6f:	eb 5a                	jmp    dfcb <func_1+0x3816>
    df71:	c7 85 34 e9 ff ff f1 	movl   $0xde79f6f1,-0x16cc(%rbp)
    df78:	f6 79 de 
    df7b:	c7 85 38 e9 ff ff 29 	movl   $0x7192d829,-0x16c8(%rbp)
    df82:	d8 92 71 
    df85:	c7 85 3c e9 ff ff 05 	movl   $0x5,-0x16c4(%rbp)
    df8c:	00 00 00 
    df8f:	c7 85 40 e9 ff ff b3 	movl   $0x721d6cb3,-0x16c0(%rbp)
    df96:	6c 1d 72 
    df99:	0f b6 85 b0 ec ff ff 	movzbl -0x1350(%rbp),%eax
    dfa0:	83 e8 01             	sub    $0x1,%eax
    dfa3:	88 85 b0 ec ff ff    	mov    %al,-0x1350(%rbp)
    dfa9:	48 8b 05 08 f1 00 00 	mov    0xf108(%rip),%rax        # 1d0b8 <g_1284>
    dfb0:	48 8b 00             	mov    (%rax),%rax
    dfb3:	8b 00                	mov    (%rax),%eax
    dfb5:	85 c0                	test   %eax,%eax
    dfb7:	0f 85 76 03 00 00    	jne    e333 <func_1+0x3b7e>
    dfbd:	8b 85 34 ed ff ff    	mov    -0x12cc(%rbp),%eax
    dfc3:	85 c0                	test   %eax,%eax
    dfc5:	0f 85 3f 03 00 00    	jne    e30a <func_1+0x3b55>
    dfcb:	48 8b 85 28 ea ff ff 	mov    -0x15d8(%rbp),%rax
    dfd2:	48 89 85 60 ea ff ff 	mov    %rax,-0x15a0(%rbp)
    dfd9:	0f b6 05 00 cb 00 00 	movzbl 0xcb00(%rip),%eax        # 1aae0 <g_2675>
    dfe0:	be 00 00 00 00       	mov    $0x0,%esi
    dfe5:	bf 01 00 00 00       	mov    $0x1,%edi
    dfea:	e8 c4 b3 ff ff       	callq  93b3 <safe_add_func_int16_t_s_s>
    dfef:	66 85 c0             	test   %ax,%ax
    dff2:	0f 84 87 01 00 00    	je     e17f <func_1+0x39ca>
    dff8:	66 c7 85 20 f9 ff ff 	movw   $0xfffe,-0x6e0(%rbp)
    dfff:	fe ff 
    e001:	66 c7 85 22 f9 ff ff 	movw   $0x1,-0x6de(%rbp)
    e008:	01 00 
    e00a:	66 c7 85 24 f9 ff ff 	movw   $0xfffe,-0x6dc(%rbp)
    e011:	fe ff 
    e013:	66 c7 85 26 f9 ff ff 	movw   $0xffff,-0x6da(%rbp)
    e01a:	ff ff 
    e01c:	66 c7 85 28 f9 ff ff 	movw   $0xaf00,-0x6d8(%rbp)
    e023:	00 af 
    e025:	66 c7 85 2a f9 ff ff 	movw   $0xe379,-0x6d6(%rbp)
    e02c:	79 e3 
    e02e:	66 c7 85 2c f9 ff ff 	movw   $0xffff,-0x6d4(%rbp)
    e035:	ff ff 
    e037:	66 c7 85 2e f9 ff ff 	movw   $0xffff,-0x6d2(%rbp)
    e03e:	ff ff 
    e040:	66 c7 85 30 f9 ff ff 	movw   $0xaf00,-0x6d0(%rbp)
    e047:	00 af 
    e049:	66 c7 85 32 f9 ff ff 	movw   $0xfffe,-0x6ce(%rbp)
    e050:	fe ff 
    e052:	66 c7 85 34 f9 ff ff 	movw   $0xaf00,-0x6cc(%rbp)
    e059:	00 af 
    e05b:	66 c7 85 36 f9 ff ff 	movw   $0xaf00,-0x6ca(%rbp)
    e062:	00 af 
    e064:	66 c7 85 38 f9 ff ff 	movw   $0xaf00,-0x6c8(%rbp)
    e06b:	00 af 
    e06d:	66 c7 85 3a f9 ff ff 	movw   $0x1,-0x6c6(%rbp)
    e074:	01 00 
    e076:	66 c7 85 3c f9 ff ff 	movw   $0xe379,-0x6c4(%rbp)
    e07d:	79 e3 
    e07f:	66 c7 85 3e f9 ff ff 	movw   $0xfffe,-0x6c2(%rbp)
    e086:	fe ff 
    e088:	66 c7 85 40 f9 ff ff 	movw   $0x1,-0x6c0(%rbp)
    e08f:	01 00 
    e091:	66 c7 85 42 f9 ff ff 	movw   $0xfffe,-0x6be(%rbp)
    e098:	fe ff 
    e09a:	66 c7 85 44 f9 ff ff 	movw   $0xffff,-0x6bc(%rbp)
    e0a1:	ff ff 
    e0a3:	66 c7 85 46 f9 ff ff 	movw   $0xaf00,-0x6ba(%rbp)
    e0aa:	00 af 
    e0ac:	66 c7 85 48 f9 ff ff 	movw   $0xe379,-0x6b8(%rbp)
    e0b3:	79 e3 
    e0b5:	66 c7 85 4a f9 ff ff 	movw   $0xffff,-0x6b6(%rbp)
    e0bc:	ff ff 
    e0be:	66 c7 85 4c f9 ff ff 	movw   $0xffff,-0x6b4(%rbp)
    e0c5:	ff ff 
    e0c7:	66 c7 85 4e f9 ff ff 	movw   $0xaf00,-0x6b2(%rbp)
    e0ce:	00 af 
    e0d0:	66 c7 85 50 f9 ff ff 	movw   $0xfffe,-0x6b0(%rbp)
    e0d7:	fe ff 
    e0d9:	66 c7 85 52 f9 ff ff 	movw   $0xaf00,-0x6ae(%rbp)
    e0e0:	00 af 
    e0e2:	66 c7 85 54 f9 ff ff 	movw   $0xaf00,-0x6ac(%rbp)
    e0e9:	00 af 
    e0eb:	66 c7 85 56 f9 ff ff 	movw   $0xaf00,-0x6aa(%rbp)
    e0f2:	00 af 
    e0f4:	66 c7 85 58 f9 ff ff 	movw   $0x1,-0x6a8(%rbp)
    e0fb:	01 00 
    e0fd:	66 c7 85 5a f9 ff ff 	movw   $0xe379,-0x6a6(%rbp)
    e104:	79 e3 
    e106:	66 c7 85 5c f9 ff ff 	movw   $0xfffe,-0x6a4(%rbp)
    e10d:	fe ff 
    e10f:	66 c7 85 5e f9 ff ff 	movw   $0x1,-0x6a2(%rbp)
    e116:	01 00 
    e118:	66 c7 85 60 f9 ff ff 	movw   $0xfffe,-0x6a0(%rbp)
    e11f:	fe ff 
    e121:	66 c7 85 62 f9 ff ff 	movw   $0xffff,-0x69e(%rbp)
    e128:	ff ff 
    e12a:	66 c7 85 64 f9 ff ff 	movw   $0xaf00,-0x69c(%rbp)
    e131:	00 af 
    e133:	66 c7 85 66 f9 ff ff 	movw   $0xe379,-0x69a(%rbp)
    e13a:	79 e3 
    e13c:	c7 85 10 e9 ff ff 00 	movl   $0x0,-0x16f0(%rbp)
    e143:	00 00 00 
    e146:	eb 1a                	jmp    e162 <func_1+0x39ad>
    e148:	8b 85 10 e9 ff ff    	mov    -0x16f0(%rbp),%eax
    e14e:	48 98                	cltq   
    e150:	c7 84 85 bc eb ff ff 	movl   $0x1,-0x1444(%rbp,%rax,4)
    e157:	01 00 00 00 
    e15b:	83 85 10 e9 ff ff 01 	addl   $0x1,-0x16f0(%rbp)
    e162:	83 bd 10 e9 ff ff 01 	cmpl   $0x1,-0x16f0(%rbp)
    e169:	7e dd                	jle    e148 <func_1+0x3993>
    e16b:	8b 05 13 ca 00 00    	mov    0xca13(%rip),%eax        # 1ab84 <g_3271>
    e171:	83 e8 01             	sub    $0x1,%eax
    e174:	89 05 0a ca 00 00    	mov    %eax,0xca0a(%rip)        # 1ab84 <g_3271>
    e17a:	e9 72 01 00 00       	jmpq   e2f1 <func_1+0x3b3c>
    e17f:	c7 85 48 e9 ff ff 49 	movl   $0xa91a7549,-0x16b8(%rbp)
    e186:	75 1a a9 
    e189:	be 67 00 00 00       	mov    $0x67,%esi
    e18e:	bf 01 00 00 00       	mov    $0x1,%edi
    e193:	e8 c2 b9 ff ff       	callq  9b5a <safe_add_func_uint8_t_u_u>
    e198:	89 c2                	mov    %eax,%edx
    e19a:	48 8b 85 98 e9 ff ff 	mov    -0x1668(%rbp),%rax
    e1a1:	0f b6 d2             	movzbl %dl,%edx
    e1a4:	89 10                	mov    %edx,(%rax)
    e1a6:	83 bd 48 e9 ff ff 00 	cmpl   $0x0,-0x16b8(%rbp)
    e1ad:	0f 85 5a 01 00 00    	jne    e30d <func_1+0x3b58>
    e1b3:	48 83 bd 48 ea ff ff 	cmpq   $0x0,-0x15b8(%rbp)
    e1ba:	00 
    e1bb:	0f 85 75 01 00 00    	jne    e336 <func_1+0x3b81>
    e1c1:	8b 9d cc eb ff ff    	mov    -0x1434(%rbp),%ebx
    e1c7:	48 8b 05 ba eb 00 00 	mov    0xebba(%rip),%rax        # 1cd88 <g_422>
    e1ce:	0f b6 00             	movzbl (%rax),%eax
    e1d1:	44 0f be e0          	movsbl %al,%r12d
    e1d5:	48 8b 05 84 f2 00 00 	mov    0xf284(%rip),%rax        # 1d460 <g_1991>
    e1dc:	0f b7 00             	movzwl (%rax),%eax
    e1df:	0f b7 c0             	movzwl %ax,%eax
    e1e2:	89 c6                	mov    %eax,%esi
    e1e4:	bf 53 ce 00 00       	mov    $0xce53,%edi
    e1e9:	e8 11 bb ff ff       	callq  9cff <safe_add_func_uint16_t_u_u>
    e1ee:	66 85 c0             	test   %ax,%ax
    e1f1:	0f 94 c0             	sete   %al
    e1f4:	89 c2                	mov    %eax,%edx
    e1f6:	8b 85 48 e9 ff ff    	mov    -0x16b8(%rbp),%eax
    e1fc:	09 d0                	or     %edx,%eax
    e1fe:	0f be c0             	movsbl %al,%eax
    e201:	be fd ff ff ff       	mov    $0xfffffffd,%esi
    e206:	89 c7                	mov    %eax,%edi
    e208:	e8 05 b0 ff ff       	callq  9212 <safe_mul_func_int8_t_s_s>
    e20d:	0f b6 c0             	movzbl %al,%eax
    e210:	44 89 e6             	mov    %r12d,%esi
    e213:	89 c7                	mov    %eax,%edi
    e215:	e8 eb b9 ff ff       	callq  9c05 <safe_lshift_func_uint8_t_u_s>
    e21a:	0f b6 d0             	movzbl %al,%edx
    e21d:	48 8b 05 14 f2 00 00 	mov    0xf214(%rip),%rax        # 1d438 <g_1823>
    e224:	48 8b 00             	mov    (%rax),%rax
    e227:	0f b7 00             	movzwl (%rax),%eax
    e22a:	66 85 c0             	test   %ax,%ax
    e22d:	0f 95 c0             	setne  %al
    e230:	0f b6 c0             	movzbl %al,%eax
    e233:	89 d6                	mov    %edx,%esi
    e235:	89 c7                	mov    %eax,%edi
    e237:	e8 01 bb ff ff       	callq  9d3d <safe_mul_func_uint16_t_u_u>
    e23c:	98                   	cwtl   
    e23d:	be fc 5d 00 00       	mov    $0x5dfc,%esi
    e242:	89 c7                	mov    %eax,%edi
    e244:	e8 cd b1 ff ff       	callq  9416 <safe_mod_func_int16_t_s_s>
    e249:	0f be c0             	movsbl %al,%eax
    e24c:	be 02 00 00 00       	mov    $0x2,%esi
    e251:	89 c7                	mov    %eax,%edi
    e253:	e8 dd b0 ff ff       	callq  9335 <safe_rshift_func_int8_t_s_s>
    e258:	0f be c0             	movsbl %al,%eax
    e25b:	83 e0 03             	and    $0x3,%eax
    e25e:	89 de                	mov    %ebx,%esi
    e260:	89 c7                	mov    %eax,%edi
    e262:	e8 4f b3 ff ff       	callq  95b6 <safe_add_func_int32_t_s_s>
    e267:	48 98                	cltq   
    e269:	48 89 c7             	mov    %rax,%rdi
    e26c:	e8 a5 b5 ff ff       	callq  9816 <safe_unary_minus_func_int64_t_s>
    e271:	89 c3                	mov    %eax,%ebx
    e273:	48 8b 05 a6 ef 00 00 	mov    0xefa6(%rip),%rax        # 1d220 <g_1414>
    e27a:	0f b7 00             	movzwl (%rax),%eax
    e27d:	98                   	cwtl   
    e27e:	be e1 6a 00 00       	mov    $0x6ae1,%esi
    e283:	89 c7                	mov    %eax,%edi
    e285:	e8 8c b1 ff ff       	callq  9416 <safe_mod_func_int16_t_s_s>
    e28a:	0f bf d0             	movswl %ax,%edx
    e28d:	48 8b 05 b4 ea 00 00 	mov    0xeab4(%rip),%rax        # 1cd48 <g_221>
    e294:	48 8b 00             	mov    (%rax),%rax
    e297:	c7 00 84 15 9e 39    	movl   $0x399e1584,(%rax)
    e29d:	8b 00                	mov    (%rax),%eax
    e29f:	39 c2                	cmp    %eax,%edx
    e2a1:	0f 9e c0             	setle  %al
    e2a4:	0f b6 c0             	movzbl %al,%eax
    e2a7:	89 de                	mov    %ebx,%esi
    e2a9:	89 c7                	mov    %eax,%edi
    e2ab:	e8 1c b4 ff ff       	callq  96cc <safe_mod_func_int32_t_s_s>
    e2b0:	89 c2                	mov    %eax,%edx
    e2b2:	0f b7 85 ca e8 ff ff 	movzwl -0x1736(%rbp),%eax
    e2b9:	89 d6                	mov    %edx,%esi
    e2bb:	89 c7                	mov    %eax,%edi
    e2bd:	e8 43 b3 ff ff       	callq  9605 <safe_sub_func_int32_t_s_s>
    e2c2:	39 85 48 e9 ff ff    	cmp    %eax,-0x16b8(%rbp)
    e2c8:	0f 9f c0             	setg   %al
    e2cb:	0f b6 c0             	movzbl %al,%eax
    e2ce:	48 c7 c6 ff ff ff ff 	mov    $0xffffffffffffffff,%rsi
    e2d5:	48 89 c7             	mov    %rax,%rdi
    e2d8:	e8 6e bd ff ff       	callq  a04b <safe_sub_func_uint64_t_u_u>
    e2dd:	48 8b 95 98 e9 ff ff 	mov    -0x1668(%rbp),%rdx
    e2e4:	8b 12                	mov    (%rdx),%edx
    e2e6:	21 c2                	and    %eax,%edx
    e2e8:	48 8b 85 98 e9 ff ff 	mov    -0x1668(%rbp),%rax
    e2ef:	89 10                	mov    %edx,(%rax)
    e2f1:	48 8b 15 50 ea 00 00 	mov    0xea50(%rip),%rdx        # 1cd48 <g_221>
    e2f8:	48 8b 05 c9 fe 00 00 	mov    0xfec9(%rip),%rax        # 1e1c8 <g_3302>
    e2ff:	48 8b 12             	mov    (%rdx),%rdx
    e302:	48 89 10             	mov    %rdx,(%rax)
    e305:	eb 07                	jmp    e30e <func_1+0x3b59>
    e307:	90                   	nop
    e308:	eb 04                	jmp    e30e <func_1+0x3b59>
    e30a:	90                   	nop
    e30b:	eb 01                	jmp    e30e <func_1+0x3b59>
    e30d:	90                   	nop
    e30e:	48 8b 05 13 c4 00 00 	mov    0xc413(%rip),%rax        # 1a728 <g_2366>
    e315:	48 83 c0 01          	add    $0x1,%rax
    e319:	48 89 05 08 c4 00 00 	mov    %rax,0xc408(%rip)        # 1a728 <g_2366>
    e320:	48 8b 05 01 c4 00 00 	mov    0xc401(%rip),%rax        # 1a728 <g_2366>
    e327:	48 83 f8 06          	cmp    $0x6,%rax
    e32b:	0f 86 92 f7 ff ff    	jbe    dac3 <func_1+0x330e>
    e331:	eb 04                	jmp    e337 <func_1+0x3b82>
    e333:	90                   	nop
    e334:	eb 01                	jmp    e337 <func_1+0x3b82>
    e336:	90                   	nop
    e337:	c7 05 37 be 00 00 e7 	movl   $0xffffffe7,0xbe37(%rip)        # 1a178 <g_139>
    e33e:	ff ff ff 
    e341:	e9 94 01 00 00       	jmpq   e4da <func_1+0x3d25>
    e346:	c7 85 4c e9 ff ff 01 	movl   $0x1,-0x16b4(%rbp)
    e34d:	00 00 00 
    e350:	c7 05 ce bd 00 00 00 	movl   $0x0,0xbdce(%rip)        # 1a128 <g_86>
    e357:	00 00 00 
    e35a:	eb 66                	jmp    e3c2 <func_1+0x3c0d>
    e35c:	c7 85 20 f9 ff ff 08 	movl   $0x8,-0x6e0(%rbp)
    e363:	00 00 00 
    e366:	c7 85 24 f9 ff ff 08 	movl   $0x8,-0x6dc(%rbp)
    e36d:	00 00 00 
    e370:	c7 85 28 f9 ff ff 08 	movl   $0x8,-0x6d8(%rbp)
    e377:	00 00 00 
    e37a:	c7 85 2c f9 ff ff 08 	movl   $0x8,-0x6d4(%rbp)
    e381:	00 00 00 
    e384:	c7 85 30 f9 ff ff 08 	movl   $0x8,-0x6d0(%rbp)
    e38b:	00 00 00 
    e38e:	c7 85 34 f9 ff ff 08 	movl   $0x8,-0x6cc(%rbp)
    e395:	00 00 00 
    e398:	8b 85 20 f9 ff ff    	mov    -0x6e0(%rbp),%eax
    e39e:	83 e8 01             	sub    $0x1,%eax
    e3a1:	89 85 20 f9 ff ff    	mov    %eax,-0x6e0(%rbp)
    e3a7:	8b 05 7b bd 00 00    	mov    0xbd7b(%rip),%eax        # 1a128 <g_86>
    e3ad:	48 98                	cltq   
    e3af:	be 01 00 00 00       	mov    $0x1,%esi
    e3b4:	48 89 c7             	mov    %rax,%rdi
    e3b7:	e8 85 b4 ff ff       	callq  9841 <safe_add_func_int64_t_s_s>
    e3bc:	89 05 66 bd 00 00    	mov    %eax,0xbd66(%rip)        # 1a128 <g_86>
    e3c2:	8b 05 60 bd 00 00    	mov    0xbd60(%rip),%eax        # 1a128 <g_86>
    e3c8:	83 f8 06             	cmp    $0x6,%eax
    e3cb:	7e 8f                	jle    e35c <func_1+0x3ba7>
    e3cd:	8b 85 50 ec ff ff    	mov    -0x13b0(%rbp),%eax
    e3d3:	41 89 c6             	mov    %eax,%r14d
    e3d6:	83 bd 4c e9 ff ff 00 	cmpl   $0x0,-0x16b4(%rbp)
    e3dd:	74 08                	je     e3e7 <func_1+0x3c32>
    e3df:	8b 85 44 ec ff ff    	mov    -0x13bc(%rbp),%eax
    e3e5:	85 c0                	test   %eax,%eax
    e3e7:	48 8b 05 ea f6 00 00 	mov    0xf6ea(%rip),%rax        # 1dad8 <g_2376>
    e3ee:	48 8b 00             	mov    (%rax),%rax
    e3f1:	8b 00                	mov    (%rax),%eax
    e3f3:	89 c2                	mov    %eax,%edx
    e3f5:	48 8b 05 5c eb 00 00 	mov    0xeb5c(%rip),%rax        # 1cf58 <g_1198>
    e3fc:	48 8b 00             	mov    (%rax),%rax
    e3ff:	48 8b 00             	mov    (%rax),%rax
    e402:	8b 00                	mov    (%rax),%eax
    e404:	39 c2                	cmp    %eax,%edx
    e406:	0f 96 c0             	setbe  %al
    e409:	f7 d0                	not    %eax
    e40b:	0f be d8             	movsbl %al,%ebx
    e40e:	48 8b 85 90 e9 ff ff 	mov    -0x1670(%rbp),%rax
    e415:	44 0f b7 e0          	movzwl %ax,%r12d
    e419:	48 8b 05 d0 bf 00 00 	mov    0xbfd0(%rip),%rax        # 1a3f0 <g_1080>
    e420:	41 89 c7             	mov    %eax,%r15d
    e423:	8b 85 34 ed ff ff    	mov    -0x12cc(%rbp),%eax
    e429:	44 0f b7 e8          	movzwl %ax,%r13d
    e42d:	48 8b 85 00 ea ff ff 	mov    -0x1600(%rbp),%rax
    e434:	8b 00                	mov    (%rax),%eax
    e436:	0f b7 c0             	movzwl %ax,%eax
    e439:	be 16 b4 00 00       	mov    $0xb416,%esi
    e43e:	89 c7                	mov    %eax,%edi
    e440:	e8 f8 b8 ff ff       	callq  9d3d <safe_mul_func_uint16_t_u_u>
    e445:	0f b7 c0             	movzwl %ax,%eax
    e448:	44 89 ee             	mov    %r13d,%esi
    e44b:	89 c7                	mov    %eax,%edi
    e44d:	e8 eb b8 ff ff       	callq  9d3d <safe_mul_func_uint16_t_u_u>
    e452:	44 09 f8             	or     %r15d,%eax
    e455:	0f b7 c0             	movzwl %ax,%eax
    e458:	44 89 e6             	mov    %r12d,%esi
    e45b:	89 c7                	mov    %eax,%edi
    e45d:	e8 9d b8 ff ff       	callq  9cff <safe_add_func_uint16_t_u_u>
    e462:	0f b7 c0             	movzwl %ax,%eax
    e465:	be 00 00 00 00       	mov    $0x0,%esi
    e46a:	89 c7                	mov    %eax,%edi
    e46c:	e8 d7 b9 ff ff       	callq  9e48 <safe_rshift_func_uint16_t_u_s>
    e471:	0f be c0             	movsbl %al,%eax
    e474:	89 de                	mov    %ebx,%esi
    e476:	89 c7                	mov    %eax,%edi
    e478:	e8 95 ad ff ff       	callq  9212 <safe_mul_func_int8_t_s_s>
    e47d:	0f be c0             	movsbl %al,%eax
    e480:	23 85 4c e9 ff ff    	and    -0x16b4(%rbp),%eax
    e486:	44 89 f6             	mov    %r14d,%esi
    e489:	89 c7                	mov    %eax,%edi
    e48b:	e8 6d ba ff ff       	callq  9efd <safe_mod_func_uint32_t_u_u>
    e490:	8b 95 c8 eb ff ff    	mov    -0x1438(%rbp),%edx
    e496:	31 d0                	xor    %edx,%eax
    e498:	89 85 c8 eb ff ff    	mov    %eax,-0x1438(%rbp)
    e49e:	48 8d 85 00 f2 ff ff 	lea    -0xe00(%rbp),%rax
    e4a5:	48 05 e4 00 00 00    	add    $0xe4,%rax
    e4ab:	48 89 85 e0 eb ff ff 	mov    %rax,-0x1420(%rbp)
    e4b2:	48 8b 05 4f ee 00 00 	mov    0xee4f(%rip),%rax        # 1d308 <g_1649>
    e4b9:	48 8b 00             	mov    (%rax),%rax
    e4bc:	8b 00                	mov    (%rax),%eax
    e4be:	85 c0                	test   %eax,%eax
    e4c0:	75 29                	jne    e4eb <func_1+0x3d36>
    e4c2:	8b 05 b0 bc 00 00    	mov    0xbcb0(%rip),%eax        # 1a178 <g_139>
    e4c8:	be 09 00 00 00       	mov    $0x9,%esi
    e4cd:	89 c7                	mov    %eax,%edi
    e4cf:	e8 e4 b9 ff ff       	callq  9eb8 <safe_add_func_uint32_t_u_u>
    e4d4:	89 05 9e bc 00 00    	mov    %eax,0xbc9e(%rip)        # 1a178 <g_139>
    e4da:	8b 05 98 bc 00 00    	mov    0xbc98(%rip),%eax        # 1a178 <g_139>
    e4e0:	83 f8 03             	cmp    $0x3,%eax
    e4e3:	0f 87 5d fe ff ff    	ja     e346 <func_1+0x3b91>
    e4e9:	eb 01                	jmp    e4ec <func_1+0x3d37>
    e4eb:	90                   	nop
    e4ec:	0f b7 85 c6 e8 ff ff 	movzwl -0x173a(%rbp),%eax
    e4f3:	83 c0 01             	add    $0x1,%eax
    e4f6:	66 89 85 c6 e8 ff ff 	mov    %ax,-0x173a(%rbp)
    e4fd:	66 83 bd c6 e8 ff ff 	cmpw   $0x33,-0x173a(%rbp)
    e504:	33 
    e505:	0f 87 ea f3 ff ff    	ja     d8f5 <func_1+0x3140>
    e50b:	0f b7 05 fe 01 01 00 	movzwl 0x101fe(%rip),%eax        # 1e710 <g_2591>
    e512:	0f b7 c0             	movzwl %ax,%eax
    e515:	eb 1c                	jmp    e533 <func_1+0x3d7e>
    e517:	0f b7 05 c6 bf 00 00 	movzwl 0xbfc6(%rip),%eax        # 1a4e4 <g_1562>
    e51e:	66 83 f8 f9          	cmp    $0xfff9,%ax
    e522:	0f 8d 0e c6 ff ff    	jge    ab36 <func_1+0x381>
    e528:	eb 01                	jmp    e52b <func_1+0x3d76>
    e52a:	90                   	nop
    e52b:	8b 05 af bf 00 00    	mov    0xbfaf(%rip),%eax        # 1a4e0 <g_1558>
    e531:	48 98                	cltq   
    e533:	48 8b 5d c8          	mov    -0x38(%rbp),%rbx
    e537:	64 48 33 1c 25 28 00 	xor    %fs:0x28,%rbx
    e53e:	00 00 
    e540:	74 05                	je     e547 <func_1+0x3d92>
    e542:	e8 29 ab ff ff       	callq  9070 <__stack_chk_fail@plt>
    e547:	48 81 c4 48 17 00 00 	add    $0x1748,%rsp
    e54e:	5b                   	pop    %rbx
    e54f:	41 5c                	pop    %r12
    e551:	41 5d                	pop    %r13
    e553:	41 5e                	pop    %r14
    e555:	41 5f                	pop    %r15
    e557:	5d                   	pop    %rbp
    e558:	c3                   	retq   

000000000000e559 <func_5>:
    e559:	f3 0f 1e fa          	endbr64 
    e55d:	55                   	push   %rbp
    e55e:	48 89 e5             	mov    %rsp,%rbp
    e561:	48 81 ec c0 00 00 00 	sub    $0xc0,%rsp
    e568:	48 89 bd 48 ff ff ff 	mov    %rdi,-0xb8(%rbp)
    e56f:	89 b5 44 ff ff ff    	mov    %esi,-0xbc(%rbp)
    e575:	89 95 40 ff ff ff    	mov    %edx,-0xc0(%rbp)
    e57b:	64 48 8b 04 25 28 00 	mov    %fs:0x28,%rax
    e582:	00 00 
    e584:	48 89 45 f8          	mov    %rax,-0x8(%rbp)
    e588:	31 c0                	xor    %eax,%eax
    e58a:	48 8d 05 1f bc 00 00 	lea    0xbc1f(%rip),%rax        # 1a1b0 <g_234>
    e591:	48 89 85 70 ff ff ff 	mov    %rax,-0x90(%rbp)
    e598:	48 8d 05 11 bc 00 00 	lea    0xbc11(%rip),%rax        # 1a1b0 <g_234>
    e59f:	48 89 85 78 ff ff ff 	mov    %rax,-0x88(%rbp)
    e5a6:	48 8d 05 03 bc 00 00 	lea    0xbc03(%rip),%rax        # 1a1b0 <g_234>
    e5ad:	48 89 45 80          	mov    %rax,-0x80(%rbp)
    e5b1:	48 8d 05 f8 bb 00 00 	lea    0xbbf8(%rip),%rax        # 1a1b0 <g_234>
    e5b8:	48 89 45 88          	mov    %rax,-0x78(%rbp)
    e5bc:	48 8d 05 ed bb 00 00 	lea    0xbbed(%rip),%rax        # 1a1b0 <g_234>
    e5c3:	48 89 45 90          	mov    %rax,-0x70(%rbp)
    e5c7:	48 8d 05 e2 bb 00 00 	lea    0xbbe2(%rip),%rax        # 1a1b0 <g_234>
    e5ce:	48 89 45 98          	mov    %rax,-0x68(%rbp)
    e5d2:	48 8d 05 d7 bb 00 00 	lea    0xbbd7(%rip),%rax        # 1a1b0 <g_234>
    e5d9:	48 89 45 a0          	mov    %rax,-0x60(%rbp)
    e5dd:	48 8d 05 cc bb 00 00 	lea    0xbbcc(%rip),%rax        # 1a1b0 <g_234>
    e5e4:	48 89 45 a8          	mov    %rax,-0x58(%rbp)
    e5e8:	48 8d 05 c1 bb 00 00 	lea    0xbbc1(%rip),%rax        # 1a1b0 <g_234>
    e5ef:	48 89 45 b0          	mov    %rax,-0x50(%rbp)
    e5f3:	48 8d 05 b6 bb 00 00 	lea    0xbbb6(%rip),%rax        # 1a1b0 <g_234>
    e5fa:	48 89 45 b8          	mov    %rax,-0x48(%rbp)
    e5fe:	48 8d 05 ab bb 00 00 	lea    0xbbab(%rip),%rax        # 1a1b0 <g_234>
    e605:	48 89 45 c0          	mov    %rax,-0x40(%rbp)
    e609:	48 8d 05 a0 bb 00 00 	lea    0xbba0(%rip),%rax        # 1a1b0 <g_234>
    e610:	48 89 45 c8          	mov    %rax,-0x38(%rbp)
    e614:	48 8d 05 95 bb 00 00 	lea    0xbb95(%rip),%rax        # 1a1b0 <g_234>
    e61b:	48 89 45 d0          	mov    %rax,-0x30(%rbp)
    e61f:	48 8d 05 8a bb 00 00 	lea    0xbb8a(%rip),%rax        # 1a1b0 <g_234>
    e626:	48 89 45 d8          	mov    %rax,-0x28(%rbp)
    e62a:	48 8d 05 7f bb 00 00 	lea    0xbb7f(%rip),%rax        # 1a1b0 <g_234>
    e631:	48 89 45 e0          	mov    %rax,-0x20(%rbp)
    e635:	48 8d 05 74 bb 00 00 	lea    0xbb74(%rip),%rax        # 1a1b0 <g_234>
    e63c:	48 89 45 e8          	mov    %rax,-0x18(%rbp)
    e640:	66 c7 85 5a ff ff ff 	movw   $0xfffb,-0xa6(%rbp)
    e647:	fb ff 
    e649:	48 b8 ca 78 e7 7f 59 	movabs $0xd9daa5597fe778ca,%rax
    e650:	a5 da d9 
    e653:	48 89 85 60 ff ff ff 	mov    %rax,-0xa0(%rbp)
    e65a:	48 c7 85 68 ff ff ff 	movq   $0x5,-0x98(%rbp)
    e661:	05 00 00 00 
    e665:	c7 85 5c ff ff ff d9 	movl   $0xd67758d9,-0xa4(%rbp)
    e66c:	58 77 d6 
    e66f:	8b 85 40 ff ff ff    	mov    -0xc0(%rbp),%eax
    e675:	83 f8 01             	cmp    $0x1,%eax
    e678:	48 8b 05 41 ec 00 00 	mov    0xec41(%rip),%rax        # 1d2c0 <g_1447>
    e67f:	48 8b 00             	mov    (%rax),%rax
    e682:	48 8b 00             	mov    (%rax),%rax
    e685:	48 85 c0             	test   %rax,%rax
    e688:	0f 95 c0             	setne  %al
    e68b:	0f b6 d0             	movzbl %al,%edx
    e68e:	0f b7 85 5a ff ff ff 	movzwl -0xa6(%rbp),%eax
    e695:	09 d0                	or     %edx,%eax
    e697:	66 89 85 5a ff ff ff 	mov    %ax,-0xa6(%rbp)
    e69e:	48 8b 85 68 ff ff ff 	mov    -0x98(%rbp),%rax
    e6a5:	89 c2                	mov    %eax,%edx
    e6a7:	48 8b 05 da e6 00 00 	mov    0xe6da(%rip),%rax        # 1cd88 <g_422>
    e6ae:	0f b6 00             	movzbl (%rax),%eax
    e6b1:	0f be c0             	movsbl %al,%eax
    e6b4:	89 d6                	mov    %edx,%esi
    e6b6:	89 c7                	mov    %eax,%edi
    e6b8:	e8 78 ac ff ff       	callq  9335 <safe_rshift_func_int8_t_s_s>
    e6bd:	66 98                	cbtw   
    e6bf:	0f b7 d0             	movzwl %ax,%edx
    e6c2:	48 81 8d 60 ff ff ff 	orq    $0xdb85,-0xa0(%rbp)
    e6c9:	85 db 00 00 
    e6cd:	48 8b 85 60 ff ff ff 	mov    -0xa0(%rbp),%rax
    e6d4:	0f b7 c0             	movzwl %ax,%eax
    e6d7:	89 d6                	mov    %edx,%esi
    e6d9:	89 c7                	mov    %eax,%edi
    e6db:	e8 5d b6 ff ff       	callq  9d3d <safe_mul_func_uint16_t_u_u>
    e6e0:	0f b7 c0             	movzwl %ax,%eax
    e6e3:	89 85 5c ff ff ff    	mov    %eax,-0xa4(%rbp)
    e6e9:	8b 95 5c ff ff ff    	mov    -0xa4(%rbp),%edx
    e6ef:	48 8b 05 72 e6 00 00 	mov    0xe672(%rip),%rax        # 1cd68 <g_372>
    e6f6:	8b 08                	mov    (%rax),%ecx
    e6f8:	09 ca                	or     %ecx,%edx
    e6fa:	89 10                	mov    %edx,(%rax)
    e6fc:	8b 85 44 ff ff ff    	mov    -0xbc(%rbp),%eax
    e702:	48 8b 75 f8          	mov    -0x8(%rbp),%rsi
    e706:	64 48 33 34 25 28 00 	xor    %fs:0x28,%rsi
    e70d:	00 00 
    e70f:	74 05                	je     e716 <func_5+0x1bd>
    e711:	e8 5a a9 ff ff       	callq  9070 <__stack_chk_fail@plt>
    e716:	c9                   	leaveq 
    e717:	c3                   	retq   

000000000000e718 <func_9>:
    e718:	f3 0f 1e fa          	endbr64 
    e71c:	55                   	push   %rbp
    e71d:	48 89 e5             	mov    %rsp,%rbp
    e720:	41 57                	push   %r15
    e722:	41 56                	push   %r14
    e724:	41 55                	push   %r13
    e726:	41 54                	push   %r12
    e728:	53                   	push   %rbx
    e729:	48 81 ec c8 08 00 00 	sub    $0x8c8,%rsp
    e730:	48 89 bd 28 f7 ff ff 	mov    %rdi,-0x8d8(%rbp)
    e737:	48 89 b5 20 f7 ff ff 	mov    %rsi,-0x8e0(%rbp)
    e73e:	89 d0                	mov    %edx,%eax
    e740:	66 89 85 1c f7 ff ff 	mov    %ax,-0x8e4(%rbp)
    e747:	64 48 8b 04 25 28 00 	mov    %fs:0x28,%rax
    e74e:	00 00 
    e750:	48 89 45 c8          	mov    %rax,-0x38(%rbp)
    e754:	31 c0                	xor    %eax,%eax
    e756:	48 8d 05 db fe 00 00 	lea    0xfedb(%rip),%rax        # 1e638 <g_532+0x8>
    e75d:	48 89 85 c8 f7 ff ff 	mov    %rax,-0x838(%rbp)
    e764:	c7 85 40 f7 ff ff 54 	movl   $0xe5ed5354,-0x8c0(%rbp)
    e76b:	53 ed e5 
    e76e:	48 8d 05 3b ba 00 00 	lea    0xba3b(%rip),%rax        # 1a1b0 <g_234>
    e775:	48 89 85 a0 f7 ff ff 	mov    %rax,-0x860(%rbp)
    e77c:	48 c7 85 50 fa ff ff 	movq   $0x0,-0x5b0(%rbp)
    e783:	00 00 00 00 
    e787:	48 c7 85 58 fa ff ff 	movq   $0x0,-0x5a8(%rbp)
    e78e:	00 00 00 00 
    e792:	48 c7 85 60 fa ff ff 	movq   $0x0,-0x5a0(%rbp)
    e799:	00 00 00 00 
    e79d:	48 c7 85 68 fa ff ff 	movq   $0x0,-0x598(%rbp)
    e7a4:	00 00 00 00 
    e7a8:	48 c7 85 70 fa ff ff 	movq   $0x0,-0x590(%rbp)
    e7af:	00 00 00 00 
    e7b3:	48 c7 85 78 fa ff ff 	movq   $0x0,-0x588(%rbp)
    e7ba:	00 00 00 00 
    e7be:	48 c7 85 80 fa ff ff 	movq   $0x0,-0x580(%rbp)
    e7c5:	00 00 00 00 
    e7c9:	48 8d 05 58 b9 00 00 	lea    0xb958(%rip),%rax        # 1a128 <g_86>
    e7d0:	48 89 85 88 fa ff ff 	mov    %rax,-0x578(%rbp)
    e7d7:	48 8d 05 4a b9 00 00 	lea    0xb94a(%rip),%rax        # 1a128 <g_86>
    e7de:	48 89 85 90 fa ff ff 	mov    %rax,-0x570(%rbp)
    e7e5:	48 8d 05 3c b9 00 00 	lea    0xb93c(%rip),%rax        # 1a128 <g_86>
    e7ec:	48 89 85 98 fa ff ff 	mov    %rax,-0x568(%rbp)
    e7f3:	48 8d 05 2e b9 00 00 	lea    0xb92e(%rip),%rax        # 1a128 <g_86>
    e7fa:	48 89 85 a0 fa ff ff 	mov    %rax,-0x560(%rbp)
    e801:	48 8d 05 20 b9 00 00 	lea    0xb920(%rip),%rax        # 1a128 <g_86>
    e808:	48 89 85 a8 fa ff ff 	mov    %rax,-0x558(%rbp)
    e80f:	48 8d 05 12 b9 00 00 	lea    0xb912(%rip),%rax        # 1a128 <g_86>
    e816:	48 89 85 b0 fa ff ff 	mov    %rax,-0x550(%rbp)
    e81d:	48 8d 05 04 b9 00 00 	lea    0xb904(%rip),%rax        # 1a128 <g_86>
    e824:	48 89 85 b8 fa ff ff 	mov    %rax,-0x548(%rbp)
    e82b:	48 c7 85 c0 fa ff ff 	movq   $0x0,-0x540(%rbp)
    e832:	00 00 00 00 
    e836:	48 c7 85 c8 fa ff ff 	movq   $0x0,-0x538(%rbp)
    e83d:	00 00 00 00 
    e841:	48 c7 85 d0 fa ff ff 	movq   $0x0,-0x530(%rbp)
    e848:	00 00 00 00 
    e84c:	48 c7 85 d8 fa ff ff 	movq   $0x0,-0x528(%rbp)
    e853:	00 00 00 00 
    e857:	48 c7 85 e0 fa ff ff 	movq   $0x0,-0x520(%rbp)
    e85e:	00 00 00 00 
    e862:	48 c7 85 e8 fa ff ff 	movq   $0x0,-0x518(%rbp)
    e869:	00 00 00 00 
    e86d:	48 c7 85 f0 fa ff ff 	movq   $0x0,-0x510(%rbp)
    e874:	00 00 00 00 
    e878:	48 8d 05 a9 b8 00 00 	lea    0xb8a9(%rip),%rax        # 1a128 <g_86>
    e87f:	48 89 85 f8 fa ff ff 	mov    %rax,-0x508(%rbp)
    e886:	48 8d 05 9b b8 00 00 	lea    0xb89b(%rip),%rax        # 1a128 <g_86>
    e88d:	48 89 85 00 fb ff ff 	mov    %rax,-0x500(%rbp)
    e894:	48 8d 05 8d b8 00 00 	lea    0xb88d(%rip),%rax        # 1a128 <g_86>
    e89b:	48 89 85 08 fb ff ff 	mov    %rax,-0x4f8(%rbp)
    e8a2:	48 8d 05 7f b8 00 00 	lea    0xb87f(%rip),%rax        # 1a128 <g_86>
    e8a9:	48 89 85 10 fb ff ff 	mov    %rax,-0x4f0(%rbp)
    e8b0:	48 8d 05 71 b8 00 00 	lea    0xb871(%rip),%rax        # 1a128 <g_86>
    e8b7:	48 89 85 18 fb ff ff 	mov    %rax,-0x4e8(%rbp)
    e8be:	48 8d 05 63 b8 00 00 	lea    0xb863(%rip),%rax        # 1a128 <g_86>
    e8c5:	48 89 85 20 fb ff ff 	mov    %rax,-0x4e0(%rbp)
    e8cc:	48 8d 05 55 b8 00 00 	lea    0xb855(%rip),%rax        # 1a128 <g_86>
    e8d3:	48 89 85 28 fb ff ff 	mov    %rax,-0x4d8(%rbp)
    e8da:	48 8d 85 30 fb ff ff 	lea    -0x4d0(%rbp),%rax
    e8e1:	48 8d 15 b8 ce 00 00 	lea    0xceb8(%rip),%rdx        # 1b7a0 <g_3271+0xc1c>
    e8e8:	b9 3f 00 00 00       	mov    $0x3f,%ecx
    e8ed:	48 89 c7             	mov    %rax,%rdi
    e8f0:	48 89 d6             	mov    %rdx,%rsi
    e8f3:	f3 48 a5             	rep movsq %ds:(%rsi),%es:(%rdi)
    e8f6:	c6 85 38 f7 ff ff 02 	movb   $0x2,-0x8c8(%rbp)
    e8fd:	66 c7 85 3a f7 ff ff 	movw   $0x4,-0x8c6(%rbp)
    e904:	04 00 
    e906:	48 8d 05 ff b9 00 00 	lea    0xb9ff(%rip),%rax        # 1a30c <g_334+0x6c>
    e90d:	48 89 85 20 f9 ff ff 	mov    %rax,-0x6e0(%rbp)
    e914:	48 8d 05 f1 b9 00 00 	lea    0xb9f1(%rip),%rax        # 1a30c <g_334+0x6c>
    e91b:	48 89 85 28 f9 ff ff 	mov    %rax,-0x6d8(%rbp)
    e922:	48 8d 05 e3 b9 00 00 	lea    0xb9e3(%rip),%rax        # 1a30c <g_334+0x6c>
    e929:	48 89 85 30 f9 ff ff 	mov    %rax,-0x6d0(%rbp)
    e930:	48 8d 05 d5 b9 00 00 	lea    0xb9d5(%rip),%rax        # 1a30c <g_334+0x6c>
    e937:	48 89 85 38 f9 ff ff 	mov    %rax,-0x6c8(%rbp)
    e93e:	48 8d 05 c7 b9 00 00 	lea    0xb9c7(%rip),%rax        # 1a30c <g_334+0x6c>
    e945:	48 89 85 40 f9 ff ff 	mov    %rax,-0x6c0(%rbp)
    e94c:	48 8d 05 b9 b9 00 00 	lea    0xb9b9(%rip),%rax        # 1a30c <g_334+0x6c>
    e953:	48 89 85 48 f9 ff ff 	mov    %rax,-0x6b8(%rbp)
    e95a:	48 8d 05 ab b9 00 00 	lea    0xb9ab(%rip),%rax        # 1a30c <g_334+0x6c>
    e961:	48 89 85 50 f9 ff ff 	mov    %rax,-0x6b0(%rbp)
    e968:	48 8d 05 9d b9 00 00 	lea    0xb99d(%rip),%rax        # 1a30c <g_334+0x6c>
    e96f:	48 89 85 58 f9 ff ff 	mov    %rax,-0x6a8(%rbp)
    e976:	48 8d 05 8f b9 00 00 	lea    0xb98f(%rip),%rax        # 1a30c <g_334+0x6c>
    e97d:	48 89 85 60 f9 ff ff 	mov    %rax,-0x6a0(%rbp)
    e984:	48 8d 05 81 b9 00 00 	lea    0xb981(%rip),%rax        # 1a30c <g_334+0x6c>
    e98b:	48 89 85 68 f9 ff ff 	mov    %rax,-0x698(%rbp)
    e992:	48 8d 85 20 f9 ff ff 	lea    -0x6e0(%rbp),%rax
    e999:	48 83 c0 48          	add    $0x48,%rax
    e99d:	48 89 85 d0 f7 ff ff 	mov    %rax,-0x830(%rbp)
    e9a4:	48 8d 05 35 fd 00 00 	lea    0xfd35(%rip),%rax        # 1e6e0 <g_1024>
    e9ab:	48 89 85 70 f9 ff ff 	mov    %rax,-0x690(%rbp)
    e9b2:	48 8d 05 27 fd 00 00 	lea    0xfd27(%rip),%rax        # 1e6e0 <g_1024>
    e9b9:	48 89 85 78 f9 ff ff 	mov    %rax,-0x688(%rbp)
    e9c0:	48 8d 05 19 fd 00 00 	lea    0xfd19(%rip),%rax        # 1e6e0 <g_1024>
    e9c7:	48 89 85 80 f9 ff ff 	mov    %rax,-0x680(%rbp)
    e9ce:	48 8d 05 0b fd 00 00 	lea    0xfd0b(%rip),%rax        # 1e6e0 <g_1024>
    e9d5:	48 89 85 88 f9 ff ff 	mov    %rax,-0x678(%rbp)
    e9dc:	48 8d 05 fd fc 00 00 	lea    0xfcfd(%rip),%rax        # 1e6e0 <g_1024>
    e9e3:	48 89 85 90 f9 ff ff 	mov    %rax,-0x670(%rbp)
    e9ea:	48 8d 05 ef fc 00 00 	lea    0xfcef(%rip),%rax        # 1e6e0 <g_1024>
    e9f1:	48 89 85 98 f9 ff ff 	mov    %rax,-0x668(%rbp)
    e9f8:	48 8d 05 e1 fc 00 00 	lea    0xfce1(%rip),%rax        # 1e6e0 <g_1024>
    e9ff:	48 89 85 a0 f9 ff ff 	mov    %rax,-0x660(%rbp)
    ea06:	48 8d 05 d3 fc 00 00 	lea    0xfcd3(%rip),%rax        # 1e6e0 <g_1024>
    ea0d:	48 89 85 a8 f9 ff ff 	mov    %rax,-0x658(%rbp)
    ea14:	48 8d 05 c5 fc 00 00 	lea    0xfcc5(%rip),%rax        # 1e6e0 <g_1024>
    ea1b:	48 89 85 b0 f9 ff ff 	mov    %rax,-0x650(%rbp)
    ea22:	48 8d 05 b7 fc 00 00 	lea    0xfcb7(%rip),%rax        # 1e6e0 <g_1024>
    ea29:	48 89 85 b8 f9 ff ff 	mov    %rax,-0x648(%rbp)
    ea30:	48 8d 05 2b 66 00 00 	lea    0x662b(%rip),%rax        # 15062 <g_1032>
    ea37:	48 89 85 d8 f7 ff ff 	mov    %rax,-0x828(%rbp)
    ea3e:	48 8d 05 c7 b9 00 00 	lea    0xb9c7(%rip),%rax        # 1a40c <g_1463>
    ea45:	48 89 85 e0 f7 ff ff 	mov    %rax,-0x820(%rbp)
    ea4c:	66 c7 85 3c f7 ff ff 	movw   $0x0,-0x8c4(%rbp)
    ea53:	00 00 
    ea55:	48 8d 05 54 b3 00 00 	lea    0xb354(%rip),%rax        # 19db0 <g_1413>
    ea5c:	48 89 85 a8 f7 ff ff 	mov    %rax,-0x858(%rbp)
    ea63:	c7 85 5c f7 ff ff 00 	movl   $0x0,-0x8a4(%rbp)
    ea6a:	00 00 00 
    ea6d:	eb 1e                	jmp    ea8d <func_9+0x375>
    ea6f:	8b 85 5c f7 ff ff    	mov    -0x8a4(%rbp),%eax
    ea75:	48 98                	cltq   
    ea77:	48 8d 15 82 be 00 00 	lea    0xbe82(%rip),%rdx        # 1a900 <g_2518+0x1c0>
    ea7e:	48 89 94 c5 c0 f8 ff 	mov    %rdx,-0x740(%rbp,%rax,8)
    ea85:	ff 
    ea86:	83 85 5c f7 ff ff 01 	addl   $0x1,-0x8a4(%rbp)
    ea8d:	83 bd 5c f7 ff ff 02 	cmpl   $0x2,-0x8a4(%rbp)
    ea94:	7e d9                	jle    ea6f <func_9+0x357>
    ea96:	66 c7 05 59 fc 00 00 	movw   $0x15,0xfc59(%rip)        # 1e6f8 <g_1553>
    ea9d:	15 00 
    ea9f:	e9 9a 02 00 00       	jmpq   ed3e <func_9+0x626>
    eaa4:	c6 85 39 f7 ff ff 26 	movb   $0x26,-0x8c7(%rbp)
    eaab:	c7 85 64 f7 ff ff e1 	movl   $0xbe86de1,-0x89c(%rbp)
    eab2:	6d e8 0b 
    eab5:	48 8d 05 24 b9 00 00 	lea    0xb924(%rip),%rax        # 1a3e0 <g_941+0x40>
    eabc:	48 89 85 b8 f7 ff ff 	mov    %rax,-0x848(%rbp)
    eac3:	48 c7 85 c0 f7 ff ff 	movq   $0x0,-0x840(%rbp)
    eaca:	00 00 00 00 
    eace:	48 8d 85 c0 f7 ff ff 	lea    -0x840(%rbp),%rax
    ead5:	48 89 85 30 fd ff ff 	mov    %rax,-0x2d0(%rbp)
    eadc:	48 8d 85 c0 f7 ff ff 	lea    -0x840(%rbp),%rax
    eae3:	48 89 85 38 fd ff ff 	mov    %rax,-0x2c8(%rbp)
    eaea:	48 8d 85 c0 f7 ff ff 	lea    -0x840(%rbp),%rax
    eaf1:	48 89 85 40 fd ff ff 	mov    %rax,-0x2c0(%rbp)
    eaf8:	48 8d 85 c0 f7 ff ff 	lea    -0x840(%rbp),%rax
    eaff:	48 89 85 48 fd ff ff 	mov    %rax,-0x2b8(%rbp)
    eb06:	48 8d 85 c0 f7 ff ff 	lea    -0x840(%rbp),%rax
    eb0d:	48 89 85 50 fd ff ff 	mov    %rax,-0x2b0(%rbp)
    eb14:	48 8d 85 c0 f7 ff ff 	lea    -0x840(%rbp),%rax
    eb1b:	48 89 85 58 fd ff ff 	mov    %rax,-0x2a8(%rbp)
    eb22:	48 8d 85 c0 f7 ff ff 	lea    -0x840(%rbp),%rax
    eb29:	48 89 85 60 fd ff ff 	mov    %rax,-0x2a0(%rbp)
    eb30:	48 8d 85 c0 f7 ff ff 	lea    -0x840(%rbp),%rax
    eb37:	48 89 85 68 fd ff ff 	mov    %rax,-0x298(%rbp)
    eb3e:	48 8d 85 c0 f7 ff ff 	lea    -0x840(%rbp),%rax
    eb45:	48 89 85 70 fd ff ff 	mov    %rax,-0x290(%rbp)
    eb4c:	48 8d 85 c0 f7 ff ff 	lea    -0x840(%rbp),%rax
    eb53:	48 89 85 78 fd ff ff 	mov    %rax,-0x288(%rbp)
    eb5a:	48 8d 05 4f b6 00 00 	lea    0xb64f(%rip),%rax        # 1a1b0 <g_234>
    eb61:	48 89 85 e8 f7 ff ff 	mov    %rax,-0x818(%rbp)
    eb68:	c7 85 60 f7 ff ff 00 	movl   $0x0,-0x8a0(%rbp)
    eb6f:	00 00 00 
    eb72:	eb 1e                	jmp    eb92 <func_9+0x47a>
    eb74:	8b 85 60 f7 ff ff    	mov    -0x8a0(%rbp),%eax
    eb7a:	48 98                	cltq   
    eb7c:	48 8d 95 b8 f7 ff ff 	lea    -0x848(%rbp),%rdx
    eb83:	48 89 94 c5 c0 f9 ff 	mov    %rdx,-0x640(%rbp,%rax,8)
    eb8a:	ff 
    eb8b:	83 85 60 f7 ff ff 01 	addl   $0x1,-0x8a0(%rbp)
    eb92:	83 bd 60 f7 ff ff 03 	cmpl   $0x3,-0x8a0(%rbp)
    eb99:	7e d9                	jle    eb74 <func_9+0x45c>
    eb9b:	c7 85 60 f7 ff ff 00 	movl   $0x0,-0x8a0(%rbp)
    eba2:	00 00 00 
    eba5:	eb 1b                	jmp    ebc2 <func_9+0x4aa>
    eba7:	8b 85 60 f7 ff ff    	mov    -0x8a0(%rbp),%eax
    ebad:	48 98                	cltq   
    ebaf:	48 c7 84 c5 00 f9 ff 	movq   $0x4,-0x700(%rbp,%rax,8)
    ebb6:	ff 04 00 00 00 
    ebbb:	83 85 60 f7 ff ff 01 	addl   $0x1,-0x8a0(%rbp)
    ebc2:	83 bd 60 f7 ff ff 00 	cmpl   $0x0,-0x8a0(%rbp)
    ebc9:	7e dc                	jle    eba7 <func_9+0x48f>
    ebcb:	48 c7 05 3a fa 00 00 	movq   $0x0,0xfa3a(%rip)        # 1e610 <g_169>
    ebd2:	00 00 00 00 
    ebd6:	eb 22                	jmp    ebfa <func_9+0x4e2>
    ebd8:	48 8b 05 d1 ee 00 00 	mov    0xeed1(%rip),%rax        # 1dab0 <g_2340>
    ebdf:	0f b6 95 39 f7 ff ff 	movzbl -0x8c7(%rbp),%edx
    ebe6:	89 10                	mov    %edx,(%rax)
    ebe8:	48 8b 05 21 fa 00 00 	mov    0xfa21(%rip),%rax        # 1e610 <g_169>
    ebef:	48 83 c0 01          	add    $0x1,%rax
    ebf3:	48 89 05 16 fa 00 00 	mov    %rax,0xfa16(%rip)        # 1e610 <g_169>
    ebfa:	48 8b 05 0f fa 00 00 	mov    0xfa0f(%rip),%rax        # 1e610 <g_169>
    ec01:	48 83 f8 09          	cmp    $0x9,%rax
    ec05:	7e d1                	jle    ebd8 <func_9+0x4c0>
    ec07:	48 8b 05 e2 b7 00 00 	mov    0xb7e2(%rip),%rax        # 1a3f0 <g_1080>
    ec0e:	48 3d 68 7d 00 00    	cmp    $0x7d68,%rax
    ec14:	0f 9f c0             	setg   %al
    ec17:	0f b6 c0             	movzbl %al,%eax
    ec1a:	31 85 64 f7 ff ff    	xor    %eax,-0x89c(%rbp)
    ec20:	0f b7 85 1c f7 ff ff 	movzwl -0x8e4(%rbp),%eax
    ec27:	0f be d8             	movsbl %al,%ebx
    ec2a:	48 8b 85 c8 f9 ff ff 	mov    -0x638(%rbp),%rax
    ec31:	48 89 85 c8 f9 ff ff 	mov    %rax,-0x638(%rbp)
    ec38:	48 8b 85 c8 f9 ff ff 	mov    -0x638(%rbp),%rax
    ec3f:	48 89 05 7a ee 00 00 	mov    %rax,0xee7a(%rip)        # 1dac0 <g_2355>
    ec46:	48 8b 05 73 ee 00 00 	mov    0xee73(%rip),%rax        # 1dac0 <g_2355>
    ec4d:	48 39 85 c8 f7 ff ff 	cmp    %rax,-0x838(%rbp)
    ec54:	0f 95 c0             	setne  %al
    ec57:	0f b6 c0             	movzbl %al,%eax
    ec5a:	89 c6                	mov    %eax,%esi
    ec5c:	bf 00 00 00 00       	mov    $0x0,%edi
    ec61:	e8 88 a6 ff ff       	callq  92ee <safe_lshift_func_int8_t_s_u>
    ec66:	0f be d0             	movsbl %al,%edx
    ec69:	0f b7 85 1c f7 ff ff 	movzwl -0x8e4(%rbp),%eax
    ec70:	39 c2                	cmp    %eax,%edx
    ec72:	0f 9d c0             	setge  %al
    ec75:	0f b6 d0             	movzbl %al,%edx
    ec78:	48 8b 85 28 f7 ff ff 	mov    -0x8d8(%rbp),%rax
    ec7f:	0f b6 00             	movzbl (%rax),%eax
    ec82:	09 c2                	or     %eax,%edx
    ec84:	48 8b 85 28 f7 ff ff 	mov    -0x8d8(%rbp),%rax
    ec8b:	88 10                	mov    %dl,(%rax)
    ec8d:	48 8b 85 28 f7 ff ff 	mov    -0x8d8(%rbp),%rax
    ec94:	0f b6 00             	movzbl (%rax),%eax
    ec97:	0f be c0             	movsbl %al,%eax
    ec9a:	89 de                	mov    %ebx,%esi
    ec9c:	89 c7                	mov    %eax,%edi
    ec9e:	e8 6f a5 ff ff       	callq  9212 <safe_mul_func_int8_t_s_s>
    eca3:	be 03 00 00 00       	mov    $0x3,%esi
    eca8:	bf ff ff ff ff       	mov    $0xffffffff,%edi
    ecad:	e8 ba a6 ff ff       	callq  936c <safe_rshift_func_int8_t_s_u>
    ecb2:	0f be d0             	movsbl %al,%edx
    ecb5:	48 8b 85 e8 f7 ff ff 	mov    -0x818(%rbp),%rax
    ecbc:	89 10                	mov    %edx,(%rax)
    ecbe:	48 8b 05 f3 e5 00 00 	mov    0xe5f3(%rip),%rax        # 1d2b8 <g_1448>
    ecc5:	48 8b 00             	mov    (%rax),%rax
    ecc8:	0f b6 00             	movzbl (%rax),%eax
    eccb:	0f b6 d0             	movzbl %al,%edx
    ecce:	66 83 bd 1c f7 ff ff 	cmpw   $0x0,-0x8e4(%rbp)
    ecd5:	00 
    ecd6:	75 0e                	jne    ece6 <func_9+0x5ce>
    ecd8:	0f b7 85 1c f7 ff ff 	movzwl -0x8e4(%rbp),%eax
    ecdf:	83 e0 01             	and    $0x1,%eax
    ece2:	85 c0                	test   %eax,%eax
    ece4:	74 07                	je     eced <func_9+0x5d5>
    ece6:	b8 01 00 00 00       	mov    $0x1,%eax
    eceb:	eb 05                	jmp    ecf2 <func_9+0x5da>
    eced:	b8 00 00 00 00       	mov    $0x0,%eax
    ecf2:	0f be c0             	movsbl %al,%eax
    ecf5:	89 d6                	mov    %edx,%esi
    ecf7:	89 c7                	mov    %eax,%edi
    ecf9:	e8 6e a6 ff ff       	callq  936c <safe_rshift_func_int8_t_s_u>
    ecfe:	48 c7 85 00 f9 ff ff 	movq   $0x7,-0x700(%rbp)
    ed05:	07 00 00 00 
    ed09:	48 8b 8d 00 f9 ff ff 	mov    -0x700(%rbp),%rcx
    ed10:	48 8b 05 b9 ed 00 00 	mov    0xedb9(%rip),%rax        # 1dad0 <g_2363>
    ed17:	8b 10                	mov    (%rax),%edx
    ed19:	31 ca                	xor    %ecx,%edx
    ed1b:	89 10                	mov    %edx,(%rax)
    ed1d:	48 8b 05 5c e0 00 00 	mov    0xe05c(%rip),%rax        # 1cd80 <g_417>
    ed24:	48 8b 00             	mov    (%rax),%rax
    ed27:	8b 00                	mov    (%rax),%eax
    ed29:	85 c0                	test   %eax,%eax
    ed2b:	75 24                	jne    ed51 <func_9+0x639>
    ed2d:	0f b7 05 c4 f9 00 00 	movzwl 0xf9c4(%rip),%eax        # 1e6f8 <g_1553>
    ed34:	83 c0 01             	add    $0x1,%eax
    ed37:	66 89 05 ba f9 00 00 	mov    %ax,0xf9ba(%rip)        # 1e6f8 <g_1553>
    ed3e:	0f b7 05 b3 f9 00 00 	movzwl 0xf9b3(%rip),%eax        # 1e6f8 <g_1553>
    ed45:	66 83 f8 23          	cmp    $0x23,%ax
    ed49:	0f 85 55 fd ff ff    	jne    eaa4 <func_9+0x38c>
    ed4f:	eb 01                	jmp    ed52 <func_9+0x63a>
    ed51:	90                   	nop
    ed52:	48 8b 05 cf b9 00 00 	mov    0xb9cf(%rip),%rax        # 1a728 <g_2366>
    ed59:	48 83 c0 01          	add    $0x1,%rax
    ed5d:	48 89 05 c4 b9 00 00 	mov    %rax,0xb9c4(%rip)        # 1a728 <g_2366>
    ed64:	be fd 00 00 00       	mov    $0xfd,%esi
    ed69:	bf cb 00 00 00       	mov    $0xcb,%edi
    ed6e:	e8 20 ae ff ff       	callq  9b93 <safe_mul_func_uint8_t_u_u>
    ed73:	84 c0                	test   %al,%al
    ed75:	0f 84 da 00 00 00    	je     ee55 <func_9+0x73d>
    ed7b:	48 c7 85 30 f8 ff ff 	movq   $0x0,-0x7d0(%rbp)
    ed82:	00 00 00 00 
    ed86:	48 8d 85 30 fd ff ff 	lea    -0x2d0(%rbp),%rax
    ed8d:	48 8d 15 0c cc 00 00 	lea    0xcc0c(%rip),%rdx        # 1b9a0 <g_3271+0xe1c>
    ed94:	b9 51 00 00 00       	mov    $0x51,%ecx
    ed99:	48 89 c7             	mov    %rax,%rdi
    ed9c:	48 89 d6             	mov    %rdx,%rsi
    ed9f:	f3 48 a5             	rep movsq %ds:(%rsi),%es:(%rdi)
    eda2:	48 8d 05 37 f9 00 00 	lea    0xf937(%rip),%rax        # 1e6e0 <g_1024>
    eda9:	48 89 85 38 f8 ff ff 	mov    %rax,-0x7c8(%rbp)
    edb0:	66 c7 05 c3 b3 00 00 	movw   $0x0,0xb3c3(%rip)        # 1a17c <g_141>
    edb7:	00 00 
    edb9:	eb 69                	jmp    ee24 <func_9+0x70c>
    edbb:	48 8d 05 66 b3 00 00 	lea    0xb366(%rip),%rax        # 1a128 <g_86>
    edc2:	48 89 85 b8 f8 ff ff 	mov    %rax,-0x748(%rbp)
    edc9:	c7 05 a5 b3 00 00 02 	movl   $0x2,0xb3a5(%rip)        # 1a178 <g_139>
    edd0:	00 00 00 
    edd3:	eb 30                	jmp    ee05 <func_9+0x6ed>
    edd5:	48 8b 05 94 df 00 00 	mov    0xdf94(%rip),%rax        # 1cd70 <g_396>
    eddc:	48 8b 00             	mov    (%rax),%rax
    eddf:	8b 00                	mov    (%rax),%eax
    ede1:	85 c0                	test   %eax,%eax
    ede3:	75 2d                	jne    ee12 <func_9+0x6fa>
    ede5:	48 8b 05 ec ec 00 00 	mov    0xecec(%rip),%rax        # 1dad8 <g_2376>
    edec:	48 8b 95 b8 f8 ff ff 	mov    -0x748(%rbp),%rdx
    edf3:	48 89 10             	mov    %rdx,(%rax)
    edf6:	8b 05 7c b3 00 00    	mov    0xb37c(%rip),%eax        # 1a178 <g_139>
    edfc:	83 c0 01             	add    $0x1,%eax
    edff:	89 05 73 b3 00 00    	mov    %eax,0xb373(%rip)        # 1a178 <g_139>
    ee05:	8b 05 6d b3 00 00    	mov    0xb36d(%rip),%eax        # 1a178 <g_139>
    ee0b:	83 f8 0a             	cmp    $0xa,%eax
    ee0e:	75 c5                	jne    edd5 <func_9+0x6bd>
    ee10:	eb 01                	jmp    ee13 <func_9+0x6fb>
    ee12:	90                   	nop
    ee13:	0f b7 05 62 b3 00 00 	movzwl 0xb362(%rip),%eax        # 1a17c <g_141>
    ee1a:	83 e8 01             	sub    $0x1,%eax
    ee1d:	66 89 05 58 b3 00 00 	mov    %ax,0xb358(%rip)        # 1a17c <g_141>
    ee24:	0f b7 05 51 b3 00 00 	movzwl 0xb351(%rip),%eax        # 1a17c <g_141>
    ee2b:	66 83 f8 f3          	cmp    $0xfff3,%ax
    ee2f:	75 8a                	jne    edbb <func_9+0x6a3>
    ee31:	48 8b 85 38 f8 ff ff 	mov    -0x7c8(%rbp),%rax
    ee38:	48 8b 95 30 f8 ff ff 	mov    -0x7d0(%rbp),%rdx
    ee3f:	48 89 10             	mov    %rdx,(%rax)
    ee42:	66 83 bd 1c f7 ff ff 	cmpw   $0x0,-0x8e4(%rbp)
    ee49:	00 
    ee4a:	0f 84 c2 09 00 00    	je     f812 <func_9+0x10fa>
    ee50:	e9 fb 02 00 00       	jmpq   f150 <func_9+0xa38>
    ee55:	48 8d 05 40 b7 00 00 	lea    0xb740(%rip),%rax        # 1a59c <g_2021>
    ee5c:	48 89 85 f0 f7 ff ff 	mov    %rax,-0x810(%rbp)
    ee63:	48 8d 05 a2 b5 00 00 	lea    0xb5a2(%rip),%rax        # 1a40c <g_1463>
    ee6a:	48 89 85 f8 f7 ff ff 	mov    %rax,-0x808(%rbp)
    ee71:	c7 85 68 f7 ff ff 01 	movl   $0x1,-0x898(%rbp)
    ee78:	00 00 00 
    ee7b:	48 8d 05 8e b4 00 00 	lea    0xb48e(%rip),%rax        # 1a310 <g_334+0x70>
    ee82:	48 89 85 b8 f7 ff ff 	mov    %rax,-0x848(%rbp)
    ee89:	48 8d 85 b8 f7 ff ff 	lea    -0x848(%rbp),%rax
    ee90:	48 89 85 00 f8 ff ff 	mov    %rax,-0x800(%rbp)
    ee97:	48 8d 05 a2 b3 00 00 	lea    0xb3a2(%rip),%rax        # 1a240 <g_333+0x60>
    ee9e:	48 89 85 08 f8 ff ff 	mov    %rax,-0x7f8(%rbp)
    eea5:	48 8d 05 fc b2 00 00 	lea    0xb2fc(%rip),%rax        # 1a1a8 <g_223>
    eeac:	48 89 85 10 f8 ff ff 	mov    %rax,-0x7f0(%rbp)
    eeb3:	48 8d 85 30 fb ff ff 	lea    -0x4d0(%rbp),%rax
    eeba:	48 83 c0 30          	add    $0x30,%rax
    eebe:	48 89 85 c0 f7 ff ff 	mov    %rax,-0x840(%rbp)
    eec5:	48 8d 85 c0 f7 ff ff 	lea    -0x840(%rbp),%rax
    eecc:	48 89 85 18 f8 ff ff 	mov    %rax,-0x7e8(%rbp)
    eed3:	48 c7 85 20 f8 ff ff 	movq   $0x0,-0x7e0(%rbp)
    eeda:	00 00 00 00 
    eede:	0f b7 85 1c f7 ff ff 	movzwl -0x8e4(%rbp),%eax
    eee5:	0f be d8             	movsbl %al,%ebx
    eee8:	48 8b 05 c9 b4 00 00 	mov    0xb4c9(%rip),%rax        # 1a3b8 <g_941+0x18>
    eeef:	44 0f b7 e0          	movzwl %ax,%r12d
    eef3:	48 8b 85 20 f7 ff ff 	mov    -0x8e0(%rbp),%rax
    eefa:	0f b6 00             	movzbl (%rax),%eax
    eefd:	44 0f be e8          	movsbl %al,%r13d
    ef01:	48 8b 85 60 fb ff ff 	mov    -0x4a0(%rbp),%rax
    ef08:	48 85 c0             	test   %rax,%rax
    ef0b:	0f 84 91 00 00 00    	je     efa2 <func_9+0x88a>
    ef11:	48 8b 95 b8 f7 ff ff 	mov    -0x848(%rbp),%rdx
    ef18:	48 8b 85 00 f8 ff ff 	mov    -0x800(%rbp),%rax
    ef1f:	48 89 10             	mov    %rdx,(%rax)
    ef22:	48 8b 05 77 de 00 00 	mov    0xde77(%rip),%rax        # 1cda0 <g_530>
    ef29:	48 8b 00             	mov    (%rax),%rax
    ef2c:	48 8b 00             	mov    (%rax),%rax
    ef2f:	48 85 c0             	test   %rax,%rax
    ef32:	0f 94 c0             	sete   %al
    ef35:	0f b6 c0             	movzbl %al,%eax
    ef38:	be 09 00 00 00       	mov    $0x9,%esi
    ef3d:	89 c7                	mov    %eax,%edi
    ef3f:	e8 4f ac ff ff       	callq  9b93 <safe_mul_func_uint8_t_u_u>
    ef44:	0f b6 d0             	movzbl %al,%edx
    ef47:	0f be 85 38 f7 ff ff 	movsbl -0x8c8(%rbp),%eax
    ef4e:	39 c2                	cmp    %eax,%edx
    ef50:	0f 95 c0             	setne  %al
    ef53:	0f b6 d0             	movzbl %al,%edx
    ef56:	48 8b 85 08 f8 ff ff 	mov    -0x7f8(%rbp),%rax
    ef5d:	0f b7 00             	movzwl (%rax),%eax
    ef60:	89 c1                	mov    %eax,%ecx
    ef62:	89 d0                	mov    %edx,%eax
    ef64:	09 c8                	or     %ecx,%eax
    ef66:	89 c2                	mov    %eax,%edx
    ef68:	48 8b 85 08 f8 ff ff 	mov    -0x7f8(%rbp),%rax
    ef6f:	66 89 10             	mov    %dx,(%rax)
    ef72:	48 8b 85 08 f8 ff ff 	mov    -0x7f8(%rbp),%rax
    ef79:	0f b7 00             	movzwl (%rax),%eax
    ef7c:	0f b7 d0             	movzwl %ax,%edx
    ef7f:	8b 85 68 f7 ff ff    	mov    -0x898(%rbp),%eax
    ef85:	0f b7 c0             	movzwl %ax,%eax
    ef88:	89 d6                	mov    %edx,%esi
    ef8a:	89 c7                	mov    %eax,%edi
    ef8c:	e8 8e ad ff ff       	callq  9d1f <safe_sub_func_uint16_t_u_u>
    ef91:	48 8b 95 10 f8 ff ff 	mov    -0x7f0(%rbp),%rdx
    ef98:	66 89 02             	mov    %ax,(%rdx)
    ef9b:	b8 01 00 00 00       	mov    $0x1,%eax
    efa0:	eb 05                	jmp    efa7 <func_9+0x88f>
    efa2:	b8 00 00 00 00       	mov    $0x0,%eax
    efa7:	83 f8 01             	cmp    $0x1,%eax
    efaa:	0f 96 c2             	setbe  %dl
    efad:	48 8b 05 14 e3 00 00 	mov    0xe314(%rip),%rax        # 1d2c8 <g_1446>
    efb4:	48 8b 00             	mov    (%rax),%rax
    efb7:	48 8b 00             	mov    (%rax),%rax
    efba:	48 8b 00             	mov    (%rax),%rax
    efbd:	88 10                	mov    %dl,(%rax)
    efbf:	0f b6 00             	movzbl (%rax),%eax
    efc2:	0f b6 c0             	movzbl %al,%eax
    efc5:	44 89 ee             	mov    %r13d,%esi
    efc8:	89 c7                	mov    %eax,%edi
    efca:	e8 be ac ff ff       	callq  9c8d <safe_rshift_func_uint8_t_u_s>
    efcf:	0f b6 05 12 b5 00 00 	movzbl 0xb512(%rip),%eax        # 1a4e8 <g_1578>
    efd6:	0f b6 c0             	movzbl %al,%eax
    efd9:	44 89 e6             	mov    %r12d,%esi
    efdc:	89 c7                	mov    %eax,%edi
    efde:	e8 3c ad ff ff       	callq  9d1f <safe_sub_func_uint16_t_u_u>
    efe3:	0f be c0             	movsbl %al,%eax
    efe6:	89 de                	mov    %ebx,%esi
    efe8:	89 c7                	mov    %eax,%edi
    efea:	e8 42 a2 ff ff       	callq  9231 <safe_mod_func_int8_t_s_s>
    efef:	48 8b 85 a0 f7 ff ff 	mov    -0x860(%rbp),%rax
    eff6:	8b 00                	mov    (%rax),%eax
    eff8:	0f b7 c0             	movzwl %ax,%eax
    effb:	be 96 08 00 00       	mov    $0x896,%esi
    f000:	89 c7                	mov    %eax,%edi
    f002:	e8 87 ad ff ff       	callq  9d8e <safe_div_func_uint16_t_u_u>
    f007:	0f b7 d0             	movzwl %ax,%edx
    f00a:	48 8b 85 f0 f7 ff ff 	mov    -0x810(%rbp),%rax
    f011:	48 3b 85 f8 f7 ff ff 	cmp    -0x808(%rbp),%rax
    f018:	0f 94 c0             	sete   %al
    f01b:	0f b6 c0             	movzbl %al,%eax
    f01e:	89 d6                	mov    %edx,%esi
    f020:	89 c7                	mov    %eax,%edi
    f022:	e8 53 ae ff ff       	callq  9e7a <safe_rshift_func_uint16_t_u_u>
    f027:	0f b7 c0             	movzwl %ax,%eax
    f02a:	48 89 c7             	mov    %rax,%rdi
    f02d:	e8 e4 a7 ff ff       	callq  9816 <safe_unary_minus_func_int64_t_s>
    f032:	48 b8 6a e3 b5 78 ee 	movabs $0x44571aee78b5e36a,%rax
    f039:	1a 57 44 
    f03c:	48 89 05 ad b3 00 00 	mov    %rax,0xb3ad(%rip)        # 1a3f0 <g_1080>
    f043:	48 8d 05 32 b1 00 00 	lea    0xb132(%rip),%rax        # 1a17c <g_141>
    f04a:	48 89 85 28 f8 ff ff 	mov    %rax,-0x7d8(%rbp)
    f051:	c7 85 6c f7 ff ff ff 	movl   $0xffffffff,-0x894(%rbp)
    f058:	ff ff ff 
    f05b:	0f b7 85 1c f7 ff ff 	movzwl -0x8e4(%rbp),%eax
    f062:	39 85 68 f7 ff ff    	cmp    %eax,-0x898(%rbp)
    f068:	0f 85 b9 00 00 00    	jne    f127 <func_9+0xa0f>
    f06e:	0f b7 85 1c f7 ff ff 	movzwl -0x8e4(%rbp),%eax
    f075:	0f bf d0             	movswl %ax,%edx
    f078:	48 8b 05 b9 e3 00 00 	mov    0xe3b9(%rip),%rax        # 1d438 <g_1823>
    f07f:	48 8b 00             	mov    (%rax),%rax
    f082:	0f b7 00             	movzwl (%rax),%eax
    f085:	98                   	cwtl   
    f086:	89 d6                	mov    %edx,%esi
    f088:	89 c7                	mov    %eax,%edi
    f08a:	e8 66 a3 ff ff       	callq  93f5 <safe_mul_func_int16_t_s_s>
    f08f:	44 0f bf e0          	movswl %ax,%r12d
    f093:	48 8b 85 a0 f7 ff ff 	mov    -0x860(%rbp),%rax
    f09a:	8b 00                	mov    (%rax),%eax
    f09c:	85 c0                	test   %eax,%eax
    f09e:	75 0a                	jne    f0aa <func_9+0x992>
    f0a0:	66 83 bd 1c f7 ff ff 	cmpw   $0x0,-0x8e4(%rbp)
    f0a7:	00 
    f0a8:	74 08                	je     f0b2 <func_9+0x99a>
    f0aa:	41 bd 01 00 00 00    	mov    $0x1,%r13d
    f0b0:	eb 06                	jmp    f0b8 <func_9+0x9a0>
    f0b2:	41 bd 00 00 00 00    	mov    $0x0,%r13d
    f0b8:	8b 85 68 f7 ff ff    	mov    -0x898(%rbp),%eax
    f0be:	0f b6 d8             	movzbl %al,%ebx
    f0c1:	48 8b 05 78 dc 00 00 	mov    0xdc78(%rip),%rax        # 1cd40 <g_153>
    f0c8:	0f b6 10             	movzbl (%rax),%edx
    f0cb:	83 ea 01             	sub    $0x1,%edx
    f0ce:	88 10                	mov    %dl,(%rax)
    f0d0:	48 8b 85 28 f8 ff ff 	mov    -0x7d8(%rbp),%rax
    f0d7:	66 c7 00 01 00       	movw   $0x1,(%rax)
    f0dc:	48 8b 85 28 f8 ff ff 	mov    -0x7d8(%rbp),%rax
    f0e3:	0f b7 00             	movzwl (%rax),%eax
    f0e6:	41 89 c6             	mov    %eax,%r14d
    f0e9:	be 07 00 00 00       	mov    $0x7,%esi
    f0ee:	bf 00 00 00 00       	mov    $0x0,%edi
    f0f3:	e8 50 ad ff ff       	callq  9e48 <safe_rshift_func_uint16_t_u_s>
    f0f8:	44 31 f0             	xor    %r14d,%eax
    f0fb:	0f b6 c0             	movzbl %al,%eax
    f0fe:	be 02 00 00 00       	mov    $0x2,%esi
    f103:	89 c7                	mov    %eax,%edi
    f105:	e8 83 ab ff ff       	callq  9c8d <safe_rshift_func_uint8_t_u_s>
    f10a:	0f b6 c0             	movzbl %al,%eax
    f10d:	89 de                	mov    %ebx,%esi
    f10f:	89 c7                	mov    %eax,%edi
    f111:	e8 7d aa ff ff       	callq  9b93 <safe_mul_func_uint8_t_u_u>
    f116:	0f b6 c0             	movzbl %al,%eax
    f119:	41 39 c5             	cmp    %eax,%r13d
    f11c:	0f 95 c0             	setne  %al
    f11f:	0f b6 c0             	movzbl %al,%eax
    f122:	41 39 c4             	cmp    %eax,%r12d
    f125:	74 07                	je     f12e <func_9+0xa16>
    f127:	b8 01 00 00 00       	mov    $0x1,%eax
    f12c:	eb 05                	jmp    f133 <func_9+0xa1b>
    f12e:	b8 00 00 00 00       	mov    $0x0,%eax
    f133:	85 c0                	test   %eax,%eax
    f135:	0f 94 c0             	sete   %al
    f138:	0f b6 c0             	movzbl %al,%eax
    f13b:	89 85 6c f7 ff ff    	mov    %eax,-0x894(%rbp)
    f141:	48 8b 05 48 dc 00 00 	mov    0xdc48(%rip),%rax        # 1cd90 <g_421>
    f148:	48 8b 00             	mov    (%rax),%rax
    f14b:	e9 19 0b 00 00       	jmpq   fc69 <func_9+0x1551>
    f150:	c7 85 8c f7 ff ff b0 	movl   $0x78287fb0,-0x874(%rbp)
    f157:	7f 28 78 
    f15a:	c7 85 90 f7 ff ff 01 	movl   $0x1,-0x870(%rbp)
    f161:	00 00 00 
    f164:	48 c7 85 c0 f7 ff ff 	movq   $0x0,-0x840(%rbp)
    f16b:	00 00 00 00 
    f16f:	48 8d 85 c0 f7 ff ff 	lea    -0x840(%rbp),%rax
    f176:	48 89 85 80 f8 ff ff 	mov    %rax,-0x780(%rbp)
    f17d:	48 8d 05 f8 af 00 00 	lea    0xaff8(%rip),%rax        # 1a17c <g_141>
    f184:	48 89 85 88 f8 ff ff 	mov    %rax,-0x778(%rbp)
    f18b:	c7 85 94 f7 ff ff f7 	movl   $0xfffffff7,-0x86c(%rbp)
    f192:	ff ff ff 
    f195:	48 8d 05 24 b9 00 00 	lea    0xb924(%rip),%rax        # 1aac0 <g_2521>
    f19c:	48 89 85 90 f8 ff ff 	mov    %rax,-0x770(%rbp)
    f1a3:	48 8d 05 96 db 00 00 	lea    0xdb96(%rip),%rax        # 1cd40 <g_153>
    f1aa:	48 89 85 98 f8 ff ff 	mov    %rax,-0x768(%rbp)
    f1b1:	c7 85 50 f7 ff ff 00 	movl   $0x0,-0x8b0(%rbp)
    f1b8:	00 00 00 
    f1bb:	eb 1e                	jmp    f1db <func_9+0xac3>
    f1bd:	8b 85 50 f7 ff ff    	mov    -0x8b0(%rbp),%eax
    f1c3:	48 98                	cltq   
    f1c5:	48 8d 15 14 b2 00 00 	lea    0xb214(%rip),%rdx        # 1a3e0 <g_941+0x40>
    f1cc:	48 89 94 c5 30 fd ff 	mov    %rdx,-0x2d0(%rbp,%rax,8)
    f1d3:	ff 
    f1d4:	83 85 50 f7 ff ff 01 	addl   $0x1,-0x8b0(%rbp)
    f1db:	83 bd 50 f7 ff ff 03 	cmpl   $0x3,-0x8b0(%rbp)
    f1e2:	7e d9                	jle    f1bd <func_9+0xaa5>
    f1e4:	c7 85 50 f7 ff ff 00 	movl   $0x0,-0x8b0(%rbp)
    f1eb:	00 00 00 
    f1ee:	eb 14                	jmp    f204 <func_9+0xaec>
    f1f0:	8b 85 50 f7 ff ff    	mov    -0x8b0(%rbp),%eax
    f1f6:	48 98                	cltq   
    f1f8:	c6 44 05 c6 00       	movb   $0x0,-0x3a(%rbp,%rax,1)
    f1fd:	83 85 50 f7 ff ff 01 	addl   $0x1,-0x8b0(%rbp)
    f204:	83 bd 50 f7 ff ff 01 	cmpl   $0x1,-0x8b0(%rbp)
    f20b:	7e e3                	jle    f1f0 <func_9+0xad8>
    f20d:	0f b7 9d 1c f7 ff ff 	movzwl -0x8e4(%rbp),%ebx
    f214:	0f b6 45 c6          	movzbl -0x3a(%rbp),%eax
    f218:	44 0f b6 e0          	movzbl %al,%r12d
    f21c:	48 8b 85 a0 f7 ff ff 	mov    -0x860(%rbp),%rax
    f223:	8b 00                	mov    (%rax),%eax
    f225:	44 0f b7 e8          	movzwl %ax,%r13d
    f229:	48 8b 05 c0 b1 00 00 	mov    0xb1c0(%rip),%rax        # 1a3f0 <g_1080>
    f230:	44 0f bf f0          	movswl %ax,%r14d
    f234:	44 0f b7 bd 1c f7 ff 	movzwl -0x8e4(%rbp),%r15d
    f23b:	ff 
    f23c:	48 8b 85 a0 f7 ff ff 	mov    -0x860(%rbp),%rax
    f243:	8b 00                	mov    (%rax),%eax
    f245:	98                   	cwtl   
    f246:	89 c6                	mov    %eax,%esi
    f248:	bf b7 02 00 00       	mov    $0x2b7,%edi
    f24d:	e8 c4 a1 ff ff       	callq  9416 <safe_mod_func_int16_t_s_s>
    f252:	98                   	cwtl   
    f253:	44 89 fe             	mov    %r15d,%esi
    f256:	89 c7                	mov    %eax,%edi
    f258:	e8 c8 ac ff ff       	callq  9f25 <safe_div_func_uint32_t_u_u>
    f25d:	0f b7 05 84 b2 00 00 	movzwl 0xb284(%rip),%eax        # 1a4e8 <g_1578>
    f264:	48 8b 05 4d e0 00 00 	mov    0xe04d(%rip),%rax        # 1d2b8 <g_1448>
    f26b:	48 8b 00             	mov    (%rax),%rax
    f26e:	0f b6 00             	movzbl (%rax),%eax
    f271:	0f be c0             	movsbl %al,%eax
    f274:	89 c6                	mov    %eax,%esi
    f276:	bf ff ff ff ff       	mov    $0xffffffff,%edi
    f27b:	e8 92 9f ff ff       	callq  9212 <safe_mul_func_int8_t_s_s>
    f280:	0f be c0             	movsbl %al,%eax
    f283:	be 00 00 00 00       	mov    $0x0,%esi
    f288:	89 c7                	mov    %eax,%edi
    f28a:	e8 24 a1 ff ff       	callq  93b3 <safe_add_func_int16_t_s_s>
    f28f:	0f be c0             	movsbl %al,%eax
    f292:	be 00 00 00 00       	mov    $0x0,%esi
    f297:	89 c7                	mov    %eax,%edi
    f299:	e8 50 a0 ff ff       	callq  92ee <safe_lshift_func_int8_t_s_u>
    f29e:	0f be c0             	movsbl %al,%eax
    f2a1:	44 89 f6             	mov    %r14d,%esi
    f2a4:	89 c7                	mov    %eax,%edi
    f2a6:	e8 6b a1 ff ff       	callq  9416 <safe_mod_func_int16_t_s_s>
    f2ab:	89 c2                	mov    %eax,%edx
    f2ad:	48 8b 85 28 f7 ff ff 	mov    -0x8d8(%rbp),%rax
    f2b4:	88 10                	mov    %dl,(%rax)
    f2b6:	48 8b 85 28 f7 ff ff 	mov    -0x8d8(%rbp),%rax
    f2bd:	0f b6 00             	movzbl (%rax),%eax
    f2c0:	0f be c0             	movsbl %al,%eax
    f2c3:	be 61 00 00 00       	mov    $0x61,%esi
    f2c8:	89 c7                	mov    %eax,%edi
    f2ca:	e8 9b 9f ff ff       	callq  926a <safe_div_func_int8_t_s_s>
    f2cf:	0f be d0             	movsbl %al,%edx
    f2d2:	48 8b 85 a0 f7 ff ff 	mov    -0x860(%rbp),%rax
    f2d9:	8b 00                	mov    (%rax),%eax
    f2db:	39 c2                	cmp    %eax,%edx
    f2dd:	0f 9e c0             	setle  %al
    f2e0:	0f b6 c0             	movzbl %al,%eax
    f2e3:	44 89 ee             	mov    %r13d,%esi
    f2e6:	89 c7                	mov    %eax,%edi
    f2e8:	e8 6f aa ff ff       	callq  9d5c <safe_mod_func_uint16_t_u_u>
    f2ed:	0f b7 c0             	movzwl %ax,%eax
    f2f0:	48 83 e0 fc          	and    $0xfffffffffffffffc,%rax
    f2f4:	31 85 90 f7 ff ff    	xor    %eax,-0x870(%rbp)
    f2fa:	8b 85 90 f7 ff ff    	mov    -0x870(%rbp),%eax
    f300:	48 98                	cltq   
    f302:	4c 89 e6             	mov    %r12,%rsi
    f305:	48 89 c7             	mov    %rax,%rdi
    f308:	e8 73 ad ff ff       	callq  a080 <safe_mod_func_uint64_t_u_u>
    f30d:	48 89 de             	mov    %rbx,%rsi
    f310:	48 89 c7             	mov    %rax,%rdi
    f313:	e8 97 ad ff ff       	callq  a0af <safe_div_func_uint64_t_u_u>
    f318:	66 83 bd 3a f7 ff ff 	cmpw   $0x0,-0x8c6(%rbp)
    f31f:	00 
    f320:	0f 85 64 01 00 00    	jne    f48a <func_9+0xd72>
    f326:	48 8d 05 b3 f3 00 00 	lea    0xf3b3(%rip),%rax        # 1e6e0 <g_1024>
    f32d:	48 89 85 a8 f8 ff ff 	mov    %rax,-0x758(%rbp)
    f334:	8b 05 ee ad 00 00    	mov    0xadee(%rip),%eax        # 1a128 <g_86>
    f33a:	85 c0                	test   %eax,%eax
    f33c:	74 05                	je     f343 <func_9+0xc2b>
    f33e:	e9 21 fa ff ff       	jmpq   ed64 <func_9+0x64c>
    f343:	0f b7 05 9a b1 00 00 	movzwl 0xb19a(%rip),%eax        # 1a4e4 <g_1562>
    f34a:	44 0f bf e8          	movswl %ax,%r13d
    f34e:	8b 05 b4 b3 00 00    	mov    0xb3b4(%rip),%eax        # 1a708 <g_2303+0xa8>
    f354:	48 63 d8             	movslq %eax,%rbx
    f357:	48 8b 05 f2 db 00 00 	mov    0xdbf2(%rip),%rax        # 1cf50 <g_1199>
    f35e:	48 8b 00             	mov    (%rax),%rax
    f361:	8b 00                	mov    (%rax),%eax
    f363:	85 c0                	test   %eax,%eax
    f365:	0f 94 c0             	sete   %al
    f368:	44 0f b6 f0          	movzbl %al,%r14d
    f36c:	44 0f b7 a5 1c f7 ff 	movzwl -0x8e4(%rbp),%r12d
    f373:	ff 
    f374:	be 0f 00 00 00       	mov    $0xf,%esi
    f379:	bf b5 90 ff ff       	mov    $0xffff90b5,%edi
    f37e:	e8 e0 a1 ff ff       	callq  9563 <safe_rshift_func_int16_t_s_u>
    f383:	48 0f bf c0          	movswq %ax,%rax
    f387:	4c 89 e6             	mov    %r12,%rsi
    f38a:	48 89 c7             	mov    %rax,%rdi
    f38d:	e8 22 a6 ff ff       	callq  99b4 <safe_mod_func_int64_t_s_s>
    f392:	0f be c0             	movsbl %al,%eax
    f395:	be 06 00 00 00       	mov    $0x6,%esi
    f39a:	89 c7                	mov    %eax,%edi
    f39c:	e8 4d 9f ff ff       	callq  92ee <safe_lshift_func_int8_t_s_u>
    f3a1:	0f be c0             	movsbl %al,%eax
    f3a4:	be 02 00 00 00       	mov    $0x2,%esi
    f3a9:	89 c7                	mov    %eax,%edi
    f3ab:	e8 e2 a0 ff ff       	callq  9492 <safe_lshift_func_int16_t_s_s>
    f3b0:	44 0f be e0          	movsbl %al,%r12d
    f3b4:	0f b7 85 1c f7 ff ff 	movzwl -0x8e4(%rbp),%eax
    f3bb:	be 00 00 00 00       	mov    $0x0,%esi
    f3c0:	89 c7                	mov    %eax,%edi
    f3c2:	e8 3e a2 ff ff       	callq  9605 <safe_sub_func_int32_t_s_s>
    f3c7:	89 c2                	mov    %eax,%edx
    f3c9:	48 8b 85 28 f7 ff ff 	mov    -0x8d8(%rbp),%rax
    f3d0:	0f b6 00             	movzbl (%rax),%eax
    f3d3:	21 c2                	and    %eax,%edx
    f3d5:	48 8b 85 28 f7 ff ff 	mov    -0x8d8(%rbp),%rax
    f3dc:	88 10                	mov    %dl,(%rax)
    f3de:	48 8b 85 28 f7 ff ff 	mov    -0x8d8(%rbp),%rax
    f3e5:	0f b6 00             	movzbl (%rax),%eax
    f3e8:	0f be c0             	movsbl %al,%eax
    f3eb:	44 89 e6             	mov    %r12d,%esi
    f3ee:	89 c7                	mov    %eax,%edi
    f3f0:	e8 75 9e ff ff       	callq  926a <safe_div_func_int8_t_s_s>
    f3f5:	0f be c0             	movsbl %al,%eax
    f3f8:	41 39 c6             	cmp    %eax,%r14d
    f3fb:	0f 9c c0             	setl   %al
    f3fe:	0f b6 d0             	movzbl %al,%edx
    f401:	8b 05 81 75 00 00    	mov    0x7581(%rip),%eax        # 16988 <l_2489.4659+0x8>
    f407:	39 c2                	cmp    %eax,%edx
    f409:	0f 94 c0             	sete   %al
    f40c:	0f b6 c0             	movzbl %al,%eax
    f40f:	48 89 de             	mov    %rbx,%rsi
    f412:	48 89 c7             	mov    %rax,%rdi
    f415:	e8 14 ac ff ff       	callq  a02e <safe_add_func_uint64_t_u_u>
    f41a:	be f8 ff ff ff       	mov    $0xfffffff8,%esi
    f41f:	89 c7                	mov    %eax,%edi
    f421:	e8 92 aa ff ff       	callq  9eb8 <safe_add_func_uint32_t_u_u>
    f426:	0f be d0             	movsbl %al,%edx
    f429:	48 8b 05 d0 de 00 00 	mov    0xded0(%rip),%rax        # 1d300 <g_1590>
    f430:	48 8b 00             	mov    (%rax),%rax
    f433:	48 8b 8d 70 f9 ff ff 	mov    -0x690(%rbp),%rcx
    f43a:	48 89 08             	mov    %rcx,(%rax)
    f43d:	48 8b 00             	mov    (%rax),%rax
    f440:	48 89 85 a8 f8 ff ff 	mov    %rax,-0x758(%rbp)
    f447:	48 8b 85 a8 f8 ff ff 	mov    -0x758(%rbp),%rax
    f44e:	48 3b 85 80 f8 ff ff 	cmp    -0x780(%rbp),%rax
    f455:	0f 95 c0             	setne  %al
    f458:	0f b6 c0             	movzbl %al,%eax
    f45b:	89 d6                	mov    %edx,%esi
    f45d:	89 c7                	mov    %eax,%edi
    f45f:	e8 cd 9d ff ff       	callq  9231 <safe_mod_func_int8_t_s_s>
    f464:	0f be c0             	movsbl %al,%eax
    f467:	be 73 2a 93 98       	mov    $0x98932a73,%esi
    f46c:	89 c7                	mov    %eax,%edi
    f46e:	e8 5d aa ff ff       	callq  9ed0 <safe_sub_func_uint32_t_u_u>
    f473:	41 39 c5             	cmp    %eax,%r13d
    f476:	0f 92 c2             	setb   %dl
    f479:	48 8b 85 a0 f7 ff ff 	mov    -0x860(%rbp),%rax
    f480:	0f b6 d2             	movzbl %dl,%edx
    f483:	89 10                	mov    %edx,(%rax)
    f485:	e9 00 02 00 00       	jmpq   f68a <func_9+0xf72>
    f48a:	48 c7 85 a0 f8 ff ff 	movq   $0x0,-0x760(%rbp)
    f491:	00 00 00 00 
    f495:	48 c7 05 88 b2 00 00 	movq   $0x0,0xb288(%rip)        # 1a728 <g_2366>
    f49c:	00 00 00 00 
    f4a0:	e9 63 01 00 00       	jmpq   f608 <func_9+0xef0>
    f4a5:	c7 85 98 f7 ff ff 3d 	movl   $0xd600b73d,-0x868(%rbp)
    f4ac:	b7 00 d6 
    f4af:	48 83 bd a0 f8 ff ff 	cmpq   $0x0,-0x760(%rbp)
    f4b6:	00 
    f4b7:	41 0f 94 c6          	sete   %r14b
    f4bb:	48 8d 05 5e dd 00 00 	lea    0xdd5e(%rip),%rax        # 1d220 <g_1414>
    f4c2:	48 8b 00             	mov    (%rax),%rax
    f4c5:	0f b7 08             	movzwl (%rax),%ecx
    f4c8:	0f b6 55 c6          	movzbl -0x3a(%rbp),%edx
    f4cc:	48 8b 05 ed dd 00 00 	mov    0xdded(%rip),%rax        # 1d2c0 <g_1447>
    f4d3:	48 8b 00             	mov    (%rax),%rax
    f4d6:	48 8b 00             	mov    (%rax),%rax
    f4d9:	0f b6 00             	movzbl (%rax),%eax
    f4dc:	38 c2                	cmp    %al,%dl
    f4de:	0f 96 c0             	setbe  %al
    f4e1:	0f b6 d0             	movzbl %al,%edx
    f4e4:	48 8d 05 35 dd 00 00 	lea    0xdd35(%rip),%rax        # 1d220 <g_1414>
    f4eb:	48 8b 00             	mov    (%rax),%rax
    f4ee:	21 ca                	and    %ecx,%edx
    f4f0:	66 89 10             	mov    %dx,(%rax)
    f4f3:	0f b7 00             	movzwl (%rax),%eax
    f4f6:	98                   	cwtl   
    f4f7:	be 04 00 00 00       	mov    $0x4,%esi
    f4fc:	89 c7                	mov    %eax,%edi
    f4fe:	e8 60 a0 ff ff       	callq  9563 <safe_rshift_func_int16_t_s_u>
    f503:	44 0f bf e8          	movswl %ax,%r13d
    f507:	0f b6 45 c6          	movzbl -0x3a(%rbp),%eax
    f50b:	0f b6 d8             	movzbl %al,%ebx
    f50e:	8b 85 90 f7 ff ff    	mov    -0x870(%rbp),%eax
    f514:	44 0f b7 e0          	movzwl %ax,%r12d
    f518:	0f b7 95 1c f7 ff ff 	movzwl -0x8e4(%rbp),%edx
    f51f:	8b 85 98 f7 ff ff    	mov    -0x868(%rbp),%eax
    f525:	89 d6                	mov    %edx,%esi
    f527:	89 c7                	mov    %eax,%edi
    f529:	e8 d1 a1 ff ff       	callq  96ff <safe_div_func_int32_t_s_s>
    f52e:	85 c0                	test   %eax,%eax
    f530:	75 08                	jne    f53a <func_9+0xe22>
    f532:	0f b6 45 c6          	movzbl -0x3a(%rbp),%eax
    f536:	84 c0                	test   %al,%al
    f538:	74 07                	je     f541 <func_9+0xe29>
    f53a:	b8 01 00 00 00       	mov    $0x1,%eax
    f53f:	eb 05                	jmp    f546 <func_9+0xe2e>
    f541:	b8 00 00 00 00       	mov    $0x0,%eax
    f546:	0f b7 c0             	movzwl %ax,%eax
    f549:	44 89 e6             	mov    %r12d,%esi
    f54c:	89 c7                	mov    %eax,%edi
    f54e:	e8 ea a7 ff ff       	callq  9d3d <safe_mul_func_uint16_t_u_u>
    f553:	48 8b 85 a0 f7 ff ff 	mov    -0x860(%rbp),%rax
    f55a:	8b 00                	mov    (%rax),%eax
    f55c:	0f b6 c0             	movzbl %al,%eax
    f55f:	89 de                	mov    %ebx,%esi
    f561:	89 c7                	mov    %eax,%edi
    f563:	e8 10 a6 ff ff       	callq  9b78 <safe_sub_func_uint8_t_u_u>
    f568:	0f b6 d0             	movzbl %al,%edx
    f56b:	0f b7 8d 1c f7 ff ff 	movzwl -0x8e4(%rbp),%ecx
    f572:	66 83 bd 1c f7 ff ff 	cmpw   $0x0,-0x8e4(%rbp)
    f579:	00 
    f57a:	74 17                	je     f593 <func_9+0xe7b>
    f57c:	48 8b 85 d8 f7 ff ff 	mov    -0x828(%rbp),%rax
    f583:	48 3b 85 88 f8 ff ff 	cmp    -0x778(%rbp),%rax
    f58a:	74 07                	je     f593 <func_9+0xe7b>
    f58c:	b8 01 00 00 00       	mov    $0x1,%eax
    f591:	eb 05                	jmp    f598 <func_9+0xe80>
    f593:	b8 00 00 00 00       	mov    $0x0,%eax
    f598:	39 c8                	cmp    %ecx,%eax
    f59a:	0f 95 c0             	setne  %al
    f59d:	0f b6 c0             	movzbl %al,%eax
    f5a0:	89 d6                	mov    %edx,%esi
    f5a2:	89 c7                	mov    %eax,%edi
    f5a4:	e8 5c a6 ff ff       	callq  9c05 <safe_lshift_func_uint8_t_u_s>
    f5a9:	3c f5                	cmp    $0xf5,%al
    f5ab:	0f 95 c0             	setne  %al
    f5ae:	0f b6 c0             	movzbl %al,%eax
    f5b1:	41 39 c5             	cmp    %eax,%r13d
    f5b4:	0f 9d c0             	setge  %al
    f5b7:	0f b6 d0             	movzbl %al,%edx
    f5ba:	0f b7 85 1c f7 ff ff 	movzwl -0x8e4(%rbp),%eax
    f5c1:	39 c2                	cmp    %eax,%edx
    f5c3:	7d 10                	jge    f5d5 <func_9+0xebd>
    f5c5:	83 bd 98 f7 ff ff 00 	cmpl   $0x0,-0x868(%rbp)
    f5cc:	74 07                	je     f5d5 <func_9+0xebd>
    f5ce:	b8 01 00 00 00       	mov    $0x1,%eax
    f5d3:	eb 05                	jmp    f5da <func_9+0xec2>
    f5d5:	b8 00 00 00 00       	mov    $0x0,%eax
    f5da:	83 e0 01             	and    $0x1,%eax
    f5dd:	44 89 f2             	mov    %r14d,%edx
    f5e0:	31 c2                	xor    %eax,%edx
    f5e2:	48 8b 85 a0 f7 ff ff 	mov    -0x860(%rbp),%rax
    f5e9:	0f b6 d2             	movzbl %dl,%edx
    f5ec:	89 10                	mov    %edx,(%rax)
    f5ee:	66 83 bd 1c f7 ff ff 	cmpw   $0x0,-0x8e4(%rbp)
    f5f5:	00 
    f5f6:	48 8b 05 2b b1 00 00 	mov    0xb12b(%rip),%rax        # 1a728 <g_2366>
    f5fd:	48 83 c0 01          	add    $0x1,%rax
    f601:	48 89 05 20 b1 00 00 	mov    %rax,0xb120(%rip)        # 1a728 <g_2366>
    f608:	48 8b 05 19 b1 00 00 	mov    0xb119(%rip),%rax        # 1a728 <g_2366>
    f60f:	48 83 f8 23          	cmp    $0x23,%rax
    f613:	0f 87 8c fe ff ff    	ja     f4a5 <func_9+0xd8d>
    f619:	c7 05 d5 ae 00 00 00 	movl   $0x0,0xaed5(%rip)        # 1a4f8 <g_1613>
    f620:	00 00 00 
    f623:	eb 5a                	jmp    f67f <func_9+0xf67>
    f625:	66 c7 85 3a f7 ff ff 	movw   $0x0,-0x8c6(%rbp)
    f62c:	00 00 
    f62e:	eb 36                	jmp    f666 <func_9+0xf4e>
    f630:	8b 0d c2 ae 00 00    	mov    0xaec2(%rip),%ecx        # 1a4f8 <g_1613>
    f636:	0f b7 85 3a f7 ff ff 	movzwl -0x8c6(%rbp),%eax
    f63d:	48 63 d0             	movslq %eax,%rdx
    f640:	89 c9                	mov    %ecx,%ecx
    f642:	48 89 c8             	mov    %rcx,%rax
    f645:	48 c1 e0 03          	shl    $0x3,%rax
    f649:	48 29 c8             	sub    %rcx,%rax
    f64c:	48 01 d0             	add    %rdx,%rax
    f64f:	48 8d 15 ea d6 00 00 	lea    0xd6ea(%rip),%rdx        # 1cd40 <g_153>
    f656:	48 89 94 c5 30 fb ff 	mov    %rdx,-0x4d0(%rbp,%rax,8)
    f65d:	ff 
    f65e:	66 83 85 3a f7 ff ff 	addw   $0x1,-0x8c6(%rbp)
    f665:	01 
    f666:	66 83 bd 3a f7 ff ff 	cmpw   $0x6,-0x8c6(%rbp)
    f66d:	06 
    f66e:	76 c0                	jbe    f630 <func_9+0xf18>
    f670:	8b 05 82 ae 00 00    	mov    0xae82(%rip),%eax        # 1a4f8 <g_1613>
    f676:	83 c0 01             	add    $0x1,%eax
    f679:	89 05 79 ae 00 00    	mov    %eax,0xae79(%rip)        # 1a4f8 <g_1613>
    f67f:	8b 05 73 ae 00 00    	mov    0xae73(%rip),%eax        # 1a4f8 <g_1613>
    f685:	83 f8 08             	cmp    $0x8,%eax
    f688:	76 9b                	jbe    f625 <func_9+0xf0d>
    f68a:	c6 05 93 aa 00 00 ea 	movb   $0xea,0xaa93(%rip)        # 1a124 <g_49>
    f691:	e9 68 01 00 00       	jmpq   f7fe <func_9+0x10e6>
    f696:	c7 85 9c f7 ff ff ff 	movl   $0xffffffff,-0x864(%rbp)
    f69d:	ff ff ff 
    f6a0:	c7 05 4e ae 00 00 1a 	movl   $0x1a,0xae4e(%rip)        # 1a4f8 <g_1613>
    f6a7:	00 00 00 
    f6aa:	eb 6e                	jmp    f71a <func_9+0x1002>
    f6ac:	48 c7 05 59 ef 00 00 	movq   $0xffffffffffffffe6,0xef59(%rip)        # 1e610 <g_169>
    f6b3:	e6 ff ff ff 
    f6b7:	eb 3b                	jmp    f6f4 <func_9+0xfdc>
    f6b9:	48 8b 05 58 dc 00 00 	mov    0xdc58(%rip),%rax        # 1d318 <g_1656>
    f6c0:	48 8b 95 e0 f7 ff ff 	mov    -0x820(%rbp),%rdx
    f6c7:	48 89 10             	mov    %rdx,(%rax)
    f6ca:	66 83 bd 1c f7 ff ff 	cmpw   $0x0,-0x8e4(%rbp)
    f6d1:	00 
    f6d2:	75 2f                	jne    f703 <func_9+0xfeb>
    f6d4:	48 8b 05 35 ef 00 00 	mov    0xef35(%rip),%rax        # 1e610 <g_169>
    f6db:	0f b7 c0             	movzwl %ax,%eax
    f6de:	be 06 00 00 00       	mov    $0x6,%esi
    f6e3:	89 c7                	mov    %eax,%edi
    f6e5:	e8 15 a6 ff ff       	callq  9cff <safe_add_func_uint16_t_u_u>
    f6ea:	0f b7 c0             	movzwl %ax,%eax
    f6ed:	48 89 05 1c ef 00 00 	mov    %rax,0xef1c(%rip)        # 1e610 <g_169>
    f6f4:	48 8b 05 15 ef 00 00 	mov    0xef15(%rip),%rax        # 1e610 <g_169>
    f6fb:	48 83 f8 08          	cmp    $0x8,%rax
    f6ff:	7f b8                	jg     f6b9 <func_9+0xfa1>
    f701:	eb 01                	jmp    f704 <func_9+0xfec>
    f703:	90                   	nop
    f704:	83 bd 8c f7 ff ff 00 	cmpl   $0x0,-0x874(%rbp)
    f70b:	8b 05 e7 ad 00 00    	mov    0xade7(%rip),%eax        # 1a4f8 <g_1613>
    f711:	83 c0 01             	add    $0x1,%eax
    f714:	89 05 de ad 00 00    	mov    %eax,0xadde(%rip)        # 1a4f8 <g_1613>
    f71a:	8b 05 d8 ad 00 00    	mov    0xadd8(%rip),%eax        # 1a4f8 <g_1613>
    f720:	83 f8 1e             	cmp    $0x1e,%eax
    f723:	74 87                	je     f6ac <func_9+0xf94>
    f725:	48 8b 05 fc dc 00 00 	mov    0xdcfc(%rip),%rax        # 1d428 <g_1744>
    f72c:	48 8b 95 c8 f8 ff ff 	mov    -0x738(%rbp),%rdx
    f733:	48 89 10             	mov    %rdx,(%rax)
    f736:	48 8b 00             	mov    (%rax),%rax
    f739:	48 39 85 90 f8 ff ff 	cmp    %rax,-0x770(%rbp)
    f740:	0f 94 c0             	sete   %al
    f743:	0f b6 d0             	movzbl %al,%edx
    f746:	0f b7 85 1c f7 ff ff 	movzwl -0x8e4(%rbp),%eax
    f74d:	48 89 d6             	mov    %rdx,%rsi
    f750:	48 89 c7             	mov    %rax,%rdi
    f753:	e8 f3 a8 ff ff       	callq  a04b <safe_sub_func_uint64_t_u_u>
    f758:	89 c3                	mov    %eax,%ebx
    f75a:	0f b7 85 1c f7 ff ff 	movzwl -0x8e4(%rbp),%eax
    f761:	83 e0 04             	and    $0x4,%eax
    f764:	48 85 c0             	test   %rax,%rax
    f767:	74 08                	je     f771 <func_9+0x1059>
    f769:	66 83 bd 1c f7 ff ff 	cmpw   $0x0,-0x8e4(%rbp)
    f770:	00 
    f771:	be 00 00 00 00       	mov    $0x0,%esi
    f776:	bf 00 00 00 00       	mov    $0x0,%edi
    f77b:	e8 7f a5 ff ff       	callq  9cff <safe_add_func_uint16_t_u_u>
    f780:	21 d8                	and    %ebx,%eax
    f782:	0f b7 d0             	movzwl %ax,%edx
    f785:	8b 05 ad ae 00 00    	mov    0xaead(%rip),%eax        # 1a638 <g_2218>
    f78b:	0f b7 c0             	movzwl %ax,%eax
    f78e:	89 d6                	mov    %edx,%esi
    f790:	89 c7                	mov    %eax,%edi
    f792:	e8 a6 a5 ff ff       	callq  9d3d <safe_mul_func_uint16_t_u_u>
    f797:	66 85 c0             	test   %ax,%ax
    f79a:	74 0c                	je     f7a8 <func_9+0x1090>
    f79c:	48 8b 85 20 f7 ff ff 	mov    -0x8e0(%rbp),%rax
    f7a3:	e9 c1 04 00 00       	jmpq   fc69 <func_9+0x1551>
    f7a8:	48 8d 05 79 a9 00 00 	lea    0xa979(%rip),%rax        # 1a128 <g_86>
    f7af:	48 89 85 b0 f8 ff ff 	mov    %rax,-0x750(%rbp)
    f7b6:	48 8b 85 a0 f7 ff ff 	mov    -0x860(%rbp),%rax
    f7bd:	8b 08                	mov    (%rax),%ecx
    f7bf:	0f b7 95 1c f7 ff ff 	movzwl -0x8e4(%rbp),%edx
    f7c6:	48 8b 85 a0 f7 ff ff 	mov    -0x860(%rbp),%rax
    f7cd:	21 ca                	and    %ecx,%edx
    f7cf:	89 10                	mov    %edx,(%rax)
    f7d1:	48 8b 05 a8 e3 00 00 	mov    0xe3a8(%rip),%rax        # 1db80 <g_2527>
    f7d8:	48 8b 95 b0 f8 ff ff 	mov    -0x750(%rbp),%rdx
    f7df:	48 89 10             	mov    %rdx,(%rax)
    f7e2:	0f b6 45 c6          	movzbl -0x3a(%rbp),%eax
    f7e6:	84 c0                	test   %al,%al
    f7e8:	0f 85 70 04 00 00    	jne    fc5e <func_9+0x1546>
    f7ee:	0f b6 05 2f a9 00 00 	movzbl 0xa92f(%rip),%eax        # 1a124 <g_49>
    f7f5:	83 c0 01             	add    $0x1,%eax
    f7f8:	88 05 26 a9 00 00    	mov    %al,0xa926(%rip)        # 1a124 <g_49>
    f7fe:	0f b6 05 1f a9 00 00 	movzbl 0xa91f(%rip),%eax        # 1a124 <g_49>
    f805:	3c fe                	cmp    $0xfe,%al
    f807:	0f 8c 89 fe ff ff    	jl     f696 <func_9+0xf7e>
    f80d:	e9 4d 04 00 00       	jmpq   fc5f <func_9+0x1547>
    f812:	c7 85 70 f7 ff ff 29 	movl   $0x8a568329,-0x890(%rbp)
    f819:	83 56 8a 
    f81c:	48 8d 05 05 dc 00 00 	lea    0xdc05(%rip),%rax        # 1d428 <g_1744>
    f823:	48 89 85 b0 f7 ff ff 	mov    %rax,-0x850(%rbp)
    f82a:	48 8d 85 b0 f7 ff ff 	lea    -0x850(%rbp),%rax
    f831:	48 89 85 b8 f7 ff ff 	mov    %rax,-0x848(%rbp)
    f838:	48 8d 85 b8 f7 ff ff 	lea    -0x848(%rbp),%rax
    f83f:	48 89 85 40 f8 ff ff 	mov    %rax,-0x7c0(%rbp)
    f846:	c7 85 74 f7 ff ff 03 	movl   $0x3,-0x88c(%rbp)
    f84d:	00 00 00 
    f850:	c7 85 44 f7 ff ff 4b 	movl   $0x3b6a064b,-0x8bc(%rbp)
    f857:	06 6a 3b 
    f85a:	c7 85 78 f7 ff ff 94 	movl   $0x3e263c94,-0x888(%rbp)
    f861:	3c 26 3e 
    f864:	c7 85 7c f7 ff ff 6c 	movl   $0xe17ef06c,-0x884(%rbp)
    f86b:	f0 7e e1 
    f86e:	c7 85 48 f7 ff ff b8 	movl   $0xa6adbb8,-0x8b8(%rbp)
    f875:	db 6a 0a 
    f878:	c7 85 80 f7 ff ff c2 	movl   $0xb7d21ac2,-0x880(%rbp)
    f87f:	1a d2 b7 
    f882:	c7 85 4c f7 ff ff 05 	movl   $0x5,-0x8b4(%rbp)
    f889:	00 00 00 
    f88c:	c7 85 84 f7 ff ff 93 	movl   $0x7126593,-0x87c(%rbp)
    f893:	65 12 07 
    f896:	c7 85 88 f7 ff ff ff 	movl   $0xffffffff,-0x878(%rbp)
    f89d:	ff ff ff 
    f8a0:	48 8d 05 e9 a8 00 00 	lea    0xa8e9(%rip),%rax        # 1a190 <g_146+0x10>
    f8a7:	48 89 85 48 f8 ff ff 	mov    %rax,-0x7b8(%rbp)
    f8ae:	48 8d 85 a0 f7 ff ff 	lea    -0x860(%rbp),%rax
    f8b5:	48 89 85 50 f8 ff ff 	mov    %rax,-0x7b0(%rbp)
    f8bc:	c7 05 7a aa 00 00 00 	movl   $0x0,0xaa7a(%rip)        # 1a340 <g_758>
    f8c3:	00 00 00 
    f8c6:	e9 72 03 00 00       	jmpq   fc3d <func_9+0x1525>
    f8cb:	66 c7 85 3e f7 ff ff 	movw   $0x1,-0x8c2(%rbp)
    f8d2:	01 00 
    f8d4:	c7 85 e0 f8 ff ff d1 	movl   $0xd8ba51d1,-0x720(%rbp)
    f8db:	51 ba d8 
    f8de:	c7 85 e4 f8 ff ff ae 	movl   $0x2e51a4ae,-0x71c(%rbp)
    f8e5:	a4 51 2e 
    f8e8:	c7 85 e8 f8 ff ff ae 	movl   $0x2e51a4ae,-0x718(%rbp)
    f8ef:	a4 51 2e 
    f8f2:	c7 85 ec f8 ff ff d1 	movl   $0xd8ba51d1,-0x714(%rbp)
    f8f9:	51 ba d8 
    f8fc:	c7 85 f0 f8 ff ff ae 	movl   $0x2e51a4ae,-0x710(%rbp)
    f903:	a4 51 2e 
    f906:	c7 85 f4 f8 ff ff ae 	movl   $0x2e51a4ae,-0x70c(%rbp)
    f90d:	a4 51 2e 
    f910:	c7 85 f8 f8 ff ff d1 	movl   $0xd8ba51d1,-0x708(%rbp)
    f917:	51 ba d8 
    f91a:	c7 85 fc f8 ff ff ae 	movl   $0x2e51a4ae,-0x704(%rbp)
    f921:	a4 51 2e 
    f924:	48 c7 85 c0 f7 ff ff 	movq   $0x0,-0x840(%rbp)
    f92b:	00 00 00 00 
    f92f:	48 8d 85 00 f9 ff ff 	lea    -0x700(%rbp),%rax
    f936:	48 83 c0 08          	add    $0x8,%rax
    f93a:	48 89 85 58 f8 ff ff 	mov    %rax,-0x7a8(%rbp)
    f941:	48 8d 85 40 f7 ff ff 	lea    -0x8c0(%rbp),%rax
    f948:	48 89 85 30 fd ff ff 	mov    %rax,-0x2d0(%rbp)
    f94f:	48 8d 05 d2 a7 00 00 	lea    0xa7d2(%rip),%rax        # 1a128 <g_86>
    f956:	48 89 85 38 fd ff ff 	mov    %rax,-0x2c8(%rbp)
    f95d:	48 8d 85 44 f7 ff ff 	lea    -0x8bc(%rbp),%rax
    f964:	48 89 85 40 fd ff ff 	mov    %rax,-0x2c0(%rbp)
    f96b:	48 8d 05 b6 a7 00 00 	lea    0xa7b6(%rip),%rax        # 1a128 <g_86>
    f972:	48 89 85 48 fd ff ff 	mov    %rax,-0x2b8(%rbp)
    f979:	48 8d 85 40 f7 ff ff 	lea    -0x8c0(%rbp),%rax
    f980:	48 89 85 50 fd ff ff 	mov    %rax,-0x2b0(%rbp)
    f987:	48 8d 05 22 a8 00 00 	lea    0xa822(%rip),%rax        # 1a1b0 <g_234>
    f98e:	48 89 85 58 fd ff ff 	mov    %rax,-0x2a8(%rbp)
    f995:	48 8d 05 14 a8 00 00 	lea    0xa814(%rip),%rax        # 1a1b0 <g_234>
    f99c:	48 89 85 60 fd ff ff 	mov    %rax,-0x2a0(%rbp)
    f9a3:	48 8d 85 40 f7 ff ff 	lea    -0x8c0(%rbp),%rax
    f9aa:	48 89 85 68 fd ff ff 	mov    %rax,-0x298(%rbp)
    f9b1:	48 8d 05 70 a7 00 00 	lea    0xa770(%rip),%rax        # 1a128 <g_86>
    f9b8:	48 89 85 70 fd ff ff 	mov    %rax,-0x290(%rbp)
    f9bf:	48 8d 85 44 f7 ff ff 	lea    -0x8bc(%rbp),%rax
    f9c6:	48 89 85 78 fd ff ff 	mov    %rax,-0x288(%rbp)
    f9cd:	48 8d 85 40 f7 ff ff 	lea    -0x8c0(%rbp),%rax
    f9d4:	48 89 85 80 fd ff ff 	mov    %rax,-0x280(%rbp)
    f9db:	48 8d 85 40 f7 ff ff 	lea    -0x8c0(%rbp),%rax
    f9e2:	48 89 85 88 fd ff ff 	mov    %rax,-0x278(%rbp)
    f9e9:	48 8d 85 44 f7 ff ff 	lea    -0x8bc(%rbp),%rax
    f9f0:	48 89 85 90 fd ff ff 	mov    %rax,-0x270(%rbp)
    f9f7:	48 8d 85 40 f7 ff ff 	lea    -0x8c0(%rbp),%rax
    f9fe:	48 89 85 98 fd ff ff 	mov    %rax,-0x268(%rbp)
    fa05:	48 c7 85 a0 fd ff ff 	movq   $0x0,-0x260(%rbp)
    fa0c:	00 00 00 00 
    fa10:	48 8d 85 40 f7 ff ff 	lea    -0x8c0(%rbp),%rax
    fa17:	48 89 85 a8 fd ff ff 	mov    %rax,-0x258(%rbp)
    fa1e:	48 8d 85 44 f7 ff ff 	lea    -0x8bc(%rbp),%rax
    fa25:	48 89 85 b0 fd ff ff 	mov    %rax,-0x250(%rbp)
    fa2c:	48 8d 85 40 f7 ff ff 	lea    -0x8c0(%rbp),%rax
    fa33:	48 89 85 b8 fd ff ff 	mov    %rax,-0x248(%rbp)
    fa3a:	48 8d 85 40 f7 ff ff 	lea    -0x8c0(%rbp),%rax
    fa41:	48 89 85 c0 fd ff ff 	mov    %rax,-0x240(%rbp)
    fa48:	48 8d 85 44 f7 ff ff 	lea    -0x8bc(%rbp),%rax
    fa4f:	48 89 85 c8 fd ff ff 	mov    %rax,-0x238(%rbp)
    fa56:	48 8d 05 cb a6 00 00 	lea    0xa6cb(%rip),%rax        # 1a128 <g_86>
    fa5d:	48 89 85 d0 fd ff ff 	mov    %rax,-0x230(%rbp)
    fa64:	48 8d 85 40 f7 ff ff 	lea    -0x8c0(%rbp),%rax
    fa6b:	48 89 85 d8 fd ff ff 	mov    %rax,-0x228(%rbp)
    fa72:	48 8d 05 37 a7 00 00 	lea    0xa737(%rip),%rax        # 1a1b0 <g_234>
    fa79:	48 89 85 e0 fd ff ff 	mov    %rax,-0x220(%rbp)
    fa80:	48 8d 05 29 a7 00 00 	lea    0xa729(%rip),%rax        # 1a1b0 <g_234>
    fa87:	48 89 85 e8 fd ff ff 	mov    %rax,-0x218(%rbp)
    fa8e:	48 8d 85 40 f7 ff ff 	lea    -0x8c0(%rbp),%rax
    fa95:	48 89 85 f0 fd ff ff 	mov    %rax,-0x210(%rbp)
    fa9c:	48 8d 05 85 a6 00 00 	lea    0xa685(%rip),%rax        # 1a128 <g_86>
    faa3:	48 89 85 f8 fd ff ff 	mov    %rax,-0x208(%rbp)
    faaa:	48 8d 85 44 f7 ff ff 	lea    -0x8bc(%rbp),%rax
    fab1:	48 89 85 00 fe ff ff 	mov    %rax,-0x200(%rbp)
    fab8:	48 8d 05 69 a6 00 00 	lea    0xa669(%rip),%rax        # 1a128 <g_86>
    fabf:	48 89 85 08 fe ff ff 	mov    %rax,-0x1f8(%rbp)
    fac6:	48 8d 85 40 f7 ff ff 	lea    -0x8c0(%rbp),%rax
    facd:	48 89 85 10 fe ff ff 	mov    %rax,-0x1f0(%rbp)
    fad4:	48 8d 05 d5 a6 00 00 	lea    0xa6d5(%rip),%rax        # 1a1b0 <g_234>
    fadb:	48 89 85 18 fe ff ff 	mov    %rax,-0x1e8(%rbp)
    fae2:	48 8d 05 37 a6 00 00 	lea    0xa637(%rip),%rax        # 1a120 <g_4>
    fae9:	48 89 85 20 fe ff ff 	mov    %rax,-0x1e0(%rbp)
    faf0:	48 c7 85 28 fe ff ff 	movq   $0x0,-0x1d8(%rbp)
    faf7:	00 00 00 00 
    fafb:	48 8d 85 40 f7 ff ff 	lea    -0x8c0(%rbp),%rax
    fb02:	48 89 85 30 fe ff ff 	mov    %rax,-0x1d0(%rbp)
    fb09:	48 8d 85 44 f7 ff ff 	lea    -0x8bc(%rbp),%rax
    fb10:	48 89 85 38 fe ff ff 	mov    %rax,-0x1c8(%rbp)
    fb17:	48 8d 85 40 f7 ff ff 	lea    -0x8c0(%rbp),%rax
    fb1e:	48 89 85 40 fe ff ff 	mov    %rax,-0x1c0(%rbp)
    fb25:	48 8d 85 40 f7 ff ff 	lea    -0x8c0(%rbp),%rax
    fb2c:	48 89 85 48 fe ff ff 	mov    %rax,-0x1b8(%rbp)
    fb33:	48 8d 85 44 f7 ff ff 	lea    -0x8bc(%rbp),%rax
    fb3a:	48 89 85 50 fe ff ff 	mov    %rax,-0x1b0(%rbp)
    fb41:	48 8d 85 40 f7 ff ff 	lea    -0x8c0(%rbp),%rax
    fb48:	48 89 85 58 fe ff ff 	mov    %rax,-0x1a8(%rbp)
    fb4f:	48 c7 85 60 fe ff ff 	movq   $0x0,-0x1a0(%rbp)
    fb56:	00 00 00 00 
    fb5a:	48 8d 85 40 f7 ff ff 	lea    -0x8c0(%rbp),%rax
    fb61:	48 89 85 68 fe ff ff 	mov    %rax,-0x198(%rbp)
    fb68:	48 c7 85 60 f8 ff ff 	movq   $0x0,-0x7a0(%rbp)
    fb6f:	00 00 00 00 
    fb73:	48 8d 05 fe d6 00 00 	lea    0xd6fe(%rip),%rax        # 1d278 <g_1412+0x38>
    fb7a:	48 89 85 68 f8 ff ff 	mov    %rax,-0x798(%rbp)
    fb81:	48 8d 85 a8 f7 ff ff 	lea    -0x858(%rbp),%rax
    fb88:	48 89 85 70 f8 ff ff 	mov    %rax,-0x790(%rbp)
    fb8f:	48 8d 05 aa d8 00 00 	lea    0xd8aa(%rip),%rax        # 1d440 <g_1822>
    fb96:	48 89 85 78 f8 ff ff 	mov    %rax,-0x788(%rbp)
    fb9d:	c7 85 54 f7 ff ff 00 	movl   $0x0,-0x8ac(%rbp)
    fba4:	00 00 00 
    fba7:	eb 1e                	jmp    fbc7 <func_9+0x14af>
    fba9:	8b 85 54 f7 ff ff    	mov    -0x8ac(%rbp),%eax
    fbaf:	48 98                	cltq   
    fbb1:	48 8d 95 c0 f7 ff ff 	lea    -0x840(%rbp),%rdx
    fbb8:	48 89 94 c5 00 f9 ff 	mov    %rdx,-0x700(%rbp,%rax,8)
    fbbf:	ff 
    fbc0:	83 85 54 f7 ff ff 01 	addl   $0x1,-0x8ac(%rbp)
    fbc7:	83 bd 54 f7 ff ff 03 	cmpl   $0x3,-0x8ac(%rbp)
    fbce:	7e d9                	jle    fba9 <func_9+0x1491>
    fbd0:	c7 85 54 f7 ff ff 00 	movl   $0x0,-0x8ac(%rbp)
    fbd7:	00 00 00 
    fbda:	eb 49                	jmp    fc25 <func_9+0x150d>
    fbdc:	c7 85 58 f7 ff ff 00 	movl   $0x0,-0x8a8(%rbp)
    fbe3:	00 00 00 
    fbe6:	eb 2d                	jmp    fc15 <func_9+0x14fd>
    fbe8:	8b 85 58 f7 ff ff    	mov    -0x8a8(%rbp),%eax
    fbee:	48 98                	cltq   
    fbf0:	8b 95 54 f7 ff ff    	mov    -0x8ac(%rbp),%edx
    fbf6:	48 63 d2             	movslq %edx,%rdx
    fbf9:	48 01 d2             	add    %rdx,%rdx
    fbfc:	48 01 c2             	add    %rax,%rdx
    fbff:	48 8d 85 4c f7 ff ff 	lea    -0x8b4(%rbp),%rax
    fc06:	48 89 84 d5 c0 f9 ff 	mov    %rax,-0x640(%rbp,%rdx,8)
    fc0d:	ff 
    fc0e:	83 85 58 f7 ff ff 01 	addl   $0x1,-0x8a8(%rbp)
    fc15:	83 bd 58 f7 ff ff 01 	cmpl   $0x1,-0x8a8(%rbp)
    fc1c:	7e ca                	jle    fbe8 <func_9+0x14d0>
    fc1e:	83 85 54 f7 ff ff 01 	addl   $0x1,-0x8ac(%rbp)
    fc25:	83 bd 54 f7 ff ff 08 	cmpl   $0x8,-0x8ac(%rbp)
    fc2c:	7e ae                	jle    fbdc <func_9+0x14c4>
    fc2e:	8b 05 0c a7 00 00    	mov    0xa70c(%rip),%eax        # 1a340 <g_758>
    fc34:	83 c0 01             	add    $0x1,%eax
    fc37:	89 05 03 a7 00 00    	mov    %eax,0xa703(%rip)        # 1a340 <g_758>
    fc3d:	8b 05 fd a6 00 00    	mov    0xa6fd(%rip),%eax        # 1a340 <g_758>
    fc43:	85 c0                	test   %eax,%eax
    fc45:	0f 84 80 fc ff ff    	je     f8cb <func_9+0x11b3>
    fc4b:	48 8b 85 50 f8 ff ff 	mov    -0x7b0(%rbp),%rax
    fc52:	48 8d 95 48 f7 ff ff 	lea    -0x8b8(%rbp),%rdx
    fc59:	48 89 10             	mov    %rdx,(%rax)
    fc5c:	eb 01                	jmp    fc5f <func_9+0x1547>
    fc5e:	90                   	nop
    fc5f:	48 8b 05 ca d0 00 00 	mov    0xd0ca(%rip),%rax        # 1cd30 <g_135>
    fc66:	48 8b 00             	mov    (%rax),%rax
    fc69:	48 8b 5d c8          	mov    -0x38(%rbp),%rbx
    fc6d:	64 48 33 1c 25 28 00 	xor    %fs:0x28,%rbx
    fc74:	00 00 
    fc76:	74 05                	je     fc7d <func_9+0x1565>
    fc78:	e8 f3 93 ff ff       	callq  9070 <__stack_chk_fail@plt>
    fc7d:	48 81 c4 c8 08 00 00 	add    $0x8c8,%rsp
    fc84:	5b                   	pop    %rbx
    fc85:	41 5c                	pop    %r12
    fc87:	41 5d                	pop    %r13
    fc89:	41 5e                	pop    %r14
    fc8b:	41 5f                	pop    %r15
    fc8d:	5d                   	pop    %rbp
    fc8e:	c3                   	retq   

000000000000fc8f <func_16>:
    fc8f:	f3 0f 1e fa          	endbr64 
    fc93:	55                   	push   %rbp
    fc94:	48 89 e5             	mov    %rsp,%rbp
    fc97:	41 57                	push   %r15
    fc99:	41 56                	push   %r14
    fc9b:	41 55                	push   %r13
    fc9d:	41 54                	push   %r12
    fc9f:	53                   	push   %rbx
    fca0:	48 81 ec a8 05 00 00 	sub    $0x5a8,%rsp
    fca7:	48 89 bd 48 fa ff ff 	mov    %rdi,-0x5b8(%rbp)
    fcae:	64 48 8b 04 25 28 00 	mov    %fs:0x28,%rax
    fcb5:	00 00 
    fcb7:	48 89 45 c8          	mov    %rax,-0x38(%rbp)
    fcbb:	31 c0                	xor    %eax,%eax
    fcbd:	c7 85 80 fa ff ff ff 	movl   $0xffffffff,-0x580(%rbp)
    fcc4:	ff ff ff 
    fcc7:	48 8d 05 56 a4 00 00 	lea    0xa456(%rip),%rax        # 1a124 <g_49>
    fcce:	48 89 85 b8 fa ff ff 	mov    %rax,-0x548(%rbp)
    fcd5:	c7 85 84 fa ff ff 22 	movl   $0xb817ae22,-0x57c(%rbp)
    fcdc:	ae 17 b8 
    fcdf:	48 8d 05 4a e9 00 00 	lea    0xe94a(%rip),%rax        # 1e630 <g_532>
    fce6:	48 89 85 c0 fa ff ff 	mov    %rax,-0x540(%rbp)
    fced:	48 b8 c2 b5 9a de 4d 	movabs $0x7ebd004dde9ab5c2,%rax
    fcf4:	00 bd 7e 
    fcf7:	48 89 85 c8 fa ff ff 	mov    %rax,-0x538(%rbp)
    fcfe:	c7 85 74 fa ff ff 00 	movl   $0x0,-0x58c(%rbp)
    fd05:	00 00 00 
    fd08:	eb 1a                	jmp    fd24 <func_16+0x95>
    fd0a:	8b 85 74 fa ff ff    	mov    -0x58c(%rbp),%eax
    fd10:	48 98                	cltq   
    fd12:	c7 84 85 40 fb ff ff 	movl   $0x4,-0x4c0(%rbp,%rax,4)
    fd19:	04 00 00 00 
    fd1d:	83 85 74 fa ff ff 01 	addl   $0x1,-0x58c(%rbp)
    fd24:	83 bd 74 fa ff ff 07 	cmpl   $0x7,-0x58c(%rbp)
    fd2b:	7e dd                	jle    fd0a <func_16+0x7b>
    fd2d:	c7 85 74 fa ff ff 00 	movl   $0x0,-0x58c(%rbp)
    fd34:	00 00 00 
    fd37:	eb 73                	jmp    fdac <func_16+0x11d>
    fd39:	c7 85 78 fa ff ff 00 	movl   $0x0,-0x588(%rbp)
    fd40:	00 00 00 
    fd43:	eb 57                	jmp    fd9c <func_16+0x10d>
    fd45:	c7 85 7c fa ff ff 00 	movl   $0x0,-0x584(%rbp)
    fd4c:	00 00 00 
    fd4f:	eb 3b                	jmp    fd8c <func_16+0xfd>
    fd51:	8b 85 7c fa ff ff    	mov    -0x584(%rbp),%eax
    fd57:	48 63 c8             	movslq %eax,%rcx
    fd5a:	8b 85 74 fa ff ff    	mov    -0x58c(%rbp),%eax
    fd60:	48 63 d0             	movslq %eax,%rdx
    fd63:	8b 85 78 fa ff ff    	mov    -0x588(%rbp),%eax
    fd69:	48 98                	cltq   
    fd6b:	48 01 c2             	add    %rax,%rdx
    fd6e:	48 89 d0             	mov    %rdx,%rax
    fd71:	48 01 c0             	add    %rax,%rax
    fd74:	48 01 d0             	add    %rdx,%rax
    fd77:	48 01 c8             	add    %rcx,%rax
    fd7a:	c7 84 85 60 fb ff ff 	movl   $0x0,-0x4a0(%rbp,%rax,4)
    fd81:	00 00 00 00 
    fd85:	83 85 7c fa ff ff 01 	addl   $0x1,-0x584(%rbp)
    fd8c:	83 bd 7c fa ff ff 02 	cmpl   $0x2,-0x584(%rbp)
    fd93:	7e bc                	jle    fd51 <func_16+0xc2>
    fd95:	83 85 78 fa ff ff 01 	addl   $0x1,-0x588(%rbp)
    fd9c:	83 bd 78 fa ff ff 00 	cmpl   $0x0,-0x588(%rbp)
    fda3:	7e a0                	jle    fd45 <func_16+0xb6>
    fda5:	83 85 74 fa ff ff 01 	addl   $0x1,-0x58c(%rbp)
    fdac:	83 bd 74 fa ff ff 07 	cmpl   $0x7,-0x58c(%rbp)
    fdb3:	7e 84                	jle    fd39 <func_16+0xaa>
    fdb5:	48 8b 85 48 fa ff ff 	mov    -0x5b8(%rbp),%rax
    fdbc:	48 85 c0             	test   %rax,%rax
    fdbf:	0f 94 c0             	sete   %al
    fdc2:	0f b6 c0             	movzbl %al,%eax
    fdc5:	be 01 00 00 00       	mov    $0x1,%esi
    fdca:	89 c7                	mov    %eax,%edi
    fdcc:	e8 77 a0 ff ff       	callq  9e48 <safe_rshift_func_uint16_t_u_s>
    fdd1:	8b 85 80 fa ff ff    	mov    -0x580(%rbp),%eax
    fdd7:	0f b6 c0             	movzbl %al,%eax
    fdda:	89 85 44 fa ff ff    	mov    %eax,-0x5bc(%rbp)
    fde0:	8b 85 80 fa ff ff    	mov    -0x580(%rbp),%eax
    fde6:	44 0f bf e8          	movswl %ax,%r13d
    fdea:	0f b7 05 c9 a3 00 00 	movzwl 0xa3c9(%rip),%eax        # 1a1ba <g_331+0x2>
    fdf1:	4c 0f bf e0          	movswq %ax,%r12
    fdf5:	8b 85 80 fa ff ff    	mov    -0x580(%rbp),%eax
    fdfb:	0f b6 d8             	movzbl %al,%ebx
    fdfe:	48 8b 85 48 fa ff ff 	mov    -0x5b8(%rbp),%rax
    fe05:	48 89 85 38 fa ff ff 	mov    %rax,-0x5c8(%rbp)
    fe0c:	44 8b bd 80 fa ff ff 	mov    -0x580(%rbp),%r15d
    fe13:	8b 85 80 fa ff ff    	mov    -0x580(%rbp),%eax
    fe19:	44 0f b7 f0          	movzwl %ax,%r14d
    fe1d:	48 8b 8d 48 fa ff ff 	mov    -0x5b8(%rbp),%rcx
    fe24:	8b 95 80 fa ff ff    	mov    -0x580(%rbp),%edx
    fe2a:	48 8b b5 48 fa ff ff 	mov    -0x5b8(%rbp),%rsi
    fe31:	8b 85 80 fa ff ff    	mov    -0x580(%rbp),%eax
    fe37:	89 c7                	mov    %eax,%edi
    fe39:	e8 3e 2b 00 00       	callq  1297c <func_42>
    fe3e:	0f be c0             	movsbl %al,%eax
    fe41:	48 8b 95 b8 fa ff ff 	mov    -0x548(%rbp),%rdx
    fe48:	4c 8b 85 38 fa ff ff 	mov    -0x5c8(%rbp),%r8
    fe4f:	44 89 f9             	mov    %r15d,%ecx
    fe52:	44 89 f6             	mov    %r14d,%esi
    fe55:	89 c7                	mov    %eax,%edi
    fe57:	e8 a0 25 00 00       	callq  123fc <func_36>
    fe5c:	48 8b 05 2d cf 00 00 	mov    0xcf2d(%rip),%rax        # 1cd90 <g_421>
    fe63:	48 8b 00             	mov    (%rax),%rax
    fe66:	48 89 c7             	mov    %rax,%rdi
    fe69:	e8 c7 1e 00 00       	callq  11d35 <func_34>
    fe6e:	48 89 c2             	mov    %rax,%rdx
    fe71:	8b 85 80 fa ff ff    	mov    -0x580(%rbp),%eax
    fe77:	48 98                	cltq   
    fe79:	48 89 d6             	mov    %rdx,%rsi
    fe7c:	48 89 c7             	mov    %rax,%rdi
    fe7f:	e8 2b a2 ff ff       	callq  a0af <safe_div_func_uint64_t_u_u>
    fe84:	48 85 c0             	test   %rax,%rax
    fe87:	75 07                	jne    fe90 <func_16+0x201>
    fe89:	83 bd 80 fa ff ff 00 	cmpl   $0x0,-0x580(%rbp)
    fe90:	8b 85 80 fa ff ff    	mov    -0x580(%rbp),%eax
    fe96:	98                   	cwtl   
    fe97:	44 8b 85 44 fa ff ff 	mov    -0x5bc(%rbp),%r8d
    fe9e:	44 89 e9             	mov    %r13d,%ecx
    fea1:	4c 89 e2             	mov    %r12,%rdx
    fea4:	89 de                	mov    %ebx,%esi
    fea6:	89 c7                	mov    %eax,%edi
    fea8:	e8 da 1c 00 00       	callq  11b87 <func_26>
    fead:	48 89 c2             	mov    %rax,%rdx
    feb0:	8b 85 80 fa ff ff    	mov    -0x580(%rbp),%eax
    feb6:	0f b7 c0             	movzwl %ax,%eax
    feb9:	48 89 d6             	mov    %rdx,%rsi
    febc:	89 c7                	mov    %eax,%edi
    febe:	e8 f8 0a 00 00       	callq  109bb <func_22>
    fec3:	c7 85 88 fa ff ff fb 	movl   $0xfffffffb,-0x578(%rbp)
    feca:	ff ff ff 
    fecd:	48 8d 05 fc a4 00 00 	lea    0xa4fc(%rip),%rax        # 1a3d0 <g_941+0x30>
    fed4:	48 89 85 d0 fa ff ff 	mov    %rax,-0x530(%rbp)
    fedb:	48 8d 05 9a a2 00 00 	lea    0xa29a(%rip),%rax        # 1a17c <g_141>
    fee2:	48 89 85 d8 fa ff ff 	mov    %rax,-0x528(%rbp)
    fee9:	c7 85 20 fc ff ff f7 	movl   $0xfffffff7,-0x3e0(%rbp)
    fef0:	ff ff ff 
    fef3:	c7 85 24 fc ff ff 05 	movl   $0x5,-0x3dc(%rbp)
    fefa:	00 00 00 
    fefd:	c7 85 28 fc ff ff 3a 	movl   $0xb02af3a,-0x3d8(%rbp)
    ff04:	af 02 0b 
    ff07:	c7 85 2c fc ff ff 4a 	movl   $0xabaaeb4a,-0x3d4(%rbp)
    ff0e:	eb aa ab 
    ff11:	c7 85 30 fc ff ff ff 	movl   $0xffffffff,-0x3d0(%rbp)
    ff18:	ff ff ff 
    ff1b:	c7 85 34 fc ff ff 5a 	movl   $0xec2f625a,-0x3cc(%rbp)
    ff22:	62 2f ec 
    ff25:	c7 85 38 fc ff ff ff 	movl   $0xffffffff,-0x3c8(%rbp)
    ff2c:	ff ff ff 
    ff2f:	c7 85 3c fc ff ff 4a 	movl   $0xabaaeb4a,-0x3c4(%rbp)
    ff36:	eb aa ab 
    ff39:	c7 85 40 fc ff ff 3a 	movl   $0xb02af3a,-0x3c0(%rbp)
    ff40:	af 02 0b 
    ff43:	c7 85 44 fc ff ff 05 	movl   $0x5,-0x3bc(%rbp)
    ff4a:	00 00 00 
    ff4d:	c7 85 48 fc ff ff f7 	movl   $0xfffffff7,-0x3b8(%rbp)
    ff54:	ff ff ff 
    ff57:	c7 85 4c fc ff ff 02 	movl   $0x9afaf402,-0x3b4(%rbp)
    ff5e:	f4 fa 9a 
    ff61:	c7 85 50 fc ff ff 67 	movl   $0x517c4867,-0x3b0(%rbp)
    ff68:	48 7c 51 
    ff6b:	c7 85 54 fc ff ff 60 	movl   $0xce28ec60,-0x3ac(%rbp)
    ff72:	ec 28 ce 
    ff75:	c7 85 58 fc ff ff 60 	movl   $0xce28ec60,-0x3a8(%rbp)
    ff7c:	ec 28 ce 
    ff7f:	c7 85 5c fc ff ff 67 	movl   $0x517c4867,-0x3a4(%rbp)
    ff86:	48 7c 51 
    ff89:	c7 85 60 fc ff ff 02 	movl   $0x9afaf402,-0x3a0(%rbp)
    ff90:	f4 fa 9a 
    ff93:	c7 85 64 fc ff ff f7 	movl   $0xfffffff7,-0x39c(%rbp)
    ff9a:	ff ff ff 
    ff9d:	c7 85 68 fc ff ff 05 	movl   $0x5,-0x398(%rbp)
    ffa4:	00 00 00 
    ffa7:	c7 85 6c fc ff ff 3a 	movl   $0xb02af3a,-0x394(%rbp)
    ffae:	af 02 0b 
    ffb1:	c7 85 70 fc ff ff 4a 	movl   $0xabaaeb4a,-0x390(%rbp)
    ffb8:	eb aa ab 
    ffbb:	c7 85 74 fc ff ff ff 	movl   $0xffffffff,-0x38c(%rbp)
    ffc2:	ff ff ff 
    ffc5:	c7 85 78 fc ff ff 5a 	movl   $0xec2f625a,-0x388(%rbp)
    ffcc:	62 2f ec 
    ffcf:	c7 85 7c fc ff ff ff 	movl   $0xffffffff,-0x384(%rbp)
    ffd6:	ff ff ff 
    ffd9:	c7 85 80 fc ff ff 4a 	movl   $0xabaaeb4a,-0x380(%rbp)
    ffe0:	eb aa ab 
    ffe3:	c7 85 84 fc ff ff 3a 	movl   $0xb02af3a,-0x37c(%rbp)
    ffea:	af 02 0b 
    ffed:	c7 85 88 fc ff ff 05 	movl   $0x5,-0x378(%rbp)
    fff4:	00 00 00 
    fff7:	c7 85 8c fc ff ff f7 	movl   $0xfffffff7,-0x374(%rbp)
    fffe:	ff ff ff 
   10001:	c7 85 90 fc ff ff 02 	movl   $0x9afaf402,-0x370(%rbp)
   10008:	f4 fa 9a 
   1000b:	c7 85 94 fc ff ff 67 	movl   $0x517c4867,-0x36c(%rbp)
   10012:	48 7c 51 
   10015:	c7 85 98 fc ff ff 60 	movl   $0xce28ec60,-0x368(%rbp)
   1001c:	ec 28 ce 
   1001f:	c7 85 9c fc ff ff 60 	movl   $0xce28ec60,-0x364(%rbp)
   10026:	ec 28 ce 
   10029:	c7 85 a0 fc ff ff 67 	movl   $0x517c4867,-0x360(%rbp)
   10030:	48 7c 51 
   10033:	c7 85 a4 fc ff ff 02 	movl   $0x9afaf402,-0x35c(%rbp)
   1003a:	f4 fa 9a 
   1003d:	c7 85 a8 fc ff ff f7 	movl   $0xfffffff7,-0x358(%rbp)
   10044:	ff ff ff 
   10047:	c7 85 ac fc ff ff 05 	movl   $0x5,-0x354(%rbp)
   1004e:	00 00 00 
   10051:	c7 85 b0 fc ff ff 3a 	movl   $0xb02af3a,-0x350(%rbp)
   10058:	af 02 0b 
   1005b:	c7 85 b4 fc ff ff 4a 	movl   $0xabaaeb4a,-0x34c(%rbp)
   10062:	eb aa ab 
   10065:	c7 85 b8 fc ff ff ff 	movl   $0xffffffff,-0x348(%rbp)
   1006c:	ff ff ff 
   1006f:	c7 85 bc fc ff ff 5a 	movl   $0xec2f625a,-0x344(%rbp)
   10076:	62 2f ec 
   10079:	c7 85 c0 fc ff ff ff 	movl   $0xffffffff,-0x340(%rbp)
   10080:	ff ff ff 
   10083:	c7 85 c4 fc ff ff 4a 	movl   $0xabaaeb4a,-0x33c(%rbp)
   1008a:	eb aa ab 
   1008d:	c7 85 c8 fc ff ff 3a 	movl   $0xb02af3a,-0x338(%rbp)
   10094:	af 02 0b 
   10097:	c7 85 cc fc ff ff 05 	movl   $0x5,-0x334(%rbp)
   1009e:	00 00 00 
   100a1:	c7 85 d0 fc ff ff f7 	movl   $0xfffffff7,-0x330(%rbp)
   100a8:	ff ff ff 
   100ab:	c7 85 d4 fc ff ff 02 	movl   $0x9afaf402,-0x32c(%rbp)
   100b2:	f4 fa 9a 
   100b5:	c7 85 d8 fc ff ff 67 	movl   $0x517c4867,-0x328(%rbp)
   100bc:	48 7c 51 
   100bf:	c7 85 dc fc ff ff 60 	movl   $0xce28ec60,-0x324(%rbp)
   100c6:	ec 28 ce 
   100c9:	c7 85 e0 fc ff ff 60 	movl   $0xce28ec60,-0x320(%rbp)
   100d0:	ec 28 ce 
   100d3:	48 8d 05 36 d2 00 00 	lea    0xd236(%rip),%rax        # 1d310 <g_1657>
   100da:	48 89 85 e0 fa ff ff 	mov    %rax,-0x520(%rbp)
   100e1:	48 8d 05 40 d3 00 00 	lea    0xd340(%rip),%rax        # 1d428 <g_1744>
   100e8:	48 89 85 a0 fa ff ff 	mov    %rax,-0x560(%rbp)
   100ef:	48 8d 85 a0 fa ff ff 	lea    -0x560(%rbp),%rax
   100f6:	48 89 85 a8 fa ff ff 	mov    %rax,-0x558(%rbp)
   100fd:	48 8d 05 8c cc 00 00 	lea    0xcc8c(%rip),%rax        # 1cd90 <g_421>
   10104:	48 89 85 e8 fa ff ff 	mov    %rax,-0x518(%rbp)
   1010b:	48 8d 05 7e cc 00 00 	lea    0xcc7e(%rip),%rax        # 1cd90 <g_421>
   10112:	48 89 85 f0 fa ff ff 	mov    %rax,-0x510(%rbp)
   10119:	8b 85 80 fa ff ff    	mov    -0x580(%rbp),%eax
   1011f:	48 63 d8             	movslq %eax,%rbx
   10122:	8b 05 74 a4 00 00    	mov    0xa474(%rip),%eax        # 1a59c <g_2021>
   10128:	85 c0                	test   %eax,%eax
   1012a:	0f 85 eb 00 00 00    	jne    1021b <func_16+0x58c>
   10130:	c7 85 48 fb ff ff 6d 	movl   $0x9a7f366d,-0x4b8(%rbp)
   10137:	36 7f 9a 
   1013a:	b8 00 00 00 00       	mov    $0x0,%eax
   1013f:	4c 0f bf e0          	movswq %ax,%r12
   10143:	48 8b 85 48 fa ff ff 	mov    -0x5b8(%rbp),%rax
   1014a:	0f b6 00             	movzbl (%rax),%eax
   1014d:	44 0f be e8          	movsbl %al,%r13d
   10151:	8b 85 88 fa ff ff    	mov    -0x578(%rbp),%eax
   10157:	89 85 a0 fb ff ff    	mov    %eax,-0x460(%rbp)
   1015d:	8b 85 a0 fb ff ff    	mov    -0x460(%rbp),%eax
   10163:	41 89 c6             	mov    %eax,%r14d
   10166:	48 8b 85 d0 fa ff ff 	mov    -0x530(%rbp),%rax
   1016d:	48 8b 00             	mov    (%rax),%rax
   10170:	48 8d 48 ff          	lea    -0x1(%rax),%rcx
   10174:	48 8b 95 d0 fa ff ff 	mov    -0x530(%rbp),%rdx
   1017b:	48 89 0a             	mov    %rcx,(%rdx)
   1017e:	41 89 c7             	mov    %eax,%r15d
   10181:	8b 85 80 fa ff ff    	mov    -0x580(%rbp),%eax
   10187:	0f b6 c0             	movzbl %al,%eax
   1018a:	be 05 00 00 00       	mov    $0x5,%esi
   1018f:	89 c7                	mov    %eax,%edi
   10191:	e8 f7 9a ff ff       	callq  9c8d <safe_rshift_func_uint8_t_u_s>
   10196:	0f b6 d0             	movzbl %al,%edx
   10199:	48 8b 05 98 d2 00 00 	mov    0xd298(%rip),%rax        # 1d438 <g_1823>
   101a0:	48 8b 00             	mov    (%rax),%rax
   101a3:	0f b7 00             	movzwl (%rax),%eax
   101a6:	98                   	cwtl   
   101a7:	39 c2                	cmp    %eax,%edx
   101a9:	0f 94 c0             	sete   %al
   101ac:	0f b6 d0             	movzbl %al,%edx
   101af:	48 8b 85 48 fa ff ff 	mov    -0x5b8(%rbp),%rax
   101b6:	48 85 c0             	test   %rax,%rax
   101b9:	0f 94 c0             	sete   %al
   101bc:	0f b6 c0             	movzbl %al,%eax
   101bf:	89 d6                	mov    %edx,%esi
   101c1:	89 c7                	mov    %eax,%edi
   101c3:	e8 eb 91 ff ff       	callq  93b3 <safe_add_func_int16_t_s_s>
   101c8:	98                   	cwtl   
   101c9:	44 31 f8             	xor    %r15d,%eax
   101cc:	44 09 f0             	or     %r14d,%eax
   101cf:	33 85 88 fa ff ff    	xor    -0x578(%rbp),%eax
   101d5:	be a4 9a bb 56       	mov    $0x56bb9aa4,%esi
   101da:	89 c7                	mov    %eax,%edi
   101dc:	e8 d7 9c ff ff       	callq  9eb8 <safe_add_func_uint32_t_u_u>
   101e1:	85 c0                	test   %eax,%eax
   101e3:	0f 95 c0             	setne  %al
   101e6:	0f b6 c0             	movzbl %al,%eax
   101e9:	44 89 ee             	mov    %r13d,%esi
   101ec:	89 c7                	mov    %eax,%edi
   101ee:	e8 42 91 ff ff       	callq  9335 <safe_rshift_func_int8_t_s_s>
   101f3:	48 0f be c0          	movsbq %al,%rax
   101f7:	4c 89 e6             	mov    %r12,%rsi
   101fa:	48 89 c7             	mov    %rax,%rdi
   101fd:	e8 7e 9e ff ff       	callq  a080 <safe_mod_func_uint64_t_u_u>
   10202:	89 c2                	mov    %eax,%edx
   10204:	8b 85 84 fa ff ff    	mov    -0x57c(%rbp),%eax
   1020a:	31 d0                	xor    %edx,%eax
   1020c:	89 85 84 fa ff ff    	mov    %eax,-0x57c(%rbp)
   10212:	83 bd 84 fa ff ff 00 	cmpl   $0x0,-0x57c(%rbp)
   10219:	74 07                	je     10222 <func_16+0x593>
   1021b:	b8 01 00 00 00       	mov    $0x1,%eax
   10220:	eb 05                	jmp    10227 <func_16+0x598>
   10222:	b8 00 00 00 00       	mov    $0x0,%eax
   10227:	83 f8 11             	cmp    $0x11,%eax
   1022a:	0f 9e c0             	setle  %al
   1022d:	0f b6 d0             	movzbl %al,%edx
   10230:	48 8b 85 d8 fa ff ff 	mov    -0x528(%rbp),%rax
   10237:	0f b7 00             	movzwl (%rax),%eax
   1023a:	09 c2                	or     %eax,%edx
   1023c:	48 8b 85 d8 fa ff ff 	mov    -0x528(%rbp),%rax
   10243:	66 89 10             	mov    %dx,(%rax)
   10246:	48 8b 85 d8 fa ff ff 	mov    -0x528(%rbp),%rax
   1024d:	0f b7 00             	movzwl (%rax),%eax
   10250:	98                   	cwtl   
   10251:	39 85 80 fa ff ff    	cmp    %eax,-0x580(%rbp)
   10257:	0f 9c c0             	setl   %al
   1025a:	0f b6 c0             	movzbl %al,%eax
   1025d:	48 89 de             	mov    %rbx,%rsi
   10260:	48 89 c7             	mov    %rax,%rdi
   10263:	e8 18 9e ff ff       	callq  a080 <safe_mod_func_uint64_t_u_u>
   10268:	8b 95 50 fc ff ff    	mov    -0x3b0(%rbp),%edx
   1026e:	31 d0                	xor    %edx,%eax
   10270:	89 85 50 fc ff ff    	mov    %eax,-0x3b0(%rbp)
   10276:	c7 05 30 9f 00 00 fc 	movl   $0xfffffffc,0x9f30(%rip)        # 1a1b0 <g_234>
   1027d:	ff ff ff 
   10280:	e9 ca 04 00 00       	jmpq   1074f <func_16+0xac0>
   10285:	48 8d 85 60 fb ff ff 	lea    -0x4a0(%rbp),%rax
   1028c:	48 83 c0 54          	add    $0x54,%rax
   10290:	48 89 85 b0 fa ff ff 	mov    %rax,-0x550(%rbp)
   10297:	c7 85 94 fa ff ff b3 	movl   $0xb4d6cdb3,-0x56c(%rbp)
   1029e:	cd d6 b4 
   102a1:	c7 85 60 fa ff ff 9c 	movl   $0x2bd1629c,-0x5a0(%rbp)
   102a8:	62 d1 2b 
   102ab:	c6 85 5f fa ff ff 86 	movb   $0x86,-0x5a1(%rbp)
   102b2:	c7 85 64 fa ff ff 00 	movl   $0x0,-0x59c(%rbp)
   102b9:	00 00 00 
   102bc:	eb 1e                	jmp    102dc <func_16+0x64d>
   102be:	8b 85 64 fa ff ff    	mov    -0x59c(%rbp),%eax
   102c4:	48 98                	cltq   
   102c6:	48 8d 15 bb ca 00 00 	lea    0xcabb(%rip),%rdx        # 1cd88 <g_422>
   102cd:	48 89 94 c5 30 fb ff 	mov    %rdx,-0x4d0(%rbp,%rax,8)
   102d4:	ff 
   102d5:	83 85 64 fa ff ff 01 	addl   $0x1,-0x59c(%rbp)
   102dc:	83 bd 64 fa ff ff 01 	cmpl   $0x1,-0x59c(%rbp)
   102e3:	7e d9                	jle    102be <func_16+0x62f>
   102e5:	c7 05 89 9e 00 00 00 	movl   $0x0,0x9e89(%rip)        # 1a178 <g_139>
   102ec:	00 00 00 
   102ef:	90                   	nop
   102f0:	8b 05 82 9e 00 00    	mov    0x9e82(%rip),%eax        # 1a178 <g_139>
   102f6:	83 f8 0a             	cmp    $0xa,%eax
   102f9:	0f 86 83 00 00 00    	jbe    10382 <func_16+0x6f3>
   102ff:	c7 85 68 fa ff ff 00 	movl   $0x0,-0x598(%rbp)
   10306:	00 00 00 
   10309:	eb 46                	jmp    10351 <func_16+0x6c2>
   1030b:	c7 85 6c fa ff ff 00 	movl   $0x0,-0x594(%rbp)
   10312:	00 00 00 
   10315:	eb 2a                	jmp    10341 <func_16+0x6b2>
   10317:	8b 85 6c fa ff ff    	mov    -0x594(%rbp),%eax
   1031d:	48 63 d0             	movslq %eax,%rdx
   10320:	8b 85 68 fa ff ff    	mov    -0x598(%rbp),%eax
   10326:	48 98                	cltq   
   10328:	48 01 d0             	add    %rdx,%rax
   1032b:	48 8d 15 f6 c9 00 00 	lea    0xc9f6(%rip),%rdx        # 1cd28 <g_87>
   10332:	48 89 94 c5 f0 fc ff 	mov    %rdx,-0x310(%rbp,%rax,8)
   10339:	ff 
   1033a:	83 85 6c fa ff ff 01 	addl   $0x1,-0x594(%rbp)
   10341:	83 bd 6c fa ff ff 00 	cmpl   $0x0,-0x594(%rbp)
   10348:	7e cd                	jle    10317 <func_16+0x688>
   1034a:	83 85 68 fa ff ff 01 	addl   $0x1,-0x598(%rbp)
   10351:	83 bd 68 fa ff ff 04 	cmpl   $0x4,-0x598(%rbp)
   10358:	7e b1                	jle    1030b <func_16+0x67c>
   1035a:	48 8d 85 40 fb ff ff 	lea    -0x4c0(%rbp),%rax
   10361:	48 83 c0 08          	add    $0x8,%rax
   10365:	48 89 85 b0 fa ff ff 	mov    %rax,-0x550(%rbp)
   1036c:	8b 85 ac fb ff ff    	mov    -0x454(%rbp),%eax
   10372:	85 c0                	test   %eax,%eax
   10374:	75 0b                	jne    10381 <func_16+0x6f2>
   10376:	8b 85 48 fb ff ff    	mov    -0x4b8(%rbp),%eax
   1037c:	e9 14 06 00 00       	jmpq   10995 <func_16+0xd06>
   10381:	90                   	nop
   10382:	66 c7 05 6d e3 00 00 	movw   $0xffe7,0xe36d(%rip)        # 1e6f8 <g_1553>
   10389:	e7 ff 
   1038b:	e9 9c 03 00 00       	jmpq   1072c <func_16+0xa9d>
   10390:	48 8d 85 a8 fa ff ff 	lea    -0x558(%rbp),%rax
   10397:	48 89 85 10 fb ff ff 	mov    %rax,-0x4f0(%rbp)
   1039e:	48 8d 85 f0 fc ff ff 	lea    -0x310(%rbp),%rax
   103a5:	48 8d 15 94 b8 00 00 	lea    0xb894(%rip),%rdx        # 1bc40 <g_3271+0x10bc>
   103ac:	b9 5a 00 00 00       	mov    $0x5a,%ecx
   103b1:	48 89 c7             	mov    %rax,%rdi
   103b4:	48 89 d6             	mov    %rdx,%rsi
   103b7:	f3 48 a5             	rep movsq %ds:(%rsi),%es:(%rdi)
   103ba:	48 8d 05 83 a2 00 00 	lea    0xa283(%rip),%rax        # 1a644 <g_2280>
   103c1:	48 89 85 c0 fb ff ff 	mov    %rax,-0x440(%rbp)
   103c8:	48 c7 85 c8 fb ff ff 	movq   $0x0,-0x438(%rbp)
   103cf:	00 00 00 00 
   103d3:	48 c7 85 d0 fb ff ff 	movq   $0x0,-0x430(%rbp)
   103da:	00 00 00 00 
   103de:	48 8d 05 5f a2 00 00 	lea    0xa25f(%rip),%rax        # 1a644 <g_2280>
   103e5:	48 89 85 d8 fb ff ff 	mov    %rax,-0x428(%rbp)
   103ec:	48 8d 05 ad a1 00 00 	lea    0xa1ad(%rip),%rax        # 1a5a0 <g_2025>
   103f3:	48 89 85 e0 fb ff ff 	mov    %rax,-0x420(%rbp)
   103fa:	48 8d 05 9f a1 00 00 	lea    0xa19f(%rip),%rax        # 1a5a0 <g_2025>
   10401:	48 89 85 e8 fb ff ff 	mov    %rax,-0x418(%rbp)
   10408:	48 8d 05 91 a1 00 00 	lea    0xa191(%rip),%rax        # 1a5a0 <g_2025>
   1040f:	48 89 85 f0 fb ff ff 	mov    %rax,-0x410(%rbp)
   10416:	48 8d 05 27 a2 00 00 	lea    0xa227(%rip),%rax        # 1a644 <g_2280>
   1041d:	48 89 85 f8 fb ff ff 	mov    %rax,-0x408(%rbp)
   10424:	48 c7 85 00 fc ff ff 	movq   $0x0,-0x400(%rbp)
   1042b:	00 00 00 00 
   1042f:	48 c7 85 08 fc ff ff 	movq   $0x0,-0x3f8(%rbp)
   10436:	00 00 00 00 
   1043a:	48 8d 05 03 a2 00 00 	lea    0xa203(%rip),%rax        # 1a644 <g_2280>
   10441:	48 89 85 10 fc ff ff 	mov    %rax,-0x3f0(%rbp)
   10448:	48 c7 85 18 fc ff ff 	movq   $0x0,-0x3e8(%rbp)
   1044f:	00 00 00 00 
   10453:	c7 85 98 fa ff ff b9 	movl   $0x81b9d4b9,-0x568(%rbp)
   1045a:	d4 b9 81 
   1045d:	48 8d 05 c4 e1 00 00 	lea    0xe1c4(%rip),%rax        # 1e628 <g_514>
   10464:	48 89 85 18 fb ff ff 	mov    %rax,-0x4e8(%rbp)
   1046b:	48 c7 85 20 fb ff ff 	movq   $0x0,-0x4e0(%rbp)
   10472:	00 00 00 00 
   10476:	8b 9d 88 fa ff ff    	mov    -0x578(%rbp),%ebx
   1047c:	48 8b 05 9d cd 00 00 	mov    0xcd9d(%rip),%rax        # 1d220 <g_1414>
   10483:	0f b7 00             	movzwl (%rax),%eax
   10486:	44 0f b7 e0          	movzwl %ax,%r12d
   1048a:	48 8b 85 d0 fa ff ff 	mov    -0x530(%rbp),%rax
   10491:	48 8b 00             	mov    (%rax),%rax
   10494:	48 8d 50 01          	lea    0x1(%rax),%rdx
   10498:	48 8b 85 d0 fa ff ff 	mov    -0x530(%rbp),%rax
   1049f:	48 89 10             	mov    %rdx,(%rax)
   104a2:	8b 85 98 fa ff ff    	mov    -0x568(%rbp),%eax
   104a8:	44 0f b7 e8          	movzwl %ax,%r13d
   104ac:	8b 85 80 fa ff ff    	mov    -0x580(%rbp),%eax
   104b2:	44 0f bf f0          	movswl %ax,%r14d
   104b6:	8b 85 88 fa ff ff    	mov    -0x578(%rbp),%eax
   104bc:	98                   	cwtl   
   104bd:	be 02 00 00 00       	mov    $0x2,%esi
   104c2:	89 c7                	mov    %eax,%edi
   104c4:	e8 61 90 ff ff       	callq  952a <safe_rshift_func_int16_t_s_s>
   104c9:	98                   	cwtl   
   104ca:	44 89 f6             	mov    %r14d,%esi
   104cd:	89 c7                	mov    %eax,%edi
   104cf:	e8 21 8f ff ff       	callq  93f5 <safe_mul_func_int16_t_s_s>
   104d4:	0f b6 d0             	movzbl %al,%edx
   104d7:	48 8b 05 e2 cd 00 00 	mov    0xcde2(%rip),%rax        # 1d2c0 <g_1447>
   104de:	48 8b 00             	mov    (%rax),%rax
   104e1:	48 8b 00             	mov    (%rax),%rax
   104e4:	0f b6 00             	movzbl (%rax),%eax
   104e7:	0f b6 c0             	movzbl %al,%eax
   104ea:	89 d6                	mov    %edx,%esi
   104ec:	89 c7                	mov    %eax,%edi
   104ee:	e8 e8 96 ff ff       	callq  9bdb <safe_div_func_uint8_t_u_u>
   104f3:	0f b6 c0             	movzbl %al,%eax
   104f6:	48 89 05 f3 9e 00 00 	mov    %rax,0x9ef3(%rip)        # 1a3f0 <g_1080>
   104fd:	48 8b 05 ec 9e 00 00 	mov    0x9eec(%rip),%rax        # 1a3f0 <g_1080>
   10504:	89 85 50 fc ff ff    	mov    %eax,-0x3b0(%rbp)
   1050a:	8b 95 50 fc ff ff    	mov    -0x3b0(%rbp),%edx
   10510:	b8 02 00 00 00       	mov    $0x2,%eax
   10515:	0f b7 c0             	movzwl %ax,%eax
   10518:	09 d0                	or     %edx,%eax
   1051a:	48 98                	cltq   
   1051c:	48 c7 c6 f9 ff ff ff 	mov    $0xfffffffffffffff9,%rsi
   10523:	48 89 c7             	mov    %rax,%rdi
   10526:	e8 55 9b ff ff       	callq  a080 <safe_mod_func_uint64_t_u_u>
   1052b:	b8 01 00 00 00       	mov    $0x1,%eax
   10530:	89 05 82 a0 00 00    	mov    %eax,0xa082(%rip)        # 1a5b8 <g_2029+0x8>
   10536:	48 8b 95 a8 fa ff ff 	mov    -0x558(%rbp),%rdx
   1053d:	48 8b 85 10 fb ff ff 	mov    -0x4f0(%rbp),%rax
   10544:	48 89 10             	mov    %rdx,(%rax)
   10547:	48 83 bd e0 fa ff ff 	cmpq   $0x0,-0x520(%rbp)
   1054e:	00 
   1054f:	0f 94 c0             	sete   %al
   10552:	0f b6 d0             	movzbl %al,%edx
   10555:	48 8b 85 b0 fa ff ff 	mov    -0x550(%rbp),%rax
   1055c:	89 10                	mov    %edx,(%rax)
   1055e:	44 89 ee             	mov    %r13d,%esi
   10561:	bf 01 00 00 00       	mov    $0x1,%edi
   10566:	e8 94 97 ff ff       	callq  9cff <safe_add_func_uint16_t_u_u>
   1056b:	48 8b 85 18 fb ff ff 	mov    -0x4e8(%rbp),%rax
   10572:	c7 00 00 00 00 00    	movl   $0x0,(%rax)
   10578:	48 8b 85 18 fb ff ff 	mov    -0x4e8(%rbp),%rax
   1057f:	8b 00                	mov    (%rax),%eax
   10581:	8b 95 88 fa ff ff    	mov    -0x578(%rbp),%edx
   10587:	89 d6                	mov    %edx,%esi
   10589:	89 c7                	mov    %eax,%edi
   1058b:	e8 6d 99 ff ff       	callq  9efd <safe_mod_func_uint32_t_u_u>
   10590:	0f b7 c0             	movzwl %ax,%eax
   10593:	44 89 e6             	mov    %r12d,%esi
   10596:	89 c7                	mov    %eax,%edi
   10598:	e8 82 97 ff ff       	callq  9d1f <safe_sub_func_uint16_t_u_u>
   1059d:	be 02 00 00 00       	mov    $0x2,%esi
   105a2:	bf 01 00 00 00       	mov    $0x1,%edi
   105a7:	e8 cc 95 ff ff       	callq  9b78 <safe_sub_func_uint8_t_u_u>
   105ac:	0f b6 c0             	movzbl %al,%eax
   105af:	48 89 de             	mov    %rbx,%rsi
   105b2:	48 89 c7             	mov    %rax,%rdi
   105b5:	e8 91 9a ff ff       	callq  a04b <safe_sub_func_uint64_t_u_u>
   105ba:	48 83 bd c0 fa ff ff 	cmpq   $0x0,-0x540(%rbp)
   105c1:	00 
   105c2:	0f 95 c0             	setne  %al
   105c5:	0f b6 c0             	movzbl %al,%eax
   105c8:	be 07 00 00 00       	mov    $0x7,%esi
   105cd:	89 c7                	mov    %eax,%edi
   105cf:	e8 0d 8f ff ff       	callq  94e1 <safe_lshift_func_int16_t_s_u>
   105d4:	66 85 c0             	test   %ax,%ax
   105d7:	0f 84 05 01 00 00    	je     106e2 <func_16+0xa53>
   105dd:	c7 85 9c fa ff ff 01 	movl   $0x1,-0x564(%rbp)
   105e4:	00 00 00 
   105e7:	48 8b 05 92 c7 00 00 	mov    0xc792(%rip),%rax        # 1cd80 <g_417>
   105ee:	48 8b 00             	mov    (%rax),%rax
   105f1:	8b 10                	mov    (%rax),%edx
   105f3:	48 8b 85 b0 fa ff ff 	mov    -0x550(%rbp),%rax
   105fa:	89 10                	mov    %edx,(%rax)
   105fc:	0f b6 05 45 9d 00 00 	movzbl 0x9d45(%rip),%eax        # 1a348 <g_815>
   10603:	0f b6 c0             	movzbl %al,%eax
   10606:	89 85 94 fa ff ff    	mov    %eax,-0x56c(%rbp)
   1060c:	8b 85 94 fa ff ff    	mov    -0x56c(%rbp),%eax
   10612:	41 89 c4             	mov    %eax,%r12d
   10615:	8b 9d 50 fc ff ff    	mov    -0x3b0(%rbp),%ebx
   1061b:	48 8b 95 30 fb ff ff 	mov    -0x4d0(%rbp),%rdx
   10622:	48 8d 85 48 fa ff ff 	lea    -0x5b8(%rbp),%rax
   10629:	48 39 c2             	cmp    %rax,%rdx
   1062c:	0f 94 c2             	sete   %dl
   1062f:	48 8b 05 82 cc 00 00 	mov    0xcc82(%rip),%rax        # 1d2b8 <g_1448>
   10636:	48 8b 00             	mov    (%rax),%rax
   10639:	88 10                	mov    %dl,(%rax)
   1063b:	0f b6 00             	movzbl (%rax),%eax
   1063e:	0f b6 c0             	movzbl %al,%eax
   10641:	be 00 00 00 00       	mov    $0x0,%esi
   10646:	89 c7                	mov    %eax,%edi
   10648:	e8 71 96 ff ff       	callq  9cbe <safe_rshift_func_uint8_t_u_u>
   1064d:	0f b6 c0             	movzbl %al,%eax
   10650:	48 89 c7             	mov    %rax,%rdi
   10653:	e8 be 91 ff ff       	callq  9816 <safe_unary_minus_func_int64_t_s>
   10658:	48 89 c2             	mov    %rax,%rdx
   1065b:	b8 ff ff ff ff       	mov    $0xffffffff,%eax
   10660:	48 39 c2             	cmp    %rax,%rdx
   10663:	0f 96 c0             	setbe  %al
   10666:	0f b6 c0             	movzbl %al,%eax
   10669:	39 c3                	cmp    %eax,%ebx
   1066b:	0f 9d c0             	setge  %al
   1066e:	44 21 e0             	and    %r12d,%eax
   10671:	0f b6 d0             	movzbl %al,%edx
   10674:	8b 85 58 fb ff ff    	mov    -0x4a8(%rbp),%eax
   1067a:	0f b6 c0             	movzbl %al,%eax
   1067d:	89 d6                	mov    %edx,%esi
   1067f:	89 c7                	mov    %eax,%edi
   10681:	e8 28 95 ff ff       	callq  9bae <safe_mod_func_uint8_t_u_u>
   10686:	0f b6 c0             	movzbl %al,%eax
   10689:	8b 95 98 fa ff ff    	mov    -0x568(%rbp),%edx
   1068f:	09 d0                	or     %edx,%eax
   10691:	0f b7 c0             	movzwl %ax,%eax
   10694:	89 c7                	mov    %eax,%edi
   10696:	e8 4e 96 ff ff       	callq  9ce9 <safe_unary_minus_func_uint16_t_u>
   1069b:	bf 00 00 00 00       	mov    $0x0,%edi
   106a0:	e8 f8 8c ff ff       	callq  939d <safe_unary_minus_func_int16_t_s>
   106a5:	98                   	cwtl   
   106a6:	09 85 60 fa ff ff    	or     %eax,-0x5a0(%rbp)
   106ac:	48 8b 85 e8 fa ff ff 	mov    -0x518(%rbp),%rax
   106b3:	48 89 85 f0 fa ff ff 	mov    %rax,-0x510(%rbp)
   106ba:	b9 00 00 00 00       	mov    $0x0,%ecx
   106bf:	48 8b 05 82 cd 00 00 	mov    0xcd82(%rip),%rax        # 1d448 <g_1880>
   106c6:	8b 10                	mov    (%rax),%edx
   106c8:	21 ca                	and    %ecx,%edx
   106ca:	89 10                	mov    %edx,(%rax)
   106cc:	48 8b 85 e0 fa ff ff 	mov    -0x520(%rbp),%rax
   106d3:	48 8b 10             	mov    (%rax),%rdx
   106d6:	48 8b 85 e0 fa ff ff 	mov    -0x520(%rbp),%rax
   106dd:	48 89 10             	mov    %rdx,(%rax)
   106e0:	eb 2c                	jmp    1070e <func_16+0xa7f>
   106e2:	48 8d 05 3f c6 00 00 	lea    0xc63f(%rip),%rax        # 1cd28 <g_87>
   106e9:	48 89 85 28 fb ff ff 	mov    %rax,-0x4d8(%rbp)
   106f0:	48 8b 85 28 fb ff ff 	mov    -0x4d8(%rbp),%rax
   106f7:	48 8d 95 20 fc ff ff 	lea    -0x3e0(%rbp),%rdx
   106fe:	48 83 c2 30          	add    $0x30,%rdx
   10702:	48 89 10             	mov    %rdx,(%rax)
   10705:	80 bd 5f fa ff ff 00 	cmpb   $0x0,-0x5a1(%rbp)
   1070c:	75 31                	jne    1073f <func_16+0xab0>
   1070e:	0f b7 05 e3 df 00 00 	movzwl 0xdfe3(%rip),%eax        # 1e6f8 <g_1553>
   10715:	0f b7 c0             	movzwl %ax,%eax
   10718:	be 08 00 00 00       	mov    $0x8,%esi
   1071d:	48 89 c7             	mov    %rax,%rdi
   10720:	e8 09 99 ff ff       	callq  a02e <safe_add_func_uint64_t_u_u>
   10725:	66 89 05 cc df 00 00 	mov    %ax,0xdfcc(%rip)        # 1e6f8 <g_1553>
   1072c:	0f b7 05 c5 df 00 00 	movzwl 0xdfc5(%rip),%eax        # 1e6f8 <g_1553>
   10733:	66 83 f8 32          	cmp    $0x32,%ax
   10737:	0f 86 53 fc ff ff    	jbe    10390 <func_16+0x701>
   1073d:	eb 01                	jmp    10740 <func_16+0xab1>
   1073f:	90                   	nop
   10740:	8b 05 6a 9a 00 00    	mov    0x9a6a(%rip),%eax        # 1a1b0 <g_234>
   10746:	83 e8 01             	sub    $0x1,%eax
   10749:	89 05 61 9a 00 00    	mov    %eax,0x9a61(%rip)        # 1a1b0 <g_234>
   1074f:	8b 05 5b 9a 00 00    	mov    0x9a5b(%rip),%eax        # 1a1b0 <g_234>
   10755:	83 f8 f8             	cmp    $0xfffffff8,%eax
   10758:	0f 8c 27 fb ff ff    	jl     10285 <func_16+0x5f6>
   1075e:	c6 05 97 9d 00 00 00 	movb   $0x0,0x9d97(%rip)        # 1a4fc <g_1646>
   10765:	e9 13 02 00 00       	jmpq   1097d <func_16+0xcee>
   1076a:	c7 85 8c fa ff ff f7 	movl   $0xfffffff7,-0x574(%rbp)
   10771:	ff ff ff 
   10774:	c7 85 a8 fa ff ff 06 	movl   $0x6,-0x558(%rbp)
   1077b:	00 00 00 
   1077e:	48 8d 85 a8 fa ff ff 	lea    -0x558(%rbp),%rax
   10785:	48 89 85 f8 fa ff ff 	mov    %rax,-0x508(%rbp)
   1078c:	8b 85 8c fa ff ff    	mov    -0x574(%rbp),%eax
   10792:	89 85 84 fa ff ff    	mov    %eax,-0x57c(%rbp)
   10798:	83 bd 84 fa ff ff 00 	cmpl   $0x0,-0x57c(%rbp)
   1079f:	0f 84 be 01 00 00    	je     10963 <func_16+0xcd4>
   107a5:	c7 85 90 fa ff ff 03 	movl   $0x3,-0x570(%rbp)
   107ac:	00 00 00 
   107af:	48 c7 85 00 fb ff ff 	movq   $0x0,-0x500(%rbp)
   107b6:	00 00 00 00 
   107ba:	48 8d 05 27 df 00 00 	lea    0xdf27(%rip),%rax        # 1e6e8 <g_1076>
   107c1:	48 89 85 08 fb ff ff 	mov    %rax,-0x4f8(%rbp)
   107c8:	48 8d 05 51 c5 00 00 	lea    0xc551(%rip),%rax        # 1cd20 <g_85>
   107cf:	48 89 85 20 fc ff ff 	mov    %rax,-0x3e0(%rbp)
   107d6:	48 8d 05 43 c5 00 00 	lea    0xc543(%rip),%rax        # 1cd20 <g_85>
   107dd:	48 89 85 28 fc ff ff 	mov    %rax,-0x3d8(%rbp)
   107e4:	48 8d 05 35 c5 00 00 	lea    0xc535(%rip),%rax        # 1cd20 <g_85>
   107eb:	48 89 85 30 fc ff ff 	mov    %rax,-0x3d0(%rbp)
   107f2:	48 8d 05 27 c5 00 00 	lea    0xc527(%rip),%rax        # 1cd20 <g_85>
   107f9:	48 89 85 38 fc ff ff 	mov    %rax,-0x3c8(%rbp)
   10800:	c7 85 70 fa ff ff 00 	movl   $0x0,-0x590(%rbp)
   10807:	00 00 00 
   1080a:	eb 1e                	jmp    1082a <func_16+0xb9b>
   1080c:	8b 85 70 fa ff ff    	mov    -0x590(%rbp),%eax
   10812:	48 98                	cltq   
   10814:	48 8d 15 85 9d 00 00 	lea    0x9d85(%rip),%rdx        # 1a5a0 <g_2025>
   1081b:	48 89 94 c5 f0 fc ff 	mov    %rdx,-0x310(%rbp,%rax,8)
   10822:	ff 
   10823:	83 85 70 fa ff ff 01 	addl   $0x1,-0x590(%rbp)
   1082a:	83 bd 70 fa ff ff 04 	cmpl   $0x4,-0x590(%rbp)
   10831:	7e d9                	jle    1080c <func_16+0xb7d>
   10833:	8b 85 a8 fa ff ff    	mov    -0x558(%rbp),%eax
   10839:	23 85 90 fa ff ff    	and    -0x570(%rbp),%eax
   1083f:	89 85 a8 fa ff ff    	mov    %eax,-0x558(%rbp)
   10845:	8b 85 90 fa ff ff    	mov    -0x570(%rbp),%eax
   1084b:	98                   	cwtl   
   1084c:	8b 95 90 fa ff ff    	mov    -0x570(%rbp),%edx
   10852:	89 d6                	mov    %edx,%esi
   10854:	89 c7                	mov    %eax,%edi
   10856:	e8 37 8c ff ff       	callq  9492 <safe_lshift_func_int16_t_s_s>
   1085b:	44 0f bf f0          	movswl %ax,%r14d
   1085f:	48 8b 85 48 fa ff ff 	mov    -0x5b8(%rbp),%rax
   10866:	0f b6 00             	movzbl (%rax),%eax
   10869:	0f be d8             	movsbl %al,%ebx
   1086c:	48 8b 05 4d ca 00 00 	mov    0xca4d(%rip),%rax        # 1d2c0 <g_1447>
   10873:	48 8b 00             	mov    (%rax),%rax
   10876:	48 8b 00             	mov    (%rax),%rax
   10879:	0f b6 10             	movzbl (%rax),%edx
   1087c:	8d 4a ff             	lea    -0x1(%rdx),%ecx
   1087f:	88 08                	mov    %cl,(%rax)
   10881:	0f b6 c2             	movzbl %dl,%eax
   10884:	89 85 48 fb ff ff    	mov    %eax,-0x4b8(%rbp)
   1088a:	44 8b bd 48 fb ff ff 	mov    -0x4b8(%rbp),%r15d
   10891:	48 83 bd 00 fb ff ff 	cmpq   $0x0,-0x500(%rbp)
   10898:	00 
   10899:	0f 94 c0             	sete   %al
   1089c:	0f b6 d0             	movzbl %al,%edx
   1089f:	8b 85 a8 fa ff ff    	mov    -0x558(%rbp),%eax
   108a5:	39 c2                	cmp    %eax,%edx
   108a7:	0f 9f c0             	setg   %al
   108aa:	0f b6 c0             	movzbl %al,%eax
   108ad:	89 85 44 fa ff ff    	mov    %eax,-0x5bc(%rbp)
   108b3:	8b 85 84 fa ff ff    	mov    -0x57c(%rbp),%eax
   108b9:	44 0f b7 e0          	movzwl %ax,%r12d
   108bd:	44 8b ad 84 fa ff ff 	mov    -0x57c(%rbp),%r13d
   108c4:	48 8b 05 65 c6 00 00 	mov    0xc665(%rip),%rax        # 1cf30 <g_1031>
   108cb:	0f b7 00             	movzwl (%rax),%eax
   108ce:	0f bf d0             	movswl %ax,%edx
   108d1:	8b 85 90 fa ff ff    	mov    -0x570(%rbp),%eax
   108d7:	98                   	cwtl   
   108d8:	89 d6                	mov    %edx,%esi
   108da:	89 c7                	mov    %eax,%edi
   108dc:	e8 14 8b ff ff       	callq  93f5 <safe_mul_func_int16_t_s_s>
   108e1:	48 0f bf d0          	movswq %ax,%rdx
   108e5:	48 8b 85 08 fb ff ff 	mov    -0x4f8(%rbp),%rax
   108ec:	48 89 10             	mov    %rdx,(%rax)
   108ef:	8b 85 8c fa ff ff    	mov    -0x574(%rbp),%eax
   108f5:	3b 85 80 fa ff ff    	cmp    -0x580(%rbp),%eax
   108fb:	0f 94 c0             	sete   %al
   108fe:	0f b6 c0             	movzbl %al,%eax
   10901:	44 89 ee             	mov    %r13d,%esi
   10904:	89 c7                	mov    %eax,%edi
   10906:	e8 fb 94 ff ff       	callq  9e06 <safe_lshift_func_uint16_t_u_u>
   1090b:	0f b7 c0             	movzwl %ax,%eax
   1090e:	44 89 e6             	mov    %r12d,%esi
   10911:	89 c7                	mov    %eax,%edi
   10913:	e8 07 94 ff ff       	callq  9d1f <safe_sub_func_uint16_t_u_u>
   10918:	0f b7 c0             	movzwl %ax,%eax
   1091b:	33 85 44 fa ff ff    	xor    -0x5bc(%rbp),%eax
   10921:	41 39 c7             	cmp    %eax,%r15d
   10924:	0f 9e c0             	setle  %al
   10927:	0f b6 c0             	movzbl %al,%eax
   1092a:	89 de                	mov    %ebx,%esi
   1092c:	89 c7                	mov    %eax,%edi
   1092e:	e8 fe 88 ff ff       	callq  9231 <safe_mod_func_int8_t_s_s>
   10933:	0f be c0             	movsbl %al,%eax
   10936:	39 85 84 fa ff ff    	cmp    %eax,-0x57c(%rbp)
   1093c:	0f 95 c0             	setne  %al
   1093f:	0f b6 c0             	movzbl %al,%eax
   10942:	0b 85 80 fa ff ff    	or     -0x580(%rbp),%eax
   10948:	89 c2                	mov    %eax,%edx
   1094a:	48 8b 05 4f d1 00 00 	mov    0xd14f(%rip),%rax        # 1daa0 <g_2061>
   10951:	44 21 f2             	and    %r14d,%edx
   10954:	89 10                	mov    %edx,(%rax)
   10956:	48 c7 85 f8 fa ff ff 	movq   $0x0,-0x508(%rbp)
   1095d:	00 00 00 00 
   10961:	eb 0a                	jmp    1096d <func_16+0xcde>
   10963:	48 83 bd c8 fa ff ff 	cmpq   $0x0,-0x538(%rbp)
   1096a:	00 
   1096b:	75 21                	jne    1098e <func_16+0xcff>
   1096d:	0f b6 05 88 9b 00 00 	movzbl 0x9b88(%rip),%eax        # 1a4fc <g_1646>
   10974:	83 c0 01             	add    $0x1,%eax
   10977:	88 05 7f 9b 00 00    	mov    %al,0x9b7f(%rip)        # 1a4fc <g_1646>
   1097d:	0f b6 05 78 9b 00 00 	movzbl 0x9b78(%rip),%eax        # 1a4fc <g_1646>
   10984:	3c 27                	cmp    $0x27,%al
   10986:	0f 85 de fd ff ff    	jne    1076a <func_16+0xadb>
   1098c:	eb 01                	jmp    1098f <func_16+0xd00>
   1098e:	90                   	nop
   1098f:	8b 85 64 fb ff ff    	mov    -0x49c(%rbp),%eax
   10995:	48 8b 5d c8          	mov    -0x38(%rbp),%rbx
   10999:	64 48 33 1c 25 28 00 	xor    %fs:0x28,%rbx
   109a0:	00 00 
   109a2:	74 05                	je     109a9 <func_16+0xd1a>
   109a4:	e8 c7 86 ff ff       	callq  9070 <__stack_chk_fail@plt>
   109a9:	48 81 c4 a8 05 00 00 	add    $0x5a8,%rsp
   109b0:	5b                   	pop    %rbx
   109b1:	41 5c                	pop    %r12
   109b3:	41 5d                	pop    %r13
   109b5:	41 5e                	pop    %r14
   109b7:	41 5f                	pop    %r15
   109b9:	5d                   	pop    %rbp
   109ba:	c3                   	retq   

00000000000109bb <func_22>:
   109bb:	f3 0f 1e fa          	endbr64 
   109bf:	55                   	push   %rbp
   109c0:	48 89 e5             	mov    %rsp,%rbp
   109c3:	41 55                	push   %r13
   109c5:	41 54                	push   %r12
   109c7:	53                   	push   %rbx
   109c8:	48 81 ec 00 10 00 00 	sub    $0x1000,%rsp
   109cf:	48 83 0c 24 00       	orq    $0x0,(%rsp)
   109d4:	48 81 ec 08 06 00 00 	sub    $0x608,%rsp
   109db:	89 f8                	mov    %edi,%eax
   109dd:	48 89 b5 e0 e9 ff ff 	mov    %rsi,-0x1620(%rbp)
   109e4:	66 89 85 ec e9 ff ff 	mov    %ax,-0x1614(%rbp)
   109eb:	64 48 8b 04 25 28 00 	mov    %fs:0x28,%rax
   109f2:	00 00 
   109f4:	48 89 45 d8          	mov    %rax,-0x28(%rbp)
   109f8:	31 c0                	xor    %eax,%eax
   109fa:	c7 85 4c ea ff ff 02 	movl   $0x2,-0x15b4(%rbp)
   10a01:	00 00 00 
   10a04:	48 8d 05 7d 97 00 00 	lea    0x977d(%rip),%rax        # 1a188 <g_146+0x8>
   10a0b:	48 89 85 88 eb ff ff 	mov    %rax,-0x1478(%rbp)
   10a12:	48 8d 05 27 99 00 00 	lea    0x9927(%rip),%rax        # 1a340 <g_758>
   10a19:	48 89 85 50 ea ff ff 	mov    %rax,-0x15b0(%rbp)
   10a20:	c7 85 08 ea ff ff 07 	movl   $0x7,-0x15f8(%rbp)
   10a27:	00 00 00 
   10a2a:	48 8d 05 f3 96 00 00 	lea    0x96f3(%rip),%rax        # 1a124 <g_49>
   10a31:	48 89 85 90 eb ff ff 	mov    %rax,-0x1470(%rbp)
   10a38:	48 8d 05 e6 96 00 00 	lea    0x96e6(%rip),%rax        # 1a125 <g_77>
   10a3f:	48 89 85 58 ea ff ff 	mov    %rax,-0x15a8(%rbp)
   10a46:	48 8d 05 77 97 00 00 	lea    0x9777(%rip),%rax        # 1a1c4 <g_331+0xc>
   10a4d:	48 89 85 60 ea ff ff 	mov    %rax,-0x15a0(%rbp)
   10a54:	48 c7 85 68 ea ff ff 	movq   $0x0,-0x1598(%rbp)
   10a5b:	00 00 00 00 
   10a5f:	48 8d 85 68 ea ff ff 	lea    -0x1598(%rbp),%rax
   10a66:	48 89 85 98 eb ff ff 	mov    %rax,-0x1468(%rbp)
   10a6d:	66 c7 85 b2 eb ff ff 	movw   $0x1,-0x144e(%rbp)
   10a74:	01 00 
   10a76:	66 c7 85 b4 eb ff ff 	movw   $0x1,-0x144c(%rbp)
   10a7d:	01 00 
   10a7f:	66 c7 85 b6 eb ff ff 	movw   $0x1,-0x144a(%rbp)
   10a86:	01 00 
   10a88:	66 c7 85 b8 eb ff ff 	movw   $0x1,-0x1448(%rbp)
   10a8f:	01 00 
   10a91:	66 c7 85 ba eb ff ff 	movw   $0x1,-0x1446(%rbp)
   10a98:	01 00 
   10a9a:	66 c7 85 bc eb ff ff 	movw   $0x1,-0x1444(%rbp)
   10aa1:	01 00 
   10aa3:	66 c7 85 be eb ff ff 	movw   $0x1,-0x1442(%rbp)
   10aaa:	01 00 
   10aac:	48 b8 a5 bc 51 48 e1 	movabs $0x529338e14851bca5,%rax
   10ab3:	38 93 52 
   10ab6:	48 89 85 70 eb ff ff 	mov    %rax,-0x1490(%rbp)
   10abd:	48 c7 85 70 ea ff ff 	movq   $0x0,-0x1590(%rbp)
   10ac4:	00 00 00 00 
   10ac8:	c7 85 40 ec ff ff 02 	movl   $0x2,-0x13c0(%rbp)
   10acf:	00 00 00 
   10ad2:	c7 85 44 ec ff ff 02 	movl   $0x2,-0x13bc(%rbp)
   10ad9:	00 00 00 
   10adc:	c7 85 48 ec ff ff 02 	movl   $0x2,-0x13b8(%rbp)
   10ae3:	00 00 00 
   10ae6:	c7 85 4c ec ff ff 02 	movl   $0x2,-0x13b4(%rbp)
   10aed:	00 00 00 
   10af0:	c7 85 50 ec ff ff 02 	movl   $0x2,-0x13b0(%rbp)
   10af7:	00 00 00 
   10afa:	c7 85 54 ec ff ff 02 	movl   $0x2,-0x13ac(%rbp)
   10b01:	00 00 00 
   10b04:	c7 85 58 ec ff ff 02 	movl   $0x2,-0x13a8(%rbp)
   10b0b:	00 00 00 
   10b0e:	c7 85 5c ec ff ff 02 	movl   $0x2,-0x13a4(%rbp)
   10b15:	00 00 00 
   10b18:	48 8d 05 69 c2 00 00 	lea    0xc269(%rip),%rax        # 1cd88 <g_422>
   10b1f:	48 89 85 78 ea ff ff 	mov    %rax,-0x1588(%rbp)
   10b26:	48 c7 85 80 ea ff ff 	movq   $0x0,-0x1580(%rbp)
   10b2d:	00 00 00 00 
   10b31:	c7 85 40 ea ff ff 07 	movl   $0x7,-0x15c0(%rbp)
   10b38:	00 00 00 
   10b3b:	48 8d 05 5a 99 00 00 	lea    0x995a(%rip),%rax        # 1a49c <g_1512+0x7c>
   10b42:	48 89 85 88 ea ff ff 	mov    %rax,-0x1578(%rbp)
   10b49:	48 8d 85 88 ea ff ff 	lea    -0x1578(%rbp),%rax
   10b50:	48 89 85 60 ec ff ff 	mov    %rax,-0x13a0(%rbp)
   10b57:	48 8d 85 88 ea ff ff 	lea    -0x1578(%rbp),%rax
   10b5e:	48 89 85 68 ec ff ff 	mov    %rax,-0x1398(%rbp)
   10b65:	48 8d 85 88 ea ff ff 	lea    -0x1578(%rbp),%rax
   10b6c:	48 89 85 70 ec ff ff 	mov    %rax,-0x1390(%rbp)
   10b73:	48 8d 85 88 ea ff ff 	lea    -0x1578(%rbp),%rax
   10b7a:	48 89 85 78 ec ff ff 	mov    %rax,-0x1388(%rbp)
   10b81:	48 8d 85 88 ea ff ff 	lea    -0x1578(%rbp),%rax
   10b88:	48 89 85 80 ec ff ff 	mov    %rax,-0x1380(%rbp)
   10b8f:	48 8d 85 88 ea ff ff 	lea    -0x1578(%rbp),%rax
   10b96:	48 89 85 88 ec ff ff 	mov    %rax,-0x1378(%rbp)
   10b9d:	48 8d 85 88 ea ff ff 	lea    -0x1578(%rbp),%rax
   10ba4:	48 89 85 90 ec ff ff 	mov    %rax,-0x1370(%rbp)
   10bab:	48 8d 85 88 ea ff ff 	lea    -0x1578(%rbp),%rax
   10bb2:	48 89 85 98 ec ff ff 	mov    %rax,-0x1368(%rbp)
   10bb9:	48 8d 85 88 ea ff ff 	lea    -0x1578(%rbp),%rax
   10bc0:	48 89 85 a0 ec ff ff 	mov    %rax,-0x1360(%rbp)
   10bc7:	48 8d 85 88 ea ff ff 	lea    -0x1578(%rbp),%rax
   10bce:	48 89 85 a8 ec ff ff 	mov    %rax,-0x1358(%rbp)
   10bd5:	48 8d 85 88 ea ff ff 	lea    -0x1578(%rbp),%rax
   10bdc:	48 89 85 b0 ec ff ff 	mov    %rax,-0x1350(%rbp)
   10be3:	48 8d 85 88 ea ff ff 	lea    -0x1578(%rbp),%rax
   10bea:	48 89 85 b8 ec ff ff 	mov    %rax,-0x1348(%rbp)
   10bf1:	48 8d 85 60 ec ff ff 	lea    -0x13a0(%rbp),%rax
   10bf8:	48 83 c0 18          	add    $0x18,%rax
   10bfc:	48 89 85 90 ea ff ff 	mov    %rax,-0x1570(%rbp)
   10c03:	48 8d 85 10 ef ff ff 	lea    -0x10f0(%rbp),%rax
   10c0a:	48 8d 15 0f b3 00 00 	lea    0xb30f(%rip),%rdx        # 1bf20 <g_3271+0x139c>
   10c11:	b9 5a 00 00 00       	mov    $0x5a,%ecx
   10c16:	48 89 c7             	mov    %rax,%rdi
   10c19:	48 89 d6             	mov    %rdx,%rsi
   10c1c:	f3 48 a5             	rep movsq %ds:(%rsi),%es:(%rdi)
   10c1f:	48 8d 85 10 ef ff ff 	lea    -0x10f0(%rbp),%rax
   10c26:	48 05 88 02 00 00    	add    $0x288,%rax
   10c2c:	48 89 85 98 ea ff ff 	mov    %rax,-0x1568(%rbp)
   10c33:	c6 85 01 ea ff ff 01 	movb   $0x1,-0x15ff(%rbp)
   10c3a:	c7 85 44 ea ff ff d8 	movl   $0x7debccd8,-0x15bc(%rbp)
   10c41:	cc eb 7d 
   10c44:	c7 85 48 ea ff ff 35 	movl   $0x76a11935,-0x15b8(%rbp)
   10c4b:	19 a1 76 
   10c4e:	c7 85 0c ea ff ff 9d 	movl   $0x4fc4c39d,-0x15f4(%rbp)
   10c55:	c3 c4 4f 
   10c58:	48 8d 05 d9 d9 00 00 	lea    0xd9d9(%rip),%rax        # 1e638 <g_532+0x8>
   10c5f:	48 89 85 78 eb ff ff 	mov    %rax,-0x1488(%rbp)
   10c66:	66 c7 85 02 ea ff ff 	movw   $0x7947,-0x15fe(%rbp)
   10c6d:	47 79 
   10c6f:	48 8d 05 2a 99 00 00 	lea    0x992a(%rip),%rax        # 1a5a0 <g_2025>
   10c76:	48 89 85 80 eb ff ff 	mov    %rax,-0x1480(%rbp)
   10c7d:	c7 85 c0 ec ff ff 5d 	movl   $0xbb0d2b5d,-0x1340(%rbp)
   10c84:	2b 0d bb 
   10c87:	c7 85 c4 ec ff ff b1 	movl   $0xfdec6fb1,-0x133c(%rbp)
   10c8e:	6f ec fd 
   10c91:	c7 85 c8 ec ff ff 5d 	movl   $0xbb0d2b5d,-0x1338(%rbp)
   10c98:	2b 0d bb 
   10c9b:	c7 85 cc ec ff ff d4 	movl   $0x52116bd4,-0x1334(%rbp)
   10ca2:	6b 11 52 
   10ca5:	c7 85 d0 ec ff ff 1a 	movl   $0xc6238f1a,-0x1330(%rbp)
   10cac:	8f 23 c6 
   10caf:	c7 85 d4 ec ff ff d4 	movl   $0x52116bd4,-0x132c(%rbp)
   10cb6:	6b 11 52 
   10cb9:	c7 85 d8 ec ff ff 5d 	movl   $0xbb0d2b5d,-0x1328(%rbp)
   10cc0:	2b 0d bb 
   10cc3:	c7 85 dc ec ff ff b1 	movl   $0xfdec6fb1,-0x1324(%rbp)
   10cca:	6f ec fd 
   10ccd:	c7 85 e0 ec ff ff 5d 	movl   $0xbb0d2b5d,-0x1320(%rbp)
   10cd4:	2b 0d bb 
   10cd7:	c7 85 e4 ec ff ff d4 	movl   $0x52116bd4,-0x131c(%rbp)
   10cde:	6b 11 52 
   10ce1:	c7 85 e8 ec ff ff 1a 	movl   $0xc6238f1a,-0x1318(%rbp)
   10ce8:	8f 23 c6 
   10ceb:	c7 85 ec ec ff ff d4 	movl   $0x52116bd4,-0x1314(%rbp)
   10cf2:	6b 11 52 
   10cf5:	c7 85 f0 ec ff ff 5d 	movl   $0xbb0d2b5d,-0x1310(%rbp)
   10cfc:	2b 0d bb 
   10cff:	c7 85 f4 ec ff ff b1 	movl   $0xfdec6fb1,-0x130c(%rbp)
   10d06:	6f ec fd 
   10d09:	c7 85 f8 ec ff ff 5d 	movl   $0xbb0d2b5d,-0x1308(%rbp)
   10d10:	2b 0d bb 
   10d13:	c7 85 fc ec ff ff d4 	movl   $0x52116bd4,-0x1304(%rbp)
   10d1a:	6b 11 52 
   10d1d:	c7 85 00 ed ff ff 1a 	movl   $0xc6238f1a,-0x1300(%rbp)
   10d24:	8f 23 c6 
   10d27:	c7 85 04 ed ff ff d4 	movl   $0x52116bd4,-0x12fc(%rbp)
   10d2e:	6b 11 52 
   10d31:	c7 85 08 ed ff ff 5d 	movl   $0xbb0d2b5d,-0x12f8(%rbp)
   10d38:	2b 0d bb 
   10d3b:	c7 85 0c ed ff ff b1 	movl   $0xfdec6fb1,-0x12f4(%rbp)
   10d42:	6f ec fd 
   10d45:	c7 85 10 ed ff ff 5d 	movl   $0xbb0d2b5d,-0x12f0(%rbp)
   10d4c:	2b 0d bb 
   10d4f:	c7 85 14 ed ff ff d4 	movl   $0x52116bd4,-0x12ec(%rbp)
   10d56:	6b 11 52 
   10d59:	c7 85 18 ed ff ff 1a 	movl   $0xc6238f1a,-0x12e8(%rbp)
   10d60:	8f 23 c6 
   10d63:	c7 85 1c ed ff ff d4 	movl   $0x52116bd4,-0x12e4(%rbp)
   10d6a:	6b 11 52 
   10d6d:	c7 85 20 ed ff ff 5d 	movl   $0xbb0d2b5d,-0x12e0(%rbp)
   10d74:	2b 0d bb 
   10d77:	c7 85 24 ed ff ff b1 	movl   $0xfdec6fb1,-0x12dc(%rbp)
   10d7e:	6f ec fd 
   10d81:	c7 85 28 ed ff ff 5d 	movl   $0xbb0d2b5d,-0x12d8(%rbp)
   10d88:	2b 0d bb 
   10d8b:	c7 85 2c ed ff ff d4 	movl   $0x52116bd4,-0x12d4(%rbp)
   10d92:	6b 11 52 
   10d95:	c7 85 30 ed ff ff 1a 	movl   $0xc6238f1a,-0x12d0(%rbp)
   10d9c:	8f 23 c6 
   10d9f:	c7 85 34 ed ff ff d4 	movl   $0x52116bd4,-0x12cc(%rbp)
   10da6:	6b 11 52 
   10da9:	c7 85 38 ed ff ff 5d 	movl   $0xbb0d2b5d,-0x12c8(%rbp)
   10db0:	2b 0d bb 
   10db3:	c7 85 3c ed ff ff b1 	movl   $0xfdec6fb1,-0x12c4(%rbp)
   10dba:	6f ec fd 
   10dbd:	c7 85 40 ed ff ff 5d 	movl   $0xbb0d2b5d,-0x12c0(%rbp)
   10dc4:	2b 0d bb 
   10dc7:	c7 85 44 ed ff ff d4 	movl   $0x52116bd4,-0x12bc(%rbp)
   10dce:	6b 11 52 
   10dd1:	c7 85 48 ed ff ff 1a 	movl   $0xc6238f1a,-0x12b8(%rbp)
   10dd8:	8f 23 c6 
   10ddb:	48 8d 85 58 ea ff ff 	lea    -0x15a8(%rbp),%rax
   10de2:	48 89 85 a0 ea ff ff 	mov    %rax,-0x1560(%rbp)
   10de9:	48 8d 85 a0 ea ff ff 	lea    -0x1560(%rbp),%rax
   10df0:	48 89 85 a8 ea ff ff 	mov    %rax,-0x1558(%rbp)
   10df7:	48 8d 85 e0 f1 ff ff 	lea    -0xe20(%rbp),%rax
   10dfe:	48 8d 15 fb b3 00 00 	lea    0xb3fb(%rip),%rdx        # 1c200 <g_3271+0x167c>
   10e05:	b9 5a 00 00 00       	mov    $0x5a,%ecx
   10e0a:	48 89 c7             	mov    %rax,%rdi
   10e0d:	48 89 d6             	mov    %rdx,%rsi
   10e10:	f3 48 a5             	rep movsq %ds:(%rsi),%es:(%rdi)
   10e13:	48 8d 85 e0 f1 ff ff 	lea    -0xe20(%rbp),%rax
   10e1a:	48 05 f8 00 00 00    	add    $0xf8,%rax
   10e20:	48 89 85 68 eb ff ff 	mov    %rax,-0x1498(%rbp)
   10e27:	c7 85 14 ea ff ff 00 	movl   $0x0,-0x15ec(%rbp)
   10e2e:	00 00 00 
   10e31:	eb 1a                	jmp    10e4d <func_22+0x492>
   10e33:	8b 85 14 ea ff ff    	mov    -0x15ec(%rbp),%eax
   10e39:	48 98                	cltq   
   10e3b:	c7 84 85 a4 eb ff ff 	movl   $0x0,-0x145c(%rbp,%rax,4)
   10e42:	00 00 00 00 
   10e46:	83 85 14 ea ff ff 01 	addl   $0x1,-0x15ec(%rbp)
   10e4d:	83 bd 14 ea ff ff 02 	cmpl   $0x2,-0x15ec(%rbp)
   10e54:	7e dd                	jle    10e33 <func_22+0x478>
   10e56:	48 8b 05 c3 be 00 00 	mov    0xbec3(%rip),%rax        # 1cd20 <g_85>
   10e5d:	8b 18                	mov    (%rax),%ebx
   10e5f:	48 8b 85 e0 e9 ff ff 	mov    -0x1620(%rbp),%rax
   10e66:	0f b6 00             	movzbl (%rax),%eax
   10e69:	89 c2                	mov    %eax,%edx
   10e6b:	8b 85 4c ea ff ff    	mov    -0x15b4(%rbp),%eax
   10e71:	31 d0                	xor    %edx,%eax
   10e73:	89 c2                	mov    %eax,%edx
   10e75:	48 8b 85 e0 e9 ff ff 	mov    -0x1620(%rbp),%rax
   10e7c:	88 10                	mov    %dl,(%rax)
   10e7e:	48 8b 05 d3 be 00 00 	mov    0xbed3(%rip),%rax        # 1cd58 <g_365>
   10e85:	8b 00                	mov    (%rax),%eax
   10e87:	48 8b 05 d2 be 00 00 	mov    0xbed2(%rip),%rax        # 1cd60 <g_364>
   10e8e:	48 8b 00             	mov    (%rax),%rax
   10e91:	8b 00                	mov    (%rax),%eax
   10e93:	48 8b 85 e0 e9 ff ff 	mov    -0x1620(%rbp),%rax
   10e9a:	0f b6 00             	movzbl (%rax),%eax
   10e9d:	0f be c0             	movsbl %al,%eax
   10ea0:	be 00 00 00 00       	mov    $0x0,%esi
   10ea5:	89 c7                	mov    %eax,%edi
   10ea7:	e8 89 84 ff ff       	callq  9335 <safe_rshift_func_int8_t_s_s>
   10eac:	89 c2                	mov    %eax,%edx
   10eae:	48 8b 85 90 eb ff ff 	mov    -0x1470(%rbp),%rax
   10eb5:	0f b6 00             	movzbl (%rax),%eax
   10eb8:	31 c2                	xor    %eax,%edx
   10eba:	48 8b 85 90 eb ff ff 	mov    -0x1470(%rbp),%rax
   10ec1:	88 10                	mov    %dl,(%rax)
   10ec3:	48 8b 85 90 eb ff ff 	mov    -0x1470(%rbp),%rax
   10eca:	0f b6 00             	movzbl (%rax),%eax
   10ecd:	0f be c0             	movsbl %al,%eax
   10ed0:	be 03 00 00 00       	mov    $0x3,%esi
   10ed5:	89 c7                	mov    %eax,%edi
   10ed7:	e8 59 84 ff ff       	callq  9335 <safe_rshift_func_int8_t_s_s>
   10edc:	8b 05 36 d7 00 00    	mov    0xd736(%rip),%eax        # 1e618 <g_208>
   10ee2:	89 85 08 ea ff ff    	mov    %eax,-0x15f8(%rbp)
   10ee8:	8b 85 08 ea ff ff    	mov    -0x15f8(%rbp),%eax
   10eee:	85 c0                	test   %eax,%eax
   10ef0:	74 10                	je     10f02 <func_22+0x547>
   10ef2:	83 bd 4c ea ff ff 00 	cmpl   $0x0,-0x15b4(%rbp)
   10ef9:	74 07                	je     10f02 <func_22+0x547>
   10efb:	b8 01 00 00 00       	mov    $0x1,%eax
   10f00:	eb 05                	jmp    10f07 <func_22+0x54c>
   10f02:	b8 00 00 00 00       	mov    $0x0,%eax
   10f07:	89 de                	mov    %ebx,%esi
   10f09:	89 c7                	mov    %eax,%edi
   10f0b:	e8 a6 86 ff ff       	callq  95b6 <safe_add_func_int32_t_s_s>
   10f10:	48 8d 85 b0 f4 ff ff 	lea    -0xb50(%rbp),%rax
   10f17:	48 8d 15 c2 4a 00 00 	lea    0x4ac2(%rip),%rdx        # 159e0 <g_2357+0x970>
   10f1e:	b9 64 00 00 00       	mov    $0x64,%ecx
   10f23:	48 89 c7             	mov    %rax,%rdi
   10f26:	48 89 d6             	mov    %rdx,%rsi
   10f29:	f3 48 a5             	rep movsq %ds:(%rsi),%es:(%rdi)
   10f2c:	66 c7 85 00 ec ff ff 	movw   $0xfa,-0x1400(%rbp)
   10f33:	fa 00 
   10f35:	c6 85 02 ec ff ff 63 	movb   $0x63,-0x13fe(%rbp)
   10f3c:	66 c7 85 03 ec ff ff 	movw   $0xfafa,-0x13fd(%rbp)
   10f43:	fa fa 
   10f45:	c6 85 05 ec ff ff 63 	movb   $0x63,-0x13fb(%rbp)
   10f4c:	66 c7 85 06 ec ff ff 	movw   $0xfa00,-0x13fa(%rbp)
   10f53:	00 fa 
   10f55:	c6 85 08 ec ff ff 01 	movb   $0x1,-0x13f8(%rbp)
   10f5c:	66 c7 85 09 ec ff ff 	movw   $0xfa58,-0x13f7(%rbp)
   10f63:	58 fa 
   10f65:	c6 85 0b ec ff ff 58 	movb   $0x58,-0x13f5(%rbp)
   10f6c:	66 c7 85 0c ec ff ff 	movw   $0x58,-0x13f4(%rbp)
   10f73:	58 00 
   10f75:	c6 85 0e ec ff ff fa 	movb   $0xfa,-0x13f2(%rbp)
   10f7c:	66 c7 85 0f ec ff ff 	movw   $0x5800,-0x13f1(%rbp)
   10f83:	00 58 
   10f85:	c6 85 11 ec ff ff 58 	movb   $0x58,-0x13ef(%rbp)
   10f8c:	66 c7 85 12 ec ff ff 	movw   $0x58fa,-0x13ee(%rbp)
   10f93:	fa 58 
   10f95:	c6 85 14 ec ff ff 01 	movb   $0x1,-0x13ec(%rbp)
   10f9c:	66 c7 85 15 ec ff ff 	movw   $0xfa,-0x13eb(%rbp)
   10fa3:	fa 00 
   10fa5:	c6 85 17 ec ff ff 63 	movb   $0x63,-0x13e9(%rbp)
   10fac:	c7 85 34 ea ff ff fb 	movl   $0xfffffffb,-0x15cc(%rbp)
   10fb3:	ff ff ff 
   10fb6:	c7 85 38 ea ff ff 01 	movl   $0x1,-0x15c8(%rbp)
   10fbd:	00 00 00 
   10fc0:	c7 85 3c ea ff ff ff 	movl   $0xffffffff,-0x15c4(%rbp)
   10fc7:	ff ff ff 
   10fca:	48 8d 05 ff d6 00 00 	lea    0xd6ff(%rip),%rax        # 1e6d0 <g_883>
   10fd1:	48 89 85 b0 ea ff ff 	mov    %rax,-0x1550(%rbp)
   10fd8:	48 8d 85 b0 ea ff ff 	lea    -0x1550(%rbp),%rax
   10fdf:	48 89 85 b8 ea ff ff 	mov    %rax,-0x1548(%rbp)
   10fe6:	48 8d 85 b8 ea ff ff 	lea    -0x1548(%rbp),%rax
   10fed:	48 89 85 c0 ea ff ff 	mov    %rax,-0x1540(%rbp)
   10ff4:	48 8d 85 c0 ea ff ff 	lea    -0x1540(%rbp),%rax
   10ffb:	48 89 85 60 eb ff ff 	mov    %rax,-0x14a0(%rbp)
   11002:	66 c7 85 c0 eb ff ff 	movw   $0xf4f7,-0x1440(%rbp)
   11009:	f7 f4 
   1100b:	66 c7 85 c2 eb ff ff 	movw   $0xf4f7,-0x143e(%rbp)
   11012:	f7 f4 
   11014:	66 c7 85 c4 eb ff ff 	movw   $0xf4f7,-0x143c(%rbp)
   1101b:	f7 f4 
   1101d:	66 c7 85 c6 eb ff ff 	movw   $0xf4f7,-0x143a(%rbp)
   11024:	f7 f4 
   11026:	66 c7 85 c8 eb ff ff 	movw   $0xf4f7,-0x1438(%rbp)
   1102d:	f7 f4 
   1102f:	66 c7 85 ca eb ff ff 	movw   $0xf4f7,-0x1436(%rbp)
   11036:	f7 f4 
   11038:	66 c7 85 cc eb ff ff 	movw   $0xf4f7,-0x1434(%rbp)
   1103f:	f7 f4 
   11041:	66 c7 85 ce eb ff ff 	movw   $0xf4f7,-0x1432(%rbp)
   11048:	f7 f4 
   1104a:	66 c7 85 d0 eb ff ff 	movw   $0xf4f7,-0x1430(%rbp)
   11051:	f7 f4 
   11053:	66 c7 85 d2 eb ff ff 	movw   $0xf4f7,-0x142e(%rbp)
   1105a:	f7 f4 
   1105c:	c7 85 10 ea ff ff 00 	movl   $0x0,-0x15f0(%rbp)
   11063:	00 00 00 
   11066:	eb 1b                	jmp    11083 <func_22+0x6c8>
   11068:	8b 85 10 ea ff ff    	mov    -0x15f0(%rbp),%eax
   1106e:	48 98                	cltq   
   11070:	48 c7 84 c5 e0 eb ff 	movq   $0x0,-0x1420(%rbp,%rax,8)
   11077:	ff 00 00 00 00 
   1107c:	83 85 10 ea ff ff 01 	addl   $0x1,-0x15f0(%rbp)
   11083:	83 bd 10 ea ff ff 02 	cmpl   $0x2,-0x15f0(%rbp)
   1108a:	7e dc                	jle    11068 <func_22+0x6ad>
   1108c:	66 c7 05 e7 90 00 00 	movw   $0x0,0x90e7(%rip)        # 1a17c <g_141>
   11093:	00 00 
   11095:	e9 ec 04 00 00       	jmpq   11586 <func_22+0xbcb>
   1109a:	48 8d 85 60 ea ff ff 	lea    -0x15a0(%rbp),%rax
   110a1:	48 89 85 c8 ea ff ff 	mov    %rax,-0x1538(%rbp)
   110a8:	48 8d 85 c8 ea ff ff 	lea    -0x1538(%rbp),%rax
   110af:	48 89 85 d0 ea ff ff 	mov    %rax,-0x1530(%rbp)
   110b6:	48 8d 85 d0 ea ff ff 	lea    -0x1530(%rbp),%rax
   110bd:	48 89 85 18 eb ff ff 	mov    %rax,-0x14e8(%rbp)
   110c4:	48 8d 05 75 92 00 00 	lea    0x9275(%rip),%rax        # 1a340 <g_758>
   110cb:	48 89 85 d8 ea ff ff 	mov    %rax,-0x1528(%rbp)
   110d2:	48 8d 85 d8 ea ff ff 	lea    -0x1528(%rbp),%rax
   110d9:	48 89 85 e0 ea ff ff 	mov    %rax,-0x1520(%rbp)
   110e0:	48 8d 85 e0 ea ff ff 	lea    -0x1520(%rbp),%rax
   110e7:	48 89 85 e8 ea ff ff 	mov    %rax,-0x1518(%rbp)
   110ee:	48 8d 85 d0 f7 ff ff 	lea    -0x830(%rbp),%rax
   110f5:	48 8d 15 04 4c 00 00 	lea    0x4c04(%rip),%rdx        # 15d00 <g_2357+0xc90>
   110fc:	b9 70 00 00 00       	mov    $0x70,%ecx
   11101:	48 89 c7             	mov    %rax,%rdi
   11104:	48 89 d6             	mov    %rdx,%rsi
   11107:	f3 48 a5             	rep movsq %ds:(%rsi),%es:(%rdi)
   1110a:	48 c7 85 50 ed ff ff 	movq   $0x0,-0x12b0(%rbp)
   11111:	00 00 00 00 
   11115:	48 8d 85 e0 eb ff ff 	lea    -0x1420(%rbp),%rax
   1111c:	48 83 c0 10          	add    $0x10,%rax
   11120:	48 89 85 58 ed ff ff 	mov    %rax,-0x12a8(%rbp)
   11127:	48 c7 85 60 ed ff ff 	movq   $0x0,-0x12a0(%rbp)
   1112e:	00 00 00 00 
   11132:	48 8d 85 e0 eb ff ff 	lea    -0x1420(%rbp),%rax
   11139:	48 83 c0 10          	add    $0x10,%rax
   1113d:	48 89 85 68 ed ff ff 	mov    %rax,-0x1298(%rbp)
   11144:	48 c7 85 70 ed ff ff 	movq   $0x0,-0x1290(%rbp)
   1114b:	00 00 00 00 
   1114f:	48 8d 05 e2 d4 00 00 	lea    0xd4e2(%rip),%rax        # 1e638 <g_532+0x8>
   11156:	48 89 85 20 eb ff ff 	mov    %rax,-0x14e0(%rbp)
   1115d:	c7 85 1c ea ff ff fa 	movl   $0xfffffffa,-0x15e4(%rbp)
   11164:	ff ff ff 
   11167:	c7 85 20 ea ff ff ff 	movl   $0xffffffff,-0x15e0(%rbp)
   1116e:	ff ff ff 
   11171:	48 c7 05 6c d5 00 00 	movq   $0x0,0xd56c(%rip)        # 1e6e8 <g_1076>
   11178:	00 00 00 00 
   1117c:	e9 e5 02 00 00       	jmpq   11466 <func_22+0xaab>
   11181:	48 b8 71 d5 fe 6c 0f 	movabs $0x7db8d70f6cfed571,%rax
   11188:	d7 b8 7d 
   1118b:	48 89 85 f0 ea ff ff 	mov    %rax,-0x1510(%rbp)
   11192:	48 8d 85 50 ea ff ff 	lea    -0x15b0(%rbp),%rax
   11199:	48 89 85 f8 ea ff ff 	mov    %rax,-0x1508(%rbp)
   111a0:	48 8d 85 b0 f4 ff ff 	lea    -0xb50(%rbp),%rax
   111a7:	48 05 c8 01 00 00    	add    $0x1c8,%rax
   111ad:	48 89 85 00 eb ff ff 	mov    %rax,-0x1500(%rbp)
   111b4:	48 8d 05 ed 8f 00 00 	lea    0x8fed(%rip),%rax        # 1a1a8 <g_223>
   111bb:	48 89 85 08 eb ff ff 	mov    %rax,-0x14f8(%rbp)
   111c2:	48 8d 85 e8 ea ff ff 	lea    -0x1518(%rbp),%rax
   111c9:	48 89 85 10 eb ff ff 	mov    %rax,-0x14f0(%rbp)
   111d0:	c7 85 20 ec ff ff d9 	movl   $0x5fa36ad9,-0x13e0(%rbp)
   111d7:	6a a3 5f 
   111da:	c7 85 24 ec ff ff d9 	movl   $0x5fa36ad9,-0x13dc(%rbp)
   111e1:	6a a3 5f 
   111e4:	c7 85 28 ec ff ff d9 	movl   $0x5fa36ad9,-0x13d8(%rbp)
   111eb:	6a a3 5f 
   111ee:	c7 85 2c ec ff ff d9 	movl   $0x5fa36ad9,-0x13d4(%rbp)
   111f5:	6a a3 5f 
   111f8:	c7 85 30 ec ff ff d9 	movl   $0x5fa36ad9,-0x13d0(%rbp)
   111ff:	6a a3 5f 
   11202:	c7 85 34 ec ff ff d9 	movl   $0x5fa36ad9,-0x13cc(%rbp)
   11209:	6a a3 5f 
   1120c:	48 8b 05 45 bb 00 00 	mov    0xbb45(%rip),%rax        # 1cd58 <g_365>
   11213:	8b 00                	mov    (%rax),%eax
   11215:	8b 05 95 8f 00 00    	mov    0x8f95(%rip),%eax        # 1a1b0 <g_234>
   1121b:	48 63 d8             	movslq %eax,%rbx
   1121e:	8b 85 f0 f4 ff ff    	mov    -0xb10(%rbp),%eax
   11224:	44 0f be e0          	movsbl %al,%r12d
   11228:	48 8b 05 11 bb 00 00 	mov    0xbb11(%rip),%rax        # 1cd40 <g_153>
   1122f:	0f b6 00             	movzbl (%rax),%eax
   11232:	44 0f be e8          	movsbl %al,%r13d
   11236:	8b 85 e0 f5 ff ff    	mov    -0xa20(%rbp),%eax
   1123c:	0f be c0             	movsbl %al,%eax
   1123f:	be 04 00 00 00       	mov    $0x4,%esi
   11244:	89 c7                	mov    %eax,%edi
   11246:	e8 a3 80 ff ff       	callq  92ee <safe_lshift_func_int8_t_s_u>
   1124b:	0f b7 85 ec e9 ff ff 	movzwl -0x1614(%rbp),%eax
   11252:	89 c6                	mov    %eax,%esi
   11254:	bf 36 96 00 00       	mov    $0x9636,%edi
   11259:	e8 a1 8a ff ff       	callq  9cff <safe_add_func_uint16_t_u_u>
   1125e:	89 c2                	mov    %eax,%edx
   11260:	8b 85 e0 f5 ff ff    	mov    -0xa20(%rbp),%eax
   11266:	31 d0                	xor    %edx,%eax
   11268:	0f be c0             	movsbl %al,%eax
   1126b:	44 89 ee             	mov    %r13d,%esi
   1126e:	89 c7                	mov    %eax,%edi
   11270:	e8 9d 7f ff ff       	callq  9212 <safe_mul_func_int8_t_s_s>
   11275:	84 c0                	test   %al,%al
   11277:	74 11                	je     1128a <func_22+0x8cf>
   11279:	66 83 bd ec e9 ff ff 	cmpw   $0x0,-0x1614(%rbp)
   11280:	00 
   11281:	74 07                	je     1128a <func_22+0x8cf>
   11283:	b8 01 00 00 00       	mov    $0x1,%eax
   11288:	eb 05                	jmp    1128f <func_22+0x8d4>
   1128a:	b8 00 00 00 00       	mov    $0x0,%eax
   1128f:	48 98                	cltq   
   11291:	48 8b 95 f0 ea ff ff 	mov    -0x1510(%rbp),%rdx
   11298:	48 89 d6             	mov    %rdx,%rsi
   1129b:	48 89 c7             	mov    %rax,%rdi
   1129e:	e8 a8 8d ff ff       	callq  a04b <safe_sub_func_uint64_t_u_u>
   112a3:	ba 17 00 00 00       	mov    $0x17,%edx
   112a8:	48 0f be d2          	movsbq %dl,%rdx
   112ac:	48 31 c2             	xor    %rax,%rdx
   112af:	48 8b 85 60 ea ff ff 	mov    -0x15a0(%rbp),%rax
   112b6:	48 85 c0             	test   %rax,%rax
   112b9:	0f 94 c0             	sete   %al
   112bc:	0f b6 c0             	movzbl %al,%eax
   112bf:	48 89 d6             	mov    %rdx,%rsi
   112c2:	48 89 c7             	mov    %rax,%rdi
   112c5:	e8 81 8d ff ff       	callq  a04b <safe_sub_func_uint64_t_u_u>
   112ca:	0f be c0             	movsbl %al,%eax
   112cd:	44 89 e6             	mov    %r12d,%esi
   112d0:	89 c7                	mov    %eax,%edi
   112d2:	e8 fd 7e ff ff       	callq  91d4 <safe_add_func_int8_t_s_s>
   112d7:	48 0f be c0          	movsbq %al,%rax
   112db:	48 89 de             	mov    %rbx,%rsi
   112de:	48 89 c7             	mov    %rax,%rdi
   112e1:	e8 65 8d ff ff       	callq  a04b <safe_sub_func_uint64_t_u_u>
   112e6:	48 8b 85 f8 ea ff ff 	mov    -0x1508(%rbp),%rax
   112ed:	48 c7 00 00 00 00 00 	movq   $0x0,(%rax)
   112f4:	bf 00 00 00 00       	mov    $0x0,%edi
   112f9:	e8 98 82 ff ff       	callq  9596 <safe_unary_minus_func_int32_t_s>
   112fe:	be 00 00 00 00       	mov    $0x0,%esi
   11303:	bf 00 00 00 00       	mov    $0x0,%edi
   11308:	e8 f8 88 ff ff       	callq  9c05 <safe_lshift_func_uint8_t_u_s>
   1130d:	be 09 00 00 00       	mov    $0x9,%esi
   11312:	bf 01 00 00 00       	mov    $0x1,%edi
   11317:	e8 c5 81 ff ff       	callq  94e1 <safe_lshift_func_int16_t_s_u>
   1131c:	66 85 c0             	test   %ax,%ax
   1131f:	74 11                	je     11332 <func_22+0x977>
   11321:	48 83 bd f0 ea ff ff 	cmpq   $0x0,-0x1510(%rbp)
   11328:	00 
   11329:	74 07                	je     11332 <func_22+0x977>
   1132b:	ba 01 00 00 00       	mov    $0x1,%edx
   11330:	eb 05                	jmp    11337 <func_22+0x97c>
   11332:	ba 00 00 00 00       	mov    $0x0,%edx
   11337:	48 8b 85 00 eb ff ff 	mov    -0x1500(%rbp),%rax
   1133e:	89 10                	mov    %edx,(%rax)
   11340:	48 8b 85 88 eb ff ff 	mov    -0x1478(%rbp),%rax
   11347:	48 c7 00 07 00 00 00 	movq   $0x7,(%rax)
   1134e:	48 8b 85 88 eb ff ff 	mov    -0x1478(%rbp),%rax
   11355:	48 8b 00             	mov    (%rax),%rax
   11358:	48 89 05 b1 d2 00 00 	mov    %rax,0xd2b1(%rip)        # 1e610 <g_169>
   1135f:	48 8b 05 aa d2 00 00 	mov    0xd2aa(%rip),%rax        # 1e610 <g_169>
   11366:	89 85 e0 f5 ff ff    	mov    %eax,-0xa20(%rbp)
   1136c:	48 8b 05 15 ba 00 00 	mov    0xba15(%rip),%rax        # 1cd88 <g_422>
   11373:	0f b6 00             	movzbl (%rax),%eax
   11376:	0f be c0             	movsbl %al,%eax
   11379:	48 8b b5 e8 eb ff ff 	mov    -0x1418(%rbp),%rsi
   11380:	48 8b 8d e8 ea ff ff 	mov    -0x1518(%rbp),%rcx
   11387:	48 8b 95 10 eb ff ff 	mov    -0x14f0(%rbp),%rdx
   1138e:	48 89 0a             	mov    %rcx,(%rdx)
   11391:	48 8b 95 10 eb ff ff 	mov    -0x14f0(%rbp),%rdx
   11398:	48 8b 12             	mov    (%rdx),%rdx
   1139b:	48 89 15 b6 bb 00 00 	mov    %rdx,0xbbb6(%rip)        # 1cf58 <g_1198>
   113a2:	48 8b 15 af bb 00 00 	mov    0xbbaf(%rip),%rdx        # 1cf58 <g_1198>
   113a9:	48 39 d6             	cmp    %rdx,%rsi
   113ac:	75 11                	jne    113bf <func_22+0xa04>
   113ae:	ba 02 00 00 00       	mov    $0x2,%edx
   113b3:	66 85 d2             	test   %dx,%dx
   113b6:	74 07                	je     113bf <func_22+0xa04>
   113b8:	ba 01 00 00 00       	mov    $0x1,%edx
   113bd:	eb 05                	jmp    113c4 <func_22+0xa09>
   113bf:	ba 00 00 00 00       	mov    $0x0,%edx
   113c4:	85 d2                	test   %edx,%edx
   113c6:	7f 07                	jg     113cf <func_22+0xa14>
   113c8:	ba 09 00 00 00       	mov    $0x9,%edx
   113cd:	eb 05                	jmp    113d4 <func_22+0xa19>
   113cf:	ba 08 00 00 00       	mov    $0x8,%edx
   113d4:	89 c6                	mov    %eax,%esi
   113d6:	89 d7                	mov    %edx,%edi
   113d8:	e8 28 88 ff ff       	callq  9c05 <safe_lshift_func_uint8_t_u_s>
   113dd:	84 c0                	test   %al,%al
   113df:	74 09                	je     113ea <func_22+0xa2f>
   113e1:	0f b6 05 18 90 00 00 	movzbl 0x9018(%rip),%eax        # 1a400 <g_1202>
   113e8:	84 c0                	test   %al,%al
   113ea:	48 8b 85 00 eb ff ff 	mov    -0x1500(%rbp),%rax
   113f1:	8b 00                	mov    (%rax),%eax
   113f3:	3d fe b8 00 00       	cmp    $0xb8fe,%eax
   113f8:	0f 95 c0             	setne  %al
   113fb:	0f b6 c0             	movzbl %al,%eax
   113fe:	be 00 00 00 00       	mov    $0x0,%esi
   11403:	89 c7                	mov    %eax,%edi
   11405:	e8 d7 80 ff ff       	callq  94e1 <safe_lshift_func_int16_t_s_u>
   1140a:	48 8b 85 18 eb ff ff 	mov    -0x14e8(%rbp),%rax
   11411:	48 3b 85 98 eb ff ff 	cmp    -0x1468(%rbp),%rax
   11418:	0f 95 c0             	setne  %al
   1141b:	0f b6 c0             	movzbl %al,%eax
   1141e:	be 04 00 00 00       	mov    $0x4,%esi
   11423:	89 c7                	mov    %eax,%edi
   11425:	e8 39 81 ff ff       	callq  9563 <safe_rshift_func_int16_t_s_u>
   1142a:	98                   	cwtl   
   1142b:	83 e0 01             	and    $0x1,%eax
   1142e:	89 c2                	mov    %eax,%edx
   11430:	0f b7 85 ec e9 ff ff 	movzwl -0x1614(%rbp),%eax
   11437:	39 c2                	cmp    %eax,%edx
   11439:	0f 9e c0             	setle  %al
   1143c:	0f b6 c0             	movzbl %al,%eax
   1143f:	89 85 30 ec ff ff    	mov    %eax,-0x13d0(%rbp)
   11445:	48 8b 05 9c d2 00 00 	mov    0xd29c(%rip),%rax        # 1e6e8 <g_1076>
   1144c:	0f be c0             	movsbl %al,%eax
   1144f:	be 06 00 00 00       	mov    $0x6,%esi
   11454:	89 c7                	mov    %eax,%edi
   11456:	e8 97 7d ff ff       	callq  91f2 <safe_sub_func_int8_t_s_s>
   1145b:	48 0f be c0          	movsbq %al,%rax
   1145f:	48 89 05 82 d2 00 00 	mov    %rax,0xd282(%rip)        # 1e6e8 <g_1076>
   11466:	48 8b 05 7b d2 00 00 	mov    0xd27b(%rip),%rax        # 1e6e8 <g_1076>
   1146d:	48 83 f8 ed          	cmp    $0xffffffffffffffed,%rax
   11471:	0f 8d 0a fd ff ff    	jge    11181 <func_22+0x7c6>
   11477:	c7 85 08 ea ff ff 01 	movl   $0x1,-0x15f8(%rbp)
   1147e:	00 00 00 
   11481:	e9 d7 00 00 00       	jmpq   1155d <func_22+0xba2>
   11486:	48 b8 eb 3f 5b 02 c4 	movabs $0xc84db4c4025b3feb,%rax
   1148d:	b4 4d c8 
   11490:	48 89 85 28 eb ff ff 	mov    %rax,-0x14d8(%rbp)
   11497:	48 8d 85 b0 f4 ff ff 	lea    -0xb50(%rbp),%rax
   1149e:	48 05 30 01 00 00    	add    $0x130,%rax
   114a4:	48 89 85 30 eb ff ff 	mov    %rax,-0x14d0(%rbp)
   114ab:	48 83 ad 28 eb ff ff 	subq   $0x1,-0x14d8(%rbp)
   114b2:	01 
   114b3:	0f b7 85 bc eb ff ff 	movzwl -0x1444(%rbp),%eax
   114ba:	0f b7 d8             	movzwl %ax,%ebx
   114bd:	48 8b 05 94 b8 00 00 	mov    0xb894(%rip),%rax        # 1cd58 <g_365>
   114c4:	8b 00                	mov    (%rax),%eax
   114c6:	0f b7 85 ec e9 ff ff 	movzwl -0x1614(%rbp),%eax
   114cd:	48 be 33 b2 8e aa 97 	movabs $0x54f14b97aa8eb233,%rsi
   114d4:	4b f1 54 
   114d7:	48 89 c7             	mov    %rax,%rdi
   114da:	e8 a1 8b ff ff       	callq  a080 <safe_mod_func_uint64_t_u_u>
   114df:	0f b6 95 11 ec ff ff 	movzbl -0x13ef(%rbp),%edx
   114e6:	48 0f be d2          	movsbq %dl,%rdx
   114ea:	48 39 d0             	cmp    %rdx,%rax
   114ed:	0f 96 c0             	setbe  %al
   114f0:	0f b6 d0             	movzbl %al,%edx
   114f3:	0f b7 85 ec e9 ff ff 	movzwl -0x1614(%rbp),%eax
   114fa:	39 c2                	cmp    %eax,%edx
   114fc:	0f 94 c0             	sete   %al
   114ff:	0f b6 c0             	movzbl %al,%eax
   11502:	89 de                	mov    %ebx,%esi
   11504:	89 c7                	mov    %eax,%edi
   11506:	e8 32 88 ff ff       	callq  9d3d <safe_mul_func_uint16_t_u_u>
   1150b:	0f b7 c0             	movzwl %ax,%eax
   1150e:	be 01 00 00 00       	mov    $0x1,%esi
   11513:	89 c7                	mov    %eax,%edi
   11515:	e8 23 88 ff ff       	callq  9d3d <safe_mul_func_uint16_t_u_u>
   1151a:	0f b7 d0             	movzwl %ax,%edx
   1151d:	48 8b 85 30 eb ff ff 	mov    -0x14d0(%rbp),%rax
   11524:	89 10                	mov    %edx,(%rax)
   11526:	48 c7 05 57 8e 00 00 	movq   $0x0,0x8e57(%rip)        # 1a388 <g_861>
   1152d:	00 00 00 00 
   11531:	90                   	nop
   11532:	48 8b 05 4f 8e 00 00 	mov    0x8e4f(%rip),%rax        # 1a388 <g_861>
   11539:	48 83 f8 01          	cmp    $0x1,%rax
   1153d:	77 0f                	ja     1154e <func_22+0xb93>
   1153f:	48 8b 85 e0 e9 ff ff 	mov    -0x1620(%rbp),%rax
   11546:	0f b6 00             	movzbl (%rax),%eax
   11549:	e9 17 06 00 00       	jmpq   11b65 <func_22+0x11aa>
   1154e:	8b 85 08 ea ff ff    	mov    -0x15f8(%rbp),%eax
   11554:	83 e8 01             	sub    $0x1,%eax
   11557:	89 85 08 ea ff ff    	mov    %eax,-0x15f8(%rbp)
   1155d:	8b 85 08 ea ff ff    	mov    -0x15f8(%rbp),%eax
   11563:	85 c0                	test   %eax,%eax
   11565:	0f 89 1b ff ff ff    	jns    11486 <func_22+0xacb>
   1156b:	0f b7 05 0a 8c 00 00 	movzwl 0x8c0a(%rip),%eax        # 1a17c <g_141>
   11572:	98                   	cwtl   
   11573:	be 03 00 00 00       	mov    $0x3,%esi
   11578:	89 c7                	mov    %eax,%edi
   1157a:	e8 86 80 ff ff       	callq  9605 <safe_sub_func_int32_t_s_s>
   1157f:	66 89 05 f6 8b 00 00 	mov    %ax,0x8bf6(%rip)        # 1a17c <g_141>
   11586:	0f b7 05 ef 8b 00 00 	movzwl 0x8bef(%rip),%eax        # 1a17c <g_141>
   1158d:	66 83 f8 e4          	cmp    $0xffe4,%ax
   11591:	0f 84 03 fb ff ff    	je     1109a <func_22+0x6df>
   11597:	0f b7 85 b2 eb ff ff 	movzwl -0x144e(%rbp),%eax
   1159e:	0f bf d8             	movswl %ax,%ebx
   115a1:	4c 0f be a5 01 ea ff 	movsbq -0x15ff(%rbp),%r12
   115a8:	ff 
   115a9:	48 8b 85 70 eb ff ff 	mov    -0x1490(%rbp),%rax
   115b0:	44 0f b7 e8          	movzwl %ax,%r13d
   115b4:	48 8b 85 88 eb ff ff 	mov    -0x1478(%rbp),%rax
   115bb:	48 8b 00             	mov    (%rax),%rax
   115be:	48 89 c2             	mov    %rax,%rdx
   115c1:	48 8b 05 c0 8d 00 00 	mov    0x8dc0(%rip),%rax        # 1a388 <g_861>
   115c8:	48 09 d0             	or     %rdx,%rax
   115cb:	48 89 c2             	mov    %rax,%rdx
   115ce:	48 8b 85 88 eb ff ff 	mov    -0x1478(%rbp),%rax
   115d5:	48 89 10             	mov    %rdx,(%rax)
   115d8:	48 8b 85 88 eb ff ff 	mov    -0x1478(%rbp),%rax
   115df:	48 8b 10             	mov    (%rax),%rdx
   115e2:	8b 85 40 ea ff ff    	mov    -0x15c0(%rbp),%eax
   115e8:	48 31 d0             	xor    %rdx,%rax
   115eb:	48 83 f8 07          	cmp    $0x7,%rax
   115ef:	0f 95 c0             	setne  %al
   115f2:	89 c2                	mov    %eax,%edx
   115f4:	8b 85 4c ea ff ff    	mov    -0x15b4(%rbp),%eax
   115fa:	21 d0                	and    %edx,%eax
   115fc:	0f b6 c0             	movzbl %al,%eax
   115ff:	be 06 00 00 00       	mov    $0x6,%esi
   11604:	89 c7                	mov    %eax,%edi
   11606:	e8 41 86 ff ff       	callq  9c4c <safe_lshift_func_uint8_t_u_u>
   1160b:	0f b6 d0             	movzbl %al,%edx
   1160e:	48 8b 05 a3 bc 00 00 	mov    0xbca3(%rip),%rax        # 1d2b8 <g_1448>
   11615:	48 8b 08             	mov    (%rax),%rcx
   11618:	48 8b 05 21 b7 00 00 	mov    0xb721(%rip),%rax        # 1cd40 <g_153>
   1161f:	0f b6 09             	movzbl (%rcx),%ecx
   11622:	88 08                	mov    %cl,(%rax)
   11624:	0f b6 00             	movzbl (%rax),%eax
   11627:	0f b6 c0             	movzbl %al,%eax
   1162a:	89 d6                	mov    %edx,%esi
   1162c:	89 c7                	mov    %eax,%edi
   1162e:	e8 27 85 ff ff       	callq  9b5a <safe_add_func_uint8_t_u_u>
   11633:	ba 01 00 00 00       	mov    $0x1,%edx
   11638:	8b 85 40 ec ff ff    	mov    -0x13c0(%rbp),%eax
   1163e:	09 d0                	or     %edx,%eax
   11640:	89 85 40 ec ff ff    	mov    %eax,-0x13c0(%rbp)
   11646:	8b 95 40 ec ff ff    	mov    -0x13c0(%rbp),%edx
   1164c:	8b 85 a8 eb ff ff    	mov    -0x1458(%rbp),%eax
   11652:	39 c2                	cmp    %eax,%edx
   11654:	0f 94 c0             	sete   %al
   11657:	0f b6 d0             	movzbl %al,%edx
   1165a:	8b 85 08 ea ff ff    	mov    -0x15f8(%rbp),%eax
   11660:	31 d0                	xor    %edx,%eax
   11662:	89 85 08 ea ff ff    	mov    %eax,-0x15f8(%rbp)
   11668:	8b 85 08 ea ff ff    	mov    -0x15f8(%rbp),%eax
   1166e:	0f b7 c0             	movzwl %ax,%eax
   11671:	44 89 ee             	mov    %r13d,%esi
   11674:	89 c7                	mov    %eax,%edi
   11676:	e8 13 87 ff ff       	callq  9d8e <safe_div_func_uint16_t_u_u>
   1167b:	0f b7 c0             	movzwl %ax,%eax
   1167e:	39 85 40 ea ff ff    	cmp    %eax,-0x15c0(%rbp)
   11684:	0f 92 c0             	setb   %al
   11687:	0f b6 c0             	movzbl %al,%eax
   1168a:	4c 89 e6             	mov    %r12,%rsi
   1168d:	48 89 c7             	mov    %rax,%rdi
   11690:	e8 1f 83 ff ff       	callq  99b4 <safe_mod_func_int64_t_s_s>
   11695:	be 66 9d 66 0b       	mov    $0xb669d66,%esi
   1169a:	89 c7                	mov    %eax,%edi
   1169c:	e8 5c 88 ff ff       	callq  9efd <safe_mod_func_uint32_t_u_u>
   116a1:	0f be c0             	movsbl %al,%eax
   116a4:	be ff ff ff ff       	mov    $0xffffffff,%esi
   116a9:	89 c7                	mov    %eax,%edi
   116ab:	e8 24 7b ff ff       	callq  91d4 <safe_add_func_int8_t_s_s>
   116b0:	48 0f be c0          	movsbq %al,%rax
   116b4:	48 89 c6             	mov    %rax,%rsi
   116b7:	48 c7 c7 ff ff ff ff 	mov    $0xffffffffffffffff,%rdi
   116be:	e8 bd 89 ff ff       	callq  a080 <safe_mod_func_uint64_t_u_u>
   116c3:	b8 01 00 00 00       	mov    $0x1,%eax
   116c8:	0f b7 d0             	movzwl %ax,%edx
   116cb:	48 8b 85 98 ea ff ff 	mov    -0x1568(%rbp),%rax
   116d2:	48 85 c0             	test   %rax,%rax
   116d5:	0f 94 c0             	sete   %al
   116d8:	0f b6 c0             	movzbl %al,%eax
   116db:	89 d6                	mov    %edx,%esi
   116dd:	89 c7                	mov    %eax,%edi
   116df:	e8 1b 86 ff ff       	callq  9cff <safe_add_func_uint16_t_u_u>
   116e4:	0f b7 c0             	movzwl %ax,%eax
   116e7:	89 c6                	mov    %eax,%esi
   116e9:	bf 9a 70 bc 07       	mov    $0x7bc709a,%edi
   116ee:	e8 c5 87 ff ff       	callq  9eb8 <safe_add_func_uint32_t_u_u>
   116f3:	98                   	cwtl   
   116f4:	89 de                	mov    %ebx,%esi
   116f6:	89 c7                	mov    %eax,%edi
   116f8:	e8 f8 7c ff ff       	callq  93f5 <safe_mul_func_int16_t_s_s>
   116fd:	48 8d 05 9c 8a 00 00 	lea    0x8a9c(%rip),%rax        # 1a1a0 <g_154>
   11704:	48 89 85 58 eb ff ff 	mov    %rax,-0x14a8(%rbp)
   1170b:	c7 85 20 ec ff ff ff 	movl   $0xffffffff,-0x13e0(%rbp)
   11712:	ff ff ff 
   11715:	c7 85 24 ec ff ff ff 	movl   $0xffffffff,-0x13dc(%rbp)
   1171c:	ff ff ff 
   1171f:	c7 85 28 ec ff ff ff 	movl   $0xffffffff,-0x13d8(%rbp)
   11726:	ff ff ff 
   11729:	c7 85 2c ec ff ff ff 	movl   $0xffffffff,-0x13d4(%rbp)
   11730:	ff ff ff 
   11733:	c7 85 30 ec ff ff ff 	movl   $0xffffffff,-0x13d0(%rbp)
   1173a:	ff ff ff 
   1173d:	c7 85 34 ec ff ff ff 	movl   $0xffffffff,-0x13cc(%rbp)
   11744:	ff ff ff 
   11747:	c7 85 00 ec ff ff ff 	movl   $0xffffffff,-0x1400(%rbp)
   1174e:	ff ff ff 
   11751:	c7 85 04 ec ff ff ff 	movl   $0xffffffff,-0x13fc(%rbp)
   11758:	ff ff ff 
   1175b:	c7 85 08 ec ff ff ff 	movl   $0xffffffff,-0x13f8(%rbp)
   11762:	ff ff ff 
   11765:	c7 85 0c ec ff ff ff 	movl   $0xffffffff,-0x13f4(%rbp)
   1176c:	ff ff ff 
   1176f:	c7 85 30 ea ff ff 0d 	movl   $0xd85a590d,-0x15d0(%rbp)
   11776:	59 5a d8 
   11779:	48 8d 85 d0 f7 ff ff 	lea    -0x830(%rbp),%rax
   11780:	48 8d 15 59 ad 00 00 	lea    0xad59(%rip),%rdx        # 1c4e0 <g_3271+0x195c>
   11787:	b9 d8 00 00 00       	mov    $0xd8,%ecx
   1178c:	48 89 c7             	mov    %rax,%rdi
   1178f:	48 89 d6             	mov    %rdx,%rsi
   11792:	f3 48 a5             	rep movsq %ds:(%rsi),%es:(%rdi)
   11795:	c6 85 ff e9 ff ff 11 	movb   $0x11,-0x1601(%rbp)
   1179c:	c6 85 00 ea ff ff 0e 	movb   $0xe,-0x1600(%rbp)
   117a3:	48 8d 85 b0 f4 ff ff 	lea    -0xb50(%rbp),%rax
   117aa:	48 8d 15 cf 48 00 00 	lea    0x48cf(%rip),%rdx        # 16080 <g_2357+0x1010>
   117b1:	b9 54 00 00 00       	mov    $0x54,%ecx
   117b6:	48 89 c7             	mov    %rax,%rdi
   117b9:	48 89 d6             	mov    %rdx,%rsi
   117bc:	f3 48 a5             	rep movsq %ds:(%rsi),%es:(%rdi)
   117bf:	48 8d 85 80 ea ff ff 	lea    -0x1580(%rbp),%rax
   117c6:	48 89 85 50 eb ff ff 	mov    %rax,-0x14b0(%rbp)
   117cd:	c7 85 24 ea ff ff 57 	movl   $0xcdcd57,-0x15dc(%rbp)
   117d4:	cd cd 00 
   117d7:	c7 85 28 ea ff ff 23 	movl   $0x2bcee23,-0x15d8(%rbp)
   117de:	ee bc 02 
   117e1:	48 8d 85 d0 f7 ff ff 	lea    -0x830(%rbp),%rax
   117e8:	48 05 30 05 00 00    	add    $0x530,%rax
   117ee:	48 89 85 e0 ea ff ff 	mov    %rax,-0x1520(%rbp)
   117f5:	c7 85 2c ea ff ff 0a 	movl   $0x269b440a,-0x15d4(%rbp)
   117fc:	44 9b 26 
   117ff:	66 c7 85 06 ea ff ff 	movw   $0x76b5,-0x15fa(%rbp)
   11806:	b5 76 
   11808:	48 8d 85 e0 ea ff ff 	lea    -0x1520(%rbp),%rax
   1180f:	48 89 85 40 eb ff ff 	mov    %rax,-0x14c0(%rbp)
   11816:	48 c7 85 48 eb ff ff 	movq   $0x6,-0x14b8(%rbp)
   1181d:	06 00 00 00 
   11821:	66 c7 85 04 ea ff ff 	movw   $0xfce8,-0x15fc(%rbp)
   11828:	e8 fc 
   1182a:	48 8d 85 60 ea ff ff 	lea    -0x15a0(%rbp),%rax
   11831:	48 89 85 e8 ea ff ff 	mov    %rax,-0x1518(%rbp)
   11838:	48 8d 05 f9 bb 00 00 	lea    0xbbf9(%rip),%rax        # 1d438 <g_1823>
   1183f:	48 89 85 50 ed ff ff 	mov    %rax,-0x12b0(%rbp)
   11846:	48 8d 05 eb bb 00 00 	lea    0xbbeb(%rip),%rax        # 1d438 <g_1823>
   1184d:	48 89 85 58 ed ff ff 	mov    %rax,-0x12a8(%rbp)
   11854:	48 8d 05 dd bb 00 00 	lea    0xbbdd(%rip),%rax        # 1d438 <g_1823>
   1185b:	48 89 85 60 ed ff ff 	mov    %rax,-0x12a0(%rbp)
   11862:	48 c7 85 68 ed ff ff 	movq   $0x0,-0x1298(%rbp)
   11869:	00 00 00 00 
   1186d:	48 8d 85 e8 ea ff ff 	lea    -0x1518(%rbp),%rax
   11874:	48 89 85 70 ed ff ff 	mov    %rax,-0x1290(%rbp)
   1187b:	48 c7 85 78 ed ff ff 	movq   $0x0,-0x1288(%rbp)
   11882:	00 00 00 00 
   11886:	48 8d 05 ab bb 00 00 	lea    0xbbab(%rip),%rax        # 1d438 <g_1823>
   1188d:	48 89 85 80 ed ff ff 	mov    %rax,-0x1280(%rbp)
   11894:	48 8d 05 9d bb 00 00 	lea    0xbb9d(%rip),%rax        # 1d438 <g_1823>
   1189b:	48 89 85 88 ed ff ff 	mov    %rax,-0x1278(%rbp)
   118a2:	48 8d 85 e8 ea ff ff 	lea    -0x1518(%rbp),%rax
   118a9:	48 89 85 90 ed ff ff 	mov    %rax,-0x1270(%rbp)
   118b0:	48 c7 85 98 ed ff ff 	movq   $0x0,-0x1268(%rbp)
   118b7:	00 00 00 00 
   118bb:	48 8d 05 76 bb 00 00 	lea    0xbb76(%rip),%rax        # 1d438 <g_1823>
   118c2:	48 89 85 a0 ed ff ff 	mov    %rax,-0x1260(%rbp)
   118c9:	48 8d 05 68 bb 00 00 	lea    0xbb68(%rip),%rax        # 1d438 <g_1823>
   118d0:	48 89 85 a8 ed ff ff 	mov    %rax,-0x1258(%rbp)
   118d7:	48 8d 05 5a bb 00 00 	lea    0xbb5a(%rip),%rax        # 1d438 <g_1823>
   118de:	48 89 85 b0 ed ff ff 	mov    %rax,-0x1250(%rbp)
   118e5:	48 c7 85 b8 ed ff ff 	movq   $0x0,-0x1248(%rbp)
   118ec:	00 00 00 00 
   118f0:	48 8d 85 e8 ea ff ff 	lea    -0x1518(%rbp),%rax
   118f7:	48 89 85 c0 ed ff ff 	mov    %rax,-0x1240(%rbp)
   118fe:	48 c7 85 c8 ed ff ff 	movq   $0x0,-0x1238(%rbp)
   11905:	00 00 00 00 
   11909:	48 8d 85 e8 ea ff ff 	lea    -0x1518(%rbp),%rax
   11910:	48 89 85 d0 ed ff ff 	mov    %rax,-0x1230(%rbp)
   11917:	48 8d 05 1a bb 00 00 	lea    0xbb1a(%rip),%rax        # 1d438 <g_1823>
   1191e:	48 89 85 d8 ed ff ff 	mov    %rax,-0x1228(%rbp)
   11925:	48 8d 05 0c bb 00 00 	lea    0xbb0c(%rip),%rax        # 1d438 <g_1823>
   1192c:	48 89 85 e0 ed ff ff 	mov    %rax,-0x1220(%rbp)
   11933:	48 8d 05 fe ba 00 00 	lea    0xbafe(%rip),%rax        # 1d438 <g_1823>
   1193a:	48 89 85 e8 ed ff ff 	mov    %rax,-0x1218(%rbp)
   11941:	48 8d 85 e8 ea ff ff 	lea    -0x1518(%rbp),%rax
   11948:	48 89 85 f0 ed ff ff 	mov    %rax,-0x1210(%rbp)
   1194f:	48 8d 85 e8 ea ff ff 	lea    -0x1518(%rbp),%rax
   11956:	48 89 85 f8 ed ff ff 	mov    %rax,-0x1208(%rbp)
   1195d:	48 8d 85 e8 ea ff ff 	lea    -0x1518(%rbp),%rax
   11964:	48 89 85 00 ee ff ff 	mov    %rax,-0x1200(%rbp)
   1196b:	48 8d 05 c6 ba 00 00 	lea    0xbac6(%rip),%rax        # 1d438 <g_1823>
   11972:	48 89 85 08 ee ff ff 	mov    %rax,-0x11f8(%rbp)
   11979:	48 8d 05 b8 ba 00 00 	lea    0xbab8(%rip),%rax        # 1d438 <g_1823>
   11980:	48 89 85 10 ee ff ff 	mov    %rax,-0x11f0(%rbp)
   11987:	48 8d 05 aa ba 00 00 	lea    0xbaaa(%rip),%rax        # 1d438 <g_1823>
   1198e:	48 89 85 18 ee ff ff 	mov    %rax,-0x11e8(%rbp)
   11995:	48 8d 05 9c ba 00 00 	lea    0xba9c(%rip),%rax        # 1d438 <g_1823>
   1199c:	48 89 85 20 ee ff ff 	mov    %rax,-0x11e0(%rbp)
   119a3:	48 c7 85 28 ee ff ff 	movq   $0x0,-0x11d8(%rbp)
   119aa:	00 00 00 00 
   119ae:	48 8d 85 e8 ea ff ff 	lea    -0x1518(%rbp),%rax
   119b5:	48 89 85 30 ee ff ff 	mov    %rax,-0x11d0(%rbp)
   119bc:	48 c7 85 38 ee ff ff 	movq   $0x0,-0x11c8(%rbp)
   119c3:	00 00 00 00 
   119c7:	48 8d 05 6a ba 00 00 	lea    0xba6a(%rip),%rax        # 1d438 <g_1823>
   119ce:	48 89 85 40 ee ff ff 	mov    %rax,-0x11c0(%rbp)
   119d5:	48 8d 05 5c ba 00 00 	lea    0xba5c(%rip),%rax        # 1d438 <g_1823>
   119dc:	48 89 85 48 ee ff ff 	mov    %rax,-0x11b8(%rbp)
   119e3:	48 8d 85 e8 ea ff ff 	lea    -0x1518(%rbp),%rax
   119ea:	48 89 85 50 ee ff ff 	mov    %rax,-0x11b0(%rbp)
   119f1:	48 c7 85 58 ee ff ff 	movq   $0x0,-0x11a8(%rbp)
   119f8:	00 00 00 00 
   119fc:	48 8d 05 35 ba 00 00 	lea    0xba35(%rip),%rax        # 1d438 <g_1823>
   11a03:	48 89 85 60 ee ff ff 	mov    %rax,-0x11a0(%rbp)
   11a0a:	48 8d 05 27 ba 00 00 	lea    0xba27(%rip),%rax        # 1d438 <g_1823>
   11a11:	48 89 85 68 ee ff ff 	mov    %rax,-0x1198(%rbp)
   11a18:	48 8d 05 19 ba 00 00 	lea    0xba19(%rip),%rax        # 1d438 <g_1823>
   11a1f:	48 89 85 70 ee ff ff 	mov    %rax,-0x1190(%rbp)
   11a26:	48 c7 85 78 ee ff ff 	movq   $0x0,-0x1188(%rbp)
   11a2d:	00 00 00 00 
   11a31:	48 8d 85 e8 ea ff ff 	lea    -0x1518(%rbp),%rax
   11a38:	48 89 85 80 ee ff ff 	mov    %rax,-0x1180(%rbp)
   11a3f:	48 c7 85 88 ee ff ff 	movq   $0x0,-0x1178(%rbp)
   11a46:	00 00 00 00 
   11a4a:	48 8d 85 e8 ea ff ff 	lea    -0x1518(%rbp),%rax
   11a51:	48 89 85 90 ee ff ff 	mov    %rax,-0x1170(%rbp)
   11a58:	48 8d 05 d9 b9 00 00 	lea    0xb9d9(%rip),%rax        # 1d438 <g_1823>
   11a5f:	48 89 85 98 ee ff ff 	mov    %rax,-0x1168(%rbp)
   11a66:	48 8d 05 cb b9 00 00 	lea    0xb9cb(%rip),%rax        # 1d438 <g_1823>
   11a6d:	48 89 85 a0 ee ff ff 	mov    %rax,-0x1160(%rbp)
   11a74:	48 8d 05 bd b9 00 00 	lea    0xb9bd(%rip),%rax        # 1d438 <g_1823>
   11a7b:	48 89 85 a8 ee ff ff 	mov    %rax,-0x1158(%rbp)
   11a82:	48 8d 85 e8 ea ff ff 	lea    -0x1518(%rbp),%rax
   11a89:	48 89 85 b0 ee ff ff 	mov    %rax,-0x1150(%rbp)
   11a90:	48 8d 85 e8 ea ff ff 	lea    -0x1518(%rbp),%rax
   11a97:	48 89 85 b8 ee ff ff 	mov    %rax,-0x1148(%rbp)
   11a9e:	48 8d 85 e8 ea ff ff 	lea    -0x1518(%rbp),%rax
   11aa5:	48 89 85 c0 ee ff ff 	mov    %rax,-0x1140(%rbp)
   11aac:	48 8d 05 85 b9 00 00 	lea    0xb985(%rip),%rax        # 1d438 <g_1823>
   11ab3:	48 89 85 c8 ee ff ff 	mov    %rax,-0x1138(%rbp)
   11aba:	48 8d 05 77 b9 00 00 	lea    0xb977(%rip),%rax        # 1d438 <g_1823>
   11ac1:	48 89 85 d0 ee ff ff 	mov    %rax,-0x1130(%rbp)
   11ac8:	48 8d 05 69 b9 00 00 	lea    0xb969(%rip),%rax        # 1d438 <g_1823>
   11acf:	48 89 85 d8 ee ff ff 	mov    %rax,-0x1128(%rbp)
   11ad6:	48 8d 05 5b b9 00 00 	lea    0xb95b(%rip),%rax        # 1d438 <g_1823>
   11add:	48 89 85 e0 ee ff ff 	mov    %rax,-0x1120(%rbp)
   11ae4:	48 c7 85 e8 ee ff ff 	movq   $0x0,-0x1118(%rbp)
   11aeb:	00 00 00 00 
   11aef:	48 8d 85 e8 ea ff ff 	lea    -0x1518(%rbp),%rax
   11af6:	48 89 85 f0 ee ff ff 	mov    %rax,-0x1110(%rbp)
   11afd:	48 c7 85 f8 ee ff ff 	movq   $0x0,-0x1108(%rbp)
   11b04:	00 00 00 00 
   11b08:	48 8d 05 29 b9 00 00 	lea    0xb929(%rip),%rax        # 1d438 <g_1823>
   11b0f:	48 89 85 00 ef ff ff 	mov    %rax,-0x1100(%rbp)
   11b16:	48 8d 05 1b b9 00 00 	lea    0xb91b(%rip),%rax        # 1d438 <g_1823>
   11b1d:	48 89 85 08 ef ff ff 	mov    %rax,-0x10f8(%rbp)
   11b24:	48 c7 85 38 eb ff ff 	movq   $0x3,-0x14c8(%rbp)
   11b2b:	03 00 00 00 
   11b2f:	c7 85 18 ea ff ff 00 	movl   $0x0,-0x15e8(%rbp)
   11b36:	00 00 00 
   11b39:	eb 1a                	jmp    11b55 <func_22+0x119a>
   11b3b:	8b 85 18 ea ff ff    	mov    -0x15e8(%rbp),%eax
   11b41:	48 98                	cltq   
   11b43:	c7 84 85 e0 eb ff ff 	movl   $0xecb820c6,-0x1420(%rbp,%rax,4)
   11b4a:	c6 20 b8 ec 
   11b4e:	83 85 18 ea ff ff 01 	addl   $0x1,-0x15e8(%rbp)
   11b55:	83 bd 18 ea ff ff 02 	cmpl   $0x2,-0x15e8(%rbp)
   11b5c:	7e dd                	jle    11b3b <func_22+0x1180>
   11b5e:	0f b7 85 ec e9 ff ff 	movzwl -0x1614(%rbp),%eax
   11b65:	48 8b 5d d8          	mov    -0x28(%rbp),%rbx
   11b69:	64 48 33 1c 25 28 00 	xor    %fs:0x28,%rbx
   11b70:	00 00 
   11b72:	74 05                	je     11b79 <func_22+0x11be>
   11b74:	e8 f7 74 ff ff       	callq  9070 <__stack_chk_fail@plt>
   11b79:	48 81 c4 08 16 00 00 	add    $0x1608,%rsp
   11b80:	5b                   	pop    %rbx
   11b81:	41 5c                	pop    %r12
   11b83:	41 5d                	pop    %r13
   11b85:	5d                   	pop    %rbp
   11b86:	c3                   	retq   

0000000000011b87 <func_26>:
   11b87:	f3 0f 1e fa          	endbr64 
   11b8b:	55                   	push   %rbp
   11b8c:	48 89 e5             	mov    %rsp,%rbp
   11b8f:	48 81 ec 90 00 00 00 	sub    $0x90,%rsp
   11b96:	48 89 55 80          	mov    %rdx,-0x80(%rbp)
   11b9a:	89 c8                	mov    %ecx,%eax
   11b9c:	44 89 c1             	mov    %r8d,%ecx
   11b9f:	89 fa                	mov    %edi,%edx
   11ba1:	66 89 55 8c          	mov    %dx,-0x74(%rbp)
   11ba5:	89 f2                	mov    %esi,%edx
   11ba7:	88 55 88             	mov    %dl,-0x78(%rbp)
   11baa:	66 89 85 7c ff ff ff 	mov    %ax,-0x84(%rbp)
   11bb1:	89 c8                	mov    %ecx,%eax
   11bb3:	88 85 78 ff ff ff    	mov    %al,-0x88(%rbp)
   11bb9:	64 48 8b 04 25 28 00 	mov    %fs:0x28,%rax
   11bc0:	00 00 
   11bc2:	48 89 45 f8          	mov    %rax,-0x8(%rbp)
   11bc6:	31 c0                	xor    %eax,%eax
   11bc8:	48 c7 45 a8 00 00 00 	movq   $0x0,-0x58(%rbp)
   11bcf:	00 
   11bd0:	48 8d 05 51 85 00 00 	lea    0x8551(%rip),%rax        # 1a128 <g_86>
   11bd7:	48 89 45 b0          	mov    %rax,-0x50(%rbp)
   11bdb:	48 8d 05 46 85 00 00 	lea    0x8546(%rip),%rax        # 1a128 <g_86>
   11be2:	48 89 45 b8          	mov    %rax,-0x48(%rbp)
   11be6:	48 8d 05 c3 85 00 00 	lea    0x85c3(%rip),%rax        # 1a1b0 <g_234>
   11bed:	48 89 45 c0          	mov    %rax,-0x40(%rbp)
   11bf1:	66 c7 45 9a 01 00    	movw   $0x1,-0x66(%rbp)
   11bf7:	c7 45 a4 01 00 00 00 	movl   $0x1,-0x5c(%rbp)
   11bfe:	66 c7 45 9c 42 08    	movw   $0x842,-0x64(%rbp)
   11c04:	c6 45 99 04          	movb   $0x4,-0x67(%rbp)
   11c08:	48 8d 05 b1 ca 00 00 	lea    0xcab1(%rip),%rax        # 1e6c0 <g_811>
   11c0f:	48 89 45 c8          	mov    %rax,-0x38(%rbp)
   11c13:	48 8d 05 1e ca 00 00 	lea    0xca1e(%rip),%rax        # 1e638 <g_532+0x8>
   11c1a:	48 89 45 d0          	mov    %rax,-0x30(%rbp)
   11c1e:	48 8d 05 13 ca 00 00 	lea    0xca13(%rip),%rax        # 1e638 <g_532+0x8>
   11c25:	48 89 45 d8          	mov    %rax,-0x28(%rbp)
   11c29:	66 c7 45 9e 09 00    	movw   $0x9,-0x62(%rbp)
   11c2f:	c7 45 a0 00 00 00 00 	movl   $0x0,-0x60(%rbp)
   11c36:	eb 15                	jmp    11c4d <func_26+0xc6>
   11c38:	8b 45 a0             	mov    -0x60(%rbp),%eax
   11c3b:	48 98                	cltq   
   11c3d:	48 8d 15 e4 84 00 00 	lea    0x84e4(%rip),%rdx        # 1a128 <g_86>
   11c44:	48 89 54 c5 e0       	mov    %rdx,-0x20(%rbp,%rax,8)
   11c49:	83 45 a0 01          	addl   $0x1,-0x60(%rbp)
   11c4d:	83 7d a0 01          	cmpl   $0x1,-0x60(%rbp)
   11c51:	7e e5                	jle    11c38 <func_26+0xb1>
   11c53:	80 6d 99 01          	subb   $0x1,-0x67(%rbp)
   11c57:	48 8b 45 c0          	mov    -0x40(%rbp),%rax
   11c5b:	8b 10                	mov    (%rax),%edx
   11c5d:	48 8b 45 c0          	mov    -0x40(%rbp),%rax
   11c61:	89 10                	mov    %edx,(%rax)
   11c63:	48 8b 45 c0          	mov    -0x40(%rbp),%rax
   11c67:	8b 10                	mov    (%rax),%edx
   11c69:	48 8b 45 b0          	mov    -0x50(%rbp),%rax
   11c6d:	8b 00                	mov    (%rax),%eax
   11c6f:	31 c2                	xor    %eax,%edx
   11c71:	48 8b 45 b0          	mov    -0x50(%rbp),%rax
   11c75:	89 10                	mov    %edx,(%rax)
   11c77:	48 8b 05 c2 b0 00 00 	mov    0xb0c2(%rip),%rax        # 1cd40 <g_153>
   11c7e:	0f b6 00             	movzbl (%rax),%eax
   11c81:	0f b6 d0             	movzbl %al,%edx
   11c84:	48 8b 45 d0          	mov    -0x30(%rbp),%rax
   11c88:	48 3b 45 d8          	cmp    -0x28(%rbp),%rax
   11c8c:	0f 94 c0             	sete   %al
   11c8f:	0f b6 c0             	movzbl %al,%eax
   11c92:	89 d6                	mov    %edx,%esi
   11c94:	89 c7                	mov    %eax,%edi
   11c96:	e8 bf 7e ff ff       	callq  9b5a <safe_add_func_uint8_t_u_u>
   11c9b:	84 c0                	test   %al,%al
   11c9d:	74 30                	je     11ccf <func_26+0x148>
   11c9f:	48 8b 05 92 b2 00 00 	mov    0xb292(%rip),%rax        # 1cf38 <g_1033>
   11ca6:	0f b7 00             	movzwl (%rax),%eax
   11ca9:	0f bf d0             	movswl %ax,%edx
   11cac:	48 8b 45 b0          	mov    -0x50(%rbp),%rax
   11cb0:	8b 00                	mov    (%rax),%eax
   11cb2:	98                   	cwtl   
   11cb3:	89 d6                	mov    %edx,%esi
   11cb5:	89 c7                	mov    %eax,%edi
   11cb7:	e8 39 77 ff ff       	callq  93f5 <safe_mul_func_int16_t_s_s>
   11cbc:	0f bf d0             	movswl %ax,%edx
   11cbf:	0f bf 45 9e          	movswl -0x62(%rbp),%eax
   11cc3:	89 d6                	mov    %edx,%esi
   11cc5:	89 c7                	mov    %eax,%edi
   11cc7:	e8 89 77 ff ff       	callq  9455 <safe_div_func_int16_t_s_s>
   11ccc:	66 85 c0             	test   %ax,%ax
   11ccf:	0f b7 45 8c          	movzwl -0x74(%rbp),%eax
   11cd3:	f7 d0                	not    %eax
   11cd5:	66 c1 e8 0f          	shr    $0xf,%ax
   11cd9:	0f b6 d0             	movzbl %al,%edx
   11cdc:	48 0f bf 85 7c ff ff 	movswq -0x84(%rbp),%rax
   11ce3:	ff 
   11ce4:	48 89 d6             	mov    %rdx,%rsi
   11ce7:	48 89 c7             	mov    %rax,%rdi
   11cea:	e8 52 7b ff ff       	callq  9841 <safe_add_func_int64_t_s_s>
   11cef:	0f b7 d0             	movzwl %ax,%edx
   11cf2:	48 8b 45 80          	mov    -0x80(%rbp),%rax
   11cf6:	0f b7 c0             	movzwl %ax,%eax
   11cf9:	89 d6                	mov    %edx,%esi
   11cfb:	89 c7                	mov    %eax,%edi
   11cfd:	e8 5a 80 ff ff       	callq  9d5c <safe_mod_func_uint16_t_u_u>
   11d02:	ba 01 00 00 00       	mov    $0x1,%edx
   11d07:	48 8b 45 c0          	mov    -0x40(%rbp),%rax
   11d0b:	8b 00                	mov    (%rax),%eax
   11d0d:	21 c2                	and    %eax,%edx
   11d0f:	48 8b 45 c0          	mov    -0x40(%rbp),%rax
   11d13:	89 10                	mov    %edx,(%rax)
   11d15:	48 8b 05 74 b0 00 00 	mov    0xb074(%rip),%rax        # 1cd90 <g_421>
   11d1c:	48 8b 00             	mov    (%rax),%rax
   11d1f:	48 8b 4d f8          	mov    -0x8(%rbp),%rcx
   11d23:	64 48 33 0c 25 28 00 	xor    %fs:0x28,%rcx
   11d2a:	00 00 
   11d2c:	74 05                	je     11d33 <func_26+0x1ac>
   11d2e:	e8 3d 73 ff ff       	callq  9070 <__stack_chk_fail@plt>
   11d33:	c9                   	leaveq 
   11d34:	c3                   	retq   

0000000000011d35 <func_34>:
   11d35:	f3 0f 1e fa          	endbr64 
   11d39:	55                   	push   %rbp
   11d3a:	48 89 e5             	mov    %rsp,%rbp
   11d3d:	48 81 ec e0 02 00 00 	sub    $0x2e0,%rsp
   11d44:	48 89 bd 28 fd ff ff 	mov    %rdi,-0x2d8(%rbp)
   11d4b:	64 48 8b 04 25 28 00 	mov    %fs:0x28,%rax
   11d52:	00 00 
   11d54:	48 89 45 f8          	mov    %rax,-0x8(%rbp)
   11d58:	31 c0                	xor    %eax,%eax
   11d5a:	c7 85 50 fd ff ff ff 	movl   $0xffffffff,-0x2b0(%rbp)
   11d61:	ff ff ff 
   11d64:	c7 85 40 fd ff ff ff 	movl   $0xffffffff,-0x2c0(%rbp)
   11d6b:	ff ff ff 
   11d6e:	c7 85 54 fd ff ff 32 	movl   $0x155f6c32,-0x2ac(%rbp)
   11d75:	6c 5f 15 
   11d78:	c7 85 80 fe ff ff 01 	movl   $0x1,-0x180(%rbp)
   11d7f:	00 00 00 
   11d82:	c7 85 84 fe ff ff 80 	movl   $0xb26e5280,-0x17c(%rbp)
   11d89:	52 6e b2 
   11d8c:	c7 85 88 fe ff ff 54 	movl   $0x2d783354,-0x178(%rbp)
   11d93:	33 78 2d 
   11d96:	c7 85 8c fe ff ff e8 	movl   $0xb6400de8,-0x174(%rbp)
   11d9d:	0d 40 b6 
   11da0:	c7 85 90 fe ff ff f7 	movl   $0xfffffff7,-0x170(%rbp)
   11da7:	ff ff ff 
   11daa:	c7 85 94 fe ff ff e8 	movl   $0xb6400de8,-0x16c(%rbp)
   11db1:	0d 40 b6 
   11db4:	c7 85 98 fe ff ff 2f 	movl   $0x61ec622f,-0x168(%rbp)
   11dbb:	62 ec 61 
   11dbe:	c7 85 9c fe ff ff e8 	movl   $0xb6400de8,-0x164(%rbp)
   11dc5:	0d 40 b6 
   11dc8:	c7 85 a0 fe ff ff 07 	movl   $0x7,-0x160(%rbp)
   11dcf:	00 00 00 
   11dd2:	c7 85 a4 fe ff ff ff 	movl   $0xffffffff,-0x15c(%rbp)
   11dd9:	ff ff ff 
   11ddc:	c7 85 a8 fe ff ff f9 	movl   $0xfffffff9,-0x158(%rbp)
   11de3:	ff ff ff 
   11de6:	c7 85 ac fe ff ff f7 	movl   $0xfffffff7,-0x154(%rbp)
   11ded:	ff ff ff 
   11df0:	c7 85 b0 fe ff ff 01 	movl   $0x1,-0x150(%rbp)
   11df7:	00 00 00 
   11dfa:	c7 85 b4 fe ff ff 54 	movl   $0x2d783354,-0x14c(%rbp)
   11e01:	33 78 2d 
   11e04:	c7 85 b8 fe ff ff 2f 	movl   $0x61ec622f,-0x148(%rbp)
   11e0b:	62 ec 61 
   11e0e:	c7 85 bc fe ff ff ed 	movl   $0x5d53bbed,-0x144(%rbp)
   11e15:	bb 53 5d 
   11e18:	c7 85 c0 fe ff ff 01 	movl   $0x1,-0x140(%rbp)
   11e1f:	00 00 00 
   11e22:	c7 85 c4 fe ff ff f9 	movl   $0xfffffff9,-0x13c(%rbp)
   11e29:	ff ff ff 
   11e2c:	c7 85 c8 fe ff ff ff 	movl   $0xffffffff,-0x138(%rbp)
   11e33:	ff ff ff 
   11e36:	c7 85 cc fe ff ff 80 	movl   $0xb26e5280,-0x134(%rbp)
   11e3d:	52 6e b2 
   11e40:	c7 85 d0 fe ff ff ff 	movl   $0xffffffff,-0x130(%rbp)
   11e47:	ff ff ff 
   11e4a:	c7 85 d4 fe ff ff ed 	movl   $0x5d53bbed,-0x12c(%rbp)
   11e51:	bb 53 5d 
   11e54:	c7 85 d8 fe ff ff ed 	movl   $0x5d53bbed,-0x128(%rbp)
   11e5b:	bb 53 5d 
   11e5e:	c7 85 dc fe ff ff ff 	movl   $0xffffffff,-0x124(%rbp)
   11e65:	ff ff ff 
   11e68:	c7 85 e0 fe ff ff 01 	movl   $0x1,-0x120(%rbp)
   11e6f:	00 00 00 
   11e72:	c7 85 e4 fe ff ff 01 	movl   $0x1,-0x11c(%rbp)
   11e79:	00 00 00 
   11e7c:	c7 85 e8 fe ff ff e8 	movl   $0xb6400de8,-0x118(%rbp)
   11e83:	0d 40 b6 
   11e86:	c7 85 ec fe ff ff ff 	movl   $0xffffffff,-0x114(%rbp)
   11e8d:	ff ff ff 
   11e90:	c7 85 f0 fe ff ff 2f 	movl   $0x61ec622f,-0x110(%rbp)
   11e97:	62 ec 61 
   11e9a:	c7 85 f4 fe ff ff 07 	movl   $0x7,-0x10c(%rbp)
   11ea1:	00 00 00 
   11ea4:	c7 85 f8 fe ff ff 07 	movl   $0x7,-0x108(%rbp)
   11eab:	00 00 00 
   11eae:	c7 85 fc fe ff ff ff 	movl   $0xffffffff,-0x104(%rbp)
   11eb5:	ff ff ff 
   11eb8:	c7 85 00 ff ff ff 01 	movl   $0x1,-0x100(%rbp)
   11ebf:	00 00 00 
   11ec2:	c7 85 04 ff ff ff 80 	movl   $0xb26e5280,-0xfc(%rbp)
   11ec9:	52 6e b2 
   11ecc:	c7 85 08 ff ff ff 54 	movl   $0x2d783354,-0xf8(%rbp)
   11ed3:	33 78 2d 
   11ed6:	c7 85 0c ff ff ff e8 	movl   $0xb6400de8,-0xf4(%rbp)
   11edd:	0d 40 b6 
   11ee0:	48 c7 85 88 fd ff ff 	movq   $0x0,-0x278(%rbp)
   11ee7:	00 00 00 00 
   11eeb:	48 c7 85 90 fd ff ff 	movq   $0x0,-0x270(%rbp)
   11ef2:	00 00 00 00 
   11ef6:	48 8d 85 80 fe ff ff 	lea    -0x180(%rbp),%rax
   11efd:	48 83 c0 34          	add    $0x34,%rax
   11f01:	48 89 85 98 fd ff ff 	mov    %rax,-0x268(%rbp)
   11f08:	48 8d 85 80 fe ff ff 	lea    -0x180(%rbp),%rax
   11f0f:	48 83 c0 0c          	add    $0xc,%rax
   11f13:	48 89 85 a0 fd ff ff 	mov    %rax,-0x260(%rbp)
   11f1a:	48 8d 05 8f 82 00 00 	lea    0x828f(%rip),%rax        # 1a1b0 <g_234>
   11f21:	48 89 85 20 fe ff ff 	mov    %rax,-0x1e0(%rbp)
   11f28:	48 8d 85 80 fe ff ff 	lea    -0x180(%rbp),%rax
   11f2f:	48 83 c0 78          	add    $0x78,%rax
   11f33:	48 89 85 28 fe ff ff 	mov    %rax,-0x1d8(%rbp)
   11f3a:	48 8d 85 80 fe ff ff 	lea    -0x180(%rbp),%rax
   11f41:	48 83 c0 78          	add    $0x78,%rax
   11f45:	48 89 85 30 fe ff ff 	mov    %rax,-0x1d0(%rbp)
   11f4c:	48 8d 05 5d 82 00 00 	lea    0x825d(%rip),%rax        # 1a1b0 <g_234>
   11f53:	48 89 85 38 fe ff ff 	mov    %rax,-0x1c8(%rbp)
   11f5a:	48 8d 85 80 fe ff ff 	lea    -0x180(%rbp),%rax
   11f61:	48 83 c0 78          	add    $0x78,%rax
   11f65:	48 89 85 40 fe ff ff 	mov    %rax,-0x1c0(%rbp)
   11f6c:	48 8d 85 80 fe ff ff 	lea    -0x180(%rbp),%rax
   11f73:	48 83 c0 78          	add    $0x78,%rax
   11f77:	48 89 85 48 fe ff ff 	mov    %rax,-0x1b8(%rbp)
   11f7e:	66 c7 85 3e fd ff ff 	movw   $0x3fd1,-0x2c2(%rbp)
   11f85:	d1 3f 
   11f87:	48 c7 85 a8 fd ff ff 	movq   $0x1,-0x258(%rbp)
   11f8e:	01 00 00 00 
   11f92:	48 b8 e2 b6 68 03 dc 	movabs $0x432dc0368b6e2,%rax
   11f99:	32 04 00 
   11f9c:	48 89 85 b0 fd ff ff 	mov    %rax,-0x250(%rbp)
   11fa3:	48 8b 05 76 ad 00 00 	mov    0xad76(%rip),%rax        # 1cd20 <g_85>
   11faa:	8b 00                	mov    (%rax),%eax
   11fac:	85 c0                	test   %eax,%eax
   11fae:	0f 84 ea 02 00 00    	je     1229e <func_34+0x569>
   11fb4:	48 c7 85 b8 fd ff ff 	movq   $0x1,-0x248(%rbp)
   11fbb:	01 00 00 00 
   11fbf:	48 8d 05 7a 82 00 00 	lea    0x827a(%rip),%rax        # 1a240 <g_333+0x60>
   11fc6:	48 89 85 c0 fd ff ff 	mov    %rax,-0x240(%rbp)
   11fcd:	48 8d 85 80 fe ff ff 	lea    -0x180(%rbp),%rax
   11fd4:	48 83 c0 54          	add    $0x54,%rax
   11fd8:	48 89 85 c8 fd ff ff 	mov    %rax,-0x238(%rbp)
   11fdf:	48 8d 05 92 81 00 00 	lea    0x8192(%rip),%rax        # 1a178 <g_139>
   11fe6:	48 89 85 10 ff ff ff 	mov    %rax,-0xf0(%rbp)
   11fed:	48 8d 05 34 c6 00 00 	lea    0xc634(%rip),%rax        # 1e628 <g_514>
   11ff4:	48 89 85 18 ff ff ff 	mov    %rax,-0xe8(%rbp)
   11ffb:	48 8d 05 76 81 00 00 	lea    0x8176(%rip),%rax        # 1a178 <g_139>
   12002:	48 89 85 20 ff ff ff 	mov    %rax,-0xe0(%rbp)
   12009:	48 8d 05 68 81 00 00 	lea    0x8168(%rip),%rax        # 1a178 <g_139>
   12010:	48 89 85 28 ff ff ff 	mov    %rax,-0xd8(%rbp)
   12017:	48 8d 05 0a c6 00 00 	lea    0xc60a(%rip),%rax        # 1e628 <g_514>
   1201e:	48 89 85 30 ff ff ff 	mov    %rax,-0xd0(%rbp)
   12025:	48 8d 05 4c 81 00 00 	lea    0x814c(%rip),%rax        # 1a178 <g_139>
   1202c:	48 89 85 38 ff ff ff 	mov    %rax,-0xc8(%rbp)
   12033:	48 8d 05 3e 81 00 00 	lea    0x813e(%rip),%rax        # 1a178 <g_139>
   1203a:	48 89 85 40 ff ff ff 	mov    %rax,-0xc0(%rbp)
   12041:	48 8d 05 e0 c5 00 00 	lea    0xc5e0(%rip),%rax        # 1e628 <g_514>
   12048:	48 89 85 48 ff ff ff 	mov    %rax,-0xb8(%rbp)
   1204f:	48 8d 05 22 81 00 00 	lea    0x8122(%rip),%rax        # 1a178 <g_139>
   12056:	48 89 85 50 ff ff ff 	mov    %rax,-0xb0(%rbp)
   1205d:	48 8d 05 14 81 00 00 	lea    0x8114(%rip),%rax        # 1a178 <g_139>
   12064:	48 89 85 58 ff ff ff 	mov    %rax,-0xa8(%rbp)
   1206b:	48 8d 05 b6 c5 00 00 	lea    0xc5b6(%rip),%rax        # 1e628 <g_514>
   12072:	48 89 85 60 ff ff ff 	mov    %rax,-0xa0(%rbp)
   12079:	48 8d 05 f8 80 00 00 	lea    0x80f8(%rip),%rax        # 1a178 <g_139>
   12080:	48 89 85 68 ff ff ff 	mov    %rax,-0x98(%rbp)
   12087:	48 8d 05 ea 80 00 00 	lea    0x80ea(%rip),%rax        # 1a178 <g_139>
   1208e:	48 89 85 70 ff ff ff 	mov    %rax,-0x90(%rbp)
   12095:	48 8d 05 8c c5 00 00 	lea    0xc58c(%rip),%rax        # 1e628 <g_514>
   1209c:	48 89 85 78 ff ff ff 	mov    %rax,-0x88(%rbp)
   120a3:	48 8d 05 ce 80 00 00 	lea    0x80ce(%rip),%rax        # 1a178 <g_139>
   120aa:	48 89 45 80          	mov    %rax,-0x80(%rbp)
   120ae:	48 8d 05 c3 80 00 00 	lea    0x80c3(%rip),%rax        # 1a178 <g_139>
   120b5:	48 89 45 88          	mov    %rax,-0x78(%rbp)
   120b9:	48 8d 05 68 c5 00 00 	lea    0xc568(%rip),%rax        # 1e628 <g_514>
   120c0:	48 89 45 90          	mov    %rax,-0x70(%rbp)
   120c4:	48 8d 05 ad 80 00 00 	lea    0x80ad(%rip),%rax        # 1a178 <g_139>
   120cb:	48 89 45 98          	mov    %rax,-0x68(%rbp)
   120cf:	48 8d 05 a2 80 00 00 	lea    0x80a2(%rip),%rax        # 1a178 <g_139>
   120d6:	48 89 45 a0          	mov    %rax,-0x60(%rbp)
   120da:	48 8d 05 47 c5 00 00 	lea    0xc547(%rip),%rax        # 1e628 <g_514>
   120e1:	48 89 45 a8          	mov    %rax,-0x58(%rbp)
   120e5:	48 8d 05 8c 80 00 00 	lea    0x808c(%rip),%rax        # 1a178 <g_139>
   120ec:	48 89 45 b0          	mov    %rax,-0x50(%rbp)
   120f0:	48 8d 05 81 80 00 00 	lea    0x8081(%rip),%rax        # 1a178 <g_139>
   120f7:	48 89 45 b8          	mov    %rax,-0x48(%rbp)
   120fb:	48 8d 05 26 c5 00 00 	lea    0xc526(%rip),%rax        # 1e628 <g_514>
   12102:	48 89 45 c0          	mov    %rax,-0x40(%rbp)
   12106:	48 8d 05 6b 80 00 00 	lea    0x806b(%rip),%rax        # 1a178 <g_139>
   1210d:	48 89 45 c8          	mov    %rax,-0x38(%rbp)
   12111:	48 8d 05 60 80 00 00 	lea    0x8060(%rip),%rax        # 1a178 <g_139>
   12118:	48 89 45 d0          	mov    %rax,-0x30(%rbp)
   1211c:	48 8d 05 05 c5 00 00 	lea    0xc505(%rip),%rax        # 1e628 <g_514>
   12123:	48 89 45 d8          	mov    %rax,-0x28(%rbp)
   12127:	48 8d 05 4a 80 00 00 	lea    0x804a(%rip),%rax        # 1a178 <g_139>
   1212e:	48 89 45 e0          	mov    %rax,-0x20(%rbp)
   12132:	48 8d 05 3f 80 00 00 	lea    0x803f(%rip),%rax        # 1a178 <g_139>
   12139:	48 89 45 e8          	mov    %rax,-0x18(%rbp)
   1213d:	48 8d 85 10 ff ff ff 	lea    -0xf0(%rbp),%rax
   12144:	48 05 98 00 00 00    	add    $0x98,%rax
   1214a:	48 89 85 d0 fd ff ff 	mov    %rax,-0x230(%rbp)
   12151:	48 8d 05 38 ac 00 00 	lea    0xac38(%rip),%rax        # 1cd90 <g_421>
   12158:	48 89 85 f0 fd ff ff 	mov    %rax,-0x210(%rbp)
   1215f:	48 8d 05 2a ac 00 00 	lea    0xac2a(%rip),%rax        # 1cd90 <g_421>
   12166:	48 89 85 f8 fd ff ff 	mov    %rax,-0x208(%rbp)
   1216d:	48 8d 05 1c ac 00 00 	lea    0xac1c(%rip),%rax        # 1cd90 <g_421>
   12174:	48 89 85 00 fe ff ff 	mov    %rax,-0x200(%rbp)
   1217b:	48 8d 05 0e ac 00 00 	lea    0xac0e(%rip),%rax        # 1cd90 <g_421>
   12182:	48 89 85 08 fe ff ff 	mov    %rax,-0x1f8(%rbp)
   12189:	48 8d 05 00 ac 00 00 	lea    0xac00(%rip),%rax        # 1cd90 <g_421>
   12190:	48 89 85 10 fe ff ff 	mov    %rax,-0x1f0(%rbp)
   12197:	48 8d 05 de 7f 00 00 	lea    0x7fde(%rip),%rax        # 1a17c <g_141>
   1219e:	48 89 85 70 fd ff ff 	mov    %rax,-0x290(%rbp)
   121a5:	48 8d 85 70 fd ff ff 	lea    -0x290(%rbp),%rax
   121ac:	48 89 85 78 fd ff ff 	mov    %rax,-0x288(%rbp)
   121b3:	48 8d 85 78 fd ff ff 	lea    -0x288(%rbp),%rax
   121ba:	48 89 85 50 fe ff ff 	mov    %rax,-0x1b0(%rbp)
   121c1:	48 8d 85 78 fd ff ff 	lea    -0x288(%rbp),%rax
   121c8:	48 89 85 58 fe ff ff 	mov    %rax,-0x1a8(%rbp)
   121cf:	48 8d 85 78 fd ff ff 	lea    -0x288(%rbp),%rax
   121d6:	48 89 85 60 fe ff ff 	mov    %rax,-0x1a0(%rbp)
   121dd:	48 8d 85 78 fd ff ff 	lea    -0x288(%rbp),%rax
   121e4:	48 89 85 68 fe ff ff 	mov    %rax,-0x198(%rbp)
   121eb:	48 8d 85 78 fd ff ff 	lea    -0x288(%rbp),%rax
   121f2:	48 89 85 70 fe ff ff 	mov    %rax,-0x190(%rbp)
   121f9:	48 8d 85 78 fd ff ff 	lea    -0x288(%rbp),%rax
   12200:	48 89 85 78 fe ff ff 	mov    %rax,-0x188(%rbp)
   12207:	c7 85 44 fd ff ff 70 	movl   $0xbff4f370,-0x2bc(%rbp)
   1220e:	f3 f4 bf 
   12211:	c7 85 58 fd ff ff 01 	movl   $0x1,-0x2a8(%rbp)
   12218:	00 00 00 
   1221b:	c7 85 5c fd ff ff 48 	movl   $0x5a6be848,-0x2a4(%rbp)
   12222:	e8 6b 5a 
   12225:	c7 85 60 fd ff ff e1 	movl   $0x5978d2e1,-0x2a0(%rbp)
   1222c:	d2 78 59 
   1222f:	c7 85 64 fd ff ff 08 	movl   $0x8,-0x29c(%rbp)
   12236:	00 00 00 
   12239:	c7 85 68 fd ff ff 4d 	movl   $0xa8d32e4d,-0x298(%rbp)
   12240:	2e d3 a8 
   12243:	c7 85 6c fd ff ff 0e 	movl   $0x3fd9f80e,-0x294(%rbp)
   1224a:	f8 d9 3f 
   1224d:	48 8d 05 ec aa 00 00 	lea    0xaaec(%rip),%rax        # 1cd40 <g_153>
   12254:	48 89 85 80 fd ff ff 	mov    %rax,-0x280(%rbp)
   1225b:	48 8d 85 80 fd ff ff 	lea    -0x280(%rbp),%rax
   12262:	48 89 85 d8 fd ff ff 	mov    %rax,-0x228(%rbp)
   12269:	c7 85 48 fd ff ff 00 	movl   $0x0,-0x2b8(%rbp)
   12270:	00 00 00 
   12273:	eb 1e                	jmp    12293 <func_34+0x55e>
   12275:	8b 85 48 fd ff ff    	mov    -0x2b8(%rbp),%eax
   1227b:	48 98                	cltq   
   1227d:	48 8d 95 44 fd ff ff 	lea    -0x2bc(%rbp),%rdx
   12284:	48 89 94 c5 e8 fd ff 	mov    %rdx,-0x218(%rbp,%rax,8)
   1228b:	ff 
   1228c:	83 85 48 fd ff ff 01 	addl   $0x1,-0x2b8(%rbp)
   12293:	83 bd 48 fd ff ff 00 	cmpl   $0x0,-0x2b8(%rbp)
   1229a:	7e d9                	jle    12275 <func_34+0x540>
   1229c:	eb 3d                	jmp    122db <func_34+0x5a6>
   1229e:	c7 85 4c fd ff ff 00 	movl   $0x0,-0x2b4(%rbp)
   122a5:	00 00 00 
   122a8:	eb 1e                	jmp    122c8 <func_34+0x593>
   122aa:	8b 85 4c fd ff ff    	mov    -0x2b4(%rbp),%eax
   122b0:	48 98                	cltq   
   122b2:	48 8d 95 40 fd ff ff 	lea    -0x2c0(%rbp),%rdx
   122b9:	48 89 94 c5 10 ff ff 	mov    %rdx,-0xf0(%rbp,%rax,8)
   122c0:	ff 
   122c1:	83 85 4c fd ff ff 01 	addl   $0x1,-0x2b4(%rbp)
   122c8:	83 bd 4c fd ff ff 02 	cmpl   $0x2,-0x2b4(%rbp)
   122cf:	7e d9                	jle    122aa <func_34+0x575>
   122d1:	c7 85 98 fe ff ff bf 	movl   $0x85031fbf,-0x168(%rbp)
   122d8:	1f 03 85 
   122db:	48 83 85 a8 fd ff ff 	addq   $0x1,-0x258(%rbp)
   122e2:	01 
   122e3:	48 c7 85 a8 fd ff ff 	movq   $0x0,-0x258(%rbp)
   122ea:	00 00 00 00 
   122ee:	48 83 bd a8 fd ff ff 	cmpq   $0x9,-0x258(%rbp)
   122f5:	09 
   122f6:	77 1d                	ja     12315 <func_34+0x5e0>
   122f8:	48 b8 3f 12 4b 0c 52 	movabs $0x4d73c7520c4b123f,%rax
   122ff:	c7 73 4d 
   12302:	48 89 85 e0 fd ff ff 	mov    %rax,-0x220(%rbp)
   12309:	48 8b 85 e0 fd ff ff 	mov    -0x220(%rbp),%rax
   12310:	e9 d1 00 00 00       	jmpq   123e6 <func_34+0x6b1>
   12315:	c6 05 09 7e 00 00 00 	movb   $0x0,0x7e09(%rip)        # 1a125 <g_77>
   1231c:	e9 af 00 00 00       	jmpq   123d0 <func_34+0x69b>
   12321:	66 c7 85 3e fd ff ff 	movw   $0x0,-0x2c2(%rbp)
   12328:	00 00 
   1232a:	e9 83 00 00 00       	jmpq   123b2 <func_34+0x67d>
   1232f:	48 c7 05 d6 c2 00 00 	movq   $0x0,0xc2d6(%rip)        # 1e610 <g_169>
   12336:	00 00 00 00 
   1233a:	eb 59                	jmp    12395 <func_34+0x660>
   1233c:	0f b6 05 e2 7d 00 00 	movzbl 0x7de2(%rip),%eax        # 1a125 <g_77>
   12343:	0f be c0             	movsbl %al,%eax
   12346:	0f bf 95 3e fd ff ff 	movswl -0x2c2(%rbp),%edx
   1234d:	48 8b 35 bc c2 00 00 	mov    0xc2bc(%rip),%rsi        # 1e610 <g_169>
   12354:	48 63 ca             	movslq %edx,%rcx
   12357:	48 63 d0             	movslq %eax,%rdx
   1235a:	48 89 d0             	mov    %rdx,%rax
   1235d:	48 01 c0             	add    %rax,%rax
   12360:	48 01 d0             	add    %rdx,%rax
   12363:	48 01 f0             	add    %rsi,%rax
   12366:	48 01 c8             	add    %rcx,%rax
   12369:	48 8d 14 c5 00 00 00 	lea    0x0(,%rax,8),%rdx
   12370:	00 
   12371:	48 8d 05 48 aa 00 00 	lea    0xaa48(%rip),%rax        # 1cdc0 <g_549>
   12378:	48 8d 0d a9 7d 00 00 	lea    0x7da9(%rip),%rcx        # 1a128 <g_86>
   1237f:	48 89 0c 02          	mov    %rcx,(%rdx,%rax,1)
   12383:	48 8b 05 86 c2 00 00 	mov    0xc286(%rip),%rax        # 1e610 <g_169>
   1238a:	48 83 c0 01          	add    $0x1,%rax
   1238e:	48 89 05 7b c2 00 00 	mov    %rax,0xc27b(%rip)        # 1e610 <g_169>
   12395:	48 8b 05 74 c2 00 00 	mov    0xc274(%rip),%rax        # 1e610 <g_169>
   1239c:	48 85 c0             	test   %rax,%rax
   1239f:	7e 9b                	jle    1233c <func_34+0x607>
   123a1:	0f b7 85 3e fd ff ff 	movzwl -0x2c2(%rbp),%eax
   123a8:	83 c0 01             	add    $0x1,%eax
   123ab:	66 89 85 3e fd ff ff 	mov    %ax,-0x2c2(%rbp)
   123b2:	66 83 bd 3e fd ff ff 	cmpw   $0x2,-0x2c2(%rbp)
   123b9:	02 
   123ba:	0f 8e 6f ff ff ff    	jle    1232f <func_34+0x5fa>
   123c0:	0f b6 05 5e 7d 00 00 	movzbl 0x7d5e(%rip),%eax        # 1a125 <g_77>
   123c7:	83 c0 01             	add    $0x1,%eax
   123ca:	88 05 55 7d 00 00    	mov    %al,0x7d55(%rip)        # 1a125 <g_77>
   123d0:	0f b6 05 4e 7d 00 00 	movzbl 0x7d4e(%rip),%eax        # 1a125 <g_77>
   123d7:	3c 09                	cmp    $0x9,%al
   123d9:	0f 8e 42 ff ff ff    	jle    12321 <func_34+0x5ec>
   123df:	48 8b 85 b0 fd ff ff 	mov    -0x250(%rbp),%rax
   123e6:	48 8b 7d f8          	mov    -0x8(%rbp),%rdi
   123ea:	64 48 33 3c 25 28 00 	xor    %fs:0x28,%rdi
   123f1:	00 00 
   123f3:	74 05                	je     123fa <func_34+0x6c5>
   123f5:	e8 76 6c ff ff       	callq  9070 <__stack_chk_fail@plt>
   123fa:	c9                   	leaveq 
   123fb:	c3                   	retq   

00000000000123fc <func_36>:
   123fc:	f3 0f 1e fa          	endbr64 
   12400:	55                   	push   %rbp
   12401:	48 89 e5             	mov    %rsp,%rbp
   12404:	41 57                	push   %r15
   12406:	41 56                	push   %r14
   12408:	41 55                	push   %r13
   1240a:	41 54                	push   %r12
   1240c:	53                   	push   %rbx
   1240d:	48 81 ec 98 02 00 00 	sub    $0x298,%rsp
   12414:	89 f0                	mov    %esi,%eax
   12416:	48 89 95 60 fd ff ff 	mov    %rdx,-0x2a0(%rbp)
   1241d:	89 8d 5c fd ff ff    	mov    %ecx,-0x2a4(%rbp)
   12423:	4c 89 85 50 fd ff ff 	mov    %r8,-0x2b0(%rbp)
   1242a:	89 fa                	mov    %edi,%edx
   1242c:	88 95 6c fd ff ff    	mov    %dl,-0x294(%rbp)
   12432:	66 89 85 68 fd ff ff 	mov    %ax,-0x298(%rbp)
   12439:	64 48 8b 04 25 28 00 	mov    %fs:0x28,%rax
   12440:	00 00 
   12442:	48 89 45 c8          	mov    %rax,-0x38(%rbp)
   12446:	31 c0                	xor    %eax,%eax
   12448:	48 8d 05 d5 7c 00 00 	lea    0x7cd5(%rip),%rax        # 1a124 <g_49>
   1244f:	48 89 85 20 fe ff ff 	mov    %rax,-0x1e0(%rbp)
   12456:	48 8d 05 c7 7c 00 00 	lea    0x7cc7(%rip),%rax        # 1a124 <g_49>
   1245d:	48 89 85 28 fe ff ff 	mov    %rax,-0x1d8(%rbp)
   12464:	48 8d 05 b9 7c 00 00 	lea    0x7cb9(%rip),%rax        # 1a124 <g_49>
   1246b:	48 89 85 30 fe ff ff 	mov    %rax,-0x1d0(%rbp)
   12472:	48 8d 05 ab 7c 00 00 	lea    0x7cab(%rip),%rax        # 1a124 <g_49>
   12479:	48 89 85 38 fe ff ff 	mov    %rax,-0x1c8(%rbp)
   12480:	48 8d 05 9d 7c 00 00 	lea    0x7c9d(%rip),%rax        # 1a124 <g_49>
   12487:	48 89 85 40 fe ff ff 	mov    %rax,-0x1c0(%rbp)
   1248e:	48 8d 05 8f 7c 00 00 	lea    0x7c8f(%rip),%rax        # 1a124 <g_49>
   12495:	48 89 85 48 fe ff ff 	mov    %rax,-0x1b8(%rbp)
   1249c:	48 8d 05 81 7c 00 00 	lea    0x7c81(%rip),%rax        # 1a124 <g_49>
   124a3:	48 89 85 50 fe ff ff 	mov    %rax,-0x1b0(%rbp)
   124aa:	48 8d 05 73 7c 00 00 	lea    0x7c73(%rip),%rax        # 1a124 <g_49>
   124b1:	48 89 85 58 fe ff ff 	mov    %rax,-0x1a8(%rbp)
   124b8:	66 c7 85 72 fd ff ff 	movw   $0xd41d,-0x28e(%rbp)
   124bf:	1d d4 
   124c1:	c7 85 80 fd ff ff b2 	movl   $0x5da298b2,-0x280(%rbp)
   124c8:	98 a2 5d 
   124cb:	48 8d 85 c0 fd ff ff 	lea    -0x240(%rbp),%rax
   124d2:	48 83 c0 1c          	add    $0x1c,%rax
   124d6:	48 89 85 88 fd ff ff 	mov    %rax,-0x278(%rbp)
   124dd:	48 8d 85 60 fe ff ff 	lea    -0x1a0(%rbp),%rax
   124e4:	48 8d 15 b5 a6 00 00 	lea    0xa6b5(%rip),%rdx        # 1cba0 <g_3271+0x201c>
   124eb:	b9 2d 00 00 00       	mov    $0x2d,%ecx
   124f0:	48 89 c7             	mov    %rax,%rdi
   124f3:	48 89 d6             	mov    %rdx,%rsi
   124f6:	f3 48 a5             	rep movsq %ds:(%rsi),%es:(%rdi)
   124f9:	48 c7 85 90 fd ff ff 	movq   $0x0,-0x270(%rbp)
   12500:	00 00 00 00 
   12504:	c6 85 71 fd ff ff 00 	movb   $0x0,-0x28f(%rbp)
   1250b:	48 8d 05 96 7c 00 00 	lea    0x7c96(%rip),%rax        # 1a1a8 <g_223>
   12512:	48 89 85 98 fd ff ff 	mov    %rax,-0x268(%rbp)
   12519:	48 8d 05 3c 7d 00 00 	lea    0x7d3c(%rip),%rax        # 1a25c <g_333+0x7c>
   12520:	48 89 85 f0 fd ff ff 	mov    %rax,-0x210(%rbp)
   12527:	48 8d 05 2e 7d 00 00 	lea    0x7d2e(%rip),%rax        # 1a25c <g_333+0x7c>
   1252e:	48 89 85 f8 fd ff ff 	mov    %rax,-0x208(%rbp)
   12535:	48 8d 05 20 7d 00 00 	lea    0x7d20(%rip),%rax        # 1a25c <g_333+0x7c>
   1253c:	48 89 85 00 fe ff ff 	mov    %rax,-0x200(%rbp)
   12543:	48 8d 05 12 7d 00 00 	lea    0x7d12(%rip),%rax        # 1a25c <g_333+0x7c>
   1254a:	48 89 85 08 fe ff ff 	mov    %rax,-0x1f8(%rbp)
   12551:	48 8d 05 04 7d 00 00 	lea    0x7d04(%rip),%rax        # 1a25c <g_333+0x7c>
   12558:	48 89 85 10 fe ff ff 	mov    %rax,-0x1f0(%rbp)
   1255f:	48 8d 05 f6 7c 00 00 	lea    0x7cf6(%rip),%rax        # 1a25c <g_333+0x7c>
   12566:	48 89 85 18 fe ff ff 	mov    %rax,-0x1e8(%rbp)
   1256d:	c7 85 84 fd ff ff 05 	movl   $0x5,-0x27c(%rbp)
   12574:	00 00 00 
   12577:	c7 85 74 fd ff ff 00 	movl   $0x0,-0x28c(%rbp)
   1257e:	00 00 00 
   12581:	eb 4d                	jmp    125d0 <func_36+0x1d4>
   12583:	c7 85 78 fd ff ff 00 	movl   $0x0,-0x288(%rbp)
   1258a:	00 00 00 
   1258d:	eb 31                	jmp    125c0 <func_36+0x1c4>
   1258f:	8b 85 78 fd ff ff    	mov    -0x288(%rbp),%eax
   12595:	48 63 c8             	movslq %eax,%rcx
   12598:	8b 85 74 fd ff ff    	mov    -0x28c(%rbp),%eax
   1259e:	48 63 d0             	movslq %eax,%rdx
   125a1:	48 89 d0             	mov    %rdx,%rax
   125a4:	48 c1 e0 02          	shl    $0x2,%rax
   125a8:	48 01 d0             	add    %rdx,%rax
   125ab:	48 01 c8             	add    %rcx,%rax
   125ae:	c7 84 85 c0 fd ff ff 	movl   $0xfffffff8,-0x240(%rbp,%rax,4)
   125b5:	f8 ff ff ff 
   125b9:	83 85 78 fd ff ff 01 	addl   $0x1,-0x288(%rbp)
   125c0:	83 bd 78 fd ff ff 04 	cmpl   $0x4,-0x288(%rbp)
   125c7:	7e c6                	jle    1258f <func_36+0x193>
   125c9:	83 85 74 fd ff ff 01 	addl   $0x1,-0x28c(%rbp)
   125d0:	83 bd 74 fd ff ff 01 	cmpl   $0x1,-0x28c(%rbp)
   125d7:	7e aa                	jle    12583 <func_36+0x187>
   125d9:	c7 85 74 fd ff ff 00 	movl   $0x0,-0x28c(%rbp)
   125e0:	00 00 00 
   125e3:	eb 71                	jmp    12656 <func_36+0x25a>
   125e5:	c7 85 78 fd ff ff 00 	movl   $0x0,-0x288(%rbp)
   125ec:	00 00 00 
   125ef:	eb 55                	jmp    12646 <func_36+0x24a>
   125f1:	c7 85 7c fd ff ff 00 	movl   $0x0,-0x284(%rbp)
   125f8:	00 00 00 
   125fb:	eb 39                	jmp    12636 <func_36+0x23a>
   125fd:	8b 85 7c fd ff ff    	mov    -0x284(%rbp),%eax
   12603:	48 63 d0             	movslq %eax,%rdx
   12606:	8b 85 78 fd ff ff    	mov    -0x288(%rbp),%eax
   1260c:	48 98                	cltq   
   1260e:	8b 8d 74 fd ff ff    	mov    -0x28c(%rbp),%ecx
   12614:	48 63 c9             	movslq %ecx,%rcx
   12617:	48 01 c9             	add    %rcx,%rcx
   1261a:	48 01 ca             	add    %rcx,%rdx
   1261d:	48 01 d0             	add    %rdx,%rax
   12620:	48 8d 15 fe 7a 00 00 	lea    0x7afe(%rip),%rdx        # 1a125 <g_77>
   12627:	48 89 94 c5 a0 fd ff 	mov    %rdx,-0x260(%rbp,%rax,8)
   1262e:	ff 
   1262f:	83 85 7c fd ff ff 01 	addl   $0x1,-0x284(%rbp)
   12636:	83 bd 7c fd ff ff 00 	cmpl   $0x0,-0x284(%rbp)
   1263d:	7e be                	jle    125fd <func_36+0x201>
   1263f:	83 85 78 fd ff ff 01 	addl   $0x1,-0x288(%rbp)
   12646:	83 bd 78 fd ff ff 01 	cmpl   $0x1,-0x288(%rbp)
   1264d:	7e a2                	jle    125f1 <func_36+0x1f5>
   1264f:	83 85 74 fd ff ff 01 	addl   $0x1,-0x28c(%rbp)
   12656:	83 bd 74 fd ff ff 01 	cmpl   $0x1,-0x28c(%rbp)
   1265d:	7e 86                	jle    125e5 <func_36+0x1e9>
   1265f:	0f b6 05 be 7a 00 00 	movzbl 0x7abe(%rip),%eax        # 1a124 <g_49>
   12666:	44 0f be e0          	movsbl %al,%r12d
   1266a:	0f b6 05 b4 7a 00 00 	movzbl 0x7ab4(%rip),%eax        # 1a125 <g_77>
   12671:	0f be d8             	movsbl %al,%ebx
   12674:	48 8b 85 60 fd ff ff 	mov    -0x2a0(%rbp),%rax
   1267b:	0f b6 00             	movzbl (%rax),%eax
   1267e:	44 0f be e8          	movsbl %al,%r13d
   12682:	0f b6 85 6c fd ff ff 	movzbl -0x294(%rbp),%eax
   12689:	44 0f be f0          	movsbl %al,%r14d
   1268d:	0f b6 05 90 7a 00 00 	movzbl 0x7a90(%rip),%eax        # 1a124 <g_49>
   12694:	66 98                	cbtw   
   12696:	44 0f b7 f8          	movzwl %ax,%r15d
   1269a:	0f b6 05 83 7a 00 00 	movzbl 0x7a83(%rip),%eax        # 1a124 <g_49>
   126a1:	0f be c0             	movsbl %al,%eax
   126a4:	89 85 48 fd ff ff    	mov    %eax,-0x2b8(%rbp)
   126aa:	8b 05 d0 79 00 00    	mov    0x79d0(%rip),%eax        # 1a080 <g_3+0x40>
   126b0:	89 c2                	mov    %eax,%edx
   126b2:	8b 85 c0 fd ff ff    	mov    -0x240(%rbp),%eax
   126b8:	85 c0                	test   %eax,%eax
   126ba:	0f 95 c0             	setne  %al
   126bd:	0f b6 c0             	movzbl %al,%eax
   126c0:	89 d6                	mov    %edx,%esi
   126c2:	89 c7                	mov    %eax,%edi
   126c4:	e8 b1 77 ff ff       	callq  9e7a <safe_rshift_func_uint16_t_u_u>
   126c9:	8b 85 c0 fd ff ff    	mov    -0x240(%rbp),%eax
   126cf:	85 c0                	test   %eax,%eax
   126d1:	75 09                	jne    126dc <func_36+0x2e0>
   126d3:	0f b6 05 4a 7a 00 00 	movzbl 0x7a4a(%rip),%eax        # 1a124 <g_49>
   126da:	84 c0                	test   %al,%al
   126dc:	8b 05 3e 7a 00 00    	mov    0x7a3e(%rip),%eax        # 1a120 <g_4>
   126e2:	0f be c0             	movsbl %al,%eax
   126e5:	8b b5 48 fd ff ff    	mov    -0x2b8(%rbp),%esi
   126eb:	89 c7                	mov    %eax,%edi
   126ed:	e8 43 6c ff ff       	callq  9335 <safe_rshift_func_int8_t_s_s>
   126f2:	66 98                	cbtw   
   126f4:	0f b7 c0             	movzwl %ax,%eax
   126f7:	be cb b1 00 00       	mov    $0xb1cb,%esi
   126fc:	89 c7                	mov    %eax,%edi
   126fe:	e8 59 76 ff ff       	callq  9d5c <safe_mod_func_uint16_t_u_u>
   12703:	44 89 fe             	mov    %r15d,%esi
   12706:	bf fe 00 00 00       	mov    $0xfe,%edi
   1270b:	e8 4c 76 ff ff       	callq  9d5c <safe_mod_func_uint16_t_u_u>
   12710:	0f b7 d0             	movzwl %ax,%edx
   12713:	8b 05 07 7a 00 00    	mov    0x7a07(%rip),%eax        # 1a120 <g_4>
   12719:	39 c2                	cmp    %eax,%edx
   1271b:	0f 94 c0             	sete   %al
   1271e:	0f b6 c0             	movzbl %al,%eax
   12721:	44 89 f6             	mov    %r14d,%esi
   12724:	89 c7                	mov    %eax,%edi
   12726:	e8 a1 6f ff ff       	callq  96cc <safe_mod_func_int32_t_s_s>
   1272b:	0f be c0             	movsbl %al,%eax
   1272e:	be d7 ff ff ff       	mov    $0xffffffd7,%esi
   12733:	89 c7                	mov    %eax,%edi
   12735:	e8 9a 6a ff ff       	callq  91d4 <safe_add_func_int8_t_s_s>
   1273a:	48 8b 95 50 fd ff ff 	mov    -0x2b0(%rbp),%rdx
   12741:	88 02                	mov    %al,(%rdx)
   12743:	48 8b 85 50 fd ff ff 	mov    -0x2b0(%rbp),%rax
   1274a:	0f b6 10             	movzbl (%rax),%edx
   1274d:	48 8b 85 50 fe ff ff 	mov    -0x1b0(%rbp),%rax
   12754:	48 85 c0             	test   %rax,%rax
   12757:	0f 95 c0             	setne  %al
   1275a:	0f b6 c0             	movzbl %al,%eax
   1275d:	0f be d2             	movsbl %dl,%edx
   12760:	21 95 80 fd ff ff    	and    %edx,-0x280(%rbp)
   12766:	0b 85 80 fd ff ff    	or     -0x280(%rbp),%eax
   1276c:	48 98                	cltq   
   1276e:	48 be 73 4d 4e 5f 46 	movabs $0x2f019d465f4e4d73,%rsi
   12775:	9d 01 2f 
   12778:	48 89 c7             	mov    %rax,%rdi
   1277b:	e8 28 71 ff ff       	callq  98a8 <safe_sub_func_int64_t_s_s>
   12780:	89 c2                	mov    %eax,%edx
   12782:	48 8b 85 88 fd ff ff 	mov    -0x278(%rbp),%rax
   12789:	89 10                	mov    %edx,(%rax)
   1278b:	48 8b 85 88 fd ff ff 	mov    -0x278(%rbp),%rax
   12792:	8b 00                	mov    (%rax),%eax
   12794:	89 c2                	mov    %eax,%edx
   12796:	8b 05 84 79 00 00    	mov    0x7984(%rip),%eax        # 1a120 <g_4>
   1279c:	89 d6                	mov    %edx,%esi
   1279e:	89 c7                	mov    %eax,%edi
   127a0:	e8 58 77 ff ff       	callq  9efd <safe_mod_func_uint32_t_u_u>
   127a5:	44 89 ee             	mov    %r13d,%esi
   127a8:	bf 00 00 00 00       	mov    $0x0,%edi
   127ad:	e8 83 6b ff ff       	callq  9335 <safe_rshift_func_int8_t_s_s>
   127b2:	0f be f0             	movsbl %al,%esi
   127b5:	0f b7 85 68 fd ff ff 	movzwl -0x298(%rbp),%eax
   127bc:	44 89 e1             	mov    %r12d,%ecx
   127bf:	89 da                	mov    %ebx,%edx
   127c1:	89 c7                	mov    %eax,%edi
   127c3:	e8 d6 01 00 00       	callq  1299e <func_50>
   127c8:	8b 85 5c fd ff ff    	mov    -0x2a4(%rbp),%eax
   127ce:	8b 15 54 79 00 00    	mov    0x7954(%rip),%edx        # 1a128 <g_86>
   127d4:	21 d0                	and    %edx,%eax
   127d6:	89 05 4c 79 00 00    	mov    %eax,0x794c(%rip)        # 1a128 <g_86>
   127dc:	0f b7 9d 68 fd ff ff 	movzwl -0x298(%rbp),%ebx
   127e3:	48 83 bd 90 fd ff ff 	cmpq   $0x0,-0x270(%rbp)
   127ea:	00 
   127eb:	0f 85 2e 01 00 00    	jne    1291f <func_36+0x523>
   127f1:	48 8b 85 50 fd ff ff 	mov    -0x2b0(%rbp),%rax
   127f8:	0f b6 00             	movzbl (%rax),%eax
   127fb:	44 0f be e0          	movsbl %al,%r12d
   127ff:	0f b6 05 1e 79 00 00 	movzbl 0x791e(%rip),%eax        # 1a124 <g_49>
   12806:	4c 0f be e8          	movsbq %al,%r13
   1280a:	48 8b 05 2f a5 00 00 	mov    0xa52f(%rip),%rax        # 1cd40 <g_153>
   12811:	0f b6 10             	movzbl (%rax),%edx
   12814:	8d 4a 01             	lea    0x1(%rdx),%ecx
   12817:	88 08                	mov    %cl,(%rax)
   12819:	44 0f b6 fa          	movzbl %dl,%r15d
   1281d:	48 8b 05 64 a5 00 00 	mov    0xa564(%rip),%rax        # 1cd88 <g_422>
   12824:	c6 00 01             	movb   $0x1,(%rax)
   12827:	bf 01 00 00 00       	mov    $0x1,%edi
   1282c:	e8 8e 69 ff ff       	callq  91bf <safe_unary_minus_func_int8_t_s>
   12831:	48 0f be c0          	movsbq %al,%rax
   12835:	48 89 85 48 fd ff ff 	mov    %rax,-0x2b8(%rbp)
   1283c:	44 8b b5 5c fd ff ff 	mov    -0x2a4(%rbp),%r14d
   12843:	0f b6 85 6c fd ff ff 	movzbl -0x294(%rbp),%eax
   1284a:	0f be c0             	movsbl %al,%eax
   1284d:	48 8b 95 88 fd ff ff 	mov    -0x278(%rbp),%rdx
   12854:	8b 0a                	mov    (%rdx),%ecx
   12856:	0f b7 95 68 fd ff ff 	movzwl -0x298(%rbp),%edx
   1285d:	21 ca                	and    %ecx,%edx
   1285f:	33 95 5c fd ff ff    	xor    -0x2a4(%rbp),%edx
   12865:	89 c6                	mov    %eax,%esi
   12867:	89 d7                	mov    %edx,%edi
   12869:	e8 48 6d ff ff       	callq  95b6 <safe_add_func_int32_t_s_s>
   1286e:	39 85 5c fd ff ff    	cmp    %eax,-0x2a4(%rbp)
   12874:	0f 92 c0             	setb   %al
   12877:	89 c2                	mov    %eax,%edx
   12879:	48 8b 85 98 fd ff ff 	mov    -0x268(%rbp),%rax
   12880:	88 10                	mov    %dl,(%rax)
   12882:	48 8b 85 98 fd ff ff 	mov    -0x268(%rbp),%rax
   12889:	0f b6 00             	movzbl (%rax),%eax
   1288c:	0f b6 c0             	movzbl %al,%eax
   1288f:	be 01 00 00 00       	mov    $0x1,%esi
   12894:	89 c7                	mov    %eax,%edi
   12896:	e8 f8 72 ff ff       	callq  9b93 <safe_mul_func_uint8_t_u_u>
   1289b:	0f b6 c0             	movzbl %al,%eax
   1289e:	66 89 05 9b 79 00 00 	mov    %ax,0x799b(%rip)        # 1a240 <g_333+0x60>
   128a5:	0f b6 85 6c fd ff ff 	movzbl -0x294(%rbp),%eax
   128ac:	84 c0                	test   %al,%al
   128ae:	0f 9e c0             	setle  %al
   128b1:	0f b6 c0             	movzbl %al,%eax
   128b4:	4c 89 f6             	mov    %r14,%rsi
   128b7:	48 89 c7             	mov    %rax,%rdi
   128ba:	e8 82 6f ff ff       	callq  9841 <safe_add_func_int64_t_s_s>
   128bf:	48 89 c2             	mov    %rax,%rdx
   128c2:	48 0f be 85 71 fd ff 	movsbq -0x28f(%rbp),%rax
   128c9:	ff 
   128ca:	48 89 d6             	mov    %rdx,%rsi
   128cd:	48 89 c7             	mov    %rax,%rdi
   128d0:	e8 da 77 ff ff       	callq  a0af <safe_div_func_uint64_t_u_u>
   128d5:	48 23 85 48 fd ff ff 	and    -0x2b8(%rbp),%rax
   128dc:	49 39 c7             	cmp    %rax,%r15
   128df:	72 09                	jb     128ea <func_36+0x4ee>
   128e1:	83 bd 84 fd ff ff 00 	cmpl   $0x0,-0x27c(%rbp)
   128e8:	74 07                	je     128f1 <func_36+0x4f5>
   128ea:	b8 01 00 00 00       	mov    $0x1,%eax
   128ef:	eb 05                	jmp    128f6 <func_36+0x4fa>
   128f1:	b8 00 00 00 00       	mov    $0x0,%eax
   128f6:	0f b7 c0             	movzwl %ax,%eax
   128f9:	89 c7                	mov    %eax,%edi
   128fb:	e8 e9 73 ff ff       	callq  9ce9 <safe_unary_minus_func_uint16_t_u>
   12900:	0f b7 c0             	movzwl %ax,%eax
   12903:	4c 89 ee             	mov    %r13,%rsi
   12906:	48 89 c7             	mov    %rax,%rdi
   12909:	e8 33 6f ff ff       	callq  9841 <safe_add_func_int64_t_s_s>
   1290e:	44 89 e6             	mov    %r12d,%esi
   12911:	bf ff 00 00 00       	mov    $0xff,%edi
   12916:	e8 72 73 ff ff       	callq  9c8d <safe_rshift_func_uint8_t_u_s>
   1291b:	84 c0                	test   %al,%al
   1291d:	74 07                	je     12926 <func_36+0x52a>
   1291f:	b8 01 00 00 00       	mov    $0x1,%eax
   12924:	eb 05                	jmp    1292b <func_36+0x52f>
   12926:	b8 00 00 00 00       	mov    $0x0,%eax
   1292b:	0f b7 c0             	movzwl %ax,%eax
   1292e:	89 de                	mov    %ebx,%esi
   12930:	89 c7                	mov    %eax,%edi
   12932:	e8 06 74 ff ff       	callq  9d3d <safe_mul_func_uint16_t_u_u>
   12937:	98                   	cwtl   
   12938:	be 04 00 00 00       	mov    $0x4,%esi
   1293d:	89 c7                	mov    %eax,%edi
   1293f:	e8 1f 6c ff ff       	callq  9563 <safe_rshift_func_int16_t_s_u>
   12944:	0f bf d0             	movswl %ax,%edx
   12947:	48 8b 85 88 fd ff ff 	mov    -0x278(%rbp),%rax
   1294e:	89 10                	mov    %edx,(%rax)
   12950:	8b 05 e6 79 00 00    	mov    0x79e6(%rip),%eax        # 1a33c <g_732>
   12956:	48 8b 5d c8          	mov    -0x38(%rbp),%rbx
   1295a:	64 48 33 1c 25 28 00 	xor    %fs:0x28,%rbx
   12961:	00 00 
   12963:	74 05                	je     1296a <func_36+0x56e>
   12965:	e8 06 67 ff ff       	callq  9070 <__stack_chk_fail@plt>
   1296a:	48 81 c4 98 02 00 00 	add    $0x298,%rsp
   12971:	5b                   	pop    %rbx
   12972:	41 5c                	pop    %r12
   12974:	41 5d                	pop    %r13
   12976:	41 5e                	pop    %r14
   12978:	41 5f                	pop    %r15
   1297a:	5d                   	pop    %rbp
   1297b:	c3                   	retq   

000000000001297c <func_42>:
   1297c:	f3 0f 1e fa          	endbr64 
   12980:	55                   	push   %rbp
   12981:	48 89 e5             	mov    %rsp,%rbp
   12984:	89 7d ec             	mov    %edi,-0x14(%rbp)
   12987:	48 89 75 e0          	mov    %rsi,-0x20(%rbp)
   1298b:	89 55 e8             	mov    %edx,-0x18(%rbp)
   1298e:	48 89 4d d8          	mov    %rcx,-0x28(%rbp)
   12992:	66 c7 45 fe 41 35    	movw   $0x3541,-0x2(%rbp)
   12998:	0f b7 45 fe          	movzwl -0x2(%rbp),%eax
   1299c:	5d                   	pop    %rbp
   1299d:	c3                   	retq   

000000000001299e <func_50>:
   1299e:	f3 0f 1e fa          	endbr64 
   129a2:	55                   	push   %rbp
   129a3:	48 89 e5             	mov    %rsp,%rbp
   129a6:	48 81 ec 70 02 00 00 	sub    $0x270,%rsp
   129ad:	89 f8                	mov    %edi,%eax
   129af:	89 b5 98 fd ff ff    	mov    %esi,-0x268(%rbp)
   129b5:	89 8d 90 fd ff ff    	mov    %ecx,-0x270(%rbp)
   129bb:	66 89 85 9c fd ff ff 	mov    %ax,-0x264(%rbp)
   129c2:	89 d0                	mov    %edx,%eax
   129c4:	88 85 94 fd ff ff    	mov    %al,-0x26c(%rbp)
   129ca:	64 48 8b 04 25 28 00 	mov    %fs:0x28,%rax
   129d1:	00 00 
   129d3:	48 89 45 f8          	mov    %rax,-0x8(%rbp)
   129d7:	31 c0                	xor    %eax,%eax
   129d9:	48 c7 85 c0 fd ff ff 	movq   $0x0,-0x240(%rbp)
   129e0:	00 00 00 00 
   129e4:	48 8d 85 c0 fd ff ff 	lea    -0x240(%rbp),%rax
   129eb:	48 89 85 c8 fd ff ff 	mov    %rax,-0x238(%rbp)
   129f2:	48 c7 85 d0 fd ff ff 	movq   $0x0,-0x230(%rbp)
   129f9:	00 00 00 00 
   129fd:	c7 85 a4 fd ff ff ff 	movl   $0xffffffff,-0x25c(%rbp)
   12a04:	ff ff ff 
   12a07:	48 c7 85 d8 fd ff ff 	movq   $0x0,-0x228(%rbp)
   12a0e:	00 00 00 00 
   12a12:	48 8d 05 17 a3 00 00 	lea    0xa317(%rip),%rax        # 1cd30 <g_135>
   12a19:	48 89 85 e0 fd ff ff 	mov    %rax,-0x220(%rbp)
   12a20:	c7 85 a8 fd ff ff 7c 	movl   $0x501a0c7c,-0x258(%rbp)
   12a27:	0c 1a 50 
   12a2a:	c7 85 ac fd ff ff 64 	movl   $0xa7979a64,-0x254(%rbp)
   12a31:	9a 97 a7 
   12a34:	48 8d 05 6d 77 00 00 	lea    0x776d(%rip),%rax        # 1a1a8 <g_223>
   12a3b:	48 89 85 e8 fd ff ff 	mov    %rax,-0x218(%rbp)
   12a42:	48 c7 85 70 fe ff ff 	movq   $0xffffffffffffffff,-0x190(%rbp)
   12a49:	ff ff ff ff 
   12a4d:	48 c7 85 78 fe ff ff 	movq   $0xffffffffffffffff,-0x188(%rbp)
   12a54:	ff ff ff ff 
   12a58:	48 c7 85 80 fe ff ff 	movq   $0xfffffffffffffffd,-0x180(%rbp)
   12a5f:	fd ff ff ff 
   12a63:	48 b8 d6 78 76 94 46 	movabs $0xd6f59a46947678d6,%rax
   12a6a:	9a f5 d6 
   12a6d:	48 89 85 88 fe ff ff 	mov    %rax,-0x178(%rbp)
   12a74:	48 c7 85 90 fe ff ff 	movq   $0xfffffffffffffffd,-0x170(%rbp)
   12a7b:	fd ff ff ff 
   12a7f:	48 c7 85 98 fe ff ff 	movq   $0xffffffffffffffff,-0x168(%rbp)
   12a86:	ff ff ff ff 
   12a8a:	48 c7 85 a0 fe ff ff 	movq   $0xffffffffffffffff,-0x160(%rbp)
   12a91:	ff ff ff ff 
   12a95:	48 c7 85 a8 fe ff ff 	movq   $0xfffffffffffffffd,-0x158(%rbp)
   12a9c:	fd ff ff ff 
   12aa0:	48 89 85 b0 fe ff ff 	mov    %rax,-0x150(%rbp)
   12aa7:	48 c7 85 b8 fe ff ff 	movq   $0xfffffffffffffffd,-0x148(%rbp)
   12aae:	fd ff ff ff 
   12ab2:	48 be 26 f5 21 c4 e5 	movabs $0x8873cde5c421f526,%rsi
   12ab9:	cd 73 88 
   12abc:	48 89 b5 30 fe ff ff 	mov    %rsi,-0x1d0(%rbp)
   12ac3:	48 b8 c4 28 57 f5 0f 	movabs $0x27df0e0ff55728c4,%rax
   12aca:	0e df 27 
   12acd:	48 89 85 38 fe ff ff 	mov    %rax,-0x1c8(%rbp)
   12ad4:	48 89 85 40 fe ff ff 	mov    %rax,-0x1c0(%rbp)
   12adb:	48 89 b5 48 fe ff ff 	mov    %rsi,-0x1b8(%rbp)
   12ae2:	48 89 85 50 fe ff ff 	mov    %rax,-0x1b0(%rbp)
   12ae9:	48 89 85 58 fe ff ff 	mov    %rax,-0x1a8(%rbp)
   12af0:	48 89 b5 60 fe ff ff 	mov    %rsi,-0x1a0(%rbp)
   12af7:	48 89 85 68 fe ff ff 	mov    %rax,-0x198(%rbp)
   12afe:	48 8d 05 77 76 00 00 	lea    0x7677(%rip),%rax        # 1a17c <g_141>
   12b05:	48 89 85 f0 fd ff ff 	mov    %rax,-0x210(%rbp)
   12b0c:	48 b8 39 1f 4d cd c6 	movabs $0xc69356c6cd4d1f39,%rax
   12b13:	56 93 c6 
   12b16:	48 89 85 f8 fd ff ff 	mov    %rax,-0x208(%rbp)
   12b1d:	c7 85 b0 fd ff ff 04 	movl   $0x4,-0x250(%rbp)
   12b24:	00 00 00 
   12b27:	c7 85 b4 fd ff ff 01 	movl   $0x1,-0x24c(%rbp)
   12b2e:	00 00 00 
   12b31:	c7 85 b8 fd ff ff e0 	movl   $0x25ef68e0,-0x248(%rbp)
   12b38:	68 ef 25 
   12b3b:	c7 85 bc fd ff ff f9 	movl   $0xfffffff9,-0x244(%rbp)
   12b42:	ff ff ff 
   12b45:	48 8d 05 78 76 00 00 	lea    0x7678(%rip),%rax        # 1a1c4 <g_331+0xc>
   12b4c:	48 89 85 00 fe ff ff 	mov    %rax,-0x200(%rbp)
   12b53:	48 8d 85 c0 fe ff ff 	lea    -0x140(%rbp),%rax
   12b5a:	48 8d 15 bf 37 00 00 	lea    0x37bf(%rip),%rdx        # 16320 <g_2357+0x12b0>
   12b61:	b9 25 00 00 00       	mov    $0x25,%ecx
   12b66:	48 89 c7             	mov    %rax,%rdi
   12b69:	48 89 d6             	mov    %rdx,%rsi
   12b6c:	f3 48 a5             	rep movsq %ds:(%rsi),%es:(%rdi)
   12b6f:	48 89 f2             	mov    %rsi,%rdx
   12b72:	48 89 f8             	mov    %rdi,%rax
   12b75:	8b 0a                	mov    (%rdx),%ecx
   12b77:	89 08                	mov    %ecx,(%rax)
   12b79:	48 8d 40 04          	lea    0x4(%rax),%rax
   12b7d:	48 8d 52 04          	lea    0x4(%rdx),%rdx
   12b81:	48 8d 05 10 a2 00 00 	lea    0xa210(%rip),%rax        # 1cd98 <g_531>
   12b88:	48 89 85 08 fe ff ff 	mov    %rax,-0x1f8(%rbp)
   12b8f:	48 c7 85 10 fe ff ff 	movq   $0x0,-0x1f0(%rbp)
   12b96:	00 00 00 00 
   12b9a:	48 b8 5e 24 a1 4e 63 	movabs $0x656128634ea1245e,%rax
   12ba1:	28 61 65 
   12ba4:	48 89 85 18 fe ff ff 	mov    %rax,-0x1e8(%rbp)
   12bab:	48 b8 9e 9e 9e 9e 9e 	movabs $0x9e9e9e9e9e9e9e9e,%rax
   12bb2:	9e 9e 9e 
   12bb5:	48 89 45 ef          	mov    %rax,-0x11(%rbp)
   12bb9:	c6 45 f7 9e          	movb   $0x9e,-0x9(%rbp)
   12bbd:	c7 85 a0 fd ff ff 00 	movl   $0x0,-0x260(%rbp)
   12bc4:	00 00 00 
   12bc7:	eb 1a                	jmp    12be3 <func_50+0x245>
   12bc9:	8b 85 a0 fd ff ff    	mov    -0x260(%rbp),%eax
   12bcf:	48 98                	cltq   
   12bd1:	c7 84 85 28 fe ff ff 	movl   $0x8928e7dd,-0x1d8(%rbp,%rax,4)
   12bd8:	dd e7 28 89 
   12bdc:	83 85 a0 fd ff ff 01 	addl   $0x1,-0x260(%rbp)
   12be3:	83 bd a0 fd ff ff 01 	cmpl   $0x1,-0x260(%rbp)
   12bea:	7e dd                	jle    12bc9 <func_50+0x22b>
   12bec:	66 c7 85 9c fd ff ff 	movw   $0x11,-0x264(%rbp)
   12bf3:	11 00 
   12bf5:	eb 30                	jmp    12c27 <func_50+0x289>
   12bf7:	48 8d 85 c8 fd ff ff 	lea    -0x238(%rbp),%rax
   12bfe:	48 89 85 20 fe ff ff 	mov    %rax,-0x1e0(%rbp)
   12c05:	48 8b 95 c8 fd ff ff 	mov    -0x238(%rbp),%rdx
   12c0c:	48 8b 85 20 fe ff ff 	mov    -0x1e0(%rbp),%rax
   12c13:	48 89 10             	mov    %rdx,(%rax)
   12c16:	0f b7 85 9c fd ff ff 	movzwl -0x264(%rbp),%eax
   12c1d:	83 c0 01             	add    $0x1,%eax
   12c20:	66 89 85 9c fd ff ff 	mov    %ax,-0x264(%rbp)
   12c27:	66 83 bd 9c fd ff ff 	cmpw   $0x37,-0x264(%rbp)
   12c2e:	37 
   12c2f:	76 c6                	jbe    12bf7 <func_50+0x259>
   12c31:	48 8d 05 e8 74 00 00 	lea    0x74e8(%rip),%rax        # 1a120 <g_4>
   12c38:	48 89 05 e1 a0 00 00 	mov    %rax,0xa0e1(%rip)        # 1cd20 <g_85>
   12c3f:	48 8b 05 da a0 00 00 	mov    0xa0da(%rip),%rax        # 1cd20 <g_85>
   12c46:	48 89 05 db a0 00 00 	mov    %rax,0xa0db(%rip)        # 1cd28 <g_87>
   12c4d:	0f b6 05 54 75 00 00 	movzbl 0x7554(%rip),%eax        # 1a1a8 <g_223>
   12c54:	0f b6 c0             	movzbl %al,%eax
   12c57:	48 8b 7d f8          	mov    -0x8(%rbp),%rdi
   12c5b:	64 48 33 3c 25 28 00 	xor    %fs:0x28,%rdi
   12c62:	00 00 
   12c64:	74 05                	je     12c6b <func_50+0x2cd>
   12c66:	e8 05 64 ff ff       	callq  9070 <__stack_chk_fail@plt>
   12c6b:	c9                   	leaveq 
   12c6c:	c3                   	retq   

0000000000012c6d <main>:
   12c6d:	f3 0f 1e fa          	endbr64 
   12c71:	55                   	push   %rbp
   12c72:	48 89 e5             	mov    %rsp,%rbp
   12c75:	48 83 ec 20          	sub    $0x20,%rsp
   12c79:	89 7d ec             	mov    %edi,-0x14(%rbp)
   12c7c:	48 89 75 e0          	mov    %rsi,-0x20(%rbp)
   12c80:	c7 45 fc 00 00 00 00 	movl   $0x0,-0x4(%rbp)
   12c87:	83 7d ec 02          	cmpl   $0x2,-0x14(%rbp)
   12c8b:	75 25                	jne    12cb2 <main+0x45>
   12c8d:	48 8b 45 e0          	mov    -0x20(%rbp),%rax
   12c91:	48 83 c0 08          	add    $0x8,%rax
   12c95:	48 8b 00             	mov    (%rax),%rax
   12c98:	48 8d 35 ad 37 00 00 	lea    0x37ad(%rip),%rsi        # 1644c <g_2357+0x13dc>
   12c9f:	48 89 c7             	mov    %rax,%rdi
   12ca2:	e8 e9 63 ff ff       	callq  9090 <strcmp@plt>
   12ca7:	85 c0                	test   %eax,%eax
   12ca9:	75 07                	jne    12cb2 <main+0x45>
   12cab:	c7 45 fc 01 00 00 00 	movl   $0x1,-0x4(%rbp)
   12cb2:	e8 d2 64 ff ff       	callq  9189 <platform_main_begin>
   12cb7:	e8 dc 78 ff ff       	callq  a598 <crc32_gentab>
   12cbc:	e8 f4 7a ff ff       	callq  a7b5 <func_1>
   12cc1:	c7 45 f0 00 00 00 00 	movl   $0x0,-0x10(%rbp)
   12cc8:	eb 75                	jmp    12d3f <main+0xd2>
   12cca:	c7 45 f4 00 00 00 00 	movl   $0x0,-0xc(%rbp)
   12cd1:	eb 62                	jmp    12d35 <main+0xc8>
   12cd3:	8b 45 f4             	mov    -0xc(%rbp),%eax
   12cd6:	48 63 c8             	movslq %eax,%rcx
   12cd9:	8b 45 f0             	mov    -0x10(%rbp),%eax
   12cdc:	48 63 d0             	movslq %eax,%rdx
   12cdf:	48 89 d0             	mov    %rdx,%rax
   12ce2:	48 c1 e0 03          	shl    $0x3,%rax
   12ce6:	48 29 d0             	sub    %rdx,%rax
   12ce9:	48 01 c8             	add    %rcx,%rax
   12cec:	48 8d 14 85 00 00 00 	lea    0x0(,%rax,4),%rdx
   12cf3:	00 
   12cf4:	48 8d 05 45 73 00 00 	lea    0x7345(%rip),%rax        # 1a040 <g_3>
   12cfb:	8b 04 02             	mov    (%rdx,%rax,1),%eax
   12cfe:	48 98                	cltq   
   12d00:	8b 55 fc             	mov    -0x4(%rbp),%edx
   12d03:	48 8d 35 44 37 00 00 	lea    0x3744(%rip),%rsi        # 1644e <g_2357+0x13de>
   12d0a:	48 89 c7             	mov    %rax,%rdi
   12d0d:	e8 e1 79 ff ff       	callq  a6f3 <transparent_crc>
   12d12:	83 7d fc 00          	cmpl   $0x0,-0x4(%rbp)
   12d16:	74 19                	je     12d31 <main+0xc4>
   12d18:	8b 55 f4             	mov    -0xc(%rbp),%edx
   12d1b:	8b 45 f0             	mov    -0x10(%rbp),%eax
   12d1e:	89 c6                	mov    %eax,%esi
   12d20:	48 8d 3d 31 37 00 00 	lea    0x3731(%rip),%rdi        # 16458 <g_2357+0x13e8>
   12d27:	b8 00 00 00 00       	mov    $0x0,%eax
   12d2c:	e8 4f 63 ff ff       	callq  9080 <printf@plt>
   12d31:	83 45 f4 01          	addl   $0x1,-0xc(%rbp)
   12d35:	83 7d f4 06          	cmpl   $0x6,-0xc(%rbp)
   12d39:	7e 98                	jle    12cd3 <main+0x66>
   12d3b:	83 45 f0 01          	addl   $0x1,-0x10(%rbp)
   12d3f:	83 7d f0 07          	cmpl   $0x7,-0x10(%rbp)
   12d43:	7e 85                	jle    12cca <main+0x5d>
   12d45:	8b 05 d5 73 00 00    	mov    0x73d5(%rip),%eax        # 1a120 <g_4>
   12d4b:	48 98                	cltq   
   12d4d:	8b 55 fc             	mov    -0x4(%rbp),%edx
   12d50:	48 8d 35 13 37 00 00 	lea    0x3713(%rip),%rsi        # 1646a <g_2357+0x13fa>
   12d57:	48 89 c7             	mov    %rax,%rdi
   12d5a:	e8 94 79 ff ff       	callq  a6f3 <transparent_crc>
   12d5f:	0f b6 05 be 73 00 00 	movzbl 0x73be(%rip),%eax        # 1a124 <g_49>
   12d66:	48 0f be c0          	movsbq %al,%rax
   12d6a:	8b 55 fc             	mov    -0x4(%rbp),%edx
   12d6d:	48 8d 35 fa 36 00 00 	lea    0x36fa(%rip),%rsi        # 1646e <g_2357+0x13fe>
   12d74:	48 89 c7             	mov    %rax,%rdi
   12d77:	e8 77 79 ff ff       	callq  a6f3 <transparent_crc>
   12d7c:	0f b6 05 a2 73 00 00 	movzbl 0x73a2(%rip),%eax        # 1a125 <g_77>
   12d83:	48 0f be c0          	movsbq %al,%rax
   12d87:	8b 55 fc             	mov    -0x4(%rbp),%edx
   12d8a:	48 8d 35 e2 36 00 00 	lea    0x36e2(%rip),%rsi        # 16473 <g_2357+0x1403>
   12d91:	48 89 c7             	mov    %rax,%rdi
   12d94:	e8 5a 79 ff ff       	callq  a6f3 <transparent_crc>
   12d99:	8b 05 89 73 00 00    	mov    0x7389(%rip),%eax        # 1a128 <g_86>
   12d9f:	48 98                	cltq   
   12da1:	8b 55 fc             	mov    -0x4(%rbp),%edx
   12da4:	48 8d 35 cd 36 00 00 	lea    0x36cd(%rip),%rsi        # 16478 <g_2357+0x1408>
   12dab:	48 89 c7             	mov    %rax,%rdi
   12dae:	e8 40 79 ff ff       	callq  a6f3 <transparent_crc>
   12db3:	c7 45 f0 00 00 00 00 	movl   $0x0,-0x10(%rbp)
   12dba:	eb 4f                	jmp    12e0b <main+0x19e>
   12dbc:	8b 45 f0             	mov    -0x10(%rbp),%eax
   12dbf:	48 98                	cltq   
   12dc1:	48 8d 14 c5 00 00 00 	lea    0x0(,%rax,8),%rdx
   12dc8:	00 
   12dc9:	48 8d 05 70 73 00 00 	lea    0x7370(%rip),%rax        # 1a140 <g_91>
   12dd0:	48 8b 04 02          	mov    (%rdx,%rax,1),%rax
   12dd4:	48 89 c1             	mov    %rax,%rcx
   12dd7:	8b 45 fc             	mov    -0x4(%rbp),%eax
   12dda:	89 c2                	mov    %eax,%edx
   12ddc:	48 8d 35 9a 36 00 00 	lea    0x369a(%rip),%rsi        # 1647d <g_2357+0x140d>
   12de3:	48 89 cf             	mov    %rcx,%rdi
   12de6:	e8 08 79 ff ff       	callq  a6f3 <transparent_crc>
   12deb:	83 7d fc 00          	cmpl   $0x0,-0x4(%rbp)
   12def:	74 16                	je     12e07 <main+0x19a>
   12df1:	8b 45 f0             	mov    -0x10(%rbp),%eax
   12df4:	89 c6                	mov    %eax,%esi
   12df6:	48 8d 3d 88 36 00 00 	lea    0x3688(%rip),%rdi        # 16485 <g_2357+0x1415>
   12dfd:	b8 00 00 00 00       	mov    $0x0,%eax
   12e02:	e8 79 62 ff ff       	callq  9080 <printf@plt>
   12e07:	83 45 f0 01          	addl   $0x1,-0x10(%rbp)
   12e0b:	83 7d f0 06          	cmpl   $0x6,-0x10(%rbp)
   12e0f:	7e ab                	jle    12dbc <main+0x14f>
   12e11:	8b 05 61 73 00 00    	mov    0x7361(%rip),%eax        # 1a178 <g_139>
   12e17:	89 c1                	mov    %eax,%ecx
   12e19:	8b 45 fc             	mov    -0x4(%rbp),%eax
   12e1c:	89 c2                	mov    %eax,%edx
   12e1e:	48 8d 35 6e 36 00 00 	lea    0x366e(%rip),%rsi        # 16493 <g_2357+0x1423>
   12e25:	48 89 cf             	mov    %rcx,%rdi
   12e28:	e8 c6 78 ff ff       	callq  a6f3 <transparent_crc>
   12e2d:	0f b7 05 48 73 00 00 	movzwl 0x7348(%rip),%eax        # 1a17c <g_141>
   12e34:	48 0f bf c0          	movswq %ax,%rax
   12e38:	8b 55 fc             	mov    -0x4(%rbp),%edx
   12e3b:	48 8d 35 57 36 00 00 	lea    0x3657(%rip),%rsi        # 16499 <g_2357+0x1429>
   12e42:	48 89 c7             	mov    %rax,%rdi
   12e45:	e8 a9 78 ff ff       	callq  a6f3 <transparent_crc>
   12e4a:	0f b7 05 2d 73 00 00 	movzwl 0x732d(%rip),%eax        # 1a17e <g_144>
   12e51:	0f b7 c0             	movzwl %ax,%eax
   12e54:	8b 55 fc             	mov    -0x4(%rbp),%edx
   12e57:	48 8d 35 41 36 00 00 	lea    0x3641(%rip),%rsi        # 1649f <g_2357+0x142f>
   12e5e:	48 89 c7             	mov    %rax,%rdi
   12e61:	e8 8d 78 ff ff       	callq  a6f3 <transparent_crc>
   12e66:	c7 45 f0 00 00 00 00 	movl   $0x0,-0x10(%rbp)
   12e6d:	eb 4f                	jmp    12ebe <main+0x251>
   12e6f:	8b 45 f0             	mov    -0x10(%rbp),%eax
   12e72:	48 98                	cltq   
   12e74:	48 8d 14 c5 00 00 00 	lea    0x0(,%rax,8),%rdx
   12e7b:	00 
   12e7c:	48 8d 05 fd 72 00 00 	lea    0x72fd(%rip),%rax        # 1a180 <g_146>
   12e83:	48 8b 04 02          	mov    (%rdx,%rax,1),%rax
   12e87:	48 89 c1             	mov    %rax,%rcx
   12e8a:	8b 45 fc             	mov    -0x4(%rbp),%eax
   12e8d:	89 c2                	mov    %eax,%edx
   12e8f:	48 8d 35 0f 36 00 00 	lea    0x360f(%rip),%rsi        # 164a5 <g_2357+0x1435>
   12e96:	48 89 cf             	mov    %rcx,%rdi
   12e99:	e8 55 78 ff ff       	callq  a6f3 <transparent_crc>
   12e9e:	83 7d fc 00          	cmpl   $0x0,-0x4(%rbp)
   12ea2:	74 16                	je     12eba <main+0x24d>
   12ea4:	8b 45 f0             	mov    -0x10(%rbp),%eax
   12ea7:	89 c6                	mov    %eax,%esi
   12ea9:	48 8d 3d d5 35 00 00 	lea    0x35d5(%rip),%rdi        # 16485 <g_2357+0x1415>
   12eb0:	b8 00 00 00 00       	mov    $0x0,%eax
   12eb5:	e8 c6 61 ff ff       	callq  9080 <printf@plt>
   12eba:	83 45 f0 01          	addl   $0x1,-0x10(%rbp)
   12ebe:	83 7d f0 03          	cmpl   $0x3,-0x10(%rbp)
   12ec2:	7e ab                	jle    12e6f <main+0x202>
   12ec4:	0f b6 05 d5 72 00 00 	movzbl 0x72d5(%rip),%eax        # 1a1a0 <g_154>
   12ecb:	0f b6 c0             	movzbl %al,%eax
   12ece:	8b 55 fc             	mov    -0x4(%rbp),%edx
   12ed1:	48 8d 35 d6 35 00 00 	lea    0x35d6(%rip),%rsi        # 164ae <g_2357+0x143e>
   12ed8:	48 89 c7             	mov    %rax,%rdi
   12edb:	e8 13 78 ff ff       	callq  a6f3 <transparent_crc>
   12ee0:	48 8b 05 29 b7 00 00 	mov    0xb729(%rip),%rax        # 1e610 <g_169>
   12ee7:	48 89 c1             	mov    %rax,%rcx
   12eea:	8b 45 fc             	mov    -0x4(%rbp),%eax
   12eed:	89 c2                	mov    %eax,%edx
   12eef:	48 8d 35 be 35 00 00 	lea    0x35be(%rip),%rsi        # 164b4 <g_2357+0x1444>
   12ef6:	48 89 cf             	mov    %rcx,%rdi
   12ef9:	e8 f5 77 ff ff       	callq  a6f3 <transparent_crc>
   12efe:	8b 05 14 b7 00 00    	mov    0xb714(%rip),%eax        # 1e618 <g_208>
   12f04:	48 98                	cltq   
   12f06:	8b 55 fc             	mov    -0x4(%rbp),%edx
   12f09:	48 8d 35 aa 35 00 00 	lea    0x35aa(%rip),%rsi        # 164ba <g_2357+0x144a>
   12f10:	48 89 c7             	mov    %rax,%rdi
   12f13:	e8 db 77 ff ff       	callq  a6f3 <transparent_crc>
   12f18:	0f b7 05 89 72 00 00 	movzwl 0x7289(%rip),%eax        # 1a1a8 <g_223>
   12f1f:	0f b7 c0             	movzwl %ax,%eax
   12f22:	8b 55 fc             	mov    -0x4(%rbp),%edx
   12f25:	48 8d 35 97 35 00 00 	lea    0x3597(%rip),%rsi        # 164c3 <g_2357+0x1453>
   12f2c:	48 89 c7             	mov    %rax,%rdi
   12f2f:	e8 bf 77 ff ff       	callq  a6f3 <transparent_crc>
   12f34:	0f b6 05 6d 72 00 00 	movzbl 0x726d(%rip),%eax        # 1a1a8 <g_223>
   12f3b:	0f b6 c0             	movzbl %al,%eax
   12f3e:	8b 55 fc             	mov    -0x4(%rbp),%edx
   12f41:	48 8d 35 84 35 00 00 	lea    0x3584(%rip),%rsi        # 164cc <g_2357+0x145c>
   12f48:	48 89 c7             	mov    %rax,%rdi
   12f4b:	e8 a3 77 ff ff       	callq  a6f3 <transparent_crc>
   12f50:	0f b7 05 51 72 00 00 	movzwl 0x7251(%rip),%eax        # 1a1a8 <g_223>
   12f57:	48 0f bf c0          	movswq %ax,%rax
   12f5b:	8b 55 fc             	mov    -0x4(%rbp),%edx
   12f5e:	48 8d 35 70 35 00 00 	lea    0x3570(%rip),%rsi        # 164d5 <g_2357+0x1465>
   12f65:	48 89 c7             	mov    %rax,%rdi
   12f68:	e8 86 77 ff ff       	callq  a6f3 <transparent_crc>
   12f6d:	8b 05 3d 72 00 00    	mov    0x723d(%rip),%eax        # 1a1b0 <g_234>
   12f73:	48 98                	cltq   
   12f75:	8b 55 fc             	mov    -0x4(%rbp),%edx
   12f78:	48 8d 35 5f 35 00 00 	lea    0x355f(%rip),%rsi        # 164de <g_2357+0x146e>
   12f7f:	48 89 c7             	mov    %rax,%rdi
   12f82:	e8 6c 77 ff ff       	callq  a6f3 <transparent_crc>
   12f87:	c7 45 f0 00 00 00 00 	movl   $0x0,-0x10(%rbp)
   12f8e:	eb 4a                	jmp    12fda <main+0x36d>
   12f90:	8b 45 f0             	mov    -0x10(%rbp),%eax
   12f93:	48 98                	cltq   
   12f95:	48 8d 14 00          	lea    (%rax,%rax,1),%rdx
   12f99:	48 8d 05 18 72 00 00 	lea    0x7218(%rip),%rax        # 1a1b8 <g_331>
   12fa0:	0f b7 04 02          	movzwl (%rdx,%rax,1),%eax
   12fa4:	48 0f bf c0          	movswq %ax,%rax
   12fa8:	8b 55 fc             	mov    -0x4(%rbp),%edx
   12fab:	48 8d 35 32 35 00 00 	lea    0x3532(%rip),%rsi        # 164e4 <g_2357+0x1474>
   12fb2:	48 89 c7             	mov    %rax,%rdi
   12fb5:	e8 39 77 ff ff       	callq  a6f3 <transparent_crc>
   12fba:	83 7d fc 00          	cmpl   $0x0,-0x4(%rbp)
   12fbe:	74 16                	je     12fd6 <main+0x369>
   12fc0:	8b 45 f0             	mov    -0x10(%rbp),%eax
   12fc3:	89 c6                	mov    %eax,%esi
   12fc5:	48 8d 3d b9 34 00 00 	lea    0x34b9(%rip),%rdi        # 16485 <g_2357+0x1415>
   12fcc:	b8 00 00 00 00       	mov    $0x0,%eax
   12fd1:	e8 aa 60 ff ff       	callq  9080 <printf@plt>
   12fd6:	83 45 f0 01          	addl   $0x1,-0x10(%rbp)
   12fda:	83 7d f0 06          	cmpl   $0x6,-0x10(%rbp)
   12fde:	7e b0                	jle    12f90 <main+0x323>
   12fe0:	c7 45 f0 00 00 00 00 	movl   $0x0,-0x10(%rbp)
   12fe7:	e9 a7 00 00 00       	jmpq   13093 <main+0x426>
   12fec:	c7 45 f4 00 00 00 00 	movl   $0x0,-0xc(%rbp)
   12ff3:	e9 8d 00 00 00       	jmpq   13085 <main+0x418>
   12ff8:	c7 45 f8 00 00 00 00 	movl   $0x0,-0x8(%rbp)
   12fff:	eb 7a                	jmp    1307b <main+0x40e>
   13001:	8b 45 f8             	mov    -0x8(%rbp),%eax
   13004:	48 63 f0             	movslq %eax,%rsi
   13007:	8b 45 f0             	mov    -0x10(%rbp),%eax
   1300a:	48 63 d0             	movslq %eax,%rdx
   1300d:	8b 45 f4             	mov    -0xc(%rbp),%eax
   13010:	48 63 c8             	movslq %eax,%rcx
   13013:	48 89 d0             	mov    %rdx,%rax
   13016:	48 c1 e0 03          	shl    $0x3,%rax
   1301a:	48 29 d0             	sub    %rdx,%rax
   1301d:	48 c1 e0 02          	shl    $0x2,%rax
   13021:	48 89 ca             	mov    %rcx,%rdx
   13024:	48 c1 e2 03          	shl    $0x3,%rdx
   13028:	48 29 ca             	sub    %rcx,%rdx
   1302b:	48 01 d0             	add    %rdx,%rax
   1302e:	48 01 f0             	add    %rsi,%rax
   13031:	48 8d 14 00          	lea    (%rax,%rax,1),%rdx
   13035:	48 8d 05 a4 71 00 00 	lea    0x71a4(%rip),%rax        # 1a1e0 <g_333>
   1303c:	0f b7 04 02          	movzwl (%rdx,%rax,1),%eax
   13040:	0f b7 c0             	movzwl %ax,%eax
   13043:	8b 55 fc             	mov    -0x4(%rbp),%edx
   13046:	48 8d 35 a0 34 00 00 	lea    0x34a0(%rip),%rsi        # 164ed <g_2357+0x147d>
   1304d:	48 89 c7             	mov    %rax,%rdi
   13050:	e8 9e 76 ff ff       	callq  a6f3 <transparent_crc>
   13055:	83 7d fc 00          	cmpl   $0x0,-0x4(%rbp)
   13059:	74 1c                	je     13077 <main+0x40a>
   1305b:	8b 4d f8             	mov    -0x8(%rbp),%ecx
   1305e:	8b 55 f4             	mov    -0xc(%rbp),%edx
   13061:	8b 45 f0             	mov    -0x10(%rbp),%eax
   13064:	89 c6                	mov    %eax,%esi
   13066:	48 8d 3d 8f 34 00 00 	lea    0x348f(%rip),%rdi        # 164fc <g_2357+0x148c>
   1306d:	b8 00 00 00 00       	mov    $0x0,%eax
   13072:	e8 09 60 ff ff       	callq  9080 <printf@plt>
   13077:	83 45 f8 01          	addl   $0x1,-0x8(%rbp)
   1307b:	83 7d f8 06          	cmpl   $0x6,-0x8(%rbp)
   1307f:	7e 80                	jle    13001 <main+0x394>
   13081:	83 45 f4 01          	addl   $0x1,-0xc(%rbp)
   13085:	83 7d f4 03          	cmpl   $0x3,-0xc(%rbp)
   13089:	0f 8e 69 ff ff ff    	jle    12ff8 <main+0x38b>
   1308f:	83 45 f0 01          	addl   $0x1,-0x10(%rbp)
   13093:	83 7d f0 02          	cmpl   $0x2,-0x10(%rbp)
   13097:	0f 8e 4f ff ff ff    	jle    12fec <main+0x37f>
   1309d:	c7 45 f0 00 00 00 00 	movl   $0x0,-0x10(%rbp)
   130a4:	eb 77                	jmp    1311d <main+0x4b0>
   130a6:	c7 45 f4 00 00 00 00 	movl   $0x0,-0xc(%rbp)
   130ad:	eb 64                	jmp    13113 <main+0x4a6>
   130af:	8b 45 f4             	mov    -0xc(%rbp),%eax
   130b2:	48 63 c8             	movslq %eax,%rcx
   130b5:	8b 45 f0             	mov    -0x10(%rbp),%eax
   130b8:	48 63 d0             	movslq %eax,%rdx
   130bb:	48 89 d0             	mov    %rdx,%rax
   130be:	48 c1 e0 02          	shl    $0x2,%rax
   130c2:	48 01 d0             	add    %rdx,%rax
   130c5:	48 01 c8             	add    %rcx,%rax
   130c8:	48 8d 14 85 00 00 00 	lea    0x0(,%rax,4),%rdx
   130cf:	00 
   130d0:	48 8d 05 c9 71 00 00 	lea    0x71c9(%rip),%rax        # 1a2a0 <g_334>
   130d7:	8b 04 02             	mov    (%rdx,%rax,1),%eax
   130da:	89 c1                	mov    %eax,%ecx
   130dc:	8b 45 fc             	mov    -0x4(%rbp),%eax
   130df:	89 c2                	mov    %eax,%edx
   130e1:	48 8d 35 2a 34 00 00 	lea    0x342a(%rip),%rsi        # 16512 <g_2357+0x14a2>
   130e8:	48 89 cf             	mov    %rcx,%rdi
   130eb:	e8 03 76 ff ff       	callq  a6f3 <transparent_crc>
   130f0:	83 7d fc 00          	cmpl   $0x0,-0x4(%rbp)
   130f4:	74 19                	je     1310f <main+0x4a2>
   130f6:	8b 55 f4             	mov    -0xc(%rbp),%edx
   130f9:	8b 45 f0             	mov    -0x10(%rbp),%eax
   130fc:	89 c6                	mov    %eax,%esi
   130fe:	48 8d 3d 53 33 00 00 	lea    0x3353(%rip),%rdi        # 16458 <g_2357+0x13e8>
   13105:	b8 00 00 00 00       	mov    $0x0,%eax
   1310a:	e8 71 5f ff ff       	callq  9080 <printf@plt>
   1310f:	83 45 f4 01          	addl   $0x1,-0xc(%rbp)
   13113:	83 7d f4 04          	cmpl   $0x4,-0xc(%rbp)
   13117:	7e 96                	jle    130af <main+0x442>
   13119:	83 45 f0 01          	addl   $0x1,-0x10(%rbp)
   1311d:	83 7d f0 06          	cmpl   $0x6,-0x10(%rbp)
   13121:	7e 83                	jle    130a6 <main+0x439>
   13123:	b8 02 00 00 00       	mov    $0x2,%eax
   13128:	0f b7 c0             	movzwl %ax,%eax
   1312b:	8b 55 fc             	mov    -0x4(%rbp),%edx
   1312e:	48 8d 35 e9 33 00 00 	lea    0x33e9(%rip),%rsi        # 1651e <g_2357+0x14ae>
   13135:	48 89 c7             	mov    %rax,%rdi
   13138:	e8 b6 75 ff ff       	callq  a6f3 <transparent_crc>
   1313d:	b8 02 00 00 00       	mov    $0x2,%eax
   13142:	0f b6 c0             	movzbl %al,%eax
   13145:	8b 55 fc             	mov    -0x4(%rbp),%edx
   13148:	48 8d 35 d8 33 00 00 	lea    0x33d8(%rip),%rsi        # 16527 <g_2357+0x14b7>
   1314f:	48 89 c7             	mov    %rax,%rdi
   13152:	e8 9c 75 ff ff       	callq  a6f3 <transparent_crc>
   13157:	b8 02 00 00 00       	mov    $0x2,%eax
   1315c:	48 0f bf c0          	movswq %ax,%rax
   13160:	8b 55 fc             	mov    -0x4(%rbp),%edx
   13163:	48 8d 35 c6 33 00 00 	lea    0x33c6(%rip),%rsi        # 16530 <g_2357+0x14c0>
   1316a:	48 89 c7             	mov    %rax,%rdi
   1316d:	e8 81 75 ff ff       	callq  a6f3 <transparent_crc>
   13172:	0f b6 05 b3 71 00 00 	movzbl 0x71b3(%rip),%eax        # 1a32c <g_370>
   13179:	0f b6 c0             	movzbl %al,%eax
   1317c:	8b 55 fc             	mov    -0x4(%rbp),%edx
   1317f:	48 8d 35 b3 33 00 00 	lea    0x33b3(%rip),%rsi        # 16539 <g_2357+0x14c9>
   13186:	48 89 c7             	mov    %rax,%rdi
   13189:	e8 65 75 ff ff       	callq  a6f3 <transparent_crc>
   1318e:	8b 05 9c 71 00 00    	mov    0x719c(%rip),%eax        # 1a330 <g_382>
   13194:	48 98                	cltq   
   13196:	8b 55 fc             	mov    -0x4(%rbp),%edx
   13199:	48 8d 35 9f 33 00 00 	lea    0x339f(%rip),%rsi        # 1653f <g_2357+0x14cf>
   131a0:	48 89 c7             	mov    %rax,%rdi
   131a3:	e8 4b 75 ff ff       	callq  a6f3 <transparent_crc>
   131a8:	0f b6 05 85 71 00 00 	movzbl 0x7185(%rip),%eax        # 1a334 <g_476>
   131af:	48 0f be c0          	movsbq %al,%rax
   131b3:	8b 55 fc             	mov    -0x4(%rbp),%edx
   131b6:	48 8d 35 8b 33 00 00 	lea    0x338b(%rip),%rsi        # 16548 <g_2357+0x14d8>
   131bd:	48 89 c7             	mov    %rax,%rdi
   131c0:	e8 2e 75 ff ff       	callq  a6f3 <transparent_crc>
   131c5:	8b 05 5d b4 00 00    	mov    0xb45d(%rip),%eax        # 1e628 <g_514>
   131cb:	89 c1                	mov    %eax,%ecx
   131cd:	8b 45 fc             	mov    -0x4(%rbp),%eax
   131d0:	89 c2                	mov    %eax,%edx
   131d2:	48 8d 35 75 33 00 00 	lea    0x3375(%rip),%rsi        # 1654e <g_2357+0x14de>
   131d9:	48 89 cf             	mov    %rcx,%rdi
   131dc:	e8 12 75 ff ff       	callq  a6f3 <transparent_crc>
   131e1:	b8 17 00 00 00       	mov    $0x17,%eax
   131e6:	48 0f be c0          	movsbq %al,%rax
   131ea:	8b 55 fc             	mov    -0x4(%rbp),%edx
   131ed:	48 8d 35 60 33 00 00 	lea    0x3360(%rip),%rsi        # 16554 <g_2357+0x14e4>
   131f4:	48 89 c7             	mov    %rax,%rdi
   131f7:	e8 f7 74 ff ff       	callq  a6f3 <transparent_crc>
   131fc:	8b 05 36 71 00 00    	mov    0x7136(%rip),%eax        # 1a338 <g_701>
   13202:	48 98                	cltq   
   13204:	8b 55 fc             	mov    -0x4(%rbp),%edx
   13207:	48 8d 35 4c 33 00 00 	lea    0x334c(%rip),%rsi        # 1655a <g_2357+0x14ea>
   1320e:	48 89 c7             	mov    %rax,%rdi
   13211:	e8 dd 74 ff ff       	callq  a6f3 <transparent_crc>
   13216:	8b 05 20 71 00 00    	mov    0x7120(%rip),%eax        # 1a33c <g_732>
   1321c:	48 98                	cltq   
   1321e:	8b 55 fc             	mov    -0x4(%rbp),%edx
   13221:	48 8d 35 3b 33 00 00 	lea    0x333b(%rip),%rsi        # 16563 <g_2357+0x14f3>
   13228:	48 89 c7             	mov    %rax,%rdi
   1322b:	e8 c3 74 ff ff       	callq  a6f3 <transparent_crc>
   13230:	8b 05 0a 71 00 00    	mov    0x710a(%rip),%eax        # 1a340 <g_758>
   13236:	89 c1                	mov    %eax,%ecx
   13238:	8b 45 fc             	mov    -0x4(%rbp),%eax
   1323b:	89 c2                	mov    %eax,%edx
   1323d:	48 8d 35 28 33 00 00 	lea    0x3328(%rip),%rsi        # 1656c <g_2357+0x14fc>
   13244:	48 89 cf             	mov    %rcx,%rdi
   13247:	e8 a7 74 ff ff       	callq  a6f3 <transparent_crc>
   1324c:	0f b7 05 f5 70 00 00 	movzwl 0x70f5(%rip),%eax        # 1a348 <g_815>
   13253:	0f b7 c0             	movzwl %ax,%eax
   13256:	8b 55 fc             	mov    -0x4(%rbp),%edx
   13259:	48 8d 35 12 33 00 00 	lea    0x3312(%rip),%rsi        # 16572 <g_2357+0x1502>
   13260:	48 89 c7             	mov    %rax,%rdi
   13263:	e8 8b 74 ff ff       	callq  a6f3 <transparent_crc>
   13268:	0f b6 05 d9 70 00 00 	movzbl 0x70d9(%rip),%eax        # 1a348 <g_815>
   1326f:	0f b6 c0             	movzbl %al,%eax
   13272:	8b 55 fc             	mov    -0x4(%rbp),%edx
   13275:	48 8d 35 ff 32 00 00 	lea    0x32ff(%rip),%rsi        # 1657b <g_2357+0x150b>
   1327c:	48 89 c7             	mov    %rax,%rdi
   1327f:	e8 6f 74 ff ff       	callq  a6f3 <transparent_crc>
   13284:	0f b7 05 bd 70 00 00 	movzwl 0x70bd(%rip),%eax        # 1a348 <g_815>
   1328b:	48 0f bf c0          	movswq %ax,%rax
   1328f:	8b 55 fc             	mov    -0x4(%rbp),%edx
   13292:	48 8d 35 eb 32 00 00 	lea    0x32eb(%rip),%rsi        # 16584 <g_2357+0x1514>
   13299:	48 89 c7             	mov    %rax,%rdi
   1329c:	e8 52 74 ff ff       	callq  a6f3 <transparent_crc>
   132a1:	c7 45 f0 00 00 00 00 	movl   $0x0,-0x10(%rbp)
   132a8:	e9 9c 00 00 00       	jmpq   13349 <main+0x6dc>
   132ad:	c7 45 f4 00 00 00 00 	movl   $0x0,-0xc(%rbp)
   132b4:	e9 82 00 00 00       	jmpq   1333b <main+0x6ce>
   132b9:	c7 45 f8 00 00 00 00 	movl   $0x0,-0x8(%rbp)
   132c0:	eb 6f                	jmp    13331 <main+0x6c4>
   132c2:	8b 45 f8             	mov    -0x8(%rbp),%eax
   132c5:	48 63 c8             	movslq %eax,%rcx
   132c8:	8b 45 f0             	mov    -0x10(%rbp),%eax
   132cb:	48 63 d0             	movslq %eax,%rdx
   132ce:	8b 45 f4             	mov    -0xc(%rbp),%eax
   132d1:	48 63 f0             	movslq %eax,%rsi
   132d4:	48 89 d0             	mov    %rdx,%rax
   132d7:	48 c1 e0 02          	shl    $0x2,%rax
   132db:	48 01 d0             	add    %rdx,%rax
   132de:	48 01 f0             	add    %rsi,%rax
   132e1:	48 01 c0             	add    %rax,%rax
   132e4:	48 01 c8             	add    %rcx,%rax
   132e7:	48 8d 14 00          	lea    (%rax,%rax,1),%rdx
   132eb:	48 8d 05 6e 70 00 00 	lea    0x706e(%rip),%rax        # 1a360 <g_838>
   132f2:	0f b7 04 02          	movzwl (%rdx,%rax,1),%eax
   132f6:	0f b7 c0             	movzwl %ax,%eax
   132f9:	8b 55 fc             	mov    -0x4(%rbp),%edx
   132fc:	48 8d 35 8a 32 00 00 	lea    0x328a(%rip),%rsi        # 1658d <g_2357+0x151d>
   13303:	48 89 c7             	mov    %rax,%rdi
   13306:	e8 e8 73 ff ff       	callq  a6f3 <transparent_crc>
   1330b:	83 7d fc 00          	cmpl   $0x0,-0x4(%rbp)
   1330f:	74 1c                	je     1332d <main+0x6c0>
   13311:	8b 4d f8             	mov    -0x8(%rbp),%ecx
   13314:	8b 55 f4             	mov    -0xc(%rbp),%edx
   13317:	8b 45 f0             	mov    -0x10(%rbp),%eax
   1331a:	89 c6                	mov    %eax,%esi
   1331c:	48 8d 3d d9 31 00 00 	lea    0x31d9(%rip),%rdi        # 164fc <g_2357+0x148c>
   13323:	b8 00 00 00 00       	mov    $0x0,%eax
   13328:	e8 53 5d ff ff       	callq  9080 <printf@plt>
   1332d:	83 45 f8 01          	addl   $0x1,-0x8(%rbp)
   13331:	83 7d f8 01          	cmpl   $0x1,-0x8(%rbp)
   13335:	7e 8b                	jle    132c2 <main+0x655>
   13337:	83 45 f4 01          	addl   $0x1,-0xc(%rbp)
   1333b:	83 7d f4 04          	cmpl   $0x4,-0xc(%rbp)
   1333f:	0f 8e 74 ff ff ff    	jle    132b9 <main+0x64c>
   13345:	83 45 f0 01          	addl   $0x1,-0x10(%rbp)
   13349:	83 7d f0 01          	cmpl   $0x1,-0x10(%rbp)
   1334d:	0f 8e 5a ff ff ff    	jle    132ad <main+0x640>
   13353:	48 8b 05 2e 70 00 00 	mov    0x702e(%rip),%rax        # 1a388 <g_861>
   1335a:	8b 55 fc             	mov    -0x4(%rbp),%edx
   1335d:	48 8d 35 38 32 00 00 	lea    0x3238(%rip),%rsi        # 1659c <g_2357+0x152c>
   13364:	48 89 c7             	mov    %rax,%rdi
   13367:	e8 87 73 ff ff       	callq  a6f3 <transparent_crc>
   1336c:	c7 45 f0 00 00 00 00 	movl   $0x0,-0x10(%rbp)
   13373:	eb 4a                	jmp    133bf <main+0x752>
   13375:	8b 45 f0             	mov    -0x10(%rbp),%eax
   13378:	48 98                	cltq   
   1337a:	48 8d 14 c5 00 00 00 	lea    0x0(,%rax,8),%rdx
   13381:	00 
   13382:	48 8d 05 17 70 00 00 	lea    0x7017(%rip),%rax        # 1a3a0 <g_941>
   13389:	48 8b 04 02          	mov    (%rdx,%rax,1),%rax
   1338d:	8b 55 fc             	mov    -0x4(%rbp),%edx
   13390:	48 8d 35 0b 32 00 00 	lea    0x320b(%rip),%rsi        # 165a2 <g_2357+0x1532>
   13397:	48 89 c7             	mov    %rax,%rdi
   1339a:	e8 54 73 ff ff       	callq  a6f3 <transparent_crc>
   1339f:	83 7d fc 00          	cmpl   $0x0,-0x4(%rbp)
   133a3:	74 16                	je     133bb <main+0x74e>
   133a5:	8b 45 f0             	mov    -0x10(%rbp),%eax
   133a8:	89 c6                	mov    %eax,%esi
   133aa:	48 8d 3d d4 30 00 00 	lea    0x30d4(%rip),%rdi        # 16485 <g_2357+0x1415>
   133b1:	b8 00 00 00 00       	mov    $0x0,%eax
   133b6:	e8 c5 5c ff ff       	callq  9080 <printf@plt>
   133bb:	83 45 f0 01          	addl   $0x1,-0x10(%rbp)
   133bf:	83 7d f0 08          	cmpl   $0x8,-0x10(%rbp)
   133c3:	7e b0                	jle    13375 <main+0x708>
   133c5:	b8 00 00 00 00       	mov    $0x0,%eax
   133ca:	48 0f bf c0          	movswq %ax,%rax
   133ce:	8b 55 fc             	mov    -0x4(%rbp),%edx
   133d1:	48 8d 35 d3 31 00 00 	lea    0x31d3(%rip),%rsi        # 165ab <g_2357+0x153b>
   133d8:	48 89 c7             	mov    %rax,%rdi
   133db:	e8 13 73 ff ff       	callq  a6f3 <transparent_crc>
   133e0:	b8 01 00 00 00       	mov    $0x1,%eax
   133e5:	48 0f bf c0          	movswq %ax,%rax
   133e9:	8b 55 fc             	mov    -0x4(%rbp),%edx
   133ec:	48 8d 35 bf 31 00 00 	lea    0x31bf(%rip),%rsi        # 165b2 <g_2357+0x1542>
   133f3:	48 89 c7             	mov    %rax,%rdi
   133f6:	e8 f8 72 ff ff       	callq  a6f3 <transparent_crc>
   133fb:	48 8b 05 e6 b2 00 00 	mov    0xb2e6(%rip),%rax        # 1e6e8 <g_1076>
   13402:	48 89 c1             	mov    %rax,%rcx
   13405:	8b 45 fc             	mov    -0x4(%rbp),%eax
   13408:	89 c2                	mov    %eax,%edx
   1340a:	48 8d 35 a8 31 00 00 	lea    0x31a8(%rip),%rsi        # 165b9 <g_2357+0x1549>
   13411:	48 89 cf             	mov    %rcx,%rdi
   13414:	e8 da 72 ff ff       	callq  a6f3 <transparent_crc>
   13419:	c7 45 f0 00 00 00 00 	movl   $0x0,-0x10(%rbp)
   13420:	eb 4f                	jmp    13471 <main+0x804>
   13422:	8b 45 f0             	mov    -0x10(%rbp),%eax
   13425:	48 98                	cltq   
   13427:	48 8d 14 c5 00 00 00 	lea    0x0(,%rax,8),%rdx
   1342e:	00 
   1342f:	48 8d 05 ba 6f 00 00 	lea    0x6fba(%rip),%rax        # 1a3f0 <g_1080>
   13436:	48 8b 04 02          	mov    (%rdx,%rax,1),%rax
   1343a:	48 89 c1             	mov    %rax,%rcx
   1343d:	8b 45 fc             	mov    -0x4(%rbp),%eax
   13440:	89 c2                	mov    %eax,%edx
   13442:	48 8d 35 77 31 00 00 	lea    0x3177(%rip),%rsi        # 165c0 <g_2357+0x1550>
   13449:	48 89 cf             	mov    %rcx,%rdi
   1344c:	e8 a2 72 ff ff       	callq  a6f3 <transparent_crc>
   13451:	83 7d fc 00          	cmpl   $0x0,-0x4(%rbp)
   13455:	74 16                	je     1346d <main+0x800>
   13457:	8b 45 f0             	mov    -0x10(%rbp),%eax
   1345a:	89 c6                	mov    %eax,%esi
   1345c:	48 8d 3d 22 30 00 00 	lea    0x3022(%rip),%rdi        # 16485 <g_2357+0x1415>
   13463:	b8 00 00 00 00       	mov    $0x0,%eax
   13468:	e8 13 5c ff ff       	callq  9080 <printf@plt>
   1346d:	83 45 f0 01          	addl   $0x1,-0x10(%rbp)
   13471:	83 7d f0 01          	cmpl   $0x1,-0x10(%rbp)
   13475:	7e ab                	jle    13422 <main+0x7b5>
   13477:	b8 03 f0 b5 00       	mov    $0xb5f003,%eax
   1347c:	89 c1                	mov    %eax,%ecx
   1347e:	8b 45 fc             	mov    -0x4(%rbp),%eax
   13481:	89 c2                	mov    %eax,%edx
   13483:	48 8d 35 40 31 00 00 	lea    0x3140(%rip),%rsi        # 165ca <g_2357+0x155a>
   1348a:	48 89 cf             	mov    %rcx,%rdi
   1348d:	e8 61 72 ff ff       	callq  a6f3 <transparent_crc>
   13492:	c7 45 f0 00 00 00 00 	movl   $0x0,-0x10(%rbp)
   13499:	eb 46                	jmp    134e1 <main+0x874>
   1349b:	8b 45 f0             	mov    -0x10(%rbp),%eax
   1349e:	48 98                	cltq   
   134a0:	48 8d 15 59 6f 00 00 	lea    0x6f59(%rip),%rdx        # 1a400 <g_1202>
   134a7:	0f b6 04 10          	movzbl (%rax,%rdx,1),%eax
   134ab:	48 0f be c0          	movsbq %al,%rax
   134af:	8b 55 fc             	mov    -0x4(%rbp),%edx
   134b2:	48 8d 35 18 31 00 00 	lea    0x3118(%rip),%rsi        # 165d1 <g_2357+0x1561>
   134b9:	48 89 c7             	mov    %rax,%rdi
   134bc:	e8 32 72 ff ff       	callq  a6f3 <transparent_crc>
   134c1:	83 7d fc 00          	cmpl   $0x0,-0x4(%rbp)
   134c5:	74 16                	je     134dd <main+0x870>
   134c7:	8b 45 f0             	mov    -0x10(%rbp),%eax
   134ca:	89 c6                	mov    %eax,%esi
   134cc:	48 8d 3d b2 2f 00 00 	lea    0x2fb2(%rip),%rdi        # 16485 <g_2357+0x1415>
   134d3:	b8 00 00 00 00       	mov    $0x0,%eax
   134d8:	e8 a3 5b ff ff       	callq  9080 <printf@plt>
   134dd:	83 45 f0 01          	addl   $0x1,-0x10(%rbp)
   134e1:	83 7d f0 08          	cmpl   $0x8,-0x10(%rbp)
   134e5:	7e b4                	jle    1349b <main+0x82e>
   134e7:	8b 05 1f 6f 00 00    	mov    0x6f1f(%rip),%eax        # 1a40c <g_1463>
   134ed:	48 98                	cltq   
   134ef:	8b 55 fc             	mov    -0x4(%rbp),%edx
   134f2:	48 8d 35 e2 30 00 00 	lea    0x30e2(%rip),%rsi        # 165db <g_2357+0x156b>
   134f9:	48 89 c7             	mov    %rax,%rdi
   134fc:	e8 f2 71 ff ff       	callq  a6f3 <transparent_crc>
   13501:	c7 45 f0 00 00 00 00 	movl   $0x0,-0x10(%rbp)
   13508:	e9 9e 00 00 00       	jmpq   135ab <main+0x93e>
   1350d:	c7 45 f4 00 00 00 00 	movl   $0x0,-0xc(%rbp)
   13514:	e9 84 00 00 00       	jmpq   1359d <main+0x930>
   13519:	c7 45 f8 00 00 00 00 	movl   $0x0,-0x8(%rbp)
   13520:	eb 71                	jmp    13593 <main+0x926>
   13522:	8b 45 f8             	mov    -0x8(%rbp),%eax
   13525:	48 63 c8             	movslq %eax,%rcx
   13528:	8b 45 f0             	mov    -0x10(%rbp),%eax
   1352b:	48 63 d0             	movslq %eax,%rdx
   1352e:	8b 45 f4             	mov    -0xc(%rbp),%eax
   13531:	48 63 f0             	movslq %eax,%rsi
   13534:	48 89 d0             	mov    %rdx,%rax
   13537:	48 01 c0             	add    %rax,%rax
   1353a:	48 01 d0             	add    %rdx,%rax
   1353d:	48 01 f0             	add    %rsi,%rax
   13540:	48 c1 e0 02          	shl    $0x2,%rax
   13544:	48 01 c8             	add    %rcx,%rax
   13547:	48 8d 14 85 00 00 00 	lea    0x0(,%rax,4),%rdx
   1354e:	00 
   1354f:	48 8d 05 ca 6e 00 00 	lea    0x6eca(%rip),%rax        # 1a420 <g_1512>
   13556:	8b 04 02             	mov    (%rdx,%rax,1),%eax
   13559:	48 98                	cltq   
   1355b:	8b 55 fc             	mov    -0x4(%rbp),%edx
   1355e:	48 8d 35 80 30 00 00 	lea    0x3080(%rip),%rsi        # 165e5 <g_2357+0x1575>
   13565:	48 89 c7             	mov    %rax,%rdi
   13568:	e8 86 71 ff ff       	callq  a6f3 <transparent_crc>
   1356d:	83 7d fc 00          	cmpl   $0x0,-0x4(%rbp)
   13571:	74 1c                	je     1358f <main+0x922>
   13573:	8b 4d f8             	mov    -0x8(%rbp),%ecx
   13576:	8b 55 f4             	mov    -0xc(%rbp),%edx
   13579:	8b 45 f0             	mov    -0x10(%rbp),%eax
   1357c:	89 c6                	mov    %eax,%esi
   1357e:	48 8d 3d 77 2f 00 00 	lea    0x2f77(%rip),%rdi        # 164fc <g_2357+0x148c>
   13585:	b8 00 00 00 00       	mov    $0x0,%eax
   1358a:	e8 f1 5a ff ff       	callq  9080 <printf@plt>
   1358f:	83 45 f8 01          	addl   $0x1,-0x8(%rbp)
   13593:	83 7d f8 03          	cmpl   $0x3,-0x8(%rbp)
   13597:	7e 89                	jle    13522 <main+0x8b5>
   13599:	83 45 f4 01          	addl   $0x1,-0xc(%rbp)
   1359d:	83 7d f4 02          	cmpl   $0x2,-0xc(%rbp)
   135a1:	0f 8e 72 ff ff ff    	jle    13519 <main+0x8ac>
   135a7:	83 45 f0 01          	addl   $0x1,-0x10(%rbp)
   135ab:	83 7d f0 03          	cmpl   $0x3,-0x10(%rbp)
   135af:	0f 8e 58 ff ff ff    	jle    1350d <main+0x8a0>
   135b5:	0f b7 05 3c b1 00 00 	movzwl 0xb13c(%rip),%eax        # 1e6f8 <g_1553>
   135bc:	0f b7 c0             	movzwl %ax,%eax
   135bf:	8b 55 fc             	mov    -0x4(%rbp),%edx
   135c2:	48 8d 35 2f 30 00 00 	lea    0x302f(%rip),%rsi        # 165f8 <g_2357+0x1588>
   135c9:	48 89 c7             	mov    %rax,%rdi
   135cc:	e8 22 71 ff ff       	callq  a6f3 <transparent_crc>
   135d1:	8b 05 09 6f 00 00    	mov    0x6f09(%rip),%eax        # 1a4e0 <g_1558>
   135d7:	48 98                	cltq   
   135d9:	8b 55 fc             	mov    -0x4(%rbp),%edx
   135dc:	48 8d 35 1c 30 00 00 	lea    0x301c(%rip),%rsi        # 165ff <g_2357+0x158f>
   135e3:	48 89 c7             	mov    %rax,%rdi
   135e6:	e8 08 71 ff ff       	callq  a6f3 <transparent_crc>
   135eb:	0f b7 05 f2 6e 00 00 	movzwl 0x6ef2(%rip),%eax        # 1a4e4 <g_1562>
   135f2:	48 0f bf c0          	movswq %ax,%rax
   135f6:	8b 55 fc             	mov    -0x4(%rbp),%edx
   135f9:	48 8d 35 09 30 00 00 	lea    0x3009(%rip),%rsi        # 16609 <g_2357+0x1599>
   13600:	48 89 c7             	mov    %rax,%rdi
   13603:	e8 eb 70 ff ff       	callq  a6f3 <transparent_crc>
   13608:	0f b7 05 d9 6e 00 00 	movzwl 0x6ed9(%rip),%eax        # 1a4e8 <g_1578>
   1360f:	0f b7 c0             	movzwl %ax,%eax
   13612:	8b 55 fc             	mov    -0x4(%rbp),%edx
   13615:	48 8d 35 f4 2f 00 00 	lea    0x2ff4(%rip),%rsi        # 16610 <g_2357+0x15a0>
   1361c:	48 89 c7             	mov    %rax,%rdi
   1361f:	e8 cf 70 ff ff       	callq  a6f3 <transparent_crc>
   13624:	0f b6 05 bd 6e 00 00 	movzbl 0x6ebd(%rip),%eax        # 1a4e8 <g_1578>
   1362b:	0f b6 c0             	movzbl %al,%eax
   1362e:	8b 55 fc             	mov    -0x4(%rbp),%edx
   13631:	48 8d 35 e2 2f 00 00 	lea    0x2fe2(%rip),%rsi        # 1661a <g_2357+0x15aa>
   13638:	48 89 c7             	mov    %rax,%rdi
   1363b:	e8 b3 70 ff ff       	callq  a6f3 <transparent_crc>
   13640:	0f b7 05 a1 6e 00 00 	movzwl 0x6ea1(%rip),%eax        # 1a4e8 <g_1578>
   13647:	48 0f bf c0          	movswq %ax,%rax
   1364b:	8b 55 fc             	mov    -0x4(%rbp),%edx
   1364e:	48 8d 35 cf 2f 00 00 	lea    0x2fcf(%rip),%rsi        # 16624 <g_2357+0x15b4>
   13655:	48 89 c7             	mov    %rax,%rdi
   13658:	e8 96 70 ff ff       	callq  a6f3 <transparent_crc>
   1365d:	0f b7 05 8c 6e 00 00 	movzwl 0x6e8c(%rip),%eax        # 1a4f0 <g_1604>
   13664:	0f b7 c0             	movzwl %ax,%eax
   13667:	8b 55 fc             	mov    -0x4(%rbp),%edx
   1366a:	48 8d 35 bd 2f 00 00 	lea    0x2fbd(%rip),%rsi        # 1662e <g_2357+0x15be>
   13671:	48 89 c7             	mov    %rax,%rdi
   13674:	e8 7a 70 ff ff       	callq  a6f3 <transparent_crc>
   13679:	0f b6 05 70 6e 00 00 	movzbl 0x6e70(%rip),%eax        # 1a4f0 <g_1604>
   13680:	0f b6 c0             	movzbl %al,%eax
   13683:	8b 55 fc             	mov    -0x4(%rbp),%edx
   13686:	48 8d 35 ab 2f 00 00 	lea    0x2fab(%rip),%rsi        # 16638 <g_2357+0x15c8>
   1368d:	48 89 c7             	mov    %rax,%rdi
   13690:	e8 5e 70 ff ff       	callq  a6f3 <transparent_crc>
   13695:	0f b7 05 54 6e 00 00 	movzwl 0x6e54(%rip),%eax        # 1a4f0 <g_1604>
   1369c:	48 0f bf c0          	movswq %ax,%rax
   136a0:	8b 55 fc             	mov    -0x4(%rbp),%edx
   136a3:	48 8d 35 98 2f 00 00 	lea    0x2f98(%rip),%rsi        # 16642 <g_2357+0x15d2>
   136aa:	48 89 c7             	mov    %rax,%rdi
   136ad:	e8 41 70 ff ff       	callq  a6f3 <transparent_crc>
   136b2:	8b 05 40 6e 00 00    	mov    0x6e40(%rip),%eax        # 1a4f8 <g_1613>
   136b8:	89 c1                	mov    %eax,%ecx
   136ba:	8b 45 fc             	mov    -0x4(%rbp),%eax
   136bd:	89 c2                	mov    %eax,%edx
   136bf:	48 8d 35 86 2f 00 00 	lea    0x2f86(%rip),%rsi        # 1664c <g_2357+0x15dc>
   136c6:	48 89 cf             	mov    %rcx,%rdi
   136c9:	e8 25 70 ff ff       	callq  a6f3 <transparent_crc>
   136ce:	0f b6 05 27 6e 00 00 	movzbl 0x6e27(%rip),%eax        # 1a4fc <g_1646>
   136d5:	0f b6 c0             	movzbl %al,%eax
   136d8:	8b 55 fc             	mov    -0x4(%rbp),%edx
   136db:	48 8d 35 71 2f 00 00 	lea    0x2f71(%rip),%rsi        # 16653 <g_2357+0x15e3>
   136e2:	48 89 c7             	mov    %rax,%rdi
   136e5:	e8 09 70 ff ff       	callq  a6f3 <transparent_crc>
   136ea:	c7 45 f0 00 00 00 00 	movl   $0x0,-0x10(%rbp)
   136f1:	e9 8d 00 00 00       	jmpq   13783 <main+0xb16>
   136f6:	c7 45 f4 00 00 00 00 	movl   $0x0,-0xc(%rbp)
   136fd:	eb 7a                	jmp    13779 <main+0xb0c>
   136ff:	c7 45 f8 00 00 00 00 	movl   $0x0,-0x8(%rbp)
   13706:	eb 67                	jmp    1376f <main+0xb02>
   13708:	8b 45 f8             	mov    -0x8(%rbp),%eax
   1370b:	48 98                	cltq   
   1370d:	8b 55 f0             	mov    -0x10(%rbp),%edx
   13710:	48 63 ca             	movslq %edx,%rcx
   13713:	8b 55 f4             	mov    -0xc(%rbp),%edx
   13716:	48 63 d2             	movslq %edx,%rdx
   13719:	48 01 ca             	add    %rcx,%rdx
   1371c:	48 c1 e2 02          	shl    $0x2,%rdx
   13720:	48 01 d0             	add    %rdx,%rax
   13723:	48 8d 14 85 00 00 00 	lea    0x0(,%rax,4),%rdx
   1372a:	00 
   1372b:	48 8d 05 ce 6d 00 00 	lea    0x6dce(%rip),%rax        # 1a500 <g_1665>
   13732:	8b 04 02             	mov    (%rdx,%rax,1),%eax
   13735:	48 98                	cltq   
   13737:	8b 55 fc             	mov    -0x4(%rbp),%edx
   1373a:	48 8d 35 19 2f 00 00 	lea    0x2f19(%rip),%rsi        # 1665a <g_2357+0x15ea>
   13741:	48 89 c7             	mov    %rax,%rdi
   13744:	e8 aa 6f ff ff       	callq  a6f3 <transparent_crc>
   13749:	83 7d fc 00          	cmpl   $0x0,-0x4(%rbp)
   1374d:	74 1c                	je     1376b <main+0xafe>
   1374f:	8b 4d f8             	mov    -0x8(%rbp),%ecx
   13752:	8b 55 f4             	mov    -0xc(%rbp),%edx
   13755:	8b 45 f0             	mov    -0x10(%rbp),%eax
   13758:	89 c6                	mov    %eax,%esi
   1375a:	48 8d 3d 9b 2d 00 00 	lea    0x2d9b(%rip),%rdi        # 164fc <g_2357+0x148c>
   13761:	b8 00 00 00 00       	mov    $0x0,%eax
   13766:	e8 15 59 ff ff       	callq  9080 <printf@plt>
   1376b:	83 45 f8 01          	addl   $0x1,-0x8(%rbp)
   1376f:	83 7d f8 03          	cmpl   $0x3,-0x8(%rbp)
   13773:	7e 93                	jle    13708 <main+0xa9b>
   13775:	83 45 f4 01          	addl   $0x1,-0xc(%rbp)
   13779:	83 7d f4 00          	cmpl   $0x0,-0xc(%rbp)
   1377d:	7e 80                	jle    136ff <main+0xa92>
   1377f:	83 45 f0 01          	addl   $0x1,-0x10(%rbp)
   13783:	83 7d f0 07          	cmpl   $0x7,-0x10(%rbp)
   13787:	0f 8e 69 ff ff ff    	jle    136f6 <main+0xa89>
   1378d:	8b 05 ed 6d 00 00    	mov    0x6ded(%rip),%eax        # 1a580 <g_1684>
   13793:	48 98                	cltq   
   13795:	8b 55 fc             	mov    -0x4(%rbp),%edx
   13798:	48 8d 35 ce 2e 00 00 	lea    0x2ece(%rip),%rsi        # 1666d <g_2357+0x15fd>
   1379f:	48 89 c7             	mov    %rax,%rdi
   137a2:	e8 4c 6f ff ff       	callq  a6f3 <transparent_crc>
   137a7:	8b 05 d7 6d 00 00    	mov    0x6dd7(%rip),%eax        # 1a584 <g_1826>
   137ad:	48 98                	cltq   
   137af:	8b 55 fc             	mov    -0x4(%rbp),%edx
   137b2:	48 8d 35 be 2e 00 00 	lea    0x2ebe(%rip),%rsi        # 16677 <g_2357+0x1607>
   137b9:	48 89 c7             	mov    %rax,%rdi
   137bc:	e8 32 6f ff ff       	callq  a6f3 <transparent_crc>
   137c1:	8b 05 c1 6d 00 00    	mov    0x6dc1(%rip),%eax        # 1a588 <g_1992>
   137c7:	48 98                	cltq   
   137c9:	8b 55 fc             	mov    -0x4(%rbp),%edx
   137cc:	48 8d 35 ae 2e 00 00 	lea    0x2eae(%rip),%rsi        # 16681 <g_2357+0x1611>
   137d3:	48 89 c7             	mov    %rax,%rdi
   137d6:	e8 18 6f ff ff       	callq  a6f3 <transparent_crc>
   137db:	0f b7 05 ae 6d 00 00 	movzwl 0x6dae(%rip),%eax        # 1a590 <g_1998>
   137e2:	0f b7 c0             	movzwl %ax,%eax
   137e5:	8b 55 fc             	mov    -0x4(%rbp),%edx
   137e8:	48 8d 35 9c 2e 00 00 	lea    0x2e9c(%rip),%rsi        # 1668b <g_2357+0x161b>
   137ef:	48 89 c7             	mov    %rax,%rdi
   137f2:	e8 fc 6e ff ff       	callq  a6f3 <transparent_crc>
   137f7:	0f b6 05 92 6d 00 00 	movzbl 0x6d92(%rip),%eax        # 1a590 <g_1998>
   137fe:	0f b6 c0             	movzbl %al,%eax
   13801:	8b 55 fc             	mov    -0x4(%rbp),%edx
   13804:	48 8d 35 8a 2e 00 00 	lea    0x2e8a(%rip),%rsi        # 16695 <g_2357+0x1625>
   1380b:	48 89 c7             	mov    %rax,%rdi
   1380e:	e8 e0 6e ff ff       	callq  a6f3 <transparent_crc>
   13813:	0f b7 05 76 6d 00 00 	movzwl 0x6d76(%rip),%eax        # 1a590 <g_1998>
   1381a:	48 0f bf c0          	movswq %ax,%rax
   1381e:	8b 55 fc             	mov    -0x4(%rbp),%edx
   13821:	48 8d 35 77 2e 00 00 	lea    0x2e77(%rip),%rsi        # 1669f <g_2357+0x162f>
   13828:	48 89 c7             	mov    %rax,%rdi
   1382b:	e8 c3 6e ff ff       	callq  a6f3 <transparent_crc>
   13830:	8b 05 62 6d 00 00    	mov    0x6d62(%rip),%eax        # 1a598 <g_2014>
   13836:	48 98                	cltq   
   13838:	8b 55 fc             	mov    -0x4(%rbp),%edx
   1383b:	48 8d 35 67 2e 00 00 	lea    0x2e67(%rip),%rsi        # 166a9 <g_2357+0x1639>
   13842:	48 89 c7             	mov    %rax,%rdi
   13845:	e8 a9 6e ff ff       	callq  a6f3 <transparent_crc>
   1384a:	8b 05 4c 6d 00 00    	mov    0x6d4c(%rip),%eax        # 1a59c <g_2021>
   13850:	48 98                	cltq   
   13852:	8b 55 fc             	mov    -0x4(%rbp),%edx
   13855:	48 8d 35 57 2e 00 00 	lea    0x2e57(%rip),%rsi        # 166b3 <g_2357+0x1643>
   1385c:	48 89 c7             	mov    %rax,%rdi
   1385f:	e8 8f 6e ff ff       	callq  a6f3 <transparent_crc>
   13864:	0f b7 05 35 6d 00 00 	movzwl 0x6d35(%rip),%eax        # 1a5a0 <g_2025>
   1386b:	0f b7 c0             	movzwl %ax,%eax
   1386e:	8b 55 fc             	mov    -0x4(%rbp),%edx
   13871:	48 8d 35 45 2e 00 00 	lea    0x2e45(%rip),%rsi        # 166bd <g_2357+0x164d>
   13878:	48 89 c7             	mov    %rax,%rdi
   1387b:	e8 73 6e ff ff       	callq  a6f3 <transparent_crc>
   13880:	0f b6 05 19 6d 00 00 	movzbl 0x6d19(%rip),%eax        # 1a5a0 <g_2025>
   13887:	0f b6 c0             	movzbl %al,%eax
   1388a:	8b 55 fc             	mov    -0x4(%rbp),%edx
   1388d:	48 8d 35 33 2e 00 00 	lea    0x2e33(%rip),%rsi        # 166c7 <g_2357+0x1657>
   13894:	48 89 c7             	mov    %rax,%rdi
   13897:	e8 57 6e ff ff       	callq  a6f3 <transparent_crc>
   1389c:	0f b7 05 fd 6c 00 00 	movzwl 0x6cfd(%rip),%eax        # 1a5a0 <g_2025>
   138a3:	48 0f bf c0          	movswq %ax,%rax
   138a7:	8b 55 fc             	mov    -0x4(%rbp),%edx
   138aa:	48 8d 35 20 2e 00 00 	lea    0x2e20(%rip),%rsi        # 166d1 <g_2357+0x1661>
   138b1:	48 89 c7             	mov    %rax,%rdi
   138b4:	e8 3a 6e ff ff       	callq  a6f3 <transparent_crc>
   138b9:	c7 45 f0 00 00 00 00 	movl   $0x0,-0x10(%rbp)
   138c0:	e9 a8 00 00 00       	jmpq   1396d <main+0xd00>
   138c5:	8b 45 f0             	mov    -0x10(%rbp),%eax
   138c8:	48 98                	cltq   
   138ca:	48 8d 14 c5 00 00 00 	lea    0x0(,%rax,8),%rdx
   138d1:	00 
   138d2:	48 8d 05 d7 6c 00 00 	lea    0x6cd7(%rip),%rax        # 1a5b0 <g_2029>
   138d9:	0f b7 04 02          	movzwl (%rdx,%rax,1),%eax
   138dd:	0f b7 c0             	movzwl %ax,%eax
   138e0:	8b 55 fc             	mov    -0x4(%rbp),%edx
   138e3:	48 8d 35 f1 2d 00 00 	lea    0x2df1(%rip),%rsi        # 166db <g_2357+0x166b>
   138ea:	48 89 c7             	mov    %rax,%rdi
   138ed:	e8 01 6e ff ff       	callq  a6f3 <transparent_crc>
   138f2:	8b 45 f0             	mov    -0x10(%rbp),%eax
   138f5:	48 98                	cltq   
   138f7:	48 8d 14 c5 00 00 00 	lea    0x0(,%rax,8),%rdx
   138fe:	00 
   138ff:	48 8d 05 aa 6c 00 00 	lea    0x6caa(%rip),%rax        # 1a5b0 <g_2029>
   13906:	0f b6 04 02          	movzbl (%rdx,%rax,1),%eax
   1390a:	0f b6 c0             	movzbl %al,%eax
   1390d:	8b 55 fc             	mov    -0x4(%rbp),%edx
   13910:	48 8d 35 d1 2d 00 00 	lea    0x2dd1(%rip),%rsi        # 166e8 <g_2357+0x1678>
   13917:	48 89 c7             	mov    %rax,%rdi
   1391a:	e8 d4 6d ff ff       	callq  a6f3 <transparent_crc>
   1391f:	8b 45 f0             	mov    -0x10(%rbp),%eax
   13922:	48 98                	cltq   
   13924:	48 8d 14 c5 00 00 00 	lea    0x0(,%rax,8),%rdx
   1392b:	00 
   1392c:	48 8d 05 7d 6c 00 00 	lea    0x6c7d(%rip),%rax        # 1a5b0 <g_2029>
   13933:	0f b7 04 02          	movzwl (%rdx,%rax,1),%eax
   13937:	48 0f bf c0          	movswq %ax,%rax
   1393b:	8b 55 fc             	mov    -0x4(%rbp),%edx
   1393e:	48 8d 35 b0 2d 00 00 	lea    0x2db0(%rip),%rsi        # 166f5 <g_2357+0x1685>
   13945:	48 89 c7             	mov    %rax,%rdi
   13948:	e8 a6 6d ff ff       	callq  a6f3 <transparent_crc>
   1394d:	83 7d fc 00          	cmpl   $0x0,-0x4(%rbp)
   13951:	74 16                	je     13969 <main+0xcfc>
   13953:	8b 45 f0             	mov    -0x10(%rbp),%eax
   13956:	89 c6                	mov    %eax,%esi
   13958:	48 8d 3d 26 2b 00 00 	lea    0x2b26(%rip),%rdi        # 16485 <g_2357+0x1415>
   1395f:	b8 00 00 00 00       	mov    $0x0,%eax
   13964:	e8 17 57 ff ff       	callq  9080 <printf@plt>
   13969:	83 45 f0 01          	addl   $0x1,-0x10(%rbp)
   1396d:	83 7d f0 02          	cmpl   $0x2,-0x10(%rbp)
   13971:	0f 8e 4e ff ff ff    	jle    138c5 <main+0xc58>
   13977:	c7 45 f0 00 00 00 00 	movl   $0x0,-0x10(%rbp)
   1397e:	e9 a8 00 00 00       	jmpq   13a2b <main+0xdbe>
   13983:	8b 45 f0             	mov    -0x10(%rbp),%eax
   13986:	48 98                	cltq   
   13988:	48 8d 14 c5 00 00 00 	lea    0x0(,%rax,8),%rdx
   1398f:	00 
   13990:	48 8d 05 49 6c 00 00 	lea    0x6c49(%rip),%rax        # 1a5e0 <g_2147>
   13997:	0f b7 04 02          	movzwl (%rdx,%rax,1),%eax
   1399b:	0f b7 c0             	movzwl %ax,%eax
   1399e:	8b 55 fc             	mov    -0x4(%rbp),%edx
   139a1:	48 8d 35 5a 2d 00 00 	lea    0x2d5a(%rip),%rsi        # 16702 <g_2357+0x1692>
   139a8:	48 89 c7             	mov    %rax,%rdi
   139ab:	e8 43 6d ff ff       	callq  a6f3 <transparent_crc>
   139b0:	8b 45 f0             	mov    -0x10(%rbp),%eax
   139b3:	48 98                	cltq   
   139b5:	48 8d 14 c5 00 00 00 	lea    0x0(,%rax,8),%rdx
   139bc:	00 
   139bd:	48 8d 05 1c 6c 00 00 	lea    0x6c1c(%rip),%rax        # 1a5e0 <g_2147>
   139c4:	0f b6 04 02          	movzbl (%rdx,%rax,1),%eax
   139c8:	0f b6 c0             	movzbl %al,%eax
   139cb:	8b 55 fc             	mov    -0x4(%rbp),%edx
   139ce:	48 8d 35 3a 2d 00 00 	lea    0x2d3a(%rip),%rsi        # 1670f <g_2357+0x169f>
   139d5:	48 89 c7             	mov    %rax,%rdi
   139d8:	e8 16 6d ff ff       	callq  a6f3 <transparent_crc>
   139dd:	8b 45 f0             	mov    -0x10(%rbp),%eax
   139e0:	48 98                	cltq   
   139e2:	48 8d 14 c5 00 00 00 	lea    0x0(,%rax,8),%rdx
   139e9:	00 
   139ea:	48 8d 05 ef 6b 00 00 	lea    0x6bef(%rip),%rax        # 1a5e0 <g_2147>
   139f1:	0f b7 04 02          	movzwl (%rdx,%rax,1),%eax
   139f5:	48 0f bf c0          	movswq %ax,%rax
   139f9:	8b 55 fc             	mov    -0x4(%rbp),%edx
   139fc:	48 8d 35 19 2d 00 00 	lea    0x2d19(%rip),%rsi        # 1671c <g_2357+0x16ac>
   13a03:	48 89 c7             	mov    %rax,%rdi
   13a06:	e8 e8 6c ff ff       	callq  a6f3 <transparent_crc>
   13a0b:	83 7d fc 00          	cmpl   $0x0,-0x4(%rbp)
   13a0f:	74 16                	je     13a27 <main+0xdba>
   13a11:	8b 45 f0             	mov    -0x10(%rbp),%eax
   13a14:	89 c6                	mov    %eax,%esi
   13a16:	48 8d 3d 68 2a 00 00 	lea    0x2a68(%rip),%rdi        # 16485 <g_2357+0x1415>
   13a1d:	b8 00 00 00 00       	mov    $0x0,%eax
   13a22:	e8 59 56 ff ff       	callq  9080 <printf@plt>
   13a27:	83 45 f0 01          	addl   $0x1,-0x10(%rbp)
   13a2b:	83 7d f0 08          	cmpl   $0x8,-0x10(%rbp)
   13a2f:	0f 8e 4e ff ff ff    	jle    13983 <main+0xd16>
   13a35:	0f b7 05 ec 6b 00 00 	movzwl 0x6bec(%rip),%eax        # 1a628 <g_2199>
   13a3c:	0f b7 c0             	movzwl %ax,%eax
   13a3f:	8b 55 fc             	mov    -0x4(%rbp),%edx
   13a42:	48 8d 35 e0 2c 00 00 	lea    0x2ce0(%rip),%rsi        # 16729 <g_2357+0x16b9>
   13a49:	48 89 c7             	mov    %rax,%rdi
   13a4c:	e8 a2 6c ff ff       	callq  a6f3 <transparent_crc>
   13a51:	0f b6 05 d0 6b 00 00 	movzbl 0x6bd0(%rip),%eax        # 1a628 <g_2199>
   13a58:	0f b6 c0             	movzbl %al,%eax
   13a5b:	8b 55 fc             	mov    -0x4(%rbp),%edx
   13a5e:	48 8d 35 ce 2c 00 00 	lea    0x2cce(%rip),%rsi        # 16733 <g_2357+0x16c3>
   13a65:	48 89 c7             	mov    %rax,%rdi
   13a68:	e8 86 6c ff ff       	callq  a6f3 <transparent_crc>
   13a6d:	0f b7 05 b4 6b 00 00 	movzwl 0x6bb4(%rip),%eax        # 1a628 <g_2199>
   13a74:	48 0f bf c0          	movswq %ax,%rax
   13a78:	8b 55 fc             	mov    -0x4(%rbp),%edx
   13a7b:	48 8d 35 bb 2c 00 00 	lea    0x2cbb(%rip),%rsi        # 1673d <g_2357+0x16cd>
   13a82:	48 89 c7             	mov    %rax,%rdi
   13a85:	e8 69 6c ff ff       	callq  a6f3 <transparent_crc>
   13a8a:	0f b7 05 9f 6b 00 00 	movzwl 0x6b9f(%rip),%eax        # 1a630 <g_2214>
   13a91:	0f b7 c0             	movzwl %ax,%eax
   13a94:	8b 55 fc             	mov    -0x4(%rbp),%edx
   13a97:	48 8d 35 a9 2c 00 00 	lea    0x2ca9(%rip),%rsi        # 16747 <g_2357+0x16d7>
   13a9e:	48 89 c7             	mov    %rax,%rdi
   13aa1:	e8 4d 6c ff ff       	callq  a6f3 <transparent_crc>
   13aa6:	0f b6 05 83 6b 00 00 	movzbl 0x6b83(%rip),%eax        # 1a630 <g_2214>
   13aad:	0f b6 c0             	movzbl %al,%eax
   13ab0:	8b 55 fc             	mov    -0x4(%rbp),%edx
   13ab3:	48 8d 35 97 2c 00 00 	lea    0x2c97(%rip),%rsi        # 16751 <g_2357+0x16e1>
   13aba:	48 89 c7             	mov    %rax,%rdi
   13abd:	e8 31 6c ff ff       	callq  a6f3 <transparent_crc>
   13ac2:	0f b7 05 67 6b 00 00 	movzwl 0x6b67(%rip),%eax        # 1a630 <g_2214>
   13ac9:	48 0f bf c0          	movswq %ax,%rax
   13acd:	8b 55 fc             	mov    -0x4(%rbp),%edx
   13ad0:	48 8d 35 84 2c 00 00 	lea    0x2c84(%rip),%rsi        # 1675b <g_2357+0x16eb>
   13ad7:	48 89 c7             	mov    %rax,%rdi
   13ada:	e8 14 6c ff ff       	callq  a6f3 <transparent_crc>
   13adf:	c7 45 f0 00 00 00 00 	movl   $0x0,-0x10(%rbp)
   13ae6:	eb 4b                	jmp    13b33 <main+0xec6>
   13ae8:	8b 45 f0             	mov    -0x10(%rbp),%eax
   13aeb:	48 98                	cltq   
   13aed:	48 8d 14 85 00 00 00 	lea    0x0(,%rax,4),%rdx
   13af4:	00 
   13af5:	48 8d 05 3c 6b 00 00 	lea    0x6b3c(%rip),%rax        # 1a638 <g_2218>
   13afc:	8b 04 02             	mov    (%rdx,%rax,1),%eax
   13aff:	48 98                	cltq   
   13b01:	8b 55 fc             	mov    -0x4(%rbp),%edx
   13b04:	48 8d 35 5a 2c 00 00 	lea    0x2c5a(%rip),%rsi        # 16765 <g_2357+0x16f5>
   13b0b:	48 89 c7             	mov    %rax,%rdi
   13b0e:	e8 e0 6b ff ff       	callq  a6f3 <transparent_crc>
   13b13:	83 7d fc 00          	cmpl   $0x0,-0x4(%rbp)
   13b17:	74 16                	je     13b2f <main+0xec2>
   13b19:	8b 45 f0             	mov    -0x10(%rbp),%eax
   13b1c:	89 c6                	mov    %eax,%esi
   13b1e:	48 8d 3d 60 29 00 00 	lea    0x2960(%rip),%rdi        # 16485 <g_2357+0x1415>
   13b25:	b8 00 00 00 00       	mov    $0x0,%eax
   13b2a:	e8 51 55 ff ff       	callq  9080 <printf@plt>
   13b2f:	83 45 f0 01          	addl   $0x1,-0x10(%rbp)
   13b33:	83 7d f0 02          	cmpl   $0x2,-0x10(%rbp)
   13b37:	7e af                	jle    13ae8 <main+0xe7b>
   13b39:	8b 05 05 6b 00 00    	mov    0x6b05(%rip),%eax        # 1a644 <g_2280>
   13b3f:	48 98                	cltq   
   13b41:	8b 55 fc             	mov    -0x4(%rbp),%edx
   13b44:	48 8d 35 27 2c 00 00 	lea    0x2c27(%rip),%rsi        # 16772 <g_2357+0x1702>
   13b4b:	48 89 c7             	mov    %rax,%rdi
   13b4e:	e8 a0 6b ff ff       	callq  a6f3 <transparent_crc>
   13b53:	c7 45 f0 00 00 00 00 	movl   $0x0,-0x10(%rbp)
   13b5a:	e9 af 00 00 00       	jmpq   13c0e <main+0xfa1>
   13b5f:	c7 45 f4 00 00 00 00 	movl   $0x0,-0xc(%rbp)
   13b66:	e9 95 00 00 00       	jmpq   13c00 <main+0xf93>
   13b6b:	c7 45 f8 00 00 00 00 	movl   $0x0,-0x8(%rbp)
   13b72:	eb 7e                	jmp    13bf2 <main+0xf85>
   13b74:	8b 45 f8             	mov    -0x8(%rbp),%eax
   13b77:	48 63 f0             	movslq %eax,%rsi
   13b7a:	8b 45 f0             	mov    -0x10(%rbp),%eax
   13b7d:	48 63 d0             	movslq %eax,%rdx
   13b80:	8b 45 f4             	mov    -0xc(%rbp),%eax
   13b83:	48 63 c8             	movslq %eax,%rcx
   13b86:	48 89 d0             	mov    %rdx,%rax
   13b89:	48 01 c0             	add    %rax,%rax
   13b8c:	48 01 d0             	add    %rdx,%rax
   13b8f:	48 c1 e0 04          	shl    $0x4,%rax
   13b93:	48 01 d0             	add    %rdx,%rax
   13b96:	48 89 ca             	mov    %rcx,%rdx
   13b99:	48 c1 e2 03          	shl    $0x3,%rdx
   13b9d:	48 29 ca             	sub    %rcx,%rdx
   13ba0:	48 01 d0             	add    %rdx,%rax
   13ba3:	48 01 f0             	add    %rsi,%rax
   13ba6:	48 8d 14 85 00 00 00 	lea    0x0(,%rax,4),%rdx
   13bad:	00 
   13bae:	48 8d 05 ab 6a 00 00 	lea    0x6aab(%rip),%rax        # 1a660 <g_2303>
   13bb5:	8b 04 02             	mov    (%rdx,%rax,1),%eax
   13bb8:	48 98                	cltq   
   13bba:	8b 55 fc             	mov    -0x4(%rbp),%edx
   13bbd:	48 8d 35 b5 2b 00 00 	lea    0x2bb5(%rip),%rsi        # 16779 <g_2357+0x1709>
   13bc4:	48 89 c7             	mov    %rax,%rdi
   13bc7:	e8 27 6b ff ff       	callq  a6f3 <transparent_crc>
   13bcc:	83 7d fc 00          	cmpl   $0x0,-0x4(%rbp)
   13bd0:	74 1c                	je     13bee <main+0xf81>
   13bd2:	8b 4d f8             	mov    -0x8(%rbp),%ecx
   13bd5:	8b 55 f4             	mov    -0xc(%rbp),%edx
   13bd8:	8b 45 f0             	mov    -0x10(%rbp),%eax
   13bdb:	89 c6                	mov    %eax,%esi
   13bdd:	48 8d 3d 18 29 00 00 	lea    0x2918(%rip),%rdi        # 164fc <g_2357+0x148c>
   13be4:	b8 00 00 00 00       	mov    $0x0,%eax
   13be9:	e8 92 54 ff ff       	callq  9080 <printf@plt>
   13bee:	83 45 f8 01          	addl   $0x1,-0x8(%rbp)
   13bf2:	83 7d f8 06          	cmpl   $0x6,-0x8(%rbp)
   13bf6:	0f 8e 78 ff ff ff    	jle    13b74 <main+0xf07>
   13bfc:	83 45 f4 01          	addl   $0x1,-0xc(%rbp)
   13c00:	83 7d f4 06          	cmpl   $0x6,-0xc(%rbp)
   13c04:	0f 8e 61 ff ff ff    	jle    13b6b <main+0xefe>
   13c0a:	83 45 f0 01          	addl   $0x1,-0x10(%rbp)
   13c0e:	83 7d f0 00          	cmpl   $0x0,-0x10(%rbp)
   13c12:	0f 8e 47 ff ff ff    	jle    13b5f <main+0xef2>
   13c18:	48 b9 d6 5b 23 3e f3 	movabs $0x151060f33e235bd6,%rcx
   13c1f:	60 10 15 
   13c22:	8b 45 fc             	mov    -0x4(%rbp),%eax
   13c25:	89 c2                	mov    %eax,%edx
   13c27:	48 8d 35 5e 2b 00 00 	lea    0x2b5e(%rip),%rsi        # 1678c <g_2357+0x171c>
   13c2e:	48 89 cf             	mov    %rcx,%rdi
   13c31:	e8 bd 6a ff ff       	callq  a6f3 <transparent_crc>
   13c36:	48 8b 05 eb 6a 00 00 	mov    0x6aeb(%rip),%rax        # 1a728 <g_2366>
   13c3d:	8b 55 fc             	mov    -0x4(%rbp),%edx
   13c40:	48 8d 35 4c 2b 00 00 	lea    0x2b4c(%rip),%rsi        # 16793 <g_2357+0x1723>
   13c47:	48 89 c7             	mov    %rax,%rdi
   13c4a:	e8 a4 6a ff ff       	callq  a6f3 <transparent_crc>
   13c4f:	c7 45 f0 00 00 00 00 	movl   $0x0,-0x10(%rbp)
   13c56:	e9 45 01 00 00       	jmpq   13da0 <main+0x1133>
   13c5b:	c7 45 f4 00 00 00 00 	movl   $0x0,-0xc(%rbp)
   13c62:	e9 2b 01 00 00       	jmpq   13d92 <main+0x1125>
   13c67:	c7 45 f8 00 00 00 00 	movl   $0x0,-0x8(%rbp)
   13c6e:	e9 11 01 00 00       	jmpq   13d84 <main+0x1117>
   13c73:	8b 45 f8             	mov    -0x8(%rbp),%eax
   13c76:	48 63 c8             	movslq %eax,%rcx
   13c79:	8b 45 f0             	mov    -0x10(%rbp),%eax
   13c7c:	48 63 d0             	movslq %eax,%rdx
   13c7f:	8b 45 f4             	mov    -0xc(%rbp),%eax
   13c82:	48 63 f0             	movslq %eax,%rsi
   13c85:	48 89 d0             	mov    %rdx,%rax
   13c88:	48 c1 e0 03          	shl    $0x3,%rax
   13c8c:	48 29 d0             	sub    %rdx,%rax
   13c8f:	48 01 f0             	add    %rsi,%rax
   13c92:	48 c1 e0 02          	shl    $0x2,%rax
   13c96:	48 01 c8             	add    %rcx,%rax
   13c99:	48 8d 14 c5 00 00 00 	lea    0x0(,%rax,8),%rdx
   13ca0:	00 
   13ca1:	48 8d 05 98 6a 00 00 	lea    0x6a98(%rip),%rax        # 1a740 <g_2518>
   13ca8:	0f b7 04 02          	movzwl (%rdx,%rax,1),%eax
   13cac:	0f b7 c0             	movzwl %ax,%eax
   13caf:	8b 55 fc             	mov    -0x4(%rbp),%edx
   13cb2:	48 8d 35 e1 2a 00 00 	lea    0x2ae1(%rip),%rsi        # 1679a <g_2357+0x172a>
   13cb9:	48 89 c7             	mov    %rax,%rdi
   13cbc:	e8 32 6a ff ff       	callq  a6f3 <transparent_crc>
   13cc1:	8b 45 f8             	mov    -0x8(%rbp),%eax
   13cc4:	48 63 c8             	movslq %eax,%rcx
   13cc7:	8b 45 f0             	mov    -0x10(%rbp),%eax
   13cca:	48 63 d0             	movslq %eax,%rdx
   13ccd:	8b 45 f4             	mov    -0xc(%rbp),%eax
   13cd0:	48 63 f0             	movslq %eax,%rsi
   13cd3:	48 89 d0             	mov    %rdx,%rax
   13cd6:	48 c1 e0 03          	shl    $0x3,%rax
   13cda:	48 29 d0             	sub    %rdx,%rax
   13cdd:	48 01 f0             	add    %rsi,%rax
   13ce0:	48 c1 e0 02          	shl    $0x2,%rax
   13ce4:	48 01 c8             	add    %rcx,%rax
   13ce7:	48 8d 14 c5 00 00 00 	lea    0x0(,%rax,8),%rdx
   13cee:	00 
   13cef:	48 8d 05 4a 6a 00 00 	lea    0x6a4a(%rip),%rax        # 1a740 <g_2518>
   13cf6:	0f b6 04 02          	movzbl (%rdx,%rax,1),%eax
   13cfa:	0f b6 c0             	movzbl %al,%eax
   13cfd:	8b 55 fc             	mov    -0x4(%rbp),%edx
   13d00:	48 8d 35 a6 2a 00 00 	lea    0x2aa6(%rip),%rsi        # 167ad <g_2357+0x173d>
   13d07:	48 89 c7             	mov    %rax,%rdi
   13d0a:	e8 e4 69 ff ff       	callq  a6f3 <transparent_crc>
   13d0f:	8b 45 f8             	mov    -0x8(%rbp),%eax
   13d12:	48 63 c8             	movslq %eax,%rcx
   13d15:	8b 45 f0             	mov    -0x10(%rbp),%eax
   13d18:	48 63 d0             	movslq %eax,%rdx
   13d1b:	8b 45 f4             	mov    -0xc(%rbp),%eax
   13d1e:	48 63 f0             	movslq %eax,%rsi
   13d21:	48 89 d0             	mov    %rdx,%rax
   13d24:	48 c1 e0 03          	shl    $0x3,%rax
   13d28:	48 29 d0             	sub    %rdx,%rax
   13d2b:	48 01 f0             	add    %rsi,%rax
   13d2e:	48 c1 e0 02          	shl    $0x2,%rax
   13d32:	48 01 c8             	add    %rcx,%rax
   13d35:	48 8d 14 c5 00 00 00 	lea    0x0(,%rax,8),%rdx
   13d3c:	00 
   13d3d:	48 8d 05 fc 69 00 00 	lea    0x69fc(%rip),%rax        # 1a740 <g_2518>
   13d44:	0f b7 04 02          	movzwl (%rdx,%rax,1),%eax
   13d48:	48 0f bf c0          	movswq %ax,%rax
   13d4c:	8b 55 fc             	mov    -0x4(%rbp),%edx
   13d4f:	48 8d 35 6a 2a 00 00 	lea    0x2a6a(%rip),%rsi        # 167c0 <g_2357+0x1750>
   13d56:	48 89 c7             	mov    %rax,%rdi
   13d59:	e8 95 69 ff ff       	callq  a6f3 <transparent_crc>
   13d5e:	83 7d fc 00          	cmpl   $0x0,-0x4(%rbp)
   13d62:	74 1c                	je     13d80 <main+0x1113>
   13d64:	8b 4d f8             	mov    -0x8(%rbp),%ecx
   13d67:	8b 55 f4             	mov    -0xc(%rbp),%edx
   13d6a:	8b 45 f0             	mov    -0x10(%rbp),%eax
   13d6d:	89 c6                	mov    %eax,%esi
   13d6f:	48 8d 3d 86 27 00 00 	lea    0x2786(%rip),%rdi        # 164fc <g_2357+0x148c>
   13d76:	b8 00 00 00 00       	mov    $0x0,%eax
   13d7b:	e8 00 53 ff ff       	callq  9080 <printf@plt>
   13d80:	83 45 f8 01          	addl   $0x1,-0x8(%rbp)
   13d84:	83 7d f8 03          	cmpl   $0x3,-0x8(%rbp)
   13d88:	0f 8e e5 fe ff ff    	jle    13c73 <main+0x1006>
   13d8e:	83 45 f4 01          	addl   $0x1,-0xc(%rbp)
   13d92:	83 7d f4 06          	cmpl   $0x6,-0xc(%rbp)
   13d96:	0f 8e cb fe ff ff    	jle    13c67 <main+0xffa>
   13d9c:	83 45 f0 01          	addl   $0x1,-0x10(%rbp)
   13da0:	83 7d f0 03          	cmpl   $0x3,-0x10(%rbp)
   13da4:	0f 8e b1 fe ff ff    	jle    13c5b <main+0xfee>
   13daa:	0f b7 05 0f 6d 00 00 	movzwl 0x6d0f(%rip),%eax        # 1aac0 <g_2521>
   13db1:	0f b7 c0             	movzwl %ax,%eax
   13db4:	8b 55 fc             	mov    -0x4(%rbp),%edx
   13db7:	48 8d 35 15 2a 00 00 	lea    0x2a15(%rip),%rsi        # 167d3 <g_2357+0x1763>
   13dbe:	48 89 c7             	mov    %rax,%rdi
   13dc1:	e8 2d 69 ff ff       	callq  a6f3 <transparent_crc>
   13dc6:	0f b6 05 f3 6c 00 00 	movzbl 0x6cf3(%rip),%eax        # 1aac0 <g_2521>
   13dcd:	0f b6 c0             	movzbl %al,%eax
   13dd0:	8b 55 fc             	mov    -0x4(%rbp),%edx
   13dd3:	48 8d 35 03 2a 00 00 	lea    0x2a03(%rip),%rsi        # 167dd <g_2357+0x176d>
   13dda:	48 89 c7             	mov    %rax,%rdi
   13ddd:	e8 11 69 ff ff       	callq  a6f3 <transparent_crc>
   13de2:	0f b7 05 d7 6c 00 00 	movzwl 0x6cd7(%rip),%eax        # 1aac0 <g_2521>
   13de9:	48 0f bf c0          	movswq %ax,%rax
   13ded:	8b 55 fc             	mov    -0x4(%rbp),%edx
   13df0:	48 8d 35 f0 29 00 00 	lea    0x29f0(%rip),%rsi        # 167e7 <g_2357+0x1777>
   13df7:	48 89 c7             	mov    %rax,%rdi
   13dfa:	e8 f4 68 ff ff       	callq  a6f3 <transparent_crc>
   13dff:	0f b7 05 c2 6c 00 00 	movzwl 0x6cc2(%rip),%eax        # 1aac8 <g_2575>
   13e06:	0f b7 c0             	movzwl %ax,%eax
   13e09:	8b 55 fc             	mov    -0x4(%rbp),%edx
   13e0c:	48 8d 35 de 29 00 00 	lea    0x29de(%rip),%rsi        # 167f1 <g_2357+0x1781>
   13e13:	48 89 c7             	mov    %rax,%rdi
   13e16:	e8 d8 68 ff ff       	callq  a6f3 <transparent_crc>
   13e1b:	0f b6 05 a6 6c 00 00 	movzbl 0x6ca6(%rip),%eax        # 1aac8 <g_2575>
   13e22:	0f b6 c0             	movzbl %al,%eax
   13e25:	8b 55 fc             	mov    -0x4(%rbp),%edx
   13e28:	48 8d 35 cc 29 00 00 	lea    0x29cc(%rip),%rsi        # 167fb <g_2357+0x178b>
   13e2f:	48 89 c7             	mov    %rax,%rdi
   13e32:	e8 bc 68 ff ff       	callq  a6f3 <transparent_crc>
   13e37:	0f b7 05 8a 6c 00 00 	movzwl 0x6c8a(%rip),%eax        # 1aac8 <g_2575>
   13e3e:	48 0f bf c0          	movswq %ax,%rax
   13e42:	8b 55 fc             	mov    -0x4(%rbp),%edx
   13e45:	48 8d 35 b9 29 00 00 	lea    0x29b9(%rip),%rsi        # 16805 <g_2357+0x1795>
   13e4c:	48 89 c7             	mov    %rax,%rdi
   13e4f:	e8 9f 68 ff ff       	callq  a6f3 <transparent_crc>
   13e54:	0f b7 05 b5 a8 00 00 	movzwl 0xa8b5(%rip),%eax        # 1e710 <g_2591>
   13e5b:	0f b7 c0             	movzwl %ax,%eax
   13e5e:	8b 55 fc             	mov    -0x4(%rbp),%edx
   13e61:	48 8d 35 a7 29 00 00 	lea    0x29a7(%rip),%rsi        # 1680f <g_2357+0x179f>
   13e68:	48 89 c7             	mov    %rax,%rdi
   13e6b:	e8 83 68 ff ff       	callq  a6f3 <transparent_crc>
   13e70:	0f b6 05 99 a8 00 00 	movzbl 0xa899(%rip),%eax        # 1e710 <g_2591>
   13e77:	0f b6 c0             	movzbl %al,%eax
   13e7a:	8b 55 fc             	mov    -0x4(%rbp),%edx
   13e7d:	48 8d 35 95 29 00 00 	lea    0x2995(%rip),%rsi        # 16819 <g_2357+0x17a9>
   13e84:	48 89 c7             	mov    %rax,%rdi
   13e87:	e8 67 68 ff ff       	callq  a6f3 <transparent_crc>
   13e8c:	0f b7 05 7d a8 00 00 	movzwl 0xa87d(%rip),%eax        # 1e710 <g_2591>
   13e93:	48 0f bf c0          	movswq %ax,%rax
   13e97:	8b 55 fc             	mov    -0x4(%rbp),%edx
   13e9a:	48 8d 35 82 29 00 00 	lea    0x2982(%rip),%rsi        # 16823 <g_2357+0x17b3>
   13ea1:	48 89 c7             	mov    %rax,%rdi
   13ea4:	e8 4a 68 ff ff       	callq  a6f3 <transparent_crc>
   13ea9:	8b 05 21 6c 00 00    	mov    0x6c21(%rip),%eax        # 1aad0 <g_2594>
   13eaf:	48 98                	cltq   
   13eb1:	8b 55 fc             	mov    -0x4(%rbp),%edx
   13eb4:	48 8d 35 72 29 00 00 	lea    0x2972(%rip),%rsi        # 1682d <g_2357+0x17bd>
   13ebb:	48 89 c7             	mov    %rax,%rdi
   13ebe:	e8 30 68 ff ff       	callq  a6f3 <transparent_crc>
   13ec3:	8b 05 0b 6c 00 00    	mov    0x6c0b(%rip),%eax        # 1aad4 <g_2637>
   13ec9:	89 c1                	mov    %eax,%ecx
   13ecb:	8b 45 fc             	mov    -0x4(%rbp),%eax
   13ece:	89 c2                	mov    %eax,%edx
   13ed0:	48 8d 35 60 29 00 00 	lea    0x2960(%rip),%rsi        # 16837 <g_2357+0x17c7>
   13ed7:	48 89 cf             	mov    %rcx,%rdi
   13eda:	e8 14 68 ff ff       	callq  a6f3 <transparent_crc>
   13edf:	c7 45 f0 00 00 00 00 	movl   $0x0,-0x10(%rbp)
   13ee6:	eb 45                	jmp    13f2d <main+0x12c0>
   13ee8:	8b 45 f0             	mov    -0x10(%rbp),%eax
   13eeb:	48 98                	cltq   
   13eed:	48 8d 15 e4 6b 00 00 	lea    0x6be4(%rip),%rdx        # 1aad8 <g_2665>
   13ef4:	0f b6 04 10          	movzbl (%rax,%rdx,1),%eax
   13ef8:	0f b6 c0             	movzbl %al,%eax
   13efb:	8b 55 fc             	mov    -0x4(%rbp),%edx
   13efe:	48 8d 35 39 29 00 00 	lea    0x2939(%rip),%rsi        # 1683e <g_2357+0x17ce>
   13f05:	48 89 c7             	mov    %rax,%rdi
   13f08:	e8 e6 67 ff ff       	callq  a6f3 <transparent_crc>
   13f0d:	83 7d fc 00          	cmpl   $0x0,-0x4(%rbp)
   13f11:	74 16                	je     13f29 <main+0x12bc>
   13f13:	8b 45 f0             	mov    -0x10(%rbp),%eax
   13f16:	89 c6                	mov    %eax,%esi
   13f18:	48 8d 3d 66 25 00 00 	lea    0x2566(%rip),%rdi        # 16485 <g_2357+0x1415>
   13f1f:	b8 00 00 00 00       	mov    $0x0,%eax
   13f24:	e8 57 51 ff ff       	callq  9080 <printf@plt>
   13f29:	83 45 f0 01          	addl   $0x1,-0x10(%rbp)
   13f2d:	83 7d f0 03          	cmpl   $0x3,-0x10(%rbp)
   13f31:	7e b5                	jle    13ee8 <main+0x127b>
   13f33:	0f b7 05 a6 6b 00 00 	movzwl 0x6ba6(%rip),%eax        # 1aae0 <g_2675>
   13f3a:	0f b7 c0             	movzwl %ax,%eax
   13f3d:	8b 55 fc             	mov    -0x4(%rbp),%edx
   13f40:	48 8d 35 01 29 00 00 	lea    0x2901(%rip),%rsi        # 16848 <g_2357+0x17d8>
   13f47:	48 89 c7             	mov    %rax,%rdi
   13f4a:	e8 a4 67 ff ff       	callq  a6f3 <transparent_crc>
   13f4f:	0f b6 05 8a 6b 00 00 	movzbl 0x6b8a(%rip),%eax        # 1aae0 <g_2675>
   13f56:	0f b6 c0             	movzbl %al,%eax
   13f59:	8b 55 fc             	mov    -0x4(%rbp),%edx
   13f5c:	48 8d 35 ef 28 00 00 	lea    0x28ef(%rip),%rsi        # 16852 <g_2357+0x17e2>
   13f63:	48 89 c7             	mov    %rax,%rdi
   13f66:	e8 88 67 ff ff       	callq  a6f3 <transparent_crc>
   13f6b:	0f b7 05 6e 6b 00 00 	movzwl 0x6b6e(%rip),%eax        # 1aae0 <g_2675>
   13f72:	48 0f bf c0          	movswq %ax,%rax
   13f76:	8b 55 fc             	mov    -0x4(%rbp),%edx
   13f79:	48 8d 35 dc 28 00 00 	lea    0x28dc(%rip),%rsi        # 1685c <g_2357+0x17ec>
   13f80:	48 89 c7             	mov    %rax,%rdi
   13f83:	e8 6b 67 ff ff       	callq  a6f3 <transparent_crc>
   13f88:	8b 05 5a 6b 00 00    	mov    0x6b5a(%rip),%eax        # 1aae8 <g_2691>
   13f8e:	48 98                	cltq   
   13f90:	8b 55 fc             	mov    -0x4(%rbp),%edx
   13f93:	48 8d 35 cc 28 00 00 	lea    0x28cc(%rip),%rsi        # 16866 <g_2357+0x17f6>
   13f9a:	48 89 c7             	mov    %rax,%rdi
   13f9d:	e8 51 67 ff ff       	callq  a6f3 <transparent_crc>
   13fa2:	48 8b 05 47 6b 00 00 	mov    0x6b47(%rip),%rax        # 1aaf0 <g_2744>
   13fa9:	8b 55 fc             	mov    -0x4(%rbp),%edx
   13fac:	48 8d 35 bd 28 00 00 	lea    0x28bd(%rip),%rsi        # 16870 <g_2357+0x1800>
   13fb3:	48 89 c7             	mov    %rax,%rdi
   13fb6:	e8 38 67 ff ff       	callq  a6f3 <transparent_crc>
   13fbb:	0f b7 05 36 6b 00 00 	movzwl 0x6b36(%rip),%eax        # 1aaf8 <g_2772>
   13fc2:	0f b7 c0             	movzwl %ax,%eax
   13fc5:	8b 55 fc             	mov    -0x4(%rbp),%edx
   13fc8:	48 8d 35 a8 28 00 00 	lea    0x28a8(%rip),%rsi        # 16877 <g_2357+0x1807>
   13fcf:	48 89 c7             	mov    %rax,%rdi
   13fd2:	e8 1c 67 ff ff       	callq  a6f3 <transparent_crc>
   13fd7:	0f b6 05 1a 6b 00 00 	movzbl 0x6b1a(%rip),%eax        # 1aaf8 <g_2772>
   13fde:	0f b6 c0             	movzbl %al,%eax
   13fe1:	8b 55 fc             	mov    -0x4(%rbp),%edx
   13fe4:	48 8d 35 96 28 00 00 	lea    0x2896(%rip),%rsi        # 16881 <g_2357+0x1811>
   13feb:	48 89 c7             	mov    %rax,%rdi
   13fee:	e8 00 67 ff ff       	callq  a6f3 <transparent_crc>
   13ff3:	0f b7 05 fe 6a 00 00 	movzwl 0x6afe(%rip),%eax        # 1aaf8 <g_2772>
   13ffa:	48 0f bf c0          	movswq %ax,%rax
   13ffe:	8b 55 fc             	mov    -0x4(%rbp),%edx
   14001:	48 8d 35 83 28 00 00 	lea    0x2883(%rip),%rsi        # 1688b <g_2357+0x181b>
   14008:	48 89 c7             	mov    %rax,%rdi
   1400b:	e8 e3 66 ff ff       	callq  a6f3 <transparent_crc>
   14010:	0f b7 05 e9 6a 00 00 	movzwl 0x6ae9(%rip),%eax        # 1ab00 <g_2823>
   14017:	0f b7 c0             	movzwl %ax,%eax
   1401a:	8b 55 fc             	mov    -0x4(%rbp),%edx
   1401d:	48 8d 35 71 28 00 00 	lea    0x2871(%rip),%rsi        # 16895 <g_2357+0x1825>
   14024:	48 89 c7             	mov    %rax,%rdi
   14027:	e8 c7 66 ff ff       	callq  a6f3 <transparent_crc>
   1402c:	0f b6 05 cd 6a 00 00 	movzbl 0x6acd(%rip),%eax        # 1ab00 <g_2823>
   14033:	0f b6 c0             	movzbl %al,%eax
   14036:	8b 55 fc             	mov    -0x4(%rbp),%edx
   14039:	48 8d 35 5f 28 00 00 	lea    0x285f(%rip),%rsi        # 1689f <g_2357+0x182f>
   14040:	48 89 c7             	mov    %rax,%rdi
   14043:	e8 ab 66 ff ff       	callq  a6f3 <transparent_crc>
   14048:	0f b7 05 b1 6a 00 00 	movzwl 0x6ab1(%rip),%eax        # 1ab00 <g_2823>
   1404f:	48 0f bf c0          	movswq %ax,%rax
   14053:	8b 55 fc             	mov    -0x4(%rbp),%edx
   14056:	48 8d 35 4c 28 00 00 	lea    0x284c(%rip),%rsi        # 168a9 <g_2357+0x1839>
   1405d:	48 89 c7             	mov    %rax,%rdi
   14060:	e8 8e 66 ff ff       	callq  a6f3 <transparent_crc>
   14065:	48 8b 05 9c 6a 00 00 	mov    0x6a9c(%rip),%rax        # 1ab08 <g_2854>
   1406c:	48 89 c1             	mov    %rax,%rcx
   1406f:	8b 45 fc             	mov    -0x4(%rbp),%eax
   14072:	89 c2                	mov    %eax,%edx
   14074:	48 8d 35 38 28 00 00 	lea    0x2838(%rip),%rsi        # 168b3 <g_2357+0x1843>
   1407b:	48 89 cf             	mov    %rcx,%rdi
   1407e:	e8 70 66 ff ff       	callq  a6f3 <transparent_crc>
   14083:	c7 45 f0 00 00 00 00 	movl   $0x0,-0x10(%rbp)
   1408a:	e9 e9 00 00 00       	jmpq   14178 <main+0x150b>
   1408f:	c7 45 f4 00 00 00 00 	movl   $0x0,-0xc(%rbp)
   14096:	e9 cf 00 00 00       	jmpq   1416a <main+0x14fd>
   1409b:	8b 45 f4             	mov    -0xc(%rbp),%eax
   1409e:	48 98                	cltq   
   140a0:	8b 55 f0             	mov    -0x10(%rbp),%edx
   140a3:	48 63 d2             	movslq %edx,%rdx
   140a6:	48 01 d2             	add    %rdx,%rdx
   140a9:	48 01 d0             	add    %rdx,%rax
   140ac:	48 8d 14 c5 00 00 00 	lea    0x0(,%rax,8),%rdx
   140b3:	00 
   140b4:	48 8d 05 65 6a 00 00 	lea    0x6a65(%rip),%rax        # 1ab20 <g_2882>
   140bb:	0f b7 04 02          	movzwl (%rdx,%rax,1),%eax
   140bf:	0f b7 c0             	movzwl %ax,%eax
   140c2:	8b 55 fc             	mov    -0x4(%rbp),%edx
   140c5:	48 8d 35 ee 27 00 00 	lea    0x27ee(%rip),%rsi        # 168ba <g_2357+0x184a>
   140cc:	48 89 c7             	mov    %rax,%rdi
   140cf:	e8 1f 66 ff ff       	callq  a6f3 <transparent_crc>
   140d4:	8b 45 f4             	mov    -0xc(%rbp),%eax
   140d7:	48 98                	cltq   
   140d9:	8b 55 f0             	mov    -0x10(%rbp),%edx
   140dc:	48 63 d2             	movslq %edx,%rdx
   140df:	48 01 d2             	add    %rdx,%rdx
   140e2:	48 01 d0             	add    %rdx,%rax
   140e5:	48 8d 14 c5 00 00 00 	lea    0x0(,%rax,8),%rdx
   140ec:	00 
   140ed:	48 8d 05 2c 6a 00 00 	lea    0x6a2c(%rip),%rax        # 1ab20 <g_2882>
   140f4:	0f b6 04 02          	movzbl (%rdx,%rax,1),%eax
   140f8:	0f b6 c0             	movzbl %al,%eax
   140fb:	8b 55 fc             	mov    -0x4(%rbp),%edx
   140fe:	48 8d 35 c5 27 00 00 	lea    0x27c5(%rip),%rsi        # 168ca <g_2357+0x185a>
   14105:	48 89 c7             	mov    %rax,%rdi
   14108:	e8 e6 65 ff ff       	callq  a6f3 <transparent_crc>
   1410d:	8b 45 f4             	mov    -0xc(%rbp),%eax
   14110:	48 98                	cltq   
   14112:	8b 55 f0             	mov    -0x10(%rbp),%edx
   14115:	48 63 d2             	movslq %edx,%rdx
   14118:	48 01 d2             	add    %rdx,%rdx
   1411b:	48 01 d0             	add    %rdx,%rax
   1411e:	48 8d 14 c5 00 00 00 	lea    0x0(,%rax,8),%rdx
   14125:	00 
   14126:	48 8d 05 f3 69 00 00 	lea    0x69f3(%rip),%rax        # 1ab20 <g_2882>
   1412d:	0f b7 04 02          	movzwl (%rdx,%rax,1),%eax
   14131:	48 0f bf c0          	movswq %ax,%rax
   14135:	8b 55 fc             	mov    -0x4(%rbp),%edx
   14138:	48 8d 35 9b 27 00 00 	lea    0x279b(%rip),%rsi        # 168da <g_2357+0x186a>
   1413f:	48 89 c7             	mov    %rax,%rdi
   14142:	e8 ac 65 ff ff       	callq  a6f3 <transparent_crc>
   14147:	83 7d fc 00          	cmpl   $0x0,-0x4(%rbp)
   1414b:	74 19                	je     14166 <main+0x14f9>
   1414d:	8b 55 f4             	mov    -0xc(%rbp),%edx
   14150:	8b 45 f0             	mov    -0x10(%rbp),%eax
   14153:	89 c6                	mov    %eax,%esi
   14155:	48 8d 3d fc 22 00 00 	lea    0x22fc(%rip),%rdi        # 16458 <g_2357+0x13e8>
   1415c:	b8 00 00 00 00       	mov    $0x0,%eax
   14161:	e8 1a 4f ff ff       	callq  9080 <printf@plt>
   14166:	83 45 f4 01          	addl   $0x1,-0xc(%rbp)
   1416a:	83 7d f4 01          	cmpl   $0x1,-0xc(%rbp)
   1416e:	0f 8e 27 ff ff ff    	jle    1409b <main+0x142e>
   14174:	83 45 f0 01          	addl   $0x1,-0x10(%rbp)
   14178:	83 7d f0 04          	cmpl   $0x4,-0x10(%rbp)
   1417c:	0f 8e 0d ff ff ff    	jle    1408f <main+0x1422>
   14182:	0f b7 05 e7 69 00 00 	movzwl 0x69e7(%rip),%eax        # 1ab70 <g_2915>
   14189:	0f b7 c0             	movzwl %ax,%eax
   1418c:	8b 55 fc             	mov    -0x4(%rbp),%edx
   1418f:	48 8d 35 54 27 00 00 	lea    0x2754(%rip),%rsi        # 168ea <g_2357+0x187a>
   14196:	48 89 c7             	mov    %rax,%rdi
   14199:	e8 55 65 ff ff       	callq  a6f3 <transparent_crc>
   1419e:	0f b6 05 cb 69 00 00 	movzbl 0x69cb(%rip),%eax        # 1ab70 <g_2915>
   141a5:	0f b6 c0             	movzbl %al,%eax
   141a8:	8b 55 fc             	mov    -0x4(%rbp),%edx
   141ab:	48 8d 35 42 27 00 00 	lea    0x2742(%rip),%rsi        # 168f4 <g_2357+0x1884>
   141b2:	48 89 c7             	mov    %rax,%rdi
   141b5:	e8 39 65 ff ff       	callq  a6f3 <transparent_crc>
   141ba:	0f b7 05 af 69 00 00 	movzwl 0x69af(%rip),%eax        # 1ab70 <g_2915>
   141c1:	48 0f bf c0          	movswq %ax,%rax
   141c5:	8b 55 fc             	mov    -0x4(%rbp),%edx
   141c8:	48 8d 35 2f 27 00 00 	lea    0x272f(%rip),%rsi        # 168fe <g_2357+0x188e>
   141cf:	48 89 c7             	mov    %rax,%rdi
   141d2:	e8 1c 65 ff ff       	callq  a6f3 <transparent_crc>
   141d7:	0f b7 05 9a 69 00 00 	movzwl 0x699a(%rip),%eax        # 1ab78 <g_2994>
   141de:	0f b7 c0             	movzwl %ax,%eax
   141e1:	8b 55 fc             	mov    -0x4(%rbp),%edx
   141e4:	48 8d 35 1d 27 00 00 	lea    0x271d(%rip),%rsi        # 16908 <g_2357+0x1898>
   141eb:	48 89 c7             	mov    %rax,%rdi
   141ee:	e8 00 65 ff ff       	callq  a6f3 <transparent_crc>
   141f3:	8b 05 83 69 00 00    	mov    0x6983(%rip),%eax        # 1ab7c <g_3010>
   141f9:	48 98                	cltq   
   141fb:	8b 55 fc             	mov    -0x4(%rbp),%edx
   141fe:	48 8d 35 0a 27 00 00 	lea    0x270a(%rip),%rsi        # 1690f <g_2357+0x189f>
   14205:	48 89 c7             	mov    %rax,%rdi
   14208:	e8 e6 64 ff ff       	callq  a6f3 <transparent_crc>
   1420d:	0f b6 05 6c 69 00 00 	movzbl 0x696c(%rip),%eax        # 1ab80 <g_3041>
   14214:	0f b6 c0             	movzbl %al,%eax
   14217:	8b 55 fc             	mov    -0x4(%rbp),%edx
   1421a:	48 8d 35 f5 26 00 00 	lea    0x26f5(%rip),%rsi        # 16916 <g_2357+0x18a6>
   14221:	48 89 c7             	mov    %rax,%rdi
   14224:	e8 ca 64 ff ff       	callq  a6f3 <transparent_crc>
   14229:	8b 05 55 69 00 00    	mov    0x6955(%rip),%eax        # 1ab84 <g_3271>
   1422f:	89 c1                	mov    %eax,%ecx
   14231:	8b 45 fc             	mov    -0x4(%rbp),%eax
   14234:	89 c2                	mov    %eax,%edx
   14236:	48 8d 35 e0 26 00 00 	lea    0x26e0(%rip),%rsi        # 1691d <g_2357+0x18ad>
   1423d:	48 89 cf             	mov    %rcx,%rdi
   14240:	e8 ae 64 ff ff       	callq  a6f3 <transparent_crc>
   14245:	8b 05 d5 5d 00 00    	mov    0x5dd5(%rip),%eax        # 1a020 <crc32_context>
   1424b:	f7 d0                	not    %eax
   1424d:	89 c2                	mov    %eax,%edx
   1424f:	8b 45 fc             	mov    -0x4(%rbp),%eax
   14252:	89 c6                	mov    %eax,%esi
   14254:	89 d7                	mov    %edx,%edi
   14256:	e8 39 4f ff ff       	callq  9194 <platform_main_end>
   1425b:	b8 00 00 00 00       	mov    $0x0,%eax
   14260:	c9                   	leaveq 
   14261:	c3                   	retq   
   14262:	66 2e 0f 1f 84 00 00 	nopw   %cs:0x0(%rax,%rax,1)
   14269:	00 00 00 
   1426c:	0f 1f 40 00          	nopl   0x0(%rax)

0000000000014270 <__libc_csu_init>:
   14270:	f3 0f 1e fa          	endbr64 
   14274:	41 57                	push   %r15
   14276:	4c 8d 3d 23 5b 00 00 	lea    0x5b23(%rip),%r15        # 19da0 <__frame_dummy_init_array_entry>
   1427d:	41 56                	push   %r14
   1427f:	49 89 d6             	mov    %rdx,%r14
   14282:	41 55                	push   %r13
   14284:	49 89 f5             	mov    %rsi,%r13
   14287:	41 54                	push   %r12
   14289:	41 89 fc             	mov    %edi,%r12d
   1428c:	55                   	push   %rbp
   1428d:	48 8d 2d 14 5b 00 00 	lea    0x5b14(%rip),%rbp        # 19da8 <__do_global_dtors_aux_fini_array_entry>
   14294:	53                   	push   %rbx
   14295:	4c 29 fd             	sub    %r15,%rbp
   14298:	48 83 ec 08          	sub    $0x8,%rsp
   1429c:	e8 5f 4d ff ff       	callq  9000 <_init>
   142a1:	48 c1 fd 03          	sar    $0x3,%rbp
   142a5:	74 1f                	je     142c6 <__libc_csu_init+0x56>
   142a7:	31 db                	xor    %ebx,%ebx
   142a9:	0f 1f 80 00 00 00 00 	nopl   0x0(%rax)
   142b0:	4c 89 f2             	mov    %r14,%rdx
   142b3:	4c 89 ee             	mov    %r13,%rsi
   142b6:	44 89 e7             	mov    %r12d,%edi
   142b9:	41 ff 14 df          	callq  *(%r15,%rbx,8)
   142bd:	48 83 c3 01          	add    $0x1,%rbx
   142c1:	48 39 dd             	cmp    %rbx,%rbp
   142c4:	75 ea                	jne    142b0 <__libc_csu_init+0x40>
   142c6:	48 83 c4 08          	add    $0x8,%rsp
   142ca:	5b                   	pop    %rbx
   142cb:	5d                   	pop    %rbp
   142cc:	41 5c                	pop    %r12
   142ce:	41 5d                	pop    %r13
   142d0:	41 5e                	pop    %r14
   142d2:	41 5f                	pop    %r15
   142d4:	c3                   	retq   
   142d5:	66 66 2e 0f 1f 84 00 	data16 nopw %cs:0x0(%rax,%rax,1)
   142dc:	00 00 00 00 

00000000000142e0 <__libc_csu_fini>:
   142e0:	f3 0f 1e fa          	endbr64 
   142e4:	c3                   	retq   
