


Disassembly of section .text:

00000000000090a0 <_start>:
    90a0:	f3 0f 1e fa          	endbr64 
    90a4:	31 ed                	xor    %ebp,%ebp
    90a6:	49 89 d1             	mov    %rdx,%r9
    90a9:	5e                   	pop    %rsi
    90aa:	48 89 e2             	mov    %rsp,%rdx
    90ad:	48 83 e4 f0          	and    $0xfffffffffffffff0,%rsp
    90b1:	50                   	push   %rax
    90b2:	54                   	push   %rsp
    90b3:	4c 8d 05 86 25 01 00 	lea    0x12586(%rip),%r8        # 1b640 <__libc_csu_fini>
    90ba:	48 8d 0d 0f 25 01 00 	lea    0x1250f(%rip),%rcx        # 1b5d0 <__libc_csu_init>
    90c1:	48 8d 3d 4c cd 00 00 	lea    0xcd4c(%rip),%rdi        # 15e14 <main>
    90c8:	ff 15 fa 7e 01 00    	callq  *0x17efa(%rip)        # 20fc8 <__libc_start_main@GLIBC_2.2.5>
    90ce:	f4                   	hlt    
    90cf:	90                   	nop

00000000000090d0 <deregister_tm_clones>:
    90d0:	48 8d 3d 71 fb 01 00 	lea    0x1fb71(%rip),%rdi        # 28c48 <__TMC_END__>
    90d7:	48 8d 05 6a fb 01 00 	lea    0x1fb6a(%rip),%rax        # 28c48 <__TMC_END__>
    90de:	48 39 f8             	cmp    %rdi,%rax
    90e1:	74 15                	je     90f8 <deregister_tm_clones+0x28>
    90e3:	48 8b 05 d6 7e 01 00 	mov    0x17ed6(%rip),%rax        # 20fc0 <_ITM_deregisterTMCloneTable>
    90ea:	48 85 c0             	test   %rax,%rax
    90ed:	74 09                	je     90f8 <deregister_tm_clones+0x28>
    90ef:	ff e0                	jmpq   *%rax
    90f1:	0f 1f 80 00 00 00 00 	nopl   0x0(%rax)
    90f8:	c3                   	retq   
    90f9:	0f 1f 80 00 00 00 00 	nopl   0x0(%rax)

0000000000009100 <register_tm_clones>:
    9100:	48 8d 3d 41 fb 01 00 	lea    0x1fb41(%rip),%rdi        # 28c48 <__TMC_END__>
    9107:	48 8d 35 3a fb 01 00 	lea    0x1fb3a(%rip),%rsi        # 28c48 <__TMC_END__>
    910e:	48 29 fe             	sub    %rdi,%rsi
    9111:	48 89 f0             	mov    %rsi,%rax
    9114:	48 c1 ee 3f          	shr    $0x3f,%rsi
    9118:	48 c1 f8 03          	sar    $0x3,%rax
    911c:	48 01 c6             	add    %rax,%rsi
    911f:	48 d1 fe             	sar    %rsi
    9122:	74 14                	je     9138 <register_tm_clones+0x38>
    9124:	48 8b 05 ad 7e 01 00 	mov    0x17ead(%rip),%rax        # 20fd8 <_ITM_registerTMCloneTable>
    912b:	48 85 c0             	test   %rax,%rax
    912e:	74 08                	je     9138 <register_tm_clones+0x38>
    9130:	ff e0                	jmpq   *%rax
    9132:	66 0f 1f 44 00 00    	nopw   0x0(%rax,%rax,1)
    9138:	c3                   	retq   
    9139:	0f 1f 80 00 00 00 00 	nopl   0x0(%rax)

0000000000009140 <__do_global_dtors_aux>:
    9140:	f3 0f 1e fa          	endbr64 
    9144:	80 3d 15 fb 01 00 00 	cmpb   $0x0,0x1fb15(%rip)        # 28c60 <completed.8061>
    914b:	75 2b                	jne    9178 <__do_global_dtors_aux+0x38>
    914d:	55                   	push   %rbp
    914e:	48 83 3d 8a 7e 01 00 	cmpq   $0x0,0x17e8a(%rip)        # 20fe0 <__cxa_finalize@GLIBC_2.2.5>
    9155:	00 
    9156:	48 89 e5             	mov    %rsp,%rbp
    9159:	74 0c                	je     9167 <__do_global_dtors_aux+0x27>
    915b:	48 8b 3d a6 7e 01 00 	mov    0x17ea6(%rip),%rdi        # 21008 <__dso_handle>
    9162:	e8 f9 fe ff ff       	callq  9060 <__cxa_finalize@plt>
    9167:	e8 64 ff ff ff       	callq  90d0 <deregister_tm_clones>
    916c:	c6 05 ed fa 01 00 01 	movb   $0x1,0x1faed(%rip)        # 28c60 <completed.8061>
    9173:	5d                   	pop    %rbp
    9174:	c3                   	retq   
    9175:	0f 1f 00             	nopl   (%rax)
    9178:	c3                   	retq   
    9179:	0f 1f 80 00 00 00 00 	nopl   0x0(%rax)

0000000000009180 <frame_dummy>:
    9180:	f3 0f 1e fa          	endbr64 
    9184:	e9 77 ff ff ff       	jmpq   9100 <register_tm_clones>

0000000000009189 <platform_main_begin>:
    9189:	f3 0f 1e fa          	endbr64 
    918d:	55                   	push   %rbp
    918e:	48 89 e5             	mov    %rsp,%rbp
    9191:	90                   	nop
    9192:	5d                   	pop    %rbp
    9193:	c3                   	retq   

0000000000009194 <platform_main_end>:
    9194:	f3 0f 1e fa          	endbr64 
    9198:	55                   	push   %rbp
    9199:	48 89 e5             	mov    %rsp,%rbp
    919c:	48 83 ec 10          	sub    $0x10,%rsp
    91a0:	89 7d fc             	mov    %edi,-0x4(%rbp)
    91a3:	89 75 f8             	mov    %esi,-0x8(%rbp)
    91a6:	8b 45 fc             	mov    -0x4(%rbp),%eax
    91a9:	89 c6                	mov    %eax,%esi
    91ab:	48 8d 3d 6e 2e 01 00 	lea    0x12e6e(%rip),%rdi        # 1c020 <_IO_stdin_used+0x20>
    91b2:	b8 00 00 00 00       	mov    $0x0,%eax
    91b7:	e8 c4 fe ff ff       	callq  9080 <printf@plt>
    91bc:	90                   	nop
    91bd:	c9                   	leaveq 
    91be:	c3                   	retq   

00000000000091bf <safe_unary_minus_func_int8_t_s>:
    91bf:	f3 0f 1e fa          	endbr64 
    91c3:	55                   	push   %rbp
    91c4:	48 89 e5             	mov    %rsp,%rbp
    91c7:	89 f8                	mov    %edi,%eax
    91c9:	88 45 fc             	mov    %al,-0x4(%rbp)
    91cc:	0f b6 45 fc          	movzbl -0x4(%rbp),%eax
    91d0:	f7 d8                	neg    %eax
    91d2:	5d                   	pop    %rbp
    91d3:	c3                   	retq   

00000000000091d4 <safe_add_func_int8_t_s_s>:
    91d4:	f3 0f 1e fa          	endbr64 
    91d8:	55                   	push   %rbp
    91d9:	48 89 e5             	mov    %rsp,%rbp
    91dc:	89 fa                	mov    %edi,%edx
    91de:	89 f0                	mov    %esi,%eax
    91e0:	88 55 fc             	mov    %dl,-0x4(%rbp)
    91e3:	88 45 f8             	mov    %al,-0x8(%rbp)
    91e6:	0f b6 55 fc          	movzbl -0x4(%rbp),%edx
    91ea:	0f b6 45 f8          	movzbl -0x8(%rbp),%eax
    91ee:	01 d0                	add    %edx,%eax
    91f0:	5d                   	pop    %rbp
    91f1:	c3                   	retq   

00000000000091f2 <safe_sub_func_int8_t_s_s>:
    91f2:	f3 0f 1e fa          	endbr64 
    91f6:	55                   	push   %rbp
    91f7:	48 89 e5             	mov    %rsp,%rbp
    91fa:	89 fa                	mov    %edi,%edx
    91fc:	89 f0                	mov    %esi,%eax
    91fe:	88 55 fc             	mov    %dl,-0x4(%rbp)
    9201:	88 45 f8             	mov    %al,-0x8(%rbp)
    9204:	0f b6 55 fc          	movzbl -0x4(%rbp),%edx
    9208:	0f b6 45 f8          	movzbl -0x8(%rbp),%eax
    920c:	29 c2                	sub    %eax,%edx
    920e:	89 d0                	mov    %edx,%eax
    9210:	5d                   	pop    %rbp
    9211:	c3                   	retq   

0000000000009212 <safe_mul_func_int8_t_s_s>:
    9212:	f3 0f 1e fa          	endbr64 
    9216:	55                   	push   %rbp
    9217:	48 89 e5             	mov    %rsp,%rbp
    921a:	89 fa                	mov    %edi,%edx
    921c:	89 f0                	mov    %esi,%eax
    921e:	88 55 fc             	mov    %dl,-0x4(%rbp)
    9221:	88 45 f8             	mov    %al,-0x8(%rbp)
    9224:	0f b6 45 fc          	movzbl -0x4(%rbp),%eax
    9228:	0f b6 55 f8          	movzbl -0x8(%rbp),%edx
    922c:	0f af c2             	imul   %edx,%eax
    922f:	5d                   	pop    %rbp
    9230:	c3                   	retq   

0000000000009231 <safe_mod_func_int8_t_s_s>:
    9231:	f3 0f 1e fa          	endbr64 
    9235:	55                   	push   %rbp
    9236:	48 89 e5             	mov    %rsp,%rbp
    9239:	89 fa                	mov    %edi,%edx
    923b:	89 f0                	mov    %esi,%eax
    923d:	88 55 fc             	mov    %dl,-0x4(%rbp)
    9240:	88 45 f8             	mov    %al,-0x8(%rbp)
    9243:	80 7d f8 00          	cmpb   $0x0,-0x8(%rbp)
    9247:	74 1b                	je     9264 <safe_mod_func_int8_t_s_s+0x33>
    9249:	80 7d fc 80          	cmpb   $0x80,-0x4(%rbp)
    924d:	75 06                	jne    9255 <safe_mod_func_int8_t_s_s+0x24>
    924f:	80 7d f8 ff          	cmpb   $0xff,-0x8(%rbp)
    9253:	74 0f                	je     9264 <safe_mod_func_int8_t_s_s+0x33>
    9255:	0f be 45 fc          	movsbl -0x4(%rbp),%eax
    9259:	0f be 4d f8          	movsbl -0x8(%rbp),%ecx
    925d:	99                   	cltd   
    925e:	f7 f9                	idiv   %ecx
    9260:	89 d0                	mov    %edx,%eax
    9262:	eb 04                	jmp    9268 <safe_mod_func_int8_t_s_s+0x37>
    9264:	0f b6 45 fc          	movzbl -0x4(%rbp),%eax
    9268:	5d                   	pop    %rbp
    9269:	c3                   	retq   

000000000000926a <safe_div_func_int8_t_s_s>:
    926a:	f3 0f 1e fa          	endbr64 
    926e:	55                   	push   %rbp
    926f:	48 89 e5             	mov    %rsp,%rbp
    9272:	89 fa                	mov    %edi,%edx
    9274:	89 f0                	mov    %esi,%eax
    9276:	88 55 fc             	mov    %dl,-0x4(%rbp)
    9279:	88 45 f8             	mov    %al,-0x8(%rbp)
    927c:	80 7d f8 00          	cmpb   $0x0,-0x8(%rbp)
    9280:	74 19                	je     929b <safe_div_func_int8_t_s_s+0x31>
    9282:	80 7d fc 80          	cmpb   $0x80,-0x4(%rbp)
    9286:	75 06                	jne    928e <safe_div_func_int8_t_s_s+0x24>
    9288:	80 7d f8 ff          	cmpb   $0xff,-0x8(%rbp)
    928c:	74 0d                	je     929b <safe_div_func_int8_t_s_s+0x31>
    928e:	0f be 45 fc          	movsbl -0x4(%rbp),%eax
    9292:	0f be 4d f8          	movsbl -0x8(%rbp),%ecx
    9296:	99                   	cltd   
    9297:	f7 f9                	idiv   %ecx
    9299:	eb 04                	jmp    929f <safe_div_func_int8_t_s_s+0x35>
    929b:	0f b6 45 fc          	movzbl -0x4(%rbp),%eax
    929f:	5d                   	pop    %rbp
    92a0:	c3                   	retq   

00000000000092a1 <safe_lshift_func_int8_t_s_s>:
    92a1:	f3 0f 1e fa          	endbr64 
    92a5:	55                   	push   %rbp
    92a6:	48 89 e5             	mov    %rsp,%rbp
    92a9:	89 f8                	mov    %edi,%eax
    92ab:	89 75 f8             	mov    %esi,-0x8(%rbp)
    92ae:	88 45 fc             	mov    %al,-0x4(%rbp)
    92b1:	80 7d fc 00          	cmpb   $0x0,-0x4(%rbp)
    92b5:	78 31                	js     92e8 <safe_lshift_func_int8_t_s_s+0x47>
    92b7:	83 7d f8 00          	cmpl   $0x0,-0x8(%rbp)
    92bb:	78 2b                	js     92e8 <safe_lshift_func_int8_t_s_s+0x47>
    92bd:	83 7d f8 1f          	cmpl   $0x1f,-0x8(%rbp)
    92c1:	7f 25                	jg     92e8 <safe_lshift_func_int8_t_s_s+0x47>
    92c3:	0f be 55 fc          	movsbl -0x4(%rbp),%edx
    92c7:	8b 45 f8             	mov    -0x8(%rbp),%eax
    92ca:	be 7f 00 00 00       	mov    $0x7f,%esi
    92cf:	89 c1                	mov    %eax,%ecx
    92d1:	d3 fe                	sar    %cl,%esi
    92d3:	89 f0                	mov    %esi,%eax
    92d5:	39 c2                	cmp    %eax,%edx
    92d7:	7f 0f                	jg     92e8 <safe_lshift_func_int8_t_s_s+0x47>
    92d9:	0f be 55 fc          	movsbl -0x4(%rbp),%edx
    92dd:	8b 45 f8             	mov    -0x8(%rbp),%eax
    92e0:	89 c1                	mov    %eax,%ecx
    92e2:	d3 e2                	shl    %cl,%edx
    92e4:	89 d0                	mov    %edx,%eax
    92e6:	eb 04                	jmp    92ec <safe_lshift_func_int8_t_s_s+0x4b>
    92e8:	0f b6 45 fc          	movzbl -0x4(%rbp),%eax
    92ec:	5d                   	pop    %rbp
    92ed:	c3                   	retq   

00000000000092ee <safe_lshift_func_int8_t_s_u>:
    92ee:	f3 0f 1e fa          	endbr64 
    92f2:	55                   	push   %rbp
    92f3:	48 89 e5             	mov    %rsp,%rbp
    92f6:	89 f8                	mov    %edi,%eax
    92f8:	89 75 f8             	mov    %esi,-0x8(%rbp)
    92fb:	88 45 fc             	mov    %al,-0x4(%rbp)
    92fe:	80 7d fc 00          	cmpb   $0x0,-0x4(%rbp)
    9302:	78 2b                	js     932f <safe_lshift_func_int8_t_s_u+0x41>
    9304:	83 7d f8 1f          	cmpl   $0x1f,-0x8(%rbp)
    9308:	77 25                	ja     932f <safe_lshift_func_int8_t_s_u+0x41>
    930a:	0f be 55 fc          	movsbl -0x4(%rbp),%edx
    930e:	8b 45 f8             	mov    -0x8(%rbp),%eax
    9311:	be 7f 00 00 00       	mov    $0x7f,%esi
    9316:	89 c1                	mov    %eax,%ecx
    9318:	d3 fe                	sar    %cl,%esi
    931a:	89 f0                	mov    %esi,%eax
    931c:	39 c2                	cmp    %eax,%edx
    931e:	7f 0f                	jg     932f <safe_lshift_func_int8_t_s_u+0x41>
    9320:	0f be 55 fc          	movsbl -0x4(%rbp),%edx
    9324:	8b 45 f8             	mov    -0x8(%rbp),%eax
    9327:	89 c1                	mov    %eax,%ecx
    9329:	d3 e2                	shl    %cl,%edx
    932b:	89 d0                	mov    %edx,%eax
    932d:	eb 04                	jmp    9333 <safe_lshift_func_int8_t_s_u+0x45>
    932f:	0f b6 45 fc          	movzbl -0x4(%rbp),%eax
    9333:	5d                   	pop    %rbp
    9334:	c3                   	retq   

0000000000009335 <safe_rshift_func_int8_t_s_s>:
    9335:	f3 0f 1e fa          	endbr64 
    9339:	55                   	push   %rbp
    933a:	48 89 e5             	mov    %rsp,%rbp
    933d:	89 f8                	mov    %edi,%eax
    933f:	89 75 f8             	mov    %esi,-0x8(%rbp)
    9342:	88 45 fc             	mov    %al,-0x4(%rbp)
    9345:	80 7d fc 00          	cmpb   $0x0,-0x4(%rbp)
    9349:	78 1b                	js     9366 <safe_rshift_func_int8_t_s_s+0x31>
    934b:	83 7d f8 00          	cmpl   $0x0,-0x8(%rbp)
    934f:	78 15                	js     9366 <safe_rshift_func_int8_t_s_s+0x31>
    9351:	83 7d f8 1f          	cmpl   $0x1f,-0x8(%rbp)
    9355:	7f 0f                	jg     9366 <safe_rshift_func_int8_t_s_s+0x31>
    9357:	0f be 55 fc          	movsbl -0x4(%rbp),%edx
    935b:	8b 45 f8             	mov    -0x8(%rbp),%eax
    935e:	89 c1                	mov    %eax,%ecx
    9360:	d3 fa                	sar    %cl,%edx
    9362:	89 d0                	mov    %edx,%eax
    9364:	eb 04                	jmp    936a <safe_rshift_func_int8_t_s_s+0x35>
    9366:	0f b6 45 fc          	movzbl -0x4(%rbp),%eax
    936a:	5d                   	pop    %rbp
    936b:	c3                   	retq   

000000000000936c <safe_rshift_func_int8_t_s_u>:
    936c:	f3 0f 1e fa          	endbr64 
    9370:	55                   	push   %rbp
    9371:	48 89 e5             	mov    %rsp,%rbp
    9374:	89 f8                	mov    %edi,%eax
    9376:	89 75 f8             	mov    %esi,-0x8(%rbp)
    9379:	88 45 fc             	mov    %al,-0x4(%rbp)
    937c:	80 7d fc 00          	cmpb   $0x0,-0x4(%rbp)
    9380:	78 15                	js     9397 <safe_rshift_func_int8_t_s_u+0x2b>
    9382:	83 7d f8 1f          	cmpl   $0x1f,-0x8(%rbp)
    9386:	77 0f                	ja     9397 <safe_rshift_func_int8_t_s_u+0x2b>
    9388:	0f be 55 fc          	movsbl -0x4(%rbp),%edx
    938c:	8b 45 f8             	mov    -0x8(%rbp),%eax
    938f:	89 c1                	mov    %eax,%ecx
    9391:	d3 fa                	sar    %cl,%edx
    9393:	89 d0                	mov    %edx,%eax
    9395:	eb 04                	jmp    939b <safe_rshift_func_int8_t_s_u+0x2f>
    9397:	0f b6 45 fc          	movzbl -0x4(%rbp),%eax
    939b:	5d                   	pop    %rbp
    939c:	c3                   	retq   

000000000000939d <safe_unary_minus_func_int16_t_s>:
    939d:	f3 0f 1e fa          	endbr64 
    93a1:	55                   	push   %rbp
    93a2:	48 89 e5             	mov    %rsp,%rbp
    93a5:	89 f8                	mov    %edi,%eax
    93a7:	66 89 45 fc          	mov    %ax,-0x4(%rbp)
    93ab:	0f b7 45 fc          	movzwl -0x4(%rbp),%eax
    93af:	f7 d8                	neg    %eax
    93b1:	5d                   	pop    %rbp
    93b2:	c3                   	retq   

00000000000093b3 <safe_add_func_int16_t_s_s>:
    93b3:	f3 0f 1e fa          	endbr64 
    93b7:	55                   	push   %rbp
    93b8:	48 89 e5             	mov    %rsp,%rbp
    93bb:	89 fa                	mov    %edi,%edx
    93bd:	89 f0                	mov    %esi,%eax
    93bf:	66 89 55 fc          	mov    %dx,-0x4(%rbp)
    93c3:	66 89 45 f8          	mov    %ax,-0x8(%rbp)
    93c7:	0f b7 55 fc          	movzwl -0x4(%rbp),%edx
    93cb:	0f b7 45 f8          	movzwl -0x8(%rbp),%eax
    93cf:	01 d0                	add    %edx,%eax
    93d1:	5d                   	pop    %rbp
    93d2:	c3                   	retq   

00000000000093d3 <safe_sub_func_int16_t_s_s>:
    93d3:	f3 0f 1e fa          	endbr64 
    93d7:	55                   	push   %rbp
    93d8:	48 89 e5             	mov    %rsp,%rbp
    93db:	89 fa                	mov    %edi,%edx
    93dd:	89 f0                	mov    %esi,%eax
    93df:	66 89 55 fc          	mov    %dx,-0x4(%rbp)
    93e3:	66 89 45 f8          	mov    %ax,-0x8(%rbp)
    93e7:	0f b7 55 fc          	movzwl -0x4(%rbp),%edx
    93eb:	0f b7 45 f8          	movzwl -0x8(%rbp),%eax
    93ef:	29 c2                	sub    %eax,%edx
    93f1:	89 d0                	mov    %edx,%eax
    93f3:	5d                   	pop    %rbp
    93f4:	c3                   	retq   

00000000000093f5 <safe_mul_func_int16_t_s_s>:
    93f5:	f3 0f 1e fa          	endbr64 
    93f9:	55                   	push   %rbp
    93fa:	48 89 e5             	mov    %rsp,%rbp
    93fd:	89 fa                	mov    %edi,%edx
    93ff:	89 f0                	mov    %esi,%eax
    9401:	66 89 55 fc          	mov    %dx,-0x4(%rbp)
    9405:	66 89 45 f8          	mov    %ax,-0x8(%rbp)
    9409:	0f b7 55 fc          	movzwl -0x4(%rbp),%edx
    940d:	0f b7 45 f8          	movzwl -0x8(%rbp),%eax
    9411:	0f af c2             	imul   %edx,%eax
    9414:	5d                   	pop    %rbp
    9415:	c3                   	retq   

0000000000009416 <safe_mod_func_int16_t_s_s>:
    9416:	f3 0f 1e fa          	endbr64 
    941a:	55                   	push   %rbp
    941b:	48 89 e5             	mov    %rsp,%rbp
    941e:	89 fa                	mov    %edi,%edx
    9420:	89 f0                	mov    %esi,%eax
    9422:	66 89 55 fc          	mov    %dx,-0x4(%rbp)
    9426:	66 89 45 f8          	mov    %ax,-0x8(%rbp)
    942a:	66 83 7d f8 00       	cmpw   $0x0,-0x8(%rbp)
    942f:	74 1e                	je     944f <safe_mod_func_int16_t_s_s+0x39>
    9431:	66 81 7d fc 00 80    	cmpw   $0x8000,-0x4(%rbp)
    9437:	75 07                	jne    9440 <safe_mod_func_int16_t_s_s+0x2a>
    9439:	66 83 7d f8 ff       	cmpw   $0xffff,-0x8(%rbp)
    943e:	74 0f                	je     944f <safe_mod_func_int16_t_s_s+0x39>
    9440:	0f bf 45 fc          	movswl -0x4(%rbp),%eax
    9444:	0f bf 4d f8          	movswl -0x8(%rbp),%ecx
    9448:	99                   	cltd   
    9449:	f7 f9                	idiv   %ecx
    944b:	89 d0                	mov    %edx,%eax
    944d:	eb 04                	jmp    9453 <safe_mod_func_int16_t_s_s+0x3d>
    944f:	0f b7 45 fc          	movzwl -0x4(%rbp),%eax
    9453:	5d                   	pop    %rbp
    9454:	c3                   	retq   

0000000000009455 <safe_div_func_int16_t_s_s>:
    9455:	f3 0f 1e fa          	endbr64 
    9459:	55                   	push   %rbp
    945a:	48 89 e5             	mov    %rsp,%rbp
    945d:	89 fa                	mov    %edi,%edx
    945f:	89 f0                	mov    %esi,%eax
    9461:	66 89 55 fc          	mov    %dx,-0x4(%rbp)
    9465:	66 89 45 f8          	mov    %ax,-0x8(%rbp)
    9469:	66 83 7d f8 00       	cmpw   $0x0,-0x8(%rbp)
    946e:	74 1c                	je     948c <safe_div_func_int16_t_s_s+0x37>
    9470:	66 81 7d fc 00 80    	cmpw   $0x8000,-0x4(%rbp)
    9476:	75 07                	jne    947f <safe_div_func_int16_t_s_s+0x2a>
    9478:	66 83 7d f8 ff       	cmpw   $0xffff,-0x8(%rbp)
    947d:	74 0d                	je     948c <safe_div_func_int16_t_s_s+0x37>
    947f:	0f bf 45 fc          	movswl -0x4(%rbp),%eax
    9483:	0f bf 4d f8          	movswl -0x8(%rbp),%ecx
    9487:	99                   	cltd   
    9488:	f7 f9                	idiv   %ecx
    948a:	eb 04                	jmp    9490 <safe_div_func_int16_t_s_s+0x3b>
    948c:	0f b7 45 fc          	movzwl -0x4(%rbp),%eax
    9490:	5d                   	pop    %rbp
    9491:	c3                   	retq   

0000000000009492 <safe_lshift_func_int16_t_s_s>:
    9492:	f3 0f 1e fa          	endbr64 
    9496:	55                   	push   %rbp
    9497:	48 89 e5             	mov    %rsp,%rbp
    949a:	89 f8                	mov    %edi,%eax
    949c:	89 75 f8             	mov    %esi,-0x8(%rbp)
    949f:	66 89 45 fc          	mov    %ax,-0x4(%rbp)
    94a3:	66 83 7d fc 00       	cmpw   $0x0,-0x4(%rbp)
    94a8:	78 31                	js     94db <safe_lshift_func_int16_t_s_s+0x49>
    94aa:	83 7d f8 00          	cmpl   $0x0,-0x8(%rbp)
    94ae:	78 2b                	js     94db <safe_lshift_func_int16_t_s_s+0x49>
    94b0:	83 7d f8 1f          	cmpl   $0x1f,-0x8(%rbp)
    94b4:	7f 25                	jg     94db <safe_lshift_func_int16_t_s_s+0x49>
    94b6:	0f bf 55 fc          	movswl -0x4(%rbp),%edx
    94ba:	8b 45 f8             	mov    -0x8(%rbp),%eax
    94bd:	be ff 7f 00 00       	mov    $0x7fff,%esi
    94c2:	89 c1                	mov    %eax,%ecx
    94c4:	d3 fe                	sar    %cl,%esi
    94c6:	89 f0                	mov    %esi,%eax
    94c8:	39 c2                	cmp    %eax,%edx
    94ca:	7f 0f                	jg     94db <safe_lshift_func_int16_t_s_s+0x49>
    94cc:	0f bf 55 fc          	movswl -0x4(%rbp),%edx
    94d0:	8b 45 f8             	mov    -0x8(%rbp),%eax
    94d3:	89 c1                	mov    %eax,%ecx
    94d5:	d3 e2                	shl    %cl,%edx
    94d7:	89 d0                	mov    %edx,%eax
    94d9:	eb 04                	jmp    94df <safe_lshift_func_int16_t_s_s+0x4d>
    94db:	0f b7 45 fc          	movzwl -0x4(%rbp),%eax
    94df:	5d                   	pop    %rbp
    94e0:	c3                   	retq   

00000000000094e1 <safe_lshift_func_int16_t_s_u>:
    94e1:	f3 0f 1e fa          	endbr64 
    94e5:	55                   	push   %rbp
    94e6:	48 89 e5             	mov    %rsp,%rbp
    94e9:	89 f8                	mov    %edi,%eax
    94eb:	89 75 f8             	mov    %esi,-0x8(%rbp)
    94ee:	66 89 45 fc          	mov    %ax,-0x4(%rbp)
    94f2:	66 83 7d fc 00       	cmpw   $0x0,-0x4(%rbp)
    94f7:	78 2b                	js     9524 <safe_lshift_func_int16_t_s_u+0x43>
    94f9:	83 7d f8 1f          	cmpl   $0x1f,-0x8(%rbp)
    94fd:	77 25                	ja     9524 <safe_lshift_func_int16_t_s_u+0x43>
    94ff:	0f bf 55 fc          	movswl -0x4(%rbp),%edx
    9503:	8b 45 f8             	mov    -0x8(%rbp),%eax
    9506:	be ff 7f 00 00       	mov    $0x7fff,%esi
    950b:	89 c1                	mov    %eax,%ecx
    950d:	d3 fe                	sar    %cl,%esi
    950f:	89 f0                	mov    %esi,%eax
    9511:	39 c2                	cmp    %eax,%edx
    9513:	7f 0f                	jg     9524 <safe_lshift_func_int16_t_s_u+0x43>
    9515:	0f bf 55 fc          	movswl -0x4(%rbp),%edx
    9519:	8b 45 f8             	mov    -0x8(%rbp),%eax
    951c:	89 c1                	mov    %eax,%ecx
    951e:	d3 e2                	shl    %cl,%edx
    9520:	89 d0                	mov    %edx,%eax
    9522:	eb 04                	jmp    9528 <safe_lshift_func_int16_t_s_u+0x47>
    9524:	0f b7 45 fc          	movzwl -0x4(%rbp),%eax
    9528:	5d                   	pop    %rbp
    9529:	c3                   	retq   

000000000000952a <safe_rshift_func_int16_t_s_s>:
    952a:	f3 0f 1e fa          	endbr64 
    952e:	55                   	push   %rbp
    952f:	48 89 e5             	mov    %rsp,%rbp
    9532:	89 f8                	mov    %edi,%eax
    9534:	89 75 f8             	mov    %esi,-0x8(%rbp)
    9537:	66 89 45 fc          	mov    %ax,-0x4(%rbp)
    953b:	66 83 7d fc 00       	cmpw   $0x0,-0x4(%rbp)
    9540:	78 1b                	js     955d <safe_rshift_func_int16_t_s_s+0x33>
    9542:	83 7d f8 00          	cmpl   $0x0,-0x8(%rbp)
    9546:	78 15                	js     955d <safe_rshift_func_int16_t_s_s+0x33>
    9548:	83 7d f8 1f          	cmpl   $0x1f,-0x8(%rbp)
    954c:	7f 0f                	jg     955d <safe_rshift_func_int16_t_s_s+0x33>
    954e:	0f bf 55 fc          	movswl -0x4(%rbp),%edx
    9552:	8b 45 f8             	mov    -0x8(%rbp),%eax
    9555:	89 c1                	mov    %eax,%ecx
    9557:	d3 fa                	sar    %cl,%edx
    9559:	89 d0                	mov    %edx,%eax
    955b:	eb 04                	jmp    9561 <safe_rshift_func_int16_t_s_s+0x37>
    955d:	0f b7 45 fc          	movzwl -0x4(%rbp),%eax
    9561:	5d                   	pop    %rbp
    9562:	c3                   	retq   

0000000000009563 <safe_rshift_func_int16_t_s_u>:
    9563:	f3 0f 1e fa          	endbr64 
    9567:	55                   	push   %rbp
    9568:	48 89 e5             	mov    %rsp,%rbp
    956b:	89 f8                	mov    %edi,%eax
    956d:	89 75 f8             	mov    %esi,-0x8(%rbp)
    9570:	66 89 45 fc          	mov    %ax,-0x4(%rbp)
    9574:	66 83 7d fc 00       	cmpw   $0x0,-0x4(%rbp)
    9579:	78 15                	js     9590 <safe_rshift_func_int16_t_s_u+0x2d>
    957b:	83 7d f8 1f          	cmpl   $0x1f,-0x8(%rbp)
    957f:	77 0f                	ja     9590 <safe_rshift_func_int16_t_s_u+0x2d>
    9581:	0f bf 55 fc          	movswl -0x4(%rbp),%edx
    9585:	8b 45 f8             	mov    -0x8(%rbp),%eax
    9588:	89 c1                	mov    %eax,%ecx
    958a:	d3 fa                	sar    %cl,%edx
    958c:	89 d0                	mov    %edx,%eax
    958e:	eb 04                	jmp    9594 <safe_rshift_func_int16_t_s_u+0x31>
    9590:	0f b7 45 fc          	movzwl -0x4(%rbp),%eax
    9594:	5d                   	pop    %rbp
    9595:	c3                   	retq   

0000000000009596 <safe_unary_minus_func_int32_t_s>:
    9596:	f3 0f 1e fa          	endbr64 
    959a:	55                   	push   %rbp
    959b:	48 89 e5             	mov    %rsp,%rbp
    959e:	89 7d fc             	mov    %edi,-0x4(%rbp)
    95a1:	81 7d fc 00 00 00 80 	cmpl   $0x80000000,-0x4(%rbp)
    95a8:	74 07                	je     95b1 <safe_unary_minus_func_int32_t_s+0x1b>
    95aa:	8b 45 fc             	mov    -0x4(%rbp),%eax
    95ad:	f7 d8                	neg    %eax
    95af:	eb 03                	jmp    95b4 <safe_unary_minus_func_int32_t_s+0x1e>
    95b1:	8b 45 fc             	mov    -0x4(%rbp),%eax
    95b4:	5d                   	pop    %rbp
    95b5:	c3                   	retq   

00000000000095b6 <safe_add_func_int32_t_s_s>:
    95b6:	f3 0f 1e fa          	endbr64 
    95ba:	55                   	push   %rbp
    95bb:	48 89 e5             	mov    %rsp,%rbp
    95be:	89 7d fc             	mov    %edi,-0x4(%rbp)
    95c1:	89 75 f8             	mov    %esi,-0x8(%rbp)
    95c4:	83 7d fc 00          	cmpl   $0x0,-0x4(%rbp)
    95c8:	7e 13                	jle    95dd <safe_add_func_int32_t_s_s+0x27>
    95ca:	83 7d f8 00          	cmpl   $0x0,-0x8(%rbp)
    95ce:	7e 0d                	jle    95dd <safe_add_func_int32_t_s_s+0x27>
    95d0:	b8 ff ff ff 7f       	mov    $0x7fffffff,%eax
    95d5:	2b 45 f8             	sub    -0x8(%rbp),%eax
    95d8:	39 45 fc             	cmp    %eax,-0x4(%rbp)
    95db:	7f 23                	jg     9600 <safe_add_func_int32_t_s_s+0x4a>
    95dd:	83 7d fc 00          	cmpl   $0x0,-0x4(%rbp)
    95e1:	79 13                	jns    95f6 <safe_add_func_int32_t_s_s+0x40>
    95e3:	83 7d f8 00          	cmpl   $0x0,-0x8(%rbp)
    95e7:	79 0d                	jns    95f6 <safe_add_func_int32_t_s_s+0x40>
    95e9:	b8 00 00 00 80       	mov    $0x80000000,%eax
    95ee:	2b 45 f8             	sub    -0x8(%rbp),%eax
    95f1:	39 45 fc             	cmp    %eax,-0x4(%rbp)
    95f4:	7c 0a                	jl     9600 <safe_add_func_int32_t_s_s+0x4a>
    95f6:	8b 55 fc             	mov    -0x4(%rbp),%edx
    95f9:	8b 45 f8             	mov    -0x8(%rbp),%eax
    95fc:	01 d0                	add    %edx,%eax
    95fe:	eb 03                	jmp    9603 <safe_add_func_int32_t_s_s+0x4d>
    9600:	8b 45 fc             	mov    -0x4(%rbp),%eax
    9603:	5d                   	pop    %rbp
    9604:	c3                   	retq   

0000000000009605 <safe_sub_func_int32_t_s_s>:
    9605:	f3 0f 1e fa          	endbr64 
    9609:	55                   	push   %rbp
    960a:	48 89 e5             	mov    %rsp,%rbp
    960d:	89 7d fc             	mov    %edi,-0x4(%rbp)
    9610:	89 75 f8             	mov    %esi,-0x8(%rbp)
    9613:	8b 45 fc             	mov    -0x4(%rbp),%eax
    9616:	33 45 f8             	xor    -0x8(%rbp),%eax
    9619:	89 c2                	mov    %eax,%edx
    961b:	8b 45 fc             	mov    -0x4(%rbp),%eax
    961e:	33 45 f8             	xor    -0x8(%rbp),%eax
    9621:	25 00 00 00 80       	and    $0x80000000,%eax
    9626:	33 45 fc             	xor    -0x4(%rbp),%eax
    9629:	2b 45 f8             	sub    -0x8(%rbp),%eax
    962c:	33 45 f8             	xor    -0x8(%rbp),%eax
    962f:	21 d0                	and    %edx,%eax
    9631:	85 c0                	test   %eax,%eax
    9633:	78 08                	js     963d <safe_sub_func_int32_t_s_s+0x38>
    9635:	8b 45 fc             	mov    -0x4(%rbp),%eax
    9638:	2b 45 f8             	sub    -0x8(%rbp),%eax
    963b:	eb 03                	jmp    9640 <safe_sub_func_int32_t_s_s+0x3b>
    963d:	8b 45 fc             	mov    -0x4(%rbp),%eax
    9640:	5d                   	pop    %rbp
    9641:	c3                   	retq   

0000000000009642 <safe_mul_func_int32_t_s_s>:
    9642:	f3 0f 1e fa          	endbr64 
    9646:	55                   	push   %rbp
    9647:	48 89 e5             	mov    %rsp,%rbp
    964a:	89 7d fc             	mov    %edi,-0x4(%rbp)
    964d:	89 75 f8             	mov    %esi,-0x8(%rbp)
    9650:	83 7d fc 00          	cmpl   $0x0,-0x4(%rbp)
    9654:	7e 14                	jle    966a <safe_mul_func_int32_t_s_s+0x28>
    9656:	83 7d f8 00          	cmpl   $0x0,-0x8(%rbp)
    965a:	7e 0e                	jle    966a <safe_mul_func_int32_t_s_s+0x28>
    965c:	b8 ff ff ff 7f       	mov    $0x7fffffff,%eax
    9661:	99                   	cltd   
    9662:	f7 7d f8             	idivl  -0x8(%rbp)
    9665:	39 45 fc             	cmp    %eax,-0x4(%rbp)
    9668:	7f 5d                	jg     96c7 <safe_mul_func_int32_t_s_s+0x85>
    966a:	83 7d fc 00          	cmpl   $0x0,-0x4(%rbp)
    966e:	7e 14                	jle    9684 <safe_mul_func_int32_t_s_s+0x42>
    9670:	83 7d f8 00          	cmpl   $0x0,-0x8(%rbp)
    9674:	7f 0e                	jg     9684 <safe_mul_func_int32_t_s_s+0x42>
    9676:	b8 00 00 00 80       	mov    $0x80000000,%eax
    967b:	99                   	cltd   
    967c:	f7 7d fc             	idivl  -0x4(%rbp)
    967f:	39 45 f8             	cmp    %eax,-0x8(%rbp)
    9682:	7c 43                	jl     96c7 <safe_mul_func_int32_t_s_s+0x85>
    9684:	83 7d fc 00          	cmpl   $0x0,-0x4(%rbp)
    9688:	7f 14                	jg     969e <safe_mul_func_int32_t_s_s+0x5c>
    968a:	83 7d f8 00          	cmpl   $0x0,-0x8(%rbp)
    968e:	7e 0e                	jle    969e <safe_mul_func_int32_t_s_s+0x5c>
    9690:	b8 00 00 00 80       	mov    $0x80000000,%eax
    9695:	99                   	cltd   
    9696:	f7 7d f8             	idivl  -0x8(%rbp)
    9699:	39 45 fc             	cmp    %eax,-0x4(%rbp)
    969c:	7c 29                	jl     96c7 <safe_mul_func_int32_t_s_s+0x85>
    969e:	83 7d fc 00          	cmpl   $0x0,-0x4(%rbp)
    96a2:	7f 1a                	jg     96be <safe_mul_func_int32_t_s_s+0x7c>
    96a4:	83 7d f8 00          	cmpl   $0x0,-0x8(%rbp)
    96a8:	7f 14                	jg     96be <safe_mul_func_int32_t_s_s+0x7c>
    96aa:	83 7d fc 00          	cmpl   $0x0,-0x4(%rbp)
    96ae:	74 0e                	je     96be <safe_mul_func_int32_t_s_s+0x7c>
    96b0:	b8 ff ff ff 7f       	mov    $0x7fffffff,%eax
    96b5:	99                   	cltd   
    96b6:	f7 7d fc             	idivl  -0x4(%rbp)
    96b9:	39 45 f8             	cmp    %eax,-0x8(%rbp)
    96bc:	7c 09                	jl     96c7 <safe_mul_func_int32_t_s_s+0x85>
    96be:	8b 45 fc             	mov    -0x4(%rbp),%eax
    96c1:	0f af 45 f8          	imul   -0x8(%rbp),%eax
    96c5:	eb 03                	jmp    96ca <safe_mul_func_int32_t_s_s+0x88>
    96c7:	8b 45 fc             	mov    -0x4(%rbp),%eax
    96ca:	5d                   	pop    %rbp
    96cb:	c3                   	retq   

00000000000096cc <safe_mod_func_int32_t_s_s>:
    96cc:	f3 0f 1e fa          	endbr64 
    96d0:	55                   	push   %rbp
    96d1:	48 89 e5             	mov    %rsp,%rbp
    96d4:	89 7d fc             	mov    %edi,-0x4(%rbp)
    96d7:	89 75 f8             	mov    %esi,-0x8(%rbp)
    96da:	83 7d f8 00          	cmpl   $0x0,-0x8(%rbp)
    96de:	74 1a                	je     96fa <safe_mod_func_int32_t_s_s+0x2e>
    96e0:	81 7d fc 00 00 00 80 	cmpl   $0x80000000,-0x4(%rbp)
    96e7:	75 06                	jne    96ef <safe_mod_func_int32_t_s_s+0x23>
    96e9:	83 7d f8 ff          	cmpl   $0xffffffff,-0x8(%rbp)
    96ed:	74 0b                	je     96fa <safe_mod_func_int32_t_s_s+0x2e>
    96ef:	8b 45 fc             	mov    -0x4(%rbp),%eax
    96f2:	99                   	cltd   
    96f3:	f7 7d f8             	idivl  -0x8(%rbp)
    96f6:	89 d0                	mov    %edx,%eax
    96f8:	eb 03                	jmp    96fd <safe_mod_func_int32_t_s_s+0x31>
    96fa:	8b 45 fc             	mov    -0x4(%rbp),%eax
    96fd:	5d                   	pop    %rbp
    96fe:	c3                   	retq   

00000000000096ff <safe_div_func_int32_t_s_s>:
    96ff:	f3 0f 1e fa          	endbr64 
    9703:	55                   	push   %rbp
    9704:	48 89 e5             	mov    %rsp,%rbp
    9707:	89 7d fc             	mov    %edi,-0x4(%rbp)
    970a:	89 75 f8             	mov    %esi,-0x8(%rbp)
    970d:	83 7d f8 00          	cmpl   $0x0,-0x8(%rbp)
    9711:	74 18                	je     972b <safe_div_func_int32_t_s_s+0x2c>
    9713:	81 7d fc 00 00 00 80 	cmpl   $0x80000000,-0x4(%rbp)
    971a:	75 06                	jne    9722 <safe_div_func_int32_t_s_s+0x23>
    971c:	83 7d f8 ff          	cmpl   $0xffffffff,-0x8(%rbp)
    9720:	74 09                	je     972b <safe_div_func_int32_t_s_s+0x2c>
    9722:	8b 45 fc             	mov    -0x4(%rbp),%eax
    9725:	99                   	cltd   
    9726:	f7 7d f8             	idivl  -0x8(%rbp)
    9729:	eb 03                	jmp    972e <safe_div_func_int32_t_s_s+0x2f>
    972b:	8b 45 fc             	mov    -0x4(%rbp),%eax
    972e:	5d                   	pop    %rbp
    972f:	c3                   	retq   

0000000000009730 <safe_lshift_func_int32_t_s_s>:
    9730:	f3 0f 1e fa          	endbr64 
    9734:	55                   	push   %rbp
    9735:	48 89 e5             	mov    %rsp,%rbp
    9738:	89 7d fc             	mov    %edi,-0x4(%rbp)
    973b:	89 75 f8             	mov    %esi,-0x8(%rbp)
    973e:	83 7d fc 00          	cmpl   $0x0,-0x4(%rbp)
    9742:	78 2d                	js     9771 <safe_lshift_func_int32_t_s_s+0x41>
    9744:	83 7d f8 00          	cmpl   $0x0,-0x8(%rbp)
    9748:	78 27                	js     9771 <safe_lshift_func_int32_t_s_s+0x41>
    974a:	83 7d f8 1f          	cmpl   $0x1f,-0x8(%rbp)
    974e:	7f 21                	jg     9771 <safe_lshift_func_int32_t_s_s+0x41>
    9750:	8b 45 f8             	mov    -0x8(%rbp),%eax
    9753:	ba ff ff ff 7f       	mov    $0x7fffffff,%edx
    9758:	89 c1                	mov    %eax,%ecx
    975a:	d3 fa                	sar    %cl,%edx
    975c:	89 d0                	mov    %edx,%eax
    975e:	39 45 fc             	cmp    %eax,-0x4(%rbp)
    9761:	7f 0e                	jg     9771 <safe_lshift_func_int32_t_s_s+0x41>
    9763:	8b 45 f8             	mov    -0x8(%rbp),%eax
    9766:	8b 55 fc             	mov    -0x4(%rbp),%edx
    9769:	89 c1                	mov    %eax,%ecx
    976b:	d3 e2                	shl    %cl,%edx
    976d:	89 d0                	mov    %edx,%eax
    976f:	eb 03                	jmp    9774 <safe_lshift_func_int32_t_s_s+0x44>
    9771:	8b 45 fc             	mov    -0x4(%rbp),%eax
    9774:	5d                   	pop    %rbp
    9775:	c3                   	retq   

0000000000009776 <safe_lshift_func_int32_t_s_u>:
    9776:	f3 0f 1e fa          	endbr64 
    977a:	55                   	push   %rbp
    977b:	48 89 e5             	mov    %rsp,%rbp
    977e:	89 7d fc             	mov    %edi,-0x4(%rbp)
    9781:	89 75 f8             	mov    %esi,-0x8(%rbp)
    9784:	83 7d fc 00          	cmpl   $0x0,-0x4(%rbp)
    9788:	78 27                	js     97b1 <safe_lshift_func_int32_t_s_u+0x3b>
    978a:	83 7d f8 1f          	cmpl   $0x1f,-0x8(%rbp)
    978e:	77 21                	ja     97b1 <safe_lshift_func_int32_t_s_u+0x3b>
    9790:	8b 45 f8             	mov    -0x8(%rbp),%eax
    9793:	ba ff ff ff 7f       	mov    $0x7fffffff,%edx
    9798:	89 c1                	mov    %eax,%ecx
    979a:	d3 fa                	sar    %cl,%edx
    979c:	89 d0                	mov    %edx,%eax
    979e:	39 45 fc             	cmp    %eax,-0x4(%rbp)
    97a1:	7f 0e                	jg     97b1 <safe_lshift_func_int32_t_s_u+0x3b>
    97a3:	8b 45 f8             	mov    -0x8(%rbp),%eax
    97a6:	8b 55 fc             	mov    -0x4(%rbp),%edx
    97a9:	89 c1                	mov    %eax,%ecx
    97ab:	d3 e2                	shl    %cl,%edx
    97ad:	89 d0                	mov    %edx,%eax
    97af:	eb 03                	jmp    97b4 <safe_lshift_func_int32_t_s_u+0x3e>
    97b1:	8b 45 fc             	mov    -0x4(%rbp),%eax
    97b4:	5d                   	pop    %rbp
    97b5:	c3                   	retq   

00000000000097b6 <safe_rshift_func_int32_t_s_s>:
    97b6:	f3 0f 1e fa          	endbr64 
    97ba:	55                   	push   %rbp
    97bb:	48 89 e5             	mov    %rsp,%rbp
    97be:	89 7d fc             	mov    %edi,-0x4(%rbp)
    97c1:	89 75 f8             	mov    %esi,-0x8(%rbp)
    97c4:	83 7d fc 00          	cmpl   $0x0,-0x4(%rbp)
    97c8:	78 1a                	js     97e4 <safe_rshift_func_int32_t_s_s+0x2e>
    97ca:	83 7d f8 00          	cmpl   $0x0,-0x8(%rbp)
    97ce:	78 14                	js     97e4 <safe_rshift_func_int32_t_s_s+0x2e>
    97d0:	83 7d f8 1f          	cmpl   $0x1f,-0x8(%rbp)
    97d4:	7f 0e                	jg     97e4 <safe_rshift_func_int32_t_s_s+0x2e>
    97d6:	8b 45 f8             	mov    -0x8(%rbp),%eax
    97d9:	8b 55 fc             	mov    -0x4(%rbp),%edx
    97dc:	89 c1                	mov    %eax,%ecx
    97de:	d3 fa                	sar    %cl,%edx
    97e0:	89 d0                	mov    %edx,%eax
    97e2:	eb 03                	jmp    97e7 <safe_rshift_func_int32_t_s_s+0x31>
    97e4:	8b 45 fc             	mov    -0x4(%rbp),%eax
    97e7:	5d                   	pop    %rbp
    97e8:	c3                   	retq   

00000000000097e9 <safe_rshift_func_int32_t_s_u>:
    97e9:	f3 0f 1e fa          	endbr64 
    97ed:	55                   	push   %rbp
    97ee:	48 89 e5             	mov    %rsp,%rbp
    97f1:	89 7d fc             	mov    %edi,-0x4(%rbp)
    97f4:	89 75 f8             	mov    %esi,-0x8(%rbp)
    97f7:	83 7d fc 00          	cmpl   $0x0,-0x4(%rbp)
    97fb:	78 14                	js     9811 <safe_rshift_func_int32_t_s_u+0x28>
    97fd:	83 7d f8 1f          	cmpl   $0x1f,-0x8(%rbp)
    9801:	77 0e                	ja     9811 <safe_rshift_func_int32_t_s_u+0x28>
    9803:	8b 45 f8             	mov    -0x8(%rbp),%eax
    9806:	8b 55 fc             	mov    -0x4(%rbp),%edx
    9809:	89 c1                	mov    %eax,%ecx
    980b:	d3 fa                	sar    %cl,%edx
    980d:	89 d0                	mov    %edx,%eax
    980f:	eb 03                	jmp    9814 <safe_rshift_func_int32_t_s_u+0x2b>
    9811:	8b 45 fc             	mov    -0x4(%rbp),%eax
    9814:	5d                   	pop    %rbp
    9815:	c3                   	retq   

0000000000009816 <safe_unary_minus_func_int64_t_s>:
    9816:	f3 0f 1e fa          	endbr64 
    981a:	55                   	push   %rbp
    981b:	48 89 e5             	mov    %rsp,%rbp
    981e:	48 89 7d f8          	mov    %rdi,-0x8(%rbp)
    9822:	48 b8 00 00 00 00 00 	movabs $0x8000000000000000,%rax
    9829:	00 00 80 
    982c:	48 39 45 f8          	cmp    %rax,-0x8(%rbp)
    9830:	74 09                	je     983b <safe_unary_minus_func_int64_t_s+0x25>
    9832:	48 8b 45 f8          	mov    -0x8(%rbp),%rax
    9836:	48 f7 d8             	neg    %rax
    9839:	eb 04                	jmp    983f <safe_unary_minus_func_int64_t_s+0x29>
    983b:	48 8b 45 f8          	mov    -0x8(%rbp),%rax
    983f:	5d                   	pop    %rbp
    9840:	c3                   	retq   

0000000000009841 <safe_add_func_int64_t_s_s>:
    9841:	f3 0f 1e fa          	endbr64 
    9845:	55                   	push   %rbp
    9846:	48 89 e5             	mov    %rsp,%rbp
    9849:	48 89 7d f8          	mov    %rdi,-0x8(%rbp)
    984d:	48 89 75 f0          	mov    %rsi,-0x10(%rbp)
    9851:	48 83 7d f8 00       	cmpq   $0x0,-0x8(%rbp)
    9856:	7e 1b                	jle    9873 <safe_add_func_int64_t_s_s+0x32>
    9858:	48 83 7d f0 00       	cmpq   $0x0,-0x10(%rbp)
    985d:	7e 14                	jle    9873 <safe_add_func_int64_t_s_s+0x32>
    985f:	48 b8 ff ff ff ff ff 	movabs $0x7fffffffffffffff,%rax
    9866:	ff ff 7f 
    9869:	48 2b 45 f0          	sub    -0x10(%rbp),%rax
    986d:	48 39 45 f8          	cmp    %rax,-0x8(%rbp)
    9871:	7f 2f                	jg     98a2 <safe_add_func_int64_t_s_s+0x61>
    9873:	48 83 7d f8 00       	cmpq   $0x0,-0x8(%rbp)
    9878:	79 1b                	jns    9895 <safe_add_func_int64_t_s_s+0x54>
    987a:	48 83 7d f0 00       	cmpq   $0x0,-0x10(%rbp)
    987f:	79 14                	jns    9895 <safe_add_func_int64_t_s_s+0x54>
    9881:	48 b8 00 00 00 00 00 	movabs $0x8000000000000000,%rax
    9888:	00 00 80 
    988b:	48 2b 45 f0          	sub    -0x10(%rbp),%rax
    988f:	48 39 45 f8          	cmp    %rax,-0x8(%rbp)
    9893:	7c 0d                	jl     98a2 <safe_add_func_int64_t_s_s+0x61>
    9895:	48 8b 55 f8          	mov    -0x8(%rbp),%rdx
    9899:	48 8b 45 f0          	mov    -0x10(%rbp),%rax
    989d:	48 01 d0             	add    %rdx,%rax
    98a0:	eb 04                	jmp    98a6 <safe_add_func_int64_t_s_s+0x65>
    98a2:	48 8b 45 f8          	mov    -0x8(%rbp),%rax
    98a6:	5d                   	pop    %rbp
    98a7:	c3                   	retq   

00000000000098a8 <safe_sub_func_int64_t_s_s>:
    98a8:	f3 0f 1e fa          	endbr64 
    98ac:	55                   	push   %rbp
    98ad:	48 89 e5             	mov    %rsp,%rbp
    98b0:	48 89 7d f8          	mov    %rdi,-0x8(%rbp)
    98b4:	48 89 75 f0          	mov    %rsi,-0x10(%rbp)
    98b8:	48 8b 45 f8          	mov    -0x8(%rbp),%rax
    98bc:	48 33 45 f0          	xor    -0x10(%rbp),%rax
    98c0:	48 89 c2             	mov    %rax,%rdx
    98c3:	48 8b 45 f8          	mov    -0x8(%rbp),%rax
    98c7:	48 33 45 f0          	xor    -0x10(%rbp),%rax
    98cb:	48 b9 00 00 00 00 00 	movabs $0x8000000000000000,%rcx
    98d2:	00 00 80 
    98d5:	48 21 c8             	and    %rcx,%rax
    98d8:	48 33 45 f8          	xor    -0x8(%rbp),%rax
    98dc:	48 2b 45 f0          	sub    -0x10(%rbp),%rax
    98e0:	48 33 45 f0          	xor    -0x10(%rbp),%rax
    98e4:	48 21 d0             	and    %rdx,%rax
    98e7:	48 85 c0             	test   %rax,%rax
    98ea:	78 0a                	js     98f6 <safe_sub_func_int64_t_s_s+0x4e>
    98ec:	48 8b 45 f8          	mov    -0x8(%rbp),%rax
    98f0:	48 2b 45 f0          	sub    -0x10(%rbp),%rax
    98f4:	eb 04                	jmp    98fa <safe_sub_func_int64_t_s_s+0x52>
    98f6:	48 8b 45 f8          	mov    -0x8(%rbp),%rax
    98fa:	5d                   	pop    %rbp
    98fb:	c3                   	retq   

00000000000098fc <safe_mul_func_int64_t_s_s>:
    98fc:	f3 0f 1e fa          	endbr64 
    9900:	55                   	push   %rbp
    9901:	48 89 e5             	mov    %rsp,%rbp
    9904:	48 89 7d f8          	mov    %rdi,-0x8(%rbp)
    9908:	48 89 75 f0          	mov    %rsi,-0x10(%rbp)
    990c:	48 83 7d f8 00       	cmpq   $0x0,-0x8(%rbp)
    9911:	7e 1d                	jle    9930 <safe_mul_func_int64_t_s_s+0x34>
    9913:	48 83 7d f0 00       	cmpq   $0x0,-0x10(%rbp)
    9918:	7e 16                	jle    9930 <safe_mul_func_int64_t_s_s+0x34>
    991a:	48 b8 ff ff ff ff ff 	movabs $0x7fffffffffffffff,%rax
    9921:	ff ff 7f 
    9924:	48 99                	cqto   
    9926:	48 f7 7d f0          	idivq  -0x10(%rbp)
    992a:	48 39 45 f8          	cmp    %rax,-0x8(%rbp)
    992e:	7f 7e                	jg     99ae <safe_mul_func_int64_t_s_s+0xb2>
    9930:	48 83 7d f8 00       	cmpq   $0x0,-0x8(%rbp)
    9935:	7e 1d                	jle    9954 <safe_mul_func_int64_t_s_s+0x58>
    9937:	48 83 7d f0 00       	cmpq   $0x0,-0x10(%rbp)
    993c:	7f 16                	jg     9954 <safe_mul_func_int64_t_s_s+0x58>
    993e:	48 b8 00 00 00 00 00 	movabs $0x8000000000000000,%rax
    9945:	00 00 80 
    9948:	48 99                	cqto   
    994a:	48 f7 7d f8          	idivq  -0x8(%rbp)
    994e:	48 39 45 f0          	cmp    %rax,-0x10(%rbp)
    9952:	7c 5a                	jl     99ae <safe_mul_func_int64_t_s_s+0xb2>
    9954:	48 83 7d f8 00       	cmpq   $0x0,-0x8(%rbp)
    9959:	7f 1d                	jg     9978 <safe_mul_func_int64_t_s_s+0x7c>
    995b:	48 83 7d f0 00       	cmpq   $0x0,-0x10(%rbp)
    9960:	7e 16                	jle    9978 <safe_mul_func_int64_t_s_s+0x7c>
    9962:	48 b8 00 00 00 00 00 	movabs $0x8000000000000000,%rax
    9969:	00 00 80 
    996c:	48 99                	cqto   
    996e:	48 f7 7d f0          	idivq  -0x10(%rbp)
    9972:	48 39 45 f8          	cmp    %rax,-0x8(%rbp)
    9976:	7c 36                	jl     99ae <safe_mul_func_int64_t_s_s+0xb2>
    9978:	48 83 7d f8 00       	cmpq   $0x0,-0x8(%rbp)
    997d:	7f 24                	jg     99a3 <safe_mul_func_int64_t_s_s+0xa7>
    997f:	48 83 7d f0 00       	cmpq   $0x0,-0x10(%rbp)
    9984:	7f 1d                	jg     99a3 <safe_mul_func_int64_t_s_s+0xa7>
    9986:	48 83 7d f8 00       	cmpq   $0x0,-0x8(%rbp)
    998b:	74 16                	je     99a3 <safe_mul_func_int64_t_s_s+0xa7>
    998d:	48 b8 ff ff ff ff ff 	movabs $0x7fffffffffffffff,%rax
    9994:	ff ff 7f 
    9997:	48 99                	cqto   
    9999:	48 f7 7d f8          	idivq  -0x8(%rbp)
    999d:	48 39 45 f0          	cmp    %rax,-0x10(%rbp)
    99a1:	7c 0b                	jl     99ae <safe_mul_func_int64_t_s_s+0xb2>
    99a3:	48 8b 45 f8          	mov    -0x8(%rbp),%rax
    99a7:	48 0f af 45 f0       	imul   -0x10(%rbp),%rax
    99ac:	eb 04                	jmp    99b2 <safe_mul_func_int64_t_s_s+0xb6>
    99ae:	48 8b 45 f8          	mov    -0x8(%rbp),%rax
    99b2:	5d                   	pop    %rbp
    99b3:	c3                   	retq   

00000000000099b4 <safe_mod_func_int64_t_s_s>:
    99b4:	f3 0f 1e fa          	endbr64 
    99b8:	55                   	push   %rbp
    99b9:	48 89 e5             	mov    %rsp,%rbp
    99bc:	48 89 7d f8          	mov    %rdi,-0x8(%rbp)
    99c0:	48 89 75 f0          	mov    %rsi,-0x10(%rbp)
    99c4:	48 83 7d f0 00       	cmpq   $0x0,-0x10(%rbp)
    99c9:	74 26                	je     99f1 <safe_mod_func_int64_t_s_s+0x3d>
    99cb:	48 b8 00 00 00 00 00 	movabs $0x8000000000000000,%rax
    99d2:	00 00 80 
    99d5:	48 39 45 f8          	cmp    %rax,-0x8(%rbp)
    99d9:	75 07                	jne    99e2 <safe_mod_func_int64_t_s_s+0x2e>
    99db:	48 83 7d f0 ff       	cmpq   $0xffffffffffffffff,-0x10(%rbp)
    99e0:	74 0f                	je     99f1 <safe_mod_func_int64_t_s_s+0x3d>
    99e2:	48 8b 45 f8          	mov    -0x8(%rbp),%rax
    99e6:	48 99                	cqto   
    99e8:	48 f7 7d f0          	idivq  -0x10(%rbp)
    99ec:	48 89 d0             	mov    %rdx,%rax
    99ef:	eb 04                	jmp    99f5 <safe_mod_func_int64_t_s_s+0x41>
    99f1:	48 8b 45 f8          	mov    -0x8(%rbp),%rax
    99f5:	5d                   	pop    %rbp
    99f6:	c3                   	retq   

00000000000099f7 <safe_div_func_int64_t_s_s>:
    99f7:	f3 0f 1e fa          	endbr64 
    99fb:	55                   	push   %rbp
    99fc:	48 89 e5             	mov    %rsp,%rbp
    99ff:	48 89 7d f8          	mov    %rdi,-0x8(%rbp)
    9a03:	48 89 75 f0          	mov    %rsi,-0x10(%rbp)
    9a07:	48 83 7d f0 00       	cmpq   $0x0,-0x10(%rbp)
    9a0c:	74 23                	je     9a31 <safe_div_func_int64_t_s_s+0x3a>
    9a0e:	48 b8 00 00 00 00 00 	movabs $0x8000000000000000,%rax
    9a15:	00 00 80 
    9a18:	48 39 45 f8          	cmp    %rax,-0x8(%rbp)
    9a1c:	75 07                	jne    9a25 <safe_div_func_int64_t_s_s+0x2e>
    9a1e:	48 83 7d f0 ff       	cmpq   $0xffffffffffffffff,-0x10(%rbp)
    9a23:	74 0c                	je     9a31 <safe_div_func_int64_t_s_s+0x3a>
    9a25:	48 8b 45 f8          	mov    -0x8(%rbp),%rax
    9a29:	48 99                	cqto   
    9a2b:	48 f7 7d f0          	idivq  -0x10(%rbp)
    9a2f:	eb 04                	jmp    9a35 <safe_div_func_int64_t_s_s+0x3e>
    9a31:	48 8b 45 f8          	mov    -0x8(%rbp),%rax
    9a35:	5d                   	pop    %rbp
    9a36:	c3                   	retq   

0000000000009a37 <safe_lshift_func_int64_t_s_s>:
    9a37:	f3 0f 1e fa          	endbr64 
    9a3b:	55                   	push   %rbp
    9a3c:	48 89 e5             	mov    %rsp,%rbp
    9a3f:	48 89 7d f8          	mov    %rdi,-0x8(%rbp)
    9a43:	89 75 f4             	mov    %esi,-0xc(%rbp)
    9a46:	48 83 7d f8 00       	cmpq   $0x0,-0x8(%rbp)
    9a4b:	78 38                	js     9a85 <safe_lshift_func_int64_t_s_s+0x4e>
    9a4d:	83 7d f4 00          	cmpl   $0x0,-0xc(%rbp)
    9a51:	78 32                	js     9a85 <safe_lshift_func_int64_t_s_s+0x4e>
    9a53:	83 7d f4 1f          	cmpl   $0x1f,-0xc(%rbp)
    9a57:	7f 2c                	jg     9a85 <safe_lshift_func_int64_t_s_s+0x4e>
    9a59:	8b 45 f4             	mov    -0xc(%rbp),%eax
    9a5c:	48 ba ff ff ff ff ff 	movabs $0x7fffffffffffffff,%rdx
    9a63:	ff ff 7f 
    9a66:	89 c1                	mov    %eax,%ecx
    9a68:	48 d3 fa             	sar    %cl,%rdx
    9a6b:	48 89 d0             	mov    %rdx,%rax
    9a6e:	48 39 45 f8          	cmp    %rax,-0x8(%rbp)
    9a72:	7f 11                	jg     9a85 <safe_lshift_func_int64_t_s_s+0x4e>
    9a74:	8b 45 f4             	mov    -0xc(%rbp),%eax
    9a77:	48 8b 55 f8          	mov    -0x8(%rbp),%rdx
    9a7b:	89 c1                	mov    %eax,%ecx
    9a7d:	48 d3 e2             	shl    %cl,%rdx
    9a80:	48 89 d0             	mov    %rdx,%rax
    9a83:	eb 04                	jmp    9a89 <safe_lshift_func_int64_t_s_s+0x52>
    9a85:	48 8b 45 f8          	mov    -0x8(%rbp),%rax
    9a89:	5d                   	pop    %rbp
    9a8a:	c3                   	retq   

0000000000009a8b <safe_lshift_func_int64_t_s_u>:
    9a8b:	f3 0f 1e fa          	endbr64 
    9a8f:	55                   	push   %rbp
    9a90:	48 89 e5             	mov    %rsp,%rbp
    9a93:	48 89 7d f8          	mov    %rdi,-0x8(%rbp)
    9a97:	89 75 f4             	mov    %esi,-0xc(%rbp)
    9a9a:	48 83 7d f8 00       	cmpq   $0x0,-0x8(%rbp)
    9a9f:	78 32                	js     9ad3 <safe_lshift_func_int64_t_s_u+0x48>
    9aa1:	83 7d f4 1f          	cmpl   $0x1f,-0xc(%rbp)
    9aa5:	77 2c                	ja     9ad3 <safe_lshift_func_int64_t_s_u+0x48>
    9aa7:	8b 45 f4             	mov    -0xc(%rbp),%eax
    9aaa:	48 ba ff ff ff ff ff 	movabs $0x7fffffffffffffff,%rdx
    9ab1:	ff ff 7f 
    9ab4:	89 c1                	mov    %eax,%ecx
    9ab6:	48 d3 fa             	sar    %cl,%rdx
    9ab9:	48 89 d0             	mov    %rdx,%rax
    9abc:	48 39 45 f8          	cmp    %rax,-0x8(%rbp)
    9ac0:	7f 11                	jg     9ad3 <safe_lshift_func_int64_t_s_u+0x48>
    9ac2:	8b 45 f4             	mov    -0xc(%rbp),%eax
    9ac5:	48 8b 55 f8          	mov    -0x8(%rbp),%rdx
    9ac9:	89 c1                	mov    %eax,%ecx
    9acb:	48 d3 e2             	shl    %cl,%rdx
    9ace:	48 89 d0             	mov    %rdx,%rax
    9ad1:	eb 04                	jmp    9ad7 <safe_lshift_func_int64_t_s_u+0x4c>
    9ad3:	48 8b 45 f8          	mov    -0x8(%rbp),%rax
    9ad7:	5d                   	pop    %rbp
    9ad8:	c3                   	retq   

0000000000009ad9 <safe_rshift_func_int64_t_s_s>:
    9ad9:	f3 0f 1e fa          	endbr64 
    9add:	55                   	push   %rbp
    9ade:	48 89 e5             	mov    %rsp,%rbp
    9ae1:	48 89 7d f8          	mov    %rdi,-0x8(%rbp)
    9ae5:	89 75 f4             	mov    %esi,-0xc(%rbp)
    9ae8:	48 83 7d f8 00       	cmpq   $0x0,-0x8(%rbp)
    9aed:	78 1d                	js     9b0c <safe_rshift_func_int64_t_s_s+0x33>
    9aef:	83 7d f4 00          	cmpl   $0x0,-0xc(%rbp)
    9af3:	78 17                	js     9b0c <safe_rshift_func_int64_t_s_s+0x33>
    9af5:	83 7d f4 1f          	cmpl   $0x1f,-0xc(%rbp)
    9af9:	7f 11                	jg     9b0c <safe_rshift_func_int64_t_s_s+0x33>
    9afb:	8b 45 f4             	mov    -0xc(%rbp),%eax
    9afe:	48 8b 55 f8          	mov    -0x8(%rbp),%rdx
    9b02:	89 c1                	mov    %eax,%ecx
    9b04:	48 d3 fa             	sar    %cl,%rdx
    9b07:	48 89 d0             	mov    %rdx,%rax
    9b0a:	eb 04                	jmp    9b10 <safe_rshift_func_int64_t_s_s+0x37>
    9b0c:	48 8b 45 f8          	mov    -0x8(%rbp),%rax
    9b10:	5d                   	pop    %rbp
    9b11:	c3                   	retq   

0000000000009b12 <safe_rshift_func_int64_t_s_u>:
    9b12:	f3 0f 1e fa          	endbr64 
    9b16:	55                   	push   %rbp
    9b17:	48 89 e5             	mov    %rsp,%rbp
    9b1a:	48 89 7d f8          	mov    %rdi,-0x8(%rbp)
    9b1e:	89 75 f4             	mov    %esi,-0xc(%rbp)
    9b21:	48 83 7d f8 00       	cmpq   $0x0,-0x8(%rbp)
    9b26:	78 17                	js     9b3f <safe_rshift_func_int64_t_s_u+0x2d>
    9b28:	83 7d f4 1f          	cmpl   $0x1f,-0xc(%rbp)
    9b2c:	77 11                	ja     9b3f <safe_rshift_func_int64_t_s_u+0x2d>
    9b2e:	8b 45 f4             	mov    -0xc(%rbp),%eax
    9b31:	48 8b 55 f8          	mov    -0x8(%rbp),%rdx
    9b35:	89 c1                	mov    %eax,%ecx
    9b37:	48 d3 fa             	sar    %cl,%rdx
    9b3a:	48 89 d0             	mov    %rdx,%rax
    9b3d:	eb 04                	jmp    9b43 <safe_rshift_func_int64_t_s_u+0x31>
    9b3f:	48 8b 45 f8          	mov    -0x8(%rbp),%rax
    9b43:	5d                   	pop    %rbp
    9b44:	c3                   	retq   

0000000000009b45 <safe_unary_minus_func_uint8_t_u>:
    9b45:	f3 0f 1e fa          	endbr64 
    9b49:	55                   	push   %rbp
    9b4a:	48 89 e5             	mov    %rsp,%rbp
    9b4d:	89 f8                	mov    %edi,%eax
    9b4f:	88 45 fc             	mov    %al,-0x4(%rbp)
    9b52:	0f b6 45 fc          	movzbl -0x4(%rbp),%eax
    9b56:	f7 d8                	neg    %eax
    9b58:	5d                   	pop    %rbp
    9b59:	c3                   	retq   

0000000000009b5a <safe_add_func_uint8_t_u_u>:
    9b5a:	f3 0f 1e fa          	endbr64 
    9b5e:	55                   	push   %rbp
    9b5f:	48 89 e5             	mov    %rsp,%rbp
    9b62:	89 fa                	mov    %edi,%edx
    9b64:	89 f0                	mov    %esi,%eax
    9b66:	88 55 fc             	mov    %dl,-0x4(%rbp)
    9b69:	88 45 f8             	mov    %al,-0x8(%rbp)
    9b6c:	0f b6 55 fc          	movzbl -0x4(%rbp),%edx
    9b70:	0f b6 45 f8          	movzbl -0x8(%rbp),%eax
    9b74:	01 d0                	add    %edx,%eax
    9b76:	5d                   	pop    %rbp
    9b77:	c3                   	retq   

0000000000009b78 <safe_sub_func_uint8_t_u_u>:
    9b78:	f3 0f 1e fa          	endbr64 
    9b7c:	55                   	push   %rbp
    9b7d:	48 89 e5             	mov    %rsp,%rbp
    9b80:	89 fa                	mov    %edi,%edx
    9b82:	89 f0                	mov    %esi,%eax
    9b84:	88 55 fc             	mov    %dl,-0x4(%rbp)
    9b87:	88 45 f8             	mov    %al,-0x8(%rbp)
    9b8a:	0f b6 45 fc          	movzbl -0x4(%rbp),%eax
    9b8e:	2a 45 f8             	sub    -0x8(%rbp),%al
    9b91:	5d                   	pop    %rbp
    9b92:	c3                   	retq   

0000000000009b93 <safe_mul_func_uint8_t_u_u>:
    9b93:	f3 0f 1e fa          	endbr64 
    9b97:	55                   	push   %rbp
    9b98:	48 89 e5             	mov    %rsp,%rbp
    9b9b:	89 fa                	mov    %edi,%edx
    9b9d:	89 f0                	mov    %esi,%eax
    9b9f:	88 55 fc             	mov    %dl,-0x4(%rbp)
    9ba2:	88 45 f8             	mov    %al,-0x8(%rbp)
    9ba5:	0f b6 45 fc          	movzbl -0x4(%rbp),%eax
    9ba9:	f6 65 f8             	mulb   -0x8(%rbp)
    9bac:	5d                   	pop    %rbp
    9bad:	c3                   	retq   

0000000000009bae <safe_mod_func_uint8_t_u_u>:
    9bae:	f3 0f 1e fa          	endbr64 
    9bb2:	55                   	push   %rbp
    9bb3:	48 89 e5             	mov    %rsp,%rbp
    9bb6:	89 fa                	mov    %edi,%edx
    9bb8:	89 f0                	mov    %esi,%eax
    9bba:	88 55 fc             	mov    %dl,-0x4(%rbp)
    9bbd:	88 45 f8             	mov    %al,-0x8(%rbp)
    9bc0:	80 7d f8 00          	cmpb   $0x0,-0x8(%rbp)
    9bc4:	74 0f                	je     9bd5 <safe_mod_func_uint8_t_u_u+0x27>
    9bc6:	0f b6 45 fc          	movzbl -0x4(%rbp),%eax
    9bca:	0f b6 c0             	movzbl %al,%eax
    9bcd:	f6 75 f8             	divb   -0x8(%rbp)
    9bd0:	0f b6 c4             	movzbl %ah,%eax
    9bd3:	eb 04                	jmp    9bd9 <safe_mod_func_uint8_t_u_u+0x2b>
    9bd5:	0f b6 45 fc          	movzbl -0x4(%rbp),%eax
    9bd9:	5d                   	pop    %rbp
    9bda:	c3                   	retq   

0000000000009bdb <safe_div_func_uint8_t_u_u>:
    9bdb:	f3 0f 1e fa          	endbr64 
    9bdf:	55                   	push   %rbp
    9be0:	48 89 e5             	mov    %rsp,%rbp
    9be3:	89 fa                	mov    %edi,%edx
    9be5:	89 f0                	mov    %esi,%eax
    9be7:	88 55 fc             	mov    %dl,-0x4(%rbp)
    9bea:	88 45 f8             	mov    %al,-0x8(%rbp)
    9bed:	80 7d f8 00          	cmpb   $0x0,-0x8(%rbp)
    9bf1:	74 0c                	je     9bff <safe_div_func_uint8_t_u_u+0x24>
    9bf3:	0f b6 45 fc          	movzbl -0x4(%rbp),%eax
    9bf7:	0f b6 c0             	movzbl %al,%eax
    9bfa:	f6 75 f8             	divb   -0x8(%rbp)
    9bfd:	eb 04                	jmp    9c03 <safe_div_func_uint8_t_u_u+0x28>
    9bff:	0f b6 45 fc          	movzbl -0x4(%rbp),%eax
    9c03:	5d                   	pop    %rbp
    9c04:	c3                   	retq   

0000000000009c05 <safe_lshift_func_uint8_t_u_s>:
    9c05:	f3 0f 1e fa          	endbr64 
    9c09:	55                   	push   %rbp
    9c0a:	48 89 e5             	mov    %rsp,%rbp
    9c0d:	89 f8                	mov    %edi,%eax
    9c0f:	89 75 f8             	mov    %esi,-0x8(%rbp)
    9c12:	88 45 fc             	mov    %al,-0x4(%rbp)
    9c15:	83 7d f8 00          	cmpl   $0x0,-0x8(%rbp)
    9c19:	78 2b                	js     9c46 <safe_lshift_func_uint8_t_u_s+0x41>
    9c1b:	83 7d f8 1f          	cmpl   $0x1f,-0x8(%rbp)
    9c1f:	7f 25                	jg     9c46 <safe_lshift_func_uint8_t_u_s+0x41>
    9c21:	0f b6 55 fc          	movzbl -0x4(%rbp),%edx
    9c25:	8b 45 f8             	mov    -0x8(%rbp),%eax
    9c28:	be ff 00 00 00       	mov    $0xff,%esi
    9c2d:	89 c1                	mov    %eax,%ecx
    9c2f:	d3 fe                	sar    %cl,%esi
    9c31:	89 f0                	mov    %esi,%eax
    9c33:	39 c2                	cmp    %eax,%edx
    9c35:	7f 0f                	jg     9c46 <safe_lshift_func_uint8_t_u_s+0x41>
    9c37:	0f b6 55 fc          	movzbl -0x4(%rbp),%edx
    9c3b:	8b 45 f8             	mov    -0x8(%rbp),%eax
    9c3e:	89 c1                	mov    %eax,%ecx
    9c40:	d3 e2                	shl    %cl,%edx
    9c42:	89 d0                	mov    %edx,%eax
    9c44:	eb 04                	jmp    9c4a <safe_lshift_func_uint8_t_u_s+0x45>
    9c46:	0f b6 45 fc          	movzbl -0x4(%rbp),%eax
    9c4a:	5d                   	pop    %rbp
    9c4b:	c3                   	retq   

0000000000009c4c <safe_lshift_func_uint8_t_u_u>:
    9c4c:	f3 0f 1e fa          	endbr64 
    9c50:	55                   	push   %rbp
    9c51:	48 89 e5             	mov    %rsp,%rbp
    9c54:	89 f8                	mov    %edi,%eax
    9c56:	89 75 f8             	mov    %esi,-0x8(%rbp)
    9c59:	88 45 fc             	mov    %al,-0x4(%rbp)
    9c5c:	83 7d f8 1f          	cmpl   $0x1f,-0x8(%rbp)
    9c60:	77 25                	ja     9c87 <safe_lshift_func_uint8_t_u_u+0x3b>
    9c62:	0f b6 55 fc          	movzbl -0x4(%rbp),%edx
    9c66:	8b 45 f8             	mov    -0x8(%rbp),%eax
    9c69:	be ff 00 00 00       	mov    $0xff,%esi
    9c6e:	89 c1                	mov    %eax,%ecx
    9c70:	d3 fe                	sar    %cl,%esi
    9c72:	89 f0                	mov    %esi,%eax
    9c74:	39 c2                	cmp    %eax,%edx
    9c76:	7f 0f                	jg     9c87 <safe_lshift_func_uint8_t_u_u+0x3b>
    9c78:	0f b6 55 fc          	movzbl -0x4(%rbp),%edx
    9c7c:	8b 45 f8             	mov    -0x8(%rbp),%eax
    9c7f:	89 c1                	mov    %eax,%ecx
    9c81:	d3 e2                	shl    %cl,%edx
    9c83:	89 d0                	mov    %edx,%eax
    9c85:	eb 04                	jmp    9c8b <safe_lshift_func_uint8_t_u_u+0x3f>
    9c87:	0f b6 45 fc          	movzbl -0x4(%rbp),%eax
    9c8b:	5d                   	pop    %rbp
    9c8c:	c3                   	retq   

0000000000009c8d <safe_rshift_func_uint8_t_u_s>:
    9c8d:	f3 0f 1e fa          	endbr64 
    9c91:	55                   	push   %rbp
    9c92:	48 89 e5             	mov    %rsp,%rbp
    9c95:	89 f8                	mov    %edi,%eax
    9c97:	89 75 f8             	mov    %esi,-0x8(%rbp)
    9c9a:	88 45 fc             	mov    %al,-0x4(%rbp)
    9c9d:	83 7d f8 00          	cmpl   $0x0,-0x8(%rbp)
    9ca1:	78 15                	js     9cb8 <safe_rshift_func_uint8_t_u_s+0x2b>
    9ca3:	83 7d f8 1f          	cmpl   $0x1f,-0x8(%rbp)
    9ca7:	7f 0f                	jg     9cb8 <safe_rshift_func_uint8_t_u_s+0x2b>
    9ca9:	0f b6 55 fc          	movzbl -0x4(%rbp),%edx
    9cad:	8b 45 f8             	mov    -0x8(%rbp),%eax
    9cb0:	89 c1                	mov    %eax,%ecx
    9cb2:	d3 fa                	sar    %cl,%edx
    9cb4:	89 d0                	mov    %edx,%eax
    9cb6:	eb 04                	jmp    9cbc <safe_rshift_func_uint8_t_u_s+0x2f>
    9cb8:	0f b6 45 fc          	movzbl -0x4(%rbp),%eax
    9cbc:	5d                   	pop    %rbp
    9cbd:	c3                   	retq   

0000000000009cbe <safe_rshift_func_uint8_t_u_u>:
    9cbe:	f3 0f 1e fa          	endbr64 
    9cc2:	55                   	push   %rbp
    9cc3:	48 89 e5             	mov    %rsp,%rbp
    9cc6:	89 f8                	mov    %edi,%eax
    9cc8:	89 75 f8             	mov    %esi,-0x8(%rbp)
    9ccb:	88 45 fc             	mov    %al,-0x4(%rbp)
    9cce:	83 7d f8 1f          	cmpl   $0x1f,-0x8(%rbp)
    9cd2:	77 0f                	ja     9ce3 <safe_rshift_func_uint8_t_u_u+0x25>
    9cd4:	0f b6 55 fc          	movzbl -0x4(%rbp),%edx
    9cd8:	8b 45 f8             	mov    -0x8(%rbp),%eax
    9cdb:	89 c1                	mov    %eax,%ecx
    9cdd:	d3 fa                	sar    %cl,%edx
    9cdf:	89 d0                	mov    %edx,%eax
    9ce1:	eb 04                	jmp    9ce7 <safe_rshift_func_uint8_t_u_u+0x29>
    9ce3:	0f b6 45 fc          	movzbl -0x4(%rbp),%eax
    9ce7:	5d                   	pop    %rbp
    9ce8:	c3                   	retq   

0000000000009ce9 <safe_unary_minus_func_uint16_t_u>:
    9ce9:	f3 0f 1e fa          	endbr64 
    9ced:	55                   	push   %rbp
    9cee:	48 89 e5             	mov    %rsp,%rbp
    9cf1:	89 f8                	mov    %edi,%eax
    9cf3:	66 89 45 fc          	mov    %ax,-0x4(%rbp)
    9cf7:	0f b7 45 fc          	movzwl -0x4(%rbp),%eax
    9cfb:	f7 d8                	neg    %eax
    9cfd:	5d                   	pop    %rbp
    9cfe:	c3                   	retq   

0000000000009cff <safe_add_func_uint16_t_u_u>:
    9cff:	f3 0f 1e fa          	endbr64 
    9d03:	55                   	push   %rbp
    9d04:	48 89 e5             	mov    %rsp,%rbp
    9d07:	89 fa                	mov    %edi,%edx
    9d09:	89 f0                	mov    %esi,%eax
    9d0b:	66 89 55 fc          	mov    %dx,-0x4(%rbp)
    9d0f:	66 89 45 f8          	mov    %ax,-0x8(%rbp)
    9d13:	0f b7 55 fc          	movzwl -0x4(%rbp),%edx
    9d17:	0f b7 45 f8          	movzwl -0x8(%rbp),%eax
    9d1b:	01 d0                	add    %edx,%eax
    9d1d:	5d                   	pop    %rbp
    9d1e:	c3                   	retq   

0000000000009d1f <safe_sub_func_uint16_t_u_u>:
    9d1f:	f3 0f 1e fa          	endbr64 
    9d23:	55                   	push   %rbp
    9d24:	48 89 e5             	mov    %rsp,%rbp
    9d27:	89 fa                	mov    %edi,%edx
    9d29:	89 f0                	mov    %esi,%eax
    9d2b:	66 89 55 fc          	mov    %dx,-0x4(%rbp)
    9d2f:	66 89 45 f8          	mov    %ax,-0x8(%rbp)
    9d33:	0f b7 45 fc          	movzwl -0x4(%rbp),%eax
    9d37:	66 2b 45 f8          	sub    -0x8(%rbp),%ax
    9d3b:	5d                   	pop    %rbp
    9d3c:	c3                   	retq   

0000000000009d3d <safe_mul_func_uint16_t_u_u>:
    9d3d:	f3 0f 1e fa          	endbr64 
    9d41:	55                   	push   %rbp
    9d42:	48 89 e5             	mov    %rsp,%rbp
    9d45:	89 fa                	mov    %edi,%edx
    9d47:	89 f0                	mov    %esi,%eax
    9d49:	66 89 55 fc          	mov    %dx,-0x4(%rbp)
    9d4d:	66 89 45 f8          	mov    %ax,-0x8(%rbp)
    9d51:	0f b7 45 fc          	movzwl -0x4(%rbp),%eax
    9d55:	66 0f af 45 f8       	imul   -0x8(%rbp),%ax
    9d5a:	5d                   	pop    %rbp
    9d5b:	c3                   	retq   

0000000000009d5c <safe_mod_func_uint16_t_u_u>:
    9d5c:	f3 0f 1e fa          	endbr64 
    9d60:	55                   	push   %rbp
    9d61:	48 89 e5             	mov    %rsp,%rbp
    9d64:	89 fa                	mov    %edi,%edx
    9d66:	89 f0                	mov    %esi,%eax
    9d68:	66 89 55 fc          	mov    %dx,-0x4(%rbp)
    9d6c:	66 89 45 f8          	mov    %ax,-0x8(%rbp)
    9d70:	66 83 7d f8 00       	cmpw   $0x0,-0x8(%rbp)
    9d75:	74 11                	je     9d88 <safe_mod_func_uint16_t_u_u+0x2c>
    9d77:	0f b7 45 fc          	movzwl -0x4(%rbp),%eax
    9d7b:	ba 00 00 00 00       	mov    $0x0,%edx
    9d80:	66 f7 75 f8          	divw   -0x8(%rbp)
    9d84:	89 d0                	mov    %edx,%eax
    9d86:	eb 04                	jmp    9d8c <safe_mod_func_uint16_t_u_u+0x30>
    9d88:	0f b7 45 fc          	movzwl -0x4(%rbp),%eax
    9d8c:	5d                   	pop    %rbp
    9d8d:	c3                   	retq   

0000000000009d8e <safe_div_func_uint16_t_u_u>:
    9d8e:	f3 0f 1e fa          	endbr64 
    9d92:	55                   	push   %rbp
    9d93:	48 89 e5             	mov    %rsp,%rbp
    9d96:	89 fa                	mov    %edi,%edx
    9d98:	89 f0                	mov    %esi,%eax
    9d9a:	66 89 55 fc          	mov    %dx,-0x4(%rbp)
    9d9e:	66 89 45 f8          	mov    %ax,-0x8(%rbp)
    9da2:	66 83 7d f8 00       	cmpw   $0x0,-0x8(%rbp)
    9da7:	74 0f                	je     9db8 <safe_div_func_uint16_t_u_u+0x2a>
    9da9:	0f b7 45 fc          	movzwl -0x4(%rbp),%eax
    9dad:	ba 00 00 00 00       	mov    $0x0,%edx
    9db2:	66 f7 75 f8          	divw   -0x8(%rbp)
    9db6:	eb 04                	jmp    9dbc <safe_div_func_uint16_t_u_u+0x2e>
    9db8:	0f b7 45 fc          	movzwl -0x4(%rbp),%eax
    9dbc:	5d                   	pop    %rbp
    9dbd:	c3                   	retq   

0000000000009dbe <safe_lshift_func_uint16_t_u_s>:
    9dbe:	f3 0f 1e fa          	endbr64 
    9dc2:	55                   	push   %rbp
    9dc3:	48 89 e5             	mov    %rsp,%rbp
    9dc6:	89 f8                	mov    %edi,%eax
    9dc8:	89 75 f8             	mov    %esi,-0x8(%rbp)
    9dcb:	66 89 45 fc          	mov    %ax,-0x4(%rbp)
    9dcf:	83 7d f8 00          	cmpl   $0x0,-0x8(%rbp)
    9dd3:	78 2b                	js     9e00 <safe_lshift_func_uint16_t_u_s+0x42>
    9dd5:	83 7d f8 1f          	cmpl   $0x1f,-0x8(%rbp)
    9dd9:	7f 25                	jg     9e00 <safe_lshift_func_uint16_t_u_s+0x42>
    9ddb:	0f b7 55 fc          	movzwl -0x4(%rbp),%edx
    9ddf:	8b 45 f8             	mov    -0x8(%rbp),%eax
    9de2:	be ff ff 00 00       	mov    $0xffff,%esi
    9de7:	89 c1                	mov    %eax,%ecx
    9de9:	d3 fe                	sar    %cl,%esi
    9deb:	89 f0                	mov    %esi,%eax
    9ded:	39 c2                	cmp    %eax,%edx
    9def:	7f 0f                	jg     9e00 <safe_lshift_func_uint16_t_u_s+0x42>
    9df1:	0f b7 55 fc          	movzwl -0x4(%rbp),%edx
    9df5:	8b 45 f8             	mov    -0x8(%rbp),%eax
    9df8:	89 c1                	mov    %eax,%ecx
    9dfa:	d3 e2                	shl    %cl,%edx
    9dfc:	89 d0                	mov    %edx,%eax
    9dfe:	eb 04                	jmp    9e04 <safe_lshift_func_uint16_t_u_s+0x46>
    9e00:	0f b7 45 fc          	movzwl -0x4(%rbp),%eax
    9e04:	5d                   	pop    %rbp
    9e05:	c3                   	retq   

0000000000009e06 <safe_lshift_func_uint16_t_u_u>:
    9e06:	f3 0f 1e fa          	endbr64 
    9e0a:	55                   	push   %rbp
    9e0b:	48 89 e5             	mov    %rsp,%rbp
    9e0e:	89 f8                	mov    %edi,%eax
    9e10:	89 75 f8             	mov    %esi,-0x8(%rbp)
    9e13:	66 89 45 fc          	mov    %ax,-0x4(%rbp)
    9e17:	83 7d f8 1f          	cmpl   $0x1f,-0x8(%rbp)
    9e1b:	77 25                	ja     9e42 <safe_lshift_func_uint16_t_u_u+0x3c>
    9e1d:	0f b7 55 fc          	movzwl -0x4(%rbp),%edx
    9e21:	8b 45 f8             	mov    -0x8(%rbp),%eax
    9e24:	be ff ff 00 00       	mov    $0xffff,%esi
    9e29:	89 c1                	mov    %eax,%ecx
    9e2b:	d3 fe                	sar    %cl,%esi
    9e2d:	89 f0                	mov    %esi,%eax
    9e2f:	39 c2                	cmp    %eax,%edx
    9e31:	7f 0f                	jg     9e42 <safe_lshift_func_uint16_t_u_u+0x3c>
    9e33:	0f b7 55 fc          	movzwl -0x4(%rbp),%edx
    9e37:	8b 45 f8             	mov    -0x8(%rbp),%eax
    9e3a:	89 c1                	mov    %eax,%ecx
    9e3c:	d3 e2                	shl    %cl,%edx
    9e3e:	89 d0                	mov    %edx,%eax
    9e40:	eb 04                	jmp    9e46 <safe_lshift_func_uint16_t_u_u+0x40>
    9e42:	0f b7 45 fc          	movzwl -0x4(%rbp),%eax
    9e46:	5d                   	pop    %rbp
    9e47:	c3                   	retq   

0000000000009e48 <safe_rshift_func_uint16_t_u_s>:
    9e48:	f3 0f 1e fa          	endbr64 
    9e4c:	55                   	push   %rbp
    9e4d:	48 89 e5             	mov    %rsp,%rbp
    9e50:	89 f8                	mov    %edi,%eax
    9e52:	89 75 f8             	mov    %esi,-0x8(%rbp)
    9e55:	66 89 45 fc          	mov    %ax,-0x4(%rbp)
    9e59:	83 7d f8 00          	cmpl   $0x0,-0x8(%rbp)
    9e5d:	78 15                	js     9e74 <safe_rshift_func_uint16_t_u_s+0x2c>
    9e5f:	83 7d f8 1f          	cmpl   $0x1f,-0x8(%rbp)
    9e63:	7f 0f                	jg     9e74 <safe_rshift_func_uint16_t_u_s+0x2c>
    9e65:	0f b7 55 fc          	movzwl -0x4(%rbp),%edx
    9e69:	8b 45 f8             	mov    -0x8(%rbp),%eax
    9e6c:	89 c1                	mov    %eax,%ecx
    9e6e:	d3 fa                	sar    %cl,%edx
    9e70:	89 d0                	mov    %edx,%eax
    9e72:	eb 04                	jmp    9e78 <safe_rshift_func_uint16_t_u_s+0x30>
    9e74:	0f b7 45 fc          	movzwl -0x4(%rbp),%eax
    9e78:	5d                   	pop    %rbp
    9e79:	c3                   	retq   

0000000000009e7a <safe_rshift_func_uint16_t_u_u>:
    9e7a:	f3 0f 1e fa          	endbr64 
    9e7e:	55                   	push   %rbp
    9e7f:	48 89 e5             	mov    %rsp,%rbp
    9e82:	89 f8                	mov    %edi,%eax
    9e84:	89 75 f8             	mov    %esi,-0x8(%rbp)
    9e87:	66 89 45 fc          	mov    %ax,-0x4(%rbp)
    9e8b:	83 7d f8 1f          	cmpl   $0x1f,-0x8(%rbp)
    9e8f:	77 0f                	ja     9ea0 <safe_rshift_func_uint16_t_u_u+0x26>
    9e91:	0f b7 55 fc          	movzwl -0x4(%rbp),%edx
    9e95:	8b 45 f8             	mov    -0x8(%rbp),%eax
    9e98:	89 c1                	mov    %eax,%ecx
    9e9a:	d3 fa                	sar    %cl,%edx
    9e9c:	89 d0                	mov    %edx,%eax
    9e9e:	eb 04                	jmp    9ea4 <safe_rshift_func_uint16_t_u_u+0x2a>
    9ea0:	0f b7 45 fc          	movzwl -0x4(%rbp),%eax
    9ea4:	5d                   	pop    %rbp
    9ea5:	c3                   	retq   

0000000000009ea6 <safe_unary_minus_func_uint32_t_u>:
    9ea6:	f3 0f 1e fa          	endbr64 
    9eaa:	55                   	push   %rbp
    9eab:	48 89 e5             	mov    %rsp,%rbp
    9eae:	89 7d fc             	mov    %edi,-0x4(%rbp)
    9eb1:	8b 45 fc             	mov    -0x4(%rbp),%eax
    9eb4:	f7 d8                	neg    %eax
    9eb6:	5d                   	pop    %rbp
    9eb7:	c3                   	retq   

0000000000009eb8 <safe_add_func_uint32_t_u_u>:
    9eb8:	f3 0f 1e fa          	endbr64 
    9ebc:	55                   	push   %rbp
    9ebd:	48 89 e5             	mov    %rsp,%rbp
    9ec0:	89 7d fc             	mov    %edi,-0x4(%rbp)
    9ec3:	89 75 f8             	mov    %esi,-0x8(%rbp)
    9ec6:	8b 55 fc             	mov    -0x4(%rbp),%edx
    9ec9:	8b 45 f8             	mov    -0x8(%rbp),%eax
    9ecc:	01 d0                	add    %edx,%eax
    9ece:	5d                   	pop    %rbp
    9ecf:	c3                   	retq   

0000000000009ed0 <safe_sub_func_uint32_t_u_u>:
    9ed0:	f3 0f 1e fa          	endbr64 
    9ed4:	55                   	push   %rbp
    9ed5:	48 89 e5             	mov    %rsp,%rbp
    9ed8:	89 7d fc             	mov    %edi,-0x4(%rbp)
    9edb:	89 75 f8             	mov    %esi,-0x8(%rbp)
    9ede:	8b 45 fc             	mov    -0x4(%rbp),%eax
    9ee1:	2b 45 f8             	sub    -0x8(%rbp),%eax
    9ee4:	5d                   	pop    %rbp
    9ee5:	c3                   	retq   

0000000000009ee6 <safe_mul_func_uint32_t_u_u>:
    9ee6:	f3 0f 1e fa          	endbr64 
    9eea:	55                   	push   %rbp
    9eeb:	48 89 e5             	mov    %rsp,%rbp
    9eee:	89 7d fc             	mov    %edi,-0x4(%rbp)
    9ef1:	89 75 f8             	mov    %esi,-0x8(%rbp)
    9ef4:	8b 45 fc             	mov    -0x4(%rbp),%eax
    9ef7:	0f af 45 f8          	imul   -0x8(%rbp),%eax
    9efb:	5d                   	pop    %rbp
    9efc:	c3                   	retq   

0000000000009efd <safe_mod_func_uint32_t_u_u>:
    9efd:	f3 0f 1e fa          	endbr64 
    9f01:	55                   	push   %rbp
    9f02:	48 89 e5             	mov    %rsp,%rbp
    9f05:	89 7d fc             	mov    %edi,-0x4(%rbp)
    9f08:	89 75 f8             	mov    %esi,-0x8(%rbp)
    9f0b:	83 7d f8 00          	cmpl   $0x0,-0x8(%rbp)
    9f0f:	74 0f                	je     9f20 <safe_mod_func_uint32_t_u_u+0x23>
    9f11:	8b 45 fc             	mov    -0x4(%rbp),%eax
    9f14:	ba 00 00 00 00       	mov    $0x0,%edx
    9f19:	f7 75 f8             	divl   -0x8(%rbp)
    9f1c:	89 d0                	mov    %edx,%eax
    9f1e:	eb 03                	jmp    9f23 <safe_mod_func_uint32_t_u_u+0x26>
    9f20:	8b 45 fc             	mov    -0x4(%rbp),%eax
    9f23:	5d                   	pop    %rbp
    9f24:	c3                   	retq   

0000000000009f25 <safe_div_func_uint32_t_u_u>:
    9f25:	f3 0f 1e fa          	endbr64 
    9f29:	55                   	push   %rbp
    9f2a:	48 89 e5             	mov    %rsp,%rbp
    9f2d:	89 7d fc             	mov    %edi,-0x4(%rbp)
    9f30:	89 75 f8             	mov    %esi,-0x8(%rbp)
    9f33:	83 7d f8 00          	cmpl   $0x0,-0x8(%rbp)
    9f37:	74 0d                	je     9f46 <safe_div_func_uint32_t_u_u+0x21>
    9f39:	8b 45 fc             	mov    -0x4(%rbp),%eax
    9f3c:	ba 00 00 00 00       	mov    $0x0,%edx
    9f41:	f7 75 f8             	divl   -0x8(%rbp)
    9f44:	eb 03                	jmp    9f49 <safe_div_func_uint32_t_u_u+0x24>
    9f46:	8b 45 fc             	mov    -0x4(%rbp),%eax
    9f49:	5d                   	pop    %rbp
    9f4a:	c3                   	retq   

0000000000009f4b <safe_lshift_func_uint32_t_u_s>:
    9f4b:	f3 0f 1e fa          	endbr64 
    9f4f:	55                   	push   %rbp
    9f50:	48 89 e5             	mov    %rsp,%rbp
    9f53:	89 7d fc             	mov    %edi,-0x4(%rbp)
    9f56:	89 75 f8             	mov    %esi,-0x8(%rbp)
    9f59:	83 7d f8 00          	cmpl   $0x0,-0x8(%rbp)
    9f5d:	78 27                	js     9f86 <safe_lshift_func_uint32_t_u_s+0x3b>
    9f5f:	83 7d f8 1f          	cmpl   $0x1f,-0x8(%rbp)
    9f63:	7f 21                	jg     9f86 <safe_lshift_func_uint32_t_u_s+0x3b>
    9f65:	8b 45 f8             	mov    -0x8(%rbp),%eax
    9f68:	ba ff ff ff ff       	mov    $0xffffffff,%edx
    9f6d:	89 c1                	mov    %eax,%ecx
    9f6f:	d3 ea                	shr    %cl,%edx
    9f71:	89 d0                	mov    %edx,%eax
    9f73:	39 45 fc             	cmp    %eax,-0x4(%rbp)
    9f76:	77 0e                	ja     9f86 <safe_lshift_func_uint32_t_u_s+0x3b>
    9f78:	8b 45 f8             	mov    -0x8(%rbp),%eax
    9f7b:	8b 55 fc             	mov    -0x4(%rbp),%edx
    9f7e:	89 c1                	mov    %eax,%ecx
    9f80:	d3 e2                	shl    %cl,%edx
    9f82:	89 d0                	mov    %edx,%eax
    9f84:	eb 03                	jmp    9f89 <safe_lshift_func_uint32_t_u_s+0x3e>
    9f86:	8b 45 fc             	mov    -0x4(%rbp),%eax
    9f89:	5d                   	pop    %rbp
    9f8a:	c3                   	retq   

0000000000009f8b <safe_lshift_func_uint32_t_u_u>:
    9f8b:	f3 0f 1e fa          	endbr64 
    9f8f:	55                   	push   %rbp
    9f90:	48 89 e5             	mov    %rsp,%rbp
    9f93:	89 7d fc             	mov    %edi,-0x4(%rbp)
    9f96:	89 75 f8             	mov    %esi,-0x8(%rbp)
    9f99:	83 7d f8 1f          	cmpl   $0x1f,-0x8(%rbp)
    9f9d:	77 21                	ja     9fc0 <safe_lshift_func_uint32_t_u_u+0x35>
    9f9f:	8b 45 f8             	mov    -0x8(%rbp),%eax
    9fa2:	ba ff ff ff ff       	mov    $0xffffffff,%edx
    9fa7:	89 c1                	mov    %eax,%ecx
    9fa9:	d3 ea                	shr    %cl,%edx
    9fab:	89 d0                	mov    %edx,%eax
    9fad:	39 45 fc             	cmp    %eax,-0x4(%rbp)
    9fb0:	77 0e                	ja     9fc0 <safe_lshift_func_uint32_t_u_u+0x35>
    9fb2:	8b 45 f8             	mov    -0x8(%rbp),%eax
    9fb5:	8b 55 fc             	mov    -0x4(%rbp),%edx
    9fb8:	89 c1                	mov    %eax,%ecx
    9fba:	d3 e2                	shl    %cl,%edx
    9fbc:	89 d0                	mov    %edx,%eax
    9fbe:	eb 03                	jmp    9fc3 <safe_lshift_func_uint32_t_u_u+0x38>
    9fc0:	8b 45 fc             	mov    -0x4(%rbp),%eax
    9fc3:	5d                   	pop    %rbp
    9fc4:	c3                   	retq   

0000000000009fc5 <safe_rshift_func_uint32_t_u_s>:
    9fc5:	f3 0f 1e fa          	endbr64 
    9fc9:	55                   	push   %rbp
    9fca:	48 89 e5             	mov    %rsp,%rbp
    9fcd:	89 7d fc             	mov    %edi,-0x4(%rbp)
    9fd0:	89 75 f8             	mov    %esi,-0x8(%rbp)
    9fd3:	83 7d f8 00          	cmpl   $0x0,-0x8(%rbp)
    9fd7:	78 14                	js     9fed <safe_rshift_func_uint32_t_u_s+0x28>
    9fd9:	83 7d f8 1f          	cmpl   $0x1f,-0x8(%rbp)
    9fdd:	7f 0e                	jg     9fed <safe_rshift_func_uint32_t_u_s+0x28>
    9fdf:	8b 45 f8             	mov    -0x8(%rbp),%eax
    9fe2:	8b 55 fc             	mov    -0x4(%rbp),%edx
    9fe5:	89 c1                	mov    %eax,%ecx
    9fe7:	d3 ea                	shr    %cl,%edx
    9fe9:	89 d0                	mov    %edx,%eax
    9feb:	eb 03                	jmp    9ff0 <safe_rshift_func_uint32_t_u_s+0x2b>
    9fed:	8b 45 fc             	mov    -0x4(%rbp),%eax
    9ff0:	5d                   	pop    %rbp
    9ff1:	c3                   	retq   

0000000000009ff2 <safe_rshift_func_uint32_t_u_u>:
    9ff2:	f3 0f 1e fa          	endbr64 
    9ff6:	55                   	push   %rbp
    9ff7:	48 89 e5             	mov    %rsp,%rbp
    9ffa:	89 7d fc             	mov    %edi,-0x4(%rbp)
    9ffd:	89 75 f8             	mov    %esi,-0x8(%rbp)
    a000:	83 7d f8 1f          	cmpl   $0x1f,-0x8(%rbp)
    a004:	77 0e                	ja     a014 <safe_rshift_func_uint32_t_u_u+0x22>
    a006:	8b 45 f8             	mov    -0x8(%rbp),%eax
    a009:	8b 55 fc             	mov    -0x4(%rbp),%edx
    a00c:	89 c1                	mov    %eax,%ecx
    a00e:	d3 ea                	shr    %cl,%edx
    a010:	89 d0                	mov    %edx,%eax
    a012:	eb 03                	jmp    a017 <safe_rshift_func_uint32_t_u_u+0x25>
    a014:	8b 45 fc             	mov    -0x4(%rbp),%eax
    a017:	5d                   	pop    %rbp
    a018:	c3                   	retq   

000000000000a019 <safe_unary_minus_func_uint64_t_u>:
    a019:	f3 0f 1e fa          	endbr64 
    a01d:	55                   	push   %rbp
    a01e:	48 89 e5             	mov    %rsp,%rbp
    a021:	48 89 7d f8          	mov    %rdi,-0x8(%rbp)
    a025:	48 8b 45 f8          	mov    -0x8(%rbp),%rax
    a029:	48 f7 d8             	neg    %rax
    a02c:	5d                   	pop    %rbp
    a02d:	c3                   	retq   

000000000000a02e <safe_add_func_uint64_t_u_u>:
    a02e:	f3 0f 1e fa          	endbr64 
    a032:	55                   	push   %rbp
    a033:	48 89 e5             	mov    %rsp,%rbp
    a036:	48 89 7d f8          	mov    %rdi,-0x8(%rbp)
    a03a:	48 89 75 f0          	mov    %rsi,-0x10(%rbp)
    a03e:	48 8b 55 f8          	mov    -0x8(%rbp),%rdx
    a042:	48 8b 45 f0          	mov    -0x10(%rbp),%rax
    a046:	48 01 d0             	add    %rdx,%rax
    a049:	5d                   	pop    %rbp
    a04a:	c3                   	retq   

000000000000a04b <safe_sub_func_uint64_t_u_u>:
    a04b:	f3 0f 1e fa          	endbr64 
    a04f:	55                   	push   %rbp
    a050:	48 89 e5             	mov    %rsp,%rbp
    a053:	48 89 7d f8          	mov    %rdi,-0x8(%rbp)
    a057:	48 89 75 f0          	mov    %rsi,-0x10(%rbp)
    a05b:	48 8b 45 f8          	mov    -0x8(%rbp),%rax
    a05f:	48 2b 45 f0          	sub    -0x10(%rbp),%rax
    a063:	5d                   	pop    %rbp
    a064:	c3                   	retq   

000000000000a065 <safe_mul_func_uint64_t_u_u>:
    a065:	f3 0f 1e fa          	endbr64 
    a069:	55                   	push   %rbp
    a06a:	48 89 e5             	mov    %rsp,%rbp
    a06d:	48 89 7d f8          	mov    %rdi,-0x8(%rbp)
    a071:	48 89 75 f0          	mov    %rsi,-0x10(%rbp)
    a075:	48 8b 45 f8          	mov    -0x8(%rbp),%rax
    a079:	48 0f af 45 f0       	imul   -0x10(%rbp),%rax
    a07e:	5d                   	pop    %rbp
    a07f:	c3                   	retq   

000000000000a080 <safe_mod_func_uint64_t_u_u>:
    a080:	f3 0f 1e fa          	endbr64 
    a084:	55                   	push   %rbp
    a085:	48 89 e5             	mov    %rsp,%rbp
    a088:	48 89 7d f8          	mov    %rdi,-0x8(%rbp)
    a08c:	48 89 75 f0          	mov    %rsi,-0x10(%rbp)
    a090:	48 83 7d f0 00       	cmpq   $0x0,-0x10(%rbp)
    a095:	74 12                	je     a0a9 <safe_mod_func_uint64_t_u_u+0x29>
    a097:	48 8b 45 f8          	mov    -0x8(%rbp),%rax
    a09b:	ba 00 00 00 00       	mov    $0x0,%edx
    a0a0:	48 f7 75 f0          	divq   -0x10(%rbp)
    a0a4:	48 89 d0             	mov    %rdx,%rax
    a0a7:	eb 04                	jmp    a0ad <safe_mod_func_uint64_t_u_u+0x2d>
    a0a9:	48 8b 45 f8          	mov    -0x8(%rbp),%rax
    a0ad:	5d                   	pop    %rbp
    a0ae:	c3                   	retq   

000000000000a0af <safe_div_func_uint64_t_u_u>:
    a0af:	f3 0f 1e fa          	endbr64 
    a0b3:	55                   	push   %rbp
    a0b4:	48 89 e5             	mov    %rsp,%rbp
    a0b7:	48 89 7d f8          	mov    %rdi,-0x8(%rbp)
    a0bb:	48 89 75 f0          	mov    %rsi,-0x10(%rbp)
    a0bf:	48 83 7d f0 00       	cmpq   $0x0,-0x10(%rbp)
    a0c4:	74 0f                	je     a0d5 <safe_div_func_uint64_t_u_u+0x26>
    a0c6:	48 8b 45 f8          	mov    -0x8(%rbp),%rax
    a0ca:	ba 00 00 00 00       	mov    $0x0,%edx
    a0cf:	48 f7 75 f0          	divq   -0x10(%rbp)
    a0d3:	eb 04                	jmp    a0d9 <safe_div_func_uint64_t_u_u+0x2a>
    a0d5:	48 8b 45 f8          	mov    -0x8(%rbp),%rax
    a0d9:	5d                   	pop    %rbp
    a0da:	c3                   	retq   

000000000000a0db <safe_lshift_func_uint64_t_u_s>:
    a0db:	f3 0f 1e fa          	endbr64 
    a0df:	55                   	push   %rbp
    a0e0:	48 89 e5             	mov    %rsp,%rbp
    a0e3:	48 89 7d f8          	mov    %rdi,-0x8(%rbp)
    a0e7:	89 75 f4             	mov    %esi,-0xc(%rbp)
    a0ea:	83 7d f4 00          	cmpl   $0x0,-0xc(%rbp)
    a0ee:	78 2f                	js     a11f <safe_lshift_func_uint64_t_u_s+0x44>
    a0f0:	83 7d f4 1f          	cmpl   $0x1f,-0xc(%rbp)
    a0f4:	7f 29                	jg     a11f <safe_lshift_func_uint64_t_u_s+0x44>
    a0f6:	8b 45 f4             	mov    -0xc(%rbp),%eax
    a0f9:	48 c7 c2 ff ff ff ff 	mov    $0xffffffffffffffff,%rdx
    a100:	89 c1                	mov    %eax,%ecx
    a102:	48 d3 ea             	shr    %cl,%rdx
    a105:	48 89 d0             	mov    %rdx,%rax
    a108:	48 39 45 f8          	cmp    %rax,-0x8(%rbp)
    a10c:	77 11                	ja     a11f <safe_lshift_func_uint64_t_u_s+0x44>
    a10e:	8b 45 f4             	mov    -0xc(%rbp),%eax
    a111:	48 8b 55 f8          	mov    -0x8(%rbp),%rdx
    a115:	89 c1                	mov    %eax,%ecx
    a117:	48 d3 e2             	shl    %cl,%rdx
    a11a:	48 89 d0             	mov    %rdx,%rax
    a11d:	eb 04                	jmp    a123 <safe_lshift_func_uint64_t_u_s+0x48>
    a11f:	48 8b 45 f8          	mov    -0x8(%rbp),%rax
    a123:	5d                   	pop    %rbp
    a124:	c3                   	retq   

000000000000a125 <safe_lshift_func_uint64_t_u_u>:
    a125:	f3 0f 1e fa          	endbr64 
    a129:	55                   	push   %rbp
    a12a:	48 89 e5             	mov    %rsp,%rbp
    a12d:	48 89 7d f8          	mov    %rdi,-0x8(%rbp)
    a131:	89 75 f4             	mov    %esi,-0xc(%rbp)
    a134:	83 7d f4 1f          	cmpl   $0x1f,-0xc(%rbp)
    a138:	77 29                	ja     a163 <safe_lshift_func_uint64_t_u_u+0x3e>
    a13a:	8b 45 f4             	mov    -0xc(%rbp),%eax
    a13d:	48 c7 c2 ff ff ff ff 	mov    $0xffffffffffffffff,%rdx
    a144:	89 c1                	mov    %eax,%ecx
    a146:	48 d3 ea             	shr    %cl,%rdx
    a149:	48 89 d0             	mov    %rdx,%rax
    a14c:	48 39 45 f8          	cmp    %rax,-0x8(%rbp)
    a150:	77 11                	ja     a163 <safe_lshift_func_uint64_t_u_u+0x3e>
    a152:	8b 45 f4             	mov    -0xc(%rbp),%eax
    a155:	48 8b 55 f8          	mov    -0x8(%rbp),%rdx
    a159:	89 c1                	mov    %eax,%ecx
    a15b:	48 d3 e2             	shl    %cl,%rdx
    a15e:	48 89 d0             	mov    %rdx,%rax
    a161:	eb 04                	jmp    a167 <safe_lshift_func_uint64_t_u_u+0x42>
    a163:	48 8b 45 f8          	mov    -0x8(%rbp),%rax
    a167:	5d                   	pop    %rbp
    a168:	c3                   	retq   

000000000000a169 <safe_rshift_func_uint64_t_u_s>:
    a169:	f3 0f 1e fa          	endbr64 
    a16d:	55                   	push   %rbp
    a16e:	48 89 e5             	mov    %rsp,%rbp
    a171:	48 89 7d f8          	mov    %rdi,-0x8(%rbp)
    a175:	89 75 f4             	mov    %esi,-0xc(%rbp)
    a178:	83 7d f4 00          	cmpl   $0x0,-0xc(%rbp)
    a17c:	78 17                	js     a195 <safe_rshift_func_uint64_t_u_s+0x2c>
    a17e:	83 7d f4 1f          	cmpl   $0x1f,-0xc(%rbp)
    a182:	7f 11                	jg     a195 <safe_rshift_func_uint64_t_u_s+0x2c>
    a184:	8b 45 f4             	mov    -0xc(%rbp),%eax
    a187:	48 8b 55 f8          	mov    -0x8(%rbp),%rdx
    a18b:	89 c1                	mov    %eax,%ecx
    a18d:	48 d3 ea             	shr    %cl,%rdx
    a190:	48 89 d0             	mov    %rdx,%rax
    a193:	eb 04                	jmp    a199 <safe_rshift_func_uint64_t_u_s+0x30>
    a195:	48 8b 45 f8          	mov    -0x8(%rbp),%rax
    a199:	5d                   	pop    %rbp
    a19a:	c3                   	retq   

000000000000a19b <safe_rshift_func_uint64_t_u_u>:
    a19b:	f3 0f 1e fa          	endbr64 
    a19f:	55                   	push   %rbp
    a1a0:	48 89 e5             	mov    %rsp,%rbp
    a1a3:	48 89 7d f8          	mov    %rdi,-0x8(%rbp)
    a1a7:	89 75 f4             	mov    %esi,-0xc(%rbp)
    a1aa:	83 7d f4 1f          	cmpl   $0x1f,-0xc(%rbp)
    a1ae:	77 11                	ja     a1c1 <safe_rshift_func_uint64_t_u_u+0x26>
    a1b0:	8b 45 f4             	mov    -0xc(%rbp),%eax
    a1b3:	48 8b 55 f8          	mov    -0x8(%rbp),%rdx
    a1b7:	89 c1                	mov    %eax,%ecx
    a1b9:	48 d3 ea             	shr    %cl,%rdx
    a1bc:	48 89 d0             	mov    %rdx,%rax
    a1bf:	eb 04                	jmp    a1c5 <safe_rshift_func_uint64_t_u_u+0x2a>
    a1c1:	48 8b 45 f8          	mov    -0x8(%rbp),%rax
    a1c5:	5d                   	pop    %rbp
    a1c6:	c3                   	retq   

000000000000a1c7 <safe_add_func_float_f_f>:
    a1c7:	f3 0f 1e fa          	endbr64 
    a1cb:	55                   	push   %rbp
    a1cc:	48 89 e5             	mov    %rsp,%rbp
    a1cf:	f3 0f 11 45 fc       	movss  %xmm0,-0x4(%rbp)
    a1d4:	f3 0f 11 4d f8       	movss  %xmm1,-0x8(%rbp)
    a1d9:	f3 0f 10 4d fc       	movss  -0x4(%rbp),%xmm1
    a1de:	f3 0f 10 05 a2 42 01 	movss  0x142a2(%rip),%xmm0        # 1e488 <l_816.4858+0x48>
    a1e5:	00 
    a1e6:	f3 0f 59 c8          	mulss  %xmm0,%xmm1
    a1ea:	f3 0f 10 55 f8       	movss  -0x8(%rbp),%xmm2
    a1ef:	f3 0f 10 05 91 42 01 	movss  0x14291(%rip),%xmm0        # 1e488 <l_816.4858+0x48>
    a1f6:	00 
    a1f7:	f3 0f 59 c2          	mulss  %xmm2,%xmm0
    a1fb:	f3 0f 58 c1          	addss  %xmm1,%xmm0
    a1ff:	f3 0f 10 0d 89 42 01 	movss  0x14289(%rip),%xmm1        # 1e490 <l_816.4858+0x50>
    a206:	00 
    a207:	0f 54 c1             	andps  %xmm1,%xmm0
    a20a:	0f 2f 05 8f 42 01 00 	comiss 0x1428f(%rip),%xmm0        # 1e4a0 <l_816.4858+0x60>
    a211:	76 07                	jbe    a21a <safe_add_func_float_f_f+0x53>
    a213:	f3 0f 10 45 fc       	movss  -0x4(%rbp),%xmm0
    a218:	eb 0a                	jmp    a224 <safe_add_func_float_f_f+0x5d>
    a21a:	f3 0f 10 45 fc       	movss  -0x4(%rbp),%xmm0
    a21f:	f3 0f 58 45 f8       	addss  -0x8(%rbp),%xmm0
    a224:	5d                   	pop    %rbp
    a225:	c3                   	retq   

000000000000a226 <safe_sub_func_float_f_f>:
    a226:	f3 0f 1e fa          	endbr64 
    a22a:	55                   	push   %rbp
    a22b:	48 89 e5             	mov    %rsp,%rbp
    a22e:	f3 0f 11 45 fc       	movss  %xmm0,-0x4(%rbp)
    a233:	f3 0f 11 4d f8       	movss  %xmm1,-0x8(%rbp)
    a238:	f3 0f 10 4d fc       	movss  -0x4(%rbp),%xmm1
    a23d:	f3 0f 10 05 43 42 01 	movss  0x14243(%rip),%xmm0        # 1e488 <l_816.4858+0x48>
    a244:	00 
    a245:	f3 0f 59 c1          	mulss  %xmm1,%xmm0
    a249:	f3 0f 10 55 f8       	movss  -0x8(%rbp),%xmm2
    a24e:	f3 0f 10 0d 32 42 01 	movss  0x14232(%rip),%xmm1        # 1e488 <l_816.4858+0x48>
    a255:	00 
    a256:	f3 0f 59 ca          	mulss  %xmm2,%xmm1
    a25a:	f3 0f 5c c1          	subss  %xmm1,%xmm0
    a25e:	f3 0f 10 0d 2a 42 01 	movss  0x1422a(%rip),%xmm1        # 1e490 <l_816.4858+0x50>
    a265:	00 
    a266:	0f 54 c1             	andps  %xmm1,%xmm0
    a269:	0f 2f 05 30 42 01 00 	comiss 0x14230(%rip),%xmm0        # 1e4a0 <l_816.4858+0x60>
    a270:	76 07                	jbe    a279 <safe_sub_func_float_f_f+0x53>
    a272:	f3 0f 10 45 fc       	movss  -0x4(%rbp),%xmm0
    a277:	eb 0a                	jmp    a283 <safe_sub_func_float_f_f+0x5d>
    a279:	f3 0f 10 45 fc       	movss  -0x4(%rbp),%xmm0
    a27e:	f3 0f 5c 45 f8       	subss  -0x8(%rbp),%xmm0
    a283:	5d                   	pop    %rbp
    a284:	c3                   	retq   

000000000000a285 <safe_mul_func_float_f_f>:
    a285:	f3 0f 1e fa          	endbr64 
    a289:	55                   	push   %rbp
    a28a:	48 89 e5             	mov    %rsp,%rbp
    a28d:	f3 0f 11 45 fc       	movss  %xmm0,-0x4(%rbp)
    a292:	f3 0f 11 4d f8       	movss  %xmm1,-0x8(%rbp)
    a297:	f3 0f 10 4d fc       	movss  -0x4(%rbp),%xmm1
    a29c:	f3 0f 10 05 00 42 01 	movss  0x14200(%rip),%xmm0        # 1e4a4 <l_816.4858+0x64>
    a2a3:	00 
    a2a4:	f3 0f 59 c8          	mulss  %xmm0,%xmm1
    a2a8:	f3 0f 10 55 f8       	movss  -0x8(%rbp),%xmm2
    a2ad:	f3 0f 10 05 f3 41 01 	movss  0x141f3(%rip),%xmm0        # 1e4a8 <l_816.4858+0x68>
    a2b4:	00 
    a2b5:	f3 0f 59 c2          	mulss  %xmm2,%xmm0
    a2b9:	f3 0f 59 c1          	mulss  %xmm1,%xmm0
    a2bd:	f3 0f 10 0d cb 41 01 	movss  0x141cb(%rip),%xmm1        # 1e490 <l_816.4858+0x50>
    a2c4:	00 
    a2c5:	0f 54 c1             	andps  %xmm1,%xmm0
    a2c8:	0f 2f 05 dd 41 01 00 	comiss 0x141dd(%rip),%xmm0        # 1e4ac <l_816.4858+0x6c>
    a2cf:	76 07                	jbe    a2d8 <safe_mul_func_float_f_f+0x53>
    a2d1:	f3 0f 10 45 fc       	movss  -0x4(%rbp),%xmm0
    a2d6:	eb 0a                	jmp    a2e2 <safe_mul_func_float_f_f+0x5d>
    a2d8:	f3 0f 10 45 fc       	movss  -0x4(%rbp),%xmm0
    a2dd:	f3 0f 59 45 f8       	mulss  -0x8(%rbp),%xmm0
    a2e2:	5d                   	pop    %rbp
    a2e3:	c3                   	retq   

000000000000a2e4 <safe_div_func_float_f_f>:
    a2e4:	f3 0f 1e fa          	endbr64 
    a2e8:	55                   	push   %rbp
    a2e9:	48 89 e5             	mov    %rsp,%rbp
    a2ec:	f3 0f 11 45 fc       	movss  %xmm0,-0x4(%rbp)
    a2f1:	f3 0f 11 4d f8       	movss  %xmm1,-0x8(%rbp)
    a2f6:	f3 0f 10 45 f8       	movss  -0x8(%rbp),%xmm0
    a2fb:	f3 0f 10 0d 8d 41 01 	movss  0x1418d(%rip),%xmm1        # 1e490 <l_816.4858+0x50>
    a302:	00 
    a303:	0f 54 c8             	andps  %xmm0,%xmm1
    a306:	f3 0f 10 05 a2 41 01 	movss  0x141a2(%rip),%xmm0        # 1e4b0 <l_816.4858+0x70>
    a30d:	00 
    a30e:	0f 2f c1             	comiss %xmm1,%xmm0
    a311:	0f 97 c0             	seta   %al
    a314:	83 f0 01             	xor    $0x1,%eax
    a317:	84 c0                	test   %al,%al
    a319:	75 56                	jne    a371 <safe_div_func_float_f_f+0x8d>
    a31b:	66 0f ef c0          	pxor   %xmm0,%xmm0
    a31f:	0f 2e 45 f8          	ucomiss -0x8(%rbp),%xmm0
    a323:	7a 0a                	jp     a32f <safe_div_func_float_f_f+0x4b>
    a325:	66 0f ef c0          	pxor   %xmm0,%xmm0
    a329:	0f 2e 45 f8          	ucomiss -0x8(%rbp),%xmm0
    a32d:	74 4e                	je     a37d <safe_div_func_float_f_f+0x99>
    a32f:	f3 0f 10 4d fc       	movss  -0x4(%rbp),%xmm1
    a334:	f3 0f 10 05 78 41 01 	movss  0x14178(%rip),%xmm0        # 1e4b4 <l_816.4858+0x74>
    a33b:	00 
    a33c:	f3 0f 59 c1          	mulss  %xmm1,%xmm0
    a340:	f3 0f 10 55 f8       	movss  -0x8(%rbp),%xmm2
    a345:	f3 0f 10 0d 6b 41 01 	movss  0x1416b(%rip),%xmm1        # 1e4b8 <l_816.4858+0x78>
    a34c:	00 
    a34d:	f3 0f 59 ca          	mulss  %xmm2,%xmm1
    a351:	f3 0f 5e c1          	divss  %xmm1,%xmm0
    a355:	f3 0f 10 0d 33 41 01 	movss  0x14133(%rip),%xmm1        # 1e490 <l_816.4858+0x50>
    a35c:	00 
    a35d:	0f 54 c1             	andps  %xmm1,%xmm0
    a360:	0f 2f 05 55 41 01 00 	comiss 0x14155(%rip),%xmm0        # 1e4bc <l_816.4858+0x7c>
    a367:	0f 97 c0             	seta   %al
    a36a:	83 f0 01             	xor    $0x1,%eax
    a36d:	84 c0                	test   %al,%al
    a36f:	74 0c                	je     a37d <safe_div_func_float_f_f+0x99>
    a371:	f3 0f 10 45 fc       	movss  -0x4(%rbp),%xmm0
    a376:	f3 0f 5e 45 f8       	divss  -0x8(%rbp),%xmm0
    a37b:	eb 05                	jmp    a382 <safe_div_func_float_f_f+0x9e>
    a37d:	f3 0f 10 45 fc       	movss  -0x4(%rbp),%xmm0
    a382:	5d                   	pop    %rbp
    a383:	c3                   	retq   

000000000000a384 <safe_add_func_double_f_f>:
    a384:	f3 0f 1e fa          	endbr64 
    a388:	55                   	push   %rbp
    a389:	48 89 e5             	mov    %rsp,%rbp
    a38c:	f2 0f 11 45 f8       	movsd  %xmm0,-0x8(%rbp)
    a391:	f2 0f 11 4d f0       	movsd  %xmm1,-0x10(%rbp)
    a396:	f2 0f 10 4d f8       	movsd  -0x8(%rbp),%xmm1
    a39b:	f2 0f 10 05 1d 41 01 	movsd  0x1411d(%rip),%xmm0        # 1e4c0 <l_816.4858+0x80>
    a3a2:	00 
    a3a3:	f2 0f 59 c8          	mulsd  %xmm0,%xmm1
    a3a7:	f2 0f 10 55 f0       	movsd  -0x10(%rbp),%xmm2
    a3ac:	f2 0f 10 05 0c 41 01 	movsd  0x1410c(%rip),%xmm0        # 1e4c0 <l_816.4858+0x80>
    a3b3:	00 
    a3b4:	f2 0f 59 c2          	mulsd  %xmm2,%xmm0
    a3b8:	f2 0f 58 c1          	addsd  %xmm1,%xmm0
    a3bc:	f3 0f 7e 0d 0c 41 01 	movq   0x1410c(%rip),%xmm1        # 1e4d0 <l_816.4858+0x90>
    a3c3:	00 
    a3c4:	66 0f 54 c1          	andpd  %xmm1,%xmm0
    a3c8:	66 0f 2f 05 10 41 01 	comisd 0x14110(%rip),%xmm0        # 1e4e0 <l_816.4858+0xa0>
    a3cf:	00 
    a3d0:	76 07                	jbe    a3d9 <safe_add_func_double_f_f+0x55>
    a3d2:	f2 0f 10 45 f8       	movsd  -0x8(%rbp),%xmm0
    a3d7:	eb 0a                	jmp    a3e3 <safe_add_func_double_f_f+0x5f>
    a3d9:	f2 0f 10 45 f8       	movsd  -0x8(%rbp),%xmm0
    a3de:	f2 0f 58 45 f0       	addsd  -0x10(%rbp),%xmm0
    a3e3:	5d                   	pop    %rbp
    a3e4:	c3                   	retq   

000000000000a3e5 <safe_sub_func_double_f_f>:
    a3e5:	f3 0f 1e fa          	endbr64 
    a3e9:	55                   	push   %rbp
    a3ea:	48 89 e5             	mov    %rsp,%rbp
    a3ed:	f2 0f 11 45 f8       	movsd  %xmm0,-0x8(%rbp)
    a3f2:	f2 0f 11 4d f0       	movsd  %xmm1,-0x10(%rbp)
    a3f7:	f2 0f 10 4d f8       	movsd  -0x8(%rbp),%xmm1
    a3fc:	f2 0f 10 05 bc 40 01 	movsd  0x140bc(%rip),%xmm0        # 1e4c0 <l_816.4858+0x80>
    a403:	00 
    a404:	f2 0f 59 c1          	mulsd  %xmm1,%xmm0
    a408:	f2 0f 10 55 f0       	movsd  -0x10(%rbp),%xmm2
    a40d:	f2 0f 10 0d ab 40 01 	movsd  0x140ab(%rip),%xmm1        # 1e4c0 <l_816.4858+0x80>
    a414:	00 
    a415:	f2 0f 59 ca          	mulsd  %xmm2,%xmm1
    a419:	f2 0f 5c c1          	subsd  %xmm1,%xmm0
    a41d:	f3 0f 7e 0d ab 40 01 	movq   0x140ab(%rip),%xmm1        # 1e4d0 <l_816.4858+0x90>
    a424:	00 
    a425:	66 0f 54 c1          	andpd  %xmm1,%xmm0
    a429:	66 0f 2f 05 af 40 01 	comisd 0x140af(%rip),%xmm0        # 1e4e0 <l_816.4858+0xa0>
    a430:	00 
    a431:	76 07                	jbe    a43a <safe_sub_func_double_f_f+0x55>
    a433:	f2 0f 10 45 f8       	movsd  -0x8(%rbp),%xmm0
    a438:	eb 0a                	jmp    a444 <safe_sub_func_double_f_f+0x5f>
    a43a:	f2 0f 10 45 f8       	movsd  -0x8(%rbp),%xmm0
    a43f:	f2 0f 5c 45 f0       	subsd  -0x10(%rbp),%xmm0
    a444:	5d                   	pop    %rbp
    a445:	c3                   	retq   

000000000000a446 <safe_mul_func_double_f_f>:
    a446:	f3 0f 1e fa          	endbr64 
    a44a:	55                   	push   %rbp
    a44b:	48 89 e5             	mov    %rsp,%rbp
    a44e:	f2 0f 11 45 f8       	movsd  %xmm0,-0x8(%rbp)
    a453:	f2 0f 11 4d f0       	movsd  %xmm1,-0x10(%rbp)
    a458:	f2 0f 10 4d f8       	movsd  -0x8(%rbp),%xmm1
    a45d:	f2 0f 10 05 83 40 01 	movsd  0x14083(%rip),%xmm0        # 1e4e8 <l_816.4858+0xa8>
    a464:	00 
    a465:	f2 0f 59 c8          	mulsd  %xmm0,%xmm1
    a469:	f2 0f 10 55 f0       	movsd  -0x10(%rbp),%xmm2
    a46e:	f2 0f 10 05 7a 40 01 	movsd  0x1407a(%rip),%xmm0        # 1e4f0 <l_816.4858+0xb0>
    a475:	00 
    a476:	f2 0f 59 c2          	mulsd  %xmm2,%xmm0
    a47a:	f2 0f 59 c1          	mulsd  %xmm1,%xmm0
    a47e:	f3 0f 7e 0d 4a 40 01 	movq   0x1404a(%rip),%xmm1        # 1e4d0 <l_816.4858+0x90>
    a485:	00 
    a486:	66 0f 54 c1          	andpd  %xmm1,%xmm0
    a48a:	66 0f 2f 05 66 40 01 	comisd 0x14066(%rip),%xmm0        # 1e4f8 <l_816.4858+0xb8>
    a491:	00 
    a492:	76 07                	jbe    a49b <safe_mul_func_double_f_f+0x55>
    a494:	f2 0f 10 45 f8       	movsd  -0x8(%rbp),%xmm0
    a499:	eb 0a                	jmp    a4a5 <safe_mul_func_double_f_f+0x5f>
    a49b:	f2 0f 10 45 f8       	movsd  -0x8(%rbp),%xmm0
    a4a0:	f2 0f 59 45 f0       	mulsd  -0x10(%rbp),%xmm0
    a4a5:	5d                   	pop    %rbp
    a4a6:	c3                   	retq   

000000000000a4a7 <safe_div_func_double_f_f>:
    a4a7:	f3 0f 1e fa          	endbr64 
    a4ab:	55                   	push   %rbp
    a4ac:	48 89 e5             	mov    %rsp,%rbp
    a4af:	f2 0f 11 45 f8       	movsd  %xmm0,-0x8(%rbp)
    a4b4:	f2 0f 11 4d f0       	movsd  %xmm1,-0x10(%rbp)
    a4b9:	f2 0f 10 45 f0       	movsd  -0x10(%rbp),%xmm0
    a4be:	f3 0f 7e 0d 0a 40 01 	movq   0x1400a(%rip),%xmm1        # 1e4d0 <l_816.4858+0x90>
    a4c5:	00 
    a4c6:	66 0f 54 c8          	andpd  %xmm0,%xmm1
    a4ca:	f2 0f 10 05 2e 40 01 	movsd  0x1402e(%rip),%xmm0        # 1e500 <l_816.4858+0xc0>
    a4d1:	00 
    a4d2:	66 0f 2f c1          	comisd %xmm1,%xmm0
    a4d6:	0f 97 c0             	seta   %al
    a4d9:	83 f0 01             	xor    $0x1,%eax
    a4dc:	84 c0                	test   %al,%al
    a4de:	75 5a                	jne    a53a <safe_div_func_double_f_f+0x93>
    a4e0:	66 0f ef c0          	pxor   %xmm0,%xmm0
    a4e4:	66 0f 2e 45 f0       	ucomisd -0x10(%rbp),%xmm0
    a4e9:	7a 0b                	jp     a4f6 <safe_div_func_double_f_f+0x4f>
    a4eb:	66 0f ef c0          	pxor   %xmm0,%xmm0
    a4ef:	66 0f 2e 45 f0       	ucomisd -0x10(%rbp),%xmm0
    a4f4:	74 50                	je     a546 <safe_div_func_double_f_f+0x9f>
    a4f6:	f2 0f 10 4d f8       	movsd  -0x8(%rbp),%xmm1
    a4fb:	f2 0f 10 05 05 40 01 	movsd  0x14005(%rip),%xmm0        # 1e508 <l_816.4858+0xc8>
    a502:	00 
    a503:	f2 0f 59 c1          	mulsd  %xmm1,%xmm0
    a507:	f2 0f 10 55 f0       	movsd  -0x10(%rbp),%xmm2
    a50c:	f2 0f 10 0d fc 3f 01 	movsd  0x13ffc(%rip),%xmm1        # 1e510 <l_816.4858+0xd0>
    a513:	00 
    a514:	f2 0f 59 ca          	mulsd  %xmm2,%xmm1
    a518:	f2 0f 5e c1          	divsd  %xmm1,%xmm0
    a51c:	f3 0f 7e 0d ac 3f 01 	movq   0x13fac(%rip),%xmm1        # 1e4d0 <l_816.4858+0x90>
    a523:	00 
    a524:	66 0f 54 c1          	andpd  %xmm1,%xmm0
    a528:	66 0f 2f 05 e8 3f 01 	comisd 0x13fe8(%rip),%xmm0        # 1e518 <l_816.4858+0xd8>
    a52f:	00 
    a530:	0f 97 c0             	seta   %al
    a533:	83 f0 01             	xor    $0x1,%eax
    a536:	84 c0                	test   %al,%al
    a538:	74 0c                	je     a546 <safe_div_func_double_f_f+0x9f>
    a53a:	f2 0f 10 45 f8       	movsd  -0x8(%rbp),%xmm0
    a53f:	f2 0f 5e 45 f0       	divsd  -0x10(%rbp),%xmm0
    a544:	eb 05                	jmp    a54b <safe_div_func_double_f_f+0xa4>
    a546:	f2 0f 10 45 f8       	movsd  -0x8(%rbp),%xmm0
    a54b:	5d                   	pop    %rbp
    a54c:	c3                   	retq   

000000000000a54d <safe_convert_func_float_to_int32_t>:
    a54d:	f3 0f 1e fa          	endbr64 
    a551:	55                   	push   %rbp
    a552:	48 89 e5             	mov    %rsp,%rbp
    a555:	f3 0f 11 45 fc       	movss  %xmm0,-0x4(%rbp)
    a55a:	f3 0f 10 05 be 3f 01 	movss  0x13fbe(%rip),%xmm0        # 1e520 <l_816.4858+0xe0>
    a561:	00 
    a562:	0f 2f 45 fc          	comiss -0x4(%rbp),%xmm0
    a566:	0f 93 c0             	setae  %al
    a569:	83 f0 01             	xor    $0x1,%eax
    a56c:	84 c0                	test   %al,%al
    a56e:	74 21                	je     a591 <safe_convert_func_float_to_int32_t+0x44>
    a570:	f3 0f 10 45 fc       	movss  -0x4(%rbp),%xmm0
    a575:	0f 2f 05 a8 3f 01 00 	comiss 0x13fa8(%rip),%xmm0        # 1e524 <l_816.4858+0xe4>
    a57c:	0f 93 c0             	setae  %al
    a57f:	83 f0 01             	xor    $0x1,%eax
    a582:	84 c0                	test   %al,%al
    a584:	74 0b                	je     a591 <safe_convert_func_float_to_int32_t+0x44>
    a586:	f3 0f 10 45 fc       	movss  -0x4(%rbp),%xmm0
    a58b:	f3 0f 2c c0          	cvttss2si %xmm0,%eax
    a58f:	eb 05                	jmp    a596 <safe_convert_func_float_to_int32_t+0x49>
    a591:	b8 ff ff ff 7f       	mov    $0x7fffffff,%eax
    a596:	5d                   	pop    %rbp
    a597:	c3                   	retq   

000000000000a598 <crc32_gentab>:
    a598:	f3 0f 1e fa          	endbr64 
    a59c:	55                   	push   %rbp
    a59d:	48 89 e5             	mov    %rsp,%rbp
    a5a0:	c7 45 fc 20 83 b8 ed 	movl   $0xedb88320,-0x4(%rbp)
    a5a7:	c7 45 f4 00 00 00 00 	movl   $0x0,-0xc(%rbp)
    a5ae:	eb 51                	jmp    a601 <crc32_gentab+0x69>
    a5b0:	8b 45 f4             	mov    -0xc(%rbp),%eax
    a5b3:	89 45 f0             	mov    %eax,-0x10(%rbp)
    a5b6:	c7 45 f8 08 00 00 00 	movl   $0x8,-0x8(%rbp)
    a5bd:	eb 1e                	jmp    a5dd <crc32_gentab+0x45>
    a5bf:	8b 45 f0             	mov    -0x10(%rbp),%eax
    a5c2:	83 e0 01             	and    $0x1,%eax
    a5c5:	85 c0                	test   %eax,%eax
    a5c7:	74 0d                	je     a5d6 <crc32_gentab+0x3e>
    a5c9:	8b 45 f0             	mov    -0x10(%rbp),%eax
    a5cc:	d1 e8                	shr    %eax
    a5ce:	33 45 fc             	xor    -0x4(%rbp),%eax
    a5d1:	89 45 f0             	mov    %eax,-0x10(%rbp)
    a5d4:	eb 03                	jmp    a5d9 <crc32_gentab+0x41>
    a5d6:	d1 6d f0             	shrl   -0x10(%rbp)
    a5d9:	83 6d f8 01          	subl   $0x1,-0x8(%rbp)
    a5dd:	83 7d f8 00          	cmpl   $0x0,-0x8(%rbp)
    a5e1:	7f dc                	jg     a5bf <crc32_gentab+0x27>
    a5e3:	8b 45 f4             	mov    -0xc(%rbp),%eax
    a5e6:	48 98                	cltq   
    a5e8:	48 8d 0c 85 00 00 00 	lea    0x0(,%rax,4),%rcx
    a5ef:	00 
    a5f0:	48 8d 15 89 e6 01 00 	lea    0x1e689(%rip),%rdx        # 28c80 <crc32_tab>
    a5f7:	8b 45 f0             	mov    -0x10(%rbp),%eax
    a5fa:	89 04 11             	mov    %eax,(%rcx,%rdx,1)
    a5fd:	83 45 f4 01          	addl   $0x1,-0xc(%rbp)
    a601:	81 7d f4 ff 00 00 00 	cmpl   $0xff,-0xc(%rbp)
    a608:	7e a6                	jle    a5b0 <crc32_gentab+0x18>
    a60a:	90                   	nop
    a60b:	90                   	nop
    a60c:	5d                   	pop    %rbp
    a60d:	c3                   	retq   

000000000000a60e <crc32_byte>:
    a60e:	f3 0f 1e fa          	endbr64 
    a612:	55                   	push   %rbp
    a613:	48 89 e5             	mov    %rsp,%rbp
    a616:	89 f8                	mov    %edi,%eax
    a618:	88 45 fc             	mov    %al,-0x4(%rbp)
    a61b:	8b 05 ff 69 01 00    	mov    0x169ff(%rip),%eax        # 21020 <crc32_context>
    a621:	c1 e8 08             	shr    $0x8,%eax
    a624:	89 c1                	mov    %eax,%ecx
    a626:	0f b6 55 fc          	movzbl -0x4(%rbp),%edx
    a62a:	8b 05 f0 69 01 00    	mov    0x169f0(%rip),%eax        # 21020 <crc32_context>
    a630:	31 d0                	xor    %edx,%eax
    a632:	0f b6 c0             	movzbl %al,%eax
    a635:	89 c0                	mov    %eax,%eax
    a637:	48 8d 14 85 00 00 00 	lea    0x0(,%rax,4),%rdx
    a63e:	00 
    a63f:	48 8d 05 3a e6 01 00 	lea    0x1e63a(%rip),%rax        # 28c80 <crc32_tab>
    a646:	8b 04 02             	mov    (%rdx,%rax,1),%eax
    a649:	31 c8                	xor    %ecx,%eax
    a64b:	89 05 cf 69 01 00    	mov    %eax,0x169cf(%rip)        # 21020 <crc32_context>
    a651:	90                   	nop
    a652:	5d                   	pop    %rbp
    a653:	c3                   	retq   

000000000000a654 <crc32_8bytes>:
    a654:	f3 0f 1e fa          	endbr64 
    a658:	55                   	push   %rbp
    a659:	48 89 e5             	mov    %rsp,%rbp
    a65c:	48 83 ec 08          	sub    $0x8,%rsp
    a660:	48 89 7d f8          	mov    %rdi,-0x8(%rbp)
    a664:	48 8b 45 f8          	mov    -0x8(%rbp),%rax
    a668:	0f b6 c0             	movzbl %al,%eax
    a66b:	89 c7                	mov    %eax,%edi
    a66d:	e8 9c ff ff ff       	callq  a60e <crc32_byte>
    a672:	48 8b 45 f8          	mov    -0x8(%rbp),%rax
    a676:	48 c1 e8 08          	shr    $0x8,%rax
    a67a:	0f b6 c0             	movzbl %al,%eax
    a67d:	89 c7                	mov    %eax,%edi
    a67f:	e8 8a ff ff ff       	callq  a60e <crc32_byte>
    a684:	48 8b 45 f8          	mov    -0x8(%rbp),%rax
    a688:	48 c1 e8 10          	shr    $0x10,%rax
    a68c:	0f b6 c0             	movzbl %al,%eax
    a68f:	89 c7                	mov    %eax,%edi
    a691:	e8 78 ff ff ff       	callq  a60e <crc32_byte>
    a696:	48 8b 45 f8          	mov    -0x8(%rbp),%rax
    a69a:	48 c1 e8 18          	shr    $0x18,%rax
    a69e:	0f b6 c0             	movzbl %al,%eax
    a6a1:	89 c7                	mov    %eax,%edi
    a6a3:	e8 66 ff ff ff       	callq  a60e <crc32_byte>
    a6a8:	48 8b 45 f8          	mov    -0x8(%rbp),%rax
    a6ac:	48 c1 e8 20          	shr    $0x20,%rax
    a6b0:	0f b6 c0             	movzbl %al,%eax
    a6b3:	89 c7                	mov    %eax,%edi
    a6b5:	e8 54 ff ff ff       	callq  a60e <crc32_byte>
    a6ba:	48 8b 45 f8          	mov    -0x8(%rbp),%rax
    a6be:	48 c1 e8 28          	shr    $0x28,%rax
    a6c2:	0f b6 c0             	movzbl %al,%eax
    a6c5:	89 c7                	mov    %eax,%edi
    a6c7:	e8 42 ff ff ff       	callq  a60e <crc32_byte>
    a6cc:	48 8b 45 f8          	mov    -0x8(%rbp),%rax
    a6d0:	48 c1 e8 30          	shr    $0x30,%rax
    a6d4:	0f b6 c0             	movzbl %al,%eax
    a6d7:	89 c7                	mov    %eax,%edi
    a6d9:	e8 30 ff ff ff       	callq  a60e <crc32_byte>
    a6de:	48 8b 45 f8          	mov    -0x8(%rbp),%rax
    a6e2:	48 c1 e8 38          	shr    $0x38,%rax
    a6e6:	0f b6 c0             	movzbl %al,%eax
    a6e9:	89 c7                	mov    %eax,%edi
    a6eb:	e8 1e ff ff ff       	callq  a60e <crc32_byte>
    a6f0:	90                   	nop
    a6f1:	c9                   	leaveq 
    a6f2:	c3                   	retq   

000000000000a6f3 <transparent_crc>:
    a6f3:	f3 0f 1e fa          	endbr64 
    a6f7:	55                   	push   %rbp
    a6f8:	48 89 e5             	mov    %rsp,%rbp
    a6fb:	48 83 ec 20          	sub    $0x20,%rsp
    a6ff:	48 89 7d f8          	mov    %rdi,-0x8(%rbp)
    a703:	48 89 75 f0          	mov    %rsi,-0x10(%rbp)
    a707:	89 55 ec             	mov    %edx,-0x14(%rbp)
    a70a:	48 8b 45 f8          	mov    -0x8(%rbp),%rax
    a70e:	48 89 c7             	mov    %rax,%rdi
    a711:	e8 3e ff ff ff       	callq  a654 <crc32_8bytes>
    a716:	83 7d ec 00          	cmpl   $0x0,-0x14(%rbp)
    a71a:	74 22                	je     a73e <transparent_crc+0x4b>
    a71c:	8b 05 fe 68 01 00    	mov    0x168fe(%rip),%eax        # 21020 <crc32_context>
    a722:	f7 d0                	not    %eax
    a724:	89 c2                	mov    %eax,%edx
    a726:	48 8b 45 f0          	mov    -0x10(%rbp),%rax
    a72a:	48 89 c6             	mov    %rax,%rsi
    a72d:	48 8d 3d fc 18 01 00 	lea    0x118fc(%rip),%rdi        # 1c030 <_IO_stdin_used+0x30>
    a734:	b8 00 00 00 00       	mov    $0x0,%eax
    a739:	e8 42 e9 ff ff       	callq  9080 <printf@plt>
    a73e:	90                   	nop
    a73f:	c9                   	leaveq 
    a740:	c3                   	retq   

000000000000a741 <transparent_crc_bytes>:
    a741:	f3 0f 1e fa          	endbr64 
    a745:	55                   	push   %rbp
    a746:	48 89 e5             	mov    %rsp,%rbp
    a749:	48 83 ec 30          	sub    $0x30,%rsp
    a74d:	48 89 7d e8          	mov    %rdi,-0x18(%rbp)
    a751:	89 75 e4             	mov    %esi,-0x1c(%rbp)
    a754:	48 89 55 d8          	mov    %rdx,-0x28(%rbp)
    a758:	89 4d e0             	mov    %ecx,-0x20(%rbp)
    a75b:	c7 45 fc 00 00 00 00 	movl   $0x0,-0x4(%rbp)
    a762:	eb 1e                	jmp    a782 <transparent_crc_bytes+0x41>
    a764:	8b 45 fc             	mov    -0x4(%rbp),%eax
    a767:	48 63 d0             	movslq %eax,%rdx
    a76a:	48 8b 45 e8          	mov    -0x18(%rbp),%rax
    a76e:	48 01 d0             	add    %rdx,%rax
    a771:	0f b6 00             	movzbl (%rax),%eax
    a774:	0f b6 c0             	movzbl %al,%eax
    a777:	89 c7                	mov    %eax,%edi
    a779:	e8 90 fe ff ff       	callq  a60e <crc32_byte>
    a77e:	83 45 fc 01          	addl   $0x1,-0x4(%rbp)
    a782:	8b 45 fc             	mov    -0x4(%rbp),%eax
    a785:	3b 45 e4             	cmp    -0x1c(%rbp),%eax
    a788:	7c da                	jl     a764 <transparent_crc_bytes+0x23>
    a78a:	83 7d e0 00          	cmpl   $0x0,-0x20(%rbp)
    a78e:	74 22                	je     a7b2 <transparent_crc_bytes+0x71>
    a790:	8b 05 8a 68 01 00    	mov    0x1688a(%rip),%eax        # 21020 <crc32_context>
    a796:	f7 d0                	not    %eax
    a798:	89 c2                	mov    %eax,%edx
    a79a:	48 8b 45 d8          	mov    -0x28(%rbp),%rax
    a79e:	48 89 c6             	mov    %rax,%rsi
    a7a1:	48 8d 3d 88 18 01 00 	lea    0x11888(%rip),%rdi        # 1c030 <_IO_stdin_used+0x30>
    a7a8:	b8 00 00 00 00       	mov    $0x0,%eax
    a7ad:	e8 ce e8 ff ff       	callq  9080 <printf@plt>
    a7b2:	90                   	nop
    a7b3:	c9                   	leaveq 
    a7b4:	c3                   	retq   

000000000000a7b5 <func_1>:
    a7b5:	f3 0f 1e fa          	endbr64 
    a7b9:	55                   	push   %rbp
    a7ba:	48 89 e5             	mov    %rsp,%rbp
    a7bd:	41 57                	push   %r15
    a7bf:	41 56                	push   %r14
    a7c1:	41 55                	push   %r13
    a7c3:	41 54                	push   %r12
    a7c5:	53                   	push   %rbx
    a7c6:	48 81 ec 08 01 00 00 	sub    $0x108,%rsp
    a7cd:	64 48 8b 04 25 28 00 	mov    %fs:0x28,%rax
    a7d4:	00 00 
    a7d6:	48 89 45 c8          	mov    %rax,-0x38(%rbp)
    a7da:	31 c0                	xor    %eax,%eax
    a7dc:	66 c7 85 ec fe ff ff 	movw   $0x1,-0x114(%rbp)
    a7e3:	01 00 
    a7e5:	66 c7 85 ee fe ff ff 	movw   $0xeb94,-0x112(%rbp)
    a7ec:	94 eb 
    a7ee:	c7 85 f0 fe ff ff e1 	movl   $0xe7ac75e1,-0x110(%rbp)
    a7f5:	75 ac e7 
    a7f8:	48 c7 45 80 00 00 00 	movq   $0x0,-0x80(%rbp)
    a7ff:	00 
    a800:	48 c7 45 88 00 00 00 	movq   $0x0,-0x78(%rbp)
    a807:	00 
    a808:	48 c7 45 90 00 00 00 	movq   $0x0,-0x70(%rbp)
    a80f:	00 
    a810:	48 c7 45 98 00 00 00 	movq   $0x0,-0x68(%rbp)
    a817:	00 
    a818:	48 c7 45 a0 00 00 00 	movq   $0x0,-0x60(%rbp)
    a81f:	00 
    a820:	48 c7 45 a8 00 00 00 	movq   $0x0,-0x58(%rbp)
    a827:	00 
    a828:	48 c7 45 b0 00 00 00 	movq   $0x0,-0x50(%rbp)
    a82f:	00 
    a830:	48 c7 45 b8 00 00 00 	movq   $0x0,-0x48(%rbp)
    a837:	00 
    a838:	c7 05 ea 67 01 00 00 	movl   $0x0,0x167ea(%rip)        # 2102c <g_3+0x4>
    a83f:	00 00 00 
    a842:	90                   	nop
    a843:	8b 05 e3 67 01 00    	mov    0x167e3(%rip),%eax        # 2102c <g_3+0x4>
    a849:	83 f8 ec             	cmp    $0xffffffec,%eax
    a84c:	0f 8c 09 03 00 00    	jl     ab5b <func_1+0x3a6>
    a852:	c7 85 f4 fe ff ff 4d 	movl   $0x3818264d,-0x10c(%rbp)
    a859:	26 18 38 
    a85c:	48 8d 05 cd 67 01 00 	lea    0x167cd(%rip),%rax        # 21030 <g_27>
    a863:	48 89 85 00 ff ff ff 	mov    %rax,-0x100(%rbp)
    a86a:	48 8d 05 bf 67 01 00 	lea    0x167bf(%rip),%rax        # 21030 <g_27>
    a871:	48 89 85 08 ff ff ff 	mov    %rax,-0xf8(%rbp)
    a878:	48 8d 05 b1 67 01 00 	lea    0x167b1(%rip),%rax        # 21030 <g_27>
    a87f:	48 89 85 10 ff ff ff 	mov    %rax,-0xf0(%rbp)
    a886:	48 8d 05 a3 67 01 00 	lea    0x167a3(%rip),%rax        # 21030 <g_27>
    a88d:	48 89 85 18 ff ff ff 	mov    %rax,-0xe8(%rbp)
    a894:	48 8d 05 95 67 01 00 	lea    0x16795(%rip),%rax        # 21030 <g_27>
    a89b:	48 89 85 20 ff ff ff 	mov    %rax,-0xe0(%rbp)
    a8a2:	48 8d 05 87 67 01 00 	lea    0x16787(%rip),%rax        # 21030 <g_27>
    a8a9:	48 89 85 28 ff ff ff 	mov    %rax,-0xd8(%rbp)
    a8b0:	48 8d 05 79 67 01 00 	lea    0x16779(%rip),%rax        # 21030 <g_27>
    a8b7:	48 89 85 30 ff ff ff 	mov    %rax,-0xd0(%rbp)
    a8be:	c7 85 f8 fe ff ff 91 	movl   $0x8eaab991,-0x108(%rbp)
    a8c5:	b9 aa 8e 
    a8c8:	48 c7 85 40 ff ff ff 	movq   $0x0,-0xc0(%rbp)
    a8cf:	00 00 00 00 
    a8d3:	48 c7 85 48 ff ff ff 	movq   $0x0,-0xb8(%rbp)
    a8da:	00 00 00 00 
    a8de:	48 c7 85 50 ff ff ff 	movq   $0x0,-0xb0(%rbp)
    a8e5:	00 00 00 00 
    a8e9:	48 c7 85 58 ff ff ff 	movq   $0x0,-0xa8(%rbp)
    a8f0:	00 00 00 00 
    a8f4:	48 c7 85 60 ff ff ff 	movq   $0x0,-0xa0(%rbp)
    a8fb:	00 00 00 00 
    a8ff:	48 c7 85 68 ff ff ff 	movq   $0x0,-0x98(%rbp)
    a906:	00 00 00 00 
    a90a:	48 c7 85 70 ff ff ff 	movq   $0x0,-0x90(%rbp)
    a911:	00 00 00 00 
    a915:	44 8b 3d 10 67 01 00 	mov    0x16710(%rip),%r15d        # 2102c <g_3+0x4>
    a91c:	8b 05 0a 67 01 00    	mov    0x1670a(%rip),%eax        # 2102c <g_3+0x4>
    a922:	0f bf d8             	movswl %ax,%ebx
    a925:	8b 05 01 67 01 00    	mov    0x16701(%rip),%eax        # 2102c <g_3+0x4>
    a92b:	48 98                	cltq   
    a92d:	48 89 85 d8 fe ff ff 	mov    %rax,-0x128(%rbp)
    a934:	0f b6 05 54 8e 01 00 	movzbl 0x18e54(%rip),%eax        # 2378f <g_890+0xf>
    a93b:	c1 e0 03             	shl    $0x3,%eax
    a93e:	c0 f8 07             	sar    $0x7,%al
    a941:	4c 0f be e0          	movsbq %al,%r12
    a945:	0f b7 05 b4 3a 01 00 	movzwl 0x13ab4(%rip),%eax        # 1e400 <l_24.4223+0x8>
    a94c:	44 0f b7 f0          	movzwl %ax,%r14d
    a950:	48 8b 05 31 d6 01 00 	mov    0x1d631(%rip),%rax        # 27f88 <g_829>
    a957:	0f b6 00             	movzbl (%rax),%eax
    a95a:	44 0f be e8          	movsbl %al,%r13d
    a95e:	8b 85 f4 fe ff ff    	mov    -0x10c(%rbp),%eax
    a964:	48 63 f8             	movslq %eax,%rdi
    a967:	48 89 bd d0 fe ff ff 	mov    %rdi,-0x130(%rbp)
    a96e:	be 0c 00 00 00       	mov    $0xc,%esi
    a973:	bf 00 00 00 00       	mov    $0x0,%edi
    a978:	e8 e6 eb ff ff       	callq  9563 <safe_rshift_func_int16_t_s_u>
    a97d:	48 0f bf c8          	movswq %ax,%rcx
    a981:	8b 85 f4 fe ff ff    	mov    -0x10c(%rbp),%eax
    a987:	66 89 85 ee fe ff ff 	mov    %ax,-0x112(%rbp)
    a98e:	48 0f bf 95 ee fe ff 	movswq -0x112(%rbp),%rdx
    a995:	ff 
    a996:	48 8b 35 5b 3a 01 00 	mov    0x13a5b(%rip),%rsi        # 1e3f8 <l_24.4223>
    a99d:	8b 05 5d 3a 01 00    	mov    0x13a5d(%rip),%eax        # 1e400 <l_24.4223+0x8>
    a9a3:	4c 8b 85 d0 fe ff ff 	mov    -0x130(%rbp),%r8
    a9aa:	48 89 f7             	mov    %rsi,%rdi
    a9ad:	89 c6                	mov    %eax,%esi
    a9af:	e8 47 07 00 00       	callq  b0fb <func_19>
    a9b4:	89 c6                	mov    %eax,%esi
    a9b6:	8b 05 70 66 01 00    	mov    0x16670(%rip),%eax        # 2102c <g_3+0x4>
    a9bc:	98                   	cwtl   
    a9bd:	4c 89 f1             	mov    %r14,%rcx
    a9c0:	44 89 ea             	mov    %r13d,%edx
    a9c3:	89 c7                	mov    %eax,%edi
    a9c5:	e8 d2 01 00 00       	callq  ab9c <func_13>
    a9ca:	4c 89 e6             	mov    %r12,%rsi
    a9cd:	48 89 c7             	mov    %rax,%rdi
    a9d0:	e8 ab f6 ff ff       	callq  a080 <safe_mod_func_uint64_t_u_u>
    a9d5:	48 33 85 d8 fe ff ff 	xor    -0x128(%rbp),%rax
    a9dc:	89 c2                	mov    %eax,%edx
    a9de:	8b 85 f8 fe ff ff    	mov    -0x108(%rbp),%eax
    a9e4:	31 d0                	xor    %edx,%eax
    a9e6:	89 85 f8 fe ff ff    	mov    %eax,-0x108(%rbp)
    a9ec:	8b 85 f8 fe ff ff    	mov    -0x108(%rbp),%eax
    a9f2:	48 98                	cltq   
    a9f4:	be 07 00 00 00       	mov    $0x7,%esi
    a9f9:	48 89 c7             	mov    %rax,%rdi
    a9fc:	e8 40 ee ff ff       	callq  9841 <safe_add_func_int64_t_s_s>
    aa01:	0f b7 05 f8 39 01 00 	movzwl 0x139f8(%rip),%eax        # 1e400 <l_24.4223+0x8>
    aa08:	66 85 c0             	test   %ax,%ax
    aa0b:	75 10                	jne    aa1d <func_1+0x268>
    aa0d:	83 bd f4 fe ff ff 00 	cmpl   $0x0,-0x10c(%rbp)
    aa14:	74 07                	je     aa1d <func_1+0x268>
    aa16:	b8 01 00 00 00       	mov    $0x1,%eax
    aa1b:	eb 05                	jmp    aa22 <func_1+0x26d>
    aa1d:	b8 00 00 00 00       	mov    $0x0,%eax
    aa22:	89 85 f0 fe ff ff    	mov    %eax,-0x110(%rbp)
    aa28:	8b 85 f0 fe ff ff    	mov    -0x110(%rbp),%eax
    aa2e:	98                   	cwtl   
    aa2f:	89 de                	mov    %ebx,%esi
    aa31:	89 c7                	mov    %eax,%edi
    aa33:	e8 7b e9 ff ff       	callq  93b3 <safe_add_func_int16_t_s_s>
    aa38:	0f bf d0             	movswl %ax,%edx
    aa3b:	48 8b 05 6e d5 01 00 	mov    0x1d56e(%rip),%rax        # 27fb0 <g_1052>
    aa42:	44 09 fa             	or     %r15d,%edx
    aa45:	89 10                	mov    %edx,(%rax)
    aa47:	8b 05 e7 6b 01 00    	mov    0x16be7(%rip),%eax        # 21634 <g_442+0x4>
    aa4d:	c1 e0 05             	shl    $0x5,%eax
    aa50:	c1 f8 0d             	sar    $0xd,%eax
    aa53:	41 89 c6             	mov    %eax,%r14d
    aa56:	48 8b 05 73 d7 01 00 	mov    0x1d773(%rip),%rax        # 281d0 <g_1408>
    aa5d:	0f b6 00             	movzbl (%rax),%eax
    aa60:	0f b6 d8             	movzbl %al,%ebx
    aa63:	8b 05 8b 6d 01 00    	mov    0x16d8b(%rip),%eax        # 217f4 <g_445+0x4>
    aa69:	c1 e0 05             	shl    $0x5,%eax
    aa6c:	c1 f8 0d             	sar    $0xd,%eax
    aa6f:	41 89 c4             	mov    %eax,%r12d
    aa72:	8b 05 54 97 01 00    	mov    0x19754(%rip),%eax        # 241cc <g_1243+0x4c>
    aa78:	41 89 c5             	mov    %eax,%r13d
    aa7b:	be 47 00 00 00       	mov    $0x47,%esi
    aa80:	bf 6c 00 00 00       	mov    $0x6c,%edi
    aa85:	e8 68 e7 ff ff       	callq  91f2 <safe_sub_func_int8_t_s_s>
    aa8a:	b8 f9 fe ff ff       	mov    $0xfffffef9,%eax
    aa8f:	3d fc ff 00 00       	cmp    $0xfffc,%eax
    aa94:	0f 95 c0             	setne  %al
    aa97:	0f b6 c0             	movzbl %al,%eax
    aa9a:	44 89 ee             	mov    %r13d,%esi
    aa9d:	89 c7                	mov    %eax,%edi
    aa9f:	e8 28 ec ff ff       	callq  96cc <safe_mod_func_int32_t_s_s>
    aaa4:	0f b7 c0             	movzwl %ax,%eax
    aaa7:	89 c6                	mov    %eax,%esi
    aaa9:	bf 00 00 00 00       	mov    $0x0,%edi
    aaae:	e8 8a f2 ff ff       	callq  9d3d <safe_mul_func_uint16_t_u_u>
    aab3:	0f be d0             	movsbl %al,%edx
    aab6:	8b 05 40 39 01 00    	mov    0x13940(%rip),%eax        # 1e3fc <l_24.4223+0x4>
    aabc:	0f be c0             	movsbl %al,%eax
    aabf:	89 d6                	mov    %edx,%esi
    aac1:	89 c7                	mov    %eax,%edi
    aac3:	e8 a2 e7 ff ff       	callq  926a <safe_div_func_int8_t_s_s>
    aac8:	83 bd f4 fe ff ff 00 	cmpl   $0x0,-0x10c(%rbp)
    aacf:	44 89 e6             	mov    %r12d,%esi
    aad2:	bf f3 f1 e4 18       	mov    $0x18e4f1f3,%edi
    aad7:	e8 49 f4 ff ff       	callq  9f25 <safe_div_func_uint32_t_u_u>
    aadc:	0f be c0             	movsbl %al,%eax
    aadf:	89 de                	mov    %ebx,%esi
    aae1:	89 c7                	mov    %eax,%edi
    aae3:	e8 06 e8 ff ff       	callq  92ee <safe_lshift_func_int8_t_s_u>
    aae8:	0f be c0             	movsbl %al,%eax
    aaeb:	39 85 f4 fe ff ff    	cmp    %eax,-0x10c(%rbp)
    aaf1:	0f 9c c0             	setl   %al
    aaf4:	0f b6 c0             	movzbl %al,%eax
    aaf7:	be 0a 7e 00 00       	mov    $0x7e0a,%esi
    aafc:	89 c7                	mov    %eax,%edi
    aafe:	e8 8b f2 ff ff       	callq  9d8e <safe_div_func_uint16_t_u_u>
    ab03:	0f b7 d0             	movzwl %ax,%edx
    ab06:	48 8b 05 33 e1 01 00 	mov    0x1e133(%rip),%rax        # 28c40 <g_2105>
    ab0d:	44 21 f2             	and    %r14d,%edx
    ab10:	89 10                	mov    %edx,(%rax)
    ab12:	c7 05 d8 92 01 00 11 	movl   $0x11,0x192d8(%rip)        # 23df4 <g_1239>
    ab19:	00 00 00 
    ab1c:	eb 29                	jmp    ab47 <func_1+0x392>
    ab1e:	c7 85 fc fe ff ff 03 	movl   $0x3,-0x104(%rbp)
    ab25:	00 00 00 
    ab28:	83 ad fc fe ff ff 01 	subl   $0x1,-0x104(%rbp)
    ab2f:	8b 05 bf 92 01 00    	mov    0x192bf(%rip),%eax        # 23df4 <g_1239>
    ab35:	be 09 00 00 00       	mov    $0x9,%esi
    ab3a:	89 c7                	mov    %eax,%edi
    ab3c:	e8 75 ea ff ff       	callq  95b6 <safe_add_func_int32_t_s_s>
    ab41:	89 05 ad 92 01 00    	mov    %eax,0x192ad(%rip)        # 23df4 <g_1239>
    ab47:	8b 05 a7 92 01 00    	mov    0x192a7(%rip),%eax        # 23df4 <g_1239>
    ab4d:	83 f8 20             	cmp    $0x20,%eax
    ab50:	76 cc                	jbe    ab1e <func_1+0x369>
    ab52:	0f b7 05 a7 38 01 00 	movzwl 0x138a7(%rip),%eax        # 1e400 <l_24.4223+0x8>
    ab59:	eb 1b                	jmp    ab76 <func_1+0x3c1>
    ab5b:	48 8b 05 26 df 01 00 	mov    0x1df26(%rip),%rax        # 28a88 <g_1593>
    ab62:	48 c7 00 00 00 00 00 	movq   $0x0,(%rax)
    ab69:	48 8b 05 f8 cb 01 00 	mov    0x1cbf8(%rip),%rax        # 27768 <g_125>
    ab70:	48 8b 00             	mov    (%rax),%rax
    ab73:	0f b7 00             	movzwl (%rax),%eax
    ab76:	48 8b 5d c8          	mov    -0x38(%rbp),%rbx
    ab7a:	64 48 33 1c 25 28 00 	xor    %fs:0x28,%rbx
    ab81:	00 00 
    ab83:	74 05                	je     ab8a <func_1+0x3d5>
    ab85:	e8 e6 e4 ff ff       	callq  9070 <__stack_chk_fail@plt>
    ab8a:	48 81 c4 08 01 00 00 	add    $0x108,%rsp
    ab91:	5b                   	pop    %rbx
    ab92:	41 5c                	pop    %r12
    ab94:	41 5d                	pop    %r13
    ab96:	41 5e                	pop    %r14
    ab98:	41 5f                	pop    %r15
    ab9a:	5d                   	pop    %rbp
    ab9b:	c3                   	retq   

000000000000ab9c <func_13>:
    ab9c:	f3 0f 1e fa          	endbr64 
    aba0:	55                   	push   %rbp
    aba1:	48 89 e5             	mov    %rsp,%rbp
    aba4:	48 81 ec 40 0d 00 00 	sub    $0xd40,%rsp
    abab:	89 f8                	mov    %edi,%eax
    abad:	89 b5 d8 f2 ff ff    	mov    %esi,-0xd28(%rbp)
    abb3:	48 89 8d c8 f2 ff ff 	mov    %rcx,-0xd38(%rbp)
    abba:	66 89 85 dc f2 ff ff 	mov    %ax,-0xd24(%rbp)
    abc1:	89 d0                	mov    %edx,%eax
    abc3:	88 85 d4 f2 ff ff    	mov    %al,-0xd2c(%rbp)
    abc9:	64 48 8b 04 25 28 00 	mov    %fs:0x28,%rax
    abd0:	00 00 
    abd2:	48 89 45 f8          	mov    %rax,-0x8(%rbp)
    abd6:	31 c0                	xor    %eax,%eax
    abd8:	c7 85 fc f2 ff ff 17 	movl   $0xe1f9b217,-0xd04(%rbp)
    abdf:	b2 f9 e1 
    abe2:	48 c7 85 00 f4 ff ff 	movq   $0x0,-0xc00(%rbp)
    abe9:	00 00 00 00 
    abed:	48 c7 85 08 f4 ff ff 	movq   $0x0,-0xbf8(%rbp)
    abf4:	00 00 00 00 
    abf8:	48 c7 85 10 f4 ff ff 	movq   $0x0,-0xbf0(%rbp)
    abff:	00 00 00 00 
    ac03:	48 c7 85 18 f4 ff ff 	movq   $0x0,-0xbe8(%rbp)
    ac0a:	00 00 00 00 
    ac0e:	48 c7 85 20 f4 ff ff 	movq   $0x0,-0xbe0(%rbp)
    ac15:	00 00 00 00 
    ac19:	48 8d 05 20 7d 01 00 	lea    0x17d20(%rip),%rax        # 22940 <g_742>
    ac20:	48 89 85 28 f4 ff ff 	mov    %rax,-0xbd8(%rbp)
    ac27:	48 8d 05 fe 63 01 00 	lea    0x163fe(%rip),%rax        # 2102c <g_3+0x4>
    ac2e:	48 89 85 30 f4 ff ff 	mov    %rax,-0xbd0(%rbp)
    ac35:	48 8d 05 04 7d 01 00 	lea    0x17d04(%rip),%rax        # 22940 <g_742>
    ac3c:	48 89 85 38 f4 ff ff 	mov    %rax,-0xbc8(%rbp)
    ac43:	48 8d 05 e2 63 01 00 	lea    0x163e2(%rip),%rax        # 2102c <g_3+0x4>
    ac4a:	48 89 85 40 f4 ff ff 	mov    %rax,-0xbc0(%rbp)
    ac51:	48 8d 05 e8 7c 01 00 	lea    0x17ce8(%rip),%rax        # 22940 <g_742>
    ac58:	48 89 85 48 f4 ff ff 	mov    %rax,-0xbb8(%rbp)
    ac5f:	c7 85 00 f3 ff ff ff 	movl   $0xffffffff,-0xd00(%rbp)
    ac66:	ff ff ff 
    ac69:	66 c7 85 ee f2 ff ff 	movw   $0x3315,-0xd12(%rbp)
    ac70:	15 33 
    ac72:	48 c7 85 00 f5 ff ff 	movq   $0xffffffffffffffff,-0xb00(%rbp)
    ac79:	ff ff ff ff 
    ac7d:	48 be 86 45 fd de 95 	movabs $0x1e74b795defd4586,%rsi
    ac84:	b7 74 1e 
    ac87:	48 89 b5 08 f5 ff ff 	mov    %rsi,-0xaf8(%rbp)
    ac8e:	48 c7 85 10 f5 ff ff 	movq   $0x1,-0xaf0(%rbp)
    ac95:	01 00 00 00 
    ac99:	48 c7 85 18 f5 ff ff 	movq   $0x1,-0xae8(%rbp)
    aca0:	01 00 00 00 
    aca4:	48 c7 85 20 f5 ff ff 	movq   $0x1,-0xae0(%rbp)
    acab:	01 00 00 00 
    acaf:	48 c7 85 28 f5 ff ff 	movq   $0x1,-0xad8(%rbp)
    acb6:	01 00 00 00 
    acba:	48 c7 85 30 f5 ff ff 	movq   $0xffffffffffffffff,-0xad0(%rbp)
    acc1:	ff ff ff ff 
    acc5:	48 c7 85 38 f5 ff ff 	movq   $0x1,-0xac8(%rbp)
    accc:	01 00 00 00 
    acd0:	48 b8 84 f7 0a 7c 4d 	movabs $0x19be244d7c0af784,%rax
    acd7:	24 be 19 
    acda:	48 89 85 40 f5 ff ff 	mov    %rax,-0xac0(%rbp)
    ace1:	48 89 b5 48 f5 ff ff 	mov    %rsi,-0xab8(%rbp)
    ace8:	48 89 85 50 f5 ff ff 	mov    %rax,-0xab0(%rbp)
    acef:	48 c7 85 58 f5 ff ff 	movq   $0xffffffffffffffff,-0xaa8(%rbp)
    acf6:	ff ff ff ff 
    acfa:	48 89 85 60 f5 ff ff 	mov    %rax,-0xaa0(%rbp)
    ad01:	48 c7 85 68 f5 ff ff 	movq   $0xffffffffffffffff,-0xa98(%rbp)
    ad08:	ff ff ff ff 
    ad0c:	48 c7 85 70 f5 ff ff 	movq   $0xffffffffffffffff,-0xa90(%rbp)
    ad13:	ff ff ff ff 
    ad17:	48 89 85 78 f5 ff ff 	mov    %rax,-0xa88(%rbp)
    ad1e:	48 c7 85 80 f5 ff ff 	movq   $0x1,-0xa80(%rbp)
    ad25:	01 00 00 00 
    ad29:	48 c7 85 88 f5 ff ff 	movq   $0xffffffffffffffff,-0xa78(%rbp)
    ad30:	ff ff ff ff 
    ad34:	48 c7 85 90 f5 ff ff 	movq   $0x1,-0xa70(%rbp)
    ad3b:	01 00 00 00 
    ad3f:	48 c7 85 98 f5 ff ff 	movq   $0xffffffffffffffff,-0xa68(%rbp)
    ad46:	ff ff ff ff 
    ad4a:	c7 85 04 f3 ff ff 6d 	movl   $0x8db3d6d,-0xcfc(%rbp)
    ad51:	3d db 08 
    ad54:	c7 85 08 f3 ff ff 00 	movl   $0x0,-0xcf8(%rbp)
    ad5b:	00 00 00 
    ad5e:	c6 85 eb f2 ff ff 28 	movb   $0x28,-0xd15(%rbp)
    ad65:	c7 85 0c f3 ff ff 00 	movl   $0x0,-0xcf4(%rbp)
    ad6c:	00 00 00 
    ad6f:	c7 85 10 f3 ff ff 6c 	movl   $0x51ac0f6c,-0xcf0(%rbp)
    ad76:	0f ac 51 
    ad79:	48 c7 85 20 f3 ff ff 	movq   $0x0,-0xce0(%rbp)
    ad80:	00 00 00 00 
    ad84:	48 8d 05 8d 64 01 00 	lea    0x1648d(%rip),%rax        # 21218 <g_185>
    ad8b:	48 89 85 28 f3 ff ff 	mov    %rax,-0xcd8(%rbp)
    ad92:	c7 85 14 f3 ff ff 04 	movl   $0x42d2db04,-0xcec(%rbp)
    ad99:	db d2 42 
    ad9c:	c7 85 b0 f3 ff ff 34 	movl   $0xc9400b34,-0xc50(%rbp)
    ada3:	0b 40 c9 
    ada6:	c7 85 b4 f3 ff ff f9 	movl   $0xfffffff9,-0xc4c(%rbp)
    adad:	ff ff ff 
    adb0:	c7 85 b8 f3 ff ff f9 	movl   $0xfffffff9,-0xc48(%rbp)
    adb7:	ff ff ff 
    adba:	c7 85 bc f3 ff ff 34 	movl   $0xc9400b34,-0xc44(%rbp)
    adc1:	0b 40 c9 
    adc4:	c7 85 c0 f3 ff ff f9 	movl   $0xfffffff9,-0xc40(%rbp)
    adcb:	ff ff ff 
    adce:	c7 85 c4 f3 ff ff f9 	movl   $0xfffffff9,-0xc3c(%rbp)
    add5:	ff ff ff 
    add8:	c7 85 c8 f3 ff ff 34 	movl   $0xc9400b34,-0xc38(%rbp)
    addf:	0b 40 c9 
    ade2:	c7 85 cc f3 ff ff f9 	movl   $0xfffffff9,-0xc34(%rbp)
    ade9:	ff ff ff 
    adec:	c7 85 d0 f3 ff ff f9 	movl   $0xfffffff9,-0xc30(%rbp)
    adf3:	ff ff ff 
    adf6:	c7 85 d4 f3 ff ff 34 	movl   $0xc9400b34,-0xc2c(%rbp)
    adfd:	0b 40 c9 
    ae00:	c7 85 d8 f3 ff ff f9 	movl   $0xfffffff9,-0xc28(%rbp)
    ae07:	ff ff ff 
    ae0a:	c7 85 dc f3 ff ff f9 	movl   $0xfffffff9,-0xc24(%rbp)
    ae11:	ff ff ff 
    ae14:	c7 85 e0 f3 ff ff 34 	movl   $0xc9400b34,-0xc20(%rbp)
    ae1b:	0b 40 c9 
    ae1e:	c7 85 e4 f3 ff ff f9 	movl   $0xfffffff9,-0xc1c(%rbp)
    ae25:	ff ff ff 
    ae28:	c7 85 e8 f3 ff ff f9 	movl   $0xfffffff9,-0xc18(%rbp)
    ae2f:	ff ff ff 
    ae32:	c7 85 ec f3 ff ff 34 	movl   $0xc9400b34,-0xc14(%rbp)
    ae39:	0b 40 c9 
    ae3c:	c7 85 f0 f3 ff ff f9 	movl   $0xfffffff9,-0xc10(%rbp)
    ae43:	ff ff ff 
    ae46:	c7 85 f4 f3 ff ff f9 	movl   $0xfffffff9,-0xc0c(%rbp)
    ae4d:	ff ff ff 
    ae50:	48 8d 05 c1 63 01 00 	lea    0x163c1(%rip),%rax        # 21218 <g_185>
    ae57:	48 89 85 30 f3 ff ff 	mov    %rax,-0xcd0(%rbp)
    ae5e:	48 c7 85 38 f3 ff ff 	movq   $0x0,-0xcc8(%rbp)
    ae65:	00 00 00 00 
    ae69:	48 c7 85 40 f3 ff ff 	movq   $0x0,-0xcc0(%rbp)
    ae70:	00 00 00 00 
    ae74:	8b 85 fc f2 ff ff    	mov    -0xd04(%rbp),%eax
    ae7a:	89 85 00 f3 ff ff    	mov    %eax,-0xd00(%rbp)
    ae80:	8b 85 d8 f2 ff ff    	mov    -0xd28(%rbp),%eax
    ae86:	66 21 85 ee f2 ff ff 	and    %ax,-0xd12(%rbp)
    ae8d:	48 8b 85 50 f5 ff ff 	mov    -0xab0(%rbp),%rax
    ae94:	48 83 e8 01          	sub    $0x1,%rax
    ae98:	48 89 85 50 f5 ff ff 	mov    %rax,-0xab0(%rbp)
    ae9f:	c7 05 47 8f 01 00 0e 	movl   $0xe,0x18f47(%rip)        # 23df0 <g_1238>
    aea6:	00 00 00 
    aea9:	e9 20 02 00 00       	jmpq   b0ce <func_13+0x532>
    aeae:	48 8d 05 8b 7a 01 00 	lea    0x17a8b(%rip),%rax        # 22940 <g_742>
    aeb5:	48 89 85 50 f4 ff ff 	mov    %rax,-0xbb0(%rbp)
    aebc:	48 8d 05 65 8e 01 00 	lea    0x18e65(%rip),%rax        # 23d28 <g_1050>
    aec3:	48 89 85 58 f4 ff ff 	mov    %rax,-0xba8(%rbp)
    aeca:	48 8d 05 47 62 01 00 	lea    0x16247(%rip),%rax        # 21118 <g_34>
    aed1:	48 89 85 60 f4 ff ff 	mov    %rax,-0xba0(%rbp)
    aed8:	48 8d 05 49 8e 01 00 	lea    0x18e49(%rip),%rax        # 23d28 <g_1050>
    aedf:	48 89 85 68 f4 ff ff 	mov    %rax,-0xb98(%rbp)
    aee6:	48 8d 05 53 7a 01 00 	lea    0x17a53(%rip),%rax        # 22940 <g_742>
    aeed:	48 89 85 70 f4 ff ff 	mov    %rax,-0xb90(%rbp)
    aef4:	48 8d 05 1d 62 01 00 	lea    0x1621d(%rip),%rax        # 21118 <g_34>
    aefb:	48 89 85 78 f4 ff ff 	mov    %rax,-0xb88(%rbp)
    af02:	48 8d 05 1f 8e 01 00 	lea    0x18e1f(%rip),%rax        # 23d28 <g_1050>
    af09:	48 89 85 80 f4 ff ff 	mov    %rax,-0xb80(%rbp)
    af10:	48 8d 05 11 8e 01 00 	lea    0x18e11(%rip),%rax        # 23d28 <g_1050>
    af17:	48 89 85 88 f4 ff ff 	mov    %rax,-0xb78(%rbp)
    af1e:	48 8d 05 03 8e 01 00 	lea    0x18e03(%rip),%rax        # 23d28 <g_1050>
    af25:	48 89 85 90 f4 ff ff 	mov    %rax,-0xb70(%rbp)
    af2c:	48 8d 05 e5 61 01 00 	lea    0x161e5(%rip),%rax        # 21118 <g_34>
    af33:	48 89 85 98 f4 ff ff 	mov    %rax,-0xb68(%rbp)
    af3a:	48 8d 05 cf 63 01 00 	lea    0x163cf(%rip),%rax        # 21310 <g_353+0xd0>
    af41:	48 89 85 48 f3 ff ff 	mov    %rax,-0xcb8(%rbp)
    af48:	48 8d 85 a0 f5 ff ff 	lea    -0xa60(%rbp),%rax
    af4f:	48 8d 15 4a a1 01 00 	lea    0x1a14a(%rip),%rdx        # 250a0 <g_2104+0x20>
    af56:	b9 a2 00 00 00       	mov    $0xa2,%ecx
    af5b:	48 89 c7             	mov    %rax,%rdi
    af5e:	48 89 d6             	mov    %rdx,%rsi
    af61:	f3 48 a5             	rep movsq %ds:(%rsi),%es:(%rdi)
    af64:	48 8d 85 b0 fa ff ff 	lea    -0x550(%rbp),%rax
    af6b:	48 8d 15 4e a6 01 00 	lea    0x1a64e(%rip),%rdx        # 255c0 <g_2104+0x540>
    af72:	b9 a8 00 00 00       	mov    $0xa8,%ecx
    af77:	48 89 c7             	mov    %rax,%rdi
    af7a:	48 89 d6             	mov    %rdx,%rsi
    af7d:	f3 48 a5             	rep movsq %ds:(%rsi),%es:(%rdi)
    af80:	48 b8 83 e2 83 be 90 	movabs $0x76de2f90be83e283,%rax
    af87:	2f de 76 
    af8a:	48 89 85 70 f3 ff ff 	mov    %rax,-0xc90(%rbp)
    af91:	48 c7 85 78 f3 ff ff 	movq   $0xfffffffffffffff8,-0xc88(%rbp)
    af98:	f8 ff ff ff 
    af9c:	48 89 85 80 f3 ff ff 	mov    %rax,-0xc80(%rbp)
    afa3:	48 89 85 88 f3 ff ff 	mov    %rax,-0xc78(%rbp)
    afaa:	48 c7 85 90 f3 ff ff 	movq   $0xfffffffffffffff8,-0xc70(%rbp)
    afb1:	f8 ff ff ff 
    afb5:	48 89 85 98 f3 ff ff 	mov    %rax,-0xc68(%rbp)
    afbc:	48 89 85 a0 f3 ff ff 	mov    %rax,-0xc60(%rbp)
    afc3:	48 c7 85 a8 f3 ff ff 	movq   $0xfffffffffffffff8,-0xc58(%rbp)
    afca:	f8 ff ff ff 
    afce:	48 c7 85 50 f3 ff ff 	movq   $0x1,-0xcb0(%rbp)
    afd5:	01 00 00 00 
    afd9:	48 8d 05 58 9f 01 00 	lea    0x19f58(%rip),%rax        # 24f38 <g_1884+0x8>
    afe0:	48 89 85 18 f3 ff ff 	mov    %rax,-0xce8(%rbp)
    afe7:	48 8d 85 18 f3 ff ff 	lea    -0xce8(%rbp),%rax
    afee:	48 89 85 58 f3 ff ff 	mov    %rax,-0xca8(%rbp)
    aff5:	c6 85 ec f2 ff ff f6 	movb   $0xf6,-0xd14(%rbp)
    affc:	48 8d 05 c5 7a 01 00 	lea    0x17ac5(%rip),%rax        # 22ac8 <g_843>
    b003:	48 89 85 60 f3 ff ff 	mov    %rax,-0xca0(%rbp)
    b00a:	48 c7 85 68 f3 ff ff 	movq   $0x0,-0xc98(%rbp)
    b011:	00 00 00 00 
    b015:	c6 85 ed f2 ff ff a0 	movb   $0xa0,-0xd13(%rbp)
    b01c:	c7 85 f0 f2 ff ff 00 	movl   $0x0,-0xd10(%rbp)
    b023:	00 00 00 
    b026:	eb 6e                	jmp    b096 <func_13+0x4fa>
    b028:	c7 85 f4 f2 ff ff 00 	movl   $0x0,-0xd0c(%rbp)
    b02f:	00 00 00 
    b032:	eb 52                	jmp    b086 <func_13+0x4ea>
    b034:	c7 85 f8 f2 ff ff 00 	movl   $0x0,-0xd08(%rbp)
    b03b:	00 00 00 
    b03e:	eb 36                	jmp    b076 <func_13+0x4da>
    b040:	8b 85 f8 f2 ff ff    	mov    -0xd08(%rbp),%eax
    b046:	48 63 d0             	movslq %eax,%rdx
    b049:	8b 85 f4 f2 ff ff    	mov    -0xd0c(%rbp),%eax
    b04f:	48 98                	cltq   
    b051:	8b 8d f0 f2 ff ff    	mov    -0xd10(%rbp),%ecx
    b057:	48 63 c9             	movslq %ecx,%rcx
    b05a:	48 c1 e1 02          	shl    $0x2,%rcx
    b05e:	48 01 ca             	add    %rcx,%rdx
    b061:	48 01 d0             	add    %rdx,%rax
    b064:	c7 84 85 a0 f4 ff ff 	movl   $0x0,-0xb60(%rbp,%rax,4)
    b06b:	00 00 00 00 
    b06f:	83 85 f8 f2 ff ff 01 	addl   $0x1,-0xd08(%rbp)
    b076:	83 bd f8 f2 ff ff 00 	cmpl   $0x0,-0xd08(%rbp)
    b07d:	7e c1                	jle    b040 <func_13+0x4a4>
    b07f:	83 85 f4 f2 ff ff 01 	addl   $0x1,-0xd0c(%rbp)
    b086:	83 bd f4 f2 ff ff 03 	cmpl   $0x3,-0xd0c(%rbp)
    b08d:	7e a5                	jle    b034 <func_13+0x498>
    b08f:	83 85 f0 f2 ff ff 01 	addl   $0x1,-0xd10(%rbp)
    b096:	83 bd f0 f2 ff ff 05 	cmpl   $0x5,-0xd10(%rbp)
    b09d:	7e 89                	jle    b028 <func_13+0x48c>
    b09f:	48 8b 05 da d9 01 00 	mov    0x1d9da(%rip),%rax        # 28a80 <g_1577>
    b0a6:	48 8b 95 90 f4 ff ff 	mov    -0xb70(%rbp),%rdx
    b0ad:	48 89 10             	mov    %rdx,(%rax)
    b0b0:	8b 05 3a 8d 01 00    	mov    0x18d3a(%rip),%eax        # 23df0 <g_1238>
    b0b6:	0f be c0             	movsbl %al,%eax
    b0b9:	be 06 00 00 00       	mov    $0x6,%esi
    b0be:	89 c7                	mov    %eax,%edi
    b0c0:	e8 0f e1 ff ff       	callq  91d4 <safe_add_func_int8_t_s_s>
    b0c5:	0f be c0             	movsbl %al,%eax
    b0c8:	89 05 22 8d 01 00    	mov    %eax,0x18d22(%rip)        # 23df0 <g_1238>
    b0ce:	8b 05 1c 8d 01 00    	mov    0x18d1c(%rip),%eax        # 23df0 <g_1238>
    b0d4:	83 f8 20             	cmp    $0x20,%eax
    b0d7:	0f 87 d1 fd ff ff    	ja     aeae <func_13+0x312>
    b0dd:	48 0f bf 85 dc f2 ff 	movswq -0xd24(%rbp),%rax
    b0e4:	ff 
    b0e5:	48 8b 7d f8          	mov    -0x8(%rbp),%rdi
    b0e9:	64 48 33 3c 25 28 00 	xor    %fs:0x28,%rdi
    b0f0:	00 00 
    b0f2:	74 05                	je     b0f9 <func_13+0x55d>
    b0f4:	e8 77 df ff ff       	callq  9070 <__stack_chk_fail@plt>
    b0f9:	c9                   	leaveq 
    b0fa:	c3                   	retq   

000000000000b0fb <func_19>:
    b0fb:	f3 0f 1e fa          	endbr64 
    b0ff:	55                   	push   %rbp
    b100:	48 89 e5             	mov    %rsp,%rbp
    b103:	41 56                	push   %r14
    b105:	41 55                	push   %r13
    b107:	41 54                	push   %r12
    b109:	53                   	push   %rbx
    b10a:	48 81 ec f0 0b 00 00 	sub    $0xbf0,%rsp
    b111:	89 f0                	mov    %esi,%eax
    b113:	48 89 95 08 f4 ff ff 	mov    %rdx,-0xbf8(%rbp)
    b11a:	48 89 8d 00 f4 ff ff 	mov    %rcx,-0xc00(%rbp)
    b121:	4c 89 85 f8 f3 ff ff 	mov    %r8,-0xc08(%rbp)
    b128:	48 89 bd 10 f4 ff ff 	mov    %rdi,-0xbf0(%rbp)
    b12f:	89 85 18 f4 ff ff    	mov    %eax,-0xbe8(%rbp)
    b135:	64 48 8b 04 25 28 00 	mov    %fs:0x28,%rax
    b13c:	00 00 
    b13e:	48 89 45 d8          	mov    %rax,-0x28(%rbp)
    b142:	31 c0                	xor    %eax,%eax
    b144:	66 c7 85 22 f4 ff ff 	movw   $0xffff,-0xbde(%rbp)
    b14b:	ff ff 
    b14d:	48 8d 05 d8 5e 01 00 	lea    0x15ed8(%rip),%rax        # 2102c <g_3+0x4>
    b154:	48 89 85 58 f4 ff ff 	mov    %rax,-0xba8(%rbp)
    b15b:	48 8d 05 2e 76 01 00 	lea    0x1762e(%rip),%rax        # 22790 <g_501>
    b162:	48 89 85 60 f4 ff ff 	mov    %rax,-0xba0(%rbp)
    b169:	48 8d 05 e0 9a 01 00 	lea    0x19ae0(%rip),%rax        # 24c50 <g_1435>
    b170:	48 89 85 68 f4 ff ff 	mov    %rax,-0xb98(%rbp)
    b177:	66 c7 85 24 f4 ff ff 	movw   $0x62b1,-0xbdc(%rbp)
    b17e:	b1 62 
    b180:	c7 85 28 f4 ff ff ca 	movl   $0x3aead6ca,-0xbd8(%rbp)
    b187:	d6 ea 3a 
    b18a:	c7 85 34 f4 ff ff cf 	movl   $0x27660bcf,-0xbcc(%rbp)
    b191:	0b 66 27 
    b194:	c7 85 70 f5 ff ff fe 	movl   $0xfffffffe,-0xa90(%rbp)
    b19b:	ff ff ff 
    b19e:	c7 85 74 f5 ff ff fe 	movl   $0xfffffffe,-0xa8c(%rbp)
    b1a5:	ff ff ff 
    b1a8:	c7 85 78 f5 ff ff fe 	movl   $0xfffffffe,-0xa88(%rbp)
    b1af:	ff ff ff 
    b1b2:	c7 85 7c f5 ff ff fe 	movl   $0xfffffffe,-0xa84(%rbp)
    b1b9:	ff ff ff 
    b1bc:	c7 85 80 f5 ff ff fe 	movl   $0xfffffffe,-0xa80(%rbp)
    b1c3:	ff ff ff 
    b1c6:	c7 85 84 f5 ff ff fe 	movl   $0xfffffffe,-0xa7c(%rbp)
    b1cd:	ff ff ff 
    b1d0:	c7 85 88 f5 ff ff fe 	movl   $0xfffffffe,-0xa78(%rbp)
    b1d7:	ff ff ff 
    b1da:	c7 85 8c f5 ff ff fe 	movl   $0xfffffffe,-0xa74(%rbp)
    b1e1:	ff ff ff 
    b1e4:	c7 85 90 f5 ff ff fe 	movl   $0xfffffffe,-0xa70(%rbp)
    b1eb:	ff ff ff 
    b1ee:	c7 85 94 f5 ff ff fe 	movl   $0xfffffffe,-0xa6c(%rbp)
    b1f5:	ff ff ff 
    b1f8:	c7 85 38 f4 ff ff 85 	movl   $0x326be585,-0xbc8(%rbp)
    b1ff:	e5 6b 32 
    b202:	48 8d 85 70 f5 ff ff 	lea    -0xa90(%rbp),%rax
    b209:	48 83 c0 20          	add    $0x20,%rax
    b20d:	48 89 85 70 f4 ff ff 	mov    %rax,-0xb90(%rbp)
    b214:	48 c7 85 78 f4 ff ff 	movq   $0x0,-0xb88(%rbp)
    b21b:	00 00 00 00 
    b21f:	c6 85 04 f5 ff ff e5 	movb   $0xe5,-0xafc(%rbp)
    b226:	c6 85 05 f5 ff ff 07 	movb   $0x7,-0xafb(%rbp)
    b22d:	c7 85 08 f5 ff ff 5c 	movl   $0x9393b85c,-0xaf8(%rbp)
    b234:	b8 93 93 
    b237:	66 c7 85 0c f5 ff ff 	movw   $0x9,-0xaf4(%rbp)
    b23e:	09 00 
    b240:	c7 85 3c f4 ff ff 01 	movl   $0x1bd2a801,-0xbc4(%rbp)
    b247:	a8 d2 1b 
    b24a:	c7 85 40 f4 ff ff 52 	movl   $0xc936f452,-0xbc0(%rbp)
    b251:	f4 36 c9 
    b254:	c7 85 2c f4 ff ff fa 	movl   $0xc8b7b7fa,-0xbd4(%rbp)
    b25b:	b7 b7 c8 
    b25e:	66 c7 85 10 f5 ff ff 	movw   $0x3,-0xaf0(%rbp)
    b265:	03 00 
    b267:	66 c7 85 12 f5 ff ff 	movw   $0x3,-0xaee(%rbp)
    b26e:	03 00 
    b270:	66 c7 85 14 f5 ff ff 	movw   $0x3,-0xaec(%rbp)
    b277:	03 00 
    b279:	66 c7 85 16 f5 ff ff 	movw   $0x3,-0xaea(%rbp)
    b280:	03 00 
    b282:	66 c7 85 18 f5 ff ff 	movw   $0x3,-0xae8(%rbp)
    b289:	03 00 
    b28b:	66 c7 85 1a f5 ff ff 	movw   $0x3,-0xae6(%rbp)
    b292:	03 00 
    b294:	66 c7 85 1c f5 ff ff 	movw   $0x3,-0xae4(%rbp)
    b29b:	03 00 
    b29d:	66 c7 85 1e f5 ff ff 	movw   $0x3,-0xae2(%rbp)
    b2a4:	03 00 
    b2a6:	66 c7 85 20 f5 ff ff 	movw   $0x3,-0xae0(%rbp)
    b2ad:	03 00 
    b2af:	66 c7 85 22 f5 ff ff 	movw   $0xffff,-0xade(%rbp)
    b2b6:	ff ff 
    b2b8:	66 c7 85 24 f5 ff ff 	movw   $0x1,-0xadc(%rbp)
    b2bf:	01 00 
    b2c1:	66 c7 85 26 f5 ff ff 	movw   $0xffff,-0xada(%rbp)
    b2c8:	ff ff 
    b2ca:	66 c7 85 28 f5 ff ff 	movw   $0x1,-0xad8(%rbp)
    b2d1:	01 00 
    b2d3:	66 c7 85 2a f5 ff ff 	movw   $0xffff,-0xad6(%rbp)
    b2da:	ff ff 
    b2dc:	66 c7 85 2c f5 ff ff 	movw   $0x1,-0xad4(%rbp)
    b2e3:	01 00 
    b2e5:	66 c7 85 2e f5 ff ff 	movw   $0xffff,-0xad2(%rbp)
    b2ec:	ff ff 
    b2ee:	66 c7 85 30 f5 ff ff 	movw   $0x1,-0xad0(%rbp)
    b2f5:	01 00 
    b2f7:	66 c7 85 32 f5 ff ff 	movw   $0xffff,-0xace(%rbp)
    b2fe:	ff ff 
    b300:	48 c7 85 80 f4 ff ff 	movq   $0x0,-0xb80(%rbp)
    b307:	00 00 00 00 
    b30b:	48 8d 85 70 f5 ff ff 	lea    -0xa90(%rbp),%rax
    b312:	48 89 85 88 f4 ff ff 	mov    %rax,-0xb78(%rbp)
    b319:	48 8d 85 70 f5 ff ff 	lea    -0xa90(%rbp),%rax
    b320:	48 83 c0 18          	add    $0x18,%rax
    b324:	48 89 85 90 f4 ff ff 	mov    %rax,-0xb70(%rbp)
    b32b:	48 8d 85 70 f5 ff ff 	lea    -0xa90(%rbp),%rax
    b332:	48 89 85 98 f4 ff ff 	mov    %rax,-0xb68(%rbp)
    b339:	48 8d 85 70 f5 ff ff 	lea    -0xa90(%rbp),%rax
    b340:	48 89 85 a0 f4 ff ff 	mov    %rax,-0xb60(%rbp)
    b347:	48 8d 05 f2 75 01 00 	lea    0x175f2(%rip),%rax        # 22940 <g_742>
    b34e:	48 89 85 a8 f4 ff ff 	mov    %rax,-0xb58(%rbp)
    b355:	48 c7 85 b0 f4 ff ff 	movq   $0x0,-0xb50(%rbp)
    b35c:	00 00 00 00 
    b360:	48 8d 05 b1 5d 01 00 	lea    0x15db1(%rip),%rax        # 21118 <g_34>
    b367:	48 89 85 b8 f4 ff ff 	mov    %rax,-0xb48(%rbp)
    b36e:	48 8d 85 28 f4 ff ff 	lea    -0xbd8(%rbp),%rax
    b375:	48 89 85 d0 f7 ff ff 	mov    %rax,-0x830(%rbp)
    b37c:	48 8d 05 95 5d 01 00 	lea    0x15d95(%rip),%rax        # 21118 <g_34>
    b383:	48 89 85 d8 f7 ff ff 	mov    %rax,-0x828(%rbp)
    b38a:	48 c7 85 e0 f7 ff ff 	movq   $0x0,-0x820(%rbp)
    b391:	00 00 00 00 
    b395:	48 c7 85 e8 f7 ff ff 	movq   $0x0,-0x818(%rbp)
    b39c:	00 00 00 00 
    b3a0:	48 c7 85 f0 f7 ff ff 	movq   $0x0,-0x810(%rbp)
    b3a7:	00 00 00 00 
    b3ab:	48 c7 85 f8 f7 ff ff 	movq   $0x0,-0x808(%rbp)
    b3b2:	00 00 00 00 
    b3b6:	48 8d 85 70 f5 ff ff 	lea    -0xa90(%rbp),%rax
    b3bd:	48 89 85 00 f8 ff ff 	mov    %rax,-0x800(%rbp)
    b3c4:	48 8d 85 28 f4 ff ff 	lea    -0xbd8(%rbp),%rax
    b3cb:	48 89 85 08 f8 ff ff 	mov    %rax,-0x7f8(%rbp)
    b3d2:	48 c7 85 10 f8 ff ff 	movq   $0x0,-0x7f0(%rbp)
    b3d9:	00 00 00 00 
    b3dd:	48 8d 85 2c f4 ff ff 	lea    -0xbd4(%rbp),%rax
    b3e4:	48 89 85 18 f8 ff ff 	mov    %rax,-0x7e8(%rbp)
    b3eb:	48 c7 85 20 f8 ff ff 	movq   $0x0,-0x7e0(%rbp)
    b3f2:	00 00 00 00 
    b3f6:	48 c7 85 28 f8 ff ff 	movq   $0x0,-0x7d8(%rbp)
    b3fd:	00 00 00 00 
    b401:	48 8d 85 28 f4 ff ff 	lea    -0xbd8(%rbp),%rax
    b408:	48 89 85 30 f8 ff ff 	mov    %rax,-0x7d0(%rbp)
    b40f:	48 8d 85 28 f4 ff ff 	lea    -0xbd8(%rbp),%rax
    b416:	48 89 85 38 f8 ff ff 	mov    %rax,-0x7c8(%rbp)
    b41d:	48 8d 85 28 f4 ff ff 	lea    -0xbd8(%rbp),%rax
    b424:	48 89 85 40 f8 ff ff 	mov    %rax,-0x7c0(%rbp)
    b42b:	48 c7 85 48 f8 ff ff 	movq   $0x0,-0x7b8(%rbp)
    b432:	00 00 00 00 
    b436:	48 8d 05 db 5c 01 00 	lea    0x15cdb(%rip),%rax        # 21118 <g_34>
    b43d:	48 89 85 50 f8 ff ff 	mov    %rax,-0x7b0(%rbp)
    b444:	48 8d 85 28 f4 ff ff 	lea    -0xbd8(%rbp),%rax
    b44b:	48 89 85 58 f8 ff ff 	mov    %rax,-0x7a8(%rbp)
    b452:	48 8d 85 70 f5 ff ff 	lea    -0xa90(%rbp),%rax
    b459:	48 89 85 60 f8 ff ff 	mov    %rax,-0x7a0(%rbp)
    b460:	48 c7 85 68 f8 ff ff 	movq   $0x0,-0x798(%rbp)
    b467:	00 00 00 00 
    b46b:	48 8d 85 28 f4 ff ff 	lea    -0xbd8(%rbp),%rax
    b472:	48 89 85 70 f8 ff ff 	mov    %rax,-0x790(%rbp)
    b479:	48 8d 85 2c f4 ff ff 	lea    -0xbd4(%rbp),%rax
    b480:	48 89 85 78 f8 ff ff 	mov    %rax,-0x788(%rbp)
    b487:	48 8d 85 2c f4 ff ff 	lea    -0xbd4(%rbp),%rax
    b48e:	48 89 85 80 f8 ff ff 	mov    %rax,-0x780(%rbp)
    b495:	48 8d 85 28 f4 ff ff 	lea    -0xbd8(%rbp),%rax
    b49c:	48 89 85 88 f8 ff ff 	mov    %rax,-0x778(%rbp)
    b4a3:	48 8d 85 28 f4 ff ff 	lea    -0xbd8(%rbp),%rax
    b4aa:	48 89 85 90 f8 ff ff 	mov    %rax,-0x770(%rbp)
    b4b1:	48 c7 85 98 f8 ff ff 	movq   $0x0,-0x768(%rbp)
    b4b8:	00 00 00 00 
    b4bc:	48 8d 85 2c f4 ff ff 	lea    -0xbd4(%rbp),%rax
    b4c3:	48 89 85 a0 f8 ff ff 	mov    %rax,-0x760(%rbp)
    b4ca:	48 c7 85 a8 f8 ff ff 	movq   $0x0,-0x758(%rbp)
    b4d1:	00 00 00 00 
    b4d5:	48 8d 85 28 f4 ff ff 	lea    -0xbd8(%rbp),%rax
    b4dc:	48 89 85 b0 f8 ff ff 	mov    %rax,-0x750(%rbp)
    b4e3:	48 8d 05 2e 5c 01 00 	lea    0x15c2e(%rip),%rax        # 21118 <g_34>
    b4ea:	48 89 85 b8 f8 ff ff 	mov    %rax,-0x748(%rbp)
    b4f1:	48 8d 85 70 f5 ff ff 	lea    -0xa90(%rbp),%rax
    b4f8:	48 89 85 c0 f8 ff ff 	mov    %rax,-0x740(%rbp)
    b4ff:	48 8d 05 12 5c 01 00 	lea    0x15c12(%rip),%rax        # 21118 <g_34>
    b506:	48 89 85 c8 f8 ff ff 	mov    %rax,-0x738(%rbp)
    b50d:	48 8d 05 04 5c 01 00 	lea    0x15c04(%rip),%rax        # 21118 <g_34>
    b514:	48 89 85 d0 f8 ff ff 	mov    %rax,-0x730(%rbp)
    b51b:	48 8d 85 2c f4 ff ff 	lea    -0xbd4(%rbp),%rax
    b522:	48 89 85 d8 f8 ff ff 	mov    %rax,-0x728(%rbp)
    b529:	48 8d 85 28 f4 ff ff 	lea    -0xbd8(%rbp),%rax
    b530:	48 89 85 e0 f8 ff ff 	mov    %rax,-0x720(%rbp)
    b537:	48 8d 05 da 5b 01 00 	lea    0x15bda(%rip),%rax        # 21118 <g_34>
    b53e:	48 89 85 e8 f8 ff ff 	mov    %rax,-0x718(%rbp)
    b545:	48 8d 85 28 f4 ff ff 	lea    -0xbd8(%rbp),%rax
    b54c:	48 89 85 f0 f8 ff ff 	mov    %rax,-0x710(%rbp)
    b553:	48 8d 05 be 5b 01 00 	lea    0x15bbe(%rip),%rax        # 21118 <g_34>
    b55a:	48 89 85 f8 f8 ff ff 	mov    %rax,-0x708(%rbp)
    b561:	48 c7 85 00 f9 ff ff 	movq   $0x0,-0x700(%rbp)
    b568:	00 00 00 00 
    b56c:	48 c7 85 08 f9 ff ff 	movq   $0x0,-0x6f8(%rbp)
    b573:	00 00 00 00 
    b577:	48 c7 85 10 f9 ff ff 	movq   $0x0,-0x6f0(%rbp)
    b57e:	00 00 00 00 
    b582:	48 c7 85 18 f9 ff ff 	movq   $0x0,-0x6e8(%rbp)
    b589:	00 00 00 00 
    b58d:	48 8d 85 70 f5 ff ff 	lea    -0xa90(%rbp),%rax
    b594:	48 89 85 20 f9 ff ff 	mov    %rax,-0x6e0(%rbp)
    b59b:	48 8d 85 28 f4 ff ff 	lea    -0xbd8(%rbp),%rax
    b5a2:	48 89 85 28 f9 ff ff 	mov    %rax,-0x6d8(%rbp)
    b5a9:	48 c7 85 30 f9 ff ff 	movq   $0x0,-0x6d0(%rbp)
    b5b0:	00 00 00 00 
    b5b4:	48 8d 85 2c f4 ff ff 	lea    -0xbd4(%rbp),%rax
    b5bb:	48 89 85 38 f9 ff ff 	mov    %rax,-0x6c8(%rbp)
    b5c2:	48 c7 85 40 f9 ff ff 	movq   $0x0,-0x6c0(%rbp)
    b5c9:	00 00 00 00 
    b5cd:	48 c7 85 48 f9 ff ff 	movq   $0x0,-0x6b8(%rbp)
    b5d4:	00 00 00 00 
    b5d8:	48 8d 85 28 f4 ff ff 	lea    -0xbd8(%rbp),%rax
    b5df:	48 89 85 50 f9 ff ff 	mov    %rax,-0x6b0(%rbp)
    b5e6:	48 8d 85 28 f4 ff ff 	lea    -0xbd8(%rbp),%rax
    b5ed:	48 89 85 58 f9 ff ff 	mov    %rax,-0x6a8(%rbp)
    b5f4:	48 8d 85 28 f4 ff ff 	lea    -0xbd8(%rbp),%rax
    b5fb:	48 89 85 60 f9 ff ff 	mov    %rax,-0x6a0(%rbp)
    b602:	48 c7 85 68 f9 ff ff 	movq   $0x0,-0x698(%rbp)
    b609:	00 00 00 00 
    b60d:	48 8d 05 04 5b 01 00 	lea    0x15b04(%rip),%rax        # 21118 <g_34>
    b614:	48 89 85 70 f9 ff ff 	mov    %rax,-0x690(%rbp)
    b61b:	48 8d 85 28 f4 ff ff 	lea    -0xbd8(%rbp),%rax
    b622:	48 89 85 78 f9 ff ff 	mov    %rax,-0x688(%rbp)
    b629:	48 8d 85 70 f5 ff ff 	lea    -0xa90(%rbp),%rax
    b630:	48 89 85 80 f9 ff ff 	mov    %rax,-0x680(%rbp)
    b637:	48 c7 85 88 f9 ff ff 	movq   $0x0,-0x678(%rbp)
    b63e:	00 00 00 00 
    b642:	48 8d 85 28 f4 ff ff 	lea    -0xbd8(%rbp),%rax
    b649:	48 89 85 90 f9 ff ff 	mov    %rax,-0x670(%rbp)
    b650:	48 8d 85 2c f4 ff ff 	lea    -0xbd4(%rbp),%rax
    b657:	48 89 85 98 f9 ff ff 	mov    %rax,-0x668(%rbp)
    b65e:	48 8d 85 2c f4 ff ff 	lea    -0xbd4(%rbp),%rax
    b665:	48 89 85 a0 f9 ff ff 	mov    %rax,-0x660(%rbp)
    b66c:	48 8d 85 28 f4 ff ff 	lea    -0xbd8(%rbp),%rax
    b673:	48 89 85 a8 f9 ff ff 	mov    %rax,-0x658(%rbp)
    b67a:	48 8d 85 28 f4 ff ff 	lea    -0xbd8(%rbp),%rax
    b681:	48 89 85 b0 f9 ff ff 	mov    %rax,-0x650(%rbp)
    b688:	48 c7 85 b8 f9 ff ff 	movq   $0x0,-0x648(%rbp)
    b68f:	00 00 00 00 
    b693:	48 8d 85 2c f4 ff ff 	lea    -0xbd4(%rbp),%rax
    b69a:	48 89 85 c0 f9 ff ff 	mov    %rax,-0x640(%rbp)
    b6a1:	48 c7 85 c8 f9 ff ff 	movq   $0x0,-0x638(%rbp)
    b6a8:	00 00 00 00 
    b6ac:	48 8d 85 28 f4 ff ff 	lea    -0xbd8(%rbp),%rax
    b6b3:	48 89 85 d0 f9 ff ff 	mov    %rax,-0x630(%rbp)
    b6ba:	48 8d 05 57 5a 01 00 	lea    0x15a57(%rip),%rax        # 21118 <g_34>
    b6c1:	48 89 85 d8 f9 ff ff 	mov    %rax,-0x628(%rbp)
    b6c8:	48 8d 85 70 f5 ff ff 	lea    -0xa90(%rbp),%rax
    b6cf:	48 89 85 e0 f9 ff ff 	mov    %rax,-0x620(%rbp)
    b6d6:	48 8d 05 3b 5a 01 00 	lea    0x15a3b(%rip),%rax        # 21118 <g_34>
    b6dd:	48 89 85 e8 f9 ff ff 	mov    %rax,-0x618(%rbp)
    b6e4:	48 8d 05 2d 5a 01 00 	lea    0x15a2d(%rip),%rax        # 21118 <g_34>
    b6eb:	48 89 85 f0 f9 ff ff 	mov    %rax,-0x610(%rbp)
    b6f2:	48 8d 85 2c f4 ff ff 	lea    -0xbd4(%rbp),%rax
    b6f9:	48 89 85 f8 f9 ff ff 	mov    %rax,-0x608(%rbp)
    b700:	48 8d 85 28 f4 ff ff 	lea    -0xbd8(%rbp),%rax
    b707:	48 89 85 00 fa ff ff 	mov    %rax,-0x600(%rbp)
    b70e:	48 8d 05 03 5a 01 00 	lea    0x15a03(%rip),%rax        # 21118 <g_34>
    b715:	48 89 85 08 fa ff ff 	mov    %rax,-0x5f8(%rbp)
    b71c:	48 8d 85 28 f4 ff ff 	lea    -0xbd8(%rbp),%rax
    b723:	48 89 85 10 fa ff ff 	mov    %rax,-0x5f0(%rbp)
    b72a:	48 8d 05 e7 59 01 00 	lea    0x159e7(%rip),%rax        # 21118 <g_34>
    b731:	48 89 85 18 fa ff ff 	mov    %rax,-0x5e8(%rbp)
    b738:	48 c7 85 20 fa ff ff 	movq   $0x0,-0x5e0(%rbp)
    b73f:	00 00 00 00 
    b743:	48 c7 85 28 fa ff ff 	movq   $0x0,-0x5d8(%rbp)
    b74a:	00 00 00 00 
    b74e:	48 c7 85 30 fa ff ff 	movq   $0x0,-0x5d0(%rbp)
    b755:	00 00 00 00 
    b759:	48 c7 85 38 fa ff ff 	movq   $0x0,-0x5c8(%rbp)
    b760:	00 00 00 00 
    b764:	48 8d 85 70 f5 ff ff 	lea    -0xa90(%rbp),%rax
    b76b:	48 89 85 40 fa ff ff 	mov    %rax,-0x5c0(%rbp)
    b772:	48 8d 85 28 f4 ff ff 	lea    -0xbd8(%rbp),%rax
    b779:	48 89 85 48 fa ff ff 	mov    %rax,-0x5b8(%rbp)
    b780:	48 c7 85 50 fa ff ff 	movq   $0x0,-0x5b0(%rbp)
    b787:	00 00 00 00 
    b78b:	48 8d 85 2c f4 ff ff 	lea    -0xbd4(%rbp),%rax
    b792:	48 89 85 58 fa ff ff 	mov    %rax,-0x5a8(%rbp)
    b799:	48 c7 85 60 fa ff ff 	movq   $0x0,-0x5a0(%rbp)
    b7a0:	00 00 00 00 
    b7a4:	48 c7 85 68 fa ff ff 	movq   $0x0,-0x598(%rbp)
    b7ab:	00 00 00 00 
    b7af:	48 8d 85 28 f4 ff ff 	lea    -0xbd8(%rbp),%rax
    b7b6:	48 89 85 70 fa ff ff 	mov    %rax,-0x590(%rbp)
    b7bd:	48 8d 85 28 f4 ff ff 	lea    -0xbd8(%rbp),%rax
    b7c4:	48 89 85 78 fa ff ff 	mov    %rax,-0x588(%rbp)
    b7cb:	48 8d 85 28 f4 ff ff 	lea    -0xbd8(%rbp),%rax
    b7d2:	48 89 85 80 fa ff ff 	mov    %rax,-0x580(%rbp)
    b7d9:	48 c7 85 88 fa ff ff 	movq   $0x0,-0x578(%rbp)
    b7e0:	00 00 00 00 
    b7e4:	48 8d 05 2d 59 01 00 	lea    0x1592d(%rip),%rax        # 21118 <g_34>
    b7eb:	48 89 85 90 fa ff ff 	mov    %rax,-0x570(%rbp)
    b7f2:	48 8d 85 2c f4 ff ff 	lea    -0xbd4(%rbp),%rax
    b7f9:	48 89 85 98 fa ff ff 	mov    %rax,-0x568(%rbp)
    b800:	48 c7 85 a0 fa ff ff 	movq   $0x0,-0x560(%rbp)
    b807:	00 00 00 00 
    b80b:	48 8d 85 28 f4 ff ff 	lea    -0xbd8(%rbp),%rax
    b812:	48 89 85 a8 fa ff ff 	mov    %rax,-0x558(%rbp)
    b819:	48 8d 85 2c f4 ff ff 	lea    -0xbd4(%rbp),%rax
    b820:	48 89 85 b0 fa ff ff 	mov    %rax,-0x550(%rbp)
    b827:	48 8d 85 70 f5 ff ff 	lea    -0xa90(%rbp),%rax
    b82e:	48 89 85 b8 fa ff ff 	mov    %rax,-0x548(%rbp)
    b835:	48 8d 85 70 f5 ff ff 	lea    -0xa90(%rbp),%rax
    b83c:	48 89 85 c0 fa ff ff 	mov    %rax,-0x540(%rbp)
    b843:	48 8d 85 2c f4 ff ff 	lea    -0xbd4(%rbp),%rax
    b84a:	48 89 85 c8 fa ff ff 	mov    %rax,-0x538(%rbp)
    b851:	48 c7 85 d0 fa ff ff 	movq   $0x0,-0x530(%rbp)
    b858:	00 00 00 00 
    b85c:	48 8d 85 28 f4 ff ff 	lea    -0xbd8(%rbp),%rax
    b863:	48 89 85 d8 fa ff ff 	mov    %rax,-0x528(%rbp)
    b86a:	48 8d 85 70 f5 ff ff 	lea    -0xa90(%rbp),%rax
    b871:	48 89 85 e0 fa ff ff 	mov    %rax,-0x520(%rbp)
    b878:	48 8d 85 70 f5 ff ff 	lea    -0xa90(%rbp),%rax
    b87f:	48 89 85 e8 fa ff ff 	mov    %rax,-0x518(%rbp)
    b886:	48 8d 85 2c f4 ff ff 	lea    -0xbd4(%rbp),%rax
    b88d:	48 89 85 f0 fa ff ff 	mov    %rax,-0x510(%rbp)
    b894:	48 c7 85 f8 fa ff ff 	movq   $0x0,-0x508(%rbp)
    b89b:	00 00 00 00 
    b89f:	48 c7 85 00 fb ff ff 	movq   $0x0,-0x500(%rbp)
    b8a6:	00 00 00 00 
    b8aa:	48 c7 85 08 fb ff ff 	movq   $0x0,-0x4f8(%rbp)
    b8b1:	00 00 00 00 
    b8b5:	48 c7 85 10 fb ff ff 	movq   $0x0,-0x4f0(%rbp)
    b8bc:	00 00 00 00 
    b8c0:	48 8d 85 70 f5 ff ff 	lea    -0xa90(%rbp),%rax
    b8c7:	48 89 85 18 fb ff ff 	mov    %rax,-0x4e8(%rbp)
    b8ce:	48 c7 85 20 fb ff ff 	movq   $0x0,-0x4e0(%rbp)
    b8d5:	00 00 00 00 
    b8d9:	48 c7 85 28 fb ff ff 	movq   $0x0,-0x4d8(%rbp)
    b8e0:	00 00 00 00 
    b8e4:	48 c7 85 30 fb ff ff 	movq   $0x0,-0x4d0(%rbp)
    b8eb:	00 00 00 00 
    b8ef:	48 c7 85 38 fb ff ff 	movq   $0x0,-0x4c8(%rbp)
    b8f6:	00 00 00 00 
    b8fa:	48 8d 85 70 f5 ff ff 	lea    -0xa90(%rbp),%rax
    b901:	48 89 85 40 fb ff ff 	mov    %rax,-0x4c0(%rbp)
    b908:	48 8d 85 70 f5 ff ff 	lea    -0xa90(%rbp),%rax
    b90f:	48 89 85 48 fb ff ff 	mov    %rax,-0x4b8(%rbp)
    b916:	48 8d 85 28 f4 ff ff 	lea    -0xbd8(%rbp),%rax
    b91d:	48 89 85 50 fb ff ff 	mov    %rax,-0x4b0(%rbp)
    b924:	48 8d 85 28 f4 ff ff 	lea    -0xbd8(%rbp),%rax
    b92b:	48 89 85 58 fb ff ff 	mov    %rax,-0x4a8(%rbp)
    b932:	48 c7 85 60 fb ff ff 	movq   $0x0,-0x4a0(%rbp)
    b939:	00 00 00 00 
    b93d:	48 8d 85 2c f4 ff ff 	lea    -0xbd4(%rbp),%rax
    b944:	48 89 85 68 fb ff ff 	mov    %rax,-0x498(%rbp)
    b94b:	48 8d 85 28 f4 ff ff 	lea    -0xbd8(%rbp),%rax
    b952:	48 89 85 70 fb ff ff 	mov    %rax,-0x490(%rbp)
    b959:	48 8d 85 70 f5 ff ff 	lea    -0xa90(%rbp),%rax
    b960:	48 89 85 78 fb ff ff 	mov    %rax,-0x488(%rbp)
    b967:	48 8d 85 70 f5 ff ff 	lea    -0xa90(%rbp),%rax
    b96e:	48 89 85 80 fb ff ff 	mov    %rax,-0x480(%rbp)
    b975:	48 8d 85 28 f4 ff ff 	lea    -0xbd8(%rbp),%rax
    b97c:	48 89 85 88 fb ff ff 	mov    %rax,-0x478(%rbp)
    b983:	48 c7 85 90 fb ff ff 	movq   $0x0,-0x470(%rbp)
    b98a:	00 00 00 00 
    b98e:	48 8d 85 2c f4 ff ff 	lea    -0xbd4(%rbp),%rax
    b995:	48 89 85 98 fb ff ff 	mov    %rax,-0x468(%rbp)
    b99c:	48 c7 85 a0 fb ff ff 	movq   $0x0,-0x460(%rbp)
    b9a3:	00 00 00 00 
    b9a7:	48 8d 85 70 f5 ff ff 	lea    -0xa90(%rbp),%rax
    b9ae:	48 89 85 a8 fb ff ff 	mov    %rax,-0x458(%rbp)
    b9b5:	48 c7 85 b0 fb ff ff 	movq   $0x0,-0x450(%rbp)
    b9bc:	00 00 00 00 
    b9c0:	48 8d 85 2c f4 ff ff 	lea    -0xbd4(%rbp),%rax
    b9c7:	48 89 85 b8 fb ff ff 	mov    %rax,-0x448(%rbp)
    b9ce:	48 c7 85 c0 fb ff ff 	movq   $0x0,-0x440(%rbp)
    b9d5:	00 00 00 00 
    b9d9:	48 8d 85 28 f4 ff ff 	lea    -0xbd8(%rbp),%rax
    b9e0:	48 89 85 c8 fb ff ff 	mov    %rax,-0x438(%rbp)
    b9e7:	48 8d 85 2c f4 ff ff 	lea    -0xbd4(%rbp),%rax
    b9ee:	48 89 85 d0 fb ff ff 	mov    %rax,-0x430(%rbp)
    b9f5:	48 8d 85 70 f5 ff ff 	lea    -0xa90(%rbp),%rax
    b9fc:	48 89 85 d8 fb ff ff 	mov    %rax,-0x428(%rbp)
    ba03:	48 8d 85 70 f5 ff ff 	lea    -0xa90(%rbp),%rax
    ba0a:	48 89 85 e0 fb ff ff 	mov    %rax,-0x420(%rbp)
    ba11:	48 8d 85 2c f4 ff ff 	lea    -0xbd4(%rbp),%rax
    ba18:	48 89 85 e8 fb ff ff 	mov    %rax,-0x418(%rbp)
    ba1f:	48 c7 85 f0 fb ff ff 	movq   $0x0,-0x410(%rbp)
    ba26:	00 00 00 00 
    ba2a:	48 8d 85 28 f4 ff ff 	lea    -0xbd8(%rbp),%rax
    ba31:	48 89 85 f8 fb ff ff 	mov    %rax,-0x408(%rbp)
    ba38:	48 8d 85 70 f5 ff ff 	lea    -0xa90(%rbp),%rax
    ba3f:	48 89 85 00 fc ff ff 	mov    %rax,-0x400(%rbp)
    ba46:	48 8d 85 70 f5 ff ff 	lea    -0xa90(%rbp),%rax
    ba4d:	48 89 85 08 fc ff ff 	mov    %rax,-0x3f8(%rbp)
    ba54:	48 8d 85 2c f4 ff ff 	lea    -0xbd4(%rbp),%rax
    ba5b:	48 89 85 10 fc ff ff 	mov    %rax,-0x3f0(%rbp)
    ba62:	48 c7 85 18 fc ff ff 	movq   $0x0,-0x3e8(%rbp)
    ba69:	00 00 00 00 
    ba6d:	48 c7 85 20 fc ff ff 	movq   $0x0,-0x3e0(%rbp)
    ba74:	00 00 00 00 
    ba78:	48 c7 85 28 fc ff ff 	movq   $0x0,-0x3d8(%rbp)
    ba7f:	00 00 00 00 
    ba83:	48 c7 85 30 fc ff ff 	movq   $0x0,-0x3d0(%rbp)
    ba8a:	00 00 00 00 
    ba8e:	48 8d 85 70 f5 ff ff 	lea    -0xa90(%rbp),%rax
    ba95:	48 89 85 38 fc ff ff 	mov    %rax,-0x3c8(%rbp)
    ba9c:	48 c7 85 40 fc ff ff 	movq   $0x0,-0x3c0(%rbp)
    baa3:	00 00 00 00 
    baa7:	48 c7 85 48 fc ff ff 	movq   $0x0,-0x3b8(%rbp)
    baae:	00 00 00 00 
    bab2:	48 c7 85 50 fc ff ff 	movq   $0x0,-0x3b0(%rbp)
    bab9:	00 00 00 00 
    babd:	48 c7 85 58 fc ff ff 	movq   $0x0,-0x3a8(%rbp)
    bac4:	00 00 00 00 
    bac8:	48 8d 85 70 f5 ff ff 	lea    -0xa90(%rbp),%rax
    bacf:	48 89 85 60 fc ff ff 	mov    %rax,-0x3a0(%rbp)
    bad6:	48 8d 85 70 f5 ff ff 	lea    -0xa90(%rbp),%rax
    badd:	48 89 85 68 fc ff ff 	mov    %rax,-0x398(%rbp)
    bae4:	48 8d 85 28 f4 ff ff 	lea    -0xbd8(%rbp),%rax
    baeb:	48 89 85 70 fc ff ff 	mov    %rax,-0x390(%rbp)
    baf2:	48 8d 85 28 f4 ff ff 	lea    -0xbd8(%rbp),%rax
    baf9:	48 89 85 78 fc ff ff 	mov    %rax,-0x388(%rbp)
    bb00:	48 c7 85 80 fc ff ff 	movq   $0x0,-0x380(%rbp)
    bb07:	00 00 00 00 
    bb0b:	48 8d 85 2c f4 ff ff 	lea    -0xbd4(%rbp),%rax
    bb12:	48 89 85 88 fc ff ff 	mov    %rax,-0x378(%rbp)
    bb19:	48 8d 85 28 f4 ff ff 	lea    -0xbd8(%rbp),%rax
    bb20:	48 89 85 90 fc ff ff 	mov    %rax,-0x370(%rbp)
    bb27:	48 8d 85 70 f5 ff ff 	lea    -0xa90(%rbp),%rax
    bb2e:	48 89 85 98 fc ff ff 	mov    %rax,-0x368(%rbp)
    bb35:	48 8d 85 70 f5 ff ff 	lea    -0xa90(%rbp),%rax
    bb3c:	48 89 85 a0 fc ff ff 	mov    %rax,-0x360(%rbp)
    bb43:	48 8d 85 28 f4 ff ff 	lea    -0xbd8(%rbp),%rax
    bb4a:	48 89 85 a8 fc ff ff 	mov    %rax,-0x358(%rbp)
    bb51:	48 c7 85 b0 fc ff ff 	movq   $0x0,-0x350(%rbp)
    bb58:	00 00 00 00 
    bb5c:	48 8d 85 2c f4 ff ff 	lea    -0xbd4(%rbp),%rax
    bb63:	48 89 85 b8 fc ff ff 	mov    %rax,-0x348(%rbp)
    bb6a:	48 c7 85 c0 fc ff ff 	movq   $0x0,-0x340(%rbp)
    bb71:	00 00 00 00 
    bb75:	48 8d 85 70 f5 ff ff 	lea    -0xa90(%rbp),%rax
    bb7c:	48 89 85 c8 fc ff ff 	mov    %rax,-0x338(%rbp)
    bb83:	48 c7 85 d0 fc ff ff 	movq   $0x0,-0x330(%rbp)
    bb8a:	00 00 00 00 
    bb8e:	48 8d 85 2c f4 ff ff 	lea    -0xbd4(%rbp),%rax
    bb95:	48 89 85 d8 fc ff ff 	mov    %rax,-0x328(%rbp)
    bb9c:	48 c7 85 e0 fc ff ff 	movq   $0x0,-0x320(%rbp)
    bba3:	00 00 00 00 
    bba7:	48 8d 85 28 f4 ff ff 	lea    -0xbd8(%rbp),%rax
    bbae:	48 89 85 e8 fc ff ff 	mov    %rax,-0x318(%rbp)
    bbb5:	48 8d 85 2c f4 ff ff 	lea    -0xbd4(%rbp),%rax
    bbbc:	48 89 85 f0 fc ff ff 	mov    %rax,-0x310(%rbp)
    bbc3:	48 8d 85 70 f5 ff ff 	lea    -0xa90(%rbp),%rax
    bbca:	48 89 85 f8 fc ff ff 	mov    %rax,-0x308(%rbp)
    bbd1:	48 8d 85 70 f5 ff ff 	lea    -0xa90(%rbp),%rax
    bbd8:	48 89 85 00 fd ff ff 	mov    %rax,-0x300(%rbp)
    bbdf:	48 8d 85 2c f4 ff ff 	lea    -0xbd4(%rbp),%rax
    bbe6:	48 89 85 08 fd ff ff 	mov    %rax,-0x2f8(%rbp)
    bbed:	48 c7 85 10 fd ff ff 	movq   $0x0,-0x2f0(%rbp)
    bbf4:	00 00 00 00 
    bbf8:	48 8d 85 28 f4 ff ff 	lea    -0xbd8(%rbp),%rax
    bbff:	48 89 85 18 fd ff ff 	mov    %rax,-0x2e8(%rbp)
    bc06:	48 8d 85 70 f5 ff ff 	lea    -0xa90(%rbp),%rax
    bc0d:	48 89 85 20 fd ff ff 	mov    %rax,-0x2e0(%rbp)
    bc14:	48 8d 85 70 f5 ff ff 	lea    -0xa90(%rbp),%rax
    bc1b:	48 89 85 28 fd ff ff 	mov    %rax,-0x2d8(%rbp)
    bc22:	48 8d 85 2c f4 ff ff 	lea    -0xbd4(%rbp),%rax
    bc29:	48 89 85 30 fd ff ff 	mov    %rax,-0x2d0(%rbp)
    bc30:	48 c7 85 38 fd ff ff 	movq   $0x0,-0x2c8(%rbp)
    bc37:	00 00 00 00 
    bc3b:	48 c7 85 40 fd ff ff 	movq   $0x0,-0x2c0(%rbp)
    bc42:	00 00 00 00 
    bc46:	48 c7 85 48 fd ff ff 	movq   $0x0,-0x2b8(%rbp)
    bc4d:	00 00 00 00 
    bc51:	48 c7 85 50 fd ff ff 	movq   $0x0,-0x2b0(%rbp)
    bc58:	00 00 00 00 
    bc5c:	48 8d 85 70 f5 ff ff 	lea    -0xa90(%rbp),%rax
    bc63:	48 89 85 58 fd ff ff 	mov    %rax,-0x2a8(%rbp)
    bc6a:	48 c7 85 60 fd ff ff 	movq   $0x0,-0x2a0(%rbp)
    bc71:	00 00 00 00 
    bc75:	48 c7 85 68 fd ff ff 	movq   $0x0,-0x298(%rbp)
    bc7c:	00 00 00 00 
    bc80:	48 c7 85 70 fd ff ff 	movq   $0x0,-0x290(%rbp)
    bc87:	00 00 00 00 
    bc8b:	48 c7 85 78 fd ff ff 	movq   $0x0,-0x288(%rbp)
    bc92:	00 00 00 00 
    bc96:	48 8d 85 70 f5 ff ff 	lea    -0xa90(%rbp),%rax
    bc9d:	48 89 85 80 fd ff ff 	mov    %rax,-0x280(%rbp)
    bca4:	48 8d 85 70 f5 ff ff 	lea    -0xa90(%rbp),%rax
    bcab:	48 89 85 88 fd ff ff 	mov    %rax,-0x278(%rbp)
    bcb2:	48 8d 85 28 f4 ff ff 	lea    -0xbd8(%rbp),%rax
    bcb9:	48 89 85 90 fd ff ff 	mov    %rax,-0x270(%rbp)
    bcc0:	48 8d 85 28 f4 ff ff 	lea    -0xbd8(%rbp),%rax
    bcc7:	48 89 85 98 fd ff ff 	mov    %rax,-0x268(%rbp)
    bcce:	48 c7 85 a0 fd ff ff 	movq   $0x0,-0x260(%rbp)
    bcd5:	00 00 00 00 
    bcd9:	48 8d 85 2c f4 ff ff 	lea    -0xbd4(%rbp),%rax
    bce0:	48 89 85 a8 fd ff ff 	mov    %rax,-0x258(%rbp)
    bce7:	48 8d 85 28 f4 ff ff 	lea    -0xbd8(%rbp),%rax
    bcee:	48 89 85 b0 fd ff ff 	mov    %rax,-0x250(%rbp)
    bcf5:	48 8d 85 70 f5 ff ff 	lea    -0xa90(%rbp),%rax
    bcfc:	48 89 85 b8 fd ff ff 	mov    %rax,-0x248(%rbp)
    bd03:	48 8d 85 70 f5 ff ff 	lea    -0xa90(%rbp),%rax
    bd0a:	48 89 85 c0 fd ff ff 	mov    %rax,-0x240(%rbp)
    bd11:	48 8d 85 28 f4 ff ff 	lea    -0xbd8(%rbp),%rax
    bd18:	48 89 85 c8 fd ff ff 	mov    %rax,-0x238(%rbp)
    bd1f:	48 c7 85 d0 fd ff ff 	movq   $0x0,-0x230(%rbp)
    bd26:	00 00 00 00 
    bd2a:	48 8d 85 2c f4 ff ff 	lea    -0xbd4(%rbp),%rax
    bd31:	48 89 85 d8 fd ff ff 	mov    %rax,-0x228(%rbp)
    bd38:	48 c7 85 e0 fd ff ff 	movq   $0x0,-0x220(%rbp)
    bd3f:	00 00 00 00 
    bd43:	48 8d 85 70 f5 ff ff 	lea    -0xa90(%rbp),%rax
    bd4a:	48 89 85 e8 fd ff ff 	mov    %rax,-0x218(%rbp)
    bd51:	48 c7 85 f0 fd ff ff 	movq   $0x0,-0x210(%rbp)
    bd58:	00 00 00 00 
    bd5c:	48 8d 85 2c f4 ff ff 	lea    -0xbd4(%rbp),%rax
    bd63:	48 89 85 f8 fd ff ff 	mov    %rax,-0x208(%rbp)
    bd6a:	48 c7 85 00 fe ff ff 	movq   $0x0,-0x200(%rbp)
    bd71:	00 00 00 00 
    bd75:	48 8d 85 28 f4 ff ff 	lea    -0xbd8(%rbp),%rax
    bd7c:	48 89 85 08 fe ff ff 	mov    %rax,-0x1f8(%rbp)
    bd83:	48 8d 85 2c f4 ff ff 	lea    -0xbd4(%rbp),%rax
    bd8a:	48 89 85 10 fe ff ff 	mov    %rax,-0x1f0(%rbp)
    bd91:	48 8d 85 70 f5 ff ff 	lea    -0xa90(%rbp),%rax
    bd98:	48 89 85 18 fe ff ff 	mov    %rax,-0x1e8(%rbp)
    bd9f:	48 8d 85 70 f5 ff ff 	lea    -0xa90(%rbp),%rax
    bda6:	48 89 85 20 fe ff ff 	mov    %rax,-0x1e0(%rbp)
    bdad:	48 8d 85 2c f4 ff ff 	lea    -0xbd4(%rbp),%rax
    bdb4:	48 89 85 28 fe ff ff 	mov    %rax,-0x1d8(%rbp)
    bdbb:	48 c7 85 30 fe ff ff 	movq   $0x0,-0x1d0(%rbp)
    bdc2:	00 00 00 00 
    bdc6:	48 8d 85 28 f4 ff ff 	lea    -0xbd8(%rbp),%rax
    bdcd:	48 89 85 38 fe ff ff 	mov    %rax,-0x1c8(%rbp)
    bdd4:	48 8d 85 70 f5 ff ff 	lea    -0xa90(%rbp),%rax
    bddb:	48 89 85 40 fe ff ff 	mov    %rax,-0x1c0(%rbp)
    bde2:	48 8d 85 70 f5 ff ff 	lea    -0xa90(%rbp),%rax
    bde9:	48 89 85 48 fe ff ff 	mov    %rax,-0x1b8(%rbp)
    bdf0:	48 8d 85 2c f4 ff ff 	lea    -0xbd4(%rbp),%rax
    bdf7:	48 89 85 50 fe ff ff 	mov    %rax,-0x1b0(%rbp)
    bdfe:	48 c7 85 58 fe ff ff 	movq   $0x0,-0x1a8(%rbp)
    be05:	00 00 00 00 
    be09:	48 c7 85 60 fe ff ff 	movq   $0x0,-0x1a0(%rbp)
    be10:	00 00 00 00 
    be14:	48 c7 85 68 fe ff ff 	movq   $0x0,-0x198(%rbp)
    be1b:	00 00 00 00 
    be1f:	48 c7 85 70 fe ff ff 	movq   $0x0,-0x190(%rbp)
    be26:	00 00 00 00 
    be2a:	48 8d 85 70 f5 ff ff 	lea    -0xa90(%rbp),%rax
    be31:	48 89 85 78 fe ff ff 	mov    %rax,-0x188(%rbp)
    be38:	48 c7 85 80 fe ff ff 	movq   $0x0,-0x180(%rbp)
    be3f:	00 00 00 00 
    be43:	48 c7 85 88 fe ff ff 	movq   $0x0,-0x178(%rbp)
    be4a:	00 00 00 00 
    be4e:	48 c7 85 90 fe ff ff 	movq   $0x0,-0x170(%rbp)
    be55:	00 00 00 00 
    be59:	48 c7 85 98 fe ff ff 	movq   $0x0,-0x168(%rbp)
    be60:	00 00 00 00 
    be64:	48 8d 85 70 f5 ff ff 	lea    -0xa90(%rbp),%rax
    be6b:	48 89 85 a0 fe ff ff 	mov    %rax,-0x160(%rbp)
    be72:	48 8d 85 70 f5 ff ff 	lea    -0xa90(%rbp),%rax
    be79:	48 89 85 a8 fe ff ff 	mov    %rax,-0x158(%rbp)
    be80:	48 8d 85 28 f4 ff ff 	lea    -0xbd8(%rbp),%rax
    be87:	48 89 85 b0 fe ff ff 	mov    %rax,-0x150(%rbp)
    be8e:	48 8d 85 28 f4 ff ff 	lea    -0xbd8(%rbp),%rax
    be95:	48 89 85 b8 fe ff ff 	mov    %rax,-0x148(%rbp)
    be9c:	48 c7 85 c0 fe ff ff 	movq   $0x0,-0x140(%rbp)
    bea3:	00 00 00 00 
    bea7:	48 8d 85 2c f4 ff ff 	lea    -0xbd4(%rbp),%rax
    beae:	48 89 85 c8 fe ff ff 	mov    %rax,-0x138(%rbp)
    beb5:	48 8d 85 28 f4 ff ff 	lea    -0xbd8(%rbp),%rax
    bebc:	48 89 85 d0 fe ff ff 	mov    %rax,-0x130(%rbp)
    bec3:	48 8d 85 70 f5 ff ff 	lea    -0xa90(%rbp),%rax
    beca:	48 89 85 d8 fe ff ff 	mov    %rax,-0x128(%rbp)
    bed1:	48 8d 85 70 f5 ff ff 	lea    -0xa90(%rbp),%rax
    bed8:	48 89 85 e0 fe ff ff 	mov    %rax,-0x120(%rbp)
    bedf:	48 8d 85 28 f4 ff ff 	lea    -0xbd8(%rbp),%rax
    bee6:	48 89 85 e8 fe ff ff 	mov    %rax,-0x118(%rbp)
    beed:	48 c7 85 f0 fe ff ff 	movq   $0x0,-0x110(%rbp)
    bef4:	00 00 00 00 
    bef8:	48 8d 85 2c f4 ff ff 	lea    -0xbd4(%rbp),%rax
    beff:	48 89 85 f8 fe ff ff 	mov    %rax,-0x108(%rbp)
    bf06:	48 c7 85 00 ff ff ff 	movq   $0x0,-0x100(%rbp)
    bf0d:	00 00 00 00 
    bf11:	48 8d 85 70 f5 ff ff 	lea    -0xa90(%rbp),%rax
    bf18:	48 89 85 08 ff ff ff 	mov    %rax,-0xf8(%rbp)
    bf1f:	48 c7 85 10 ff ff ff 	movq   $0x0,-0xf0(%rbp)
    bf26:	00 00 00 00 
    bf2a:	48 8d 85 2c f4 ff ff 	lea    -0xbd4(%rbp),%rax
    bf31:	48 89 85 18 ff ff ff 	mov    %rax,-0xe8(%rbp)
    bf38:	48 c7 85 20 ff ff ff 	movq   $0x0,-0xe0(%rbp)
    bf3f:	00 00 00 00 
    bf43:	48 8d 85 28 f4 ff ff 	lea    -0xbd8(%rbp),%rax
    bf4a:	48 89 85 28 ff ff ff 	mov    %rax,-0xd8(%rbp)
    bf51:	48 8d 85 2c f4 ff ff 	lea    -0xbd4(%rbp),%rax
    bf58:	48 89 85 30 ff ff ff 	mov    %rax,-0xd0(%rbp)
    bf5f:	48 8d 85 70 f5 ff ff 	lea    -0xa90(%rbp),%rax
    bf66:	48 89 85 38 ff ff ff 	mov    %rax,-0xc8(%rbp)
    bf6d:	48 8d 85 70 f5 ff ff 	lea    -0xa90(%rbp),%rax
    bf74:	48 89 85 40 ff ff ff 	mov    %rax,-0xc0(%rbp)
    bf7b:	48 8d 85 2c f4 ff ff 	lea    -0xbd4(%rbp),%rax
    bf82:	48 89 85 48 ff ff ff 	mov    %rax,-0xb8(%rbp)
    bf89:	48 c7 85 50 ff ff ff 	movq   $0x0,-0xb0(%rbp)
    bf90:	00 00 00 00 
    bf94:	48 8d 85 28 f4 ff ff 	lea    -0xbd8(%rbp),%rax
    bf9b:	48 89 85 58 ff ff ff 	mov    %rax,-0xa8(%rbp)
    bfa2:	48 8d 85 70 f5 ff ff 	lea    -0xa90(%rbp),%rax
    bfa9:	48 89 85 60 ff ff ff 	mov    %rax,-0xa0(%rbp)
    bfb0:	48 8d 85 70 f5 ff ff 	lea    -0xa90(%rbp),%rax
    bfb7:	48 89 85 68 ff ff ff 	mov    %rax,-0x98(%rbp)
    bfbe:	48 8d 85 2c f4 ff ff 	lea    -0xbd4(%rbp),%rax
    bfc5:	48 89 85 70 ff ff ff 	mov    %rax,-0x90(%rbp)
    bfcc:	48 c7 85 78 ff ff ff 	movq   $0x0,-0x88(%rbp)
    bfd3:	00 00 00 00 
    bfd7:	48 c7 45 80 00 00 00 	movq   $0x0,-0x80(%rbp)
    bfde:	00 
    bfdf:	48 c7 45 88 00 00 00 	movq   $0x0,-0x78(%rbp)
    bfe6:	00 
    bfe7:	48 c7 45 90 00 00 00 	movq   $0x0,-0x70(%rbp)
    bfee:	00 
    bfef:	48 8d 85 70 f5 ff ff 	lea    -0xa90(%rbp),%rax
    bff6:	48 89 45 98          	mov    %rax,-0x68(%rbp)
    bffa:	48 c7 45 a0 00 00 00 	movq   $0x0,-0x60(%rbp)
    c001:	00 
    c002:	48 c7 45 a8 00 00 00 	movq   $0x0,-0x58(%rbp)
    c009:	00 
    c00a:	48 c7 45 b0 00 00 00 	movq   $0x0,-0x50(%rbp)
    c011:	00 
    c012:	48 c7 45 b8 00 00 00 	movq   $0x0,-0x48(%rbp)
    c019:	00 
    c01a:	48 8d 85 70 f5 ff ff 	lea    -0xa90(%rbp),%rax
    c021:	48 89 45 c0          	mov    %rax,-0x40(%rbp)
    c025:	48 8d 85 70 f5 ff ff 	lea    -0xa90(%rbp),%rax
    c02c:	48 89 45 c8          	mov    %rax,-0x38(%rbp)
    c030:	48 8d 85 d0 f5 ff ff 	lea    -0xa30(%rbp),%rax
    c037:	48 8d 15 a2 00 01 00 	lea    0x100a2(%rip),%rdx        # 1c0e0 <g_1254+0x1c>
    c03e:	b9 3f 00 00 00       	mov    $0x3f,%ecx
    c043:	48 89 c7             	mov    %rax,%rdi
    c046:	48 89 d6             	mov    %rdx,%rsi
    c049:	f3 48 a5             	rep movsq %ds:(%rsi),%es:(%rdi)
    c04c:	48 8d 85 22 f4 ff ff 	lea    -0xbde(%rbp),%rax
    c053:	48 89 85 c0 f4 ff ff 	mov    %rax,-0xb40(%rbp)
    c05a:	48 8d 05 cf 4f 01 00 	lea    0x14fcf(%rip),%rax        # 21030 <g_27>
    c061:	48 89 85 c8 f4 ff ff 	mov    %rax,-0xb38(%rbp)
    c068:	66 c7 85 26 f4 ff ff 	movw   $0xed27,-0xbda(%rbp)
    c06f:	27 ed 
    c071:	48 c7 85 08 f4 ff ff 	movq   $0x1,-0xbf8(%rbp)
    c078:	01 00 00 00 
    c07c:	e9 10 01 00 00       	jmpq   c191 <func_19+0x1096>
    c081:	48 c7 85 d0 f4 ff ff 	movq   $0x0,-0xb30(%rbp)
    c088:	00 00 00 00 
    c08c:	48 c7 85 d8 f4 ff ff 	movq   $0x0,-0xb28(%rbp)
    c093:	00 00 00 00 
    c097:	c7 85 44 f4 ff ff 8a 	movl   $0xb5f68a,-0xbbc(%rbp)
    c09e:	f6 b5 00 
    c0a1:	c7 85 48 f4 ff ff 03 	movl   $0x3,-0xbb8(%rbp)
    c0a8:	00 00 00 
    c0ab:	c7 85 4c f4 ff ff 00 	movl   $0x0,-0xbb4(%rbp)
    c0b2:	00 00 00 
    c0b5:	c7 85 50 f4 ff ff fe 	movl   $0xfffffffe,-0xbb0(%rbp)
    c0bc:	ff ff ff 
    c0bf:	48 c7 85 e0 f4 ff ff 	movq   $0x0,-0xb20(%rbp)
    c0c6:	00 00 00 00 
    c0ca:	48 8d 05 6f 68 01 00 	lea    0x1686f(%rip),%rax        # 22940 <g_742>
    c0d1:	48 89 85 e8 f4 ff ff 	mov    %rax,-0xb18(%rbp)
    c0d8:	48 c7 85 f0 f4 ff ff 	movq   $0x0,-0xb10(%rbp)
    c0df:	00 00 00 00 
    c0e3:	48 8d 85 28 f4 ff ff 	lea    -0xbd8(%rbp),%rax
    c0ea:	48 89 85 a0 f5 ff ff 	mov    %rax,-0xa60(%rbp)
    c0f1:	48 8d 85 28 f4 ff ff 	lea    -0xbd8(%rbp),%rax
    c0f8:	48 89 85 a8 f5 ff ff 	mov    %rax,-0xa58(%rbp)
    c0ff:	48 8d 85 70 f5 ff ff 	lea    -0xa90(%rbp),%rax
    c106:	48 83 c0 24          	add    $0x24,%rax
    c10a:	48 89 85 b0 f5 ff ff 	mov    %rax,-0xa50(%rbp)
    c111:	48 8d 85 28 f4 ff ff 	lea    -0xbd8(%rbp),%rax
    c118:	48 89 85 b8 f5 ff ff 	mov    %rax,-0xa48(%rbp)
    c11f:	48 8d 85 28 f4 ff ff 	lea    -0xbd8(%rbp),%rax
    c126:	48 89 85 c0 f5 ff ff 	mov    %rax,-0xa40(%rbp)
    c12d:	48 8d 85 70 f5 ff ff 	lea    -0xa90(%rbp),%rax
    c134:	48 83 c0 24          	add    $0x24,%rax
    c138:	48 89 85 c8 f5 ff ff 	mov    %rax,-0xa38(%rbp)
    c13f:	48 b8 4c cb 27 45 95 	movabs $0x8689be954527cb4c,%rax
    c146:	be 89 86 
    c149:	48 89 85 f8 f4 ff ff 	mov    %rax,-0xb08(%rbp)
    c150:	c7 85 54 f4 ff ff 01 	movl   $0x1,-0xbac(%rbp)
    c157:	00 00 00 
    c15a:	c7 85 30 f4 ff ff 00 	movl   $0x0,-0xbd0(%rbp)
    c161:	00 00 00 
    c164:	eb 1a                	jmp    c180 <func_19+0x1085>
    c166:	8b 85 30 f4 ff ff    	mov    -0xbd0(%rbp),%eax
    c16c:	48 98                	cltq   
    c16e:	c7 84 85 40 f5 ff ff 	movl   $0x75a8055a,-0xac0(%rbp,%rax,4)
    c175:	5a 05 a8 75 
    c179:	83 85 30 f4 ff ff 01 	addl   $0x1,-0xbd0(%rbp)
    c180:	83 bd 30 f4 ff ff 08 	cmpl   $0x8,-0xbd0(%rbp)
    c187:	7e dd                	jle    c166 <func_19+0x106b>
    c189:	48 83 85 08 f4 ff ff 	addq   $0x1,-0xbf8(%rbp)
    c190:	01 
    c191:	48 83 bd 08 f4 ff ff 	cmpq   $0x5,-0xbf8(%rbp)
    c198:	05 
    c199:	0f 8e e2 fe ff ff    	jle    c081 <func_19+0xf86>
    c19f:	48 8b 85 a0 f6 ff ff 	mov    -0x960(%rbp),%rax
    c1a6:	48 83 c0 01          	add    $0x1,%rax
    c1aa:	48 89 85 a0 f6 ff ff 	mov    %rax,-0x960(%rbp)
    c1b1:	48 8b 85 c8 f4 ff ff 	mov    -0xb38(%rbp),%rax
    c1b8:	48 89 c7             	mov    %rax,%rdi
    c1bb:	e8 63 54 00 00       	callq  11623 <func_63>
    c1c0:	0f b7 9d 26 f4 ff ff 	movzwl -0xbda(%rbp),%ebx
    c1c7:	48 8b 85 c0 f4 ff ff 	mov    -0xb40(%rbp),%rax
    c1ce:	0f b7 00             	movzwl (%rax),%eax
    c1d1:	8d 50 01             	lea    0x1(%rax),%edx
    c1d4:	48 8b 85 c0 f4 ff ff 	mov    -0xb40(%rbp),%rax
    c1db:	66 89 10             	mov    %dx,(%rax)
    c1de:	48 8b 85 c0 f4 ff ff 	mov    -0xb40(%rbp),%rax
    c1e5:	0f b7 00             	movzwl (%rax),%eax
    c1e8:	0f b7 c0             	movzwl %ax,%eax
    c1eb:	be 0e 00 00 00       	mov    $0xe,%esi
    c1f0:	89 c7                	mov    %eax,%edi
    c1f2:	e8 0f dc ff ff       	callq  9e06 <safe_lshift_func_uint16_t_u_u>
    c1f7:	0f b7 c0             	movzwl %ax,%eax
    c1fa:	48 89 de             	mov    %rbx,%rsi
    c1fd:	48 89 c7             	mov    %rax,%rdi
    c200:	e8 3c d6 ff ff       	callq  9841 <safe_add_func_int64_t_s_s>
    c205:	89 c2                	mov    %eax,%edx
    c207:	48 8b 85 b8 f4 ff ff 	mov    -0xb48(%rbp),%rax
    c20e:	89 10                	mov    %edx,(%rax)
    c210:	0f b6 85 11 f4 ff ff 	movzbl -0xbef(%rbp),%eax
    c217:	0f b6 d8             	movzbl %al,%ebx
    c21a:	48 8b 85 a0 f4 ff ff 	mov    -0xb60(%rbp),%rax
    c221:	8b 00                	mov    (%rax),%eax
    c223:	85 c0                	test   %eax,%eax
    c225:	0f 85 bf 00 00 00    	jne    c2ea <func_19+0x11ef>
    c22b:	48 8b 85 88 f4 ff ff 	mov    -0xb78(%rbp),%rax
    c232:	44 8b 28             	mov    (%rax),%r13d
    c235:	48 8b 85 90 f4 ff ff 	mov    -0xb70(%rbp),%rax
    c23c:	44 8b 20             	mov    (%rax),%r12d
    c23f:	48 8b 85 90 f4 ff ff 	mov    -0xb70(%rbp),%rax
    c246:	8b 00                	mov    (%rax),%eax
    c248:	41 89 c6             	mov    %eax,%r14d
    c24b:	8b 95 14 f4 ff ff    	mov    -0xbec(%rbp),%edx
    c251:	0f b6 85 11 f4 ff ff 	movzbl -0xbef(%rbp),%eax
    c258:	0f be c0             	movsbl %al,%eax
    c25b:	89 d6                	mov    %edx,%esi
    c25d:	89 c7                	mov    %eax,%edi
    c25f:	e8 08 d1 ff ff       	callq  936c <safe_rshift_func_int8_t_s_u>
    c264:	66 98                	cbtw   
    c266:	0f b7 c0             	movzwl %ax,%eax
    c269:	be fb ff 00 00       	mov    $0xfffb,%esi
    c26e:	89 c7                	mov    %eax,%edi
    c270:	e8 c8 da ff ff       	callq  9d3d <safe_mul_func_uint16_t_u_u>
    c275:	0f b7 c0             	movzwl %ax,%eax
    c278:	44 89 f6             	mov    %r14d,%esi
    c27b:	89 c7                	mov    %eax,%edi
    c27d:	e8 36 dc ff ff       	callq  9eb8 <safe_add_func_uint32_t_u_u>
    c282:	0f b7 c0             	movzwl %ax,%eax
    c285:	44 89 e6             	mov    %r12d,%esi
    c288:	89 c7                	mov    %eax,%edi
    c28a:	e8 b9 db ff ff       	callq  9e48 <safe_rshift_func_uint16_t_u_s>
    c28f:	0f b7 d0             	movzwl %ax,%edx
    c292:	8b 05 c8 82 01 00    	mov    0x182c8(%rip),%eax        # 24560 <g_1295+0x10>
    c298:	c1 e0 0d             	shl    $0xd,%eax
    c29b:	c1 f8 0d             	sar    $0xd,%eax
    c29e:	39 c2                	cmp    %eax,%edx
    c2a0:	0f 9e c0             	setle  %al
    c2a3:	0f b6 c0             	movzbl %al,%eax
    c2a6:	41 39 c5             	cmp    %eax,%r13d
    c2a9:	0f 9f c0             	setg   %al
    c2ac:	0f b6 c0             	movzbl %al,%eax
    c2af:	be 9b ff ff ff       	mov    $0xffffff9b,%esi
    c2b4:	89 c7                	mov    %eax,%edi
    c2b6:	e8 57 cf ff ff       	callq  9212 <safe_mul_func_int8_t_s_s>
    c2bb:	84 c0                	test   %al,%al
    c2bd:	74 11                	je     c2d0 <func_19+0x11d5>
    c2bf:	48 83 bd 08 f4 ff ff 	cmpq   $0x0,-0xbf8(%rbp)
    c2c6:	00 
    c2c7:	74 07                	je     c2d0 <func_19+0x11d5>
    c2c9:	b8 01 00 00 00       	mov    $0x1,%eax
    c2ce:	eb 05                	jmp    c2d5 <func_19+0x11da>
    c2d0:	b8 00 00 00 00       	mov    $0x0,%eax
    c2d5:	48 98                	cltq   
    c2d7:	48 89 05 2a 8b 01 00 	mov    %rax,0x18b2a(%rip)        # 24e08 <g_1538>
    c2de:	48 8b 05 23 8b 01 00 	mov    0x18b23(%rip),%rax        # 24e08 <g_1538>
    c2e5:	48 85 c0             	test   %rax,%rax
    c2e8:	74 07                	je     c2f1 <func_19+0x11f6>
    c2ea:	b8 01 00 00 00       	mov    $0x1,%eax
    c2ef:	eb 05                	jmp    c2f6 <func_19+0x11fb>
    c2f1:	b8 00 00 00 00       	mov    $0x0,%eax
    c2f6:	48 63 d0             	movslq %eax,%rdx
    c2f9:	48 8b 85 88 f4 ff ff 	mov    -0xb78(%rbp),%rax
    c300:	8b 00                	mov    (%rax),%eax
    c302:	48 98                	cltq   
    c304:	48 89 85 f8 f3 ff ff 	mov    %rax,-0xc08(%rbp)
    c30b:	0f b6 85 10 f4 ff ff 	movzbl -0xbf0(%rbp),%eax
    c312:	0f b6 c0             	movzbl %al,%eax
    c315:	48 33 85 f8 f3 ff ff 	xor    -0xc08(%rbp),%rax
    c31c:	48 89 d6             	mov    %rdx,%rsi
    c31f:	48 89 c7             	mov    %rax,%rdi
    c322:	e8 88 dd ff ff       	callq  a0af <safe_div_func_uint64_t_u_u>
    c327:	89 c2                	mov    %eax,%edx
    c329:	48 8b 85 88 f4 ff ff 	mov    -0xb78(%rbp),%rax
    c330:	8b 00                	mov    (%rax),%eax
    c332:	31 d0                	xor    %edx,%eax
    c334:	0f b7 c0             	movzwl %ax,%eax
    c337:	89 de                	mov    %ebx,%esi
    c339:	89 c7                	mov    %eax,%edi
    c33b:	e8 08 db ff ff       	callq  9e48 <safe_rshift_func_uint16_t_u_s>
    c340:	0f b7 d0             	movzwl %ax,%edx
    c343:	48 8b 85 a0 f4 ff ff 	mov    -0xb60(%rbp),%rax
    c34a:	89 10                	mov    %edx,(%rax)
    c34c:	8b 85 14 f4 ff ff    	mov    -0xbec(%rbp),%eax
    c352:	48 8b 4d d8          	mov    -0x28(%rbp),%rcx
    c356:	64 48 33 0c 25 28 00 	xor    %fs:0x28,%rcx
    c35d:	00 00 
    c35f:	74 05                	je     c366 <func_19+0x126b>
    c361:	e8 0a cd ff ff       	callq  9070 <__stack_chk_fail@plt>
    c366:	48 81 c4 f0 0b 00 00 	add    $0xbf0,%rsp
    c36d:	5b                   	pop    %rbx
    c36e:	41 5c                	pop    %r12
    c370:	41 5d                	pop    %r13
    c372:	41 5e                	pop    %r14
    c374:	5d                   	pop    %rbp
    c375:	c3                   	retq   

000000000000c376 <func_45>:
    c376:	f3 0f 1e fa          	endbr64 
    c37a:	55                   	push   %rbp
    c37b:	48 89 e5             	mov    %rsp,%rbp
    c37e:	48 83 ec 70          	sub    $0x70,%rsp
    c382:	89 7d bc             	mov    %edi,-0x44(%rbp)
    c385:	89 75 b8             	mov    %esi,-0x48(%rbp)
    c388:	48 89 d0             	mov    %rdx,%rax
    c38b:	48 89 ca             	mov    %rcx,%rdx
    c38e:	4c 89 45 a0          	mov    %r8,-0x60(%rbp)
    c392:	44 89 c9             	mov    %r9d,%ecx
    c395:	48 89 45 a8          	mov    %rax,-0x58(%rbp)
    c399:	8b 45 b0             	mov    -0x50(%rbp),%eax
    c39c:	83 e0 00             	and    $0x0,%eax
    c39f:	09 d0                	or     %edx,%eax
    c3a1:	89 45 b0             	mov    %eax,-0x50(%rbp)
    c3a4:	89 c8                	mov    %ecx,%eax
    c3a6:	88 45 9c             	mov    %al,-0x64(%rbp)
    c3a9:	64 48 8b 04 25 28 00 	mov    %fs:0x28,%rax
    c3b0:	00 00 
    c3b2:	48 89 45 f8          	mov    %rax,-0x8(%rbp)
    c3b6:	31 c0                	xor    %eax,%eax
    c3b8:	48 8d 05 09 bc 01 00 	lea    0x1bc09(%rip),%rax        # 27fc8 <g_1165>
    c3bf:	48 89 45 c0          	mov    %rax,-0x40(%rbp)
    c3c3:	48 8d 05 6e 4d 01 00 	lea    0x14d6e(%rip),%rax        # 21138 <g_137+0x8>
    c3ca:	48 89 45 c8          	mov    %rax,-0x38(%rbp)
    c3ce:	66 c7 05 bd 63 01 00 	movw   $0x0,0x163bd(%rip)        # 22794 <g_501+0x4>
    c3d5:	00 00 
    c3d7:	e9 a5 00 00 00       	jmpq   c481 <func_45+0x10b>
    c3dc:	48 8d 05 4d 4d 01 00 	lea    0x14d4d(%rip),%rax        # 21130 <g_137>
    c3e3:	48 89 45 d0          	mov    %rax,-0x30(%rbp)
    c3e7:	c7 45 e0 a3 69 a3 e1 	movl   $0xe1a369a3,-0x20(%rbp)
    c3ee:	c7 45 e4 7f 7c 7f 2d 	movl   $0x2d7f7c7f,-0x1c(%rbp)
    c3f5:	c7 45 e8 a3 69 a3 e1 	movl   $0xe1a369a3,-0x18(%rbp)
    c3fc:	c7 45 ec 7f 7c 7f 2d 	movl   $0x2d7f7c7f,-0x14(%rbp)
    c403:	c7 45 f0 a3 69 a3 e1 	movl   $0xe1a369a3,-0x10(%rbp)
    c40a:	48 8d 05 4f 64 01 00 	lea    0x1644f(%rip),%rax        # 22860 <g_677>
    c411:	48 89 45 d8          	mov    %rax,-0x28(%rbp)
    c415:	48 8d 05 74 bb 01 00 	lea    0x1bb74(%rip),%rax        # 27f90 <g_828>
    c41c:	48 89 05 75 bb 01 00 	mov    %rax,0x1bb75(%rip)        # 27f98 <g_827>
    c423:	48 8d 05 66 bb 01 00 	lea    0x1bb66(%rip),%rax        # 27f90 <g_828>
    c42a:	48 39 45 c0          	cmp    %rax,-0x40(%rbp)
    c42e:	0f 94 c2             	sete   %dl
    c431:	48 8d 05 f8 4b 01 00 	lea    0x14bf8(%rip),%rax        # 21030 <g_27>
    c438:	48 89 45 d0          	mov    %rax,-0x30(%rbp)
    c43c:	48 8b 45 d0          	mov    -0x30(%rbp),%rax
    c440:	48 3b 45 c8          	cmp    -0x38(%rbp),%rax
    c444:	0f 94 c0             	sete   %al
    c447:	31 d0                	xor    %edx,%eax
    c449:	0f b6 d0             	movzbl %al,%edx
    c44c:	48 8b 45 a0          	mov    -0x60(%rbp),%rax
    c450:	8b 00                	mov    (%rax),%eax
    c452:	39 c2                	cmp    %eax,%edx
    c454:	0f 9e c0             	setle  %al
    c457:	0f b6 d0             	movzbl %al,%edx
    c45a:	8b 45 ec             	mov    -0x14(%rbp),%eax
    c45d:	31 d0                	xor    %edx,%eax
    c45f:	89 45 ec             	mov    %eax,-0x14(%rbp)
    c462:	48 8b 05 3f c5 01 00 	mov    0x1c53f(%rip),%rax        # 289a8 <g_1428>
    c469:	48 8b 55 d8          	mov    -0x28(%rbp),%rdx
    c46d:	48 89 10             	mov    %rdx,(%rax)
    c470:	0f b7 05 1d 63 01 00 	movzwl 0x1631d(%rip),%eax        # 22794 <g_501+0x4>
    c477:	83 c0 01             	add    $0x1,%eax
    c47a:	66 89 05 13 63 01 00 	mov    %ax,0x16313(%rip)        # 22794 <g_501+0x4>
    c481:	0f b7 05 0c 63 01 00 	movzwl 0x1630c(%rip),%eax        # 22794 <g_501+0x4>
    c488:	66 85 c0             	test   %ax,%ax
    c48b:	0f 8e 4b ff ff ff    	jle    c3dc <func_45+0x66>
    c491:	8b 45 bc             	mov    -0x44(%rbp),%eax
    c494:	48 8b 75 f8          	mov    -0x8(%rbp),%rsi
    c498:	64 48 33 34 25 28 00 	xor    %fs:0x28,%rsi
    c49f:	00 00 
    c4a1:	74 05                	je     c4a8 <func_45+0x132>
    c4a3:	e8 c8 cb ff ff       	callq  9070 <__stack_chk_fail@plt>
    c4a8:	c9                   	leaveq 
    c4a9:	c3                   	retq   

000000000000c4aa <func_52>:
    c4aa:	f3 0f 1e fa          	endbr64 
    c4ae:	55                   	push   %rbp
    c4af:	48 89 e5             	mov    %rsp,%rbp
    c4b2:	41 55                	push   %r13
    c4b4:	41 54                	push   %r12
    c4b6:	53                   	push   %rbx
    c4b7:	48 81 ec d8 0a 00 00 	sub    $0xad8,%rsp
    c4be:	89 f8                	mov    %edi,%eax
    c4c0:	48 89 b5 30 f5 ff ff 	mov    %rsi,-0xad0(%rbp)
    c4c7:	48 89 95 28 f5 ff ff 	mov    %rdx,-0xad8(%rbp)
    c4ce:	88 85 3c f5 ff ff    	mov    %al,-0xac4(%rbp)
    c4d4:	64 48 8b 04 25 28 00 	mov    %fs:0x28,%rax
    c4db:	00 00 
    c4dd:	48 89 45 d8          	mov    %rax,-0x28(%rbp)
    c4e1:	31 c0                	xor    %eax,%eax
    c4e3:	c7 85 74 f5 ff ff ff 	movl   $0xffffffff,-0xa8c(%rbp)
    c4ea:	ff ff ff 
    c4ed:	48 8d 05 3c 4b 01 00 	lea    0x14b3c(%rip),%rax        # 21030 <g_27>
    c4f4:	48 89 85 a0 f5 ff ff 	mov    %rax,-0xa60(%rbp)
    c4fb:	48 8d 05 0e bb 01 00 	lea    0x1bb0e(%rip),%rax        # 28010 <g_1172+0x30>
    c502:	48 89 85 d0 f6 ff ff 	mov    %rax,-0x930(%rbp)
    c509:	48 c7 85 d8 f6 ff ff 	movq   $0x0,-0x928(%rbp)
    c510:	00 00 00 00 
    c514:	48 8d 05 f5 ba 01 00 	lea    0x1baf5(%rip),%rax        # 28010 <g_1172+0x30>
    c51b:	48 89 85 e0 f6 ff ff 	mov    %rax,-0x920(%rbp)
    c522:	48 8d 05 cf ba 01 00 	lea    0x1bacf(%rip),%rax        # 27ff8 <g_1172+0x18>
    c529:	48 89 85 e8 f6 ff ff 	mov    %rax,-0x918(%rbp)
    c530:	48 8d 05 d9 ba 01 00 	lea    0x1bad9(%rip),%rax        # 28010 <g_1172+0x30>
    c537:	48 89 85 f0 f6 ff ff 	mov    %rax,-0x910(%rbp)
    c53e:	48 8d 05 cb ba 01 00 	lea    0x1bacb(%rip),%rax        # 28010 <g_1172+0x30>
    c545:	48 89 85 f8 f6 ff ff 	mov    %rax,-0x908(%rbp)
    c54c:	48 c7 85 00 f7 ff ff 	movq   $0x0,-0x900(%rbp)
    c553:	00 00 00 00 
    c557:	48 8d 05 b2 ba 01 00 	lea    0x1bab2(%rip),%rax        # 28010 <g_1172+0x30>
    c55e:	48 89 85 08 f7 ff ff 	mov    %rax,-0x8f8(%rbp)
    c565:	48 c7 85 10 f7 ff ff 	movq   $0x0,-0x8f0(%rbp)
    c56c:	00 00 00 00 
    c570:	48 8d 05 99 ba 01 00 	lea    0x1ba99(%rip),%rax        # 28010 <g_1172+0x30>
    c577:	48 89 85 18 f7 ff ff 	mov    %rax,-0x8e8(%rbp)
    c57e:	48 8d 05 8b ba 01 00 	lea    0x1ba8b(%rip),%rax        # 28010 <g_1172+0x30>
    c585:	48 89 85 20 f7 ff ff 	mov    %rax,-0x8e0(%rbp)
    c58c:	48 c7 85 28 f7 ff ff 	movq   $0x0,-0x8d8(%rbp)
    c593:	00 00 00 00 
    c597:	48 c7 85 30 f7 ff ff 	movq   $0x0,-0x8d0(%rbp)
    c59e:	00 00 00 00 
    c5a2:	48 8d 05 67 ba 01 00 	lea    0x1ba67(%rip),%rax        # 28010 <g_1172+0x30>
    c5a9:	48 89 85 38 f7 ff ff 	mov    %rax,-0x8c8(%rbp)
    c5b0:	48 c7 85 40 f7 ff ff 	movq   $0x0,-0x8c0(%rbp)
    c5b7:	00 00 00 00 
    c5bb:	48 8d 05 66 77 01 00 	lea    0x17766(%rip),%rax        # 23d28 <g_1050>
    c5c2:	48 89 85 a8 f5 ff ff 	mov    %rax,-0xa58(%rbp)
    c5c9:	48 8d 85 74 f6 ff ff 	lea    -0x98c(%rbp),%rax
    c5d0:	48 89 85 b0 f5 ff ff 	mov    %rax,-0xa50(%rbp)
    c5d7:	48 8d 05 ca b1 01 00 	lea    0x1b1ca(%rip),%rax        # 277a8 <g_182+0x28>
    c5de:	48 89 85 98 f5 ff ff 	mov    %rax,-0xa68(%rbp)
    c5e5:	48 8d 85 98 f5 ff ff 	lea    -0xa68(%rbp),%rax
    c5ec:	48 89 85 b8 f5 ff ff 	mov    %rax,-0xa48(%rbp)
    c5f3:	48 c7 85 c0 f5 ff ff 	movq   $0x0,-0xa40(%rbp)
    c5fa:	00 00 00 00 
    c5fe:	c7 85 78 f5 ff ff ff 	movl   $0xffffffff,-0xa88(%rbp)
    c605:	ff ff ff 
    c608:	48 8d 05 e1 85 01 00 	lea    0x185e1(%rip),%rax        # 24bf0 <g_1416>
    c60f:	48 89 85 c8 f5 ff ff 	mov    %rax,-0xa38(%rbp)
    c616:	c6 85 5c f6 ff ff 3f 	movb   $0x3f,-0x9a4(%rbp)
    c61d:	c6 85 5d f6 ff ff f7 	movb   $0xf7,-0x9a3(%rbp)
    c624:	c7 85 60 f6 ff ff a4 	movl   $0x8f0129a4,-0x9a0(%rbp)
    c62b:	29 01 8f 
    c62e:	66 c7 85 64 f6 ff ff 	movw   $0xffff,-0x99c(%rbp)
    c635:	ff ff 
    c637:	c7 85 5c f5 ff ff 00 	movl   $0x0,-0xaa4(%rbp)
    c63e:	00 00 00 
    c641:	eb 1a                	jmp    c65d <func_52+0x1b3>
    c643:	8b 85 5c f5 ff ff    	mov    -0xaa4(%rbp),%eax
    c649:	48 98                	cltq   
    c64b:	c7 84 85 74 f6 ff ff 	movl   $0x0,-0x98c(%rbp,%rax,4)
    c652:	00 00 00 00 
    c656:	83 85 5c f5 ff ff 01 	addl   $0x1,-0xaa4(%rbp)
    c65d:	83 bd 5c f5 ff ff 02 	cmpl   $0x2,-0xaa4(%rbp)
    c664:	7e dd                	jle    c643 <func_52+0x199>
    c666:	90                   	nop
    c667:	48 c7 05 7e b9 01 00 	movq   $0x0,0x1b97e(%rip)        # 27ff0 <g_1172+0x10>
    c66e:	00 00 00 00 
    c672:	48 8b 85 a8 f5 ff ff 	mov    -0xa58(%rbp),%rax
    c679:	c7 00 00 00 00 00    	movl   $0x0,(%rax)
    c67f:	48 8b 85 a8 f5 ff ff 	mov    -0xa58(%rbp),%rax
    c686:	8b 10                	mov    (%rax),%edx
    c688:	48 8b 85 b0 f5 ff ff 	mov    -0xa50(%rbp),%rax
    c68f:	8b 00                	mov    (%rax),%eax
    c691:	21 c2                	and    %eax,%edx
    c693:	48 8b 85 b0 f5 ff ff 	mov    -0xa50(%rbp),%rax
    c69a:	89 10                	mov    %edx,(%rax)
    c69c:	0f b7 05 b1 73 01 00 	movzwl 0x173b1(%rip),%eax        # 23a54 <g_894+0x1d4>
    c6a3:	0f bf d8             	movswl %ax,%ebx
    c6a6:	48 8b 85 30 f5 ff ff 	mov    -0xad0(%rbp),%rax
    c6ad:	0f b7 d0             	movzwl %ax,%edx
    c6b0:	8b 05 26 76 01 00    	mov    0x17626(%rip),%eax        # 23cdc <g_990+0x1c>
    c6b6:	c1 e0 06             	shl    $0x6,%eax
    c6b9:	c1 f8 06             	sar    $0x6,%eax
    c6bc:	48 63 c8             	movslq %eax,%rcx
    c6bf:	48 8b 85 a0 f5 ff ff 	mov    -0xa60(%rbp),%rax
    c6c6:	48 89 08             	mov    %rcx,(%rax)
    c6c9:	48 8b 85 a0 f5 ff ff 	mov    -0xa60(%rbp),%rax
    c6d0:	48 8b 00             	mov    (%rax),%rax
    c6d3:	48 85 c0             	test   %rax,%rax
    c6d6:	0f 9e c0             	setle  %al
    c6d9:	0f b6 c0             	movzbl %al,%eax
    c6dc:	89 d6                	mov    %edx,%esi
    c6de:	89 c7                	mov    %eax,%edi
    c6e0:	e8 58 d6 ff ff       	callq  9d3d <safe_mul_func_uint16_t_u_u>
    c6e5:	0f b7 d0             	movzwl %ax,%edx
    c6e8:	48 8b 85 b0 f5 ff ff 	mov    -0xa50(%rbp),%rax
    c6ef:	8b 00                	mov    (%rax),%eax
    c6f1:	39 c2                	cmp    %eax,%edx
    c6f3:	0f 9e c0             	setle  %al
    c6f6:	0f b6 d0             	movzbl %al,%edx
    c6f9:	48 8b 05 68 b0 01 00 	mov    0x1b068(%rip),%rax        # 27768 <g_125>
    c700:	48 8b 00             	mov    (%rax),%rax
    c703:	0f b7 00             	movzwl (%rax),%eax
    c706:	98                   	cwtl   
    c707:	39 c2                	cmp    %eax,%edx
    c709:	0f 9f c0             	setg   %al
    c70c:	0f b6 d0             	movzbl %al,%edx
    c70f:	48 8b 85 a8 f5 ff ff 	mov    -0xa58(%rbp),%rax
    c716:	8b 00                	mov    (%rax),%eax
    c718:	39 c2                	cmp    %eax,%edx
    c71a:	0f 9d c0             	setge  %al
    c71d:	0f b6 c0             	movzbl %al,%eax
    c720:	48 8b 15 41 b0 01 00 	mov    0x1b041(%rip),%rdx        # 27768 <g_125>
    c727:	4c 8b 22             	mov    (%rdx),%r12
    c72a:	be 09 00 00 00       	mov    $0x9,%esi
    c72f:	89 c7                	mov    %eax,%edi
    c731:	e8 ab cd ff ff       	callq  94e1 <safe_lshift_func_int16_t_s_u>
    c736:	66 41 89 04 24       	mov    %ax,(%r12)
    c73b:	89 de                	mov    %ebx,%esi
    c73d:	bf 00 00 00 00       	mov    $0x0,%edi
    c742:	e8 71 d7 ff ff       	callq  9eb8 <safe_add_func_uint32_t_u_u>
    c747:	48 8b 05 8a b0 01 00 	mov    0x1b08a(%rip),%rax        # 277d8 <g_557>
    c74e:	48 8b 00             	mov    (%rax),%rax
    c751:	48 8b 00             	mov    (%rax),%rax
    c754:	0f b7 00             	movzwl (%rax),%eax
    c757:	0f b7 d0             	movzwl %ax,%edx
    c75a:	48 8b 8d 98 f5 ff ff 	mov    -0xa68(%rbp),%rcx
    c761:	48 8b 85 b8 f5 ff ff 	mov    -0xa48(%rbp),%rax
    c768:	48 89 08             	mov    %rcx,(%rax)
    c76b:	48 8b 85 b8 f5 ff ff 	mov    -0xa48(%rbp),%rax
    c772:	48 8b 00             	mov    (%rax),%rax
    c775:	48 39 85 c0 f5 ff ff 	cmp    %rax,-0xa40(%rbp)
    c77c:	0f 94 c0             	sete   %al
    c77f:	0f b6 c0             	movzbl %al,%eax
    c782:	89 d6                	mov    %edx,%esi
    c784:	89 c7                	mov    %eax,%edi
    c786:	e8 03 d6 ff ff       	callq  9d8e <safe_div_func_uint16_t_u_u>
    c78b:	0f b6 95 3c f5 ff ff 	movzbl -0xac4(%rbp),%edx
    c792:	66 39 d0             	cmp    %dx,%ax
    c795:	0f 96 c0             	setbe  %al
    c798:	0f b6 d0             	movzbl %al,%edx
    c79b:	48 8b 85 b0 f5 ff ff 	mov    -0xa50(%rbp),%rax
    c7a2:	8b 00                	mov    (%rax),%eax
    c7a4:	39 c2                	cmp    %eax,%edx
    c7a6:	0f 95 c0             	setne  %al
    c7a9:	0f b6 d0             	movzbl %al,%edx
    c7ac:	48 8b 85 a8 f5 ff ff 	mov    -0xa58(%rbp),%rax
    c7b3:	89 10                	mov    %edx,(%rax)
    c7b5:	66 c7 05 d6 72 01 00 	movw   $0xffe6,0x172d6(%rip)        # 23a94 <g_896+0x4>
    c7bc:	e6 ff 
    c7be:	e9 a1 0a 00 00       	jmpq   d264 <func_52+0xdba>
    c7c3:	c7 85 7c f5 ff ff fe 	movl   $0xfffffffe,-0xa84(%rbp)
    c7ca:	ff ff ff 
    c7cd:	48 8d 05 58 4a 01 00 	lea    0x14a58(%rip),%rax        # 2122c <g_256>
    c7d4:	48 89 85 d0 f5 ff ff 	mov    %rax,-0xa30(%rbp)
    c7db:	c6 85 4d f5 ff ff d7 	movb   $0xd7,-0xab3(%rbp)
    c7e2:	c7 85 80 f6 ff ff 75 	movl   $0x8d046e75,-0x980(%rbp)
    c7e9:	6e 04 8d 
    c7ec:	c7 85 84 f6 ff ff 75 	movl   $0x8d046e75,-0x97c(%rbp)
    c7f3:	6e 04 8d 
    c7f6:	c7 85 88 f6 ff ff 75 	movl   $0x8d046e75,-0x978(%rbp)
    c7fd:	6e 04 8d 
    c800:	c7 85 8c f6 ff ff 75 	movl   $0x8d046e75,-0x974(%rbp)
    c807:	6e 04 8d 
    c80a:	c7 85 90 f6 ff ff 75 	movl   $0x8d046e75,-0x970(%rbp)
    c811:	6e 04 8d 
    c814:	c7 85 94 f6 ff ff 75 	movl   $0x8d046e75,-0x96c(%rbp)
    c81b:	6e 04 8d 
    c81e:	c7 85 98 f6 ff ff 75 	movl   $0x8d046e75,-0x968(%rbp)
    c825:	6e 04 8d 
    c828:	c7 85 9c f6 ff ff 75 	movl   $0x8d046e75,-0x964(%rbp)
    c82f:	6e 04 8d 
    c832:	48 c7 85 d8 f5 ff ff 	movq   $0xfffffffffffffffd,-0xa28(%rbp)
    c839:	fd ff ff ff 
    c83d:	c7 85 80 f5 ff ff f9 	movl   $0xfffffff9,-0xa80(%rbp)
    c844:	ff ff ff 
    c847:	48 8b 05 62 b7 01 00 	mov    0x1b762(%rip),%rax        # 27fb0 <g_1052>
    c84e:	8b 10                	mov    (%rax),%edx
    c850:	48 8b 85 a8 f5 ff ff 	mov    -0xa58(%rbp),%rax
    c857:	89 10                	mov    %edx,(%rax)
    c859:	48 8b 85 a8 f5 ff ff 	mov    -0xa58(%rbp),%rax
    c860:	8b 00                	mov    (%rax),%eax
    c862:	89 c3                	mov    %eax,%ebx
    c864:	48 8b 05 2d b7 01 00 	mov    0x1b72d(%rip),%rax        # 27f98 <g_827>
    c86b:	48 8b 00             	mov    (%rax),%rax
    c86e:	48 8b 00             	mov    (%rax),%rax
    c871:	0f b6 00             	movzbl (%rax),%eax
    c874:	0f be c0             	movsbl %al,%eax
    c877:	89 c7                	mov    %eax,%edi
    c879:	e8 41 c9 ff ff       	callq  91bf <safe_unary_minus_func_int8_t_s>
    c87e:	0f be c0             	movsbl %al,%eax
    c881:	89 de                	mov    %ebx,%esi
    c883:	89 c7                	mov    %eax,%edi
    c885:	e8 73 d6 ff ff       	callq  9efd <safe_mod_func_uint32_t_u_u>
    c88a:	85 c0                	test   %eax,%eax
    c88c:	74 14                	je     c8a2 <func_52+0x3f8>
    c88e:	0f b6 05 6b 4d 01 00 	movzbl 0x14d6b(%rip),%eax        # 21600 <g_409>
    c895:	84 c0                	test   %al,%al
    c897:	0f 84 a5 09 00 00    	je     d242 <func_52+0xd98>
    c89d:	e9 c5 fd ff ff       	jmpq   c667 <func_52+0x1bd>
    c8a2:	48 8d 05 7b 49 01 00 	lea    0x1497b(%rip),%rax        # 21224 <g_197>
    c8a9:	48 89 85 e0 f5 ff ff 	mov    %rax,-0xa20(%rbp)
    c8b0:	48 8d 05 8b 48 01 00 	lea    0x1488b(%rip),%rax        # 21142 <g_180>
    c8b7:	48 89 85 e8 f5 ff ff 	mov    %rax,-0xa18(%rbp)
    c8be:	c7 85 50 f5 ff ff ff 	movl   $0xffffffff,-0xab0(%rbp)
    c8c5:	ff ff ff 
    c8c8:	c7 85 54 f5 ff ff 36 	movl   $0x8dba7d36,-0xaac(%rbp)
    c8cf:	7d ba 8d 
    c8d2:	c7 85 58 f5 ff ff ff 	movl   $0xffffffff,-0xaa8(%rbp)
    c8d9:	ff ff ff 
    c8dc:	c7 85 68 f6 ff ff 06 	movl   $0x6,-0x998(%rbp)
    c8e3:	00 00 00 
    c8e6:	48 8d 85 e0 fb ff ff 	lea    -0x420(%rbp),%rax
    c8ed:	48 8d 15 ec f9 00 00 	lea    0xf9ec(%rip),%rdx        # 1c2e0 <g_1254+0x21c>
    c8f4:	b9 7e 00 00 00       	mov    $0x7e,%ecx
    c8f9:	48 89 c7             	mov    %rax,%rdi
    c8fc:	48 89 d6             	mov    %rdx,%rsi
    c8ff:	f3 48 a5             	rep movsq %ds:(%rsi),%es:(%rdi)
    c902:	66 c7 85 4e f5 ff ff 	movw   $0x967e,-0xab2(%rbp)
    c909:	7e 96 
    c90b:	48 c7 85 a0 f6 ff ff 	movq   $0x0,-0x960(%rbp)
    c912:	00 00 00 00 
    c916:	48 c7 85 a8 f6 ff ff 	movq   $0x0,-0x958(%rbp)
    c91d:	00 00 00 00 
    c921:	48 c7 85 b0 f6 ff ff 	movq   $0x0,-0x950(%rbp)
    c928:	00 00 00 00 
    c92c:	48 c7 85 b8 f6 ff ff 	movq   $0x0,-0x948(%rbp)
    c933:	00 00 00 00 
    c937:	48 c7 85 c0 f6 ff ff 	movq   $0x0,-0x940(%rbp)
    c93e:	00 00 00 00 
    c942:	48 c7 85 f0 f5 ff ff 	movq   $0x0,-0xa10(%rbp)
    c949:	00 00 00 00 
    c94d:	48 8d 05 74 47 01 00 	lea    0x14774(%rip),%rax        # 210c8 <g_32+0x88>
    c954:	48 89 85 f8 f5 ff ff 	mov    %rax,-0xa08(%rbp)
    c95b:	0f b6 9d 4d f5 ff ff 	movzbl -0xab3(%rbp),%ebx
    c962:	48 8b 85 30 f5 ff ff 	mov    -0xad0(%rbp),%rax
    c969:	41 89 c5             	mov    %eax,%r13d
    c96c:	0f b7 05 01 5e 01 00 	movzwl 0x15e01(%rip),%eax        # 22774 <g_499+0x4>
    c973:	44 0f bf e0          	movswl %ax,%r12d
    c977:	48 8b 05 4a b6 01 00 	mov    0x1b64a(%rip),%rax        # 27fc8 <g_1165>
    c97e:	48 8b 95 d0 f5 ff ff 	mov    -0xa30(%rbp),%rdx
    c985:	48 89 10             	mov    %rdx,(%rax)
    c988:	48 8b 00             	mov    (%rax),%rax
    c98b:	48 85 c0             	test   %rax,%rax
    c98e:	0f 95 c0             	setne  %al
    c991:	0f b6 d0             	movzbl %al,%edx
    c994:	0f b6 05 a0 4c 01 00 	movzbl 0x14ca0(%rip),%eax        # 2163b <g_442+0xb>
    c99b:	c1 e0 04             	shl    $0x4,%eax
    c99e:	c0 f8 06             	sar    $0x6,%al
    c9a1:	0f be c0             	movsbl %al,%eax
    c9a4:	39 c2                	cmp    %eax,%edx
    c9a6:	0f 9c c0             	setl   %al
    c9a9:	0f b6 d0             	movzbl %al,%edx
    c9ac:	48 8b 85 e0 f5 ff ff 	mov    -0xa20(%rbp),%rax
    c9b3:	0f b7 00             	movzwl (%rax),%eax
    c9b6:	89 c1                	mov    %eax,%ecx
    c9b8:	89 d0                	mov    %edx,%eax
    c9ba:	09 c8                	or     %ecx,%eax
    c9bc:	89 c2                	mov    %eax,%edx
    c9be:	48 8b 85 e0 f5 ff ff 	mov    -0xa20(%rbp),%rax
    c9c5:	66 89 10             	mov    %dx,(%rax)
    c9c8:	48 8b 85 e0 f5 ff ff 	mov    -0xa20(%rbp),%rax
    c9cf:	0f b7 00             	movzwl (%rax),%eax
    c9d2:	0f bf d0             	movswl %ax,%edx
    c9d5:	8b 85 7c f5 ff ff    	mov    -0xa84(%rbp),%eax
    c9db:	98                   	cwtl   
    c9dc:	89 d6                	mov    %edx,%esi
    c9de:	89 c7                	mov    %eax,%edi
    c9e0:	e8 ee c9 ff ff       	callq  93d3 <safe_sub_func_int16_t_s_s>
    c9e5:	0f be c0             	movsbl %al,%eax
    c9e8:	be c1 ff ff ff       	mov    $0xffffffc1,%esi
    c9ed:	89 c7                	mov    %eax,%edi
    c9ef:	e8 76 c8 ff ff       	callq  926a <safe_div_func_int8_t_s_s>
    c9f4:	48 8b 05 cd b5 01 00 	mov    0x1b5cd(%rip),%rax        # 27fc8 <g_1165>
    c9fb:	48 8b 00             	mov    (%rax),%rax
    c9fe:	0f b6 00             	movzbl (%rax),%eax
    ca01:	0f be c0             	movsbl %al,%eax
    ca04:	be 83 ff ff ff       	mov    $0xffffff83,%esi
    ca09:	89 c7                	mov    %eax,%edi
    ca0b:	e8 02 c8 ff ff       	callq  9212 <safe_mul_func_int8_t_s_s>
    ca10:	44 89 e6             	mov    %r12d,%esi
    ca13:	bf 00 00 00 00       	mov    $0x0,%edi
    ca18:	e8 46 cb ff ff       	callq  9563 <safe_rshift_func_int16_t_s_u>
    ca1d:	44 89 ee             	mov    %r13d,%esi
    ca20:	bf 01 00 00 00       	mov    $0x1,%edi
    ca25:	e8 68 ca ff ff       	callq  9492 <safe_lshift_func_int16_t_s_s>
    ca2a:	0f be c0             	movsbl %al,%eax
    ca2d:	89 c7                	mov    %eax,%edi
    ca2f:	e8 8b c7 ff ff       	callq  91bf <safe_unary_minus_func_int8_t_s>
    ca34:	66 0f be d0          	movsbw %al,%dx
    ca38:	48 8b 85 e8 f5 ff ff 	mov    -0xa18(%rbp),%rax
    ca3f:	66 89 10             	mov    %dx,(%rax)
    ca42:	8b 05 f0 5d 01 00    	mov    0x15df0(%rip),%eax        # 22838 <g_566+0x8>
    ca48:	25 ff ff ff 03       	and    $0x3ffffff,%eax
    ca4d:	83 f8 01             	cmp    $0x1,%eax
    ca50:	0f 95 c0             	setne  %al
    ca53:	0f b6 c0             	movzbl %al,%eax
    ca56:	be 04 00 00 00       	mov    $0x4,%esi
    ca5b:	89 c7                	mov    %eax,%edi
    ca5d:	e8 5c d2 ff ff       	callq  9cbe <safe_rshift_func_uint8_t_u_u>
    ca62:	89 c2                	mov    %eax,%edx
    ca64:	48 8b 05 fd ac 01 00 	mov    0x1acfd(%rip),%rax        # 27768 <g_125>
    ca6b:	48 8b 00             	mov    (%rax),%rax
    ca6e:	0f b6 d2             	movzbl %dl,%edx
    ca71:	66 89 10             	mov    %dx,(%rax)
    ca74:	0f b7 00             	movzwl (%rax),%eax
    ca77:	98                   	cwtl   
    ca78:	89 de                	mov    %ebx,%esi
    ca7a:	89 c7                	mov    %eax,%edi
    ca7c:	e8 95 c9 ff ff       	callq  9416 <safe_mod_func_int16_t_s_s>
    ca81:	b8 00 00 00 00       	mov    $0x0,%eax
    ca86:	0f bf d0             	movswl %ax,%edx
    ca89:	0f b6 85 3c f5 ff ff 	movzbl -0xac4(%rbp),%eax
    ca90:	89 d6                	mov    %edx,%esi
    ca92:	89 c7                	mov    %eax,%edi
    ca94:	e8 bc c9 ff ff       	callq  9455 <safe_div_func_int16_t_s_s>
    ca99:	83 bd 7c f5 ff ff 00 	cmpl   $0x0,-0xa84(%rbp)
    caa0:	0f 84 49 01 00 00    	je     cbef <func_52+0x745>
    caa6:	48 8d 85 74 f6 ff ff 	lea    -0x98c(%rbp),%rax
    caad:	48 89 85 40 f6 ff ff 	mov    %rax,-0x9c0(%rbp)
    cab4:	48 c7 85 48 f6 ff ff 	movq   $0x0,-0x9b8(%rbp)
    cabb:	00 00 00 00 
    cabf:	48 c7 85 50 f6 ff ff 	movq   $0x0,-0x9b0(%rbp)
    cac6:	00 00 00 00 
    caca:	48 8d 85 74 f6 ff ff 	lea    -0x98c(%rbp),%rax
    cad1:	48 89 85 90 f8 ff ff 	mov    %rax,-0x770(%rbp)
    cad8:	48 8d 85 74 f6 ff ff 	lea    -0x98c(%rbp),%rax
    cadf:	48 89 85 98 f8 ff ff 	mov    %rax,-0x768(%rbp)
    cae6:	48 8d 85 74 f6 ff ff 	lea    -0x98c(%rbp),%rax
    caed:	48 89 85 a0 f8 ff ff 	mov    %rax,-0x760(%rbp)
    caf4:	48 8d 85 74 f6 ff ff 	lea    -0x98c(%rbp),%rax
    cafb:	48 89 85 a8 f8 ff ff 	mov    %rax,-0x758(%rbp)
    cb02:	48 8d 85 74 f6 ff ff 	lea    -0x98c(%rbp),%rax
    cb09:	48 89 85 b0 f8 ff ff 	mov    %rax,-0x750(%rbp)
    cb10:	48 8d 85 74 f6 ff ff 	lea    -0x98c(%rbp),%rax
    cb17:	48 89 85 b8 f8 ff ff 	mov    %rax,-0x748(%rbp)
    cb1e:	48 8d 85 74 f6 ff ff 	lea    -0x98c(%rbp),%rax
    cb25:	48 89 85 c0 f8 ff ff 	mov    %rax,-0x740(%rbp)
    cb2c:	48 8d 85 74 f6 ff ff 	lea    -0x98c(%rbp),%rax
    cb33:	48 89 85 c8 f8 ff ff 	mov    %rax,-0x738(%rbp)
    cb3a:	48 8d 85 74 f6 ff ff 	lea    -0x98c(%rbp),%rax
    cb41:	48 89 85 d0 f8 ff ff 	mov    %rax,-0x730(%rbp)
    cb48:	48 8d 85 74 f6 ff ff 	lea    -0x98c(%rbp),%rax
    cb4f:	48 89 85 d8 f8 ff ff 	mov    %rax,-0x728(%rbp)
    cb56:	48 8d 85 74 f6 ff ff 	lea    -0x98c(%rbp),%rax
    cb5d:	48 89 85 e0 f8 ff ff 	mov    %rax,-0x720(%rbp)
    cb64:	48 8d 85 74 f6 ff ff 	lea    -0x98c(%rbp),%rax
    cb6b:	48 89 85 e8 f8 ff ff 	mov    %rax,-0x718(%rbp)
    cb72:	48 8d 85 74 f6 ff ff 	lea    -0x98c(%rbp),%rax
    cb79:	48 89 85 f0 f8 ff ff 	mov    %rax,-0x710(%rbp)
    cb80:	48 8d 85 74 f6 ff ff 	lea    -0x98c(%rbp),%rax
    cb87:	48 89 85 f8 f8 ff ff 	mov    %rax,-0x708(%rbp)
    cb8e:	48 8d 85 74 f6 ff ff 	lea    -0x98c(%rbp),%rax
    cb95:	48 89 85 00 f9 ff ff 	mov    %rax,-0x700(%rbp)
    cb9c:	48 8d 85 74 f6 ff ff 	lea    -0x98c(%rbp),%rax
    cba3:	48 89 85 08 f9 ff ff 	mov    %rax,-0x6f8(%rbp)
    cbaa:	48 8d 85 74 f6 ff ff 	lea    -0x98c(%rbp),%rax
    cbb1:	48 89 85 10 f9 ff ff 	mov    %rax,-0x6f0(%rbp)
    cbb8:	48 8d 85 74 f6 ff ff 	lea    -0x98c(%rbp),%rax
    cbbf:	48 89 85 18 f9 ff ff 	mov    %rax,-0x6e8(%rbp)
    cbc6:	48 8d 85 74 f6 ff ff 	lea    -0x98c(%rbp),%rax
    cbcd:	48 89 85 20 f9 ff ff 	mov    %rax,-0x6e0(%rbp)
    cbd4:	48 8d 85 74 f6 ff ff 	lea    -0x98c(%rbp),%rax
    cbdb:	48 89 85 28 f9 ff ff 	mov    %rax,-0x6d8(%rbp)
    cbe2:	66 83 ad 4e f5 ff ff 	subw   $0x1,-0xab2(%rbp)
    cbe9:	01 
    cbea:	e9 45 05 00 00       	jmpq   d134 <func_52+0xc8a>
    cbef:	c7 85 60 f5 ff ff f3 	movl   $0x39835df3,-0xaa0(%rbp)
    cbf6:	5d 83 39 
    cbf9:	c7 85 84 f5 ff ff 01 	movl   $0x1,-0xa7c(%rbp)
    cc00:	00 00 00 
    cc03:	c7 85 88 f5 ff ff 68 	movl   $0x125ee768,-0xa78(%rbp)
    cc0a:	e7 5e 12 
    cc0d:	c7 85 8c f5 ff ff 01 	movl   $0x1,-0xa74(%rbp)
    cc14:	00 00 00 
    cc17:	c7 85 90 f5 ff ff 72 	movl   $0x30609172,-0xa70(%rbp)
    cc1e:	91 60 30 
    cc21:	48 8d 85 90 f8 ff ff 	lea    -0x770(%rbp),%rax
    cc28:	48 8d 15 b1 fa 00 00 	lea    0xfab1(%rip),%rdx        # 1c6e0 <g_1254+0x61c>
    cc2f:	b9 69 00 00 00       	mov    $0x69,%ecx
    cc34:	48 89 c7             	mov    %rax,%rdi
    cc37:	48 89 d6             	mov    %rdx,%rsi
    cc3a:	f3 48 a5             	rep movsq %ds:(%rsi),%es:(%rdi)
    cc3d:	80 bd 3c f5 ff ff 00 	cmpb   $0x0,-0xac4(%rbp)
    cc44:	0f 85 2b 06 00 00    	jne    d275 <func_52+0xdcb>
    cc4a:	48 8b 85 b0 f5 ff ff 	mov    -0xa50(%rbp),%rax
    cc51:	8b 10                	mov    (%rax),%edx
    cc53:	8b 85 fc fe ff ff    	mov    -0x104(%rbp),%eax
    cc59:	21 c2                	and    %eax,%edx
    cc5b:	48 8b 85 b0 f5 ff ff 	mov    -0xa50(%rbp),%rax
    cc62:	89 10                	mov    %edx,(%rax)
    cc64:	48 8b 85 b0 f5 ff ff 	mov    -0xa50(%rbp),%rax
    cc6b:	8b 00                	mov    (%rax),%eax
    cc6d:	85 c0                	test   %eax,%eax
    cc6f:	0f 84 3b 03 00 00    	je     cfb0 <func_52+0xb06>
    cc75:	48 8d 85 74 f6 ff ff 	lea    -0x98c(%rbp),%rax
    cc7c:	48 83 c0 04          	add    $0x4,%rax
    cc80:	48 89 85 18 f6 ff ff 	mov    %rax,-0x9e8(%rbp)
    cc87:	48 8d 85 80 f6 ff ff 	lea    -0x980(%rbp),%rax
    cc8e:	48 83 c0 04          	add    $0x4,%rax
    cc92:	48 89 85 20 f6 ff ff 	mov    %rax,-0x9e0(%rbp)
    cc99:	48 8d 05 88 70 01 00 	lea    0x17088(%rip),%rax        # 23d28 <g_1050>
    cca0:	48 89 85 28 f6 ff ff 	mov    %rax,-0x9d8(%rbp)
    cca7:	48 8d 05 92 5c 01 00 	lea    0x15c92(%rip),%rax        # 22940 <g_742>
    ccae:	48 89 85 50 f7 ff ff 	mov    %rax,-0x8b0(%rbp)
    ccb5:	48 8d 85 58 f5 ff ff 	lea    -0xaa8(%rbp),%rax
    ccbc:	48 89 85 58 f7 ff ff 	mov    %rax,-0x8a8(%rbp)
    ccc3:	48 c7 85 60 f7 ff ff 	movq   $0x0,-0x8a0(%rbp)
    ccca:	00 00 00 00 
    ccce:	48 8d 85 58 f5 ff ff 	lea    -0xaa8(%rbp),%rax
    ccd5:	48 89 85 68 f7 ff ff 	mov    %rax,-0x898(%rbp)
    ccdc:	48 8d 05 5d 5c 01 00 	lea    0x15c5d(%rip),%rax        # 22940 <g_742>
    cce3:	48 89 85 70 f7 ff ff 	mov    %rax,-0x890(%rbp)
    ccea:	48 8d 05 4f 5c 01 00 	lea    0x15c4f(%rip),%rax        # 22940 <g_742>
    ccf1:	48 89 85 78 f7 ff ff 	mov    %rax,-0x888(%rbp)
    ccf8:	48 8d 85 58 f5 ff ff 	lea    -0xaa8(%rbp),%rax
    ccff:	48 89 85 80 f7 ff ff 	mov    %rax,-0x880(%rbp)
    cd06:	48 c7 85 88 f7 ff ff 	movq   $0x0,-0x878(%rbp)
    cd0d:	00 00 00 00 
    cd11:	48 8d 85 58 f5 ff ff 	lea    -0xaa8(%rbp),%rax
    cd18:	48 89 85 90 f7 ff ff 	mov    %rax,-0x870(%rbp)
    cd1f:	48 8d 05 1a 5c 01 00 	lea    0x15c1a(%rip),%rax        # 22940 <g_742>
    cd26:	48 89 85 98 f7 ff ff 	mov    %rax,-0x868(%rbp)
    cd2d:	48 8d 05 0c 5c 01 00 	lea    0x15c0c(%rip),%rax        # 22940 <g_742>
    cd34:	48 89 85 a0 f7 ff ff 	mov    %rax,-0x860(%rbp)
    cd3b:	48 8d 85 58 f5 ff ff 	lea    -0xaa8(%rbp),%rax
    cd42:	48 89 85 a8 f7 ff ff 	mov    %rax,-0x858(%rbp)
    cd49:	48 8d 05 d8 6f 01 00 	lea    0x16fd8(%rip),%rax        # 23d28 <g_1050>
    cd50:	48 89 85 b0 f7 ff ff 	mov    %rax,-0x850(%rbp)
    cd57:	48 8d 85 54 f5 ff ff 	lea    -0xaac(%rbp),%rax
    cd5e:	48 89 85 b8 f7 ff ff 	mov    %rax,-0x848(%rbp)
    cd65:	48 8d 85 58 f5 ff ff 	lea    -0xaa8(%rbp),%rax
    cd6c:	48 89 85 c0 f7 ff ff 	mov    %rax,-0x840(%rbp)
    cd73:	48 8d 85 58 f5 ff ff 	lea    -0xaa8(%rbp),%rax
    cd7a:	48 89 85 c8 f7 ff ff 	mov    %rax,-0x838(%rbp)
    cd81:	48 8d 85 54 f5 ff ff 	lea    -0xaac(%rbp),%rax
    cd88:	48 89 85 d0 f7 ff ff 	mov    %rax,-0x830(%rbp)
    cd8f:	48 8d 05 92 6f 01 00 	lea    0x16f92(%rip),%rax        # 23d28 <g_1050>
    cd96:	48 89 85 d8 f7 ff ff 	mov    %rax,-0x828(%rbp)
    cd9d:	48 8d 85 54 f5 ff ff 	lea    -0xaac(%rbp),%rax
    cda4:	48 89 85 e0 f7 ff ff 	mov    %rax,-0x820(%rbp)
    cdab:	48 8d 85 58 f5 ff ff 	lea    -0xaa8(%rbp),%rax
    cdb2:	48 89 85 e8 f7 ff ff 	mov    %rax,-0x818(%rbp)
    cdb9:	48 8d 85 58 f5 ff ff 	lea    -0xaa8(%rbp),%rax
    cdc0:	48 89 85 f0 f7 ff ff 	mov    %rax,-0x810(%rbp)
    cdc7:	48 8d 85 54 f5 ff ff 	lea    -0xaac(%rbp),%rax
    cdce:	48 89 85 f8 f7 ff ff 	mov    %rax,-0x808(%rbp)
    cdd5:	48 8d 05 4c 6f 01 00 	lea    0x16f4c(%rip),%rax        # 23d28 <g_1050>
    cddc:	48 89 85 00 f8 ff ff 	mov    %rax,-0x800(%rbp)
    cde3:	48 8d 85 54 f5 ff ff 	lea    -0xaac(%rbp),%rax
    cdea:	48 89 85 08 f8 ff ff 	mov    %rax,-0x7f8(%rbp)
    cdf1:	48 8d 85 58 f5 ff ff 	lea    -0xaa8(%rbp),%rax
    cdf8:	48 89 85 10 f8 ff ff 	mov    %rax,-0x7f0(%rbp)
    cdff:	48 8d 85 58 f5 ff ff 	lea    -0xaa8(%rbp),%rax
    ce06:	48 89 85 18 f8 ff ff 	mov    %rax,-0x7e8(%rbp)
    ce0d:	48 8d 85 54 f5 ff ff 	lea    -0xaac(%rbp),%rax
    ce14:	48 89 85 20 f8 ff ff 	mov    %rax,-0x7e0(%rbp)
    ce1b:	48 8d 05 06 6f 01 00 	lea    0x16f06(%rip),%rax        # 23d28 <g_1050>
    ce22:	48 89 85 28 f8 ff ff 	mov    %rax,-0x7d8(%rbp)
    ce29:	48 8d 85 54 f5 ff ff 	lea    -0xaac(%rbp),%rax
    ce30:	48 89 85 30 f8 ff ff 	mov    %rax,-0x7d0(%rbp)
    ce37:	48 8d 85 58 f5 ff ff 	lea    -0xaa8(%rbp),%rax
    ce3e:	48 89 85 38 f8 ff ff 	mov    %rax,-0x7c8(%rbp)
    ce45:	48 8d 85 58 f5 ff ff 	lea    -0xaa8(%rbp),%rax
    ce4c:	48 89 85 40 f8 ff ff 	mov    %rax,-0x7c0(%rbp)
    ce53:	48 8d 85 54 f5 ff ff 	lea    -0xaac(%rbp),%rax
    ce5a:	48 89 85 48 f8 ff ff 	mov    %rax,-0x7b8(%rbp)
    ce61:	48 8d 05 c0 6e 01 00 	lea    0x16ec0(%rip),%rax        # 23d28 <g_1050>
    ce68:	48 89 85 50 f8 ff ff 	mov    %rax,-0x7b0(%rbp)
    ce6f:	48 8d 85 54 f5 ff ff 	lea    -0xaac(%rbp),%rax
    ce76:	48 89 85 58 f8 ff ff 	mov    %rax,-0x7a8(%rbp)
    ce7d:	48 8d 85 58 f5 ff ff 	lea    -0xaa8(%rbp),%rax
    ce84:	48 89 85 60 f8 ff ff 	mov    %rax,-0x7a0(%rbp)
    ce8b:	48 8d 85 58 f5 ff ff 	lea    -0xaa8(%rbp),%rax
    ce92:	48 89 85 68 f8 ff ff 	mov    %rax,-0x798(%rbp)
    ce99:	48 8d 85 54 f5 ff ff 	lea    -0xaac(%rbp),%rax
    cea0:	48 89 85 70 f8 ff ff 	mov    %rax,-0x790(%rbp)
    cea7:	48 8d 05 7a 6e 01 00 	lea    0x16e7a(%rip),%rax        # 23d28 <g_1050>
    ceae:	48 89 85 78 f8 ff ff 	mov    %rax,-0x788(%rbp)
    ceb5:	48 8d 85 54 f5 ff ff 	lea    -0xaac(%rbp),%rax
    cebc:	48 89 85 80 f8 ff ff 	mov    %rax,-0x780(%rbp)
    cec3:	48 8d 85 58 f5 ff ff 	lea    -0xaa8(%rbp),%rax
    ceca:	48 89 85 88 f8 ff ff 	mov    %rax,-0x778(%rbp)
    ced1:	c7 85 94 f5 ff ff f6 	movl   $0xfffffff6,-0xa6c(%rbp)
    ced8:	ff ff ff 
    cedb:	c7 05 7b 72 01 00 00 	movl   $0x0,0x1727b(%rip)        # 24160 <g_1241>
    cee2:	00 00 00 
    cee5:	e9 a3 00 00 00       	jmpq   cf8d <func_52+0xae3>
    ceea:	48 8d 85 e0 fb ff ff 	lea    -0x420(%rbp),%rax
    cef1:	48 83 c0 64          	add    $0x64,%rax
    cef5:	48 89 85 30 f6 ff ff 	mov    %rax,-0x9d0(%rbp)
    cefc:	48 8d 85 50 f5 ff ff 	lea    -0xab0(%rbp),%rax
    cf03:	48 89 85 38 f6 ff ff 	mov    %rax,-0x9c8(%rbp)
    cf0a:	83 85 60 f5 ff ff 01 	addl   $0x1,-0xaa0(%rbp)
    cf11:	0f b6 9d 3c f5 ff ff 	movzbl -0xac4(%rbp),%ebx
    cf18:	48 8b 85 30 f5 ff ff 	mov    -0xad0(%rbp),%rax
    cf1f:	41 89 c4             	mov    %eax,%r12d
    cf22:	48 8b 05 9f b2 01 00 	mov    0x1b29f(%rip),%rax        # 281c8 <g_1371>
    cf29:	48 8b 85 30 f5 ff ff 	mov    -0xad0(%rbp),%rax
    cf30:	98                   	cwtl   
    cf31:	be 01 00 00 00       	mov    $0x1,%esi
    cf36:	89 c7                	mov    %eax,%edi
    cf38:	e8 b8 c4 ff ff       	callq  93f5 <safe_mul_func_int16_t_s_s>
    cf3d:	44 89 e6             	mov    %r12d,%esi
    cf40:	bf 01 00 00 00       	mov    $0x1,%edi
    cf45:	e8 bb c6 ff ff       	callq  9605 <safe_sub_func_int32_t_s_s>
    cf4a:	48 8b 15 17 a8 01 00 	mov    0x1a817(%rip),%rdx        # 27768 <g_125>
    cf51:	48 8b 12             	mov    (%rdx),%rdx
    cf54:	0f b7 12             	movzwl (%rdx),%edx
    cf57:	0f bf d2             	movswl %dx,%edx
    cf5a:	39 d0                	cmp    %edx,%eax
    cf5c:	0f 95 c0             	setne  %al
    cf5f:	0f b6 c0             	movzbl %al,%eax
    cf62:	89 de                	mov    %ebx,%esi
    cf64:	89 c7                	mov    %eax,%edi
    cf66:	e8 d2 cd ff ff       	callq  9d3d <safe_mul_func_uint16_t_u_u>
    cf6b:	66 3d ab 00          	cmp    $0xab,%ax
    cf6f:	0f 94 c0             	sete   %al
    cf72:	0f b6 d0             	movzbl %al,%edx
    cf75:	48 8b 85 a8 f5 ff ff 	mov    -0xa58(%rbp),%rax
    cf7c:	89 10                	mov    %edx,(%rax)
    cf7e:	8b 05 dc 71 01 00    	mov    0x171dc(%rip),%eax        # 24160 <g_1241>
    cf84:	83 c0 01             	add    $0x1,%eax
    cf87:	89 05 d3 71 01 00    	mov    %eax,0x171d3(%rip)        # 24160 <g_1241>
    cf8d:	8b 05 cd 71 01 00    	mov    0x171cd(%rip),%eax        # 24160 <g_1241>
    cf93:	83 f8 02             	cmp    $0x2,%eax
    cf96:	0f 86 4e ff ff ff    	jbe    ceea <func_52+0xa40>
    cf9c:	48 83 ad d8 f5 ff ff 	subq   $0x1,-0xa28(%rbp)
    cfa3:	01 
    cfa4:	83 ad 94 f5 ff ff 01 	subl   $0x1,-0xa6c(%rbp)
    cfab:	e9 84 01 00 00       	jmpq   d134 <func_52+0xc8a>
    cfb0:	c7 85 64 f5 ff ff 32 	movl   $0x40cd0732,-0xa9c(%rbp)
    cfb7:	07 cd 40 
    cfba:	c6 85 3c f5 ff ff 00 	movb   $0x0,-0xac4(%rbp)
    cfc1:	eb 4f                	jmp    d012 <func_52+0xb68>
    cfc3:	8b 05 6f 58 01 00    	mov    0x1586f(%rip),%eax        # 22838 <g_566+0x8>
    cfc9:	25 ff ff ff 03       	and    $0x3ffffff,%eax
    cfce:	85 c0                	test   %eax,%eax
    cfd0:	0f 85 91 f6 ff ff    	jne    c667 <func_52+0x1bd>
    cfd6:	0f b6 85 3c f5 ff ff 	movzbl -0xac4(%rbp),%eax
    cfdd:	8d 50 01             	lea    0x1(%rax),%edx
    cfe0:	0f b6 85 3c f5 ff ff 	movzbl -0xac4(%rbp),%eax
    cfe7:	48 98                	cltq   
    cfe9:	48 63 d2             	movslq %edx,%rdx
    cfec:	48 01 d2             	add    %rdx,%rdx
    cfef:	48 01 c2             	add    %rax,%rdx
    cff2:	48 8d 05 2d 42 01 00 	lea    0x1422d(%rip),%rax        # 21226 <g_244>
    cff9:	48 01 d0             	add    %rdx,%rax
    cffc:	0f b6 00             	movzbl (%rax),%eax
    cfff:	0f be d0             	movsbl %al,%edx
    d002:	48 8b 85 a8 f5 ff ff 	mov    -0xa58(%rbp),%rax
    d009:	89 10                	mov    %edx,(%rax)
    d00b:	80 85 3c f5 ff ff 01 	addb   $0x1,-0xac4(%rbp)
    d012:	80 bd 3c f5 ff ff 01 	cmpb   $0x1,-0xac4(%rbp)
    d019:	76 a8                	jbe    cfc3 <func_52+0xb19>
    d01b:	48 8d 05 1e 59 01 00 	lea    0x1591e(%rip),%rax        # 22940 <g_742>
    d022:	48 89 05 d7 a6 01 00 	mov    %rax,0x1a6d7(%rip)        # 27700 <g_106>
    d029:	c7 05 f9 6c 01 00 00 	movl   $0x0,0x16cf9(%rip)        # 23d2c <g_1070>
    d030:	00 00 00 
    d033:	e9 eb 00 00 00       	jmpq   d123 <func_52+0xc79>
    d038:	48 8d 85 80 f6 ff ff 	lea    -0x980(%rbp),%rax
    d03f:	48 83 c0 14          	add    $0x14,%rax
    d043:	48 89 85 00 f6 ff ff 	mov    %rax,-0xa00(%rbp)
    d04a:	48 c7 85 08 f6 ff ff 	movq   $0x0,-0x9f8(%rbp)
    d051:	00 00 00 00 
    d055:	48 8d 85 68 f6 ff ff 	lea    -0x998(%rbp),%rax
    d05c:	48 89 85 10 f6 ff ff 	mov    %rax,-0x9f0(%rbp)
    d063:	c7 85 68 f5 ff ff 00 	movl   $0x0,-0xa98(%rbp)
    d06a:	00 00 00 
    d06d:	eb 75                	jmp    d0e4 <func_52+0xc3a>
    d06f:	c7 85 6c f5 ff ff 00 	movl   $0x0,-0xa94(%rbp)
    d076:	00 00 00 
    d079:	eb 59                	jmp    d0d4 <func_52+0xc2a>
    d07b:	c7 85 70 f5 ff ff 00 	movl   $0x0,-0xa90(%rbp)
    d082:	00 00 00 
    d085:	eb 3d                	jmp    d0c4 <func_52+0xc1a>
    d087:	8b 85 70 f5 ff ff    	mov    -0xa90(%rbp),%eax
    d08d:	48 63 c8             	movslq %eax,%rcx
    d090:	8b 85 6c f5 ff ff    	mov    -0xa94(%rbp),%eax
    d096:	48 63 d0             	movslq %eax,%rdx
    d099:	8b 85 68 f5 ff ff    	mov    -0xa98(%rbp),%eax
    d09f:	48 98                	cltq   
    d0a1:	48 01 ca             	add    %rcx,%rdx
    d0a4:	48 01 d0             	add    %rdx,%rax
    d0a7:	48 8d 95 e0 fb ff ff 	lea    -0x420(%rbp),%rdx
    d0ae:	48 81 c2 fc 00 00 00 	add    $0xfc,%rdx
    d0b5:	48 89 94 c5 50 f7 ff 	mov    %rdx,-0x8b0(%rbp,%rax,8)
    d0bc:	ff 
    d0bd:	83 85 70 f5 ff ff 01 	addl   $0x1,-0xa90(%rbp)
    d0c4:	83 bd 70 f5 ff ff 00 	cmpl   $0x0,-0xa90(%rbp)
    d0cb:	7e ba                	jle    d087 <func_52+0xbdd>
    d0cd:	83 85 6c f5 ff ff 01 	addl   $0x1,-0xa94(%rbp)
    d0d4:	83 bd 6c f5 ff ff 00 	cmpl   $0x0,-0xa94(%rbp)
    d0db:	7e 9e                	jle    d07b <func_52+0xbd1>
    d0dd:	83 85 68 f5 ff ff 01 	addl   $0x1,-0xa98(%rbp)
    d0e4:	83 bd 68 f5 ff ff 03 	cmpl   $0x3,-0xa98(%rbp)
    d0eb:	7e 82                	jle    d06f <func_52+0xbc5>
    d0ed:	83 85 64 f5 ff ff 01 	addl   $0x1,-0xa9c(%rbp)
    d0f4:	8b 85 44 fc ff ff    	mov    -0x3bc(%rbp),%eax
    d0fa:	85 c0                	test   %eax,%eax
    d0fc:	75 35                	jne    d133 <func_52+0xc89>
    d0fe:	8b 85 84 f5 ff ff    	mov    -0xa7c(%rbp),%eax
    d104:	35 b0 a0 bb 7d       	xor    $0x7dbba0b0,%eax
    d109:	89 c2                	mov    %eax,%edx
    d10b:	48 8b 85 b0 f5 ff ff 	mov    -0xa50(%rbp),%rax
    d112:	89 10                	mov    %edx,(%rax)
    d114:	8b 05 12 6c 01 00    	mov    0x16c12(%rip),%eax        # 23d2c <g_1070>
    d11a:	83 e8 01             	sub    $0x1,%eax
    d11d:	89 05 09 6c 01 00    	mov    %eax,0x16c09(%rip)        # 23d2c <g_1070>
    d123:	8b 05 03 6c 01 00    	mov    0x16c03(%rip),%eax        # 23d2c <g_1070>
    d129:	85 c0                	test   %eax,%eax
    d12b:	0f 89 07 ff ff ff    	jns    d038 <func_52+0xb8e>
    d131:	eb 01                	jmp    d134 <func_52+0xc8a>
    d133:	90                   	nop
    d134:	8b 05 16 74 01 00    	mov    0x17416(%rip),%eax        # 24550 <g_1295>
    d13a:	c1 e0 06             	shl    $0x6,%eax
    d13d:	c1 f8 06             	sar    $0x6,%eax
    d140:	89 c2                	mov    %eax,%edx
    d142:	48 8b 05 8f b0 01 00 	mov    0x1b08f(%rip),%rax        # 281d8 <g_1407>
    d149:	48 39 85 f0 f5 ff ff 	cmp    %rax,-0xa10(%rbp)
    d150:	0f 94 c0             	sete   %al
    d153:	0f b6 c0             	movzbl %al,%eax
    d156:	39 c2                	cmp    %eax,%edx
    d158:	0f 9e c0             	setle  %al
    d15b:	0f b6 d0             	movzbl %al,%edx
    d15e:	0f b7 05 7f 59 01 00 	movzwl 0x1597f(%rip),%eax        # 22ae4 <g_844+0x4>
    d165:	0f b6 c0             	movzbl %al,%eax
    d168:	89 d6                	mov    %edx,%esi
    d16a:	89 c7                	mov    %eax,%edi
    d16c:	e8 22 ca ff ff       	callq  9b93 <safe_mul_func_uint8_t_u_u>
    d171:	0f b6 c0             	movzbl %al,%eax
    d174:	0b 85 7c f5 ff ff    	or     -0xa84(%rbp),%eax
    d17a:	89 c2                	mov    %eax,%edx
    d17c:	48 8b 85 f8 f5 ff ff 	mov    -0xa08(%rbp),%rax
    d183:	8b 00                	mov    (%rax),%eax
    d185:	21 c2                	and    %eax,%edx
    d187:	48 8b 85 f8 f5 ff ff 	mov    -0xa08(%rbp),%rax
    d18e:	89 10                	mov    %edx,(%rax)
    d190:	be 05 00 00 00       	mov    $0x5,%esi
    d195:	bf b2 00 00 00       	mov    $0xb2,%edi
    d19a:	e8 ee ca ff ff       	callq  9c8d <safe_rshift_func_uint8_t_u_s>
    d19f:	b8 1c 07 00 00       	mov    $0x71c,%eax
    d1a4:	0f b7 c0             	movzwl %ax,%eax
    d1a7:	89 c7                	mov    %eax,%edi
    d1a9:	e8 3b cb ff ff       	callq  9ce9 <safe_unary_minus_func_uint16_t_u>
    d1ae:	0f b6 05 aa 68 01 00 	movzbl 0x168aa(%rip),%eax        # 23a5f <g_894+0x1df>
    d1b5:	c1 e0 03             	shl    $0x3,%eax
    d1b8:	c0 f8 07             	sar    $0x7,%al
    d1bb:	89 c2                	mov    %eax,%edx
    d1bd:	0f b6 85 3c f5 ff ff 	movzbl -0xac4(%rbp),%eax
    d1c4:	09 d0                	or     %edx,%eax
    d1c6:	0f be d8             	movsbl %al,%ebx
    d1c9:	66 83 bd 4e f5 ff ff 	cmpw   $0x0,-0xab2(%rbp)
    d1d0:	00 
    d1d1:	0f 94 c0             	sete   %al
    d1d4:	0f b6 c0             	movzbl %al,%eax
    d1d7:	be 04 00 00 00       	mov    $0x4,%esi
    d1dc:	89 c7                	mov    %eax,%edi
    d1de:	e8 65 cc ff ff       	callq  9e48 <safe_rshift_func_uint16_t_u_s>
    d1e3:	0f be c0             	movsbl %al,%eax
    d1e6:	89 de                	mov    %ebx,%esi
    d1e8:	89 c7                	mov    %eax,%edi
    d1ea:	e8 23 c0 ff ff       	callq  9212 <safe_mul_func_int8_t_s_s>
    d1ef:	0f b6 c0             	movzbl %al,%eax
    d1f2:	be 00 00 00 00       	mov    $0x0,%esi
    d1f7:	89 c7                	mov    %eax,%edi
    d1f9:	e8 95 c9 ff ff       	callq  9b93 <safe_mul_func_uint8_t_u_u>
    d1fe:	0f b6 c0             	movzbl %al,%eax
    d201:	0d 35 a6 00 00       	or     $0xa635,%eax
    d206:	89 c2                	mov    %eax,%edx
    d208:	48 8b 85 a8 f5 ff ff 	mov    -0xa58(%rbp),%rax
    d20f:	89 10                	mov    %edx,(%rax)
    d211:	48 8b 85 a8 f5 ff ff 	mov    -0xa58(%rbp),%rax
    d218:	8b 10                	mov    (%rax),%edx
    d21a:	48 8b 85 b0 f5 ff ff 	mov    -0xa50(%rbp),%rax
    d221:	89 10                	mov    %edx,(%rax)
    d223:	8b 05 27 73 01 00    	mov    0x17327(%rip),%eax        # 24550 <g_1295>
    d229:	25 ff ff ff 03       	and    $0x3ffffff,%eax
    d22e:	85 c0                	test   %eax,%eax
    d230:	74 05                	je     d237 <func_52+0xd8d>
    d232:	e9 65 f4 ff ff       	jmpq   c69c <func_52+0x1f2>
    d237:	48 c7 85 c8 f5 ff ff 	movq   $0x0,-0xa38(%rbp)
    d23e:	00 00 00 00 
    d242:	48 8b 05 b7 af 01 00 	mov    0x1afb7(%rip),%rax        # 28200 <g_1419>
    d249:	48 8d 15 dc 3d 01 00 	lea    0x13ddc(%rip),%rdx        # 2102c <g_3+0x4>
    d250:	48 89 10             	mov    %rdx,(%rax)
    d253:	0f b7 05 3a 68 01 00 	movzwl 0x1683a(%rip),%eax        # 23a94 <g_896+0x4>
    d25a:	83 c0 01             	add    $0x1,%eax
    d25d:	66 89 05 30 68 01 00 	mov    %ax,0x16830(%rip)        # 23a94 <g_896+0x4>
    d264:	0f b7 05 29 68 01 00 	movzwl 0x16829(%rip),%eax        # 23a94 <g_896+0x4>
    d26b:	66 83 f8 0f          	cmp    $0xf,%ax
    d26f:	0f 85 4e f5 ff ff    	jne    c7c3 <func_52+0x319>
    d275:	48 8b 85 5c f6 ff ff 	mov    -0x9a4(%rbp),%rax
    d27c:	48 89 85 68 f6 ff ff 	mov    %rax,-0x998(%rbp)
    d283:	8b 85 64 f6 ff ff    	mov    -0x99c(%rbp),%eax
    d289:	89 85 70 f6 ff ff    	mov    %eax,-0x990(%rbp)
    d28f:	48 8b 85 68 f6 ff ff 	mov    -0x998(%rbp),%rax
    d296:	8b 8d 70 f6 ff ff    	mov    -0x990(%rbp),%ecx
    d29c:	48 89 ca             	mov    %rcx,%rdx
    d29f:	48 8b 5d d8          	mov    -0x28(%rbp),%rbx
    d2a3:	64 48 33 1c 25 28 00 	xor    %fs:0x28,%rbx
    d2aa:	00 00 
    d2ac:	74 05                	je     d2b3 <func_52+0xe09>
    d2ae:	e8 bd bd ff ff       	callq  9070 <__stack_chk_fail@plt>
    d2b3:	48 81 c4 d8 0a 00 00 	add    $0xad8,%rsp
    d2ba:	5b                   	pop    %rbx
    d2bb:	41 5c                	pop    %r12
    d2bd:	41 5d                	pop    %r13
    d2bf:	5d                   	pop    %rbp
    d2c0:	c3                   	retq   

000000000000d2c1 <func_58>:
    d2c1:	f3 0f 1e fa          	endbr64 
    d2c5:	55                   	push   %rbp
    d2c6:	48 89 e5             	mov    %rsp,%rbp
    d2c9:	41 57                	push   %r15
    d2cb:	41 56                	push   %r14
    d2cd:	41 55                	push   %r13
    d2cf:	41 54                	push   %r12
    d2d1:	53                   	push   %rbx
    d2d2:	48 81 ec 00 10 00 00 	sub    $0x1000,%rsp
    d2d9:	48 83 0c 24 00       	orq    $0x0,(%rsp)
    d2de:	48 81 ec 00 10 00 00 	sub    $0x1000,%rsp
    d2e5:	48 83 0c 24 00       	orq    $0x0,(%rsp)
    d2ea:	48 81 ec 58 01 00 00 	sub    $0x158,%rsp
    d2f1:	89 f0                	mov    %esi,%eax
    d2f3:	48 89 95 90 de ff ff 	mov    %rdx,-0x2170(%rbp)
    d2fa:	48 89 8d 88 de ff ff 	mov    %rcx,-0x2178(%rbp)
    d301:	89 fa                	mov    %edi,%edx
    d303:	88 95 9c de ff ff    	mov    %dl,-0x2164(%rbp)
    d309:	88 85 98 de ff ff    	mov    %al,-0x2168(%rbp)
    d30f:	64 48 8b 04 25 28 00 	mov    %fs:0x28,%rax
    d316:	00 00 
    d318:	48 89 45 c8          	mov    %rax,-0x38(%rbp)
    d31c:	31 c0                	xor    %eax,%eax
    d31e:	48 8d 05 67 3d 01 00 	lea    0x13d67(%rip),%rax        # 2108c <g_32+0x4c>
    d325:	48 89 85 c8 df ff ff 	mov    %rax,-0x2038(%rbp)
    d32c:	c7 85 b0 de ff ff 91 	movl   $0x93796c91,-0x2150(%rbp)
    d333:	6c 79 93 
    d336:	48 8d 05 fb a3 01 00 	lea    0x1a3fb(%rip),%rax        # 27738 <g_126+0x18>
    d33d:	48 89 85 48 df ff ff 	mov    %rax,-0x20b8(%rbp)
    d344:	48 8d 85 48 df ff ff 	lea    -0x20b8(%rbp),%rax
    d34b:	48 89 85 d0 df ff ff 	mov    %rax,-0x2030(%rbp)
    d352:	c7 85 10 e2 ff ff 6f 	movl   $0x9969556f,-0x1df0(%rbp)
    d359:	55 69 99 
    d35c:	c7 85 14 e2 ff ff 6f 	movl   $0x9969556f,-0x1dec(%rbp)
    d363:	55 69 99 
    d366:	c7 85 18 e2 ff ff f2 	movl   $0x377b18f2,-0x1de8(%rbp)
    d36d:	18 7b 37 
    d370:	c7 85 1c e2 ff ff 6f 	movl   $0x9969556f,-0x1de4(%rbp)
    d377:	55 69 99 
    d37a:	c7 85 20 e2 ff ff 6f 	movl   $0x9969556f,-0x1de0(%rbp)
    d381:	55 69 99 
    d384:	c7 85 24 e2 ff ff f2 	movl   $0x377b18f2,-0x1ddc(%rbp)
    d38b:	18 7b 37 
    d38e:	c7 85 b4 de ff ff b4 	movl   $0x456803b4,-0x214c(%rbp)
    d395:	03 68 45 
    d398:	48 c7 85 d8 df ff ff 	movq   $0x0,-0x2028(%rbp)
    d39f:	00 00 00 00 
    d3a3:	c7 85 b8 de ff ff ff 	movl   $0xffffffff,-0x2148(%rbp)
    d3aa:	ff ff ff 
    d3ad:	c7 85 bc de ff ff 75 	movl   $0xe39ddf75,-0x2144(%rbp)
    d3b4:	df 9d e3 
    d3b7:	c6 85 a6 de ff ff 15 	movb   $0x15,-0x215a(%rbp)
    d3be:	66 c7 85 a8 de ff ff 	movw   $0xffff,-0x2158(%rbp)
    d3c5:	ff ff 
    d3c7:	48 c7 85 e0 df ff ff 	movq   $0x0,-0x2020(%rbp)
    d3ce:	00 00 00 00 
    d3d2:	48 8d 05 63 6e 01 00 	lea    0x16e63(%rip),%rax        # 2423c <g_1243+0xbc>
    d3d9:	48 89 85 50 df ff ff 	mov    %rax,-0x20b0(%rbp)
    d3e0:	48 8d 85 50 df ff ff 	lea    -0x20b0(%rbp),%rax
    d3e7:	48 89 85 e8 df ff ff 	mov    %rax,-0x2018(%rbp)
    d3ee:	48 8d 05 5b 71 01 00 	lea    0x1715b(%rip),%rax        # 24550 <g_1295>
    d3f5:	48 89 85 f0 df ff ff 	mov    %rax,-0x2010(%rbp)
    d3fc:	48 8d 05 2d 3d 01 00 	lea    0x13d2d(%rip),%rax        # 21130 <g_137>
    d403:	48 89 85 f8 df ff ff 	mov    %rax,-0x2008(%rbp)
    d40a:	c7 85 e4 de ff ff 00 	movl   $0x0,-0x211c(%rbp)
    d411:	00 00 00 
    d414:	eb 1e                	jmp    d434 <func_58+0x173>
    d416:	8b 85 e4 de ff ff    	mov    -0x211c(%rbp),%eax
    d41c:	48 98                	cltq   
    d41e:	48 8d 15 eb ab 01 00 	lea    0x1abeb(%rip),%rdx        # 28010 <g_1172+0x30>
    d425:	48 89 94 c5 e0 e2 ff 	mov    %rdx,-0x1d20(%rbp,%rax,8)
    d42c:	ff 
    d42d:	83 85 e4 de ff ff 01 	addl   $0x1,-0x211c(%rbp)
    d434:	83 bd e4 de ff ff 07 	cmpl   $0x7,-0x211c(%rbp)
    d43b:	7e d9                	jle    d416 <func_58+0x155>
    d43d:	48 83 bd c8 df ff ff 	cmpq   $0x0,-0x2038(%rbp)
    d444:	00 
    d445:	0f 94 c0             	sete   %al
    d448:	0f b6 c8             	movzbl %al,%ecx
    d44b:	48 8b 05 3e ab 01 00 	mov    0x1ab3e(%rip),%rax        # 27f90 <g_828>
    d452:	48 8b 10             	mov    (%rax),%rdx
    d455:	48 8b 05 5c a3 01 00 	mov    0x1a35c(%rip),%rax        # 277b8 <g_255>
    d45c:	0f b6 12             	movzbl (%rdx),%edx
    d45f:	88 10                	mov    %dl,(%rax)
    d461:	0f b6 00             	movzbl (%rax),%eax
    d464:	0f be c0             	movsbl %al,%eax
    d467:	39 c1                	cmp    %eax,%ecx
    d469:	0f 8c 2d 41 00 00    	jl     1159c <func_58+0x42db>
    d46f:	48 b8 17 1e 43 a5 8a 	movabs $0xae6ddc8aa5431e17,%rax
    d476:	dc 6d ae 
    d479:	48 89 85 58 df ff ff 	mov    %rax,-0x20a8(%rbp)
    d480:	48 8d 85 e0 e5 ff ff 	lea    -0x1a20(%rbp),%rax
    d487:	48 8d 15 72 86 01 00 	lea    0x18672(%rip),%rdx        # 25b00 <g_2104+0xa80>
    d48e:	b9 30 00 00 00       	mov    $0x30,%ecx
    d493:	48 89 c7             	mov    %rax,%rdi
    d496:	48 89 d6             	mov    %rdx,%rsi
    d499:	f3 48 a5             	rep movsq %ds:(%rsi),%es:(%rdi)
    d49c:	48 8d 05 95 3c 01 00 	lea    0x13c95(%rip),%rax        # 21138 <g_137+0x8>
    d4a3:	48 89 85 10 e0 ff ff 	mov    %rax,-0x1ff0(%rbp)
    d4aa:	66 c7 85 aa de ff ff 	movw   $0xe792,-0x2156(%rbp)
    d4b1:	92 e7 
    d4b3:	48 c7 85 60 df ff ff 	movq   $0x0,-0x20a0(%rbp)
    d4ba:	00 00 00 00 
    d4be:	c7 85 c0 de ff ff f8 	movl   $0xfffffff8,-0x2140(%rbp)
    d4c5:	ff ff ff 
    d4c8:	48 c7 85 18 e0 ff ff 	movq   $0x0,-0x1fe8(%rbp)
    d4cf:	00 00 00 00 
    d4d3:	48 8d 05 e6 a2 01 00 	lea    0x1a2e6(%rip),%rax        # 277c0 <g_257>
    d4da:	48 89 85 68 df ff ff 	mov    %rax,-0x2098(%rbp)
    d4e1:	48 8d 85 68 df ff ff 	lea    -0x2098(%rbp),%rax
    d4e8:	48 89 85 70 df ff ff 	mov    %rax,-0x2090(%rbp)
    d4ef:	48 c7 85 20 e0 ff ff 	movq   $0x0,-0x1fe0(%rbp)
    d4f6:	00 00 00 00 
    d4fa:	c7 85 c4 de ff ff f1 	movl   $0x36c9d8f1,-0x213c(%rbp)
    d501:	d8 c9 36 
    d504:	48 8d 85 b0 de ff ff 	lea    -0x2150(%rbp),%rax
    d50b:	48 89 85 78 df ff ff 	mov    %rax,-0x2088(%rbp)
    d512:	48 8d 05 9f aa 01 00 	lea    0x1aa9f(%rip),%rax        # 27fb8 <g_1100>
    d519:	48 89 85 80 df ff ff 	mov    %rax,-0x2080(%rbp)
    d520:	66 c7 85 ac de ff ff 	movw   $0xfff6,-0x2154(%rbp)
    d527:	f6 ff 
    d529:	48 8d 85 d0 ee ff ff 	lea    -0x1130(%rbp),%rax
    d530:	48 8d 15 49 87 01 00 	lea    0x18749(%rip),%rdx        # 25c80 <g_2104+0xc00>
    d537:	b9 64 00 00 00       	mov    $0x64,%ecx
    d53c:	48 89 c7             	mov    %rax,%rdi
    d53f:	48 89 d6             	mov    %rdx,%rsi
    d542:	f3 48 a5             	rep movsq %ds:(%rsi),%es:(%rdi)
    d545:	48 8d 85 d0 ee ff ff 	lea    -0x1130(%rbp),%rax
    d54c:	48 05 48 02 00 00    	add    $0x248,%rax
    d552:	48 89 85 28 e0 ff ff 	mov    %rax,-0x1fd8(%rbp)
    d559:	c7 85 18 df ff ff 00 	movl   $0x0,-0x20e8(%rbp)
    d560:	00 00 00 
    d563:	48 8d 05 5a eb 00 00 	lea    0xeb5a(%rip),%rax        # 1c0c4 <g_1254>
    d56a:	48 89 85 c0 df ff ff 	mov    %rax,-0x2040(%rbp)
    d571:	c7 85 e8 de ff ff 00 	movl   $0x0,-0x2118(%rbp)
    d578:	00 00 00 
    d57b:	eb 1e                	jmp    d59b <func_58+0x2da>
    d57d:	8b 85 e8 de ff ff    	mov    -0x2118(%rbp),%eax
    d583:	48 98                	cltq   
    d585:	48 8d 95 70 df ff ff 	lea    -0x2090(%rbp),%rdx
    d58c:	48 89 94 c5 00 e2 ff 	mov    %rdx,-0x1e00(%rbp,%rax,8)
    d593:	ff 
    d594:	83 85 e8 de ff ff 01 	addl   $0x1,-0x2118(%rbp)
    d59b:	83 bd e8 de ff ff 01 	cmpl   $0x1,-0x2118(%rbp)
    d5a2:	7e d9                	jle    d57d <func_58+0x2bc>
    d5a4:	c7 85 e8 de ff ff 00 	movl   $0x0,-0x2118(%rbp)
    d5ab:	00 00 00 
    d5ae:	eb 1a                	jmp    d5ca <func_58+0x309>
    d5b0:	8b 85 e8 de ff ff    	mov    -0x2118(%rbp),%eax
    d5b6:	48 98                	cltq   
    d5b8:	c7 84 85 e8 e1 ff ff 	movl   $0xfffffffd,-0x1e18(%rbp,%rax,4)
    d5bf:	fd ff ff ff 
    d5c3:	83 85 e8 de ff ff 01 	addl   $0x1,-0x2118(%rbp)
    d5ca:	83 bd e8 de ff ff 01 	cmpl   $0x1,-0x2118(%rbp)
    d5d1:	7e dd                	jle    d5b0 <func_58+0x2ef>
    d5d3:	48 8b 85 90 de ff ff 	mov    -0x2170(%rbp),%rax
    d5da:	44 0f bf e0          	movswl %ax,%r12d
    d5de:	8b 85 b0 de ff ff    	mov    -0x2150(%rbp),%eax
    d5e4:	41 89 c5             	mov    %eax,%r13d
    d5e7:	0f b6 9d 9c de ff ff 	movzbl -0x2164(%rbp),%ebx
    d5ee:	48 c7 85 d0 df ff ff 	movq   $0x0,-0x2030(%rbp)
    d5f5:	00 00 00 00 
    d5f9:	48 8b 05 c8 a1 01 00 	mov    0x1a1c8(%rip),%rax        # 277c8 <g_339>
    d600:	48 8b 00             	mov    (%rax),%rax
    d603:	48 85 c0             	test   %rax,%rax
    d606:	0f 94 c0             	sete   %al
    d609:	0f b6 c0             	movzbl %al,%eax
    d60c:	be 01 00 00 00       	mov    $0x1,%esi
    d611:	89 c7                	mov    %eax,%edi
    d613:	e8 19 bc ff ff       	callq  9231 <safe_mod_func_int8_t_s_s>
    d618:	48 8b 85 58 df ff ff 	mov    -0x20a8(%rbp),%rax
    d61f:	48 89 de             	mov    %rbx,%rsi
    d622:	48 89 c7             	mov    %rax,%rdi
    d625:	e8 17 c2 ff ff       	callq  9841 <safe_add_func_int64_t_s_s>
    d62a:	48 8b 95 10 e0 ff ff 	mov    -0x1ff0(%rbp),%rdx
    d631:	48 8b 12             	mov    (%rdx),%rdx
    d634:	48 21 c2             	and    %rax,%rdx
    d637:	48 8b 85 10 e0 ff ff 	mov    -0x1ff0(%rbp),%rax
    d63e:	48 89 10             	mov    %rdx,(%rax)
    d641:	48 8b 85 10 e0 ff ff 	mov    -0x1ff0(%rbp),%rax
    d648:	48 8b 00             	mov    (%rax),%rax
    d64b:	89 c2                	mov    %eax,%edx
    d64d:	48 8b 85 58 df ff ff 	mov    -0x20a8(%rbp),%rax
    d654:	09 d0                	or     %edx,%eax
    d656:	44 89 ee             	mov    %r13d,%esi
    d659:	89 c7                	mov    %eax,%edi
    d65b:	e8 c5 c8 ff ff       	callq  9f25 <safe_div_func_uint32_t_u_u>
    d660:	41 89 c5             	mov    %eax,%r13d
    d663:	48 8b 85 58 df ff ff 	mov    -0x20a8(%rbp),%rax
    d66a:	48 83 f0 08          	xor    $0x8,%rax
    d66e:	48 89 c3             	mov    %rax,%rbx
    d671:	48 8b 05 f0 a0 01 00 	mov    0x1a0f0(%rip),%rax        # 27768 <g_125>
    d678:	48 8b 00             	mov    (%rax),%rax
    d67b:	0f b7 00             	movzwl (%rax),%eax
    d67e:	0f bf d0             	movswl %ax,%edx
    d681:	48 83 bd 90 de ff ff 	cmpq   $0x0,-0x2170(%rbp)
    d688:	00 
    d689:	0f 95 c0             	setne  %al
    d68c:	0f b6 c0             	movzbl %al,%eax
    d68f:	89 d6                	mov    %edx,%esi
    d691:	89 c7                	mov    %eax,%edi
    d693:	e8 3b bd ff ff       	callq  93d3 <safe_sub_func_int16_t_s_s>
    d698:	0f bf d0             	movswl %ax,%edx
    d69b:	8b 85 b0 de ff ff    	mov    -0x2150(%rbp),%eax
    d6a1:	39 c2                	cmp    %eax,%edx
    d6a3:	0f 94 c0             	sete   %al
    d6a6:	0f b6 c0             	movzbl %al,%eax
    d6a9:	48 39 c3             	cmp    %rax,%rbx
    d6ac:	0f 9c c0             	setl   %al
    d6af:	0f b6 c0             	movzbl %al,%eax
    d6b2:	48 8b 95 48 df ff ff 	mov    -0x20b8(%rbp),%rdx
    d6b9:	48 8b 1a             	mov    (%rdx),%rbx
    d6bc:	44 89 ee             	mov    %r13d,%esi
    d6bf:	89 c7                	mov    %eax,%edi
    d6c1:	e8 64 be ff ff       	callq  952a <safe_rshift_func_int16_t_s_s>
    d6c6:	66 89 03             	mov    %ax,(%rbx)
    d6c9:	0f b7 03             	movzwl (%rbx),%eax
    d6cc:	8b 95 20 e2 ff ff    	mov    -0x1de0(%rbp),%edx
    d6d2:	98                   	cwtl   
    d6d3:	21 d0                	and    %edx,%eax
    d6d5:	89 85 20 e2 ff ff    	mov    %eax,-0x1de0(%rbp)
    d6db:	8b 85 20 e2 ff ff    	mov    -0x1de0(%rbp),%eax
    d6e1:	98                   	cwtl   
    d6e2:	44 89 e6             	mov    %r12d,%esi
    d6e5:	89 c7                	mov    %eax,%edi
    d6e7:	e8 69 bd ff ff       	callq  9455 <safe_div_func_int16_t_s_s>
    d6ec:	48 0f bf d0          	movswq %ax,%rdx
    d6f0:	48 8b 85 58 df ff ff 	mov    -0x20a8(%rbp),%rax
    d6f7:	48 21 c2             	and    %rax,%rdx
    d6fa:	48 8b 05 bf a0 01 00 	mov    0x1a0bf(%rip),%rax        # 277c0 <g_257>
    d701:	0f b6 00             	movzbl (%rax),%eax
    d704:	48 0f be c0          	movsbq %al,%rax
    d708:	48 39 c2             	cmp    %rax,%rdx
    d70b:	0f 9c c0             	setl   %al
    d70e:	0f b6 d0             	movzbl %al,%edx
    d711:	8b 85 b0 de ff ff    	mov    -0x2150(%rbp),%eax
    d717:	21 c2                	and    %eax,%edx
    d719:	0f b7 85 aa de ff ff 	movzwl -0x2156(%rbp),%eax
    d720:	98                   	cwtl   
    d721:	39 c2                	cmp    %eax,%edx
    d723:	0f 8f c6 02 00 00    	jg     d9ef <func_58+0x72e>
    d729:	48 8d 05 10 52 01 00 	lea    0x15210(%rip),%rax        # 22940 <g_742>
    d730:	48 89 85 50 e1 ff ff 	mov    %rax,-0x1eb0(%rbp)
    d737:	48 8d 85 10 e2 ff ff 	lea    -0x1df0(%rbp),%rax
    d73e:	48 83 c0 10          	add    $0x10,%rax
    d742:	48 89 85 58 e1 ff ff 	mov    %rax,-0x1ea8(%rbp)
    d749:	48 8d 85 10 e2 ff ff 	lea    -0x1df0(%rbp),%rax
    d750:	48 83 c0 10          	add    $0x10,%rax
    d754:	48 89 85 60 e1 ff ff 	mov    %rax,-0x1ea0(%rbp)
    d75b:	c7 85 b8 df ff ff b0 	movl   $0xabfe59b0,-0x2048(%rbp)
    d762:	59 fe ab 
    d765:	48 8d 05 d4 51 01 00 	lea    0x151d4(%rip),%rax        # 22940 <g_742>
    d76c:	48 89 85 68 e1 ff ff 	mov    %rax,-0x1e98(%rbp)
    d773:	48 8d 05 c6 51 01 00 	lea    0x151c6(%rip),%rax        # 22940 <g_742>
    d77a:	48 89 85 70 e1 ff ff 	mov    %rax,-0x1e90(%rbp)
    d781:	48 c7 85 78 e1 ff ff 	movq   $0x0,-0x1e88(%rbp)
    d788:	00 00 00 00 
    d78c:	48 8d 85 10 e2 ff ff 	lea    -0x1df0(%rbp),%rax
    d793:	48 83 c0 10          	add    $0x10,%rax
    d797:	48 89 85 80 e1 ff ff 	mov    %rax,-0x1e80(%rbp)
    d79e:	48 8d 85 b8 df ff ff 	lea    -0x2048(%rbp),%rax
    d7a5:	48 89 85 88 e1 ff ff 	mov    %rax,-0x1e78(%rbp)
    d7ac:	48 8d 85 b0 de ff ff 	lea    -0x2150(%rbp),%rax
    d7b3:	48 89 85 90 e1 ff ff 	mov    %rax,-0x1e70(%rbp)
    d7ba:	48 c7 85 98 e1 ff ff 	movq   $0x0,-0x1e68(%rbp)
    d7c1:	00 00 00 00 
    d7c5:	48 8d 85 b0 de ff ff 	lea    -0x2150(%rbp),%rax
    d7cc:	48 89 85 a0 e1 ff ff 	mov    %rax,-0x1e60(%rbp)
    d7d3:	48 8d 05 66 51 01 00 	lea    0x15166(%rip),%rax        # 22940 <g_742>
    d7da:	48 89 85 a8 e1 ff ff 	mov    %rax,-0x1e58(%rbp)
    d7e1:	48 8d 85 b8 df ff ff 	lea    -0x2048(%rbp),%rax
    d7e8:	48 89 85 b0 e1 ff ff 	mov    %rax,-0x1e50(%rbp)
    d7ef:	48 c7 85 b8 e1 ff ff 	movq   $0x0,-0x1e48(%rbp)
    d7f6:	00 00 00 00 
    d7fa:	48 8d 85 b8 df ff ff 	lea    -0x2048(%rbp),%rax
    d801:	48 89 85 c0 e1 ff ff 	mov    %rax,-0x1e40(%rbp)
    d808:	48 8d 05 09 39 01 00 	lea    0x13909(%rip),%rax        # 21118 <g_34>
    d80f:	48 89 85 c8 e1 ff ff 	mov    %rax,-0x1e38(%rbp)
    d816:	48 8d 05 73 e8 00 00 	lea    0xe873(%rip),%rax        # 1c090 <g_968>
    d81d:	48 89 85 d8 e1 ff ff 	mov    %rax,-0x1e28(%rbp)
    d824:	48 8d 85 d8 e1 ff ff 	lea    -0x1e28(%rbp),%rax
    d82b:	48 89 85 d0 e1 ff ff 	mov    %rax,-0x1e30(%rbp)
    d832:	c7 85 ec de ff ff 00 	movl   $0x0,-0x2114(%rbp)
    d839:	00 00 00 
    d83c:	eb 45                	jmp    d883 <func_58+0x5c2>
    d83e:	c7 85 f0 de ff ff 00 	movl   $0x0,-0x2110(%rbp)
    d845:	00 00 00 
    d848:	eb 29                	jmp    d873 <func_58+0x5b2>
    d84a:	8b 85 f0 de ff ff    	mov    -0x2110(%rbp),%eax
    d850:	48 98                	cltq   
    d852:	8b 95 ec de ff ff    	mov    -0x2114(%rbp),%edx
    d858:	48 63 d2             	movslq %edx,%rdx
    d85b:	48 c1 e2 02          	shl    $0x2,%rdx
    d85f:	48 01 d0             	add    %rdx,%rax
    d862:	66 c7 84 45 f0 f1 ff 	movw   $0x0,-0xe10(%rbp,%rax,2)
    d869:	ff 00 00 
    d86c:	83 85 f0 de ff ff 01 	addl   $0x1,-0x2110(%rbp)
    d873:	83 bd f0 de ff ff 03 	cmpl   $0x3,-0x2110(%rbp)
    d87a:	7e ce                	jle    d84a <func_58+0x589>
    d87c:	83 85 ec de ff ff 01 	addl   $0x1,-0x2114(%rbp)
    d883:	83 bd ec de ff ff 00 	cmpl   $0x0,-0x2114(%rbp)
    d88a:	7e b2                	jle    d83e <func_58+0x57d>
    d88c:	c7 85 ec de ff ff 00 	movl   $0x0,-0x2114(%rbp)
    d893:	00 00 00 
    d896:	eb 1b                	jmp    d8b3 <func_58+0x5f2>
    d898:	8b 85 ec de ff ff    	mov    -0x2114(%rbp),%eax
    d89e:	48 98                	cltq   
    d8a0:	48 c7 84 c5 30 f8 ff 	movq   $0x0,-0x7d0(%rbp,%rax,8)
    d8a7:	ff 00 00 00 00 
    d8ac:	83 85 ec de ff ff 01 	addl   $0x1,-0x2114(%rbp)
    d8b3:	83 bd ec de ff ff 01 	cmpl   $0x1,-0x2114(%rbp)
    d8ba:	7e dc                	jle    d898 <func_58+0x5d7>
    d8bc:	8b 85 b4 de ff ff    	mov    -0x214c(%rbp),%eax
    d8c2:	83 e8 01             	sub    $0x1,%eax
    d8c5:	89 85 b4 de ff ff    	mov    %eax,-0x214c(%rbp)
    d8cb:	8b 05 3f 4f 01 00    	mov    0x14f3f(%rip),%eax        # 22810 <g_525>
    d8d1:	c1 e0 06             	shl    $0x6,%eax
    d8d4:	c1 f8 06             	sar    $0x6,%eax
    d8d7:	0f b6 d8             	movzbl %al,%ebx
    d8da:	48 8b 85 88 de ff ff 	mov    -0x2178(%rbp),%rax
    d8e1:	44 8b 20             	mov    (%rax),%r12d
    d8e4:	48 8b 85 18 e0 ff ff 	mov    -0x1fe8(%rbp),%rax
    d8eb:	48 89 85 d0 e1 ff ff 	mov    %rax,-0x1e30(%rbp)
    d8f2:	48 83 bd d0 e1 ff ff 	cmpq   $0x0,-0x1e30(%rbp)
    d8f9:	00 
    d8fa:	0f 95 c0             	setne  %al
    d8fd:	0f b6 c0             	movzbl %al,%eax
    d900:	f7 d0                	not    %eax
    d902:	41 89 c5             	mov    %eax,%r13d
    d905:	b8 3e 11 00 00       	mov    $0x113e,%eax
    d90a:	41 89 c6             	mov    %eax,%r14d
    d90d:	0f b6 85 98 de ff ff 	movzbl -0x2168(%rbp),%eax
    d914:	0f be d0             	movsbl %al,%edx
    d917:	0f b6 85 9c de ff ff 	movzbl -0x2164(%rbp),%eax
    d91e:	0f be c0             	movsbl %al,%eax
    d921:	89 d6                	mov    %edx,%esi
    d923:	89 c7                	mov    %eax,%edi
    d925:	e8 c8 b8 ff ff       	callq  91f2 <safe_sub_func_int8_t_s_s>
    d92a:	0f be c0             	movsbl %al,%eax
    d92d:	44 89 f6             	mov    %r14d,%esi
    d930:	89 c7                	mov    %eax,%edi
    d932:	e8 7f bc ff ff       	callq  95b6 <safe_add_func_int32_t_s_s>
    d937:	44 89 e9             	mov    %r13d,%ecx
    d93a:	09 c1                	or     %eax,%ecx
    d93c:	48 8b 85 70 e1 ff ff 	mov    -0x1e90(%rbp),%rax
    d943:	8b 00                	mov    (%rax),%eax
    d945:	48 63 d0             	movslq %eax,%rdx
    d948:	48 8b 85 10 e0 ff ff 	mov    -0x1ff0(%rbp),%rax
    d94f:	48 89 10             	mov    %rdx,(%rax)
    d952:	48 8b 85 10 e0 ff ff 	mov    -0x1ff0(%rbp),%rax
    d959:	48 8b 00             	mov    (%rax),%rax
    d95c:	09 c8                	or     %ecx,%eax
    d95e:	44 89 e6             	mov    %r12d,%esi
    d961:	89 c7                	mov    %eax,%edi
    d963:	e8 9d bc ff ff       	callq  9605 <safe_sub_func_int32_t_s_s>
    d968:	0f b6 c0             	movzbl %al,%eax
    d96b:	89 de                	mov    %ebx,%esi
    d96d:	89 c7                	mov    %eax,%edi
    d96f:	e8 1f c2 ff ff       	callq  9b93 <safe_mul_func_uint8_t_u_u>
    d974:	0f b6 d8             	movzbl %al,%ebx
    d977:	48 8b 05 ca 61 01 00 	mov    0x161ca(%rip),%rax        # 23b48 <g_900+0x8>
    d97e:	48 c1 e0 0f          	shl    $0xf,%rax
    d982:	48 c1 f8 2f          	sar    $0x2f,%rax
    d986:	48 63 d0             	movslq %eax,%rdx
    d989:	48 8b 05 08 a6 01 00 	mov    0x1a608(%rip),%rax        # 27f98 <g_827>
    d990:	48 8b 00             	mov    (%rax),%rax
    d993:	48 85 c0             	test   %rax,%rax
    d996:	0f 94 c0             	sete   %al
    d999:	0f b6 c0             	movzbl %al,%eax
    d99c:	48 89 d6             	mov    %rdx,%rsi
    d99f:	48 89 c7             	mov    %rax,%rdi
    d9a2:	e8 9a be ff ff       	callq  9841 <safe_add_func_int64_t_s_s>
    d9a7:	48 89 de             	mov    %rbx,%rsi
    d9aa:	48 89 c7             	mov    %rax,%rdi
    d9ad:	e8 f6 be ff ff       	callq  98a8 <safe_sub_func_int64_t_s_s>
    d9b2:	48 8b 95 88 de ff ff 	mov    -0x2178(%rbp),%rdx
    d9b9:	8b 12                	mov    (%rdx),%edx
    d9bb:	48 63 d2             	movslq %edx,%rdx
    d9be:	48 39 d0             	cmp    %rdx,%rax
    d9c1:	0f 94 c0             	sete   %al
    d9c4:	0f b6 c0             	movzbl %al,%eax
    d9c7:	be e3 8f 00 00       	mov    $0x8fe3,%esi
    d9cc:	89 c7                	mov    %eax,%edi
    d9ce:	e8 6a c3 ff ff       	callq  9d3d <safe_mul_func_uint16_t_u_u>
    d9d3:	48 8b 95 80 e1 ff ff 	mov    -0x1e80(%rbp),%rdx
    d9da:	8b 12                	mov    (%rdx),%edx
    d9dc:	0f b7 c0             	movzwl %ax,%eax
    d9df:	09 c2                	or     %eax,%edx
    d9e1:	48 8b 85 80 e1 ff ff 	mov    -0x1e80(%rbp),%rax
    d9e8:	89 10                	mov    %edx,(%rax)
    d9ea:	e9 07 3c 00 00       	jmpq   115f6 <func_58+0x4335>
    d9ef:	48 8d 05 8a 60 01 00 	lea    0x1608a(%rip),%rax        # 23a80 <g_895>
    d9f6:	48 89 85 88 df ff ff 	mov    %rax,-0x2078(%rbp)
    d9fd:	48 8d 85 f0 f1 ff ff 	lea    -0xe10(%rbp),%rax
    da04:	48 8d 15 95 85 01 00 	lea    0x18595(%rip),%rdx        # 25fa0 <g_2104+0xf20>
    da0b:	b9 c8 00 00 00       	mov    $0xc8,%ecx
    da10:	48 89 c7             	mov    %rax,%rdi
    da13:	48 89 d6             	mov    %rdx,%rsi
    da16:	f3 48 a5             	rep movsq %ds:(%rsi),%es:(%rdi)
    da19:	48 8d 85 70 df ff ff 	lea    -0x2090(%rbp),%rax
    da20:	48 89 85 30 e0 ff ff 	mov    %rax,-0x1fd0(%rbp)
    da27:	c7 85 c8 de ff ff 00 	movl   $0x0,-0x2138(%rbp)
    da2e:	00 00 00 
    da31:	48 8d 85 aa de ff ff 	lea    -0x2156(%rbp),%rax
    da38:	48 89 85 90 df ff ff 	mov    %rax,-0x2070(%rbp)
    da3f:	48 8d 85 30 e2 ff ff 	lea    -0x1dd0(%rbp),%rax
    da46:	48 89 85 90 ec ff ff 	mov    %rax,-0x1370(%rbp)
    da4d:	48 8d 85 30 e2 ff ff 	lea    -0x1dd0(%rbp),%rax
    da54:	48 83 c0 08          	add    $0x8,%rax
    da58:	48 89 85 98 ec ff ff 	mov    %rax,-0x1368(%rbp)
    da5f:	48 8d 85 30 e2 ff ff 	lea    -0x1dd0(%rbp),%rax
    da66:	48 89 85 a0 ec ff ff 	mov    %rax,-0x1360(%rbp)
    da6d:	48 8d 85 30 e2 ff ff 	lea    -0x1dd0(%rbp),%rax
    da74:	48 83 c0 08          	add    $0x8,%rax
    da78:	48 89 85 a8 ec ff ff 	mov    %rax,-0x1358(%rbp)
    da7f:	48 8d 85 30 e2 ff ff 	lea    -0x1dd0(%rbp),%rax
    da86:	48 89 85 b0 ec ff ff 	mov    %rax,-0x1350(%rbp)
    da8d:	48 8d 85 30 e2 ff ff 	lea    -0x1dd0(%rbp),%rax
    da94:	48 83 c0 08          	add    $0x8,%rax
    da98:	48 89 85 b8 ec ff ff 	mov    %rax,-0x1348(%rbp)
    da9f:	48 8d 85 30 e2 ff ff 	lea    -0x1dd0(%rbp),%rax
    daa6:	48 89 85 c0 ec ff ff 	mov    %rax,-0x1340(%rbp)
    daad:	48 8d 85 30 e2 ff ff 	lea    -0x1dd0(%rbp),%rax
    dab4:	48 89 85 c8 ec ff ff 	mov    %rax,-0x1338(%rbp)
    dabb:	48 8d 85 30 e2 ff ff 	lea    -0x1dd0(%rbp),%rax
    dac2:	48 89 85 d0 ec ff ff 	mov    %rax,-0x1330(%rbp)
    dac9:	48 8d 85 30 e2 ff ff 	lea    -0x1dd0(%rbp),%rax
    dad0:	48 89 85 d8 ec ff ff 	mov    %rax,-0x1328(%rbp)
    dad7:	48 8d 85 30 e2 ff ff 	lea    -0x1dd0(%rbp),%rax
    dade:	48 89 85 e0 ec ff ff 	mov    %rax,-0x1320(%rbp)
    dae5:	48 8d 85 30 e2 ff ff 	lea    -0x1dd0(%rbp),%rax
    daec:	48 89 85 e8 ec ff ff 	mov    %rax,-0x1318(%rbp)
    daf3:	48 8d 85 30 e2 ff ff 	lea    -0x1dd0(%rbp),%rax
    dafa:	48 83 c0 08          	add    $0x8,%rax
    dafe:	48 89 85 f0 ec ff ff 	mov    %rax,-0x1310(%rbp)
    db05:	48 8d 85 30 e2 ff ff 	lea    -0x1dd0(%rbp),%rax
    db0c:	48 89 85 f8 ec ff ff 	mov    %rax,-0x1308(%rbp)
    db13:	48 8d 85 30 e2 ff ff 	lea    -0x1dd0(%rbp),%rax
    db1a:	48 89 85 00 ed ff ff 	mov    %rax,-0x1300(%rbp)
    db21:	48 8d 85 30 e2 ff ff 	lea    -0x1dd0(%rbp),%rax
    db28:	48 83 c0 10          	add    $0x10,%rax
    db2c:	48 89 85 08 ed ff ff 	mov    %rax,-0x12f8(%rbp)
    db33:	48 8d 85 30 e2 ff ff 	lea    -0x1dd0(%rbp),%rax
    db3a:	48 83 c0 10          	add    $0x10,%rax
    db3e:	48 89 85 10 ed ff ff 	mov    %rax,-0x12f0(%rbp)
    db45:	48 8d 85 30 e2 ff ff 	lea    -0x1dd0(%rbp),%rax
    db4c:	48 83 c0 10          	add    $0x10,%rax
    db50:	48 89 85 18 ed ff ff 	mov    %rax,-0x12e8(%rbp)
    db57:	48 8d 85 30 e2 ff ff 	lea    -0x1dd0(%rbp),%rax
    db5e:	48 89 85 20 ed ff ff 	mov    %rax,-0x12e0(%rbp)
    db65:	48 c7 85 28 ed ff ff 	movq   $0x0,-0x12d8(%rbp)
    db6c:	00 00 00 00 
    db70:	48 c7 85 30 ed ff ff 	movq   $0x0,-0x12d0(%rbp)
    db77:	00 00 00 00 
    db7b:	48 c7 85 38 ed ff ff 	movq   $0x0,-0x12c8(%rbp)
    db82:	00 00 00 00 
    db86:	48 c7 85 40 ed ff ff 	movq   $0x0,-0x12c0(%rbp)
    db8d:	00 00 00 00 
    db91:	48 8d 85 30 e2 ff ff 	lea    -0x1dd0(%rbp),%rax
    db98:	48 89 85 48 ed ff ff 	mov    %rax,-0x12b8(%rbp)
    db9f:	48 8d 85 30 e2 ff ff 	lea    -0x1dd0(%rbp),%rax
    dba6:	48 89 85 50 ed ff ff 	mov    %rax,-0x12b0(%rbp)
    dbad:	48 8d 85 30 e2 ff ff 	lea    -0x1dd0(%rbp),%rax
    dbb4:	48 89 85 58 ed ff ff 	mov    %rax,-0x12a8(%rbp)
    dbbb:	48 8d 85 30 e2 ff ff 	lea    -0x1dd0(%rbp),%rax
    dbc2:	48 89 85 60 ed ff ff 	mov    %rax,-0x12a0(%rbp)
    dbc9:	48 8d 85 30 e2 ff ff 	lea    -0x1dd0(%rbp),%rax
    dbd0:	48 83 c0 10          	add    $0x10,%rax
    dbd4:	48 89 85 68 ed ff ff 	mov    %rax,-0x1298(%rbp)
    dbdb:	48 8d 85 30 e2 ff ff 	lea    -0x1dd0(%rbp),%rax
    dbe2:	48 89 85 70 ed ff ff 	mov    %rax,-0x1290(%rbp)
    dbe9:	48 8d 85 30 e2 ff ff 	lea    -0x1dd0(%rbp),%rax
    dbf0:	48 89 85 78 ed ff ff 	mov    %rax,-0x1288(%rbp)
    dbf7:	48 8d 85 30 e2 ff ff 	lea    -0x1dd0(%rbp),%rax
    dbfe:	48 89 85 80 ed ff ff 	mov    %rax,-0x1280(%rbp)
    dc05:	48 8d 85 30 e2 ff ff 	lea    -0x1dd0(%rbp),%rax
    dc0c:	48 89 85 88 ed ff ff 	mov    %rax,-0x1278(%rbp)
    dc13:	48 8d 85 30 e2 ff ff 	lea    -0x1dd0(%rbp),%rax
    dc1a:	48 89 85 90 ed ff ff 	mov    %rax,-0x1270(%rbp)
    dc21:	48 8d 85 30 e2 ff ff 	lea    -0x1dd0(%rbp),%rax
    dc28:	48 89 85 98 ed ff ff 	mov    %rax,-0x1268(%rbp)
    dc2f:	48 8d 85 30 e2 ff ff 	lea    -0x1dd0(%rbp),%rax
    dc36:	48 89 85 a0 ed ff ff 	mov    %rax,-0x1260(%rbp)
    dc3d:	48 8d 85 30 e2 ff ff 	lea    -0x1dd0(%rbp),%rax
    dc44:	48 89 85 a8 ed ff ff 	mov    %rax,-0x1258(%rbp)
    dc4b:	48 c7 85 b0 ed ff ff 	movq   $0x0,-0x1250(%rbp)
    dc52:	00 00 00 00 
    dc56:	48 8d 85 30 e2 ff ff 	lea    -0x1dd0(%rbp),%rax
    dc5d:	48 89 85 b8 ed ff ff 	mov    %rax,-0x1248(%rbp)
    dc64:	48 8d 85 30 e2 ff ff 	lea    -0x1dd0(%rbp),%rax
    dc6b:	48 89 85 c0 ed ff ff 	mov    %rax,-0x1240(%rbp)
    dc72:	48 8d 85 30 e2 ff ff 	lea    -0x1dd0(%rbp),%rax
    dc79:	48 89 85 c8 ed ff ff 	mov    %rax,-0x1238(%rbp)
    dc80:	48 c7 85 d0 ed ff ff 	movq   $0x0,-0x1230(%rbp)
    dc87:	00 00 00 00 
    dc8b:	48 8d 85 30 e2 ff ff 	lea    -0x1dd0(%rbp),%rax
    dc92:	48 89 85 d8 ed ff ff 	mov    %rax,-0x1228(%rbp)
    dc99:	48 8d 85 30 e2 ff ff 	lea    -0x1dd0(%rbp),%rax
    dca0:	48 89 85 e0 ed ff ff 	mov    %rax,-0x1220(%rbp)
    dca7:	48 8d 85 30 e2 ff ff 	lea    -0x1dd0(%rbp),%rax
    dcae:	48 83 c0 08          	add    $0x8,%rax
    dcb2:	48 89 85 e8 ed ff ff 	mov    %rax,-0x1218(%rbp)
    dcb9:	48 c7 85 f0 ed ff ff 	movq   $0x0,-0x1210(%rbp)
    dcc0:	00 00 00 00 
    dcc4:	48 8d 85 30 e2 ff ff 	lea    -0x1dd0(%rbp),%rax
    dccb:	48 89 85 f8 ed ff ff 	mov    %rax,-0x1208(%rbp)
    dcd2:	48 8d 85 30 e2 ff ff 	lea    -0x1dd0(%rbp),%rax
    dcd9:	48 89 85 00 ee ff ff 	mov    %rax,-0x1200(%rbp)
    dce0:	48 8d 85 30 e2 ff ff 	lea    -0x1dd0(%rbp),%rax
    dce7:	48 83 c0 10          	add    $0x10,%rax
    dceb:	48 89 85 08 ee ff ff 	mov    %rax,-0x11f8(%rbp)
    dcf2:	48 c7 85 10 ee ff ff 	movq   $0x0,-0x11f0(%rbp)
    dcf9:	00 00 00 00 
    dcfd:	48 8d 85 30 e2 ff ff 	lea    -0x1dd0(%rbp),%rax
    dd04:	48 89 85 18 ee ff ff 	mov    %rax,-0x11e8(%rbp)
    dd0b:	48 8d 85 30 e2 ff ff 	lea    -0x1dd0(%rbp),%rax
    dd12:	48 89 85 20 ee ff ff 	mov    %rax,-0x11e0(%rbp)
    dd19:	48 8d 85 30 e2 ff ff 	lea    -0x1dd0(%rbp),%rax
    dd20:	48 83 c0 10          	add    $0x10,%rax
    dd24:	48 89 85 28 ee ff ff 	mov    %rax,-0x11d8(%rbp)
    dd2b:	48 8d 85 30 e2 ff ff 	lea    -0x1dd0(%rbp),%rax
    dd32:	48 89 85 30 ee ff ff 	mov    %rax,-0x11d0(%rbp)
    dd39:	48 8d 85 30 e2 ff ff 	lea    -0x1dd0(%rbp),%rax
    dd40:	48 89 85 38 ee ff ff 	mov    %rax,-0x11c8(%rbp)
    dd47:	48 8d 85 30 e2 ff ff 	lea    -0x1dd0(%rbp),%rax
    dd4e:	48 89 85 40 ee ff ff 	mov    %rax,-0x11c0(%rbp)
    dd55:	48 8d 85 30 e2 ff ff 	lea    -0x1dd0(%rbp),%rax
    dd5c:	48 89 85 48 ee ff ff 	mov    %rax,-0x11b8(%rbp)
    dd63:	48 8d 85 30 e2 ff ff 	lea    -0x1dd0(%rbp),%rax
    dd6a:	48 89 85 50 ee ff ff 	mov    %rax,-0x11b0(%rbp)
    dd71:	48 8d 85 30 e2 ff ff 	lea    -0x1dd0(%rbp),%rax
    dd78:	48 89 85 58 ee ff ff 	mov    %rax,-0x11a8(%rbp)
    dd7f:	48 c7 85 60 ee ff ff 	movq   $0x0,-0x11a0(%rbp)
    dd86:	00 00 00 00 
    dd8a:	48 8d 85 30 e2 ff ff 	lea    -0x1dd0(%rbp),%rax
    dd91:	48 89 85 68 ee ff ff 	mov    %rax,-0x1198(%rbp)
    dd98:	48 8d 85 30 e2 ff ff 	lea    -0x1dd0(%rbp),%rax
    dd9f:	48 89 85 70 ee ff ff 	mov    %rax,-0x1190(%rbp)
    dda6:	48 8d 85 30 e2 ff ff 	lea    -0x1dd0(%rbp),%rax
    ddad:	48 89 85 78 ee ff ff 	mov    %rax,-0x1188(%rbp)
    ddb4:	48 8d 85 30 e2 ff ff 	lea    -0x1dd0(%rbp),%rax
    ddbb:	48 83 c0 08          	add    $0x8,%rax
    ddbf:	48 89 85 80 ee ff ff 	mov    %rax,-0x1180(%rbp)
    ddc6:	48 8d 85 30 e2 ff ff 	lea    -0x1dd0(%rbp),%rax
    ddcd:	48 89 85 88 ee ff ff 	mov    %rax,-0x1178(%rbp)
    ddd4:	48 c7 85 90 ee ff ff 	movq   $0x0,-0x1170(%rbp)
    dddb:	00 00 00 00 
    dddf:	48 8d 85 30 e2 ff ff 	lea    -0x1dd0(%rbp),%rax
    dde6:	48 83 c0 08          	add    $0x8,%rax
    ddea:	48 89 85 98 ee ff ff 	mov    %rax,-0x1168(%rbp)
    ddf1:	48 8d 85 30 e2 ff ff 	lea    -0x1dd0(%rbp),%rax
    ddf8:	48 83 c0 10          	add    $0x10,%rax
    ddfc:	48 89 85 a0 ee ff ff 	mov    %rax,-0x1160(%rbp)
    de03:	48 c7 85 a8 ee ff ff 	movq   $0x0,-0x1158(%rbp)
    de0a:	00 00 00 00 
    de0e:	48 8d 85 30 e2 ff ff 	lea    -0x1dd0(%rbp),%rax
    de15:	48 89 85 b0 ee ff ff 	mov    %rax,-0x1150(%rbp)
    de1c:	48 8d 85 30 e2 ff ff 	lea    -0x1dd0(%rbp),%rax
    de23:	48 89 85 b8 ee ff ff 	mov    %rax,-0x1148(%rbp)
    de2a:	48 c7 85 c0 ee ff ff 	movq   $0x0,-0x1140(%rbp)
    de31:	00 00 00 00 
    de35:	48 8d 85 30 e2 ff ff 	lea    -0x1dd0(%rbp),%rax
    de3c:	48 83 c0 10          	add    $0x10,%rax
    de40:	48 89 85 c8 ee ff ff 	mov    %rax,-0x1138(%rbp)
    de47:	c7 85 cc de ff ff 09 	movl   $0x9,-0x2134(%rbp)
    de4e:	00 00 00 
    de51:	c7 85 1c df ff ff ff 	movl   $0xffffffff,-0x20e4(%rbp)
    de58:	ff ff ff 
    de5b:	c7 85 d0 de ff ff 0a 	movl   $0x46a99b0a,-0x2130(%rbp)
    de62:	9b a9 46 
    de65:	48 8d 85 b0 ea ff ff 	lea    -0x1550(%rbp),%rax
    de6c:	48 8d 15 cd eb 00 00 	lea    0xebcd(%rip),%rdx        # 1ca40 <g_1254+0x97c>
    de73:	b9 3c 00 00 00       	mov    $0x3c,%ecx
    de78:	48 89 c7             	mov    %rax,%rdi
    de7b:	48 89 d6             	mov    %rdx,%rsi
    de7e:	f3 48 a5             	rep movsq %ds:(%rsi),%es:(%rdi)
    de81:	c7 85 20 df ff ff bf 	movl   $0x60b5b4bf,-0x20e0(%rbp)
    de88:	b4 b5 60 
    de8b:	48 8d 05 0e 39 01 00 	lea    0x1390e(%rip),%rax        # 217a0 <g_443+0x140>
    de92:	48 89 85 38 e0 ff ff 	mov    %rax,-0x1fc8(%rbp)
    de99:	48 8d 05 40 99 01 00 	lea    0x19940(%rip),%rax        # 277e0 <g_581>
    dea0:	48 89 85 10 e4 ff ff 	mov    %rax,-0x1bf0(%rbp)
    dea7:	48 8d 05 32 99 01 00 	lea    0x19932(%rip),%rax        # 277e0 <g_581>
    deae:	48 89 85 18 e4 ff ff 	mov    %rax,-0x1be8(%rbp)
    deb5:	48 8d 05 24 99 01 00 	lea    0x19924(%rip),%rax        # 277e0 <g_581>
    debc:	48 89 85 20 e4 ff ff 	mov    %rax,-0x1be0(%rbp)
    dec3:	48 8d 05 16 99 01 00 	lea    0x19916(%rip),%rax        # 277e0 <g_581>
    deca:	48 89 85 28 e4 ff ff 	mov    %rax,-0x1bd8(%rbp)
    ded1:	48 8d 05 08 99 01 00 	lea    0x19908(%rip),%rax        # 277e0 <g_581>
    ded8:	48 89 85 30 e4 ff ff 	mov    %rax,-0x1bd0(%rbp)
    dedf:	48 8d 05 fa 98 01 00 	lea    0x198fa(%rip),%rax        # 277e0 <g_581>
    dee6:	48 89 85 38 e4 ff ff 	mov    %rax,-0x1bc8(%rbp)
    deed:	48 8d 05 ec 98 01 00 	lea    0x198ec(%rip),%rax        # 277e0 <g_581>
    def4:	48 89 85 40 e4 ff ff 	mov    %rax,-0x1bc0(%rbp)
    defb:	48 8d 05 de 98 01 00 	lea    0x198de(%rip),%rax        # 277e0 <g_581>
    df02:	48 89 85 48 e4 ff ff 	mov    %rax,-0x1bb8(%rbp)
    df09:	48 8d 05 d0 98 01 00 	lea    0x198d0(%rip),%rax        # 277e0 <g_581>
    df10:	48 89 85 50 e4 ff ff 	mov    %rax,-0x1bb0(%rbp)
    df17:	48 8d 05 c2 98 01 00 	lea    0x198c2(%rip),%rax        # 277e0 <g_581>
    df1e:	48 89 85 58 e4 ff ff 	mov    %rax,-0x1ba8(%rbp)
    df25:	48 8d 05 b4 98 01 00 	lea    0x198b4(%rip),%rax        # 277e0 <g_581>
    df2c:	48 89 85 60 e4 ff ff 	mov    %rax,-0x1ba0(%rbp)
    df33:	48 8d 05 a6 98 01 00 	lea    0x198a6(%rip),%rax        # 277e0 <g_581>
    df3a:	48 89 85 68 e4 ff ff 	mov    %rax,-0x1b98(%rbp)
    df41:	48 8d 05 98 98 01 00 	lea    0x19898(%rip),%rax        # 277e0 <g_581>
    df48:	48 89 85 70 e4 ff ff 	mov    %rax,-0x1b90(%rbp)
    df4f:	48 8d 05 8a 98 01 00 	lea    0x1988a(%rip),%rax        # 277e0 <g_581>
    df56:	48 89 85 78 e4 ff ff 	mov    %rax,-0x1b88(%rbp)
    df5d:	48 8d 05 7c 98 01 00 	lea    0x1987c(%rip),%rax        # 277e0 <g_581>
    df64:	48 89 85 80 e4 ff ff 	mov    %rax,-0x1b80(%rbp)
    df6b:	48 8d 05 6e 98 01 00 	lea    0x1986e(%rip),%rax        # 277e0 <g_581>
    df72:	48 89 85 88 e4 ff ff 	mov    %rax,-0x1b78(%rbp)
    df79:	c7 85 24 df ff ff 62 	movl   $0xbe887a62,-0x20dc(%rbp)
    df80:	7a 88 be 
    df83:	48 c7 85 98 df ff ff 	movq   $0x0,-0x2068(%rbp)
    df8a:	00 00 00 00 
    df8e:	48 8d 85 98 df ff ff 	lea    -0x2068(%rbp),%rax
    df95:	48 89 85 40 e0 ff ff 	mov    %rax,-0x1fc0(%rbp)
    df9c:	48 8d 05 25 a0 01 00 	lea    0x1a025(%rip),%rax        # 27fc8 <g_1165>
    dfa3:	48 89 85 20 e3 ff ff 	mov    %rax,-0x1ce0(%rbp)
    dfaa:	48 8d 05 17 a0 01 00 	lea    0x1a017(%rip),%rax        # 27fc8 <g_1165>
    dfb1:	48 89 85 28 e3 ff ff 	mov    %rax,-0x1cd8(%rbp)
    dfb8:	48 8d 05 09 a0 01 00 	lea    0x1a009(%rip),%rax        # 27fc8 <g_1165>
    dfbf:	48 89 85 30 e3 ff ff 	mov    %rax,-0x1cd0(%rbp)
    dfc6:	48 8d 05 fb 9f 01 00 	lea    0x19ffb(%rip),%rax        # 27fc8 <g_1165>
    dfcd:	48 89 85 38 e3 ff ff 	mov    %rax,-0x1cc8(%rbp)
    dfd4:	48 8d 05 ed 9f 01 00 	lea    0x19fed(%rip),%rax        # 27fc8 <g_1165>
    dfdb:	48 89 85 40 e3 ff ff 	mov    %rax,-0x1cc0(%rbp)
    dfe2:	48 8d 05 df 9f 01 00 	lea    0x19fdf(%rip),%rax        # 27fc8 <g_1165>
    dfe9:	48 89 85 48 e3 ff ff 	mov    %rax,-0x1cb8(%rbp)
    dff0:	48 8d 05 d1 9f 01 00 	lea    0x19fd1(%rip),%rax        # 27fc8 <g_1165>
    dff7:	48 89 85 50 e3 ff ff 	mov    %rax,-0x1cb0(%rbp)
    dffe:	48 8d 05 c3 9f 01 00 	lea    0x19fc3(%rip),%rax        # 27fc8 <g_1165>
    e005:	48 89 85 58 e3 ff ff 	mov    %rax,-0x1ca8(%rbp)
    e00c:	48 8d 05 b5 9f 01 00 	lea    0x19fb5(%rip),%rax        # 27fc8 <g_1165>
    e013:	48 89 85 60 e3 ff ff 	mov    %rax,-0x1ca0(%rbp)
    e01a:	48 8d 05 a7 9f 01 00 	lea    0x19fa7(%rip),%rax        # 27fc8 <g_1165>
    e021:	48 89 85 68 e3 ff ff 	mov    %rax,-0x1c98(%rbp)
    e028:	48 8d 05 99 9f 01 00 	lea    0x19f99(%rip),%rax        # 27fc8 <g_1165>
    e02f:	48 89 85 70 e3 ff ff 	mov    %rax,-0x1c90(%rbp)
    e036:	48 8d 05 8b 9f 01 00 	lea    0x19f8b(%rip),%rax        # 27fc8 <g_1165>
    e03d:	48 89 85 78 e3 ff ff 	mov    %rax,-0x1c88(%rbp)
    e044:	48 8d 05 7d 9f 01 00 	lea    0x19f7d(%rip),%rax        # 27fc8 <g_1165>
    e04b:	48 89 85 80 e3 ff ff 	mov    %rax,-0x1c80(%rbp)
    e052:	48 8d 05 6f 9f 01 00 	lea    0x19f6f(%rip),%rax        # 27fc8 <g_1165>
    e059:	48 89 85 88 e3 ff ff 	mov    %rax,-0x1c78(%rbp)
    e060:	66 c7 85 f2 e1 ff ff 	movw   $0x2bc2,-0x1e0e(%rbp)
    e067:	c2 2b 
    e069:	66 c7 85 f4 e1 ff ff 	movw   $0x2bc2,-0x1e0c(%rbp)
    e070:	c2 2b 
    e072:	66 c7 85 f6 e1 ff ff 	movw   $0xbc5b,-0x1e0a(%rbp)
    e079:	5b bc 
    e07b:	66 c7 85 f8 e1 ff ff 	movw   $0x2bc2,-0x1e08(%rbp)
    e082:	c2 2b 
    e084:	66 c7 85 fa e1 ff ff 	movw   $0x2bc2,-0x1e06(%rbp)
    e08b:	c2 2b 
    e08d:	66 c7 85 fc e1 ff ff 	movw   $0xbc5b,-0x1e04(%rbp)
    e094:	5b bc 
    e096:	66 c7 85 fe e1 ff ff 	movw   $0x2bc2,-0x1e02(%rbp)
    e09d:	c2 2b 
    e09f:	48 8d 85 c0 de ff ff 	lea    -0x2140(%rbp),%rax
    e0a6:	48 89 85 f0 e8 ff ff 	mov    %rax,-0x1710(%rbp)
    e0ad:	48 8d 05 78 2f 01 00 	lea    0x12f78(%rip),%rax        # 2102c <g_3+0x4>
    e0b4:	48 89 85 f8 e8 ff ff 	mov    %rax,-0x1708(%rbp)
    e0bb:	48 8d 05 7e 48 01 00 	lea    0x1487e(%rip),%rax        # 22940 <g_742>
    e0c2:	48 89 85 00 e9 ff ff 	mov    %rax,-0x1700(%rbp)
    e0c9:	48 8d 05 5c 2f 01 00 	lea    0x12f5c(%rip),%rax        # 2102c <g_3+0x4>
    e0d0:	48 89 85 08 e9 ff ff 	mov    %rax,-0x16f8(%rbp)
    e0d7:	48 8d 05 4e 2f 01 00 	lea    0x12f4e(%rip),%rax        # 2102c <g_3+0x4>
    e0de:	48 89 85 10 e9 ff ff 	mov    %rax,-0x16f0(%rbp)
    e0e5:	48 8d 05 54 48 01 00 	lea    0x14854(%rip),%rax        # 22940 <g_742>
    e0ec:	48 89 85 18 e9 ff ff 	mov    %rax,-0x16e8(%rbp)
    e0f3:	48 8d 05 32 2f 01 00 	lea    0x12f32(%rip),%rax        # 2102c <g_3+0x4>
    e0fa:	48 89 85 20 e9 ff ff 	mov    %rax,-0x16e0(%rbp)
    e101:	48 8d 05 38 48 01 00 	lea    0x14838(%rip),%rax        # 22940 <g_742>
    e108:	48 89 85 28 e9 ff ff 	mov    %rax,-0x16d8(%rbp)
    e10f:	48 8d 05 16 2f 01 00 	lea    0x12f16(%rip),%rax        # 2102c <g_3+0x4>
    e116:	48 89 85 30 e9 ff ff 	mov    %rax,-0x16d0(%rbp)
    e11d:	48 8d 05 08 2f 01 00 	lea    0x12f08(%rip),%rax        # 2102c <g_3+0x4>
    e124:	48 89 85 38 e9 ff ff 	mov    %rax,-0x16c8(%rbp)
    e12b:	48 8d 05 e6 2f 01 00 	lea    0x12fe6(%rip),%rax        # 21118 <g_34>
    e132:	48 89 85 40 e9 ff ff 	mov    %rax,-0x16c0(%rbp)
    e139:	48 8d 85 e8 e1 ff ff 	lea    -0x1e18(%rbp),%rax
    e140:	48 83 c0 04          	add    $0x4,%rax
    e144:	48 89 85 48 e9 ff ff 	mov    %rax,-0x16b8(%rbp)
    e14b:	48 c7 85 50 e9 ff ff 	movq   $0x0,-0x16b0(%rbp)
    e152:	00 00 00 00 
    e156:	48 8d 85 c0 de ff ff 	lea    -0x2140(%rbp),%rax
    e15d:	48 89 85 58 e9 ff ff 	mov    %rax,-0x16a8(%rbp)
    e164:	48 8d 05 d5 47 01 00 	lea    0x147d5(%rip),%rax        # 22940 <g_742>
    e16b:	48 89 85 60 e9 ff ff 	mov    %rax,-0x16a0(%rbp)
    e172:	48 8d 85 e8 e1 ff ff 	lea    -0x1e18(%rbp),%rax
    e179:	48 83 c0 04          	add    $0x4,%rax
    e17d:	48 89 85 68 e9 ff ff 	mov    %rax,-0x1698(%rbp)
    e184:	48 8d 85 10 e2 ff ff 	lea    -0x1df0(%rbp),%rax
    e18b:	48 83 c0 10          	add    $0x10,%rax
    e18f:	48 89 85 70 e9 ff ff 	mov    %rax,-0x1690(%rbp)
    e196:	48 8d 05 8f 2e 01 00 	lea    0x12e8f(%rip),%rax        # 2102c <g_3+0x4>
    e19d:	48 89 85 78 e9 ff ff 	mov    %rax,-0x1688(%rbp)
    e1a4:	48 8d 85 10 e2 ff ff 	lea    -0x1df0(%rbp),%rax
    e1ab:	48 83 c0 10          	add    $0x10,%rax
    e1af:	48 89 85 80 e9 ff ff 	mov    %rax,-0x1680(%rbp)
    e1b6:	48 8d 85 e8 e1 ff ff 	lea    -0x1e18(%rbp),%rax
    e1bd:	48 83 c0 04          	add    $0x4,%rax
    e1c1:	48 89 85 88 e9 ff ff 	mov    %rax,-0x1678(%rbp)
    e1c8:	48 8d 05 71 47 01 00 	lea    0x14771(%rip),%rax        # 22940 <g_742>
    e1cf:	48 89 85 90 e9 ff ff 	mov    %rax,-0x1670(%rbp)
    e1d6:	48 8d 85 c0 de ff ff 	lea    -0x2140(%rbp),%rax
    e1dd:	48 89 85 98 e9 ff ff 	mov    %rax,-0x1668(%rbp)
    e1e4:	48 c7 85 a0 e9 ff ff 	movq   $0x0,-0x1660(%rbp)
    e1eb:	00 00 00 00 
    e1ef:	48 8d 85 e8 e1 ff ff 	lea    -0x1e18(%rbp),%rax
    e1f6:	48 83 c0 04          	add    $0x4,%rax
    e1fa:	48 89 85 a8 e9 ff ff 	mov    %rax,-0x1658(%rbp)
    e201:	48 8d 05 10 2f 01 00 	lea    0x12f10(%rip),%rax        # 21118 <g_34>
    e208:	48 89 85 b0 e9 ff ff 	mov    %rax,-0x1650(%rbp)
    e20f:	48 8d 05 16 2e 01 00 	lea    0x12e16(%rip),%rax        # 2102c <g_3+0x4>
    e216:	48 89 85 b8 e9 ff ff 	mov    %rax,-0x1648(%rbp)
    e21d:	48 8d 05 08 2e 01 00 	lea    0x12e08(%rip),%rax        # 2102c <g_3+0x4>
    e224:	48 89 85 c0 e9 ff ff 	mov    %rax,-0x1640(%rbp)
    e22b:	48 8d 05 0e 47 01 00 	lea    0x1470e(%rip),%rax        # 22940 <g_742>
    e232:	48 89 85 c8 e9 ff ff 	mov    %rax,-0x1638(%rbp)
    e239:	48 8d 05 ec 2d 01 00 	lea    0x12dec(%rip),%rax        # 2102c <g_3+0x4>
    e240:	48 89 85 d0 e9 ff ff 	mov    %rax,-0x1630(%rbp)
    e247:	48 8d 05 f2 46 01 00 	lea    0x146f2(%rip),%rax        # 22940 <g_742>
    e24e:	48 89 85 d8 e9 ff ff 	mov    %rax,-0x1628(%rbp)
    e255:	48 8d 05 d0 2d 01 00 	lea    0x12dd0(%rip),%rax        # 2102c <g_3+0x4>
    e25c:	48 89 85 e0 e9 ff ff 	mov    %rax,-0x1620(%rbp)
    e263:	48 8d 05 c2 2d 01 00 	lea    0x12dc2(%rip),%rax        # 2102c <g_3+0x4>
    e26a:	48 89 85 e8 e9 ff ff 	mov    %rax,-0x1618(%rbp)
    e271:	48 8d 05 c8 46 01 00 	lea    0x146c8(%rip),%rax        # 22940 <g_742>
    e278:	48 89 85 f0 e9 ff ff 	mov    %rax,-0x1610(%rbp)
    e27f:	48 8d 05 a6 2d 01 00 	lea    0x12da6(%rip),%rax        # 2102c <g_3+0x4>
    e286:	48 89 85 f8 e9 ff ff 	mov    %rax,-0x1608(%rbp)
    e28d:	48 8d 85 c0 de ff ff 	lea    -0x2140(%rbp),%rax
    e294:	48 89 85 00 ea ff ff 	mov    %rax,-0x1600(%rbp)
    e29b:	48 8d 85 e8 e1 ff ff 	lea    -0x1e18(%rbp),%rax
    e2a2:	48 83 c0 04          	add    $0x4,%rax
    e2a6:	48 89 85 08 ea ff ff 	mov    %rax,-0x15f8(%rbp)
    e2ad:	48 8d 05 78 2d 01 00 	lea    0x12d78(%rip),%rax        # 2102c <g_3+0x4>
    e2b4:	48 89 85 10 ea ff ff 	mov    %rax,-0x15f0(%rbp)
    e2bb:	48 8d 85 e8 e1 ff ff 	lea    -0x1e18(%rbp),%rax
    e2c2:	48 83 c0 04          	add    $0x4,%rax
    e2c6:	48 89 85 18 ea ff ff 	mov    %rax,-0x15e8(%rbp)
    e2cd:	48 8d 85 c0 de ff ff 	lea    -0x2140(%rbp),%rax
    e2d4:	48 89 85 20 ea ff ff 	mov    %rax,-0x15e0(%rbp)
    e2db:	48 8d 85 b0 de ff ff 	lea    -0x2150(%rbp),%rax
    e2e2:	48 89 85 28 ea ff ff 	mov    %rax,-0x15d8(%rbp)
    e2e9:	48 8d 05 3c 2d 01 00 	lea    0x12d3c(%rip),%rax        # 2102c <g_3+0x4>
    e2f0:	48 89 85 30 ea ff ff 	mov    %rax,-0x15d0(%rbp)
    e2f7:	48 8d 05 2e 2d 01 00 	lea    0x12d2e(%rip),%rax        # 2102c <g_3+0x4>
    e2fe:	48 89 85 38 ea ff ff 	mov    %rax,-0x15c8(%rbp)
    e305:	48 8d 05 0c 2e 01 00 	lea    0x12e0c(%rip),%rax        # 21118 <g_34>
    e30c:	48 89 85 40 ea ff ff 	mov    %rax,-0x15c0(%rbp)
    e313:	48 8d 85 b0 de ff ff 	lea    -0x2150(%rbp),%rax
    e31a:	48 89 85 48 ea ff ff 	mov    %rax,-0x15b8(%rbp)
    e321:	48 8d 85 10 e2 ff ff 	lea    -0x1df0(%rbp),%rax
    e328:	48 83 c0 10          	add    $0x10,%rax
    e32c:	48 89 85 50 ea ff ff 	mov    %rax,-0x15b0(%rbp)
    e333:	48 8d 85 b0 de ff ff 	lea    -0x2150(%rbp),%rax
    e33a:	48 89 85 58 ea ff ff 	mov    %rax,-0x15a8(%rbp)
    e341:	48 8d 05 d0 2d 01 00 	lea    0x12dd0(%rip),%rax        # 21118 <g_34>
    e348:	48 89 85 60 ea ff ff 	mov    %rax,-0x15a0(%rbp)
    e34f:	48 8d 05 d6 2c 01 00 	lea    0x12cd6(%rip),%rax        # 2102c <g_3+0x4>
    e356:	48 89 85 68 ea ff ff 	mov    %rax,-0x1598(%rbp)
    e35d:	48 8d 85 e8 e1 ff ff 	lea    -0x1e18(%rbp),%rax
    e364:	48 83 c0 04          	add    $0x4,%rax
    e368:	48 89 85 70 ea ff ff 	mov    %rax,-0x1590(%rbp)
    e36f:	48 8d 05 b6 2c 01 00 	lea    0x12cb6(%rip),%rax        # 2102c <g_3+0x4>
    e376:	48 89 85 78 ea ff ff 	mov    %rax,-0x1588(%rbp)
    e37d:	48 8d 05 a8 2c 01 00 	lea    0x12ca8(%rip),%rax        # 2102c <g_3+0x4>
    e384:	48 89 85 80 ea ff ff 	mov    %rax,-0x1580(%rbp)
    e38b:	48 8d 05 9a 2c 01 00 	lea    0x12c9a(%rip),%rax        # 2102c <g_3+0x4>
    e392:	48 89 85 88 ea ff ff 	mov    %rax,-0x1578(%rbp)
    e399:	48 c7 85 90 ea ff ff 	movq   $0x0,-0x1570(%rbp)
    e3a0:	00 00 00 00 
    e3a4:	48 8d 05 6d 2d 01 00 	lea    0x12d6d(%rip),%rax        # 21118 <g_34>
    e3ab:	48 89 85 98 ea ff ff 	mov    %rax,-0x1568(%rbp)
    e3b2:	48 8d 85 e8 e1 ff ff 	lea    -0x1e18(%rbp),%rax
    e3b9:	48 83 c0 04          	add    $0x4,%rax
    e3bd:	48 89 85 a0 ea ff ff 	mov    %rax,-0x1560(%rbp)
    e3c4:	48 8d 05 4d 2d 01 00 	lea    0x12d4d(%rip),%rax        # 21118 <g_34>
    e3cb:	48 89 85 a8 ea ff ff 	mov    %rax,-0x1558(%rbp)
    e3d2:	c7 85 f4 de ff ff 00 	movl   $0x0,-0x210c(%rbp)
    e3d9:	00 00 00 
    e3dc:	eb 1e                	jmp    e3fc <func_58+0x113b>
    e3de:	8b 85 f4 de ff ff    	mov    -0x210c(%rbp),%eax
    e3e4:	48 98                	cltq   
    e3e6:	48 8d 95 90 df ff ff 	lea    -0x2070(%rbp),%rdx
    e3ed:	48 89 94 c5 30 e2 ff 	mov    %rdx,-0x1dd0(%rbp,%rax,8)
    e3f4:	ff 
    e3f5:	83 85 f4 de ff ff 01 	addl   $0x1,-0x210c(%rbp)
    e3fc:	83 bd f4 de ff ff 02 	cmpl   $0x2,-0x210c(%rbp)
    e403:	7e d9                	jle    e3de <func_58+0x111d>
    e405:	8b 85 c0 de ff ff    	mov    -0x2140(%rbp),%eax
    e40b:	0f be d0             	movsbl %al,%edx
    e40e:	48 8b 85 88 df ff ff 	mov    -0x2078(%rbp),%rax
    e415:	48 85 c0             	test   %rax,%rax
    e418:	0f 94 c0             	sete   %al
    e41b:	0f b6 c0             	movzbl %al,%eax
    e41e:	89 d6                	mov    %edx,%esi
    e420:	89 c7                	mov    %eax,%edi
    e422:	e8 eb ad ff ff       	callq  9212 <safe_mul_func_int8_t_s_s>
    e427:	0f be c0             	movsbl %al,%eax
    e42a:	89 85 b0 de ff ff    	mov    %eax,-0x2150(%rbp)
    e430:	48 8b 05 71 9b 01 00 	mov    0x19b71(%rip),%rax        # 27fa8 <g_976>
    e437:	48 89 05 6a 9b 01 00 	mov    %rax,0x19b6a(%rip)        # 27fa8 <g_976>
    e43e:	48 8b 85 90 de ff ff 	mov    -0x2170(%rbp),%rax
    e445:	41 89 c4             	mov    %eax,%r12d
    e448:	8b 85 20 e2 ff ff    	mov    -0x1de0(%rbp),%eax
    e44e:	0f be d8             	movsbl %al,%ebx
    e451:	0f b6 85 98 de ff ff 	movzbl -0x2168(%rbp),%eax
    e458:	66 98                	cbtw   
    e45a:	0f b7 c0             	movzwl %ax,%eax
    e45d:	89 c6                	mov    %eax,%esi
    e45f:	bf 01 00 00 00       	mov    $0x1,%edi
    e464:	e8 25 b9 ff ff       	callq  9d8e <safe_div_func_uint16_t_u_u>
    e469:	89 c2                	mov    %eax,%edx
    e46b:	48 8b 85 70 df ff ff 	mov    -0x2090(%rbp),%rax
    e472:	48 8b 00             	mov    (%rax),%rax
    e475:	48 8b 00             	mov    (%rax),%rax
    e478:	88 10                	mov    %dl,(%rax)
    e47a:	0f b6 00             	movzbl (%rax),%eax
    e47d:	3c fc                	cmp    $0xfc,%al
    e47f:	0f 9d c0             	setge  %al
    e482:	0f b6 c0             	movzbl %al,%eax
    e485:	89 de                	mov    %ebx,%esi
    e487:	89 c7                	mov    %eax,%edi
    e489:	e8 84 ad ff ff       	callq  9212 <safe_mul_func_int8_t_s_s>
    e48e:	48 0f be d0          	movsbq %al,%rdx
    e492:	8b 05 ac 34 01 00    	mov    0x134ac(%rip),%eax        # 21944 <g_451+0x4>
    e498:	c1 e0 05             	shl    $0x5,%eax
    e49b:	c1 f8 0d             	sar    $0xd,%eax
    e49e:	48 98                	cltq   
    e4a0:	48 89 d6             	mov    %rdx,%rsi
    e4a3:	48 89 c7             	mov    %rax,%rdi
    e4a6:	e8 09 b5 ff ff       	callq  99b4 <safe_mod_func_int64_t_s_s>
    e4ab:	48 8b 85 00 e2 ff ff 	mov    -0x1e00(%rbp),%rax
    e4b2:	48 39 85 30 e0 ff ff 	cmp    %rax,-0x1fd0(%rbp)
    e4b9:	0f 94 c0             	sete   %al
    e4bc:	0f b6 d0             	movzbl %al,%edx
    e4bf:	8b 85 b4 de ff ff    	mov    -0x214c(%rbp),%eax
    e4c5:	39 c2                	cmp    %eax,%edx
    e4c7:	0f 96 c0             	setbe  %al
    e4ca:	0f b6 c0             	movzbl %al,%eax
    e4cd:	44 89 e6             	mov    %r12d,%esi
    e4d0:	89 c7                	mov    %eax,%edi
    e4d2:	e8 0a b0 ff ff       	callq  94e1 <safe_lshift_func_int16_t_s_u>
    e4d7:	0f b7 d8             	movzwl %ax,%ebx
    e4da:	0f b6 85 9c de ff ff 	movzbl -0x2164(%rbp),%eax
    e4e1:	89 c7                	mov    %eax,%edi
    e4e3:	e8 be b9 ff ff       	callq  9ea6 <safe_unary_minus_func_uint32_t_u>
    e4e8:	0f b7 c0             	movzwl %ax,%eax
    e4eb:	89 de                	mov    %ebx,%esi
    e4ed:	89 c7                	mov    %eax,%edi
    e4ef:	e8 68 b8 ff ff       	callq  9d5c <safe_mod_func_uint16_t_u_u>
    e4f4:	0f b7 d0             	movzwl %ax,%edx
    e4f7:	0f b6 85 98 de ff ff 	movzbl -0x2168(%rbp),%eax
    e4fe:	66 98                	cbtw   
    e500:	0f b7 c0             	movzwl %ax,%eax
    e503:	89 d6                	mov    %edx,%esi
    e505:	89 c7                	mov    %eax,%edi
    e507:	e8 f3 b7 ff ff       	callq  9cff <safe_add_func_uint16_t_u_u>
    e50c:	0f b6 c0             	movzbl %al,%eax
    e50f:	be 07 00 00 00       	mov    $0x7,%esi
    e514:	89 c7                	mov    %eax,%edi
    e516:	e8 31 b7 ff ff       	callq  9c4c <safe_lshift_func_uint8_t_u_u>
    e51b:	84 c0                	test   %al,%al
    e51d:	0f 84 37 12 00 00    	je     f75a <func_58+0x2499>
    e523:	48 b8 59 96 45 cc 67 	movabs $0x560f567cc459659,%rax
    e52a:	f5 60 05 
    e52d:	48 89 85 a0 df ff ff 	mov    %rax,-0x2060(%rbp)
    e534:	c7 85 d4 de ff ff 68 	movl   $0xee0fef68,-0x212c(%rbp)
    e53b:	ef 0f ee 
    e53e:	c7 85 38 df ff ff 92 	movl   $0xd451cb92,-0x20c8(%rbp)
    e545:	cb 51 d4 
    e548:	c7 85 d8 de ff ff 93 	movl   $0xd12a6f93,-0x2128(%rbp)
    e54f:	6f 2a d1 
    e552:	c7 85 dc de ff ff 04 	movl   $0xec85504,-0x2124(%rbp)
    e559:	55 c8 0e 
    e55c:	c7 85 e0 de ff ff 01 	movl   $0x1,-0x2120(%rbp)
    e563:	00 00 00 
    e566:	48 8d 85 30 f8 ff ff 	lea    -0x7d0(%rbp),%rax
    e56d:	48 8d 15 ac e6 00 00 	lea    0xe6ac(%rip),%rdx        # 1cc20 <g_1254+0xb5c>
    e574:	b9 54 00 00 00       	mov    $0x54,%ecx
    e579:	48 89 c7             	mov    %rax,%rdi
    e57c:	48 89 d6             	mov    %rdx,%rsi
    e57f:	f3 48 a5             	rep movsq %ds:(%rsi),%es:(%rdi)
    e582:	48 8d 85 98 df ff ff 	lea    -0x2068(%rbp),%rax
    e589:	48 89 85 a0 e0 ff ff 	mov    %rax,-0x1f60(%rbp)
    e590:	66 c7 85 ae de ff ff 	movw   $0x17a2,-0x2152(%rbp)
    e597:	a2 17 
    e599:	8b 85 10 e2 ff ff    	mov    -0x1df0(%rbp),%eax
    e59f:	48 63 d8             	movslq %eax,%rbx
    e5a2:	8b 05 30 32 01 00    	mov    0x13230(%rip),%eax        # 217d8 <g_444+0x8>
    e5a8:	c1 e0 06             	shl    $0x6,%eax
    e5ab:	c1 f8 06             	sar    $0x6,%eax
    e5ae:	41 89 c4             	mov    %eax,%r12d
    e5b1:	48 8b 85 10 e0 ff ff 	mov    -0x1ff0(%rbp),%rax
    e5b8:	48 8b 10             	mov    (%rax),%rdx
    e5bb:	48 8b 85 10 e0 ff ff 	mov    -0x1ff0(%rbp),%rax
    e5c2:	48 89 10             	mov    %rdx,(%rax)
    e5c5:	48 8b 85 10 e0 ff ff 	mov    -0x1ff0(%rbp),%rax
    e5cc:	48 8b 00             	mov    (%rax),%rax
    e5cf:	be 00 00 00 00       	mov    $0x0,%esi
    e5d4:	48 89 c7             	mov    %rax,%rdi
    e5d7:	e8 cc b2 ff ff       	callq  98a8 <safe_sub_func_int64_t_s_s>
    e5dc:	44 21 e0             	and    %r12d,%eax
    e5df:	41 89 c4             	mov    %eax,%r12d
    e5e2:	48 8b 85 48 df ff ff 	mov    -0x20b8(%rbp),%rax
    e5e9:	48 8b 00             	mov    (%rax),%rax
    e5ec:	0f b7 08             	movzwl (%rax),%ecx
    e5ef:	48 8b 95 98 ec ff ff 	mov    -0x1368(%rbp),%rdx
    e5f6:	48 8b 05 cb 91 01 00 	mov    0x191cb(%rip),%rax        # 277c8 <g_339>
    e5fd:	48 8b 00             	mov    (%rax),%rax
    e600:	48 39 c2             	cmp    %rax,%rdx
    e603:	0f 94 c0             	sete   %al
    e606:	0f b6 d0             	movzbl %al,%edx
    e609:	48 8b 85 48 df ff ff 	mov    -0x20b8(%rbp),%rax
    e610:	48 8b 00             	mov    (%rax),%rax
    e613:	31 ca                	xor    %ecx,%edx
    e615:	66 89 10             	mov    %dx,(%rax)
    e618:	0f b7 00             	movzwl (%rax),%eax
    e61b:	0f bf d0             	movswl %ax,%edx
    e61e:	8b 85 c8 de ff ff    	mov    -0x2138(%rbp),%eax
    e624:	98                   	cwtl   
    e625:	89 d6                	mov    %edx,%esi
    e627:	89 c7                	mov    %eax,%edi
    e629:	e8 c7 ad ff ff       	callq  93f5 <safe_mul_func_int16_t_s_s>
    e62e:	66 85 c0             	test   %ax,%ax
    e631:	75 0a                	jne    e63d <func_58+0x137c>
    e633:	8b 85 1c e2 ff ff    	mov    -0x1de4(%rbp),%eax
    e639:	85 c0                	test   %eax,%eax
    e63b:	74 07                	je     e644 <func_58+0x1383>
    e63d:	b8 01 00 00 00       	mov    $0x1,%eax
    e642:	eb 05                	jmp    e649 <func_58+0x1388>
    e644:	b8 00 00 00 00       	mov    $0x0,%eax
    e649:	44 89 e6             	mov    %r12d,%esi
    e64c:	89 c7                	mov    %eax,%edi
    e64e:	e8 aa b8 ff ff       	callq  9efd <safe_mod_func_uint32_t_u_u>
    e653:	8b 85 c0 de ff ff    	mov    -0x2140(%rbp),%eax
    e659:	83 f8 09             	cmp    $0x9,%eax
    e65c:	0f 9f c0             	setg   %al
    e65f:	0f b6 c0             	movzbl %al,%eax
    e662:	48 8b 95 90 de ff ff 	mov    -0x2170(%rbp),%rdx
    e669:	48 89 d6             	mov    %rdx,%rsi
    e66c:	48 89 c7             	mov    %rax,%rdi
    e66f:	e8 3b ba ff ff       	callq  a0af <safe_div_func_uint64_t_u_u>
    e674:	48 89 de             	mov    %rbx,%rsi
    e677:	48 89 c7             	mov    %rax,%rdi
    e67a:	e8 01 ba ff ff       	callq  a080 <safe_mod_func_uint64_t_u_u>
    e67f:	48 83 bd d8 df ff ff 	cmpq   $0x0,-0x2028(%rbp)
    e686:	00 
    e687:	0f 85 9e 08 00 00    	jne    ef2b <func_58+0x1c6a>
    e68d:	48 8d 05 90 2b 01 00 	lea    0x12b90(%rip),%rax        # 21224 <g_197>
    e694:	48 89 85 90 e4 ff ff 	mov    %rax,-0x1b70(%rbp)
    e69b:	48 8d 05 a0 2a 01 00 	lea    0x12aa0(%rip),%rax        # 21142 <g_180>
    e6a2:	48 89 85 98 e4 ff ff 	mov    %rax,-0x1b68(%rbp)
    e6a9:	48 8d 05 74 2b 01 00 	lea    0x12b74(%rip),%rax        # 21224 <g_197>
    e6b0:	48 89 85 a0 e4 ff ff 	mov    %rax,-0x1b60(%rbp)
    e6b7:	48 8d 05 84 2a 01 00 	lea    0x12a84(%rip),%rax        # 21142 <g_180>
    e6be:	48 89 85 a8 e4 ff ff 	mov    %rax,-0x1b58(%rbp)
    e6c5:	48 8d 05 58 2b 01 00 	lea    0x12b58(%rip),%rax        # 21224 <g_197>
    e6cc:	48 89 85 b0 e4 ff ff 	mov    %rax,-0x1b50(%rbp)
    e6d3:	48 8d 05 68 2a 01 00 	lea    0x12a68(%rip),%rax        # 21142 <g_180>
    e6da:	48 89 85 b8 e4 ff ff 	mov    %rax,-0x1b48(%rbp)
    e6e1:	48 8d 05 5a 2a 01 00 	lea    0x12a5a(%rip),%rax        # 21142 <g_180>
    e6e8:	48 89 85 c0 e4 ff ff 	mov    %rax,-0x1b40(%rbp)
    e6ef:	48 8d 05 2e 2b 01 00 	lea    0x12b2e(%rip),%rax        # 21224 <g_197>
    e6f6:	48 89 85 c8 e4 ff ff 	mov    %rax,-0x1b38(%rbp)
    e6fd:	48 c7 85 d0 e4 ff ff 	movq   $0x0,-0x1b30(%rbp)
    e704:	00 00 00 00 
    e708:	48 8d 05 33 2a 01 00 	lea    0x12a33(%rip),%rax        # 21142 <g_180>
    e70f:	48 89 85 d8 e4 ff ff 	mov    %rax,-0x1b28(%rbp)
    e716:	48 8d 05 07 2b 01 00 	lea    0x12b07(%rip),%rax        # 21224 <g_197>
    e71d:	48 89 85 e0 e4 ff ff 	mov    %rax,-0x1b20(%rbp)
    e724:	48 8d 05 17 2a 01 00 	lea    0x12a17(%rip),%rax        # 21142 <g_180>
    e72b:	48 89 85 e8 e4 ff ff 	mov    %rax,-0x1b18(%rbp)
    e732:	48 8d 05 09 2a 01 00 	lea    0x12a09(%rip),%rax        # 21142 <g_180>
    e739:	48 89 85 f0 e4 ff ff 	mov    %rax,-0x1b10(%rbp)
    e740:	48 8d 05 fb 29 01 00 	lea    0x129fb(%rip),%rax        # 21142 <g_180>
    e747:	48 89 85 f8 e4 ff ff 	mov    %rax,-0x1b08(%rbp)
    e74e:	48 8d 05 cf 2a 01 00 	lea    0x12acf(%rip),%rax        # 21224 <g_197>
    e755:	48 89 85 00 e5 ff ff 	mov    %rax,-0x1b00(%rbp)
    e75c:	48 8d 05 c1 2a 01 00 	lea    0x12ac1(%rip),%rax        # 21224 <g_197>
    e763:	48 89 85 08 e5 ff ff 	mov    %rax,-0x1af8(%rbp)
    e76a:	c7 85 d8 e1 ff ff 89 	movl   $0x594f0d89,-0x1e28(%rbp)
    e771:	0d 4f 59 
    e774:	c7 85 3c df ff ff 01 	movl   $0x1,-0x20c4(%rbp)
    e77b:	00 00 00 
    e77e:	c7 85 40 df ff ff 74 	movl   $0x1a5aa474,-0x20c0(%rbp)
    e785:	a4 5a 1a 
    e788:	c7 85 30 e5 ff ff 5c 	movl   $0x3b93b65c,-0x1ad0(%rbp)
    e78f:	b6 93 3b 
    e792:	c7 85 34 e5 ff ff ff 	movl   $0xffffffff,-0x1acc(%rbp)
    e799:	ff ff ff 
    e79c:	c7 85 38 e5 ff ff ff 	movl   $0xffffffff,-0x1ac8(%rbp)
    e7a3:	ff ff ff 
    e7a6:	c7 85 3c e5 ff ff 5c 	movl   $0x3b93b65c,-0x1ac4(%rbp)
    e7ad:	b6 93 3b 
    e7b0:	c7 85 40 e5 ff ff 01 	movl   $0x1,-0x1ac0(%rbp)
    e7b7:	00 00 00 
    e7ba:	c7 85 44 e5 ff ff 01 	movl   $0x1,-0x1abc(%rbp)
    e7c1:	00 00 00 
    e7c4:	c7 85 48 e5 ff ff 01 	movl   $0x1,-0x1ab8(%rbp)
    e7cb:	00 00 00 
    e7ce:	c7 85 4c e5 ff ff 00 	movl   $0x0,-0x1ab4(%rbp)
    e7d5:	00 00 00 
    e7d8:	c7 85 50 e5 ff ff 01 	movl   $0x1,-0x1ab0(%rbp)
    e7df:	00 00 00 
    e7e2:	c7 85 54 e5 ff ff 00 	movl   $0x0,-0x1aac(%rbp)
    e7e9:	00 00 00 
    e7ec:	c7 85 58 e5 ff ff 00 	movl   $0x0,-0x1aa8(%rbp)
    e7f3:	00 00 00 
    e7f6:	c7 85 5c e5 ff ff 5c 	movl   $0x3b93b65c,-0x1aa4(%rbp)
    e7fd:	b6 93 3b 
    e800:	c7 85 60 e5 ff ff 5c 	movl   $0x3b93b65c,-0x1aa0(%rbp)
    e807:	b6 93 3b 
    e80a:	c7 85 64 e5 ff ff 00 	movl   $0x0,-0x1a9c(%rbp)
    e811:	00 00 00 
    e814:	c7 85 68 e5 ff ff 00 	movl   $0x0,-0x1a98(%rbp)
    e81b:	00 00 00 
    e81e:	c7 85 6c e5 ff ff b5 	movl   $0x900f3eb5,-0x1a94(%rbp)
    e825:	3e 0f 90 
    e828:	c7 85 70 e5 ff ff ff 	movl   $0xffffffff,-0x1a90(%rbp)
    e82f:	ff ff ff 
    e832:	c7 85 74 e5 ff ff 19 	movl   $0x644ed719,-0x1a8c(%rbp)
    e839:	d7 4e 64 
    e83c:	c7 85 78 e5 ff ff f9 	movl   $0x1e8d3cf9,-0x1a88(%rbp)
    e843:	3c 8d 1e 
    e846:	c7 85 7c e5 ff ff 01 	movl   $0x1,-0x1a84(%rbp)
    e84d:	00 00 00 
    e850:	c7 85 80 e5 ff ff 00 	movl   $0x0,-0x1a80(%rbp)
    e857:	00 00 00 
    e85a:	c7 85 84 e5 ff ff 01 	movl   $0x1,-0x1a7c(%rbp)
    e861:	00 00 00 
    e864:	c7 85 88 e5 ff ff 01 	movl   $0x1,-0x1a78(%rbp)
    e86b:	00 00 00 
    e86e:	c7 85 8c e5 ff ff 00 	movl   $0x0,-0x1a74(%rbp)
    e875:	00 00 00 
    e878:	c7 85 90 e5 ff ff 01 	movl   $0x1,-0x1a70(%rbp)
    e87f:	00 00 00 
    e882:	c7 85 94 e5 ff ff f9 	movl   $0x1e8d3cf9,-0x1a6c(%rbp)
    e889:	3c 8d 1e 
    e88c:	c7 85 98 e5 ff ff 00 	movl   $0x0,-0x1a68(%rbp)
    e893:	00 00 00 
    e896:	c7 85 9c e5 ff ff 19 	movl   $0x644ed719,-0x1a64(%rbp)
    e89d:	d7 4e 64 
    e8a0:	c7 85 a0 e5 ff ff 5c 	movl   $0x3b93b65c,-0x1a60(%rbp)
    e8a7:	b6 93 3b 
    e8aa:	c7 85 a4 e5 ff ff f9 	movl   $0x1e8d3cf9,-0x1a5c(%rbp)
    e8b1:	3c 8d 1e 
    e8b4:	c7 85 a8 e5 ff ff b5 	movl   $0x900f3eb5,-0x1a58(%rbp)
    e8bb:	3e 0f 90 
    e8be:	c7 85 ac e5 ff ff 01 	movl   $0x1,-0x1a54(%rbp)
    e8c5:	00 00 00 
    e8c8:	c7 85 b0 e5 ff ff 01 	movl   $0x1,-0x1a50(%rbp)
    e8cf:	00 00 00 
    e8d2:	c7 85 b4 e5 ff ff b5 	movl   $0x900f3eb5,-0x1a4c(%rbp)
    e8d9:	3e 0f 90 
    e8dc:	c7 85 b8 e5 ff ff f9 	movl   $0x1e8d3cf9,-0x1a48(%rbp)
    e8e3:	3c 8d 1e 
    e8e6:	c7 85 bc e5 ff ff 5c 	movl   $0x3b93b65c,-0x1a44(%rbp)
    e8ed:	b6 93 3b 
    e8f0:	c6 85 a7 de ff ff 00 	movb   $0x0,-0x2159(%rbp)
    e8f7:	c7 85 20 e2 ff ff ff 	movl   $0xffffffff,-0x1de0(%rbp)
    e8fe:	ff ff ff 
    e901:	0f b6 85 98 de ff ff 	movzbl -0x2168(%rbp),%eax
    e908:	0f b6 d8             	movzbl %al,%ebx
    e90b:	48 8b 05 76 96 01 00 	mov    0x19676(%rip),%rax        # 27f88 <g_829>
    e912:	0f b6 00             	movzbl (%rax),%eax
    e915:	44 0f be e0          	movsbl %al,%r12d
    e919:	44 0f b6 b5 9c de ff 	movzbl -0x2164(%rbp),%r14d
    e920:	ff 
    e921:	8b 85 d8 e1 ff ff    	mov    -0x1e28(%rbp),%eax
    e927:	44 0f b7 e8          	movzwl %ax,%r13d
    e92b:	8b 05 2f 52 01 00    	mov    0x1522f(%rip),%eax        # 23b60 <g_902>
    e931:	c1 e0 04             	shl    $0x4,%eax
    e934:	c1 f8 04             	sar    $0x4,%eax
    e937:	41 89 c7             	mov    %eax,%r15d
    e93a:	0f b7 05 e3 28 01 00 	movzwl 0x128e3(%rip),%eax        # 21224 <g_197>
    e941:	83 c0 01             	add    $0x1,%eax
    e944:	66 89 05 d9 28 01 00 	mov    %ax,0x128d9(%rip)        # 21224 <g_197>
    e94b:	0f b6 85 98 de ff ff 	movzbl -0x2168(%rbp),%eax
    e952:	66 98                	cbtw   
    e954:	0f b7 c0             	movzwl %ax,%eax
    e957:	be 01 00 00 00       	mov    $0x1,%esi
    e95c:	89 c7                	mov    %eax,%edi
    e95e:	e8 da b3 ff ff       	callq  9d3d <safe_mul_func_uint16_t_u_u>
    e963:	0f b7 d0             	movzwl %ax,%edx
    e966:	48 8b 05 6b 8e 01 00 	mov    0x18e6b(%rip),%rax        # 277d8 <g_557>
    e96d:	48 8b 00             	mov    (%rax),%rax
    e970:	48 8b 00             	mov    (%rax),%rax
    e973:	0f b7 00             	movzwl (%rax),%eax
    e976:	98                   	cwtl   
    e977:	39 c2                	cmp    %eax,%edx
    e979:	0f 9c c0             	setl   %al
    e97c:	0f b6 c0             	movzbl %al,%eax
    e97f:	44 89 fe             	mov    %r15d,%esi
    e982:	89 c7                	mov    %eax,%edi
    e984:	e8 58 ab ff ff       	callq  94e1 <safe_lshift_func_int16_t_s_u>
    e989:	0f b7 c0             	movzwl %ax,%eax
    e98c:	44 89 ee             	mov    %r13d,%esi
    e98f:	89 c7                	mov    %eax,%edi
    e991:	e8 69 b3 ff ff       	callq  9cff <safe_add_func_uint16_t_u_u>
    e996:	0f b7 c0             	movzwl %ax,%eax
    e999:	48 89 c7             	mov    %rax,%rdi
    e99c:	e8 78 b6 ff ff       	callq  a019 <safe_unary_minus_func_uint64_t_u>
    e9a1:	49 39 c6             	cmp    %rax,%r14
    e9a4:	0f 94 c0             	sete   %al
    e9a7:	0f b6 c0             	movzbl %al,%eax
    e9aa:	44 89 e6             	mov    %r12d,%esi
    e9ad:	89 c7                	mov    %eax,%edi
    e9af:	e8 b6 a8 ff ff       	callq  926a <safe_div_func_int8_t_s_s>
    e9b4:	84 c0                	test   %al,%al
    e9b6:	0f 95 c0             	setne  %al
    e9b9:	0f b6 c0             	movzbl %al,%eax
    e9bc:	89 de                	mov    %ebx,%esi
    e9be:	89 c7                	mov    %eax,%edi
    e9c0:	e8 b3 b1 ff ff       	callq  9b78 <safe_sub_func_uint8_t_u_u>
    e9c5:	84 c0                	test   %al,%al
    e9c7:	0f 84 25 05 00 00    	je     eef2 <func_58+0x1c31>
    e9cd:	c7 85 b0 e2 ff ff 01 	movl   $0x1,-0x1d50(%rbp)
    e9d4:	00 00 00 
    e9d7:	c7 85 b4 e2 ff ff b9 	movl   $0xec9758b9,-0x1d4c(%rbp)
    e9de:	58 97 ec 
    e9e1:	c7 85 b8 e2 ff ff 01 	movl   $0x1,-0x1d48(%rbp)
    e9e8:	00 00 00 
    e9eb:	c7 85 bc e2 ff ff b9 	movl   $0xec9758b9,-0x1d44(%rbp)
    e9f2:	58 97 ec 
    e9f5:	c7 85 c0 e2 ff ff 01 	movl   $0x1,-0x1d40(%rbp)
    e9fc:	00 00 00 
    e9ff:	c7 85 c4 e2 ff ff b9 	movl   $0xec9758b9,-0x1d3c(%rbp)
    ea06:	58 97 ec 
    ea09:	c7 85 c8 e2 ff ff 01 	movl   $0x1,-0x1d38(%rbp)
    ea10:	00 00 00 
    ea13:	c7 85 cc e2 ff ff b9 	movl   $0xec9758b9,-0x1d34(%rbp)
    ea1a:	58 97 ec 
    ea1d:	48 8d 85 90 e3 ff ff 	lea    -0x1c70(%rbp),%rax
    ea24:	48 83 c0 28          	add    $0x28,%rax
    ea28:	48 89 85 b0 e0 ff ff 	mov    %rax,-0x1f50(%rbp)
    ea2f:	48 8d 85 60 df ff ff 	lea    -0x20a0(%rbp),%rax
    ea36:	48 89 85 b8 e0 ff ff 	mov    %rax,-0x1f48(%rbp)
    ea3d:	48 8d 85 88 df ff ff 	lea    -0x2078(%rbp),%rax
    ea44:	48 89 85 c0 e0 ff ff 	mov    %rax,-0x1f40(%rbp)
    ea4b:	48 8d 85 b0 de ff ff 	lea    -0x2150(%rbp),%rax
    ea52:	48 89 85 c8 e0 ff ff 	mov    %rax,-0x1f38(%rbp)
    ea59:	48 8d 05 cc 25 01 00 	lea    0x125cc(%rip),%rax        # 2102c <g_3+0x4>
    ea60:	48 89 85 60 e7 ff ff 	mov    %rax,-0x18a0(%rbp)
    ea67:	48 c7 85 68 e7 ff ff 	movq   $0x0,-0x1898(%rbp)
    ea6e:	00 00 00 00 
    ea72:	48 8d 05 af 25 01 00 	lea    0x125af(%rip),%rax        # 21028 <g_3>
    ea79:	48 89 85 70 e7 ff ff 	mov    %rax,-0x1890(%rbp)
    ea80:	48 8d 05 a5 25 01 00 	lea    0x125a5(%rip),%rax        # 2102c <g_3+0x4>
    ea87:	48 89 85 78 e7 ff ff 	mov    %rax,-0x1888(%rbp)
    ea8e:	48 8d 85 d8 e1 ff ff 	lea    -0x1e28(%rbp),%rax
    ea95:	48 89 85 80 e7 ff ff 	mov    %rax,-0x1880(%rbp)
    ea9c:	48 8d 05 9d 3e 01 00 	lea    0x13e9d(%rip),%rax        # 22940 <g_742>
    eaa3:	48 89 85 88 e7 ff ff 	mov    %rax,-0x1878(%rbp)
    eaaa:	48 8d 85 b0 e2 ff ff 	lea    -0x1d50(%rbp),%rax
    eab1:	48 83 c0 14          	add    $0x14,%rax
    eab5:	48 89 85 90 e7 ff ff 	mov    %rax,-0x1870(%rbp)
    eabc:	48 8d 05 65 52 01 00 	lea    0x15265(%rip),%rax        # 23d28 <g_1050>
    eac3:	48 89 85 98 e7 ff ff 	mov    %rax,-0x1868(%rbp)
    eaca:	48 8d 85 b0 e2 ff ff 	lea    -0x1d50(%rbp),%rax
    ead1:	48 83 c0 0c          	add    $0xc,%rax
    ead5:	48 89 85 a0 e7 ff ff 	mov    %rax,-0x1860(%rbp)
    eadc:	48 8d 85 10 e2 ff ff 	lea    -0x1df0(%rbp),%rax
    eae3:	48 83 c0 10          	add    $0x10,%rax
    eae7:	48 89 85 a8 e7 ff ff 	mov    %rax,-0x1858(%rbp)
    eaee:	48 8d 85 10 e2 ff ff 	lea    -0x1df0(%rbp),%rax
    eaf5:	48 83 c0 10          	add    $0x10,%rax
    eaf9:	48 89 85 b0 e7 ff ff 	mov    %rax,-0x1850(%rbp)
    eb00:	48 8d 85 b0 e2 ff ff 	lea    -0x1d50(%rbp),%rax
    eb07:	48 83 c0 0c          	add    $0xc,%rax
    eb0b:	48 89 85 b8 e7 ff ff 	mov    %rax,-0x1848(%rbp)
    eb12:	48 8d 05 0f 52 01 00 	lea    0x1520f(%rip),%rax        # 23d28 <g_1050>
    eb19:	48 89 85 c0 e7 ff ff 	mov    %rax,-0x1840(%rbp)
    eb20:	48 8d 05 05 25 01 00 	lea    0x12505(%rip),%rax        # 2102c <g_3+0x4>
    eb27:	48 89 85 c8 e7 ff ff 	mov    %rax,-0x1838(%rbp)
    eb2e:	48 8d 05 f3 24 01 00 	lea    0x124f3(%rip),%rax        # 21028 <g_3>
    eb35:	48 89 85 d0 e7 ff ff 	mov    %rax,-0x1830(%rbp)
    eb3c:	48 8d 85 b0 e2 ff ff 	lea    -0x1d50(%rbp),%rax
    eb43:	48 83 c0 14          	add    $0x14,%rax
    eb47:	48 89 85 d8 e7 ff ff 	mov    %rax,-0x1828(%rbp)
    eb4e:	48 8d 85 10 e2 ff ff 	lea    -0x1df0(%rbp),%rax
    eb55:	48 83 c0 10          	add    $0x10,%rax
    eb59:	48 89 85 e0 e7 ff ff 	mov    %rax,-0x1820(%rbp)
    eb60:	48 8d 05 c5 24 01 00 	lea    0x124c5(%rip),%rax        # 2102c <g_3+0x4>
    eb67:	48 89 85 e8 e7 ff ff 	mov    %rax,-0x1818(%rbp)
    eb6e:	48 8d 85 10 e2 ff ff 	lea    -0x1df0(%rbp),%rax
    eb75:	48 89 85 f0 e7 ff ff 	mov    %rax,-0x1810(%rbp)
    eb7c:	48 c7 85 f8 e7 ff ff 	movq   $0x0,-0x1808(%rbp)
    eb83:	00 00 00 00 
    eb87:	48 8d 85 b0 e2 ff ff 	lea    -0x1d50(%rbp),%rax
    eb8e:	48 83 c0 0c          	add    $0xc,%rax
    eb92:	48 89 85 00 e8 ff ff 	mov    %rax,-0x1800(%rbp)
    eb99:	48 c7 85 08 e8 ff ff 	movq   $0x0,-0x17f8(%rbp)
    eba0:	00 00 00 00 
    eba4:	48 8d 85 d8 e1 ff ff 	lea    -0x1e28(%rbp),%rax
    ebab:	48 89 85 10 e8 ff ff 	mov    %rax,-0x17f0(%rbp)
    ebb2:	48 8d 05 6f 24 01 00 	lea    0x1246f(%rip),%rax        # 21028 <g_3>
    ebb9:	48 89 85 18 e8 ff ff 	mov    %rax,-0x17e8(%rbp)
    ebc0:	48 8d 05 61 51 01 00 	lea    0x15161(%rip),%rax        # 23d28 <g_1050>
    ebc7:	48 89 85 20 e8 ff ff 	mov    %rax,-0x17e0(%rbp)
    ebce:	48 8d 85 10 e2 ff ff 	lea    -0x1df0(%rbp),%rax
    ebd5:	48 83 c0 10          	add    $0x10,%rax
    ebd9:	48 89 85 28 e8 ff ff 	mov    %rax,-0x17d8(%rbp)
    ebe0:	48 8d 85 b0 e2 ff ff 	lea    -0x1d50(%rbp),%rax
    ebe7:	48 83 c0 0c          	add    $0xc,%rax
    ebeb:	48 89 85 30 e8 ff ff 	mov    %rax,-0x17d0(%rbp)
    ebf2:	48 8d 85 10 e2 ff ff 	lea    -0x1df0(%rbp),%rax
    ebf9:	48 83 c0 10          	add    $0x10,%rax
    ebfd:	48 89 85 38 e8 ff ff 	mov    %rax,-0x17c8(%rbp)
    ec04:	48 8d 85 10 e2 ff ff 	lea    -0x1df0(%rbp),%rax
    ec0b:	48 89 85 40 e8 ff ff 	mov    %rax,-0x17c0(%rbp)
    ec12:	48 8d 85 b0 e2 ff ff 	lea    -0x1d50(%rbp),%rax
    ec19:	48 83 c0 14          	add    $0x14,%rax
    ec1d:	48 89 85 48 e8 ff ff 	mov    %rax,-0x17b8(%rbp)
    ec24:	48 8d 85 b0 e2 ff ff 	lea    -0x1d50(%rbp),%rax
    ec2b:	48 83 c0 14          	add    $0x14,%rax
    ec2f:	48 89 85 50 e8 ff ff 	mov    %rax,-0x17b0(%rbp)
    ec36:	48 8d 85 10 e2 ff ff 	lea    -0x1df0(%rbp),%rax
    ec3d:	48 89 85 58 e8 ff ff 	mov    %rax,-0x17a8(%rbp)
    ec44:	48 c7 85 60 e8 ff ff 	movq   $0x0,-0x17a0(%rbp)
    ec4b:	00 00 00 00 
    ec4f:	48 8d 05 d6 23 01 00 	lea    0x123d6(%rip),%rax        # 2102c <g_3+0x4>
    ec56:	48 89 85 68 e8 ff ff 	mov    %rax,-0x1798(%rbp)
    ec5d:	48 8d 05 dc 3c 01 00 	lea    0x13cdc(%rip),%rax        # 22940 <g_742>
    ec64:	48 89 85 70 e8 ff ff 	mov    %rax,-0x1790(%rbp)
    ec6b:	48 8d 85 10 e2 ff ff 	lea    -0x1df0(%rbp),%rax
    ec72:	48 89 85 78 e8 ff ff 	mov    %rax,-0x1788(%rbp)
    ec79:	48 8d 85 b0 e2 ff ff 	lea    -0x1d50(%rbp),%rax
    ec80:	48 83 c0 0c          	add    $0xc,%rax
    ec84:	48 89 85 80 e8 ff ff 	mov    %rax,-0x1780(%rbp)
    ec8b:	48 8d 85 c8 de ff ff 	lea    -0x2138(%rbp),%rax
    ec92:	48 89 85 88 e8 ff ff 	mov    %rax,-0x1778(%rbp)
    ec99:	48 8d 85 d8 e1 ff ff 	lea    -0x1e28(%rbp),%rax
    eca0:	48 89 85 90 e8 ff ff 	mov    %rax,-0x1770(%rbp)
    eca7:	48 8d 85 c0 de ff ff 	lea    -0x2140(%rbp),%rax
    ecae:	48 89 85 98 e8 ff ff 	mov    %rax,-0x1768(%rbp)
    ecb5:	48 8d 05 70 23 01 00 	lea    0x12370(%rip),%rax        # 2102c <g_3+0x4>
    ecbc:	48 89 85 a0 e8 ff ff 	mov    %rax,-0x1760(%rbp)
    ecc3:	48 8d 85 10 e2 ff ff 	lea    -0x1df0(%rbp),%rax
    ecca:	48 83 c0 10          	add    $0x10,%rax
    ecce:	48 89 85 a8 e8 ff ff 	mov    %rax,-0x1758(%rbp)
    ecd5:	48 c7 85 b0 e8 ff ff 	movq   $0x0,-0x1750(%rbp)
    ecdc:	00 00 00 00 
    ece0:	48 c7 85 b8 e8 ff ff 	movq   $0x0,-0x1748(%rbp)
    ece7:	00 00 00 00 
    eceb:	48 8d 05 4e 3c 01 00 	lea    0x13c4e(%rip),%rax        # 22940 <g_742>
    ecf2:	48 89 85 c0 e8 ff ff 	mov    %rax,-0x1740(%rbp)
    ecf9:	48 8d 05 2c 23 01 00 	lea    0x1232c(%rip),%rax        # 2102c <g_3+0x4>
    ed00:	48 89 85 c8 e8 ff ff 	mov    %rax,-0x1738(%rbp)
    ed07:	48 8d 05 1a 23 01 00 	lea    0x1231a(%rip),%rax        # 21028 <g_3>
    ed0e:	48 89 85 d0 e8 ff ff 	mov    %rax,-0x1730(%rbp)
    ed15:	48 8d 05 10 23 01 00 	lea    0x12310(%rip),%rax        # 2102c <g_3+0x4>
    ed1c:	48 89 85 d8 e8 ff ff 	mov    %rax,-0x1728(%rbp)
    ed23:	48 8d 05 16 3c 01 00 	lea    0x13c16(%rip),%rax        # 22940 <g_742>
    ed2a:	48 89 85 e0 e8 ff ff 	mov    %rax,-0x1720(%rbp)
    ed31:	c7 85 f8 de ff ff 00 	movl   $0x0,-0x2108(%rbp)
    ed38:	00 00 00 
    ed3b:	eb 1e                	jmp    ed5b <func_58+0x1a9a>
    ed3d:	8b 85 f8 de ff ff    	mov    -0x2108(%rbp),%eax
    ed43:	48 98                	cltq   
    ed45:	48 8d 15 e4 28 01 00 	lea    0x128e4(%rip),%rdx        # 21630 <g_442>
    ed4c:	48 89 94 c5 90 e3 ff 	mov    %rdx,-0x1c70(%rbp,%rax,8)
    ed53:	ff 
    ed54:	83 85 f8 de ff ff 01 	addl   $0x1,-0x2108(%rbp)
    ed5b:	83 bd f8 de ff ff 06 	cmpl   $0x6,-0x2108(%rbp)
    ed62:	7e d9                	jle    ed3d <func_58+0x1a7c>
    ed64:	48 8b 05 2d 92 01 00 	mov    0x1922d(%rip),%rax        # 27f98 <g_827>
    ed6b:	48 8b 00             	mov    (%rax),%rax
    ed6e:	48 8b 00             	mov    (%rax),%rax
    ed71:	0f b6 00             	movzbl (%rax),%eax
    ed74:	0f be c0             	movsbl %al,%eax
    ed77:	89 c6                	mov    %eax,%esi
    ed79:	bf f6 00 00 00       	mov    $0xf6,%edi
    ed7e:	e8 0a af ff ff       	callq  9c8d <safe_rshift_func_uint8_t_u_s>
    ed83:	48 8b 95 b8 e0 ff ff 	mov    -0x1f48(%rbp),%rdx
    ed8a:	48 8b 12             	mov    (%rdx),%rdx
    ed8d:	48 89 d1             	mov    %rdx,%rcx
    ed90:	48 ba 6a 2b b8 11 66 	movabs $0xea8a6d6611b82b6a,%rdx
    ed97:	6d 8a ea 
    ed9a:	48 09 ca             	or     %rcx,%rdx
    ed9d:	48 89 d1             	mov    %rdx,%rcx
    eda0:	48 8b 95 b8 e0 ff ff 	mov    -0x1f48(%rbp),%rdx
    eda7:	48 89 0a             	mov    %rcx,(%rdx)
    edaa:	48 8b 95 b8 e0 ff ff 	mov    -0x1f48(%rbp),%rdx
    edb1:	48 8b 12             	mov    (%rdx),%rdx
    edb4:	0f b6 c8             	movzbl %al,%ecx
    edb7:	8b 05 6b 4f 01 00    	mov    0x14f6b(%rip),%eax        # 23d28 <g_1050>
    edbd:	21 c8                	and    %ecx,%eax
    edbf:	89 05 63 4f 01 00    	mov    %eax,0x14f63(%rip)        # 23d28 <g_1050>
    edc5:	8b 05 5d 4f 01 00    	mov    0x14f5d(%rip),%eax        # 23d28 <g_1050>
    edcb:	48 98                	cltq   
    edcd:	48 39 c2             	cmp    %rax,%rdx
    edd0:	0f 95 c0             	setne  %al
    edd3:	0f b6 c0             	movzbl %al,%eax
    edd6:	be 02 00 00 00       	mov    $0x2,%esi
    eddb:	89 c7                	mov    %eax,%edi
    eddd:	e8 f2 a3 ff ff       	callq  91d4 <safe_add_func_int8_t_s_s>
    ede2:	66 98                	cbtw   
    ede4:	0f b7 d8             	movzwl %ax,%ebx
    ede7:	48 8d 3d 3e 22 01 00 	lea    0x1223e(%rip),%rdi        # 2102c <g_3+0x4>
    edee:	e8 df 4c 00 00       	callq  13ad2 <func_78>
    edf3:	8b 05 1f 29 01 00    	mov    0x1291f(%rip),%eax        # 21718 <g_443+0xb8>
    edf9:	c1 e0 05             	shl    $0x5,%eax
    edfc:	c1 f8 0d             	sar    $0xd,%eax
    edff:	89 c2                	mov    %eax,%edx
    ee01:	48 83 bd b0 e0 ff ff 	cmpq   $0x0,-0x1f50(%rbp)
    ee08:	00 
    ee09:	0f 94 c0             	sete   %al
    ee0c:	0f b6 c0             	movzbl %al,%eax
    ee0f:	21 d0                	and    %edx,%eax
    ee11:	0f b7 d0             	movzwl %ax,%edx
    ee14:	0f b6 85 9c de ff ff 	movzbl -0x2164(%rbp),%eax
    ee1b:	89 d6                	mov    %edx,%esi
    ee1d:	89 c7                	mov    %eax,%edi
    ee1f:	e8 19 af ff ff       	callq  9d3d <safe_mul_func_uint16_t_u_u>
    ee24:	0f be d0             	movsbl %al,%edx
    ee27:	8b 85 bc e2 ff ff    	mov    -0x1d44(%rbp),%eax
    ee2d:	89 85 c8 de ff ff    	mov    %eax,-0x2138(%rbp)
    ee33:	8b 85 c8 de ff ff    	mov    -0x2138(%rbp),%eax
    ee39:	0f be c0             	movsbl %al,%eax
    ee3c:	89 d6                	mov    %edx,%esi
    ee3e:	89 c7                	mov    %eax,%edi
    ee40:	e8 25 a4 ff ff       	callq  926a <safe_div_func_int8_t_s_s>
    ee45:	0f b6 c0             	movzbl %al,%eax
    ee48:	be 02 00 00 00       	mov    $0x2,%esi
    ee4d:	89 c7                	mov    %eax,%edi
    ee4f:	e8 39 ae ff ff       	callq  9c8d <safe_rshift_func_uint8_t_u_s>
    ee54:	0f b6 c0             	movzbl %al,%eax
    ee57:	48 89 c7             	mov    %rax,%rdi
    ee5a:	e8 ba b1 ff ff       	callq  a019 <safe_unary_minus_func_uint64_t_u>
    ee5f:	0f b7 c0             	movzwl %ax,%eax
    ee62:	89 de                	mov    %ebx,%esi
    ee64:	89 c7                	mov    %eax,%edi
    ee66:	e8 23 af ff ff       	callq  9d8e <safe_div_func_uint16_t_u_u>
    ee6b:	0f b7 c0             	movzwl %ax,%eax
    ee6e:	48 89 85 a0 df ff ff 	mov    %rax,-0x2060(%rbp)
    ee75:	48 8b 95 a0 df ff ff 	mov    -0x2060(%rbp),%rdx
    ee7c:	48 8b 85 88 de ff ff 	mov    -0x2178(%rbp),%rax
    ee83:	8b 00                	mov    (%rax),%eax
    ee85:	48 98                	cltq   
    ee87:	48 39 c2             	cmp    %rax,%rdx
    ee8a:	0f 9f c2             	setg   %dl
    ee8d:	48 8b 05 1c 91 01 00 	mov    0x1911c(%rip),%rax        # 27fb0 <g_1052>
    ee94:	0f b6 d2             	movzbl %dl,%edx
    ee97:	89 10                	mov    %edx,(%rax)
    ee99:	8b 85 c8 de ff ff    	mov    -0x2138(%rbp),%eax
    ee9f:	85 c0                	test   %eax,%eax
    eea1:	90                   	nop
    eea2:	f3 0f 1e fa          	endbr64 
    eea6:	48 8b 85 c0 e0 ff ff 	mov    -0x1f40(%rbp),%rax
    eead:	48 8d 15 ec 38 01 00 	lea    0x138ec(%rip),%rdx        # 227a0 <g_505>
    eeb4:	48 89 10             	mov    %rdx,(%rax)
    eeb7:	8b 05 3b 3c 01 00    	mov    0x13c3b(%rip),%eax        # 22af8 <g_876+0x8>
    eebd:	c1 e0 03             	shl    $0x3,%eax
    eec0:	c1 f8 03             	sar    $0x3,%eax
    eec3:	0f b7 c0             	movzwl %ax,%eax
    eec6:	be 03 00 00 00       	mov    $0x3,%esi
    eecb:	89 c7                	mov    %eax,%edi
    eecd:	e8 34 af ff ff       	callq  9e06 <safe_lshift_func_uint16_t_u_u>
    eed2:	48 8b 15 27 88 01 00 	mov    0x18827(%rip),%rdx        # 27700 <g_106>
    eed9:	8b 0a                	mov    (%rdx),%ecx
    eedb:	0f b7 d0             	movzwl %ax,%edx
    eede:	48 8b 05 1b 88 01 00 	mov    0x1881b(%rip),%rax        # 27700 <g_106>
    eee5:	09 ca                	or     %ecx,%edx
    eee7:	89 10                	mov    %edx,(%rax)
    eee9:	80 85 a7 de ff ff 01 	addb   $0x1,-0x2159(%rbp)
    eef0:	eb 14                	jmp    ef06 <func_58+0x1c45>
    eef2:	8b 05 18 39 01 00    	mov    0x13918(%rip),%eax        # 22810 <g_525>
    eef8:	25 ff ff ff 03       	and    $0x3ffffff,%eax
    eefd:	85 c0                	test   %eax,%eax
    eeff:	74 05                	je     ef06 <func_58+0x1c45>
    ef01:	e9 f1 f9 ff ff       	jmpq   e8f7 <func_58+0x1636>
    ef06:	8b 85 20 df ff ff    	mov    -0x20e0(%rbp),%eax
    ef0c:	66 89 05 2f 22 01 00 	mov    %ax,0x1222f(%rip)        # 21142 <g_180>
    ef13:	0f b7 05 28 22 01 00 	movzwl 0x12228(%rip),%eax        # 21142 <g_180>
    ef1a:	66 85 c0             	test   %ax,%ax
    ef1d:	0f 94 c0             	sete   %al
    ef20:	0f b6 c0             	movzbl %al,%eax
    ef23:	89 85 cc de ff ff    	mov    %eax,-0x2134(%rbp)
    ef29:	eb 19                	jmp    ef44 <func_58+0x1c83>
    ef2b:	48 c7 85 a8 e0 ff ff 	movq   $0x0,-0x1f58(%rbp)
    ef32:	00 00 00 00 
    ef36:	48 8d 85 cc de ff ff 	lea    -0x2134(%rbp),%rax
    ef3d:	48 89 85 78 df ff ff 	mov    %rax,-0x2088(%rbp)
    ef44:	0f b6 85 98 de ff ff 	movzbl -0x2168(%rbp),%eax
    ef4b:	0f be d0             	movsbl %al,%edx
    ef4e:	8b 85 b0 de ff ff    	mov    -0x2150(%rbp),%eax
    ef54:	21 d0                	and    %edx,%eax
    ef56:	48 98                	cltq   
    ef58:	48 39 85 90 de ff ff 	cmp    %rax,-0x2170(%rbp)
    ef5f:	0f 94 c0             	sete   %al
    ef62:	0f b6 c0             	movzbl %al,%eax
    ef65:	be 05 00 00 00       	mov    $0x5,%esi
    ef6a:	89 c7                	mov    %eax,%edi
    ef6c:	e8 b9 a5 ff ff       	callq  952a <safe_rshift_func_int16_t_s_s>
    ef71:	89 c2                	mov    %eax,%edx
    ef73:	48 8b 85 30 e0 ff ff 	mov    -0x1fd0(%rbp),%rax
    ef7a:	48 8b 00             	mov    (%rax),%rax
    ef7d:	48 8b 00             	mov    (%rax),%rax
    ef80:	48 8b 00             	mov    (%rax),%rax
    ef83:	88 10                	mov    %dl,(%rax)
    ef85:	0f b6 00             	movzbl (%rax),%eax
    ef88:	84 c0                	test   %al,%al
    ef8a:	75 0d                	jne    ef99 <func_58+0x1cd8>
    ef8c:	48 8b 85 78 df ff ff 	mov    -0x2088(%rbp),%rax
    ef93:	8b 00                	mov    (%rax),%eax
    ef95:	85 c0                	test   %eax,%eax
    ef97:	74 12                	je     efab <func_58+0x1cea>
    ef99:	48 8b 85 78 df ff ff 	mov    -0x2088(%rbp),%rax
    efa0:	c7 00 ff ff ff ff    	movl   $0xffffffff,(%rax)
    efa6:	e9 dd 25 00 00       	jmpq   11588 <func_58+0x42c7>
    efab:	48 8d 85 88 df ff ff 	lea    -0x2078(%rbp),%rax
    efb2:	48 89 85 a8 df ff ff 	mov    %rax,-0x2058(%rbp)
    efb9:	c7 85 44 df ff ff 09 	movl   $0x9,-0x20bc(%rbp)
    efc0:	00 00 00 
    efc3:	c7 85 90 e4 ff ff 00 	movl   $0x0,-0x1b70(%rbp)
    efca:	00 00 00 
    efcd:	c7 85 94 e4 ff ff ff 	movl   $0xffffffff,-0x1b6c(%rbp)
    efd4:	ff ff ff 
    efd7:	c7 85 98 e4 ff ff ff 	movl   $0xffffffff,-0x1b68(%rbp)
    efde:	ff ff ff 
    efe1:	c7 85 9c e4 ff ff 00 	movl   $0x0,-0x1b64(%rbp)
    efe8:	00 00 00 
    efeb:	c7 85 a0 e4 ff ff ff 	movl   $0xffffffff,-0x1b60(%rbp)
    eff2:	ff ff ff 
    eff5:	c7 85 a4 e4 ff ff ff 	movl   $0xffffffff,-0x1b5c(%rbp)
    effc:	ff ff ff 
    efff:	c7 85 a8 e4 ff ff 00 	movl   $0x0,-0x1b58(%rbp)
    f006:	00 00 00 
    f009:	c7 85 ac e4 ff ff ff 	movl   $0xffffffff,-0x1b54(%rbp)
    f010:	ff ff ff 
    f013:	48 8d 05 02 22 01 00 	lea    0x12202(%rip),%rax        # 2121c <g_185+0x4>
    f01a:	48 89 85 b0 df ff ff 	mov    %rax,-0x2050(%rbp)
    f021:	48 8d 85 b0 df ff ff 	lea    -0x2050(%rbp),%rax
    f028:	48 89 85 b8 df ff ff 	mov    %rax,-0x2048(%rbp)
    f02f:	c7 85 fc de ff ff 00 	movl   $0x0,-0x2104(%rbp)
    f036:	00 00 00 
    f039:	eb 1e                	jmp    f059 <func_58+0x1d98>
    f03b:	8b 85 fc de ff ff    	mov    -0x2104(%rbp),%eax
    f041:	48 98                	cltq   
    f043:	48 8d 95 b8 df ff ff 	lea    -0x2048(%rbp),%rdx
    f04a:	48 89 94 c5 90 e3 ff 	mov    %rdx,-0x1c70(%rbp,%rax,8)
    f051:	ff 
    f052:	83 85 fc de ff ff 01 	addl   $0x1,-0x2104(%rbp)
    f059:	83 bd fc de ff ff 01 	cmpl   $0x1,-0x2104(%rbp)
    f060:	7e d9                	jle    f03b <func_58+0x1d7a>
    f062:	8b 85 38 eb ff ff    	mov    -0x14c8(%rbp),%eax
    f068:	48 63 d0             	movslq %eax,%rdx
    f06b:	0f b6 05 d2 28 01 00 	movzbl 0x128d2(%rip),%eax        # 21944 <g_451+0x4>
    f072:	48 0f be c0          	movsbq %al,%rax
    f076:	48 89 d6             	mov    %rdx,%rsi
    f079:	48 89 c7             	mov    %rax,%rdi
    f07c:	e8 ad af ff ff       	callq  a02e <safe_add_func_uint64_t_u_u>
    f081:	48 89 c3             	mov    %rax,%rbx
    f084:	8b 85 dc de ff ff    	mov    -0x2124(%rbp),%eax
    f08a:	f7 d0                	not    %eax
    f08c:	89 c7                	mov    %eax,%edi
    f08e:	e8 03 a5 ff ff       	callq  9596 <safe_unary_minus_func_int32_t_s>
    f093:	48 98                	cltq   
    f095:	48 89 c6             	mov    %rax,%rsi
    f098:	bf 01 00 00 00       	mov    $0x1,%edi
    f09d:	e8 a9 af ff ff       	callq  a04b <safe_sub_func_uint64_t_u_u>
    f0a2:	48 39 c3             	cmp    %rax,%rbx
    f0a5:	0f 85 00 03 00 00    	jne    f3ab <func_58+0x20ea>
    f0ab:	48 8d 85 a8 df ff ff 	lea    -0x2058(%rbp),%rax
    f0b2:	48 89 85 30 e5 ff ff 	mov    %rax,-0x1ad0(%rbp)
    f0b9:	48 8d 85 a8 df ff ff 	lea    -0x2058(%rbp),%rax
    f0c0:	48 89 85 38 e5 ff ff 	mov    %rax,-0x1ac8(%rbp)
    f0c7:	48 8d 85 a8 df ff ff 	lea    -0x2058(%rbp),%rax
    f0ce:	48 89 85 40 e5 ff ff 	mov    %rax,-0x1ac0(%rbp)
    f0d5:	48 8d 85 a8 df ff ff 	lea    -0x2058(%rbp),%rax
    f0dc:	48 89 85 48 e5 ff ff 	mov    %rax,-0x1ab8(%rbp)
    f0e3:	48 8d 85 a8 df ff ff 	lea    -0x2058(%rbp),%rax
    f0ea:	48 89 85 50 e5 ff ff 	mov    %rax,-0x1ab0(%rbp)
    f0f1:	48 8d 85 a8 df ff ff 	lea    -0x2058(%rbp),%rax
    f0f8:	48 89 85 58 e5 ff ff 	mov    %rax,-0x1aa8(%rbp)
    f0ff:	48 8d 85 b0 ea ff ff 	lea    -0x1550(%rbp),%rax
    f106:	48 05 88 01 00 00    	add    $0x188,%rax
    f10c:	48 89 85 f8 e0 ff ff 	mov    %rax,-0x1f08(%rbp)
    f113:	48 8d 85 d8 de ff ff 	lea    -0x2128(%rbp),%rax
    f11a:	48 89 85 00 e1 ff ff 	mov    %rax,-0x1f00(%rbp)
    f121:	48 8d 85 cc de ff ff 	lea    -0x2134(%rbp),%rax
    f128:	48 89 85 08 e1 ff ff 	mov    %rax,-0x1ef8(%rbp)
    f12f:	48 8d 85 e8 e1 ff ff 	lea    -0x1e18(%rbp),%rax
    f136:	48 89 85 10 e1 ff ff 	mov    %rax,-0x1ef0(%rbp)
    f13d:	48 8d 85 e8 e1 ff ff 	lea    -0x1e18(%rbp),%rax
    f144:	48 83 c0 04          	add    $0x4,%rax
    f148:	48 89 85 18 e1 ff ff 	mov    %rax,-0x1ee8(%rbp)
    f14f:	48 8d 85 e8 e1 ff ff 	lea    -0x1e18(%rbp),%rax
    f156:	48 89 85 20 e1 ff ff 	mov    %rax,-0x1ee0(%rbp)
    f15d:	48 8d 05 dc 37 01 00 	lea    0x137dc(%rip),%rax        # 22940 <g_742>
    f164:	48 89 85 28 e1 ff ff 	mov    %rax,-0x1ed8(%rbp)
    f16b:	48 c7 85 30 e1 ff ff 	movq   $0x0,-0x1ed0(%rbp)
    f172:	00 00 00 00 
    f176:	48 8d 85 dc de ff ff 	lea    -0x2124(%rbp),%rax
    f17d:	48 89 85 38 e1 ff ff 	mov    %rax,-0x1ec8(%rbp)
    f184:	48 8d 85 cc de ff ff 	lea    -0x2134(%rbp),%rax
    f18b:	48 89 85 40 e1 ff ff 	mov    %rax,-0x1ec0(%rbp)
    f192:	48 8d 85 10 e2 ff ff 	lea    -0x1df0(%rbp),%rax
    f199:	48 83 c0 10          	add    $0x10,%rax
    f19d:	48 89 85 48 e1 ff ff 	mov    %rax,-0x1eb8(%rbp)
    f1a4:	48 c7 85 60 e7 ff ff 	movq   $0x0,-0x18a0(%rbp)
    f1ab:	00 00 00 00 
    f1af:	48 8d 85 b8 de ff ff 	lea    -0x2148(%rbp),%rax
    f1b6:	48 89 85 68 e7 ff ff 	mov    %rax,-0x1898(%rbp)
    f1bd:	48 8d 85 e0 de ff ff 	lea    -0x2120(%rbp),%rax
    f1c4:	48 89 85 70 e7 ff ff 	mov    %rax,-0x1890(%rbp)
    f1cb:	48 8d 85 b8 de ff ff 	lea    -0x2148(%rbp),%rax
    f1d2:	48 89 85 78 e7 ff ff 	mov    %rax,-0x1888(%rbp)
    f1d9:	48 c7 85 80 e7 ff ff 	movq   $0x0,-0x1880(%rbp)
    f1e0:	00 00 00 00 
    f1e4:	48 8d 85 e0 de ff ff 	lea    -0x2120(%rbp),%rax
    f1eb:	48 89 85 88 e7 ff ff 	mov    %rax,-0x1878(%rbp)
    f1f2:	48 c7 85 90 e7 ff ff 	movq   $0x0,-0x1870(%rbp)
    f1f9:	00 00 00 00 
    f1fd:	48 c7 85 98 e7 ff ff 	movq   $0x0,-0x1868(%rbp)
    f204:	00 00 00 00 
    f208:	48 8d 85 e0 de ff ff 	lea    -0x2120(%rbp),%rax
    f20f:	48 89 85 a0 e7 ff ff 	mov    %rax,-0x1860(%rbp)
    f216:	48 c7 85 a8 e7 ff ff 	movq   $0x0,-0x1858(%rbp)
    f21d:	00 00 00 00 
    f221:	48 8d 85 d4 de ff ff 	lea    -0x212c(%rbp),%rax
    f228:	48 89 85 b0 e7 ff ff 	mov    %rax,-0x1850(%rbp)
    f22f:	48 8d 85 d0 de ff ff 	lea    -0x2130(%rbp),%rax
    f236:	48 89 85 b8 e7 ff ff 	mov    %rax,-0x1848(%rbp)
    f23d:	48 8d 85 d4 de ff ff 	lea    -0x212c(%rbp),%rax
    f244:	48 89 85 c0 e7 ff ff 	mov    %rax,-0x1840(%rbp)
    f24b:	48 c7 85 c8 e7 ff ff 	movq   $0x0,-0x1838(%rbp)
    f252:	00 00 00 00 
    f256:	48 8d 85 d0 de ff ff 	lea    -0x2130(%rbp),%rax
    f25d:	48 89 85 d0 e7 ff ff 	mov    %rax,-0x1830(%rbp)
    f264:	48 8d 05 d5 36 01 00 	lea    0x136d5(%rip),%rax        # 22940 <g_742>
    f26b:	48 89 85 d8 e7 ff ff 	mov    %rax,-0x1828(%rbp)
    f272:	48 8d 05 c7 36 01 00 	lea    0x136c7(%rip),%rax        # 22940 <g_742>
    f279:	48 89 85 e0 e7 ff ff 	mov    %rax,-0x1820(%rbp)
    f280:	48 8d 85 d0 de ff ff 	lea    -0x2130(%rbp),%rax
    f287:	48 89 85 e8 e7 ff ff 	mov    %rax,-0x1818(%rbp)
    f28e:	48 c7 85 f0 e7 ff ff 	movq   $0x0,-0x1810(%rbp)
    f295:	00 00 00 00 
    f299:	48 8d 85 b8 de ff ff 	lea    -0x2148(%rbp),%rax
    f2a0:	48 89 85 f8 e7 ff ff 	mov    %rax,-0x1808(%rbp)
    f2a7:	48 8d 85 e0 de ff ff 	lea    -0x2120(%rbp),%rax
    f2ae:	48 89 85 00 e8 ff ff 	mov    %rax,-0x1800(%rbp)
    f2b5:	48 8d 85 b8 de ff ff 	lea    -0x2148(%rbp),%rax
    f2bc:	48 89 85 08 e8 ff ff 	mov    %rax,-0x17f8(%rbp)
    f2c3:	48 c7 85 10 e8 ff ff 	movq   $0x0,-0x17f0(%rbp)
    f2ca:	00 00 00 00 
    f2ce:	48 8d 85 e0 de ff ff 	lea    -0x2120(%rbp),%rax
    f2d5:	48 89 85 18 e8 ff ff 	mov    %rax,-0x17e8(%rbp)
    f2dc:	48 c7 85 20 e8 ff ff 	movq   $0x0,-0x17e0(%rbp)
    f2e3:	00 00 00 00 
    f2e7:	48 c7 85 28 e8 ff ff 	movq   $0x0,-0x17d8(%rbp)
    f2ee:	00 00 00 00 
    f2f2:	48 8d 85 e0 de ff ff 	lea    -0x2120(%rbp),%rax
    f2f9:	48 89 85 30 e8 ff ff 	mov    %rax,-0x17d0(%rbp)
    f300:	48 c7 85 38 e8 ff ff 	movq   $0x0,-0x17c8(%rbp)
    f307:	00 00 00 00 
    f30b:	48 8d 85 d4 de ff ff 	lea    -0x212c(%rbp),%rax
    f312:	48 89 85 40 e8 ff ff 	mov    %rax,-0x17c0(%rbp)
    f319:	48 8d 85 d0 de ff ff 	lea    -0x2130(%rbp),%rax
    f320:	48 89 85 48 e8 ff ff 	mov    %rax,-0x17b8(%rbp)
    f327:	48 8d 85 d4 de ff ff 	lea    -0x212c(%rbp),%rax
    f32e:	48 89 85 50 e8 ff ff 	mov    %rax,-0x17b0(%rbp)
    f335:	48 c7 85 58 e8 ff ff 	movq   $0x0,-0x17a8(%rbp)
    f33c:	00 00 00 00 
    f340:	48 8d 85 d0 de ff ff 	lea    -0x2130(%rbp),%rax
    f347:	48 89 85 60 e8 ff ff 	mov    %rax,-0x17a0(%rbp)
    f34e:	48 8d 05 eb 35 01 00 	lea    0x135eb(%rip),%rax        # 22940 <g_742>
    f355:	48 89 85 68 e8 ff ff 	mov    %rax,-0x1798(%rbp)
    f35c:	48 8d 05 dd 35 01 00 	lea    0x135dd(%rip),%rax        # 22940 <g_742>
    f363:	48 89 85 70 e8 ff ff 	mov    %rax,-0x1790(%rbp)
    f36a:	48 8d 85 d0 de ff ff 	lea    -0x2130(%rbp),%rax
    f371:	48 89 85 78 e8 ff ff 	mov    %rax,-0x1788(%rbp)
    f378:	48 8b 85 a8 df ff ff 	mov    -0x2058(%rbp),%rax
    f37f:	48 89 05 3a 8c 01 00 	mov    %rax,0x18c3a(%rip)        # 27fc0 <g_1099>
    f386:	48 8b 05 33 8c 01 00 	mov    0x18c33(%rip),%rax        # 27fc0 <g_1099>
    f38d:	48 89 85 80 df ff ff 	mov    %rax,-0x2080(%rbp)
    f394:	48 8b 05 95 49 01 00 	mov    0x14995(%rip),%rax        # 23d30 <g_1118>
    f39b:	48 83 c0 01          	add    $0x1,%rax
    f39f:	48 89 05 8a 49 01 00 	mov    %rax,0x1498a(%rip)        # 23d30 <g_1118>
    f3a6:	e9 dd 21 00 00       	jmpq   11588 <func_58+0x42c7>
    f3ab:	48 8d 85 b8 de ff ff 	lea    -0x2148(%rbp),%rax
    f3b2:	48 89 85 d0 e0 ff ff 	mov    %rax,-0x1f30(%rbp)
    f3b9:	48 8d 85 78 df ff ff 	lea    -0x2088(%rbp),%rax
    f3c0:	48 89 85 d8 e0 ff ff 	mov    %rax,-0x1f28(%rbp)
    f3c7:	c6 85 60 e7 ff ff 78 	movb   $0x78,-0x18a0(%rbp)
    f3ce:	c6 85 61 e7 ff ff 08 	movb   $0x8,-0x189f(%rbp)
    f3d5:	c7 85 64 e7 ff ff 00 	movl   $0x0,-0x189c(%rbp)
    f3dc:	00 00 00 
    f3df:	66 c7 85 68 e7 ff ff 	movw   $0x7,-0x1898(%rbp)
    f3e6:	07 00 
    f3e8:	c6 85 6c e7 ff ff 78 	movb   $0x78,-0x1894(%rbp)
    f3ef:	c6 85 6d e7 ff ff 08 	movb   $0x8,-0x1893(%rbp)
    f3f6:	c7 85 70 e7 ff ff 00 	movl   $0x0,-0x1890(%rbp)
    f3fd:	00 00 00 
    f400:	66 c7 85 74 e7 ff ff 	movw   $0x7,-0x188c(%rbp)
    f407:	07 00 
    f409:	c6 85 78 e7 ff ff 78 	movb   $0x78,-0x1888(%rbp)
    f410:	c6 85 79 e7 ff ff 08 	movb   $0x8,-0x1887(%rbp)
    f417:	c7 85 7c e7 ff ff 00 	movl   $0x0,-0x1884(%rbp)
    f41e:	00 00 00 
    f421:	66 c7 85 80 e7 ff ff 	movw   $0x7,-0x1880(%rbp)
    f428:	07 00 
    f42a:	c6 85 84 e7 ff ff 78 	movb   $0x78,-0x187c(%rbp)
    f431:	c6 85 85 e7 ff ff 08 	movb   $0x8,-0x187b(%rbp)
    f438:	c7 85 88 e7 ff ff 00 	movl   $0x0,-0x1878(%rbp)
    f43f:	00 00 00 
    f442:	66 c7 85 8c e7 ff ff 	movw   $0x7,-0x1874(%rbp)
    f449:	07 00 
    f44b:	c6 85 90 e7 ff ff 78 	movb   $0x78,-0x1870(%rbp)
    f452:	c6 85 91 e7 ff ff 08 	movb   $0x8,-0x186f(%rbp)
    f459:	c7 85 94 e7 ff ff 00 	movl   $0x0,-0x186c(%rbp)
    f460:	00 00 00 
    f463:	66 c7 85 98 e7 ff ff 	movw   $0x7,-0x1868(%rbp)
    f46a:	07 00 
    f46c:	c6 85 9c e7 ff ff 78 	movb   $0x78,-0x1864(%rbp)
    f473:	c6 85 9d e7 ff ff 08 	movb   $0x8,-0x1863(%rbp)
    f47a:	c7 85 a0 e7 ff ff 00 	movl   $0x0,-0x1860(%rbp)
    f481:	00 00 00 
    f484:	66 c7 85 a4 e7 ff ff 	movw   $0x7,-0x185c(%rbp)
    f48b:	07 00 
    f48d:	c6 85 a8 e7 ff ff 78 	movb   $0x78,-0x1858(%rbp)
    f494:	c6 85 a9 e7 ff ff 08 	movb   $0x8,-0x1857(%rbp)
    f49b:	c7 85 ac e7 ff ff 00 	movl   $0x0,-0x1854(%rbp)
    f4a2:	00 00 00 
    f4a5:	66 c7 85 b0 e7 ff ff 	movw   $0x7,-0x1850(%rbp)
    f4ac:	07 00 
    f4ae:	c6 85 b4 e7 ff ff 78 	movb   $0x78,-0x184c(%rbp)
    f4b5:	c6 85 b5 e7 ff ff 08 	movb   $0x8,-0x184b(%rbp)
    f4bc:	c7 85 b8 e7 ff ff 00 	movl   $0x0,-0x1848(%rbp)
    f4c3:	00 00 00 
    f4c6:	66 c7 85 bc e7 ff ff 	movw   $0x7,-0x1844(%rbp)
    f4cd:	07 00 
    f4cf:	48 8d 05 f2 35 01 00 	lea    0x135f2(%rip),%rax        # 22ac8 <g_843>
    f4d6:	48 89 85 e0 e0 ff ff 	mov    %rax,-0x1f20(%rbp)
    f4dd:	48 8d 85 80 df ff ff 	lea    -0x2080(%rbp),%rax
    f4e4:	48 89 85 e8 e0 ff ff 	mov    %rax,-0x1f18(%rbp)
    f4eb:	48 8d 85 80 df ff ff 	lea    -0x2080(%rbp),%rax
    f4f2:	48 89 85 d8 e1 ff ff 	mov    %rax,-0x1e28(%rbp)
    f4f9:	48 8d 85 d8 e1 ff ff 	lea    -0x1e28(%rbp),%rax
    f500:	48 89 85 f0 e0 ff ff 	mov    %rax,-0x1f10(%rbp)
    f507:	48 8d 85 60 df ff ff 	lea    -0x20a0(%rbp),%rax
    f50e:	48 89 85 30 e5 ff ff 	mov    %rax,-0x1ad0(%rbp)
    f515:	48 8d 85 60 df ff ff 	lea    -0x20a0(%rbp),%rax
    f51c:	48 89 85 38 e5 ff ff 	mov    %rax,-0x1ac8(%rbp)
    f523:	48 8d 85 a0 df ff ff 	lea    -0x2060(%rbp),%rax
    f52a:	48 89 85 40 e5 ff ff 	mov    %rax,-0x1ac0(%rbp)
    f531:	48 8d 85 a0 df ff ff 	lea    -0x2060(%rbp),%rax
    f538:	48 89 85 48 e5 ff ff 	mov    %rax,-0x1ab8(%rbp)
    f53f:	48 8d 85 60 df ff ff 	lea    -0x20a0(%rbp),%rax
    f546:	48 89 85 50 e5 ff ff 	mov    %rax,-0x1ab0(%rbp)
    f54d:	48 8d 85 60 df ff ff 	lea    -0x20a0(%rbp),%rax
    f554:	48 89 85 58 e5 ff ff 	mov    %rax,-0x1aa8(%rbp)
    f55b:	48 8d 85 60 df ff ff 	lea    -0x20a0(%rbp),%rax
    f562:	48 89 85 60 e5 ff ff 	mov    %rax,-0x1aa0(%rbp)
    f569:	48 8d 85 a0 df ff ff 	lea    -0x2060(%rbp),%rax
    f570:	48 89 85 68 e5 ff ff 	mov    %rax,-0x1a98(%rbp)
    f577:	48 8d 85 a0 df ff ff 	lea    -0x2060(%rbp),%rax
    f57e:	48 89 85 70 e5 ff ff 	mov    %rax,-0x1a90(%rbp)
    f585:	48 8d 85 60 df ff ff 	lea    -0x20a0(%rbp),%rax
    f58c:	48 89 85 78 e5 ff ff 	mov    %rax,-0x1a88(%rbp)
    f593:	48 8b 85 d8 e0 ff ff 	mov    -0x1f28(%rbp),%rax
    f59a:	48 8b 95 d0 e0 ff ff 	mov    -0x1f30(%rbp),%rdx
    f5a1:	48 89 10             	mov    %rdx,(%rax)
    f5a4:	0f b6 85 98 de ff ff 	movzbl -0x2168(%rbp),%eax
    f5ab:	0f be d8             	movsbl %al,%ebx
    f5ae:	0f b6 05 ea 41 01 00 	movzbl 0x141ea(%rip),%eax        # 2379f <g_891+0xf>
    f5b5:	c1 e0 03             	shl    $0x3,%eax
    f5b8:	c0 f8 07             	sar    $0x7,%al
    f5bb:	44 0f be e0          	movsbl %al,%r12d
    f5bf:	8b 05 83 42 01 00    	mov    0x14283(%rip),%eax        # 23848 <g_893+0x88>
    f5c5:	c1 e0 03             	shl    $0x3,%eax
    f5c8:	c1 f8 03             	sar    $0x3,%eax
    f5cb:	41 89 c7             	mov    %eax,%r15d
    f5ce:	0f b7 05 bf 44 01 00 	movzwl 0x144bf(%rip),%eax        # 23a94 <g_896+0x4>
    f5d5:	44 0f bf e8          	movswl %ax,%r13d
    f5d9:	44 0f b6 b5 9c de ff 	movzbl -0x2164(%rbp),%r14d
    f5e0:	ff 
    f5e1:	0f b6 85 98 de ff ff 	movzbl -0x2168(%rbp),%eax
    f5e8:	0f be d0             	movsbl %al,%edx
    f5eb:	8b 85 b0 de ff ff    	mov    -0x2150(%rbp),%eax
    f5f1:	89 d6                	mov    %edx,%esi
    f5f3:	89 c7                	mov    %eax,%edi
    f5f5:	e8 d2 a0 ff ff       	callq  96cc <safe_mod_func_int32_t_s_s>
    f5fa:	0f b6 85 98 de ff ff 	movzbl -0x2168(%rbp),%eax
    f601:	0f be c0             	movsbl %al,%eax
    f604:	44 89 f6             	mov    %r14d,%esi
    f607:	89 c7                	mov    %eax,%edi
    f609:	e8 08 9e ff ff       	callq  9416 <safe_mod_func_int16_t_s_s>
    f60e:	48 8b 85 f0 e0 ff ff 	mov    -0x1f10(%rbp),%rax
    f615:	48 8d 15 a4 89 01 00 	lea    0x189a4(%rip),%rdx        # 27fc0 <g_1099>
    f61c:	48 89 10             	mov    %rdx,(%rax)
    f61f:	48 8b 85 f0 e0 ff ff 	mov    -0x1f10(%rbp),%rax
    f626:	48 8b 00             	mov    (%rax),%rax
    f629:	48 39 85 e8 e0 ff ff 	cmp    %rax,-0x1f18(%rbp)
    f630:	0f 94 c0             	sete   %al
    f633:	0f b6 d0             	movzbl %al,%edx
    f636:	0f b6 85 9c de ff ff 	movzbl -0x2164(%rbp),%eax
    f63d:	39 c2                	cmp    %eax,%edx
    f63f:	0f 95 c0             	setne  %al
    f642:	0f b6 c0             	movzbl %al,%eax
    f645:	66 89 85 ae de ff ff 	mov    %ax,-0x2152(%rbp)
    f64c:	0f bf 85 ae de ff ff 	movswl -0x2152(%rbp),%eax
    f653:	89 85 40 ec ff ff    	mov    %eax,-0x13c0(%rbp)
    f659:	8b 85 40 ec ff ff    	mov    -0x13c0(%rbp),%eax
    f65f:	48 98                	cltq   
    f661:	be 00 00 00 00       	mov    $0x0,%esi
    f666:	48 89 c7             	mov    %rax,%rdi
    f669:	e8 3a a2 ff ff       	callq  98a8 <safe_sub_func_int64_t_s_s>
    f66e:	0f b6 15 b6 1b 01 00 	movzbl 0x11bb6(%rip),%edx        # 2122b <g_244+0x5>
    f675:	31 d0                	xor    %edx,%eax
    f677:	88 05 ae 1b 01 00    	mov    %al,0x11bae(%rip)        # 2122b <g_244+0x5>
    f67d:	0f b6 05 a7 1b 01 00 	movzbl 0x11ba7(%rip),%eax        # 2122b <g_244+0x5>
    f684:	84 c0                	test   %al,%al
    f686:	75 0d                	jne    f695 <func_58+0x23d4>
    f688:	8b 05 32 ca 00 00    	mov    0xca32(%rip),%eax        # 1c0c0 <g_1053+0x10>
    f68e:	25 ff ff 07 00       	and    $0x7ffff,%eax
    f693:	85 c0                	test   %eax,%eax
    f695:	44 89 ee             	mov    %r13d,%esi
    f698:	bf 00 00 00 00       	mov    $0x0,%edi
    f69d:	e8 1c a6 ff ff       	callq  9cbe <safe_rshift_func_uint8_t_u_u>
    f6a2:	0f b6 c0             	movzbl %al,%eax
    f6a5:	44 89 fe             	mov    %r15d,%esi
    f6a8:	89 c7                	mov    %eax,%edi
    f6aa:	e8 07 9f ff ff       	callq  95b6 <safe_add_func_int32_t_s_s>
    f6af:	48 8d 3d 7a 1a 01 00 	lea    0x11a7a(%rip),%rdi        # 21130 <g_137>
    f6b6:	e8 68 1f 00 00       	callq  11623 <func_63>
    f6bb:	48 8b 85 90 e3 ff ff 	mov    -0x1c70(%rbp),%rax
    f6c2:	48 89 85 40 e0 ff ff 	mov    %rax,-0x1fc0(%rbp)
    f6c9:	48 8b 85 40 e0 ff ff 	mov    -0x1fc0(%rbp),%rax
    f6d0:	48 3b 85 a0 e0 ff ff 	cmp    -0x1f60(%rbp),%rax
    f6d7:	0f 95 c0             	setne  %al
    f6da:	0f b6 d0             	movzbl %al,%edx
    f6dd:	8b 85 dc de ff ff    	mov    -0x2124(%rbp),%eax
    f6e3:	89 d1                	mov    %edx,%ecx
    f6e5:	09 c1                	or     %eax,%ecx
    f6e7:	48 8b 85 e0 e0 ff ff 	mov    -0x1f20(%rbp),%rax
    f6ee:	0f b6 00             	movzbl (%rax),%eax
    f6f1:	89 c2                	mov    %eax,%edx
    f6f3:	89 c8                	mov    %ecx,%eax
    f6f5:	21 d0                	and    %edx,%eax
    f6f7:	89 c2                	mov    %eax,%edx
    f6f9:	48 8b 85 e0 e0 ff ff 	mov    -0x1f20(%rbp),%rax
    f700:	88 10                	mov    %dl,(%rax)
    f702:	48 8b 85 e0 e0 ff ff 	mov    -0x1f20(%rbp),%rax
    f709:	0f b6 00             	movzbl (%rax),%eax
    f70c:	0f b6 c0             	movzbl %al,%eax
    f70f:	be 07 00 00 00       	mov    $0x7,%esi
    f714:	89 c7                	mov    %eax,%edi
    f716:	e8 ea a4 ff ff       	callq  9c05 <safe_lshift_func_uint8_t_u_s>
    f71b:	44 89 e6             	mov    %r12d,%esi
    f71e:	bf 01 00 00 00       	mov    $0x1,%edi
    f723:	e8 42 9b ff ff       	callq  926a <safe_div_func_int8_t_s_s>
    f728:	89 c2                	mov    %eax,%edx
    f72a:	48 8b 85 48 df ff ff 	mov    -0x20b8(%rbp),%rax
    f731:	48 8b 00             	mov    (%rax),%rax
    f734:	66 0f be d2          	movsbw %dl,%dx
    f738:	66 89 10             	mov    %dx,(%rax)
    f73b:	0f b7 00             	movzwl (%rax),%eax
    f73e:	98                   	cwtl   
    f73f:	89 de                	mov    %ebx,%esi
    f741:	89 c7                	mov    %eax,%edi
    f743:	e8 6b 9c ff ff       	callq  93b3 <safe_add_func_int16_t_s_s>
    f748:	48 8b 85 d0 e0 ff ff 	mov    -0x1f30(%rbp),%rax
    f74f:	c7 00 00 00 00 00    	movl   $0x0,(%rax)
    f755:	e9 2e 1e 00 00       	jmpq   11588 <func_58+0x42c7>
    f75a:	c7 85 90 e3 ff ff f6 	movl   $0xfffffff6,-0x1c70(%rbp)
    f761:	ff ff ff 
    f764:	c7 85 94 e3 ff ff f6 	movl   $0xfffffff6,-0x1c6c(%rbp)
    f76b:	ff ff ff 
    f76e:	c7 85 98 e3 ff ff 52 	movl   $0x70a73652,-0x1c68(%rbp)
    f775:	36 a7 70 
    f778:	c7 85 9c e3 ff ff f6 	movl   $0xfffffff6,-0x1c64(%rbp)
    f77f:	ff ff ff 
    f782:	c7 85 a0 e3 ff ff f6 	movl   $0xfffffff6,-0x1c60(%rbp)
    f789:	ff ff ff 
    f78c:	c7 85 a4 e3 ff ff be 	movl   $0xa87b9fbe,-0x1c5c(%rbp)
    f793:	9f 7b a8 
    f796:	c7 85 a8 e3 ff ff f6 	movl   $0xfffffff6,-0x1c58(%rbp)
    f79d:	ff ff ff 
    f7a0:	c7 85 ac e3 ff ff be 	movl   $0xa87b9fbe,-0x1c54(%rbp)
    f7a7:	9f 7b a8 
    f7aa:	c7 85 b0 e3 ff ff be 	movl   $0xa87b9fbe,-0x1c50(%rbp)
    f7b1:	9f 7b a8 
    f7b4:	c7 85 b4 e3 ff ff f6 	movl   $0xfffffff6,-0x1c4c(%rbp)
    f7bb:	ff ff ff 
    f7be:	c7 85 b8 e3 ff ff f6 	movl   $0xfffffff6,-0x1c48(%rbp)
    f7c5:	ff ff ff 
    f7c8:	c7 85 bc e3 ff ff be 	movl   $0xa87b9fbe,-0x1c44(%rbp)
    f7cf:	9f 7b a8 
    f7d2:	c7 85 c0 e3 ff ff be 	movl   $0xa87b9fbe,-0x1c40(%rbp)
    f7d9:	9f 7b a8 
    f7dc:	c7 85 c4 e3 ff ff f6 	movl   $0xfffffff6,-0x1c3c(%rbp)
    f7e3:	ff ff ff 
    f7e6:	c7 85 c8 e3 ff ff be 	movl   $0xa87b9fbe,-0x1c38(%rbp)
    f7ed:	9f 7b a8 
    f7f0:	c7 85 cc e3 ff ff f6 	movl   $0xfffffff6,-0x1c34(%rbp)
    f7f7:	ff ff ff 
    f7fa:	c7 85 d0 e3 ff ff f6 	movl   $0xfffffff6,-0x1c30(%rbp)
    f801:	ff ff ff 
    f804:	c7 85 d4 e3 ff ff 52 	movl   $0x70a73652,-0x1c2c(%rbp)
    f80b:	36 a7 70 
    f80e:	c7 85 d8 e3 ff ff f6 	movl   $0xfffffff6,-0x1c28(%rbp)
    f815:	ff ff ff 
    f818:	c7 85 dc e3 ff ff f6 	movl   $0xfffffff6,-0x1c24(%rbp)
    f81f:	ff ff ff 
    f822:	c7 85 e0 e3 ff ff be 	movl   $0xa87b9fbe,-0x1c20(%rbp)
    f829:	9f 7b a8 
    f82c:	c7 85 e4 e3 ff ff f6 	movl   $0xfffffff6,-0x1c1c(%rbp)
    f833:	ff ff ff 
    f836:	c7 85 e8 e3 ff ff be 	movl   $0xa87b9fbe,-0x1c18(%rbp)
    f83d:	9f 7b a8 
    f840:	c7 85 ec e3 ff ff be 	movl   $0xa87b9fbe,-0x1c14(%rbp)
    f847:	9f 7b a8 
    f84a:	c7 85 f0 e3 ff ff f6 	movl   $0xfffffff6,-0x1c10(%rbp)
    f851:	ff ff ff 
    f854:	c7 85 f4 e3 ff ff f6 	movl   $0xfffffff6,-0x1c0c(%rbp)
    f85b:	ff ff ff 
    f85e:	c7 85 f8 e3 ff ff be 	movl   $0xa87b9fbe,-0x1c08(%rbp)
    f865:	9f 7b a8 
    f868:	c7 85 fc e3 ff ff be 	movl   $0xa87b9fbe,-0x1c04(%rbp)
    f86f:	9f 7b a8 
    f872:	c7 85 00 e4 ff ff f6 	movl   $0xfffffff6,-0x1c00(%rbp)
    f879:	ff ff ff 
    f87c:	c7 85 04 e4 ff ff be 	movl   $0xa87b9fbe,-0x1bfc(%rbp)
    f883:	9f 7b a8 
    f886:	c6 85 d8 e1 ff ff 76 	movb   $0x76,-0x1e28(%rbp)
    f88d:	c6 85 d9 e1 ff ff fd 	movb   $0xfd,-0x1e27(%rbp)
    f894:	c7 85 dc e1 ff ff f6 	movl   $0xfffffff6,-0x1e24(%rbp)
    f89b:	ff ff ff 
    f89e:	66 c7 85 e0 e1 ff ff 	movw   $0x6,-0x1e20(%rbp)
    f8a5:	06 00 
    f8a7:	48 8d 05 62 1a 01 00 	lea    0x11a62(%rip),%rax        # 21310 <g_353+0xd0>
    f8ae:	48 89 85 50 e2 ff ff 	mov    %rax,-0x1db0(%rbp)
    f8b5:	48 8d 05 54 1a 01 00 	lea    0x11a54(%rip),%rax        # 21310 <g_353+0xd0>
    f8bc:	48 89 85 58 e2 ff ff 	mov    %rax,-0x1da8(%rbp)
    f8c3:	48 8d 05 46 1a 01 00 	lea    0x11a46(%rip),%rax        # 21310 <g_353+0xd0>
    f8ca:	48 89 85 60 e2 ff ff 	mov    %rax,-0x1da0(%rbp)
    f8d1:	48 8d 05 38 1a 01 00 	lea    0x11a38(%rip),%rax        # 21310 <g_353+0xd0>
    f8d8:	48 89 85 68 e2 ff ff 	mov    %rax,-0x1d98(%rbp)
    f8df:	48 8d 05 2a 1a 01 00 	lea    0x11a2a(%rip),%rax        # 21310 <g_353+0xd0>
    f8e6:	48 89 85 70 e2 ff ff 	mov    %rax,-0x1d90(%rbp)
    f8ed:	c7 85 00 df ff ff f6 	movl   $0xfffffff6,-0x2100(%rbp)
    f8f4:	ff ff ff 
    f8f7:	c7 85 04 df ff ff fe 	movl   $0xfffffffe,-0x20fc(%rbp)
    f8fe:	ff ff ff 
    f901:	c7 85 08 df ff ff 00 	movl   $0x0,-0x20f8(%rbp)
    f908:	00 00 00 
    f90b:	eb 1b                	jmp    f928 <func_58+0x2667>
    f90d:	8b 85 08 df ff ff    	mov    -0x20f8(%rbp),%eax
    f913:	48 98                	cltq   
    f915:	48 c7 84 c5 80 e2 ff 	movq   $0x0,-0x1d80(%rbp,%rax,8)
    f91c:	ff 00 00 00 00 
    f921:	83 85 08 df ff ff 01 	addl   $0x1,-0x20f8(%rbp)
    f928:	83 bd 08 df ff ff 04 	cmpl   $0x4,-0x20f8(%rbp)
    f92f:	7e dc                	jle    f90d <func_58+0x264c>
    f931:	90                   	nop
    f932:	48 8b 85 78 df ff ff 	mov    -0x2088(%rbp),%rax
    f939:	8b 00                	mov    (%rax),%eax
    f93b:	48 63 c8             	movslq %eax,%rcx
    f93e:	8b 05 90 1e 01 00    	mov    0x11e90(%rip),%eax        # 217d4 <g_444+0x4>
    f944:	c1 e0 05             	shl    $0x5,%eax
    f947:	c1 f8 0d             	sar    $0xd,%eax
    f94a:	48 63 d0             	movslq %eax,%rdx
    f94d:	48 8b 85 10 e0 ff ff 	mov    -0x1ff0(%rbp),%rax
    f954:	48 89 10             	mov    %rdx,(%rax)
    f957:	48 8b 85 10 e0 ff ff 	mov    -0x1ff0(%rbp),%rax
    f95e:	48 8b 00             	mov    (%rax),%rax
    f961:	48 39 c1             	cmp    %rax,%rcx
    f964:	0f bf 9d ac de ff ff 	movswl -0x2154(%rbp),%ebx
    f96b:	8b 05 c7 41 01 00    	mov    0x141c7(%rip),%eax        # 23b38 <g_899+0x8>
    f971:	c1 e0 03             	shl    $0x3,%eax
    f974:	c1 f8 03             	sar    $0x3,%eax
    f977:	48 63 d0             	movslq %eax,%rdx
    f97a:	0f b6 85 9c de ff ff 	movzbl -0x2164(%rbp),%eax
    f981:	48 89 d6             	mov    %rdx,%rsi
    f984:	48 89 c7             	mov    %rax,%rdi
    f987:	e8 bf a6 ff ff       	callq  a04b <safe_sub_func_uint64_t_u_u>
    f98c:	48 89 c2             	mov    %rax,%rdx
    f98f:	48 8b 05 d2 7d 01 00 	mov    0x17dd2(%rip),%rax        # 27768 <g_125>
    f996:	48 8b 00             	mov    (%rax),%rax
    f999:	66 89 10             	mov    %dx,(%rax)
    f99c:	0f b7 00             	movzwl (%rax),%eax
    f99f:	98                   	cwtl   
    f9a0:	89 de                	mov    %ebx,%esi
    f9a2:	89 c7                	mov    %eax,%edi
    f9a4:	e8 6d 9a ff ff       	callq  9416 <safe_mod_func_int16_t_s_s>
    f9a9:	0f bf d0             	movswl %ax,%edx
    f9ac:	8b 85 cc e3 ff ff    	mov    -0x1c34(%rbp),%eax
    f9b2:	98                   	cwtl   
    f9b3:	89 d6                	mov    %edx,%esi
    f9b5:	89 c7                	mov    %eax,%edi
    f9b7:	e8 6e 9b ff ff       	callq  952a <safe_rshift_func_int16_t_s_s>
    f9bc:	48 8b 05 0d 86 01 00 	mov    0x1860d(%rip),%rax        # 27fd0 <g_1164>
    f9c3:	48 89 85 70 e3 ff ff 	mov    %rax,-0x1c90(%rbp)
    f9ca:	48 8b 85 70 e3 ff ff 	mov    -0x1c90(%rbp),%rax
    f9d1:	48 8d 15 b8 85 01 00 	lea    0x185b8(%rip),%rdx        # 27f90 <g_828>
    f9d8:	48 39 d0             	cmp    %rdx,%rax
    f9db:	0f 94 c0             	sete   %al
    f9de:	0f b6 c0             	movzbl %al,%eax
    f9e1:	89 c6                	mov    %eax,%esi
    f9e3:	bf fe ff ff ff       	mov    $0xfffffffe,%edi
    f9e8:	e8 08 9a ff ff       	callq  93f5 <safe_mul_func_int16_t_s_s>
    f9ed:	98                   	cwtl   
    f9ee:	89 85 20 eb ff ff    	mov    %eax,-0x14e0(%rbp)
    f9f4:	48 8b 05 ed 7d 01 00 	mov    0x17ded(%rip),%rax        # 277e8 <g_580>
    f9fb:	48 8b 00             	mov    (%rax),%rax
    f9fe:	48 85 c0             	test   %rax,%rax
    fa01:	0f 94 c0             	sete   %al
    fa04:	44 0f b6 e0          	movzbl %al,%r12d
    fa08:	48 c7 05 05 86 01 00 	movq   $0x0,0x18605(%rip)        # 28018 <g_1171>
    fa0f:	00 00 00 00 
    fa13:	0f b6 9d 9c de ff ff 	movzbl -0x2164(%rbp),%ebx
    fa1a:	48 8b 05 c7 7d 01 00 	mov    0x17dc7(%rip),%rax        # 277e8 <g_580>
    fa21:	48 8b 00             	mov    (%rax),%rax
    fa24:	48 85 c0             	test   %rax,%rax
    fa27:	0f 94 c0             	sete   %al
    fa2a:	44 0f b6 e8          	movzbl %al,%r13d
    fa2e:	48 8b 85 90 de ff ff 	mov    -0x2170(%rbp),%rax
    fa35:	48 c7 c6 f7 ff ff ff 	mov    $0xfffffffffffffff7,%rsi
    fa3c:	48 89 c7             	mov    %rax,%rdi
    fa3f:	e8 6b a6 ff ff       	callq  a0af <safe_div_func_uint64_t_u_u>
    fa44:	49 39 c5             	cmp    %rax,%r13
    fa47:	0f 95 c0             	setne  %al
    fa4a:	0f b6 c0             	movzbl %al,%eax
    fa4d:	89 de                	mov    %ebx,%esi
    fa4f:	89 c7                	mov    %eax,%edi
    fa51:	e8 06 a3 ff ff       	callq  9d5c <safe_mod_func_uint16_t_u_u>
    fa56:	0f b7 c0             	movzwl %ax,%eax
    fa59:	44 89 e2             	mov    %r12d,%edx
    fa5c:	09 c2                	or     %eax,%edx
    fa5e:	48 8b 05 2b 85 01 00 	mov    0x1852b(%rip),%rax        # 27f90 <g_828>
    fa65:	48 8b 00             	mov    (%rax),%rax
    fa68:	0f b6 00             	movzbl (%rax),%eax
    fa6b:	0f be c0             	movsbl %al,%eax
    fa6e:	39 c2                	cmp    %eax,%edx
    fa70:	0f 95 c0             	setne  %al
    fa73:	0f b6 d0             	movzbl %al,%edx
    fa76:	0f b6 85 9c de ff ff 	movzbl -0x2164(%rbp),%eax
    fa7d:	31 95 00 df ff ff    	xor    %edx,-0x2100(%rbp)
    fa83:	39 85 00 df ff ff    	cmp    %eax,-0x2100(%rbp)
    fa89:	0f 9e c0             	setle  %al
    fa8c:	0f b6 c0             	movzbl %al,%eax
    fa8f:	39 85 24 df ff ff    	cmp    %eax,-0x20dc(%rbp)
    fa95:	0f 85 13 03 00 00    	jne    fdae <func_58+0x2aed>
    fa9b:	c7 85 30 df ff ff f9 	movl   $0xfffffff9,-0x20d0(%rbp)
    faa2:	ff ff ff 
    faa5:	c7 85 34 df ff ff 06 	movl   $0x6,-0x20cc(%rbp)
    faac:	00 00 00 
    faaf:	c7 85 0c df ff ff 00 	movl   $0x0,-0x20f4(%rbp)
    fab6:	00 00 00 
    fab9:	eb 14                	jmp    facf <func_58+0x280e>
    fabb:	8b 85 0c df ff ff    	mov    -0x20f4(%rbp),%eax
    fac1:	48 98                	cltq   
    fac3:	c6 44 05 be 06       	movb   $0x6,-0x42(%rbp,%rax,1)
    fac8:	83 85 0c df ff ff 01 	addl   $0x1,-0x20f4(%rbp)
    facf:	83 bd 0c df ff ff 01 	cmpl   $0x1,-0x20f4(%rbp)
    fad6:	7e e3                	jle    fabb <func_58+0x27fa>
    fad8:	c7 85 b8 de ff ff 00 	movl   $0x0,-0x2148(%rbp)
    fadf:	00 00 00 
    fae2:	e9 6e 02 00 00       	jmpq   fd55 <func_58+0x2a94>
    fae7:	48 c7 85 70 e0 ff ff 	movq   $0x1,-0x1f90(%rbp)
    faee:	01 00 00 00 
    faf2:	48 8d 85 b0 ea ff ff 	lea    -0x1550(%rbp),%rax
    faf9:	48 05 f0 00 00 00    	add    $0xf0,%rax
    faff:	48 89 85 78 e0 ff ff 	mov    %rax,-0x1f88(%rbp)
    fb06:	48 8d 05 1b 42 01 00 	lea    0x1421b(%rip),%rax        # 23d28 <g_1050>
    fb0d:	48 89 85 80 e0 ff ff 	mov    %rax,-0x1f80(%rbp)
    fb14:	48 8d 85 c4 de ff ff 	lea    -0x213c(%rbp),%rax
    fb1b:	48 89 85 88 e0 ff ff 	mov    %rax,-0x1f78(%rbp)
    fb22:	48 8d 05 ef 15 01 00 	lea    0x115ef(%rip),%rax        # 21118 <g_34>
    fb29:	48 89 85 90 e0 ff ff 	mov    %rax,-0x1f70(%rbp)
    fb30:	48 8d 85 c8 de ff ff 	lea    -0x2138(%rbp),%rax
    fb37:	48 89 85 98 e0 ff ff 	mov    %rax,-0x1f68(%rbp)
    fb3e:	48 8d 85 b0 ea ff ff 	lea    -0x1550(%rbp),%rax
    fb45:	48 83 c0 70          	add    $0x70,%rax
    fb49:	48 89 85 30 f8 ff ff 	mov    %rax,-0x7d0(%rbp)
    fb50:	48 8d 85 b0 ea ff ff 	lea    -0x1550(%rbp),%rax
    fb57:	48 83 c0 70          	add    $0x70,%rax
    fb5b:	48 89 85 38 f8 ff ff 	mov    %rax,-0x7c8(%rbp)
    fb62:	48 8d 85 b0 ea ff ff 	lea    -0x1550(%rbp),%rax
    fb69:	48 83 c0 70          	add    $0x70,%rax
    fb6d:	48 89 85 40 f8 ff ff 	mov    %rax,-0x7c0(%rbp)
    fb74:	48 8d 85 b0 ea ff ff 	lea    -0x1550(%rbp),%rax
    fb7b:	48 83 c0 70          	add    $0x70,%rax
    fb7f:	48 89 85 48 f8 ff ff 	mov    %rax,-0x7b8(%rbp)
    fb86:	48 8d 85 b0 ea ff ff 	lea    -0x1550(%rbp),%rax
    fb8d:	48 83 c0 70          	add    $0x70,%rax
    fb91:	48 89 85 50 f8 ff ff 	mov    %rax,-0x7b0(%rbp)
    fb98:	48 8d 85 b0 ea ff ff 	lea    -0x1550(%rbp),%rax
    fb9f:	48 83 c0 70          	add    $0x70,%rax
    fba3:	48 89 85 58 f8 ff ff 	mov    %rax,-0x7a8(%rbp)
    fbaa:	48 b8 01 8b 01 01 8b 	movabs $0x8b01018b01018b01,%rax
    fbb1:	01 01 8b 
    fbb4:	48 89 45 c0          	mov    %rax,-0x40(%rbp)
    fbb8:	0f b6 45 be          	movzbl -0x42(%rbp),%eax
    fbbc:	0f b6 d8             	movzbl %al,%ebx
    fbbf:	48 8b 05 02 84 01 00 	mov    0x18402(%rip),%rax        # 27fc8 <g_1165>
    fbc6:	48 c7 00 00 00 00 00 	movq   $0x0,(%rax)
    fbcd:	48 8b 10             	mov    (%rax),%rdx
    fbd0:	48 8d 85 98 de ff ff 	lea    -0x2168(%rbp),%rax
    fbd7:	48 39 c2             	cmp    %rax,%rdx
    fbda:	0f 94 c0             	sete   %al
    fbdd:	44 0f b6 e8          	movzbl %al,%r13d
    fbe1:	44 0f b6 a5 9c de ff 	movzbl -0x2164(%rbp),%r12d
    fbe8:	ff 
    fbe9:	b8 97 01 00 00       	mov    $0x197,%eax
    fbee:	89 c2                	mov    %eax,%edx
    fbf0:	48 8b 85 88 de ff ff 	mov    -0x2178(%rbp),%rax
    fbf7:	8b 00                	mov    (%rax),%eax
    fbf9:	89 85 ec e1 ff ff    	mov    %eax,-0x1e14(%rbp)
    fbff:	8b 85 ec e1 ff ff    	mov    -0x1e14(%rbp),%eax
    fc05:	89 d6                	mov    %edx,%esi
    fc07:	89 c7                	mov    %eax,%edi
    fc09:	e8 f7 99 ff ff       	callq  9605 <safe_sub_func_int32_t_s_s>
    fc0e:	48 63 d0             	movslq %eax,%rdx
    fc11:	0f b6 05 87 3b 01 00 	movzbl 0x13b87(%rip),%eax        # 2379f <g_891+0xf>
    fc18:	c1 e0 03             	shl    $0x3,%eax
    fc1b:	c0 f8 07             	sar    $0x7,%al
    fc1e:	0f be c8             	movsbl %al,%ecx
    fc21:	48 8b 85 78 df ff ff 	mov    -0x2088(%rbp),%rax
    fc28:	8b 00                	mov    (%rax),%eax
    fc2a:	39 c1                	cmp    %eax,%ecx
    fc2c:	0f 9d c0             	setge  %al
    fc2f:	0f b6 c8             	movzbl %al,%ecx
    fc32:	8b 85 20 eb ff ff    	mov    -0x14e0(%rbp),%eax
    fc38:	85 c0                	test   %eax,%eax
    fc3a:	74 11                	je     fc4d <func_58+0x298c>
    fc3c:	8b 85 bc de ff ff    	mov    -0x2144(%rbp),%eax
    fc42:	85 c0                	test   %eax,%eax
    fc44:	74 07                	je     fc4d <func_58+0x298c>
    fc46:	b8 01 00 00 00       	mov    $0x1,%eax
    fc4b:	eb 05                	jmp    fc52 <func_58+0x2991>
    fc4d:	b8 00 00 00 00       	mov    $0x0,%eax
    fc52:	39 c8                	cmp    %ecx,%eax
    fc54:	0f 9c c0             	setl   %al
    fc57:	0f b6 c0             	movzbl %al,%eax
    fc5a:	48 89 d6             	mov    %rdx,%rsi
    fc5d:	48 89 c7             	mov    %rax,%rdi
    fc60:	e8 e6 a3 ff ff       	callq  a04b <safe_sub_func_uint64_t_u_u>
    fc65:	48 85 c0             	test   %rax,%rax
    fc68:	74 10                	je     fc7a <func_58+0x29b9>
    fc6a:	80 bd 9c de ff ff 00 	cmpb   $0x0,-0x2164(%rbp)
    fc71:	74 07                	je     fc7a <func_58+0x29b9>
    fc73:	b8 01 00 00 00       	mov    $0x1,%eax
    fc78:	eb 05                	jmp    fc7f <func_58+0x29be>
    fc7a:	b8 00 00 00 00       	mov    $0x0,%eax
    fc7f:	89 c6                	mov    %eax,%esi
    fc81:	bf 01 00 00 00       	mov    $0x1,%edi
    fc86:	e8 7a 99 ff ff       	callq  9605 <safe_sub_func_int32_t_s_s>
    fc8b:	0f b6 c0             	movzbl %al,%eax
    fc8e:	44 89 e6             	mov    %r12d,%esi
    fc91:	89 c7                	mov    %eax,%edi
    fc93:	e8 fb 9e ff ff       	callq  9b93 <safe_mul_func_uint8_t_u_u>
    fc98:	0f be c0             	movsbl %al,%eax
    fc9b:	be 0e 00 00 00       	mov    $0xe,%esi
    fca0:	89 c7                	mov    %eax,%edi
    fca2:	e8 4b 95 ff ff       	callq  91f2 <safe_sub_func_int8_t_s_s>
    fca7:	0f be c0             	movsbl %al,%eax
    fcaa:	be 70 77 00 00       	mov    $0x7770,%esi
    fcaf:	89 c7                	mov    %eax,%edi
    fcb1:	e8 60 97 ff ff       	callq  9416 <safe_mod_func_int16_t_s_s>
    fcb6:	98                   	cwtl   
    fcb7:	41 39 c5             	cmp    %eax,%r13d
    fcba:	0f 9d c0             	setge  %al
    fcbd:	0f b6 c0             	movzbl %al,%eax
    fcc0:	89 de                	mov    %ebx,%esi
    fcc2:	89 c7                	mov    %eax,%edi
    fcc4:	e8 ca 9e ff ff       	callq  9b93 <safe_mul_func_uint8_t_u_u>
    fcc9:	b8 01 00 00 00       	mov    $0x1,%eax
    fcce:	48 98                	cltq   
    fcd0:	48 31 85 70 e0 ff ff 	xor    %rax,-0x1f90(%rbp)
    fcd7:	0f b7 85 f4 e1 ff ff 	movzwl -0x1e0c(%rbp),%eax
    fcde:	83 e8 01             	sub    $0x1,%eax
    fce1:	66 89 85 f4 e1 ff ff 	mov    %ax,-0x1e0c(%rbp)
    fce8:	48 8b 05 89 40 01 00 	mov    0x14089(%rip),%rax        # 23d78 <g_1180+0x38>
    fcef:	c1 e0 0d             	shl    $0xd,%eax
    fcf2:	c1 f8 0d             	sar    $0xd,%eax
    fcf5:	48 63 d0             	movslq %eax,%rdx
    fcf8:	8b 85 24 df ff ff    	mov    -0x20dc(%rbp),%eax
    fcfe:	48 98                	cltq   
    fd00:	48 89 d6             	mov    %rdx,%rsi
    fd03:	48 89 c7             	mov    %rax,%rdi
    fd06:	e8 9d 9b ff ff       	callq  98a8 <safe_sub_func_int64_t_s_s>
    fd0b:	48 85 c0             	test   %rax,%rax
    fd0e:	0f 94 c0             	sete   %al
    fd11:	0f b6 d0             	movzbl %al,%edx
    fd14:	48 8b 85 98 e0 ff ff 	mov    -0x1f68(%rbp),%rax
    fd1b:	89 10                	mov    %edx,(%rax)
    fd1d:	48 8b 85 98 e0 ff ff 	mov    -0x1f68(%rbp),%rax
    fd24:	8b 10                	mov    (%rax),%edx
    fd26:	48 8b 85 78 e0 ff ff 	mov    -0x1f88(%rbp),%rax
    fd2d:	8b 00                	mov    (%rax),%eax
    fd2f:	09 c2                	or     %eax,%edx
    fd31:	48 8b 85 78 e0 ff ff 	mov    -0x1f88(%rbp),%rax
    fd38:	89 10                	mov    %edx,(%rax)
    fd3a:	8b 85 b8 de ff ff    	mov    -0x2148(%rbp),%eax
    fd40:	48 98                	cltq   
    fd42:	be 01 00 00 00       	mov    $0x1,%esi
    fd47:	48 89 c7             	mov    %rax,%rdi
    fd4a:	e8 df a2 ff ff       	callq  a02e <safe_add_func_uint64_t_u_u>
    fd4f:	89 85 b8 de ff ff    	mov    %eax,-0x2148(%rbp)
    fd55:	8b 85 b8 de ff ff    	mov    -0x2148(%rbp),%eax
    fd5b:	83 f8 11             	cmp    $0x11,%eax
    fd5e:	0f 8e 83 fd ff ff    	jle    fae7 <func_58+0x2826>
    fd64:	c7 05 ba 3f 01 00 00 	movl   $0x0,0x13fba(%rip)        # 23d28 <g_1050>
    fd6b:	00 00 00 
    fd6e:	eb 2f                	jmp    fd9f <func_58+0x2ade>
    fd70:	48 8b 05 b1 82 01 00 	mov    0x182b1(%rip),%rax        # 28028 <g_1213>
    fd77:	48 8b 95 80 e2 ff ff 	mov    -0x1d80(%rbp),%rdx
    fd7e:	48 89 10             	mov    %rdx,(%rax)
    fd81:	66 83 bd ac de ff ff 	cmpw   $0x0,-0x2154(%rbp)
    fd88:	00 
    fd89:	74 05                	je     fd90 <func_58+0x2acf>
    fd8b:	e9 a2 fb ff ff       	jmpq   f932 <func_58+0x2671>
    fd90:	8b 05 92 3f 01 00    	mov    0x13f92(%rip),%eax        # 23d28 <g_1050>
    fd96:	83 e8 01             	sub    $0x1,%eax
    fd99:	89 05 89 3f 01 00    	mov    %eax,0x13f89(%rip)        # 23d28 <g_1050>
    fd9f:	8b 05 83 3f 01 00    	mov    0x13f83(%rip),%eax        # 23d28 <g_1050>
    fda5:	85 c0                	test   %eax,%eax
    fda7:	79 c7                	jns    fd70 <func_58+0x2aaf>
    fda9:	e9 da 17 00 00       	jmpq   11588 <func_58+0x42c7>
    fdae:	c7 85 28 df ff ff 01 	movl   $0x1,-0x20d8(%rbp)
    fdb5:	00 00 00 
    fdb8:	48 8d 05 5d 14 01 00 	lea    0x1145d(%rip),%rax        # 2121c <g_185+0x4>
    fdbf:	48 89 85 30 f8 ff ff 	mov    %rax,-0x7d0(%rbp)
    fdc6:	48 8d 05 bf 92 01 00 	lea    0x192bf(%rip),%rax        # 2908c <g_329>
    fdcd:	48 89 85 38 f8 ff ff 	mov    %rax,-0x7c8(%rbp)
    fdd4:	48 8d 85 b4 de ff ff 	lea    -0x214c(%rbp),%rax
    fddb:	48 89 85 40 f8 ff ff 	mov    %rax,-0x7c0(%rbp)
    fde2:	48 8d 85 b4 de ff ff 	lea    -0x214c(%rbp),%rax
    fde9:	48 89 85 48 f8 ff ff 	mov    %rax,-0x7b8(%rbp)
    fdf0:	48 8d 05 25 14 01 00 	lea    0x11425(%rip),%rax        # 2121c <g_185+0x4>
    fdf7:	48 89 85 50 f8 ff ff 	mov    %rax,-0x7b0(%rbp)
    fdfe:	48 8d 85 b4 de ff ff 	lea    -0x214c(%rbp),%rax
    fe05:	48 89 85 58 f8 ff ff 	mov    %rax,-0x7a8(%rbp)
    fe0c:	48 8d 85 b4 de ff ff 	lea    -0x214c(%rbp),%rax
    fe13:	48 89 85 60 f8 ff ff 	mov    %rax,-0x7a0(%rbp)
    fe1a:	48 8d 85 bc de ff ff 	lea    -0x2144(%rbp),%rax
    fe21:	48 89 85 68 f8 ff ff 	mov    %rax,-0x798(%rbp)
    fe28:	48 8d 85 bc de ff ff 	lea    -0x2144(%rbp),%rax
    fe2f:	48 89 85 70 f8 ff ff 	mov    %rax,-0x790(%rbp)
    fe36:	48 8d 05 4f 92 01 00 	lea    0x1924f(%rip),%rax        # 2908c <g_329>
    fe3d:	48 89 85 78 f8 ff ff 	mov    %rax,-0x788(%rbp)
    fe44:	48 8d 85 90 e3 ff ff 	lea    -0x1c70(%rbp),%rax
    fe4b:	48 83 c0 3c          	add    $0x3c,%rax
    fe4f:	48 89 85 80 f8 ff ff 	mov    %rax,-0x780(%rbp)
    fe56:	48 8d 85 b4 de ff ff 	lea    -0x214c(%rbp),%rax
    fe5d:	48 89 85 88 f8 ff ff 	mov    %rax,-0x778(%rbp)
    fe64:	48 8d 85 90 e3 ff ff 	lea    -0x1c70(%rbp),%rax
    fe6b:	48 83 c0 68          	add    $0x68,%rax
    fe6f:	48 89 85 90 f8 ff ff 	mov    %rax,-0x770(%rbp)
    fe76:	48 8d 05 4f 2c 01 00 	lea    0x12c4f(%rip),%rax        # 22acc <g_843+0x4>
    fe7d:	48 89 85 98 f8 ff ff 	mov    %rax,-0x768(%rbp)
    fe84:	48 8d 85 b4 de ff ff 	lea    -0x214c(%rbp),%rax
    fe8b:	48 89 85 a0 f8 ff ff 	mov    %rax,-0x760(%rbp)
    fe92:	48 8d 85 b4 de ff ff 	lea    -0x214c(%rbp),%rax
    fe99:	48 89 85 a8 f8 ff ff 	mov    %rax,-0x758(%rbp)
    fea0:	48 8d 05 25 2c 01 00 	lea    0x12c25(%rip),%rax        # 22acc <g_843+0x4>
    fea7:	48 89 85 b0 f8 ff ff 	mov    %rax,-0x750(%rbp)
    feae:	48 8d 85 90 e3 ff ff 	lea    -0x1c70(%rbp),%rax
    feb5:	48 83 c0 68          	add    $0x68,%rax
    feb9:	48 89 85 b8 f8 ff ff 	mov    %rax,-0x748(%rbp)
    fec0:	48 8d 85 90 e3 ff ff 	lea    -0x1c70(%rbp),%rax
    fec7:	48 83 c0 3c          	add    $0x3c,%rax
    fecb:	48 89 85 c0 f8 ff ff 	mov    %rax,-0x740(%rbp)
    fed2:	48 8d 05 b3 91 01 00 	lea    0x191b3(%rip),%rax        # 2908c <g_329>
    fed9:	48 89 85 c8 f8 ff ff 	mov    %rax,-0x738(%rbp)
    fee0:	48 8d 05 35 13 01 00 	lea    0x11335(%rip),%rax        # 2121c <g_185+0x4>
    fee7:	48 89 85 d0 f8 ff ff 	mov    %rax,-0x730(%rbp)
    feee:	48 c7 85 d8 f8 ff ff 	movq   $0x0,-0x728(%rbp)
    fef5:	00 00 00 00 
    fef9:	48 8d 05 1c 13 01 00 	lea    0x1131c(%rip),%rax        # 2121c <g_185+0x4>
    ff00:	48 89 85 e0 f8 ff ff 	mov    %rax,-0x720(%rbp)
    ff07:	48 8d 05 be 2b 01 00 	lea    0x12bbe(%rip),%rax        # 22acc <g_843+0x4>
    ff0e:	48 89 85 e8 f8 ff ff 	mov    %rax,-0x718(%rbp)
    ff15:	48 8d 05 70 91 01 00 	lea    0x19170(%rip),%rax        # 2908c <g_329>
    ff1c:	48 89 85 f0 f8 ff ff 	mov    %rax,-0x710(%rbp)
    ff23:	48 8d 85 bc de ff ff 	lea    -0x2144(%rbp),%rax
    ff2a:	48 89 85 f8 f8 ff ff 	mov    %rax,-0x708(%rbp)
    ff31:	48 8d 05 e4 12 01 00 	lea    0x112e4(%rip),%rax        # 2121c <g_185+0x4>
    ff38:	48 89 85 00 f9 ff ff 	mov    %rax,-0x700(%rbp)
    ff3f:	48 8d 85 90 e3 ff ff 	lea    -0x1c70(%rbp),%rax
    ff46:	48 83 c0 3c          	add    $0x3c,%rax
    ff4a:	48 89 85 08 f9 ff ff 	mov    %rax,-0x6f8(%rbp)
    ff51:	48 8d 85 bc de ff ff 	lea    -0x2144(%rbp),%rax
    ff58:	48 89 85 10 f9 ff ff 	mov    %rax,-0x6f0(%rbp)
    ff5f:	48 8d 85 90 e3 ff ff 	lea    -0x1c70(%rbp),%rax
    ff66:	48 83 c0 3c          	add    $0x3c,%rax
    ff6a:	48 89 85 18 f9 ff ff 	mov    %rax,-0x6e8(%rbp)
    ff71:	48 8d 05 14 91 01 00 	lea    0x19114(%rip),%rax        # 2908c <g_329>
    ff78:	48 89 85 20 f9 ff ff 	mov    %rax,-0x6e0(%rbp)
    ff7f:	48 8d 85 b4 de ff ff 	lea    -0x214c(%rbp),%rax
    ff86:	48 89 85 28 f9 ff ff 	mov    %rax,-0x6d8(%rbp)
    ff8d:	48 8d 85 90 e3 ff ff 	lea    -0x1c70(%rbp),%rax
    ff94:	48 83 c0 3c          	add    $0x3c,%rax
    ff98:	48 89 85 30 f9 ff ff 	mov    %rax,-0x6d0(%rbp)
    ff9f:	48 c7 85 38 f9 ff ff 	movq   $0x0,-0x6c8(%rbp)
    ffa6:	00 00 00 00 
    ffaa:	48 8d 85 90 e3 ff ff 	lea    -0x1c70(%rbp),%rax
    ffb1:	48 83 c0 3c          	add    $0x3c,%rax
    ffb5:	48 89 85 40 f9 ff ff 	mov    %rax,-0x6c0(%rbp)
    ffbc:	48 8d 85 b4 de ff ff 	lea    -0x214c(%rbp),%rax
    ffc3:	48 89 85 48 f9 ff ff 	mov    %rax,-0x6b8(%rbp)
    ffca:	48 8d 85 90 e3 ff ff 	lea    -0x1c70(%rbp),%rax
    ffd1:	48 83 c0 3c          	add    $0x3c,%rax
    ffd5:	48 89 85 50 f9 ff ff 	mov    %rax,-0x6b0(%rbp)
    ffdc:	48 8d 05 39 12 01 00 	lea    0x11239(%rip),%rax        # 2121c <g_185+0x4>
    ffe3:	48 89 85 58 f9 ff ff 	mov    %rax,-0x6a8(%rbp)
    ffea:	48 8d 05 9b 90 01 00 	lea    0x1909b(%rip),%rax        # 2908c <g_329>
    fff1:	48 89 85 60 f9 ff ff 	mov    %rax,-0x6a0(%rbp)
    fff8:	48 8d 85 b4 de ff ff 	lea    -0x214c(%rbp),%rax
    ffff:	48 89 85 68 f9 ff ff 	mov    %rax,-0x698(%rbp)
   10006:	48 8d 85 b4 de ff ff 	lea    -0x214c(%rbp),%rax
   1000d:	48 89 85 70 f9 ff ff 	mov    %rax,-0x690(%rbp)
   10014:	48 8d 05 01 12 01 00 	lea    0x11201(%rip),%rax        # 2121c <g_185+0x4>
   1001b:	48 89 85 78 f9 ff ff 	mov    %rax,-0x688(%rbp)
   10022:	48 8d 85 90 e3 ff ff 	lea    -0x1c70(%rbp),%rax
   10029:	48 83 c0 68          	add    $0x68,%rax
   1002d:	48 89 85 80 f9 ff ff 	mov    %rax,-0x680(%rbp)
   10034:	48 8d 85 b4 de ff ff 	lea    -0x214c(%rbp),%rax
   1003b:	48 89 85 88 f9 ff ff 	mov    %rax,-0x678(%rbp)
   10042:	48 c7 85 90 f9 ff ff 	movq   $0x0,-0x670(%rbp)
   10049:	00 00 00 00 
   1004d:	48 8d 05 38 90 01 00 	lea    0x19038(%rip),%rax        # 2908c <g_329>
   10054:	48 89 85 98 f9 ff ff 	mov    %rax,-0x668(%rbp)
   1005b:	48 8d 85 b4 de ff ff 	lea    -0x214c(%rbp),%rax
   10062:	48 89 85 a0 f9 ff ff 	mov    %rax,-0x660(%rbp)
   10069:	48 8d 85 90 e3 ff ff 	lea    -0x1c70(%rbp),%rax
   10070:	48 83 c0 3c          	add    $0x3c,%rax
   10074:	48 89 85 a8 f9 ff ff 	mov    %rax,-0x658(%rbp)
   1007b:	48 8d 85 b4 de ff ff 	lea    -0x214c(%rbp),%rax
   10082:	48 89 85 b0 f9 ff ff 	mov    %rax,-0x650(%rbp)
   10089:	48 8d 85 b4 de ff ff 	lea    -0x214c(%rbp),%rax
   10090:	48 89 85 b8 f9 ff ff 	mov    %rax,-0x648(%rbp)
   10097:	48 8d 85 bc de ff ff 	lea    -0x2144(%rbp),%rax
   1009e:	48 89 85 c0 f9 ff ff 	mov    %rax,-0x640(%rbp)
   100a5:	48 8d 85 b4 de ff ff 	lea    -0x214c(%rbp),%rax
   100ac:	48 89 85 c8 f9 ff ff 	mov    %rax,-0x638(%rbp)
   100b3:	48 8d 85 b4 de ff ff 	lea    -0x214c(%rbp),%rax
   100ba:	48 89 85 d0 f9 ff ff 	mov    %rax,-0x630(%rbp)
   100c1:	48 8d 85 bc de ff ff 	lea    -0x2144(%rbp),%rax
   100c8:	48 89 85 d8 f9 ff ff 	mov    %rax,-0x628(%rbp)
   100cf:	48 8d 05 46 11 01 00 	lea    0x11146(%rip),%rax        # 2121c <g_185+0x4>
   100d6:	48 89 85 e0 f9 ff ff 	mov    %rax,-0x620(%rbp)
   100dd:	48 8d 05 38 11 01 00 	lea    0x11138(%rip),%rax        # 2121c <g_185+0x4>
   100e4:	48 89 85 e8 f9 ff ff 	mov    %rax,-0x618(%rbp)
   100eb:	48 8d 85 b4 de ff ff 	lea    -0x214c(%rbp),%rax
   100f2:	48 89 85 f0 f9 ff ff 	mov    %rax,-0x610(%rbp)
   100f9:	48 8d 85 d8 e1 ff ff 	lea    -0x1e28(%rbp),%rax
   10100:	48 83 c0 04          	add    $0x4,%rax
   10104:	48 89 85 f8 f9 ff ff 	mov    %rax,-0x608(%rbp)
   1010b:	48 8d 85 90 e3 ff ff 	lea    -0x1c70(%rbp),%rax
   10112:	48 83 c0 3c          	add    $0x3c,%rax
   10116:	48 89 85 00 fa ff ff 	mov    %rax,-0x600(%rbp)
   1011d:	48 8d 05 68 8f 01 00 	lea    0x18f68(%rip),%rax        # 2908c <g_329>
   10124:	48 89 85 08 fa ff ff 	mov    %rax,-0x5f8(%rbp)
   1012b:	48 8d 85 bc de ff ff 	lea    -0x2144(%rbp),%rax
   10132:	48 89 85 10 fa ff ff 	mov    %rax,-0x5f0(%rbp)
   10139:	48 8d 85 b4 de ff ff 	lea    -0x214c(%rbp),%rax
   10140:	48 89 85 18 fa ff ff 	mov    %rax,-0x5e8(%rbp)
   10147:	48 8d 85 90 e3 ff ff 	lea    -0x1c70(%rbp),%rax
   1014e:	48 83 c0 3c          	add    $0x3c,%rax
   10152:	48 89 85 20 fa ff ff 	mov    %rax,-0x5e0(%rbp)
   10159:	48 8d 85 90 e3 ff ff 	lea    -0x1c70(%rbp),%rax
   10160:	48 83 c0 68          	add    $0x68,%rax
   10164:	48 89 85 28 fa ff ff 	mov    %rax,-0x5d8(%rbp)
   1016b:	48 8d 85 bc de ff ff 	lea    -0x2144(%rbp),%rax
   10172:	48 89 85 30 fa ff ff 	mov    %rax,-0x5d0(%rbp)
   10179:	48 8d 85 b4 de ff ff 	lea    -0x214c(%rbp),%rax
   10180:	48 89 85 38 fa ff ff 	mov    %rax,-0x5c8(%rbp)
   10187:	48 8d 85 b4 de ff ff 	lea    -0x214c(%rbp),%rax
   1018e:	48 89 85 40 fa ff ff 	mov    %rax,-0x5c0(%rbp)
   10195:	48 8d 85 bc de ff ff 	lea    -0x2144(%rbp),%rax
   1019c:	48 89 85 48 fa ff ff 	mov    %rax,-0x5b8(%rbp)
   101a3:	48 8d 85 90 e3 ff ff 	lea    -0x1c70(%rbp),%rax
   101aa:	48 83 c0 3c          	add    $0x3c,%rax
   101ae:	48 89 85 50 fa ff ff 	mov    %rax,-0x5b0(%rbp)
   101b5:	48 8d 05 d0 8e 01 00 	lea    0x18ed0(%rip),%rax        # 2908c <g_329>
   101bc:	48 89 85 58 fa ff ff 	mov    %rax,-0x5a8(%rbp)
   101c3:	48 8d 05 52 10 01 00 	lea    0x11052(%rip),%rax        # 2121c <g_185+0x4>
   101ca:	48 89 85 60 fa ff ff 	mov    %rax,-0x5a0(%rbp)
   101d1:	48 8d 05 b4 8e 01 00 	lea    0x18eb4(%rip),%rax        # 2908c <g_329>
   101d8:	48 89 85 68 fa ff ff 	mov    %rax,-0x598(%rbp)
   101df:	48 8d 85 b4 de ff ff 	lea    -0x214c(%rbp),%rax
   101e6:	48 89 85 70 fa ff ff 	mov    %rax,-0x590(%rbp)
   101ed:	48 8d 05 98 8e 01 00 	lea    0x18e98(%rip),%rax        # 2908c <g_329>
   101f4:	48 89 85 78 fa ff ff 	mov    %rax,-0x588(%rbp)
   101fb:	48 8d 85 b4 de ff ff 	lea    -0x214c(%rbp),%rax
   10202:	48 89 85 80 fa ff ff 	mov    %rax,-0x580(%rbp)
   10209:	48 8d 05 0c 10 01 00 	lea    0x1100c(%rip),%rax        # 2121c <g_185+0x4>
   10210:	48 89 85 88 fa ff ff 	mov    %rax,-0x578(%rbp)
   10217:	48 8d 05 ae 28 01 00 	lea    0x128ae(%rip),%rax        # 22acc <g_843+0x4>
   1021e:	48 89 85 90 fa ff ff 	mov    %rax,-0x570(%rbp)
   10225:	48 8d 85 bc de ff ff 	lea    -0x2144(%rbp),%rax
   1022c:	48 89 85 98 fa ff ff 	mov    %rax,-0x568(%rbp)
   10233:	48 8d 05 e2 0f 01 00 	lea    0x10fe2(%rip),%rax        # 2121c <g_185+0x4>
   1023a:	48 89 85 a0 fa ff ff 	mov    %rax,-0x560(%rbp)
   10241:	48 8d 05 84 28 01 00 	lea    0x12884(%rip),%rax        # 22acc <g_843+0x4>
   10248:	48 89 85 a8 fa ff ff 	mov    %rax,-0x558(%rbp)
   1024f:	48 8d 85 bc de ff ff 	lea    -0x2144(%rbp),%rax
   10256:	48 89 85 b0 fa ff ff 	mov    %rax,-0x550(%rbp)
   1025d:	48 8d 85 bc de ff ff 	lea    -0x2144(%rbp),%rax
   10264:	48 89 85 b8 fa ff ff 	mov    %rax,-0x548(%rbp)
   1026b:	48 8d 85 90 e3 ff ff 	lea    -0x1c70(%rbp),%rax
   10272:	48 83 c0 3c          	add    $0x3c,%rax
   10276:	48 89 85 c0 fa ff ff 	mov    %rax,-0x540(%rbp)
   1027d:	48 8d 85 bc de ff ff 	lea    -0x2144(%rbp),%rax
   10284:	48 89 85 c8 fa ff ff 	mov    %rax,-0x538(%rbp)
   1028b:	48 8d 05 fa 8d 01 00 	lea    0x18dfa(%rip),%rax        # 2908c <g_329>
   10292:	48 89 85 d0 fa ff ff 	mov    %rax,-0x530(%rbp)
   10299:	48 8d 85 90 e3 ff ff 	lea    -0x1c70(%rbp),%rax
   102a0:	48 83 c0 68          	add    $0x68,%rax
   102a4:	48 89 85 d8 fa ff ff 	mov    %rax,-0x528(%rbp)
   102ab:	48 8d 85 b4 de ff ff 	lea    -0x214c(%rbp),%rax
   102b2:	48 89 85 e0 fa ff ff 	mov    %rax,-0x520(%rbp)
   102b9:	48 8d 85 90 e3 ff ff 	lea    -0x1c70(%rbp),%rax
   102c0:	48 83 c0 3c          	add    $0x3c,%rax
   102c4:	48 89 85 e8 fa ff ff 	mov    %rax,-0x518(%rbp)
   102cb:	48 8d 85 b4 de ff ff 	lea    -0x214c(%rbp),%rax
   102d2:	48 89 85 f0 fa ff ff 	mov    %rax,-0x510(%rbp)
   102d9:	48 8d 85 b4 de ff ff 	lea    -0x214c(%rbp),%rax
   102e0:	48 89 85 f8 fa ff ff 	mov    %rax,-0x508(%rbp)
   102e7:	48 8d 85 b4 de ff ff 	lea    -0x214c(%rbp),%rax
   102ee:	48 89 85 00 fb ff ff 	mov    %rax,-0x500(%rbp)
   102f5:	48 8d 05 20 0f 01 00 	lea    0x10f20(%rip),%rax        # 2121c <g_185+0x4>
   102fc:	48 89 85 08 fb ff ff 	mov    %rax,-0x4f8(%rbp)
   10303:	48 8d 05 12 0f 01 00 	lea    0x10f12(%rip),%rax        # 2121c <g_185+0x4>
   1030a:	48 89 85 10 fb ff ff 	mov    %rax,-0x4f0(%rbp)
   10311:	48 8d 85 b4 de ff ff 	lea    -0x214c(%rbp),%rax
   10318:	48 89 85 18 fb ff ff 	mov    %rax,-0x4e8(%rbp)
   1031f:	48 8d 85 d8 e1 ff ff 	lea    -0x1e28(%rbp),%rax
   10326:	48 83 c0 04          	add    $0x4,%rax
   1032a:	48 89 85 20 fb ff ff 	mov    %rax,-0x4e0(%rbp)
   10331:	48 8d 85 90 e3 ff ff 	lea    -0x1c70(%rbp),%rax
   10338:	48 83 c0 3c          	add    $0x3c,%rax
   1033c:	48 89 85 28 fb ff ff 	mov    %rax,-0x4d8(%rbp)
   10343:	48 8d 85 90 e3 ff ff 	lea    -0x1c70(%rbp),%rax
   1034a:	48 83 c0 3c          	add    $0x3c,%rax
   1034e:	48 89 85 30 fb ff ff 	mov    %rax,-0x4d0(%rbp)
   10355:	48 8d 05 30 8d 01 00 	lea    0x18d30(%rip),%rax        # 2908c <g_329>
   1035c:	48 89 85 38 fb ff ff 	mov    %rax,-0x4c8(%rbp)
   10363:	48 8d 85 bc de ff ff 	lea    -0x2144(%rbp),%rax
   1036a:	48 89 85 40 fb ff ff 	mov    %rax,-0x4c0(%rbp)
   10371:	48 8d 85 bc de ff ff 	lea    -0x2144(%rbp),%rax
   10378:	48 89 85 48 fb ff ff 	mov    %rax,-0x4b8(%rbp)
   1037f:	48 8d 85 b4 de ff ff 	lea    -0x214c(%rbp),%rax
   10386:	48 89 85 50 fb ff ff 	mov    %rax,-0x4b0(%rbp)
   1038d:	48 8d 05 f8 8c 01 00 	lea    0x18cf8(%rip),%rax        # 2908c <g_329>
   10394:	48 89 85 58 fb ff ff 	mov    %rax,-0x4a8(%rbp)
   1039b:	48 c7 85 60 fb ff ff 	movq   $0x0,-0x4a0(%rbp)
   103a2:	00 00 00 00 
   103a6:	48 8d 85 90 e3 ff ff 	lea    -0x1c70(%rbp),%rax
   103ad:	48 83 c0 3c          	add    $0x3c,%rax
   103b1:	48 89 85 68 fb ff ff 	mov    %rax,-0x498(%rbp)
   103b8:	48 8d 85 b4 de ff ff 	lea    -0x214c(%rbp),%rax
   103bf:	48 89 85 70 fb ff ff 	mov    %rax,-0x490(%rbp)
   103c6:	48 c7 85 78 fb ff ff 	movq   $0x0,-0x488(%rbp)
   103cd:	00 00 00 00 
   103d1:	48 8d 85 b4 de ff ff 	lea    -0x214c(%rbp),%rax
   103d8:	48 89 85 80 fb ff ff 	mov    %rax,-0x480(%rbp)
   103df:	48 8d 85 bc de ff ff 	lea    -0x2144(%rbp),%rax
   103e6:	48 89 85 88 fb ff ff 	mov    %rax,-0x478(%rbp)
   103ed:	48 8d 85 d8 e1 ff ff 	lea    -0x1e28(%rbp),%rax
   103f4:	48 83 c0 04          	add    $0x4,%rax
   103f8:	48 89 85 90 fb ff ff 	mov    %rax,-0x470(%rbp)
   103ff:	48 8d 05 86 8c 01 00 	lea    0x18c86(%rip),%rax        # 2908c <g_329>
   10406:	48 89 85 98 fb ff ff 	mov    %rax,-0x468(%rbp)
   1040d:	48 8d 85 b4 de ff ff 	lea    -0x214c(%rbp),%rax
   10414:	48 89 85 a0 fb ff ff 	mov    %rax,-0x460(%rbp)
   1041b:	48 8d 05 6a 8c 01 00 	lea    0x18c6a(%rip),%rax        # 2908c <g_329>
   10422:	48 89 85 a8 fb ff ff 	mov    %rax,-0x458(%rbp)
   10429:	48 8d 85 d8 e1 ff ff 	lea    -0x1e28(%rbp),%rax
   10430:	48 83 c0 04          	add    $0x4,%rax
   10434:	48 89 85 b0 fb ff ff 	mov    %rax,-0x450(%rbp)
   1043b:	48 c7 85 b8 fb ff ff 	movq   $0x0,-0x448(%rbp)
   10442:	00 00 00 00 
   10446:	48 8d 85 b4 de ff ff 	lea    -0x214c(%rbp),%rax
   1044d:	48 89 85 c0 fb ff ff 	mov    %rax,-0x440(%rbp)
   10454:	48 8d 05 c1 0d 01 00 	lea    0x10dc1(%rip),%rax        # 2121c <g_185+0x4>
   1045b:	48 89 85 c8 fb ff ff 	mov    %rax,-0x438(%rbp)
   10462:	48 8d 05 b3 0d 01 00 	lea    0x10db3(%rip),%rax        # 2121c <g_185+0x4>
   10469:	48 89 85 d0 fb ff ff 	mov    %rax,-0x430(%rbp)
   10470:	48 8d 85 90 e3 ff ff 	lea    -0x1c70(%rbp),%rax
   10477:	48 83 c0 3c          	add    $0x3c,%rax
   1047b:	48 89 85 d8 fb ff ff 	mov    %rax,-0x428(%rbp)
   10482:	48 8d 85 b4 de ff ff 	lea    -0x214c(%rbp),%rax
   10489:	48 89 85 e0 fb ff ff 	mov    %rax,-0x420(%rbp)
   10490:	48 c7 85 e8 fb ff ff 	movq   $0x0,-0x418(%rbp)
   10497:	00 00 00 00 
   1049b:	48 8d 05 7a 0d 01 00 	lea    0x10d7a(%rip),%rax        # 2121c <g_185+0x4>
   104a2:	48 89 85 f0 fb ff ff 	mov    %rax,-0x410(%rbp)
   104a9:	48 8d 85 90 e3 ff ff 	lea    -0x1c70(%rbp),%rax
   104b0:	48 83 c0 68          	add    $0x68,%rax
   104b4:	48 89 85 f8 fb ff ff 	mov    %rax,-0x408(%rbp)
   104bb:	48 8d 85 d8 e1 ff ff 	lea    -0x1e28(%rbp),%rax
   104c2:	48 83 c0 04          	add    $0x4,%rax
   104c6:	48 89 85 00 fc ff ff 	mov    %rax,-0x400(%rbp)
   104cd:	48 8d 05 48 0d 01 00 	lea    0x10d48(%rip),%rax        # 2121c <g_185+0x4>
   104d4:	48 89 85 08 fc ff ff 	mov    %rax,-0x3f8(%rbp)
   104db:	48 8d 85 b4 de ff ff 	lea    -0x214c(%rbp),%rax
   104e2:	48 89 85 10 fc ff ff 	mov    %rax,-0x3f0(%rbp)
   104e9:	48 c7 85 18 fc ff ff 	movq   $0x0,-0x3e8(%rbp)
   104f0:	00 00 00 00 
   104f4:	48 c7 85 20 fc ff ff 	movq   $0x0,-0x3e0(%rbp)
   104fb:	00 00 00 00 
   104ff:	48 8d 85 bc de ff ff 	lea    -0x2144(%rbp),%rax
   10506:	48 89 85 28 fc ff ff 	mov    %rax,-0x3d8(%rbp)
   1050d:	48 8d 05 08 0d 01 00 	lea    0x10d08(%rip),%rax        # 2121c <g_185+0x4>
   10514:	48 89 85 30 fc ff ff 	mov    %rax,-0x3d0(%rbp)
   1051b:	48 8d 05 fa 0c 01 00 	lea    0x10cfa(%rip),%rax        # 2121c <g_185+0x4>
   10522:	48 89 85 38 fc ff ff 	mov    %rax,-0x3c8(%rbp)
   10529:	48 8d 85 bc de ff ff 	lea    -0x2144(%rbp),%rax
   10530:	48 89 85 40 fc ff ff 	mov    %rax,-0x3c0(%rbp)
   10537:	48 c7 85 48 fc ff ff 	movq   $0x0,-0x3b8(%rbp)
   1053e:	00 00 00 00 
   10542:	48 8d 85 b4 de ff ff 	lea    -0x214c(%rbp),%rax
   10549:	48 89 85 50 fc ff ff 	mov    %rax,-0x3b0(%rbp)
   10550:	48 8d 85 bc de ff ff 	lea    -0x2144(%rbp),%rax
   10557:	48 89 85 58 fc ff ff 	mov    %rax,-0x3a8(%rbp)
   1055e:	48 8d 85 b4 de ff ff 	lea    -0x214c(%rbp),%rax
   10565:	48 89 85 60 fc ff ff 	mov    %rax,-0x3a0(%rbp)
   1056c:	48 8d 85 b4 de ff ff 	lea    -0x214c(%rbp),%rax
   10573:	48 89 85 68 fc ff ff 	mov    %rax,-0x398(%rbp)
   1057a:	48 8d 85 b4 de ff ff 	lea    -0x214c(%rbp),%rax
   10581:	48 89 85 70 fc ff ff 	mov    %rax,-0x390(%rbp)
   10588:	48 8d 85 bc de ff ff 	lea    -0x2144(%rbp),%rax
   1058f:	48 89 85 78 fc ff ff 	mov    %rax,-0x388(%rbp)
   10596:	48 8d 85 bc de ff ff 	lea    -0x2144(%rbp),%rax
   1059d:	48 89 85 80 fc ff ff 	mov    %rax,-0x380(%rbp)
   105a4:	48 8d 85 d8 e1 ff ff 	lea    -0x1e28(%rbp),%rax
   105ab:	48 83 c0 04          	add    $0x4,%rax
   105af:	48 89 85 88 fc ff ff 	mov    %rax,-0x378(%rbp)
   105b6:	48 8d 85 b4 de ff ff 	lea    -0x214c(%rbp),%rax
   105bd:	48 89 85 90 fc ff ff 	mov    %rax,-0x370(%rbp)
   105c4:	48 8d 85 bc de ff ff 	lea    -0x2144(%rbp),%rax
   105cb:	48 89 85 98 fc ff ff 	mov    %rax,-0x368(%rbp)
   105d2:	48 8d 85 90 e3 ff ff 	lea    -0x1c70(%rbp),%rax
   105d9:	48 83 c0 3c          	add    $0x3c,%rax
   105dd:	48 89 85 a0 fc ff ff 	mov    %rax,-0x360(%rbp)
   105e4:	48 8d 05 a1 8a 01 00 	lea    0x18aa1(%rip),%rax        # 2908c <g_329>
   105eb:	48 89 85 a8 fc ff ff 	mov    %rax,-0x358(%rbp)
   105f2:	48 8d 85 bc de ff ff 	lea    -0x2144(%rbp),%rax
   105f9:	48 89 85 b0 fc ff ff 	mov    %rax,-0x350(%rbp)
   10600:	48 8d 85 90 e3 ff ff 	lea    -0x1c70(%rbp),%rax
   10607:	48 83 c0 3c          	add    $0x3c,%rax
   1060b:	48 89 85 b8 fc ff ff 	mov    %rax,-0x348(%rbp)
   10612:	48 8d 85 bc de ff ff 	lea    -0x2144(%rbp),%rax
   10619:	48 89 85 c0 fc ff ff 	mov    %rax,-0x340(%rbp)
   10620:	48 8d 85 b4 de ff ff 	lea    -0x214c(%rbp),%rax
   10627:	48 89 85 c8 fc ff ff 	mov    %rax,-0x338(%rbp)
   1062e:	48 8d 85 bc de ff ff 	lea    -0x2144(%rbp),%rax
   10635:	48 89 85 d0 fc ff ff 	mov    %rax,-0x330(%rbp)
   1063c:	48 8d 85 90 e3 ff ff 	lea    -0x1c70(%rbp),%rax
   10643:	48 83 c0 3c          	add    $0x3c,%rax
   10647:	48 89 85 d8 fc ff ff 	mov    %rax,-0x328(%rbp)
   1064e:	48 8d 85 b4 de ff ff 	lea    -0x214c(%rbp),%rax
   10655:	48 89 85 e0 fc ff ff 	mov    %rax,-0x320(%rbp)
   1065c:	48 8d 85 b4 de ff ff 	lea    -0x214c(%rbp),%rax
   10663:	48 89 85 e8 fc ff ff 	mov    %rax,-0x318(%rbp)
   1066a:	48 8d 05 ab 0b 01 00 	lea    0x10bab(%rip),%rax        # 2121c <g_185+0x4>
   10671:	48 89 85 f0 fc ff ff 	mov    %rax,-0x310(%rbp)
   10678:	48 8d 05 9d 0b 01 00 	lea    0x10b9d(%rip),%rax        # 2121c <g_185+0x4>
   1067f:	48 89 85 f8 fc ff ff 	mov    %rax,-0x308(%rbp)
   10686:	48 8d 85 90 e3 ff ff 	lea    -0x1c70(%rbp),%rax
   1068d:	48 83 c0 3c          	add    $0x3c,%rax
   10691:	48 89 85 00 fd ff ff 	mov    %rax,-0x300(%rbp)
   10698:	48 8d 85 b4 de ff ff 	lea    -0x214c(%rbp),%rax
   1069f:	48 89 85 08 fd ff ff 	mov    %rax,-0x2f8(%rbp)
   106a6:	48 c7 85 10 fd ff ff 	movq   $0x0,-0x2f0(%rbp)
   106ad:	00 00 00 00 
   106b1:	48 8d 85 90 e3 ff ff 	lea    -0x1c70(%rbp),%rax
   106b8:	48 83 c0 3c          	add    $0x3c,%rax
   106bc:	48 89 85 18 fd ff ff 	mov    %rax,-0x2e8(%rbp)
   106c3:	48 8d 85 b4 de ff ff 	lea    -0x214c(%rbp),%rax
   106ca:	48 89 85 20 fd ff ff 	mov    %rax,-0x2e0(%rbp)
   106d1:	48 8d 05 44 0b 01 00 	lea    0x10b44(%rip),%rax        # 2121c <g_185+0x4>
   106d8:	48 89 85 28 fd ff ff 	mov    %rax,-0x2d8(%rbp)
   106df:	48 c7 85 30 fd ff ff 	movq   $0x0,-0x2d0(%rbp)
   106e6:	00 00 00 00 
   106ea:	48 8d 85 bc de ff ff 	lea    -0x2144(%rbp),%rax
   106f1:	48 89 85 38 fd ff ff 	mov    %rax,-0x2c8(%rbp)
   106f8:	48 8d 05 1d 0b 01 00 	lea    0x10b1d(%rip),%rax        # 2121c <g_185+0x4>
   106ff:	48 89 85 40 fd ff ff 	mov    %rax,-0x2c0(%rbp)
   10706:	48 8d 85 90 e3 ff ff 	lea    -0x1c70(%rbp),%rax
   1070d:	48 83 c0 3c          	add    $0x3c,%rax
   10711:	48 89 85 48 fd ff ff 	mov    %rax,-0x2b8(%rbp)
   10718:	48 8d 85 90 e3 ff ff 	lea    -0x1c70(%rbp),%rax
   1071f:	48 83 c0 68          	add    $0x68,%rax
   10723:	48 89 85 50 fd ff ff 	mov    %rax,-0x2b0(%rbp)
   1072a:	48 8d 85 90 e3 ff ff 	lea    -0x1c70(%rbp),%rax
   10731:	48 83 c0 3c          	add    $0x3c,%rax
   10735:	48 89 85 58 fd ff ff 	mov    %rax,-0x2a8(%rbp)
   1073c:	48 8d 85 90 e3 ff ff 	lea    -0x1c70(%rbp),%rax
   10743:	48 83 c0 3c          	add    $0x3c,%rax
   10747:	48 89 85 60 fd ff ff 	mov    %rax,-0x2a0(%rbp)
   1074e:	48 8d 85 90 e3 ff ff 	lea    -0x1c70(%rbp),%rax
   10755:	48 83 c0 68          	add    $0x68,%rax
   10759:	48 89 85 68 fd ff ff 	mov    %rax,-0x298(%rbp)
   10760:	48 8d 85 b4 de ff ff 	lea    -0x214c(%rbp),%rax
   10767:	48 89 85 70 fd ff ff 	mov    %rax,-0x290(%rbp)
   1076e:	48 8d 85 b4 de ff ff 	lea    -0x214c(%rbp),%rax
   10775:	48 89 85 78 fd ff ff 	mov    %rax,-0x288(%rbp)
   1077c:	48 8d 85 90 e3 ff ff 	lea    -0x1c70(%rbp),%rax
   10783:	48 83 c0 3c          	add    $0x3c,%rax
   10787:	48 89 85 80 fd ff ff 	mov    %rax,-0x280(%rbp)
   1078e:	48 8d 05 f7 88 01 00 	lea    0x188f7(%rip),%rax        # 2908c <g_329>
   10795:	48 89 85 88 fd ff ff 	mov    %rax,-0x278(%rbp)
   1079c:	48 8d 85 bc de ff ff 	lea    -0x2144(%rbp),%rax
   107a3:	48 89 85 90 fd ff ff 	mov    %rax,-0x270(%rbp)
   107aa:	48 8d 85 bc de ff ff 	lea    -0x2144(%rbp),%rax
   107b1:	48 89 85 98 fd ff ff 	mov    %rax,-0x268(%rbp)
   107b8:	48 8d 85 d8 e1 ff ff 	lea    -0x1e28(%rbp),%rax
   107bf:	48 83 c0 04          	add    $0x4,%rax
   107c3:	48 89 85 a0 fd ff ff 	mov    %rax,-0x260(%rbp)
   107ca:	48 8d 85 90 e3 ff ff 	lea    -0x1c70(%rbp),%rax
   107d1:	48 83 c0 3c          	add    $0x3c,%rax
   107d5:	48 89 85 a8 fd ff ff 	mov    %rax,-0x258(%rbp)
   107dc:	48 8d 05 a9 88 01 00 	lea    0x188a9(%rip),%rax        # 2908c <g_329>
   107e3:	48 89 85 b0 fd ff ff 	mov    %rax,-0x250(%rbp)
   107ea:	48 c7 85 b8 fd ff ff 	movq   $0x0,-0x248(%rbp)
   107f1:	00 00 00 00 
   107f5:	48 8d 85 90 e3 ff ff 	lea    -0x1c70(%rbp),%rax
   107fc:	48 83 c0 3c          	add    $0x3c,%rax
   10800:	48 89 85 c0 fd ff ff 	mov    %rax,-0x240(%rbp)
   10807:	48 8d 85 90 e3 ff ff 	lea    -0x1c70(%rbp),%rax
   1080e:	48 83 c0 3c          	add    $0x3c,%rax
   10812:	48 89 85 c8 fd ff ff 	mov    %rax,-0x238(%rbp)
   10819:	48 c7 85 d0 fd ff ff 	movq   $0x0,-0x230(%rbp)
   10820:	00 00 00 00 
   10824:	48 8d 85 d8 e1 ff ff 	lea    -0x1e28(%rbp),%rax
   1082b:	48 83 c0 04          	add    $0x4,%rax
   1082f:	48 89 85 d8 fd ff ff 	mov    %rax,-0x228(%rbp)
   10836:	48 8d 05 4f 88 01 00 	lea    0x1884f(%rip),%rax        # 2908c <g_329>
   1083d:	48 89 85 e0 fd ff ff 	mov    %rax,-0x220(%rbp)
   10844:	48 8d 85 bc de ff ff 	lea    -0x2144(%rbp),%rax
   1084b:	48 89 85 e8 fd ff ff 	mov    %rax,-0x218(%rbp)
   10852:	48 8d 85 b4 de ff ff 	lea    -0x214c(%rbp),%rax
   10859:	48 89 85 f0 fd ff ff 	mov    %rax,-0x210(%rbp)
   10860:	48 8d 85 bc de ff ff 	lea    -0x2144(%rbp),%rax
   10867:	48 89 85 f8 fd ff ff 	mov    %rax,-0x208(%rbp)
   1086e:	48 8d 85 90 e3 ff ff 	lea    -0x1c70(%rbp),%rax
   10875:	48 83 c0 3c          	add    $0x3c,%rax
   10879:	48 89 85 00 fe ff ff 	mov    %rax,-0x200(%rbp)
   10880:	48 8d 85 bc de ff ff 	lea    -0x2144(%rbp),%rax
   10887:	48 89 85 08 fe ff ff 	mov    %rax,-0x1f8(%rbp)
   1088e:	48 8d 85 90 e3 ff ff 	lea    -0x1c70(%rbp),%rax
   10895:	48 83 c0 3c          	add    $0x3c,%rax
   10899:	48 89 85 10 fe ff ff 	mov    %rax,-0x1f0(%rbp)
   108a0:	48 8d 85 b4 de ff ff 	lea    -0x214c(%rbp),%rax
   108a7:	48 89 85 18 fe ff ff 	mov    %rax,-0x1e8(%rbp)
   108ae:	48 8d 85 bc de ff ff 	lea    -0x2144(%rbp),%rax
   108b5:	48 89 85 20 fe ff ff 	mov    %rax,-0x1e0(%rbp)
   108bc:	48 8d 85 90 e3 ff ff 	lea    -0x1c70(%rbp),%rax
   108c3:	48 83 c0 68          	add    $0x68,%rax
   108c7:	48 89 85 28 fe ff ff 	mov    %rax,-0x1d8(%rbp)
   108ce:	48 8d 85 b4 de ff ff 	lea    -0x214c(%rbp),%rax
   108d5:	48 89 85 30 fe ff ff 	mov    %rax,-0x1d0(%rbp)
   108dc:	48 8d 85 bc de ff ff 	lea    -0x2144(%rbp),%rax
   108e3:	48 89 85 38 fe ff ff 	mov    %rax,-0x1c8(%rbp)
   108ea:	48 8d 85 90 e3 ff ff 	lea    -0x1c70(%rbp),%rax
   108f1:	48 83 c0 68          	add    $0x68,%rax
   108f5:	48 89 85 40 fe ff ff 	mov    %rax,-0x1c0(%rbp)
   108fc:	48 8d 85 90 e3 ff ff 	lea    -0x1c70(%rbp),%rax
   10903:	48 83 c0 3c          	add    $0x3c,%rax
   10907:	48 89 85 48 fe ff ff 	mov    %rax,-0x1b8(%rbp)
   1090e:	48 8d 85 b4 de ff ff 	lea    -0x214c(%rbp),%rax
   10915:	48 89 85 50 fe ff ff 	mov    %rax,-0x1b0(%rbp)
   1091c:	48 8d 85 bc de ff ff 	lea    -0x2144(%rbp),%rax
   10923:	48 89 85 58 fe ff ff 	mov    %rax,-0x1a8(%rbp)
   1092a:	48 8d 05 5b 87 01 00 	lea    0x1875b(%rip),%rax        # 2908c <g_329>
   10931:	48 89 85 60 fe ff ff 	mov    %rax,-0x1a0(%rbp)
   10938:	48 8d 85 90 e3 ff ff 	lea    -0x1c70(%rbp),%rax
   1093f:	48 83 c0 68          	add    $0x68,%rax
   10943:	48 89 85 68 fe ff ff 	mov    %rax,-0x198(%rbp)
   1094a:	48 8d 85 b4 de ff ff 	lea    -0x214c(%rbp),%rax
   10951:	48 89 85 70 fe ff ff 	mov    %rax,-0x190(%rbp)
   10958:	48 8d 85 90 e3 ff ff 	lea    -0x1c70(%rbp),%rax
   1095f:	48 83 c0 3c          	add    $0x3c,%rax
   10963:	48 89 85 78 fe ff ff 	mov    %rax,-0x188(%rbp)
   1096a:	48 8d 85 b4 de ff ff 	lea    -0x214c(%rbp),%rax
   10971:	48 89 85 80 fe ff ff 	mov    %rax,-0x180(%rbp)
   10978:	48 8d 85 b4 de ff ff 	lea    -0x214c(%rbp),%rax
   1097f:	48 89 85 88 fe ff ff 	mov    %rax,-0x178(%rbp)
   10986:	48 8d 85 b4 de ff ff 	lea    -0x214c(%rbp),%rax
   1098d:	48 89 85 90 fe ff ff 	mov    %rax,-0x170(%rbp)
   10994:	48 8d 05 81 08 01 00 	lea    0x10881(%rip),%rax        # 2121c <g_185+0x4>
   1099b:	48 89 85 98 fe ff ff 	mov    %rax,-0x168(%rbp)
   109a2:	48 8d 05 73 08 01 00 	lea    0x10873(%rip),%rax        # 2121c <g_185+0x4>
   109a9:	48 89 85 a0 fe ff ff 	mov    %rax,-0x160(%rbp)
   109b0:	48 8d 85 b4 de ff ff 	lea    -0x214c(%rbp),%rax
   109b7:	48 89 85 a8 fe ff ff 	mov    %rax,-0x158(%rbp)
   109be:	48 8d 85 d8 e1 ff ff 	lea    -0x1e28(%rbp),%rax
   109c5:	48 83 c0 04          	add    $0x4,%rax
   109c9:	48 89 85 b0 fe ff ff 	mov    %rax,-0x150(%rbp)
   109d0:	48 8d 85 90 e3 ff ff 	lea    -0x1c70(%rbp),%rax
   109d7:	48 83 c0 3c          	add    $0x3c,%rax
   109db:	48 89 85 b8 fe ff ff 	mov    %rax,-0x148(%rbp)
   109e2:	48 8d 85 90 e3 ff ff 	lea    -0x1c70(%rbp),%rax
   109e9:	48 83 c0 3c          	add    $0x3c,%rax
   109ed:	48 89 85 c0 fe ff ff 	mov    %rax,-0x140(%rbp)
   109f4:	48 8d 05 91 86 01 00 	lea    0x18691(%rip),%rax        # 2908c <g_329>
   109fb:	48 89 85 c8 fe ff ff 	mov    %rax,-0x138(%rbp)
   10a02:	48 8d 85 bc de ff ff 	lea    -0x2144(%rbp),%rax
   10a09:	48 89 85 d0 fe ff ff 	mov    %rax,-0x130(%rbp)
   10a10:	48 8d 85 bc de ff ff 	lea    -0x2144(%rbp),%rax
   10a17:	48 89 85 d8 fe ff ff 	mov    %rax,-0x128(%rbp)
   10a1e:	48 8d 85 b4 de ff ff 	lea    -0x214c(%rbp),%rax
   10a25:	48 89 85 e0 fe ff ff 	mov    %rax,-0x120(%rbp)
   10a2c:	48 8d 05 59 86 01 00 	lea    0x18659(%rip),%rax        # 2908c <g_329>
   10a33:	48 89 85 e8 fe ff ff 	mov    %rax,-0x118(%rbp)
   10a3a:	48 c7 85 f0 fe ff ff 	movq   $0x0,-0x110(%rbp)
   10a41:	00 00 00 00 
   10a45:	48 8d 85 90 e3 ff ff 	lea    -0x1c70(%rbp),%rax
   10a4c:	48 83 c0 3c          	add    $0x3c,%rax
   10a50:	48 89 85 f8 fe ff ff 	mov    %rax,-0x108(%rbp)
   10a57:	48 8d 85 b4 de ff ff 	lea    -0x214c(%rbp),%rax
   10a5e:	48 89 85 00 ff ff ff 	mov    %rax,-0x100(%rbp)
   10a65:	48 c7 85 08 ff ff ff 	movq   $0x0,-0xf8(%rbp)
   10a6c:	00 00 00 00 
   10a70:	48 8d 85 b4 de ff ff 	lea    -0x214c(%rbp),%rax
   10a77:	48 89 85 10 ff ff ff 	mov    %rax,-0xf0(%rbp)
   10a7e:	48 8d 85 bc de ff ff 	lea    -0x2144(%rbp),%rax
   10a85:	48 89 85 18 ff ff ff 	mov    %rax,-0xe8(%rbp)
   10a8c:	48 8d 85 d8 e1 ff ff 	lea    -0x1e28(%rbp),%rax
   10a93:	48 83 c0 04          	add    $0x4,%rax
   10a97:	48 89 85 20 ff ff ff 	mov    %rax,-0xe0(%rbp)
   10a9e:	48 8d 05 e7 85 01 00 	lea    0x185e7(%rip),%rax        # 2908c <g_329>
   10aa5:	48 89 85 28 ff ff ff 	mov    %rax,-0xd8(%rbp)
   10aac:	48 8d 85 b4 de ff ff 	lea    -0x214c(%rbp),%rax
   10ab3:	48 89 85 30 ff ff ff 	mov    %rax,-0xd0(%rbp)
   10aba:	48 8d 05 cb 85 01 00 	lea    0x185cb(%rip),%rax        # 2908c <g_329>
   10ac1:	48 89 85 38 ff ff ff 	mov    %rax,-0xc8(%rbp)
   10ac8:	48 8d 85 d8 e1 ff ff 	lea    -0x1e28(%rbp),%rax
   10acf:	48 83 c0 04          	add    $0x4,%rax
   10ad3:	48 89 85 40 ff ff ff 	mov    %rax,-0xc0(%rbp)
   10ada:	48 c7 85 48 ff ff ff 	movq   $0x0,-0xb8(%rbp)
   10ae1:	00 00 00 00 
   10ae5:	48 8d 85 b4 de ff ff 	lea    -0x214c(%rbp),%rax
   10aec:	48 89 85 50 ff ff ff 	mov    %rax,-0xb0(%rbp)
   10af3:	48 8d 05 22 07 01 00 	lea    0x10722(%rip),%rax        # 2121c <g_185+0x4>
   10afa:	48 89 85 58 ff ff ff 	mov    %rax,-0xa8(%rbp)
   10b01:	48 8d 05 14 07 01 00 	lea    0x10714(%rip),%rax        # 2121c <g_185+0x4>
   10b08:	48 89 85 60 ff ff ff 	mov    %rax,-0xa0(%rbp)
   10b0f:	48 8d 85 90 e3 ff ff 	lea    -0x1c70(%rbp),%rax
   10b16:	48 83 c0 3c          	add    $0x3c,%rax
   10b1a:	48 89 85 68 ff ff ff 	mov    %rax,-0x98(%rbp)
   10b21:	48 8d 85 b4 de ff ff 	lea    -0x214c(%rbp),%rax
   10b28:	48 89 85 70 ff ff ff 	mov    %rax,-0x90(%rbp)
   10b2f:	48 c7 85 78 ff ff ff 	movq   $0x0,-0x88(%rbp)
   10b36:	00 00 00 00 
   10b3a:	48 8d 05 db 06 01 00 	lea    0x106db(%rip),%rax        # 2121c <g_185+0x4>
   10b41:	48 89 45 80          	mov    %rax,-0x80(%rbp)
   10b45:	48 8d 85 90 e3 ff ff 	lea    -0x1c70(%rbp),%rax
   10b4c:	48 83 c0 68          	add    $0x68,%rax
   10b50:	48 89 45 88          	mov    %rax,-0x78(%rbp)
   10b54:	48 8d 85 d8 e1 ff ff 	lea    -0x1e28(%rbp),%rax
   10b5b:	48 83 c0 04          	add    $0x4,%rax
   10b5f:	48 89 45 90          	mov    %rax,-0x70(%rbp)
   10b63:	48 8d 05 b2 06 01 00 	lea    0x106b2(%rip),%rax        # 2121c <g_185+0x4>
   10b6a:	48 89 45 98          	mov    %rax,-0x68(%rbp)
   10b6e:	48 8d 85 b4 de ff ff 	lea    -0x214c(%rbp),%rax
   10b75:	48 89 45 a0          	mov    %rax,-0x60(%rbp)
   10b79:	48 c7 45 a8 00 00 00 	movq   $0x0,-0x58(%rbp)
   10b80:	00 
   10b81:	48 8d 85 30 f8 ff ff 	lea    -0x7d0(%rbp),%rax
   10b88:	48 83 c0 20          	add    $0x20,%rax
   10b8c:	48 89 85 b8 df ff ff 	mov    %rax,-0x2048(%rbp)
   10b93:	48 8d 85 b8 df ff ff 	lea    -0x2048(%rbp),%rax
   10b9a:	48 89 85 48 e0 ff ff 	mov    %rax,-0x1fb8(%rbp)
   10ba1:	c7 85 2c df ff ff fe 	movl   $0xfffffffe,-0x20d4(%rbp)
   10ba8:	ff ff ff 
   10bab:	48 8d 05 1e 74 01 00 	lea    0x1741e(%rip),%rax        # 27fd0 <g_1164>
   10bb2:	48 89 85 30 e5 ff ff 	mov    %rax,-0x1ad0(%rbp)
   10bb9:	48 8d 05 10 74 01 00 	lea    0x17410(%rip),%rax        # 27fd0 <g_1164>
   10bc0:	48 89 85 38 e5 ff ff 	mov    %rax,-0x1ac8(%rbp)
   10bc7:	48 8d 05 02 74 01 00 	lea    0x17402(%rip),%rax        # 27fd0 <g_1164>
   10bce:	48 89 85 40 e5 ff ff 	mov    %rax,-0x1ac0(%rbp)
   10bd5:	48 8d 05 f4 73 01 00 	lea    0x173f4(%rip),%rax        # 27fd0 <g_1164>
   10bdc:	48 89 85 48 e5 ff ff 	mov    %rax,-0x1ab8(%rbp)
   10be3:	48 8d 05 e6 73 01 00 	lea    0x173e6(%rip),%rax        # 27fd0 <g_1164>
   10bea:	48 89 85 50 e5 ff ff 	mov    %rax,-0x1ab0(%rbp)
   10bf1:	48 8d 05 d8 73 01 00 	lea    0x173d8(%rip),%rax        # 27fd0 <g_1164>
   10bf8:	48 89 85 58 e5 ff ff 	mov    %rax,-0x1aa8(%rbp)
   10bff:	48 8d 05 ca 73 01 00 	lea    0x173ca(%rip),%rax        # 27fd0 <g_1164>
   10c06:	48 89 85 60 e5 ff ff 	mov    %rax,-0x1aa0(%rbp)
   10c0d:	48 8d 05 bc 73 01 00 	lea    0x173bc(%rip),%rax        # 27fd0 <g_1164>
   10c14:	48 89 85 68 e5 ff ff 	mov    %rax,-0x1a98(%rbp)
   10c1b:	48 8d 05 ae 73 01 00 	lea    0x173ae(%rip),%rax        # 27fd0 <g_1164>
   10c22:	48 89 85 70 e5 ff ff 	mov    %rax,-0x1a90(%rbp)
   10c29:	48 8d 05 a0 73 01 00 	lea    0x173a0(%rip),%rax        # 27fd0 <g_1164>
   10c30:	48 89 85 78 e5 ff ff 	mov    %rax,-0x1a88(%rbp)
   10c37:	48 8d 05 92 73 01 00 	lea    0x17392(%rip),%rax        # 27fd0 <g_1164>
   10c3e:	48 89 85 80 e5 ff ff 	mov    %rax,-0x1a80(%rbp)
   10c45:	48 8d 05 84 73 01 00 	lea    0x17384(%rip),%rax        # 27fd0 <g_1164>
   10c4c:	48 89 85 88 e5 ff ff 	mov    %rax,-0x1a78(%rbp)
   10c53:	48 8d 05 76 73 01 00 	lea    0x17376(%rip),%rax        # 27fd0 <g_1164>
   10c5a:	48 89 85 90 e5 ff ff 	mov    %rax,-0x1a70(%rbp)
   10c61:	48 8d 05 68 73 01 00 	lea    0x17368(%rip),%rax        # 27fd0 <g_1164>
   10c68:	48 89 85 98 e5 ff ff 	mov    %rax,-0x1a68(%rbp)
   10c6f:	48 8d 05 5a 73 01 00 	lea    0x1735a(%rip),%rax        # 27fd0 <g_1164>
   10c76:	48 89 85 a0 e5 ff ff 	mov    %rax,-0x1a60(%rbp)
   10c7d:	48 8d 05 4c 73 01 00 	lea    0x1734c(%rip),%rax        # 27fd0 <g_1164>
   10c84:	48 89 85 a8 e5 ff ff 	mov    %rax,-0x1a58(%rbp)
   10c8b:	48 8d 05 3e 73 01 00 	lea    0x1733e(%rip),%rax        # 27fd0 <g_1164>
   10c92:	48 89 85 b0 e5 ff ff 	mov    %rax,-0x1a50(%rbp)
   10c99:	48 8d 05 30 73 01 00 	lea    0x17330(%rip),%rax        # 27fd0 <g_1164>
   10ca0:	48 89 85 b8 e5 ff ff 	mov    %rax,-0x1a48(%rbp)
   10ca7:	48 8d 05 22 73 01 00 	lea    0x17322(%rip),%rax        # 27fd0 <g_1164>
   10cae:	48 89 85 c0 e5 ff ff 	mov    %rax,-0x1a40(%rbp)
   10cb5:	48 8d 05 14 73 01 00 	lea    0x17314(%rip),%rax        # 27fd0 <g_1164>
   10cbc:	48 89 85 c8 e5 ff ff 	mov    %rax,-0x1a38(%rbp)
   10cc3:	48 8d 05 06 73 01 00 	lea    0x17306(%rip),%rax        # 27fd0 <g_1164>
   10cca:	48 89 85 d0 e5 ff ff 	mov    %rax,-0x1a30(%rbp)
   10cd1:	48 8d 05 58 03 01 00 	lea    0x10358(%rip),%rax        # 21030 <g_27>
   10cd8:	48 89 85 90 e4 ff ff 	mov    %rax,-0x1b70(%rbp)
   10cdf:	48 8d 05 4a 04 01 00 	lea    0x1044a(%rip),%rax        # 21130 <g_137>
   10ce6:	48 89 85 98 e4 ff ff 	mov    %rax,-0x1b68(%rbp)
   10ced:	48 8d 05 3c 03 01 00 	lea    0x1033c(%rip),%rax        # 21030 <g_27>
   10cf4:	48 89 85 a0 e4 ff ff 	mov    %rax,-0x1b60(%rbp)
   10cfb:	48 c7 85 a8 e4 ff ff 	movq   $0x0,-0x1b58(%rbp)
   10d02:	00 00 00 00 
   10d06:	48 8d 05 23 04 01 00 	lea    0x10423(%rip),%rax        # 21130 <g_137>
   10d0d:	48 89 85 b0 e4 ff ff 	mov    %rax,-0x1b50(%rbp)
   10d14:	48 c7 85 b8 e4 ff ff 	movq   $0x0,-0x1b48(%rbp)
   10d1b:	00 00 00 00 
   10d1f:	48 8d 05 0a 03 01 00 	lea    0x1030a(%rip),%rax        # 21030 <g_27>
   10d26:	48 89 85 c0 e4 ff ff 	mov    %rax,-0x1b40(%rbp)
   10d2d:	48 8d 05 fc 03 01 00 	lea    0x103fc(%rip),%rax        # 21130 <g_137>
   10d34:	48 89 85 c8 e4 ff ff 	mov    %rax,-0x1b38(%rbp)
   10d3b:	48 8d 05 ee 02 01 00 	lea    0x102ee(%rip),%rax        # 21030 <g_27>
   10d42:	48 89 85 d0 e4 ff ff 	mov    %rax,-0x1b30(%rbp)
   10d49:	48 c7 85 d8 e4 ff ff 	movq   $0x0,-0x1b28(%rbp)
   10d50:	00 00 00 00 
   10d54:	48 8d 05 d5 03 01 00 	lea    0x103d5(%rip),%rax        # 21130 <g_137>
   10d5b:	48 89 85 e0 e4 ff ff 	mov    %rax,-0x1b20(%rbp)
   10d62:	48 c7 85 e8 e4 ff ff 	movq   $0x0,-0x1b18(%rbp)
   10d69:	00 00 00 00 
   10d6d:	48 8d 05 bc 02 01 00 	lea    0x102bc(%rip),%rax        # 21030 <g_27>
   10d74:	48 89 85 f0 e4 ff ff 	mov    %rax,-0x1b10(%rbp)
   10d7b:	48 8d 85 58 df ff ff 	lea    -0x20a8(%rbp),%rax
   10d82:	48 89 85 f8 e4 ff ff 	mov    %rax,-0x1b08(%rbp)
   10d89:	48 8d 05 a0 03 01 00 	lea    0x103a0(%rip),%rax        # 21130 <g_137>
   10d90:	48 89 85 00 e5 ff ff 	mov    %rax,-0x1b00(%rbp)
   10d97:	48 8d 05 92 03 01 00 	lea    0x10392(%rip),%rax        # 21130 <g_137>
   10d9e:	48 89 85 08 e5 ff ff 	mov    %rax,-0x1af8(%rbp)
   10da5:	48 8d 85 60 df ff ff 	lea    -0x20a0(%rbp),%rax
   10dac:	48 89 85 10 e5 ff ff 	mov    %rax,-0x1af0(%rbp)
   10db3:	48 8d 05 76 03 01 00 	lea    0x10376(%rip),%rax        # 21130 <g_137>
   10dba:	48 89 85 18 e5 ff ff 	mov    %rax,-0x1ae8(%rbp)
   10dc1:	48 8d 05 68 03 01 00 	lea    0x10368(%rip),%rax        # 21130 <g_137>
   10dc8:	48 89 85 20 e5 ff ff 	mov    %rax,-0x1ae0(%rbp)
   10dcf:	48 8d 85 58 df ff ff 	lea    -0x20a8(%rbp),%rax
   10dd6:	48 89 85 28 e5 ff ff 	mov    %rax,-0x1ad8(%rbp)
   10ddd:	48 8d 85 a8 de ff ff 	lea    -0x2158(%rbp),%rax
   10de4:	48 89 85 50 e0 ff ff 	mov    %rax,-0x1fb0(%rbp)
   10deb:	48 c7 85 58 e0 ff ff 	movq   $0x0,-0x1fa8(%rbp)
   10df2:	00 00 00 00 
   10df6:	48 8d 85 f2 e1 ff ff 	lea    -0x1e0e(%rbp),%rax
   10dfd:	48 83 c0 02          	add    $0x2,%rax
   10e01:	48 89 85 60 e0 ff ff 	mov    %rax,-0x1fa0(%rbp)
   10e08:	0f b7 85 a8 de ff ff 	movzwl -0x2158(%rbp),%eax
   10e0f:	0f b7 d8             	movzwl %ax,%ebx
   10e12:	8b 85 28 df ff ff    	mov    -0x20d8(%rbp),%eax
   10e18:	0f b6 c0             	movzbl %al,%eax
   10e1b:	be 03 00 00 00       	mov    $0x3,%esi
   10e20:	89 c7                	mov    %eax,%edi
   10e22:	e8 de 8d ff ff       	callq  9c05 <safe_lshift_func_uint8_t_u_s>
   10e27:	89 c2                	mov    %eax,%edx
   10e29:	48 8b 85 78 df ff ff 	mov    -0x2088(%rbp),%rax
   10e30:	0f b6 d2             	movzbl %dl,%edx
   10e33:	89 10                	mov    %edx,(%rax)
   10e35:	44 8b 28             	mov    (%rax),%r13d
   10e38:	48 8b 85 90 de ff ff 	mov    -0x2170(%rbp),%rax
   10e3f:	44 0f b7 e0          	movzwl %ax,%r12d
   10e43:	48 8b 85 b8 df ff ff 	mov    -0x2048(%rbp),%rax
   10e4a:	48 89 85 28 e0 ff ff 	mov    %rax,-0x1fd8(%rbp)
   10e51:	48 8b 85 48 e0 ff ff 	mov    -0x1fb8(%rbp),%rax
   10e58:	48 8b 95 28 e0 ff ff 	mov    -0x1fd8(%rbp),%rdx
   10e5f:	48 89 10             	mov    %rdx,(%rax)
   10e62:	48 8b 85 48 e0 ff ff 	mov    -0x1fb8(%rbp),%rax
   10e69:	48 8b 00             	mov    (%rax),%rax
   10e6c:	48 8d 95 30 f8 ff ff 	lea    -0x7d0(%rbp),%rdx
   10e73:	48 83 c2 20          	add    $0x20,%rdx
   10e77:	48 39 d0             	cmp    %rdx,%rax
   10e7a:	75 0f                	jne    10e8b <func_58+0x3bca>
   10e7c:	8b 05 de b1 00 00    	mov    0xb1de(%rip),%eax        # 1c060 <g_476>
   10e82:	25 ff ff ff 0f       	and    $0xfffffff,%eax
   10e87:	85 c0                	test   %eax,%eax
   10e89:	74 07                	je     10e92 <func_58+0x3bd1>
   10e8b:	b8 01 00 00 00       	mov    $0x1,%eax
   10e90:	eb 05                	jmp    10e97 <func_58+0x3bd6>
   10e92:	b8 00 00 00 00       	mov    $0x0,%eax
   10e97:	0f b7 c0             	movzwl %ax,%eax
   10e9a:	89 c6                	mov    %eax,%esi
   10e9c:	bf 74 a1 00 00       	mov    $0xa174,%edi
   10ea1:	e8 97 8e ff ff       	callq  9d3d <safe_mul_func_uint16_t_u_u>
   10ea6:	0f be d0             	movsbl %al,%edx
   10ea9:	0f b6 85 98 de ff ff 	movzbl -0x2168(%rbp),%eax
   10eb0:	0f be c0             	movsbl %al,%eax
   10eb3:	89 d6                	mov    %edx,%esi
   10eb5:	89 c7                	mov    %eax,%edi
   10eb7:	e8 36 83 ff ff       	callq  91f2 <safe_sub_func_int8_t_s_s>
   10ebc:	66 98                	cbtw   
   10ebe:	0f b7 c0             	movzwl %ax,%eax
   10ec1:	44 89 e6             	mov    %r12d,%esi
   10ec4:	89 c7                	mov    %eax,%edi
   10ec6:	e8 34 8e ff ff       	callq  9cff <safe_add_func_uint16_t_u_u>
   10ecb:	0f b7 d0             	movzwl %ax,%edx
   10ece:	48 8b 85 88 de ff ff 	mov    -0x2178(%rbp),%rax
   10ed5:	8b 00                	mov    (%rax),%eax
   10ed7:	39 c2                	cmp    %eax,%edx
   10ed9:	0f 9c c0             	setl   %al
   10edc:	0f b6 c0             	movzbl %al,%eax
   10edf:	41 39 c5             	cmp    %eax,%r13d
   10ee2:	0f 9f c0             	setg   %al
   10ee5:	0f b6 c0             	movzbl %al,%eax
   10ee8:	89 de                	mov    %ebx,%esi
   10eea:	89 c7                	mov    %eax,%edi
   10eec:	e8 cd 8e ff ff       	callq  9dbe <safe_lshift_func_uint16_t_u_s>
   10ef1:	0f b7 c0             	movzwl %ax,%eax
   10ef4:	23 85 18 df ff ff    	and    -0x20e8(%rbp),%eax
   10efa:	89 c6                	mov    %eax,%esi
   10efc:	bf 01 00 00 00       	mov    $0x1,%edi
   10f01:	e8 5d 86 ff ff       	callq  9563 <safe_rshift_func_int16_t_s_u>
   10f06:	98                   	cwtl   
   10f07:	31 85 2c df ff ff    	xor    %eax,-0x20d4(%rbp)
   10f0d:	c7 05 01 02 01 00 00 	movl   $0x0,0x10201(%rip)        # 21118 <g_34>
   10f14:	00 00 00 
   10f17:	e9 a4 04 00 00       	jmpq   113c0 <func_58+0x40ff>
   10f1c:	48 8d 05 dd 67 01 00 	lea    0x167dd(%rip),%rax        # 27700 <g_106>
   10f23:	48 89 85 68 e0 ff ff 	mov    %rax,-0x1f98(%rbp)
   10f2a:	66 c7 85 60 e7 ff ff 	movw   $0x8101,-0x18a0(%rbp)
   10f31:	01 81 
   10f33:	66 c7 85 62 e7 ff ff 	movw   $0xffff,-0x189e(%rbp)
   10f3a:	ff ff 
   10f3c:	66 c7 85 64 e7 ff ff 	movw   $0x81ff,-0x189c(%rbp)
   10f43:	ff 81 
   10f45:	66 c7 85 66 e7 ff ff 	movw   $0x101,-0x189a(%rbp)
   10f4c:	01 01 
   10f4e:	66 c7 85 68 e7 ff ff 	movw   $0x3e81,-0x1898(%rbp)
   10f55:	81 3e 
   10f57:	66 c7 85 6a e7 ff ff 	movw   $0x9c11,-0x1896(%rbp)
   10f5e:	11 9c 
   10f60:	66 c7 85 6c e7 ff ff 	movw   $0x5a,-0x1894(%rbp)
   10f67:	5a 00 
   10f69:	66 c7 85 6e e7 ff ff 	movw   $0xff00,-0x1892(%rbp)
   10f70:	00 ff 
   10f72:	66 c7 85 70 e7 ff ff 	movw   $0xf801,-0x1890(%rbp)
   10f79:	01 f8 
   10f7b:	66 c7 85 72 e7 ff ff 	movw   $0x8808,-0x188e(%rbp)
   10f82:	08 88 
   10f84:	66 c7 85 74 e7 ff ff 	movw   $0x18a9,-0x188c(%rbp)
   10f8b:	a9 18 
   10f8d:	66 c7 85 76 e7 ff ff 	movw   $0xff00,-0x188a(%rbp)
   10f94:	00 ff 
   10f96:	66 c7 85 78 e7 ff ff 	movw   $0xf6fe,-0x1888(%rbp)
   10f9d:	fe f6 
   10f9f:	66 c7 85 7a e7 ff ff 	movw   $0xff6e,-0x1886(%rbp)
   10fa6:	6e ff 
   10fa8:	66 c7 85 7c e7 ff ff 	movw   $0x23e,-0x1884(%rbp)
   10faf:	3e 02 
   10fb1:	66 c7 85 7e e7 ff ff 	movw   $0x707,-0x1882(%rbp)
   10fb8:	07 07 
   10fba:	66 c7 85 80 e7 ff ff 	movw   $0xe316,-0x1880(%rbp)
   10fc1:	16 e3 
   10fc3:	66 c7 85 82 e7 ff ff 	movw   $0x5fd,-0x187e(%rbp)
   10fca:	fd 05 
   10fcc:	66 c7 85 84 e7 ff ff 	movw   $0x7,-0x187c(%rbp)
   10fd3:	07 00 
   10fd5:	66 c7 85 86 e7 ff ff 	movw   $0xfc67,-0x187a(%rbp)
   10fdc:	67 fc 
   10fde:	66 c7 85 88 e7 ff ff 	movw   $0xfbe2,-0x1878(%rbp)
   10fe5:	e2 fb 
   10fe7:	66 c7 85 8a e7 ff ff 	movw   $0x99e,-0x1876(%rbp)
   10fee:	9e 09 
   10ff0:	66 c7 85 8c e7 ff ff 	movw   $0x5ab5,-0x1874(%rbp)
   10ff7:	b5 5a 
   10ff9:	66 c7 85 8e e7 ff ff 	movw   $0x88ff,-0x1872(%rbp)
   11000:	ff 88 
   11002:	66 c7 85 90 e7 ff ff 	movw   $0x2c01,-0x1870(%rbp)
   11009:	01 2c 
   1100b:	66 c7 85 92 e7 ff ff 	movw   $0xccf6,-0x186e(%rbp)
   11012:	f6 cc 
   11014:	66 c7 85 94 e7 ff ff 	movw   $0xf02,-0x186c(%rbp)
   1101b:	02 0f 
   1101d:	66 c7 85 96 e7 ff ff 	movw   $0x1fb,-0x186a(%rbp)
   11024:	fb 01 
   11026:	66 c7 85 98 e7 ff ff 	movw   $0xc388,-0x1868(%rbp)
   1102d:	88 c3 
   1102f:	66 c7 85 9a e7 ff ff 	movw   $0x100,-0x1866(%rbp)
   11036:	00 01 
   11038:	66 c7 85 9c e7 ff ff 	movw   $0xb500,-0x1864(%rbp)
   1103f:	00 b5 
   11041:	66 c7 85 9e e7 ff ff 	movw   $0x205,-0x1862(%rbp)
   11048:	05 02 
   1104a:	66 c7 85 a0 e7 ff ff 	movw   $0xfdff,-0x1860(%rbp)
   11051:	ff fd 
   11053:	66 c7 85 a2 e7 ff ff 	movw   $0x5388,-0x185e(%rbp)
   1105a:	88 53 
   1105c:	66 c7 85 a4 e7 ff ff 	movw   $0x9c0f,-0x185c(%rbp)
   11063:	0f 9c 
   11065:	66 c7 85 a6 e7 ff ff 	movw   $0x9ef9,-0x185a(%rbp)
   1106c:	f9 9e 
   1106e:	66 c7 85 a8 e7 ff ff 	movw   $0xd8f8,-0x1858(%rbp)
   11075:	f8 d8 
   11077:	66 c7 85 aa e7 ff ff 	movw   $0xd802,-0x1856(%rbp)
   1107e:	02 d8 
   11080:	66 c7 85 ac e7 ff ff 	movw   $0x9ef8,-0x1854(%rbp)
   11087:	f8 9e 
   11089:	66 c7 85 ae e7 ff ff 	movw   $0x9cf9,-0x1852(%rbp)
   11090:	f9 9c 
   11092:	66 c7 85 b0 e7 ff ff 	movw   $0x530f,-0x1850(%rbp)
   11099:	0f 53 
   1109b:	66 c7 85 b2 e7 ff ff 	movw   $0xfd88,-0x184e(%rbp)
   110a2:	88 fd 
   110a4:	66 c7 85 b4 e7 ff ff 	movw   $0x2ff,-0x184c(%rbp)
   110ab:	ff 02 
   110ad:	66 c7 85 b6 e7 ff ff 	movw   $0xb505,-0x184a(%rbp)
   110b4:	05 b5 
   110b6:	66 c7 85 b8 e7 ff ff 	movw   $0x100,-0x1848(%rbp)
   110bd:	00 01 
   110bf:	66 c7 85 ba e7 ff ff 	movw   $0xc300,-0x1846(%rbp)
   110c6:	00 c3 
   110c8:	66 c7 85 bc e7 ff ff 	movw   $0x188,-0x1844(%rbp)
   110cf:	88 01 
   110d1:	66 c7 85 be e7 ff ff 	movw   $0xffb,-0x1842(%rbp)
   110d8:	fb 0f 
   110da:	66 c7 85 c0 e7 ff ff 	movw   $0xcc02,-0x1840(%rbp)
   110e1:	02 cc 
   110e3:	66 c7 85 c2 e7 ff ff 	movw   $0x2cf6,-0x183e(%rbp)
   110ea:	f6 2c 
   110ec:	66 c7 85 c4 e7 ff ff 	movw   $0x8801,-0x183c(%rbp)
   110f3:	01 88 
   110f5:	66 c7 85 c6 e7 ff ff 	movw   $0x5aff,-0x183a(%rbp)
   110fc:	ff 5a 
   110fe:	66 c7 85 c8 e7 ff ff 	movw   $0x9b5,-0x1838(%rbp)
   11105:	b5 09 
   11107:	66 c7 85 ca e7 ff ff 	movw   $0xfb9e,-0x1836(%rbp)
   1110e:	9e fb 
   11110:	66 c7 85 cc e7 ff ff 	movw   $0xfce2,-0x1834(%rbp)
   11117:	e2 fc 
   11119:	66 c7 85 ce e7 ff ff 	movw   $0x67,-0x1832(%rbp)
   11120:	67 00 
   11122:	66 c7 85 d0 e7 ff ff 	movw   $0x507,-0x1830(%rbp)
   11129:	07 05 
   1112b:	66 c7 85 d2 e7 ff ff 	movw   $0xe3fd,-0x182e(%rbp)
   11132:	fd e3 
   11134:	66 c7 85 d4 e7 ff ff 	movw   $0x716,-0x182c(%rbp)
   1113b:	16 07 
   1113d:	66 c7 85 d6 e7 ff ff 	movw   $0x207,-0x182a(%rbp)
   11144:	07 02 
   11146:	66 c7 85 d8 e7 ff ff 	movw   $0xff3e,-0x1828(%rbp)
   1114d:	3e ff 
   1114f:	66 c7 85 da e7 ff ff 	movw   $0xf66e,-0x1826(%rbp)
   11156:	6e f6 
   11158:	66 c7 85 dc e7 ff ff 	movw   $0xfffe,-0x1824(%rbp)
   1115f:	fe ff 
   11161:	66 c7 85 de e7 ff ff 	movw   $0x1800,-0x1822(%rbp)
   11168:	00 18 
   1116a:	66 c7 85 e0 e7 ff ff 	movw   $0x88a9,-0x1820(%rbp)
   11171:	a9 88 
   11173:	66 c7 85 e2 e7 ff ff 	movw   $0xf808,-0x181e(%rbp)
   1117a:	08 f8 
   1117c:	66 c7 85 e4 e7 ff ff 	movw   $0xff01,-0x181c(%rbp)
   11183:	01 ff 
   11185:	66 c7 85 e6 e7 ff ff 	movw   $0x0,-0x181a(%rbp)
   1118c:	00 00 
   1118e:	66 c7 85 e8 e7 ff ff 	movw   $0x9c5a,-0x1818(%rbp)
   11195:	5a 9c 
   11197:	66 c7 85 ea e7 ff ff 	movw   $0x3e11,-0x1816(%rbp)
   1119e:	11 3e 
   111a0:	66 c7 85 ec e7 ff ff 	movw   $0x181,-0x1814(%rbp)
   111a7:	81 01 
   111a9:	66 c7 85 ee e7 ff ff 	movw   $0x8101,-0x1812(%rbp)
   111b0:	01 81 
   111b2:	66 c7 85 f0 e7 ff ff 	movw   $0xffff,-0x1810(%rbp)
   111b9:	ff ff 
   111bb:	66 c7 85 f2 e7 ff ff 	movw   $0x81ff,-0x180e(%rbp)
   111c2:	ff 81 
   111c4:	66 c7 85 f4 e7 ff ff 	movw   $0x101,-0x180c(%rbp)
   111cb:	01 01 
   111cd:	66 c7 85 f6 e7 ff ff 	movw   $0x3e81,-0x180a(%rbp)
   111d4:	81 3e 
   111d6:	66 c7 85 f8 e7 ff ff 	movw   $0x9c11,-0x1808(%rbp)
   111dd:	11 9c 
   111df:	66 c7 85 fa e7 ff ff 	movw   $0x5a,-0x1806(%rbp)
   111e6:	5a 00 
   111e8:	66 c7 85 fc e7 ff ff 	movw   $0xff00,-0x1804(%rbp)
   111ef:	00 ff 
   111f1:	66 c7 85 fe e7 ff ff 	movw   $0xf801,-0x1802(%rbp)
   111f8:	01 f8 
   111fa:	66 c7 85 00 e8 ff ff 	movw   $0x8808,-0x1800(%rbp)
   11201:	08 88 
   11203:	66 c7 85 02 e8 ff ff 	movw   $0x18a9,-0x17fe(%rbp)
   1120a:	a9 18 
   1120c:	66 c7 85 04 e8 ff ff 	movw   $0xff00,-0x17fc(%rbp)
   11213:	00 ff 
   11215:	66 c7 85 06 e8 ff ff 	movw   $0xf6fe,-0x17fa(%rbp)
   1121c:	fe f6 
   1121e:	66 c7 85 08 e8 ff ff 	movw   $0xff6e,-0x17f8(%rbp)
   11225:	6e ff 
   11227:	66 c7 85 0a e8 ff ff 	movw   $0x23e,-0x17f6(%rbp)
   1122e:	3e 02 
   11230:	66 c7 85 0c e8 ff ff 	movw   $0x707,-0x17f4(%rbp)
   11237:	07 07 
   11239:	66 c7 85 0e e8 ff ff 	movw   $0xe316,-0x17f2(%rbp)
   11240:	16 e3 
   11242:	66 c7 85 10 e8 ff ff 	movw   $0x5fd,-0x17f0(%rbp)
   11249:	fd 05 
   1124b:	66 c7 85 12 e8 ff ff 	movw   $0x7,-0x17ee(%rbp)
   11252:	07 00 
   11254:	66 c7 85 14 e8 ff ff 	movw   $0xfc67,-0x17ec(%rbp)
   1125b:	67 fc 
   1125d:	66 c7 85 16 e8 ff ff 	movw   $0xfe2,-0x17ea(%rbp)
   11264:	e2 0f 
   11266:	66 c7 85 18 e8 ff ff 	movw   $0xff,-0x17e8(%rbp)
   1126d:	ff 00 
   1126f:	66 c7 85 1a e8 ff ff 	movw   $0xfffc,-0x17e6(%rbp)
   11276:	fc ff 
   11278:	66 c7 85 1c e8 ff ff 	movw   $0xfd04,-0x17e4(%rbp)
   1127f:	04 fd 
   11281:	66 c7 85 1e e8 ff ff 	movw   $0xe301,-0x17e2(%rbp)
   11288:	01 e3 
   1128a:	66 c7 85 20 e8 ff ff 	movw   $0x153,-0x17e0(%rbp)
   11291:	53 01 
   11293:	66 c7 85 22 e8 ff ff 	movw   $0x111,-0x17de(%rbp)
   1129a:	11 01 
   1129c:	66 c7 85 24 e8 ff ff 	movw   $0x670f,-0x17dc(%rbp)
   112a3:	0f 67 
   112a5:	66 c7 85 26 e8 ff ff 	movw   $0xfffd,-0x17da(%rbp)
   112ac:	fd ff 
   112ae:	c7 85 10 df ff ff 00 	movl   $0x0,-0x20f0(%rbp)
   112b5:	00 00 00 
   112b8:	eb 1b                	jmp    112d5 <func_58+0x4014>
   112ba:	8b 85 10 df ff ff    	mov    -0x20f0(%rbp),%eax
   112c0:	48 98                	cltq   
   112c2:	48 c7 84 c5 b0 e2 ff 	movq   $0x0,-0x1d50(%rbp,%rax,8)
   112c9:	ff 00 00 00 00 
   112ce:	83 85 10 df ff ff 01 	addl   $0x1,-0x20f0(%rbp)
   112d5:	83 bd 10 df ff ff 05 	cmpl   $0x5,-0x20f0(%rbp)
   112dc:	7e dc                	jle    112ba <func_58+0x3ff9>
   112de:	48 8d 05 43 2a 01 00 	lea    0x12a43(%rip),%rax        # 23d28 <g_1050>
   112e5:	48 89 85 c0 df ff ff 	mov    %rax,-0x2040(%rbp)
   112ec:	48 8b 85 c0 df ff ff 	mov    -0x2040(%rbp),%rax
   112f3:	48 89 85 e8 e9 ff ff 	mov    %rax,-0x1618(%rbp)
   112fa:	48 8b 85 68 e0 ff ff 	mov    -0x1f98(%rbp),%rax
   11301:	48 8b 95 88 de ff ff 	mov    -0x2178(%rbp),%rdx
   11308:	48 89 10             	mov    %rdx,(%rax)
   1130b:	48 8b 85 c0 df ff ff 	mov    -0x2040(%rbp),%rax
   11312:	8b 00                	mov    (%rax),%eax
   11314:	41 89 c4             	mov    %eax,%r12d
   11317:	0f b6 85 9c de ff ff 	movzbl -0x2164(%rbp),%eax
   1131e:	0f be d8             	movsbl %al,%ebx
   11321:	8b 85 b8 de ff ff    	mov    -0x2148(%rbp),%eax
   11327:	48 98                	cltq   
   11329:	48 89 85 90 de ff ff 	mov    %rax,-0x2170(%rbp)
   11330:	0f b6 85 9c de ff ff 	movzbl -0x2164(%rbp),%eax
   11337:	0f be c0             	movsbl %al,%eax
   1133a:	be 00 00 00 00       	mov    $0x0,%esi
   1133f:	89 c7                	mov    %eax,%edi
   11341:	e8 5b 7f ff ff       	callq  92a1 <safe_lshift_func_int8_t_s_s>
   11346:	0f be d0             	movsbl %al,%edx
   11349:	48 8b 85 a0 e4 ff ff 	mov    -0x1b60(%rbp),%rax
   11350:	48 85 c0             	test   %rax,%rax
   11353:	0f 94 c0             	sete   %al
   11356:	0f b6 c0             	movzbl %al,%eax
   11359:	39 c2                	cmp    %eax,%edx
   1135b:	48 8b 05 36 6c 01 00 	mov    0x16c36(%rip),%rax        # 27f98 <g_827>
   11362:	48 8b 00             	mov    (%rax),%rax
   11365:	48 8b 00             	mov    (%rax),%rax
   11368:	0f b6 00             	movzbl (%rax),%eax
   1136b:	0f be c0             	movsbl %al,%eax
   1136e:	89 de                	mov    %ebx,%esi
   11370:	89 c7                	mov    %eax,%edi
   11372:	e8 f3 7e ff ff       	callq  926a <safe_div_func_int8_t_s_s>
   11377:	0f be c0             	movsbl %al,%eax
   1137a:	44 89 e6             	mov    %r12d,%esi
   1137d:	89 c7                	mov    %eax,%edi
   1137f:	e8 4c 8b ff ff       	callq  9ed0 <safe_sub_func_uint32_t_u_u>
   11384:	0f b6 05 59 05 01 00 	movzbl 0x10559(%rip),%eax        # 218e4 <g_448+0x4>
   1138b:	66 98                	cbtw   
   1138d:	0f b7 c0             	movzwl %ax,%eax
   11390:	be 00 00 00 00       	mov    $0x0,%esi
   11395:	89 c7                	mov    %eax,%edi
   11397:	e8 a1 89 ff ff       	callq  9d3d <safe_mul_func_uint16_t_u_u>
   1139c:	0f b6 85 6e e7 ff ff 	movzbl -0x1892(%rbp),%eax
   113a3:	3c fa                	cmp    $0xfa,%al
   113a5:	0f 9d c0             	setge  %al
   113a8:	0f b6 c0             	movzbl %al,%eax
   113ab:	21 85 04 df ff ff    	and    %eax,-0x20fc(%rbp)
   113b1:	8b 05 61 fd 00 00    	mov    0xfd61(%rip),%eax        # 21118 <g_34>
   113b7:	83 e8 01             	sub    $0x1,%eax
   113ba:	89 05 58 fd 00 00    	mov    %eax,0xfd58(%rip)        # 21118 <g_34>
   113c0:	8b 05 52 fd 00 00    	mov    0xfd52(%rip),%eax        # 21118 <g_34>
   113c6:	83 f8 ee             	cmp    $0xffffffee,%eax
   113c9:	0f 8d 4d fb ff ff    	jge    10f1c <func_58+0x3c5b>
   113cf:	0f b6 05 f9 26 01 00 	movzbl 0x126f9(%rip),%eax        # 23acf <g_898+0xf>
   113d6:	83 e0 10             	and    $0x10,%eax
   113d9:	84 c0                	test   %al,%al
   113db:	0f 85 35 01 00 00    	jne    11516 <func_58+0x4255>
   113e1:	0f b7 05 bc 10 01 00 	movzwl 0x110bc(%rip),%eax        # 224a4 <g_498+0xb44>
   113e8:	0f bf d8             	movswl %ax,%ebx
   113eb:	8b 85 14 e2 ff ff    	mov    -0x1dec(%rbp),%eax
   113f1:	0f be d0             	movsbl %al,%edx
   113f4:	83 bd 28 df ff ff 00 	cmpl   $0x0,-0x20d8(%rbp)
   113fb:	75 17                	jne    11414 <func_58+0x4153>
   113fd:	48 83 bd e8 df ff ff 	cmpq   $0x0,-0x2018(%rbp)
   11404:	00 
   11405:	0f 94 c0             	sete   %al
   11408:	0f b6 c0             	movzbl %al,%eax
   1140b:	48 39 85 90 de ff ff 	cmp    %rax,-0x2170(%rbp)
   11412:	74 07                	je     1141b <func_58+0x415a>
   11414:	b8 01 00 00 00       	mov    $0x1,%eax
   11419:	eb 05                	jmp    11420 <func_58+0x415f>
   1141b:	b8 00 00 00 00       	mov    $0x0,%eax
   11420:	0f be c0             	movsbl %al,%eax
   11423:	89 d6                	mov    %edx,%esi
   11425:	89 c7                	mov    %eax,%edi
   11427:	e8 e6 7d ff ff       	callq  9212 <safe_mul_func_int8_t_s_s>
   1142c:	0f b6 95 9c de ff ff 	movzbl -0x2164(%rbp),%edx
   11433:	48 8b 85 60 e0 ff ff 	mov    -0x1fa0(%rbp),%rax
   1143a:	66 89 10             	mov    %dx,(%rax)
   1143d:	48 8b 85 60 e0 ff ff 	mov    -0x1fa0(%rbp),%rax
   11444:	0f b7 00             	movzwl (%rax),%eax
   11447:	0f b7 d0             	movzwl %ax,%edx
   1144a:	0f b6 85 9c de ff ff 	movzbl -0x2164(%rbp),%eax
   11451:	31 d0                	xor    %edx,%eax
   11453:	be 00 00 00 00       	mov    $0x0,%esi
   11458:	89 c7                	mov    %eax,%edi
   1145a:	e8 a6 81 ff ff       	callq  9605 <safe_sub_func_int32_t_s_s>
   1145f:	85 c0                	test   %eax,%eax
   11461:	74 16                	je     11479 <func_58+0x41b8>
   11463:	8b 05 13 fd 00 00    	mov    0xfd13(%rip),%eax        # 2117c <g_183+0x1c>
   11469:	25 ff ff ff 03       	and    $0x3ffffff,%eax
   1146e:	85 c0                	test   %eax,%eax
   11470:	74 07                	je     11479 <func_58+0x41b8>
   11472:	b8 01 00 00 00       	mov    $0x1,%eax
   11477:	eb 05                	jmp    1147e <func_58+0x41bd>
   11479:	b8 00 00 00 00       	mov    $0x0,%eax
   1147e:	0f b6 d0             	movzbl %al,%edx
   11481:	0f b6 85 98 de ff ff 	movzbl -0x2168(%rbp),%eax
   11488:	0f be c8             	movsbl %al,%ecx
   1148b:	48 8b 85 78 df ff ff 	mov    -0x2088(%rbp),%rax
   11492:	c7 00 fc ff ff ff    	movl   $0xfffffffc,(%rax)
   11498:	8b 00                	mov    (%rax),%eax
   1149a:	39 c1                	cmp    %eax,%ecx
   1149c:	0f 9f c0             	setg   %al
   1149f:	0f b6 c0             	movzbl %al,%eax
   114a2:	89 d6                	mov    %edx,%esi
   114a4:	89 c7                	mov    %eax,%edi
   114a6:	e8 cd 86 ff ff       	callq  9b78 <safe_sub_func_uint8_t_u_u>
   114ab:	0f b6 c0             	movzbl %al,%eax
   114ae:	48 8b 95 50 e0 ff ff 	mov    -0x1fb0(%rbp),%rdx
   114b5:	66 c7 02 fb ff       	movw   $0xfffb,(%rdx)
   114ba:	89 c6                	mov    %eax,%esi
   114bc:	bf fb ff 00 00       	mov    $0xfffb,%edi
   114c1:	e8 39 88 ff ff       	callq  9cff <safe_add_func_uint16_t_u_u>
   114c6:	0f b7 c0             	movzwl %ax,%eax
   114c9:	0f b6 15 c4 ab 00 00 	movzbl 0xabc4(%rip),%edx        # 1c094 <g_968+0x4>
   114d0:	48 89 c6             	mov    %rax,%rsi
   114d3:	bf 01 00 00 00       	mov    $0x1,%edi
   114d8:	e8 51 8b ff ff       	callq  a02e <safe_add_func_uint64_t_u_u>
   114dd:	89 de                	mov    %ebx,%esi
   114df:	89 c7                	mov    %eax,%edi
   114e1:	e8 ea 89 ff ff       	callq  9ed0 <safe_sub_func_uint32_t_u_u>
   114e6:	48 8b 85 c0 df ff ff 	mov    -0x2040(%rbp),%rax
   114ed:	8b 00                	mov    (%rax),%eax
   114ef:	83 c8 01             	or     $0x1,%eax
   114f2:	0f b6 c0             	movzbl %al,%eax
   114f5:	be 04 00 00 00       	mov    $0x4,%esi
   114fa:	89 c7                	mov    %eax,%edi
   114fc:	e8 92 86 ff ff       	callq  9b93 <safe_mul_func_uint8_t_u_u>
   11501:	3c 88                	cmp    $0x88,%al
   11503:	0f 97 c0             	seta   %al
   11506:	0f b6 d0             	movzbl %al,%edx
   11509:	48 8b 85 88 de ff ff 	mov    -0x2178(%rbp),%rax
   11510:	8b 00                	mov    (%rax),%eax
   11512:	39 c2                	cmp    %eax,%edx
   11514:	7f 07                	jg     1151d <func_58+0x425c>
   11516:	ba 01 00 00 00       	mov    $0x1,%edx
   1151b:	eb 05                	jmp    11522 <func_58+0x4261>
   1151d:	ba 00 00 00 00       	mov    $0x0,%edx
   11522:	8b 05 f4 00 01 00    	mov    0x100f4(%rip),%eax        # 2161c <g_441+0xc>
   11528:	c1 e0 0c             	shl    $0xc,%eax
   1152b:	c1 f8 0c             	sar    $0xc,%eax
   1152e:	21 d0                	and    %edx,%eax
   11530:	c1 e0 0c             	shl    $0xc,%eax
   11533:	c1 f8 0c             	sar    $0xc,%eax
   11536:	89 c2                	mov    %eax,%edx
   11538:	0f b6 ca             	movzbl %dl,%ecx
   1153b:	0f b6 15 da 00 01 00 	movzbl 0x100da(%rip),%edx        # 2161c <g_441+0xc>
   11542:	83 e2 00             	and    $0x0,%edx
   11545:	09 ca                	or     %ecx,%edx
   11547:	88 15 cf 00 01 00    	mov    %dl,0x100cf(%rip)        # 2161c <g_441+0xc>
   1154d:	89 c2                	mov    %eax,%edx
   1154f:	c1 ea 08             	shr    $0x8,%edx
   11552:	89 d2                	mov    %edx,%edx
   11554:	0f b6 ca             	movzbl %dl,%ecx
   11557:	0f b6 15 bf 00 01 00 	movzbl 0x100bf(%rip),%edx        # 2161d <g_441+0xd>
   1155e:	83 e2 00             	and    $0x0,%edx
   11561:	09 ca                	or     %ecx,%edx
   11563:	88 15 b4 00 01 00    	mov    %dl,0x100b4(%rip)        # 2161d <g_441+0xd>
   11569:	c1 e8 10             	shr    $0x10,%eax
   1156c:	89 c0                	mov    %eax,%eax
   1156e:	83 e0 0f             	and    $0xf,%eax
   11571:	89 c2                	mov    %eax,%edx
   11573:	83 e2 0f             	and    $0xf,%edx
   11576:	0f b6 05 a1 00 01 00 	movzbl 0x100a1(%rip),%eax        # 2161e <g_441+0xe>
   1157d:	83 e0 f0             	and    $0xfffffff0,%eax
   11580:	09 d0                	or     %edx,%eax
   11582:	88 05 96 00 01 00    	mov    %al,0x10096(%rip)        # 2161e <g_441+0xe>
   11588:	48 8b 85 78 df ff ff 	mov    -0x2088(%rbp),%rax
   1158f:	48 8b 95 88 de ff ff 	mov    -0x2178(%rbp),%rdx
   11596:	8b 12                	mov    (%rdx),%edx
   11598:	89 10                	mov    %edx,(%rax)
   1159a:	eb 5a                	jmp    115f6 <func_58+0x4335>
   1159c:	48 c7 85 00 e0 ff ff 	movq   $0x9,-0x2000(%rbp)
   115a3:	09 00 00 00 
   115a7:	66 c7 05 d4 24 01 00 	movw   $0x0,0x124d4(%rip)        # 23a84 <g_895+0x4>
   115ae:	00 00 
   115b0:	eb 37                	jmp    115e9 <func_58+0x4328>
   115b2:	48 8d 05 7f fb 00 00 	lea    0xfb7f(%rip),%rax        # 21138 <g_137+0x8>
   115b9:	48 89 85 08 e0 ff ff 	mov    %rax,-0x1ff8(%rbp)
   115c0:	c7 85 14 df ff ff 9f 	movl   $0x71e5f9f,-0x20ec(%rbp)
   115c7:	5f 1e 07 
   115ca:	48 8d 05 0f 03 01 00 	lea    0x1030f(%rip),%rax        # 218e0 <g_448>
   115d1:	48 89 85 f0 df ff ff 	mov    %rax,-0x2010(%rbp)
   115d8:	0f b7 05 a5 24 01 00 	movzwl 0x124a5(%rip),%eax        # 23a84 <g_895+0x4>
   115df:	83 c0 01             	add    $0x1,%eax
   115e2:	66 89 05 9b 24 01 00 	mov    %ax,0x1249b(%rip)        # 23a84 <g_895+0x4>
   115e9:	0f b7 05 94 24 01 00 	movzwl 0x12494(%rip),%eax        # 23a84 <g_895+0x4>
   115f0:	66 83 f8 07          	cmp    $0x7,%ax
   115f4:	7e bc                	jle    115b2 <func_58+0x42f1>
   115f6:	48 8b 85 f8 df ff ff 	mov    -0x2008(%rbp),%rax
   115fd:	48 8b 5d c8          	mov    -0x38(%rbp),%rbx
   11601:	64 48 33 1c 25 28 00 	xor    %fs:0x28,%rbx
   11608:	00 00 
   1160a:	74 05                	je     11611 <func_58+0x4350>
   1160c:	e8 5f 7a ff ff       	callq  9070 <__stack_chk_fail@plt>
   11611:	48 81 c4 58 21 00 00 	add    $0x2158,%rsp
   11618:	5b                   	pop    %rbx
   11619:	41 5c                	pop    %r12
   1161b:	41 5d                	pop    %r13
   1161d:	41 5e                	pop    %r14
   1161f:	41 5f                	pop    %r15
   11621:	5d                   	pop    %rbp
   11622:	c3                   	retq   

0000000000011623 <func_63>:
   11623:	f3 0f 1e fa          	endbr64 
   11627:	55                   	push   %rbp
   11628:	48 89 e5             	mov    %rsp,%rbp
   1162b:	41 54                	push   %r12
   1162d:	53                   	push   %rbx
   1162e:	48 81 ec 70 03 00 00 	sub    $0x370,%rsp
   11635:	48 89 bd 88 fc ff ff 	mov    %rdi,-0x378(%rbp)
   1163c:	64 48 8b 04 25 28 00 	mov    %fs:0x28,%rax
   11643:	00 00 
   11645:	48 89 45 e8          	mov    %rax,-0x18(%rbp)
   11649:	31 c0                	xor    %eax,%eax
   1164b:	48 c7 85 a8 fc ff ff 	movq   $0x0,-0x358(%rbp)
   11652:	00 00 00 00 
   11656:	48 8d 85 e0 fc ff ff 	lea    -0x320(%rbp),%rax
   1165d:	48 8d 15 7c 4f 01 00 	lea    0x14f7c(%rip),%rdx        # 265e0 <g_2104+0x1560>
   11664:	b9 60 00 00 00       	mov    $0x60,%ecx
   11669:	48 89 c7             	mov    %rax,%rdi
   1166c:	48 89 d6             	mov    %rdx,%rsi
   1166f:	f3 48 a5             	rep movsq %ds:(%rsi),%es:(%rdi)
   11672:	48 8d 85 e0 fc ff ff 	lea    -0x320(%rbp),%rax
   11679:	48 05 30 02 00 00    	add    $0x230,%rax
   1167f:	48 89 85 a0 fc ff ff 	mov    %rax,-0x360(%rbp)
   11686:	48 8d 85 a0 fc ff ff 	lea    -0x360(%rbp),%rax
   1168d:	48 89 85 b0 fc ff ff 	mov    %rax,-0x350(%rbp)
   11694:	c7 85 9c fc ff ff ed 	movl   $0x81c3eced,-0x364(%rbp)
   1169b:	ec c3 81 
   1169e:	48 c7 05 87 f9 00 00 	movq   $0x0,0xf987(%rip)        # 21030 <g_27>
   116a5:	00 00 00 00 
   116a9:	e9 44 01 00 00       	jmpq   117f2 <func_63+0x1cf>
   116ae:	48 8d 85 a0 fc ff ff 	lea    -0x360(%rbp),%rax
   116b5:	48 89 85 b8 fc ff ff 	mov    %rax,-0x348(%rbp)
   116bc:	48 8d 05 55 fa 00 00 	lea    0xfa55(%rip),%rax        # 21118 <g_34>
   116c3:	48 89 85 c0 fc ff ff 	mov    %rax,-0x340(%rbp)
   116ca:	48 8d 05 2f 60 01 00 	lea    0x1602f(%rip),%rax        # 27700 <g_106>
   116d1:	48 89 85 c8 fc ff ff 	mov    %rax,-0x338(%rbp)
   116d8:	0f b6 05 5c ff 00 00 	movzbl 0xff5c(%rip),%eax        # 2163b <g_442+0xb>
   116df:	c1 e0 04             	shl    $0x4,%eax
   116e2:	c0 f8 06             	sar    $0x6,%al
   116e5:	66 98                	cbtw   
   116e7:	0f b7 d8             	movzwl %ax,%ebx
   116ea:	48 8b 85 b0 fc ff ff 	mov    -0x350(%rbp),%rax
   116f1:	48 3b 85 b8 fc ff ff 	cmp    -0x348(%rbp),%rax
   116f8:	0f 94 c0             	sete   %al
   116fb:	0f b6 c0             	movzbl %al,%eax
   116fe:	be f6 ff 00 00       	mov    $0xfff6,%esi
   11703:	89 c7                	mov    %eax,%edi
   11705:	e8 15 86 ff ff       	callq  9d1f <safe_sub_func_uint16_t_u_u>
   1170a:	8b 05 0c fb 00 00    	mov    0xfb0c(%rip),%eax        # 2121c <g_185+0x4>
   11710:	41 89 c4             	mov    %eax,%r12d
   11713:	48 8d 3d 0e f9 00 00 	lea    0xf90e(%rip),%rdi        # 21028 <g_3>
   1171a:	e8 b3 23 00 00       	callq  13ad2 <func_78>
   1171f:	48 89 85 d4 fc ff ff 	mov    %rax,-0x32c(%rbp)
   11726:	8b 85 dc fc ff ff    	mov    -0x324(%rbp),%eax
   1172c:	83 e0 00             	and    $0x0,%eax
   1172f:	09 d0                	or     %edx,%eax
   11731:	89 85 dc fc ff ff    	mov    %eax,-0x324(%rbp)
   11737:	44 8b 15 4a 79 01 00 	mov    0x1794a(%rip),%r10d        # 29088 <g_2>
   1173e:	48 8b 85 d4 fc ff ff 	mov    -0x32c(%rbp),%rax
   11745:	8b 8d dc fc ff ff    	mov    -0x324(%rbp),%ecx
   1174b:	48 89 ca             	mov    %rcx,%rdx
   1174e:	48 8b 3d c3 cc 00 00 	mov    0xccc3(%rip),%rdi        # 1e418 <l_77.4730>
   11755:	8b 35 c5 cc 00 00    	mov    0xccc5(%rip),%esi        # 1e420 <l_77.4730+0x8>
   1175b:	49 89 c0             	mov    %rax,%r8
   1175e:	49 89 d1             	mov    %rdx,%r9
   11761:	48 8d 0d c4 f8 00 00 	lea    0xf8c4(%rip),%rcx        # 2102c <g_3+0x4>
   11768:	44 89 d2             	mov    %r10d,%edx
   1176b:	e8 c1 00 00 00       	callq  11831 <func_72>
   11770:	44 89 e6             	mov    %r12d,%esi
   11773:	89 c7                	mov    %eax,%edi
   11775:	e8 3c 7e ff ff       	callq  95b6 <safe_add_func_int32_t_s_s>
   1177a:	48 c7 85 c0 fc ff ff 	movq   $0x0,-0x340(%rbp)
   11781:	00 00 00 00 
   11785:	48 8b 85 c8 fc ff ff 	mov    -0x338(%rbp),%rax
   1178c:	48 8b 95 c0 fc ff ff 	mov    -0x340(%rbp),%rdx
   11793:	48 89 10             	mov    %rdx,(%rax)
   11796:	48 8b 85 c8 fc ff ff 	mov    -0x338(%rbp),%rax
   1179d:	48 8b 00             	mov    (%rax),%rax
   117a0:	48 39 85 a8 fc ff ff 	cmp    %rax,-0x358(%rbp)
   117a7:	0f 94 c0             	sete   %al
   117aa:	0f b6 d0             	movzbl %al,%edx
   117ad:	8b 05 6d 10 01 00    	mov    0x1106d(%rip),%eax        # 22820 <g_525+0x10>
   117b3:	c1 e0 0d             	shl    $0xd,%eax
   117b6:	c1 f8 0d             	sar    $0xd,%eax
   117b9:	39 c2                	cmp    %eax,%edx
   117bb:	0f 9c c0             	setl   %al
   117be:	0f b6 c0             	movzbl %al,%eax
   117c1:	89 de                	mov    %ebx,%esi
   117c3:	89 c7                	mov    %eax,%edi
   117c5:	e8 c4 85 ff ff       	callq  9d8e <safe_div_func_uint16_t_u_u>
   117ca:	0f b7 c0             	movzwl %ax,%eax
   117cd:	89 85 9c fc ff ff    	mov    %eax,-0x364(%rbp)
   117d3:	48 8b 05 56 f8 00 00 	mov    0xf856(%rip),%rax        # 21030 <g_27>
   117da:	98                   	cwtl   
   117db:	be 03 00 00 00       	mov    $0x3,%esi
   117e0:	89 c7                	mov    %eax,%edi
   117e2:	e8 ec 7b ff ff       	callq  93d3 <safe_sub_func_int16_t_s_s>
   117e7:	48 0f bf c0          	movswq %ax,%rax
   117eb:	48 89 05 3e f8 00 00 	mov    %rax,0xf83e(%rip)        # 21030 <g_27>
   117f2:	48 8b 05 37 f8 00 00 	mov    0xf837(%rip),%rax        # 21030 <g_27>
   117f9:	48 83 f8 e3          	cmp    $0xffffffffffffffe3,%rax
   117fd:	0f 84 ab fe ff ff    	je     116ae <func_63+0x8b>
   11803:	48 8b 05 66 0f 01 00 	mov    0x10f66(%rip),%rax        # 22770 <g_499>
   1180a:	48 8b 15 67 0f 01 00 	mov    0x10f67(%rip),%rdx        # 22778 <g_499+0x8>
   11811:	48 8b 5d e8          	mov    -0x18(%rbp),%rbx
   11815:	64 48 33 1c 25 28 00 	xor    %fs:0x28,%rbx
   1181c:	00 00 
   1181e:	74 05                	je     11825 <func_63+0x202>
   11820:	e8 4b 78 ff ff       	callq  9070 <__stack_chk_fail@plt>
   11825:	48 81 c4 70 03 00 00 	add    $0x370,%rsp
   1182c:	5b                   	pop    %rbx
   1182d:	41 5c                	pop    %r12
   1182f:	5d                   	pop    %rbp
   11830:	c3                   	retq   

0000000000011831 <func_72>:
   11831:	f3 0f 1e fa          	endbr64 
   11835:	55                   	push   %rbp
   11836:	48 89 e5             	mov    %rsp,%rbp
   11839:	41 57                	push   %r15
   1183b:	41 56                	push   %r14
   1183d:	41 55                	push   %r13
   1183f:	41 54                	push   %r12
   11841:	53                   	push   %rbx
   11842:	48 81 ec 00 10 00 00 	sub    $0x1000,%rsp
   11849:	48 83 0c 24 00       	orq    $0x0,(%rsp)
   1184e:	48 83 ec 48          	sub    $0x48,%rsp
   11852:	89 95 ac ef ff ff    	mov    %edx,-0x1054(%rbp)
   11858:	48 89 8d a0 ef ff ff 	mov    %rcx,-0x1060(%rbp)
   1185f:	4c 89 c0             	mov    %r8,%rax
   11862:	4c 89 ca             	mov    %r9,%rdx
   11865:	48 89 bd b0 ef ff ff 	mov    %rdi,-0x1050(%rbp)
   1186c:	89 b5 b8 ef ff ff    	mov    %esi,-0x1048(%rbp)
   11872:	48 89 85 90 ef ff ff 	mov    %rax,-0x1070(%rbp)
   11879:	8b 85 98 ef ff ff    	mov    -0x1068(%rbp),%eax
   1187f:	83 e0 00             	and    $0x0,%eax
   11882:	09 d0                	or     %edx,%eax
   11884:	89 85 98 ef ff ff    	mov    %eax,-0x1068(%rbp)
   1188a:	64 48 8b 04 25 28 00 	mov    %fs:0x28,%rax
   11891:	00 00 
   11893:	48 89 45 c8          	mov    %rax,-0x38(%rbp)
   11897:	31 c0                	xor    %eax,%eax
   11899:	c6 85 c7 ef ff ff 6b 	movb   $0x6b,-0x1039(%rbp)
   118a0:	48 8d 05 71 f9 00 00 	lea    0xf971(%rip),%rax        # 21218 <g_185>
   118a7:	48 89 85 10 f0 ff ff 	mov    %rax,-0xff0(%rbp)
   118ae:	c6 85 c9 ef ff ff f4 	movb   $0xf4,-0x1037(%rbp)
   118b5:	c7 85 cc ef ff ff a9 	movl   $0xc2d237a9,-0x1034(%rbp)
   118bc:	37 d2 c2 
   118bf:	c6 85 c8 ef ff ff c1 	movb   $0xc1,-0x1038(%rbp)
   118c6:	48 c7 85 30 f0 ff ff 	movq   $0x1,-0xfd0(%rbp)
   118cd:	01 00 00 00 
   118d1:	48 c7 85 38 f0 ff ff 	movq   $0x0,-0xfc8(%rbp)
   118d8:	00 00 00 00 
   118dc:	48 c7 85 40 f0 ff ff 	movq   $0x0,-0xfc0(%rbp)
   118e3:	00 00 00 00 
   118e7:	c7 85 e4 ef ff ff 00 	movl   $0x0,-0x101c(%rbp)
   118ee:	00 00 00 
   118f1:	eb 21                	jmp    11914 <func_72+0xe3>
   118f3:	8b 85 e4 ef ff ff    	mov    -0x101c(%rbp),%eax
   118f9:	48 98                	cltq   
   118fb:	48 bb 84 72 12 65 93 	movabs $0x12393b9365127284,%rbx
   11902:	3b 39 12 
   11905:	48 89 9c c5 60 f1 ff 	mov    %rbx,-0xea0(%rbp,%rax,8)
   1190c:	ff 
   1190d:	83 85 e4 ef ff ff 01 	addl   $0x1,-0x101c(%rbp)
   11914:	83 bd e4 ef ff ff 04 	cmpl   $0x4,-0x101c(%rbp)
   1191b:	7e d6                	jle    118f3 <func_72+0xc2>
   1191d:	c7 85 e4 ef ff ff 00 	movl   $0x0,-0x101c(%rbp)
   11924:	00 00 00 
   11927:	eb 4a                	jmp    11973 <func_72+0x142>
   11929:	c7 85 e8 ef ff ff 00 	movl   $0x0,-0x1018(%rbp)
   11930:	00 00 00 
   11933:	eb 2e                	jmp    11963 <func_72+0x132>
   11935:	8b 85 e8 ef ff ff    	mov    -0x1018(%rbp),%eax
   1193b:	48 98                	cltq   
   1193d:	8b 95 e4 ef ff ff    	mov    -0x101c(%rbp),%edx
   11943:	48 63 d2             	movslq %edx,%rdx
   11946:	48 c1 e2 02          	shl    $0x2,%rdx
   1194a:	48 01 d0             	add    %rdx,%rax
   1194d:	48 8d 15 3c 66 01 00 	lea    0x1663c(%rip),%rdx        # 27f90 <g_828>
   11954:	48 89 94 c5 c0 f1 ff 	mov    %rdx,-0xe40(%rbp,%rax,8)
   1195b:	ff 
   1195c:	83 85 e8 ef ff ff 01 	addl   $0x1,-0x1018(%rbp)
   11963:	83 bd e8 ef ff ff 03 	cmpl   $0x3,-0x1018(%rbp)
   1196a:	7e c9                	jle    11935 <func_72+0x104>
   1196c:	83 85 e4 ef ff ff 01 	addl   $0x1,-0x101c(%rbp)
   11973:	83 bd e4 ef ff ff 01 	cmpl   $0x1,-0x101c(%rbp)
   1197a:	7e ad                	jle    11929 <func_72+0xf8>
   1197c:	0f b6 85 c7 ef ff ff 	movzbl -0x1039(%rbp),%eax
   11983:	66 98                	cbtw   
   11985:	0f b7 c0             	movzwl %ax,%eax
   11988:	be fd ff 00 00       	mov    $0xfffd,%esi
   1198d:	89 c7                	mov    %eax,%edi
   1198f:	e8 c8 83 ff ff       	callq  9d5c <safe_mod_func_uint16_t_u_u>
   11994:	48 8b 15 25 5e 01 00 	mov    0x15e25(%rip),%rdx        # 277c0 <g_257>
   1199b:	48 8b 05 16 5e 01 00 	mov    0x15e16(%rip),%rax        # 277b8 <g_255>
   119a2:	0f b6 12             	movzbl (%rdx),%edx
   119a5:	88 10                	mov    %dl,(%rax)
   119a7:	0f b6 00             	movzbl (%rax),%eax
   119aa:	0f b6 d0             	movzbl %al,%edx
   119ad:	8b 05 6d fc 00 00    	mov    0xfc6d(%rip),%eax        # 21620 <g_441+0x10>
   119b3:	c1 e0 0d             	shl    $0xd,%eax
   119b6:	c1 f8 0d             	sar    $0xd,%eax
   119b9:	0f b6 c0             	movzbl %al,%eax
   119bc:	89 d6                	mov    %edx,%esi
   119be:	89 c7                	mov    %eax,%edi
   119c0:	e8 95 81 ff ff       	callq  9b5a <safe_add_func_uint8_t_u_u>
   119c5:	84 c0                	test   %al,%al
   119c7:	0f 84 36 06 00 00    	je     12003 <func_72+0x7d2>
   119cd:	c7 85 04 f0 ff ff b5 	movl   $0xd3fd2b5,-0xffc(%rbp)
   119d4:	d2 3f 0d 
   119d7:	48 8d 85 20 f8 ff ff 	lea    -0x7e0(%rbp),%rax
   119de:	48 89 85 d8 f0 ff ff 	mov    %rax,-0xf28(%rbp)
   119e5:	c7 85 ec ef ff ff 00 	movl   $0x0,-0x1014(%rbp)
   119ec:	00 00 00 
   119ef:	eb 1e                	jmp    11a0f <func_72+0x1de>
   119f1:	8b 85 ec ef ff ff    	mov    -0x1014(%rbp),%eax
   119f7:	48 98                	cltq   
   119f9:	48 8d 15 c0 5d 01 00 	lea    0x15dc0(%rip),%rdx        # 277c0 <g_257>
   11a00:	48 89 94 c5 20 f8 ff 	mov    %rdx,-0x7e0(%rbp,%rax,8)
   11a07:	ff 
   11a08:	83 85 ec ef ff ff 01 	addl   $0x1,-0x1014(%rbp)
   11a0f:	83 bd ec ef ff ff 00 	cmpl   $0x0,-0x1014(%rbp)
   11a16:	7e d9                	jle    119f1 <func_72+0x1c0>
   11a18:	c7 85 ac ef ff ff 00 	movl   $0x0,-0x1054(%rbp)
   11a1f:	00 00 00 
   11a22:	e9 14 02 00 00       	jmpq   11c3b <func_72+0x40a>
   11a27:	48 c7 85 10 f1 ff ff 	movq   $0x0,-0xef0(%rbp)
   11a2e:	00 00 00 00 
   11a32:	8b 85 ac ef ff ff    	mov    -0x1054(%rbp),%eax
   11a38:	48 98                	cltq   
   11a3a:	48 8d 14 c5 00 00 00 	lea    0x0(,%rax,8),%rdx
   11a41:	00 
   11a42:	48 8d 05 e7 f6 00 00 	lea    0xf6e7(%rip),%rax        # 21130 <g_137>
   11a49:	48 8b 04 02          	mov    (%rdx,%rax,1),%rax
   11a4d:	48 85 c0             	test   %rax,%rax
   11a50:	0f 84 c2 00 00 00    	je     11b18 <func_72+0x2e7>
   11a56:	8b 85 04 f0 ff ff    	mov    -0xffc(%rbp),%eax
   11a5c:	0f b7 d8             	movzwl %ax,%ebx
   11a5f:	8b 85 ac ef ff ff    	mov    -0x1054(%rbp),%eax
   11a65:	48 98                	cltq   
   11a67:	48 8d 14 c5 00 00 00 	lea    0x0(,%rax,8),%rdx
   11a6e:	00 
   11a6f:	48 8d 05 ba f6 00 00 	lea    0xf6ba(%rip),%rax        # 21130 <g_137>
   11a76:	48 8b 04 02          	mov    (%rdx,%rax,1),%rax
   11a7a:	0f b7 c0             	movzwl %ax,%eax
   11a7d:	be 05 00 00 00       	mov    $0x5,%esi
   11a82:	89 c7                	mov    %eax,%edi
   11a84:	e8 35 83 ff ff       	callq  9dbe <safe_lshift_func_uint16_t_u_s>
   11a89:	8b 85 ac ef ff ff    	mov    -0x1054(%rbp),%eax
   11a8f:	48 98                	cltq   
   11a91:	48 8d 14 c5 00 00 00 	lea    0x0(,%rax,8),%rdx
   11a98:	00 
   11a99:	48 8d 05 90 f6 00 00 	lea    0xf690(%rip),%rax        # 21130 <g_137>
   11aa0:	48 8b 04 02          	mov    (%rdx,%rax,1),%rax
   11aa4:	0f be c0             	movsbl %al,%eax
   11aa7:	89 c7                	mov    %eax,%edi
   11aa9:	e8 11 77 ff ff       	callq  91bf <safe_unary_minus_func_int8_t_s>
   11aae:	0f be c0             	movsbl %al,%eax
   11ab1:	be 00 00 00 00       	mov    $0x0,%esi
   11ab6:	89 c7                	mov    %eax,%edi
   11ab8:	e8 13 84 ff ff       	callq  9ed0 <safe_sub_func_uint32_t_u_u>
   11abd:	89 de                	mov    %ebx,%esi
   11abf:	bf 00 00 00 00       	mov    $0x0,%edi
   11ac4:	e8 56 82 ff ff       	callq  9d1f <safe_sub_func_uint16_t_u_u>
   11ac9:	0f b7 c0             	movzwl %ax,%eax
   11acc:	48 89 c7             	mov    %rax,%rdi
   11acf:	e8 42 7d ff ff       	callq  9816 <safe_unary_minus_func_int64_t_s>
   11ad4:	48 85 c0             	test   %rax,%rax
   11ad7:	74 13                	je     11aec <func_72+0x2bb>
   11ad9:	0f b7 05 b4 0c 01 00 	movzwl 0x10cb4(%rip),%eax        # 22794 <g_501+0x4>
   11ae0:	66 85 c0             	test   %ax,%ax
   11ae3:	74 07                	je     11aec <func_72+0x2bb>
   11ae5:	b8 01 00 00 00       	mov    $0x1,%eax
   11aea:	eb 05                	jmp    11af1 <func_72+0x2c0>
   11aec:	b8 00 00 00 00       	mov    $0x0,%eax
   11af1:	83 c8 fb             	or     $0xfffffffb,%eax
   11af4:	48 63 d0             	movslq %eax,%rdx
   11af7:	0f b6 85 90 ef ff ff 	movzbl -0x1070(%rbp),%eax
   11afe:	0f b6 c0             	movzbl %al,%eax
   11b01:	48 39 c2             	cmp    %rax,%rdx
   11b04:	48 8b 05 f5 5b 01 00 	mov    0x15bf5(%rip),%rax        # 27700 <g_106>
   11b0b:	8b 00                	mov    (%rax),%eax
   11b0d:	85 c0                	test   %eax,%eax
   11b0f:	74 07                	je     11b18 <func_72+0x2e7>
   11b11:	ba 01 00 00 00       	mov    $0x1,%edx
   11b16:	eb 05                	jmp    11b1d <func_72+0x2ec>
   11b18:	ba 00 00 00 00       	mov    $0x0,%edx
   11b1d:	48 8b 05 dc 5b 01 00 	mov    0x15bdc(%rip),%rax        # 27700 <g_106>
   11b24:	89 10                	mov    %edx,(%rax)
   11b26:	66 c7 05 11 f6 00 00 	movw   $0x2,0xf611(%rip)        # 21140 <g_141>
   11b2d:	02 00 
   11b2f:	90                   	nop
   11b30:	0f b7 05 09 f6 00 00 	movzwl 0xf609(%rip),%eax        # 21140 <g_141>
   11b37:	66 85 c0             	test   %ax,%ax
   11b3a:	0f 88 ec 00 00 00    	js     11c2c <func_72+0x3fb>
   11b40:	48 c7 05 1d 0d 01 00 	movq   $0x0,0x10d1d(%rip)        # 22868 <g_677+0x8>
   11b47:	00 00 00 00 
   11b4b:	e9 bd 00 00 00       	jmpq   11c0d <func_72+0x3dc>
   11b50:	c6 05 ed fd 00 00 00 	movb   $0x0,0xfded(%rip)        # 21944 <g_451+0x4>
   11b57:	e9 90 00 00 00       	jmpq   11bec <func_72+0x3bb>
   11b5c:	c6 05 b1 0c 01 00 00 	movb   $0x0,0x10cb1(%rip)        # 22814 <g_525+0x4>
   11b63:	eb 6c                	jmp    11bd1 <func_72+0x3a0>
   11b65:	48 8b 05 fc 0c 01 00 	mov    0x10cfc(%rip),%rax        # 22868 <g_677+0x8>
   11b6c:	0f b6 15 d1 fd 00 00 	movzbl 0xfdd1(%rip),%edx        # 21944 <g_451+0x4>
   11b73:	0f be d2             	movsbl %dl,%edx
   11b76:	0f b6 0d 97 0c 01 00 	movzbl 0x10c97(%rip),%ecx        # 22814 <g_525+0x4>
   11b7d:	0f be c9             	movsbl %cl,%ecx
   11b80:	48 63 f1             	movslq %ecx,%rsi
   11b83:	48 63 ca             	movslq %edx,%rcx
   11b86:	48 89 c2             	mov    %rax,%rdx
   11b89:	48 c1 e2 04          	shl    $0x4,%rdx
   11b8d:	48 29 c2             	sub    %rax,%rdx
   11b90:	48 8d 04 12          	lea    (%rdx,%rdx,1),%rax
   11b94:	48 89 c2             	mov    %rax,%rdx
   11b97:	48 89 c8             	mov    %rcx,%rax
   11b9a:	48 c1 e0 02          	shl    $0x2,%rax
   11b9e:	48 01 c8             	add    %rcx,%rax
   11ba1:	48 01 c0             	add    %rax,%rax
   11ba4:	48 01 d0             	add    %rdx,%rax
   11ba7:	48 01 f0             	add    %rsi,%rax
   11baa:	48 8d 14 c5 00 00 00 	lea    0x0(,%rax,8),%rdx
   11bb1:	00 
   11bb2:	48 8d 05 87 f6 00 00 	lea    0xf687(%rip),%rax        # 21240 <g_353>
   11bb9:	48 c7 04 02 ff ff ff 	movq   $0xffffffffffffffff,(%rdx,%rax,1)
   11bc0:	ff 
   11bc1:	0f b6 05 4c 0c 01 00 	movzbl 0x10c4c(%rip),%eax        # 22814 <g_525+0x4>
   11bc8:	83 c0 01             	add    $0x1,%eax
   11bcb:	88 05 43 0c 01 00    	mov    %al,0x10c43(%rip)        # 22814 <g_525+0x4>
   11bd1:	0f b6 05 3c 0c 01 00 	movzbl 0x10c3c(%rip),%eax        # 22814 <g_525+0x4>
   11bd8:	3c 09                	cmp    $0x9,%al
   11bda:	7e 89                	jle    11b65 <func_72+0x334>
   11bdc:	0f b6 05 61 fd 00 00 	movzbl 0xfd61(%rip),%eax        # 21944 <g_451+0x4>
   11be3:	83 c0 01             	add    $0x1,%eax
   11be6:	88 05 58 fd 00 00    	mov    %al,0xfd58(%rip)        # 21944 <g_451+0x4>
   11bec:	0f b6 05 51 fd 00 00 	movzbl 0xfd51(%rip),%eax        # 21944 <g_451+0x4>
   11bf3:	3c 02                	cmp    $0x2,%al
   11bf5:	0f 8e 61 ff ff ff    	jle    11b5c <func_72+0x32b>
   11bfb:	48 8b 05 66 0c 01 00 	mov    0x10c66(%rip),%rax        # 22868 <g_677+0x8>
   11c02:	48 83 c0 01          	add    $0x1,%rax
   11c06:	48 89 05 5b 0c 01 00 	mov    %rax,0x10c5b(%rip)        # 22868 <g_677+0x8>
   11c0d:	48 8b 05 54 0c 01 00 	mov    0x10c54(%rip),%rax        # 22868 <g_677+0x8>
   11c14:	48 83 f8 03          	cmp    $0x3,%rax
   11c18:	0f 86 32 ff ff ff    	jbe    11b50 <func_72+0x31f>
   11c1e:	48 8b 05 db 5a 01 00 	mov    0x15adb(%rip),%rax        # 27700 <g_106>
   11c25:	8b 00                	mov    (%rax),%eax
   11c27:	e9 80 1e 00 00       	jmpq   13aac <func_72+0x227b>
   11c2c:	8b 85 ac ef ff ff    	mov    -0x1054(%rbp),%eax
   11c32:	83 c0 01             	add    $0x1,%eax
   11c35:	89 85 ac ef ff ff    	mov    %eax,-0x1054(%rbp)
   11c3b:	8b 85 ac ef ff ff    	mov    -0x1054(%rbp),%eax
   11c41:	83 f8 01             	cmp    $0x1,%eax
   11c44:	0f 8e dd fd ff ff    	jle    11a27 <func_72+0x1f6>
   11c4a:	66 c7 05 31 0b 01 00 	movw   $0x12,0x10b31(%rip)        # 22784 <g_500+0x4>
   11c51:	12 00 
   11c53:	e9 95 03 00 00       	jmpq   11fed <func_72+0x7bc>
   11c58:	48 c7 85 e0 f0 ff ff 	movq   $0x0,-0xf20(%rbp)
   11c5f:	00 00 00 00 
   11c63:	48 8d 85 10 f0 ff ff 	lea    -0xff0(%rbp),%rax
   11c6a:	48 89 85 e8 f0 ff ff 	mov    %rax,-0xf18(%rbp)
   11c71:	48 8d 05 50 f4 00 00 	lea    0xf450(%rip),%rax        # 210c8 <g_32+0x88>
   11c78:	48 89 85 f0 f0 ff ff 	mov    %rax,-0xf10(%rbp)
   11c7f:	c7 85 08 f0 ff ff ff 	movl   $0xffffffff,-0xff8(%rbp)
   11c86:	ff ff ff 
   11c89:	c7 85 0c f0 ff ff c9 	movl   $0x889fecc9,-0xff4(%rbp)
   11c90:	ec 9f 88 
   11c93:	48 8d 05 36 0c 01 00 	lea    0x10c36(%rip),%rax        # 228d0 <g_708+0x30>
   11c9a:	48 89 85 18 f0 ff ff 	mov    %rax,-0xfe8(%rbp)
   11ca1:	48 8d 85 18 f0 ff ff 	lea    -0xfe8(%rbp),%rax
   11ca8:	48 89 85 20 f0 ff ff 	mov    %rax,-0xfe0(%rbp)
   11caf:	48 8d 85 20 f0 ff ff 	lea    -0xfe0(%rbp),%rax
   11cb6:	48 89 85 f8 f0 ff ff 	mov    %rax,-0xf08(%rbp)
   11cbd:	48 8d 85 20 f8 ff ff 	lea    -0x7e0(%rbp),%rax
   11cc4:	48 89 85 00 f1 ff ff 	mov    %rax,-0xf00(%rbp)
   11ccb:	48 8d 85 c7 ef ff ff 	lea    -0x1039(%rbp),%rax
   11cd2:	48 89 85 28 f0 ff ff 	mov    %rax,-0xfd8(%rbp)
   11cd9:	48 8d 85 28 f0 ff ff 	lea    -0xfd8(%rbp),%rax
   11ce0:	48 89 85 18 f1 ff ff 	mov    %rax,-0xee8(%rbp)
   11ce7:	48 8d 85 18 f1 ff ff 	lea    -0xee8(%rbp),%rax
   11cee:	48 89 85 08 f1 ff ff 	mov    %rax,-0xef8(%rbp)
   11cf5:	48 8b 05 04 5a 01 00 	mov    0x15a04(%rip),%rax        # 27700 <g_106>
   11cfc:	8b 10                	mov    (%rax),%edx
   11cfe:	48 8b 05 fb 59 01 00 	mov    0x159fb(%rip),%rax        # 27700 <g_106>
   11d05:	81 e2 21 50 2e 4e    	and    $0x4e2e5021,%edx
   11d0b:	89 10                	mov    %edx,(%rax)
   11d0d:	8b 85 0c f0 ff ff    	mov    -0xff4(%rbp),%eax
   11d13:	0f b7 d8             	movzwl %ax,%ebx
   11d16:	0f b6 85 90 ef ff ff 	movzbl -0x1070(%rbp),%eax
   11d1d:	44 0f b6 e0          	movzbl %al,%r12d
   11d21:	0f b6 85 90 ef ff ff 	movzbl -0x1070(%rbp),%eax
   11d28:	84 c0                	test   %al,%al
   11d2a:	0f 84 9e 00 00 00    	je     11dce <func_72+0x59d>
   11d30:	0f b6 85 c7 ef ff ff 	movzbl -0x1039(%rbp),%eax
   11d37:	44 0f be e8          	movsbl %al,%r13d
   11d3b:	0f b6 85 b0 ef ff ff 	movzbl -0x1050(%rbp),%eax
   11d42:	44 0f b6 f0          	movzbl %al,%r14d
   11d46:	0f b6 85 b1 ef ff ff 	movzbl -0x104f(%rbp),%eax
   11d4d:	0f b6 d0             	movzbl %al,%edx
   11d50:	8b 05 ee fb 00 00    	mov    0xfbee(%rip),%eax        # 21944 <g_451+0x4>
   11d56:	c1 e0 05             	shl    $0x5,%eax
   11d59:	c1 f8 0d             	sar    $0xd,%eax
   11d5c:	85 c0                	test   %eax,%eax
   11d5e:	0f 95 c0             	setne  %al
   11d61:	0f b6 c0             	movzbl %al,%eax
   11d64:	89 d6                	mov    %edx,%esi
   11d66:	89 c7                	mov    %eax,%edi
   11d68:	e8 d0 7f ff ff       	callq  9d3d <safe_mul_func_uint16_t_u_u>
   11d6d:	0f b7 c0             	movzwl %ax,%eax
   11d70:	44 89 f6             	mov    %r14d,%esi
   11d73:	89 c7                	mov    %eax,%edi
   11d75:	e8 c3 7f ff ff       	callq  9d3d <safe_mul_func_uint16_t_u_u>
   11d7a:	0f be c0             	movsbl %al,%eax
   11d7d:	be 04 00 00 00       	mov    $0x4,%esi
   11d82:	89 c7                	mov    %eax,%edi
   11d84:	e8 89 74 ff ff       	callq  9212 <safe_mul_func_int8_t_s_s>
   11d89:	0f be d0             	movsbl %al,%edx
   11d8c:	48 8b 85 f0 f0 ff ff 	mov    -0xf10(%rbp),%rax
   11d93:	89 10                	mov    %edx,(%rax)
   11d95:	48 8b 85 f0 f0 ff ff 	mov    -0xf10(%rbp),%rax
   11d9c:	8b 00                	mov    (%rax),%eax
   11d9e:	be 26 2d 9d 7a       	mov    $0x7a9d2d26,%esi
   11da3:	89 c7                	mov    %eax,%edi
   11da5:	e8 7b 81 ff ff       	callq  9f25 <safe_div_func_uint32_t_u_u>
   11daa:	89 c2                	mov    %eax,%edx
   11dac:	8b 05 66 f9 00 00    	mov    0xf966(%rip),%eax        # 21718 <g_443+0xb8>
   11db2:	c1 e0 05             	shl    $0x5,%eax
   11db5:	c1 f8 0d             	sar    $0xd,%eax
   11db8:	21 d0                	and    %edx,%eax
   11dba:	44 89 ee             	mov    %r13d,%esi
   11dbd:	89 c7                	mov    %eax,%edi
   11dbf:	e8 41 78 ff ff       	callq  9605 <safe_sub_func_int32_t_s_s>
   11dc4:	8b 95 ac ef ff ff    	mov    -0x1054(%rbp),%edx
   11dca:	39 d0                	cmp    %edx,%eax
   11dcc:	75 0a                	jne    11dd8 <func_72+0x5a7>
   11dce:	8b 85 b4 ef ff ff    	mov    -0x104c(%rbp),%eax
   11dd4:	85 c0                	test   %eax,%eax
   11dd6:	74 07                	je     11ddf <func_72+0x5ae>
   11dd8:	b8 01 00 00 00       	mov    $0x1,%eax
   11ddd:	eb 05                	jmp    11de4 <func_72+0x5b3>
   11ddf:	b8 00 00 00 00       	mov    $0x0,%eax
   11de4:	48 63 d0             	movslq %eax,%rdx
   11de7:	8b 05 63 fb 00 00    	mov    0xfb63(%rip),%eax        # 21950 <g_451+0x10>
   11ded:	c1 e0 0d             	shl    $0xd,%eax
   11df0:	c1 f8 0d             	sar    $0xd,%eax
   11df3:	89 c7                	mov    %eax,%edi
   11df5:	48 8b 05 ec 59 01 00 	mov    0x159ec(%rip),%rax        # 277e8 <g_580>
   11dfc:	48 8b 30             	mov    (%rax),%rsi
   11dff:	48 8b 8d 10 f0 ff ff 	mov    -0xff0(%rbp),%rcx
   11e06:	48 8b 85 e8 f0 ff ff 	mov    -0xf18(%rbp),%rax
   11e0d:	48 89 08             	mov    %rcx,(%rax)
   11e10:	48 8b 85 e8 f0 ff ff 	mov    -0xf18(%rbp),%rax
   11e17:	48 8b 00             	mov    (%rax),%rax
   11e1a:	48 39 c6             	cmp    %rax,%rsi
   11e1d:	0f 94 c0             	sete   %al
   11e20:	0f b6 c0             	movzbl %al,%eax
   11e23:	39 c7                	cmp    %eax,%edi
   11e25:	0f 9c c0             	setl   %al
   11e28:	0f b6 c0             	movzbl %al,%eax
   11e2b:	48 89 d6             	mov    %rdx,%rsi
   11e2e:	48 89 c7             	mov    %rax,%rdi
   11e31:	e8 c1 7b ff ff       	callq  99f7 <safe_div_func_int64_t_s_s>
   11e36:	0f b6 95 c9 ef ff ff 	movzbl -0x1037(%rbp),%edx
   11e3d:	48 39 d0             	cmp    %rdx,%rax
   11e40:	7c 07                	jl     11e49 <func_72+0x618>
   11e42:	83 bd 08 f0 ff ff 00 	cmpl   $0x0,-0xff8(%rbp)
   11e49:	0f b7 85 b8 ef ff ff 	movzwl -0x1048(%rbp),%eax
   11e50:	98                   	cwtl   
   11e51:	44 89 e6             	mov    %r12d,%esi
   11e54:	89 c7                	mov    %eax,%edi
   11e56:	e8 cf 76 ff ff       	callq  952a <safe_rshift_func_int16_t_s_s>
   11e5b:	0f b7 c0             	movzwl %ax,%eax
   11e5e:	89 de                	mov    %ebx,%esi
   11e60:	89 c7                	mov    %eax,%edi
   11e62:	e8 27 7f ff ff       	callq  9d8e <safe_div_func_uint16_t_u_u>
   11e67:	0f b7 c0             	movzwl %ax,%eax
   11e6a:	89 85 cc ef ff ff    	mov    %eax,-0x1034(%rbp)
   11e70:	8b 8d cc ef ff ff    	mov    -0x1034(%rbp),%ecx
   11e76:	48 8b 05 83 58 01 00 	mov    0x15883(%rip),%rax        # 27700 <g_106>
   11e7d:	8b 10                	mov    (%rax),%edx
   11e7f:	48 8b 05 7a 58 01 00 	mov    0x1587a(%rip),%rax        # 27700 <g_106>
   11e86:	09 ca                	or     %ecx,%edx
   11e88:	89 10                	mov    %edx,(%rax)
   11e8a:	ba 00 00 00 00       	mov    $0x0,%edx
   11e8f:	48 8b 85 f8 f0 ff ff 	mov    -0xf08(%rbp),%rax
   11e96:	48 89 10             	mov    %rdx,(%rax)
   11e99:	b8 ff ff ff ff       	mov    $0xffffffff,%eax
   11e9e:	0f b7 d8             	movzwl %ax,%ebx
   11ea1:	48 8b 05 58 58 01 00 	mov    0x15858(%rip),%rax        # 27700 <g_106>
   11ea8:	8b 00                	mov    (%rax),%eax
   11eaa:	41 89 c5             	mov    %eax,%r13d
   11ead:	48 8b 05 04 59 01 00 	mov    0x15904(%rip),%rax        # 277b8 <g_255>
   11eb4:	c6 00 00             	movb   $0x0,(%rax)
   11eb7:	0f b6 85 c7 ef ff ff 	movzbl -0x1039(%rbp),%eax
   11ebe:	44 0f be e0          	movsbl %al,%r12d
   11ec2:	0f b6 85 b0 ef ff ff 	movzbl -0x1050(%rbp),%eax
   11ec9:	0f b6 c0             	movzbl %al,%eax
   11ecc:	39 85 04 f0 ff ff    	cmp    %eax,-0xffc(%rbp)
   11ed2:	0f 9e c0             	setle  %al
   11ed5:	0f b6 d0             	movzbl %al,%edx
   11ed8:	48 8b 85 f0 f0 ff ff 	mov    -0xf10(%rbp),%rax
   11edf:	89 10                	mov    %edx,(%rax)
   11ee1:	48 8b 85 f0 f0 ff ff 	mov    -0xf10(%rbp),%rax
   11ee8:	8b 00                	mov    (%rax),%eax
   11eea:	85 c0                	test   %eax,%eax
   11eec:	75 0d                	jne    11efb <func_72+0x6ca>
   11eee:	48 8b 85 a0 ef ff ff 	mov    -0x1060(%rbp),%rax
   11ef5:	8b 00                	mov    (%rax),%eax
   11ef7:	85 c0                	test   %eax,%eax
   11ef9:	74 07                	je     11f02 <func_72+0x6d1>
   11efb:	b8 01 00 00 00       	mov    $0x1,%eax
   11f00:	eb 05                	jmp    11f07 <func_72+0x6d6>
   11f02:	b8 00 00 00 00       	mov    $0x0,%eax
   11f07:	0f b7 c0             	movzwl %ax,%eax
   11f0a:	be 09 00 00 00       	mov    $0x9,%esi
   11f0f:	89 c7                	mov    %eax,%edi
   11f11:	e8 32 7f ff ff       	callq  9e48 <safe_rshift_func_uint16_t_u_s>
   11f16:	0f b7 d0             	movzwl %ax,%edx
   11f19:	0f b6 85 b1 ef ff ff 	movzbl -0x104f(%rbp),%eax
   11f20:	0f b6 c0             	movzbl %al,%eax
   11f23:	39 85 04 f0 ff ff    	cmp    %eax,-0xffc(%rbp)
   11f29:	0f 9f c0             	setg   %al
   11f2c:	0f b6 c0             	movzbl %al,%eax
   11f2f:	39 c2                	cmp    %eax,%edx
   11f31:	0f 9d c0             	setge  %al
   11f34:	0f b6 c0             	movzbl %al,%eax
   11f37:	39 85 04 f0 ff ff    	cmp    %eax,-0xffc(%rbp)
   11f3d:	0f 9c c0             	setl   %al
   11f40:	0f b6 c0             	movzbl %al,%eax
   11f43:	44 89 e6             	mov    %r12d,%esi
   11f46:	89 c7                	mov    %eax,%edi
   11f48:	e8 83 7f ff ff       	callq  9ed0 <safe_sub_func_uint32_t_u_u>
   11f4d:	85 c0                	test   %eax,%eax
   11f4f:	0f 94 c0             	sete   %al
   11f52:	0f b6 d0             	movzbl %al,%edx
   11f55:	0f b6 85 b1 ef ff ff 	movzbl -0x104f(%rbp),%eax
   11f5c:	0f b6 c0             	movzbl %al,%eax
   11f5f:	31 d0                	xor    %edx,%eax
   11f61:	f7 d0                	not    %eax
   11f63:	44 89 ee             	mov    %r13d,%esi
   11f66:	89 c7                	mov    %eax,%edi
   11f68:	e8 90 7f ff ff       	callq  9efd <safe_mod_func_uint32_t_u_u>
   11f6d:	0f b7 c0             	movzwl %ax,%eax
   11f70:	89 de                	mov    %ebx,%esi
   11f72:	89 c7                	mov    %eax,%edi
   11f74:	e8 c4 7d ff ff       	callq  9d3d <safe_mul_func_uint16_t_u_u>
   11f79:	0f b6 d0             	movzbl %al,%edx
   11f7c:	48 8b 85 d8 f0 ff ff 	mov    -0xf28(%rbp),%rax
   11f83:	48 89 85 00 f1 ff ff 	mov    %rax,-0xf00(%rbp)
   11f8a:	48 8b 85 00 f1 ff ff 	mov    -0xf00(%rbp),%rax
   11f91:	48 3b 85 08 f1 ff ff 	cmp    -0xef8(%rbp),%rax
   11f98:	74 07                	je     11fa1 <func_72+0x770>
   11f9a:	b8 fc ff ff ff       	mov    $0xfffffffc,%eax
   11f9f:	eb 05                	jmp    11fa6 <func_72+0x775>
   11fa1:	b8 fd ff ff ff       	mov    $0xfffffffd,%eax
   11fa6:	88 85 90 ef ff ff    	mov    %al,-0x1070(%rbp)
   11fac:	0f b6 85 90 ef ff ff 	movzbl -0x1070(%rbp),%eax
   11fb3:	0f b6 c0             	movzbl %al,%eax
   11fb6:	89 d6                	mov    %edx,%esi
   11fb8:	89 c7                	mov    %eax,%edi
   11fba:	e8 d4 7b ff ff       	callq  9b93 <safe_mul_func_uint8_t_u_u>
   11fbf:	48 8b 05 3a 57 01 00 	mov    0x1573a(%rip),%rax        # 27700 <g_106>
   11fc6:	8b 00                	mov    (%rax),%eax
   11fc8:	31 85 08 f0 ff ff    	xor    %eax,-0xff8(%rbp)
   11fce:	0f b7 05 af 07 01 00 	movzwl 0x107af(%rip),%eax        # 22784 <g_500+0x4>
   11fd5:	48 0f bf c0          	movswq %ax,%rax
   11fd9:	be 05 00 00 00       	mov    $0x5,%esi
   11fde:	48 89 c7             	mov    %rax,%rdi
   11fe1:	e8 65 80 ff ff       	callq  a04b <safe_sub_func_uint64_t_u_u>
   11fe6:	66 89 05 97 07 01 00 	mov    %ax,0x10797(%rip)        # 22784 <g_500+0x4>
   11fed:	0f b7 05 90 07 01 00 	movzwl 0x10790(%rip),%eax        # 22784 <g_500+0x4>
   11ff4:	66 83 f8 0f          	cmp    $0xf,%ax
   11ff8:	0f 8e 5a fc ff ff    	jle    11c58 <func_72+0x427>
   11ffe:	e9 a0 1a 00 00       	jmpq   13aa3 <func_72+0x2272>
   12003:	c7 85 f4 ef ff ff af 	movl   $0x38c88baf,-0x100c(%rbp)
   1200a:	8b c8 38 
   1200d:	c7 85 20 f0 ff ff 49 	movl   $0xb4948849,-0xfe0(%rbp)
   12014:	88 94 b4 
   12017:	48 8d 05 24 f1 00 00 	lea    0xf124(%rip),%rax        # 21142 <g_180>
   1201e:	48 89 85 48 f0 ff ff 	mov    %rax,-0xfb8(%rbp)
   12025:	48 8d 85 70 f3 ff ff 	lea    -0xc90(%rbp),%rax
   1202c:	48 8d 15 ad 48 01 00 	lea    0x148ad(%rip),%rdx        # 268e0 <g_2104+0x1860>
   12033:	b9 96 00 00 00       	mov    $0x96,%ecx
   12038:	48 89 c7             	mov    %rax,%rdi
   1203b:	48 89 d6             	mov    %rdx,%rsi
   1203e:	f3 48 a5             	rep movsq %ds:(%rsi),%es:(%rdi)
   12041:	48 8d 05 d5 f0 00 00 	lea    0xf0d5(%rip),%rax        # 2111d <g_108+0x1>
   12048:	48 89 85 50 f0 ff ff 	mov    %rax,-0xfb0(%rbp)
   1204f:	c7 45 c1 fb fb fb fb 	movl   $0xfbfbfbfb,-0x3f(%rbp)
   12056:	66 c7 45 c5 fb fb    	movw   $0xfbfb,-0x3b(%rbp)
   1205c:	c6 45 c7 fb          	movb   $0xfb,-0x39(%rbp)
   12060:	48 8d 05 b1 f1 00 00 	lea    0xf1b1(%rip),%rax        # 21218 <g_185>
   12067:	48 89 85 58 f0 ff ff 	mov    %rax,-0xfa8(%rbp)
   1206e:	48 8d 05 2b fb 00 00 	lea    0xfb2b(%rip),%rax        # 21ba0 <g_498+0x240>
   12075:	48 89 85 00 f2 ff ff 	mov    %rax,-0xe00(%rbp)
   1207c:	48 8d 05 1d fb 00 00 	lea    0xfb1d(%rip),%rax        # 21ba0 <g_498+0x240>
   12083:	48 89 85 08 f2 ff ff 	mov    %rax,-0xdf8(%rbp)
   1208a:	48 8d 05 0f fb 00 00 	lea    0xfb0f(%rip),%rax        # 21ba0 <g_498+0x240>
   12091:	48 89 85 10 f2 ff ff 	mov    %rax,-0xdf0(%rbp)
   12098:	48 8d 05 01 fb 00 00 	lea    0xfb01(%rip),%rax        # 21ba0 <g_498+0x240>
   1209f:	48 89 85 18 f2 ff ff 	mov    %rax,-0xde8(%rbp)
   120a6:	48 8d 05 f3 fa 00 00 	lea    0xfaf3(%rip),%rax        # 21ba0 <g_498+0x240>
   120ad:	48 89 85 20 f2 ff ff 	mov    %rax,-0xde0(%rbp)
   120b4:	48 8d 05 e5 fa 00 00 	lea    0xfae5(%rip),%rax        # 21ba0 <g_498+0x240>
   120bb:	48 89 85 28 f2 ff ff 	mov    %rax,-0xdd8(%rbp)
   120c2:	48 8d 05 d7 fa 00 00 	lea    0xfad7(%rip),%rax        # 21ba0 <g_498+0x240>
   120c9:	48 89 85 30 f2 ff ff 	mov    %rax,-0xdd0(%rbp)
   120d0:	48 8d 05 c9 fa 00 00 	lea    0xfac9(%rip),%rax        # 21ba0 <g_498+0x240>
   120d7:	48 89 85 38 f2 ff ff 	mov    %rax,-0xdc8(%rbp)
   120de:	48 8d 05 bb fa 00 00 	lea    0xfabb(%rip),%rax        # 21ba0 <g_498+0x240>
   120e5:	48 89 85 40 f2 ff ff 	mov    %rax,-0xdc0(%rbp)
   120ec:	0f b6 85 c8 ef ff ff 	movzbl -0x1038(%rbp),%eax
   120f3:	84 c0                	test   %al,%al
   120f5:	0f 84 d6 06 00 00    	je     127d1 <func_72+0xfa0>
   120fb:	48 8d 05 40 f0 00 00 	lea    0xf040(%rip),%rax        # 21142 <g_180>
   12102:	48 89 85 80 f0 ff ff 	mov    %rax,-0xf80(%rbp)
   12109:	c6 85 18 f1 ff ff 01 	movb   $0x1,-0xee8(%rbp)
   12110:	c6 85 19 f1 ff ff ac 	movb   $0xac,-0xee7(%rbp)
   12117:	c7 85 1c f1 ff ff ff 	movl   $0xffffffff,-0xee4(%rbp)
   1211e:	ff ff ff 
   12121:	66 c7 85 20 f1 ff ff 	movw   $0xed6e,-0xee0(%rbp)
   12128:	6e ed 
   1212a:	c7 85 fc ef ff ff 00 	movl   $0x0,-0x1004(%rbp)
   12131:	00 00 00 
   12134:	48 8d 05 ee f0 00 00 	lea    0xf0ee(%rip),%rax        # 21229 <g_244+0x3>
   1213b:	48 89 85 88 f0 ff ff 	mov    %rax,-0xf78(%rbp)
   12142:	48 c7 85 90 f0 ff ff 	movq   $0x0,-0xf70(%rbp)
   12149:	00 00 00 00 
   1214d:	48 8d 05 cd ef 00 00 	lea    0xefcd(%rip),%rax        # 21121 <g_108+0x5>
   12154:	48 89 85 98 f0 ff ff 	mov    %rax,-0xf68(%rbp)
   1215b:	8b 05 1f 06 01 00    	mov    0x1061f(%rip),%eax        # 22780 <g_500>
   12161:	c1 e0 04             	shl    $0x4,%eax
   12164:	89 c2                	mov    %eax,%edx
   12166:	c1 fa 04             	sar    $0x4,%edx
   12169:	0f b6 05 90 f4 00 00 	movzbl 0xf490(%rip),%eax        # 21600 <g_409>
   12170:	0f be c0             	movsbl %al,%eax
   12173:	c1 e0 04             	shl    $0x4,%eax
   12176:	c1 f8 04             	sar    $0x4,%eax
   12179:	39 c2                	cmp    %eax,%edx
   1217b:	0f 8d 8e 01 00 00    	jge    1230f <func_72+0xade>
   12181:	48 8d 05 b8 07 01 00 	lea    0x107b8(%rip),%rax        # 22940 <g_742>
   12188:	48 89 85 c0 f0 ff ff 	mov    %rax,-0xf40(%rbp)
   1218f:	48 c7 85 c8 f0 ff ff 	movq   $0x0,-0xf38(%rbp)
   12196:	00 00 00 00 
   1219a:	48 c7 85 d0 f0 ff ff 	movq   $0x0,-0xf30(%rbp)
   121a1:	00 00 00 00 
   121a5:	48 8b 05 54 55 01 00 	mov    0x15554(%rip),%rax        # 27700 <g_106>
   121ac:	48 8b 95 a0 ef ff ff 	mov    -0x1060(%rbp),%rdx
   121b3:	8b 12                	mov    (%rdx),%edx
   121b5:	89 10                	mov    %edx,(%rax)
   121b7:	8b 10                	mov    (%rax),%edx
   121b9:	8b 85 20 f0 ff ff    	mov    -0xfe0(%rbp),%eax
   121bf:	33 85 f4 ef ff ff    	xor    -0x100c(%rbp),%eax
   121c5:	89 85 20 f0 ff ff    	mov    %eax,-0xfe0(%rbp)
   121cb:	8b 85 20 f0 ff ff    	mov    -0xfe0(%rbp),%eax
   121d1:	21 c2                	and    %eax,%edx
   121d3:	41 89 d4             	mov    %edx,%r12d
   121d6:	48 8b 85 c0 f4 ff ff 	mov    -0xb40(%rbp),%rax
   121dd:	48 85 c0             	test   %rax,%rax
   121e0:	0f 94 c0             	sete   %al
   121e3:	0f b6 c0             	movzbl %al,%eax
   121e6:	8b 95 f4 ef ff ff    	mov    -0x100c(%rbp),%edx
   121ec:	89 d6                	mov    %edx,%esi
   121ee:	89 c7                	mov    %eax,%edi
   121f0:	e8 30 7d ff ff       	callq  9f25 <safe_div_func_uint32_t_u_u>
   121f5:	0f b6 85 c8 ef ff ff 	movzbl -0x1038(%rbp),%eax
   121fc:	0f b6 d0             	movzbl %al,%edx
   121ff:	48 8b 05 d2 06 01 00 	mov    0x106d2(%rip),%rax        # 228d8 <g_708+0x38>
   12206:	48 c1 e0 03          	shl    $0x3,%rax
   1220a:	48 c1 f8 3f          	sar    $0x3f,%rax
   1220e:	0f be c0             	movsbl %al,%eax
   12211:	21 d0                	and    %edx,%eax
   12213:	85 c0                	test   %eax,%eax
   12215:	74 12                	je     12229 <func_72+0x9f8>
   12217:	0f b6 85 18 f1 ff ff 	movzbl -0xee8(%rbp),%eax
   1221e:	84 c0                	test   %al,%al
   12220:	74 07                	je     12229 <func_72+0x9f8>
   12222:	b8 01 00 00 00       	mov    $0x1,%eax
   12227:	eb 05                	jmp    1222e <func_72+0x9fd>
   12229:	b8 00 00 00 00       	mov    $0x0,%eax
   1222e:	0f b6 d8             	movzbl %al,%ebx
   12231:	0f b6 85 91 ef ff ff 	movzbl -0x106f(%rbp),%eax
   12238:	84 c0                	test   %al,%al
   1223a:	74 17                	je     12253 <func_72+0xa22>
   1223c:	48 8b 85 80 f0 ff ff 	mov    -0xf80(%rbp),%rax
   12243:	48 3b 85 48 f0 ff ff 	cmp    -0xfb8(%rbp),%rax
   1224a:	75 07                	jne    12253 <func_72+0xa22>
   1224c:	b8 01 00 00 00       	mov    $0x1,%eax
   12251:	eb 05                	jmp    12258 <func_72+0xa27>
   12253:	b8 00 00 00 00       	mov    $0x0,%eax
   12258:	f7 d0                	not    %eax
   1225a:	98                   	cwtl   
   1225b:	89 c6                	mov    %eax,%esi
   1225d:	bf ca d0 ff ff       	mov    $0xffffd0ca,%edi
   12262:	e8 ee 71 ff ff       	callq  9455 <safe_div_func_int16_t_s_s>
   12267:	0f b6 c0             	movzbl %al,%eax
   1226a:	89 de                	mov    %ebx,%esi
   1226c:	89 c7                	mov    %eax,%edi
   1226e:	e8 e7 78 ff ff       	callq  9b5a <safe_add_func_uint8_t_u_u>
   12273:	0f b6 c0             	movzbl %al,%eax
   12276:	44 89 e2             	mov    %r12d,%edx
   12279:	31 c2                	xor    %eax,%edx
   1227b:	48 8b 85 c0 f0 ff ff 	mov    -0xf40(%rbp),%rax
   12282:	89 10                	mov    %edx,(%rax)
   12284:	c7 85 fc ef ff ff 00 	movl   $0x0,-0x1004(%rbp)
   1228b:	00 00 00 
   1228e:	48 c7 85 70 f1 ff ff 	movq   $0x0,-0xe90(%rbp)
   12295:	00 00 00 00 
   12299:	48 8b 85 70 f1 ff ff 	mov    -0xe90(%rbp),%rax
   122a0:	98                   	cwtl   
   122a1:	be 0c 00 00 00       	mov    $0xc,%esi
   122a6:	89 c7                	mov    %eax,%edi
   122a8:	e8 7d 72 ff ff       	callq  952a <safe_rshift_func_int16_t_s_s>
   122ad:	66 85 c0             	test   %ax,%ax
   122b0:	75 3a                	jne    122ec <func_72+0xabb>
   122b2:	48 8d 05 5f ef 00 00 	lea    0xef5f(%rip),%rax        # 21218 <g_185>
   122b9:	48 89 05 c0 5c 01 00 	mov    %rax,0x15cc0(%rip)        # 27f80 <g_750>
   122c0:	48 8b 15 b9 5c 01 00 	mov    0x15cb9(%rip),%rdx        # 27f80 <g_750>
   122c7:	48 8b 05 1a 55 01 00 	mov    0x1551a(%rip),%rax        # 277e8 <g_580>
   122ce:	48 8b 00             	mov    (%rax),%rax
   122d1:	48 39 c2             	cmp    %rax,%rdx
   122d4:	0f 94 c0             	sete   %al
   122d7:	0f b6 d0             	movzbl %al,%edx
   122da:	8b 05 64 f6 00 00    	mov    0xf664(%rip),%eax        # 21944 <g_451+0x4>
   122e0:	c1 e0 05             	shl    $0x5,%eax
   122e3:	c1 f8 0d             	sar    $0xd,%eax
   122e6:	09 d0                	or     %edx,%eax
   122e8:	85 c0                	test   %eax,%eax
   122ea:	74 07                	je     122f3 <func_72+0xac2>
   122ec:	b8 01 00 00 00       	mov    $0x1,%eax
   122f1:	eb 05                	jmp    122f8 <func_72+0xac7>
   122f3:	b8 00 00 00 00       	mov    $0x0,%eax
   122f8:	83 f8 ff             	cmp    $0xffffffff,%eax
   122fb:	0f 94 c0             	sete   %al
   122fe:	0f b6 d0             	movzbl %al,%edx
   12301:	48 8b 85 c0 f0 ff ff 	mov    -0xf40(%rbp),%rax
   12308:	89 10                	mov    %edx,(%rax)
   1230a:	e9 94 17 00 00       	jmpq   13aa3 <func_72+0x2272>
   1230f:	66 c7 85 ca ef ff ff 	movw   $0x0,-0x1036(%rbp)
   12316:	00 00 
   12318:	66 c7 05 63 04 01 00 	movw   $0x2,0x10463(%rip)        # 22784 <g_500+0x4>
   1231f:	02 00 
   12321:	e9 96 04 00 00       	jmpq   127bc <func_72+0xf8b>
   12326:	48 c7 85 a0 f0 ff ff 	movq   $0x3,-0xf60(%rbp)
   1232d:	03 00 00 00 
   12331:	48 8d 05 f8 ed 00 00 	lea    0xedf8(%rip),%rax        # 21130 <g_137>
   12338:	48 89 85 a8 f0 ff ff 	mov    %rax,-0xf58(%rbp)
   1233f:	c7 85 00 f0 ff ff a2 	movl   $0x334f90a2,-0x1000(%rbp)
   12346:	90 4f 33 
   12349:	8b 85 94 ef ff ff    	mov    -0x106c(%rbp),%eax
   1234f:	89 c3                	mov    %eax,%ebx
   12351:	8b 05 81 f4 00 00    	mov    0xf481(%rip),%eax        # 217d8 <g_444+0x8>
   12357:	25 ff ff ff 03       	and    $0x3ffffff,%eax
   1235c:	85 c0                	test   %eax,%eax
   1235e:	0f 84 ba 00 00 00    	je     1241e <func_72+0xbed>
   12364:	48 8b 85 a8 f0 ff ff 	mov    -0xf58(%rbp),%rax
   1236b:	48 8b 95 a0 f0 ff ff 	mov    -0xf60(%rbp),%rdx
   12372:	48 89 10             	mov    %rdx,(%rax)
   12375:	48 8b 85 a8 f0 ff ff 	mov    -0xf58(%rbp),%rax
   1237c:	48 8b 00             	mov    (%rax),%rax
   1237f:	41 89 c4             	mov    %eax,%r12d
   12382:	48 8d 05 bb 04 01 00 	lea    0x104bb(%rip),%rax        # 22844 <g_582>
   12389:	48 39 85 88 f0 ff ff 	cmp    %rax,-0xf78(%rbp)
   12390:	0f 95 c0             	setne  %al
   12393:	0f b6 d0             	movzbl %al,%edx
   12396:	0f b7 85 98 ef ff ff 	movzwl -0x1068(%rbp),%eax
   1239d:	0f b7 c0             	movzwl %ax,%eax
   123a0:	89 d6                	mov    %edx,%esi
   123a2:	89 c7                	mov    %eax,%edi
   123a4:	e8 76 79 ff ff       	callq  9d1f <safe_sub_func_uint16_t_u_u>
   123a9:	0f b7 c0             	movzwl %ax,%eax
   123ac:	48 39 85 a0 f0 ff ff 	cmp    %rax,-0xf60(%rbp)
   123b3:	48 8b 05 0e 54 01 00 	mov    0x1540e(%rip),%rax        # 277c8 <g_339>
   123ba:	48 8b 00             	mov    (%rax),%rax
   123bd:	48 85 c0             	test   %rax,%rax
   123c0:	0f 95 c0             	setne  %al
   123c3:	0f b6 c0             	movzbl %al,%eax
   123c6:	89 c6                	mov    %eax,%esi
   123c8:	bf f8 ff ff ff       	mov    $0xfffffff8,%edi
   123cd:	e8 e4 71 ff ff       	callq  95b6 <safe_add_func_int32_t_s_s>
   123d2:	0f be c0             	movsbl %al,%eax
   123d5:	be 00 00 00 00       	mov    $0x0,%esi
   123da:	89 c7                	mov    %eax,%edi
   123dc:	e8 54 6f ff ff       	callq  9335 <safe_rshift_func_int8_t_s_s>
   123e1:	3c 01                	cmp    $0x1,%al
   123e3:	0f 95 c0             	setne  %al
   123e6:	0f b6 c0             	movzbl %al,%eax
   123e9:	66 89 85 ca ef ff ff 	mov    %ax,-0x1036(%rbp)
   123f0:	0f b7 85 ca ef ff ff 	movzwl -0x1036(%rbp),%eax
   123f7:	44 31 e0             	xor    %r12d,%eax
   123fa:	89 c2                	mov    %eax,%edx
   123fc:	48 83 bd 50 f0 ff ff 	cmpq   $0x0,-0xfb0(%rbp)
   12403:	00 
   12404:	0f 94 c0             	sete   %al
   12407:	0f b6 c0             	movzbl %al,%eax
   1240a:	89 d6                	mov    %edx,%esi
   1240c:	89 c7                	mov    %eax,%edi
   1240e:	e8 a5 7a ff ff       	callq  9eb8 <safe_add_func_uint32_t_u_u>
   12413:	85 c0                	test   %eax,%eax
   12415:	74 07                	je     1241e <func_72+0xbed>
   12417:	b8 01 00 00 00       	mov    $0x1,%eax
   1241c:	eb 05                	jmp    12423 <func_72+0xbf2>
   1241e:	b8 00 00 00 00       	mov    $0x0,%eax
   12423:	48 98                	cltq   
   12425:	48 89 de             	mov    %rbx,%rsi
   12428:	48 89 c7             	mov    %rax,%rdi
   1242b:	e8 7f 7c ff ff       	callq  a0af <safe_div_func_uint64_t_u_u>
   12430:	0f b6 95 b0 ef ff ff 	movzbl -0x1050(%rbp),%edx
   12437:	0f b6 d2             	movzbl %dl,%edx
   1243a:	48 39 d0             	cmp    %rdx,%rax
   1243d:	0f 94 c0             	sete   %al
   12440:	0f b6 c8             	movzbl %al,%ecx
   12443:	48 8b 05 b6 52 01 00 	mov    0x152b6(%rip),%rax        # 27700 <g_106>
   1244a:	8b 10                	mov    (%rax),%edx
   1244c:	48 8b 05 ad 52 01 00 	mov    0x152ad(%rip),%rax        # 27700 <g_106>
   12453:	09 ca                	or     %ecx,%edx
   12455:	89 10                	mov    %edx,(%rax)
   12457:	66 c7 05 34 03 01 00 	movw   $0x4,0x10334(%rip)        # 22794 <g_501+0x4>
   1245e:	04 00 
   12460:	e9 36 03 00 00       	jmpq   1279b <func_72+0xf6a>
   12465:	48 8d 05 6c 53 01 00 	lea    0x1536c(%rip),%rax        # 277d8 <g_557>
   1246c:	48 89 85 b0 f0 ff ff 	mov    %rax,-0xf50(%rbp)
   12473:	48 8d 85 20 f8 ff ff 	lea    -0x7e0(%rbp),%rax
   1247a:	48 05 d0 00 00 00    	add    $0xd0,%rax
   12480:	48 89 85 b8 f0 ff ff 	mov    %rax,-0xf48(%rbp)
   12487:	c7 85 f0 ef ff ff 00 	movl   $0x0,-0x1010(%rbp)
   1248e:	00 00 00 
   12491:	eb 4a                	jmp    124dd <func_72+0xcac>
   12493:	c7 85 d4 ef ff ff 00 	movl   $0x0,-0x102c(%rbp)
   1249a:	00 00 00 
   1249d:	eb 2e                	jmp    124cd <func_72+0xc9c>
   1249f:	8b 85 d4 ef ff ff    	mov    -0x102c(%rbp),%eax
   124a5:	48 98                	cltq   
   124a7:	8b 95 f0 ef ff ff    	mov    -0x1010(%rbp),%edx
   124ad:	48 63 d2             	movslq %edx,%rdx
   124b0:	48 c1 e2 02          	shl    $0x2,%rdx
   124b4:	48 01 c2             	add    %rax,%rdx
   124b7:	48 8d 85 c8 ef ff ff 	lea    -0x1038(%rbp),%rax
   124be:	48 89 84 d5 20 f8 ff 	mov    %rax,-0x7e0(%rbp,%rdx,8)
   124c5:	ff 
   124c6:	83 85 d4 ef ff ff 01 	addl   $0x1,-0x102c(%rbp)
   124cd:	83 bd d4 ef ff ff 03 	cmpl   $0x3,-0x102c(%rbp)
   124d4:	7e c9                	jle    1249f <func_72+0xc6e>
   124d6:	83 85 f0 ef ff ff 01 	addl   $0x1,-0x1010(%rbp)
   124dd:	83 bd f0 ef ff ff 06 	cmpl   $0x6,-0x1010(%rbp)
   124e4:	7e ad                	jle    12493 <func_72+0xc62>
   124e6:	48 8b 85 50 f0 ff ff 	mov    -0xfb0(%rbp),%rax
   124ed:	c6 00 00             	movb   $0x0,(%rax)
   124f0:	be 00 00 00 00       	mov    $0x0,%esi
   124f5:	bf 00 00 00 00       	mov    $0x0,%edi
   124fa:	e8 4d 77 ff ff       	callq  9c4c <safe_lshift_func_uint8_t_u_u>
   124ff:	0f b6 d0             	movzbl %al,%edx
   12502:	66 c7 05 19 ed 00 00 	movw   $0xffff,0xed19(%rip)        # 21224 <g_197>
   12509:	ff ff 
   1250b:	48 8b 85 80 f0 ff ff 	mov    -0xf80(%rbp),%rax
   12512:	0f b7 00             	movzwl (%rax),%eax
   12515:	8d 48 ff             	lea    -0x1(%rax),%ecx
   12518:	48 8b 85 80 f0 ff ff 	mov    -0xf80(%rbp),%rax
   1251f:	66 89 08             	mov    %cx,(%rax)
   12522:	48 8b 85 80 f0 ff ff 	mov    -0xf80(%rbp),%rax
   12529:	0f b7 00             	movzwl (%rax),%eax
   1252c:	66 83 f8 fd          	cmp    $0xfffd,%ax
   12530:	0f 96 c0             	setbe  %al
   12533:	0f b6 c0             	movzbl %al,%eax
   12536:	89 d6                	mov    %edx,%esi
   12538:	89 c7                	mov    %eax,%edi
   1253a:	e8 7f 77 ff ff       	callq  9cbe <safe_rshift_func_uint8_t_u_u>
   1253f:	0f b6 95 90 ef ff ff 	movzbl -0x1070(%rbp),%edx
   12546:	31 d0                	xor    %edx,%eax
   12548:	88 85 90 ef ff ff    	mov    %al,-0x1070(%rbp)
   1254e:	0f b6 85 90 ef ff ff 	movzbl -0x1070(%rbp),%eax
   12555:	84 c0                	test   %al,%al
   12557:	75 0e                	jne    12567 <func_72+0xd36>
   12559:	48 8b 05 60 52 01 00 	mov    0x15260(%rip),%rax        # 277c0 <g_257>
   12560:	0f b6 00             	movzbl (%rax),%eax
   12563:	84 c0                	test   %al,%al
   12565:	74 07                	je     1256e <func_72+0xd3d>
   12567:	b8 01 00 00 00       	mov    $0x1,%eax
   1256c:	eb 05                	jmp    12573 <func_72+0xd42>
   1256e:	b8 00 00 00 00       	mov    $0x0,%eax
   12573:	98                   	cwtl   
   12574:	be 02 00 00 00       	mov    $0x2,%esi
   12579:	89 c7                	mov    %eax,%edi
   1257b:	e8 61 6f ff ff       	callq  94e1 <safe_lshift_func_int16_t_s_u>
   12580:	48 0f bf c0          	movswq %ax,%rax
   12584:	48 89 c7             	mov    %rax,%rdi
   12587:	e8 8d 7a ff ff       	callq  a019 <safe_unary_minus_func_uint64_t_u>
   1258c:	f7 d0                	not    %eax
   1258e:	89 c6                	mov    %eax,%esi
   12590:	bf 00 00 00 00       	mov    $0x0,%edi
   12595:	e8 32 71 ff ff       	callq  96cc <safe_mod_func_int32_t_s_s>
   1259a:	0f be c0             	movsbl %al,%eax
   1259d:	89 c6                	mov    %eax,%esi
   1259f:	bf ea ff ff ff       	mov    $0xffffffea,%edi
   125a4:	e8 69 6c ff ff       	callq  9212 <safe_mul_func_int8_t_s_s>
   125a9:	89 c2                	mov    %eax,%edx
   125ab:	48 8b 05 4e 51 01 00 	mov    0x1514e(%rip),%rax        # 27700 <g_106>
   125b2:	0f be d2             	movsbl %dl,%edx
   125b5:	89 10                	mov    %edx,(%rax)
   125b7:	8b 85 20 f0 ff ff    	mov    -0xfe0(%rbp),%eax
   125bd:	0f b7 d8             	movzwl %ax,%ebx
   125c0:	48 83 bd b0 f0 ff ff 	cmpq   $0x0,-0xf50(%rbp)
   125c7:	00 
   125c8:	74 16                	je     125e0 <func_72+0xdaf>
   125ca:	8b 05 28 f2 00 00    	mov    0xf228(%rip),%eax        # 217f8 <g_445+0x8>
   125d0:	25 ff ff ff 03       	and    $0x3ffffff,%eax
   125d5:	85 c0                	test   %eax,%eax
   125d7:	74 07                	je     125e0 <func_72+0xdaf>
   125d9:	b8 01 00 00 00       	mov    $0x1,%eax
   125de:	eb 05                	jmp    125e5 <func_72+0xdb4>
   125e0:	b8 00 00 00 00       	mov    $0x0,%eax
   125e5:	89 c7                	mov    %eax,%edi
   125e7:	e8 aa 6f ff ff       	callq  9596 <safe_unary_minus_func_int32_t_s>
   125ec:	0f b7 c0             	movzwl %ax,%eax
   125ef:	89 de                	mov    %ebx,%esi
   125f1:	89 c7                	mov    %eax,%edi
   125f3:	e8 64 77 ff ff       	callq  9d5c <safe_mod_func_uint16_t_u_u>
   125f8:	48 83 bd 90 f0 ff ff 	cmpq   $0x0,-0xf70(%rbp)
   125ff:	00 
   12600:	0f 84 98 00 00 00    	je     1269e <func_72+0xe6d>
   12606:	48 83 bd 88 f0 ff ff 	cmpq   $0x0,-0xf78(%rbp)
   1260d:	00 
   1260e:	74 4a                	je     1265a <func_72+0xe29>
   12610:	0f b7 05 6d 01 01 00 	movzwl 0x1016d(%rip),%eax        # 22784 <g_500+0x4>
   12617:	98                   	cwtl   
   12618:	0f b7 15 75 01 01 00 	movzwl 0x10175(%rip),%edx        # 22794 <g_501+0x4>
   1261f:	0f bf d2             	movswl %dx,%edx
   12622:	83 c2 01             	add    $0x1,%edx
   12625:	48 63 ca             	movslq %edx,%rcx
   12628:	48 63 d0             	movslq %eax,%rdx
   1262b:	48 89 d0             	mov    %rdx,%rax
   1262e:	48 c1 e0 03          	shl    $0x3,%rax
   12632:	48 01 d0             	add    %rdx,%rax
   12635:	48 01 c8             	add    %rcx,%rax
   12638:	48 8d 14 85 00 00 00 	lea    0x0(,%rax,4),%rdx
   1263f:	00 
   12640:	48 8d 05 f9 e9 00 00 	lea    0xe9f9(%rip),%rax        # 21040 <g_32>
   12647:	8b 04 02             	mov    (%rdx,%rax,1),%eax
   1264a:	89 c6                	mov    %eax,%esi
   1264c:	bf 04 00 00 00       	mov    $0x4,%edi
   12651:	e8 a9 70 ff ff       	callq  96ff <safe_div_func_int32_t_s_s>
   12656:	85 c0                	test   %eax,%eax
   12658:	74 07                	je     12661 <func_72+0xe30>
   1265a:	b8 01 00 00 00       	mov    $0x1,%eax
   1265f:	eb 05                	jmp    12666 <func_72+0xe35>
   12661:	b8 00 00 00 00       	mov    $0x0,%eax
   12666:	48 63 d0             	movslq %eax,%rdx
   12669:	48 8b 85 a8 f0 ff ff 	mov    -0xf58(%rbp),%rax
   12670:	48 89 10             	mov    %rdx,(%rax)
   12673:	48 8b 85 a8 f0 ff ff 	mov    -0xf58(%rbp),%rax
   1267a:	48 8b 00             	mov    (%rax),%rax
   1267d:	8b 95 94 ef ff ff    	mov    -0x106c(%rbp),%edx
   12683:	89 d2                	mov    %edx,%edx
   12685:	48 39 d0             	cmp    %rdx,%rax
   12688:	0f 9f c0             	setg   %al
   1268b:	0f b6 c0             	movzbl %al,%eax
   1268e:	c7 85 fc ef ff ff 3b 	movl   $0x3943fa3b,-0x1004(%rbp)
   12695:	fa 43 39 
   12698:	39 85 fc ef ff ff    	cmp    %eax,-0x1004(%rbp)
   1269e:	48 8b 05 5b 50 01 00 	mov    0x1505b(%rip),%rax        # 27700 <g_106>
   126a5:	c7 00 00 00 00 00    	movl   $0x0,(%rax)
   126ab:	8b 85 ac ef ff ff    	mov    -0x1054(%rbp),%eax
   126b1:	48 63 d8             	movslq %eax,%rbx
   126b4:	0f b6 85 c8 ef ff ff 	movzbl -0x1038(%rbp),%eax
   126bb:	0f b6 c0             	movzbl %al,%eax
   126be:	48 8b 8d f0 f8 ff ff 	mov    -0x710(%rbp),%rcx
   126c5:	48 8b 95 b8 f0 ff ff 	mov    -0xf48(%rbp),%rdx
   126cc:	48 89 0a             	mov    %rcx,(%rdx)
   126cf:	89 c6                	mov    %eax,%esi
   126d1:	bf 01 00 00 00       	mov    $0x1,%edi
   126d6:	e8 44 76 ff ff       	callq  9d1f <safe_sub_func_uint16_t_u_u>
   126db:	0f be c0             	movsbl %al,%eax
   126de:	be 7b 00 00 00       	mov    $0x7b,%esi
   126e3:	89 c7                	mov    %eax,%edi
   126e5:	e8 80 6b ff ff       	callq  926a <safe_div_func_int8_t_s_s>
   126ea:	48 c7 85 30 f0 ff ff 	movq   $0x7,-0xfd0(%rbp)
   126f1:	07 00 00 00 
   126f5:	8b 85 94 ef ff ff    	mov    -0x106c(%rbp),%eax
   126fb:	89 c0                	mov    %eax,%eax
   126fd:	48 23 85 30 f0 ff ff 	and    -0xfd0(%rbp),%rax
   12704:	48 89 de             	mov    %rbx,%rsi
   12707:	48 89 c7             	mov    %rax,%rdi
   1270a:	e8 3c 79 ff ff       	callq  a04b <safe_sub_func_uint64_t_u_u>
   1270f:	48 3d 86 00 00 00    	cmp    $0x86,%rax
   12715:	0f 97 c0             	seta   %al
   12718:	0f b6 c0             	movzbl %al,%eax
   1271b:	48 8b 95 a0 f0 ff ff 	mov    -0xf60(%rbp),%rdx
   12722:	89 c6                	mov    %eax,%esi
   12724:	89 d7                	mov    %edx,%edi
   12726:	e8 da 6e ff ff       	callq  9605 <safe_sub_func_int32_t_s_s>
   1272b:	48 8b 05 ce 4f 01 00 	mov    0x14fce(%rip),%rax        # 27700 <g_106>
   12732:	8b 00                	mov    (%rax),%eax
   12734:	f7 d0                	not    %eax
   12736:	39 85 00 f0 ff ff    	cmp    %eax,-0x1000(%rbp)
   1273c:	0f b6 45 c7          	movzbl -0x39(%rbp),%eax
   12740:	0f be d0             	movsbl %al,%edx
   12743:	0f b6 05 aa f0 00 00 	movzbl 0xf0aa(%rip),%eax        # 217f4 <g_445+0x4>
   1274a:	b8 00 00 00 00       	mov    $0x0,%eax
   1274f:	83 f0 04             	xor    $0x4,%eax
   12752:	0f be c0             	movsbl %al,%eax
   12755:	89 d6                	mov    %edx,%esi
   12757:	89 c7                	mov    %eax,%edi
   12759:	e8 0c 6b ff ff       	callq  926a <safe_div_func_int8_t_s_s>
   1275e:	0f be c0             	movsbl %al,%eax
   12761:	be b1 c2 00 00       	mov    $0xc2b1,%esi
   12766:	89 c7                	mov    %eax,%edi
   12768:	e8 74 6d ff ff       	callq  94e1 <safe_lshift_func_int16_t_s_u>
   1276d:	0f bf d0             	movswl %ax,%edx
   12770:	48 8b 05 89 4f 01 00 	mov    0x14f89(%rip),%rax        # 27700 <g_106>
   12777:	8b 00                	mov    (%rax),%eax
   12779:	39 c2                	cmp    %eax,%edx
   1277b:	0f 9c c2             	setl   %dl
   1277e:	48 8b 05 7b 4f 01 00 	mov    0x14f7b(%rip),%rax        # 27700 <g_106>
   12785:	0f b6 d2             	movzbl %dl,%edx
   12788:	89 10                	mov    %edx,(%rax)
   1278a:	0f b7 05 03 00 01 00 	movzwl 0x10003(%rip),%eax        # 22794 <g_501+0x4>
   12791:	83 e8 01             	sub    $0x1,%eax
   12794:	66 89 05 f9 ff 00 00 	mov    %ax,0xfff9(%rip)        # 22794 <g_501+0x4>
   1279b:	0f b7 05 f2 ff 00 00 	movzwl 0xfff2(%rip),%eax        # 22794 <g_501+0x4>
   127a2:	66 85 c0             	test   %ax,%ax
   127a5:	0f 89 ba fc ff ff    	jns    12465 <func_72+0xc34>
   127ab:	0f b7 05 d2 ff 00 00 	movzwl 0xffd2(%rip),%eax        # 22784 <g_500+0x4>
   127b2:	83 e8 01             	sub    $0x1,%eax
   127b5:	66 89 05 c8 ff 00 00 	mov    %ax,0xffc8(%rip)        # 22784 <g_500+0x4>
   127bc:	0f b7 05 c1 ff 00 00 	movzwl 0xffc1(%rip),%eax        # 22784 <g_500+0x4>
   127c3:	66 85 c0             	test   %ax,%ax
   127c6:	0f 89 5a fb ff ff    	jns    12326 <func_72+0xaf5>
   127cc:	e9 d2 12 00 00       	jmpq   13aa3 <func_72+0x2272>
   127d1:	c7 85 f8 ef ff ff ef 	movl   $0x4d97fcef,-0x1008(%rbp)
   127d8:	fc 97 4d 
   127db:	c7 85 d8 ef ff ff 00 	movl   $0x0,-0x1028(%rbp)
   127e2:	00 00 00 
   127e5:	eb 14                	jmp    127fb <func_72+0xfca>
   127e7:	8b 85 d8 ef ff ff    	mov    -0x1028(%rbp),%eax
   127ed:	48 98                	cltq   
   127ef:	c6 44 05 c0 78       	movb   $0x78,-0x40(%rbp,%rax,1)
   127f4:	83 85 d8 ef ff ff 01 	addl   $0x1,-0x1028(%rbp)
   127fb:	83 bd d8 ef ff ff 00 	cmpl   $0x0,-0x1028(%rbp)
   12802:	7e e3                	jle    127e7 <func_72+0xfb6>
   12804:	90                   	nop
   12805:	66 c7 05 96 ff 00 00 	movw   $0x6,0xff96(%rip)        # 227a4 <g_505+0x4>
   1280c:	06 00 
   1280e:	e9 49 12 00 00       	jmpq   13a5c <func_72+0x222b>
   12813:	48 c7 85 28 f0 ff ff 	movq   $0x0,-0xfd8(%rbp)
   1281a:	00 00 00 00 
   1281e:	48 8d 85 28 f1 ff ff 	lea    -0xed8(%rbp),%rax
   12825:	48 89 85 60 f0 ff ff 	mov    %rax,-0xfa0(%rbp)
   1282c:	48 8d 85 50 f2 ff ff 	lea    -0xdb0(%rbp),%rax
   12833:	48 8d 15 86 a6 00 00 	lea    0xa686(%rip),%rdx        # 1cec0 <g_1254+0xdfc>
   1283a:	b9 23 00 00 00       	mov    $0x23,%ecx
   1283f:	48 89 c7             	mov    %rax,%rdi
   12842:	48 89 d6             	mov    %rdx,%rsi
   12845:	f3 48 a5             	rep movsq %ds:(%rsi),%es:(%rdi)
   12848:	48 8d 05 a1 02 01 00 	lea    0x102a1(%rip),%rax        # 22af0 <g_876>
   1284f:	48 89 85 68 f0 ff ff 	mov    %rax,-0xf98(%rbp)
   12856:	48 8d 05 cf e7 00 00 	lea    0xe7cf(%rip),%rax        # 2102c <g_3+0x4>
   1285d:	48 89 85 70 f0 ff ff 	mov    %rax,-0xf90(%rbp)
   12864:	c7 85 dc ef ff ff 00 	movl   $0x0,-0x1024(%rbp)
   1286b:	00 00 00 
   1286e:	eb 1e                	jmp    1288e <func_72+0x105d>
   12870:	8b 85 dc ef ff ff    	mov    -0x1024(%rbp),%eax
   12876:	48 98                	cltq   
   12878:	48 8d 95 28 f0 ff ff 	lea    -0xfd8(%rbp),%rdx
   1287f:	48 89 94 c5 28 f1 ff 	mov    %rdx,-0xed8(%rbp,%rax,8)
   12886:	ff 
   12887:	83 85 dc ef ff ff 01 	addl   $0x1,-0x1024(%rbp)
   1288e:	83 bd dc ef ff ff 00 	cmpl   $0x0,-0x1024(%rbp)
   12895:	7e d9                	jle    12870 <func_72+0x103f>
   12897:	48 8b 15 c2 bb 00 00 	mov    0xbbc2(%rip),%rdx        # 1e460 <l_816.4858+0x20>
   1289e:	b8 fa ff ff ff       	mov    $0xfffffffa,%eax
   128a3:	0f b6 c0             	movzbl %al,%eax
   128a6:	48 39 c2             	cmp    %rax,%rdx
   128a9:	0f 97 c0             	seta   %al
   128ac:	44 0f b6 e8          	movzbl %al,%r13d
   128b0:	8b 85 ac ef ff ff    	mov    -0x1054(%rbp),%eax
   128b6:	0f bf d8             	movswl %ax,%ebx
   128b9:	8b 05 61 ff 00 00    	mov    0xff61(%rip),%eax        # 22820 <g_525+0x10>
   128bf:	c1 e0 0d             	shl    $0xd,%eax
   128c2:	c1 f8 0d             	sar    $0xd,%eax
   128c5:	44 0f be e0          	movsbl %al,%r12d
   128c9:	48 8b 05 c8 56 01 00 	mov    0x156c8(%rip),%rax        # 27f98 <g_827>
   128d0:	48 89 85 f0 f1 ff ff 	mov    %rax,-0xe10(%rbp)
   128d7:	4c 8b b5 f0 f1 ff ff 	mov    -0xe10(%rbp),%r14
   128de:	8b 05 4c ed 00 00    	mov    0xed4c(%rip),%eax        # 21630 <g_442>
   128e4:	c1 e0 06             	shl    $0x6,%eax
   128e7:	c1 f8 06             	sar    $0x6,%eax
   128ea:	89 c2                	mov    %eax,%edx
   128ec:	48 8b 05 0d 4e 01 00 	mov    0x14e0d(%rip),%rax        # 27700 <g_106>
   128f3:	83 e2 04             	and    $0x4,%edx
   128f6:	89 10                	mov    %edx,(%rax)
   128f8:	0f b6 85 b0 ef ff ff 	movzbl -0x1050(%rbp),%eax
   128ff:	0f b6 c0             	movzbl %al,%eax
   12902:	ba 00 00 00 00       	mov    $0x0,%edx
   12907:	09 d0                	or     %edx,%eax
   12909:	89 c0                	mov    %eax,%eax
   1290b:	48 89 c6             	mov    %rax,%rsi
   1290e:	48 bf 28 46 00 69 86 	movabs $0x5ce1778669004628,%rdi
   12915:	77 e1 5c 
   12918:	e8 8b 6f ff ff       	callq  98a8 <safe_sub_func_int64_t_s_s>
   1291d:	0f bf d0             	movswl %ax,%edx
   12920:	8b 85 20 f0 ff ff    	mov    -0xfe0(%rbp),%eax
   12926:	98                   	cwtl   
   12927:	89 d6                	mov    %edx,%esi
   12929:	89 c7                	mov    %eax,%edi
   1292b:	e8 83 6a ff ff       	callq  93b3 <safe_add_func_int16_t_s_s>
   12930:	48 8b 95 28 f1 ff ff 	mov    -0xed8(%rbp),%rdx
   12937:	48 8b 85 60 f0 ff ff 	mov    -0xfa0(%rbp),%rax
   1293e:	48 89 10             	mov    %rdx,(%rax)
   12941:	48 8b 85 60 f0 ff ff 	mov    -0xfa0(%rbp),%rax
   12948:	48 8b 00             	mov    (%rax),%rax
   1294b:	49 39 c6             	cmp    %rax,%r14
   1294e:	0f 94 c0             	sete   %al
   12951:	0f b6 d0             	movzbl %al,%edx
   12954:	0f b6 85 91 ef ff ff 	movzbl -0x106f(%rbp),%eax
   1295b:	0f b6 c0             	movzbl %al,%eax
   1295e:	39 c2                	cmp    %eax,%edx
   12960:	0f 9f c0             	setg   %al
   12963:	0f b6 c0             	movzbl %al,%eax
   12966:	89 85 20 f0 ff ff    	mov    %eax,-0xfe0(%rbp)
   1296c:	8b 95 20 f0 ff ff    	mov    -0xfe0(%rbp),%edx
   12972:	8b 05 78 ee 00 00    	mov    0xee78(%rip),%eax        # 217f0 <g_445>
   12978:	c1 e0 06             	shl    $0x6,%eax
   1297b:	c1 f8 06             	sar    $0x6,%eax
   1297e:	21 c2                	and    %eax,%edx
   12980:	48 8b 05 11 56 01 00 	mov    0x15611(%rip),%rax        # 27f98 <g_827>
   12987:	48 8b 00             	mov    (%rax),%rax
   1298a:	48 8b 00             	mov    (%rax),%rax
   1298d:	0f b6 00             	movzbl (%rax),%eax
   12990:	0f be c0             	movsbl %al,%eax
   12993:	39 c2                	cmp    %eax,%edx
   12995:	0f 95 c0             	setne  %al
   12998:	0f b6 d0             	movzbl %al,%edx
   1299b:	8b 85 cc ef ff ff    	mov    -0x1034(%rbp),%eax
   129a1:	31 d0                	xor    %edx,%eax
   129a3:	89 85 cc ef ff ff    	mov    %eax,-0x1034(%rbp)
   129a9:	44 89 e6             	mov    %r12d,%esi
   129ac:	bf 01 00 00 00       	mov    $0x1,%edi
   129b1:	e8 5c 68 ff ff       	callq  9212 <safe_mul_func_int8_t_s_s>
   129b6:	0f be c0             	movsbl %al,%eax
   129b9:	89 de                	mov    %ebx,%esi
   129bb:	89 c7                	mov    %eax,%edi
   129bd:	e8 33 6a ff ff       	callq  93f5 <safe_mul_func_int16_t_s_s>
   129c2:	0f b7 c0             	movzwl %ax,%eax
   129c5:	be 01 00 00 00       	mov    $0x1,%esi
   129ca:	89 c7                	mov    %eax,%edi
   129cc:	e8 2e 73 ff ff       	callq  9cff <safe_add_func_uint16_t_u_u>
   129d1:	48 8b 05 e0 4d 01 00 	mov    0x14de0(%rip),%rax        # 277b8 <g_255>
   129d8:	0f b6 00             	movzbl (%rax),%eax
   129db:	0f b6 d8             	movzbl %al,%ebx
   129de:	be 01 00 00 00       	mov    $0x1,%esi
   129e3:	bf 01 00 00 00       	mov    $0x1,%edi
   129e8:	e8 a0 72 ff ff       	callq  9c8d <safe_rshift_func_uint8_t_u_s>
   129ed:	89 de                	mov    %ebx,%esi
   129ef:	bf 00 00 00 00       	mov    $0x0,%edi
   129f4:	e8 e2 71 ff ff       	callq  9bdb <safe_div_func_uint8_t_u_u>
   129f9:	0f b6 c0             	movzbl %al,%eax
   129fc:	41 39 c5             	cmp    %eax,%r13d
   129ff:	7f 45                	jg     12a46 <func_72+0x1215>
   12a01:	48 8d 05 c0 00 01 00 	lea    0x100c0(%rip),%rax        # 22ac8 <g_843>
   12a08:	48 89 85 78 f0 ff ff 	mov    %rax,-0xf88(%rbp)
   12a0f:	66 c7 05 28 e7 00 00 	movw   $0x4,0xe728(%rip)        # 21140 <g_141>
   12a16:	04 00 
   12a18:	90                   	nop
   12a19:	0f b7 05 20 e7 00 00 	movzwl 0xe720(%rip),%eax        # 21140 <g_141>
   12a20:	66 83 f8 04          	cmp    $0x4,%ax
   12a24:	0f 85 13 10 00 00    	jne    13a3d <func_72+0x220c>
   12a2a:	48 8b 85 58 f0 ff ff 	mov    -0xfa8(%rbp),%rax
   12a31:	48 89 85 78 f0 ff ff 	mov    %rax,-0xf88(%rbp)
   12a38:	48 8b 85 a0 ef ff ff 	mov    -0x1060(%rbp),%rax
   12a3f:	8b 00                	mov    (%rax),%eax
   12a41:	e9 66 10 00 00       	jmpq   13aac <func_72+0x227b>
   12a46:	c7 85 e0 ef ff ff 00 	movl   $0x0,-0x1020(%rbp)
   12a4d:	00 00 00 
   12a50:	eb 1a                	jmp    12a6c <func_72+0x123b>
   12a52:	8b 85 e0 ef ff ff    	mov    -0x1020(%rbp),%eax
   12a58:	48 98                	cltq   
   12a5a:	c7 84 85 90 f1 ff ff 	movl   $0x2,-0xe70(%rbp,%rax,4)
   12a61:	02 00 00 00 
   12a65:	83 85 e0 ef ff ff 01 	addl   $0x1,-0x1020(%rbp)
   12a6c:	83 bd e0 ef ff ff 09 	cmpl   $0x9,-0x1020(%rbp)
   12a73:	7e dd                	jle    12a52 <func_72+0x1221>
   12a75:	48 8b 05 84 4c 01 00 	mov    0x14c84(%rip),%rax        # 27700 <g_106>
   12a7c:	c7 00 01 00 00 00    	movl   $0x1,(%rax)
   12a82:	c7 85 40 f1 ff ff b7 	movl   $0x3b5645b7,-0xec0(%rbp)
   12a89:	45 56 3b 
   12a8c:	c7 85 44 f1 ff ff b7 	movl   $0x3b5645b7,-0xebc(%rbp)
   12a93:	45 56 3b 
   12a96:	c7 85 48 f1 ff ff b7 	movl   $0x3b5645b7,-0xeb8(%rbp)
   12a9d:	45 56 3b 
   12aa0:	c7 85 4c f1 ff ff b7 	movl   $0x3b5645b7,-0xeb4(%rbp)
   12aa7:	45 56 3b 
   12aaa:	c7 85 50 f1 ff ff b7 	movl   $0x3b5645b7,-0xeb0(%rbp)
   12ab1:	45 56 3b 
   12ab4:	48 c7 85 18 f1 ff ff 	movq   $0x0,-0xee8(%rbp)
   12abb:	00 00 00 00 
   12abf:	48 8d 05 7a fe 00 00 	lea    0xfe7a(%rip),%rax        # 22940 <g_742>
   12ac6:	48 89 85 20 f8 ff ff 	mov    %rax,-0x7e0(%rbp)
   12acd:	48 c7 85 28 f8 ff ff 	movq   $0x0,-0x7d8(%rbp)
   12ad4:	00 00 00 00 
   12ad8:	48 8d 05 61 fe 00 00 	lea    0xfe61(%rip),%rax        # 22940 <g_742>
   12adf:	48 89 85 30 f8 ff ff 	mov    %rax,-0x7d0(%rbp)
   12ae6:	48 8d 05 53 fe 00 00 	lea    0xfe53(%rip),%rax        # 22940 <g_742>
   12aed:	48 89 85 38 f8 ff ff 	mov    %rax,-0x7c8(%rbp)
   12af4:	48 c7 85 40 f8 ff ff 	movq   $0x0,-0x7c0(%rbp)
   12afb:	00 00 00 00 
   12aff:	48 c7 85 48 f8 ff ff 	movq   $0x0,-0x7b8(%rbp)
   12b06:	00 00 00 00 
   12b0a:	48 8d 05 2f fe 00 00 	lea    0xfe2f(%rip),%rax        # 22940 <g_742>
   12b11:	48 89 85 50 f8 ff ff 	mov    %rax,-0x7b0(%rbp)
   12b18:	48 8d 05 0d e5 00 00 	lea    0xe50d(%rip),%rax        # 2102c <g_3+0x4>
   12b1f:	48 89 85 58 f8 ff ff 	mov    %rax,-0x7a8(%rbp)
   12b26:	48 c7 85 60 f8 ff ff 	movq   $0x0,-0x7a0(%rbp)
   12b2d:	00 00 00 00 
   12b31:	48 c7 85 68 f8 ff ff 	movq   $0x0,-0x798(%rbp)
   12b38:	00 00 00 00 
   12b3c:	48 8d 05 e9 e4 00 00 	lea    0xe4e9(%rip),%rax        # 2102c <g_3+0x4>
   12b43:	48 89 85 70 f8 ff ff 	mov    %rax,-0x790(%rbp)
   12b4a:	48 8d 05 ef fd 00 00 	lea    0xfdef(%rip),%rax        # 22940 <g_742>
   12b51:	48 89 85 78 f8 ff ff 	mov    %rax,-0x788(%rbp)
   12b58:	48 c7 85 80 f8 ff ff 	movq   $0x0,-0x780(%rbp)
   12b5f:	00 00 00 00 
   12b63:	48 8d 05 be e4 00 00 	lea    0xe4be(%rip),%rax        # 21028 <g_3>
   12b6a:	48 89 85 88 f8 ff ff 	mov    %rax,-0x778(%rbp)
   12b71:	48 8d 05 b4 e4 00 00 	lea    0xe4b4(%rip),%rax        # 2102c <g_3+0x4>
   12b78:	48 89 85 90 f8 ff ff 	mov    %rax,-0x770(%rbp)
   12b7f:	48 c7 85 98 f8 ff ff 	movq   $0x0,-0x768(%rbp)
   12b86:	00 00 00 00 
   12b8a:	48 8d 85 20 f0 ff ff 	lea    -0xfe0(%rbp),%rax
   12b91:	48 89 85 a0 f8 ff ff 	mov    %rax,-0x760(%rbp)
   12b98:	48 c7 85 a8 f8 ff ff 	movq   $0x0,-0x758(%rbp)
   12b9f:	00 00 00 00 
   12ba3:	48 8d 85 cc ef ff ff 	lea    -0x1034(%rbp),%rax
   12baa:	48 89 85 b0 f8 ff ff 	mov    %rax,-0x750(%rbp)
   12bb1:	48 8d 05 88 fd 00 00 	lea    0xfd88(%rip),%rax        # 22940 <g_742>
   12bb8:	48 89 85 b8 f8 ff ff 	mov    %rax,-0x748(%rbp)
   12bbf:	48 c7 85 c0 f8 ff ff 	movq   $0x0,-0x740(%rbp)
   12bc6:	00 00 00 00 
   12bca:	48 8d 05 5b e4 00 00 	lea    0xe45b(%rip),%rax        # 2102c <g_3+0x4>
   12bd1:	48 89 85 c8 f8 ff ff 	mov    %rax,-0x738(%rbp)
   12bd8:	48 8d 05 61 fd 00 00 	lea    0xfd61(%rip),%rax        # 22940 <g_742>
   12bdf:	48 89 85 d0 f8 ff ff 	mov    %rax,-0x730(%rbp)
   12be6:	48 8d 05 53 fd 00 00 	lea    0xfd53(%rip),%rax        # 22940 <g_742>
   12bed:	48 89 85 d8 f8 ff ff 	mov    %rax,-0x728(%rbp)
   12bf4:	48 8d 05 31 e4 00 00 	lea    0xe431(%rip),%rax        # 2102c <g_3+0x4>
   12bfb:	48 89 85 e0 f8 ff ff 	mov    %rax,-0x720(%rbp)
   12c02:	48 8d 05 23 e4 00 00 	lea    0xe423(%rip),%rax        # 2102c <g_3+0x4>
   12c09:	48 89 85 e8 f8 ff ff 	mov    %rax,-0x718(%rbp)
   12c10:	48 8d 05 15 e4 00 00 	lea    0xe415(%rip),%rax        # 2102c <g_3+0x4>
   12c17:	48 89 85 f0 f8 ff ff 	mov    %rax,-0x710(%rbp)
   12c1e:	48 8d 05 07 e4 00 00 	lea    0xe407(%rip),%rax        # 2102c <g_3+0x4>
   12c25:	48 89 85 f8 f8 ff ff 	mov    %rax,-0x708(%rbp)
   12c2c:	48 8d 05 0d fd 00 00 	lea    0xfd0d(%rip),%rax        # 22940 <g_742>
   12c33:	48 89 85 00 f9 ff ff 	mov    %rax,-0x700(%rbp)
   12c3a:	48 8d 05 ff fc 00 00 	lea    0xfcff(%rip),%rax        # 22940 <g_742>
   12c41:	48 89 85 08 f9 ff ff 	mov    %rax,-0x6f8(%rbp)
   12c48:	48 8d 85 20 f0 ff ff 	lea    -0xfe0(%rbp),%rax
   12c4f:	48 89 85 10 f9 ff ff 	mov    %rax,-0x6f0(%rbp)
   12c56:	48 c7 85 18 f9 ff ff 	movq   $0x0,-0x6e8(%rbp)
   12c5d:	00 00 00 00 
   12c61:	48 8d 05 d8 fc 00 00 	lea    0xfcd8(%rip),%rax        # 22940 <g_742>
   12c68:	48 89 85 20 f9 ff ff 	mov    %rax,-0x6e0(%rbp)
   12c6f:	48 8d 05 ca fc 00 00 	lea    0xfcca(%rip),%rax        # 22940 <g_742>
   12c76:	48 89 85 28 f9 ff ff 	mov    %rax,-0x6d8(%rbp)
   12c7d:	48 8d 05 bc fc 00 00 	lea    0xfcbc(%rip),%rax        # 22940 <g_742>
   12c84:	48 89 85 30 f9 ff ff 	mov    %rax,-0x6d0(%rbp)
   12c8b:	48 8d 05 9a e3 00 00 	lea    0xe39a(%rip),%rax        # 2102c <g_3+0x4>
   12c92:	48 89 85 38 f9 ff ff 	mov    %rax,-0x6c8(%rbp)
   12c99:	48 8d 05 8c e3 00 00 	lea    0xe38c(%rip),%rax        # 2102c <g_3+0x4>
   12ca0:	48 89 85 40 f9 ff ff 	mov    %rax,-0x6c0(%rbp)
   12ca7:	48 c7 85 48 f9 ff ff 	movq   $0x0,-0x6b8(%rbp)
   12cae:	00 00 00 00 
   12cb2:	48 c7 85 50 f9 ff ff 	movq   $0x0,-0x6b0(%rbp)
   12cb9:	00 00 00 00 
   12cbd:	48 8d 05 68 e3 00 00 	lea    0xe368(%rip),%rax        # 2102c <g_3+0x4>
   12cc4:	48 89 85 58 f9 ff ff 	mov    %rax,-0x6a8(%rbp)
   12ccb:	48 8d 05 6e fc 00 00 	lea    0xfc6e(%rip),%rax        # 22940 <g_742>
   12cd2:	48 89 85 60 f9 ff ff 	mov    %rax,-0x6a0(%rbp)
   12cd9:	48 c7 85 68 f9 ff ff 	movq   $0x0,-0x698(%rbp)
   12ce0:	00 00 00 00 
   12ce4:	48 8d 05 41 e3 00 00 	lea    0xe341(%rip),%rax        # 2102c <g_3+0x4>
   12ceb:	48 89 85 70 f9 ff ff 	mov    %rax,-0x690(%rbp)
   12cf2:	48 8d 05 33 e3 00 00 	lea    0xe333(%rip),%rax        # 2102c <g_3+0x4>
   12cf9:	48 89 85 78 f9 ff ff 	mov    %rax,-0x688(%rbp)
   12d00:	48 8d 05 39 fc 00 00 	lea    0xfc39(%rip),%rax        # 22940 <g_742>
   12d07:	48 89 85 80 f9 ff ff 	mov    %rax,-0x680(%rbp)
   12d0e:	48 8d 05 17 e3 00 00 	lea    0xe317(%rip),%rax        # 2102c <g_3+0x4>
   12d15:	48 89 85 88 f9 ff ff 	mov    %rax,-0x678(%rbp)
   12d1c:	48 8d 05 1d fc 00 00 	lea    0xfc1d(%rip),%rax        # 22940 <g_742>
   12d23:	48 89 85 90 f9 ff ff 	mov    %rax,-0x670(%rbp)
   12d2a:	48 8d 05 0f fc 00 00 	lea    0xfc0f(%rip),%rax        # 22940 <g_742>
   12d31:	48 89 85 98 f9 ff ff 	mov    %rax,-0x668(%rbp)
   12d38:	48 c7 85 a0 f9 ff ff 	movq   $0x0,-0x660(%rbp)
   12d3f:	00 00 00 00 
   12d43:	48 8d 05 f6 fb 00 00 	lea    0xfbf6(%rip),%rax        # 22940 <g_742>
   12d4a:	48 89 85 a8 f9 ff ff 	mov    %rax,-0x658(%rbp)
   12d51:	48 8d 05 d4 e2 00 00 	lea    0xe2d4(%rip),%rax        # 2102c <g_3+0x4>
   12d58:	48 89 85 b0 f9 ff ff 	mov    %rax,-0x650(%rbp)
   12d5f:	48 8d 05 da fb 00 00 	lea    0xfbda(%rip),%rax        # 22940 <g_742>
   12d66:	48 89 85 b8 f9 ff ff 	mov    %rax,-0x648(%rbp)
   12d6d:	48 8d 85 20 f0 ff ff 	lea    -0xfe0(%rbp),%rax
   12d74:	48 89 85 c0 f9 ff ff 	mov    %rax,-0x640(%rbp)
   12d7b:	48 8d 05 aa e2 00 00 	lea    0xe2aa(%rip),%rax        # 2102c <g_3+0x4>
   12d82:	48 89 85 c8 f9 ff ff 	mov    %rax,-0x638(%rbp)
   12d89:	48 c7 85 d0 f9 ff ff 	movq   $0x0,-0x630(%rbp)
   12d90:	00 00 00 00 
   12d94:	48 8d 85 20 f0 ff ff 	lea    -0xfe0(%rbp),%rax
   12d9b:	48 89 85 d8 f9 ff ff 	mov    %rax,-0x628(%rbp)
   12da2:	48 8d 05 97 fb 00 00 	lea    0xfb97(%rip),%rax        # 22940 <g_742>
   12da9:	48 89 85 e0 f9 ff ff 	mov    %rax,-0x620(%rbp)
   12db0:	48 8d 05 75 e2 00 00 	lea    0xe275(%rip),%rax        # 2102c <g_3+0x4>
   12db7:	48 89 85 e8 f9 ff ff 	mov    %rax,-0x618(%rbp)
   12dbe:	48 8d 05 7b fb 00 00 	lea    0xfb7b(%rip),%rax        # 22940 <g_742>
   12dc5:	48 89 85 f0 f9 ff ff 	mov    %rax,-0x610(%rbp)
   12dcc:	48 c7 85 f8 f9 ff ff 	movq   $0x0,-0x608(%rbp)
   12dd3:	00 00 00 00 
   12dd7:	48 8d 05 4e e2 00 00 	lea    0xe24e(%rip),%rax        # 2102c <g_3+0x4>
   12dde:	48 89 85 00 fa ff ff 	mov    %rax,-0x600(%rbp)
   12de5:	48 8d 05 40 e2 00 00 	lea    0xe240(%rip),%rax        # 2102c <g_3+0x4>
   12dec:	48 89 85 08 fa ff ff 	mov    %rax,-0x5f8(%rbp)
   12df3:	48 8d 05 32 e2 00 00 	lea    0xe232(%rip),%rax        # 2102c <g_3+0x4>
   12dfa:	48 89 85 10 fa ff ff 	mov    %rax,-0x5f0(%rbp)
   12e01:	48 8d 05 24 e2 00 00 	lea    0xe224(%rip),%rax        # 2102c <g_3+0x4>
   12e08:	48 89 85 18 fa ff ff 	mov    %rax,-0x5e8(%rbp)
   12e0f:	48 8d 85 20 f0 ff ff 	lea    -0xfe0(%rbp),%rax
   12e16:	48 89 85 20 fa ff ff 	mov    %rax,-0x5e0(%rbp)
   12e1d:	48 c7 85 28 fa ff ff 	movq   $0x0,-0x5d8(%rbp)
   12e24:	00 00 00 00 
   12e28:	48 8d 05 fd e1 00 00 	lea    0xe1fd(%rip),%rax        # 2102c <g_3+0x4>
   12e2f:	48 89 85 30 fa ff ff 	mov    %rax,-0x5d0(%rbp)
   12e36:	48 8d 85 20 f0 ff ff 	lea    -0xfe0(%rbp),%rax
   12e3d:	48 89 85 38 fa ff ff 	mov    %rax,-0x5c8(%rbp)
   12e44:	48 8d 05 e1 e1 00 00 	lea    0xe1e1(%rip),%rax        # 2102c <g_3+0x4>
   12e4b:	48 89 85 40 fa ff ff 	mov    %rax,-0x5c0(%rbp)
   12e52:	48 c7 85 48 fa ff ff 	movq   $0x0,-0x5b8(%rbp)
   12e59:	00 00 00 00 
   12e5d:	48 8d 05 dc fa 00 00 	lea    0xfadc(%rip),%rax        # 22940 <g_742>
   12e64:	48 89 85 50 fa ff ff 	mov    %rax,-0x5b0(%rbp)
   12e6b:	48 8d 85 20 f0 ff ff 	lea    -0xfe0(%rbp),%rax
   12e72:	48 89 85 58 fa ff ff 	mov    %rax,-0x5a8(%rbp)
   12e79:	48 8d 85 20 f0 ff ff 	lea    -0xfe0(%rbp),%rax
   12e80:	48 89 85 60 fa ff ff 	mov    %rax,-0x5a0(%rbp)
   12e87:	48 c7 85 68 fa ff ff 	movq   $0x0,-0x598(%rbp)
   12e8e:	00 00 00 00 
   12e92:	48 8d 05 a7 fa 00 00 	lea    0xfaa7(%rip),%rax        # 22940 <g_742>
   12e99:	48 89 85 70 fa ff ff 	mov    %rax,-0x590(%rbp)
   12ea0:	48 c7 85 78 fa ff ff 	movq   $0x0,-0x588(%rbp)
   12ea7:	00 00 00 00 
   12eab:	48 8d 05 76 e1 00 00 	lea    0xe176(%rip),%rax        # 21028 <g_3>
   12eb2:	48 89 85 80 fa ff ff 	mov    %rax,-0x580(%rbp)
   12eb9:	48 8d 85 20 f0 ff ff 	lea    -0xfe0(%rbp),%rax
   12ec0:	48 89 85 88 fa ff ff 	mov    %rax,-0x578(%rbp)
   12ec7:	48 8d 05 72 fa 00 00 	lea    0xfa72(%rip),%rax        # 22940 <g_742>
   12ece:	48 89 85 90 fa ff ff 	mov    %rax,-0x570(%rbp)
   12ed5:	48 8d 05 64 fa 00 00 	lea    0xfa64(%rip),%rax        # 22940 <g_742>
   12edc:	48 89 85 98 fa ff ff 	mov    %rax,-0x568(%rbp)
   12ee3:	48 c7 85 a0 fa ff ff 	movq   $0x0,-0x560(%rbp)
   12eea:	00 00 00 00 
   12eee:	48 c7 85 a8 fa ff ff 	movq   $0x0,-0x558(%rbp)
   12ef5:	00 00 00 00 
   12ef9:	48 c7 85 b0 fa ff ff 	movq   $0x0,-0x550(%rbp)
   12f00:	00 00 00 00 
   12f04:	48 8d 05 1d e1 00 00 	lea    0xe11d(%rip),%rax        # 21028 <g_3>
   12f0b:	48 89 85 b8 fa ff ff 	mov    %rax,-0x548(%rbp)
   12f12:	48 8d 05 0f e1 00 00 	lea    0xe10f(%rip),%rax        # 21028 <g_3>
   12f19:	48 89 85 c0 fa ff ff 	mov    %rax,-0x540(%rbp)
   12f20:	48 8d 05 05 e1 00 00 	lea    0xe105(%rip),%rax        # 2102c <g_3+0x4>
   12f27:	48 89 85 c8 fa ff ff 	mov    %rax,-0x538(%rbp)
   12f2e:	48 8d 05 f3 e0 00 00 	lea    0xe0f3(%rip),%rax        # 21028 <g_3>
   12f35:	48 89 85 d0 fa ff ff 	mov    %rax,-0x530(%rbp)
   12f3c:	48 8d 05 e9 e0 00 00 	lea    0xe0e9(%rip),%rax        # 2102c <g_3+0x4>
   12f43:	48 89 85 d8 fa ff ff 	mov    %rax,-0x528(%rbp)
   12f4a:	48 8d 85 20 f0 ff ff 	lea    -0xfe0(%rbp),%rax
   12f51:	48 89 85 e0 fa ff ff 	mov    %rax,-0x520(%rbp)
   12f58:	48 8d 05 cd e0 00 00 	lea    0xe0cd(%rip),%rax        # 2102c <g_3+0x4>
   12f5f:	48 89 85 e8 fa ff ff 	mov    %rax,-0x518(%rbp)
   12f66:	48 c7 85 f0 fa ff ff 	movq   $0x0,-0x510(%rbp)
   12f6d:	00 00 00 00 
   12f71:	48 8d 05 b0 e0 00 00 	lea    0xe0b0(%rip),%rax        # 21028 <g_3>
   12f78:	48 89 85 f8 fa ff ff 	mov    %rax,-0x508(%rbp)
   12f7f:	48 8d 05 a2 e0 00 00 	lea    0xe0a2(%rip),%rax        # 21028 <g_3>
   12f86:	48 89 85 00 fb ff ff 	mov    %rax,-0x500(%rbp)
   12f8d:	48 8d 05 98 e0 00 00 	lea    0xe098(%rip),%rax        # 2102c <g_3+0x4>
   12f94:	48 89 85 08 fb ff ff 	mov    %rax,-0x4f8(%rbp)
   12f9b:	48 c7 85 10 fb ff ff 	movq   $0x0,-0x4f0(%rbp)
   12fa2:	00 00 00 00 
   12fa6:	48 8d 05 7b e0 00 00 	lea    0xe07b(%rip),%rax        # 21028 <g_3>
   12fad:	48 89 85 18 fb ff ff 	mov    %rax,-0x4e8(%rbp)
   12fb4:	48 8d 05 85 f9 00 00 	lea    0xf985(%rip),%rax        # 22940 <g_742>
   12fbb:	48 89 85 20 fb ff ff 	mov    %rax,-0x4e0(%rbp)
   12fc2:	48 8d 05 63 e0 00 00 	lea    0xe063(%rip),%rax        # 2102c <g_3+0x4>
   12fc9:	48 89 85 28 fb ff ff 	mov    %rax,-0x4d8(%rbp)
   12fd0:	48 c7 85 30 fb ff ff 	movq   $0x0,-0x4d0(%rbp)
   12fd7:	00 00 00 00 
   12fdb:	48 8d 05 4a e0 00 00 	lea    0xe04a(%rip),%rax        # 2102c <g_3+0x4>
   12fe2:	48 89 85 38 fb ff ff 	mov    %rax,-0x4c8(%rbp)
   12fe9:	48 8d 85 20 f0 ff ff 	lea    -0xfe0(%rbp),%rax
   12ff0:	48 89 85 40 fb ff ff 	mov    %rax,-0x4c0(%rbp)
   12ff7:	48 8d 85 20 f0 ff ff 	lea    -0xfe0(%rbp),%rax
   12ffe:	48 89 85 48 fb ff ff 	mov    %rax,-0x4b8(%rbp)
   13005:	48 8d 05 20 e0 00 00 	lea    0xe020(%rip),%rax        # 2102c <g_3+0x4>
   1300c:	48 89 85 50 fb ff ff 	mov    %rax,-0x4b0(%rbp)
   13013:	48 8d 05 26 f9 00 00 	lea    0xf926(%rip),%rax        # 22940 <g_742>
   1301a:	48 89 85 58 fb ff ff 	mov    %rax,-0x4a8(%rbp)
   13021:	48 8d 05 18 f9 00 00 	lea    0xf918(%rip),%rax        # 22940 <g_742>
   13028:	48 89 85 60 fb ff ff 	mov    %rax,-0x4a0(%rbp)
   1302f:	48 c7 85 68 fb ff ff 	movq   $0x0,-0x498(%rbp)
   13036:	00 00 00 00 
   1303a:	48 8d 05 eb df 00 00 	lea    0xdfeb(%rip),%rax        # 2102c <g_3+0x4>
   13041:	48 89 85 70 fb ff ff 	mov    %rax,-0x490(%rbp)
   13048:	48 8d 85 20 f0 ff ff 	lea    -0xfe0(%rbp),%rax
   1304f:	48 89 85 78 fb ff ff 	mov    %rax,-0x488(%rbp)
   13056:	48 c7 85 80 fb ff ff 	movq   $0x0,-0x480(%rbp)
   1305d:	00 00 00 00 
   13061:	48 c7 85 88 fb ff ff 	movq   $0x0,-0x478(%rbp)
   13068:	00 00 00 00 
   1306c:	48 8d 05 b9 df 00 00 	lea    0xdfb9(%rip),%rax        # 2102c <g_3+0x4>
   13073:	48 89 85 90 fb ff ff 	mov    %rax,-0x470(%rbp)
   1307a:	48 8d 05 ab df 00 00 	lea    0xdfab(%rip),%rax        # 2102c <g_3+0x4>
   13081:	48 89 85 98 fb ff ff 	mov    %rax,-0x468(%rbp)
   13088:	48 8d 85 20 f0 ff ff 	lea    -0xfe0(%rbp),%rax
   1308f:	48 89 85 a0 fb ff ff 	mov    %rax,-0x460(%rbp)
   13096:	48 c7 85 a8 fb ff ff 	movq   $0x0,-0x458(%rbp)
   1309d:	00 00 00 00 
   130a1:	48 8d 05 84 df 00 00 	lea    0xdf84(%rip),%rax        # 2102c <g_3+0x4>
   130a8:	48 89 85 b0 fb ff ff 	mov    %rax,-0x450(%rbp)
   130af:	48 8d 05 76 df 00 00 	lea    0xdf76(%rip),%rax        # 2102c <g_3+0x4>
   130b6:	48 89 85 b8 fb ff ff 	mov    %rax,-0x448(%rbp)
   130bd:	48 8d 05 68 df 00 00 	lea    0xdf68(%rip),%rax        # 2102c <g_3+0x4>
   130c4:	48 89 85 c0 fb ff ff 	mov    %rax,-0x440(%rbp)
   130cb:	48 8d 85 20 f0 ff ff 	lea    -0xfe0(%rbp),%rax
   130d2:	48 89 85 c8 fb ff ff 	mov    %rax,-0x438(%rbp)
   130d9:	48 8d 05 4c df 00 00 	lea    0xdf4c(%rip),%rax        # 2102c <g_3+0x4>
   130e0:	48 89 85 d0 fb ff ff 	mov    %rax,-0x430(%rbp)
   130e7:	48 c7 85 d8 fb ff ff 	movq   $0x0,-0x428(%rbp)
   130ee:	00 00 00 00 
   130f2:	48 8d 05 47 f8 00 00 	lea    0xf847(%rip),%rax        # 22940 <g_742>
   130f9:	48 89 85 e0 fb ff ff 	mov    %rax,-0x420(%rbp)
   13100:	48 8d 85 20 f0 ff ff 	lea    -0xfe0(%rbp),%rax
   13107:	48 89 85 e8 fb ff ff 	mov    %rax,-0x418(%rbp)
   1310e:	48 8d 05 2b f8 00 00 	lea    0xf82b(%rip),%rax        # 22940 <g_742>
   13115:	48 89 85 f0 fb ff ff 	mov    %rax,-0x410(%rbp)
   1311c:	48 c7 85 f8 fb ff ff 	movq   $0x0,-0x408(%rbp)
   13123:	00 00 00 00 
   13127:	48 c7 85 00 fc ff ff 	movq   $0x0,-0x400(%rbp)
   1312e:	00 00 00 00 
   13132:	48 8d 05 f3 de 00 00 	lea    0xdef3(%rip),%rax        # 2102c <g_3+0x4>
   13139:	48 89 85 08 fc ff ff 	mov    %rax,-0x3f8(%rbp)
   13140:	48 8d 05 f9 f7 00 00 	lea    0xf7f9(%rip),%rax        # 22940 <g_742>
   13147:	48 89 85 10 fc ff ff 	mov    %rax,-0x3f0(%rbp)
   1314e:	48 8d 05 d7 de 00 00 	lea    0xded7(%rip),%rax        # 2102c <g_3+0x4>
   13155:	48 89 85 18 fc ff ff 	mov    %rax,-0x3e8(%rbp)
   1315c:	48 8d 05 c5 de 00 00 	lea    0xdec5(%rip),%rax        # 21028 <g_3>
   13163:	48 89 85 20 fc ff ff 	mov    %rax,-0x3e0(%rbp)
   1316a:	48 8d 05 cf f7 00 00 	lea    0xf7cf(%rip),%rax        # 22940 <g_742>
   13171:	48 89 85 28 fc ff ff 	mov    %rax,-0x3d8(%rbp)
   13178:	48 8d 05 c1 f7 00 00 	lea    0xf7c1(%rip),%rax        # 22940 <g_742>
   1317f:	48 89 85 30 fc ff ff 	mov    %rax,-0x3d0(%rbp)
   13186:	48 8d 05 9b de 00 00 	lea    0xde9b(%rip),%rax        # 21028 <g_3>
   1318d:	48 89 85 38 fc ff ff 	mov    %rax,-0x3c8(%rbp)
   13194:	48 8d 05 91 de 00 00 	lea    0xde91(%rip),%rax        # 2102c <g_3+0x4>
   1319b:	48 89 85 40 fc ff ff 	mov    %rax,-0x3c0(%rbp)
   131a2:	48 8d 85 20 f0 ff ff 	lea    -0xfe0(%rbp),%rax
   131a9:	48 89 85 48 fc ff ff 	mov    %rax,-0x3b8(%rbp)
   131b0:	48 8d 05 75 de 00 00 	lea    0xde75(%rip),%rax        # 2102c <g_3+0x4>
   131b7:	48 89 85 50 fc ff ff 	mov    %rax,-0x3b0(%rbp)
   131be:	48 8d 05 7b f7 00 00 	lea    0xf77b(%rip),%rax        # 22940 <g_742>
   131c5:	48 89 85 58 fc ff ff 	mov    %rax,-0x3a8(%rbp)
   131cc:	48 8d 05 59 de 00 00 	lea    0xde59(%rip),%rax        # 2102c <g_3+0x4>
   131d3:	48 89 85 60 fc ff ff 	mov    %rax,-0x3a0(%rbp)
   131da:	48 8d 85 20 f0 ff ff 	lea    -0xfe0(%rbp),%rax
   131e1:	48 89 85 68 fc ff ff 	mov    %rax,-0x398(%rbp)
   131e8:	48 c7 85 70 fc ff ff 	movq   $0x0,-0x390(%rbp)
   131ef:	00 00 00 00 
   131f3:	48 c7 85 78 fc ff ff 	movq   $0x0,-0x388(%rbp)
   131fa:	00 00 00 00 
   131fe:	48 8d 05 3b f7 00 00 	lea    0xf73b(%rip),%rax        # 22940 <g_742>
   13205:	48 89 85 80 fc ff ff 	mov    %rax,-0x380(%rbp)
   1320c:	48 c7 85 88 fc ff ff 	movq   $0x0,-0x378(%rbp)
   13213:	00 00 00 00 
   13217:	48 8d 05 0a de 00 00 	lea    0xde0a(%rip),%rax        # 21028 <g_3>
   1321e:	48 89 85 90 fc ff ff 	mov    %rax,-0x370(%rbp)
   13225:	48 8d 05 00 de 00 00 	lea    0xde00(%rip),%rax        # 2102c <g_3+0x4>
   1322c:	48 89 85 98 fc ff ff 	mov    %rax,-0x368(%rbp)
   13233:	48 8d 85 20 f0 ff ff 	lea    -0xfe0(%rbp),%rax
   1323a:	48 89 85 a0 fc ff ff 	mov    %rax,-0x360(%rbp)
   13241:	48 8d 85 20 f0 ff ff 	lea    -0xfe0(%rbp),%rax
   13248:	48 89 85 a8 fc ff ff 	mov    %rax,-0x358(%rbp)
   1324f:	48 8d 05 d2 dd 00 00 	lea    0xddd2(%rip),%rax        # 21028 <g_3>
   13256:	48 89 85 b0 fc ff ff 	mov    %rax,-0x350(%rbp)
   1325d:	48 c7 85 b8 fc ff ff 	movq   $0x0,-0x348(%rbp)
   13264:	00 00 00 00 
   13268:	48 8d 05 bd dd 00 00 	lea    0xddbd(%rip),%rax        # 2102c <g_3+0x4>
   1326f:	48 89 85 c0 fc ff ff 	mov    %rax,-0x340(%rbp)
   13276:	48 8d 85 20 f0 ff ff 	lea    -0xfe0(%rbp),%rax
   1327d:	48 89 85 c8 fc ff ff 	mov    %rax,-0x338(%rbp)
   13284:	48 c7 85 d0 fc ff ff 	movq   $0x0,-0x330(%rbp)
   1328b:	00 00 00 00 
   1328f:	48 c7 85 d8 fc ff ff 	movq   $0x0,-0x328(%rbp)
   13296:	00 00 00 00 
   1329a:	48 8d 05 87 dd 00 00 	lea    0xdd87(%rip),%rax        # 21028 <g_3>
   132a1:	48 89 85 e0 fc ff ff 	mov    %rax,-0x320(%rbp)
   132a8:	48 8d 05 91 f6 00 00 	lea    0xf691(%rip),%rax        # 22940 <g_742>
   132af:	48 89 85 e8 fc ff ff 	mov    %rax,-0x318(%rbp)
   132b6:	48 8d 05 83 f6 00 00 	lea    0xf683(%rip),%rax        # 22940 <g_742>
   132bd:	48 89 85 f0 fc ff ff 	mov    %rax,-0x310(%rbp)
   132c4:	48 8d 85 20 f0 ff ff 	lea    -0xfe0(%rbp),%rax
   132cb:	48 89 85 f8 fc ff ff 	mov    %rax,-0x308(%rbp)
   132d2:	48 8d 05 53 dd 00 00 	lea    0xdd53(%rip),%rax        # 2102c <g_3+0x4>
   132d9:	48 89 85 00 fd ff ff 	mov    %rax,-0x300(%rbp)
   132e0:	48 8d 05 41 dd 00 00 	lea    0xdd41(%rip),%rax        # 21028 <g_3>
   132e7:	48 89 85 08 fd ff ff 	mov    %rax,-0x2f8(%rbp)
   132ee:	48 8d 05 37 dd 00 00 	lea    0xdd37(%rip),%rax        # 2102c <g_3+0x4>
   132f5:	48 89 85 10 fd ff ff 	mov    %rax,-0x2f0(%rbp)
   132fc:	48 8d 05 3d f6 00 00 	lea    0xf63d(%rip),%rax        # 22940 <g_742>
   13303:	48 89 85 18 fd ff ff 	mov    %rax,-0x2e8(%rbp)
   1330a:	48 c7 85 20 fd ff ff 	movq   $0x0,-0x2e0(%rbp)
   13311:	00 00 00 00 
   13315:	48 8d 05 10 dd 00 00 	lea    0xdd10(%rip),%rax        # 2102c <g_3+0x4>
   1331c:	48 89 85 28 fd ff ff 	mov    %rax,-0x2d8(%rbp)
   13323:	48 8d 05 16 f6 00 00 	lea    0xf616(%rip),%rax        # 22940 <g_742>
   1332a:	48 89 85 30 fd ff ff 	mov    %rax,-0x2d0(%rbp)
   13331:	48 8d 05 08 f6 00 00 	lea    0xf608(%rip),%rax        # 22940 <g_742>
   13338:	48 89 85 38 fd ff ff 	mov    %rax,-0x2c8(%rbp)
   1333f:	48 8d 05 e6 dc 00 00 	lea    0xdce6(%rip),%rax        # 2102c <g_3+0x4>
   13346:	48 89 85 40 fd ff ff 	mov    %rax,-0x2c0(%rbp)
   1334d:	48 c7 85 48 fd ff ff 	movq   $0x0,-0x2b8(%rbp)
   13354:	00 00 00 00 
   13358:	48 8d 85 20 f0 ff ff 	lea    -0xfe0(%rbp),%rax
   1335f:	48 89 85 50 fd ff ff 	mov    %rax,-0x2b0(%rbp)
   13366:	48 8d 85 20 f0 ff ff 	lea    -0xfe0(%rbp),%rax
   1336d:	48 89 85 58 fd ff ff 	mov    %rax,-0x2a8(%rbp)
   13374:	48 8d 05 c5 f5 00 00 	lea    0xf5c5(%rip),%rax        # 22940 <g_742>
   1337b:	48 89 85 60 fd ff ff 	mov    %rax,-0x2a0(%rbp)
   13382:	48 8d 85 20 f0 ff ff 	lea    -0xfe0(%rbp),%rax
   13389:	48 89 85 68 fd ff ff 	mov    %rax,-0x298(%rbp)
   13390:	48 8d 05 a9 f5 00 00 	lea    0xf5a9(%rip),%rax        # 22940 <g_742>
   13397:	48 89 85 70 fd ff ff 	mov    %rax,-0x290(%rbp)
   1339e:	48 8d 85 20 f0 ff ff 	lea    -0xfe0(%rbp),%rax
   133a5:	48 89 85 78 fd ff ff 	mov    %rax,-0x288(%rbp)
   133ac:	48 8d 05 79 dc 00 00 	lea    0xdc79(%rip),%rax        # 2102c <g_3+0x4>
   133b3:	48 89 85 80 fd ff ff 	mov    %rax,-0x280(%rbp)
   133ba:	48 8d 05 7f f5 00 00 	lea    0xf57f(%rip),%rax        # 22940 <g_742>
   133c1:	48 89 85 88 fd ff ff 	mov    %rax,-0x278(%rbp)
   133c8:	48 8d 05 5d dc 00 00 	lea    0xdc5d(%rip),%rax        # 2102c <g_3+0x4>
   133cf:	48 89 85 90 fd ff ff 	mov    %rax,-0x270(%rbp)
   133d6:	48 8d 05 63 f5 00 00 	lea    0xf563(%rip),%rax        # 22940 <g_742>
   133dd:	48 89 85 98 fd ff ff 	mov    %rax,-0x268(%rbp)
   133e4:	48 8d 85 20 f0 ff ff 	lea    -0xfe0(%rbp),%rax
   133eb:	48 89 85 a0 fd ff ff 	mov    %rax,-0x260(%rbp)
   133f2:	48 8d 05 33 dc 00 00 	lea    0xdc33(%rip),%rax        # 2102c <g_3+0x4>
   133f9:	48 89 85 a8 fd ff ff 	mov    %rax,-0x258(%rbp)
   13400:	48 8d 85 20 f0 ff ff 	lea    -0xfe0(%rbp),%rax
   13407:	48 89 85 b0 fd ff ff 	mov    %rax,-0x250(%rbp)
   1340e:	48 8d 05 17 dc 00 00 	lea    0xdc17(%rip),%rax        # 2102c <g_3+0x4>
   13415:	48 89 85 b8 fd ff ff 	mov    %rax,-0x248(%rbp)
   1341c:	48 c7 85 c0 fd ff ff 	movq   $0x0,-0x240(%rbp)
   13423:	00 00 00 00 
   13427:	48 c7 85 c8 fd ff ff 	movq   $0x0,-0x238(%rbp)
   1342e:	00 00 00 00 
   13432:	48 8d 05 f3 db 00 00 	lea    0xdbf3(%rip),%rax        # 2102c <g_3+0x4>
   13439:	48 89 85 d0 fd ff ff 	mov    %rax,-0x230(%rbp)
   13440:	48 c7 85 d8 fd ff ff 	movq   $0x0,-0x228(%rbp)
   13447:	00 00 00 00 
   1344b:	48 8d 05 ee f4 00 00 	lea    0xf4ee(%rip),%rax        # 22940 <g_742>
   13452:	48 89 85 e0 fd ff ff 	mov    %rax,-0x220(%rbp)
   13459:	48 8d 05 cc db 00 00 	lea    0xdbcc(%rip),%rax        # 2102c <g_3+0x4>
   13460:	48 89 85 e8 fd ff ff 	mov    %rax,-0x218(%rbp)
   13467:	48 8d 05 be db 00 00 	lea    0xdbbe(%rip),%rax        # 2102c <g_3+0x4>
   1346e:	48 89 85 f0 fd ff ff 	mov    %rax,-0x210(%rbp)
   13475:	48 8d 85 20 f0 ff ff 	lea    -0xfe0(%rbp),%rax
   1347c:	48 89 85 f8 fd ff ff 	mov    %rax,-0x208(%rbp)
   13483:	48 8d 85 20 f0 ff ff 	lea    -0xfe0(%rbp),%rax
   1348a:	48 89 85 00 fe ff ff 	mov    %rax,-0x200(%rbp)
   13491:	48 8d 05 94 db 00 00 	lea    0xdb94(%rip),%rax        # 2102c <g_3+0x4>
   13498:	48 89 85 08 fe ff ff 	mov    %rax,-0x1f8(%rbp)
   1349f:	48 8d 05 9a f4 00 00 	lea    0xf49a(%rip),%rax        # 22940 <g_742>
   134a6:	48 89 85 10 fe ff ff 	mov    %rax,-0x1f0(%rbp)
   134ad:	48 8d 05 74 db 00 00 	lea    0xdb74(%rip),%rax        # 21028 <g_3>
   134b4:	48 89 85 18 fe ff ff 	mov    %rax,-0x1e8(%rbp)
   134bb:	48 8d 05 7e f4 00 00 	lea    0xf47e(%rip),%rax        # 22940 <g_742>
   134c2:	48 89 85 20 fe ff ff 	mov    %rax,-0x1e0(%rbp)
   134c9:	48 c7 85 28 fe ff ff 	movq   $0x0,-0x1d8(%rbp)
   134d0:	00 00 00 00 
   134d4:	48 8d 85 20 f0 ff ff 	lea    -0xfe0(%rbp),%rax
   134db:	48 89 85 30 fe ff ff 	mov    %rax,-0x1d0(%rbp)
   134e2:	48 8d 05 43 db 00 00 	lea    0xdb43(%rip),%rax        # 2102c <g_3+0x4>
   134e9:	48 89 85 38 fe ff ff 	mov    %rax,-0x1c8(%rbp)
   134f0:	48 8d 05 35 db 00 00 	lea    0xdb35(%rip),%rax        # 2102c <g_3+0x4>
   134f7:	48 89 85 40 fe ff ff 	mov    %rax,-0x1c0(%rbp)
   134fe:	48 8d 05 23 db 00 00 	lea    0xdb23(%rip),%rax        # 21028 <g_3>
   13505:	48 89 85 48 fe ff ff 	mov    %rax,-0x1b8(%rbp)
   1350c:	48 c7 85 50 fe ff ff 	movq   $0x0,-0x1b0(%rbp)
   13513:	00 00 00 00 
   13517:	48 c7 85 58 fe ff ff 	movq   $0x0,-0x1a8(%rbp)
   1351e:	00 00 00 00 
   13522:	48 8d 05 03 db 00 00 	lea    0xdb03(%rip),%rax        # 2102c <g_3+0x4>
   13529:	48 89 85 60 fe ff ff 	mov    %rax,-0x1a0(%rbp)
   13530:	48 8d 05 f5 da 00 00 	lea    0xdaf5(%rip),%rax        # 2102c <g_3+0x4>
   13537:	48 89 85 68 fe ff ff 	mov    %rax,-0x198(%rbp)
   1353e:	48 8d 05 e7 da 00 00 	lea    0xdae7(%rip),%rax        # 2102c <g_3+0x4>
   13545:	48 89 85 70 fe ff ff 	mov    %rax,-0x190(%rbp)
   1354c:	48 8d 05 ed f3 00 00 	lea    0xf3ed(%rip),%rax        # 22940 <g_742>
   13553:	48 89 85 78 fe ff ff 	mov    %rax,-0x188(%rbp)
   1355a:	48 8d 05 c7 da 00 00 	lea    0xdac7(%rip),%rax        # 21028 <g_3>
   13561:	48 89 85 80 fe ff ff 	mov    %rax,-0x180(%rbp)
   13568:	48 c7 85 88 fe ff ff 	movq   $0x0,-0x178(%rbp)
   1356f:	00 00 00 00 
   13573:	48 8d 85 20 f0 ff ff 	lea    -0xfe0(%rbp),%rax
   1357a:	48 89 85 90 fe ff ff 	mov    %rax,-0x170(%rbp)
   13581:	48 c7 85 98 fe ff ff 	movq   $0x0,-0x168(%rbp)
   13588:	00 00 00 00 
   1358c:	48 8d 05 ad f3 00 00 	lea    0xf3ad(%rip),%rax        # 22940 <g_742>
   13593:	48 89 85 a0 fe ff ff 	mov    %rax,-0x160(%rbp)
   1359a:	48 8d 05 8b da 00 00 	lea    0xda8b(%rip),%rax        # 2102c <g_3+0x4>
   135a1:	48 89 85 a8 fe ff ff 	mov    %rax,-0x158(%rbp)
   135a8:	48 8d 05 91 f3 00 00 	lea    0xf391(%rip),%rax        # 22940 <g_742>
   135af:	48 89 85 b0 fe ff ff 	mov    %rax,-0x150(%rbp)
   135b6:	48 8d 85 20 f0 ff ff 	lea    -0xfe0(%rbp),%rax
   135bd:	48 89 85 b8 fe ff ff 	mov    %rax,-0x148(%rbp)
   135c4:	48 8d 05 5d da 00 00 	lea    0xda5d(%rip),%rax        # 21028 <g_3>
   135cb:	48 89 85 c0 fe ff ff 	mov    %rax,-0x140(%rbp)
   135d2:	48 c7 85 c8 fe ff ff 	movq   $0x0,-0x138(%rbp)
   135d9:	00 00 00 00 
   135dd:	48 8d 05 5c f3 00 00 	lea    0xf35c(%rip),%rax        # 22940 <g_742>
   135e4:	48 89 85 d0 fe ff ff 	mov    %rax,-0x130(%rbp)
   135eb:	48 8d 05 36 da 00 00 	lea    0xda36(%rip),%rax        # 21028 <g_3>
   135f2:	48 89 85 d8 fe ff ff 	mov    %rax,-0x128(%rbp)
   135f9:	48 8d 85 20 f0 ff ff 	lea    -0xfe0(%rbp),%rax
   13600:	48 89 85 e0 fe ff ff 	mov    %rax,-0x120(%rbp)
   13607:	48 c7 85 e8 fe ff ff 	movq   $0x0,-0x118(%rbp)
   1360e:	00 00 00 00 
   13612:	48 8d 05 13 da 00 00 	lea    0xda13(%rip),%rax        # 2102c <g_3+0x4>
   13619:	48 89 85 f0 fe ff ff 	mov    %rax,-0x110(%rbp)
   13620:	48 c7 85 f8 fe ff ff 	movq   $0x0,-0x108(%rbp)
   13627:	00 00 00 00 
   1362b:	48 8d 85 20 f0 ff ff 	lea    -0xfe0(%rbp),%rax
   13632:	48 89 85 00 ff ff ff 	mov    %rax,-0x100(%rbp)
   13639:	48 8d 05 00 f3 00 00 	lea    0xf300(%rip),%rax        # 22940 <g_742>
   13640:	48 89 85 08 ff ff ff 	mov    %rax,-0xf8(%rbp)
   13647:	48 8d 05 de d9 00 00 	lea    0xd9de(%rip),%rax        # 2102c <g_3+0x4>
   1364e:	48 89 85 10 ff ff ff 	mov    %rax,-0xf0(%rbp)
   13655:	48 8d 05 e4 f2 00 00 	lea    0xf2e4(%rip),%rax        # 22940 <g_742>
   1365c:	48 89 85 18 ff ff ff 	mov    %rax,-0xe8(%rbp)
   13663:	48 c7 85 20 ff ff ff 	movq   $0x0,-0xe0(%rbp)
   1366a:	00 00 00 00 
   1366e:	48 8d 05 b7 d9 00 00 	lea    0xd9b7(%rip),%rax        # 2102c <g_3+0x4>
   13675:	48 89 85 28 ff ff ff 	mov    %rax,-0xd8(%rbp)
   1367c:	48 8d 05 a9 d9 00 00 	lea    0xd9a9(%rip),%rax        # 2102c <g_3+0x4>
   13683:	48 89 85 30 ff ff ff 	mov    %rax,-0xd0(%rbp)
   1368a:	48 8d 05 9b d9 00 00 	lea    0xd99b(%rip),%rax        # 2102c <g_3+0x4>
   13691:	48 89 85 38 ff ff ff 	mov    %rax,-0xc8(%rbp)
   13698:	48 8d 05 8d d9 00 00 	lea    0xd98d(%rip),%rax        # 2102c <g_3+0x4>
   1369f:	48 89 85 40 ff ff ff 	mov    %rax,-0xc0(%rbp)
   136a6:	48 8d 85 20 f0 ff ff 	lea    -0xfe0(%rbp),%rax
   136ad:	48 89 85 48 ff ff ff 	mov    %rax,-0xb8(%rbp)
   136b4:	48 c7 85 50 ff ff ff 	movq   $0x0,-0xb0(%rbp)
   136bb:	00 00 00 00 
   136bf:	48 8d 05 66 d9 00 00 	lea    0xd966(%rip),%rax        # 2102c <g_3+0x4>
   136c6:	48 89 85 58 ff ff ff 	mov    %rax,-0xa8(%rbp)
   136cd:	48 8d 85 20 f0 ff ff 	lea    -0xfe0(%rbp),%rax
   136d4:	48 89 85 60 ff ff ff 	mov    %rax,-0xa0(%rbp)
   136db:	48 8d 05 4a d9 00 00 	lea    0xd94a(%rip),%rax        # 2102c <g_3+0x4>
   136e2:	48 89 85 68 ff ff ff 	mov    %rax,-0x98(%rbp)
   136e9:	48 c7 85 70 ff ff ff 	movq   $0x0,-0x90(%rbp)
   136f0:	00 00 00 00 
   136f4:	48 8d 05 45 f2 00 00 	lea    0xf245(%rip),%rax        # 22940 <g_742>
   136fb:	48 89 85 78 ff ff ff 	mov    %rax,-0x88(%rbp)
   13702:	48 8d 85 20 f0 ff ff 	lea    -0xfe0(%rbp),%rax
   13709:	48 89 45 80          	mov    %rax,-0x80(%rbp)
   1370d:	48 8d 85 20 f0 ff ff 	lea    -0xfe0(%rbp),%rax
   13714:	48 89 45 88          	mov    %rax,-0x78(%rbp)
   13718:	48 c7 45 90 00 00 00 	movq   $0x0,-0x70(%rbp)
   1371f:	00 
   13720:	48 8d 05 19 f2 00 00 	lea    0xf219(%rip),%rax        # 22940 <g_742>
   13727:	48 89 45 98          	mov    %rax,-0x68(%rbp)
   1372b:	48 c7 45 a0 00 00 00 	movq   $0x0,-0x60(%rbp)
   13732:	00 
   13733:	48 8d 05 ee d8 00 00 	lea    0xd8ee(%rip),%rax        # 21028 <g_3>
   1373a:	48 89 45 a8          	mov    %rax,-0x58(%rbp)
   1373e:	48 8d 85 20 f0 ff ff 	lea    -0xfe0(%rbp),%rax
   13745:	48 89 45 b0          	mov    %rax,-0x50(%rbp)
   13749:	c7 85 d0 ef ff ff 00 	movl   $0x0,-0x1030(%rbp)
   13750:	00 00 00 
   13753:	eb 1e                	jmp    13773 <func_72+0x1f42>
   13755:	8b 85 d0 ef ff ff    	mov    -0x1030(%rbp),%eax
   1375b:	48 98                	cltq   
   1375d:	48 8d 95 18 f1 ff ff 	lea    -0xee8(%rbp),%rdx
   13764:	48 89 94 c5 30 f1 ff 	mov    %rdx,-0xed0(%rbp,%rax,8)
   1376b:	ff 
   1376c:	83 85 d0 ef ff ff 01 	addl   $0x1,-0x1030(%rbp)
   13773:	83 bd d0 ef ff ff 01 	cmpl   $0x1,-0x1030(%rbp)
   1377a:	7e d9                	jle    13755 <func_72+0x1f24>
   1377c:	48 8b 05 5d f3 00 00 	mov    0xf35d(%rip),%rax        # 22ae0 <g_844>
   13783:	48 8b 15 5e f3 00 00 	mov    0xf35e(%rip),%rdx        # 22ae8 <g_844+0x8>
   1378a:	48 8b 05 d7 3f 01 00 	mov    0x13fd7(%rip),%rax        # 27768 <g_125>
   13791:	48 8b 00             	mov    (%rax),%rax
   13794:	0f b7 00             	movzwl (%rax),%eax
   13797:	0f bf d8             	movswl %ax,%ebx
   1379a:	48 8b 85 38 f0 ff ff 	mov    -0xfc8(%rbp),%rax
   137a1:	48 3b 85 a0 ef ff ff 	cmp    -0x1060(%rbp),%rax
   137a8:	0f 85 d5 00 00 00    	jne    13883 <func_72+0x2052>
   137ae:	8b 85 94 ef ff ff    	mov    -0x106c(%rbp),%eax
   137b4:	41 89 c7             	mov    %eax,%r15d
   137b7:	0f b6 85 91 ef ff ff 	movzbl -0x106f(%rbp),%eax
   137be:	44 0f b6 e0          	movzbl %al,%r12d
   137c2:	48 8b 05 c7 47 01 00 	mov    0x147c7(%rip),%rax        # 27f90 <g_828>
   137c9:	48 8b 00             	mov    (%rax),%rax
   137cc:	0f b6 00             	movzbl (%rax),%eax
   137cf:	44 0f b6 e8          	movzbl %al,%r13d
   137d3:	44 8b b5 94 ef ff ff 	mov    -0x106c(%rbp),%r14d
   137da:	48 8b 85 50 f2 ff ff 	mov    -0xdb0(%rbp),%rax
   137e1:	89 c2                	mov    %eax,%edx
   137e3:	48 8b 05 76 ac 00 00 	mov    0xac76(%rip),%rax        # 1e460 <l_816.4858+0x20>
   137ea:	89 d6                	mov    %edx,%esi
   137ec:	89 c7                	mov    %eax,%edi
   137ee:	e8 0a 67 ff ff       	callq  9efd <safe_mod_func_uint32_t_u_u>
   137f3:	41 39 c6             	cmp    %eax,%r14d
   137f6:	0f 92 c0             	setb   %al
   137f9:	0f b6 d0             	movzbl %al,%edx
   137fc:	48 8d 05 3f d9 00 00 	lea    0xd93f(%rip),%rax        # 21142 <g_180>
   13803:	48 39 85 40 f0 ff ff 	cmp    %rax,-0xfc0(%rbp)
   1380a:	0f 95 c0             	setne  %al
   1380d:	0f b6 c8             	movzbl %al,%ecx
   13810:	8b 85 a0 f1 ff ff    	mov    -0xe60(%rbp),%eax
   13816:	39 c1                	cmp    %eax,%ecx
   13818:	0f 9d c0             	setge  %al
   1381b:	0f b6 c0             	movzbl %al,%eax
   1381e:	89 d6                	mov    %edx,%esi
   13820:	89 c7                	mov    %eax,%edi
   13822:	e8 8c 5b ff ff       	callq  93b3 <safe_add_func_int16_t_s_s>
   13827:	0f b6 c0             	movzbl %al,%eax
   1382a:	44 89 ee             	mov    %r13d,%esi
   1382d:	89 c7                	mov    %eax,%edi
   1382f:	e8 44 63 ff ff       	callq  9b78 <safe_sub_func_uint8_t_u_u>
   13834:	0f b6 c0             	movzbl %al,%eax
   13837:	44 89 e6             	mov    %r12d,%esi
   1383a:	89 c7                	mov    %eax,%edi
   1383c:	e8 8b 5e ff ff       	callq  96cc <safe_mod_func_int32_t_s_s>
   13841:	83 c8 01             	or     $0x1,%eax
   13844:	48 63 d0             	movslq %eax,%rdx
   13847:	48 8b 85 20 f3 ff ff 	mov    -0xce0(%rbp),%rax
   1384e:	48 09 c2             	or     %rax,%rdx
   13851:	8b 85 48 f1 ff ff    	mov    -0xeb8(%rbp),%eax
   13857:	48 98                	cltq   
   13859:	48 31 c2             	xor    %rax,%rdx
   1385c:	0f b6 05 1c d9 00 00 	movzbl 0xd91c(%rip),%eax        # 2117f <g_183+0x1f>
   13863:	c1 e0 04             	shl    $0x4,%eax
   13866:	c0 f8 06             	sar    $0x6,%al
   13869:	48 0f be c0          	movsbq %al,%rax
   1386d:	48 31 d0             	xor    %rdx,%rax
   13870:	4c 89 fe             	mov    %r15,%rsi
   13873:	48 89 c7             	mov    %rax,%rdi
   13876:	e8 b3 67 ff ff       	callq  a02e <safe_add_func_uint64_t_u_u>
   1387b:	48 3d ea 00 00 00    	cmp    $0xea,%rax
   13881:	76 07                	jbe    1388a <func_72+0x2059>
   13883:	ba 01 00 00 00       	mov    $0x1,%edx
   13888:	eb 05                	jmp    1388f <func_72+0x205e>
   1388a:	ba 00 00 00 00       	mov    $0x0,%edx
   1388f:	0f b6 45 c0          	movzbl -0x40(%rbp),%eax
   13893:	0f be c0             	movsbl %al,%eax
   13896:	39 c2                	cmp    %eax,%edx
   13898:	0f 9f c0             	setg   %al
   1389b:	0f b6 c0             	movzbl %al,%eax
   1389e:	39 85 f8 ef ff ff    	cmp    %eax,-0x1008(%rbp)
   138a4:	0f 96 c0             	setbe  %al
   138a7:	0f b6 c0             	movzbl %al,%eax
   138aa:	f7 d0                	not    %eax
   138ac:	89 c2                	mov    %eax,%edx
   138ae:	48 8b 85 a0 ef ff ff 	mov    -0x1060(%rbp),%rax
   138b5:	8b 00                	mov    (%rax),%eax
   138b7:	39 c2                	cmp    %eax,%edx
   138b9:	0f 94 c0             	sete   %al
   138bc:	0f b6 d0             	movzbl %al,%edx
   138bf:	8b 85 b4 ef ff ff    	mov    -0x104c(%rbp),%eax
   138c5:	39 c2                	cmp    %eax,%edx
   138c7:	0f 97 c2             	seta   %dl
   138ca:	48 8b 05 2f 3e 01 00 	mov    0x13e2f(%rip),%rax        # 27700 <g_106>
   138d1:	0f b6 d2             	movzbl %dl,%edx
   138d4:	89 10                	mov    %edx,(%rax)
   138d6:	8b 10                	mov    (%rax),%edx
   138d8:	8b 05 32 e0 00 00    	mov    0xe032(%rip),%eax        # 21910 <g_449+0x10>
   138de:	c1 e0 0d             	shl    $0xd,%eax
   138e1:	c1 f8 0d             	sar    $0xd,%eax
   138e4:	39 c2                	cmp    %eax,%edx
   138e6:	0f 9e c0             	setle  %al
   138e9:	0f b6 c0             	movzbl %al,%eax
   138ec:	89 de                	mov    %ebx,%esi
   138ee:	89 c7                	mov    %eax,%edi
   138f0:	e8 9d 5b ff ff       	callq  9492 <safe_lshift_func_int16_t_s_s>
   138f5:	89 c2                	mov    %eax,%edx
   138f7:	8b 05 37 dd 00 00    	mov    0xdd37(%rip),%eax        # 21634 <g_442+0x4>
   138fd:	c1 e0 05             	shl    $0x5,%eax
   13900:	c1 f8 0d             	sar    $0xd,%eax
   13903:	89 c1                	mov    %eax,%ecx
   13905:	0f bf c2             	movswl %dx,%eax
   13908:	31 c8                	xor    %ecx,%eax
   1390a:	c1 e0 0d             	shl    $0xd,%eax
   1390d:	c1 f8 0d             	sar    $0xd,%eax
   13910:	89 c2                	mov    %eax,%edx
   13912:	0f b6 ca             	movzbl %dl,%ecx
   13915:	0f b6 15 19 dd 00 00 	movzbl 0xdd19(%rip),%edx        # 21635 <g_442+0x5>
   1391c:	83 e2 00             	and    $0x0,%edx
   1391f:	09 ca                	or     %ecx,%edx
   13921:	88 15 0e dd 00 00    	mov    %dl,0xdd0e(%rip)        # 21635 <g_442+0x5>
   13927:	89 c2                	mov    %eax,%edx
   13929:	c1 ea 08             	shr    $0x8,%edx
   1392c:	89 d2                	mov    %edx,%edx
   1392e:	0f b6 ca             	movzbl %dl,%ecx
   13931:	0f b6 15 fe dc 00 00 	movzbl 0xdcfe(%rip),%edx        # 21636 <g_442+0x6>
   13938:	83 e2 00             	and    $0x0,%edx
   1393b:	09 ca                	or     %ecx,%edx
   1393d:	88 15 f3 dc 00 00    	mov    %dl,0xdcf3(%rip)        # 21636 <g_442+0x6>
   13943:	c1 e8 10             	shr    $0x10,%eax
   13946:	89 c0                	mov    %eax,%eax
   13948:	83 e0 07             	and    $0x7,%eax
   1394b:	89 c2                	mov    %eax,%edx
   1394d:	83 e2 07             	and    $0x7,%edx
   13950:	0f b6 05 e0 dc 00 00 	movzbl 0xdce0(%rip),%eax        # 21637 <g_442+0x7>
   13957:	83 e0 f8             	and    $0xfffffff8,%eax
   1395a:	09 d0                	or     %edx,%eax
   1395c:	88 05 d5 dc 00 00    	mov    %al,0xdcd5(%rip)        # 21637 <g_442+0x7>
   13962:	8b 05 cc dc 00 00    	mov    0xdccc(%rip),%eax        # 21634 <g_442+0x4>
   13968:	c1 e0 05             	shl    $0x5,%eax
   1396b:	c1 f8 0d             	sar    $0xd,%eax
   1396e:	8b 15 98 df 00 00    	mov    0xdf98(%rip),%edx        # 2190c <g_449+0xc>
   13974:	c1 e2 0c             	shl    $0xc,%edx
   13977:	c1 fa 0c             	sar    $0xc,%edx
   1397a:	31 d0                	xor    %edx,%eax
   1397c:	c1 e0 0c             	shl    $0xc,%eax
   1397f:	c1 f8 0c             	sar    $0xc,%eax
   13982:	89 c2                	mov    %eax,%edx
   13984:	0f b6 ca             	movzbl %dl,%ecx
   13987:	0f b6 15 7e df 00 00 	movzbl 0xdf7e(%rip),%edx        # 2190c <g_449+0xc>
   1398e:	83 e2 00             	and    $0x0,%edx
   13991:	09 ca                	or     %ecx,%edx
   13993:	88 15 73 df 00 00    	mov    %dl,0xdf73(%rip)        # 2190c <g_449+0xc>
   13999:	89 c2                	mov    %eax,%edx
   1399b:	c1 ea 08             	shr    $0x8,%edx
   1399e:	89 d2                	mov    %edx,%edx
   139a0:	0f b6 ca             	movzbl %dl,%ecx
   139a3:	0f b6 15 63 df 00 00 	movzbl 0xdf63(%rip),%edx        # 2190d <g_449+0xd>
   139aa:	83 e2 00             	and    $0x0,%edx
   139ad:	09 ca                	or     %ecx,%edx
   139af:	88 15 58 df 00 00    	mov    %dl,0xdf58(%rip)        # 2190d <g_449+0xd>
   139b5:	c1 e8 10             	shr    $0x10,%eax
   139b8:	89 c0                	mov    %eax,%eax
   139ba:	83 e0 0f             	and    $0xf,%eax
   139bd:	89 c2                	mov    %eax,%edx
   139bf:	83 e2 0f             	and    $0xf,%edx
   139c2:	0f b6 05 45 df 00 00 	movzbl 0xdf45(%rip),%eax        # 2190e <g_449+0xe>
   139c9:	83 e0 f0             	and    $0xfffffff0,%eax
   139cc:	09 d0                	or     %edx,%eax
   139ce:	88 05 3a df 00 00    	mov    %al,0xdf3a(%rip)        # 2190e <g_449+0xe>
   139d4:	48 8d 85 ac ef ff ff 	lea    -0x1054(%rbp),%rax
   139db:	48 89 85 a0 ef ff ff 	mov    %rax,-0x1060(%rbp)
   139e2:	8b 05 8c d7 00 00    	mov    0xd78c(%rip),%eax        # 21174 <g_183+0x14>
   139e8:	c1 e0 06             	shl    $0x6,%eax
   139eb:	c1 f8 06             	sar    $0x6,%eax
   139ee:	89 c2                	mov    %eax,%edx
   139f0:	48 8b 85 48 f0 ff ff 	mov    -0xfb8(%rbp),%rax
   139f7:	66 89 10             	mov    %dx,(%rax)
   139fa:	48 8b 85 48 f0 ff ff 	mov    -0xfb8(%rbp),%rax
   13a01:	0f b7 00             	movzwl (%rax),%eax
   13a04:	0f bf d0             	movswl %ax,%edx
   13a07:	0f b6 85 b1 ef ff ff 	movzbl -0x104f(%rbp),%eax
   13a0e:	0f b6 c0             	movzbl %al,%eax
   13a11:	89 d6                	mov    %edx,%esi
   13a13:	89 c7                	mov    %eax,%edi
   13a15:	e8 db 59 ff ff       	callq  93f5 <safe_mul_func_int16_t_s_s>
   13a1a:	66 3d ab 00          	cmp    $0xab,%ax
   13a1e:	7f 07                	jg     13a27 <func_72+0x21f6>
   13a20:	ba 06 00 00 00       	mov    $0x6,%edx
   13a25:	eb 05                	jmp    13a2c <func_72+0x21fb>
   13a27:	ba 07 00 00 00       	mov    $0x7,%edx
   13a2c:	48 8b 85 a0 ef ff ff 	mov    -0x1060(%rbp),%rax
   13a33:	89 10                	mov    %edx,(%rax)
   13a35:	8b 85 a0 f1 ff ff    	mov    -0xe60(%rbp),%eax
   13a3b:	eb 6f                	jmp    13aac <func_72+0x227b>
   13a3d:	0f b7 05 60 ed 00 00 	movzwl 0xed60(%rip),%eax        # 227a4 <g_505+0x4>
   13a44:	48 0f bf c0          	movswq %ax,%rax
   13a48:	be 04 00 00 00       	mov    $0x4,%esi
   13a4d:	48 89 c7             	mov    %rax,%rdi
   13a50:	e8 d9 65 ff ff       	callq  a02e <safe_add_func_uint64_t_u_u>
   13a55:	66 89 05 48 ed 00 00 	mov    %ax,0xed48(%rip)        # 227a4 <g_505+0x4>
   13a5c:	0f b7 05 41 ed 00 00 	movzwl 0xed41(%rip),%eax        # 227a4 <g_505+0x4>
   13a63:	66 83 f8 17          	cmp    $0x17,%ax
   13a67:	0f 8e a6 ed ff ff    	jle    12813 <func_72+0xfe2>
   13a6d:	c7 05 55 f0 00 00 12 	movl   $0x12,0xf055(%rip)        # 22acc <g_843+0x4>
   13a74:	00 00 00 
   13a77:	eb 1f                	jmp    13a98 <func_72+0x2267>
   13a79:	0f b6 05 f8 ed 00 00 	movzbl 0xedf8(%rip),%eax        # 22878 <g_677+0x18>
   13a80:	84 c0                	test   %al,%al
   13a82:	74 05                	je     13a89 <func_72+0x2258>
   13a84:	e9 7c ed ff ff       	jmpq   12805 <func_72+0xfd4>
   13a89:	8b 05 3d f0 00 00    	mov    0xf03d(%rip),%eax        # 22acc <g_843+0x4>
   13a8f:	83 e8 01             	sub    $0x1,%eax
   13a92:	89 05 34 f0 00 00    	mov    %eax,0xf034(%rip)        # 22acc <g_843+0x4>
   13a98:	8b 05 2e f0 00 00    	mov    0xf02e(%rip),%eax        # 22acc <g_843+0x4>
   13a9e:	83 f8 10             	cmp    $0x10,%eax
   13aa1:	77 d6                	ja     13a79 <func_72+0x2248>
   13aa3:	48 8b 05 56 3c 01 00 	mov    0x13c56(%rip),%rax        # 27700 <g_106>
   13aaa:	8b 00                	mov    (%rax),%eax
   13aac:	48 8b 5d c8          	mov    -0x38(%rbp),%rbx
   13ab0:	64 48 33 1c 25 28 00 	xor    %fs:0x28,%rbx
   13ab7:	00 00 
   13ab9:	74 05                	je     13ac0 <func_72+0x228f>
   13abb:	e8 b0 55 ff ff       	callq  9070 <__stack_chk_fail@plt>
   13ac0:	48 81 c4 48 10 00 00 	add    $0x1048,%rsp
   13ac7:	5b                   	pop    %rbx
   13ac8:	41 5c                	pop    %r12
   13aca:	41 5d                	pop    %r13
   13acc:	41 5e                	pop    %r14
   13ace:	41 5f                	pop    %r15
   13ad0:	5d                   	pop    %rbp
   13ad1:	c3                   	retq   

0000000000013ad2 <func_78>:
   13ad2:	f3 0f 1e fa          	endbr64 
   13ad6:	55                   	push   %rbp
   13ad7:	48 89 e5             	mov    %rsp,%rbp
   13ada:	41 57                	push   %r15
   13adc:	41 56                	push   %r14
   13ade:	41 55                	push   %r13
   13ae0:	41 54                	push   %r12
   13ae2:	53                   	push   %rbx
   13ae3:	48 81 ec 18 01 00 00 	sub    $0x118,%rsp
   13aea:	48 89 bd d8 fe ff ff 	mov    %rdi,-0x128(%rbp)
   13af1:	64 48 8b 04 25 28 00 	mov    %fs:0x28,%rax
   13af8:	00 00 
   13afa:	48 89 45 c8          	mov    %rax,-0x38(%rbp)
   13afe:	31 c0                	xor    %eax,%eax
   13b00:	c7 85 e4 fe ff ff 01 	movl   $0x1,-0x11c(%rbp)
   13b07:	00 00 00 
   13b0a:	48 c7 85 50 ff ff ff 	movq   $0xfffffffffffffff7,-0xb0(%rbp)
   13b11:	f7 ff ff ff 
   13b15:	48 b8 3c e5 03 ff c2 	movabs $0xecd02ac2ff03e53c,%rax
   13b1c:	2a d0 ec 
   13b1f:	48 89 85 58 ff ff ff 	mov    %rax,-0xa8(%rbp)
   13b26:	48 89 85 60 ff ff ff 	mov    %rax,-0xa0(%rbp)
   13b2d:	48 b9 5f 48 42 97 42 	movabs $0x585c01429742485f,%rcx
   13b34:	01 5c 58 
   13b37:	48 89 8d 68 ff ff ff 	mov    %rcx,-0x98(%rbp)
   13b3e:	48 89 85 70 ff ff ff 	mov    %rax,-0x90(%rbp)
   13b45:	48 89 85 78 ff ff ff 	mov    %rax,-0x88(%rbp)
   13b4c:	48 8d 05 c5 d5 00 00 	lea    0xd5c5(%rip),%rax        # 21118 <g_34>
   13b53:	48 89 85 e8 fe ff ff 	mov    %rax,-0x118(%rbp)
   13b5a:	48 c7 45 80 00 00 00 	movq   $0x0,-0x80(%rbp)
   13b61:	00 
   13b62:	48 c7 45 88 00 00 00 	movq   $0x0,-0x78(%rbp)
   13b69:	00 
   13b6a:	48 c7 45 90 00 00 00 	movq   $0x0,-0x70(%rbp)
   13b71:	00 
   13b72:	48 c7 45 98 00 00 00 	movq   $0x0,-0x68(%rbp)
   13b79:	00 
   13b7a:	48 c7 45 a0 00 00 00 	movq   $0x0,-0x60(%rbp)
   13b81:	00 
   13b82:	48 c7 45 a8 00 00 00 	movq   $0x0,-0x58(%rbp)
   13b89:	00 
   13b8a:	48 c7 45 b0 00 00 00 	movq   $0x0,-0x50(%rbp)
   13b91:	00 
   13b92:	48 c7 45 b8 00 00 00 	movq   $0x0,-0x48(%rbp)
   13b99:	00 
   13b9a:	c6 85 2c ff ff ff 01 	movb   $0x1,-0xd4(%rbp)
   13ba1:	c6 85 2d ff ff ff 4e 	movb   $0x4e,-0xd3(%rbp)
   13ba8:	c7 85 30 ff ff ff ff 	movl   $0xffffffff,-0xd0(%rbp)
   13baf:	ff ff ff 
   13bb2:	66 c7 85 34 ff ff ff 	movw   $0x0,-0xcc(%rbp)
   13bb9:	00 00 
   13bbb:	48 c7 85 f0 fe ff ff 	movq   $0x0,-0x110(%rbp)
   13bc2:	00 00 00 00 
   13bc6:	48 8d 05 db 3b 01 00 	lea    0x13bdb(%rip),%rax        # 277a8 <g_182+0x28>
   13bcd:	48 89 85 f8 fe ff ff 	mov    %rax,-0x108(%rbp)
   13bd4:	48 8d 85 50 ff ff ff 	lea    -0xb0(%rbp),%rax
   13bdb:	48 83 c0 08          	add    $0x8,%rax
   13bdf:	48 89 85 00 ff ff ff 	mov    %rax,-0x100(%rbp)
   13be6:	66 c7 85 e2 fe ff ff 	movw   $0x0,-0x11e(%rbp)
   13bed:	00 00 
   13bef:	48 8d 05 4c d5 00 00 	lea    0xd54c(%rip),%rax        # 21142 <g_180>
   13bf6:	48 89 85 08 ff ff ff 	mov    %rax,-0xf8(%rbp)
   13bfd:	48 8d 05 1c d5 00 00 	lea    0xd51c(%rip),%rax        # 21120 <g_108+0x4>
   13c04:	48 89 85 10 ff ff ff 	mov    %rax,-0xf0(%rbp)
   13c0b:	48 8d 85 2c ff ff ff 	lea    -0xd4(%rbp),%rax
   13c12:	48 89 85 18 ff ff ff 	mov    %rax,-0xe8(%rbp)
   13c19:	48 c7 85 20 ff ff ff 	movq   $0xfffffffffffffff9,-0xe0(%rbp)
   13c20:	f9 ff ff ff 
   13c24:	c6 85 38 ff ff ff ff 	movb   $0xff,-0xc8(%rbp)
   13c2b:	c6 85 39 ff ff ff d6 	movb   $0xd6,-0xc7(%rbp)
   13c32:	c7 85 3c ff ff ff d3 	movl   $0x33b13bd3,-0xc4(%rbp)
   13c39:	3b b1 33 
   13c3c:	66 c7 85 40 ff ff ff 	movw   $0xd3ca,-0xc0(%rbp)
   13c43:	ca d3 
   13c45:	48 8b 05 e4 d3 00 00 	mov    0xd3e4(%rip),%rax        # 21030 <g_27>
   13c4c:	41 89 c6             	mov    %eax,%r14d
   13c4f:	8b 05 d7 d3 00 00    	mov    0xd3d7(%rip),%eax        # 2102c <g_3+0x4>
   13c55:	48 63 d8             	movslq %eax,%rbx
   13c58:	8b 05 ce d3 00 00    	mov    0xd3ce(%rip),%eax        # 2102c <g_3+0x4>
   13c5e:	44 0f bf e0          	movswl %ax,%r12d
   13c62:	48 8b 85 58 ff ff ff 	mov    -0xa8(%rbp),%rax
   13c69:	41 89 c7             	mov    %eax,%r15d
   13c6c:	8b 05 ba d3 00 00    	mov    0xd3ba(%rip),%eax        # 2102c <g_3+0x4>
   13c72:	4c 63 e8             	movslq %eax,%r13
   13c75:	48 8d 05 9c d4 00 00 	lea    0xd49c(%rip),%rax        # 21118 <g_34>
   13c7c:	48 89 05 7d 3a 01 00 	mov    %rax,0x13a7d(%rip)        # 27700 <g_106>
   13c83:	48 8b 85 d8 fe ff ff 	mov    -0x128(%rbp),%rax
   13c8a:	8b 00                	mov    (%rax),%eax
   13c8c:	48 63 d0             	movslq %eax,%rdx
   13c8f:	48 8b 05 9a d3 00 00 	mov    0xd39a(%rip),%rax        # 21030 <g_27>
   13c96:	48 39 c2             	cmp    %rax,%rdx
   13c99:	0f 9c c0             	setl   %al
   13c9c:	0f b6 d0             	movzbl %al,%edx
   13c9f:	48 8b 85 58 ff ff ff 	mov    -0xa8(%rbp),%rax
   13ca6:	48 3d bd a4 00 00    	cmp    $0xa4bd,%rax
   13cac:	0f 95 c0             	setne  %al
   13caf:	0f b6 c0             	movzbl %al,%eax
   13cb2:	89 d6                	mov    %edx,%esi
   13cb4:	89 c7                	mov    %eax,%edi
   13cb6:	e8 64 60 ff ff       	callq  9d1f <safe_sub_func_uint16_t_u_u>
   13cbb:	66 85 c0             	test   %ax,%ax
   13cbe:	be 00 00 00 00       	mov    $0x0,%esi
   13cc3:	bf 01 00 00 00       	mov    $0x1,%edi
   13cc8:	e8 38 59 ff ff       	callq  9605 <safe_sub_func_int32_t_s_s>
   13ccd:	0f b6 c0             	movzbl %al,%eax
   13cd0:	be 32 00 00 00       	mov    $0x32,%esi
   13cd5:	89 c7                	mov    %eax,%edi
   13cd7:	e8 d2 5e ff ff       	callq  9bae <safe_mod_func_uint8_t_u_u>
   13cdc:	48 8b 85 e8 fe ff ff 	mov    -0x118(%rbp),%rax
   13ce3:	c7 00 00 00 00 00    	movl   $0x0,(%rax)
   13ce9:	8b 05 3d d3 00 00    	mov    0xd33d(%rip),%eax        # 2102c <g_3+0x4>
   13cef:	48 98                	cltq   
   13cf1:	4c 89 ee             	mov    %r13,%rsi
   13cf4:	48 89 c7             	mov    %rax,%rdi
   13cf7:	e8 4f 63 ff ff       	callq  a04b <safe_sub_func_uint64_t_u_u>
   13cfc:	44 31 f8             	xor    %r15d,%eax
   13cff:	f7 d0                	not    %eax
   13d01:	0f be c0             	movsbl %al,%eax
   13d04:	be 01 00 00 00       	mov    $0x1,%esi
   13d09:	89 c7                	mov    %eax,%edi
   13d0b:	e8 5c 56 ff ff       	callq  936c <safe_rshift_func_int8_t_s_u>
   13d10:	66 98                	cbtw   
   13d12:	0f b7 c0             	movzwl %ax,%eax
   13d15:	be 0e 00 00 00       	mov    $0xe,%esi
   13d1a:	89 c7                	mov    %eax,%edi
   13d1c:	e8 e5 60 ff ff       	callq  9e06 <safe_lshift_func_uint16_t_u_u>
   13d21:	48 8b 05 d8 39 01 00 	mov    0x139d8(%rip),%rax        # 27700 <g_106>
   13d28:	8b 00                	mov    (%rax),%eax
   13d2a:	83 f0 01             	xor    $0x1,%eax
   13d2d:	98                   	cwtl   
   13d2e:	44 89 e6             	mov    %r12d,%esi
   13d31:	89 c7                	mov    %eax,%edi
   13d33:	e8 1d 57 ff ff       	callq  9455 <safe_div_func_int16_t_s_s>
   13d38:	88 05 de d3 00 00    	mov    %al,0xd3de(%rip)        # 2111c <g_108>
   13d3e:	44 89 f2             	mov    %r14d,%edx
   13d41:	48 89 de             	mov    %rbx,%rsi
   13d44:	bf 01 00 00 00       	mov    $0x1,%edi
   13d49:	e8 4b 02 00 00       	callq  13f99 <func_80>
   13d4e:	48 8b 95 f8 fe ff ff 	mov    -0x108(%rbp),%rdx
   13d55:	48 89 02             	mov    %rax,(%rdx)
   13d58:	48 8b 85 e8 fe ff ff 	mov    -0x118(%rbp),%rax
   13d5f:	8b 00                	mov    (%rax),%eax
   13d61:	0f b7 d8             	movzwl %ax,%ebx
   13d64:	48 8b 85 e8 fe ff ff 	mov    -0x118(%rbp),%rax
   13d6b:	44 8b 20             	mov    (%rax),%r12d
   13d6e:	8b 05 04 d4 00 00    	mov    0xd404(%rip),%eax        # 21178 <g_183+0x18>
   13d74:	c1 e0 05             	shl    $0x5,%eax
   13d77:	c1 f8 0d             	sar    $0xd,%eax
   13d7a:	89 c1                	mov    %eax,%ecx
   13d7c:	8b 05 7e da 00 00    	mov    0xda7e(%rip),%eax        # 21800 <g_445+0x10>
   13d82:	c1 e0 0d             	shl    $0xd,%eax
   13d85:	c1 f8 0d             	sar    $0xd,%eax
   13d88:	89 c2                	mov    %eax,%edx
   13d8a:	48 8b 85 d8 fe ff ff 	mov    -0x128(%rbp),%rax
   13d91:	8b 00                	mov    (%rax),%eax
   13d93:	21 d0                	and    %edx,%eax
   13d95:	c1 e0 0d             	shl    $0xd,%eax
   13d98:	c1 f8 0d             	sar    $0xd,%eax
   13d9b:	25 ff ff 07 00       	and    $0x7ffff,%eax
   13da0:	89 c2                	mov    %eax,%edx
   13da2:	8b 05 58 da 00 00    	mov    0xda58(%rip),%eax        # 21800 <g_445+0x10>
   13da8:	25 00 00 f8 ff       	and    $0xfff80000,%eax
   13dad:	09 d0                	or     %edx,%eax
   13daf:	89 05 4b da 00 00    	mov    %eax,0xda4b(%rip)        # 21800 <g_445+0x10>
   13db5:	66 83 bd e2 fe ff ff 	cmpw   $0xffff,-0x11e(%rbp)
   13dbc:	ff 
   13dbd:	89 ce                	mov    %ecx,%esi
   13dbf:	bf ff 00 00 00       	mov    $0xff,%edi
   13dc4:	e8 83 5e ff ff       	callq  9c4c <safe_lshift_func_uint8_t_u_u>
   13dc9:	48 8b 85 d8 fe ff ff 	mov    -0x128(%rbp),%rax
   13dd0:	8b 00                	mov    (%rax),%eax
   13dd2:	85 c0                	test   %eax,%eax
   13dd4:	75 0f                	jne    13de5 <func_78+0x313>
   13dd6:	8b 05 cc e6 00 00    	mov    0xe6cc(%rip),%eax        # 224a8 <g_498+0xb48>
   13ddc:	25 ff ff ff 1f       	and    $0x1fffffff,%eax
   13de1:	85 c0                	test   %eax,%eax
   13de3:	74 07                	je     13dec <func_78+0x31a>
   13de5:	b8 01 00 00 00       	mov    $0x1,%eax
   13dea:	eb 05                	jmp    13df1 <func_78+0x31f>
   13dec:	b8 00 00 00 00       	mov    $0x0,%eax
   13df1:	44 39 e0             	cmp    %r12d,%eax
   13df4:	0f 9e c0             	setle  %al
   13df7:	0f b6 d0             	movzbl %al,%edx
   13dfa:	48 8b 85 08 ff ff ff 	mov    -0xf8(%rbp),%rax
   13e01:	66 89 10             	mov    %dx,(%rax)
   13e04:	48 8b 85 08 ff ff ff 	mov    -0xf8(%rbp),%rax
   13e0b:	0f b7 00             	movzwl (%rax),%eax
   13e0e:	0f b7 c0             	movzwl %ax,%eax
   13e11:	89 de                	mov    %ebx,%esi
   13e13:	89 c7                	mov    %eax,%edi
   13e15:	e8 05 5f ff ff       	callq  9d1f <safe_sub_func_uint16_t_u_u>
   13e1a:	48 8b 85 00 ff ff ff 	mov    -0x100(%rbp),%rax
   13e21:	48 8b 00             	mov    (%rax),%rax
   13e24:	48 8d 50 ff          	lea    -0x1(%rax),%rdx
   13e28:	48 8b 85 00 ff ff ff 	mov    -0x100(%rbp),%rax
   13e2f:	48 89 10             	mov    %rdx,(%rax)
   13e32:	48 8b 05 c7 38 01 00 	mov    0x138c7(%rip),%rax        # 27700 <g_106>
   13e39:	8b 00                	mov    (%rax),%eax
   13e3b:	3d b7 3c 38 6d       	cmp    $0x6d383cb7,%eax
   13e40:	0f 9f c0             	setg   %al
   13e43:	0f b6 c0             	movzbl %al,%eax
   13e46:	be 07 00 00 00       	mov    $0x7,%esi
   13e4b:	89 c7                	mov    %eax,%edi
   13e4d:	e8 fa 5d ff ff       	callq  9c4c <safe_lshift_func_uint8_t_u_u>
   13e52:	0f b6 c0             	movzbl %al,%eax
   13e55:	be 01 00 00 00       	mov    $0x1,%esi
   13e5a:	48 89 c7             	mov    %rax,%rdi
   13e5d:	e8 e9 61 ff ff       	callq  a04b <safe_sub_func_uint64_t_u_u>
   13e62:	0f b6 05 b2 d7 00 00 	movzbl 0xd7b2(%rip),%eax        # 2161b <g_441+0xb>
   13e69:	83 e0 0c             	and    $0xc,%eax
   13e6c:	84 c0                	test   %al,%al
   13e6e:	74 07                	je     13e77 <func_78+0x3a5>
   13e70:	ba 01 00 00 00       	mov    $0x1,%edx
   13e75:	eb 05                	jmp    13e7c <func_78+0x3aa>
   13e77:	ba 00 00 00 00       	mov    $0x0,%edx
   13e7c:	0f b6 05 99 d2 00 00 	movzbl 0xd299(%rip),%eax        # 2111c <g_108>
   13e83:	0f b6 c0             	movzbl %al,%eax
   13e86:	39 c2                	cmp    %eax,%edx
   13e88:	0f 9f c0             	setg   %al
   13e8b:	0f b6 d0             	movzbl %al,%edx
   13e8e:	0f b6 05 1a e9 00 00 	movzbl 0xe91a(%rip),%eax        # 227af <g_505+0xf>
   13e95:	c1 e0 03             	shl    $0x3,%eax
   13e98:	c0 f8 07             	sar    $0x7,%al
   13e9b:	0f be c0             	movsbl %al,%eax
   13e9e:	39 c2                	cmp    %eax,%edx
   13ea0:	0f 94 c0             	sete   %al
   13ea3:	89 c2                	mov    %eax,%edx
   13ea5:	48 8b 85 10 ff ff ff 	mov    -0xf0(%rbp),%rax
   13eac:	88 10                	mov    %dl,(%rax)
   13eae:	48 8b 85 10 ff ff ff 	mov    -0xf0(%rbp),%rax
   13eb5:	0f b6 10             	movzbl (%rax),%edx
   13eb8:	48 8b 85 18 ff ff ff 	mov    -0xe8(%rbp),%rax
   13ebf:	88 10                	mov    %dl,(%rax)
   13ec1:	48 8b 85 18 ff ff ff 	mov    -0xe8(%rbp),%rax
   13ec8:	0f b6 00             	movzbl (%rax),%eax
   13ecb:	88 05 47 d3 00 00    	mov    %al,0xd347(%rip)        # 21218 <g_185>
   13ed1:	0f b6 05 40 d3 00 00 	movzbl 0xd340(%rip),%eax        # 21218 <g_185>
   13ed8:	3c 01                	cmp    $0x1,%al
   13eda:	0f 97 c0             	seta   %al
   13edd:	0f b6 c0             	movzbl %al,%eax
   13ee0:	48 98                	cltq   
   13ee2:	48 09 85 20 ff ff ff 	or     %rax,-0xe0(%rbp)
   13ee9:	0f b6 05 2b d7 00 00 	movzbl 0xd72b(%rip),%eax        # 2161b <g_441+0xb>
   13ef0:	c1 e0 04             	shl    $0x4,%eax
   13ef3:	c0 f8 06             	sar    $0x6,%al
   13ef6:	48 0f be d0          	movsbq %al,%rdx
   13efa:	48 83 bd d8 fe ff ff 	cmpq   $0x0,-0x128(%rbp)
   13f01:	00 
   13f02:	0f 94 c0             	sete   %al
   13f05:	0f b6 c0             	movzbl %al,%eax
   13f08:	48 89 d6             	mov    %rdx,%rsi
   13f0b:	48 89 c7             	mov    %rax,%rdi
   13f0e:	e8 38 61 ff ff       	callq  a04b <safe_sub_func_uint64_t_u_u>
   13f13:	0f be d0             	movsbl %al,%edx
   13f16:	48 8b 05 a3 38 01 00 	mov    0x138a3(%rip),%rax        # 277c0 <g_257>
   13f1d:	0f b6 00             	movzbl (%rax),%eax
   13f20:	0f be c0             	movsbl %al,%eax
   13f23:	89 d6                	mov    %edx,%esi
   13f25:	89 c7                	mov    %eax,%edi
   13f27:	e8 3e 53 ff ff       	callq  926a <safe_div_func_int8_t_s_s>
   13f2c:	48 c7 85 d8 fe ff ff 	movq   $0x0,-0x128(%rbp)
   13f33:	00 00 00 00 
   13f37:	48 8b 05 0a e9 00 00 	mov    0xe90a(%rip),%rax        # 22848 <g_656>
   13f3e:	48 83 e8 01          	sub    $0x1,%rax
   13f42:	48 89 05 ff e8 00 00 	mov    %rax,0xe8ff(%rip)        # 22848 <g_656>
   13f49:	48 8b 85 38 ff ff ff 	mov    -0xc8(%rbp),%rax
   13f50:	48 89 85 44 ff ff ff 	mov    %rax,-0xbc(%rbp)
   13f57:	8b 85 40 ff ff ff    	mov    -0xc0(%rbp),%eax
   13f5d:	89 85 4c ff ff ff    	mov    %eax,-0xb4(%rbp)
   13f63:	48 8b 85 44 ff ff ff 	mov    -0xbc(%rbp),%rax
   13f6a:	8b 8d 4c ff ff ff    	mov    -0xb4(%rbp),%ecx
   13f70:	48 89 ca             	mov    %rcx,%rdx
   13f73:	48 8b 5d c8          	mov    -0x38(%rbp),%rbx
   13f77:	64 48 33 1c 25 28 00 	xor    %fs:0x28,%rbx
   13f7e:	00 00 
   13f80:	74 05                	je     13f87 <func_78+0x4b5>
   13f82:	e8 e9 50 ff ff       	callq  9070 <__stack_chk_fail@plt>
   13f87:	48 81 c4 18 01 00 00 	add    $0x118,%rsp
   13f8e:	5b                   	pop    %rbx
   13f8f:	41 5c                	pop    %r12
   13f91:	41 5d                	pop    %r13
   13f93:	41 5e                	pop    %r14
   13f95:	41 5f                	pop    %r15
   13f97:	5d                   	pop    %rbp
   13f98:	c3                   	retq   

0000000000013f99 <func_80>:
   13f99:	f3 0f 1e fa          	endbr64 
   13f9d:	55                   	push   %rbp
   13f9e:	48 89 e5             	mov    %rsp,%rbp
   13fa1:	53                   	push   %rbx
   13fa2:	48 81 ec 00 10 00 00 	sub    $0x1000,%rsp
   13fa9:	48 83 0c 24 00       	orq    $0x0,(%rsp)
   13fae:	48 81 ec 58 08 00 00 	sub    $0x858,%rsp
   13fb5:	89 f8                	mov    %edi,%eax
   13fb7:	48 89 b5 a0 e7 ff ff 	mov    %rsi,-0x1860(%rbp)
   13fbe:	89 95 a8 e7 ff ff    	mov    %edx,-0x1858(%rbp)
   13fc4:	88 85 ac e7 ff ff    	mov    %al,-0x1854(%rbp)
   13fca:	64 48 8b 04 25 28 00 	mov    %fs:0x28,%rax
   13fd1:	00 00 
   13fd3:	48 89 45 e8          	mov    %rax,-0x18(%rbp)
   13fd7:	31 c0                	xor    %eax,%eax
   13fd9:	48 c7 85 20 e8 ff ff 	movq   $0x0,-0x17e0(%rbp)
   13fe0:	00 00 00 00 
   13fe4:	c7 85 c0 e7 ff ff 08 	movl   $0x8,-0x1840(%rbp)
   13feb:	00 00 00 
   13fee:	48 c7 85 f8 e7 ff ff 	movq   $0x0,-0x1808(%rbp)
   13ff5:	00 00 00 00 
   13ff9:	48 8d 85 c0 e7 ff ff 	lea    -0x1840(%rbp),%rax
   14000:	48 89 85 28 e8 ff ff 	mov    %rax,-0x17d8(%rbp)
   14007:	48 8d 05 0a d2 00 00 	lea    0xd20a(%rip),%rax        # 21218 <g_185>
   1400e:	48 89 85 00 e8 ff ff 	mov    %rax,-0x1800(%rbp)
   14015:	48 8d 85 40 f1 ff ff 	lea    -0xec0(%rbp),%rax
   1401c:	48 8d 15 7d 2d 01 00 	lea    0x12d7d(%rip),%rdx        # 26da0 <g_2104+0x1d20>
   14023:	b9 d8 00 00 00       	mov    $0xd8,%ecx
   14028:	48 89 c7             	mov    %rax,%rdi
   1402b:	48 89 d6             	mov    %rdx,%rsi
   1402e:	f3 48 a5             	rep movsq %ds:(%rsi),%es:(%rdi)
   14031:	48 8d 05 e0 d1 00 00 	lea    0xd1e0(%rip),%rax        # 21218 <g_185>
   14038:	48 89 85 30 e8 ff ff 	mov    %rax,-0x17d0(%rbp)
   1403f:	c7 85 dc e7 ff ff 01 	movl   $0xd5e18301,-0x1824(%rbp)
   14046:	83 e1 d5 
   14049:	c7 85 20 e9 ff ff ed 	movl   $0x87f5bced,-0x16e0(%rbp)
   14050:	bc f5 87 
   14053:	c7 85 24 e9 ff ff ed 	movl   $0x87f5bced,-0x16dc(%rbp)
   1405a:	bc f5 87 
   1405d:	c7 85 28 e9 ff ff c7 	movl   $0x45269ac7,-0x16d8(%rbp)
   14064:	9a 26 45 
   14067:	c7 85 2c e9 ff ff ed 	movl   $0x87f5bced,-0x16d4(%rbp)
   1406e:	bc f5 87 
   14071:	c7 85 30 e9 ff ff ed 	movl   $0x87f5bced,-0x16d0(%rbp)
   14078:	bc f5 87 
   1407b:	c7 85 34 e9 ff ff c7 	movl   $0x45269ac7,-0x16cc(%rbp)
   14082:	9a 26 45 
   14085:	48 c7 85 38 e8 ff ff 	movq   $0x0,-0x17c8(%rbp)
   1408c:	00 00 00 00 
   14090:	c6 85 b6 e7 ff ff fd 	movb   $0xfd,-0x184a(%rbp)
   14097:	c7 85 e0 e7 ff ff d4 	movl   $0xc541a6d4,-0x1820(%rbp)
   1409e:	a6 41 c5 
   140a1:	48 c7 85 40 e8 ff ff 	movq   $0x1,-0x17c0(%rbp)
   140a8:	01 00 00 00 
   140ac:	c7 85 e4 e7 ff ff 33 	movl   $0x75aa7433,-0x181c(%rbp)
   140b3:	74 aa 75 
   140b6:	48 c7 85 48 e8 ff ff 	movq   $0x0,-0x17b8(%rbp)
   140bd:	00 00 00 00 
   140c1:	48 8d 05 5a d0 00 00 	lea    0xd05a(%rip),%rax        # 21122 <g_117>
   140c8:	48 89 85 50 e8 ff ff 	mov    %rax,-0x17b0(%rbp)
   140cf:	48 b8 0e 68 4b 49 f4 	movabs $0xf19d98f4494b680e,%rax
   140d6:	98 9d f1 
   140d9:	48 89 85 58 e8 ff ff 	mov    %rax,-0x17a8(%rbp)
   140e0:	66 c7 85 be e7 ff ff 	movw   $0x23e2,-0x1842(%rbp)
   140e7:	e2 23 
   140e9:	48 8d 85 f8 e7 ff ff 	lea    -0x1808(%rbp),%rax
   140f0:	48 89 85 60 e8 ff ff 	mov    %rax,-0x17a0(%rbp)
   140f7:	48 8d 05 6a 36 01 00 	lea    0x1366a(%rip),%rax        # 27768 <g_125>
   140fe:	48 89 85 40 ec ff ff 	mov    %rax,-0x13c0(%rbp)
   14105:	48 8d 05 5c 36 01 00 	lea    0x1365c(%rip),%rax        # 27768 <g_125>
   1410c:	48 89 85 48 ec ff ff 	mov    %rax,-0x13b8(%rbp)
   14113:	48 8d 85 f8 e7 ff ff 	lea    -0x1808(%rbp),%rax
   1411a:	48 89 85 50 ec ff ff 	mov    %rax,-0x13b0(%rbp)
   14121:	48 c7 85 58 ec ff ff 	movq   $0x0,-0x13a8(%rbp)
   14128:	00 00 00 00 
   1412c:	48 8d 05 35 36 01 00 	lea    0x13635(%rip),%rax        # 27768 <g_125>
   14133:	48 89 85 60 ec ff ff 	mov    %rax,-0x13a0(%rbp)
   1413a:	48 8d 05 27 36 01 00 	lea    0x13627(%rip),%rax        # 27768 <g_125>
   14141:	48 89 85 68 ec ff ff 	mov    %rax,-0x1398(%rbp)
   14148:	48 8d 85 f8 e7 ff ff 	lea    -0x1808(%rbp),%rax
   1414f:	48 89 85 70 ec ff ff 	mov    %rax,-0x1390(%rbp)
   14156:	48 8d 85 f8 e7 ff ff 	lea    -0x1808(%rbp),%rax
   1415d:	48 89 85 78 ec ff ff 	mov    %rax,-0x1388(%rbp)
   14164:	48 c7 85 80 ec ff ff 	movq   $0x0,-0x1380(%rbp)
   1416b:	00 00 00 00 
   1416f:	48 8d 05 f2 35 01 00 	lea    0x135f2(%rip),%rax        # 27768 <g_125>
   14176:	48 89 85 88 ec ff ff 	mov    %rax,-0x1378(%rbp)
   1417d:	48 8d 85 f8 e7 ff ff 	lea    -0x1808(%rbp),%rax
   14184:	48 89 85 90 ec ff ff 	mov    %rax,-0x1370(%rbp)
   1418b:	48 8d 05 d6 35 01 00 	lea    0x135d6(%rip),%rax        # 27768 <g_125>
   14192:	48 89 85 98 ec ff ff 	mov    %rax,-0x1368(%rbp)
   14199:	48 8d 05 c8 35 01 00 	lea    0x135c8(%rip),%rax        # 27768 <g_125>
   141a0:	48 89 85 a0 ec ff ff 	mov    %rax,-0x1360(%rbp)
   141a7:	48 8d 85 f8 e7 ff ff 	lea    -0x1808(%rbp),%rax
   141ae:	48 89 85 a8 ec ff ff 	mov    %rax,-0x1358(%rbp)
   141b5:	48 8d 05 ac 35 01 00 	lea    0x135ac(%rip),%rax        # 27768 <g_125>
   141bc:	48 89 85 b0 ec ff ff 	mov    %rax,-0x1350(%rbp)
   141c3:	48 c7 85 b8 ec ff ff 	movq   $0x0,-0x1348(%rbp)
   141ca:	00 00 00 00 
   141ce:	48 8d 05 93 35 01 00 	lea    0x13593(%rip),%rax        # 27768 <g_125>
   141d5:	48 89 85 c0 ec ff ff 	mov    %rax,-0x1340(%rbp)
   141dc:	48 8d 85 f8 e7 ff ff 	lea    -0x1808(%rbp),%rax
   141e3:	48 89 85 c8 ec ff ff 	mov    %rax,-0x1338(%rbp)
   141ea:	48 c7 85 d0 ec ff ff 	movq   $0x0,-0x1330(%rbp)
   141f1:	00 00 00 00 
   141f5:	48 8d 05 6c 35 01 00 	lea    0x1356c(%rip),%rax        # 27768 <g_125>
   141fc:	48 89 85 d8 ec ff ff 	mov    %rax,-0x1328(%rbp)
   14203:	48 8d 85 f8 e7 ff ff 	lea    -0x1808(%rbp),%rax
   1420a:	48 89 85 e0 ec ff ff 	mov    %rax,-0x1320(%rbp)
   14211:	48 c7 85 e8 ec ff ff 	movq   $0x0,-0x1318(%rbp)
   14218:	00 00 00 00 
   1421c:	48 8d 85 f8 e7 ff ff 	lea    -0x1808(%rbp),%rax
   14223:	48 89 85 f0 ec ff ff 	mov    %rax,-0x1310(%rbp)
   1422a:	48 8d 05 37 35 01 00 	lea    0x13537(%rip),%rax        # 27768 <g_125>
   14231:	48 89 85 f8 ec ff ff 	mov    %rax,-0x1308(%rbp)
   14238:	48 c7 85 00 ed ff ff 	movq   $0x0,-0x1300(%rbp)
   1423f:	00 00 00 00 
   14243:	48 8d 85 f8 e7 ff ff 	lea    -0x1808(%rbp),%rax
   1424a:	48 89 85 08 ed ff ff 	mov    %rax,-0x12f8(%rbp)
   14251:	48 8d 85 f8 e7 ff ff 	lea    -0x1808(%rbp),%rax
   14258:	48 89 85 10 ed ff ff 	mov    %rax,-0x12f0(%rbp)
   1425f:	48 8d 85 f8 e7 ff ff 	lea    -0x1808(%rbp),%rax
   14266:	48 89 85 18 ed ff ff 	mov    %rax,-0x12e8(%rbp)
   1426d:	48 8d 05 f4 34 01 00 	lea    0x134f4(%rip),%rax        # 27768 <g_125>
   14274:	48 89 85 20 ed ff ff 	mov    %rax,-0x12e0(%rbp)
   1427b:	48 c7 85 28 ed ff ff 	movq   $0x0,-0x12d8(%rbp)
   14282:	00 00 00 00 
   14286:	48 8d 85 f8 e7 ff ff 	lea    -0x1808(%rbp),%rax
   1428d:	48 89 85 30 ed ff ff 	mov    %rax,-0x12d0(%rbp)
   14294:	48 c7 85 38 ed ff ff 	movq   $0x0,-0x12c8(%rbp)
   1429b:	00 00 00 00 
   1429f:	48 8d 85 f8 e7 ff ff 	lea    -0x1808(%rbp),%rax
   142a6:	48 89 85 40 ed ff ff 	mov    %rax,-0x12c0(%rbp)
   142ad:	48 8d 85 f8 e7 ff ff 	lea    -0x1808(%rbp),%rax
   142b4:	48 89 85 48 ed ff ff 	mov    %rax,-0x12b8(%rbp)
   142bb:	48 8d 85 f8 e7 ff ff 	lea    -0x1808(%rbp),%rax
   142c2:	48 89 85 50 ed ff ff 	mov    %rax,-0x12b0(%rbp)
   142c9:	48 c7 85 58 ed ff ff 	movq   $0x0,-0x12a8(%rbp)
   142d0:	00 00 00 00 
   142d4:	48 8d 85 f8 e7 ff ff 	lea    -0x1808(%rbp),%rax
   142db:	48 89 85 60 ed ff ff 	mov    %rax,-0x12a0(%rbp)
   142e2:	48 8d 85 f8 e7 ff ff 	lea    -0x1808(%rbp),%rax
   142e9:	48 89 85 68 ed ff ff 	mov    %rax,-0x1298(%rbp)
   142f0:	48 8d 85 f8 e7 ff ff 	lea    -0x1808(%rbp),%rax
   142f7:	48 89 85 70 ed ff ff 	mov    %rax,-0x1290(%rbp)
   142fe:	48 8d 85 f8 e7 ff ff 	lea    -0x1808(%rbp),%rax
   14305:	48 89 85 78 ed ff ff 	mov    %rax,-0x1288(%rbp)
   1430c:	48 c7 85 80 ed ff ff 	movq   $0x0,-0x1280(%rbp)
   14313:	00 00 00 00 
   14317:	48 8d 05 4a 34 01 00 	lea    0x1344a(%rip),%rax        # 27768 <g_125>
   1431e:	48 89 85 88 ed ff ff 	mov    %rax,-0x1278(%rbp)
   14325:	48 8d 85 f8 e7 ff ff 	lea    -0x1808(%rbp),%rax
   1432c:	48 89 85 90 ed ff ff 	mov    %rax,-0x1270(%rbp)
   14333:	48 8d 85 f8 e7 ff ff 	lea    -0x1808(%rbp),%rax
   1433a:	48 89 85 98 ed ff ff 	mov    %rax,-0x1268(%rbp)
   14341:	48 8d 85 f8 e7 ff ff 	lea    -0x1808(%rbp),%rax
   14348:	48 89 85 a0 ed ff ff 	mov    %rax,-0x1260(%rbp)
   1434f:	48 8d 05 12 34 01 00 	lea    0x13412(%rip),%rax        # 27768 <g_125>
   14356:	48 89 85 a8 ed ff ff 	mov    %rax,-0x1258(%rbp)
   1435d:	48 8d 05 04 34 01 00 	lea    0x13404(%rip),%rax        # 27768 <g_125>
   14364:	48 89 85 b0 ed ff ff 	mov    %rax,-0x1250(%rbp)
   1436b:	48 8d 85 f8 e7 ff ff 	lea    -0x1808(%rbp),%rax
   14372:	48 89 85 b8 ed ff ff 	mov    %rax,-0x1248(%rbp)
   14379:	48 8d 85 f8 e7 ff ff 	lea    -0x1808(%rbp),%rax
   14380:	48 89 85 c0 ed ff ff 	mov    %rax,-0x1240(%rbp)
   14387:	48 8d 05 da 33 01 00 	lea    0x133da(%rip),%rax        # 27768 <g_125>
   1438e:	48 89 85 c8 ed ff ff 	mov    %rax,-0x1238(%rbp)
   14395:	48 8d 05 cc 33 01 00 	lea    0x133cc(%rip),%rax        # 27768 <g_125>
   1439c:	48 89 85 d0 ed ff ff 	mov    %rax,-0x1230(%rbp)
   143a3:	48 c7 85 d8 ed ff ff 	movq   $0x0,-0x1228(%rbp)
   143aa:	00 00 00 00 
   143ae:	48 8d 85 f8 e7 ff ff 	lea    -0x1808(%rbp),%rax
   143b5:	48 89 85 e0 ed ff ff 	mov    %rax,-0x1220(%rbp)
   143bc:	48 8d 85 f8 e7 ff ff 	lea    -0x1808(%rbp),%rax
   143c3:	48 89 85 e8 ed ff ff 	mov    %rax,-0x1218(%rbp)
   143ca:	48 8d 85 f8 e7 ff ff 	lea    -0x1808(%rbp),%rax
   143d1:	48 89 85 f0 ed ff ff 	mov    %rax,-0x1210(%rbp)
   143d8:	48 8d 85 f8 e7 ff ff 	lea    -0x1808(%rbp),%rax
   143df:	48 89 85 f8 ed ff ff 	mov    %rax,-0x1208(%rbp)
   143e6:	48 8d 85 f8 e7 ff ff 	lea    -0x1808(%rbp),%rax
   143ed:	48 89 85 00 ee ff ff 	mov    %rax,-0x1200(%rbp)
   143f4:	48 8d 05 6d 33 01 00 	lea    0x1336d(%rip),%rax        # 27768 <g_125>
   143fb:	48 89 85 08 ee ff ff 	mov    %rax,-0x11f8(%rbp)
   14402:	48 c7 85 10 ee ff ff 	movq   $0x0,-0x11f0(%rbp)
   14409:	00 00 00 00 
   1440d:	48 c7 85 18 ee ff ff 	movq   $0x0,-0x11e8(%rbp)
   14414:	00 00 00 00 
   14418:	48 8d 85 f8 e7 ff ff 	lea    -0x1808(%rbp),%rax
   1441f:	48 89 85 20 ee ff ff 	mov    %rax,-0x11e0(%rbp)
   14426:	48 8d 85 f8 e7 ff ff 	lea    -0x1808(%rbp),%rax
   1442d:	48 89 85 28 ee ff ff 	mov    %rax,-0x11d8(%rbp)
   14434:	48 c7 85 30 ee ff ff 	movq   $0x0,-0x11d0(%rbp)
   1443b:	00 00 00 00 
   1443f:	48 8d 85 f8 e7 ff ff 	lea    -0x1808(%rbp),%rax
   14446:	48 89 85 38 ee ff ff 	mov    %rax,-0x11c8(%rbp)
   1444d:	48 8d 05 14 33 01 00 	lea    0x13314(%rip),%rax        # 27768 <g_125>
   14454:	48 89 85 40 ee ff ff 	mov    %rax,-0x11c0(%rbp)
   1445b:	48 c7 85 48 ee ff ff 	movq   $0x0,-0x11b8(%rbp)
   14462:	00 00 00 00 
   14466:	48 8d 85 f8 e7 ff ff 	lea    -0x1808(%rbp),%rax
   1446d:	48 89 85 50 ee ff ff 	mov    %rax,-0x11b0(%rbp)
   14474:	48 8d 05 ed 32 01 00 	lea    0x132ed(%rip),%rax        # 27768 <g_125>
   1447b:	48 89 85 58 ee ff ff 	mov    %rax,-0x11a8(%rbp)
   14482:	48 8d 85 f8 e7 ff ff 	lea    -0x1808(%rbp),%rax
   14489:	48 89 85 60 ee ff ff 	mov    %rax,-0x11a0(%rbp)
   14490:	48 8d 05 d1 32 01 00 	lea    0x132d1(%rip),%rax        # 27768 <g_125>
   14497:	48 89 85 68 ee ff ff 	mov    %rax,-0x1198(%rbp)
   1449e:	48 8d 85 f8 e7 ff ff 	lea    -0x1808(%rbp),%rax
   144a5:	48 89 85 70 ee ff ff 	mov    %rax,-0x1190(%rbp)
   144ac:	48 c7 85 78 ee ff ff 	movq   $0x0,-0x1188(%rbp)
   144b3:	00 00 00 00 
   144b7:	48 8d 85 f8 e7 ff ff 	lea    -0x1808(%rbp),%rax
   144be:	48 89 85 80 ee ff ff 	mov    %rax,-0x1180(%rbp)
   144c5:	48 8d 85 f8 e7 ff ff 	lea    -0x1808(%rbp),%rax
   144cc:	48 89 85 88 ee ff ff 	mov    %rax,-0x1178(%rbp)
   144d3:	48 8d 05 8e 32 01 00 	lea    0x1328e(%rip),%rax        # 27768 <g_125>
   144da:	48 89 85 90 ee ff ff 	mov    %rax,-0x1170(%rbp)
   144e1:	48 8d 85 f8 e7 ff ff 	lea    -0x1808(%rbp),%rax
   144e8:	48 89 85 98 ee ff ff 	mov    %rax,-0x1168(%rbp)
   144ef:	48 8d 85 f8 e7 ff ff 	lea    -0x1808(%rbp),%rax
   144f6:	48 89 85 a0 ee ff ff 	mov    %rax,-0x1160(%rbp)
   144fd:	48 8d 85 f8 e7 ff ff 	lea    -0x1808(%rbp),%rax
   14504:	48 89 85 a8 ee ff ff 	mov    %rax,-0x1158(%rbp)
   1450b:	48 8d 05 56 32 01 00 	lea    0x13256(%rip),%rax        # 27768 <g_125>
   14512:	48 89 85 b0 ee ff ff 	mov    %rax,-0x1150(%rbp)
   14519:	48 8d 85 f8 e7 ff ff 	lea    -0x1808(%rbp),%rax
   14520:	48 89 85 b8 ee ff ff 	mov    %rax,-0x1148(%rbp)
   14527:	48 8d 85 f8 e7 ff ff 	lea    -0x1808(%rbp),%rax
   1452e:	48 89 85 c0 ee ff ff 	mov    %rax,-0x1140(%rbp)
   14535:	48 8d 85 f8 e7 ff ff 	lea    -0x1808(%rbp),%rax
   1453c:	48 89 85 c8 ee ff ff 	mov    %rax,-0x1138(%rbp)
   14543:	48 8d 05 1e 32 01 00 	lea    0x1321e(%rip),%rax        # 27768 <g_125>
   1454a:	48 89 85 d0 ee ff ff 	mov    %rax,-0x1130(%rbp)
   14551:	48 8d 85 f8 e7 ff ff 	lea    -0x1808(%rbp),%rax
   14558:	48 89 85 d8 ee ff ff 	mov    %rax,-0x1128(%rbp)
   1455f:	48 8d 85 f8 e7 ff ff 	lea    -0x1808(%rbp),%rax
   14566:	48 89 85 e0 ee ff ff 	mov    %rax,-0x1120(%rbp)
   1456d:	48 8d 85 f8 e7 ff ff 	lea    -0x1808(%rbp),%rax
   14574:	48 89 85 e8 ee ff ff 	mov    %rax,-0x1118(%rbp)
   1457b:	48 8d 05 e6 31 01 00 	lea    0x131e6(%rip),%rax        # 27768 <g_125>
   14582:	48 89 85 f0 ee ff ff 	mov    %rax,-0x1110(%rbp)
   14589:	48 8d 85 f8 e7 ff ff 	lea    -0x1808(%rbp),%rax
   14590:	48 89 85 f8 ee ff ff 	mov    %rax,-0x1108(%rbp)
   14597:	48 c7 85 00 ef ff ff 	movq   $0x0,-0x1100(%rbp)
   1459e:	00 00 00 00 
   145a2:	48 8d 85 f8 e7 ff ff 	lea    -0x1808(%rbp),%rax
   145a9:	48 89 85 08 ef ff ff 	mov    %rax,-0x10f8(%rbp)
   145b0:	48 8d 05 b1 31 01 00 	lea    0x131b1(%rip),%rax        # 27768 <g_125>
   145b7:	48 89 85 10 ef ff ff 	mov    %rax,-0x10f0(%rbp)
   145be:	48 8d 05 a3 31 01 00 	lea    0x131a3(%rip),%rax        # 27768 <g_125>
   145c5:	48 89 85 18 ef ff ff 	mov    %rax,-0x10e8(%rbp)
   145cc:	48 8d 85 f8 e7 ff ff 	lea    -0x1808(%rbp),%rax
   145d3:	48 89 85 20 ef ff ff 	mov    %rax,-0x10e0(%rbp)
   145da:	48 c7 85 28 ef ff ff 	movq   $0x0,-0x10d8(%rbp)
   145e1:	00 00 00 00 
   145e5:	48 8d 05 7c 31 01 00 	lea    0x1317c(%rip),%rax        # 27768 <g_125>
   145ec:	48 89 85 30 ef ff ff 	mov    %rax,-0x10d0(%rbp)
   145f3:	48 8d 05 6e 31 01 00 	lea    0x1316e(%rip),%rax        # 27768 <g_125>
   145fa:	48 89 85 38 ef ff ff 	mov    %rax,-0x10c8(%rbp)
   14601:	48 8d 85 f8 e7 ff ff 	lea    -0x1808(%rbp),%rax
   14608:	48 89 85 40 ef ff ff 	mov    %rax,-0x10c0(%rbp)
   1460f:	48 8d 05 52 31 01 00 	lea    0x13152(%rip),%rax        # 27768 <g_125>
   14616:	48 89 85 48 ef ff ff 	mov    %rax,-0x10b8(%rbp)
   1461d:	48 8d 05 44 31 01 00 	lea    0x13144(%rip),%rax        # 27768 <g_125>
   14624:	48 89 85 50 ef ff ff 	mov    %rax,-0x10b0(%rbp)
   1462b:	48 8d 85 f8 e7 ff ff 	lea    -0x1808(%rbp),%rax
   14632:	48 89 85 58 ef ff ff 	mov    %rax,-0x10a8(%rbp)
   14639:	48 c7 85 60 ef ff ff 	movq   $0x0,-0x10a0(%rbp)
   14640:	00 00 00 00 
   14644:	48 8d 85 f8 e7 ff ff 	lea    -0x1808(%rbp),%rax
   1464b:	48 89 85 68 ef ff ff 	mov    %rax,-0x1098(%rbp)
   14652:	48 8d 05 0f 31 01 00 	lea    0x1310f(%rip),%rax        # 27768 <g_125>
   14659:	48 89 85 70 ef ff ff 	mov    %rax,-0x1090(%rbp)
   14660:	48 c7 85 78 ef ff ff 	movq   $0x0,-0x1088(%rbp)
   14667:	00 00 00 00 
   1466b:	48 c7 85 80 ef ff ff 	movq   $0x0,-0x1080(%rbp)
   14672:	00 00 00 00 
   14676:	48 8d 85 f8 e7 ff ff 	lea    -0x1808(%rbp),%rax
   1467d:	48 89 85 88 ef ff ff 	mov    %rax,-0x1078(%rbp)
   14684:	48 8d 05 dd 30 01 00 	lea    0x130dd(%rip),%rax        # 27768 <g_125>
   1468b:	48 89 85 90 ef ff ff 	mov    %rax,-0x1070(%rbp)
   14692:	48 c7 85 98 ef ff ff 	movq   $0x0,-0x1068(%rbp)
   14699:	00 00 00 00 
   1469d:	48 c7 85 a0 ef ff ff 	movq   $0x0,-0x1060(%rbp)
   146a4:	00 00 00 00 
   146a8:	48 c7 85 a8 ef ff ff 	movq   $0x0,-0x1058(%rbp)
   146af:	00 00 00 00 
   146b3:	48 8d 85 f8 e7 ff ff 	lea    -0x1808(%rbp),%rax
   146ba:	48 89 85 b0 ef ff ff 	mov    %rax,-0x1050(%rbp)
   146c1:	48 8d 85 f8 e7 ff ff 	lea    -0x1808(%rbp),%rax
   146c8:	48 89 85 b8 ef ff ff 	mov    %rax,-0x1048(%rbp)
   146cf:	48 c7 85 c0 ef ff ff 	movq   $0x0,-0x1040(%rbp)
   146d6:	00 00 00 00 
   146da:	48 c7 85 c8 ef ff ff 	movq   $0x0,-0x1038(%rbp)
   146e1:	00 00 00 00 
   146e5:	48 8d 85 f8 e7 ff ff 	lea    -0x1808(%rbp),%rax
   146ec:	48 89 85 d0 ef ff ff 	mov    %rax,-0x1030(%rbp)
   146f3:	48 8d 05 6e 30 01 00 	lea    0x1306e(%rip),%rax        # 27768 <g_125>
   146fa:	48 89 85 d8 ef ff ff 	mov    %rax,-0x1028(%rbp)
   14701:	48 8d 85 f8 e7 ff ff 	lea    -0x1808(%rbp),%rax
   14708:	48 89 85 e0 ef ff ff 	mov    %rax,-0x1020(%rbp)
   1470f:	48 8d 85 f8 e7 ff ff 	lea    -0x1808(%rbp),%rax
   14716:	48 89 85 e8 ef ff ff 	mov    %rax,-0x1018(%rbp)
   1471d:	48 c7 85 f0 ef ff ff 	movq   $0x0,-0x1010(%rbp)
   14724:	00 00 00 00 
   14728:	48 c7 85 f8 ef ff ff 	movq   $0x0,-0x1008(%rbp)
   1472f:	00 00 00 00 
   14733:	48 c7 85 00 f0 ff ff 	movq   $0x0,-0x1000(%rbp)
   1473a:	00 00 00 00 
   1473e:	48 8d 05 23 30 01 00 	lea    0x13023(%rip),%rax        # 27768 <g_125>
   14745:	48 89 85 08 f0 ff ff 	mov    %rax,-0xff8(%rbp)
   1474c:	48 c7 85 10 f0 ff ff 	movq   $0x0,-0xff0(%rbp)
   14753:	00 00 00 00 
   14757:	48 8d 85 f8 e7 ff ff 	lea    -0x1808(%rbp),%rax
   1475e:	48 89 85 18 f0 ff ff 	mov    %rax,-0xfe8(%rbp)
   14765:	48 8d 05 fc 2f 01 00 	lea    0x12ffc(%rip),%rax        # 27768 <g_125>
   1476c:	48 89 85 20 f0 ff ff 	mov    %rax,-0xfe0(%rbp)
   14773:	48 8d 85 f8 e7 ff ff 	lea    -0x1808(%rbp),%rax
   1477a:	48 89 85 28 f0 ff ff 	mov    %rax,-0xfd8(%rbp)
   14781:	48 8d 85 f8 e7 ff ff 	lea    -0x1808(%rbp),%rax
   14788:	48 89 85 30 f0 ff ff 	mov    %rax,-0xfd0(%rbp)
   1478f:	48 8d 05 d2 2f 01 00 	lea    0x12fd2(%rip),%rax        # 27768 <g_125>
   14796:	48 89 85 38 f0 ff ff 	mov    %rax,-0xfc8(%rbp)
   1479d:	48 c7 85 40 f0 ff ff 	movq   $0x0,-0xfc0(%rbp)
   147a4:	00 00 00 00 
   147a8:	48 c7 85 48 f0 ff ff 	movq   $0x0,-0xfb8(%rbp)
   147af:	00 00 00 00 
   147b3:	48 8d 05 ae 2f 01 00 	lea    0x12fae(%rip),%rax        # 27768 <g_125>
   147ba:	48 89 85 50 f0 ff ff 	mov    %rax,-0xfb0(%rbp)
   147c1:	48 8d 85 f8 e7 ff ff 	lea    -0x1808(%rbp),%rax
   147c8:	48 89 85 58 f0 ff ff 	mov    %rax,-0xfa8(%rbp)
   147cf:	48 8d 05 92 2f 01 00 	lea    0x12f92(%rip),%rax        # 27768 <g_125>
   147d6:	48 89 85 60 f0 ff ff 	mov    %rax,-0xfa0(%rbp)
   147dd:	48 8d 05 84 2f 01 00 	lea    0x12f84(%rip),%rax        # 27768 <g_125>
   147e4:	48 89 85 68 f0 ff ff 	mov    %rax,-0xf98(%rbp)
   147eb:	48 8d 05 76 2f 01 00 	lea    0x12f76(%rip),%rax        # 27768 <g_125>
   147f2:	48 89 85 70 f0 ff ff 	mov    %rax,-0xf90(%rbp)
   147f9:	48 c7 85 78 f0 ff ff 	movq   $0x0,-0xf88(%rbp)
   14800:	00 00 00 00 
   14804:	48 8d 85 f8 e7 ff ff 	lea    -0x1808(%rbp),%rax
   1480b:	48 89 85 80 f0 ff ff 	mov    %rax,-0xf80(%rbp)
   14812:	48 8d 85 f8 e7 ff ff 	lea    -0x1808(%rbp),%rax
   14819:	48 89 85 88 f0 ff ff 	mov    %rax,-0xf78(%rbp)
   14820:	48 8d 85 f8 e7 ff ff 	lea    -0x1808(%rbp),%rax
   14827:	48 89 85 90 f0 ff ff 	mov    %rax,-0xf70(%rbp)
   1482e:	48 8d 85 f8 e7 ff ff 	lea    -0x1808(%rbp),%rax
   14835:	48 89 85 98 f0 ff ff 	mov    %rax,-0xf68(%rbp)
   1483c:	48 c7 85 a0 f0 ff ff 	movq   $0x0,-0xf60(%rbp)
   14843:	00 00 00 00 
   14847:	48 c7 85 a8 f0 ff ff 	movq   $0x0,-0xf58(%rbp)
   1484e:	00 00 00 00 
   14852:	48 8d 85 f8 e7 ff ff 	lea    -0x1808(%rbp),%rax
   14859:	48 89 85 b0 f0 ff ff 	mov    %rax,-0xf50(%rbp)
   14860:	48 8d 85 f8 e7 ff ff 	lea    -0x1808(%rbp),%rax
   14867:	48 89 85 b8 f0 ff ff 	mov    %rax,-0xf48(%rbp)
   1486e:	48 8d 85 f8 e7 ff ff 	lea    -0x1808(%rbp),%rax
   14875:	48 89 85 c0 f0 ff ff 	mov    %rax,-0xf40(%rbp)
   1487c:	48 8d 85 f8 e7 ff ff 	lea    -0x1808(%rbp),%rax
   14883:	48 89 85 c8 f0 ff ff 	mov    %rax,-0xf38(%rbp)
   1488a:	48 8d 85 f8 e7 ff ff 	lea    -0x1808(%rbp),%rax
   14891:	48 89 85 d0 f0 ff ff 	mov    %rax,-0xf30(%rbp)
   14898:	48 8d 05 c9 2e 01 00 	lea    0x12ec9(%rip),%rax        # 27768 <g_125>
   1489f:	48 89 85 d8 f0 ff ff 	mov    %rax,-0xf28(%rbp)
   148a6:	48 8d 05 bb 2e 01 00 	lea    0x12ebb(%rip),%rax        # 27768 <g_125>
   148ad:	48 89 85 e0 f0 ff ff 	mov    %rax,-0xf20(%rbp)
   148b4:	48 8d 85 f8 e7 ff ff 	lea    -0x1808(%rbp),%rax
   148bb:	48 89 85 e8 f0 ff ff 	mov    %rax,-0xf18(%rbp)
   148c2:	48 c7 85 f0 f0 ff ff 	movq   $0x0,-0xf10(%rbp)
   148c9:	00 00 00 00 
   148cd:	48 c7 85 f8 f0 ff ff 	movq   $0x0,-0xf08(%rbp)
   148d4:	00 00 00 00 
   148d8:	48 8d 05 89 2e 01 00 	lea    0x12e89(%rip),%rax        # 27768 <g_125>
   148df:	48 89 85 00 f1 ff ff 	mov    %rax,-0xf00(%rbp)
   148e6:	48 c7 85 08 f1 ff ff 	movq   $0x0,-0xef8(%rbp)
   148ed:	00 00 00 00 
   148f1:	48 8d 85 f8 e7 ff ff 	lea    -0x1808(%rbp),%rax
   148f8:	48 89 85 10 f1 ff ff 	mov    %rax,-0xef0(%rbp)
   148ff:	48 8d 85 f8 e7 ff ff 	lea    -0x1808(%rbp),%rax
   14906:	48 89 85 18 f1 ff ff 	mov    %rax,-0xee8(%rbp)
   1490d:	48 8d 85 f8 e7 ff ff 	lea    -0x1808(%rbp),%rax
   14914:	48 89 85 20 f1 ff ff 	mov    %rax,-0xee0(%rbp)
   1491b:	48 8d 85 f8 e7 ff ff 	lea    -0x1808(%rbp),%rax
   14922:	48 89 85 28 f1 ff ff 	mov    %rax,-0xed8(%rbp)
   14929:	48 c7 85 30 f1 ff ff 	movq   $0x0,-0xed0(%rbp)
   14930:	00 00 00 00 
   14934:	48 c7 85 38 f1 ff ff 	movq   $0x0,-0xec8(%rbp)
   1493b:	00 00 00 00 
   1493f:	48 8d 85 40 ec ff ff 	lea    -0x13c0(%rbp),%rax
   14946:	48 05 f0 02 00 00    	add    $0x2f0,%rax
   1494c:	48 89 85 68 e8 ff ff 	mov    %rax,-0x1798(%rbp)
   14953:	48 8d 05 d6 de 00 00 	lea    0xded6(%rip),%rax        # 22830 <g_566>
   1495a:	48 89 85 70 e8 ff ff 	mov    %rax,-0x1790(%rbp)
   14961:	48 8d 05 78 cb 00 00 	lea    0xcb78(%rip),%rax        # 214e0 <g_353+0x2a0>
   14968:	48 89 85 78 e8 ff ff 	mov    %rax,-0x1788(%rbp)
   1496f:	48 8b 05 8a 2d 01 00 	mov    0x12d8a(%rip),%rax        # 27700 <g_106>
   14976:	8b 00                	mov    (%rax),%eax
   14978:	85 c0                	test   %eax,%eax
   1497a:	0f 84 5f 01 00 00    	je     14adf <func_80+0xb46>
   14980:	48 c7 85 a0 e7 ff ff 	movq   $0x8,-0x1860(%rbp)
   14987:	08 00 00 00 
   1498b:	e9 3c 01 00 00       	jmpq   14acc <func_80+0xb33>
   14990:	48 8d 05 8b c7 00 00 	lea    0xc78b(%rip),%rax        # 21122 <g_117>
   14997:	48 89 85 00 e9 ff ff 	mov    %rax,-0x1700(%rbp)
   1499e:	48 8d 05 c3 2d 01 00 	lea    0x12dc3(%rip),%rax        # 27768 <g_125>
   149a5:	48 89 85 08 e9 ff ff 	mov    %rax,-0x16f8(%rbp)
   149ac:	0f b6 05 6a c7 00 00 	movzbl 0xc76a(%rip),%eax        # 2111d <g_108+0x1>
   149b3:	0f b6 d8             	movzbl %al,%ebx
   149b6:	48 8b 85 a0 e7 ff ff 	mov    -0x1860(%rbp),%rax
   149bd:	0f b6 c0             	movzbl %al,%eax
   149c0:	89 c6                	mov    %eax,%esi
   149c2:	bf 42 00 00 00       	mov    $0x42,%edi
   149c7:	e8 8e 51 ff ff       	callq  9b5a <safe_add_func_uint8_t_u_u>
   149cc:	0f b6 c0             	movzbl %al,%eax
   149cf:	89 de                	mov    %ebx,%esi
   149d1:	89 c7                	mov    %eax,%edi
   149d3:	e8 f4 4c ff ff       	callq  96cc <safe_mod_func_int32_t_s_s>
   149d8:	85 c0                	test   %eax,%eax
   149da:	0f 95 c0             	setne  %al
   149dd:	0f b6 c0             	movzbl %al,%eax
   149e0:	48 be a4 9a 04 0c 85 	movabs $0x801a57850c049aa4,%rsi
   149e7:	57 1a 80 
   149ea:	48 89 c7             	mov    %rax,%rdi
   149ed:	e8 8e 56 ff ff       	callq  a080 <safe_mod_func_uint64_t_u_u>
   149f2:	48 83 bd 20 e8 ff ff 	cmpq   $0x0,-0x17e0(%rbp)
   149f9:	00 
   149fa:	74 4a                	je     14a46 <func_80+0xaad>
   149fc:	0f b6 05 19 c7 00 00 	movzbl 0xc719(%rip),%eax        # 2111c <g_108>
   14a03:	0f b6 d0             	movzbl %al,%edx
   14a06:	48 8b 85 00 e9 ff ff 	mov    -0x1700(%rbp),%rax
   14a0d:	66 89 10             	mov    %dx,(%rax)
   14a10:	48 8b 85 00 e9 ff ff 	mov    -0x1700(%rbp),%rax
   14a17:	0f b7 00             	movzwl (%rax),%eax
   14a1a:	0f bf d0             	movswl %ax,%edx
   14a1d:	48 8d 85 a8 e7 ff ff 	lea    -0x1858(%rbp),%rax
   14a24:	48 39 85 20 e8 ff ff 	cmp    %rax,-0x17e0(%rbp)
   14a2b:	0f 94 c0             	sete   %al
   14a2e:	0f b6 c0             	movzbl %al,%eax
   14a31:	89 d6                	mov    %edx,%esi
   14a33:	89 c7                	mov    %eax,%edi
   14a35:	e8 79 49 ff ff       	callq  93b3 <safe_add_func_int16_t_s_s>
   14a3a:	66 85 c0             	test   %ax,%ax
   14a3d:	74 07                	je     14a46 <func_80+0xaad>
   14a3f:	ba 01 00 00 00       	mov    $0x1,%edx
   14a44:	eb 05                	jmp    14a4b <func_80+0xab2>
   14a46:	ba 00 00 00 00       	mov    $0x0,%edx
   14a4b:	8b 05 db c5 00 00    	mov    0xc5db(%rip),%eax        # 2102c <g_3+0x4>
   14a51:	39 c2                	cmp    %eax,%edx
   14a53:	75 07                	jne    14a5c <func_80+0xac3>
   14a55:	ba 01 00 00 00       	mov    $0x1,%edx
   14a5a:	eb 05                	jmp    14a61 <func_80+0xac8>
   14a5c:	ba 00 00 00 00       	mov    $0x0,%edx
   14a61:	8b 05 59 c6 00 00    	mov    0xc659(%rip),%eax        # 210c0 <g_32+0x80>
   14a67:	39 c2                	cmp    %eax,%edx
   14a69:	0f 97 c0             	seta   %al
   14a6c:	0f b6 c0             	movzbl %al,%eax
   14a6f:	be 00 00 00 00       	mov    $0x0,%esi
   14a74:	89 c7                	mov    %eax,%edi
   14a76:	e8 a4 52 ff ff       	callq  9d1f <safe_sub_func_uint16_t_u_u>
   14a7b:	89 c2                	mov    %eax,%edx
   14a7d:	48 8b 05 7c 2c 01 00 	mov    0x12c7c(%rip),%rax        # 27700 <g_106>
   14a84:	0f b7 d2             	movzwl %dx,%edx
   14a87:	89 10                	mov    %edx,(%rax)
   14a89:	48 8b 15 d8 2c 01 00 	mov    0x12cd8(%rip),%rdx        # 27768 <g_125>
   14a90:	48 8b 85 08 e9 ff ff 	mov    -0x16f8(%rbp),%rax
   14a97:	48 89 10             	mov    %rdx,(%rax)
   14a9a:	48 8b 85 08 e9 ff ff 	mov    -0x16f8(%rbp),%rax
   14aa1:	48 8b 00             	mov    (%rax),%rax
   14aa4:	48 89 85 f8 e7 ff ff 	mov    %rax,-0x1808(%rbp)
   14aab:	48 8b 85 a0 e7 ff ff 	mov    -0x1860(%rbp),%rax
   14ab2:	0f be c0             	movsbl %al,%eax
   14ab5:	be 01 00 00 00       	mov    $0x1,%esi
   14aba:	89 c7                	mov    %eax,%edi
   14abc:	e8 31 47 ff ff       	callq  91f2 <safe_sub_func_int8_t_s_s>
   14ac1:	48 0f be c0          	movsbq %al,%rax
   14ac5:	48 89 85 a0 e7 ff ff 	mov    %rax,-0x1860(%rbp)
   14acc:	48 83 bd a0 e7 ff ff 	cmpq   $0xffffffffffffffe8,-0x1860(%rbp)
   14ad3:	e8 
   14ad4:	0f 8c b6 fe ff ff    	jl     14990 <func_80+0x9f7>
   14ada:	e9 96 04 00 00       	jmpq   14f75 <func_80+0xfdc>
   14adf:	66 c7 85 bc e7 ff ff 	movw   $0xfffd,-0x1844(%rbp)
   14ae6:	fd ff 
   14ae8:	c7 85 c4 e7 ff ff 03 	movl   $0x3,-0x183c(%rbp)
   14aef:	00 00 00 
   14af2:	48 c7 85 80 e8 ff ff 	movq   $0x0,-0x1780(%rbp)
   14af9:	00 00 00 00 
   14afd:	c7 85 c8 e7 ff ff 05 	movl   $0x5,-0x1838(%rbp)
   14b04:	00 00 00 
   14b07:	48 8d 05 14 c6 00 00 	lea    0xc614(%rip),%rax        # 21122 <g_117>
   14b0e:	48 89 85 00 f8 ff ff 	mov    %rax,-0x800(%rbp)
   14b15:	48 c7 85 08 f8 ff ff 	movq   $0x0,-0x7f8(%rbp)
   14b1c:	00 00 00 00 
   14b20:	48 c7 85 10 f8 ff ff 	movq   $0x0,-0x7f0(%rbp)
   14b27:	00 00 00 00 
   14b2b:	48 c7 85 18 f8 ff ff 	movq   $0x0,-0x7e8(%rbp)
   14b32:	00 00 00 00 
   14b36:	48 c7 85 20 f8 ff ff 	movq   $0x0,-0x7e0(%rbp)
   14b3d:	00 00 00 00 
   14b41:	48 8d 05 da c5 00 00 	lea    0xc5da(%rip),%rax        # 21122 <g_117>
   14b48:	48 89 85 28 f8 ff ff 	mov    %rax,-0x7d8(%rbp)
   14b4f:	48 c7 85 30 f8 ff ff 	movq   $0x0,-0x7d0(%rbp)
   14b56:	00 00 00 00 
   14b5a:	48 8d 85 bc e7 ff ff 	lea    -0x1844(%rbp),%rax
   14b61:	48 89 85 38 f8 ff ff 	mov    %rax,-0x7c8(%rbp)
   14b68:	48 8d 05 b3 c5 00 00 	lea    0xc5b3(%rip),%rax        # 21122 <g_117>
   14b6f:	48 89 85 40 f8 ff ff 	mov    %rax,-0x7c0(%rbp)
   14b76:	48 8d 05 a5 c5 00 00 	lea    0xc5a5(%rip),%rax        # 21122 <g_117>
   14b7d:	48 89 85 48 f8 ff ff 	mov    %rax,-0x7b8(%rbp)
   14b84:	48 8d 85 bc e7 ff ff 	lea    -0x1844(%rbp),%rax
   14b8b:	48 89 85 50 f8 ff ff 	mov    %rax,-0x7b0(%rbp)
   14b92:	48 c7 85 58 f8 ff ff 	movq   $0x0,-0x7a8(%rbp)
   14b99:	00 00 00 00 
   14b9d:	48 8d 85 bc e7 ff ff 	lea    -0x1844(%rbp),%rax
   14ba4:	48 89 85 60 f8 ff ff 	mov    %rax,-0x7a0(%rbp)
   14bab:	48 8d 05 70 c5 00 00 	lea    0xc570(%rip),%rax        # 21122 <g_117>
   14bb2:	48 89 85 68 f8 ff ff 	mov    %rax,-0x798(%rbp)
   14bb9:	48 8d 85 00 f8 ff ff 	lea    -0x800(%rbp),%rax
   14bc0:	48 83 c0 50          	add    $0x50,%rax
   14bc4:	48 89 85 08 e8 ff ff 	mov    %rax,-0x17f8(%rbp)
   14bcb:	48 8d 85 08 e8 ff ff 	lea    -0x17f8(%rbp),%rax
   14bd2:	48 89 85 88 e8 ff ff 	mov    %rax,-0x1778(%rbp)
   14bd9:	48 8d 05 b0 44 01 00 	lea    0x144b0(%rip),%rax        # 29090 <g_340>
   14be0:	48 89 85 90 e8 ff ff 	mov    %rax,-0x1770(%rbp)
   14be7:	48 c7 85 98 e8 ff ff 	movq   $0x0,-0x1768(%rbp)
   14bee:	00 00 00 00 
   14bf2:	48 c7 85 a0 e8 ff ff 	movq   $0x0,-0x1760(%rbp)
   14bf9:	00 00 00 00 
   14bfd:	48 8d 85 c4 e7 ff ff 	lea    -0x183c(%rbp),%rax
   14c04:	48 89 85 a8 e8 ff ff 	mov    %rax,-0x1758(%rbp)
   14c0b:	48 c7 85 b0 e8 ff ff 	movq   $0x0,-0x1750(%rbp)
   14c12:	00 00 00 00 
   14c16:	48 8d 05 fb c4 00 00 	lea    0xc4fb(%rip),%rax        # 21118 <g_34>
   14c1d:	48 89 85 b8 e8 ff ff 	mov    %rax,-0x1748(%rbp)
   14c24:	c6 85 b7 e7 ff ff f9 	movb   $0xf9,-0x1849(%rbp)
   14c2b:	c7 85 cc e7 ff ff 00 	movl   $0x0,-0x1834(%rbp)
   14c32:	00 00 00 
   14c35:	eb 1e                	jmp    14c55 <func_80+0xcbc>
   14c37:	8b 85 cc e7 ff ff    	mov    -0x1834(%rbp),%eax
   14c3d:	48 98                	cltq   
   14c3f:	48 8d 95 c8 e7 ff ff 	lea    -0x1838(%rbp),%rdx
   14c46:	48 89 94 c5 70 e9 ff 	mov    %rdx,-0x1690(%rbp,%rax,8)
   14c4d:	ff 
   14c4e:	83 85 cc e7 ff ff 01 	addl   $0x1,-0x1834(%rbp)
   14c55:	83 bd cc e7 ff ff 01 	cmpl   $0x1,-0x1834(%rbp)
   14c5c:	7e d9                	jle    14c37 <func_80+0xc9e>
   14c5e:	48 8b 15 9b 2a 01 00 	mov    0x12a9b(%rip),%rdx        # 27700 <g_106>
   14c65:	48 8b 05 94 2a 01 00 	mov    0x12a94(%rip),%rax        # 27700 <g_106>
   14c6c:	8b 12                	mov    (%rdx),%edx
   14c6e:	89 10                	mov    %edx,(%rax)
   14c70:	66 c7 05 a9 c4 00 00 	movw   $0xfff8,0xc4a9(%rip)        # 21122 <g_117>
   14c77:	f8 ff 
   14c79:	e9 c4 02 00 00       	jmpq   14f42 <func_80+0xfa9>
   14c7e:	48 c7 85 c0 e8 ff ff 	movq   $0x0,-0x1740(%rbp)
   14c85:	00 00 00 00 
   14c89:	48 8d 05 a0 c4 00 00 	lea    0xc4a0(%rip),%rax        # 21130 <g_137>
   14c90:	48 89 85 c8 e8 ff ff 	mov    %rax,-0x1738(%rbp)
   14c97:	c7 85 e8 e7 ff ff 06 	movl   $0x6,-0x1818(%rbp)
   14c9e:	00 00 00 
   14ca1:	48 c7 85 d0 e8 ff ff 	movq   $0x0,-0x1730(%rbp)
   14ca8:	00 00 00 00 
   14cac:	48 8d 05 8d c4 00 00 	lea    0xc48d(%rip),%rax        # 21140 <g_141>
   14cb3:	48 89 85 d8 e8 ff ff 	mov    %rax,-0x1728(%rbp)
   14cba:	48 8d 85 c0 e7 ff ff 	lea    -0x1840(%rbp),%rax
   14cc1:	48 89 85 e0 e8 ff ff 	mov    %rax,-0x1720(%rbp)
   14cc8:	48 8d 05 89 2a 01 00 	lea    0x12a89(%rip),%rax        # 27758 <g_126+0x38>
   14ccf:	48 89 85 10 e8 ff ff 	mov    %rax,-0x17f0(%rbp)
   14cd6:	48 8d 85 10 e8 ff ff 	lea    -0x17f0(%rbp),%rax
   14cdd:	48 89 85 18 e8 ff ff 	mov    %rax,-0x17e8(%rbp)
   14ce4:	48 c7 85 e8 e8 ff ff 	movq   $0x0,-0x1718(%rbp)
   14ceb:	00 00 00 00 
   14cef:	48 8d 85 18 e8 ff ff 	lea    -0x17e8(%rbp),%rax
   14cf6:	48 89 85 f0 e8 ff ff 	mov    %rax,-0x1710(%rbp)
   14cfd:	c7 85 b0 e9 ff ff 08 	movl   $0x8080808,-0x1650(%rbp)
   14d04:	08 08 08 
   14d07:	66 c7 85 b4 e9 ff ff 	movw   $0x808,-0x164c(%rbp)
   14d0e:	08 08 
   14d10:	c6 85 b6 e9 ff ff 08 	movb   $0x8,-0x164a(%rbp)
   14d17:	c7 85 b7 e9 ff ff f7 	movl   $0xf7f7f7f7,-0x1649(%rbp)
   14d1e:	f7 f7 f7 
   14d21:	66 c7 85 bb e9 ff ff 	movw   $0xf7f7,-0x1645(%rbp)
   14d28:	f7 f7 
   14d2a:	c6 85 bd e9 ff ff f7 	movb   $0xf7,-0x1643(%rbp)
   14d31:	c7 85 be e9 ff ff 08 	movl   $0x8080808,-0x1642(%rbp)
   14d38:	08 08 08 
   14d3b:	66 c7 85 c2 e9 ff ff 	movw   $0x808,-0x163e(%rbp)
   14d42:	08 08 
   14d44:	c6 85 c4 e9 ff ff 08 	movb   $0x8,-0x163c(%rbp)
   14d4b:	c7 85 c5 e9 ff ff f7 	movl   $0xf7f7f7f7,-0x163b(%rbp)
   14d52:	f7 f7 f7 
   14d55:	66 c7 85 c9 e9 ff ff 	movw   $0xf7f7,-0x1637(%rbp)
   14d5c:	f7 f7 
   14d5e:	c6 85 cb e9 ff ff f7 	movb   $0xf7,-0x1635(%rbp)
   14d65:	c7 85 cc e9 ff ff 08 	movl   $0x8080808,-0x1634(%rbp)
   14d6c:	08 08 08 
   14d6f:	66 c7 85 d0 e9 ff ff 	movw   $0x808,-0x1630(%rbp)
   14d76:	08 08 
   14d78:	c6 85 d2 e9 ff ff 08 	movb   $0x8,-0x162e(%rbp)
   14d7f:	c7 85 d3 e9 ff ff f7 	movl   $0xf7f7f7f7,-0x162d(%rbp)
   14d86:	f7 f7 f7 
   14d89:	66 c7 85 d7 e9 ff ff 	movw   $0xf7f7,-0x1629(%rbp)
   14d90:	f7 f7 
   14d92:	c6 85 d9 e9 ff ff f7 	movb   $0xf7,-0x1627(%rbp)
   14d99:	c7 85 da e9 ff ff 08 	movl   $0x8080808,-0x1626(%rbp)
   14da0:	08 08 08 
   14da3:	66 c7 85 de e9 ff ff 	movw   $0x808,-0x1622(%rbp)
   14daa:	08 08 
   14dac:	c6 85 e0 e9 ff ff 08 	movb   $0x8,-0x1620(%rbp)
   14db3:	c7 85 e1 e9 ff ff f7 	movl   $0xf7f7f7f7,-0x161f(%rbp)
   14dba:	f7 f7 f7 
   14dbd:	66 c7 85 e5 e9 ff ff 	movw   $0xf7f7,-0x161b(%rbp)
   14dc4:	f7 f7 
   14dc6:	c6 85 e7 e9 ff ff f7 	movb   $0xf7,-0x1619(%rbp)
   14dcd:	c7 85 e8 e9 ff ff 08 	movl   $0x8080808,-0x1618(%rbp)
   14dd4:	08 08 08 
   14dd7:	66 c7 85 ec e9 ff ff 	movw   $0x808,-0x1614(%rbp)
   14dde:	08 08 
   14de0:	c6 85 ee e9 ff ff 08 	movb   $0x8,-0x1612(%rbp)
   14de7:	c7 85 ef e9 ff ff f7 	movl   $0xf7f7f7f7,-0x1611(%rbp)
   14dee:	f7 f7 f7 
   14df1:	66 c7 85 f3 e9 ff ff 	movw   $0xf7f7,-0x160d(%rbp)
   14df8:	f7 f7 
   14dfa:	c6 85 f5 e9 ff ff f7 	movb   $0xf7,-0x160b(%rbp)
   14e01:	c7 85 f6 e9 ff ff 08 	movl   $0x8080808,-0x160a(%rbp)
   14e08:	08 08 08 
   14e0b:	66 c7 85 fa e9 ff ff 	movw   $0x808,-0x1606(%rbp)
   14e12:	08 08 
   14e14:	c6 85 fc e9 ff ff 08 	movb   $0x8,-0x1604(%rbp)
   14e1b:	c7 85 fd e9 ff ff f7 	movl   $0xf7f7f7f7,-0x1603(%rbp)
   14e22:	f7 f7 f7 
   14e25:	66 c7 85 01 ea ff ff 	movw   $0xf7f7,-0x15ff(%rbp)
   14e2c:	f7 f7 
   14e2e:	c6 85 03 ea ff ff f7 	movb   $0xf7,-0x15fd(%rbp)
   14e35:	48 8d 05 e8 c3 00 00 	lea    0xc3e8(%rip),%rax        # 21224 <g_197>
   14e3c:	48 89 85 f8 e8 ff ff 	mov    %rax,-0x1708(%rbp)
   14e43:	c7 85 ec e7 ff ff 01 	movl   $0x1,-0x1814(%rbp)
   14e4a:	00 00 00 
   14e4d:	c7 85 f0 e7 ff ff ff 	movl   $0xffffffff,-0x1810(%rbp)
   14e54:	ff ff ff 
   14e57:	c7 85 d0 e7 ff ff 00 	movl   $0x0,-0x1830(%rbp)
   14e5e:	00 00 00 
   14e61:	eb 1b                	jmp    14e7e <func_80+0xee5>
   14e63:	8b 85 d0 e7 ff ff    	mov    -0x1830(%rbp),%eax
   14e69:	48 98                	cltq   
   14e6b:	48 c7 84 c5 40 e9 ff 	movq   $0x1,-0x16c0(%rbp,%rax,8)
   14e72:	ff 01 00 00 00 
   14e77:	83 85 d0 e7 ff ff 01 	addl   $0x1,-0x1830(%rbp)
   14e7e:	83 bd d0 e7 ff ff 00 	cmpl   $0x0,-0x1830(%rbp)
   14e85:	7e dc                	jle    14e63 <func_80+0xeca>
   14e87:	48 8b 05 72 28 01 00 	mov    0x12872(%rip),%rax        # 27700 <g_106>
   14e8e:	8b 00                	mov    (%rax),%eax
   14e90:	85 c0                	test   %eax,%eax
   14e92:	75 1f                	jne    14eb3 <func_80+0xf1a>
   14e94:	8b 05 92 c1 00 00    	mov    0xc192(%rip),%eax        # 2102c <g_3+0x4>
   14e9a:	66 c7 85 bc e7 ff ff 	movw   $0x2,-0x1844(%rbp)
   14ea1:	02 00 
   14ea3:	89 c6                	mov    %eax,%esi
   14ea5:	bf 02 00 00 00       	mov    $0x2,%edi
   14eaa:	e8 9d 4d ff ff       	callq  9c4c <safe_lshift_func_uint8_t_u_u>
   14eaf:	84 c0                	test   %al,%al
   14eb1:	74 07                	je     14eba <func_80+0xf21>
   14eb3:	b8 01 00 00 00       	mov    $0x1,%eax
   14eb8:	eb 05                	jmp    14ebf <func_80+0xf26>
   14eba:	b8 00 00 00 00       	mov    $0x0,%eax
   14ebf:	48 63 c8             	movslq %eax,%rcx
   14ec2:	8b 85 c4 e7 ff ff    	mov    -0x183c(%rbp),%eax
   14ec8:	48 63 d0             	movslq %eax,%rdx
   14ecb:	48 8b 85 c8 e8 ff ff 	mov    -0x1738(%rbp),%rax
   14ed2:	48 89 10             	mov    %rdx,(%rax)
   14ed5:	48 8b 85 c8 e8 ff ff 	mov    -0x1738(%rbp),%rax
   14edc:	48 8b 00             	mov    (%rax),%rax
   14edf:	48 39 c1             	cmp    %rax,%rcx
   14ee2:	0f 9e c0             	setle  %al
   14ee5:	0f b6 c0             	movzbl %al,%eax
   14ee8:	09 85 e8 e7 ff ff    	or     %eax,-0x1818(%rbp)
   14eee:	8b 85 e8 e7 ff ff    	mov    -0x1818(%rbp),%eax
   14ef4:	89 c2                	mov    %eax,%edx
   14ef6:	48 8b 85 d8 e8 ff ff 	mov    -0x1728(%rbp),%rax
   14efd:	66 89 10             	mov    %dx,(%rax)
   14f00:	48 8b 05 61 28 01 00 	mov    0x12861(%rip),%rax        # 27768 <g_125>
   14f07:	48 8b 00             	mov    (%rax),%rax
   14f0a:	48 85 c0             	test   %rax,%rax
   14f0d:	0f 95 c0             	setne  %al
   14f10:	0f b6 d0             	movzbl %al,%edx
   14f13:	48 8b 85 e0 e8 ff ff 	mov    -0x1720(%rbp),%rax
   14f1a:	8b 00                	mov    (%rax),%eax
   14f1c:	31 c2                	xor    %eax,%edx
   14f1e:	48 8b 85 e0 e8 ff ff 	mov    -0x1720(%rbp),%rax
   14f25:	89 10                	mov    %edx,(%rax)
   14f27:	0f b7 05 f4 c1 00 00 	movzwl 0xc1f4(%rip),%eax        # 21122 <g_117>
   14f2e:	98                   	cwtl   
   14f2f:	be 01 00 00 00       	mov    $0x1,%esi
   14f34:	89 c7                	mov    %eax,%edi
   14f36:	e8 95 4f ff ff       	callq  9ed0 <safe_sub_func_uint32_t_u_u>
   14f3b:	66 89 05 e0 c1 00 00 	mov    %ax,0xc1e0(%rip)        # 21122 <g_117>
   14f42:	0f b7 05 d9 c1 00 00 	movzwl 0xc1d9(%rip),%eax        # 21122 <g_117>
   14f49:	66 83 f8 ef          	cmp    $0xffef,%ax
   14f4d:	0f 8d 2b fd ff ff    	jge    14c7e <func_80+0xce5>
   14f53:	0f b6 85 b7 e7 ff ff 	movzbl -0x1849(%rbp),%eax
   14f5a:	83 c0 01             	add    $0x1,%eax
   14f5d:	88 85 b7 e7 ff ff    	mov    %al,-0x1849(%rbp)
   14f63:	48 8b 05 a6 c3 00 00 	mov    0xc3a6(%rip),%rax        # 21310 <g_353+0xd0>
   14f6a:	48 83 e8 01          	sub    $0x1,%rax
   14f6e:	48 89 05 9b c3 00 00 	mov    %rax,0xc39b(%rip)        # 21310 <g_353+0xd0>
   14f75:	66 c7 05 a4 c1 00 00 	movw   $0x0,0xc1a4(%rip)        # 21122 <g_117>
   14f7c:	00 00 
   14f7e:	e9 5b 0e 00 00       	jmpq   15dde <func_80+0x1e45>
   14f83:	c6 85 b8 e7 ff ff 8f 	movb   $0x8f,-0x1848(%rbp)
   14f8a:	48 8d 05 7f c3 00 00 	lea    0xc37f(%rip),%rax        # 21310 <g_353+0xd0>
   14f91:	48 89 85 70 e9 ff ff 	mov    %rax,-0x1690(%rbp)
   14f98:	48 8d 05 71 c3 00 00 	lea    0xc371(%rip),%rax        # 21310 <g_353+0xd0>
   14f9f:	48 89 85 78 e9 ff ff 	mov    %rax,-0x1688(%rbp)
   14fa6:	48 8d 05 63 c3 00 00 	lea    0xc363(%rip),%rax        # 21310 <g_353+0xd0>
   14fad:	48 89 85 80 e9 ff ff 	mov    %rax,-0x1680(%rbp)
   14fb4:	48 8d 05 55 c3 00 00 	lea    0xc355(%rip),%rax        # 21310 <g_353+0xd0>
   14fbb:	48 89 85 88 e9 ff ff 	mov    %rax,-0x1678(%rbp)
   14fc2:	48 8d 05 47 c3 00 00 	lea    0xc347(%rip),%rax        # 21310 <g_353+0xd0>
   14fc9:	48 89 85 90 e9 ff ff 	mov    %rax,-0x1670(%rbp)
   14fd0:	48 8d 05 39 c3 00 00 	lea    0xc339(%rip),%rax        # 21310 <g_353+0xd0>
   14fd7:	48 89 85 98 e9 ff ff 	mov    %rax,-0x1668(%rbp)
   14fde:	48 8d 05 2b c3 00 00 	lea    0xc32b(%rip),%rax        # 21310 <g_353+0xd0>
   14fe5:	48 89 85 a0 e9 ff ff 	mov    %rax,-0x1660(%rbp)
   14fec:	48 8d 05 1d c3 00 00 	lea    0xc31d(%rip),%rax        # 21310 <g_353+0xd0>
   14ff3:	48 89 85 a8 e9 ff ff 	mov    %rax,-0x1658(%rbp)
   14ffa:	c7 85 f4 e7 ff ff 8a 	movl   $0xf940fc8a,-0x180c(%rbp)
   15001:	fc 40 f9 
   15004:	c6 85 b9 e7 ff ff 01 	movb   $0x1,-0x1847(%rbp)
   1500b:	48 8d 85 00 e8 ff ff 	lea    -0x1800(%rbp),%rax
   15012:	48 89 85 10 e9 ff ff 	mov    %rax,-0x16f0(%rbp)
   15019:	48 8d 85 b0 e9 ff ff 	lea    -0x1650(%rbp),%rax
   15020:	48 8d 15 39 24 01 00 	lea    0x12439(%rip),%rdx        # 27460 <g_2104+0x23e0>
   15027:	b9 51 00 00 00       	mov    $0x51,%ecx
   1502c:	48 89 c7             	mov    %rax,%rdi
   1502f:	48 89 d6             	mov    %rdx,%rsi
   15032:	f3 48 a5             	rep movsq %ds:(%rsi),%es:(%rdi)
   15035:	48 8d 85 f8 e7 ff ff 	lea    -0x1808(%rbp),%rax
   1503c:	48 89 85 18 e8 ff ff 	mov    %rax,-0x17e8(%rbp)
   15043:	48 8d 85 18 e8 ff ff 	lea    -0x17e8(%rbp),%rax
   1504a:	48 89 85 00 f8 ff ff 	mov    %rax,-0x800(%rbp)
   15051:	48 8d 85 18 e8 ff ff 	lea    -0x17e8(%rbp),%rax
   15058:	48 89 85 08 f8 ff ff 	mov    %rax,-0x7f8(%rbp)
   1505f:	48 8d 85 18 e8 ff ff 	lea    -0x17e8(%rbp),%rax
   15066:	48 89 85 10 f8 ff ff 	mov    %rax,-0x7f0(%rbp)
   1506d:	48 c7 85 18 f8 ff ff 	movq   $0x0,-0x7e8(%rbp)
   15074:	00 00 00 00 
   15078:	48 8d 85 18 e8 ff ff 	lea    -0x17e8(%rbp),%rax
   1507f:	48 89 85 20 f8 ff ff 	mov    %rax,-0x7e0(%rbp)
   15086:	48 8d 85 18 e8 ff ff 	lea    -0x17e8(%rbp),%rax
   1508d:	48 89 85 28 f8 ff ff 	mov    %rax,-0x7d8(%rbp)
   15094:	48 c7 85 30 f8 ff ff 	movq   $0x0,-0x7d0(%rbp)
   1509b:	00 00 00 00 
   1509f:	48 8d 85 18 e8 ff ff 	lea    -0x17e8(%rbp),%rax
   150a6:	48 89 85 38 f8 ff ff 	mov    %rax,-0x7c8(%rbp)
   150ad:	48 8d 85 18 e8 ff ff 	lea    -0x17e8(%rbp),%rax
   150b4:	48 89 85 40 f8 ff ff 	mov    %rax,-0x7c0(%rbp)
   150bb:	48 8d 85 18 e8 ff ff 	lea    -0x17e8(%rbp),%rax
   150c2:	48 89 85 48 f8 ff ff 	mov    %rax,-0x7b8(%rbp)
   150c9:	48 c7 85 50 f8 ff ff 	movq   $0x0,-0x7b0(%rbp)
   150d0:	00 00 00 00 
   150d4:	48 c7 85 58 f8 ff ff 	movq   $0x0,-0x7a8(%rbp)
   150db:	00 00 00 00 
   150df:	48 8d 85 18 e8 ff ff 	lea    -0x17e8(%rbp),%rax
   150e6:	48 89 85 60 f8 ff ff 	mov    %rax,-0x7a0(%rbp)
   150ed:	48 8d 85 18 e8 ff ff 	lea    -0x17e8(%rbp),%rax
   150f4:	48 89 85 68 f8 ff ff 	mov    %rax,-0x798(%rbp)
   150fb:	48 8d 85 18 e8 ff ff 	lea    -0x17e8(%rbp),%rax
   15102:	48 89 85 70 f8 ff ff 	mov    %rax,-0x790(%rbp)
   15109:	48 8d 85 18 e8 ff ff 	lea    -0x17e8(%rbp),%rax
   15110:	48 89 85 78 f8 ff ff 	mov    %rax,-0x788(%rbp)
   15117:	48 8d 85 18 e8 ff ff 	lea    -0x17e8(%rbp),%rax
   1511e:	48 89 85 80 f8 ff ff 	mov    %rax,-0x780(%rbp)
   15125:	48 c7 85 88 f8 ff ff 	movq   $0x0,-0x778(%rbp)
   1512c:	00 00 00 00 
   15130:	48 8d 85 18 e8 ff ff 	lea    -0x17e8(%rbp),%rax
   15137:	48 89 85 90 f8 ff ff 	mov    %rax,-0x770(%rbp)
   1513e:	48 8d 85 18 e8 ff ff 	lea    -0x17e8(%rbp),%rax
   15145:	48 89 85 98 f8 ff ff 	mov    %rax,-0x768(%rbp)
   1514c:	48 8d 85 18 e8 ff ff 	lea    -0x17e8(%rbp),%rax
   15153:	48 89 85 a0 f8 ff ff 	mov    %rax,-0x760(%rbp)
   1515a:	48 8d 85 18 e8 ff ff 	lea    -0x17e8(%rbp),%rax
   15161:	48 89 85 a8 f8 ff ff 	mov    %rax,-0x758(%rbp)
   15168:	48 8d 85 18 e8 ff ff 	lea    -0x17e8(%rbp),%rax
   1516f:	48 89 85 b0 f8 ff ff 	mov    %rax,-0x750(%rbp)
   15176:	48 8d 85 18 e8 ff ff 	lea    -0x17e8(%rbp),%rax
   1517d:	48 89 85 b8 f8 ff ff 	mov    %rax,-0x748(%rbp)
   15184:	48 8d 85 18 e8 ff ff 	lea    -0x17e8(%rbp),%rax
   1518b:	48 89 85 c0 f8 ff ff 	mov    %rax,-0x740(%rbp)
   15192:	48 8d 85 18 e8 ff ff 	lea    -0x17e8(%rbp),%rax
   15199:	48 89 85 c8 f8 ff ff 	mov    %rax,-0x738(%rbp)
   151a0:	48 8d 85 18 e8 ff ff 	lea    -0x17e8(%rbp),%rax
   151a7:	48 89 85 d0 f8 ff ff 	mov    %rax,-0x730(%rbp)
   151ae:	48 8d 85 18 e8 ff ff 	lea    -0x17e8(%rbp),%rax
   151b5:	48 89 85 d8 f8 ff ff 	mov    %rax,-0x728(%rbp)
   151bc:	48 8d 85 18 e8 ff ff 	lea    -0x17e8(%rbp),%rax
   151c3:	48 89 85 e0 f8 ff ff 	mov    %rax,-0x720(%rbp)
   151ca:	48 c7 85 e8 f8 ff ff 	movq   $0x0,-0x718(%rbp)
   151d1:	00 00 00 00 
   151d5:	48 8d 85 18 e8 ff ff 	lea    -0x17e8(%rbp),%rax
   151dc:	48 89 85 f0 f8 ff ff 	mov    %rax,-0x710(%rbp)
   151e3:	48 8d 85 18 e8 ff ff 	lea    -0x17e8(%rbp),%rax
   151ea:	48 89 85 f8 f8 ff ff 	mov    %rax,-0x708(%rbp)
   151f1:	48 c7 85 00 f9 ff ff 	movq   $0x0,-0x700(%rbp)
   151f8:	00 00 00 00 
   151fc:	48 8d 85 18 e8 ff ff 	lea    -0x17e8(%rbp),%rax
   15203:	48 89 85 08 f9 ff ff 	mov    %rax,-0x6f8(%rbp)
   1520a:	48 8d 85 18 e8 ff ff 	lea    -0x17e8(%rbp),%rax
   15211:	48 89 85 10 f9 ff ff 	mov    %rax,-0x6f0(%rbp)
   15218:	48 8d 85 18 e8 ff ff 	lea    -0x17e8(%rbp),%rax
   1521f:	48 89 85 18 f9 ff ff 	mov    %rax,-0x6e8(%rbp)
   15226:	48 8d 85 18 e8 ff ff 	lea    -0x17e8(%rbp),%rax
   1522d:	48 89 85 20 f9 ff ff 	mov    %rax,-0x6e0(%rbp)
   15234:	48 c7 85 28 f9 ff ff 	movq   $0x0,-0x6d8(%rbp)
   1523b:	00 00 00 00 
   1523f:	48 8d 85 18 e8 ff ff 	lea    -0x17e8(%rbp),%rax
   15246:	48 89 85 30 f9 ff ff 	mov    %rax,-0x6d0(%rbp)
   1524d:	48 c7 85 38 f9 ff ff 	movq   $0x0,-0x6c8(%rbp)
   15254:	00 00 00 00 
   15258:	48 8d 85 18 e8 ff ff 	lea    -0x17e8(%rbp),%rax
   1525f:	48 89 85 40 f9 ff ff 	mov    %rax,-0x6c0(%rbp)
   15266:	48 8d 85 18 e8 ff ff 	lea    -0x17e8(%rbp),%rax
   1526d:	48 89 85 48 f9 ff ff 	mov    %rax,-0x6b8(%rbp)
   15274:	48 8d 85 18 e8 ff ff 	lea    -0x17e8(%rbp),%rax
   1527b:	48 89 85 50 f9 ff ff 	mov    %rax,-0x6b0(%rbp)
   15282:	48 8d 85 18 e8 ff ff 	lea    -0x17e8(%rbp),%rax
   15289:	48 89 85 58 f9 ff ff 	mov    %rax,-0x6a8(%rbp)
   15290:	48 8d 85 18 e8 ff ff 	lea    -0x17e8(%rbp),%rax
   15297:	48 89 85 60 f9 ff ff 	mov    %rax,-0x6a0(%rbp)
   1529e:	48 c7 85 68 f9 ff ff 	movq   $0x0,-0x698(%rbp)
   152a5:	00 00 00 00 
   152a9:	48 8d 85 18 e8 ff ff 	lea    -0x17e8(%rbp),%rax
   152b0:	48 89 85 70 f9 ff ff 	mov    %rax,-0x690(%rbp)
   152b7:	48 8d 85 18 e8 ff ff 	lea    -0x17e8(%rbp),%rax
   152be:	48 89 85 78 f9 ff ff 	mov    %rax,-0x688(%rbp)
   152c5:	48 8d 85 18 e8 ff ff 	lea    -0x17e8(%rbp),%rax
   152cc:	48 89 85 80 f9 ff ff 	mov    %rax,-0x680(%rbp)
   152d3:	48 8d 85 18 e8 ff ff 	lea    -0x17e8(%rbp),%rax
   152da:	48 89 85 88 f9 ff ff 	mov    %rax,-0x678(%rbp)
   152e1:	48 8d 85 18 e8 ff ff 	lea    -0x17e8(%rbp),%rax
   152e8:	48 89 85 90 f9 ff ff 	mov    %rax,-0x670(%rbp)
   152ef:	48 c7 85 98 f9 ff ff 	movq   $0x0,-0x668(%rbp)
   152f6:	00 00 00 00 
   152fa:	48 8d 85 18 e8 ff ff 	lea    -0x17e8(%rbp),%rax
   15301:	48 89 85 a0 f9 ff ff 	mov    %rax,-0x660(%rbp)
   15308:	48 8d 85 18 e8 ff ff 	lea    -0x17e8(%rbp),%rax
   1530f:	48 89 85 a8 f9 ff ff 	mov    %rax,-0x658(%rbp)
   15316:	48 c7 85 b0 f9 ff ff 	movq   $0x0,-0x650(%rbp)
   1531d:	00 00 00 00 
   15321:	48 8d 85 18 e8 ff ff 	lea    -0x17e8(%rbp),%rax
   15328:	48 89 85 b8 f9 ff ff 	mov    %rax,-0x648(%rbp)
   1532f:	48 c7 85 c0 f9 ff ff 	movq   $0x0,-0x640(%rbp)
   15336:	00 00 00 00 
   1533a:	48 8d 85 18 e8 ff ff 	lea    -0x17e8(%rbp),%rax
   15341:	48 89 85 c8 f9 ff ff 	mov    %rax,-0x638(%rbp)
   15348:	48 8d 85 18 e8 ff ff 	lea    -0x17e8(%rbp),%rax
   1534f:	48 89 85 d0 f9 ff ff 	mov    %rax,-0x630(%rbp)
   15356:	48 8d 85 18 e8 ff ff 	lea    -0x17e8(%rbp),%rax
   1535d:	48 89 85 d8 f9 ff ff 	mov    %rax,-0x628(%rbp)
   15364:	48 8d 85 18 e8 ff ff 	lea    -0x17e8(%rbp),%rax
   1536b:	48 89 85 e0 f9 ff ff 	mov    %rax,-0x620(%rbp)
   15372:	48 8d 85 18 e8 ff ff 	lea    -0x17e8(%rbp),%rax
   15379:	48 89 85 e8 f9 ff ff 	mov    %rax,-0x618(%rbp)
   15380:	48 8d 85 18 e8 ff ff 	lea    -0x17e8(%rbp),%rax
   15387:	48 89 85 f0 f9 ff ff 	mov    %rax,-0x610(%rbp)
   1538e:	48 8d 85 18 e8 ff ff 	lea    -0x17e8(%rbp),%rax
   15395:	48 89 85 f8 f9 ff ff 	mov    %rax,-0x608(%rbp)
   1539c:	48 8d 85 18 e8 ff ff 	lea    -0x17e8(%rbp),%rax
   153a3:	48 89 85 00 fa ff ff 	mov    %rax,-0x600(%rbp)
   153aa:	48 8d 85 18 e8 ff ff 	lea    -0x17e8(%rbp),%rax
   153b1:	48 89 85 08 fa ff ff 	mov    %rax,-0x5f8(%rbp)
   153b8:	48 c7 85 10 fa ff ff 	movq   $0x0,-0x5f0(%rbp)
   153bf:	00 00 00 00 
   153c3:	48 c7 85 18 fa ff ff 	movq   $0x0,-0x5e8(%rbp)
   153ca:	00 00 00 00 
   153ce:	48 8d 85 18 e8 ff ff 	lea    -0x17e8(%rbp),%rax
   153d5:	48 89 85 20 fa ff ff 	mov    %rax,-0x5e0(%rbp)
   153dc:	48 8d 85 18 e8 ff ff 	lea    -0x17e8(%rbp),%rax
   153e3:	48 89 85 28 fa ff ff 	mov    %rax,-0x5d8(%rbp)
   153ea:	48 8d 85 18 e8 ff ff 	lea    -0x17e8(%rbp),%rax
   153f1:	48 89 85 30 fa ff ff 	mov    %rax,-0x5d0(%rbp)
   153f8:	48 8d 85 18 e8 ff ff 	lea    -0x17e8(%rbp),%rax
   153ff:	48 89 85 38 fa ff ff 	mov    %rax,-0x5c8(%rbp)
   15406:	48 8d 85 18 e8 ff ff 	lea    -0x17e8(%rbp),%rax
   1540d:	48 89 85 40 fa ff ff 	mov    %rax,-0x5c0(%rbp)
   15414:	48 8d 85 18 e8 ff ff 	lea    -0x17e8(%rbp),%rax
   1541b:	48 89 85 48 fa ff ff 	mov    %rax,-0x5b8(%rbp)
   15422:	48 c7 85 50 fa ff ff 	movq   $0x0,-0x5b0(%rbp)
   15429:	00 00 00 00 
   1542d:	48 8d 85 18 e8 ff ff 	lea    -0x17e8(%rbp),%rax
   15434:	48 89 85 58 fa ff ff 	mov    %rax,-0x5a8(%rbp)
   1543b:	48 8d 85 18 e8 ff ff 	lea    -0x17e8(%rbp),%rax
   15442:	48 89 85 60 fa ff ff 	mov    %rax,-0x5a0(%rbp)
   15449:	48 8d 85 18 e8 ff ff 	lea    -0x17e8(%rbp),%rax
   15450:	48 89 85 68 fa ff ff 	mov    %rax,-0x598(%rbp)
   15457:	48 8d 85 18 e8 ff ff 	lea    -0x17e8(%rbp),%rax
   1545e:	48 89 85 70 fa ff ff 	mov    %rax,-0x590(%rbp)
   15465:	48 8d 85 18 e8 ff ff 	lea    -0x17e8(%rbp),%rax
   1546c:	48 89 85 78 fa ff ff 	mov    %rax,-0x588(%rbp)
   15473:	48 c7 85 80 fa ff ff 	movq   $0x0,-0x580(%rbp)
   1547a:	00 00 00 00 
   1547e:	48 8d 85 18 e8 ff ff 	lea    -0x17e8(%rbp),%rax
   15485:	48 89 85 88 fa ff ff 	mov    %rax,-0x578(%rbp)
   1548c:	48 8d 85 18 e8 ff ff 	lea    -0x17e8(%rbp),%rax
   15493:	48 89 85 90 fa ff ff 	mov    %rax,-0x570(%rbp)
   1549a:	48 c7 85 98 fa ff ff 	movq   $0x0,-0x568(%rbp)
   154a1:	00 00 00 00 
   154a5:	48 c7 85 a0 fa ff ff 	movq   $0x0,-0x560(%rbp)
   154ac:	00 00 00 00 
   154b0:	48 8d 85 18 e8 ff ff 	lea    -0x17e8(%rbp),%rax
   154b7:	48 89 85 a8 fa ff ff 	mov    %rax,-0x558(%rbp)
   154be:	48 8d 85 18 e8 ff ff 	lea    -0x17e8(%rbp),%rax
   154c5:	48 89 85 b0 fa ff ff 	mov    %rax,-0x550(%rbp)
   154cc:	48 c7 85 b8 fa ff ff 	movq   $0x0,-0x548(%rbp)
   154d3:	00 00 00 00 
   154d7:	48 8d 85 18 e8 ff ff 	lea    -0x17e8(%rbp),%rax
   154de:	48 89 85 c0 fa ff ff 	mov    %rax,-0x540(%rbp)
   154e5:	48 8d 85 18 e8 ff ff 	lea    -0x17e8(%rbp),%rax
   154ec:	48 89 85 c8 fa ff ff 	mov    %rax,-0x538(%rbp)
   154f3:	48 8d 85 18 e8 ff ff 	lea    -0x17e8(%rbp),%rax
   154fa:	48 89 85 d0 fa ff ff 	mov    %rax,-0x530(%rbp)
   15501:	48 c7 85 d8 fa ff ff 	movq   $0x0,-0x528(%rbp)
   15508:	00 00 00 00 
   1550c:	48 8d 85 18 e8 ff ff 	lea    -0x17e8(%rbp),%rax
   15513:	48 89 85 e0 fa ff ff 	mov    %rax,-0x520(%rbp)
   1551a:	48 c7 85 e8 fa ff ff 	movq   $0x0,-0x518(%rbp)
   15521:	00 00 00 00 
   15525:	48 8d 85 18 e8 ff ff 	lea    -0x17e8(%rbp),%rax
   1552c:	48 89 85 f0 fa ff ff 	mov    %rax,-0x510(%rbp)
   15533:	48 8d 85 18 e8 ff ff 	lea    -0x17e8(%rbp),%rax
   1553a:	48 89 85 f8 fa ff ff 	mov    %rax,-0x508(%rbp)
   15541:	48 8d 85 18 e8 ff ff 	lea    -0x17e8(%rbp),%rax
   15548:	48 89 85 00 fb ff ff 	mov    %rax,-0x500(%rbp)
   1554f:	48 8d 85 18 e8 ff ff 	lea    -0x17e8(%rbp),%rax
   15556:	48 89 85 08 fb ff ff 	mov    %rax,-0x4f8(%rbp)
   1555d:	48 8d 85 18 e8 ff ff 	lea    -0x17e8(%rbp),%rax
   15564:	48 89 85 10 fb ff ff 	mov    %rax,-0x4f0(%rbp)
   1556b:	48 8d 85 18 e8 ff ff 	lea    -0x17e8(%rbp),%rax
   15572:	48 89 85 18 fb ff ff 	mov    %rax,-0x4e8(%rbp)
   15579:	48 8d 85 18 e8 ff ff 	lea    -0x17e8(%rbp),%rax
   15580:	48 89 85 20 fb ff ff 	mov    %rax,-0x4e0(%rbp)
   15587:	48 8d 85 18 e8 ff ff 	lea    -0x17e8(%rbp),%rax
   1558e:	48 89 85 28 fb ff ff 	mov    %rax,-0x4d8(%rbp)
   15595:	48 8d 85 18 e8 ff ff 	lea    -0x17e8(%rbp),%rax
   1559c:	48 89 85 30 fb ff ff 	mov    %rax,-0x4d0(%rbp)
   155a3:	48 8d 85 18 e8 ff ff 	lea    -0x17e8(%rbp),%rax
   155aa:	48 89 85 38 fb ff ff 	mov    %rax,-0x4c8(%rbp)
   155b1:	48 8d 85 18 e8 ff ff 	lea    -0x17e8(%rbp),%rax
   155b8:	48 89 85 40 fb ff ff 	mov    %rax,-0x4c0(%rbp)
   155bf:	48 8d 85 18 e8 ff ff 	lea    -0x17e8(%rbp),%rax
   155c6:	48 89 85 48 fb ff ff 	mov    %rax,-0x4b8(%rbp)
   155cd:	48 8d 85 18 e8 ff ff 	lea    -0x17e8(%rbp),%rax
   155d4:	48 89 85 50 fb ff ff 	mov    %rax,-0x4b0(%rbp)
   155db:	48 8d 85 18 e8 ff ff 	lea    -0x17e8(%rbp),%rax
   155e2:	48 89 85 58 fb ff ff 	mov    %rax,-0x4a8(%rbp)
   155e9:	48 8d 85 18 e8 ff ff 	lea    -0x17e8(%rbp),%rax
   155f0:	48 89 85 60 fb ff ff 	mov    %rax,-0x4a0(%rbp)
   155f7:	48 c7 85 68 fb ff ff 	movq   $0x0,-0x498(%rbp)
   155fe:	00 00 00 00 
   15602:	48 8d 85 18 e8 ff ff 	lea    -0x17e8(%rbp),%rax
   15609:	48 89 85 70 fb ff ff 	mov    %rax,-0x490(%rbp)
   15610:	48 8d 85 18 e8 ff ff 	lea    -0x17e8(%rbp),%rax
   15617:	48 89 85 78 fb ff ff 	mov    %rax,-0x488(%rbp)
   1561e:	48 8d 85 18 e8 ff ff 	lea    -0x17e8(%rbp),%rax
   15625:	48 89 85 80 fb ff ff 	mov    %rax,-0x480(%rbp)
   1562c:	48 c7 85 88 fb ff ff 	movq   $0x0,-0x478(%rbp)
   15633:	00 00 00 00 
   15637:	48 8d 85 18 e8 ff ff 	lea    -0x17e8(%rbp),%rax
   1563e:	48 89 85 90 fb ff ff 	mov    %rax,-0x470(%rbp)
   15645:	48 8d 85 18 e8 ff ff 	lea    -0x17e8(%rbp),%rax
   1564c:	48 89 85 98 fb ff ff 	mov    %rax,-0x468(%rbp)
   15653:	48 8d 85 18 e8 ff ff 	lea    -0x17e8(%rbp),%rax
   1565a:	48 89 85 a0 fb ff ff 	mov    %rax,-0x460(%rbp)
   15661:	48 8d 85 18 e8 ff ff 	lea    -0x17e8(%rbp),%rax
   15668:	48 89 85 a8 fb ff ff 	mov    %rax,-0x458(%rbp)
   1566f:	48 8d 85 18 e8 ff ff 	lea    -0x17e8(%rbp),%rax
   15676:	48 89 85 b0 fb ff ff 	mov    %rax,-0x450(%rbp)
   1567d:	48 8d 85 18 e8 ff ff 	lea    -0x17e8(%rbp),%rax
   15684:	48 89 85 b8 fb ff ff 	mov    %rax,-0x448(%rbp)
   1568b:	48 8d 85 18 e8 ff ff 	lea    -0x17e8(%rbp),%rax
   15692:	48 89 85 c0 fb ff ff 	mov    %rax,-0x440(%rbp)
   15699:	48 8d 85 18 e8 ff ff 	lea    -0x17e8(%rbp),%rax
   156a0:	48 89 85 c8 fb ff ff 	mov    %rax,-0x438(%rbp)
   156a7:	48 8d 85 18 e8 ff ff 	lea    -0x17e8(%rbp),%rax
   156ae:	48 89 85 d0 fb ff ff 	mov    %rax,-0x430(%rbp)
   156b5:	48 c7 85 d8 fb ff ff 	movq   $0x0,-0x428(%rbp)
   156bc:	00 00 00 00 
   156c0:	48 c7 85 e0 fb ff ff 	movq   $0x0,-0x420(%rbp)
   156c7:	00 00 00 00 
   156cb:	48 8d 85 18 e8 ff ff 	lea    -0x17e8(%rbp),%rax
   156d2:	48 89 85 e8 fb ff ff 	mov    %rax,-0x418(%rbp)
   156d9:	48 8d 85 18 e8 ff ff 	lea    -0x17e8(%rbp),%rax
   156e0:	48 89 85 f0 fb ff ff 	mov    %rax,-0x410(%rbp)
   156e7:	48 8d 85 18 e8 ff ff 	lea    -0x17e8(%rbp),%rax
   156ee:	48 89 85 f8 fb ff ff 	mov    %rax,-0x408(%rbp)
   156f5:	48 8d 85 18 e8 ff ff 	lea    -0x17e8(%rbp),%rax
   156fc:	48 89 85 00 fc ff ff 	mov    %rax,-0x400(%rbp)
   15703:	48 8d 85 18 e8 ff ff 	lea    -0x17e8(%rbp),%rax
   1570a:	48 89 85 08 fc ff ff 	mov    %rax,-0x3f8(%rbp)
   15711:	48 8d 85 18 e8 ff ff 	lea    -0x17e8(%rbp),%rax
   15718:	48 89 85 10 fc ff ff 	mov    %rax,-0x3f0(%rbp)
   1571f:	48 8d 85 18 e8 ff ff 	lea    -0x17e8(%rbp),%rax
   15726:	48 89 85 18 fc ff ff 	mov    %rax,-0x3e8(%rbp)
   1572d:	48 c7 85 20 fc ff ff 	movq   $0x0,-0x3e0(%rbp)
   15734:	00 00 00 00 
   15738:	48 8d 85 18 e8 ff ff 	lea    -0x17e8(%rbp),%rax
   1573f:	48 89 85 28 fc ff ff 	mov    %rax,-0x3d8(%rbp)
   15746:	48 8d 85 18 e8 ff ff 	lea    -0x17e8(%rbp),%rax
   1574d:	48 89 85 30 fc ff ff 	mov    %rax,-0x3d0(%rbp)
   15754:	48 8d 85 18 e8 ff ff 	lea    -0x17e8(%rbp),%rax
   1575b:	48 89 85 38 fc ff ff 	mov    %rax,-0x3c8(%rbp)
   15762:	48 8d 85 18 e8 ff ff 	lea    -0x17e8(%rbp),%rax
   15769:	48 89 85 40 fc ff ff 	mov    %rax,-0x3c0(%rbp)
   15770:	48 8d 85 18 e8 ff ff 	lea    -0x17e8(%rbp),%rax
   15777:	48 89 85 48 fc ff ff 	mov    %rax,-0x3b8(%rbp)
   1577e:	48 8d 85 18 e8 ff ff 	lea    -0x17e8(%rbp),%rax
   15785:	48 89 85 50 fc ff ff 	mov    %rax,-0x3b0(%rbp)
   1578c:	48 8d 85 18 e8 ff ff 	lea    -0x17e8(%rbp),%rax
   15793:	48 89 85 58 fc ff ff 	mov    %rax,-0x3a8(%rbp)
   1579a:	48 8d 85 18 e8 ff ff 	lea    -0x17e8(%rbp),%rax
   157a1:	48 89 85 60 fc ff ff 	mov    %rax,-0x3a0(%rbp)
   157a8:	48 c7 85 68 fc ff ff 	movq   $0x0,-0x398(%rbp)
   157af:	00 00 00 00 
   157b3:	48 8d 85 18 e8 ff ff 	lea    -0x17e8(%rbp),%rax
   157ba:	48 89 85 70 fc ff ff 	mov    %rax,-0x390(%rbp)
   157c1:	48 c7 85 78 fc ff ff 	movq   $0x0,-0x388(%rbp)
   157c8:	00 00 00 00 
   157cc:	48 8d 85 18 e8 ff ff 	lea    -0x17e8(%rbp),%rax
   157d3:	48 89 85 80 fc ff ff 	mov    %rax,-0x380(%rbp)
   157da:	48 8d 85 18 e8 ff ff 	lea    -0x17e8(%rbp),%rax
   157e1:	48 89 85 88 fc ff ff 	mov    %rax,-0x378(%rbp)
   157e8:	48 8d 85 18 e8 ff ff 	lea    -0x17e8(%rbp),%rax
   157ef:	48 89 85 90 fc ff ff 	mov    %rax,-0x370(%rbp)
   157f6:	48 8d 85 18 e8 ff ff 	lea    -0x17e8(%rbp),%rax
   157fd:	48 89 85 98 fc ff ff 	mov    %rax,-0x368(%rbp)
   15804:	48 8d 85 18 e8 ff ff 	lea    -0x17e8(%rbp),%rax
   1580b:	48 89 85 a0 fc ff ff 	mov    %rax,-0x360(%rbp)
   15812:	48 8d 85 18 e8 ff ff 	lea    -0x17e8(%rbp),%rax
   15819:	48 89 85 a8 fc ff ff 	mov    %rax,-0x358(%rbp)
   15820:	48 c7 85 b0 fc ff ff 	movq   $0x0,-0x350(%rbp)
   15827:	00 00 00 00 
   1582b:	48 8d 85 18 e8 ff ff 	lea    -0x17e8(%rbp),%rax
   15832:	48 89 85 b8 fc ff ff 	mov    %rax,-0x348(%rbp)
   15839:	48 8d 85 18 e8 ff ff 	lea    -0x17e8(%rbp),%rax
   15840:	48 89 85 c0 fc ff ff 	mov    %rax,-0x340(%rbp)
   15847:	48 8d 85 18 e8 ff ff 	lea    -0x17e8(%rbp),%rax
   1584e:	48 89 85 c8 fc ff ff 	mov    %rax,-0x338(%rbp)
   15855:	48 8d 85 18 e8 ff ff 	lea    -0x17e8(%rbp),%rax
   1585c:	48 89 85 d0 fc ff ff 	mov    %rax,-0x330(%rbp)
   15863:	48 8d 85 18 e8 ff ff 	lea    -0x17e8(%rbp),%rax
   1586a:	48 89 85 d8 fc ff ff 	mov    %rax,-0x328(%rbp)
   15871:	48 8d 85 18 e8 ff ff 	lea    -0x17e8(%rbp),%rax
   15878:	48 89 85 e0 fc ff ff 	mov    %rax,-0x320(%rbp)
   1587f:	48 8d 85 18 e8 ff ff 	lea    -0x17e8(%rbp),%rax
   15886:	48 89 85 e8 fc ff ff 	mov    %rax,-0x318(%rbp)
   1588d:	48 8d 85 18 e8 ff ff 	lea    -0x17e8(%rbp),%rax
   15894:	48 89 85 f0 fc ff ff 	mov    %rax,-0x310(%rbp)
   1589b:	48 8d 85 18 e8 ff ff 	lea    -0x17e8(%rbp),%rax
   158a2:	48 89 85 f8 fc ff ff 	mov    %rax,-0x308(%rbp)
   158a9:	48 c7 85 00 fd ff ff 	movq   $0x0,-0x300(%rbp)
   158b0:	00 00 00 00 
   158b4:	48 8d 85 18 e8 ff ff 	lea    -0x17e8(%rbp),%rax
   158bb:	48 89 85 08 fd ff ff 	mov    %rax,-0x2f8(%rbp)
   158c2:	48 8d 85 18 e8 ff ff 	lea    -0x17e8(%rbp),%rax
   158c9:	48 89 85 10 fd ff ff 	mov    %rax,-0x2f0(%rbp)
   158d0:	48 8d 85 18 e8 ff ff 	lea    -0x17e8(%rbp),%rax
   158d7:	48 89 85 18 fd ff ff 	mov    %rax,-0x2e8(%rbp)
   158de:	48 8d 85 18 e8 ff ff 	lea    -0x17e8(%rbp),%rax
   158e5:	48 89 85 20 fd ff ff 	mov    %rax,-0x2e0(%rbp)
   158ec:	48 c7 85 28 fd ff ff 	movq   $0x0,-0x2d8(%rbp)
   158f3:	00 00 00 00 
   158f7:	48 8d 85 18 e8 ff ff 	lea    -0x17e8(%rbp),%rax
   158fe:	48 89 85 30 fd ff ff 	mov    %rax,-0x2d0(%rbp)
   15905:	48 8d 85 18 e8 ff ff 	lea    -0x17e8(%rbp),%rax
   1590c:	48 89 85 38 fd ff ff 	mov    %rax,-0x2c8(%rbp)
   15913:	48 8d 85 18 e8 ff ff 	lea    -0x17e8(%rbp),%rax
   1591a:	48 89 85 40 fd ff ff 	mov    %rax,-0x2c0(%rbp)
   15921:	48 8d 85 18 e8 ff ff 	lea    -0x17e8(%rbp),%rax
   15928:	48 89 85 48 fd ff ff 	mov    %rax,-0x2b8(%rbp)
   1592f:	48 8d 85 18 e8 ff ff 	lea    -0x17e8(%rbp),%rax
   15936:	48 89 85 50 fd ff ff 	mov    %rax,-0x2b0(%rbp)
   1593d:	48 8d 85 18 e8 ff ff 	lea    -0x17e8(%rbp),%rax
   15944:	48 89 85 58 fd ff ff 	mov    %rax,-0x2a8(%rbp)
   1594b:	48 8d 85 18 e8 ff ff 	lea    -0x17e8(%rbp),%rax
   15952:	48 89 85 60 fd ff ff 	mov    %rax,-0x2a0(%rbp)
   15959:	48 8d 85 18 e8 ff ff 	lea    -0x17e8(%rbp),%rax
   15960:	48 89 85 68 fd ff ff 	mov    %rax,-0x298(%rbp)
   15967:	48 c7 85 70 fd ff ff 	movq   $0x0,-0x290(%rbp)
   1596e:	00 00 00 00 
   15972:	48 8d 85 18 e8 ff ff 	lea    -0x17e8(%rbp),%rax
   15979:	48 89 85 78 fd ff ff 	mov    %rax,-0x288(%rbp)
   15980:	48 8d 85 18 e8 ff ff 	lea    -0x17e8(%rbp),%rax
   15987:	48 89 85 80 fd ff ff 	mov    %rax,-0x280(%rbp)
   1598e:	48 8d 85 18 e8 ff ff 	lea    -0x17e8(%rbp),%rax
   15995:	48 89 85 88 fd ff ff 	mov    %rax,-0x278(%rbp)
   1599c:	48 8d 85 18 e8 ff ff 	lea    -0x17e8(%rbp),%rax
   159a3:	48 89 85 90 fd ff ff 	mov    %rax,-0x270(%rbp)
   159aa:	48 8d 85 18 e8 ff ff 	lea    -0x17e8(%rbp),%rax
   159b1:	48 89 85 98 fd ff ff 	mov    %rax,-0x268(%rbp)
   159b8:	48 c7 85 a0 fd ff ff 	movq   $0x0,-0x260(%rbp)
   159bf:	00 00 00 00 
   159c3:	48 8d 85 18 e8 ff ff 	lea    -0x17e8(%rbp),%rax
   159ca:	48 89 85 a8 fd ff ff 	mov    %rax,-0x258(%rbp)
   159d1:	48 8d 85 18 e8 ff ff 	lea    -0x17e8(%rbp),%rax
   159d8:	48 89 85 b0 fd ff ff 	mov    %rax,-0x250(%rbp)
   159df:	48 8d 85 18 e8 ff ff 	lea    -0x17e8(%rbp),%rax
   159e6:	48 89 85 b8 fd ff ff 	mov    %rax,-0x248(%rbp)
   159ed:	48 8d 85 18 e8 ff ff 	lea    -0x17e8(%rbp),%rax
   159f4:	48 89 85 c0 fd ff ff 	mov    %rax,-0x240(%rbp)
   159fb:	48 8d 85 18 e8 ff ff 	lea    -0x17e8(%rbp),%rax
   15a02:	48 89 85 c8 fd ff ff 	mov    %rax,-0x238(%rbp)
   15a09:	48 8d 85 18 e8 ff ff 	lea    -0x17e8(%rbp),%rax
   15a10:	48 89 85 d0 fd ff ff 	mov    %rax,-0x230(%rbp)
   15a17:	48 8d 85 18 e8 ff ff 	lea    -0x17e8(%rbp),%rax
   15a1e:	48 89 85 d8 fd ff ff 	mov    %rax,-0x228(%rbp)
   15a25:	48 c7 85 e0 fd ff ff 	movq   $0x0,-0x220(%rbp)
   15a2c:	00 00 00 00 
   15a30:	48 8d 85 18 e8 ff ff 	lea    -0x17e8(%rbp),%rax
   15a37:	48 89 85 e8 fd ff ff 	mov    %rax,-0x218(%rbp)
   15a3e:	48 8d 85 18 e8 ff ff 	lea    -0x17e8(%rbp),%rax
   15a45:	48 89 85 f0 fd ff ff 	mov    %rax,-0x210(%rbp)
   15a4c:	48 8d 85 18 e8 ff ff 	lea    -0x17e8(%rbp),%rax
   15a53:	48 89 85 f8 fd ff ff 	mov    %rax,-0x208(%rbp)
   15a5a:	48 8d 85 18 e8 ff ff 	lea    -0x17e8(%rbp),%rax
   15a61:	48 89 85 00 fe ff ff 	mov    %rax,-0x200(%rbp)
   15a68:	48 c7 85 08 fe ff ff 	movq   $0x0,-0x1f8(%rbp)
   15a6f:	00 00 00 00 
   15a73:	48 8d 85 18 e8 ff ff 	lea    -0x17e8(%rbp),%rax
   15a7a:	48 89 85 10 fe ff ff 	mov    %rax,-0x1f0(%rbp)
   15a81:	48 8d 85 18 e8 ff ff 	lea    -0x17e8(%rbp),%rax
   15a88:	48 89 85 18 fe ff ff 	mov    %rax,-0x1e8(%rbp)
   15a8f:	48 8d 85 18 e8 ff ff 	lea    -0x17e8(%rbp),%rax
   15a96:	48 89 85 20 fe ff ff 	mov    %rax,-0x1e0(%rbp)
   15a9d:	48 c7 85 28 fe ff ff 	movq   $0x0,-0x1d8(%rbp)
   15aa4:	00 00 00 00 
   15aa8:	48 c7 85 30 fe ff ff 	movq   $0x0,-0x1d0(%rbp)
   15aaf:	00 00 00 00 
   15ab3:	48 8d 85 18 e8 ff ff 	lea    -0x17e8(%rbp),%rax
   15aba:	48 89 85 38 fe ff ff 	mov    %rax,-0x1c8(%rbp)
   15ac1:	48 8d 85 18 e8 ff ff 	lea    -0x17e8(%rbp),%rax
   15ac8:	48 89 85 40 fe ff ff 	mov    %rax,-0x1c0(%rbp)
   15acf:	48 8d 85 18 e8 ff ff 	lea    -0x17e8(%rbp),%rax
   15ad6:	48 89 85 48 fe ff ff 	mov    %rax,-0x1b8(%rbp)
   15add:	48 8d 85 18 e8 ff ff 	lea    -0x17e8(%rbp),%rax
   15ae4:	48 89 85 50 fe ff ff 	mov    %rax,-0x1b0(%rbp)
   15aeb:	48 8d 85 18 e8 ff ff 	lea    -0x17e8(%rbp),%rax
   15af2:	48 89 85 58 fe ff ff 	mov    %rax,-0x1a8(%rbp)
   15af9:	48 c7 85 60 fe ff ff 	movq   $0x0,-0x1a0(%rbp)
   15b00:	00 00 00 00 
   15b04:	48 c7 85 68 fe ff ff 	movq   $0x0,-0x198(%rbp)
   15b0b:	00 00 00 00 
   15b0f:	48 8d 85 18 e8 ff ff 	lea    -0x17e8(%rbp),%rax
   15b16:	48 89 85 70 fe ff ff 	mov    %rax,-0x190(%rbp)
   15b1d:	48 8d 85 18 e8 ff ff 	lea    -0x17e8(%rbp),%rax
   15b24:	48 89 85 78 fe ff ff 	mov    %rax,-0x188(%rbp)
   15b2b:	48 8d 85 18 e8 ff ff 	lea    -0x17e8(%rbp),%rax
   15b32:	48 89 85 80 fe ff ff 	mov    %rax,-0x180(%rbp)
   15b39:	48 8d 85 18 e8 ff ff 	lea    -0x17e8(%rbp),%rax
   15b40:	48 89 85 88 fe ff ff 	mov    %rax,-0x178(%rbp)
   15b47:	48 8d 85 18 e8 ff ff 	lea    -0x17e8(%rbp),%rax
   15b4e:	48 89 85 90 fe ff ff 	mov    %rax,-0x170(%rbp)
   15b55:	48 8d 85 18 e8 ff ff 	lea    -0x17e8(%rbp),%rax
   15b5c:	48 89 85 98 fe ff ff 	mov    %rax,-0x168(%rbp)
   15b63:	48 8d 85 18 e8 ff ff 	lea    -0x17e8(%rbp),%rax
   15b6a:	48 89 85 a0 fe ff ff 	mov    %rax,-0x160(%rbp)
   15b71:	48 8d 85 18 e8 ff ff 	lea    -0x17e8(%rbp),%rax
   15b78:	48 89 85 a8 fe ff ff 	mov    %rax,-0x158(%rbp)
   15b7f:	48 8d 85 18 e8 ff ff 	lea    -0x17e8(%rbp),%rax
   15b86:	48 89 85 b0 fe ff ff 	mov    %rax,-0x150(%rbp)
   15b8d:	48 8d 85 18 e8 ff ff 	lea    -0x17e8(%rbp),%rax
   15b94:	48 89 85 b8 fe ff ff 	mov    %rax,-0x148(%rbp)
   15b9b:	48 8d 85 18 e8 ff ff 	lea    -0x17e8(%rbp),%rax
   15ba2:	48 89 85 c0 fe ff ff 	mov    %rax,-0x140(%rbp)
   15ba9:	48 8d 85 18 e8 ff ff 	lea    -0x17e8(%rbp),%rax
   15bb0:	48 89 85 c8 fe ff ff 	mov    %rax,-0x138(%rbp)
   15bb7:	48 8d 85 18 e8 ff ff 	lea    -0x17e8(%rbp),%rax
   15bbe:	48 89 85 d0 fe ff ff 	mov    %rax,-0x130(%rbp)
   15bc5:	48 8d 85 18 e8 ff ff 	lea    -0x17e8(%rbp),%rax
   15bcc:	48 89 85 d8 fe ff ff 	mov    %rax,-0x128(%rbp)
   15bd3:	48 8d 85 18 e8 ff ff 	lea    -0x17e8(%rbp),%rax
   15bda:	48 89 85 e0 fe ff ff 	mov    %rax,-0x120(%rbp)
   15be1:	48 8d 85 18 e8 ff ff 	lea    -0x17e8(%rbp),%rax
   15be8:	48 89 85 e8 fe ff ff 	mov    %rax,-0x118(%rbp)
   15bef:	48 8d 85 18 e8 ff ff 	lea    -0x17e8(%rbp),%rax
   15bf6:	48 89 85 f0 fe ff ff 	mov    %rax,-0x110(%rbp)
   15bfd:	48 c7 85 f8 fe ff ff 	movq   $0x0,-0x108(%rbp)
   15c04:	00 00 00 00 
   15c08:	48 c7 85 00 ff ff ff 	movq   $0x0,-0x100(%rbp)
   15c0f:	00 00 00 00 
   15c13:	48 8d 85 18 e8 ff ff 	lea    -0x17e8(%rbp),%rax
   15c1a:	48 89 85 08 ff ff ff 	mov    %rax,-0xf8(%rbp)
   15c21:	48 8d 85 18 e8 ff ff 	lea    -0x17e8(%rbp),%rax
   15c28:	48 89 85 10 ff ff ff 	mov    %rax,-0xf0(%rbp)
   15c2f:	48 8d 85 18 e8 ff ff 	lea    -0x17e8(%rbp),%rax
   15c36:	48 89 85 18 ff ff ff 	mov    %rax,-0xe8(%rbp)
   15c3d:	48 c7 85 20 ff ff ff 	movq   $0x0,-0xe0(%rbp)
   15c44:	00 00 00 00 
   15c48:	48 8d 85 18 e8 ff ff 	lea    -0x17e8(%rbp),%rax
   15c4f:	48 89 85 28 ff ff ff 	mov    %rax,-0xd8(%rbp)
   15c56:	48 c7 85 30 ff ff ff 	movq   $0x0,-0xd0(%rbp)
   15c5d:	00 00 00 00 
   15c61:	48 8d 85 18 e8 ff ff 	lea    -0x17e8(%rbp),%rax
   15c68:	48 89 85 38 ff ff ff 	mov    %rax,-0xc8(%rbp)
   15c6f:	48 8d 85 18 e8 ff ff 	lea    -0x17e8(%rbp),%rax
   15c76:	48 89 85 40 ff ff ff 	mov    %rax,-0xc0(%rbp)
   15c7d:	48 8d 85 18 e8 ff ff 	lea    -0x17e8(%rbp),%rax
   15c84:	48 89 85 48 ff ff ff 	mov    %rax,-0xb8(%rbp)
   15c8b:	48 8d 85 18 e8 ff ff 	lea    -0x17e8(%rbp),%rax
   15c92:	48 89 85 50 ff ff ff 	mov    %rax,-0xb0(%rbp)
   15c99:	48 8d 85 18 e8 ff ff 	lea    -0x17e8(%rbp),%rax
   15ca0:	48 89 85 58 ff ff ff 	mov    %rax,-0xa8(%rbp)
   15ca7:	48 8d 85 18 e8 ff ff 	lea    -0x17e8(%rbp),%rax
   15cae:	48 89 85 60 ff ff ff 	mov    %rax,-0xa0(%rbp)
   15cb5:	48 8d 85 18 e8 ff ff 	lea    -0x17e8(%rbp),%rax
   15cbc:	48 89 85 68 ff ff ff 	mov    %rax,-0x98(%rbp)
   15cc3:	48 c7 85 70 ff ff ff 	movq   $0x0,-0x90(%rbp)
   15cca:	00 00 00 00 
   15cce:	48 8d 85 18 e8 ff ff 	lea    -0x17e8(%rbp),%rax
   15cd5:	48 89 85 78 ff ff ff 	mov    %rax,-0x88(%rbp)
   15cdc:	48 8d 85 18 e8 ff ff 	lea    -0x17e8(%rbp),%rax
   15ce3:	48 89 45 80          	mov    %rax,-0x80(%rbp)
   15ce7:	48 8d 85 18 e8 ff ff 	lea    -0x17e8(%rbp),%rax
   15cee:	48 89 45 88          	mov    %rax,-0x78(%rbp)
   15cf2:	48 8d 85 18 e8 ff ff 	lea    -0x17e8(%rbp),%rax
   15cf9:	48 89 45 90          	mov    %rax,-0x70(%rbp)
   15cfd:	48 c7 45 98 00 00 00 	movq   $0x0,-0x68(%rbp)
   15d04:	00 
   15d05:	48 c7 45 a0 00 00 00 	movq   $0x0,-0x60(%rbp)
   15d0c:	00 
   15d0d:	48 8d 85 18 e8 ff ff 	lea    -0x17e8(%rbp),%rax
   15d14:	48 89 45 a8          	mov    %rax,-0x58(%rbp)
   15d18:	48 c7 45 b0 00 00 00 	movq   $0x0,-0x50(%rbp)
   15d1f:	00 
   15d20:	48 8d 85 18 e8 ff ff 	lea    -0x17e8(%rbp),%rax
   15d27:	48 89 45 b8          	mov    %rax,-0x48(%rbp)
   15d2b:	48 8d 85 18 e8 ff ff 	lea    -0x17e8(%rbp),%rax
   15d32:	48 89 45 c0          	mov    %rax,-0x40(%rbp)
   15d36:	48 8d 85 18 e8 ff ff 	lea    -0x17e8(%rbp),%rax
   15d3d:	48 89 45 c8          	mov    %rax,-0x38(%rbp)
   15d41:	48 8d 85 18 e8 ff ff 	lea    -0x17e8(%rbp),%rax
   15d48:	48 89 45 d0          	mov    %rax,-0x30(%rbp)
   15d4c:	48 8d 85 18 e8 ff ff 	lea    -0x17e8(%rbp),%rax
   15d53:	48 89 45 d8          	mov    %rax,-0x28(%rbp)
   15d57:	c6 85 ba e7 ff ff 36 	movb   $0x36,-0x1846(%rbp)
   15d5e:	48 8d 05 3b ca 00 00 	lea    0xca3b(%rip),%rax        # 227a0 <g_505>
   15d65:	48 89 85 18 e9 ff ff 	mov    %rax,-0x16e8(%rbp)
   15d6c:	c6 85 bb e7 ff ff 14 	movb   $0x14,-0x1845(%rbp)
   15d73:	c7 85 d4 e7 ff ff 00 	movl   $0x0,-0x182c(%rbp)
   15d7a:	00 00 00 
   15d7d:	eb 45                	jmp    15dc4 <func_80+0x1e2b>
   15d7f:	c7 85 d8 e7 ff ff 00 	movl   $0x0,-0x1828(%rbp)
   15d86:	00 00 00 
   15d89:	eb 29                	jmp    15db4 <func_80+0x1e1b>
   15d8b:	8b 85 d8 e7 ff ff    	mov    -0x1828(%rbp),%eax
   15d91:	48 98                	cltq   
   15d93:	8b 95 d4 e7 ff ff    	mov    -0x182c(%rbp),%edx
   15d99:	48 63 d2             	movslq %edx,%rdx
   15d9c:	48 01 d2             	add    %rdx,%rdx
   15d9f:	48 01 d0             	add    %rdx,%rax
   15da2:	c7 84 85 40 e9 ff ff 	movl   $0xffffffff,-0x16c0(%rbp,%rax,4)
   15da9:	ff ff ff ff 
   15dad:	83 85 d8 e7 ff ff 01 	addl   $0x1,-0x1828(%rbp)
   15db4:	83 bd d8 e7 ff ff 01 	cmpl   $0x1,-0x1828(%rbp)
   15dbb:	7e ce                	jle    15d8b <func_80+0x1df2>
   15dbd:	83 85 d4 e7 ff ff 01 	addl   $0x1,-0x182c(%rbp)
   15dc4:	83 bd d4 e7 ff ff 04 	cmpl   $0x4,-0x182c(%rbp)
   15dcb:	7e b2                	jle    15d7f <func_80+0x1de6>
   15dcd:	0f b7 05 4e b3 00 00 	movzwl 0xb34e(%rip),%eax        # 21122 <g_117>
   15dd4:	83 c0 01             	add    $0x1,%eax
   15dd7:	66 89 05 44 b3 00 00 	mov    %ax,0xb344(%rip)        # 21122 <g_117>
   15dde:	0f b7 05 3d b3 00 00 	movzwl 0xb33d(%rip),%eax        # 21122 <g_117>
   15de5:	66 83 f8 13          	cmp    $0x13,%ax
   15de9:	0f 8e 94 f1 ff ff    	jle    14f83 <func_80+0xfea>
   15def:	48 8b 05 8a 19 01 00 	mov    0x1198a(%rip),%rax        # 27780 <g_182>
   15df6:	48 8b 5d e8          	mov    -0x18(%rbp),%rbx
   15dfa:	64 48 33 1c 25 28 00 	xor    %fs:0x28,%rbx
   15e01:	00 00 
   15e03:	74 05                	je     15e0a <func_80+0x1e71>
   15e05:	e8 66 32 ff ff       	callq  9070 <__stack_chk_fail@plt>
   15e0a:	48 81 c4 58 18 00 00 	add    $0x1858,%rsp
   15e11:	5b                   	pop    %rbx
   15e12:	5d                   	pop    %rbp
   15e13:	c3                   	retq   

0000000000015e14 <main>:
   15e14:	f3 0f 1e fa          	endbr64 
   15e18:	55                   	push   %rbp
   15e19:	48 89 e5             	mov    %rsp,%rbp
   15e1c:	48 83 ec 20          	sub    $0x20,%rsp
   15e20:	89 7d ec             	mov    %edi,-0x14(%rbp)
   15e23:	48 89 75 e0          	mov    %rsi,-0x20(%rbp)
   15e27:	c7 45 fc 00 00 00 00 	movl   $0x0,-0x4(%rbp)
   15e2e:	83 7d ec 02          	cmpl   $0x2,-0x14(%rbp)
   15e32:	75 25                	jne    15e59 <main+0x45>
   15e34:	48 8b 45 e0          	mov    -0x20(%rbp),%rax
   15e38:	48 83 c0 08          	add    $0x8,%rax
   15e3c:	48 8b 00             	mov    (%rax),%rax
   15e3f:	48 8d 35 92 71 00 00 	lea    0x7192(%rip),%rsi        # 1cfd8 <g_1254+0xf14>
   15e46:	48 89 c7             	mov    %rax,%rdi
   15e49:	e8 42 32 ff ff       	callq  9090 <strcmp@plt>
   15e4e:	85 c0                	test   %eax,%eax
   15e50:	75 07                	jne    15e59 <main+0x45>
   15e52:	c7 45 fc 01 00 00 00 	movl   $0x1,-0x4(%rbp)
   15e59:	e8 2b 33 ff ff       	callq  9189 <platform_main_begin>
   15e5e:	e8 35 47 ff ff       	callq  a598 <crc32_gentab>
   15e63:	e8 4d 49 ff ff       	callq  a7b5 <func_1>
   15e68:	8b 05 1a 32 01 00    	mov    0x1321a(%rip),%eax        # 29088 <g_2>
   15e6e:	48 98                	cltq   
   15e70:	8b 55 fc             	mov    -0x4(%rbp),%edx
   15e73:	48 8d 35 60 71 00 00 	lea    0x7160(%rip),%rsi        # 1cfda <g_1254+0xf16>
   15e7a:	48 89 c7             	mov    %rax,%rdi
   15e7d:	e8 71 48 ff ff       	callq  a6f3 <transparent_crc>
   15e82:	c7 45 f0 00 00 00 00 	movl   $0x0,-0x10(%rbp)
   15e89:	eb 4b                	jmp    15ed6 <main+0xc2>
   15e8b:	8b 45 f0             	mov    -0x10(%rbp),%eax
   15e8e:	48 98                	cltq   
   15e90:	48 8d 14 85 00 00 00 	lea    0x0(,%rax,4),%rdx
   15e97:	00 
   15e98:	48 8d 05 89 b1 00 00 	lea    0xb189(%rip),%rax        # 21028 <g_3>
   15e9f:	8b 04 02             	mov    (%rdx,%rax,1),%eax
   15ea2:	48 98                	cltq   
   15ea4:	8b 55 fc             	mov    -0x4(%rbp),%edx
   15ea7:	48 8d 35 30 71 00 00 	lea    0x7130(%rip),%rsi        # 1cfde <g_1254+0xf1a>
   15eae:	48 89 c7             	mov    %rax,%rdi
   15eb1:	e8 3d 48 ff ff       	callq  a6f3 <transparent_crc>
   15eb6:	83 7d fc 00          	cmpl   $0x0,-0x4(%rbp)
   15eba:	74 16                	je     15ed2 <main+0xbe>
   15ebc:	8b 45 f0             	mov    -0x10(%rbp),%eax
   15ebf:	89 c6                	mov    %eax,%esi
   15ec1:	48 8d 3d 1d 71 00 00 	lea    0x711d(%rip),%rdi        # 1cfe5 <g_1254+0xf21>
   15ec8:	b8 00 00 00 00       	mov    $0x0,%eax
   15ecd:	e8 ae 31 ff ff       	callq  9080 <printf@plt>
   15ed2:	83 45 f0 01          	addl   $0x1,-0x10(%rbp)
   15ed6:	83 7d f0 01          	cmpl   $0x1,-0x10(%rbp)
   15eda:	7e af                	jle    15e8b <main+0x77>
   15edc:	48 8b 05 4d b1 00 00 	mov    0xb14d(%rip),%rax        # 21030 <g_27>
   15ee3:	48 89 c1             	mov    %rax,%rcx
   15ee6:	8b 45 fc             	mov    -0x4(%rbp),%eax
   15ee9:	89 c2                	mov    %eax,%edx
   15eeb:	48 8d 35 01 71 00 00 	lea    0x7101(%rip),%rsi        # 1cff3 <g_1254+0xf2f>
   15ef2:	48 89 cf             	mov    %rcx,%rdi
   15ef5:	e8 f9 47 ff ff       	callq  a6f3 <transparent_crc>
   15efa:	c7 45 f0 00 00 00 00 	movl   $0x0,-0x10(%rbp)
   15f01:	eb 77                	jmp    15f7a <main+0x166>
   15f03:	c7 45 f4 00 00 00 00 	movl   $0x0,-0xc(%rbp)
   15f0a:	eb 64                	jmp    15f70 <main+0x15c>
   15f0c:	8b 45 f4             	mov    -0xc(%rbp),%eax
   15f0f:	48 63 c8             	movslq %eax,%rcx
   15f12:	8b 45 f0             	mov    -0x10(%rbp),%eax
   15f15:	48 63 d0             	movslq %eax,%rdx
   15f18:	48 89 d0             	mov    %rdx,%rax
   15f1b:	48 c1 e0 03          	shl    $0x3,%rax
   15f1f:	48 01 d0             	add    %rdx,%rax
   15f22:	48 01 c8             	add    %rcx,%rax
   15f25:	48 8d 14 85 00 00 00 	lea    0x0(,%rax,4),%rdx
   15f2c:	00 
   15f2d:	48 8d 05 0c b1 00 00 	lea    0xb10c(%rip),%rax        # 21040 <g_32>
   15f34:	8b 04 02             	mov    (%rdx,%rax,1),%eax
   15f37:	89 c1                	mov    %eax,%ecx
   15f39:	8b 45 fc             	mov    -0x4(%rbp),%eax
   15f3c:	89 c2                	mov    %eax,%edx
   15f3e:	48 8d 35 b3 70 00 00 	lea    0x70b3(%rip),%rsi        # 1cff8 <g_1254+0xf34>
   15f45:	48 89 cf             	mov    %rcx,%rdi
   15f48:	e8 a6 47 ff ff       	callq  a6f3 <transparent_crc>
   15f4d:	83 7d fc 00          	cmpl   $0x0,-0x4(%rbp)
   15f51:	74 19                	je     15f6c <main+0x158>
   15f53:	8b 55 f4             	mov    -0xc(%rbp),%edx
   15f56:	8b 45 f0             	mov    -0x10(%rbp),%eax
   15f59:	89 c6                	mov    %eax,%esi
   15f5b:	48 8d 3d a1 70 00 00 	lea    0x70a1(%rip),%rdi        # 1d003 <g_1254+0xf3f>
   15f62:	b8 00 00 00 00       	mov    $0x0,%eax
   15f67:	e8 14 31 ff ff       	callq  9080 <printf@plt>
   15f6c:	83 45 f4 01          	addl   $0x1,-0xc(%rbp)
   15f70:	83 7d f4 08          	cmpl   $0x8,-0xc(%rbp)
   15f74:	7e 96                	jle    15f0c <main+0xf8>
   15f76:	83 45 f0 01          	addl   $0x1,-0x10(%rbp)
   15f7a:	83 7d f0 05          	cmpl   $0x5,-0x10(%rbp)
   15f7e:	7e 83                	jle    15f03 <main+0xef>
   15f80:	8b 05 92 b1 00 00    	mov    0xb192(%rip),%eax        # 21118 <g_34>
   15f86:	48 98                	cltq   
   15f88:	8b 55 fc             	mov    -0x4(%rbp),%edx
   15f8b:	48 8d 35 83 70 00 00 	lea    0x7083(%rip),%rsi        # 1d015 <g_1254+0xf51>
   15f92:	48 89 c7             	mov    %rax,%rdi
   15f95:	e8 59 47 ff ff       	callq  a6f3 <transparent_crc>
   15f9a:	c7 45 f0 00 00 00 00 	movl   $0x0,-0x10(%rbp)
   15fa1:	eb 45                	jmp    15fe8 <main+0x1d4>
   15fa3:	8b 45 f0             	mov    -0x10(%rbp),%eax
   15fa6:	48 98                	cltq   
   15fa8:	48 8d 15 6d b1 00 00 	lea    0xb16d(%rip),%rdx        # 2111c <g_108>
   15faf:	0f b6 04 10          	movzbl (%rax,%rdx,1),%eax
   15fb3:	0f b6 c0             	movzbl %al,%eax
   15fb6:	8b 55 fc             	mov    -0x4(%rbp),%edx
   15fb9:	48 8d 35 5a 70 00 00 	lea    0x705a(%rip),%rsi        # 1d01a <g_1254+0xf56>
   15fc0:	48 89 c7             	mov    %rax,%rdi
   15fc3:	e8 2b 47 ff ff       	callq  a6f3 <transparent_crc>
   15fc8:	83 7d fc 00          	cmpl   $0x0,-0x4(%rbp)
   15fcc:	74 16                	je     15fe4 <main+0x1d0>
   15fce:	8b 45 f0             	mov    -0x10(%rbp),%eax
   15fd1:	89 c6                	mov    %eax,%esi
   15fd3:	48 8d 3d 0b 70 00 00 	lea    0x700b(%rip),%rdi        # 1cfe5 <g_1254+0xf21>
   15fda:	b8 00 00 00 00       	mov    $0x0,%eax
   15fdf:	e8 9c 30 ff ff       	callq  9080 <printf@plt>
   15fe4:	83 45 f0 01          	addl   $0x1,-0x10(%rbp)
   15fe8:	83 7d f0 05          	cmpl   $0x5,-0x10(%rbp)
   15fec:	7e b5                	jle    15fa3 <main+0x18f>
   15fee:	0f b7 05 2d b1 00 00 	movzwl 0xb12d(%rip),%eax        # 21122 <g_117>
   15ff5:	48 0f bf c0          	movswq %ax,%rax
   15ff9:	8b 55 fc             	mov    -0x4(%rbp),%edx
   15ffc:	48 8d 35 20 70 00 00 	lea    0x7020(%rip),%rsi        # 1d023 <g_1254+0xf5f>
   16003:	48 89 c7             	mov    %rax,%rdi
   16006:	e8 e8 46 ff ff       	callq  a6f3 <transparent_crc>
   1600b:	c7 45 f0 00 00 00 00 	movl   $0x0,-0x10(%rbp)
   16012:	eb 4f                	jmp    16063 <main+0x24f>
   16014:	8b 45 f0             	mov    -0x10(%rbp),%eax
   16017:	48 98                	cltq   
   16019:	48 8d 14 c5 00 00 00 	lea    0x0(,%rax,8),%rdx
   16020:	00 
   16021:	48 8d 05 08 b1 00 00 	lea    0xb108(%rip),%rax        # 21130 <g_137>
   16028:	48 8b 04 02          	mov    (%rdx,%rax,1),%rax
   1602c:	48 89 c1             	mov    %rax,%rcx
   1602f:	8b 45 fc             	mov    -0x4(%rbp),%eax
   16032:	89 c2                	mov    %eax,%edx
   16034:	48 8d 35 ee 6f 00 00 	lea    0x6fee(%rip),%rsi        # 1d029 <g_1254+0xf65>
   1603b:	48 89 cf             	mov    %rcx,%rdi
   1603e:	e8 b0 46 ff ff       	callq  a6f3 <transparent_crc>
   16043:	83 7d fc 00          	cmpl   $0x0,-0x4(%rbp)
   16047:	74 16                	je     1605f <main+0x24b>
   16049:	8b 45 f0             	mov    -0x10(%rbp),%eax
   1604c:	89 c6                	mov    %eax,%esi
   1604e:	48 8d 3d 90 6f 00 00 	lea    0x6f90(%rip),%rdi        # 1cfe5 <g_1254+0xf21>
   16055:	b8 00 00 00 00       	mov    $0x0,%eax
   1605a:	e8 21 30 ff ff       	callq  9080 <printf@plt>
   1605f:	83 45 f0 01          	addl   $0x1,-0x10(%rbp)
   16063:	83 7d f0 01          	cmpl   $0x1,-0x10(%rbp)
   16067:	7e ab                	jle    16014 <main+0x200>
   16069:	0f b7 05 d0 b0 00 00 	movzwl 0xb0d0(%rip),%eax        # 21140 <g_141>
   16070:	48 0f bf c0          	movswq %ax,%rax
   16074:	8b 55 fc             	mov    -0x4(%rbp),%edx
   16077:	48 8d 35 b4 6f 00 00 	lea    0x6fb4(%rip),%rsi        # 1d032 <g_1254+0xf6e>
   1607e:	48 89 c7             	mov    %rax,%rdi
   16081:	e8 6d 46 ff ff       	callq  a6f3 <transparent_crc>
   16086:	c7 45 f0 00 00 00 00 	movl   $0x0,-0x10(%rbp)
   1608d:	eb 49                	jmp    160d8 <main+0x2c4>
   1608f:	8b 45 f0             	mov    -0x10(%rbp),%eax
   16092:	48 98                	cltq   
   16094:	48 8d 14 00          	lea    (%rax,%rax,1),%rdx
   16098:	48 8d 05 a3 b0 00 00 	lea    0xb0a3(%rip),%rax        # 21142 <g_180>
   1609f:	0f b7 04 02          	movzwl (%rdx,%rax,1),%eax
   160a3:	0f b7 c0             	movzwl %ax,%eax
   160a6:	8b 55 fc             	mov    -0x4(%rbp),%edx
   160a9:	48 8d 35 88 6f 00 00 	lea    0x6f88(%rip),%rsi        # 1d038 <g_1254+0xf74>
   160b0:	48 89 c7             	mov    %rax,%rdi
   160b3:	e8 3b 46 ff ff       	callq  a6f3 <transparent_crc>
   160b8:	83 7d fc 00          	cmpl   $0x0,-0x4(%rbp)
   160bc:	74 16                	je     160d4 <main+0x2c0>
   160be:	8b 45 f0             	mov    -0x10(%rbp),%eax
   160c1:	89 c6                	mov    %eax,%esi
   160c3:	48 8d 3d 1b 6f 00 00 	lea    0x6f1b(%rip),%rdi        # 1cfe5 <g_1254+0xf21>
   160ca:	b8 00 00 00 00       	mov    $0x0,%eax
   160cf:	e8 ac 2f ff ff       	callq  9080 <printf@plt>
   160d4:	83 45 f0 01          	addl   $0x1,-0x10(%rbp)
   160d8:	83 7d f0 00          	cmpl   $0x0,-0x10(%rbp)
   160dc:	7e b1                	jle    1608f <main+0x27b>
   160de:	c7 45 f0 00 00 00 00 	movl   $0x0,-0x10(%rbp)
   160e5:	e9 78 02 00 00       	jmpq   16362 <main+0x54e>
   160ea:	c7 45 f4 00 00 00 00 	movl   $0x0,-0xc(%rbp)
   160f1:	e9 5e 02 00 00       	jmpq   16354 <main+0x540>
   160f6:	8b 45 f4             	mov    -0xc(%rbp),%eax
   160f9:	48 63 d0             	movslq %eax,%rdx
   160fc:	8b 45 f0             	mov    -0x10(%rbp),%eax
   160ff:	48 63 c8             	movslq %eax,%rcx
   16102:	48 89 d0             	mov    %rdx,%rax
   16105:	48 c1 e0 02          	shl    $0x2,%rax
   16109:	48 01 d0             	add    %rdx,%rax
   1610c:	48 c1 e0 02          	shl    $0x2,%rax
   16110:	48 89 ca             	mov    %rcx,%rdx
   16113:	48 c1 e2 04          	shl    $0x4,%rdx
   16117:	48 29 ca             	sub    %rcx,%rdx
   1611a:	48 c1 e2 02          	shl    $0x2,%rdx
   1611e:	48 01 c2             	add    %rax,%rdx
   16121:	48 8d 05 38 b0 00 00 	lea    0xb038(%rip),%rax        # 21160 <g_183>
   16128:	48 01 d0             	add    %rdx,%rax
   1612b:	8b 00                	mov    (%rax),%eax
   1612d:	c1 e0 06             	shl    $0x6,%eax
   16130:	c1 f8 06             	sar    $0x6,%eax
   16133:	48 98                	cltq   
   16135:	8b 55 fc             	mov    -0x4(%rbp),%edx
   16138:	48 8d 35 02 6f 00 00 	lea    0x6f02(%rip),%rsi        # 1d041 <g_1254+0xf7d>
   1613f:	48 89 c7             	mov    %rax,%rdi
   16142:	e8 ac 45 ff ff       	callq  a6f3 <transparent_crc>
   16147:	8b 45 f4             	mov    -0xc(%rbp),%eax
   1614a:	48 63 d0             	movslq %eax,%rdx
   1614d:	8b 45 f0             	mov    -0x10(%rbp),%eax
   16150:	48 63 c8             	movslq %eax,%rcx
   16153:	48 89 d0             	mov    %rdx,%rax
   16156:	48 c1 e0 02          	shl    $0x2,%rax
   1615a:	48 01 d0             	add    %rdx,%rax
   1615d:	48 c1 e0 02          	shl    $0x2,%rax
   16161:	48 89 ca             	mov    %rcx,%rdx
   16164:	48 c1 e2 04          	shl    $0x4,%rdx
   16168:	48 29 ca             	sub    %rcx,%rdx
   1616b:	48 c1 e2 02          	shl    $0x2,%rdx
   1616f:	48 01 c2             	add    %rax,%rdx
   16172:	48 8d 05 eb af 00 00 	lea    0xafeb(%rip),%rax        # 21164 <g_183+0x4>
   16179:	48 01 d0             	add    %rdx,%rax
   1617c:	0f b6 00             	movzbl (%rax),%eax
   1617f:	48 0f be c0          	movsbq %al,%rax
   16183:	8b 55 fc             	mov    -0x4(%rbp),%edx
   16186:	48 8d 35 c3 6e 00 00 	lea    0x6ec3(%rip),%rsi        # 1d050 <g_1254+0xf8c>
   1618d:	48 89 c7             	mov    %rax,%rdi
   16190:	e8 5e 45 ff ff       	callq  a6f3 <transparent_crc>
   16195:	8b 45 f4             	mov    -0xc(%rbp),%eax
   16198:	48 63 d0             	movslq %eax,%rdx
   1619b:	8b 45 f0             	mov    -0x10(%rbp),%eax
   1619e:	48 63 c8             	movslq %eax,%rcx
   161a1:	48 89 d0             	mov    %rdx,%rax
   161a4:	48 c1 e0 02          	shl    $0x2,%rax
   161a8:	48 01 d0             	add    %rdx,%rax
   161ab:	48 c1 e0 02          	shl    $0x2,%rax
   161af:	48 89 ca             	mov    %rcx,%rdx
   161b2:	48 c1 e2 04          	shl    $0x4,%rdx
   161b6:	48 29 ca             	sub    %rcx,%rdx
   161b9:	48 c1 e2 02          	shl    $0x2,%rdx
   161bd:	48 01 c2             	add    %rax,%rdx
   161c0:	48 8d 05 99 af 00 00 	lea    0xaf99(%rip),%rax        # 21160 <g_183>
   161c7:	48 01 d0             	add    %rdx,%rax
   161ca:	8b 40 04             	mov    0x4(%rax),%eax
   161cd:	c1 e0 05             	shl    $0x5,%eax
   161d0:	c1 f8 0d             	sar    $0xd,%eax
   161d3:	48 98                	cltq   
   161d5:	8b 55 fc             	mov    -0x4(%rbp),%edx
   161d8:	48 8d 35 80 6e 00 00 	lea    0x6e80(%rip),%rsi        # 1d05f <g_1254+0xf9b>
   161df:	48 89 c7             	mov    %rax,%rdi
   161e2:	e8 0c 45 ff ff       	callq  a6f3 <transparent_crc>
   161e7:	8b 45 f4             	mov    -0xc(%rbp),%eax
   161ea:	48 63 d0             	movslq %eax,%rdx
   161ed:	8b 45 f0             	mov    -0x10(%rbp),%eax
   161f0:	48 63 c8             	movslq %eax,%rcx
   161f3:	48 89 d0             	mov    %rdx,%rax
   161f6:	48 c1 e0 02          	shl    $0x2,%rax
   161fa:	48 01 d0             	add    %rdx,%rax
   161fd:	48 c1 e0 02          	shl    $0x2,%rax
   16201:	48 89 ca             	mov    %rcx,%rdx
   16204:	48 c1 e2 04          	shl    $0x4,%rdx
   16208:	48 29 ca             	sub    %rcx,%rdx
   1620b:	48 c1 e2 02          	shl    $0x2,%rdx
   1620f:	48 01 c2             	add    %rax,%rdx
   16212:	48 8d 05 47 af 00 00 	lea    0xaf47(%rip),%rax        # 21160 <g_183>
   16219:	48 01 d0             	add    %rdx,%rax
   1621c:	8b 40 08             	mov    0x8(%rax),%eax
   1621f:	c1 e0 06             	shl    $0x6,%eax
   16222:	c1 f8 06             	sar    $0x6,%eax
   16225:	48 98                	cltq   
   16227:	8b 55 fc             	mov    -0x4(%rbp),%edx
   1622a:	48 8d 35 3d 6e 00 00 	lea    0x6e3d(%rip),%rsi        # 1d06e <g_1254+0xfaa>
   16231:	48 89 c7             	mov    %rax,%rdi
   16234:	e8 ba 44 ff ff       	callq  a6f3 <transparent_crc>
   16239:	8b 45 f4             	mov    -0xc(%rbp),%eax
   1623c:	48 63 d0             	movslq %eax,%rdx
   1623f:	8b 45 f0             	mov    -0x10(%rbp),%eax
   16242:	48 63 c8             	movslq %eax,%rcx
   16245:	48 89 d0             	mov    %rdx,%rax
   16248:	48 c1 e0 02          	shl    $0x2,%rax
   1624c:	48 01 d0             	add    %rdx,%rax
   1624f:	48 c1 e0 02          	shl    $0x2,%rax
   16253:	48 89 ca             	mov    %rcx,%rdx
   16256:	48 c1 e2 04          	shl    $0x4,%rdx
   1625a:	48 29 ca             	sub    %rcx,%rdx
   1625d:	48 c1 e2 02          	shl    $0x2,%rdx
   16261:	48 01 c2             	add    %rax,%rdx
   16264:	48 8d 05 f5 ae 00 00 	lea    0xaef5(%rip),%rax        # 21160 <g_183>
   1626b:	48 01 d0             	add    %rdx,%rax
   1626e:	0f b6 40 0b          	movzbl 0xb(%rax),%eax
   16272:	c1 e0 04             	shl    $0x4,%eax
   16275:	c0 f8 06             	sar    $0x6,%al
   16278:	48 0f be c0          	movsbq %al,%rax
   1627c:	8b 55 fc             	mov    -0x4(%rbp),%edx
   1627f:	48 8d 35 f7 6d 00 00 	lea    0x6df7(%rip),%rsi        # 1d07d <g_1254+0xfb9>
   16286:	48 89 c7             	mov    %rax,%rdi
   16289:	e8 65 44 ff ff       	callq  a6f3 <transparent_crc>
   1628e:	8b 45 f4             	mov    -0xc(%rbp),%eax
   16291:	48 63 d0             	movslq %eax,%rdx
   16294:	8b 45 f0             	mov    -0x10(%rbp),%eax
   16297:	48 63 c8             	movslq %eax,%rcx
   1629a:	48 89 d0             	mov    %rdx,%rax
   1629d:	48 c1 e0 02          	shl    $0x2,%rax
   162a1:	48 01 d0             	add    %rdx,%rax
   162a4:	48 c1 e0 02          	shl    $0x2,%rax
   162a8:	48 89 ca             	mov    %rcx,%rdx
   162ab:	48 c1 e2 04          	shl    $0x4,%rdx
   162af:	48 29 ca             	sub    %rcx,%rdx
   162b2:	48 c1 e2 02          	shl    $0x2,%rdx
   162b6:	48 01 c2             	add    %rax,%rdx
   162b9:	48 8d 05 a0 ae 00 00 	lea    0xaea0(%rip),%rax        # 21160 <g_183>
   162c0:	48 01 d0             	add    %rdx,%rax
   162c3:	8b 40 0c             	mov    0xc(%rax),%eax
   162c6:	c1 e0 0c             	shl    $0xc,%eax
   162c9:	c1 f8 0c             	sar    $0xc,%eax
   162cc:	48 98                	cltq   
   162ce:	8b 55 fc             	mov    -0x4(%rbp),%edx
   162d1:	48 8d 35 b4 6d 00 00 	lea    0x6db4(%rip),%rsi        # 1d08c <g_1254+0xfc8>
   162d8:	48 89 c7             	mov    %rax,%rdi
   162db:	e8 13 44 ff ff       	callq  a6f3 <transparent_crc>
   162e0:	8b 45 f4             	mov    -0xc(%rbp),%eax
   162e3:	48 63 d0             	movslq %eax,%rdx
   162e6:	8b 45 f0             	mov    -0x10(%rbp),%eax
   162e9:	48 63 c8             	movslq %eax,%rcx
   162ec:	48 89 d0             	mov    %rdx,%rax
   162ef:	48 c1 e0 02          	shl    $0x2,%rax
   162f3:	48 01 d0             	add    %rdx,%rax
   162f6:	48 c1 e0 02          	shl    $0x2,%rax
   162fa:	48 89 ca             	mov    %rcx,%rdx
   162fd:	48 c1 e2 04          	shl    $0x4,%rdx
   16301:	48 29 ca             	sub    %rcx,%rdx
   16304:	48 c1 e2 02          	shl    $0x2,%rdx
   16308:	48 01 c2             	add    %rax,%rdx
   1630b:	48 8d 05 5e ae 00 00 	lea    0xae5e(%rip),%rax        # 21170 <g_183+0x10>
   16312:	48 01 d0             	add    %rdx,%rax
   16315:	8b 00                	mov    (%rax),%eax
   16317:	c1 e0 0d             	shl    $0xd,%eax
   1631a:	c1 f8 0d             	sar    $0xd,%eax
   1631d:	48 98                	cltq   
   1631f:	8b 55 fc             	mov    -0x4(%rbp),%edx
   16322:	48 8d 35 72 6d 00 00 	lea    0x6d72(%rip),%rsi        # 1d09b <g_1254+0xfd7>
   16329:	48 89 c7             	mov    %rax,%rdi
   1632c:	e8 c2 43 ff ff       	callq  a6f3 <transparent_crc>
   16331:	83 7d fc 00          	cmpl   $0x0,-0x4(%rbp)
   16335:	74 19                	je     16350 <main+0x53c>
   16337:	8b 55 f4             	mov    -0xc(%rbp),%edx
   1633a:	8b 45 f0             	mov    -0x10(%rbp),%eax
   1633d:	89 c6                	mov    %eax,%esi
   1633f:	48 8d 3d bd 6c 00 00 	lea    0x6cbd(%rip),%rdi        # 1d003 <g_1254+0xf3f>
   16346:	b8 00 00 00 00       	mov    $0x0,%eax
   1634b:	e8 30 2d ff ff       	callq  9080 <printf@plt>
   16350:	83 45 f4 01          	addl   $0x1,-0xc(%rbp)
   16354:	83 7d f4 02          	cmpl   $0x2,-0xc(%rbp)
   16358:	0f 8e 98 fd ff ff    	jle    160f6 <main+0x2e2>
   1635e:	83 45 f0 01          	addl   $0x1,-0x10(%rbp)
   16362:	83 7d f0 02          	cmpl   $0x2,-0x10(%rbp)
   16366:	0f 8e 7e fd ff ff    	jle    160ea <main+0x2d6>
   1636c:	0f b6 05 a5 ae 00 00 	movzbl 0xaea5(%rip),%eax        # 21218 <g_185>
   16373:	0f b6 c0             	movzbl %al,%eax
   16376:	8b 55 fc             	mov    -0x4(%rbp),%edx
   16379:	48 8d 35 2a 6d 00 00 	lea    0x6d2a(%rip),%rsi        # 1d0aa <g_1254+0xfe6>
   16380:	48 89 c7             	mov    %rax,%rdi
   16383:	e8 6b 43 ff ff       	callq  a6f3 <transparent_crc>
   16388:	0f b6 05 8a ae 00 00 	movzbl 0xae8a(%rip),%eax        # 21219 <g_185+0x1>
   1638f:	0f b6 c0             	movzbl %al,%eax
   16392:	8b 55 fc             	mov    -0x4(%rbp),%edx
   16395:	48 8d 35 17 6d 00 00 	lea    0x6d17(%rip),%rsi        # 1d0b3 <g_1254+0xfef>
   1639c:	48 89 c7             	mov    %rax,%rdi
   1639f:	e8 4f 43 ff ff       	callq  a6f3 <transparent_crc>
   163a4:	8b 05 72 ae 00 00    	mov    0xae72(%rip),%eax        # 2121c <g_185+0x4>
   163aa:	89 c1                	mov    %eax,%ecx
   163ac:	8b 45 fc             	mov    -0x4(%rbp),%eax
   163af:	89 c2                	mov    %eax,%edx
   163b1:	48 8d 35 04 6d 00 00 	lea    0x6d04(%rip),%rsi        # 1d0bc <g_1254+0xff8>
   163b8:	48 89 cf             	mov    %rcx,%rdi
   163bb:	e8 33 43 ff ff       	callq  a6f3 <transparent_crc>
   163c0:	0f b7 05 59 ae 00 00 	movzwl 0xae59(%rip),%eax        # 21220 <g_185+0x8>
   163c7:	0f b7 c0             	movzwl %ax,%eax
   163ca:	8b 55 fc             	mov    -0x4(%rbp),%edx
   163cd:	48 8d 35 f1 6c 00 00 	lea    0x6cf1(%rip),%rsi        # 1d0c5 <g_1254+0x1001>
   163d4:	48 89 c7             	mov    %rax,%rdi
   163d7:	e8 17 43 ff ff       	callq  a6f3 <transparent_crc>
   163dc:	0f b7 05 41 ae 00 00 	movzwl 0xae41(%rip),%eax        # 21224 <g_197>
   163e3:	0f b7 c0             	movzwl %ax,%eax
   163e6:	8b 55 fc             	mov    -0x4(%rbp),%edx
   163e9:	48 8d 35 de 6c 00 00 	lea    0x6cde(%rip),%rsi        # 1d0ce <g_1254+0x100a>
   163f0:	48 89 c7             	mov    %rax,%rdi
   163f3:	e8 fb 42 ff ff       	callq  a6f3 <transparent_crc>
   163f8:	c7 45 f0 00 00 00 00 	movl   $0x0,-0x10(%rbp)
   163ff:	eb 6a                	jmp    1646b <main+0x657>
   16401:	c7 45 f4 00 00 00 00 	movl   $0x0,-0xc(%rbp)
   16408:	eb 57                	jmp    16461 <main+0x64d>
   1640a:	8b 45 f4             	mov    -0xc(%rbp),%eax
   1640d:	48 98                	cltq   
   1640f:	8b 55 f0             	mov    -0x10(%rbp),%edx
   16412:	48 63 d2             	movslq %edx,%rdx
   16415:	48 01 d2             	add    %rdx,%rdx
   16418:	48 01 c2             	add    %rax,%rdx
   1641b:	48 8d 05 04 ae 00 00 	lea    0xae04(%rip),%rax        # 21226 <g_244>
   16422:	48 01 d0             	add    %rdx,%rax
   16425:	0f b6 00             	movzbl (%rax),%eax
   16428:	48 0f be c0          	movsbq %al,%rax
   1642c:	8b 55 fc             	mov    -0x4(%rbp),%edx
   1642f:	48 8d 35 9e 6c 00 00 	lea    0x6c9e(%rip),%rsi        # 1d0d4 <g_1254+0x1010>
   16436:	48 89 c7             	mov    %rax,%rdi
   16439:	e8 b5 42 ff ff       	callq  a6f3 <transparent_crc>
   1643e:	83 7d fc 00          	cmpl   $0x0,-0x4(%rbp)
   16442:	74 19                	je     1645d <main+0x649>
   16444:	8b 55 f4             	mov    -0xc(%rbp),%edx
   16447:	8b 45 f0             	mov    -0x10(%rbp),%eax
   1644a:	89 c6                	mov    %eax,%esi
   1644c:	48 8d 3d b0 6b 00 00 	lea    0x6bb0(%rip),%rdi        # 1d003 <g_1254+0xf3f>
   16453:	b8 00 00 00 00       	mov    $0x0,%eax
   16458:	e8 23 2c ff ff       	callq  9080 <printf@plt>
   1645d:	83 45 f4 01          	addl   $0x1,-0xc(%rbp)
   16461:	83 7d f4 01          	cmpl   $0x1,-0xc(%rbp)
   16465:	7e a3                	jle    1640a <main+0x5f6>
   16467:	83 45 f0 01          	addl   $0x1,-0x10(%rbp)
   1646b:	83 7d f0 02          	cmpl   $0x2,-0x10(%rbp)
   1646f:	7e 90                	jle    16401 <main+0x5ed>
   16471:	0f b6 05 b4 ad 00 00 	movzbl 0xadb4(%rip),%eax        # 2122c <g_256>
   16478:	48 0f be c0          	movsbq %al,%rax
   1647c:	8b 55 fc             	mov    -0x4(%rbp),%edx
   1647f:	48 8d 35 5a 6c 00 00 	lea    0x6c5a(%rip),%rsi        # 1d0e0 <g_1254+0x101c>
   16486:	48 89 c7             	mov    %rax,%rdi
   16489:	e8 65 42 ff ff       	callq  a6f3 <transparent_crc>
   1648e:	8b 05 f8 2b 01 00    	mov    0x12bf8(%rip),%eax        # 2908c <g_329>
   16494:	89 c1                	mov    %eax,%ecx
   16496:	8b 45 fc             	mov    -0x4(%rbp),%eax
   16499:	89 c2                	mov    %eax,%edx
   1649b:	48 8d 35 44 6c 00 00 	lea    0x6c44(%rip),%rsi        # 1d0e6 <g_1254+0x1022>
   164a2:	48 89 cf             	mov    %rcx,%rdi
   164a5:	e8 49 42 ff ff       	callq  a6f3 <transparent_crc>
   164aa:	c7 45 f0 00 00 00 00 	movl   $0x0,-0x10(%rbp)
   164b1:	e9 b4 00 00 00       	jmpq   1656a <main+0x756>
   164b6:	c7 45 f4 00 00 00 00 	movl   $0x0,-0xc(%rbp)
   164bd:	e9 9a 00 00 00       	jmpq   1655c <main+0x748>
   164c2:	c7 45 f8 00 00 00 00 	movl   $0x0,-0x8(%rbp)
   164c9:	e9 80 00 00 00       	jmpq   1654e <main+0x73a>
   164ce:	8b 45 f8             	mov    -0x8(%rbp),%eax
   164d1:	48 63 f0             	movslq %eax,%rsi
   164d4:	8b 45 f0             	mov    -0x10(%rbp),%eax
   164d7:	48 98                	cltq   
   164d9:	8b 55 f4             	mov    -0xc(%rbp),%edx
   164dc:	48 63 ca             	movslq %edx,%rcx
   164df:	48 89 c2             	mov    %rax,%rdx
   164e2:	48 c1 e2 04          	shl    $0x4,%rdx
   164e6:	48 29 c2             	sub    %rax,%rdx
   164e9:	48 8d 04 12          	lea    (%rdx,%rdx,1),%rax
   164ed:	48 89 c2             	mov    %rax,%rdx
   164f0:	48 89 c8             	mov    %rcx,%rax
   164f3:	48 c1 e0 02          	shl    $0x2,%rax
   164f7:	48 01 c8             	add    %rcx,%rax
   164fa:	48 01 c0             	add    %rax,%rax
   164fd:	48 01 d0             	add    %rdx,%rax
   16500:	48 01 f0             	add    %rsi,%rax
   16503:	48 8d 14 c5 00 00 00 	lea    0x0(,%rax,8),%rdx
   1650a:	00 
   1650b:	48 8d 05 2e ad 00 00 	lea    0xad2e(%rip),%rax        # 21240 <g_353>
   16512:	48 8b 04 02          	mov    (%rdx,%rax,1),%rax
   16516:	8b 55 fc             	mov    -0x4(%rbp),%edx
   16519:	48 8d 35 cc 6b 00 00 	lea    0x6bcc(%rip),%rsi        # 1d0ec <g_1254+0x1028>
   16520:	48 89 c7             	mov    %rax,%rdi
   16523:	e8 cb 41 ff ff       	callq  a6f3 <transparent_crc>
   16528:	83 7d fc 00          	cmpl   $0x0,-0x4(%rbp)
   1652c:	74 1c                	je     1654a <main+0x736>
   1652e:	8b 4d f8             	mov    -0x8(%rbp),%ecx
   16531:	8b 55 f4             	mov    -0xc(%rbp),%edx
   16534:	8b 45 f0             	mov    -0x10(%rbp),%eax
   16537:	89 c6                	mov    %eax,%esi
   16539:	48 8d 3d bb 6b 00 00 	lea    0x6bbb(%rip),%rdi        # 1d0fb <g_1254+0x1037>
   16540:	b8 00 00 00 00       	mov    $0x0,%eax
   16545:	e8 36 2b ff ff       	callq  9080 <printf@plt>
   1654a:	83 45 f8 01          	addl   $0x1,-0x8(%rbp)
   1654e:	83 7d f8 09          	cmpl   $0x9,-0x8(%rbp)
   16552:	0f 8e 76 ff ff ff    	jle    164ce <main+0x6ba>
   16558:	83 45 f4 01          	addl   $0x1,-0xc(%rbp)
   1655c:	83 7d f4 02          	cmpl   $0x2,-0xc(%rbp)
   16560:	0f 8e 5c ff ff ff    	jle    164c2 <main+0x6ae>
   16566:	83 45 f0 01          	addl   $0x1,-0x10(%rbp)
   1656a:	83 7d f0 03          	cmpl   $0x3,-0x10(%rbp)
   1656e:	0f 8e 42 ff ff ff    	jle    164b6 <main+0x6a2>
   16574:	0f b6 05 85 b0 00 00 	movzbl 0xb085(%rip),%eax        # 21600 <g_409>
   1657b:	48 0f be c0          	movsbq %al,%rax
   1657f:	8b 55 fc             	mov    -0x4(%rbp),%edx
   16582:	48 8d 35 88 6b 00 00 	lea    0x6b88(%rip),%rsi        # 1d111 <g_1254+0x104d>
   16589:	48 89 c7             	mov    %rax,%rdi
   1658c:	e8 62 41 ff ff       	callq  a6f3 <transparent_crc>
   16591:	8b 05 79 b0 00 00    	mov    0xb079(%rip),%eax        # 21610 <g_441>
   16597:	c1 e0 06             	shl    $0x6,%eax
   1659a:	c1 f8 06             	sar    $0x6,%eax
   1659d:	48 98                	cltq   
   1659f:	8b 55 fc             	mov    -0x4(%rbp),%edx
   165a2:	48 8d 35 6e 6b 00 00 	lea    0x6b6e(%rip),%rsi        # 1d117 <g_1254+0x1053>
   165a9:	48 89 c7             	mov    %rax,%rdi
   165ac:	e8 42 41 ff ff       	callq  a6f3 <transparent_crc>
   165b1:	0f b6 05 5c b0 00 00 	movzbl 0xb05c(%rip),%eax        # 21614 <g_441+0x4>
   165b8:	48 0f be c0          	movsbq %al,%rax
   165bc:	8b 55 fc             	mov    -0x4(%rbp),%edx
   165bf:	48 8d 35 5a 6b 00 00 	lea    0x6b5a(%rip),%rsi        # 1d120 <g_1254+0x105c>
   165c6:	48 89 c7             	mov    %rax,%rdi
   165c9:	e8 25 41 ff ff       	callq  a6f3 <transparent_crc>
   165ce:	8b 05 40 b0 00 00    	mov    0xb040(%rip),%eax        # 21614 <g_441+0x4>
   165d4:	c1 e0 05             	shl    $0x5,%eax
   165d7:	c1 f8 0d             	sar    $0xd,%eax
   165da:	48 98                	cltq   
   165dc:	8b 55 fc             	mov    -0x4(%rbp),%edx
   165df:	48 8d 35 43 6b 00 00 	lea    0x6b43(%rip),%rsi        # 1d129 <g_1254+0x1065>
   165e6:	48 89 c7             	mov    %rax,%rdi
   165e9:	e8 05 41 ff ff       	callq  a6f3 <transparent_crc>
   165ee:	8b 05 24 b0 00 00    	mov    0xb024(%rip),%eax        # 21618 <g_441+0x8>
   165f4:	c1 e0 06             	shl    $0x6,%eax
   165f7:	c1 f8 06             	sar    $0x6,%eax
   165fa:	48 98                	cltq   
   165fc:	8b 55 fc             	mov    -0x4(%rbp),%edx
   165ff:	48 8d 35 2c 6b 00 00 	lea    0x6b2c(%rip),%rsi        # 1d132 <g_1254+0x106e>
   16606:	48 89 c7             	mov    %rax,%rdi
   16609:	e8 e5 40 ff ff       	callq  a6f3 <transparent_crc>
   1660e:	0f b6 05 06 b0 00 00 	movzbl 0xb006(%rip),%eax        # 2161b <g_441+0xb>
   16615:	c1 e0 04             	shl    $0x4,%eax
   16618:	c0 f8 06             	sar    $0x6,%al
   1661b:	48 0f be c0          	movsbq %al,%rax
   1661f:	8b 55 fc             	mov    -0x4(%rbp),%edx
   16622:	48 8d 35 12 6b 00 00 	lea    0x6b12(%rip),%rsi        # 1d13b <g_1254+0x1077>
   16629:	48 89 c7             	mov    %rax,%rdi
   1662c:	e8 c2 40 ff ff       	callq  a6f3 <transparent_crc>
   16631:	8b 05 e5 af 00 00    	mov    0xafe5(%rip),%eax        # 2161c <g_441+0xc>
   16637:	c1 e0 0c             	shl    $0xc,%eax
   1663a:	c1 f8 0c             	sar    $0xc,%eax
   1663d:	48 98                	cltq   
   1663f:	8b 55 fc             	mov    -0x4(%rbp),%edx
   16642:	48 8d 35 fb 6a 00 00 	lea    0x6afb(%rip),%rsi        # 1d144 <g_1254+0x1080>
   16649:	48 89 c7             	mov    %rax,%rdi
   1664c:	e8 a2 40 ff ff       	callq  a6f3 <transparent_crc>
   16651:	8b 05 c9 af 00 00    	mov    0xafc9(%rip),%eax        # 21620 <g_441+0x10>
   16657:	c1 e0 0d             	shl    $0xd,%eax
   1665a:	c1 f8 0d             	sar    $0xd,%eax
   1665d:	48 98                	cltq   
   1665f:	8b 55 fc             	mov    -0x4(%rbp),%edx
   16662:	48 8d 35 e4 6a 00 00 	lea    0x6ae4(%rip),%rsi        # 1d14d <g_1254+0x1089>
   16669:	48 89 c7             	mov    %rax,%rdi
   1666c:	e8 82 40 ff ff       	callq  a6f3 <transparent_crc>
   16671:	8b 05 b9 af 00 00    	mov    0xafb9(%rip),%eax        # 21630 <g_442>
   16677:	c1 e0 06             	shl    $0x6,%eax
   1667a:	c1 f8 06             	sar    $0x6,%eax
   1667d:	48 98                	cltq   
   1667f:	8b 55 fc             	mov    -0x4(%rbp),%edx
   16682:	48 8d 35 cd 6a 00 00 	lea    0x6acd(%rip),%rsi        # 1d156 <g_1254+0x1092>
   16689:	48 89 c7             	mov    %rax,%rdi
   1668c:	e8 62 40 ff ff       	callq  a6f3 <transparent_crc>
   16691:	0f b6 05 9c af 00 00 	movzbl 0xaf9c(%rip),%eax        # 21634 <g_442+0x4>
   16698:	48 0f be c0          	movsbq %al,%rax
   1669c:	8b 55 fc             	mov    -0x4(%rbp),%edx
   1669f:	48 8d 35 b9 6a 00 00 	lea    0x6ab9(%rip),%rsi        # 1d15f <g_1254+0x109b>
   166a6:	48 89 c7             	mov    %rax,%rdi
   166a9:	e8 45 40 ff ff       	callq  a6f3 <transparent_crc>
   166ae:	8b 05 80 af 00 00    	mov    0xaf80(%rip),%eax        # 21634 <g_442+0x4>
   166b4:	c1 e0 05             	shl    $0x5,%eax
   166b7:	c1 f8 0d             	sar    $0xd,%eax
   166ba:	48 98                	cltq   
   166bc:	8b 55 fc             	mov    -0x4(%rbp),%edx
   166bf:	48 8d 35 a2 6a 00 00 	lea    0x6aa2(%rip),%rsi        # 1d168 <g_1254+0x10a4>
   166c6:	48 89 c7             	mov    %rax,%rdi
   166c9:	e8 25 40 ff ff       	callq  a6f3 <transparent_crc>
   166ce:	8b 05 64 af 00 00    	mov    0xaf64(%rip),%eax        # 21638 <g_442+0x8>
   166d4:	c1 e0 06             	shl    $0x6,%eax
   166d7:	c1 f8 06             	sar    $0x6,%eax
   166da:	48 98                	cltq   
   166dc:	8b 55 fc             	mov    -0x4(%rbp),%edx
   166df:	48 8d 35 8b 6a 00 00 	lea    0x6a8b(%rip),%rsi        # 1d171 <g_1254+0x10ad>
   166e6:	48 89 c7             	mov    %rax,%rdi
   166e9:	e8 05 40 ff ff       	callq  a6f3 <transparent_crc>
   166ee:	0f b6 05 46 af 00 00 	movzbl 0xaf46(%rip),%eax        # 2163b <g_442+0xb>
   166f5:	c1 e0 04             	shl    $0x4,%eax
   166f8:	c0 f8 06             	sar    $0x6,%al
   166fb:	48 0f be c0          	movsbq %al,%rax
   166ff:	8b 55 fc             	mov    -0x4(%rbp),%edx
   16702:	48 8d 35 71 6a 00 00 	lea    0x6a71(%rip),%rsi        # 1d17a <g_1254+0x10b6>
   16709:	48 89 c7             	mov    %rax,%rdi
   1670c:	e8 e2 3f ff ff       	callq  a6f3 <transparent_crc>
   16711:	8b 05 25 af 00 00    	mov    0xaf25(%rip),%eax        # 2163c <g_442+0xc>
   16717:	c1 e0 0c             	shl    $0xc,%eax
   1671a:	c1 f8 0c             	sar    $0xc,%eax
   1671d:	48 98                	cltq   
   1671f:	8b 55 fc             	mov    -0x4(%rbp),%edx
   16722:	48 8d 35 5a 6a 00 00 	lea    0x6a5a(%rip),%rsi        # 1d183 <g_1254+0x10bf>
   16729:	48 89 c7             	mov    %rax,%rdi
   1672c:	e8 c2 3f ff ff       	callq  a6f3 <transparent_crc>
   16731:	8b 05 09 af 00 00    	mov    0xaf09(%rip),%eax        # 21640 <g_442+0x10>
   16737:	c1 e0 0d             	shl    $0xd,%eax
   1673a:	c1 f8 0d             	sar    $0xd,%eax
   1673d:	48 98                	cltq   
   1673f:	8b 55 fc             	mov    -0x4(%rbp),%edx
   16742:	48 8d 35 43 6a 00 00 	lea    0x6a43(%rip),%rsi        # 1d18c <g_1254+0x10c8>
   16749:	48 89 c7             	mov    %rax,%rdi
   1674c:	e8 a2 3f ff ff       	callq  a6f3 <transparent_crc>
   16751:	c7 45 f0 00 00 00 00 	movl   $0x0,-0x10(%rbp)
   16758:	e9 78 02 00 00       	jmpq   169d5 <main+0xbc1>
   1675d:	c7 45 f4 00 00 00 00 	movl   $0x0,-0xc(%rbp)
   16764:	e9 5e 02 00 00       	jmpq   169c7 <main+0xbb3>
   16769:	8b 45 f4             	mov    -0xc(%rbp),%eax
   1676c:	48 63 d0             	movslq %eax,%rdx
   1676f:	8b 45 f0             	mov    -0x10(%rbp),%eax
   16772:	48 63 c8             	movslq %eax,%rcx
   16775:	48 89 d0             	mov    %rdx,%rax
   16778:	48 c1 e0 02          	shl    $0x2,%rax
   1677c:	48 01 d0             	add    %rdx,%rax
   1677f:	48 c1 e0 02          	shl    $0x2,%rax
   16783:	48 89 ca             	mov    %rcx,%rdx
   16786:	48 c1 e2 04          	shl    $0x4,%rdx
   1678a:	48 29 ca             	sub    %rcx,%rdx
   1678d:	48 c1 e2 03          	shl    $0x3,%rdx
   16791:	48 01 c2             	add    %rax,%rdx
   16794:	48 8d 05 c5 ae 00 00 	lea    0xaec5(%rip),%rax        # 21660 <g_443>
   1679b:	48 01 d0             	add    %rdx,%rax
   1679e:	8b 00                	mov    (%rax),%eax
   167a0:	c1 e0 06             	shl    $0x6,%eax
   167a3:	c1 f8 06             	sar    $0x6,%eax
   167a6:	48 98                	cltq   
   167a8:	8b 55 fc             	mov    -0x4(%rbp),%edx
   167ab:	48 8d 35 e3 69 00 00 	lea    0x69e3(%rip),%rsi        # 1d195 <g_1254+0x10d1>
   167b2:	48 89 c7             	mov    %rax,%rdi
   167b5:	e8 39 3f ff ff       	callq  a6f3 <transparent_crc>
   167ba:	8b 45 f4             	mov    -0xc(%rbp),%eax
   167bd:	48 63 d0             	movslq %eax,%rdx
   167c0:	8b 45 f0             	mov    -0x10(%rbp),%eax
   167c3:	48 63 c8             	movslq %eax,%rcx
   167c6:	48 89 d0             	mov    %rdx,%rax
   167c9:	48 c1 e0 02          	shl    $0x2,%rax
   167cd:	48 01 d0             	add    %rdx,%rax
   167d0:	48 c1 e0 02          	shl    $0x2,%rax
   167d4:	48 89 ca             	mov    %rcx,%rdx
   167d7:	48 c1 e2 04          	shl    $0x4,%rdx
   167db:	48 29 ca             	sub    %rcx,%rdx
   167de:	48 c1 e2 03          	shl    $0x3,%rdx
   167e2:	48 01 c2             	add    %rax,%rdx
   167e5:	48 8d 05 78 ae 00 00 	lea    0xae78(%rip),%rax        # 21664 <g_443+0x4>
   167ec:	48 01 d0             	add    %rdx,%rax
   167ef:	0f b6 00             	movzbl (%rax),%eax
   167f2:	48 0f be c0          	movsbq %al,%rax
   167f6:	8b 55 fc             	mov    -0x4(%rbp),%edx
   167f9:	48 8d 35 a4 69 00 00 	lea    0x69a4(%rip),%rsi        # 1d1a4 <g_1254+0x10e0>
   16800:	48 89 c7             	mov    %rax,%rdi
   16803:	e8 eb 3e ff ff       	callq  a6f3 <transparent_crc>
   16808:	8b 45 f4             	mov    -0xc(%rbp),%eax
   1680b:	48 63 d0             	movslq %eax,%rdx
   1680e:	8b 45 f0             	mov    -0x10(%rbp),%eax
   16811:	48 63 c8             	movslq %eax,%rcx
   16814:	48 89 d0             	mov    %rdx,%rax
   16817:	48 c1 e0 02          	shl    $0x2,%rax
   1681b:	48 01 d0             	add    %rdx,%rax
   1681e:	48 c1 e0 02          	shl    $0x2,%rax
   16822:	48 89 ca             	mov    %rcx,%rdx
   16825:	48 c1 e2 04          	shl    $0x4,%rdx
   16829:	48 29 ca             	sub    %rcx,%rdx
   1682c:	48 c1 e2 03          	shl    $0x3,%rdx
   16830:	48 01 c2             	add    %rax,%rdx
   16833:	48 8d 05 26 ae 00 00 	lea    0xae26(%rip),%rax        # 21660 <g_443>
   1683a:	48 01 d0             	add    %rdx,%rax
   1683d:	8b 40 04             	mov    0x4(%rax),%eax
   16840:	c1 e0 05             	shl    $0x5,%eax
   16843:	c1 f8 0d             	sar    $0xd,%eax
   16846:	48 98                	cltq   
   16848:	8b 55 fc             	mov    -0x4(%rbp),%edx
   1684b:	48 8d 35 61 69 00 00 	lea    0x6961(%rip),%rsi        # 1d1b3 <g_1254+0x10ef>
   16852:	48 89 c7             	mov    %rax,%rdi
   16855:	e8 99 3e ff ff       	callq  a6f3 <transparent_crc>
   1685a:	8b 45 f4             	mov    -0xc(%rbp),%eax
   1685d:	48 63 d0             	movslq %eax,%rdx
   16860:	8b 45 f0             	mov    -0x10(%rbp),%eax
   16863:	48 63 c8             	movslq %eax,%rcx
   16866:	48 89 d0             	mov    %rdx,%rax
   16869:	48 c1 e0 02          	shl    $0x2,%rax
   1686d:	48 01 d0             	add    %rdx,%rax
   16870:	48 c1 e0 02          	shl    $0x2,%rax
   16874:	48 89 ca             	mov    %rcx,%rdx
   16877:	48 c1 e2 04          	shl    $0x4,%rdx
   1687b:	48 29 ca             	sub    %rcx,%rdx
   1687e:	48 c1 e2 03          	shl    $0x3,%rdx
   16882:	48 01 c2             	add    %rax,%rdx
   16885:	48 8d 05 d4 ad 00 00 	lea    0xadd4(%rip),%rax        # 21660 <g_443>
   1688c:	48 01 d0             	add    %rdx,%rax
   1688f:	8b 40 08             	mov    0x8(%rax),%eax
   16892:	c1 e0 06             	shl    $0x6,%eax
   16895:	c1 f8 06             	sar    $0x6,%eax
   16898:	48 98                	cltq   
   1689a:	8b 55 fc             	mov    -0x4(%rbp),%edx
   1689d:	48 8d 35 1e 69 00 00 	lea    0x691e(%rip),%rsi        # 1d1c2 <g_1254+0x10fe>
   168a4:	48 89 c7             	mov    %rax,%rdi
   168a7:	e8 47 3e ff ff       	callq  a6f3 <transparent_crc>
   168ac:	8b 45 f4             	mov    -0xc(%rbp),%eax
   168af:	48 63 d0             	movslq %eax,%rdx
   168b2:	8b 45 f0             	mov    -0x10(%rbp),%eax
   168b5:	48 63 c8             	movslq %eax,%rcx
   168b8:	48 89 d0             	mov    %rdx,%rax
   168bb:	48 c1 e0 02          	shl    $0x2,%rax
   168bf:	48 01 d0             	add    %rdx,%rax
   168c2:	48 c1 e0 02          	shl    $0x2,%rax
   168c6:	48 89 ca             	mov    %rcx,%rdx
   168c9:	48 c1 e2 04          	shl    $0x4,%rdx
   168cd:	48 29 ca             	sub    %rcx,%rdx
   168d0:	48 c1 e2 03          	shl    $0x3,%rdx
   168d4:	48 01 c2             	add    %rax,%rdx
   168d7:	48 8d 05 82 ad 00 00 	lea    0xad82(%rip),%rax        # 21660 <g_443>
   168de:	48 01 d0             	add    %rdx,%rax
   168e1:	0f b6 40 0b          	movzbl 0xb(%rax),%eax
   168e5:	c1 e0 04             	shl    $0x4,%eax
   168e8:	c0 f8 06             	sar    $0x6,%al
   168eb:	48 0f be c0          	movsbq %al,%rax
   168ef:	8b 55 fc             	mov    -0x4(%rbp),%edx
   168f2:	48 8d 35 d8 68 00 00 	lea    0x68d8(%rip),%rsi        # 1d1d1 <g_1254+0x110d>
   168f9:	48 89 c7             	mov    %rax,%rdi
   168fc:	e8 f2 3d ff ff       	callq  a6f3 <transparent_crc>
   16901:	8b 45 f4             	mov    -0xc(%rbp),%eax
   16904:	48 63 d0             	movslq %eax,%rdx
   16907:	8b 45 f0             	mov    -0x10(%rbp),%eax
   1690a:	48 63 c8             	movslq %eax,%rcx
   1690d:	48 89 d0             	mov    %rdx,%rax
   16910:	48 c1 e0 02          	shl    $0x2,%rax
   16914:	48 01 d0             	add    %rdx,%rax
   16917:	48 c1 e0 02          	shl    $0x2,%rax
   1691b:	48 89 ca             	mov    %rcx,%rdx
   1691e:	48 c1 e2 04          	shl    $0x4,%rdx
   16922:	48 29 ca             	sub    %rcx,%rdx
   16925:	48 c1 e2 03          	shl    $0x3,%rdx
   16929:	48 01 c2             	add    %rax,%rdx
   1692c:	48 8d 05 2d ad 00 00 	lea    0xad2d(%rip),%rax        # 21660 <g_443>
   16933:	48 01 d0             	add    %rdx,%rax
   16936:	8b 40 0c             	mov    0xc(%rax),%eax
   16939:	c1 e0 0c             	shl    $0xc,%eax
   1693c:	c1 f8 0c             	sar    $0xc,%eax
   1693f:	48 98                	cltq   
   16941:	8b 55 fc             	mov    -0x4(%rbp),%edx
   16944:	48 8d 35 95 68 00 00 	lea    0x6895(%rip),%rsi        # 1d1e0 <g_1254+0x111c>
   1694b:	48 89 c7             	mov    %rax,%rdi
   1694e:	e8 a0 3d ff ff       	callq  a6f3 <transparent_crc>
   16953:	8b 45 f4             	mov    -0xc(%rbp),%eax
   16956:	48 63 d0             	movslq %eax,%rdx
   16959:	8b 45 f0             	mov    -0x10(%rbp),%eax
   1695c:	48 63 c8             	movslq %eax,%rcx
   1695f:	48 89 d0             	mov    %rdx,%rax
   16962:	48 c1 e0 02          	shl    $0x2,%rax
   16966:	48 01 d0             	add    %rdx,%rax
   16969:	48 c1 e0 02          	shl    $0x2,%rax
   1696d:	48 89 ca             	mov    %rcx,%rdx
   16970:	48 c1 e2 04          	shl    $0x4,%rdx
   16974:	48 29 ca             	sub    %rcx,%rdx
   16977:	48 c1 e2 03          	shl    $0x3,%rdx
   1697b:	48 01 c2             	add    %rax,%rdx
   1697e:	48 8d 05 eb ac 00 00 	lea    0xaceb(%rip),%rax        # 21670 <g_443+0x10>
   16985:	48 01 d0             	add    %rdx,%rax
   16988:	8b 00                	mov    (%rax),%eax
   1698a:	c1 e0 0d             	shl    $0xd,%eax
   1698d:	c1 f8 0d             	sar    $0xd,%eax
   16990:	48 98                	cltq   
   16992:	8b 55 fc             	mov    -0x4(%rbp),%edx
   16995:	48 8d 35 53 68 00 00 	lea    0x6853(%rip),%rsi        # 1d1ef <g_1254+0x112b>
   1699c:	48 89 c7             	mov    %rax,%rdi
   1699f:	e8 4f 3d ff ff       	callq  a6f3 <transparent_crc>
   169a4:	83 7d fc 00          	cmpl   $0x0,-0x4(%rbp)
   169a8:	74 19                	je     169c3 <main+0xbaf>
   169aa:	8b 55 f4             	mov    -0xc(%rbp),%edx
   169ad:	8b 45 f0             	mov    -0x10(%rbp),%eax
   169b0:	89 c6                	mov    %eax,%esi
   169b2:	48 8d 3d 4a 66 00 00 	lea    0x664a(%rip),%rdi        # 1d003 <g_1254+0xf3f>
   169b9:	b8 00 00 00 00       	mov    $0x0,%eax
   169be:	e8 bd 26 ff ff       	callq  9080 <printf@plt>
   169c3:	83 45 f4 01          	addl   $0x1,-0xc(%rbp)
   169c7:	83 7d f4 05          	cmpl   $0x5,-0xc(%rbp)
   169cb:	0f 8e 98 fd ff ff    	jle    16769 <main+0x955>
   169d1:	83 45 f0 01          	addl   $0x1,-0x10(%rbp)
   169d5:	83 7d f0 02          	cmpl   $0x2,-0x10(%rbp)
   169d9:	0f 8e 7e fd ff ff    	jle    1675d <main+0x949>
   169df:	8b 05 eb ad 00 00    	mov    0xadeb(%rip),%eax        # 217d0 <g_444>
   169e5:	c1 e0 06             	shl    $0x6,%eax
   169e8:	c1 f8 06             	sar    $0x6,%eax
   169eb:	48 98                	cltq   
   169ed:	8b 55 fc             	mov    -0x4(%rbp),%edx
   169f0:	48 8d 35 07 68 00 00 	lea    0x6807(%rip),%rsi        # 1d1fe <g_1254+0x113a>
   169f7:	48 89 c7             	mov    %rax,%rdi
   169fa:	e8 f4 3c ff ff       	callq  a6f3 <transparent_crc>
   169ff:	0f b6 05 ce ad 00 00 	movzbl 0xadce(%rip),%eax        # 217d4 <g_444+0x4>
   16a06:	48 0f be c0          	movsbq %al,%rax
   16a0a:	8b 55 fc             	mov    -0x4(%rbp),%edx
   16a0d:	48 8d 35 f3 67 00 00 	lea    0x67f3(%rip),%rsi        # 1d207 <g_1254+0x1143>
   16a14:	48 89 c7             	mov    %rax,%rdi
   16a17:	e8 d7 3c ff ff       	callq  a6f3 <transparent_crc>
   16a1c:	8b 05 b2 ad 00 00    	mov    0xadb2(%rip),%eax        # 217d4 <g_444+0x4>
   16a22:	c1 e0 05             	shl    $0x5,%eax
   16a25:	c1 f8 0d             	sar    $0xd,%eax
   16a28:	48 98                	cltq   
   16a2a:	8b 55 fc             	mov    -0x4(%rbp),%edx
   16a2d:	48 8d 35 dc 67 00 00 	lea    0x67dc(%rip),%rsi        # 1d210 <g_1254+0x114c>
   16a34:	48 89 c7             	mov    %rax,%rdi
   16a37:	e8 b7 3c ff ff       	callq  a6f3 <transparent_crc>
   16a3c:	8b 05 96 ad 00 00    	mov    0xad96(%rip),%eax        # 217d8 <g_444+0x8>
   16a42:	c1 e0 06             	shl    $0x6,%eax
   16a45:	c1 f8 06             	sar    $0x6,%eax
   16a48:	48 98                	cltq   
   16a4a:	8b 55 fc             	mov    -0x4(%rbp),%edx
   16a4d:	48 8d 35 c5 67 00 00 	lea    0x67c5(%rip),%rsi        # 1d219 <g_1254+0x1155>
   16a54:	48 89 c7             	mov    %rax,%rdi
   16a57:	e8 97 3c ff ff       	callq  a6f3 <transparent_crc>
   16a5c:	0f b6 05 78 ad 00 00 	movzbl 0xad78(%rip),%eax        # 217db <g_444+0xb>
   16a63:	c1 e0 04             	shl    $0x4,%eax
   16a66:	c0 f8 06             	sar    $0x6,%al
   16a69:	48 0f be c0          	movsbq %al,%rax
   16a6d:	8b 55 fc             	mov    -0x4(%rbp),%edx
   16a70:	48 8d 35 ab 67 00 00 	lea    0x67ab(%rip),%rsi        # 1d222 <g_1254+0x115e>
   16a77:	48 89 c7             	mov    %rax,%rdi
   16a7a:	e8 74 3c ff ff       	callq  a6f3 <transparent_crc>
   16a7f:	8b 05 57 ad 00 00    	mov    0xad57(%rip),%eax        # 217dc <g_444+0xc>
   16a85:	c1 e0 0c             	shl    $0xc,%eax
   16a88:	c1 f8 0c             	sar    $0xc,%eax
   16a8b:	48 98                	cltq   
   16a8d:	8b 55 fc             	mov    -0x4(%rbp),%edx
   16a90:	48 8d 35 94 67 00 00 	lea    0x6794(%rip),%rsi        # 1d22b <g_1254+0x1167>
   16a97:	48 89 c7             	mov    %rax,%rdi
   16a9a:	e8 54 3c ff ff       	callq  a6f3 <transparent_crc>
   16a9f:	8b 05 3b ad 00 00    	mov    0xad3b(%rip),%eax        # 217e0 <g_444+0x10>
   16aa5:	c1 e0 0d             	shl    $0xd,%eax
   16aa8:	c1 f8 0d             	sar    $0xd,%eax
   16aab:	48 98                	cltq   
   16aad:	8b 55 fc             	mov    -0x4(%rbp),%edx
   16ab0:	48 8d 35 7d 67 00 00 	lea    0x677d(%rip),%rsi        # 1d234 <g_1254+0x1170>
   16ab7:	48 89 c7             	mov    %rax,%rdi
   16aba:	e8 34 3c ff ff       	callq  a6f3 <transparent_crc>
   16abf:	8b 05 2b ad 00 00    	mov    0xad2b(%rip),%eax        # 217f0 <g_445>
   16ac5:	c1 e0 06             	shl    $0x6,%eax
   16ac8:	c1 f8 06             	sar    $0x6,%eax
   16acb:	48 98                	cltq   
   16acd:	8b 55 fc             	mov    -0x4(%rbp),%edx
   16ad0:	48 8d 35 66 67 00 00 	lea    0x6766(%rip),%rsi        # 1d23d <g_1254+0x1179>
   16ad7:	48 89 c7             	mov    %rax,%rdi
   16ada:	e8 14 3c ff ff       	callq  a6f3 <transparent_crc>
   16adf:	0f b6 05 0e ad 00 00 	movzbl 0xad0e(%rip),%eax        # 217f4 <g_445+0x4>
   16ae6:	48 0f be c0          	movsbq %al,%rax
   16aea:	8b 55 fc             	mov    -0x4(%rbp),%edx
   16aed:	48 8d 35 52 67 00 00 	lea    0x6752(%rip),%rsi        # 1d246 <g_1254+0x1182>
   16af4:	48 89 c7             	mov    %rax,%rdi
   16af7:	e8 f7 3b ff ff       	callq  a6f3 <transparent_crc>
   16afc:	8b 05 f2 ac 00 00    	mov    0xacf2(%rip),%eax        # 217f4 <g_445+0x4>
   16b02:	c1 e0 05             	shl    $0x5,%eax
   16b05:	c1 f8 0d             	sar    $0xd,%eax
   16b08:	48 98                	cltq   
   16b0a:	8b 55 fc             	mov    -0x4(%rbp),%edx
   16b0d:	48 8d 35 3b 67 00 00 	lea    0x673b(%rip),%rsi        # 1d24f <g_1254+0x118b>
   16b14:	48 89 c7             	mov    %rax,%rdi
   16b17:	e8 d7 3b ff ff       	callq  a6f3 <transparent_crc>
   16b1c:	8b 05 d6 ac 00 00    	mov    0xacd6(%rip),%eax        # 217f8 <g_445+0x8>
   16b22:	c1 e0 06             	shl    $0x6,%eax
   16b25:	c1 f8 06             	sar    $0x6,%eax
   16b28:	48 98                	cltq   
   16b2a:	8b 55 fc             	mov    -0x4(%rbp),%edx
   16b2d:	48 8d 35 24 67 00 00 	lea    0x6724(%rip),%rsi        # 1d258 <g_1254+0x1194>
   16b34:	48 89 c7             	mov    %rax,%rdi
   16b37:	e8 b7 3b ff ff       	callq  a6f3 <transparent_crc>
   16b3c:	0f b6 05 b8 ac 00 00 	movzbl 0xacb8(%rip),%eax        # 217fb <g_445+0xb>
   16b43:	c1 e0 04             	shl    $0x4,%eax
   16b46:	c0 f8 06             	sar    $0x6,%al
   16b49:	48 0f be c0          	movsbq %al,%rax
   16b4d:	8b 55 fc             	mov    -0x4(%rbp),%edx
   16b50:	48 8d 35 0a 67 00 00 	lea    0x670a(%rip),%rsi        # 1d261 <g_1254+0x119d>
   16b57:	48 89 c7             	mov    %rax,%rdi
   16b5a:	e8 94 3b ff ff       	callq  a6f3 <transparent_crc>
   16b5f:	8b 05 97 ac 00 00    	mov    0xac97(%rip),%eax        # 217fc <g_445+0xc>
   16b65:	c1 e0 0c             	shl    $0xc,%eax
   16b68:	c1 f8 0c             	sar    $0xc,%eax
   16b6b:	48 98                	cltq   
   16b6d:	8b 55 fc             	mov    -0x4(%rbp),%edx
   16b70:	48 8d 35 f3 66 00 00 	lea    0x66f3(%rip),%rsi        # 1d26a <g_1254+0x11a6>
   16b77:	48 89 c7             	mov    %rax,%rdi
   16b7a:	e8 74 3b ff ff       	callq  a6f3 <transparent_crc>
   16b7f:	8b 05 7b ac 00 00    	mov    0xac7b(%rip),%eax        # 21800 <g_445+0x10>
   16b85:	c1 e0 0d             	shl    $0xd,%eax
   16b88:	c1 f8 0d             	sar    $0xd,%eax
   16b8b:	48 98                	cltq   
   16b8d:	8b 55 fc             	mov    -0x4(%rbp),%edx
   16b90:	48 8d 35 dc 66 00 00 	lea    0x66dc(%rip),%rsi        # 1d273 <g_1254+0x11af>
   16b97:	48 89 c7             	mov    %rax,%rdi
   16b9a:	e8 54 3b ff ff       	callq  a6f3 <transparent_crc>
   16b9f:	c7 45 f0 00 00 00 00 	movl   $0x0,-0x10(%rbp)
   16ba6:	e9 c1 01 00 00       	jmpq   16d6c <main+0xf58>
   16bab:	8b 45 f0             	mov    -0x10(%rbp),%eax
   16bae:	48 63 d0             	movslq %eax,%rdx
   16bb1:	48 89 d0             	mov    %rdx,%rax
   16bb4:	48 c1 e0 02          	shl    $0x2,%rax
   16bb8:	48 01 d0             	add    %rdx,%rax
   16bbb:	48 c1 e0 02          	shl    $0x2,%rax
   16bbf:	48 89 c2             	mov    %rax,%rdx
   16bc2:	48 8d 05 57 ac 00 00 	lea    0xac57(%rip),%rax        # 21820 <g_446>
   16bc9:	8b 04 02             	mov    (%rdx,%rax,1),%eax
   16bcc:	c1 e0 06             	shl    $0x6,%eax
   16bcf:	c1 f8 06             	sar    $0x6,%eax
   16bd2:	48 98                	cltq   
   16bd4:	8b 55 fc             	mov    -0x4(%rbp),%edx
   16bd7:	48 8d 35 9e 66 00 00 	lea    0x669e(%rip),%rsi        # 1d27c <g_1254+0x11b8>
   16bde:	48 89 c7             	mov    %rax,%rdi
   16be1:	e8 0d 3b ff ff       	callq  a6f3 <transparent_crc>
   16be6:	8b 45 f0             	mov    -0x10(%rbp),%eax
   16be9:	48 63 d0             	movslq %eax,%rdx
   16bec:	48 89 d0             	mov    %rdx,%rax
   16bef:	48 c1 e0 02          	shl    $0x2,%rax
   16bf3:	48 01 d0             	add    %rdx,%rax
   16bf6:	48 c1 e0 02          	shl    $0x2,%rax
   16bfa:	48 89 c2             	mov    %rax,%rdx
   16bfd:	48 8d 05 20 ac 00 00 	lea    0xac20(%rip),%rax        # 21824 <g_446+0x4>
   16c04:	0f b6 04 02          	movzbl (%rdx,%rax,1),%eax
   16c08:	48 0f be c0          	movsbq %al,%rax
   16c0c:	8b 55 fc             	mov    -0x4(%rbp),%edx
   16c0f:	48 8d 35 72 66 00 00 	lea    0x6672(%rip),%rsi        # 1d288 <g_1254+0x11c4>
   16c16:	48 89 c7             	mov    %rax,%rdi
   16c19:	e8 d5 3a ff ff       	callq  a6f3 <transparent_crc>
   16c1e:	8b 45 f0             	mov    -0x10(%rbp),%eax
   16c21:	48 63 d0             	movslq %eax,%rdx
   16c24:	48 89 d0             	mov    %rdx,%rax
   16c27:	48 c1 e0 02          	shl    $0x2,%rax
   16c2b:	48 01 d0             	add    %rdx,%rax
   16c2e:	48 c1 e0 02          	shl    $0x2,%rax
   16c32:	48 89 c2             	mov    %rax,%rdx
   16c35:	48 8d 05 e4 ab 00 00 	lea    0xabe4(%rip),%rax        # 21820 <g_446>
   16c3c:	8b 44 02 04          	mov    0x4(%rdx,%rax,1),%eax
   16c40:	c1 e0 05             	shl    $0x5,%eax
   16c43:	c1 f8 0d             	sar    $0xd,%eax
   16c46:	48 98                	cltq   
   16c48:	8b 55 fc             	mov    -0x4(%rbp),%edx
   16c4b:	48 8d 35 42 66 00 00 	lea    0x6642(%rip),%rsi        # 1d294 <g_1254+0x11d0>
   16c52:	48 89 c7             	mov    %rax,%rdi
   16c55:	e8 99 3a ff ff       	callq  a6f3 <transparent_crc>
   16c5a:	8b 45 f0             	mov    -0x10(%rbp),%eax
   16c5d:	48 63 d0             	movslq %eax,%rdx
   16c60:	48 89 d0             	mov    %rdx,%rax
   16c63:	48 c1 e0 02          	shl    $0x2,%rax
   16c67:	48 01 d0             	add    %rdx,%rax
   16c6a:	48 c1 e0 02          	shl    $0x2,%rax
   16c6e:	48 89 c2             	mov    %rax,%rdx
   16c71:	48 8d 05 a8 ab 00 00 	lea    0xaba8(%rip),%rax        # 21820 <g_446>
   16c78:	8b 44 02 08          	mov    0x8(%rdx,%rax,1),%eax
   16c7c:	c1 e0 06             	shl    $0x6,%eax
   16c7f:	c1 f8 06             	sar    $0x6,%eax
   16c82:	48 98                	cltq   
   16c84:	8b 55 fc             	mov    -0x4(%rbp),%edx
   16c87:	48 8d 35 12 66 00 00 	lea    0x6612(%rip),%rsi        # 1d2a0 <g_1254+0x11dc>
   16c8e:	48 89 c7             	mov    %rax,%rdi
   16c91:	e8 5d 3a ff ff       	callq  a6f3 <transparent_crc>
   16c96:	8b 45 f0             	mov    -0x10(%rbp),%eax
   16c99:	48 63 d0             	movslq %eax,%rdx
   16c9c:	48 89 d0             	mov    %rdx,%rax
   16c9f:	48 c1 e0 02          	shl    $0x2,%rax
   16ca3:	48 01 d0             	add    %rdx,%rax
   16ca6:	48 c1 e0 02          	shl    $0x2,%rax
   16caa:	48 89 c2             	mov    %rax,%rdx
   16cad:	48 8d 05 6c ab 00 00 	lea    0xab6c(%rip),%rax        # 21820 <g_446>
   16cb4:	0f b6 44 02 0b       	movzbl 0xb(%rdx,%rax,1),%eax
   16cb9:	c1 e0 04             	shl    $0x4,%eax
   16cbc:	c0 f8 06             	sar    $0x6,%al
   16cbf:	48 0f be c0          	movsbq %al,%rax
   16cc3:	8b 55 fc             	mov    -0x4(%rbp),%edx
   16cc6:	48 8d 35 df 65 00 00 	lea    0x65df(%rip),%rsi        # 1d2ac <g_1254+0x11e8>
   16ccd:	48 89 c7             	mov    %rax,%rdi
   16cd0:	e8 1e 3a ff ff       	callq  a6f3 <transparent_crc>
   16cd5:	8b 45 f0             	mov    -0x10(%rbp),%eax
   16cd8:	48 63 d0             	movslq %eax,%rdx
   16cdb:	48 89 d0             	mov    %rdx,%rax
   16cde:	48 c1 e0 02          	shl    $0x2,%rax
   16ce2:	48 01 d0             	add    %rdx,%rax
   16ce5:	48 c1 e0 02          	shl    $0x2,%rax
   16ce9:	48 89 c2             	mov    %rax,%rdx
   16cec:	48 8d 05 2d ab 00 00 	lea    0xab2d(%rip),%rax        # 21820 <g_446>
   16cf3:	8b 44 02 0c          	mov    0xc(%rdx,%rax,1),%eax
   16cf7:	c1 e0 0c             	shl    $0xc,%eax
   16cfa:	c1 f8 0c             	sar    $0xc,%eax
   16cfd:	48 98                	cltq   
   16cff:	8b 55 fc             	mov    -0x4(%rbp),%edx
   16d02:	48 8d 35 af 65 00 00 	lea    0x65af(%rip),%rsi        # 1d2b8 <g_1254+0x11f4>
   16d09:	48 89 c7             	mov    %rax,%rdi
   16d0c:	e8 e2 39 ff ff       	callq  a6f3 <transparent_crc>
   16d11:	8b 45 f0             	mov    -0x10(%rbp),%eax
   16d14:	48 63 d0             	movslq %eax,%rdx
   16d17:	48 89 d0             	mov    %rdx,%rax
   16d1a:	48 c1 e0 02          	shl    $0x2,%rax
   16d1e:	48 01 d0             	add    %rdx,%rax
   16d21:	48 c1 e0 02          	shl    $0x2,%rax
   16d25:	48 89 c2             	mov    %rax,%rdx
   16d28:	48 8d 05 01 ab 00 00 	lea    0xab01(%rip),%rax        # 21830 <g_446+0x10>
   16d2f:	8b 04 02             	mov    (%rdx,%rax,1),%eax
   16d32:	c1 e0 0d             	shl    $0xd,%eax
   16d35:	c1 f8 0d             	sar    $0xd,%eax
   16d38:	48 98                	cltq   
   16d3a:	8b 55 fc             	mov    -0x4(%rbp),%edx
   16d3d:	48 8d 35 80 65 00 00 	lea    0x6580(%rip),%rsi        # 1d2c4 <g_1254+0x1200>
   16d44:	48 89 c7             	mov    %rax,%rdi
   16d47:	e8 a7 39 ff ff       	callq  a6f3 <transparent_crc>
   16d4c:	83 7d fc 00          	cmpl   $0x0,-0x4(%rbp)
   16d50:	74 16                	je     16d68 <main+0xf54>
   16d52:	8b 45 f0             	mov    -0x10(%rbp),%eax
   16d55:	89 c6                	mov    %eax,%esi
   16d57:	48 8d 3d 87 62 00 00 	lea    0x6287(%rip),%rdi        # 1cfe5 <g_1254+0xf21>
   16d5e:	b8 00 00 00 00       	mov    $0x0,%eax
   16d63:	e8 18 23 ff ff       	callq  9080 <printf@plt>
   16d68:	83 45 f0 01          	addl   $0x1,-0x10(%rbp)
   16d6c:	83 7d f0 07          	cmpl   $0x7,-0x10(%rbp)
   16d70:	0f 8e 35 fe ff ff    	jle    16bab <main+0xd97>
   16d76:	8b 05 44 ab 00 00    	mov    0xab44(%rip),%eax        # 218c0 <g_447>
   16d7c:	c1 e0 06             	shl    $0x6,%eax
   16d7f:	c1 f8 06             	sar    $0x6,%eax
   16d82:	48 98                	cltq   
   16d84:	8b 55 fc             	mov    -0x4(%rbp),%edx
   16d87:	48 8d 35 42 65 00 00 	lea    0x6542(%rip),%rsi        # 1d2d0 <g_1254+0x120c>
   16d8e:	48 89 c7             	mov    %rax,%rdi
   16d91:	e8 5d 39 ff ff       	callq  a6f3 <transparent_crc>
   16d96:	0f b6 05 27 ab 00 00 	movzbl 0xab27(%rip),%eax        # 218c4 <g_447+0x4>
   16d9d:	48 0f be c0          	movsbq %al,%rax
   16da1:	8b 55 fc             	mov    -0x4(%rbp),%edx
   16da4:	48 8d 35 2e 65 00 00 	lea    0x652e(%rip),%rsi        # 1d2d9 <g_1254+0x1215>
   16dab:	48 89 c7             	mov    %rax,%rdi
   16dae:	e8 40 39 ff ff       	callq  a6f3 <transparent_crc>
   16db3:	8b 05 0b ab 00 00    	mov    0xab0b(%rip),%eax        # 218c4 <g_447+0x4>
   16db9:	c1 e0 05             	shl    $0x5,%eax
   16dbc:	c1 f8 0d             	sar    $0xd,%eax
   16dbf:	48 98                	cltq   
   16dc1:	8b 55 fc             	mov    -0x4(%rbp),%edx
   16dc4:	48 8d 35 17 65 00 00 	lea    0x6517(%rip),%rsi        # 1d2e2 <g_1254+0x121e>
   16dcb:	48 89 c7             	mov    %rax,%rdi
   16dce:	e8 20 39 ff ff       	callq  a6f3 <transparent_crc>
   16dd3:	8b 05 ef aa 00 00    	mov    0xaaef(%rip),%eax        # 218c8 <g_447+0x8>
   16dd9:	c1 e0 06             	shl    $0x6,%eax
   16ddc:	c1 f8 06             	sar    $0x6,%eax
   16ddf:	48 98                	cltq   
   16de1:	8b 55 fc             	mov    -0x4(%rbp),%edx
   16de4:	48 8d 35 00 65 00 00 	lea    0x6500(%rip),%rsi        # 1d2eb <g_1254+0x1227>
   16deb:	48 89 c7             	mov    %rax,%rdi
   16dee:	e8 00 39 ff ff       	callq  a6f3 <transparent_crc>
   16df3:	0f b6 05 d1 aa 00 00 	movzbl 0xaad1(%rip),%eax        # 218cb <g_447+0xb>
   16dfa:	c1 e0 04             	shl    $0x4,%eax
   16dfd:	c0 f8 06             	sar    $0x6,%al
   16e00:	48 0f be c0          	movsbq %al,%rax
   16e04:	8b 55 fc             	mov    -0x4(%rbp),%edx
   16e07:	48 8d 35 e6 64 00 00 	lea    0x64e6(%rip),%rsi        # 1d2f4 <g_1254+0x1230>
   16e0e:	48 89 c7             	mov    %rax,%rdi
   16e11:	e8 dd 38 ff ff       	callq  a6f3 <transparent_crc>
   16e16:	8b 05 b0 aa 00 00    	mov    0xaab0(%rip),%eax        # 218cc <g_447+0xc>
   16e1c:	c1 e0 0c             	shl    $0xc,%eax
   16e1f:	c1 f8 0c             	sar    $0xc,%eax
   16e22:	48 98                	cltq   
   16e24:	8b 55 fc             	mov    -0x4(%rbp),%edx
   16e27:	48 8d 35 cf 64 00 00 	lea    0x64cf(%rip),%rsi        # 1d2fd <g_1254+0x1239>
   16e2e:	48 89 c7             	mov    %rax,%rdi
   16e31:	e8 bd 38 ff ff       	callq  a6f3 <transparent_crc>
   16e36:	8b 05 94 aa 00 00    	mov    0xaa94(%rip),%eax        # 218d0 <g_447+0x10>
   16e3c:	c1 e0 0d             	shl    $0xd,%eax
   16e3f:	c1 f8 0d             	sar    $0xd,%eax
   16e42:	48 98                	cltq   
   16e44:	8b 55 fc             	mov    -0x4(%rbp),%edx
   16e47:	48 8d 35 b8 64 00 00 	lea    0x64b8(%rip),%rsi        # 1d306 <g_1254+0x1242>
   16e4e:	48 89 c7             	mov    %rax,%rdi
   16e51:	e8 9d 38 ff ff       	callq  a6f3 <transparent_crc>
   16e56:	8b 05 84 aa 00 00    	mov    0xaa84(%rip),%eax        # 218e0 <g_448>
   16e5c:	c1 e0 06             	shl    $0x6,%eax
   16e5f:	c1 f8 06             	sar    $0x6,%eax
   16e62:	48 98                	cltq   
   16e64:	8b 55 fc             	mov    -0x4(%rbp),%edx
   16e67:	48 8d 35 a1 64 00 00 	lea    0x64a1(%rip),%rsi        # 1d30f <g_1254+0x124b>
   16e6e:	48 89 c7             	mov    %rax,%rdi
   16e71:	e8 7d 38 ff ff       	callq  a6f3 <transparent_crc>
   16e76:	0f b6 05 67 aa 00 00 	movzbl 0xaa67(%rip),%eax        # 218e4 <g_448+0x4>
   16e7d:	48 0f be c0          	movsbq %al,%rax
   16e81:	8b 55 fc             	mov    -0x4(%rbp),%edx
   16e84:	48 8d 35 8d 64 00 00 	lea    0x648d(%rip),%rsi        # 1d318 <g_1254+0x1254>
   16e8b:	48 89 c7             	mov    %rax,%rdi
   16e8e:	e8 60 38 ff ff       	callq  a6f3 <transparent_crc>
   16e93:	8b 05 4b aa 00 00    	mov    0xaa4b(%rip),%eax        # 218e4 <g_448+0x4>
   16e99:	c1 e0 05             	shl    $0x5,%eax
   16e9c:	c1 f8 0d             	sar    $0xd,%eax
   16e9f:	48 98                	cltq   
   16ea1:	8b 55 fc             	mov    -0x4(%rbp),%edx
   16ea4:	48 8d 35 76 64 00 00 	lea    0x6476(%rip),%rsi        # 1d321 <g_1254+0x125d>
   16eab:	48 89 c7             	mov    %rax,%rdi
   16eae:	e8 40 38 ff ff       	callq  a6f3 <transparent_crc>
   16eb3:	8b 05 2f aa 00 00    	mov    0xaa2f(%rip),%eax        # 218e8 <g_448+0x8>
   16eb9:	c1 e0 06             	shl    $0x6,%eax
   16ebc:	c1 f8 06             	sar    $0x6,%eax
   16ebf:	48 98                	cltq   
   16ec1:	8b 55 fc             	mov    -0x4(%rbp),%edx
   16ec4:	48 8d 35 5f 64 00 00 	lea    0x645f(%rip),%rsi        # 1d32a <g_1254+0x1266>
   16ecb:	48 89 c7             	mov    %rax,%rdi
   16ece:	e8 20 38 ff ff       	callq  a6f3 <transparent_crc>
   16ed3:	0f b6 05 11 aa 00 00 	movzbl 0xaa11(%rip),%eax        # 218eb <g_448+0xb>
   16eda:	c1 e0 04             	shl    $0x4,%eax
   16edd:	c0 f8 06             	sar    $0x6,%al
   16ee0:	48 0f be c0          	movsbq %al,%rax
   16ee4:	8b 55 fc             	mov    -0x4(%rbp),%edx
   16ee7:	48 8d 35 45 64 00 00 	lea    0x6445(%rip),%rsi        # 1d333 <g_1254+0x126f>
   16eee:	48 89 c7             	mov    %rax,%rdi
   16ef1:	e8 fd 37 ff ff       	callq  a6f3 <transparent_crc>
   16ef6:	8b 05 f0 a9 00 00    	mov    0xa9f0(%rip),%eax        # 218ec <g_448+0xc>
   16efc:	c1 e0 0c             	shl    $0xc,%eax
   16eff:	c1 f8 0c             	sar    $0xc,%eax
   16f02:	48 98                	cltq   
   16f04:	8b 55 fc             	mov    -0x4(%rbp),%edx
   16f07:	48 8d 35 2e 64 00 00 	lea    0x642e(%rip),%rsi        # 1d33c <g_1254+0x1278>
   16f0e:	48 89 c7             	mov    %rax,%rdi
   16f11:	e8 dd 37 ff ff       	callq  a6f3 <transparent_crc>
   16f16:	8b 05 d4 a9 00 00    	mov    0xa9d4(%rip),%eax        # 218f0 <g_448+0x10>
   16f1c:	c1 e0 0d             	shl    $0xd,%eax
   16f1f:	c1 f8 0d             	sar    $0xd,%eax
   16f22:	48 98                	cltq   
   16f24:	8b 55 fc             	mov    -0x4(%rbp),%edx
   16f27:	48 8d 35 17 64 00 00 	lea    0x6417(%rip),%rsi        # 1d345 <g_1254+0x1281>
   16f2e:	48 89 c7             	mov    %rax,%rdi
   16f31:	e8 bd 37 ff ff       	callq  a6f3 <transparent_crc>
   16f36:	8b 05 c4 a9 00 00    	mov    0xa9c4(%rip),%eax        # 21900 <g_449>
   16f3c:	c1 e0 06             	shl    $0x6,%eax
   16f3f:	c1 f8 06             	sar    $0x6,%eax
   16f42:	48 98                	cltq   
   16f44:	8b 55 fc             	mov    -0x4(%rbp),%edx
   16f47:	48 8d 35 00 64 00 00 	lea    0x6400(%rip),%rsi        # 1d34e <g_1254+0x128a>
   16f4e:	48 89 c7             	mov    %rax,%rdi
   16f51:	e8 9d 37 ff ff       	callq  a6f3 <transparent_crc>
   16f56:	0f b6 05 a7 a9 00 00 	movzbl 0xa9a7(%rip),%eax        # 21904 <g_449+0x4>
   16f5d:	48 0f be c0          	movsbq %al,%rax
   16f61:	8b 55 fc             	mov    -0x4(%rbp),%edx
   16f64:	48 8d 35 ec 63 00 00 	lea    0x63ec(%rip),%rsi        # 1d357 <g_1254+0x1293>
   16f6b:	48 89 c7             	mov    %rax,%rdi
   16f6e:	e8 80 37 ff ff       	callq  a6f3 <transparent_crc>
   16f73:	8b 05 8b a9 00 00    	mov    0xa98b(%rip),%eax        # 21904 <g_449+0x4>
   16f79:	c1 e0 05             	shl    $0x5,%eax
   16f7c:	c1 f8 0d             	sar    $0xd,%eax
   16f7f:	48 98                	cltq   
   16f81:	8b 55 fc             	mov    -0x4(%rbp),%edx
   16f84:	48 8d 35 d5 63 00 00 	lea    0x63d5(%rip),%rsi        # 1d360 <g_1254+0x129c>
   16f8b:	48 89 c7             	mov    %rax,%rdi
   16f8e:	e8 60 37 ff ff       	callq  a6f3 <transparent_crc>
   16f93:	8b 05 6f a9 00 00    	mov    0xa96f(%rip),%eax        # 21908 <g_449+0x8>
   16f99:	c1 e0 06             	shl    $0x6,%eax
   16f9c:	c1 f8 06             	sar    $0x6,%eax
   16f9f:	48 98                	cltq   
   16fa1:	8b 55 fc             	mov    -0x4(%rbp),%edx
   16fa4:	48 8d 35 be 63 00 00 	lea    0x63be(%rip),%rsi        # 1d369 <g_1254+0x12a5>
   16fab:	48 89 c7             	mov    %rax,%rdi
   16fae:	e8 40 37 ff ff       	callq  a6f3 <transparent_crc>
   16fb3:	0f b6 05 51 a9 00 00 	movzbl 0xa951(%rip),%eax        # 2190b <g_449+0xb>
   16fba:	c1 e0 04             	shl    $0x4,%eax
   16fbd:	c0 f8 06             	sar    $0x6,%al
   16fc0:	48 0f be c0          	movsbq %al,%rax
   16fc4:	8b 55 fc             	mov    -0x4(%rbp),%edx
   16fc7:	48 8d 35 a4 63 00 00 	lea    0x63a4(%rip),%rsi        # 1d372 <g_1254+0x12ae>
   16fce:	48 89 c7             	mov    %rax,%rdi
   16fd1:	e8 1d 37 ff ff       	callq  a6f3 <transparent_crc>
   16fd6:	8b 05 30 a9 00 00    	mov    0xa930(%rip),%eax        # 2190c <g_449+0xc>
   16fdc:	c1 e0 0c             	shl    $0xc,%eax
   16fdf:	c1 f8 0c             	sar    $0xc,%eax
   16fe2:	48 98                	cltq   
   16fe4:	8b 55 fc             	mov    -0x4(%rbp),%edx
   16fe7:	48 8d 35 8d 63 00 00 	lea    0x638d(%rip),%rsi        # 1d37b <g_1254+0x12b7>
   16fee:	48 89 c7             	mov    %rax,%rdi
   16ff1:	e8 fd 36 ff ff       	callq  a6f3 <transparent_crc>
   16ff6:	8b 05 14 a9 00 00    	mov    0xa914(%rip),%eax        # 21910 <g_449+0x10>
   16ffc:	c1 e0 0d             	shl    $0xd,%eax
   16fff:	c1 f8 0d             	sar    $0xd,%eax
   17002:	48 98                	cltq   
   17004:	8b 55 fc             	mov    -0x4(%rbp),%edx
   17007:	48 8d 35 76 63 00 00 	lea    0x6376(%rip),%rsi        # 1d384 <g_1254+0x12c0>
   1700e:	48 89 c7             	mov    %rax,%rdi
   17011:	e8 dd 36 ff ff       	callq  a6f3 <transparent_crc>
   17016:	8b 05 04 a9 00 00    	mov    0xa904(%rip),%eax        # 21920 <g_450>
   1701c:	c1 e0 06             	shl    $0x6,%eax
   1701f:	c1 f8 06             	sar    $0x6,%eax
   17022:	48 98                	cltq   
   17024:	8b 55 fc             	mov    -0x4(%rbp),%edx
   17027:	48 8d 35 5f 63 00 00 	lea    0x635f(%rip),%rsi        # 1d38d <g_1254+0x12c9>
   1702e:	48 89 c7             	mov    %rax,%rdi
   17031:	e8 bd 36 ff ff       	callq  a6f3 <transparent_crc>
   17036:	0f b6 05 e7 a8 00 00 	movzbl 0xa8e7(%rip),%eax        # 21924 <g_450+0x4>
   1703d:	48 0f be c0          	movsbq %al,%rax
   17041:	8b 55 fc             	mov    -0x4(%rbp),%edx
   17044:	48 8d 35 4b 63 00 00 	lea    0x634b(%rip),%rsi        # 1d396 <g_1254+0x12d2>
   1704b:	48 89 c7             	mov    %rax,%rdi
   1704e:	e8 a0 36 ff ff       	callq  a6f3 <transparent_crc>
   17053:	8b 05 cb a8 00 00    	mov    0xa8cb(%rip),%eax        # 21924 <g_450+0x4>
   17059:	c1 e0 05             	shl    $0x5,%eax
   1705c:	c1 f8 0d             	sar    $0xd,%eax
   1705f:	48 98                	cltq   
   17061:	8b 55 fc             	mov    -0x4(%rbp),%edx
   17064:	48 8d 35 34 63 00 00 	lea    0x6334(%rip),%rsi        # 1d39f <g_1254+0x12db>
   1706b:	48 89 c7             	mov    %rax,%rdi
   1706e:	e8 80 36 ff ff       	callq  a6f3 <transparent_crc>
   17073:	8b 05 af a8 00 00    	mov    0xa8af(%rip),%eax        # 21928 <g_450+0x8>
   17079:	c1 e0 06             	shl    $0x6,%eax
   1707c:	c1 f8 06             	sar    $0x6,%eax
   1707f:	48 98                	cltq   
   17081:	8b 55 fc             	mov    -0x4(%rbp),%edx
   17084:	48 8d 35 1d 63 00 00 	lea    0x631d(%rip),%rsi        # 1d3a8 <g_1254+0x12e4>
   1708b:	48 89 c7             	mov    %rax,%rdi
   1708e:	e8 60 36 ff ff       	callq  a6f3 <transparent_crc>
   17093:	0f b6 05 91 a8 00 00 	movzbl 0xa891(%rip),%eax        # 2192b <g_450+0xb>
   1709a:	c1 e0 04             	shl    $0x4,%eax
   1709d:	c0 f8 06             	sar    $0x6,%al
   170a0:	48 0f be c0          	movsbq %al,%rax
   170a4:	8b 55 fc             	mov    -0x4(%rbp),%edx
   170a7:	48 8d 35 03 63 00 00 	lea    0x6303(%rip),%rsi        # 1d3b1 <g_1254+0x12ed>
   170ae:	48 89 c7             	mov    %rax,%rdi
   170b1:	e8 3d 36 ff ff       	callq  a6f3 <transparent_crc>
   170b6:	8b 05 70 a8 00 00    	mov    0xa870(%rip),%eax        # 2192c <g_450+0xc>
   170bc:	c1 e0 0c             	shl    $0xc,%eax
   170bf:	c1 f8 0c             	sar    $0xc,%eax
   170c2:	48 98                	cltq   
   170c4:	8b 55 fc             	mov    -0x4(%rbp),%edx
   170c7:	48 8d 35 ec 62 00 00 	lea    0x62ec(%rip),%rsi        # 1d3ba <g_1254+0x12f6>
   170ce:	48 89 c7             	mov    %rax,%rdi
   170d1:	e8 1d 36 ff ff       	callq  a6f3 <transparent_crc>
   170d6:	8b 05 54 a8 00 00    	mov    0xa854(%rip),%eax        # 21930 <g_450+0x10>
   170dc:	c1 e0 0d             	shl    $0xd,%eax
   170df:	c1 f8 0d             	sar    $0xd,%eax
   170e2:	48 98                	cltq   
   170e4:	8b 55 fc             	mov    -0x4(%rbp),%edx
   170e7:	48 8d 35 d5 62 00 00 	lea    0x62d5(%rip),%rsi        # 1d3c3 <g_1254+0x12ff>
   170ee:	48 89 c7             	mov    %rax,%rdi
   170f1:	e8 fd 35 ff ff       	callq  a6f3 <transparent_crc>
   170f6:	8b 05 44 a8 00 00    	mov    0xa844(%rip),%eax        # 21940 <g_451>
   170fc:	c1 e0 06             	shl    $0x6,%eax
   170ff:	c1 f8 06             	sar    $0x6,%eax
   17102:	48 98                	cltq   
   17104:	8b 55 fc             	mov    -0x4(%rbp),%edx
   17107:	48 8d 35 be 62 00 00 	lea    0x62be(%rip),%rsi        # 1d3cc <g_1254+0x1308>
   1710e:	48 89 c7             	mov    %rax,%rdi
   17111:	e8 dd 35 ff ff       	callq  a6f3 <transparent_crc>
   17116:	0f b6 05 27 a8 00 00 	movzbl 0xa827(%rip),%eax        # 21944 <g_451+0x4>
   1711d:	48 0f be c0          	movsbq %al,%rax
   17121:	8b 55 fc             	mov    -0x4(%rbp),%edx
   17124:	48 8d 35 aa 62 00 00 	lea    0x62aa(%rip),%rsi        # 1d3d5 <g_1254+0x1311>
   1712b:	48 89 c7             	mov    %rax,%rdi
   1712e:	e8 c0 35 ff ff       	callq  a6f3 <transparent_crc>
   17133:	8b 05 0b a8 00 00    	mov    0xa80b(%rip),%eax        # 21944 <g_451+0x4>
   17139:	c1 e0 05             	shl    $0x5,%eax
   1713c:	c1 f8 0d             	sar    $0xd,%eax
   1713f:	48 98                	cltq   
   17141:	8b 55 fc             	mov    -0x4(%rbp),%edx
   17144:	48 8d 35 93 62 00 00 	lea    0x6293(%rip),%rsi        # 1d3de <g_1254+0x131a>
   1714b:	48 89 c7             	mov    %rax,%rdi
   1714e:	e8 a0 35 ff ff       	callq  a6f3 <transparent_crc>
   17153:	8b 05 ef a7 00 00    	mov    0xa7ef(%rip),%eax        # 21948 <g_451+0x8>
   17159:	c1 e0 06             	shl    $0x6,%eax
   1715c:	c1 f8 06             	sar    $0x6,%eax
   1715f:	48 98                	cltq   
   17161:	8b 55 fc             	mov    -0x4(%rbp),%edx
   17164:	48 8d 35 7c 62 00 00 	lea    0x627c(%rip),%rsi        # 1d3e7 <g_1254+0x1323>
   1716b:	48 89 c7             	mov    %rax,%rdi
   1716e:	e8 80 35 ff ff       	callq  a6f3 <transparent_crc>
   17173:	0f b6 05 d1 a7 00 00 	movzbl 0xa7d1(%rip),%eax        # 2194b <g_451+0xb>
   1717a:	c1 e0 04             	shl    $0x4,%eax
   1717d:	c0 f8 06             	sar    $0x6,%al
   17180:	48 0f be c0          	movsbq %al,%rax
   17184:	8b 55 fc             	mov    -0x4(%rbp),%edx
   17187:	48 8d 35 62 62 00 00 	lea    0x6262(%rip),%rsi        # 1d3f0 <g_1254+0x132c>
   1718e:	48 89 c7             	mov    %rax,%rdi
   17191:	e8 5d 35 ff ff       	callq  a6f3 <transparent_crc>
   17196:	8b 05 b0 a7 00 00    	mov    0xa7b0(%rip),%eax        # 2194c <g_451+0xc>
   1719c:	c1 e0 0c             	shl    $0xc,%eax
   1719f:	c1 f8 0c             	sar    $0xc,%eax
   171a2:	48 98                	cltq   
   171a4:	8b 55 fc             	mov    -0x4(%rbp),%edx
   171a7:	48 8d 35 4b 62 00 00 	lea    0x624b(%rip),%rsi        # 1d3f9 <g_1254+0x1335>
   171ae:	48 89 c7             	mov    %rax,%rdi
   171b1:	e8 3d 35 ff ff       	callq  a6f3 <transparent_crc>
   171b6:	8b 05 94 a7 00 00    	mov    0xa794(%rip),%eax        # 21950 <g_451+0x10>
   171bc:	c1 e0 0d             	shl    $0xd,%eax
   171bf:	c1 f8 0d             	sar    $0xd,%eax
   171c2:	48 98                	cltq   
   171c4:	8b 55 fc             	mov    -0x4(%rbp),%edx
   171c7:	48 8d 35 34 62 00 00 	lea    0x6234(%rip),%rsi        # 1d402 <g_1254+0x133e>
   171ce:	48 89 c7             	mov    %rax,%rdi
   171d1:	e8 1d 35 ff ff       	callq  a6f3 <transparent_crc>
   171d6:	b8 3e 11 00 00       	mov    $0x113e,%eax
   171db:	48 98                	cltq   
   171dd:	8b 55 fc             	mov    -0x4(%rbp),%edx
   171e0:	48 8d 35 24 62 00 00 	lea    0x6224(%rip),%rsi        # 1d40b <g_1254+0x1347>
   171e7:	48 89 c7             	mov    %rax,%rdi
   171ea:	e8 04 35 ff ff       	callq  a6f3 <transparent_crc>
   171ef:	b8 ff ff ff ff       	mov    $0xffffffff,%eax
   171f4:	48 0f bf c0          	movswq %ax,%rax
   171f8:	8b 55 fc             	mov    -0x4(%rbp),%edx
   171fb:	48 8d 35 12 62 00 00 	lea    0x6212(%rip),%rsi        # 1d414 <g_1254+0x1350>
   17202:	48 89 c7             	mov    %rax,%rdi
   17205:	e8 e9 34 ff ff       	callq  a6f3 <transparent_crc>
   1720a:	b8 dd 40 00 00       	mov    $0x40dd,%eax
   1720f:	48 98                	cltq   
   17211:	8b 55 fc             	mov    -0x4(%rbp),%edx
   17214:	48 8d 35 02 62 00 00 	lea    0x6202(%rip),%rsi        # 1d41d <g_1254+0x1359>
   1721b:	48 89 c7             	mov    %rax,%rdi
   1721e:	e8 d0 34 ff ff       	callq  a6f3 <transparent_crc>
   17223:	48 8b 05 3e 4e 00 00 	mov    0x4e3e(%rip),%rax        # 1c068 <g_476+0x8>
   1722a:	48 c1 e0 0f          	shl    $0xf,%rax
   1722e:	48 c1 f8 2f          	sar    $0x2f,%rax
   17232:	48 98                	cltq   
   17234:	8b 55 fc             	mov    -0x4(%rbp),%edx
   17237:	48 8d 35 e8 61 00 00 	lea    0x61e8(%rip),%rsi        # 1d426 <g_1254+0x1362>
   1723e:	48 89 c7             	mov    %rax,%rdi
   17241:	e8 ad 34 ff ff       	callq  a6f3 <transparent_crc>
   17246:	48 8b 05 1b 4e 00 00 	mov    0x4e1b(%rip),%rax        # 1c068 <g_476+0x8>
   1724d:	48 c1 e0 04          	shl    $0x4,%rax
   17251:	48 c1 f8 35          	sar    $0x35,%rax
   17255:	48 0f bf c0          	movswq %ax,%rax
   17259:	8b 55 fc             	mov    -0x4(%rbp),%edx
   1725c:	48 8d 35 cc 61 00 00 	lea    0x61cc(%rip),%rsi        # 1d42f <g_1254+0x136b>
   17263:	48 89 c7             	mov    %rax,%rdi
   17266:	e8 88 34 ff ff       	callq  a6f3 <transparent_crc>
   1726b:	b8 00 00 00 00       	mov    $0x0,%eax
   17270:	48 0f be c0          	movsbq %al,%rax
   17274:	8b 55 fc             	mov    -0x4(%rbp),%edx
   17277:	48 8d 35 ba 61 00 00 	lea    0x61ba(%rip),%rsi        # 1d438 <g_1254+0x1374>
   1727e:	48 89 c7             	mov    %rax,%rdi
   17281:	e8 6d 34 ff ff       	callq  a6f3 <transparent_crc>
   17286:	c7 45 f0 00 00 00 00 	movl   $0x0,-0x10(%rbp)
   1728d:	e9 b2 02 00 00       	jmpq   17544 <main+0x1730>
   17292:	c7 45 f4 00 00 00 00 	movl   $0x0,-0xc(%rbp)
   17299:	e9 98 02 00 00       	jmpq   17536 <main+0x1722>
   1729e:	c7 45 f8 00 00 00 00 	movl   $0x0,-0x8(%rbp)
   172a5:	e9 7e 02 00 00       	jmpq   17528 <main+0x1714>
   172aa:	8b 45 f8             	mov    -0x8(%rbp),%eax
   172ad:	48 63 f0             	movslq %eax,%rsi
   172b0:	8b 45 f0             	mov    -0x10(%rbp),%eax
   172b3:	48 63 d0             	movslq %eax,%rdx
   172b6:	8b 45 f4             	mov    -0xc(%rbp),%eax
   172b9:	48 63 c8             	movslq %eax,%rcx
   172bc:	48 89 d0             	mov    %rdx,%rax
   172bf:	48 c1 e0 02          	shl    $0x2,%rax
   172c3:	48 01 d0             	add    %rdx,%rax
   172c6:	48 8d 14 85 00 00 00 	lea    0x0(,%rax,4),%rdx
   172cd:	00 
   172ce:	48 01 d0             	add    %rdx,%rax
   172d1:	48 89 ca             	mov    %rcx,%rdx
   172d4:	48 c1 e2 02          	shl    $0x2,%rdx
   172d8:	48 01 ca             	add    %rcx,%rdx
   172db:	48 01 d0             	add    %rdx,%rax
   172de:	48 01 f0             	add    %rsi,%rax
   172e1:	48 c1 e0 04          	shl    $0x4,%rax
   172e5:	48 89 c2             	mov    %rax,%rdx
   172e8:	48 8d 05 71 a6 00 00 	lea    0xa671(%rip),%rax        # 21960 <g_498>
   172ef:	8b 04 02             	mov    (%rdx,%rax,1),%eax
   172f2:	c1 e0 04             	shl    $0x4,%eax
   172f5:	c1 f8 04             	sar    $0x4,%eax
   172f8:	48 98                	cltq   
   172fa:	8b 55 fc             	mov    -0x4(%rbp),%edx
   172fd:	48 8d 35 3d 61 00 00 	lea    0x613d(%rip),%rsi        # 1d441 <g_1254+0x137d>
   17304:	48 89 c7             	mov    %rax,%rdi
   17307:	e8 e7 33 ff ff       	callq  a6f3 <transparent_crc>
   1730c:	8b 45 f8             	mov    -0x8(%rbp),%eax
   1730f:	48 63 f0             	movslq %eax,%rsi
   17312:	8b 45 f0             	mov    -0x10(%rbp),%eax
   17315:	48 63 d0             	movslq %eax,%rdx
   17318:	8b 45 f4             	mov    -0xc(%rbp),%eax
   1731b:	48 63 c8             	movslq %eax,%rcx
   1731e:	48 89 d0             	mov    %rdx,%rax
   17321:	48 c1 e0 02          	shl    $0x2,%rax
   17325:	48 01 d0             	add    %rdx,%rax
   17328:	48 8d 14 85 00 00 00 	lea    0x0(,%rax,4),%rdx
   1732f:	00 
   17330:	48 01 d0             	add    %rdx,%rax
   17333:	48 89 ca             	mov    %rcx,%rdx
   17336:	48 c1 e2 02          	shl    $0x2,%rdx
   1733a:	48 01 ca             	add    %rcx,%rdx
   1733d:	48 01 d0             	add    %rdx,%rax
   17340:	48 01 f0             	add    %rsi,%rax
   17343:	48 c1 e0 04          	shl    $0x4,%rax
   17347:	48 89 c2             	mov    %rax,%rdx
   1734a:	48 8d 05 13 a6 00 00 	lea    0xa613(%rip),%rax        # 21964 <g_498+0x4>
   17351:	0f b7 04 02          	movzwl (%rdx,%rax,1),%eax
   17355:	48 0f bf c0          	movswq %ax,%rax
   17359:	8b 55 fc             	mov    -0x4(%rbp),%edx
   1735c:	48 8d 35 f0 60 00 00 	lea    0x60f0(%rip),%rsi        # 1d453 <g_1254+0x138f>
   17363:	48 89 c7             	mov    %rax,%rdi
   17366:	e8 88 33 ff ff       	callq  a6f3 <transparent_crc>
   1736b:	8b 45 f8             	mov    -0x8(%rbp),%eax
   1736e:	48 63 f0             	movslq %eax,%rsi
   17371:	8b 45 f0             	mov    -0x10(%rbp),%eax
   17374:	48 63 d0             	movslq %eax,%rdx
   17377:	8b 45 f4             	mov    -0xc(%rbp),%eax
   1737a:	48 63 c8             	movslq %eax,%rcx
   1737d:	48 89 d0             	mov    %rdx,%rax
   17380:	48 c1 e0 02          	shl    $0x2,%rax
   17384:	48 01 d0             	add    %rdx,%rax
   17387:	48 8d 14 85 00 00 00 	lea    0x0(,%rax,4),%rdx
   1738e:	00 
   1738f:	48 01 d0             	add    %rdx,%rax
   17392:	48 89 ca             	mov    %rcx,%rdx
   17395:	48 c1 e2 02          	shl    $0x2,%rdx
   17399:	48 01 ca             	add    %rcx,%rdx
   1739c:	48 01 d0             	add    %rdx,%rax
   1739f:	48 01 f0             	add    %rsi,%rax
   173a2:	48 c1 e0 04          	shl    $0x4,%rax
   173a6:	48 89 c2             	mov    %rax,%rdx
   173a9:	48 8d 05 b0 a5 00 00 	lea    0xa5b0(%rip),%rax        # 21960 <g_498>
   173b0:	8b 44 02 08          	mov    0x8(%rdx,%rax,1),%eax
   173b4:	c1 e0 03             	shl    $0x3,%eax
   173b7:	c1 f8 03             	sar    $0x3,%eax
   173ba:	48 98                	cltq   
   173bc:	8b 55 fc             	mov    -0x4(%rbp),%edx
   173bf:	48 8d 35 9f 60 00 00 	lea    0x609f(%rip),%rsi        # 1d465 <g_1254+0x13a1>
   173c6:	48 89 c7             	mov    %rax,%rdi
   173c9:	e8 25 33 ff ff       	callq  a6f3 <transparent_crc>
   173ce:	8b 45 f8             	mov    -0x8(%rbp),%eax
   173d1:	48 63 f0             	movslq %eax,%rsi
   173d4:	8b 45 f0             	mov    -0x10(%rbp),%eax
   173d7:	48 63 d0             	movslq %eax,%rdx
   173da:	8b 45 f4             	mov    -0xc(%rbp),%eax
   173dd:	48 63 c8             	movslq %eax,%rcx
   173e0:	48 89 d0             	mov    %rdx,%rax
   173e3:	48 c1 e0 02          	shl    $0x2,%rax
   173e7:	48 01 d0             	add    %rdx,%rax
   173ea:	48 8d 14 85 00 00 00 	lea    0x0(,%rax,4),%rdx
   173f1:	00 
   173f2:	48 01 d0             	add    %rdx,%rax
   173f5:	48 89 ca             	mov    %rcx,%rdx
   173f8:	48 c1 e2 02          	shl    $0x2,%rdx
   173fc:	48 01 ca             	add    %rcx,%rdx
   173ff:	48 01 d0             	add    %rdx,%rax
   17402:	48 01 f0             	add    %rsi,%rax
   17405:	48 c1 e0 04          	shl    $0x4,%rax
   17409:	48 89 c2             	mov    %rax,%rdx
   1740c:	48 8d 05 4d a5 00 00 	lea    0xa54d(%rip),%rax        # 21960 <g_498>
   17413:	48 8b 44 02 08       	mov    0x8(%rdx,%rax,1),%rax
   17418:	48 c1 e0 0f          	shl    $0xf,%rax
   1741c:	48 c1 f8 2f          	sar    $0x2f,%rax
   17420:	48 98                	cltq   
   17422:	8b 55 fc             	mov    -0x4(%rbp),%edx
   17425:	48 8d 35 4b 60 00 00 	lea    0x604b(%rip),%rsi        # 1d477 <g_1254+0x13b3>
   1742c:	48 89 c7             	mov    %rax,%rdi
   1742f:	e8 bf 32 ff ff       	callq  a6f3 <transparent_crc>
   17434:	8b 45 f8             	mov    -0x8(%rbp),%eax
   17437:	48 63 f0             	movslq %eax,%rsi
   1743a:	8b 45 f0             	mov    -0x10(%rbp),%eax
   1743d:	48 63 d0             	movslq %eax,%rdx
   17440:	8b 45 f4             	mov    -0xc(%rbp),%eax
   17443:	48 63 c8             	movslq %eax,%rcx
   17446:	48 89 d0             	mov    %rdx,%rax
   17449:	48 c1 e0 02          	shl    $0x2,%rax
   1744d:	48 01 d0             	add    %rdx,%rax
   17450:	48 8d 14 85 00 00 00 	lea    0x0(,%rax,4),%rdx
   17457:	00 
   17458:	48 01 d0             	add    %rdx,%rax
   1745b:	48 89 ca             	mov    %rcx,%rdx
   1745e:	48 c1 e2 02          	shl    $0x2,%rdx
   17462:	48 01 ca             	add    %rcx,%rdx
   17465:	48 01 d0             	add    %rdx,%rax
   17468:	48 01 f0             	add    %rsi,%rax
   1746b:	48 c1 e0 04          	shl    $0x4,%rax
   1746f:	48 89 c2             	mov    %rax,%rdx
   17472:	48 8d 05 e7 a4 00 00 	lea    0xa4e7(%rip),%rax        # 21960 <g_498>
   17479:	48 8b 44 02 08       	mov    0x8(%rdx,%rax,1),%rax
   1747e:	48 c1 e0 04          	shl    $0x4,%rax
   17482:	48 c1 f8 35          	sar    $0x35,%rax
   17486:	48 0f bf c0          	movswq %ax,%rax
   1748a:	8b 55 fc             	mov    -0x4(%rbp),%edx
   1748d:	48 8d 35 f5 5f 00 00 	lea    0x5ff5(%rip),%rsi        # 1d489 <g_1254+0x13c5>
   17494:	48 89 c7             	mov    %rax,%rdi
   17497:	e8 57 32 ff ff       	callq  a6f3 <transparent_crc>
   1749c:	8b 45 f8             	mov    -0x8(%rbp),%eax
   1749f:	48 63 f0             	movslq %eax,%rsi
   174a2:	8b 45 f0             	mov    -0x10(%rbp),%eax
   174a5:	48 63 d0             	movslq %eax,%rdx
   174a8:	8b 45 f4             	mov    -0xc(%rbp),%eax
   174ab:	48 63 c8             	movslq %eax,%rcx
   174ae:	48 89 d0             	mov    %rdx,%rax
   174b1:	48 c1 e0 02          	shl    $0x2,%rax
   174b5:	48 01 d0             	add    %rdx,%rax
   174b8:	48 8d 14 85 00 00 00 	lea    0x0(,%rax,4),%rdx
   174bf:	00 
   174c0:	48 01 d0             	add    %rdx,%rax
   174c3:	48 89 ca             	mov    %rcx,%rdx
   174c6:	48 c1 e2 02          	shl    $0x2,%rdx
   174ca:	48 01 ca             	add    %rcx,%rdx
   174cd:	48 01 d0             	add    %rdx,%rax
   174d0:	48 01 f0             	add    %rsi,%rax
   174d3:	48 c1 e0 04          	shl    $0x4,%rax
   174d7:	48 89 c2             	mov    %rax,%rdx
   174da:	48 8d 05 7f a4 00 00 	lea    0xa47f(%rip),%rax        # 21960 <g_498>
   174e1:	0f b6 44 02 0f       	movzbl 0xf(%rdx,%rax,1),%eax
   174e6:	c1 e0 03             	shl    $0x3,%eax
   174e9:	c0 f8 07             	sar    $0x7,%al
   174ec:	48 0f be c0          	movsbq %al,%rax
   174f0:	8b 55 fc             	mov    -0x4(%rbp),%edx
   174f3:	48 8d 35 a1 5f 00 00 	lea    0x5fa1(%rip),%rsi        # 1d49b <g_1254+0x13d7>
   174fa:	48 89 c7             	mov    %rax,%rdi
   174fd:	e8 f1 31 ff ff       	callq  a6f3 <transparent_crc>
   17502:	83 7d fc 00          	cmpl   $0x0,-0x4(%rbp)
   17506:	74 1c                	je     17524 <main+0x1710>
   17508:	8b 4d f8             	mov    -0x8(%rbp),%ecx
   1750b:	8b 55 f4             	mov    -0xc(%rbp),%edx
   1750e:	8b 45 f0             	mov    -0x10(%rbp),%eax
   17511:	89 c6                	mov    %eax,%esi
   17513:	48 8d 3d e1 5b 00 00 	lea    0x5be1(%rip),%rdi        # 1d0fb <g_1254+0x1037>
   1751a:	b8 00 00 00 00       	mov    $0x0,%eax
   1751f:	e8 5c 1b ff ff       	callq  9080 <printf@plt>
   17524:	83 45 f8 01          	addl   $0x1,-0x8(%rbp)
   17528:	83 7d f8 04          	cmpl   $0x4,-0x8(%rbp)
   1752c:	0f 8e 78 fd ff ff    	jle    172aa <main+0x1496>
   17532:	83 45 f4 01          	addl   $0x1,-0xc(%rbp)
   17536:	83 7d f4 04          	cmpl   $0x4,-0xc(%rbp)
   1753a:	0f 8e 5e fd ff ff    	jle    1729e <main+0x148a>
   17540:	83 45 f0 01          	addl   $0x1,-0x10(%rbp)
   17544:	83 7d f0 08          	cmpl   $0x8,-0x10(%rbp)
   17548:	0f 8e 44 fd ff ff    	jle    17292 <main+0x147e>
   1754e:	8b 05 1c b2 00 00    	mov    0xb21c(%rip),%eax        # 22770 <g_499>
   17554:	c1 e0 04             	shl    $0x4,%eax
   17557:	c1 f8 04             	sar    $0x4,%eax
   1755a:	48 98                	cltq   
   1755c:	8b 55 fc             	mov    -0x4(%rbp),%edx
   1755f:	48 8d 35 47 5f 00 00 	lea    0x5f47(%rip),%rsi        # 1d4ad <g_1254+0x13e9>
   17566:	48 89 c7             	mov    %rax,%rdi
   17569:	e8 85 31 ff ff       	callq  a6f3 <transparent_crc>
   1756e:	0f b7 05 ff b1 00 00 	movzwl 0xb1ff(%rip),%eax        # 22774 <g_499+0x4>
   17575:	48 0f bf c0          	movswq %ax,%rax
   17579:	8b 55 fc             	mov    -0x4(%rbp),%edx
   1757c:	48 8d 35 33 5f 00 00 	lea    0x5f33(%rip),%rsi        # 1d4b6 <g_1254+0x13f2>
   17583:	48 89 c7             	mov    %rax,%rdi
   17586:	e8 68 31 ff ff       	callq  a6f3 <transparent_crc>
   1758b:	8b 05 e7 b1 00 00    	mov    0xb1e7(%rip),%eax        # 22778 <g_499+0x8>
   17591:	c1 e0 03             	shl    $0x3,%eax
   17594:	c1 f8 03             	sar    $0x3,%eax
   17597:	48 98                	cltq   
   17599:	8b 55 fc             	mov    -0x4(%rbp),%edx
   1759c:	48 8d 35 1c 5f 00 00 	lea    0x5f1c(%rip),%rsi        # 1d4bf <g_1254+0x13fb>
   175a3:	48 89 c7             	mov    %rax,%rdi
   175a6:	e8 48 31 ff ff       	callq  a6f3 <transparent_crc>
   175ab:	48 8b 05 c6 b1 00 00 	mov    0xb1c6(%rip),%rax        # 22778 <g_499+0x8>
   175b2:	48 c1 e0 0f          	shl    $0xf,%rax
   175b6:	48 c1 f8 2f          	sar    $0x2f,%rax
   175ba:	48 98                	cltq   
   175bc:	8b 55 fc             	mov    -0x4(%rbp),%edx
   175bf:	48 8d 35 02 5f 00 00 	lea    0x5f02(%rip),%rsi        # 1d4c8 <g_1254+0x1404>
   175c6:	48 89 c7             	mov    %rax,%rdi
   175c9:	e8 25 31 ff ff       	callq  a6f3 <transparent_crc>
   175ce:	48 8b 05 a3 b1 00 00 	mov    0xb1a3(%rip),%rax        # 22778 <g_499+0x8>
   175d5:	48 c1 e0 04          	shl    $0x4,%rax
   175d9:	48 c1 f8 35          	sar    $0x35,%rax
   175dd:	48 0f bf c0          	movswq %ax,%rax
   175e1:	8b 55 fc             	mov    -0x4(%rbp),%edx
   175e4:	48 8d 35 e6 5e 00 00 	lea    0x5ee6(%rip),%rsi        # 1d4d1 <g_1254+0x140d>
   175eb:	48 89 c7             	mov    %rax,%rdi
   175ee:	e8 00 31 ff ff       	callq  a6f3 <transparent_crc>
   175f3:	0f b6 05 85 b1 00 00 	movzbl 0xb185(%rip),%eax        # 2277f <g_499+0xf>
   175fa:	c1 e0 03             	shl    $0x3,%eax
   175fd:	c0 f8 07             	sar    $0x7,%al
   17600:	48 0f be c0          	movsbq %al,%rax
   17604:	8b 55 fc             	mov    -0x4(%rbp),%edx
   17607:	48 8d 35 cc 5e 00 00 	lea    0x5ecc(%rip),%rsi        # 1d4da <g_1254+0x1416>
   1760e:	48 89 c7             	mov    %rax,%rdi
   17611:	e8 dd 30 ff ff       	callq  a6f3 <transparent_crc>
   17616:	8b 05 64 b1 00 00    	mov    0xb164(%rip),%eax        # 22780 <g_500>
   1761c:	c1 e0 04             	shl    $0x4,%eax
   1761f:	c1 f8 04             	sar    $0x4,%eax
   17622:	48 98                	cltq   
   17624:	8b 55 fc             	mov    -0x4(%rbp),%edx
   17627:	48 8d 35 b5 5e 00 00 	lea    0x5eb5(%rip),%rsi        # 1d4e3 <g_1254+0x141f>
   1762e:	48 89 c7             	mov    %rax,%rdi
   17631:	e8 bd 30 ff ff       	callq  a6f3 <transparent_crc>
   17636:	0f b7 05 47 b1 00 00 	movzwl 0xb147(%rip),%eax        # 22784 <g_500+0x4>
   1763d:	48 0f bf c0          	movswq %ax,%rax
   17641:	8b 55 fc             	mov    -0x4(%rbp),%edx
   17644:	48 8d 35 a1 5e 00 00 	lea    0x5ea1(%rip),%rsi        # 1d4ec <g_1254+0x1428>
   1764b:	48 89 c7             	mov    %rax,%rdi
   1764e:	e8 a0 30 ff ff       	callq  a6f3 <transparent_crc>
   17653:	8b 05 2f b1 00 00    	mov    0xb12f(%rip),%eax        # 22788 <g_500+0x8>
   17659:	c1 e0 03             	shl    $0x3,%eax
   1765c:	c1 f8 03             	sar    $0x3,%eax
   1765f:	48 98                	cltq   
   17661:	8b 55 fc             	mov    -0x4(%rbp),%edx
   17664:	48 8d 35 8a 5e 00 00 	lea    0x5e8a(%rip),%rsi        # 1d4f5 <g_1254+0x1431>
   1766b:	48 89 c7             	mov    %rax,%rdi
   1766e:	e8 80 30 ff ff       	callq  a6f3 <transparent_crc>
   17673:	48 8b 05 0e b1 00 00 	mov    0xb10e(%rip),%rax        # 22788 <g_500+0x8>
   1767a:	48 c1 e0 0f          	shl    $0xf,%rax
   1767e:	48 c1 f8 2f          	sar    $0x2f,%rax
   17682:	48 98                	cltq   
   17684:	8b 55 fc             	mov    -0x4(%rbp),%edx
   17687:	48 8d 35 70 5e 00 00 	lea    0x5e70(%rip),%rsi        # 1d4fe <g_1254+0x143a>
   1768e:	48 89 c7             	mov    %rax,%rdi
   17691:	e8 5d 30 ff ff       	callq  a6f3 <transparent_crc>
   17696:	48 8b 05 eb b0 00 00 	mov    0xb0eb(%rip),%rax        # 22788 <g_500+0x8>
   1769d:	48 c1 e0 04          	shl    $0x4,%rax
   176a1:	48 c1 f8 35          	sar    $0x35,%rax
   176a5:	48 0f bf c0          	movswq %ax,%rax
   176a9:	8b 55 fc             	mov    -0x4(%rbp),%edx
   176ac:	48 8d 35 54 5e 00 00 	lea    0x5e54(%rip),%rsi        # 1d507 <g_1254+0x1443>
   176b3:	48 89 c7             	mov    %rax,%rdi
   176b6:	e8 38 30 ff ff       	callq  a6f3 <transparent_crc>
   176bb:	0f b6 05 cd b0 00 00 	movzbl 0xb0cd(%rip),%eax        # 2278f <g_500+0xf>
   176c2:	c1 e0 03             	shl    $0x3,%eax
   176c5:	c0 f8 07             	sar    $0x7,%al
   176c8:	48 0f be c0          	movsbq %al,%rax
   176cc:	8b 55 fc             	mov    -0x4(%rbp),%edx
   176cf:	48 8d 35 3a 5e 00 00 	lea    0x5e3a(%rip),%rsi        # 1d510 <g_1254+0x144c>
   176d6:	48 89 c7             	mov    %rax,%rdi
   176d9:	e8 15 30 ff ff       	callq  a6f3 <transparent_crc>
   176de:	8b 05 ac b0 00 00    	mov    0xb0ac(%rip),%eax        # 22790 <g_501>
   176e4:	c1 e0 04             	shl    $0x4,%eax
   176e7:	c1 f8 04             	sar    $0x4,%eax
   176ea:	48 98                	cltq   
   176ec:	8b 55 fc             	mov    -0x4(%rbp),%edx
   176ef:	48 8d 35 23 5e 00 00 	lea    0x5e23(%rip),%rsi        # 1d519 <g_1254+0x1455>
   176f6:	48 89 c7             	mov    %rax,%rdi
   176f9:	e8 f5 2f ff ff       	callq  a6f3 <transparent_crc>
   176fe:	0f b7 05 8f b0 00 00 	movzwl 0xb08f(%rip),%eax        # 22794 <g_501+0x4>
   17705:	48 0f bf c0          	movswq %ax,%rax
   17709:	8b 55 fc             	mov    -0x4(%rbp),%edx
   1770c:	48 8d 35 0f 5e 00 00 	lea    0x5e0f(%rip),%rsi        # 1d522 <g_1254+0x145e>
   17713:	48 89 c7             	mov    %rax,%rdi
   17716:	e8 d8 2f ff ff       	callq  a6f3 <transparent_crc>
   1771b:	8b 05 77 b0 00 00    	mov    0xb077(%rip),%eax        # 22798 <g_501+0x8>
   17721:	c1 e0 03             	shl    $0x3,%eax
   17724:	c1 f8 03             	sar    $0x3,%eax
   17727:	48 98                	cltq   
   17729:	8b 55 fc             	mov    -0x4(%rbp),%edx
   1772c:	48 8d 35 f8 5d 00 00 	lea    0x5df8(%rip),%rsi        # 1d52b <g_1254+0x1467>
   17733:	48 89 c7             	mov    %rax,%rdi
   17736:	e8 b8 2f ff ff       	callq  a6f3 <transparent_crc>
   1773b:	48 8b 05 56 b0 00 00 	mov    0xb056(%rip),%rax        # 22798 <g_501+0x8>
   17742:	48 c1 e0 0f          	shl    $0xf,%rax
   17746:	48 c1 f8 2f          	sar    $0x2f,%rax
   1774a:	48 98                	cltq   
   1774c:	8b 55 fc             	mov    -0x4(%rbp),%edx
   1774f:	48 8d 35 de 5d 00 00 	lea    0x5dde(%rip),%rsi        # 1d534 <g_1254+0x1470>
   17756:	48 89 c7             	mov    %rax,%rdi
   17759:	e8 95 2f ff ff       	callq  a6f3 <transparent_crc>
   1775e:	48 8b 05 33 b0 00 00 	mov    0xb033(%rip),%rax        # 22798 <g_501+0x8>
   17765:	48 c1 e0 04          	shl    $0x4,%rax
   17769:	48 c1 f8 35          	sar    $0x35,%rax
   1776d:	48 0f bf c0          	movswq %ax,%rax
   17771:	8b 55 fc             	mov    -0x4(%rbp),%edx
   17774:	48 8d 35 c2 5d 00 00 	lea    0x5dc2(%rip),%rsi        # 1d53d <g_1254+0x1479>
   1777b:	48 89 c7             	mov    %rax,%rdi
   1777e:	e8 70 2f ff ff       	callq  a6f3 <transparent_crc>
   17783:	0f b6 05 15 b0 00 00 	movzbl 0xb015(%rip),%eax        # 2279f <g_501+0xf>
   1778a:	c1 e0 03             	shl    $0x3,%eax
   1778d:	c0 f8 07             	sar    $0x7,%al
   17790:	48 0f be c0          	movsbq %al,%rax
   17794:	8b 55 fc             	mov    -0x4(%rbp),%edx
   17797:	48 8d 35 a8 5d 00 00 	lea    0x5da8(%rip),%rsi        # 1d546 <g_1254+0x1482>
   1779e:	48 89 c7             	mov    %rax,%rdi
   177a1:	e8 4d 2f ff ff       	callq  a6f3 <transparent_crc>
   177a6:	8b 05 f4 af 00 00    	mov    0xaff4(%rip),%eax        # 227a0 <g_505>
   177ac:	c1 e0 04             	shl    $0x4,%eax
   177af:	c1 f8 04             	sar    $0x4,%eax
   177b2:	48 98                	cltq   
   177b4:	8b 55 fc             	mov    -0x4(%rbp),%edx
   177b7:	48 8d 35 91 5d 00 00 	lea    0x5d91(%rip),%rsi        # 1d54f <g_1254+0x148b>
   177be:	48 89 c7             	mov    %rax,%rdi
   177c1:	e8 2d 2f ff ff       	callq  a6f3 <transparent_crc>
   177c6:	0f b7 05 d7 af 00 00 	movzwl 0xafd7(%rip),%eax        # 227a4 <g_505+0x4>
   177cd:	48 0f bf c0          	movswq %ax,%rax
   177d1:	8b 55 fc             	mov    -0x4(%rbp),%edx
   177d4:	48 8d 35 7d 5d 00 00 	lea    0x5d7d(%rip),%rsi        # 1d558 <g_1254+0x1494>
   177db:	48 89 c7             	mov    %rax,%rdi
   177de:	e8 10 2f ff ff       	callq  a6f3 <transparent_crc>
   177e3:	8b 05 bf af 00 00    	mov    0xafbf(%rip),%eax        # 227a8 <g_505+0x8>
   177e9:	c1 e0 03             	shl    $0x3,%eax
   177ec:	c1 f8 03             	sar    $0x3,%eax
   177ef:	48 98                	cltq   
   177f1:	8b 55 fc             	mov    -0x4(%rbp),%edx
   177f4:	48 8d 35 66 5d 00 00 	lea    0x5d66(%rip),%rsi        # 1d561 <g_1254+0x149d>
   177fb:	48 89 c7             	mov    %rax,%rdi
   177fe:	e8 f0 2e ff ff       	callq  a6f3 <transparent_crc>
   17803:	48 8b 05 9e af 00 00 	mov    0xaf9e(%rip),%rax        # 227a8 <g_505+0x8>
   1780a:	48 c1 e0 0f          	shl    $0xf,%rax
   1780e:	48 c1 f8 2f          	sar    $0x2f,%rax
   17812:	48 98                	cltq   
   17814:	8b 55 fc             	mov    -0x4(%rbp),%edx
   17817:	48 8d 35 4c 5d 00 00 	lea    0x5d4c(%rip),%rsi        # 1d56a <g_1254+0x14a6>
   1781e:	48 89 c7             	mov    %rax,%rdi
   17821:	e8 cd 2e ff ff       	callq  a6f3 <transparent_crc>
   17826:	48 8b 05 7b af 00 00 	mov    0xaf7b(%rip),%rax        # 227a8 <g_505+0x8>
   1782d:	48 c1 e0 04          	shl    $0x4,%rax
   17831:	48 c1 f8 35          	sar    $0x35,%rax
   17835:	48 0f bf c0          	movswq %ax,%rax
   17839:	8b 55 fc             	mov    -0x4(%rbp),%edx
   1783c:	48 8d 35 30 5d 00 00 	lea    0x5d30(%rip),%rsi        # 1d573 <g_1254+0x14af>
   17843:	48 89 c7             	mov    %rax,%rdi
   17846:	e8 a8 2e ff ff       	callq  a6f3 <transparent_crc>
   1784b:	0f b6 05 5d af 00 00 	movzbl 0xaf5d(%rip),%eax        # 227af <g_505+0xf>
   17852:	c1 e0 03             	shl    $0x3,%eax
   17855:	c0 f8 07             	sar    $0x7,%al
   17858:	48 0f be c0          	movsbq %al,%rax
   1785c:	8b 55 fc             	mov    -0x4(%rbp),%edx
   1785f:	48 8d 35 16 5d 00 00 	lea    0x5d16(%rip),%rsi        # 1d57c <g_1254+0x14b8>
   17866:	48 89 c7             	mov    %rax,%rdi
   17869:	e8 85 2e ff ff       	callq  a6f3 <transparent_crc>
   1786e:	c7 45 f0 00 00 00 00 	movl   $0x0,-0x10(%rbp)
   17875:	e9 c0 01 00 00       	jmpq   17a3a <main+0x1c26>
   1787a:	8b 45 f0             	mov    -0x10(%rbp),%eax
   1787d:	48 63 d0             	movslq %eax,%rdx
   17880:	48 89 d0             	mov    %rdx,%rax
   17883:	48 c1 e0 02          	shl    $0x2,%rax
   17887:	48 01 d0             	add    %rdx,%rax
   1788a:	48 c1 e0 02          	shl    $0x2,%rax
   1788e:	48 89 c2             	mov    %rax,%rdx
   17891:	48 8d 05 28 af 00 00 	lea    0xaf28(%rip),%rax        # 227c0 <g_523>
   17898:	8b 04 02             	mov    (%rdx,%rax,1),%eax
   1789b:	c1 e0 06             	shl    $0x6,%eax
   1789e:	c1 f8 06             	sar    $0x6,%eax
   178a1:	48 98                	cltq   
   178a3:	8b 55 fc             	mov    -0x4(%rbp),%edx
   178a6:	48 8d 35 d8 5c 00 00 	lea    0x5cd8(%rip),%rsi        # 1d585 <g_1254+0x14c1>
   178ad:	48 89 c7             	mov    %rax,%rdi
   178b0:	e8 3e 2e ff ff       	callq  a6f3 <transparent_crc>
   178b5:	8b 45 f0             	mov    -0x10(%rbp),%eax
   178b8:	48 63 d0             	movslq %eax,%rdx
   178bb:	48 89 d0             	mov    %rdx,%rax
   178be:	48 c1 e0 02          	shl    $0x2,%rax
   178c2:	48 01 d0             	add    %rdx,%rax
   178c5:	48 c1 e0 02          	shl    $0x2,%rax
   178c9:	48 89 c2             	mov    %rax,%rdx
   178cc:	48 8d 05 f1 ae 00 00 	lea    0xaef1(%rip),%rax        # 227c4 <g_523+0x4>
   178d3:	0f b6 04 02          	movzbl (%rdx,%rax,1),%eax
   178d7:	48 0f be c0          	movsbq %al,%rax
   178db:	8b 55 fc             	mov    -0x4(%rbp),%edx
   178de:	48 8d 35 ac 5c 00 00 	lea    0x5cac(%rip),%rsi        # 1d591 <g_1254+0x14cd>
   178e5:	48 89 c7             	mov    %rax,%rdi
   178e8:	e8 06 2e ff ff       	callq  a6f3 <transparent_crc>
   178ed:	8b 45 f0             	mov    -0x10(%rbp),%eax
   178f0:	48 63 d0             	movslq %eax,%rdx
   178f3:	48 89 d0             	mov    %rdx,%rax
   178f6:	48 c1 e0 02          	shl    $0x2,%rax
   178fa:	48 01 d0             	add    %rdx,%rax
   178fd:	48 c1 e0 02          	shl    $0x2,%rax
   17901:	48 89 c2             	mov    %rax,%rdx
   17904:	48 8d 05 b5 ae 00 00 	lea    0xaeb5(%rip),%rax        # 227c0 <g_523>
   1790b:	8b 44 02 04          	mov    0x4(%rdx,%rax,1),%eax
   1790f:	c1 e0 05             	shl    $0x5,%eax
   17912:	c1 f8 0d             	sar    $0xd,%eax
   17915:	48 98                	cltq   
   17917:	8b 55 fc             	mov    -0x4(%rbp),%edx
   1791a:	48 8d 35 7c 5c 00 00 	lea    0x5c7c(%rip),%rsi        # 1d59d <g_1254+0x14d9>
   17921:	48 89 c7             	mov    %rax,%rdi
   17924:	e8 ca 2d ff ff       	callq  a6f3 <transparent_crc>
   17929:	8b 45 f0             	mov    -0x10(%rbp),%eax
   1792c:	48 63 d0             	movslq %eax,%rdx
   1792f:	48 89 d0             	mov    %rdx,%rax
   17932:	48 c1 e0 02          	shl    $0x2,%rax
   17936:	48 01 d0             	add    %rdx,%rax
   17939:	48 c1 e0 02          	shl    $0x2,%rax
   1793d:	48 89 c2             	mov    %rax,%rdx
   17940:	48 8d 05 79 ae 00 00 	lea    0xae79(%rip),%rax        # 227c0 <g_523>
   17947:	8b 44 02 08          	mov    0x8(%rdx,%rax,1),%eax
   1794b:	c1 e0 06             	shl    $0x6,%eax
   1794e:	c1 f8 06             	sar    $0x6,%eax
   17951:	48 98                	cltq   
   17953:	8b 55 fc             	mov    -0x4(%rbp),%edx
   17956:	48 8d 35 4c 5c 00 00 	lea    0x5c4c(%rip),%rsi        # 1d5a9 <g_1254+0x14e5>
   1795d:	48 89 c7             	mov    %rax,%rdi
   17960:	e8 8e 2d ff ff       	callq  a6f3 <transparent_crc>
   17965:	8b 45 f0             	mov    -0x10(%rbp),%eax
   17968:	48 63 d0             	movslq %eax,%rdx
   1796b:	48 89 d0             	mov    %rdx,%rax
   1796e:	48 c1 e0 02          	shl    $0x2,%rax
   17972:	48 01 d0             	add    %rdx,%rax
   17975:	48 c1 e0 02          	shl    $0x2,%rax
   17979:	48 89 c2             	mov    %rax,%rdx
   1797c:	48 8d 05 3d ae 00 00 	lea    0xae3d(%rip),%rax        # 227c0 <g_523>
   17983:	8b 44 02 08          	mov    0x8(%rdx,%rax,1),%eax
   17987:	c1 e0 04             	shl    $0x4,%eax
   1798a:	c1 f8 1e             	sar    $0x1e,%eax
   1798d:	48 0f be c0          	movsbq %al,%rax
   17991:	8b 55 fc             	mov    -0x4(%rbp),%edx
   17994:	48 8d 35 1a 5c 00 00 	lea    0x5c1a(%rip),%rsi        # 1d5b5 <g_1254+0x14f1>
   1799b:	48 89 c7             	mov    %rax,%rdi
   1799e:	e8 50 2d ff ff       	callq  a6f3 <transparent_crc>
   179a3:	8b 45 f0             	mov    -0x10(%rbp),%eax
   179a6:	48 63 d0             	movslq %eax,%rdx
   179a9:	48 89 d0             	mov    %rdx,%rax
   179ac:	48 c1 e0 02          	shl    $0x2,%rax
   179b0:	48 01 d0             	add    %rdx,%rax
   179b3:	48 c1 e0 02          	shl    $0x2,%rax
   179b7:	48 89 c2             	mov    %rax,%rdx
   179ba:	48 8d 05 ff ad 00 00 	lea    0xadff(%rip),%rax        # 227c0 <g_523>
   179c1:	8b 44 02 0c          	mov    0xc(%rdx,%rax,1),%eax
   179c5:	c1 e0 0c             	shl    $0xc,%eax
   179c8:	c1 f8 0c             	sar    $0xc,%eax
   179cb:	48 98                	cltq   
   179cd:	8b 55 fc             	mov    -0x4(%rbp),%edx
   179d0:	48 8d 35 ea 5b 00 00 	lea    0x5bea(%rip),%rsi        # 1d5c1 <g_1254+0x14fd>
   179d7:	48 89 c7             	mov    %rax,%rdi
   179da:	e8 14 2d ff ff       	callq  a6f3 <transparent_crc>
   179df:	8b 45 f0             	mov    -0x10(%rbp),%eax
   179e2:	48 63 d0             	movslq %eax,%rdx
   179e5:	48 89 d0             	mov    %rdx,%rax
   179e8:	48 c1 e0 02          	shl    $0x2,%rax
   179ec:	48 01 d0             	add    %rdx,%rax
   179ef:	48 c1 e0 02          	shl    $0x2,%rax
   179f3:	48 89 c2             	mov    %rax,%rdx
   179f6:	48 8d 05 d3 ad 00 00 	lea    0xadd3(%rip),%rax        # 227d0 <g_523+0x10>
   179fd:	8b 04 02             	mov    (%rdx,%rax,1),%eax
   17a00:	c1 e0 0d             	shl    $0xd,%eax
   17a03:	c1 f8 0d             	sar    $0xd,%eax
   17a06:	48 98                	cltq   
   17a08:	8b 55 fc             	mov    -0x4(%rbp),%edx
   17a0b:	48 8d 35 bb 5b 00 00 	lea    0x5bbb(%rip),%rsi        # 1d5cd <g_1254+0x1509>
   17a12:	48 89 c7             	mov    %rax,%rdi
   17a15:	e8 d9 2c ff ff       	callq  a6f3 <transparent_crc>
   17a1a:	83 7d fc 00          	cmpl   $0x0,-0x4(%rbp)
   17a1e:	74 16                	je     17a36 <main+0x1c22>
   17a20:	8b 45 f0             	mov    -0x10(%rbp),%eax
   17a23:	89 c6                	mov    %eax,%esi
   17a25:	48 8d 3d b9 55 00 00 	lea    0x55b9(%rip),%rdi        # 1cfe5 <g_1254+0xf21>
   17a2c:	b8 00 00 00 00       	mov    $0x0,%eax
   17a31:	e8 4a 16 ff ff       	callq  9080 <printf@plt>
   17a36:	83 45 f0 01          	addl   $0x1,-0x10(%rbp)
   17a3a:	83 7d f0 03          	cmpl   $0x3,-0x10(%rbp)
   17a3e:	0f 8e 36 fe ff ff    	jle    1787a <main+0x1a66>
   17a44:	8b 05 c6 ad 00 00    	mov    0xadc6(%rip),%eax        # 22810 <g_525>
   17a4a:	c1 e0 06             	shl    $0x6,%eax
   17a4d:	c1 f8 06             	sar    $0x6,%eax
   17a50:	48 98                	cltq   
   17a52:	8b 55 fc             	mov    -0x4(%rbp),%edx
   17a55:	48 8d 35 7d 5b 00 00 	lea    0x5b7d(%rip),%rsi        # 1d5d9 <g_1254+0x1515>
   17a5c:	48 89 c7             	mov    %rax,%rdi
   17a5f:	e8 8f 2c ff ff       	callq  a6f3 <transparent_crc>
   17a64:	0f b6 05 a9 ad 00 00 	movzbl 0xada9(%rip),%eax        # 22814 <g_525+0x4>
   17a6b:	48 0f be c0          	movsbq %al,%rax
   17a6f:	8b 55 fc             	mov    -0x4(%rbp),%edx
   17a72:	48 8d 35 69 5b 00 00 	lea    0x5b69(%rip),%rsi        # 1d5e2 <g_1254+0x151e>
   17a79:	48 89 c7             	mov    %rax,%rdi
   17a7c:	e8 72 2c ff ff       	callq  a6f3 <transparent_crc>
   17a81:	8b 05 8d ad 00 00    	mov    0xad8d(%rip),%eax        # 22814 <g_525+0x4>
   17a87:	c1 e0 05             	shl    $0x5,%eax
   17a8a:	c1 f8 0d             	sar    $0xd,%eax
   17a8d:	48 98                	cltq   
   17a8f:	8b 55 fc             	mov    -0x4(%rbp),%edx
   17a92:	48 8d 35 52 5b 00 00 	lea    0x5b52(%rip),%rsi        # 1d5eb <g_1254+0x1527>
   17a99:	48 89 c7             	mov    %rax,%rdi
   17a9c:	e8 52 2c ff ff       	callq  a6f3 <transparent_crc>
   17aa1:	8b 05 71 ad 00 00    	mov    0xad71(%rip),%eax        # 22818 <g_525+0x8>
   17aa7:	c1 e0 06             	shl    $0x6,%eax
   17aaa:	c1 f8 06             	sar    $0x6,%eax
   17aad:	48 98                	cltq   
   17aaf:	8b 55 fc             	mov    -0x4(%rbp),%edx
   17ab2:	48 8d 35 3b 5b 00 00 	lea    0x5b3b(%rip),%rsi        # 1d5f4 <g_1254+0x1530>
   17ab9:	48 89 c7             	mov    %rax,%rdi
   17abc:	e8 32 2c ff ff       	callq  a6f3 <transparent_crc>
   17ac1:	0f b6 05 53 ad 00 00 	movzbl 0xad53(%rip),%eax        # 2281b <g_525+0xb>
   17ac8:	c1 e0 04             	shl    $0x4,%eax
   17acb:	c0 f8 06             	sar    $0x6,%al
   17ace:	48 0f be c0          	movsbq %al,%rax
   17ad2:	8b 55 fc             	mov    -0x4(%rbp),%edx
   17ad5:	48 8d 35 21 5b 00 00 	lea    0x5b21(%rip),%rsi        # 1d5fd <g_1254+0x1539>
   17adc:	48 89 c7             	mov    %rax,%rdi
   17adf:	e8 0f 2c ff ff       	callq  a6f3 <transparent_crc>
   17ae4:	8b 05 32 ad 00 00    	mov    0xad32(%rip),%eax        # 2281c <g_525+0xc>
   17aea:	c1 e0 0c             	shl    $0xc,%eax
   17aed:	c1 f8 0c             	sar    $0xc,%eax
   17af0:	48 98                	cltq   
   17af2:	8b 55 fc             	mov    -0x4(%rbp),%edx
   17af5:	48 8d 35 0a 5b 00 00 	lea    0x5b0a(%rip),%rsi        # 1d606 <g_1254+0x1542>
   17afc:	48 89 c7             	mov    %rax,%rdi
   17aff:	e8 ef 2b ff ff       	callq  a6f3 <transparent_crc>
   17b04:	8b 05 16 ad 00 00    	mov    0xad16(%rip),%eax        # 22820 <g_525+0x10>
   17b0a:	c1 e0 0d             	shl    $0xd,%eax
   17b0d:	c1 f8 0d             	sar    $0xd,%eax
   17b10:	48 98                	cltq   
   17b12:	8b 55 fc             	mov    -0x4(%rbp),%edx
   17b15:	48 8d 35 f3 5a 00 00 	lea    0x5af3(%rip),%rsi        # 1d60f <g_1254+0x154b>
   17b1c:	48 89 c7             	mov    %rax,%rdi
   17b1f:	e8 cf 2b ff ff       	callq  a6f3 <transparent_crc>
   17b24:	8b 05 06 ad 00 00    	mov    0xad06(%rip),%eax        # 22830 <g_566>
   17b2a:	c1 e0 06             	shl    $0x6,%eax
   17b2d:	c1 f8 06             	sar    $0x6,%eax
   17b30:	48 98                	cltq   
   17b32:	8b 55 fc             	mov    -0x4(%rbp),%edx
   17b35:	48 8d 35 dc 5a 00 00 	lea    0x5adc(%rip),%rsi        # 1d618 <g_1254+0x1554>
   17b3c:	48 89 c7             	mov    %rax,%rdi
   17b3f:	e8 af 2b ff ff       	callq  a6f3 <transparent_crc>
   17b44:	0f b6 05 e9 ac 00 00 	movzbl 0xace9(%rip),%eax        # 22834 <g_566+0x4>
   17b4b:	48 0f be c0          	movsbq %al,%rax
   17b4f:	8b 55 fc             	mov    -0x4(%rbp),%edx
   17b52:	48 8d 35 c8 5a 00 00 	lea    0x5ac8(%rip),%rsi        # 1d621 <g_1254+0x155d>
   17b59:	48 89 c7             	mov    %rax,%rdi
   17b5c:	e8 92 2b ff ff       	callq  a6f3 <transparent_crc>
   17b61:	8b 05 cd ac 00 00    	mov    0xaccd(%rip),%eax        # 22834 <g_566+0x4>
   17b67:	c1 e0 05             	shl    $0x5,%eax
   17b6a:	c1 f8 0d             	sar    $0xd,%eax
   17b6d:	48 98                	cltq   
   17b6f:	8b 55 fc             	mov    -0x4(%rbp),%edx
   17b72:	48 8d 35 b1 5a 00 00 	lea    0x5ab1(%rip),%rsi        # 1d62a <g_1254+0x1566>
   17b79:	48 89 c7             	mov    %rax,%rdi
   17b7c:	e8 72 2b ff ff       	callq  a6f3 <transparent_crc>
   17b81:	8b 05 b1 ac 00 00    	mov    0xacb1(%rip),%eax        # 22838 <g_566+0x8>
   17b87:	c1 e0 06             	shl    $0x6,%eax
   17b8a:	c1 f8 06             	sar    $0x6,%eax
   17b8d:	48 98                	cltq   
   17b8f:	8b 55 fc             	mov    -0x4(%rbp),%edx
   17b92:	48 8d 35 9a 5a 00 00 	lea    0x5a9a(%rip),%rsi        # 1d633 <g_1254+0x156f>
   17b99:	48 89 c7             	mov    %rax,%rdi
   17b9c:	e8 52 2b ff ff       	callq  a6f3 <transparent_crc>
   17ba1:	0f b6 05 93 ac 00 00 	movzbl 0xac93(%rip),%eax        # 2283b <g_566+0xb>
   17ba8:	c1 e0 04             	shl    $0x4,%eax
   17bab:	c0 f8 06             	sar    $0x6,%al
   17bae:	48 0f be c0          	movsbq %al,%rax
   17bb2:	8b 55 fc             	mov    -0x4(%rbp),%edx
   17bb5:	48 8d 35 80 5a 00 00 	lea    0x5a80(%rip),%rsi        # 1d63c <g_1254+0x1578>
   17bbc:	48 89 c7             	mov    %rax,%rdi
   17bbf:	e8 2f 2b ff ff       	callq  a6f3 <transparent_crc>
   17bc4:	8b 05 72 ac 00 00    	mov    0xac72(%rip),%eax        # 2283c <g_566+0xc>
   17bca:	c1 e0 0c             	shl    $0xc,%eax
   17bcd:	c1 f8 0c             	sar    $0xc,%eax
   17bd0:	48 98                	cltq   
   17bd2:	8b 55 fc             	mov    -0x4(%rbp),%edx
   17bd5:	48 8d 35 69 5a 00 00 	lea    0x5a69(%rip),%rsi        # 1d645 <g_1254+0x1581>
   17bdc:	48 89 c7             	mov    %rax,%rdi
   17bdf:	e8 0f 2b ff ff       	callq  a6f3 <transparent_crc>
   17be4:	8b 05 56 ac 00 00    	mov    0xac56(%rip),%eax        # 22840 <g_566+0x10>
   17bea:	c1 e0 0d             	shl    $0xd,%eax
   17bed:	c1 f8 0d             	sar    $0xd,%eax
   17bf0:	48 98                	cltq   
   17bf2:	8b 55 fc             	mov    -0x4(%rbp),%edx
   17bf5:	48 8d 35 52 5a 00 00 	lea    0x5a52(%rip),%rsi        # 1d64e <g_1254+0x158a>
   17bfc:	48 89 c7             	mov    %rax,%rdi
   17bff:	e8 ef 2a ff ff       	callq  a6f3 <transparent_crc>
   17c04:	0f b6 05 39 ac 00 00 	movzbl 0xac39(%rip),%eax        # 22844 <g_582>
   17c0b:	48 0f be c0          	movsbq %al,%rax
   17c0f:	8b 55 fc             	mov    -0x4(%rbp),%edx
   17c12:	48 8d 35 3e 5a 00 00 	lea    0x5a3e(%rip),%rsi        # 1d657 <g_1254+0x1593>
   17c19:	48 89 c7             	mov    %rax,%rdi
   17c1c:	e8 d2 2a ff ff       	callq  a6f3 <transparent_crc>
   17c21:	48 8b 05 20 ac 00 00 	mov    0xac20(%rip),%rax        # 22848 <g_656>
   17c28:	8b 55 fc             	mov    -0x4(%rbp),%edx
   17c2b:	48 8d 35 2b 5a 00 00 	lea    0x5a2b(%rip),%rsi        # 1d65d <g_1254+0x1599>
   17c32:	48 89 c7             	mov    %rax,%rdi
   17c35:	e8 b9 2a ff ff       	callq  a6f3 <transparent_crc>
   17c3a:	8b 05 20 ac 00 00    	mov    0xac20(%rip),%eax        # 22860 <g_677>
   17c40:	48 98                	cltq   
   17c42:	8b 55 fc             	mov    -0x4(%rbp),%edx
   17c45:	48 8d 35 17 5a 00 00 	lea    0x5a17(%rip),%rsi        # 1d663 <g_1254+0x159f>
   17c4c:	48 89 c7             	mov    %rax,%rdi
   17c4f:	e8 9f 2a ff ff       	callq  a6f3 <transparent_crc>
   17c54:	48 8b 05 0d ac 00 00 	mov    0xac0d(%rip),%rax        # 22868 <g_677+0x8>
   17c5b:	8b 55 fc             	mov    -0x4(%rbp),%edx
   17c5e:	48 8d 35 07 5a 00 00 	lea    0x5a07(%rip),%rsi        # 1d66c <g_1254+0x15a8>
   17c65:	48 89 c7             	mov    %rax,%rdi
   17c68:	e8 86 2a ff ff       	callq  a6f3 <transparent_crc>
   17c6d:	48 8b 05 fc ab 00 00 	mov    0xabfc(%rip),%rax        # 22870 <g_677+0x10>
   17c74:	c1 e0 0a             	shl    $0xa,%eax
   17c77:	c1 f8 0a             	sar    $0xa,%eax
   17c7a:	48 98                	cltq   
   17c7c:	8b 55 fc             	mov    -0x4(%rbp),%edx
   17c7f:	48 8d 35 ef 59 00 00 	lea    0x59ef(%rip),%rsi        # 1d675 <g_1254+0x15b1>
   17c86:	48 89 c7             	mov    %rax,%rdi
   17c89:	e8 65 2a ff ff       	callq  a6f3 <transparent_crc>
   17c8e:	8b 05 e0 ab 00 00    	mov    0xabe0(%rip),%eax        # 22874 <g_677+0x14>
   17c94:	89 c1                	mov    %eax,%ecx
   17c96:	8b 45 fc             	mov    -0x4(%rbp),%eax
   17c99:	89 c2                	mov    %eax,%edx
   17c9b:	48 8d 35 dc 59 00 00 	lea    0x59dc(%rip),%rsi        # 1d67e <g_1254+0x15ba>
   17ca2:	48 89 cf             	mov    %rcx,%rdi
   17ca5:	e8 49 2a ff ff       	callq  a6f3 <transparent_crc>
   17caa:	0f b6 05 c7 ab 00 00 	movzbl 0xabc7(%rip),%eax        # 22878 <g_677+0x18>
   17cb1:	48 0f be c0          	movsbq %al,%rax
   17cb5:	8b 55 fc             	mov    -0x4(%rbp),%edx
   17cb8:	48 8d 35 c8 59 00 00 	lea    0x59c8(%rip),%rsi        # 1d687 <g_1254+0x15c3>
   17cbf:	48 89 c7             	mov    %rax,%rdi
   17cc2:	e8 2c 2a ff ff       	callq  a6f3 <transparent_crc>
   17cc7:	48 8b 05 b2 ab 00 00 	mov    0xabb2(%rip),%rax        # 22880 <g_677+0x20>
   17cce:	48 89 c1             	mov    %rax,%rcx
   17cd1:	8b 45 fc             	mov    -0x4(%rbp),%eax
   17cd4:	89 c2                	mov    %eax,%edx
   17cd6:	48 8d 35 b3 59 00 00 	lea    0x59b3(%rip),%rsi        # 1d690 <g_1254+0x15cc>
   17cdd:	48 89 cf             	mov    %rcx,%rdi
   17ce0:	e8 0e 2a ff ff       	callq  a6f3 <transparent_crc>
   17ce5:	c7 45 f0 00 00 00 00 	movl   $0x0,-0x10(%rbp)
   17cec:	e9 50 01 00 00       	jmpq   17e41 <main+0x202d>
   17cf1:	8b 45 f0             	mov    -0x10(%rbp),%eax
   17cf4:	48 98                	cltq   
   17cf6:	48 c1 e0 04          	shl    $0x4,%rax
   17cfa:	48 89 c2             	mov    %rax,%rdx
   17cfd:	48 8d 05 9c ab 00 00 	lea    0xab9c(%rip),%rax        # 228a0 <g_708>
   17d04:	48 8b 04 02          	mov    (%rdx,%rax,1),%rax
   17d08:	c1 e0 04             	shl    $0x4,%eax
   17d0b:	c1 f8 04             	sar    $0x4,%eax
   17d0e:	48 98                	cltq   
   17d10:	8b 55 fc             	mov    -0x4(%rbp),%edx
   17d13:	48 8d 35 7f 59 00 00 	lea    0x597f(%rip),%rsi        # 1d699 <g_1254+0x15d5>
   17d1a:	48 89 c7             	mov    %rax,%rdi
   17d1d:	e8 d1 29 ff ff       	callq  a6f3 <transparent_crc>
   17d22:	8b 45 f0             	mov    -0x10(%rbp),%eax
   17d25:	48 98                	cltq   
   17d27:	48 c1 e0 04          	shl    $0x4,%rax
   17d2b:	48 89 c2             	mov    %rax,%rdx
   17d2e:	48 8d 05 6f ab 00 00 	lea    0xab6f(%rip),%rax        # 228a4 <g_708+0x4>
   17d35:	0f b7 04 02          	movzwl (%rdx,%rax,1),%eax
   17d39:	48 0f bf c0          	movswq %ax,%rax
   17d3d:	8b 55 fc             	mov    -0x4(%rbp),%edx
   17d40:	48 8d 35 5e 59 00 00 	lea    0x595e(%rip),%rsi        # 1d6a5 <g_1254+0x15e1>
   17d47:	48 89 c7             	mov    %rax,%rdi
   17d4a:	e8 a4 29 ff ff       	callq  a6f3 <transparent_crc>
   17d4f:	8b 45 f0             	mov    -0x10(%rbp),%eax
   17d52:	48 98                	cltq   
   17d54:	48 c1 e0 04          	shl    $0x4,%rax
   17d58:	48 89 c2             	mov    %rax,%rdx
   17d5b:	48 8d 05 3e ab 00 00 	lea    0xab3e(%rip),%rax        # 228a0 <g_708>
   17d62:	48 8b 44 02 08       	mov    0x8(%rdx,%rax,1),%rax
   17d67:	c1 e0 03             	shl    $0x3,%eax
   17d6a:	c1 f8 03             	sar    $0x3,%eax
   17d6d:	48 98                	cltq   
   17d6f:	8b 55 fc             	mov    -0x4(%rbp),%edx
   17d72:	48 8d 35 38 59 00 00 	lea    0x5938(%rip),%rsi        # 1d6b1 <g_1254+0x15ed>
   17d79:	48 89 c7             	mov    %rax,%rdi
   17d7c:	e8 72 29 ff ff       	callq  a6f3 <transparent_crc>
   17d81:	8b 45 f0             	mov    -0x10(%rbp),%eax
   17d84:	48 98                	cltq   
   17d86:	48 c1 e0 04          	shl    $0x4,%rax
   17d8a:	48 89 c2             	mov    %rax,%rdx
   17d8d:	48 8d 05 0c ab 00 00 	lea    0xab0c(%rip),%rax        # 228a0 <g_708>
   17d94:	48 8b 44 02 08       	mov    0x8(%rdx,%rax,1),%rax
   17d99:	48 c1 e0 0f          	shl    $0xf,%rax
   17d9d:	48 c1 f8 2f          	sar    $0x2f,%rax
   17da1:	48 98                	cltq   
   17da3:	8b 55 fc             	mov    -0x4(%rbp),%edx
   17da6:	48 8d 35 10 59 00 00 	lea    0x5910(%rip),%rsi        # 1d6bd <g_1254+0x15f9>
   17dad:	48 89 c7             	mov    %rax,%rdi
   17db0:	e8 3e 29 ff ff       	callq  a6f3 <transparent_crc>
   17db5:	8b 45 f0             	mov    -0x10(%rbp),%eax
   17db8:	48 98                	cltq   
   17dba:	48 c1 e0 04          	shl    $0x4,%rax
   17dbe:	48 89 c2             	mov    %rax,%rdx
   17dc1:	48 8d 05 d8 aa 00 00 	lea    0xaad8(%rip),%rax        # 228a0 <g_708>
   17dc8:	48 8b 44 02 08       	mov    0x8(%rdx,%rax,1),%rax
   17dcd:	48 c1 e0 04          	shl    $0x4,%rax
   17dd1:	48 c1 f8 35          	sar    $0x35,%rax
   17dd5:	48 0f bf c0          	movswq %ax,%rax
   17dd9:	8b 55 fc             	mov    -0x4(%rbp),%edx
   17ddc:	48 8d 35 e6 58 00 00 	lea    0x58e6(%rip),%rsi        # 1d6c9 <g_1254+0x1605>
   17de3:	48 89 c7             	mov    %rax,%rdi
   17de6:	e8 08 29 ff ff       	callq  a6f3 <transparent_crc>
   17deb:	8b 45 f0             	mov    -0x10(%rbp),%eax
   17dee:	48 98                	cltq   
   17df0:	48 c1 e0 04          	shl    $0x4,%rax
   17df4:	48 89 c2             	mov    %rax,%rdx
   17df7:	48 8d 05 a2 aa 00 00 	lea    0xaaa2(%rip),%rax        # 228a0 <g_708>
   17dfe:	48 8b 44 02 08       	mov    0x8(%rdx,%rax,1),%rax
   17e03:	48 c1 e0 03          	shl    $0x3,%rax
   17e07:	48 c1 f8 3f          	sar    $0x3f,%rax
   17e0b:	48 0f be c0          	movsbq %al,%rax
   17e0f:	8b 55 fc             	mov    -0x4(%rbp),%edx
   17e12:	48 8d 35 bc 58 00 00 	lea    0x58bc(%rip),%rsi        # 1d6d5 <g_1254+0x1611>
   17e19:	48 89 c7             	mov    %rax,%rdi
   17e1c:	e8 d2 28 ff ff       	callq  a6f3 <transparent_crc>
   17e21:	83 7d fc 00          	cmpl   $0x0,-0x4(%rbp)
   17e25:	74 16                	je     17e3d <main+0x2029>
   17e27:	8b 45 f0             	mov    -0x10(%rbp),%eax
   17e2a:	89 c6                	mov    %eax,%esi
   17e2c:	48 8d 3d b2 51 00 00 	lea    0x51b2(%rip),%rdi        # 1cfe5 <g_1254+0xf21>
   17e33:	b8 00 00 00 00       	mov    $0x0,%eax
   17e38:	e8 43 12 ff ff       	callq  9080 <printf@plt>
   17e3d:	83 45 f0 01          	addl   $0x1,-0x10(%rbp)
   17e41:	83 7d f0 09          	cmpl   $0x9,-0x10(%rbp)
   17e45:	0f 8e a6 fe ff ff    	jle    17cf1 <main+0x1edd>
   17e4b:	8b 05 ef aa 00 00    	mov    0xaaef(%rip),%eax        # 22940 <g_742>
   17e51:	48 98                	cltq   
   17e53:	8b 55 fc             	mov    -0x4(%rbp),%edx
   17e56:	48 8d 35 84 58 00 00 	lea    0x5884(%rip),%rsi        # 1d6e1 <g_1254+0x161d>
   17e5d:	48 89 c7             	mov    %rax,%rdi
   17e60:	e8 8e 28 ff ff       	callq  a6f3 <transparent_crc>
   17e65:	b8 fa ff ff ff       	mov    $0xfffffffa,%eax
   17e6a:	0f b6 c0             	movzbl %al,%eax
   17e6d:	8b 55 fc             	mov    -0x4(%rbp),%edx
   17e70:	48 8d 35 70 58 00 00 	lea    0x5870(%rip),%rsi        # 1d6e7 <g_1254+0x1623>
   17e77:	48 89 c7             	mov    %rax,%rdi
   17e7a:	e8 74 28 ff ff       	callq  a6f3 <transparent_crc>
   17e7f:	b8 2a 00 00 00       	mov    $0x2a,%eax
   17e84:	0f b6 c0             	movzbl %al,%eax
   17e87:	8b 55 fc             	mov    -0x4(%rbp),%edx
   17e8a:	48 8d 35 5f 58 00 00 	lea    0x585f(%rip),%rsi        # 1d6f0 <g_1254+0x162c>
   17e91:	48 89 c7             	mov    %rax,%rdi
   17e94:	e8 5a 28 ff ff       	callq  a6f3 <transparent_crc>
   17e99:	b8 00 00 00 00       	mov    $0x0,%eax
   17e9e:	89 c1                	mov    %eax,%ecx
   17ea0:	8b 45 fc             	mov    -0x4(%rbp),%eax
   17ea3:	89 c2                	mov    %eax,%edx
   17ea5:	48 8d 35 4d 58 00 00 	lea    0x584d(%rip),%rsi        # 1d6f9 <g_1254+0x1635>
   17eac:	48 89 cf             	mov    %rcx,%rdi
   17eaf:	e8 3f 28 ff ff       	callq  a6f3 <transparent_crc>
   17eb4:	b8 ff ff ff ff       	mov    $0xffffffff,%eax
   17eb9:	0f b7 c0             	movzwl %ax,%eax
   17ebc:	8b 55 fc             	mov    -0x4(%rbp),%edx
   17ebf:	48 8d 35 3c 58 00 00 	lea    0x583c(%rip),%rsi        # 1d702 <g_1254+0x163e>
   17ec6:	48 89 c7             	mov    %rax,%rdi
   17ec9:	e8 25 28 ff ff       	callq  a6f3 <transparent_crc>
   17ece:	c7 45 f0 00 00 00 00 	movl   $0x0,-0x10(%rbp)
   17ed5:	e9 6d 01 00 00       	jmpq   18047 <main+0x2233>
   17eda:	8b 45 f0             	mov    -0x10(%rbp),%eax
   17edd:	48 63 d0             	movslq %eax,%rdx
   17ee0:	48 89 d0             	mov    %rdx,%rax
   17ee3:	48 c1 e0 02          	shl    $0x2,%rax
   17ee7:	48 01 d0             	add    %rdx,%rax
   17eea:	48 c1 e0 03          	shl    $0x3,%rax
   17eee:	48 89 c2             	mov    %rax,%rdx
   17ef1:	48 8d 05 68 aa 00 00 	lea    0xaa68(%rip),%rax        # 22960 <g_790>
   17ef8:	8b 04 02             	mov    (%rdx,%rax,1),%eax
   17efb:	48 98                	cltq   
   17efd:	8b 55 fc             	mov    -0x4(%rbp),%edx
   17f00:	48 8d 35 04 58 00 00 	lea    0x5804(%rip),%rsi        # 1d70b <g_1254+0x1647>
   17f07:	48 89 c7             	mov    %rax,%rdi
   17f0a:	e8 e4 27 ff ff       	callq  a6f3 <transparent_crc>
   17f0f:	8b 45 f0             	mov    -0x10(%rbp),%eax
   17f12:	48 63 d0             	movslq %eax,%rdx
   17f15:	48 89 d0             	mov    %rdx,%rax
   17f18:	48 c1 e0 02          	shl    $0x2,%rax
   17f1c:	48 01 d0             	add    %rdx,%rax
   17f1f:	48 c1 e0 03          	shl    $0x3,%rax
   17f23:	48 89 c2             	mov    %rax,%rdx
   17f26:	48 8d 05 3b aa 00 00 	lea    0xaa3b(%rip),%rax        # 22968 <g_790+0x8>
   17f2d:	48 8b 04 02          	mov    (%rdx,%rax,1),%rax
   17f31:	8b 55 fc             	mov    -0x4(%rbp),%edx
   17f34:	48 8d 35 dc 57 00 00 	lea    0x57dc(%rip),%rsi        # 1d717 <g_1254+0x1653>
   17f3b:	48 89 c7             	mov    %rax,%rdi
   17f3e:	e8 b0 27 ff ff       	callq  a6f3 <transparent_crc>
   17f43:	8b 45 f0             	mov    -0x10(%rbp),%eax
   17f46:	48 63 d0             	movslq %eax,%rdx
   17f49:	48 89 d0             	mov    %rdx,%rax
   17f4c:	48 c1 e0 02          	shl    $0x2,%rax
   17f50:	48 01 d0             	add    %rdx,%rax
   17f53:	48 c1 e0 03          	shl    $0x3,%rax
   17f57:	48 89 c2             	mov    %rax,%rdx
   17f5a:	48 8d 05 0f aa 00 00 	lea    0xaa0f(%rip),%rax        # 22970 <g_790+0x10>
   17f61:	48 8b 04 02          	mov    (%rdx,%rax,1),%rax
   17f65:	c1 e0 0a             	shl    $0xa,%eax
   17f68:	c1 f8 0a             	sar    $0xa,%eax
   17f6b:	48 98                	cltq   
   17f6d:	8b 55 fc             	mov    -0x4(%rbp),%edx
   17f70:	48 8d 35 ac 57 00 00 	lea    0x57ac(%rip),%rsi        # 1d723 <g_1254+0x165f>
   17f77:	48 89 c7             	mov    %rax,%rdi
   17f7a:	e8 74 27 ff ff       	callq  a6f3 <transparent_crc>
   17f7f:	8b 45 f0             	mov    -0x10(%rbp),%eax
   17f82:	48 63 d0             	movslq %eax,%rdx
   17f85:	48 89 d0             	mov    %rdx,%rax
   17f88:	48 c1 e0 02          	shl    $0x2,%rax
   17f8c:	48 01 d0             	add    %rdx,%rax
   17f8f:	48 c1 e0 03          	shl    $0x3,%rax
   17f93:	48 89 c2             	mov    %rax,%rdx
   17f96:	48 8d 05 d7 a9 00 00 	lea    0xa9d7(%rip),%rax        # 22974 <g_790+0x14>
   17f9d:	8b 04 02             	mov    (%rdx,%rax,1),%eax
   17fa0:	89 c1                	mov    %eax,%ecx
   17fa2:	8b 45 fc             	mov    -0x4(%rbp),%eax
   17fa5:	89 c2                	mov    %eax,%edx
   17fa7:	48 8d 35 81 57 00 00 	lea    0x5781(%rip),%rsi        # 1d72f <g_1254+0x166b>
   17fae:	48 89 cf             	mov    %rcx,%rdi
   17fb1:	e8 3d 27 ff ff       	callq  a6f3 <transparent_crc>
   17fb6:	8b 45 f0             	mov    -0x10(%rbp),%eax
   17fb9:	48 63 d0             	movslq %eax,%rdx
   17fbc:	48 89 d0             	mov    %rdx,%rax
   17fbf:	48 c1 e0 02          	shl    $0x2,%rax
   17fc3:	48 01 d0             	add    %rdx,%rax
   17fc6:	48 c1 e0 03          	shl    $0x3,%rax
   17fca:	48 89 c2             	mov    %rax,%rdx
   17fcd:	48 8d 05 a4 a9 00 00 	lea    0xa9a4(%rip),%rax        # 22978 <g_790+0x18>
   17fd4:	0f b6 04 02          	movzbl (%rdx,%rax,1),%eax
   17fd8:	48 0f be c0          	movsbq %al,%rax
   17fdc:	8b 55 fc             	mov    -0x4(%rbp),%edx
   17fdf:	48 8d 35 55 57 00 00 	lea    0x5755(%rip),%rsi        # 1d73b <g_1254+0x1677>
   17fe6:	48 89 c7             	mov    %rax,%rdi
   17fe9:	e8 05 27 ff ff       	callq  a6f3 <transparent_crc>
   17fee:	8b 45 f0             	mov    -0x10(%rbp),%eax
   17ff1:	48 63 d0             	movslq %eax,%rdx
   17ff4:	48 89 d0             	mov    %rdx,%rax
   17ff7:	48 c1 e0 02          	shl    $0x2,%rax
   17ffb:	48 01 d0             	add    %rdx,%rax
   17ffe:	48 c1 e0 03          	shl    $0x3,%rax
   18002:	48 89 c2             	mov    %rax,%rdx
   18005:	48 8d 05 74 a9 00 00 	lea    0xa974(%rip),%rax        # 22980 <g_790+0x20>
   1800c:	48 8b 04 02          	mov    (%rdx,%rax,1),%rax
   18010:	48 89 c1             	mov    %rax,%rcx
   18013:	8b 45 fc             	mov    -0x4(%rbp),%eax
   18016:	89 c2                	mov    %eax,%edx
   18018:	48 8d 35 28 57 00 00 	lea    0x5728(%rip),%rsi        # 1d747 <g_1254+0x1683>
   1801f:	48 89 cf             	mov    %rcx,%rdi
   18022:	e8 cc 26 ff ff       	callq  a6f3 <transparent_crc>
   18027:	83 7d fc 00          	cmpl   $0x0,-0x4(%rbp)
   1802b:	74 16                	je     18043 <main+0x222f>
   1802d:	8b 45 f0             	mov    -0x10(%rbp),%eax
   18030:	89 c6                	mov    %eax,%esi
   18032:	48 8d 3d ac 4f 00 00 	lea    0x4fac(%rip),%rdi        # 1cfe5 <g_1254+0xf21>
   18039:	b8 00 00 00 00       	mov    $0x0,%eax
   1803e:	e8 3d 10 ff ff       	callq  9080 <printf@plt>
   18043:	83 45 f0 01          	addl   $0x1,-0x10(%rbp)
   18047:	83 7d f0 08          	cmpl   $0x8,-0x10(%rbp)
   1804b:	0f 8e 89 fe ff ff    	jle    17eda <main+0x20c6>
   18051:	0f b6 05 70 aa 00 00 	movzbl 0xaa70(%rip),%eax        # 22ac8 <g_843>
   18058:	0f b6 c0             	movzbl %al,%eax
   1805b:	8b 55 fc             	mov    -0x4(%rbp),%edx
   1805e:	48 8d 35 ee 56 00 00 	lea    0x56ee(%rip),%rsi        # 1d753 <g_1254+0x168f>
   18065:	48 89 c7             	mov    %rax,%rdi
   18068:	e8 86 26 ff ff       	callq  a6f3 <transparent_crc>
   1806d:	0f b6 05 55 aa 00 00 	movzbl 0xaa55(%rip),%eax        # 22ac9 <g_843+0x1>
   18074:	0f b6 c0             	movzbl %al,%eax
   18077:	8b 55 fc             	mov    -0x4(%rbp),%edx
   1807a:	48 8d 35 db 56 00 00 	lea    0x56db(%rip),%rsi        # 1d75c <g_1254+0x1698>
   18081:	48 89 c7             	mov    %rax,%rdi
   18084:	e8 6a 26 ff ff       	callq  a6f3 <transparent_crc>
   18089:	8b 05 3d aa 00 00    	mov    0xaa3d(%rip),%eax        # 22acc <g_843+0x4>
   1808f:	89 c1                	mov    %eax,%ecx
   18091:	8b 45 fc             	mov    -0x4(%rbp),%eax
   18094:	89 c2                	mov    %eax,%edx
   18096:	48 8d 35 c8 56 00 00 	lea    0x56c8(%rip),%rsi        # 1d765 <g_1254+0x16a1>
   1809d:	48 89 cf             	mov    %rcx,%rdi
   180a0:	e8 4e 26 ff ff       	callq  a6f3 <transparent_crc>
   180a5:	0f b7 05 24 aa 00 00 	movzwl 0xaa24(%rip),%eax        # 22ad0 <g_843+0x8>
   180ac:	0f b7 c0             	movzwl %ax,%eax
   180af:	8b 55 fc             	mov    -0x4(%rbp),%edx
   180b2:	48 8d 35 b5 56 00 00 	lea    0x56b5(%rip),%rsi        # 1d76e <g_1254+0x16aa>
   180b9:	48 89 c7             	mov    %rax,%rdi
   180bc:	e8 32 26 ff ff       	callq  a6f3 <transparent_crc>
   180c1:	48 8b 05 18 aa 00 00 	mov    0xaa18(%rip),%rax        # 22ae0 <g_844>
   180c8:	c1 e0 04             	shl    $0x4,%eax
   180cb:	c1 f8 04             	sar    $0x4,%eax
   180ce:	48 98                	cltq   
   180d0:	8b 55 fc             	mov    -0x4(%rbp),%edx
   180d3:	48 8d 35 9d 56 00 00 	lea    0x569d(%rip),%rsi        # 1d777 <g_1254+0x16b3>
   180da:	48 89 c7             	mov    %rax,%rdi
   180dd:	e8 11 26 ff ff       	callq  a6f3 <transparent_crc>
   180e2:	0f b7 05 fb a9 00 00 	movzwl 0xa9fb(%rip),%eax        # 22ae4 <g_844+0x4>
   180e9:	48 0f bf c0          	movswq %ax,%rax
   180ed:	8b 55 fc             	mov    -0x4(%rbp),%edx
   180f0:	48 8d 35 89 56 00 00 	lea    0x5689(%rip),%rsi        # 1d780 <g_1254+0x16bc>
   180f7:	48 89 c7             	mov    %rax,%rdi
   180fa:	e8 f4 25 ff ff       	callq  a6f3 <transparent_crc>
   180ff:	48 8b 05 e2 a9 00 00 	mov    0xa9e2(%rip),%rax        # 22ae8 <g_844+0x8>
   18106:	c1 e0 03             	shl    $0x3,%eax
   18109:	c1 f8 03             	sar    $0x3,%eax
   1810c:	48 98                	cltq   
   1810e:	8b 55 fc             	mov    -0x4(%rbp),%edx
   18111:	48 8d 35 71 56 00 00 	lea    0x5671(%rip),%rsi        # 1d789 <g_1254+0x16c5>
   18118:	48 89 c7             	mov    %rax,%rdi
   1811b:	e8 d3 25 ff ff       	callq  a6f3 <transparent_crc>
   18120:	48 8b 05 c1 a9 00 00 	mov    0xa9c1(%rip),%rax        # 22ae8 <g_844+0x8>
   18127:	48 c1 e0 0f          	shl    $0xf,%rax
   1812b:	48 c1 f8 2f          	sar    $0x2f,%rax
   1812f:	48 98                	cltq   
   18131:	8b 55 fc             	mov    -0x4(%rbp),%edx
   18134:	48 8d 35 57 56 00 00 	lea    0x5657(%rip),%rsi        # 1d792 <g_1254+0x16ce>
   1813b:	48 89 c7             	mov    %rax,%rdi
   1813e:	e8 b0 25 ff ff       	callq  a6f3 <transparent_crc>
   18143:	48 8b 05 9e a9 00 00 	mov    0xa99e(%rip),%rax        # 22ae8 <g_844+0x8>
   1814a:	48 c1 e0 04          	shl    $0x4,%rax
   1814e:	48 c1 f8 35          	sar    $0x35,%rax
   18152:	48 0f bf c0          	movswq %ax,%rax
   18156:	8b 55 fc             	mov    -0x4(%rbp),%edx
   18159:	48 8d 35 3b 56 00 00 	lea    0x563b(%rip),%rsi        # 1d79b <g_1254+0x16d7>
   18160:	48 89 c7             	mov    %rax,%rdi
   18163:	e8 8b 25 ff ff       	callq  a6f3 <transparent_crc>
   18168:	48 8b 05 79 a9 00 00 	mov    0xa979(%rip),%rax        # 22ae8 <g_844+0x8>
   1816f:	48 c1 e0 03          	shl    $0x3,%rax
   18173:	48 c1 f8 3f          	sar    $0x3f,%rax
   18177:	48 0f be c0          	movsbq %al,%rax
   1817b:	8b 55 fc             	mov    -0x4(%rbp),%edx
   1817e:	48 8d 35 1f 56 00 00 	lea    0x561f(%rip),%rsi        # 1d7a4 <g_1254+0x16e0>
   18185:	48 89 c7             	mov    %rax,%rdi
   18188:	e8 66 25 ff ff       	callq  a6f3 <transparent_crc>
   1818d:	8b 05 5d a9 00 00    	mov    0xa95d(%rip),%eax        # 22af0 <g_876>
   18193:	c1 e0 04             	shl    $0x4,%eax
   18196:	c1 f8 04             	sar    $0x4,%eax
   18199:	48 98                	cltq   
   1819b:	8b 55 fc             	mov    -0x4(%rbp),%edx
   1819e:	48 8d 35 08 56 00 00 	lea    0x5608(%rip),%rsi        # 1d7ad <g_1254+0x16e9>
   181a5:	48 89 c7             	mov    %rax,%rdi
   181a8:	e8 46 25 ff ff       	callq  a6f3 <transparent_crc>
   181ad:	0f b7 05 40 a9 00 00 	movzwl 0xa940(%rip),%eax        # 22af4 <g_876+0x4>
   181b4:	48 0f bf c0          	movswq %ax,%rax
   181b8:	8b 55 fc             	mov    -0x4(%rbp),%edx
   181bb:	48 8d 35 f4 55 00 00 	lea    0x55f4(%rip),%rsi        # 1d7b6 <g_1254+0x16f2>
   181c2:	48 89 c7             	mov    %rax,%rdi
   181c5:	e8 29 25 ff ff       	callq  a6f3 <transparent_crc>
   181ca:	8b 05 28 a9 00 00    	mov    0xa928(%rip),%eax        # 22af8 <g_876+0x8>
   181d0:	c1 e0 03             	shl    $0x3,%eax
   181d3:	c1 f8 03             	sar    $0x3,%eax
   181d6:	48 98                	cltq   
   181d8:	8b 55 fc             	mov    -0x4(%rbp),%edx
   181db:	48 8d 35 dd 55 00 00 	lea    0x55dd(%rip),%rsi        # 1d7bf <g_1254+0x16fb>
   181e2:	48 89 c7             	mov    %rax,%rdi
   181e5:	e8 09 25 ff ff       	callq  a6f3 <transparent_crc>
   181ea:	48 8b 05 07 a9 00 00 	mov    0xa907(%rip),%rax        # 22af8 <g_876+0x8>
   181f1:	48 c1 e0 0f          	shl    $0xf,%rax
   181f5:	48 c1 f8 2f          	sar    $0x2f,%rax
   181f9:	48 98                	cltq   
   181fb:	8b 55 fc             	mov    -0x4(%rbp),%edx
   181fe:	48 8d 35 c3 55 00 00 	lea    0x55c3(%rip),%rsi        # 1d7c8 <g_1254+0x1704>
   18205:	48 89 c7             	mov    %rax,%rdi
   18208:	e8 e6 24 ff ff       	callq  a6f3 <transparent_crc>
   1820d:	48 8b 05 e4 a8 00 00 	mov    0xa8e4(%rip),%rax        # 22af8 <g_876+0x8>
   18214:	48 c1 e0 04          	shl    $0x4,%rax
   18218:	48 c1 f8 35          	sar    $0x35,%rax
   1821c:	48 0f bf c0          	movswq %ax,%rax
   18220:	8b 55 fc             	mov    -0x4(%rbp),%edx
   18223:	48 8d 35 a7 55 00 00 	lea    0x55a7(%rip),%rsi        # 1d7d1 <g_1254+0x170d>
   1822a:	48 89 c7             	mov    %rax,%rdi
   1822d:	e8 c1 24 ff ff       	callq  a6f3 <transparent_crc>
   18232:	0f b6 05 c6 a8 00 00 	movzbl 0xa8c6(%rip),%eax        # 22aff <g_876+0xf>
   18239:	c1 e0 03             	shl    $0x3,%eax
   1823c:	c0 f8 07             	sar    $0x7,%al
   1823f:	48 0f be c0          	movsbq %al,%rax
   18243:	8b 55 fc             	mov    -0x4(%rbp),%edx
   18246:	48 8d 35 8d 55 00 00 	lea    0x558d(%rip),%rsi        # 1d7da <g_1254+0x1716>
   1824d:	48 89 c7             	mov    %rax,%rdi
   18250:	e8 9e 24 ff ff       	callq  a6f3 <transparent_crc>
   18255:	c7 45 f0 00 00 00 00 	movl   $0x0,-0x10(%rbp)
   1825c:	e9 4c 02 00 00       	jmpq   184ad <main+0x2699>
   18261:	c7 45 f4 00 00 00 00 	movl   $0x0,-0xc(%rbp)
   18268:	e9 32 02 00 00       	jmpq   1849f <main+0x268b>
   1826d:	c7 45 f8 00 00 00 00 	movl   $0x0,-0x8(%rbp)
   18274:	e9 18 02 00 00       	jmpq   18491 <main+0x267d>
   18279:	8b 45 f8             	mov    -0x8(%rbp),%eax
   1827c:	48 63 c8             	movslq %eax,%rcx
   1827f:	8b 45 f0             	mov    -0x10(%rbp),%eax
   18282:	48 63 d0             	movslq %eax,%rdx
   18285:	8b 45 f4             	mov    -0xc(%rbp),%eax
   18288:	48 63 f0             	movslq %eax,%rsi
   1828b:	48 89 d0             	mov    %rdx,%rax
   1828e:	48 c1 e0 02          	shl    $0x2,%rax
   18292:	48 01 d0             	add    %rdx,%rax
   18295:	48 01 f0             	add    %rsi,%rax
   18298:	48 c1 e0 03          	shl    $0x3,%rax
   1829c:	48 01 c8             	add    %rcx,%rax
   1829f:	48 c1 e0 04          	shl    $0x4,%rax
   182a3:	48 89 c2             	mov    %rax,%rdx
   182a6:	48 8d 05 53 a8 00 00 	lea    0xa853(%rip),%rax        # 22b00 <g_889>
   182ad:	8b 04 02             	mov    (%rdx,%rax,1),%eax
   182b0:	c1 e0 04             	shl    $0x4,%eax
   182b3:	c1 f8 04             	sar    $0x4,%eax
   182b6:	48 98                	cltq   
   182b8:	8b 55 fc             	mov    -0x4(%rbp),%edx
   182bb:	48 8d 35 21 55 00 00 	lea    0x5521(%rip),%rsi        # 1d7e3 <g_1254+0x171f>
   182c2:	48 89 c7             	mov    %rax,%rdi
   182c5:	e8 29 24 ff ff       	callq  a6f3 <transparent_crc>
   182ca:	8b 45 f8             	mov    -0x8(%rbp),%eax
   182cd:	48 63 c8             	movslq %eax,%rcx
   182d0:	8b 45 f0             	mov    -0x10(%rbp),%eax
   182d3:	48 63 d0             	movslq %eax,%rdx
   182d6:	8b 45 f4             	mov    -0xc(%rbp),%eax
   182d9:	48 63 f0             	movslq %eax,%rsi
   182dc:	48 89 d0             	mov    %rdx,%rax
   182df:	48 c1 e0 02          	shl    $0x2,%rax
   182e3:	48 01 d0             	add    %rdx,%rax
   182e6:	48 01 f0             	add    %rsi,%rax
   182e9:	48 c1 e0 03          	shl    $0x3,%rax
   182ed:	48 01 c8             	add    %rcx,%rax
   182f0:	48 c1 e0 04          	shl    $0x4,%rax
   182f4:	48 89 c2             	mov    %rax,%rdx
   182f7:	48 8d 05 06 a8 00 00 	lea    0xa806(%rip),%rax        # 22b04 <g_889+0x4>
   182fe:	0f b7 04 02          	movzwl (%rdx,%rax,1),%eax
   18302:	48 0f bf c0          	movswq %ax,%rax
   18306:	8b 55 fc             	mov    -0x4(%rbp),%edx
   18309:	48 8d 35 e5 54 00 00 	lea    0x54e5(%rip),%rsi        # 1d7f5 <g_1254+0x1731>
   18310:	48 89 c7             	mov    %rax,%rdi
   18313:	e8 db 23 ff ff       	callq  a6f3 <transparent_crc>
   18318:	8b 45 f8             	mov    -0x8(%rbp),%eax
   1831b:	48 63 c8             	movslq %eax,%rcx
   1831e:	8b 45 f0             	mov    -0x10(%rbp),%eax
   18321:	48 63 d0             	movslq %eax,%rdx
   18324:	8b 45 f4             	mov    -0xc(%rbp),%eax
   18327:	48 63 f0             	movslq %eax,%rsi
   1832a:	48 89 d0             	mov    %rdx,%rax
   1832d:	48 c1 e0 02          	shl    $0x2,%rax
   18331:	48 01 d0             	add    %rdx,%rax
   18334:	48 01 f0             	add    %rsi,%rax
   18337:	48 c1 e0 03          	shl    $0x3,%rax
   1833b:	48 01 c8             	add    %rcx,%rax
   1833e:	48 c1 e0 04          	shl    $0x4,%rax
   18342:	48 89 c2             	mov    %rax,%rdx
   18345:	48 8d 05 b4 a7 00 00 	lea    0xa7b4(%rip),%rax        # 22b00 <g_889>
   1834c:	8b 44 02 08          	mov    0x8(%rdx,%rax,1),%eax
   18350:	c1 e0 03             	shl    $0x3,%eax
   18353:	c1 f8 03             	sar    $0x3,%eax
   18356:	48 98                	cltq   
   18358:	8b 55 fc             	mov    -0x4(%rbp),%edx
   1835b:	48 8d 35 a5 54 00 00 	lea    0x54a5(%rip),%rsi        # 1d807 <g_1254+0x1743>
   18362:	48 89 c7             	mov    %rax,%rdi
   18365:	e8 89 23 ff ff       	callq  a6f3 <transparent_crc>
   1836a:	8b 45 f8             	mov    -0x8(%rbp),%eax
   1836d:	48 63 c8             	movslq %eax,%rcx
   18370:	8b 45 f0             	mov    -0x10(%rbp),%eax
   18373:	48 63 d0             	movslq %eax,%rdx
   18376:	8b 45 f4             	mov    -0xc(%rbp),%eax
   18379:	48 63 f0             	movslq %eax,%rsi
   1837c:	48 89 d0             	mov    %rdx,%rax
   1837f:	48 c1 e0 02          	shl    $0x2,%rax
   18383:	48 01 d0             	add    %rdx,%rax
   18386:	48 01 f0             	add    %rsi,%rax
   18389:	48 c1 e0 03          	shl    $0x3,%rax
   1838d:	48 01 c8             	add    %rcx,%rax
   18390:	48 c1 e0 04          	shl    $0x4,%rax
   18394:	48 89 c2             	mov    %rax,%rdx
   18397:	48 8d 05 62 a7 00 00 	lea    0xa762(%rip),%rax        # 22b00 <g_889>
   1839e:	48 8b 44 02 08       	mov    0x8(%rdx,%rax,1),%rax
   183a3:	48 c1 e0 0f          	shl    $0xf,%rax
   183a7:	48 c1 f8 2f          	sar    $0x2f,%rax
   183ab:	48 98                	cltq   
   183ad:	8b 55 fc             	mov    -0x4(%rbp),%edx
   183b0:	48 8d 35 62 54 00 00 	lea    0x5462(%rip),%rsi        # 1d819 <g_1254+0x1755>
   183b7:	48 89 c7             	mov    %rax,%rdi
   183ba:	e8 34 23 ff ff       	callq  a6f3 <transparent_crc>
   183bf:	8b 45 f8             	mov    -0x8(%rbp),%eax
   183c2:	48 63 c8             	movslq %eax,%rcx
   183c5:	8b 45 f0             	mov    -0x10(%rbp),%eax
   183c8:	48 63 d0             	movslq %eax,%rdx
   183cb:	8b 45 f4             	mov    -0xc(%rbp),%eax
   183ce:	48 63 f0             	movslq %eax,%rsi
   183d1:	48 89 d0             	mov    %rdx,%rax
   183d4:	48 c1 e0 02          	shl    $0x2,%rax
   183d8:	48 01 d0             	add    %rdx,%rax
   183db:	48 01 f0             	add    %rsi,%rax
   183de:	48 c1 e0 03          	shl    $0x3,%rax
   183e2:	48 01 c8             	add    %rcx,%rax
   183e5:	48 c1 e0 04          	shl    $0x4,%rax
   183e9:	48 89 c2             	mov    %rax,%rdx
   183ec:	48 8d 05 0d a7 00 00 	lea    0xa70d(%rip),%rax        # 22b00 <g_889>
   183f3:	48 8b 44 02 08       	mov    0x8(%rdx,%rax,1),%rax
   183f8:	48 c1 e0 04          	shl    $0x4,%rax
   183fc:	48 c1 f8 35          	sar    $0x35,%rax
   18400:	48 0f bf c0          	movswq %ax,%rax
   18404:	8b 55 fc             	mov    -0x4(%rbp),%edx
   18407:	48 8d 35 1d 54 00 00 	lea    0x541d(%rip),%rsi        # 1d82b <g_1254+0x1767>
   1840e:	48 89 c7             	mov    %rax,%rdi
   18411:	e8 dd 22 ff ff       	callq  a6f3 <transparent_crc>
   18416:	8b 45 f8             	mov    -0x8(%rbp),%eax
   18419:	48 63 c8             	movslq %eax,%rcx
   1841c:	8b 45 f0             	mov    -0x10(%rbp),%eax
   1841f:	48 63 d0             	movslq %eax,%rdx
   18422:	8b 45 f4             	mov    -0xc(%rbp),%eax
   18425:	48 63 f0             	movslq %eax,%rsi
   18428:	48 89 d0             	mov    %rdx,%rax
   1842b:	48 c1 e0 02          	shl    $0x2,%rax
   1842f:	48 01 d0             	add    %rdx,%rax
   18432:	48 01 f0             	add    %rsi,%rax
   18435:	48 c1 e0 03          	shl    $0x3,%rax
   18439:	48 01 c8             	add    %rcx,%rax
   1843c:	48 c1 e0 04          	shl    $0x4,%rax
   18440:	48 89 c2             	mov    %rax,%rdx
   18443:	48 8d 05 b6 a6 00 00 	lea    0xa6b6(%rip),%rax        # 22b00 <g_889>
   1844a:	0f b6 44 02 0f       	movzbl 0xf(%rdx,%rax,1),%eax
   1844f:	c1 e0 03             	shl    $0x3,%eax
   18452:	c0 f8 07             	sar    $0x7,%al
   18455:	48 0f be c0          	movsbq %al,%rax
   18459:	8b 55 fc             	mov    -0x4(%rbp),%edx
   1845c:	48 8d 35 da 53 00 00 	lea    0x53da(%rip),%rsi        # 1d83d <g_1254+0x1779>
   18463:	48 89 c7             	mov    %rax,%rdi
   18466:	e8 88 22 ff ff       	callq  a6f3 <transparent_crc>
   1846b:	83 7d fc 00          	cmpl   $0x0,-0x4(%rbp)
   1846f:	74 1c                	je     1848d <main+0x2679>
   18471:	8b 4d f8             	mov    -0x8(%rbp),%ecx
   18474:	8b 55 f4             	mov    -0xc(%rbp),%edx
   18477:	8b 45 f0             	mov    -0x10(%rbp),%eax
   1847a:	89 c6                	mov    %eax,%esi
   1847c:	48 8d 3d 78 4c 00 00 	lea    0x4c78(%rip),%rdi        # 1d0fb <g_1254+0x1037>
   18483:	b8 00 00 00 00       	mov    $0x0,%eax
   18488:	e8 f3 0b ff ff       	callq  9080 <printf@plt>
   1848d:	83 45 f8 01          	addl   $0x1,-0x8(%rbp)
   18491:	83 7d f8 07          	cmpl   $0x7,-0x8(%rbp)
   18495:	0f 8e de fd ff ff    	jle    18279 <main+0x2465>
   1849b:	83 45 f4 01          	addl   $0x1,-0xc(%rbp)
   1849f:	83 7d f4 04          	cmpl   $0x4,-0xc(%rbp)
   184a3:	0f 8e c4 fd ff ff    	jle    1826d <main+0x2459>
   184a9:	83 45 f0 01          	addl   $0x1,-0x10(%rbp)
   184ad:	83 7d f0 04          	cmpl   $0x4,-0x10(%rbp)
   184b1:	0f 8e aa fd ff ff    	jle    18261 <main+0x244d>
   184b7:	8b 05 c3 b2 00 00    	mov    0xb2c3(%rip),%eax        # 23780 <g_890>
   184bd:	c1 e0 04             	shl    $0x4,%eax
   184c0:	c1 f8 04             	sar    $0x4,%eax
   184c3:	48 98                	cltq   
   184c5:	8b 55 fc             	mov    -0x4(%rbp),%edx
   184c8:	48 8d 35 80 53 00 00 	lea    0x5380(%rip),%rsi        # 1d84f <g_1254+0x178b>
   184cf:	48 89 c7             	mov    %rax,%rdi
   184d2:	e8 1c 22 ff ff       	callq  a6f3 <transparent_crc>
   184d7:	0f b7 05 a6 b2 00 00 	movzwl 0xb2a6(%rip),%eax        # 23784 <g_890+0x4>
   184de:	48 0f bf c0          	movswq %ax,%rax
   184e2:	8b 55 fc             	mov    -0x4(%rbp),%edx
   184e5:	48 8d 35 6c 53 00 00 	lea    0x536c(%rip),%rsi        # 1d858 <g_1254+0x1794>
   184ec:	48 89 c7             	mov    %rax,%rdi
   184ef:	e8 ff 21 ff ff       	callq  a6f3 <transparent_crc>
   184f4:	8b 05 8e b2 00 00    	mov    0xb28e(%rip),%eax        # 23788 <g_890+0x8>
   184fa:	c1 e0 03             	shl    $0x3,%eax
   184fd:	c1 f8 03             	sar    $0x3,%eax
   18500:	48 98                	cltq   
   18502:	8b 55 fc             	mov    -0x4(%rbp),%edx
   18505:	48 8d 35 55 53 00 00 	lea    0x5355(%rip),%rsi        # 1d861 <g_1254+0x179d>
   1850c:	48 89 c7             	mov    %rax,%rdi
   1850f:	e8 df 21 ff ff       	callq  a6f3 <transparent_crc>
   18514:	48 8b 05 6d b2 00 00 	mov    0xb26d(%rip),%rax        # 23788 <g_890+0x8>
   1851b:	48 c1 e0 0f          	shl    $0xf,%rax
   1851f:	48 c1 f8 2f          	sar    $0x2f,%rax
   18523:	48 98                	cltq   
   18525:	8b 55 fc             	mov    -0x4(%rbp),%edx
   18528:	48 8d 35 3b 53 00 00 	lea    0x533b(%rip),%rsi        # 1d86a <g_1254+0x17a6>
   1852f:	48 89 c7             	mov    %rax,%rdi
   18532:	e8 bc 21 ff ff       	callq  a6f3 <transparent_crc>
   18537:	48 8b 05 4a b2 00 00 	mov    0xb24a(%rip),%rax        # 23788 <g_890+0x8>
   1853e:	48 c1 e0 04          	shl    $0x4,%rax
   18542:	48 c1 f8 35          	sar    $0x35,%rax
   18546:	48 0f bf c0          	movswq %ax,%rax
   1854a:	8b 55 fc             	mov    -0x4(%rbp),%edx
   1854d:	48 8d 35 1f 53 00 00 	lea    0x531f(%rip),%rsi        # 1d873 <g_1254+0x17af>
   18554:	48 89 c7             	mov    %rax,%rdi
   18557:	e8 97 21 ff ff       	callq  a6f3 <transparent_crc>
   1855c:	0f b6 05 2c b2 00 00 	movzbl 0xb22c(%rip),%eax        # 2378f <g_890+0xf>
   18563:	c1 e0 03             	shl    $0x3,%eax
   18566:	c0 f8 07             	sar    $0x7,%al
   18569:	48 0f be c0          	movsbq %al,%rax
   1856d:	8b 55 fc             	mov    -0x4(%rbp),%edx
   18570:	48 8d 35 05 53 00 00 	lea    0x5305(%rip),%rsi        # 1d87c <g_1254+0x17b8>
   18577:	48 89 c7             	mov    %rax,%rdi
   1857a:	e8 74 21 ff ff       	callq  a6f3 <transparent_crc>
   1857f:	8b 05 0b b2 00 00    	mov    0xb20b(%rip),%eax        # 23790 <g_891>
   18585:	c1 e0 04             	shl    $0x4,%eax
   18588:	c1 f8 04             	sar    $0x4,%eax
   1858b:	48 98                	cltq   
   1858d:	8b 55 fc             	mov    -0x4(%rbp),%edx
   18590:	48 8d 35 ee 52 00 00 	lea    0x52ee(%rip),%rsi        # 1d885 <g_1254+0x17c1>
   18597:	48 89 c7             	mov    %rax,%rdi
   1859a:	e8 54 21 ff ff       	callq  a6f3 <transparent_crc>
   1859f:	0f b7 05 ee b1 00 00 	movzwl 0xb1ee(%rip),%eax        # 23794 <g_891+0x4>
   185a6:	48 0f bf c0          	movswq %ax,%rax
   185aa:	8b 55 fc             	mov    -0x4(%rbp),%edx
   185ad:	48 8d 35 da 52 00 00 	lea    0x52da(%rip),%rsi        # 1d88e <g_1254+0x17ca>
   185b4:	48 89 c7             	mov    %rax,%rdi
   185b7:	e8 37 21 ff ff       	callq  a6f3 <transparent_crc>
   185bc:	8b 05 d6 b1 00 00    	mov    0xb1d6(%rip),%eax        # 23798 <g_891+0x8>
   185c2:	c1 e0 03             	shl    $0x3,%eax
   185c5:	c1 f8 03             	sar    $0x3,%eax
   185c8:	48 98                	cltq   
   185ca:	8b 55 fc             	mov    -0x4(%rbp),%edx
   185cd:	48 8d 35 c3 52 00 00 	lea    0x52c3(%rip),%rsi        # 1d897 <g_1254+0x17d3>
   185d4:	48 89 c7             	mov    %rax,%rdi
   185d7:	e8 17 21 ff ff       	callq  a6f3 <transparent_crc>
   185dc:	48 8b 05 b5 b1 00 00 	mov    0xb1b5(%rip),%rax        # 23798 <g_891+0x8>
   185e3:	48 c1 e0 0f          	shl    $0xf,%rax
   185e7:	48 c1 f8 2f          	sar    $0x2f,%rax
   185eb:	48 98                	cltq   
   185ed:	8b 55 fc             	mov    -0x4(%rbp),%edx
   185f0:	48 8d 35 a9 52 00 00 	lea    0x52a9(%rip),%rsi        # 1d8a0 <g_1254+0x17dc>
   185f7:	48 89 c7             	mov    %rax,%rdi
   185fa:	e8 f4 20 ff ff       	callq  a6f3 <transparent_crc>
   185ff:	48 8b 05 92 b1 00 00 	mov    0xb192(%rip),%rax        # 23798 <g_891+0x8>
   18606:	48 c1 e0 04          	shl    $0x4,%rax
   1860a:	48 c1 f8 35          	sar    $0x35,%rax
   1860e:	48 0f bf c0          	movswq %ax,%rax
   18612:	8b 55 fc             	mov    -0x4(%rbp),%edx
   18615:	48 8d 35 8d 52 00 00 	lea    0x528d(%rip),%rsi        # 1d8a9 <g_1254+0x17e5>
   1861c:	48 89 c7             	mov    %rax,%rdi
   1861f:	e8 cf 20 ff ff       	callq  a6f3 <transparent_crc>
   18624:	0f b6 05 74 b1 00 00 	movzbl 0xb174(%rip),%eax        # 2379f <g_891+0xf>
   1862b:	c1 e0 03             	shl    $0x3,%eax
   1862e:	c0 f8 07             	sar    $0x7,%al
   18631:	48 0f be c0          	movsbq %al,%rax
   18635:	8b 55 fc             	mov    -0x4(%rbp),%edx
   18638:	48 8d 35 73 52 00 00 	lea    0x5273(%rip),%rsi        # 1d8b2 <g_1254+0x17ee>
   1863f:	48 89 c7             	mov    %rax,%rdi
   18642:	e8 ac 20 ff ff       	callq  a6f3 <transparent_crc>
   18647:	8b 05 53 b1 00 00    	mov    0xb153(%rip),%eax        # 237a0 <g_892>
   1864d:	c1 e0 04             	shl    $0x4,%eax
   18650:	c1 f8 04             	sar    $0x4,%eax
   18653:	48 98                	cltq   
   18655:	8b 55 fc             	mov    -0x4(%rbp),%edx
   18658:	48 8d 35 5c 52 00 00 	lea    0x525c(%rip),%rsi        # 1d8bb <g_1254+0x17f7>
   1865f:	48 89 c7             	mov    %rax,%rdi
   18662:	e8 8c 20 ff ff       	callq  a6f3 <transparent_crc>
   18667:	0f b7 05 36 b1 00 00 	movzwl 0xb136(%rip),%eax        # 237a4 <g_892+0x4>
   1866e:	48 0f bf c0          	movswq %ax,%rax
   18672:	8b 55 fc             	mov    -0x4(%rbp),%edx
   18675:	48 8d 35 48 52 00 00 	lea    0x5248(%rip),%rsi        # 1d8c4 <g_1254+0x1800>
   1867c:	48 89 c7             	mov    %rax,%rdi
   1867f:	e8 6f 20 ff ff       	callq  a6f3 <transparent_crc>
   18684:	8b 05 1e b1 00 00    	mov    0xb11e(%rip),%eax        # 237a8 <g_892+0x8>
   1868a:	c1 e0 03             	shl    $0x3,%eax
   1868d:	c1 f8 03             	sar    $0x3,%eax
   18690:	48 98                	cltq   
   18692:	8b 55 fc             	mov    -0x4(%rbp),%edx
   18695:	48 8d 35 31 52 00 00 	lea    0x5231(%rip),%rsi        # 1d8cd <g_1254+0x1809>
   1869c:	48 89 c7             	mov    %rax,%rdi
   1869f:	e8 4f 20 ff ff       	callq  a6f3 <transparent_crc>
   186a4:	48 8b 05 fd b0 00 00 	mov    0xb0fd(%rip),%rax        # 237a8 <g_892+0x8>
   186ab:	48 c1 e0 0f          	shl    $0xf,%rax
   186af:	48 c1 f8 2f          	sar    $0x2f,%rax
   186b3:	48 98                	cltq   
   186b5:	8b 55 fc             	mov    -0x4(%rbp),%edx
   186b8:	48 8d 35 17 52 00 00 	lea    0x5217(%rip),%rsi        # 1d8d6 <g_1254+0x1812>
   186bf:	48 89 c7             	mov    %rax,%rdi
   186c2:	e8 2c 20 ff ff       	callq  a6f3 <transparent_crc>
   186c7:	48 8b 05 da b0 00 00 	mov    0xb0da(%rip),%rax        # 237a8 <g_892+0x8>
   186ce:	48 c1 e0 04          	shl    $0x4,%rax
   186d2:	48 c1 f8 35          	sar    $0x35,%rax
   186d6:	48 0f bf c0          	movswq %ax,%rax
   186da:	8b 55 fc             	mov    -0x4(%rbp),%edx
   186dd:	48 8d 35 fb 51 00 00 	lea    0x51fb(%rip),%rsi        # 1d8df <g_1254+0x181b>
   186e4:	48 89 c7             	mov    %rax,%rdi
   186e7:	e8 07 20 ff ff       	callq  a6f3 <transparent_crc>
   186ec:	0f b6 05 bc b0 00 00 	movzbl 0xb0bc(%rip),%eax        # 237af <g_892+0xf>
   186f3:	c1 e0 03             	shl    $0x3,%eax
   186f6:	c0 f8 07             	sar    $0x7,%al
   186f9:	48 0f be c0          	movsbq %al,%rax
   186fd:	8b 55 fc             	mov    -0x4(%rbp),%edx
   18700:	48 8d 35 e1 51 00 00 	lea    0x51e1(%rip),%rsi        # 1d8e8 <g_1254+0x1824>
   18707:	48 89 c7             	mov    %rax,%rdi
   1870a:	e8 e4 1f ff ff       	callq  a6f3 <transparent_crc>
   1870f:	c7 45 f0 00 00 00 00 	movl   $0x0,-0x10(%rbp)
   18716:	e9 16 02 00 00       	jmpq   18931 <main+0x2b1d>
   1871b:	c7 45 f4 00 00 00 00 	movl   $0x0,-0xc(%rbp)
   18722:	e9 fc 01 00 00       	jmpq   18923 <main+0x2b0f>
   18727:	c7 45 f8 00 00 00 00 	movl   $0x0,-0x8(%rbp)
   1872e:	e9 e2 01 00 00       	jmpq   18915 <main+0x2b01>
   18733:	8b 45 f8             	mov    -0x8(%rbp),%eax
   18736:	48 98                	cltq   
   18738:	8b 55 f0             	mov    -0x10(%rbp),%edx
   1873b:	48 63 ca             	movslq %edx,%rcx
   1873e:	8b 55 f4             	mov    -0xc(%rbp),%edx
   18741:	48 63 d2             	movslq %edx,%rdx
   18744:	48 01 c9             	add    %rcx,%rcx
   18747:	48 01 ca             	add    %rcx,%rdx
   1874a:	48 01 d2             	add    %rdx,%rdx
   1874d:	48 01 d0             	add    %rdx,%rax
   18750:	48 c1 e0 04          	shl    $0x4,%rax
   18754:	48 89 c2             	mov    %rax,%rdx
   18757:	48 8d 05 62 b0 00 00 	lea    0xb062(%rip),%rax        # 237c0 <g_893>
   1875e:	8b 04 02             	mov    (%rdx,%rax,1),%eax
   18761:	c1 e0 04             	shl    $0x4,%eax
   18764:	c1 f8 04             	sar    $0x4,%eax
   18767:	48 98                	cltq   
   18769:	8b 55 fc             	mov    -0x4(%rbp),%edx
   1876c:	48 8d 35 7e 51 00 00 	lea    0x517e(%rip),%rsi        # 1d8f1 <g_1254+0x182d>
   18773:	48 89 c7             	mov    %rax,%rdi
   18776:	e8 78 1f ff ff       	callq  a6f3 <transparent_crc>
   1877b:	8b 45 f8             	mov    -0x8(%rbp),%eax
   1877e:	48 98                	cltq   
   18780:	8b 55 f0             	mov    -0x10(%rbp),%edx
   18783:	48 63 ca             	movslq %edx,%rcx
   18786:	8b 55 f4             	mov    -0xc(%rbp),%edx
   18789:	48 63 d2             	movslq %edx,%rdx
   1878c:	48 01 c9             	add    %rcx,%rcx
   1878f:	48 01 ca             	add    %rcx,%rdx
   18792:	48 01 d2             	add    %rdx,%rdx
   18795:	48 01 d0             	add    %rdx,%rax
   18798:	48 c1 e0 04          	shl    $0x4,%rax
   1879c:	48 89 c2             	mov    %rax,%rdx
   1879f:	48 8d 05 1e b0 00 00 	lea    0xb01e(%rip),%rax        # 237c4 <g_893+0x4>
   187a6:	0f b7 04 02          	movzwl (%rdx,%rax,1),%eax
   187aa:	48 0f bf c0          	movswq %ax,%rax
   187ae:	8b 55 fc             	mov    -0x4(%rbp),%edx
   187b1:	48 8d 35 4b 51 00 00 	lea    0x514b(%rip),%rsi        # 1d903 <g_1254+0x183f>
   187b8:	48 89 c7             	mov    %rax,%rdi
   187bb:	e8 33 1f ff ff       	callq  a6f3 <transparent_crc>
   187c0:	8b 45 f8             	mov    -0x8(%rbp),%eax
   187c3:	48 98                	cltq   
   187c5:	8b 55 f0             	mov    -0x10(%rbp),%edx
   187c8:	48 63 ca             	movslq %edx,%rcx
   187cb:	8b 55 f4             	mov    -0xc(%rbp),%edx
   187ce:	48 63 d2             	movslq %edx,%rdx
   187d1:	48 01 c9             	add    %rcx,%rcx
   187d4:	48 01 ca             	add    %rcx,%rdx
   187d7:	48 01 d2             	add    %rdx,%rdx
   187da:	48 01 d0             	add    %rdx,%rax
   187dd:	48 c1 e0 04          	shl    $0x4,%rax
   187e1:	48 89 c2             	mov    %rax,%rdx
   187e4:	48 8d 05 d5 af 00 00 	lea    0xafd5(%rip),%rax        # 237c0 <g_893>
   187eb:	8b 44 02 08          	mov    0x8(%rdx,%rax,1),%eax
   187ef:	c1 e0 03             	shl    $0x3,%eax
   187f2:	c1 f8 03             	sar    $0x3,%eax
   187f5:	48 98                	cltq   
   187f7:	8b 55 fc             	mov    -0x4(%rbp),%edx
   187fa:	48 8d 35 14 51 00 00 	lea    0x5114(%rip),%rsi        # 1d915 <g_1254+0x1851>
   18801:	48 89 c7             	mov    %rax,%rdi
   18804:	e8 ea 1e ff ff       	callq  a6f3 <transparent_crc>
   18809:	8b 45 f8             	mov    -0x8(%rbp),%eax
   1880c:	48 98                	cltq   
   1880e:	8b 55 f0             	mov    -0x10(%rbp),%edx
   18811:	48 63 ca             	movslq %edx,%rcx
   18814:	8b 55 f4             	mov    -0xc(%rbp),%edx
   18817:	48 63 d2             	movslq %edx,%rdx
   1881a:	48 01 c9             	add    %rcx,%rcx
   1881d:	48 01 ca             	add    %rcx,%rdx
   18820:	48 01 d2             	add    %rdx,%rdx
   18823:	48 01 d0             	add    %rdx,%rax
   18826:	48 c1 e0 04          	shl    $0x4,%rax
   1882a:	48 89 c2             	mov    %rax,%rdx
   1882d:	48 8d 05 8c af 00 00 	lea    0xaf8c(%rip),%rax        # 237c0 <g_893>
   18834:	48 8b 44 02 08       	mov    0x8(%rdx,%rax,1),%rax
   18839:	48 c1 e0 0f          	shl    $0xf,%rax
   1883d:	48 c1 f8 2f          	sar    $0x2f,%rax
   18841:	48 98                	cltq   
   18843:	8b 55 fc             	mov    -0x4(%rbp),%edx
   18846:	48 8d 35 da 50 00 00 	lea    0x50da(%rip),%rsi        # 1d927 <g_1254+0x1863>
   1884d:	48 89 c7             	mov    %rax,%rdi
   18850:	e8 9e 1e ff ff       	callq  a6f3 <transparent_crc>
   18855:	8b 45 f8             	mov    -0x8(%rbp),%eax
   18858:	48 98                	cltq   
   1885a:	8b 55 f0             	mov    -0x10(%rbp),%edx
   1885d:	48 63 ca             	movslq %edx,%rcx
   18860:	8b 55 f4             	mov    -0xc(%rbp),%edx
   18863:	48 63 d2             	movslq %edx,%rdx
   18866:	48 01 c9             	add    %rcx,%rcx
   18869:	48 01 ca             	add    %rcx,%rdx
   1886c:	48 01 d2             	add    %rdx,%rdx
   1886f:	48 01 d0             	add    %rdx,%rax
   18872:	48 c1 e0 04          	shl    $0x4,%rax
   18876:	48 89 c2             	mov    %rax,%rdx
   18879:	48 8d 05 40 af 00 00 	lea    0xaf40(%rip),%rax        # 237c0 <g_893>
   18880:	48 8b 44 02 08       	mov    0x8(%rdx,%rax,1),%rax
   18885:	48 c1 e0 04          	shl    $0x4,%rax
   18889:	48 c1 f8 35          	sar    $0x35,%rax
   1888d:	48 0f bf c0          	movswq %ax,%rax
   18891:	8b 55 fc             	mov    -0x4(%rbp),%edx
   18894:	48 8d 35 9e 50 00 00 	lea    0x509e(%rip),%rsi        # 1d939 <g_1254+0x1875>
   1889b:	48 89 c7             	mov    %rax,%rdi
   1889e:	e8 50 1e ff ff       	callq  a6f3 <transparent_crc>
   188a3:	8b 45 f8             	mov    -0x8(%rbp),%eax
   188a6:	48 98                	cltq   
   188a8:	8b 55 f0             	mov    -0x10(%rbp),%edx
   188ab:	48 63 ca             	movslq %edx,%rcx
   188ae:	8b 55 f4             	mov    -0xc(%rbp),%edx
   188b1:	48 63 d2             	movslq %edx,%rdx
   188b4:	48 01 c9             	add    %rcx,%rcx
   188b7:	48 01 ca             	add    %rcx,%rdx
   188ba:	48 01 d2             	add    %rdx,%rdx
   188bd:	48 01 d0             	add    %rdx,%rax
   188c0:	48 c1 e0 04          	shl    $0x4,%rax
   188c4:	48 89 c2             	mov    %rax,%rdx
   188c7:	48 8d 05 f2 ae 00 00 	lea    0xaef2(%rip),%rax        # 237c0 <g_893>
   188ce:	0f b6 44 02 0f       	movzbl 0xf(%rdx,%rax,1),%eax
   188d3:	c1 e0 03             	shl    $0x3,%eax
   188d6:	c0 f8 07             	sar    $0x7,%al
   188d9:	48 0f be c0          	movsbq %al,%rax
   188dd:	8b 55 fc             	mov    -0x4(%rbp),%edx
   188e0:	48 8d 35 64 50 00 00 	lea    0x5064(%rip),%rsi        # 1d94b <g_1254+0x1887>
   188e7:	48 89 c7             	mov    %rax,%rdi
   188ea:	e8 04 1e ff ff       	callq  a6f3 <transparent_crc>
   188ef:	83 7d fc 00          	cmpl   $0x0,-0x4(%rbp)
   188f3:	74 1c                	je     18911 <main+0x2afd>
   188f5:	8b 4d f8             	mov    -0x8(%rbp),%ecx
   188f8:	8b 55 f4             	mov    -0xc(%rbp),%edx
   188fb:	8b 45 f0             	mov    -0x10(%rbp),%eax
   188fe:	89 c6                	mov    %eax,%esi
   18900:	48 8d 3d f4 47 00 00 	lea    0x47f4(%rip),%rdi        # 1d0fb <g_1254+0x1037>
   18907:	b8 00 00 00 00       	mov    $0x0,%eax
   1890c:	e8 6f 07 ff ff       	callq  9080 <printf@plt>
   18911:	83 45 f8 01          	addl   $0x1,-0x8(%rbp)
   18915:	83 7d f8 01          	cmpl   $0x1,-0x8(%rbp)
   18919:	0f 8e 14 fe ff ff    	jle    18733 <main+0x291f>
   1891f:	83 45 f4 01          	addl   $0x1,-0xc(%rbp)
   18923:	83 7d f4 01          	cmpl   $0x1,-0xc(%rbp)
   18927:	0f 8e fa fd ff ff    	jle    18727 <main+0x2913>
   1892d:	83 45 f0 01          	addl   $0x1,-0x10(%rbp)
   18931:	83 7d f0 02          	cmpl   $0x2,-0x10(%rbp)
   18935:	0f 8e e0 fd ff ff    	jle    1871b <main+0x2907>
   1893b:	c7 45 f0 00 00 00 00 	movl   $0x0,-0x10(%rbp)
   18942:	e9 b7 01 00 00       	jmpq   18afe <main+0x2cea>
   18947:	c7 45 f4 00 00 00 00 	movl   $0x0,-0xc(%rbp)
   1894e:	e9 9d 01 00 00       	jmpq   18af0 <main+0x2cdc>
   18953:	8b 45 f4             	mov    -0xc(%rbp),%eax
   18956:	48 98                	cltq   
   18958:	8b 55 f0             	mov    -0x10(%rbp),%edx
   1895b:	48 63 d2             	movslq %edx,%rdx
   1895e:	48 c1 e2 03          	shl    $0x3,%rdx
   18962:	48 01 d0             	add    %rdx,%rax
   18965:	48 c1 e0 04          	shl    $0x4,%rax
   18969:	48 89 c2             	mov    %rax,%rdx
   1896c:	48 8d 05 0d af 00 00 	lea    0xaf0d(%rip),%rax        # 23880 <g_894>
   18973:	8b 04 02             	mov    (%rdx,%rax,1),%eax
   18976:	c1 e0 04             	shl    $0x4,%eax
   18979:	c1 f8 04             	sar    $0x4,%eax
   1897c:	48 98                	cltq   
   1897e:	8b 55 fc             	mov    -0x4(%rbp),%edx
   18981:	48 8d 35 d5 4f 00 00 	lea    0x4fd5(%rip),%rsi        # 1d95d <g_1254+0x1899>
   18988:	48 89 c7             	mov    %rax,%rdi
   1898b:	e8 63 1d ff ff       	callq  a6f3 <transparent_crc>
   18990:	8b 45 f4             	mov    -0xc(%rbp),%eax
   18993:	48 98                	cltq   
   18995:	8b 55 f0             	mov    -0x10(%rbp),%edx
   18998:	48 63 d2             	movslq %edx,%rdx
   1899b:	48 c1 e2 03          	shl    $0x3,%rdx
   1899f:	48 01 d0             	add    %rdx,%rax
   189a2:	48 c1 e0 04          	shl    $0x4,%rax
   189a6:	48 89 c2             	mov    %rax,%rdx
   189a9:	48 8d 05 d4 ae 00 00 	lea    0xaed4(%rip),%rax        # 23884 <g_894+0x4>
   189b0:	0f b7 04 02          	movzwl (%rdx,%rax,1),%eax
   189b4:	48 0f bf c0          	movswq %ax,%rax
   189b8:	8b 55 fc             	mov    -0x4(%rbp),%edx
   189bb:	48 8d 35 aa 4f 00 00 	lea    0x4faa(%rip),%rsi        # 1d96c <g_1254+0x18a8>
   189c2:	48 89 c7             	mov    %rax,%rdi
   189c5:	e8 29 1d ff ff       	callq  a6f3 <transparent_crc>
   189ca:	8b 45 f4             	mov    -0xc(%rbp),%eax
   189cd:	48 98                	cltq   
   189cf:	8b 55 f0             	mov    -0x10(%rbp),%edx
   189d2:	48 63 d2             	movslq %edx,%rdx
   189d5:	48 c1 e2 03          	shl    $0x3,%rdx
   189d9:	48 01 d0             	add    %rdx,%rax
   189dc:	48 c1 e0 04          	shl    $0x4,%rax
   189e0:	48 89 c2             	mov    %rax,%rdx
   189e3:	48 8d 05 96 ae 00 00 	lea    0xae96(%rip),%rax        # 23880 <g_894>
   189ea:	8b 44 02 08          	mov    0x8(%rdx,%rax,1),%eax
   189ee:	c1 e0 03             	shl    $0x3,%eax
   189f1:	c1 f8 03             	sar    $0x3,%eax
   189f4:	48 98                	cltq   
   189f6:	8b 55 fc             	mov    -0x4(%rbp),%edx
   189f9:	48 8d 35 7b 4f 00 00 	lea    0x4f7b(%rip),%rsi        # 1d97b <g_1254+0x18b7>
   18a00:	48 89 c7             	mov    %rax,%rdi
   18a03:	e8 eb 1c ff ff       	callq  a6f3 <transparent_crc>
   18a08:	8b 45 f4             	mov    -0xc(%rbp),%eax
   18a0b:	48 98                	cltq   
   18a0d:	8b 55 f0             	mov    -0x10(%rbp),%edx
   18a10:	48 63 d2             	movslq %edx,%rdx
   18a13:	48 c1 e2 03          	shl    $0x3,%rdx
   18a17:	48 01 d0             	add    %rdx,%rax
   18a1a:	48 c1 e0 04          	shl    $0x4,%rax
   18a1e:	48 89 c2             	mov    %rax,%rdx
   18a21:	48 8d 05 58 ae 00 00 	lea    0xae58(%rip),%rax        # 23880 <g_894>
   18a28:	48 8b 44 02 08       	mov    0x8(%rdx,%rax,1),%rax
   18a2d:	48 c1 e0 0f          	shl    $0xf,%rax
   18a31:	48 c1 f8 2f          	sar    $0x2f,%rax
   18a35:	48 98                	cltq   
   18a37:	8b 55 fc             	mov    -0x4(%rbp),%edx
   18a3a:	48 8d 35 49 4f 00 00 	lea    0x4f49(%rip),%rsi        # 1d98a <g_1254+0x18c6>
   18a41:	48 89 c7             	mov    %rax,%rdi
   18a44:	e8 aa 1c ff ff       	callq  a6f3 <transparent_crc>
   18a49:	8b 45 f4             	mov    -0xc(%rbp),%eax
   18a4c:	48 98                	cltq   
   18a4e:	8b 55 f0             	mov    -0x10(%rbp),%edx
   18a51:	48 63 d2             	movslq %edx,%rdx
   18a54:	48 c1 e2 03          	shl    $0x3,%rdx
   18a58:	48 01 d0             	add    %rdx,%rax
   18a5b:	48 c1 e0 04          	shl    $0x4,%rax
   18a5f:	48 89 c2             	mov    %rax,%rdx
   18a62:	48 8d 05 17 ae 00 00 	lea    0xae17(%rip),%rax        # 23880 <g_894>
   18a69:	48 8b 44 02 08       	mov    0x8(%rdx,%rax,1),%rax
   18a6e:	48 c1 e0 04          	shl    $0x4,%rax
   18a72:	48 c1 f8 35          	sar    $0x35,%rax
   18a76:	48 0f bf c0          	movswq %ax,%rax
   18a7a:	8b 55 fc             	mov    -0x4(%rbp),%edx
   18a7d:	48 8d 35 15 4f 00 00 	lea    0x4f15(%rip),%rsi        # 1d999 <g_1254+0x18d5>
   18a84:	48 89 c7             	mov    %rax,%rdi
   18a87:	e8 67 1c ff ff       	callq  a6f3 <transparent_crc>
   18a8c:	8b 45 f4             	mov    -0xc(%rbp),%eax
   18a8f:	48 98                	cltq   
   18a91:	8b 55 f0             	mov    -0x10(%rbp),%edx
   18a94:	48 63 d2             	movslq %edx,%rdx
   18a97:	48 c1 e2 03          	shl    $0x3,%rdx
   18a9b:	48 01 d0             	add    %rdx,%rax
   18a9e:	48 c1 e0 04          	shl    $0x4,%rax
   18aa2:	48 89 c2             	mov    %rax,%rdx
   18aa5:	48 8d 05 d4 ad 00 00 	lea    0xadd4(%rip),%rax        # 23880 <g_894>
   18aac:	0f b6 44 02 0f       	movzbl 0xf(%rdx,%rax,1),%eax
   18ab1:	c1 e0 03             	shl    $0x3,%eax
   18ab4:	c0 f8 07             	sar    $0x7,%al
   18ab7:	48 0f be c0          	movsbq %al,%rax
   18abb:	8b 55 fc             	mov    -0x4(%rbp),%edx
   18abe:	48 8d 35 e3 4e 00 00 	lea    0x4ee3(%rip),%rsi        # 1d9a8 <g_1254+0x18e4>
   18ac5:	48 89 c7             	mov    %rax,%rdi
   18ac8:	e8 26 1c ff ff       	callq  a6f3 <transparent_crc>
   18acd:	83 7d fc 00          	cmpl   $0x0,-0x4(%rbp)
   18ad1:	74 19                	je     18aec <main+0x2cd8>
   18ad3:	8b 55 f4             	mov    -0xc(%rbp),%edx
   18ad6:	8b 45 f0             	mov    -0x10(%rbp),%eax
   18ad9:	89 c6                	mov    %eax,%esi
   18adb:	48 8d 3d 21 45 00 00 	lea    0x4521(%rip),%rdi        # 1d003 <g_1254+0xf3f>
   18ae2:	b8 00 00 00 00       	mov    $0x0,%eax
   18ae7:	e8 94 05 ff ff       	callq  9080 <printf@plt>
   18aec:	83 45 f4 01          	addl   $0x1,-0xc(%rbp)
   18af0:	83 7d f4 07          	cmpl   $0x7,-0xc(%rbp)
   18af4:	0f 8e 59 fe ff ff    	jle    18953 <main+0x2b3f>
   18afa:	83 45 f0 01          	addl   $0x1,-0x10(%rbp)
   18afe:	83 7d f0 03          	cmpl   $0x3,-0x10(%rbp)
   18b02:	0f 8e 3f fe ff ff    	jle    18947 <main+0x2b33>
   18b08:	8b 05 72 af 00 00    	mov    0xaf72(%rip),%eax        # 23a80 <g_895>
   18b0e:	c1 e0 04             	shl    $0x4,%eax
   18b11:	c1 f8 04             	sar    $0x4,%eax
   18b14:	48 98                	cltq   
   18b16:	8b 55 fc             	mov    -0x4(%rbp),%edx
   18b19:	48 8d 35 97 4e 00 00 	lea    0x4e97(%rip),%rsi        # 1d9b7 <g_1254+0x18f3>
   18b20:	48 89 c7             	mov    %rax,%rdi
   18b23:	e8 cb 1b ff ff       	callq  a6f3 <transparent_crc>
   18b28:	0f b7 05 55 af 00 00 	movzwl 0xaf55(%rip),%eax        # 23a84 <g_895+0x4>
   18b2f:	48 0f bf c0          	movswq %ax,%rax
   18b33:	8b 55 fc             	mov    -0x4(%rbp),%edx
   18b36:	48 8d 35 83 4e 00 00 	lea    0x4e83(%rip),%rsi        # 1d9c0 <g_1254+0x18fc>
   18b3d:	48 89 c7             	mov    %rax,%rdi
   18b40:	e8 ae 1b ff ff       	callq  a6f3 <transparent_crc>
   18b45:	8b 05 3d af 00 00    	mov    0xaf3d(%rip),%eax        # 23a88 <g_895+0x8>
   18b4b:	c1 e0 03             	shl    $0x3,%eax
   18b4e:	c1 f8 03             	sar    $0x3,%eax
   18b51:	48 98                	cltq   
   18b53:	8b 55 fc             	mov    -0x4(%rbp),%edx
   18b56:	48 8d 35 6c 4e 00 00 	lea    0x4e6c(%rip),%rsi        # 1d9c9 <g_1254+0x1905>
   18b5d:	48 89 c7             	mov    %rax,%rdi
   18b60:	e8 8e 1b ff ff       	callq  a6f3 <transparent_crc>
   18b65:	48 8b 05 1c af 00 00 	mov    0xaf1c(%rip),%rax        # 23a88 <g_895+0x8>
   18b6c:	48 c1 e0 0f          	shl    $0xf,%rax
   18b70:	48 c1 f8 2f          	sar    $0x2f,%rax
   18b74:	48 98                	cltq   
   18b76:	8b 55 fc             	mov    -0x4(%rbp),%edx
   18b79:	48 8d 35 52 4e 00 00 	lea    0x4e52(%rip),%rsi        # 1d9d2 <g_1254+0x190e>
   18b80:	48 89 c7             	mov    %rax,%rdi
   18b83:	e8 6b 1b ff ff       	callq  a6f3 <transparent_crc>
   18b88:	48 8b 05 f9 ae 00 00 	mov    0xaef9(%rip),%rax        # 23a88 <g_895+0x8>
   18b8f:	48 c1 e0 04          	shl    $0x4,%rax
   18b93:	48 c1 f8 35          	sar    $0x35,%rax
   18b97:	48 0f bf c0          	movswq %ax,%rax
   18b9b:	8b 55 fc             	mov    -0x4(%rbp),%edx
   18b9e:	48 8d 35 36 4e 00 00 	lea    0x4e36(%rip),%rsi        # 1d9db <g_1254+0x1917>
   18ba5:	48 89 c7             	mov    %rax,%rdi
   18ba8:	e8 46 1b ff ff       	callq  a6f3 <transparent_crc>
   18bad:	0f b6 05 db ae 00 00 	movzbl 0xaedb(%rip),%eax        # 23a8f <g_895+0xf>
   18bb4:	c1 e0 03             	shl    $0x3,%eax
   18bb7:	c0 f8 07             	sar    $0x7,%al
   18bba:	48 0f be c0          	movsbq %al,%rax
   18bbe:	8b 55 fc             	mov    -0x4(%rbp),%edx
   18bc1:	48 8d 35 1c 4e 00 00 	lea    0x4e1c(%rip),%rsi        # 1d9e4 <g_1254+0x1920>
   18bc8:	48 89 c7             	mov    %rax,%rdi
   18bcb:	e8 23 1b ff ff       	callq  a6f3 <transparent_crc>
   18bd0:	8b 05 ba ae 00 00    	mov    0xaeba(%rip),%eax        # 23a90 <g_896>
   18bd6:	c1 e0 04             	shl    $0x4,%eax
   18bd9:	c1 f8 04             	sar    $0x4,%eax
   18bdc:	48 98                	cltq   
   18bde:	8b 55 fc             	mov    -0x4(%rbp),%edx
   18be1:	48 8d 35 05 4e 00 00 	lea    0x4e05(%rip),%rsi        # 1d9ed <g_1254+0x1929>
   18be8:	48 89 c7             	mov    %rax,%rdi
   18beb:	e8 03 1b ff ff       	callq  a6f3 <transparent_crc>
   18bf0:	0f b7 05 9d ae 00 00 	movzwl 0xae9d(%rip),%eax        # 23a94 <g_896+0x4>
   18bf7:	48 0f bf c0          	movswq %ax,%rax
   18bfb:	8b 55 fc             	mov    -0x4(%rbp),%edx
   18bfe:	48 8d 35 f1 4d 00 00 	lea    0x4df1(%rip),%rsi        # 1d9f6 <g_1254+0x1932>
   18c05:	48 89 c7             	mov    %rax,%rdi
   18c08:	e8 e6 1a ff ff       	callq  a6f3 <transparent_crc>
   18c0d:	8b 05 85 ae 00 00    	mov    0xae85(%rip),%eax        # 23a98 <g_896+0x8>
   18c13:	c1 e0 03             	shl    $0x3,%eax
   18c16:	c1 f8 03             	sar    $0x3,%eax
   18c19:	48 98                	cltq   
   18c1b:	8b 55 fc             	mov    -0x4(%rbp),%edx
   18c1e:	48 8d 35 da 4d 00 00 	lea    0x4dda(%rip),%rsi        # 1d9ff <g_1254+0x193b>
   18c25:	48 89 c7             	mov    %rax,%rdi
   18c28:	e8 c6 1a ff ff       	callq  a6f3 <transparent_crc>
   18c2d:	48 8b 05 64 ae 00 00 	mov    0xae64(%rip),%rax        # 23a98 <g_896+0x8>
   18c34:	48 c1 e0 0f          	shl    $0xf,%rax
   18c38:	48 c1 f8 2f          	sar    $0x2f,%rax
   18c3c:	48 98                	cltq   
   18c3e:	8b 55 fc             	mov    -0x4(%rbp),%edx
   18c41:	48 8d 35 c0 4d 00 00 	lea    0x4dc0(%rip),%rsi        # 1da08 <g_1254+0x1944>
   18c48:	48 89 c7             	mov    %rax,%rdi
   18c4b:	e8 a3 1a ff ff       	callq  a6f3 <transparent_crc>
   18c50:	48 8b 05 41 ae 00 00 	mov    0xae41(%rip),%rax        # 23a98 <g_896+0x8>
   18c57:	48 c1 e0 04          	shl    $0x4,%rax
   18c5b:	48 c1 f8 35          	sar    $0x35,%rax
   18c5f:	48 0f bf c0          	movswq %ax,%rax
   18c63:	8b 55 fc             	mov    -0x4(%rbp),%edx
   18c66:	48 8d 35 a4 4d 00 00 	lea    0x4da4(%rip),%rsi        # 1da11 <g_1254+0x194d>
   18c6d:	48 89 c7             	mov    %rax,%rdi
   18c70:	e8 7e 1a ff ff       	callq  a6f3 <transparent_crc>
   18c75:	0f b6 05 23 ae 00 00 	movzbl 0xae23(%rip),%eax        # 23a9f <g_896+0xf>
   18c7c:	c1 e0 03             	shl    $0x3,%eax
   18c7f:	c0 f8 07             	sar    $0x7,%al
   18c82:	48 0f be c0          	movsbq %al,%rax
   18c86:	8b 55 fc             	mov    -0x4(%rbp),%edx
   18c89:	48 8d 35 8a 4d 00 00 	lea    0x4d8a(%rip),%rsi        # 1da1a <g_1254+0x1956>
   18c90:	48 89 c7             	mov    %rax,%rdi
   18c93:	e8 5b 1a ff ff       	callq  a6f3 <transparent_crc>
   18c98:	8b 05 02 ae 00 00    	mov    0xae02(%rip),%eax        # 23aa0 <g_897>
   18c9e:	c1 e0 04             	shl    $0x4,%eax
   18ca1:	c1 f8 04             	sar    $0x4,%eax
   18ca4:	48 98                	cltq   
   18ca6:	8b 55 fc             	mov    -0x4(%rbp),%edx
   18ca9:	48 8d 35 73 4d 00 00 	lea    0x4d73(%rip),%rsi        # 1da23 <g_1254+0x195f>
   18cb0:	48 89 c7             	mov    %rax,%rdi
   18cb3:	e8 3b 1a ff ff       	callq  a6f3 <transparent_crc>
   18cb8:	0f b7 05 e5 ad 00 00 	movzwl 0xade5(%rip),%eax        # 23aa4 <g_897+0x4>
   18cbf:	48 0f bf c0          	movswq %ax,%rax
   18cc3:	8b 55 fc             	mov    -0x4(%rbp),%edx
   18cc6:	48 8d 35 5f 4d 00 00 	lea    0x4d5f(%rip),%rsi        # 1da2c <g_1254+0x1968>
   18ccd:	48 89 c7             	mov    %rax,%rdi
   18cd0:	e8 1e 1a ff ff       	callq  a6f3 <transparent_crc>
   18cd5:	8b 05 cd ad 00 00    	mov    0xadcd(%rip),%eax        # 23aa8 <g_897+0x8>
   18cdb:	c1 e0 03             	shl    $0x3,%eax
   18cde:	c1 f8 03             	sar    $0x3,%eax
   18ce1:	48 98                	cltq   
   18ce3:	8b 55 fc             	mov    -0x4(%rbp),%edx
   18ce6:	48 8d 35 48 4d 00 00 	lea    0x4d48(%rip),%rsi        # 1da35 <g_1254+0x1971>
   18ced:	48 89 c7             	mov    %rax,%rdi
   18cf0:	e8 fe 19 ff ff       	callq  a6f3 <transparent_crc>
   18cf5:	48 8b 05 ac ad 00 00 	mov    0xadac(%rip),%rax        # 23aa8 <g_897+0x8>
   18cfc:	48 c1 e0 0f          	shl    $0xf,%rax
   18d00:	48 c1 f8 2f          	sar    $0x2f,%rax
   18d04:	48 98                	cltq   
   18d06:	8b 55 fc             	mov    -0x4(%rbp),%edx
   18d09:	48 8d 35 2e 4d 00 00 	lea    0x4d2e(%rip),%rsi        # 1da3e <g_1254+0x197a>
   18d10:	48 89 c7             	mov    %rax,%rdi
   18d13:	e8 db 19 ff ff       	callq  a6f3 <transparent_crc>
   18d18:	48 8b 05 89 ad 00 00 	mov    0xad89(%rip),%rax        # 23aa8 <g_897+0x8>
   18d1f:	48 c1 e0 04          	shl    $0x4,%rax
   18d23:	48 c1 f8 35          	sar    $0x35,%rax
   18d27:	48 0f bf c0          	movswq %ax,%rax
   18d2b:	8b 55 fc             	mov    -0x4(%rbp),%edx
   18d2e:	48 8d 35 12 4d 00 00 	lea    0x4d12(%rip),%rsi        # 1da47 <g_1254+0x1983>
   18d35:	48 89 c7             	mov    %rax,%rdi
   18d38:	e8 b6 19 ff ff       	callq  a6f3 <transparent_crc>
   18d3d:	0f b6 05 6b ad 00 00 	movzbl 0xad6b(%rip),%eax        # 23aaf <g_897+0xf>
   18d44:	c1 e0 03             	shl    $0x3,%eax
   18d47:	c0 f8 07             	sar    $0x7,%al
   18d4a:	48 0f be c0          	movsbq %al,%rax
   18d4e:	8b 55 fc             	mov    -0x4(%rbp),%edx
   18d51:	48 8d 35 f8 4c 00 00 	lea    0x4cf8(%rip),%rsi        # 1da50 <g_1254+0x198c>
   18d58:	48 89 c7             	mov    %rax,%rdi
   18d5b:	e8 93 19 ff ff       	callq  a6f3 <transparent_crc>
   18d60:	c7 45 f0 00 00 00 00 	movl   $0x0,-0x10(%rbp)
   18d67:	e9 4c 01 00 00       	jmpq   18eb8 <main+0x30a4>
   18d6c:	8b 45 f0             	mov    -0x10(%rbp),%eax
   18d6f:	48 98                	cltq   
   18d71:	48 c1 e0 04          	shl    $0x4,%rax
   18d75:	48 89 c2             	mov    %rax,%rdx
   18d78:	48 8d 05 41 ad 00 00 	lea    0xad41(%rip),%rax        # 23ac0 <g_898>
   18d7f:	8b 04 02             	mov    (%rdx,%rax,1),%eax
   18d82:	c1 e0 04             	shl    $0x4,%eax
   18d85:	c1 f8 04             	sar    $0x4,%eax
   18d88:	48 98                	cltq   
   18d8a:	8b 55 fc             	mov    -0x4(%rbp),%edx
   18d8d:	48 8d 35 c5 4c 00 00 	lea    0x4cc5(%rip),%rsi        # 1da59 <g_1254+0x1995>
   18d94:	48 89 c7             	mov    %rax,%rdi
   18d97:	e8 57 19 ff ff       	callq  a6f3 <transparent_crc>
   18d9c:	8b 45 f0             	mov    -0x10(%rbp),%eax
   18d9f:	48 98                	cltq   
   18da1:	48 c1 e0 04          	shl    $0x4,%rax
   18da5:	48 89 c2             	mov    %rax,%rdx
   18da8:	48 8d 05 15 ad 00 00 	lea    0xad15(%rip),%rax        # 23ac4 <g_898+0x4>
   18daf:	0f b7 04 02          	movzwl (%rdx,%rax,1),%eax
   18db3:	48 0f bf c0          	movswq %ax,%rax
   18db7:	8b 55 fc             	mov    -0x4(%rbp),%edx
   18dba:	48 8d 35 a4 4c 00 00 	lea    0x4ca4(%rip),%rsi        # 1da65 <g_1254+0x19a1>
   18dc1:	48 89 c7             	mov    %rax,%rdi
   18dc4:	e8 2a 19 ff ff       	callq  a6f3 <transparent_crc>
   18dc9:	8b 45 f0             	mov    -0x10(%rbp),%eax
   18dcc:	48 98                	cltq   
   18dce:	48 c1 e0 04          	shl    $0x4,%rax
   18dd2:	48 89 c2             	mov    %rax,%rdx
   18dd5:	48 8d 05 e4 ac 00 00 	lea    0xace4(%rip),%rax        # 23ac0 <g_898>
   18ddc:	8b 44 02 08          	mov    0x8(%rdx,%rax,1),%eax
   18de0:	c1 e0 03             	shl    $0x3,%eax
   18de3:	c1 f8 03             	sar    $0x3,%eax
   18de6:	48 98                	cltq   
   18de8:	8b 55 fc             	mov    -0x4(%rbp),%edx
   18deb:	48 8d 35 7f 4c 00 00 	lea    0x4c7f(%rip),%rsi        # 1da71 <g_1254+0x19ad>
   18df2:	48 89 c7             	mov    %rax,%rdi
   18df5:	e8 f9 18 ff ff       	callq  a6f3 <transparent_crc>
   18dfa:	8b 45 f0             	mov    -0x10(%rbp),%eax
   18dfd:	48 98                	cltq   
   18dff:	48 c1 e0 04          	shl    $0x4,%rax
   18e03:	48 89 c2             	mov    %rax,%rdx
   18e06:	48 8d 05 b3 ac 00 00 	lea    0xacb3(%rip),%rax        # 23ac0 <g_898>
   18e0d:	48 8b 44 02 08       	mov    0x8(%rdx,%rax,1),%rax
   18e12:	48 c1 e0 0f          	shl    $0xf,%rax
   18e16:	48 c1 f8 2f          	sar    $0x2f,%rax
   18e1a:	48 98                	cltq   
   18e1c:	8b 55 fc             	mov    -0x4(%rbp),%edx
   18e1f:	48 8d 35 57 4c 00 00 	lea    0x4c57(%rip),%rsi        # 1da7d <g_1254+0x19b9>
   18e26:	48 89 c7             	mov    %rax,%rdi
   18e29:	e8 c5 18 ff ff       	callq  a6f3 <transparent_crc>
   18e2e:	8b 45 f0             	mov    -0x10(%rbp),%eax
   18e31:	48 98                	cltq   
   18e33:	48 c1 e0 04          	shl    $0x4,%rax
   18e37:	48 89 c2             	mov    %rax,%rdx
   18e3a:	48 8d 05 7f ac 00 00 	lea    0xac7f(%rip),%rax        # 23ac0 <g_898>
   18e41:	48 8b 44 02 08       	mov    0x8(%rdx,%rax,1),%rax
   18e46:	48 c1 e0 04          	shl    $0x4,%rax
   18e4a:	48 c1 f8 35          	sar    $0x35,%rax
   18e4e:	48 0f bf c0          	movswq %ax,%rax
   18e52:	8b 55 fc             	mov    -0x4(%rbp),%edx
   18e55:	48 8d 35 2d 4c 00 00 	lea    0x4c2d(%rip),%rsi        # 1da89 <g_1254+0x19c5>
   18e5c:	48 89 c7             	mov    %rax,%rdi
   18e5f:	e8 8f 18 ff ff       	callq  a6f3 <transparent_crc>
   18e64:	8b 45 f0             	mov    -0x10(%rbp),%eax
   18e67:	48 98                	cltq   
   18e69:	48 c1 e0 04          	shl    $0x4,%rax
   18e6d:	48 89 c2             	mov    %rax,%rdx
   18e70:	48 8d 05 49 ac 00 00 	lea    0xac49(%rip),%rax        # 23ac0 <g_898>
   18e77:	0f b6 44 02 0f       	movzbl 0xf(%rdx,%rax,1),%eax
   18e7c:	c1 e0 03             	shl    $0x3,%eax
   18e7f:	c0 f8 07             	sar    $0x7,%al
   18e82:	48 0f be c0          	movsbq %al,%rax
   18e86:	8b 55 fc             	mov    -0x4(%rbp),%edx
   18e89:	48 8d 35 05 4c 00 00 	lea    0x4c05(%rip),%rsi        # 1da95 <g_1254+0x19d1>
   18e90:	48 89 c7             	mov    %rax,%rdi
   18e93:	e8 5b 18 ff ff       	callq  a6f3 <transparent_crc>
   18e98:	83 7d fc 00          	cmpl   $0x0,-0x4(%rbp)
   18e9c:	74 16                	je     18eb4 <main+0x30a0>
   18e9e:	8b 45 f0             	mov    -0x10(%rbp),%eax
   18ea1:	89 c6                	mov    %eax,%esi
   18ea3:	48 8d 3d 3b 41 00 00 	lea    0x413b(%rip),%rdi        # 1cfe5 <g_1254+0xf21>
   18eaa:	b8 00 00 00 00       	mov    $0x0,%eax
   18eaf:	e8 cc 01 ff ff       	callq  9080 <printf@plt>
   18eb4:	83 45 f0 01          	addl   $0x1,-0x10(%rbp)
   18eb8:	83 7d f0 06          	cmpl   $0x6,-0x10(%rbp)
   18ebc:	0f 8e aa fe ff ff    	jle    18d6c <main+0x2f58>
   18ec2:	8b 05 68 ac 00 00    	mov    0xac68(%rip),%eax        # 23b30 <g_899>
   18ec8:	c1 e0 04             	shl    $0x4,%eax
   18ecb:	c1 f8 04             	sar    $0x4,%eax
   18ece:	48 98                	cltq   
   18ed0:	8b 55 fc             	mov    -0x4(%rbp),%edx
   18ed3:	48 8d 35 c7 4b 00 00 	lea    0x4bc7(%rip),%rsi        # 1daa1 <g_1254+0x19dd>
   18eda:	48 89 c7             	mov    %rax,%rdi
   18edd:	e8 11 18 ff ff       	callq  a6f3 <transparent_crc>
   18ee2:	0f b7 05 4b ac 00 00 	movzwl 0xac4b(%rip),%eax        # 23b34 <g_899+0x4>
   18ee9:	48 0f bf c0          	movswq %ax,%rax
   18eed:	8b 55 fc             	mov    -0x4(%rbp),%edx
   18ef0:	48 8d 35 b3 4b 00 00 	lea    0x4bb3(%rip),%rsi        # 1daaa <g_1254+0x19e6>
   18ef7:	48 89 c7             	mov    %rax,%rdi
   18efa:	e8 f4 17 ff ff       	callq  a6f3 <transparent_crc>
   18eff:	8b 05 33 ac 00 00    	mov    0xac33(%rip),%eax        # 23b38 <g_899+0x8>
   18f05:	c1 e0 03             	shl    $0x3,%eax
   18f08:	c1 f8 03             	sar    $0x3,%eax
   18f0b:	48 98                	cltq   
   18f0d:	8b 55 fc             	mov    -0x4(%rbp),%edx
   18f10:	48 8d 35 9c 4b 00 00 	lea    0x4b9c(%rip),%rsi        # 1dab3 <g_1254+0x19ef>
   18f17:	48 89 c7             	mov    %rax,%rdi
   18f1a:	e8 d4 17 ff ff       	callq  a6f3 <transparent_crc>
   18f1f:	48 8b 05 12 ac 00 00 	mov    0xac12(%rip),%rax        # 23b38 <g_899+0x8>
   18f26:	48 c1 e0 0f          	shl    $0xf,%rax
   18f2a:	48 c1 f8 2f          	sar    $0x2f,%rax
   18f2e:	48 98                	cltq   
   18f30:	8b 55 fc             	mov    -0x4(%rbp),%edx
   18f33:	48 8d 35 82 4b 00 00 	lea    0x4b82(%rip),%rsi        # 1dabc <g_1254+0x19f8>
   18f3a:	48 89 c7             	mov    %rax,%rdi
   18f3d:	e8 b1 17 ff ff       	callq  a6f3 <transparent_crc>
   18f42:	48 8b 05 ef ab 00 00 	mov    0xabef(%rip),%rax        # 23b38 <g_899+0x8>
   18f49:	48 c1 e0 04          	shl    $0x4,%rax
   18f4d:	48 c1 f8 35          	sar    $0x35,%rax
   18f51:	48 0f bf c0          	movswq %ax,%rax
   18f55:	8b 55 fc             	mov    -0x4(%rbp),%edx
   18f58:	48 8d 35 66 4b 00 00 	lea    0x4b66(%rip),%rsi        # 1dac5 <g_1254+0x1a01>
   18f5f:	48 89 c7             	mov    %rax,%rdi
   18f62:	e8 8c 17 ff ff       	callq  a6f3 <transparent_crc>
   18f67:	0f b6 05 d1 ab 00 00 	movzbl 0xabd1(%rip),%eax        # 23b3f <g_899+0xf>
   18f6e:	c1 e0 03             	shl    $0x3,%eax
   18f71:	c0 f8 07             	sar    $0x7,%al
   18f74:	48 0f be c0          	movsbq %al,%rax
   18f78:	8b 55 fc             	mov    -0x4(%rbp),%edx
   18f7b:	48 8d 35 4c 4b 00 00 	lea    0x4b4c(%rip),%rsi        # 1dace <g_1254+0x1a0a>
   18f82:	48 89 c7             	mov    %rax,%rdi
   18f85:	e8 69 17 ff ff       	callq  a6f3 <transparent_crc>
   18f8a:	8b 05 b0 ab 00 00    	mov    0xabb0(%rip),%eax        # 23b40 <g_900>
   18f90:	c1 e0 04             	shl    $0x4,%eax
   18f93:	c1 f8 04             	sar    $0x4,%eax
   18f96:	48 98                	cltq   
   18f98:	8b 55 fc             	mov    -0x4(%rbp),%edx
   18f9b:	48 8d 35 35 4b 00 00 	lea    0x4b35(%rip),%rsi        # 1dad7 <g_1254+0x1a13>
   18fa2:	48 89 c7             	mov    %rax,%rdi
   18fa5:	e8 49 17 ff ff       	callq  a6f3 <transparent_crc>
   18faa:	0f b7 05 93 ab 00 00 	movzwl 0xab93(%rip),%eax        # 23b44 <g_900+0x4>
   18fb1:	48 0f bf c0          	movswq %ax,%rax
   18fb5:	8b 55 fc             	mov    -0x4(%rbp),%edx
   18fb8:	48 8d 35 21 4b 00 00 	lea    0x4b21(%rip),%rsi        # 1dae0 <g_1254+0x1a1c>
   18fbf:	48 89 c7             	mov    %rax,%rdi
   18fc2:	e8 2c 17 ff ff       	callq  a6f3 <transparent_crc>
   18fc7:	8b 05 7b ab 00 00    	mov    0xab7b(%rip),%eax        # 23b48 <g_900+0x8>
   18fcd:	c1 e0 03             	shl    $0x3,%eax
   18fd0:	c1 f8 03             	sar    $0x3,%eax
   18fd3:	48 98                	cltq   
   18fd5:	8b 55 fc             	mov    -0x4(%rbp),%edx
   18fd8:	48 8d 35 0a 4b 00 00 	lea    0x4b0a(%rip),%rsi        # 1dae9 <g_1254+0x1a25>
   18fdf:	48 89 c7             	mov    %rax,%rdi
   18fe2:	e8 0c 17 ff ff       	callq  a6f3 <transparent_crc>
   18fe7:	48 8b 05 5a ab 00 00 	mov    0xab5a(%rip),%rax        # 23b48 <g_900+0x8>
   18fee:	48 c1 e0 0f          	shl    $0xf,%rax
   18ff2:	48 c1 f8 2f          	sar    $0x2f,%rax
   18ff6:	48 98                	cltq   
   18ff8:	8b 55 fc             	mov    -0x4(%rbp),%edx
   18ffb:	48 8d 35 f0 4a 00 00 	lea    0x4af0(%rip),%rsi        # 1daf2 <g_1254+0x1a2e>
   19002:	48 89 c7             	mov    %rax,%rdi
   19005:	e8 e9 16 ff ff       	callq  a6f3 <transparent_crc>
   1900a:	48 8b 05 37 ab 00 00 	mov    0xab37(%rip),%rax        # 23b48 <g_900+0x8>
   19011:	48 c1 e0 04          	shl    $0x4,%rax
   19015:	48 c1 f8 35          	sar    $0x35,%rax
   19019:	48 0f bf c0          	movswq %ax,%rax
   1901d:	8b 55 fc             	mov    -0x4(%rbp),%edx
   19020:	48 8d 35 d4 4a 00 00 	lea    0x4ad4(%rip),%rsi        # 1dafb <g_1254+0x1a37>
   19027:	48 89 c7             	mov    %rax,%rdi
   1902a:	e8 c4 16 ff ff       	callq  a6f3 <transparent_crc>
   1902f:	0f b6 05 19 ab 00 00 	movzbl 0xab19(%rip),%eax        # 23b4f <g_900+0xf>
   19036:	c1 e0 03             	shl    $0x3,%eax
   19039:	c0 f8 07             	sar    $0x7,%al
   1903c:	48 0f be c0          	movsbq %al,%rax
   19040:	8b 55 fc             	mov    -0x4(%rbp),%edx
   19043:	48 8d 35 ba 4a 00 00 	lea    0x4aba(%rip),%rsi        # 1db04 <g_1254+0x1a40>
   1904a:	48 89 c7             	mov    %rax,%rdi
   1904d:	e8 a1 16 ff ff       	callq  a6f3 <transparent_crc>
   19052:	8b 05 f8 aa 00 00    	mov    0xaaf8(%rip),%eax        # 23b50 <g_901>
   19058:	c1 e0 04             	shl    $0x4,%eax
   1905b:	c1 f8 04             	sar    $0x4,%eax
   1905e:	48 98                	cltq   
   19060:	8b 55 fc             	mov    -0x4(%rbp),%edx
   19063:	48 8d 35 a3 4a 00 00 	lea    0x4aa3(%rip),%rsi        # 1db0d <g_1254+0x1a49>
   1906a:	48 89 c7             	mov    %rax,%rdi
   1906d:	e8 81 16 ff ff       	callq  a6f3 <transparent_crc>
   19072:	0f b7 05 db aa 00 00 	movzwl 0xaadb(%rip),%eax        # 23b54 <g_901+0x4>
   19079:	48 0f bf c0          	movswq %ax,%rax
   1907d:	8b 55 fc             	mov    -0x4(%rbp),%edx
   19080:	48 8d 35 8f 4a 00 00 	lea    0x4a8f(%rip),%rsi        # 1db16 <g_1254+0x1a52>
   19087:	48 89 c7             	mov    %rax,%rdi
   1908a:	e8 64 16 ff ff       	callq  a6f3 <transparent_crc>
   1908f:	8b 05 c3 aa 00 00    	mov    0xaac3(%rip),%eax        # 23b58 <g_901+0x8>
   19095:	c1 e0 03             	shl    $0x3,%eax
   19098:	c1 f8 03             	sar    $0x3,%eax
   1909b:	48 98                	cltq   
   1909d:	8b 55 fc             	mov    -0x4(%rbp),%edx
   190a0:	48 8d 35 78 4a 00 00 	lea    0x4a78(%rip),%rsi        # 1db1f <g_1254+0x1a5b>
   190a7:	48 89 c7             	mov    %rax,%rdi
   190aa:	e8 44 16 ff ff       	callq  a6f3 <transparent_crc>
   190af:	48 8b 05 a2 aa 00 00 	mov    0xaaa2(%rip),%rax        # 23b58 <g_901+0x8>
   190b6:	48 c1 e0 0f          	shl    $0xf,%rax
   190ba:	48 c1 f8 2f          	sar    $0x2f,%rax
   190be:	48 98                	cltq   
   190c0:	8b 55 fc             	mov    -0x4(%rbp),%edx
   190c3:	48 8d 35 5e 4a 00 00 	lea    0x4a5e(%rip),%rsi        # 1db28 <g_1254+0x1a64>
   190ca:	48 89 c7             	mov    %rax,%rdi
   190cd:	e8 21 16 ff ff       	callq  a6f3 <transparent_crc>
   190d2:	48 8b 05 7f aa 00 00 	mov    0xaa7f(%rip),%rax        # 23b58 <g_901+0x8>
   190d9:	48 c1 e0 04          	shl    $0x4,%rax
   190dd:	48 c1 f8 35          	sar    $0x35,%rax
   190e1:	48 0f bf c0          	movswq %ax,%rax
   190e5:	8b 55 fc             	mov    -0x4(%rbp),%edx
   190e8:	48 8d 35 42 4a 00 00 	lea    0x4a42(%rip),%rsi        # 1db31 <g_1254+0x1a6d>
   190ef:	48 89 c7             	mov    %rax,%rdi
   190f2:	e8 fc 15 ff ff       	callq  a6f3 <transparent_crc>
   190f7:	0f b6 05 61 aa 00 00 	movzbl 0xaa61(%rip),%eax        # 23b5f <g_901+0xf>
   190fe:	c1 e0 03             	shl    $0x3,%eax
   19101:	c0 f8 07             	sar    $0x7,%al
   19104:	48 0f be c0          	movsbq %al,%rax
   19108:	8b 55 fc             	mov    -0x4(%rbp),%edx
   1910b:	48 8d 35 28 4a 00 00 	lea    0x4a28(%rip),%rsi        # 1db3a <g_1254+0x1a76>
   19112:	48 89 c7             	mov    %rax,%rdi
   19115:	e8 d9 15 ff ff       	callq  a6f3 <transparent_crc>
   1911a:	8b 05 40 aa 00 00    	mov    0xaa40(%rip),%eax        # 23b60 <g_902>
   19120:	c1 e0 04             	shl    $0x4,%eax
   19123:	c1 f8 04             	sar    $0x4,%eax
   19126:	48 98                	cltq   
   19128:	8b 55 fc             	mov    -0x4(%rbp),%edx
   1912b:	48 8d 35 11 4a 00 00 	lea    0x4a11(%rip),%rsi        # 1db43 <g_1254+0x1a7f>
   19132:	48 89 c7             	mov    %rax,%rdi
   19135:	e8 b9 15 ff ff       	callq  a6f3 <transparent_crc>
   1913a:	0f b7 05 23 aa 00 00 	movzwl 0xaa23(%rip),%eax        # 23b64 <g_902+0x4>
   19141:	48 0f bf c0          	movswq %ax,%rax
   19145:	8b 55 fc             	mov    -0x4(%rbp),%edx
   19148:	48 8d 35 fd 49 00 00 	lea    0x49fd(%rip),%rsi        # 1db4c <g_1254+0x1a88>
   1914f:	48 89 c7             	mov    %rax,%rdi
   19152:	e8 9c 15 ff ff       	callq  a6f3 <transparent_crc>
   19157:	8b 05 0b aa 00 00    	mov    0xaa0b(%rip),%eax        # 23b68 <g_902+0x8>
   1915d:	c1 e0 03             	shl    $0x3,%eax
   19160:	c1 f8 03             	sar    $0x3,%eax
   19163:	48 98                	cltq   
   19165:	8b 55 fc             	mov    -0x4(%rbp),%edx
   19168:	48 8d 35 e6 49 00 00 	lea    0x49e6(%rip),%rsi        # 1db55 <g_1254+0x1a91>
   1916f:	48 89 c7             	mov    %rax,%rdi
   19172:	e8 7c 15 ff ff       	callq  a6f3 <transparent_crc>
   19177:	48 8b 05 ea a9 00 00 	mov    0xa9ea(%rip),%rax        # 23b68 <g_902+0x8>
   1917e:	48 c1 e0 0f          	shl    $0xf,%rax
   19182:	48 c1 f8 2f          	sar    $0x2f,%rax
   19186:	48 98                	cltq   
   19188:	8b 55 fc             	mov    -0x4(%rbp),%edx
   1918b:	48 8d 35 cc 49 00 00 	lea    0x49cc(%rip),%rsi        # 1db5e <g_1254+0x1a9a>
   19192:	48 89 c7             	mov    %rax,%rdi
   19195:	e8 59 15 ff ff       	callq  a6f3 <transparent_crc>
   1919a:	48 8b 05 c7 a9 00 00 	mov    0xa9c7(%rip),%rax        # 23b68 <g_902+0x8>
   191a1:	48 c1 e0 04          	shl    $0x4,%rax
   191a5:	48 c1 f8 35          	sar    $0x35,%rax
   191a9:	48 0f bf c0          	movswq %ax,%rax
   191ad:	8b 55 fc             	mov    -0x4(%rbp),%edx
   191b0:	48 8d 35 b0 49 00 00 	lea    0x49b0(%rip),%rsi        # 1db67 <g_1254+0x1aa3>
   191b7:	48 89 c7             	mov    %rax,%rdi
   191ba:	e8 34 15 ff ff       	callq  a6f3 <transparent_crc>
   191bf:	0f b6 05 a9 a9 00 00 	movzbl 0xa9a9(%rip),%eax        # 23b6f <g_902+0xf>
   191c6:	c1 e0 03             	shl    $0x3,%eax
   191c9:	c0 f8 07             	sar    $0x7,%al
   191cc:	48 0f be c0          	movsbq %al,%rax
   191d0:	8b 55 fc             	mov    -0x4(%rbp),%edx
   191d3:	48 8d 35 96 49 00 00 	lea    0x4996(%rip),%rsi        # 1db70 <g_1254+0x1aac>
   191da:	48 89 c7             	mov    %rax,%rdi
   191dd:	e8 11 15 ff ff       	callq  a6f3 <transparent_crc>
   191e2:	c7 45 f0 00 00 00 00 	movl   $0x0,-0x10(%rbp)
   191e9:	e9 c1 01 00 00       	jmpq   193af <main+0x359b>
   191ee:	8b 45 f0             	mov    -0x10(%rbp),%eax
   191f1:	48 63 d0             	movslq %eax,%rdx
   191f4:	48 89 d0             	mov    %rdx,%rax
   191f7:	48 c1 e0 02          	shl    $0x2,%rax
   191fb:	48 01 d0             	add    %rdx,%rax
   191fe:	48 c1 e0 02          	shl    $0x2,%rax
   19202:	48 89 c2             	mov    %rax,%rdx
   19205:	48 8d 05 74 a9 00 00 	lea    0xa974(%rip),%rax        # 23b80 <g_908>
   1920c:	8b 04 02             	mov    (%rdx,%rax,1),%eax
   1920f:	c1 e0 06             	shl    $0x6,%eax
   19212:	c1 f8 06             	sar    $0x6,%eax
   19215:	48 98                	cltq   
   19217:	8b 55 fc             	mov    -0x4(%rbp),%edx
   1921a:	48 8d 35 58 49 00 00 	lea    0x4958(%rip),%rsi        # 1db79 <g_1254+0x1ab5>
   19221:	48 89 c7             	mov    %rax,%rdi
   19224:	e8 ca 14 ff ff       	callq  a6f3 <transparent_crc>
   19229:	8b 45 f0             	mov    -0x10(%rbp),%eax
   1922c:	48 63 d0             	movslq %eax,%rdx
   1922f:	48 89 d0             	mov    %rdx,%rax
   19232:	48 c1 e0 02          	shl    $0x2,%rax
   19236:	48 01 d0             	add    %rdx,%rax
   19239:	48 c1 e0 02          	shl    $0x2,%rax
   1923d:	48 89 c2             	mov    %rax,%rdx
   19240:	48 8d 05 3d a9 00 00 	lea    0xa93d(%rip),%rax        # 23b84 <g_908+0x4>
   19247:	0f b6 04 02          	movzbl (%rdx,%rax,1),%eax
   1924b:	48 0f be c0          	movsbq %al,%rax
   1924f:	8b 55 fc             	mov    -0x4(%rbp),%edx
   19252:	48 8d 35 2c 49 00 00 	lea    0x492c(%rip),%rsi        # 1db85 <g_1254+0x1ac1>
   19259:	48 89 c7             	mov    %rax,%rdi
   1925c:	e8 92 14 ff ff       	callq  a6f3 <transparent_crc>
   19261:	8b 45 f0             	mov    -0x10(%rbp),%eax
   19264:	48 63 d0             	movslq %eax,%rdx
   19267:	48 89 d0             	mov    %rdx,%rax
   1926a:	48 c1 e0 02          	shl    $0x2,%rax
   1926e:	48 01 d0             	add    %rdx,%rax
   19271:	48 c1 e0 02          	shl    $0x2,%rax
   19275:	48 89 c2             	mov    %rax,%rdx
   19278:	48 8d 05 01 a9 00 00 	lea    0xa901(%rip),%rax        # 23b80 <g_908>
   1927f:	8b 44 02 04          	mov    0x4(%rdx,%rax,1),%eax
   19283:	c1 e0 05             	shl    $0x5,%eax
   19286:	c1 f8 0d             	sar    $0xd,%eax
   19289:	48 98                	cltq   
   1928b:	8b 55 fc             	mov    -0x4(%rbp),%edx
   1928e:	48 8d 35 fc 48 00 00 	lea    0x48fc(%rip),%rsi        # 1db91 <g_1254+0x1acd>
   19295:	48 89 c7             	mov    %rax,%rdi
   19298:	e8 56 14 ff ff       	callq  a6f3 <transparent_crc>
   1929d:	8b 45 f0             	mov    -0x10(%rbp),%eax
   192a0:	48 63 d0             	movslq %eax,%rdx
   192a3:	48 89 d0             	mov    %rdx,%rax
   192a6:	48 c1 e0 02          	shl    $0x2,%rax
   192aa:	48 01 d0             	add    %rdx,%rax
   192ad:	48 c1 e0 02          	shl    $0x2,%rax
   192b1:	48 89 c2             	mov    %rax,%rdx
   192b4:	48 8d 05 c5 a8 00 00 	lea    0xa8c5(%rip),%rax        # 23b80 <g_908>
   192bb:	8b 44 02 08          	mov    0x8(%rdx,%rax,1),%eax
   192bf:	c1 e0 06             	shl    $0x6,%eax
   192c2:	c1 f8 06             	sar    $0x6,%eax
   192c5:	48 98                	cltq   
   192c7:	8b 55 fc             	mov    -0x4(%rbp),%edx
   192ca:	48 8d 35 cc 48 00 00 	lea    0x48cc(%rip),%rsi        # 1db9d <g_1254+0x1ad9>
   192d1:	48 89 c7             	mov    %rax,%rdi
   192d4:	e8 1a 14 ff ff       	callq  a6f3 <transparent_crc>
   192d9:	8b 45 f0             	mov    -0x10(%rbp),%eax
   192dc:	48 63 d0             	movslq %eax,%rdx
   192df:	48 89 d0             	mov    %rdx,%rax
   192e2:	48 c1 e0 02          	shl    $0x2,%rax
   192e6:	48 01 d0             	add    %rdx,%rax
   192e9:	48 c1 e0 02          	shl    $0x2,%rax
   192ed:	48 89 c2             	mov    %rax,%rdx
   192f0:	48 8d 05 89 a8 00 00 	lea    0xa889(%rip),%rax        # 23b80 <g_908>
   192f7:	0f b6 44 02 0b       	movzbl 0xb(%rdx,%rax,1),%eax
   192fc:	c1 e0 04             	shl    $0x4,%eax
   192ff:	c0 f8 06             	sar    $0x6,%al
   19302:	48 0f be c0          	movsbq %al,%rax
   19306:	8b 55 fc             	mov    -0x4(%rbp),%edx
   19309:	48 8d 35 99 48 00 00 	lea    0x4899(%rip),%rsi        # 1dba9 <g_1254+0x1ae5>
   19310:	48 89 c7             	mov    %rax,%rdi
   19313:	e8 db 13 ff ff       	callq  a6f3 <transparent_crc>
   19318:	8b 45 f0             	mov    -0x10(%rbp),%eax
   1931b:	48 63 d0             	movslq %eax,%rdx
   1931e:	48 89 d0             	mov    %rdx,%rax
   19321:	48 c1 e0 02          	shl    $0x2,%rax
   19325:	48 01 d0             	add    %rdx,%rax
   19328:	48 c1 e0 02          	shl    $0x2,%rax
   1932c:	48 89 c2             	mov    %rax,%rdx
   1932f:	48 8d 05 4a a8 00 00 	lea    0xa84a(%rip),%rax        # 23b80 <g_908>
   19336:	8b 44 02 0c          	mov    0xc(%rdx,%rax,1),%eax
   1933a:	c1 e0 0c             	shl    $0xc,%eax
   1933d:	c1 f8 0c             	sar    $0xc,%eax
   19340:	48 98                	cltq   
   19342:	8b 55 fc             	mov    -0x4(%rbp),%edx
   19345:	48 8d 35 69 48 00 00 	lea    0x4869(%rip),%rsi        # 1dbb5 <g_1254+0x1af1>
   1934c:	48 89 c7             	mov    %rax,%rdi
   1934f:	e8 9f 13 ff ff       	callq  a6f3 <transparent_crc>
   19354:	8b 45 f0             	mov    -0x10(%rbp),%eax
   19357:	48 63 d0             	movslq %eax,%rdx
   1935a:	48 89 d0             	mov    %rdx,%rax
   1935d:	48 c1 e0 02          	shl    $0x2,%rax
   19361:	48 01 d0             	add    %rdx,%rax
   19364:	48 c1 e0 02          	shl    $0x2,%rax
   19368:	48 89 c2             	mov    %rax,%rdx
   1936b:	48 8d 05 1e a8 00 00 	lea    0xa81e(%rip),%rax        # 23b90 <g_908+0x10>
   19372:	8b 04 02             	mov    (%rdx,%rax,1),%eax
   19375:	c1 e0 0d             	shl    $0xd,%eax
   19378:	c1 f8 0d             	sar    $0xd,%eax
   1937b:	48 98                	cltq   
   1937d:	8b 55 fc             	mov    -0x4(%rbp),%edx
   19380:	48 8d 35 3a 48 00 00 	lea    0x483a(%rip),%rsi        # 1dbc1 <g_1254+0x1afd>
   19387:	48 89 c7             	mov    %rax,%rdi
   1938a:	e8 64 13 ff ff       	callq  a6f3 <transparent_crc>
   1938f:	83 7d fc 00          	cmpl   $0x0,-0x4(%rbp)
   19393:	74 16                	je     193ab <main+0x3597>
   19395:	8b 45 f0             	mov    -0x10(%rbp),%eax
   19398:	89 c6                	mov    %eax,%esi
   1939a:	48 8d 3d 44 3c 00 00 	lea    0x3c44(%rip),%rdi        # 1cfe5 <g_1254+0xf21>
   193a1:	b8 00 00 00 00       	mov    $0x0,%eax
   193a6:	e8 d5 fc fe ff       	callq  9080 <printf@plt>
   193ab:	83 45 f0 01          	addl   $0x1,-0x10(%rbp)
   193af:	83 7d f0 09          	cmpl   $0x9,-0x10(%rbp)
   193b3:	0f 8e 35 fe ff ff    	jle    191ee <main+0x33da>
   193b9:	b8 3c 0f 00 00       	mov    $0xf3c,%eax
   193be:	48 98                	cltq   
   193c0:	8b 55 fc             	mov    -0x4(%rbp),%edx
   193c3:	48 8d 35 03 48 00 00 	lea    0x4803(%rip),%rsi        # 1dbcd <g_1254+0x1b09>
   193ca:	48 89 c7             	mov    %rax,%rdi
   193cd:	e8 21 13 ff ff       	callq  a6f3 <transparent_crc>
   193d2:	0f b6 05 bb 2c 00 00 	movzbl 0x2cbb(%rip),%eax        # 1c094 <g_968+0x4>
   193d9:	48 0f be c0          	movsbq %al,%rax
   193dd:	8b 55 fc             	mov    -0x4(%rbp),%edx
   193e0:	48 8d 35 ef 47 00 00 	lea    0x47ef(%rip),%rsi        # 1dbd6 <g_1254+0x1b12>
   193e7:	48 89 c7             	mov    %rax,%rdi
   193ea:	e8 04 13 ff ff       	callq  a6f3 <transparent_crc>
   193ef:	b8 f9 fe ff ff       	mov    $0xfffffef9,%eax
   193f4:	48 98                	cltq   
   193f6:	8b 55 fc             	mov    -0x4(%rbp),%edx
   193f9:	48 8d 35 df 47 00 00 	lea    0x47df(%rip),%rsi        # 1dbdf <g_1254+0x1b1b>
   19400:	48 89 c7             	mov    %rax,%rdi
   19403:	e8 eb 12 ff ff       	callq  a6f3 <transparent_crc>
   19408:	b8 46 0d 00 00       	mov    $0xd46,%eax
   1940d:	48 98                	cltq   
   1940f:	8b 55 fc             	mov    -0x4(%rbp),%edx
   19412:	48 8d 35 cf 47 00 00 	lea    0x47cf(%rip),%rsi        # 1dbe8 <g_1254+0x1b24>
   19419:	48 89 c7             	mov    %rax,%rdi
   1941c:	e8 d2 12 ff ff       	callq  a6f3 <transparent_crc>
   19421:	b8 01 00 00 00       	mov    $0x1,%eax
   19426:	48 0f be c0          	movsbq %al,%rax
   1942a:	8b 55 fc             	mov    -0x4(%rbp),%edx
   1942d:	48 8d 35 bd 47 00 00 	lea    0x47bd(%rip),%rsi        # 1dbf1 <g_1254+0x1b2d>
   19434:	48 89 c7             	mov    %rax,%rdi
   19437:	e8 b7 12 ff ff       	callq  a6f3 <transparent_crc>
   1943c:	b8 a9 fe ff ff       	mov    $0xfffffea9,%eax
   19441:	48 98                	cltq   
   19443:	8b 55 fc             	mov    -0x4(%rbp),%edx
   19446:	48 8d 35 ad 47 00 00 	lea    0x47ad(%rip),%rsi        # 1dbfa <g_1254+0x1b36>
   1944d:	48 89 c7             	mov    %rax,%rdi
   19450:	e8 9e 12 ff ff       	callq  a6f3 <transparent_crc>
   19455:	b8 41 fe ff ff       	mov    $0xfffffe41,%eax
   1945a:	48 98                	cltq   
   1945c:	8b 55 fc             	mov    -0x4(%rbp),%edx
   1945f:	48 8d 35 9d 47 00 00 	lea    0x479d(%rip),%rsi        # 1dc03 <g_1254+0x1b3f>
   19466:	48 89 c7             	mov    %rax,%rdi
   19469:	e8 85 12 ff ff       	callq  a6f3 <transparent_crc>
   1946e:	c7 45 f0 00 00 00 00 	movl   $0x0,-0x10(%rbp)
   19475:	eb 76                	jmp    194ed <main+0x36d9>
   19477:	c7 45 f4 00 00 00 00 	movl   $0x0,-0xc(%rbp)
   1947e:	eb 63                	jmp    194e3 <main+0x36cf>
   19480:	8b 45 f4             	mov    -0xc(%rbp),%eax
   19483:	48 63 c8             	movslq %eax,%rcx
   19486:	8b 45 f0             	mov    -0x10(%rbp),%eax
   19489:	48 63 d0             	movslq %eax,%rdx
   1948c:	48 89 d0             	mov    %rdx,%rax
   1948f:	48 01 c0             	add    %rax,%rax
   19492:	48 01 d0             	add    %rdx,%rax
   19495:	48 01 c8             	add    %rcx,%rax
   19498:	48 8d 14 85 00 00 00 	lea    0x0(,%rax,4),%rdx
   1949f:	00 
   194a0:	48 8d 05 b9 a7 00 00 	lea    0xa7b9(%rip),%rax        # 23c60 <g_978>
   194a7:	8b 04 02             	mov    (%rdx,%rax,1),%eax
   194aa:	89 c1                	mov    %eax,%ecx
   194ac:	8b 45 fc             	mov    -0x4(%rbp),%eax
   194af:	89 c2                	mov    %eax,%edx
   194b1:	48 8d 35 54 47 00 00 	lea    0x4754(%rip),%rsi        # 1dc0c <g_1254+0x1b48>
   194b8:	48 89 cf             	mov    %rcx,%rdi
   194bb:	e8 33 12 ff ff       	callq  a6f3 <transparent_crc>
   194c0:	83 7d fc 00          	cmpl   $0x0,-0x4(%rbp)
   194c4:	74 19                	je     194df <main+0x36cb>
   194c6:	8b 55 f4             	mov    -0xc(%rbp),%edx
   194c9:	8b 45 f0             	mov    -0x10(%rbp),%eax
   194cc:	89 c6                	mov    %eax,%esi
   194ce:	48 8d 3d 2e 3b 00 00 	lea    0x3b2e(%rip),%rdi        # 1d003 <g_1254+0xf3f>
   194d5:	b8 00 00 00 00       	mov    $0x0,%eax
   194da:	e8 a1 fb fe ff       	callq  9080 <printf@plt>
   194df:	83 45 f4 01          	addl   $0x1,-0xc(%rbp)
   194e3:	83 7d f4 02          	cmpl   $0x2,-0xc(%rbp)
   194e7:	7e 97                	jle    19480 <main+0x366c>
   194e9:	83 45 f0 01          	addl   $0x1,-0x10(%rbp)
   194ed:	83 7d f0 07          	cmpl   $0x7,-0x10(%rbp)
   194f1:	7e 84                	jle    19477 <main+0x3663>
   194f3:	c7 45 f0 00 00 00 00 	movl   $0x0,-0x10(%rbp)
   194fa:	e9 c1 01 00 00       	jmpq   196c0 <main+0x38ac>
   194ff:	8b 45 f0             	mov    -0x10(%rbp),%eax
   19502:	48 63 d0             	movslq %eax,%rdx
   19505:	48 89 d0             	mov    %rdx,%rax
   19508:	48 c1 e0 02          	shl    $0x2,%rax
   1950c:	48 01 d0             	add    %rdx,%rax
   1950f:	48 c1 e0 02          	shl    $0x2,%rax
   19513:	48 89 c2             	mov    %rax,%rdx
   19516:	48 8d 05 a3 a7 00 00 	lea    0xa7a3(%rip),%rax        # 23cc0 <g_990>
   1951d:	8b 04 02             	mov    (%rdx,%rax,1),%eax
   19520:	c1 e0 06             	shl    $0x6,%eax
   19523:	c1 f8 06             	sar    $0x6,%eax
   19526:	48 98                	cltq   
   19528:	8b 55 fc             	mov    -0x4(%rbp),%edx
   1952b:	48 8d 35 e6 46 00 00 	lea    0x46e6(%rip),%rsi        # 1dc18 <g_1254+0x1b54>
   19532:	48 89 c7             	mov    %rax,%rdi
   19535:	e8 b9 11 ff ff       	callq  a6f3 <transparent_crc>
   1953a:	8b 45 f0             	mov    -0x10(%rbp),%eax
   1953d:	48 63 d0             	movslq %eax,%rdx
   19540:	48 89 d0             	mov    %rdx,%rax
   19543:	48 c1 e0 02          	shl    $0x2,%rax
   19547:	48 01 d0             	add    %rdx,%rax
   1954a:	48 c1 e0 02          	shl    $0x2,%rax
   1954e:	48 89 c2             	mov    %rax,%rdx
   19551:	48 8d 05 6c a7 00 00 	lea    0xa76c(%rip),%rax        # 23cc4 <g_990+0x4>
   19558:	0f b6 04 02          	movzbl (%rdx,%rax,1),%eax
   1955c:	48 0f be c0          	movsbq %al,%rax
   19560:	8b 55 fc             	mov    -0x4(%rbp),%edx
   19563:	48 8d 35 ba 46 00 00 	lea    0x46ba(%rip),%rsi        # 1dc24 <g_1254+0x1b60>
   1956a:	48 89 c7             	mov    %rax,%rdi
   1956d:	e8 81 11 ff ff       	callq  a6f3 <transparent_crc>
   19572:	8b 45 f0             	mov    -0x10(%rbp),%eax
   19575:	48 63 d0             	movslq %eax,%rdx
   19578:	48 89 d0             	mov    %rdx,%rax
   1957b:	48 c1 e0 02          	shl    $0x2,%rax
   1957f:	48 01 d0             	add    %rdx,%rax
   19582:	48 c1 e0 02          	shl    $0x2,%rax
   19586:	48 89 c2             	mov    %rax,%rdx
   19589:	48 8d 05 30 a7 00 00 	lea    0xa730(%rip),%rax        # 23cc0 <g_990>
   19590:	8b 44 02 04          	mov    0x4(%rdx,%rax,1),%eax
   19594:	c1 e0 05             	shl    $0x5,%eax
   19597:	c1 f8 0d             	sar    $0xd,%eax
   1959a:	48 98                	cltq   
   1959c:	8b 55 fc             	mov    -0x4(%rbp),%edx
   1959f:	48 8d 35 8a 46 00 00 	lea    0x468a(%rip),%rsi        # 1dc30 <g_1254+0x1b6c>
   195a6:	48 89 c7             	mov    %rax,%rdi
   195a9:	e8 45 11 ff ff       	callq  a6f3 <transparent_crc>
   195ae:	8b 45 f0             	mov    -0x10(%rbp),%eax
   195b1:	48 63 d0             	movslq %eax,%rdx
   195b4:	48 89 d0             	mov    %rdx,%rax
   195b7:	48 c1 e0 02          	shl    $0x2,%rax
   195bb:	48 01 d0             	add    %rdx,%rax
   195be:	48 c1 e0 02          	shl    $0x2,%rax
   195c2:	48 89 c2             	mov    %rax,%rdx
   195c5:	48 8d 05 f4 a6 00 00 	lea    0xa6f4(%rip),%rax        # 23cc0 <g_990>
   195cc:	8b 44 02 08          	mov    0x8(%rdx,%rax,1),%eax
   195d0:	c1 e0 06             	shl    $0x6,%eax
   195d3:	c1 f8 06             	sar    $0x6,%eax
   195d6:	48 98                	cltq   
   195d8:	8b 55 fc             	mov    -0x4(%rbp),%edx
   195db:	48 8d 35 5a 46 00 00 	lea    0x465a(%rip),%rsi        # 1dc3c <g_1254+0x1b78>
   195e2:	48 89 c7             	mov    %rax,%rdi
   195e5:	e8 09 11 ff ff       	callq  a6f3 <transparent_crc>
   195ea:	8b 45 f0             	mov    -0x10(%rbp),%eax
   195ed:	48 63 d0             	movslq %eax,%rdx
   195f0:	48 89 d0             	mov    %rdx,%rax
   195f3:	48 c1 e0 02          	shl    $0x2,%rax
   195f7:	48 01 d0             	add    %rdx,%rax
   195fa:	48 c1 e0 02          	shl    $0x2,%rax
   195fe:	48 89 c2             	mov    %rax,%rdx
   19601:	48 8d 05 b8 a6 00 00 	lea    0xa6b8(%rip),%rax        # 23cc0 <g_990>
   19608:	0f b6 44 02 0b       	movzbl 0xb(%rdx,%rax,1),%eax
   1960d:	c1 e0 04             	shl    $0x4,%eax
   19610:	c0 f8 06             	sar    $0x6,%al
   19613:	48 0f be c0          	movsbq %al,%rax
   19617:	8b 55 fc             	mov    -0x4(%rbp),%edx
   1961a:	48 8d 35 27 46 00 00 	lea    0x4627(%rip),%rsi        # 1dc48 <g_1254+0x1b84>
   19621:	48 89 c7             	mov    %rax,%rdi
   19624:	e8 ca 10 ff ff       	callq  a6f3 <transparent_crc>
   19629:	8b 45 f0             	mov    -0x10(%rbp),%eax
   1962c:	48 63 d0             	movslq %eax,%rdx
   1962f:	48 89 d0             	mov    %rdx,%rax
   19632:	48 c1 e0 02          	shl    $0x2,%rax
   19636:	48 01 d0             	add    %rdx,%rax
   19639:	48 c1 e0 02          	shl    $0x2,%rax
   1963d:	48 89 c2             	mov    %rax,%rdx
   19640:	48 8d 05 79 a6 00 00 	lea    0xa679(%rip),%rax        # 23cc0 <g_990>
   19647:	8b 44 02 0c          	mov    0xc(%rdx,%rax,1),%eax
   1964b:	c1 e0 0c             	shl    $0xc,%eax
   1964e:	c1 f8 0c             	sar    $0xc,%eax
   19651:	48 98                	cltq   
   19653:	8b 55 fc             	mov    -0x4(%rbp),%edx
   19656:	48 8d 35 f7 45 00 00 	lea    0x45f7(%rip),%rsi        # 1dc54 <g_1254+0x1b90>
   1965d:	48 89 c7             	mov    %rax,%rdi
   19660:	e8 8e 10 ff ff       	callq  a6f3 <transparent_crc>
   19665:	8b 45 f0             	mov    -0x10(%rbp),%eax
   19668:	48 63 d0             	movslq %eax,%rdx
   1966b:	48 89 d0             	mov    %rdx,%rax
   1966e:	48 c1 e0 02          	shl    $0x2,%rax
   19672:	48 01 d0             	add    %rdx,%rax
   19675:	48 c1 e0 02          	shl    $0x2,%rax
   19679:	48 89 c2             	mov    %rax,%rdx
   1967c:	48 8d 05 4d a6 00 00 	lea    0xa64d(%rip),%rax        # 23cd0 <g_990+0x10>
   19683:	8b 04 02             	mov    (%rdx,%rax,1),%eax
   19686:	c1 e0 0d             	shl    $0xd,%eax
   19689:	c1 f8 0d             	sar    $0xd,%eax
   1968c:	48 98                	cltq   
   1968e:	8b 55 fc             	mov    -0x4(%rbp),%edx
   19691:	48 8d 35 c8 45 00 00 	lea    0x45c8(%rip),%rsi        # 1dc60 <g_1254+0x1b9c>
   19698:	48 89 c7             	mov    %rax,%rdi
   1969b:	e8 53 10 ff ff       	callq  a6f3 <transparent_crc>
   196a0:	83 7d fc 00          	cmpl   $0x0,-0x4(%rbp)
   196a4:	74 16                	je     196bc <main+0x38a8>
   196a6:	8b 45 f0             	mov    -0x10(%rbp),%eax
   196a9:	89 c6                	mov    %eax,%esi
   196ab:	48 8d 3d 33 39 00 00 	lea    0x3933(%rip),%rdi        # 1cfe5 <g_1254+0xf21>
   196b2:	b8 00 00 00 00       	mov    $0x0,%eax
   196b7:	e8 c4 f9 fe ff       	callq  9080 <printf@plt>
   196bc:	83 45 f0 01          	addl   $0x1,-0x10(%rbp)
   196c0:	83 7d f0 02          	cmpl   $0x2,-0x10(%rbp)
   196c4:	0f 8e 35 fe ff ff    	jle    194ff <main+0x36eb>
   196ca:	8b 05 30 a6 00 00    	mov    0xa630(%rip),%eax        # 23d00 <g_1017>
   196d0:	48 98                	cltq   
   196d2:	8b 55 fc             	mov    -0x4(%rbp),%edx
   196d5:	48 8d 35 90 45 00 00 	lea    0x4590(%rip),%rsi        # 1dc6c <g_1254+0x1ba8>
   196dc:	48 89 c7             	mov    %rax,%rdi
   196df:	e8 0f 10 ff ff       	callq  a6f3 <transparent_crc>
   196e4:	48 8b 05 1d a6 00 00 	mov    0xa61d(%rip),%rax        # 23d08 <g_1017+0x8>
   196eb:	8b 55 fc             	mov    -0x4(%rbp),%edx
   196ee:	48 8d 35 81 45 00 00 	lea    0x4581(%rip),%rsi        # 1dc76 <g_1254+0x1bb2>
   196f5:	48 89 c7             	mov    %rax,%rdi
   196f8:	e8 f6 0f ff ff       	callq  a6f3 <transparent_crc>
   196fd:	48 8b 05 0c a6 00 00 	mov    0xa60c(%rip),%rax        # 23d10 <g_1017+0x10>
   19704:	c1 e0 0a             	shl    $0xa,%eax
   19707:	c1 f8 0a             	sar    $0xa,%eax
   1970a:	48 98                	cltq   
   1970c:	8b 55 fc             	mov    -0x4(%rbp),%edx
   1970f:	48 8d 35 6a 45 00 00 	lea    0x456a(%rip),%rsi        # 1dc80 <g_1254+0x1bbc>
   19716:	48 89 c7             	mov    %rax,%rdi
   19719:	e8 d5 0f ff ff       	callq  a6f3 <transparent_crc>
   1971e:	8b 05 f0 a5 00 00    	mov    0xa5f0(%rip),%eax        # 23d14 <g_1017+0x14>
   19724:	89 c1                	mov    %eax,%ecx
   19726:	8b 45 fc             	mov    -0x4(%rbp),%eax
   19729:	89 c2                	mov    %eax,%edx
   1972b:	48 8d 35 58 45 00 00 	lea    0x4558(%rip),%rsi        # 1dc8a <g_1254+0x1bc6>
   19732:	48 89 cf             	mov    %rcx,%rdi
   19735:	e8 b9 0f ff ff       	callq  a6f3 <transparent_crc>
   1973a:	0f b6 05 d7 a5 00 00 	movzbl 0xa5d7(%rip),%eax        # 23d18 <g_1017+0x18>
   19741:	48 0f be c0          	movsbq %al,%rax
   19745:	8b 55 fc             	mov    -0x4(%rbp),%edx
   19748:	48 8d 35 45 45 00 00 	lea    0x4545(%rip),%rsi        # 1dc94 <g_1254+0x1bd0>
   1974f:	48 89 c7             	mov    %rax,%rdi
   19752:	e8 9c 0f ff ff       	callq  a6f3 <transparent_crc>
   19757:	48 8b 05 c2 a5 00 00 	mov    0xa5c2(%rip),%rax        # 23d20 <g_1017+0x20>
   1975e:	48 89 c1             	mov    %rax,%rcx
   19761:	8b 45 fc             	mov    -0x4(%rbp),%eax
   19764:	89 c2                	mov    %eax,%edx
   19766:	48 8d 35 31 45 00 00 	lea    0x4531(%rip),%rsi        # 1dc9e <g_1254+0x1bda>
   1976d:	48 89 cf             	mov    %rcx,%rdi
   19770:	e8 7e 0f ff ff       	callq  a6f3 <transparent_crc>
   19775:	8b 05 ad a5 00 00    	mov    0xa5ad(%rip),%eax        # 23d28 <g_1050>
   1977b:	48 98                	cltq   
   1977d:	8b 55 fc             	mov    -0x4(%rbp),%edx
   19780:	48 8d 35 21 45 00 00 	lea    0x4521(%rip),%rsi        # 1dca8 <g_1254+0x1be4>
   19787:	48 89 c7             	mov    %rax,%rdi
   1978a:	e8 64 0f ff ff       	callq  a6f3 <transparent_crc>
   1978f:	b8 1c 07 00 00       	mov    $0x71c,%eax
   19794:	48 98                	cltq   
   19796:	8b 55 fc             	mov    -0x4(%rbp),%edx
   19799:	48 8d 35 0f 45 00 00 	lea    0x450f(%rip),%rsi        # 1dcaf <g_1254+0x1beb>
   197a0:	48 89 c7             	mov    %rax,%rdi
   197a3:	e8 4b 0f ff ff       	callq  a6f3 <transparent_crc>
   197a8:	0f b6 05 05 29 00 00 	movzbl 0x2905(%rip),%eax        # 1c0b4 <g_1053+0x4>
   197af:	48 0f be c0          	movsbq %al,%rax
   197b3:	8b 55 fc             	mov    -0x4(%rbp),%edx
   197b6:	48 8d 35 fc 44 00 00 	lea    0x44fc(%rip),%rsi        # 1dcb9 <g_1254+0x1bf5>
   197bd:	48 89 c7             	mov    %rax,%rdi
   197c0:	e8 2e 0f ff ff       	callq  a6f3 <transparent_crc>
   197c5:	b8 b0 fd ff ff       	mov    $0xfffffdb0,%eax
   197ca:	48 98                	cltq   
   197cc:	8b 55 fc             	mov    -0x4(%rbp),%edx
   197cf:	48 8d 35 ed 44 00 00 	lea    0x44ed(%rip),%rsi        # 1dcc3 <g_1254+0x1bff>
   197d6:	48 89 c7             	mov    %rax,%rdi
   197d9:	e8 15 0f ff ff       	callq  a6f3 <transparent_crc>
   197de:	b8 cd e2 ff ff       	mov    $0xffffe2cd,%eax
   197e3:	48 98                	cltq   
   197e5:	8b 55 fc             	mov    -0x4(%rbp),%edx
   197e8:	48 8d 35 de 44 00 00 	lea    0x44de(%rip),%rsi        # 1dccd <g_1254+0x1c09>
   197ef:	48 89 c7             	mov    %rax,%rdi
   197f2:	e8 fc 0e ff ff       	callq  a6f3 <transparent_crc>
   197f7:	b8 00 00 00 00       	mov    $0x0,%eax
   197fc:	48 0f be c0          	movsbq %al,%rax
   19800:	8b 55 fc             	mov    -0x4(%rbp),%edx
   19803:	48 8d 35 cd 44 00 00 	lea    0x44cd(%rip),%rsi        # 1dcd7 <g_1254+0x1c13>
   1980a:	48 89 c7             	mov    %rax,%rdi
   1980d:	e8 e1 0e ff ff       	callq  a6f3 <transparent_crc>
   19812:	b8 4a 03 00 00       	mov    $0x34a,%eax
   19817:	48 98                	cltq   
   19819:	8b 55 fc             	mov    -0x4(%rbp),%edx
   1981c:	48 8d 35 be 44 00 00 	lea    0x44be(%rip),%rsi        # 1dce1 <g_1254+0x1c1d>
   19823:	48 89 c7             	mov    %rax,%rdi
   19826:	e8 c8 0e ff ff       	callq  a6f3 <transparent_crc>
   1982b:	b8 97 01 00 00       	mov    $0x197,%eax
   19830:	48 98                	cltq   
   19832:	8b 55 fc             	mov    -0x4(%rbp),%edx
   19835:	48 8d 35 af 44 00 00 	lea    0x44af(%rip),%rsi        # 1dceb <g_1254+0x1c27>
   1983c:	48 89 c7             	mov    %rax,%rdi
   1983f:	e8 af 0e ff ff       	callq  a6f3 <transparent_crc>
   19844:	8b 05 e2 a4 00 00    	mov    0xa4e2(%rip),%eax        # 23d2c <g_1070>
   1984a:	48 98                	cltq   
   1984c:	8b 55 fc             	mov    -0x4(%rbp),%edx
   1984f:	48 8d 35 9f 44 00 00 	lea    0x449f(%rip),%rsi        # 1dcf5 <g_1254+0x1c31>
   19856:	48 89 c7             	mov    %rax,%rdi
   19859:	e8 95 0e ff ff       	callq  a6f3 <transparent_crc>
   1985e:	48 8b 05 cb a4 00 00 	mov    0xa4cb(%rip),%rax        # 23d30 <g_1118>
   19865:	8b 55 fc             	mov    -0x4(%rbp),%edx
   19868:	48 8d 35 8d 44 00 00 	lea    0x448d(%rip),%rsi        # 1dcfc <g_1254+0x1c38>
   1986f:	48 89 c7             	mov    %rax,%rdi
   19872:	e8 7c 0e ff ff       	callq  a6f3 <transparent_crc>
   19877:	c7 45 f0 00 00 00 00 	movl   $0x0,-0x10(%rbp)
   1987e:	e9 c0 01 00 00       	jmpq   19a43 <main+0x3c2f>
   19883:	8b 45 f0             	mov    -0x10(%rbp),%eax
   19886:	48 63 d0             	movslq %eax,%rdx
   19889:	48 89 d0             	mov    %rdx,%rax
   1988c:	48 c1 e0 02          	shl    $0x2,%rax
   19890:	48 01 d0             	add    %rdx,%rax
   19893:	48 c1 e0 02          	shl    $0x2,%rax
   19897:	48 89 c2             	mov    %rax,%rdx
   1989a:	48 8d 05 9f a4 00 00 	lea    0xa49f(%rip),%rax        # 23d40 <g_1180>
   198a1:	8b 04 02             	mov    (%rdx,%rax,1),%eax
   198a4:	c1 e0 06             	shl    $0x6,%eax
   198a7:	c1 f8 06             	sar    $0x6,%eax
   198aa:	48 98                	cltq   
   198ac:	8b 55 fc             	mov    -0x4(%rbp),%edx
   198af:	48 8d 35 4d 44 00 00 	lea    0x444d(%rip),%rsi        # 1dd03 <g_1254+0x1c3f>
   198b6:	48 89 c7             	mov    %rax,%rdi
   198b9:	e8 35 0e ff ff       	callq  a6f3 <transparent_crc>
   198be:	8b 45 f0             	mov    -0x10(%rbp),%eax
   198c1:	48 63 d0             	movslq %eax,%rdx
   198c4:	48 89 d0             	mov    %rdx,%rax
   198c7:	48 c1 e0 02          	shl    $0x2,%rax
   198cb:	48 01 d0             	add    %rdx,%rax
   198ce:	48 c1 e0 02          	shl    $0x2,%rax
   198d2:	48 89 c2             	mov    %rax,%rdx
   198d5:	48 8d 05 68 a4 00 00 	lea    0xa468(%rip),%rax        # 23d44 <g_1180+0x4>
   198dc:	0f b6 04 02          	movzbl (%rdx,%rax,1),%eax
   198e0:	48 0f be c0          	movsbq %al,%rax
   198e4:	8b 55 fc             	mov    -0x4(%rbp),%edx
   198e7:	48 8d 35 22 44 00 00 	lea    0x4422(%rip),%rsi        # 1dd10 <g_1254+0x1c4c>
   198ee:	48 89 c7             	mov    %rax,%rdi
   198f1:	e8 fd 0d ff ff       	callq  a6f3 <transparent_crc>
   198f6:	8b 45 f0             	mov    -0x10(%rbp),%eax
   198f9:	48 63 d0             	movslq %eax,%rdx
   198fc:	48 89 d0             	mov    %rdx,%rax
   198ff:	48 c1 e0 02          	shl    $0x2,%rax
   19903:	48 01 d0             	add    %rdx,%rax
   19906:	48 c1 e0 02          	shl    $0x2,%rax
   1990a:	48 89 c2             	mov    %rax,%rdx
   1990d:	48 8d 05 2c a4 00 00 	lea    0xa42c(%rip),%rax        # 23d40 <g_1180>
   19914:	8b 44 02 04          	mov    0x4(%rdx,%rax,1),%eax
   19918:	c1 e0 05             	shl    $0x5,%eax
   1991b:	c1 f8 0d             	sar    $0xd,%eax
   1991e:	48 98                	cltq   
   19920:	8b 55 fc             	mov    -0x4(%rbp),%edx
   19923:	48 8d 35 f3 43 00 00 	lea    0x43f3(%rip),%rsi        # 1dd1d <g_1254+0x1c59>
   1992a:	48 89 c7             	mov    %rax,%rdi
   1992d:	e8 c1 0d ff ff       	callq  a6f3 <transparent_crc>
   19932:	8b 45 f0             	mov    -0x10(%rbp),%eax
   19935:	48 63 d0             	movslq %eax,%rdx
   19938:	48 89 d0             	mov    %rdx,%rax
   1993b:	48 c1 e0 02          	shl    $0x2,%rax
   1993f:	48 01 d0             	add    %rdx,%rax
   19942:	48 c1 e0 02          	shl    $0x2,%rax
   19946:	48 89 c2             	mov    %rax,%rdx
   19949:	48 8d 05 f0 a3 00 00 	lea    0xa3f0(%rip),%rax        # 23d40 <g_1180>
   19950:	8b 44 02 08          	mov    0x8(%rdx,%rax,1),%eax
   19954:	c1 e0 06             	shl    $0x6,%eax
   19957:	c1 f8 06             	sar    $0x6,%eax
   1995a:	48 98                	cltq   
   1995c:	8b 55 fc             	mov    -0x4(%rbp),%edx
   1995f:	48 8d 35 c4 43 00 00 	lea    0x43c4(%rip),%rsi        # 1dd2a <g_1254+0x1c66>
   19966:	48 89 c7             	mov    %rax,%rdi
   19969:	e8 85 0d ff ff       	callq  a6f3 <transparent_crc>
   1996e:	8b 45 f0             	mov    -0x10(%rbp),%eax
   19971:	48 63 d0             	movslq %eax,%rdx
   19974:	48 89 d0             	mov    %rdx,%rax
   19977:	48 c1 e0 02          	shl    $0x2,%rax
   1997b:	48 01 d0             	add    %rdx,%rax
   1997e:	48 c1 e0 02          	shl    $0x2,%rax
   19982:	48 89 c2             	mov    %rax,%rdx
   19985:	48 8d 05 b4 a3 00 00 	lea    0xa3b4(%rip),%rax        # 23d40 <g_1180>
   1998c:	8b 44 02 08          	mov    0x8(%rdx,%rax,1),%eax
   19990:	c1 e0 04             	shl    $0x4,%eax
   19993:	c1 f8 1e             	sar    $0x1e,%eax
   19996:	48 0f be c0          	movsbq %al,%rax
   1999a:	8b 55 fc             	mov    -0x4(%rbp),%edx
   1999d:	48 8d 35 93 43 00 00 	lea    0x4393(%rip),%rsi        # 1dd37 <g_1254+0x1c73>
   199a4:	48 89 c7             	mov    %rax,%rdi
   199a7:	e8 47 0d ff ff       	callq  a6f3 <transparent_crc>
   199ac:	8b 45 f0             	mov    -0x10(%rbp),%eax
   199af:	48 63 d0             	movslq %eax,%rdx
   199b2:	48 89 d0             	mov    %rdx,%rax
   199b5:	48 c1 e0 02          	shl    $0x2,%rax
   199b9:	48 01 d0             	add    %rdx,%rax
   199bc:	48 c1 e0 02          	shl    $0x2,%rax
   199c0:	48 89 c2             	mov    %rax,%rdx
   199c3:	48 8d 05 76 a3 00 00 	lea    0xa376(%rip),%rax        # 23d40 <g_1180>
   199ca:	8b 44 02 0c          	mov    0xc(%rdx,%rax,1),%eax
   199ce:	c1 e0 0c             	shl    $0xc,%eax
   199d1:	c1 f8 0c             	sar    $0xc,%eax
   199d4:	48 98                	cltq   
   199d6:	8b 55 fc             	mov    -0x4(%rbp),%edx
   199d9:	48 8d 35 64 43 00 00 	lea    0x4364(%rip),%rsi        # 1dd44 <g_1254+0x1c80>
   199e0:	48 89 c7             	mov    %rax,%rdi
   199e3:	e8 0b 0d ff ff       	callq  a6f3 <transparent_crc>
   199e8:	8b 45 f0             	mov    -0x10(%rbp),%eax
   199eb:	48 63 d0             	movslq %eax,%rdx
   199ee:	48 89 d0             	mov    %rdx,%rax
   199f1:	48 c1 e0 02          	shl    $0x2,%rax
   199f5:	48 01 d0             	add    %rdx,%rax
   199f8:	48 c1 e0 02          	shl    $0x2,%rax
   199fc:	48 89 c2             	mov    %rax,%rdx
   199ff:	48 8d 05 4a a3 00 00 	lea    0xa34a(%rip),%rax        # 23d50 <g_1180+0x10>
   19a06:	8b 04 02             	mov    (%rdx,%rax,1),%eax
   19a09:	c1 e0 0d             	shl    $0xd,%eax
   19a0c:	c1 f8 0d             	sar    $0xd,%eax
   19a0f:	48 98                	cltq   
   19a11:	8b 55 fc             	mov    -0x4(%rbp),%edx
   19a14:	48 8d 35 36 43 00 00 	lea    0x4336(%rip),%rsi        # 1dd51 <g_1254+0x1c8d>
   19a1b:	48 89 c7             	mov    %rax,%rdi
   19a1e:	e8 d0 0c ff ff       	callq  a6f3 <transparent_crc>
   19a23:	83 7d fc 00          	cmpl   $0x0,-0x4(%rbp)
   19a27:	74 16                	je     19a3f <main+0x3c2b>
   19a29:	8b 45 f0             	mov    -0x10(%rbp),%eax
   19a2c:	89 c6                	mov    %eax,%esi
   19a2e:	48 8d 3d b0 35 00 00 	lea    0x35b0(%rip),%rdi        # 1cfe5 <g_1254+0xf21>
   19a35:	b8 00 00 00 00       	mov    $0x0,%eax
   19a3a:	e8 41 f6 fe ff       	callq  9080 <printf@plt>
   19a3f:	83 45 f0 01          	addl   $0x1,-0x10(%rbp)
   19a43:	83 7d f0 03          	cmpl   $0x3,-0x10(%rbp)
   19a47:	0f 8e 36 fe ff ff    	jle    19883 <main+0x3a6f>
   19a4d:	8b 05 3d a3 00 00    	mov    0xa33d(%rip),%eax        # 23d90 <g_1235>
   19a53:	89 c1                	mov    %eax,%ecx
   19a55:	8b 45 fc             	mov    -0x4(%rbp),%eax
   19a58:	89 c2                	mov    %eax,%edx
   19a5a:	48 8d 35 fd 42 00 00 	lea    0x42fd(%rip),%rsi        # 1dd5e <g_1254+0x1c9a>
   19a61:	48 89 cf             	mov    %rcx,%rdi
   19a64:	e8 8a 0c ff ff       	callq  a6f3 <transparent_crc>
   19a69:	8b 05 29 f6 00 00    	mov    0xf629(%rip),%eax        # 29098 <g_1236>
   19a6f:	89 c1                	mov    %eax,%ecx
   19a71:	8b 45 fc             	mov    -0x4(%rbp),%eax
   19a74:	89 c2                	mov    %eax,%edx
   19a76:	48 8d 35 e8 42 00 00 	lea    0x42e8(%rip),%rsi        # 1dd65 <g_1254+0x1ca1>
   19a7d:	48 89 cf             	mov    %rcx,%rdi
   19a80:	e8 6e 0c ff ff       	callq  a6f3 <transparent_crc>
   19a85:	c7 45 f0 00 00 00 00 	movl   $0x0,-0x10(%rbp)
   19a8c:	e9 93 00 00 00       	jmpq   19b24 <main+0x3d10>
   19a91:	c7 45 f4 00 00 00 00 	movl   $0x0,-0xc(%rbp)
   19a98:	eb 7c                	jmp    19b16 <main+0x3d02>
   19a9a:	c7 45 f8 00 00 00 00 	movl   $0x0,-0x8(%rbp)
   19aa1:	eb 69                	jmp    19b0c <main+0x3cf8>
   19aa3:	8b 45 f8             	mov    -0x8(%rbp),%eax
   19aa6:	48 63 d0             	movslq %eax,%rdx
   19aa9:	8b 45 f4             	mov    -0xc(%rbp),%eax
   19aac:	48 98                	cltq   
   19aae:	8b 4d f0             	mov    -0x10(%rbp),%ecx
   19ab1:	48 63 c9             	movslq %ecx,%rcx
   19ab4:	48 c1 e1 02          	shl    $0x2,%rcx
   19ab8:	48 01 ca             	add    %rcx,%rdx
   19abb:	48 01 d0             	add    %rdx,%rax
   19abe:	48 8d 14 85 00 00 00 	lea    0x0(,%rax,4),%rdx
   19ac5:	00 
   19ac6:	48 8d 05 d3 a2 00 00 	lea    0xa2d3(%rip),%rax        # 23da0 <g_1237>
   19acd:	8b 04 02             	mov    (%rdx,%rax,1),%eax
   19ad0:	89 c1                	mov    %eax,%ecx
   19ad2:	8b 45 fc             	mov    -0x4(%rbp),%eax
   19ad5:	89 c2                	mov    %eax,%edx
   19ad7:	48 8d 35 8e 42 00 00 	lea    0x428e(%rip),%rsi        # 1dd6c <g_1254+0x1ca8>
   19ade:	48 89 cf             	mov    %rcx,%rdi
   19ae1:	e8 0d 0c ff ff       	callq  a6f3 <transparent_crc>
   19ae6:	83 7d fc 00          	cmpl   $0x0,-0x4(%rbp)
   19aea:	74 1c                	je     19b08 <main+0x3cf4>
   19aec:	8b 4d f8             	mov    -0x8(%rbp),%ecx
   19aef:	8b 55 f4             	mov    -0xc(%rbp),%edx
   19af2:	8b 45 f0             	mov    -0x10(%rbp),%eax
   19af5:	89 c6                	mov    %eax,%esi
   19af7:	48 8d 3d fd 35 00 00 	lea    0x35fd(%rip),%rdi        # 1d0fb <g_1254+0x1037>
   19afe:	b8 00 00 00 00       	mov    $0x0,%eax
   19b03:	e8 78 f5 fe ff       	callq  9080 <printf@plt>
   19b08:	83 45 f8 01          	addl   $0x1,-0x8(%rbp)
   19b0c:	83 7d f8 00          	cmpl   $0x0,-0x8(%rbp)
   19b10:	7e 91                	jle    19aa3 <main+0x3c8f>
   19b12:	83 45 f4 01          	addl   $0x1,-0xc(%rbp)
   19b16:	83 7d f4 03          	cmpl   $0x3,-0xc(%rbp)
   19b1a:	0f 8e 7a ff ff ff    	jle    19a9a <main+0x3c86>
   19b20:	83 45 f0 01          	addl   $0x1,-0x10(%rbp)
   19b24:	83 7d f0 04          	cmpl   $0x4,-0x10(%rbp)
   19b28:	0f 8e 63 ff ff ff    	jle    19a91 <main+0x3c7d>
   19b2e:	8b 05 bc a2 00 00    	mov    0xa2bc(%rip),%eax        # 23df0 <g_1238>
   19b34:	89 c1                	mov    %eax,%ecx
   19b36:	8b 45 fc             	mov    -0x4(%rbp),%eax
   19b39:	89 c2                	mov    %eax,%edx
   19b3b:	48 8d 35 3a 42 00 00 	lea    0x423a(%rip),%rsi        # 1dd7c <g_1254+0x1cb8>
   19b42:	48 89 cf             	mov    %rcx,%rdi
   19b45:	e8 a9 0b ff ff       	callq  a6f3 <transparent_crc>
   19b4a:	8b 05 a4 a2 00 00    	mov    0xa2a4(%rip),%eax        # 23df4 <g_1239>
   19b50:	89 c1                	mov    %eax,%ecx
   19b52:	8b 45 fc             	mov    -0x4(%rbp),%eax
   19b55:	89 c2                	mov    %eax,%edx
   19b57:	48 8d 35 25 42 00 00 	lea    0x4225(%rip),%rsi        # 1dd83 <g_1254+0x1cbf>
   19b5e:	48 89 cf             	mov    %rcx,%rdi
   19b61:	e8 8d 0b ff ff       	callq  a6f3 <transparent_crc>
   19b66:	c7 45 f0 00 00 00 00 	movl   $0x0,-0x10(%rbp)
   19b6d:	e9 b7 00 00 00       	jmpq   19c29 <main+0x3e15>
   19b72:	c7 45 f4 00 00 00 00 	movl   $0x0,-0xc(%rbp)
   19b79:	e9 9d 00 00 00       	jmpq   19c1b <main+0x3e07>
   19b7e:	c7 45 f8 00 00 00 00 	movl   $0x0,-0x8(%rbp)
   19b85:	e9 83 00 00 00       	jmpq   19c0d <main+0x3df9>
   19b8a:	8b 45 f8             	mov    -0x8(%rbp),%eax
   19b8d:	48 63 f0             	movslq %eax,%rsi
   19b90:	8b 45 f0             	mov    -0x10(%rbp),%eax
   19b93:	48 63 d0             	movslq %eax,%rdx
   19b96:	8b 45 f4             	mov    -0xc(%rbp),%eax
   19b99:	48 63 c8             	movslq %eax,%rcx
   19b9c:	48 89 d0             	mov    %rdx,%rax
   19b9f:	48 01 c0             	add    %rax,%rax
   19ba2:	48 01 d0             	add    %rdx,%rax
   19ba5:	48 8d 14 c5 00 00 00 	lea    0x0(,%rax,8),%rdx
   19bac:	00 
   19bad:	48 01 d0             	add    %rdx,%rax
   19bb0:	48 89 ca             	mov    %rcx,%rdx
   19bb3:	48 01 d2             	add    %rdx,%rdx
   19bb6:	48 01 ca             	add    %rcx,%rdx
   19bb9:	48 01 d0             	add    %rdx,%rax
   19bbc:	48 01 f0             	add    %rsi,%rax
   19bbf:	48 8d 14 85 00 00 00 	lea    0x0(,%rax,4),%rdx
   19bc6:	00 
   19bc7:	48 8d 05 32 a2 00 00 	lea    0xa232(%rip),%rax        # 23e00 <g_1240>
   19bce:	8b 04 02             	mov    (%rdx,%rax,1),%eax
   19bd1:	89 c1                	mov    %eax,%ecx
   19bd3:	8b 45 fc             	mov    -0x4(%rbp),%eax
   19bd6:	89 c2                	mov    %eax,%edx
   19bd8:	48 8d 35 ab 41 00 00 	lea    0x41ab(%rip),%rsi        # 1dd8a <g_1254+0x1cc6>
   19bdf:	48 89 cf             	mov    %rcx,%rdi
   19be2:	e8 0c 0b ff ff       	callq  a6f3 <transparent_crc>
   19be7:	83 7d fc 00          	cmpl   $0x0,-0x4(%rbp)
   19beb:	74 1c                	je     19c09 <main+0x3df5>
   19bed:	8b 4d f8             	mov    -0x8(%rbp),%ecx
   19bf0:	8b 55 f4             	mov    -0xc(%rbp),%edx
   19bf3:	8b 45 f0             	mov    -0x10(%rbp),%eax
   19bf6:	89 c6                	mov    %eax,%esi
   19bf8:	48 8d 3d fc 34 00 00 	lea    0x34fc(%rip),%rdi        # 1d0fb <g_1254+0x1037>
   19bff:	b8 00 00 00 00       	mov    $0x0,%eax
   19c04:	e8 77 f4 fe ff       	callq  9080 <printf@plt>
   19c09:	83 45 f8 01          	addl   $0x1,-0x8(%rbp)
   19c0d:	83 7d f8 02          	cmpl   $0x2,-0x8(%rbp)
   19c11:	0f 8e 73 ff ff ff    	jle    19b8a <main+0x3d76>
   19c17:	83 45 f4 01          	addl   $0x1,-0xc(%rbp)
   19c1b:	83 7d f4 08          	cmpl   $0x8,-0xc(%rbp)
   19c1f:	0f 8e 59 ff ff ff    	jle    19b7e <main+0x3d6a>
   19c25:	83 45 f0 01          	addl   $0x1,-0x10(%rbp)
   19c29:	83 7d f0 07          	cmpl   $0x7,-0x10(%rbp)
   19c2d:	0f 8e 3f ff ff ff    	jle    19b72 <main+0x3d5e>
   19c33:	8b 05 27 a5 00 00    	mov    0xa527(%rip),%eax        # 24160 <g_1241>
   19c39:	89 c1                	mov    %eax,%ecx
   19c3b:	8b 45 fc             	mov    -0x4(%rbp),%eax
   19c3e:	89 c2                	mov    %eax,%edx
   19c40:	48 8d 35 53 41 00 00 	lea    0x4153(%rip),%rsi        # 1dd9a <g_1254+0x1cd6>
   19c47:	48 89 cf             	mov    %rcx,%rdi
   19c4a:	e8 a4 0a ff ff       	callq  a6f3 <transparent_crc>
   19c4f:	8b 05 0f a5 00 00    	mov    0xa50f(%rip),%eax        # 24164 <g_1242>
   19c55:	89 c1                	mov    %eax,%ecx
   19c57:	8b 45 fc             	mov    -0x4(%rbp),%eax
   19c5a:	89 c2                	mov    %eax,%edx
   19c5c:	48 8d 35 3e 41 00 00 	lea    0x413e(%rip),%rsi        # 1dda1 <g_1254+0x1cdd>
   19c63:	48 89 cf             	mov    %rcx,%rdi
   19c66:	e8 88 0a ff ff       	callq  a6f3 <transparent_crc>
   19c6b:	c7 45 f0 00 00 00 00 	movl   $0x0,-0x10(%rbp)
   19c72:	e9 b7 00 00 00       	jmpq   19d2e <main+0x3f1a>
   19c77:	c7 45 f4 00 00 00 00 	movl   $0x0,-0xc(%rbp)
   19c7e:	e9 9d 00 00 00       	jmpq   19d20 <main+0x3f0c>
   19c83:	c7 45 f8 00 00 00 00 	movl   $0x0,-0x8(%rbp)
   19c8a:	e9 83 00 00 00       	jmpq   19d12 <main+0x3efe>
   19c8f:	8b 45 f8             	mov    -0x8(%rbp),%eax
   19c92:	48 63 f0             	movslq %eax,%rsi
   19c95:	8b 45 f0             	mov    -0x10(%rbp),%eax
   19c98:	48 63 d0             	movslq %eax,%rdx
   19c9b:	8b 45 f4             	mov    -0xc(%rbp),%eax
   19c9e:	48 63 c8             	movslq %eax,%rcx
   19ca1:	48 89 d0             	mov    %rdx,%rax
   19ca4:	48 01 c0             	add    %rax,%rax
   19ca7:	48 01 d0             	add    %rdx,%rax
   19caa:	48 89 c2             	mov    %rax,%rdx
   19cad:	48 c1 e2 04          	shl    $0x4,%rdx
   19cb1:	48 29 c2             	sub    %rax,%rdx
   19cb4:	48 89 c8             	mov    %rcx,%rax
   19cb7:	48 c1 e0 02          	shl    $0x2,%rax
   19cbb:	48 01 c8             	add    %rcx,%rax
   19cbe:	48 01 d0             	add    %rdx,%rax
   19cc1:	48 01 f0             	add    %rsi,%rax
   19cc4:	48 8d 14 85 00 00 00 	lea    0x0(,%rax,4),%rdx
   19ccb:	00 
   19ccc:	48 8d 05 ad a4 00 00 	lea    0xa4ad(%rip),%rax        # 24180 <g_1243>
   19cd3:	8b 04 02             	mov    (%rdx,%rax,1),%eax
   19cd6:	89 c1                	mov    %eax,%ecx
   19cd8:	8b 45 fc             	mov    -0x4(%rbp),%eax
   19cdb:	89 c2                	mov    %eax,%edx
   19cdd:	48 8d 35 c4 40 00 00 	lea    0x40c4(%rip),%rsi        # 1dda8 <g_1254+0x1ce4>
   19ce4:	48 89 cf             	mov    %rcx,%rdi
   19ce7:	e8 07 0a ff ff       	callq  a6f3 <transparent_crc>
   19cec:	83 7d fc 00          	cmpl   $0x0,-0x4(%rbp)
   19cf0:	74 1c                	je     19d0e <main+0x3efa>
   19cf2:	8b 4d f8             	mov    -0x8(%rbp),%ecx
   19cf5:	8b 55 f4             	mov    -0xc(%rbp),%edx
   19cf8:	8b 45 f0             	mov    -0x10(%rbp),%eax
   19cfb:	89 c6                	mov    %eax,%esi
   19cfd:	48 8d 3d f7 33 00 00 	lea    0x33f7(%rip),%rdi        # 1d0fb <g_1254+0x1037>
   19d04:	b8 00 00 00 00       	mov    $0x0,%eax
   19d09:	e8 72 f3 fe ff       	callq  9080 <printf@plt>
   19d0e:	83 45 f8 01          	addl   $0x1,-0x8(%rbp)
   19d12:	83 7d f8 04          	cmpl   $0x4,-0x8(%rbp)
   19d16:	0f 8e 73 ff ff ff    	jle    19c8f <main+0x3e7b>
   19d1c:	83 45 f4 01          	addl   $0x1,-0xc(%rbp)
   19d20:	83 7d f4 08          	cmpl   $0x8,-0xc(%rbp)
   19d24:	0f 8e 59 ff ff ff    	jle    19c83 <main+0x3e6f>
   19d2a:	83 45 f0 01          	addl   $0x1,-0x10(%rbp)
   19d2e:	83 7d f0 04          	cmpl   $0x4,-0x10(%rbp)
   19d32:	0f 8e 3f ff ff ff    	jle    19c77 <main+0x3e63>
   19d38:	c7 45 f0 00 00 00 00 	movl   $0x0,-0x10(%rbp)
   19d3f:	eb 76                	jmp    19db7 <main+0x3fa3>
   19d41:	c7 45 f4 00 00 00 00 	movl   $0x0,-0xc(%rbp)
   19d48:	eb 63                	jmp    19dad <main+0x3f99>
   19d4a:	8b 45 f4             	mov    -0xc(%rbp),%eax
   19d4d:	48 63 c8             	movslq %eax,%rcx
   19d50:	8b 45 f0             	mov    -0x10(%rbp),%eax
   19d53:	48 63 d0             	movslq %eax,%rdx
   19d56:	48 89 d0             	mov    %rdx,%rax
   19d59:	48 01 c0             	add    %rax,%rax
   19d5c:	48 01 d0             	add    %rdx,%rax
   19d5f:	48 01 c8             	add    %rcx,%rax
   19d62:	48 8d 14 85 00 00 00 	lea    0x0(,%rax,4),%rdx
   19d69:	00 
   19d6a:	48 8d 05 af a7 00 00 	lea    0xa7af(%rip),%rax        # 24520 <g_1244>
   19d71:	8b 04 02             	mov    (%rdx,%rax,1),%eax
   19d74:	89 c1                	mov    %eax,%ecx
   19d76:	8b 45 fc             	mov    -0x4(%rbp),%eax
   19d79:	89 c2                	mov    %eax,%edx
   19d7b:	48 8d 35 36 40 00 00 	lea    0x4036(%rip),%rsi        # 1ddb8 <g_1254+0x1cf4>
   19d82:	48 89 cf             	mov    %rcx,%rdi
   19d85:	e8 69 09 ff ff       	callq  a6f3 <transparent_crc>
   19d8a:	83 7d fc 00          	cmpl   $0x0,-0x4(%rbp)
   19d8e:	74 19                	je     19da9 <main+0x3f95>
   19d90:	8b 55 f4             	mov    -0xc(%rbp),%edx
   19d93:	8b 45 f0             	mov    -0x10(%rbp),%eax
   19d96:	89 c6                	mov    %eax,%esi
   19d98:	48 8d 3d 64 32 00 00 	lea    0x3264(%rip),%rdi        # 1d003 <g_1254+0xf3f>
   19d9f:	b8 00 00 00 00       	mov    $0x0,%eax
   19da4:	e8 d7 f2 fe ff       	callq  9080 <printf@plt>
   19da9:	83 45 f4 01          	addl   $0x1,-0xc(%rbp)
   19dad:	83 7d f4 02          	cmpl   $0x2,-0xc(%rbp)
   19db1:	7e 97                	jle    19d4a <main+0x3f36>
   19db3:	83 45 f0 01          	addl   $0x1,-0x10(%rbp)
   19db7:	83 7d f0 02          	cmpl   $0x2,-0x10(%rbp)
   19dbb:	7e 84                	jle    19d41 <main+0x3f2d>
   19dbd:	8b 05 81 a7 00 00    	mov    0xa781(%rip),%eax        # 24544 <g_1245>
   19dc3:	89 c1                	mov    %eax,%ecx
   19dc5:	8b 45 fc             	mov    -0x4(%rbp),%eax
   19dc8:	89 c2                	mov    %eax,%edx
   19dca:	48 8d 35 f4 3f 00 00 	lea    0x3ff4(%rip),%rsi        # 1ddc5 <g_1254+0x1d01>
   19dd1:	48 89 cf             	mov    %rcx,%rdi
   19dd4:	e8 1a 09 ff ff       	callq  a6f3 <transparent_crc>
   19dd9:	b8 c9 d5 de 72       	mov    $0x72ded5c9,%eax
   19dde:	48 98                	cltq   
   19de0:	8b 55 fc             	mov    -0x4(%rbp),%edx
   19de3:	48 8d 35 e2 3f 00 00 	lea    0x3fe2(%rip),%rsi        # 1ddcc <g_1254+0x1d08>
   19dea:	48 89 c7             	mov    %rax,%rdi
   19ded:	e8 01 09 ff ff       	callq  a6f3 <transparent_crc>
   19df2:	8b 05 58 a7 00 00    	mov    0xa758(%rip),%eax        # 24550 <g_1295>
   19df8:	c1 e0 06             	shl    $0x6,%eax
   19dfb:	c1 f8 06             	sar    $0x6,%eax
   19dfe:	48 98                	cltq   
   19e00:	8b 55 fc             	mov    -0x4(%rbp),%edx
   19e03:	48 8d 35 c9 3f 00 00 	lea    0x3fc9(%rip),%rsi        # 1ddd3 <g_1254+0x1d0f>
   19e0a:	48 89 c7             	mov    %rax,%rdi
   19e0d:	e8 e1 08 ff ff       	callq  a6f3 <transparent_crc>
   19e12:	0f b6 05 3b a7 00 00 	movzbl 0xa73b(%rip),%eax        # 24554 <g_1295+0x4>
   19e19:	48 0f be c0          	movsbq %al,%rax
   19e1d:	8b 55 fc             	mov    -0x4(%rbp),%edx
   19e20:	48 8d 35 b6 3f 00 00 	lea    0x3fb6(%rip),%rsi        # 1dddd <g_1254+0x1d19>
   19e27:	48 89 c7             	mov    %rax,%rdi
   19e2a:	e8 c4 08 ff ff       	callq  a6f3 <transparent_crc>
   19e2f:	8b 05 1f a7 00 00    	mov    0xa71f(%rip),%eax        # 24554 <g_1295+0x4>
   19e35:	c1 e0 05             	shl    $0x5,%eax
   19e38:	c1 f8 0d             	sar    $0xd,%eax
   19e3b:	48 98                	cltq   
   19e3d:	8b 55 fc             	mov    -0x4(%rbp),%edx
   19e40:	48 8d 35 a0 3f 00 00 	lea    0x3fa0(%rip),%rsi        # 1dde7 <g_1254+0x1d23>
   19e47:	48 89 c7             	mov    %rax,%rdi
   19e4a:	e8 a4 08 ff ff       	callq  a6f3 <transparent_crc>
   19e4f:	8b 05 03 a7 00 00    	mov    0xa703(%rip),%eax        # 24558 <g_1295+0x8>
   19e55:	c1 e0 06             	shl    $0x6,%eax
   19e58:	c1 f8 06             	sar    $0x6,%eax
   19e5b:	48 98                	cltq   
   19e5d:	8b 55 fc             	mov    -0x4(%rbp),%edx
   19e60:	48 8d 35 8a 3f 00 00 	lea    0x3f8a(%rip),%rsi        # 1ddf1 <g_1254+0x1d2d>
   19e67:	48 89 c7             	mov    %rax,%rdi
   19e6a:	e8 84 08 ff ff       	callq  a6f3 <transparent_crc>
   19e6f:	0f b6 05 e5 a6 00 00 	movzbl 0xa6e5(%rip),%eax        # 2455b <g_1295+0xb>
   19e76:	c1 e0 04             	shl    $0x4,%eax
   19e79:	c0 f8 06             	sar    $0x6,%al
   19e7c:	48 0f be c0          	movsbq %al,%rax
   19e80:	8b 55 fc             	mov    -0x4(%rbp),%edx
   19e83:	48 8d 35 71 3f 00 00 	lea    0x3f71(%rip),%rsi        # 1ddfb <g_1254+0x1d37>
   19e8a:	48 89 c7             	mov    %rax,%rdi
   19e8d:	e8 61 08 ff ff       	callq  a6f3 <transparent_crc>
   19e92:	8b 05 c4 a6 00 00    	mov    0xa6c4(%rip),%eax        # 2455c <g_1295+0xc>
   19e98:	c1 e0 0c             	shl    $0xc,%eax
   19e9b:	c1 f8 0c             	sar    $0xc,%eax
   19e9e:	48 98                	cltq   
   19ea0:	8b 55 fc             	mov    -0x4(%rbp),%edx
   19ea3:	48 8d 35 5b 3f 00 00 	lea    0x3f5b(%rip),%rsi        # 1de05 <g_1254+0x1d41>
   19eaa:	48 89 c7             	mov    %rax,%rdi
   19ead:	e8 41 08 ff ff       	callq  a6f3 <transparent_crc>
   19eb2:	8b 05 a8 a6 00 00    	mov    0xa6a8(%rip),%eax        # 24560 <g_1295+0x10>
   19eb8:	c1 e0 0d             	shl    $0xd,%eax
   19ebb:	c1 f8 0d             	sar    $0xd,%eax
   19ebe:	48 98                	cltq   
   19ec0:	8b 55 fc             	mov    -0x4(%rbp),%edx
   19ec3:	48 8d 35 45 3f 00 00 	lea    0x3f45(%rip),%rsi        # 1de0f <g_1254+0x1d4b>
   19eca:	48 89 c7             	mov    %rax,%rdi
   19ecd:	e8 21 08 ff ff       	callq  a6f3 <transparent_crc>
   19ed2:	c7 45 f0 00 00 00 00 	movl   $0x0,-0x10(%rbp)
   19ed9:	e9 e1 01 00 00       	jmpq   1a0bf <main+0x42ab>
   19ede:	c7 45 f4 00 00 00 00 	movl   $0x0,-0xc(%rbp)
   19ee5:	e9 c7 01 00 00       	jmpq   1a0b1 <main+0x429d>
   19eea:	8b 45 f4             	mov    -0xc(%rbp),%eax
   19eed:	48 63 c8             	movslq %eax,%rcx
   19ef0:	8b 45 f0             	mov    -0x10(%rbp),%eax
   19ef3:	48 63 d0             	movslq %eax,%rdx
   19ef6:	48 89 d0             	mov    %rdx,%rax
   19ef9:	48 c1 e0 03          	shl    $0x3,%rax
   19efd:	48 01 d0             	add    %rdx,%rax
   19f00:	48 01 c8             	add    %rcx,%rax
   19f03:	48 c1 e0 04          	shl    $0x4,%rax
   19f07:	48 89 c2             	mov    %rax,%rdx
   19f0a:	48 8d 05 6f a6 00 00 	lea    0xa66f(%rip),%rax        # 24580 <g_1330>
   19f11:	8b 04 02             	mov    (%rdx,%rax,1),%eax
   19f14:	c1 e0 04             	shl    $0x4,%eax
   19f17:	c1 f8 04             	sar    $0x4,%eax
   19f1a:	48 98                	cltq   
   19f1c:	8b 55 fc             	mov    -0x4(%rbp),%edx
   19f1f:	48 8d 35 f3 3e 00 00 	lea    0x3ef3(%rip),%rsi        # 1de19 <g_1254+0x1d55>
   19f26:	48 89 c7             	mov    %rax,%rdi
   19f29:	e8 c5 07 ff ff       	callq  a6f3 <transparent_crc>
   19f2e:	8b 45 f4             	mov    -0xc(%rbp),%eax
   19f31:	48 63 c8             	movslq %eax,%rcx
   19f34:	8b 45 f0             	mov    -0x10(%rbp),%eax
   19f37:	48 63 d0             	movslq %eax,%rdx
   19f3a:	48 89 d0             	mov    %rdx,%rax
   19f3d:	48 c1 e0 03          	shl    $0x3,%rax
   19f41:	48 01 d0             	add    %rdx,%rax
   19f44:	48 01 c8             	add    %rcx,%rax
   19f47:	48 c1 e0 04          	shl    $0x4,%rax
   19f4b:	48 89 c2             	mov    %rax,%rdx
   19f4e:	48 8d 05 2f a6 00 00 	lea    0xa62f(%rip),%rax        # 24584 <g_1330+0x4>
   19f55:	0f b7 04 02          	movzwl (%rdx,%rax,1),%eax
   19f59:	48 0f bf c0          	movswq %ax,%rax
   19f5d:	8b 55 fc             	mov    -0x4(%rbp),%edx
   19f60:	48 8d 35 c2 3e 00 00 	lea    0x3ec2(%rip),%rsi        # 1de29 <g_1254+0x1d65>
   19f67:	48 89 c7             	mov    %rax,%rdi
   19f6a:	e8 84 07 ff ff       	callq  a6f3 <transparent_crc>
   19f6f:	8b 45 f4             	mov    -0xc(%rbp),%eax
   19f72:	48 63 c8             	movslq %eax,%rcx
   19f75:	8b 45 f0             	mov    -0x10(%rbp),%eax
   19f78:	48 63 d0             	movslq %eax,%rdx
   19f7b:	48 89 d0             	mov    %rdx,%rax
   19f7e:	48 c1 e0 03          	shl    $0x3,%rax
   19f82:	48 01 d0             	add    %rdx,%rax
   19f85:	48 01 c8             	add    %rcx,%rax
   19f88:	48 c1 e0 04          	shl    $0x4,%rax
   19f8c:	48 89 c2             	mov    %rax,%rdx
   19f8f:	48 8d 05 ea a5 00 00 	lea    0xa5ea(%rip),%rax        # 24580 <g_1330>
   19f96:	8b 44 02 08          	mov    0x8(%rdx,%rax,1),%eax
   19f9a:	c1 e0 03             	shl    $0x3,%eax
   19f9d:	c1 f8 03             	sar    $0x3,%eax
   19fa0:	48 98                	cltq   
   19fa2:	8b 55 fc             	mov    -0x4(%rbp),%edx
   19fa5:	48 8d 35 8d 3e 00 00 	lea    0x3e8d(%rip),%rsi        # 1de39 <g_1254+0x1d75>
   19fac:	48 89 c7             	mov    %rax,%rdi
   19faf:	e8 3f 07 ff ff       	callq  a6f3 <transparent_crc>
   19fb4:	8b 45 f4             	mov    -0xc(%rbp),%eax
   19fb7:	48 63 c8             	movslq %eax,%rcx
   19fba:	8b 45 f0             	mov    -0x10(%rbp),%eax
   19fbd:	48 63 d0             	movslq %eax,%rdx
   19fc0:	48 89 d0             	mov    %rdx,%rax
   19fc3:	48 c1 e0 03          	shl    $0x3,%rax
   19fc7:	48 01 d0             	add    %rdx,%rax
   19fca:	48 01 c8             	add    %rcx,%rax
   19fcd:	48 c1 e0 04          	shl    $0x4,%rax
   19fd1:	48 89 c2             	mov    %rax,%rdx
   19fd4:	48 8d 05 a5 a5 00 00 	lea    0xa5a5(%rip),%rax        # 24580 <g_1330>
   19fdb:	48 8b 44 02 08       	mov    0x8(%rdx,%rax,1),%rax
   19fe0:	48 c1 e0 0f          	shl    $0xf,%rax
   19fe4:	48 c1 f8 2f          	sar    $0x2f,%rax
   19fe8:	48 98                	cltq   
   19fea:	8b 55 fc             	mov    -0x4(%rbp),%edx
   19fed:	48 8d 35 55 3e 00 00 	lea    0x3e55(%rip),%rsi        # 1de49 <g_1254+0x1d85>
   19ff4:	48 89 c7             	mov    %rax,%rdi
   19ff7:	e8 f7 06 ff ff       	callq  a6f3 <transparent_crc>
   19ffc:	8b 45 f4             	mov    -0xc(%rbp),%eax
   19fff:	48 63 c8             	movslq %eax,%rcx
   1a002:	8b 45 f0             	mov    -0x10(%rbp),%eax
   1a005:	48 63 d0             	movslq %eax,%rdx
   1a008:	48 89 d0             	mov    %rdx,%rax
   1a00b:	48 c1 e0 03          	shl    $0x3,%rax
   1a00f:	48 01 d0             	add    %rdx,%rax
   1a012:	48 01 c8             	add    %rcx,%rax
   1a015:	48 c1 e0 04          	shl    $0x4,%rax
   1a019:	48 89 c2             	mov    %rax,%rdx
   1a01c:	48 8d 05 5d a5 00 00 	lea    0xa55d(%rip),%rax        # 24580 <g_1330>
   1a023:	48 8b 44 02 08       	mov    0x8(%rdx,%rax,1),%rax
   1a028:	48 c1 e0 04          	shl    $0x4,%rax
   1a02c:	48 c1 f8 35          	sar    $0x35,%rax
   1a030:	48 0f bf c0          	movswq %ax,%rax
   1a034:	8b 55 fc             	mov    -0x4(%rbp),%edx
   1a037:	48 8d 35 1b 3e 00 00 	lea    0x3e1b(%rip),%rsi        # 1de59 <g_1254+0x1d95>
   1a03e:	48 89 c7             	mov    %rax,%rdi
   1a041:	e8 ad 06 ff ff       	callq  a6f3 <transparent_crc>
   1a046:	8b 45 f4             	mov    -0xc(%rbp),%eax
   1a049:	48 63 c8             	movslq %eax,%rcx
   1a04c:	8b 45 f0             	mov    -0x10(%rbp),%eax
   1a04f:	48 63 d0             	movslq %eax,%rdx
   1a052:	48 89 d0             	mov    %rdx,%rax
   1a055:	48 c1 e0 03          	shl    $0x3,%rax
   1a059:	48 01 d0             	add    %rdx,%rax
   1a05c:	48 01 c8             	add    %rcx,%rax
   1a05f:	48 c1 e0 04          	shl    $0x4,%rax
   1a063:	48 89 c2             	mov    %rax,%rdx
   1a066:	48 8d 05 13 a5 00 00 	lea    0xa513(%rip),%rax        # 24580 <g_1330>
   1a06d:	0f b6 44 02 0f       	movzbl 0xf(%rdx,%rax,1),%eax
   1a072:	c1 e0 03             	shl    $0x3,%eax
   1a075:	c0 f8 07             	sar    $0x7,%al
   1a078:	48 0f be c0          	movsbq %al,%rax
   1a07c:	8b 55 fc             	mov    -0x4(%rbp),%edx
   1a07f:	48 8d 35 e3 3d 00 00 	lea    0x3de3(%rip),%rsi        # 1de69 <g_1254+0x1da5>
   1a086:	48 89 c7             	mov    %rax,%rdi
   1a089:	e8 65 06 ff ff       	callq  a6f3 <transparent_crc>
   1a08e:	83 7d fc 00          	cmpl   $0x0,-0x4(%rbp)
   1a092:	74 19                	je     1a0ad <main+0x4299>
   1a094:	8b 55 f4             	mov    -0xc(%rbp),%edx
   1a097:	8b 45 f0             	mov    -0x10(%rbp),%eax
   1a09a:	89 c6                	mov    %eax,%esi
   1a09c:	48 8d 3d 60 2f 00 00 	lea    0x2f60(%rip),%rdi        # 1d003 <g_1254+0xf3f>
   1a0a3:	b8 00 00 00 00       	mov    $0x0,%eax
   1a0a8:	e8 d3 ef fe ff       	callq  9080 <printf@plt>
   1a0ad:	83 45 f4 01          	addl   $0x1,-0xc(%rbp)
   1a0b1:	83 7d f4 08          	cmpl   $0x8,-0xc(%rbp)
   1a0b5:	0f 8e 2f fe ff ff    	jle    19eea <main+0x40d6>
   1a0bb:	83 45 f0 01          	addl   $0x1,-0x10(%rbp)
   1a0bf:	83 7d f0 04          	cmpl   $0x4,-0x10(%rbp)
   1a0c3:	0f 8e 15 fe ff ff    	jle    19ede <main+0x40ca>
   1a0c9:	c7 45 f0 00 00 00 00 	movl   $0x0,-0x10(%rbp)
   1a0d0:	e9 47 02 00 00       	jmpq   1a31c <main+0x4508>
   1a0d5:	c7 45 f4 00 00 00 00 	movl   $0x0,-0xc(%rbp)
   1a0dc:	e9 2d 02 00 00       	jmpq   1a30e <main+0x44fa>
   1a0e1:	8b 45 f4             	mov    -0xc(%rbp),%eax
   1a0e4:	48 63 d0             	movslq %eax,%rdx
   1a0e7:	8b 45 f0             	mov    -0x10(%rbp),%eax
   1a0ea:	48 63 c8             	movslq %eax,%rcx
   1a0ed:	48 89 d0             	mov    %rdx,%rax
   1a0f0:	48 c1 e0 02          	shl    $0x2,%rax
   1a0f4:	48 01 d0             	add    %rdx,%rax
   1a0f7:	48 c1 e0 02          	shl    $0x2,%rax
   1a0fb:	48 69 d1 b4 00 00 00 	imul   $0xb4,%rcx,%rdx
   1a102:	48 01 c2             	add    %rax,%rdx
   1a105:	48 8d 05 54 a7 00 00 	lea    0xa754(%rip),%rax        # 24860 <g_1331>
   1a10c:	48 01 d0             	add    %rdx,%rax
   1a10f:	8b 00                	mov    (%rax),%eax
   1a111:	c1 e0 06             	shl    $0x6,%eax
   1a114:	c1 f8 06             	sar    $0x6,%eax
   1a117:	48 98                	cltq   
   1a119:	8b 55 fc             	mov    -0x4(%rbp),%edx
   1a11c:	48 8d 35 56 3d 00 00 	lea    0x3d56(%rip),%rsi        # 1de79 <g_1254+0x1db5>
   1a123:	48 89 c7             	mov    %rax,%rdi
   1a126:	e8 c8 05 ff ff       	callq  a6f3 <transparent_crc>
   1a12b:	8b 45 f4             	mov    -0xc(%rbp),%eax
   1a12e:	48 63 d0             	movslq %eax,%rdx
   1a131:	8b 45 f0             	mov    -0x10(%rbp),%eax
   1a134:	48 63 c8             	movslq %eax,%rcx
   1a137:	48 89 d0             	mov    %rdx,%rax
   1a13a:	48 c1 e0 02          	shl    $0x2,%rax
   1a13e:	48 01 d0             	add    %rdx,%rax
   1a141:	48 c1 e0 02          	shl    $0x2,%rax
   1a145:	48 69 d1 b4 00 00 00 	imul   $0xb4,%rcx,%rdx
   1a14c:	48 01 c2             	add    %rax,%rdx
   1a14f:	48 8d 05 0e a7 00 00 	lea    0xa70e(%rip),%rax        # 24864 <g_1331+0x4>
   1a156:	48 01 d0             	add    %rdx,%rax
   1a159:	0f b6 00             	movzbl (%rax),%eax
   1a15c:	48 0f be c0          	movsbq %al,%rax
   1a160:	8b 55 fc             	mov    -0x4(%rbp),%edx
   1a163:	48 8d 35 1f 3d 00 00 	lea    0x3d1f(%rip),%rsi        # 1de89 <g_1254+0x1dc5>
   1a16a:	48 89 c7             	mov    %rax,%rdi
   1a16d:	e8 81 05 ff ff       	callq  a6f3 <transparent_crc>
   1a172:	8b 45 f4             	mov    -0xc(%rbp),%eax
   1a175:	48 63 d0             	movslq %eax,%rdx
   1a178:	8b 45 f0             	mov    -0x10(%rbp),%eax
   1a17b:	48 63 c8             	movslq %eax,%rcx
   1a17e:	48 89 d0             	mov    %rdx,%rax
   1a181:	48 c1 e0 02          	shl    $0x2,%rax
   1a185:	48 01 d0             	add    %rdx,%rax
   1a188:	48 c1 e0 02          	shl    $0x2,%rax
   1a18c:	48 69 d1 b4 00 00 00 	imul   $0xb4,%rcx,%rdx
   1a193:	48 01 c2             	add    %rax,%rdx
   1a196:	48 8d 05 c3 a6 00 00 	lea    0xa6c3(%rip),%rax        # 24860 <g_1331>
   1a19d:	48 01 d0             	add    %rdx,%rax
   1a1a0:	8b 40 04             	mov    0x4(%rax),%eax
   1a1a3:	c1 e0 05             	shl    $0x5,%eax
   1a1a6:	c1 f8 0d             	sar    $0xd,%eax
   1a1a9:	48 98                	cltq   
   1a1ab:	8b 55 fc             	mov    -0x4(%rbp),%edx
   1a1ae:	48 8d 35 e4 3c 00 00 	lea    0x3ce4(%rip),%rsi        # 1de99 <g_1254+0x1dd5>
   1a1b5:	48 89 c7             	mov    %rax,%rdi
   1a1b8:	e8 36 05 ff ff       	callq  a6f3 <transparent_crc>
   1a1bd:	8b 45 f4             	mov    -0xc(%rbp),%eax
   1a1c0:	48 63 d0             	movslq %eax,%rdx
   1a1c3:	8b 45 f0             	mov    -0x10(%rbp),%eax
   1a1c6:	48 63 c8             	movslq %eax,%rcx
   1a1c9:	48 89 d0             	mov    %rdx,%rax
   1a1cc:	48 c1 e0 02          	shl    $0x2,%rax
   1a1d0:	48 01 d0             	add    %rdx,%rax
   1a1d3:	48 c1 e0 02          	shl    $0x2,%rax
   1a1d7:	48 69 d1 b4 00 00 00 	imul   $0xb4,%rcx,%rdx
   1a1de:	48 01 c2             	add    %rax,%rdx
   1a1e1:	48 8d 05 78 a6 00 00 	lea    0xa678(%rip),%rax        # 24860 <g_1331>
   1a1e8:	48 01 d0             	add    %rdx,%rax
   1a1eb:	8b 40 08             	mov    0x8(%rax),%eax
   1a1ee:	c1 e0 06             	shl    $0x6,%eax
   1a1f1:	c1 f8 06             	sar    $0x6,%eax
   1a1f4:	48 98                	cltq   
   1a1f6:	8b 55 fc             	mov    -0x4(%rbp),%edx
   1a1f9:	48 8d 35 a9 3c 00 00 	lea    0x3ca9(%rip),%rsi        # 1dea9 <g_1254+0x1de5>
   1a200:	48 89 c7             	mov    %rax,%rdi
   1a203:	e8 eb 04 ff ff       	callq  a6f3 <transparent_crc>
   1a208:	8b 45 f4             	mov    -0xc(%rbp),%eax
   1a20b:	48 63 d0             	movslq %eax,%rdx
   1a20e:	8b 45 f0             	mov    -0x10(%rbp),%eax
   1a211:	48 63 c8             	movslq %eax,%rcx
   1a214:	48 89 d0             	mov    %rdx,%rax
   1a217:	48 c1 e0 02          	shl    $0x2,%rax
   1a21b:	48 01 d0             	add    %rdx,%rax
   1a21e:	48 c1 e0 02          	shl    $0x2,%rax
   1a222:	48 69 d1 b4 00 00 00 	imul   $0xb4,%rcx,%rdx
   1a229:	48 01 c2             	add    %rax,%rdx
   1a22c:	48 8d 05 2d a6 00 00 	lea    0xa62d(%rip),%rax        # 24860 <g_1331>
   1a233:	48 01 d0             	add    %rdx,%rax
   1a236:	0f b6 40 0b          	movzbl 0xb(%rax),%eax
   1a23a:	c1 e0 04             	shl    $0x4,%eax
   1a23d:	c0 f8 06             	sar    $0x6,%al
   1a240:	48 0f be c0          	movsbq %al,%rax
   1a244:	8b 55 fc             	mov    -0x4(%rbp),%edx
   1a247:	48 8d 35 6b 3c 00 00 	lea    0x3c6b(%rip),%rsi        # 1deb9 <g_1254+0x1df5>
   1a24e:	48 89 c7             	mov    %rax,%rdi
   1a251:	e8 9d 04 ff ff       	callq  a6f3 <transparent_crc>
   1a256:	8b 45 f4             	mov    -0xc(%rbp),%eax
   1a259:	48 63 d0             	movslq %eax,%rdx
   1a25c:	8b 45 f0             	mov    -0x10(%rbp),%eax
   1a25f:	48 63 c8             	movslq %eax,%rcx
   1a262:	48 89 d0             	mov    %rdx,%rax
   1a265:	48 c1 e0 02          	shl    $0x2,%rax
   1a269:	48 01 d0             	add    %rdx,%rax
   1a26c:	48 c1 e0 02          	shl    $0x2,%rax
   1a270:	48 69 d1 b4 00 00 00 	imul   $0xb4,%rcx,%rdx
   1a277:	48 01 c2             	add    %rax,%rdx
   1a27a:	48 8d 05 df a5 00 00 	lea    0xa5df(%rip),%rax        # 24860 <g_1331>
   1a281:	48 01 d0             	add    %rdx,%rax
   1a284:	8b 40 0c             	mov    0xc(%rax),%eax
   1a287:	c1 e0 0c             	shl    $0xc,%eax
   1a28a:	c1 f8 0c             	sar    $0xc,%eax
   1a28d:	48 98                	cltq   
   1a28f:	8b 55 fc             	mov    -0x4(%rbp),%edx
   1a292:	48 8d 35 30 3c 00 00 	lea    0x3c30(%rip),%rsi        # 1dec9 <g_1254+0x1e05>
   1a299:	48 89 c7             	mov    %rax,%rdi
   1a29c:	e8 52 04 ff ff       	callq  a6f3 <transparent_crc>
   1a2a1:	8b 45 f4             	mov    -0xc(%rbp),%eax
   1a2a4:	48 63 d0             	movslq %eax,%rdx
   1a2a7:	8b 45 f0             	mov    -0x10(%rbp),%eax
   1a2aa:	48 63 c8             	movslq %eax,%rcx
   1a2ad:	48 89 d0             	mov    %rdx,%rax
   1a2b0:	48 c1 e0 02          	shl    $0x2,%rax
   1a2b4:	48 01 d0             	add    %rdx,%rax
   1a2b7:	48 c1 e0 02          	shl    $0x2,%rax
   1a2bb:	48 69 d1 b4 00 00 00 	imul   $0xb4,%rcx,%rdx
   1a2c2:	48 01 c2             	add    %rax,%rdx
   1a2c5:	48 8d 05 a4 a5 00 00 	lea    0xa5a4(%rip),%rax        # 24870 <g_1331+0x10>
   1a2cc:	48 01 d0             	add    %rdx,%rax
   1a2cf:	8b 00                	mov    (%rax),%eax
   1a2d1:	c1 e0 0d             	shl    $0xd,%eax
   1a2d4:	c1 f8 0d             	sar    $0xd,%eax
   1a2d7:	48 98                	cltq   
   1a2d9:	8b 55 fc             	mov    -0x4(%rbp),%edx
   1a2dc:	48 8d 35 f6 3b 00 00 	lea    0x3bf6(%rip),%rsi        # 1ded9 <g_1254+0x1e15>
   1a2e3:	48 89 c7             	mov    %rax,%rdi
   1a2e6:	e8 08 04 ff ff       	callq  a6f3 <transparent_crc>
   1a2eb:	83 7d fc 00          	cmpl   $0x0,-0x4(%rbp)
   1a2ef:	74 19                	je     1a30a <main+0x44f6>
   1a2f1:	8b 55 f4             	mov    -0xc(%rbp),%edx
   1a2f4:	8b 45 f0             	mov    -0x10(%rbp),%eax
   1a2f7:	89 c6                	mov    %eax,%esi
   1a2f9:	48 8d 3d 03 2d 00 00 	lea    0x2d03(%rip),%rdi        # 1d003 <g_1254+0xf3f>
   1a300:	b8 00 00 00 00       	mov    $0x0,%eax
   1a305:	e8 76 ed fe ff       	callq  9080 <printf@plt>
   1a30a:	83 45 f4 01          	addl   $0x1,-0xc(%rbp)
   1a30e:	83 7d f4 08          	cmpl   $0x8,-0xc(%rbp)
   1a312:	0f 8e c9 fd ff ff    	jle    1a0e1 <main+0x42cd>
   1a318:	83 45 f0 01          	addl   $0x1,-0x10(%rbp)
   1a31c:	83 7d f0 04          	cmpl   $0x4,-0x10(%rbp)
   1a320:	0f 8e af fd ff ff    	jle    1a0d5 <main+0x42c1>
   1a326:	8b 05 c4 a8 00 00    	mov    0xa8c4(%rip),%eax        # 24bf0 <g_1416>
   1a32c:	c1 e0 06             	shl    $0x6,%eax
   1a32f:	c1 f8 06             	sar    $0x6,%eax
   1a332:	48 98                	cltq   
   1a334:	8b 55 fc             	mov    -0x4(%rbp),%edx
   1a337:	48 8d 35 ab 3b 00 00 	lea    0x3bab(%rip),%rsi        # 1dee9 <g_1254+0x1e25>
   1a33e:	48 89 c7             	mov    %rax,%rdi
   1a341:	e8 ad 03 ff ff       	callq  a6f3 <transparent_crc>
   1a346:	0f b6 05 a7 a8 00 00 	movzbl 0xa8a7(%rip),%eax        # 24bf4 <g_1416+0x4>
   1a34d:	48 0f be c0          	movsbq %al,%rax
   1a351:	8b 55 fc             	mov    -0x4(%rbp),%edx
   1a354:	48 8d 35 98 3b 00 00 	lea    0x3b98(%rip),%rsi        # 1def3 <g_1254+0x1e2f>
   1a35b:	48 89 c7             	mov    %rax,%rdi
   1a35e:	e8 90 03 ff ff       	callq  a6f3 <transparent_crc>
   1a363:	8b 05 8b a8 00 00    	mov    0xa88b(%rip),%eax        # 24bf4 <g_1416+0x4>
   1a369:	c1 e0 05             	shl    $0x5,%eax
   1a36c:	c1 f8 0d             	sar    $0xd,%eax
   1a36f:	48 98                	cltq   
   1a371:	8b 55 fc             	mov    -0x4(%rbp),%edx
   1a374:	48 8d 35 82 3b 00 00 	lea    0x3b82(%rip),%rsi        # 1defd <g_1254+0x1e39>
   1a37b:	48 89 c7             	mov    %rax,%rdi
   1a37e:	e8 70 03 ff ff       	callq  a6f3 <transparent_crc>
   1a383:	8b 05 6f a8 00 00    	mov    0xa86f(%rip),%eax        # 24bf8 <g_1416+0x8>
   1a389:	c1 e0 06             	shl    $0x6,%eax
   1a38c:	c1 f8 06             	sar    $0x6,%eax
   1a38f:	48 98                	cltq   
   1a391:	8b 55 fc             	mov    -0x4(%rbp),%edx
   1a394:	48 8d 35 6c 3b 00 00 	lea    0x3b6c(%rip),%rsi        # 1df07 <g_1254+0x1e43>
   1a39b:	48 89 c7             	mov    %rax,%rdi
   1a39e:	e8 50 03 ff ff       	callq  a6f3 <transparent_crc>
   1a3a3:	0f b6 05 51 a8 00 00 	movzbl 0xa851(%rip),%eax        # 24bfb <g_1416+0xb>
   1a3aa:	c1 e0 04             	shl    $0x4,%eax
   1a3ad:	c0 f8 06             	sar    $0x6,%al
   1a3b0:	48 0f be c0          	movsbq %al,%rax
   1a3b4:	8b 55 fc             	mov    -0x4(%rbp),%edx
   1a3b7:	48 8d 35 53 3b 00 00 	lea    0x3b53(%rip),%rsi        # 1df11 <g_1254+0x1e4d>
   1a3be:	48 89 c7             	mov    %rax,%rdi
   1a3c1:	e8 2d 03 ff ff       	callq  a6f3 <transparent_crc>
   1a3c6:	8b 05 30 a8 00 00    	mov    0xa830(%rip),%eax        # 24bfc <g_1416+0xc>
   1a3cc:	c1 e0 0c             	shl    $0xc,%eax
   1a3cf:	c1 f8 0c             	sar    $0xc,%eax
   1a3d2:	48 98                	cltq   
   1a3d4:	8b 55 fc             	mov    -0x4(%rbp),%edx
   1a3d7:	48 8d 35 3d 3b 00 00 	lea    0x3b3d(%rip),%rsi        # 1df1b <g_1254+0x1e57>
   1a3de:	48 89 c7             	mov    %rax,%rdi
   1a3e1:	e8 0d 03 ff ff       	callq  a6f3 <transparent_crc>
   1a3e6:	8b 05 14 a8 00 00    	mov    0xa814(%rip),%eax        # 24c00 <g_1416+0x10>
   1a3ec:	c1 e0 0d             	shl    $0xd,%eax
   1a3ef:	c1 f8 0d             	sar    $0xd,%eax
   1a3f2:	48 98                	cltq   
   1a3f4:	8b 55 fc             	mov    -0x4(%rbp),%edx
   1a3f7:	48 8d 35 27 3b 00 00 	lea    0x3b27(%rip),%rsi        # 1df25 <g_1254+0x1e61>
   1a3fe:	48 89 c7             	mov    %rax,%rdi
   1a401:	e8 ed 02 ff ff       	callq  a6f3 <transparent_crc>
   1a406:	8b 05 14 a8 00 00    	mov    0xa814(%rip),%eax        # 24c20 <g_1417>
   1a40c:	48 98                	cltq   
   1a40e:	8b 55 fc             	mov    -0x4(%rbp),%edx
   1a411:	48 8d 35 17 3b 00 00 	lea    0x3b17(%rip),%rsi        # 1df2f <g_1254+0x1e6b>
   1a418:	48 89 c7             	mov    %rax,%rdi
   1a41b:	e8 d3 02 ff ff       	callq  a6f3 <transparent_crc>
   1a420:	48 8b 05 01 a8 00 00 	mov    0xa801(%rip),%rax        # 24c28 <g_1417+0x8>
   1a427:	8b 55 fc             	mov    -0x4(%rbp),%edx
   1a42a:	48 8d 35 08 3b 00 00 	lea    0x3b08(%rip),%rsi        # 1df39 <g_1254+0x1e75>
   1a431:	48 89 c7             	mov    %rax,%rdi
   1a434:	e8 ba 02 ff ff       	callq  a6f3 <transparent_crc>
   1a439:	48 8b 05 f0 a7 00 00 	mov    0xa7f0(%rip),%rax        # 24c30 <g_1417+0x10>
   1a440:	c1 e0 0a             	shl    $0xa,%eax
   1a443:	c1 f8 0a             	sar    $0xa,%eax
   1a446:	48 98                	cltq   
   1a448:	8b 55 fc             	mov    -0x4(%rbp),%edx
   1a44b:	48 8d 35 f1 3a 00 00 	lea    0x3af1(%rip),%rsi        # 1df43 <g_1254+0x1e7f>
   1a452:	48 89 c7             	mov    %rax,%rdi
   1a455:	e8 99 02 ff ff       	callq  a6f3 <transparent_crc>
   1a45a:	8b 05 d4 a7 00 00    	mov    0xa7d4(%rip),%eax        # 24c34 <g_1417+0x14>
   1a460:	89 c1                	mov    %eax,%ecx
   1a462:	8b 45 fc             	mov    -0x4(%rbp),%eax
   1a465:	89 c2                	mov    %eax,%edx
   1a467:	48 8d 35 df 3a 00 00 	lea    0x3adf(%rip),%rsi        # 1df4d <g_1254+0x1e89>
   1a46e:	48 89 cf             	mov    %rcx,%rdi
   1a471:	e8 7d 02 ff ff       	callq  a6f3 <transparent_crc>
   1a476:	0f b6 05 bb a7 00 00 	movzbl 0xa7bb(%rip),%eax        # 24c38 <g_1417+0x18>
   1a47d:	48 0f be c0          	movsbq %al,%rax
   1a481:	8b 55 fc             	mov    -0x4(%rbp),%edx
   1a484:	48 8d 35 cc 3a 00 00 	lea    0x3acc(%rip),%rsi        # 1df57 <g_1254+0x1e93>
   1a48b:	48 89 c7             	mov    %rax,%rdi
   1a48e:	e8 60 02 ff ff       	callq  a6f3 <transparent_crc>
   1a493:	48 8b 05 a6 a7 00 00 	mov    0xa7a6(%rip),%rax        # 24c40 <g_1417+0x20>
   1a49a:	48 89 c1             	mov    %rax,%rcx
   1a49d:	8b 45 fc             	mov    -0x4(%rbp),%eax
   1a4a0:	89 c2                	mov    %eax,%edx
   1a4a2:	48 8d 35 b8 3a 00 00 	lea    0x3ab8(%rip),%rsi        # 1df61 <g_1254+0x1e9d>
   1a4a9:	48 89 cf             	mov    %rcx,%rdi
   1a4ac:	e8 42 02 ff ff       	callq  a6f3 <transparent_crc>
   1a4b1:	8b 05 99 a7 00 00    	mov    0xa799(%rip),%eax        # 24c50 <g_1435>
   1a4b7:	c1 e0 04             	shl    $0x4,%eax
   1a4ba:	c1 f8 04             	sar    $0x4,%eax
   1a4bd:	48 98                	cltq   
   1a4bf:	8b 55 fc             	mov    -0x4(%rbp),%edx
   1a4c2:	48 8d 35 a2 3a 00 00 	lea    0x3aa2(%rip),%rsi        # 1df6b <g_1254+0x1ea7>
   1a4c9:	48 89 c7             	mov    %rax,%rdi
   1a4cc:	e8 22 02 ff ff       	callq  a6f3 <transparent_crc>
   1a4d1:	0f b7 05 7c a7 00 00 	movzwl 0xa77c(%rip),%eax        # 24c54 <g_1435+0x4>
   1a4d8:	48 0f bf c0          	movswq %ax,%rax
   1a4dc:	8b 55 fc             	mov    -0x4(%rbp),%edx
   1a4df:	48 8d 35 8f 3a 00 00 	lea    0x3a8f(%rip),%rsi        # 1df75 <g_1254+0x1eb1>
   1a4e6:	48 89 c7             	mov    %rax,%rdi
   1a4e9:	e8 05 02 ff ff       	callq  a6f3 <transparent_crc>
   1a4ee:	8b 05 64 a7 00 00    	mov    0xa764(%rip),%eax        # 24c58 <g_1435+0x8>
   1a4f4:	c1 e0 03             	shl    $0x3,%eax
   1a4f7:	c1 f8 03             	sar    $0x3,%eax
   1a4fa:	48 98                	cltq   
   1a4fc:	8b 55 fc             	mov    -0x4(%rbp),%edx
   1a4ff:	48 8d 35 79 3a 00 00 	lea    0x3a79(%rip),%rsi        # 1df7f <g_1254+0x1ebb>
   1a506:	48 89 c7             	mov    %rax,%rdi
   1a509:	e8 e5 01 ff ff       	callq  a6f3 <transparent_crc>
   1a50e:	48 8b 05 43 a7 00 00 	mov    0xa743(%rip),%rax        # 24c58 <g_1435+0x8>
   1a515:	48 c1 e0 0f          	shl    $0xf,%rax
   1a519:	48 c1 f8 2f          	sar    $0x2f,%rax
   1a51d:	48 98                	cltq   
   1a51f:	8b 55 fc             	mov    -0x4(%rbp),%edx
   1a522:	48 8d 35 60 3a 00 00 	lea    0x3a60(%rip),%rsi        # 1df89 <g_1254+0x1ec5>
   1a529:	48 89 c7             	mov    %rax,%rdi
   1a52c:	e8 c2 01 ff ff       	callq  a6f3 <transparent_crc>
   1a531:	48 8b 05 20 a7 00 00 	mov    0xa720(%rip),%rax        # 24c58 <g_1435+0x8>
   1a538:	48 c1 e0 04          	shl    $0x4,%rax
   1a53c:	48 c1 f8 35          	sar    $0x35,%rax
   1a540:	48 0f bf c0          	movswq %ax,%rax
   1a544:	8b 55 fc             	mov    -0x4(%rbp),%edx
   1a547:	48 8d 35 45 3a 00 00 	lea    0x3a45(%rip),%rsi        # 1df93 <g_1254+0x1ecf>
   1a54e:	48 89 c7             	mov    %rax,%rdi
   1a551:	e8 9d 01 ff ff       	callq  a6f3 <transparent_crc>
   1a556:	0f b6 05 02 a7 00 00 	movzbl 0xa702(%rip),%eax        # 24c5f <g_1435+0xf>
   1a55d:	c1 e0 03             	shl    $0x3,%eax
   1a560:	c0 f8 07             	sar    $0x7,%al
   1a563:	48 0f be c0          	movsbq %al,%rax
   1a567:	8b 55 fc             	mov    -0x4(%rbp),%edx
   1a56a:	48 8d 35 2c 3a 00 00 	lea    0x3a2c(%rip),%rsi        # 1df9d <g_1254+0x1ed9>
   1a571:	48 89 c7             	mov    %rax,%rdi
   1a574:	e8 7a 01 ff ff       	callq  a6f3 <transparent_crc>
   1a579:	48 8b 05 e0 a6 00 00 	mov    0xa6e0(%rip),%rax        # 24c60 <g_1468>
   1a580:	48 89 c1             	mov    %rax,%rcx
   1a583:	8b 45 fc             	mov    -0x4(%rbp),%eax
   1a586:	89 c2                	mov    %eax,%edx
   1a588:	48 8d 35 18 3a 00 00 	lea    0x3a18(%rip),%rsi        # 1dfa7 <g_1254+0x1ee3>
   1a58f:	48 89 cf             	mov    %rcx,%rdi
   1a592:	e8 5c 01 ff ff       	callq  a6f3 <transparent_crc>
   1a597:	8b 05 cb a6 00 00    	mov    0xa6cb(%rip),%eax        # 24c68 <g_1478>
   1a59d:	48 98                	cltq   
   1a59f:	8b 55 fc             	mov    -0x4(%rbp),%edx
   1a5a2:	48 8d 35 05 3a 00 00 	lea    0x3a05(%rip),%rsi        # 1dfae <g_1254+0x1eea>
   1a5a9:	48 89 c7             	mov    %rax,%rdi
   1a5ac:	e8 42 01 ff ff       	callq  a6f3 <transparent_crc>
   1a5b1:	48 8b 05 b8 a6 00 00 	mov    0xa6b8(%rip),%rax        # 24c70 <g_1487>
   1a5b8:	c1 e0 06             	shl    $0x6,%eax
   1a5bb:	c1 f8 06             	sar    $0x6,%eax
   1a5be:	48 98                	cltq   
   1a5c0:	8b 55 fc             	mov    -0x4(%rbp),%edx
   1a5c3:	48 8d 35 eb 39 00 00 	lea    0x39eb(%rip),%rsi        # 1dfb5 <g_1254+0x1ef1>
   1a5ca:	48 89 c7             	mov    %rax,%rdi
   1a5cd:	e8 21 01 ff ff       	callq  a6f3 <transparent_crc>
   1a5d2:	0f b6 05 9b a6 00 00 	movzbl 0xa69b(%rip),%eax        # 24c74 <g_1487+0x4>
   1a5d9:	48 0f be c0          	movsbq %al,%rax
   1a5dd:	8b 55 fc             	mov    -0x4(%rbp),%edx
   1a5e0:	48 8d 35 d8 39 00 00 	lea    0x39d8(%rip),%rsi        # 1dfbf <g_1254+0x1efb>
   1a5e7:	48 89 c7             	mov    %rax,%rdi
   1a5ea:	e8 04 01 ff ff       	callq  a6f3 <transparent_crc>
   1a5ef:	48 8b 05 7a a6 00 00 	mov    0xa67a(%rip),%rax        # 24c70 <g_1487>
   1a5f6:	48 c1 e0 05          	shl    $0x5,%rax
   1a5fa:	48 c1 f8 2d          	sar    $0x2d,%rax
   1a5fe:	48 98                	cltq   
   1a600:	8b 55 fc             	mov    -0x4(%rbp),%edx
   1a603:	48 8d 35 bf 39 00 00 	lea    0x39bf(%rip),%rsi        # 1dfc9 <g_1254+0x1f05>
   1a60a:	48 89 c7             	mov    %rax,%rdi
   1a60d:	e8 e1 00 ff ff       	callq  a6f3 <transparent_crc>
   1a612:	48 8b 05 5f a6 00 00 	mov    0xa65f(%rip),%rax        # 24c78 <g_1487+0x8>
   1a619:	c1 e0 06             	shl    $0x6,%eax
   1a61c:	c1 f8 06             	sar    $0x6,%eax
   1a61f:	48 98                	cltq   
   1a621:	8b 55 fc             	mov    -0x4(%rbp),%edx
   1a624:	48 8d 35 a8 39 00 00 	lea    0x39a8(%rip),%rsi        # 1dfd3 <g_1254+0x1f0f>
   1a62b:	48 89 c7             	mov    %rax,%rdi
   1a62e:	e8 c0 00 ff ff       	callq  a6f3 <transparent_crc>
   1a633:	48 8b 05 3e a6 00 00 	mov    0xa63e(%rip),%rax        # 24c78 <g_1487+0x8>
   1a63a:	c1 e0 04             	shl    $0x4,%eax
   1a63d:	c1 f8 1e             	sar    $0x1e,%eax
   1a640:	48 0f be c0          	movsbq %al,%rax
   1a644:	8b 55 fc             	mov    -0x4(%rbp),%edx
   1a647:	48 8d 35 8f 39 00 00 	lea    0x398f(%rip),%rsi        # 1dfdd <g_1254+0x1f19>
   1a64e:	48 89 c7             	mov    %rax,%rdi
   1a651:	e8 9d 00 ff ff       	callq  a6f3 <transparent_crc>
   1a656:	48 8b 05 1b a6 00 00 	mov    0xa61b(%rip),%rax        # 24c78 <g_1487+0x8>
   1a65d:	48 c1 e0 0c          	shl    $0xc,%rax
   1a661:	48 c1 f8 2c          	sar    $0x2c,%rax
   1a665:	48 98                	cltq   
   1a667:	8b 55 fc             	mov    -0x4(%rbp),%edx
   1a66a:	48 8d 35 76 39 00 00 	lea    0x3976(%rip),%rsi        # 1dfe7 <g_1254+0x1f23>
   1a671:	48 89 c7             	mov    %rax,%rdi
   1a674:	e8 7a 00 ff ff       	callq  a6f3 <transparent_crc>
   1a679:	48 8b 05 00 a6 00 00 	mov    0xa600(%rip),%rax        # 24c80 <g_1487+0x10>
   1a680:	c1 e0 0d             	shl    $0xd,%eax
   1a683:	c1 f8 0d             	sar    $0xd,%eax
   1a686:	48 98                	cltq   
   1a688:	8b 55 fc             	mov    -0x4(%rbp),%edx
   1a68b:	48 8d 35 5f 39 00 00 	lea    0x395f(%rip),%rsi        # 1dff1 <g_1254+0x1f2d>
   1a692:	48 89 c7             	mov    %rax,%rdi
   1a695:	e8 59 00 ff ff       	callq  a6f3 <transparent_crc>
   1a69a:	8b 05 f0 a5 00 00    	mov    0xa5f0(%rip),%eax        # 24c90 <g_1488>
   1a6a0:	c1 e0 06             	shl    $0x6,%eax
   1a6a3:	c1 f8 06             	sar    $0x6,%eax
   1a6a6:	48 98                	cltq   
   1a6a8:	8b 55 fc             	mov    -0x4(%rbp),%edx
   1a6ab:	48 8d 35 49 39 00 00 	lea    0x3949(%rip),%rsi        # 1dffb <g_1254+0x1f37>
   1a6b2:	48 89 c7             	mov    %rax,%rdi
   1a6b5:	e8 39 00 ff ff       	callq  a6f3 <transparent_crc>
   1a6ba:	0f b6 05 d3 a5 00 00 	movzbl 0xa5d3(%rip),%eax        # 24c94 <g_1488+0x4>
   1a6c1:	48 0f be c0          	movsbq %al,%rax
   1a6c5:	8b 55 fc             	mov    -0x4(%rbp),%edx
   1a6c8:	48 8d 35 36 39 00 00 	lea    0x3936(%rip),%rsi        # 1e005 <g_1254+0x1f41>
   1a6cf:	48 89 c7             	mov    %rax,%rdi
   1a6d2:	e8 1c 00 ff ff       	callq  a6f3 <transparent_crc>
   1a6d7:	8b 05 b7 a5 00 00    	mov    0xa5b7(%rip),%eax        # 24c94 <g_1488+0x4>
   1a6dd:	c1 e0 05             	shl    $0x5,%eax
   1a6e0:	c1 f8 0d             	sar    $0xd,%eax
   1a6e3:	48 98                	cltq   
   1a6e5:	8b 55 fc             	mov    -0x4(%rbp),%edx
   1a6e8:	48 8d 35 20 39 00 00 	lea    0x3920(%rip),%rsi        # 1e00f <g_1254+0x1f4b>
   1a6ef:	48 89 c7             	mov    %rax,%rdi
   1a6f2:	e8 fc ff fe ff       	callq  a6f3 <transparent_crc>
   1a6f7:	8b 05 9b a5 00 00    	mov    0xa59b(%rip),%eax        # 24c98 <g_1488+0x8>
   1a6fd:	c1 e0 06             	shl    $0x6,%eax
   1a700:	c1 f8 06             	sar    $0x6,%eax
   1a703:	48 98                	cltq   
   1a705:	8b 55 fc             	mov    -0x4(%rbp),%edx
   1a708:	48 8d 35 0a 39 00 00 	lea    0x390a(%rip),%rsi        # 1e019 <g_1254+0x1f55>
   1a70f:	48 89 c7             	mov    %rax,%rdi
   1a712:	e8 dc ff fe ff       	callq  a6f3 <transparent_crc>
   1a717:	0f b6 05 7d a5 00 00 	movzbl 0xa57d(%rip),%eax        # 24c9b <g_1488+0xb>
   1a71e:	c1 e0 04             	shl    $0x4,%eax
   1a721:	c0 f8 06             	sar    $0x6,%al
   1a724:	48 0f be c0          	movsbq %al,%rax
   1a728:	8b 55 fc             	mov    -0x4(%rbp),%edx
   1a72b:	48 8d 35 f1 38 00 00 	lea    0x38f1(%rip),%rsi        # 1e023 <g_1254+0x1f5f>
   1a732:	48 89 c7             	mov    %rax,%rdi
   1a735:	e8 b9 ff fe ff       	callq  a6f3 <transparent_crc>
   1a73a:	8b 05 5c a5 00 00    	mov    0xa55c(%rip),%eax        # 24c9c <g_1488+0xc>
   1a740:	c1 e0 0c             	shl    $0xc,%eax
   1a743:	c1 f8 0c             	sar    $0xc,%eax
   1a746:	48 98                	cltq   
   1a748:	8b 55 fc             	mov    -0x4(%rbp),%edx
   1a74b:	48 8d 35 db 38 00 00 	lea    0x38db(%rip),%rsi        # 1e02d <g_1254+0x1f69>
   1a752:	48 89 c7             	mov    %rax,%rdi
   1a755:	e8 99 ff fe ff       	callq  a6f3 <transparent_crc>
   1a75a:	8b 05 40 a5 00 00    	mov    0xa540(%rip),%eax        # 24ca0 <g_1488+0x10>
   1a760:	c1 e0 0d             	shl    $0xd,%eax
   1a763:	c1 f8 0d             	sar    $0xd,%eax
   1a766:	48 98                	cltq   
   1a768:	8b 55 fc             	mov    -0x4(%rbp),%edx
   1a76b:	48 8d 35 c5 38 00 00 	lea    0x38c5(%rip),%rsi        # 1e037 <g_1254+0x1f73>
   1a772:	48 89 c7             	mov    %rax,%rdi
   1a775:	e8 79 ff fe ff       	callq  a6f3 <transparent_crc>
   1a77a:	c7 45 f0 00 00 00 00 	movl   $0x0,-0x10(%rbp)
   1a781:	e9 6d 01 00 00       	jmpq   1a8f3 <main+0x4adf>
   1a786:	8b 45 f0             	mov    -0x10(%rbp),%eax
   1a789:	48 63 d0             	movslq %eax,%rdx
   1a78c:	48 89 d0             	mov    %rdx,%rax
   1a78f:	48 c1 e0 02          	shl    $0x2,%rax
   1a793:	48 01 d0             	add    %rdx,%rax
   1a796:	48 c1 e0 03          	shl    $0x3,%rax
   1a79a:	48 89 c2             	mov    %rax,%rdx
   1a79d:	48 8d 05 1c a5 00 00 	lea    0xa51c(%rip),%rax        # 24cc0 <g_1492>
   1a7a4:	8b 04 02             	mov    (%rdx,%rax,1),%eax
   1a7a7:	48 98                	cltq   
   1a7a9:	8b 55 fc             	mov    -0x4(%rbp),%edx
   1a7ac:	48 8d 35 8e 38 00 00 	lea    0x388e(%rip),%rsi        # 1e041 <g_1254+0x1f7d>
   1a7b3:	48 89 c7             	mov    %rax,%rdi
   1a7b6:	e8 38 ff fe ff       	callq  a6f3 <transparent_crc>
   1a7bb:	8b 45 f0             	mov    -0x10(%rbp),%eax
   1a7be:	48 63 d0             	movslq %eax,%rdx
   1a7c1:	48 89 d0             	mov    %rdx,%rax
   1a7c4:	48 c1 e0 02          	shl    $0x2,%rax
   1a7c8:	48 01 d0             	add    %rdx,%rax
   1a7cb:	48 c1 e0 03          	shl    $0x3,%rax
   1a7cf:	48 89 c2             	mov    %rax,%rdx
   1a7d2:	48 8d 05 ef a4 00 00 	lea    0xa4ef(%rip),%rax        # 24cc8 <g_1492+0x8>
   1a7d9:	48 8b 04 02          	mov    (%rdx,%rax,1),%rax
   1a7dd:	8b 55 fc             	mov    -0x4(%rbp),%edx
   1a7e0:	48 8d 35 67 38 00 00 	lea    0x3867(%rip),%rsi        # 1e04e <g_1254+0x1f8a>
   1a7e7:	48 89 c7             	mov    %rax,%rdi
   1a7ea:	e8 04 ff fe ff       	callq  a6f3 <transparent_crc>
   1a7ef:	8b 45 f0             	mov    -0x10(%rbp),%eax
   1a7f2:	48 63 d0             	movslq %eax,%rdx
   1a7f5:	48 89 d0             	mov    %rdx,%rax
   1a7f8:	48 c1 e0 02          	shl    $0x2,%rax
   1a7fc:	48 01 d0             	add    %rdx,%rax
   1a7ff:	48 c1 e0 03          	shl    $0x3,%rax
   1a803:	48 89 c2             	mov    %rax,%rdx
   1a806:	48 8d 05 c3 a4 00 00 	lea    0xa4c3(%rip),%rax        # 24cd0 <g_1492+0x10>
   1a80d:	48 8b 04 02          	mov    (%rdx,%rax,1),%rax
   1a811:	c1 e0 0a             	shl    $0xa,%eax
   1a814:	c1 f8 0a             	sar    $0xa,%eax
   1a817:	48 98                	cltq   
   1a819:	8b 55 fc             	mov    -0x4(%rbp),%edx
   1a81c:	48 8d 35 38 38 00 00 	lea    0x3838(%rip),%rsi        # 1e05b <g_1254+0x1f97>
   1a823:	48 89 c7             	mov    %rax,%rdi
   1a826:	e8 c8 fe fe ff       	callq  a6f3 <transparent_crc>
   1a82b:	8b 45 f0             	mov    -0x10(%rbp),%eax
   1a82e:	48 63 d0             	movslq %eax,%rdx
   1a831:	48 89 d0             	mov    %rdx,%rax
   1a834:	48 c1 e0 02          	shl    $0x2,%rax
   1a838:	48 01 d0             	add    %rdx,%rax
   1a83b:	48 c1 e0 03          	shl    $0x3,%rax
   1a83f:	48 89 c2             	mov    %rax,%rdx
   1a842:	48 8d 05 8b a4 00 00 	lea    0xa48b(%rip),%rax        # 24cd4 <g_1492+0x14>
   1a849:	8b 04 02             	mov    (%rdx,%rax,1),%eax
   1a84c:	89 c1                	mov    %eax,%ecx
   1a84e:	8b 45 fc             	mov    -0x4(%rbp),%eax
   1a851:	89 c2                	mov    %eax,%edx
   1a853:	48 8d 35 0e 38 00 00 	lea    0x380e(%rip),%rsi        # 1e068 <g_1254+0x1fa4>
   1a85a:	48 89 cf             	mov    %rcx,%rdi
   1a85d:	e8 91 fe fe ff       	callq  a6f3 <transparent_crc>
   1a862:	8b 45 f0             	mov    -0x10(%rbp),%eax
   1a865:	48 63 d0             	movslq %eax,%rdx
   1a868:	48 89 d0             	mov    %rdx,%rax
   1a86b:	48 c1 e0 02          	shl    $0x2,%rax
   1a86f:	48 01 d0             	add    %rdx,%rax
   1a872:	48 c1 e0 03          	shl    $0x3,%rax
   1a876:	48 89 c2             	mov    %rax,%rdx
   1a879:	48 8d 05 58 a4 00 00 	lea    0xa458(%rip),%rax        # 24cd8 <g_1492+0x18>
   1a880:	0f b6 04 02          	movzbl (%rdx,%rax,1),%eax
   1a884:	48 0f be c0          	movsbq %al,%rax
   1a888:	8b 55 fc             	mov    -0x4(%rbp),%edx
   1a88b:	48 8d 35 e3 37 00 00 	lea    0x37e3(%rip),%rsi        # 1e075 <g_1254+0x1fb1>
   1a892:	48 89 c7             	mov    %rax,%rdi
   1a895:	e8 59 fe fe ff       	callq  a6f3 <transparent_crc>
   1a89a:	8b 45 f0             	mov    -0x10(%rbp),%eax
   1a89d:	48 63 d0             	movslq %eax,%rdx
   1a8a0:	48 89 d0             	mov    %rdx,%rax
   1a8a3:	48 c1 e0 02          	shl    $0x2,%rax
   1a8a7:	48 01 d0             	add    %rdx,%rax
   1a8aa:	48 c1 e0 03          	shl    $0x3,%rax
   1a8ae:	48 89 c2             	mov    %rax,%rdx
   1a8b1:	48 8d 05 28 a4 00 00 	lea    0xa428(%rip),%rax        # 24ce0 <g_1492+0x20>
   1a8b8:	48 8b 04 02          	mov    (%rdx,%rax,1),%rax
   1a8bc:	48 89 c1             	mov    %rax,%rcx
   1a8bf:	8b 45 fc             	mov    -0x4(%rbp),%eax
   1a8c2:	89 c2                	mov    %eax,%edx
   1a8c4:	48 8d 35 b7 37 00 00 	lea    0x37b7(%rip),%rsi        # 1e082 <g_1254+0x1fbe>
   1a8cb:	48 89 cf             	mov    %rcx,%rdi
   1a8ce:	e8 20 fe fe ff       	callq  a6f3 <transparent_crc>
   1a8d3:	83 7d fc 00          	cmpl   $0x0,-0x4(%rbp)
   1a8d7:	74 16                	je     1a8ef <main+0x4adb>
   1a8d9:	8b 45 f0             	mov    -0x10(%rbp),%eax
   1a8dc:	89 c6                	mov    %eax,%esi
   1a8de:	48 8d 3d 00 27 00 00 	lea    0x2700(%rip),%rdi        # 1cfe5 <g_1254+0xf21>
   1a8e5:	b8 00 00 00 00       	mov    $0x0,%eax
   1a8ea:	e8 91 e7 fe ff       	callq  9080 <printf@plt>
   1a8ef:	83 45 f0 01          	addl   $0x1,-0x10(%rbp)
   1a8f3:	83 7d f0 07          	cmpl   $0x7,-0x10(%rbp)
   1a8f7:	0f 8e 89 fe ff ff    	jle    1a786 <main+0x4972>
   1a8fd:	8b 05 fd a4 00 00    	mov    0xa4fd(%rip),%eax        # 24e00 <g_1510>
   1a903:	89 c1                	mov    %eax,%ecx
   1a905:	8b 45 fc             	mov    -0x4(%rbp),%eax
   1a908:	89 c2                	mov    %eax,%edx
   1a90a:	48 8d 35 7e 37 00 00 	lea    0x377e(%rip),%rsi        # 1e08f <g_1254+0x1fcb>
   1a911:	48 89 cf             	mov    %rcx,%rdi
   1a914:	e8 da fd fe ff       	callq  a6f3 <transparent_crc>
   1a919:	48 8b 05 e8 a4 00 00 	mov    0xa4e8(%rip),%rax        # 24e08 <g_1538>
   1a920:	48 89 c1             	mov    %rax,%rcx
   1a923:	8b 45 fc             	mov    -0x4(%rbp),%eax
   1a926:	89 c2                	mov    %eax,%edx
   1a928:	48 8d 35 67 37 00 00 	lea    0x3767(%rip),%rsi        # 1e096 <g_1254+0x1fd2>
   1a92f:	48 89 cf             	mov    %rcx,%rdi
   1a932:	e8 bc fd fe ff       	callq  a6f3 <transparent_crc>
   1a937:	8b 05 d3 a4 00 00    	mov    0xa4d3(%rip),%eax        # 24e10 <g_1555>
   1a93d:	c1 e0 06             	shl    $0x6,%eax
   1a940:	c1 f8 06             	sar    $0x6,%eax
   1a943:	48 98                	cltq   
   1a945:	8b 55 fc             	mov    -0x4(%rbp),%edx
   1a948:	48 8d 35 4e 37 00 00 	lea    0x374e(%rip),%rsi        # 1e09d <g_1254+0x1fd9>
   1a94f:	48 89 c7             	mov    %rax,%rdi
   1a952:	e8 9c fd fe ff       	callq  a6f3 <transparent_crc>
   1a957:	0f b6 05 b6 a4 00 00 	movzbl 0xa4b6(%rip),%eax        # 24e14 <g_1555+0x4>
   1a95e:	48 0f be c0          	movsbq %al,%rax
   1a962:	8b 55 fc             	mov    -0x4(%rbp),%edx
   1a965:	48 8d 35 3b 37 00 00 	lea    0x373b(%rip),%rsi        # 1e0a7 <g_1254+0x1fe3>
   1a96c:	48 89 c7             	mov    %rax,%rdi
   1a96f:	e8 7f fd fe ff       	callq  a6f3 <transparent_crc>
   1a974:	8b 05 9a a4 00 00    	mov    0xa49a(%rip),%eax        # 24e14 <g_1555+0x4>
   1a97a:	c1 e0 05             	shl    $0x5,%eax
   1a97d:	c1 f8 0d             	sar    $0xd,%eax
   1a980:	48 98                	cltq   
   1a982:	8b 55 fc             	mov    -0x4(%rbp),%edx
   1a985:	48 8d 35 25 37 00 00 	lea    0x3725(%rip),%rsi        # 1e0b1 <g_1254+0x1fed>
   1a98c:	48 89 c7             	mov    %rax,%rdi
   1a98f:	e8 5f fd fe ff       	callq  a6f3 <transparent_crc>
   1a994:	8b 05 7e a4 00 00    	mov    0xa47e(%rip),%eax        # 24e18 <g_1555+0x8>
   1a99a:	c1 e0 06             	shl    $0x6,%eax
   1a99d:	c1 f8 06             	sar    $0x6,%eax
   1a9a0:	48 98                	cltq   
   1a9a2:	8b 55 fc             	mov    -0x4(%rbp),%edx
   1a9a5:	48 8d 35 0f 37 00 00 	lea    0x370f(%rip),%rsi        # 1e0bb <g_1254+0x1ff7>
   1a9ac:	48 89 c7             	mov    %rax,%rdi
   1a9af:	e8 3f fd fe ff       	callq  a6f3 <transparent_crc>
   1a9b4:	0f b6 05 60 a4 00 00 	movzbl 0xa460(%rip),%eax        # 24e1b <g_1555+0xb>
   1a9bb:	c1 e0 04             	shl    $0x4,%eax
   1a9be:	c0 f8 06             	sar    $0x6,%al
   1a9c1:	48 0f be c0          	movsbq %al,%rax
   1a9c5:	8b 55 fc             	mov    -0x4(%rbp),%edx
   1a9c8:	48 8d 35 f6 36 00 00 	lea    0x36f6(%rip),%rsi        # 1e0c5 <g_1254+0x2001>
   1a9cf:	48 89 c7             	mov    %rax,%rdi
   1a9d2:	e8 1c fd fe ff       	callq  a6f3 <transparent_crc>
   1a9d7:	8b 05 3f a4 00 00    	mov    0xa43f(%rip),%eax        # 24e1c <g_1555+0xc>
   1a9dd:	c1 e0 0c             	shl    $0xc,%eax
   1a9e0:	c1 f8 0c             	sar    $0xc,%eax
   1a9e3:	48 98                	cltq   
   1a9e5:	8b 55 fc             	mov    -0x4(%rbp),%edx
   1a9e8:	48 8d 35 e0 36 00 00 	lea    0x36e0(%rip),%rsi        # 1e0cf <g_1254+0x200b>
   1a9ef:	48 89 c7             	mov    %rax,%rdi
   1a9f2:	e8 fc fc fe ff       	callq  a6f3 <transparent_crc>
   1a9f7:	8b 05 23 a4 00 00    	mov    0xa423(%rip),%eax        # 24e20 <g_1555+0x10>
   1a9fd:	c1 e0 0d             	shl    $0xd,%eax
   1aa00:	c1 f8 0d             	sar    $0xd,%eax
   1aa03:	48 98                	cltq   
   1aa05:	8b 55 fc             	mov    -0x4(%rbp),%edx
   1aa08:	48 8d 35 ca 36 00 00 	lea    0x36ca(%rip),%rsi        # 1e0d9 <g_1254+0x2015>
   1aa0f:	48 89 c7             	mov    %rax,%rdi
   1aa12:	e8 dc fc fe ff       	callq  a6f3 <transparent_crc>
   1aa17:	8b 05 13 a4 00 00    	mov    0xa413(%rip),%eax        # 24e30 <g_1596>
   1aa1d:	c1 e0 06             	shl    $0x6,%eax
   1aa20:	c1 f8 06             	sar    $0x6,%eax
   1aa23:	48 98                	cltq   
   1aa25:	8b 55 fc             	mov    -0x4(%rbp),%edx
   1aa28:	48 8d 35 b4 36 00 00 	lea    0x36b4(%rip),%rsi        # 1e0e3 <g_1254+0x201f>
   1aa2f:	48 89 c7             	mov    %rax,%rdi
   1aa32:	e8 bc fc fe ff       	callq  a6f3 <transparent_crc>
   1aa37:	0f b6 05 f6 a3 00 00 	movzbl 0xa3f6(%rip),%eax        # 24e34 <g_1596+0x4>
   1aa3e:	48 0f be c0          	movsbq %al,%rax
   1aa42:	8b 55 fc             	mov    -0x4(%rbp),%edx
   1aa45:	48 8d 35 a1 36 00 00 	lea    0x36a1(%rip),%rsi        # 1e0ed <g_1254+0x2029>
   1aa4c:	48 89 c7             	mov    %rax,%rdi
   1aa4f:	e8 9f fc fe ff       	callq  a6f3 <transparent_crc>
   1aa54:	8b 05 da a3 00 00    	mov    0xa3da(%rip),%eax        # 24e34 <g_1596+0x4>
   1aa5a:	c1 e0 05             	shl    $0x5,%eax
   1aa5d:	c1 f8 0d             	sar    $0xd,%eax
   1aa60:	48 98                	cltq   
   1aa62:	8b 55 fc             	mov    -0x4(%rbp),%edx
   1aa65:	48 8d 35 8b 36 00 00 	lea    0x368b(%rip),%rsi        # 1e0f7 <g_1254+0x2033>
   1aa6c:	48 89 c7             	mov    %rax,%rdi
   1aa6f:	e8 7f fc fe ff       	callq  a6f3 <transparent_crc>
   1aa74:	8b 05 be a3 00 00    	mov    0xa3be(%rip),%eax        # 24e38 <g_1596+0x8>
   1aa7a:	c1 e0 06             	shl    $0x6,%eax
   1aa7d:	c1 f8 06             	sar    $0x6,%eax
   1aa80:	48 98                	cltq   
   1aa82:	8b 55 fc             	mov    -0x4(%rbp),%edx
   1aa85:	48 8d 35 75 36 00 00 	lea    0x3675(%rip),%rsi        # 1e101 <g_1254+0x203d>
   1aa8c:	48 89 c7             	mov    %rax,%rdi
   1aa8f:	e8 5f fc fe ff       	callq  a6f3 <transparent_crc>
   1aa94:	0f b6 05 a0 a3 00 00 	movzbl 0xa3a0(%rip),%eax        # 24e3b <g_1596+0xb>
   1aa9b:	c1 e0 04             	shl    $0x4,%eax
   1aa9e:	c0 f8 06             	sar    $0x6,%al
   1aaa1:	48 0f be c0          	movsbq %al,%rax
   1aaa5:	8b 55 fc             	mov    -0x4(%rbp),%edx
   1aaa8:	48 8d 35 5c 36 00 00 	lea    0x365c(%rip),%rsi        # 1e10b <g_1254+0x2047>
   1aaaf:	48 89 c7             	mov    %rax,%rdi
   1aab2:	e8 3c fc fe ff       	callq  a6f3 <transparent_crc>
   1aab7:	8b 05 7f a3 00 00    	mov    0xa37f(%rip),%eax        # 24e3c <g_1596+0xc>
   1aabd:	c1 e0 0c             	shl    $0xc,%eax
   1aac0:	c1 f8 0c             	sar    $0xc,%eax
   1aac3:	48 98                	cltq   
   1aac5:	8b 55 fc             	mov    -0x4(%rbp),%edx
   1aac8:	48 8d 35 46 36 00 00 	lea    0x3646(%rip),%rsi        # 1e115 <g_1254+0x2051>
   1aacf:	48 89 c7             	mov    %rax,%rdi
   1aad2:	e8 1c fc fe ff       	callq  a6f3 <transparent_crc>
   1aad7:	8b 05 63 a3 00 00    	mov    0xa363(%rip),%eax        # 24e40 <g_1596+0x10>
   1aadd:	c1 e0 0d             	shl    $0xd,%eax
   1aae0:	c1 f8 0d             	sar    $0xd,%eax
   1aae3:	48 98                	cltq   
   1aae5:	8b 55 fc             	mov    -0x4(%rbp),%edx
   1aae8:	48 8d 35 30 36 00 00 	lea    0x3630(%rip),%rsi        # 1e11f <g_1254+0x205b>
   1aaef:	48 89 c7             	mov    %rax,%rdi
   1aaf2:	e8 fc fb fe ff       	callq  a6f3 <transparent_crc>
   1aaf7:	c7 45 f0 00 00 00 00 	movl   $0x0,-0x10(%rbp)
   1aafe:	e9 4c 01 00 00       	jmpq   1ac4f <main+0x4e3b>
   1ab03:	8b 45 f0             	mov    -0x10(%rbp),%eax
   1ab06:	48 98                	cltq   
   1ab08:	48 c1 e0 04          	shl    $0x4,%rax
   1ab0c:	48 89 c2             	mov    %rax,%rdx
   1ab0f:	48 8d 05 4a a3 00 00 	lea    0xa34a(%rip),%rax        # 24e60 <g_1612>
   1ab16:	8b 04 02             	mov    (%rdx,%rax,1),%eax
   1ab19:	c1 e0 04             	shl    $0x4,%eax
   1ab1c:	c1 f8 04             	sar    $0x4,%eax
   1ab1f:	48 98                	cltq   
   1ab21:	8b 55 fc             	mov    -0x4(%rbp),%edx
   1ab24:	48 8d 35 fe 35 00 00 	lea    0x35fe(%rip),%rsi        # 1e129 <g_1254+0x2065>
   1ab2b:	48 89 c7             	mov    %rax,%rdi
   1ab2e:	e8 c0 fb fe ff       	callq  a6f3 <transparent_crc>
   1ab33:	8b 45 f0             	mov    -0x10(%rbp),%eax
   1ab36:	48 98                	cltq   
   1ab38:	48 c1 e0 04          	shl    $0x4,%rax
   1ab3c:	48 89 c2             	mov    %rax,%rdx
   1ab3f:	48 8d 05 1e a3 00 00 	lea    0xa31e(%rip),%rax        # 24e64 <g_1612+0x4>
   1ab46:	0f b7 04 02          	movzwl (%rdx,%rax,1),%eax
   1ab4a:	48 0f bf c0          	movswq %ax,%rax
   1ab4e:	8b 55 fc             	mov    -0x4(%rbp),%edx
   1ab51:	48 8d 35 de 35 00 00 	lea    0x35de(%rip),%rsi        # 1e136 <g_1254+0x2072>
   1ab58:	48 89 c7             	mov    %rax,%rdi
   1ab5b:	e8 93 fb fe ff       	callq  a6f3 <transparent_crc>
   1ab60:	8b 45 f0             	mov    -0x10(%rbp),%eax
   1ab63:	48 98                	cltq   
   1ab65:	48 c1 e0 04          	shl    $0x4,%rax
   1ab69:	48 89 c2             	mov    %rax,%rdx
   1ab6c:	48 8d 05 ed a2 00 00 	lea    0xa2ed(%rip),%rax        # 24e60 <g_1612>
   1ab73:	8b 44 02 08          	mov    0x8(%rdx,%rax,1),%eax
   1ab77:	c1 e0 03             	shl    $0x3,%eax
   1ab7a:	c1 f8 03             	sar    $0x3,%eax
   1ab7d:	48 98                	cltq   
   1ab7f:	8b 55 fc             	mov    -0x4(%rbp),%edx
   1ab82:	48 8d 35 ba 35 00 00 	lea    0x35ba(%rip),%rsi        # 1e143 <g_1254+0x207f>
   1ab89:	48 89 c7             	mov    %rax,%rdi
   1ab8c:	e8 62 fb fe ff       	callq  a6f3 <transparent_crc>
   1ab91:	8b 45 f0             	mov    -0x10(%rbp),%eax
   1ab94:	48 98                	cltq   
   1ab96:	48 c1 e0 04          	shl    $0x4,%rax
   1ab9a:	48 89 c2             	mov    %rax,%rdx
   1ab9d:	48 8d 05 bc a2 00 00 	lea    0xa2bc(%rip),%rax        # 24e60 <g_1612>
   1aba4:	48 8b 44 02 08       	mov    0x8(%rdx,%rax,1),%rax
   1aba9:	48 c1 e0 0f          	shl    $0xf,%rax
   1abad:	48 c1 f8 2f          	sar    $0x2f,%rax
   1abb1:	48 98                	cltq   
   1abb3:	8b 55 fc             	mov    -0x4(%rbp),%edx
   1abb6:	48 8d 35 93 35 00 00 	lea    0x3593(%rip),%rsi        # 1e150 <g_1254+0x208c>
   1abbd:	48 89 c7             	mov    %rax,%rdi
   1abc0:	e8 2e fb fe ff       	callq  a6f3 <transparent_crc>
   1abc5:	8b 45 f0             	mov    -0x10(%rbp),%eax
   1abc8:	48 98                	cltq   
   1abca:	48 c1 e0 04          	shl    $0x4,%rax
   1abce:	48 89 c2             	mov    %rax,%rdx
   1abd1:	48 8d 05 88 a2 00 00 	lea    0xa288(%rip),%rax        # 24e60 <g_1612>
   1abd8:	48 8b 44 02 08       	mov    0x8(%rdx,%rax,1),%rax
   1abdd:	48 c1 e0 04          	shl    $0x4,%rax
   1abe1:	48 c1 f8 35          	sar    $0x35,%rax
   1abe5:	48 0f bf c0          	movswq %ax,%rax
   1abe9:	8b 55 fc             	mov    -0x4(%rbp),%edx
   1abec:	48 8d 35 6a 35 00 00 	lea    0x356a(%rip),%rsi        # 1e15d <g_1254+0x2099>
   1abf3:	48 89 c7             	mov    %rax,%rdi
   1abf6:	e8 f8 fa fe ff       	callq  a6f3 <transparent_crc>
   1abfb:	8b 45 f0             	mov    -0x10(%rbp),%eax
   1abfe:	48 98                	cltq   
   1ac00:	48 c1 e0 04          	shl    $0x4,%rax
   1ac04:	48 89 c2             	mov    %rax,%rdx
   1ac07:	48 8d 05 52 a2 00 00 	lea    0xa252(%rip),%rax        # 24e60 <g_1612>
   1ac0e:	0f b6 44 02 0f       	movzbl 0xf(%rdx,%rax,1),%eax
   1ac13:	c1 e0 03             	shl    $0x3,%eax
   1ac16:	c0 f8 07             	sar    $0x7,%al
   1ac19:	48 0f be c0          	movsbq %al,%rax
   1ac1d:	8b 55 fc             	mov    -0x4(%rbp),%edx
   1ac20:	48 8d 35 43 35 00 00 	lea    0x3543(%rip),%rsi        # 1e16a <g_1254+0x20a6>
   1ac27:	48 89 c7             	mov    %rax,%rdi
   1ac2a:	e8 c4 fa fe ff       	callq  a6f3 <transparent_crc>
   1ac2f:	83 7d fc 00          	cmpl   $0x0,-0x4(%rbp)
   1ac33:	74 16                	je     1ac4b <main+0x4e37>
   1ac35:	8b 45 f0             	mov    -0x10(%rbp),%eax
   1ac38:	89 c6                	mov    %eax,%esi
   1ac3a:	48 8d 3d a4 23 00 00 	lea    0x23a4(%rip),%rdi        # 1cfe5 <g_1254+0xf21>
   1ac41:	b8 00 00 00 00       	mov    $0x0,%eax
   1ac46:	e8 35 e4 fe ff       	callq  9080 <printf@plt>
   1ac4b:	83 45 f0 01          	addl   $0x1,-0x10(%rbp)
   1ac4f:	83 7d f0 02          	cmpl   $0x2,-0x10(%rbp)
   1ac53:	0f 8e aa fe ff ff    	jle    1ab03 <main+0x4cef>
   1ac59:	8b 05 31 a2 00 00    	mov    0xa231(%rip),%eax        # 24e90 <g_1686>
   1ac5f:	c1 e0 06             	shl    $0x6,%eax
   1ac62:	c1 f8 06             	sar    $0x6,%eax
   1ac65:	48 98                	cltq   
   1ac67:	8b 55 fc             	mov    -0x4(%rbp),%edx
   1ac6a:	48 8d 35 06 35 00 00 	lea    0x3506(%rip),%rsi        # 1e177 <g_1254+0x20b3>
   1ac71:	48 89 c7             	mov    %rax,%rdi
   1ac74:	e8 7a fa fe ff       	callq  a6f3 <transparent_crc>
   1ac79:	0f b6 05 14 a2 00 00 	movzbl 0xa214(%rip),%eax        # 24e94 <g_1686+0x4>
   1ac80:	48 0f be c0          	movsbq %al,%rax
   1ac84:	8b 55 fc             	mov    -0x4(%rbp),%edx
   1ac87:	48 8d 35 f3 34 00 00 	lea    0x34f3(%rip),%rsi        # 1e181 <g_1254+0x20bd>
   1ac8e:	48 89 c7             	mov    %rax,%rdi
   1ac91:	e8 5d fa fe ff       	callq  a6f3 <transparent_crc>
   1ac96:	8b 05 f8 a1 00 00    	mov    0xa1f8(%rip),%eax        # 24e94 <g_1686+0x4>
   1ac9c:	c1 e0 05             	shl    $0x5,%eax
   1ac9f:	c1 f8 0d             	sar    $0xd,%eax
   1aca2:	48 98                	cltq   
   1aca4:	8b 55 fc             	mov    -0x4(%rbp),%edx
   1aca7:	48 8d 35 dd 34 00 00 	lea    0x34dd(%rip),%rsi        # 1e18b <g_1254+0x20c7>
   1acae:	48 89 c7             	mov    %rax,%rdi
   1acb1:	e8 3d fa fe ff       	callq  a6f3 <transparent_crc>
   1acb6:	8b 05 dc a1 00 00    	mov    0xa1dc(%rip),%eax        # 24e98 <g_1686+0x8>
   1acbc:	c1 e0 06             	shl    $0x6,%eax
   1acbf:	c1 f8 06             	sar    $0x6,%eax
   1acc2:	48 98                	cltq   
   1acc4:	8b 55 fc             	mov    -0x4(%rbp),%edx
   1acc7:	48 8d 35 c7 34 00 00 	lea    0x34c7(%rip),%rsi        # 1e195 <g_1254+0x20d1>
   1acce:	48 89 c7             	mov    %rax,%rdi
   1acd1:	e8 1d fa fe ff       	callq  a6f3 <transparent_crc>
   1acd6:	0f b6 05 be a1 00 00 	movzbl 0xa1be(%rip),%eax        # 24e9b <g_1686+0xb>
   1acdd:	c1 e0 04             	shl    $0x4,%eax
   1ace0:	c0 f8 06             	sar    $0x6,%al
   1ace3:	48 0f be c0          	movsbq %al,%rax
   1ace7:	8b 55 fc             	mov    -0x4(%rbp),%edx
   1acea:	48 8d 35 ae 34 00 00 	lea    0x34ae(%rip),%rsi        # 1e19f <g_1254+0x20db>
   1acf1:	48 89 c7             	mov    %rax,%rdi
   1acf4:	e8 fa f9 fe ff       	callq  a6f3 <transparent_crc>
   1acf9:	8b 05 9d a1 00 00    	mov    0xa19d(%rip),%eax        # 24e9c <g_1686+0xc>
   1acff:	c1 e0 0c             	shl    $0xc,%eax
   1ad02:	c1 f8 0c             	sar    $0xc,%eax
   1ad05:	48 98                	cltq   
   1ad07:	8b 55 fc             	mov    -0x4(%rbp),%edx
   1ad0a:	48 8d 35 98 34 00 00 	lea    0x3498(%rip),%rsi        # 1e1a9 <g_1254+0x20e5>
   1ad11:	48 89 c7             	mov    %rax,%rdi
   1ad14:	e8 da f9 fe ff       	callq  a6f3 <transparent_crc>
   1ad19:	8b 05 81 a1 00 00    	mov    0xa181(%rip),%eax        # 24ea0 <g_1686+0x10>
   1ad1f:	c1 e0 0d             	shl    $0xd,%eax
   1ad22:	c1 f8 0d             	sar    $0xd,%eax
   1ad25:	48 98                	cltq   
   1ad27:	8b 55 fc             	mov    -0x4(%rbp),%edx
   1ad2a:	48 8d 35 82 34 00 00 	lea    0x3482(%rip),%rsi        # 1e1b3 <g_1254+0x20ef>
   1ad31:	48 89 c7             	mov    %rax,%rdi
   1ad34:	e8 ba f9 fe ff       	callq  a6f3 <transparent_crc>
   1ad39:	8b 05 81 a1 00 00    	mov    0xa181(%rip),%eax        # 24ec0 <g_1708>
   1ad3f:	48 98                	cltq   
   1ad41:	8b 55 fc             	mov    -0x4(%rbp),%edx
   1ad44:	48 8d 35 72 34 00 00 	lea    0x3472(%rip),%rsi        # 1e1bd <g_1254+0x20f9>
   1ad4b:	48 89 c7             	mov    %rax,%rdi
   1ad4e:	e8 a0 f9 fe ff       	callq  a6f3 <transparent_crc>
   1ad53:	48 8b 05 6e a1 00 00 	mov    0xa16e(%rip),%rax        # 24ec8 <g_1708+0x8>
   1ad5a:	8b 55 fc             	mov    -0x4(%rbp),%edx
   1ad5d:	48 8d 35 63 34 00 00 	lea    0x3463(%rip),%rsi        # 1e1c7 <g_1254+0x2103>
   1ad64:	48 89 c7             	mov    %rax,%rdi
   1ad67:	e8 87 f9 fe ff       	callq  a6f3 <transparent_crc>
   1ad6c:	48 8b 05 5d a1 00 00 	mov    0xa15d(%rip),%rax        # 24ed0 <g_1708+0x10>
   1ad73:	c1 e0 0a             	shl    $0xa,%eax
   1ad76:	c1 f8 0a             	sar    $0xa,%eax
   1ad79:	48 98                	cltq   
   1ad7b:	8b 55 fc             	mov    -0x4(%rbp),%edx
   1ad7e:	48 8d 35 4c 34 00 00 	lea    0x344c(%rip),%rsi        # 1e1d1 <g_1254+0x210d>
   1ad85:	48 89 c7             	mov    %rax,%rdi
   1ad88:	e8 66 f9 fe ff       	callq  a6f3 <transparent_crc>
   1ad8d:	8b 05 41 a1 00 00    	mov    0xa141(%rip),%eax        # 24ed4 <g_1708+0x14>
   1ad93:	89 c1                	mov    %eax,%ecx
   1ad95:	8b 45 fc             	mov    -0x4(%rbp),%eax
   1ad98:	89 c2                	mov    %eax,%edx
   1ad9a:	48 8d 35 3a 34 00 00 	lea    0x343a(%rip),%rsi        # 1e1db <g_1254+0x2117>
   1ada1:	48 89 cf             	mov    %rcx,%rdi
   1ada4:	e8 4a f9 fe ff       	callq  a6f3 <transparent_crc>
   1ada9:	0f b6 05 28 a1 00 00 	movzbl 0xa128(%rip),%eax        # 24ed8 <g_1708+0x18>
   1adb0:	48 0f be c0          	movsbq %al,%rax
   1adb4:	8b 55 fc             	mov    -0x4(%rbp),%edx
   1adb7:	48 8d 35 27 34 00 00 	lea    0x3427(%rip),%rsi        # 1e1e5 <g_1254+0x2121>
   1adbe:	48 89 c7             	mov    %rax,%rdi
   1adc1:	e8 2d f9 fe ff       	callq  a6f3 <transparent_crc>
   1adc6:	48 8b 05 13 a1 00 00 	mov    0xa113(%rip),%rax        # 24ee0 <g_1708+0x20>
   1adcd:	48 89 c1             	mov    %rax,%rcx
   1add0:	8b 45 fc             	mov    -0x4(%rbp),%eax
   1add3:	89 c2                	mov    %eax,%edx
   1add5:	48 8d 35 13 34 00 00 	lea    0x3413(%rip),%rsi        # 1e1ef <g_1254+0x212b>
   1addc:	48 89 cf             	mov    %rcx,%rdi
   1addf:	e8 0f f9 fe ff       	callq  a6f3 <transparent_crc>
   1ade4:	0f b7 05 fd a0 00 00 	movzwl 0xa0fd(%rip),%eax        # 24ee8 <g_1754>
   1adeb:	48 0f bf c0          	movswq %ax,%rax
   1adef:	8b 55 fc             	mov    -0x4(%rbp),%edx
   1adf2:	48 8d 35 00 34 00 00 	lea    0x3400(%rip),%rsi        # 1e1f9 <g_1254+0x2135>
   1adf9:	48 89 c7             	mov    %rax,%rdi
   1adfc:	e8 f2 f8 fe ff       	callq  a6f3 <transparent_crc>
   1ae01:	8b 05 e9 a0 00 00    	mov    0xa0e9(%rip),%eax        # 24ef0 <g_1786>
   1ae07:	c1 e0 04             	shl    $0x4,%eax
   1ae0a:	c1 f8 04             	sar    $0x4,%eax
   1ae0d:	48 98                	cltq   
   1ae0f:	8b 55 fc             	mov    -0x4(%rbp),%edx
   1ae12:	48 8d 35 e7 33 00 00 	lea    0x33e7(%rip),%rsi        # 1e200 <g_1254+0x213c>
   1ae19:	48 89 c7             	mov    %rax,%rdi
   1ae1c:	e8 d2 f8 fe ff       	callq  a6f3 <transparent_crc>
   1ae21:	0f b7 05 cc a0 00 00 	movzwl 0xa0cc(%rip),%eax        # 24ef4 <g_1786+0x4>
   1ae28:	48 0f bf c0          	movswq %ax,%rax
   1ae2c:	8b 55 fc             	mov    -0x4(%rbp),%edx
   1ae2f:	48 8d 35 d4 33 00 00 	lea    0x33d4(%rip),%rsi        # 1e20a <g_1254+0x2146>
   1ae36:	48 89 c7             	mov    %rax,%rdi
   1ae39:	e8 b5 f8 fe ff       	callq  a6f3 <transparent_crc>
   1ae3e:	8b 05 b4 a0 00 00    	mov    0xa0b4(%rip),%eax        # 24ef8 <g_1786+0x8>
   1ae44:	c1 e0 03             	shl    $0x3,%eax
   1ae47:	c1 f8 03             	sar    $0x3,%eax
   1ae4a:	48 98                	cltq   
   1ae4c:	8b 55 fc             	mov    -0x4(%rbp),%edx
   1ae4f:	48 8d 35 be 33 00 00 	lea    0x33be(%rip),%rsi        # 1e214 <g_1254+0x2150>
   1ae56:	48 89 c7             	mov    %rax,%rdi
   1ae59:	e8 95 f8 fe ff       	callq  a6f3 <transparent_crc>
   1ae5e:	48 8b 05 93 a0 00 00 	mov    0xa093(%rip),%rax        # 24ef8 <g_1786+0x8>
   1ae65:	48 c1 e0 0f          	shl    $0xf,%rax
   1ae69:	48 c1 f8 2f          	sar    $0x2f,%rax
   1ae6d:	48 98                	cltq   
   1ae6f:	8b 55 fc             	mov    -0x4(%rbp),%edx
   1ae72:	48 8d 35 a5 33 00 00 	lea    0x33a5(%rip),%rsi        # 1e21e <g_1254+0x215a>
   1ae79:	48 89 c7             	mov    %rax,%rdi
   1ae7c:	e8 72 f8 fe ff       	callq  a6f3 <transparent_crc>
   1ae81:	48 8b 05 70 a0 00 00 	mov    0xa070(%rip),%rax        # 24ef8 <g_1786+0x8>
   1ae88:	48 c1 e0 04          	shl    $0x4,%rax
   1ae8c:	48 c1 f8 35          	sar    $0x35,%rax
   1ae90:	48 0f bf c0          	movswq %ax,%rax
   1ae94:	8b 55 fc             	mov    -0x4(%rbp),%edx
   1ae97:	48 8d 35 8a 33 00 00 	lea    0x338a(%rip),%rsi        # 1e228 <g_1254+0x2164>
   1ae9e:	48 89 c7             	mov    %rax,%rdi
   1aea1:	e8 4d f8 fe ff       	callq  a6f3 <transparent_crc>
   1aea6:	0f b6 05 52 a0 00 00 	movzbl 0xa052(%rip),%eax        # 24eff <g_1786+0xf>
   1aead:	c1 e0 03             	shl    $0x3,%eax
   1aeb0:	c0 f8 07             	sar    $0x7,%al
   1aeb3:	48 0f be c0          	movsbq %al,%rax
   1aeb7:	8b 55 fc             	mov    -0x4(%rbp),%edx
   1aeba:	48 8d 35 71 33 00 00 	lea    0x3371(%rip),%rsi        # 1e232 <g_1254+0x216e>
   1aec1:	48 89 c7             	mov    %rax,%rdi
   1aec4:	e8 2a f8 fe ff       	callq  a6f3 <transparent_crc>
   1aec9:	8b 05 31 a0 00 00    	mov    0xa031(%rip),%eax        # 24f00 <g_1816>
   1aecf:	c1 e0 06             	shl    $0x6,%eax
   1aed2:	c1 f8 06             	sar    $0x6,%eax
   1aed5:	48 98                	cltq   
   1aed7:	8b 55 fc             	mov    -0x4(%rbp),%edx
   1aeda:	48 8d 35 5b 33 00 00 	lea    0x335b(%rip),%rsi        # 1e23c <g_1254+0x2178>
   1aee1:	48 89 c7             	mov    %rax,%rdi
   1aee4:	e8 0a f8 fe ff       	callq  a6f3 <transparent_crc>
   1aee9:	0f b6 05 14 a0 00 00 	movzbl 0xa014(%rip),%eax        # 24f04 <g_1816+0x4>
   1aef0:	48 0f be c0          	movsbq %al,%rax
   1aef4:	8b 55 fc             	mov    -0x4(%rbp),%edx
   1aef7:	48 8d 35 48 33 00 00 	lea    0x3348(%rip),%rsi        # 1e246 <g_1254+0x2182>
   1aefe:	48 89 c7             	mov    %rax,%rdi
   1af01:	e8 ed f7 fe ff       	callq  a6f3 <transparent_crc>
   1af06:	8b 05 f8 9f 00 00    	mov    0x9ff8(%rip),%eax        # 24f04 <g_1816+0x4>
   1af0c:	c1 e0 05             	shl    $0x5,%eax
   1af0f:	c1 f8 0d             	sar    $0xd,%eax
   1af12:	48 98                	cltq   
   1af14:	8b 55 fc             	mov    -0x4(%rbp),%edx
   1af17:	48 8d 35 32 33 00 00 	lea    0x3332(%rip),%rsi        # 1e250 <g_1254+0x218c>
   1af1e:	48 89 c7             	mov    %rax,%rdi
   1af21:	e8 cd f7 fe ff       	callq  a6f3 <transparent_crc>
   1af26:	8b 05 dc 9f 00 00    	mov    0x9fdc(%rip),%eax        # 24f08 <g_1816+0x8>
   1af2c:	c1 e0 06             	shl    $0x6,%eax
   1af2f:	c1 f8 06             	sar    $0x6,%eax
   1af32:	48 98                	cltq   
   1af34:	8b 55 fc             	mov    -0x4(%rbp),%edx
   1af37:	48 8d 35 1c 33 00 00 	lea    0x331c(%rip),%rsi        # 1e25a <g_1254+0x2196>
   1af3e:	48 89 c7             	mov    %rax,%rdi
   1af41:	e8 ad f7 fe ff       	callq  a6f3 <transparent_crc>
   1af46:	0f b6 05 be 9f 00 00 	movzbl 0x9fbe(%rip),%eax        # 24f0b <g_1816+0xb>
   1af4d:	c1 e0 04             	shl    $0x4,%eax
   1af50:	c0 f8 06             	sar    $0x6,%al
   1af53:	48 0f be c0          	movsbq %al,%rax
   1af57:	8b 55 fc             	mov    -0x4(%rbp),%edx
   1af5a:	48 8d 35 03 33 00 00 	lea    0x3303(%rip),%rsi        # 1e264 <g_1254+0x21a0>
   1af61:	48 89 c7             	mov    %rax,%rdi
   1af64:	e8 8a f7 fe ff       	callq  a6f3 <transparent_crc>
   1af69:	8b 05 9d 9f 00 00    	mov    0x9f9d(%rip),%eax        # 24f0c <g_1816+0xc>
   1af6f:	c1 e0 0c             	shl    $0xc,%eax
   1af72:	c1 f8 0c             	sar    $0xc,%eax
   1af75:	48 98                	cltq   
   1af77:	8b 55 fc             	mov    -0x4(%rbp),%edx
   1af7a:	48 8d 35 ed 32 00 00 	lea    0x32ed(%rip),%rsi        # 1e26e <g_1254+0x21aa>
   1af81:	48 89 c7             	mov    %rax,%rdi
   1af84:	e8 6a f7 fe ff       	callq  a6f3 <transparent_crc>
   1af89:	8b 05 81 9f 00 00    	mov    0x9f81(%rip),%eax        # 24f10 <g_1816+0x10>
   1af8f:	c1 e0 0d             	shl    $0xd,%eax
   1af92:	c1 f8 0d             	sar    $0xd,%eax
   1af95:	48 98                	cltq   
   1af97:	8b 55 fc             	mov    -0x4(%rbp),%edx
   1af9a:	48 8d 35 d7 32 00 00 	lea    0x32d7(%rip),%rsi        # 1e278 <g_1254+0x21b4>
   1afa1:	48 89 c7             	mov    %rax,%rdi
   1afa4:	e8 4a f7 fe ff       	callq  a6f3 <transparent_crc>
   1afa9:	48 8b 05 70 9f 00 00 	mov    0x9f70(%rip),%rax        # 24f20 <g_1862>
   1afb0:	c1 e0 04             	shl    $0x4,%eax
   1afb3:	c1 f8 04             	sar    $0x4,%eax
   1afb6:	48 98                	cltq   
   1afb8:	8b 55 fc             	mov    -0x4(%rbp),%edx
   1afbb:	48 8d 35 c0 32 00 00 	lea    0x32c0(%rip),%rsi        # 1e282 <g_1254+0x21be>
   1afc2:	48 89 c7             	mov    %rax,%rdi
   1afc5:	e8 29 f7 fe ff       	callq  a6f3 <transparent_crc>
   1afca:	0f b7 05 53 9f 00 00 	movzwl 0x9f53(%rip),%eax        # 24f24 <g_1862+0x4>
   1afd1:	48 0f bf c0          	movswq %ax,%rax
   1afd5:	8b 55 fc             	mov    -0x4(%rbp),%edx
   1afd8:	48 8d 35 ad 32 00 00 	lea    0x32ad(%rip),%rsi        # 1e28c <g_1254+0x21c8>
   1afdf:	48 89 c7             	mov    %rax,%rdi
   1afe2:	e8 0c f7 fe ff       	callq  a6f3 <transparent_crc>
   1afe7:	48 8b 05 3a 9f 00 00 	mov    0x9f3a(%rip),%rax        # 24f28 <g_1862+0x8>
   1afee:	c1 e0 03             	shl    $0x3,%eax
   1aff1:	c1 f8 03             	sar    $0x3,%eax
   1aff4:	48 98                	cltq   
   1aff6:	8b 55 fc             	mov    -0x4(%rbp),%edx
   1aff9:	48 8d 35 96 32 00 00 	lea    0x3296(%rip),%rsi        # 1e296 <g_1254+0x21d2>
   1b000:	48 89 c7             	mov    %rax,%rdi
   1b003:	e8 eb f6 fe ff       	callq  a6f3 <transparent_crc>
   1b008:	48 8b 05 19 9f 00 00 	mov    0x9f19(%rip),%rax        # 24f28 <g_1862+0x8>
   1b00f:	48 c1 e0 0f          	shl    $0xf,%rax
   1b013:	48 c1 f8 2f          	sar    $0x2f,%rax
   1b017:	48 98                	cltq   
   1b019:	8b 55 fc             	mov    -0x4(%rbp),%edx
   1b01c:	48 8d 35 7d 32 00 00 	lea    0x327d(%rip),%rsi        # 1e2a0 <g_1254+0x21dc>
   1b023:	48 89 c7             	mov    %rax,%rdi
   1b026:	e8 c8 f6 fe ff       	callq  a6f3 <transparent_crc>
   1b02b:	48 8b 05 f6 9e 00 00 	mov    0x9ef6(%rip),%rax        # 24f28 <g_1862+0x8>
   1b032:	48 c1 e0 04          	shl    $0x4,%rax
   1b036:	48 c1 f8 35          	sar    $0x35,%rax
   1b03a:	48 0f bf c0          	movswq %ax,%rax
   1b03e:	8b 55 fc             	mov    -0x4(%rbp),%edx
   1b041:	48 8d 35 62 32 00 00 	lea    0x3262(%rip),%rsi        # 1e2aa <g_1254+0x21e6>
   1b048:	48 89 c7             	mov    %rax,%rdi
   1b04b:	e8 a3 f6 fe ff       	callq  a6f3 <transparent_crc>
   1b050:	48 8b 05 d1 9e 00 00 	mov    0x9ed1(%rip),%rax        # 24f28 <g_1862+0x8>
   1b057:	48 c1 e0 03          	shl    $0x3,%rax
   1b05b:	48 c1 f8 3f          	sar    $0x3f,%rax
   1b05f:	48 0f be c0          	movsbq %al,%rax
   1b063:	8b 55 fc             	mov    -0x4(%rbp),%edx
   1b066:	48 8d 35 47 32 00 00 	lea    0x3247(%rip),%rsi        # 1e2b4 <g_1254+0x21f0>
   1b06d:	48 89 c7             	mov    %rax,%rdi
   1b070:	e8 7e f6 fe ff       	callq  a6f3 <transparent_crc>
   1b075:	c7 45 f0 00 00 00 00 	movl   $0x0,-0x10(%rbp)
   1b07c:	eb 4a                	jmp    1b0c8 <main+0x52b4>
   1b07e:	8b 45 f0             	mov    -0x10(%rbp),%eax
   1b081:	48 98                	cltq   
   1b083:	48 8d 14 00          	lea    (%rax,%rax,1),%rdx
   1b087:	48 8d 05 a2 9e 00 00 	lea    0x9ea2(%rip),%rax        # 24f30 <g_1884>
   1b08e:	0f b7 04 02          	movzwl (%rdx,%rax,1),%eax
   1b092:	48 0f bf c0          	movswq %ax,%rax
   1b096:	8b 55 fc             	mov    -0x4(%rbp),%edx
   1b099:	48 8d 35 1e 32 00 00 	lea    0x321e(%rip),%rsi        # 1e2be <g_1254+0x21fa>
   1b0a0:	48 89 c7             	mov    %rax,%rdi
   1b0a3:	e8 4b f6 fe ff       	callq  a6f3 <transparent_crc>
   1b0a8:	83 7d fc 00          	cmpl   $0x0,-0x4(%rbp)
   1b0ac:	74 16                	je     1b0c4 <main+0x52b0>
   1b0ae:	8b 45 f0             	mov    -0x10(%rbp),%eax
   1b0b1:	89 c6                	mov    %eax,%esi
   1b0b3:	48 8d 3d 2b 1f 00 00 	lea    0x1f2b(%rip),%rdi        # 1cfe5 <g_1254+0xf21>
   1b0ba:	b8 00 00 00 00       	mov    $0x0,%eax
   1b0bf:	e8 bc df fe ff       	callq  9080 <printf@plt>
   1b0c4:	83 45 f0 01          	addl   $0x1,-0x10(%rbp)
   1b0c8:	83 7d f0 05          	cmpl   $0x5,-0x10(%rbp)
   1b0cc:	7e b0                	jle    1b07e <main+0x526a>
   1b0ce:	48 8b 05 6b 9e 00 00 	mov    0x9e6b(%rip),%rax        # 24f40 <g_1900>
   1b0d5:	8b 55 fc             	mov    -0x4(%rbp),%edx
   1b0d8:	48 8d 35 e9 31 00 00 	lea    0x31e9(%rip),%rsi        # 1e2c8 <g_1254+0x2204>
   1b0df:	48 89 c7             	mov    %rax,%rdi
   1b0e2:	e8 0c f6 fe ff       	callq  a6f3 <transparent_crc>
   1b0e7:	48 8b 05 62 9e 00 00 	mov    0x9e62(%rip),%rax        # 24f50 <g_2002>
   1b0ee:	c1 e0 06             	shl    $0x6,%eax
   1b0f1:	c1 f8 06             	sar    $0x6,%eax
   1b0f4:	48 98                	cltq   
   1b0f6:	8b 55 fc             	mov    -0x4(%rbp),%edx
   1b0f9:	48 8d 35 cf 31 00 00 	lea    0x31cf(%rip),%rsi        # 1e2cf <g_1254+0x220b>
   1b100:	48 89 c7             	mov    %rax,%rdi
   1b103:	e8 eb f5 fe ff       	callq  a6f3 <transparent_crc>
   1b108:	0f b6 05 45 9e 00 00 	movzbl 0x9e45(%rip),%eax        # 24f54 <g_2002+0x4>
   1b10f:	48 0f be c0          	movsbq %al,%rax
   1b113:	8b 55 fc             	mov    -0x4(%rbp),%edx
   1b116:	48 8d 35 bc 31 00 00 	lea    0x31bc(%rip),%rsi        # 1e2d9 <g_1254+0x2215>
   1b11d:	48 89 c7             	mov    %rax,%rdi
   1b120:	e8 ce f5 fe ff       	callq  a6f3 <transparent_crc>
   1b125:	48 8b 05 24 9e 00 00 	mov    0x9e24(%rip),%rax        # 24f50 <g_2002>
   1b12c:	48 c1 e0 05          	shl    $0x5,%rax
   1b130:	48 c1 f8 2d          	sar    $0x2d,%rax
   1b134:	48 98                	cltq   
   1b136:	8b 55 fc             	mov    -0x4(%rbp),%edx
   1b139:	48 8d 35 a3 31 00 00 	lea    0x31a3(%rip),%rsi        # 1e2e3 <g_1254+0x221f>
   1b140:	48 89 c7             	mov    %rax,%rdi
   1b143:	e8 ab f5 fe ff       	callq  a6f3 <transparent_crc>
   1b148:	48 8b 05 09 9e 00 00 	mov    0x9e09(%rip),%rax        # 24f58 <g_2002+0x8>
   1b14f:	c1 e0 06             	shl    $0x6,%eax
   1b152:	c1 f8 06             	sar    $0x6,%eax
   1b155:	48 98                	cltq   
   1b157:	8b 55 fc             	mov    -0x4(%rbp),%edx
   1b15a:	48 8d 35 8c 31 00 00 	lea    0x318c(%rip),%rsi        # 1e2ed <g_1254+0x2229>
   1b161:	48 89 c7             	mov    %rax,%rdi
   1b164:	e8 8a f5 fe ff       	callq  a6f3 <transparent_crc>
   1b169:	48 8b 05 e8 9d 00 00 	mov    0x9de8(%rip),%rax        # 24f58 <g_2002+0x8>
   1b170:	c1 e0 04             	shl    $0x4,%eax
   1b173:	c1 f8 1e             	sar    $0x1e,%eax
   1b176:	48 0f be c0          	movsbq %al,%rax
   1b17a:	8b 55 fc             	mov    -0x4(%rbp),%edx
   1b17d:	48 8d 35 73 31 00 00 	lea    0x3173(%rip),%rsi        # 1e2f7 <g_1254+0x2233>
   1b184:	48 89 c7             	mov    %rax,%rdi
   1b187:	e8 67 f5 fe ff       	callq  a6f3 <transparent_crc>
   1b18c:	48 8b 05 c5 9d 00 00 	mov    0x9dc5(%rip),%rax        # 24f58 <g_2002+0x8>
   1b193:	48 c1 e0 0c          	shl    $0xc,%rax
   1b197:	48 c1 f8 2c          	sar    $0x2c,%rax
   1b19b:	48 98                	cltq   
   1b19d:	8b 55 fc             	mov    -0x4(%rbp),%edx
   1b1a0:	48 8d 35 5a 31 00 00 	lea    0x315a(%rip),%rsi        # 1e301 <g_1254+0x223d>
   1b1a7:	48 89 c7             	mov    %rax,%rdi
   1b1aa:	e8 44 f5 fe ff       	callq  a6f3 <transparent_crc>
   1b1af:	48 8b 05 aa 9d 00 00 	mov    0x9daa(%rip),%rax        # 24f60 <g_2002+0x10>
   1b1b6:	c1 e0 0d             	shl    $0xd,%eax
   1b1b9:	c1 f8 0d             	sar    $0xd,%eax
   1b1bc:	48 98                	cltq   
   1b1be:	8b 55 fc             	mov    -0x4(%rbp),%edx
   1b1c1:	48 8d 35 43 31 00 00 	lea    0x3143(%rip),%rsi        # 1e30b <g_1254+0x2247>
   1b1c8:	48 89 c7             	mov    %rax,%rdi
   1b1cb:	e8 23 f5 fe ff       	callq  a6f3 <transparent_crc>
   1b1d0:	c7 45 f0 00 00 00 00 	movl   $0x0,-0x10(%rbp)
   1b1d7:	e9 0e 02 00 00       	jmpq   1b3ea <main+0x55d6>
   1b1dc:	c7 45 f4 00 00 00 00 	movl   $0x0,-0xc(%rbp)
   1b1e3:	e9 f4 01 00 00       	jmpq   1b3dc <main+0x55c8>
   1b1e8:	8b 45 f4             	mov    -0xc(%rbp),%eax
   1b1eb:	48 63 d0             	movslq %eax,%rdx
   1b1ee:	8b 45 f0             	mov    -0x10(%rbp),%eax
   1b1f1:	48 63 c8             	movslq %eax,%rcx
   1b1f4:	48 89 d0             	mov    %rdx,%rax
   1b1f7:	48 c1 e0 02          	shl    $0x2,%rax
   1b1fb:	48 01 d0             	add    %rdx,%rax
   1b1fe:	48 c1 e0 03          	shl    $0x3,%rax
   1b202:	48 89 ca             	mov    %rcx,%rdx
   1b205:	48 c1 e2 04          	shl    $0x4,%rdx
   1b209:	48 29 ca             	sub    %rcx,%rdx
   1b20c:	48 c1 e2 03          	shl    $0x3,%rdx
   1b210:	48 01 c2             	add    %rax,%rdx
   1b213:	48 8d 05 66 9d 00 00 	lea    0x9d66(%rip),%rax        # 24f80 <g_2003>
   1b21a:	48 01 d0             	add    %rdx,%rax
   1b21d:	8b 00                	mov    (%rax),%eax
   1b21f:	48 98                	cltq   
   1b221:	8b 55 fc             	mov    -0x4(%rbp),%edx
   1b224:	48 8d 35 ea 30 00 00 	lea    0x30ea(%rip),%rsi        # 1e315 <g_1254+0x2251>
   1b22b:	48 89 c7             	mov    %rax,%rdi
   1b22e:	e8 c0 f4 fe ff       	callq  a6f3 <transparent_crc>
   1b233:	8b 45 f4             	mov    -0xc(%rbp),%eax
   1b236:	48 63 d0             	movslq %eax,%rdx
   1b239:	8b 45 f0             	mov    -0x10(%rbp),%eax
   1b23c:	48 63 c8             	movslq %eax,%rcx
   1b23f:	48 89 d0             	mov    %rdx,%rax
   1b242:	48 c1 e0 02          	shl    $0x2,%rax
   1b246:	48 01 d0             	add    %rdx,%rax
   1b249:	48 c1 e0 03          	shl    $0x3,%rax
   1b24d:	48 89 ca             	mov    %rcx,%rdx
   1b250:	48 c1 e2 04          	shl    $0x4,%rdx
   1b254:	48 29 ca             	sub    %rcx,%rdx
   1b257:	48 c1 e2 03          	shl    $0x3,%rdx
   1b25b:	48 01 c2             	add    %rax,%rdx
   1b25e:	48 8d 05 23 9d 00 00 	lea    0x9d23(%rip),%rax        # 24f88 <g_2003+0x8>
   1b265:	48 01 d0             	add    %rdx,%rax
   1b268:	48 8b 00             	mov    (%rax),%rax
   1b26b:	8b 55 fc             	mov    -0x4(%rbp),%edx
   1b26e:	48 8d 35 b0 30 00 00 	lea    0x30b0(%rip),%rsi        # 1e325 <g_1254+0x2261>
   1b275:	48 89 c7             	mov    %rax,%rdi
   1b278:	e8 76 f4 fe ff       	callq  a6f3 <transparent_crc>
   1b27d:	8b 45 f4             	mov    -0xc(%rbp),%eax
   1b280:	48 63 d0             	movslq %eax,%rdx
   1b283:	8b 45 f0             	mov    -0x10(%rbp),%eax
   1b286:	48 63 c8             	movslq %eax,%rcx
   1b289:	48 89 d0             	mov    %rdx,%rax
   1b28c:	48 c1 e0 02          	shl    $0x2,%rax
   1b290:	48 01 d0             	add    %rdx,%rax
   1b293:	48 c1 e0 03          	shl    $0x3,%rax
   1b297:	48 89 ca             	mov    %rcx,%rdx
   1b29a:	48 c1 e2 04          	shl    $0x4,%rdx
   1b29e:	48 29 ca             	sub    %rcx,%rdx
   1b2a1:	48 c1 e2 03          	shl    $0x3,%rdx
   1b2a5:	48 01 c2             	add    %rax,%rdx
   1b2a8:	48 8d 05 e1 9c 00 00 	lea    0x9ce1(%rip),%rax        # 24f90 <g_2003+0x10>
   1b2af:	48 01 d0             	add    %rdx,%rax
   1b2b2:	48 8b 00             	mov    (%rax),%rax
   1b2b5:	c1 e0 0a             	shl    $0xa,%eax
   1b2b8:	c1 f8 0a             	sar    $0xa,%eax
   1b2bb:	48 98                	cltq   
   1b2bd:	8b 55 fc             	mov    -0x4(%rbp),%edx
   1b2c0:	48 8d 35 6e 30 00 00 	lea    0x306e(%rip),%rsi        # 1e335 <g_1254+0x2271>
   1b2c7:	48 89 c7             	mov    %rax,%rdi
   1b2ca:	e8 24 f4 fe ff       	callq  a6f3 <transparent_crc>
   1b2cf:	8b 45 f4             	mov    -0xc(%rbp),%eax
   1b2d2:	48 63 d0             	movslq %eax,%rdx
   1b2d5:	8b 45 f0             	mov    -0x10(%rbp),%eax
   1b2d8:	48 63 c8             	movslq %eax,%rcx
   1b2db:	48 89 d0             	mov    %rdx,%rax
   1b2de:	48 c1 e0 02          	shl    $0x2,%rax
   1b2e2:	48 01 d0             	add    %rdx,%rax
   1b2e5:	48 c1 e0 03          	shl    $0x3,%rax
   1b2e9:	48 89 ca             	mov    %rcx,%rdx
   1b2ec:	48 c1 e2 04          	shl    $0x4,%rdx
   1b2f0:	48 29 ca             	sub    %rcx,%rdx
   1b2f3:	48 c1 e2 03          	shl    $0x3,%rdx
   1b2f7:	48 01 c2             	add    %rax,%rdx
   1b2fa:	48 8d 05 93 9c 00 00 	lea    0x9c93(%rip),%rax        # 24f94 <g_2003+0x14>
   1b301:	48 01 d0             	add    %rdx,%rax
   1b304:	8b 00                	mov    (%rax),%eax
   1b306:	89 c1                	mov    %eax,%ecx
   1b308:	8b 45 fc             	mov    -0x4(%rbp),%eax
   1b30b:	89 c2                	mov    %eax,%edx
   1b30d:	48 8d 35 31 30 00 00 	lea    0x3031(%rip),%rsi        # 1e345 <g_1254+0x2281>
   1b314:	48 89 cf             	mov    %rcx,%rdi
   1b317:	e8 d7 f3 fe ff       	callq  a6f3 <transparent_crc>
   1b31c:	8b 45 f4             	mov    -0xc(%rbp),%eax
   1b31f:	48 63 d0             	movslq %eax,%rdx
   1b322:	8b 45 f0             	mov    -0x10(%rbp),%eax
   1b325:	48 63 c8             	movslq %eax,%rcx
   1b328:	48 89 d0             	mov    %rdx,%rax
   1b32b:	48 c1 e0 02          	shl    $0x2,%rax
   1b32f:	48 01 d0             	add    %rdx,%rax
   1b332:	48 c1 e0 03          	shl    $0x3,%rax
   1b336:	48 89 ca             	mov    %rcx,%rdx
   1b339:	48 c1 e2 04          	shl    $0x4,%rdx
   1b33d:	48 29 ca             	sub    %rcx,%rdx
   1b340:	48 c1 e2 03          	shl    $0x3,%rdx
   1b344:	48 01 c2             	add    %rax,%rdx
   1b347:	48 8d 05 4a 9c 00 00 	lea    0x9c4a(%rip),%rax        # 24f98 <g_2003+0x18>
   1b34e:	48 01 d0             	add    %rdx,%rax
   1b351:	0f b6 00             	movzbl (%rax),%eax
   1b354:	48 0f be c0          	movsbq %al,%rax
   1b358:	8b 55 fc             	mov    -0x4(%rbp),%edx
   1b35b:	48 8d 35 f3 2f 00 00 	lea    0x2ff3(%rip),%rsi        # 1e355 <g_1254+0x2291>
   1b362:	48 89 c7             	mov    %rax,%rdi
   1b365:	e8 89 f3 fe ff       	callq  a6f3 <transparent_crc>
   1b36a:	8b 45 f4             	mov    -0xc(%rbp),%eax
   1b36d:	48 63 d0             	movslq %eax,%rdx
   1b370:	8b 45 f0             	mov    -0x10(%rbp),%eax
   1b373:	48 63 c8             	movslq %eax,%rcx
   1b376:	48 89 d0             	mov    %rdx,%rax
   1b379:	48 c1 e0 02          	shl    $0x2,%rax
   1b37d:	48 01 d0             	add    %rdx,%rax
   1b380:	48 c1 e0 03          	shl    $0x3,%rax
   1b384:	48 89 ca             	mov    %rcx,%rdx
   1b387:	48 c1 e2 04          	shl    $0x4,%rdx
   1b38b:	48 29 ca             	sub    %rcx,%rdx
   1b38e:	48 c1 e2 03          	shl    $0x3,%rdx
   1b392:	48 01 c2             	add    %rax,%rdx
   1b395:	48 8d 05 04 9c 00 00 	lea    0x9c04(%rip),%rax        # 24fa0 <g_2003+0x20>
   1b39c:	48 01 d0             	add    %rdx,%rax
   1b39f:	48 8b 00             	mov    (%rax),%rax
   1b3a2:	48 89 c1             	mov    %rax,%rcx
   1b3a5:	8b 45 fc             	mov    -0x4(%rbp),%eax
   1b3a8:	89 c2                	mov    %eax,%edx
   1b3aa:	48 8d 35 b4 2f 00 00 	lea    0x2fb4(%rip),%rsi        # 1e365 <g_1254+0x22a1>
   1b3b1:	48 89 cf             	mov    %rcx,%rdi
   1b3b4:	e8 3a f3 fe ff       	callq  a6f3 <transparent_crc>
   1b3b9:	83 7d fc 00          	cmpl   $0x0,-0x4(%rbp)
   1b3bd:	74 19                	je     1b3d8 <main+0x55c4>
   1b3bf:	8b 55 f4             	mov    -0xc(%rbp),%edx
   1b3c2:	8b 45 f0             	mov    -0x10(%rbp),%eax
   1b3c5:	89 c6                	mov    %eax,%esi
   1b3c7:	48 8d 3d 35 1c 00 00 	lea    0x1c35(%rip),%rdi        # 1d003 <g_1254+0xf3f>
   1b3ce:	b8 00 00 00 00       	mov    $0x0,%eax
   1b3d3:	e8 a8 dc fe ff       	callq  9080 <printf@plt>
   1b3d8:	83 45 f4 01          	addl   $0x1,-0xc(%rbp)
   1b3dc:	83 7d f4 02          	cmpl   $0x2,-0xc(%rbp)
   1b3e0:	0f 8e 02 fe ff ff    	jle    1b1e8 <main+0x53d4>
   1b3e6:	83 45 f0 01          	addl   $0x1,-0x10(%rbp)
   1b3ea:	83 7d f0 01          	cmpl   $0x1,-0x10(%rbp)
   1b3ee:	0f 8e e8 fd ff ff    	jle    1b1dc <main+0x53c8>
   1b3f4:	8b 05 76 9c 00 00    	mov    0x9c76(%rip),%eax        # 25070 <g_2095>
   1b3fa:	c1 e0 04             	shl    $0x4,%eax
   1b3fd:	c1 f8 04             	sar    $0x4,%eax
   1b400:	48 98                	cltq   
   1b402:	8b 55 fc             	mov    -0x4(%rbp),%edx
   1b405:	48 8d 35 69 2f 00 00 	lea    0x2f69(%rip),%rsi        # 1e375 <g_1254+0x22b1>
   1b40c:	48 89 c7             	mov    %rax,%rdi
   1b40f:	e8 df f2 fe ff       	callq  a6f3 <transparent_crc>
   1b414:	0f b7 05 59 9c 00 00 	movzwl 0x9c59(%rip),%eax        # 25074 <g_2095+0x4>
   1b41b:	48 0f bf c0          	movswq %ax,%rax
   1b41f:	8b 55 fc             	mov    -0x4(%rbp),%edx
   1b422:	48 8d 35 56 2f 00 00 	lea    0x2f56(%rip),%rsi        # 1e37f <g_1254+0x22bb>
   1b429:	48 89 c7             	mov    %rax,%rdi
   1b42c:	e8 c2 f2 fe ff       	callq  a6f3 <transparent_crc>
   1b431:	8b 05 41 9c 00 00    	mov    0x9c41(%rip),%eax        # 25078 <g_2095+0x8>
   1b437:	c1 e0 03             	shl    $0x3,%eax
   1b43a:	c1 f8 03             	sar    $0x3,%eax
   1b43d:	48 98                	cltq   
   1b43f:	8b 55 fc             	mov    -0x4(%rbp),%edx
   1b442:	48 8d 35 40 2f 00 00 	lea    0x2f40(%rip),%rsi        # 1e389 <g_1254+0x22c5>
   1b449:	48 89 c7             	mov    %rax,%rdi
   1b44c:	e8 a2 f2 fe ff       	callq  a6f3 <transparent_crc>
   1b451:	48 8b 05 20 9c 00 00 	mov    0x9c20(%rip),%rax        # 25078 <g_2095+0x8>
   1b458:	48 c1 e0 0f          	shl    $0xf,%rax
   1b45c:	48 c1 f8 2f          	sar    $0x2f,%rax
   1b460:	48 98                	cltq   
   1b462:	8b 55 fc             	mov    -0x4(%rbp),%edx
   1b465:	48 8d 35 27 2f 00 00 	lea    0x2f27(%rip),%rsi        # 1e393 <g_1254+0x22cf>
   1b46c:	48 89 c7             	mov    %rax,%rdi
   1b46f:	e8 7f f2 fe ff       	callq  a6f3 <transparent_crc>
   1b474:	48 8b 05 fd 9b 00 00 	mov    0x9bfd(%rip),%rax        # 25078 <g_2095+0x8>
   1b47b:	48 c1 e0 04          	shl    $0x4,%rax
   1b47f:	48 c1 f8 35          	sar    $0x35,%rax
   1b483:	48 0f bf c0          	movswq %ax,%rax
   1b487:	8b 55 fc             	mov    -0x4(%rbp),%edx
   1b48a:	48 8d 35 0c 2f 00 00 	lea    0x2f0c(%rip),%rsi        # 1e39d <g_1254+0x22d9>
   1b491:	48 89 c7             	mov    %rax,%rdi
   1b494:	e8 5a f2 fe ff       	callq  a6f3 <transparent_crc>
   1b499:	0f b6 05 df 9b 00 00 	movzbl 0x9bdf(%rip),%eax        # 2507f <g_2095+0xf>
   1b4a0:	c1 e0 03             	shl    $0x3,%eax
   1b4a3:	c0 f8 07             	sar    $0x7,%al
   1b4a6:	48 0f be c0          	movsbq %al,%rax
   1b4aa:	8b 55 fc             	mov    -0x4(%rbp),%edx
   1b4ad:	48 8d 35 f3 2e 00 00 	lea    0x2ef3(%rip),%rsi        # 1e3a7 <g_1254+0x22e3>
   1b4b4:	48 89 c7             	mov    %rax,%rdi
   1b4b7:	e8 37 f2 fe ff       	callq  a6f3 <transparent_crc>
   1b4bc:	48 8b 05 bd 9b 00 00 	mov    0x9bbd(%rip),%rax        # 25080 <g_2104>
   1b4c3:	c1 e0 06             	shl    $0x6,%eax
   1b4c6:	c1 f8 06             	sar    $0x6,%eax
   1b4c9:	48 98                	cltq   
   1b4cb:	8b 55 fc             	mov    -0x4(%rbp),%edx
   1b4ce:	48 8d 35 dc 2e 00 00 	lea    0x2edc(%rip),%rsi        # 1e3b1 <g_1254+0x22ed>
   1b4d5:	48 89 c7             	mov    %rax,%rdi
   1b4d8:	e8 16 f2 fe ff       	callq  a6f3 <transparent_crc>
   1b4dd:	0f b6 05 a0 9b 00 00 	movzbl 0x9ba0(%rip),%eax        # 25084 <g_2104+0x4>
   1b4e4:	48 0f be c0          	movsbq %al,%rax
   1b4e8:	8b 55 fc             	mov    -0x4(%rbp),%edx
   1b4eb:	48 8d 35 c9 2e 00 00 	lea    0x2ec9(%rip),%rsi        # 1e3bb <g_1254+0x22f7>
   1b4f2:	48 89 c7             	mov    %rax,%rdi
   1b4f5:	e8 f9 f1 fe ff       	callq  a6f3 <transparent_crc>
   1b4fa:	48 8b 05 7f 9b 00 00 	mov    0x9b7f(%rip),%rax        # 25080 <g_2104>
   1b501:	48 c1 e0 05          	shl    $0x5,%rax
   1b505:	48 c1 f8 2d          	sar    $0x2d,%rax
   1b509:	48 98                	cltq   
   1b50b:	8b 55 fc             	mov    -0x4(%rbp),%edx
   1b50e:	48 8d 35 b0 2e 00 00 	lea    0x2eb0(%rip),%rsi        # 1e3c5 <g_1254+0x2301>
   1b515:	48 89 c7             	mov    %rax,%rdi
   1b518:	e8 d6 f1 fe ff       	callq  a6f3 <transparent_crc>
   1b51d:	48 8b 05 64 9b 00 00 	mov    0x9b64(%rip),%rax        # 25088 <g_2104+0x8>
   1b524:	c1 e0 06             	shl    $0x6,%eax
   1b527:	c1 f8 06             	sar    $0x6,%eax
   1b52a:	48 98                	cltq   
   1b52c:	8b 55 fc             	mov    -0x4(%rbp),%edx
   1b52f:	48 8d 35 99 2e 00 00 	lea    0x2e99(%rip),%rsi        # 1e3cf <g_1254+0x230b>
   1b536:	48 89 c7             	mov    %rax,%rdi
   1b539:	e8 b5 f1 fe ff       	callq  a6f3 <transparent_crc>
   1b53e:	48 8b 05 43 9b 00 00 	mov    0x9b43(%rip),%rax        # 25088 <g_2104+0x8>
   1b545:	c1 e0 04             	shl    $0x4,%eax
   1b548:	c1 f8 1e             	sar    $0x1e,%eax
   1b54b:	48 0f be c0          	movsbq %al,%rax
   1b54f:	8b 55 fc             	mov    -0x4(%rbp),%edx
   1b552:	48 8d 35 80 2e 00 00 	lea    0x2e80(%rip),%rsi        # 1e3d9 <g_1254+0x2315>
   1b559:	48 89 c7             	mov    %rax,%rdi
   1b55c:	e8 92 f1 fe ff       	callq  a6f3 <transparent_crc>
   1b561:	48 8b 05 20 9b 00 00 	mov    0x9b20(%rip),%rax        # 25088 <g_2104+0x8>
   1b568:	48 c1 e0 0c          	shl    $0xc,%rax
   1b56c:	48 c1 f8 2c          	sar    $0x2c,%rax
   1b570:	48 98                	cltq   
   1b572:	8b 55 fc             	mov    -0x4(%rbp),%edx
   1b575:	48 8d 35 67 2e 00 00 	lea    0x2e67(%rip),%rsi        # 1e3e3 <g_1254+0x231f>
   1b57c:	48 89 c7             	mov    %rax,%rdi
   1b57f:	e8 6f f1 fe ff       	callq  a6f3 <transparent_crc>
   1b584:	48 8b 05 05 9b 00 00 	mov    0x9b05(%rip),%rax        # 25090 <g_2104+0x10>
   1b58b:	c1 e0 0d             	shl    $0xd,%eax
   1b58e:	c1 f8 0d             	sar    $0xd,%eax
   1b591:	48 98                	cltq   
   1b593:	8b 55 fc             	mov    -0x4(%rbp),%edx
   1b596:	48 8d 35 50 2e 00 00 	lea    0x2e50(%rip),%rsi        # 1e3ed <g_1254+0x2329>
   1b59d:	48 89 c7             	mov    %rax,%rdi
   1b5a0:	e8 4e f1 fe ff       	callq  a6f3 <transparent_crc>
   1b5a5:	8b 05 75 5a 00 00    	mov    0x5a75(%rip),%eax        # 21020 <crc32_context>
   1b5ab:	f7 d0                	not    %eax
   1b5ad:	89 c2                	mov    %eax,%edx
   1b5af:	8b 45 fc             	mov    -0x4(%rbp),%eax
   1b5b2:	89 c6                	mov    %eax,%esi
   1b5b4:	89 d7                	mov    %edx,%edi
   1b5b6:	e8 d9 db fe ff       	callq  9194 <platform_main_end>
   1b5bb:	b8 00 00 00 00       	mov    $0x0,%eax
   1b5c0:	c9                   	leaveq 
   1b5c1:	c3                   	retq   
   1b5c2:	66 2e 0f 1f 84 00 00 	nopw   %cs:0x0(%rax,%rax,1)
   1b5c9:	00 00 00 
   1b5cc:	0f 1f 40 00          	nopl   0x0(%rax)

000000000001b5d0 <__libc_csu_init>:
   1b5d0:	f3 0f 1e fa          	endbr64 
   1b5d4:	41 57                	push   %r15
   1b5d6:	4c 8d 3d 33 57 00 00 	lea    0x5733(%rip),%r15        # 20d10 <__frame_dummy_init_array_entry>
   1b5dd:	41 56                	push   %r14
   1b5df:	49 89 d6             	mov    %rdx,%r14
   1b5e2:	41 55                	push   %r13
   1b5e4:	49 89 f5             	mov    %rsi,%r13
   1b5e7:	41 54                	push   %r12
   1b5e9:	41 89 fc             	mov    %edi,%r12d
   1b5ec:	55                   	push   %rbp
   1b5ed:	48 8d 2d 24 57 00 00 	lea    0x5724(%rip),%rbp        # 20d18 <__do_global_dtors_aux_fini_array_entry>
   1b5f4:	53                   	push   %rbx
   1b5f5:	4c 29 fd             	sub    %r15,%rbp
   1b5f8:	48 83 ec 08          	sub    $0x8,%rsp
   1b5fc:	e8 ff d9 fe ff       	callq  9000 <_init>
   1b601:	48 c1 fd 03          	sar    $0x3,%rbp
   1b605:	74 1f                	je     1b626 <__libc_csu_init+0x56>
   1b607:	31 db                	xor    %ebx,%ebx
   1b609:	0f 1f 80 00 00 00 00 	nopl   0x0(%rax)
   1b610:	4c 89 f2             	mov    %r14,%rdx
   1b613:	4c 89 ee             	mov    %r13,%rsi
   1b616:	44 89 e7             	mov    %r12d,%edi
   1b619:	41 ff 14 df          	callq  *(%r15,%rbx,8)
   1b61d:	48 83 c3 01          	add    $0x1,%rbx
   1b621:	48 39 dd             	cmp    %rbx,%rbp
   1b624:	75 ea                	jne    1b610 <__libc_csu_init+0x40>
   1b626:	48 83 c4 08          	add    $0x8,%rsp
   1b62a:	5b                   	pop    %rbx
   1b62b:	5d                   	pop    %rbp
   1b62c:	41 5c                	pop    %r12
   1b62e:	41 5d                	pop    %r13
   1b630:	41 5e                	pop    %r14
   1b632:	41 5f                	pop    %r15
   1b634:	c3                   	retq   
   1b635:	66 66 2e 0f 1f 84 00 	data16 nopw %cs:0x0(%rax,%rax,1)
   1b63c:	00 00 00 00 

000000000001b640 <__libc_csu_fini>:
   1b640:	f3 0f 1e fa          	endbr64 
   1b644:	c3                   	retq   
